; Listing generated by Microsoft (R) Optimizing Compiler Version 19.27.29111.0 

	TITLE	C:\Mu Online\Mu-GS-Webzen-MC-10093\GameServer\AntiHack.cpp
	.686P
	.XMM
	include listing.inc
	.model	flat

INCLUDELIB LIBCMT
INCLUDELIB OLDNAMES

PUBLIC	?__empty_global_delete@@YAXPAX@Z		; __empty_global_delete
PUBLIC	?__empty_global_delete@@YAXPAXI@Z		; __empty_global_delete
PUBLIC	??2@YAPAXIPAX@Z					; operator new
PUBLIC	??0exception@std@@QAE@QBDH@Z			; std::exception::exception
PUBLIC	??0exception@std@@QAE@ABV01@@Z			; std::exception::exception
PUBLIC	??1exception@std@@UAE@XZ			; std::exception::~exception
PUBLIC	?what@exception@std@@UBEPBDXZ			; std::exception::what
PUBLIC	??_Gexception@std@@UAEPAXI@Z			; std::exception::`scalar deleting destructor'
PUBLIC	??0bad_alloc@std@@AAE@QBD@Z			; std::bad_alloc::bad_alloc
PUBLIC	??1bad_alloc@std@@UAE@XZ			; std::bad_alloc::~bad_alloc
PUBLIC	??0bad_alloc@std@@QAE@ABV01@@Z			; std::bad_alloc::bad_alloc
PUBLIC	??_Gbad_alloc@std@@UAEPAXI@Z			; std::bad_alloc::`scalar deleting destructor'
PUBLIC	??0bad_array_new_length@std@@QAE@XZ		; std::bad_array_new_length::bad_array_new_length
PUBLIC	??1bad_array_new_length@std@@UAE@XZ		; std::bad_array_new_length::~bad_array_new_length
PUBLIC	??0bad_array_new_length@std@@QAE@ABV01@@Z	; std::bad_array_new_length::bad_array_new_length
PUBLIC	??_Gbad_array_new_length@std@@UAEPAXI@Z		; std::bad_array_new_length::`scalar deleting destructor'
PUBLIC	?_Throw_bad_array_new_length@std@@YAXXZ		; std::_Throw_bad_array_new_length
PUBLIC	?max@?$numeric_limits@H@std@@SAHXZ		; std::numeric_limits<int>::max
PUBLIC	?_Allocate@_Default_allocate_traits@std@@SAPAXI@Z ; std::_Default_allocate_traits::_Allocate
PUBLIC	?_Adjust_manually_vector_aligned@std@@YAXAAPAXAAI@Z ; std::_Adjust_manually_vector_aligned
PUBLIC	?_Orphan_all@_Container_base0@std@@QAEXXZ	; std::_Container_base0::_Orphan_all
PUBLIC	?_Alloc_proxy@_Container_base0@std@@QAEXABU_Fake_allocator@2@@Z ; std::_Container_base0::_Alloc_proxy
PUBLIC	?_Adopt@_Iterator_base0@std@@QAEXPBX@Z		; std::_Iterator_base0::_Adopt
PUBLIC	??$min@I@std@@YAABIABI0@Z			; std::min<unsigned int>
PUBLIC	??$_Deallocate@$07$0A@@std@@YAXPAXI@Z		; std::_Deallocate<8,0>
PUBLIC	??$_Allocate@$07U_Default_allocate_traits@std@@$0A@@std@@YAPAXI@Z ; std::_Allocate<8,std::_Default_allocate_traits,0>
PUBLIC	??$_Allocate_manually_vector_aligned@U_Default_allocate_traits@std@@@std@@YAPAXI@Z ; std::_Allocate_manually_vector_aligned<std::_Default_allocate_traits>
PUBLIC	??0?$allocator@UUSER_CONNECT_TIME@@@std@@QAE@XZ	; std::allocator<USER_CONNECT_TIME>::allocator<USER_CONNECT_TIME>
PUBLIC	?deallocate@?$allocator@UUSER_CONNECT_TIME@@@std@@QAEXQAUUSER_CONNECT_TIME@@I@Z ; std::allocator<USER_CONNECT_TIME>::deallocate
PUBLIC	?allocate@?$allocator@UUSER_CONNECT_TIME@@@std@@QAEPAUUSER_CONNECT_TIME@@I@Z ; std::allocator<USER_CONNECT_TIME>::allocate
PUBLIC	?max_size@?$_Default_allocator_traits@V?$allocator@UUSER_CONNECT_TIME@@@std@@@std@@SAIABV?$allocator@UUSER_CONNECT_TIME@@@2@@Z ; std::_Default_allocator_traits<std::allocator<USER_CONNECT_TIME> >::max_size
PUBLIC	??0?$vector@UUSER_CONNECT_TIME@@V?$allocator@UUSER_CONNECT_TIME@@@std@@@std@@QAE@XZ ; std::vector<USER_CONNECT_TIME,std::allocator<USER_CONNECT_TIME> >::vector<USER_CONNECT_TIME,std::allocator<USER_CONNECT_TIME> >
PUBLIC	??1?$vector@UUSER_CONNECT_TIME@@V?$allocator@UUSER_CONNECT_TIME@@@std@@@std@@QAE@XZ ; std::vector<USER_CONNECT_TIME,std::allocator<USER_CONNECT_TIME> >::~vector<USER_CONNECT_TIME,std::allocator<USER_CONNECT_TIME> >
PUBLIC	?push_back@?$vector@UUSER_CONNECT_TIME@@V?$allocator@UUSER_CONNECT_TIME@@@std@@@std@@QAEXABUUSER_CONNECT_TIME@@@Z ; std::vector<USER_CONNECT_TIME,std::allocator<USER_CONNECT_TIME> >::push_back
PUBLIC	?erase@?$vector@UUSER_CONNECT_TIME@@V?$allocator@UUSER_CONNECT_TIME@@@std@@@std@@QAE?AV?$_Vector_iterator@V?$_Vector_val@U?$_Simple_types@UUSER_CONNECT_TIME@@@std@@@std@@@2@V?$_Vector_const_iterator@V?$_Vector_val@U?$_Simple_types@UUSER_CONNECT_TIME@@@std@@@std@@@2@@Z ; std::vector<USER_CONNECT_TIME,std::allocator<USER_CONNECT_TIME> >::erase
PUBLIC	?erase@?$vector@UUSER_CONNECT_TIME@@V?$allocator@UUSER_CONNECT_TIME@@@std@@@std@@QAE?AV?$_Vector_iterator@V?$_Vector_val@U?$_Simple_types@UUSER_CONNECT_TIME@@@std@@@std@@@2@V?$_Vector_const_iterator@V?$_Vector_val@U?$_Simple_types@UUSER_CONNECT_TIME@@@std@@@std@@@2@0@Z ; std::vector<USER_CONNECT_TIME,std::allocator<USER_CONNECT_TIME> >::erase
PUBLIC	?begin@?$vector@UUSER_CONNECT_TIME@@V?$allocator@UUSER_CONNECT_TIME@@@std@@@std@@QAE?AV?$_Vector_iterator@V?$_Vector_val@U?$_Simple_types@UUSER_CONNECT_TIME@@@std@@@std@@@2@XZ ; std::vector<USER_CONNECT_TIME,std::allocator<USER_CONNECT_TIME> >::begin
PUBLIC	?end@?$vector@UUSER_CONNECT_TIME@@V?$allocator@UUSER_CONNECT_TIME@@@std@@@std@@QAE?AV?$_Vector_iterator@V?$_Vector_val@U?$_Simple_types@UUSER_CONNECT_TIME@@@std@@@std@@@2@XZ ; std::vector<USER_CONNECT_TIME,std::allocator<USER_CONNECT_TIME> >::end
PUBLIC	?size@?$vector@UUSER_CONNECT_TIME@@V?$allocator@UUSER_CONNECT_TIME@@@std@@@std@@QBEIXZ ; std::vector<USER_CONNECT_TIME,std::allocator<USER_CONNECT_TIME> >::size
PUBLIC	?max_size@?$vector@UUSER_CONNECT_TIME@@V?$allocator@UUSER_CONNECT_TIME@@@std@@@std@@QBEIXZ ; std::vector<USER_CONNECT_TIME,std::allocator<USER_CONNECT_TIME> >::max_size
PUBLIC	?capacity@?$vector@UUSER_CONNECT_TIME@@V?$allocator@UUSER_CONNECT_TIME@@@std@@@std@@QBEIXZ ; std::vector<USER_CONNECT_TIME,std::allocator<USER_CONNECT_TIME> >::capacity
PUBLIC	?_Umove@?$vector@UUSER_CONNECT_TIME@@V?$allocator@UUSER_CONNECT_TIME@@@std@@@std@@AAEPAUUSER_CONNECT_TIME@@PAU3@00@Z ; std::vector<USER_CONNECT_TIME,std::allocator<USER_CONNECT_TIME> >::_Umove
PUBLIC	?_Umove_if_noexcept1@?$vector@UUSER_CONNECT_TIME@@V?$allocator@UUSER_CONNECT_TIME@@@std@@@std@@AAEXPAUUSER_CONNECT_TIME@@00U?$integral_constant@_N$00@2@@Z ; std::vector<USER_CONNECT_TIME,std::allocator<USER_CONNECT_TIME> >::_Umove_if_noexcept1
PUBLIC	?_Umove_if_noexcept@?$vector@UUSER_CONNECT_TIME@@V?$allocator@UUSER_CONNECT_TIME@@@std@@@std@@AAEXPAUUSER_CONNECT_TIME@@00@Z ; std::vector<USER_CONNECT_TIME,std::allocator<USER_CONNECT_TIME> >::_Umove_if_noexcept
PUBLIC	?_Destroy@?$vector@UUSER_CONNECT_TIME@@V?$allocator@UUSER_CONNECT_TIME@@@std@@@std@@AAEXPAUUSER_CONNECT_TIME@@0@Z ; std::vector<USER_CONNECT_TIME,std::allocator<USER_CONNECT_TIME> >::_Destroy
PUBLIC	?_Calculate_growth@?$vector@UUSER_CONNECT_TIME@@V?$allocator@UUSER_CONNECT_TIME@@@std@@@std@@ABEII@Z ; std::vector<USER_CONNECT_TIME,std::allocator<USER_CONNECT_TIME> >::_Calculate_growth
PUBLIC	?_Change_array@?$vector@UUSER_CONNECT_TIME@@V?$allocator@UUSER_CONNECT_TIME@@@std@@@std@@AAEXQAUUSER_CONNECT_TIME@@II@Z ; std::vector<USER_CONNECT_TIME,std::allocator<USER_CONNECT_TIME> >::_Change_array
PUBLIC	?_Tidy@?$vector@UUSER_CONNECT_TIME@@V?$allocator@UUSER_CONNECT_TIME@@@std@@@std@@AAEXXZ ; std::vector<USER_CONNECT_TIME,std::allocator<USER_CONNECT_TIME> >::_Tidy
PUBLIC	?_Xlength@?$vector@UUSER_CONNECT_TIME@@V?$allocator@UUSER_CONNECT_TIME@@@std@@@std@@CAXXZ ; std::vector<USER_CONNECT_TIME,std::allocator<USER_CONNECT_TIME> >::_Xlength
PUBLIC	?_Orphan_range@?$vector@UUSER_CONNECT_TIME@@V?$allocator@UUSER_CONNECT_TIME@@@std@@@std@@ABEXPAUUSER_CONNECT_TIME@@0@Z ; std::vector<USER_CONNECT_TIME,std::allocator<USER_CONNECT_TIME> >::_Orphan_range
PUBLIC	?_Getal@?$vector@UUSER_CONNECT_TIME@@V?$allocator@UUSER_CONNECT_TIME@@@std@@@std@@AAEAAV?$allocator@UUSER_CONNECT_TIME@@@2@XZ ; std::vector<USER_CONNECT_TIME,std::allocator<USER_CONNECT_TIME> >::_Getal
PUBLIC	?_Getal@?$vector@UUSER_CONNECT_TIME@@V?$allocator@UUSER_CONNECT_TIME@@@std@@@std@@ABEABV?$allocator@UUSER_CONNECT_TIME@@@2@XZ ; std::vector<USER_CONNECT_TIME,std::allocator<USER_CONNECT_TIME> >::_Getal
PUBLIC	??0?$_Vector_val@U?$_Simple_types@UUSER_CONNECT_TIME@@@std@@@std@@QAE@XZ ; std::_Vector_val<std::_Simple_types<USER_CONNECT_TIME> >::_Vector_val<std::_Simple_types<USER_CONNECT_TIME> >
PUBLIC	?_Get_first@?$_Compressed_pair@V?$allocator@UUSER_CONNECT_TIME@@@std@@V?$_Vector_val@U?$_Simple_types@UUSER_CONNECT_TIME@@@std@@@2@$00@std@@QAEAAV?$allocator@UUSER_CONNECT_TIME@@@2@XZ ; std::_Compressed_pair<std::allocator<USER_CONNECT_TIME>,std::_Vector_val<std::_Simple_types<USER_CONNECT_TIME> >,1>::_Get_first
PUBLIC	?_Get_first@?$_Compressed_pair@V?$allocator@UUSER_CONNECT_TIME@@@std@@V?$_Vector_val@U?$_Simple_types@UUSER_CONNECT_TIME@@@std@@@2@$00@std@@QBEABV?$allocator@UUSER_CONNECT_TIME@@@2@XZ ; std::_Compressed_pair<std::allocator<USER_CONNECT_TIME>,std::_Vector_val<std::_Simple_types<USER_CONNECT_TIME> >,1>::_Get_first
PUBLIC	?ChkUserConnectInterval@@YA_NPAUUSER_CONNECT_TIME@@@Z ; ChkUserConnectInterval
PUBLIC	?SetConnectUser@@YAXPAUUSER_CONNECT_TIME@@@Z	; SetConnectUser
PUBLIC	??0?$allocator@UIP_BLOCK@@@std@@QAE@XZ		; std::allocator<IP_BLOCK>::allocator<IP_BLOCK>
PUBLIC	?deallocate@?$allocator@UIP_BLOCK@@@std@@QAEXQAUIP_BLOCK@@I@Z ; std::allocator<IP_BLOCK>::deallocate
PUBLIC	?allocate@?$allocator@UIP_BLOCK@@@std@@QAEPAUIP_BLOCK@@I@Z ; std::allocator<IP_BLOCK>::allocate
PUBLIC	?max_size@?$_Default_allocator_traits@V?$allocator@UIP_BLOCK@@@std@@@std@@SAIABV?$allocator@UIP_BLOCK@@@2@@Z ; std::_Default_allocator_traits<std::allocator<IP_BLOCK> >::max_size
PUBLIC	??0?$vector@UIP_BLOCK@@V?$allocator@UIP_BLOCK@@@std@@@std@@QAE@XZ ; std::vector<IP_BLOCK,std::allocator<IP_BLOCK> >::vector<IP_BLOCK,std::allocator<IP_BLOCK> >
PUBLIC	??1?$vector@UIP_BLOCK@@V?$allocator@UIP_BLOCK@@@std@@@std@@QAE@XZ ; std::vector<IP_BLOCK,std::allocator<IP_BLOCK> >::~vector<IP_BLOCK,std::allocator<IP_BLOCK> >
PUBLIC	?push_back@?$vector@UIP_BLOCK@@V?$allocator@UIP_BLOCK@@@std@@@std@@QAEXABUIP_BLOCK@@@Z ; std::vector<IP_BLOCK,std::allocator<IP_BLOCK> >::push_back
PUBLIC	?erase@?$vector@UIP_BLOCK@@V?$allocator@UIP_BLOCK@@@std@@@std@@QAE?AV?$_Vector_iterator@V?$_Vector_val@U?$_Simple_types@UIP_BLOCK@@@std@@@std@@@2@V?$_Vector_const_iterator@V?$_Vector_val@U?$_Simple_types@UIP_BLOCK@@@std@@@std@@@2@@Z ; std::vector<IP_BLOCK,std::allocator<IP_BLOCK> >::erase
PUBLIC	?erase@?$vector@UIP_BLOCK@@V?$allocator@UIP_BLOCK@@@std@@@std@@QAE?AV?$_Vector_iterator@V?$_Vector_val@U?$_Simple_types@UIP_BLOCK@@@std@@@std@@@2@V?$_Vector_const_iterator@V?$_Vector_val@U?$_Simple_types@UIP_BLOCK@@@std@@@std@@@2@0@Z ; std::vector<IP_BLOCK,std::allocator<IP_BLOCK> >::erase
PUBLIC	?begin@?$vector@UIP_BLOCK@@V?$allocator@UIP_BLOCK@@@std@@@std@@QAE?AV?$_Vector_iterator@V?$_Vector_val@U?$_Simple_types@UIP_BLOCK@@@std@@@std@@@2@XZ ; std::vector<IP_BLOCK,std::allocator<IP_BLOCK> >::begin
PUBLIC	?end@?$vector@UIP_BLOCK@@V?$allocator@UIP_BLOCK@@@std@@@std@@QAE?AV?$_Vector_iterator@V?$_Vector_val@U?$_Simple_types@UIP_BLOCK@@@std@@@std@@@2@XZ ; std::vector<IP_BLOCK,std::allocator<IP_BLOCK> >::end
PUBLIC	?size@?$vector@UIP_BLOCK@@V?$allocator@UIP_BLOCK@@@std@@@std@@QBEIXZ ; std::vector<IP_BLOCK,std::allocator<IP_BLOCK> >::size
PUBLIC	?max_size@?$vector@UIP_BLOCK@@V?$allocator@UIP_BLOCK@@@std@@@std@@QBEIXZ ; std::vector<IP_BLOCK,std::allocator<IP_BLOCK> >::max_size
PUBLIC	?capacity@?$vector@UIP_BLOCK@@V?$allocator@UIP_BLOCK@@@std@@@std@@QBEIXZ ; std::vector<IP_BLOCK,std::allocator<IP_BLOCK> >::capacity
PUBLIC	?_Umove@?$vector@UIP_BLOCK@@V?$allocator@UIP_BLOCK@@@std@@@std@@AAEPAUIP_BLOCK@@PAU3@00@Z ; std::vector<IP_BLOCK,std::allocator<IP_BLOCK> >::_Umove
PUBLIC	?_Umove_if_noexcept1@?$vector@UIP_BLOCK@@V?$allocator@UIP_BLOCK@@@std@@@std@@AAEXPAUIP_BLOCK@@00U?$integral_constant@_N$00@2@@Z ; std::vector<IP_BLOCK,std::allocator<IP_BLOCK> >::_Umove_if_noexcept1
PUBLIC	?_Umove_if_noexcept@?$vector@UIP_BLOCK@@V?$allocator@UIP_BLOCK@@@std@@@std@@AAEXPAUIP_BLOCK@@00@Z ; std::vector<IP_BLOCK,std::allocator<IP_BLOCK> >::_Umove_if_noexcept
PUBLIC	?_Destroy@?$vector@UIP_BLOCK@@V?$allocator@UIP_BLOCK@@@std@@@std@@AAEXPAUIP_BLOCK@@0@Z ; std::vector<IP_BLOCK,std::allocator<IP_BLOCK> >::_Destroy
PUBLIC	?_Calculate_growth@?$vector@UIP_BLOCK@@V?$allocator@UIP_BLOCK@@@std@@@std@@ABEII@Z ; std::vector<IP_BLOCK,std::allocator<IP_BLOCK> >::_Calculate_growth
PUBLIC	?_Change_array@?$vector@UIP_BLOCK@@V?$allocator@UIP_BLOCK@@@std@@@std@@AAEXQAUIP_BLOCK@@II@Z ; std::vector<IP_BLOCK,std::allocator<IP_BLOCK> >::_Change_array
PUBLIC	?_Tidy@?$vector@UIP_BLOCK@@V?$allocator@UIP_BLOCK@@@std@@@std@@AAEXXZ ; std::vector<IP_BLOCK,std::allocator<IP_BLOCK> >::_Tidy
PUBLIC	?_Xlength@?$vector@UIP_BLOCK@@V?$allocator@UIP_BLOCK@@@std@@@std@@CAXXZ ; std::vector<IP_BLOCK,std::allocator<IP_BLOCK> >::_Xlength
PUBLIC	?_Orphan_range@?$vector@UIP_BLOCK@@V?$allocator@UIP_BLOCK@@@std@@@std@@ABEXPAUIP_BLOCK@@0@Z ; std::vector<IP_BLOCK,std::allocator<IP_BLOCK> >::_Orphan_range
PUBLIC	?_Getal@?$vector@UIP_BLOCK@@V?$allocator@UIP_BLOCK@@@std@@@std@@AAEAAV?$allocator@UIP_BLOCK@@@2@XZ ; std::vector<IP_BLOCK,std::allocator<IP_BLOCK> >::_Getal
PUBLIC	?_Getal@?$vector@UIP_BLOCK@@V?$allocator@UIP_BLOCK@@@std@@@std@@ABEABV?$allocator@UIP_BLOCK@@@2@XZ ; std::vector<IP_BLOCK,std::allocator<IP_BLOCK> >::_Getal
PUBLIC	??0?$_Vector_val@U?$_Simple_types@UIP_BLOCK@@@std@@@std@@QAE@XZ ; std::_Vector_val<std::_Simple_types<IP_BLOCK> >::_Vector_val<std::_Simple_types<IP_BLOCK> >
PUBLIC	?_Get_first@?$_Compressed_pair@V?$allocator@UIP_BLOCK@@@std@@V?$_Vector_val@U?$_Simple_types@UIP_BLOCK@@@std@@@2@$00@std@@QAEAAV?$allocator@UIP_BLOCK@@@2@XZ ; std::_Compressed_pair<std::allocator<IP_BLOCK>,std::_Vector_val<std::_Simple_types<IP_BLOCK> >,1>::_Get_first
PUBLIC	?_Get_first@?$_Compressed_pair@V?$allocator@UIP_BLOCK@@@std@@V?$_Vector_val@U?$_Simple_types@UIP_BLOCK@@@std@@@2@$00@std@@QBEABV?$allocator@UIP_BLOCK@@@2@XZ ; std::_Compressed_pair<std::allocator<IP_BLOCK>,std::_Vector_val<std::_Simple_types<IP_BLOCK> >,1>::_Get_first
PUBLIC	?ChkBlockIp@@YA_NPAUIP_BLOCK@@@Z		; ChkBlockIp
PUBLIC	?setBlockIP@@YAXPAUIP_BLOCK@@@Z			; setBlockIP
PUBLIC	??0?$_Vector_const_iterator@V?$_Vector_val@U?$_Simple_types@UUSER_CONNECT_TIME@@@std@@@std@@@std@@QAE@XZ ; std::_Vector_const_iterator<std::_Vector_val<std::_Simple_types<USER_CONNECT_TIME> > >::_Vector_const_iterator<std::_Vector_val<std::_Simple_types<USER_CONNECT_TIME> > >
PUBLIC	??0?$_Vector_const_iterator@V?$_Vector_val@U?$_Simple_types@UUSER_CONNECT_TIME@@@std@@@std@@@std@@QAE@PAUUSER_CONNECT_TIME@@PBU_Container_base0@1@@Z ; std::_Vector_const_iterator<std::_Vector_val<std::_Simple_types<USER_CONNECT_TIME> > >::_Vector_const_iterator<std::_Vector_val<std::_Simple_types<USER_CONNECT_TIME> > >
PUBLIC	??D?$_Vector_const_iterator@V?$_Vector_val@U?$_Simple_types@UUSER_CONNECT_TIME@@@std@@@std@@@std@@QBEABUUSER_CONNECT_TIME@@XZ ; std::_Vector_const_iterator<std::_Vector_val<std::_Simple_types<USER_CONNECT_TIME> > >::operator*
PUBLIC	??E?$_Vector_const_iterator@V?$_Vector_val@U?$_Simple_types@UUSER_CONNECT_TIME@@@std@@@std@@@std@@QAEAAV01@XZ ; std::_Vector_const_iterator<std::_Vector_val<std::_Simple_types<USER_CONNECT_TIME> > >::operator++
PUBLIC	??8?$_Vector_const_iterator@V?$_Vector_val@U?$_Simple_types@UUSER_CONNECT_TIME@@@std@@@std@@@std@@QBE_NABV01@@Z ; std::_Vector_const_iterator<std::_Vector_val<std::_Simple_types<USER_CONNECT_TIME> > >::operator==
PUBLIC	??9?$_Vector_const_iterator@V?$_Vector_val@U?$_Simple_types@UUSER_CONNECT_TIME@@@std@@@std@@@std@@QBE_NABV01@@Z ; std::_Vector_const_iterator<std::_Vector_val<std::_Simple_types<USER_CONNECT_TIME> > >::operator!=
PUBLIC	?_Compat@?$_Vector_const_iterator@V?$_Vector_val@U?$_Simple_types@UUSER_CONNECT_TIME@@@std@@@std@@@std@@QBEXABV12@@Z ; std::_Vector_const_iterator<std::_Vector_val<std::_Simple_types<USER_CONNECT_TIME> > >::_Compat
PUBLIC	??D?$_Vector_iterator@V?$_Vector_val@U?$_Simple_types@UUSER_CONNECT_TIME@@@std@@@std@@@std@@QBEAAUUSER_CONNECT_TIME@@XZ ; std::_Vector_iterator<std::_Vector_val<std::_Simple_types<USER_CONNECT_TIME> > >::operator*
PUBLIC	??E?$_Vector_iterator@V?$_Vector_val@U?$_Simple_types@UUSER_CONNECT_TIME@@@std@@@std@@@std@@QAEAAV01@XZ ; std::_Vector_iterator<std::_Vector_val<std::_Simple_types<USER_CONNECT_TIME> > >::operator++
PUBLIC	??0?$_Vector_iterator@V?$_Vector_val@U?$_Simple_types@UUSER_CONNECT_TIME@@@std@@@std@@@std@@QAE@XZ ; std::_Vector_iterator<std::_Vector_val<std::_Simple_types<USER_CONNECT_TIME> > >::_Vector_iterator<std::_Vector_val<std::_Simple_types<USER_CONNECT_TIME> > >
PUBLIC	??0?$_Vector_iterator@V?$_Vector_val@U?$_Simple_types@UUSER_CONNECT_TIME@@@std@@@std@@@std@@QAE@PAUUSER_CONNECT_TIME@@PBU_Container_base0@1@@Z ; std::_Vector_iterator<std::_Vector_val<std::_Simple_types<USER_CONNECT_TIME> > >::_Vector_iterator<std::_Vector_val<std::_Simple_types<USER_CONNECT_TIME> > >
PUBLIC	??0?$_Vector_const_iterator@V?$_Vector_val@U?$_Simple_types@UIP_BLOCK@@@std@@@std@@@std@@QAE@XZ ; std::_Vector_const_iterator<std::_Vector_val<std::_Simple_types<IP_BLOCK> > >::_Vector_const_iterator<std::_Vector_val<std::_Simple_types<IP_BLOCK> > >
PUBLIC	??0?$_Vector_const_iterator@V?$_Vector_val@U?$_Simple_types@UIP_BLOCK@@@std@@@std@@@std@@QAE@PAUIP_BLOCK@@PBU_Container_base0@1@@Z ; std::_Vector_const_iterator<std::_Vector_val<std::_Simple_types<IP_BLOCK> > >::_Vector_const_iterator<std::_Vector_val<std::_Simple_types<IP_BLOCK> > >
PUBLIC	??D?$_Vector_const_iterator@V?$_Vector_val@U?$_Simple_types@UIP_BLOCK@@@std@@@std@@@std@@QBEABUIP_BLOCK@@XZ ; std::_Vector_const_iterator<std::_Vector_val<std::_Simple_types<IP_BLOCK> > >::operator*
PUBLIC	??E?$_Vector_const_iterator@V?$_Vector_val@U?$_Simple_types@UIP_BLOCK@@@std@@@std@@@std@@QAEAAV01@XZ ; std::_Vector_const_iterator<std::_Vector_val<std::_Simple_types<IP_BLOCK> > >::operator++
PUBLIC	??8?$_Vector_const_iterator@V?$_Vector_val@U?$_Simple_types@UIP_BLOCK@@@std@@@std@@@std@@QBE_NABV01@@Z ; std::_Vector_const_iterator<std::_Vector_val<std::_Simple_types<IP_BLOCK> > >::operator==
PUBLIC	??9?$_Vector_const_iterator@V?$_Vector_val@U?$_Simple_types@UIP_BLOCK@@@std@@@std@@@std@@QBE_NABV01@@Z ; std::_Vector_const_iterator<std::_Vector_val<std::_Simple_types<IP_BLOCK> > >::operator!=
PUBLIC	?_Compat@?$_Vector_const_iterator@V?$_Vector_val@U?$_Simple_types@UIP_BLOCK@@@std@@@std@@@std@@QBEXABV12@@Z ; std::_Vector_const_iterator<std::_Vector_val<std::_Simple_types<IP_BLOCK> > >::_Compat
PUBLIC	??D?$_Vector_iterator@V?$_Vector_val@U?$_Simple_types@UIP_BLOCK@@@std@@@std@@@std@@QBEAAUIP_BLOCK@@XZ ; std::_Vector_iterator<std::_Vector_val<std::_Simple_types<IP_BLOCK> > >::operator*
PUBLIC	??E?$_Vector_iterator@V?$_Vector_val@U?$_Simple_types@UIP_BLOCK@@@std@@@std@@@std@@QAEAAV01@XZ ; std::_Vector_iterator<std::_Vector_val<std::_Simple_types<IP_BLOCK> > >::operator++
PUBLIC	??0?$_Vector_iterator@V?$_Vector_val@U?$_Simple_types@UIP_BLOCK@@@std@@@std@@@std@@QAE@XZ ; std::_Vector_iterator<std::_Vector_val<std::_Simple_types<IP_BLOCK> > >::_Vector_iterator<std::_Vector_val<std::_Simple_types<IP_BLOCK> > >
PUBLIC	??0?$_Vector_iterator@V?$_Vector_val@U?$_Simple_types@UIP_BLOCK@@@std@@@std@@@std@@QAE@PAUIP_BLOCK@@PBU_Container_base0@1@@Z ; std::_Vector_iterator<std::_Vector_val<std::_Simple_types<IP_BLOCK> > >::_Vector_iterator<std::_Vector_val<std::_Simple_types<IP_BLOCK> > >
PUBLIC	??$addressof@V?$_Vector_val@U?$_Simple_types@UIP_BLOCK@@@std@@@std@@@std@@YAPAV?$_Vector_val@U?$_Simple_types@UIP_BLOCK@@@std@@@0@AAV10@@Z ; std::addressof<std::_Vector_val<std::_Simple_types<IP_BLOCK> > >
PUBLIC	??$_Move_unchecked@PAUIP_BLOCK@@PAU1@@std@@YAPAUIP_BLOCK@@PAU1@00@Z ; std::_Move_unchecked<IP_BLOCK *,IP_BLOCK *>
PUBLIC	??$_Unfancy@UIP_BLOCK@@@std@@YAPAUIP_BLOCK@@PAU1@@Z ; std::_Unfancy<IP_BLOCK>
PUBLIC	??$destroy@UIP_BLOCK@@@?$_Default_allocator_traits@V?$allocator@UIP_BLOCK@@@std@@@std@@SAXAAV?$allocator@UIP_BLOCK@@@1@QAUIP_BLOCK@@@Z ; std::_Default_allocator_traits<std::allocator<IP_BLOCK> >::destroy<IP_BLOCK>
PUBLIC	??$emplace_back@ABUIP_BLOCK@@@?$vector@UIP_BLOCK@@V?$allocator@UIP_BLOCK@@@std@@@std@@QAE@ABUIP_BLOCK@@@Z ; std::vector<IP_BLOCK,std::allocator<IP_BLOCK> >::emplace_back<IP_BLOCK const &>
PUBLIC	??$forward@ABUIP_BLOCK@@@std@@YAABUIP_BLOCK@@ABU1@@Z ; std::forward<IP_BLOCK const &>
PUBLIC	??$_Emplace_back_with_unused_capacity@ABUIP_BLOCK@@@?$vector@UIP_BLOCK@@V?$allocator@UIP_BLOCK@@@std@@@std@@AAE@ABUIP_BLOCK@@@Z ; std::vector<IP_BLOCK,std::allocator<IP_BLOCK> >::_Emplace_back_with_unused_capacity<IP_BLOCK const &>
PUBLIC	??$construct@UIP_BLOCK@@ABU1@@?$_Default_allocator_traits@V?$allocator@UIP_BLOCK@@@std@@@std@@SAXAAV?$allocator@UIP_BLOCK@@@1@QAUIP_BLOCK@@ABU3@@Z ; std::_Default_allocator_traits<std::allocator<IP_BLOCK> >::construct<IP_BLOCK,IP_BLOCK const &>
PUBLIC	??$_Emplace_reallocate@ABUIP_BLOCK@@@?$vector@UIP_BLOCK@@V?$allocator@UIP_BLOCK@@@std@@@std@@QAEPAUIP_BLOCK@@QAU2@ABU2@@Z ; std::vector<IP_BLOCK,std::allocator<IP_BLOCK> >::_Emplace_reallocate<IP_BLOCK const &>
PUBLIC	??$?0$$V@?$_Compressed_pair@V?$allocator@UIP_BLOCK@@@std@@V?$_Vector_val@U?$_Simple_types@UIP_BLOCK@@@std@@@2@$00@std@@QAE@U_Zero_then_variadic_args_t@1@@Z ; std::_Compressed_pair<std::allocator<IP_BLOCK>,std::_Vector_val<std::_Simple_types<IP_BLOCK> >,1>::_Compressed_pair<std::allocator<IP_BLOCK>,std::_Vector_val<std::_Simple_types<IP_BLOCK> >,1><>
PUBLIC	??$addressof@V?$_Vector_val@U?$_Simple_types@UUSER_CONNECT_TIME@@@std@@@std@@@std@@YAPAV?$_Vector_val@U?$_Simple_types@UUSER_CONNECT_TIME@@@std@@@0@AAV10@@Z ; std::addressof<std::_Vector_val<std::_Simple_types<USER_CONNECT_TIME> > >
PUBLIC	??$_Move_unchecked@PAUUSER_CONNECT_TIME@@PAU1@@std@@YAPAUUSER_CONNECT_TIME@@PAU1@00@Z ; std::_Move_unchecked<USER_CONNECT_TIME *,USER_CONNECT_TIME *>
PUBLIC	??$_Unfancy@UUSER_CONNECT_TIME@@@std@@YAPAUUSER_CONNECT_TIME@@PAU1@@Z ; std::_Unfancy<USER_CONNECT_TIME>
PUBLIC	??$destroy@UUSER_CONNECT_TIME@@@?$_Default_allocator_traits@V?$allocator@UUSER_CONNECT_TIME@@@std@@@std@@SAXAAV?$allocator@UUSER_CONNECT_TIME@@@1@QAUUSER_CONNECT_TIME@@@Z ; std::_Default_allocator_traits<std::allocator<USER_CONNECT_TIME> >::destroy<USER_CONNECT_TIME>
PUBLIC	??$emplace_back@ABUUSER_CONNECT_TIME@@@?$vector@UUSER_CONNECT_TIME@@V?$allocator@UUSER_CONNECT_TIME@@@std@@@std@@QAE@ABUUSER_CONNECT_TIME@@@Z ; std::vector<USER_CONNECT_TIME,std::allocator<USER_CONNECT_TIME> >::emplace_back<USER_CONNECT_TIME const &>
PUBLIC	??$forward@ABUUSER_CONNECT_TIME@@@std@@YAABUUSER_CONNECT_TIME@@ABU1@@Z ; std::forward<USER_CONNECT_TIME const &>
PUBLIC	??$_Emplace_back_with_unused_capacity@ABUUSER_CONNECT_TIME@@@?$vector@UUSER_CONNECT_TIME@@V?$allocator@UUSER_CONNECT_TIME@@@std@@@std@@AAE@ABUUSER_CONNECT_TIME@@@Z ; std::vector<USER_CONNECT_TIME,std::allocator<USER_CONNECT_TIME> >::_Emplace_back_with_unused_capacity<USER_CONNECT_TIME const &>
PUBLIC	??$construct@UUSER_CONNECT_TIME@@ABU1@@?$_Default_allocator_traits@V?$allocator@UUSER_CONNECT_TIME@@@std@@@std@@SAXAAV?$allocator@UUSER_CONNECT_TIME@@@1@QAUUSER_CONNECT_TIME@@ABU3@@Z ; std::_Default_allocator_traits<std::allocator<USER_CONNECT_TIME> >::construct<USER_CONNECT_TIME,USER_CONNECT_TIME const &>
PUBLIC	??$_Emplace_reallocate@ABUUSER_CONNECT_TIME@@@?$vector@UUSER_CONNECT_TIME@@V?$allocator@UUSER_CONNECT_TIME@@@std@@@std@@QAEPAUUSER_CONNECT_TIME@@QAU2@ABU2@@Z ; std::vector<USER_CONNECT_TIME,std::allocator<USER_CONNECT_TIME> >::_Emplace_reallocate<USER_CONNECT_TIME const &>
PUBLIC	??$?0$$V@?$_Compressed_pair@V?$allocator@UUSER_CONNECT_TIME@@@std@@V?$_Vector_val@U?$_Simple_types@UUSER_CONNECT_TIME@@@std@@@2@$00@std@@QAE@U_Zero_then_variadic_args_t@1@@Z ; std::_Compressed_pair<std::allocator<USER_CONNECT_TIME>,std::_Vector_val<std::_Simple_types<USER_CONNECT_TIME> >,1>::_Compressed_pair<std::allocator<USER_CONNECT_TIME>,std::_Vector_val<std::_Simple_types<USER_CONNECT_TIME> >,1><>
PUBLIC	??$_Destroy_range@V?$allocator@UIP_BLOCK@@@std@@@std@@YAXPAUIP_BLOCK@@QAU1@AAV?$allocator@UIP_BLOCK@@@0@@Z ; std::_Destroy_range<std::allocator<IP_BLOCK> >
PUBLIC	??$_Destroy_range@V?$allocator@UUSER_CONNECT_TIME@@@std@@@std@@YAXPAUUSER_CONNECT_TIME@@QAU1@AAV?$allocator@UUSER_CONNECT_TIME@@@0@@Z ; std::_Destroy_range<std::allocator<USER_CONNECT_TIME> >
PUBLIC	??$_Copy_memmove@PAUIP_BLOCK@@PAU1@@std@@YAPAUIP_BLOCK@@PAU1@00@Z ; std::_Copy_memmove<IP_BLOCK *,IP_BLOCK *>
PUBLIC	??$move@AAUIP_BLOCK@@@std@@YA$$QAUIP_BLOCK@@AAU1@@Z ; std::move<IP_BLOCK &>
PUBLIC	??$_Copy_memmove@PAUUSER_CONNECT_TIME@@PAU1@@std@@YAPAUUSER_CONNECT_TIME@@PAU1@00@Z ; std::_Copy_memmove<USER_CONNECT_TIME *,USER_CONNECT_TIME *>
PUBLIC	??$move@AAUUSER_CONNECT_TIME@@@std@@YA$$QAUUSER_CONNECT_TIME@@AAU1@@Z ; std::move<USER_CONNECT_TIME &>
PUBLIC	??$_Uninitialized_move@PAUIP_BLOCK@@V?$allocator@UIP_BLOCK@@@std@@@std@@YAPAUIP_BLOCK@@QAU1@0PAU1@AAV?$allocator@UIP_BLOCK@@@0@@Z ; std::_Uninitialized_move<IP_BLOCK *,std::allocator<IP_BLOCK> >
PUBLIC	??$_Get_size_of_n@$0CA@@std@@YAII@Z		; std::_Get_size_of_n<32>
PUBLIC	??$_Uninitialized_move@PAUUSER_CONNECT_TIME@@V?$allocator@UUSER_CONNECT_TIME@@@std@@@std@@YAPAUUSER_CONNECT_TIME@@QAU1@0PAU1@AAV?$allocator@UUSER_CONNECT_TIME@@@0@@Z ; std::_Uninitialized_move<USER_CONNECT_TIME *,std::allocator<USER_CONNECT_TIME> >
PUBLIC	??$_Get_size_of_n@$0CE@@std@@YAII@Z		; std::_Get_size_of_n<36>
PUBLIC	??$_Get_unwrapped@ABQAUIP_BLOCK@@@std@@YA@ABQAUIP_BLOCK@@@Z ; std::_Get_unwrapped<IP_BLOCK * const &>
PUBLIC	??$_Get_unwrapped@ABQAUUSER_CONNECT_TIME@@@std@@YA@ABQAUUSER_CONNECT_TIME@@@Z ; std::_Get_unwrapped<USER_CONNECT_TIME * const &>
PUBLIC	??_7exception@std@@6B@				; std::exception::`vftable'
PUBLIC	??_C@_0BC@EOODALEL@Unknown?5exception@		; `string'
PUBLIC	??_7bad_alloc@std@@6B@				; std::bad_alloc::`vftable'
PUBLIC	??_7bad_array_new_length@std@@6B@		; std::bad_array_new_length::`vftable'
PUBLIC	??_C@_0BF@KINCDENJ@bad?5array?5new?5length@	; `string'
PUBLIC	__TI3?AVbad_array_new_length@std@@
PUBLIC	__CTA3?AVbad_array_new_length@std@@
PUBLIC	??_R0?AVbad_array_new_length@std@@@8		; std::bad_array_new_length `RTTI Type Descriptor'
PUBLIC	__CT??_R0?AVbad_array_new_length@std@@@8??0bad_array_new_length@std@@QAE@ABV01@@Z12
PUBLIC	??_R0?AVbad_alloc@std@@@8			; std::bad_alloc `RTTI Type Descriptor'
PUBLIC	__CT??_R0?AVbad_alloc@std@@@8??0bad_alloc@std@@QAE@ABV01@@Z12
PUBLIC	??_R0?AVexception@std@@@8			; std::exception `RTTI Type Descriptor'
PUBLIC	__CT??_R0?AVexception@std@@@8??0exception@std@@QAE@ABV01@@Z12
PUBLIC	??_R4exception@std@@6B@				; std::exception::`RTTI Complete Object Locator'
PUBLIC	??_R3exception@std@@8				; std::exception::`RTTI Class Hierarchy Descriptor'
PUBLIC	??_R2exception@std@@8				; std::exception::`RTTI Base Class Array'
PUBLIC	??_R1A@?0A@EA@exception@std@@8			; std::exception::`RTTI Base Class Descriptor at (0,-1,0,64)'
PUBLIC	??_R4bad_alloc@std@@6B@				; std::bad_alloc::`RTTI Complete Object Locator'
PUBLIC	??_R3bad_alloc@std@@8				; std::bad_alloc::`RTTI Class Hierarchy Descriptor'
PUBLIC	??_R2bad_alloc@std@@8				; std::bad_alloc::`RTTI Base Class Array'
PUBLIC	??_R1A@?0A@EA@bad_alloc@std@@8			; std::bad_alloc::`RTTI Base Class Descriptor at (0,-1,0,64)'
PUBLIC	??_R4bad_array_new_length@std@@6B@		; std::bad_array_new_length::`RTTI Complete Object Locator'
PUBLIC	??_R3bad_array_new_length@std@@8		; std::bad_array_new_length::`RTTI Class Hierarchy Descriptor'
PUBLIC	??_R2bad_array_new_length@std@@8		; std::bad_array_new_length::`RTTI Base Class Array'
PUBLIC	??_R1A@?0A@EA@bad_array_new_length@std@@8	; std::bad_array_new_length::`RTTI Base Class Descriptor at (0,-1,0,64)'
PUBLIC	?vt_IPBlock@@3V?$vector@UIP_BLOCK@@V?$allocator@UIP_BLOCK@@@std@@@std@@A ; vt_IPBlock
PUBLIC	?vtUserConnectTime@@3V?$vector@UUSER_CONNECT_TIME@@V?$allocator@UUSER_CONNECT_TIME@@@std@@@std@@A ; vtUserConnectTime
PUBLIC	??_C@_0CM@MFHPEIPL@?0?5?$FLLogin?5User?5Block?$FN?0?5Account?5?$FL@ ; `string'
PUBLIC	??_C@_0BK@EDIDDHMK@?0?5?$FLconnect?5Time?$FN?5Size?5Max@ ; `string'
PUBLIC	??_C@_0BF@OGNCCDCF@?0?5?$FLBlockIP?$FN?5Size?5Max@ ; `string'
PUBLIC	??_C@_0DH@GNJHFNCG@?0?5?$FLBlockIP?5Disconnect?$FN?0?5?0?5IP?5?$FL?$CF@ ; `string'
PUBLIC	??_C@_0BA@FOIKENOD@vector?5too?5long@		; `string'
EXTRN	??2@YAPAXI@Z:PROC				; operator new
EXTRN	??3@YAXPAXI@Z:PROC				; operator delete
EXTRN	_atexit:PROC
EXTRN	__invalid_parameter_noinfo_noreturn:PROC
EXTRN	_memcpy:PROC
EXTRN	_memmove:PROC
EXTRN	_strcmp:PROC
EXTRN	__imp__GetTickCount@0:PROC
EXTRN	?_Xlength_error@std@@YAXPBD@Z:PROC		; std::_Xlength_error
EXTRN	___std_exception_copy:PROC
EXTRN	___std_exception_destroy:PROC
EXTRN	??_Eexception@std@@UAEPAXI@Z:PROC		; std::exception::`vector deleting destructor'
EXTRN	??_Ebad_alloc@std@@UAEPAXI@Z:PROC		; std::bad_alloc::`vector deleting destructor'
EXTRN	??_Ebad_array_new_length@std@@UAEPAXI@Z:PROC	; std::bad_array_new_length::`vector deleting destructor'
EXTRN	?CloseClient@@YAXH@Z:PROC			; CloseClient
EXTRN	@__security_check_cookie@4:PROC
EXTRN	__CxxThrowException@8:PROC
EXTRN	___CxxFrameHandler3:PROC
EXTRN	??_7type_info@@6B@:QWORD			; type_info::`vftable'
EXTRN	?LogAddTD_TempLog@@3P6AXPADZZA:DWORD		; LogAddTD_TempLog
EXTRN	?gConnectIntervalTime@@3HA:DWORD		; gConnectIntervalTime
EXTRN	?gConnectHackIPBlockTime@@3HA:DWORD		; gConnectHackIPBlockTime
EXTRN	?gConnectRenewBlockTime@@3HA:DWORD		; gConnectRenewBlockTime
EXTRN	___security_cookie:DWORD
_BSS	SEGMENT
?vt_IPBlock@@3V?$vector@UIP_BLOCK@@V?$allocator@UIP_BLOCK@@@std@@@std@@A DB 0cH DUP (?) ; vt_IPBlock
?vtUserConnectTime@@3V?$vector@UUSER_CONNECT_TIME@@V?$allocator@UUSER_CONNECT_TIME@@@std@@@std@@A DB 0cH DUP (?) ; vtUserConnectTime
_BSS	ENDS
CRT$XCU	SEGMENT
?vt_IPBlock$initializer$@@3P6AXXZA DD FLAT:??__Evt_IPBlock@@YAXXZ ; vt_IPBlock$initializer$
CRT$XCU	ENDS
;	COMDAT ??_C@_0BA@FOIKENOD@vector?5too?5long@
CONST	SEGMENT
??_C@_0BA@FOIKENOD@vector?5too?5long@ DB 'vector too long', 00H ; `string'
CONST	ENDS
;	COMDAT ??_C@_0DH@GNJHFNCG@?0?5?$FLBlockIP?5Disconnect?$FN?0?5?0?5IP?5?$FL?$CF@
CONST	SEGMENT
??_C@_0DH@GNJHFNCG@?0?5?$FLBlockIP?5Disconnect?$FN?0?5?0?5IP?5?$FL?$CF@ DB ','
	DB	' [BlockIP Disconnect], , IP [%s], ReConTime %02d:%02d', 00H ; `string'
CONST	ENDS
;	COMDAT ??_C@_0BF@OGNCCDCF@?0?5?$FLBlockIP?$FN?5Size?5Max@
CONST	SEGMENT
??_C@_0BF@OGNCCDCF@?0?5?$FLBlockIP?$FN?5Size?5Max@ DB ', [BlockIP] Size M'
	DB	'ax', 00H					; `string'
CONST	ENDS
;	COMDAT ??_C@_0BK@EDIDDHMK@?0?5?$FLconnect?5Time?$FN?5Size?5Max@
CONST	SEGMENT
??_C@_0BK@EDIDDHMK@?0?5?$FLconnect?5Time?$FN?5Size?5Max@ DB ', [connect T'
	DB	'ime] Size Max', 00H				; `string'
CONST	ENDS
;	COMDAT ??_C@_0CM@MFHPEIPL@?0?5?$FLLogin?5User?5Block?$FN?0?5Account?5?$FL@
CONST	SEGMENT
??_C@_0CM@MFHPEIPL@?0?5?$FLLogin?5User?5Block?$FN?0?5Account?5?$FL@ DB ','
	DB	' [Login User Block], Account [%s], IP [%s]', 00H ; `string'
CONST	ENDS
;	COMDAT ??_R1A@?0A@EA@bad_array_new_length@std@@8
rdata$r	SEGMENT
??_R1A@?0A@EA@bad_array_new_length@std@@8 DD FLAT:??_R0?AVbad_array_new_length@std@@@8 ; std::bad_array_new_length::`RTTI Base Class Descriptor at (0,-1,0,64)'
	DD	02H
	DD	00H
	DD	0ffffffffH
	DD	00H
	DD	040H
	DD	FLAT:??_R3bad_array_new_length@std@@8
rdata$r	ENDS
;	COMDAT ??_R2bad_array_new_length@std@@8
rdata$r	SEGMENT
??_R2bad_array_new_length@std@@8 DD FLAT:??_R1A@?0A@EA@bad_array_new_length@std@@8 ; std::bad_array_new_length::`RTTI Base Class Array'
	DD	FLAT:??_R1A@?0A@EA@bad_alloc@std@@8
	DD	FLAT:??_R1A@?0A@EA@exception@std@@8
rdata$r	ENDS
;	COMDAT ??_R3bad_array_new_length@std@@8
rdata$r	SEGMENT
??_R3bad_array_new_length@std@@8 DD 00H			; std::bad_array_new_length::`RTTI Class Hierarchy Descriptor'
	DD	00H
	DD	03H
	DD	FLAT:??_R2bad_array_new_length@std@@8
rdata$r	ENDS
;	COMDAT ??_R4bad_array_new_length@std@@6B@
rdata$r	SEGMENT
??_R4bad_array_new_length@std@@6B@ DD 00H		; std::bad_array_new_length::`RTTI Complete Object Locator'
	DD	00H
	DD	00H
	DD	FLAT:??_R0?AVbad_array_new_length@std@@@8
	DD	FLAT:??_R3bad_array_new_length@std@@8
rdata$r	ENDS
;	COMDAT ??_R1A@?0A@EA@bad_alloc@std@@8
rdata$r	SEGMENT
??_R1A@?0A@EA@bad_alloc@std@@8 DD FLAT:??_R0?AVbad_alloc@std@@@8 ; std::bad_alloc::`RTTI Base Class Descriptor at (0,-1,0,64)'
	DD	01H
	DD	00H
	DD	0ffffffffH
	DD	00H
	DD	040H
	DD	FLAT:??_R3bad_alloc@std@@8
rdata$r	ENDS
;	COMDAT ??_R2bad_alloc@std@@8
rdata$r	SEGMENT
??_R2bad_alloc@std@@8 DD FLAT:??_R1A@?0A@EA@bad_alloc@std@@8 ; std::bad_alloc::`RTTI Base Class Array'
	DD	FLAT:??_R1A@?0A@EA@exception@std@@8
rdata$r	ENDS
;	COMDAT ??_R3bad_alloc@std@@8
rdata$r	SEGMENT
??_R3bad_alloc@std@@8 DD 00H				; std::bad_alloc::`RTTI Class Hierarchy Descriptor'
	DD	00H
	DD	02H
	DD	FLAT:??_R2bad_alloc@std@@8
rdata$r	ENDS
;	COMDAT ??_R4bad_alloc@std@@6B@
rdata$r	SEGMENT
??_R4bad_alloc@std@@6B@ DD 00H				; std::bad_alloc::`RTTI Complete Object Locator'
	DD	00H
	DD	00H
	DD	FLAT:??_R0?AVbad_alloc@std@@@8
	DD	FLAT:??_R3bad_alloc@std@@8
rdata$r	ENDS
;	COMDAT ??_R1A@?0A@EA@exception@std@@8
rdata$r	SEGMENT
??_R1A@?0A@EA@exception@std@@8 DD FLAT:??_R0?AVexception@std@@@8 ; std::exception::`RTTI Base Class Descriptor at (0,-1,0,64)'
	DD	00H
	DD	00H
	DD	0ffffffffH
	DD	00H
	DD	040H
	DD	FLAT:??_R3exception@std@@8
rdata$r	ENDS
;	COMDAT ??_R2exception@std@@8
rdata$r	SEGMENT
??_R2exception@std@@8 DD FLAT:??_R1A@?0A@EA@exception@std@@8 ; std::exception::`RTTI Base Class Array'
rdata$r	ENDS
;	COMDAT ??_R3exception@std@@8
rdata$r	SEGMENT
??_R3exception@std@@8 DD 00H				; std::exception::`RTTI Class Hierarchy Descriptor'
	DD	00H
	DD	01H
	DD	FLAT:??_R2exception@std@@8
rdata$r	ENDS
;	COMDAT ??_R4exception@std@@6B@
rdata$r	SEGMENT
??_R4exception@std@@6B@ DD 00H				; std::exception::`RTTI Complete Object Locator'
	DD	00H
	DD	00H
	DD	FLAT:??_R0?AVexception@std@@@8
	DD	FLAT:??_R3exception@std@@8
rdata$r	ENDS
;	COMDAT __CT??_R0?AVexception@std@@@8??0exception@std@@QAE@ABV01@@Z12
xdata$x	SEGMENT
__CT??_R0?AVexception@std@@@8??0exception@std@@QAE@ABV01@@Z12 DD 00H
	DD	FLAT:??_R0?AVexception@std@@@8
	DD	00H
	DD	0ffffffffH
	ORG $+4
	DD	0cH
	DD	FLAT:??0exception@std@@QAE@ABV01@@Z
xdata$x	ENDS
;	COMDAT ??_R0?AVexception@std@@@8
data$r	SEGMENT
??_R0?AVexception@std@@@8 DD FLAT:??_7type_info@@6B@	; std::exception `RTTI Type Descriptor'
	DD	00H
	DB	'.?AVexception@std@@', 00H
data$r	ENDS
;	COMDAT __CT??_R0?AVbad_alloc@std@@@8??0bad_alloc@std@@QAE@ABV01@@Z12
xdata$x	SEGMENT
__CT??_R0?AVbad_alloc@std@@@8??0bad_alloc@std@@QAE@ABV01@@Z12 DD 010H
	DD	FLAT:??_R0?AVbad_alloc@std@@@8
	DD	00H
	DD	0ffffffffH
	ORG $+4
	DD	0cH
	DD	FLAT:??0bad_alloc@std@@QAE@ABV01@@Z
xdata$x	ENDS
;	COMDAT ??_R0?AVbad_alloc@std@@@8
data$r	SEGMENT
??_R0?AVbad_alloc@std@@@8 DD FLAT:??_7type_info@@6B@	; std::bad_alloc `RTTI Type Descriptor'
	DD	00H
	DB	'.?AVbad_alloc@std@@', 00H
data$r	ENDS
;	COMDAT __CT??_R0?AVbad_array_new_length@std@@@8??0bad_array_new_length@std@@QAE@ABV01@@Z12
xdata$x	SEGMENT
__CT??_R0?AVbad_array_new_length@std@@@8??0bad_array_new_length@std@@QAE@ABV01@@Z12 DD 00H
	DD	FLAT:??_R0?AVbad_array_new_length@std@@@8
	DD	00H
	DD	0ffffffffH
	ORG $+4
	DD	0cH
	DD	FLAT:??0bad_array_new_length@std@@QAE@ABV01@@Z
xdata$x	ENDS
;	COMDAT ??_R0?AVbad_array_new_length@std@@@8
data$r	SEGMENT
??_R0?AVbad_array_new_length@std@@@8 DD FLAT:??_7type_info@@6B@ ; std::bad_array_new_length `RTTI Type Descriptor'
	DD	00H
	DB	'.?AVbad_array_new_length@std@@', 00H
data$r	ENDS
;	COMDAT __CTA3?AVbad_array_new_length@std@@
xdata$x	SEGMENT
__CTA3?AVbad_array_new_length@std@@ DD 03H
	DD	FLAT:__CT??_R0?AVbad_array_new_length@std@@@8??0bad_array_new_length@std@@QAE@ABV01@@Z12
	DD	FLAT:__CT??_R0?AVbad_alloc@std@@@8??0bad_alloc@std@@QAE@ABV01@@Z12
	DD	FLAT:__CT??_R0?AVexception@std@@@8??0exception@std@@QAE@ABV01@@Z12
xdata$x	ENDS
;	COMDAT __TI3?AVbad_array_new_length@std@@
xdata$x	SEGMENT
__TI3?AVbad_array_new_length@std@@ DD 00H
	DD	FLAT:??1bad_array_new_length@std@@UAE@XZ
	DD	00H
	DD	FLAT:__CTA3?AVbad_array_new_length@std@@
xdata$x	ENDS
;	COMDAT ??_C@_0BF@KINCDENJ@bad?5array?5new?5length@
CONST	SEGMENT
??_C@_0BF@KINCDENJ@bad?5array?5new?5length@ DB 'bad array new length', 00H ; `string'
CONST	ENDS
;	COMDAT ??_7bad_array_new_length@std@@6B@
CONST	SEGMENT
??_7bad_array_new_length@std@@6B@ DD FLAT:??_R4bad_array_new_length@std@@6B@ ; std::bad_array_new_length::`vftable'
	DD	FLAT:??_Ebad_array_new_length@std@@UAEPAXI@Z
	DD	FLAT:?what@exception@std@@UBEPBDXZ
CONST	ENDS
;	COMDAT ??_7bad_alloc@std@@6B@
CONST	SEGMENT
??_7bad_alloc@std@@6B@ DD FLAT:??_R4bad_alloc@std@@6B@	; std::bad_alloc::`vftable'
	DD	FLAT:??_Ebad_alloc@std@@UAEPAXI@Z
	DD	FLAT:?what@exception@std@@UBEPBDXZ
CONST	ENDS
;	COMDAT ??_C@_0BC@EOODALEL@Unknown?5exception@
CONST	SEGMENT
??_C@_0BC@EOODALEL@Unknown?5exception@ DB 'Unknown exception', 00H ; `string'
CONST	ENDS
;	COMDAT ??_7exception@std@@6B@
CONST	SEGMENT
??_7exception@std@@6B@ DD FLAT:??_R4exception@std@@6B@	; std::exception::`vftable'
	DD	FLAT:??_Eexception@std@@UAEPAXI@Z
	DD	FLAT:?what@exception@std@@UBEPBDXZ
CONST	ENDS
;	COMDAT xdata$x
xdata$x	SEGMENT
__catchsym$??$_Emplace_reallocate@ABUUSER_CONNECT_TIME@@@?$vector@UUSER_CONNECT_TIME@@V?$allocator@UUSER_CONNECT_TIME@@@std@@@std@@QAEPAUUSER_CONNECT_TIME@@QAU2@ABU2@@Z$2 DD 040H
	DD	00H
	DD	00H
	DD	FLAT:__catch$??$_Emplace_reallocate@ABUUSER_CONNECT_TIME@@@?$vector@UUSER_CONNECT_TIME@@V?$allocator@UUSER_CONNECT_TIME@@@std@@@std@@QAEPAUUSER_CONNECT_TIME@@QAU2@ABU2@@Z$0
__unwindtable$??$_Emplace_reallocate@ABUUSER_CONNECT_TIME@@@?$vector@UUSER_CONNECT_TIME@@V?$allocator@UUSER_CONNECT_TIME@@@std@@@std@@QAEPAUUSER_CONNECT_TIME@@QAU2@ABU2@@Z DD 0ffffffffH
	DD	00H
	DD	0ffffffffH
	DD	00H
__tryblocktable$??$_Emplace_reallocate@ABUUSER_CONNECT_TIME@@@?$vector@UUSER_CONNECT_TIME@@V?$allocator@UUSER_CONNECT_TIME@@@std@@@std@@QAEPAUUSER_CONNECT_TIME@@QAU2@ABU2@@Z DD 00H
	DD	00H
	DD	01H
	DD	01H
	DD	FLAT:__catchsym$??$_Emplace_reallocate@ABUUSER_CONNECT_TIME@@@?$vector@UUSER_CONNECT_TIME@@V?$allocator@UUSER_CONNECT_TIME@@@std@@@std@@QAEPAUUSER_CONNECT_TIME@@QAU2@ABU2@@Z$2
__ehfuncinfo$??$_Emplace_reallocate@ABUUSER_CONNECT_TIME@@@?$vector@UUSER_CONNECT_TIME@@V?$allocator@UUSER_CONNECT_TIME@@@std@@@std@@QAEPAUUSER_CONNECT_TIME@@QAU2@ABU2@@Z DD 019930522H
	DD	02H
	DD	FLAT:__unwindtable$??$_Emplace_reallocate@ABUUSER_CONNECT_TIME@@@?$vector@UUSER_CONNECT_TIME@@V?$allocator@UUSER_CONNECT_TIME@@@std@@@std@@QAEPAUUSER_CONNECT_TIME@@QAU2@ABU2@@Z
	DD	01H
	DD	FLAT:__tryblocktable$??$_Emplace_reallocate@ABUUSER_CONNECT_TIME@@@?$vector@UUSER_CONNECT_TIME@@V?$allocator@UUSER_CONNECT_TIME@@@std@@@std@@QAEPAUUSER_CONNECT_TIME@@QAU2@ABU2@@Z
	DD	2 DUP(00H)
	DD	00H
	DD	01H
xdata$x	ENDS
;	COMDAT xdata$x
xdata$x	SEGMENT
__catchsym$??$_Emplace_reallocate@ABUIP_BLOCK@@@?$vector@UIP_BLOCK@@V?$allocator@UIP_BLOCK@@@std@@@std@@QAEPAUIP_BLOCK@@QAU2@ABU2@@Z$2 DD 040H
	DD	00H
	DD	00H
	DD	FLAT:__catch$??$_Emplace_reallocate@ABUIP_BLOCK@@@?$vector@UIP_BLOCK@@V?$allocator@UIP_BLOCK@@@std@@@std@@QAEPAUIP_BLOCK@@QAU2@ABU2@@Z$0
__unwindtable$??$_Emplace_reallocate@ABUIP_BLOCK@@@?$vector@UIP_BLOCK@@V?$allocator@UIP_BLOCK@@@std@@@std@@QAEPAUIP_BLOCK@@QAU2@ABU2@@Z DD 0ffffffffH
	DD	00H
	DD	0ffffffffH
	DD	00H
__tryblocktable$??$_Emplace_reallocate@ABUIP_BLOCK@@@?$vector@UIP_BLOCK@@V?$allocator@UIP_BLOCK@@@std@@@std@@QAEPAUIP_BLOCK@@QAU2@ABU2@@Z DD 00H
	DD	00H
	DD	01H
	DD	01H
	DD	FLAT:__catchsym$??$_Emplace_reallocate@ABUIP_BLOCK@@@?$vector@UIP_BLOCK@@V?$allocator@UIP_BLOCK@@@std@@@std@@QAEPAUIP_BLOCK@@QAU2@ABU2@@Z$2
__ehfuncinfo$??$_Emplace_reallocate@ABUIP_BLOCK@@@?$vector@UIP_BLOCK@@V?$allocator@UIP_BLOCK@@@std@@@std@@QAEPAUIP_BLOCK@@QAU2@ABU2@@Z DD 019930522H
	DD	02H
	DD	FLAT:__unwindtable$??$_Emplace_reallocate@ABUIP_BLOCK@@@?$vector@UIP_BLOCK@@V?$allocator@UIP_BLOCK@@@std@@@std@@QAEPAUIP_BLOCK@@QAU2@ABU2@@Z
	DD	01H
	DD	FLAT:__tryblocktable$??$_Emplace_reallocate@ABUIP_BLOCK@@@?$vector@UIP_BLOCK@@V?$allocator@UIP_BLOCK@@@std@@@std@@QAEPAUIP_BLOCK@@QAU2@ABU2@@Z
	DD	2 DUP(00H)
	DD	00H
	DD	01H
xdata$x	ENDS
;	COMDAT xdata$x
xdata$x	SEGMENT
__ehfuncinfo$?_Tidy@?$vector@UIP_BLOCK@@V?$allocator@UIP_BLOCK@@@std@@@std@@AAEXXZ DD 019930522H
	DD	00H
	DD	00H
	DD	2 DUP(00H)
	DD	2 DUP(00H)
	DD	00H
	DD	05H
xdata$x	ENDS
;	COMDAT xdata$x
xdata$x	SEGMENT
__ehfuncinfo$?erase@?$vector@UIP_BLOCK@@V?$allocator@UIP_BLOCK@@@std@@@std@@QAE?AV?$_Vector_iterator@V?$_Vector_val@U?$_Simple_types@UIP_BLOCK@@@std@@@std@@@2@V?$_Vector_const_iterator@V?$_Vector_val@U?$_Simple_types@UIP_BLOCK@@@std@@@std@@@2@0@Z DD 019930522H
	DD	00H
	DD	00H
	DD	2 DUP(00H)
	DD	2 DUP(00H)
	DD	00H
	DD	05H
xdata$x	ENDS
;	COMDAT xdata$x
xdata$x	SEGMENT
__ehfuncinfo$?erase@?$vector@UIP_BLOCK@@V?$allocator@UIP_BLOCK@@@std@@@std@@QAE?AV?$_Vector_iterator@V?$_Vector_val@U?$_Simple_types@UIP_BLOCK@@@std@@@std@@@2@V?$_Vector_const_iterator@V?$_Vector_val@U?$_Simple_types@UIP_BLOCK@@@std@@@std@@@2@@Z DD 019930522H
	DD	00H
	DD	00H
	DD	2 DUP(00H)
	DD	2 DUP(00H)
	DD	00H
	DD	05H
xdata$x	ENDS
;	COMDAT xdata$x
xdata$x	SEGMENT
__ehfuncinfo$?_Tidy@?$vector@UUSER_CONNECT_TIME@@V?$allocator@UUSER_CONNECT_TIME@@@std@@@std@@AAEXXZ DD 019930522H
	DD	00H
	DD	00H
	DD	2 DUP(00H)
	DD	2 DUP(00H)
	DD	00H
	DD	05H
xdata$x	ENDS
;	COMDAT xdata$x
xdata$x	SEGMENT
__ehfuncinfo$?erase@?$vector@UUSER_CONNECT_TIME@@V?$allocator@UUSER_CONNECT_TIME@@@std@@@std@@QAE?AV?$_Vector_iterator@V?$_Vector_val@U?$_Simple_types@UUSER_CONNECT_TIME@@@std@@@std@@@2@V?$_Vector_const_iterator@V?$_Vector_val@U?$_Simple_types@UUSER_CONNECT_TIME@@@std@@@std@@@2@0@Z DD 019930522H
	DD	00H
	DD	00H
	DD	2 DUP(00H)
	DD	2 DUP(00H)
	DD	00H
	DD	05H
xdata$x	ENDS
;	COMDAT xdata$x
xdata$x	SEGMENT
__ehfuncinfo$?erase@?$vector@UUSER_CONNECT_TIME@@V?$allocator@UUSER_CONNECT_TIME@@@std@@@std@@QAE?AV?$_Vector_iterator@V?$_Vector_val@U?$_Simple_types@UUSER_CONNECT_TIME@@@std@@@std@@@2@V?$_Vector_const_iterator@V?$_Vector_val@U?$_Simple_types@UUSER_CONNECT_TIME@@@std@@@std@@@2@@Z DD 019930522H
	DD	00H
	DD	00H
	DD	2 DUP(00H)
	DD	2 DUP(00H)
	DD	00H
	DD	05H
xdata$x	ENDS
;	COMDAT xdata$x
xdata$x	SEGMENT
__ehfuncinfo$??$_Deallocate@$07$0A@@std@@YAXPAXI@Z DD 019930522H
	DD	00H
	DD	00H
	DD	2 DUP(00H)
	DD	2 DUP(00H)
	DD	00H
	DD	05H
xdata$x	ENDS
CRT$XCU	SEGMENT
?vtUserConnectTime$initializer$@@3P6AXXZA DD FLAT:??__EvtUserConnectTime@@YAXXZ ; vtUserConnectTime$initializer$
CRT$XCU	ENDS
; Function compile flags: /Odtp /ZI
; File C:\Program Files (x86)\Microsoft Visual Studio\2019\Community\VC\Tools\MSVC\14.27.29110\include\xutility
;	COMDAT ??$_Get_unwrapped@ABQAUUSER_CONNECT_TIME@@@std@@YA@ABQAUUSER_CONNECT_TIME@@@Z
_TEXT	SEGMENT
__It$ = 8						; size = 4
??$_Get_unwrapped@ABQAUUSER_CONNECT_TIME@@@std@@YA@ABQAUUSER_CONNECT_TIME@@@Z PROC ; std::_Get_unwrapped<USER_CONNECT_TIME * const &>, COMDAT

; 1229 : _NODISCARD constexpr decltype(auto) _Get_unwrapped(_Iter&& _It) {

  00000	55		 push	 ebp
  00001	8b ec		 mov	 ebp, esp
  00003	83 ec 40	 sub	 esp, 64			; 00000040H
  00006	53		 push	 ebx
  00007	56		 push	 esi
  00008	57		 push	 edi

; 1230 :     // unwrap an iterator previously subjected to _Adl_verify_range or otherwise validated
; 1231 :     if constexpr (is_pointer_v<decay_t<_Iter>>) { // special-case pointers and arrays
; 1232 :         return _It + 0;

  00009	8b 45 08	 mov	 eax, DWORD PTR __It$[ebp]
  0000c	8b 00		 mov	 eax, DWORD PTR [eax]

; 1233 :     } else if constexpr (_Unwrappable_v<_Iter>) {
; 1234 :         return static_cast<_Iter&&>(_It)._Unwrapped();
; 1235 :     } else {
; 1236 :         return static_cast<_Iter&&>(_It);
; 1237 :     }
; 1238 : }

  0000e	5f		 pop	 edi
  0000f	5e		 pop	 esi
  00010	5b		 pop	 ebx
  00011	8b e5		 mov	 esp, ebp
  00013	5d		 pop	 ebp
  00014	c3		 ret	 0
??$_Get_unwrapped@ABQAUUSER_CONNECT_TIME@@@std@@YA@ABQAUUSER_CONNECT_TIME@@@Z ENDP ; std::_Get_unwrapped<USER_CONNECT_TIME * const &>
_TEXT	ENDS
; Function compile flags: /Odtp /ZI
; File C:\Program Files (x86)\Microsoft Visual Studio\2019\Community\VC\Tools\MSVC\14.27.29110\include\xutility
;	COMDAT ??$_Get_unwrapped@ABQAUIP_BLOCK@@@std@@YA@ABQAUIP_BLOCK@@@Z
_TEXT	SEGMENT
__It$ = 8						; size = 4
??$_Get_unwrapped@ABQAUIP_BLOCK@@@std@@YA@ABQAUIP_BLOCK@@@Z PROC ; std::_Get_unwrapped<IP_BLOCK * const &>, COMDAT

; 1229 : _NODISCARD constexpr decltype(auto) _Get_unwrapped(_Iter&& _It) {

  00000	55		 push	 ebp
  00001	8b ec		 mov	 ebp, esp
  00003	83 ec 40	 sub	 esp, 64			; 00000040H
  00006	53		 push	 ebx
  00007	56		 push	 esi
  00008	57		 push	 edi

; 1230 :     // unwrap an iterator previously subjected to _Adl_verify_range or otherwise validated
; 1231 :     if constexpr (is_pointer_v<decay_t<_Iter>>) { // special-case pointers and arrays
; 1232 :         return _It + 0;

  00009	8b 45 08	 mov	 eax, DWORD PTR __It$[ebp]
  0000c	8b 00		 mov	 eax, DWORD PTR [eax]

; 1233 :     } else if constexpr (_Unwrappable_v<_Iter>) {
; 1234 :         return static_cast<_Iter&&>(_It)._Unwrapped();
; 1235 :     } else {
; 1236 :         return static_cast<_Iter&&>(_It);
; 1237 :     }
; 1238 : }

  0000e	5f		 pop	 edi
  0000f	5e		 pop	 esi
  00010	5b		 pop	 ebx
  00011	8b e5		 mov	 esp, ebp
  00013	5d		 pop	 ebp
  00014	c3		 ret	 0
??$_Get_unwrapped@ABQAUIP_BLOCK@@@std@@YA@ABQAUIP_BLOCK@@@Z ENDP ; std::_Get_unwrapped<IP_BLOCK * const &>
_TEXT	ENDS
; Function compile flags: /Odtp /ZI
; File C:\Program Files (x86)\Microsoft Visual Studio\2019\Community\VC\Tools\MSVC\14.27.29110\include\xmemory
;	COMDAT ??$_Get_size_of_n@$0CE@@std@@YAII@Z
_TEXT	SEGMENT
__Max_possible$1 = -8					; size = 4
__Overflow_is_possible$ = -1				; size = 1
__Count$ = 8						; size = 4
??$_Get_size_of_n@$0CE@@std@@YAII@Z PROC		; std::_Get_size_of_n<36>, COMDAT

; 55   : _NODISCARD constexpr size_t _Get_size_of_n(const size_t _Count) {

  00000	55		 push	 ebp
  00001	8b ec		 mov	 ebp, esp
  00003	83 ec 48	 sub	 esp, 72			; 00000048H
  00006	53		 push	 ebx
  00007	56		 push	 esi
  00008	57		 push	 edi

; 56   :     constexpr bool _Overflow_is_possible = _Ty_size > 1;

  00009	c6 45 ff 01	 mov	 BYTE PTR __Overflow_is_possible$[ebp], 1

; 57   : 
; 58   :     if _CONSTEXPR_IF (_Overflow_is_possible) {
; 59   :         constexpr size_t _Max_possible = static_cast<size_t>(-1) / _Ty_size;

  0000d	c7 45 f8 c7 71
	1c 07		 mov	 DWORD PTR __Max_possible$1[ebp], 119304647 ; 071c71c7H

; 60   :         if (_Count > _Max_possible) {

  00014	81 7d 08 c7 71
	1c 07		 cmp	 DWORD PTR __Count$[ebp], 119304647 ; 071c71c7H
  0001b	76 05		 jbe	 SHORT $LN2@Get_size_o

; 61   :             _Throw_bad_array_new_length(); // multiply overflow

  0001d	e8 00 00 00 00	 call	 ?_Throw_bad_array_new_length@std@@YAXXZ ; std::_Throw_bad_array_new_length
$LN2@Get_size_o:

; 62   :         }
; 63   :     }
; 64   : 
; 65   :     return _Count * _Ty_size;

  00022	6b 45 08 24	 imul	 eax, DWORD PTR __Count$[ebp], 36
$LN3@Get_size_o:

; 66   : }

  00026	5f		 pop	 edi
  00027	5e		 pop	 esi
  00028	5b		 pop	 ebx
  00029	8b e5		 mov	 esp, ebp
  0002b	5d		 pop	 ebp
  0002c	c3		 ret	 0
??$_Get_size_of_n@$0CE@@std@@YAII@Z ENDP		; std::_Get_size_of_n<36>
_TEXT	ENDS
; Function compile flags: /Odtp /ZI
; File C:\Program Files (x86)\Microsoft Visual Studio\2019\Community\VC\Tools\MSVC\14.27.29110\include\xmemory
;	COMDAT ??$_Uninitialized_move@PAUUSER_CONNECT_TIME@@V?$allocator@UUSER_CONNECT_TIME@@@std@@@std@@YAPAUUSER_CONNECT_TIME@@QAU1@0PAU1@AAV?$allocator@UUSER_CONNECT_TIME@@@0@@Z
_TEXT	SEGMENT
__ULast$ = -8						; size = 4
__UFirst$ = -4						; size = 4
__First$ = 8						; size = 4
__Last$ = 12						; size = 4
__Dest$ = 16						; size = 4
__Al$ = 20						; size = 4
??$_Uninitialized_move@PAUUSER_CONNECT_TIME@@V?$allocator@UUSER_CONNECT_TIME@@@std@@@std@@YAPAUUSER_CONNECT_TIME@@QAU1@0PAU1@AAV?$allocator@UUSER_CONNECT_TIME@@@0@@Z PROC ; std::_Uninitialized_move<USER_CONNECT_TIME *,std::allocator<USER_CONNECT_TIME> >, COMDAT

; 1647 :     const _InIt _First, const _InIt _Last, _Alloc_ptr_t<_Alloc> _Dest, _Alloc& _Al) {

  00000	55		 push	 ebp
  00001	8b ec		 mov	 ebp, esp
  00003	83 ec 48	 sub	 esp, 72			; 00000048H
  00006	53		 push	 ebx
  00007	56		 push	 esi
  00008	57		 push	 edi

; 1648 :     // move [_First, _Last) to raw _Dest, using _Al
; 1649 :     // note: only called internally from elsewhere in the STL
; 1650 :     using _Ptrval     = typename _Alloc::value_type*;
; 1651 :     auto _UFirst      = _Get_unwrapped(_First);

  00009	8d 45 08	 lea	 eax, DWORD PTR __First$[ebp]
  0000c	50		 push	 eax
  0000d	e8 00 00 00 00	 call	 ??$_Get_unwrapped@ABQAUUSER_CONNECT_TIME@@@std@@YA@ABQAUUSER_CONNECT_TIME@@@Z ; std::_Get_unwrapped<USER_CONNECT_TIME * const &>
  00012	83 c4 04	 add	 esp, 4
  00015	89 45 fc	 mov	 DWORD PTR __UFirst$[ebp], eax

; 1652 :     const auto _ULast = _Get_unwrapped(_Last);

  00018	8d 45 0c	 lea	 eax, DWORD PTR __Last$[ebp]
  0001b	50		 push	 eax
  0001c	e8 00 00 00 00	 call	 ??$_Get_unwrapped@ABQAUUSER_CONNECT_TIME@@@std@@YA@ABQAUUSER_CONNECT_TIME@@@Z ; std::_Get_unwrapped<USER_CONNECT_TIME * const &>
  00021	83 c4 04	 add	 esp, 4
  00024	89 45 f8	 mov	 DWORD PTR __ULast$[ebp], eax

; 1653 :     if constexpr (conjunction_v<bool_constant<_Ptr_move_cat<decltype(_UFirst), _Ptrval>::_Really_trivial>,
; 1654 :                       _Uses_default_construct<_Alloc, _Ptrval, decltype(_STD move(*_UFirst))>>) {
; 1655 :         _Copy_memmove(_UFirst, _ULast, _Unfancy(_Dest));

  00027	8b 45 10	 mov	 eax, DWORD PTR __Dest$[ebp]
  0002a	50		 push	 eax
  0002b	e8 00 00 00 00	 call	 ??$_Unfancy@UUSER_CONNECT_TIME@@@std@@YAPAUUSER_CONNECT_TIME@@PAU1@@Z ; std::_Unfancy<USER_CONNECT_TIME>
  00030	83 c4 04	 add	 esp, 4
  00033	50		 push	 eax
  00034	8b 4d f8	 mov	 ecx, DWORD PTR __ULast$[ebp]
  00037	51		 push	 ecx
  00038	8b 55 fc	 mov	 edx, DWORD PTR __UFirst$[ebp]
  0003b	52		 push	 edx
  0003c	e8 00 00 00 00	 call	 ??$_Copy_memmove@PAUUSER_CONNECT_TIME@@PAU1@@std@@YAPAUUSER_CONNECT_TIME@@PAU1@00@Z ; std::_Copy_memmove<USER_CONNECT_TIME *,USER_CONNECT_TIME *>
  00041	83 c4 0c	 add	 esp, 12			; 0000000cH

; 1656 :         return _Dest + (_ULast - _UFirst);

  00044	8b 45 f8	 mov	 eax, DWORD PTR __ULast$[ebp]
  00047	2b 45 fc	 sub	 eax, DWORD PTR __UFirst$[ebp]
  0004a	99		 cdq
  0004b	b9 24 00 00 00	 mov	 ecx, 36			; 00000024H
  00050	f7 f9		 idiv	 ecx
  00052	6b c0 24	 imul	 eax, eax, 36
  00055	03 45 10	 add	 eax, DWORD PTR __Dest$[ebp]

; 1657 :     } else {
; 1658 :         _Uninitialized_backout_al<_Alloc> _Backout{_Dest, _Al};
; 1659 :         for (; _UFirst != _ULast; ++_UFirst) {
; 1660 :             _Backout._Emplace_back(_STD move(*_UFirst));
; 1661 :         }
; 1662 : 
; 1663 :         return _Backout._Release();
; 1664 :     }
; 1665 : }

  00058	5f		 pop	 edi
  00059	5e		 pop	 esi
  0005a	5b		 pop	 ebx
  0005b	8b e5		 mov	 esp, ebp
  0005d	5d		 pop	 ebp
  0005e	c3		 ret	 0
??$_Uninitialized_move@PAUUSER_CONNECT_TIME@@V?$allocator@UUSER_CONNECT_TIME@@@std@@@std@@YAPAUUSER_CONNECT_TIME@@QAU1@0PAU1@AAV?$allocator@UUSER_CONNECT_TIME@@@0@@Z ENDP ; std::_Uninitialized_move<USER_CONNECT_TIME *,std::allocator<USER_CONNECT_TIME> >
_TEXT	ENDS
; Function compile flags: /Odtp /ZI
; File C:\Program Files (x86)\Microsoft Visual Studio\2019\Community\VC\Tools\MSVC\14.27.29110\include\xmemory
;	COMDAT ??$_Get_size_of_n@$0CA@@std@@YAII@Z
_TEXT	SEGMENT
__Max_possible$1 = -8					; size = 4
__Overflow_is_possible$ = -1				; size = 1
__Count$ = 8						; size = 4
??$_Get_size_of_n@$0CA@@std@@YAII@Z PROC		; std::_Get_size_of_n<32>, COMDAT

; 55   : _NODISCARD constexpr size_t _Get_size_of_n(const size_t _Count) {

  00000	55		 push	 ebp
  00001	8b ec		 mov	 ebp, esp
  00003	83 ec 48	 sub	 esp, 72			; 00000048H
  00006	53		 push	 ebx
  00007	56		 push	 esi
  00008	57		 push	 edi

; 56   :     constexpr bool _Overflow_is_possible = _Ty_size > 1;

  00009	c6 45 ff 01	 mov	 BYTE PTR __Overflow_is_possible$[ebp], 1

; 57   : 
; 58   :     if _CONSTEXPR_IF (_Overflow_is_possible) {
; 59   :         constexpr size_t _Max_possible = static_cast<size_t>(-1) / _Ty_size;

  0000d	c7 45 f8 ff ff
	ff 07		 mov	 DWORD PTR __Max_possible$1[ebp], 134217727 ; 07ffffffH

; 60   :         if (_Count > _Max_possible) {

  00014	81 7d 08 ff ff
	ff 07		 cmp	 DWORD PTR __Count$[ebp], 134217727 ; 07ffffffH
  0001b	76 05		 jbe	 SHORT $LN2@Get_size_o

; 61   :             _Throw_bad_array_new_length(); // multiply overflow

  0001d	e8 00 00 00 00	 call	 ?_Throw_bad_array_new_length@std@@YAXXZ ; std::_Throw_bad_array_new_length
$LN2@Get_size_o:

; 62   :         }
; 63   :     }
; 64   : 
; 65   :     return _Count * _Ty_size;

  00022	8b 45 08	 mov	 eax, DWORD PTR __Count$[ebp]
  00025	c1 e0 05	 shl	 eax, 5
$LN3@Get_size_o:

; 66   : }

  00028	5f		 pop	 edi
  00029	5e		 pop	 esi
  0002a	5b		 pop	 ebx
  0002b	8b e5		 mov	 esp, ebp
  0002d	5d		 pop	 ebp
  0002e	c3		 ret	 0
??$_Get_size_of_n@$0CA@@std@@YAII@Z ENDP		; std::_Get_size_of_n<32>
_TEXT	ENDS
; Function compile flags: /Odtp /ZI
; File C:\Program Files (x86)\Microsoft Visual Studio\2019\Community\VC\Tools\MSVC\14.27.29110\include\xmemory
;	COMDAT ??$_Uninitialized_move@PAUIP_BLOCK@@V?$allocator@UIP_BLOCK@@@std@@@std@@YAPAUIP_BLOCK@@QAU1@0PAU1@AAV?$allocator@UIP_BLOCK@@@0@@Z
_TEXT	SEGMENT
__ULast$ = -8						; size = 4
__UFirst$ = -4						; size = 4
__First$ = 8						; size = 4
__Last$ = 12						; size = 4
__Dest$ = 16						; size = 4
__Al$ = 20						; size = 4
??$_Uninitialized_move@PAUIP_BLOCK@@V?$allocator@UIP_BLOCK@@@std@@@std@@YAPAUIP_BLOCK@@QAU1@0PAU1@AAV?$allocator@UIP_BLOCK@@@0@@Z PROC ; std::_Uninitialized_move<IP_BLOCK *,std::allocator<IP_BLOCK> >, COMDAT

; 1647 :     const _InIt _First, const _InIt _Last, _Alloc_ptr_t<_Alloc> _Dest, _Alloc& _Al) {

  00000	55		 push	 ebp
  00001	8b ec		 mov	 ebp, esp
  00003	83 ec 48	 sub	 esp, 72			; 00000048H
  00006	53		 push	 ebx
  00007	56		 push	 esi
  00008	57		 push	 edi

; 1648 :     // move [_First, _Last) to raw _Dest, using _Al
; 1649 :     // note: only called internally from elsewhere in the STL
; 1650 :     using _Ptrval     = typename _Alloc::value_type*;
; 1651 :     auto _UFirst      = _Get_unwrapped(_First);

  00009	8d 45 08	 lea	 eax, DWORD PTR __First$[ebp]
  0000c	50		 push	 eax
  0000d	e8 00 00 00 00	 call	 ??$_Get_unwrapped@ABQAUIP_BLOCK@@@std@@YA@ABQAUIP_BLOCK@@@Z ; std::_Get_unwrapped<IP_BLOCK * const &>
  00012	83 c4 04	 add	 esp, 4
  00015	89 45 fc	 mov	 DWORD PTR __UFirst$[ebp], eax

; 1652 :     const auto _ULast = _Get_unwrapped(_Last);

  00018	8d 45 0c	 lea	 eax, DWORD PTR __Last$[ebp]
  0001b	50		 push	 eax
  0001c	e8 00 00 00 00	 call	 ??$_Get_unwrapped@ABQAUIP_BLOCK@@@std@@YA@ABQAUIP_BLOCK@@@Z ; std::_Get_unwrapped<IP_BLOCK * const &>
  00021	83 c4 04	 add	 esp, 4
  00024	89 45 f8	 mov	 DWORD PTR __ULast$[ebp], eax

; 1653 :     if constexpr (conjunction_v<bool_constant<_Ptr_move_cat<decltype(_UFirst), _Ptrval>::_Really_trivial>,
; 1654 :                       _Uses_default_construct<_Alloc, _Ptrval, decltype(_STD move(*_UFirst))>>) {
; 1655 :         _Copy_memmove(_UFirst, _ULast, _Unfancy(_Dest));

  00027	8b 45 10	 mov	 eax, DWORD PTR __Dest$[ebp]
  0002a	50		 push	 eax
  0002b	e8 00 00 00 00	 call	 ??$_Unfancy@UIP_BLOCK@@@std@@YAPAUIP_BLOCK@@PAU1@@Z ; std::_Unfancy<IP_BLOCK>
  00030	83 c4 04	 add	 esp, 4
  00033	50		 push	 eax
  00034	8b 4d f8	 mov	 ecx, DWORD PTR __ULast$[ebp]
  00037	51		 push	 ecx
  00038	8b 55 fc	 mov	 edx, DWORD PTR __UFirst$[ebp]
  0003b	52		 push	 edx
  0003c	e8 00 00 00 00	 call	 ??$_Copy_memmove@PAUIP_BLOCK@@PAU1@@std@@YAPAUIP_BLOCK@@PAU1@00@Z ; std::_Copy_memmove<IP_BLOCK *,IP_BLOCK *>
  00041	83 c4 0c	 add	 esp, 12			; 0000000cH

; 1656 :         return _Dest + (_ULast - _UFirst);

  00044	8b 45 f8	 mov	 eax, DWORD PTR __ULast$[ebp]
  00047	2b 45 fc	 sub	 eax, DWORD PTR __UFirst$[ebp]
  0004a	c1 f8 05	 sar	 eax, 5
  0004d	c1 e0 05	 shl	 eax, 5
  00050	03 45 10	 add	 eax, DWORD PTR __Dest$[ebp]

; 1657 :     } else {
; 1658 :         _Uninitialized_backout_al<_Alloc> _Backout{_Dest, _Al};
; 1659 :         for (; _UFirst != _ULast; ++_UFirst) {
; 1660 :             _Backout._Emplace_back(_STD move(*_UFirst));
; 1661 :         }
; 1662 : 
; 1663 :         return _Backout._Release();
; 1664 :     }
; 1665 : }

  00053	5f		 pop	 edi
  00054	5e		 pop	 esi
  00055	5b		 pop	 ebx
  00056	8b e5		 mov	 esp, ebp
  00058	5d		 pop	 ebp
  00059	c3		 ret	 0
??$_Uninitialized_move@PAUIP_BLOCK@@V?$allocator@UIP_BLOCK@@@std@@@std@@YAPAUIP_BLOCK@@QAU1@0PAU1@AAV?$allocator@UIP_BLOCK@@@0@@Z ENDP ; std::_Uninitialized_move<IP_BLOCK *,std::allocator<IP_BLOCK> >
_TEXT	ENDS
; Function compile flags: /Odtp /ZI
; File C:\Program Files (x86)\Microsoft Visual Studio\2019\Community\VC\Tools\MSVC\14.27.29110\include\type_traits
;	COMDAT ??$move@AAUUSER_CONNECT_TIME@@@std@@YA$$QAUUSER_CONNECT_TIME@@AAU1@@Z
_TEXT	SEGMENT
__Arg$ = 8						; size = 4
??$move@AAUUSER_CONNECT_TIME@@@std@@YA$$QAUUSER_CONNECT_TIME@@AAU1@@Z PROC ; std::move<USER_CONNECT_TIME &>, COMDAT

; 1466 : _NODISCARD constexpr remove_reference_t<_Ty>&& move(_Ty&& _Arg) noexcept { // forward _Arg as movable

  00000	55		 push	 ebp
  00001	8b ec		 mov	 ebp, esp
  00003	83 ec 40	 sub	 esp, 64			; 00000040H
  00006	53		 push	 ebx
  00007	56		 push	 esi
  00008	57		 push	 edi

; 1467 :     return static_cast<remove_reference_t<_Ty>&&>(_Arg);

  00009	8b 45 08	 mov	 eax, DWORD PTR __Arg$[ebp]

; 1468 : }

  0000c	5f		 pop	 edi
  0000d	5e		 pop	 esi
  0000e	5b		 pop	 ebx
  0000f	8b e5		 mov	 esp, ebp
  00011	5d		 pop	 ebp
  00012	c3		 ret	 0
??$move@AAUUSER_CONNECT_TIME@@@std@@YA$$QAUUSER_CONNECT_TIME@@AAU1@@Z ENDP ; std::move<USER_CONNECT_TIME &>
_TEXT	ENDS
; Function compile flags: /Odtp /ZI
; File C:\Program Files (x86)\Microsoft Visual Studio\2019\Community\VC\Tools\MSVC\14.27.29110\include\xutility
;	COMDAT ??$_Copy_memmove@PAUUSER_CONNECT_TIME@@PAU1@@std@@YAPAUUSER_CONNECT_TIME@@PAU1@00@Z
_TEXT	SEGMENT
__Count$ = -16						; size = 4
__Dest_ch$ = -12					; size = 4
__Last_ch$ = -8						; size = 4
__First_ch$ = -4					; size = 4
__First$ = 8						; size = 4
__Last$ = 12						; size = 4
__Dest$ = 16						; size = 4
??$_Copy_memmove@PAUUSER_CONNECT_TIME@@PAU1@@std@@YAPAUUSER_CONNECT_TIME@@PAU1@00@Z PROC ; std::_Copy_memmove<USER_CONNECT_TIME *,USER_CONNECT_TIME *>, COMDAT

; 4113 : _OutIt _Copy_memmove(_InIt _First, _InIt _Last, _OutIt _Dest) {

  00000	55		 push	 ebp
  00001	8b ec		 mov	 ebp, esp
  00003	83 ec 50	 sub	 esp, 80			; 00000050H
  00006	53		 push	 ebx
  00007	56		 push	 esi
  00008	57		 push	 edi

; 4114 :     const char* const _First_ch = const_cast<const char*>(reinterpret_cast<const volatile char*>(_First));

  00009	8b 45 08	 mov	 eax, DWORD PTR __First$[ebp]
  0000c	89 45 fc	 mov	 DWORD PTR __First_ch$[ebp], eax

; 4115 :     const char* const _Last_ch  = const_cast<const char*>(reinterpret_cast<const volatile char*>(_Last));

  0000f	8b 45 0c	 mov	 eax, DWORD PTR __Last$[ebp]
  00012	89 45 f8	 mov	 DWORD PTR __Last_ch$[ebp], eax

; 4116 :     char* const _Dest_ch        = const_cast<char*>(reinterpret_cast<volatile char*>(_Dest));

  00015	8b 45 10	 mov	 eax, DWORD PTR __Dest$[ebp]
  00018	89 45 f4	 mov	 DWORD PTR __Dest_ch$[ebp], eax

; 4117 :     const auto _Count           = static_cast<size_t>(_Last_ch - _First_ch);

  0001b	8b 45 f8	 mov	 eax, DWORD PTR __Last_ch$[ebp]
  0001e	2b 45 fc	 sub	 eax, DWORD PTR __First_ch$[ebp]
  00021	89 45 f0	 mov	 DWORD PTR __Count$[ebp], eax

; 4118 :     _CSTD memmove(_Dest_ch, _First_ch, _Count);

  00024	8b 45 f0	 mov	 eax, DWORD PTR __Count$[ebp]
  00027	50		 push	 eax
  00028	8b 4d fc	 mov	 ecx, DWORD PTR __First_ch$[ebp]
  0002b	51		 push	 ecx
  0002c	8b 55 f4	 mov	 edx, DWORD PTR __Dest_ch$[ebp]
  0002f	52		 push	 edx
  00030	e8 00 00 00 00	 call	 _memmove
  00035	83 c4 0c	 add	 esp, 12			; 0000000cH

; 4119 :     return reinterpret_cast<_OutIt>(_Dest_ch + _Count);

  00038	8b 45 f4	 mov	 eax, DWORD PTR __Dest_ch$[ebp]
  0003b	03 45 f0	 add	 eax, DWORD PTR __Count$[ebp]

; 4120 : }

  0003e	5f		 pop	 edi
  0003f	5e		 pop	 esi
  00040	5b		 pop	 ebx
  00041	8b e5		 mov	 esp, ebp
  00043	5d		 pop	 ebp
  00044	c3		 ret	 0
??$_Copy_memmove@PAUUSER_CONNECT_TIME@@PAU1@@std@@YAPAUUSER_CONNECT_TIME@@PAU1@00@Z ENDP ; std::_Copy_memmove<USER_CONNECT_TIME *,USER_CONNECT_TIME *>
_TEXT	ENDS
; Function compile flags: /Odtp /ZI
; File C:\Program Files (x86)\Microsoft Visual Studio\2019\Community\VC\Tools\MSVC\14.27.29110\include\type_traits
;	COMDAT ??$move@AAUIP_BLOCK@@@std@@YA$$QAUIP_BLOCK@@AAU1@@Z
_TEXT	SEGMENT
__Arg$ = 8						; size = 4
??$move@AAUIP_BLOCK@@@std@@YA$$QAUIP_BLOCK@@AAU1@@Z PROC ; std::move<IP_BLOCK &>, COMDAT

; 1466 : _NODISCARD constexpr remove_reference_t<_Ty>&& move(_Ty&& _Arg) noexcept { // forward _Arg as movable

  00000	55		 push	 ebp
  00001	8b ec		 mov	 ebp, esp
  00003	83 ec 40	 sub	 esp, 64			; 00000040H
  00006	53		 push	 ebx
  00007	56		 push	 esi
  00008	57		 push	 edi

; 1467 :     return static_cast<remove_reference_t<_Ty>&&>(_Arg);

  00009	8b 45 08	 mov	 eax, DWORD PTR __Arg$[ebp]

; 1468 : }

  0000c	5f		 pop	 edi
  0000d	5e		 pop	 esi
  0000e	5b		 pop	 ebx
  0000f	8b e5		 mov	 esp, ebp
  00011	5d		 pop	 ebp
  00012	c3		 ret	 0
??$move@AAUIP_BLOCK@@@std@@YA$$QAUIP_BLOCK@@AAU1@@Z ENDP ; std::move<IP_BLOCK &>
_TEXT	ENDS
; Function compile flags: /Odtp /ZI
; File C:\Program Files (x86)\Microsoft Visual Studio\2019\Community\VC\Tools\MSVC\14.27.29110\include\xutility
;	COMDAT ??$_Copy_memmove@PAUIP_BLOCK@@PAU1@@std@@YAPAUIP_BLOCK@@PAU1@00@Z
_TEXT	SEGMENT
__Count$ = -16						; size = 4
__Dest_ch$ = -12					; size = 4
__Last_ch$ = -8						; size = 4
__First_ch$ = -4					; size = 4
__First$ = 8						; size = 4
__Last$ = 12						; size = 4
__Dest$ = 16						; size = 4
??$_Copy_memmove@PAUIP_BLOCK@@PAU1@@std@@YAPAUIP_BLOCK@@PAU1@00@Z PROC ; std::_Copy_memmove<IP_BLOCK *,IP_BLOCK *>, COMDAT

; 4113 : _OutIt _Copy_memmove(_InIt _First, _InIt _Last, _OutIt _Dest) {

  00000	55		 push	 ebp
  00001	8b ec		 mov	 ebp, esp
  00003	83 ec 50	 sub	 esp, 80			; 00000050H
  00006	53		 push	 ebx
  00007	56		 push	 esi
  00008	57		 push	 edi

; 4114 :     const char* const _First_ch = const_cast<const char*>(reinterpret_cast<const volatile char*>(_First));

  00009	8b 45 08	 mov	 eax, DWORD PTR __First$[ebp]
  0000c	89 45 fc	 mov	 DWORD PTR __First_ch$[ebp], eax

; 4115 :     const char* const _Last_ch  = const_cast<const char*>(reinterpret_cast<const volatile char*>(_Last));

  0000f	8b 45 0c	 mov	 eax, DWORD PTR __Last$[ebp]
  00012	89 45 f8	 mov	 DWORD PTR __Last_ch$[ebp], eax

; 4116 :     char* const _Dest_ch        = const_cast<char*>(reinterpret_cast<volatile char*>(_Dest));

  00015	8b 45 10	 mov	 eax, DWORD PTR __Dest$[ebp]
  00018	89 45 f4	 mov	 DWORD PTR __Dest_ch$[ebp], eax

; 4117 :     const auto _Count           = static_cast<size_t>(_Last_ch - _First_ch);

  0001b	8b 45 f8	 mov	 eax, DWORD PTR __Last_ch$[ebp]
  0001e	2b 45 fc	 sub	 eax, DWORD PTR __First_ch$[ebp]
  00021	89 45 f0	 mov	 DWORD PTR __Count$[ebp], eax

; 4118 :     _CSTD memmove(_Dest_ch, _First_ch, _Count);

  00024	8b 45 f0	 mov	 eax, DWORD PTR __Count$[ebp]
  00027	50		 push	 eax
  00028	8b 4d fc	 mov	 ecx, DWORD PTR __First_ch$[ebp]
  0002b	51		 push	 ecx
  0002c	8b 55 f4	 mov	 edx, DWORD PTR __Dest_ch$[ebp]
  0002f	52		 push	 edx
  00030	e8 00 00 00 00	 call	 _memmove
  00035	83 c4 0c	 add	 esp, 12			; 0000000cH

; 4119 :     return reinterpret_cast<_OutIt>(_Dest_ch + _Count);

  00038	8b 45 f4	 mov	 eax, DWORD PTR __Dest_ch$[ebp]
  0003b	03 45 f0	 add	 eax, DWORD PTR __Count$[ebp]

; 4120 : }

  0003e	5f		 pop	 edi
  0003f	5e		 pop	 esi
  00040	5b		 pop	 ebx
  00041	8b e5		 mov	 esp, ebp
  00043	5d		 pop	 ebp
  00044	c3		 ret	 0
??$_Copy_memmove@PAUIP_BLOCK@@PAU1@@std@@YAPAUIP_BLOCK@@PAU1@00@Z ENDP ; std::_Copy_memmove<IP_BLOCK *,IP_BLOCK *>
_TEXT	ENDS
; Function compile flags: /Odtp /ZI
; File C:\Program Files (x86)\Microsoft Visual Studio\2019\Community\VC\Tools\MSVC\14.27.29110\include\xmemory
;	COMDAT ??$_Destroy_range@V?$allocator@UUSER_CONNECT_TIME@@@std@@@std@@YAXPAUUSER_CONNECT_TIME@@QAU1@AAV?$allocator@UUSER_CONNECT_TIME@@@0@@Z
_TEXT	SEGMENT
__First$ = 8						; size = 4
__Last$ = 12						; size = 4
__Al$ = 16						; size = 4
??$_Destroy_range@V?$allocator@UUSER_CONNECT_TIME@@@std@@@std@@YAXPAUUSER_CONNECT_TIME@@QAU1@AAV?$allocator@UUSER_CONNECT_TIME@@@0@@Z PROC ; std::_Destroy_range<std::allocator<USER_CONNECT_TIME> >, COMDAT

; 955  : void _Destroy_range(_Alloc_ptr_t<_Alloc> _First, const _Alloc_ptr_t<_Alloc> _Last, _Alloc& _Al) noexcept {

  00000	55		 push	 ebp
  00001	8b ec		 mov	 ebp, esp
  00003	83 ec 40	 sub	 esp, 64			; 00000040H
  00006	53		 push	 ebx
  00007	56		 push	 esi
  00008	57		 push	 edi

; 956  :     // note that this is an optimization for debug mode codegen; in release mode the BE removes all of this
; 957  :     using _Ty = typename _Alloc::value_type;
; 958  :     if _CONSTEXPR_IF (!conjunction_v<is_trivially_destructible<_Ty>, _Uses_default_destroy<_Alloc, _Ty*>>) {
; 959  :         for (; _First != _Last; ++_First) {
; 960  :             allocator_traits<_Alloc>::destroy(_Al, _Unfancy(_First));
; 961  :         }
; 962  :     }
; 963  : }

  00009	5f		 pop	 edi
  0000a	5e		 pop	 esi
  0000b	5b		 pop	 ebx
  0000c	8b e5		 mov	 esp, ebp
  0000e	5d		 pop	 ebp
  0000f	c3		 ret	 0
??$_Destroy_range@V?$allocator@UUSER_CONNECT_TIME@@@std@@@std@@YAXPAUUSER_CONNECT_TIME@@QAU1@AAV?$allocator@UUSER_CONNECT_TIME@@@0@@Z ENDP ; std::_Destroy_range<std::allocator<USER_CONNECT_TIME> >
_TEXT	ENDS
; Function compile flags: /Odtp /ZI
; File C:\Program Files (x86)\Microsoft Visual Studio\2019\Community\VC\Tools\MSVC\14.27.29110\include\xmemory
;	COMDAT ??$_Destroy_range@V?$allocator@UIP_BLOCK@@@std@@@std@@YAXPAUIP_BLOCK@@QAU1@AAV?$allocator@UIP_BLOCK@@@0@@Z
_TEXT	SEGMENT
__First$ = 8						; size = 4
__Last$ = 12						; size = 4
__Al$ = 16						; size = 4
??$_Destroy_range@V?$allocator@UIP_BLOCK@@@std@@@std@@YAXPAUIP_BLOCK@@QAU1@AAV?$allocator@UIP_BLOCK@@@0@@Z PROC ; std::_Destroy_range<std::allocator<IP_BLOCK> >, COMDAT

; 955  : void _Destroy_range(_Alloc_ptr_t<_Alloc> _First, const _Alloc_ptr_t<_Alloc> _Last, _Alloc& _Al) noexcept {

  00000	55		 push	 ebp
  00001	8b ec		 mov	 ebp, esp
  00003	83 ec 40	 sub	 esp, 64			; 00000040H
  00006	53		 push	 ebx
  00007	56		 push	 esi
  00008	57		 push	 edi

; 956  :     // note that this is an optimization for debug mode codegen; in release mode the BE removes all of this
; 957  :     using _Ty = typename _Alloc::value_type;
; 958  :     if _CONSTEXPR_IF (!conjunction_v<is_trivially_destructible<_Ty>, _Uses_default_destroy<_Alloc, _Ty*>>) {
; 959  :         for (; _First != _Last; ++_First) {
; 960  :             allocator_traits<_Alloc>::destroy(_Al, _Unfancy(_First));
; 961  :         }
; 962  :     }
; 963  : }

  00009	5f		 pop	 edi
  0000a	5e		 pop	 esi
  0000b	5b		 pop	 ebx
  0000c	8b e5		 mov	 esp, ebp
  0000e	5d		 pop	 ebp
  0000f	c3		 ret	 0
??$_Destroy_range@V?$allocator@UIP_BLOCK@@@std@@@std@@YAXPAUIP_BLOCK@@QAU1@AAV?$allocator@UIP_BLOCK@@@0@@Z ENDP ; std::_Destroy_range<std::allocator<IP_BLOCK> >
_TEXT	ENDS
; Function compile flags: /Odtp /ZI
; File C:\Program Files (x86)\Microsoft Visual Studio\2019\Community\VC\Tools\MSVC\14.27.29110\include\xmemory
;	COMDAT ??$?0$$V@?$_Compressed_pair@V?$allocator@UUSER_CONNECT_TIME@@@std@@V?$_Vector_val@U?$_Simple_types@UUSER_CONNECT_TIME@@@std@@@2@$00@std@@QAE@U_Zero_then_variadic_args_t@1@@Z
_TEXT	SEGMENT
_this$ = -4						; size = 4
___formal$ = 8						; size = 1
??$?0$$V@?$_Compressed_pair@V?$allocator@UUSER_CONNECT_TIME@@@std@@V?$_Vector_val@U?$_Simple_types@UUSER_CONNECT_TIME@@@std@@@2@$00@std@@QAE@U_Zero_then_variadic_args_t@1@@Z PROC ; std::_Compressed_pair<std::allocator<USER_CONNECT_TIME>,std::_Vector_val<std::_Simple_types<USER_CONNECT_TIME> >,1>::_Compressed_pair<std::allocator<USER_CONNECT_TIME>,std::_Vector_val<std::_Simple_types<USER_CONNECT_TIME> >,1><>, COMDAT
; _this$ = ecx

; 1336 :         : _Ty1(), _Myval2(_STD forward<_Other2>(_Val2)...) {}

  00000	55		 push	 ebp
  00001	8b ec		 mov	 ebp, esp
  00003	83 ec 44	 sub	 esp, 68			; 00000044H
  00006	53		 push	 ebx
  00007	56		 push	 esi
  00008	57		 push	 edi
  00009	89 4d fc	 mov	 DWORD PTR _this$[ebp], ecx
  0000c	8b 4d fc	 mov	 ecx, DWORD PTR _this$[ebp]
  0000f	e8 00 00 00 00	 call	 ??0?$allocator@UUSER_CONNECT_TIME@@@std@@QAE@XZ ; std::allocator<USER_CONNECT_TIME>::allocator<USER_CONNECT_TIME>
  00014	8b 4d fc	 mov	 ecx, DWORD PTR _this$[ebp]
  00017	e8 00 00 00 00	 call	 ??0?$_Vector_val@U?$_Simple_types@UUSER_CONNECT_TIME@@@std@@@std@@QAE@XZ ; std::_Vector_val<std::_Simple_types<USER_CONNECT_TIME> >::_Vector_val<std::_Simple_types<USER_CONNECT_TIME> >
  0001c	8b 45 fc	 mov	 eax, DWORD PTR _this$[ebp]
  0001f	5f		 pop	 edi
  00020	5e		 pop	 esi
  00021	5b		 pop	 ebx
  00022	8b e5		 mov	 esp, ebp
  00024	5d		 pop	 ebp
  00025	c2 04 00	 ret	 4
??$?0$$V@?$_Compressed_pair@V?$allocator@UUSER_CONNECT_TIME@@@std@@V?$_Vector_val@U?$_Simple_types@UUSER_CONNECT_TIME@@@std@@@2@$00@std@@QAE@U_Zero_then_variadic_args_t@1@@Z ENDP ; std::_Compressed_pair<std::allocator<USER_CONNECT_TIME>,std::_Vector_val<std::_Simple_types<USER_CONNECT_TIME> >,1>::_Compressed_pair<std::allocator<USER_CONNECT_TIME>,std::_Vector_val<std::_Simple_types<USER_CONNECT_TIME> >,1><>
_TEXT	ENDS
; Function compile flags: /Odtp /ZI
; File C:\Program Files (x86)\Microsoft Visual Studio\2019\Community\VC\Tools\MSVC\14.27.29110\include\vector
;	COMDAT ??$_Emplace_reallocate@ABUUSER_CONNECT_TIME@@@?$vector@UUSER_CONNECT_TIME@@V?$allocator@UUSER_CONNECT_TIME@@@std@@@std@@QAEPAUUSER_CONNECT_TIME@@QAU2@ABU2@@Z
_TEXT	SEGMENT
__Constructed_first$ = -64				; size = 4
__Constructed_last$ = -60				; size = 4
__Newvec$ = -56						; size = 4
__Newcapacity$ = -52					; size = 4
__Newsize$ = -48					; size = 4
__Oldsize$ = -44					; size = 4
__Whereoff$ = -40					; size = 4
__Mylast$ = -36						; size = 4
__Myfirst$ = -32					; size = 4
__My_data$ = -28					; size = 4
__Al$ = -24						; size = 4
_this$ = -20						; size = 4
__$EHRec$ = -16						; size = 16
__Whereptr$ = 8						; size = 4
_<_Val_0>$ = 12						; size = 4
??$_Emplace_reallocate@ABUUSER_CONNECT_TIME@@@?$vector@UUSER_CONNECT_TIME@@V?$allocator@UUSER_CONNECT_TIME@@@std@@@std@@QAEPAUUSER_CONNECT_TIME@@QAU2@ABU2@@Z PROC ; std::vector<USER_CONNECT_TIME,std::allocator<USER_CONNECT_TIME> >::_Emplace_reallocate<USER_CONNECT_TIME const &>, COMDAT
; _this$ = ecx

; 725  :     pointer _Emplace_reallocate(const pointer _Whereptr, _Valty&&... _Val) {

  00000	55		 push	 ebp
  00001	8b ec		 mov	 ebp, esp
  00003	6a ff		 push	 -1
  00005	68 00 00 00 00	 push	 __ehhandler$??$_Emplace_reallocate@ABUUSER_CONNECT_TIME@@@?$vector@UUSER_CONNECT_TIME@@V?$allocator@UUSER_CONNECT_TIME@@@std@@@std@@QAEPAUUSER_CONNECT_TIME@@QAU2@ABU2@@Z
  0000a	64 a1 00 00 00
	00		 mov	 eax, DWORD PTR fs:0
  00010	50		 push	 eax
  00011	51		 push	 ecx
  00012	83 ec 70	 sub	 esp, 112		; 00000070H
  00015	53		 push	 ebx
  00016	56		 push	 esi
  00017	57		 push	 edi
  00018	a1 00 00 00 00	 mov	 eax, DWORD PTR ___security_cookie
  0001d	33 c5		 xor	 eax, ebp
  0001f	50		 push	 eax
  00020	8d 45 f4	 lea	 eax, DWORD PTR __$EHRec$[ebp+4]
  00023	64 a3 00 00 00
	00		 mov	 DWORD PTR fs:0, eax
  00029	89 65 f0	 mov	 DWORD PTR __$EHRec$[ebp], esp
  0002c	89 4d ec	 mov	 DWORD PTR _this$[ebp], ecx

; 726  :         // reallocate and insert by perfectly forwarding _Val at _Whereptr
; 727  :         _Alty& _Al        = _Getal();

  0002f	8b 4d ec	 mov	 ecx, DWORD PTR _this$[ebp]
  00032	e8 00 00 00 00	 call	 ?_Getal@?$vector@UUSER_CONNECT_TIME@@V?$allocator@UUSER_CONNECT_TIME@@@std@@@std@@AAEAAV?$allocator@UUSER_CONNECT_TIME@@@2@XZ ; std::vector<USER_CONNECT_TIME,std::allocator<USER_CONNECT_TIME> >::_Getal
  00037	89 45 e8	 mov	 DWORD PTR __Al$[ebp], eax

; 728  :         auto& _My_data    = _Mypair._Myval2;

  0003a	8b 45 ec	 mov	 eax, DWORD PTR _this$[ebp]
  0003d	89 45 e4	 mov	 DWORD PTR __My_data$[ebp], eax

; 729  :         pointer& _Myfirst = _My_data._Myfirst;

  00040	8b 45 e4	 mov	 eax, DWORD PTR __My_data$[ebp]
  00043	89 45 e0	 mov	 DWORD PTR __Myfirst$[ebp], eax

; 730  :         pointer& _Mylast  = _My_data._Mylast;

  00046	8b 45 e4	 mov	 eax, DWORD PTR __My_data$[ebp]
  00049	83 c0 04	 add	 eax, 4
  0004c	89 45 dc	 mov	 DWORD PTR __Mylast$[ebp], eax

; 731  : 
; 732  :         _STL_INTERNAL_CHECK(_Mylast == _My_data._Myend); // check that we have no unused capacity
; 733  : 
; 734  :         const auto _Whereoff = static_cast<size_type>(_Whereptr - _Myfirst);

  0004f	8b 45 e0	 mov	 eax, DWORD PTR __Myfirst$[ebp]
  00052	8b 4d 08	 mov	 ecx, DWORD PTR __Whereptr$[ebp]
  00055	2b 08		 sub	 ecx, DWORD PTR [eax]
  00057	8b c1		 mov	 eax, ecx
  00059	99		 cdq
  0005a	b9 24 00 00 00	 mov	 ecx, 36			; 00000024H
  0005f	f7 f9		 idiv	 ecx
  00061	89 45 d8	 mov	 DWORD PTR __Whereoff$[ebp], eax

; 735  :         const auto _Oldsize  = static_cast<size_type>(_Mylast - _Myfirst);

  00064	8b 45 dc	 mov	 eax, DWORD PTR __Mylast$[ebp]
  00067	8b 4d e0	 mov	 ecx, DWORD PTR __Myfirst$[ebp]
  0006a	8b 00		 mov	 eax, DWORD PTR [eax]
  0006c	2b 01		 sub	 eax, DWORD PTR [ecx]
  0006e	99		 cdq
  0006f	b9 24 00 00 00	 mov	 ecx, 36			; 00000024H
  00074	f7 f9		 idiv	 ecx
  00076	89 45 d4	 mov	 DWORD PTR __Oldsize$[ebp], eax

; 736  : 
; 737  :         if (_Oldsize == max_size()) {

  00079	8b 4d ec	 mov	 ecx, DWORD PTR _this$[ebp]
  0007c	e8 00 00 00 00	 call	 ?max_size@?$vector@UUSER_CONNECT_TIME@@V?$allocator@UUSER_CONNECT_TIME@@@std@@@std@@QBEIXZ ; std::vector<USER_CONNECT_TIME,std::allocator<USER_CONNECT_TIME> >::max_size
  00081	39 45 d4	 cmp	 DWORD PTR __Oldsize$[ebp], eax
  00084	75 05		 jne	 SHORT $LN2@Emplace_re

; 738  :             _Xlength();

  00086	e8 00 00 00 00	 call	 ?_Xlength@?$vector@UUSER_CONNECT_TIME@@V?$allocator@UUSER_CONNECT_TIME@@@std@@@std@@CAXXZ ; std::vector<USER_CONNECT_TIME,std::allocator<USER_CONNECT_TIME> >::_Xlength
$LN2@Emplace_re:

; 739  :         }
; 740  : 
; 741  :         const size_type _Newsize     = _Oldsize + 1;

  0008b	8b 45 d4	 mov	 eax, DWORD PTR __Oldsize$[ebp]
  0008e	83 c0 01	 add	 eax, 1
  00091	89 45 d0	 mov	 DWORD PTR __Newsize$[ebp], eax

; 742  :         const size_type _Newcapacity = _Calculate_growth(_Newsize);

  00094	8b 45 d0	 mov	 eax, DWORD PTR __Newsize$[ebp]
  00097	50		 push	 eax
  00098	8b 4d ec	 mov	 ecx, DWORD PTR _this$[ebp]
  0009b	e8 00 00 00 00	 call	 ?_Calculate_growth@?$vector@UUSER_CONNECT_TIME@@V?$allocator@UUSER_CONNECT_TIME@@@std@@@std@@ABEII@Z ; std::vector<USER_CONNECT_TIME,std::allocator<USER_CONNECT_TIME> >::_Calculate_growth
  000a0	89 45 cc	 mov	 DWORD PTR __Newcapacity$[ebp], eax

; 743  : 
; 744  :         const pointer _Newvec           = _Al.allocate(_Newcapacity);

  000a3	8b 45 cc	 mov	 eax, DWORD PTR __Newcapacity$[ebp]
  000a6	50		 push	 eax
  000a7	8b 4d e8	 mov	 ecx, DWORD PTR __Al$[ebp]
  000aa	e8 00 00 00 00	 call	 ?allocate@?$allocator@UUSER_CONNECT_TIME@@@std@@QAEPAUUSER_CONNECT_TIME@@I@Z ; std::allocator<USER_CONNECT_TIME>::allocate
  000af	89 45 c8	 mov	 DWORD PTR __Newvec$[ebp], eax

; 745  :         const pointer _Constructed_last = _Newvec + _Whereoff + 1;

  000b2	6b 45 d8 24	 imul	 eax, DWORD PTR __Whereoff$[ebp], 36
  000b6	8b 4d c8	 mov	 ecx, DWORD PTR __Newvec$[ebp]
  000b9	8d 54 01 24	 lea	 edx, DWORD PTR [ecx+eax+36]
  000bd	89 55 c4	 mov	 DWORD PTR __Constructed_last$[ebp], edx

; 746  :         pointer _Constructed_first      = _Constructed_last;

  000c0	8b 45 c4	 mov	 eax, DWORD PTR __Constructed_last$[ebp]
  000c3	89 45 c0	 mov	 DWORD PTR __Constructed_first$[ebp], eax

; 747  : 
; 748  :         _TRY_BEGIN

  000c6	c7 45 fc 00 00
	00 00		 mov	 DWORD PTR __$EHRec$[ebp+12], 0

; 749  :         _Alty_traits::construct(_Al, _Unfancy(_Newvec + _Whereoff), _STD forward<_Valty>(_Val)...);

  000cd	8b 45 0c	 mov	 eax, DWORD PTR _<_Val_0>$[ebp]
  000d0	50		 push	 eax
  000d1	e8 00 00 00 00	 call	 ??$forward@ABUUSER_CONNECT_TIME@@@std@@YAABUUSER_CONNECT_TIME@@ABU1@@Z ; std::forward<USER_CONNECT_TIME const &>
  000d6	83 c4 04	 add	 esp, 4
  000d9	50		 push	 eax
  000da	6b 4d d8 24	 imul	 ecx, DWORD PTR __Whereoff$[ebp], 36
  000de	03 4d c8	 add	 ecx, DWORD PTR __Newvec$[ebp]
  000e1	51		 push	 ecx
  000e2	e8 00 00 00 00	 call	 ??$_Unfancy@UUSER_CONNECT_TIME@@@std@@YAPAUUSER_CONNECT_TIME@@PAU1@@Z ; std::_Unfancy<USER_CONNECT_TIME>
  000e7	83 c4 04	 add	 esp, 4
  000ea	50		 push	 eax
  000eb	8b 55 e8	 mov	 edx, DWORD PTR __Al$[ebp]
  000ee	52		 push	 edx
  000ef	e8 00 00 00 00	 call	 ??$construct@UUSER_CONNECT_TIME@@ABU1@@?$_Default_allocator_traits@V?$allocator@UUSER_CONNECT_TIME@@@std@@@std@@SAXAAV?$allocator@UUSER_CONNECT_TIME@@@1@QAUUSER_CONNECT_TIME@@ABU3@@Z ; std::_Default_allocator_traits<std::allocator<USER_CONNECT_TIME> >::construct<USER_CONNECT_TIME,USER_CONNECT_TIME const &>
  000f4	83 c4 0c	 add	 esp, 12			; 0000000cH

; 750  :         _Constructed_first = _Newvec + _Whereoff;

  000f7	6b 45 d8 24	 imul	 eax, DWORD PTR __Whereoff$[ebp], 36
  000fb	03 45 c8	 add	 eax, DWORD PTR __Newvec$[ebp]
  000fe	89 45 c0	 mov	 DWORD PTR __Constructed_first$[ebp], eax

; 751  : 
; 752  :         if (_Whereptr == _Mylast) { // at back, provide strong guarantee

  00101	8b 45 dc	 mov	 eax, DWORD PTR __Mylast$[ebp]
  00104	8b 4d 08	 mov	 ecx, DWORD PTR __Whereptr$[ebp]
  00107	3b 08		 cmp	 ecx, DWORD PTR [eax]
  00109	75 1a		 jne	 SHORT $LN4@Emplace_re

; 753  :             _Umove_if_noexcept(_Myfirst, _Mylast, _Newvec);

  0010b	8b 45 c8	 mov	 eax, DWORD PTR __Newvec$[ebp]
  0010e	50		 push	 eax
  0010f	8b 4d dc	 mov	 ecx, DWORD PTR __Mylast$[ebp]
  00112	8b 11		 mov	 edx, DWORD PTR [ecx]
  00114	52		 push	 edx
  00115	8b 45 e0	 mov	 eax, DWORD PTR __Myfirst$[ebp]
  00118	8b 08		 mov	 ecx, DWORD PTR [eax]
  0011a	51		 push	 ecx
  0011b	8b 4d ec	 mov	 ecx, DWORD PTR _this$[ebp]
  0011e	e8 00 00 00 00	 call	 ?_Umove_if_noexcept@?$vector@UUSER_CONNECT_TIME@@V?$allocator@UUSER_CONNECT_TIME@@@std@@@std@@AAEXPAUUSER_CONNECT_TIME@@00@Z ; std::vector<USER_CONNECT_TIME,std::allocator<USER_CONNECT_TIME> >::_Umove_if_noexcept

; 754  :         } else { // provide basic guarantee

  00123	eb 3a		 jmp	 SHORT $LN5@Emplace_re
$LN4@Emplace_re:

; 755  :             _Umove(_Myfirst, _Whereptr, _Newvec);

  00125	8b 45 c8	 mov	 eax, DWORD PTR __Newvec$[ebp]
  00128	50		 push	 eax
  00129	8b 4d 08	 mov	 ecx, DWORD PTR __Whereptr$[ebp]
  0012c	51		 push	 ecx
  0012d	8b 55 e0	 mov	 edx, DWORD PTR __Myfirst$[ebp]
  00130	8b 02		 mov	 eax, DWORD PTR [edx]
  00132	50		 push	 eax
  00133	8b 4d ec	 mov	 ecx, DWORD PTR _this$[ebp]
  00136	e8 00 00 00 00	 call	 ?_Umove@?$vector@UUSER_CONNECT_TIME@@V?$allocator@UUSER_CONNECT_TIME@@@std@@@std@@AAEPAUUSER_CONNECT_TIME@@PAU3@00@Z ; std::vector<USER_CONNECT_TIME,std::allocator<USER_CONNECT_TIME> >::_Umove

; 756  :             _Constructed_first = _Newvec;

  0013b	8b 45 c8	 mov	 eax, DWORD PTR __Newvec$[ebp]
  0013e	89 45 c0	 mov	 DWORD PTR __Constructed_first$[ebp], eax

; 757  :             _Umove(_Whereptr, _Mylast, _Newvec + _Whereoff + 1);

  00141	6b 45 d8 24	 imul	 eax, DWORD PTR __Whereoff$[ebp], 36
  00145	8b 4d c8	 mov	 ecx, DWORD PTR __Newvec$[ebp]
  00148	8d 54 01 24	 lea	 edx, DWORD PTR [ecx+eax+36]
  0014c	52		 push	 edx
  0014d	8b 45 dc	 mov	 eax, DWORD PTR __Mylast$[ebp]
  00150	8b 08		 mov	 ecx, DWORD PTR [eax]
  00152	51		 push	 ecx
  00153	8b 55 08	 mov	 edx, DWORD PTR __Whereptr$[ebp]
  00156	52		 push	 edx
  00157	8b 4d ec	 mov	 ecx, DWORD PTR _this$[ebp]
  0015a	e8 00 00 00 00	 call	 ?_Umove@?$vector@UUSER_CONNECT_TIME@@V?$allocator@UUSER_CONNECT_TIME@@@std@@@std@@AAEPAUUSER_CONNECT_TIME@@PAU3@00@Z ; std::vector<USER_CONNECT_TIME,std::allocator<USER_CONNECT_TIME> >::_Umove
$LN5@Emplace_re:
  0015f	eb 2f		 jmp	 SHORT $LN7@Emplace_re
__catch$??$_Emplace_reallocate@ABUUSER_CONNECT_TIME@@@?$vector@UUSER_CONNECT_TIME@@V?$allocator@UUSER_CONNECT_TIME@@@std@@@std@@QAEPAUUSER_CONNECT_TIME@@QAU2@ABU2@@Z$0:

; 758  :         }
; 759  :         _CATCH_ALL
; 760  :         _Destroy(_Constructed_first, _Constructed_last);

  00161	8b 45 c4	 mov	 eax, DWORD PTR __Constructed_last$[ebp]
  00164	50		 push	 eax
  00165	8b 4d c0	 mov	 ecx, DWORD PTR __Constructed_first$[ebp]
  00168	51		 push	 ecx
  00169	8b 4d ec	 mov	 ecx, DWORD PTR _this$[ebp]
  0016c	e8 00 00 00 00	 call	 ?_Destroy@?$vector@UUSER_CONNECT_TIME@@V?$allocator@UUSER_CONNECT_TIME@@@std@@@std@@AAEXPAUUSER_CONNECT_TIME@@0@Z ; std::vector<USER_CONNECT_TIME,std::allocator<USER_CONNECT_TIME> >::_Destroy

; 761  :         _Al.deallocate(_Newvec, _Newcapacity);

  00171	8b 45 cc	 mov	 eax, DWORD PTR __Newcapacity$[ebp]
  00174	50		 push	 eax
  00175	8b 4d c8	 mov	 ecx, DWORD PTR __Newvec$[ebp]
  00178	51		 push	 ecx
  00179	8b 4d e8	 mov	 ecx, DWORD PTR __Al$[ebp]
  0017c	e8 00 00 00 00	 call	 ?deallocate@?$allocator@UUSER_CONNECT_TIME@@@std@@QAEXQAUUSER_CONNECT_TIME@@I@Z ; std::allocator<USER_CONNECT_TIME>::deallocate

; 762  :         _RERAISE;

  00181	6a 00		 push	 0
  00183	6a 00		 push	 0
  00185	e8 00 00 00 00	 call	 __CxxThrowException@8

; 763  :         _CATCH_END

  0018a	b8 00 00 00 00	 mov	 eax, $LN10@Emplace_re
  0018f	c3		 ret	 0
$LN7@Emplace_re:
  00190	c7 45 fc ff ff
	ff ff		 mov	 DWORD PTR __$EHRec$[ebp+12], -1
  00197	eb 07		 jmp	 SHORT __tryend$??$_Emplace_reallocate@ABUUSER_CONNECT_TIME@@@?$vector@UUSER_CONNECT_TIME@@V?$allocator@UUSER_CONNECT_TIME@@@std@@@std@@QAEPAUUSER_CONNECT_TIME@@QAU2@ABU2@@Z$1
$LN10@Emplace_re:
  00199	c7 45 fc ff ff
	ff ff		 mov	 DWORD PTR __$EHRec$[ebp+12], -1
__tryend$??$_Emplace_reallocate@ABUUSER_CONNECT_TIME@@@?$vector@UUSER_CONNECT_TIME@@V?$allocator@UUSER_CONNECT_TIME@@@std@@@std@@QAEPAUUSER_CONNECT_TIME@@QAU2@ABU2@@Z$1:

; 764  : 
; 765  :         _Change_array(_Newvec, _Newsize, _Newcapacity);

  001a0	8b 45 cc	 mov	 eax, DWORD PTR __Newcapacity$[ebp]
  001a3	50		 push	 eax
  001a4	8b 4d d0	 mov	 ecx, DWORD PTR __Newsize$[ebp]
  001a7	51		 push	 ecx
  001a8	8b 55 c8	 mov	 edx, DWORD PTR __Newvec$[ebp]
  001ab	52		 push	 edx
  001ac	8b 4d ec	 mov	 ecx, DWORD PTR _this$[ebp]
  001af	e8 00 00 00 00	 call	 ?_Change_array@?$vector@UUSER_CONNECT_TIME@@V?$allocator@UUSER_CONNECT_TIME@@@std@@@std@@AAEXQAUUSER_CONNECT_TIME@@II@Z ; std::vector<USER_CONNECT_TIME,std::allocator<USER_CONNECT_TIME> >::_Change_array

; 766  :         return _Newvec + _Whereoff;

  001b4	6b 45 d8 24	 imul	 eax, DWORD PTR __Whereoff$[ebp], 36
  001b8	03 45 c8	 add	 eax, DWORD PTR __Newvec$[ebp]
$LN6@Emplace_re:

; 767  :     }

  001bb	8b 4d f4	 mov	 ecx, DWORD PTR __$EHRec$[ebp+4]
  001be	64 89 0d 00 00
	00 00		 mov	 DWORD PTR fs:0, ecx
  001c5	59		 pop	 ecx
  001c6	5f		 pop	 edi
  001c7	5e		 pop	 esi
  001c8	5b		 pop	 ebx
  001c9	8b e5		 mov	 esp, ebp
  001cb	5d		 pop	 ebp
  001cc	c2 08 00	 ret	 8
  001cf	cc		 int	 3
  001d0	cc		 int	 3
  001d1	cc		 int	 3
  001d2	cc		 int	 3
  001d3	cc		 int	 3
_TEXT	ENDS
;	COMDAT text$x
text$x	SEGMENT
__ehhandler$??$_Emplace_reallocate@ABUUSER_CONNECT_TIME@@@?$vector@UUSER_CONNECT_TIME@@V?$allocator@UUSER_CONNECT_TIME@@@std@@@std@@QAEPAUUSER_CONNECT_TIME@@QAU2@ABU2@@Z:
  00000	90		 npad	 1
  00001	90		 npad	 1
  00002	8b 54 24 08	 mov	 edx, DWORD PTR [esp+8]
  00006	8d 42 0c	 lea	 eax, DWORD PTR [edx+12]
  00009	8b 8a 7c ff ff
	ff		 mov	 ecx, DWORD PTR [edx-132]
  0000f	33 c8		 xor	 ecx, eax
  00011	e8 00 00 00 00	 call	 @__security_check_cookie@4
  00016	b8 00 00 00 00	 mov	 eax, OFFSET __ehfuncinfo$??$_Emplace_reallocate@ABUUSER_CONNECT_TIME@@@?$vector@UUSER_CONNECT_TIME@@V?$allocator@UUSER_CONNECT_TIME@@@std@@@std@@QAEPAUUSER_CONNECT_TIME@@QAU2@ABU2@@Z
  0001b	e9 00 00 00 00	 jmp	 ___CxxFrameHandler3
text$x	ENDS
??$_Emplace_reallocate@ABUUSER_CONNECT_TIME@@@?$vector@UUSER_CONNECT_TIME@@V?$allocator@UUSER_CONNECT_TIME@@@std@@@std@@QAEPAUUSER_CONNECT_TIME@@QAU2@ABU2@@Z ENDP ; std::vector<USER_CONNECT_TIME,std::allocator<USER_CONNECT_TIME> >::_Emplace_reallocate<USER_CONNECT_TIME const &>
; Function compile flags: /Odtp /ZI
; File C:\Program Files (x86)\Microsoft Visual Studio\2019\Community\VC\Tools\MSVC\14.27.29110\include\xmemory
;	COMDAT ??$construct@UUSER_CONNECT_TIME@@ABU1@@?$_Default_allocator_traits@V?$allocator@UUSER_CONNECT_TIME@@@std@@@std@@SAXAAV?$allocator@UUSER_CONNECT_TIME@@@1@QAUUSER_CONNECT_TIME@@ABU3@@Z
_TEXT	SEGMENT
$T1 = -68						; size = 4
___formal$ = 8						; size = 4
__Ptr$ = 12						; size = 4
_<_Args_0>$ = 16					; size = 4
??$construct@UUSER_CONNECT_TIME@@ABU1@@?$_Default_allocator_traits@V?$allocator@UUSER_CONNECT_TIME@@@std@@@std@@SAXAAV?$allocator@UUSER_CONNECT_TIME@@@1@QAUUSER_CONNECT_TIME@@ABU3@@Z PROC ; std::_Default_allocator_traits<std::allocator<USER_CONNECT_TIME> >::construct<USER_CONNECT_TIME,USER_CONNECT_TIME const &>, COMDAT

; 693  :     static void construct(_Alloc&, _Objty* const _Ptr, _Types&&... _Args) {

  00000	55		 push	 ebp
  00001	8b ec		 mov	 ebp, esp
  00003	83 ec 44	 sub	 esp, 68			; 00000044H
  00006	53		 push	 ebx
  00007	56		 push	 esi
  00008	57		 push	 edi

; 694  :         ::new (const_cast<void*>(static_cast<const volatile void*>(_Ptr))) _Objty(_STD forward<_Types>(_Args)...);

  00009	8b 45 0c	 mov	 eax, DWORD PTR __Ptr$[ebp]
  0000c	50		 push	 eax
  0000d	6a 24		 push	 36			; 00000024H
  0000f	e8 00 00 00 00	 call	 ??2@YAPAXIPAX@Z		; operator new
  00014	83 c4 08	 add	 esp, 8
  00017	89 45 bc	 mov	 DWORD PTR $T1[ebp], eax
  0001a	8b 4d 10	 mov	 ecx, DWORD PTR _<_Args_0>$[ebp]
  0001d	51		 push	 ecx
  0001e	e8 00 00 00 00	 call	 ??$forward@ABUUSER_CONNECT_TIME@@@std@@YAABUUSER_CONNECT_TIME@@ABU1@@Z ; std::forward<USER_CONNECT_TIME const &>
  00023	83 c4 04	 add	 esp, 4
  00026	b9 09 00 00 00	 mov	 ecx, 9
  0002b	8b f0		 mov	 esi, eax
  0002d	8b 7d bc	 mov	 edi, DWORD PTR $T1[ebp]
  00030	f3 a5		 rep movsd

; 695  :     }

  00032	5f		 pop	 edi
  00033	5e		 pop	 esi
  00034	5b		 pop	 ebx
  00035	8b e5		 mov	 esp, ebp
  00037	5d		 pop	 ebp
  00038	c3		 ret	 0
??$construct@UUSER_CONNECT_TIME@@ABU1@@?$_Default_allocator_traits@V?$allocator@UUSER_CONNECT_TIME@@@std@@@std@@SAXAAV?$allocator@UUSER_CONNECT_TIME@@@1@QAUUSER_CONNECT_TIME@@ABU3@@Z ENDP ; std::_Default_allocator_traits<std::allocator<USER_CONNECT_TIME> >::construct<USER_CONNECT_TIME,USER_CONNECT_TIME const &>
_TEXT	ENDS
; Function compile flags: /Odtp /ZI
; File C:\Program Files (x86)\Microsoft Visual Studio\2019\Community\VC\Tools\MSVC\14.27.29110\include\vector
;	COMDAT ??$_Emplace_back_with_unused_capacity@ABUUSER_CONNECT_TIME@@@?$vector@UUSER_CONNECT_TIME@@V?$allocator@UUSER_CONNECT_TIME@@@std@@@std@@AAE@ABUUSER_CONNECT_TIME@@@Z
_TEXT	SEGMENT
__Result$ = -16						; size = 4
__Mylast$ = -12						; size = 4
__My_data$ = -8						; size = 4
_this$ = -4						; size = 4
_<_Val_0>$ = 8						; size = 4
??$_Emplace_back_with_unused_capacity@ABUUSER_CONNECT_TIME@@@?$vector@UUSER_CONNECT_TIME@@V?$allocator@UUSER_CONNECT_TIME@@@std@@@std@@AAE@ABUUSER_CONNECT_TIME@@@Z PROC ; std::vector<USER_CONNECT_TIME,std::allocator<USER_CONNECT_TIME> >::_Emplace_back_with_unused_capacity<USER_CONNECT_TIME const &>, COMDAT
; _this$ = ecx

; 682  :     decltype(auto) _Emplace_back_with_unused_capacity(_Valty&&... _Val) {

  00000	55		 push	 ebp
  00001	8b ec		 mov	 ebp, esp
  00003	83 ec 50	 sub	 esp, 80			; 00000050H
  00006	53		 push	 ebx
  00007	56		 push	 esi
  00008	57		 push	 edi
  00009	89 4d fc	 mov	 DWORD PTR _this$[ebp], ecx

; 683  :         // insert by perfectly forwarding into element at end, provide strong guarantee
; 684  :         auto& _My_data   = _Mypair._Myval2;

  0000c	8b 45 fc	 mov	 eax, DWORD PTR _this$[ebp]
  0000f	89 45 f8	 mov	 DWORD PTR __My_data$[ebp], eax

; 685  :         pointer& _Mylast = _My_data._Mylast;

  00012	8b 45 f8	 mov	 eax, DWORD PTR __My_data$[ebp]
  00015	83 c0 04	 add	 eax, 4
  00018	89 45 f4	 mov	 DWORD PTR __Mylast$[ebp], eax

; 686  :         _STL_INTERNAL_CHECK(_Mylast != _My_data._Myend); // check that we have unused capacity
; 687  :         _Alty_traits::construct(_Getal(), _Unfancy(_Mylast), _STD forward<_Valty>(_Val)...);

  0001b	8b 45 08	 mov	 eax, DWORD PTR _<_Val_0>$[ebp]
  0001e	50		 push	 eax
  0001f	e8 00 00 00 00	 call	 ??$forward@ABUUSER_CONNECT_TIME@@@std@@YAABUUSER_CONNECT_TIME@@ABU1@@Z ; std::forward<USER_CONNECT_TIME const &>
  00024	83 c4 04	 add	 esp, 4
  00027	50		 push	 eax
  00028	8b 4d f4	 mov	 ecx, DWORD PTR __Mylast$[ebp]
  0002b	8b 11		 mov	 edx, DWORD PTR [ecx]
  0002d	52		 push	 edx
  0002e	e8 00 00 00 00	 call	 ??$_Unfancy@UUSER_CONNECT_TIME@@@std@@YAPAUUSER_CONNECT_TIME@@PAU1@@Z ; std::_Unfancy<USER_CONNECT_TIME>
  00033	83 c4 04	 add	 esp, 4
  00036	50		 push	 eax
  00037	8b 4d fc	 mov	 ecx, DWORD PTR _this$[ebp]
  0003a	e8 00 00 00 00	 call	 ?_Getal@?$vector@UUSER_CONNECT_TIME@@V?$allocator@UUSER_CONNECT_TIME@@@std@@@std@@AAEAAV?$allocator@UUSER_CONNECT_TIME@@@2@XZ ; std::vector<USER_CONNECT_TIME,std::allocator<USER_CONNECT_TIME> >::_Getal
  0003f	50		 push	 eax
  00040	e8 00 00 00 00	 call	 ??$construct@UUSER_CONNECT_TIME@@ABU1@@?$_Default_allocator_traits@V?$allocator@UUSER_CONNECT_TIME@@@std@@@std@@SAXAAV?$allocator@UUSER_CONNECT_TIME@@@1@QAUUSER_CONNECT_TIME@@ABU3@@Z ; std::_Default_allocator_traits<std::allocator<USER_CONNECT_TIME> >::construct<USER_CONNECT_TIME,USER_CONNECT_TIME const &>
  00045	83 c4 0c	 add	 esp, 12			; 0000000cH

; 688  :         _Orphan_range(_Mylast, _Mylast);

  00048	8b 45 f4	 mov	 eax, DWORD PTR __Mylast$[ebp]
  0004b	8b 08		 mov	 ecx, DWORD PTR [eax]
  0004d	51		 push	 ecx
  0004e	8b 55 f4	 mov	 edx, DWORD PTR __Mylast$[ebp]
  00051	8b 02		 mov	 eax, DWORD PTR [edx]
  00053	50		 push	 eax
  00054	8b 4d fc	 mov	 ecx, DWORD PTR _this$[ebp]
  00057	e8 00 00 00 00	 call	 ?_Orphan_range@?$vector@UUSER_CONNECT_TIME@@V?$allocator@UUSER_CONNECT_TIME@@@std@@@std@@ABEXPAUUSER_CONNECT_TIME@@0@Z ; std::vector<USER_CONNECT_TIME,std::allocator<USER_CONNECT_TIME> >::_Orphan_range

; 689  :         _Ty& _Result = *_Mylast;

  0005c	8b 45 f4	 mov	 eax, DWORD PTR __Mylast$[ebp]
  0005f	8b 08		 mov	 ecx, DWORD PTR [eax]
  00061	89 4d f0	 mov	 DWORD PTR __Result$[ebp], ecx

; 690  :         ++_Mylast;

  00064	8b 45 f4	 mov	 eax, DWORD PTR __Mylast$[ebp]
  00067	8b 08		 mov	 ecx, DWORD PTR [eax]
  00069	83 c1 24	 add	 ecx, 36			; 00000024H
  0006c	8b 55 f4	 mov	 edx, DWORD PTR __Mylast$[ebp]
  0006f	89 0a		 mov	 DWORD PTR [edx], ecx

; 691  : #if _HAS_CXX17
; 692  :         return _Result;
; 693  : #else // ^^^ _HAS_CXX17 ^^^ // vvv !_HAS_CXX17 vvv
; 694  :         (void) _Result;
; 695  : #endif // _HAS_CXX17
; 696  :     }

  00071	5f		 pop	 edi
  00072	5e		 pop	 esi
  00073	5b		 pop	 ebx
  00074	8b e5		 mov	 esp, ebp
  00076	5d		 pop	 ebp
  00077	c2 04 00	 ret	 4
??$_Emplace_back_with_unused_capacity@ABUUSER_CONNECT_TIME@@@?$vector@UUSER_CONNECT_TIME@@V?$allocator@UUSER_CONNECT_TIME@@@std@@@std@@AAE@ABUUSER_CONNECT_TIME@@@Z ENDP ; std::vector<USER_CONNECT_TIME,std::allocator<USER_CONNECT_TIME> >::_Emplace_back_with_unused_capacity<USER_CONNECT_TIME const &>
_TEXT	ENDS
; Function compile flags: /Odtp /ZI
; File C:\Program Files (x86)\Microsoft Visual Studio\2019\Community\VC\Tools\MSVC\14.27.29110\include\type_traits
;	COMDAT ??$forward@ABUUSER_CONNECT_TIME@@@std@@YAABUUSER_CONNECT_TIME@@ABU1@@Z
_TEXT	SEGMENT
__Arg$ = 8						; size = 4
??$forward@ABUUSER_CONNECT_TIME@@@std@@YAABUUSER_CONNECT_TIME@@ABU1@@Z PROC ; std::forward<USER_CONNECT_TIME const &>, COMDAT

; 1454 :     remove_reference_t<_Ty>& _Arg) noexcept { // forward an lvalue as either an lvalue or an rvalue

  00000	55		 push	 ebp
  00001	8b ec		 mov	 ebp, esp
  00003	83 ec 40	 sub	 esp, 64			; 00000040H
  00006	53		 push	 ebx
  00007	56		 push	 esi
  00008	57		 push	 edi

; 1455 :     return static_cast<_Ty&&>(_Arg);

  00009	8b 45 08	 mov	 eax, DWORD PTR __Arg$[ebp]

; 1456 : }

  0000c	5f		 pop	 edi
  0000d	5e		 pop	 esi
  0000e	5b		 pop	 ebx
  0000f	8b e5		 mov	 esp, ebp
  00011	5d		 pop	 ebp
  00012	c3		 ret	 0
??$forward@ABUUSER_CONNECT_TIME@@@std@@YAABUUSER_CONNECT_TIME@@ABU1@@Z ENDP ; std::forward<USER_CONNECT_TIME const &>
_TEXT	ENDS
; Function compile flags: /Odtp /ZI
; File C:\Program Files (x86)\Microsoft Visual Studio\2019\Community\VC\Tools\MSVC\14.27.29110\include\vector
;	COMDAT ??$emplace_back@ABUUSER_CONNECT_TIME@@@?$vector@UUSER_CONNECT_TIME@@V?$allocator@UUSER_CONNECT_TIME@@@std@@@std@@QAE@ABUUSER_CONNECT_TIME@@@Z
_TEXT	SEGMENT
__Result$ = -16						; size = 4
__Mylast$ = -12						; size = 4
__My_data$ = -8						; size = 4
_this$ = -4						; size = 4
_<_Val_0>$ = 8						; size = 4
??$emplace_back@ABUUSER_CONNECT_TIME@@@?$vector@UUSER_CONNECT_TIME@@V?$allocator@UUSER_CONNECT_TIME@@@std@@@std@@QAE@ABUUSER_CONNECT_TIME@@@Z PROC ; std::vector<USER_CONNECT_TIME,std::allocator<USER_CONNECT_TIME> >::emplace_back<USER_CONNECT_TIME const &>, COMDAT
; _this$ = ecx

; 700  :     decltype(auto) emplace_back(_Valty&&... _Val) {

  00000	55		 push	 ebp
  00001	8b ec		 mov	 ebp, esp
  00003	83 ec 50	 sub	 esp, 80			; 00000050H
  00006	53		 push	 ebx
  00007	56		 push	 esi
  00008	57		 push	 edi
  00009	89 4d fc	 mov	 DWORD PTR _this$[ebp], ecx

; 701  :         // insert by perfectly forwarding into element at end, provide strong guarantee
; 702  :         auto& _My_data   = _Mypair._Myval2;

  0000c	8b 45 fc	 mov	 eax, DWORD PTR _this$[ebp]
  0000f	89 45 f8	 mov	 DWORD PTR __My_data$[ebp], eax

; 703  :         pointer& _Mylast = _My_data._Mylast;

  00012	8b 45 f8	 mov	 eax, DWORD PTR __My_data$[ebp]
  00015	83 c0 04	 add	 eax, 4
  00018	89 45 f4	 mov	 DWORD PTR __Mylast$[ebp], eax

; 704  :         if (_Mylast != _My_data._Myend) {

  0001b	8b 45 f4	 mov	 eax, DWORD PTR __Mylast$[ebp]
  0001e	8b 4d f8	 mov	 ecx, DWORD PTR __My_data$[ebp]
  00021	8b 10		 mov	 edx, DWORD PTR [eax]
  00023	3b 51 08	 cmp	 edx, DWORD PTR [ecx+8]
  00026	74 17		 je	 SHORT $LN2@emplace_ba

; 705  :             return _Emplace_back_with_unused_capacity(_STD forward<_Valty>(_Val)...);

  00028	8b 45 08	 mov	 eax, DWORD PTR _<_Val_0>$[ebp]
  0002b	50		 push	 eax
  0002c	e8 00 00 00 00	 call	 ??$forward@ABUUSER_CONNECT_TIME@@@std@@YAABUUSER_CONNECT_TIME@@ABU1@@Z ; std::forward<USER_CONNECT_TIME const &>
  00031	83 c4 04	 add	 esp, 4
  00034	50		 push	 eax
  00035	8b 4d fc	 mov	 ecx, DWORD PTR _this$[ebp]
  00038	e8 00 00 00 00	 call	 ??$_Emplace_back_with_unused_capacity@ABUUSER_CONNECT_TIME@@@?$vector@UUSER_CONNECT_TIME@@V?$allocator@UUSER_CONNECT_TIME@@@std@@@std@@AAE@ABUUSER_CONNECT_TIME@@@Z ; std::vector<USER_CONNECT_TIME,std::allocator<USER_CONNECT_TIME> >::_Emplace_back_with_unused_capacity<USER_CONNECT_TIME const &>
  0003d	eb 1e		 jmp	 SHORT $LN1@emplace_ba
$LN2@emplace_ba:

; 706  :         }
; 707  : 
; 708  :         _Ty& _Result = *_Emplace_reallocate(_Mylast, _STD forward<_Valty>(_Val)...);

  0003f	8b 45 08	 mov	 eax, DWORD PTR _<_Val_0>$[ebp]
  00042	50		 push	 eax
  00043	e8 00 00 00 00	 call	 ??$forward@ABUUSER_CONNECT_TIME@@@std@@YAABUUSER_CONNECT_TIME@@ABU1@@Z ; std::forward<USER_CONNECT_TIME const &>
  00048	83 c4 04	 add	 esp, 4
  0004b	50		 push	 eax
  0004c	8b 4d f4	 mov	 ecx, DWORD PTR __Mylast$[ebp]
  0004f	8b 11		 mov	 edx, DWORD PTR [ecx]
  00051	52		 push	 edx
  00052	8b 4d fc	 mov	 ecx, DWORD PTR _this$[ebp]
  00055	e8 00 00 00 00	 call	 ??$_Emplace_reallocate@ABUUSER_CONNECT_TIME@@@?$vector@UUSER_CONNECT_TIME@@V?$allocator@UUSER_CONNECT_TIME@@@std@@@std@@QAEPAUUSER_CONNECT_TIME@@QAU2@ABU2@@Z ; std::vector<USER_CONNECT_TIME,std::allocator<USER_CONNECT_TIME> >::_Emplace_reallocate<USER_CONNECT_TIME const &>
  0005a	89 45 f0	 mov	 DWORD PTR __Result$[ebp], eax
$LN1@emplace_ba:

; 709  : #if _HAS_CXX17
; 710  :         return _Result;
; 711  : #else // ^^^ _HAS_CXX17 ^^^ // vvv !_HAS_CXX17 vvv
; 712  :         (void) _Result;
; 713  : #endif // _HAS_CXX17
; 714  :     }

  0005d	5f		 pop	 edi
  0005e	5e		 pop	 esi
  0005f	5b		 pop	 ebx
  00060	8b e5		 mov	 esp, ebp
  00062	5d		 pop	 ebp
  00063	c2 04 00	 ret	 4
??$emplace_back@ABUUSER_CONNECT_TIME@@@?$vector@UUSER_CONNECT_TIME@@V?$allocator@UUSER_CONNECT_TIME@@@std@@@std@@QAE@ABUUSER_CONNECT_TIME@@@Z ENDP ; std::vector<USER_CONNECT_TIME,std::allocator<USER_CONNECT_TIME> >::emplace_back<USER_CONNECT_TIME const &>
_TEXT	ENDS
; Function compile flags: /Odtp /ZI
; File C:\Program Files (x86)\Microsoft Visual Studio\2019\Community\VC\Tools\MSVC\14.27.29110\include\xmemory
;	COMDAT ??$destroy@UUSER_CONNECT_TIME@@@?$_Default_allocator_traits@V?$allocator@UUSER_CONNECT_TIME@@@std@@@std@@SAXAAV?$allocator@UUSER_CONNECT_TIME@@@1@QAUUSER_CONNECT_TIME@@@Z
_TEXT	SEGMENT
___formal$ = 8						; size = 4
__Ptr$ = 12						; size = 4
??$destroy@UUSER_CONNECT_TIME@@@?$_Default_allocator_traits@V?$allocator@UUSER_CONNECT_TIME@@@std@@@std@@SAXAAV?$allocator@UUSER_CONNECT_TIME@@@1@QAUUSER_CONNECT_TIME@@@Z PROC ; std::_Default_allocator_traits<std::allocator<USER_CONNECT_TIME> >::destroy<USER_CONNECT_TIME>, COMDAT

; 698  :     static void destroy(_Alloc&, _Uty* const _Ptr) {

  00000	55		 push	 ebp
  00001	8b ec		 mov	 ebp, esp
  00003	83 ec 40	 sub	 esp, 64			; 00000040H
  00006	53		 push	 ebx
  00007	56		 push	 esi
  00008	57		 push	 edi

; 699  :         _Ptr->~_Uty();
; 700  :     }

  00009	5f		 pop	 edi
  0000a	5e		 pop	 esi
  0000b	5b		 pop	 ebx
  0000c	8b e5		 mov	 esp, ebp
  0000e	5d		 pop	 ebp
  0000f	c3		 ret	 0
??$destroy@UUSER_CONNECT_TIME@@@?$_Default_allocator_traits@V?$allocator@UUSER_CONNECT_TIME@@@std@@@std@@SAXAAV?$allocator@UUSER_CONNECT_TIME@@@1@QAUUSER_CONNECT_TIME@@@Z ENDP ; std::_Default_allocator_traits<std::allocator<USER_CONNECT_TIME> >::destroy<USER_CONNECT_TIME>
_TEXT	ENDS
; Function compile flags: /Odtp /ZI
; File C:\Program Files (x86)\Microsoft Visual Studio\2019\Community\VC\Tools\MSVC\14.27.29110\include\xstddef
;	COMDAT ??$_Unfancy@UUSER_CONNECT_TIME@@@std@@YAPAUUSER_CONNECT_TIME@@PAU1@@Z
_TEXT	SEGMENT
__Ptr$ = 8						; size = 4
??$_Unfancy@UUSER_CONNECT_TIME@@@std@@YAPAUUSER_CONNECT_TIME@@PAU1@@Z PROC ; std::_Unfancy<USER_CONNECT_TIME>, COMDAT

; 288  : _NODISCARD constexpr _Ty* _Unfancy(_Ty* _Ptr) noexcept { // do nothing for plain pointers

  00000	55		 push	 ebp
  00001	8b ec		 mov	 ebp, esp
  00003	83 ec 40	 sub	 esp, 64			; 00000040H
  00006	53		 push	 ebx
  00007	56		 push	 esi
  00008	57		 push	 edi

; 289  :     return _Ptr;

  00009	8b 45 08	 mov	 eax, DWORD PTR __Ptr$[ebp]

; 290  : }

  0000c	5f		 pop	 edi
  0000d	5e		 pop	 esi
  0000e	5b		 pop	 ebx
  0000f	8b e5		 mov	 esp, ebp
  00011	5d		 pop	 ebp
  00012	c3		 ret	 0
??$_Unfancy@UUSER_CONNECT_TIME@@@std@@YAPAUUSER_CONNECT_TIME@@PAU1@@Z ENDP ; std::_Unfancy<USER_CONNECT_TIME>
_TEXT	ENDS
; Function compile flags: /Odtp /ZI
; File C:\Program Files (x86)\Microsoft Visual Studio\2019\Community\VC\Tools\MSVC\14.27.29110\include\xutility
;	COMDAT ??$_Move_unchecked@PAUUSER_CONNECT_TIME@@PAU1@@std@@YAPAUUSER_CONNECT_TIME@@PAU1@00@Z
_TEXT	SEGMENT
__First$ = 8						; size = 4
__Last$ = 12						; size = 4
__Dest$ = 16						; size = 4
??$_Move_unchecked@PAUUSER_CONNECT_TIME@@PAU1@@std@@YAPAUUSER_CONNECT_TIME@@PAU1@00@Z PROC ; std::_Move_unchecked<USER_CONNECT_TIME *,USER_CONNECT_TIME *>, COMDAT

; 4364 : _CONSTEXPR20 _OutIt _Move_unchecked(_InIt _First, _InIt _Last, _OutIt _Dest) {

  00000	55		 push	 ebp
  00001	8b ec		 mov	 ebp, esp
  00003	83 ec 40	 sub	 esp, 64			; 00000040H
  00006	53		 push	 ebx
  00007	56		 push	 esi
  00008	57		 push	 edi

; 4365 :     // move [_First, _Last) to [_Dest, ...)
; 4366 :     // note: _Move_unchecked has callers other than the move family
; 4367 :     if constexpr (_Ptr_move_cat<_InIt, _OutIt>::_Trivially_copyable) {
; 4368 : #ifdef __cpp_lib_is_constant_evaluated
; 4369 :         if (!_STD is_constant_evaluated())
; 4370 : #endif // __cpp_lib_is_constant_evaluated
; 4371 :         {
; 4372 :             return _Copy_memmove(_First, _Last, _Dest);

  00009	8b 45 10	 mov	 eax, DWORD PTR __Dest$[ebp]
  0000c	50		 push	 eax
  0000d	8b 4d 0c	 mov	 ecx, DWORD PTR __Last$[ebp]
  00010	51		 push	 ecx
  00011	8b 55 08	 mov	 edx, DWORD PTR __First$[ebp]
  00014	52		 push	 edx
  00015	e8 00 00 00 00	 call	 ??$_Copy_memmove@PAUUSER_CONNECT_TIME@@PAU1@@std@@YAPAUUSER_CONNECT_TIME@@PAU1@00@Z ; std::_Copy_memmove<USER_CONNECT_TIME *,USER_CONNECT_TIME *>
  0001a	83 c4 0c	 add	 esp, 12			; 0000000cH
  0001d	eb 39		 jmp	 SHORT $LN1@Move_unche

; 4373 :         }
; 4374 :     }
; 4375 : 
; 4376 :     for (; _First != _Last; ++_Dest, (void) ++_First) {

  0001f	eb 12		 jmp	 SHORT $LN4@Move_unche
$LN2@Move_unche:
  00021	8b 45 10	 mov	 eax, DWORD PTR __Dest$[ebp]
  00024	83 c0 24	 add	 eax, 36			; 00000024H
  00027	89 45 10	 mov	 DWORD PTR __Dest$[ebp], eax
  0002a	8b 4d 08	 mov	 ecx, DWORD PTR __First$[ebp]
  0002d	83 c1 24	 add	 ecx, 36			; 00000024H
  00030	89 4d 08	 mov	 DWORD PTR __First$[ebp], ecx
$LN4@Move_unche:
  00033	8b 45 08	 mov	 eax, DWORD PTR __First$[ebp]
  00036	3b 45 0c	 cmp	 eax, DWORD PTR __Last$[ebp]
  00039	74 1a		 je	 SHORT $LN3@Move_unche

; 4377 :         *_Dest = _STD move(*_First);

  0003b	8b 45 08	 mov	 eax, DWORD PTR __First$[ebp]
  0003e	50		 push	 eax
  0003f	e8 00 00 00 00	 call	 ??$move@AAUUSER_CONNECT_TIME@@@std@@YA$$QAUUSER_CONNECT_TIME@@AAU1@@Z ; std::move<USER_CONNECT_TIME &>
  00044	83 c4 04	 add	 esp, 4
  00047	b9 09 00 00 00	 mov	 ecx, 9
  0004c	8b f0		 mov	 esi, eax
  0004e	8b 7d 10	 mov	 edi, DWORD PTR __Dest$[ebp]
  00051	f3 a5		 rep movsd

; 4378 :     }

  00053	eb cc		 jmp	 SHORT $LN2@Move_unche
$LN3@Move_unche:

; 4379 : 
; 4380 :     return _Dest;

  00055	8b 45 10	 mov	 eax, DWORD PTR __Dest$[ebp]
$LN1@Move_unche:

; 4381 : }

  00058	5f		 pop	 edi
  00059	5e		 pop	 esi
  0005a	5b		 pop	 ebx
  0005b	8b e5		 mov	 esp, ebp
  0005d	5d		 pop	 ebp
  0005e	c3		 ret	 0
??$_Move_unchecked@PAUUSER_CONNECT_TIME@@PAU1@@std@@YAPAUUSER_CONNECT_TIME@@PAU1@00@Z ENDP ; std::_Move_unchecked<USER_CONNECT_TIME *,USER_CONNECT_TIME *>
_TEXT	ENDS
; Function compile flags: /Odtp /ZI
; File C:\Program Files (x86)\Microsoft Visual Studio\2019\Community\VC\Tools\MSVC\14.27.29110\include\xstddef
;	COMDAT ??$addressof@V?$_Vector_val@U?$_Simple_types@UUSER_CONNECT_TIME@@@std@@@std@@@std@@YAPAV?$_Vector_val@U?$_Simple_types@UUSER_CONNECT_TIME@@@std@@@0@AAV10@@Z
_TEXT	SEGMENT
__Val$ = 8						; size = 4
??$addressof@V?$_Vector_val@U?$_Simple_types@UUSER_CONNECT_TIME@@@std@@@std@@@std@@YAPAV?$_Vector_val@U?$_Simple_types@UUSER_CONNECT_TIME@@@std@@@0@AAV10@@Z PROC ; std::addressof<std::_Vector_val<std::_Simple_types<USER_CONNECT_TIME> > >, COMDAT

; 274  : _NODISCARD constexpr _Ty* addressof(_Ty& _Val) noexcept {

  00000	55		 push	 ebp
  00001	8b ec		 mov	 ebp, esp
  00003	83 ec 40	 sub	 esp, 64			; 00000040H
  00006	53		 push	 ebx
  00007	56		 push	 esi
  00008	57		 push	 edi

; 275  :     return __builtin_addressof(_Val);

  00009	8b 45 08	 mov	 eax, DWORD PTR __Val$[ebp]

; 276  : }

  0000c	5f		 pop	 edi
  0000d	5e		 pop	 esi
  0000e	5b		 pop	 ebx
  0000f	8b e5		 mov	 esp, ebp
  00011	5d		 pop	 ebp
  00012	c3		 ret	 0
??$addressof@V?$_Vector_val@U?$_Simple_types@UUSER_CONNECT_TIME@@@std@@@std@@@std@@YAPAV?$_Vector_val@U?$_Simple_types@UUSER_CONNECT_TIME@@@std@@@0@AAV10@@Z ENDP ; std::addressof<std::_Vector_val<std::_Simple_types<USER_CONNECT_TIME> > >
_TEXT	ENDS
; Function compile flags: /Odtp /ZI
; File C:\Program Files (x86)\Microsoft Visual Studio\2019\Community\VC\Tools\MSVC\14.27.29110\include\xmemory
;	COMDAT ??$?0$$V@?$_Compressed_pair@V?$allocator@UIP_BLOCK@@@std@@V?$_Vector_val@U?$_Simple_types@UIP_BLOCK@@@std@@@2@$00@std@@QAE@U_Zero_then_variadic_args_t@1@@Z
_TEXT	SEGMENT
_this$ = -4						; size = 4
___formal$ = 8						; size = 1
??$?0$$V@?$_Compressed_pair@V?$allocator@UIP_BLOCK@@@std@@V?$_Vector_val@U?$_Simple_types@UIP_BLOCK@@@std@@@2@$00@std@@QAE@U_Zero_then_variadic_args_t@1@@Z PROC ; std::_Compressed_pair<std::allocator<IP_BLOCK>,std::_Vector_val<std::_Simple_types<IP_BLOCK> >,1>::_Compressed_pair<std::allocator<IP_BLOCK>,std::_Vector_val<std::_Simple_types<IP_BLOCK> >,1><>, COMDAT
; _this$ = ecx

; 1336 :         : _Ty1(), _Myval2(_STD forward<_Other2>(_Val2)...) {}

  00000	55		 push	 ebp
  00001	8b ec		 mov	 ebp, esp
  00003	83 ec 44	 sub	 esp, 68			; 00000044H
  00006	53		 push	 ebx
  00007	56		 push	 esi
  00008	57		 push	 edi
  00009	89 4d fc	 mov	 DWORD PTR _this$[ebp], ecx
  0000c	8b 4d fc	 mov	 ecx, DWORD PTR _this$[ebp]
  0000f	e8 00 00 00 00	 call	 ??0?$allocator@UIP_BLOCK@@@std@@QAE@XZ ; std::allocator<IP_BLOCK>::allocator<IP_BLOCK>
  00014	8b 4d fc	 mov	 ecx, DWORD PTR _this$[ebp]
  00017	e8 00 00 00 00	 call	 ??0?$_Vector_val@U?$_Simple_types@UIP_BLOCK@@@std@@@std@@QAE@XZ ; std::_Vector_val<std::_Simple_types<IP_BLOCK> >::_Vector_val<std::_Simple_types<IP_BLOCK> >
  0001c	8b 45 fc	 mov	 eax, DWORD PTR _this$[ebp]
  0001f	5f		 pop	 edi
  00020	5e		 pop	 esi
  00021	5b		 pop	 ebx
  00022	8b e5		 mov	 esp, ebp
  00024	5d		 pop	 ebp
  00025	c2 04 00	 ret	 4
??$?0$$V@?$_Compressed_pair@V?$allocator@UIP_BLOCK@@@std@@V?$_Vector_val@U?$_Simple_types@UIP_BLOCK@@@std@@@2@$00@std@@QAE@U_Zero_then_variadic_args_t@1@@Z ENDP ; std::_Compressed_pair<std::allocator<IP_BLOCK>,std::_Vector_val<std::_Simple_types<IP_BLOCK> >,1>::_Compressed_pair<std::allocator<IP_BLOCK>,std::_Vector_val<std::_Simple_types<IP_BLOCK> >,1><>
_TEXT	ENDS
; Function compile flags: /Odtp /ZI
; File C:\Program Files (x86)\Microsoft Visual Studio\2019\Community\VC\Tools\MSVC\14.27.29110\include\vector
;	COMDAT ??$_Emplace_reallocate@ABUIP_BLOCK@@@?$vector@UIP_BLOCK@@V?$allocator@UIP_BLOCK@@@std@@@std@@QAEPAUIP_BLOCK@@QAU2@ABU2@@Z
_TEXT	SEGMENT
__Constructed_first$ = -64				; size = 4
__Constructed_last$ = -60				; size = 4
__Newvec$ = -56						; size = 4
__Newcapacity$ = -52					; size = 4
__Newsize$ = -48					; size = 4
__Oldsize$ = -44					; size = 4
__Whereoff$ = -40					; size = 4
__Mylast$ = -36						; size = 4
__Myfirst$ = -32					; size = 4
__My_data$ = -28					; size = 4
__Al$ = -24						; size = 4
_this$ = -20						; size = 4
__$EHRec$ = -16						; size = 16
__Whereptr$ = 8						; size = 4
_<_Val_0>$ = 12						; size = 4
??$_Emplace_reallocate@ABUIP_BLOCK@@@?$vector@UIP_BLOCK@@V?$allocator@UIP_BLOCK@@@std@@@std@@QAEPAUIP_BLOCK@@QAU2@ABU2@@Z PROC ; std::vector<IP_BLOCK,std::allocator<IP_BLOCK> >::_Emplace_reallocate<IP_BLOCK const &>, COMDAT
; _this$ = ecx

; 725  :     pointer _Emplace_reallocate(const pointer _Whereptr, _Valty&&... _Val) {

  00000	55		 push	 ebp
  00001	8b ec		 mov	 ebp, esp
  00003	6a ff		 push	 -1
  00005	68 00 00 00 00	 push	 __ehhandler$??$_Emplace_reallocate@ABUIP_BLOCK@@@?$vector@UIP_BLOCK@@V?$allocator@UIP_BLOCK@@@std@@@std@@QAEPAUIP_BLOCK@@QAU2@ABU2@@Z
  0000a	64 a1 00 00 00
	00		 mov	 eax, DWORD PTR fs:0
  00010	50		 push	 eax
  00011	51		 push	 ecx
  00012	83 ec 70	 sub	 esp, 112		; 00000070H
  00015	53		 push	 ebx
  00016	56		 push	 esi
  00017	57		 push	 edi
  00018	a1 00 00 00 00	 mov	 eax, DWORD PTR ___security_cookie
  0001d	33 c5		 xor	 eax, ebp
  0001f	50		 push	 eax
  00020	8d 45 f4	 lea	 eax, DWORD PTR __$EHRec$[ebp+4]
  00023	64 a3 00 00 00
	00		 mov	 DWORD PTR fs:0, eax
  00029	89 65 f0	 mov	 DWORD PTR __$EHRec$[ebp], esp
  0002c	89 4d ec	 mov	 DWORD PTR _this$[ebp], ecx

; 726  :         // reallocate and insert by perfectly forwarding _Val at _Whereptr
; 727  :         _Alty& _Al        = _Getal();

  0002f	8b 4d ec	 mov	 ecx, DWORD PTR _this$[ebp]
  00032	e8 00 00 00 00	 call	 ?_Getal@?$vector@UIP_BLOCK@@V?$allocator@UIP_BLOCK@@@std@@@std@@AAEAAV?$allocator@UIP_BLOCK@@@2@XZ ; std::vector<IP_BLOCK,std::allocator<IP_BLOCK> >::_Getal
  00037	89 45 e8	 mov	 DWORD PTR __Al$[ebp], eax

; 728  :         auto& _My_data    = _Mypair._Myval2;

  0003a	8b 45 ec	 mov	 eax, DWORD PTR _this$[ebp]
  0003d	89 45 e4	 mov	 DWORD PTR __My_data$[ebp], eax

; 729  :         pointer& _Myfirst = _My_data._Myfirst;

  00040	8b 45 e4	 mov	 eax, DWORD PTR __My_data$[ebp]
  00043	89 45 e0	 mov	 DWORD PTR __Myfirst$[ebp], eax

; 730  :         pointer& _Mylast  = _My_data._Mylast;

  00046	8b 45 e4	 mov	 eax, DWORD PTR __My_data$[ebp]
  00049	83 c0 04	 add	 eax, 4
  0004c	89 45 dc	 mov	 DWORD PTR __Mylast$[ebp], eax

; 731  : 
; 732  :         _STL_INTERNAL_CHECK(_Mylast == _My_data._Myend); // check that we have no unused capacity
; 733  : 
; 734  :         const auto _Whereoff = static_cast<size_type>(_Whereptr - _Myfirst);

  0004f	8b 45 e0	 mov	 eax, DWORD PTR __Myfirst$[ebp]
  00052	8b 4d 08	 mov	 ecx, DWORD PTR __Whereptr$[ebp]
  00055	2b 08		 sub	 ecx, DWORD PTR [eax]
  00057	c1 f9 05	 sar	 ecx, 5
  0005a	89 4d d8	 mov	 DWORD PTR __Whereoff$[ebp], ecx

; 735  :         const auto _Oldsize  = static_cast<size_type>(_Mylast - _Myfirst);

  0005d	8b 45 dc	 mov	 eax, DWORD PTR __Mylast$[ebp]
  00060	8b 4d e0	 mov	 ecx, DWORD PTR __Myfirst$[ebp]
  00063	8b 10		 mov	 edx, DWORD PTR [eax]
  00065	2b 11		 sub	 edx, DWORD PTR [ecx]
  00067	c1 fa 05	 sar	 edx, 5
  0006a	89 55 d4	 mov	 DWORD PTR __Oldsize$[ebp], edx

; 736  : 
; 737  :         if (_Oldsize == max_size()) {

  0006d	8b 4d ec	 mov	 ecx, DWORD PTR _this$[ebp]
  00070	e8 00 00 00 00	 call	 ?max_size@?$vector@UIP_BLOCK@@V?$allocator@UIP_BLOCK@@@std@@@std@@QBEIXZ ; std::vector<IP_BLOCK,std::allocator<IP_BLOCK> >::max_size
  00075	39 45 d4	 cmp	 DWORD PTR __Oldsize$[ebp], eax
  00078	75 05		 jne	 SHORT $LN2@Emplace_re

; 738  :             _Xlength();

  0007a	e8 00 00 00 00	 call	 ?_Xlength@?$vector@UIP_BLOCK@@V?$allocator@UIP_BLOCK@@@std@@@std@@CAXXZ ; std::vector<IP_BLOCK,std::allocator<IP_BLOCK> >::_Xlength
$LN2@Emplace_re:

; 739  :         }
; 740  : 
; 741  :         const size_type _Newsize     = _Oldsize + 1;

  0007f	8b 45 d4	 mov	 eax, DWORD PTR __Oldsize$[ebp]
  00082	83 c0 01	 add	 eax, 1
  00085	89 45 d0	 mov	 DWORD PTR __Newsize$[ebp], eax

; 742  :         const size_type _Newcapacity = _Calculate_growth(_Newsize);

  00088	8b 45 d0	 mov	 eax, DWORD PTR __Newsize$[ebp]
  0008b	50		 push	 eax
  0008c	8b 4d ec	 mov	 ecx, DWORD PTR _this$[ebp]
  0008f	e8 00 00 00 00	 call	 ?_Calculate_growth@?$vector@UIP_BLOCK@@V?$allocator@UIP_BLOCK@@@std@@@std@@ABEII@Z ; std::vector<IP_BLOCK,std::allocator<IP_BLOCK> >::_Calculate_growth
  00094	89 45 cc	 mov	 DWORD PTR __Newcapacity$[ebp], eax

; 743  : 
; 744  :         const pointer _Newvec           = _Al.allocate(_Newcapacity);

  00097	8b 45 cc	 mov	 eax, DWORD PTR __Newcapacity$[ebp]
  0009a	50		 push	 eax
  0009b	8b 4d e8	 mov	 ecx, DWORD PTR __Al$[ebp]
  0009e	e8 00 00 00 00	 call	 ?allocate@?$allocator@UIP_BLOCK@@@std@@QAEPAUIP_BLOCK@@I@Z ; std::allocator<IP_BLOCK>::allocate
  000a3	89 45 c8	 mov	 DWORD PTR __Newvec$[ebp], eax

; 745  :         const pointer _Constructed_last = _Newvec + _Whereoff + 1;

  000a6	8b 45 d8	 mov	 eax, DWORD PTR __Whereoff$[ebp]
  000a9	c1 e0 05	 shl	 eax, 5
  000ac	8b 4d c8	 mov	 ecx, DWORD PTR __Newvec$[ebp]
  000af	8d 54 01 20	 lea	 edx, DWORD PTR [ecx+eax+32]
  000b3	89 55 c4	 mov	 DWORD PTR __Constructed_last$[ebp], edx

; 746  :         pointer _Constructed_first      = _Constructed_last;

  000b6	8b 45 c4	 mov	 eax, DWORD PTR __Constructed_last$[ebp]
  000b9	89 45 c0	 mov	 DWORD PTR __Constructed_first$[ebp], eax

; 747  : 
; 748  :         _TRY_BEGIN

  000bc	c7 45 fc 00 00
	00 00		 mov	 DWORD PTR __$EHRec$[ebp+12], 0

; 749  :         _Alty_traits::construct(_Al, _Unfancy(_Newvec + _Whereoff), _STD forward<_Valty>(_Val)...);

  000c3	8b 45 0c	 mov	 eax, DWORD PTR _<_Val_0>$[ebp]
  000c6	50		 push	 eax
  000c7	e8 00 00 00 00	 call	 ??$forward@ABUIP_BLOCK@@@std@@YAABUIP_BLOCK@@ABU1@@Z ; std::forward<IP_BLOCK const &>
  000cc	83 c4 04	 add	 esp, 4
  000cf	50		 push	 eax
  000d0	8b 4d d8	 mov	 ecx, DWORD PTR __Whereoff$[ebp]
  000d3	c1 e1 05	 shl	 ecx, 5
  000d6	03 4d c8	 add	 ecx, DWORD PTR __Newvec$[ebp]
  000d9	51		 push	 ecx
  000da	e8 00 00 00 00	 call	 ??$_Unfancy@UIP_BLOCK@@@std@@YAPAUIP_BLOCK@@PAU1@@Z ; std::_Unfancy<IP_BLOCK>
  000df	83 c4 04	 add	 esp, 4
  000e2	50		 push	 eax
  000e3	8b 55 e8	 mov	 edx, DWORD PTR __Al$[ebp]
  000e6	52		 push	 edx
  000e7	e8 00 00 00 00	 call	 ??$construct@UIP_BLOCK@@ABU1@@?$_Default_allocator_traits@V?$allocator@UIP_BLOCK@@@std@@@std@@SAXAAV?$allocator@UIP_BLOCK@@@1@QAUIP_BLOCK@@ABU3@@Z ; std::_Default_allocator_traits<std::allocator<IP_BLOCK> >::construct<IP_BLOCK,IP_BLOCK const &>
  000ec	83 c4 0c	 add	 esp, 12			; 0000000cH

; 750  :         _Constructed_first = _Newvec + _Whereoff;

  000ef	8b 45 d8	 mov	 eax, DWORD PTR __Whereoff$[ebp]
  000f2	c1 e0 05	 shl	 eax, 5
  000f5	03 45 c8	 add	 eax, DWORD PTR __Newvec$[ebp]
  000f8	89 45 c0	 mov	 DWORD PTR __Constructed_first$[ebp], eax

; 751  : 
; 752  :         if (_Whereptr == _Mylast) { // at back, provide strong guarantee

  000fb	8b 45 dc	 mov	 eax, DWORD PTR __Mylast$[ebp]
  000fe	8b 4d 08	 mov	 ecx, DWORD PTR __Whereptr$[ebp]
  00101	3b 08		 cmp	 ecx, DWORD PTR [eax]
  00103	75 1a		 jne	 SHORT $LN4@Emplace_re

; 753  :             _Umove_if_noexcept(_Myfirst, _Mylast, _Newvec);

  00105	8b 45 c8	 mov	 eax, DWORD PTR __Newvec$[ebp]
  00108	50		 push	 eax
  00109	8b 4d dc	 mov	 ecx, DWORD PTR __Mylast$[ebp]
  0010c	8b 11		 mov	 edx, DWORD PTR [ecx]
  0010e	52		 push	 edx
  0010f	8b 45 e0	 mov	 eax, DWORD PTR __Myfirst$[ebp]
  00112	8b 08		 mov	 ecx, DWORD PTR [eax]
  00114	51		 push	 ecx
  00115	8b 4d ec	 mov	 ecx, DWORD PTR _this$[ebp]
  00118	e8 00 00 00 00	 call	 ?_Umove_if_noexcept@?$vector@UIP_BLOCK@@V?$allocator@UIP_BLOCK@@@std@@@std@@AAEXPAUIP_BLOCK@@00@Z ; std::vector<IP_BLOCK,std::allocator<IP_BLOCK> >::_Umove_if_noexcept

; 754  :         } else { // provide basic guarantee

  0011d	eb 3c		 jmp	 SHORT $LN5@Emplace_re
$LN4@Emplace_re:

; 755  :             _Umove(_Myfirst, _Whereptr, _Newvec);

  0011f	8b 45 c8	 mov	 eax, DWORD PTR __Newvec$[ebp]
  00122	50		 push	 eax
  00123	8b 4d 08	 mov	 ecx, DWORD PTR __Whereptr$[ebp]
  00126	51		 push	 ecx
  00127	8b 55 e0	 mov	 edx, DWORD PTR __Myfirst$[ebp]
  0012a	8b 02		 mov	 eax, DWORD PTR [edx]
  0012c	50		 push	 eax
  0012d	8b 4d ec	 mov	 ecx, DWORD PTR _this$[ebp]
  00130	e8 00 00 00 00	 call	 ?_Umove@?$vector@UIP_BLOCK@@V?$allocator@UIP_BLOCK@@@std@@@std@@AAEPAUIP_BLOCK@@PAU3@00@Z ; std::vector<IP_BLOCK,std::allocator<IP_BLOCK> >::_Umove

; 756  :             _Constructed_first = _Newvec;

  00135	8b 45 c8	 mov	 eax, DWORD PTR __Newvec$[ebp]
  00138	89 45 c0	 mov	 DWORD PTR __Constructed_first$[ebp], eax

; 757  :             _Umove(_Whereptr, _Mylast, _Newvec + _Whereoff + 1);

  0013b	8b 45 d8	 mov	 eax, DWORD PTR __Whereoff$[ebp]
  0013e	c1 e0 05	 shl	 eax, 5
  00141	8b 4d c8	 mov	 ecx, DWORD PTR __Newvec$[ebp]
  00144	8d 54 01 20	 lea	 edx, DWORD PTR [ecx+eax+32]
  00148	52		 push	 edx
  00149	8b 45 dc	 mov	 eax, DWORD PTR __Mylast$[ebp]
  0014c	8b 08		 mov	 ecx, DWORD PTR [eax]
  0014e	51		 push	 ecx
  0014f	8b 55 08	 mov	 edx, DWORD PTR __Whereptr$[ebp]
  00152	52		 push	 edx
  00153	8b 4d ec	 mov	 ecx, DWORD PTR _this$[ebp]
  00156	e8 00 00 00 00	 call	 ?_Umove@?$vector@UIP_BLOCK@@V?$allocator@UIP_BLOCK@@@std@@@std@@AAEPAUIP_BLOCK@@PAU3@00@Z ; std::vector<IP_BLOCK,std::allocator<IP_BLOCK> >::_Umove
$LN5@Emplace_re:
  0015b	eb 2f		 jmp	 SHORT $LN7@Emplace_re
__catch$??$_Emplace_reallocate@ABUIP_BLOCK@@@?$vector@UIP_BLOCK@@V?$allocator@UIP_BLOCK@@@std@@@std@@QAEPAUIP_BLOCK@@QAU2@ABU2@@Z$0:

; 758  :         }
; 759  :         _CATCH_ALL
; 760  :         _Destroy(_Constructed_first, _Constructed_last);

  0015d	8b 45 c4	 mov	 eax, DWORD PTR __Constructed_last$[ebp]
  00160	50		 push	 eax
  00161	8b 4d c0	 mov	 ecx, DWORD PTR __Constructed_first$[ebp]
  00164	51		 push	 ecx
  00165	8b 4d ec	 mov	 ecx, DWORD PTR _this$[ebp]
  00168	e8 00 00 00 00	 call	 ?_Destroy@?$vector@UIP_BLOCK@@V?$allocator@UIP_BLOCK@@@std@@@std@@AAEXPAUIP_BLOCK@@0@Z ; std::vector<IP_BLOCK,std::allocator<IP_BLOCK> >::_Destroy

; 761  :         _Al.deallocate(_Newvec, _Newcapacity);

  0016d	8b 45 cc	 mov	 eax, DWORD PTR __Newcapacity$[ebp]
  00170	50		 push	 eax
  00171	8b 4d c8	 mov	 ecx, DWORD PTR __Newvec$[ebp]
  00174	51		 push	 ecx
  00175	8b 4d e8	 mov	 ecx, DWORD PTR __Al$[ebp]
  00178	e8 00 00 00 00	 call	 ?deallocate@?$allocator@UIP_BLOCK@@@std@@QAEXQAUIP_BLOCK@@I@Z ; std::allocator<IP_BLOCK>::deallocate

; 762  :         _RERAISE;

  0017d	6a 00		 push	 0
  0017f	6a 00		 push	 0
  00181	e8 00 00 00 00	 call	 __CxxThrowException@8

; 763  :         _CATCH_END

  00186	b8 00 00 00 00	 mov	 eax, $LN10@Emplace_re
  0018b	c3		 ret	 0
$LN7@Emplace_re:
  0018c	c7 45 fc ff ff
	ff ff		 mov	 DWORD PTR __$EHRec$[ebp+12], -1
  00193	eb 07		 jmp	 SHORT __tryend$??$_Emplace_reallocate@ABUIP_BLOCK@@@?$vector@UIP_BLOCK@@V?$allocator@UIP_BLOCK@@@std@@@std@@QAEPAUIP_BLOCK@@QAU2@ABU2@@Z$1
$LN10@Emplace_re:
  00195	c7 45 fc ff ff
	ff ff		 mov	 DWORD PTR __$EHRec$[ebp+12], -1
__tryend$??$_Emplace_reallocate@ABUIP_BLOCK@@@?$vector@UIP_BLOCK@@V?$allocator@UIP_BLOCK@@@std@@@std@@QAEPAUIP_BLOCK@@QAU2@ABU2@@Z$1:

; 764  : 
; 765  :         _Change_array(_Newvec, _Newsize, _Newcapacity);

  0019c	8b 45 cc	 mov	 eax, DWORD PTR __Newcapacity$[ebp]
  0019f	50		 push	 eax
  001a0	8b 4d d0	 mov	 ecx, DWORD PTR __Newsize$[ebp]
  001a3	51		 push	 ecx
  001a4	8b 55 c8	 mov	 edx, DWORD PTR __Newvec$[ebp]
  001a7	52		 push	 edx
  001a8	8b 4d ec	 mov	 ecx, DWORD PTR _this$[ebp]
  001ab	e8 00 00 00 00	 call	 ?_Change_array@?$vector@UIP_BLOCK@@V?$allocator@UIP_BLOCK@@@std@@@std@@AAEXQAUIP_BLOCK@@II@Z ; std::vector<IP_BLOCK,std::allocator<IP_BLOCK> >::_Change_array

; 766  :         return _Newvec + _Whereoff;

  001b0	8b 45 d8	 mov	 eax, DWORD PTR __Whereoff$[ebp]
  001b3	c1 e0 05	 shl	 eax, 5
  001b6	03 45 c8	 add	 eax, DWORD PTR __Newvec$[ebp]
$LN6@Emplace_re:

; 767  :     }

  001b9	8b 4d f4	 mov	 ecx, DWORD PTR __$EHRec$[ebp+4]
  001bc	64 89 0d 00 00
	00 00		 mov	 DWORD PTR fs:0, ecx
  001c3	59		 pop	 ecx
  001c4	5f		 pop	 edi
  001c5	5e		 pop	 esi
  001c6	5b		 pop	 ebx
  001c7	8b e5		 mov	 esp, ebp
  001c9	5d		 pop	 ebp
  001ca	c2 08 00	 ret	 8
  001cd	cc		 int	 3
  001ce	cc		 int	 3
  001cf	cc		 int	 3
  001d0	cc		 int	 3
  001d1	cc		 int	 3
_TEXT	ENDS
;	COMDAT text$x
text$x	SEGMENT
__ehhandler$??$_Emplace_reallocate@ABUIP_BLOCK@@@?$vector@UIP_BLOCK@@V?$allocator@UIP_BLOCK@@@std@@@std@@QAEPAUIP_BLOCK@@QAU2@ABU2@@Z:
  00000	90		 npad	 1
  00001	90		 npad	 1
  00002	8b 54 24 08	 mov	 edx, DWORD PTR [esp+8]
  00006	8d 42 0c	 lea	 eax, DWORD PTR [edx+12]
  00009	8b 8a 7c ff ff
	ff		 mov	 ecx, DWORD PTR [edx-132]
  0000f	33 c8		 xor	 ecx, eax
  00011	e8 00 00 00 00	 call	 @__security_check_cookie@4
  00016	b8 00 00 00 00	 mov	 eax, OFFSET __ehfuncinfo$??$_Emplace_reallocate@ABUIP_BLOCK@@@?$vector@UIP_BLOCK@@V?$allocator@UIP_BLOCK@@@std@@@std@@QAEPAUIP_BLOCK@@QAU2@ABU2@@Z
  0001b	e9 00 00 00 00	 jmp	 ___CxxFrameHandler3
text$x	ENDS
??$_Emplace_reallocate@ABUIP_BLOCK@@@?$vector@UIP_BLOCK@@V?$allocator@UIP_BLOCK@@@std@@@std@@QAEPAUIP_BLOCK@@QAU2@ABU2@@Z ENDP ; std::vector<IP_BLOCK,std::allocator<IP_BLOCK> >::_Emplace_reallocate<IP_BLOCK const &>
; Function compile flags: /Odtp /ZI
; File C:\Program Files (x86)\Microsoft Visual Studio\2019\Community\VC\Tools\MSVC\14.27.29110\include\xmemory
;	COMDAT ??$construct@UIP_BLOCK@@ABU1@@?$_Default_allocator_traits@V?$allocator@UIP_BLOCK@@@std@@@std@@SAXAAV?$allocator@UIP_BLOCK@@@1@QAUIP_BLOCK@@ABU3@@Z
_TEXT	SEGMENT
$T1 = -68						; size = 4
___formal$ = 8						; size = 4
__Ptr$ = 12						; size = 4
_<_Args_0>$ = 16					; size = 4
??$construct@UIP_BLOCK@@ABU1@@?$_Default_allocator_traits@V?$allocator@UIP_BLOCK@@@std@@@std@@SAXAAV?$allocator@UIP_BLOCK@@@1@QAUIP_BLOCK@@ABU3@@Z PROC ; std::_Default_allocator_traits<std::allocator<IP_BLOCK> >::construct<IP_BLOCK,IP_BLOCK const &>, COMDAT

; 693  :     static void construct(_Alloc&, _Objty* const _Ptr, _Types&&... _Args) {

  00000	55		 push	 ebp
  00001	8b ec		 mov	 ebp, esp
  00003	83 ec 44	 sub	 esp, 68			; 00000044H
  00006	53		 push	 ebx
  00007	56		 push	 esi
  00008	57		 push	 edi

; 694  :         ::new (const_cast<void*>(static_cast<const volatile void*>(_Ptr))) _Objty(_STD forward<_Types>(_Args)...);

  00009	8b 45 0c	 mov	 eax, DWORD PTR __Ptr$[ebp]
  0000c	50		 push	 eax
  0000d	6a 20		 push	 32			; 00000020H
  0000f	e8 00 00 00 00	 call	 ??2@YAPAXIPAX@Z		; operator new
  00014	83 c4 08	 add	 esp, 8
  00017	89 45 bc	 mov	 DWORD PTR $T1[ebp], eax
  0001a	8b 4d 10	 mov	 ecx, DWORD PTR _<_Args_0>$[ebp]
  0001d	51		 push	 ecx
  0001e	e8 00 00 00 00	 call	 ??$forward@ABUIP_BLOCK@@@std@@YAABUIP_BLOCK@@ABU1@@Z ; std::forward<IP_BLOCK const &>
  00023	83 c4 04	 add	 esp, 4
  00026	b9 08 00 00 00	 mov	 ecx, 8
  0002b	8b f0		 mov	 esi, eax
  0002d	8b 7d bc	 mov	 edi, DWORD PTR $T1[ebp]
  00030	f3 a5		 rep movsd

; 695  :     }

  00032	5f		 pop	 edi
  00033	5e		 pop	 esi
  00034	5b		 pop	 ebx
  00035	8b e5		 mov	 esp, ebp
  00037	5d		 pop	 ebp
  00038	c3		 ret	 0
??$construct@UIP_BLOCK@@ABU1@@?$_Default_allocator_traits@V?$allocator@UIP_BLOCK@@@std@@@std@@SAXAAV?$allocator@UIP_BLOCK@@@1@QAUIP_BLOCK@@ABU3@@Z ENDP ; std::_Default_allocator_traits<std::allocator<IP_BLOCK> >::construct<IP_BLOCK,IP_BLOCK const &>
_TEXT	ENDS
; Function compile flags: /Odtp /ZI
; File C:\Program Files (x86)\Microsoft Visual Studio\2019\Community\VC\Tools\MSVC\14.27.29110\include\vector
;	COMDAT ??$_Emplace_back_with_unused_capacity@ABUIP_BLOCK@@@?$vector@UIP_BLOCK@@V?$allocator@UIP_BLOCK@@@std@@@std@@AAE@ABUIP_BLOCK@@@Z
_TEXT	SEGMENT
__Result$ = -16						; size = 4
__Mylast$ = -12						; size = 4
__My_data$ = -8						; size = 4
_this$ = -4						; size = 4
_<_Val_0>$ = 8						; size = 4
??$_Emplace_back_with_unused_capacity@ABUIP_BLOCK@@@?$vector@UIP_BLOCK@@V?$allocator@UIP_BLOCK@@@std@@@std@@AAE@ABUIP_BLOCK@@@Z PROC ; std::vector<IP_BLOCK,std::allocator<IP_BLOCK> >::_Emplace_back_with_unused_capacity<IP_BLOCK const &>, COMDAT
; _this$ = ecx

; 682  :     decltype(auto) _Emplace_back_with_unused_capacity(_Valty&&... _Val) {

  00000	55		 push	 ebp
  00001	8b ec		 mov	 ebp, esp
  00003	83 ec 50	 sub	 esp, 80			; 00000050H
  00006	53		 push	 ebx
  00007	56		 push	 esi
  00008	57		 push	 edi
  00009	89 4d fc	 mov	 DWORD PTR _this$[ebp], ecx

; 683  :         // insert by perfectly forwarding into element at end, provide strong guarantee
; 684  :         auto& _My_data   = _Mypair._Myval2;

  0000c	8b 45 fc	 mov	 eax, DWORD PTR _this$[ebp]
  0000f	89 45 f8	 mov	 DWORD PTR __My_data$[ebp], eax

; 685  :         pointer& _Mylast = _My_data._Mylast;

  00012	8b 45 f8	 mov	 eax, DWORD PTR __My_data$[ebp]
  00015	83 c0 04	 add	 eax, 4
  00018	89 45 f4	 mov	 DWORD PTR __Mylast$[ebp], eax

; 686  :         _STL_INTERNAL_CHECK(_Mylast != _My_data._Myend); // check that we have unused capacity
; 687  :         _Alty_traits::construct(_Getal(), _Unfancy(_Mylast), _STD forward<_Valty>(_Val)...);

  0001b	8b 45 08	 mov	 eax, DWORD PTR _<_Val_0>$[ebp]
  0001e	50		 push	 eax
  0001f	e8 00 00 00 00	 call	 ??$forward@ABUIP_BLOCK@@@std@@YAABUIP_BLOCK@@ABU1@@Z ; std::forward<IP_BLOCK const &>
  00024	83 c4 04	 add	 esp, 4
  00027	50		 push	 eax
  00028	8b 4d f4	 mov	 ecx, DWORD PTR __Mylast$[ebp]
  0002b	8b 11		 mov	 edx, DWORD PTR [ecx]
  0002d	52		 push	 edx
  0002e	e8 00 00 00 00	 call	 ??$_Unfancy@UIP_BLOCK@@@std@@YAPAUIP_BLOCK@@PAU1@@Z ; std::_Unfancy<IP_BLOCK>
  00033	83 c4 04	 add	 esp, 4
  00036	50		 push	 eax
  00037	8b 4d fc	 mov	 ecx, DWORD PTR _this$[ebp]
  0003a	e8 00 00 00 00	 call	 ?_Getal@?$vector@UIP_BLOCK@@V?$allocator@UIP_BLOCK@@@std@@@std@@AAEAAV?$allocator@UIP_BLOCK@@@2@XZ ; std::vector<IP_BLOCK,std::allocator<IP_BLOCK> >::_Getal
  0003f	50		 push	 eax
  00040	e8 00 00 00 00	 call	 ??$construct@UIP_BLOCK@@ABU1@@?$_Default_allocator_traits@V?$allocator@UIP_BLOCK@@@std@@@std@@SAXAAV?$allocator@UIP_BLOCK@@@1@QAUIP_BLOCK@@ABU3@@Z ; std::_Default_allocator_traits<std::allocator<IP_BLOCK> >::construct<IP_BLOCK,IP_BLOCK const &>
  00045	83 c4 0c	 add	 esp, 12			; 0000000cH

; 688  :         _Orphan_range(_Mylast, _Mylast);

  00048	8b 45 f4	 mov	 eax, DWORD PTR __Mylast$[ebp]
  0004b	8b 08		 mov	 ecx, DWORD PTR [eax]
  0004d	51		 push	 ecx
  0004e	8b 55 f4	 mov	 edx, DWORD PTR __Mylast$[ebp]
  00051	8b 02		 mov	 eax, DWORD PTR [edx]
  00053	50		 push	 eax
  00054	8b 4d fc	 mov	 ecx, DWORD PTR _this$[ebp]
  00057	e8 00 00 00 00	 call	 ?_Orphan_range@?$vector@UIP_BLOCK@@V?$allocator@UIP_BLOCK@@@std@@@std@@ABEXPAUIP_BLOCK@@0@Z ; std::vector<IP_BLOCK,std::allocator<IP_BLOCK> >::_Orphan_range

; 689  :         _Ty& _Result = *_Mylast;

  0005c	8b 45 f4	 mov	 eax, DWORD PTR __Mylast$[ebp]
  0005f	8b 08		 mov	 ecx, DWORD PTR [eax]
  00061	89 4d f0	 mov	 DWORD PTR __Result$[ebp], ecx

; 690  :         ++_Mylast;

  00064	8b 45 f4	 mov	 eax, DWORD PTR __Mylast$[ebp]
  00067	8b 08		 mov	 ecx, DWORD PTR [eax]
  00069	83 c1 20	 add	 ecx, 32			; 00000020H
  0006c	8b 55 f4	 mov	 edx, DWORD PTR __Mylast$[ebp]
  0006f	89 0a		 mov	 DWORD PTR [edx], ecx

; 691  : #if _HAS_CXX17
; 692  :         return _Result;
; 693  : #else // ^^^ _HAS_CXX17 ^^^ // vvv !_HAS_CXX17 vvv
; 694  :         (void) _Result;
; 695  : #endif // _HAS_CXX17
; 696  :     }

  00071	5f		 pop	 edi
  00072	5e		 pop	 esi
  00073	5b		 pop	 ebx
  00074	8b e5		 mov	 esp, ebp
  00076	5d		 pop	 ebp
  00077	c2 04 00	 ret	 4
??$_Emplace_back_with_unused_capacity@ABUIP_BLOCK@@@?$vector@UIP_BLOCK@@V?$allocator@UIP_BLOCK@@@std@@@std@@AAE@ABUIP_BLOCK@@@Z ENDP ; std::vector<IP_BLOCK,std::allocator<IP_BLOCK> >::_Emplace_back_with_unused_capacity<IP_BLOCK const &>
_TEXT	ENDS
; Function compile flags: /Odtp /ZI
; File C:\Program Files (x86)\Microsoft Visual Studio\2019\Community\VC\Tools\MSVC\14.27.29110\include\type_traits
;	COMDAT ??$forward@ABUIP_BLOCK@@@std@@YAABUIP_BLOCK@@ABU1@@Z
_TEXT	SEGMENT
__Arg$ = 8						; size = 4
??$forward@ABUIP_BLOCK@@@std@@YAABUIP_BLOCK@@ABU1@@Z PROC ; std::forward<IP_BLOCK const &>, COMDAT

; 1454 :     remove_reference_t<_Ty>& _Arg) noexcept { // forward an lvalue as either an lvalue or an rvalue

  00000	55		 push	 ebp
  00001	8b ec		 mov	 ebp, esp
  00003	83 ec 40	 sub	 esp, 64			; 00000040H
  00006	53		 push	 ebx
  00007	56		 push	 esi
  00008	57		 push	 edi

; 1455 :     return static_cast<_Ty&&>(_Arg);

  00009	8b 45 08	 mov	 eax, DWORD PTR __Arg$[ebp]

; 1456 : }

  0000c	5f		 pop	 edi
  0000d	5e		 pop	 esi
  0000e	5b		 pop	 ebx
  0000f	8b e5		 mov	 esp, ebp
  00011	5d		 pop	 ebp
  00012	c3		 ret	 0
??$forward@ABUIP_BLOCK@@@std@@YAABUIP_BLOCK@@ABU1@@Z ENDP ; std::forward<IP_BLOCK const &>
_TEXT	ENDS
; Function compile flags: /Odtp /ZI
; File C:\Program Files (x86)\Microsoft Visual Studio\2019\Community\VC\Tools\MSVC\14.27.29110\include\vector
;	COMDAT ??$emplace_back@ABUIP_BLOCK@@@?$vector@UIP_BLOCK@@V?$allocator@UIP_BLOCK@@@std@@@std@@QAE@ABUIP_BLOCK@@@Z
_TEXT	SEGMENT
__Result$ = -16						; size = 4
__Mylast$ = -12						; size = 4
__My_data$ = -8						; size = 4
_this$ = -4						; size = 4
_<_Val_0>$ = 8						; size = 4
??$emplace_back@ABUIP_BLOCK@@@?$vector@UIP_BLOCK@@V?$allocator@UIP_BLOCK@@@std@@@std@@QAE@ABUIP_BLOCK@@@Z PROC ; std::vector<IP_BLOCK,std::allocator<IP_BLOCK> >::emplace_back<IP_BLOCK const &>, COMDAT
; _this$ = ecx

; 700  :     decltype(auto) emplace_back(_Valty&&... _Val) {

  00000	55		 push	 ebp
  00001	8b ec		 mov	 ebp, esp
  00003	83 ec 50	 sub	 esp, 80			; 00000050H
  00006	53		 push	 ebx
  00007	56		 push	 esi
  00008	57		 push	 edi
  00009	89 4d fc	 mov	 DWORD PTR _this$[ebp], ecx

; 701  :         // insert by perfectly forwarding into element at end, provide strong guarantee
; 702  :         auto& _My_data   = _Mypair._Myval2;

  0000c	8b 45 fc	 mov	 eax, DWORD PTR _this$[ebp]
  0000f	89 45 f8	 mov	 DWORD PTR __My_data$[ebp], eax

; 703  :         pointer& _Mylast = _My_data._Mylast;

  00012	8b 45 f8	 mov	 eax, DWORD PTR __My_data$[ebp]
  00015	83 c0 04	 add	 eax, 4
  00018	89 45 f4	 mov	 DWORD PTR __Mylast$[ebp], eax

; 704  :         if (_Mylast != _My_data._Myend) {

  0001b	8b 45 f4	 mov	 eax, DWORD PTR __Mylast$[ebp]
  0001e	8b 4d f8	 mov	 ecx, DWORD PTR __My_data$[ebp]
  00021	8b 10		 mov	 edx, DWORD PTR [eax]
  00023	3b 51 08	 cmp	 edx, DWORD PTR [ecx+8]
  00026	74 17		 je	 SHORT $LN2@emplace_ba

; 705  :             return _Emplace_back_with_unused_capacity(_STD forward<_Valty>(_Val)...);

  00028	8b 45 08	 mov	 eax, DWORD PTR _<_Val_0>$[ebp]
  0002b	50		 push	 eax
  0002c	e8 00 00 00 00	 call	 ??$forward@ABUIP_BLOCK@@@std@@YAABUIP_BLOCK@@ABU1@@Z ; std::forward<IP_BLOCK const &>
  00031	83 c4 04	 add	 esp, 4
  00034	50		 push	 eax
  00035	8b 4d fc	 mov	 ecx, DWORD PTR _this$[ebp]
  00038	e8 00 00 00 00	 call	 ??$_Emplace_back_with_unused_capacity@ABUIP_BLOCK@@@?$vector@UIP_BLOCK@@V?$allocator@UIP_BLOCK@@@std@@@std@@AAE@ABUIP_BLOCK@@@Z ; std::vector<IP_BLOCK,std::allocator<IP_BLOCK> >::_Emplace_back_with_unused_capacity<IP_BLOCK const &>
  0003d	eb 1e		 jmp	 SHORT $LN1@emplace_ba
$LN2@emplace_ba:

; 706  :         }
; 707  : 
; 708  :         _Ty& _Result = *_Emplace_reallocate(_Mylast, _STD forward<_Valty>(_Val)...);

  0003f	8b 45 08	 mov	 eax, DWORD PTR _<_Val_0>$[ebp]
  00042	50		 push	 eax
  00043	e8 00 00 00 00	 call	 ??$forward@ABUIP_BLOCK@@@std@@YAABUIP_BLOCK@@ABU1@@Z ; std::forward<IP_BLOCK const &>
  00048	83 c4 04	 add	 esp, 4
  0004b	50		 push	 eax
  0004c	8b 4d f4	 mov	 ecx, DWORD PTR __Mylast$[ebp]
  0004f	8b 11		 mov	 edx, DWORD PTR [ecx]
  00051	52		 push	 edx
  00052	8b 4d fc	 mov	 ecx, DWORD PTR _this$[ebp]
  00055	e8 00 00 00 00	 call	 ??$_Emplace_reallocate@ABUIP_BLOCK@@@?$vector@UIP_BLOCK@@V?$allocator@UIP_BLOCK@@@std@@@std@@QAEPAUIP_BLOCK@@QAU2@ABU2@@Z ; std::vector<IP_BLOCK,std::allocator<IP_BLOCK> >::_Emplace_reallocate<IP_BLOCK const &>
  0005a	89 45 f0	 mov	 DWORD PTR __Result$[ebp], eax
$LN1@emplace_ba:

; 709  : #if _HAS_CXX17
; 710  :         return _Result;
; 711  : #else // ^^^ _HAS_CXX17 ^^^ // vvv !_HAS_CXX17 vvv
; 712  :         (void) _Result;
; 713  : #endif // _HAS_CXX17
; 714  :     }

  0005d	5f		 pop	 edi
  0005e	5e		 pop	 esi
  0005f	5b		 pop	 ebx
  00060	8b e5		 mov	 esp, ebp
  00062	5d		 pop	 ebp
  00063	c2 04 00	 ret	 4
??$emplace_back@ABUIP_BLOCK@@@?$vector@UIP_BLOCK@@V?$allocator@UIP_BLOCK@@@std@@@std@@QAE@ABUIP_BLOCK@@@Z ENDP ; std::vector<IP_BLOCK,std::allocator<IP_BLOCK> >::emplace_back<IP_BLOCK const &>
_TEXT	ENDS
; Function compile flags: /Odtp /ZI
; File C:\Program Files (x86)\Microsoft Visual Studio\2019\Community\VC\Tools\MSVC\14.27.29110\include\xmemory
;	COMDAT ??$destroy@UIP_BLOCK@@@?$_Default_allocator_traits@V?$allocator@UIP_BLOCK@@@std@@@std@@SAXAAV?$allocator@UIP_BLOCK@@@1@QAUIP_BLOCK@@@Z
_TEXT	SEGMENT
___formal$ = 8						; size = 4
__Ptr$ = 12						; size = 4
??$destroy@UIP_BLOCK@@@?$_Default_allocator_traits@V?$allocator@UIP_BLOCK@@@std@@@std@@SAXAAV?$allocator@UIP_BLOCK@@@1@QAUIP_BLOCK@@@Z PROC ; std::_Default_allocator_traits<std::allocator<IP_BLOCK> >::destroy<IP_BLOCK>, COMDAT

; 698  :     static void destroy(_Alloc&, _Uty* const _Ptr) {

  00000	55		 push	 ebp
  00001	8b ec		 mov	 ebp, esp
  00003	83 ec 40	 sub	 esp, 64			; 00000040H
  00006	53		 push	 ebx
  00007	56		 push	 esi
  00008	57		 push	 edi

; 699  :         _Ptr->~_Uty();
; 700  :     }

  00009	5f		 pop	 edi
  0000a	5e		 pop	 esi
  0000b	5b		 pop	 ebx
  0000c	8b e5		 mov	 esp, ebp
  0000e	5d		 pop	 ebp
  0000f	c3		 ret	 0
??$destroy@UIP_BLOCK@@@?$_Default_allocator_traits@V?$allocator@UIP_BLOCK@@@std@@@std@@SAXAAV?$allocator@UIP_BLOCK@@@1@QAUIP_BLOCK@@@Z ENDP ; std::_Default_allocator_traits<std::allocator<IP_BLOCK> >::destroy<IP_BLOCK>
_TEXT	ENDS
; Function compile flags: /Odtp /ZI
; File C:\Program Files (x86)\Microsoft Visual Studio\2019\Community\VC\Tools\MSVC\14.27.29110\include\xstddef
;	COMDAT ??$_Unfancy@UIP_BLOCK@@@std@@YAPAUIP_BLOCK@@PAU1@@Z
_TEXT	SEGMENT
__Ptr$ = 8						; size = 4
??$_Unfancy@UIP_BLOCK@@@std@@YAPAUIP_BLOCK@@PAU1@@Z PROC ; std::_Unfancy<IP_BLOCK>, COMDAT

; 288  : _NODISCARD constexpr _Ty* _Unfancy(_Ty* _Ptr) noexcept { // do nothing for plain pointers

  00000	55		 push	 ebp
  00001	8b ec		 mov	 ebp, esp
  00003	83 ec 40	 sub	 esp, 64			; 00000040H
  00006	53		 push	 ebx
  00007	56		 push	 esi
  00008	57		 push	 edi

; 289  :     return _Ptr;

  00009	8b 45 08	 mov	 eax, DWORD PTR __Ptr$[ebp]

; 290  : }

  0000c	5f		 pop	 edi
  0000d	5e		 pop	 esi
  0000e	5b		 pop	 ebx
  0000f	8b e5		 mov	 esp, ebp
  00011	5d		 pop	 ebp
  00012	c3		 ret	 0
??$_Unfancy@UIP_BLOCK@@@std@@YAPAUIP_BLOCK@@PAU1@@Z ENDP ; std::_Unfancy<IP_BLOCK>
_TEXT	ENDS
; Function compile flags: /Odtp /ZI
; File C:\Program Files (x86)\Microsoft Visual Studio\2019\Community\VC\Tools\MSVC\14.27.29110\include\xutility
;	COMDAT ??$_Move_unchecked@PAUIP_BLOCK@@PAU1@@std@@YAPAUIP_BLOCK@@PAU1@00@Z
_TEXT	SEGMENT
__First$ = 8						; size = 4
__Last$ = 12						; size = 4
__Dest$ = 16						; size = 4
??$_Move_unchecked@PAUIP_BLOCK@@PAU1@@std@@YAPAUIP_BLOCK@@PAU1@00@Z PROC ; std::_Move_unchecked<IP_BLOCK *,IP_BLOCK *>, COMDAT

; 4364 : _CONSTEXPR20 _OutIt _Move_unchecked(_InIt _First, _InIt _Last, _OutIt _Dest) {

  00000	55		 push	 ebp
  00001	8b ec		 mov	 ebp, esp
  00003	83 ec 40	 sub	 esp, 64			; 00000040H
  00006	53		 push	 ebx
  00007	56		 push	 esi
  00008	57		 push	 edi

; 4365 :     // move [_First, _Last) to [_Dest, ...)
; 4366 :     // note: _Move_unchecked has callers other than the move family
; 4367 :     if constexpr (_Ptr_move_cat<_InIt, _OutIt>::_Trivially_copyable) {
; 4368 : #ifdef __cpp_lib_is_constant_evaluated
; 4369 :         if (!_STD is_constant_evaluated())
; 4370 : #endif // __cpp_lib_is_constant_evaluated
; 4371 :         {
; 4372 :             return _Copy_memmove(_First, _Last, _Dest);

  00009	8b 45 10	 mov	 eax, DWORD PTR __Dest$[ebp]
  0000c	50		 push	 eax
  0000d	8b 4d 0c	 mov	 ecx, DWORD PTR __Last$[ebp]
  00010	51		 push	 ecx
  00011	8b 55 08	 mov	 edx, DWORD PTR __First$[ebp]
  00014	52		 push	 edx
  00015	e8 00 00 00 00	 call	 ??$_Copy_memmove@PAUIP_BLOCK@@PAU1@@std@@YAPAUIP_BLOCK@@PAU1@00@Z ; std::_Copy_memmove<IP_BLOCK *,IP_BLOCK *>
  0001a	83 c4 0c	 add	 esp, 12			; 0000000cH
  0001d	eb 39		 jmp	 SHORT $LN1@Move_unche

; 4373 :         }
; 4374 :     }
; 4375 : 
; 4376 :     for (; _First != _Last; ++_Dest, (void) ++_First) {

  0001f	eb 12		 jmp	 SHORT $LN4@Move_unche
$LN2@Move_unche:
  00021	8b 45 10	 mov	 eax, DWORD PTR __Dest$[ebp]
  00024	83 c0 20	 add	 eax, 32			; 00000020H
  00027	89 45 10	 mov	 DWORD PTR __Dest$[ebp], eax
  0002a	8b 4d 08	 mov	 ecx, DWORD PTR __First$[ebp]
  0002d	83 c1 20	 add	 ecx, 32			; 00000020H
  00030	89 4d 08	 mov	 DWORD PTR __First$[ebp], ecx
$LN4@Move_unche:
  00033	8b 45 08	 mov	 eax, DWORD PTR __First$[ebp]
  00036	3b 45 0c	 cmp	 eax, DWORD PTR __Last$[ebp]
  00039	74 1a		 je	 SHORT $LN3@Move_unche

; 4377 :         *_Dest = _STD move(*_First);

  0003b	8b 45 08	 mov	 eax, DWORD PTR __First$[ebp]
  0003e	50		 push	 eax
  0003f	e8 00 00 00 00	 call	 ??$move@AAUIP_BLOCK@@@std@@YA$$QAUIP_BLOCK@@AAU1@@Z ; std::move<IP_BLOCK &>
  00044	83 c4 04	 add	 esp, 4
  00047	b9 08 00 00 00	 mov	 ecx, 8
  0004c	8b f0		 mov	 esi, eax
  0004e	8b 7d 10	 mov	 edi, DWORD PTR __Dest$[ebp]
  00051	f3 a5		 rep movsd

; 4378 :     }

  00053	eb cc		 jmp	 SHORT $LN2@Move_unche
$LN3@Move_unche:

; 4379 : 
; 4380 :     return _Dest;

  00055	8b 45 10	 mov	 eax, DWORD PTR __Dest$[ebp]
$LN1@Move_unche:

; 4381 : }

  00058	5f		 pop	 edi
  00059	5e		 pop	 esi
  0005a	5b		 pop	 ebx
  0005b	8b e5		 mov	 esp, ebp
  0005d	5d		 pop	 ebp
  0005e	c3		 ret	 0
??$_Move_unchecked@PAUIP_BLOCK@@PAU1@@std@@YAPAUIP_BLOCK@@PAU1@00@Z ENDP ; std::_Move_unchecked<IP_BLOCK *,IP_BLOCK *>
_TEXT	ENDS
; Function compile flags: /Odtp /ZI
; File C:\Program Files (x86)\Microsoft Visual Studio\2019\Community\VC\Tools\MSVC\14.27.29110\include\xstddef
;	COMDAT ??$addressof@V?$_Vector_val@U?$_Simple_types@UIP_BLOCK@@@std@@@std@@@std@@YAPAV?$_Vector_val@U?$_Simple_types@UIP_BLOCK@@@std@@@0@AAV10@@Z
_TEXT	SEGMENT
__Val$ = 8						; size = 4
??$addressof@V?$_Vector_val@U?$_Simple_types@UIP_BLOCK@@@std@@@std@@@std@@YAPAV?$_Vector_val@U?$_Simple_types@UIP_BLOCK@@@std@@@0@AAV10@@Z PROC ; std::addressof<std::_Vector_val<std::_Simple_types<IP_BLOCK> > >, COMDAT

; 274  : _NODISCARD constexpr _Ty* addressof(_Ty& _Val) noexcept {

  00000	55		 push	 ebp
  00001	8b ec		 mov	 ebp, esp
  00003	83 ec 40	 sub	 esp, 64			; 00000040H
  00006	53		 push	 ebx
  00007	56		 push	 esi
  00008	57		 push	 edi

; 275  :     return __builtin_addressof(_Val);

  00009	8b 45 08	 mov	 eax, DWORD PTR __Val$[ebp]

; 276  : }

  0000c	5f		 pop	 edi
  0000d	5e		 pop	 esi
  0000e	5b		 pop	 ebx
  0000f	8b e5		 mov	 esp, ebp
  00011	5d		 pop	 ebp
  00012	c3		 ret	 0
??$addressof@V?$_Vector_val@U?$_Simple_types@UIP_BLOCK@@@std@@@std@@@std@@YAPAV?$_Vector_val@U?$_Simple_types@UIP_BLOCK@@@std@@@0@AAV10@@Z ENDP ; std::addressof<std::_Vector_val<std::_Simple_types<IP_BLOCK> > >
_TEXT	ENDS
; Function compile flags: /Odtp /ZI
;	COMDAT ??0?$_Vector_iterator@V?$_Vector_val@U?$_Simple_types@UIP_BLOCK@@@std@@@std@@@std@@QAE@PAUIP_BLOCK@@PBU_Container_base0@1@@Z
_TEXT	SEGMENT
_this$ = -4						; size = 4
___param0$ = 8						; size = 4
___param1$ = 12						; size = 4
??0?$_Vector_iterator@V?$_Vector_val@U?$_Simple_types@UIP_BLOCK@@@std@@@std@@@std@@QAE@PAUIP_BLOCK@@PBU_Container_base0@1@@Z PROC ; std::_Vector_iterator<std::_Vector_val<std::_Simple_types<IP_BLOCK> > >::_Vector_iterator<std::_Vector_val<std::_Simple_types<IP_BLOCK> > >, COMDAT
; _this$ = ecx
  00000	55		 push	 ebp
  00001	8b ec		 mov	 ebp, esp
  00003	83 ec 44	 sub	 esp, 68			; 00000044H
  00006	53		 push	 ebx
  00007	56		 push	 esi
  00008	57		 push	 edi
  00009	89 4d fc	 mov	 DWORD PTR _this$[ebp], ecx
  0000c	8b 45 0c	 mov	 eax, DWORD PTR ___param1$[ebp]
  0000f	50		 push	 eax
  00010	8b 4d 08	 mov	 ecx, DWORD PTR ___param0$[ebp]
  00013	51		 push	 ecx
  00014	8b 4d fc	 mov	 ecx, DWORD PTR _this$[ebp]
  00017	e8 00 00 00 00	 call	 ??0?$_Vector_const_iterator@V?$_Vector_val@U?$_Simple_types@UIP_BLOCK@@@std@@@std@@@std@@QAE@PAUIP_BLOCK@@PBU_Container_base0@1@@Z ; std::_Vector_const_iterator<std::_Vector_val<std::_Simple_types<IP_BLOCK> > >::_Vector_const_iterator<std::_Vector_val<std::_Simple_types<IP_BLOCK> > >
  0001c	8b 45 fc	 mov	 eax, DWORD PTR _this$[ebp]
  0001f	5f		 pop	 edi
  00020	5e		 pop	 esi
  00021	5b		 pop	 ebx
  00022	8b e5		 mov	 esp, ebp
  00024	5d		 pop	 ebp
  00025	c2 08 00	 ret	 8
??0?$_Vector_iterator@V?$_Vector_val@U?$_Simple_types@UIP_BLOCK@@@std@@@std@@@std@@QAE@PAUIP_BLOCK@@PBU_Container_base0@1@@Z ENDP ; std::_Vector_iterator<std::_Vector_val<std::_Simple_types<IP_BLOCK> > >::_Vector_iterator<std::_Vector_val<std::_Simple_types<IP_BLOCK> > >
_TEXT	ENDS
; Function compile flags: /Odtp /ZI
;	COMDAT ??0?$_Vector_iterator@V?$_Vector_val@U?$_Simple_types@UIP_BLOCK@@@std@@@std@@@std@@QAE@XZ
_TEXT	SEGMENT
_this$ = -4						; size = 4
??0?$_Vector_iterator@V?$_Vector_val@U?$_Simple_types@UIP_BLOCK@@@std@@@std@@@std@@QAE@XZ PROC ; std::_Vector_iterator<std::_Vector_val<std::_Simple_types<IP_BLOCK> > >::_Vector_iterator<std::_Vector_val<std::_Simple_types<IP_BLOCK> > >, COMDAT
; _this$ = ecx
  00000	55		 push	 ebp
  00001	8b ec		 mov	 ebp, esp
  00003	83 ec 44	 sub	 esp, 68			; 00000044H
  00006	53		 push	 ebx
  00007	56		 push	 esi
  00008	57		 push	 edi
  00009	89 4d fc	 mov	 DWORD PTR _this$[ebp], ecx
  0000c	8b 4d fc	 mov	 ecx, DWORD PTR _this$[ebp]
  0000f	e8 00 00 00 00	 call	 ??0?$_Vector_const_iterator@V?$_Vector_val@U?$_Simple_types@UIP_BLOCK@@@std@@@std@@@std@@QAE@XZ ; std::_Vector_const_iterator<std::_Vector_val<std::_Simple_types<IP_BLOCK> > >::_Vector_const_iterator<std::_Vector_val<std::_Simple_types<IP_BLOCK> > >
  00014	8b 45 fc	 mov	 eax, DWORD PTR _this$[ebp]
  00017	5f		 pop	 edi
  00018	5e		 pop	 esi
  00019	5b		 pop	 ebx
  0001a	8b e5		 mov	 esp, ebp
  0001c	5d		 pop	 ebp
  0001d	c3		 ret	 0
??0?$_Vector_iterator@V?$_Vector_val@U?$_Simple_types@UIP_BLOCK@@@std@@@std@@@std@@QAE@XZ ENDP ; std::_Vector_iterator<std::_Vector_val<std::_Simple_types<IP_BLOCK> > >::_Vector_iterator<std::_Vector_val<std::_Simple_types<IP_BLOCK> > >
_TEXT	ENDS
; Function compile flags: /Odtp /ZI
; File C:\Program Files (x86)\Microsoft Visual Studio\2019\Community\VC\Tools\MSVC\14.27.29110\include\vector
;	COMDAT ??E?$_Vector_iterator@V?$_Vector_val@U?$_Simple_types@UIP_BLOCK@@@std@@@std@@@std@@QAEAAV01@XZ
_TEXT	SEGMENT
_this$ = -4						; size = 4
??E?$_Vector_iterator@V?$_Vector_val@U?$_Simple_types@UIP_BLOCK@@@std@@@std@@@std@@QAEAAV01@XZ PROC ; std::_Vector_iterator<std::_Vector_val<std::_Simple_types<IP_BLOCK> > >::operator++, COMDAT
; _this$ = ecx

; 259  :     _Vector_iterator& operator++() {

  00000	55		 push	 ebp
  00001	8b ec		 mov	 ebp, esp
  00003	83 ec 44	 sub	 esp, 68			; 00000044H
  00006	53		 push	 ebx
  00007	56		 push	 esi
  00008	57		 push	 edi
  00009	89 4d fc	 mov	 DWORD PTR _this$[ebp], ecx

; 260  :         _Mybase::operator++();

  0000c	8b 4d fc	 mov	 ecx, DWORD PTR _this$[ebp]
  0000f	e8 00 00 00 00	 call	 ??E?$_Vector_const_iterator@V?$_Vector_val@U?$_Simple_types@UIP_BLOCK@@@std@@@std@@@std@@QAEAAV01@XZ ; std::_Vector_const_iterator<std::_Vector_val<std::_Simple_types<IP_BLOCK> > >::operator++

; 261  :         return *this;

  00014	8b 45 fc	 mov	 eax, DWORD PTR _this$[ebp]

; 262  :     }

  00017	5f		 pop	 edi
  00018	5e		 pop	 esi
  00019	5b		 pop	 ebx
  0001a	8b e5		 mov	 esp, ebp
  0001c	5d		 pop	 ebp
  0001d	c3		 ret	 0
??E?$_Vector_iterator@V?$_Vector_val@U?$_Simple_types@UIP_BLOCK@@@std@@@std@@@std@@QAEAAV01@XZ ENDP ; std::_Vector_iterator<std::_Vector_val<std::_Simple_types<IP_BLOCK> > >::operator++
_TEXT	ENDS
; Function compile flags: /Odtp /ZI
; File C:\Program Files (x86)\Microsoft Visual Studio\2019\Community\VC\Tools\MSVC\14.27.29110\include\vector
;	COMDAT ??D?$_Vector_iterator@V?$_Vector_val@U?$_Simple_types@UIP_BLOCK@@@std@@@std@@@std@@QBEAAUIP_BLOCK@@XZ
_TEXT	SEGMENT
_this$ = -4						; size = 4
??D?$_Vector_iterator@V?$_Vector_val@U?$_Simple_types@UIP_BLOCK@@@std@@@std@@@std@@QBEAAUIP_BLOCK@@XZ PROC ; std::_Vector_iterator<std::_Vector_val<std::_Simple_types<IP_BLOCK> > >::operator*, COMDAT
; _this$ = ecx

; 251  :     _NODISCARD reference operator*() const {

  00000	55		 push	 ebp
  00001	8b ec		 mov	 ebp, esp
  00003	83 ec 44	 sub	 esp, 68			; 00000044H
  00006	53		 push	 ebx
  00007	56		 push	 esi
  00008	57		 push	 edi
  00009	89 4d fc	 mov	 DWORD PTR _this$[ebp], ecx

; 252  :         return const_cast<reference>(_Mybase::operator*());

  0000c	8b 4d fc	 mov	 ecx, DWORD PTR _this$[ebp]
  0000f	e8 00 00 00 00	 call	 ??D?$_Vector_const_iterator@V?$_Vector_val@U?$_Simple_types@UIP_BLOCK@@@std@@@std@@@std@@QBEABUIP_BLOCK@@XZ ; std::_Vector_const_iterator<std::_Vector_val<std::_Simple_types<IP_BLOCK> > >::operator*

; 253  :     }

  00014	5f		 pop	 edi
  00015	5e		 pop	 esi
  00016	5b		 pop	 ebx
  00017	8b e5		 mov	 esp, ebp
  00019	5d		 pop	 ebp
  0001a	c3		 ret	 0
??D?$_Vector_iterator@V?$_Vector_val@U?$_Simple_types@UIP_BLOCK@@@std@@@std@@@std@@QBEAAUIP_BLOCK@@XZ ENDP ; std::_Vector_iterator<std::_Vector_val<std::_Simple_types<IP_BLOCK> > >::operator*
_TEXT	ENDS
; Function compile flags: /Odtp /ZI
; File C:\Program Files (x86)\Microsoft Visual Studio\2019\Community\VC\Tools\MSVC\14.27.29110\include\vector
;	COMDAT ?_Compat@?$_Vector_const_iterator@V?$_Vector_val@U?$_Simple_types@UIP_BLOCK@@@std@@@std@@@std@@QBEXABV12@@Z
_TEXT	SEGMENT
_this$ = -4						; size = 4
__Right$ = 8						; size = 4
?_Compat@?$_Vector_const_iterator@V?$_Vector_val@U?$_Simple_types@UIP_BLOCK@@@std@@@std@@@std@@QBEXABV12@@Z PROC ; std::_Vector_const_iterator<std::_Vector_val<std::_Simple_types<IP_BLOCK> > >::_Compat, COMDAT
; _this$ = ecx

; 173  :     void _Compat(const _Vector_const_iterator& _Right) const { // test for compatible iterator pair

  00000	55		 push	 ebp
  00001	8b ec		 mov	 ebp, esp
  00003	83 ec 44	 sub	 esp, 68			; 00000044H
  00006	53		 push	 ebx
  00007	56		 push	 esi
  00008	57		 push	 edi
  00009	89 4d fc	 mov	 DWORD PTR _this$[ebp], ecx

; 174  : #if _ITERATOR_DEBUG_LEVEL == 0
; 175  :         (void) _Right;
; 176  : #else // ^^^ _ITERATOR_DEBUG_LEVEL == 0 ^^^ // vvv _ITERATOR_DEBUG_LEVEL != 0 vvv
; 177  :         _STL_VERIFY(this->_Getcont() == _Right._Getcont(), "vector iterators incompatible");
; 178  : #endif // _ITERATOR_DEBUG_LEVEL == 0
; 179  :     }

  0000c	5f		 pop	 edi
  0000d	5e		 pop	 esi
  0000e	5b		 pop	 ebx
  0000f	8b e5		 mov	 esp, ebp
  00011	5d		 pop	 ebp
  00012	c2 04 00	 ret	 4
?_Compat@?$_Vector_const_iterator@V?$_Vector_val@U?$_Simple_types@UIP_BLOCK@@@std@@@std@@@std@@QBEXABV12@@Z ENDP ; std::_Vector_const_iterator<std::_Vector_val<std::_Simple_types<IP_BLOCK> > >::_Compat
_TEXT	ENDS
; Function compile flags: /Odtp /ZI
; File C:\Program Files (x86)\Microsoft Visual Studio\2019\Community\VC\Tools\MSVC\14.27.29110\include\vector
;	COMDAT ??9?$_Vector_const_iterator@V?$_Vector_val@U?$_Simple_types@UIP_BLOCK@@@std@@@std@@@std@@QBE_NABV01@@Z
_TEXT	SEGMENT
tv69 = -72						; size = 4
_this$ = -4						; size = 4
__Right$ = 8						; size = 4
??9?$_Vector_const_iterator@V?$_Vector_val@U?$_Simple_types@UIP_BLOCK@@@std@@@std@@@std@@QBE_NABV01@@Z PROC ; std::_Vector_const_iterator<std::_Vector_val<std::_Simple_types<IP_BLOCK> > >::operator!=, COMDAT
; _this$ = ecx

; 152  :     _NODISCARD bool operator!=(const _Vector_const_iterator& _Right) const {

  00000	55		 push	 ebp
  00001	8b ec		 mov	 ebp, esp
  00003	83 ec 48	 sub	 esp, 72			; 00000048H
  00006	53		 push	 ebx
  00007	56		 push	 esi
  00008	57		 push	 edi
  00009	89 4d fc	 mov	 DWORD PTR _this$[ebp], ecx

; 153  :         return !(*this == _Right);

  0000c	8b 45 08	 mov	 eax, DWORD PTR __Right$[ebp]
  0000f	50		 push	 eax
  00010	8b 4d fc	 mov	 ecx, DWORD PTR _this$[ebp]
  00013	e8 00 00 00 00	 call	 ??8?$_Vector_const_iterator@V?$_Vector_val@U?$_Simple_types@UIP_BLOCK@@@std@@@std@@@std@@QBE_NABV01@@Z ; std::_Vector_const_iterator<std::_Vector_val<std::_Simple_types<IP_BLOCK> > >::operator==
  00018	0f b6 c8	 movzx	 ecx, al
  0001b	85 c9		 test	 ecx, ecx
  0001d	75 09		 jne	 SHORT $LN3@operator
  0001f	c7 45 b8 01 00
	00 00		 mov	 DWORD PTR tv69[ebp], 1
  00026	eb 07		 jmp	 SHORT $LN4@operator
$LN3@operator:
  00028	c7 45 b8 00 00
	00 00		 mov	 DWORD PTR tv69[ebp], 0
$LN4@operator:
  0002f	8a 45 b8	 mov	 al, BYTE PTR tv69[ebp]

; 154  :     }

  00032	5f		 pop	 edi
  00033	5e		 pop	 esi
  00034	5b		 pop	 ebx
  00035	8b e5		 mov	 esp, ebp
  00037	5d		 pop	 ebp
  00038	c2 04 00	 ret	 4
??9?$_Vector_const_iterator@V?$_Vector_val@U?$_Simple_types@UIP_BLOCK@@@std@@@std@@@std@@QBE_NABV01@@Z ENDP ; std::_Vector_const_iterator<std::_Vector_val<std::_Simple_types<IP_BLOCK> > >::operator!=
_TEXT	ENDS
; Function compile flags: /Odtp /ZI
; File C:\Program Files (x86)\Microsoft Visual Studio\2019\Community\VC\Tools\MSVC\14.27.29110\include\vector
;	COMDAT ??8?$_Vector_const_iterator@V?$_Vector_val@U?$_Simple_types@UIP_BLOCK@@@std@@@std@@@std@@QBE_NABV01@@Z
_TEXT	SEGMENT
tv69 = -72						; size = 4
_this$ = -4						; size = 4
__Right$ = 8						; size = 4
??8?$_Vector_const_iterator@V?$_Vector_val@U?$_Simple_types@UIP_BLOCK@@@std@@@std@@@std@@QBE_NABV01@@Z PROC ; std::_Vector_const_iterator<std::_Vector_val<std::_Simple_types<IP_BLOCK> > >::operator==, COMDAT
; _this$ = ecx

; 147  :     _NODISCARD bool operator==(const _Vector_const_iterator& _Right) const {

  00000	55		 push	 ebp
  00001	8b ec		 mov	 ebp, esp
  00003	83 ec 48	 sub	 esp, 72			; 00000048H
  00006	53		 push	 ebx
  00007	56		 push	 esi
  00008	57		 push	 edi
  00009	89 4d fc	 mov	 DWORD PTR _this$[ebp], ecx

; 148  :         _Compat(_Right);

  0000c	8b 45 08	 mov	 eax, DWORD PTR __Right$[ebp]
  0000f	50		 push	 eax
  00010	8b 4d fc	 mov	 ecx, DWORD PTR _this$[ebp]
  00013	e8 00 00 00 00	 call	 ?_Compat@?$_Vector_const_iterator@V?$_Vector_val@U?$_Simple_types@UIP_BLOCK@@@std@@@std@@@std@@QBEXABV12@@Z ; std::_Vector_const_iterator<std::_Vector_val<std::_Simple_types<IP_BLOCK> > >::_Compat

; 149  :         return _Ptr == _Right._Ptr;

  00018	8b 45 fc	 mov	 eax, DWORD PTR _this$[ebp]
  0001b	8b 4d 08	 mov	 ecx, DWORD PTR __Right$[ebp]
  0001e	8b 10		 mov	 edx, DWORD PTR [eax]
  00020	3b 11		 cmp	 edx, DWORD PTR [ecx]
  00022	75 09		 jne	 SHORT $LN3@operator
  00024	c7 45 b8 01 00
	00 00		 mov	 DWORD PTR tv69[ebp], 1
  0002b	eb 07		 jmp	 SHORT $LN4@operator
$LN3@operator:
  0002d	c7 45 b8 00 00
	00 00		 mov	 DWORD PTR tv69[ebp], 0
$LN4@operator:
  00034	8a 45 b8	 mov	 al, BYTE PTR tv69[ebp]

; 150  :     }

  00037	5f		 pop	 edi
  00038	5e		 pop	 esi
  00039	5b		 pop	 ebx
  0003a	8b e5		 mov	 esp, ebp
  0003c	5d		 pop	 ebp
  0003d	c2 04 00	 ret	 4
??8?$_Vector_const_iterator@V?$_Vector_val@U?$_Simple_types@UIP_BLOCK@@@std@@@std@@@std@@QBE_NABV01@@Z ENDP ; std::_Vector_const_iterator<std::_Vector_val<std::_Simple_types<IP_BLOCK> > >::operator==
_TEXT	ENDS
; Function compile flags: /Odtp /ZI
; File C:\Program Files (x86)\Microsoft Visual Studio\2019\Community\VC\Tools\MSVC\14.27.29110\include\vector
;	COMDAT ??E?$_Vector_const_iterator@V?$_Vector_val@U?$_Simple_types@UIP_BLOCK@@@std@@@std@@@std@@QAEAAV01@XZ
_TEXT	SEGMENT
_this$ = -4						; size = 4
??E?$_Vector_const_iterator@V?$_Vector_val@U?$_Simple_types@UIP_BLOCK@@@std@@@std@@@std@@QAEAAV01@XZ PROC ; std::_Vector_const_iterator<std::_Vector_val<std::_Simple_types<IP_BLOCK> > >::operator++, COMDAT
; _this$ = ecx

; 68   :     _Vector_const_iterator& operator++() {

  00000	55		 push	 ebp
  00001	8b ec		 mov	 ebp, esp
  00003	83 ec 44	 sub	 esp, 68			; 00000044H
  00006	53		 push	 ebx
  00007	56		 push	 esi
  00008	57		 push	 edi
  00009	89 4d fc	 mov	 DWORD PTR _this$[ebp], ecx

; 69   : #if _ITERATOR_DEBUG_LEVEL != 0
; 70   :         const auto _Mycont = static_cast<const _Myvec*>(this->_Getcont());
; 71   :         _STL_VERIFY(_Ptr, "can't increment value-initialized vector iterator");
; 72   :         _STL_VERIFY(_Ptr < _Mycont->_Mylast, "can't increment vector iterator past end");
; 73   : #endif // _ITERATOR_DEBUG_LEVEL != 0
; 74   : 
; 75   :         ++_Ptr;

  0000c	8b 45 fc	 mov	 eax, DWORD PTR _this$[ebp]
  0000f	8b 08		 mov	 ecx, DWORD PTR [eax]
  00011	83 c1 20	 add	 ecx, 32			; 00000020H
  00014	8b 55 fc	 mov	 edx, DWORD PTR _this$[ebp]
  00017	89 0a		 mov	 DWORD PTR [edx], ecx

; 76   :         return *this;

  00019	8b 45 fc	 mov	 eax, DWORD PTR _this$[ebp]

; 77   :     }

  0001c	5f		 pop	 edi
  0001d	5e		 pop	 esi
  0001e	5b		 pop	 ebx
  0001f	8b e5		 mov	 esp, ebp
  00021	5d		 pop	 ebp
  00022	c3		 ret	 0
??E?$_Vector_const_iterator@V?$_Vector_val@U?$_Simple_types@UIP_BLOCK@@@std@@@std@@@std@@QAEAAV01@XZ ENDP ; std::_Vector_const_iterator<std::_Vector_val<std::_Simple_types<IP_BLOCK> > >::operator++
_TEXT	ENDS
; Function compile flags: /Odtp /ZI
; File C:\Program Files (x86)\Microsoft Visual Studio\2019\Community\VC\Tools\MSVC\14.27.29110\include\vector
;	COMDAT ??D?$_Vector_const_iterator@V?$_Vector_val@U?$_Simple_types@UIP_BLOCK@@@std@@@std@@@std@@QBEABUIP_BLOCK@@XZ
_TEXT	SEGMENT
_this$ = -4						; size = 4
??D?$_Vector_const_iterator@V?$_Vector_val@U?$_Simple_types@UIP_BLOCK@@@std@@@std@@@std@@QBEABUIP_BLOCK@@XZ PROC ; std::_Vector_const_iterator<std::_Vector_val<std::_Simple_types<IP_BLOCK> > >::operator*, COMDAT
; _this$ = ecx

; 46   :     _NODISCARD reference operator*() const {

  00000	55		 push	 ebp
  00001	8b ec		 mov	 ebp, esp
  00003	83 ec 44	 sub	 esp, 68			; 00000044H
  00006	53		 push	 ebx
  00007	56		 push	 esi
  00008	57		 push	 edi
  00009	89 4d fc	 mov	 DWORD PTR _this$[ebp], ecx

; 47   : #if _ITERATOR_DEBUG_LEVEL != 0
; 48   :         const auto _Mycont = static_cast<const _Myvec*>(this->_Getcont());
; 49   :         _STL_VERIFY(_Ptr, "can't dereference value-initialized vector iterator");
; 50   :         _STL_VERIFY(
; 51   :             _Mycont->_Myfirst <= _Ptr && _Ptr < _Mycont->_Mylast, "can't dereference out of range vector iterator");
; 52   : #endif // _ITERATOR_DEBUG_LEVEL != 0
; 53   : 
; 54   :         return *_Ptr;

  0000c	8b 45 fc	 mov	 eax, DWORD PTR _this$[ebp]
  0000f	8b 00		 mov	 eax, DWORD PTR [eax]

; 55   :     }

  00011	5f		 pop	 edi
  00012	5e		 pop	 esi
  00013	5b		 pop	 ebx
  00014	8b e5		 mov	 esp, ebp
  00016	5d		 pop	 ebp
  00017	c3		 ret	 0
??D?$_Vector_const_iterator@V?$_Vector_val@U?$_Simple_types@UIP_BLOCK@@@std@@@std@@@std@@QBEABUIP_BLOCK@@XZ ENDP ; std::_Vector_const_iterator<std::_Vector_val<std::_Simple_types<IP_BLOCK> > >::operator*
_TEXT	ENDS
; Function compile flags: /Odtp /ZI
; File C:\Program Files (x86)\Microsoft Visual Studio\2019\Community\VC\Tools\MSVC\14.27.29110\include\vector
;	COMDAT ??0?$_Vector_const_iterator@V?$_Vector_val@U?$_Simple_types@UIP_BLOCK@@@std@@@std@@@std@@QAE@PAUIP_BLOCK@@PBU_Container_base0@1@@Z
_TEXT	SEGMENT
_this$ = -4						; size = 4
__Parg$ = 8						; size = 4
__Pvector$ = 12						; size = 4
??0?$_Vector_const_iterator@V?$_Vector_val@U?$_Simple_types@UIP_BLOCK@@@std@@@std@@@std@@QAE@PAUIP_BLOCK@@PBU_Container_base0@1@@Z PROC ; std::_Vector_const_iterator<std::_Vector_val<std::_Simple_types<IP_BLOCK> > >::_Vector_const_iterator<std::_Vector_val<std::_Simple_types<IP_BLOCK> > >, COMDAT
; _this$ = ecx

; 42   :     _Vector_const_iterator(_Tptr _Parg, const _Container_base* _Pvector) noexcept : _Ptr(_Parg) {

  00000	55		 push	 ebp
  00001	8b ec		 mov	 ebp, esp
  00003	83 ec 44	 sub	 esp, 68			; 00000044H
  00006	53		 push	 ebx
  00007	56		 push	 esi
  00008	57		 push	 edi
  00009	89 4d fc	 mov	 DWORD PTR _this$[ebp], ecx
  0000c	8b 45 fc	 mov	 eax, DWORD PTR _this$[ebp]
  0000f	8b 4d 08	 mov	 ecx, DWORD PTR __Parg$[ebp]
  00012	89 08		 mov	 DWORD PTR [eax], ecx

; 43   :         this->_Adopt(_Pvector);

  00014	8b 45 0c	 mov	 eax, DWORD PTR __Pvector$[ebp]
  00017	50		 push	 eax
  00018	8b 4d fc	 mov	 ecx, DWORD PTR _this$[ebp]
  0001b	e8 00 00 00 00	 call	 ?_Adopt@_Iterator_base0@std@@QAEXPBX@Z ; std::_Iterator_base0::_Adopt

; 44   :     }

  00020	8b 45 fc	 mov	 eax, DWORD PTR _this$[ebp]
  00023	5f		 pop	 edi
  00024	5e		 pop	 esi
  00025	5b		 pop	 ebx
  00026	8b e5		 mov	 esp, ebp
  00028	5d		 pop	 ebp
  00029	c2 08 00	 ret	 8
??0?$_Vector_const_iterator@V?$_Vector_val@U?$_Simple_types@UIP_BLOCK@@@std@@@std@@@std@@QAE@PAUIP_BLOCK@@PBU_Container_base0@1@@Z ENDP ; std::_Vector_const_iterator<std::_Vector_val<std::_Simple_types<IP_BLOCK> > >::_Vector_const_iterator<std::_Vector_val<std::_Simple_types<IP_BLOCK> > >
_TEXT	ENDS
; Function compile flags: /Odtp /ZI
; File C:\Program Files (x86)\Microsoft Visual Studio\2019\Community\VC\Tools\MSVC\14.27.29110\include\vector
;	COMDAT ??0?$_Vector_const_iterator@V?$_Vector_val@U?$_Simple_types@UIP_BLOCK@@@std@@@std@@@std@@QAE@XZ
_TEXT	SEGMENT
_this$ = -4						; size = 4
??0?$_Vector_const_iterator@V?$_Vector_val@U?$_Simple_types@UIP_BLOCK@@@std@@@std@@@std@@QAE@XZ PROC ; std::_Vector_const_iterator<std::_Vector_val<std::_Simple_types<IP_BLOCK> > >::_Vector_const_iterator<std::_Vector_val<std::_Simple_types<IP_BLOCK> > >, COMDAT
; _this$ = ecx

; 40   :     _Vector_const_iterator() noexcept : _Ptr() {}

  00000	55		 push	 ebp
  00001	8b ec		 mov	 ebp, esp
  00003	83 ec 44	 sub	 esp, 68			; 00000044H
  00006	53		 push	 ebx
  00007	56		 push	 esi
  00008	57		 push	 edi
  00009	89 4d fc	 mov	 DWORD PTR _this$[ebp], ecx
  0000c	8b 45 fc	 mov	 eax, DWORD PTR _this$[ebp]
  0000f	c7 00 00 00 00
	00		 mov	 DWORD PTR [eax], 0
  00015	8b 45 fc	 mov	 eax, DWORD PTR _this$[ebp]
  00018	5f		 pop	 edi
  00019	5e		 pop	 esi
  0001a	5b		 pop	 ebx
  0001b	8b e5		 mov	 esp, ebp
  0001d	5d		 pop	 ebp
  0001e	c3		 ret	 0
??0?$_Vector_const_iterator@V?$_Vector_val@U?$_Simple_types@UIP_BLOCK@@@std@@@std@@@std@@QAE@XZ ENDP ; std::_Vector_const_iterator<std::_Vector_val<std::_Simple_types<IP_BLOCK> > >::_Vector_const_iterator<std::_Vector_val<std::_Simple_types<IP_BLOCK> > >
_TEXT	ENDS
; Function compile flags: /Odtp /ZI
;	COMDAT ??0?$_Vector_iterator@V?$_Vector_val@U?$_Simple_types@UUSER_CONNECT_TIME@@@std@@@std@@@std@@QAE@PAUUSER_CONNECT_TIME@@PBU_Container_base0@1@@Z
_TEXT	SEGMENT
_this$ = -4						; size = 4
___param0$ = 8						; size = 4
___param1$ = 12						; size = 4
??0?$_Vector_iterator@V?$_Vector_val@U?$_Simple_types@UUSER_CONNECT_TIME@@@std@@@std@@@std@@QAE@PAUUSER_CONNECT_TIME@@PBU_Container_base0@1@@Z PROC ; std::_Vector_iterator<std::_Vector_val<std::_Simple_types<USER_CONNECT_TIME> > >::_Vector_iterator<std::_Vector_val<std::_Simple_types<USER_CONNECT_TIME> > >, COMDAT
; _this$ = ecx
  00000	55		 push	 ebp
  00001	8b ec		 mov	 ebp, esp
  00003	83 ec 44	 sub	 esp, 68			; 00000044H
  00006	53		 push	 ebx
  00007	56		 push	 esi
  00008	57		 push	 edi
  00009	89 4d fc	 mov	 DWORD PTR _this$[ebp], ecx
  0000c	8b 45 0c	 mov	 eax, DWORD PTR ___param1$[ebp]
  0000f	50		 push	 eax
  00010	8b 4d 08	 mov	 ecx, DWORD PTR ___param0$[ebp]
  00013	51		 push	 ecx
  00014	8b 4d fc	 mov	 ecx, DWORD PTR _this$[ebp]
  00017	e8 00 00 00 00	 call	 ??0?$_Vector_const_iterator@V?$_Vector_val@U?$_Simple_types@UUSER_CONNECT_TIME@@@std@@@std@@@std@@QAE@PAUUSER_CONNECT_TIME@@PBU_Container_base0@1@@Z ; std::_Vector_const_iterator<std::_Vector_val<std::_Simple_types<USER_CONNECT_TIME> > >::_Vector_const_iterator<std::_Vector_val<std::_Simple_types<USER_CONNECT_TIME> > >
  0001c	8b 45 fc	 mov	 eax, DWORD PTR _this$[ebp]
  0001f	5f		 pop	 edi
  00020	5e		 pop	 esi
  00021	5b		 pop	 ebx
  00022	8b e5		 mov	 esp, ebp
  00024	5d		 pop	 ebp
  00025	c2 08 00	 ret	 8
??0?$_Vector_iterator@V?$_Vector_val@U?$_Simple_types@UUSER_CONNECT_TIME@@@std@@@std@@@std@@QAE@PAUUSER_CONNECT_TIME@@PBU_Container_base0@1@@Z ENDP ; std::_Vector_iterator<std::_Vector_val<std::_Simple_types<USER_CONNECT_TIME> > >::_Vector_iterator<std::_Vector_val<std::_Simple_types<USER_CONNECT_TIME> > >
_TEXT	ENDS
; Function compile flags: /Odtp /ZI
;	COMDAT ??0?$_Vector_iterator@V?$_Vector_val@U?$_Simple_types@UUSER_CONNECT_TIME@@@std@@@std@@@std@@QAE@XZ
_TEXT	SEGMENT
_this$ = -4						; size = 4
??0?$_Vector_iterator@V?$_Vector_val@U?$_Simple_types@UUSER_CONNECT_TIME@@@std@@@std@@@std@@QAE@XZ PROC ; std::_Vector_iterator<std::_Vector_val<std::_Simple_types<USER_CONNECT_TIME> > >::_Vector_iterator<std::_Vector_val<std::_Simple_types<USER_CONNECT_TIME> > >, COMDAT
; _this$ = ecx
  00000	55		 push	 ebp
  00001	8b ec		 mov	 ebp, esp
  00003	83 ec 44	 sub	 esp, 68			; 00000044H
  00006	53		 push	 ebx
  00007	56		 push	 esi
  00008	57		 push	 edi
  00009	89 4d fc	 mov	 DWORD PTR _this$[ebp], ecx
  0000c	8b 4d fc	 mov	 ecx, DWORD PTR _this$[ebp]
  0000f	e8 00 00 00 00	 call	 ??0?$_Vector_const_iterator@V?$_Vector_val@U?$_Simple_types@UUSER_CONNECT_TIME@@@std@@@std@@@std@@QAE@XZ ; std::_Vector_const_iterator<std::_Vector_val<std::_Simple_types<USER_CONNECT_TIME> > >::_Vector_const_iterator<std::_Vector_val<std::_Simple_types<USER_CONNECT_TIME> > >
  00014	8b 45 fc	 mov	 eax, DWORD PTR _this$[ebp]
  00017	5f		 pop	 edi
  00018	5e		 pop	 esi
  00019	5b		 pop	 ebx
  0001a	8b e5		 mov	 esp, ebp
  0001c	5d		 pop	 ebp
  0001d	c3		 ret	 0
??0?$_Vector_iterator@V?$_Vector_val@U?$_Simple_types@UUSER_CONNECT_TIME@@@std@@@std@@@std@@QAE@XZ ENDP ; std::_Vector_iterator<std::_Vector_val<std::_Simple_types<USER_CONNECT_TIME> > >::_Vector_iterator<std::_Vector_val<std::_Simple_types<USER_CONNECT_TIME> > >
_TEXT	ENDS
; Function compile flags: /Odtp /ZI
; File C:\Program Files (x86)\Microsoft Visual Studio\2019\Community\VC\Tools\MSVC\14.27.29110\include\vector
;	COMDAT ??E?$_Vector_iterator@V?$_Vector_val@U?$_Simple_types@UUSER_CONNECT_TIME@@@std@@@std@@@std@@QAEAAV01@XZ
_TEXT	SEGMENT
_this$ = -4						; size = 4
??E?$_Vector_iterator@V?$_Vector_val@U?$_Simple_types@UUSER_CONNECT_TIME@@@std@@@std@@@std@@QAEAAV01@XZ PROC ; std::_Vector_iterator<std::_Vector_val<std::_Simple_types<USER_CONNECT_TIME> > >::operator++, COMDAT
; _this$ = ecx

; 259  :     _Vector_iterator& operator++() {

  00000	55		 push	 ebp
  00001	8b ec		 mov	 ebp, esp
  00003	83 ec 44	 sub	 esp, 68			; 00000044H
  00006	53		 push	 ebx
  00007	56		 push	 esi
  00008	57		 push	 edi
  00009	89 4d fc	 mov	 DWORD PTR _this$[ebp], ecx

; 260  :         _Mybase::operator++();

  0000c	8b 4d fc	 mov	 ecx, DWORD PTR _this$[ebp]
  0000f	e8 00 00 00 00	 call	 ??E?$_Vector_const_iterator@V?$_Vector_val@U?$_Simple_types@UUSER_CONNECT_TIME@@@std@@@std@@@std@@QAEAAV01@XZ ; std::_Vector_const_iterator<std::_Vector_val<std::_Simple_types<USER_CONNECT_TIME> > >::operator++

; 261  :         return *this;

  00014	8b 45 fc	 mov	 eax, DWORD PTR _this$[ebp]

; 262  :     }

  00017	5f		 pop	 edi
  00018	5e		 pop	 esi
  00019	5b		 pop	 ebx
  0001a	8b e5		 mov	 esp, ebp
  0001c	5d		 pop	 ebp
  0001d	c3		 ret	 0
??E?$_Vector_iterator@V?$_Vector_val@U?$_Simple_types@UUSER_CONNECT_TIME@@@std@@@std@@@std@@QAEAAV01@XZ ENDP ; std::_Vector_iterator<std::_Vector_val<std::_Simple_types<USER_CONNECT_TIME> > >::operator++
_TEXT	ENDS
; Function compile flags: /Odtp /ZI
; File C:\Program Files (x86)\Microsoft Visual Studio\2019\Community\VC\Tools\MSVC\14.27.29110\include\vector
;	COMDAT ??D?$_Vector_iterator@V?$_Vector_val@U?$_Simple_types@UUSER_CONNECT_TIME@@@std@@@std@@@std@@QBEAAUUSER_CONNECT_TIME@@XZ
_TEXT	SEGMENT
_this$ = -4						; size = 4
??D?$_Vector_iterator@V?$_Vector_val@U?$_Simple_types@UUSER_CONNECT_TIME@@@std@@@std@@@std@@QBEAAUUSER_CONNECT_TIME@@XZ PROC ; std::_Vector_iterator<std::_Vector_val<std::_Simple_types<USER_CONNECT_TIME> > >::operator*, COMDAT
; _this$ = ecx

; 251  :     _NODISCARD reference operator*() const {

  00000	55		 push	 ebp
  00001	8b ec		 mov	 ebp, esp
  00003	83 ec 44	 sub	 esp, 68			; 00000044H
  00006	53		 push	 ebx
  00007	56		 push	 esi
  00008	57		 push	 edi
  00009	89 4d fc	 mov	 DWORD PTR _this$[ebp], ecx

; 252  :         return const_cast<reference>(_Mybase::operator*());

  0000c	8b 4d fc	 mov	 ecx, DWORD PTR _this$[ebp]
  0000f	e8 00 00 00 00	 call	 ??D?$_Vector_const_iterator@V?$_Vector_val@U?$_Simple_types@UUSER_CONNECT_TIME@@@std@@@std@@@std@@QBEABUUSER_CONNECT_TIME@@XZ ; std::_Vector_const_iterator<std::_Vector_val<std::_Simple_types<USER_CONNECT_TIME> > >::operator*

; 253  :     }

  00014	5f		 pop	 edi
  00015	5e		 pop	 esi
  00016	5b		 pop	 ebx
  00017	8b e5		 mov	 esp, ebp
  00019	5d		 pop	 ebp
  0001a	c3		 ret	 0
??D?$_Vector_iterator@V?$_Vector_val@U?$_Simple_types@UUSER_CONNECT_TIME@@@std@@@std@@@std@@QBEAAUUSER_CONNECT_TIME@@XZ ENDP ; std::_Vector_iterator<std::_Vector_val<std::_Simple_types<USER_CONNECT_TIME> > >::operator*
_TEXT	ENDS
; Function compile flags: /Odtp /ZI
; File C:\Program Files (x86)\Microsoft Visual Studio\2019\Community\VC\Tools\MSVC\14.27.29110\include\vector
;	COMDAT ?_Compat@?$_Vector_const_iterator@V?$_Vector_val@U?$_Simple_types@UUSER_CONNECT_TIME@@@std@@@std@@@std@@QBEXABV12@@Z
_TEXT	SEGMENT
_this$ = -4						; size = 4
__Right$ = 8						; size = 4
?_Compat@?$_Vector_const_iterator@V?$_Vector_val@U?$_Simple_types@UUSER_CONNECT_TIME@@@std@@@std@@@std@@QBEXABV12@@Z PROC ; std::_Vector_const_iterator<std::_Vector_val<std::_Simple_types<USER_CONNECT_TIME> > >::_Compat, COMDAT
; _this$ = ecx

; 173  :     void _Compat(const _Vector_const_iterator& _Right) const { // test for compatible iterator pair

  00000	55		 push	 ebp
  00001	8b ec		 mov	 ebp, esp
  00003	83 ec 44	 sub	 esp, 68			; 00000044H
  00006	53		 push	 ebx
  00007	56		 push	 esi
  00008	57		 push	 edi
  00009	89 4d fc	 mov	 DWORD PTR _this$[ebp], ecx

; 174  : #if _ITERATOR_DEBUG_LEVEL == 0
; 175  :         (void) _Right;
; 176  : #else // ^^^ _ITERATOR_DEBUG_LEVEL == 0 ^^^ // vvv _ITERATOR_DEBUG_LEVEL != 0 vvv
; 177  :         _STL_VERIFY(this->_Getcont() == _Right._Getcont(), "vector iterators incompatible");
; 178  : #endif // _ITERATOR_DEBUG_LEVEL == 0
; 179  :     }

  0000c	5f		 pop	 edi
  0000d	5e		 pop	 esi
  0000e	5b		 pop	 ebx
  0000f	8b e5		 mov	 esp, ebp
  00011	5d		 pop	 ebp
  00012	c2 04 00	 ret	 4
?_Compat@?$_Vector_const_iterator@V?$_Vector_val@U?$_Simple_types@UUSER_CONNECT_TIME@@@std@@@std@@@std@@QBEXABV12@@Z ENDP ; std::_Vector_const_iterator<std::_Vector_val<std::_Simple_types<USER_CONNECT_TIME> > >::_Compat
_TEXT	ENDS
; Function compile flags: /Odtp /ZI
; File C:\Program Files (x86)\Microsoft Visual Studio\2019\Community\VC\Tools\MSVC\14.27.29110\include\vector
;	COMDAT ??9?$_Vector_const_iterator@V?$_Vector_val@U?$_Simple_types@UUSER_CONNECT_TIME@@@std@@@std@@@std@@QBE_NABV01@@Z
_TEXT	SEGMENT
tv69 = -72						; size = 4
_this$ = -4						; size = 4
__Right$ = 8						; size = 4
??9?$_Vector_const_iterator@V?$_Vector_val@U?$_Simple_types@UUSER_CONNECT_TIME@@@std@@@std@@@std@@QBE_NABV01@@Z PROC ; std::_Vector_const_iterator<std::_Vector_val<std::_Simple_types<USER_CONNECT_TIME> > >::operator!=, COMDAT
; _this$ = ecx

; 152  :     _NODISCARD bool operator!=(const _Vector_const_iterator& _Right) const {

  00000	55		 push	 ebp
  00001	8b ec		 mov	 ebp, esp
  00003	83 ec 48	 sub	 esp, 72			; 00000048H
  00006	53		 push	 ebx
  00007	56		 push	 esi
  00008	57		 push	 edi
  00009	89 4d fc	 mov	 DWORD PTR _this$[ebp], ecx

; 153  :         return !(*this == _Right);

  0000c	8b 45 08	 mov	 eax, DWORD PTR __Right$[ebp]
  0000f	50		 push	 eax
  00010	8b 4d fc	 mov	 ecx, DWORD PTR _this$[ebp]
  00013	e8 00 00 00 00	 call	 ??8?$_Vector_const_iterator@V?$_Vector_val@U?$_Simple_types@UUSER_CONNECT_TIME@@@std@@@std@@@std@@QBE_NABV01@@Z ; std::_Vector_const_iterator<std::_Vector_val<std::_Simple_types<USER_CONNECT_TIME> > >::operator==
  00018	0f b6 c8	 movzx	 ecx, al
  0001b	85 c9		 test	 ecx, ecx
  0001d	75 09		 jne	 SHORT $LN3@operator
  0001f	c7 45 b8 01 00
	00 00		 mov	 DWORD PTR tv69[ebp], 1
  00026	eb 07		 jmp	 SHORT $LN4@operator
$LN3@operator:
  00028	c7 45 b8 00 00
	00 00		 mov	 DWORD PTR tv69[ebp], 0
$LN4@operator:
  0002f	8a 45 b8	 mov	 al, BYTE PTR tv69[ebp]

; 154  :     }

  00032	5f		 pop	 edi
  00033	5e		 pop	 esi
  00034	5b		 pop	 ebx
  00035	8b e5		 mov	 esp, ebp
  00037	5d		 pop	 ebp
  00038	c2 04 00	 ret	 4
??9?$_Vector_const_iterator@V?$_Vector_val@U?$_Simple_types@UUSER_CONNECT_TIME@@@std@@@std@@@std@@QBE_NABV01@@Z ENDP ; std::_Vector_const_iterator<std::_Vector_val<std::_Simple_types<USER_CONNECT_TIME> > >::operator!=
_TEXT	ENDS
; Function compile flags: /Odtp /ZI
; File C:\Program Files (x86)\Microsoft Visual Studio\2019\Community\VC\Tools\MSVC\14.27.29110\include\vector
;	COMDAT ??8?$_Vector_const_iterator@V?$_Vector_val@U?$_Simple_types@UUSER_CONNECT_TIME@@@std@@@std@@@std@@QBE_NABV01@@Z
_TEXT	SEGMENT
tv69 = -72						; size = 4
_this$ = -4						; size = 4
__Right$ = 8						; size = 4
??8?$_Vector_const_iterator@V?$_Vector_val@U?$_Simple_types@UUSER_CONNECT_TIME@@@std@@@std@@@std@@QBE_NABV01@@Z PROC ; std::_Vector_const_iterator<std::_Vector_val<std::_Simple_types<USER_CONNECT_TIME> > >::operator==, COMDAT
; _this$ = ecx

; 147  :     _NODISCARD bool operator==(const _Vector_const_iterator& _Right) const {

  00000	55		 push	 ebp
  00001	8b ec		 mov	 ebp, esp
  00003	83 ec 48	 sub	 esp, 72			; 00000048H
  00006	53		 push	 ebx
  00007	56		 push	 esi
  00008	57		 push	 edi
  00009	89 4d fc	 mov	 DWORD PTR _this$[ebp], ecx

; 148  :         _Compat(_Right);

  0000c	8b 45 08	 mov	 eax, DWORD PTR __Right$[ebp]
  0000f	50		 push	 eax
  00010	8b 4d fc	 mov	 ecx, DWORD PTR _this$[ebp]
  00013	e8 00 00 00 00	 call	 ?_Compat@?$_Vector_const_iterator@V?$_Vector_val@U?$_Simple_types@UUSER_CONNECT_TIME@@@std@@@std@@@std@@QBEXABV12@@Z ; std::_Vector_const_iterator<std::_Vector_val<std::_Simple_types<USER_CONNECT_TIME> > >::_Compat

; 149  :         return _Ptr == _Right._Ptr;

  00018	8b 45 fc	 mov	 eax, DWORD PTR _this$[ebp]
  0001b	8b 4d 08	 mov	 ecx, DWORD PTR __Right$[ebp]
  0001e	8b 10		 mov	 edx, DWORD PTR [eax]
  00020	3b 11		 cmp	 edx, DWORD PTR [ecx]
  00022	75 09		 jne	 SHORT $LN3@operator
  00024	c7 45 b8 01 00
	00 00		 mov	 DWORD PTR tv69[ebp], 1
  0002b	eb 07		 jmp	 SHORT $LN4@operator
$LN3@operator:
  0002d	c7 45 b8 00 00
	00 00		 mov	 DWORD PTR tv69[ebp], 0
$LN4@operator:
  00034	8a 45 b8	 mov	 al, BYTE PTR tv69[ebp]

; 150  :     }

  00037	5f		 pop	 edi
  00038	5e		 pop	 esi
  00039	5b		 pop	 ebx
  0003a	8b e5		 mov	 esp, ebp
  0003c	5d		 pop	 ebp
  0003d	c2 04 00	 ret	 4
??8?$_Vector_const_iterator@V?$_Vector_val@U?$_Simple_types@UUSER_CONNECT_TIME@@@std@@@std@@@std@@QBE_NABV01@@Z ENDP ; std::_Vector_const_iterator<std::_Vector_val<std::_Simple_types<USER_CONNECT_TIME> > >::operator==
_TEXT	ENDS
; Function compile flags: /Odtp /ZI
; File C:\Program Files (x86)\Microsoft Visual Studio\2019\Community\VC\Tools\MSVC\14.27.29110\include\vector
;	COMDAT ??E?$_Vector_const_iterator@V?$_Vector_val@U?$_Simple_types@UUSER_CONNECT_TIME@@@std@@@std@@@std@@QAEAAV01@XZ
_TEXT	SEGMENT
_this$ = -4						; size = 4
??E?$_Vector_const_iterator@V?$_Vector_val@U?$_Simple_types@UUSER_CONNECT_TIME@@@std@@@std@@@std@@QAEAAV01@XZ PROC ; std::_Vector_const_iterator<std::_Vector_val<std::_Simple_types<USER_CONNECT_TIME> > >::operator++, COMDAT
; _this$ = ecx

; 68   :     _Vector_const_iterator& operator++() {

  00000	55		 push	 ebp
  00001	8b ec		 mov	 ebp, esp
  00003	83 ec 44	 sub	 esp, 68			; 00000044H
  00006	53		 push	 ebx
  00007	56		 push	 esi
  00008	57		 push	 edi
  00009	89 4d fc	 mov	 DWORD PTR _this$[ebp], ecx

; 69   : #if _ITERATOR_DEBUG_LEVEL != 0
; 70   :         const auto _Mycont = static_cast<const _Myvec*>(this->_Getcont());
; 71   :         _STL_VERIFY(_Ptr, "can't increment value-initialized vector iterator");
; 72   :         _STL_VERIFY(_Ptr < _Mycont->_Mylast, "can't increment vector iterator past end");
; 73   : #endif // _ITERATOR_DEBUG_LEVEL != 0
; 74   : 
; 75   :         ++_Ptr;

  0000c	8b 45 fc	 mov	 eax, DWORD PTR _this$[ebp]
  0000f	8b 08		 mov	 ecx, DWORD PTR [eax]
  00011	83 c1 24	 add	 ecx, 36			; 00000024H
  00014	8b 55 fc	 mov	 edx, DWORD PTR _this$[ebp]
  00017	89 0a		 mov	 DWORD PTR [edx], ecx

; 76   :         return *this;

  00019	8b 45 fc	 mov	 eax, DWORD PTR _this$[ebp]

; 77   :     }

  0001c	5f		 pop	 edi
  0001d	5e		 pop	 esi
  0001e	5b		 pop	 ebx
  0001f	8b e5		 mov	 esp, ebp
  00021	5d		 pop	 ebp
  00022	c3		 ret	 0
??E?$_Vector_const_iterator@V?$_Vector_val@U?$_Simple_types@UUSER_CONNECT_TIME@@@std@@@std@@@std@@QAEAAV01@XZ ENDP ; std::_Vector_const_iterator<std::_Vector_val<std::_Simple_types<USER_CONNECT_TIME> > >::operator++
_TEXT	ENDS
; Function compile flags: /Odtp /ZI
; File C:\Program Files (x86)\Microsoft Visual Studio\2019\Community\VC\Tools\MSVC\14.27.29110\include\vector
;	COMDAT ??D?$_Vector_const_iterator@V?$_Vector_val@U?$_Simple_types@UUSER_CONNECT_TIME@@@std@@@std@@@std@@QBEABUUSER_CONNECT_TIME@@XZ
_TEXT	SEGMENT
_this$ = -4						; size = 4
??D?$_Vector_const_iterator@V?$_Vector_val@U?$_Simple_types@UUSER_CONNECT_TIME@@@std@@@std@@@std@@QBEABUUSER_CONNECT_TIME@@XZ PROC ; std::_Vector_const_iterator<std::_Vector_val<std::_Simple_types<USER_CONNECT_TIME> > >::operator*, COMDAT
; _this$ = ecx

; 46   :     _NODISCARD reference operator*() const {

  00000	55		 push	 ebp
  00001	8b ec		 mov	 ebp, esp
  00003	83 ec 44	 sub	 esp, 68			; 00000044H
  00006	53		 push	 ebx
  00007	56		 push	 esi
  00008	57		 push	 edi
  00009	89 4d fc	 mov	 DWORD PTR _this$[ebp], ecx

; 47   : #if _ITERATOR_DEBUG_LEVEL != 0
; 48   :         const auto _Mycont = static_cast<const _Myvec*>(this->_Getcont());
; 49   :         _STL_VERIFY(_Ptr, "can't dereference value-initialized vector iterator");
; 50   :         _STL_VERIFY(
; 51   :             _Mycont->_Myfirst <= _Ptr && _Ptr < _Mycont->_Mylast, "can't dereference out of range vector iterator");
; 52   : #endif // _ITERATOR_DEBUG_LEVEL != 0
; 53   : 
; 54   :         return *_Ptr;

  0000c	8b 45 fc	 mov	 eax, DWORD PTR _this$[ebp]
  0000f	8b 00		 mov	 eax, DWORD PTR [eax]

; 55   :     }

  00011	5f		 pop	 edi
  00012	5e		 pop	 esi
  00013	5b		 pop	 ebx
  00014	8b e5		 mov	 esp, ebp
  00016	5d		 pop	 ebp
  00017	c3		 ret	 0
??D?$_Vector_const_iterator@V?$_Vector_val@U?$_Simple_types@UUSER_CONNECT_TIME@@@std@@@std@@@std@@QBEABUUSER_CONNECT_TIME@@XZ ENDP ; std::_Vector_const_iterator<std::_Vector_val<std::_Simple_types<USER_CONNECT_TIME> > >::operator*
_TEXT	ENDS
; Function compile flags: /Odtp /ZI
; File C:\Program Files (x86)\Microsoft Visual Studio\2019\Community\VC\Tools\MSVC\14.27.29110\include\vector
;	COMDAT ??0?$_Vector_const_iterator@V?$_Vector_val@U?$_Simple_types@UUSER_CONNECT_TIME@@@std@@@std@@@std@@QAE@PAUUSER_CONNECT_TIME@@PBU_Container_base0@1@@Z
_TEXT	SEGMENT
_this$ = -4						; size = 4
__Parg$ = 8						; size = 4
__Pvector$ = 12						; size = 4
??0?$_Vector_const_iterator@V?$_Vector_val@U?$_Simple_types@UUSER_CONNECT_TIME@@@std@@@std@@@std@@QAE@PAUUSER_CONNECT_TIME@@PBU_Container_base0@1@@Z PROC ; std::_Vector_const_iterator<std::_Vector_val<std::_Simple_types<USER_CONNECT_TIME> > >::_Vector_const_iterator<std::_Vector_val<std::_Simple_types<USER_CONNECT_TIME> > >, COMDAT
; _this$ = ecx

; 42   :     _Vector_const_iterator(_Tptr _Parg, const _Container_base* _Pvector) noexcept : _Ptr(_Parg) {

  00000	55		 push	 ebp
  00001	8b ec		 mov	 ebp, esp
  00003	83 ec 44	 sub	 esp, 68			; 00000044H
  00006	53		 push	 ebx
  00007	56		 push	 esi
  00008	57		 push	 edi
  00009	89 4d fc	 mov	 DWORD PTR _this$[ebp], ecx
  0000c	8b 45 fc	 mov	 eax, DWORD PTR _this$[ebp]
  0000f	8b 4d 08	 mov	 ecx, DWORD PTR __Parg$[ebp]
  00012	89 08		 mov	 DWORD PTR [eax], ecx

; 43   :         this->_Adopt(_Pvector);

  00014	8b 45 0c	 mov	 eax, DWORD PTR __Pvector$[ebp]
  00017	50		 push	 eax
  00018	8b 4d fc	 mov	 ecx, DWORD PTR _this$[ebp]
  0001b	e8 00 00 00 00	 call	 ?_Adopt@_Iterator_base0@std@@QAEXPBX@Z ; std::_Iterator_base0::_Adopt

; 44   :     }

  00020	8b 45 fc	 mov	 eax, DWORD PTR _this$[ebp]
  00023	5f		 pop	 edi
  00024	5e		 pop	 esi
  00025	5b		 pop	 ebx
  00026	8b e5		 mov	 esp, ebp
  00028	5d		 pop	 ebp
  00029	c2 08 00	 ret	 8
??0?$_Vector_const_iterator@V?$_Vector_val@U?$_Simple_types@UUSER_CONNECT_TIME@@@std@@@std@@@std@@QAE@PAUUSER_CONNECT_TIME@@PBU_Container_base0@1@@Z ENDP ; std::_Vector_const_iterator<std::_Vector_val<std::_Simple_types<USER_CONNECT_TIME> > >::_Vector_const_iterator<std::_Vector_val<std::_Simple_types<USER_CONNECT_TIME> > >
_TEXT	ENDS
; Function compile flags: /Odtp /ZI
; File C:\Program Files (x86)\Microsoft Visual Studio\2019\Community\VC\Tools\MSVC\14.27.29110\include\vector
;	COMDAT ??0?$_Vector_const_iterator@V?$_Vector_val@U?$_Simple_types@UUSER_CONNECT_TIME@@@std@@@std@@@std@@QAE@XZ
_TEXT	SEGMENT
_this$ = -4						; size = 4
??0?$_Vector_const_iterator@V?$_Vector_val@U?$_Simple_types@UUSER_CONNECT_TIME@@@std@@@std@@@std@@QAE@XZ PROC ; std::_Vector_const_iterator<std::_Vector_val<std::_Simple_types<USER_CONNECT_TIME> > >::_Vector_const_iterator<std::_Vector_val<std::_Simple_types<USER_CONNECT_TIME> > >, COMDAT
; _this$ = ecx

; 40   :     _Vector_const_iterator() noexcept : _Ptr() {}

  00000	55		 push	 ebp
  00001	8b ec		 mov	 ebp, esp
  00003	83 ec 44	 sub	 esp, 68			; 00000044H
  00006	53		 push	 ebx
  00007	56		 push	 esi
  00008	57		 push	 edi
  00009	89 4d fc	 mov	 DWORD PTR _this$[ebp], ecx
  0000c	8b 45 fc	 mov	 eax, DWORD PTR _this$[ebp]
  0000f	c7 00 00 00 00
	00		 mov	 DWORD PTR [eax], 0
  00015	8b 45 fc	 mov	 eax, DWORD PTR _this$[ebp]
  00018	5f		 pop	 edi
  00019	5e		 pop	 esi
  0001a	5b		 pop	 ebx
  0001b	8b e5		 mov	 esp, ebp
  0001d	5d		 pop	 ebp
  0001e	c3		 ret	 0
??0?$_Vector_const_iterator@V?$_Vector_val@U?$_Simple_types@UUSER_CONNECT_TIME@@@std@@@std@@@std@@QAE@XZ ENDP ; std::_Vector_const_iterator<std::_Vector_val<std::_Simple_types<USER_CONNECT_TIME> > >::_Vector_const_iterator<std::_Vector_val<std::_Simple_types<USER_CONNECT_TIME> > >
_TEXT	ENDS
; Function compile flags: /Odtp /ZI
;	COMDAT ??__FvtUserConnectTime@@YAXXZ
text$yd	SEGMENT
??__FvtUserConnectTime@@YAXXZ PROC			; `dynamic atexit destructor for 'vtUserConnectTime'', COMDAT
  00000	55		 push	 ebp
  00001	8b ec		 mov	 ebp, esp
  00003	83 ec 40	 sub	 esp, 64			; 00000040H
  00006	53		 push	 ebx
  00007	56		 push	 esi
  00008	57		 push	 edi
  00009	b9 00 00 00 00	 mov	 ecx, OFFSET ?vtUserConnectTime@@3V?$vector@UUSER_CONNECT_TIME@@V?$allocator@UUSER_CONNECT_TIME@@@std@@@std@@A ; vtUserConnectTime
  0000e	e8 00 00 00 00	 call	 ??1?$vector@UUSER_CONNECT_TIME@@V?$allocator@UUSER_CONNECT_TIME@@@std@@@std@@QAE@XZ ; std::vector<USER_CONNECT_TIME,std::allocator<USER_CONNECT_TIME> >::~vector<USER_CONNECT_TIME,std::allocator<USER_CONNECT_TIME> >
  00013	5f		 pop	 edi
  00014	5e		 pop	 esi
  00015	5b		 pop	 ebx
  00016	8b e5		 mov	 esp, ebp
  00018	5d		 pop	 ebp
  00019	c3		 ret	 0
??__FvtUserConnectTime@@YAXXZ ENDP			; `dynamic atexit destructor for 'vtUserConnectTime''
text$yd	ENDS
; Function compile flags: /Odtp /ZI
; File C:\Mu Online\Mu-GS-Webzen-MC-10093\GameServer\AntiHack.cpp
;	COMDAT ??__EvtUserConnectTime@@YAXXZ
text$di	SEGMENT
??__EvtUserConnectTime@@YAXXZ PROC			; `dynamic initializer for 'vtUserConnectTime'', COMDAT

; 7    : _vtUSER_CONNECT_TIME	vtUserConnectTime;

  00000	55		 push	 ebp
  00001	8b ec		 mov	 ebp, esp
  00003	83 ec 40	 sub	 esp, 64			; 00000040H
  00006	53		 push	 ebx
  00007	56		 push	 esi
  00008	57		 push	 edi
  00009	b9 00 00 00 00	 mov	 ecx, OFFSET ?vtUserConnectTime@@3V?$vector@UUSER_CONNECT_TIME@@V?$allocator@UUSER_CONNECT_TIME@@@std@@@std@@A ; vtUserConnectTime
  0000e	e8 00 00 00 00	 call	 ??0?$vector@UUSER_CONNECT_TIME@@V?$allocator@UUSER_CONNECT_TIME@@@std@@@std@@QAE@XZ ; std::vector<USER_CONNECT_TIME,std::allocator<USER_CONNECT_TIME> >::vector<USER_CONNECT_TIME,std::allocator<USER_CONNECT_TIME> >
  00013	68 00 00 00 00	 push	 OFFSET ??__FvtUserConnectTime@@YAXXZ ; `dynamic atexit destructor for 'vtUserConnectTime''
  00018	e8 00 00 00 00	 call	 _atexit
  0001d	83 c4 04	 add	 esp, 4
  00020	5f		 pop	 edi
  00021	5e		 pop	 esi
  00022	5b		 pop	 ebx
  00023	8b e5		 mov	 esp, ebp
  00025	5d		 pop	 ebp
  00026	c3		 ret	 0
??__EvtUserConnectTime@@YAXXZ ENDP			; `dynamic initializer for 'vtUserConnectTime''
text$di	ENDS
; Function compile flags: /Odtp /ZI
;	COMDAT ??__Fvt_IPBlock@@YAXXZ
text$yd	SEGMENT
??__Fvt_IPBlock@@YAXXZ PROC				; `dynamic atexit destructor for 'vt_IPBlock'', COMDAT
  00000	55		 push	 ebp
  00001	8b ec		 mov	 ebp, esp
  00003	83 ec 40	 sub	 esp, 64			; 00000040H
  00006	53		 push	 ebx
  00007	56		 push	 esi
  00008	57		 push	 edi
  00009	b9 00 00 00 00	 mov	 ecx, OFFSET ?vt_IPBlock@@3V?$vector@UIP_BLOCK@@V?$allocator@UIP_BLOCK@@@std@@@std@@A ; vt_IPBlock
  0000e	e8 00 00 00 00	 call	 ??1?$vector@UIP_BLOCK@@V?$allocator@UIP_BLOCK@@@std@@@std@@QAE@XZ ; std::vector<IP_BLOCK,std::allocator<IP_BLOCK> >::~vector<IP_BLOCK,std::allocator<IP_BLOCK> >
  00013	5f		 pop	 edi
  00014	5e		 pop	 esi
  00015	5b		 pop	 ebx
  00016	8b e5		 mov	 esp, ebp
  00018	5d		 pop	 ebp
  00019	c3		 ret	 0
??__Fvt_IPBlock@@YAXXZ ENDP				; `dynamic atexit destructor for 'vt_IPBlock''
text$yd	ENDS
; Function compile flags: /Odtp /ZI
; File C:\Mu Online\Mu-GS-Webzen-MC-10093\GameServer\AntiHack.cpp
;	COMDAT ??__Evt_IPBlock@@YAXXZ
text$di	SEGMENT
??__Evt_IPBlock@@YAXXZ PROC				; `dynamic initializer for 'vt_IPBlock'', COMDAT

; 6    : _vtIP_BLOCK				vt_IPBlock;

  00000	55		 push	 ebp
  00001	8b ec		 mov	 ebp, esp
  00003	83 ec 40	 sub	 esp, 64			; 00000040H
  00006	53		 push	 ebx
  00007	56		 push	 esi
  00008	57		 push	 edi
  00009	b9 00 00 00 00	 mov	 ecx, OFFSET ?vt_IPBlock@@3V?$vector@UIP_BLOCK@@V?$allocator@UIP_BLOCK@@@std@@@std@@A ; vt_IPBlock
  0000e	e8 00 00 00 00	 call	 ??0?$vector@UIP_BLOCK@@V?$allocator@UIP_BLOCK@@@std@@@std@@QAE@XZ ; std::vector<IP_BLOCK,std::allocator<IP_BLOCK> >::vector<IP_BLOCK,std::allocator<IP_BLOCK> >
  00013	68 00 00 00 00	 push	 OFFSET ??__Fvt_IPBlock@@YAXXZ ; `dynamic atexit destructor for 'vt_IPBlock''
  00018	e8 00 00 00 00	 call	 _atexit
  0001d	83 c4 04	 add	 esp, 4
  00020	5f		 pop	 edi
  00021	5e		 pop	 esi
  00022	5b		 pop	 ebx
  00023	8b e5		 mov	 esp, ebp
  00025	5d		 pop	 ebp
  00026	c3		 ret	 0
??__Evt_IPBlock@@YAXXZ ENDP				; `dynamic initializer for 'vt_IPBlock''
text$di	ENDS
; Function compile flags: /Odtp /ZI
; File C:\Mu Online\Mu-GS-Webzen-MC-10093\GameServer\AntiHack.cpp
;	COMDAT ?setBlockIP@@YAXPAUIP_BLOCK@@@Z
_TEXT	SEGMENT
$T1 = -84						; size = 4
$T2 = -80						; size = 4
$T3 = -76						; size = 4
$T4 = -72						; size = 4
$T5 = -68						; size = 4
_pIpBlock$ = 8						; size = 4
?setBlockIP@@YAXPAUIP_BLOCK@@@Z PROC			; setBlockIP, COMDAT

; 74   : {

  00000	55		 push	 ebp
  00001	8b ec		 mov	 ebp, esp
  00003	83 ec 54	 sub	 esp, 84			; 00000054H
  00006	53		 push	 ebx
  00007	56		 push	 esi
  00008	57		 push	 edi

; 75   : 	if( vt_IPBlock.size() < 200 )

  00009	b9 00 00 00 00	 mov	 ecx, OFFSET ?vt_IPBlock@@3V?$vector@UIP_BLOCK@@V?$allocator@UIP_BLOCK@@@std@@@std@@A ; vt_IPBlock
  0000e	e8 00 00 00 00	 call	 ?size@?$vector@UIP_BLOCK@@V?$allocator@UIP_BLOCK@@@std@@@std@@QBEIXZ ; std::vector<IP_BLOCK,std::allocator<IP_BLOCK> >::size
  00013	3d c8 00 00 00	 cmp	 eax, 200		; 000000c8H
  00018	73 10		 jae	 SHORT $LN2@setBlockIP

; 76   : 	{
; 77   : 		vt_IPBlock.push_back(*pIpBlock);

  0001a	8b 45 08	 mov	 eax, DWORD PTR _pIpBlock$[ebp]
  0001d	50		 push	 eax
  0001e	b9 00 00 00 00	 mov	 ecx, OFFSET ?vt_IPBlock@@3V?$vector@UIP_BLOCK@@V?$allocator@UIP_BLOCK@@@std@@@std@@A ; vt_IPBlock
  00023	e8 00 00 00 00	 call	 ?push_back@?$vector@UIP_BLOCK@@V?$allocator@UIP_BLOCK@@@std@@@std@@QAEXABUIP_BLOCK@@@Z ; std::vector<IP_BLOCK,std::allocator<IP_BLOCK> >::push_back

; 78   : 
; 79   : 		//LogAddTD_TempLog("[connect Hack Attack - SetBlockIP] Account [%s] IP [%s]", pIpBlock->szAccount, pIpBlock->Ip_addr);
; 80   : 	}

  00028	eb 4a		 jmp	 SHORT $LN1@setBlockIP
$LN2@setBlockIP:

; 81   : 	else
; 82   : 	{
; 83   : 		LogAddTD_TempLog(", [BlockIP] Size Max");

  0002a	68 00 00 00 00	 push	 OFFSET ??_C@_0BF@OGNCCDCF@?0?5?$FLBlockIP?$FN?5Size?5Max@
  0002f	ff 15 00 00 00
	00		 call	 DWORD PTR ?LogAddTD_TempLog@@3P6AXPADZZA ; LogAddTD_TempLog
  00035	83 c4 04	 add	 esp, 4

; 84   : 
; 85   : 		vt_IPBlock.erase(vt_IPBlock.begin(), vt_IPBlock.end());

  00038	8d 45 b8	 lea	 eax, DWORD PTR $T4[ebp]
  0003b	50		 push	 eax
  0003c	b9 00 00 00 00	 mov	 ecx, OFFSET ?vt_IPBlock@@3V?$vector@UIP_BLOCK@@V?$allocator@UIP_BLOCK@@@std@@@std@@A ; vt_IPBlock
  00041	e8 00 00 00 00	 call	 ?end@?$vector@UIP_BLOCK@@V?$allocator@UIP_BLOCK@@@std@@@std@@QAE?AV?$_Vector_iterator@V?$_Vector_val@U?$_Simple_types@UIP_BLOCK@@@std@@@std@@@2@XZ ; std::vector<IP_BLOCK,std::allocator<IP_BLOCK> >::end
  00046	8b 08		 mov	 ecx, DWORD PTR [eax]
  00048	89 4d bc	 mov	 DWORD PTR $T5[ebp], ecx
  0004b	8d 55 b0	 lea	 edx, DWORD PTR $T2[ebp]
  0004e	52		 push	 edx
  0004f	b9 00 00 00 00	 mov	 ecx, OFFSET ?vt_IPBlock@@3V?$vector@UIP_BLOCK@@V?$allocator@UIP_BLOCK@@@std@@@std@@A ; vt_IPBlock
  00054	e8 00 00 00 00	 call	 ?begin@?$vector@UIP_BLOCK@@V?$allocator@UIP_BLOCK@@@std@@@std@@QAE?AV?$_Vector_iterator@V?$_Vector_val@U?$_Simple_types@UIP_BLOCK@@@std@@@std@@@2@XZ ; std::vector<IP_BLOCK,std::allocator<IP_BLOCK> >::begin
  00059	8b 00		 mov	 eax, DWORD PTR [eax]
  0005b	89 45 b4	 mov	 DWORD PTR $T3[ebp], eax
  0005e	8b 4d bc	 mov	 ecx, DWORD PTR $T5[ebp]
  00061	51		 push	 ecx
  00062	8b 55 b4	 mov	 edx, DWORD PTR $T3[ebp]
  00065	52		 push	 edx
  00066	8d 45 ac	 lea	 eax, DWORD PTR $T1[ebp]
  00069	50		 push	 eax
  0006a	b9 00 00 00 00	 mov	 ecx, OFFSET ?vt_IPBlock@@3V?$vector@UIP_BLOCK@@V?$allocator@UIP_BLOCK@@@std@@@std@@A ; vt_IPBlock
  0006f	e8 00 00 00 00	 call	 ?erase@?$vector@UIP_BLOCK@@V?$allocator@UIP_BLOCK@@@std@@@std@@QAE?AV?$_Vector_iterator@V?$_Vector_val@U?$_Simple_types@UIP_BLOCK@@@std@@@std@@@2@V?$_Vector_const_iterator@V?$_Vector_val@U?$_Simple_types@UIP_BLOCK@@@std@@@std@@@2@0@Z ; std::vector<IP_BLOCK,std::allocator<IP_BLOCK> >::erase
$LN1@setBlockIP:

; 86   : 	}
; 87   : 
; 88   : 	//LogAddTD_TempLog("[connect Hack Attack - SetBlockIP] BlockCnt [%d]", vt_IPBlock.size());
; 89   : }

  00074	5f		 pop	 edi
  00075	5e		 pop	 esi
  00076	5b		 pop	 ebx
  00077	8b e5		 mov	 esp, ebp
  00079	5d		 pop	 ebp
  0007a	c3		 ret	 0
?setBlockIP@@YAXPAUIP_BLOCK@@@Z ENDP			; setBlockIP
_TEXT	ENDS
; Function compile flags: /Odtp /ZI
; File C:\Mu Online\Mu-GS-Webzen-MC-10093\GameServer\AntiHack.cpp
;	COMDAT ?ChkBlockIp@@YA_NPAUIP_BLOCK@@@Z
_TEXT	SEGMENT
$T1 = -104						; size = 4
$T2 = -100						; size = 4
$T3 = -96						; size = 4
$T4 = -92						; size = 4
_iMin$5 = -24						; size = 4
_iSec$6 = -20						; size = 4
_fTime$7 = -16						; size = 4
_dwTickCount$8 = -12					; size = 4
_ipBlock$9 = -8						; size = 4
_iter$ = -4						; size = 4
_pIpBlock$ = 8						; size = 4
?ChkBlockIp@@YA_NPAUIP_BLOCK@@@Z PROC			; ChkBlockIp, COMDAT

; 92   : {

  00000	55		 push	 ebp
  00001	8b ec		 mov	 ebp, esp
  00003	83 ec 68	 sub	 esp, 104		; 00000068H
  00006	53		 push	 ebx
  00007	56		 push	 esi
  00008	57		 push	 edi

; 93   : 	_IterIP_BLOCK iter;

  00009	8d 4d fc	 lea	 ecx, DWORD PTR _iter$[ebp]
  0000c	e8 00 00 00 00	 call	 ??0?$_Vector_iterator@V?$_Vector_val@U?$_Simple_types@UIP_BLOCK@@@std@@@std@@@std@@QAE@XZ

; 94   : 	
; 95   : 	for (iter = vt_IPBlock.begin(); iter != vt_IPBlock.end(); ++iter)

  00011	8d 45 a4	 lea	 eax, DWORD PTR $T4[ebp]
  00014	50		 push	 eax
  00015	b9 00 00 00 00	 mov	 ecx, OFFSET ?vt_IPBlock@@3V?$vector@UIP_BLOCK@@V?$allocator@UIP_BLOCK@@@std@@@std@@A ; vt_IPBlock
  0001a	e8 00 00 00 00	 call	 ?begin@?$vector@UIP_BLOCK@@V?$allocator@UIP_BLOCK@@@std@@@std@@QAE?AV?$_Vector_iterator@V?$_Vector_val@U?$_Simple_types@UIP_BLOCK@@@std@@@std@@@2@XZ ; std::vector<IP_BLOCK,std::allocator<IP_BLOCK> >::begin
  0001f	8b 08		 mov	 ecx, DWORD PTR [eax]
  00021	89 4d fc	 mov	 DWORD PTR _iter$[ebp], ecx
  00024	eb 08		 jmp	 SHORT $LN4@ChkBlockIp
$LN2@ChkBlockIp:
  00026	8d 4d fc	 lea	 ecx, DWORD PTR _iter$[ebp]
  00029	e8 00 00 00 00	 call	 ??E?$_Vector_iterator@V?$_Vector_val@U?$_Simple_types@UIP_BLOCK@@@std@@@std@@@std@@QAEAAV01@XZ ; std::_Vector_iterator<std::_Vector_val<std::_Simple_types<IP_BLOCK> > >::operator++
$LN4@ChkBlockIp:
  0002e	8d 45 a0	 lea	 eax, DWORD PTR $T3[ebp]
  00031	50		 push	 eax
  00032	b9 00 00 00 00	 mov	 ecx, OFFSET ?vt_IPBlock@@3V?$vector@UIP_BLOCK@@V?$allocator@UIP_BLOCK@@@std@@@std@@A ; vt_IPBlock
  00037	e8 00 00 00 00	 call	 ?end@?$vector@UIP_BLOCK@@V?$allocator@UIP_BLOCK@@@std@@@std@@QAE?AV?$_Vector_iterator@V?$_Vector_val@U?$_Simple_types@UIP_BLOCK@@@std@@@std@@@2@XZ ; std::vector<IP_BLOCK,std::allocator<IP_BLOCK> >::end
  0003c	50		 push	 eax
  0003d	8d 4d fc	 lea	 ecx, DWORD PTR _iter$[ebp]
  00040	e8 00 00 00 00	 call	 ??9?$_Vector_const_iterator@V?$_Vector_val@U?$_Simple_types@UIP_BLOCK@@@std@@@std@@@std@@QBE_NABV01@@Z ; std::_Vector_const_iterator<std::_Vector_val<std::_Simple_types<IP_BLOCK> > >::operator!=
  00045	0f b6 c8	 movzx	 ecx, al
  00048	85 c9		 test	 ecx, ecx
  0004a	0f 84 f4 00 00
	00		 je	 $LN3@ChkBlockIp

; 96   : 	{
; 97   : 		IP_BLOCK& ipBlock = *iter;

  00050	8d 4d fc	 lea	 ecx, DWORD PTR _iter$[ebp]
  00053	e8 00 00 00 00	 call	 ??D?$_Vector_iterator@V?$_Vector_val@U?$_Simple_types@UIP_BLOCK@@@std@@@std@@@std@@QBEAAUIP_BLOCK@@XZ ; std::_Vector_iterator<std::_Vector_val<std::_Simple_types<IP_BLOCK> > >::operator*
  00058	89 45 f8	 mov	 DWORD PTR _ipBlock$9[ebp], eax

; 98   : 		if ( strcmp(ipBlock.Ip_addr, pIpBlock->Ip_addr) == 0 )

  0005b	8b 45 08	 mov	 eax, DWORD PTR _pIpBlock$[ebp]
  0005e	83 c0 0b	 add	 eax, 11			; 0000000bH
  00061	50		 push	 eax
  00062	8b 4d f8	 mov	 ecx, DWORD PTR _ipBlock$9[ebp]
  00065	83 c1 0b	 add	 ecx, 11			; 0000000bH
  00068	51		 push	 ecx
  00069	e8 00 00 00 00	 call	 _strcmp
  0006e	83 c4 08	 add	 esp, 8
  00071	85 c0		 test	 eax, eax
  00073	0f 85 c6 00 00
	00		 jne	 $LN5@ChkBlockIp

; 99   : 		{
; 100  : 			DWORD dwTickCount = GetTickCount();

  00079	ff 15 00 00 00
	00		 call	 DWORD PTR __imp__GetTickCount@0
  0007f	89 45 f4	 mov	 DWORD PTR _dwTickCount$8[ebp], eax

; 101  : 			
; 102  : 			if( (dwTickCount - ipBlock.dwBlockTime) > ((1000 * 60) * gConnectHackIPBlockTime) )

  00082	8b 45 f8	 mov	 eax, DWORD PTR _ipBlock$9[ebp]
  00085	8b 4d f4	 mov	 ecx, DWORD PTR _dwTickCount$8[ebp]
  00088	2b 48 1c	 sub	 ecx, DWORD PTR [eax+28]
  0008b	69 15 00 00 00
	00 60 ea 00 00	 imul	 edx, DWORD PTR ?gConnectHackIPBlockTime@@3HA, 60000 ; gConnectHackIPBlockTime
  00095	3b ca		 cmp	 ecx, edx
  00097	76 24		 jbe	 SHORT $LN6@ChkBlockIp

; 103  : 			{
; 104  : 				vt_IPBlock.erase(iter);

  00099	8b 45 fc	 mov	 eax, DWORD PTR _iter$[ebp]
  0009c	89 45 9c	 mov	 DWORD PTR $T2[ebp], eax
  0009f	8b 4d 9c	 mov	 ecx, DWORD PTR $T2[ebp]
  000a2	51		 push	 ecx
  000a3	8d 55 98	 lea	 edx, DWORD PTR $T1[ebp]
  000a6	52		 push	 edx
  000a7	b9 00 00 00 00	 mov	 ecx, OFFSET ?vt_IPBlock@@3V?$vector@UIP_BLOCK@@V?$allocator@UIP_BLOCK@@@std@@@std@@A ; vt_IPBlock
  000ac	e8 00 00 00 00	 call	 ?erase@?$vector@UIP_BLOCK@@V?$allocator@UIP_BLOCK@@@std@@@std@@QAE?AV?$_Vector_iterator@V?$_Vector_val@U?$_Simple_types@UIP_BLOCK@@@std@@@std@@@2@V?$_Vector_const_iterator@V?$_Vector_val@U?$_Simple_types@UIP_BLOCK@@@std@@@std@@@2@@Z ; std::vector<IP_BLOCK,std::allocator<IP_BLOCK> >::erase

; 105  : 				
; 106  : 				return false;

  000b1	32 c0		 xor	 al, al
  000b3	e9 8e 00 00 00	 jmp	 $LN1@ChkBlockIp

; 107  : 			}

  000b8	e9 82 00 00 00	 jmp	 $LN5@ChkBlockIp
$LN6@ChkBlockIp:

; 108  : 			else
; 109  : 			{
; 110  : 				int fTime = (dwTickCount - ipBlock.dwBlockTime) / 1000;

  000bd	8b 45 f8	 mov	 eax, DWORD PTR _ipBlock$9[ebp]
  000c0	8b 4d f4	 mov	 ecx, DWORD PTR _dwTickCount$8[ebp]
  000c3	2b 48 1c	 sub	 ecx, DWORD PTR [eax+28]
  000c6	8b c1		 mov	 eax, ecx
  000c8	33 d2		 xor	 edx, edx
  000ca	b9 e8 03 00 00	 mov	 ecx, 1000		; 000003e8H
  000cf	f7 f1		 div	 ecx
  000d1	89 45 f0	 mov	 DWORD PTR _fTime$7[ebp], eax

; 111  : 				int	iSec = 0;

  000d4	c7 45 ec 00 00
	00 00		 mov	 DWORD PTR _iSec$6[ebp], 0

; 112  : 				int	iMin = 0;

  000db	c7 45 e8 00 00
	00 00		 mov	 DWORD PTR _iMin$5[ebp], 0

; 113  : 
; 114  : 				iMin = fTime / 60;

  000e2	8b 45 f0	 mov	 eax, DWORD PTR _fTime$7[ebp]
  000e5	99		 cdq
  000e6	b9 3c 00 00 00	 mov	 ecx, 60			; 0000003cH
  000eb	f7 f9		 idiv	 ecx
  000ed	89 45 e8	 mov	 DWORD PTR _iMin$5[ebp], eax

; 115  : 
; 116  : 				if( iMin > 0)

  000f0	83 7d e8 00	 cmp	 DWORD PTR _iMin$5[ebp], 0
  000f4	7e 10		 jle	 SHORT $LN8@ChkBlockIp

; 117  : 				{
; 118  : 					iSec = fTime % 60;

  000f6	8b 45 f0	 mov	 eax, DWORD PTR _fTime$7[ebp]
  000f9	99		 cdq
  000fa	b9 3c 00 00 00	 mov	 ecx, 60			; 0000003cH
  000ff	f7 f9		 idiv	 ecx
  00101	89 55 ec	 mov	 DWORD PTR _iSec$6[ebp], edx

; 119  : 				}

  00104	eb 06		 jmp	 SHORT $LN9@ChkBlockIp
$LN8@ChkBlockIp:

; 120  : 				else
; 121  : 				{
; 122  : 					iSec = fTime;

  00106	8b 45 f0	 mov	 eax, DWORD PTR _fTime$7[ebp]
  00109	89 45 ec	 mov	 DWORD PTR _iSec$6[ebp], eax
$LN9@ChkBlockIp:

; 123  : 				}
; 124  : 
; 125  : 				if( gConnectRenewBlockTime == 1 )

  0010c	83 3d 00 00 00
	00 01		 cmp	 DWORD PTR ?gConnectRenewBlockTime@@3HA, 1 ; gConnectRenewBlockTime
  00113	75 09		 jne	 SHORT $LN10@ChkBlockIp

; 126  : 				{
; 127  : 					//     .
; 128  : 					ipBlock.dwBlockTime = dwTickCount;

  00115	8b 45 f8	 mov	 eax, DWORD PTR _ipBlock$9[ebp]
  00118	8b 4d f4	 mov	 ecx, DWORD PTR _dwTickCount$8[ebp]
  0011b	89 48 1c	 mov	 DWORD PTR [eax+28], ecx
$LN10@ChkBlockIp:

; 129  : 				}
; 130  : 
; 131  : 				// .
; 132  : 				LogAddTD_TempLog(", [BlockIP Disconnect], , IP [%s], ReConTime %02d:%02d", ipBlock.Ip_addr, iMin , iSec);

  0011e	8b 45 ec	 mov	 eax, DWORD PTR _iSec$6[ebp]
  00121	50		 push	 eax
  00122	8b 4d e8	 mov	 ecx, DWORD PTR _iMin$5[ebp]
  00125	51		 push	 ecx
  00126	8b 55 f8	 mov	 edx, DWORD PTR _ipBlock$9[ebp]
  00129	83 c2 0b	 add	 edx, 11			; 0000000bH
  0012c	52		 push	 edx
  0012d	68 00 00 00 00	 push	 OFFSET ??_C@_0DH@GNJHFNCG@?0?5?$FLBlockIP?5Disconnect?$FN?0?5?0?5IP?5?$FL?$CF@
  00132	ff 15 00 00 00
	00		 call	 DWORD PTR ?LogAddTD_TempLog@@3P6AXPADZZA ; LogAddTD_TempLog
  00138	83 c4 10	 add	 esp, 16			; 00000010H

; 133  : 
; 134  : 				return true;

  0013b	b0 01		 mov	 al, 1
  0013d	eb 07		 jmp	 SHORT $LN1@ChkBlockIp
$LN5@ChkBlockIp:

; 135  : 			}
; 136  : 		}
; 137  : 	}

  0013f	e9 e2 fe ff ff	 jmp	 $LN2@ChkBlockIp
$LN3@ChkBlockIp:

; 138  : 	
; 139  : 	return false;

  00144	32 c0		 xor	 al, al
$LN1@ChkBlockIp:

; 140  : }

  00146	5f		 pop	 edi
  00147	5e		 pop	 esi
  00148	5b		 pop	 ebx
  00149	8b e5		 mov	 esp, ebp
  0014b	5d		 pop	 ebp
  0014c	c3		 ret	 0
?ChkBlockIp@@YA_NPAUIP_BLOCK@@@Z ENDP			; ChkBlockIp
_TEXT	ENDS
; Function compile flags: /Odtp /ZI
; File C:\Program Files (x86)\Microsoft Visual Studio\2019\Community\VC\Tools\MSVC\14.27.29110\include\xmemory
;	COMDAT ?_Get_first@?$_Compressed_pair@V?$allocator@UIP_BLOCK@@@std@@V?$_Vector_val@U?$_Simple_types@UIP_BLOCK@@@std@@@2@$00@std@@QBEABV?$allocator@UIP_BLOCK@@@2@XZ
_TEXT	SEGMENT
_this$ = -4						; size = 4
?_Get_first@?$_Compressed_pair@V?$allocator@UIP_BLOCK@@@std@@V?$_Vector_val@U?$_Simple_types@UIP_BLOCK@@@std@@@2@$00@std@@QBEABV?$allocator@UIP_BLOCK@@@2@XZ PROC ; std::_Compressed_pair<std::allocator<IP_BLOCK>,std::_Vector_val<std::_Simple_types<IP_BLOCK> >,1>::_Get_first, COMDAT
; _this$ = ecx

; 1347 :     constexpr const _Ty1& _Get_first() const noexcept {

  00000	55		 push	 ebp
  00001	8b ec		 mov	 ebp, esp
  00003	83 ec 44	 sub	 esp, 68			; 00000044H
  00006	53		 push	 ebx
  00007	56		 push	 esi
  00008	57		 push	 edi
  00009	89 4d fc	 mov	 DWORD PTR _this$[ebp], ecx

; 1348 :         return *this;

  0000c	8b 45 fc	 mov	 eax, DWORD PTR _this$[ebp]

; 1349 :     }

  0000f	5f		 pop	 edi
  00010	5e		 pop	 esi
  00011	5b		 pop	 ebx
  00012	8b e5		 mov	 esp, ebp
  00014	5d		 pop	 ebp
  00015	c3		 ret	 0
?_Get_first@?$_Compressed_pair@V?$allocator@UIP_BLOCK@@@std@@V?$_Vector_val@U?$_Simple_types@UIP_BLOCK@@@std@@@2@$00@std@@QBEABV?$allocator@UIP_BLOCK@@@2@XZ ENDP ; std::_Compressed_pair<std::allocator<IP_BLOCK>,std::_Vector_val<std::_Simple_types<IP_BLOCK> >,1>::_Get_first
_TEXT	ENDS
; Function compile flags: /Odtp /ZI
; File C:\Program Files (x86)\Microsoft Visual Studio\2019\Community\VC\Tools\MSVC\14.27.29110\include\xmemory
;	COMDAT ?_Get_first@?$_Compressed_pair@V?$allocator@UIP_BLOCK@@@std@@V?$_Vector_val@U?$_Simple_types@UIP_BLOCK@@@std@@@2@$00@std@@QAEAAV?$allocator@UIP_BLOCK@@@2@XZ
_TEXT	SEGMENT
_this$ = -4						; size = 4
?_Get_first@?$_Compressed_pair@V?$allocator@UIP_BLOCK@@@std@@V?$_Vector_val@U?$_Simple_types@UIP_BLOCK@@@std@@@2@$00@std@@QAEAAV?$allocator@UIP_BLOCK@@@2@XZ PROC ; std::_Compressed_pair<std::allocator<IP_BLOCK>,std::_Vector_val<std::_Simple_types<IP_BLOCK> >,1>::_Get_first, COMDAT
; _this$ = ecx

; 1343 :     constexpr _Ty1& _Get_first() noexcept {

  00000	55		 push	 ebp
  00001	8b ec		 mov	 ebp, esp
  00003	83 ec 44	 sub	 esp, 68			; 00000044H
  00006	53		 push	 ebx
  00007	56		 push	 esi
  00008	57		 push	 edi
  00009	89 4d fc	 mov	 DWORD PTR _this$[ebp], ecx

; 1344 :         return *this;

  0000c	8b 45 fc	 mov	 eax, DWORD PTR _this$[ebp]

; 1345 :     }

  0000f	5f		 pop	 edi
  00010	5e		 pop	 esi
  00011	5b		 pop	 ebx
  00012	8b e5		 mov	 esp, ebp
  00014	5d		 pop	 ebp
  00015	c3		 ret	 0
?_Get_first@?$_Compressed_pair@V?$allocator@UIP_BLOCK@@@std@@V?$_Vector_val@U?$_Simple_types@UIP_BLOCK@@@std@@@2@$00@std@@QAEAAV?$allocator@UIP_BLOCK@@@2@XZ ENDP ; std::_Compressed_pair<std::allocator<IP_BLOCK>,std::_Vector_val<std::_Simple_types<IP_BLOCK> >,1>::_Get_first
_TEXT	ENDS
; Function compile flags: /Odtp /ZI
; File C:\Program Files (x86)\Microsoft Visual Studio\2019\Community\VC\Tools\MSVC\14.27.29110\include\vector
;	COMDAT ??0?$_Vector_val@U?$_Simple_types@UIP_BLOCK@@@std@@@std@@QAE@XZ
_TEXT	SEGMENT
_this$ = -4						; size = 4
??0?$_Vector_val@U?$_Simple_types@UIP_BLOCK@@@std@@@std@@QAE@XZ PROC ; std::_Vector_val<std::_Simple_types<IP_BLOCK> >::_Vector_val<std::_Simple_types<IP_BLOCK> >, COMDAT
; _this$ = ecx

; 375  :     _Vector_val() noexcept : _Myfirst(), _Mylast(), _Myend() {}

  00000	55		 push	 ebp
  00001	8b ec		 mov	 ebp, esp
  00003	83 ec 44	 sub	 esp, 68			; 00000044H
  00006	53		 push	 ebx
  00007	56		 push	 esi
  00008	57		 push	 edi
  00009	89 4d fc	 mov	 DWORD PTR _this$[ebp], ecx
  0000c	8b 45 fc	 mov	 eax, DWORD PTR _this$[ebp]
  0000f	c7 00 00 00 00
	00		 mov	 DWORD PTR [eax], 0
  00015	8b 45 fc	 mov	 eax, DWORD PTR _this$[ebp]
  00018	c7 40 04 00 00
	00 00		 mov	 DWORD PTR [eax+4], 0
  0001f	8b 45 fc	 mov	 eax, DWORD PTR _this$[ebp]
  00022	c7 40 08 00 00
	00 00		 mov	 DWORD PTR [eax+8], 0
  00029	8b 45 fc	 mov	 eax, DWORD PTR _this$[ebp]
  0002c	5f		 pop	 edi
  0002d	5e		 pop	 esi
  0002e	5b		 pop	 ebx
  0002f	8b e5		 mov	 esp, ebp
  00031	5d		 pop	 ebp
  00032	c3		 ret	 0
??0?$_Vector_val@U?$_Simple_types@UIP_BLOCK@@@std@@@std@@QAE@XZ ENDP ; std::_Vector_val<std::_Simple_types<IP_BLOCK> >::_Vector_val<std::_Simple_types<IP_BLOCK> >
_TEXT	ENDS
; Function compile flags: /Odtp /ZI
; File C:\Program Files (x86)\Microsoft Visual Studio\2019\Community\VC\Tools\MSVC\14.27.29110\include\vector
;	COMDAT ?_Getal@?$vector@UIP_BLOCK@@V?$allocator@UIP_BLOCK@@@std@@@std@@ABEABV?$allocator@UIP_BLOCK@@@2@XZ
_TEXT	SEGMENT
_this$ = -4						; size = 4
?_Getal@?$vector@UIP_BLOCK@@V?$allocator@UIP_BLOCK@@@std@@@std@@ABEABV?$allocator@UIP_BLOCK@@@2@XZ PROC ; std::vector<IP_BLOCK,std::allocator<IP_BLOCK> >::_Getal, COMDAT
; _this$ = ecx

; 1735 :     const _Alty& _Getal() const noexcept {

  00000	55		 push	 ebp
  00001	8b ec		 mov	 ebp, esp
  00003	83 ec 44	 sub	 esp, 68			; 00000044H
  00006	53		 push	 ebx
  00007	56		 push	 esi
  00008	57		 push	 edi
  00009	89 4d fc	 mov	 DWORD PTR _this$[ebp], ecx

; 1736 :         return _Mypair._Get_first();

  0000c	8b 4d fc	 mov	 ecx, DWORD PTR _this$[ebp]
  0000f	e8 00 00 00 00	 call	 ?_Get_first@?$_Compressed_pair@V?$allocator@UIP_BLOCK@@@std@@V?$_Vector_val@U?$_Simple_types@UIP_BLOCK@@@std@@@2@$00@std@@QBEABV?$allocator@UIP_BLOCK@@@2@XZ ; std::_Compressed_pair<std::allocator<IP_BLOCK>,std::_Vector_val<std::_Simple_types<IP_BLOCK> >,1>::_Get_first

; 1737 :     }

  00014	5f		 pop	 edi
  00015	5e		 pop	 esi
  00016	5b		 pop	 ebx
  00017	8b e5		 mov	 esp, ebp
  00019	5d		 pop	 ebp
  0001a	c3		 ret	 0
?_Getal@?$vector@UIP_BLOCK@@V?$allocator@UIP_BLOCK@@@std@@@std@@ABEABV?$allocator@UIP_BLOCK@@@2@XZ ENDP ; std::vector<IP_BLOCK,std::allocator<IP_BLOCK> >::_Getal
_TEXT	ENDS
; Function compile flags: /Odtp /ZI
; File C:\Program Files (x86)\Microsoft Visual Studio\2019\Community\VC\Tools\MSVC\14.27.29110\include\vector
;	COMDAT ?_Getal@?$vector@UIP_BLOCK@@V?$allocator@UIP_BLOCK@@@std@@@std@@AAEAAV?$allocator@UIP_BLOCK@@@2@XZ
_TEXT	SEGMENT
_this$ = -4						; size = 4
?_Getal@?$vector@UIP_BLOCK@@V?$allocator@UIP_BLOCK@@@std@@@std@@AAEAAV?$allocator@UIP_BLOCK@@@2@XZ PROC ; std::vector<IP_BLOCK,std::allocator<IP_BLOCK> >::_Getal, COMDAT
; _this$ = ecx

; 1731 :     _Alty& _Getal() noexcept {

  00000	55		 push	 ebp
  00001	8b ec		 mov	 ebp, esp
  00003	83 ec 44	 sub	 esp, 68			; 00000044H
  00006	53		 push	 ebx
  00007	56		 push	 esi
  00008	57		 push	 edi
  00009	89 4d fc	 mov	 DWORD PTR _this$[ebp], ecx

; 1732 :         return _Mypair._Get_first();

  0000c	8b 4d fc	 mov	 ecx, DWORD PTR _this$[ebp]
  0000f	e8 00 00 00 00	 call	 ?_Get_first@?$_Compressed_pair@V?$allocator@UIP_BLOCK@@@std@@V?$_Vector_val@U?$_Simple_types@UIP_BLOCK@@@std@@@2@$00@std@@QAEAAV?$allocator@UIP_BLOCK@@@2@XZ ; std::_Compressed_pair<std::allocator<IP_BLOCK>,std::_Vector_val<std::_Simple_types<IP_BLOCK> >,1>::_Get_first

; 1733 :     }

  00014	5f		 pop	 edi
  00015	5e		 pop	 esi
  00016	5b		 pop	 ebx
  00017	8b e5		 mov	 esp, ebp
  00019	5d		 pop	 ebp
  0001a	c3		 ret	 0
?_Getal@?$vector@UIP_BLOCK@@V?$allocator@UIP_BLOCK@@@std@@@std@@AAEAAV?$allocator@UIP_BLOCK@@@2@XZ ENDP ; std::vector<IP_BLOCK,std::allocator<IP_BLOCK> >::_Getal
_TEXT	ENDS
; Function compile flags: /Odtp /ZI
; File C:\Program Files (x86)\Microsoft Visual Studio\2019\Community\VC\Tools\MSVC\14.27.29110\include\vector
;	COMDAT ?_Orphan_range@?$vector@UIP_BLOCK@@V?$allocator@UIP_BLOCK@@@std@@@std@@ABEXPAUIP_BLOCK@@0@Z
_TEXT	SEGMENT
_this$ = -4						; size = 4
__First$ = 8						; size = 4
__Last$ = 12						; size = 4
?_Orphan_range@?$vector@UIP_BLOCK@@V?$allocator@UIP_BLOCK@@@std@@@std@@ABEXPAUIP_BLOCK@@0@Z PROC ; std::vector<IP_BLOCK,std::allocator<IP_BLOCK> >::_Orphan_range, COMDAT
; _this$ = ecx

; 1711 :     void _Orphan_range(pointer _First, pointer _Last) const { // orphan iterators within specified (inclusive) range

  00000	55		 push	 ebp
  00001	8b ec		 mov	 ebp, esp
  00003	83 ec 44	 sub	 esp, 68			; 00000044H
  00006	53		 push	 ebx
  00007	56		 push	 esi
  00008	57		 push	 edi
  00009	89 4d fc	 mov	 DWORD PTR _this$[ebp], ecx

; 1712 : #if _ITERATOR_DEBUG_LEVEL == 2
; 1713 :         _Lockit _Lock(_LOCK_DEBUG);
; 1714 : 
; 1715 :         _Iterator_base12** _Pnext = &_Mypair._Myval2._Myproxy->_Myfirstiter;
; 1716 :         while (*_Pnext) {
; 1717 :             const auto _Pnextptr = static_cast<const_iterator&>(**_Pnext)._Ptr;
; 1718 :             if (_Pnextptr < _First || _Last < _Pnextptr) { // skip the iterator
; 1719 :                 _Pnext = &(*_Pnext)->_Mynextiter;
; 1720 :             } else { // orphan the iterator
; 1721 :                 (*_Pnext)->_Myproxy = nullptr;
; 1722 :                 *_Pnext             = (*_Pnext)->_Mynextiter;
; 1723 :             }
; 1724 :         }
; 1725 : #else // ^^^ _ITERATOR_DEBUG_LEVEL == 2 ^^^ // vvv _ITERATOR_DEBUG_LEVEL != 2 vvv
; 1726 :         (void) _First;
; 1727 :         (void) _Last;
; 1728 : #endif // _ITERATOR_DEBUG_LEVEL == 2
; 1729 :     }

  0000c	5f		 pop	 edi
  0000d	5e		 pop	 esi
  0000e	5b		 pop	 ebx
  0000f	8b e5		 mov	 esp, ebp
  00011	5d		 pop	 ebp
  00012	c2 08 00	 ret	 8
?_Orphan_range@?$vector@UIP_BLOCK@@V?$allocator@UIP_BLOCK@@@std@@@std@@ABEXPAUIP_BLOCK@@0@Z ENDP ; std::vector<IP_BLOCK,std::allocator<IP_BLOCK> >::_Orphan_range
_TEXT	ENDS
; Function compile flags: /Odtp /ZI
; File C:\Program Files (x86)\Microsoft Visual Studio\2019\Community\VC\Tools\MSVC\14.27.29110\include\vector
;	COMDAT ?_Xlength@?$vector@UIP_BLOCK@@V?$allocator@UIP_BLOCK@@@std@@@std@@CAXXZ
_TEXT	SEGMENT
?_Xlength@?$vector@UIP_BLOCK@@V?$allocator@UIP_BLOCK@@@std@@@std@@CAXXZ PROC ; std::vector<IP_BLOCK,std::allocator<IP_BLOCK> >::_Xlength, COMDAT

; 1703 :     [[noreturn]] static void _Xlength() {

  00000	55		 push	 ebp
  00001	8b ec		 mov	 ebp, esp
  00003	83 ec 40	 sub	 esp, 64			; 00000040H
  00006	53		 push	 ebx
  00007	56		 push	 esi
  00008	57		 push	 edi

; 1704 :         _Xlength_error("vector too long");

  00009	68 00 00 00 00	 push	 OFFSET ??_C@_0BA@FOIKENOD@vector?5too?5long@
  0000e	e8 00 00 00 00	 call	 ?_Xlength_error@std@@YAXPBD@Z ; std::_Xlength_error
$LN2@Xlength:

; 1705 :     }

  00013	5f		 pop	 edi
  00014	5e		 pop	 esi
  00015	5b		 pop	 ebx
  00016	8b e5		 mov	 esp, ebp
  00018	5d		 pop	 ebp
  00019	c3		 ret	 0
?_Xlength@?$vector@UIP_BLOCK@@V?$allocator@UIP_BLOCK@@@std@@@std@@CAXXZ ENDP ; std::vector<IP_BLOCK,std::allocator<IP_BLOCK> >::_Xlength
_TEXT	ENDS
; Function compile flags: /Odtp /ZI
; File C:\Program Files (x86)\Microsoft Visual Studio\2019\Community\VC\Tools\MSVC\14.27.29110\include\vector
;	COMDAT ?_Tidy@?$vector@UIP_BLOCK@@V?$allocator@UIP_BLOCK@@@std@@@std@@AAEXXZ
_TEXT	SEGMENT
__Myend$ = -32						; size = 4
__Mylast$ = -28						; size = 4
__Myfirst$ = -24					; size = 4
__My_data$ = -20					; size = 4
_this$ = -16						; size = 4
__$EHRec$ = -12						; size = 12
?_Tidy@?$vector@UIP_BLOCK@@V?$allocator@UIP_BLOCK@@@std@@@std@@AAEXXZ PROC ; std::vector<IP_BLOCK,std::allocator<IP_BLOCK> >::_Tidy, COMDAT
; _this$ = ecx

; 1685 :     void _Tidy() noexcept { // free all storage

  00000	55		 push	 ebp
  00001	8b ec		 mov	 ebp, esp
  00003	6a ff		 push	 -1
  00005	68 00 00 00 00	 push	 __ehhandler$?_Tidy@?$vector@UIP_BLOCK@@V?$allocator@UIP_BLOCK@@@std@@@std@@AAEXXZ
  0000a	64 a1 00 00 00
	00		 mov	 eax, DWORD PTR fs:0
  00010	50		 push	 eax
  00011	83 ec 54	 sub	 esp, 84			; 00000054H
  00014	53		 push	 ebx
  00015	56		 push	 esi
  00016	57		 push	 edi
  00017	a1 00 00 00 00	 mov	 eax, DWORD PTR ___security_cookie
  0001c	33 c5		 xor	 eax, ebp
  0001e	50		 push	 eax
  0001f	8d 45 f4	 lea	 eax, DWORD PTR __$EHRec$[ebp]
  00022	64 a3 00 00 00
	00		 mov	 DWORD PTR fs:0, eax
  00028	89 4d f0	 mov	 DWORD PTR _this$[ebp], ecx

; 1686 :         auto& _My_data    = _Mypair._Myval2;

  0002b	8b 45 f0	 mov	 eax, DWORD PTR _this$[ebp]
  0002e	89 45 ec	 mov	 DWORD PTR __My_data$[ebp], eax

; 1687 :         pointer& _Myfirst = _My_data._Myfirst;

  00031	8b 45 ec	 mov	 eax, DWORD PTR __My_data$[ebp]
  00034	89 45 e8	 mov	 DWORD PTR __Myfirst$[ebp], eax

; 1688 :         pointer& _Mylast  = _My_data._Mylast;

  00037	8b 45 ec	 mov	 eax, DWORD PTR __My_data$[ebp]
  0003a	83 c0 04	 add	 eax, 4
  0003d	89 45 e4	 mov	 DWORD PTR __Mylast$[ebp], eax

; 1689 :         pointer& _Myend   = _My_data._Myend;

  00040	8b 45 ec	 mov	 eax, DWORD PTR __My_data$[ebp]
  00043	83 c0 08	 add	 eax, 8
  00046	89 45 e0	 mov	 DWORD PTR __Myend$[ebp], eax

; 1690 : 
; 1691 :         _My_data._Orphan_all();

  00049	8b 4d ec	 mov	 ecx, DWORD PTR __My_data$[ebp]
  0004c	e8 00 00 00 00	 call	 ?_Orphan_all@_Container_base0@std@@QAEXXZ ; std::_Container_base0::_Orphan_all

; 1692 : 
; 1693 :         if (_Myfirst) { // destroy and deallocate old array

  00051	8b 45 e8	 mov	 eax, DWORD PTR __Myfirst$[ebp]
  00054	83 38 00	 cmp	 DWORD PTR [eax], 0
  00057	74 52		 je	 SHORT $LN3@Tidy

; 1694 :             _Destroy(_Myfirst, _Mylast);

  00059	8b 45 e4	 mov	 eax, DWORD PTR __Mylast$[ebp]
  0005c	8b 08		 mov	 ecx, DWORD PTR [eax]
  0005e	51		 push	 ecx
  0005f	8b 55 e8	 mov	 edx, DWORD PTR __Myfirst$[ebp]
  00062	8b 02		 mov	 eax, DWORD PTR [edx]
  00064	50		 push	 eax
  00065	8b 4d f0	 mov	 ecx, DWORD PTR _this$[ebp]
  00068	e8 00 00 00 00	 call	 ?_Destroy@?$vector@UIP_BLOCK@@V?$allocator@UIP_BLOCK@@@std@@@std@@AAEXPAUIP_BLOCK@@0@Z ; std::vector<IP_BLOCK,std::allocator<IP_BLOCK> >::_Destroy

; 1695 :             _Getal().deallocate(_Myfirst, static_cast<size_type>(_Myend - _Myfirst));

  0006d	8b 45 e0	 mov	 eax, DWORD PTR __Myend$[ebp]
  00070	8b 4d e8	 mov	 ecx, DWORD PTR __Myfirst$[ebp]
  00073	8b 10		 mov	 edx, DWORD PTR [eax]
  00075	2b 11		 sub	 edx, DWORD PTR [ecx]
  00077	c1 fa 05	 sar	 edx, 5
  0007a	52		 push	 edx
  0007b	8b 45 e8	 mov	 eax, DWORD PTR __Myfirst$[ebp]
  0007e	8b 08		 mov	 ecx, DWORD PTR [eax]
  00080	51		 push	 ecx
  00081	8b 4d f0	 mov	 ecx, DWORD PTR _this$[ebp]
  00084	e8 00 00 00 00	 call	 ?_Getal@?$vector@UIP_BLOCK@@V?$allocator@UIP_BLOCK@@@std@@@std@@AAEAAV?$allocator@UIP_BLOCK@@@2@XZ ; std::vector<IP_BLOCK,std::allocator<IP_BLOCK> >::_Getal
  00089	8b c8		 mov	 ecx, eax
  0008b	e8 00 00 00 00	 call	 ?deallocate@?$allocator@UIP_BLOCK@@@std@@QAEXQAUIP_BLOCK@@I@Z ; std::allocator<IP_BLOCK>::deallocate

; 1696 : 
; 1697 :             _Myfirst = pointer();

  00090	8b 45 e8	 mov	 eax, DWORD PTR __Myfirst$[ebp]
  00093	c7 00 00 00 00
	00		 mov	 DWORD PTR [eax], 0

; 1698 :             _Mylast  = pointer();

  00099	8b 45 e4	 mov	 eax, DWORD PTR __Mylast$[ebp]
  0009c	c7 00 00 00 00
	00		 mov	 DWORD PTR [eax], 0

; 1699 :             _Myend   = pointer();

  000a2	8b 45 e0	 mov	 eax, DWORD PTR __Myend$[ebp]
  000a5	c7 00 00 00 00
	00		 mov	 DWORD PTR [eax], 0
$LN3@Tidy:

; 1700 :         }
; 1701 :     }

  000ab	8b 4d f4	 mov	 ecx, DWORD PTR __$EHRec$[ebp]
  000ae	64 89 0d 00 00
	00 00		 mov	 DWORD PTR fs:0, ecx
  000b5	59		 pop	 ecx
  000b6	5f		 pop	 edi
  000b7	5e		 pop	 esi
  000b8	5b		 pop	 ebx
  000b9	8b e5		 mov	 esp, ebp
  000bb	5d		 pop	 ebp
  000bc	c3		 ret	 0
  000bd	cc		 int	 3
  000be	cc		 int	 3
  000bf	cc		 int	 3
  000c0	cc		 int	 3
  000c1	cc		 int	 3
_TEXT	ENDS
;	COMDAT text$x
text$x	SEGMENT
__ehhandler$?_Tidy@?$vector@UIP_BLOCK@@V?$allocator@UIP_BLOCK@@@std@@@std@@AAEXXZ:
  00000	90		 npad	 1
  00001	90		 npad	 1
  00002	8b 54 24 08	 mov	 edx, DWORD PTR [esp+8]
  00006	8d 42 0c	 lea	 eax, DWORD PTR [edx+12]
  00009	8b 4a 9c	 mov	 ecx, DWORD PTR [edx-100]
  0000c	33 c8		 xor	 ecx, eax
  0000e	e8 00 00 00 00	 call	 @__security_check_cookie@4
  00013	b8 00 00 00 00	 mov	 eax, OFFSET __ehfuncinfo$?_Tidy@?$vector@UIP_BLOCK@@V?$allocator@UIP_BLOCK@@@std@@@std@@AAEXXZ
  00018	e9 00 00 00 00	 jmp	 ___CxxFrameHandler3
text$x	ENDS
?_Tidy@?$vector@UIP_BLOCK@@V?$allocator@UIP_BLOCK@@@std@@@std@@AAEXXZ ENDP ; std::vector<IP_BLOCK,std::allocator<IP_BLOCK> >::_Tidy
; Function compile flags: /Odtp /ZI
; File C:\Program Files (x86)\Microsoft Visual Studio\2019\Community\VC\Tools\MSVC\14.27.29110\include\vector
;	COMDAT ?_Change_array@?$vector@UIP_BLOCK@@V?$allocator@UIP_BLOCK@@@std@@@std@@AAEXQAUIP_BLOCK@@II@Z
_TEXT	SEGMENT
__Myend$ = -20						; size = 4
__Mylast$ = -16						; size = 4
__Myfirst$ = -12					; size = 4
__My_data$ = -8						; size = 4
_this$ = -4						; size = 4
__Newvec$ = 8						; size = 4
__Newsize$ = 12						; size = 4
__Newcapacity$ = 16					; size = 4
?_Change_array@?$vector@UIP_BLOCK@@V?$allocator@UIP_BLOCK@@@std@@@std@@AAEXQAUIP_BLOCK@@II@Z PROC ; std::vector<IP_BLOCK,std::allocator<IP_BLOCK> >::_Change_array, COMDAT
; _this$ = ecx

; 1666 :     void _Change_array(const pointer _Newvec, const size_type _Newsize, const size_type _Newcapacity) {

  00000	55		 push	 ebp
  00001	8b ec		 mov	 ebp, esp
  00003	83 ec 54	 sub	 esp, 84			; 00000054H
  00006	53		 push	 ebx
  00007	56		 push	 esi
  00008	57		 push	 edi
  00009	89 4d fc	 mov	 DWORD PTR _this$[ebp], ecx

; 1667 :         // orphan all iterators, discard old array, acquire new array
; 1668 :         auto& _My_data    = _Mypair._Myval2;

  0000c	8b 45 fc	 mov	 eax, DWORD PTR _this$[ebp]
  0000f	89 45 f8	 mov	 DWORD PTR __My_data$[ebp], eax

; 1669 :         pointer& _Myfirst = _My_data._Myfirst;

  00012	8b 45 f8	 mov	 eax, DWORD PTR __My_data$[ebp]
  00015	89 45 f4	 mov	 DWORD PTR __Myfirst$[ebp], eax

; 1670 :         pointer& _Mylast  = _My_data._Mylast;

  00018	8b 45 f8	 mov	 eax, DWORD PTR __My_data$[ebp]
  0001b	83 c0 04	 add	 eax, 4
  0001e	89 45 f0	 mov	 DWORD PTR __Mylast$[ebp], eax

; 1671 :         pointer& _Myend   = _My_data._Myend;

  00021	8b 45 f8	 mov	 eax, DWORD PTR __My_data$[ebp]
  00024	83 c0 08	 add	 eax, 8
  00027	89 45 ec	 mov	 DWORD PTR __Myend$[ebp], eax

; 1672 : 
; 1673 :         _My_data._Orphan_all();

  0002a	8b 4d f8	 mov	 ecx, DWORD PTR __My_data$[ebp]
  0002d	e8 00 00 00 00	 call	 ?_Orphan_all@_Container_base0@std@@QAEXXZ ; std::_Container_base0::_Orphan_all

; 1674 : 
; 1675 :         if (_Myfirst) { // destroy and deallocate old array

  00032	8b 45 f4	 mov	 eax, DWORD PTR __Myfirst$[ebp]
  00035	83 38 00	 cmp	 DWORD PTR [eax], 0
  00038	74 37		 je	 SHORT $LN2@Change_arr

; 1676 :             _Destroy(_Myfirst, _Mylast);

  0003a	8b 45 f0	 mov	 eax, DWORD PTR __Mylast$[ebp]
  0003d	8b 08		 mov	 ecx, DWORD PTR [eax]
  0003f	51		 push	 ecx
  00040	8b 55 f4	 mov	 edx, DWORD PTR __Myfirst$[ebp]
  00043	8b 02		 mov	 eax, DWORD PTR [edx]
  00045	50		 push	 eax
  00046	8b 4d fc	 mov	 ecx, DWORD PTR _this$[ebp]
  00049	e8 00 00 00 00	 call	 ?_Destroy@?$vector@UIP_BLOCK@@V?$allocator@UIP_BLOCK@@@std@@@std@@AAEXPAUIP_BLOCK@@0@Z ; std::vector<IP_BLOCK,std::allocator<IP_BLOCK> >::_Destroy

; 1677 :             _Getal().deallocate(_Myfirst, static_cast<size_type>(_Myend - _Myfirst));

  0004e	8b 45 ec	 mov	 eax, DWORD PTR __Myend$[ebp]
  00051	8b 4d f4	 mov	 ecx, DWORD PTR __Myfirst$[ebp]
  00054	8b 10		 mov	 edx, DWORD PTR [eax]
  00056	2b 11		 sub	 edx, DWORD PTR [ecx]
  00058	c1 fa 05	 sar	 edx, 5
  0005b	52		 push	 edx
  0005c	8b 45 f4	 mov	 eax, DWORD PTR __Myfirst$[ebp]
  0005f	8b 08		 mov	 ecx, DWORD PTR [eax]
  00061	51		 push	 ecx
  00062	8b 4d fc	 mov	 ecx, DWORD PTR _this$[ebp]
  00065	e8 00 00 00 00	 call	 ?_Getal@?$vector@UIP_BLOCK@@V?$allocator@UIP_BLOCK@@@std@@@std@@AAEAAV?$allocator@UIP_BLOCK@@@2@XZ ; std::vector<IP_BLOCK,std::allocator<IP_BLOCK> >::_Getal
  0006a	8b c8		 mov	 ecx, eax
  0006c	e8 00 00 00 00	 call	 ?deallocate@?$allocator@UIP_BLOCK@@@std@@QAEXQAUIP_BLOCK@@I@Z ; std::allocator<IP_BLOCK>::deallocate
$LN2@Change_arr:

; 1678 :         }
; 1679 : 
; 1680 :         _Myfirst = _Newvec;

  00071	8b 45 f4	 mov	 eax, DWORD PTR __Myfirst$[ebp]
  00074	8b 4d 08	 mov	 ecx, DWORD PTR __Newvec$[ebp]
  00077	89 08		 mov	 DWORD PTR [eax], ecx

; 1681 :         _Mylast  = _Newvec + _Newsize;

  00079	8b 45 0c	 mov	 eax, DWORD PTR __Newsize$[ebp]
  0007c	c1 e0 05	 shl	 eax, 5
  0007f	03 45 08	 add	 eax, DWORD PTR __Newvec$[ebp]
  00082	8b 4d f0	 mov	 ecx, DWORD PTR __Mylast$[ebp]
  00085	89 01		 mov	 DWORD PTR [ecx], eax

; 1682 :         _Myend   = _Newvec + _Newcapacity;

  00087	8b 45 10	 mov	 eax, DWORD PTR __Newcapacity$[ebp]
  0008a	c1 e0 05	 shl	 eax, 5
  0008d	03 45 08	 add	 eax, DWORD PTR __Newvec$[ebp]
  00090	8b 4d ec	 mov	 ecx, DWORD PTR __Myend$[ebp]
  00093	89 01		 mov	 DWORD PTR [ecx], eax

; 1683 :     }

  00095	5f		 pop	 edi
  00096	5e		 pop	 esi
  00097	5b		 pop	 ebx
  00098	8b e5		 mov	 esp, ebp
  0009a	5d		 pop	 ebp
  0009b	c2 0c 00	 ret	 12			; 0000000cH
?_Change_array@?$vector@UIP_BLOCK@@V?$allocator@UIP_BLOCK@@@std@@@std@@AAEXQAUIP_BLOCK@@II@Z ENDP ; std::vector<IP_BLOCK,std::allocator<IP_BLOCK> >::_Change_array
_TEXT	ENDS
; Function compile flags: /Odtp /ZI
; File C:\Program Files (x86)\Microsoft Visual Studio\2019\Community\VC\Tools\MSVC\14.27.29110\include\vector
;	COMDAT ?_Calculate_growth@?$vector@UIP_BLOCK@@V?$allocator@UIP_BLOCK@@@std@@@std@@ABEII@Z
_TEXT	SEGMENT
__Geometric$ = -12					; size = 4
__Oldcapacity$ = -8					; size = 4
_this$ = -4						; size = 4
__Newsize$ = 8						; size = 4
?_Calculate_growth@?$vector@UIP_BLOCK@@V?$allocator@UIP_BLOCK@@@std@@@std@@ABEII@Z PROC ; std::vector<IP_BLOCK,std::allocator<IP_BLOCK> >::_Calculate_growth, COMDAT
; _this$ = ecx

; 1615 :     size_type _Calculate_growth(const size_type _Newsize) const {

  00000	55		 push	 ebp
  00001	8b ec		 mov	 ebp, esp
  00003	83 ec 4c	 sub	 esp, 76			; 0000004cH
  00006	53		 push	 ebx
  00007	56		 push	 esi
  00008	57		 push	 edi
  00009	89 4d fc	 mov	 DWORD PTR _this$[ebp], ecx

; 1616 :         // given _Oldcapacity and _Newsize, calculate geometric growth
; 1617 :         const size_type _Oldcapacity = capacity();

  0000c	8b 4d fc	 mov	 ecx, DWORD PTR _this$[ebp]
  0000f	e8 00 00 00 00	 call	 ?capacity@?$vector@UIP_BLOCK@@V?$allocator@UIP_BLOCK@@@std@@@std@@QBEIXZ ; std::vector<IP_BLOCK,std::allocator<IP_BLOCK> >::capacity
  00014	89 45 f8	 mov	 DWORD PTR __Oldcapacity$[ebp], eax

; 1618 : 
; 1619 :         if (_Oldcapacity > max_size() - _Oldcapacity / 2) {

  00017	8b 4d fc	 mov	 ecx, DWORD PTR _this$[ebp]
  0001a	e8 00 00 00 00	 call	 ?max_size@?$vector@UIP_BLOCK@@V?$allocator@UIP_BLOCK@@@std@@@std@@QBEIXZ ; std::vector<IP_BLOCK,std::allocator<IP_BLOCK> >::max_size
  0001f	8b 4d f8	 mov	 ecx, DWORD PTR __Oldcapacity$[ebp]
  00022	d1 e9		 shr	 ecx, 1
  00024	2b c1		 sub	 eax, ecx
  00026	39 45 f8	 cmp	 DWORD PTR __Oldcapacity$[ebp], eax
  00029	76 05		 jbe	 SHORT $LN2@Calculate_

; 1620 :             return _Newsize; // geometric growth would overflow

  0002b	8b 45 08	 mov	 eax, DWORD PTR __Newsize$[ebp]
  0002e	eb 1b		 jmp	 SHORT $LN1@Calculate_
$LN2@Calculate_:

; 1621 :         }
; 1622 : 
; 1623 :         const size_type _Geometric = _Oldcapacity + _Oldcapacity / 2;

  00030	8b 45 f8	 mov	 eax, DWORD PTR __Oldcapacity$[ebp]
  00033	d1 e8		 shr	 eax, 1
  00035	03 45 f8	 add	 eax, DWORD PTR __Oldcapacity$[ebp]
  00038	89 45 f4	 mov	 DWORD PTR __Geometric$[ebp], eax

; 1624 : 
; 1625 :         if (_Geometric < _Newsize) {

  0003b	8b 45 f4	 mov	 eax, DWORD PTR __Geometric$[ebp]
  0003e	3b 45 08	 cmp	 eax, DWORD PTR __Newsize$[ebp]
  00041	73 05		 jae	 SHORT $LN3@Calculate_

; 1626 :             return _Newsize; // geometric growth would be insufficient

  00043	8b 45 08	 mov	 eax, DWORD PTR __Newsize$[ebp]
  00046	eb 03		 jmp	 SHORT $LN1@Calculate_
$LN3@Calculate_:

; 1627 :         }
; 1628 : 
; 1629 :         return _Geometric; // geometric growth is sufficient

  00048	8b 45 f4	 mov	 eax, DWORD PTR __Geometric$[ebp]
$LN1@Calculate_:

; 1630 :     }

  0004b	5f		 pop	 edi
  0004c	5e		 pop	 esi
  0004d	5b		 pop	 ebx
  0004e	8b e5		 mov	 esp, ebp
  00050	5d		 pop	 ebp
  00051	c2 04 00	 ret	 4
?_Calculate_growth@?$vector@UIP_BLOCK@@V?$allocator@UIP_BLOCK@@@std@@@std@@ABEII@Z ENDP ; std::vector<IP_BLOCK,std::allocator<IP_BLOCK> >::_Calculate_growth
_TEXT	ENDS
; Function compile flags: /Odtp /ZI
; File C:\Program Files (x86)\Microsoft Visual Studio\2019\Community\VC\Tools\MSVC\14.27.29110\include\vector
;	COMDAT ?_Destroy@?$vector@UIP_BLOCK@@V?$allocator@UIP_BLOCK@@@std@@@std@@AAEXPAUIP_BLOCK@@0@Z
_TEXT	SEGMENT
_this$ = -4						; size = 4
__First$ = 8						; size = 4
__Last$ = 12						; size = 4
?_Destroy@?$vector@UIP_BLOCK@@V?$allocator@UIP_BLOCK@@@std@@@std@@AAEXPAUIP_BLOCK@@0@Z PROC ; std::vector<IP_BLOCK,std::allocator<IP_BLOCK> >::_Destroy, COMDAT
; _this$ = ecx

; 1611 :     void _Destroy(pointer _First, pointer _Last) { // destroy [_First, _Last) using allocator

  00000	55		 push	 ebp
  00001	8b ec		 mov	 ebp, esp
  00003	83 ec 44	 sub	 esp, 68			; 00000044H
  00006	53		 push	 ebx
  00007	56		 push	 esi
  00008	57		 push	 edi
  00009	89 4d fc	 mov	 DWORD PTR _this$[ebp], ecx

; 1612 :         _Destroy_range(_First, _Last, _Getal());

  0000c	8b 4d fc	 mov	 ecx, DWORD PTR _this$[ebp]
  0000f	e8 00 00 00 00	 call	 ?_Getal@?$vector@UIP_BLOCK@@V?$allocator@UIP_BLOCK@@@std@@@std@@AAEAAV?$allocator@UIP_BLOCK@@@2@XZ ; std::vector<IP_BLOCK,std::allocator<IP_BLOCK> >::_Getal
  00014	50		 push	 eax
  00015	8b 45 0c	 mov	 eax, DWORD PTR __Last$[ebp]
  00018	50		 push	 eax
  00019	8b 4d 08	 mov	 ecx, DWORD PTR __First$[ebp]
  0001c	51		 push	 ecx
  0001d	e8 00 00 00 00	 call	 ??$_Destroy_range@V?$allocator@UIP_BLOCK@@@std@@@std@@YAXPAUIP_BLOCK@@QAU1@AAV?$allocator@UIP_BLOCK@@@0@@Z ; std::_Destroy_range<std::allocator<IP_BLOCK> >
  00022	83 c4 0c	 add	 esp, 12			; 0000000cH

; 1613 :     }

  00025	5f		 pop	 edi
  00026	5e		 pop	 esi
  00027	5b		 pop	 ebx
  00028	8b e5		 mov	 esp, ebp
  0002a	5d		 pop	 ebp
  0002b	c2 08 00	 ret	 8
?_Destroy@?$vector@UIP_BLOCK@@V?$allocator@UIP_BLOCK@@@std@@@std@@AAEXPAUIP_BLOCK@@0@Z ENDP ; std::vector<IP_BLOCK,std::allocator<IP_BLOCK> >::_Destroy
_TEXT	ENDS
; Function compile flags: /Odtp /ZI
; File C:\Program Files (x86)\Microsoft Visual Studio\2019\Community\VC\Tools\MSVC\14.27.29110\include\vector
;	COMDAT ?_Umove_if_noexcept@?$vector@UIP_BLOCK@@V?$allocator@UIP_BLOCK@@@std@@@std@@AAEXPAUIP_BLOCK@@00@Z
_TEXT	SEGMENT
$T1 = -69						; size = 1
_this$ = -4						; size = 4
__First$ = 8						; size = 4
__Last$ = 12						; size = 4
__Dest$ = 16						; size = 4
?_Umove_if_noexcept@?$vector@UIP_BLOCK@@V?$allocator@UIP_BLOCK@@@std@@@std@@AAEXPAUIP_BLOCK@@00@Z PROC ; std::vector<IP_BLOCK,std::allocator<IP_BLOCK> >::_Umove_if_noexcept, COMDAT
; _this$ = ecx

; 1605 :     void _Umove_if_noexcept(pointer _First, pointer _Last, pointer _Dest) {

  00000	55		 push	 ebp
  00001	8b ec		 mov	 ebp, esp
  00003	83 ec 48	 sub	 esp, 72			; 00000048H
  00006	53		 push	 ebx
  00007	56		 push	 esi
  00008	57		 push	 edi
  00009	89 4d fc	 mov	 DWORD PTR _this$[ebp], ecx

; 1606 :         // move_if_noexcept [_First, _Last) to raw _Dest, using allocator
; 1607 :         _Umove_if_noexcept1(_First, _Last, _Dest,

  0000c	33 c0		 xor	 eax, eax
  0000e	88 45 bb	 mov	 BYTE PTR $T1[ebp], al
  00011	0f b6 4d bb	 movzx	 ecx, BYTE PTR $T1[ebp]
  00015	51		 push	 ecx
  00016	8b 55 10	 mov	 edx, DWORD PTR __Dest$[ebp]
  00019	52		 push	 edx
  0001a	8b 45 0c	 mov	 eax, DWORD PTR __Last$[ebp]
  0001d	50		 push	 eax
  0001e	8b 4d 08	 mov	 ecx, DWORD PTR __First$[ebp]
  00021	51		 push	 ecx
  00022	8b 4d fc	 mov	 ecx, DWORD PTR _this$[ebp]
  00025	e8 00 00 00 00	 call	 ?_Umove_if_noexcept1@?$vector@UIP_BLOCK@@V?$allocator@UIP_BLOCK@@@std@@@std@@AAEXPAUIP_BLOCK@@00U?$integral_constant@_N$00@2@@Z ; std::vector<IP_BLOCK,std::allocator<IP_BLOCK> >::_Umove_if_noexcept1

; 1608 :             bool_constant<disjunction_v<is_nothrow_move_constructible<_Ty>, negation<is_copy_constructible<_Ty>>>>{});
; 1609 :     }

  0002a	5f		 pop	 edi
  0002b	5e		 pop	 esi
  0002c	5b		 pop	 ebx
  0002d	8b e5		 mov	 esp, ebp
  0002f	5d		 pop	 ebp
  00030	c2 0c 00	 ret	 12			; 0000000cH
?_Umove_if_noexcept@?$vector@UIP_BLOCK@@V?$allocator@UIP_BLOCK@@@std@@@std@@AAEXPAUIP_BLOCK@@00@Z ENDP ; std::vector<IP_BLOCK,std::allocator<IP_BLOCK> >::_Umove_if_noexcept
_TEXT	ENDS
; Function compile flags: /Odtp /ZI
; File C:\Program Files (x86)\Microsoft Visual Studio\2019\Community\VC\Tools\MSVC\14.27.29110\include\vector
;	COMDAT ?_Umove_if_noexcept1@?$vector@UIP_BLOCK@@V?$allocator@UIP_BLOCK@@@std@@@std@@AAEXPAUIP_BLOCK@@00U?$integral_constant@_N$00@2@@Z
_TEXT	SEGMENT
_this$ = -4						; size = 4
__First$ = 8						; size = 4
__Last$ = 12						; size = 4
__Dest$ = 16						; size = 4
___formal$ = 20						; size = 1
?_Umove_if_noexcept1@?$vector@UIP_BLOCK@@V?$allocator@UIP_BLOCK@@@std@@@std@@AAEXPAUIP_BLOCK@@00U?$integral_constant@_N$00@2@@Z PROC ; std::vector<IP_BLOCK,std::allocator<IP_BLOCK> >::_Umove_if_noexcept1, COMDAT
; _this$ = ecx

; 1595 :     void _Umove_if_noexcept1(pointer _First, pointer _Last, pointer _Dest, true_type) {

  00000	55		 push	 ebp
  00001	8b ec		 mov	 ebp, esp
  00003	83 ec 44	 sub	 esp, 68			; 00000044H
  00006	53		 push	 ebx
  00007	56		 push	 esi
  00008	57		 push	 edi
  00009	89 4d fc	 mov	 DWORD PTR _this$[ebp], ecx

; 1596 :         // move [_First, _Last) to raw _Dest, using allocator
; 1597 :         _Uninitialized_move(_First, _Last, _Dest, _Getal());

  0000c	8b 4d fc	 mov	 ecx, DWORD PTR _this$[ebp]
  0000f	e8 00 00 00 00	 call	 ?_Getal@?$vector@UIP_BLOCK@@V?$allocator@UIP_BLOCK@@@std@@@std@@AAEAAV?$allocator@UIP_BLOCK@@@2@XZ ; std::vector<IP_BLOCK,std::allocator<IP_BLOCK> >::_Getal
  00014	50		 push	 eax
  00015	8b 45 10	 mov	 eax, DWORD PTR __Dest$[ebp]
  00018	50		 push	 eax
  00019	8b 4d 0c	 mov	 ecx, DWORD PTR __Last$[ebp]
  0001c	51		 push	 ecx
  0001d	8b 55 08	 mov	 edx, DWORD PTR __First$[ebp]
  00020	52		 push	 edx
  00021	e8 00 00 00 00	 call	 ??$_Uninitialized_move@PAUIP_BLOCK@@V?$allocator@UIP_BLOCK@@@std@@@std@@YAPAUIP_BLOCK@@QAU1@0PAU1@AAV?$allocator@UIP_BLOCK@@@0@@Z ; std::_Uninitialized_move<IP_BLOCK *,std::allocator<IP_BLOCK> >
  00026	83 c4 10	 add	 esp, 16			; 00000010H

; 1598 :     }

  00029	5f		 pop	 edi
  0002a	5e		 pop	 esi
  0002b	5b		 pop	 ebx
  0002c	8b e5		 mov	 esp, ebp
  0002e	5d		 pop	 ebp
  0002f	c2 10 00	 ret	 16			; 00000010H
?_Umove_if_noexcept1@?$vector@UIP_BLOCK@@V?$allocator@UIP_BLOCK@@@std@@@std@@AAEXPAUIP_BLOCK@@00U?$integral_constant@_N$00@2@@Z ENDP ; std::vector<IP_BLOCK,std::allocator<IP_BLOCK> >::_Umove_if_noexcept1
_TEXT	ENDS
; Function compile flags: /Odtp /ZI
; File C:\Program Files (x86)\Microsoft Visual Studio\2019\Community\VC\Tools\MSVC\14.27.29110\include\vector
;	COMDAT ?_Umove@?$vector@UIP_BLOCK@@V?$allocator@UIP_BLOCK@@@std@@@std@@AAEPAUIP_BLOCK@@PAU3@00@Z
_TEXT	SEGMENT
_this$ = -4						; size = 4
__First$ = 8						; size = 4
__Last$ = 12						; size = 4
__Dest$ = 16						; size = 4
?_Umove@?$vector@UIP_BLOCK@@V?$allocator@UIP_BLOCK@@@std@@@std@@AAEPAUIP_BLOCK@@PAU3@00@Z PROC ; std::vector<IP_BLOCK,std::allocator<IP_BLOCK> >::_Umove, COMDAT
; _this$ = ecx

; 1591 :     pointer _Umove(pointer _First, pointer _Last, pointer _Dest) { // move [_First, _Last) to raw _Dest, using allocator

  00000	55		 push	 ebp
  00001	8b ec		 mov	 ebp, esp
  00003	83 ec 44	 sub	 esp, 68			; 00000044H
  00006	53		 push	 ebx
  00007	56		 push	 esi
  00008	57		 push	 edi
  00009	89 4d fc	 mov	 DWORD PTR _this$[ebp], ecx

; 1592 :         return _Uninitialized_move(_First, _Last, _Dest, _Getal());

  0000c	8b 4d fc	 mov	 ecx, DWORD PTR _this$[ebp]
  0000f	e8 00 00 00 00	 call	 ?_Getal@?$vector@UIP_BLOCK@@V?$allocator@UIP_BLOCK@@@std@@@std@@AAEAAV?$allocator@UIP_BLOCK@@@2@XZ ; std::vector<IP_BLOCK,std::allocator<IP_BLOCK> >::_Getal
  00014	50		 push	 eax
  00015	8b 45 10	 mov	 eax, DWORD PTR __Dest$[ebp]
  00018	50		 push	 eax
  00019	8b 4d 0c	 mov	 ecx, DWORD PTR __Last$[ebp]
  0001c	51		 push	 ecx
  0001d	8b 55 08	 mov	 edx, DWORD PTR __First$[ebp]
  00020	52		 push	 edx
  00021	e8 00 00 00 00	 call	 ??$_Uninitialized_move@PAUIP_BLOCK@@V?$allocator@UIP_BLOCK@@@std@@@std@@YAPAUIP_BLOCK@@QAU1@0PAU1@AAV?$allocator@UIP_BLOCK@@@0@@Z ; std::_Uninitialized_move<IP_BLOCK *,std::allocator<IP_BLOCK> >
  00026	83 c4 10	 add	 esp, 16			; 00000010H

; 1593 :     }

  00029	5f		 pop	 edi
  0002a	5e		 pop	 esi
  0002b	5b		 pop	 ebx
  0002c	8b e5		 mov	 esp, ebp
  0002e	5d		 pop	 ebp
  0002f	c2 0c 00	 ret	 12			; 0000000cH
?_Umove@?$vector@UIP_BLOCK@@V?$allocator@UIP_BLOCK@@@std@@@std@@AAEPAUIP_BLOCK@@PAU3@00@Z ENDP ; std::vector<IP_BLOCK,std::allocator<IP_BLOCK> >::_Umove
_TEXT	ENDS
; Function compile flags: /Odtp /ZI
; File C:\Program Files (x86)\Microsoft Visual Studio\2019\Community\VC\Tools\MSVC\14.27.29110\include\vector
;	COMDAT ?capacity@?$vector@UIP_BLOCK@@V?$allocator@UIP_BLOCK@@@std@@@std@@QBEIXZ
_TEXT	SEGMENT
__My_data$ = -8						; size = 4
_this$ = -4						; size = 4
?capacity@?$vector@UIP_BLOCK@@V?$allocator@UIP_BLOCK@@@std@@@std@@QBEIXZ PROC ; std::vector<IP_BLOCK,std::allocator<IP_BLOCK> >::capacity, COMDAT
; _this$ = ecx

; 1492 :     _NODISCARD size_type capacity() const noexcept {

  00000	55		 push	 ebp
  00001	8b ec		 mov	 ebp, esp
  00003	83 ec 48	 sub	 esp, 72			; 00000048H
  00006	53		 push	 ebx
  00007	56		 push	 esi
  00008	57		 push	 edi
  00009	89 4d fc	 mov	 DWORD PTR _this$[ebp], ecx

; 1493 :         auto& _My_data = _Mypair._Myval2;

  0000c	8b 45 fc	 mov	 eax, DWORD PTR _this$[ebp]
  0000f	89 45 f8	 mov	 DWORD PTR __My_data$[ebp], eax

; 1494 :         return static_cast<size_type>(_My_data._Myend - _My_data._Myfirst);

  00012	8b 45 f8	 mov	 eax, DWORD PTR __My_data$[ebp]
  00015	8b 4d f8	 mov	 ecx, DWORD PTR __My_data$[ebp]
  00018	8b 40 08	 mov	 eax, DWORD PTR [eax+8]
  0001b	2b 01		 sub	 eax, DWORD PTR [ecx]
  0001d	c1 f8 05	 sar	 eax, 5

; 1495 :     }

  00020	5f		 pop	 edi
  00021	5e		 pop	 esi
  00022	5b		 pop	 ebx
  00023	8b e5		 mov	 esp, ebp
  00025	5d		 pop	 ebp
  00026	c3		 ret	 0
?capacity@?$vector@UIP_BLOCK@@V?$allocator@UIP_BLOCK@@@std@@@std@@QBEIXZ ENDP ; std::vector<IP_BLOCK,std::allocator<IP_BLOCK> >::capacity
_TEXT	ENDS
; Function compile flags: /Odtp /ZI
; File C:\Program Files (x86)\Microsoft Visual Studio\2019\Community\VC\Tools\MSVC\14.27.29110\include\vector
;	COMDAT ?max_size@?$vector@UIP_BLOCK@@V?$allocator@UIP_BLOCK@@@std@@@std@@QBEIXZ
_TEXT	SEGMENT
$T1 = -76						; size = 4
$T2 = -72						; size = 4
_this$ = -4						; size = 4
?max_size@?$vector@UIP_BLOCK@@V?$allocator@UIP_BLOCK@@@std@@@std@@QBEIXZ PROC ; std::vector<IP_BLOCK,std::allocator<IP_BLOCK> >::max_size, COMDAT
; _this$ = ecx

; 1487 :     _NODISCARD size_type max_size() const noexcept {

  00000	55		 push	 ebp
  00001	8b ec		 mov	 ebp, esp
  00003	83 ec 4c	 sub	 esp, 76			; 0000004cH
  00006	53		 push	 ebx
  00007	56		 push	 esi
  00008	57		 push	 edi
  00009	89 4d fc	 mov	 DWORD PTR _this$[ebp], ecx

; 1488 :         return (_STD min)(

  0000c	8b 4d fc	 mov	 ecx, DWORD PTR _this$[ebp]
  0000f	e8 00 00 00 00	 call	 ?_Getal@?$vector@UIP_BLOCK@@V?$allocator@UIP_BLOCK@@@std@@@std@@ABEABV?$allocator@UIP_BLOCK@@@2@XZ ; std::vector<IP_BLOCK,std::allocator<IP_BLOCK> >::_Getal
  00014	50		 push	 eax
  00015	e8 00 00 00 00	 call	 ?max_size@?$_Default_allocator_traits@V?$allocator@UIP_BLOCK@@@std@@@std@@SAIABV?$allocator@UIP_BLOCK@@@2@@Z ; std::_Default_allocator_traits<std::allocator<IP_BLOCK> >::max_size
  0001a	83 c4 04	 add	 esp, 4
  0001d	89 45 b8	 mov	 DWORD PTR $T2[ebp], eax
  00020	e8 00 00 00 00	 call	 ?max@?$numeric_limits@H@std@@SAHXZ ; std::numeric_limits<int>::max
  00025	89 45 b4	 mov	 DWORD PTR $T1[ebp], eax
  00028	8d 45 b8	 lea	 eax, DWORD PTR $T2[ebp]
  0002b	50		 push	 eax
  0002c	8d 4d b4	 lea	 ecx, DWORD PTR $T1[ebp]
  0002f	51		 push	 ecx
  00030	e8 00 00 00 00	 call	 ??$min@I@std@@YAABIABI0@Z ; std::min<unsigned int>
  00035	83 c4 08	 add	 esp, 8
  00038	8b 00		 mov	 eax, DWORD PTR [eax]

; 1489 :             static_cast<size_type>((numeric_limits<difference_type>::max)()), _Alty_traits::max_size(_Getal()));
; 1490 :     }

  0003a	5f		 pop	 edi
  0003b	5e		 pop	 esi
  0003c	5b		 pop	 ebx
  0003d	8b e5		 mov	 esp, ebp
  0003f	5d		 pop	 ebp
  00040	c3		 ret	 0
?max_size@?$vector@UIP_BLOCK@@V?$allocator@UIP_BLOCK@@@std@@@std@@QBEIXZ ENDP ; std::vector<IP_BLOCK,std::allocator<IP_BLOCK> >::max_size
_TEXT	ENDS
; Function compile flags: /Odtp /ZI
; File C:\Program Files (x86)\Microsoft Visual Studio\2019\Community\VC\Tools\MSVC\14.27.29110\include\vector
;	COMDAT ?size@?$vector@UIP_BLOCK@@V?$allocator@UIP_BLOCK@@@std@@@std@@QBEIXZ
_TEXT	SEGMENT
__My_data$ = -8						; size = 4
_this$ = -4						; size = 4
?size@?$vector@UIP_BLOCK@@V?$allocator@UIP_BLOCK@@@std@@@std@@QBEIXZ PROC ; std::vector<IP_BLOCK,std::allocator<IP_BLOCK> >::size, COMDAT
; _this$ = ecx

; 1482 :     _NODISCARD size_type size() const noexcept {

  00000	55		 push	 ebp
  00001	8b ec		 mov	 ebp, esp
  00003	83 ec 48	 sub	 esp, 72			; 00000048H
  00006	53		 push	 ebx
  00007	56		 push	 esi
  00008	57		 push	 edi
  00009	89 4d fc	 mov	 DWORD PTR _this$[ebp], ecx

; 1483 :         auto& _My_data = _Mypair._Myval2;

  0000c	8b 45 fc	 mov	 eax, DWORD PTR _this$[ebp]
  0000f	89 45 f8	 mov	 DWORD PTR __My_data$[ebp], eax

; 1484 :         return static_cast<size_type>(_My_data._Mylast - _My_data._Myfirst);

  00012	8b 45 f8	 mov	 eax, DWORD PTR __My_data$[ebp]
  00015	8b 4d f8	 mov	 ecx, DWORD PTR __My_data$[ebp]
  00018	8b 40 04	 mov	 eax, DWORD PTR [eax+4]
  0001b	2b 01		 sub	 eax, DWORD PTR [ecx]
  0001d	c1 f8 05	 sar	 eax, 5

; 1485 :     }

  00020	5f		 pop	 edi
  00021	5e		 pop	 esi
  00022	5b		 pop	 ebx
  00023	8b e5		 mov	 esp, ebp
  00025	5d		 pop	 ebp
  00026	c3		 ret	 0
?size@?$vector@UIP_BLOCK@@V?$allocator@UIP_BLOCK@@@std@@@std@@QBEIXZ ENDP ; std::vector<IP_BLOCK,std::allocator<IP_BLOCK> >::size
_TEXT	ENDS
; Function compile flags: /Odtp /ZI
; File C:\Program Files (x86)\Microsoft Visual Studio\2019\Community\VC\Tools\MSVC\14.27.29110\include\vector
;	COMDAT ?end@?$vector@UIP_BLOCK@@V?$allocator@UIP_BLOCK@@@std@@@std@@QAE?AV?$_Vector_iterator@V?$_Vector_val@U?$_Simple_types@UIP_BLOCK@@@std@@@std@@@2@XZ
_TEXT	SEGMENT
__My_data$ = -8						; size = 4
_this$ = -4						; size = 4
___$ReturnUdt$ = 8					; size = 4
?end@?$vector@UIP_BLOCK@@V?$allocator@UIP_BLOCK@@@std@@@std@@QAE?AV?$_Vector_iterator@V?$_Vector_val@U?$_Simple_types@UIP_BLOCK@@@std@@@std@@@2@XZ PROC ; std::vector<IP_BLOCK,std::allocator<IP_BLOCK> >::end, COMDAT
; _this$ = ecx

; 1419 :     _NODISCARD iterator end() noexcept {

  00000	55		 push	 ebp
  00001	8b ec		 mov	 ebp, esp
  00003	83 ec 48	 sub	 esp, 72			; 00000048H
  00006	53		 push	 ebx
  00007	56		 push	 esi
  00008	57		 push	 edi
  00009	89 4d fc	 mov	 DWORD PTR _this$[ebp], ecx

; 1420 :         auto& _My_data = _Mypair._Myval2;

  0000c	8b 45 fc	 mov	 eax, DWORD PTR _this$[ebp]
  0000f	89 45 f8	 mov	 DWORD PTR __My_data$[ebp], eax

; 1421 :         return iterator(_My_data._Mylast, _STD addressof(_My_data));

  00012	8b 45 f8	 mov	 eax, DWORD PTR __My_data$[ebp]
  00015	50		 push	 eax
  00016	e8 00 00 00 00	 call	 ??$addressof@V?$_Vector_val@U?$_Simple_types@UIP_BLOCK@@@std@@@std@@@std@@YAPAV?$_Vector_val@U?$_Simple_types@UIP_BLOCK@@@std@@@0@AAV10@@Z ; std::addressof<std::_Vector_val<std::_Simple_types<IP_BLOCK> > >
  0001b	83 c4 04	 add	 esp, 4
  0001e	50		 push	 eax
  0001f	8b 4d f8	 mov	 ecx, DWORD PTR __My_data$[ebp]
  00022	8b 51 04	 mov	 edx, DWORD PTR [ecx+4]
  00025	52		 push	 edx
  00026	8b 4d 08	 mov	 ecx, DWORD PTR ___$ReturnUdt$[ebp]
  00029	e8 00 00 00 00	 call	 ??0?$_Vector_iterator@V?$_Vector_val@U?$_Simple_types@UIP_BLOCK@@@std@@@std@@@std@@QAE@PAUIP_BLOCK@@PBU_Container_base0@1@@Z
  0002e	8b 45 08	 mov	 eax, DWORD PTR ___$ReturnUdt$[ebp]

; 1422 :     }

  00031	5f		 pop	 edi
  00032	5e		 pop	 esi
  00033	5b		 pop	 ebx
  00034	8b e5		 mov	 esp, ebp
  00036	5d		 pop	 ebp
  00037	c2 04 00	 ret	 4
?end@?$vector@UIP_BLOCK@@V?$allocator@UIP_BLOCK@@@std@@@std@@QAE?AV?$_Vector_iterator@V?$_Vector_val@U?$_Simple_types@UIP_BLOCK@@@std@@@std@@@2@XZ ENDP ; std::vector<IP_BLOCK,std::allocator<IP_BLOCK> >::end
_TEXT	ENDS
; Function compile flags: /Odtp /ZI
; File C:\Program Files (x86)\Microsoft Visual Studio\2019\Community\VC\Tools\MSVC\14.27.29110\include\vector
;	COMDAT ?begin@?$vector@UIP_BLOCK@@V?$allocator@UIP_BLOCK@@@std@@@std@@QAE?AV?$_Vector_iterator@V?$_Vector_val@U?$_Simple_types@UIP_BLOCK@@@std@@@std@@@2@XZ
_TEXT	SEGMENT
__My_data$ = -8						; size = 4
_this$ = -4						; size = 4
___$ReturnUdt$ = 8					; size = 4
?begin@?$vector@UIP_BLOCK@@V?$allocator@UIP_BLOCK@@@std@@@std@@QAE?AV?$_Vector_iterator@V?$_Vector_val@U?$_Simple_types@UIP_BLOCK@@@std@@@std@@@2@XZ PROC ; std::vector<IP_BLOCK,std::allocator<IP_BLOCK> >::begin, COMDAT
; _this$ = ecx

; 1409 :     _NODISCARD iterator begin() noexcept {

  00000	55		 push	 ebp
  00001	8b ec		 mov	 ebp, esp
  00003	83 ec 48	 sub	 esp, 72			; 00000048H
  00006	53		 push	 ebx
  00007	56		 push	 esi
  00008	57		 push	 edi
  00009	89 4d fc	 mov	 DWORD PTR _this$[ebp], ecx

; 1410 :         auto& _My_data = _Mypair._Myval2;

  0000c	8b 45 fc	 mov	 eax, DWORD PTR _this$[ebp]
  0000f	89 45 f8	 mov	 DWORD PTR __My_data$[ebp], eax

; 1411 :         return iterator(_My_data._Myfirst, _STD addressof(_My_data));

  00012	8b 45 f8	 mov	 eax, DWORD PTR __My_data$[ebp]
  00015	50		 push	 eax
  00016	e8 00 00 00 00	 call	 ??$addressof@V?$_Vector_val@U?$_Simple_types@UIP_BLOCK@@@std@@@std@@@std@@YAPAV?$_Vector_val@U?$_Simple_types@UIP_BLOCK@@@std@@@0@AAV10@@Z ; std::addressof<std::_Vector_val<std::_Simple_types<IP_BLOCK> > >
  0001b	83 c4 04	 add	 esp, 4
  0001e	50		 push	 eax
  0001f	8b 4d f8	 mov	 ecx, DWORD PTR __My_data$[ebp]
  00022	8b 11		 mov	 edx, DWORD PTR [ecx]
  00024	52		 push	 edx
  00025	8b 4d 08	 mov	 ecx, DWORD PTR ___$ReturnUdt$[ebp]
  00028	e8 00 00 00 00	 call	 ??0?$_Vector_iterator@V?$_Vector_val@U?$_Simple_types@UIP_BLOCK@@@std@@@std@@@std@@QAE@PAUIP_BLOCK@@PBU_Container_base0@1@@Z
  0002d	8b 45 08	 mov	 eax, DWORD PTR ___$ReturnUdt$[ebp]

; 1412 :     }

  00030	5f		 pop	 edi
  00031	5e		 pop	 esi
  00032	5b		 pop	 ebx
  00033	8b e5		 mov	 esp, ebp
  00035	5d		 pop	 ebp
  00036	c2 04 00	 ret	 4
?begin@?$vector@UIP_BLOCK@@V?$allocator@UIP_BLOCK@@@std@@@std@@QAE?AV?$_Vector_iterator@V?$_Vector_val@U?$_Simple_types@UIP_BLOCK@@@std@@@std@@@2@XZ ENDP ; std::vector<IP_BLOCK,std::allocator<IP_BLOCK> >::begin
_TEXT	ENDS
; Function compile flags: /Odtp /ZI
; File C:\Program Files (x86)\Microsoft Visual Studio\2019\Community\VC\Tools\MSVC\14.27.29110\include\vector
;	COMDAT ?erase@?$vector@UIP_BLOCK@@V?$allocator@UIP_BLOCK@@@std@@@std@@QAE?AV?$_Vector_iterator@V?$_Vector_val@U?$_Simple_types@UIP_BLOCK@@@std@@@std@@@2@V?$_Vector_const_iterator@V?$_Vector_val@U?$_Simple_types@UIP_BLOCK@@@std@@@std@@@2@0@Z
_TEXT	SEGMENT
__Newlast$2 = -36					; size = 4
__Mylast$ = -32						; size = 4
__My_data$ = -28					; size = 4
__Lastptr$ = -24					; size = 4
__Firstptr$ = -20					; size = 4
_this$ = -16						; size = 4
__$EHRec$ = -12						; size = 12
___$ReturnUdt$ = 8					; size = 4
__First$ = 12						; size = 4
__Last$ = 16						; size = 4
?erase@?$vector@UIP_BLOCK@@V?$allocator@UIP_BLOCK@@@std@@@std@@QAE?AV?$_Vector_iterator@V?$_Vector_val@U?$_Simple_types@UIP_BLOCK@@@std@@@std@@@2@V?$_Vector_const_iterator@V?$_Vector_val@U?$_Simple_types@UIP_BLOCK@@@std@@@std@@@2@0@Z PROC ; std::vector<IP_BLOCK,std::allocator<IP_BLOCK> >::erase, COMDAT
; _this$ = ecx

; 1360 :         is_nothrow_move_assignable_v<value_type>) /* strengthened */ {

  00000	55		 push	 ebp
  00001	8b ec		 mov	 ebp, esp
  00003	6a ff		 push	 -1
  00005	68 00 00 00 00	 push	 __ehhandler$?erase@?$vector@UIP_BLOCK@@V?$allocator@UIP_BLOCK@@@std@@@std@@QAE?AV?$_Vector_iterator@V?$_Vector_val@U?$_Simple_types@UIP_BLOCK@@@std@@@std@@@2@V?$_Vector_const_iterator@V?$_Vector_val@U?$_Simple_types@UIP_BLOCK@@@std@@@std@@@2@0@Z
  0000a	64 a1 00 00 00
	00		 mov	 eax, DWORD PTR fs:0
  00010	50		 push	 eax
  00011	83 ec 58	 sub	 esp, 88			; 00000058H
  00014	53		 push	 ebx
  00015	56		 push	 esi
  00016	57		 push	 edi
  00017	a1 00 00 00 00	 mov	 eax, DWORD PTR ___security_cookie
  0001c	33 c5		 xor	 eax, ebp
  0001e	50		 push	 eax
  0001f	8d 45 f4	 lea	 eax, DWORD PTR __$EHRec$[ebp]
  00022	64 a3 00 00 00
	00		 mov	 DWORD PTR fs:0, eax
  00028	89 4d f0	 mov	 DWORD PTR _this$[ebp], ecx

; 1361 :         const pointer _Firstptr = _First._Ptr;

  0002b	8b 45 0c	 mov	 eax, DWORD PTR __First$[ebp]
  0002e	89 45 ec	 mov	 DWORD PTR __Firstptr$[ebp], eax

; 1362 :         const pointer _Lastptr  = _Last._Ptr;

  00031	8b 45 10	 mov	 eax, DWORD PTR __Last$[ebp]
  00034	89 45 e8	 mov	 DWORD PTR __Lastptr$[ebp], eax

; 1363 :         auto& _My_data          = _Mypair._Myval2;

  00037	8b 45 f0	 mov	 eax, DWORD PTR _this$[ebp]
  0003a	89 45 e4	 mov	 DWORD PTR __My_data$[ebp], eax

; 1364 :         pointer& _Mylast        = _My_data._Mylast;

  0003d	8b 45 e4	 mov	 eax, DWORD PTR __My_data$[ebp]
  00040	83 c0 04	 add	 eax, 4
  00043	89 45 e0	 mov	 DWORD PTR __Mylast$[ebp], eax

; 1365 : 
; 1366 : #if _ITERATOR_DEBUG_LEVEL == 2
; 1367 :         _STL_VERIFY(_First._Getcont() == _STD addressof(_My_data) && _Last._Getcont() == _STD addressof(_My_data)
; 1368 :                         && _Firstptr >= _My_data._Myfirst && _Lastptr >= _Firstptr && _Mylast >= _Lastptr,
; 1369 :             "vector erase iterator outside range");
; 1370 : #endif // _ITERATOR_DEBUG_LEVEL == 2
; 1371 : 
; 1372 :         if (_Firstptr != _Lastptr) { // something to do, invalidate iterators

  00046	8b 45 ec	 mov	 eax, DWORD PTR __Firstptr$[ebp]
  00049	3b 45 e8	 cmp	 eax, DWORD PTR __Lastptr$[ebp]
  0004c	74 45		 je	 SHORT $LN2@erase

; 1373 :             _Orphan_range(_Firstptr, _Mylast);

  0004e	8b 45 e0	 mov	 eax, DWORD PTR __Mylast$[ebp]
  00051	8b 08		 mov	 ecx, DWORD PTR [eax]
  00053	51		 push	 ecx
  00054	8b 55 ec	 mov	 edx, DWORD PTR __Firstptr$[ebp]
  00057	52		 push	 edx
  00058	8b 4d f0	 mov	 ecx, DWORD PTR _this$[ebp]
  0005b	e8 00 00 00 00	 call	 ?_Orphan_range@?$vector@UIP_BLOCK@@V?$allocator@UIP_BLOCK@@@std@@@std@@ABEXPAUIP_BLOCK@@0@Z ; std::vector<IP_BLOCK,std::allocator<IP_BLOCK> >::_Orphan_range

; 1374 : 
; 1375 :             const pointer _Newlast = _Move_unchecked(_Lastptr, _Mylast, _Firstptr);

  00060	8b 45 ec	 mov	 eax, DWORD PTR __Firstptr$[ebp]
  00063	50		 push	 eax
  00064	8b 4d e0	 mov	 ecx, DWORD PTR __Mylast$[ebp]
  00067	8b 11		 mov	 edx, DWORD PTR [ecx]
  00069	52		 push	 edx
  0006a	8b 45 e8	 mov	 eax, DWORD PTR __Lastptr$[ebp]
  0006d	50		 push	 eax
  0006e	e8 00 00 00 00	 call	 ??$_Move_unchecked@PAUIP_BLOCK@@PAU1@@std@@YAPAUIP_BLOCK@@PAU1@00@Z ; std::_Move_unchecked<IP_BLOCK *,IP_BLOCK *>
  00073	83 c4 0c	 add	 esp, 12			; 0000000cH
  00076	89 45 dc	 mov	 DWORD PTR __Newlast$2[ebp], eax

; 1376 :             _Destroy(_Newlast, _Mylast);

  00079	8b 45 e0	 mov	 eax, DWORD PTR __Mylast$[ebp]
  0007c	8b 08		 mov	 ecx, DWORD PTR [eax]
  0007e	51		 push	 ecx
  0007f	8b 55 dc	 mov	 edx, DWORD PTR __Newlast$2[ebp]
  00082	52		 push	 edx
  00083	8b 4d f0	 mov	 ecx, DWORD PTR _this$[ebp]
  00086	e8 00 00 00 00	 call	 ?_Destroy@?$vector@UIP_BLOCK@@V?$allocator@UIP_BLOCK@@@std@@@std@@AAEXPAUIP_BLOCK@@0@Z ; std::vector<IP_BLOCK,std::allocator<IP_BLOCK> >::_Destroy

; 1377 :             _Mylast = _Newlast;

  0008b	8b 45 e0	 mov	 eax, DWORD PTR __Mylast$[ebp]
  0008e	8b 4d dc	 mov	 ecx, DWORD PTR __Newlast$2[ebp]
  00091	89 08		 mov	 DWORD PTR [eax], ecx
$LN2@erase:

; 1378 :         }
; 1379 : 
; 1380 :         return iterator(_Firstptr, _STD addressof(_My_data));

  00093	8b 45 e4	 mov	 eax, DWORD PTR __My_data$[ebp]
  00096	50		 push	 eax
  00097	e8 00 00 00 00	 call	 ??$addressof@V?$_Vector_val@U?$_Simple_types@UIP_BLOCK@@@std@@@std@@@std@@YAPAV?$_Vector_val@U?$_Simple_types@UIP_BLOCK@@@std@@@0@AAV10@@Z ; std::addressof<std::_Vector_val<std::_Simple_types<IP_BLOCK> > >
  0009c	83 c4 04	 add	 esp, 4
  0009f	50		 push	 eax
  000a0	8b 4d ec	 mov	 ecx, DWORD PTR __Firstptr$[ebp]
  000a3	51		 push	 ecx
  000a4	8b 4d 08	 mov	 ecx, DWORD PTR ___$ReturnUdt$[ebp]
  000a7	e8 00 00 00 00	 call	 ??0?$_Vector_iterator@V?$_Vector_val@U?$_Simple_types@UIP_BLOCK@@@std@@@std@@@std@@QAE@PAUIP_BLOCK@@PBU_Container_base0@1@@Z
  000ac	8b 45 08	 mov	 eax, DWORD PTR ___$ReturnUdt$[ebp]

; 1381 :     }

  000af	8b 4d f4	 mov	 ecx, DWORD PTR __$EHRec$[ebp]
  000b2	64 89 0d 00 00
	00 00		 mov	 DWORD PTR fs:0, ecx
  000b9	59		 pop	 ecx
  000ba	5f		 pop	 edi
  000bb	5e		 pop	 esi
  000bc	5b		 pop	 ebx
  000bd	8b e5		 mov	 esp, ebp
  000bf	5d		 pop	 ebp
  000c0	c2 0c 00	 ret	 12			; 0000000cH
  000c3	cc		 int	 3
  000c4	cc		 int	 3
  000c5	cc		 int	 3
  000c6	cc		 int	 3
  000c7	cc		 int	 3
_TEXT	ENDS
;	COMDAT text$x
text$x	SEGMENT
__ehhandler$?erase@?$vector@UIP_BLOCK@@V?$allocator@UIP_BLOCK@@@std@@@std@@QAE?AV?$_Vector_iterator@V?$_Vector_val@U?$_Simple_types@UIP_BLOCK@@@std@@@std@@@2@V?$_Vector_const_iterator@V?$_Vector_val@U?$_Simple_types@UIP_BLOCK@@@std@@@std@@@2@0@Z:
  00000	90		 npad	 1
  00001	90		 npad	 1
  00002	8b 54 24 08	 mov	 edx, DWORD PTR [esp+8]
  00006	8d 42 0c	 lea	 eax, DWORD PTR [edx+12]
  00009	8b 4a 98	 mov	 ecx, DWORD PTR [edx-104]
  0000c	33 c8		 xor	 ecx, eax
  0000e	e8 00 00 00 00	 call	 @__security_check_cookie@4
  00013	b8 00 00 00 00	 mov	 eax, OFFSET __ehfuncinfo$?erase@?$vector@UIP_BLOCK@@V?$allocator@UIP_BLOCK@@@std@@@std@@QAE?AV?$_Vector_iterator@V?$_Vector_val@U?$_Simple_types@UIP_BLOCK@@@std@@@std@@@2@V?$_Vector_const_iterator@V?$_Vector_val@U?$_Simple_types@UIP_BLOCK@@@std@@@std@@@2@0@Z
  00018	e9 00 00 00 00	 jmp	 ___CxxFrameHandler3
text$x	ENDS
?erase@?$vector@UIP_BLOCK@@V?$allocator@UIP_BLOCK@@@std@@@std@@QAE?AV?$_Vector_iterator@V?$_Vector_val@U?$_Simple_types@UIP_BLOCK@@@std@@@std@@@2@V?$_Vector_const_iterator@V?$_Vector_val@U?$_Simple_types@UIP_BLOCK@@@std@@@std@@@2@0@Z ENDP ; std::vector<IP_BLOCK,std::allocator<IP_BLOCK> >::erase
; Function compile flags: /Odtp /ZI
; File C:\Program Files (x86)\Microsoft Visual Studio\2019\Community\VC\Tools\MSVC\14.27.29110\include\vector
;	COMDAT ?erase@?$vector@UIP_BLOCK@@V?$allocator@UIP_BLOCK@@@std@@@std@@QAE?AV?$_Vector_iterator@V?$_Vector_val@U?$_Simple_types@UIP_BLOCK@@@std@@@std@@@2@V?$_Vector_const_iterator@V?$_Vector_val@U?$_Simple_types@UIP_BLOCK@@@std@@@std@@@2@@Z
_TEXT	SEGMENT
__Mylast$ = -28						; size = 4
__My_data$ = -24					; size = 4
__Whereptr$ = -20					; size = 4
_this$ = -16						; size = 4
__$EHRec$ = -12						; size = 12
___$ReturnUdt$ = 8					; size = 4
__Where$ = 12						; size = 4
?erase@?$vector@UIP_BLOCK@@V?$allocator@UIP_BLOCK@@@std@@@std@@QAE?AV?$_Vector_iterator@V?$_Vector_val@U?$_Simple_types@UIP_BLOCK@@@std@@@std@@@2@V?$_Vector_const_iterator@V?$_Vector_val@U?$_Simple_types@UIP_BLOCK@@@std@@@std@@@2@@Z PROC ; std::vector<IP_BLOCK,std::allocator<IP_BLOCK> >::erase, COMDAT
; _this$ = ecx

; 1341 :     iterator erase(const_iterator _Where) noexcept(is_nothrow_move_assignable_v<value_type>) /* strengthened */ {

  00000	55		 push	 ebp
  00001	8b ec		 mov	 ebp, esp
  00003	6a ff		 push	 -1
  00005	68 00 00 00 00	 push	 __ehhandler$?erase@?$vector@UIP_BLOCK@@V?$allocator@UIP_BLOCK@@@std@@@std@@QAE?AV?$_Vector_iterator@V?$_Vector_val@U?$_Simple_types@UIP_BLOCK@@@std@@@std@@@2@V?$_Vector_const_iterator@V?$_Vector_val@U?$_Simple_types@UIP_BLOCK@@@std@@@std@@@2@@Z
  0000a	64 a1 00 00 00
	00		 mov	 eax, DWORD PTR fs:0
  00010	50		 push	 eax
  00011	83 ec 50	 sub	 esp, 80			; 00000050H
  00014	53		 push	 ebx
  00015	56		 push	 esi
  00016	57		 push	 edi
  00017	a1 00 00 00 00	 mov	 eax, DWORD PTR ___security_cookie
  0001c	33 c5		 xor	 eax, ebp
  0001e	50		 push	 eax
  0001f	8d 45 f4	 lea	 eax, DWORD PTR __$EHRec$[ebp]
  00022	64 a3 00 00 00
	00		 mov	 DWORD PTR fs:0, eax
  00028	89 4d f0	 mov	 DWORD PTR _this$[ebp], ecx

; 1342 :         const pointer _Whereptr = _Where._Ptr;

  0002b	8b 45 0c	 mov	 eax, DWORD PTR __Where$[ebp]
  0002e	89 45 ec	 mov	 DWORD PTR __Whereptr$[ebp], eax

; 1343 :         auto& _My_data          = _Mypair._Myval2;

  00031	8b 45 f0	 mov	 eax, DWORD PTR _this$[ebp]
  00034	89 45 e8	 mov	 DWORD PTR __My_data$[ebp], eax

; 1344 :         pointer& _Mylast        = _My_data._Mylast;

  00037	8b 45 e8	 mov	 eax, DWORD PTR __My_data$[ebp]
  0003a	83 c0 04	 add	 eax, 4
  0003d	89 45 e4	 mov	 DWORD PTR __Mylast$[ebp], eax

; 1345 : 
; 1346 : #if _ITERATOR_DEBUG_LEVEL == 2
; 1347 :         _STL_VERIFY(
; 1348 :             _Where._Getcont() == _STD addressof(_My_data) && _Whereptr >= _My_data._Myfirst && _Mylast > _Whereptr,
; 1349 :             "vector erase iterator outside range");
; 1350 :         _Orphan_range(_Whereptr, _Mylast);
; 1351 : #endif // _ITERATOR_DEBUG_LEVEL == 2
; 1352 : 
; 1353 :         _Move_unchecked(_Whereptr + 1, _Mylast, _Whereptr);

  00040	8b 45 ec	 mov	 eax, DWORD PTR __Whereptr$[ebp]
  00043	50		 push	 eax
  00044	8b 4d e4	 mov	 ecx, DWORD PTR __Mylast$[ebp]
  00047	8b 11		 mov	 edx, DWORD PTR [ecx]
  00049	52		 push	 edx
  0004a	8b 45 ec	 mov	 eax, DWORD PTR __Whereptr$[ebp]
  0004d	83 c0 20	 add	 eax, 32			; 00000020H
  00050	50		 push	 eax
  00051	e8 00 00 00 00	 call	 ??$_Move_unchecked@PAUIP_BLOCK@@PAU1@@std@@YAPAUIP_BLOCK@@PAU1@00@Z ; std::_Move_unchecked<IP_BLOCK *,IP_BLOCK *>
  00056	83 c4 0c	 add	 esp, 12			; 0000000cH

; 1354 :         _Alty_traits::destroy(_Getal(), _Unfancy(_Mylast - 1));

  00059	8b 45 e4	 mov	 eax, DWORD PTR __Mylast$[ebp]
  0005c	8b 08		 mov	 ecx, DWORD PTR [eax]
  0005e	83 e9 20	 sub	 ecx, 32			; 00000020H
  00061	51		 push	 ecx
  00062	e8 00 00 00 00	 call	 ??$_Unfancy@UIP_BLOCK@@@std@@YAPAUIP_BLOCK@@PAU1@@Z ; std::_Unfancy<IP_BLOCK>
  00067	83 c4 04	 add	 esp, 4
  0006a	50		 push	 eax
  0006b	8b 4d f0	 mov	 ecx, DWORD PTR _this$[ebp]
  0006e	e8 00 00 00 00	 call	 ?_Getal@?$vector@UIP_BLOCK@@V?$allocator@UIP_BLOCK@@@std@@@std@@AAEAAV?$allocator@UIP_BLOCK@@@2@XZ ; std::vector<IP_BLOCK,std::allocator<IP_BLOCK> >::_Getal
  00073	50		 push	 eax
  00074	e8 00 00 00 00	 call	 ??$destroy@UIP_BLOCK@@@?$_Default_allocator_traits@V?$allocator@UIP_BLOCK@@@std@@@std@@SAXAAV?$allocator@UIP_BLOCK@@@1@QAUIP_BLOCK@@@Z ; std::_Default_allocator_traits<std::allocator<IP_BLOCK> >::destroy<IP_BLOCK>
  00079	83 c4 08	 add	 esp, 8

; 1355 :         --_Mylast;

  0007c	8b 45 e4	 mov	 eax, DWORD PTR __Mylast$[ebp]
  0007f	8b 08		 mov	 ecx, DWORD PTR [eax]
  00081	83 e9 20	 sub	 ecx, 32			; 00000020H
  00084	8b 55 e4	 mov	 edx, DWORD PTR __Mylast$[ebp]
  00087	89 0a		 mov	 DWORD PTR [edx], ecx

; 1356 :         return iterator(_Whereptr, _STD addressof(_My_data));

  00089	8b 45 e8	 mov	 eax, DWORD PTR __My_data$[ebp]
  0008c	50		 push	 eax
  0008d	e8 00 00 00 00	 call	 ??$addressof@V?$_Vector_val@U?$_Simple_types@UIP_BLOCK@@@std@@@std@@@std@@YAPAV?$_Vector_val@U?$_Simple_types@UIP_BLOCK@@@std@@@0@AAV10@@Z ; std::addressof<std::_Vector_val<std::_Simple_types<IP_BLOCK> > >
  00092	83 c4 04	 add	 esp, 4
  00095	50		 push	 eax
  00096	8b 4d ec	 mov	 ecx, DWORD PTR __Whereptr$[ebp]
  00099	51		 push	 ecx
  0009a	8b 4d 08	 mov	 ecx, DWORD PTR ___$ReturnUdt$[ebp]
  0009d	e8 00 00 00 00	 call	 ??0?$_Vector_iterator@V?$_Vector_val@U?$_Simple_types@UIP_BLOCK@@@std@@@std@@@std@@QAE@PAUIP_BLOCK@@PBU_Container_base0@1@@Z
  000a2	8b 45 08	 mov	 eax, DWORD PTR ___$ReturnUdt$[ebp]

; 1357 :     }

  000a5	8b 4d f4	 mov	 ecx, DWORD PTR __$EHRec$[ebp]
  000a8	64 89 0d 00 00
	00 00		 mov	 DWORD PTR fs:0, ecx
  000af	59		 pop	 ecx
  000b0	5f		 pop	 edi
  000b1	5e		 pop	 esi
  000b2	5b		 pop	 ebx
  000b3	8b e5		 mov	 esp, ebp
  000b5	5d		 pop	 ebp
  000b6	c2 08 00	 ret	 8
  000b9	cc		 int	 3
  000ba	cc		 int	 3
  000bb	cc		 int	 3
  000bc	cc		 int	 3
  000bd	cc		 int	 3
_TEXT	ENDS
;	COMDAT text$x
text$x	SEGMENT
__ehhandler$?erase@?$vector@UIP_BLOCK@@V?$allocator@UIP_BLOCK@@@std@@@std@@QAE?AV?$_Vector_iterator@V?$_Vector_val@U?$_Simple_types@UIP_BLOCK@@@std@@@std@@@2@V?$_Vector_const_iterator@V?$_Vector_val@U?$_Simple_types@UIP_BLOCK@@@std@@@std@@@2@@Z:
  00000	90		 npad	 1
  00001	90		 npad	 1
  00002	8b 54 24 08	 mov	 edx, DWORD PTR [esp+8]
  00006	8d 42 0c	 lea	 eax, DWORD PTR [edx+12]
  00009	8b 4a a0	 mov	 ecx, DWORD PTR [edx-96]
  0000c	33 c8		 xor	 ecx, eax
  0000e	e8 00 00 00 00	 call	 @__security_check_cookie@4
  00013	b8 00 00 00 00	 mov	 eax, OFFSET __ehfuncinfo$?erase@?$vector@UIP_BLOCK@@V?$allocator@UIP_BLOCK@@@std@@@std@@QAE?AV?$_Vector_iterator@V?$_Vector_val@U?$_Simple_types@UIP_BLOCK@@@std@@@std@@@2@V?$_Vector_const_iterator@V?$_Vector_val@U?$_Simple_types@UIP_BLOCK@@@std@@@std@@@2@@Z
  00018	e9 00 00 00 00	 jmp	 ___CxxFrameHandler3
text$x	ENDS
?erase@?$vector@UIP_BLOCK@@V?$allocator@UIP_BLOCK@@@std@@@std@@QAE?AV?$_Vector_iterator@V?$_Vector_val@U?$_Simple_types@UIP_BLOCK@@@std@@@std@@@2@V?$_Vector_const_iterator@V?$_Vector_val@U?$_Simple_types@UIP_BLOCK@@@std@@@std@@@2@@Z ENDP ; std::vector<IP_BLOCK,std::allocator<IP_BLOCK> >::erase
; Function compile flags: /Odtp /ZI
; File C:\Program Files (x86)\Microsoft Visual Studio\2019\Community\VC\Tools\MSVC\14.27.29110\include\vector
;	COMDAT ?push_back@?$vector@UIP_BLOCK@@V?$allocator@UIP_BLOCK@@@std@@@std@@QAEXABUIP_BLOCK@@@Z
_TEXT	SEGMENT
_this$ = -4						; size = 4
__Val$ = 8						; size = 4
?push_back@?$vector@UIP_BLOCK@@V?$allocator@UIP_BLOCK@@@std@@@std@@QAEXABUIP_BLOCK@@@Z PROC ; std::vector<IP_BLOCK,std::allocator<IP_BLOCK> >::push_back, COMDAT
; _this$ = ecx

; 716  :     void push_back(const _Ty& _Val) { // insert element at end, provide strong guarantee

  00000	55		 push	 ebp
  00001	8b ec		 mov	 ebp, esp
  00003	83 ec 44	 sub	 esp, 68			; 00000044H
  00006	53		 push	 ebx
  00007	56		 push	 esi
  00008	57		 push	 edi
  00009	89 4d fc	 mov	 DWORD PTR _this$[ebp], ecx

; 717  :         emplace_back(_Val);

  0000c	8b 45 08	 mov	 eax, DWORD PTR __Val$[ebp]
  0000f	50		 push	 eax
  00010	8b 4d fc	 mov	 ecx, DWORD PTR _this$[ebp]
  00013	e8 00 00 00 00	 call	 ??$emplace_back@ABUIP_BLOCK@@@?$vector@UIP_BLOCK@@V?$allocator@UIP_BLOCK@@@std@@@std@@QAE@ABUIP_BLOCK@@@Z ; std::vector<IP_BLOCK,std::allocator<IP_BLOCK> >::emplace_back<IP_BLOCK const &>

; 718  :     }

  00018	5f		 pop	 edi
  00019	5e		 pop	 esi
  0001a	5b		 pop	 ebx
  0001b	8b e5		 mov	 esp, ebp
  0001d	5d		 pop	 ebp
  0001e	c2 04 00	 ret	 4
?push_back@?$vector@UIP_BLOCK@@V?$allocator@UIP_BLOCK@@@std@@@std@@QAEXABUIP_BLOCK@@@Z ENDP ; std::vector<IP_BLOCK,std::allocator<IP_BLOCK> >::push_back
_TEXT	ENDS
; Function compile flags: /Odtp /ZI
; File C:\Program Files (x86)\Microsoft Visual Studio\2019\Community\VC\Tools\MSVC\14.27.29110\include\vector
;	COMDAT ??1?$vector@UIP_BLOCK@@V?$allocator@UIP_BLOCK@@@std@@@std@@QAE@XZ
_TEXT	SEGMENT
_this$ = -4						; size = 4
??1?$vector@UIP_BLOCK@@V?$allocator@UIP_BLOCK@@@std@@@std@@QAE@XZ PROC ; std::vector<IP_BLOCK,std::allocator<IP_BLOCK> >::~vector<IP_BLOCK,std::allocator<IP_BLOCK> >, COMDAT
; _this$ = ecx

; 672  :     ~vector() noexcept {

  00000	55		 push	 ebp
  00001	8b ec		 mov	 ebp, esp
  00003	83 ec 44	 sub	 esp, 68			; 00000044H
  00006	53		 push	 ebx
  00007	56		 push	 esi
  00008	57		 push	 edi
  00009	89 4d fc	 mov	 DWORD PTR _this$[ebp], ecx

; 673  :         _Tidy();

  0000c	8b 4d fc	 mov	 ecx, DWORD PTR _this$[ebp]
  0000f	e8 00 00 00 00	 call	 ?_Tidy@?$vector@UIP_BLOCK@@V?$allocator@UIP_BLOCK@@@std@@@std@@AAEXXZ ; std::vector<IP_BLOCK,std::allocator<IP_BLOCK> >::_Tidy

; 674  : #if _ITERATOR_DEBUG_LEVEL != 0
; 675  :         auto&& _Alproxy = _GET_PROXY_ALLOCATOR(_Alty, _Getal());
; 676  :         _Delete_plain_internal(_Alproxy, _STD exchange(_Mypair._Myval2._Myproxy, nullptr));
; 677  : #endif // _ITERATOR_DEBUG_LEVEL != 0
; 678  :     }

  00014	5f		 pop	 edi
  00015	5e		 pop	 esi
  00016	5b		 pop	 ebx
  00017	8b e5		 mov	 esp, ebp
  00019	5d		 pop	 ebp
  0001a	c3		 ret	 0
??1?$vector@UIP_BLOCK@@V?$allocator@UIP_BLOCK@@@std@@@std@@QAE@XZ ENDP ; std::vector<IP_BLOCK,std::allocator<IP_BLOCK> >::~vector<IP_BLOCK,std::allocator<IP_BLOCK> >
_TEXT	ENDS
; Function compile flags: /Odtp /ZI
; File C:\Program Files (x86)\Microsoft Visual Studio\2019\Community\VC\Tools\MSVC\14.27.29110\include\vector
;	COMDAT ??0?$vector@UIP_BLOCK@@V?$allocator@UIP_BLOCK@@@std@@@std@@QAE@XZ
_TEXT	SEGMENT
$T1 = -70						; size = 1
$T2 = -69						; size = 1
_this$ = -4						; size = 4
??0?$vector@UIP_BLOCK@@V?$allocator@UIP_BLOCK@@@std@@@std@@QAE@XZ PROC ; std::vector<IP_BLOCK,std::allocator<IP_BLOCK> >::vector<IP_BLOCK,std::allocator<IP_BLOCK> >, COMDAT
; _this$ = ecx

; 445  :     vector() noexcept(is_nothrow_default_constructible_v<_Alty>) : _Mypair(_Zero_then_variadic_args_t{}) {

  00000	55		 push	 ebp
  00001	8b ec		 mov	 ebp, esp
  00003	83 ec 48	 sub	 esp, 72			; 00000048H
  00006	53		 push	 ebx
  00007	56		 push	 esi
  00008	57		 push	 edi
  00009	89 4d fc	 mov	 DWORD PTR _this$[ebp], ecx
  0000c	0f b6 45 bb	 movzx	 eax, BYTE PTR $T2[ebp]
  00010	50		 push	 eax
  00011	8b 4d fc	 mov	 ecx, DWORD PTR _this$[ebp]
  00014	e8 00 00 00 00	 call	 ??$?0$$V@?$_Compressed_pair@V?$allocator@UIP_BLOCK@@@std@@V?$_Vector_val@U?$_Simple_types@UIP_BLOCK@@@std@@@2@$00@std@@QAE@U_Zero_then_variadic_args_t@1@@Z ; std::_Compressed_pair<std::allocator<IP_BLOCK>,std::_Vector_val<std::_Simple_types<IP_BLOCK> >,1>::_Compressed_pair<std::allocator<IP_BLOCK>,std::_Vector_val<std::_Simple_types<IP_BLOCK> >,1><>

; 446  :         _Mypair._Myval2._Alloc_proxy(_GET_PROXY_ALLOCATOR(_Alty, _Getal()));

  00019	8d 45 ba	 lea	 eax, DWORD PTR $T1[ebp]
  0001c	50		 push	 eax
  0001d	8b 4d fc	 mov	 ecx, DWORD PTR _this$[ebp]
  00020	e8 00 00 00 00	 call	 ?_Alloc_proxy@_Container_base0@std@@QAEXABU_Fake_allocator@2@@Z ; std::_Container_base0::_Alloc_proxy

; 447  :     }

  00025	8b 45 fc	 mov	 eax, DWORD PTR _this$[ebp]
  00028	5f		 pop	 edi
  00029	5e		 pop	 esi
  0002a	5b		 pop	 ebx
  0002b	8b e5		 mov	 esp, ebp
  0002d	5d		 pop	 ebp
  0002e	c3		 ret	 0
??0?$vector@UIP_BLOCK@@V?$allocator@UIP_BLOCK@@@std@@@std@@QAE@XZ ENDP ; std::vector<IP_BLOCK,std::allocator<IP_BLOCK> >::vector<IP_BLOCK,std::allocator<IP_BLOCK> >
_TEXT	ENDS
; Function compile flags: /Odtp /ZI
; File C:\Program Files (x86)\Microsoft Visual Studio\2019\Community\VC\Tools\MSVC\14.27.29110\include\xmemory
;	COMDAT ?max_size@?$_Default_allocator_traits@V?$allocator@UIP_BLOCK@@@std@@@std@@SAIABV?$allocator@UIP_BLOCK@@@2@@Z
_TEXT	SEGMENT
___formal$ = 8						; size = 4
?max_size@?$_Default_allocator_traits@V?$allocator@UIP_BLOCK@@@std@@@std@@SAIABV?$allocator@UIP_BLOCK@@@2@@Z PROC ; std::_Default_allocator_traits<std::allocator<IP_BLOCK> >::max_size, COMDAT

; 702  :     _NODISCARD static size_type max_size(const _Alloc&) noexcept {

  00000	55		 push	 ebp
  00001	8b ec		 mov	 ebp, esp
  00003	83 ec 40	 sub	 esp, 64			; 00000040H
  00006	53		 push	 ebx
  00007	56		 push	 esi
  00008	57		 push	 edi

; 703  :         return static_cast<size_t>(-1) / sizeof(value_type);

  00009	b8 ff ff ff 07	 mov	 eax, 134217727		; 07ffffffH

; 704  :     }

  0000e	5f		 pop	 edi
  0000f	5e		 pop	 esi
  00010	5b		 pop	 ebx
  00011	8b e5		 mov	 esp, ebp
  00013	5d		 pop	 ebp
  00014	c3		 ret	 0
?max_size@?$_Default_allocator_traits@V?$allocator@UIP_BLOCK@@@std@@@std@@SAIABV?$allocator@UIP_BLOCK@@@2@@Z ENDP ; std::_Default_allocator_traits<std::allocator<IP_BLOCK> >::max_size
_TEXT	ENDS
; Function compile flags: /Odtp /ZI
; File C:\Program Files (x86)\Microsoft Visual Studio\2019\Community\VC\Tools\MSVC\14.27.29110\include\xmemory
;	COMDAT ?allocate@?$allocator@UIP_BLOCK@@@std@@QAEPAUIP_BLOCK@@I@Z
_TEXT	SEGMENT
_this$ = -4						; size = 4
__Count$ = 8						; size = 4
?allocate@?$allocator@UIP_BLOCK@@@std@@QAEPAUIP_BLOCK@@I@Z PROC ; std::allocator<IP_BLOCK>::allocate, COMDAT
; _this$ = ecx

; 806  :     _NODISCARD __declspec(allocator) _Ty* allocate(_CRT_GUARDOVERFLOW const size_t _Count) {

  00000	55		 push	 ebp
  00001	8b ec		 mov	 ebp, esp
  00003	83 ec 44	 sub	 esp, 68			; 00000044H
  00006	53		 push	 ebx
  00007	56		 push	 esi
  00008	57		 push	 edi
  00009	89 4d fc	 mov	 DWORD PTR _this$[ebp], ecx

; 807  :         return static_cast<_Ty*>(_Allocate<_New_alignof<_Ty>>(_Get_size_of_n<sizeof(_Ty)>(_Count)));

  0000c	8b 45 08	 mov	 eax, DWORD PTR __Count$[ebp]
  0000f	50		 push	 eax
  00010	e8 00 00 00 00	 call	 ??$_Get_size_of_n@$0CA@@std@@YAII@Z ; std::_Get_size_of_n<32>
  00015	83 c4 04	 add	 esp, 4
  00018	50		 push	 eax
  00019	e8 00 00 00 00	 call	 ??$_Allocate@$07U_Default_allocate_traits@std@@$0A@@std@@YAPAXI@Z ; std::_Allocate<8,std::_Default_allocate_traits,0>
  0001e	83 c4 04	 add	 esp, 4

; 808  :     }

  00021	5f		 pop	 edi
  00022	5e		 pop	 esi
  00023	5b		 pop	 ebx
  00024	8b e5		 mov	 esp, ebp
  00026	5d		 pop	 ebp
  00027	c2 04 00	 ret	 4
?allocate@?$allocator@UIP_BLOCK@@@std@@QAEPAUIP_BLOCK@@I@Z ENDP ; std::allocator<IP_BLOCK>::allocate
_TEXT	ENDS
; Function compile flags: /Odtp /ZI
; File C:\Program Files (x86)\Microsoft Visual Studio\2019\Community\VC\Tools\MSVC\14.27.29110\include\xmemory
;	COMDAT ?deallocate@?$allocator@UIP_BLOCK@@@std@@QAEXQAUIP_BLOCK@@I@Z
_TEXT	SEGMENT
_this$ = -4						; size = 4
__Ptr$ = 8						; size = 4
__Count$ = 12						; size = 4
?deallocate@?$allocator@UIP_BLOCK@@@std@@QAEXQAUIP_BLOCK@@I@Z PROC ; std::allocator<IP_BLOCK>::deallocate, COMDAT
; _this$ = ecx

; 801  :     void deallocate(_Ty* const _Ptr, const size_t _Count) {

  00000	55		 push	 ebp
  00001	8b ec		 mov	 ebp, esp
  00003	83 ec 44	 sub	 esp, 68			; 00000044H
  00006	53		 push	 ebx
  00007	56		 push	 esi
  00008	57		 push	 edi
  00009	89 4d fc	 mov	 DWORD PTR _this$[ebp], ecx

; 802  :         // no overflow check on the following multiply; we assume _Allocate did that check
; 803  :         _Deallocate<_New_alignof<_Ty>>(_Ptr, sizeof(_Ty) * _Count);

  0000c	8b 45 0c	 mov	 eax, DWORD PTR __Count$[ebp]
  0000f	c1 e0 05	 shl	 eax, 5
  00012	50		 push	 eax
  00013	8b 4d 08	 mov	 ecx, DWORD PTR __Ptr$[ebp]
  00016	51		 push	 ecx
  00017	e8 00 00 00 00	 call	 ??$_Deallocate@$07$0A@@std@@YAXPAXI@Z ; std::_Deallocate<8,0>
  0001c	83 c4 08	 add	 esp, 8

; 804  :     }

  0001f	5f		 pop	 edi
  00020	5e		 pop	 esi
  00021	5b		 pop	 ebx
  00022	8b e5		 mov	 esp, ebp
  00024	5d		 pop	 ebp
  00025	c2 08 00	 ret	 8
?deallocate@?$allocator@UIP_BLOCK@@@std@@QAEXQAUIP_BLOCK@@I@Z ENDP ; std::allocator<IP_BLOCK>::deallocate
_TEXT	ENDS
; Function compile flags: /Odtp /ZI
; File C:\Program Files (x86)\Microsoft Visual Studio\2019\Community\VC\Tools\MSVC\14.27.29110\include\xmemory
;	COMDAT ??0?$allocator@UIP_BLOCK@@@std@@QAE@XZ
_TEXT	SEGMENT
_this$ = -4						; size = 4
??0?$allocator@UIP_BLOCK@@@std@@QAE@XZ PROC		; std::allocator<IP_BLOCK>::allocator<IP_BLOCK>, COMDAT
; _this$ = ecx

; 795  :     constexpr allocator() noexcept {}

  00000	55		 push	 ebp
  00001	8b ec		 mov	 ebp, esp
  00003	83 ec 44	 sub	 esp, 68			; 00000044H
  00006	53		 push	 ebx
  00007	56		 push	 esi
  00008	57		 push	 edi
  00009	89 4d fc	 mov	 DWORD PTR _this$[ebp], ecx
  0000c	8b 45 fc	 mov	 eax, DWORD PTR _this$[ebp]
  0000f	5f		 pop	 edi
  00010	5e		 pop	 esi
  00011	5b		 pop	 ebx
  00012	8b e5		 mov	 esp, ebp
  00014	5d		 pop	 ebp
  00015	c3		 ret	 0
??0?$allocator@UIP_BLOCK@@@std@@QAE@XZ ENDP		; std::allocator<IP_BLOCK>::allocator<IP_BLOCK>
_TEXT	ENDS
; Function compile flags: /Odtp /ZI
; File C:\Mu Online\Mu-GS-Webzen-MC-10093\GameServer\AntiHack.cpp
;	COMDAT ?SetConnectUser@@YAXPAUUSER_CONNECT_TIME@@@Z
_TEXT	SEGMENT
$T1 = -120						; size = 4
$T2 = -116						; size = 4
$T3 = -112						; size = 4
$T4 = -108						; size = 4
$T5 = -104						; size = 4
_pIpBlock$6 = -36					; size = 32
__$ArrayPad$ = -4					; size = 4
_pUserConnectTime$ = 8					; size = 4
?SetConnectUser@@YAXPAUUSER_CONNECT_TIME@@@Z PROC	; SetConnectUser, COMDAT

; 10   : {

  00000	55		 push	 ebp
  00001	8b ec		 mov	 ebp, esp
  00003	83 ec 78	 sub	 esp, 120		; 00000078H
  00006	a1 00 00 00 00	 mov	 eax, DWORD PTR ___security_cookie
  0000b	33 c5		 xor	 eax, ebp
  0000d	89 45 fc	 mov	 DWORD PTR __$ArrayPad$[ebp], eax
  00010	53		 push	 ebx
  00011	56		 push	 esi
  00012	57		 push	 edi

; 11   : 	if( vtUserConnectTime.size() < 200 )

  00013	b9 00 00 00 00	 mov	 ecx, OFFSET ?vtUserConnectTime@@3V?$vector@UUSER_CONNECT_TIME@@V?$allocator@UUSER_CONNECT_TIME@@@std@@@std@@A ; vtUserConnectTime
  00018	e8 00 00 00 00	 call	 ?size@?$vector@UUSER_CONNECT_TIME@@V?$allocator@UUSER_CONNECT_TIME@@@std@@@std@@QBEIXZ ; std::vector<USER_CONNECT_TIME,std::allocator<USER_CONNECT_TIME> >::size
  0001d	3d c8 00 00 00	 cmp	 eax, 200		; 000000c8H
  00022	0f 83 90 00 00
	00		 jae	 $LN2@SetConnect

; 12   : 	{
; 13   : 		if( ChkUserConnectInterval(pUserConnectTime) == true )

  00028	8b 45 08	 mov	 eax, DWORD PTR _pUserConnectTime$[ebp]
  0002b	50		 push	 eax
  0002c	e8 00 00 00 00	 call	 ?ChkUserConnectInterval@@YA_NPAUUSER_CONNECT_TIME@@@Z ; ChkUserConnectInterval
  00031	83 c4 04	 add	 esp, 4
  00034	0f b6 c8	 movzx	 ecx, al
  00037	83 f9 01	 cmp	 ecx, 1
  0003a	75 10		 jne	 SHORT $LN4@SetConnect

; 14   : 		{
; 15   : 			vtUserConnectTime.push_back(*pUserConnectTime);

  0003c	8b 45 08	 mov	 eax, DWORD PTR _pUserConnectTime$[ebp]
  0003f	50		 push	 eax
  00040	b9 00 00 00 00	 mov	 ecx, OFFSET ?vtUserConnectTime@@3V?$vector@UUSER_CONNECT_TIME@@V?$allocator@UUSER_CONNECT_TIME@@@std@@@std@@A ; vtUserConnectTime
  00045	e8 00 00 00 00	 call	 ?push_back@?$vector@UUSER_CONNECT_TIME@@V?$allocator@UUSER_CONNECT_TIME@@@std@@@std@@QAEXABUUSER_CONNECT_TIME@@@Z ; std::vector<USER_CONNECT_TIME,std::allocator<USER_CONNECT_TIME> >::push_back

; 16   : 		}

  0004a	eb 6a		 jmp	 SHORT $LN5@SetConnect
$LN4@SetConnect:

; 17   : 		else
; 18   : 		{
; 19   : 			IP_BLOCK pIpBlock;
; 20   : 			memcpy(pIpBlock.szAccount, pUserConnectTime->szAccount, MAX_IDSTRING);

  0004c	6a 0a		 push	 10			; 0000000aH
  0004e	8b 45 08	 mov	 eax, DWORD PTR _pUserConnectTime$[ebp]
  00051	83 c0 08	 add	 eax, 8
  00054	50		 push	 eax
  00055	8d 4d dc	 lea	 ecx, DWORD PTR _pIpBlock$6[ebp]
  00058	51		 push	 ecx
  00059	e8 00 00 00 00	 call	 _memcpy
  0005e	83 c4 0c	 add	 esp, 12			; 0000000cH

; 21   : 			memcpy(pIpBlock.Ip_addr, pUserConnectTime->Ip_addr, 15);

  00061	6a 0f		 push	 15			; 0000000fH
  00063	8b 45 08	 mov	 eax, DWORD PTR _pUserConnectTime$[ebp]
  00066	83 c0 13	 add	 eax, 19			; 00000013H
  00069	50		 push	 eax
  0006a	8d 4d e7	 lea	 ecx, DWORD PTR _pIpBlock$6[ebp+11]
  0006d	51		 push	 ecx
  0006e	e8 00 00 00 00	 call	 _memcpy
  00073	83 c4 0c	 add	 esp, 12			; 0000000cH

; 22   : 			pIpBlock.dwBlockTime = GetTickCount();

  00076	ff 15 00 00 00
	00		 call	 DWORD PTR __imp__GetTickCount@0
  0007c	89 45 f8	 mov	 DWORD PTR _pIpBlock$6[ebp+28], eax

; 23   : 
; 24   : 			setBlockIP(&pIpBlock);

  0007f	8d 45 dc	 lea	 eax, DWORD PTR _pIpBlock$6[ebp]
  00082	50		 push	 eax
  00083	e8 00 00 00 00	 call	 ?setBlockIP@@YAXPAUIP_BLOCK@@@Z ; setBlockIP
  00088	83 c4 04	 add	 esp, 4

; 25   : 
; 26   : 			LogAddTD_TempLog(", [Login User Block], Account [%s], IP [%s]", pUserConnectTime->szAccount, pUserConnectTime->Ip_addr);

  0008b	8b 45 08	 mov	 eax, DWORD PTR _pUserConnectTime$[ebp]
  0008e	83 c0 13	 add	 eax, 19			; 00000013H
  00091	50		 push	 eax
  00092	8b 4d 08	 mov	 ecx, DWORD PTR _pUserConnectTime$[ebp]
  00095	83 c1 08	 add	 ecx, 8
  00098	51		 push	 ecx
  00099	68 00 00 00 00	 push	 OFFSET ??_C@_0CM@MFHPEIPL@?0?5?$FLLogin?5User?5Block?$FN?0?5Account?5?$FL@
  0009e	ff 15 00 00 00
	00		 call	 DWORD PTR ?LogAddTD_TempLog@@3P6AXPADZZA ; LogAddTD_TempLog
  000a4	83 c4 0c	 add	 esp, 12			; 0000000cH

; 27   : 
; 28   : 			CloseClient (pUserConnectTime->iIndex);

  000a7	8b 45 08	 mov	 eax, DWORD PTR _pUserConnectTime$[ebp]
  000aa	8b 48 04	 mov	 ecx, DWORD PTR [eax+4]
  000ad	51		 push	 ecx
  000ae	e8 00 00 00 00	 call	 ?CloseClient@@YAXH@Z	; CloseClient
  000b3	83 c4 04	 add	 esp, 4
$LN5@SetConnect:

; 29   : 		}	
; 30   : 	}

  000b6	eb 4a		 jmp	 SHORT $LN1@SetConnect
$LN2@SetConnect:

; 31   : 	else
; 32   : 	{
; 33   : 		LogAddTD_TempLog(", [connect Time] Size Max");

  000b8	68 00 00 00 00	 push	 OFFSET ??_C@_0BK@EDIDDHMK@?0?5?$FLconnect?5Time?$FN?5Size?5Max@
  000bd	ff 15 00 00 00
	00		 call	 DWORD PTR ?LogAddTD_TempLog@@3P6AXPADZZA ; LogAddTD_TempLog
  000c3	83 c4 04	 add	 esp, 4

; 34   : 		
; 35   : 		vtUserConnectTime.erase(vtUserConnectTime.begin(), vtUserConnectTime.end());

  000c6	8d 45 94	 lea	 eax, DWORD PTR $T4[ebp]
  000c9	50		 push	 eax
  000ca	b9 00 00 00 00	 mov	 ecx, OFFSET ?vtUserConnectTime@@3V?$vector@UUSER_CONNECT_TIME@@V?$allocator@UUSER_CONNECT_TIME@@@std@@@std@@A ; vtUserConnectTime
  000cf	e8 00 00 00 00	 call	 ?end@?$vector@UUSER_CONNECT_TIME@@V?$allocator@UUSER_CONNECT_TIME@@@std@@@std@@QAE?AV?$_Vector_iterator@V?$_Vector_val@U?$_Simple_types@UUSER_CONNECT_TIME@@@std@@@std@@@2@XZ ; std::vector<USER_CONNECT_TIME,std::allocator<USER_CONNECT_TIME> >::end
  000d4	8b 08		 mov	 ecx, DWORD PTR [eax]
  000d6	89 4d 98	 mov	 DWORD PTR $T5[ebp], ecx
  000d9	8d 55 8c	 lea	 edx, DWORD PTR $T2[ebp]
  000dc	52		 push	 edx
  000dd	b9 00 00 00 00	 mov	 ecx, OFFSET ?vtUserConnectTime@@3V?$vector@UUSER_CONNECT_TIME@@V?$allocator@UUSER_CONNECT_TIME@@@std@@@std@@A ; vtUserConnectTime
  000e2	e8 00 00 00 00	 call	 ?begin@?$vector@UUSER_CONNECT_TIME@@V?$allocator@UUSER_CONNECT_TIME@@@std@@@std@@QAE?AV?$_Vector_iterator@V?$_Vector_val@U?$_Simple_types@UUSER_CONNECT_TIME@@@std@@@std@@@2@XZ ; std::vector<USER_CONNECT_TIME,std::allocator<USER_CONNECT_TIME> >::begin
  000e7	8b 00		 mov	 eax, DWORD PTR [eax]
  000e9	89 45 90	 mov	 DWORD PTR $T3[ebp], eax
  000ec	8b 4d 98	 mov	 ecx, DWORD PTR $T5[ebp]
  000ef	51		 push	 ecx
  000f0	8b 55 90	 mov	 edx, DWORD PTR $T3[ebp]
  000f3	52		 push	 edx
  000f4	8d 45 88	 lea	 eax, DWORD PTR $T1[ebp]
  000f7	50		 push	 eax
  000f8	b9 00 00 00 00	 mov	 ecx, OFFSET ?vtUserConnectTime@@3V?$vector@UUSER_CONNECT_TIME@@V?$allocator@UUSER_CONNECT_TIME@@@std@@@std@@A ; vtUserConnectTime
  000fd	e8 00 00 00 00	 call	 ?erase@?$vector@UUSER_CONNECT_TIME@@V?$allocator@UUSER_CONNECT_TIME@@@std@@@std@@QAE?AV?$_Vector_iterator@V?$_Vector_val@U?$_Simple_types@UUSER_CONNECT_TIME@@@std@@@std@@@2@V?$_Vector_const_iterator@V?$_Vector_val@U?$_Simple_types@UUSER_CONNECT_TIME@@@std@@@std@@@2@0@Z ; std::vector<USER_CONNECT_TIME,std::allocator<USER_CONNECT_TIME> >::erase
$LN1@SetConnect:

; 36   : 	}
; 37   : }

  00102	5f		 pop	 edi
  00103	5e		 pop	 esi
  00104	5b		 pop	 ebx
  00105	8b 4d fc	 mov	 ecx, DWORD PTR __$ArrayPad$[ebp]
  00108	33 cd		 xor	 ecx, ebp
  0010a	e8 00 00 00 00	 call	 @__security_check_cookie@4
  0010f	8b e5		 mov	 esp, ebp
  00111	5d		 pop	 ebp
  00112	c3		 ret	 0
?SetConnectUser@@YAXPAUUSER_CONNECT_TIME@@@Z ENDP	; SetConnectUser
_TEXT	ENDS
; Function compile flags: /Odtp /ZI
; File C:\Mu Online\Mu-GS-Webzen-MC-10093\GameServer\AntiHack.cpp
;	COMDAT ?ChkUserConnectInterval@@YA_NPAUUSER_CONNECT_TIME@@@Z
_TEXT	SEGMENT
$T1 = -100						; size = 4
$T2 = -96						; size = 4
$T3 = -92						; size = 4
$T4 = -88						; size = 4
$T5 = -84						; size = 4
$T6 = -80						; size = 4
_dwTickCount$7 = -12					; size = 4
_UserConnectTime$8 = -8					; size = 4
_iter$ = -4						; size = 4
_pUserConnectTime$ = 8					; size = 4
?ChkUserConnectInterval@@YA_NPAUUSER_CONNECT_TIME@@@Z PROC ; ChkUserConnectInterval, COMDAT

; 40   : {

  00000	55		 push	 ebp
  00001	8b ec		 mov	 ebp, esp
  00003	83 ec 64	 sub	 esp, 100		; 00000064H
  00006	53		 push	 ebx
  00007	56		 push	 esi
  00008	57		 push	 edi

; 41   : 	_IterUSER_CONNECT_TIME iter;

  00009	8d 4d fc	 lea	 ecx, DWORD PTR _iter$[ebp]
  0000c	e8 00 00 00 00	 call	 ??0?$_Vector_iterator@V?$_Vector_val@U?$_Simple_types@UUSER_CONNECT_TIME@@@std@@@std@@@std@@QAE@XZ

; 42   : 
; 43   : 	for (iter = vtUserConnectTime.begin(); iter != vtUserConnectTime.end(); ++iter)

  00011	8d 45 b0	 lea	 eax, DWORD PTR $T6[ebp]
  00014	50		 push	 eax
  00015	b9 00 00 00 00	 mov	 ecx, OFFSET ?vtUserConnectTime@@3V?$vector@UUSER_CONNECT_TIME@@V?$allocator@UUSER_CONNECT_TIME@@@std@@@std@@A ; vtUserConnectTime
  0001a	e8 00 00 00 00	 call	 ?begin@?$vector@UUSER_CONNECT_TIME@@V?$allocator@UUSER_CONNECT_TIME@@@std@@@std@@QAE?AV?$_Vector_iterator@V?$_Vector_val@U?$_Simple_types@UUSER_CONNECT_TIME@@@std@@@std@@@2@XZ ; std::vector<USER_CONNECT_TIME,std::allocator<USER_CONNECT_TIME> >::begin
  0001f	8b 08		 mov	 ecx, DWORD PTR [eax]
  00021	89 4d fc	 mov	 DWORD PTR _iter$[ebp], ecx
  00024	eb 08		 jmp	 SHORT $LN4@ChkUserCon
$LN2@ChkUserCon:
  00026	8d 4d fc	 lea	 ecx, DWORD PTR _iter$[ebp]
  00029	e8 00 00 00 00	 call	 ??E?$_Vector_iterator@V?$_Vector_val@U?$_Simple_types@UUSER_CONNECT_TIME@@@std@@@std@@@std@@QAEAAV01@XZ ; std::_Vector_iterator<std::_Vector_val<std::_Simple_types<USER_CONNECT_TIME> > >::operator++
$LN4@ChkUserCon:
  0002e	8d 45 ac	 lea	 eax, DWORD PTR $T5[ebp]
  00031	50		 push	 eax
  00032	b9 00 00 00 00	 mov	 ecx, OFFSET ?vtUserConnectTime@@3V?$vector@UUSER_CONNECT_TIME@@V?$allocator@UUSER_CONNECT_TIME@@@std@@@std@@A ; vtUserConnectTime
  00037	e8 00 00 00 00	 call	 ?end@?$vector@UUSER_CONNECT_TIME@@V?$allocator@UUSER_CONNECT_TIME@@@std@@@std@@QAE?AV?$_Vector_iterator@V?$_Vector_val@U?$_Simple_types@UUSER_CONNECT_TIME@@@std@@@std@@@2@XZ ; std::vector<USER_CONNECT_TIME,std::allocator<USER_CONNECT_TIME> >::end
  0003c	50		 push	 eax
  0003d	8d 4d fc	 lea	 ecx, DWORD PTR _iter$[ebp]
  00040	e8 00 00 00 00	 call	 ??9?$_Vector_const_iterator@V?$_Vector_val@U?$_Simple_types@UUSER_CONNECT_TIME@@@std@@@std@@@std@@QBE_NABV01@@Z ; std::_Vector_const_iterator<std::_Vector_val<std::_Simple_types<USER_CONNECT_TIME> > >::operator!=
  00045	0f b6 c8	 movzx	 ecx, al
  00048	85 c9		 test	 ecx, ecx
  0004a	0f 84 85 00 00
	00		 je	 $LN3@ChkUserCon

; 44   : 	{
; 45   : 		USER_CONNECT_TIME& UserConnectTime = *iter;

  00050	8d 4d fc	 lea	 ecx, DWORD PTR _iter$[ebp]
  00053	e8 00 00 00 00	 call	 ??D?$_Vector_iterator@V?$_Vector_val@U?$_Simple_types@UUSER_CONNECT_TIME@@@std@@@std@@@std@@QBEAAUUSER_CONNECT_TIME@@XZ ; std::_Vector_iterator<std::_Vector_val<std::_Simple_types<USER_CONNECT_TIME> > >::operator*
  00058	89 45 f8	 mov	 DWORD PTR _UserConnectTime$8[ebp], eax

; 46   : 
; 47   : 		if ( strcmp(UserConnectTime.Ip_addr, pUserConnectTime->Ip_addr) == 0 )

  0005b	8b 45 08	 mov	 eax, DWORD PTR _pUserConnectTime$[ebp]
  0005e	83 c0 13	 add	 eax, 19			; 00000013H
  00061	50		 push	 eax
  00062	8b 4d f8	 mov	 ecx, DWORD PTR _UserConnectTime$8[ebp]
  00065	83 c1 13	 add	 ecx, 19			; 00000013H
  00068	51		 push	 ecx
  00069	e8 00 00 00 00	 call	 _strcmp
  0006e	83 c4 08	 add	 esp, 8
  00071	85 c0		 test	 eax, eax
  00073	75 5b		 jne	 SHORT $LN5@ChkUserCon

; 48   : 		{
; 49   : 			DWORD dwTickCount = GetTickCount();

  00075	ff 15 00 00 00
	00		 call	 DWORD PTR __imp__GetTickCount@0
  0007b	89 45 f4	 mov	 DWORD PTR _dwTickCount$7[ebp], eax

; 50   : 
; 51   : 			if( (pUserConnectTime->dwConnectTime - UserConnectTime.dwConnectTime) < (1000 * gConnectIntervalTime) )

  0007e	8b 45 08	 mov	 eax, DWORD PTR _pUserConnectTime$[ebp]
  00081	8b 4d f8	 mov	 ecx, DWORD PTR _UserConnectTime$8[ebp]
  00084	8b 10		 mov	 edx, DWORD PTR [eax]
  00086	2b 11		 sub	 edx, DWORD PTR [ecx]
  00088	69 05 00 00 00
	00 e8 03 00 00	 imul	 eax, DWORD PTR ?gConnectIntervalTime@@3HA, 1000 ; gConnectIntervalTime
  00092	3b d0		 cmp	 edx, eax
  00094	73 1e		 jae	 SHORT $LN6@ChkUserCon

; 52   : 			{
; 53   : 				vtUserConnectTime.erase(iter);

  00096	8b 45 fc	 mov	 eax, DWORD PTR _iter$[ebp]
  00099	89 45 a8	 mov	 DWORD PTR $T4[ebp], eax
  0009c	8b 4d a8	 mov	 ecx, DWORD PTR $T4[ebp]
  0009f	51		 push	 ecx
  000a0	8d 55 a4	 lea	 edx, DWORD PTR $T3[ebp]
  000a3	52		 push	 edx
  000a4	b9 00 00 00 00	 mov	 ecx, OFFSET ?vtUserConnectTime@@3V?$vector@UUSER_CONNECT_TIME@@V?$allocator@UUSER_CONNECT_TIME@@@std@@@std@@A ; vtUserConnectTime
  000a9	e8 00 00 00 00	 call	 ?erase@?$vector@UUSER_CONNECT_TIME@@V?$allocator@UUSER_CONNECT_TIME@@@std@@@std@@QAE?AV?$_Vector_iterator@V?$_Vector_val@U?$_Simple_types@UUSER_CONNECT_TIME@@@std@@@std@@@2@V?$_Vector_const_iterator@V?$_Vector_val@U?$_Simple_types@UUSER_CONNECT_TIME@@@std@@@std@@@2@@Z ; std::vector<USER_CONNECT_TIME,std::allocator<USER_CONNECT_TIME> >::erase

; 54   : 			
; 55   : 				//LogAddTD_TempLog("[connect Hack Attack - ChkUserConnectInterval] IP [%s], UserConnectCnt [%d] ", pUserConnectTime->Ip_addr, vtUserConnectTime.size());
; 56   : 
; 57   : 				return false;

  000ae	32 c0		 xor	 al, al
  000b0	eb 25		 jmp	 SHORT $LN1@ChkUserCon

; 58   : 			}

  000b2	eb 1c		 jmp	 SHORT $LN5@ChkUserCon
$LN6@ChkUserCon:

; 59   : 			else
; 60   : 			{
; 61   : 				vtUserConnectTime.erase(iter);

  000b4	8b 45 fc	 mov	 eax, DWORD PTR _iter$[ebp]
  000b7	89 45 a0	 mov	 DWORD PTR $T2[ebp], eax
  000ba	8b 4d a0	 mov	 ecx, DWORD PTR $T2[ebp]
  000bd	51		 push	 ecx
  000be	8d 55 9c	 lea	 edx, DWORD PTR $T1[ebp]
  000c1	52		 push	 edx
  000c2	b9 00 00 00 00	 mov	 ecx, OFFSET ?vtUserConnectTime@@3V?$vector@UUSER_CONNECT_TIME@@V?$allocator@UUSER_CONNECT_TIME@@@std@@@std@@A ; vtUserConnectTime
  000c7	e8 00 00 00 00	 call	 ?erase@?$vector@UUSER_CONNECT_TIME@@V?$allocator@UUSER_CONNECT_TIME@@@std@@@std@@QAE?AV?$_Vector_iterator@V?$_Vector_val@U?$_Simple_types@UUSER_CONNECT_TIME@@@std@@@std@@@2@V?$_Vector_const_iterator@V?$_Vector_val@U?$_Simple_types@UUSER_CONNECT_TIME@@@std@@@std@@@2@@Z ; std::vector<USER_CONNECT_TIME,std::allocator<USER_CONNECT_TIME> >::erase

; 62   : 
; 63   : 				//LogAddTD_TempLog("[connect Hack Attack - Ok] IP [%s], UserConnectCnt [%d] ", pUserConnectTime->Ip_addr, vtUserConnectTime.size());
; 64   : 
; 65   : 				return true;

  000cc	b0 01		 mov	 al, 1
  000ce	eb 07		 jmp	 SHORT $LN1@ChkUserCon
$LN5@ChkUserCon:

; 66   : 			}
; 67   : 		}
; 68   : 	}

  000d0	e9 51 ff ff ff	 jmp	 $LN2@ChkUserCon
$LN3@ChkUserCon:

; 69   : 	
; 70   : 	return true;

  000d5	b0 01		 mov	 al, 1
$LN1@ChkUserCon:

; 71   : }

  000d7	5f		 pop	 edi
  000d8	5e		 pop	 esi
  000d9	5b		 pop	 ebx
  000da	8b e5		 mov	 esp, ebp
  000dc	5d		 pop	 ebp
  000dd	c3		 ret	 0
?ChkUserConnectInterval@@YA_NPAUUSER_CONNECT_TIME@@@Z ENDP ; ChkUserConnectInterval
_TEXT	ENDS
; Function compile flags: /Odtp /ZI
; File C:\Program Files (x86)\Microsoft Visual Studio\2019\Community\VC\Tools\MSVC\14.27.29110\include\xmemory
;	COMDAT ?_Get_first@?$_Compressed_pair@V?$allocator@UUSER_CONNECT_TIME@@@std@@V?$_Vector_val@U?$_Simple_types@UUSER_CONNECT_TIME@@@std@@@2@$00@std@@QBEABV?$allocator@UUSER_CONNECT_TIME@@@2@XZ
_TEXT	SEGMENT
_this$ = -4						; size = 4
?_Get_first@?$_Compressed_pair@V?$allocator@UUSER_CONNECT_TIME@@@std@@V?$_Vector_val@U?$_Simple_types@UUSER_CONNECT_TIME@@@std@@@2@$00@std@@QBEABV?$allocator@UUSER_CONNECT_TIME@@@2@XZ PROC ; std::_Compressed_pair<std::allocator<USER_CONNECT_TIME>,std::_Vector_val<std::_Simple_types<USER_CONNECT_TIME> >,1>::_Get_first, COMDAT
; _this$ = ecx

; 1347 :     constexpr const _Ty1& _Get_first() const noexcept {

  00000	55		 push	 ebp
  00001	8b ec		 mov	 ebp, esp
  00003	83 ec 44	 sub	 esp, 68			; 00000044H
  00006	53		 push	 ebx
  00007	56		 push	 esi
  00008	57		 push	 edi
  00009	89 4d fc	 mov	 DWORD PTR _this$[ebp], ecx

; 1348 :         return *this;

  0000c	8b 45 fc	 mov	 eax, DWORD PTR _this$[ebp]

; 1349 :     }

  0000f	5f		 pop	 edi
  00010	5e		 pop	 esi
  00011	5b		 pop	 ebx
  00012	8b e5		 mov	 esp, ebp
  00014	5d		 pop	 ebp
  00015	c3		 ret	 0
?_Get_first@?$_Compressed_pair@V?$allocator@UUSER_CONNECT_TIME@@@std@@V?$_Vector_val@U?$_Simple_types@UUSER_CONNECT_TIME@@@std@@@2@$00@std@@QBEABV?$allocator@UUSER_CONNECT_TIME@@@2@XZ ENDP ; std::_Compressed_pair<std::allocator<USER_CONNECT_TIME>,std::_Vector_val<std::_Simple_types<USER_CONNECT_TIME> >,1>::_Get_first
_TEXT	ENDS
; Function compile flags: /Odtp /ZI
; File C:\Program Files (x86)\Microsoft Visual Studio\2019\Community\VC\Tools\MSVC\14.27.29110\include\xmemory
;	COMDAT ?_Get_first@?$_Compressed_pair@V?$allocator@UUSER_CONNECT_TIME@@@std@@V?$_Vector_val@U?$_Simple_types@UUSER_CONNECT_TIME@@@std@@@2@$00@std@@QAEAAV?$allocator@UUSER_CONNECT_TIME@@@2@XZ
_TEXT	SEGMENT
_this$ = -4						; size = 4
?_Get_first@?$_Compressed_pair@V?$allocator@UUSER_CONNECT_TIME@@@std@@V?$_Vector_val@U?$_Simple_types@UUSER_CONNECT_TIME@@@std@@@2@$00@std@@QAEAAV?$allocator@UUSER_CONNECT_TIME@@@2@XZ PROC ; std::_Compressed_pair<std::allocator<USER_CONNECT_TIME>,std::_Vector_val<std::_Simple_types<USER_CONNECT_TIME> >,1>::_Get_first, COMDAT
; _this$ = ecx

; 1343 :     constexpr _Ty1& _Get_first() noexcept {

  00000	55		 push	 ebp
  00001	8b ec		 mov	 ebp, esp
  00003	83 ec 44	 sub	 esp, 68			; 00000044H
  00006	53		 push	 ebx
  00007	56		 push	 esi
  00008	57		 push	 edi
  00009	89 4d fc	 mov	 DWORD PTR _this$[ebp], ecx

; 1344 :         return *this;

  0000c	8b 45 fc	 mov	 eax, DWORD PTR _this$[ebp]

; 1345 :     }

  0000f	5f		 pop	 edi
  00010	5e		 pop	 esi
  00011	5b		 pop	 ebx
  00012	8b e5		 mov	 esp, ebp
  00014	5d		 pop	 ebp
  00015	c3		 ret	 0
?_Get_first@?$_Compressed_pair@V?$allocator@UUSER_CONNECT_TIME@@@std@@V?$_Vector_val@U?$_Simple_types@UUSER_CONNECT_TIME@@@std@@@2@$00@std@@QAEAAV?$allocator@UUSER_CONNECT_TIME@@@2@XZ ENDP ; std::_Compressed_pair<std::allocator<USER_CONNECT_TIME>,std::_Vector_val<std::_Simple_types<USER_CONNECT_TIME> >,1>::_Get_first
_TEXT	ENDS
; Function compile flags: /Odtp /ZI
; File C:\Program Files (x86)\Microsoft Visual Studio\2019\Community\VC\Tools\MSVC\14.27.29110\include\vector
;	COMDAT ??0?$_Vector_val@U?$_Simple_types@UUSER_CONNECT_TIME@@@std@@@std@@QAE@XZ
_TEXT	SEGMENT
_this$ = -4						; size = 4
??0?$_Vector_val@U?$_Simple_types@UUSER_CONNECT_TIME@@@std@@@std@@QAE@XZ PROC ; std::_Vector_val<std::_Simple_types<USER_CONNECT_TIME> >::_Vector_val<std::_Simple_types<USER_CONNECT_TIME> >, COMDAT
; _this$ = ecx

; 375  :     _Vector_val() noexcept : _Myfirst(), _Mylast(), _Myend() {}

  00000	55		 push	 ebp
  00001	8b ec		 mov	 ebp, esp
  00003	83 ec 44	 sub	 esp, 68			; 00000044H
  00006	53		 push	 ebx
  00007	56		 push	 esi
  00008	57		 push	 edi
  00009	89 4d fc	 mov	 DWORD PTR _this$[ebp], ecx
  0000c	8b 45 fc	 mov	 eax, DWORD PTR _this$[ebp]
  0000f	c7 00 00 00 00
	00		 mov	 DWORD PTR [eax], 0
  00015	8b 45 fc	 mov	 eax, DWORD PTR _this$[ebp]
  00018	c7 40 04 00 00
	00 00		 mov	 DWORD PTR [eax+4], 0
  0001f	8b 45 fc	 mov	 eax, DWORD PTR _this$[ebp]
  00022	c7 40 08 00 00
	00 00		 mov	 DWORD PTR [eax+8], 0
  00029	8b 45 fc	 mov	 eax, DWORD PTR _this$[ebp]
  0002c	5f		 pop	 edi
  0002d	5e		 pop	 esi
  0002e	5b		 pop	 ebx
  0002f	8b e5		 mov	 esp, ebp
  00031	5d		 pop	 ebp
  00032	c3		 ret	 0
??0?$_Vector_val@U?$_Simple_types@UUSER_CONNECT_TIME@@@std@@@std@@QAE@XZ ENDP ; std::_Vector_val<std::_Simple_types<USER_CONNECT_TIME> >::_Vector_val<std::_Simple_types<USER_CONNECT_TIME> >
_TEXT	ENDS
; Function compile flags: /Odtp /ZI
; File C:\Program Files (x86)\Microsoft Visual Studio\2019\Community\VC\Tools\MSVC\14.27.29110\include\vector
;	COMDAT ?_Getal@?$vector@UUSER_CONNECT_TIME@@V?$allocator@UUSER_CONNECT_TIME@@@std@@@std@@ABEABV?$allocator@UUSER_CONNECT_TIME@@@2@XZ
_TEXT	SEGMENT
_this$ = -4						; size = 4
?_Getal@?$vector@UUSER_CONNECT_TIME@@V?$allocator@UUSER_CONNECT_TIME@@@std@@@std@@ABEABV?$allocator@UUSER_CONNECT_TIME@@@2@XZ PROC ; std::vector<USER_CONNECT_TIME,std::allocator<USER_CONNECT_TIME> >::_Getal, COMDAT
; _this$ = ecx

; 1735 :     const _Alty& _Getal() const noexcept {

  00000	55		 push	 ebp
  00001	8b ec		 mov	 ebp, esp
  00003	83 ec 44	 sub	 esp, 68			; 00000044H
  00006	53		 push	 ebx
  00007	56		 push	 esi
  00008	57		 push	 edi
  00009	89 4d fc	 mov	 DWORD PTR _this$[ebp], ecx

; 1736 :         return _Mypair._Get_first();

  0000c	8b 4d fc	 mov	 ecx, DWORD PTR _this$[ebp]
  0000f	e8 00 00 00 00	 call	 ?_Get_first@?$_Compressed_pair@V?$allocator@UUSER_CONNECT_TIME@@@std@@V?$_Vector_val@U?$_Simple_types@UUSER_CONNECT_TIME@@@std@@@2@$00@std@@QBEABV?$allocator@UUSER_CONNECT_TIME@@@2@XZ ; std::_Compressed_pair<std::allocator<USER_CONNECT_TIME>,std::_Vector_val<std::_Simple_types<USER_CONNECT_TIME> >,1>::_Get_first

; 1737 :     }

  00014	5f		 pop	 edi
  00015	5e		 pop	 esi
  00016	5b		 pop	 ebx
  00017	8b e5		 mov	 esp, ebp
  00019	5d		 pop	 ebp
  0001a	c3		 ret	 0
?_Getal@?$vector@UUSER_CONNECT_TIME@@V?$allocator@UUSER_CONNECT_TIME@@@std@@@std@@ABEABV?$allocator@UUSER_CONNECT_TIME@@@2@XZ ENDP ; std::vector<USER_CONNECT_TIME,std::allocator<USER_CONNECT_TIME> >::_Getal
_TEXT	ENDS
; Function compile flags: /Odtp /ZI
; File C:\Program Files (x86)\Microsoft Visual Studio\2019\Community\VC\Tools\MSVC\14.27.29110\include\vector
;	COMDAT ?_Getal@?$vector@UUSER_CONNECT_TIME@@V?$allocator@UUSER_CONNECT_TIME@@@std@@@std@@AAEAAV?$allocator@UUSER_CONNECT_TIME@@@2@XZ
_TEXT	SEGMENT
_this$ = -4						; size = 4
?_Getal@?$vector@UUSER_CONNECT_TIME@@V?$allocator@UUSER_CONNECT_TIME@@@std@@@std@@AAEAAV?$allocator@UUSER_CONNECT_TIME@@@2@XZ PROC ; std::vector<USER_CONNECT_TIME,std::allocator<USER_CONNECT_TIME> >::_Getal, COMDAT
; _this$ = ecx

; 1731 :     _Alty& _Getal() noexcept {

  00000	55		 push	 ebp
  00001	8b ec		 mov	 ebp, esp
  00003	83 ec 44	 sub	 esp, 68			; 00000044H
  00006	53		 push	 ebx
  00007	56		 push	 esi
  00008	57		 push	 edi
  00009	89 4d fc	 mov	 DWORD PTR _this$[ebp], ecx

; 1732 :         return _Mypair._Get_first();

  0000c	8b 4d fc	 mov	 ecx, DWORD PTR _this$[ebp]
  0000f	e8 00 00 00 00	 call	 ?_Get_first@?$_Compressed_pair@V?$allocator@UUSER_CONNECT_TIME@@@std@@V?$_Vector_val@U?$_Simple_types@UUSER_CONNECT_TIME@@@std@@@2@$00@std@@QAEAAV?$allocator@UUSER_CONNECT_TIME@@@2@XZ ; std::_Compressed_pair<std::allocator<USER_CONNECT_TIME>,std::_Vector_val<std::_Simple_types<USER_CONNECT_TIME> >,1>::_Get_first

; 1733 :     }

  00014	5f		 pop	 edi
  00015	5e		 pop	 esi
  00016	5b		 pop	 ebx
  00017	8b e5		 mov	 esp, ebp
  00019	5d		 pop	 ebp
  0001a	c3		 ret	 0
?_Getal@?$vector@UUSER_CONNECT_TIME@@V?$allocator@UUSER_CONNECT_TIME@@@std@@@std@@AAEAAV?$allocator@UUSER_CONNECT_TIME@@@2@XZ ENDP ; std::vector<USER_CONNECT_TIME,std::allocator<USER_CONNECT_TIME> >::_Getal
_TEXT	ENDS
; Function compile flags: /Odtp /ZI
; File C:\Program Files (x86)\Microsoft Visual Studio\2019\Community\VC\Tools\MSVC\14.27.29110\include\vector
;	COMDAT ?_Orphan_range@?$vector@UUSER_CONNECT_TIME@@V?$allocator@UUSER_CONNECT_TIME@@@std@@@std@@ABEXPAUUSER_CONNECT_TIME@@0@Z
_TEXT	SEGMENT
_this$ = -4						; size = 4
__First$ = 8						; size = 4
__Last$ = 12						; size = 4
?_Orphan_range@?$vector@UUSER_CONNECT_TIME@@V?$allocator@UUSER_CONNECT_TIME@@@std@@@std@@ABEXPAUUSER_CONNECT_TIME@@0@Z PROC ; std::vector<USER_CONNECT_TIME,std::allocator<USER_CONNECT_TIME> >::_Orphan_range, COMDAT
; _this$ = ecx

; 1711 :     void _Orphan_range(pointer _First, pointer _Last) const { // orphan iterators within specified (inclusive) range

  00000	55		 push	 ebp
  00001	8b ec		 mov	 ebp, esp
  00003	83 ec 44	 sub	 esp, 68			; 00000044H
  00006	53		 push	 ebx
  00007	56		 push	 esi
  00008	57		 push	 edi
  00009	89 4d fc	 mov	 DWORD PTR _this$[ebp], ecx

; 1712 : #if _ITERATOR_DEBUG_LEVEL == 2
; 1713 :         _Lockit _Lock(_LOCK_DEBUG);
; 1714 : 
; 1715 :         _Iterator_base12** _Pnext = &_Mypair._Myval2._Myproxy->_Myfirstiter;
; 1716 :         while (*_Pnext) {
; 1717 :             const auto _Pnextptr = static_cast<const_iterator&>(**_Pnext)._Ptr;
; 1718 :             if (_Pnextptr < _First || _Last < _Pnextptr) { // skip the iterator
; 1719 :                 _Pnext = &(*_Pnext)->_Mynextiter;
; 1720 :             } else { // orphan the iterator
; 1721 :                 (*_Pnext)->_Myproxy = nullptr;
; 1722 :                 *_Pnext             = (*_Pnext)->_Mynextiter;
; 1723 :             }
; 1724 :         }
; 1725 : #else // ^^^ _ITERATOR_DEBUG_LEVEL == 2 ^^^ // vvv _ITERATOR_DEBUG_LEVEL != 2 vvv
; 1726 :         (void) _First;
; 1727 :         (void) _Last;
; 1728 : #endif // _ITERATOR_DEBUG_LEVEL == 2
; 1729 :     }

  0000c	5f		 pop	 edi
  0000d	5e		 pop	 esi
  0000e	5b		 pop	 ebx
  0000f	8b e5		 mov	 esp, ebp
  00011	5d		 pop	 ebp
  00012	c2 08 00	 ret	 8
?_Orphan_range@?$vector@UUSER_CONNECT_TIME@@V?$allocator@UUSER_CONNECT_TIME@@@std@@@std@@ABEXPAUUSER_CONNECT_TIME@@0@Z ENDP ; std::vector<USER_CONNECT_TIME,std::allocator<USER_CONNECT_TIME> >::_Orphan_range
_TEXT	ENDS
; Function compile flags: /Odtp /ZI
; File C:\Program Files (x86)\Microsoft Visual Studio\2019\Community\VC\Tools\MSVC\14.27.29110\include\vector
;	COMDAT ?_Xlength@?$vector@UUSER_CONNECT_TIME@@V?$allocator@UUSER_CONNECT_TIME@@@std@@@std@@CAXXZ
_TEXT	SEGMENT
?_Xlength@?$vector@UUSER_CONNECT_TIME@@V?$allocator@UUSER_CONNECT_TIME@@@std@@@std@@CAXXZ PROC ; std::vector<USER_CONNECT_TIME,std::allocator<USER_CONNECT_TIME> >::_Xlength, COMDAT

; 1703 :     [[noreturn]] static void _Xlength() {

  00000	55		 push	 ebp
  00001	8b ec		 mov	 ebp, esp
  00003	83 ec 40	 sub	 esp, 64			; 00000040H
  00006	53		 push	 ebx
  00007	56		 push	 esi
  00008	57		 push	 edi

; 1704 :         _Xlength_error("vector too long");

  00009	68 00 00 00 00	 push	 OFFSET ??_C@_0BA@FOIKENOD@vector?5too?5long@
  0000e	e8 00 00 00 00	 call	 ?_Xlength_error@std@@YAXPBD@Z ; std::_Xlength_error
$LN2@Xlength:

; 1705 :     }

  00013	5f		 pop	 edi
  00014	5e		 pop	 esi
  00015	5b		 pop	 ebx
  00016	8b e5		 mov	 esp, ebp
  00018	5d		 pop	 ebp
  00019	c3		 ret	 0
?_Xlength@?$vector@UUSER_CONNECT_TIME@@V?$allocator@UUSER_CONNECT_TIME@@@std@@@std@@CAXXZ ENDP ; std::vector<USER_CONNECT_TIME,std::allocator<USER_CONNECT_TIME> >::_Xlength
_TEXT	ENDS
; Function compile flags: /Odtp /ZI
; File C:\Program Files (x86)\Microsoft Visual Studio\2019\Community\VC\Tools\MSVC\14.27.29110\include\vector
;	COMDAT ?_Tidy@?$vector@UUSER_CONNECT_TIME@@V?$allocator@UUSER_CONNECT_TIME@@@std@@@std@@AAEXXZ
_TEXT	SEGMENT
__Myend$ = -32						; size = 4
__Mylast$ = -28						; size = 4
__Myfirst$ = -24					; size = 4
__My_data$ = -20					; size = 4
_this$ = -16						; size = 4
__$EHRec$ = -12						; size = 12
?_Tidy@?$vector@UUSER_CONNECT_TIME@@V?$allocator@UUSER_CONNECT_TIME@@@std@@@std@@AAEXXZ PROC ; std::vector<USER_CONNECT_TIME,std::allocator<USER_CONNECT_TIME> >::_Tidy, COMDAT
; _this$ = ecx

; 1685 :     void _Tidy() noexcept { // free all storage

  00000	55		 push	 ebp
  00001	8b ec		 mov	 ebp, esp
  00003	6a ff		 push	 -1
  00005	68 00 00 00 00	 push	 __ehhandler$?_Tidy@?$vector@UUSER_CONNECT_TIME@@V?$allocator@UUSER_CONNECT_TIME@@@std@@@std@@AAEXXZ
  0000a	64 a1 00 00 00
	00		 mov	 eax, DWORD PTR fs:0
  00010	50		 push	 eax
  00011	83 ec 54	 sub	 esp, 84			; 00000054H
  00014	53		 push	 ebx
  00015	56		 push	 esi
  00016	57		 push	 edi
  00017	a1 00 00 00 00	 mov	 eax, DWORD PTR ___security_cookie
  0001c	33 c5		 xor	 eax, ebp
  0001e	50		 push	 eax
  0001f	8d 45 f4	 lea	 eax, DWORD PTR __$EHRec$[ebp]
  00022	64 a3 00 00 00
	00		 mov	 DWORD PTR fs:0, eax
  00028	89 4d f0	 mov	 DWORD PTR _this$[ebp], ecx

; 1686 :         auto& _My_data    = _Mypair._Myval2;

  0002b	8b 45 f0	 mov	 eax, DWORD PTR _this$[ebp]
  0002e	89 45 ec	 mov	 DWORD PTR __My_data$[ebp], eax

; 1687 :         pointer& _Myfirst = _My_data._Myfirst;

  00031	8b 45 ec	 mov	 eax, DWORD PTR __My_data$[ebp]
  00034	89 45 e8	 mov	 DWORD PTR __Myfirst$[ebp], eax

; 1688 :         pointer& _Mylast  = _My_data._Mylast;

  00037	8b 45 ec	 mov	 eax, DWORD PTR __My_data$[ebp]
  0003a	83 c0 04	 add	 eax, 4
  0003d	89 45 e4	 mov	 DWORD PTR __Mylast$[ebp], eax

; 1689 :         pointer& _Myend   = _My_data._Myend;

  00040	8b 45 ec	 mov	 eax, DWORD PTR __My_data$[ebp]
  00043	83 c0 08	 add	 eax, 8
  00046	89 45 e0	 mov	 DWORD PTR __Myend$[ebp], eax

; 1690 : 
; 1691 :         _My_data._Orphan_all();

  00049	8b 4d ec	 mov	 ecx, DWORD PTR __My_data$[ebp]
  0004c	e8 00 00 00 00	 call	 ?_Orphan_all@_Container_base0@std@@QAEXXZ ; std::_Container_base0::_Orphan_all

; 1692 : 
; 1693 :         if (_Myfirst) { // destroy and deallocate old array

  00051	8b 45 e8	 mov	 eax, DWORD PTR __Myfirst$[ebp]
  00054	83 38 00	 cmp	 DWORD PTR [eax], 0
  00057	74 57		 je	 SHORT $LN3@Tidy

; 1694 :             _Destroy(_Myfirst, _Mylast);

  00059	8b 45 e4	 mov	 eax, DWORD PTR __Mylast$[ebp]
  0005c	8b 08		 mov	 ecx, DWORD PTR [eax]
  0005e	51		 push	 ecx
  0005f	8b 55 e8	 mov	 edx, DWORD PTR __Myfirst$[ebp]
  00062	8b 02		 mov	 eax, DWORD PTR [edx]
  00064	50		 push	 eax
  00065	8b 4d f0	 mov	 ecx, DWORD PTR _this$[ebp]
  00068	e8 00 00 00 00	 call	 ?_Destroy@?$vector@UUSER_CONNECT_TIME@@V?$allocator@UUSER_CONNECT_TIME@@@std@@@std@@AAEXPAUUSER_CONNECT_TIME@@0@Z ; std::vector<USER_CONNECT_TIME,std::allocator<USER_CONNECT_TIME> >::_Destroy

; 1695 :             _Getal().deallocate(_Myfirst, static_cast<size_type>(_Myend - _Myfirst));

  0006d	8b 45 e0	 mov	 eax, DWORD PTR __Myend$[ebp]
  00070	8b 4d e8	 mov	 ecx, DWORD PTR __Myfirst$[ebp]
  00073	8b 00		 mov	 eax, DWORD PTR [eax]
  00075	2b 01		 sub	 eax, DWORD PTR [ecx]
  00077	99		 cdq
  00078	b9 24 00 00 00	 mov	 ecx, 36			; 00000024H
  0007d	f7 f9		 idiv	 ecx
  0007f	50		 push	 eax
  00080	8b 55 e8	 mov	 edx, DWORD PTR __Myfirst$[ebp]
  00083	8b 02		 mov	 eax, DWORD PTR [edx]
  00085	50		 push	 eax
  00086	8b 4d f0	 mov	 ecx, DWORD PTR _this$[ebp]
  00089	e8 00 00 00 00	 call	 ?_Getal@?$vector@UUSER_CONNECT_TIME@@V?$allocator@UUSER_CONNECT_TIME@@@std@@@std@@AAEAAV?$allocator@UUSER_CONNECT_TIME@@@2@XZ ; std::vector<USER_CONNECT_TIME,std::allocator<USER_CONNECT_TIME> >::_Getal
  0008e	8b c8		 mov	 ecx, eax
  00090	e8 00 00 00 00	 call	 ?deallocate@?$allocator@UUSER_CONNECT_TIME@@@std@@QAEXQAUUSER_CONNECT_TIME@@I@Z ; std::allocator<USER_CONNECT_TIME>::deallocate

; 1696 : 
; 1697 :             _Myfirst = pointer();

  00095	8b 45 e8	 mov	 eax, DWORD PTR __Myfirst$[ebp]
  00098	c7 00 00 00 00
	00		 mov	 DWORD PTR [eax], 0

; 1698 :             _Mylast  = pointer();

  0009e	8b 45 e4	 mov	 eax, DWORD PTR __Mylast$[ebp]
  000a1	c7 00 00 00 00
	00		 mov	 DWORD PTR [eax], 0

; 1699 :             _Myend   = pointer();

  000a7	8b 45 e0	 mov	 eax, DWORD PTR __Myend$[ebp]
  000aa	c7 00 00 00 00
	00		 mov	 DWORD PTR [eax], 0
$LN3@Tidy:

; 1700 :         }
; 1701 :     }

  000b0	8b 4d f4	 mov	 ecx, DWORD PTR __$EHRec$[ebp]
  000b3	64 89 0d 00 00
	00 00		 mov	 DWORD PTR fs:0, ecx
  000ba	59		 pop	 ecx
  000bb	5f		 pop	 edi
  000bc	5e		 pop	 esi
  000bd	5b		 pop	 ebx
  000be	8b e5		 mov	 esp, ebp
  000c0	5d		 pop	 ebp
  000c1	c3		 ret	 0
  000c2	cc		 int	 3
  000c3	cc		 int	 3
  000c4	cc		 int	 3
  000c5	cc		 int	 3
  000c6	cc		 int	 3
_TEXT	ENDS
;	COMDAT text$x
text$x	SEGMENT
__ehhandler$?_Tidy@?$vector@UUSER_CONNECT_TIME@@V?$allocator@UUSER_CONNECT_TIME@@@std@@@std@@AAEXXZ:
  00000	90		 npad	 1
  00001	90		 npad	 1
  00002	8b 54 24 08	 mov	 edx, DWORD PTR [esp+8]
  00006	8d 42 0c	 lea	 eax, DWORD PTR [edx+12]
  00009	8b 4a 9c	 mov	 ecx, DWORD PTR [edx-100]
  0000c	33 c8		 xor	 ecx, eax
  0000e	e8 00 00 00 00	 call	 @__security_check_cookie@4
  00013	b8 00 00 00 00	 mov	 eax, OFFSET __ehfuncinfo$?_Tidy@?$vector@UUSER_CONNECT_TIME@@V?$allocator@UUSER_CONNECT_TIME@@@std@@@std@@AAEXXZ
  00018	e9 00 00 00 00	 jmp	 ___CxxFrameHandler3
text$x	ENDS
?_Tidy@?$vector@UUSER_CONNECT_TIME@@V?$allocator@UUSER_CONNECT_TIME@@@std@@@std@@AAEXXZ ENDP ; std::vector<USER_CONNECT_TIME,std::allocator<USER_CONNECT_TIME> >::_Tidy
; Function compile flags: /Odtp /ZI
; File C:\Program Files (x86)\Microsoft Visual Studio\2019\Community\VC\Tools\MSVC\14.27.29110\include\vector
;	COMDAT ?_Change_array@?$vector@UUSER_CONNECT_TIME@@V?$allocator@UUSER_CONNECT_TIME@@@std@@@std@@AAEXQAUUSER_CONNECT_TIME@@II@Z
_TEXT	SEGMENT
__Myend$ = -20						; size = 4
__Mylast$ = -16						; size = 4
__Myfirst$ = -12					; size = 4
__My_data$ = -8						; size = 4
_this$ = -4						; size = 4
__Newvec$ = 8						; size = 4
__Newsize$ = 12						; size = 4
__Newcapacity$ = 16					; size = 4
?_Change_array@?$vector@UUSER_CONNECT_TIME@@V?$allocator@UUSER_CONNECT_TIME@@@std@@@std@@AAEXQAUUSER_CONNECT_TIME@@II@Z PROC ; std::vector<USER_CONNECT_TIME,std::allocator<USER_CONNECT_TIME> >::_Change_array, COMDAT
; _this$ = ecx

; 1666 :     void _Change_array(const pointer _Newvec, const size_type _Newsize, const size_type _Newcapacity) {

  00000	55		 push	 ebp
  00001	8b ec		 mov	 ebp, esp
  00003	83 ec 54	 sub	 esp, 84			; 00000054H
  00006	53		 push	 ebx
  00007	56		 push	 esi
  00008	57		 push	 edi
  00009	89 4d fc	 mov	 DWORD PTR _this$[ebp], ecx

; 1667 :         // orphan all iterators, discard old array, acquire new array
; 1668 :         auto& _My_data    = _Mypair._Myval2;

  0000c	8b 45 fc	 mov	 eax, DWORD PTR _this$[ebp]
  0000f	89 45 f8	 mov	 DWORD PTR __My_data$[ebp], eax

; 1669 :         pointer& _Myfirst = _My_data._Myfirst;

  00012	8b 45 f8	 mov	 eax, DWORD PTR __My_data$[ebp]
  00015	89 45 f4	 mov	 DWORD PTR __Myfirst$[ebp], eax

; 1670 :         pointer& _Mylast  = _My_data._Mylast;

  00018	8b 45 f8	 mov	 eax, DWORD PTR __My_data$[ebp]
  0001b	83 c0 04	 add	 eax, 4
  0001e	89 45 f0	 mov	 DWORD PTR __Mylast$[ebp], eax

; 1671 :         pointer& _Myend   = _My_data._Myend;

  00021	8b 45 f8	 mov	 eax, DWORD PTR __My_data$[ebp]
  00024	83 c0 08	 add	 eax, 8
  00027	89 45 ec	 mov	 DWORD PTR __Myend$[ebp], eax

; 1672 : 
; 1673 :         _My_data._Orphan_all();

  0002a	8b 4d f8	 mov	 ecx, DWORD PTR __My_data$[ebp]
  0002d	e8 00 00 00 00	 call	 ?_Orphan_all@_Container_base0@std@@QAEXXZ ; std::_Container_base0::_Orphan_all

; 1674 : 
; 1675 :         if (_Myfirst) { // destroy and deallocate old array

  00032	8b 45 f4	 mov	 eax, DWORD PTR __Myfirst$[ebp]
  00035	83 38 00	 cmp	 DWORD PTR [eax], 0
  00038	74 3c		 je	 SHORT $LN2@Change_arr

; 1676 :             _Destroy(_Myfirst, _Mylast);

  0003a	8b 45 f0	 mov	 eax, DWORD PTR __Mylast$[ebp]
  0003d	8b 08		 mov	 ecx, DWORD PTR [eax]
  0003f	51		 push	 ecx
  00040	8b 55 f4	 mov	 edx, DWORD PTR __Myfirst$[ebp]
  00043	8b 02		 mov	 eax, DWORD PTR [edx]
  00045	50		 push	 eax
  00046	8b 4d fc	 mov	 ecx, DWORD PTR _this$[ebp]
  00049	e8 00 00 00 00	 call	 ?_Destroy@?$vector@UUSER_CONNECT_TIME@@V?$allocator@UUSER_CONNECT_TIME@@@std@@@std@@AAEXPAUUSER_CONNECT_TIME@@0@Z ; std::vector<USER_CONNECT_TIME,std::allocator<USER_CONNECT_TIME> >::_Destroy

; 1677 :             _Getal().deallocate(_Myfirst, static_cast<size_type>(_Myend - _Myfirst));

  0004e	8b 45 ec	 mov	 eax, DWORD PTR __Myend$[ebp]
  00051	8b 4d f4	 mov	 ecx, DWORD PTR __Myfirst$[ebp]
  00054	8b 00		 mov	 eax, DWORD PTR [eax]
  00056	2b 01		 sub	 eax, DWORD PTR [ecx]
  00058	99		 cdq
  00059	b9 24 00 00 00	 mov	 ecx, 36			; 00000024H
  0005e	f7 f9		 idiv	 ecx
  00060	50		 push	 eax
  00061	8b 55 f4	 mov	 edx, DWORD PTR __Myfirst$[ebp]
  00064	8b 02		 mov	 eax, DWORD PTR [edx]
  00066	50		 push	 eax
  00067	8b 4d fc	 mov	 ecx, DWORD PTR _this$[ebp]
  0006a	e8 00 00 00 00	 call	 ?_Getal@?$vector@UUSER_CONNECT_TIME@@V?$allocator@UUSER_CONNECT_TIME@@@std@@@std@@AAEAAV?$allocator@UUSER_CONNECT_TIME@@@2@XZ ; std::vector<USER_CONNECT_TIME,std::allocator<USER_CONNECT_TIME> >::_Getal
  0006f	8b c8		 mov	 ecx, eax
  00071	e8 00 00 00 00	 call	 ?deallocate@?$allocator@UUSER_CONNECT_TIME@@@std@@QAEXQAUUSER_CONNECT_TIME@@I@Z ; std::allocator<USER_CONNECT_TIME>::deallocate
$LN2@Change_arr:

; 1678 :         }
; 1679 : 
; 1680 :         _Myfirst = _Newvec;

  00076	8b 45 f4	 mov	 eax, DWORD PTR __Myfirst$[ebp]
  00079	8b 4d 08	 mov	 ecx, DWORD PTR __Newvec$[ebp]
  0007c	89 08		 mov	 DWORD PTR [eax], ecx

; 1681 :         _Mylast  = _Newvec + _Newsize;

  0007e	6b 45 0c 24	 imul	 eax, DWORD PTR __Newsize$[ebp], 36
  00082	03 45 08	 add	 eax, DWORD PTR __Newvec$[ebp]
  00085	8b 4d f0	 mov	 ecx, DWORD PTR __Mylast$[ebp]
  00088	89 01		 mov	 DWORD PTR [ecx], eax

; 1682 :         _Myend   = _Newvec + _Newcapacity;

  0008a	6b 45 10 24	 imul	 eax, DWORD PTR __Newcapacity$[ebp], 36
  0008e	03 45 08	 add	 eax, DWORD PTR __Newvec$[ebp]
  00091	8b 4d ec	 mov	 ecx, DWORD PTR __Myend$[ebp]
  00094	89 01		 mov	 DWORD PTR [ecx], eax

; 1683 :     }

  00096	5f		 pop	 edi
  00097	5e		 pop	 esi
  00098	5b		 pop	 ebx
  00099	8b e5		 mov	 esp, ebp
  0009b	5d		 pop	 ebp
  0009c	c2 0c 00	 ret	 12			; 0000000cH
?_Change_array@?$vector@UUSER_CONNECT_TIME@@V?$allocator@UUSER_CONNECT_TIME@@@std@@@std@@AAEXQAUUSER_CONNECT_TIME@@II@Z ENDP ; std::vector<USER_CONNECT_TIME,std::allocator<USER_CONNECT_TIME> >::_Change_array
_TEXT	ENDS
; Function compile flags: /Odtp /ZI
; File C:\Program Files (x86)\Microsoft Visual Studio\2019\Community\VC\Tools\MSVC\14.27.29110\include\vector
;	COMDAT ?_Calculate_growth@?$vector@UUSER_CONNECT_TIME@@V?$allocator@UUSER_CONNECT_TIME@@@std@@@std@@ABEII@Z
_TEXT	SEGMENT
__Geometric$ = -12					; size = 4
__Oldcapacity$ = -8					; size = 4
_this$ = -4						; size = 4
__Newsize$ = 8						; size = 4
?_Calculate_growth@?$vector@UUSER_CONNECT_TIME@@V?$allocator@UUSER_CONNECT_TIME@@@std@@@std@@ABEII@Z PROC ; std::vector<USER_CONNECT_TIME,std::allocator<USER_CONNECT_TIME> >::_Calculate_growth, COMDAT
; _this$ = ecx

; 1615 :     size_type _Calculate_growth(const size_type _Newsize) const {

  00000	55		 push	 ebp
  00001	8b ec		 mov	 ebp, esp
  00003	83 ec 4c	 sub	 esp, 76			; 0000004cH
  00006	53		 push	 ebx
  00007	56		 push	 esi
  00008	57		 push	 edi
  00009	89 4d fc	 mov	 DWORD PTR _this$[ebp], ecx

; 1616 :         // given _Oldcapacity and _Newsize, calculate geometric growth
; 1617 :         const size_type _Oldcapacity = capacity();

  0000c	8b 4d fc	 mov	 ecx, DWORD PTR _this$[ebp]
  0000f	e8 00 00 00 00	 call	 ?capacity@?$vector@UUSER_CONNECT_TIME@@V?$allocator@UUSER_CONNECT_TIME@@@std@@@std@@QBEIXZ ; std::vector<USER_CONNECT_TIME,std::allocator<USER_CONNECT_TIME> >::capacity
  00014	89 45 f8	 mov	 DWORD PTR __Oldcapacity$[ebp], eax

; 1618 : 
; 1619 :         if (_Oldcapacity > max_size() - _Oldcapacity / 2) {

  00017	8b 4d fc	 mov	 ecx, DWORD PTR _this$[ebp]
  0001a	e8 00 00 00 00	 call	 ?max_size@?$vector@UUSER_CONNECT_TIME@@V?$allocator@UUSER_CONNECT_TIME@@@std@@@std@@QBEIXZ ; std::vector<USER_CONNECT_TIME,std::allocator<USER_CONNECT_TIME> >::max_size
  0001f	8b 4d f8	 mov	 ecx, DWORD PTR __Oldcapacity$[ebp]
  00022	d1 e9		 shr	 ecx, 1
  00024	2b c1		 sub	 eax, ecx
  00026	39 45 f8	 cmp	 DWORD PTR __Oldcapacity$[ebp], eax
  00029	76 05		 jbe	 SHORT $LN2@Calculate_

; 1620 :             return _Newsize; // geometric growth would overflow

  0002b	8b 45 08	 mov	 eax, DWORD PTR __Newsize$[ebp]
  0002e	eb 1b		 jmp	 SHORT $LN1@Calculate_
$LN2@Calculate_:

; 1621 :         }
; 1622 : 
; 1623 :         const size_type _Geometric = _Oldcapacity + _Oldcapacity / 2;

  00030	8b 45 f8	 mov	 eax, DWORD PTR __Oldcapacity$[ebp]
  00033	d1 e8		 shr	 eax, 1
  00035	03 45 f8	 add	 eax, DWORD PTR __Oldcapacity$[ebp]
  00038	89 45 f4	 mov	 DWORD PTR __Geometric$[ebp], eax

; 1624 : 
; 1625 :         if (_Geometric < _Newsize) {

  0003b	8b 45 f4	 mov	 eax, DWORD PTR __Geometric$[ebp]
  0003e	3b 45 08	 cmp	 eax, DWORD PTR __Newsize$[ebp]
  00041	73 05		 jae	 SHORT $LN3@Calculate_

; 1626 :             return _Newsize; // geometric growth would be insufficient

  00043	8b 45 08	 mov	 eax, DWORD PTR __Newsize$[ebp]
  00046	eb 03		 jmp	 SHORT $LN1@Calculate_
$LN3@Calculate_:

; 1627 :         }
; 1628 : 
; 1629 :         return _Geometric; // geometric growth is sufficient

  00048	8b 45 f4	 mov	 eax, DWORD PTR __Geometric$[ebp]
$LN1@Calculate_:

; 1630 :     }

  0004b	5f		 pop	 edi
  0004c	5e		 pop	 esi
  0004d	5b		 pop	 ebx
  0004e	8b e5		 mov	 esp, ebp
  00050	5d		 pop	 ebp
  00051	c2 04 00	 ret	 4
?_Calculate_growth@?$vector@UUSER_CONNECT_TIME@@V?$allocator@UUSER_CONNECT_TIME@@@std@@@std@@ABEII@Z ENDP ; std::vector<USER_CONNECT_TIME,std::allocator<USER_CONNECT_TIME> >::_Calculate_growth
_TEXT	ENDS
; Function compile flags: /Odtp /ZI
; File C:\Program Files (x86)\Microsoft Visual Studio\2019\Community\VC\Tools\MSVC\14.27.29110\include\vector
;	COMDAT ?_Destroy@?$vector@UUSER_CONNECT_TIME@@V?$allocator@UUSER_CONNECT_TIME@@@std@@@std@@AAEXPAUUSER_CONNECT_TIME@@0@Z
_TEXT	SEGMENT
_this$ = -4						; size = 4
__First$ = 8						; size = 4
__Last$ = 12						; size = 4
?_Destroy@?$vector@UUSER_CONNECT_TIME@@V?$allocator@UUSER_CONNECT_TIME@@@std@@@std@@AAEXPAUUSER_CONNECT_TIME@@0@Z PROC ; std::vector<USER_CONNECT_TIME,std::allocator<USER_CONNECT_TIME> >::_Destroy, COMDAT
; _this$ = ecx

; 1611 :     void _Destroy(pointer _First, pointer _Last) { // destroy [_First, _Last) using allocator

  00000	55		 push	 ebp
  00001	8b ec		 mov	 ebp, esp
  00003	83 ec 44	 sub	 esp, 68			; 00000044H
  00006	53		 push	 ebx
  00007	56		 push	 esi
  00008	57		 push	 edi
  00009	89 4d fc	 mov	 DWORD PTR _this$[ebp], ecx

; 1612 :         _Destroy_range(_First, _Last, _Getal());

  0000c	8b 4d fc	 mov	 ecx, DWORD PTR _this$[ebp]
  0000f	e8 00 00 00 00	 call	 ?_Getal@?$vector@UUSER_CONNECT_TIME@@V?$allocator@UUSER_CONNECT_TIME@@@std@@@std@@AAEAAV?$allocator@UUSER_CONNECT_TIME@@@2@XZ ; std::vector<USER_CONNECT_TIME,std::allocator<USER_CONNECT_TIME> >::_Getal
  00014	50		 push	 eax
  00015	8b 45 0c	 mov	 eax, DWORD PTR __Last$[ebp]
  00018	50		 push	 eax
  00019	8b 4d 08	 mov	 ecx, DWORD PTR __First$[ebp]
  0001c	51		 push	 ecx
  0001d	e8 00 00 00 00	 call	 ??$_Destroy_range@V?$allocator@UUSER_CONNECT_TIME@@@std@@@std@@YAXPAUUSER_CONNECT_TIME@@QAU1@AAV?$allocator@UUSER_CONNECT_TIME@@@0@@Z ; std::_Destroy_range<std::allocator<USER_CONNECT_TIME> >
  00022	83 c4 0c	 add	 esp, 12			; 0000000cH

; 1613 :     }

  00025	5f		 pop	 edi
  00026	5e		 pop	 esi
  00027	5b		 pop	 ebx
  00028	8b e5		 mov	 esp, ebp
  0002a	5d		 pop	 ebp
  0002b	c2 08 00	 ret	 8
?_Destroy@?$vector@UUSER_CONNECT_TIME@@V?$allocator@UUSER_CONNECT_TIME@@@std@@@std@@AAEXPAUUSER_CONNECT_TIME@@0@Z ENDP ; std::vector<USER_CONNECT_TIME,std::allocator<USER_CONNECT_TIME> >::_Destroy
_TEXT	ENDS
; Function compile flags: /Odtp /ZI
; File C:\Program Files (x86)\Microsoft Visual Studio\2019\Community\VC\Tools\MSVC\14.27.29110\include\vector
;	COMDAT ?_Umove_if_noexcept@?$vector@UUSER_CONNECT_TIME@@V?$allocator@UUSER_CONNECT_TIME@@@std@@@std@@AAEXPAUUSER_CONNECT_TIME@@00@Z
_TEXT	SEGMENT
$T1 = -69						; size = 1
_this$ = -4						; size = 4
__First$ = 8						; size = 4
__Last$ = 12						; size = 4
__Dest$ = 16						; size = 4
?_Umove_if_noexcept@?$vector@UUSER_CONNECT_TIME@@V?$allocator@UUSER_CONNECT_TIME@@@std@@@std@@AAEXPAUUSER_CONNECT_TIME@@00@Z PROC ; std::vector<USER_CONNECT_TIME,std::allocator<USER_CONNECT_TIME> >::_Umove_if_noexcept, COMDAT
; _this$ = ecx

; 1605 :     void _Umove_if_noexcept(pointer _First, pointer _Last, pointer _Dest) {

  00000	55		 push	 ebp
  00001	8b ec		 mov	 ebp, esp
  00003	83 ec 48	 sub	 esp, 72			; 00000048H
  00006	53		 push	 ebx
  00007	56		 push	 esi
  00008	57		 push	 edi
  00009	89 4d fc	 mov	 DWORD PTR _this$[ebp], ecx

; 1606 :         // move_if_noexcept [_First, _Last) to raw _Dest, using allocator
; 1607 :         _Umove_if_noexcept1(_First, _Last, _Dest,

  0000c	33 c0		 xor	 eax, eax
  0000e	88 45 bb	 mov	 BYTE PTR $T1[ebp], al
  00011	0f b6 4d bb	 movzx	 ecx, BYTE PTR $T1[ebp]
  00015	51		 push	 ecx
  00016	8b 55 10	 mov	 edx, DWORD PTR __Dest$[ebp]
  00019	52		 push	 edx
  0001a	8b 45 0c	 mov	 eax, DWORD PTR __Last$[ebp]
  0001d	50		 push	 eax
  0001e	8b 4d 08	 mov	 ecx, DWORD PTR __First$[ebp]
  00021	51		 push	 ecx
  00022	8b 4d fc	 mov	 ecx, DWORD PTR _this$[ebp]
  00025	e8 00 00 00 00	 call	 ?_Umove_if_noexcept1@?$vector@UUSER_CONNECT_TIME@@V?$allocator@UUSER_CONNECT_TIME@@@std@@@std@@AAEXPAUUSER_CONNECT_TIME@@00U?$integral_constant@_N$00@2@@Z ; std::vector<USER_CONNECT_TIME,std::allocator<USER_CONNECT_TIME> >::_Umove_if_noexcept1

; 1608 :             bool_constant<disjunction_v<is_nothrow_move_constructible<_Ty>, negation<is_copy_constructible<_Ty>>>>{});
; 1609 :     }

  0002a	5f		 pop	 edi
  0002b	5e		 pop	 esi
  0002c	5b		 pop	 ebx
  0002d	8b e5		 mov	 esp, ebp
  0002f	5d		 pop	 ebp
  00030	c2 0c 00	 ret	 12			; 0000000cH
?_Umove_if_noexcept@?$vector@UUSER_CONNECT_TIME@@V?$allocator@UUSER_CONNECT_TIME@@@std@@@std@@AAEXPAUUSER_CONNECT_TIME@@00@Z ENDP ; std::vector<USER_CONNECT_TIME,std::allocator<USER_CONNECT_TIME> >::_Umove_if_noexcept
_TEXT	ENDS
; Function compile flags: /Odtp /ZI
; File C:\Program Files (x86)\Microsoft Visual Studio\2019\Community\VC\Tools\MSVC\14.27.29110\include\vector
;	COMDAT ?_Umove_if_noexcept1@?$vector@UUSER_CONNECT_TIME@@V?$allocator@UUSER_CONNECT_TIME@@@std@@@std@@AAEXPAUUSER_CONNECT_TIME@@00U?$integral_constant@_N$00@2@@Z
_TEXT	SEGMENT
_this$ = -4						; size = 4
__First$ = 8						; size = 4
__Last$ = 12						; size = 4
__Dest$ = 16						; size = 4
___formal$ = 20						; size = 1
?_Umove_if_noexcept1@?$vector@UUSER_CONNECT_TIME@@V?$allocator@UUSER_CONNECT_TIME@@@std@@@std@@AAEXPAUUSER_CONNECT_TIME@@00U?$integral_constant@_N$00@2@@Z PROC ; std::vector<USER_CONNECT_TIME,std::allocator<USER_CONNECT_TIME> >::_Umove_if_noexcept1, COMDAT
; _this$ = ecx

; 1595 :     void _Umove_if_noexcept1(pointer _First, pointer _Last, pointer _Dest, true_type) {

  00000	55		 push	 ebp
  00001	8b ec		 mov	 ebp, esp
  00003	83 ec 44	 sub	 esp, 68			; 00000044H
  00006	53		 push	 ebx
  00007	56		 push	 esi
  00008	57		 push	 edi
  00009	89 4d fc	 mov	 DWORD PTR _this$[ebp], ecx

; 1596 :         // move [_First, _Last) to raw _Dest, using allocator
; 1597 :         _Uninitialized_move(_First, _Last, _Dest, _Getal());

  0000c	8b 4d fc	 mov	 ecx, DWORD PTR _this$[ebp]
  0000f	e8 00 00 00 00	 call	 ?_Getal@?$vector@UUSER_CONNECT_TIME@@V?$allocator@UUSER_CONNECT_TIME@@@std@@@std@@AAEAAV?$allocator@UUSER_CONNECT_TIME@@@2@XZ ; std::vector<USER_CONNECT_TIME,std::allocator<USER_CONNECT_TIME> >::_Getal
  00014	50		 push	 eax
  00015	8b 45 10	 mov	 eax, DWORD PTR __Dest$[ebp]
  00018	50		 push	 eax
  00019	8b 4d 0c	 mov	 ecx, DWORD PTR __Last$[ebp]
  0001c	51		 push	 ecx
  0001d	8b 55 08	 mov	 edx, DWORD PTR __First$[ebp]
  00020	52		 push	 edx
  00021	e8 00 00 00 00	 call	 ??$_Uninitialized_move@PAUUSER_CONNECT_TIME@@V?$allocator@UUSER_CONNECT_TIME@@@std@@@std@@YAPAUUSER_CONNECT_TIME@@QAU1@0PAU1@AAV?$allocator@UUSER_CONNECT_TIME@@@0@@Z ; std::_Uninitialized_move<USER_CONNECT_TIME *,std::allocator<USER_CONNECT_TIME> >
  00026	83 c4 10	 add	 esp, 16			; 00000010H

; 1598 :     }

  00029	5f		 pop	 edi
  0002a	5e		 pop	 esi
  0002b	5b		 pop	 ebx
  0002c	8b e5		 mov	 esp, ebp
  0002e	5d		 pop	 ebp
  0002f	c2 10 00	 ret	 16			; 00000010H
?_Umove_if_noexcept1@?$vector@UUSER_CONNECT_TIME@@V?$allocator@UUSER_CONNECT_TIME@@@std@@@std@@AAEXPAUUSER_CONNECT_TIME@@00U?$integral_constant@_N$00@2@@Z ENDP ; std::vector<USER_CONNECT_TIME,std::allocator<USER_CONNECT_TIME> >::_Umove_if_noexcept1
_TEXT	ENDS
; Function compile flags: /Odtp /ZI
; File C:\Program Files (x86)\Microsoft Visual Studio\2019\Community\VC\Tools\MSVC\14.27.29110\include\vector
;	COMDAT ?_Umove@?$vector@UUSER_CONNECT_TIME@@V?$allocator@UUSER_CONNECT_TIME@@@std@@@std@@AAEPAUUSER_CONNECT_TIME@@PAU3@00@Z
_TEXT	SEGMENT
_this$ = -4						; size = 4
__First$ = 8						; size = 4
__Last$ = 12						; size = 4
__Dest$ = 16						; size = 4
?_Umove@?$vector@UUSER_CONNECT_TIME@@V?$allocator@UUSER_CONNECT_TIME@@@std@@@std@@AAEPAUUSER_CONNECT_TIME@@PAU3@00@Z PROC ; std::vector<USER_CONNECT_TIME,std::allocator<USER_CONNECT_TIME> >::_Umove, COMDAT
; _this$ = ecx

; 1591 :     pointer _Umove(pointer _First, pointer _Last, pointer _Dest) { // move [_First, _Last) to raw _Dest, using allocator

  00000	55		 push	 ebp
  00001	8b ec		 mov	 ebp, esp
  00003	83 ec 44	 sub	 esp, 68			; 00000044H
  00006	53		 push	 ebx
  00007	56		 push	 esi
  00008	57		 push	 edi
  00009	89 4d fc	 mov	 DWORD PTR _this$[ebp], ecx

; 1592 :         return _Uninitialized_move(_First, _Last, _Dest, _Getal());

  0000c	8b 4d fc	 mov	 ecx, DWORD PTR _this$[ebp]
  0000f	e8 00 00 00 00	 call	 ?_Getal@?$vector@UUSER_CONNECT_TIME@@V?$allocator@UUSER_CONNECT_TIME@@@std@@@std@@AAEAAV?$allocator@UUSER_CONNECT_TIME@@@2@XZ ; std::vector<USER_CONNECT_TIME,std::allocator<USER_CONNECT_TIME> >::_Getal
  00014	50		 push	 eax
  00015	8b 45 10	 mov	 eax, DWORD PTR __Dest$[ebp]
  00018	50		 push	 eax
  00019	8b 4d 0c	 mov	 ecx, DWORD PTR __Last$[ebp]
  0001c	51		 push	 ecx
  0001d	8b 55 08	 mov	 edx, DWORD PTR __First$[ebp]
  00020	52		 push	 edx
  00021	e8 00 00 00 00	 call	 ??$_Uninitialized_move@PAUUSER_CONNECT_TIME@@V?$allocator@UUSER_CONNECT_TIME@@@std@@@std@@YAPAUUSER_CONNECT_TIME@@QAU1@0PAU1@AAV?$allocator@UUSER_CONNECT_TIME@@@0@@Z ; std::_Uninitialized_move<USER_CONNECT_TIME *,std::allocator<USER_CONNECT_TIME> >
  00026	83 c4 10	 add	 esp, 16			; 00000010H

; 1593 :     }

  00029	5f		 pop	 edi
  0002a	5e		 pop	 esi
  0002b	5b		 pop	 ebx
  0002c	8b e5		 mov	 esp, ebp
  0002e	5d		 pop	 ebp
  0002f	c2 0c 00	 ret	 12			; 0000000cH
?_Umove@?$vector@UUSER_CONNECT_TIME@@V?$allocator@UUSER_CONNECT_TIME@@@std@@@std@@AAEPAUUSER_CONNECT_TIME@@PAU3@00@Z ENDP ; std::vector<USER_CONNECT_TIME,std::allocator<USER_CONNECT_TIME> >::_Umove
_TEXT	ENDS
; Function compile flags: /Odtp /ZI
; File C:\Program Files (x86)\Microsoft Visual Studio\2019\Community\VC\Tools\MSVC\14.27.29110\include\vector
;	COMDAT ?capacity@?$vector@UUSER_CONNECT_TIME@@V?$allocator@UUSER_CONNECT_TIME@@@std@@@std@@QBEIXZ
_TEXT	SEGMENT
__My_data$ = -8						; size = 4
_this$ = -4						; size = 4
?capacity@?$vector@UUSER_CONNECT_TIME@@V?$allocator@UUSER_CONNECT_TIME@@@std@@@std@@QBEIXZ PROC ; std::vector<USER_CONNECT_TIME,std::allocator<USER_CONNECT_TIME> >::capacity, COMDAT
; _this$ = ecx

; 1492 :     _NODISCARD size_type capacity() const noexcept {

  00000	55		 push	 ebp
  00001	8b ec		 mov	 ebp, esp
  00003	83 ec 48	 sub	 esp, 72			; 00000048H
  00006	53		 push	 ebx
  00007	56		 push	 esi
  00008	57		 push	 edi
  00009	89 4d fc	 mov	 DWORD PTR _this$[ebp], ecx

; 1493 :         auto& _My_data = _Mypair._Myval2;

  0000c	8b 45 fc	 mov	 eax, DWORD PTR _this$[ebp]
  0000f	89 45 f8	 mov	 DWORD PTR __My_data$[ebp], eax

; 1494 :         return static_cast<size_type>(_My_data._Myend - _My_data._Myfirst);

  00012	8b 45 f8	 mov	 eax, DWORD PTR __My_data$[ebp]
  00015	8b 4d f8	 mov	 ecx, DWORD PTR __My_data$[ebp]
  00018	8b 40 08	 mov	 eax, DWORD PTR [eax+8]
  0001b	2b 01		 sub	 eax, DWORD PTR [ecx]
  0001d	99		 cdq
  0001e	b9 24 00 00 00	 mov	 ecx, 36			; 00000024H
  00023	f7 f9		 idiv	 ecx

; 1495 :     }

  00025	5f		 pop	 edi
  00026	5e		 pop	 esi
  00027	5b		 pop	 ebx
  00028	8b e5		 mov	 esp, ebp
  0002a	5d		 pop	 ebp
  0002b	c3		 ret	 0
?capacity@?$vector@UUSER_CONNECT_TIME@@V?$allocator@UUSER_CONNECT_TIME@@@std@@@std@@QBEIXZ ENDP ; std::vector<USER_CONNECT_TIME,std::allocator<USER_CONNECT_TIME> >::capacity
_TEXT	ENDS
; Function compile flags: /Odtp /ZI
; File C:\Program Files (x86)\Microsoft Visual Studio\2019\Community\VC\Tools\MSVC\14.27.29110\include\vector
;	COMDAT ?max_size@?$vector@UUSER_CONNECT_TIME@@V?$allocator@UUSER_CONNECT_TIME@@@std@@@std@@QBEIXZ
_TEXT	SEGMENT
$T1 = -76						; size = 4
$T2 = -72						; size = 4
_this$ = -4						; size = 4
?max_size@?$vector@UUSER_CONNECT_TIME@@V?$allocator@UUSER_CONNECT_TIME@@@std@@@std@@QBEIXZ PROC ; std::vector<USER_CONNECT_TIME,std::allocator<USER_CONNECT_TIME> >::max_size, COMDAT
; _this$ = ecx

; 1487 :     _NODISCARD size_type max_size() const noexcept {

  00000	55		 push	 ebp
  00001	8b ec		 mov	 ebp, esp
  00003	83 ec 4c	 sub	 esp, 76			; 0000004cH
  00006	53		 push	 ebx
  00007	56		 push	 esi
  00008	57		 push	 edi
  00009	89 4d fc	 mov	 DWORD PTR _this$[ebp], ecx

; 1488 :         return (_STD min)(

  0000c	8b 4d fc	 mov	 ecx, DWORD PTR _this$[ebp]
  0000f	e8 00 00 00 00	 call	 ?_Getal@?$vector@UUSER_CONNECT_TIME@@V?$allocator@UUSER_CONNECT_TIME@@@std@@@std@@ABEABV?$allocator@UUSER_CONNECT_TIME@@@2@XZ ; std::vector<USER_CONNECT_TIME,std::allocator<USER_CONNECT_TIME> >::_Getal
  00014	50		 push	 eax
  00015	e8 00 00 00 00	 call	 ?max_size@?$_Default_allocator_traits@V?$allocator@UUSER_CONNECT_TIME@@@std@@@std@@SAIABV?$allocator@UUSER_CONNECT_TIME@@@2@@Z ; std::_Default_allocator_traits<std::allocator<USER_CONNECT_TIME> >::max_size
  0001a	83 c4 04	 add	 esp, 4
  0001d	89 45 b8	 mov	 DWORD PTR $T2[ebp], eax
  00020	e8 00 00 00 00	 call	 ?max@?$numeric_limits@H@std@@SAHXZ ; std::numeric_limits<int>::max
  00025	89 45 b4	 mov	 DWORD PTR $T1[ebp], eax
  00028	8d 45 b8	 lea	 eax, DWORD PTR $T2[ebp]
  0002b	50		 push	 eax
  0002c	8d 4d b4	 lea	 ecx, DWORD PTR $T1[ebp]
  0002f	51		 push	 ecx
  00030	e8 00 00 00 00	 call	 ??$min@I@std@@YAABIABI0@Z ; std::min<unsigned int>
  00035	83 c4 08	 add	 esp, 8
  00038	8b 00		 mov	 eax, DWORD PTR [eax]

; 1489 :             static_cast<size_type>((numeric_limits<difference_type>::max)()), _Alty_traits::max_size(_Getal()));
; 1490 :     }

  0003a	5f		 pop	 edi
  0003b	5e		 pop	 esi
  0003c	5b		 pop	 ebx
  0003d	8b e5		 mov	 esp, ebp
  0003f	5d		 pop	 ebp
  00040	c3		 ret	 0
?max_size@?$vector@UUSER_CONNECT_TIME@@V?$allocator@UUSER_CONNECT_TIME@@@std@@@std@@QBEIXZ ENDP ; std::vector<USER_CONNECT_TIME,std::allocator<USER_CONNECT_TIME> >::max_size
_TEXT	ENDS
; Function compile flags: /Odtp /ZI
; File C:\Program Files (x86)\Microsoft Visual Studio\2019\Community\VC\Tools\MSVC\14.27.29110\include\vector
;	COMDAT ?size@?$vector@UUSER_CONNECT_TIME@@V?$allocator@UUSER_CONNECT_TIME@@@std@@@std@@QBEIXZ
_TEXT	SEGMENT
__My_data$ = -8						; size = 4
_this$ = -4						; size = 4
?size@?$vector@UUSER_CONNECT_TIME@@V?$allocator@UUSER_CONNECT_TIME@@@std@@@std@@QBEIXZ PROC ; std::vector<USER_CONNECT_TIME,std::allocator<USER_CONNECT_TIME> >::size, COMDAT
; _this$ = ecx

; 1482 :     _NODISCARD size_type size() const noexcept {

  00000	55		 push	 ebp
  00001	8b ec		 mov	 ebp, esp
  00003	83 ec 48	 sub	 esp, 72			; 00000048H
  00006	53		 push	 ebx
  00007	56		 push	 esi
  00008	57		 push	 edi
  00009	89 4d fc	 mov	 DWORD PTR _this$[ebp], ecx

; 1483 :         auto& _My_data = _Mypair._Myval2;

  0000c	8b 45 fc	 mov	 eax, DWORD PTR _this$[ebp]
  0000f	89 45 f8	 mov	 DWORD PTR __My_data$[ebp], eax

; 1484 :         return static_cast<size_type>(_My_data._Mylast - _My_data._Myfirst);

  00012	8b 45 f8	 mov	 eax, DWORD PTR __My_data$[ebp]
  00015	8b 4d f8	 mov	 ecx, DWORD PTR __My_data$[ebp]
  00018	8b 40 04	 mov	 eax, DWORD PTR [eax+4]
  0001b	2b 01		 sub	 eax, DWORD PTR [ecx]
  0001d	99		 cdq
  0001e	b9 24 00 00 00	 mov	 ecx, 36			; 00000024H
  00023	f7 f9		 idiv	 ecx

; 1485 :     }

  00025	5f		 pop	 edi
  00026	5e		 pop	 esi
  00027	5b		 pop	 ebx
  00028	8b e5		 mov	 esp, ebp
  0002a	5d		 pop	 ebp
  0002b	c3		 ret	 0
?size@?$vector@UUSER_CONNECT_TIME@@V?$allocator@UUSER_CONNECT_TIME@@@std@@@std@@QBEIXZ ENDP ; std::vector<USER_CONNECT_TIME,std::allocator<USER_CONNECT_TIME> >::size
_TEXT	ENDS
; Function compile flags: /Odtp /ZI
; File C:\Program Files (x86)\Microsoft Visual Studio\2019\Community\VC\Tools\MSVC\14.27.29110\include\vector
;	COMDAT ?end@?$vector@UUSER_CONNECT_TIME@@V?$allocator@UUSER_CONNECT_TIME@@@std@@@std@@QAE?AV?$_Vector_iterator@V?$_Vector_val@U?$_Simple_types@UUSER_CONNECT_TIME@@@std@@@std@@@2@XZ
_TEXT	SEGMENT
__My_data$ = -8						; size = 4
_this$ = -4						; size = 4
___$ReturnUdt$ = 8					; size = 4
?end@?$vector@UUSER_CONNECT_TIME@@V?$allocator@UUSER_CONNECT_TIME@@@std@@@std@@QAE?AV?$_Vector_iterator@V?$_Vector_val@U?$_Simple_types@UUSER_CONNECT_TIME@@@std@@@std@@@2@XZ PROC ; std::vector<USER_CONNECT_TIME,std::allocator<USER_CONNECT_TIME> >::end, COMDAT
; _this$ = ecx

; 1419 :     _NODISCARD iterator end() noexcept {

  00000	55		 push	 ebp
  00001	8b ec		 mov	 ebp, esp
  00003	83 ec 48	 sub	 esp, 72			; 00000048H
  00006	53		 push	 ebx
  00007	56		 push	 esi
  00008	57		 push	 edi
  00009	89 4d fc	 mov	 DWORD PTR _this$[ebp], ecx

; 1420 :         auto& _My_data = _Mypair._Myval2;

  0000c	8b 45 fc	 mov	 eax, DWORD PTR _this$[ebp]
  0000f	89 45 f8	 mov	 DWORD PTR __My_data$[ebp], eax

; 1421 :         return iterator(_My_data._Mylast, _STD addressof(_My_data));

  00012	8b 45 f8	 mov	 eax, DWORD PTR __My_data$[ebp]
  00015	50		 push	 eax
  00016	e8 00 00 00 00	 call	 ??$addressof@V?$_Vector_val@U?$_Simple_types@UUSER_CONNECT_TIME@@@std@@@std@@@std@@YAPAV?$_Vector_val@U?$_Simple_types@UUSER_CONNECT_TIME@@@std@@@0@AAV10@@Z ; std::addressof<std::_Vector_val<std::_Simple_types<USER_CONNECT_TIME> > >
  0001b	83 c4 04	 add	 esp, 4
  0001e	50		 push	 eax
  0001f	8b 4d f8	 mov	 ecx, DWORD PTR __My_data$[ebp]
  00022	8b 51 04	 mov	 edx, DWORD PTR [ecx+4]
  00025	52		 push	 edx
  00026	8b 4d 08	 mov	 ecx, DWORD PTR ___$ReturnUdt$[ebp]
  00029	e8 00 00 00 00	 call	 ??0?$_Vector_iterator@V?$_Vector_val@U?$_Simple_types@UUSER_CONNECT_TIME@@@std@@@std@@@std@@QAE@PAUUSER_CONNECT_TIME@@PBU_Container_base0@1@@Z
  0002e	8b 45 08	 mov	 eax, DWORD PTR ___$ReturnUdt$[ebp]

; 1422 :     }

  00031	5f		 pop	 edi
  00032	5e		 pop	 esi
  00033	5b		 pop	 ebx
  00034	8b e5		 mov	 esp, ebp
  00036	5d		 pop	 ebp
  00037	c2 04 00	 ret	 4
?end@?$vector@UUSER_CONNECT_TIME@@V?$allocator@UUSER_CONNECT_TIME@@@std@@@std@@QAE?AV?$_Vector_iterator@V?$_Vector_val@U?$_Simple_types@UUSER_CONNECT_TIME@@@std@@@std@@@2@XZ ENDP ; std::vector<USER_CONNECT_TIME,std::allocator<USER_CONNECT_TIME> >::end
_TEXT	ENDS
; Function compile flags: /Odtp /ZI
; File C:\Program Files (x86)\Microsoft Visual Studio\2019\Community\VC\Tools\MSVC\14.27.29110\include\vector
;	COMDAT ?begin@?$vector@UUSER_CONNECT_TIME@@V?$allocator@UUSER_CONNECT_TIME@@@std@@@std@@QAE?AV?$_Vector_iterator@V?$_Vector_val@U?$_Simple_types@UUSER_CONNECT_TIME@@@std@@@std@@@2@XZ
_TEXT	SEGMENT
__My_data$ = -8						; size = 4
_this$ = -4						; size = 4
___$ReturnUdt$ = 8					; size = 4
?begin@?$vector@UUSER_CONNECT_TIME@@V?$allocator@UUSER_CONNECT_TIME@@@std@@@std@@QAE?AV?$_Vector_iterator@V?$_Vector_val@U?$_Simple_types@UUSER_CONNECT_TIME@@@std@@@std@@@2@XZ PROC ; std::vector<USER_CONNECT_TIME,std::allocator<USER_CONNECT_TIME> >::begin, COMDAT
; _this$ = ecx

; 1409 :     _NODISCARD iterator begin() noexcept {

  00000	55		 push	 ebp
  00001	8b ec		 mov	 ebp, esp
  00003	83 ec 48	 sub	 esp, 72			; 00000048H
  00006	53		 push	 ebx
  00007	56		 push	 esi
  00008	57		 push	 edi
  00009	89 4d fc	 mov	 DWORD PTR _this$[ebp], ecx

; 1410 :         auto& _My_data = _Mypair._Myval2;

  0000c	8b 45 fc	 mov	 eax, DWORD PTR _this$[ebp]
  0000f	89 45 f8	 mov	 DWORD PTR __My_data$[ebp], eax

; 1411 :         return iterator(_My_data._Myfirst, _STD addressof(_My_data));

  00012	8b 45 f8	 mov	 eax, DWORD PTR __My_data$[ebp]
  00015	50		 push	 eax
  00016	e8 00 00 00 00	 call	 ??$addressof@V?$_Vector_val@U?$_Simple_types@UUSER_CONNECT_TIME@@@std@@@std@@@std@@YAPAV?$_Vector_val@U?$_Simple_types@UUSER_CONNECT_TIME@@@std@@@0@AAV10@@Z ; std::addressof<std::_Vector_val<std::_Simple_types<USER_CONNECT_TIME> > >
  0001b	83 c4 04	 add	 esp, 4
  0001e	50		 push	 eax
  0001f	8b 4d f8	 mov	 ecx, DWORD PTR __My_data$[ebp]
  00022	8b 11		 mov	 edx, DWORD PTR [ecx]
  00024	52		 push	 edx
  00025	8b 4d 08	 mov	 ecx, DWORD PTR ___$ReturnUdt$[ebp]
  00028	e8 00 00 00 00	 call	 ??0?$_Vector_iterator@V?$_Vector_val@U?$_Simple_types@UUSER_CONNECT_TIME@@@std@@@std@@@std@@QAE@PAUUSER_CONNECT_TIME@@PBU_Container_base0@1@@Z
  0002d	8b 45 08	 mov	 eax, DWORD PTR ___$ReturnUdt$[ebp]

; 1412 :     }

  00030	5f		 pop	 edi
  00031	5e		 pop	 esi
  00032	5b		 pop	 ebx
  00033	8b e5		 mov	 esp, ebp
  00035	5d		 pop	 ebp
  00036	c2 04 00	 ret	 4
?begin@?$vector@UUSER_CONNECT_TIME@@V?$allocator@UUSER_CONNECT_TIME@@@std@@@std@@QAE?AV?$_Vector_iterator@V?$_Vector_val@U?$_Simple_types@UUSER_CONNECT_TIME@@@std@@@std@@@2@XZ ENDP ; std::vector<USER_CONNECT_TIME,std::allocator<USER_CONNECT_TIME> >::begin
_TEXT	ENDS
; Function compile flags: /Odtp /ZI
; File C:\Program Files (x86)\Microsoft Visual Studio\2019\Community\VC\Tools\MSVC\14.27.29110\include\vector
;	COMDAT ?erase@?$vector@UUSER_CONNECT_TIME@@V?$allocator@UUSER_CONNECT_TIME@@@std@@@std@@QAE?AV?$_Vector_iterator@V?$_Vector_val@U?$_Simple_types@UUSER_CONNECT_TIME@@@std@@@std@@@2@V?$_Vector_const_iterator@V?$_Vector_val@U?$_Simple_types@UUSER_CONNECT_TIME@@@std@@@std@@@2@0@Z
_TEXT	SEGMENT
__Newlast$2 = -36					; size = 4
__Mylast$ = -32						; size = 4
__My_data$ = -28					; size = 4
__Lastptr$ = -24					; size = 4
__Firstptr$ = -20					; size = 4
_this$ = -16						; size = 4
__$EHRec$ = -12						; size = 12
___$ReturnUdt$ = 8					; size = 4
__First$ = 12						; size = 4
__Last$ = 16						; size = 4
?erase@?$vector@UUSER_CONNECT_TIME@@V?$allocator@UUSER_CONNECT_TIME@@@std@@@std@@QAE?AV?$_Vector_iterator@V?$_Vector_val@U?$_Simple_types@UUSER_CONNECT_TIME@@@std@@@std@@@2@V?$_Vector_const_iterator@V?$_Vector_val@U?$_Simple_types@UUSER_CONNECT_TIME@@@std@@@std@@@2@0@Z PROC ; std::vector<USER_CONNECT_TIME,std::allocator<USER_CONNECT_TIME> >::erase, COMDAT
; _this$ = ecx

; 1360 :         is_nothrow_move_assignable_v<value_type>) /* strengthened */ {

  00000	55		 push	 ebp
  00001	8b ec		 mov	 ebp, esp
  00003	6a ff		 push	 -1
  00005	68 00 00 00 00	 push	 __ehhandler$?erase@?$vector@UUSER_CONNECT_TIME@@V?$allocator@UUSER_CONNECT_TIME@@@std@@@std@@QAE?AV?$_Vector_iterator@V?$_Vector_val@U?$_Simple_types@UUSER_CONNECT_TIME@@@std@@@std@@@2@V?$_Vector_const_iterator@V?$_Vector_val@U?$_Simple_types@UUSER_CONNECT_TIME@@@std@@@std@@@2@0@Z
  0000a	64 a1 00 00 00
	00		 mov	 eax, DWORD PTR fs:0
  00010	50		 push	 eax
  00011	83 ec 58	 sub	 esp, 88			; 00000058H
  00014	53		 push	 ebx
  00015	56		 push	 esi
  00016	57		 push	 edi
  00017	a1 00 00 00 00	 mov	 eax, DWORD PTR ___security_cookie
  0001c	33 c5		 xor	 eax, ebp
  0001e	50		 push	 eax
  0001f	8d 45 f4	 lea	 eax, DWORD PTR __$EHRec$[ebp]
  00022	64 a3 00 00 00
	00		 mov	 DWORD PTR fs:0, eax
  00028	89 4d f0	 mov	 DWORD PTR _this$[ebp], ecx

; 1361 :         const pointer _Firstptr = _First._Ptr;

  0002b	8b 45 0c	 mov	 eax, DWORD PTR __First$[ebp]
  0002e	89 45 ec	 mov	 DWORD PTR __Firstptr$[ebp], eax

; 1362 :         const pointer _Lastptr  = _Last._Ptr;

  00031	8b 45 10	 mov	 eax, DWORD PTR __Last$[ebp]
  00034	89 45 e8	 mov	 DWORD PTR __Lastptr$[ebp], eax

; 1363 :         auto& _My_data          = _Mypair._Myval2;

  00037	8b 45 f0	 mov	 eax, DWORD PTR _this$[ebp]
  0003a	89 45 e4	 mov	 DWORD PTR __My_data$[ebp], eax

; 1364 :         pointer& _Mylast        = _My_data._Mylast;

  0003d	8b 45 e4	 mov	 eax, DWORD PTR __My_data$[ebp]
  00040	83 c0 04	 add	 eax, 4
  00043	89 45 e0	 mov	 DWORD PTR __Mylast$[ebp], eax

; 1365 : 
; 1366 : #if _ITERATOR_DEBUG_LEVEL == 2
; 1367 :         _STL_VERIFY(_First._Getcont() == _STD addressof(_My_data) && _Last._Getcont() == _STD addressof(_My_data)
; 1368 :                         && _Firstptr >= _My_data._Myfirst && _Lastptr >= _Firstptr && _Mylast >= _Lastptr,
; 1369 :             "vector erase iterator outside range");
; 1370 : #endif // _ITERATOR_DEBUG_LEVEL == 2
; 1371 : 
; 1372 :         if (_Firstptr != _Lastptr) { // something to do, invalidate iterators

  00046	8b 45 ec	 mov	 eax, DWORD PTR __Firstptr$[ebp]
  00049	3b 45 e8	 cmp	 eax, DWORD PTR __Lastptr$[ebp]
  0004c	74 45		 je	 SHORT $LN2@erase

; 1373 :             _Orphan_range(_Firstptr, _Mylast);

  0004e	8b 45 e0	 mov	 eax, DWORD PTR __Mylast$[ebp]
  00051	8b 08		 mov	 ecx, DWORD PTR [eax]
  00053	51		 push	 ecx
  00054	8b 55 ec	 mov	 edx, DWORD PTR __Firstptr$[ebp]
  00057	52		 push	 edx
  00058	8b 4d f0	 mov	 ecx, DWORD PTR _this$[ebp]
  0005b	e8 00 00 00 00	 call	 ?_Orphan_range@?$vector@UUSER_CONNECT_TIME@@V?$allocator@UUSER_CONNECT_TIME@@@std@@@std@@ABEXPAUUSER_CONNECT_TIME@@0@Z ; std::vector<USER_CONNECT_TIME,std::allocator<USER_CONNECT_TIME> >::_Orphan_range

; 1374 : 
; 1375 :             const pointer _Newlast = _Move_unchecked(_Lastptr, _Mylast, _Firstptr);

  00060	8b 45 ec	 mov	 eax, DWORD PTR __Firstptr$[ebp]
  00063	50		 push	 eax
  00064	8b 4d e0	 mov	 ecx, DWORD PTR __Mylast$[ebp]
  00067	8b 11		 mov	 edx, DWORD PTR [ecx]
  00069	52		 push	 edx
  0006a	8b 45 e8	 mov	 eax, DWORD PTR __Lastptr$[ebp]
  0006d	50		 push	 eax
  0006e	e8 00 00 00 00	 call	 ??$_Move_unchecked@PAUUSER_CONNECT_TIME@@PAU1@@std@@YAPAUUSER_CONNECT_TIME@@PAU1@00@Z ; std::_Move_unchecked<USER_CONNECT_TIME *,USER_CONNECT_TIME *>
  00073	83 c4 0c	 add	 esp, 12			; 0000000cH
  00076	89 45 dc	 mov	 DWORD PTR __Newlast$2[ebp], eax

; 1376 :             _Destroy(_Newlast, _Mylast);

  00079	8b 45 e0	 mov	 eax, DWORD PTR __Mylast$[ebp]
  0007c	8b 08		 mov	 ecx, DWORD PTR [eax]
  0007e	51		 push	 ecx
  0007f	8b 55 dc	 mov	 edx, DWORD PTR __Newlast$2[ebp]
  00082	52		 push	 edx
  00083	8b 4d f0	 mov	 ecx, DWORD PTR _this$[ebp]
  00086	e8 00 00 00 00	 call	 ?_Destroy@?$vector@UUSER_CONNECT_TIME@@V?$allocator@UUSER_CONNECT_TIME@@@std@@@std@@AAEXPAUUSER_CONNECT_TIME@@0@Z ; std::vector<USER_CONNECT_TIME,std::allocator<USER_CONNECT_TIME> >::_Destroy

; 1377 :             _Mylast = _Newlast;

  0008b	8b 45 e0	 mov	 eax, DWORD PTR __Mylast$[ebp]
  0008e	8b 4d dc	 mov	 ecx, DWORD PTR __Newlast$2[ebp]
  00091	89 08		 mov	 DWORD PTR [eax], ecx
$LN2@erase:

; 1378 :         }
; 1379 : 
; 1380 :         return iterator(_Firstptr, _STD addressof(_My_data));

  00093	8b 45 e4	 mov	 eax, DWORD PTR __My_data$[ebp]
  00096	50		 push	 eax
  00097	e8 00 00 00 00	 call	 ??$addressof@V?$_Vector_val@U?$_Simple_types@UUSER_CONNECT_TIME@@@std@@@std@@@std@@YAPAV?$_Vector_val@U?$_Simple_types@UUSER_CONNECT_TIME@@@std@@@0@AAV10@@Z ; std::addressof<std::_Vector_val<std::_Simple_types<USER_CONNECT_TIME> > >
  0009c	83 c4 04	 add	 esp, 4
  0009f	50		 push	 eax
  000a0	8b 4d ec	 mov	 ecx, DWORD PTR __Firstptr$[ebp]
  000a3	51		 push	 ecx
  000a4	8b 4d 08	 mov	 ecx, DWORD PTR ___$ReturnUdt$[ebp]
  000a7	e8 00 00 00 00	 call	 ??0?$_Vector_iterator@V?$_Vector_val@U?$_Simple_types@UUSER_CONNECT_TIME@@@std@@@std@@@std@@QAE@PAUUSER_CONNECT_TIME@@PBU_Container_base0@1@@Z
  000ac	8b 45 08	 mov	 eax, DWORD PTR ___$ReturnUdt$[ebp]

; 1381 :     }

  000af	8b 4d f4	 mov	 ecx, DWORD PTR __$EHRec$[ebp]
  000b2	64 89 0d 00 00
	00 00		 mov	 DWORD PTR fs:0, ecx
  000b9	59		 pop	 ecx
  000ba	5f		 pop	 edi
  000bb	5e		 pop	 esi
  000bc	5b		 pop	 ebx
  000bd	8b e5		 mov	 esp, ebp
  000bf	5d		 pop	 ebp
  000c0	c2 0c 00	 ret	 12			; 0000000cH
  000c3	cc		 int	 3
  000c4	cc		 int	 3
  000c5	cc		 int	 3
  000c6	cc		 int	 3
  000c7	cc		 int	 3
_TEXT	ENDS
;	COMDAT text$x
text$x	SEGMENT
__ehhandler$?erase@?$vector@UUSER_CONNECT_TIME@@V?$allocator@UUSER_CONNECT_TIME@@@std@@@std@@QAE?AV?$_Vector_iterator@V?$_Vector_val@U?$_Simple_types@UUSER_CONNECT_TIME@@@std@@@std@@@2@V?$_Vector_const_iterator@V?$_Vector_val@U?$_Simple_types@UUSER_CONNECT_TIME@@@std@@@std@@@2@0@Z:
  00000	90		 npad	 1
  00001	90		 npad	 1
  00002	8b 54 24 08	 mov	 edx, DWORD PTR [esp+8]
  00006	8d 42 0c	 lea	 eax, DWORD PTR [edx+12]
  00009	8b 4a 98	 mov	 ecx, DWORD PTR [edx-104]
  0000c	33 c8		 xor	 ecx, eax
  0000e	e8 00 00 00 00	 call	 @__security_check_cookie@4
  00013	b8 00 00 00 00	 mov	 eax, OFFSET __ehfuncinfo$?erase@?$vector@UUSER_CONNECT_TIME@@V?$allocator@UUSER_CONNECT_TIME@@@std@@@std@@QAE?AV?$_Vector_iterator@V?$_Vector_val@U?$_Simple_types@UUSER_CONNECT_TIME@@@std@@@std@@@2@V?$_Vector_const_iterator@V?$_Vector_val@U?$_Simple_types@UUSER_CONNECT_TIME@@@std@@@std@@@2@0@Z
  00018	e9 00 00 00 00	 jmp	 ___CxxFrameHandler3
text$x	ENDS
?erase@?$vector@UUSER_CONNECT_TIME@@V?$allocator@UUSER_CONNECT_TIME@@@std@@@std@@QAE?AV?$_Vector_iterator@V?$_Vector_val@U?$_Simple_types@UUSER_CONNECT_TIME@@@std@@@std@@@2@V?$_Vector_const_iterator@V?$_Vector_val@U?$_Simple_types@UUSER_CONNECT_TIME@@@std@@@std@@@2@0@Z ENDP ; std::vector<USER_CONNECT_TIME,std::allocator<USER_CONNECT_TIME> >::erase
; Function compile flags: /Odtp /ZI
; File C:\Program Files (x86)\Microsoft Visual Studio\2019\Community\VC\Tools\MSVC\14.27.29110\include\vector
;	COMDAT ?erase@?$vector@UUSER_CONNECT_TIME@@V?$allocator@UUSER_CONNECT_TIME@@@std@@@std@@QAE?AV?$_Vector_iterator@V?$_Vector_val@U?$_Simple_types@UUSER_CONNECT_TIME@@@std@@@std@@@2@V?$_Vector_const_iterator@V?$_Vector_val@U?$_Simple_types@UUSER_CONNECT_TIME@@@std@@@std@@@2@@Z
_TEXT	SEGMENT
__Mylast$ = -28						; size = 4
__My_data$ = -24					; size = 4
__Whereptr$ = -20					; size = 4
_this$ = -16						; size = 4
__$EHRec$ = -12						; size = 12
___$ReturnUdt$ = 8					; size = 4
__Where$ = 12						; size = 4
?erase@?$vector@UUSER_CONNECT_TIME@@V?$allocator@UUSER_CONNECT_TIME@@@std@@@std@@QAE?AV?$_Vector_iterator@V?$_Vector_val@U?$_Simple_types@UUSER_CONNECT_TIME@@@std@@@std@@@2@V?$_Vector_const_iterator@V?$_Vector_val@U?$_Simple_types@UUSER_CONNECT_TIME@@@std@@@std@@@2@@Z PROC ; std::vector<USER_CONNECT_TIME,std::allocator<USER_CONNECT_TIME> >::erase, COMDAT
; _this$ = ecx

; 1341 :     iterator erase(const_iterator _Where) noexcept(is_nothrow_move_assignable_v<value_type>) /* strengthened */ {

  00000	55		 push	 ebp
  00001	8b ec		 mov	 ebp, esp
  00003	6a ff		 push	 -1
  00005	68 00 00 00 00	 push	 __ehhandler$?erase@?$vector@UUSER_CONNECT_TIME@@V?$allocator@UUSER_CONNECT_TIME@@@std@@@std@@QAE?AV?$_Vector_iterator@V?$_Vector_val@U?$_Simple_types@UUSER_CONNECT_TIME@@@std@@@std@@@2@V?$_Vector_const_iterator@V?$_Vector_val@U?$_Simple_types@UUSER_CONNECT_TIME@@@std@@@std@@@2@@Z
  0000a	64 a1 00 00 00
	00		 mov	 eax, DWORD PTR fs:0
  00010	50		 push	 eax
  00011	83 ec 50	 sub	 esp, 80			; 00000050H
  00014	53		 push	 ebx
  00015	56		 push	 esi
  00016	57		 push	 edi
  00017	a1 00 00 00 00	 mov	 eax, DWORD PTR ___security_cookie
  0001c	33 c5		 xor	 eax, ebp
  0001e	50		 push	 eax
  0001f	8d 45 f4	 lea	 eax, DWORD PTR __$EHRec$[ebp]
  00022	64 a3 00 00 00
	00		 mov	 DWORD PTR fs:0, eax
  00028	89 4d f0	 mov	 DWORD PTR _this$[ebp], ecx

; 1342 :         const pointer _Whereptr = _Where._Ptr;

  0002b	8b 45 0c	 mov	 eax, DWORD PTR __Where$[ebp]
  0002e	89 45 ec	 mov	 DWORD PTR __Whereptr$[ebp], eax

; 1343 :         auto& _My_data          = _Mypair._Myval2;

  00031	8b 45 f0	 mov	 eax, DWORD PTR _this$[ebp]
  00034	89 45 e8	 mov	 DWORD PTR __My_data$[ebp], eax

; 1344 :         pointer& _Mylast        = _My_data._Mylast;

  00037	8b 45 e8	 mov	 eax, DWORD PTR __My_data$[ebp]
  0003a	83 c0 04	 add	 eax, 4
  0003d	89 45 e4	 mov	 DWORD PTR __Mylast$[ebp], eax

; 1345 : 
; 1346 : #if _ITERATOR_DEBUG_LEVEL == 2
; 1347 :         _STL_VERIFY(
; 1348 :             _Where._Getcont() == _STD addressof(_My_data) && _Whereptr >= _My_data._Myfirst && _Mylast > _Whereptr,
; 1349 :             "vector erase iterator outside range");
; 1350 :         _Orphan_range(_Whereptr, _Mylast);
; 1351 : #endif // _ITERATOR_DEBUG_LEVEL == 2
; 1352 : 
; 1353 :         _Move_unchecked(_Whereptr + 1, _Mylast, _Whereptr);

  00040	8b 45 ec	 mov	 eax, DWORD PTR __Whereptr$[ebp]
  00043	50		 push	 eax
  00044	8b 4d e4	 mov	 ecx, DWORD PTR __Mylast$[ebp]
  00047	8b 11		 mov	 edx, DWORD PTR [ecx]
  00049	52		 push	 edx
  0004a	8b 45 ec	 mov	 eax, DWORD PTR __Whereptr$[ebp]
  0004d	83 c0 24	 add	 eax, 36			; 00000024H
  00050	50		 push	 eax
  00051	e8 00 00 00 00	 call	 ??$_Move_unchecked@PAUUSER_CONNECT_TIME@@PAU1@@std@@YAPAUUSER_CONNECT_TIME@@PAU1@00@Z ; std::_Move_unchecked<USER_CONNECT_TIME *,USER_CONNECT_TIME *>
  00056	83 c4 0c	 add	 esp, 12			; 0000000cH

; 1354 :         _Alty_traits::destroy(_Getal(), _Unfancy(_Mylast - 1));

  00059	8b 45 e4	 mov	 eax, DWORD PTR __Mylast$[ebp]
  0005c	8b 08		 mov	 ecx, DWORD PTR [eax]
  0005e	83 e9 24	 sub	 ecx, 36			; 00000024H
  00061	51		 push	 ecx
  00062	e8 00 00 00 00	 call	 ??$_Unfancy@UUSER_CONNECT_TIME@@@std@@YAPAUUSER_CONNECT_TIME@@PAU1@@Z ; std::_Unfancy<USER_CONNECT_TIME>
  00067	83 c4 04	 add	 esp, 4
  0006a	50		 push	 eax
  0006b	8b 4d f0	 mov	 ecx, DWORD PTR _this$[ebp]
  0006e	e8 00 00 00 00	 call	 ?_Getal@?$vector@UUSER_CONNECT_TIME@@V?$allocator@UUSER_CONNECT_TIME@@@std@@@std@@AAEAAV?$allocator@UUSER_CONNECT_TIME@@@2@XZ ; std::vector<USER_CONNECT_TIME,std::allocator<USER_CONNECT_TIME> >::_Getal
  00073	50		 push	 eax
  00074	e8 00 00 00 00	 call	 ??$destroy@UUSER_CONNECT_TIME@@@?$_Default_allocator_traits@V?$allocator@UUSER_CONNECT_TIME@@@std@@@std@@SAXAAV?$allocator@UUSER_CONNECT_TIME@@@1@QAUUSER_CONNECT_TIME@@@Z ; std::_Default_allocator_traits<std::allocator<USER_CONNECT_TIME> >::destroy<USER_CONNECT_TIME>
  00079	83 c4 08	 add	 esp, 8

; 1355 :         --_Mylast;

  0007c	8b 45 e4	 mov	 eax, DWORD PTR __Mylast$[ebp]
  0007f	8b 08		 mov	 ecx, DWORD PTR [eax]
  00081	83 e9 24	 sub	 ecx, 36			; 00000024H
  00084	8b 55 e4	 mov	 edx, DWORD PTR __Mylast$[ebp]
  00087	89 0a		 mov	 DWORD PTR [edx], ecx

; 1356 :         return iterator(_Whereptr, _STD addressof(_My_data));

  00089	8b 45 e8	 mov	 eax, DWORD PTR __My_data$[ebp]
  0008c	50		 push	 eax
  0008d	e8 00 00 00 00	 call	 ??$addressof@V?$_Vector_val@U?$_Simple_types@UUSER_CONNECT_TIME@@@std@@@std@@@std@@YAPAV?$_Vector_val@U?$_Simple_types@UUSER_CONNECT_TIME@@@std@@@0@AAV10@@Z ; std::addressof<std::_Vector_val<std::_Simple_types<USER_CONNECT_TIME> > >
  00092	83 c4 04	 add	 esp, 4
  00095	50		 push	 eax
  00096	8b 4d ec	 mov	 ecx, DWORD PTR __Whereptr$[ebp]
  00099	51		 push	 ecx
  0009a	8b 4d 08	 mov	 ecx, DWORD PTR ___$ReturnUdt$[ebp]
  0009d	e8 00 00 00 00	 call	 ??0?$_Vector_iterator@V?$_Vector_val@U?$_Simple_types@UUSER_CONNECT_TIME@@@std@@@std@@@std@@QAE@PAUUSER_CONNECT_TIME@@PBU_Container_base0@1@@Z
  000a2	8b 45 08	 mov	 eax, DWORD PTR ___$ReturnUdt$[ebp]

; 1357 :     }

  000a5	8b 4d f4	 mov	 ecx, DWORD PTR __$EHRec$[ebp]
  000a8	64 89 0d 00 00
	00 00		 mov	 DWORD PTR fs:0, ecx
  000af	59		 pop	 ecx
  000b0	5f		 pop	 edi
  000b1	5e		 pop	 esi
  000b2	5b		 pop	 ebx
  000b3	8b e5		 mov	 esp, ebp
  000b5	5d		 pop	 ebp
  000b6	c2 08 00	 ret	 8
  000b9	cc		 int	 3
  000ba	cc		 int	 3
  000bb	cc		 int	 3
  000bc	cc		 int	 3
  000bd	cc		 int	 3
_TEXT	ENDS
;	COMDAT text$x
text$x	SEGMENT
__ehhandler$?erase@?$vector@UUSER_CONNECT_TIME@@V?$allocator@UUSER_CONNECT_TIME@@@std@@@std@@QAE?AV?$_Vector_iterator@V?$_Vector_val@U?$_Simple_types@UUSER_CONNECT_TIME@@@std@@@std@@@2@V?$_Vector_const_iterator@V?$_Vector_val@U?$_Simple_types@UUSER_CONNECT_TIME@@@std@@@std@@@2@@Z:
  00000	90		 npad	 1
  00001	90		 npad	 1
  00002	8b 54 24 08	 mov	 edx, DWORD PTR [esp+8]
  00006	8d 42 0c	 lea	 eax, DWORD PTR [edx+12]
  00009	8b 4a a0	 mov	 ecx, DWORD PTR [edx-96]
  0000c	33 c8		 xor	 ecx, eax
  0000e	e8 00 00 00 00	 call	 @__security_check_cookie@4
  00013	b8 00 00 00 00	 mov	 eax, OFFSET __ehfuncinfo$?erase@?$vector@UUSER_CONNECT_TIME@@V?$allocator@UUSER_CONNECT_TIME@@@std@@@std@@QAE?AV?$_Vector_iterator@V?$_Vector_val@U?$_Simple_types@UUSER_CONNECT_TIME@@@std@@@std@@@2@V?$_Vector_const_iterator@V?$_Vector_val@U?$_Simple_types@UUSER_CONNECT_TIME@@@std@@@std@@@2@@Z
  00018	e9 00 00 00 00	 jmp	 ___CxxFrameHandler3
text$x	ENDS
?erase@?$vector@UUSER_CONNECT_TIME@@V?$allocator@UUSER_CONNECT_TIME@@@std@@@std@@QAE?AV?$_Vector_iterator@V?$_Vector_val@U?$_Simple_types@UUSER_CONNECT_TIME@@@std@@@std@@@2@V?$_Vector_const_iterator@V?$_Vector_val@U?$_Simple_types@UUSER_CONNECT_TIME@@@std@@@std@@@2@@Z ENDP ; std::vector<USER_CONNECT_TIME,std::allocator<USER_CONNECT_TIME> >::erase
; Function compile flags: /Odtp /ZI
; File C:\Program Files (x86)\Microsoft Visual Studio\2019\Community\VC\Tools\MSVC\14.27.29110\include\vector
;	COMDAT ?push_back@?$vector@UUSER_CONNECT_TIME@@V?$allocator@UUSER_CONNECT_TIME@@@std@@@std@@QAEXABUUSER_CONNECT_TIME@@@Z
_TEXT	SEGMENT
_this$ = -4						; size = 4
__Val$ = 8						; size = 4
?push_back@?$vector@UUSER_CONNECT_TIME@@V?$allocator@UUSER_CONNECT_TIME@@@std@@@std@@QAEXABUUSER_CONNECT_TIME@@@Z PROC ; std::vector<USER_CONNECT_TIME,std::allocator<USER_CONNECT_TIME> >::push_back, COMDAT
; _this$ = ecx

; 716  :     void push_back(const _Ty& _Val) { // insert element at end, provide strong guarantee

  00000	55		 push	 ebp
  00001	8b ec		 mov	 ebp, esp
  00003	83 ec 44	 sub	 esp, 68			; 00000044H
  00006	53		 push	 ebx
  00007	56		 push	 esi
  00008	57		 push	 edi
  00009	89 4d fc	 mov	 DWORD PTR _this$[ebp], ecx

; 717  :         emplace_back(_Val);

  0000c	8b 45 08	 mov	 eax, DWORD PTR __Val$[ebp]
  0000f	50		 push	 eax
  00010	8b 4d fc	 mov	 ecx, DWORD PTR _this$[ebp]
  00013	e8 00 00 00 00	 call	 ??$emplace_back@ABUUSER_CONNECT_TIME@@@?$vector@UUSER_CONNECT_TIME@@V?$allocator@UUSER_CONNECT_TIME@@@std@@@std@@QAE@ABUUSER_CONNECT_TIME@@@Z ; std::vector<USER_CONNECT_TIME,std::allocator<USER_CONNECT_TIME> >::emplace_back<USER_CONNECT_TIME const &>

; 718  :     }

  00018	5f		 pop	 edi
  00019	5e		 pop	 esi
  0001a	5b		 pop	 ebx
  0001b	8b e5		 mov	 esp, ebp
  0001d	5d		 pop	 ebp
  0001e	c2 04 00	 ret	 4
?push_back@?$vector@UUSER_CONNECT_TIME@@V?$allocator@UUSER_CONNECT_TIME@@@std@@@std@@QAEXABUUSER_CONNECT_TIME@@@Z ENDP ; std::vector<USER_CONNECT_TIME,std::allocator<USER_CONNECT_TIME> >::push_back
_TEXT	ENDS
; Function compile flags: /Odtp /ZI
; File C:\Program Files (x86)\Microsoft Visual Studio\2019\Community\VC\Tools\MSVC\14.27.29110\include\vector
;	COMDAT ??1?$vector@UUSER_CONNECT_TIME@@V?$allocator@UUSER_CONNECT_TIME@@@std@@@std@@QAE@XZ
_TEXT	SEGMENT
_this$ = -4						; size = 4
??1?$vector@UUSER_CONNECT_TIME@@V?$allocator@UUSER_CONNECT_TIME@@@std@@@std@@QAE@XZ PROC ; std::vector<USER_CONNECT_TIME,std::allocator<USER_CONNECT_TIME> >::~vector<USER_CONNECT_TIME,std::allocator<USER_CONNECT_TIME> >, COMDAT
; _this$ = ecx

; 672  :     ~vector() noexcept {

  00000	55		 push	 ebp
  00001	8b ec		 mov	 ebp, esp
  00003	83 ec 44	 sub	 esp, 68			; 00000044H
  00006	53		 push	 ebx
  00007	56		 push	 esi
  00008	57		 push	 edi
  00009	89 4d fc	 mov	 DWORD PTR _this$[ebp], ecx

; 673  :         _Tidy();

  0000c	8b 4d fc	 mov	 ecx, DWORD PTR _this$[ebp]
  0000f	e8 00 00 00 00	 call	 ?_Tidy@?$vector@UUSER_CONNECT_TIME@@V?$allocator@UUSER_CONNECT_TIME@@@std@@@std@@AAEXXZ ; std::vector<USER_CONNECT_TIME,std::allocator<USER_CONNECT_TIME> >::_Tidy

; 674  : #if _ITERATOR_DEBUG_LEVEL != 0
; 675  :         auto&& _Alproxy = _GET_PROXY_ALLOCATOR(_Alty, _Getal());
; 676  :         _Delete_plain_internal(_Alproxy, _STD exchange(_Mypair._Myval2._Myproxy, nullptr));
; 677  : #endif // _ITERATOR_DEBUG_LEVEL != 0
; 678  :     }

  00014	5f		 pop	 edi
  00015	5e		 pop	 esi
  00016	5b		 pop	 ebx
  00017	8b e5		 mov	 esp, ebp
  00019	5d		 pop	 ebp
  0001a	c3		 ret	 0
??1?$vector@UUSER_CONNECT_TIME@@V?$allocator@UUSER_CONNECT_TIME@@@std@@@std@@QAE@XZ ENDP ; std::vector<USER_CONNECT_TIME,std::allocator<USER_CONNECT_TIME> >::~vector<USER_CONNECT_TIME,std::allocator<USER_CONNECT_TIME> >
_TEXT	ENDS
; Function compile flags: /Odtp /ZI
; File C:\Program Files (x86)\Microsoft Visual Studio\2019\Community\VC\Tools\MSVC\14.27.29110\include\vector
;	COMDAT ??0?$vector@UUSER_CONNECT_TIME@@V?$allocator@UUSER_CONNECT_TIME@@@std@@@std@@QAE@XZ
_TEXT	SEGMENT
$T1 = -70						; size = 1
$T2 = -69						; size = 1
_this$ = -4						; size = 4
??0?$vector@UUSER_CONNECT_TIME@@V?$allocator@UUSER_CONNECT_TIME@@@std@@@std@@QAE@XZ PROC ; std::vector<USER_CONNECT_TIME,std::allocator<USER_CONNECT_TIME> >::vector<USER_CONNECT_TIME,std::allocator<USER_CONNECT_TIME> >, COMDAT
; _this$ = ecx

; 445  :     vector() noexcept(is_nothrow_default_constructible_v<_Alty>) : _Mypair(_Zero_then_variadic_args_t{}) {

  00000	55		 push	 ebp
  00001	8b ec		 mov	 ebp, esp
  00003	83 ec 48	 sub	 esp, 72			; 00000048H
  00006	53		 push	 ebx
  00007	56		 push	 esi
  00008	57		 push	 edi
  00009	89 4d fc	 mov	 DWORD PTR _this$[ebp], ecx
  0000c	0f b6 45 bb	 movzx	 eax, BYTE PTR $T2[ebp]
  00010	50		 push	 eax
  00011	8b 4d fc	 mov	 ecx, DWORD PTR _this$[ebp]
  00014	e8 00 00 00 00	 call	 ??$?0$$V@?$_Compressed_pair@V?$allocator@UUSER_CONNECT_TIME@@@std@@V?$_Vector_val@U?$_Simple_types@UUSER_CONNECT_TIME@@@std@@@2@$00@std@@QAE@U_Zero_then_variadic_args_t@1@@Z ; std::_Compressed_pair<std::allocator<USER_CONNECT_TIME>,std::_Vector_val<std::_Simple_types<USER_CONNECT_TIME> >,1>::_Compressed_pair<std::allocator<USER_CONNECT_TIME>,std::_Vector_val<std::_Simple_types<USER_CONNECT_TIME> >,1><>

; 446  :         _Mypair._Myval2._Alloc_proxy(_GET_PROXY_ALLOCATOR(_Alty, _Getal()));

  00019	8d 45 ba	 lea	 eax, DWORD PTR $T1[ebp]
  0001c	50		 push	 eax
  0001d	8b 4d fc	 mov	 ecx, DWORD PTR _this$[ebp]
  00020	e8 00 00 00 00	 call	 ?_Alloc_proxy@_Container_base0@std@@QAEXABU_Fake_allocator@2@@Z ; std::_Container_base0::_Alloc_proxy

; 447  :     }

  00025	8b 45 fc	 mov	 eax, DWORD PTR _this$[ebp]
  00028	5f		 pop	 edi
  00029	5e		 pop	 esi
  0002a	5b		 pop	 ebx
  0002b	8b e5		 mov	 esp, ebp
  0002d	5d		 pop	 ebp
  0002e	c3		 ret	 0
??0?$vector@UUSER_CONNECT_TIME@@V?$allocator@UUSER_CONNECT_TIME@@@std@@@std@@QAE@XZ ENDP ; std::vector<USER_CONNECT_TIME,std::allocator<USER_CONNECT_TIME> >::vector<USER_CONNECT_TIME,std::allocator<USER_CONNECT_TIME> >
_TEXT	ENDS
; Function compile flags: /Odtp /ZI
; File C:\Program Files (x86)\Microsoft Visual Studio\2019\Community\VC\Tools\MSVC\14.27.29110\include\xmemory
;	COMDAT ?max_size@?$_Default_allocator_traits@V?$allocator@UUSER_CONNECT_TIME@@@std@@@std@@SAIABV?$allocator@UUSER_CONNECT_TIME@@@2@@Z
_TEXT	SEGMENT
___formal$ = 8						; size = 4
?max_size@?$_Default_allocator_traits@V?$allocator@UUSER_CONNECT_TIME@@@std@@@std@@SAIABV?$allocator@UUSER_CONNECT_TIME@@@2@@Z PROC ; std::_Default_allocator_traits<std::allocator<USER_CONNECT_TIME> >::max_size, COMDAT

; 702  :     _NODISCARD static size_type max_size(const _Alloc&) noexcept {

  00000	55		 push	 ebp
  00001	8b ec		 mov	 ebp, esp
  00003	83 ec 40	 sub	 esp, 64			; 00000040H
  00006	53		 push	 ebx
  00007	56		 push	 esi
  00008	57		 push	 edi

; 703  :         return static_cast<size_t>(-1) / sizeof(value_type);

  00009	b8 c7 71 1c 07	 mov	 eax, 119304647		; 071c71c7H

; 704  :     }

  0000e	5f		 pop	 edi
  0000f	5e		 pop	 esi
  00010	5b		 pop	 ebx
  00011	8b e5		 mov	 esp, ebp
  00013	5d		 pop	 ebp
  00014	c3		 ret	 0
?max_size@?$_Default_allocator_traits@V?$allocator@UUSER_CONNECT_TIME@@@std@@@std@@SAIABV?$allocator@UUSER_CONNECT_TIME@@@2@@Z ENDP ; std::_Default_allocator_traits<std::allocator<USER_CONNECT_TIME> >::max_size
_TEXT	ENDS
; Function compile flags: /Odtp /ZI
; File C:\Program Files (x86)\Microsoft Visual Studio\2019\Community\VC\Tools\MSVC\14.27.29110\include\xmemory
;	COMDAT ?allocate@?$allocator@UUSER_CONNECT_TIME@@@std@@QAEPAUUSER_CONNECT_TIME@@I@Z
_TEXT	SEGMENT
_this$ = -4						; size = 4
__Count$ = 8						; size = 4
?allocate@?$allocator@UUSER_CONNECT_TIME@@@std@@QAEPAUUSER_CONNECT_TIME@@I@Z PROC ; std::allocator<USER_CONNECT_TIME>::allocate, COMDAT
; _this$ = ecx

; 806  :     _NODISCARD __declspec(allocator) _Ty* allocate(_CRT_GUARDOVERFLOW const size_t _Count) {

  00000	55		 push	 ebp
  00001	8b ec		 mov	 ebp, esp
  00003	83 ec 44	 sub	 esp, 68			; 00000044H
  00006	53		 push	 ebx
  00007	56		 push	 esi
  00008	57		 push	 edi
  00009	89 4d fc	 mov	 DWORD PTR _this$[ebp], ecx

; 807  :         return static_cast<_Ty*>(_Allocate<_New_alignof<_Ty>>(_Get_size_of_n<sizeof(_Ty)>(_Count)));

  0000c	8b 45 08	 mov	 eax, DWORD PTR __Count$[ebp]
  0000f	50		 push	 eax
  00010	e8 00 00 00 00	 call	 ??$_Get_size_of_n@$0CE@@std@@YAII@Z ; std::_Get_size_of_n<36>
  00015	83 c4 04	 add	 esp, 4
  00018	50		 push	 eax
  00019	e8 00 00 00 00	 call	 ??$_Allocate@$07U_Default_allocate_traits@std@@$0A@@std@@YAPAXI@Z ; std::_Allocate<8,std::_Default_allocate_traits,0>
  0001e	83 c4 04	 add	 esp, 4

; 808  :     }

  00021	5f		 pop	 edi
  00022	5e		 pop	 esi
  00023	5b		 pop	 ebx
  00024	8b e5		 mov	 esp, ebp
  00026	5d		 pop	 ebp
  00027	c2 04 00	 ret	 4
?allocate@?$allocator@UUSER_CONNECT_TIME@@@std@@QAEPAUUSER_CONNECT_TIME@@I@Z ENDP ; std::allocator<USER_CONNECT_TIME>::allocate
_TEXT	ENDS
; Function compile flags: /Odtp /ZI
; File C:\Program Files (x86)\Microsoft Visual Studio\2019\Community\VC\Tools\MSVC\14.27.29110\include\xmemory
;	COMDAT ?deallocate@?$allocator@UUSER_CONNECT_TIME@@@std@@QAEXQAUUSER_CONNECT_TIME@@I@Z
_TEXT	SEGMENT
_this$ = -4						; size = 4
__Ptr$ = 8						; size = 4
__Count$ = 12						; size = 4
?deallocate@?$allocator@UUSER_CONNECT_TIME@@@std@@QAEXQAUUSER_CONNECT_TIME@@I@Z PROC ; std::allocator<USER_CONNECT_TIME>::deallocate, COMDAT
; _this$ = ecx

; 801  :     void deallocate(_Ty* const _Ptr, const size_t _Count) {

  00000	55		 push	 ebp
  00001	8b ec		 mov	 ebp, esp
  00003	83 ec 44	 sub	 esp, 68			; 00000044H
  00006	53		 push	 ebx
  00007	56		 push	 esi
  00008	57		 push	 edi
  00009	89 4d fc	 mov	 DWORD PTR _this$[ebp], ecx

; 802  :         // no overflow check on the following multiply; we assume _Allocate did that check
; 803  :         _Deallocate<_New_alignof<_Ty>>(_Ptr, sizeof(_Ty) * _Count);

  0000c	6b 45 0c 24	 imul	 eax, DWORD PTR __Count$[ebp], 36
  00010	50		 push	 eax
  00011	8b 4d 08	 mov	 ecx, DWORD PTR __Ptr$[ebp]
  00014	51		 push	 ecx
  00015	e8 00 00 00 00	 call	 ??$_Deallocate@$07$0A@@std@@YAXPAXI@Z ; std::_Deallocate<8,0>
  0001a	83 c4 08	 add	 esp, 8

; 804  :     }

  0001d	5f		 pop	 edi
  0001e	5e		 pop	 esi
  0001f	5b		 pop	 ebx
  00020	8b e5		 mov	 esp, ebp
  00022	5d		 pop	 ebp
  00023	c2 08 00	 ret	 8
?deallocate@?$allocator@UUSER_CONNECT_TIME@@@std@@QAEXQAUUSER_CONNECT_TIME@@I@Z ENDP ; std::allocator<USER_CONNECT_TIME>::deallocate
_TEXT	ENDS
; Function compile flags: /Odtp /ZI
; File C:\Program Files (x86)\Microsoft Visual Studio\2019\Community\VC\Tools\MSVC\14.27.29110\include\xmemory
;	COMDAT ??0?$allocator@UUSER_CONNECT_TIME@@@std@@QAE@XZ
_TEXT	SEGMENT
_this$ = -4						; size = 4
??0?$allocator@UUSER_CONNECT_TIME@@@std@@QAE@XZ PROC	; std::allocator<USER_CONNECT_TIME>::allocator<USER_CONNECT_TIME>, COMDAT
; _this$ = ecx

; 795  :     constexpr allocator() noexcept {}

  00000	55		 push	 ebp
  00001	8b ec		 mov	 ebp, esp
  00003	83 ec 44	 sub	 esp, 68			; 00000044H
  00006	53		 push	 ebx
  00007	56		 push	 esi
  00008	57		 push	 edi
  00009	89 4d fc	 mov	 DWORD PTR _this$[ebp], ecx
  0000c	8b 45 fc	 mov	 eax, DWORD PTR _this$[ebp]
  0000f	5f		 pop	 edi
  00010	5e		 pop	 esi
  00011	5b		 pop	 ebx
  00012	8b e5		 mov	 esp, ebp
  00014	5d		 pop	 ebp
  00015	c3		 ret	 0
??0?$allocator@UUSER_CONNECT_TIME@@@std@@QAE@XZ ENDP	; std::allocator<USER_CONNECT_TIME>::allocator<USER_CONNECT_TIME>
_TEXT	ENDS
; Function compile flags: /Odtp /ZI
; File C:\Program Files (x86)\Microsoft Visual Studio\2019\Community\VC\Tools\MSVC\14.27.29110\include\xmemory
;	COMDAT ??$_Allocate_manually_vector_aligned@U_Default_allocate_traits@std@@@std@@YAPAXI@Z
_TEXT	SEGMENT
__Ptr$ = -12						; size = 4
__Ptr_container$ = -8					; size = 4
__Block_size$ = -4					; size = 4
__Bytes$ = 8						; size = 4
??$_Allocate_manually_vector_aligned@U_Default_allocate_traits@std@@@std@@YAPAXI@Z PROC ; std::_Allocate_manually_vector_aligned<std::_Default_allocate_traits>, COMDAT

; 113  : __declspec(allocator) void* _Allocate_manually_vector_aligned(const size_t _Bytes) {

  00000	55		 push	 ebp
  00001	8b ec		 mov	 ebp, esp
  00003	83 ec 4c	 sub	 esp, 76			; 0000004cH
  00006	53		 push	 ebx
  00007	56		 push	 esi
  00008	57		 push	 edi

; 114  :     // allocate _Bytes manually aligned to at least _Big_allocation_alignment
; 115  :     const size_t _Block_size = _Non_user_size + _Bytes;

  00009	8b 45 08	 mov	 eax, DWORD PTR __Bytes$[ebp]
  0000c	83 c0 23	 add	 eax, 35			; 00000023H
  0000f	89 45 fc	 mov	 DWORD PTR __Block_size$[ebp], eax

; 116  :     if (_Block_size <= _Bytes) {

  00012	8b 45 fc	 mov	 eax, DWORD PTR __Block_size$[ebp]
  00015	3b 45 08	 cmp	 eax, DWORD PTR __Bytes$[ebp]
  00018	77 05		 ja	 SHORT $LN8@Allocate_m

; 117  :         _Throw_bad_array_new_length(); // add overflow

  0001a	e8 00 00 00 00	 call	 ?_Throw_bad_array_new_length@std@@YAXXZ ; std::_Throw_bad_array_new_length
$LN8@Allocate_m:

; 118  :     }
; 119  : 
; 120  :     const uintptr_t _Ptr_container = reinterpret_cast<uintptr_t>(_Traits::_Allocate(_Block_size));

  0001f	8b 45 fc	 mov	 eax, DWORD PTR __Block_size$[ebp]
  00022	50		 push	 eax
  00023	e8 00 00 00 00	 call	 ?_Allocate@_Default_allocate_traits@std@@SAPAXI@Z ; std::_Default_allocate_traits::_Allocate
  00028	83 c4 04	 add	 esp, 4
  0002b	89 45 f8	 mov	 DWORD PTR __Ptr_container$[ebp], eax
$LN4@Allocate_m:

; 121  :     _STL_VERIFY(_Ptr_container != 0, "invalid argument"); // validate even in release since we're doing p[-1]

  0002e	83 7d f8 00	 cmp	 DWORD PTR __Ptr_container$[ebp], 0
  00032	74 02		 je	 SHORT $LN7@Allocate_m
  00034	eb 09		 jmp	 SHORT $LN2@Allocate_m
$LN7@Allocate_m:
  00036	e8 00 00 00 00	 call	 __invalid_parameter_noinfo_noreturn
  0003b	33 c0		 xor	 eax, eax
  0003d	75 f7		 jne	 SHORT $LN7@Allocate_m
$LN2@Allocate_m:
  0003f	33 c0		 xor	 eax, eax
  00041	75 eb		 jne	 SHORT $LN4@Allocate_m

; 122  :     void* const _Ptr = reinterpret_cast<void*>((_Ptr_container + _Non_user_size) & ~(_Big_allocation_alignment - 1));

  00043	8b 45 f8	 mov	 eax, DWORD PTR __Ptr_container$[ebp]
  00046	83 c0 23	 add	 eax, 35			; 00000023H
  00049	83 e0 e0	 and	 eax, -32		; ffffffe0H
  0004c	89 45 f4	 mov	 DWORD PTR __Ptr$[ebp], eax

; 123  :     static_cast<uintptr_t*>(_Ptr)[-1] = _Ptr_container;

  0004f	b8 04 00 00 00	 mov	 eax, 4
  00054	6b c8 ff	 imul	 ecx, eax, -1
  00057	8b 55 f4	 mov	 edx, DWORD PTR __Ptr$[ebp]
  0005a	8b 45 f8	 mov	 eax, DWORD PTR __Ptr_container$[ebp]
  0005d	89 04 0a	 mov	 DWORD PTR [edx+ecx], eax

; 124  : 
; 125  : #ifdef _DEBUG
; 126  :     static_cast<uintptr_t*>(_Ptr)[-2] = _Big_allocation_sentinel;
; 127  : #endif // _DEBUG
; 128  :     return _Ptr;

  00060	8b 45 f4	 mov	 eax, DWORD PTR __Ptr$[ebp]
$LN11@Allocate_m:

; 129  : }

  00063	5f		 pop	 edi
  00064	5e		 pop	 esi
  00065	5b		 pop	 ebx
  00066	8b e5		 mov	 esp, ebp
  00068	5d		 pop	 ebp
  00069	c3		 ret	 0
??$_Allocate_manually_vector_aligned@U_Default_allocate_traits@std@@@std@@YAPAXI@Z ENDP ; std::_Allocate_manually_vector_aligned<std::_Default_allocate_traits>
_TEXT	ENDS
; Function compile flags: /Odtp /ZI
; File C:\Program Files (x86)\Microsoft Visual Studio\2019\Community\VC\Tools\MSVC\14.27.29110\include\xmemory
;	COMDAT ??$_Allocate@$07U_Default_allocate_traits@std@@$0A@@std@@YAPAXI@Z
_TEXT	SEGMENT
__Bytes$ = 8						; size = 4
??$_Allocate@$07U_Default_allocate_traits@std@@$0A@@std@@YAPAXI@Z PROC ; std::_Allocate<8,std::_Default_allocate_traits,0>, COMDAT

; 197  : __declspec(allocator) void* _Allocate(const size_t _Bytes) {

  00000	55		 push	 ebp
  00001	8b ec		 mov	 ebp, esp
  00003	83 ec 40	 sub	 esp, 64			; 00000040H
  00006	53		 push	 ebx
  00007	56		 push	 esi
  00008	57		 push	 edi

; 198  :     // allocate _Bytes when !_HAS_ALIGNED_NEW || _Align <= __STDCPP_DEFAULT_NEW_ALIGNMENT__
; 199  : #if defined(_M_IX86) || defined(_M_X64)
; 200  :     if (_Bytes >= _Big_allocation_threshold) { // boost the alignment of big allocations to help autovectorization

  00009	81 7d 08 00 10
	00 00		 cmp	 DWORD PTR __Bytes$[ebp], 4096 ; 00001000H
  00010	72 0e		 jb	 SHORT $LN2@Allocate

; 201  :         return _Allocate_manually_vector_aligned<_Traits>(_Bytes);

  00012	8b 45 08	 mov	 eax, DWORD PTR __Bytes$[ebp]
  00015	50		 push	 eax
  00016	e8 00 00 00 00	 call	 ??$_Allocate_manually_vector_aligned@U_Default_allocate_traits@std@@@std@@YAPAXI@Z ; std::_Allocate_manually_vector_aligned<std::_Default_allocate_traits>
  0001b	83 c4 04	 add	 esp, 4
  0001e	eb 16		 jmp	 SHORT $LN1@Allocate
$LN2@Allocate:

; 202  :     }
; 203  : #endif // defined(_M_IX86) || defined(_M_X64)
; 204  : 
; 205  :     if (_Bytes != 0) {

  00020	83 7d 08 00	 cmp	 DWORD PTR __Bytes$[ebp], 0
  00024	74 0e		 je	 SHORT $LN3@Allocate

; 206  :         return _Traits::_Allocate(_Bytes);

  00026	8b 45 08	 mov	 eax, DWORD PTR __Bytes$[ebp]
  00029	50		 push	 eax
  0002a	e8 00 00 00 00	 call	 ?_Allocate@_Default_allocate_traits@std@@SAPAXI@Z ; std::_Default_allocate_traits::_Allocate
  0002f	83 c4 04	 add	 esp, 4
  00032	eb 02		 jmp	 SHORT $LN1@Allocate
$LN3@Allocate:

; 207  :     }
; 208  : 
; 209  :     return nullptr;

  00034	33 c0		 xor	 eax, eax
$LN1@Allocate:

; 210  : }

  00036	5f		 pop	 edi
  00037	5e		 pop	 esi
  00038	5b		 pop	 ebx
  00039	8b e5		 mov	 esp, ebp
  0003b	5d		 pop	 ebp
  0003c	c3		 ret	 0
??$_Allocate@$07U_Default_allocate_traits@std@@$0A@@std@@YAPAXI@Z ENDP ; std::_Allocate<8,std::_Default_allocate_traits,0>
_TEXT	ENDS
; Function compile flags: /Odtp /ZI
; File C:\Program Files (x86)\Microsoft Visual Studio\2019\Community\VC\Tools\MSVC\14.27.29110\include\xmemory
;	COMDAT ??$_Deallocate@$07$0A@@std@@YAXPAXI@Z
_TEXT	SEGMENT
__$EHRec$ = -12						; size = 12
__Ptr$ = 8						; size = 4
__Bytes$ = 12						; size = 4
??$_Deallocate@$07$0A@@std@@YAXPAXI@Z PROC		; std::_Deallocate<8,0>, COMDAT

; 213  : void _Deallocate(void* _Ptr, size_t _Bytes) noexcept {

  00000	55		 push	 ebp
  00001	8b ec		 mov	 ebp, esp
  00003	6a ff		 push	 -1
  00005	68 00 00 00 00	 push	 __ehhandler$??$_Deallocate@$07$0A@@std@@YAXPAXI@Z
  0000a	64 a1 00 00 00
	00		 mov	 eax, DWORD PTR fs:0
  00010	50		 push	 eax
  00011	83 ec 40	 sub	 esp, 64			; 00000040H
  00014	53		 push	 ebx
  00015	56		 push	 esi
  00016	57		 push	 edi
  00017	a1 00 00 00 00	 mov	 eax, DWORD PTR ___security_cookie
  0001c	33 c5		 xor	 eax, ebp
  0001e	50		 push	 eax
  0001f	8d 45 f4	 lea	 eax, DWORD PTR __$EHRec$[ebp]
  00022	64 a3 00 00 00
	00		 mov	 DWORD PTR fs:0, eax

; 214  :     // deallocate storage allocated by _Allocate when !_HAS_ALIGNED_NEW || _Align <= __STDCPP_DEFAULT_NEW_ALIGNMENT__
; 215  : #if defined(_M_IX86) || defined(_M_X64)
; 216  :     if (_Bytes >= _Big_allocation_threshold) { // boost the alignment of big allocations to help autovectorization

  00028	81 7d 0c 00 10
	00 00		 cmp	 DWORD PTR __Bytes$[ebp], 4096 ; 00001000H
  0002f	72 10		 jb	 SHORT $LN2@Deallocate

; 217  :         _Adjust_manually_vector_aligned(_Ptr, _Bytes);

  00031	8d 45 0c	 lea	 eax, DWORD PTR __Bytes$[ebp]
  00034	50		 push	 eax
  00035	8d 4d 08	 lea	 ecx, DWORD PTR __Ptr$[ebp]
  00038	51		 push	 ecx
  00039	e8 00 00 00 00	 call	 ?_Adjust_manually_vector_aligned@std@@YAXAAPAXAAI@Z ; std::_Adjust_manually_vector_aligned
  0003e	83 c4 08	 add	 esp, 8
$LN2@Deallocate:

; 218  :     }
; 219  : #endif // defined(_M_IX86) || defined(_M_X64)
; 220  : 
; 221  :     ::operator delete(_Ptr, _Bytes);

  00041	8b 45 0c	 mov	 eax, DWORD PTR __Bytes$[ebp]
  00044	50		 push	 eax
  00045	8b 4d 08	 mov	 ecx, DWORD PTR __Ptr$[ebp]
  00048	51		 push	 ecx
  00049	e8 00 00 00 00	 call	 ??3@YAXPAXI@Z		; operator delete
  0004e	83 c4 08	 add	 esp, 8

; 222  : }

  00051	8b 4d f4	 mov	 ecx, DWORD PTR __$EHRec$[ebp]
  00054	64 89 0d 00 00
	00 00		 mov	 DWORD PTR fs:0, ecx
  0005b	59		 pop	 ecx
  0005c	5f		 pop	 edi
  0005d	5e		 pop	 esi
  0005e	5b		 pop	 ebx
  0005f	8b e5		 mov	 esp, ebp
  00061	5d		 pop	 ebp
  00062	c3		 ret	 0
  00063	cc		 int	 3
  00064	cc		 int	 3
  00065	cc		 int	 3
  00066	cc		 int	 3
  00067	cc		 int	 3
_TEXT	ENDS
;	COMDAT text$x
text$x	SEGMENT
__ehhandler$??$_Deallocate@$07$0A@@std@@YAXPAXI@Z:
  00000	90		 npad	 1
  00001	90		 npad	 1
  00002	8b 54 24 08	 mov	 edx, DWORD PTR [esp+8]
  00006	8d 42 0c	 lea	 eax, DWORD PTR [edx+12]
  00009	8b 4a b0	 mov	 ecx, DWORD PTR [edx-80]
  0000c	33 c8		 xor	 ecx, eax
  0000e	e8 00 00 00 00	 call	 @__security_check_cookie@4
  00013	b8 00 00 00 00	 mov	 eax, OFFSET __ehfuncinfo$??$_Deallocate@$07$0A@@std@@YAXPAXI@Z
  00018	e9 00 00 00 00	 jmp	 ___CxxFrameHandler3
text$x	ENDS
??$_Deallocate@$07$0A@@std@@YAXPAXI@Z ENDP		; std::_Deallocate<8,0>
; Function compile flags: /Odtp /ZI
; File C:\Program Files (x86)\Microsoft Visual Studio\2019\Community\VC\Tools\MSVC\14.27.29110\include\utility
;	COMDAT ??$min@I@std@@YAABIABI0@Z
_TEXT	SEGMENT
tv65 = -72						; size = 4
$T1 = -68						; size = 4
__Left$ = 8						; size = 4
__Right$ = 12						; size = 4
??$min@I@std@@YAABIABI0@Z PROC				; std::min<unsigned int>, COMDAT

; 67   :     const _Ty& _Left, const _Ty& _Right) noexcept(noexcept(_Right < _Left)) /* strengthened */ {

  00000	55		 push	 ebp
  00001	8b ec		 mov	 ebp, esp
  00003	83 ec 48	 sub	 esp, 72			; 00000048H
  00006	53		 push	 ebx
  00007	56		 push	 esi
  00008	57		 push	 edi

; 68   :     // return smaller of _Left and _Right
; 69   :     return _Right < _Left ? _Right : _Left;

  00009	8b 45 0c	 mov	 eax, DWORD PTR __Right$[ebp]
  0000c	8b 4d 08	 mov	 ecx, DWORD PTR __Left$[ebp]
  0000f	8b 10		 mov	 edx, DWORD PTR [eax]
  00011	3b 11		 cmp	 edx, DWORD PTR [ecx]
  00013	73 08		 jae	 SHORT $LN3@min
  00015	8b 45 0c	 mov	 eax, DWORD PTR __Right$[ebp]
  00018	89 45 b8	 mov	 DWORD PTR tv65[ebp], eax
  0001b	eb 06		 jmp	 SHORT $LN4@min
$LN3@min:
  0001d	8b 4d 08	 mov	 ecx, DWORD PTR __Left$[ebp]
  00020	89 4d b8	 mov	 DWORD PTR tv65[ebp], ecx
$LN4@min:
  00023	8b 55 b8	 mov	 edx, DWORD PTR tv65[ebp]
  00026	89 55 bc	 mov	 DWORD PTR $T1[ebp], edx
  00029	8b 45 bc	 mov	 eax, DWORD PTR $T1[ebp]

; 70   : }

  0002c	5f		 pop	 edi
  0002d	5e		 pop	 esi
  0002e	5b		 pop	 ebx
  0002f	8b e5		 mov	 esp, ebp
  00031	5d		 pop	 ebp
  00032	c3		 ret	 0
??$min@I@std@@YAABIABI0@Z ENDP				; std::min<unsigned int>
_TEXT	ENDS
; Function compile flags: /Odtp /ZI
; File C:\Program Files (x86)\Microsoft Visual Studio\2019\Community\VC\Tools\MSVC\14.27.29110\include\xmemory
;	COMDAT ?_Adopt@_Iterator_base0@std@@QAEXPBX@Z
_TEXT	SEGMENT
_this$ = -4						; size = 4
___formal$ = 8						; size = 4
?_Adopt@_Iterator_base0@std@@QAEXPBX@Z PROC		; std::_Iterator_base0::_Adopt, COMDAT
; _this$ = ecx

; 1072 :     void _Adopt(const void*) noexcept {}

  00000	55		 push	 ebp
  00001	8b ec		 mov	 ebp, esp
  00003	83 ec 44	 sub	 esp, 68			; 00000044H
  00006	53		 push	 ebx
  00007	56		 push	 esi
  00008	57		 push	 edi
  00009	89 4d fc	 mov	 DWORD PTR _this$[ebp], ecx
  0000c	5f		 pop	 edi
  0000d	5e		 pop	 esi
  0000e	5b		 pop	 ebx
  0000f	8b e5		 mov	 esp, ebp
  00011	5d		 pop	 ebp
  00012	c2 04 00	 ret	 4
?_Adopt@_Iterator_base0@std@@QAEXPBX@Z ENDP		; std::_Iterator_base0::_Adopt
_TEXT	ENDS
; Function compile flags: /Odtp /ZI
; File C:\Program Files (x86)\Microsoft Visual Studio\2019\Community\VC\Tools\MSVC\14.27.29110\include\xmemory
;	COMDAT ?_Alloc_proxy@_Container_base0@std@@QAEXABU_Fake_allocator@2@@Z
_TEXT	SEGMENT
_this$ = -4						; size = 4
___formal$ = 8						; size = 4
?_Alloc_proxy@_Container_base0@std@@QAEXABU_Fake_allocator@2@@Z PROC ; std::_Container_base0::_Alloc_proxy, COMDAT
; _this$ = ecx

; 1067 :     void _Alloc_proxy(const _Fake_allocator&) noexcept {}

  00000	55		 push	 ebp
  00001	8b ec		 mov	 ebp, esp
  00003	83 ec 44	 sub	 esp, 68			; 00000044H
  00006	53		 push	 ebx
  00007	56		 push	 esi
  00008	57		 push	 edi
  00009	89 4d fc	 mov	 DWORD PTR _this$[ebp], ecx
  0000c	5f		 pop	 edi
  0000d	5e		 pop	 esi
  0000e	5b		 pop	 ebx
  0000f	8b e5		 mov	 esp, ebp
  00011	5d		 pop	 ebp
  00012	c2 04 00	 ret	 4
?_Alloc_proxy@_Container_base0@std@@QAEXABU_Fake_allocator@2@@Z ENDP ; std::_Container_base0::_Alloc_proxy
_TEXT	ENDS
; Function compile flags: /Odtp /ZI
; File C:\Program Files (x86)\Microsoft Visual Studio\2019\Community\VC\Tools\MSVC\14.27.29110\include\xmemory
;	COMDAT ?_Orphan_all@_Container_base0@std@@QAEXXZ
_TEXT	SEGMENT
_this$ = -4						; size = 4
?_Orphan_all@_Container_base0@std@@QAEXXZ PROC		; std::_Container_base0::_Orphan_all, COMDAT
; _this$ = ecx

; 1065 :     void _Orphan_all() noexcept {}

  00000	55		 push	 ebp
  00001	8b ec		 mov	 ebp, esp
  00003	83 ec 44	 sub	 esp, 68			; 00000044H
  00006	53		 push	 ebx
  00007	56		 push	 esi
  00008	57		 push	 edi
  00009	89 4d fc	 mov	 DWORD PTR _this$[ebp], ecx
  0000c	5f		 pop	 edi
  0000d	5e		 pop	 esi
  0000e	5b		 pop	 ebx
  0000f	8b e5		 mov	 esp, ebp
  00011	5d		 pop	 ebp
  00012	c3		 ret	 0
?_Orphan_all@_Container_base0@std@@QAEXXZ ENDP		; std::_Container_base0::_Orphan_all
_TEXT	ENDS
; Function compile flags: /Odtp /ZI
; File C:\Program Files (x86)\Microsoft Visual Studio\2019\Community\VC\Tools\MSVC\14.27.29110\include\xmemory
;	COMDAT ?_Adjust_manually_vector_aligned@std@@YAXAAPAXAAI@Z
_TEXT	SEGMENT
__Back_shift$ = -16					; size = 4
__Min_back_shift$ = -12					; size = 4
__Ptr_container$ = -8					; size = 4
__Ptr_user$ = -4					; size = 4
__Ptr$ = 8						; size = 4
__Bytes$ = 12						; size = 4
?_Adjust_manually_vector_aligned@std@@YAXAAPAXAAI@Z PROC ; std::_Adjust_manually_vector_aligned, COMDAT

; 132  : inline void _Adjust_manually_vector_aligned(void*& _Ptr, size_t& _Bytes) {

  00000	55		 push	 ebp
  00001	8b ec		 mov	 ebp, esp
  00003	83 ec 50	 sub	 esp, 80			; 00000050H
  00006	53		 push	 ebx
  00007	56		 push	 esi
  00008	57		 push	 edi

; 133  :     // adjust parameters from _Allocate_manually_vector_aligned to pass to operator delete
; 134  :     _Bytes += _Non_user_size;

  00009	8b 45 0c	 mov	 eax, DWORD PTR __Bytes$[ebp]
  0000c	8b 08		 mov	 ecx, DWORD PTR [eax]
  0000e	83 c1 23	 add	 ecx, 35			; 00000023H
  00011	8b 55 0c	 mov	 edx, DWORD PTR __Bytes$[ebp]
  00014	89 0a		 mov	 DWORD PTR [edx], ecx

; 135  : 
; 136  :     const uintptr_t* const _Ptr_user = reinterpret_cast<uintptr_t*>(_Ptr);

  00016	8b 45 08	 mov	 eax, DWORD PTR __Ptr$[ebp]
  00019	8b 08		 mov	 ecx, DWORD PTR [eax]
  0001b	89 4d fc	 mov	 DWORD PTR __Ptr_user$[ebp], ecx

; 137  :     const uintptr_t _Ptr_container   = _Ptr_user[-1];

  0001e	b8 04 00 00 00	 mov	 eax, 4
  00023	6b c8 ff	 imul	 ecx, eax, -1
  00026	8b 55 fc	 mov	 edx, DWORD PTR __Ptr_user$[ebp]
  00029	8b 04 0a	 mov	 eax, DWORD PTR [edx+ecx]
  0002c	89 45 f8	 mov	 DWORD PTR __Ptr_container$[ebp], eax

; 138  : 
; 139  :     // If the following asserts, it likely means that we are performing
; 140  :     // an aligned delete on memory coming from an unaligned allocation.
; 141  :     _STL_ASSERT(_Ptr_user[-2] == _Big_allocation_sentinel, "invalid argument");
; 142  : 
; 143  :     // Extra paranoia on aligned allocation/deallocation; ensure _Ptr_container is
; 144  :     // in range [_Min_back_shift, _Non_user_size]
; 145  : #ifdef _DEBUG
; 146  :     constexpr uintptr_t _Min_back_shift = 2 * sizeof(void*);
; 147  : #else // ^^^ _DEBUG ^^^ // vvv !_DEBUG vvv
; 148  :     constexpr uintptr_t _Min_back_shift = sizeof(void*);

  0002f	c7 45 f4 04 00
	00 00		 mov	 DWORD PTR __Min_back_shift$[ebp], 4

; 149  : #endif // _DEBUG
; 150  :     const uintptr_t _Back_shift = reinterpret_cast<uintptr_t>(_Ptr) - _Ptr_container;

  00036	8b 45 08	 mov	 eax, DWORD PTR __Ptr$[ebp]
  00039	8b 08		 mov	 ecx, DWORD PTR [eax]
  0003b	2b 4d f8	 sub	 ecx, DWORD PTR __Ptr_container$[ebp]
  0003e	89 4d f0	 mov	 DWORD PTR __Back_shift$[ebp], ecx
$LN4@Adjust_man:

; 151  :     _STL_VERIFY(_Back_shift >= _Min_back_shift && _Back_shift <= _Non_user_size, "invalid argument");

  00041	83 7d f0 04	 cmp	 DWORD PTR __Back_shift$[ebp], 4
  00045	72 08		 jb	 SHORT $LN7@Adjust_man
  00047	83 7d f0 23	 cmp	 DWORD PTR __Back_shift$[ebp], 35 ; 00000023H
  0004b	77 02		 ja	 SHORT $LN7@Adjust_man
  0004d	eb 09		 jmp	 SHORT $LN2@Adjust_man
$LN7@Adjust_man:
  0004f	e8 00 00 00 00	 call	 __invalid_parameter_noinfo_noreturn
  00054	33 c0		 xor	 eax, eax
  00056	75 f7		 jne	 SHORT $LN7@Adjust_man
$LN2@Adjust_man:
  00058	33 c0		 xor	 eax, eax
  0005a	75 e5		 jne	 SHORT $LN4@Adjust_man

; 152  :     _Ptr = reinterpret_cast<void*>(_Ptr_container);

  0005c	8b 45 08	 mov	 eax, DWORD PTR __Ptr$[ebp]
  0005f	8b 4d f8	 mov	 ecx, DWORD PTR __Ptr_container$[ebp]
  00062	89 08		 mov	 DWORD PTR [eax], ecx
$LN10@Adjust_man:

; 153  : }

  00064	5f		 pop	 edi
  00065	5e		 pop	 esi
  00066	5b		 pop	 ebx
  00067	8b e5		 mov	 esp, ebp
  00069	5d		 pop	 ebp
  0006a	c3		 ret	 0
?_Adjust_manually_vector_aligned@std@@YAXAAPAXAAI@Z ENDP ; std::_Adjust_manually_vector_aligned
_TEXT	ENDS
; Function compile flags: /Odtp /ZI
; File C:\Program Files (x86)\Microsoft Visual Studio\2019\Community\VC\Tools\MSVC\14.27.29110\include\xmemory
;	COMDAT ?_Allocate@_Default_allocate_traits@std@@SAPAXI@Z
_TEXT	SEGMENT
__Bytes$ = 8						; size = 4
?_Allocate@_Default_allocate_traits@std@@SAPAXI@Z PROC	; std::_Default_allocate_traits::_Allocate, COMDAT

; 76   :     __declspec(allocator) static void* _Allocate(const size_t _Bytes) {

  00000	55		 push	 ebp
  00001	8b ec		 mov	 ebp, esp
  00003	83 ec 40	 sub	 esp, 64			; 00000040H
  00006	53		 push	 ebx
  00007	56		 push	 esi
  00008	57		 push	 edi

; 77   :         return ::operator new(_Bytes);

  00009	8b 45 08	 mov	 eax, DWORD PTR __Bytes$[ebp]
  0000c	50		 push	 eax
  0000d	e8 00 00 00 00	 call	 ??2@YAPAXI@Z		; operator new
  00012	83 c4 04	 add	 esp, 4

; 78   :     }

  00015	5f		 pop	 edi
  00016	5e		 pop	 esi
  00017	5b		 pop	 ebx
  00018	8b e5		 mov	 esp, ebp
  0001a	5d		 pop	 ebp
  0001b	c3		 ret	 0
?_Allocate@_Default_allocate_traits@std@@SAPAXI@Z ENDP	; std::_Default_allocate_traits::_Allocate
_TEXT	ENDS
; Function compile flags: /Odtp /ZI
; File C:\Program Files (x86)\Microsoft Visual Studio\2019\Community\VC\Tools\MSVC\14.27.29110\include\limits
;	COMDAT ?max@?$numeric_limits@H@std@@SAHXZ
_TEXT	SEGMENT
?max@?$numeric_limits@H@std@@SAHXZ PROC			; std::numeric_limits<int>::max, COMDAT

; 554  :     _NODISCARD static constexpr int(max)() noexcept {

  00000	55		 push	 ebp
  00001	8b ec		 mov	 ebp, esp
  00003	83 ec 40	 sub	 esp, 64			; 00000040H
  00006	53		 push	 ebx
  00007	56		 push	 esi
  00008	57		 push	 edi

; 555  :         return INT_MAX;

  00009	b8 ff ff ff 7f	 mov	 eax, 2147483647		; 7fffffffH

; 556  :     }

  0000e	5f		 pop	 edi
  0000f	5e		 pop	 esi
  00010	5b		 pop	 ebx
  00011	8b e5		 mov	 esp, ebp
  00013	5d		 pop	 ebp
  00014	c3		 ret	 0
?max@?$numeric_limits@H@std@@SAHXZ ENDP			; std::numeric_limits<int>::max
_TEXT	ENDS
; Function compile flags: /Odtp /ZI
; File C:\Program Files (x86)\Microsoft Visual Studio\2019\Community\VC\Tools\MSVC\14.27.29110\include\exception
;	COMDAT ?_Throw_bad_array_new_length@std@@YAXXZ
_TEXT	SEGMENT
$T1 = -76						; size = 12
?_Throw_bad_array_new_length@std@@YAXXZ PROC		; std::_Throw_bad_array_new_length, COMDAT

; 320  : [[noreturn]] inline void _Throw_bad_array_new_length() {

  00000	55		 push	 ebp
  00001	8b ec		 mov	 ebp, esp
  00003	83 ec 4c	 sub	 esp, 76			; 0000004cH
  00006	53		 push	 ebx
  00007	56		 push	 esi
  00008	57		 push	 edi

; 321  :     _THROW(bad_array_new_length{});

  00009	8d 4d b4	 lea	 ecx, DWORD PTR $T1[ebp]
  0000c	e8 00 00 00 00	 call	 ??0bad_array_new_length@std@@QAE@XZ ; std::bad_array_new_length::bad_array_new_length
  00011	68 00 00 00 00	 push	 OFFSET __TI3?AVbad_array_new_length@std@@
  00016	8d 45 b4	 lea	 eax, DWORD PTR $T1[ebp]
  00019	50		 push	 eax
  0001a	e8 00 00 00 00	 call	 __CxxThrowException@8
$LN2@Throw_bad_:

; 322  : }

  0001f	5f		 pop	 edi
  00020	5e		 pop	 esi
  00021	5b		 pop	 ebx
  00022	8b e5		 mov	 esp, ebp
  00024	5d		 pop	 ebp
  00025	c3		 ret	 0
?_Throw_bad_array_new_length@std@@YAXXZ ENDP		; std::_Throw_bad_array_new_length
_TEXT	ENDS
; Function compile flags: /Odtp /ZI
;	COMDAT ??_Gbad_array_new_length@std@@UAEPAXI@Z
_TEXT	SEGMENT
_this$ = -4						; size = 4
___flags$ = 8						; size = 4
??_Gbad_array_new_length@std@@UAEPAXI@Z PROC		; std::bad_array_new_length::`scalar deleting destructor', COMDAT
; _this$ = ecx
  00000	55		 push	 ebp
  00001	8b ec		 mov	 ebp, esp
  00003	83 ec 44	 sub	 esp, 68			; 00000044H
  00006	53		 push	 ebx
  00007	56		 push	 esi
  00008	57		 push	 edi
  00009	89 4d fc	 mov	 DWORD PTR _this$[ebp], ecx
  0000c	8b 4d fc	 mov	 ecx, DWORD PTR _this$[ebp]
  0000f	e8 00 00 00 00	 call	 ??1bad_array_new_length@std@@UAE@XZ
  00014	8b 45 08	 mov	 eax, DWORD PTR ___flags$[ebp]
  00017	83 e0 01	 and	 eax, 1
  0001a	74 0e		 je	 SHORT $LN2@scalar
  0001c	6a 0c		 push	 12			; 0000000cH
  0001e	8b 45 fc	 mov	 eax, DWORD PTR _this$[ebp]
  00021	50		 push	 eax
  00022	e8 00 00 00 00	 call	 ??3@YAXPAXI@Z		; operator delete
  00027	83 c4 08	 add	 esp, 8
$LN2@scalar:
  0002a	8b 45 fc	 mov	 eax, DWORD PTR _this$[ebp]
  0002d	5f		 pop	 edi
  0002e	5e		 pop	 esi
  0002f	5b		 pop	 ebx
  00030	8b e5		 mov	 esp, ebp
  00032	5d		 pop	 ebp
  00033	c2 04 00	 ret	 4
??_Gbad_array_new_length@std@@UAEPAXI@Z ENDP		; std::bad_array_new_length::`scalar deleting destructor'
_TEXT	ENDS
; Function compile flags: /Odtp /ZI
;	COMDAT ??0bad_array_new_length@std@@QAE@ABV01@@Z
_TEXT	SEGMENT
_this$ = -4						; size = 4
___that$ = 8						; size = 4
??0bad_array_new_length@std@@QAE@ABV01@@Z PROC		; std::bad_array_new_length::bad_array_new_length, COMDAT
; _this$ = ecx
  00000	55		 push	 ebp
  00001	8b ec		 mov	 ebp, esp
  00003	83 ec 44	 sub	 esp, 68			; 00000044H
  00006	53		 push	 ebx
  00007	56		 push	 esi
  00008	57		 push	 edi
  00009	89 4d fc	 mov	 DWORD PTR _this$[ebp], ecx
  0000c	8b 45 08	 mov	 eax, DWORD PTR ___that$[ebp]
  0000f	50		 push	 eax
  00010	8b 4d fc	 mov	 ecx, DWORD PTR _this$[ebp]
  00013	e8 00 00 00 00	 call	 ??0bad_alloc@std@@QAE@ABV01@@Z
  00018	8b 45 fc	 mov	 eax, DWORD PTR _this$[ebp]
  0001b	c7 00 00 00 00
	00		 mov	 DWORD PTR [eax], OFFSET ??_7bad_array_new_length@std@@6B@
  00021	8b 45 fc	 mov	 eax, DWORD PTR _this$[ebp]
  00024	5f		 pop	 edi
  00025	5e		 pop	 esi
  00026	5b		 pop	 ebx
  00027	8b e5		 mov	 esp, ebp
  00029	5d		 pop	 ebp
  0002a	c2 04 00	 ret	 4
??0bad_array_new_length@std@@QAE@ABV01@@Z ENDP		; std::bad_array_new_length::bad_array_new_length
_TEXT	ENDS
; Function compile flags: /Odtp /ZI
;	COMDAT ??1bad_array_new_length@std@@UAE@XZ
_TEXT	SEGMENT
_this$ = -4						; size = 4
??1bad_array_new_length@std@@UAE@XZ PROC		; std::bad_array_new_length::~bad_array_new_length, COMDAT
; _this$ = ecx
  00000	55		 push	 ebp
  00001	8b ec		 mov	 ebp, esp
  00003	83 ec 44	 sub	 esp, 68			; 00000044H
  00006	53		 push	 ebx
  00007	56		 push	 esi
  00008	57		 push	 edi
  00009	89 4d fc	 mov	 DWORD PTR _this$[ebp], ecx
  0000c	8b 4d fc	 mov	 ecx, DWORD PTR _this$[ebp]
  0000f	e8 00 00 00 00	 call	 ??1bad_alloc@std@@UAE@XZ
  00014	5f		 pop	 edi
  00015	5e		 pop	 esi
  00016	5b		 pop	 ebx
  00017	8b e5		 mov	 esp, ebp
  00019	5d		 pop	 ebp
  0001a	c3		 ret	 0
??1bad_array_new_length@std@@UAE@XZ ENDP		; std::bad_array_new_length::~bad_array_new_length
_TEXT	ENDS
; Function compile flags: /Odtp /ZI
; File C:\Program Files (x86)\Microsoft Visual Studio\2019\Community\VC\Tools\MSVC\14.27.29110\include\vcruntime_exception.h
;	COMDAT ??0bad_array_new_length@std@@QAE@XZ
_TEXT	SEGMENT
_this$ = -4						; size = 4
??0bad_array_new_length@std@@QAE@XZ PROC		; std::bad_array_new_length::bad_array_new_length, COMDAT
; _this$ = ecx

; 141  :     {

  00000	55		 push	 ebp
  00001	8b ec		 mov	 ebp, esp
  00003	83 ec 44	 sub	 esp, 68			; 00000044H
  00006	53		 push	 ebx
  00007	56		 push	 esi
  00008	57		 push	 edi
  00009	89 4d fc	 mov	 DWORD PTR _this$[ebp], ecx

; 140  :         : bad_alloc("bad array new length")

  0000c	68 00 00 00 00	 push	 OFFSET ??_C@_0BF@KINCDENJ@bad?5array?5new?5length@
  00011	8b 4d fc	 mov	 ecx, DWORD PTR _this$[ebp]
  00014	e8 00 00 00 00	 call	 ??0bad_alloc@std@@AAE@QBD@Z ; std::bad_alloc::bad_alloc

; 141  :     {

  00019	8b 45 fc	 mov	 eax, DWORD PTR _this$[ebp]
  0001c	c7 00 00 00 00
	00		 mov	 DWORD PTR [eax], OFFSET ??_7bad_array_new_length@std@@6B@

; 142  :     }

  00022	8b 45 fc	 mov	 eax, DWORD PTR _this$[ebp]
  00025	5f		 pop	 edi
  00026	5e		 pop	 esi
  00027	5b		 pop	 ebx
  00028	8b e5		 mov	 esp, ebp
  0002a	5d		 pop	 ebp
  0002b	c3		 ret	 0
??0bad_array_new_length@std@@QAE@XZ ENDP		; std::bad_array_new_length::bad_array_new_length
_TEXT	ENDS
; Function compile flags: /Odtp /ZI
;	COMDAT ??_Gbad_alloc@std@@UAEPAXI@Z
_TEXT	SEGMENT
_this$ = -4						; size = 4
___flags$ = 8						; size = 4
??_Gbad_alloc@std@@UAEPAXI@Z PROC			; std::bad_alloc::`scalar deleting destructor', COMDAT
; _this$ = ecx
  00000	55		 push	 ebp
  00001	8b ec		 mov	 ebp, esp
  00003	83 ec 44	 sub	 esp, 68			; 00000044H
  00006	53		 push	 ebx
  00007	56		 push	 esi
  00008	57		 push	 edi
  00009	89 4d fc	 mov	 DWORD PTR _this$[ebp], ecx
  0000c	8b 4d fc	 mov	 ecx, DWORD PTR _this$[ebp]
  0000f	e8 00 00 00 00	 call	 ??1bad_alloc@std@@UAE@XZ
  00014	8b 45 08	 mov	 eax, DWORD PTR ___flags$[ebp]
  00017	83 e0 01	 and	 eax, 1
  0001a	74 0e		 je	 SHORT $LN2@scalar
  0001c	6a 0c		 push	 12			; 0000000cH
  0001e	8b 45 fc	 mov	 eax, DWORD PTR _this$[ebp]
  00021	50		 push	 eax
  00022	e8 00 00 00 00	 call	 ??3@YAXPAXI@Z		; operator delete
  00027	83 c4 08	 add	 esp, 8
$LN2@scalar:
  0002a	8b 45 fc	 mov	 eax, DWORD PTR _this$[ebp]
  0002d	5f		 pop	 edi
  0002e	5e		 pop	 esi
  0002f	5b		 pop	 ebx
  00030	8b e5		 mov	 esp, ebp
  00032	5d		 pop	 ebp
  00033	c2 04 00	 ret	 4
??_Gbad_alloc@std@@UAEPAXI@Z ENDP			; std::bad_alloc::`scalar deleting destructor'
_TEXT	ENDS
; Function compile flags: /Odtp /ZI
;	COMDAT ??0bad_alloc@std@@QAE@ABV01@@Z
_TEXT	SEGMENT
_this$ = -4						; size = 4
___that$ = 8						; size = 4
??0bad_alloc@std@@QAE@ABV01@@Z PROC			; std::bad_alloc::bad_alloc, COMDAT
; _this$ = ecx
  00000	55		 push	 ebp
  00001	8b ec		 mov	 ebp, esp
  00003	83 ec 44	 sub	 esp, 68			; 00000044H
  00006	53		 push	 ebx
  00007	56		 push	 esi
  00008	57		 push	 edi
  00009	89 4d fc	 mov	 DWORD PTR _this$[ebp], ecx
  0000c	8b 45 08	 mov	 eax, DWORD PTR ___that$[ebp]
  0000f	50		 push	 eax
  00010	8b 4d fc	 mov	 ecx, DWORD PTR _this$[ebp]
  00013	e8 00 00 00 00	 call	 ??0exception@std@@QAE@ABV01@@Z ; std::exception::exception
  00018	8b 45 fc	 mov	 eax, DWORD PTR _this$[ebp]
  0001b	c7 00 00 00 00
	00		 mov	 DWORD PTR [eax], OFFSET ??_7bad_alloc@std@@6B@
  00021	8b 45 fc	 mov	 eax, DWORD PTR _this$[ebp]
  00024	5f		 pop	 edi
  00025	5e		 pop	 esi
  00026	5b		 pop	 ebx
  00027	8b e5		 mov	 esp, ebp
  00029	5d		 pop	 ebp
  0002a	c2 04 00	 ret	 4
??0bad_alloc@std@@QAE@ABV01@@Z ENDP			; std::bad_alloc::bad_alloc
_TEXT	ENDS
; Function compile flags: /Odtp /ZI
;	COMDAT ??1bad_alloc@std@@UAE@XZ
_TEXT	SEGMENT
_this$ = -4						; size = 4
??1bad_alloc@std@@UAE@XZ PROC				; std::bad_alloc::~bad_alloc, COMDAT
; _this$ = ecx
  00000	55		 push	 ebp
  00001	8b ec		 mov	 ebp, esp
  00003	83 ec 44	 sub	 esp, 68			; 00000044H
  00006	53		 push	 ebx
  00007	56		 push	 esi
  00008	57		 push	 edi
  00009	89 4d fc	 mov	 DWORD PTR _this$[ebp], ecx
  0000c	8b 4d fc	 mov	 ecx, DWORD PTR _this$[ebp]
  0000f	e8 00 00 00 00	 call	 ??1exception@std@@UAE@XZ ; std::exception::~exception
  00014	5f		 pop	 edi
  00015	5e		 pop	 esi
  00016	5b		 pop	 ebx
  00017	8b e5		 mov	 esp, ebp
  00019	5d		 pop	 ebp
  0001a	c3		 ret	 0
??1bad_alloc@std@@UAE@XZ ENDP				; std::bad_alloc::~bad_alloc
_TEXT	ENDS
; Function compile flags: /Odtp /ZI
; File C:\Program Files (x86)\Microsoft Visual Studio\2019\Community\VC\Tools\MSVC\14.27.29110\include\vcruntime_exception.h
;	COMDAT ??0bad_alloc@std@@AAE@QBD@Z
_TEXT	SEGMENT
_this$ = -4						; size = 4
__Message$ = 8						; size = 4
??0bad_alloc@std@@AAE@QBD@Z PROC			; std::bad_alloc::bad_alloc, COMDAT
; _this$ = ecx

; 130  :     {

  00000	55		 push	 ebp
  00001	8b ec		 mov	 ebp, esp
  00003	83 ec 44	 sub	 esp, 68			; 00000044H
  00006	53		 push	 ebx
  00007	56		 push	 esi
  00008	57		 push	 edi
  00009	89 4d fc	 mov	 DWORD PTR _this$[ebp], ecx

; 129  :         : exception(_Message, 1)

  0000c	6a 01		 push	 1
  0000e	8b 45 08	 mov	 eax, DWORD PTR __Message$[ebp]
  00011	50		 push	 eax
  00012	8b 4d fc	 mov	 ecx, DWORD PTR _this$[ebp]
  00015	e8 00 00 00 00	 call	 ??0exception@std@@QAE@QBDH@Z ; std::exception::exception

; 130  :     {

  0001a	8b 45 fc	 mov	 eax, DWORD PTR _this$[ebp]
  0001d	c7 00 00 00 00
	00		 mov	 DWORD PTR [eax], OFFSET ??_7bad_alloc@std@@6B@

; 131  :     }

  00023	8b 45 fc	 mov	 eax, DWORD PTR _this$[ebp]
  00026	5f		 pop	 edi
  00027	5e		 pop	 esi
  00028	5b		 pop	 ebx
  00029	8b e5		 mov	 esp, ebp
  0002b	5d		 pop	 ebp
  0002c	c2 04 00	 ret	 4
??0bad_alloc@std@@AAE@QBD@Z ENDP			; std::bad_alloc::bad_alloc
_TEXT	ENDS
; Function compile flags: /Odtp /ZI
;	COMDAT ??_Gexception@std@@UAEPAXI@Z
_TEXT	SEGMENT
_this$ = -4						; size = 4
___flags$ = 8						; size = 4
??_Gexception@std@@UAEPAXI@Z PROC			; std::exception::`scalar deleting destructor', COMDAT
; _this$ = ecx
  00000	55		 push	 ebp
  00001	8b ec		 mov	 ebp, esp
  00003	83 ec 44	 sub	 esp, 68			; 00000044H
  00006	53		 push	 ebx
  00007	56		 push	 esi
  00008	57		 push	 edi
  00009	89 4d fc	 mov	 DWORD PTR _this$[ebp], ecx
  0000c	8b 4d fc	 mov	 ecx, DWORD PTR _this$[ebp]
  0000f	e8 00 00 00 00	 call	 ??1exception@std@@UAE@XZ ; std::exception::~exception
  00014	8b 45 08	 mov	 eax, DWORD PTR ___flags$[ebp]
  00017	83 e0 01	 and	 eax, 1
  0001a	74 0e		 je	 SHORT $LN2@scalar
  0001c	6a 0c		 push	 12			; 0000000cH
  0001e	8b 45 fc	 mov	 eax, DWORD PTR _this$[ebp]
  00021	50		 push	 eax
  00022	e8 00 00 00 00	 call	 ??3@YAXPAXI@Z		; operator delete
  00027	83 c4 08	 add	 esp, 8
$LN2@scalar:
  0002a	8b 45 fc	 mov	 eax, DWORD PTR _this$[ebp]
  0002d	5f		 pop	 edi
  0002e	5e		 pop	 esi
  0002f	5b		 pop	 ebx
  00030	8b e5		 mov	 esp, ebp
  00032	5d		 pop	 ebp
  00033	c2 04 00	 ret	 4
??_Gexception@std@@UAEPAXI@Z ENDP			; std::exception::`scalar deleting destructor'
_TEXT	ENDS
; Function compile flags: /Odtp /ZI
; File C:\Program Files (x86)\Microsoft Visual Studio\2019\Community\VC\Tools\MSVC\14.27.29110\include\vcruntime_exception.h
;	COMDAT ?what@exception@std@@UBEPBDXZ
_TEXT	SEGMENT
tv69 = -72						; size = 4
_this$ = -4						; size = 4
?what@exception@std@@UBEPBDXZ PROC			; std::exception::what, COMDAT
; _this$ = ecx

; 94   :     {

  00000	55		 push	 ebp
  00001	8b ec		 mov	 ebp, esp
  00003	83 ec 48	 sub	 esp, 72			; 00000048H
  00006	53		 push	 ebx
  00007	56		 push	 esi
  00008	57		 push	 edi
  00009	89 4d fc	 mov	 DWORD PTR _this$[ebp], ecx

; 95   :         return _Data._What ? _Data._What : "Unknown exception";

  0000c	8b 45 fc	 mov	 eax, DWORD PTR _this$[ebp]
  0000f	83 78 04 00	 cmp	 DWORD PTR [eax+4], 0
  00013	74 0b		 je	 SHORT $LN3@what
  00015	8b 4d fc	 mov	 ecx, DWORD PTR _this$[ebp]
  00018	8b 51 04	 mov	 edx, DWORD PTR [ecx+4]
  0001b	89 55 b8	 mov	 DWORD PTR tv69[ebp], edx
  0001e	eb 07		 jmp	 SHORT $LN4@what
$LN3@what:
  00020	c7 45 b8 00 00
	00 00		 mov	 DWORD PTR tv69[ebp], OFFSET ??_C@_0BC@EOODALEL@Unknown?5exception@
$LN4@what:
  00027	8b 45 b8	 mov	 eax, DWORD PTR tv69[ebp]

; 96   :     }

  0002a	5f		 pop	 edi
  0002b	5e		 pop	 esi
  0002c	5b		 pop	 ebx
  0002d	8b e5		 mov	 esp, ebp
  0002f	5d		 pop	 ebp
  00030	c3		 ret	 0
?what@exception@std@@UBEPBDXZ ENDP			; std::exception::what
_TEXT	ENDS
; Function compile flags: /Odtp /ZI
; File C:\Program Files (x86)\Microsoft Visual Studio\2019\Community\VC\Tools\MSVC\14.27.29110\include\vcruntime_exception.h
;	COMDAT ??1exception@std@@UAE@XZ
_TEXT	SEGMENT
_this$ = -4						; size = 4
??1exception@std@@UAE@XZ PROC				; std::exception::~exception, COMDAT
; _this$ = ecx

; 89   :     {

  00000	55		 push	 ebp
  00001	8b ec		 mov	 ebp, esp
  00003	83 ec 44	 sub	 esp, 68			; 00000044H
  00006	53		 push	 ebx
  00007	56		 push	 esi
  00008	57		 push	 edi
  00009	89 4d fc	 mov	 DWORD PTR _this$[ebp], ecx
  0000c	8b 45 fc	 mov	 eax, DWORD PTR _this$[ebp]
  0000f	c7 00 00 00 00
	00		 mov	 DWORD PTR [eax], OFFSET ??_7exception@std@@6B@

; 90   :         __std_exception_destroy(&_Data);

  00015	8b 45 fc	 mov	 eax, DWORD PTR _this$[ebp]
  00018	83 c0 04	 add	 eax, 4
  0001b	50		 push	 eax
  0001c	e8 00 00 00 00	 call	 ___std_exception_destroy
  00021	83 c4 04	 add	 esp, 4

; 91   :     }

  00024	5f		 pop	 edi
  00025	5e		 pop	 esi
  00026	5b		 pop	 ebx
  00027	8b e5		 mov	 esp, ebp
  00029	5d		 pop	 ebp
  0002a	c3		 ret	 0
??1exception@std@@UAE@XZ ENDP				; std::exception::~exception
_TEXT	ENDS
; Function compile flags: /Odtp /ZI
; File C:\Program Files (x86)\Microsoft Visual Studio\2019\Community\VC\Tools\MSVC\14.27.29110\include\vcruntime_exception.h
;	COMDAT ??0exception@std@@QAE@ABV01@@Z
_TEXT	SEGMENT
_this$ = -4						; size = 4
__Other$ = 8						; size = 4
??0exception@std@@QAE@ABV01@@Z PROC			; std::exception::exception, COMDAT
; _this$ = ecx

; 72   :     {

  00000	55		 push	 ebp
  00001	8b ec		 mov	 ebp, esp
  00003	83 ec 44	 sub	 esp, 68			; 00000044H
  00006	53		 push	 ebx
  00007	56		 push	 esi
  00008	57		 push	 edi
  00009	89 4d fc	 mov	 DWORD PTR _this$[ebp], ecx
  0000c	8b 45 fc	 mov	 eax, DWORD PTR _this$[ebp]
  0000f	c7 00 00 00 00
	00		 mov	 DWORD PTR [eax], OFFSET ??_7exception@std@@6B@

; 71   :         : _Data()

  00015	33 c0		 xor	 eax, eax
  00017	8b 4d fc	 mov	 ecx, DWORD PTR _this$[ebp]
  0001a	83 c1 04	 add	 ecx, 4
  0001d	89 01		 mov	 DWORD PTR [ecx], eax
  0001f	89 41 04	 mov	 DWORD PTR [ecx+4], eax

; 73   :         __std_exception_copy(&_Other._Data, &_Data);

  00022	8b 45 fc	 mov	 eax, DWORD PTR _this$[ebp]
  00025	83 c0 04	 add	 eax, 4
  00028	50		 push	 eax
  00029	8b 4d 08	 mov	 ecx, DWORD PTR __Other$[ebp]
  0002c	83 c1 04	 add	 ecx, 4
  0002f	51		 push	 ecx
  00030	e8 00 00 00 00	 call	 ___std_exception_copy
  00035	83 c4 08	 add	 esp, 8

; 74   :     }

  00038	8b 45 fc	 mov	 eax, DWORD PTR _this$[ebp]
  0003b	5f		 pop	 edi
  0003c	5e		 pop	 esi
  0003d	5b		 pop	 ebx
  0003e	8b e5		 mov	 esp, ebp
  00040	5d		 pop	 ebp
  00041	c2 04 00	 ret	 4
??0exception@std@@QAE@ABV01@@Z ENDP			; std::exception::exception
_TEXT	ENDS
; Function compile flags: /Odtp /ZI
; File C:\Program Files (x86)\Microsoft Visual Studio\2019\Community\VC\Tools\MSVC\14.27.29110\include\vcruntime_exception.h
;	COMDAT ??0exception@std@@QAE@QBDH@Z
_TEXT	SEGMENT
_this$ = -4						; size = 4
__Message$ = 8						; size = 4
___formal$ = 12						; size = 4
??0exception@std@@QAE@QBDH@Z PROC			; std::exception::exception, COMDAT
; _this$ = ecx

; 66   :     {

  00000	55		 push	 ebp
  00001	8b ec		 mov	 ebp, esp
  00003	83 ec 44	 sub	 esp, 68			; 00000044H
  00006	53		 push	 ebx
  00007	56		 push	 esi
  00008	57		 push	 edi
  00009	89 4d fc	 mov	 DWORD PTR _this$[ebp], ecx
  0000c	8b 45 fc	 mov	 eax, DWORD PTR _this$[ebp]
  0000f	c7 00 00 00 00
	00		 mov	 DWORD PTR [eax], OFFSET ??_7exception@std@@6B@

; 65   :         : _Data()

  00015	33 c0		 xor	 eax, eax
  00017	8b 4d fc	 mov	 ecx, DWORD PTR _this$[ebp]
  0001a	83 c1 04	 add	 ecx, 4
  0001d	89 01		 mov	 DWORD PTR [ecx], eax
  0001f	89 41 04	 mov	 DWORD PTR [ecx+4], eax

; 67   :         _Data._What = _Message;

  00022	8b 45 fc	 mov	 eax, DWORD PTR _this$[ebp]
  00025	8b 4d 08	 mov	 ecx, DWORD PTR __Message$[ebp]
  00028	89 48 04	 mov	 DWORD PTR [eax+4], ecx

; 68   :     }

  0002b	8b 45 fc	 mov	 eax, DWORD PTR _this$[ebp]
  0002e	5f		 pop	 edi
  0002f	5e		 pop	 esi
  00030	5b		 pop	 ebx
  00031	8b e5		 mov	 esp, ebp
  00033	5d		 pop	 ebp
  00034	c2 08 00	 ret	 8
??0exception@std@@QAE@QBDH@Z ENDP			; std::exception::exception
_TEXT	ENDS
; Function compile flags: /Odtp /ZI
; File C:\Program Files (x86)\Microsoft Visual Studio\2019\Community\VC\Tools\MSVC\14.27.29110\include\vcruntime_new.h
;	COMDAT ??2@YAPAXIPAX@Z
_TEXT	SEGMENT
__Size$ = 8						; size = 4
__Where$ = 12						; size = 4
??2@YAPAXIPAX@Z PROC					; operator new, COMDAT

; 167  :     {

  00000	55		 push	 ebp
  00001	8b ec		 mov	 ebp, esp
  00003	83 ec 40	 sub	 esp, 64			; 00000040H
  00006	53		 push	 ebx
  00007	56		 push	 esi
  00008	57		 push	 edi

; 168  :         (void)_Size;
; 169  :         return _Where;

  00009	8b 45 0c	 mov	 eax, DWORD PTR __Where$[ebp]

; 170  :     }

  0000c	5f		 pop	 edi
  0000d	5e		 pop	 esi
  0000e	5b		 pop	 ebx
  0000f	8b e5		 mov	 esp, ebp
  00011	5d		 pop	 ebp
  00012	c3		 ret	 0
??2@YAPAXIPAX@Z ENDP					; operator new
_TEXT	ENDS
; Function compile flags: /Odtp /ZI
; File C:\Mu Online\Mu-GS-Webzen-MC-10093\GameServer\AntiHack.cpp
;	COMDAT ?__empty_global_delete@@YAXPAXI@Z
_TEXT	SEGMENT
___formal$ = 8						; size = 4
___formal$ = 12						; size = 4
?__empty_global_delete@@YAXPAXI@Z PROC			; __empty_global_delete, COMDAT

  00000	55		 push	 ebp
  00001	8b ec		 mov	 ebp, esp
  00003	83 ec 40	 sub	 esp, 64			; 00000040H
  00006	53		 push	 ebx
  00007	56		 push	 esi
  00008	57		 push	 edi
  00009	5f		 pop	 edi
  0000a	5e		 pop	 esi
  0000b	5b		 pop	 ebx
  0000c	8b e5		 mov	 esp, ebp
  0000e	5d		 pop	 ebp
  0000f	c3		 ret	 0
?__empty_global_delete@@YAXPAXI@Z ENDP			; __empty_global_delete
_TEXT	ENDS
; Function compile flags: /Odtp /ZI
; File C:\Mu Online\Mu-GS-Webzen-MC-10093\GameServer\AntiHack.cpp
;	COMDAT ?__empty_global_delete@@YAXPAX@Z
_TEXT	SEGMENT
___formal$ = 8						; size = 4
?__empty_global_delete@@YAXPAX@Z PROC			; __empty_global_delete, COMDAT

  00000	55		 push	 ebp
  00001	8b ec		 mov	 ebp, esp
  00003	83 ec 40	 sub	 esp, 64			; 00000040H
  00006	53		 push	 ebx
  00007	56		 push	 esi
  00008	57		 push	 edi
  00009	5f		 pop	 edi
  0000a	5e		 pop	 esi
  0000b	5b		 pop	 ebx
  0000c	8b e5		 mov	 esp, ebp
  0000e	5d		 pop	 ebp
  0000f	c3		 ret	 0
?__empty_global_delete@@YAXPAX@Z ENDP			; __empty_global_delete
_TEXT	ENDS
END
