; Listing generated by Microsoft (R) Optimizing Compiler Version 19.27.29111.0 

	TITLE	C:\Mu Online\Mu-GS-Webzen-MC-10093\GameServer\ArrowSystem.cpp
	.686P
	.XMM
	include listing.inc
	.model	flat

INCLUDELIB LIBCMT
INCLUDELIB OLDNAMES

PUBLIC	?__empty_global_delete@@YAXPAX@Z		; __empty_global_delete
PUBLIC	?__empty_global_delete@@YAXPAXI@Z		; __empty_global_delete
PUBLIC	??2@YAPAXIPAX@Z					; operator new
PUBLIC	??0exception@std@@QAE@QBDH@Z			; std::exception::exception
PUBLIC	??0exception@std@@QAE@ABV01@@Z			; std::exception::exception
PUBLIC	??1exception@std@@UAE@XZ			; std::exception::~exception
PUBLIC	?what@exception@std@@UBEPBDXZ			; std::exception::what
PUBLIC	??_Gexception@std@@UAEPAXI@Z			; std::exception::`scalar deleting destructor'
PUBLIC	??0bad_alloc@std@@AAE@QBD@Z			; std::bad_alloc::bad_alloc
PUBLIC	??1bad_alloc@std@@UAE@XZ			; std::bad_alloc::~bad_alloc
PUBLIC	??0bad_alloc@std@@QAE@ABV01@@Z			; std::bad_alloc::bad_alloc
PUBLIC	??_Gbad_alloc@std@@UAEPAXI@Z			; std::bad_alloc::`scalar deleting destructor'
PUBLIC	??0bad_array_new_length@std@@QAE@XZ		; std::bad_array_new_length::bad_array_new_length
PUBLIC	??1bad_array_new_length@std@@UAE@XZ		; std::bad_array_new_length::~bad_array_new_length
PUBLIC	??0bad_array_new_length@std@@QAE@ABV01@@Z	; std::bad_array_new_length::bad_array_new_length
PUBLIC	??_Gbad_array_new_length@std@@UAEPAXI@Z		; std::bad_array_new_length::`scalar deleting destructor'
PUBLIC	?_Throw_bad_array_new_length@std@@YAXXZ		; std::_Throw_bad_array_new_length
PUBLIC	?max@?$numeric_limits@H@std@@SAHXZ		; std::numeric_limits<int>::max
PUBLIC	?_Allocate@_Default_allocate_traits@std@@SAPAXI@Z ; std::_Default_allocate_traits::_Allocate
PUBLIC	?_Adjust_manually_vector_aligned@std@@YAXAAPAXAAI@Z ; std::_Adjust_manually_vector_aligned
PUBLIC	?_Orphan_all@_Container_base0@std@@QAEXXZ	; std::_Container_base0::_Orphan_all
PUBLIC	?_Adopt@_Iterator_base0@std@@QAEXPBX@Z		; std::_Iterator_base0::_Adopt
PUBLIC	??0_Fake_proxy_ptr_impl@std@@QAE@ABU_Fake_allocator@1@ABU_Container_base0@1@@Z ; std::_Fake_proxy_ptr_impl::_Fake_proxy_ptr_impl
PUBLIC	?_Release@_Fake_proxy_ptr_impl@std@@QAEXXZ	; std::_Fake_proxy_ptr_impl::_Release
PUBLIC	?_Throw_tree_length_error@std@@YAXXZ		; std::_Throw_tree_length_error
PUBLIC	??R?$less@H@std@@QBE_NABH0@Z			; std::less<int>::operator()
PUBLIC	??0CArrowSystem@@QAE@XZ				; CArrowSystem::CArrowSystem
PUBLIC	??1CArrowSystem@@QAE@XZ				; CArrowSystem::~CArrowSystem
PUBLIC	?Load@CArrowSystem@@QAEXPBD@Z			; CArrowSystem::Load
PUBLIC	?CheckArrow@CArrowSystem@@QAE_NH@Z		; CArrowSystem::CheckArrow
PUBLIC	??0?$allocator@U?$_Tree_node@U?$pair@$$CBH_N@std@@PAX@std@@@std@@QAE@XZ ; std::allocator<std::_Tree_node<std::pair<int const ,bool>,void *> >::allocator<std::_Tree_node<std::pair<int const ,bool>,void *> >
PUBLIC	?deallocate@?$allocator@U?$_Tree_node@U?$pair@$$CBH_N@std@@PAX@std@@@std@@QAEXQAU?$_Tree_node@U?$pair@$$CBH_N@std@@PAX@2@I@Z ; std::allocator<std::_Tree_node<std::pair<int const ,bool>,void *> >::deallocate
PUBLIC	?allocate@?$allocator@U?$_Tree_node@U?$pair@$$CBH_N@std@@PAX@std@@@std@@QAEPAU?$_Tree_node@U?$pair@$$CBH_N@std@@PAX@2@I@Z ; std::allocator<std::_Tree_node<std::pair<int const ,bool>,void *> >::allocate
PUBLIC	?deallocate@?$_Default_allocator_traits@V?$allocator@U?$_Tree_node@U?$pair@$$CBH_N@std@@PAX@std@@@std@@@std@@SAXAAV?$allocator@U?$_Tree_node@U?$pair@$$CBH_N@std@@PAX@std@@@2@QAU?$_Tree_node@U?$pair@$$CBH_N@std@@PAX@2@I@Z ; std::_Default_allocator_traits<std::allocator<std::_Tree_node<std::pair<int const ,bool>,void *> > >::deallocate
PUBLIC	?max_size@?$_Default_allocator_traits@V?$allocator@U?$_Tree_node@U?$pair@$$CBH_N@std@@PAX@std@@@std@@@std@@SAIABV?$allocator@U?$_Tree_node@U?$pair@$$CBH_N@std@@PAX@std@@@2@@Z ; std::_Default_allocator_traits<std::allocator<std::_Tree_node<std::pair<int const ,bool>,void *> > >::max_size
PUBLIC	??0?$_Tree@V?$_Tmap_traits@H_NU?$less@H@std@@V?$allocator@U?$pair@$$CBH_N@std@@@2@$0A@@std@@@std@@QAE@ABU?$less@H@1@@Z ; std::_Tree<std::_Tmap_traits<int,bool,std::less<int>,std::allocator<std::pair<int const ,bool> >,0> >::_Tree<std::_Tmap_traits<int,bool,std::less<int>,std::allocator<std::pair<int const ,bool> >,0> >
PUBLIC	??1?$_Tree@V?$_Tmap_traits@H_NU?$less@H@std@@V?$allocator@U?$pair@$$CBH_N@std@@@2@$0A@@std@@@std@@QAE@XZ ; std::_Tree<std::_Tmap_traits<int,bool,std::less<int>,std::allocator<std::pair<int const ,bool> >,0> >::~_Tree<std::_Tmap_traits<int,bool,std::less<int>,std::allocator<std::pair<int const ,bool> >,0> >
PUBLIC	?end@?$_Tree@V?$_Tmap_traits@H_NU?$less@H@std@@V?$allocator@U?$pair@$$CBH_N@std@@@2@$0A@@std@@@std@@QAE?AV?$_Tree_iterator@V?$_Tree_val@U?$_Tree_simple_types@U?$pair@$$CBH_N@std@@@std@@@std@@@2@XZ ; std::_Tree<std::_Tmap_traits<int,bool,std::less<int>,std::allocator<std::pair<int const ,bool> >,0> >::end
PUBLIC	?max_size@?$_Tree@V?$_Tmap_traits@H_NU?$less@H@std@@V?$allocator@U?$pair@$$CBH_N@std@@@2@$0A@@std@@@std@@QBEIXZ ; std::_Tree<std::_Tmap_traits<int,bool,std::less<int>,std::allocator<std::pair<int const ,bool> >,0> >::max_size
PUBLIC	?clear@?$_Tree@V?$_Tmap_traits@H_NU?$less@H@std@@V?$allocator@U?$pair@$$CBH_N@std@@@2@$0A@@std@@@std@@QAEXXZ ; std::_Tree<std::_Tmap_traits<int,bool,std::less<int>,std::allocator<std::pair<int const ,bool> >,0> >::clear
PUBLIC	?find@?$_Tree@V?$_Tmap_traits@H_NU?$less@H@std@@V?$allocator@U?$pair@$$CBH_N@std@@@2@$0A@@std@@@std@@QAE?AV?$_Tree_iterator@V?$_Tree_val@U?$_Tree_simple_types@U?$pair@$$CBH_N@std@@@std@@@std@@@2@ABH@Z ; std::_Tree<std::_Tmap_traits<int,bool,std::less<int>,std::allocator<std::pair<int const ,bool> >,0> >::find
PUBLIC	?_Check_grow_by_1@?$_Tree@V?$_Tmap_traits@H_NU?$less@H@std@@V?$allocator@U?$pair@$$CBH_N@std@@@2@$0A@@std@@@std@@IAEXXZ ; std::_Tree<std::_Tmap_traits<int,bool,std::less<int>,std::allocator<std::pair<int const ,bool> >,0> >::_Check_grow_by_1
PUBLIC	?_Alloc_sentinel_and_proxy@?$_Tree@V?$_Tmap_traits@H_NU?$less@H@std@@V?$allocator@U?$pair@$$CBH_N@std@@@2@$0A@@std@@@std@@IAEXXZ ; std::_Tree<std::_Tmap_traits<int,bool,std::less<int>,std::allocator<std::pair<int const ,bool> >,0> >::_Alloc_sentinel_and_proxy
PUBLIC	?_Getcomp@?$_Tree@V?$_Tmap_traits@H_NU?$less@H@std@@V?$allocator@U?$pair@$$CBH_N@std@@@2@$0A@@std@@@std@@IBEABU?$less@H@2@XZ ; std::_Tree<std::_Tmap_traits<int,bool,std::less<int>,std::allocator<std::pair<int const ,bool> >,0> >::_Getcomp
PUBLIC	?_Getal@?$_Tree@V?$_Tmap_traits@H_NU?$less@H@std@@V?$allocator@U?$pair@$$CBH_N@std@@@2@$0A@@std@@@std@@IAEAAV?$allocator@U?$_Tree_node@U?$pair@$$CBH_N@std@@PAX@std@@@2@XZ ; std::_Tree<std::_Tmap_traits<int,bool,std::less<int>,std::allocator<std::pair<int const ,bool> >,0> >::_Getal
PUBLIC	?_Getal@?$_Tree@V?$_Tmap_traits@H_NU?$less@H@std@@V?$allocator@U?$pair@$$CBH_N@std@@@2@$0A@@std@@@std@@IBEABV?$allocator@U?$_Tree_node@U?$pair@$$CBH_N@std@@PAX@std@@@2@XZ ; std::_Tree<std::_Tmap_traits<int,bool,std::less<int>,std::allocator<std::pair<int const ,bool> >,0> >::_Getal
PUBLIC	?_Get_scary@?$_Tree@V?$_Tmap_traits@H_NU?$less@H@std@@V?$allocator@U?$pair@$$CBH_N@std@@@2@$0A@@std@@@std@@IAEPAV?$_Tree_val@U?$_Tree_simple_types@U?$pair@$$CBH_N@std@@@std@@@2@XZ ; std::_Tree<std::_Tmap_traits<int,bool,std::less<int>,std::allocator<std::pair<int const ,bool> >,0> >::_Get_scary
PUBLIC	?_Get_scary@?$_Tree@V?$_Tmap_traits@H_NU?$less@H@std@@V?$allocator@U?$pair@$$CBH_N@std@@@2@$0A@@std@@@std@@IBEPBV?$_Tree_val@U?$_Tree_simple_types@U?$pair@$$CBH_N@std@@@std@@@2@XZ ; std::_Tree<std::_Tmap_traits<int,bool,std::less<int>,std::allocator<std::pair<int const ,bool> >,0> >::_Get_scary
PUBLIC	??0?$_Tree_val@U?$_Tree_simple_types@U?$pair@$$CBH_N@std@@@std@@@std@@QAE@XZ ; std::_Tree_val<std::_Tree_simple_types<std::pair<int const ,bool> > >::_Tree_val<std::_Tree_simple_types<std::pair<int const ,bool> > >
PUBLIC	?_Lrotate@?$_Tree_val@U?$_Tree_simple_types@U?$pair@$$CBH_N@std@@@std@@@std@@QAEXPAU?$_Tree_node@U?$pair@$$CBH_N@std@@PAX@2@@Z ; std::_Tree_val<std::_Tree_simple_types<std::pair<int const ,bool> > >::_Lrotate
PUBLIC	?_Rrotate@?$_Tree_val@U?$_Tree_simple_types@U?$pair@$$CBH_N@std@@@std@@@std@@QAEXPAU?$_Tree_node@U?$pair@$$CBH_N@std@@PAX@2@@Z ; std::_Tree_val<std::_Tree_simple_types<std::pair<int const ,bool> > >::_Rrotate
PUBLIC	?_Insert_node@?$_Tree_val@U?$_Tree_simple_types@U?$pair@$$CBH_N@std@@@std@@@std@@QAEPAU?$_Tree_node@U?$pair@$$CBH_N@std@@PAX@2@U?$_Tree_id@PAU?$_Tree_node@U?$pair@$$CBH_N@std@@PAX@std@@@2@QAU32@@Z ; std::_Tree_val<std::_Tree_simple_types<std::pair<int const ,bool> > >::_Insert_node
PUBLIC	?_Orphan_ptr@?$_Tree_val@U?$_Tree_simple_types@U?$pair@$$CBH_N@std@@@std@@@std@@QAEXQAU?$_Tree_node@U?$pair@$$CBH_N@std@@PAX@2@@Z ; std::_Tree_val<std::_Tree_simple_types<std::pair<int const ,bool> > >::_Orphan_ptr
PUBLIC	?_Get_first@?$_Compressed_pair@V?$allocator@U?$_Tree_node@U?$pair@$$CBH_N@std@@PAX@std@@@std@@V?$_Tree_val@U?$_Tree_simple_types@U?$pair@$$CBH_N@std@@@std@@@2@$00@std@@QAEAAV?$allocator@U?$_Tree_node@U?$pair@$$CBH_N@std@@PAX@std@@@2@XZ ; std::_Compressed_pair<std::allocator<std::_Tree_node<std::pair<int const ,bool>,void *> >,std::_Tree_val<std::_Tree_simple_types<std::pair<int const ,bool> > >,1>::_Get_first
PUBLIC	?_Get_first@?$_Compressed_pair@V?$allocator@U?$_Tree_node@U?$pair@$$CBH_N@std@@PAX@std@@@std@@V?$_Tree_val@U?$_Tree_simple_types@U?$pair@$$CBH_N@std@@@std@@@2@$00@std@@QBEABV?$allocator@U?$_Tree_node@U?$pair@$$CBH_N@std@@PAX@std@@@2@XZ ; std::_Compressed_pair<std::allocator<std::_Tree_node<std::pair<int const ,bool>,void *> >,std::_Tree_val<std::_Tree_simple_types<std::pair<int const ,bool> > >,1>::_Get_first
PUBLIC	?_Get_first@?$_Compressed_pair@U?$less@H@std@@V?$_Compressed_pair@V?$allocator@U?$_Tree_node@U?$pair@$$CBH_N@std@@PAX@std@@@std@@V?$_Tree_val@U?$_Tree_simple_types@U?$pair@$$CBH_N@std@@@std@@@2@$00@2@$00@std@@QBEABU?$less@H@2@XZ ; std::_Compressed_pair<std::less<int>,std::_Compressed_pair<std::allocator<std::_Tree_node<std::pair<int const ,bool>,void *> >,std::_Tree_val<std::_Tree_simple_types<std::pair<int const ,bool> > >,1>,1>::_Get_first
PUBLIC	??0?$map@H_NU?$less@H@std@@V?$allocator@U?$pair@$$CBH_N@std@@@2@@std@@QAE@XZ ; std::map<int,bool,std::less<int>,std::allocator<std::pair<int const ,bool> > >::map<int,bool,std::less<int>,std::allocator<std::pair<int const ,bool> > >
PUBLIC	??1?$map@H_NU?$less@H@std@@V?$allocator@U?$pair@$$CBH_N@std@@@2@@std@@QAE@XZ ; std::map<int,bool,std::less<int>,std::allocator<std::pair<int const ,bool> > >::~map<int,bool,std::less<int>,std::allocator<std::pair<int const ,bool> > >
PUBLIC	??$min@I@std@@YAABIABI0@Z			; std::min<unsigned int>
PUBLIC	??$_Deallocate@$07$0A@@std@@YAXPAXI@Z		; std::_Deallocate<8,0>
PUBLIC	??$_Allocate@$07U_Default_allocate_traits@std@@$0A@@std@@YAPAXI@Z ; std::_Allocate<8,std::_Default_allocate_traits,0>
PUBLIC	??$_Allocate_manually_vector_aligned@U_Default_allocate_traits@std@@@std@@YAPAXI@Z ; std::_Allocate_manually_vector_aligned<std::_Default_allocate_traits>
PUBLIC	??$make_pair@AAH_N@std@@YA?AU?$pair@H_N@0@AAH$$QA_N@Z ; std::make_pair<int &,bool>
PUBLIC	??$?0H_N$0A@@?$pair@$$CBH_N@std@@QAE@$$QAU?$pair@H_N@1@@Z ; std::pair<int const ,bool>::pair<int const ,bool><int,bool,0>
PUBLIC	??$insert@U?$pair@H_N@std@@$0A@@?$map@H_NU?$less@H@std@@V?$allocator@U?$pair@$$CBH_N@std@@@2@@std@@QAE?AU?$pair@V?$_Tree_iterator@V?$_Tree_val@U?$_Tree_simple_types@U?$pair@$$CBH_N@std@@@std@@@std@@@std@@_N@1@$$QAU?$pair@H_N@1@@Z ; std::map<int,bool,std::less<int>,std::allocator<std::pair<int const ,bool> > >::insert<std::pair<int,bool>,0>
PUBLIC	??0?$_Tree_unchecked_const_iterator@V?$_Tree_val@U?$_Tree_simple_types@U?$pair@$$CBH_N@std@@@std@@@std@@U_Iterator_base0@2@@std@@QAE@PAU?$_Tree_node@U?$pair@$$CBH_N@std@@PAX@1@PBV?$_Tree_val@U?$_Tree_simple_types@U?$pair@$$CBH_N@std@@@std@@@1@@Z ; std::_Tree_unchecked_const_iterator<std::_Tree_val<std::_Tree_simple_types<std::pair<int const ,bool> > >,std::_Iterator_base0>::_Tree_unchecked_const_iterator<std::_Tree_val<std::_Tree_simple_types<std::pair<int const ,bool> > >,std::_Iterator_base0>
PUBLIC	??D?$_Tree_const_iterator@V?$_Tree_val@U?$_Tree_simple_types@U?$pair@$$CBH_N@std@@@std@@@std@@@std@@QBEABU?$pair@$$CBH_N@1@XZ ; std::_Tree_const_iterator<std::_Tree_val<std::_Tree_simple_types<std::pair<int const ,bool> > > >::operator*
PUBLIC	??8?$_Tree_const_iterator@V?$_Tree_val@U?$_Tree_simple_types@U?$pair@$$CBH_N@std@@@std@@@std@@@std@@QBE_NABV01@@Z ; std::_Tree_const_iterator<std::_Tree_val<std::_Tree_simple_types<std::pair<int const ,bool> > > >::operator==
PUBLIC	??0?$_Tree_const_iterator@V?$_Tree_val@U?$_Tree_simple_types@U?$pair@$$CBH_N@std@@@std@@@std@@@std@@QAE@PAU?$_Tree_node@U?$pair@$$CBH_N@std@@PAX@1@PBV?$_Tree_val@U?$_Tree_simple_types@U?$pair@$$CBH_N@std@@@std@@@1@@Z ; std::_Tree_const_iterator<std::_Tree_val<std::_Tree_simple_types<std::pair<int const ,bool> > > >::_Tree_const_iterator<std::_Tree_val<std::_Tree_simple_types<std::pair<int const ,bool> > > >
PUBLIC	??D?$_Tree_iterator@V?$_Tree_val@U?$_Tree_simple_types@U?$pair@$$CBH_N@std@@@std@@@std@@@std@@QBEAAU?$pair@$$CBH_N@1@XZ ; std::_Tree_iterator<std::_Tree_val<std::_Tree_simple_types<std::pair<int const ,bool> > > >::operator*
PUBLIC	??C?$_Tree_iterator@V?$_Tree_val@U?$_Tree_simple_types@U?$pair@$$CBH_N@std@@@std@@@std@@@std@@QBEPAU?$pair@$$CBH_N@1@XZ ; std::_Tree_iterator<std::_Tree_val<std::_Tree_simple_types<std::pair<int const ,bool> > > >::operator->
PUBLIC	??0?$_Tree_iterator@V?$_Tree_val@U?$_Tree_simple_types@U?$pair@$$CBH_N@std@@@std@@@std@@@std@@QAE@PAU?$_Tree_node@U?$pair@$$CBH_N@std@@PAX@1@PBV?$_Tree_val@U?$_Tree_simple_types@U?$pair@$$CBH_N@std@@@std@@@1@@Z ; std::_Tree_iterator<std::_Tree_val<std::_Tree_simple_types<std::pair<int const ,bool> > > >::_Tree_iterator<std::_Tree_val<std::_Tree_simple_types<std::pair<int const ,bool> > > >
PUBLIC	?pointer_to@?$pointer_traits@PAU?$pair@$$CBH_N@std@@@std@@SAPAU?$pair@$$CBH_N@2@AAU32@@Z ; std::pointer_traits<std::pair<int const ,bool> *>::pointer_to
PUBLIC	??$_Find@H@?$_Tree@V?$_Tmap_traits@H_NU?$less@H@std@@V?$allocator@U?$pair@$$CBH_N@std@@@2@$0A@@std@@@std@@ABEPAU?$_Tree_node@U?$pair@$$CBH_N@std@@PAX@1@ABH@Z ; std::_Tree<std::_Tmap_traits<int,bool,std::less<int>,std::allocator<std::pair<int const ,bool> >,0> >::_Find<int>
PUBLIC	??$_Erase_tree@V?$allocator@U?$_Tree_node@U?$pair@$$CBH_N@std@@PAX@std@@@std@@@?$_Tree_val@U?$_Tree_simple_types@U?$pair@$$CBH_N@std@@@std@@@std@@QAEXAAV?$allocator@U?$_Tree_node@U?$pair@$$CBH_N@std@@PAX@std@@@1@PAU?$_Tree_node@U?$pair@$$CBH_N@std@@PAX@1@@Z ; std::_Tree_val<std::_Tree_simple_types<std::pair<int const ,bool> > >::_Erase_tree<std::allocator<std::_Tree_node<std::pair<int const ,bool>,void *> > >
PUBLIC	??$_Erase_head@V?$allocator@U?$_Tree_node@U?$pair@$$CBH_N@std@@PAX@std@@@std@@@?$_Tree_val@U?$_Tree_simple_types@U?$pair@$$CBH_N@std@@@std@@@std@@QAEXAAV?$allocator@U?$_Tree_node@U?$pair@$$CBH_N@std@@PAX@std@@@1@@Z ; std::_Tree_val<std::_Tree_simple_types<std::pair<int const ,bool> > >::_Erase_head<std::allocator<std::_Tree_node<std::pair<int const ,bool>,void *> > >
PUBLIC	??$addressof@U?$pair@$$CBH_N@std@@@std@@YAPAU?$pair@$$CBH_N@0@AAU10@@Z ; std::addressof<std::pair<int const ,bool> >
PUBLIC	??$addressof@V?$_Tree_val@U?$_Tree_simple_types@U?$pair@$$CBH_N@std@@@std@@@std@@@std@@YAPAV?$_Tree_val@U?$_Tree_simple_types@U?$pair@$$CBH_N@std@@@std@@@0@AAV10@@Z ; std::addressof<std::_Tree_val<std::_Tree_simple_types<std::pair<int const ,bool> > > >
PUBLIC	??$?0ABU?$less@H@std@@U_Zero_then_variadic_args_t@1@@?$_Compressed_pair@U?$less@H@std@@V?$_Compressed_pair@V?$allocator@U?$_Tree_node@U?$pair@$$CBH_N@std@@PAX@std@@@std@@V?$_Tree_val@U?$_Tree_simple_types@U?$pair@$$CBH_N@std@@@std@@@2@$00@2@$00@std@@QAE@U_One_then_variadic_args_t@1@ABU?$less@H@1@$$QAU_Zero_then_variadic_args_t@1@@Z ; std::_Compressed_pair<std::less<int>,std::_Compressed_pair<std::allocator<std::_Tree_node<std::pair<int const ,bool>,void *> >,std::_Tree_val<std::_Tree_simple_types<std::pair<int const ,bool> > >,1>,1>::_Compressed_pair<std::less<int>,std::_Compressed_pair<std::allocator<std::_Tree_node<std::pair<int const ,bool>,void *> >,std::_Tree_val<std::_Tree_simple_types<std::pair<int const ,bool> > >,1>,1><std::less<int> const &,std::_Zero_then_variadic_args_t>
PUBLIC	??$?0$$V@?$_Compressed_pair@V?$allocator@U?$_Tree_node@U?$pair@$$CBH_N@std@@PAX@std@@@std@@V?$_Tree_val@U?$_Tree_simple_types@U?$pair@$$CBH_N@std@@@std@@@2@$00@std@@QAE@U_Zero_then_variadic_args_t@1@@Z ; std::_Compressed_pair<std::allocator<std::_Tree_node<std::pair<int const ,bool>,void *> >,std::_Tree_val<std::_Tree_simple_types<std::pair<int const ,bool> > >,1>::_Compressed_pair<std::allocator<std::_Tree_node<std::pair<int const ,bool>,void *> >,std::_Tree_val<std::_Tree_simple_types<std::pair<int const ,bool> > >,1><>
PUBLIC	??$_Buyheadnode@V?$allocator@U?$_Tree_node@U?$pair@$$CBH_N@std@@PAX@std@@@std@@@?$_Tree_node@U?$pair@$$CBH_N@std@@PAX@std@@SAPAU01@AAV?$allocator@U?$_Tree_node@U?$pair@$$CBH_N@std@@PAX@std@@@1@@Z ; std::_Tree_node<std::pair<int const ,bool>,void *>::_Buyheadnode<std::allocator<std::_Tree_node<std::pair<int const ,bool>,void *> > >
PUBLIC	??$forward@AAH@std@@YAAAHAAH@Z			; std::forward<int &>
PUBLIC	??$forward@_N@std@@YA$$QA_NAA_N@Z		; std::forward<bool>
PUBLIC	??$?0AAH_N$0A@@?$pair@H_N@std@@QAE@AAH$$QA_N@Z	; std::pair<int,bool>::pair<int,bool><int &,bool,0>
PUBLIC	??$forward@U?$pair@H_N@std@@@std@@YA$$QAU?$pair@H_N@0@AAU10@@Z ; std::forward<std::pair<int,bool> >
PUBLIC	??$emplace@U?$pair@H_N@std@@@?$_Tree@V?$_Tmap_traits@H_NU?$less@H@std@@V?$allocator@U?$pair@$$CBH_N@std@@@2@$0A@@std@@@std@@QAE?AU?$pair@V?$_Tree_iterator@V?$_Tree_val@U?$_Tree_simple_types@U?$pair@$$CBH_N@std@@@std@@@std@@@std@@_N@1@$$QAU?$pair@H_N@1@@Z ; std::_Tree<std::_Tmap_traits<int,bool,std::less<int>,std::allocator<std::pair<int const ,bool> >,0> >::emplace<std::pair<int,bool> >
PUBLIC	??$_Find_lower_bound@H@?$_Tree@V?$_Tmap_traits@H_NU?$less@H@std@@V?$allocator@U?$pair@$$CBH_N@std@@@2@$0A@@std@@@std@@IBE?AU?$_Tree_find_result@PAU?$_Tree_node@U?$pair@$$CBH_N@std@@PAX@std@@@1@ABH@Z ; std::_Tree<std::_Tmap_traits<int,bool,std::less<int>,std::allocator<std::pair<int const ,bool> >,0> >::_Find_lower_bound<int>
PUBLIC	??$_Lower_bound_duplicate@H@?$_Tree@V?$_Tmap_traits@H_NU?$less@H@std@@V?$allocator@U?$pair@$$CBH_N@std@@@2@$0A@@std@@@std@@IBE_NQAU?$_Tree_node@U?$pair@$$CBH_N@std@@PAX@1@ABH@Z ; std::_Tree<std::_Tmap_traits<int,bool,std::less<int>,std::allocator<std::pair<int const ,bool> >,0> >::_Lower_bound_duplicate<int>
PUBLIC	??$exchange@PAU?$_Tree_node@U?$pair@$$CBH_N@std@@PAX@std@@AAPAU12@@std@@YAPAU?$_Tree_node@U?$pair@$$CBH_N@std@@PAX@0@AAPAU10@0@Z ; std::exchange<std::_Tree_node<std::pair<int const ,bool>,void *> *,std::_Tree_node<std::pair<int const ,bool>,void *> * &>
PUBLIC	??$_Freenode@V?$allocator@U?$_Tree_node@U?$pair@$$CBH_N@std@@PAX@std@@@std@@@?$_Tree_node@U?$pair@$$CBH_N@std@@PAX@std@@SAXAAV?$allocator@U?$_Tree_node@U?$pair@$$CBH_N@std@@PAX@std@@@1@PAU01@@Z ; std::_Tree_node<std::pair<int const ,bool>,void *>::_Freenode<std::allocator<std::_Tree_node<std::pair<int const ,bool>,void *> > >
PUBLIC	??$_Freenode0@V?$allocator@U?$_Tree_node@U?$pair@$$CBH_N@std@@PAX@std@@@std@@@?$_Tree_node@U?$pair@$$CBH_N@std@@PAX@std@@SAXAAV?$allocator@U?$_Tree_node@U?$pair@$$CBH_N@std@@PAX@std@@@1@PAU01@@Z ; std::_Tree_node<std::pair<int const ,bool>,void *>::_Freenode0<std::allocator<std::_Tree_node<std::pair<int const ,bool>,void *> > >
PUBLIC	??$forward@ABU?$less@H@std@@@std@@YAABU?$less@H@0@ABU10@@Z ; std::forward<std::less<int> const &>
PUBLIC	??$forward@U_Zero_then_variadic_args_t@std@@@std@@YA$$QAU_Zero_then_variadic_args_t@0@AAU10@@Z ; std::forward<std::_Zero_then_variadic_args_t>
PUBLIC	??$_Construct_in_place@PAU?$_Tree_node@U?$pair@$$CBH_N@std@@PAX@std@@ABQAU12@@std@@YAXAAPAU?$_Tree_node@U?$pair@$$CBH_N@std@@PAX@0@ABQAU10@@Z ; std::_Construct_in_place<std::_Tree_node<std::pair<int const ,bool>,void *> *,std::_Tree_node<std::pair<int const ,bool>,void *> * const &>
PUBLIC	??$addressof@$$CBV?$_Tree_val@U?$_Tree_simple_types@U?$pair@$$CBH_N@std@@@std@@@std@@@std@@YAPBV?$_Tree_val@U?$_Tree_simple_types@U?$pair@$$CBH_N@std@@@std@@@0@ABV10@@Z ; std::addressof<std::_Tree_val<std::_Tree_simple_types<std::pair<int const ,bool> > > const >
PUBLIC	??$_Get_size_of_n@$0BI@@std@@YAII@Z		; std::_Get_size_of_n<24>
PUBLIC	??$_Emplace@U?$pair@H_N@std@@@?$_Tree@V?$_Tmap_traits@H_NU?$less@H@std@@V?$allocator@U?$pair@$$CBH_N@std@@@2@$0A@@std@@@std@@IAE?AU?$pair@PAU?$_Tree_node@U?$pair@$$CBH_N@std@@PAX@std@@_N@1@$$QAU?$pair@H_N@1@@Z ; std::_Tree<std::_Tmap_traits<int,bool,std::less<int>,std::allocator<std::pair<int const ,bool> >,0> >::_Emplace<std::pair<int,bool> >
PUBLIC	??$?0V?$_Tree_iterator@V?$_Tree_val@U?$_Tree_simple_types@U?$pair@$$CBH_N@std@@@std@@@std@@@std@@AB_N$0A@@?$pair@V?$_Tree_iterator@V?$_Tree_val@U?$_Tree_simple_types@U?$pair@$$CBH_N@std@@@std@@@std@@@std@@_N@std@@QAE@$$QAV?$_Tree_iterator@V?$_Tree_val@U?$_Tree_simple_types@U?$pair@$$CBH_N@std@@@std@@@std@@@1@AB_N@Z ; std::pair<std::_Tree_iterator<std::_Tree_val<std::_Tree_simple_types<std::pair<int const ,bool> > > >,bool>::pair<std::_Tree_iterator<std::_Tree_val<std::_Tree_simple_types<std::pair<int const ,bool> > > >,bool><std::_Tree_iterator<std::_Tree_val<std::_Tree_simple_types<std::pair<int const ,bool> > > >,bool const &,0>
PUBLIC	??$_Kfn@$$CBH_N@?$_Tmap_traits@H_NU?$less@H@std@@V?$allocator@U?$pair@$$CBH_N@std@@@2@$0A@@std@@SAABHABU?$pair@$$CBH_N@1@@Z ; std::_Tmap_traits<int,bool,std::less<int>,std::allocator<std::pair<int const ,bool> >,0>::_Kfn<int const ,bool>
PUBLIC	??$destroy@U?$pair@$$CBH_N@std@@@?$_Default_allocator_traits@V?$allocator@U?$_Tree_node@U?$pair@$$CBH_N@std@@PAX@std@@@std@@@std@@SAXAAV?$allocator@U?$_Tree_node@U?$pair@$$CBH_N@std@@PAX@std@@@1@QAU?$pair@$$CBH_N@1@@Z ; std::_Default_allocator_traits<std::allocator<std::_Tree_node<std::pair<int const ,bool>,void *> > >::destroy<std::pair<int const ,bool> >
PUBLIC	??$_Destroy_in_place@PAU?$_Tree_node@U?$pair@$$CBH_N@std@@PAX@std@@@std@@YAXAAPAU?$_Tree_node@U?$pair@$$CBH_N@std@@PAX@0@@Z ; std::_Destroy_in_place<std::_Tree_node<std::pair<int const ,bool>,void *> *>
PUBLIC	??$addressof@PAU?$_Tree_node@U?$pair@$$CBH_N@std@@PAX@std@@@std@@YAPAPAU?$_Tree_node@U?$pair@$$CBH_N@std@@PAX@0@AAPAU10@@Z ; std::addressof<std::_Tree_node<std::pair<int const ,bool>,void *> *>
PUBLIC	??$forward@ABQAU?$_Tree_node@U?$pair@$$CBH_N@std@@PAX@std@@@std@@YAABQAU?$_Tree_node@U?$pair@$$CBH_N@std@@PAX@0@ABQAU10@@Z ; std::forward<std::_Tree_node<std::pair<int const ,bool>,void *> * const &>
PUBLIC	?_Extract@?$_In_place_key_extract_map@HU?$pair@H_N@std@@@std@@SAABHABU?$pair@H_N@2@@Z ; std::_In_place_key_extract_map<int,std::pair<int,bool> >::_Extract
PUBLIC	??$?0AAPAU?$_Tree_node@U?$pair@$$CBH_N@std@@PAX@std@@_N$0A@@?$pair@PAU?$_Tree_node@U?$pair@$$CBH_N@std@@PAX@std@@_N@std@@QAE@AAPAU?$_Tree_node@U?$pair@$$CBH_N@std@@PAX@1@$$QA_N@Z ; std::pair<std::_Tree_node<std::pair<int const ,bool>,void *> *,bool>::pair<std::_Tree_node<std::pair<int const ,bool>,void *> *,bool><std::_Tree_node<std::pair<int const ,bool>,void *> * &,bool,0>
PUBLIC	??0?$_Alloc_construct_ptr@V?$allocator@U?$_Tree_node@U?$pair@$$CBH_N@std@@PAX@std@@@std@@@std@@QAE@AAV?$allocator@U?$_Tree_node@U?$pair@$$CBH_N@std@@PAX@std@@@1@@Z ; std::_Alloc_construct_ptr<std::allocator<std::_Tree_node<std::pair<int const ,bool>,void *> > >::_Alloc_construct_ptr<std::allocator<std::_Tree_node<std::pair<int const ,bool>,void *> > >
PUBLIC	?_Release@?$_Alloc_construct_ptr@V?$allocator@U?$_Tree_node@U?$pair@$$CBH_N@std@@PAX@std@@@std@@@std@@QAEPAU?$_Tree_node@U?$pair@$$CBH_N@std@@PAX@2@XZ ; std::_Alloc_construct_ptr<std::allocator<std::_Tree_node<std::pair<int const ,bool>,void *> > >::_Release
PUBLIC	?_Allocate@?$_Alloc_construct_ptr@V?$allocator@U?$_Tree_node@U?$pair@$$CBH_N@std@@PAX@std@@@std@@@std@@QAEXXZ ; std::_Alloc_construct_ptr<std::allocator<std::_Tree_node<std::pair<int const ,bool>,void *> > >::_Allocate
PUBLIC	??1?$_Alloc_construct_ptr@V?$allocator@U?$_Tree_node@U?$pair@$$CBH_N@std@@PAX@std@@@std@@@std@@QAE@XZ ; std::_Alloc_construct_ptr<std::allocator<std::_Tree_node<std::pair<int const ,bool>,void *> > >::~_Alloc_construct_ptr<std::allocator<std::_Tree_node<std::pair<int const ,bool>,void *> > >
PUBLIC	??0?$_Tree_temp_node_alloc@V?$allocator@U?$_Tree_node@U?$pair@$$CBH_N@std@@PAX@std@@@std@@@std@@QAE@AAV?$allocator@U?$_Tree_node@U?$pair@$$CBH_N@std@@PAX@std@@@1@@Z ; std::_Tree_temp_node_alloc<std::allocator<std::_Tree_node<std::pair<int const ,bool>,void *> > >::_Tree_temp_node_alloc<std::allocator<std::_Tree_node<std::pair<int const ,bool>,void *> > >
PUBLIC	??1?$_Tree_temp_node_alloc@V?$allocator@U?$_Tree_node@U?$pair@$$CBH_N@std@@PAX@std@@@std@@@std@@QAE@XZ ; std::_Tree_temp_node_alloc<std::allocator<std::_Tree_node<std::pair<int const ,bool>,void *> > >::~_Tree_temp_node_alloc<std::allocator<std::_Tree_node<std::pair<int const ,bool>,void *> > >
PUBLIC	??1?$_Tree_temp_node@V?$allocator@U?$_Tree_node@U?$pair@$$CBH_N@std@@PAX@std@@@std@@@std@@QAE@XZ ; std::_Tree_temp_node<std::allocator<std::_Tree_node<std::pair<int const ,bool>,void *> > >::~_Tree_temp_node<std::allocator<std::_Tree_node<std::pair<int const ,bool>,void *> > >
PUBLIC	??$?0U?$pair@H_N@std@@@?$_Tree_temp_node@V?$allocator@U?$_Tree_node@U?$pair@$$CBH_N@std@@PAX@std@@@std@@@std@@QAE@AAV?$allocator@U?$_Tree_node@U?$pair@$$CBH_N@std@@PAX@std@@@1@PAU?$_Tree_node@U?$pair@$$CBH_N@std@@PAX@1@$$QAU?$pair@H_N@1@@Z ; std::_Tree_temp_node<std::allocator<std::_Tree_node<std::pair<int const ,bool>,void *> > >::_Tree_temp_node<std::allocator<std::_Tree_node<std::pair<int const ,bool>,void *> > ><std::pair<int,bool> >
PUBLIC	??$?0PAU?$_Tree_node@U?$pair@$$CBH_N@std@@PAX@std@@_N$0A@@?$pair@PAU?$_Tree_node@U?$pair@$$CBH_N@std@@PAX@std@@_N@std@@QAE@$$QAPAU?$_Tree_node@U?$pair@$$CBH_N@std@@PAX@1@$$QA_N@Z ; std::pair<std::_Tree_node<std::pair<int const ,bool>,void *> *,bool>::pair<std::_Tree_node<std::pair<int const ,bool>,void *> *,bool><std::_Tree_node<std::pair<int const ,bool>,void *> *,bool,0>
PUBLIC	??$forward@V?$_Tree_iterator@V?$_Tree_val@U?$_Tree_simple_types@U?$pair@$$CBH_N@std@@@std@@@std@@@std@@@std@@YA$$QAV?$_Tree_iterator@V?$_Tree_val@U?$_Tree_simple_types@U?$pair@$$CBH_N@std@@@std@@@std@@@0@AAV10@@Z ; std::forward<std::_Tree_iterator<std::_Tree_val<std::_Tree_simple_types<std::pair<int const ,bool> > > > >
PUBLIC	??$forward@AB_N@std@@YAAB_NAB_N@Z		; std::forward<bool const &>
PUBLIC	??$exchange@PAU?$_Tree_node@U?$pair@$$CBH_N@std@@PAX@std@@$$T@std@@YAPAU?$_Tree_node@U?$pair@$$CBH_N@std@@PAX@0@AAPAU10@$$QA$$T@Z ; std::exchange<std::_Tree_node<std::pair<int const ,bool>,void *> *,std::nullptr_t>
PUBLIC	??$forward@AAPAU?$_Tree_node@U?$pair@$$CBH_N@std@@PAX@std@@@std@@YAAAPAU?$_Tree_node@U?$pair@$$CBH_N@std@@PAX@0@AAPAU10@@Z ; std::forward<std::_Tree_node<std::pair<int const ,bool>,void *> * &>
PUBLIC	??$construct@U?$pair@$$CBH_N@std@@U?$pair@H_N@2@@?$_Default_allocator_traits@V?$allocator@U?$_Tree_node@U?$pair@$$CBH_N@std@@PAX@std@@@std@@@std@@SAXAAV?$allocator@U?$_Tree_node@U?$pair@$$CBH_N@std@@PAX@std@@@1@QAU?$pair@$$CBH_N@1@$$QAU?$pair@H_N@1@@Z ; std::_Default_allocator_traits<std::allocator<std::_Tree_node<std::pair<int const ,bool>,void *> > >::construct<std::pair<int const ,bool>,std::pair<int,bool> >
PUBLIC	??$_Construct_in_place@PAU?$_Tree_node@U?$pair@$$CBH_N@std@@PAX@std@@AAPAU12@@std@@YAXAAPAU?$_Tree_node@U?$pair@$$CBH_N@std@@PAX@0@0@Z ; std::_Construct_in_place<std::_Tree_node<std::pair<int const ,bool>,void *> *,std::_Tree_node<std::pair<int const ,bool>,void *> * &>
PUBLIC	??$forward@PAU?$_Tree_node@U?$pair@$$CBH_N@std@@PAX@std@@@std@@YA$$QAPAU?$_Tree_node@U?$pair@$$CBH_N@std@@PAX@0@AAPAU10@@Z ; std::forward<std::_Tree_node<std::pair<int const ,bool>,void *> *>
PUBLIC	??$forward@H@std@@YA$$QAHAAH@Z			; std::forward<int>
PUBLIC	??_7exception@std@@6B@				; std::exception::`vftable'
PUBLIC	??_C@_0BC@EOODALEL@Unknown?5exception@		; `string'
PUBLIC	??_7bad_alloc@std@@6B@				; std::bad_alloc::`vftable'
PUBLIC	??_7bad_array_new_length@std@@6B@		; std::bad_array_new_length::`vftable'
PUBLIC	??_C@_0BF@KINCDENJ@bad?5array?5new?5length@	; `string'
PUBLIC	__TI3?AVbad_array_new_length@std@@
PUBLIC	__CTA3?AVbad_array_new_length@std@@
PUBLIC	??_R0?AVbad_array_new_length@std@@@8		; std::bad_array_new_length `RTTI Type Descriptor'
PUBLIC	__CT??_R0?AVbad_array_new_length@std@@@8??0bad_array_new_length@std@@QAE@ABV01@@Z12
PUBLIC	??_R0?AVbad_alloc@std@@@8			; std::bad_alloc `RTTI Type Descriptor'
PUBLIC	__CT??_R0?AVbad_alloc@std@@@8??0bad_alloc@std@@QAE@ABV01@@Z12
PUBLIC	??_R0?AVexception@std@@@8			; std::exception `RTTI Type Descriptor'
PUBLIC	__CT??_R0?AVexception@std@@@8??0exception@std@@QAE@ABV01@@Z12
PUBLIC	??_C@_00CNPNBAHC@@				; `string'
PUBLIC	??_C@_0BB@GCADKGJO@map?1set?5too?5long@		; `string'
PUBLIC	?g_ArrowSystem@@3VCArrowSystem@@A		; g_ArrowSystem
PUBLIC	??_R4exception@std@@6B@				; std::exception::`RTTI Complete Object Locator'
PUBLIC	??_R3exception@std@@8				; std::exception::`RTTI Class Hierarchy Descriptor'
PUBLIC	??_R2exception@std@@8				; std::exception::`RTTI Base Class Array'
PUBLIC	??_R1A@?0A@EA@exception@std@@8			; std::exception::`RTTI Base Class Descriptor at (0,-1,0,64)'
PUBLIC	??_R4bad_alloc@std@@6B@				; std::bad_alloc::`RTTI Complete Object Locator'
PUBLIC	??_R3bad_alloc@std@@8				; std::bad_alloc::`RTTI Class Hierarchy Descriptor'
PUBLIC	??_R2bad_alloc@std@@8				; std::bad_alloc::`RTTI Base Class Array'
PUBLIC	??_R1A@?0A@EA@bad_alloc@std@@8			; std::bad_alloc::`RTTI Base Class Descriptor at (0,-1,0,64)'
PUBLIC	??_R4bad_array_new_length@std@@6B@		; std::bad_array_new_length::`RTTI Complete Object Locator'
PUBLIC	??_R3bad_array_new_length@std@@8		; std::bad_array_new_length::`RTTI Class Hierarchy Descriptor'
PUBLIC	??_R2bad_array_new_length@std@@8		; std::bad_array_new_length::`RTTI Base Class Array'
PUBLIC	??_R1A@?0A@EA@bad_array_new_length@std@@8	; std::bad_array_new_length::`RTTI Base Class Descriptor at (0,-1,0,64)'
PUBLIC	??_C@_0DD@CLLMAPM@?$FLArrow?5System?$FN?5?9?5File?5load?5erro@ ; `string'
PUBLIC	??_C@_01KDCPPGHE@r@				; `string'
PUBLIC	??_C@_0CI@HBGODHHP@?$FLArrow?5System?$FN?5Info?5file?5Load?5F@ ; `string'
PUBLIC	??_C@_03JBJLGPFL@end@				; `string'
PUBLIC	__TI2PAD
PUBLIC	__CTA2PAD
PUBLIC	??_R0PAD@8					; char * `RTTI Type Descriptor'
PUBLIC	__CT??_R0PAD@84
PUBLIC	??_R0PAX@8					; void * `RTTI Type Descriptor'
PUBLIC	__CT??_R0PAX@84
PUBLIC	??_C@_0BH@PDAGGAGG@Item?5type?5out?5of?5range@	; `string'
PUBLIC	??_C@_0BI@FJIGPCBB@Item?5index?5out?5of?5range@	; `string'
PUBLIC	??_C@_0BN@GPFJCFGG@?$FLArrow?5System?$FN?5?$CFs?5file?5load?$CB@ ; `string'
PUBLIC	??_C@_0BP@COOBEOMG@?$FLArrow?5System?$FN?5Free?5Arrow?5Mode@ ; `string'
PUBLIC	??_C@_0BO@NPJJIBGP@?$FLArrow?5System?$FN?5Item?5List?5Mode@ ; `string'
PUBLIC	??_C@_0DM@DHEFFDMD@?$FLArrow?5System?$FN?5?9?5Loading?5Except@ ; `string'
PUBLIC	__real@00000000
PUBLIC	__real@41f80000
EXTRN	??2@YAPAXI@Z:PROC				; operator new
EXTRN	??3@YAXPAXI@Z:PROC				; operator delete
EXTRN	_atexit:PROC
EXTRN	___report_rangecheckfailure:PROC
EXTRN	__invalid_parameter_noinfo_noreturn:PROC
EXTRN	_isalpha:PROC
EXTRN	_isdigit:PROC
EXTRN	_isspace:PROC
EXTRN	_isalnum:PROC
EXTRN	_strcmp:PROC
EXTRN	__imp__InitializeCriticalSection@4:PROC
EXTRN	__imp__EnterCriticalSection@4:PROC
EXTRN	__imp__LeaveCriticalSection@4:PROC
EXTRN	__imp__DeleteCriticalSection@4:PROC
EXTRN	_fclose:PROC
EXTRN	_fgetc:PROC
EXTRN	_fopen:PROC
EXTRN	_getc:PROC
EXTRN	_ungetc:PROC
EXTRN	_atof:PROC
EXTRN	?MsgBox@@YAXPADZZ:PROC				; MsgBox
EXTRN	?_Xlength_error@std@@YAXPBD@Z:PROC		; std::_Xlength_error
EXTRN	___std_exception_copy:PROC
EXTRN	___std_exception_destroy:PROC
EXTRN	??_Eexception@std@@UAEPAXI@Z:PROC		; std::exception::`vector deleting destructor'
EXTRN	??_Ebad_alloc@std@@UAEPAXI@Z:PROC		; std::bad_alloc::`vector deleting destructor'
EXTRN	??_Ebad_array_new_length@std@@UAEPAXI@Z:PROC	; std::bad_array_new_length::`vector deleting destructor'
EXTRN	?ItemGetNumberMake@@YAHHH@Z:PROC		; ItemGetNumberMake
EXTRN	@__security_check_cookie@4:PROC
EXTRN	__CxxThrowException@8:PROC
EXTRN	___CxxFrameHandler3:PROC
EXTRN	??_7type_info@@6B@:QWORD			; type_info::`vftable'
EXTRN	?LogAdd@@3P6AXPADZZA:DWORD			; LogAdd
EXTRN	___security_cookie:DWORD
EXTRN	__fltused:DWORD
_BSS	SEGMENT
?g_ArrowSystem@@3VCArrowSystem@@A DB 024H DUP (?)	; g_ArrowSystem
?SMDFile@@3PAU_iobuf@@A DD 01H DUP (?)			; SMDFile
?TokenNumber@@3MA DD 01H DUP (?)			; TokenNumber
?TokenString@@3PADA DB 064H DUP (?)			; TokenString
?CurrentToken@@3W4SMDToken@@A DD 01H DUP (?)		; CurrentToken
_BSS	ENDS
CRT$XCU	SEGMENT
?g_ArrowSystem$initializer$@@3P6AXXZA DD FLAT:??__Eg_ArrowSystem@@YAXXZ ; g_ArrowSystem$initializer$
CRT$XCU	ENDS
;	COMDAT __real@41f80000
CONST	SEGMENT
__real@41f80000 DD 041f80000r			; 31
CONST	ENDS
;	COMDAT __real@00000000
CONST	SEGMENT
__real@00000000 DD 000000000r			; 0
CONST	ENDS
;	COMDAT ??_C@_0DM@DHEFFDMD@?$FLArrow?5System?$FN?5?9?5Loading?5Except@
CONST	SEGMENT
??_C@_0DM@DHEFFDMD@?$FLArrow?5System?$FN?5?9?5Loading?5Except@ DB '[Arrow'
	DB	' System] - Loading Exception Error (%s) - (%s) File. ', 00H ; `string'
CONST	ENDS
;	COMDAT ??_C@_0BO@NPJJIBGP@?$FLArrow?5System?$FN?5Item?5List?5Mode@
CONST	SEGMENT
??_C@_0BO@NPJJIBGP@?$FLArrow?5System?$FN?5Item?5List?5Mode@ DB '[Arrow Sy'
	DB	'stem] Item List Mode', 00H			; `string'
CONST	ENDS
;	COMDAT ??_C@_0BP@COOBEOMG@?$FLArrow?5System?$FN?5Free?5Arrow?5Mode@
CONST	SEGMENT
??_C@_0BP@COOBEOMG@?$FLArrow?5System?$FN?5Free?5Arrow?5Mode@ DB '[Arrow S'
	DB	'ystem] Free Arrow Mode', 00H		; `string'
CONST	ENDS
;	COMDAT ??_C@_0BN@GPFJCFGG@?$FLArrow?5System?$FN?5?$CFs?5file?5load?$CB@
CONST	SEGMENT
??_C@_0BN@GPFJCFGG@?$FLArrow?5System?$FN?5?$CFs?5file?5load?$CB@ DB '[Arr'
	DB	'ow System] %s file load!', 00H		; `string'
CONST	ENDS
;	COMDAT ??_C@_0BI@FJIGPCBB@Item?5index?5out?5of?5range@
CONST	SEGMENT
??_C@_0BI@FJIGPCBB@Item?5index?5out?5of?5range@ DB 'Item index out of ran'
	DB	'ge', 00H					; `string'
CONST	ENDS
;	COMDAT ??_C@_0BH@PDAGGAGG@Item?5type?5out?5of?5range@
CONST	SEGMENT
??_C@_0BH@PDAGGAGG@Item?5type?5out?5of?5range@ DB 'Item type out of range'
	DB	00H						; `string'
CONST	ENDS
;	COMDAT __CT??_R0PAX@84
xdata$x	SEGMENT
__CT??_R0PAX@84 DD 01H
	DD	FLAT:??_R0PAX@8
	DD	00H
	DD	0ffffffffH
	ORG $+4
	DD	04H
	DD	00H
xdata$x	ENDS
;	COMDAT ??_R0PAX@8
data$r	SEGMENT
??_R0PAX@8 DD	FLAT:??_7type_info@@6B@			; void * `RTTI Type Descriptor'
	DD	00H
	DB	'.PAX', 00H
data$r	ENDS
;	COMDAT __CT??_R0PAD@84
xdata$x	SEGMENT
__CT??_R0PAD@84 DD 01H
	DD	FLAT:??_R0PAD@8
	DD	00H
	DD	0ffffffffH
	ORG $+4
	DD	04H
	DD	00H
xdata$x	ENDS
;	COMDAT ??_R0PAD@8
data$r	SEGMENT
??_R0PAD@8 DD	FLAT:??_7type_info@@6B@			; char * `RTTI Type Descriptor'
	DD	00H
	DB	'.PAD', 00H
data$r	ENDS
;	COMDAT __CTA2PAD
xdata$x	SEGMENT
__CTA2PAD DD	02H
	DD	FLAT:__CT??_R0PAD@84
	DD	FLAT:__CT??_R0PAX@84
xdata$x	ENDS
;	COMDAT __TI2PAD
xdata$x	SEGMENT
__TI2PAD DD	00H
	DD	00H
	DD	00H
	DD	FLAT:__CTA2PAD
xdata$x	ENDS
;	COMDAT ??_C@_03JBJLGPFL@end@
CONST	SEGMENT
??_C@_03JBJLGPFL@end@ DB 'end', 00H			; `string'
CONST	ENDS
;	COMDAT ??_C@_0CI@HBGODHHP@?$FLArrow?5System?$FN?5Info?5file?5Load?5F@
CONST	SEGMENT
??_C@_0CI@HBGODHHP@?$FLArrow?5System?$FN?5Info?5file?5Load?5F@ DB '[Arrow'
	DB	' System] Info file Load Fail [%s]', 00H	; `string'
CONST	ENDS
;	COMDAT ??_C@_01KDCPPGHE@r@
CONST	SEGMENT
??_C@_01KDCPPGHE@r@ DB 'r', 00H				; `string'
CONST	ENDS
;	COMDAT ??_C@_0DD@CLLMAPM@?$FLArrow?5System?$FN?5?9?5File?5load?5erro@
CONST	SEGMENT
??_C@_0DD@CLLMAPM@?$FLArrow?5System?$FN?5?9?5File?5load?5erro@ DB '[Arrow'
	DB	' System] - File load error : File Name Error', 00H ; `string'
CONST	ENDS
;	COMDAT ??_R1A@?0A@EA@bad_array_new_length@std@@8
rdata$r	SEGMENT
??_R1A@?0A@EA@bad_array_new_length@std@@8 DD FLAT:??_R0?AVbad_array_new_length@std@@@8 ; std::bad_array_new_length::`RTTI Base Class Descriptor at (0,-1,0,64)'
	DD	02H
	DD	00H
	DD	0ffffffffH
	DD	00H
	DD	040H
	DD	FLAT:??_R3bad_array_new_length@std@@8
rdata$r	ENDS
;	COMDAT ??_R2bad_array_new_length@std@@8
rdata$r	SEGMENT
??_R2bad_array_new_length@std@@8 DD FLAT:??_R1A@?0A@EA@bad_array_new_length@std@@8 ; std::bad_array_new_length::`RTTI Base Class Array'
	DD	FLAT:??_R1A@?0A@EA@bad_alloc@std@@8
	DD	FLAT:??_R1A@?0A@EA@exception@std@@8
rdata$r	ENDS
;	COMDAT ??_R3bad_array_new_length@std@@8
rdata$r	SEGMENT
??_R3bad_array_new_length@std@@8 DD 00H			; std::bad_array_new_length::`RTTI Class Hierarchy Descriptor'
	DD	00H
	DD	03H
	DD	FLAT:??_R2bad_array_new_length@std@@8
rdata$r	ENDS
;	COMDAT ??_R4bad_array_new_length@std@@6B@
rdata$r	SEGMENT
??_R4bad_array_new_length@std@@6B@ DD 00H		; std::bad_array_new_length::`RTTI Complete Object Locator'
	DD	00H
	DD	00H
	DD	FLAT:??_R0?AVbad_array_new_length@std@@@8
	DD	FLAT:??_R3bad_array_new_length@std@@8
rdata$r	ENDS
;	COMDAT ??_R1A@?0A@EA@bad_alloc@std@@8
rdata$r	SEGMENT
??_R1A@?0A@EA@bad_alloc@std@@8 DD FLAT:??_R0?AVbad_alloc@std@@@8 ; std::bad_alloc::`RTTI Base Class Descriptor at (0,-1,0,64)'
	DD	01H
	DD	00H
	DD	0ffffffffH
	DD	00H
	DD	040H
	DD	FLAT:??_R3bad_alloc@std@@8
rdata$r	ENDS
;	COMDAT ??_R2bad_alloc@std@@8
rdata$r	SEGMENT
??_R2bad_alloc@std@@8 DD FLAT:??_R1A@?0A@EA@bad_alloc@std@@8 ; std::bad_alloc::`RTTI Base Class Array'
	DD	FLAT:??_R1A@?0A@EA@exception@std@@8
rdata$r	ENDS
;	COMDAT ??_R3bad_alloc@std@@8
rdata$r	SEGMENT
??_R3bad_alloc@std@@8 DD 00H				; std::bad_alloc::`RTTI Class Hierarchy Descriptor'
	DD	00H
	DD	02H
	DD	FLAT:??_R2bad_alloc@std@@8
rdata$r	ENDS
;	COMDAT ??_R4bad_alloc@std@@6B@
rdata$r	SEGMENT
??_R4bad_alloc@std@@6B@ DD 00H				; std::bad_alloc::`RTTI Complete Object Locator'
	DD	00H
	DD	00H
	DD	FLAT:??_R0?AVbad_alloc@std@@@8
	DD	FLAT:??_R3bad_alloc@std@@8
rdata$r	ENDS
;	COMDAT ??_R1A@?0A@EA@exception@std@@8
rdata$r	SEGMENT
??_R1A@?0A@EA@exception@std@@8 DD FLAT:??_R0?AVexception@std@@@8 ; std::exception::`RTTI Base Class Descriptor at (0,-1,0,64)'
	DD	00H
	DD	00H
	DD	0ffffffffH
	DD	00H
	DD	040H
	DD	FLAT:??_R3exception@std@@8
rdata$r	ENDS
;	COMDAT ??_R2exception@std@@8
rdata$r	SEGMENT
??_R2exception@std@@8 DD FLAT:??_R1A@?0A@EA@exception@std@@8 ; std::exception::`RTTI Base Class Array'
rdata$r	ENDS
;	COMDAT ??_R3exception@std@@8
rdata$r	SEGMENT
??_R3exception@std@@8 DD 00H				; std::exception::`RTTI Class Hierarchy Descriptor'
	DD	00H
	DD	01H
	DD	FLAT:??_R2exception@std@@8
rdata$r	ENDS
;	COMDAT ??_R4exception@std@@6B@
rdata$r	SEGMENT
??_R4exception@std@@6B@ DD 00H				; std::exception::`RTTI Complete Object Locator'
	DD	00H
	DD	00H
	DD	FLAT:??_R0?AVexception@std@@@8
	DD	FLAT:??_R3exception@std@@8
rdata$r	ENDS
;	COMDAT ??_C@_0BB@GCADKGJO@map?1set?5too?5long@
CONST	SEGMENT
??_C@_0BB@GCADKGJO@map?1set?5too?5long@ DB 'map/set too long', 00H ; `string'
CONST	ENDS
;	COMDAT ??_C@_00CNPNBAHC@@
CONST	SEGMENT
??_C@_00CNPNBAHC@@ DB 00H				; `string'
CONST	ENDS
;	COMDAT __CT??_R0?AVexception@std@@@8??0exception@std@@QAE@ABV01@@Z12
xdata$x	SEGMENT
__CT??_R0?AVexception@std@@@8??0exception@std@@QAE@ABV01@@Z12 DD 00H
	DD	FLAT:??_R0?AVexception@std@@@8
	DD	00H
	DD	0ffffffffH
	ORG $+4
	DD	0cH
	DD	FLAT:??0exception@std@@QAE@ABV01@@Z
xdata$x	ENDS
;	COMDAT ??_R0?AVexception@std@@@8
data$r	SEGMENT
??_R0?AVexception@std@@@8 DD FLAT:??_7type_info@@6B@	; std::exception `RTTI Type Descriptor'
	DD	00H
	DB	'.?AVexception@std@@', 00H
data$r	ENDS
;	COMDAT __CT??_R0?AVbad_alloc@std@@@8??0bad_alloc@std@@QAE@ABV01@@Z12
xdata$x	SEGMENT
__CT??_R0?AVbad_alloc@std@@@8??0bad_alloc@std@@QAE@ABV01@@Z12 DD 010H
	DD	FLAT:??_R0?AVbad_alloc@std@@@8
	DD	00H
	DD	0ffffffffH
	ORG $+4
	DD	0cH
	DD	FLAT:??0bad_alloc@std@@QAE@ABV01@@Z
xdata$x	ENDS
;	COMDAT ??_R0?AVbad_alloc@std@@@8
data$r	SEGMENT
??_R0?AVbad_alloc@std@@@8 DD FLAT:??_7type_info@@6B@	; std::bad_alloc `RTTI Type Descriptor'
	DD	00H
	DB	'.?AVbad_alloc@std@@', 00H
data$r	ENDS
;	COMDAT __CT??_R0?AVbad_array_new_length@std@@@8??0bad_array_new_length@std@@QAE@ABV01@@Z12
xdata$x	SEGMENT
__CT??_R0?AVbad_array_new_length@std@@@8??0bad_array_new_length@std@@QAE@ABV01@@Z12 DD 00H
	DD	FLAT:??_R0?AVbad_array_new_length@std@@@8
	DD	00H
	DD	0ffffffffH
	ORG $+4
	DD	0cH
	DD	FLAT:??0bad_array_new_length@std@@QAE@ABV01@@Z
xdata$x	ENDS
;	COMDAT ??_R0?AVbad_array_new_length@std@@@8
data$r	SEGMENT
??_R0?AVbad_array_new_length@std@@@8 DD FLAT:??_7type_info@@6B@ ; std::bad_array_new_length `RTTI Type Descriptor'
	DD	00H
	DB	'.?AVbad_array_new_length@std@@', 00H
data$r	ENDS
;	COMDAT __CTA3?AVbad_array_new_length@std@@
xdata$x	SEGMENT
__CTA3?AVbad_array_new_length@std@@ DD 03H
	DD	FLAT:__CT??_R0?AVbad_array_new_length@std@@@8??0bad_array_new_length@std@@QAE@ABV01@@Z12
	DD	FLAT:__CT??_R0?AVbad_alloc@std@@@8??0bad_alloc@std@@QAE@ABV01@@Z12
	DD	FLAT:__CT??_R0?AVexception@std@@@8??0exception@std@@QAE@ABV01@@Z12
xdata$x	ENDS
;	COMDAT __TI3?AVbad_array_new_length@std@@
xdata$x	SEGMENT
__TI3?AVbad_array_new_length@std@@ DD 00H
	DD	FLAT:??1bad_array_new_length@std@@UAE@XZ
	DD	00H
	DD	FLAT:__CTA3?AVbad_array_new_length@std@@
xdata$x	ENDS
;	COMDAT ??_C@_0BF@KINCDENJ@bad?5array?5new?5length@
CONST	SEGMENT
??_C@_0BF@KINCDENJ@bad?5array?5new?5length@ DB 'bad array new length', 00H ; `string'
CONST	ENDS
;	COMDAT ??_7bad_array_new_length@std@@6B@
CONST	SEGMENT
??_7bad_array_new_length@std@@6B@ DD FLAT:??_R4bad_array_new_length@std@@6B@ ; std::bad_array_new_length::`vftable'
	DD	FLAT:??_Ebad_array_new_length@std@@UAEPAXI@Z
	DD	FLAT:?what@exception@std@@UBEPBDXZ
CONST	ENDS
;	COMDAT ??_7bad_alloc@std@@6B@
CONST	SEGMENT
??_7bad_alloc@std@@6B@ DD FLAT:??_R4bad_alloc@std@@6B@	; std::bad_alloc::`vftable'
	DD	FLAT:??_Ebad_alloc@std@@UAEPAXI@Z
	DD	FLAT:?what@exception@std@@UBEPBDXZ
CONST	ENDS
;	COMDAT ??_C@_0BC@EOODALEL@Unknown?5exception@
CONST	SEGMENT
??_C@_0BC@EOODALEL@Unknown?5exception@ DB 'Unknown exception', 00H ; `string'
CONST	ENDS
;	COMDAT ??_7exception@std@@6B@
CONST	SEGMENT
??_7exception@std@@6B@ DD FLAT:??_R4exception@std@@6B@	; std::exception::`vftable'
	DD	FLAT:??_Eexception@std@@UAEPAXI@Z
	DD	FLAT:?what@exception@std@@UBEPBDXZ
CONST	ENDS
;	COMDAT xdata$x
xdata$x	SEGMENT
__unwindtable$??$?0U?$pair@H_N@std@@@?$_Tree_temp_node@V?$allocator@U?$_Tree_node@U?$pair@$$CBH_N@std@@PAX@std@@@std@@@std@@QAE@AAV?$allocator@U?$_Tree_node@U?$pair@$$CBH_N@std@@PAX@std@@@1@PAU?$_Tree_node@U?$pair@$$CBH_N@std@@PAX@1@$$QAU?$pair@H_N@1@@Z DD 0ffffffffH
	DD	FLAT:__unwindfunclet$??$?0U?$pair@H_N@std@@@?$_Tree_temp_node@V?$allocator@U?$_Tree_node@U?$pair@$$CBH_N@std@@PAX@std@@@std@@@std@@QAE@AAV?$allocator@U?$_Tree_node@U?$pair@$$CBH_N@std@@PAX@std@@@1@PAU?$_Tree_node@U?$pair@$$CBH_N@std@@PAX@1@$$QAU?$pair@H_N@1@@Z$0
__ehfuncinfo$??$?0U?$pair@H_N@std@@@?$_Tree_temp_node@V?$allocator@U?$_Tree_node@U?$pair@$$CBH_N@std@@PAX@std@@@std@@@std@@QAE@AAV?$allocator@U?$_Tree_node@U?$pair@$$CBH_N@std@@PAX@std@@@1@PAU?$_Tree_node@U?$pair@$$CBH_N@std@@PAX@1@$$QAU?$pair@H_N@1@@Z DD 019930522H
	DD	01H
	DD	FLAT:__unwindtable$??$?0U?$pair@H_N@std@@@?$_Tree_temp_node@V?$allocator@U?$_Tree_node@U?$pair@$$CBH_N@std@@PAX@std@@@std@@@std@@QAE@AAV?$allocator@U?$_Tree_node@U?$pair@$$CBH_N@std@@PAX@std@@@1@PAU?$_Tree_node@U?$pair@$$CBH_N@std@@PAX@1@$$QAU?$pair@H_N@1@@Z
	DD	2 DUP(00H)
	DD	2 DUP(00H)
	DD	00H
	DD	01H
xdata$x	ENDS
;	COMDAT xdata$x
xdata$x	SEGMENT
__ehfuncinfo$??1?$_Tree_temp_node@V?$allocator@U?$_Tree_node@U?$pair@$$CBH_N@std@@PAX@std@@@std@@@std@@QAE@XZ DD 019930522H
	DD	00H
	DD	00H
	DD	2 DUP(00H)
	DD	2 DUP(00H)
	DD	00H
	DD	05H
xdata$x	ENDS
;	COMDAT xdata$x
xdata$x	SEGMENT
__unwindtable$??0?$_Tree_temp_node_alloc@V?$allocator@U?$_Tree_node@U?$pair@$$CBH_N@std@@PAX@std@@@std@@@std@@QAE@AAV?$allocator@U?$_Tree_node@U?$pair@$$CBH_N@std@@PAX@std@@@1@@Z DD 0ffffffffH
	DD	FLAT:__unwindfunclet$??0?$_Tree_temp_node_alloc@V?$allocator@U?$_Tree_node@U?$pair@$$CBH_N@std@@PAX@std@@@std@@@std@@QAE@AAV?$allocator@U?$_Tree_node@U?$pair@$$CBH_N@std@@PAX@std@@@1@@Z$0
__ehfuncinfo$??0?$_Tree_temp_node_alloc@V?$allocator@U?$_Tree_node@U?$pair@$$CBH_N@std@@PAX@std@@@std@@@std@@QAE@AAV?$allocator@U?$_Tree_node@U?$pair@$$CBH_N@std@@PAX@std@@@1@@Z DD 019930522H
	DD	01H
	DD	FLAT:__unwindtable$??0?$_Tree_temp_node_alloc@V?$allocator@U?$_Tree_node@U?$pair@$$CBH_N@std@@PAX@std@@@std@@@std@@QAE@AAV?$allocator@U?$_Tree_node@U?$pair@$$CBH_N@std@@PAX@std@@@1@@Z
	DD	2 DUP(00H)
	DD	2 DUP(00H)
	DD	00H
	DD	01H
xdata$x	ENDS
;	COMDAT xdata$x
xdata$x	SEGMENT
__ehfuncinfo$??1?$_Alloc_construct_ptr@V?$allocator@U?$_Tree_node@U?$pair@$$CBH_N@std@@PAX@std@@@std@@@std@@QAE@XZ DD 019930522H
	DD	00H
	DD	00H
	DD	2 DUP(00H)
	DD	2 DUP(00H)
	DD	00H
	DD	05H
xdata$x	ENDS
;	COMDAT xdata$x
xdata$x	SEGMENT
__ehfuncinfo$??$_Freenode0@V?$allocator@U?$_Tree_node@U?$pair@$$CBH_N@std@@PAX@std@@@std@@@?$_Tree_node@U?$pair@$$CBH_N@std@@PAX@std@@SAXAAV?$allocator@U?$_Tree_node@U?$pair@$$CBH_N@std@@PAX@std@@@1@PAU01@@Z DD 019930522H
	DD	00H
	DD	00H
	DD	2 DUP(00H)
	DD	2 DUP(00H)
	DD	00H
	DD	05H
xdata$x	ENDS
;	COMDAT xdata$x
xdata$x	SEGMENT
__ehfuncinfo$??$_Freenode@V?$allocator@U?$_Tree_node@U?$pair@$$CBH_N@std@@PAX@std@@@std@@@?$_Tree_node@U?$pair@$$CBH_N@std@@PAX@std@@SAXAAV?$allocator@U?$_Tree_node@U?$pair@$$CBH_N@std@@PAX@std@@@1@PAU01@@Z DD 019930522H
	DD	00H
	DD	00H
	DD	2 DUP(00H)
	DD	2 DUP(00H)
	DD	00H
	DD	05H
xdata$x	ENDS
;	COMDAT xdata$x
xdata$x	SEGMENT
__ehfuncinfo$??$_Deallocate@$07$0A@@std@@YAXPAXI@Z DD 019930522H
	DD	00H
	DD	00H
	DD	2 DUP(00H)
	DD	2 DUP(00H)
	DD	00H
	DD	05H
xdata$x	ENDS
;	COMDAT xdata$x
xdata$x	SEGMENT
__catchsym$?Load@CArrowSystem@@QAEXPBD@Z$2 DD 01H
	DD	FLAT:??_R0PAD@8
	DD	0ffffffd8H
	DD	FLAT:__catch$?Load@CArrowSystem@@QAEXPBD@Z$0
__unwindtable$?Load@CArrowSystem@@QAEXPBD@Z DD 0ffffffffH
	DD	00H
	DD	0ffffffffH
	DD	00H
__tryblocktable$?Load@CArrowSystem@@QAEXPBD@Z DD 00H
	DD	00H
	DD	01H
	DD	01H
	DD	FLAT:__catchsym$?Load@CArrowSystem@@QAEXPBD@Z$2
__ehfuncinfo$?Load@CArrowSystem@@QAEXPBD@Z DD 019930522H
	DD	02H
	DD	FLAT:__unwindtable$?Load@CArrowSystem@@QAEXPBD@Z
	DD	01H
	DD	FLAT:__tryblocktable$?Load@CArrowSystem@@QAEXPBD@Z
	DD	2 DUP(00H)
	DD	00H
	DD	01H
xdata$x	ENDS
; Function compile flags: /Odtp /ZI
; File C:\Program Files (x86)\Microsoft Visual Studio\2019\Community\VC\Tools\MSVC\14.27.29110\include\type_traits
;	COMDAT ??$forward@H@std@@YA$$QAHAAH@Z
_TEXT	SEGMENT
__Arg$ = 8						; size = 4
??$forward@H@std@@YA$$QAHAAH@Z PROC			; std::forward<int>, COMDAT

; 1454 :     remove_reference_t<_Ty>& _Arg) noexcept { // forward an lvalue as either an lvalue or an rvalue

  00000	55		 push	 ebp
  00001	8b ec		 mov	 ebp, esp
  00003	83 ec 40	 sub	 esp, 64			; 00000040H
  00006	53		 push	 ebx
  00007	56		 push	 esi
  00008	57		 push	 edi

; 1455 :     return static_cast<_Ty&&>(_Arg);

  00009	8b 45 08	 mov	 eax, DWORD PTR __Arg$[ebp]

; 1456 : }

  0000c	5f		 pop	 edi
  0000d	5e		 pop	 esi
  0000e	5b		 pop	 ebx
  0000f	8b e5		 mov	 esp, ebp
  00011	5d		 pop	 ebp
  00012	c3		 ret	 0
??$forward@H@std@@YA$$QAHAAH@Z ENDP			; std::forward<int>
_TEXT	ENDS
; Function compile flags: /Odtp /ZI
; File C:\Program Files (x86)\Microsoft Visual Studio\2019\Community\VC\Tools\MSVC\14.27.29110\include\type_traits
;	COMDAT ??$forward@PAU?$_Tree_node@U?$pair@$$CBH_N@std@@PAX@std@@@std@@YA$$QAPAU?$_Tree_node@U?$pair@$$CBH_N@std@@PAX@0@AAPAU10@@Z
_TEXT	SEGMENT
__Arg$ = 8						; size = 4
??$forward@PAU?$_Tree_node@U?$pair@$$CBH_N@std@@PAX@std@@@std@@YA$$QAPAU?$_Tree_node@U?$pair@$$CBH_N@std@@PAX@0@AAPAU10@@Z PROC ; std::forward<std::_Tree_node<std::pair<int const ,bool>,void *> *>, COMDAT

; 1454 :     remove_reference_t<_Ty>& _Arg) noexcept { // forward an lvalue as either an lvalue or an rvalue

  00000	55		 push	 ebp
  00001	8b ec		 mov	 ebp, esp
  00003	83 ec 40	 sub	 esp, 64			; 00000040H
  00006	53		 push	 ebx
  00007	56		 push	 esi
  00008	57		 push	 edi

; 1455 :     return static_cast<_Ty&&>(_Arg);

  00009	8b 45 08	 mov	 eax, DWORD PTR __Arg$[ebp]

; 1456 : }

  0000c	5f		 pop	 edi
  0000d	5e		 pop	 esi
  0000e	5b		 pop	 ebx
  0000f	8b e5		 mov	 esp, ebp
  00011	5d		 pop	 ebp
  00012	c3		 ret	 0
??$forward@PAU?$_Tree_node@U?$pair@$$CBH_N@std@@PAX@std@@@std@@YA$$QAPAU?$_Tree_node@U?$pair@$$CBH_N@std@@PAX@0@AAPAU10@@Z ENDP ; std::forward<std::_Tree_node<std::pair<int const ,bool>,void *> *>
_TEXT	ENDS
; Function compile flags: /Odtp /ZI
; File C:\Program Files (x86)\Microsoft Visual Studio\2019\Community\VC\Tools\MSVC\14.27.29110\include\xmemory
;	COMDAT ??$_Construct_in_place@PAU?$_Tree_node@U?$pair@$$CBH_N@std@@PAX@std@@AAPAU12@@std@@YAXAAPAU?$_Tree_node@U?$pair@$$CBH_N@std@@PAX@0@0@Z
_TEXT	SEGMENT
$T1 = -68						; size = 4
__Obj$ = 8						; size = 4
_<_Args_0>$ = 12					; size = 4
??$_Construct_in_place@PAU?$_Tree_node@U?$pair@$$CBH_N@std@@PAX@std@@AAPAU12@@std@@YAXAAPAU?$_Tree_node@U?$pair@$$CBH_N@std@@PAX@0@0@Z PROC ; std::_Construct_in_place<std::_Tree_node<std::pair<int const ,bool>,void *> *,std::_Tree_node<std::pair<int const ,bool>,void *> * &>, COMDAT

; 228  : void _Construct_in_place(_Ty& _Obj, _Types&&... _Args) noexcept(is_nothrow_constructible_v<_Ty, _Types...>) {

  00000	55		 push	 ebp
  00001	8b ec		 mov	 ebp, esp
  00003	83 ec 44	 sub	 esp, 68			; 00000044H
  00006	53		 push	 ebx
  00007	56		 push	 esi
  00008	57		 push	 edi

; 229  :     ::new (const_cast<void*>(static_cast<const volatile void*>(_STD addressof(_Obj))))

  00009	8b 45 08	 mov	 eax, DWORD PTR __Obj$[ebp]
  0000c	50		 push	 eax
  0000d	e8 00 00 00 00	 call	 ??$addressof@PAU?$_Tree_node@U?$pair@$$CBH_N@std@@PAX@std@@@std@@YAPAPAU?$_Tree_node@U?$pair@$$CBH_N@std@@PAX@0@AAPAU10@@Z ; std::addressof<std::_Tree_node<std::pair<int const ,bool>,void *> *>
  00012	83 c4 04	 add	 esp, 4
  00015	50		 push	 eax
  00016	6a 04		 push	 4
  00018	e8 00 00 00 00	 call	 ??2@YAPAXIPAX@Z		; operator new
  0001d	83 c4 08	 add	 esp, 8
  00020	89 45 bc	 mov	 DWORD PTR $T1[ebp], eax
  00023	8b 4d 0c	 mov	 ecx, DWORD PTR _<_Args_0>$[ebp]
  00026	51		 push	 ecx
  00027	e8 00 00 00 00	 call	 ??$forward@AAPAU?$_Tree_node@U?$pair@$$CBH_N@std@@PAX@std@@@std@@YAAAPAU?$_Tree_node@U?$pair@$$CBH_N@std@@PAX@0@AAPAU10@@Z ; std::forward<std::_Tree_node<std::pair<int const ,bool>,void *> * &>
  0002c	83 c4 04	 add	 esp, 4
  0002f	8b 55 bc	 mov	 edx, DWORD PTR $T1[ebp]
  00032	8b 00		 mov	 eax, DWORD PTR [eax]
  00034	89 02		 mov	 DWORD PTR [edx], eax

; 230  :         _Ty(_STD forward<_Types>(_Args)...);
; 231  : }

  00036	5f		 pop	 edi
  00037	5e		 pop	 esi
  00038	5b		 pop	 ebx
  00039	8b e5		 mov	 esp, ebp
  0003b	5d		 pop	 ebp
  0003c	c3		 ret	 0
??$_Construct_in_place@PAU?$_Tree_node@U?$pair@$$CBH_N@std@@PAX@std@@AAPAU12@@std@@YAXAAPAU?$_Tree_node@U?$pair@$$CBH_N@std@@PAX@0@0@Z ENDP ; std::_Construct_in_place<std::_Tree_node<std::pair<int const ,bool>,void *> *,std::_Tree_node<std::pair<int const ,bool>,void *> * &>
_TEXT	ENDS
; Function compile flags: /Odtp /ZI
; File C:\Program Files (x86)\Microsoft Visual Studio\2019\Community\VC\Tools\MSVC\14.27.29110\include\xmemory
;	COMDAT ??$construct@U?$pair@$$CBH_N@std@@U?$pair@H_N@2@@?$_Default_allocator_traits@V?$allocator@U?$_Tree_node@U?$pair@$$CBH_N@std@@PAX@std@@@std@@@std@@SAXAAV?$allocator@U?$_Tree_node@U?$pair@$$CBH_N@std@@PAX@std@@@1@QAU?$pair@$$CBH_N@1@$$QAU?$pair@H_N@1@@Z
_TEXT	SEGMENT
$T1 = -68						; size = 4
___formal$ = 8						; size = 4
__Ptr$ = 12						; size = 4
_<_Args_0>$ = 16					; size = 4
??$construct@U?$pair@$$CBH_N@std@@U?$pair@H_N@2@@?$_Default_allocator_traits@V?$allocator@U?$_Tree_node@U?$pair@$$CBH_N@std@@PAX@std@@@std@@@std@@SAXAAV?$allocator@U?$_Tree_node@U?$pair@$$CBH_N@std@@PAX@std@@@1@QAU?$pair@$$CBH_N@1@$$QAU?$pair@H_N@1@@Z PROC ; std::_Default_allocator_traits<std::allocator<std::_Tree_node<std::pair<int const ,bool>,void *> > >::construct<std::pair<int const ,bool>,std::pair<int,bool> >, COMDAT

; 693  :     static void construct(_Alloc&, _Objty* const _Ptr, _Types&&... _Args) {

  00000	55		 push	 ebp
  00001	8b ec		 mov	 ebp, esp
  00003	83 ec 44	 sub	 esp, 68			; 00000044H
  00006	53		 push	 ebx
  00007	56		 push	 esi
  00008	57		 push	 edi

; 694  :         ::new (const_cast<void*>(static_cast<const volatile void*>(_Ptr))) _Objty(_STD forward<_Types>(_Args)...);

  00009	8b 45 0c	 mov	 eax, DWORD PTR __Ptr$[ebp]
  0000c	50		 push	 eax
  0000d	6a 08		 push	 8
  0000f	e8 00 00 00 00	 call	 ??2@YAPAXIPAX@Z		; operator new
  00014	83 c4 08	 add	 esp, 8
  00017	89 45 bc	 mov	 DWORD PTR $T1[ebp], eax
  0001a	8b 4d 10	 mov	 ecx, DWORD PTR _<_Args_0>$[ebp]
  0001d	51		 push	 ecx
  0001e	e8 00 00 00 00	 call	 ??$forward@U?$pair@H_N@std@@@std@@YA$$QAU?$pair@H_N@0@AAU10@@Z ; std::forward<std::pair<int,bool> >
  00023	83 c4 04	 add	 esp, 4
  00026	50		 push	 eax
  00027	8b 4d bc	 mov	 ecx, DWORD PTR $T1[ebp]
  0002a	e8 00 00 00 00	 call	 ??$?0H_N$0A@@?$pair@$$CBH_N@std@@QAE@$$QAU?$pair@H_N@1@@Z ; std::pair<int const ,bool>::pair<int const ,bool><int,bool,0>

; 695  :     }

  0002f	5f		 pop	 edi
  00030	5e		 pop	 esi
  00031	5b		 pop	 ebx
  00032	8b e5		 mov	 esp, ebp
  00034	5d		 pop	 ebp
  00035	c3		 ret	 0
??$construct@U?$pair@$$CBH_N@std@@U?$pair@H_N@2@@?$_Default_allocator_traits@V?$allocator@U?$_Tree_node@U?$pair@$$CBH_N@std@@PAX@std@@@std@@@std@@SAXAAV?$allocator@U?$_Tree_node@U?$pair@$$CBH_N@std@@PAX@std@@@1@QAU?$pair@$$CBH_N@1@$$QAU?$pair@H_N@1@@Z ENDP ; std::_Default_allocator_traits<std::allocator<std::_Tree_node<std::pair<int const ,bool>,void *> > >::construct<std::pair<int const ,bool>,std::pair<int,bool> >
_TEXT	ENDS
; Function compile flags: /Odtp /ZI
; File C:\Program Files (x86)\Microsoft Visual Studio\2019\Community\VC\Tools\MSVC\14.27.29110\include\type_traits
;	COMDAT ??$forward@AAPAU?$_Tree_node@U?$pair@$$CBH_N@std@@PAX@std@@@std@@YAAAPAU?$_Tree_node@U?$pair@$$CBH_N@std@@PAX@0@AAPAU10@@Z
_TEXT	SEGMENT
__Arg$ = 8						; size = 4
??$forward@AAPAU?$_Tree_node@U?$pair@$$CBH_N@std@@PAX@std@@@std@@YAAAPAU?$_Tree_node@U?$pair@$$CBH_N@std@@PAX@0@AAPAU10@@Z PROC ; std::forward<std::_Tree_node<std::pair<int const ,bool>,void *> * &>, COMDAT

; 1454 :     remove_reference_t<_Ty>& _Arg) noexcept { // forward an lvalue as either an lvalue or an rvalue

  00000	55		 push	 ebp
  00001	8b ec		 mov	 ebp, esp
  00003	83 ec 40	 sub	 esp, 64			; 00000040H
  00006	53		 push	 ebx
  00007	56		 push	 esi
  00008	57		 push	 edi

; 1455 :     return static_cast<_Ty&&>(_Arg);

  00009	8b 45 08	 mov	 eax, DWORD PTR __Arg$[ebp]

; 1456 : }

  0000c	5f		 pop	 edi
  0000d	5e		 pop	 esi
  0000e	5b		 pop	 ebx
  0000f	8b e5		 mov	 esp, ebp
  00011	5d		 pop	 ebp
  00012	c3		 ret	 0
??$forward@AAPAU?$_Tree_node@U?$pair@$$CBH_N@std@@PAX@std@@@std@@YAAAPAU?$_Tree_node@U?$pair@$$CBH_N@std@@PAX@0@AAPAU10@@Z ENDP ; std::forward<std::_Tree_node<std::pair<int const ,bool>,void *> * &>
_TEXT	ENDS
; Function compile flags: /Odtp /ZI
; File C:\Program Files (x86)\Microsoft Visual Studio\2019\Community\VC\Tools\MSVC\14.27.29110\include\utility
;	COMDAT ??$exchange@PAU?$_Tree_node@U?$pair@$$CBH_N@std@@PAX@std@@$$T@std@@YAPAU?$_Tree_node@U?$pair@$$CBH_N@std@@PAX@0@AAPAU10@$$QA$$T@Z
_TEXT	SEGMENT
__Old_val$ = -4						; size = 4
__Val$ = 8						; size = 4
__New_val$ = 12						; size = 4
??$exchange@PAU?$_Tree_node@U?$pair@$$CBH_N@std@@PAX@std@@$$T@std@@YAPAU?$_Tree_node@U?$pair@$$CBH_N@std@@PAX@0@AAPAU10@$$QA$$T@Z PROC ; std::exchange<std::_Tree_node<std::pair<int const ,bool>,void *> *,std::nullptr_t>, COMDAT

; 597  :     conjunction_v<is_nothrow_move_constructible<_Ty>, is_nothrow_assignable<_Ty&, _Other>>) /* strengthened */ {

  00000	55		 push	 ebp
  00001	8b ec		 mov	 ebp, esp
  00003	83 ec 44	 sub	 esp, 68			; 00000044H
  00006	53		 push	 ebx
  00007	56		 push	 esi
  00008	57		 push	 edi

; 598  :     // assign _New_val to _Val, return previous _Val
; 599  :     _Ty _Old_val = static_cast<_Ty&&>(_Val);

  00009	8b 45 08	 mov	 eax, DWORD PTR __Val$[ebp]
  0000c	8b 08		 mov	 ecx, DWORD PTR [eax]
  0000e	89 4d fc	 mov	 DWORD PTR __Old_val$[ebp], ecx

; 600  :     _Val         = static_cast<_Other&&>(_New_val);

  00011	8b 45 08	 mov	 eax, DWORD PTR __Val$[ebp]
  00014	8b 4d 0c	 mov	 ecx, DWORD PTR __New_val$[ebp]
  00017	8b 11		 mov	 edx, DWORD PTR [ecx]
  00019	89 10		 mov	 DWORD PTR [eax], edx

; 601  :     return _Old_val;

  0001b	8b 45 fc	 mov	 eax, DWORD PTR __Old_val$[ebp]

; 602  : }

  0001e	5f		 pop	 edi
  0001f	5e		 pop	 esi
  00020	5b		 pop	 ebx
  00021	8b e5		 mov	 esp, ebp
  00023	5d		 pop	 ebp
  00024	c3		 ret	 0
??$exchange@PAU?$_Tree_node@U?$pair@$$CBH_N@std@@PAX@std@@$$T@std@@YAPAU?$_Tree_node@U?$pair@$$CBH_N@std@@PAX@0@AAPAU10@$$QA$$T@Z ENDP ; std::exchange<std::_Tree_node<std::pair<int const ,bool>,void *> *,std::nullptr_t>
_TEXT	ENDS
; Function compile flags: /Odtp /ZI
; File C:\Program Files (x86)\Microsoft Visual Studio\2019\Community\VC\Tools\MSVC\14.27.29110\include\type_traits
;	COMDAT ??$forward@AB_N@std@@YAAB_NAB_N@Z
_TEXT	SEGMENT
__Arg$ = 8						; size = 4
??$forward@AB_N@std@@YAAB_NAB_N@Z PROC			; std::forward<bool const &>, COMDAT

; 1454 :     remove_reference_t<_Ty>& _Arg) noexcept { // forward an lvalue as either an lvalue or an rvalue

  00000	55		 push	 ebp
  00001	8b ec		 mov	 ebp, esp
  00003	83 ec 40	 sub	 esp, 64			; 00000040H
  00006	53		 push	 ebx
  00007	56		 push	 esi
  00008	57		 push	 edi

; 1455 :     return static_cast<_Ty&&>(_Arg);

  00009	8b 45 08	 mov	 eax, DWORD PTR __Arg$[ebp]

; 1456 : }

  0000c	5f		 pop	 edi
  0000d	5e		 pop	 esi
  0000e	5b		 pop	 ebx
  0000f	8b e5		 mov	 esp, ebp
  00011	5d		 pop	 ebp
  00012	c3		 ret	 0
??$forward@AB_N@std@@YAAB_NAB_N@Z ENDP			; std::forward<bool const &>
_TEXT	ENDS
; Function compile flags: /Odtp /ZI
; File C:\Program Files (x86)\Microsoft Visual Studio\2019\Community\VC\Tools\MSVC\14.27.29110\include\type_traits
;	COMDAT ??$forward@V?$_Tree_iterator@V?$_Tree_val@U?$_Tree_simple_types@U?$pair@$$CBH_N@std@@@std@@@std@@@std@@@std@@YA$$QAV?$_Tree_iterator@V?$_Tree_val@U?$_Tree_simple_types@U?$pair@$$CBH_N@std@@@std@@@std@@@0@AAV10@@Z
_TEXT	SEGMENT
__Arg$ = 8						; size = 4
??$forward@V?$_Tree_iterator@V?$_Tree_val@U?$_Tree_simple_types@U?$pair@$$CBH_N@std@@@std@@@std@@@std@@@std@@YA$$QAV?$_Tree_iterator@V?$_Tree_val@U?$_Tree_simple_types@U?$pair@$$CBH_N@std@@@std@@@std@@@0@AAV10@@Z PROC ; std::forward<std::_Tree_iterator<std::_Tree_val<std::_Tree_simple_types<std::pair<int const ,bool> > > > >, COMDAT

; 1454 :     remove_reference_t<_Ty>& _Arg) noexcept { // forward an lvalue as either an lvalue or an rvalue

  00000	55		 push	 ebp
  00001	8b ec		 mov	 ebp, esp
  00003	83 ec 40	 sub	 esp, 64			; 00000040H
  00006	53		 push	 ebx
  00007	56		 push	 esi
  00008	57		 push	 edi

; 1455 :     return static_cast<_Ty&&>(_Arg);

  00009	8b 45 08	 mov	 eax, DWORD PTR __Arg$[ebp]

; 1456 : }

  0000c	5f		 pop	 edi
  0000d	5e		 pop	 esi
  0000e	5b		 pop	 ebx
  0000f	8b e5		 mov	 esp, ebp
  00011	5d		 pop	 ebp
  00012	c3		 ret	 0
??$forward@V?$_Tree_iterator@V?$_Tree_val@U?$_Tree_simple_types@U?$pair@$$CBH_N@std@@@std@@@std@@@std@@@std@@YA$$QAV?$_Tree_iterator@V?$_Tree_val@U?$_Tree_simple_types@U?$pair@$$CBH_N@std@@@std@@@std@@@0@AAV10@@Z ENDP ; std::forward<std::_Tree_iterator<std::_Tree_val<std::_Tree_simple_types<std::pair<int const ,bool> > > > >
_TEXT	ENDS
; Function compile flags: /Odtp /ZI
; File C:\Program Files (x86)\Microsoft Visual Studio\2019\Community\VC\Tools\MSVC\14.27.29110\include\utility
;	COMDAT ??$?0PAU?$_Tree_node@U?$pair@$$CBH_N@std@@PAX@std@@_N$0A@@?$pair@PAU?$_Tree_node@U?$pair@$$CBH_N@std@@PAX@std@@_N@std@@QAE@$$QAPAU?$_Tree_node@U?$pair@$$CBH_N@std@@PAX@1@$$QA_N@Z
_TEXT	SEGMENT
_this$ = -4						; size = 4
__Val1$ = 8						; size = 4
__Val2$ = 12						; size = 4
??$?0PAU?$_Tree_node@U?$pair@$$CBH_N@std@@PAX@std@@_N$0A@@?$pair@PAU?$_Tree_node@U?$pair@$$CBH_N@std@@PAX@std@@_N@std@@QAE@$$QAPAU?$_Tree_node@U?$pair@$$CBH_N@std@@PAX@1@$$QA_N@Z PROC ; std::pair<std::_Tree_node<std::pair<int const ,bool>,void *> *,bool>::pair<std::_Tree_node<std::pair<int const ,bool>,void *> *,bool><std::_Tree_node<std::pair<int const ,bool>,void *> *,bool,0>, COMDAT
; _this$ = ecx

; 192  :         : first(_STD forward<_Other1>(_Val1)), second(_STD forward<_Other2>(_Val2)) {}

  00000	55		 push	 ebp
  00001	8b ec		 mov	 ebp, esp
  00003	83 ec 44	 sub	 esp, 68			; 00000044H
  00006	53		 push	 ebx
  00007	56		 push	 esi
  00008	57		 push	 edi
  00009	89 4d fc	 mov	 DWORD PTR _this$[ebp], ecx
  0000c	8b 45 08	 mov	 eax, DWORD PTR __Val1$[ebp]
  0000f	50		 push	 eax
  00010	e8 00 00 00 00	 call	 ??$forward@PAU?$_Tree_node@U?$pair@$$CBH_N@std@@PAX@std@@@std@@YA$$QAPAU?$_Tree_node@U?$pair@$$CBH_N@std@@PAX@0@AAPAU10@@Z ; std::forward<std::_Tree_node<std::pair<int const ,bool>,void *> *>
  00015	83 c4 04	 add	 esp, 4
  00018	8b 4d fc	 mov	 ecx, DWORD PTR _this$[ebp]
  0001b	8b 10		 mov	 edx, DWORD PTR [eax]
  0001d	89 11		 mov	 DWORD PTR [ecx], edx
  0001f	8b 45 0c	 mov	 eax, DWORD PTR __Val2$[ebp]
  00022	50		 push	 eax
  00023	e8 00 00 00 00	 call	 ??$forward@_N@std@@YA$$QA_NAA_N@Z ; std::forward<bool>
  00028	83 c4 04	 add	 esp, 4
  0002b	8b 4d fc	 mov	 ecx, DWORD PTR _this$[ebp]
  0002e	8a 10		 mov	 dl, BYTE PTR [eax]
  00030	88 51 04	 mov	 BYTE PTR [ecx+4], dl
  00033	8b 45 fc	 mov	 eax, DWORD PTR _this$[ebp]
  00036	5f		 pop	 edi
  00037	5e		 pop	 esi
  00038	5b		 pop	 ebx
  00039	8b e5		 mov	 esp, ebp
  0003b	5d		 pop	 ebp
  0003c	c2 08 00	 ret	 8
??$?0PAU?$_Tree_node@U?$pair@$$CBH_N@std@@PAX@std@@_N$0A@@?$pair@PAU?$_Tree_node@U?$pair@$$CBH_N@std@@PAX@std@@_N@std@@QAE@$$QAPAU?$_Tree_node@U?$pair@$$CBH_N@std@@PAX@1@$$QA_N@Z ENDP ; std::pair<std::_Tree_node<std::pair<int const ,bool>,void *> *,bool>::pair<std::_Tree_node<std::pair<int const ,bool>,void *> *,bool><std::_Tree_node<std::pair<int const ,bool>,void *> *,bool,0>
_TEXT	ENDS
; Function compile flags: /Odtp /ZI
; File C:\Program Files (x86)\Microsoft Visual Studio\2019\Community\VC\Tools\MSVC\14.27.29110\include\xtree
;	COMDAT ??$?0U?$pair@H_N@std@@@?$_Tree_temp_node@V?$allocator@U?$_Tree_node@U?$pair@$$CBH_N@std@@PAX@std@@@std@@@std@@QAE@AAV?$allocator@U?$_Tree_node@U?$pair@$$CBH_N@std@@PAX@std@@@1@PAU?$_Tree_node@U?$pair@$$CBH_N@std@@PAX@1@$$QAU?$pair@H_N@1@@Z
_TEXT	SEGMENT
_this$ = -16						; size = 4
__$EHRec$ = -12						; size = 12
__Al_$ = 8						; size = 4
__Myhead$ = 12						; size = 4
_<_Vals_0>$ = 16					; size = 4
??$?0U?$pair@H_N@std@@@?$_Tree_temp_node@V?$allocator@U?$_Tree_node@U?$pair@$$CBH_N@std@@PAX@std@@@std@@@std@@QAE@AAV?$allocator@U?$_Tree_node@U?$pair@$$CBH_N@std@@PAX@std@@@1@PAU?$_Tree_node@U?$pair@$$CBH_N@std@@PAX@1@$$QAU?$pair@H_N@1@@Z PROC ; std::_Tree_temp_node<std::allocator<std::_Tree_node<std::pair<int const ,bool>,void *> > >::_Tree_temp_node<std::allocator<std::_Tree_node<std::pair<int const ,bool>,void *> > ><std::pair<int,bool> >, COMDAT
; _this$ = ecx

; 805  :         : _Tree_temp_node_alloc<_Alnode>(_Al_) {

  00000	55		 push	 ebp
  00001	8b ec		 mov	 ebp, esp
  00003	6a ff		 push	 -1
  00005	68 00 00 00 00	 push	 __ehhandler$??$?0U?$pair@H_N@std@@@?$_Tree_temp_node@V?$allocator@U?$_Tree_node@U?$pair@$$CBH_N@std@@PAX@std@@@std@@@std@@QAE@AAV?$allocator@U?$_Tree_node@U?$pair@$$CBH_N@std@@PAX@std@@@1@PAU?$_Tree_node@U?$pair@$$CBH_N@std@@PAX@1@$$QAU?$pair@H_N@1@@Z
  0000a	64 a1 00 00 00
	00		 mov	 eax, DWORD PTR fs:0
  00010	50		 push	 eax
  00011	83 ec 44	 sub	 esp, 68			; 00000044H
  00014	53		 push	 ebx
  00015	56		 push	 esi
  00016	57		 push	 edi
  00017	a1 00 00 00 00	 mov	 eax, DWORD PTR ___security_cookie
  0001c	33 c5		 xor	 eax, ebp
  0001e	50		 push	 eax
  0001f	8d 45 f4	 lea	 eax, DWORD PTR __$EHRec$[ebp]
  00022	64 a3 00 00 00
	00		 mov	 DWORD PTR fs:0, eax
  00028	89 4d f0	 mov	 DWORD PTR _this$[ebp], ecx
  0002b	8b 45 08	 mov	 eax, DWORD PTR __Al_$[ebp]
  0002e	50		 push	 eax
  0002f	8b 4d f0	 mov	 ecx, DWORD PTR _this$[ebp]
  00032	e8 00 00 00 00	 call	 ??0?$_Tree_temp_node_alloc@V?$allocator@U?$_Tree_node@U?$pair@$$CBH_N@std@@PAX@std@@@std@@@std@@QAE@AAV?$allocator@U?$_Tree_node@U?$pair@$$CBH_N@std@@PAX@std@@@1@@Z ; std::_Tree_temp_node_alloc<std::allocator<std::_Tree_node<std::pair<int const ,bool>,void *> > >::_Tree_temp_node_alloc<std::allocator<std::_Tree_node<std::pair<int const ,bool>,void *> > >
  00037	c7 45 fc 00 00
	00 00		 mov	 DWORD PTR __$EHRec$[ebp+8], 0

; 806  :         _Alnode_traits::construct(this->_Al, _STD addressof(this->_Ptr->_Myval), _STD forward<_Valtys>(_Vals)...);

  0003e	8b 45 10	 mov	 eax, DWORD PTR _<_Vals_0>$[ebp]
  00041	50		 push	 eax
  00042	e8 00 00 00 00	 call	 ??$forward@U?$pair@H_N@std@@@std@@YA$$QAU?$pair@H_N@0@AAU10@@Z ; std::forward<std::pair<int,bool> >
  00047	83 c4 04	 add	 esp, 4
  0004a	50		 push	 eax
  0004b	8b 4d f0	 mov	 ecx, DWORD PTR _this$[ebp]
  0004e	8b 51 04	 mov	 edx, DWORD PTR [ecx+4]
  00051	83 c2 10	 add	 edx, 16			; 00000010H
  00054	52		 push	 edx
  00055	e8 00 00 00 00	 call	 ??$addressof@U?$pair@$$CBH_N@std@@@std@@YAPAU?$pair@$$CBH_N@0@AAU10@@Z ; std::addressof<std::pair<int const ,bool> >
  0005a	83 c4 04	 add	 esp, 4
  0005d	50		 push	 eax
  0005e	8b 45 f0	 mov	 eax, DWORD PTR _this$[ebp]
  00061	8b 08		 mov	 ecx, DWORD PTR [eax]
  00063	51		 push	 ecx
  00064	e8 00 00 00 00	 call	 ??$construct@U?$pair@$$CBH_N@std@@U?$pair@H_N@2@@?$_Default_allocator_traits@V?$allocator@U?$_Tree_node@U?$pair@$$CBH_N@std@@PAX@std@@@std@@@std@@SAXAAV?$allocator@U?$_Tree_node@U?$pair@$$CBH_N@std@@PAX@std@@@1@QAU?$pair@$$CBH_N@1@$$QAU?$pair@H_N@1@@Z ; std::_Default_allocator_traits<std::allocator<std::_Tree_node<std::pair<int const ,bool>,void *> > >::construct<std::pair<int const ,bool>,std::pair<int,bool> >
  00069	83 c4 0c	 add	 esp, 12			; 0000000cH

; 807  :         _Construct_in_place(this->_Ptr->_Left, _Myhead);

  0006c	8d 45 0c	 lea	 eax, DWORD PTR __Myhead$[ebp]
  0006f	50		 push	 eax
  00070	8b 4d f0	 mov	 ecx, DWORD PTR _this$[ebp]
  00073	8b 51 04	 mov	 edx, DWORD PTR [ecx+4]
  00076	52		 push	 edx
  00077	e8 00 00 00 00	 call	 ??$_Construct_in_place@PAU?$_Tree_node@U?$pair@$$CBH_N@std@@PAX@std@@AAPAU12@@std@@YAXAAPAU?$_Tree_node@U?$pair@$$CBH_N@std@@PAX@0@0@Z ; std::_Construct_in_place<std::_Tree_node<std::pair<int const ,bool>,void *> *,std::_Tree_node<std::pair<int const ,bool>,void *> * &>
  0007c	83 c4 08	 add	 esp, 8

; 808  :         _Construct_in_place(this->_Ptr->_Parent, _Myhead);

  0007f	8d 45 0c	 lea	 eax, DWORD PTR __Myhead$[ebp]
  00082	50		 push	 eax
  00083	8b 4d f0	 mov	 ecx, DWORD PTR _this$[ebp]
  00086	8b 51 04	 mov	 edx, DWORD PTR [ecx+4]
  00089	83 c2 04	 add	 edx, 4
  0008c	52		 push	 edx
  0008d	e8 00 00 00 00	 call	 ??$_Construct_in_place@PAU?$_Tree_node@U?$pair@$$CBH_N@std@@PAX@std@@AAPAU12@@std@@YAXAAPAU?$_Tree_node@U?$pair@$$CBH_N@std@@PAX@0@0@Z ; std::_Construct_in_place<std::_Tree_node<std::pair<int const ,bool>,void *> *,std::_Tree_node<std::pair<int const ,bool>,void *> * &>
  00092	83 c4 08	 add	 esp, 8

; 809  :         _Construct_in_place(this->_Ptr->_Right, _Myhead);

  00095	8d 45 0c	 lea	 eax, DWORD PTR __Myhead$[ebp]
  00098	50		 push	 eax
  00099	8b 4d f0	 mov	 ecx, DWORD PTR _this$[ebp]
  0009c	8b 51 04	 mov	 edx, DWORD PTR [ecx+4]
  0009f	83 c2 08	 add	 edx, 8
  000a2	52		 push	 edx
  000a3	e8 00 00 00 00	 call	 ??$_Construct_in_place@PAU?$_Tree_node@U?$pair@$$CBH_N@std@@PAX@std@@AAPAU12@@std@@YAXAAPAU?$_Tree_node@U?$pair@$$CBH_N@std@@PAX@0@0@Z ; std::_Construct_in_place<std::_Tree_node<std::pair<int const ,bool>,void *> *,std::_Tree_node<std::pair<int const ,bool>,void *> * &>
  000a8	83 c4 08	 add	 esp, 8

; 810  :         this->_Ptr->_Color = _Red;

  000ab	8b 45 f0	 mov	 eax, DWORD PTR _this$[ebp]
  000ae	8b 48 04	 mov	 ecx, DWORD PTR [eax+4]
  000b1	c6 41 0c 00	 mov	 BYTE PTR [ecx+12], 0

; 811  :         this->_Ptr->_Isnil = false;

  000b5	8b 45 f0	 mov	 eax, DWORD PTR _this$[ebp]
  000b8	8b 48 04	 mov	 ecx, DWORD PTR [eax+4]
  000bb	c6 41 0d 00	 mov	 BYTE PTR [ecx+13], 0

; 812  :     }

  000bf	c7 45 fc ff ff
	ff ff		 mov	 DWORD PTR __$EHRec$[ebp+8], -1
  000c6	8b 45 f0	 mov	 eax, DWORD PTR _this$[ebp]
  000c9	8b 4d f4	 mov	 ecx, DWORD PTR __$EHRec$[ebp]
  000cc	64 89 0d 00 00
	00 00		 mov	 DWORD PTR fs:0, ecx
  000d3	59		 pop	 ecx
  000d4	5f		 pop	 edi
  000d5	5e		 pop	 esi
  000d6	5b		 pop	 ebx
  000d7	8b e5		 mov	 esp, ebp
  000d9	5d		 pop	 ebp
  000da	c2 0c 00	 ret	 12			; 0000000cH
_TEXT	ENDS
;	COMDAT text$x
text$x	SEGMENT
__unwindfunclet$??$?0U?$pair@H_N@std@@@?$_Tree_temp_node@V?$allocator@U?$_Tree_node@U?$pair@$$CBH_N@std@@PAX@std@@@std@@@std@@QAE@AAV?$allocator@U?$_Tree_node@U?$pair@$$CBH_N@std@@PAX@std@@@1@PAU?$_Tree_node@U?$pair@$$CBH_N@std@@PAX@1@$$QAU?$pair@H_N@1@@Z$0:
  00000	8b 4d f0	 mov	 ecx, DWORD PTR _this$[ebp]
  00003	e9 00 00 00 00	 jmp	 ??1?$_Tree_temp_node_alloc@V?$allocator@U?$_Tree_node@U?$pair@$$CBH_N@std@@PAX@std@@@std@@@std@@QAE@XZ
  00008	cc		 int	 3
  00009	cc		 int	 3
  0000a	cc		 int	 3
  0000b	cc		 int	 3
  0000c	cc		 int	 3
__ehhandler$??$?0U?$pair@H_N@std@@@?$_Tree_temp_node@V?$allocator@U?$_Tree_node@U?$pair@$$CBH_N@std@@PAX@std@@@std@@@std@@QAE@AAV?$allocator@U?$_Tree_node@U?$pair@$$CBH_N@std@@PAX@std@@@1@PAU?$_Tree_node@U?$pair@$$CBH_N@std@@PAX@1@$$QAU?$pair@H_N@1@@Z:
  0000d	90		 npad	 1
  0000e	90		 npad	 1
  0000f	8b 54 24 08	 mov	 edx, DWORD PTR [esp+8]
  00013	8d 42 0c	 lea	 eax, DWORD PTR [edx+12]
  00016	8b 4a ac	 mov	 ecx, DWORD PTR [edx-84]
  00019	33 c8		 xor	 ecx, eax
  0001b	e8 00 00 00 00	 call	 @__security_check_cookie@4
  00020	b8 00 00 00 00	 mov	 eax, OFFSET __ehfuncinfo$??$?0U?$pair@H_N@std@@@?$_Tree_temp_node@V?$allocator@U?$_Tree_node@U?$pair@$$CBH_N@std@@PAX@std@@@std@@@std@@QAE@AAV?$allocator@U?$_Tree_node@U?$pair@$$CBH_N@std@@PAX@std@@@1@PAU?$_Tree_node@U?$pair@$$CBH_N@std@@PAX@1@$$QAU?$pair@H_N@1@@Z
  00025	e9 00 00 00 00	 jmp	 ___CxxFrameHandler3
text$x	ENDS
??$?0U?$pair@H_N@std@@@?$_Tree_temp_node@V?$allocator@U?$_Tree_node@U?$pair@$$CBH_N@std@@PAX@std@@@std@@@std@@QAE@AAV?$allocator@U?$_Tree_node@U?$pair@$$CBH_N@std@@PAX@std@@@1@PAU?$_Tree_node@U?$pair@$$CBH_N@std@@PAX@1@$$QAU?$pair@H_N@1@@Z ENDP ; std::_Tree_temp_node<std::allocator<std::_Tree_node<std::pair<int const ,bool>,void *> > >::_Tree_temp_node<std::allocator<std::_Tree_node<std::pair<int const ,bool>,void *> > ><std::pair<int,bool> >
; Function compile flags: /Odtp /ZI
; File C:\Program Files (x86)\Microsoft Visual Studio\2019\Community\VC\Tools\MSVC\14.27.29110\include\xtree
;	COMDAT ??1?$_Tree_temp_node@V?$allocator@U?$_Tree_node@U?$pair@$$CBH_N@std@@PAX@std@@@std@@@std@@QAE@XZ
_TEXT	SEGMENT
_this$ = -16						; size = 4
__$EHRec$ = -12						; size = 12
??1?$_Tree_temp_node@V?$allocator@U?$_Tree_node@U?$pair@$$CBH_N@std@@PAX@std@@@std@@@std@@QAE@XZ PROC ; std::_Tree_temp_node<std::allocator<std::_Tree_node<std::pair<int const ,bool>,void *> > >::~_Tree_temp_node<std::allocator<std::_Tree_node<std::pair<int const ,bool>,void *> > >, COMDAT
; _this$ = ecx

; 817  :     ~_Tree_temp_node() {

  00000	55		 push	 ebp
  00001	8b ec		 mov	 ebp, esp
  00003	6a ff		 push	 -1
  00005	68 00 00 00 00	 push	 __ehhandler$??1?$_Tree_temp_node@V?$allocator@U?$_Tree_node@U?$pair@$$CBH_N@std@@PAX@std@@@std@@@std@@QAE@XZ
  0000a	64 a1 00 00 00
	00		 mov	 eax, DWORD PTR fs:0
  00010	50		 push	 eax
  00011	83 ec 44	 sub	 esp, 68			; 00000044H
  00014	53		 push	 ebx
  00015	56		 push	 esi
  00016	57		 push	 edi
  00017	a1 00 00 00 00	 mov	 eax, DWORD PTR ___security_cookie
  0001c	33 c5		 xor	 eax, ebp
  0001e	50		 push	 eax
  0001f	8d 45 f4	 lea	 eax, DWORD PTR __$EHRec$[ebp]
  00022	64 a3 00 00 00
	00		 mov	 DWORD PTR fs:0, eax
  00028	89 4d f0	 mov	 DWORD PTR _this$[ebp], ecx

; 818  :         if (this->_Ptr) {

  0002b	8b 45 f0	 mov	 eax, DWORD PTR _this$[ebp]
  0002e	83 78 04 00	 cmp	 DWORD PTR [eax+4], 0
  00032	74 54		 je	 SHORT $LN1@Tree_temp_

; 819  :             _Destroy_in_place(this->_Ptr->_Left);

  00034	8b 45 f0	 mov	 eax, DWORD PTR _this$[ebp]
  00037	8b 48 04	 mov	 ecx, DWORD PTR [eax+4]
  0003a	51		 push	 ecx
  0003b	e8 00 00 00 00	 call	 ??$_Destroy_in_place@PAU?$_Tree_node@U?$pair@$$CBH_N@std@@PAX@std@@@std@@YAXAAPAU?$_Tree_node@U?$pair@$$CBH_N@std@@PAX@0@@Z ; std::_Destroy_in_place<std::_Tree_node<std::pair<int const ,bool>,void *> *>
  00040	83 c4 04	 add	 esp, 4

; 820  :             _Destroy_in_place(this->_Ptr->_Parent);

  00043	8b 45 f0	 mov	 eax, DWORD PTR _this$[ebp]
  00046	8b 48 04	 mov	 ecx, DWORD PTR [eax+4]
  00049	83 c1 04	 add	 ecx, 4
  0004c	51		 push	 ecx
  0004d	e8 00 00 00 00	 call	 ??$_Destroy_in_place@PAU?$_Tree_node@U?$pair@$$CBH_N@std@@PAX@std@@@std@@YAXAAPAU?$_Tree_node@U?$pair@$$CBH_N@std@@PAX@0@@Z ; std::_Destroy_in_place<std::_Tree_node<std::pair<int const ,bool>,void *> *>
  00052	83 c4 04	 add	 esp, 4

; 821  :             _Destroy_in_place(this->_Ptr->_Right);

  00055	8b 45 f0	 mov	 eax, DWORD PTR _this$[ebp]
  00058	8b 48 04	 mov	 ecx, DWORD PTR [eax+4]
  0005b	83 c1 08	 add	 ecx, 8
  0005e	51		 push	 ecx
  0005f	e8 00 00 00 00	 call	 ??$_Destroy_in_place@PAU?$_Tree_node@U?$pair@$$CBH_N@std@@PAX@std@@@std@@YAXAAPAU?$_Tree_node@U?$pair@$$CBH_N@std@@PAX@0@@Z ; std::_Destroy_in_place<std::_Tree_node<std::pair<int const ,bool>,void *> *>
  00064	83 c4 04	 add	 esp, 4

; 822  :             _Alnode_traits::destroy(this->_Al, _STD addressof(this->_Ptr->_Myval));

  00067	8b 45 f0	 mov	 eax, DWORD PTR _this$[ebp]
  0006a	8b 48 04	 mov	 ecx, DWORD PTR [eax+4]
  0006d	83 c1 10	 add	 ecx, 16			; 00000010H
  00070	51		 push	 ecx
  00071	e8 00 00 00 00	 call	 ??$addressof@U?$pair@$$CBH_N@std@@@std@@YAPAU?$pair@$$CBH_N@0@AAU10@@Z ; std::addressof<std::pair<int const ,bool> >
  00076	83 c4 04	 add	 esp, 4
  00079	50		 push	 eax
  0007a	8b 55 f0	 mov	 edx, DWORD PTR _this$[ebp]
  0007d	8b 02		 mov	 eax, DWORD PTR [edx]
  0007f	50		 push	 eax
  00080	e8 00 00 00 00	 call	 ??$destroy@U?$pair@$$CBH_N@std@@@?$_Default_allocator_traits@V?$allocator@U?$_Tree_node@U?$pair@$$CBH_N@std@@PAX@std@@@std@@@std@@SAXAAV?$allocator@U?$_Tree_node@U?$pair@$$CBH_N@std@@PAX@std@@@1@QAU?$pair@$$CBH_N@1@@Z ; std::_Default_allocator_traits<std::allocator<std::_Tree_node<std::pair<int const ,bool>,void *> > >::destroy<std::pair<int const ,bool> >
  00085	83 c4 08	 add	 esp, 8
$LN1@Tree_temp_:

; 823  :         }
; 824  :     }

  00088	8b 4d f0	 mov	 ecx, DWORD PTR _this$[ebp]
  0008b	e8 00 00 00 00	 call	 ??1?$_Tree_temp_node_alloc@V?$allocator@U?$_Tree_node@U?$pair@$$CBH_N@std@@PAX@std@@@std@@@std@@QAE@XZ
  00090	8b 4d f4	 mov	 ecx, DWORD PTR __$EHRec$[ebp]
  00093	64 89 0d 00 00
	00 00		 mov	 DWORD PTR fs:0, ecx
  0009a	59		 pop	 ecx
  0009b	5f		 pop	 edi
  0009c	5e		 pop	 esi
  0009d	5b		 pop	 ebx
  0009e	8b e5		 mov	 esp, ebp
  000a0	5d		 pop	 ebp
  000a1	c3		 ret	 0
  000a2	cc		 int	 3
  000a3	cc		 int	 3
  000a4	cc		 int	 3
  000a5	cc		 int	 3
  000a6	cc		 int	 3
_TEXT	ENDS
;	COMDAT text$x
text$x	SEGMENT
__ehhandler$??1?$_Tree_temp_node@V?$allocator@U?$_Tree_node@U?$pair@$$CBH_N@std@@PAX@std@@@std@@@std@@QAE@XZ:
  00000	90		 npad	 1
  00001	90		 npad	 1
  00002	8b 54 24 08	 mov	 edx, DWORD PTR [esp+8]
  00006	8d 42 0c	 lea	 eax, DWORD PTR [edx+12]
  00009	8b 4a ac	 mov	 ecx, DWORD PTR [edx-84]
  0000c	33 c8		 xor	 ecx, eax
  0000e	e8 00 00 00 00	 call	 @__security_check_cookie@4
  00013	b8 00 00 00 00	 mov	 eax, OFFSET __ehfuncinfo$??1?$_Tree_temp_node@V?$allocator@U?$_Tree_node@U?$pair@$$CBH_N@std@@PAX@std@@@std@@@std@@QAE@XZ
  00018	e9 00 00 00 00	 jmp	 ___CxxFrameHandler3
text$x	ENDS
??1?$_Tree_temp_node@V?$allocator@U?$_Tree_node@U?$pair@$$CBH_N@std@@PAX@std@@@std@@@std@@QAE@XZ ENDP ; std::_Tree_temp_node<std::allocator<std::_Tree_node<std::pair<int const ,bool>,void *> > >::~_Tree_temp_node<std::allocator<std::_Tree_node<std::pair<int const ,bool>,void *> > >
; Function compile flags: /Odtp /ZI
;	COMDAT ??1?$_Tree_temp_node_alloc@V?$allocator@U?$_Tree_node@U?$pair@$$CBH_N@std@@PAX@std@@@std@@@std@@QAE@XZ
_TEXT	SEGMENT
_this$ = -4						; size = 4
??1?$_Tree_temp_node_alloc@V?$allocator@U?$_Tree_node@U?$pair@$$CBH_N@std@@PAX@std@@@std@@@std@@QAE@XZ PROC ; std::_Tree_temp_node_alloc<std::allocator<std::_Tree_node<std::pair<int const ,bool>,void *> > >::~_Tree_temp_node_alloc<std::allocator<std::_Tree_node<std::pair<int const ,bool>,void *> > >, COMDAT
; _this$ = ecx
  00000	55		 push	 ebp
  00001	8b ec		 mov	 ebp, esp
  00003	83 ec 44	 sub	 esp, 68			; 00000044H
  00006	53		 push	 ebx
  00007	56		 push	 esi
  00008	57		 push	 edi
  00009	89 4d fc	 mov	 DWORD PTR _this$[ebp], ecx
  0000c	8b 4d fc	 mov	 ecx, DWORD PTR _this$[ebp]
  0000f	e8 00 00 00 00	 call	 ??1?$_Alloc_construct_ptr@V?$allocator@U?$_Tree_node@U?$pair@$$CBH_N@std@@PAX@std@@@std@@@std@@QAE@XZ ; std::_Alloc_construct_ptr<std::allocator<std::_Tree_node<std::pair<int const ,bool>,void *> > >::~_Alloc_construct_ptr<std::allocator<std::_Tree_node<std::pair<int const ,bool>,void *> > >
  00014	5f		 pop	 edi
  00015	5e		 pop	 esi
  00016	5b		 pop	 ebx
  00017	8b e5		 mov	 esp, ebp
  00019	5d		 pop	 ebp
  0001a	c3		 ret	 0
??1?$_Tree_temp_node_alloc@V?$allocator@U?$_Tree_node@U?$pair@$$CBH_N@std@@PAX@std@@@std@@@std@@QAE@XZ ENDP ; std::_Tree_temp_node_alloc<std::allocator<std::_Tree_node<std::pair<int const ,bool>,void *> > >::~_Tree_temp_node_alloc<std::allocator<std::_Tree_node<std::pair<int const ,bool>,void *> > >
_TEXT	ENDS
; Function compile flags: /Odtp /ZI
; File C:\Program Files (x86)\Microsoft Visual Studio\2019\Community\VC\Tools\MSVC\14.27.29110\include\xtree
;	COMDAT ??0?$_Tree_temp_node_alloc@V?$allocator@U?$_Tree_node@U?$pair@$$CBH_N@std@@PAX@std@@@std@@@std@@QAE@AAV?$allocator@U?$_Tree_node@U?$pair@$$CBH_N@std@@PAX@std@@@1@@Z
_TEXT	SEGMENT
_this$ = -16						; size = 4
__$EHRec$ = -12						; size = 12
__Al_$ = 8						; size = 4
??0?$_Tree_temp_node_alloc@V?$allocator@U?$_Tree_node@U?$pair@$$CBH_N@std@@PAX@std@@@std@@@std@@QAE@AAV?$allocator@U?$_Tree_node@U?$pair@$$CBH_N@std@@PAX@std@@@1@@Z PROC ; std::_Tree_temp_node_alloc<std::allocator<std::_Tree_node<std::pair<int const ,bool>,void *> > >::_Tree_temp_node_alloc<std::allocator<std::_Tree_node<std::pair<int const ,bool>,void *> > >, COMDAT
; _this$ = ecx

; 784  :     explicit _Tree_temp_node_alloc(_Alnode& _Al_) : _Alloc_construct_ptr<_Alnode>(_Al_) {

  00000	55		 push	 ebp
  00001	8b ec		 mov	 ebp, esp
  00003	6a ff		 push	 -1
  00005	68 00 00 00 00	 push	 __ehhandler$??0?$_Tree_temp_node_alloc@V?$allocator@U?$_Tree_node@U?$pair@$$CBH_N@std@@PAX@std@@@std@@@std@@QAE@AAV?$allocator@U?$_Tree_node@U?$pair@$$CBH_N@std@@PAX@std@@@1@@Z
  0000a	64 a1 00 00 00
	00		 mov	 eax, DWORD PTR fs:0
  00010	50		 push	 eax
  00011	83 ec 44	 sub	 esp, 68			; 00000044H
  00014	53		 push	 ebx
  00015	56		 push	 esi
  00016	57		 push	 edi
  00017	a1 00 00 00 00	 mov	 eax, DWORD PTR ___security_cookie
  0001c	33 c5		 xor	 eax, ebp
  0001e	50		 push	 eax
  0001f	8d 45 f4	 lea	 eax, DWORD PTR __$EHRec$[ebp]
  00022	64 a3 00 00 00
	00		 mov	 DWORD PTR fs:0, eax
  00028	89 4d f0	 mov	 DWORD PTR _this$[ebp], ecx
  0002b	8b 45 08	 mov	 eax, DWORD PTR __Al_$[ebp]
  0002e	50		 push	 eax
  0002f	8b 4d f0	 mov	 ecx, DWORD PTR _this$[ebp]
  00032	e8 00 00 00 00	 call	 ??0?$_Alloc_construct_ptr@V?$allocator@U?$_Tree_node@U?$pair@$$CBH_N@std@@PAX@std@@@std@@@std@@QAE@AAV?$allocator@U?$_Tree_node@U?$pair@$$CBH_N@std@@PAX@std@@@1@@Z ; std::_Alloc_construct_ptr<std::allocator<std::_Tree_node<std::pair<int const ,bool>,void *> > >::_Alloc_construct_ptr<std::allocator<std::_Tree_node<std::pair<int const ,bool>,void *> > >
  00037	c7 45 fc 00 00
	00 00		 mov	 DWORD PTR __$EHRec$[ebp+8], 0

; 785  :         _Alloc_construct_ptr<_Alnode>::_Allocate();

  0003e	8b 4d f0	 mov	 ecx, DWORD PTR _this$[ebp]
  00041	e8 00 00 00 00	 call	 ?_Allocate@?$_Alloc_construct_ptr@V?$allocator@U?$_Tree_node@U?$pair@$$CBH_N@std@@PAX@std@@@std@@@std@@QAEXXZ ; std::_Alloc_construct_ptr<std::allocator<std::_Tree_node<std::pair<int const ,bool>,void *> > >::_Allocate

; 786  :     }

  00046	c7 45 fc ff ff
	ff ff		 mov	 DWORD PTR __$EHRec$[ebp+8], -1
  0004d	8b 45 f0	 mov	 eax, DWORD PTR _this$[ebp]
  00050	8b 4d f4	 mov	 ecx, DWORD PTR __$EHRec$[ebp]
  00053	64 89 0d 00 00
	00 00		 mov	 DWORD PTR fs:0, ecx
  0005a	59		 pop	 ecx
  0005b	5f		 pop	 edi
  0005c	5e		 pop	 esi
  0005d	5b		 pop	 ebx
  0005e	8b e5		 mov	 esp, ebp
  00060	5d		 pop	 ebp
  00061	c2 04 00	 ret	 4
_TEXT	ENDS
;	COMDAT text$x
text$x	SEGMENT
__unwindfunclet$??0?$_Tree_temp_node_alloc@V?$allocator@U?$_Tree_node@U?$pair@$$CBH_N@std@@PAX@std@@@std@@@std@@QAE@AAV?$allocator@U?$_Tree_node@U?$pair@$$CBH_N@std@@PAX@std@@@1@@Z$0:
  00000	8b 4d f0	 mov	 ecx, DWORD PTR _this$[ebp]
  00003	e9 00 00 00 00	 jmp	 ??1?$_Alloc_construct_ptr@V?$allocator@U?$_Tree_node@U?$pair@$$CBH_N@std@@PAX@std@@@std@@@std@@QAE@XZ ; std::_Alloc_construct_ptr<std::allocator<std::_Tree_node<std::pair<int const ,bool>,void *> > >::~_Alloc_construct_ptr<std::allocator<std::_Tree_node<std::pair<int const ,bool>,void *> > >
  00008	cc		 int	 3
  00009	cc		 int	 3
  0000a	cc		 int	 3
  0000b	cc		 int	 3
  0000c	cc		 int	 3
__ehhandler$??0?$_Tree_temp_node_alloc@V?$allocator@U?$_Tree_node@U?$pair@$$CBH_N@std@@PAX@std@@@std@@@std@@QAE@AAV?$allocator@U?$_Tree_node@U?$pair@$$CBH_N@std@@PAX@std@@@1@@Z:
  0000d	90		 npad	 1
  0000e	90		 npad	 1
  0000f	8b 54 24 08	 mov	 edx, DWORD PTR [esp+8]
  00013	8d 42 0c	 lea	 eax, DWORD PTR [edx+12]
  00016	8b 4a ac	 mov	 ecx, DWORD PTR [edx-84]
  00019	33 c8		 xor	 ecx, eax
  0001b	e8 00 00 00 00	 call	 @__security_check_cookie@4
  00020	b8 00 00 00 00	 mov	 eax, OFFSET __ehfuncinfo$??0?$_Tree_temp_node_alloc@V?$allocator@U?$_Tree_node@U?$pair@$$CBH_N@std@@PAX@std@@@std@@@std@@QAE@AAV?$allocator@U?$_Tree_node@U?$pair@$$CBH_N@std@@PAX@std@@@1@@Z
  00025	e9 00 00 00 00	 jmp	 ___CxxFrameHandler3
text$x	ENDS
??0?$_Tree_temp_node_alloc@V?$allocator@U?$_Tree_node@U?$pair@$$CBH_N@std@@PAX@std@@@std@@@std@@QAE@AAV?$allocator@U?$_Tree_node@U?$pair@$$CBH_N@std@@PAX@std@@@1@@Z ENDP ; std::_Tree_temp_node_alloc<std::allocator<std::_Tree_node<std::pair<int const ,bool>,void *> > >::_Tree_temp_node_alloc<std::allocator<std::_Tree_node<std::pair<int const ,bool>,void *> > >
; Function compile flags: /Odtp /ZI
; File C:\Program Files (x86)\Microsoft Visual Studio\2019\Community\VC\Tools\MSVC\14.27.29110\include\xmemory
;	COMDAT ??1?$_Alloc_construct_ptr@V?$allocator@U?$_Tree_node@U?$pair@$$CBH_N@std@@PAX@std@@@std@@@std@@QAE@XZ
_TEXT	SEGMENT
_this$ = -16						; size = 4
__$EHRec$ = -12						; size = 12
??1?$_Alloc_construct_ptr@V?$allocator@U?$_Tree_node@U?$pair@$$CBH_N@std@@PAX@std@@@std@@@std@@QAE@XZ PROC ; std::_Alloc_construct_ptr<std::allocator<std::_Tree_node<std::pair<int const ,bool>,void *> > >::~_Alloc_construct_ptr<std::allocator<std::_Tree_node<std::pair<int const ,bool>,void *> > >, COMDAT
; _this$ = ecx

; 1051 :     ~_Alloc_construct_ptr() { // if this instance is engaged, deallocate storage

  00000	55		 push	 ebp
  00001	8b ec		 mov	 ebp, esp
  00003	6a ff		 push	 -1
  00005	68 00 00 00 00	 push	 __ehhandler$??1?$_Alloc_construct_ptr@V?$allocator@U?$_Tree_node@U?$pair@$$CBH_N@std@@PAX@std@@@std@@@std@@QAE@XZ
  0000a	64 a1 00 00 00
	00		 mov	 eax, DWORD PTR fs:0
  00010	50		 push	 eax
  00011	83 ec 44	 sub	 esp, 68			; 00000044H
  00014	53		 push	 ebx
  00015	56		 push	 esi
  00016	57		 push	 edi
  00017	a1 00 00 00 00	 mov	 eax, DWORD PTR ___security_cookie
  0001c	33 c5		 xor	 eax, ebp
  0001e	50		 push	 eax
  0001f	8d 45 f4	 lea	 eax, DWORD PTR __$EHRec$[ebp]
  00022	64 a3 00 00 00
	00		 mov	 DWORD PTR fs:0, eax
  00028	89 4d f0	 mov	 DWORD PTR _this$[ebp], ecx

; 1052 :         if (_Ptr) {

  0002b	8b 45 f0	 mov	 eax, DWORD PTR _this$[ebp]
  0002e	83 78 04 00	 cmp	 DWORD PTR [eax+4], 0
  00032	74 13		 je	 SHORT $LN3@Alloc_cons

; 1053 :             _Al.deallocate(_Ptr, 1);

  00034	6a 01		 push	 1
  00036	8b 45 f0	 mov	 eax, DWORD PTR _this$[ebp]
  00039	8b 48 04	 mov	 ecx, DWORD PTR [eax+4]
  0003c	51		 push	 ecx
  0003d	8b 55 f0	 mov	 edx, DWORD PTR _this$[ebp]
  00040	8b 0a		 mov	 ecx, DWORD PTR [edx]
  00042	e8 00 00 00 00	 call	 ?deallocate@?$allocator@U?$_Tree_node@U?$pair@$$CBH_N@std@@PAX@std@@@std@@QAEXQAU?$_Tree_node@U?$pair@$$CBH_N@std@@PAX@2@I@Z ; std::allocator<std::_Tree_node<std::pair<int const ,bool>,void *> >::deallocate
$LN3@Alloc_cons:

; 1054 :         }
; 1055 :     }

  00047	8b 4d f4	 mov	 ecx, DWORD PTR __$EHRec$[ebp]
  0004a	64 89 0d 00 00
	00 00		 mov	 DWORD PTR fs:0, ecx
  00051	59		 pop	 ecx
  00052	5f		 pop	 edi
  00053	5e		 pop	 esi
  00054	5b		 pop	 ebx
  00055	8b e5		 mov	 esp, ebp
  00057	5d		 pop	 ebp
  00058	c3		 ret	 0
  00059	cc		 int	 3
  0005a	cc		 int	 3
  0005b	cc		 int	 3
  0005c	cc		 int	 3
  0005d	cc		 int	 3
_TEXT	ENDS
;	COMDAT text$x
text$x	SEGMENT
__ehhandler$??1?$_Alloc_construct_ptr@V?$allocator@U?$_Tree_node@U?$pair@$$CBH_N@std@@PAX@std@@@std@@@std@@QAE@XZ:
  00000	90		 npad	 1
  00001	90		 npad	 1
  00002	8b 54 24 08	 mov	 edx, DWORD PTR [esp+8]
  00006	8d 42 0c	 lea	 eax, DWORD PTR [edx+12]
  00009	8b 4a ac	 mov	 ecx, DWORD PTR [edx-84]
  0000c	33 c8		 xor	 ecx, eax
  0000e	e8 00 00 00 00	 call	 @__security_check_cookie@4
  00013	b8 00 00 00 00	 mov	 eax, OFFSET __ehfuncinfo$??1?$_Alloc_construct_ptr@V?$allocator@U?$_Tree_node@U?$pair@$$CBH_N@std@@PAX@std@@@std@@@std@@QAE@XZ
  00018	e9 00 00 00 00	 jmp	 ___CxxFrameHandler3
text$x	ENDS
??1?$_Alloc_construct_ptr@V?$allocator@U?$_Tree_node@U?$pair@$$CBH_N@std@@PAX@std@@@std@@@std@@QAE@XZ ENDP ; std::_Alloc_construct_ptr<std::allocator<std::_Tree_node<std::pair<int const ,bool>,void *> > >::~_Alloc_construct_ptr<std::allocator<std::_Tree_node<std::pair<int const ,bool>,void *> > >
; Function compile flags: /Odtp /ZI
; File C:\Program Files (x86)\Microsoft Visual Studio\2019\Community\VC\Tools\MSVC\14.27.29110\include\xmemory
;	COMDAT ?_Allocate@?$_Alloc_construct_ptr@V?$allocator@U?$_Tree_node@U?$pair@$$CBH_N@std@@PAX@std@@@std@@@std@@QAEXXZ
_TEXT	SEGMENT
_this$ = -4						; size = 4
?_Allocate@?$_Alloc_construct_ptr@V?$allocator@U?$_Tree_node@U?$pair@$$CBH_N@std@@PAX@std@@@std@@@std@@QAEXXZ PROC ; std::_Alloc_construct_ptr<std::allocator<std::_Tree_node<std::pair<int const ,bool>,void *> > >::_Allocate, COMDAT
; _this$ = ecx

; 1046 :     void _Allocate() { // disengage *this, then allocate a new memory block

  00000	55		 push	 ebp
  00001	8b ec		 mov	 ebp, esp
  00003	83 ec 44	 sub	 esp, 68			; 00000044H
  00006	53		 push	 ebx
  00007	56		 push	 esi
  00008	57		 push	 edi
  00009	89 4d fc	 mov	 DWORD PTR _this$[ebp], ecx

; 1047 :         _Ptr = nullptr; // if allocate throws, prevents double-free

  0000c	8b 45 fc	 mov	 eax, DWORD PTR _this$[ebp]
  0000f	c7 40 04 00 00
	00 00		 mov	 DWORD PTR [eax+4], 0

; 1048 :         _Ptr = _Al.allocate(1);

  00016	6a 01		 push	 1
  00018	8b 45 fc	 mov	 eax, DWORD PTR _this$[ebp]
  0001b	8b 08		 mov	 ecx, DWORD PTR [eax]
  0001d	e8 00 00 00 00	 call	 ?allocate@?$allocator@U?$_Tree_node@U?$pair@$$CBH_N@std@@PAX@std@@@std@@QAEPAU?$_Tree_node@U?$pair@$$CBH_N@std@@PAX@2@I@Z ; std::allocator<std::_Tree_node<std::pair<int const ,bool>,void *> >::allocate
  00022	8b 4d fc	 mov	 ecx, DWORD PTR _this$[ebp]
  00025	89 41 04	 mov	 DWORD PTR [ecx+4], eax

; 1049 :     }

  00028	5f		 pop	 edi
  00029	5e		 pop	 esi
  0002a	5b		 pop	 ebx
  0002b	8b e5		 mov	 esp, ebp
  0002d	5d		 pop	 ebp
  0002e	c3		 ret	 0
?_Allocate@?$_Alloc_construct_ptr@V?$allocator@U?$_Tree_node@U?$pair@$$CBH_N@std@@PAX@std@@@std@@@std@@QAEXXZ ENDP ; std::_Alloc_construct_ptr<std::allocator<std::_Tree_node<std::pair<int const ,bool>,void *> > >::_Allocate
_TEXT	ENDS
; Function compile flags: /Odtp /ZI
; File C:\Program Files (x86)\Microsoft Visual Studio\2019\Community\VC\Tools\MSVC\14.27.29110\include\xmemory
;	COMDAT ?_Release@?$_Alloc_construct_ptr@V?$allocator@U?$_Tree_node@U?$pair@$$CBH_N@std@@PAX@std@@@std@@@std@@QAEPAU?$_Tree_node@U?$pair@$$CBH_N@std@@PAX@2@XZ
_TEXT	SEGMENT
$T1 = -72						; size = 4
_this$ = -4						; size = 4
?_Release@?$_Alloc_construct_ptr@V?$allocator@U?$_Tree_node@U?$pair@$$CBH_N@std@@PAX@std@@@std@@@std@@QAEPAU?$_Tree_node@U?$pair@$$CBH_N@std@@PAX@2@XZ PROC ; std::_Alloc_construct_ptr<std::allocator<std::_Tree_node<std::pair<int const ,bool>,void *> > >::_Release, COMDAT
; _this$ = ecx

; 1042 :     _NODISCARD pointer _Release() noexcept { // disengage *this and return contained pointer

  00000	55		 push	 ebp
  00001	8b ec		 mov	 ebp, esp
  00003	83 ec 48	 sub	 esp, 72			; 00000048H
  00006	53		 push	 ebx
  00007	56		 push	 esi
  00008	57		 push	 edi
  00009	89 4d fc	 mov	 DWORD PTR _this$[ebp], ecx

; 1043 :         return _STD exchange(_Ptr, nullptr);

  0000c	c7 45 b8 00 00
	00 00		 mov	 DWORD PTR $T1[ebp], 0
  00013	8d 45 b8	 lea	 eax, DWORD PTR $T1[ebp]
  00016	50		 push	 eax
  00017	8b 4d fc	 mov	 ecx, DWORD PTR _this$[ebp]
  0001a	83 c1 04	 add	 ecx, 4
  0001d	51		 push	 ecx
  0001e	e8 00 00 00 00	 call	 ??$exchange@PAU?$_Tree_node@U?$pair@$$CBH_N@std@@PAX@std@@$$T@std@@YAPAU?$_Tree_node@U?$pair@$$CBH_N@std@@PAX@0@AAPAU10@$$QA$$T@Z ; std::exchange<std::_Tree_node<std::pair<int const ,bool>,void *> *,std::nullptr_t>
  00023	83 c4 08	 add	 esp, 8

; 1044 :     }

  00026	5f		 pop	 edi
  00027	5e		 pop	 esi
  00028	5b		 pop	 ebx
  00029	8b e5		 mov	 esp, ebp
  0002b	5d		 pop	 ebp
  0002c	c3		 ret	 0
?_Release@?$_Alloc_construct_ptr@V?$allocator@U?$_Tree_node@U?$pair@$$CBH_N@std@@PAX@std@@@std@@@std@@QAEPAU?$_Tree_node@U?$pair@$$CBH_N@std@@PAX@2@XZ ENDP ; std::_Alloc_construct_ptr<std::allocator<std::_Tree_node<std::pair<int const ,bool>,void *> > >::_Release
_TEXT	ENDS
; Function compile flags: /Odtp /ZI
; File C:\Program Files (x86)\Microsoft Visual Studio\2019\Community\VC\Tools\MSVC\14.27.29110\include\xmemory
;	COMDAT ??0?$_Alloc_construct_ptr@V?$allocator@U?$_Tree_node@U?$pair@$$CBH_N@std@@PAX@std@@@std@@@std@@QAE@AAV?$allocator@U?$_Tree_node@U?$pair@$$CBH_N@std@@PAX@std@@@1@@Z
_TEXT	SEGMENT
_this$ = -4						; size = 4
__Al_$ = 8						; size = 4
??0?$_Alloc_construct_ptr@V?$allocator@U?$_Tree_node@U?$pair@$$CBH_N@std@@PAX@std@@@std@@@std@@QAE@AAV?$allocator@U?$_Tree_node@U?$pair@$$CBH_N@std@@PAX@std@@@1@@Z PROC ; std::_Alloc_construct_ptr<std::allocator<std::_Tree_node<std::pair<int const ,bool>,void *> > >::_Alloc_construct_ptr<std::allocator<std::_Tree_node<std::pair<int const ,bool>,void *> > >, COMDAT
; _this$ = ecx

; 1040 :     explicit _Alloc_construct_ptr(_Alloc& _Al_) : _Al(_Al_), _Ptr(nullptr) {}

  00000	55		 push	 ebp
  00001	8b ec		 mov	 ebp, esp
  00003	83 ec 44	 sub	 esp, 68			; 00000044H
  00006	53		 push	 ebx
  00007	56		 push	 esi
  00008	57		 push	 edi
  00009	89 4d fc	 mov	 DWORD PTR _this$[ebp], ecx
  0000c	8b 45 fc	 mov	 eax, DWORD PTR _this$[ebp]
  0000f	8b 4d 08	 mov	 ecx, DWORD PTR __Al_$[ebp]
  00012	89 08		 mov	 DWORD PTR [eax], ecx
  00014	8b 45 fc	 mov	 eax, DWORD PTR _this$[ebp]
  00017	c7 40 04 00 00
	00 00		 mov	 DWORD PTR [eax+4], 0
  0001e	8b 45 fc	 mov	 eax, DWORD PTR _this$[ebp]
  00021	5f		 pop	 edi
  00022	5e		 pop	 esi
  00023	5b		 pop	 ebx
  00024	8b e5		 mov	 esp, ebp
  00026	5d		 pop	 ebp
  00027	c2 04 00	 ret	 4
??0?$_Alloc_construct_ptr@V?$allocator@U?$_Tree_node@U?$pair@$$CBH_N@std@@PAX@std@@@std@@@std@@QAE@AAV?$allocator@U?$_Tree_node@U?$pair@$$CBH_N@std@@PAX@std@@@1@@Z ENDP ; std::_Alloc_construct_ptr<std::allocator<std::_Tree_node<std::pair<int const ,bool>,void *> > >::_Alloc_construct_ptr<std::allocator<std::_Tree_node<std::pair<int const ,bool>,void *> > >
_TEXT	ENDS
; Function compile flags: /Odtp /ZI
; File C:\Program Files (x86)\Microsoft Visual Studio\2019\Community\VC\Tools\MSVC\14.27.29110\include\utility
;	COMDAT ??$?0AAPAU?$_Tree_node@U?$pair@$$CBH_N@std@@PAX@std@@_N$0A@@?$pair@PAU?$_Tree_node@U?$pair@$$CBH_N@std@@PAX@std@@_N@std@@QAE@AAPAU?$_Tree_node@U?$pair@$$CBH_N@std@@PAX@1@$$QA_N@Z
_TEXT	SEGMENT
_this$ = -4						; size = 4
__Val1$ = 8						; size = 4
__Val2$ = 12						; size = 4
??$?0AAPAU?$_Tree_node@U?$pair@$$CBH_N@std@@PAX@std@@_N$0A@@?$pair@PAU?$_Tree_node@U?$pair@$$CBH_N@std@@PAX@std@@_N@std@@QAE@AAPAU?$_Tree_node@U?$pair@$$CBH_N@std@@PAX@1@$$QA_N@Z PROC ; std::pair<std::_Tree_node<std::pair<int const ,bool>,void *> *,bool>::pair<std::_Tree_node<std::pair<int const ,bool>,void *> *,bool><std::_Tree_node<std::pair<int const ,bool>,void *> * &,bool,0>, COMDAT
; _this$ = ecx

; 192  :         : first(_STD forward<_Other1>(_Val1)), second(_STD forward<_Other2>(_Val2)) {}

  00000	55		 push	 ebp
  00001	8b ec		 mov	 ebp, esp
  00003	83 ec 44	 sub	 esp, 68			; 00000044H
  00006	53		 push	 ebx
  00007	56		 push	 esi
  00008	57		 push	 edi
  00009	89 4d fc	 mov	 DWORD PTR _this$[ebp], ecx
  0000c	8b 45 08	 mov	 eax, DWORD PTR __Val1$[ebp]
  0000f	50		 push	 eax
  00010	e8 00 00 00 00	 call	 ??$forward@AAPAU?$_Tree_node@U?$pair@$$CBH_N@std@@PAX@std@@@std@@YAAAPAU?$_Tree_node@U?$pair@$$CBH_N@std@@PAX@0@AAPAU10@@Z ; std::forward<std::_Tree_node<std::pair<int const ,bool>,void *> * &>
  00015	83 c4 04	 add	 esp, 4
  00018	8b 4d fc	 mov	 ecx, DWORD PTR _this$[ebp]
  0001b	8b 10		 mov	 edx, DWORD PTR [eax]
  0001d	89 11		 mov	 DWORD PTR [ecx], edx
  0001f	8b 45 0c	 mov	 eax, DWORD PTR __Val2$[ebp]
  00022	50		 push	 eax
  00023	e8 00 00 00 00	 call	 ??$forward@_N@std@@YA$$QA_NAA_N@Z ; std::forward<bool>
  00028	83 c4 04	 add	 esp, 4
  0002b	8b 4d fc	 mov	 ecx, DWORD PTR _this$[ebp]
  0002e	8a 10		 mov	 dl, BYTE PTR [eax]
  00030	88 51 04	 mov	 BYTE PTR [ecx+4], dl
  00033	8b 45 fc	 mov	 eax, DWORD PTR _this$[ebp]
  00036	5f		 pop	 edi
  00037	5e		 pop	 esi
  00038	5b		 pop	 ebx
  00039	8b e5		 mov	 esp, ebp
  0003b	5d		 pop	 ebp
  0003c	c2 08 00	 ret	 8
??$?0AAPAU?$_Tree_node@U?$pair@$$CBH_N@std@@PAX@std@@_N$0A@@?$pair@PAU?$_Tree_node@U?$pair@$$CBH_N@std@@PAX@std@@_N@std@@QAE@AAPAU?$_Tree_node@U?$pair@$$CBH_N@std@@PAX@1@$$QA_N@Z ENDP ; std::pair<std::_Tree_node<std::pair<int const ,bool>,void *> *,bool>::pair<std::_Tree_node<std::pair<int const ,bool>,void *> *,bool><std::_Tree_node<std::pair<int const ,bool>,void *> * &,bool,0>
_TEXT	ENDS
; Function compile flags: /Odtp /ZI
; File C:\Program Files (x86)\Microsoft Visual Studio\2019\Community\VC\Tools\MSVC\14.27.29110\include\xmemory
;	COMDAT ?_Extract@?$_In_place_key_extract_map@HU?$pair@H_N@std@@@std@@SAABHABU?$pair@H_N@2@@Z
_TEXT	SEGMENT
__Val$ = 8						; size = 4
?_Extract@?$_In_place_key_extract_map@HU?$pair@H_N@std@@@std@@SAABHABU?$pair@H_N@2@@Z PROC ; std::_In_place_key_extract_map<int,std::pair<int,bool> >::_Extract, COMDAT

; 1961 :     static const _Key& _Extract(const pair<_First, _Second>& _Val) {

  00000	55		 push	 ebp
  00001	8b ec		 mov	 ebp, esp
  00003	83 ec 40	 sub	 esp, 64			; 00000040H
  00006	53		 push	 ebx
  00007	56		 push	 esi
  00008	57		 push	 edi

; 1962 :         return _Val.first;

  00009	8b 45 08	 mov	 eax, DWORD PTR __Val$[ebp]

; 1963 :     }

  0000c	5f		 pop	 edi
  0000d	5e		 pop	 esi
  0000e	5b		 pop	 ebx
  0000f	8b e5		 mov	 esp, ebp
  00011	5d		 pop	 ebp
  00012	c3		 ret	 0
?_Extract@?$_In_place_key_extract_map@HU?$pair@H_N@std@@@std@@SAABHABU?$pair@H_N@2@@Z ENDP ; std::_In_place_key_extract_map<int,std::pair<int,bool> >::_Extract
_TEXT	ENDS
; Function compile flags: /Odtp /ZI
; File C:\Program Files (x86)\Microsoft Visual Studio\2019\Community\VC\Tools\MSVC\14.27.29110\include\type_traits
;	COMDAT ??$forward@ABQAU?$_Tree_node@U?$pair@$$CBH_N@std@@PAX@std@@@std@@YAABQAU?$_Tree_node@U?$pair@$$CBH_N@std@@PAX@0@ABQAU10@@Z
_TEXT	SEGMENT
__Arg$ = 8						; size = 4
??$forward@ABQAU?$_Tree_node@U?$pair@$$CBH_N@std@@PAX@std@@@std@@YAABQAU?$_Tree_node@U?$pair@$$CBH_N@std@@PAX@0@ABQAU10@@Z PROC ; std::forward<std::_Tree_node<std::pair<int const ,bool>,void *> * const &>, COMDAT

; 1454 :     remove_reference_t<_Ty>& _Arg) noexcept { // forward an lvalue as either an lvalue or an rvalue

  00000	55		 push	 ebp
  00001	8b ec		 mov	 ebp, esp
  00003	83 ec 40	 sub	 esp, 64			; 00000040H
  00006	53		 push	 ebx
  00007	56		 push	 esi
  00008	57		 push	 edi

; 1455 :     return static_cast<_Ty&&>(_Arg);

  00009	8b 45 08	 mov	 eax, DWORD PTR __Arg$[ebp]

; 1456 : }

  0000c	5f		 pop	 edi
  0000d	5e		 pop	 esi
  0000e	5b		 pop	 ebx
  0000f	8b e5		 mov	 esp, ebp
  00011	5d		 pop	 ebp
  00012	c3		 ret	 0
??$forward@ABQAU?$_Tree_node@U?$pair@$$CBH_N@std@@PAX@std@@@std@@YAABQAU?$_Tree_node@U?$pair@$$CBH_N@std@@PAX@0@ABQAU10@@Z ENDP ; std::forward<std::_Tree_node<std::pair<int const ,bool>,void *> * const &>
_TEXT	ENDS
; Function compile flags: /Odtp /ZI
; File C:\Program Files (x86)\Microsoft Visual Studio\2019\Community\VC\Tools\MSVC\14.27.29110\include\xstddef
;	COMDAT ??$addressof@PAU?$_Tree_node@U?$pair@$$CBH_N@std@@PAX@std@@@std@@YAPAPAU?$_Tree_node@U?$pair@$$CBH_N@std@@PAX@0@AAPAU10@@Z
_TEXT	SEGMENT
__Val$ = 8						; size = 4
??$addressof@PAU?$_Tree_node@U?$pair@$$CBH_N@std@@PAX@std@@@std@@YAPAPAU?$_Tree_node@U?$pair@$$CBH_N@std@@PAX@0@AAPAU10@@Z PROC ; std::addressof<std::_Tree_node<std::pair<int const ,bool>,void *> *>, COMDAT

; 274  : _NODISCARD constexpr _Ty* addressof(_Ty& _Val) noexcept {

  00000	55		 push	 ebp
  00001	8b ec		 mov	 ebp, esp
  00003	83 ec 40	 sub	 esp, 64			; 00000040H
  00006	53		 push	 ebx
  00007	56		 push	 esi
  00008	57		 push	 edi

; 275  :     return __builtin_addressof(_Val);

  00009	8b 45 08	 mov	 eax, DWORD PTR __Val$[ebp]

; 276  : }

  0000c	5f		 pop	 edi
  0000d	5e		 pop	 esi
  0000e	5b		 pop	 ebx
  0000f	8b e5		 mov	 esp, ebp
  00011	5d		 pop	 ebp
  00012	c3		 ret	 0
??$addressof@PAU?$_Tree_node@U?$pair@$$CBH_N@std@@PAX@std@@@std@@YAPAPAU?$_Tree_node@U?$pair@$$CBH_N@std@@PAX@0@AAPAU10@@Z ENDP ; std::addressof<std::_Tree_node<std::pair<int const ,bool>,void *> *>
_TEXT	ENDS
; Function compile flags: /Odtp /ZI
; File C:\Program Files (x86)\Microsoft Visual Studio\2019\Community\VC\Tools\MSVC\14.27.29110\include\xmemory
;	COMDAT ??$_Destroy_in_place@PAU?$_Tree_node@U?$pair@$$CBH_N@std@@PAX@std@@@std@@YAXAAPAU?$_Tree_node@U?$pair@$$CBH_N@std@@PAX@0@@Z
_TEXT	SEGMENT
__Obj$ = 8						; size = 4
??$_Destroy_in_place@PAU?$_Tree_node@U?$pair@$$CBH_N@std@@PAX@std@@@std@@YAXAAPAU?$_Tree_node@U?$pair@$$CBH_N@std@@PAX@0@@Z PROC ; std::_Destroy_in_place<std::_Tree_node<std::pair<int const ,bool>,void *> *>, COMDAT

; 267  : void _Destroy_in_place(_Ty& _Obj) noexcept {

  00000	55		 push	 ebp
  00001	8b ec		 mov	 ebp, esp
  00003	83 ec 40	 sub	 esp, 64			; 00000040H
  00006	53		 push	 ebx
  00007	56		 push	 esi
  00008	57		 push	 edi

; 268  :     _Obj.~_Ty();
; 269  : }

  00009	5f		 pop	 edi
  0000a	5e		 pop	 esi
  0000b	5b		 pop	 ebx
  0000c	8b e5		 mov	 esp, ebp
  0000e	5d		 pop	 ebp
  0000f	c3		 ret	 0
??$_Destroy_in_place@PAU?$_Tree_node@U?$pair@$$CBH_N@std@@PAX@std@@@std@@YAXAAPAU?$_Tree_node@U?$pair@$$CBH_N@std@@PAX@0@@Z ENDP ; std::_Destroy_in_place<std::_Tree_node<std::pair<int const ,bool>,void *> *>
_TEXT	ENDS
; Function compile flags: /Odtp /ZI
; File C:\Program Files (x86)\Microsoft Visual Studio\2019\Community\VC\Tools\MSVC\14.27.29110\include\xmemory
;	COMDAT ??$destroy@U?$pair@$$CBH_N@std@@@?$_Default_allocator_traits@V?$allocator@U?$_Tree_node@U?$pair@$$CBH_N@std@@PAX@std@@@std@@@std@@SAXAAV?$allocator@U?$_Tree_node@U?$pair@$$CBH_N@std@@PAX@std@@@1@QAU?$pair@$$CBH_N@1@@Z
_TEXT	SEGMENT
___formal$ = 8						; size = 4
__Ptr$ = 12						; size = 4
??$destroy@U?$pair@$$CBH_N@std@@@?$_Default_allocator_traits@V?$allocator@U?$_Tree_node@U?$pair@$$CBH_N@std@@PAX@std@@@std@@@std@@SAXAAV?$allocator@U?$_Tree_node@U?$pair@$$CBH_N@std@@PAX@std@@@1@QAU?$pair@$$CBH_N@1@@Z PROC ; std::_Default_allocator_traits<std::allocator<std::_Tree_node<std::pair<int const ,bool>,void *> > >::destroy<std::pair<int const ,bool> >, COMDAT

; 698  :     static void destroy(_Alloc&, _Uty* const _Ptr) {

  00000	55		 push	 ebp
  00001	8b ec		 mov	 ebp, esp
  00003	83 ec 40	 sub	 esp, 64			; 00000040H
  00006	53		 push	 ebx
  00007	56		 push	 esi
  00008	57		 push	 edi

; 699  :         _Ptr->~_Uty();
; 700  :     }

  00009	5f		 pop	 edi
  0000a	5e		 pop	 esi
  0000b	5b		 pop	 ebx
  0000c	8b e5		 mov	 esp, ebp
  0000e	5d		 pop	 ebp
  0000f	c3		 ret	 0
??$destroy@U?$pair@$$CBH_N@std@@@?$_Default_allocator_traits@V?$allocator@U?$_Tree_node@U?$pair@$$CBH_N@std@@PAX@std@@@std@@@std@@SAXAAV?$allocator@U?$_Tree_node@U?$pair@$$CBH_N@std@@PAX@std@@@1@QAU?$pair@$$CBH_N@1@@Z ENDP ; std::_Default_allocator_traits<std::allocator<std::_Tree_node<std::pair<int const ,bool>,void *> > >::destroy<std::pair<int const ,bool> >
_TEXT	ENDS
; Function compile flags: /Odtp /ZI
; File C:\Program Files (x86)\Microsoft Visual Studio\2019\Community\VC\Tools\MSVC\14.27.29110\include\map
;	COMDAT ??$_Kfn@$$CBH_N@?$_Tmap_traits@H_NU?$less@H@std@@V?$allocator@U?$pair@$$CBH_N@std@@@2@$0A@@std@@SAABHABU?$pair@$$CBH_N@1@@Z
_TEXT	SEGMENT
__Val$ = 8						; size = 4
??$_Kfn@$$CBH_N@?$_Tmap_traits@H_NU?$less@H@std@@V?$allocator@U?$pair@$$CBH_N@std@@@2@$0A@@std@@SAABHABU?$pair@$$CBH_N@1@@Z PROC ; std::_Tmap_traits<int,bool,std::less<int>,std::allocator<std::pair<int const ,bool> >,0>::_Kfn<int const ,bool>, COMDAT

; 68   :     static const _Kty& _Kfn(const pair<_Ty1, _Ty2>& _Val) { // extract key from element value

  00000	55		 push	 ebp
  00001	8b ec		 mov	 ebp, esp
  00003	83 ec 40	 sub	 esp, 64			; 00000040H
  00006	53		 push	 ebx
  00007	56		 push	 esi
  00008	57		 push	 edi

; 69   :         return _Val.first;

  00009	8b 45 08	 mov	 eax, DWORD PTR __Val$[ebp]

; 70   :     }

  0000c	5f		 pop	 edi
  0000d	5e		 pop	 esi
  0000e	5b		 pop	 ebx
  0000f	8b e5		 mov	 esp, ebp
  00011	5d		 pop	 ebp
  00012	c3		 ret	 0
??$_Kfn@$$CBH_N@?$_Tmap_traits@H_NU?$less@H@std@@V?$allocator@U?$pair@$$CBH_N@std@@@2@$0A@@std@@SAABHABU?$pair@$$CBH_N@1@@Z ENDP ; std::_Tmap_traits<int,bool,std::less<int>,std::allocator<std::pair<int const ,bool> >,0>::_Kfn<int const ,bool>
_TEXT	ENDS
; Function compile flags: /Odtp /ZI
; File C:\Program Files (x86)\Microsoft Visual Studio\2019\Community\VC\Tools\MSVC\14.27.29110\include\utility
;	COMDAT ??$?0V?$_Tree_iterator@V?$_Tree_val@U?$_Tree_simple_types@U?$pair@$$CBH_N@std@@@std@@@std@@@std@@AB_N$0A@@?$pair@V?$_Tree_iterator@V?$_Tree_val@U?$_Tree_simple_types@U?$pair@$$CBH_N@std@@@std@@@std@@@std@@_N@std@@QAE@$$QAV?$_Tree_iterator@V?$_Tree_val@U?$_Tree_simple_types@U?$pair@$$CBH_N@std@@@std@@@std@@@1@AB_N@Z
_TEXT	SEGMENT
_this$ = -4						; size = 4
__Val1$ = 8						; size = 4
__Val2$ = 12						; size = 4
??$?0V?$_Tree_iterator@V?$_Tree_val@U?$_Tree_simple_types@U?$pair@$$CBH_N@std@@@std@@@std@@@std@@AB_N$0A@@?$pair@V?$_Tree_iterator@V?$_Tree_val@U?$_Tree_simple_types@U?$pair@$$CBH_N@std@@@std@@@std@@@std@@_N@std@@QAE@$$QAV?$_Tree_iterator@V?$_Tree_val@U?$_Tree_simple_types@U?$pair@$$CBH_N@std@@@std@@@std@@@1@AB_N@Z PROC ; std::pair<std::_Tree_iterator<std::_Tree_val<std::_Tree_simple_types<std::pair<int const ,bool> > > >,bool>::pair<std::_Tree_iterator<std::_Tree_val<std::_Tree_simple_types<std::pair<int const ,bool> > > >,bool><std::_Tree_iterator<std::_Tree_val<std::_Tree_simple_types<std::pair<int const ,bool> > > >,bool const &,0>, COMDAT
; _this$ = ecx

; 192  :         : first(_STD forward<_Other1>(_Val1)), second(_STD forward<_Other2>(_Val2)) {}

  00000	55		 push	 ebp
  00001	8b ec		 mov	 ebp, esp
  00003	83 ec 44	 sub	 esp, 68			; 00000044H
  00006	53		 push	 ebx
  00007	56		 push	 esi
  00008	57		 push	 edi
  00009	89 4d fc	 mov	 DWORD PTR _this$[ebp], ecx
  0000c	8b 45 08	 mov	 eax, DWORD PTR __Val1$[ebp]
  0000f	50		 push	 eax
  00010	e8 00 00 00 00	 call	 ??$forward@V?$_Tree_iterator@V?$_Tree_val@U?$_Tree_simple_types@U?$pair@$$CBH_N@std@@@std@@@std@@@std@@@std@@YA$$QAV?$_Tree_iterator@V?$_Tree_val@U?$_Tree_simple_types@U?$pair@$$CBH_N@std@@@std@@@std@@@0@AAV10@@Z ; std::forward<std::_Tree_iterator<std::_Tree_val<std::_Tree_simple_types<std::pair<int const ,bool> > > > >
  00015	83 c4 04	 add	 esp, 4
  00018	8b 08		 mov	 ecx, DWORD PTR [eax]
  0001a	8b 55 fc	 mov	 edx, DWORD PTR _this$[ebp]
  0001d	89 0a		 mov	 DWORD PTR [edx], ecx
  0001f	8b 45 0c	 mov	 eax, DWORD PTR __Val2$[ebp]
  00022	50		 push	 eax
  00023	e8 00 00 00 00	 call	 ??$forward@AB_N@std@@YAAB_NAB_N@Z ; std::forward<bool const &>
  00028	83 c4 04	 add	 esp, 4
  0002b	8b 4d fc	 mov	 ecx, DWORD PTR _this$[ebp]
  0002e	8a 10		 mov	 dl, BYTE PTR [eax]
  00030	88 51 04	 mov	 BYTE PTR [ecx+4], dl
  00033	8b 45 fc	 mov	 eax, DWORD PTR _this$[ebp]
  00036	5f		 pop	 edi
  00037	5e		 pop	 esi
  00038	5b		 pop	 ebx
  00039	8b e5		 mov	 esp, ebp
  0003b	5d		 pop	 ebp
  0003c	c2 08 00	 ret	 8
??$?0V?$_Tree_iterator@V?$_Tree_val@U?$_Tree_simple_types@U?$pair@$$CBH_N@std@@@std@@@std@@@std@@AB_N$0A@@?$pair@V?$_Tree_iterator@V?$_Tree_val@U?$_Tree_simple_types@U?$pair@$$CBH_N@std@@@std@@@std@@@std@@_N@std@@QAE@$$QAV?$_Tree_iterator@V?$_Tree_val@U?$_Tree_simple_types@U?$pair@$$CBH_N@std@@@std@@@std@@@1@AB_N@Z ENDP ; std::pair<std::_Tree_iterator<std::_Tree_val<std::_Tree_simple_types<std::pair<int const ,bool> > > >,bool>::pair<std::_Tree_iterator<std::_Tree_val<std::_Tree_simple_types<std::pair<int const ,bool> > > >,bool><std::_Tree_iterator<std::_Tree_val<std::_Tree_simple_types<std::pair<int const ,bool> > > >,bool const &,0>
_TEXT	ENDS
; Function compile flags: /Odtp /ZI
; File C:\Program Files (x86)\Microsoft Visual Studio\2019\Community\VC\Tools\MSVC\14.27.29110\include\xtree
;	COMDAT ??$_Emplace@U?$pair@H_N@std@@@?$_Tree@V?$_Tmap_traits@H_NU?$less@H@std@@V?$allocator@U?$pair@$$CBH_N@std@@@2@$0A@@std@@@std@@IAE?AU?$pair@PAU?$_Tree_node@U?$pair@$$CBH_N@std@@PAX@std@@_N@1@$$QAU?$pair@H_N@1@@Z
_TEXT	SEGMENT
tv141 = -128						; size = 4
$T1 = -124						; size = 4
$T2 = -117						; size = 1
$T3 = -116						; size = 8
$T4 = -105						; size = 1
$T5 = -104						; size = 12
__Keyval$6 = -28					; size = 4
__Inserted$ = -24					; size = 4
__Loc$ = -20						; size = 12
__Scary$ = -8						; size = 4
_this$ = -4						; size = 4
___$ReturnUdt$ = 8					; size = 4
_<_Vals_0>$ = 12					; size = 4
??$_Emplace@U?$pair@H_N@std@@@?$_Tree@V?$_Tmap_traits@H_NU?$less@H@std@@V?$allocator@U?$pair@$$CBH_N@std@@@2@$0A@@std@@@std@@IAE?AU?$pair@PAU?$_Tree_node@U?$pair@$$CBH_N@std@@PAX@std@@_N@1@$$QAU?$pair@H_N@1@@Z PROC ; std::_Tree<std::_Tmap_traits<int,bool,std::less<int>,std::allocator<std::pair<int const ,bool> >,0> >::_Emplace<std::pair<int,bool> >, COMDAT
; _this$ = ecx

; 1002 :     pair<_Nodeptr, bool> _Emplace(_Valtys&&... _Vals) {

  00000	55		 push	 ebp
  00001	8b ec		 mov	 ebp, esp
  00003	81 ec 80 00 00
	00		 sub	 esp, 128		; 00000080H
  00009	53		 push	 ebx
  0000a	56		 push	 esi
  0000b	57		 push	 edi
  0000c	89 4d fc	 mov	 DWORD PTR _this$[ebp], ecx

; 1003 :         using _In_place_key_extractor = typename _Traits::template _In_place_key_extractor<_Remove_cvref_t<_Valtys>...>;
; 1004 :         const auto _Scary             = _Get_scary();

  0000f	8b 4d fc	 mov	 ecx, DWORD PTR _this$[ebp]
  00012	e8 00 00 00 00	 call	 ?_Get_scary@?$_Tree@V?$_Tmap_traits@H_NU?$less@H@std@@V?$allocator@U?$pair@$$CBH_N@std@@@2@$0A@@std@@@std@@IAEPAV?$_Tree_val@U?$_Tree_simple_types@U?$pair@$$CBH_N@std@@@std@@@2@XZ ; std::_Tree<std::_Tmap_traits<int,bool,std::less<int>,std::allocator<std::pair<int const ,bool> >,0> >::_Get_scary
  00017	89 45 f8	 mov	 DWORD PTR __Scary$[ebp], eax

; 1005 :         _Tree_find_result<_Nodeptr> _Loc;
; 1006 :         _Nodeptr _Inserted;
; 1007 :         if constexpr (!_Multi && _In_place_key_extractor::_Extractable) {
; 1008 :             const auto& _Keyval = _In_place_key_extractor::_Extract(_Vals...);

  0001a	8b 45 0c	 mov	 eax, DWORD PTR _<_Vals_0>$[ebp]
  0001d	50		 push	 eax
  0001e	e8 00 00 00 00	 call	 ?_Extract@?$_In_place_key_extract_map@HU?$pair@H_N@std@@@std@@SAABHABU?$pair@H_N@2@@Z ; std::_In_place_key_extract_map<int,std::pair<int,bool> >::_Extract
  00023	83 c4 04	 add	 esp, 4
  00026	89 45 e4	 mov	 DWORD PTR __Keyval$6[ebp], eax

; 1009 :             _Loc                = _Find_lower_bound(_Keyval);

  00029	8b 45 e4	 mov	 eax, DWORD PTR __Keyval$6[ebp]
  0002c	50		 push	 eax
  0002d	8d 4d 98	 lea	 ecx, DWORD PTR $T5[ebp]
  00030	51		 push	 ecx
  00031	8b 4d fc	 mov	 ecx, DWORD PTR _this$[ebp]
  00034	e8 00 00 00 00	 call	 ??$_Find_lower_bound@H@?$_Tree@V?$_Tmap_traits@H_NU?$less@H@std@@V?$allocator@U?$pair@$$CBH_N@std@@@2@$0A@@std@@@std@@IBE?AU?$_Tree_find_result@PAU?$_Tree_node@U?$pair@$$CBH_N@std@@PAX@std@@@1@ABH@Z ; std::_Tree<std::_Tmap_traits<int,bool,std::less<int>,std::allocator<std::pair<int const ,bool> >,0> >::_Find_lower_bound<int>
  00039	8b 10		 mov	 edx, DWORD PTR [eax]
  0003b	89 55 ec	 mov	 DWORD PTR __Loc$[ebp], edx
  0003e	8b 48 04	 mov	 ecx, DWORD PTR [eax+4]
  00041	89 4d f0	 mov	 DWORD PTR __Loc$[ebp+4], ecx
  00044	8b 50 08	 mov	 edx, DWORD PTR [eax+8]
  00047	89 55 f4	 mov	 DWORD PTR __Loc$[ebp+8], edx

; 1010 :             if (_Lower_bound_duplicate(_Loc._Bound, _Keyval)) {

  0004a	8b 45 e4	 mov	 eax, DWORD PTR __Keyval$6[ebp]
  0004d	50		 push	 eax
  0004e	8b 4d f4	 mov	 ecx, DWORD PTR __Loc$[ebp+8]
  00051	51		 push	 ecx
  00052	8b 4d fc	 mov	 ecx, DWORD PTR _this$[ebp]
  00055	e8 00 00 00 00	 call	 ??$_Lower_bound_duplicate@H@?$_Tree@V?$_Tmap_traits@H_NU?$less@H@std@@V?$allocator@U?$pair@$$CBH_N@std@@@2@$0A@@std@@@std@@IBE_NQAU?$_Tree_node@U?$pair@$$CBH_N@std@@PAX@1@ABH@Z ; std::_Tree<std::_Tmap_traits<int,bool,std::less<int>,std::allocator<std::pair<int const ,bool> >,0> >::_Lower_bound_duplicate<int>
  0005a	0f b6 d0	 movzx	 edx, al
  0005d	85 d2		 test	 edx, edx
  0005f	74 19		 je	 SHORT $LN2@Emplace

; 1011 :                 return {_Loc._Bound, false};

  00061	c6 45 97 00	 mov	 BYTE PTR $T4[ebp], 0
  00065	8d 45 97	 lea	 eax, DWORD PTR $T4[ebp]
  00068	50		 push	 eax
  00069	8d 4d f4	 lea	 ecx, DWORD PTR __Loc$[ebp+8]
  0006c	51		 push	 ecx
  0006d	8b 4d 08	 mov	 ecx, DWORD PTR ___$ReturnUdt$[ebp]
  00070	e8 00 00 00 00	 call	 ??$?0AAPAU?$_Tree_node@U?$pair@$$CBH_N@std@@PAX@std@@_N$0A@@?$pair@PAU?$_Tree_node@U?$pair@$$CBH_N@std@@PAX@std@@_N@std@@QAE@AAPAU?$_Tree_node@U?$pair@$$CBH_N@std@@PAX@1@$$QA_N@Z ; std::pair<std::_Tree_node<std::pair<int const ,bool>,void *> *,bool>::pair<std::_Tree_node<std::pair<int const ,bool>,void *> *,bool><std::_Tree_node<std::pair<int const ,bool>,void *> * &,bool,0>
  00075	8b 45 08	 mov	 eax, DWORD PTR ___$ReturnUdt$[ebp]
  00078	eb 70		 jmp	 SHORT $LN1@Emplace
$LN2@Emplace:

; 1012 :             }
; 1013 : 
; 1014 :             _Check_grow_by_1();

  0007a	8b 4d fc	 mov	 ecx, DWORD PTR _this$[ebp]
  0007d	e8 00 00 00 00	 call	 ?_Check_grow_by_1@?$_Tree@V?$_Tmap_traits@H_NU?$less@H@std@@V?$allocator@U?$pair@$$CBH_N@std@@@2@$0A@@std@@@std@@IAEXXZ ; std::_Tree<std::_Tmap_traits<int,bool,std::less<int>,std::allocator<std::pair<int const ,bool> >,0> >::_Check_grow_by_1

; 1015 :             _Inserted = _Tree_temp_node<_Alnode>(_Getal(), _Scary->_Myhead, _STD forward<_Valtys>(_Vals)...)._Release();

  00082	8b 45 0c	 mov	 eax, DWORD PTR _<_Vals_0>$[ebp]
  00085	50		 push	 eax
  00086	e8 00 00 00 00	 call	 ??$forward@U?$pair@H_N@std@@@std@@YA$$QAU?$pair@H_N@0@AAU10@@Z ; std::forward<std::pair<int,bool> >
  0008b	83 c4 04	 add	 esp, 4
  0008e	50		 push	 eax
  0008f	8b 4d f8	 mov	 ecx, DWORD PTR __Scary$[ebp]
  00092	8b 11		 mov	 edx, DWORD PTR [ecx]
  00094	52		 push	 edx
  00095	8b 4d fc	 mov	 ecx, DWORD PTR _this$[ebp]
  00098	e8 00 00 00 00	 call	 ?_Getal@?$_Tree@V?$_Tmap_traits@H_NU?$less@H@std@@V?$allocator@U?$pair@$$CBH_N@std@@@2@$0A@@std@@@std@@IAEAAV?$allocator@U?$_Tree_node@U?$pair@$$CBH_N@std@@PAX@std@@@2@XZ ; std::_Tree<std::_Tmap_traits<int,bool,std::less<int>,std::allocator<std::pair<int const ,bool> >,0> >::_Getal
  0009d	50		 push	 eax
  0009e	8d 4d 8c	 lea	 ecx, DWORD PTR $T3[ebp]
  000a1	e8 00 00 00 00	 call	 ??$?0U?$pair@H_N@std@@@?$_Tree_temp_node@V?$allocator@U?$_Tree_node@U?$pair@$$CBH_N@std@@PAX@std@@@std@@@std@@QAE@AAV?$allocator@U?$_Tree_node@U?$pair@$$CBH_N@std@@PAX@std@@@1@PAU?$_Tree_node@U?$pair@$$CBH_N@std@@PAX@1@$$QAU?$pair@H_N@1@@Z ; std::_Tree_temp_node<std::allocator<std::_Tree_node<std::pair<int const ,bool>,void *> > >::_Tree_temp_node<std::allocator<std::_Tree_node<std::pair<int const ,bool>,void *> > ><std::pair<int,bool> >
  000a6	89 45 80	 mov	 DWORD PTR tv141[ebp], eax
  000a9	8b 4d 80	 mov	 ecx, DWORD PTR tv141[ebp]
  000ac	e8 00 00 00 00	 call	 ?_Release@?$_Alloc_construct_ptr@V?$allocator@U?$_Tree_node@U?$pair@$$CBH_N@std@@PAX@std@@@std@@@std@@QAEPAU?$_Tree_node@U?$pair@$$CBH_N@std@@PAX@2@XZ ; std::_Alloc_construct_ptr<std::allocator<std::_Tree_node<std::pair<int const ,bool>,void *> > >::_Release
  000b1	89 45 e8	 mov	 DWORD PTR __Inserted$[ebp], eax
  000b4	8d 4d 8c	 lea	 ecx, DWORD PTR $T3[ebp]
  000b7	e8 00 00 00 00	 call	 ??1?$_Tree_temp_node@V?$allocator@U?$_Tree_node@U?$pair@$$CBH_N@std@@PAX@std@@@std@@@std@@QAE@XZ ; std::_Tree_temp_node<std::allocator<std::_Tree_node<std::pair<int const ,bool>,void *> > >::~_Tree_temp_node<std::allocator<std::_Tree_node<std::pair<int const ,bool>,void *> > >

; 1016 :             // nothrow hereafter
; 1017 :         } else {
; 1018 :             _Tree_temp_node<_Alnode> _Newnode(_Getal(), _Scary->_Myhead, _STD forward<_Valtys>(_Vals)...);
; 1019 :             const auto& _Keyval = _Traits::_Kfn(_Newnode._Ptr->_Myval);
; 1020 :             if constexpr (_Multi) { // duplicate check if unique
; 1021 :                 _Loc = _Find_upper_bound(_Keyval);
; 1022 :             } else {
; 1023 :                 _Loc = _Find_lower_bound(_Keyval);
; 1024 :                 if (_Lower_bound_duplicate(_Loc._Bound, _Keyval)) {
; 1025 :                     return {_Loc._Bound, false};
; 1026 :                 }
; 1027 :             }
; 1028 : 
; 1029 :             _Check_grow_by_1();
; 1030 :             // nothrow hereafter
; 1031 :             _Inserted = _Newnode._Release();
; 1032 :         }
; 1033 : 
; 1034 :         return {_Scary->_Insert_node(_Loc._Location, _Inserted), true};

  000bc	8b 45 e8	 mov	 eax, DWORD PTR __Inserted$[ebp]
  000bf	50		 push	 eax
  000c0	8b 4d f0	 mov	 ecx, DWORD PTR __Loc$[ebp+4]
  000c3	51		 push	 ecx
  000c4	8b 55 ec	 mov	 edx, DWORD PTR __Loc$[ebp]
  000c7	52		 push	 edx
  000c8	8b 4d f8	 mov	 ecx, DWORD PTR __Scary$[ebp]
  000cb	e8 00 00 00 00	 call	 ?_Insert_node@?$_Tree_val@U?$_Tree_simple_types@U?$pair@$$CBH_N@std@@@std@@@std@@QAEPAU?$_Tree_node@U?$pair@$$CBH_N@std@@PAX@2@U?$_Tree_id@PAU?$_Tree_node@U?$pair@$$CBH_N@std@@PAX@std@@@2@QAU32@@Z ; std::_Tree_val<std::_Tree_simple_types<std::pair<int const ,bool> > >::_Insert_node
  000d0	89 45 84	 mov	 DWORD PTR $T1[ebp], eax
  000d3	c6 45 8b 01	 mov	 BYTE PTR $T2[ebp], 1
  000d7	8d 45 8b	 lea	 eax, DWORD PTR $T2[ebp]
  000da	50		 push	 eax
  000db	8d 4d 84	 lea	 ecx, DWORD PTR $T1[ebp]
  000de	51		 push	 ecx
  000df	8b 4d 08	 mov	 ecx, DWORD PTR ___$ReturnUdt$[ebp]
  000e2	e8 00 00 00 00	 call	 ??$?0PAU?$_Tree_node@U?$pair@$$CBH_N@std@@PAX@std@@_N$0A@@?$pair@PAU?$_Tree_node@U?$pair@$$CBH_N@std@@PAX@std@@_N@std@@QAE@$$QAPAU?$_Tree_node@U?$pair@$$CBH_N@std@@PAX@1@$$QA_N@Z ; std::pair<std::_Tree_node<std::pair<int const ,bool>,void *> *,bool>::pair<std::_Tree_node<std::pair<int const ,bool>,void *> *,bool><std::_Tree_node<std::pair<int const ,bool>,void *> *,bool,0>
  000e7	8b 45 08	 mov	 eax, DWORD PTR ___$ReturnUdt$[ebp]
$LN1@Emplace:

; 1035 :     }

  000ea	5f		 pop	 edi
  000eb	5e		 pop	 esi
  000ec	5b		 pop	 ebx
  000ed	8b e5		 mov	 esp, ebp
  000ef	5d		 pop	 ebp
  000f0	c2 08 00	 ret	 8
??$_Emplace@U?$pair@H_N@std@@@?$_Tree@V?$_Tmap_traits@H_NU?$less@H@std@@V?$allocator@U?$pair@$$CBH_N@std@@@2@$0A@@std@@@std@@IAE?AU?$pair@PAU?$_Tree_node@U?$pair@$$CBH_N@std@@PAX@std@@_N@1@$$QAU?$pair@H_N@1@@Z ENDP ; std::_Tree<std::_Tmap_traits<int,bool,std::less<int>,std::allocator<std::pair<int const ,bool> >,0> >::_Emplace<std::pair<int,bool> >
_TEXT	ENDS
; Function compile flags: /Odtp /ZI
; File C:\Program Files (x86)\Microsoft Visual Studio\2019\Community\VC\Tools\MSVC\14.27.29110\include\xmemory
;	COMDAT ??$_Get_size_of_n@$0BI@@std@@YAII@Z
_TEXT	SEGMENT
__Max_possible$1 = -8					; size = 4
__Overflow_is_possible$ = -1				; size = 1
__Count$ = 8						; size = 4
??$_Get_size_of_n@$0BI@@std@@YAII@Z PROC		; std::_Get_size_of_n<24>, COMDAT

; 55   : _NODISCARD constexpr size_t _Get_size_of_n(const size_t _Count) {

  00000	55		 push	 ebp
  00001	8b ec		 mov	 ebp, esp
  00003	83 ec 48	 sub	 esp, 72			; 00000048H
  00006	53		 push	 ebx
  00007	56		 push	 esi
  00008	57		 push	 edi

; 56   :     constexpr bool _Overflow_is_possible = _Ty_size > 1;

  00009	c6 45 ff 01	 mov	 BYTE PTR __Overflow_is_possible$[ebp], 1

; 57   : 
; 58   :     if _CONSTEXPR_IF (_Overflow_is_possible) {
; 59   :         constexpr size_t _Max_possible = static_cast<size_t>(-1) / _Ty_size;

  0000d	c7 45 f8 aa aa
	aa 0a		 mov	 DWORD PTR __Max_possible$1[ebp], 178956970 ; 0aaaaaaaH

; 60   :         if (_Count > _Max_possible) {

  00014	81 7d 08 aa aa
	aa 0a		 cmp	 DWORD PTR __Count$[ebp], 178956970 ; 0aaaaaaaH
  0001b	76 05		 jbe	 SHORT $LN2@Get_size_o

; 61   :             _Throw_bad_array_new_length(); // multiply overflow

  0001d	e8 00 00 00 00	 call	 ?_Throw_bad_array_new_length@std@@YAXXZ ; std::_Throw_bad_array_new_length
$LN2@Get_size_o:

; 62   :         }
; 63   :     }
; 64   : 
; 65   :     return _Count * _Ty_size;

  00022	6b 45 08 18	 imul	 eax, DWORD PTR __Count$[ebp], 24
$LN3@Get_size_o:

; 66   : }

  00026	5f		 pop	 edi
  00027	5e		 pop	 esi
  00028	5b		 pop	 ebx
  00029	8b e5		 mov	 esp, ebp
  0002b	5d		 pop	 ebp
  0002c	c3		 ret	 0
??$_Get_size_of_n@$0BI@@std@@YAII@Z ENDP		; std::_Get_size_of_n<24>
_TEXT	ENDS
; Function compile flags: /Odtp /ZI
; File C:\Program Files (x86)\Microsoft Visual Studio\2019\Community\VC\Tools\MSVC\14.27.29110\include\xstddef
;	COMDAT ??$addressof@$$CBV?$_Tree_val@U?$_Tree_simple_types@U?$pair@$$CBH_N@std@@@std@@@std@@@std@@YAPBV?$_Tree_val@U?$_Tree_simple_types@U?$pair@$$CBH_N@std@@@std@@@0@ABV10@@Z
_TEXT	SEGMENT
__Val$ = 8						; size = 4
??$addressof@$$CBV?$_Tree_val@U?$_Tree_simple_types@U?$pair@$$CBH_N@std@@@std@@@std@@@std@@YAPBV?$_Tree_val@U?$_Tree_simple_types@U?$pair@$$CBH_N@std@@@std@@@0@ABV10@@Z PROC ; std::addressof<std::_Tree_val<std::_Tree_simple_types<std::pair<int const ,bool> > > const >, COMDAT

; 274  : _NODISCARD constexpr _Ty* addressof(_Ty& _Val) noexcept {

  00000	55		 push	 ebp
  00001	8b ec		 mov	 ebp, esp
  00003	83 ec 40	 sub	 esp, 64			; 00000040H
  00006	53		 push	 ebx
  00007	56		 push	 esi
  00008	57		 push	 edi

; 275  :     return __builtin_addressof(_Val);

  00009	8b 45 08	 mov	 eax, DWORD PTR __Val$[ebp]

; 276  : }

  0000c	5f		 pop	 edi
  0000d	5e		 pop	 esi
  0000e	5b		 pop	 ebx
  0000f	8b e5		 mov	 esp, ebp
  00011	5d		 pop	 ebp
  00012	c3		 ret	 0
??$addressof@$$CBV?$_Tree_val@U?$_Tree_simple_types@U?$pair@$$CBH_N@std@@@std@@@std@@@std@@YAPBV?$_Tree_val@U?$_Tree_simple_types@U?$pair@$$CBH_N@std@@@std@@@0@ABV10@@Z ENDP ; std::addressof<std::_Tree_val<std::_Tree_simple_types<std::pair<int const ,bool> > > const >
_TEXT	ENDS
; Function compile flags: /Odtp /ZI
; File C:\Program Files (x86)\Microsoft Visual Studio\2019\Community\VC\Tools\MSVC\14.27.29110\include\xmemory
;	COMDAT ??$_Construct_in_place@PAU?$_Tree_node@U?$pair@$$CBH_N@std@@PAX@std@@ABQAU12@@std@@YAXAAPAU?$_Tree_node@U?$pair@$$CBH_N@std@@PAX@0@ABQAU10@@Z
_TEXT	SEGMENT
$T1 = -68						; size = 4
__Obj$ = 8						; size = 4
_<_Args_0>$ = 12					; size = 4
??$_Construct_in_place@PAU?$_Tree_node@U?$pair@$$CBH_N@std@@PAX@std@@ABQAU12@@std@@YAXAAPAU?$_Tree_node@U?$pair@$$CBH_N@std@@PAX@0@ABQAU10@@Z PROC ; std::_Construct_in_place<std::_Tree_node<std::pair<int const ,bool>,void *> *,std::_Tree_node<std::pair<int const ,bool>,void *> * const &>, COMDAT

; 228  : void _Construct_in_place(_Ty& _Obj, _Types&&... _Args) noexcept(is_nothrow_constructible_v<_Ty, _Types...>) {

  00000	55		 push	 ebp
  00001	8b ec		 mov	 ebp, esp
  00003	83 ec 44	 sub	 esp, 68			; 00000044H
  00006	53		 push	 ebx
  00007	56		 push	 esi
  00008	57		 push	 edi

; 229  :     ::new (const_cast<void*>(static_cast<const volatile void*>(_STD addressof(_Obj))))

  00009	8b 45 08	 mov	 eax, DWORD PTR __Obj$[ebp]
  0000c	50		 push	 eax
  0000d	e8 00 00 00 00	 call	 ??$addressof@PAU?$_Tree_node@U?$pair@$$CBH_N@std@@PAX@std@@@std@@YAPAPAU?$_Tree_node@U?$pair@$$CBH_N@std@@PAX@0@AAPAU10@@Z ; std::addressof<std::_Tree_node<std::pair<int const ,bool>,void *> *>
  00012	83 c4 04	 add	 esp, 4
  00015	50		 push	 eax
  00016	6a 04		 push	 4
  00018	e8 00 00 00 00	 call	 ??2@YAPAXIPAX@Z		; operator new
  0001d	83 c4 08	 add	 esp, 8
  00020	89 45 bc	 mov	 DWORD PTR $T1[ebp], eax
  00023	8b 4d 0c	 mov	 ecx, DWORD PTR _<_Args_0>$[ebp]
  00026	51		 push	 ecx
  00027	e8 00 00 00 00	 call	 ??$forward@ABQAU?$_Tree_node@U?$pair@$$CBH_N@std@@PAX@std@@@std@@YAABQAU?$_Tree_node@U?$pair@$$CBH_N@std@@PAX@0@ABQAU10@@Z ; std::forward<std::_Tree_node<std::pair<int const ,bool>,void *> * const &>
  0002c	83 c4 04	 add	 esp, 4
  0002f	8b 55 bc	 mov	 edx, DWORD PTR $T1[ebp]
  00032	8b 00		 mov	 eax, DWORD PTR [eax]
  00034	89 02		 mov	 DWORD PTR [edx], eax

; 230  :         _Ty(_STD forward<_Types>(_Args)...);
; 231  : }

  00036	5f		 pop	 edi
  00037	5e		 pop	 esi
  00038	5b		 pop	 ebx
  00039	8b e5		 mov	 esp, ebp
  0003b	5d		 pop	 ebp
  0003c	c3		 ret	 0
??$_Construct_in_place@PAU?$_Tree_node@U?$pair@$$CBH_N@std@@PAX@std@@ABQAU12@@std@@YAXAAPAU?$_Tree_node@U?$pair@$$CBH_N@std@@PAX@0@ABQAU10@@Z ENDP ; std::_Construct_in_place<std::_Tree_node<std::pair<int const ,bool>,void *> *,std::_Tree_node<std::pair<int const ,bool>,void *> * const &>
_TEXT	ENDS
; Function compile flags: /Odtp /ZI
; File C:\Program Files (x86)\Microsoft Visual Studio\2019\Community\VC\Tools\MSVC\14.27.29110\include\type_traits
;	COMDAT ??$forward@U_Zero_then_variadic_args_t@std@@@std@@YA$$QAU_Zero_then_variadic_args_t@0@AAU10@@Z
_TEXT	SEGMENT
__Arg$ = 8						; size = 4
??$forward@U_Zero_then_variadic_args_t@std@@@std@@YA$$QAU_Zero_then_variadic_args_t@0@AAU10@@Z PROC ; std::forward<std::_Zero_then_variadic_args_t>, COMDAT

; 1454 :     remove_reference_t<_Ty>& _Arg) noexcept { // forward an lvalue as either an lvalue or an rvalue

  00000	55		 push	 ebp
  00001	8b ec		 mov	 ebp, esp
  00003	83 ec 40	 sub	 esp, 64			; 00000040H
  00006	53		 push	 ebx
  00007	56		 push	 esi
  00008	57		 push	 edi

; 1455 :     return static_cast<_Ty&&>(_Arg);

  00009	8b 45 08	 mov	 eax, DWORD PTR __Arg$[ebp]

; 1456 : }

  0000c	5f		 pop	 edi
  0000d	5e		 pop	 esi
  0000e	5b		 pop	 ebx
  0000f	8b e5		 mov	 esp, ebp
  00011	5d		 pop	 ebp
  00012	c3		 ret	 0
??$forward@U_Zero_then_variadic_args_t@std@@@std@@YA$$QAU_Zero_then_variadic_args_t@0@AAU10@@Z ENDP ; std::forward<std::_Zero_then_variadic_args_t>
_TEXT	ENDS
; Function compile flags: /Odtp /ZI
; File C:\Program Files (x86)\Microsoft Visual Studio\2019\Community\VC\Tools\MSVC\14.27.29110\include\type_traits
;	COMDAT ??$forward@ABU?$less@H@std@@@std@@YAABU?$less@H@0@ABU10@@Z
_TEXT	SEGMENT
__Arg$ = 8						; size = 4
??$forward@ABU?$less@H@std@@@std@@YAABU?$less@H@0@ABU10@@Z PROC ; std::forward<std::less<int> const &>, COMDAT

; 1454 :     remove_reference_t<_Ty>& _Arg) noexcept { // forward an lvalue as either an lvalue or an rvalue

  00000	55		 push	 ebp
  00001	8b ec		 mov	 ebp, esp
  00003	83 ec 40	 sub	 esp, 64			; 00000040H
  00006	53		 push	 ebx
  00007	56		 push	 esi
  00008	57		 push	 edi

; 1455 :     return static_cast<_Ty&&>(_Arg);

  00009	8b 45 08	 mov	 eax, DWORD PTR __Arg$[ebp]

; 1456 : }

  0000c	5f		 pop	 edi
  0000d	5e		 pop	 esi
  0000e	5b		 pop	 ebx
  0000f	8b e5		 mov	 esp, ebp
  00011	5d		 pop	 ebp
  00012	c3		 ret	 0
??$forward@ABU?$less@H@std@@@std@@YAABU?$less@H@0@ABU10@@Z ENDP ; std::forward<std::less<int> const &>
_TEXT	ENDS
; Function compile flags: /Odtp /ZI
; File C:\Program Files (x86)\Microsoft Visual Studio\2019\Community\VC\Tools\MSVC\14.27.29110\include\xtree
;	COMDAT ??$_Freenode0@V?$allocator@U?$_Tree_node@U?$pair@$$CBH_N@std@@PAX@std@@@std@@@?$_Tree_node@U?$pair@$$CBH_N@std@@PAX@std@@SAXAAV?$allocator@U?$_Tree_node@U?$pair@$$CBH_N@std@@PAX@std@@@1@PAU01@@Z
_TEXT	SEGMENT
__$EHRec$ = -12						; size = 12
__Al$ = 8						; size = 4
__Ptr$ = 12						; size = 4
??$_Freenode0@V?$allocator@U?$_Tree_node@U?$pair@$$CBH_N@std@@PAX@std@@@std@@@?$_Tree_node@U?$pair@$$CBH_N@std@@PAX@std@@SAXAAV?$allocator@U?$_Tree_node@U?$pair@$$CBH_N@std@@PAX@std@@@1@PAU01@@Z PROC ; std::_Tree_node<std::pair<int const ,bool>,void *>::_Freenode0<std::allocator<std::_Tree_node<std::pair<int const ,bool>,void *> > >, COMDAT

; 368  :     static void _Freenode0(_Alloc& _Al, _Nodeptr _Ptr) noexcept {

  00000	55		 push	 ebp
  00001	8b ec		 mov	 ebp, esp
  00003	6a ff		 push	 -1
  00005	68 00 00 00 00	 push	 __ehhandler$??$_Freenode0@V?$allocator@U?$_Tree_node@U?$pair@$$CBH_N@std@@PAX@std@@@std@@@?$_Tree_node@U?$pair@$$CBH_N@std@@PAX@std@@SAXAAV?$allocator@U?$_Tree_node@U?$pair@$$CBH_N@std@@PAX@std@@@1@PAU01@@Z
  0000a	64 a1 00 00 00
	00		 mov	 eax, DWORD PTR fs:0
  00010	50		 push	 eax
  00011	83 ec 40	 sub	 esp, 64			; 00000040H
  00014	53		 push	 ebx
  00015	56		 push	 esi
  00016	57		 push	 edi
  00017	a1 00 00 00 00	 mov	 eax, DWORD PTR ___security_cookie
  0001c	33 c5		 xor	 eax, ebp
  0001e	50		 push	 eax
  0001f	8d 45 f4	 lea	 eax, DWORD PTR __$EHRec$[ebp]
  00022	64 a3 00 00 00
	00		 mov	 DWORD PTR fs:0, eax

; 369  :         static_assert(is_same_v<typename _Alloc::value_type, _Tree_node>, "Bad _Freenode0 call");
; 370  :         _Destroy_in_place(_Ptr->_Left);

  00028	8b 45 0c	 mov	 eax, DWORD PTR __Ptr$[ebp]
  0002b	50		 push	 eax
  0002c	e8 00 00 00 00	 call	 ??$_Destroy_in_place@PAU?$_Tree_node@U?$pair@$$CBH_N@std@@PAX@std@@@std@@YAXAAPAU?$_Tree_node@U?$pair@$$CBH_N@std@@PAX@0@@Z ; std::_Destroy_in_place<std::_Tree_node<std::pair<int const ,bool>,void *> *>
  00031	83 c4 04	 add	 esp, 4

; 371  :         _Destroy_in_place(_Ptr->_Parent);

  00034	8b 45 0c	 mov	 eax, DWORD PTR __Ptr$[ebp]
  00037	83 c0 04	 add	 eax, 4
  0003a	50		 push	 eax
  0003b	e8 00 00 00 00	 call	 ??$_Destroy_in_place@PAU?$_Tree_node@U?$pair@$$CBH_N@std@@PAX@std@@@std@@YAXAAPAU?$_Tree_node@U?$pair@$$CBH_N@std@@PAX@0@@Z ; std::_Destroy_in_place<std::_Tree_node<std::pair<int const ,bool>,void *> *>
  00040	83 c4 04	 add	 esp, 4

; 372  :         _Destroy_in_place(_Ptr->_Right);

  00043	8b 45 0c	 mov	 eax, DWORD PTR __Ptr$[ebp]
  00046	83 c0 08	 add	 eax, 8
  00049	50		 push	 eax
  0004a	e8 00 00 00 00	 call	 ??$_Destroy_in_place@PAU?$_Tree_node@U?$pair@$$CBH_N@std@@PAX@std@@@std@@YAXAAPAU?$_Tree_node@U?$pair@$$CBH_N@std@@PAX@0@@Z ; std::_Destroy_in_place<std::_Tree_node<std::pair<int const ,bool>,void *> *>
  0004f	83 c4 04	 add	 esp, 4

; 373  :         allocator_traits<_Alloc>::deallocate(_Al, _Ptr, 1);

  00052	6a 01		 push	 1
  00054	8b 45 0c	 mov	 eax, DWORD PTR __Ptr$[ebp]
  00057	50		 push	 eax
  00058	8b 4d 08	 mov	 ecx, DWORD PTR __Al$[ebp]
  0005b	51		 push	 ecx
  0005c	e8 00 00 00 00	 call	 ?deallocate@?$_Default_allocator_traits@V?$allocator@U?$_Tree_node@U?$pair@$$CBH_N@std@@PAX@std@@@std@@@std@@SAXAAV?$allocator@U?$_Tree_node@U?$pair@$$CBH_N@std@@PAX@std@@@2@QAU?$_Tree_node@U?$pair@$$CBH_N@std@@PAX@2@I@Z ; std::_Default_allocator_traits<std::allocator<std::_Tree_node<std::pair<int const ,bool>,void *> > >::deallocate
  00061	83 c4 0c	 add	 esp, 12			; 0000000cH

; 374  :     }

  00064	8b 4d f4	 mov	 ecx, DWORD PTR __$EHRec$[ebp]
  00067	64 89 0d 00 00
	00 00		 mov	 DWORD PTR fs:0, ecx
  0006e	59		 pop	 ecx
  0006f	5f		 pop	 edi
  00070	5e		 pop	 esi
  00071	5b		 pop	 ebx
  00072	8b e5		 mov	 esp, ebp
  00074	5d		 pop	 ebp
  00075	c3		 ret	 0
  00076	cc		 int	 3
  00077	cc		 int	 3
  00078	cc		 int	 3
  00079	cc		 int	 3
  0007a	cc		 int	 3
_TEXT	ENDS
;	COMDAT text$x
text$x	SEGMENT
__ehhandler$??$_Freenode0@V?$allocator@U?$_Tree_node@U?$pair@$$CBH_N@std@@PAX@std@@@std@@@?$_Tree_node@U?$pair@$$CBH_N@std@@PAX@std@@SAXAAV?$allocator@U?$_Tree_node@U?$pair@$$CBH_N@std@@PAX@std@@@1@PAU01@@Z:
  00000	90		 npad	 1
  00001	90		 npad	 1
  00002	8b 54 24 08	 mov	 edx, DWORD PTR [esp+8]
  00006	8d 42 0c	 lea	 eax, DWORD PTR [edx+12]
  00009	8b 4a b0	 mov	 ecx, DWORD PTR [edx-80]
  0000c	33 c8		 xor	 ecx, eax
  0000e	e8 00 00 00 00	 call	 @__security_check_cookie@4
  00013	b8 00 00 00 00	 mov	 eax, OFFSET __ehfuncinfo$??$_Freenode0@V?$allocator@U?$_Tree_node@U?$pair@$$CBH_N@std@@PAX@std@@@std@@@?$_Tree_node@U?$pair@$$CBH_N@std@@PAX@std@@SAXAAV?$allocator@U?$_Tree_node@U?$pair@$$CBH_N@std@@PAX@std@@@1@PAU01@@Z
  00018	e9 00 00 00 00	 jmp	 ___CxxFrameHandler3
text$x	ENDS
??$_Freenode0@V?$allocator@U?$_Tree_node@U?$pair@$$CBH_N@std@@PAX@std@@@std@@@?$_Tree_node@U?$pair@$$CBH_N@std@@PAX@std@@SAXAAV?$allocator@U?$_Tree_node@U?$pair@$$CBH_N@std@@PAX@std@@@1@PAU01@@Z ENDP ; std::_Tree_node<std::pair<int const ,bool>,void *>::_Freenode0<std::allocator<std::_Tree_node<std::pair<int const ,bool>,void *> > >
; Function compile flags: /Odtp /ZI
; File C:\Program Files (x86)\Microsoft Visual Studio\2019\Community\VC\Tools\MSVC\14.27.29110\include\xtree
;	COMDAT ??$_Freenode@V?$allocator@U?$_Tree_node@U?$pair@$$CBH_N@std@@PAX@std@@@std@@@?$_Tree_node@U?$pair@$$CBH_N@std@@PAX@std@@SAXAAV?$allocator@U?$_Tree_node@U?$pair@$$CBH_N@std@@PAX@std@@@1@PAU01@@Z
_TEXT	SEGMENT
__$EHRec$ = -12						; size = 12
__Al$ = 8						; size = 4
__Ptr$ = 12						; size = 4
??$_Freenode@V?$allocator@U?$_Tree_node@U?$pair@$$CBH_N@std@@PAX@std@@@std@@@?$_Tree_node@U?$pair@$$CBH_N@std@@PAX@std@@SAXAAV?$allocator@U?$_Tree_node@U?$pair@$$CBH_N@std@@PAX@std@@@1@PAU01@@Z PROC ; std::_Tree_node<std::pair<int const ,bool>,void *>::_Freenode<std::allocator<std::_Tree_node<std::pair<int const ,bool>,void *> > >, COMDAT

; 377  :     static void _Freenode(_Alloc& _Al, _Nodeptr _Ptr) noexcept {

  00000	55		 push	 ebp
  00001	8b ec		 mov	 ebp, esp
  00003	6a ff		 push	 -1
  00005	68 00 00 00 00	 push	 __ehhandler$??$_Freenode@V?$allocator@U?$_Tree_node@U?$pair@$$CBH_N@std@@PAX@std@@@std@@@?$_Tree_node@U?$pair@$$CBH_N@std@@PAX@std@@SAXAAV?$allocator@U?$_Tree_node@U?$pair@$$CBH_N@std@@PAX@std@@@1@PAU01@@Z
  0000a	64 a1 00 00 00
	00		 mov	 eax, DWORD PTR fs:0
  00010	50		 push	 eax
  00011	83 ec 40	 sub	 esp, 64			; 00000040H
  00014	53		 push	 ebx
  00015	56		 push	 esi
  00016	57		 push	 edi
  00017	a1 00 00 00 00	 mov	 eax, DWORD PTR ___security_cookie
  0001c	33 c5		 xor	 eax, ebp
  0001e	50		 push	 eax
  0001f	8d 45 f4	 lea	 eax, DWORD PTR __$EHRec$[ebp]
  00022	64 a3 00 00 00
	00		 mov	 DWORD PTR fs:0, eax

; 378  :         static_assert(is_same_v<typename _Alloc::value_type, _Tree_node>, "Bad _Freenode call");
; 379  :         allocator_traits<_Alloc>::destroy(_Al, _STD addressof(_Ptr->_Myval));

  00028	8b 45 0c	 mov	 eax, DWORD PTR __Ptr$[ebp]
  0002b	83 c0 10	 add	 eax, 16			; 00000010H
  0002e	50		 push	 eax
  0002f	e8 00 00 00 00	 call	 ??$addressof@U?$pair@$$CBH_N@std@@@std@@YAPAU?$pair@$$CBH_N@0@AAU10@@Z ; std::addressof<std::pair<int const ,bool> >
  00034	83 c4 04	 add	 esp, 4
  00037	50		 push	 eax
  00038	8b 4d 08	 mov	 ecx, DWORD PTR __Al$[ebp]
  0003b	51		 push	 ecx
  0003c	e8 00 00 00 00	 call	 ??$destroy@U?$pair@$$CBH_N@std@@@?$_Default_allocator_traits@V?$allocator@U?$_Tree_node@U?$pair@$$CBH_N@std@@PAX@std@@@std@@@std@@SAXAAV?$allocator@U?$_Tree_node@U?$pair@$$CBH_N@std@@PAX@std@@@1@QAU?$pair@$$CBH_N@1@@Z ; std::_Default_allocator_traits<std::allocator<std::_Tree_node<std::pair<int const ,bool>,void *> > >::destroy<std::pair<int const ,bool> >
  00041	83 c4 08	 add	 esp, 8

; 380  :         _Freenode0(_Al, _Ptr);

  00044	8b 45 0c	 mov	 eax, DWORD PTR __Ptr$[ebp]
  00047	50		 push	 eax
  00048	8b 4d 08	 mov	 ecx, DWORD PTR __Al$[ebp]
  0004b	51		 push	 ecx
  0004c	e8 00 00 00 00	 call	 ??$_Freenode0@V?$allocator@U?$_Tree_node@U?$pair@$$CBH_N@std@@PAX@std@@@std@@@?$_Tree_node@U?$pair@$$CBH_N@std@@PAX@std@@SAXAAV?$allocator@U?$_Tree_node@U?$pair@$$CBH_N@std@@PAX@std@@@1@PAU01@@Z ; std::_Tree_node<std::pair<int const ,bool>,void *>::_Freenode0<std::allocator<std::_Tree_node<std::pair<int const ,bool>,void *> > >
  00051	83 c4 08	 add	 esp, 8

; 381  :     }

  00054	8b 4d f4	 mov	 ecx, DWORD PTR __$EHRec$[ebp]
  00057	64 89 0d 00 00
	00 00		 mov	 DWORD PTR fs:0, ecx
  0005e	59		 pop	 ecx
  0005f	5f		 pop	 edi
  00060	5e		 pop	 esi
  00061	5b		 pop	 ebx
  00062	8b e5		 mov	 esp, ebp
  00064	5d		 pop	 ebp
  00065	c3		 ret	 0
  00066	cc		 int	 3
  00067	cc		 int	 3
  00068	cc		 int	 3
  00069	cc		 int	 3
  0006a	cc		 int	 3
_TEXT	ENDS
;	COMDAT text$x
text$x	SEGMENT
__ehhandler$??$_Freenode@V?$allocator@U?$_Tree_node@U?$pair@$$CBH_N@std@@PAX@std@@@std@@@?$_Tree_node@U?$pair@$$CBH_N@std@@PAX@std@@SAXAAV?$allocator@U?$_Tree_node@U?$pair@$$CBH_N@std@@PAX@std@@@1@PAU01@@Z:
  00000	90		 npad	 1
  00001	90		 npad	 1
  00002	8b 54 24 08	 mov	 edx, DWORD PTR [esp+8]
  00006	8d 42 0c	 lea	 eax, DWORD PTR [edx+12]
  00009	8b 4a b0	 mov	 ecx, DWORD PTR [edx-80]
  0000c	33 c8		 xor	 ecx, eax
  0000e	e8 00 00 00 00	 call	 @__security_check_cookie@4
  00013	b8 00 00 00 00	 mov	 eax, OFFSET __ehfuncinfo$??$_Freenode@V?$allocator@U?$_Tree_node@U?$pair@$$CBH_N@std@@PAX@std@@@std@@@?$_Tree_node@U?$pair@$$CBH_N@std@@PAX@std@@SAXAAV?$allocator@U?$_Tree_node@U?$pair@$$CBH_N@std@@PAX@std@@@1@PAU01@@Z
  00018	e9 00 00 00 00	 jmp	 ___CxxFrameHandler3
text$x	ENDS
??$_Freenode@V?$allocator@U?$_Tree_node@U?$pair@$$CBH_N@std@@PAX@std@@@std@@@?$_Tree_node@U?$pair@$$CBH_N@std@@PAX@std@@SAXAAV?$allocator@U?$_Tree_node@U?$pair@$$CBH_N@std@@PAX@std@@@1@PAU01@@Z ENDP ; std::_Tree_node<std::pair<int const ,bool>,void *>::_Freenode<std::allocator<std::_Tree_node<std::pair<int const ,bool>,void *> > >
; Function compile flags: /Odtp /ZI
; File C:\Program Files (x86)\Microsoft Visual Studio\2019\Community\VC\Tools\MSVC\14.27.29110\include\utility
;	COMDAT ??$exchange@PAU?$_Tree_node@U?$pair@$$CBH_N@std@@PAX@std@@AAPAU12@@std@@YAPAU?$_Tree_node@U?$pair@$$CBH_N@std@@PAX@0@AAPAU10@0@Z
_TEXT	SEGMENT
__Old_val$ = -4						; size = 4
__Val$ = 8						; size = 4
__New_val$ = 12						; size = 4
??$exchange@PAU?$_Tree_node@U?$pair@$$CBH_N@std@@PAX@std@@AAPAU12@@std@@YAPAU?$_Tree_node@U?$pair@$$CBH_N@std@@PAX@0@AAPAU10@0@Z PROC ; std::exchange<std::_Tree_node<std::pair<int const ,bool>,void *> *,std::_Tree_node<std::pair<int const ,bool>,void *> * &>, COMDAT

; 597  :     conjunction_v<is_nothrow_move_constructible<_Ty>, is_nothrow_assignable<_Ty&, _Other>>) /* strengthened */ {

  00000	55		 push	 ebp
  00001	8b ec		 mov	 ebp, esp
  00003	83 ec 44	 sub	 esp, 68			; 00000044H
  00006	53		 push	 ebx
  00007	56		 push	 esi
  00008	57		 push	 edi

; 598  :     // assign _New_val to _Val, return previous _Val
; 599  :     _Ty _Old_val = static_cast<_Ty&&>(_Val);

  00009	8b 45 08	 mov	 eax, DWORD PTR __Val$[ebp]
  0000c	8b 08		 mov	 ecx, DWORD PTR [eax]
  0000e	89 4d fc	 mov	 DWORD PTR __Old_val$[ebp], ecx

; 600  :     _Val         = static_cast<_Other&&>(_New_val);

  00011	8b 45 08	 mov	 eax, DWORD PTR __Val$[ebp]
  00014	8b 4d 0c	 mov	 ecx, DWORD PTR __New_val$[ebp]
  00017	8b 11		 mov	 edx, DWORD PTR [ecx]
  00019	89 10		 mov	 DWORD PTR [eax], edx

; 601  :     return _Old_val;

  0001b	8b 45 fc	 mov	 eax, DWORD PTR __Old_val$[ebp]

; 602  : }

  0001e	5f		 pop	 edi
  0001f	5e		 pop	 esi
  00020	5b		 pop	 ebx
  00021	8b e5		 mov	 esp, ebp
  00023	5d		 pop	 ebp
  00024	c3		 ret	 0
??$exchange@PAU?$_Tree_node@U?$pair@$$CBH_N@std@@PAX@std@@AAPAU12@@std@@YAPAU?$_Tree_node@U?$pair@$$CBH_N@std@@PAX@0@AAPAU10@0@Z ENDP ; std::exchange<std::_Tree_node<std::pair<int const ,bool>,void *> *,std::_Tree_node<std::pair<int const ,bool>,void *> * &>
_TEXT	ENDS
; Function compile flags: /Odtp /ZI
; File C:\Program Files (x86)\Microsoft Visual Studio\2019\Community\VC\Tools\MSVC\14.27.29110\include\xtree
;	COMDAT ??$_Lower_bound_duplicate@H@?$_Tree@V?$_Tmap_traits@H_NU?$less@H@std@@V?$allocator@U?$pair@$$CBH_N@std@@@2@$0A@@std@@@std@@IBE_NQAU?$_Tree_node@U?$pair@$$CBH_N@std@@PAX@1@ABH@Z
_TEXT	SEGMENT
tv78 = -72						; size = 4
_this$ = -4						; size = 4
__Bound$ = 8						; size = 4
__Keyval$ = 12						; size = 4
??$_Lower_bound_duplicate@H@?$_Tree@V?$_Tmap_traits@H_NU?$less@H@std@@V?$allocator@U?$pair@$$CBH_N@std@@@2@$0A@@std@@@std@@IBE_NQAU?$_Tree_node@U?$pair@$$CBH_N@std@@PAX@1@ABH@Z PROC ; std::_Tree<std::_Tmap_traits<int,bool,std::less<int>,std::allocator<std::pair<int const ,bool> >,0> >::_Lower_bound_duplicate<int>, COMDAT
; _this$ = ecx

; 1694 :     bool _Lower_bound_duplicate(const _Nodeptr _Bound, const _Keyty& _Keyval) const {

  00000	55		 push	 ebp
  00001	8b ec		 mov	 ebp, esp
  00003	83 ec 48	 sub	 esp, 72			; 00000048H
  00006	53		 push	 ebx
  00007	56		 push	 esi
  00008	57		 push	 edi
  00009	89 4d fc	 mov	 DWORD PTR _this$[ebp], ecx

; 1695 :         return !_Bound->_Isnil && !_DEBUG_LT_PRED(_Getcomp(), _Keyval, _Traits::_Kfn(_Bound->_Myval));

  0000c	8b 45 08	 mov	 eax, DWORD PTR __Bound$[ebp]
  0000f	0f be 48 0d	 movsx	 ecx, BYTE PTR [eax+13]
  00013	85 c9		 test	 ecx, ecx
  00015	75 33		 jne	 SHORT $LN3@Lower_boun
  00017	8b 55 08	 mov	 edx, DWORD PTR __Bound$[ebp]
  0001a	83 c2 10	 add	 edx, 16			; 00000010H
  0001d	52		 push	 edx
  0001e	e8 00 00 00 00	 call	 ??$_Kfn@$$CBH_N@?$_Tmap_traits@H_NU?$less@H@std@@V?$allocator@U?$pair@$$CBH_N@std@@@2@$0A@@std@@SAABHABU?$pair@$$CBH_N@1@@Z ; std::_Tmap_traits<int,bool,std::less<int>,std::allocator<std::pair<int const ,bool> >,0>::_Kfn<int const ,bool>
  00023	83 c4 04	 add	 esp, 4
  00026	50		 push	 eax
  00027	8b 45 0c	 mov	 eax, DWORD PTR __Keyval$[ebp]
  0002a	50		 push	 eax
  0002b	8b 4d fc	 mov	 ecx, DWORD PTR _this$[ebp]
  0002e	e8 00 00 00 00	 call	 ?_Getcomp@?$_Tree@V?$_Tmap_traits@H_NU?$less@H@std@@V?$allocator@U?$pair@$$CBH_N@std@@@2@$0A@@std@@@std@@IBEABU?$less@H@2@XZ ; std::_Tree<std::_Tmap_traits<int,bool,std::less<int>,std::allocator<std::pair<int const ,bool> >,0> >::_Getcomp
  00033	8b c8		 mov	 ecx, eax
  00035	e8 00 00 00 00	 call	 ??R?$less@H@std@@QBE_NABH0@Z ; std::less<int>::operator()
  0003a	0f b6 c8	 movzx	 ecx, al
  0003d	85 c9		 test	 ecx, ecx
  0003f	75 09		 jne	 SHORT $LN3@Lower_boun
  00041	c7 45 b8 01 00
	00 00		 mov	 DWORD PTR tv78[ebp], 1
  00048	eb 07		 jmp	 SHORT $LN4@Lower_boun
$LN3@Lower_boun:
  0004a	c7 45 b8 00 00
	00 00		 mov	 DWORD PTR tv78[ebp], 0
$LN4@Lower_boun:
  00051	8a 45 b8	 mov	 al, BYTE PTR tv78[ebp]

; 1696 :     }

  00054	5f		 pop	 edi
  00055	5e		 pop	 esi
  00056	5b		 pop	 ebx
  00057	8b e5		 mov	 esp, ebp
  00059	5d		 pop	 ebp
  0005a	c2 08 00	 ret	 8
??$_Lower_bound_duplicate@H@?$_Tree@V?$_Tmap_traits@H_NU?$less@H@std@@V?$allocator@U?$pair@$$CBH_N@std@@@2@$0A@@std@@@std@@IBE_NQAU?$_Tree_node@U?$pair@$$CBH_N@std@@PAX@1@ABH@Z ENDP ; std::_Tree<std::_Tmap_traits<int,bool,std::less<int>,std::allocator<std::pair<int const ,bool> >,0> >::_Lower_bound_duplicate<int>
_TEXT	ENDS
; Function compile flags: /Odtp /ZI
; File C:\Program Files (x86)\Microsoft Visual Studio\2019\Community\VC\Tools\MSVC\14.27.29110\include\xtree
;	COMDAT ??$_Find_lower_bound@H@?$_Tree@V?$_Tmap_traits@H_NU?$less@H@std@@V?$allocator@U?$pair@$$CBH_N@std@@@2@$0A@@std@@@std@@IBE?AU?$_Tree_find_result@PAU?$_Tree_node@U?$pair@$$CBH_N@std@@PAX@std@@@1@ABH@Z
_TEXT	SEGMENT
__Trynode$ = -24					; size = 4
__Result$ = -20						; size = 12
__Scary$ = -8						; size = 4
_this$ = -4						; size = 4
___$ReturnUdt$ = 8					; size = 4
__Keyval$ = 12						; size = 4
??$_Find_lower_bound@H@?$_Tree@V?$_Tmap_traits@H_NU?$less@H@std@@V?$allocator@U?$pair@$$CBH_N@std@@@2@$0A@@std@@@std@@IBE?AU?$_Tree_find_result@PAU?$_Tree_node@U?$pair@$$CBH_N@std@@PAX@std@@@1@ABH@Z PROC ; std::_Tree<std::_Tmap_traits<int,bool,std::less<int>,std::allocator<std::pair<int const ,bool> >,0> >::_Find_lower_bound<int>, COMDAT
; _this$ = ecx

; 1699 :     _Tree_find_result<_Nodeptr> _Find_lower_bound(const _Keyty& _Keyval) const {

  00000	55		 push	 ebp
  00001	8b ec		 mov	 ebp, esp
  00003	83 ec 58	 sub	 esp, 88			; 00000058H
  00006	53		 push	 ebx
  00007	56		 push	 esi
  00008	57		 push	 edi
  00009	89 4d fc	 mov	 DWORD PTR _this$[ebp], ecx

; 1700 :         const auto _Scary = _Get_scary();

  0000c	8b 4d fc	 mov	 ecx, DWORD PTR _this$[ebp]
  0000f	e8 00 00 00 00	 call	 ?_Get_scary@?$_Tree@V?$_Tmap_traits@H_NU?$less@H@std@@V?$allocator@U?$pair@$$CBH_N@std@@@2@$0A@@std@@@std@@IBEPBV?$_Tree_val@U?$_Tree_simple_types@U?$pair@$$CBH_N@std@@@std@@@2@XZ ; std::_Tree<std::_Tmap_traits<int,bool,std::less<int>,std::allocator<std::pair<int const ,bool> >,0> >::_Get_scary
  00014	89 45 f8	 mov	 DWORD PTR __Scary$[ebp], eax

; 1701 :         _Tree_find_result<_Nodeptr> _Result{{_Scary->_Myhead->_Parent, _Tree_child::_Right}, _Scary->_Myhead};

  00017	8b 45 f8	 mov	 eax, DWORD PTR __Scary$[ebp]
  0001a	8b 08		 mov	 ecx, DWORD PTR [eax]
  0001c	8b 51 04	 mov	 edx, DWORD PTR [ecx+4]
  0001f	89 55 ec	 mov	 DWORD PTR __Result$[ebp], edx
  00022	c7 45 f0 00 00
	00 00		 mov	 DWORD PTR __Result$[ebp+4], 0
  00029	8b 45 f8	 mov	 eax, DWORD PTR __Scary$[ebp]
  0002c	8b 08		 mov	 ecx, DWORD PTR [eax]
  0002e	89 4d f4	 mov	 DWORD PTR __Result$[ebp+8], ecx

; 1702 :         _Nodeptr _Trynode = _Result._Location._Parent;

  00031	8b 45 ec	 mov	 eax, DWORD PTR __Result$[ebp]
  00034	89 45 e8	 mov	 DWORD PTR __Trynode$[ebp], eax
$LN2@Find_lower:

; 1703 :         while (!_Trynode->_Isnil) {

  00037	8b 45 e8	 mov	 eax, DWORD PTR __Trynode$[ebp]
  0003a	0f be 48 0d	 movsx	 ecx, BYTE PTR [eax+13]
  0003e	85 c9		 test	 ecx, ecx
  00040	75 59		 jne	 SHORT $LN3@Find_lower

; 1704 :             _Result._Location._Parent = _Trynode;

  00042	8b 45 e8	 mov	 eax, DWORD PTR __Trynode$[ebp]
  00045	89 45 ec	 mov	 DWORD PTR __Result$[ebp], eax

; 1705 :             if (_DEBUG_LT_PRED(_Getcomp(), _Traits::_Kfn(_Trynode->_Myval), _Keyval)) {

  00048	8b 45 0c	 mov	 eax, DWORD PTR __Keyval$[ebp]
  0004b	50		 push	 eax
  0004c	8b 4d e8	 mov	 ecx, DWORD PTR __Trynode$[ebp]
  0004f	83 c1 10	 add	 ecx, 16			; 00000010H
  00052	51		 push	 ecx
  00053	e8 00 00 00 00	 call	 ??$_Kfn@$$CBH_N@?$_Tmap_traits@H_NU?$less@H@std@@V?$allocator@U?$pair@$$CBH_N@std@@@2@$0A@@std@@SAABHABU?$pair@$$CBH_N@1@@Z ; std::_Tmap_traits<int,bool,std::less<int>,std::allocator<std::pair<int const ,bool> >,0>::_Kfn<int const ,bool>
  00058	83 c4 04	 add	 esp, 4
  0005b	50		 push	 eax
  0005c	8b 4d fc	 mov	 ecx, DWORD PTR _this$[ebp]
  0005f	e8 00 00 00 00	 call	 ?_Getcomp@?$_Tree@V?$_Tmap_traits@H_NU?$less@H@std@@V?$allocator@U?$pair@$$CBH_N@std@@@2@$0A@@std@@@std@@IBEABU?$less@H@2@XZ ; std::_Tree<std::_Tmap_traits<int,bool,std::less<int>,std::allocator<std::pair<int const ,bool> >,0> >::_Getcomp
  00064	8b c8		 mov	 ecx, eax
  00066	e8 00 00 00 00	 call	 ??R?$less@H@std@@QBE_NABH0@Z ; std::less<int>::operator()
  0006b	0f b6 d0	 movzx	 edx, al
  0006e	85 d2		 test	 edx, edx
  00070	74 12		 je	 SHORT $LN4@Find_lower

; 1706 :                 _Result._Location._Child = _Tree_child::_Right;

  00072	c7 45 f0 00 00
	00 00		 mov	 DWORD PTR __Result$[ebp+4], 0

; 1707 :                 _Trynode                 = _Trynode->_Right;

  00079	8b 45 e8	 mov	 eax, DWORD PTR __Trynode$[ebp]
  0007c	8b 48 08	 mov	 ecx, DWORD PTR [eax+8]
  0007f	89 4d e8	 mov	 DWORD PTR __Trynode$[ebp], ecx

; 1708 :             } else {

  00082	eb 15		 jmp	 SHORT $LN5@Find_lower
$LN4@Find_lower:

; 1709 :                 _Result._Location._Child = _Tree_child::_Left;

  00084	c7 45 f0 01 00
	00 00		 mov	 DWORD PTR __Result$[ebp+4], 1

; 1710 :                 _Result._Bound           = _Trynode;

  0008b	8b 45 e8	 mov	 eax, DWORD PTR __Trynode$[ebp]
  0008e	89 45 f4	 mov	 DWORD PTR __Result$[ebp+8], eax

; 1711 :                 _Trynode                 = _Trynode->_Left;

  00091	8b 45 e8	 mov	 eax, DWORD PTR __Trynode$[ebp]
  00094	8b 08		 mov	 ecx, DWORD PTR [eax]
  00096	89 4d e8	 mov	 DWORD PTR __Trynode$[ebp], ecx
$LN5@Find_lower:

; 1712 :             }
; 1713 :         }

  00099	eb 9c		 jmp	 SHORT $LN2@Find_lower
$LN3@Find_lower:

; 1714 : 
; 1715 :         return _Result;

  0009b	8b 45 08	 mov	 eax, DWORD PTR ___$ReturnUdt$[ebp]
  0009e	8b 4d ec	 mov	 ecx, DWORD PTR __Result$[ebp]
  000a1	89 08		 mov	 DWORD PTR [eax], ecx
  000a3	8b 55 f0	 mov	 edx, DWORD PTR __Result$[ebp+4]
  000a6	89 50 04	 mov	 DWORD PTR [eax+4], edx
  000a9	8b 4d f4	 mov	 ecx, DWORD PTR __Result$[ebp+8]
  000ac	89 48 08	 mov	 DWORD PTR [eax+8], ecx
  000af	8b 45 08	 mov	 eax, DWORD PTR ___$ReturnUdt$[ebp]

; 1716 :     }

  000b2	5f		 pop	 edi
  000b3	5e		 pop	 esi
  000b4	5b		 pop	 ebx
  000b5	8b e5		 mov	 esp, ebp
  000b7	5d		 pop	 ebp
  000b8	c2 08 00	 ret	 8
??$_Find_lower_bound@H@?$_Tree@V?$_Tmap_traits@H_NU?$less@H@std@@V?$allocator@U?$pair@$$CBH_N@std@@@2@$0A@@std@@@std@@IBE?AU?$_Tree_find_result@PAU?$_Tree_node@U?$pair@$$CBH_N@std@@PAX@std@@@1@ABH@Z ENDP ; std::_Tree<std::_Tmap_traits<int,bool,std::less<int>,std::allocator<std::pair<int const ,bool> >,0> >::_Find_lower_bound<int>
_TEXT	ENDS
; Function compile flags: /Odtp /ZI
; File C:\Program Files (x86)\Microsoft Visual Studio\2019\Community\VC\Tools\MSVC\14.27.29110\include\xtree
;	COMDAT ??$emplace@U?$pair@H_N@std@@@?$_Tree@V?$_Tmap_traits@H_NU?$less@H@std@@V?$allocator@U?$pair@$$CBH_N@std@@@2@$0A@@std@@@std@@QAE?AU?$pair@V?$_Tree_iterator@V?$_Tree_val@U?$_Tree_simple_types@U?$pair@$$CBH_N@std@@@std@@@std@@@std@@_N@1@$$QAU?$pair@H_N@1@@Z
_TEXT	SEGMENT
$T1 = -80						; size = 4
__Result$ = -12						; size = 8
_this$ = -4						; size = 4
___$ReturnUdt$ = 8					; size = 4
_<_Vals_0>$ = 12					; size = 4
??$emplace@U?$pair@H_N@std@@@?$_Tree@V?$_Tmap_traits@H_NU?$less@H@std@@V?$allocator@U?$pair@$$CBH_N@std@@@2@$0A@@std@@@std@@QAE?AU?$pair@V?$_Tree_iterator@V?$_Tree_val@U?$_Tree_simple_types@U?$pair@$$CBH_N@std@@@std@@@std@@@std@@_N@1@$$QAU?$pair@H_N@1@@Z PROC ; std::_Tree<std::_Tmap_traits<int,bool,std::less<int>,std::allocator<std::pair<int const ,bool> >,0> >::emplace<std::pair<int,bool> >, COMDAT
; _this$ = ecx

; 1094 :     pair<iterator, bool> emplace(_Valtys&&... _Vals) {

  00000	55		 push	 ebp
  00001	8b ec		 mov	 ebp, esp
  00003	83 ec 50	 sub	 esp, 80			; 00000050H
  00006	53		 push	 ebx
  00007	56		 push	 esi
  00008	57		 push	 edi
  00009	89 4d fc	 mov	 DWORD PTR _this$[ebp], ecx

; 1095 :         const auto _Result = _Emplace(_STD forward<_Valtys>(_Vals)...);

  0000c	8b 45 0c	 mov	 eax, DWORD PTR _<_Vals_0>$[ebp]
  0000f	50		 push	 eax
  00010	e8 00 00 00 00	 call	 ??$forward@U?$pair@H_N@std@@@std@@YA$$QAU?$pair@H_N@0@AAU10@@Z ; std::forward<std::pair<int,bool> >
  00015	83 c4 04	 add	 esp, 4
  00018	50		 push	 eax
  00019	8d 4d f4	 lea	 ecx, DWORD PTR __Result$[ebp]
  0001c	51		 push	 ecx
  0001d	8b 4d fc	 mov	 ecx, DWORD PTR _this$[ebp]
  00020	e8 00 00 00 00	 call	 ??$_Emplace@U?$pair@H_N@std@@@?$_Tree@V?$_Tmap_traits@H_NU?$less@H@std@@V?$allocator@U?$pair@$$CBH_N@std@@@2@$0A@@std@@@std@@IAE?AU?$pair@PAU?$_Tree_node@U?$pair@$$CBH_N@std@@PAX@std@@_N@1@$$QAU?$pair@H_N@1@@Z ; std::_Tree<std::_Tmap_traits<int,bool,std::less<int>,std::allocator<std::pair<int const ,bool> >,0> >::_Emplace<std::pair<int,bool> >

; 1096 :         return {iterator(_Result.first, _Get_scary()), _Result.second};

  00025	8b 4d fc	 mov	 ecx, DWORD PTR _this$[ebp]
  00028	e8 00 00 00 00	 call	 ?_Get_scary@?$_Tree@V?$_Tmap_traits@H_NU?$less@H@std@@V?$allocator@U?$pair@$$CBH_N@std@@@2@$0A@@std@@@std@@IAEPAV?$_Tree_val@U?$_Tree_simple_types@U?$pair@$$CBH_N@std@@@std@@@2@XZ ; std::_Tree<std::_Tmap_traits<int,bool,std::less<int>,std::allocator<std::pair<int const ,bool> >,0> >::_Get_scary
  0002d	50		 push	 eax
  0002e	8b 45 f4	 mov	 eax, DWORD PTR __Result$[ebp]
  00031	50		 push	 eax
  00032	8d 4d b0	 lea	 ecx, DWORD PTR $T1[ebp]
  00035	e8 00 00 00 00	 call	 ??0?$_Tree_iterator@V?$_Tree_val@U?$_Tree_simple_types@U?$pair@$$CBH_N@std@@@std@@@std@@@std@@QAE@PAU?$_Tree_node@U?$pair@$$CBH_N@std@@PAX@1@PBV?$_Tree_val@U?$_Tree_simple_types@U?$pair@$$CBH_N@std@@@std@@@1@@Z
  0003a	8d 4d f8	 lea	 ecx, DWORD PTR __Result$[ebp+4]
  0003d	51		 push	 ecx
  0003e	50		 push	 eax
  0003f	8b 4d 08	 mov	 ecx, DWORD PTR ___$ReturnUdt$[ebp]
  00042	e8 00 00 00 00	 call	 ??$?0V?$_Tree_iterator@V?$_Tree_val@U?$_Tree_simple_types@U?$pair@$$CBH_N@std@@@std@@@std@@@std@@AB_N$0A@@?$pair@V?$_Tree_iterator@V?$_Tree_val@U?$_Tree_simple_types@U?$pair@$$CBH_N@std@@@std@@@std@@@std@@_N@std@@QAE@$$QAV?$_Tree_iterator@V?$_Tree_val@U?$_Tree_simple_types@U?$pair@$$CBH_N@std@@@std@@@std@@@1@AB_N@Z ; std::pair<std::_Tree_iterator<std::_Tree_val<std::_Tree_simple_types<std::pair<int const ,bool> > > >,bool>::pair<std::_Tree_iterator<std::_Tree_val<std::_Tree_simple_types<std::pair<int const ,bool> > > >,bool><std::_Tree_iterator<std::_Tree_val<std::_Tree_simple_types<std::pair<int const ,bool> > > >,bool const &,0>
  00047	8b 45 08	 mov	 eax, DWORD PTR ___$ReturnUdt$[ebp]

; 1097 :     }

  0004a	5f		 pop	 edi
  0004b	5e		 pop	 esi
  0004c	5b		 pop	 ebx
  0004d	8b e5		 mov	 esp, ebp
  0004f	5d		 pop	 ebp
  00050	c2 08 00	 ret	 8
??$emplace@U?$pair@H_N@std@@@?$_Tree@V?$_Tmap_traits@H_NU?$less@H@std@@V?$allocator@U?$pair@$$CBH_N@std@@@2@$0A@@std@@@std@@QAE?AU?$pair@V?$_Tree_iterator@V?$_Tree_val@U?$_Tree_simple_types@U?$pair@$$CBH_N@std@@@std@@@std@@@std@@_N@1@$$QAU?$pair@H_N@1@@Z ENDP ; std::_Tree<std::_Tmap_traits<int,bool,std::less<int>,std::allocator<std::pair<int const ,bool> >,0> >::emplace<std::pair<int,bool> >
_TEXT	ENDS
; Function compile flags: /Odtp /ZI
; File C:\Program Files (x86)\Microsoft Visual Studio\2019\Community\VC\Tools\MSVC\14.27.29110\include\type_traits
;	COMDAT ??$forward@U?$pair@H_N@std@@@std@@YA$$QAU?$pair@H_N@0@AAU10@@Z
_TEXT	SEGMENT
__Arg$ = 8						; size = 4
??$forward@U?$pair@H_N@std@@@std@@YA$$QAU?$pair@H_N@0@AAU10@@Z PROC ; std::forward<std::pair<int,bool> >, COMDAT

; 1454 :     remove_reference_t<_Ty>& _Arg) noexcept { // forward an lvalue as either an lvalue or an rvalue

  00000	55		 push	 ebp
  00001	8b ec		 mov	 ebp, esp
  00003	83 ec 40	 sub	 esp, 64			; 00000040H
  00006	53		 push	 ebx
  00007	56		 push	 esi
  00008	57		 push	 edi

; 1455 :     return static_cast<_Ty&&>(_Arg);

  00009	8b 45 08	 mov	 eax, DWORD PTR __Arg$[ebp]

; 1456 : }

  0000c	5f		 pop	 edi
  0000d	5e		 pop	 esi
  0000e	5b		 pop	 ebx
  0000f	8b e5		 mov	 esp, ebp
  00011	5d		 pop	 ebp
  00012	c3		 ret	 0
??$forward@U?$pair@H_N@std@@@std@@YA$$QAU?$pair@H_N@0@AAU10@@Z ENDP ; std::forward<std::pair<int,bool> >
_TEXT	ENDS
; Function compile flags: /Odtp /ZI
; File C:\Program Files (x86)\Microsoft Visual Studio\2019\Community\VC\Tools\MSVC\14.27.29110\include\utility
;	COMDAT ??$?0AAH_N$0A@@?$pair@H_N@std@@QAE@AAH$$QA_N@Z
_TEXT	SEGMENT
_this$ = -4						; size = 4
__Val1$ = 8						; size = 4
__Val2$ = 12						; size = 4
??$?0AAH_N$0A@@?$pair@H_N@std@@QAE@AAH$$QA_N@Z PROC	; std::pair<int,bool>::pair<int,bool><int &,bool,0>, COMDAT
; _this$ = ecx

; 192  :         : first(_STD forward<_Other1>(_Val1)), second(_STD forward<_Other2>(_Val2)) {}

  00000	55		 push	 ebp
  00001	8b ec		 mov	 ebp, esp
  00003	83 ec 44	 sub	 esp, 68			; 00000044H
  00006	53		 push	 ebx
  00007	56		 push	 esi
  00008	57		 push	 edi
  00009	89 4d fc	 mov	 DWORD PTR _this$[ebp], ecx
  0000c	8b 45 08	 mov	 eax, DWORD PTR __Val1$[ebp]
  0000f	50		 push	 eax
  00010	e8 00 00 00 00	 call	 ??$forward@AAH@std@@YAAAHAAH@Z ; std::forward<int &>
  00015	83 c4 04	 add	 esp, 4
  00018	8b 4d fc	 mov	 ecx, DWORD PTR _this$[ebp]
  0001b	8b 10		 mov	 edx, DWORD PTR [eax]
  0001d	89 11		 mov	 DWORD PTR [ecx], edx
  0001f	8b 45 0c	 mov	 eax, DWORD PTR __Val2$[ebp]
  00022	50		 push	 eax
  00023	e8 00 00 00 00	 call	 ??$forward@_N@std@@YA$$QA_NAA_N@Z ; std::forward<bool>
  00028	83 c4 04	 add	 esp, 4
  0002b	8b 4d fc	 mov	 ecx, DWORD PTR _this$[ebp]
  0002e	8a 10		 mov	 dl, BYTE PTR [eax]
  00030	88 51 04	 mov	 BYTE PTR [ecx+4], dl
  00033	8b 45 fc	 mov	 eax, DWORD PTR _this$[ebp]
  00036	5f		 pop	 edi
  00037	5e		 pop	 esi
  00038	5b		 pop	 ebx
  00039	8b e5		 mov	 esp, ebp
  0003b	5d		 pop	 ebp
  0003c	c2 08 00	 ret	 8
??$?0AAH_N$0A@@?$pair@H_N@std@@QAE@AAH$$QA_N@Z ENDP	; std::pair<int,bool>::pair<int,bool><int &,bool,0>
_TEXT	ENDS
; Function compile flags: /Odtp /ZI
; File C:\Program Files (x86)\Microsoft Visual Studio\2019\Community\VC\Tools\MSVC\14.27.29110\include\type_traits
;	COMDAT ??$forward@_N@std@@YA$$QA_NAA_N@Z
_TEXT	SEGMENT
__Arg$ = 8						; size = 4
??$forward@_N@std@@YA$$QA_NAA_N@Z PROC			; std::forward<bool>, COMDAT

; 1454 :     remove_reference_t<_Ty>& _Arg) noexcept { // forward an lvalue as either an lvalue or an rvalue

  00000	55		 push	 ebp
  00001	8b ec		 mov	 ebp, esp
  00003	83 ec 40	 sub	 esp, 64			; 00000040H
  00006	53		 push	 ebx
  00007	56		 push	 esi
  00008	57		 push	 edi

; 1455 :     return static_cast<_Ty&&>(_Arg);

  00009	8b 45 08	 mov	 eax, DWORD PTR __Arg$[ebp]

; 1456 : }

  0000c	5f		 pop	 edi
  0000d	5e		 pop	 esi
  0000e	5b		 pop	 ebx
  0000f	8b e5		 mov	 esp, ebp
  00011	5d		 pop	 ebp
  00012	c3		 ret	 0
??$forward@_N@std@@YA$$QA_NAA_N@Z ENDP			; std::forward<bool>
_TEXT	ENDS
; Function compile flags: /Odtp /ZI
; File C:\Program Files (x86)\Microsoft Visual Studio\2019\Community\VC\Tools\MSVC\14.27.29110\include\type_traits
;	COMDAT ??$forward@AAH@std@@YAAAHAAH@Z
_TEXT	SEGMENT
__Arg$ = 8						; size = 4
??$forward@AAH@std@@YAAAHAAH@Z PROC			; std::forward<int &>, COMDAT

; 1454 :     remove_reference_t<_Ty>& _Arg) noexcept { // forward an lvalue as either an lvalue or an rvalue

  00000	55		 push	 ebp
  00001	8b ec		 mov	 ebp, esp
  00003	83 ec 40	 sub	 esp, 64			; 00000040H
  00006	53		 push	 ebx
  00007	56		 push	 esi
  00008	57		 push	 edi

; 1455 :     return static_cast<_Ty&&>(_Arg);

  00009	8b 45 08	 mov	 eax, DWORD PTR __Arg$[ebp]

; 1456 : }

  0000c	5f		 pop	 edi
  0000d	5e		 pop	 esi
  0000e	5b		 pop	 ebx
  0000f	8b e5		 mov	 esp, ebp
  00011	5d		 pop	 ebp
  00012	c3		 ret	 0
??$forward@AAH@std@@YAAAHAAH@Z ENDP			; std::forward<int &>
_TEXT	ENDS
; Function compile flags: /Odtp /ZI
; File C:\Program Files (x86)\Microsoft Visual Studio\2019\Community\VC\Tools\MSVC\14.27.29110\include\xtree
;	COMDAT ??$_Buyheadnode@V?$allocator@U?$_Tree_node@U?$pair@$$CBH_N@std@@PAX@std@@@std@@@?$_Tree_node@U?$pair@$$CBH_N@std@@PAX@std@@SAPAU01@AAV?$allocator@U?$_Tree_node@U?$pair@$$CBH_N@std@@PAX@std@@@1@@Z
_TEXT	SEGMENT
__Pnode$ = -4						; size = 4
__Al$ = 8						; size = 4
??$_Buyheadnode@V?$allocator@U?$_Tree_node@U?$pair@$$CBH_N@std@@PAX@std@@@std@@@?$_Tree_node@U?$pair@$$CBH_N@std@@PAX@std@@SAPAU01@AAV?$allocator@U?$_Tree_node@U?$pair@$$CBH_N@std@@PAX@std@@@1@@Z PROC ; std::_Tree_node<std::pair<int const ,bool>,void *>::_Buyheadnode<std::allocator<std::_Tree_node<std::pair<int const ,bool>,void *> > >, COMDAT

; 341  :     static _Nodeptr _Buyheadnode(_Alloc& _Al) {

  00000	55		 push	 ebp
  00001	8b ec		 mov	 ebp, esp
  00003	83 ec 44	 sub	 esp, 68			; 00000044H
  00006	53		 push	 ebx
  00007	56		 push	 esi
  00008	57		 push	 edi

; 342  :         static_assert(is_same_v<typename _Alloc::value_type, _Tree_node>, "Bad _Buyheadnode call");
; 343  :         const auto _Pnode = _Al.allocate(1);

  00009	6a 01		 push	 1
  0000b	8b 4d 08	 mov	 ecx, DWORD PTR __Al$[ebp]
  0000e	e8 00 00 00 00	 call	 ?allocate@?$allocator@U?$_Tree_node@U?$pair@$$CBH_N@std@@PAX@std@@@std@@QAEPAU?$_Tree_node@U?$pair@$$CBH_N@std@@PAX@2@I@Z ; std::allocator<std::_Tree_node<std::pair<int const ,bool>,void *> >::allocate
  00013	89 45 fc	 mov	 DWORD PTR __Pnode$[ebp], eax

; 344  :         _Construct_in_place(_Pnode->_Left, _Pnode);

  00016	8d 45 fc	 lea	 eax, DWORD PTR __Pnode$[ebp]
  00019	50		 push	 eax
  0001a	8b 4d fc	 mov	 ecx, DWORD PTR __Pnode$[ebp]
  0001d	51		 push	 ecx
  0001e	e8 00 00 00 00	 call	 ??$_Construct_in_place@PAU?$_Tree_node@U?$pair@$$CBH_N@std@@PAX@std@@ABQAU12@@std@@YAXAAPAU?$_Tree_node@U?$pair@$$CBH_N@std@@PAX@0@ABQAU10@@Z ; std::_Construct_in_place<std::_Tree_node<std::pair<int const ,bool>,void *> *,std::_Tree_node<std::pair<int const ,bool>,void *> * const &>
  00023	83 c4 08	 add	 esp, 8

; 345  :         _Construct_in_place(_Pnode->_Parent, _Pnode);

  00026	8d 45 fc	 lea	 eax, DWORD PTR __Pnode$[ebp]
  00029	50		 push	 eax
  0002a	8b 4d fc	 mov	 ecx, DWORD PTR __Pnode$[ebp]
  0002d	83 c1 04	 add	 ecx, 4
  00030	51		 push	 ecx
  00031	e8 00 00 00 00	 call	 ??$_Construct_in_place@PAU?$_Tree_node@U?$pair@$$CBH_N@std@@PAX@std@@ABQAU12@@std@@YAXAAPAU?$_Tree_node@U?$pair@$$CBH_N@std@@PAX@0@ABQAU10@@Z ; std::_Construct_in_place<std::_Tree_node<std::pair<int const ,bool>,void *> *,std::_Tree_node<std::pair<int const ,bool>,void *> * const &>
  00036	83 c4 08	 add	 esp, 8

; 346  :         _Construct_in_place(_Pnode->_Right, _Pnode);

  00039	8d 45 fc	 lea	 eax, DWORD PTR __Pnode$[ebp]
  0003c	50		 push	 eax
  0003d	8b 4d fc	 mov	 ecx, DWORD PTR __Pnode$[ebp]
  00040	83 c1 08	 add	 ecx, 8
  00043	51		 push	 ecx
  00044	e8 00 00 00 00	 call	 ??$_Construct_in_place@PAU?$_Tree_node@U?$pair@$$CBH_N@std@@PAX@std@@ABQAU12@@std@@YAXAAPAU?$_Tree_node@U?$pair@$$CBH_N@std@@PAX@0@ABQAU10@@Z ; std::_Construct_in_place<std::_Tree_node<std::pair<int const ,bool>,void *> *,std::_Tree_node<std::pair<int const ,bool>,void *> * const &>
  00049	83 c4 08	 add	 esp, 8

; 347  :         _Pnode->_Color = _Black;

  0004c	8b 45 fc	 mov	 eax, DWORD PTR __Pnode$[ebp]
  0004f	c6 40 0c 01	 mov	 BYTE PTR [eax+12], 1

; 348  :         _Pnode->_Isnil = true;

  00053	8b 45 fc	 mov	 eax, DWORD PTR __Pnode$[ebp]
  00056	c6 40 0d 01	 mov	 BYTE PTR [eax+13], 1

; 349  :         return _Pnode;

  0005a	8b 45 fc	 mov	 eax, DWORD PTR __Pnode$[ebp]

; 350  :     }

  0005d	5f		 pop	 edi
  0005e	5e		 pop	 esi
  0005f	5b		 pop	 ebx
  00060	8b e5		 mov	 esp, ebp
  00062	5d		 pop	 ebp
  00063	c3		 ret	 0
??$_Buyheadnode@V?$allocator@U?$_Tree_node@U?$pair@$$CBH_N@std@@PAX@std@@@std@@@?$_Tree_node@U?$pair@$$CBH_N@std@@PAX@std@@SAPAU01@AAV?$allocator@U?$_Tree_node@U?$pair@$$CBH_N@std@@PAX@std@@@1@@Z ENDP ; std::_Tree_node<std::pair<int const ,bool>,void *>::_Buyheadnode<std::allocator<std::_Tree_node<std::pair<int const ,bool>,void *> > >
_TEXT	ENDS
; Function compile flags: /Odtp /ZI
; File C:\Program Files (x86)\Microsoft Visual Studio\2019\Community\VC\Tools\MSVC\14.27.29110\include\xmemory
;	COMDAT ??$?0$$V@?$_Compressed_pair@V?$allocator@U?$_Tree_node@U?$pair@$$CBH_N@std@@PAX@std@@@std@@V?$_Tree_val@U?$_Tree_simple_types@U?$pair@$$CBH_N@std@@@std@@@2@$00@std@@QAE@U_Zero_then_variadic_args_t@1@@Z
_TEXT	SEGMENT
_this$ = -4						; size = 4
___formal$ = 8						; size = 1
??$?0$$V@?$_Compressed_pair@V?$allocator@U?$_Tree_node@U?$pair@$$CBH_N@std@@PAX@std@@@std@@V?$_Tree_val@U?$_Tree_simple_types@U?$pair@$$CBH_N@std@@@std@@@2@$00@std@@QAE@U_Zero_then_variadic_args_t@1@@Z PROC ; std::_Compressed_pair<std::allocator<std::_Tree_node<std::pair<int const ,bool>,void *> >,std::_Tree_val<std::_Tree_simple_types<std::pair<int const ,bool> > >,1>::_Compressed_pair<std::allocator<std::_Tree_node<std::pair<int const ,bool>,void *> >,std::_Tree_val<std::_Tree_simple_types<std::pair<int const ,bool> > >,1><>, COMDAT
; _this$ = ecx

; 1336 :         : _Ty1(), _Myval2(_STD forward<_Other2>(_Val2)...) {}

  00000	55		 push	 ebp
  00001	8b ec		 mov	 ebp, esp
  00003	83 ec 44	 sub	 esp, 68			; 00000044H
  00006	53		 push	 ebx
  00007	56		 push	 esi
  00008	57		 push	 edi
  00009	89 4d fc	 mov	 DWORD PTR _this$[ebp], ecx
  0000c	8b 4d fc	 mov	 ecx, DWORD PTR _this$[ebp]
  0000f	e8 00 00 00 00	 call	 ??0?$allocator@U?$_Tree_node@U?$pair@$$CBH_N@std@@PAX@std@@@std@@QAE@XZ ; std::allocator<std::_Tree_node<std::pair<int const ,bool>,void *> >::allocator<std::_Tree_node<std::pair<int const ,bool>,void *> >
  00014	8b 4d fc	 mov	 ecx, DWORD PTR _this$[ebp]
  00017	e8 00 00 00 00	 call	 ??0?$_Tree_val@U?$_Tree_simple_types@U?$pair@$$CBH_N@std@@@std@@@std@@QAE@XZ ; std::_Tree_val<std::_Tree_simple_types<std::pair<int const ,bool> > >::_Tree_val<std::_Tree_simple_types<std::pair<int const ,bool> > >
  0001c	8b 45 fc	 mov	 eax, DWORD PTR _this$[ebp]
  0001f	5f		 pop	 edi
  00020	5e		 pop	 esi
  00021	5b		 pop	 ebx
  00022	8b e5		 mov	 esp, ebp
  00024	5d		 pop	 ebp
  00025	c2 04 00	 ret	 4
??$?0$$V@?$_Compressed_pair@V?$allocator@U?$_Tree_node@U?$pair@$$CBH_N@std@@PAX@std@@@std@@V?$_Tree_val@U?$_Tree_simple_types@U?$pair@$$CBH_N@std@@@std@@@2@$00@std@@QAE@U_Zero_then_variadic_args_t@1@@Z ENDP ; std::_Compressed_pair<std::allocator<std::_Tree_node<std::pair<int const ,bool>,void *> >,std::_Tree_val<std::_Tree_simple_types<std::pair<int const ,bool> > >,1>::_Compressed_pair<std::allocator<std::_Tree_node<std::pair<int const ,bool>,void *> >,std::_Tree_val<std::_Tree_simple_types<std::pair<int const ,bool> > >,1><>
_TEXT	ENDS
; Function compile flags: /Odtp /ZI
; File C:\Program Files (x86)\Microsoft Visual Studio\2019\Community\VC\Tools\MSVC\14.27.29110\include\xmemory
;	COMDAT ??$?0ABU?$less@H@std@@U_Zero_then_variadic_args_t@1@@?$_Compressed_pair@U?$less@H@std@@V?$_Compressed_pair@V?$allocator@U?$_Tree_node@U?$pair@$$CBH_N@std@@PAX@std@@@std@@V?$_Tree_val@U?$_Tree_simple_types@U?$pair@$$CBH_N@std@@@std@@@2@$00@2@$00@std@@QAE@U_One_then_variadic_args_t@1@ABU?$less@H@1@$$QAU_Zero_then_variadic_args_t@1@@Z
_TEXT	SEGMENT
_this$ = -4						; size = 4
___formal$ = 8						; size = 1
__Val1$ = 12						; size = 4
_<_Val2_0>$ = 16					; size = 4
??$?0ABU?$less@H@std@@U_Zero_then_variadic_args_t@1@@?$_Compressed_pair@U?$less@H@std@@V?$_Compressed_pair@V?$allocator@U?$_Tree_node@U?$pair@$$CBH_N@std@@PAX@std@@@std@@V?$_Tree_val@U?$_Tree_simple_types@U?$pair@$$CBH_N@std@@@std@@@2@$00@2@$00@std@@QAE@U_One_then_variadic_args_t@1@ABU?$less@H@1@$$QAU_Zero_then_variadic_args_t@1@@Z PROC ; std::_Compressed_pair<std::less<int>,std::_Compressed_pair<std::allocator<std::_Tree_node<std::pair<int const ,bool>,void *> >,std::_Tree_val<std::_Tree_simple_types<std::pair<int const ,bool> > >,1>,1>::_Compressed_pair<std::less<int>,std::_Compressed_pair<std::allocator<std::_Tree_node<std::pair<int const ,bool>,void *> >,std::_Tree_val<std::_Tree_simple_types<std::pair<int const ,bool> > >,1>,1><std::less<int> const &,std::_Zero_then_variadic_args_t>, COMDAT
; _this$ = ecx

; 1341 :         : _Ty1(_STD forward<_Other1>(_Val1)), _Myval2(_STD forward<_Other2>(_Val2)...) {}

  00000	55		 push	 ebp
  00001	8b ec		 mov	 ebp, esp
  00003	83 ec 44	 sub	 esp, 68			; 00000044H
  00006	53		 push	 ebx
  00007	56		 push	 esi
  00008	57		 push	 edi
  00009	89 4d fc	 mov	 DWORD PTR _this$[ebp], ecx
  0000c	8b 45 0c	 mov	 eax, DWORD PTR __Val1$[ebp]
  0000f	50		 push	 eax
  00010	e8 00 00 00 00	 call	 ??$forward@ABU?$less@H@std@@@std@@YAABU?$less@H@0@ABU10@@Z ; std::forward<std::less<int> const &>
  00015	83 c4 04	 add	 esp, 4
  00018	8b 45 10	 mov	 eax, DWORD PTR _<_Val2_0>$[ebp]
  0001b	50		 push	 eax
  0001c	e8 00 00 00 00	 call	 ??$forward@U_Zero_then_variadic_args_t@std@@@std@@YA$$QAU_Zero_then_variadic_args_t@0@AAU10@@Z ; std::forward<std::_Zero_then_variadic_args_t>
  00021	83 c4 04	 add	 esp, 4
  00024	8a 08		 mov	 cl, BYTE PTR [eax]
  00026	0f b6 d1	 movzx	 edx, cl
  00029	52		 push	 edx
  0002a	8b 4d fc	 mov	 ecx, DWORD PTR _this$[ebp]
  0002d	e8 00 00 00 00	 call	 ??$?0$$V@?$_Compressed_pair@V?$allocator@U?$_Tree_node@U?$pair@$$CBH_N@std@@PAX@std@@@std@@V?$_Tree_val@U?$_Tree_simple_types@U?$pair@$$CBH_N@std@@@std@@@2@$00@std@@QAE@U_Zero_then_variadic_args_t@1@@Z ; std::_Compressed_pair<std::allocator<std::_Tree_node<std::pair<int const ,bool>,void *> >,std::_Tree_val<std::_Tree_simple_types<std::pair<int const ,bool> > >,1>::_Compressed_pair<std::allocator<std::_Tree_node<std::pair<int const ,bool>,void *> >,std::_Tree_val<std::_Tree_simple_types<std::pair<int const ,bool> > >,1><>
  00032	8b 45 fc	 mov	 eax, DWORD PTR _this$[ebp]
  00035	5f		 pop	 edi
  00036	5e		 pop	 esi
  00037	5b		 pop	 ebx
  00038	8b e5		 mov	 esp, ebp
  0003a	5d		 pop	 ebp
  0003b	c2 0c 00	 ret	 12			; 0000000cH
??$?0ABU?$less@H@std@@U_Zero_then_variadic_args_t@1@@?$_Compressed_pair@U?$less@H@std@@V?$_Compressed_pair@V?$allocator@U?$_Tree_node@U?$pair@$$CBH_N@std@@PAX@std@@@std@@V?$_Tree_val@U?$_Tree_simple_types@U?$pair@$$CBH_N@std@@@std@@@2@$00@2@$00@std@@QAE@U_One_then_variadic_args_t@1@ABU?$less@H@1@$$QAU_Zero_then_variadic_args_t@1@@Z ENDP ; std::_Compressed_pair<std::less<int>,std::_Compressed_pair<std::allocator<std::_Tree_node<std::pair<int const ,bool>,void *> >,std::_Tree_val<std::_Tree_simple_types<std::pair<int const ,bool> > >,1>,1>::_Compressed_pair<std::less<int>,std::_Compressed_pair<std::allocator<std::_Tree_node<std::pair<int const ,bool>,void *> >,std::_Tree_val<std::_Tree_simple_types<std::pair<int const ,bool> > >,1>,1><std::less<int> const &,std::_Zero_then_variadic_args_t>
_TEXT	ENDS
; Function compile flags: /Odtp /ZI
; File C:\Program Files (x86)\Microsoft Visual Studio\2019\Community\VC\Tools\MSVC\14.27.29110\include\xstddef
;	COMDAT ??$addressof@V?$_Tree_val@U?$_Tree_simple_types@U?$pair@$$CBH_N@std@@@std@@@std@@@std@@YAPAV?$_Tree_val@U?$_Tree_simple_types@U?$pair@$$CBH_N@std@@@std@@@0@AAV10@@Z
_TEXT	SEGMENT
__Val$ = 8						; size = 4
??$addressof@V?$_Tree_val@U?$_Tree_simple_types@U?$pair@$$CBH_N@std@@@std@@@std@@@std@@YAPAV?$_Tree_val@U?$_Tree_simple_types@U?$pair@$$CBH_N@std@@@std@@@0@AAV10@@Z PROC ; std::addressof<std::_Tree_val<std::_Tree_simple_types<std::pair<int const ,bool> > > >, COMDAT

; 274  : _NODISCARD constexpr _Ty* addressof(_Ty& _Val) noexcept {

  00000	55		 push	 ebp
  00001	8b ec		 mov	 ebp, esp
  00003	83 ec 40	 sub	 esp, 64			; 00000040H
  00006	53		 push	 ebx
  00007	56		 push	 esi
  00008	57		 push	 edi

; 275  :     return __builtin_addressof(_Val);

  00009	8b 45 08	 mov	 eax, DWORD PTR __Val$[ebp]

; 276  : }

  0000c	5f		 pop	 edi
  0000d	5e		 pop	 esi
  0000e	5b		 pop	 ebx
  0000f	8b e5		 mov	 esp, ebp
  00011	5d		 pop	 ebp
  00012	c3		 ret	 0
??$addressof@V?$_Tree_val@U?$_Tree_simple_types@U?$pair@$$CBH_N@std@@@std@@@std@@@std@@YAPAV?$_Tree_val@U?$_Tree_simple_types@U?$pair@$$CBH_N@std@@@std@@@0@AAV10@@Z ENDP ; std::addressof<std::_Tree_val<std::_Tree_simple_types<std::pair<int const ,bool> > > >
_TEXT	ENDS
; Function compile flags: /Odtp /ZI
; File C:\Program Files (x86)\Microsoft Visual Studio\2019\Community\VC\Tools\MSVC\14.27.29110\include\xstddef
;	COMDAT ??$addressof@U?$pair@$$CBH_N@std@@@std@@YAPAU?$pair@$$CBH_N@0@AAU10@@Z
_TEXT	SEGMENT
__Val$ = 8						; size = 4
??$addressof@U?$pair@$$CBH_N@std@@@std@@YAPAU?$pair@$$CBH_N@0@AAU10@@Z PROC ; std::addressof<std::pair<int const ,bool> >, COMDAT

; 274  : _NODISCARD constexpr _Ty* addressof(_Ty& _Val) noexcept {

  00000	55		 push	 ebp
  00001	8b ec		 mov	 ebp, esp
  00003	83 ec 40	 sub	 esp, 64			; 00000040H
  00006	53		 push	 ebx
  00007	56		 push	 esi
  00008	57		 push	 edi

; 275  :     return __builtin_addressof(_Val);

  00009	8b 45 08	 mov	 eax, DWORD PTR __Val$[ebp]

; 276  : }

  0000c	5f		 pop	 edi
  0000d	5e		 pop	 esi
  0000e	5b		 pop	 ebx
  0000f	8b e5		 mov	 esp, ebp
  00011	5d		 pop	 ebp
  00012	c3		 ret	 0
??$addressof@U?$pair@$$CBH_N@std@@@std@@YAPAU?$pair@$$CBH_N@0@AAU10@@Z ENDP ; std::addressof<std::pair<int const ,bool> >
_TEXT	ENDS
; Function compile flags: /Odtp /ZI
; File C:\Program Files (x86)\Microsoft Visual Studio\2019\Community\VC\Tools\MSVC\14.27.29110\include\xtree
;	COMDAT ??$_Erase_head@V?$allocator@U?$_Tree_node@U?$pair@$$CBH_N@std@@PAX@std@@@std@@@?$_Tree_val@U?$_Tree_simple_types@U?$pair@$$CBH_N@std@@@std@@@std@@QAEXAAV?$allocator@U?$_Tree_node@U?$pair@$$CBH_N@std@@PAX@std@@@1@@Z
_TEXT	SEGMENT
_this$ = -4						; size = 4
__Al$ = 8						; size = 4
??$_Erase_head@V?$allocator@U?$_Tree_node@U?$pair@$$CBH_N@std@@PAX@std@@@std@@@?$_Tree_val@U?$_Tree_simple_types@U?$pair@$$CBH_N@std@@@std@@@std@@QAEXAAV?$allocator@U?$_Tree_node@U?$pair@$$CBH_N@std@@PAX@std@@@1@@Z PROC ; std::_Tree_val<std::_Tree_simple_types<std::pair<int const ,bool> > >::_Erase_head<std::allocator<std::_Tree_node<std::pair<int const ,bool>,void *> > >, COMDAT
; _this$ = ecx

; 750  :     void _Erase_head(_Alnode& _Al) noexcept {

  00000	55		 push	 ebp
  00001	8b ec		 mov	 ebp, esp
  00003	83 ec 44	 sub	 esp, 68			; 00000044H
  00006	53		 push	 ebx
  00007	56		 push	 esi
  00008	57		 push	 edi
  00009	89 4d fc	 mov	 DWORD PTR _this$[ebp], ecx

; 751  :         this->_Orphan_all();

  0000c	8b 4d fc	 mov	 ecx, DWORD PTR _this$[ebp]
  0000f	e8 00 00 00 00	 call	 ?_Orphan_all@_Container_base0@std@@QAEXXZ ; std::_Container_base0::_Orphan_all

; 752  :         _Erase_tree(_Al, _Myhead->_Parent);

  00014	8b 45 fc	 mov	 eax, DWORD PTR _this$[ebp]
  00017	8b 08		 mov	 ecx, DWORD PTR [eax]
  00019	8b 51 04	 mov	 edx, DWORD PTR [ecx+4]
  0001c	52		 push	 edx
  0001d	8b 45 08	 mov	 eax, DWORD PTR __Al$[ebp]
  00020	50		 push	 eax
  00021	8b 4d fc	 mov	 ecx, DWORD PTR _this$[ebp]
  00024	e8 00 00 00 00	 call	 ??$_Erase_tree@V?$allocator@U?$_Tree_node@U?$pair@$$CBH_N@std@@PAX@std@@@std@@@?$_Tree_val@U?$_Tree_simple_types@U?$pair@$$CBH_N@std@@@std@@@std@@QAEXAAV?$allocator@U?$_Tree_node@U?$pair@$$CBH_N@std@@PAX@std@@@1@PAU?$_Tree_node@U?$pair@$$CBH_N@std@@PAX@1@@Z ; std::_Tree_val<std::_Tree_simple_types<std::pair<int const ,bool> > >::_Erase_tree<std::allocator<std::_Tree_node<std::pair<int const ,bool>,void *> > >

; 753  :         _Alnode::value_type::_Freenode0(_Al, _Myhead);

  00029	8b 45 fc	 mov	 eax, DWORD PTR _this$[ebp]
  0002c	8b 08		 mov	 ecx, DWORD PTR [eax]
  0002e	51		 push	 ecx
  0002f	8b 55 08	 mov	 edx, DWORD PTR __Al$[ebp]
  00032	52		 push	 edx
  00033	e8 00 00 00 00	 call	 ??$_Freenode0@V?$allocator@U?$_Tree_node@U?$pair@$$CBH_N@std@@PAX@std@@@std@@@?$_Tree_node@U?$pair@$$CBH_N@std@@PAX@std@@SAXAAV?$allocator@U?$_Tree_node@U?$pair@$$CBH_N@std@@PAX@std@@@1@PAU01@@Z ; std::_Tree_node<std::pair<int const ,bool>,void *>::_Freenode0<std::allocator<std::_Tree_node<std::pair<int const ,bool>,void *> > >
  00038	83 c4 08	 add	 esp, 8

; 754  :     }

  0003b	5f		 pop	 edi
  0003c	5e		 pop	 esi
  0003d	5b		 pop	 ebx
  0003e	8b e5		 mov	 esp, ebp
  00040	5d		 pop	 ebp
  00041	c2 04 00	 ret	 4
??$_Erase_head@V?$allocator@U?$_Tree_node@U?$pair@$$CBH_N@std@@PAX@std@@@std@@@?$_Tree_val@U?$_Tree_simple_types@U?$pair@$$CBH_N@std@@@std@@@std@@QAEXAAV?$allocator@U?$_Tree_node@U?$pair@$$CBH_N@std@@PAX@std@@@1@@Z ENDP ; std::_Tree_val<std::_Tree_simple_types<std::pair<int const ,bool> > >::_Erase_head<std::allocator<std::_Tree_node<std::pair<int const ,bool>,void *> > >
_TEXT	ENDS
; Function compile flags: /Odtp /ZI
; File C:\Program Files (x86)\Microsoft Visual Studio\2019\Community\VC\Tools\MSVC\14.27.29110\include\xtree
;	COMDAT ??$_Erase_tree@V?$allocator@U?$_Tree_node@U?$pair@$$CBH_N@std@@PAX@std@@@std@@@?$_Tree_val@U?$_Tree_simple_types@U?$pair@$$CBH_N@std@@@std@@@std@@QAEXAAV?$allocator@U?$_Tree_node@U?$pair@$$CBH_N@std@@PAX@std@@@1@PAU?$_Tree_node@U?$pair@$$CBH_N@std@@PAX@1@@Z
_TEXT	SEGMENT
_this$ = -4						; size = 4
__Al$ = 8						; size = 4
__Rootnode$ = 12					; size = 4
??$_Erase_tree@V?$allocator@U?$_Tree_node@U?$pair@$$CBH_N@std@@PAX@std@@@std@@@?$_Tree_val@U?$_Tree_simple_types@U?$pair@$$CBH_N@std@@@std@@@std@@QAEXAAV?$allocator@U?$_Tree_node@U?$pair@$$CBH_N@std@@PAX@std@@@1@PAU?$_Tree_node@U?$pair@$$CBH_N@std@@PAX@1@@Z PROC ; std::_Tree_val<std::_Tree_simple_types<std::pair<int const ,bool> > >::_Erase_tree<std::allocator<std::_Tree_node<std::pair<int const ,bool>,void *> > >, COMDAT
; _this$ = ecx

; 742  :     void _Erase_tree(_Alnode& _Al, _Nodeptr _Rootnode) noexcept {

  00000	55		 push	 ebp
  00001	8b ec		 mov	 ebp, esp
  00003	83 ec 44	 sub	 esp, 68			; 00000044H
  00006	53		 push	 ebx
  00007	56		 push	 esi
  00008	57		 push	 edi
  00009	89 4d fc	 mov	 DWORD PTR _this$[ebp], ecx
$LN2@Erase_tree:

; 743  :         while (!_Rootnode->_Isnil) { // free subtrees, then node

  0000c	8b 45 0c	 mov	 eax, DWORD PTR __Rootnode$[ebp]
  0000f	0f be 48 0d	 movsx	 ecx, BYTE PTR [eax+13]
  00013	85 c9		 test	 ecx, ecx
  00015	75 32		 jne	 SHORT $LN4@Erase_tree

; 744  :             _Erase_tree(_Al, _Rootnode->_Right);

  00017	8b 45 0c	 mov	 eax, DWORD PTR __Rootnode$[ebp]
  0001a	8b 48 08	 mov	 ecx, DWORD PTR [eax+8]
  0001d	51		 push	 ecx
  0001e	8b 55 08	 mov	 edx, DWORD PTR __Al$[ebp]
  00021	52		 push	 edx
  00022	8b 4d fc	 mov	 ecx, DWORD PTR _this$[ebp]
  00025	e8 00 00 00 00	 call	 ??$_Erase_tree@V?$allocator@U?$_Tree_node@U?$pair@$$CBH_N@std@@PAX@std@@@std@@@?$_Tree_val@U?$_Tree_simple_types@U?$pair@$$CBH_N@std@@@std@@@std@@QAEXAAV?$allocator@U?$_Tree_node@U?$pair@$$CBH_N@std@@PAX@std@@@1@PAU?$_Tree_node@U?$pair@$$CBH_N@std@@PAX@1@@Z ; std::_Tree_val<std::_Tree_simple_types<std::pair<int const ,bool> > >::_Erase_tree<std::allocator<std::_Tree_node<std::pair<int const ,bool>,void *> > >

; 745  :             _Alnode::value_type::_Freenode(_Al, _STD exchange(_Rootnode, _Rootnode->_Left));

  0002a	8b 45 0c	 mov	 eax, DWORD PTR __Rootnode$[ebp]
  0002d	50		 push	 eax
  0002e	8d 4d 0c	 lea	 ecx, DWORD PTR __Rootnode$[ebp]
  00031	51		 push	 ecx
  00032	e8 00 00 00 00	 call	 ??$exchange@PAU?$_Tree_node@U?$pair@$$CBH_N@std@@PAX@std@@AAPAU12@@std@@YAPAU?$_Tree_node@U?$pair@$$CBH_N@std@@PAX@0@AAPAU10@0@Z ; std::exchange<std::_Tree_node<std::pair<int const ,bool>,void *> *,std::_Tree_node<std::pair<int const ,bool>,void *> * &>
  00037	83 c4 08	 add	 esp, 8
  0003a	50		 push	 eax
  0003b	8b 55 08	 mov	 edx, DWORD PTR __Al$[ebp]
  0003e	52		 push	 edx
  0003f	e8 00 00 00 00	 call	 ??$_Freenode@V?$allocator@U?$_Tree_node@U?$pair@$$CBH_N@std@@PAX@std@@@std@@@?$_Tree_node@U?$pair@$$CBH_N@std@@PAX@std@@SAXAAV?$allocator@U?$_Tree_node@U?$pair@$$CBH_N@std@@PAX@std@@@1@PAU01@@Z ; std::_Tree_node<std::pair<int const ,bool>,void *>::_Freenode<std::allocator<std::_Tree_node<std::pair<int const ,bool>,void *> > >
  00044	83 c4 08	 add	 esp, 8

; 746  :         }

  00047	eb c3		 jmp	 SHORT $LN2@Erase_tree
$LN4@Erase_tree:

; 747  :     }

  00049	5f		 pop	 edi
  0004a	5e		 pop	 esi
  0004b	5b		 pop	 ebx
  0004c	8b e5		 mov	 esp, ebp
  0004e	5d		 pop	 ebp
  0004f	c2 08 00	 ret	 8
??$_Erase_tree@V?$allocator@U?$_Tree_node@U?$pair@$$CBH_N@std@@PAX@std@@@std@@@?$_Tree_val@U?$_Tree_simple_types@U?$pair@$$CBH_N@std@@@std@@@std@@QAEXAAV?$allocator@U?$_Tree_node@U?$pair@$$CBH_N@std@@PAX@std@@@1@PAU?$_Tree_node@U?$pair@$$CBH_N@std@@PAX@1@@Z ENDP ; std::_Tree_val<std::_Tree_simple_types<std::pair<int const ,bool> > >::_Erase_tree<std::allocator<std::_Tree_node<std::pair<int const ,bool>,void *> > >
_TEXT	ENDS
; Function compile flags: /Odtp /ZI
; File C:\Program Files (x86)\Microsoft Visual Studio\2019\Community\VC\Tools\MSVC\14.27.29110\include\xtree
;	COMDAT ??$_Find@H@?$_Tree@V?$_Tmap_traits@H_NU?$less@H@std@@V?$allocator@U?$pair@$$CBH_N@std@@@2@$0A@@std@@@std@@ABEPAU?$_Tree_node@U?$pair@$$CBH_N@std@@PAX@1@ABH@Z
_TEXT	SEGMENT
__Loc$ = -16						; size = 12
_this$ = -4						; size = 4
__Keyval$ = 8						; size = 4
??$_Find@H@?$_Tree@V?$_Tmap_traits@H_NU?$less@H@std@@V?$allocator@U?$pair@$$CBH_N@std@@@2@$0A@@std@@@std@@ABEPAU?$_Tree_node@U?$pair@$$CBH_N@std@@PAX@1@ABH@Z PROC ; std::_Tree<std::_Tmap_traits<int,bool,std::less<int>,std::allocator<std::pair<int const ,bool> >,0> >::_Find<int>, COMDAT
; _this$ = ecx

; 1457 :     _NODISCARD _Nodeptr _Find(const _Other& _Keyval) const {

  00000	55		 push	 ebp
  00001	8b ec		 mov	 ebp, esp
  00003	83 ec 50	 sub	 esp, 80			; 00000050H
  00006	53		 push	 ebx
  00007	56		 push	 esi
  00008	57		 push	 edi
  00009	89 4d fc	 mov	 DWORD PTR _this$[ebp], ecx

; 1458 :         const _Tree_find_result<_Nodeptr> _Loc = _Find_lower_bound(_Keyval);

  0000c	8b 45 08	 mov	 eax, DWORD PTR __Keyval$[ebp]
  0000f	50		 push	 eax
  00010	8d 4d f0	 lea	 ecx, DWORD PTR __Loc$[ebp]
  00013	51		 push	 ecx
  00014	8b 4d fc	 mov	 ecx, DWORD PTR _this$[ebp]
  00017	e8 00 00 00 00	 call	 ??$_Find_lower_bound@H@?$_Tree@V?$_Tmap_traits@H_NU?$less@H@std@@V?$allocator@U?$pair@$$CBH_N@std@@@2@$0A@@std@@@std@@IBE?AU?$_Tree_find_result@PAU?$_Tree_node@U?$pair@$$CBH_N@std@@PAX@std@@@1@ABH@Z ; std::_Tree<std::_Tmap_traits<int,bool,std::less<int>,std::allocator<std::pair<int const ,bool> >,0> >::_Find_lower_bound<int>

; 1459 :         if (_Lower_bound_duplicate(_Loc._Bound, _Keyval)) {

  0001c	8b 45 08	 mov	 eax, DWORD PTR __Keyval$[ebp]
  0001f	50		 push	 eax
  00020	8b 4d f8	 mov	 ecx, DWORD PTR __Loc$[ebp+8]
  00023	51		 push	 ecx
  00024	8b 4d fc	 mov	 ecx, DWORD PTR _this$[ebp]
  00027	e8 00 00 00 00	 call	 ??$_Lower_bound_duplicate@H@?$_Tree@V?$_Tmap_traits@H_NU?$less@H@std@@V?$allocator@U?$pair@$$CBH_N@std@@@2@$0A@@std@@@std@@IBE_NQAU?$_Tree_node@U?$pair@$$CBH_N@std@@PAX@1@ABH@Z ; std::_Tree<std::_Tmap_traits<int,bool,std::less<int>,std::allocator<std::pair<int const ,bool> >,0> >::_Lower_bound_duplicate<int>
  0002c	0f b6 d0	 movzx	 edx, al
  0002f	85 d2		 test	 edx, edx
  00031	74 05		 je	 SHORT $LN2@Find

; 1460 :             return _Loc._Bound;

  00033	8b 45 f8	 mov	 eax, DWORD PTR __Loc$[ebp+8]
  00036	eb 0a		 jmp	 SHORT $LN1@Find
$LN2@Find:

; 1461 :         }
; 1462 : 
; 1463 :         return _Get_scary()->_Myhead;

  00038	8b 4d fc	 mov	 ecx, DWORD PTR _this$[ebp]
  0003b	e8 00 00 00 00	 call	 ?_Get_scary@?$_Tree@V?$_Tmap_traits@H_NU?$less@H@std@@V?$allocator@U?$pair@$$CBH_N@std@@@2@$0A@@std@@@std@@IBEPBV?$_Tree_val@U?$_Tree_simple_types@U?$pair@$$CBH_N@std@@@std@@@2@XZ ; std::_Tree<std::_Tmap_traits<int,bool,std::less<int>,std::allocator<std::pair<int const ,bool> >,0> >::_Get_scary
  00040	8b 00		 mov	 eax, DWORD PTR [eax]
$LN1@Find:

; 1464 :     }

  00042	5f		 pop	 edi
  00043	5e		 pop	 esi
  00044	5b		 pop	 ebx
  00045	8b e5		 mov	 esp, ebp
  00047	5d		 pop	 ebp
  00048	c2 04 00	 ret	 4
??$_Find@H@?$_Tree@V?$_Tmap_traits@H_NU?$less@H@std@@V?$allocator@U?$pair@$$CBH_N@std@@@2@$0A@@std@@@std@@ABEPAU?$_Tree_node@U?$pair@$$CBH_N@std@@PAX@1@ABH@Z ENDP ; std::_Tree<std::_Tmap_traits<int,bool,std::less<int>,std::allocator<std::pair<int const ,bool> >,0> >::_Find<int>
_TEXT	ENDS
; Function compile flags: /Odtp /ZI
; File C:\Program Files (x86)\Microsoft Visual Studio\2019\Community\VC\Tools\MSVC\14.27.29110\include\xutility
;	COMDAT ?pointer_to@?$pointer_traits@PAU?$pair@$$CBH_N@std@@@std@@SAPAU?$pair@$$CBH_N@2@AAU32@@Z
_TEXT	SEGMENT
__Val$ = 8						; size = 4
?pointer_to@?$pointer_traits@PAU?$pair@$$CBH_N@std@@@std@@SAPAU?$pair@$$CBH_N@2@AAU32@@Z PROC ; std::pointer_traits<std::pair<int const ,bool> *>::pointer_to, COMDAT

; 146  :     _NODISCARD static _CONSTEXPR20 pointer pointer_to(_Reftype _Val) noexcept {

  00000	55		 push	 ebp
  00001	8b ec		 mov	 ebp, esp
  00003	83 ec 40	 sub	 esp, 64			; 00000040H
  00006	53		 push	 ebx
  00007	56		 push	 esi
  00008	57		 push	 edi

; 147  :         return _STD addressof(_Val);

  00009	8b 45 08	 mov	 eax, DWORD PTR __Val$[ebp]
  0000c	50		 push	 eax
  0000d	e8 00 00 00 00	 call	 ??$addressof@U?$pair@$$CBH_N@std@@@std@@YAPAU?$pair@$$CBH_N@0@AAU10@@Z ; std::addressof<std::pair<int const ,bool> >
  00012	83 c4 04	 add	 esp, 4

; 148  :     }

  00015	5f		 pop	 edi
  00016	5e		 pop	 esi
  00017	5b		 pop	 ebx
  00018	8b e5		 mov	 esp, ebp
  0001a	5d		 pop	 ebp
  0001b	c3		 ret	 0
?pointer_to@?$pointer_traits@PAU?$pair@$$CBH_N@std@@@std@@SAPAU?$pair@$$CBH_N@2@AAU32@@Z ENDP ; std::pointer_traits<std::pair<int const ,bool> *>::pointer_to
_TEXT	ENDS
; Function compile flags: /Odtp /ZI
;	COMDAT ??0?$_Tree_iterator@V?$_Tree_val@U?$_Tree_simple_types@U?$pair@$$CBH_N@std@@@std@@@std@@@std@@QAE@PAU?$_Tree_node@U?$pair@$$CBH_N@std@@PAX@1@PBV?$_Tree_val@U?$_Tree_simple_types@U?$pair@$$CBH_N@std@@@std@@@1@@Z
_TEXT	SEGMENT
_this$ = -4						; size = 4
___param0$ = 8						; size = 4
___param1$ = 12						; size = 4
??0?$_Tree_iterator@V?$_Tree_val@U?$_Tree_simple_types@U?$pair@$$CBH_N@std@@@std@@@std@@@std@@QAE@PAU?$_Tree_node@U?$pair@$$CBH_N@std@@PAX@1@PBV?$_Tree_val@U?$_Tree_simple_types@U?$pair@$$CBH_N@std@@@std@@@1@@Z PROC ; std::_Tree_iterator<std::_Tree_val<std::_Tree_simple_types<std::pair<int const ,bool> > > >::_Tree_iterator<std::_Tree_val<std::_Tree_simple_types<std::pair<int const ,bool> > > >, COMDAT
; _this$ = ecx
  00000	55		 push	 ebp
  00001	8b ec		 mov	 ebp, esp
  00003	83 ec 44	 sub	 esp, 68			; 00000044H
  00006	53		 push	 ebx
  00007	56		 push	 esi
  00008	57		 push	 edi
  00009	89 4d fc	 mov	 DWORD PTR _this$[ebp], ecx
  0000c	8b 45 0c	 mov	 eax, DWORD PTR ___param1$[ebp]
  0000f	50		 push	 eax
  00010	8b 4d 08	 mov	 ecx, DWORD PTR ___param0$[ebp]
  00013	51		 push	 ecx
  00014	8b 4d fc	 mov	 ecx, DWORD PTR _this$[ebp]
  00017	e8 00 00 00 00	 call	 ??0?$_Tree_const_iterator@V?$_Tree_val@U?$_Tree_simple_types@U?$pair@$$CBH_N@std@@@std@@@std@@@std@@QAE@PAU?$_Tree_node@U?$pair@$$CBH_N@std@@PAX@1@PBV?$_Tree_val@U?$_Tree_simple_types@U?$pair@$$CBH_N@std@@@std@@@1@@Z
  0001c	8b 45 fc	 mov	 eax, DWORD PTR _this$[ebp]
  0001f	5f		 pop	 edi
  00020	5e		 pop	 esi
  00021	5b		 pop	 ebx
  00022	8b e5		 mov	 esp, ebp
  00024	5d		 pop	 ebp
  00025	c2 08 00	 ret	 8
??0?$_Tree_iterator@V?$_Tree_val@U?$_Tree_simple_types@U?$pair@$$CBH_N@std@@@std@@@std@@@std@@QAE@PAU?$_Tree_node@U?$pair@$$CBH_N@std@@PAX@1@PBV?$_Tree_val@U?$_Tree_simple_types@U?$pair@$$CBH_N@std@@@std@@@1@@Z ENDP ; std::_Tree_iterator<std::_Tree_val<std::_Tree_simple_types<std::pair<int const ,bool> > > >::_Tree_iterator<std::_Tree_val<std::_Tree_simple_types<std::pair<int const ,bool> > > >
_TEXT	ENDS
; Function compile flags: /Odtp /ZI
; File C:\Program Files (x86)\Microsoft Visual Studio\2019\Community\VC\Tools\MSVC\14.27.29110\include\xtree
;	COMDAT ??C?$_Tree_iterator@V?$_Tree_val@U?$_Tree_simple_types@U?$pair@$$CBH_N@std@@@std@@@std@@@std@@QBEPAU?$pair@$$CBH_N@1@XZ
_TEXT	SEGMENT
_this$ = -4						; size = 4
??C?$_Tree_iterator@V?$_Tree_val@U?$_Tree_simple_types@U?$pair@$$CBH_N@std@@@std@@@std@@@std@@QBEPAU?$pair@$$CBH_N@1@XZ PROC ; std::_Tree_iterator<std::_Tree_val<std::_Tree_simple_types<std::pair<int const ,bool> > > >::operator->, COMDAT
; _this$ = ecx

; 276  :     _NODISCARD pointer operator->() const {

  00000	55		 push	 ebp
  00001	8b ec		 mov	 ebp, esp
  00003	83 ec 44	 sub	 esp, 68			; 00000044H
  00006	53		 push	 ebx
  00007	56		 push	 esi
  00008	57		 push	 edi
  00009	89 4d fc	 mov	 DWORD PTR _this$[ebp], ecx

; 277  :         return pointer_traits<pointer>::pointer_to(**this);

  0000c	8b 4d fc	 mov	 ecx, DWORD PTR _this$[ebp]
  0000f	e8 00 00 00 00	 call	 ??D?$_Tree_iterator@V?$_Tree_val@U?$_Tree_simple_types@U?$pair@$$CBH_N@std@@@std@@@std@@@std@@QBEAAU?$pair@$$CBH_N@1@XZ ; std::_Tree_iterator<std::_Tree_val<std::_Tree_simple_types<std::pair<int const ,bool> > > >::operator*
  00014	50		 push	 eax
  00015	e8 00 00 00 00	 call	 ?pointer_to@?$pointer_traits@PAU?$pair@$$CBH_N@std@@@std@@SAPAU?$pair@$$CBH_N@2@AAU32@@Z ; std::pointer_traits<std::pair<int const ,bool> *>::pointer_to
  0001a	83 c4 04	 add	 esp, 4

; 278  :     }

  0001d	5f		 pop	 edi
  0001e	5e		 pop	 esi
  0001f	5b		 pop	 ebx
  00020	8b e5		 mov	 esp, ebp
  00022	5d		 pop	 ebp
  00023	c3		 ret	 0
??C?$_Tree_iterator@V?$_Tree_val@U?$_Tree_simple_types@U?$pair@$$CBH_N@std@@@std@@@std@@@std@@QBEPAU?$pair@$$CBH_N@1@XZ ENDP ; std::_Tree_iterator<std::_Tree_val<std::_Tree_simple_types<std::pair<int const ,bool> > > >::operator->
_TEXT	ENDS
; Function compile flags: /Odtp /ZI
; File C:\Program Files (x86)\Microsoft Visual Studio\2019\Community\VC\Tools\MSVC\14.27.29110\include\xtree
;	COMDAT ??D?$_Tree_iterator@V?$_Tree_val@U?$_Tree_simple_types@U?$pair@$$CBH_N@std@@@std@@@std@@@std@@QBEAAU?$pair@$$CBH_N@1@XZ
_TEXT	SEGMENT
_this$ = -4						; size = 4
??D?$_Tree_iterator@V?$_Tree_val@U?$_Tree_simple_types@U?$pair@$$CBH_N@std@@@std@@@std@@@std@@QBEAAU?$pair@$$CBH_N@1@XZ PROC ; std::_Tree_iterator<std::_Tree_val<std::_Tree_simple_types<std::pair<int const ,bool> > > >::operator*, COMDAT
; _this$ = ecx

; 272  :     _NODISCARD reference operator*() const {

  00000	55		 push	 ebp
  00001	8b ec		 mov	 ebp, esp
  00003	83 ec 44	 sub	 esp, 68			; 00000044H
  00006	53		 push	 ebx
  00007	56		 push	 esi
  00008	57		 push	 edi
  00009	89 4d fc	 mov	 DWORD PTR _this$[ebp], ecx

; 273  :         return const_cast<reference>(_Mybase::operator*());

  0000c	8b 4d fc	 mov	 ecx, DWORD PTR _this$[ebp]
  0000f	e8 00 00 00 00	 call	 ??D?$_Tree_const_iterator@V?$_Tree_val@U?$_Tree_simple_types@U?$pair@$$CBH_N@std@@@std@@@std@@@std@@QBEABU?$pair@$$CBH_N@1@XZ ; std::_Tree_const_iterator<std::_Tree_val<std::_Tree_simple_types<std::pair<int const ,bool> > > >::operator*

; 274  :     }

  00014	5f		 pop	 edi
  00015	5e		 pop	 esi
  00016	5b		 pop	 ebx
  00017	8b e5		 mov	 esp, ebp
  00019	5d		 pop	 ebp
  0001a	c3		 ret	 0
??D?$_Tree_iterator@V?$_Tree_val@U?$_Tree_simple_types@U?$pair@$$CBH_N@std@@@std@@@std@@@std@@QBEAAU?$pair@$$CBH_N@1@XZ ENDP ; std::_Tree_iterator<std::_Tree_val<std::_Tree_simple_types<std::pair<int const ,bool> > > >::operator*
_TEXT	ENDS
; Function compile flags: /Odtp /ZI
;	COMDAT ??0?$_Tree_const_iterator@V?$_Tree_val@U?$_Tree_simple_types@U?$pair@$$CBH_N@std@@@std@@@std@@@std@@QAE@PAU?$_Tree_node@U?$pair@$$CBH_N@std@@PAX@1@PBV?$_Tree_val@U?$_Tree_simple_types@U?$pair@$$CBH_N@std@@@std@@@1@@Z
_TEXT	SEGMENT
_this$ = -4						; size = 4
___param0$ = 8						; size = 4
___param1$ = 12						; size = 4
??0?$_Tree_const_iterator@V?$_Tree_val@U?$_Tree_simple_types@U?$pair@$$CBH_N@std@@@std@@@std@@@std@@QAE@PAU?$_Tree_node@U?$pair@$$CBH_N@std@@PAX@1@PBV?$_Tree_val@U?$_Tree_simple_types@U?$pair@$$CBH_N@std@@@std@@@1@@Z PROC ; std::_Tree_const_iterator<std::_Tree_val<std::_Tree_simple_types<std::pair<int const ,bool> > > >::_Tree_const_iterator<std::_Tree_val<std::_Tree_simple_types<std::pair<int const ,bool> > > >, COMDAT
; _this$ = ecx
  00000	55		 push	 ebp
  00001	8b ec		 mov	 ebp, esp
  00003	83 ec 44	 sub	 esp, 68			; 00000044H
  00006	53		 push	 ebx
  00007	56		 push	 esi
  00008	57		 push	 edi
  00009	89 4d fc	 mov	 DWORD PTR _this$[ebp], ecx
  0000c	8b 45 0c	 mov	 eax, DWORD PTR ___param1$[ebp]
  0000f	50		 push	 eax
  00010	8b 4d 08	 mov	 ecx, DWORD PTR ___param0$[ebp]
  00013	51		 push	 ecx
  00014	8b 4d fc	 mov	 ecx, DWORD PTR _this$[ebp]
  00017	e8 00 00 00 00	 call	 ??0?$_Tree_unchecked_const_iterator@V?$_Tree_val@U?$_Tree_simple_types@U?$pair@$$CBH_N@std@@@std@@@std@@U_Iterator_base0@2@@std@@QAE@PAU?$_Tree_node@U?$pair@$$CBH_N@std@@PAX@1@PBV?$_Tree_val@U?$_Tree_simple_types@U?$pair@$$CBH_N@std@@@std@@@1@@Z ; std::_Tree_unchecked_const_iterator<std::_Tree_val<std::_Tree_simple_types<std::pair<int const ,bool> > >,std::_Iterator_base0>::_Tree_unchecked_const_iterator<std::_Tree_val<std::_Tree_simple_types<std::pair<int const ,bool> > >,std::_Iterator_base0>
  0001c	8b 45 fc	 mov	 eax, DWORD PTR _this$[ebp]
  0001f	5f		 pop	 edi
  00020	5e		 pop	 esi
  00021	5b		 pop	 ebx
  00022	8b e5		 mov	 esp, ebp
  00024	5d		 pop	 ebp
  00025	c2 08 00	 ret	 8
??0?$_Tree_const_iterator@V?$_Tree_val@U?$_Tree_simple_types@U?$pair@$$CBH_N@std@@@std@@@std@@@std@@QAE@PAU?$_Tree_node@U?$pair@$$CBH_N@std@@PAX@1@PBV?$_Tree_val@U?$_Tree_simple_types@U?$pair@$$CBH_N@std@@@std@@@1@@Z ENDP ; std::_Tree_const_iterator<std::_Tree_val<std::_Tree_simple_types<std::pair<int const ,bool> > > >::_Tree_const_iterator<std::_Tree_val<std::_Tree_simple_types<std::pair<int const ,bool> > > >
_TEXT	ENDS
; Function compile flags: /Odtp /ZI
; File C:\Program Files (x86)\Microsoft Visual Studio\2019\Community\VC\Tools\MSVC\14.27.29110\include\xtree
;	COMDAT ??8?$_Tree_const_iterator@V?$_Tree_val@U?$_Tree_simple_types@U?$pair@$$CBH_N@std@@@std@@@std@@@std@@QBE_NABV01@@Z
_TEXT	SEGMENT
tv75 = -72						; size = 4
_this$ = -4						; size = 4
__Right$ = 8						; size = 4
??8?$_Tree_const_iterator@V?$_Tree_val@U?$_Tree_simple_types@U?$pair@$$CBH_N@std@@@std@@@std@@@std@@QBE_NABV01@@Z PROC ; std::_Tree_const_iterator<std::_Tree_val<std::_Tree_simple_types<std::pair<int const ,bool> > > >::operator==, COMDAT
; _this$ = ecx

; 227  :     _NODISCARD bool operator==(const _Tree_const_iterator& _Right) const {

  00000	55		 push	 ebp
  00001	8b ec		 mov	 ebp, esp
  00003	83 ec 48	 sub	 esp, 72			; 00000048H
  00006	53		 push	 ebx
  00007	56		 push	 esi
  00008	57		 push	 edi
  00009	89 4d fc	 mov	 DWORD PTR _this$[ebp], ecx

; 228  : #if _ITERATOR_DEBUG_LEVEL == 2
; 229  :         _STL_VERIFY(this->_Getcont() == _Right._Getcont(), "map/set iterators incompatible");
; 230  : #endif // _ITERATOR_DEBUG_LEVEL == 2
; 231  : 
; 232  :         return this->_Ptr == _Right._Ptr;

  0000c	8b 45 fc	 mov	 eax, DWORD PTR _this$[ebp]
  0000f	8b 4d 08	 mov	 ecx, DWORD PTR __Right$[ebp]
  00012	8b 10		 mov	 edx, DWORD PTR [eax]
  00014	3b 11		 cmp	 edx, DWORD PTR [ecx]
  00016	75 09		 jne	 SHORT $LN3@operator
  00018	c7 45 b8 01 00
	00 00		 mov	 DWORD PTR tv75[ebp], 1
  0001f	eb 07		 jmp	 SHORT $LN4@operator
$LN3@operator:
  00021	c7 45 b8 00 00
	00 00		 mov	 DWORD PTR tv75[ebp], 0
$LN4@operator:
  00028	8a 45 b8	 mov	 al, BYTE PTR tv75[ebp]

; 233  :     }

  0002b	5f		 pop	 edi
  0002c	5e		 pop	 esi
  0002d	5b		 pop	 ebx
  0002e	8b e5		 mov	 esp, ebp
  00030	5d		 pop	 ebp
  00031	c2 04 00	 ret	 4
??8?$_Tree_const_iterator@V?$_Tree_val@U?$_Tree_simple_types@U?$pair@$$CBH_N@std@@@std@@@std@@@std@@QBE_NABV01@@Z ENDP ; std::_Tree_const_iterator<std::_Tree_val<std::_Tree_simple_types<std::pair<int const ,bool> > > >::operator==
_TEXT	ENDS
; Function compile flags: /Odtp /ZI
; File C:\Program Files (x86)\Microsoft Visual Studio\2019\Community\VC\Tools\MSVC\14.27.29110\include\xtree
;	COMDAT ??D?$_Tree_const_iterator@V?$_Tree_val@U?$_Tree_simple_types@U?$pair@$$CBH_N@std@@@std@@@std@@@std@@QBEABU?$pair@$$CBH_N@1@XZ
_TEXT	SEGMENT
_this$ = -4						; size = 4
??D?$_Tree_const_iterator@V?$_Tree_val@U?$_Tree_simple_types@U?$pair@$$CBH_N@std@@@std@@@std@@@std@@QBEABU?$pair@$$CBH_N@1@XZ PROC ; std::_Tree_const_iterator<std::_Tree_val<std::_Tree_simple_types<std::pair<int const ,bool> > > >::operator*, COMDAT
; _this$ = ecx

; 178  :     _NODISCARD reference operator*() const {

  00000	55		 push	 ebp
  00001	8b ec		 mov	 ebp, esp
  00003	83 ec 44	 sub	 esp, 68			; 00000044H
  00006	53		 push	 ebx
  00007	56		 push	 esi
  00008	57		 push	 edi
  00009	89 4d fc	 mov	 DWORD PTR _this$[ebp], ecx

; 179  : #if _ITERATOR_DEBUG_LEVEL == 2
; 180  :         const auto _Mycont = static_cast<const _Mytree*>(this->_Getcont());
; 181  :         _STL_ASSERT(_Mycont, "cannot dereference value-initialized map/set iterator");
; 182  :         _STL_VERIFY(this->_Ptr != _Mycont->_Myhead, "cannot dereference end map/set iterator");
; 183  : #endif // _ITERATOR_DEBUG_LEVEL == 2
; 184  : 
; 185  :         return this->_Ptr->_Myval;

  0000c	8b 45 fc	 mov	 eax, DWORD PTR _this$[ebp]
  0000f	8b 00		 mov	 eax, DWORD PTR [eax]
  00011	83 c0 10	 add	 eax, 16			; 00000010H

; 186  :     }

  00014	5f		 pop	 edi
  00015	5e		 pop	 esi
  00016	5b		 pop	 ebx
  00017	8b e5		 mov	 esp, ebp
  00019	5d		 pop	 ebp
  0001a	c3		 ret	 0
??D?$_Tree_const_iterator@V?$_Tree_val@U?$_Tree_simple_types@U?$pair@$$CBH_N@std@@@std@@@std@@@std@@QBEABU?$pair@$$CBH_N@1@XZ ENDP ; std::_Tree_const_iterator<std::_Tree_val<std::_Tree_simple_types<std::pair<int const ,bool> > > >::operator*
_TEXT	ENDS
; Function compile flags: /Odtp /ZI
; File C:\Program Files (x86)\Microsoft Visual Studio\2019\Community\VC\Tools\MSVC\14.27.29110\include\xtree
;	COMDAT ??0?$_Tree_unchecked_const_iterator@V?$_Tree_val@U?$_Tree_simple_types@U?$pair@$$CBH_N@std@@@std@@@std@@U_Iterator_base0@2@@std@@QAE@PAU?$_Tree_node@U?$pair@$$CBH_N@std@@PAX@1@PBV?$_Tree_val@U?$_Tree_simple_types@U?$pair@$$CBH_N@std@@@std@@@1@@Z
_TEXT	SEGMENT
_this$ = -4						; size = 4
__Pnode$ = 8						; size = 4
__Plist$ = 12						; size = 4
??0?$_Tree_unchecked_const_iterator@V?$_Tree_val@U?$_Tree_simple_types@U?$pair@$$CBH_N@std@@@std@@@std@@U_Iterator_base0@2@@std@@QAE@PAU?$_Tree_node@U?$pair@$$CBH_N@std@@PAX@1@PBV?$_Tree_val@U?$_Tree_simple_types@U?$pair@$$CBH_N@std@@@std@@@1@@Z PROC ; std::_Tree_unchecked_const_iterator<std::_Tree_val<std::_Tree_simple_types<std::pair<int const ,bool> > >,std::_Iterator_base0>::_Tree_unchecked_const_iterator<std::_Tree_val<std::_Tree_simple_types<std::pair<int const ,bool> > >,std::_Iterator_base0>, COMDAT
; _this$ = ecx

; 39   :     _Tree_unchecked_const_iterator(_Nodeptr _Pnode, const _Mytree* _Plist) noexcept : _Ptr(_Pnode) {

  00000	55		 push	 ebp
  00001	8b ec		 mov	 ebp, esp
  00003	83 ec 44	 sub	 esp, 68			; 00000044H
  00006	53		 push	 ebx
  00007	56		 push	 esi
  00008	57		 push	 edi
  00009	89 4d fc	 mov	 DWORD PTR _this$[ebp], ecx
  0000c	8b 45 fc	 mov	 eax, DWORD PTR _this$[ebp]
  0000f	8b 4d 08	 mov	 ecx, DWORD PTR __Pnode$[ebp]
  00012	89 08		 mov	 DWORD PTR [eax], ecx

; 40   :         this->_Adopt(_Plist);

  00014	8b 45 0c	 mov	 eax, DWORD PTR __Plist$[ebp]
  00017	50		 push	 eax
  00018	8b 4d fc	 mov	 ecx, DWORD PTR _this$[ebp]
  0001b	e8 00 00 00 00	 call	 ?_Adopt@_Iterator_base0@std@@QAEXPBX@Z ; std::_Iterator_base0::_Adopt

; 41   :     }

  00020	8b 45 fc	 mov	 eax, DWORD PTR _this$[ebp]
  00023	5f		 pop	 edi
  00024	5e		 pop	 esi
  00025	5b		 pop	 ebx
  00026	8b e5		 mov	 esp, ebp
  00028	5d		 pop	 ebp
  00029	c2 08 00	 ret	 8
??0?$_Tree_unchecked_const_iterator@V?$_Tree_val@U?$_Tree_simple_types@U?$pair@$$CBH_N@std@@@std@@@std@@U_Iterator_base0@2@@std@@QAE@PAU?$_Tree_node@U?$pair@$$CBH_N@std@@PAX@1@PBV?$_Tree_val@U?$_Tree_simple_types@U?$pair@$$CBH_N@std@@@std@@@1@@Z ENDP ; std::_Tree_unchecked_const_iterator<std::_Tree_val<std::_Tree_simple_types<std::pair<int const ,bool> > >,std::_Iterator_base0>::_Tree_unchecked_const_iterator<std::_Tree_val<std::_Tree_simple_types<std::pair<int const ,bool> > >,std::_Iterator_base0>
_TEXT	ENDS
; Function compile flags: /Odtp /ZI
; File C:\Program Files (x86)\Microsoft Visual Studio\2019\Community\VC\Tools\MSVC\14.27.29110\include\map
;	COMDAT ??$insert@U?$pair@H_N@std@@$0A@@?$map@H_NU?$less@H@std@@V?$allocator@U?$pair@$$CBH_N@std@@@2@@std@@QAE?AU?$pair@V?$_Tree_iterator@V?$_Tree_val@U?$_Tree_simple_types@U?$pair@$$CBH_N@std@@@std@@@std@@@std@@_N@1@$$QAU?$pair@H_N@1@@Z
_TEXT	SEGMENT
_this$ = -4						; size = 4
___$ReturnUdt$ = 8					; size = 4
__Val$ = 12						; size = 4
??$insert@U?$pair@H_N@std@@$0A@@?$map@H_NU?$less@H@std@@V?$allocator@U?$pair@$$CBH_N@std@@@2@@std@@QAE?AU?$pair@V?$_Tree_iterator@V?$_Tree_val@U?$_Tree_simple_types@U?$pair@$$CBH_N@std@@@std@@@std@@@std@@_N@1@$$QAU?$pair@H_N@1@@Z PROC ; std::map<int,bool,std::less<int>,std::allocator<std::pair<int const ,bool> > >::insert<std::pair<int,bool>,0>, COMDAT
; _this$ = ecx

; 164  :     pair<iterator, bool> insert(_Valty&& _Val) {

  00000	55		 push	 ebp
  00001	8b ec		 mov	 ebp, esp
  00003	83 ec 44	 sub	 esp, 68			; 00000044H
  00006	53		 push	 ebx
  00007	56		 push	 esi
  00008	57		 push	 edi
  00009	89 4d fc	 mov	 DWORD PTR _this$[ebp], ecx

; 165  :         return this->emplace(_STD forward<_Valty>(_Val));

  0000c	8b 45 0c	 mov	 eax, DWORD PTR __Val$[ebp]
  0000f	50		 push	 eax
  00010	e8 00 00 00 00	 call	 ??$forward@U?$pair@H_N@std@@@std@@YA$$QAU?$pair@H_N@0@AAU10@@Z ; std::forward<std::pair<int,bool> >
  00015	83 c4 04	 add	 esp, 4
  00018	50		 push	 eax
  00019	8b 4d 08	 mov	 ecx, DWORD PTR ___$ReturnUdt$[ebp]
  0001c	51		 push	 ecx
  0001d	8b 4d fc	 mov	 ecx, DWORD PTR _this$[ebp]
  00020	e8 00 00 00 00	 call	 ??$emplace@U?$pair@H_N@std@@@?$_Tree@V?$_Tmap_traits@H_NU?$less@H@std@@V?$allocator@U?$pair@$$CBH_N@std@@@2@$0A@@std@@@std@@QAE?AU?$pair@V?$_Tree_iterator@V?$_Tree_val@U?$_Tree_simple_types@U?$pair@$$CBH_N@std@@@std@@@std@@@std@@_N@1@$$QAU?$pair@H_N@1@@Z ; std::_Tree<std::_Tmap_traits<int,bool,std::less<int>,std::allocator<std::pair<int const ,bool> >,0> >::emplace<std::pair<int,bool> >
  00025	8b 45 08	 mov	 eax, DWORD PTR ___$ReturnUdt$[ebp]

; 166  :     }

  00028	5f		 pop	 edi
  00029	5e		 pop	 esi
  0002a	5b		 pop	 ebx
  0002b	8b e5		 mov	 esp, ebp
  0002d	5d		 pop	 ebp
  0002e	c2 08 00	 ret	 8
??$insert@U?$pair@H_N@std@@$0A@@?$map@H_NU?$less@H@std@@V?$allocator@U?$pair@$$CBH_N@std@@@2@@std@@QAE?AU?$pair@V?$_Tree_iterator@V?$_Tree_val@U?$_Tree_simple_types@U?$pair@$$CBH_N@std@@@std@@@std@@@std@@_N@1@$$QAU?$pair@H_N@1@@Z ENDP ; std::map<int,bool,std::less<int>,std::allocator<std::pair<int const ,bool> > >::insert<std::pair<int,bool>,0>
_TEXT	ENDS
; Function compile flags: /Odtp /ZI
; File C:\Program Files (x86)\Microsoft Visual Studio\2019\Community\VC\Tools\MSVC\14.27.29110\include\utility
;	COMDAT ??$?0H_N$0A@@?$pair@$$CBH_N@std@@QAE@$$QAU?$pair@H_N@1@@Z
_TEXT	SEGMENT
_this$ = -4						; size = 4
__Right$ = 8						; size = 4
??$?0H_N$0A@@?$pair@$$CBH_N@std@@QAE@$$QAU?$pair@H_N@1@@Z PROC ; std::pair<int const ,bool>::pair<int const ,bool><int,bool,0>, COMDAT
; _this$ = ecx

; 248  :         : first(_STD forward<_Other1>(_Right.first)), second(_STD forward<_Other2>(_Right.second)) {}

  00000	55		 push	 ebp
  00001	8b ec		 mov	 ebp, esp
  00003	83 ec 44	 sub	 esp, 68			; 00000044H
  00006	53		 push	 ebx
  00007	56		 push	 esi
  00008	57		 push	 edi
  00009	89 4d fc	 mov	 DWORD PTR _this$[ebp], ecx
  0000c	8b 45 08	 mov	 eax, DWORD PTR __Right$[ebp]
  0000f	50		 push	 eax
  00010	e8 00 00 00 00	 call	 ??$forward@H@std@@YA$$QAHAAH@Z ; std::forward<int>
  00015	83 c4 04	 add	 esp, 4
  00018	8b 4d fc	 mov	 ecx, DWORD PTR _this$[ebp]
  0001b	8b 10		 mov	 edx, DWORD PTR [eax]
  0001d	89 11		 mov	 DWORD PTR [ecx], edx
  0001f	8b 45 08	 mov	 eax, DWORD PTR __Right$[ebp]
  00022	83 c0 04	 add	 eax, 4
  00025	50		 push	 eax
  00026	e8 00 00 00 00	 call	 ??$forward@_N@std@@YA$$QA_NAA_N@Z ; std::forward<bool>
  0002b	83 c4 04	 add	 esp, 4
  0002e	8b 4d fc	 mov	 ecx, DWORD PTR _this$[ebp]
  00031	8a 10		 mov	 dl, BYTE PTR [eax]
  00033	88 51 04	 mov	 BYTE PTR [ecx+4], dl
  00036	8b 45 fc	 mov	 eax, DWORD PTR _this$[ebp]
  00039	5f		 pop	 edi
  0003a	5e		 pop	 esi
  0003b	5b		 pop	 ebx
  0003c	8b e5		 mov	 esp, ebp
  0003e	5d		 pop	 ebp
  0003f	c2 04 00	 ret	 4
??$?0H_N$0A@@?$pair@$$CBH_N@std@@QAE@$$QAU?$pair@H_N@1@@Z ENDP ; std::pair<int const ,bool>::pair<int const ,bool><int,bool,0>
_TEXT	ENDS
; Function compile flags: /Odtp /ZI
; File C:\Program Files (x86)\Microsoft Visual Studio\2019\Community\VC\Tools\MSVC\14.27.29110\include\utility
;	COMDAT ??$make_pair@AAH_N@std@@YA?AU?$pair@H_N@0@AAH$$QA_N@Z
_TEXT	SEGMENT
___$ReturnUdt$ = 8					; size = 4
__Val1$ = 12						; size = 4
__Val2$ = 16						; size = 4
??$make_pair@AAH_N@std@@YA?AU?$pair@H_N@0@AAH$$QA_N@Z PROC ; std::make_pair<int &,bool>, COMDAT

; 389  :         is_nothrow_constructible_v<_Unrefwrap_t<_Ty2>, _Ty2>) /* strengthened */ {

  00000	55		 push	 ebp
  00001	8b ec		 mov	 ebp, esp
  00003	83 ec 40	 sub	 esp, 64			; 00000040H
  00006	53		 push	 ebx
  00007	56		 push	 esi
  00008	57		 push	 edi

; 390  :     // return pair composed from arguments
; 391  :     using _Mypair = pair<_Unrefwrap_t<_Ty1>, _Unrefwrap_t<_Ty2>>;
; 392  :     return _Mypair(_STD forward<_Ty1>(_Val1), _STD forward<_Ty2>(_Val2));

  00009	8b 45 10	 mov	 eax, DWORD PTR __Val2$[ebp]
  0000c	50		 push	 eax
  0000d	e8 00 00 00 00	 call	 ??$forward@_N@std@@YA$$QA_NAA_N@Z ; std::forward<bool>
  00012	83 c4 04	 add	 esp, 4
  00015	50		 push	 eax
  00016	8b 4d 0c	 mov	 ecx, DWORD PTR __Val1$[ebp]
  00019	51		 push	 ecx
  0001a	e8 00 00 00 00	 call	 ??$forward@AAH@std@@YAAAHAAH@Z ; std::forward<int &>
  0001f	83 c4 04	 add	 esp, 4
  00022	50		 push	 eax
  00023	8b 4d 08	 mov	 ecx, DWORD PTR ___$ReturnUdt$[ebp]
  00026	e8 00 00 00 00	 call	 ??$?0AAH_N$0A@@?$pair@H_N@std@@QAE@AAH$$QA_N@Z ; std::pair<int,bool>::pair<int,bool><int &,bool,0>
  0002b	8b 45 08	 mov	 eax, DWORD PTR ___$ReturnUdt$[ebp]

; 393  : }

  0002e	5f		 pop	 edi
  0002f	5e		 pop	 esi
  00030	5b		 pop	 ebx
  00031	8b e5		 mov	 esp, ebp
  00033	5d		 pop	 ebp
  00034	c3		 ret	 0
??$make_pair@AAH_N@std@@YA?AU?$pair@H_N@0@AAH$$QA_N@Z ENDP ; std::make_pair<int &,bool>
_TEXT	ENDS
; Function compile flags: /Odtp /ZI
;	COMDAT ??__Fg_ArrowSystem@@YAXXZ
text$yd	SEGMENT
??__Fg_ArrowSystem@@YAXXZ PROC				; `dynamic atexit destructor for 'g_ArrowSystem'', COMDAT
  00000	55		 push	 ebp
  00001	8b ec		 mov	 ebp, esp
  00003	83 ec 40	 sub	 esp, 64			; 00000040H
  00006	53		 push	 ebx
  00007	56		 push	 esi
  00008	57		 push	 edi
  00009	b9 00 00 00 00	 mov	 ecx, OFFSET ?g_ArrowSystem@@3VCArrowSystem@@A ; g_ArrowSystem
  0000e	e8 00 00 00 00	 call	 ??1CArrowSystem@@QAE@XZ	; CArrowSystem::~CArrowSystem
  00013	5f		 pop	 edi
  00014	5e		 pop	 esi
  00015	5b		 pop	 ebx
  00016	8b e5		 mov	 esp, ebp
  00018	5d		 pop	 ebp
  00019	c3		 ret	 0
??__Fg_ArrowSystem@@YAXXZ ENDP				; `dynamic atexit destructor for 'g_ArrowSystem''
text$yd	ENDS
; Function compile flags: /Odtp /ZI
; File C:\Mu Online\Mu-GS-Webzen-MC-10093\GameServer\ArrowSystem.cpp
;	COMDAT ??__Eg_ArrowSystem@@YAXXZ
text$di	SEGMENT
??__Eg_ArrowSystem@@YAXXZ PROC				; `dynamic initializer for 'g_ArrowSystem'', COMDAT

; 5    : CArrowSystem g_ArrowSystem;

  00000	55		 push	 ebp
  00001	8b ec		 mov	 ebp, esp
  00003	83 ec 40	 sub	 esp, 64			; 00000040H
  00006	53		 push	 ebx
  00007	56		 push	 esi
  00008	57		 push	 edi
  00009	b9 00 00 00 00	 mov	 ecx, OFFSET ?g_ArrowSystem@@3VCArrowSystem@@A ; g_ArrowSystem
  0000e	e8 00 00 00 00	 call	 ??0CArrowSystem@@QAE@XZ	; CArrowSystem::CArrowSystem
  00013	68 00 00 00 00	 push	 OFFSET ??__Fg_ArrowSystem@@YAXXZ ; `dynamic atexit destructor for 'g_ArrowSystem''
  00018	e8 00 00 00 00	 call	 _atexit
  0001d	83 c4 04	 add	 esp, 4
  00020	5f		 pop	 edi
  00021	5e		 pop	 esi
  00022	5b		 pop	 ebx
  00023	8b e5		 mov	 esp, ebp
  00025	5d		 pop	 ebp
  00026	c3		 ret	 0
??__Eg_ArrowSystem@@YAXXZ ENDP				; `dynamic initializer for 'g_ArrowSystem''
text$di	ENDS
; Function compile flags: /Odtp /ZI
; File C:\Mu Online\Mu-GS-Webzen-MC-10093\include\readscript.h
;	COMDAT ?GetToken@@YA?AW4SMDToken@@XZ
_TEXT	SEGMENT
tv93 = -184						; size = 4
$T1 = -180						; size = 4
_TempString$ = -112					; size = 100
_p$ = -12						; size = 4
_ch$ = -5						; size = 1
__$ArrayPad$ = -4					; size = 4
?GetToken@@YA?AW4SMDToken@@XZ PROC			; GetToken, COMDAT

; 25   : {

  00000	55		 push	 ebp
  00001	8b ec		 mov	 ebp, esp
  00003	81 ec b8 00 00
	00		 sub	 esp, 184		; 000000b8H
  00009	a1 00 00 00 00	 mov	 eax, DWORD PTR ___security_cookie
  0000e	33 c5		 xor	 eax, ebp
  00010	89 45 fc	 mov	 DWORD PTR __$ArrayPad$[ebp], eax
  00013	53		 push	 ebx
  00014	56		 push	 esi
  00015	57		 push	 edi

; 26   : 	unsigned char ch;
; 27   : 	TokenString[0] = '\0';

  00016	b8 01 00 00 00	 mov	 eax, 1
  0001b	6b c8 00	 imul	 ecx, eax, 0
  0001e	89 8d 4c ff ff
	ff		 mov	 DWORD PTR $T1[ebp], ecx
  00024	83 bd 4c ff ff
	ff 64		 cmp	 DWORD PTR $T1[ebp], 100	; 00000064H
  0002b	73 02		 jae	 SHORT $LN31@GetToken
  0002d	eb 05		 jmp	 SHORT $LN32@GetToken
$LN31@GetToken:
  0002f	e8 00 00 00 00	 call	 ___report_rangecheckfailure
$LN32@GetToken:
  00034	8b 95 4c ff ff
	ff		 mov	 edx, DWORD PTR $T1[ebp]
  0003a	c6 82 00 00 00
	00 00		 mov	 BYTE PTR ?TokenString@@3PADA[edx], 0
$LN4@GetToken:

; 28   : 	do
; 29   : 	{
; 30   : 		if ( (ch =(unsigned char) fgetc(SMDFile)) == (BYTE)EOF) return END;

  00041	a1 00 00 00 00	 mov	 eax, DWORD PTR ?SMDFile@@3PAU_iobuf@@A
  00046	50		 push	 eax
  00047	e8 00 00 00 00	 call	 _fgetc
  0004c	83 c4 04	 add	 esp, 4
  0004f	88 45 fb	 mov	 BYTE PTR _ch$[ebp], al
  00052	0f b6 4d fb	 movzx	 ecx, BYTE PTR _ch$[ebp]
  00056	81 f9 ff 00 00
	00		 cmp	 ecx, 255		; 000000ffH
  0005c	75 0a		 jne	 SHORT $LN15@GetToken
  0005e	b8 02 00 00 00	 mov	 eax, 2
  00063	e9 d9 02 00 00	 jmp	 $LN7@GetToken
$LN15@GetToken:

; 31   : 		if (ch=='/' && (ch =(unsigned char) fgetc(SMDFile) )=='/')	

  00068	0f b6 45 fb	 movzx	 eax, BYTE PTR _ch$[ebp]
  0006c	83 f8 2f	 cmp	 eax, 47			; 0000002fH
  0006f	75 56		 jne	 SHORT $LN17@GetToken
  00071	a1 00 00 00 00	 mov	 eax, DWORD PTR ?SMDFile@@3PAU_iobuf@@A
  00076	50		 push	 eax
  00077	e8 00 00 00 00	 call	 _fgetc
  0007c	83 c4 04	 add	 esp, 4
  0007f	88 45 fb	 mov	 BYTE PTR _ch$[ebp], al
  00082	0f b6 4d fb	 movzx	 ecx, BYTE PTR _ch$[ebp]
  00086	83 f9 2f	 cmp	 ecx, 47			; 0000002fH
  00089	75 3c		 jne	 SHORT $LN17@GetToken
$LN5@GetToken:

; 32   : 		{
; 33   : 			while((ch != '\n') && (ch != (BYTE)EOF)) {			// 2003.09.02 H.J.I 

  0008b	0f b6 45 fb	 movzx	 eax, BYTE PTR _ch$[ebp]
  0008f	83 f8 0a	 cmp	 eax, 10			; 0000000aH
  00092	74 1e		 je	 SHORT $LN6@GetToken
  00094	0f b6 45 fb	 movzx	 eax, BYTE PTR _ch$[ebp]
  00098	3d ff 00 00 00	 cmp	 eax, 255		; 000000ffH
  0009d	74 13		 je	 SHORT $LN6@GetToken

; 34   : 				ch = (unsigned char) fgetc( SMDFile);

  0009f	a1 00 00 00 00	 mov	 eax, DWORD PTR ?SMDFile@@3PAU_iobuf@@A
  000a4	50		 push	 eax
  000a5	e8 00 00 00 00	 call	 _fgetc
  000aa	83 c4 04	 add	 esp, 4
  000ad	88 45 fb	 mov	 BYTE PTR _ch$[ebp], al

; 35   : 			}

  000b0	eb d9		 jmp	 SHORT $LN5@GetToken
$LN6@GetToken:

; 36   : 
; 37   : 			if (ch == (BYTE)EOF)

  000b2	0f b6 45 fb	 movzx	 eax, BYTE PTR _ch$[ebp]
  000b6	3d ff 00 00 00	 cmp	 eax, 255		; 000000ffH
  000bb	75 0a		 jne	 SHORT $LN17@GetToken

; 38   : 				return END;

  000bd	b8 02 00 00 00	 mov	 eax, 2
  000c2	e9 7a 02 00 00	 jmp	 $LN7@GetToken
$LN17@GetToken:

; 39   : 		}
; 40   : 	} while(  isspace(ch) );

  000c7	0f b6 45 fb	 movzx	 eax, BYTE PTR _ch$[ebp]
  000cb	50		 push	 eax
  000cc	e8 00 00 00 00	 call	 _isspace
  000d1	83 c4 04	 add	 esp, 4
  000d4	85 c0		 test	 eax, eax
  000d6	0f 85 65 ff ff
	ff		 jne	 $LN4@GetToken

; 41   : 	
; 42   : 	char *p, TempString[100];
; 43   : 	switch(ch)

  000dc	0f b6 45 fb	 movzx	 eax, BYTE PTR _ch$[ebp]
  000e0	89 85 48 ff ff
	ff		 mov	 DWORD PTR tv93[ebp], eax
  000e6	8b 8d 48 ff ff
	ff		 mov	 ecx, DWORD PTR tv93[ebp]
  000ec	83 e9 22	 sub	 ecx, 34			; 00000022H
  000ef	89 8d 48 ff ff
	ff		 mov	 DWORD PTR tv93[ebp], ecx
  000f5	83 bd 48 ff ff
	ff 5b		 cmp	 DWORD PTR tv93[ebp], 91	; 0000005bH
  000fc	0f 87 86 01 00
	00		 ja	 $LN27@GetToken
  00102	8b 95 48 ff ff
	ff		 mov	 edx, DWORD PTR tv93[ebp]
  00108	0f b6 82 00 00
	00 00		 movzx	 eax, BYTE PTR $LN33@GetToken[edx]
  0010f	ff 24 85 00 00
	00 00		 jmp	 DWORD PTR $LN34@GetToken[eax*4]
$LN18@GetToken:

; 44   : 	{	
; 45   : 	case '#':
; 46   : 		return CurrentToken = COMMAND;

  00116	c7 05 00 00 00
	00 23 00 00 00	 mov	 DWORD PTR ?CurrentToken@@3W4SMDToken@@A, 35 ; 00000023H
  00120	a1 00 00 00 00	 mov	 eax, DWORD PTR ?CurrentToken@@3W4SMDToken@@A
  00125	e9 17 02 00 00	 jmp	 $LN7@GetToken
$LN19@GetToken:

; 47   : 	case ';':
; 48   : 		return CurrentToken = SEMICOLON;

  0012a	c7 05 00 00 00
	00 3b 00 00 00	 mov	 DWORD PTR ?CurrentToken@@3W4SMDToken@@A, 59 ; 0000003bH
  00134	a1 00 00 00 00	 mov	 eax, DWORD PTR ?CurrentToken@@3W4SMDToken@@A
  00139	e9 03 02 00 00	 jmp	 $LN7@GetToken
$LN20@GetToken:

; 49   : 	case ',':
; 50   : 		return CurrentToken = COMMA;

  0013e	c7 05 00 00 00
	00 2c 00 00 00	 mov	 DWORD PTR ?CurrentToken@@3W4SMDToken@@A, 44 ; 0000002cH
  00148	a1 00 00 00 00	 mov	 eax, DWORD PTR ?CurrentToken@@3W4SMDToken@@A
  0014d	e9 ef 01 00 00	 jmp	 $LN7@GetToken
$LN21@GetToken:

; 51   : 	case '{':
; 52   : 		return CurrentToken = LP;

  00152	c7 05 00 00 00
	00 7b 00 00 00	 mov	 DWORD PTR ?CurrentToken@@3W4SMDToken@@A, 123 ; 0000007bH
  0015c	a1 00 00 00 00	 mov	 eax, DWORD PTR ?CurrentToken@@3W4SMDToken@@A
  00161	e9 db 01 00 00	 jmp	 $LN7@GetToken
$LN22@GetToken:

; 53   : 	case '}':
; 54   : 		return CurrentToken = RP;

  00166	c7 05 00 00 00
	00 7d 00 00 00	 mov	 DWORD PTR ?CurrentToken@@3W4SMDToken@@A, 125 ; 0000007dH
  00170	a1 00 00 00 00	 mov	 eax, DWORD PTR ?CurrentToken@@3W4SMDToken@@A
  00175	e9 c7 01 00 00	 jmp	 $LN7@GetToken
$LN23@GetToken:

; 55   : 	case '0':	case '1':	case '2':	case '3':	case '4':
; 56   : 	case '5':	case '6':	case '7':	case '8':	case '9':
; 57   : 	case '.':	case '-':
; 58   : 		ungetc(ch,SMDFile);

  0017a	a1 00 00 00 00	 mov	 eax, DWORD PTR ?SMDFile@@3PAU_iobuf@@A
  0017f	50		 push	 eax
  00180	0f b6 4d fb	 movzx	 ecx, BYTE PTR _ch$[ebp]
  00184	51		 push	 ecx
  00185	e8 00 00 00 00	 call	 _ungetc
  0018a	83 c4 08	 add	 esp, 8

; 59   : 		p = TempString;

  0018d	8d 45 90	 lea	 eax, DWORD PTR _TempString$[ebp]
  00190	89 45 f4	 mov	 DWORD PTR _p$[ebp], eax
$LN9@GetToken:

; 60   : 		while ( (  (ch = getc(SMDFile) ) !=(BYTE)EOF) && (ch=='.' || isdigit(ch) || ch=='-') )

  00193	a1 00 00 00 00	 mov	 eax, DWORD PTR ?SMDFile@@3PAU_iobuf@@A
  00198	50		 push	 eax
  00199	e8 00 00 00 00	 call	 _getc
  0019e	83 c4 04	 add	 esp, 4
  001a1	88 45 fb	 mov	 BYTE PTR _ch$[ebp], al
  001a4	0f b6 4d fb	 movzx	 ecx, BYTE PTR _ch$[ebp]
  001a8	81 f9 ff 00 00
	00		 cmp	 ecx, 255		; 000000ffH
  001ae	74 36		 je	 SHORT $LN10@GetToken
  001b0	0f b6 45 fb	 movzx	 eax, BYTE PTR _ch$[ebp]
  001b4	83 f8 2e	 cmp	 eax, 46			; 0000002eH
  001b7	74 1a		 je	 SHORT $LN24@GetToken
  001b9	0f b6 45 fb	 movzx	 eax, BYTE PTR _ch$[ebp]
  001bd	50		 push	 eax
  001be	e8 00 00 00 00	 call	 _isdigit
  001c3	83 c4 04	 add	 esp, 4
  001c6	85 c0		 test	 eax, eax
  001c8	75 09		 jne	 SHORT $LN24@GetToken
  001ca	0f b6 45 fb	 movzx	 eax, BYTE PTR _ch$[ebp]
  001ce	83 f8 2d	 cmp	 eax, 45			; 0000002dH
  001d1	75 13		 jne	 SHORT $LN10@GetToken
$LN24@GetToken:

; 61   : 			*p++ = ch;

  001d3	8b 45 f4	 mov	 eax, DWORD PTR _p$[ebp]
  001d6	8a 4d fb	 mov	 cl, BYTE PTR _ch$[ebp]
  001d9	88 08		 mov	 BYTE PTR [eax], cl
  001db	8b 55 f4	 mov	 edx, DWORD PTR _p$[ebp]
  001de	83 c2 01	 add	 edx, 1
  001e1	89 55 f4	 mov	 DWORD PTR _p$[ebp], edx
  001e4	eb ad		 jmp	 SHORT $LN9@GetToken
$LN10@GetToken:

; 62   : 		*p = 0;

  001e6	8b 45 f4	 mov	 eax, DWORD PTR _p$[ebp]
  001e9	c6 00 00	 mov	 BYTE PTR [eax], 0

; 63   : 		TokenNumber = (float)atof(TempString);

  001ec	8d 45 90	 lea	 eax, DWORD PTR _TempString$[ebp]
  001ef	50		 push	 eax
  001f0	e8 00 00 00 00	 call	 _atof
  001f5	83 c4 04	 add	 esp, 4
  001f8	d9 1d 00 00 00
	00		 fstp	 DWORD PTR ?TokenNumber@@3MA

; 64   : 		//			sscanf(TempString," %f ",&TokenNumber);
; 65   : 		return CurrentToken = NUMBER;

  001fe	c7 05 00 00 00
	00 01 00 00 00	 mov	 DWORD PTR ?CurrentToken@@3W4SMDToken@@A, 1
  00208	a1 00 00 00 00	 mov	 eax, DWORD PTR ?CurrentToken@@3W4SMDToken@@A
  0020d	e9 2f 01 00 00	 jmp	 $LN7@GetToken
$LN25@GetToken:

; 66   : 	case '"':
; 67   : 		p = TokenString;

  00212	c7 45 f4 00 00
	00 00		 mov	 DWORD PTR _p$[ebp], OFFSET ?TokenString@@3PADA
$LN11@GetToken:

; 68   : 		while ( (  (ch = getc(SMDFile) ) !=(BYTE)EOF) && (ch!='"'))// || isalnum(ch)) )

  00219	a1 00 00 00 00	 mov	 eax, DWORD PTR ?SMDFile@@3PAU_iobuf@@A
  0021e	50		 push	 eax
  0021f	e8 00 00 00 00	 call	 _getc
  00224	83 c4 04	 add	 esp, 4
  00227	88 45 fb	 mov	 BYTE PTR _ch$[ebp], al
  0022a	0f b6 4d fb	 movzx	 ecx, BYTE PTR _ch$[ebp]
  0022e	81 f9 ff 00 00
	00		 cmp	 ecx, 255		; 000000ffH
  00234	74 1c		 je	 SHORT $LN12@GetToken
  00236	0f b6 45 fb	 movzx	 eax, BYTE PTR _ch$[ebp]
  0023a	83 f8 22	 cmp	 eax, 34			; 00000022H
  0023d	74 13		 je	 SHORT $LN12@GetToken

; 69   : 			*p++ = ch;

  0023f	8b 45 f4	 mov	 eax, DWORD PTR _p$[ebp]
  00242	8a 4d fb	 mov	 cl, BYTE PTR _ch$[ebp]
  00245	88 08		 mov	 BYTE PTR [eax], cl
  00247	8b 55 f4	 mov	 edx, DWORD PTR _p$[ebp]
  0024a	83 c2 01	 add	 edx, 1
  0024d	89 55 f4	 mov	 DWORD PTR _p$[ebp], edx
  00250	eb c7		 jmp	 SHORT $LN11@GetToken
$LN12@GetToken:

; 70   : 		if (ch!='"')

  00252	0f b6 45 fb	 movzx	 eax, BYTE PTR _ch$[ebp]
  00256	83 f8 22	 cmp	 eax, 34			; 00000022H
  00259	74 13		 je	 SHORT $LN26@GetToken

; 71   : 			ungetc(ch,SMDFile);

  0025b	a1 00 00 00 00	 mov	 eax, DWORD PTR ?SMDFile@@3PAU_iobuf@@A
  00260	50		 push	 eax
  00261	0f b6 4d fb	 movzx	 ecx, BYTE PTR _ch$[ebp]
  00265	51		 push	 ecx
  00266	e8 00 00 00 00	 call	 _ungetc
  0026b	83 c4 08	 add	 esp, 8
$LN26@GetToken:

; 72   : 		*p = 0;

  0026e	8b 45 f4	 mov	 eax, DWORD PTR _p$[ebp]
  00271	c6 00 00	 mov	 BYTE PTR [eax], 0

; 73   : 		return CurrentToken = NAME;

  00274	c7 05 00 00 00
	00 00 00 00 00	 mov	 DWORD PTR ?CurrentToken@@3W4SMDToken@@A, 0
  0027e	a1 00 00 00 00	 mov	 eax, DWORD PTR ?CurrentToken@@3W4SMDToken@@A
  00283	e9 b9 00 00 00	 jmp	 $LN7@GetToken
$LN27@GetToken:

; 74   : 	default:
; 75   : 		if (isalpha(ch))	

  00288	0f b6 45 fb	 movzx	 eax, BYTE PTR _ch$[ebp]
  0028c	50		 push	 eax
  0028d	e8 00 00 00 00	 call	 _isalpha
  00292	83 c4 04	 add	 esp, 4
  00295	85 c0		 test	 eax, eax
  00297	0f 84 95 00 00
	00		 je	 $LN28@GetToken

; 76   : 		{
; 77   : 			p = TokenString;

  0029d	c7 45 f4 00 00
	00 00		 mov	 DWORD PTR _p$[ebp], OFFSET ?TokenString@@3PADA

; 78   : 			*p++ = ch;

  002a4	8b 45 f4	 mov	 eax, DWORD PTR _p$[ebp]
  002a7	8a 4d fb	 mov	 cl, BYTE PTR _ch$[ebp]
  002aa	88 08		 mov	 BYTE PTR [eax], cl
  002ac	8b 55 f4	 mov	 edx, DWORD PTR _p$[ebp]
  002af	83 c2 01	 add	 edx, 1
  002b2	89 55 f4	 mov	 DWORD PTR _p$[ebp], edx
$LN13@GetToken:

; 79   : 			while ( (  (ch = getc(SMDFile) ) !=(BYTE)EOF) && (ch=='.' || ch=='_' || isalnum(ch)) )

  002b5	a1 00 00 00 00	 mov	 eax, DWORD PTR ?SMDFile@@3PAU_iobuf@@A
  002ba	50		 push	 eax
  002bb	e8 00 00 00 00	 call	 _getc
  002c0	83 c4 04	 add	 esp, 4
  002c3	88 45 fb	 mov	 BYTE PTR _ch$[ebp], al
  002c6	0f b6 4d fb	 movzx	 ecx, BYTE PTR _ch$[ebp]
  002ca	81 f9 ff 00 00
	00		 cmp	 ecx, 255		; 000000ffH
  002d0	74 36		 je	 SHORT $LN14@GetToken
  002d2	0f b6 45 fb	 movzx	 eax, BYTE PTR _ch$[ebp]
  002d6	83 f8 2e	 cmp	 eax, 46			; 0000002eH
  002d9	74 1a		 je	 SHORT $LN29@GetToken
  002db	0f b6 45 fb	 movzx	 eax, BYTE PTR _ch$[ebp]
  002df	83 f8 5f	 cmp	 eax, 95			; 0000005fH
  002e2	74 11		 je	 SHORT $LN29@GetToken
  002e4	0f b6 45 fb	 movzx	 eax, BYTE PTR _ch$[ebp]
  002e8	50		 push	 eax
  002e9	e8 00 00 00 00	 call	 _isalnum
  002ee	83 c4 04	 add	 esp, 4
  002f1	85 c0		 test	 eax, eax
  002f3	74 13		 je	 SHORT $LN14@GetToken
$LN29@GetToken:

; 80   : 				*p++ = ch;

  002f5	8b 45 f4	 mov	 eax, DWORD PTR _p$[ebp]
  002f8	8a 4d fb	 mov	 cl, BYTE PTR _ch$[ebp]
  002fb	88 08		 mov	 BYTE PTR [eax], cl
  002fd	8b 55 f4	 mov	 edx, DWORD PTR _p$[ebp]
  00300	83 c2 01	 add	 edx, 1
  00303	89 55 f4	 mov	 DWORD PTR _p$[ebp], edx
  00306	eb ad		 jmp	 SHORT $LN13@GetToken
$LN14@GetToken:

; 81   : 			ungetc(ch,SMDFile);

  00308	a1 00 00 00 00	 mov	 eax, DWORD PTR ?SMDFile@@3PAU_iobuf@@A
  0030d	50		 push	 eax
  0030e	0f b6 4d fb	 movzx	 ecx, BYTE PTR _ch$[ebp]
  00312	51		 push	 ecx
  00313	e8 00 00 00 00	 call	 _ungetc
  00318	83 c4 08	 add	 esp, 8

; 82   : 			*p = 0;

  0031b	8b 45 f4	 mov	 eax, DWORD PTR _p$[ebp]
  0031e	c6 00 00	 mov	 BYTE PTR [eax], 0

; 83   : 			return CurrentToken = NAME;

  00321	c7 05 00 00 00
	00 00 00 00 00	 mov	 DWORD PTR ?CurrentToken@@3W4SMDToken@@A, 0
  0032b	a1 00 00 00 00	 mov	 eax, DWORD PTR ?CurrentToken@@3W4SMDToken@@A
  00330	eb 0f		 jmp	 SHORT $LN7@GetToken
$LN28@GetToken:

; 84   : 		}
; 85   : 		return CurrentToken = SMD_ERROR;

  00332	c7 05 00 00 00
	00 3c 00 00 00	 mov	 DWORD PTR ?CurrentToken@@3W4SMDToken@@A, 60 ; 0000003cH
  0033c	a1 00 00 00 00	 mov	 eax, DWORD PTR ?CurrentToken@@3W4SMDToken@@A
$LN7@GetToken:

; 86   : 	}
; 87   : }

  00341	5f		 pop	 edi
  00342	5e		 pop	 esi
  00343	5b		 pop	 ebx
  00344	8b 4d fc	 mov	 ecx, DWORD PTR __$ArrayPad$[ebp]
  00347	33 cd		 xor	 ecx, ebp
  00349	e8 00 00 00 00	 call	 @__security_check_cookie@4
  0034e	8b e5		 mov	 esp, ebp
  00350	5d		 pop	 ebp
  00351	c3		 ret	 0
  00352	66 90		 npad	 2
$LN34@GetToken:
  00354	00 00 00 00	 DD	 $LN25@GetToken
  00358	00 00 00 00	 DD	 $LN18@GetToken
  0035c	00 00 00 00	 DD	 $LN20@GetToken
  00360	00 00 00 00	 DD	 $LN23@GetToken
  00364	00 00 00 00	 DD	 $LN19@GetToken
  00368	00 00 00 00	 DD	 $LN21@GetToken
  0036c	00 00 00 00	 DD	 $LN22@GetToken
  00370	00 00 00 00	 DD	 $LN27@GetToken
$LN33@GetToken:
  00374	00		 DB	 0
  00375	01		 DB	 1
  00376	07		 DB	 7
  00377	07		 DB	 7
  00378	07		 DB	 7
  00379	07		 DB	 7
  0037a	07		 DB	 7
  0037b	07		 DB	 7
  0037c	07		 DB	 7
  0037d	07		 DB	 7
  0037e	02		 DB	 2
  0037f	03		 DB	 3
  00380	03		 DB	 3
  00381	07		 DB	 7
  00382	03		 DB	 3
  00383	03		 DB	 3
  00384	03		 DB	 3
  00385	03		 DB	 3
  00386	03		 DB	 3
  00387	03		 DB	 3
  00388	03		 DB	 3
  00389	03		 DB	 3
  0038a	03		 DB	 3
  0038b	03		 DB	 3
  0038c	07		 DB	 7
  0038d	04		 DB	 4
  0038e	07		 DB	 7
  0038f	07		 DB	 7
  00390	07		 DB	 7
  00391	07		 DB	 7
  00392	07		 DB	 7
  00393	07		 DB	 7
  00394	07		 DB	 7
  00395	07		 DB	 7
  00396	07		 DB	 7
  00397	07		 DB	 7
  00398	07		 DB	 7
  00399	07		 DB	 7
  0039a	07		 DB	 7
  0039b	07		 DB	 7
  0039c	07		 DB	 7
  0039d	07		 DB	 7
  0039e	07		 DB	 7
  0039f	07		 DB	 7
  003a0	07		 DB	 7
  003a1	07		 DB	 7
  003a2	07		 DB	 7
  003a3	07		 DB	 7
  003a4	07		 DB	 7
  003a5	07		 DB	 7
  003a6	07		 DB	 7
  003a7	07		 DB	 7
  003a8	07		 DB	 7
  003a9	07		 DB	 7
  003aa	07		 DB	 7
  003ab	07		 DB	 7
  003ac	07		 DB	 7
  003ad	07		 DB	 7
  003ae	07		 DB	 7
  003af	07		 DB	 7
  003b0	07		 DB	 7
  003b1	07		 DB	 7
  003b2	07		 DB	 7
  003b3	07		 DB	 7
  003b4	07		 DB	 7
  003b5	07		 DB	 7
  003b6	07		 DB	 7
  003b7	07		 DB	 7
  003b8	07		 DB	 7
  003b9	07		 DB	 7
  003ba	07		 DB	 7
  003bb	07		 DB	 7
  003bc	07		 DB	 7
  003bd	07		 DB	 7
  003be	07		 DB	 7
  003bf	07		 DB	 7
  003c0	07		 DB	 7
  003c1	07		 DB	 7
  003c2	07		 DB	 7
  003c3	07		 DB	 7
  003c4	07		 DB	 7
  003c5	07		 DB	 7
  003c6	07		 DB	 7
  003c7	07		 DB	 7
  003c8	07		 DB	 7
  003c9	07		 DB	 7
  003ca	07		 DB	 7
  003cb	07		 DB	 7
  003cc	07		 DB	 7
  003cd	05		 DB	 5
  003ce	07		 DB	 7
  003cf	06		 DB	 6
?GetToken@@YA?AW4SMDToken@@XZ ENDP			; GetToken
_TEXT	ENDS
; Function compile flags: /Odtp /ZI
; File C:\Program Files (x86)\Microsoft Visual Studio\2019\Community\VC\Tools\MSVC\14.27.29110\include\xmemory
;	COMDAT ??$_Allocate_manually_vector_aligned@U_Default_allocate_traits@std@@@std@@YAPAXI@Z
_TEXT	SEGMENT
__Ptr$ = -12						; size = 4
__Ptr_container$ = -8					; size = 4
__Block_size$ = -4					; size = 4
__Bytes$ = 8						; size = 4
??$_Allocate_manually_vector_aligned@U_Default_allocate_traits@std@@@std@@YAPAXI@Z PROC ; std::_Allocate_manually_vector_aligned<std::_Default_allocate_traits>, COMDAT

; 113  : __declspec(allocator) void* _Allocate_manually_vector_aligned(const size_t _Bytes) {

  00000	55		 push	 ebp
  00001	8b ec		 mov	 ebp, esp
  00003	83 ec 4c	 sub	 esp, 76			; 0000004cH
  00006	53		 push	 ebx
  00007	56		 push	 esi
  00008	57		 push	 edi

; 114  :     // allocate _Bytes manually aligned to at least _Big_allocation_alignment
; 115  :     const size_t _Block_size = _Non_user_size + _Bytes;

  00009	8b 45 08	 mov	 eax, DWORD PTR __Bytes$[ebp]
  0000c	83 c0 23	 add	 eax, 35			; 00000023H
  0000f	89 45 fc	 mov	 DWORD PTR __Block_size$[ebp], eax

; 116  :     if (_Block_size <= _Bytes) {

  00012	8b 45 fc	 mov	 eax, DWORD PTR __Block_size$[ebp]
  00015	3b 45 08	 cmp	 eax, DWORD PTR __Bytes$[ebp]
  00018	77 05		 ja	 SHORT $LN8@Allocate_m

; 117  :         _Throw_bad_array_new_length(); // add overflow

  0001a	e8 00 00 00 00	 call	 ?_Throw_bad_array_new_length@std@@YAXXZ ; std::_Throw_bad_array_new_length
$LN8@Allocate_m:

; 118  :     }
; 119  : 
; 120  :     const uintptr_t _Ptr_container = reinterpret_cast<uintptr_t>(_Traits::_Allocate(_Block_size));

  0001f	8b 45 fc	 mov	 eax, DWORD PTR __Block_size$[ebp]
  00022	50		 push	 eax
  00023	e8 00 00 00 00	 call	 ?_Allocate@_Default_allocate_traits@std@@SAPAXI@Z ; std::_Default_allocate_traits::_Allocate
  00028	83 c4 04	 add	 esp, 4
  0002b	89 45 f8	 mov	 DWORD PTR __Ptr_container$[ebp], eax
$LN4@Allocate_m:

; 121  :     _STL_VERIFY(_Ptr_container != 0, "invalid argument"); // validate even in release since we're doing p[-1]

  0002e	83 7d f8 00	 cmp	 DWORD PTR __Ptr_container$[ebp], 0
  00032	74 02		 je	 SHORT $LN7@Allocate_m
  00034	eb 09		 jmp	 SHORT $LN2@Allocate_m
$LN7@Allocate_m:
  00036	e8 00 00 00 00	 call	 __invalid_parameter_noinfo_noreturn
  0003b	33 c0		 xor	 eax, eax
  0003d	75 f7		 jne	 SHORT $LN7@Allocate_m
$LN2@Allocate_m:
  0003f	33 c0		 xor	 eax, eax
  00041	75 eb		 jne	 SHORT $LN4@Allocate_m

; 122  :     void* const _Ptr = reinterpret_cast<void*>((_Ptr_container + _Non_user_size) & ~(_Big_allocation_alignment - 1));

  00043	8b 45 f8	 mov	 eax, DWORD PTR __Ptr_container$[ebp]
  00046	83 c0 23	 add	 eax, 35			; 00000023H
  00049	83 e0 e0	 and	 eax, -32		; ffffffe0H
  0004c	89 45 f4	 mov	 DWORD PTR __Ptr$[ebp], eax

; 123  :     static_cast<uintptr_t*>(_Ptr)[-1] = _Ptr_container;

  0004f	b8 04 00 00 00	 mov	 eax, 4
  00054	6b c8 ff	 imul	 ecx, eax, -1
  00057	8b 55 f4	 mov	 edx, DWORD PTR __Ptr$[ebp]
  0005a	8b 45 f8	 mov	 eax, DWORD PTR __Ptr_container$[ebp]
  0005d	89 04 0a	 mov	 DWORD PTR [edx+ecx], eax

; 124  : 
; 125  : #ifdef _DEBUG
; 126  :     static_cast<uintptr_t*>(_Ptr)[-2] = _Big_allocation_sentinel;
; 127  : #endif // _DEBUG
; 128  :     return _Ptr;

  00060	8b 45 f4	 mov	 eax, DWORD PTR __Ptr$[ebp]
$LN11@Allocate_m:

; 129  : }

  00063	5f		 pop	 edi
  00064	5e		 pop	 esi
  00065	5b		 pop	 ebx
  00066	8b e5		 mov	 esp, ebp
  00068	5d		 pop	 ebp
  00069	c3		 ret	 0
??$_Allocate_manually_vector_aligned@U_Default_allocate_traits@std@@@std@@YAPAXI@Z ENDP ; std::_Allocate_manually_vector_aligned<std::_Default_allocate_traits>
_TEXT	ENDS
; Function compile flags: /Odtp /ZI
; File C:\Program Files (x86)\Microsoft Visual Studio\2019\Community\VC\Tools\MSVC\14.27.29110\include\xmemory
;	COMDAT ??$_Allocate@$07U_Default_allocate_traits@std@@$0A@@std@@YAPAXI@Z
_TEXT	SEGMENT
__Bytes$ = 8						; size = 4
??$_Allocate@$07U_Default_allocate_traits@std@@$0A@@std@@YAPAXI@Z PROC ; std::_Allocate<8,std::_Default_allocate_traits,0>, COMDAT

; 197  : __declspec(allocator) void* _Allocate(const size_t _Bytes) {

  00000	55		 push	 ebp
  00001	8b ec		 mov	 ebp, esp
  00003	83 ec 40	 sub	 esp, 64			; 00000040H
  00006	53		 push	 ebx
  00007	56		 push	 esi
  00008	57		 push	 edi

; 198  :     // allocate _Bytes when !_HAS_ALIGNED_NEW || _Align <= __STDCPP_DEFAULT_NEW_ALIGNMENT__
; 199  : #if defined(_M_IX86) || defined(_M_X64)
; 200  :     if (_Bytes >= _Big_allocation_threshold) { // boost the alignment of big allocations to help autovectorization

  00009	81 7d 08 00 10
	00 00		 cmp	 DWORD PTR __Bytes$[ebp], 4096 ; 00001000H
  00010	72 0e		 jb	 SHORT $LN2@Allocate

; 201  :         return _Allocate_manually_vector_aligned<_Traits>(_Bytes);

  00012	8b 45 08	 mov	 eax, DWORD PTR __Bytes$[ebp]
  00015	50		 push	 eax
  00016	e8 00 00 00 00	 call	 ??$_Allocate_manually_vector_aligned@U_Default_allocate_traits@std@@@std@@YAPAXI@Z ; std::_Allocate_manually_vector_aligned<std::_Default_allocate_traits>
  0001b	83 c4 04	 add	 esp, 4
  0001e	eb 16		 jmp	 SHORT $LN1@Allocate
$LN2@Allocate:

; 202  :     }
; 203  : #endif // defined(_M_IX86) || defined(_M_X64)
; 204  : 
; 205  :     if (_Bytes != 0) {

  00020	83 7d 08 00	 cmp	 DWORD PTR __Bytes$[ebp], 0
  00024	74 0e		 je	 SHORT $LN3@Allocate

; 206  :         return _Traits::_Allocate(_Bytes);

  00026	8b 45 08	 mov	 eax, DWORD PTR __Bytes$[ebp]
  00029	50		 push	 eax
  0002a	e8 00 00 00 00	 call	 ?_Allocate@_Default_allocate_traits@std@@SAPAXI@Z ; std::_Default_allocate_traits::_Allocate
  0002f	83 c4 04	 add	 esp, 4
  00032	eb 02		 jmp	 SHORT $LN1@Allocate
$LN3@Allocate:

; 207  :     }
; 208  : 
; 209  :     return nullptr;

  00034	33 c0		 xor	 eax, eax
$LN1@Allocate:

; 210  : }

  00036	5f		 pop	 edi
  00037	5e		 pop	 esi
  00038	5b		 pop	 ebx
  00039	8b e5		 mov	 esp, ebp
  0003b	5d		 pop	 ebp
  0003c	c3		 ret	 0
??$_Allocate@$07U_Default_allocate_traits@std@@$0A@@std@@YAPAXI@Z ENDP ; std::_Allocate<8,std::_Default_allocate_traits,0>
_TEXT	ENDS
; Function compile flags: /Odtp /ZI
; File C:\Program Files (x86)\Microsoft Visual Studio\2019\Community\VC\Tools\MSVC\14.27.29110\include\xmemory
;	COMDAT ??$_Deallocate@$07$0A@@std@@YAXPAXI@Z
_TEXT	SEGMENT
__$EHRec$ = -12						; size = 12
__Ptr$ = 8						; size = 4
__Bytes$ = 12						; size = 4
??$_Deallocate@$07$0A@@std@@YAXPAXI@Z PROC		; std::_Deallocate<8,0>, COMDAT

; 213  : void _Deallocate(void* _Ptr, size_t _Bytes) noexcept {

  00000	55		 push	 ebp
  00001	8b ec		 mov	 ebp, esp
  00003	6a ff		 push	 -1
  00005	68 00 00 00 00	 push	 __ehhandler$??$_Deallocate@$07$0A@@std@@YAXPAXI@Z
  0000a	64 a1 00 00 00
	00		 mov	 eax, DWORD PTR fs:0
  00010	50		 push	 eax
  00011	83 ec 40	 sub	 esp, 64			; 00000040H
  00014	53		 push	 ebx
  00015	56		 push	 esi
  00016	57		 push	 edi
  00017	a1 00 00 00 00	 mov	 eax, DWORD PTR ___security_cookie
  0001c	33 c5		 xor	 eax, ebp
  0001e	50		 push	 eax
  0001f	8d 45 f4	 lea	 eax, DWORD PTR __$EHRec$[ebp]
  00022	64 a3 00 00 00
	00		 mov	 DWORD PTR fs:0, eax

; 214  :     // deallocate storage allocated by _Allocate when !_HAS_ALIGNED_NEW || _Align <= __STDCPP_DEFAULT_NEW_ALIGNMENT__
; 215  : #if defined(_M_IX86) || defined(_M_X64)
; 216  :     if (_Bytes >= _Big_allocation_threshold) { // boost the alignment of big allocations to help autovectorization

  00028	81 7d 0c 00 10
	00 00		 cmp	 DWORD PTR __Bytes$[ebp], 4096 ; 00001000H
  0002f	72 10		 jb	 SHORT $LN2@Deallocate

; 217  :         _Adjust_manually_vector_aligned(_Ptr, _Bytes);

  00031	8d 45 0c	 lea	 eax, DWORD PTR __Bytes$[ebp]
  00034	50		 push	 eax
  00035	8d 4d 08	 lea	 ecx, DWORD PTR __Ptr$[ebp]
  00038	51		 push	 ecx
  00039	e8 00 00 00 00	 call	 ?_Adjust_manually_vector_aligned@std@@YAXAAPAXAAI@Z ; std::_Adjust_manually_vector_aligned
  0003e	83 c4 08	 add	 esp, 8
$LN2@Deallocate:

; 218  :     }
; 219  : #endif // defined(_M_IX86) || defined(_M_X64)
; 220  : 
; 221  :     ::operator delete(_Ptr, _Bytes);

  00041	8b 45 0c	 mov	 eax, DWORD PTR __Bytes$[ebp]
  00044	50		 push	 eax
  00045	8b 4d 08	 mov	 ecx, DWORD PTR __Ptr$[ebp]
  00048	51		 push	 ecx
  00049	e8 00 00 00 00	 call	 ??3@YAXPAXI@Z		; operator delete
  0004e	83 c4 08	 add	 esp, 8

; 222  : }

  00051	8b 4d f4	 mov	 ecx, DWORD PTR __$EHRec$[ebp]
  00054	64 89 0d 00 00
	00 00		 mov	 DWORD PTR fs:0, ecx
  0005b	59		 pop	 ecx
  0005c	5f		 pop	 edi
  0005d	5e		 pop	 esi
  0005e	5b		 pop	 ebx
  0005f	8b e5		 mov	 esp, ebp
  00061	5d		 pop	 ebp
  00062	c3		 ret	 0
  00063	cc		 int	 3
  00064	cc		 int	 3
  00065	cc		 int	 3
  00066	cc		 int	 3
  00067	cc		 int	 3
_TEXT	ENDS
;	COMDAT text$x
text$x	SEGMENT
__ehhandler$??$_Deallocate@$07$0A@@std@@YAXPAXI@Z:
  00000	90		 npad	 1
  00001	90		 npad	 1
  00002	8b 54 24 08	 mov	 edx, DWORD PTR [esp+8]
  00006	8d 42 0c	 lea	 eax, DWORD PTR [edx+12]
  00009	8b 4a b0	 mov	 ecx, DWORD PTR [edx-80]
  0000c	33 c8		 xor	 ecx, eax
  0000e	e8 00 00 00 00	 call	 @__security_check_cookie@4
  00013	b8 00 00 00 00	 mov	 eax, OFFSET __ehfuncinfo$??$_Deallocate@$07$0A@@std@@YAXPAXI@Z
  00018	e9 00 00 00 00	 jmp	 ___CxxFrameHandler3
text$x	ENDS
??$_Deallocate@$07$0A@@std@@YAXPAXI@Z ENDP		; std::_Deallocate<8,0>
; Function compile flags: /Odtp /ZI
; File C:\Program Files (x86)\Microsoft Visual Studio\2019\Community\VC\Tools\MSVC\14.27.29110\include\utility
;	COMDAT ??$min@I@std@@YAABIABI0@Z
_TEXT	SEGMENT
tv65 = -72						; size = 4
$T1 = -68						; size = 4
__Left$ = 8						; size = 4
__Right$ = 12						; size = 4
??$min@I@std@@YAABIABI0@Z PROC				; std::min<unsigned int>, COMDAT

; 67   :     const _Ty& _Left, const _Ty& _Right) noexcept(noexcept(_Right < _Left)) /* strengthened */ {

  00000	55		 push	 ebp
  00001	8b ec		 mov	 ebp, esp
  00003	83 ec 48	 sub	 esp, 72			; 00000048H
  00006	53		 push	 ebx
  00007	56		 push	 esi
  00008	57		 push	 edi

; 68   :     // return smaller of _Left and _Right
; 69   :     return _Right < _Left ? _Right : _Left;

  00009	8b 45 0c	 mov	 eax, DWORD PTR __Right$[ebp]
  0000c	8b 4d 08	 mov	 ecx, DWORD PTR __Left$[ebp]
  0000f	8b 10		 mov	 edx, DWORD PTR [eax]
  00011	3b 11		 cmp	 edx, DWORD PTR [ecx]
  00013	73 08		 jae	 SHORT $LN3@min
  00015	8b 45 0c	 mov	 eax, DWORD PTR __Right$[ebp]
  00018	89 45 b8	 mov	 DWORD PTR tv65[ebp], eax
  0001b	eb 06		 jmp	 SHORT $LN4@min
$LN3@min:
  0001d	8b 4d 08	 mov	 ecx, DWORD PTR __Left$[ebp]
  00020	89 4d b8	 mov	 DWORD PTR tv65[ebp], ecx
$LN4@min:
  00023	8b 55 b8	 mov	 edx, DWORD PTR tv65[ebp]
  00026	89 55 bc	 mov	 DWORD PTR $T1[ebp], edx
  00029	8b 45 bc	 mov	 eax, DWORD PTR $T1[ebp]

; 70   : }

  0002c	5f		 pop	 edi
  0002d	5e		 pop	 esi
  0002e	5b		 pop	 ebx
  0002f	8b e5		 mov	 esp, ebp
  00031	5d		 pop	 ebp
  00032	c3		 ret	 0
??$min@I@std@@YAABIABI0@Z ENDP				; std::min<unsigned int>
_TEXT	ENDS
; Function compile flags: /Odtp /ZI
;	COMDAT ??1?$map@H_NU?$less@H@std@@V?$allocator@U?$pair@$$CBH_N@std@@@2@@std@@QAE@XZ
_TEXT	SEGMENT
_this$ = -4						; size = 4
??1?$map@H_NU?$less@H@std@@V?$allocator@U?$pair@$$CBH_N@std@@@2@@std@@QAE@XZ PROC ; std::map<int,bool,std::less<int>,std::allocator<std::pair<int const ,bool> > >::~map<int,bool,std::less<int>,std::allocator<std::pair<int const ,bool> > >, COMDAT
; _this$ = ecx
  00000	55		 push	 ebp
  00001	8b ec		 mov	 ebp, esp
  00003	83 ec 44	 sub	 esp, 68			; 00000044H
  00006	53		 push	 ebx
  00007	56		 push	 esi
  00008	57		 push	 edi
  00009	89 4d fc	 mov	 DWORD PTR _this$[ebp], ecx
  0000c	8b 4d fc	 mov	 ecx, DWORD PTR _this$[ebp]
  0000f	e8 00 00 00 00	 call	 ??1?$_Tree@V?$_Tmap_traits@H_NU?$less@H@std@@V?$allocator@U?$pair@$$CBH_N@std@@@2@$0A@@std@@@std@@QAE@XZ ; std::_Tree<std::_Tmap_traits<int,bool,std::less<int>,std::allocator<std::pair<int const ,bool> >,0> >::~_Tree<std::_Tmap_traits<int,bool,std::less<int>,std::allocator<std::pair<int const ,bool> >,0> >
  00014	5f		 pop	 edi
  00015	5e		 pop	 esi
  00016	5b		 pop	 ebx
  00017	8b e5		 mov	 esp, ebp
  00019	5d		 pop	 ebp
  0001a	c3		 ret	 0
??1?$map@H_NU?$less@H@std@@V?$allocator@U?$pair@$$CBH_N@std@@@2@@std@@QAE@XZ ENDP ; std::map<int,bool,std::less<int>,std::allocator<std::pair<int const ,bool> > >::~map<int,bool,std::less<int>,std::allocator<std::pair<int const ,bool> > >
_TEXT	ENDS
; Function compile flags: /Odtp /ZI
; File C:\Program Files (x86)\Microsoft Visual Studio\2019\Community\VC\Tools\MSVC\14.27.29110\include\map
;	COMDAT ??0?$map@H_NU?$less@H@std@@V?$allocator@U?$pair@$$CBH_N@std@@@2@@std@@QAE@XZ
_TEXT	SEGMENT
$T1 = -69						; size = 1
_this$ = -4						; size = 4
??0?$map@H_NU?$less@H@std@@V?$allocator@U?$pair@$$CBH_N@std@@@2@@std@@QAE@XZ PROC ; std::map<int,bool,std::less<int>,std::allocator<std::pair<int const ,bool> > >::map<int,bool,std::less<int>,std::allocator<std::pair<int const ,bool> > >, COMDAT
; _this$ = ecx

; 107  :     map() : _Mybase(key_compare()) {}

  00000	55		 push	 ebp
  00001	8b ec		 mov	 ebp, esp
  00003	83 ec 48	 sub	 esp, 72			; 00000048H
  00006	53		 push	 ebx
  00007	56		 push	 esi
  00008	57		 push	 edi
  00009	89 4d fc	 mov	 DWORD PTR _this$[ebp], ecx
  0000c	8d 45 bb	 lea	 eax, DWORD PTR $T1[ebp]
  0000f	50		 push	 eax
  00010	8b 4d fc	 mov	 ecx, DWORD PTR _this$[ebp]
  00013	e8 00 00 00 00	 call	 ??0?$_Tree@V?$_Tmap_traits@H_NU?$less@H@std@@V?$allocator@U?$pair@$$CBH_N@std@@@2@$0A@@std@@@std@@QAE@ABU?$less@H@1@@Z ; std::_Tree<std::_Tmap_traits<int,bool,std::less<int>,std::allocator<std::pair<int const ,bool> >,0> >::_Tree<std::_Tmap_traits<int,bool,std::less<int>,std::allocator<std::pair<int const ,bool> >,0> >
  00018	8b 45 fc	 mov	 eax, DWORD PTR _this$[ebp]
  0001b	5f		 pop	 edi
  0001c	5e		 pop	 esi
  0001d	5b		 pop	 ebx
  0001e	8b e5		 mov	 esp, ebp
  00020	5d		 pop	 ebp
  00021	c3		 ret	 0
??0?$map@H_NU?$less@H@std@@V?$allocator@U?$pair@$$CBH_N@std@@@2@@std@@QAE@XZ ENDP ; std::map<int,bool,std::less<int>,std::allocator<std::pair<int const ,bool> > >::map<int,bool,std::less<int>,std::allocator<std::pair<int const ,bool> > >
_TEXT	ENDS
; Function compile flags: /Odtp /ZI
; File C:\Program Files (x86)\Microsoft Visual Studio\2019\Community\VC\Tools\MSVC\14.27.29110\include\xmemory
;	COMDAT ?_Get_first@?$_Compressed_pair@U?$less@H@std@@V?$_Compressed_pair@V?$allocator@U?$_Tree_node@U?$pair@$$CBH_N@std@@PAX@std@@@std@@V?$_Tree_val@U?$_Tree_simple_types@U?$pair@$$CBH_N@std@@@std@@@2@$00@2@$00@std@@QBEABU?$less@H@2@XZ
_TEXT	SEGMENT
_this$ = -4						; size = 4
?_Get_first@?$_Compressed_pair@U?$less@H@std@@V?$_Compressed_pair@V?$allocator@U?$_Tree_node@U?$pair@$$CBH_N@std@@PAX@std@@@std@@V?$_Tree_val@U?$_Tree_simple_types@U?$pair@$$CBH_N@std@@@std@@@2@$00@2@$00@std@@QBEABU?$less@H@2@XZ PROC ; std::_Compressed_pair<std::less<int>,std::_Compressed_pair<std::allocator<std::_Tree_node<std::pair<int const ,bool>,void *> >,std::_Tree_val<std::_Tree_simple_types<std::pair<int const ,bool> > >,1>,1>::_Get_first, COMDAT
; _this$ = ecx

; 1347 :     constexpr const _Ty1& _Get_first() const noexcept {

  00000	55		 push	 ebp
  00001	8b ec		 mov	 ebp, esp
  00003	83 ec 44	 sub	 esp, 68			; 00000044H
  00006	53		 push	 ebx
  00007	56		 push	 esi
  00008	57		 push	 edi
  00009	89 4d fc	 mov	 DWORD PTR _this$[ebp], ecx

; 1348 :         return *this;

  0000c	8b 45 fc	 mov	 eax, DWORD PTR _this$[ebp]

; 1349 :     }

  0000f	5f		 pop	 edi
  00010	5e		 pop	 esi
  00011	5b		 pop	 ebx
  00012	8b e5		 mov	 esp, ebp
  00014	5d		 pop	 ebp
  00015	c3		 ret	 0
?_Get_first@?$_Compressed_pair@U?$less@H@std@@V?$_Compressed_pair@V?$allocator@U?$_Tree_node@U?$pair@$$CBH_N@std@@PAX@std@@@std@@V?$_Tree_val@U?$_Tree_simple_types@U?$pair@$$CBH_N@std@@@std@@@2@$00@2@$00@std@@QBEABU?$less@H@2@XZ ENDP ; std::_Compressed_pair<std::less<int>,std::_Compressed_pair<std::allocator<std::_Tree_node<std::pair<int const ,bool>,void *> >,std::_Tree_val<std::_Tree_simple_types<std::pair<int const ,bool> > >,1>,1>::_Get_first
_TEXT	ENDS
; Function compile flags: /Odtp /ZI
; File C:\Program Files (x86)\Microsoft Visual Studio\2019\Community\VC\Tools\MSVC\14.27.29110\include\xmemory
;	COMDAT ?_Get_first@?$_Compressed_pair@V?$allocator@U?$_Tree_node@U?$pair@$$CBH_N@std@@PAX@std@@@std@@V?$_Tree_val@U?$_Tree_simple_types@U?$pair@$$CBH_N@std@@@std@@@2@$00@std@@QBEABV?$allocator@U?$_Tree_node@U?$pair@$$CBH_N@std@@PAX@std@@@2@XZ
_TEXT	SEGMENT
_this$ = -4						; size = 4
?_Get_first@?$_Compressed_pair@V?$allocator@U?$_Tree_node@U?$pair@$$CBH_N@std@@PAX@std@@@std@@V?$_Tree_val@U?$_Tree_simple_types@U?$pair@$$CBH_N@std@@@std@@@2@$00@std@@QBEABV?$allocator@U?$_Tree_node@U?$pair@$$CBH_N@std@@PAX@std@@@2@XZ PROC ; std::_Compressed_pair<std::allocator<std::_Tree_node<std::pair<int const ,bool>,void *> >,std::_Tree_val<std::_Tree_simple_types<std::pair<int const ,bool> > >,1>::_Get_first, COMDAT
; _this$ = ecx

; 1347 :     constexpr const _Ty1& _Get_first() const noexcept {

  00000	55		 push	 ebp
  00001	8b ec		 mov	 ebp, esp
  00003	83 ec 44	 sub	 esp, 68			; 00000044H
  00006	53		 push	 ebx
  00007	56		 push	 esi
  00008	57		 push	 edi
  00009	89 4d fc	 mov	 DWORD PTR _this$[ebp], ecx

; 1348 :         return *this;

  0000c	8b 45 fc	 mov	 eax, DWORD PTR _this$[ebp]

; 1349 :     }

  0000f	5f		 pop	 edi
  00010	5e		 pop	 esi
  00011	5b		 pop	 ebx
  00012	8b e5		 mov	 esp, ebp
  00014	5d		 pop	 ebp
  00015	c3		 ret	 0
?_Get_first@?$_Compressed_pair@V?$allocator@U?$_Tree_node@U?$pair@$$CBH_N@std@@PAX@std@@@std@@V?$_Tree_val@U?$_Tree_simple_types@U?$pair@$$CBH_N@std@@@std@@@2@$00@std@@QBEABV?$allocator@U?$_Tree_node@U?$pair@$$CBH_N@std@@PAX@std@@@2@XZ ENDP ; std::_Compressed_pair<std::allocator<std::_Tree_node<std::pair<int const ,bool>,void *> >,std::_Tree_val<std::_Tree_simple_types<std::pair<int const ,bool> > >,1>::_Get_first
_TEXT	ENDS
; Function compile flags: /Odtp /ZI
; File C:\Program Files (x86)\Microsoft Visual Studio\2019\Community\VC\Tools\MSVC\14.27.29110\include\xmemory
;	COMDAT ?_Get_first@?$_Compressed_pair@V?$allocator@U?$_Tree_node@U?$pair@$$CBH_N@std@@PAX@std@@@std@@V?$_Tree_val@U?$_Tree_simple_types@U?$pair@$$CBH_N@std@@@std@@@2@$00@std@@QAEAAV?$allocator@U?$_Tree_node@U?$pair@$$CBH_N@std@@PAX@std@@@2@XZ
_TEXT	SEGMENT
_this$ = -4						; size = 4
?_Get_first@?$_Compressed_pair@V?$allocator@U?$_Tree_node@U?$pair@$$CBH_N@std@@PAX@std@@@std@@V?$_Tree_val@U?$_Tree_simple_types@U?$pair@$$CBH_N@std@@@std@@@2@$00@std@@QAEAAV?$allocator@U?$_Tree_node@U?$pair@$$CBH_N@std@@PAX@std@@@2@XZ PROC ; std::_Compressed_pair<std::allocator<std::_Tree_node<std::pair<int const ,bool>,void *> >,std::_Tree_val<std::_Tree_simple_types<std::pair<int const ,bool> > >,1>::_Get_first, COMDAT
; _this$ = ecx

; 1343 :     constexpr _Ty1& _Get_first() noexcept {

  00000	55		 push	 ebp
  00001	8b ec		 mov	 ebp, esp
  00003	83 ec 44	 sub	 esp, 68			; 00000044H
  00006	53		 push	 ebx
  00007	56		 push	 esi
  00008	57		 push	 edi
  00009	89 4d fc	 mov	 DWORD PTR _this$[ebp], ecx

; 1344 :         return *this;

  0000c	8b 45 fc	 mov	 eax, DWORD PTR _this$[ebp]

; 1345 :     }

  0000f	5f		 pop	 edi
  00010	5e		 pop	 esi
  00011	5b		 pop	 ebx
  00012	8b e5		 mov	 esp, ebp
  00014	5d		 pop	 ebp
  00015	c3		 ret	 0
?_Get_first@?$_Compressed_pair@V?$allocator@U?$_Tree_node@U?$pair@$$CBH_N@std@@PAX@std@@@std@@V?$_Tree_val@U?$_Tree_simple_types@U?$pair@$$CBH_N@std@@@std@@@2@$00@std@@QAEAAV?$allocator@U?$_Tree_node@U?$pair@$$CBH_N@std@@PAX@std@@@2@XZ ENDP ; std::_Compressed_pair<std::allocator<std::_Tree_node<std::pair<int const ,bool>,void *> >,std::_Tree_val<std::_Tree_simple_types<std::pair<int const ,bool> > >,1>::_Get_first
_TEXT	ENDS
; Function compile flags: /Odtp /ZI
; File C:\Program Files (x86)\Microsoft Visual Studio\2019\Community\VC\Tools\MSVC\14.27.29110\include\xtree
;	COMDAT ?_Orphan_ptr@?$_Tree_val@U?$_Tree_simple_types@U?$pair@$$CBH_N@std@@@std@@@std@@QAEXQAU?$_Tree_node@U?$pair@$$CBH_N@std@@PAX@2@@Z
_TEXT	SEGMENT
_this$ = -4						; size = 4
__Ptr$ = 8						; size = 4
?_Orphan_ptr@?$_Tree_val@U?$_Tree_simple_types@U?$pair@$$CBH_N@std@@@std@@@std@@QAEXQAU?$_Tree_node@U?$pair@$$CBH_N@std@@PAX@2@@Z PROC ; std::_Tree_val<std::_Tree_simple_types<std::pair<int const ,bool> > >::_Orphan_ptr, COMDAT
; _this$ = ecx

; 713  :     void _Orphan_ptr(const _Nodeptr _Ptr) noexcept {

  00000	55		 push	 ebp
  00001	8b ec		 mov	 ebp, esp
  00003	83 ec 44	 sub	 esp, 68			; 00000044H
  00006	53		 push	 ebx
  00007	56		 push	 esi
  00008	57		 push	 edi
  00009	89 4d fc	 mov	 DWORD PTR _this$[ebp], ecx

; 714  : #if _ITERATOR_DEBUG_LEVEL == 2
; 715  :         _Lockit _Lock(_LOCK_DEBUG);
; 716  :         _Iterator_base12** _Pnext = &this->_Myproxy->_Myfirstiter;
; 717  :         while (*_Pnext) {
; 718  :             const auto _Pnextptr = static_cast<const_iterator&>(**_Pnext)._Ptr;
; 719  :             if (_Pnextptr == _Myhead || (_Ptr != nullptr && _Pnextptr != _Ptr)) {
; 720  :                 _Pnext = &(*_Pnext)->_Mynextiter;
; 721  :             } else { // orphan the iterator
; 722  :                 (*_Pnext)->_Myproxy = nullptr;
; 723  :                 *_Pnext             = (*_Pnext)->_Mynextiter;
; 724  :             }
; 725  :         }
; 726  : #else // ^^^ _ITERATOR_DEBUG_LEVEL == 2 ^^^ // vvv _ITERATOR_DEBUG_LEVEL != 2 vvv
; 727  :         (void) _Ptr;
; 728  : #endif // _ITERATOR_DEBUG_LEVEL == 2
; 729  :     }

  0000c	5f		 pop	 edi
  0000d	5e		 pop	 esi
  0000e	5b		 pop	 ebx
  0000f	8b e5		 mov	 esp, ebp
  00011	5d		 pop	 ebp
  00012	c2 04 00	 ret	 4
?_Orphan_ptr@?$_Tree_val@U?$_Tree_simple_types@U?$pair@$$CBH_N@std@@@std@@@std@@QAEXQAU?$_Tree_node@U?$pair@$$CBH_N@std@@PAX@2@@Z ENDP ; std::_Tree_val<std::_Tree_simple_types<std::pair<int const ,bool> > >::_Orphan_ptr
_TEXT	ENDS
; Function compile flags: /Odtp /ZI
; File C:\Program Files (x86)\Microsoft Visual Studio\2019\Community\VC\Tools\MSVC\14.27.29110\include\xtree
;	COMDAT ?_Insert_node@?$_Tree_val@U?$_Tree_simple_types@U?$pair@$$CBH_N@std@@@std@@@std@@QAEPAU?$_Tree_node@U?$pair@$$CBH_N@std@@PAX@2@U?$_Tree_id@PAU?$_Tree_node@U?$pair@$$CBH_N@std@@PAX@std@@@2@QAU32@@Z
_TEXT	SEGMENT
__Parent_sibling$1 = -20				; size = 4
__Parent_sibling$2 = -16				; size = 4
__Pnode$3 = -12						; size = 4
__Head$ = -8						; size = 4
_this$ = -4						; size = 4
__Loc$ = 8						; size = 8
__Newnode$ = 16						; size = 4
?_Insert_node@?$_Tree_val@U?$_Tree_simple_types@U?$pair@$$CBH_N@std@@@std@@@std@@QAEPAU?$_Tree_node@U?$pair@$$CBH_N@std@@PAX@2@U?$_Tree_id@PAU?$_Tree_node@U?$pair@$$CBH_N@std@@PAX@std@@@2@QAU32@@Z PROC ; std::_Tree_val<std::_Tree_simple_types<std::pair<int const ,bool> > >::_Insert_node, COMDAT
; _this$ = ecx

; 644  :     _Nodeptr _Insert_node(const _Tree_id<_Nodeptr> _Loc, const _Nodeptr _Newnode) noexcept {

  00000	55		 push	 ebp
  00001	8b ec		 mov	 ebp, esp
  00003	83 ec 54	 sub	 esp, 84			; 00000054H
  00006	53		 push	 ebx
  00007	56		 push	 esi
  00008	57		 push	 edi
  00009	89 4d fc	 mov	 DWORD PTR _this$[ebp], ecx

; 645  :         ++_Mysize;

  0000c	8b 45 fc	 mov	 eax, DWORD PTR _this$[ebp]
  0000f	8b 48 04	 mov	 ecx, DWORD PTR [eax+4]
  00012	83 c1 01	 add	 ecx, 1
  00015	8b 55 fc	 mov	 edx, DWORD PTR _this$[ebp]
  00018	89 4a 04	 mov	 DWORD PTR [edx+4], ecx

; 646  :         const auto _Head  = _Myhead;

  0001b	8b 45 fc	 mov	 eax, DWORD PTR _this$[ebp]
  0001e	8b 08		 mov	 ecx, DWORD PTR [eax]
  00020	89 4d f8	 mov	 DWORD PTR __Head$[ebp], ecx

; 647  :         _Newnode->_Parent = _Loc._Parent;

  00023	8b 45 10	 mov	 eax, DWORD PTR __Newnode$[ebp]
  00026	8b 4d 08	 mov	 ecx, DWORD PTR __Loc$[ebp]
  00029	89 48 04	 mov	 DWORD PTR [eax+4], ecx

; 648  :         if (_Loc._Parent == _Head) { // first node in tree, just set head values

  0002c	8b 45 08	 mov	 eax, DWORD PTR __Loc$[ebp]
  0002f	3b 45 f8	 cmp	 eax, DWORD PTR __Head$[ebp]
  00032	75 29		 jne	 SHORT $LN5@Insert_nod

; 649  :             _Head->_Left     = _Newnode;

  00034	8b 45 f8	 mov	 eax, DWORD PTR __Head$[ebp]
  00037	8b 4d 10	 mov	 ecx, DWORD PTR __Newnode$[ebp]
  0003a	89 08		 mov	 DWORD PTR [eax], ecx

; 650  :             _Head->_Parent   = _Newnode;

  0003c	8b 45 f8	 mov	 eax, DWORD PTR __Head$[ebp]
  0003f	8b 4d 10	 mov	 ecx, DWORD PTR __Newnode$[ebp]
  00042	89 48 04	 mov	 DWORD PTR [eax+4], ecx

; 651  :             _Head->_Right    = _Newnode;

  00045	8b 45 f8	 mov	 eax, DWORD PTR __Head$[ebp]
  00048	8b 4d 10	 mov	 ecx, DWORD PTR __Newnode$[ebp]
  0004b	89 48 08	 mov	 DWORD PTR [eax+8], ecx

; 652  :             _Newnode->_Color = _Black; // the root is black

  0004e	8b 45 10	 mov	 eax, DWORD PTR __Newnode$[ebp]
  00051	c6 40 0c 01	 mov	 BYTE PTR [eax+12], 1

; 653  :             return _Newnode;

  00055	8b 45 10	 mov	 eax, DWORD PTR __Newnode$[ebp]
  00058	e9 a7 01 00 00	 jmp	 $LN18@Insert_nod
$LN5@Insert_nod:

; 654  :         }
; 655  : 
; 656  :         _STL_INTERNAL_CHECK(_Loc._Child != _Tree_child::_Unused);
; 657  :         if (_Loc._Child == _Tree_child::_Right) { // add to right of _Loc._Parent

  0005d	83 7d 0c 00	 cmp	 DWORD PTR __Loc$[ebp+4], 0
  00061	75 1f		 jne	 SHORT $LN6@Insert_nod

; 658  :             _STL_INTERNAL_CHECK(_Loc._Parent->_Right->_Isnil);
; 659  :             _Loc._Parent->_Right = _Newnode;

  00063	8b 45 08	 mov	 eax, DWORD PTR __Loc$[ebp]
  00066	8b 4d 10	 mov	 ecx, DWORD PTR __Newnode$[ebp]
  00069	89 48 08	 mov	 DWORD PTR [eax+8], ecx

; 660  :             if (_Loc._Parent == _Head->_Right) { // remember rightmost node

  0006c	8b 45 f8	 mov	 eax, DWORD PTR __Head$[ebp]
  0006f	8b 4d 08	 mov	 ecx, DWORD PTR __Loc$[ebp]
  00072	3b 48 08	 cmp	 ecx, DWORD PTR [eax+8]
  00075	75 09		 jne	 SHORT $LN8@Insert_nod

; 661  :                 _Head->_Right = _Newnode;

  00077	8b 45 f8	 mov	 eax, DWORD PTR __Head$[ebp]
  0007a	8b 4d 10	 mov	 ecx, DWORD PTR __Newnode$[ebp]
  0007d	89 48 08	 mov	 DWORD PTR [eax+8], ecx
$LN8@Insert_nod:

; 662  :             }
; 663  :         } else { // add to left of _Loc._Parent

  00080	eb 1a		 jmp	 SHORT $LN7@Insert_nod
$LN6@Insert_nod:

; 664  :             _STL_INTERNAL_CHECK(_Loc._Parent->_Left->_Isnil);
; 665  :             _Loc._Parent->_Left = _Newnode;

  00082	8b 45 08	 mov	 eax, DWORD PTR __Loc$[ebp]
  00085	8b 4d 10	 mov	 ecx, DWORD PTR __Newnode$[ebp]
  00088	89 08		 mov	 DWORD PTR [eax], ecx

; 666  :             if (_Loc._Parent == _Head->_Left) { // remember leftmost node

  0008a	8b 45 f8	 mov	 eax, DWORD PTR __Head$[ebp]
  0008d	8b 4d 08	 mov	 ecx, DWORD PTR __Loc$[ebp]
  00090	3b 08		 cmp	 ecx, DWORD PTR [eax]
  00092	75 08		 jne	 SHORT $LN7@Insert_nod

; 667  :                 _Head->_Left = _Newnode;

  00094	8b 45 f8	 mov	 eax, DWORD PTR __Head$[ebp]
  00097	8b 4d 10	 mov	 ecx, DWORD PTR __Newnode$[ebp]
  0009a	89 08		 mov	 DWORD PTR [eax], ecx
$LN7@Insert_nod:

; 668  :             }
; 669  :         }
; 670  : 
; 671  :         for (_Nodeptr _Pnode = _Newnode; _Pnode->_Parent->_Color == _Red;) {

  0009c	8b 45 10	 mov	 eax, DWORD PTR __Newnode$[ebp]
  0009f	89 45 f4	 mov	 DWORD PTR __Pnode$3[ebp], eax
$LN4@Insert_nod:
  000a2	8b 45 f4	 mov	 eax, DWORD PTR __Pnode$3[ebp]
  000a5	8b 48 04	 mov	 ecx, DWORD PTR [eax+4]
  000a8	0f be 51 0c	 movsx	 edx, BYTE PTR [ecx+12]
  000ac	85 d2		 test	 edx, edx
  000ae	0f 85 43 01 00
	00		 jne	 $LN3@Insert_nod

; 672  :             if (_Pnode->_Parent == _Pnode->_Parent->_Parent->_Left) { // fixup red-red in left subtree

  000b4	8b 45 f4	 mov	 eax, DWORD PTR __Pnode$3[ebp]
  000b7	8b 48 04	 mov	 ecx, DWORD PTR [eax+4]
  000ba	8b 51 04	 mov	 edx, DWORD PTR [ecx+4]
  000bd	8b 45 f4	 mov	 eax, DWORD PTR __Pnode$3[ebp]
  000c0	8b 48 04	 mov	 ecx, DWORD PTR [eax+4]
  000c3	3b 0a		 cmp	 ecx, DWORD PTR [edx]
  000c5	0f 85 97 00 00
	00		 jne	 $LN10@Insert_nod

; 673  :                 const auto _Parent_sibling = _Pnode->_Parent->_Parent->_Right;

  000cb	8b 45 f4	 mov	 eax, DWORD PTR __Pnode$3[ebp]
  000ce	8b 48 04	 mov	 ecx, DWORD PTR [eax+4]
  000d1	8b 51 04	 mov	 edx, DWORD PTR [ecx+4]
  000d4	8b 42 08	 mov	 eax, DWORD PTR [edx+8]
  000d7	89 45 f0	 mov	 DWORD PTR __Parent_sibling$2[ebp], eax

; 674  :                 if (_Parent_sibling->_Color == _Red) { // parent's sibling has two red children, blacken both

  000da	8b 45 f0	 mov	 eax, DWORD PTR __Parent_sibling$2[ebp]
  000dd	0f be 48 0c	 movsx	 ecx, BYTE PTR [eax+12]
  000e1	85 c9		 test	 ecx, ecx
  000e3	75 2c		 jne	 SHORT $LN12@Insert_nod

; 675  :                     _Pnode->_Parent->_Color          = _Black;

  000e5	8b 45 f4	 mov	 eax, DWORD PTR __Pnode$3[ebp]
  000e8	8b 48 04	 mov	 ecx, DWORD PTR [eax+4]
  000eb	c6 41 0c 01	 mov	 BYTE PTR [ecx+12], 1

; 676  :                     _Parent_sibling->_Color          = _Black;

  000ef	8b 45 f0	 mov	 eax, DWORD PTR __Parent_sibling$2[ebp]
  000f2	c6 40 0c 01	 mov	 BYTE PTR [eax+12], 1

; 677  :                     _Pnode->_Parent->_Parent->_Color = _Red;

  000f6	8b 45 f4	 mov	 eax, DWORD PTR __Pnode$3[ebp]
  000f9	8b 48 04	 mov	 ecx, DWORD PTR [eax+4]
  000fc	8b 51 04	 mov	 edx, DWORD PTR [ecx+4]
  000ff	c6 42 0c 00	 mov	 BYTE PTR [edx+12], 0

; 678  :                     _Pnode                           = _Pnode->_Parent->_Parent;

  00103	8b 45 f4	 mov	 eax, DWORD PTR __Pnode$3[ebp]
  00106	8b 48 04	 mov	 ecx, DWORD PTR [eax+4]
  00109	8b 51 04	 mov	 edx, DWORD PTR [ecx+4]
  0010c	89 55 f4	 mov	 DWORD PTR __Pnode$3[ebp], edx

; 679  :                 } else { // parent's sibling has red and black children

  0010f	eb 4c		 jmp	 SHORT $LN13@Insert_nod
$LN12@Insert_nod:

; 680  :                     if (_Pnode == _Pnode->_Parent->_Right) { // rotate right child to left

  00111	8b 45 f4	 mov	 eax, DWORD PTR __Pnode$3[ebp]
  00114	8b 48 04	 mov	 ecx, DWORD PTR [eax+4]
  00117	8b 55 f4	 mov	 edx, DWORD PTR __Pnode$3[ebp]
  0011a	3b 51 08	 cmp	 edx, DWORD PTR [ecx+8]
  0011d	75 15		 jne	 SHORT $LN14@Insert_nod

; 681  :                         _Pnode = _Pnode->_Parent;

  0011f	8b 45 f4	 mov	 eax, DWORD PTR __Pnode$3[ebp]
  00122	8b 48 04	 mov	 ecx, DWORD PTR [eax+4]
  00125	89 4d f4	 mov	 DWORD PTR __Pnode$3[ebp], ecx

; 682  :                         _Lrotate(_Pnode);

  00128	8b 45 f4	 mov	 eax, DWORD PTR __Pnode$3[ebp]
  0012b	50		 push	 eax
  0012c	8b 4d fc	 mov	 ecx, DWORD PTR _this$[ebp]
  0012f	e8 00 00 00 00	 call	 ?_Lrotate@?$_Tree_val@U?$_Tree_simple_types@U?$pair@$$CBH_N@std@@@std@@@std@@QAEXPAU?$_Tree_node@U?$pair@$$CBH_N@std@@PAX@2@@Z ; std::_Tree_val<std::_Tree_simple_types<std::pair<int const ,bool> > >::_Lrotate
$LN14@Insert_nod:

; 683  :                     }
; 684  : 
; 685  :                     _Pnode->_Parent->_Color          = _Black; // propagate red up

  00134	8b 45 f4	 mov	 eax, DWORD PTR __Pnode$3[ebp]
  00137	8b 48 04	 mov	 ecx, DWORD PTR [eax+4]
  0013a	c6 41 0c 01	 mov	 BYTE PTR [ecx+12], 1

; 686  :                     _Pnode->_Parent->_Parent->_Color = _Red;

  0013e	8b 45 f4	 mov	 eax, DWORD PTR __Pnode$3[ebp]
  00141	8b 48 04	 mov	 ecx, DWORD PTR [eax+4]
  00144	8b 51 04	 mov	 edx, DWORD PTR [ecx+4]
  00147	c6 42 0c 00	 mov	 BYTE PTR [edx+12], 0

; 687  :                     _Rrotate(_Pnode->_Parent->_Parent);

  0014b	8b 45 f4	 mov	 eax, DWORD PTR __Pnode$3[ebp]
  0014e	8b 48 04	 mov	 ecx, DWORD PTR [eax+4]
  00151	8b 51 04	 mov	 edx, DWORD PTR [ecx+4]
  00154	52		 push	 edx
  00155	8b 4d fc	 mov	 ecx, DWORD PTR _this$[ebp]
  00158	e8 00 00 00 00	 call	 ?_Rrotate@?$_Tree_val@U?$_Tree_simple_types@U?$pair@$$CBH_N@std@@@std@@@std@@QAEXPAU?$_Tree_node@U?$pair@$$CBH_N@std@@PAX@2@@Z ; std::_Tree_val<std::_Tree_simple_types<std::pair<int const ,bool> > >::_Rrotate
$LN13@Insert_nod:

; 688  :                 }
; 689  :             } else { // fixup red-red in right subtree

  0015d	e9 90 00 00 00	 jmp	 $LN11@Insert_nod
$LN10@Insert_nod:

; 690  :                 const auto _Parent_sibling = _Pnode->_Parent->_Parent->_Left;

  00162	8b 45 f4	 mov	 eax, DWORD PTR __Pnode$3[ebp]
  00165	8b 48 04	 mov	 ecx, DWORD PTR [eax+4]
  00168	8b 51 04	 mov	 edx, DWORD PTR [ecx+4]
  0016b	8b 02		 mov	 eax, DWORD PTR [edx]
  0016d	89 45 ec	 mov	 DWORD PTR __Parent_sibling$1[ebp], eax

; 691  :                 if (_Parent_sibling->_Color == _Red) { // parent's sibling has two red children, blacken both

  00170	8b 45 ec	 mov	 eax, DWORD PTR __Parent_sibling$1[ebp]
  00173	0f be 48 0c	 movsx	 ecx, BYTE PTR [eax+12]
  00177	85 c9		 test	 ecx, ecx
  00179	75 2c		 jne	 SHORT $LN15@Insert_nod

; 692  :                     _Pnode->_Parent->_Color          = _Black;

  0017b	8b 45 f4	 mov	 eax, DWORD PTR __Pnode$3[ebp]
  0017e	8b 48 04	 mov	 ecx, DWORD PTR [eax+4]
  00181	c6 41 0c 01	 mov	 BYTE PTR [ecx+12], 1

; 693  :                     _Parent_sibling->_Color          = _Black;

  00185	8b 45 ec	 mov	 eax, DWORD PTR __Parent_sibling$1[ebp]
  00188	c6 40 0c 01	 mov	 BYTE PTR [eax+12], 1

; 694  :                     _Pnode->_Parent->_Parent->_Color = _Red;

  0018c	8b 45 f4	 mov	 eax, DWORD PTR __Pnode$3[ebp]
  0018f	8b 48 04	 mov	 ecx, DWORD PTR [eax+4]
  00192	8b 51 04	 mov	 edx, DWORD PTR [ecx+4]
  00195	c6 42 0c 00	 mov	 BYTE PTR [edx+12], 0

; 695  :                     _Pnode                           = _Pnode->_Parent->_Parent;

  00199	8b 45 f4	 mov	 eax, DWORD PTR __Pnode$3[ebp]
  0019c	8b 48 04	 mov	 ecx, DWORD PTR [eax+4]
  0019f	8b 51 04	 mov	 edx, DWORD PTR [ecx+4]
  001a2	89 55 f4	 mov	 DWORD PTR __Pnode$3[ebp], edx

; 696  :                 } else { // parent's sibling has red and black children

  001a5	eb 4b		 jmp	 SHORT $LN11@Insert_nod
$LN15@Insert_nod:

; 697  :                     if (_Pnode == _Pnode->_Parent->_Left) { // rotate left child to right

  001a7	8b 45 f4	 mov	 eax, DWORD PTR __Pnode$3[ebp]
  001aa	8b 48 04	 mov	 ecx, DWORD PTR [eax+4]
  001ad	8b 55 f4	 mov	 edx, DWORD PTR __Pnode$3[ebp]
  001b0	3b 11		 cmp	 edx, DWORD PTR [ecx]
  001b2	75 15		 jne	 SHORT $LN17@Insert_nod

; 698  :                         _Pnode = _Pnode->_Parent;

  001b4	8b 45 f4	 mov	 eax, DWORD PTR __Pnode$3[ebp]
  001b7	8b 48 04	 mov	 ecx, DWORD PTR [eax+4]
  001ba	89 4d f4	 mov	 DWORD PTR __Pnode$3[ebp], ecx

; 699  :                         _Rrotate(_Pnode);

  001bd	8b 45 f4	 mov	 eax, DWORD PTR __Pnode$3[ebp]
  001c0	50		 push	 eax
  001c1	8b 4d fc	 mov	 ecx, DWORD PTR _this$[ebp]
