; Listing generated by Microsoft (R) Optimizing Compiler Version 19.27.29111.0 

	TITLE	C:\Mu Online\Mu-GS-Webzen-MC-10093\GameServer\BattleSoccer.cpp
	.686P
	.XMM
	include listing.inc
	.model	flat

INCLUDELIB LIBCMT
INCLUDELIB OLDNAMES

PUBLIC	?__empty_global_delete@@YAXPAX@Z		; __empty_global_delete
PUBLIC	?__empty_global_delete@@YAXPAXI@Z		; __empty_global_delete
PUBLIC	??0CBattleSoccer@@QAE@XZ			; CBattleSoccer::CBattleSoccer
PUBLIC	??1CBattleSoccer@@UAE@XZ			; CBattleSoccer::~CBattleSoccer
PUBLIC	?SetGoalLeftRect@CBattleSoccer@@QAEXHHHH@Z	; CBattleSoccer::SetGoalLeftRect
PUBLIC	?SetGoalRightRect@CBattleSoccer@@QAEXHHHH@Z	; CBattleSoccer::SetGoalRightRect
PUBLIC	?SetGoalMove@CBattleSoccer@@QAEXH@Z		; CBattleSoccer::SetGoalMove
PUBLIC	?GetGoalMove@CBattleSoccer@@QAEHXZ		; CBattleSoccer::GetGoalMove
PUBLIC	??_GCBattleSoccer@@UAEPAXI@Z			; CBattleSoccer::`scalar deleting destructor'
PUBLIC	??_7CBattleSoccer@@6B@				; CBattleSoccer::`vftable'
PUBLIC	??_R4CBattleSoccer@@6B@				; CBattleSoccer::`RTTI Complete Object Locator'
PUBLIC	??_R0?AVCBattleSoccer@@@8			; CBattleSoccer `RTTI Type Descriptor'
PUBLIC	??_R3CBattleSoccer@@8				; CBattleSoccer::`RTTI Class Hierarchy Descriptor'
PUBLIC	??_R2CBattleSoccer@@8				; CBattleSoccer::`RTTI Base Class Array'
PUBLIC	??_R1A@?0A@EA@CBattleSoccer@@8			; CBattleSoccer::`RTTI Base Class Descriptor at (0,-1,0,64)'
PUBLIC	??_R1A@?0A@EA@CBattleGround@@8			; CBattleGround::`RTTI Base Class Descriptor at (0,-1,0,64)'
PUBLIC	??_R0?AVCBattleGround@@@8			; CBattleGround `RTTI Type Descriptor'
PUBLIC	??_R3CBattleGround@@8				; CBattleGround::`RTTI Class Hierarchy Descriptor'
PUBLIC	??_R2CBattleGround@@8				; CBattleGround::`RTTI Base Class Array'
EXTRN	??3@YAXPAXI@Z:PROC				; operator delete
EXTRN	??0CBattleGround@@QAE@XZ:PROC			; CBattleGround::CBattleGround
EXTRN	??1CBattleGround@@UAE@XZ:PROC			; CBattleGround::~CBattleGround
EXTRN	??_ECBattleSoccer@@UAEPAXI@Z:PROC		; CBattleSoccer::`vector deleting destructor'
EXTRN	??_7type_info@@6B@:QWORD			; type_info::`vftable'
;	COMDAT ??_R2CBattleGround@@8
rdata$r	SEGMENT
??_R2CBattleGround@@8 DD FLAT:??_R1A@?0A@EA@CBattleGround@@8 ; CBattleGround::`RTTI Base Class Array'
rdata$r	ENDS
;	COMDAT ??_R3CBattleGround@@8
rdata$r	SEGMENT
??_R3CBattleGround@@8 DD 00H				; CBattleGround::`RTTI Class Hierarchy Descriptor'
	DD	00H
	DD	01H
	DD	FLAT:??_R2CBattleGround@@8
rdata$r	ENDS
;	COMDAT ??_R0?AVCBattleGround@@@8
data$r	SEGMENT
??_R0?AVCBattleGround@@@8 DD FLAT:??_7type_info@@6B@	; CBattleGround `RTTI Type Descriptor'
	DD	00H
	DB	'.?AVCBattleGround@@', 00H
data$r	ENDS
;	COMDAT ??_R1A@?0A@EA@CBattleGround@@8
rdata$r	SEGMENT
??_R1A@?0A@EA@CBattleGround@@8 DD FLAT:??_R0?AVCBattleGround@@@8 ; CBattleGround::`RTTI Base Class Descriptor at (0,-1,0,64)'
	DD	00H
	DD	00H
	DD	0ffffffffH
	DD	00H
	DD	040H
	DD	FLAT:??_R3CBattleGround@@8
rdata$r	ENDS
;	COMDAT ??_R1A@?0A@EA@CBattleSoccer@@8
rdata$r	SEGMENT
??_R1A@?0A@EA@CBattleSoccer@@8 DD FLAT:??_R0?AVCBattleSoccer@@@8 ; CBattleSoccer::`RTTI Base Class Descriptor at (0,-1,0,64)'
	DD	01H
	DD	00H
	DD	0ffffffffH
	DD	00H
	DD	040H
	DD	FLAT:??_R3CBattleSoccer@@8
rdata$r	ENDS
;	COMDAT ??_R2CBattleSoccer@@8
rdata$r	SEGMENT
??_R2CBattleSoccer@@8 DD FLAT:??_R1A@?0A@EA@CBattleSoccer@@8 ; CBattleSoccer::`RTTI Base Class Array'
	DD	FLAT:??_R1A@?0A@EA@CBattleGround@@8
rdata$r	ENDS
;	COMDAT ??_R3CBattleSoccer@@8
rdata$r	SEGMENT
??_R3CBattleSoccer@@8 DD 00H				; CBattleSoccer::`RTTI Class Hierarchy Descriptor'
	DD	00H
	DD	02H
	DD	FLAT:??_R2CBattleSoccer@@8
rdata$r	ENDS
;	COMDAT ??_R0?AVCBattleSoccer@@@8
data$r	SEGMENT
??_R0?AVCBattleSoccer@@@8 DD FLAT:??_7type_info@@6B@	; CBattleSoccer `RTTI Type Descriptor'
	DD	00H
	DB	'.?AVCBattleSoccer@@', 00H
data$r	ENDS
;	COMDAT ??_R4CBattleSoccer@@6B@
rdata$r	SEGMENT
??_R4CBattleSoccer@@6B@ DD 00H				; CBattleSoccer::`RTTI Complete Object Locator'
	DD	00H
	DD	00H
	DD	FLAT:??_R0?AVCBattleSoccer@@@8
	DD	FLAT:??_R3CBattleSoccer@@8
rdata$r	ENDS
;	COMDAT ??_7CBattleSoccer@@6B@
CONST	SEGMENT
??_7CBattleSoccer@@6B@ DD FLAT:??_R4CBattleSoccer@@6B@	; CBattleSoccer::`vftable'
	DD	FLAT:??_ECBattleSoccer@@UAEPAXI@Z
CONST	ENDS
; Function compile flags: /Odtp /ZI
;	COMDAT ??_GCBattleSoccer@@UAEPAXI@Z
_TEXT	SEGMENT
_this$ = -4						; size = 4
___flags$ = 8						; size = 4
??_GCBattleSoccer@@UAEPAXI@Z PROC			; CBattleSoccer::`scalar deleting destructor', COMDAT
; _this$ = ecx
  00000	55		 push	 ebp
  00001	8b ec		 mov	 ebp, esp
  00003	83 ec 44	 sub	 esp, 68			; 00000044H
  00006	53		 push	 ebx
  00007	56		 push	 esi
  00008	57		 push	 edi
  00009	89 4d fc	 mov	 DWORD PTR _this$[ebp], ecx
  0000c	8b 4d fc	 mov	 ecx, DWORD PTR _this$[ebp]
  0000f	e8 00 00 00 00	 call	 ??1CBattleSoccer@@UAE@XZ ; CBattleSoccer::~CBattleSoccer
  00014	8b 45 08	 mov	 eax, DWORD PTR ___flags$[ebp]
  00017	83 e0 01	 and	 eax, 1
  0001a	74 11		 je	 SHORT $LN2@scalar
  0001c	68 90 00 00 00	 push	 144			; 00000090H
  00021	8b 45 fc	 mov	 eax, DWORD PTR _this$[ebp]
  00024	50		 push	 eax
  00025	e8 00 00 00 00	 call	 ??3@YAXPAXI@Z		; operator delete
  0002a	83 c4 08	 add	 esp, 8
$LN2@scalar:
  0002d	8b 45 fc	 mov	 eax, DWORD PTR _this$[ebp]
  00030	5f		 pop	 edi
  00031	5e		 pop	 esi
  00032	5b		 pop	 ebx
  00033	8b e5		 mov	 esp, ebp
  00035	5d		 pop	 ebp
  00036	c2 04 00	 ret	 4
??_GCBattleSoccer@@UAEPAXI@Z ENDP			; CBattleSoccer::`scalar deleting destructor'
_TEXT	ENDS
; Function compile flags: /Odtp /ZI
; File C:\Mu Online\Mu-GS-Webzen-MC-10093\GameServer\BattleSoccer.cpp
;	COMDAT ?GetGoalMove@CBattleSoccer@@QAEHXZ
_TEXT	SEGMENT
_this$ = -4						; size = 4
?GetGoalMove@CBattleSoccer@@QAEHXZ PROC			; CBattleSoccer::GetGoalMove, COMDAT
; _this$ = ecx

; 29   : {

  00000	55		 push	 ebp
  00001	8b ec		 mov	 ebp, esp
  00003	83 ec 44	 sub	 esp, 68			; 00000044H
  00006	53		 push	 ebx
  00007	56		 push	 esi
  00008	57		 push	 edi
  00009	89 4d fc	 mov	 DWORD PTR _this$[ebp], ecx

; 30   : 	return m_goalmove;

  0000c	8b 45 fc	 mov	 eax, DWORD PTR _this$[ebp]
  0000f	8b 40 60	 mov	 eax, DWORD PTR [eax+96]

; 31   : }

  00012	5f		 pop	 edi
  00013	5e		 pop	 esi
  00014	5b		 pop	 ebx
  00015	8b e5		 mov	 esp, ebp
  00017	5d		 pop	 ebp
  00018	c3		 ret	 0
?GetGoalMove@CBattleSoccer@@QAEHXZ ENDP			; CBattleSoccer::GetGoalMove
_TEXT	ENDS
; Function compile flags: /Odtp /ZI
; File C:\Mu Online\Mu-GS-Webzen-MC-10093\GameServer\BattleSoccer.cpp
;	COMDAT ?SetGoalMove@CBattleSoccer@@QAEXH@Z
_TEXT	SEGMENT
_this$ = -4						; size = 4
_set_code$ = 8						; size = 4
?SetGoalMove@CBattleSoccer@@QAEXH@Z PROC		; CBattleSoccer::SetGoalMove, COMDAT
; _this$ = ecx

; 24   : {

  00000	55		 push	 ebp
  00001	8b ec		 mov	 ebp, esp
  00003	83 ec 44	 sub	 esp, 68			; 00000044H
  00006	53		 push	 ebx
  00007	56		 push	 esi
  00008	57		 push	 edi
  00009	89 4d fc	 mov	 DWORD PTR _this$[ebp], ecx

; 25   : 	m_goalmove = set_code;

  0000c	8b 45 fc	 mov	 eax, DWORD PTR _this$[ebp]
  0000f	8b 4d 08	 mov	 ecx, DWORD PTR _set_code$[ebp]
  00012	89 48 60	 mov	 DWORD PTR [eax+96], ecx

; 26   : }

  00015	5f		 pop	 edi
  00016	5e		 pop	 esi
  00017	5b		 pop	 ebx
  00018	8b e5		 mov	 esp, ebp
  0001a	5d		 pop	 ebp
  0001b	c2 04 00	 ret	 4
?SetGoalMove@CBattleSoccer@@QAEXH@Z ENDP		; CBattleSoccer::SetGoalMove
_TEXT	ENDS
; Function compile flags: /Odtp /ZI
; File C:\Mu Online\Mu-GS-Webzen-MC-10093\GameServer\BattleSoccer.cpp
;	COMDAT ?SetGoalRightRect@CBattleSoccer@@QAEXHHHH@Z
_TEXT	SEGMENT
_this$ = -4						; size = 4
_x$ = 8							; size = 4
_y$ = 12						; size = 4
_xl$ = 16						; size = 4
_yl$ = 20						; size = 4
?SetGoalRightRect@CBattleSoccer@@QAEXHHHH@Z PROC	; CBattleSoccer::SetGoalRightRect, COMDAT
; _this$ = ecx

; 42   : {

  00000	55		 push	 ebp
  00001	8b ec		 mov	 ebp, esp
  00003	83 ec 44	 sub	 esp, 68			; 00000044H
  00006	53		 push	 ebx
  00007	56		 push	 esi
  00008	57		 push	 edi
  00009	89 4d fc	 mov	 DWORD PTR _this$[ebp], ecx

; 43   : 	m_GoalRight.left = x;

  0000c	8b 45 fc	 mov	 eax, DWORD PTR _this$[ebp]
  0000f	8b 4d 08	 mov	 ecx, DWORD PTR _x$[ebp]
  00012	89 48 78	 mov	 DWORD PTR [eax+120], ecx

; 44   : 	m_GoalRight.top  = y;

  00015	8b 45 fc	 mov	 eax, DWORD PTR _this$[ebp]
  00018	8b 4d 0c	 mov	 ecx, DWORD PTR _y$[ebp]
  0001b	89 48 7c	 mov	 DWORD PTR [eax+124], ecx

; 45   : 	m_GoalRight.right = xl;

  0001e	8b 45 fc	 mov	 eax, DWORD PTR _this$[ebp]
  00021	8b 4d 10	 mov	 ecx, DWORD PTR _xl$[ebp]
  00024	89 88 80 00 00
	00		 mov	 DWORD PTR [eax+128], ecx

; 46   : 	m_GoalRight.bottom = yl;

  0002a	8b 45 fc	 mov	 eax, DWORD PTR _this$[ebp]
  0002d	8b 4d 14	 mov	 ecx, DWORD PTR _yl$[ebp]
  00030	89 88 84 00 00
	00		 mov	 DWORD PTR [eax+132], ecx

; 47   : }

  00036	5f		 pop	 edi
  00037	5e		 pop	 esi
  00038	5b		 pop	 ebx
  00039	8b e5		 mov	 esp, ebp
  0003b	5d		 pop	 ebp
  0003c	c2 10 00	 ret	 16			; 00000010H
?SetGoalRightRect@CBattleSoccer@@QAEXHHHH@Z ENDP	; CBattleSoccer::SetGoalRightRect
_TEXT	ENDS
; Function compile flags: /Odtp /ZI
; File C:\Mu Online\Mu-GS-Webzen-MC-10093\GameServer\BattleSoccer.cpp
;	COMDAT ?SetGoalLeftRect@CBattleSoccer@@QAEXHHHH@Z
_TEXT	SEGMENT
_this$ = -4						; size = 4
_x$ = 8							; size = 4
_y$ = 12						; size = 4
_xl$ = 16						; size = 4
_yl$ = 20						; size = 4
?SetGoalLeftRect@CBattleSoccer@@QAEXHHHH@Z PROC		; CBattleSoccer::SetGoalLeftRect, COMDAT
; _this$ = ecx

; 34   : {

  00000	55		 push	 ebp
  00001	8b ec		 mov	 ebp, esp
  00003	83 ec 44	 sub	 esp, 68			; 00000044H
  00006	53		 push	 ebx
  00007	56		 push	 esi
  00008	57		 push	 edi
  00009	89 4d fc	 mov	 DWORD PTR _this$[ebp], ecx

; 35   : 	m_GoalLeft.left = x;

  0000c	8b 45 fc	 mov	 eax, DWORD PTR _this$[ebp]
  0000f	8b 4d 08	 mov	 ecx, DWORD PTR _x$[ebp]
  00012	89 48 68	 mov	 DWORD PTR [eax+104], ecx

; 36   : 	m_GoalLeft.top  = y;

  00015	8b 45 fc	 mov	 eax, DWORD PTR _this$[ebp]
  00018	8b 4d 0c	 mov	 ecx, DWORD PTR _y$[ebp]
  0001b	89 48 6c	 mov	 DWORD PTR [eax+108], ecx

; 37   : 	m_GoalLeft.right = xl;

  0001e	8b 45 fc	 mov	 eax, DWORD PTR _this$[ebp]
  00021	8b 4d 10	 mov	 ecx, DWORD PTR _xl$[ebp]
  00024	89 48 70	 mov	 DWORD PTR [eax+112], ecx

; 38   : 	m_GoalLeft.bottom = yl;

  00027	8b 45 fc	 mov	 eax, DWORD PTR _this$[ebp]
  0002a	8b 4d 14	 mov	 ecx, DWORD PTR _yl$[ebp]
  0002d	89 48 74	 mov	 DWORD PTR [eax+116], ecx

; 39   : }

  00030	5f		 pop	 edi
  00031	5e		 pop	 esi
  00032	5b		 pop	 ebx
  00033	8b e5		 mov	 esp, ebp
  00035	5d		 pop	 ebp
  00036	c2 10 00	 ret	 16			; 00000010H
?SetGoalLeftRect@CBattleSoccer@@QAEXHHHH@Z ENDP		; CBattleSoccer::SetGoalLeftRect
_TEXT	ENDS
; Function compile flags: /Odtp /ZI
; File C:\Mu Online\Mu-GS-Webzen-MC-10093\GameServer\BattleSoccer.cpp
;	COMDAT ??1CBattleSoccer@@UAE@XZ
_TEXT	SEGMENT
_this$ = -4						; size = 4
??1CBattleSoccer@@UAE@XZ PROC				; CBattleSoccer::~CBattleSoccer, COMDAT
; _this$ = ecx

; 19   : {

  00000	55		 push	 ebp
  00001	8b ec		 mov	 ebp, esp
  00003	83 ec 44	 sub	 esp, 68			; 00000044H
  00006	53		 push	 ebx
  00007	56		 push	 esi
  00008	57		 push	 edi
  00009	89 4d fc	 mov	 DWORD PTR _this$[ebp], ecx
  0000c	8b 45 fc	 mov	 eax, DWORD PTR _this$[ebp]
  0000f	c7 00 00 00 00
	00		 mov	 DWORD PTR [eax], OFFSET ??_7CBattleSoccer@@6B@

; 20   : 
; 21   : }

  00015	8b 4d fc	 mov	 ecx, DWORD PTR _this$[ebp]
  00018	e8 00 00 00 00	 call	 ??1CBattleGround@@UAE@XZ ; CBattleGround::~CBattleGround
  0001d	5f		 pop	 edi
  0001e	5e		 pop	 esi
  0001f	5b		 pop	 ebx
  00020	8b e5		 mov	 esp, ebp
  00022	5d		 pop	 ebp
  00023	c3		 ret	 0
??1CBattleSoccer@@UAE@XZ ENDP				; CBattleSoccer::~CBattleSoccer
_TEXT	ENDS
; Function compile flags: /Odtp /ZI
; File C:\Mu Online\Mu-GS-Webzen-MC-10093\GameServer\BattleSoccer.cpp
;	COMDAT ??0CBattleSoccer@@QAE@XZ
_TEXT	SEGMENT
_this$ = -4						; size = 4
??0CBattleSoccer@@QAE@XZ PROC				; CBattleSoccer::CBattleSoccer, COMDAT
; _this$ = ecx

; 13   : {

  00000	55		 push	 ebp
  00001	8b ec		 mov	 ebp, esp
  00003	83 ec 44	 sub	 esp, 68			; 00000044H
  00006	53		 push	 ebx
  00007	56		 push	 esi
  00008	57		 push	 edi
  00009	89 4d fc	 mov	 DWORD PTR _this$[ebp], ecx
  0000c	8b 4d fc	 mov	 ecx, DWORD PTR _this$[ebp]
  0000f	e8 00 00 00 00	 call	 ??0CBattleGround@@QAE@XZ ; CBattleGround::CBattleGround
  00014	8b 45 fc	 mov	 eax, DWORD PTR _this$[ebp]
  00017	c7 00 00 00 00
	00		 mov	 DWORD PTR [eax], OFFSET ??_7CBattleSoccer@@6B@

; 14   : 	m_goalmove = 0;

  0001d	8b 45 fc	 mov	 eax, DWORD PTR _this$[ebp]
  00020	c7 40 60 00 00
	00 00		 mov	 DWORD PTR [eax+96], 0

; 15   : 	m_BallIndex = 0;

  00027	8b 45 fc	 mov	 eax, DWORD PTR _this$[ebp]
  0002a	c7 40 64 00 00
	00 00		 mov	 DWORD PTR [eax+100], 0

; 16   : }

  00031	8b 45 fc	 mov	 eax, DWORD PTR _this$[ebp]
  00034	5f		 pop	 edi
  00035	5e		 pop	 esi
  00036	5b		 pop	 ebx
  00037	8b e5		 mov	 esp, ebp
  00039	5d		 pop	 ebp
  0003a	c3		 ret	 0
??0CBattleSoccer@@QAE@XZ ENDP				; CBattleSoccer::CBattleSoccer
_TEXT	ENDS
; Function compile flags: /Odtp /ZI
; File C:\Mu Online\Mu-GS-Webzen-MC-10093\GameServer\BattleSoccer.cpp
;	COMDAT ?__empty_global_delete@@YAXPAXI@Z
_TEXT	SEGMENT
___formal$ = 8						; size = 4
___formal$ = 12						; size = 4
?__empty_global_delete@@YAXPAXI@Z PROC			; __empty_global_delete, COMDAT

  00000	55		 push	 ebp
  00001	8b ec		 mov	 ebp, esp
  00003	83 ec 40	 sub	 esp, 64			; 00000040H
  00006	53		 push	 ebx
  00007	56		 push	 esi
  00008	57		 push	 edi
  00009	5f		 pop	 edi
  0000a	5e		 pop	 esi
  0000b	5b		 pop	 ebx
  0000c	8b e5		 mov	 esp, ebp
  0000e	5d		 pop	 ebp
  0000f	c3		 ret	 0
?__empty_global_delete@@YAXPAXI@Z ENDP			; __empty_global_delete
_TEXT	ENDS
; Function compile flags: /Odtp /ZI
; File C:\Mu Online\Mu-GS-Webzen-MC-10093\GameServer\BattleSoccer.cpp
;	COMDAT ?__empty_global_delete@@YAXPAX@Z
_TEXT	SEGMENT
___formal$ = 8						; size = 4
?__empty_global_delete@@YAXPAX@Z PROC			; __empty_global_delete, COMDAT

  00000	55		 push	 ebp
  00001	8b ec		 mov	 ebp, esp
  00003	83 ec 40	 sub	 esp, 64			; 00000040H
  00006	53		 push	 ebx
  00007	56		 push	 esi
  00008	57		 push	 edi
  00009	5f		 pop	 edi
  0000a	5e		 pop	 esi
  0000b	5b		 pop	 ebx
  0000c	8b e5		 mov	 esp, ebp
  0000e	5d		 pop	 ebp
  0000f	c3		 ret	 0
?__empty_global_delete@@YAXPAX@Z ENDP			; __empty_global_delete
_TEXT	ENDS
END
