; Listing generated by Microsoft (R) Optimizing Compiler Version 19.27.29111.0 

	TITLE	C:\Mu Online\Mu-GS-Webzen-MC-10093\GameServer\BattleSoccerManager.cpp
	.686P
	.XMM
	include listing.inc
	.model	flat

INCLUDELIB LIBCMT
INCLUDELIB OLDNAMES

PUBLIC	?gBSGround@@3PAPAVCBattleSoccer@@A		; gBSGround
_BSS	SEGMENT
?gBSGround@@3PAPAVCBattleSoccer@@A DD 01H DUP (?)	; gBSGround
_BSS	ENDS
PUBLIC	?__empty_global_delete@@YAXPAX@Z		; __empty_global_delete
PUBLIC	?__empty_global_delete@@YAXPAXI@Z		; __empty_global_delete
PUBLIC	??0CBattleSoccerManager@@QAE@XZ			; CBattleSoccerManager::CBattleSoccerManager
PUBLIC	??1CBattleSoccerManager@@UAE@XZ			; CBattleSoccerManager::~CBattleSoccerManager
PUBLIC	??_GCBattleSoccerManager@@UAEPAXI@Z		; CBattleSoccerManager::`scalar deleting destructor'
PUBLIC	?InitBattleSoccer@@YAXXZ			; InitBattleSoccer
PUBLIC	?ClearBattleSoccer@@YAXXZ			; ClearBattleSoccer
PUBLIC	?gCheckBlankBattleGround@@YAHXZ			; gCheckBlankBattleGround
PUBLIC	?gBattleGroundEnable@@YAXHH@Z			; gBattleGroundEnable
PUBLIC	?gCheckBattleGroundTimer@@YAHXZ			; gCheckBattleGroundTimer
PUBLIC	?gBattleGetTeamPosition@@YAXHHAAF0@Z		; gBattleGetTeamPosition
PUBLIC	?GetBattleTeamName@@YAPADHH@Z			; GetBattleTeamName
PUBLIC	?SetBattleTeamScore@@YAXHHH@Z			; SetBattleTeamScore
PUBLIC	?GetBattleTeamScore@@YAHHH@Z			; GetBattleTeamScore
PUBLIC	?BattleSoccerGoalStart@@YAXH@Z			; BattleSoccerGoalStart
PUBLIC	?GetBattleSoccerGoalMove@@YAHH@Z		; GetBattleSoccerGoalMove
PUBLIC	?BattleSoccerGoalEnd@@YAXH@Z			; BattleSoccerGoalEnd
PUBLIC	?gSetBattleTeamMaster@@YAXHHPADPAU_GUILD_INFO_STRUCT@@@Z ; gSetBattleTeamMaster
PUBLIC	?gBattleSoccerScoreUpdate@@YAHHH@Z		; gBattleSoccerScoreUpdate
PUBLIC	?gCheckGoal@@YAHHHAAH@Z				; gCheckGoal
PUBLIC	?gCheckBattleGround@@YAHPAVOBJECTSTRUCT@@@Z	; gCheckBattleGround
PUBLIC	??_7CBattleSoccerManager@@6B@			; CBattleSoccerManager::`vftable'
PUBLIC	??_C@_04CGFJFPFD@none@				; `string'
PUBLIC	??_R4CBattleSoccerManager@@6B@			; CBattleSoccerManager::`RTTI Complete Object Locator'
PUBLIC	??_R0?AVCBattleSoccerManager@@@8		; CBattleSoccerManager `RTTI Type Descriptor'
PUBLIC	??_R3CBattleSoccerManager@@8			; CBattleSoccerManager::`RTTI Class Hierarchy Descriptor'
PUBLIC	??_R2CBattleSoccerManager@@8			; CBattleSoccerManager::`RTTI Base Class Array'
PUBLIC	??_R1A@?0A@EA@CBattleSoccerManager@@8		; CBattleSoccerManager::`RTTI Base Class Descriptor at (0,-1,0,64)'
EXTRN	??2@YAPAXI@Z:PROC				; operator new
EXTRN	??3@YAXPAXI@Z:PROC				; operator delete
EXTRN	_rand:PROC
EXTRN	?gObjGuildWarEndSend@@YAXPAU_GUILD_INFO_STRUCT@@0EE@Z:PROC ; gObjGuildWarEndSend
EXTRN	?gObjGuildWarProc@@YAHPAU_GUILD_INFO_STRUCT@@0H@Z:PROC ; gObjGuildWarProc
EXTRN	?gObjGuildWarEnd@@YAXPAU_GUILD_INFO_STRUCT@@0@Z:PROC ; gObjGuildWarEnd
EXTRN	?GCTimeViewSend@@YAXHH@Z:PROC			; GCTimeViewSend
EXTRN	??_ECBattleSoccerManager@@UAEPAXI@Z:PROC	; CBattleSoccerManager::`vector deleting destructor'
EXTRN	?SetGroundRect@CBattleGround@@QAEXHHHHH@Z:PROC	; CBattleGround::SetGroundRect
EXTRN	?SetBattleType@CBattleGround@@QAEXH@Z:PROC	; CBattleGround::SetBattleType
EXTRN	?Enable@CBattleGround@@QAEXH@Z:PROC		; CBattleGround::Enable
EXTRN	?GetUsed@CBattleGround@@QAEHXZ:PROC		; CBattleGround::GetUsed
EXTRN	?SetTeamMaster@CBattleGround@@QAEXHPAD@Z:PROC	; CBattleGround::SetTeamMaster
EXTRN	?SetTeamName@CBattleGround@@QAEXHPAD@Z:PROC	; CBattleGround::SetTeamName
EXTRN	?GetTeamName@CBattleGround@@QAEPADH@Z:PROC	; CBattleGround::GetTeamName
EXTRN	?SetTimer@CBattleGround@@QAEXH@Z:PROC		; CBattleGround::SetTimer
EXTRN	?GetTimer@CBattleGround@@QAEHXZ:PROC		; CBattleGround::GetTimer
EXTRN	?GetScore@CBattleGround@@QAEHH@Z:PROC		; CBattleGround::GetScore
EXTRN	?SetScore@CBattleGround@@QAEXHH@Z:PROC		; CBattleGround::SetScore
EXTRN	??0CBattleSoccer@@QAE@XZ:PROC			; CBattleSoccer::CBattleSoccer
EXTRN	?SetGoalLeftRect@CBattleSoccer@@QAEXHHHH@Z:PROC	; CBattleSoccer::SetGoalLeftRect
EXTRN	?SetGoalRightRect@CBattleSoccer@@QAEXHHHH@Z:PROC ; CBattleSoccer::SetGoalRightRect
EXTRN	?SetGoalMove@CBattleSoccer@@QAEXH@Z:PROC	; CBattleSoccer::SetGoalMove
EXTRN	?GetGoalMove@CBattleSoccer@@QAEHXZ:PROC		; CBattleSoccer::GetGoalMove
EXTRN	?BattleInfoSend@CGMMng@@QAEXPADE0E@Z:PROC	; CGMMng::BattleInfoSend
EXTRN	@__security_check_cookie@4:PROC
EXTRN	___CxxFrameHandler3:PROC
EXTRN	??_7type_info@@6B@:QWORD			; type_info::`vftable'
EXTRN	?cManager@@3VCGMMng@@A:BYTE			; cManager
EXTRN	___security_cookie:DWORD
;	COMDAT ??_R1A@?0A@EA@CBattleSoccerManager@@8
rdata$r	SEGMENT
??_R1A@?0A@EA@CBattleSoccerManager@@8 DD FLAT:??_R0?AVCBattleSoccerManager@@@8 ; CBattleSoccerManager::`RTTI Base Class Descriptor at (0,-1,0,64)'
	DD	00H
	DD	00H
	DD	0ffffffffH
	DD	00H
	DD	040H
	DD	FLAT:??_R3CBattleSoccerManager@@8
rdata$r	ENDS
;	COMDAT ??_R2CBattleSoccerManager@@8
rdata$r	SEGMENT
??_R2CBattleSoccerManager@@8 DD FLAT:??_R1A@?0A@EA@CBattleSoccerManager@@8 ; CBattleSoccerManager::`RTTI Base Class Array'
rdata$r	ENDS
;	COMDAT ??_R3CBattleSoccerManager@@8
rdata$r	SEGMENT
??_R3CBattleSoccerManager@@8 DD 00H			; CBattleSoccerManager::`RTTI Class Hierarchy Descriptor'
	DD	00H
	DD	01H
	DD	FLAT:??_R2CBattleSoccerManager@@8
rdata$r	ENDS
;	COMDAT ??_R0?AVCBattleSoccerManager@@@8
data$r	SEGMENT
??_R0?AVCBattleSoccerManager@@@8 DD FLAT:??_7type_info@@6B@ ; CBattleSoccerManager `RTTI Type Descriptor'
	DD	00H
	DB	'.?AVCBattleSoccerManager@@', 00H
data$r	ENDS
;	COMDAT ??_R4CBattleSoccerManager@@6B@
rdata$r	SEGMENT
??_R4CBattleSoccerManager@@6B@ DD 00H			; CBattleSoccerManager::`RTTI Complete Object Locator'
	DD	00H
	DD	00H
	DD	FLAT:??_R0?AVCBattleSoccerManager@@@8
	DD	FLAT:??_R3CBattleSoccerManager@@8
rdata$r	ENDS
;	COMDAT ??_C@_04CGFJFPFD@none@
CONST	SEGMENT
??_C@_04CGFJFPFD@none@ DB 'none', 00H			; `string'
CONST	ENDS
;	COMDAT ??_7CBattleSoccerManager@@6B@
CONST	SEGMENT
??_7CBattleSoccerManager@@6B@ DD FLAT:??_R4CBattleSoccerManager@@6B@ ; CBattleSoccerManager::`vftable'
	DD	FLAT:??_ECBattleSoccerManager@@UAEPAXI@Z
CONST	ENDS
;	COMDAT xdata$x
xdata$x	SEGMENT
__unwindtable$?InitBattleSoccer@@YAXXZ DD 0ffffffffH
	DD	FLAT:__unwindfunclet$?InitBattleSoccer@@YAXXZ$0
__ehfuncinfo$?InitBattleSoccer@@YAXXZ DD 019930522H
	DD	01H
	DD	FLAT:__unwindtable$?InitBattleSoccer@@YAXXZ
	DD	2 DUP(00H)
	DD	2 DUP(00H)
	DD	00H
	DD	01H
xdata$x	ENDS
; Function compile flags: /Odtp /ZI
; File C:\Mu Online\Mu-GS-Webzen-MC-10093\GameServer\BattleSoccerManager.cpp
;	COMDAT ?gCheckBattleGround@@YAHPAVOBJECTSTRUCT@@@Z
_TEXT	SEGMENT
_n$1 = -4						; size = 4
_lpObj$ = 8						; size = 4
?gCheckBattleGround@@YAHPAVOBJECTSTRUCT@@@Z PROC	; gCheckBattleGround, COMDAT

; 448  : {

  00000	55		 push	 ebp
  00001	8b ec		 mov	 ebp, esp
  00003	83 ec 44	 sub	 esp, 68			; 00000044H
  00006	53		 push	 ebx
  00007	56		 push	 esi
  00008	57		 push	 edi

; 449  : 
; 450  : 	for( int n=0; n<MAX_BATTLESOCCERGROUND; n++)

  00009	c7 45 fc 00 00
	00 00		 mov	 DWORD PTR _n$1[ebp], 0
  00010	eb 09		 jmp	 SHORT $LN4@gCheckBatt
$LN2@gCheckBatt:
  00012	8b 45 fc	 mov	 eax, DWORD PTR _n$1[ebp]
  00015	83 c0 01	 add	 eax, 1
  00018	89 45 fc	 mov	 DWORD PTR _n$1[ebp], eax
$LN4@gCheckBatt:
  0001b	83 7d fc 01	 cmp	 DWORD PTR _n$1[ebp], 1
  0001f	0f 8d 5d 01 00
	00		 jge	 $LN3@gCheckBatt

; 451  : 	{
; 452  : 		if( gBSGround[n]->m_Set == TRUE )

  00025	8b 45 fc	 mov	 eax, DWORD PTR _n$1[ebp]
  00028	8b 0c 85 00 00
	00 00		 mov	 ecx, DWORD PTR ?gBSGround@@3PAPAVCBattleSoccer@@A[eax*4]
  0002f	83 79 48 01	 cmp	 DWORD PTR [ecx+72], 1
  00033	0f 85 44 01 00
	00		 jne	 $LN5@gCheckBatt

; 453  : 		{
; 454  : 			if( lpObj->X >= gBSGround[n]->m_rect.left && lpObj->X <= gBSGround[n]->m_rect.right &&
; 455  : 				lpObj->Y >= gBSGround[n]->m_rect.top  && lpObj->Y <= gBSGround[n]->m_rect.bottom )

  00039	8b 45 08	 mov	 eax, DWORD PTR _lpObj$[ebp]
  0003c	0f bf 88 04 01
	00 00		 movsx	 ecx, WORD PTR [eax+260]
  00043	8b 55 fc	 mov	 edx, DWORD PTR _n$1[ebp]
  00046	8b 04 95 00 00
	00 00		 mov	 eax, DWORD PTR ?gBSGround@@3PAPAVCBattleSoccer@@A[edx*4]
  0004d	3b 48 38	 cmp	 ecx, DWORD PTR [eax+56]
  00050	7c 53		 jl	 SHORT $LN6@gCheckBatt
  00052	8b 45 08	 mov	 eax, DWORD PTR _lpObj$[ebp]
  00055	0f bf 88 04 01
	00 00		 movsx	 ecx, WORD PTR [eax+260]
  0005c	8b 55 fc	 mov	 edx, DWORD PTR _n$1[ebp]
  0005f	8b 04 95 00 00
	00 00		 mov	 eax, DWORD PTR ?gBSGround@@3PAPAVCBattleSoccer@@A[edx*4]
  00066	3b 48 40	 cmp	 ecx, DWORD PTR [eax+64]
  00069	7f 3a		 jg	 SHORT $LN6@gCheckBatt
  0006b	8b 45 08	 mov	 eax, DWORD PTR _lpObj$[ebp]
  0006e	0f bf 88 06 01
	00 00		 movsx	 ecx, WORD PTR [eax+262]
  00075	8b 55 fc	 mov	 edx, DWORD PTR _n$1[ebp]
  00078	8b 04 95 00 00
	00 00		 mov	 eax, DWORD PTR ?gBSGround@@3PAPAVCBattleSoccer@@A[edx*4]
  0007f	3b 48 3c	 cmp	 ecx, DWORD PTR [eax+60]
  00082	7c 21		 jl	 SHORT $LN6@gCheckBatt
  00084	8b 45 08	 mov	 eax, DWORD PTR _lpObj$[ebp]
  00087	0f bf 88 06 01
	00 00		 movsx	 ecx, WORD PTR [eax+262]
  0008e	8b 55 fc	 mov	 edx, DWORD PTR _n$1[ebp]
  00091	8b 04 95 00 00
	00 00		 mov	 eax, DWORD PTR ?gBSGround@@3PAPAVCBattleSoccer@@A[edx*4]
  00098	3b 48 44	 cmp	 ecx, DWORD PTR [eax+68]
  0009b	7f 08		 jg	 SHORT $LN6@gCheckBatt

; 456  : 			{
; 457  : 				return n;

  0009d	8b 45 fc	 mov	 eax, DWORD PTR _n$1[ebp]
  000a0	e9 e0 00 00 00	 jmp	 $LN1@gCheckBatt
$LN6@gCheckBatt:

; 458  : 			}
; 459  : 			if( lpObj->X >= gBSGround[n]->m_GoalLeft.left && lpObj->X <= gBSGround[n]->m_GoalLeft.right &&
; 460  : 				lpObj->Y >= gBSGround[n]->m_GoalLeft.top  && lpObj->Y <= gBSGround[n]->m_GoalLeft.bottom )

  000a5	8b 45 08	 mov	 eax, DWORD PTR _lpObj$[ebp]
  000a8	0f bf 88 04 01
	00 00		 movsx	 ecx, WORD PTR [eax+260]
  000af	8b 55 fc	 mov	 edx, DWORD PTR _n$1[ebp]
  000b2	8b 04 95 00 00
	00 00		 mov	 eax, DWORD PTR ?gBSGround@@3PAPAVCBattleSoccer@@A[edx*4]
  000b9	3b 48 68	 cmp	 ecx, DWORD PTR [eax+104]
  000bc	7c 50		 jl	 SHORT $LN7@gCheckBatt
  000be	8b 45 08	 mov	 eax, DWORD PTR _lpObj$[ebp]
  000c1	0f bf 88 04 01
	00 00		 movsx	 ecx, WORD PTR [eax+260]
  000c8	8b 55 fc	 mov	 edx, DWORD PTR _n$1[ebp]
  000cb	8b 04 95 00 00
	00 00		 mov	 eax, DWORD PTR ?gBSGround@@3PAPAVCBattleSoccer@@A[edx*4]
  000d2	3b 48 70	 cmp	 ecx, DWORD PTR [eax+112]
  000d5	7f 37		 jg	 SHORT $LN7@gCheckBatt
  000d7	8b 45 08	 mov	 eax, DWORD PTR _lpObj$[ebp]
  000da	0f bf 88 06 01
	00 00		 movsx	 ecx, WORD PTR [eax+262]
  000e1	8b 55 fc	 mov	 edx, DWORD PTR _n$1[ebp]
  000e4	8b 04 95 00 00
	00 00		 mov	 eax, DWORD PTR ?gBSGround@@3PAPAVCBattleSoccer@@A[edx*4]
  000eb	3b 48 6c	 cmp	 ecx, DWORD PTR [eax+108]
  000ee	7c 1e		 jl	 SHORT $LN7@gCheckBatt
  000f0	8b 45 08	 mov	 eax, DWORD PTR _lpObj$[ebp]
  000f3	0f bf 88 06 01
	00 00		 movsx	 ecx, WORD PTR [eax+262]
  000fa	8b 55 fc	 mov	 edx, DWORD PTR _n$1[ebp]
  000fd	8b 04 95 00 00
	00 00		 mov	 eax, DWORD PTR ?gBSGround@@3PAPAVCBattleSoccer@@A[edx*4]
  00104	3b 48 74	 cmp	 ecx, DWORD PTR [eax+116]
  00107	7f 05		 jg	 SHORT $LN7@gCheckBatt

; 461  : 			{
; 462  : 				return n;

  00109	8b 45 fc	 mov	 eax, DWORD PTR _n$1[ebp]
  0010c	eb 77		 jmp	 SHORT $LN1@gCheckBatt
$LN7@gCheckBatt:

; 463  : 			}
; 464  : 			if( lpObj->X >= gBSGround[n]->m_GoalRight.left && lpObj->X <= gBSGround[n]->m_GoalRight.right &&
; 465  : 				lpObj->Y >= gBSGround[n]->m_GoalRight.top  && lpObj->Y <= gBSGround[n]->m_GoalRight.bottom )

  0010e	8b 45 08	 mov	 eax, DWORD PTR _lpObj$[ebp]
  00111	0f bf 88 04 01
	00 00		 movsx	 ecx, WORD PTR [eax+260]
  00118	8b 55 fc	 mov	 edx, DWORD PTR _n$1[ebp]
  0011b	8b 04 95 00 00
	00 00		 mov	 eax, DWORD PTR ?gBSGround@@3PAPAVCBattleSoccer@@A[edx*4]
  00122	3b 48 78	 cmp	 ecx, DWORD PTR [eax+120]
  00125	7c 56		 jl	 SHORT $LN5@gCheckBatt
  00127	8b 45 08	 mov	 eax, DWORD PTR _lpObj$[ebp]
  0012a	0f bf 88 04 01
	00 00		 movsx	 ecx, WORD PTR [eax+260]
  00131	8b 55 fc	 mov	 edx, DWORD PTR _n$1[ebp]
  00134	8b 04 95 00 00
	00 00		 mov	 eax, DWORD PTR ?gBSGround@@3PAPAVCBattleSoccer@@A[edx*4]
  0013b	3b 88 80 00 00
	00		 cmp	 ecx, DWORD PTR [eax+128]
  00141	7f 3a		 jg	 SHORT $LN5@gCheckBatt
  00143	8b 45 08	 mov	 eax, DWORD PTR _lpObj$[ebp]
  00146	0f bf 88 06 01
	00 00		 movsx	 ecx, WORD PTR [eax+262]
  0014d	8b 55 fc	 mov	 edx, DWORD PTR _n$1[ebp]
  00150	8b 04 95 00 00
	00 00		 mov	 eax, DWORD PTR ?gBSGround@@3PAPAVCBattleSoccer@@A[edx*4]
  00157	3b 48 7c	 cmp	 ecx, DWORD PTR [eax+124]
  0015a	7c 21		 jl	 SHORT $LN5@gCheckBatt
  0015c	8b 45 08	 mov	 eax, DWORD PTR _lpObj$[ebp]
  0015f	0f bf 88 06 01
	00 00		 movsx	 ecx, WORD PTR [eax+262]
  00166	8b 55 fc	 mov	 edx, DWORD PTR _n$1[ebp]
  00169	8b 04 95 00 00
	00 00		 mov	 eax, DWORD PTR ?gBSGround@@3PAPAVCBattleSoccer@@A[edx*4]
  00170	3b 88 84 00 00
	00		 cmp	 ecx, DWORD PTR [eax+132]
  00176	7f 05		 jg	 SHORT $LN5@gCheckBatt

; 466  : 			{
; 467  : 				return n;

  00178	8b 45 fc	 mov	 eax, DWORD PTR _n$1[ebp]
  0017b	eb 08		 jmp	 SHORT $LN1@gCheckBatt
$LN5@gCheckBatt:

; 468  : 			}
; 469  : 		}
; 470  : 	}

  0017d	e9 90 fe ff ff	 jmp	 $LN2@gCheckBatt
$LN3@gCheckBatt:

; 471  : 	return -1;

  00182	83 c8 ff	 or	 eax, -1
$LN1@gCheckBatt:

; 472  : }

  00185	5f		 pop	 edi
  00186	5e		 pop	 esi
  00187	5b		 pop	 ebx
  00188	8b e5		 mov	 esp, ebp
  0018a	5d		 pop	 ebp
  0018b	c3		 ret	 0
?gCheckBattleGround@@YAHPAVOBJECTSTRUCT@@@Z ENDP	; gCheckBattleGround
_TEXT	ENDS
; Function compile flags: /Odtp /ZI
; File C:\Mu Online\Mu-GS-Webzen-MC-10093\GameServer\BattleSoccerManager.cpp
;	COMDAT ?gCheckGoal@@YAHHHAAH@Z
_TEXT	SEGMENT
_n$1 = -4						; size = 4
_x$ = 8							; size = 4
_y$ = 12						; size = 4
_ground$ = 16						; size = 4
?gCheckGoal@@YAHHHAAH@Z PROC				; gCheckGoal, COMDAT

; 423  : {

  00000	55		 push	 ebp
  00001	8b ec		 mov	 ebp, esp
  00003	83 ec 44	 sub	 esp, 68			; 00000044H
  00006	53		 push	 ebx
  00007	56		 push	 esi
  00008	57		 push	 edi

; 424  : 	for( int n=0; n<MAX_BATTLESOCCERGROUND; n++)

  00009	c7 45 fc 00 00
	00 00		 mov	 DWORD PTR _n$1[ebp], 0
  00010	eb 09		 jmp	 SHORT $LN4@gCheckGoal
$LN2@gCheckGoal:
  00012	8b 45 fc	 mov	 eax, DWORD PTR _n$1[ebp]
  00015	83 c0 01	 add	 eax, 1
  00018	89 45 fc	 mov	 DWORD PTR _n$1[ebp], eax
$LN4@gCheckGoal:
  0001b	83 7d fc 01	 cmp	 DWORD PTR _n$1[ebp], 1
  0001f	0f 8d ca 00 00
	00		 jge	 $LN3@gCheckGoal

; 425  : 	{
; 426  : 		if( gBSGround[n]->m_Set == TRUE )

  00025	8b 45 fc	 mov	 eax, DWORD PTR _n$1[ebp]
  00028	8b 0c 85 00 00
	00 00		 mov	 ecx, DWORD PTR ?gBSGround@@3PAPAVCBattleSoccer@@A[eax*4]
  0002f	83 79 48 01	 cmp	 DWORD PTR [ecx+72], 1
  00033	0f 85 b1 00 00
	00		 jne	 $LN5@gCheckGoal

; 427  : 		{
; 428  : 			if( x >= gBSGround[n]->m_GoalLeft.left && x <= gBSGround[n]->m_GoalLeft.right &&
; 429  : 				y >= gBSGround[n]->m_GoalLeft.top  && y <= gBSGround[n]->m_GoalLeft.bottom )

  00039	8b 45 fc	 mov	 eax, DWORD PTR _n$1[ebp]
  0003c	8b 0c 85 00 00
	00 00		 mov	 ecx, DWORD PTR ?gBSGround@@3PAPAVCBattleSoccer@@A[eax*4]
  00043	8b 55 08	 mov	 edx, DWORD PTR _x$[ebp]
  00046	3b 51 68	 cmp	 edx, DWORD PTR [ecx+104]
  00049	7c 42		 jl	 SHORT $LN6@gCheckGoal
  0004b	8b 45 fc	 mov	 eax, DWORD PTR _n$1[ebp]
  0004e	8b 0c 85 00 00
	00 00		 mov	 ecx, DWORD PTR ?gBSGround@@3PAPAVCBattleSoccer@@A[eax*4]
  00055	8b 55 08	 mov	 edx, DWORD PTR _x$[ebp]
  00058	3b 51 70	 cmp	 edx, DWORD PTR [ecx+112]
  0005b	7f 30		 jg	 SHORT $LN6@gCheckGoal
  0005d	8b 45 fc	 mov	 eax, DWORD PTR _n$1[ebp]
  00060	8b 0c 85 00 00
	00 00		 mov	 ecx, DWORD PTR ?gBSGround@@3PAPAVCBattleSoccer@@A[eax*4]
  00067	8b 55 0c	 mov	 edx, DWORD PTR _y$[ebp]
  0006a	3b 51 6c	 cmp	 edx, DWORD PTR [ecx+108]
  0006d	7c 1e		 jl	 SHORT $LN6@gCheckGoal
  0006f	8b 45 fc	 mov	 eax, DWORD PTR _n$1[ebp]
  00072	8b 0c 85 00 00
	00 00		 mov	 ecx, DWORD PTR ?gBSGround@@3PAPAVCBattleSoccer@@A[eax*4]
  00079	8b 55 0c	 mov	 edx, DWORD PTR _y$[ebp]
  0007c	3b 51 74	 cmp	 edx, DWORD PTR [ecx+116]
  0007f	7f 0c		 jg	 SHORT $LN6@gCheckGoal

; 430  : 			{
; 431  : 				ground = n;

  00081	8b 45 10	 mov	 eax, DWORD PTR _ground$[ebp]
  00084	8b 4d fc	 mov	 ecx, DWORD PTR _n$1[ebp]
  00087	89 08		 mov	 DWORD PTR [eax], ecx

; 432  : 				return 0;

  00089	33 c0		 xor	 eax, eax
  0008b	eb 65		 jmp	 SHORT $LN1@gCheckGoal
$LN6@gCheckGoal:

; 433  : 			}
; 434  : 			if( x >= gBSGround[n]->m_GoalRight.left && x <= gBSGround[n]->m_GoalRight.right &&
; 435  : 				y >= gBSGround[n]->m_GoalRight.top  && y <= gBSGround[n]->m_GoalRight.bottom )

  0008d	8b 45 fc	 mov	 eax, DWORD PTR _n$1[ebp]
  00090	8b 0c 85 00 00
	00 00		 mov	 ecx, DWORD PTR ?gBSGround@@3PAPAVCBattleSoccer@@A[eax*4]
  00097	8b 55 08	 mov	 edx, DWORD PTR _x$[ebp]
  0009a	3b 51 78	 cmp	 edx, DWORD PTR [ecx+120]
  0009d	7c 4b		 jl	 SHORT $LN5@gCheckGoal
  0009f	8b 45 fc	 mov	 eax, DWORD PTR _n$1[ebp]
  000a2	8b 0c 85 00 00
	00 00		 mov	 ecx, DWORD PTR ?gBSGround@@3PAPAVCBattleSoccer@@A[eax*4]
  000a9	8b 55 08	 mov	 edx, DWORD PTR _x$[ebp]
  000ac	3b 91 80 00 00
	00		 cmp	 edx, DWORD PTR [ecx+128]
  000b2	7f 36		 jg	 SHORT $LN5@gCheckGoal
  000b4	8b 45 fc	 mov	 eax, DWORD PTR _n$1[ebp]
  000b7	8b 0c 85 00 00
	00 00		 mov	 ecx, DWORD PTR ?gBSGround@@3PAPAVCBattleSoccer@@A[eax*4]
  000be	8b 55 0c	 mov	 edx, DWORD PTR _y$[ebp]
  000c1	3b 51 7c	 cmp	 edx, DWORD PTR [ecx+124]
  000c4	7c 24		 jl	 SHORT $LN5@gCheckGoal
  000c6	8b 45 fc	 mov	 eax, DWORD PTR _n$1[ebp]
  000c9	8b 0c 85 00 00
	00 00		 mov	 ecx, DWORD PTR ?gBSGround@@3PAPAVCBattleSoccer@@A[eax*4]
  000d0	8b 55 0c	 mov	 edx, DWORD PTR _y$[ebp]
  000d3	3b 91 84 00 00
	00		 cmp	 edx, DWORD PTR [ecx+132]
  000d9	7f 0f		 jg	 SHORT $LN5@gCheckGoal

; 436  : 			{
; 437  : 				ground = n;

  000db	8b 45 10	 mov	 eax, DWORD PTR _ground$[ebp]
  000de	8b 4d fc	 mov	 ecx, DWORD PTR _n$1[ebp]
  000e1	89 08		 mov	 DWORD PTR [eax], ecx

; 438  : 				return 1;

  000e3	b8 01 00 00 00	 mov	 eax, 1
  000e8	eb 08		 jmp	 SHORT $LN1@gCheckGoal
$LN5@gCheckGoal:

; 439  : 			}
; 440  : 		}
; 441  : 	}

  000ea	e9 23 ff ff ff	 jmp	 $LN2@gCheckGoal
$LN3@gCheckGoal:

; 442  : 	return -1;

  000ef	83 c8 ff	 or	 eax, -1
$LN1@gCheckGoal:

; 443  : }

  000f2	5f		 pop	 edi
  000f3	5e		 pop	 esi
  000f4	5b		 pop	 ebx
  000f5	8b e5		 mov	 esp, ebp
  000f7	5d		 pop	 ebp
  000f8	c3		 ret	 0
?gCheckGoal@@YAHHHAAH@Z ENDP				; gCheckGoal
_TEXT	ENDS
; Function compile flags: /Odtp /ZI
; File C:\Mu Online\Mu-GS-Webzen-MC-10093\GameServer\BattleSoccerManager.cpp
;	COMDAT ?gBattleSoccerScoreUpdate@@YAHHH@Z
_TEXT	SEGMENT
_bGoalTeam$ = -17					; size = 1
_lpTargetGuild$ = -16					; size = 4
_lpGuild$ = -12						; size = 4
_totalscore$ = -8					; size = 4
_score$ = -4						; size = 4
_ground$ = 8						; size = 4
_team$ = 12						; size = 4
?gBattleSoccerScoreUpdate@@YAHHH@Z PROC			; gBattleSoccerScoreUpdate, COMDAT

; 265  : {

  00000	55		 push	 ebp
  00001	8b ec		 mov	 ebp, esp
  00003	83 ec 54	 sub	 esp, 84			; 00000054H
  00006	53		 push	 ebx
  00007	56		 push	 esi
  00008	57		 push	 edi

; 266  : 
; 267  : #ifdef MODIFY_GUILDWAR_REQUEST_PROCESS_20050704
; 268  : 	if( !CHECK_BATTLESOCCERGROUND_INDEX(ground) )
; 269  : 		return FALSE;
; 270  : #endif
; 271  : 
; 272  : 	int score=20;

  00009	c7 45 fc 14 00
	00 00		 mov	 DWORD PTR _score$[ebp], 20 ; 00000014H

; 273  : 	int totalscore=1;

  00010	c7 45 f8 01 00
	00 00		 mov	 DWORD PTR _totalscore$[ebp], 1

; 274  : 	LPGUILD_INFO lpGuild;
; 275  : 	LPGUILD_INFO lpTargetGuild;
; 276  : 	BYTE bGoalTeam;
; 277  : 
; 278  : 	if( team == 0 ) {

  00017	83 7d 0c 00	 cmp	 DWORD PTR _team$[ebp], 0
  0001b	75 2c		 jne	 SHORT $LN2@gBattleSoc

; 279  : 		lpGuild = gBSGround[ground]->m_BlueTeam;

  0001d	8b 45 08	 mov	 eax, DWORD PTR _ground$[ebp]
  00020	8b 0c 85 00 00
	00 00		 mov	 ecx, DWORD PTR ?gBSGround@@3PAPAVCBattleSoccer@@A[eax*4]
  00027	8b 91 8c 00 00
	00		 mov	 edx, DWORD PTR [ecx+140]
  0002d	89 55 f4	 mov	 DWORD PTR _lpGuild$[ebp], edx

; 280  : 		lpTargetGuild = gBSGround[ground]->m_RedTeam;

  00030	8b 45 08	 mov	 eax, DWORD PTR _ground$[ebp]
  00033	8b 0c 85 00 00
	00 00		 mov	 ecx, DWORD PTR ?gBSGround@@3PAPAVCBattleSoccer@@A[eax*4]
  0003a	8b 91 88 00 00
	00		 mov	 edx, DWORD PTR [ecx+136]
  00040	89 55 f0	 mov	 DWORD PTR _lpTargetGuild$[ebp], edx

; 281  : 		bGoalTeam = 1;

  00043	c6 45 ef 01	 mov	 BYTE PTR _bGoalTeam$[ebp], 1

; 282  : 	}

  00047	eb 2a		 jmp	 SHORT $LN3@gBattleSoc
$LN2@gBattleSoc:

; 283  : 	else {
; 284  : 		lpGuild = gBSGround[ground]->m_RedTeam;

  00049	8b 45 08	 mov	 eax, DWORD PTR _ground$[ebp]
  0004c	8b 0c 85 00 00
	00 00		 mov	 ecx, DWORD PTR ?gBSGround@@3PAPAVCBattleSoccer@@A[eax*4]
  00053	8b 91 88 00 00
	00		 mov	 edx, DWORD PTR [ecx+136]
  00059	89 55 f4	 mov	 DWORD PTR _lpGuild$[ebp], edx

; 285  : 		lpTargetGuild = gBSGround[ground]->m_BlueTeam;

  0005c	8b 45 08	 mov	 eax, DWORD PTR _ground$[ebp]
  0005f	8b 0c 85 00 00
	00 00		 mov	 ecx, DWORD PTR ?gBSGround@@3PAPAVCBattleSoccer@@A[eax*4]
  00066	8b 91 8c 00 00
	00		 mov	 edx, DWORD PTR [ecx+140]
  0006c	89 55 f0	 mov	 DWORD PTR _lpTargetGuild$[ebp], edx

; 286  : 		bGoalTeam = 0;

  0006f	c6 45 ef 00	 mov	 BYTE PTR _bGoalTeam$[ebp], 0
$LN3@gBattleSoc:

; 287  : 	}
; 288  : 
; 289  : 	if( lpGuild == NULL )

  00073	83 7d f4 00	 cmp	 DWORD PTR _lpGuild$[ebp], 0
  00077	75 07		 jne	 SHORT $LN4@gBattleSoc

; 290  : 	{
; 291  : 		return FALSE;

  00079	33 c0		 xor	 eax, eax
  0007b	e9 94 00 00 00	 jmp	 $LN1@gBattleSoc
$LN4@gBattleSoc:

; 292  : 	}
; 293  : 
; 294  : #ifdef _NEW_EXDB_
; 295  : 	if( gObjGuildWarProc(lpGuild, lpTargetGuild, score) == 1 )

  00080	8b 45 fc	 mov	 eax, DWORD PTR _score$[ebp]
  00083	50		 push	 eax
  00084	8b 4d f0	 mov	 ecx, DWORD PTR _lpTargetGuild$[ebp]
  00087	51		 push	 ecx
  00088	8b 55 f4	 mov	 edx, DWORD PTR _lpGuild$[ebp]
  0008b	52		 push	 edx
  0008c	e8 00 00 00 00	 call	 ?gObjGuildWarProc@@YAHPAU_GUILD_INFO_STRUCT@@0H@Z ; gObjGuildWarProc
  00091	83 c4 0c	 add	 esp, 12			; 0000000cH
  00094	83 f8 01	 cmp	 eax, 1
  00097	75 76		 jne	 SHORT $LN5@gBattleSoc

; 296  : 	{
; 297  : 		if( lpGuild->WarType == BTT_SOCCER )

  00099	8b 45 f4	 mov	 eax, DWORD PTR _lpGuild$[ebp]
  0009c	0f b6 88 92 05
	00 00		 movzx	 ecx, BYTE PTR [eax+1426]
  000a3	83 f9 01	 cmp	 ecx, 1
  000a6	75 67		 jne	 SHORT $LN5@gBattleSoc

; 298  : 		{
; 299  : 			gObjGuildWarEndSend(lpGuild, lpTargetGuild, 0x01, 0x00);

  000a8	6a 00		 push	 0
  000aa	6a 01		 push	 1
  000ac	8b 45 f0	 mov	 eax, DWORD PTR _lpTargetGuild$[ebp]
  000af	50		 push	 eax
  000b0	8b 4d f4	 mov	 ecx, DWORD PTR _lpGuild$[ebp]
  000b3	51		 push	 ecx
  000b4	e8 00 00 00 00	 call	 ?gObjGuildWarEndSend@@YAXPAU_GUILD_INFO_STRUCT@@0EE@Z ; gObjGuildWarEndSend
  000b9	83 c4 10	 add	 esp, 16			; 00000010H

; 300  : 			gBattleGroundEnable(lpGuild->BattleGroundIndex, 0);

  000bc	6a 00		 push	 0
  000be	8b 45 f4	 mov	 eax, DWORD PTR _lpGuild$[ebp]
  000c1	0f b6 88 93 05
	00 00		 movzx	 ecx, BYTE PTR [eax+1427]
  000c8	51		 push	 ecx
  000c9	e8 00 00 00 00	 call	 ?gBattleGroundEnable@@YAXHH@Z ; gBattleGroundEnable
  000ce	83 c4 08	 add	 esp, 8

; 301  : 			gObjGuildWarEnd(lpGuild, lpTargetGuild);

  000d1	8b 45 f0	 mov	 eax, DWORD PTR _lpTargetGuild$[ebp]
  000d4	50		 push	 eax
  000d5	8b 4d f4	 mov	 ecx, DWORD PTR _lpGuild$[ebp]
  000d8	51		 push	 ecx
  000d9	e8 00 00 00 00	 call	 ?gObjGuildWarEnd@@YAXPAU_GUILD_INFO_STRUCT@@0@Z ; gObjGuildWarEnd
  000de	83 c4 08	 add	 esp, 8

; 302  : 			cManager.BattleInfoSend(GetBattleTeamName(0, 0), 255, GetBattleTeamName(0, 1), 255);			

  000e1	68 ff 00 00 00	 push	 255			; 000000ffH
  000e6	6a 01		 push	 1
  000e8	6a 00		 push	 0
  000ea	e8 00 00 00 00	 call	 ?GetBattleTeamName@@YAPADHH@Z ; GetBattleTeamName
  000ef	83 c4 08	 add	 esp, 8
  000f2	50		 push	 eax
  000f3	68 ff 00 00 00	 push	 255			; 000000ffH
  000f8	6a 00		 push	 0
  000fa	6a 00		 push	 0
  000fc	e8 00 00 00 00	 call	 ?GetBattleTeamName@@YAPADHH@Z ; GetBattleTeamName
  00101	83 c4 08	 add	 esp, 8
  00104	50		 push	 eax
  00105	b9 00 00 00 00	 mov	 ecx, OFFSET ?cManager@@3VCGMMng@@A ; cManager
  0010a	e8 00 00 00 00	 call	 ?BattleInfoSend@CGMMng@@QAEXPADE0E@Z ; CGMMng::BattleInfoSend
$LN5@gBattleSoc:

; 303  : 
; 304  : #ifdef WORLD_TOURNAMENT_EVENT_SETTING
; 305  : 			PMSG_MATCH_RESULT	pMsg;
; 306  : 			PHeadSubSetB((LPBYTE)&pMsg, 0xF3, 0x24, sizeof( pMsg) );
; 307  : 			pMsg.MatchType	= eMatchType_BattleSoccer;
; 308  : 
; 309  : 			memcpy(pMsg.MatchTeamName1, lpGuild->Name, MAX_IDSTRING);							
; 310  : 			pMsg.Score1 = lpGuild->PlayScore;
; 311  : 
; 312  : 			memcpy(pMsg.MatchTeamName2, lpTargetGuild->Name, MAX_IDSTRING);
; 313  : 			pMsg.Score2 = lpTargetGuild->PlayScore;
; 314  : 
; 315  : 			for( int UserIndex=0; UserIndex<MAX_GUILD; UserIndex++)
; 316  : 			{
; 317  : 				if( lpGuild->Use[UserIndex] )
; 318  : 				{
; 319  : 					int number = lpGuild->Index[UserIndex];
; 320  : 					if( number >= 0 )
; 321  : 					{
; 322  : 						DataSend(number, (LPBYTE)&pMsg, pMsg.h.size);
; 323  : 					}
; 324  : 				}
; 325  : 			}
; 326  : 
; 327  : 			for( UserIndex=0; UserIndex<MAX_GUILD; UserIndex++)
; 328  : 			{
; 329  : 				if( lpTargetGuild->Use[UserIndex] )
; 330  : 				{
; 331  : 					int number = lpTargetGuild->Index[UserIndex];
; 332  : 					if( number >= 0 )
; 333  : 					{
; 334  : 						DataSend(number, (LPBYTE)&pMsg, pMsg.h.size);
; 335  : 					}
; 336  : 				}
; 337  : 			}
; 338  : 
; 339  : 			LogAddTD("[WTEvent] BattleSoccer Result Send = %s-%d %s-%d", 
; 340  : 					 lpGuild->Name , lpGuild->PlayScore, 
; 341  : 					 lpTargetGuild->Name , lpTargetGuild->PlayScore);
; 342  : 
; 343  : #endif
; 344  : 			/*lpGuild->WarDeclareState = 0;
; 345  : 			lpGuild->WarState		 = 0;
; 346  : 			LogAdd("길드 전투 종료 메시지 : %s", lpGuild->Name);
; 347  : 			
; 348  : 			if( lpTargetGuild != NULL )
; 349  : 			{
; 350  : 				lpTargetGuild->WarDeclareState	= 0;
; 351  : 				lpTargetGuild->WarState			= 0;
; 352  : 				LogAdd("길드 전투 종료 메시지 : %s", lpTargetGuild->Name);
; 353  : 				LPGUILD_INFO	lpTguild;
; 354  : 				
; 355  : 				lpTguild = lpGuild->lpTargetGuildNode;
; 356  : 				lpGuild->lpTargetGuildNode = NULL;
; 357  : 				lpTguild->lpTargetGuildNode = NULL;
; 358  : 			}
; 359  : 			else 
; 360  : 			{
; 361  : 				lpGuild->lpTargetGuildNode = NULL;
; 362  : 			}
; 363  : 			*/
; 364  : 		}
; 365  : 	}
; 366  : #endif
; 367  : 
; 368  : 	/*
; 369  : 	lpGuild->PlayScore += score;
; 370  : 
; 371  : 	char szTemp[256];
; 372  : 
; 373  : 	wsprintf(szTemp,"골~~~인!! %s 팀이 %d점을 획득하였습니다", lpGuild->Name, score);
; 374  : 	
; 375  : 	//GCServerMsgStringSend(szTemp, aIndex, BYTE type);
; 376  : 	//GCServerMsgStringSend("", , BYTE type);
; 377  : 	
; 378  : 	if( lpGuild->PlayScore >= 100  ) // 게임 종료
; 379  : 	{		
; 380  : 		LPOBJECTSTRUCT	lpObj = (LPOBJECTSTRUCT)&gObj[lpGuild->Index[0]];
; 381  : 		
; 382  : 		gObjGuildWarEndSend(lpObj, 0x01, 0x00);
; 383  : 		//DGGuildScoreUpdate(lpObj->lpGuild->Name, lpObj->lpGuild->TotalScore);
; 384  : 		//DGGuildScoreUpdate(lpTargetObj->lpGuild->Name, lpTargetObj->lpGuild->TotalScore);
; 385  : 	}
; 386  : 	else
; 387  : 	{
; 388  : 		for( n=0; n<MAX_GUILD; n++)
; 389  : 		{
; 390  : 			if( lpGuild->Use[n] )
; 391  : 			{
; 392  : 				if( lpGuild->Index[n] >=0 )
; 393  : 				{
; 394  : 					GCGuildWarScore(lpGuild->Index[n]);
; 395  : 					GCServerMsgStringSend(szTemp, lpGuild->Index[n], 1);
; 396  : 				}
; 397  : 			}
; 398  : 		}
; 399  : 		for( n=0; n<MAX_GUILD; n++)
; 400  : 		{
; 401  : 			if( lpGuild->lpTargetGuildNode!= NULL )
; 402  : 			{
; 403  : 				if( lpGuild->lpTargetGuildNode->Use[n] )
; 404  : 				{
; 405  : 					if( lpGuild->lpTargetGuildNode->Index[n] >=0 )
; 406  : 					{
; 407  : 						GCGuildWarScore(lpGuild->lpTargetGuildNode->Index[n]);
; 408  : 						//GCGoalSend(lpGuild->lpTargetGuildNode->Index[n], bGoalTeam);
; 409  : 						GCServerMsgStringSend(szTemp, lpGuild->lpTargetGuildNode->Index[n], 1);
; 410  : 					}
; 411  : 				}
; 412  : 			}
; 413  : 		}
; 414  : 	}
; 415  : 	wsprintf(szTemp, "%s ( %d ) VS %s ( %d )",lpGuild->Name, lpGuild->PlayScore, lpGuild->lpTargetGuildNode->Name, lpGuild->lpTargetGuildNode->PlayScore);
; 416  : 	cManager.ManagerSendData(szTemp, 1);
; 417  : 	*/
; 418  : 	return TRUE;

  0010f	b8 01 00 00 00	 mov	 eax, 1
$LN1@gBattleSoc:

; 419  : }

  00114	5f		 pop	 edi
  00115	5e		 pop	 esi
  00116	5b		 pop	 ebx
  00117	8b e5		 mov	 esp, ebp
  00119	5d		 pop	 ebp
  0011a	c3		 ret	 0
?gBattleSoccerScoreUpdate@@YAHHH@Z ENDP			; gBattleSoccerScoreUpdate
_TEXT	ENDS
; Function compile flags: /Odtp /ZI
; File C:\Mu Online\Mu-GS-Webzen-MC-10093\GameServer\BattleSoccerManager.cpp
;	COMDAT ?gSetBattleTeamMaster@@YAXHHPADPAU_GUILD_INFO_STRUCT@@@Z
_TEXT	SEGMENT
_ground$ = 8						; size = 4
_team$ = 12						; size = 4
_szname$ = 16						; size = 4
_lpGuild$ = 20						; size = 4
?gSetBattleTeamMaster@@YAXHHPADPAU_GUILD_INFO_STRUCT@@@Z PROC ; gSetBattleTeamMaster, COMDAT

; 154  : {

  00000	55		 push	 ebp
  00001	8b ec		 mov	 ebp, esp
  00003	83 ec 40	 sub	 esp, 64			; 00000040H
  00006	53		 push	 ebx
  00007	56		 push	 esi
  00008	57		 push	 edi

; 155  : 
; 156  : #ifdef MODIFY_GUILDWAR_REQUEST_PROCESS_20050704
; 157  : 	if( !CHECK_BATTLESOCCERGROUND_INDEX(ground) )
; 158  : 		return;
; 159  : #endif
; 160  : 
; 161  : 	gBSGround[ground]->SetTeamMaster(team, szname);

  00009	8b 45 10	 mov	 eax, DWORD PTR _szname$[ebp]
  0000c	50		 push	 eax
  0000d	8b 4d 0c	 mov	 ecx, DWORD PTR _team$[ebp]
  00010	51		 push	 ecx
  00011	8b 55 08	 mov	 edx, DWORD PTR _ground$[ebp]
  00014	8b 0c 95 00 00
	00 00		 mov	 ecx, DWORD PTR ?gBSGround@@3PAPAVCBattleSoccer@@A[edx*4]
  0001b	e8 00 00 00 00	 call	 ?SetTeamMaster@CBattleGround@@QAEXHPAD@Z ; CBattleGround::SetTeamMaster

; 162  : 	gBSGround[ground]->SetTeamName(team, lpGuild->Name);

  00020	8b 45 14	 mov	 eax, DWORD PTR _lpGuild$[ebp]
  00023	83 c0 04	 add	 eax, 4
  00026	50		 push	 eax
  00027	8b 4d 0c	 mov	 ecx, DWORD PTR _team$[ebp]
  0002a	51		 push	 ecx
  0002b	8b 55 08	 mov	 edx, DWORD PTR _ground$[ebp]
  0002e	8b 0c 95 00 00
	00 00		 mov	 ecx, DWORD PTR ?gBSGround@@3PAPAVCBattleSoccer@@A[edx*4]
  00035	e8 00 00 00 00	 call	 ?SetTeamName@CBattleGround@@QAEXHPAD@Z ; CBattleGround::SetTeamName

; 163  : 	if( team == 0 ) gBSGround[ground]->m_RedTeam = lpGuild;

  0003a	83 7d 0c 00	 cmp	 DWORD PTR _team$[ebp], 0
  0003e	75 15		 jne	 SHORT $LN2@gSetBattle
  00040	8b 45 08	 mov	 eax, DWORD PTR _ground$[ebp]
  00043	8b 0c 85 00 00
	00 00		 mov	 ecx, DWORD PTR ?gBSGround@@3PAPAVCBattleSoccer@@A[eax*4]
  0004a	8b 55 14	 mov	 edx, DWORD PTR _lpGuild$[ebp]
  0004d	89 91 88 00 00
	00		 mov	 DWORD PTR [ecx+136], edx
  00053	eb 13		 jmp	 SHORT $LN1@gSetBattle
$LN2@gSetBattle:

; 164  : 	else gBSGround[ground]->m_BlueTeam = lpGuild;

  00055	8b 45 08	 mov	 eax, DWORD PTR _ground$[ebp]
  00058	8b 0c 85 00 00
	00 00		 mov	 ecx, DWORD PTR ?gBSGround@@3PAPAVCBattleSoccer@@A[eax*4]
  0005f	8b 55 14	 mov	 edx, DWORD PTR _lpGuild$[ebp]
  00062	89 91 8c 00 00
	00		 mov	 DWORD PTR [ecx+140], edx
$LN1@gSetBattle:

; 165  : 
; 166  : }

  00068	5f		 pop	 edi
  00069	5e		 pop	 esi
  0006a	5b		 pop	 ebx
  0006b	8b e5		 mov	 esp, ebp
  0006d	5d		 pop	 ebp
  0006e	c3		 ret	 0
?gSetBattleTeamMaster@@YAXHHPADPAU_GUILD_INFO_STRUCT@@@Z ENDP ; gSetBattleTeamMaster
_TEXT	ENDS
; Function compile flags: /Odtp /ZI
; File C:\Mu Online\Mu-GS-Webzen-MC-10093\GameServer\BattleSoccerManager.cpp
;	COMDAT ?BattleSoccerGoalEnd@@YAXH@Z
_TEXT	SEGMENT
_ground$ = 8						; size = 4
?BattleSoccerGoalEnd@@YAXH@Z PROC			; BattleSoccerGoalEnd, COMDAT

; 245  : {

  00000	55		 push	 ebp
  00001	8b ec		 mov	 ebp, esp
  00003	83 ec 40	 sub	 esp, 64			; 00000040H
  00006	53		 push	 ebx
  00007	56		 push	 esi
  00008	57		 push	 edi

; 246  : #ifdef MODIFY_GUILDWAR_REQUEST_PROCESS_20050704
; 247  : 	if( !CHECK_BATTLESOCCERGROUND_INDEX(ground) )
; 248  : 		return;
; 249  : #endif
; 250  : 	gBSGround[ground]->SetGoalMove(0);

  00009	6a 00		 push	 0
  0000b	8b 45 08	 mov	 eax, DWORD PTR _ground$[ebp]
  0000e	8b 0c 85 00 00
	00 00		 mov	 ecx, DWORD PTR ?gBSGround@@3PAPAVCBattleSoccer@@A[eax*4]
  00015	e8 00 00 00 00	 call	 ?SetGoalMove@CBattleSoccer@@QAEXH@Z ; CBattleSoccer::SetGoalMove

; 251  : }

  0001a	5f		 pop	 edi
  0001b	5e		 pop	 esi
  0001c	5b		 pop	 ebx
  0001d	8b e5		 mov	 esp, ebp
  0001f	5d		 pop	 ebp
  00020	c3		 ret	 0
?BattleSoccerGoalEnd@@YAXH@Z ENDP			; BattleSoccerGoalEnd
_TEXT	ENDS
; Function compile flags: /Odtp /ZI
; File C:\Mu Online\Mu-GS-Webzen-MC-10093\GameServer\BattleSoccerManager.cpp
;	COMDAT ?GetBattleSoccerGoalMove@@YAHH@Z
_TEXT	SEGMENT
_ground$ = 8						; size = 4
?GetBattleSoccerGoalMove@@YAHH@Z PROC			; GetBattleSoccerGoalMove, COMDAT

; 255  : {

  00000	55		 push	 ebp
  00001	8b ec		 mov	 ebp, esp
  00003	83 ec 40	 sub	 esp, 64			; 00000040H
  00006	53		 push	 ebx
  00007	56		 push	 esi
  00008	57		 push	 edi

; 256  : #ifdef MODIFY_GUILDWAR_REQUEST_PROCESS_20050704
; 257  : 	if( !CHECK_BATTLESOCCERGROUND_INDEX(ground) )
; 258  : 		return 0;
; 259  : #endif
; 260  : 	return gBSGround[ground]->GetGoalMove();

  00009	8b 45 08	 mov	 eax, DWORD PTR _ground$[ebp]
  0000c	8b 0c 85 00 00
	00 00		 mov	 ecx, DWORD PTR ?gBSGround@@3PAPAVCBattleSoccer@@A[eax*4]
  00013	e8 00 00 00 00	 call	 ?GetGoalMove@CBattleSoccer@@QAEHXZ ; CBattleSoccer::GetGoalMove

; 261  : }

  00018	5f		 pop	 edi
  00019	5e		 pop	 esi
  0001a	5b		 pop	 ebx
  0001b	8b e5		 mov	 esp, ebp
  0001d	5d		 pop	 ebp
  0001e	c3		 ret	 0
?GetBattleSoccerGoalMove@@YAHH@Z ENDP			; GetBattleSoccerGoalMove
_TEXT	ENDS
; Function compile flags: /Odtp /ZI
; File C:\Mu Online\Mu-GS-Webzen-MC-10093\GameServer\BattleSoccerManager.cpp
;	COMDAT ?BattleSoccerGoalStart@@YAXH@Z
_TEXT	SEGMENT
_ground$ = 8						; size = 4
?BattleSoccerGoalStart@@YAXH@Z PROC			; BattleSoccerGoalStart, COMDAT

; 236  : {

  00000	55		 push	 ebp
  00001	8b ec		 mov	 ebp, esp
  00003	83 ec 40	 sub	 esp, 64			; 00000040H
  00006	53		 push	 ebx
  00007	56		 push	 esi
  00008	57		 push	 edi

; 237  : #ifdef MODIFY_GUILDWAR_REQUEST_PROCESS_20050704
; 238  : 	if( !CHECK_BATTLESOCCERGROUND_INDEX(ground) )
; 239  : 		return;
; 240  : #endif
; 241  : 	gBSGround[ground]->SetGoalMove(1);

  00009	6a 01		 push	 1
  0000b	8b 45 08	 mov	 eax, DWORD PTR _ground$[ebp]
  0000e	8b 0c 85 00 00
	00 00		 mov	 ecx, DWORD PTR ?gBSGround@@3PAPAVCBattleSoccer@@A[eax*4]
  00015	e8 00 00 00 00	 call	 ?SetGoalMove@CBattleSoccer@@QAEXH@Z ; CBattleSoccer::SetGoalMove

; 242  : }

  0001a	5f		 pop	 edi
  0001b	5e		 pop	 esi
  0001c	5b		 pop	 ebx
  0001d	8b e5		 mov	 esp, ebp
  0001f	5d		 pop	 ebp
  00020	c3		 ret	 0
?BattleSoccerGoalStart@@YAXH@Z ENDP			; BattleSoccerGoalStart
_TEXT	ENDS
; Function compile flags: /Odtp /ZI
; File C:\Mu Online\Mu-GS-Webzen-MC-10093\GameServer\BattleSoccerManager.cpp
;	COMDAT ?GetBattleTeamScore@@YAHHH@Z
_TEXT	SEGMENT
_ground$ = 8						; size = 4
_team$ = 12						; size = 4
?GetBattleTeamScore@@YAHHH@Z PROC			; GetBattleTeamScore, COMDAT

; 227  : {

  00000	55		 push	 ebp
  00001	8b ec		 mov	 ebp, esp
  00003	83 ec 40	 sub	 esp, 64			; 00000040H
  00006	53		 push	 ebx
  00007	56		 push	 esi
  00008	57		 push	 edi

; 228  : #ifdef MODIFY_GUILDWAR_REQUEST_PROCESS_20050704
; 229  : 	if( !CHECK_BATTLESOCCERGROUND_INDEX(ground) )
; 230  : 		return 0;
; 231  : #endif
; 232  : 	return gBSGround[ground]->GetScore(team);

  00009	8b 45 0c	 mov	 eax, DWORD PTR _team$[ebp]
  0000c	50		 push	 eax
  0000d	8b 4d 08	 mov	 ecx, DWORD PTR _ground$[ebp]
  00010	8b 0c 8d 00 00
	00 00		 mov	 ecx, DWORD PTR ?gBSGround@@3PAPAVCBattleSoccer@@A[ecx*4]
  00017	e8 00 00 00 00	 call	 ?GetScore@CBattleGround@@QAEHH@Z ; CBattleGround::GetScore

; 233  : }

  0001c	5f		 pop	 edi
  0001d	5e		 pop	 esi
  0001e	5b		 pop	 ebx
  0001f	8b e5		 mov	 esp, ebp
  00021	5d		 pop	 ebp
  00022	c3		 ret	 0
?GetBattleTeamScore@@YAHHH@Z ENDP			; GetBattleTeamScore
_TEXT	ENDS
; Function compile flags: /Odtp /ZI
; File C:\Mu Online\Mu-GS-Webzen-MC-10093\GameServer\BattleSoccerManager.cpp
;	COMDAT ?SetBattleTeamScore@@YAXHHH@Z
_TEXT	SEGMENT
_ground$ = 8						; size = 4
_team$ = 12						; size = 4
_score$ = 16						; size = 4
?SetBattleTeamScore@@YAXHHH@Z PROC			; SetBattleTeamScore, COMDAT

; 218  : {

  00000	55		 push	 ebp
  00001	8b ec		 mov	 ebp, esp
  00003	83 ec 40	 sub	 esp, 64			; 00000040H
  00006	53		 push	 ebx
  00007	56		 push	 esi
  00008	57		 push	 edi

; 219  : #ifdef MODIFY_GUILDWAR_REQUEST_PROCESS_20050704
; 220  : 	if( !CHECK_BATTLESOCCERGROUND_INDEX(ground) )
; 221  : 		return;
; 222  : #endif
; 223  : 	gBSGround[ground]->SetScore(team, score);

  00009	8b 45 10	 mov	 eax, DWORD PTR _score$[ebp]
  0000c	50		 push	 eax
  0000d	8b 4d 0c	 mov	 ecx, DWORD PTR _team$[ebp]
  00010	51		 push	 ecx
  00011	8b 55 08	 mov	 edx, DWORD PTR _ground$[ebp]
  00014	8b 0c 95 00 00
	00 00		 mov	 ecx, DWORD PTR ?gBSGround@@3PAPAVCBattleSoccer@@A[edx*4]
  0001b	e8 00 00 00 00	 call	 ?SetScore@CBattleGround@@QAEXHH@Z ; CBattleGround::SetScore

; 224  : }

  00020	5f		 pop	 edi
  00021	5e		 pop	 esi
  00022	5b		 pop	 ebx
  00023	8b e5		 mov	 esp, ebp
  00025	5d		 pop	 ebp
  00026	c3		 ret	 0
?SetBattleTeamScore@@YAXHHH@Z ENDP			; SetBattleTeamScore
_TEXT	ENDS
; Function compile flags: /Odtp /ZI
; File C:\Mu Online\Mu-GS-Webzen-MC-10093\GameServer\BattleSoccerManager.cpp
;	COMDAT ?GetBattleTeamName@@YAPADHH@Z
_TEXT	SEGMENT
_ground$ = 8						; size = 4
_team$ = 12						; size = 4
?GetBattleTeamName@@YAPADHH@Z PROC			; GetBattleTeamName, COMDAT

; 207  : {

  00000	55		 push	 ebp
  00001	8b ec		 mov	 ebp, esp
  00003	83 ec 40	 sub	 esp, 64			; 00000040H
  00006	53		 push	 ebx
  00007	56		 push	 esi
  00008	57		 push	 edi

; 208  : #ifdef MODIFY_GUILDWAR_REQUEST_PROCESS_20050704
; 209  : 	if( !CHECK_BATTLESOCCERGROUND_INDEX(ground) )
; 210  : 		return NULL;
; 211  : #endif
; 212  : 
; 213  : 	return gBSGround[ground]->GetTeamName(team);

  00009	8b 45 0c	 mov	 eax, DWORD PTR _team$[ebp]
  0000c	50		 push	 eax
  0000d	8b 4d 08	 mov	 ecx, DWORD PTR _ground$[ebp]
  00010	8b 0c 8d 00 00
	00 00		 mov	 ecx, DWORD PTR ?gBSGround@@3PAPAVCBattleSoccer@@A[ecx*4]
  00017	e8 00 00 00 00	 call	 ?GetTeamName@CBattleGround@@QAEPADH@Z ; CBattleGround::GetTeamName

; 214  : 
; 215  : }

  0001c	5f		 pop	 edi
  0001d	5e		 pop	 esi
  0001e	5b		 pop	 ebx
  0001f	8b e5		 mov	 esp, ebp
  00021	5d		 pop	 ebp
  00022	c3		 ret	 0
?GetBattleTeamName@@YAPADHH@Z ENDP			; GetBattleTeamName
_TEXT	ENDS
; Function compile flags: /Odtp /ZI
; File C:\Mu Online\Mu-GS-Webzen-MC-10093\GameServer\BattleSoccerManager.cpp
;	COMDAT ?gBattleGetTeamPosition@@YAXHHAAF0@Z
_TEXT	SEGMENT
_h$ = -8						; size = 4
_w$ = -4						; size = 4
_ground$ = 8						; size = 4
_team$ = 12						; size = 4
_X$ = 16						; size = 4
_Y$ = 20						; size = 4
?gBattleGetTeamPosition@@YAXHHAAF0@Z PROC		; gBattleGetTeamPosition, COMDAT

; 169  : {

  00000	55		 push	 ebp
  00001	8b ec		 mov	 ebp, esp
  00003	83 ec 48	 sub	 esp, 72			; 00000048H
  00006	53		 push	 ebx
  00007	56		 push	 esi
  00008	57		 push	 edi

; 170  : 
; 171  : #ifdef MODIFY_GUILDWAR_REQUEST_PROCESS_20050704
; 172  : 	if( !CHECK_BATTLESOCCERGROUND_INDEX(ground) )
; 173  : 		return;
; 174  : #endif
; 175  : 	
; 176  : 	int w, h;
; 177  : 	
; 178  : #ifdef WORLD_TOURNAMENT_EVENT_SETTING
; 179  : 	int left = gBSGround[ground]->m_rect.left+3;
; 180  : 	int right = gBSGround[ground]->m_rect.right-3;
; 181  : 	int top = gBSGround[ground]->m_rect.top+3;
; 182  : 	int bottom = gBSGround[ground]->m_rect.bottom-3;
; 183  : 
; 184  : 	w = right-left;
; 185  : 	h = bottom-top;
; 186  : 
; 187  : 	if( w < 1 ) w = 1;
; 188  : 	if( h < 1 ) h = 1;
; 189  : 
; 190  : 	X = left+(rand()%w);
; 191  : 	Y = top+(rand()%h);
; 192  : #else
; 193  : 	w = gBSGround[ground]->m_rect.right-gBSGround[ground]->m_rect.left;

  00009	8b 45 08	 mov	 eax, DWORD PTR _ground$[ebp]
  0000c	8b 0c 85 00 00
	00 00		 mov	 ecx, DWORD PTR ?gBSGround@@3PAPAVCBattleSoccer@@A[eax*4]
  00013	8b 55 08	 mov	 edx, DWORD PTR _ground$[ebp]
  00016	8b 04 95 00 00
	00 00		 mov	 eax, DWORD PTR ?gBSGround@@3PAPAVCBattleSoccer@@A[edx*4]
  0001d	8b 49 40	 mov	 ecx, DWORD PTR [ecx+64]
  00020	2b 48 38	 sub	 ecx, DWORD PTR [eax+56]
  00023	89 4d fc	 mov	 DWORD PTR _w$[ebp], ecx

; 194  : 	h = gBSGround[ground]->m_rect.bottom-gBSGround[ground]->m_rect.top;

  00026	8b 45 08	 mov	 eax, DWORD PTR _ground$[ebp]
  00029	8b 0c 85 00 00
	00 00		 mov	 ecx, DWORD PTR ?gBSGround@@3PAPAVCBattleSoccer@@A[eax*4]
  00030	8b 55 08	 mov	 edx, DWORD PTR _ground$[ebp]
  00033	8b 04 95 00 00
	00 00		 mov	 eax, DWORD PTR ?gBSGround@@3PAPAVCBattleSoccer@@A[edx*4]
  0003a	8b 49 44	 mov	 ecx, DWORD PTR [ecx+68]
  0003d	2b 48 3c	 sub	 ecx, DWORD PTR [eax+60]
  00040	89 4d f8	 mov	 DWORD PTR _h$[ebp], ecx

; 195  : 
; 196  : 	if( w < 1 ) w = 1;

  00043	83 7d fc 01	 cmp	 DWORD PTR _w$[ebp], 1
  00047	7d 07		 jge	 SHORT $LN2@gBattleGet
  00049	c7 45 fc 01 00
	00 00		 mov	 DWORD PTR _w$[ebp], 1
$LN2@gBattleGet:

; 197  : 	if( h < 1 ) h = 1;

  00050	83 7d f8 01	 cmp	 DWORD PTR _h$[ebp], 1
  00054	7d 07		 jge	 SHORT $LN3@gBattleGet
  00056	c7 45 f8 01 00
	00 00		 mov	 DWORD PTR _h$[ebp], 1
$LN3@gBattleGet:

; 198  : 
; 199  : 	X = gBSGround[ground]->m_rect.left+(rand()%w);

  0005d	8b 45 08	 mov	 eax, DWORD PTR _ground$[ebp]
  00060	8b 34 85 00 00
	00 00		 mov	 esi, DWORD PTR ?gBSGround@@3PAPAVCBattleSoccer@@A[eax*4]
  00067	e8 00 00 00 00	 call	 _rand
  0006c	99		 cdq
  0006d	f7 7d fc	 idiv	 DWORD PTR _w$[ebp]
  00070	03 56 38	 add	 edx, DWORD PTR [esi+56]
  00073	8b 4d 10	 mov	 ecx, DWORD PTR _X$[ebp]
  00076	66 89 11	 mov	 WORD PTR [ecx], dx

; 200  : 	Y = gBSGround[ground]->m_rect.top+(rand()%h);

  00079	8b 45 08	 mov	 eax, DWORD PTR _ground$[ebp]
  0007c	8b 34 85 00 00
	00 00		 mov	 esi, DWORD PTR ?gBSGround@@3PAPAVCBattleSoccer@@A[eax*4]
  00083	e8 00 00 00 00	 call	 _rand
  00088	99		 cdq
  00089	f7 7d f8	 idiv	 DWORD PTR _h$[ebp]
  0008c	03 56 3c	 add	 edx, DWORD PTR [esi+60]
  0008f	8b 4d 14	 mov	 ecx, DWORD PTR _Y$[ebp]
  00092	66 89 11	 mov	 WORD PTR [ecx], dx

; 201  : #endif
; 202  : 
; 203  : 	
; 204  : }

  00095	5f		 pop	 edi
  00096	5e		 pop	 esi
  00097	5b		 pop	 ebx
  00098	8b e5		 mov	 esp, ebp
  0009a	5d		 pop	 ebp
  0009b	c3		 ret	 0
?gBattleGetTeamPosition@@YAXHHAAF0@Z ENDP		; gBattleGetTeamPosition
_TEXT	ENDS
; Function compile flags: /Odtp /ZI
; File C:\Mu Online\Mu-GS-Webzen-MC-10093\GameServer\BattleSoccerManager.cpp
;	COMDAT ?gCheckBattleGroundTimer@@YAHXZ
_TEXT	SEGMENT
_index$1 = -20						; size = 4
_index$2 = -16						; size = 4
_n$ = -12						; size = 4
_i$ = -8						; size = 4
_time$ = -4						; size = 4
?gCheckBattleGroundTimer@@YAHXZ PROC			; gCheckBattleGroundTimer, COMDAT

; 72   : {

  00000	55		 push	 ebp
  00001	8b ec		 mov	 ebp, esp
  00003	83 ec 54	 sub	 esp, 84			; 00000054H
  00006	53		 push	 ebx
  00007	56		 push	 esi
  00008	57		 push	 edi

; 73   : 	int time=0;

  00009	c7 45 fc 00 00
	00 00		 mov	 DWORD PTR _time$[ebp], 0

; 74   : 	int  i;
; 75   : 
; 76   : #ifndef WORLD_TOURNAMENT_EVENT_SETTING	
; 77   : 	return 0;

  00010	33 c0		 xor	 eax, eax
  00012	e9 42 01 00 00	 jmp	 $LN1@gCheckBatt

; 78   : #endif
; 79   : 	return gBSGround[0]->GetTimer();

  00017	b8 04 00 00 00	 mov	 eax, 4
  0001c	6b c8 00	 imul	 ecx, eax, 0
  0001f	8b 89 00 00 00
	00		 mov	 ecx, DWORD PTR ?gBSGround@@3PAPAVCBattleSoccer@@A[ecx]
  00025	e8 00 00 00 00	 call	 ?GetTimer@CBattleGround@@QAEHXZ ; CBattleGround::GetTimer
  0002a	e9 2a 01 00 00	 jmp	 $LN1@gCheckBatt

; 80   : 
; 81   : 	//for( int n=0; n<MAX_BATTLESOCCERGROUND; n++)
; 82   : 	int n = 0;

  0002f	c7 45 f4 00 00
	00 00		 mov	 DWORD PTR _n$[ebp], 0

; 83   : 	{	
; 84   : 		if( gBSGround[n]->GetUsed() == TRUE )

  00036	8b 45 f4	 mov	 eax, DWORD PTR _n$[ebp]
  00039	8b 0c 85 00 00
	00 00		 mov	 ecx, DWORD PTR ?gBSGround@@3PAPAVCBattleSoccer@@A[eax*4]
  00040	e8 00 00 00 00	 call	 ?GetUsed@CBattleGround@@QAEHXZ ; CBattleGround::GetUsed
  00045	83 f8 01	 cmp	 eax, 1
  00048	0f 85 08 01 00
	00		 jne	 $LN8@gCheckBatt

; 85   : 		{
; 86   : 			time = gBSGround[n]->GetTimer();

  0004e	8b 45 f4	 mov	 eax, DWORD PTR _n$[ebp]
  00051	8b 0c 85 00 00
	00 00		 mov	 ecx, DWORD PTR ?gBSGround@@3PAPAVCBattleSoccer@@A[eax*4]
  00058	e8 00 00 00 00	 call	 ?GetTimer@CBattleGround@@QAEHXZ ; CBattleGround::GetTimer
  0005d	89 45 fc	 mov	 DWORD PTR _time$[ebp], eax

; 87   : 			//wsprintf(szTemp, "현재 시간 %d",time);
; 88   : 
; 89   : 			if( gBSGround[n]->m_BlueTeam == NULL ) return 0;

  00060	8b 45 f4	 mov	 eax, DWORD PTR _n$[ebp]
  00063	8b 0c 85 00 00
	00 00		 mov	 ecx, DWORD PTR ?gBSGround@@3PAPAVCBattleSoccer@@A[eax*4]
  0006a	83 b9 8c 00 00
	00 00		 cmp	 DWORD PTR [ecx+140], 0
  00071	75 07		 jne	 SHORT $LN9@gCheckBatt
  00073	33 c0		 xor	 eax, eax
  00075	e9 df 00 00 00	 jmp	 $LN1@gCheckBatt
$LN9@gCheckBatt:

; 90   : 			if( gBSGround[n]->m_RedTeam == NULL ) return 0;

  0007a	8b 45 f4	 mov	 eax, DWORD PTR _n$[ebp]
  0007d	8b 0c 85 00 00
	00 00		 mov	 ecx, DWORD PTR ?gBSGround@@3PAPAVCBattleSoccer@@A[eax*4]
  00084	83 b9 88 00 00
	00 00		 cmp	 DWORD PTR [ecx+136], 0
  0008b	75 07		 jne	 SHORT $LN10@gCheckBatt
  0008d	33 c0		 xor	 eax, eax
  0008f	e9 c5 00 00 00	 jmp	 $LN1@gCheckBatt
$LN10@gCheckBatt:

; 91   : 
; 92   : 			if( gBSGround[n]->m_BlueTeam )

  00094	8b 45 f4	 mov	 eax, DWORD PTR _n$[ebp]
  00097	8b 0c 85 00 00
	00 00		 mov	 ecx, DWORD PTR ?gBSGround@@3PAPAVCBattleSoccer@@A[eax*4]
  0009e	83 b9 8c 00 00
	00 00		 cmp	 DWORD PTR [ecx+140], 0
  000a5	74 4e		 je	 SHORT $LN11@gCheckBatt

; 93   : 			{
; 94   : 				for( i=0; i<MAX_GUILD; i++)

  000a7	c7 45 f8 00 00
	00 00		 mov	 DWORD PTR _i$[ebp], 0
  000ae	eb 09		 jmp	 SHORT $LN4@gCheckBatt
$LN2@gCheckBatt:
  000b0	8b 45 f8	 mov	 eax, DWORD PTR _i$[ebp]
  000b3	83 c0 01	 add	 eax, 1
  000b6	89 45 f8	 mov	 DWORD PTR _i$[ebp], eax
$LN4@gCheckBatt:
  000b9	83 7d f8 50	 cmp	 DWORD PTR _i$[ebp], 80	; 00000050H
  000bd	7d 36		 jge	 SHORT $LN11@gCheckBatt

; 95   : 				{
; 96   : 					int index = gBSGround[n]->m_BlueTeam->Index[i];					

  000bf	8b 45 f4	 mov	 eax, DWORD PTR _n$[ebp]
  000c2	8b 0c 85 00 00
	00 00		 mov	 ecx, DWORD PTR ?gBSGround@@3PAPAVCBattleSoccer@@A[eax*4]
  000c9	8b 91 8c 00 00
	00		 mov	 edx, DWORD PTR [ecx+140]
  000cf	8b 45 f8	 mov	 eax, DWORD PTR _i$[ebp]
  000d2	0f bf 8c 42 a0
	03 00 00	 movsx	 ecx, WORD PTR [edx+eax*2+928]
  000da	89 4d f0	 mov	 DWORD PTR _index$2[ebp], ecx

; 97   : 					if( index != -1 )

  000dd	83 7d f0 ff	 cmp	 DWORD PTR _index$2[ebp], -1
  000e1	74 10		 je	 SHORT $LN12@gCheckBatt

; 98   : 					{
; 99   : 						//GCServerMsgStringSend(szTemp, index, 1);
; 100  : 				#ifdef WORLD_TOURNAMENT_EVENT_SETTING
; 101  : 						GCTimeViewSend(index, eMatchType_BattleSoccer, time);
; 102  : 				#else
; 103  : 						GCTimeViewSend(index, time);

  000e3	8b 45 fc	 mov	 eax, DWORD PTR _time$[ebp]
  000e6	50		 push	 eax
  000e7	8b 4d f0	 mov	 ecx, DWORD PTR _index$2[ebp]
  000ea	51		 push	 ecx
  000eb	e8 00 00 00 00	 call	 ?GCTimeViewSend@@YAXHH@Z ; GCTimeViewSend
  000f0	83 c4 08	 add	 esp, 8
$LN12@gCheckBatt:

; 104  : 				#endif
; 105  : 					}
; 106  : 				}

  000f3	eb bb		 jmp	 SHORT $LN2@gCheckBatt
$LN11@gCheckBatt:

; 107  : 			}
; 108  : 			if( gBSGround[n]->m_RedTeam )

  000f5	8b 45 f4	 mov	 eax, DWORD PTR _n$[ebp]
  000f8	8b 0c 85 00 00
	00 00		 mov	 ecx, DWORD PTR ?gBSGround@@3PAPAVCBattleSoccer@@A[eax*4]
  000ff	83 b9 88 00 00
	00 00		 cmp	 DWORD PTR [ecx+136], 0
  00106	74 4e		 je	 SHORT $LN8@gCheckBatt

; 109  : 			{
; 110  : 				for( i=0; i<MAX_GUILD; i++)

  00108	c7 45 f8 00 00
	00 00		 mov	 DWORD PTR _i$[ebp], 0
  0010f	eb 09		 jmp	 SHORT $LN7@gCheckBatt
$LN5@gCheckBatt:
  00111	8b 45 f8	 mov	 eax, DWORD PTR _i$[ebp]
  00114	83 c0 01	 add	 eax, 1
  00117	89 45 f8	 mov	 DWORD PTR _i$[ebp], eax
$LN7@gCheckBatt:
  0011a	83 7d f8 50	 cmp	 DWORD PTR _i$[ebp], 80	; 00000050H
  0011e	7d 36		 jge	 SHORT $LN8@gCheckBatt

; 111  : 				{
; 112  : 					int index = gBSGround[n]->m_RedTeam->Index[i];					

  00120	8b 45 f4	 mov	 eax, DWORD PTR _n$[ebp]
  00123	8b 0c 85 00 00
	00 00		 mov	 ecx, DWORD PTR ?gBSGround@@3PAPAVCBattleSoccer@@A[eax*4]
  0012a	8b 91 88 00 00
	00		 mov	 edx, DWORD PTR [ecx+136]
  00130	8b 45 f8	 mov	 eax, DWORD PTR _i$[ebp]
  00133	0f bf 8c 42 a0
	03 00 00	 movsx	 ecx, WORD PTR [edx+eax*2+928]
  0013b	89 4d ec	 mov	 DWORD PTR _index$1[ebp], ecx

; 113  : 					if( index != -1 )

  0013e	83 7d ec ff	 cmp	 DWORD PTR _index$1[ebp], -1
  00142	74 10		 je	 SHORT $LN14@gCheckBatt

; 114  : 					{
; 115  : 						//GCServerMsgStringSend(szTemp, index, 1);
; 116  : 				#ifdef WORLD_TOURNAMENT_EVENT_SETTING
; 117  : 						GCTimeViewSend(index, eMatchType_BattleSoccer, time);
; 118  : 				#else
; 119  : 						GCTimeViewSend(index, time);

  00144	8b 45 fc	 mov	 eax, DWORD PTR _time$[ebp]
  00147	50		 push	 eax
  00148	8b 4d ec	 mov	 ecx, DWORD PTR _index$1[ebp]
  0014b	51		 push	 ecx
  0014c	e8 00 00 00 00	 call	 ?GCTimeViewSend@@YAXHH@Z ; GCTimeViewSend
  00151	83 c4 08	 add	 esp, 8
$LN14@gCheckBatt:

; 120  : 				#endif
; 121  : 					}
; 122  : 				}

  00154	eb bb		 jmp	 SHORT $LN5@gCheckBatt
$LN8@gCheckBatt:

; 123  : 			}
; 124  : 		}
; 125  : 	}	
; 126  : 	return time;

  00156	8b 45 fc	 mov	 eax, DWORD PTR _time$[ebp]
$LN1@gCheckBatt:

; 127  : }

  00159	5f		 pop	 edi
  0015a	5e		 pop	 esi
  0015b	5b		 pop	 ebx
  0015c	8b e5		 mov	 esp, ebp
  0015e	5d		 pop	 ebp
  0015f	c3		 ret	 0
?gCheckBattleGroundTimer@@YAHXZ ENDP			; gCheckBattleGroundTimer
_TEXT	ENDS
; Function compile flags: /Odtp /ZI
; File C:\Mu Online\Mu-GS-Webzen-MC-10093\GameServer\BattleSoccerManager.cpp
;	COMDAT ?gBattleGroundEnable@@YAXHH@Z
_TEXT	SEGMENT
_n$ = 8							; size = 4
_enable$ = 12						; size = 4
?gBattleGroundEnable@@YAXHH@Z PROC			; gBattleGroundEnable, COMDAT

; 131  : {

  00000	55		 push	 ebp
  00001	8b ec		 mov	 ebp, esp
  00003	83 ec 40	 sub	 esp, 64			; 00000040H
  00006	53		 push	 ebx
  00007	56		 push	 esi
  00008	57		 push	 edi

; 132  : #ifdef MODIFY_GUILDWAR_REQUEST_PROCESS_20050704
; 133  : 	if( !CHECK_BATTLESOCCERGROUND_INDEX(n) )
; 134  : 		return;
; 135  : #endif
; 136  : 
; 137  : 	if( enable == 1 )

  00009	83 7d 0c 01	 cmp	 DWORD PTR _enable$[ebp], 1
  0000d	75 29		 jne	 SHORT $LN2@gBattleGro

; 138  : 	{
; 139  : 		gBSGround[n]->Enable(enable);

  0000f	8b 45 0c	 mov	 eax, DWORD PTR _enable$[ebp]
  00012	50		 push	 eax
  00013	8b 4d 08	 mov	 ecx, DWORD PTR _n$[ebp]
  00016	8b 0c 8d 00 00
	00 00		 mov	 ecx, DWORD PTR ?gBSGround@@3PAPAVCBattleSoccer@@A[ecx*4]
  0001d	e8 00 00 00 00	 call	 ?Enable@CBattleGround@@QAEXH@Z ; CBattleGround::Enable

; 140  : 		gBSGround[n]->SetTimer(1000*60*10);	// 10분 세팅

  00022	68 c0 27 09 00	 push	 600000			; 000927c0H
  00027	8b 45 08	 mov	 eax, DWORD PTR _n$[ebp]
  0002a	8b 0c 85 00 00
	00 00		 mov	 ecx, DWORD PTR ?gBSGround@@3PAPAVCBattleSoccer@@A[eax*4]
  00031	e8 00 00 00 00	 call	 ?SetTimer@CBattleGround@@QAEXH@Z ; CBattleGround::SetTimer

; 141  : 	}

  00036	eb 65		 jmp	 SHORT $LN1@gBattleGro
$LN2@gBattleGro:

; 142  : 	else 
; 143  : 	{
; 144  : 		gBSGround[n]->Enable(0);

  00038	6a 00		 push	 0
  0003a	8b 45 08	 mov	 eax, DWORD PTR _n$[ebp]
  0003d	8b 0c 85 00 00
	00 00		 mov	 ecx, DWORD PTR ?gBSGround@@3PAPAVCBattleSoccer@@A[eax*4]
  00044	e8 00 00 00 00	 call	 ?Enable@CBattleGround@@QAEXH@Z ; CBattleGround::Enable

; 145  : 		gBSGround[n]->SetTeamMaster(0, "none");

  00049	68 00 00 00 00	 push	 OFFSET ??_C@_04CGFJFPFD@none@
  0004e	6a 00		 push	 0
  00050	8b 45 08	 mov	 eax, DWORD PTR _n$[ebp]
  00053	8b 0c 85 00 00
	00 00		 mov	 ecx, DWORD PTR ?gBSGround@@3PAPAVCBattleSoccer@@A[eax*4]
  0005a	e8 00 00 00 00	 call	 ?SetTeamMaster@CBattleGround@@QAEXHPAD@Z ; CBattleGround::SetTeamMaster

; 146  : 		gBSGround[n]->SetTeamMaster(1, "none");

  0005f	68 00 00 00 00	 push	 OFFSET ??_C@_04CGFJFPFD@none@
  00064	6a 01		 push	 1
  00066	8b 45 08	 mov	 eax, DWORD PTR _n$[ebp]
  00069	8b 0c 85 00 00
	00 00		 mov	 ecx, DWORD PTR ?gBSGround@@3PAPAVCBattleSoccer@@A[eax*4]
  00070	e8 00 00 00 00	 call	 ?SetTeamMaster@CBattleGround@@QAEXHPAD@Z ; CBattleGround::SetTeamMaster

; 147  : 		gBSGround[n]->m_RedTeam = NULL;

  00075	8b 45 08	 mov	 eax, DWORD PTR _n$[ebp]
  00078	8b 0c 85 00 00
	00 00		 mov	 ecx, DWORD PTR ?gBSGround@@3PAPAVCBattleSoccer@@A[eax*4]
  0007f	c7 81 88 00 00
	00 00 00 00 00	 mov	 DWORD PTR [ecx+136], 0

; 148  : 		gBSGround[n]->m_BlueTeam = NULL;

  00089	8b 45 08	 mov	 eax, DWORD PTR _n$[ebp]
  0008c	8b 0c 85 00 00
	00 00		 mov	 ecx, DWORD PTR ?gBSGround@@3PAPAVCBattleSoccer@@A[eax*4]
  00093	c7 81 8c 00 00
	00 00 00 00 00	 mov	 DWORD PTR [ecx+140], 0
$LN1@gBattleGro:

; 149  : 	}
; 150  : }

  0009d	5f		 pop	 edi
  0009e	5e		 pop	 esi
  0009f	5b		 pop	 ebx
  000a0	8b e5		 mov	 esp, ebp
  000a2	5d		 pop	 ebp
  000a3	c3		 ret	 0
?gBattleGroundEnable@@YAXHH@Z ENDP			; gBattleGroundEnable
_TEXT	ENDS
; Function compile flags: /Odtp /ZI
; File C:\Mu Online\Mu-GS-Webzen-MC-10093\GameServer\BattleSoccerManager.cpp
;	COMDAT ?gCheckBlankBattleGround@@YAHXZ
_TEXT	SEGMENT
_n$1 = -4						; size = 4
?gCheckBlankBattleGround@@YAHXZ PROC			; gCheckBlankBattleGround, COMDAT

; 59   : {

  00000	55		 push	 ebp
  00001	8b ec		 mov	 ebp, esp
  00003	83 ec 44	 sub	 esp, 68			; 00000044H
  00006	53		 push	 ebx
  00007	56		 push	 esi
  00008	57		 push	 edi

; 60   : 	for( int n=0; n<MAX_BATTLESOCCERGROUND; n++)

  00009	c7 45 fc 00 00
	00 00		 mov	 DWORD PTR _n$1[ebp], 0
  00010	eb 09		 jmp	 SHORT $LN4@gCheckBlan
$LN2@gCheckBlan:
  00012	8b 45 fc	 mov	 eax, DWORD PTR _n$1[ebp]
  00015	83 c0 01	 add	 eax, 1
  00018	89 45 fc	 mov	 DWORD PTR _n$1[ebp], eax
$LN4@gCheckBlan:
  0001b	83 7d fc 01	 cmp	 DWORD PTR _n$1[ebp], 1
  0001f	7d 1a		 jge	 SHORT $LN3@gCheckBlan

; 61   : 	{	
; 62   : 		if( gBSGround[n]->GetUsed() == FALSE )

  00021	8b 45 fc	 mov	 eax, DWORD PTR _n$1[ebp]
  00024	8b 0c 85 00 00
	00 00		 mov	 ecx, DWORD PTR ?gBSGround@@3PAPAVCBattleSoccer@@A[eax*4]
  0002b	e8 00 00 00 00	 call	 ?GetUsed@CBattleGround@@QAEHXZ ; CBattleGround::GetUsed
  00030	85 c0		 test	 eax, eax
  00032	75 05		 jne	 SHORT $LN5@gCheckBlan

; 63   : 		{
; 64   : 			return n;

  00034	8b 45 fc	 mov	 eax, DWORD PTR _n$1[ebp]
  00037	eb 07		 jmp	 SHORT $LN1@gCheckBlan
$LN5@gCheckBlan:

; 65   : 		}
; 66   : 	}	

  00039	eb d7		 jmp	 SHORT $LN2@gCheckBlan
$LN3@gCheckBlan:

; 67   : 	return 0xFF;

  0003b	b8 ff 00 00 00	 mov	 eax, 255		; 000000ffH
$LN1@gCheckBlan:

; 68   : }

  00040	5f		 pop	 edi
  00041	5e		 pop	 esi
  00042	5b		 pop	 ebx
  00043	8b e5		 mov	 esp, ebp
  00045	5d		 pop	 ebp
  00046	c3		 ret	 0
?gCheckBlankBattleGround@@YAHXZ ENDP			; gCheckBlankBattleGround
_TEXT	ENDS
; Function compile flags: /Odtp /ZI
; File C:\Mu Online\Mu-GS-Webzen-MC-10093\GameServer\BattleSoccerManager.cpp
;	COMDAT ?ClearBattleSoccer@@YAXXZ
_TEXT	SEGMENT
tv78 = -76						; size = 4
$T1 = -72						; size = 4
_n$2 = -4						; size = 4
?ClearBattleSoccer@@YAXXZ PROC				; ClearBattleSoccer, COMDAT

; 50   : {

  00000	55		 push	 ebp
  00001	8b ec		 mov	 ebp, esp
  00003	83 ec 4c	 sub	 esp, 76			; 0000004cH
  00006	53		 push	 ebx
  00007	56		 push	 esi
  00008	57		 push	 edi

; 51   : 	for( int n=0; n<MAX_BATTLESOCCERGROUND; n++)

  00009	c7 45 fc 00 00
	00 00		 mov	 DWORD PTR _n$2[ebp], 0
  00010	eb 09		 jmp	 SHORT $LN4@ClearBattl
$LN2@ClearBattl:
  00012	8b 45 fc	 mov	 eax, DWORD PTR _n$2[ebp]
  00015	83 c0 01	 add	 eax, 1
  00018	89 45 fc	 mov	 DWORD PTR _n$2[ebp], eax
$LN4@ClearBattl:
  0001b	83 7d fc 01	 cmp	 DWORD PTR _n$2[ebp], 1
  0001f	7d 2f		 jge	 SHORT $LN1@ClearBattl

; 52   : 	{
; 53   : 		delete gBSGround[n];

  00021	8b 45 fc	 mov	 eax, DWORD PTR _n$2[ebp]
  00024	8b 0c 85 00 00
	00 00		 mov	 ecx, DWORD PTR ?gBSGround@@3PAPAVCBattleSoccer@@A[eax*4]
  0002b	89 4d b8	 mov	 DWORD PTR $T1[ebp], ecx
  0002e	83 7d b8 00	 cmp	 DWORD PTR $T1[ebp], 0
  00032	74 13		 je	 SHORT $LN6@ClearBattl
  00034	6a 01		 push	 1
  00036	8b 55 b8	 mov	 edx, DWORD PTR $T1[ebp]
  00039	8b 02		 mov	 eax, DWORD PTR [edx]
  0003b	8b 4d b8	 mov	 ecx, DWORD PTR $T1[ebp]
  0003e	8b 10		 mov	 edx, DWORD PTR [eax]
  00040	ff d2		 call	 edx
  00042	89 45 b4	 mov	 DWORD PTR tv78[ebp], eax
  00045	eb 07		 jmp	 SHORT $LN7@ClearBattl
$LN6@ClearBattl:
  00047	c7 45 b4 00 00
	00 00		 mov	 DWORD PTR tv78[ebp], 0
$LN7@ClearBattl:

; 54   : 	}

  0004e	eb c2		 jmp	 SHORT $LN2@ClearBattl
$LN1@ClearBattl:

; 55   : }

  00050	5f		 pop	 edi
  00051	5e		 pop	 esi
  00052	5b		 pop	 ebx
  00053	8b e5		 mov	 esp, ebp
  00055	5d		 pop	 ebp
  00056	c3		 ret	 0
?ClearBattleSoccer@@YAXXZ ENDP				; ClearBattleSoccer
_TEXT	ENDS
; Function compile flags: /Odtp /ZI
; File C:\Mu Online\Mu-GS-Webzen-MC-10093\GameServer\BattleSoccerManager.cpp
;	COMDAT ?InitBattleSoccer@@YAXXZ
_TEXT	SEGMENT
tv79 = -92						; size = 4
$T2 = -88						; size = 4
$T3 = -84						; size = 4
_n$4 = -16						; size = 4
__$EHRec$ = -12						; size = 12
?InitBattleSoccer@@YAXXZ PROC				; InitBattleSoccer, COMDAT

; 34   : {

  00000	55		 push	 ebp
  00001	8b ec		 mov	 ebp, esp
  00003	6a ff		 push	 -1
  00005	68 00 00 00 00	 push	 __ehhandler$?InitBattleSoccer@@YAXXZ
  0000a	64 a1 00 00 00
	00		 mov	 eax, DWORD PTR fs:0
  00010	50		 push	 eax
  00011	83 ec 50	 sub	 esp, 80			; 00000050H
  00014	53		 push	 ebx
  00015	56		 push	 esi
  00016	57		 push	 edi
  00017	a1 00 00 00 00	 mov	 eax, DWORD PTR ___security_cookie
  0001c	33 c5		 xor	 eax, ebp
  0001e	50		 push	 eax
  0001f	8d 45 f4	 lea	 eax, DWORD PTR __$EHRec$[ebp]
  00022	64 a3 00 00 00
	00		 mov	 DWORD PTR fs:0, eax

; 35   : 	// 배틀 사커 정보 세팅
; 36   : 	for( int n=0; n<MAX_BATTLESOCCERGROUND; n++)

  00028	c7 45 f0 00 00
	00 00		 mov	 DWORD PTR _n$4[ebp], 0
  0002f	eb 09		 jmp	 SHORT $LN4@InitBattle
$LN2@InitBattle:
  00031	8b 45 f0	 mov	 eax, DWORD PTR _n$4[ebp]
  00034	83 c0 01	 add	 eax, 1
  00037	89 45 f0	 mov	 DWORD PTR _n$4[ebp], eax
$LN4@InitBattle:
  0003a	83 7d f0 01	 cmp	 DWORD PTR _n$4[ebp], 1
  0003e	7d 78		 jge	 SHORT $LN3@InitBattle

; 37   : 	{
; 38   : 		gBSGround[n] = new CBattleSoccer;		

  00040	68 90 00 00 00	 push	 144			; 00000090H
  00045	e8 00 00 00 00	 call	 ??2@YAPAXI@Z		; operator new
  0004a	83 c4 04	 add	 esp, 4
  0004d	89 45 a8	 mov	 DWORD PTR $T2[ebp], eax
  00050	c7 45 fc 00 00
	00 00		 mov	 DWORD PTR __$EHRec$[ebp+8], 0
  00057	83 7d a8 00	 cmp	 DWORD PTR $T2[ebp], 0
  0005b	74 0d		 je	 SHORT $LN6@InitBattle
  0005d	8b 4d a8	 mov	 ecx, DWORD PTR $T2[ebp]
  00060	e8 00 00 00 00	 call	 ??0CBattleSoccer@@QAE@XZ ; CBattleSoccer::CBattleSoccer
  00065	89 45 a4	 mov	 DWORD PTR tv79[ebp], eax
  00068	eb 07		 jmp	 SHORT $LN7@InitBattle
$LN6@InitBattle:
  0006a	c7 45 a4 00 00
	00 00		 mov	 DWORD PTR tv79[ebp], 0
$LN7@InitBattle:
  00071	8b 45 a4	 mov	 eax, DWORD PTR tv79[ebp]
  00074	89 45 ac	 mov	 DWORD PTR $T3[ebp], eax
  00077	c7 45 fc ff ff
	ff ff		 mov	 DWORD PTR __$EHRec$[ebp+8], -1
  0007e	8b 4d f0	 mov	 ecx, DWORD PTR _n$4[ebp]
  00081	8b 55 ac	 mov	 edx, DWORD PTR $T3[ebp]
  00084	89 14 8d 00 00
	00 00		 mov	 DWORD PTR ?gBSGround@@3PAPAVCBattleSoccer@@A[ecx*4], edx

; 39   : 		gBSGround[n]->m_BlueTeam = NULL;

  0008b	8b 45 f0	 mov	 eax, DWORD PTR _n$4[ebp]
  0008e	8b 0c 85 00 00
	00 00		 mov	 ecx, DWORD PTR ?gBSGround@@3PAPAVCBattleSoccer@@A[eax*4]
  00095	c7 81 8c 00 00
	00 00 00 00 00	 mov	 DWORD PTR [ecx+140], 0

; 40   : 		gBSGround[n]->m_RedTeam = NULL;

  0009f	8b 45 f0	 mov	 eax, DWORD PTR _n$4[ebp]
  000a2	8b 0c 85 00 00
	00 00		 mov	 ecx, DWORD PTR ?gBSGround@@3PAPAVCBattleSoccer@@A[eax*4]
  000a9	c7 81 88 00 00
	00 00 00 00 00	 mov	 DWORD PTR [ecx+136], 0

; 41   : 
; 42   : 	}

  000b3	e9 79 ff ff ff	 jmp	 $LN2@InitBattle
$LN3@InitBattle:

; 43   : 	gBSGround[0]->SetBattleType(BT_SOCCER);

  000b8	6a 01		 push	 1
  000ba	b8 04 00 00 00	 mov	 eax, 4
  000bf	6b c8 00	 imul	 ecx, eax, 0
  000c2	8b 89 00 00 00
	00		 mov	 ecx, DWORD PTR ?gBSGround@@3PAPAVCBattleSoccer@@A[ecx]
  000c8	e8 00 00 00 00	 call	 ?SetBattleType@CBattleGround@@QAEXH@Z ; CBattleGround::SetBattleType

; 44   : 	gBSGround[0]->SetGroundRect(6, 54, 141, 70, 180);

  000cd	68 b4 00 00 00	 push	 180			; 000000b4H
  000d2	6a 46		 push	 70			; 00000046H
  000d4	68 8d 00 00 00	 push	 141			; 0000008dH
  000d9	6a 36		 push	 54			; 00000036H
  000db	6a 06		 push	 6
  000dd	b8 04 00 00 00	 mov	 eax, 4
  000e2	6b c8 00	 imul	 ecx, eax, 0
  000e5	8b 89 00 00 00
	00		 mov	 ecx, DWORD PTR ?gBSGround@@3PAPAVCBattleSoccer@@A[ecx]
  000eb	e8 00 00 00 00	 call	 ?SetGroundRect@CBattleGround@@QAEXHHHHH@Z ; CBattleGround::SetGroundRect

; 45   : 	gBSGround[0]->SetGoalLeftRect(60, 139, 64, 140);

  000f0	68 8c 00 00 00	 push	 140			; 0000008cH
  000f5	6a 40		 push	 64			; 00000040H
  000f7	68 8b 00 00 00	 push	 139			; 0000008bH
  000fc	6a 3c		 push	 60			; 0000003cH
  000fe	b8 04 00 00 00	 mov	 eax, 4
  00103	6b c8 00	 imul	 ecx, eax, 0
  00106	8b 89 00 00 00
	00		 mov	 ecx, DWORD PTR ?gBSGround@@3PAPAVCBattleSoccer@@A[ecx]
  0010c	e8 00 00 00 00	 call	 ?SetGoalLeftRect@CBattleSoccer@@QAEXHHHH@Z ; CBattleSoccer::SetGoalLeftRect

; 46   : 	gBSGround[0]->SetGoalRightRect(60, 181, 64, 182);	

  00111	68 b6 00 00 00	 push	 182			; 000000b6H
  00116	6a 40		 push	 64			; 00000040H
  00118	68 b5 00 00 00	 push	 181			; 000000b5H
  0011d	6a 3c		 push	 60			; 0000003cH
  0011f	b8 04 00 00 00	 mov	 eax, 4
  00124	6b c8 00	 imul	 ecx, eax, 0
  00127	8b 89 00 00 00
	00		 mov	 ecx, DWORD PTR ?gBSGround@@3PAPAVCBattleSoccer@@A[ecx]
  0012d	e8 00 00 00 00	 call	 ?SetGoalRightRect@CBattleSoccer@@QAEXHHHH@Z ; CBattleSoccer::SetGoalRightRect

; 47   : }

  00132	8b 4d f4	 mov	 ecx, DWORD PTR __$EHRec$[ebp]
  00135	64 89 0d 00 00
	00 00		 mov	 DWORD PTR fs:0, ecx
  0013c	59		 pop	 ecx
  0013d	5f		 pop	 edi
  0013e	5e		 pop	 esi
  0013f	5b		 pop	 ebx
  00140	8b e5		 mov	 esp, ebp
  00142	5d		 pop	 ebp
  00143	c3		 ret	 0
_TEXT	ENDS
;	COMDAT text$x
text$x	SEGMENT
__unwindfunclet$?InitBattleSoccer@@YAXXZ$0:
  00000	68 90 00 00 00	 push	 144			; 00000090H
  00005	8b 45 a8	 mov	 eax, DWORD PTR $T2[ebp]
  00008	50		 push	 eax
  00009	e8 00 00 00 00	 call	 ??3@YAXPAXI@Z		; operator delete
  0000e	83 c4 08	 add	 esp, 8
  00011	c3		 ret	 0
  00012	cc		 int	 3
  00013	cc		 int	 3
  00014	cc		 int	 3
  00015	cc		 int	 3
  00016	cc		 int	 3
__ehhandler$?InitBattleSoccer@@YAXXZ:
  00017	90		 npad	 1
  00018	90		 npad	 1
  00019	8b 54 24 08	 mov	 edx, DWORD PTR [esp+8]
  0001d	8d 42 0c	 lea	 eax, DWORD PTR [edx+12]
  00020	8b 4a a0	 mov	 ecx, DWORD PTR [edx-96]
  00023	33 c8		 xor	 ecx, eax
  00025	e8 00 00 00 00	 call	 @__security_check_cookie@4
  0002a	b8 00 00 00 00	 mov	 eax, OFFSET __ehfuncinfo$?InitBattleSoccer@@YAXXZ
  0002f	e9 00 00 00 00	 jmp	 ___CxxFrameHandler3
text$x	ENDS
?InitBattleSoccer@@YAXXZ ENDP				; InitBattleSoccer
; Function compile flags: /Odtp /ZI
;	COMDAT ??_GCBattleSoccerManager@@UAEPAXI@Z
_TEXT	SEGMENT
_this$ = -4						; size = 4
___flags$ = 8						; size = 4
??_GCBattleSoccerManager@@UAEPAXI@Z PROC		; CBattleSoccerManager::`scalar deleting destructor', COMDAT
; _this$ = ecx
  00000	55		 push	 ebp
  00001	8b ec		 mov	 ebp, esp
  00003	83 ec 44	 sub	 esp, 68			; 00000044H
  00006	53		 push	 ebx
  00007	56		 push	 esi
  00008	57		 push	 edi
  00009	89 4d fc	 mov	 DWORD PTR _this$[ebp], ecx
  0000c	8b 4d fc	 mov	 ecx, DWORD PTR _this$[ebp]
  0000f	e8 00 00 00 00	 call	 ??1CBattleSoccerManager@@UAE@XZ ; CBattleSoccerManager::~CBattleSoccerManager
  00014	8b 45 08	 mov	 eax, DWORD PTR ___flags$[ebp]
  00017	83 e0 01	 and	 eax, 1
  0001a	74 0e		 je	 SHORT $LN2@scalar
  0001c	6a 04		 push	 4
  0001e	8b 45 fc	 mov	 eax, DWORD PTR _this$[ebp]
  00021	50		 push	 eax
  00022	e8 00 00 00 00	 call	 ??3@YAXPAXI@Z		; operator delete
  00027	83 c4 08	 add	 esp, 8
$LN2@scalar:
  0002a	8b 45 fc	 mov	 eax, DWORD PTR _this$[ebp]
  0002d	5f		 pop	 edi
  0002e	5e		 pop	 esi
  0002f	5b		 pop	 ebx
  00030	8b e5		 mov	 esp, ebp
  00032	5d		 pop	 ebp
  00033	c2 04 00	 ret	 4
??_GCBattleSoccerManager@@UAEPAXI@Z ENDP		; CBattleSoccerManager::`scalar deleting destructor'
_TEXT	ENDS
; Function compile flags: /Odtp /ZI
; File C:\Mu Online\Mu-GS-Webzen-MC-10093\GameServer\BattleSoccerManager.cpp
;	COMDAT ??1CBattleSoccerManager@@UAE@XZ
_TEXT	SEGMENT
_this$ = -4						; size = 4
??1CBattleSoccerManager@@UAE@XZ PROC			; CBattleSoccerManager::~CBattleSoccerManager, COMDAT
; _this$ = ecx

; 24   : {

  00000	55		 push	 ebp
  00001	8b ec		 mov	 ebp, esp
  00003	83 ec 44	 sub	 esp, 68			; 00000044H
  00006	53		 push	 ebx
  00007	56		 push	 esi
  00008	57		 push	 edi
  00009	89 4d fc	 mov	 DWORD PTR _this$[ebp], ecx
  0000c	8b 45 fc	 mov	 eax, DWORD PTR _this$[ebp]
  0000f	c7 00 00 00 00
	00		 mov	 DWORD PTR [eax], OFFSET ??_7CBattleSoccerManager@@6B@

; 25   : 
; 26   : }

  00015	5f		 pop	 edi
  00016	5e		 pop	 esi
  00017	5b		 pop	 ebx
  00018	8b e5		 mov	 esp, ebp
  0001a	5d		 pop	 ebp
  0001b	c3		 ret	 0
??1CBattleSoccerManager@@UAE@XZ ENDP			; CBattleSoccerManager::~CBattleSoccerManager
_TEXT	ENDS
; Function compile flags: /Odtp /ZI
; File C:\Mu Online\Mu-GS-Webzen-MC-10093\GameServer\BattleSoccerManager.cpp
;	COMDAT ??0CBattleSoccerManager@@QAE@XZ
_TEXT	SEGMENT
_this$ = -4						; size = 4
??0CBattleSoccerManager@@QAE@XZ PROC			; CBattleSoccerManager::CBattleSoccerManager, COMDAT
; _this$ = ecx

; 19   : {

  00000	55		 push	 ebp
  00001	8b ec		 mov	 ebp, esp
  00003	83 ec 44	 sub	 esp, 68			; 00000044H
  00006	53		 push	 ebx
  00007	56		 push	 esi
  00008	57		 push	 edi
  00009	89 4d fc	 mov	 DWORD PTR _this$[ebp], ecx
  0000c	8b 45 fc	 mov	 eax, DWORD PTR _this$[ebp]
  0000f	c7 00 00 00 00
	00		 mov	 DWORD PTR [eax], OFFSET ??_7CBattleSoccerManager@@6B@

; 20   : 
; 21   : }

  00015	8b 45 fc	 mov	 eax, DWORD PTR _this$[ebp]
  00018	5f		 pop	 edi
  00019	5e		 pop	 esi
  0001a	5b		 pop	 ebx
  0001b	8b e5		 mov	 esp, ebp
  0001d	5d		 pop	 ebp
  0001e	c3		 ret	 0
??0CBattleSoccerManager@@QAE@XZ ENDP			; CBattleSoccerManager::CBattleSoccerManager
_TEXT	ENDS
; Function compile flags: /Odtp /ZI
; File C:\Mu Online\Mu-GS-Webzen-MC-10093\GameServer\BattleSoccerManager.cpp
;	COMDAT ?__empty_global_delete@@YAXPAXI@Z
_TEXT	SEGMENT
___formal$ = 8						; size = 4
___formal$ = 12						; size = 4
?__empty_global_delete@@YAXPAXI@Z PROC			; __empty_global_delete, COMDAT

  00000	55		 push	 ebp
  00001	8b ec		 mov	 ebp, esp
  00003	83 ec 40	 sub	 esp, 64			; 00000040H
  00006	53		 push	 ebx
  00007	56		 push	 esi
  00008	57		 push	 edi
  00009	5f		 pop	 edi
  0000a	5e		 pop	 esi
  0000b	5b		 pop	 ebx
  0000c	8b e5		 mov	 esp, ebp
  0000e	5d		 pop	 ebp
  0000f	c3		 ret	 0
?__empty_global_delete@@YAXPAXI@Z ENDP			; __empty_global_delete
_TEXT	ENDS
; Function compile flags: /Odtp /ZI
; File C:\Mu Online\Mu-GS-Webzen-MC-10093\GameServer\BattleSoccerManager.cpp
;	COMDAT ?__empty_global_delete@@YAXPAX@Z
_TEXT	SEGMENT
___formal$ = 8						; size = 4
?__empty_global_delete@@YAXPAX@Z PROC			; __empty_global_delete, COMDAT

  00000	55		 push	 ebp
  00001	8b ec		 mov	 ebp, esp
  00003	83 ec 40	 sub	 esp, 64			; 00000040H
  00006	53		 push	 ebx
  00007	56		 push	 esi
  00008	57		 push	 edi
  00009	5f		 pop	 edi
  0000a	5e		 pop	 esi
  0000b	5b		 pop	 ebx
  0000c	8b e5		 mov	 esp, ebp
  0000e	5d		 pop	 ebp
  0000f	c3		 ret	 0
?__empty_global_delete@@YAXPAX@Z ENDP			; __empty_global_delete
_TEXT	ENDS
END
