; Listing generated by Microsoft (R) Optimizing Compiler Version 19.27.29111.0 

	TITLE	C:\Mu Online\Mu-GS-Webzen-MC-10093\GameServer\BloodCastle.cpp
	.686P
	.XMM
	include listing.inc
	.model	flat

INCLUDELIB LIBCMT
INCLUDELIB OLDNAMES

CONST	SEGMENT
?g_btCastleEntranceMapXY@@3QAY03$$CBEA DB 0dH		; g_btCastleEntranceMapXY
	DB	0fH
	DB	0fH
	DB	017H
	DB	0dH
	DB	0fH
	DB	0fH
	DB	017H
	DB	0dH
	DB	0fH
	DB	0fH
	DB	017H
	DB	0dH
	DB	0fH
	DB	0fH
	DB	017H
	DB	0dH
	DB	0fH
	DB	0fH
	DB	017H
	DB	0dH
	DB	0fH
	DB	0fH
	DB	017H
	DB	0dH
	DB	0fH
	DB	0fH
	DB	017H
?g_btCastleBridgeMapXY@@3QAY03$$CBEA DB 0dH		; g_btCastleBridgeMapXY
	DB	046H
	DB	0fH
	DB	04bH
	DB	0dH
	DB	046H
	DB	0fH
	DB	04bH
	DB	0dH
	DB	046H
	DB	0fH
	DB	04bH
	DB	0dH
	DB	046H
	DB	0fH
	DB	04bH
	DB	0dH
	DB	046H
	DB	0fH
	DB	04bH
	DB	0dH
	DB	046H
	DB	0fH
	DB	04bH
	DB	0dH
	DB	046H
	DB	0fH
	DB	04bH
?g_btCastleDoorMapXY@@3QAY123$$CBEA DB 0dH		; g_btCastleDoorMapXY
	DB	04cH
	DB	0fH
	DB	04fH
	DB	0bH
	DB	050H
	DB	019H
	DB	059H
	DB	08H
	DB	050H
	DB	0aH
	DB	053H
	DB	0dH
	DB	04cH
	DB	0fH
	DB	04fH
	DB	0bH
	DB	050H
	DB	019H
	DB	059H
	DB	08H
	DB	050H
	DB	0aH
	DB	053H
	DB	0dH
	DB	04cH
	DB	0fH
	DB	04fH
	DB	0bH
	DB	050H
	DB	019H
	DB	059H
	DB	08H
	DB	050H
	DB	0aH
	DB	053H
	DB	0dH
	DB	04cH
	DB	0fH
	DB	04fH
	DB	0bH
	DB	050H
	DB	019H
	DB	059H
	DB	08H
	DB	050H
	DB	0aH
	DB	053H
	DB	0dH
	DB	04cH
	DB	0fH
	DB	04fH
	DB	0bH
	DB	050H
	DB	019H
	DB	059H
	DB	08H
	DB	050H
	DB	0aH
	DB	053H
	DB	0dH
	DB	04cH
	DB	0fH
	DB	04fH
	DB	0bH
	DB	050H
	DB	019H
	DB	059H
	DB	08H
	DB	050H
	DB	0aH
	DB	053H
	DB	0dH
	DB	04cH
	DB	0fH
	DB	04fH
	DB	0bH
	DB	050H
	DB	019H
	DB	059H
	DB	08H
	DB	050H
	DB	0aH
	DB	053H
?g_iQuestWinExpendZEN@@3QAY01$$CBHA DD 04e20H		; g_iQuestWinExpendZEN
	DD	02710H
	DD	0c350H
	DD	061a8H
	DD	0186a0H
	DD	0c350H
	DD	0249f0H
	DD	013880H
	DD	030d40H
	DD	0186a0H
	DD	03d090H
	DD	01d4c0H
	DD	03d090H
	DD	01d4c0H
?g_iBC_ChoasMixSuccessRate@@3QBHB DD 050H		; g_iBC_ChoasMixSuccessRate
	DD	050H
	DD	050H
	DD	050H
	DD	050H
	DD	050H
	DD	050H
?g_iBC_ChoasMixMoney@@3QBHB DD 0c350H			; g_iBC_ChoasMixMoney
	DD	013880H
	DD	0249f0H
	DD	03d090H
	DD	061a80H
	DD	0927c0H
	DD	0cf850H
?g_iBC_EventScore_Fail@@3QBHB DD 0fffffed4H		; g_iBC_EventScore_Fail
	DD	0fffffed4H
	DD	0fffffed4H
	DD	0fffffed4H
	DD	0fffffed4H
	DD	0fffffed4H
	DD	0fffffed4H
?g_iBC_EventScore@@3QAY04$$CBHA DD 0258H		; g_iBC_EventScore
	DD	012cH
	DD	03e8H
	DD	0320H
	DD	0190H
	DD	0258H
	DD	012cH
	DD	03e8H
	DD	0320H
	DD	0190H
	DD	0258H
	DD	012cH
	DD	03edH
	DD	0320H
	DD	0190H
	DD	0258H
	DD	012cH
	DD	03edH
	DD	0320H
	DD	0190H
	DD	0258H
	DD	012cH
	DD	03edH
	DD	0320H
	DD	0190H
	DD	0258H
	DD	012cH
	DD	03edH
	DD	0320H
	DD	0190H
	DD	0258H
	DD	012cH
	DD	03edH
	DD	0320H
	DD	0190H
?g_iBC_Party_EventPoint@@3QBHB DD 05H			; g_iBC_Party_EventPoint
	DD	0aH
	DD	0fH
	DD	014H
	DD	01eH
?g_iBC_Add_Exp@@3QAY03$$CBHA DD 04e20H			; g_iBC_Add_Exp
	DD	04e20H
	DD	01388H
	DD	0a0H
	DD	0c350H
	DD	0c350H
	DD	02710H
	DD	0b4H
	DD	013880H
	DD	013880H
	DD	03a98H
	DD	0c8H
	DD	015f90H
	DD	015f90H
	DD	04e20H
	DD	0dcH
	DD	0186a0H
	DD	0186a0H
	DD	061a8H
	DD	0f0H
	DD	01adb0H
	DD	01adb0H
	DD	07530H
	DD	0104H
	DD	01d4c0H
	DD	01d4c0H
	DD	088b8H
	DD	0118H
?g_iBC_MONSTER_CHANGE_STATE@@3QAY02$$CBHA DD 0aH	; g_iBC_MONSTER_CHANGE_STATE
	DD	014H
	DD	0ffffffecH
	DD	014H
	DD	028H
	DD	0ffffffceH
CONST	ENDS
PUBLIC	?__empty_global_delete@@YAXPAX@Z		; __empty_global_delete
PUBLIC	?__empty_global_delete@@YAXPAXI@Z		; __empty_global_delete
PUBLIC	??2@YAPAXIPAX@Z					; operator new
PUBLIC	??0exception@std@@QAE@QBDH@Z			; std::exception::exception
PUBLIC	??0exception@std@@QAE@ABV01@@Z			; std::exception::exception
PUBLIC	??1exception@std@@UAE@XZ			; std::exception::~exception
PUBLIC	?what@exception@std@@UBEPBDXZ			; std::exception::what
PUBLIC	??_Gexception@std@@UAEPAXI@Z			; std::exception::`scalar deleting destructor'
PUBLIC	??0bad_alloc@std@@AAE@QBD@Z			; std::bad_alloc::bad_alloc
PUBLIC	??1bad_alloc@std@@UAE@XZ			; std::bad_alloc::~bad_alloc
PUBLIC	??0bad_alloc@std@@QAE@ABV01@@Z			; std::bad_alloc::bad_alloc
PUBLIC	??_Gbad_alloc@std@@UAEPAXI@Z			; std::bad_alloc::`scalar deleting destructor'
PUBLIC	??0bad_array_new_length@std@@QAE@XZ		; std::bad_array_new_length::bad_array_new_length
PUBLIC	??1bad_array_new_length@std@@UAE@XZ		; std::bad_array_new_length::~bad_array_new_length
PUBLIC	??0bad_array_new_length@std@@QAE@ABV01@@Z	; std::bad_array_new_length::bad_array_new_length
PUBLIC	??_Gbad_array_new_length@std@@UAEPAXI@Z		; std::bad_array_new_length::`scalar deleting destructor'
PUBLIC	?_Throw_bad_array_new_length@std@@YAXXZ		; std::_Throw_bad_array_new_length
PUBLIC	?max@?$numeric_limits@H@std@@SAHXZ		; std::numeric_limits<int>::max
PUBLIC	?_Allocate@_Default_allocate_traits@std@@SAPAXI@Z ; std::_Default_allocate_traits::_Allocate
PUBLIC	?_Adjust_manually_vector_aligned@std@@YAXAAPAXAAI@Z ; std::_Adjust_manually_vector_aligned
PUBLIC	?_Orphan_all@_Container_base0@std@@QAEXXZ	; std::_Container_base0::_Orphan_all
PUBLIC	?_Adopt@_Iterator_base0@std@@QAEXPBX@Z		; std::_Iterator_base0::_Adopt
PUBLIC	?_Getcont@_Iterator_base0@std@@QBEPBU_Container_base0@2@XZ ; std::_Iterator_base0::_Getcont
PUBLIC	??0_Fake_proxy_ptr_impl@std@@QAE@ABU_Fake_allocator@1@ABU_Container_base0@1@@Z ; std::_Fake_proxy_ptr_impl::_Fake_proxy_ptr_impl
PUBLIC	?_Release@_Fake_proxy_ptr_impl@std@@QAEXXZ	; std::_Fake_proxy_ptr_impl::_Release
PUBLIC	?_ARGB@@YAKEEEE@Z				; _ARGB
PUBLIC	??$min@I@std@@YAABIABI0@Z			; std::min<unsigned int>
PUBLIC	??$_Deallocate@$07$0A@@std@@YAXPAXI@Z		; std::_Deallocate<8,0>
PUBLIC	??$_Allocate@$07U_Default_allocate_traits@std@@$0A@@std@@YAPAXI@Z ; std::_Allocate<8,std::_Default_allocate_traits,0>
PUBLIC	??$_Allocate_manually_vector_aligned@U_Default_allocate_traits@std@@@std@@YAPAXI@Z ; std::_Allocate_manually_vector_aligned<std::_Default_allocate_traits>
PUBLIC	?CheckChoasMixItem@CBloodCastle@@QAEHH@Z	; CBloodCastle::CheckChoasMixItem
PUBLIC	?BloodCastleChaosMix@CBloodCastle@@QAE_NHH@Z	; CBloodCastle::BloodCastleChaosMix
PUBLIC	?AddExperience@CBloodCastle@@QAE_NHH@Z		; CBloodCastle::AddExperience
PUBLIC	?CalcSendRewardEXP@CBloodCastle@@QAEHHH@Z	; CBloodCastle::CalcSendRewardEXP
PUBLIC	?CalcSendRewardZEN@CBloodCastle@@QAEHHH@Z	; CBloodCastle::CalcSendRewardZEN
PUBLIC	?DropChaosGem@CBloodCastle@@QAEXHH@Z		; CBloodCastle::DropChaosGem
PUBLIC	?SendRewardScore@CBloodCastle@@QAEXHHHH@Z	; CBloodCastle::SendRewardScore
PUBLIC	?GiveReward_Win@CBloodCastle@@QAEXHH@Z		; CBloodCastle::GiveReward_Win
PUBLIC	?GiveReward_Fail@CBloodCastle@@QAEXH@Z		; CBloodCastle::GiveReward_Fail
PUBLIC	?SearchUserDeleteQuestItem@CBloodCastle@@QAEXH@Z ; CBloodCastle::SearchUserDeleteQuestItem
PUBLIC	?SearchUserDropQuestItem@CBloodCastle@@QAEXH@Z	; CBloodCastle::SearchUserDropQuestItem
PUBLIC	?SetUserState@CBloodCastle@@QAEXHH@Z		; CBloodCastle::SetUserState
PUBLIC	?SendCastleEntranceBlockInfo@CBloodCastle@@QAEXH_N@Z ; CBloodCastle::SendCastleEntranceBlockInfo
PUBLIC	?SendCastleBridgeBlockInfo@CBloodCastle@@QAEXH_N@Z ; CBloodCastle::SendCastleBridgeBlockInfo
PUBLIC	?SendCastleDoorBlockInfo@CBloodCastle@@QAEXH_N@Z ; CBloodCastle::SendCastleDoorBlockInfo
PUBLIC	?SendAllUserAnyMsg@CBloodCastle@@QAEXPAEH@Z	; CBloodCastle::SendAllUserAnyMsg
PUBLIC	?SendBridgeAnyMsg@CBloodCastle@@QAEXPAEHH@Z	; CBloodCastle::SendBridgeAnyMsg
PUBLIC	?SendNoticeMessage@CBloodCastle@@QAEXHPAD@Z	; CBloodCastle::SendNoticeMessage
PUBLIC	?SendNoticeScore@CBloodCastle@@QAEXH@Z		; CBloodCastle::SendNoticeScore
PUBLIC	?SendNoticeState@CBloodCastle@@QAEXHH@Z		; CBloodCastle::SendNoticeState
PUBLIC	?CheckUserBridgeMember@CBloodCastle@@QAE_NHH@Z	; CBloodCastle::CheckUserBridgeMember
PUBLIC	?BlockCastleEntrance@CBloodCastle@@QAEXH@Z	; CBloodCastle::BlockCastleEntrance
PUBLIC	?ReleaseCastleEntrance@CBloodCastle@@QAEXH@Z	; CBloodCastle::ReleaseCastleEntrance
PUBLIC	?BlockCastleBridge@CBloodCastle@@QAEXH@Z	; CBloodCastle::BlockCastleBridge
PUBLIC	?ReleaseCastleBridge@CBloodCastle@@QAEXH@Z	; CBloodCastle::ReleaseCastleBridge
PUBLIC	?BlockCastleDoor@CBloodCastle@@QAEXH@Z		; CBloodCastle::BlockCastleDoor
PUBLIC	?ReleaseCastleDoor@CBloodCastle@@QAEXH@Z	; CBloodCastle::ReleaseCastleDoor
PUBLIC	?SetMonsterKillCount@CBloodCastle@@QAEXH@Z	; CBloodCastle::SetMonsterKillCount
PUBLIC	?CheckMonsterKillCount@CBloodCastle@@QAE_NH@Z	; CBloodCastle::CheckMonsterKillCount
PUBLIC	?CheckMonsterKillSuccess@CBloodCastle@@QAE_NH@Z	; CBloodCastle::CheckMonsterKillSuccess
PUBLIC	?CheckBossKillCount@CBloodCastle@@QAE_NH@Z	; CBloodCastle::CheckBossKillCount
PUBLIC	?CheckBossKillSuccess@CBloodCastle@@QAE_NH@Z	; CBloodCastle::CheckBossKillSuccess
PUBLIC	?CheckEveryUserDie@CBloodCastle@@QAE_NH@Z	; CBloodCastle::CheckEveryUserDie
PUBLIC	?CheckAngelKingExist@CBloodCastle@@QAE_NH@Z	; CBloodCastle::CheckAngelKingExist
PUBLIC	?GetWhoGotUltimateWeapon@CBloodCastle@@QAEHH@Z	; CBloodCastle::GetWhoGotUltimateWeapon
PUBLIC	?GetCurrentLiveUserCount@CBloodCastle@@QAEHH@Z	; CBloodCastle::GetCurrentLiveUserCount
PUBLIC	?DropItemDirectly@CBloodCastle@@QAEHHHHH@Z	; CBloodCastle::DropItemDirectly
PUBLIC	?ClearMonster@CBloodCastle@@QAEXH_N@Z		; CBloodCastle::ClearMonster
PUBLIC	?SetMonster@CBloodCastle@@QAEXH@Z		; CBloodCastle::SetMonster
PUBLIC	?SetBossMonster@CBloodCastle@@QAEXH@Z		; CBloodCastle::SetBossMonster
PUBLIC	?SetSaintStatue@CBloodCastle@@QAEXH@Z		; CBloodCastle::SetSaintStatue
PUBLIC	?LeaveUserBridge@CBloodCastle@@QAEHHHH@Z	; CBloodCastle::LeaveUserBridge
PUBLIC	?EnterUserBridge@CBloodCastle@@QAEHHH@Z		; CBloodCastle::EnterUserBridge
PUBLIC	?LevelUp@CBloodCastle@@QAEHHHH@Z		; CBloodCastle::LevelUp
PUBLIC	?CheckUsersOnConnect@CBloodCastle@@QAEXH@Z	; CBloodCastle::CheckUsersOnConnect
PUBLIC	?GetCurrentState@CBloodCastle@@QAEHH@Z		; CBloodCastle::GetCurrentState
PUBLIC	?GetRemainTime@CBloodCastle@@QAEHH@Z		; CBloodCastle::GetRemainTime
PUBLIC	?GetCurrentRemainSec@CBloodCastle@@QAEHH@Z	; CBloodCastle::GetCurrentRemainSec
PUBLIC	?CheckEnterLevel@CBloodCastle@@QAEHHH@Z		; CBloodCastle::CheckEnterLevel
PUBLIC	?CheckEnterItem@CBloodCastle@@QAEHH@Z		; CBloodCastle::CheckEnterItem
PUBLIC	?CheckQuestItem@CBloodCastle@@QAEHH@Z		; CBloodCastle::CheckQuestItem
PUBLIC	?CheckWalk@CBloodCastle@@QAE_NHHH@Z		; CBloodCastle::CheckWalk
PUBLIC	?CheckCanEnter@CBloodCastle@@QAE_NH@Z		; CBloodCastle::CheckCanEnter
PUBLIC	?CheckCanParty@CBloodCastle@@QAE_NH@Z		; CBloodCastle::CheckCanParty
PUBLIC	?CheckPlayStart@CBloodCastle@@QAE_NH@Z		; CBloodCastle::CheckPlayStart
PUBLIC	?CheckQuestItemSerial@CBloodCastle@@QAE_NHPAVCMapItem@@@Z ; CBloodCastle::CheckQuestItemSerial
PUBLIC	?CheckUserHaveUlimateWeapon@CBloodCastle@@QAE_NH@Z ; CBloodCastle::CheckUserHaveUlimateWeapon
PUBLIC	?CheckWinnerExist@CBloodCastle@@QAE_NH@Z	; CBloodCastle::CheckWinnerExist
PUBLIC	?CheckWinnerValid@CBloodCastle@@QAE_NH@Z	; CBloodCastle::CheckWinnerValid
PUBLIC	?CheckUserWinnerParty@CBloodCastle@@QAE_NHH@Z	; CBloodCastle::CheckUserWinnerParty
PUBLIC	?CheckPartyExist@CBloodCastle@@QAE_NH@Z		; CBloodCastle::CheckPartyExist
PUBLIC	?CheckWinnerPartyComplete@CBloodCastle@@QAE_NH@Z ; CBloodCastle::CheckWinnerPartyComplete
PUBLIC	?SetBridgeWinner@CBloodCastle@@QAE_NHH@Z	; CBloodCastle::SetBridgeWinner
PUBLIC	?GetWinnerPartyCompleteCount@CBloodCastle@@QAEHH@Z ; CBloodCastle::GetWinnerPartyCompleteCount
PUBLIC	?GetWinnerPartyCompletePoint@CBloodCastle@@QAEHH@Z ; CBloodCastle::GetWinnerPartyCompletePoint
PUBLIC	?ChangeMonsterState@CBloodCastle@@QAEXHH@Z	; CBloodCastle::ChangeMonsterState
PUBLIC	?FixUsersPlayStateWin@CBloodCastle@@QAEXH@Z	; CBloodCastle::FixUsersPlayStateWin
PUBLIC	?FixUsersPlayStateFail@CBloodCastle@@QAEXH@Z	; CBloodCastle::FixUsersPlayStateFail
PUBLIC	?Run@CBloodCastle@@QAEXXZ			; CBloodCastle::Run
PUBLIC	?Init@CBloodCastle@@QAEX_N@Z			; CBloodCastle::Init
PUBLIC	?Load@CBloodCastle@@QAEXPAD@Z			; CBloodCastle::Load
PUBLIC	?LoadItemDropRate@CBloodCastle@@QAEXXZ		; CBloodCastle::LoadItemDropRate
PUBLIC	?SetState@CBloodCastle@@QAEXHH@Z		; CBloodCastle::SetState
PUBLIC	??0CBloodCastle@@QAE@XZ				; CBloodCastle::CBloodCastle
PUBLIC	??1CBloodCastle@@UAE@XZ				; CBloodCastle::~CBloodCastle
PUBLIC	??0?$allocator@U?$_List_node@UBLOODCASTLE_REWARD@@PAX@std@@@std@@QAE@XZ ; std::allocator<std::_List_node<BLOODCASTLE_REWARD,void *> >::allocator<std::_List_node<BLOODCASTLE_REWARD,void *> >
PUBLIC	?deallocate@?$allocator@U?$_List_node@UBLOODCASTLE_REWARD@@PAX@std@@@std@@QAEXQAU?$_List_node@UBLOODCASTLE_REWARD@@PAX@2@I@Z ; std::allocator<std::_List_node<BLOODCASTLE_REWARD,void *> >::deallocate
PUBLIC	?allocate@?$allocator@U?$_List_node@UBLOODCASTLE_REWARD@@PAX@std@@@std@@QAEPAU?$_List_node@UBLOODCASTLE_REWARD@@PAX@2@I@Z ; std::allocator<std::_List_node<BLOODCASTLE_REWARD,void *> >::allocate
PUBLIC	?deallocate@?$_Default_allocator_traits@V?$allocator@U?$_List_node@UBLOODCASTLE_REWARD@@PAX@std@@@std@@@std@@SAXAAV?$allocator@U?$_List_node@UBLOODCASTLE_REWARD@@PAX@std@@@2@QAU?$_List_node@UBLOODCASTLE_REWARD@@PAX@2@I@Z ; std::_Default_allocator_traits<std::allocator<std::_List_node<BLOODCASTLE_REWARD,void *> > >::deallocate
PUBLIC	?max_size@?$_Default_allocator_traits@V?$allocator@U?$_List_node@UBLOODCASTLE_REWARD@@PAX@std@@@std@@@std@@SAIABV?$allocator@U?$_List_node@UBLOODCASTLE_REWARD@@PAX@std@@@2@@Z ; std::_Default_allocator_traits<std::allocator<std::_List_node<BLOODCASTLE_REWARD,void *> > >::max_size
PUBLIC	??0?$list@UBLOODCASTLE_REWARD@@V?$allocator@UBLOODCASTLE_REWARD@@@std@@@std@@QAE@XZ ; std::list<BLOODCASTLE_REWARD,std::allocator<BLOODCASTLE_REWARD> >::list<BLOODCASTLE_REWARD,std::allocator<BLOODCASTLE_REWARD> >
PUBLIC	??1?$list@UBLOODCASTLE_REWARD@@V?$allocator@UBLOODCASTLE_REWARD@@@std@@@std@@QAE@XZ ; std::list<BLOODCASTLE_REWARD,std::allocator<BLOODCASTLE_REWARD> >::~list<BLOODCASTLE_REWARD,std::allocator<BLOODCASTLE_REWARD> >
PUBLIC	?begin@?$list@UBLOODCASTLE_REWARD@@V?$allocator@UBLOODCASTLE_REWARD@@@std@@@std@@QAE?AV?$_List_iterator@V?$_List_val@U?$_List_simple_types@UBLOODCASTLE_REWARD@@@std@@@std@@@2@XZ ; std::list<BLOODCASTLE_REWARD,std::allocator<BLOODCASTLE_REWARD> >::begin
PUBLIC	?size@?$list@UBLOODCASTLE_REWARD@@V?$allocator@UBLOODCASTLE_REWARD@@@std@@@std@@QBEIXZ ; std::list<BLOODCASTLE_REWARD,std::allocator<BLOODCASTLE_REWARD> >::size
PUBLIC	?max_size@?$list@UBLOODCASTLE_REWARD@@V?$allocator@UBLOODCASTLE_REWARD@@@std@@@std@@QBEIXZ ; std::list<BLOODCASTLE_REWARD,std::allocator<BLOODCASTLE_REWARD> >::max_size
PUBLIC	?push_back@?$list@UBLOODCASTLE_REWARD@@V?$allocator@UBLOODCASTLE_REWARD@@@std@@@std@@QAEXABUBLOODCASTLE_REWARD@@@Z ; std::list<BLOODCASTLE_REWARD,std::allocator<BLOODCASTLE_REWARD> >::push_back
PUBLIC	?clear@?$list@UBLOODCASTLE_REWARD@@V?$allocator@UBLOODCASTLE_REWARD@@@std@@@std@@QAEXXZ ; std::list<BLOODCASTLE_REWARD,std::allocator<BLOODCASTLE_REWARD> >::clear
PUBLIC	?_Tidy@?$list@UBLOODCASTLE_REWARD@@V?$allocator@UBLOODCASTLE_REWARD@@@std@@@std@@AAEXXZ ; std::list<BLOODCASTLE_REWARD,std::allocator<BLOODCASTLE_REWARD> >::_Tidy
PUBLIC	?_Alloc_sentinel_and_proxy@?$list@UBLOODCASTLE_REWARD@@V?$allocator@UBLOODCASTLE_REWARD@@@std@@@std@@AAEXXZ ; std::list<BLOODCASTLE_REWARD,std::allocator<BLOODCASTLE_REWARD> >::_Alloc_sentinel_and_proxy
PUBLIC	?_Getal@?$list@UBLOODCASTLE_REWARD@@V?$allocator@UBLOODCASTLE_REWARD@@@std@@@std@@AAEAAV?$allocator@U?$_List_node@UBLOODCASTLE_REWARD@@PAX@std@@@2@XZ ; std::list<BLOODCASTLE_REWARD,std::allocator<BLOODCASTLE_REWARD> >::_Getal
PUBLIC	?_Getal@?$list@UBLOODCASTLE_REWARD@@V?$allocator@UBLOODCASTLE_REWARD@@@std@@@std@@ABEABV?$allocator@U?$_List_node@UBLOODCASTLE_REWARD@@PAX@std@@@2@XZ ; std::list<BLOODCASTLE_REWARD,std::allocator<BLOODCASTLE_REWARD> >::_Getal
PUBLIC	??0?$_List_val@U?$_List_simple_types@UBLOODCASTLE_REWARD@@@std@@@std@@QAE@XZ ; std::_List_val<std::_List_simple_types<BLOODCASTLE_REWARD> >::_List_val<std::_List_simple_types<BLOODCASTLE_REWARD> >
PUBLIC	?_Orphan_non_end@?$_List_val@U?$_List_simple_types@UBLOODCASTLE_REWARD@@@std@@@std@@QAEXXZ ; std::_List_val<std::_List_simple_types<BLOODCASTLE_REWARD> >::_Orphan_non_end
PUBLIC	?_Get_first@?$_Compressed_pair@V?$allocator@U?$_List_node@UBLOODCASTLE_REWARD@@PAX@std@@@std@@V?$_List_val@U?$_List_simple_types@UBLOODCASTLE_REWARD@@@std@@@2@$00@std@@QAEAAV?$allocator@U?$_List_node@UBLOODCASTLE_REWARD@@PAX@std@@@2@XZ ; std::_Compressed_pair<std::allocator<std::_List_node<BLOODCASTLE_REWARD,void *> >,std::_List_val<std::_List_simple_types<BLOODCASTLE_REWARD> >,1>::_Get_first
PUBLIC	?_Get_first@?$_Compressed_pair@V?$allocator@U?$_List_node@UBLOODCASTLE_REWARD@@PAX@std@@@std@@V?$_List_val@U?$_List_simple_types@UBLOODCASTLE_REWARD@@@std@@@2@$00@std@@QBEABV?$allocator@U?$_List_node@UBLOODCASTLE_REWARD@@PAX@std@@@2@XZ ; std::_Compressed_pair<std::allocator<std::_List_node<BLOODCASTLE_REWARD,void *> >,std::_List_val<std::_List_simple_types<BLOODCASTLE_REWARD> >,1>::_Get_first
PUBLIC	?CheckSync@CBloodCastle@@IAEXH@Z		; CBloodCastle::CheckSync
PUBLIC	?ClearBridgeData@CBloodCastle@@IAEXH@Z		; CBloodCastle::ClearBridgeData
PUBLIC	?ProcState_None@CBloodCastle@@IAEXH@Z		; CBloodCastle::ProcState_None
PUBLIC	?ProcState_Closed@CBloodCastle@@IAEXH@Z		; CBloodCastle::ProcState_Closed
PUBLIC	?ProcState_Playing@CBloodCastle@@IAEXH@Z	; CBloodCastle::ProcState_Playing
PUBLIC	?ProcState_PlayEnd@CBloodCastle@@IAEXH@Z	; CBloodCastle::ProcState_PlayEnd
PUBLIC	?SetState_None@CBloodCastle@@IAEXH@Z		; CBloodCastle::SetState_None
PUBLIC	?SetState_Closed@CBloodCastle@@IAEXH@Z		; CBloodCastle::SetState_Closed
PUBLIC	?SetState_Playing@CBloodCastle@@IAEXH@Z		; CBloodCastle::SetState_Playing
PUBLIC	?SetState_PlayEnd@CBloodCastle@@IAEXH@Z		; CBloodCastle::SetState_PlayEnd
PUBLIC	?BlockSector@CBloodCastle@@IAEXHHHHH@Z		; CBloodCastle::BlockSector
PUBLIC	?ReleaseSector@CBloodCastle@@IAEXHHHHH@Z	; CBloodCastle::ReleaseSector
PUBLIC	?GetAliveUserTotalEXP@CBloodCastle@@IAEHH@Z	; CBloodCastle::GetAliveUserTotalEXP
PUBLIC	??_GCBloodCastle@@UAEPAXI@Z			; CBloodCastle::`scalar deleting destructor'
PUBLIC	??0?$_List_unchecked_const_iterator@V?$_List_val@U?$_List_simple_types@UBLOODCASTLE_REWARD@@@std@@@std@@U_Iterator_base0@2@@std@@QAE@PAU?$_List_node@UBLOODCASTLE_REWARD@@PAX@1@PBV?$_List_val@U?$_List_simple_types@UBLOODCASTLE_REWARD@@@std@@@1@@Z ; std::_List_unchecked_const_iterator<std::_List_val<std::_List_simple_types<BLOODCASTLE_REWARD> >,std::_Iterator_base0>::_List_unchecked_const_iterator<std::_List_val<std::_List_simple_types<BLOODCASTLE_REWARD> >,std::_Iterator_base0>
PUBLIC	??E?$_List_unchecked_const_iterator@V?$_List_val@U?$_List_simple_types@UBLOODCASTLE_REWARD@@@std@@@std@@U_Iterator_base0@2@@std@@QAEAAV01@XZ ; std::_List_unchecked_const_iterator<std::_List_val<std::_List_simple_types<BLOODCASTLE_REWARD> >,std::_Iterator_base0>::operator++
PUBLIC	??F?$_List_unchecked_const_iterator@V?$_List_val@U?$_List_simple_types@UBLOODCASTLE_REWARD@@@std@@@std@@U_Iterator_base0@2@@std@@QAEAAV01@XZ ; std::_List_unchecked_const_iterator<std::_List_val<std::_List_simple_types<BLOODCASTLE_REWARD> >,std::_Iterator_base0>::operator--
PUBLIC	??D?$_List_const_iterator@V?$_List_val@U?$_List_simple_types@UBLOODCASTLE_REWARD@@@std@@@std@@@std@@QBEABUBLOODCASTLE_REWARD@@XZ ; std::_List_const_iterator<std::_List_val<std::_List_simple_types<BLOODCASTLE_REWARD> > >::operator*
PUBLIC	?_Seek_to@?$_List_const_iterator@V?$_List_val@U?$_List_simple_types@UBLOODCASTLE_REWARD@@@std@@@std@@@std@@QAEXV?$_List_unchecked_const_iterator@V?$_List_val@U?$_List_simple_types@UBLOODCASTLE_REWARD@@@std@@@std@@U_Iterator_base0@2@@2@@Z ; std::_List_const_iterator<std::_List_val<std::_List_simple_types<BLOODCASTLE_REWARD> > >::_Seek_to
PUBLIC	??0?$_List_const_iterator@V?$_List_val@U?$_List_simple_types@UBLOODCASTLE_REWARD@@@std@@@std@@@std@@QAE@PAU?$_List_node@UBLOODCASTLE_REWARD@@PAX@1@PBV?$_List_val@U?$_List_simple_types@UBLOODCASTLE_REWARD@@@std@@@1@@Z ; std::_List_const_iterator<std::_List_val<std::_List_simple_types<BLOODCASTLE_REWARD> > >::_List_const_iterator<std::_List_val<std::_List_simple_types<BLOODCASTLE_REWARD> > >
PUBLIC	??D?$_List_iterator@V?$_List_val@U?$_List_simple_types@UBLOODCASTLE_REWARD@@@std@@@std@@@std@@QBEAAUBLOODCASTLE_REWARD@@XZ ; std::_List_iterator<std::_List_val<std::_List_simple_types<BLOODCASTLE_REWARD> > >::operator*
PUBLIC	?_Unwrapped@?$_List_iterator@V?$_List_val@U?$_List_simple_types@UBLOODCASTLE_REWARD@@@std@@@std@@@std@@QBE?AV?$_List_unchecked_iterator@V?$_List_val@U?$_List_simple_types@UBLOODCASTLE_REWARD@@@std@@@std@@@2@XZ ; std::_List_iterator<std::_List_val<std::_List_simple_types<BLOODCASTLE_REWARD> > >::_Unwrapped
PUBLIC	??0?$_List_iterator@V?$_List_val@U?$_List_simple_types@UBLOODCASTLE_REWARD@@@std@@@std@@@std@@QAE@PAU?$_List_node@UBLOODCASTLE_REWARD@@PAX@1@PBV?$_List_val@U?$_List_simple_types@UBLOODCASTLE_REWARD@@@std@@@1@@Z ; std::_List_iterator<std::_List_val<std::_List_simple_types<BLOODCASTLE_REWARD> > >::_List_iterator<std::_List_val<std::_List_simple_types<BLOODCASTLE_REWARD> > >
PUBLIC	??$advance@V?$_List_iterator@V?$_List_val@U?$_List_simple_types@UBLOODCASTLE_REWARD@@@std@@@std@@@std@@H@std@@YAXAAV?$_List_iterator@V?$_List_val@U?$_List_simple_types@UBLOODCASTLE_REWARD@@@std@@@std@@@0@H@Z ; std::advance<std::_List_iterator<std::_List_val<std::_List_simple_types<BLOODCASTLE_REWARD> > >,int>
PUBLIC	??$_Free_non_head@V?$allocator@U?$_List_node@UBLOODCASTLE_REWARD@@PAX@std@@@std@@@?$_List_node@UBLOODCASTLE_REWARD@@PAX@std@@SAXAAV?$allocator@U?$_List_node@UBLOODCASTLE_REWARD@@PAX@std@@@1@PAU01@@Z ; std::_List_node<BLOODCASTLE_REWARD,void *>::_Free_non_head<std::allocator<std::_List_node<BLOODCASTLE_REWARD,void *> > >
PUBLIC	??$_Emplace@ABUBLOODCASTLE_REWARD@@@?$list@UBLOODCASTLE_REWARD@@V?$allocator@UBLOODCASTLE_REWARD@@@std@@@std@@QAEPAU?$_List_node@UBLOODCASTLE_REWARD@@PAX@1@QAU21@ABUBLOODCASTLE_REWARD@@@Z ; std::list<BLOODCASTLE_REWARD,std::allocator<BLOODCASTLE_REWARD> >::_Emplace<BLOODCASTLE_REWARD const &>
PUBLIC	??$addressof@V?$_List_val@U?$_List_simple_types@UBLOODCASTLE_REWARD@@@std@@@std@@@std@@YAPAV?$_List_val@U?$_List_simple_types@UBLOODCASTLE_REWARD@@@std@@@0@AAV10@@Z ; std::addressof<std::_List_val<std::_List_simple_types<BLOODCASTLE_REWARD> > >
PUBLIC	??$?0$$V@?$_Compressed_pair@V?$allocator@U?$_List_node@UBLOODCASTLE_REWARD@@PAX@std@@@std@@V?$_List_val@U?$_List_simple_types@UBLOODCASTLE_REWARD@@@std@@@2@$00@std@@QAE@U_Zero_then_variadic_args_t@1@@Z ; std::_Compressed_pair<std::allocator<std::_List_node<BLOODCASTLE_REWARD,void *> >,std::_List_val<std::_List_simple_types<BLOODCASTLE_REWARD> >,1>::_Compressed_pair<std::allocator<std::_List_node<BLOODCASTLE_REWARD,void *> >,std::_List_val<std::_List_simple_types<BLOODCASTLE_REWARD> >,1><>
PUBLIC	??$_Construct_in_place@PAU?$_List_node@UBLOODCASTLE_REWARD@@PAX@std@@AAPAU12@@std@@YAXAAPAU?$_List_node@UBLOODCASTLE_REWARD@@PAX@0@0@Z ; std::_Construct_in_place<std::_List_node<BLOODCASTLE_REWARD,void *> *,std::_List_node<BLOODCASTLE_REWARD,void *> * &>
PUBLIC	??$_Freenode0@V?$allocator@U?$_List_node@UBLOODCASTLE_REWARD@@PAX@std@@@std@@@?$_List_node@UBLOODCASTLE_REWARD@@PAX@std@@SAXAAV?$allocator@U?$_List_node@UBLOODCASTLE_REWARD@@PAX@std@@@1@PAU01@@Z ; std::_List_node<BLOODCASTLE_REWARD,void *>::_Freenode0<std::allocator<std::_List_node<BLOODCASTLE_REWARD,void *> > >
PUBLIC	??$_Get_size_of_n@$0BE@@std@@YAII@Z		; std::_Get_size_of_n<20>
PUBLIC	??$move@AAV?$_List_iterator@V?$_List_val@U?$_List_simple_types@UBLOODCASTLE_REWARD@@@std@@@std@@@std@@@std@@YA$$QAV?$_List_iterator@V?$_List_val@U?$_List_simple_types@UBLOODCASTLE_REWARD@@@std@@@std@@@0@AAV10@@Z ; std::move<std::_List_iterator<std::_List_val<std::_List_simple_types<BLOODCASTLE_REWARD> > > &>
PUBLIC	??$_Get_unwrapped_n@V?$_List_iterator@V?$_List_val@U?$_List_simple_types@UBLOODCASTLE_REWARD@@@std@@@std@@@std@@H@std@@YA@$$QAV?$_List_iterator@V?$_List_val@U?$_List_simple_types@UBLOODCASTLE_REWARD@@@std@@@std@@@0@H@Z ; std::_Get_unwrapped_n<std::_List_iterator<std::_List_val<std::_List_simple_types<BLOODCASTLE_REWARD> > >,int>
PUBLIC	??E?$_List_unchecked_iterator@V?$_List_val@U?$_List_simple_types@UBLOODCASTLE_REWARD@@@std@@@std@@@std@@QAEAAV01@XZ ; std::_List_unchecked_iterator<std::_List_val<std::_List_simple_types<BLOODCASTLE_REWARD> > >::operator++
PUBLIC	??F?$_List_unchecked_iterator@V?$_List_val@U?$_List_simple_types@UBLOODCASTLE_REWARD@@@std@@@std@@@std@@QAEAAV01@XZ ; std::_List_unchecked_iterator<std::_List_val<std::_List_simple_types<BLOODCASTLE_REWARD> > >::operator--
PUBLIC	??0?$_List_unchecked_iterator@V?$_List_val@U?$_List_simple_types@UBLOODCASTLE_REWARD@@@std@@@std@@@std@@QAE@PAU?$_List_node@UBLOODCASTLE_REWARD@@PAX@1@PBV?$_List_val@U?$_List_simple_types@UBLOODCASTLE_REWARD@@@std@@@1@@Z ; std::_List_unchecked_iterator<std::_List_val<std::_List_simple_types<BLOODCASTLE_REWARD> > >::_List_unchecked_iterator<std::_List_val<std::_List_simple_types<BLOODCASTLE_REWARD> > >
PUBLIC	??$move@AAV?$_List_unchecked_iterator@V?$_List_val@U?$_List_simple_types@UBLOODCASTLE_REWARD@@@std@@@std@@@std@@@std@@YA$$QAV?$_List_unchecked_iterator@V?$_List_val@U?$_List_simple_types@UBLOODCASTLE_REWARD@@@std@@@std@@@0@AAV10@@Z ; std::move<std::_List_unchecked_iterator<std::_List_val<std::_List_simple_types<BLOODCASTLE_REWARD> > > &>
PUBLIC	??$_Seek_wrapped@V?$_List_iterator@V?$_List_val@U?$_List_simple_types@UBLOODCASTLE_REWARD@@@std@@@std@@@std@@V?$_List_unchecked_iterator@V?$_List_val@U?$_List_simple_types@UBLOODCASTLE_REWARD@@@std@@@std@@@2@@std@@YAXAAV?$_List_iterator@V?$_List_val@U?$_List_simple_types@UBLOODCASTLE_REWARD@@@std@@@std@@@0@$$QAV?$_List_unchecked_iterator@V?$_List_val@U?$_List_simple_types@UBLOODCASTLE_REWARD@@@std@@@std@@@0@@Z ; std::_Seek_wrapped<std::_List_iterator<std::_List_val<std::_List_simple_types<BLOODCASTLE_REWARD> > >,std::_List_unchecked_iterator<std::_List_val<std::_List_simple_types<BLOODCASTLE_REWARD> > > >
PUBLIC	??$_Freenode@V?$allocator@U?$_List_node@UBLOODCASTLE_REWARD@@PAX@std@@@std@@@?$_List_node@UBLOODCASTLE_REWARD@@PAX@std@@SAXAAV?$allocator@U?$_List_node@UBLOODCASTLE_REWARD@@PAX@std@@@1@PAU01@@Z ; std::_List_node<BLOODCASTLE_REWARD,void *>::_Freenode<std::allocator<std::_List_node<BLOODCASTLE_REWARD,void *> > >
PUBLIC	??0?$_Alloc_construct_ptr@V?$allocator@U?$_List_node@UBLOODCASTLE_REWARD@@PAX@std@@@std@@@std@@QAE@AAV?$allocator@U?$_List_node@UBLOODCASTLE_REWARD@@PAX@std@@@1@@Z ; std::_Alloc_construct_ptr<std::allocator<std::_List_node<BLOODCASTLE_REWARD,void *> > >::_Alloc_construct_ptr<std::allocator<std::_List_node<BLOODCASTLE_REWARD,void *> > >
PUBLIC	?_Allocate@?$_Alloc_construct_ptr@V?$allocator@U?$_List_node@UBLOODCASTLE_REWARD@@PAX@std@@@std@@@std@@QAEXXZ ; std::_Alloc_construct_ptr<std::allocator<std::_List_node<BLOODCASTLE_REWARD,void *> > >::_Allocate
PUBLIC	??1?$_Alloc_construct_ptr@V?$allocator@U?$_List_node@UBLOODCASTLE_REWARD@@PAX@std@@@std@@@std@@QAE@XZ ; std::_Alloc_construct_ptr<std::allocator<std::_List_node<BLOODCASTLE_REWARD,void *> > >::~_Alloc_construct_ptr<std::allocator<std::_List_node<BLOODCASTLE_REWARD,void *> > >
PUBLIC	??1?$_List_node_emplace_op2@V?$allocator@U?$_List_node@UBLOODCASTLE_REWARD@@PAX@std@@@std@@@std@@QAE@XZ ; std::_List_node_emplace_op2<std::allocator<std::_List_node<BLOODCASTLE_REWARD,void *> > >::~_List_node_emplace_op2<std::allocator<std::_List_node<BLOODCASTLE_REWARD,void *> > >
PUBLIC	?_Transfer_before@?$_List_node_emplace_op2@V?$allocator@U?$_List_node@UBLOODCASTLE_REWARD@@PAX@std@@@std@@@std@@QAEPAU?$_List_node@UBLOODCASTLE_REWARD@@PAX@2@QAU32@@Z ; std::_List_node_emplace_op2<std::allocator<std::_List_node<BLOODCASTLE_REWARD,void *> > >::_Transfer_before
PUBLIC	??$forward@ABUBLOODCASTLE_REWARD@@@std@@YAABUBLOODCASTLE_REWARD@@ABU1@@Z ; std::forward<BLOODCASTLE_REWARD const &>
PUBLIC	??$?0ABUBLOODCASTLE_REWARD@@@?$_List_node_emplace_op2@V?$allocator@U?$_List_node@UBLOODCASTLE_REWARD@@PAX@std@@@std@@@std@@QAE@AAV?$allocator@U?$_List_node@UBLOODCASTLE_REWARD@@PAX@std@@@1@ABUBLOODCASTLE_REWARD@@@Z ; std::_List_node_emplace_op2<std::allocator<std::_List_node<BLOODCASTLE_REWARD,void *> > >::_List_node_emplace_op2<std::allocator<std::_List_node<BLOODCASTLE_REWARD,void *> > ><BLOODCASTLE_REWARD const &>
PUBLIC	??$addressof@PAU?$_List_node@UBLOODCASTLE_REWARD@@PAX@std@@@std@@YAPAPAU?$_List_node@UBLOODCASTLE_REWARD@@PAX@0@AAPAU10@@Z ; std::addressof<std::_List_node<BLOODCASTLE_REWARD,void *> *>
PUBLIC	??$forward@AAPAU?$_List_node@UBLOODCASTLE_REWARD@@PAX@std@@@std@@YAAAPAU?$_List_node@UBLOODCASTLE_REWARD@@PAX@0@AAPAU10@@Z ; std::forward<std::_List_node<BLOODCASTLE_REWARD,void *> * &>
PUBLIC	??$_Destroy_in_place@PAU?$_List_node@UBLOODCASTLE_REWARD@@PAX@std@@@std@@YAXAAPAU?$_List_node@UBLOODCASTLE_REWARD@@PAX@0@@Z ; std::_Destroy_in_place<std::_List_node<BLOODCASTLE_REWARD,void *> *>
PUBLIC	??$_Construct_in_place@PAU?$_List_node@UBLOODCASTLE_REWARD@@PAX@std@@ABQAU12@@std@@YAXAAPAU?$_List_node@UBLOODCASTLE_REWARD@@PAX@0@ABQAU10@@Z ; std::_Construct_in_place<std::_List_node<BLOODCASTLE_REWARD,void *> *,std::_List_node<BLOODCASTLE_REWARD,void *> * const &>
PUBLIC	??$addressof@UBLOODCASTLE_REWARD@@@std@@YAPAUBLOODCASTLE_REWARD@@AAU1@@Z ; std::addressof<BLOODCASTLE_REWARD>
PUBLIC	??$destroy@UBLOODCASTLE_REWARD@@@?$_Default_allocator_traits@V?$allocator@U?$_List_node@UBLOODCASTLE_REWARD@@PAX@std@@@std@@@std@@SAXAAV?$allocator@U?$_List_node@UBLOODCASTLE_REWARD@@PAX@std@@@1@QAUBLOODCASTLE_REWARD@@@Z ; std::_Default_allocator_traits<std::allocator<std::_List_node<BLOODCASTLE_REWARD,void *> > >::destroy<BLOODCASTLE_REWARD>
PUBLIC	??$construct@UBLOODCASTLE_REWARD@@ABU1@@?$_Default_allocator_traits@V?$allocator@U?$_List_node@UBLOODCASTLE_REWARD@@PAX@std@@@std@@@std@@SAXAAV?$allocator@U?$_List_node@UBLOODCASTLE_REWARD@@PAX@std@@@1@QAUBLOODCASTLE_REWARD@@ABU3@@Z ; std::_Default_allocator_traits<std::allocator<std::_List_node<BLOODCASTLE_REWARD,void *> > >::construct<BLOODCASTLE_REWARD,BLOODCASTLE_REWARD const &>
PUBLIC	??$forward@ABQAU?$_List_node@UBLOODCASTLE_REWARD@@PAX@std@@@std@@YAABQAU?$_List_node@UBLOODCASTLE_REWARD@@PAX@0@ABQAU10@@Z ; std::forward<std::_List_node<BLOODCASTLE_REWARD,void *> * const &>
PUBLIC	??_7exception@std@@6B@				; std::exception::`vftable'
PUBLIC	??_C@_0BC@EOODALEL@Unknown?5exception@		; `string'
PUBLIC	??_7bad_alloc@std@@6B@				; std::bad_alloc::`vftable'
PUBLIC	??_7bad_array_new_length@std@@6B@		; std::bad_array_new_length::`vftable'
PUBLIC	??_C@_0BF@KINCDENJ@bad?5array?5new?5length@	; `string'
PUBLIC	__TI3?AVbad_array_new_length@std@@
PUBLIC	__CTA3?AVbad_array_new_length@std@@
PUBLIC	??_R0?AVbad_array_new_length@std@@@8		; std::bad_array_new_length `RTTI Type Descriptor'
PUBLIC	__CT??_R0?AVbad_array_new_length@std@@@8??0bad_array_new_length@std@@QAE@ABV01@@Z12
PUBLIC	??_R0?AVbad_alloc@std@@@8			; std::bad_alloc `RTTI Type Descriptor'
PUBLIC	__CT??_R0?AVbad_alloc@std@@@8??0bad_alloc@std@@QAE@ABV01@@Z12
PUBLIC	??_R0?AVexception@std@@@8			; std::exception `RTTI Type Descriptor'
PUBLIC	__CT??_R0?AVexception@std@@@8??0exception@std@@QAE@ABV01@@Z12
PUBLIC	??_R4exception@std@@6B@				; std::exception::`RTTI Complete Object Locator'
PUBLIC	??_R3exception@std@@8				; std::exception::`RTTI Class Hierarchy Descriptor'
PUBLIC	??_R2exception@std@@8				; std::exception::`RTTI Base Class Array'
PUBLIC	??_R1A@?0A@EA@exception@std@@8			; std::exception::`RTTI Base Class Descriptor at (0,-1,0,64)'
PUBLIC	??_R4bad_alloc@std@@6B@				; std::bad_alloc::`RTTI Complete Object Locator'
PUBLIC	??_R3bad_alloc@std@@8				; std::bad_alloc::`RTTI Class Hierarchy Descriptor'
PUBLIC	??_R2bad_alloc@std@@8				; std::bad_alloc::`RTTI Base Class Array'
PUBLIC	??_R1A@?0A@EA@bad_alloc@std@@8			; std::bad_alloc::`RTTI Base Class Descriptor at (0,-1,0,64)'
PUBLIC	??_R4bad_array_new_length@std@@6B@		; std::bad_array_new_length::`RTTI Complete Object Locator'
PUBLIC	??_R3bad_array_new_length@std@@8		; std::bad_array_new_length::`RTTI Class Hierarchy Descriptor'
PUBLIC	??_R2bad_array_new_length@std@@8		; std::bad_array_new_length::`RTTI Base Class Array'
PUBLIC	??_R1A@?0A@EA@bad_array_new_length@std@@8	; std::bad_array_new_length::`RTTI Base Class Descriptor at (0,-1,0,64)'
PUBLIC	??_7CBloodCastle@@6B@				; CBloodCastle::`vftable'
PUBLIC	?g_BloodCastle@@3VCBloodCastle@@A		; g_BloodCastle
PUBLIC	??_C@_01KDCPPGHE@r@				; `string'
PUBLIC	??_C@_0CI@EIBEEFOB@?$FLBlood?5Castle?$FN?5Info?5file?5Load?5F@ ; `string'
PUBLIC	??_C@_03JBJLGPFL@end@				; `string'
PUBLIC	??_C@_0O@CEHBAEMJ@?$CFs?5file?5load?$CB@	; `string'
PUBLIC	??_C@_0BB@IGLHFEOF@commonserver?4cfg@		; `string'
PUBLIC	??_C@_0BB@DHAFCNAC@BloodCastleEvent@		; `string'
PUBLIC	??_C@_0P@EMJDPFDH@GameServerInfo@		; `string'
PUBLIC	??_C@_0BI@KPDDGOOE@AngelKingsPaperDropRate@	; `string'
PUBLIC	??_C@_0BC@NGLLHLOE@BloodBoneDropRate@		; `string'
PUBLIC	??_C@_0O@PBCFFJJH@StoneDropRate@		; `string'
PUBLIC	??_C@_0O@FHPHMJJK@StoneItemDrop@		; `string'
PUBLIC	??_C@_0DE@JOEGJLEF@?$FLBlood?5Castle?$FN?5?$CI?$CFd?$CJ?5Sync?5Open?5T@ ; `string'
PUBLIC	??_C@_0DL@ILEHECHL@?$FLBlood?5Castle?$FN?5?$CI?$CFd?$CJ?5Bridge?5Chan@ ; `string'
PUBLIC	??_C@_0CN@CMBLFMKI@?$FLBlood?5Castle?$FN?5?$CI?$CFd?$CJ?5Blood?5Castl@ ; `string'
PUBLIC	??_C@_0FD@DNPEIOMM@?$FLBlood?5Castle?$FN?5?$CI?$CFd?$CJ?5Blood?5Castl@ ; `string'
PUBLIC	??_C@_0FE@DMAGKDKC@?$FLBlood?5Castle?$FN?5?$CI?$CFd?$CJ?5Blood?5Castl@ ; `string'
PUBLIC	??_C@_0EA@OKAIGEKM@?$FLBlood?5Castle?$FN?5?$CI?$CFd?$CJ?5Blood?5Castl@ ; `string'
PUBLIC	??_C@_0ED@LAGFFAOI@?$FLBlood?5Castle?$FN?5?$CI?$CFd?$CJ?5CheckWinner@ ; `string'
PUBLIC	??_C@_0DM@EMKPJGDI@?$FLBlood?5Castle?$FN?5?$CI?$CFd?$CJ?5CheckWinner@ ; `string'
PUBLIC	??_C@_0DK@EOCANJIL@?$FLBlood?5Castle?$FN?5?$CI?$CFd?$CJ?5Blood?5Castl@ ; `string'
PUBLIC	??_C@_0CE@INEHOCBG@?$FLBlood?5Castle?$FN?5?$CI?$CFd?$CJ?5SetState?5CL@ ; `string'
PUBLIC	??_C@_0CF@IOKOFOAG@?$FLBlood?5Castle?$FN?5?$CI?$CFd?$CJ?5SetState?5PL@ ; `string'
PUBLIC	??_C@_0CF@OPFFLCHN@?$FLBlood?5Castle?$FN?5?$CI?$CFd?$CJ?5SetState?5PL@ ; `string'
PUBLIC	??_C@_0EM@CDAILJHC@?$FLBlood?5Castle?$FN?5?E?u?$LI?m?$LI?A?E?d?5Mix?5Cha@ ; `string'
PUBLIC	??_C@_0N@FFCGFOPA@?E?u?$LI?m?$LI?A?E?d?5Mix@	; `string'
PUBLIC	??_C@_0GE@IPBOHNGB@?$FLBlood?5Castle?$FN?5?E?u?$LI?m?$LI?A?E?d?5Mix?5Cha@ ; `string'
PUBLIC	??_C@_0FM@MNNOPKAN@?$FLBlood?5Castle?$FN?5?E?u?$LI?m?$LI?A?E?d?5Mix?5Cha@ ; `string'
PUBLIC	??_C@_0GA@CFALPHEA@?$FLBlood?5Castle?$FN?5?E?u?$LI?m?$LI?A?E?d?5Mix?5Cha@ ; `string'
PUBLIC	??_C@_0DH@PODHMCM@?$FL?E?u?$LI?m?$LI?A?E?d?5Mix?$FN?5?$FL?$CFs?$FN?$FL?$CFs?$FN?5CBMix?5S@ ; `string'
PUBLIC	??_C@_0DE@KMNEMIOE@?$FL?E?u?$LI?m?$LI?A?E?d?5Mix?$FN?5?$FL?$CFs?$FN?$FL?$CFs?$FN?5CBMix?5F@ ; `string'
PUBLIC	??_C@_0FO@DLJLMMJB@?$FLBlood?5Castle?$FN?$FLBug?5Tracer?$FN?5?$CI?$CFd?$CJ@ ; `string'
PUBLIC	??_C@_0FD@ECDGNEKE@Experience?5?3?5Map?$FL?$CFd?$FN?9?$CI?$CFd?0?$CFd?$CJ?5?$FL?$CF@ ; `string'
PUBLIC	??_C@_0DA@KDBPKGIM@?$FL?$CFs?$FN?$FL?$CFs?$FN?5LevelUp?5PlusStatQuest?5@ ; `string'
PUBLIC	??_C@_0DE@LNBDIFNP@?$FLBlood?5Castle?$FN?$FLBug?5Tracer?$FN?5Rele@ ; `string'
PUBLIC	??_C@_0FI@NGHAEIOD@?$FLBlood?5Castle?$FN?$FLBug?5Tracer?$FN?5Send@ ; `string'
PUBLIC	??_C@_0FK@LLMALHHB@?$FLBlood?5Castle?$FN?5Force?5?$CIAccount?3?$CF@ ; `string'
PUBLIC	??_C@_0FL@LNKJMMJP@?$FLBlood?5Castle?$FN?5Force?5?$CIAccount?3?$CF@ ; `string'
PUBLIC	??_C@_0FI@OICDBHD@?$FLBlood?5Castle?$FN?5Force?5?$CIAccount?3?$CF@ ; `string'
PUBLIC	??_C@_0FJ@GOGDCKAK@?$FLBlood?5Castle?$FN?5?$CI?$CFd?$CJ?5Winner?5Part@ ; `string'
PUBLIC	??_C@_0ED@MHPNGBMF@?$FLBlood?5Castle?$FN?5?$CI?$CFd?$CJ?5Quest?5Compl@ ; `string'
PUBLIC	??_C@_0IN@OCADDENK@?$FLBlood?5Castle?$FN?5?$CI?$CFd?$CJ?5Quest?5Compl@ ; `string'
PUBLIC	??_C@_0FJ@DAACGPGK@?$FLBlood?5Castle?$FN?5?$CI?$CFd?$CJ?5?$CIAccount?3?$CFs@ ; `string'
PUBLIC	??_C@_0GA@HCBPNCII@?$FLBlood?5Castle?$FN?5?$CI?$CFd?$CJ?5Quest?5Fail?5@ ; `string'
PUBLIC	??_C@_0GA@JIFFPAHP@?$FLBlood?5Castle?$FN?5?$CI?$CFd?$CJ?5Send?5User?5Q@ ; `string'
PUBLIC	??_C@_0BP@EMDINEAJ@Can?5not?5connect?5Ranking?5Server@ ; `string'
PUBLIC	??_C@_0GL@KHMMCCLP@?$FLBlood?5Castle?$FN?5?$CI?$CFd?$CJ?5Monster?5Kil@ ; `string'
PUBLIC	??_C@_0FM@GIGMADKF@?$FLBlood?5Castle?$FN?$FLBug?5Tracer?$FN?5?$CI?$CFd?$CJ@ ; `string'
PUBLIC	??_C@_0GL@DCFNJCHO@?$FLBlood?5Castle?$FN?$FLBug?5Tracer?$FN?5?$CI?$CFd?$CJ@ ; `string'
PUBLIC	??_C@_0EL@NNMPGAAC@error?9L3?5?3?5?$FLBlood?5Castle?$FN?5?$CI?$CFd?$CJ?5@ ; `string'
PUBLIC	??_C@_0EL@LDIFKEKC@error?9L3?5?3?5?$FLBlood?5Castle?$FN?5?$CI?$CFd?$CJ?5@ ; `string'
PUBLIC	??_C@_0EA@LFJOCLMK@?$FLBlood?5Castle?$FN?5?$CI?$CFd?$CJ?5Angel?5King?8@ ; `string'
PUBLIC	??_C@_0FH@CEGPGOIB@?$FLBlood?5Castle?$FN?5?$CI?$CFd?$CJ?5Angel?5King?5@ ; `string'
PUBLIC	??_C@_0EM@CLFOPJPH@?$FLBlood?5Castle?$FN?5?$FL?$CFs?$FN?$FL?$CFs?$FN?5DropIte@ ; `string'
PUBLIC	??_C@_04BGCMBJDA@Item@				; `string'
PUBLIC	??_C@_0HA@BEDGBNCH@?$FLBlood?5Castle?$FN?5?$CI?$CFd?$CJ?5CBloodCastl@ ; `string'
PUBLIC	??_C@_0HC@NFIOOIHG@?$FLBlood?5Castle?$FN?5?$CI?$CFd?$CJ?5CBloodCastl@ ; `string'
PUBLIC	??_C@_0HO@GOGOOKAA@?$FLBlood?5Castle?$FN?5?$CI?$CFd?$CJ?5CBloodCastl@ ; `string'
PUBLIC	??_C@_0JC@KJKEDLHF@?$FLBlood?5Castle?$FN?5?$CI?$CFd?$CJ?5CBloodCastl@ ; `string'
PUBLIC	??_C@_0JA@CMOHDFEJ@?$FLBlood?5Castle?$FN?5?$CI?$CFd?$CJ?5CBloodCastl@ ; `string'
PUBLIC	??_C@_0EB@FFFJNKMC@?$FLBlood?5Castle?$FN?5?$CI?$CFd?$CJ?5?$FL?$CFs?$FN?$FL?$CFs?$FN?5Fi@ ; `string'
PUBLIC	??_C@_0EC@KMBIFBDF@?$FLBlood?5Castle?$FN?5?$CI?$CFd?$CJ?5?$FL?$CFs?$FN?$FL?$CFs?$FN?5Fi@ ; `string'
PUBLIC	??_C@_0O@NKNMEGII@list?5too?5long@		; `string'
PUBLIC	??_R4CBloodCastle@@6B@				; CBloodCastle::`RTTI Complete Object Locator'
PUBLIC	??_R0?AVCBloodCastle@@@8			; CBloodCastle `RTTI Type Descriptor'
PUBLIC	??_R3CBloodCastle@@8				; CBloodCastle::`RTTI Class Hierarchy Descriptor'
PUBLIC	??_R2CBloodCastle@@8				; CBloodCastle::`RTTI Base Class Array'
PUBLIC	??_R1A@?0A@EA@CBloodCastle@@8			; CBloodCastle::`RTTI Base Class Descriptor at (0,-1,0,64)'
PUBLIC	__real@00000000
PUBLIC	__real@0000000000000000
PUBLIC	__real@42c80000
EXTRN	??_L@YGXPAXIIP6EX0@Z1@Z:PROC			; `eh vector constructor iterator'
EXTRN	??_M@YGXPAXIIP6EX0@Z@Z:PROC			; `eh vector destructor iterator'
EXTRN	??2@YAPAXI@Z:PROC				; operator new
EXTRN	??3@YAXPAXI@Z:PROC				; operator delete
EXTRN	_atexit:PROC
EXTRN	___report_rangecheckfailure:PROC
EXTRN	__invalid_parameter_noinfo_noreturn:PROC
EXTRN	_isalpha:PROC
EXTRN	_isdigit:PROC
EXTRN	_isspace:PROC
EXTRN	_isalnum:PROC
EXTRN	_memcpy:PROC
EXTRN	_memset:PROC
EXTRN	_strcmp:PROC
EXTRN	__imp__InitializeCriticalSection@4:PROC
EXTRN	__imp__EnterCriticalSection@4:PROC
EXTRN	__imp__LeaveCriticalSection@4:PROC
EXTRN	__imp__DeleteCriticalSection@4:PROC
EXTRN	__imp__GetTickCount@0:PROC
EXTRN	__imp__GetPrivateProfileIntA@16:PROC
EXTRN	__imp__wsprintfA:PROC
EXTRN	_fclose:PROC
EXTRN	_fgetc:PROC
EXTRN	_fopen:PROC
EXTRN	_getc:PROC
EXTRN	_ungetc:PROC
EXTRN	_rand:PROC
EXTRN	_atof:PROC
EXTRN	__localtime64:PROC
EXTRN	__time64:PROC
EXTRN	?MsgBox@@YAXPADZZ:PROC				; MsgBox
EXTRN	__imp_?Get@CMsg@@QAEPADH@Z:PROC
EXTRN	?_Xlength_error@std@@YAXPBD@Z:PROC		; std::_Xlength_error
EXTRN	___std_exception_copy:PROC
EXTRN	___std_exception_destroy:PROC
EXTRN	??_Eexception@std@@UAEPAXI@Z:PROC		; std::exception::`vector deleting destructor'
EXTRN	??_Ebad_alloc@std@@UAEPAXI@Z:PROC		; std::bad_alloc::`vector deleting destructor'
EXTRN	??_Ebad_array_new_length@std@@UAEPAXI@Z:PROC	; std::bad_array_new_length::`vector deleting destructor'
EXTRN	?IsItem@CItem@@QAEHXZ:PROC			; CItem::IsItem
EXTRN	?ItemGetNumberMake@@YAHHH@Z:PROC		; ItemGetNumberMake
EXTRN	?ItemByteConvert@@YAXPAEVCItem@@@Z:PROC		; ItemByteConvert
EXTRN	?CreateSocket@MyWinsockBase@@QAEHPAUHWND__@@@Z:PROC ; MyWinsockBase::CreateSocket
EXTRN	?Close@MyWinsockBase@@QAEHXZ:PROC		; MyWinsockBase::Close
EXTRN	?DataSend@@YAHHPAEK@Z:PROC			; DataSend
EXTRN	?gObjAddMonster@@YAFH@Z:PROC			; gObjAddMonster
EXTRN	?gObjDel@@YAFH@Z:PROC				; gObjDel
EXTRN	?gObjIsConnected@@YAHH@Z:PROC			; gObjIsConnected
EXTRN	?gObjSetMonster@@YAHHH@Z:PROC			; gObjSetMonster
EXTRN	?gObjSetPosMonster@@YAHHH@Z:PROC		; gObjSetPosMonster
EXTRN	?LevelSmallConvert@@YAEHH@Z:PROC		; LevelSmallConvert
EXTRN	?gObjInventoryDeleteItem@@YAEHH@Z:PROC		; gObjInventoryDeleteItem
EXTRN	?gObjInventoryItemSet@@YAXHHE@Z:PROC		; gObjInventoryItemSet
EXTRN	?gObjMakePreviewCharSet@@YAXH@Z:PROC		; gObjMakePreviewCharSet
EXTRN	?gObjMoveGate@@YAHHH@Z:PROC			; gObjMoveGate
EXTRN	?gObjInventoryCommit@@YAHH@Z:PROC		; gObjInventoryCommit
EXTRN	?ItemIsBufExOption@@YAXPAEPAVCItem@@@Z:PROC	; ItemIsBufExOption
EXTRN	?gObjSetBP@@YAXH@Z:PROC				; gObjSetBP
EXTRN	?gObjCalcMaxLifePower@@YAXH@Z:PROC		; gObjCalcMaxLifePower
EXTRN	?gObjGetStatPointState@@YAXHAAF0@Z:PROC		; gObjGetStatPointState
EXTRN	?gObjNextExpCal@@YAXPAVOBJECTSTRUCT@@@Z:PROC	; gObjNextExpCal
EXTRN	?gObjCheckMaxZen@@YAHHH@Z:PROC			; gObjCheckMaxZen
EXTRN	?GCServerMsgStringSend@@YAXPADHE@Z:PROC		; GCServerMsgStringSend
EXTRN	?MsgSendV2@@YAXPAVOBJECTSTRUCT@@PAEH@Z:PROC	; MsgSendV2
EXTRN	?GCLevelUpMsgSend@@YAXHGGGGGFF@Z:PROC		; GCLevelUpMsgSend
EXTRN	?GCMoneySend@@YAXHK@Z:PROC			; GCMoneySend
EXTRN	?GCInventoryItemDeleteSend@@YAXHEE@Z:PROC	; GCInventoryItemDeleteSend
EXTRN	?PHeadSetB@@YAXPAEEH@Z:PROC			; PHeadSetB
EXTRN	?PHeadSubSetB@@YAXPAEEEH@Z:PROC			; PHeadSubSetB
EXTRN	?GCUserChaosBoxSend@@YAXPAVOBJECTSTRUCT@@H@Z:PROC ; GCUserChaosBoxSend
EXTRN	?MakeNoticeMsg@TNotice@@SAXPAXEPAD@Z:PROC	; TNotice::MakeNoticeMsg
EXTRN	?MakeNoticeMsgEx@TNotice@@SAXPAXEPADZZ:PROC	; TNotice::MakeNoticeMsgEx
EXTRN	?SetNoticeProperty@TNotice@@SAXPAXEKEGE@Z:PROC	; TNotice::SetNoticeProperty
EXTRN	?SendNoticeToUser@TNotice@@SAXHPAX@Z:PROC	; TNotice::SendNoticeToUser
EXTRN	??_ECBloodCastle@@UAEPAXI@Z:PROC		; CBloodCastle::`vector deleting destructor'
EXTRN	?MakeItemNumber@@YAHHH@Z:PROC			; MakeItemNumber
EXTRN	?PHeadSetBE@@YAXPAEEH@Z:PROC			; PHeadSetBE
EXTRN	?DataSend@wsJoinServerCli@@QAEHPADH@Z:PROC	; wsJoinServerCli::DataSend
EXTRN	?ItemDrop@MapClass@@QAEHHHMHHEEEEEKHHH@Z:PROC	; MapClass::ItemDrop
EXTRN	?GetAttr@MapClass@@QAEEHH@Z:PROC		; MapClass::GetAttr
EXTRN	?GMRankingServerConnect@@YAHPADK@Z:PROC		; GMRankingServerConnect
EXTRN	?ChaosBoxInit@CMixSystem@@QAEHPAVOBJECTSTRUCT@@@Z:PROC ; CMixSystem::ChaosBoxInit
EXTRN	?LogChaosItem@CMixSystem@@QAEXPAVOBJECTSTRUCT@@PAD@Z:PROC ; CMixSystem::LogChaosItem
EXTRN	?GJSetCharacterInfo@@YAXPAVOBJECTSTRUCT@@HH@Z:PROC ; GJSetCharacterInfo
EXTRN	?ItemSerialCreateSend@@YAXHEEEHEEEEEHEEH@Z:PROC	; ItemSerialCreateSend
EXTRN	?GetNewPath@CDirPath@@QAEPADPAD@Z:PROC		; CDirPath::GetNewPath
EXTRN	?GetAttr@CMonsterAttr@@QAEPAUMONSTER_ATTRIBUTE@@H@Z:PROC ; CMonsterAttr::GetAttr
EXTRN	?SkillChangeUse@CObjUseSkill@@QAEHH@Z:PROC	; CObjUseSkill::SkillChangeUse
EXTRN	@__security_check_cookie@4:PROC
EXTRN	__CxxThrowException@8:PROC
EXTRN	___CxxFrameHandler3:PROC
EXTRN	_memset:PROC
EXTRN	??_7type_info@@6B@:QWORD			; type_info::`vftable'
EXTRN	?LogAdd@@3P6AXPADZZA:DWORD			; LogAdd
EXTRN	?LogAddTD@@3P6AXPADZZA:DWORD			; LogAddTD
EXTRN	?ItemAttribute@@3PAUITEM_ATTRIBUTE@@A:BYTE	; ItemAttribute
EXTRN	?gObj@@3PAVOBJECTSTRUCT@@A:DWORD		; gObj
EXTRN	?g_GlobalConfig@@3VCGlobalConfig@@A:BYTE	; g_GlobalConfig
EXTRN	?lMsg@@3VCMsg@@A:BYTE				; lMsg
EXTRN	?DevilSquareEventConnect@@3HA:DWORD		; DevilSquareEventConnect
EXTRN	?IsDevilSquareEventConnected@@3HA:DWORD		; IsDevilSquareEventConnected
EXTRN	?gGameServerCode@@3FA:WORD			; gGameServerCode
EXTRN	?MapC@@3PAVMapClass@@A:DWORD			; MapC
EXTRN	?g_bBloodCastle@@3HA:DWORD			; g_bBloodCastle
EXTRN	?g_iBloodCastle_StartHour@@3HA:DWORD		; g_iBloodCastle_StartHour
EXTRN	?g_bStoneItemDrop@@3HA:DWORD			; g_bStoneItemDrop
EXTRN	?g_iStoneDropRate@@3HA:DWORD			; g_iStoneDropRate
EXTRN	?g_iAngelKingsPaperDropRate@@3HA:DWORD		; g_iAngelKingsPaperDropRate
EXTRN	?g_iBloodBoneDropRate@@3HA:DWORD		; g_iBloodBoneDropRate
EXTRN	?gDevilSquareEventServerIp@@3PADA:BYTE		; gDevilSquareEventServerIp
EXTRN	?g_MixSystem@@3VCMixSystem@@A:BYTE		; g_MixSystem
EXTRN	?ghWnd@@3PAUHWND__@@A:DWORD			; ghWnd
EXTRN	?gMAttr@@3VCMonsterAttr@@A:BYTE			; gMAttr
EXTRN	?gParty@@3VPartyClass@@A:BYTE			; gParty
EXTRN	?gMSetBase@@3VCMonsterSetBase@@A:BYTE		; gMSetBase
EXTRN	?DCInfo@@3Vclassdef@@A:BYTE			; DCInfo
EXTRN	?wsRServerCli@@3VwsJoinServerCli@@A:BYTE	; wsRServerCli
EXTRN	?gDirPath@@3VCDirPath@@A:BYTE			; gDirPath
EXTRN	?gObjUseSkill@@3VCObjUseSkill@@A:DWORD		; gObjUseSkill
EXTRN	___security_cookie:DWORD
EXTRN	__fltused:DWORD
_BSS	SEGMENT
?g_BloodCastle@@3VCBloodCastle@@A DB 0e74H DUP (?)	; g_BloodCastle
?SMDFile@@3PAU_iobuf@@A DD 01H DUP (?)			; SMDFile
?TokenNumber@@3MA DD 01H DUP (?)			; TokenNumber
?TokenString@@3PADA DB 064H DUP (?)			; TokenString
?CurrentToken@@3W4SMDToken@@A DD 01H DUP (?)		; CurrentToken
?g_iChaosCastle_MonsterItems@@3PAY111HA DD 018H DUP (?)	; g_iChaosCastle_MonsterItems
_BSS	ENDS
CRT$XCU	SEGMENT
?g_BloodCastle$initializer$@@3P6AXXZA DD FLAT:??__Eg_BloodCastle@@YAXXZ ; g_BloodCastle$initializer$
CRT$XCU	ENDS
;	COMDAT __real@42c80000
CONST	SEGMENT
__real@42c80000 DD 042c80000r			; 100
CONST	ENDS
;	COMDAT __real@0000000000000000
CONST	SEGMENT
__real@0000000000000000 DQ 00000000000000000r	; 0
CONST	ENDS
;	COMDAT __real@00000000
CONST	SEGMENT
__real@00000000 DD 000000000r			; 0
CONST	ENDS
;	COMDAT ??_R1A@?0A@EA@CBloodCastle@@8
rdata$r	SEGMENT
??_R1A@?0A@EA@CBloodCastle@@8 DD FLAT:??_R0?AVCBloodCastle@@@8 ; CBloodCastle::`RTTI Base Class Descriptor at (0,-1,0,64)'
	DD	00H
	DD	00H
	DD	0ffffffffH
	DD	00H
	DD	040H
	DD	FLAT:??_R3CBloodCastle@@8
rdata$r	ENDS
;	COMDAT ??_R2CBloodCastle@@8
rdata$r	SEGMENT
??_R2CBloodCastle@@8 DD FLAT:??_R1A@?0A@EA@CBloodCastle@@8 ; CBloodCastle::`RTTI Base Class Array'
rdata$r	ENDS
;	COMDAT ??_R3CBloodCastle@@8
rdata$r	SEGMENT
??_R3CBloodCastle@@8 DD 00H				; CBloodCastle::`RTTI Class Hierarchy Descriptor'
	DD	00H
	DD	01H
	DD	FLAT:??_R2CBloodCastle@@8
rdata$r	ENDS
;	COMDAT ??_R0?AVCBloodCastle@@@8
data$r	SEGMENT
??_R0?AVCBloodCastle@@@8 DD FLAT:??_7type_info@@6B@	; CBloodCastle `RTTI Type Descriptor'
	DD	00H
	DB	'.?AVCBloodCastle@@', 00H
data$r	ENDS
;	COMDAT ??_R4CBloodCastle@@6B@
rdata$r	SEGMENT
??_R4CBloodCastle@@6B@ DD 00H				; CBloodCastle::`RTTI Complete Object Locator'
	DD	00H
	DD	00H
	DD	FLAT:??_R0?AVCBloodCastle@@@8
	DD	FLAT:??_R3CBloodCastle@@8
rdata$r	ENDS
;	COMDAT ??_C@_0O@NKNMEGII@list?5too?5long@
CONST	SEGMENT
??_C@_0O@NKNMEGII@list?5too?5long@ DB 'list too long', 00H ; `string'
CONST	ENDS
;	COMDAT ??_C@_0EC@KMBIFBDF@?$FLBlood?5Castle?$FN?5?$CI?$CFd?$CJ?5?$FL?$CFs?$FN?$FL?$CFs?$FN?5Fi@
CONST	SEGMENT
??_C@_0EC@KMBIFBDF@?$FLBlood?5Castle?$FN?5?$CI?$CFd?$CJ?5?$FL?$CFs?$FN?$FL?$CFs?$FN?5Fi@ DB '['
	DB	'Blood Castle] (%d) [%s][%s] FixUsersPlayStateFail() - State :'
	DB	' %d', 00H					; `string'
CONST	ENDS
;	COMDAT ??_C@_0EB@FFFJNKMC@?$FLBlood?5Castle?$FN?5?$CI?$CFd?$CJ?5?$FL?$CFs?$FN?$FL?$CFs?$FN?5Fi@
CONST	SEGMENT
??_C@_0EB@FFFJNKMC@?$FLBlood?5Castle?$FN?5?$CI?$CFd?$CJ?5?$FL?$CFs?$FN?$FL?$CFs?$FN?5Fi@ DB '['
	DB	'Blood Castle] (%d) [%s][%s] FixUsersPlayStateWin() - State : '
	DB	'%d', 00H					; `string'
CONST	ENDS
;	COMDAT ??_C@_0JA@CMOHDFEJ@?$FLBlood?5Castle?$FN?5?$CI?$CFd?$CJ?5CBloodCastl@
CONST	SEGMENT
??_C@_0JA@CMOHDFEJ@?$FLBlood?5Castle?$FN?5?$CI?$CFd?$CJ?5CBloodCastl@ DB '['
	DB	'Blood Castle] (%d) CBloodCastle::CheckWinnerValid() - !CHECK_'
	DB	'BLOODCASTLE(gObj[m_BridgeData[iBridgeIndex].m_iBC_COMPLETE_US'
	DB	'ER_INDEX].MapNumber)', 00H			; `string'
CONST	ENDS
;	COMDAT ??_C@_0JC@KJKEDLHF@?$FLBlood?5Castle?$FN?5?$CI?$CFd?$CJ?5CBloodCastl@
CONST	SEGMENT
??_C@_0JC@KJKEDLHF@?$FLBlood?5Castle?$FN?5?$CI?$CFd?$CJ?5CBloodCastl@ DB '['
	DB	'Blood Castle] (%d) CBloodCastle::CheckWinnerValid() - (gObj[m'
	DB	'_BridgeData[iBridgeIndex].m_iBC_COMPLETE_USER_INDEX].m_cBlood'
	DB	'CastleIndex == -1) ...', 00H		; `string'
CONST	ENDS
;	COMDAT ??_C@_0HO@GOGOOKAA@?$FLBlood?5Castle?$FN?5?$CI?$CFd?$CJ?5CBloodCastl@
CONST	SEGMENT
??_C@_0HO@GOGOOKAA@?$FLBlood?5Castle?$FN?5?$CI?$CFd?$CJ?5CBloodCastl@ DB '['
	DB	'Blood Castle] (%d) CBloodCastle::CheckWinnerValid() - !gObjIs'
	DB	'Connected(m_BridgeData[iBridgeIndex].m_iBC_COMPLETE_USER_INDE'
	DB	'X)', 00H					; `string'
CONST	ENDS
;	COMDAT ??_C@_0HC@NFIOOIHG@?$FLBlood?5Castle?$FN?5?$CI?$CFd?$CJ?5CBloodCastl@
CONST	SEGMENT
??_C@_0HC@NFIOOIHG@?$FLBlood?5Castle?$FN?5?$CI?$CFd?$CJ?5CBloodCastl@ DB '['
	DB	'Blood Castle] (%d) CBloodCastle::CheckWinnerValid() - m_Bridg'
	DB	'eData[iBridgeIndex].m_iBC_COMPLETE_USER_INDEX == -1', 00H ; `string'
CONST	ENDS
;	COMDAT ??_C@_0HA@BEDGBNCH@?$FLBlood?5Castle?$FN?5?$CI?$CFd?$CJ?5CBloodCastl@
CONST	SEGMENT
??_C@_0HA@BEDGBNCH@?$FLBlood?5Castle?$FN?5?$CI?$CFd?$CJ?5CBloodCastl@ DB '['
	DB	'Blood Castle] (%d) CBloodCastle::CheckWinnerValid() - !CHECK_'
	DB	'LIMIT(iBridgeIndex, MAX_BLOODCASTLE_BRIDGE_COUNT)', 00H ; `string'
CONST	ENDS
;	COMDAT ??_C@_04BGCMBJDA@Item@
CONST	SEGMENT
??_C@_04BGCMBJDA@Item@ DB 'Item', 00H			; `string'
CONST	ENDS
;	COMDAT ??_C@_0EM@CLFOPJPH@?$FLBlood?5Castle?$FN?5?$FL?$CFs?$FN?$FL?$CFs?$FN?5DropIte@
CONST	SEGMENT
??_C@_0EM@CLFOPJPH@?$FLBlood?5Castle?$FN?5?$FL?$CFs?$FN?$FL?$CFs?$FN?5DropIte@ DB '['
	DB	'Blood Castle] [%s][%s] DropItemDirectly() failed (iBridgeInde'
	DB	'x wrong - %d)', 00H				; `string'
CONST	ENDS
;	COMDAT ??_C@_0FH@CEGPGOIB@?$FLBlood?5Castle?$FN?5?$CI?$CFd?$CJ?5Angel?5King?5@
CONST	SEGMENT
??_C@_0FH@CEGPGOIB@?$FLBlood?5Castle?$FN?5?$CI?$CFd?$CJ?5Angel?5King?5@ DB '['
	DB	'Blood Castle] (%d) Angel King - gObjAdd() failed (no space to'
	DB	' add monster, result:%d)', 00H		; `string'
CONST	ENDS
;	COMDAT ??_C@_0EA@LFJOCLMK@?$FLBlood?5Castle?$FN?5?$CI?$CFd?$CJ?5Angel?5King?8@
CONST	SEGMENT
??_C@_0EA@LFJOCLMK@?$FLBlood?5Castle?$FN?5?$CI?$CFd?$CJ?5Angel?5King?8@ DB '['
	DB	'Blood Castle] (%d) Angel King''s Monster Position Doesn''t Ex'
	DB	'ist', 00H					; `string'
CONST	ENDS
;	COMDAT ??_C@_0EL@LDIFKEKC@error?9L3?5?3?5?$FLBlood?5Castle?$FN?5?$CI?$CFd?$CJ?5@
CONST	SEGMENT
??_C@_0EL@LDIFKEKC@error?9L3?5?3?5?$FLBlood?5Castle?$FN?5?$CI?$CFd?$CJ?5@ DB 'e'
	DB	'rror-L3 : [Blood Castle] (%d) Connection Closed UserIndex:%d,'
	DB	' SubIndex:%d', 00H				; `string'
CONST	ENDS
;	COMDAT ??_C@_0EL@NNMPGAAC@error?9L3?5?3?5?$FLBlood?5Castle?$FN?5?$CI?$CFd?$CJ?5@
CONST	SEGMENT
??_C@_0EL@NNMPGAAC@error?9L3?5?3?5?$FLBlood?5Castle?$FN?5?$CI?$CFd?$CJ?5@ DB 'e'
	DB	'rror-L3 : [Blood Castle] (%d) User Out of Bound UserIndex:%d,'
	DB	' SubIndex:%d', 00H				; `string'
CONST	ENDS
;	COMDAT ??_C@_0GL@DCFNJCHO@?$FLBlood?5Castle?$FN?$FLBug?5Tracer?$FN?5?$CI?$CFd?$CJ@
CONST	SEGMENT
??_C@_0GL@DCFNJCHO@?$FLBlood?5Castle?$FN?$FLBug?5Tracer?$FN?5?$CI?$CFd?$CJ@ DB '['
	DB	'Blood Castle][Bug Tracer] (%d) All Boss Monster Kill Success('
	DB	'Max Boss Kill Count:%d / Boss Kill Count:%d)', 00H ; `string'
CONST	ENDS
;	COMDAT ??_C@_0FM@GIGMADKF@?$FLBlood?5Castle?$FN?$FLBug?5Tracer?$FN?5?$CI?$CFd?$CJ@
CONST	SEGMENT
??_C@_0FM@GIGMADKF@?$FLBlood?5Castle?$FN?$FLBug?5Tracer?$FN?5?$CI?$CFd?$CJ@ DB '['
	DB	'Blood Castle][Bug Tracer] (%d) All Monster Kill Success(Max K'
	DB	'ill Count:%d / Kill Count:%d)', 00H		; `string'
CONST	ENDS
;	COMDAT ??_C@_0GL@KHMMCCLP@?$FLBlood?5Castle?$FN?5?$CI?$CFd?$CJ?5Monster?5Kil@
CONST	SEGMENT
??_C@_0GL@KHMMCCLP@?$FLBlood?5Castle?$FN?5?$CI?$CFd?$CJ?5Monster?5Kil@ DB '['
	DB	'Blood Castle] (%d) Monster Kill Count Set - Monster:%d, Curre'
	DB	'nt Monster:%d, USER TOT:%d, LIVE:%d, DEAD:%d', 00H ; `string'
CONST	ENDS
;	COMDAT ??_C@_0BP@EMDINEAJ@Can?5not?5connect?5Ranking?5Server@
CONST	SEGMENT
??_C@_0BP@EMDINEAJ@Can?5not?5connect?5Ranking?5Server@ DB 'Can not connec'
	DB	't Ranking Server', 00H			; `string'
CONST	ENDS
;	COMDAT ??_C@_0GA@JIFFPAHP@?$FLBlood?5Castle?$FN?5?$CI?$CFd?$CJ?5Send?5User?5Q@
CONST	SEGMENT
??_C@_0GA@JIFFPAHP@?$FLBlood?5Castle?$FN?5?$CI?$CFd?$CJ?5Send?5User?5Q@ DB '['
	DB	'Blood Castle] (%d) Send User Quest Fail Message (Account:%s, '
	DB	'Name:%s [State:%d], MapNumber:%d)', 00H	; `string'
CONST	ENDS
;	COMDAT ??_C@_0GA@HCBPNCII@?$FLBlood?5Castle?$FN?5?$CI?$CFd?$CJ?5Quest?5Fail?5@
CONST	SEGMENT
??_C@_0GA@HCBPNCII@?$FLBlood?5Castle?$FN?5?$CI?$CFd?$CJ?5Quest?5Fail?5@ DB '['
	DB	'Blood Castle] (%d) Quest Fail Rewarded (Account:%s, Name:%s, '
	DB	'Score:%d, ExtEXP:%d, LeftTime:%d)', 00H	; `string'
CONST	ENDS
;	COMDAT ??_C@_0FJ@DAACGPGK@?$FLBlood?5Castle?$FN?5?$CI?$CFd?$CJ?5?$CIAccount?3?$CFs@
CONST	SEGMENT
??_C@_0FJ@DAACGPGK@?$FLBlood?5Castle?$FN?5?$CI?$CFd?$CJ?5?$CIAccount?3?$CFs@ DB '['
	DB	'Blood Castle] (%d) (Account:%s, Name:%s) got Ultimate Weapon '
	DB	'(%d) but Failed - Time Out', 00H		; `string'
CONST	ENDS
;	COMDAT ??_C@_0IN@OCADDENK@?$FLBlood?5Castle?$FN?5?$CI?$CFd?$CJ?5Quest?5Compl@
CONST	SEGMENT
??_C@_0IN@OCADDENK@?$FLBlood?5Castle?$FN?5?$CI?$CFd?$CJ?5Quest?5Compl@ DB '['
	DB	'Blood Castle] (%d) Quest Complete Rewarded (Account:%s, Name:'
	DB	'%s [State:%d], Exp:%d, ExtExp:%d, Zen:%d, Score:%d, LeftTime:'
	DB	'%d, MapNumber:%d)', 00H			; `string'
CONST	ENDS
;	COMDAT ??_C@_0ED@MHPNGBMF@?$FLBlood?5Castle?$FN?5?$CI?$CFd?$CJ?5Quest?5Compl@
CONST	SEGMENT
??_C@_0ED@MHPNGBMF@?$FLBlood?5Castle?$FN?5?$CI?$CFd?$CJ?5Quest?5Compl@ DB '['
	DB	'Blood Castle] (%d) Quest Complete - All Alive User''s Total E'
	DB	'XP:%d', 00H					; `string'
CONST	ENDS
;	COMDAT ??_C@_0FJ@GOGDCKAK@?$FLBlood?5Castle?$FN?5?$CI?$CFd?$CJ?5Winner?5Part@
CONST	SEGMENT
??_C@_0FJ@GOGDCKAK@?$FLBlood?5Castle?$FN?5?$CI?$CFd?$CJ?5Winner?5Part@ DB '['
	DB	'Blood Castle] (%d) Winner Party Point - Alive Party Member : '
	DB	'%d, Alive Party Point : %d', 00H		; `string'
CONST	ENDS
;	COMDAT ??_C@_0FI@OICDBHD@?$FLBlood?5Castle?$FN?5Force?5?$CIAccount?3?$CF@
CONST	SEGMENT
??_C@_0FI@OICDBHD@?$FLBlood?5Castle?$FN?5Force?5?$CIAccount?3?$CF@ DB '[B'
	DB	'lood Castle] Force (Account:%s, Name:%s) to Drop Angel King'''
	DB	's Weapon (%d) [Serial:%d]', 00H		; `string'
CONST	ENDS
;	COMDAT ??_C@_0FL@LNKJMMJP@?$FLBlood?5Castle?$FN?5Force?5?$CIAccount?3?$CF@
CONST	SEGMENT
??_C@_0FL@LNKJMMJP@?$FLBlood?5Castle?$FN?5Force?5?$CIAccount?3?$CF@ DB '['
	DB	'Blood Castle] Force (Account:%s, Name:%s) to Drop Angel King'''
	DB	's Weapon (%d) [Serial:%d-%d]', 00H		; `string'
CONST	ENDS
;	COMDAT ??_C@_0FK@LLMALHHB@?$FLBlood?5Castle?$FN?5Force?5?$CIAccount?3?$CF@
CONST	SEGMENT
??_C@_0FK@LLMALHHB@?$FLBlood?5Castle?$FN?5Force?5?$CIAccount?3?$CF@ DB '['
	DB	'Blood Castle] Force (Account:%s, Name:%s) to Delete Angel Kin'
	DB	'g''s Weapon (%d) [Serial:%d]', 00H		; `string'
CONST	ENDS
;	COMDAT ??_C@_0FI@NGHAEIOD@?$FLBlood?5Castle?$FN?$FLBug?5Tracer?$FN?5Send@
CONST	SEGMENT
??_C@_0FI@NGHAEIOD@?$FLBlood?5Castle?$FN?$FLBug?5Tracer?$FN?5Send@ DB '[B'
	DB	'lood Castle][Bug Tracer] SendCastleBridgeBlockInfo-> Bridge:%'
	DB	'd/Live:%d, (%d,%d,%d,%d)', 00H		; `string'
CONST	ENDS
;	COMDAT ??_C@_0DE@LNBDIFNP@?$FLBlood?5Castle?$FN?$FLBug?5Tracer?$FN?5Rele@
CONST	SEGMENT
??_C@_0DE@LNBDIFNP@?$FLBlood?5Castle?$FN?$FLBug?5Tracer?$FN?5Rele@ DB '[B'
	DB	'lood Castle][Bug Tracer] ReleaseCastleBridge-> %d', 00H ; `string'
CONST	ENDS
;	COMDAT ??_C@_0DA@KDBPKGIM@?$FL?$CFs?$FN?$FL?$CFs?$FN?5LevelUp?5PlusStatQuest?5@
CONST	SEGMENT
??_C@_0DA@KDBPKGIM@?$FL?$CFs?$FN?$FL?$CFs?$FN?5LevelUp?5PlusStatQuest?5@ DB '['
	DB	'%s][%s] LevelUp PlusStatQuest Clear AddStat %d', 00H ; `string'
CONST	ENDS
;	COMDAT ??_C@_0FD@ECDGNEKE@Experience?5?3?5Map?$FL?$CFd?$FN?9?$CI?$CFd?0?$CFd?$CJ?5?$FL?$CF@
CONST	SEGMENT
??_C@_0FD@ECDGNEKE@Experience?5?3?5Map?$FL?$CFd?$FN?9?$CI?$CFd?0?$CFd?$CJ?5?$FL?$CF@ DB 'E'
	DB	'xperience : Map[%d]-(%d,%d) [%s][%s](%d) %uz %d MonsterIndex '
	DB	': %d, EventType : %d', 00H			; `string'
CONST	ENDS
;	COMDAT ??_C@_0FO@DLJLMMJB@?$FLBlood?5Castle?$FN?$FLBug?5Tracer?$FN?5?$CI?$CFd?$CJ@
CONST	SEGMENT
??_C@_0FO@DLJLMMJB@?$FLBlood?5Castle?$FN?$FLBug?5Tracer?$FN?5?$CI?$CFd?$CJ@ DB '['
	DB	'Blood Castle][Bug Tracer] (%d) It''s not Saint Statue( Map:%d'
	DB	', BloodCastleIndex:%d, Type:%d )', 00H	; `string'
CONST	ENDS
;	COMDAT ??_C@_0DE@KMNEMIOE@?$FL?E?u?$LI?m?$LI?A?E?d?5Mix?$FN?5?$FL?$CFs?$FN?$FL?$CFs?$FN?5CBMix?5F@
CONST	SEGMENT
??_C@_0DE@KMNEMIOE@?$FL?E?u?$LI?m?$LI?A?E?d?5Mix?$FN?5?$FL?$CFs?$FN?$FL?$CFs?$FN?5CBMix?5F@ DB '['
	DB	0c5H, 0f5H, 0b8H, 0edH, 0b8H, 0c1H, 0c5H, 0e4H, ' Mix] [%s][%s'
	DB	'] CBMix Fail %d Money : %d-%d', 00H		; `string'
CONST	ENDS
;	COMDAT ??_C@_0DH@PODHMCM@?$FL?E?u?$LI?m?$LI?A?E?d?5Mix?$FN?5?$FL?$CFs?$FN?$FL?$CFs?$FN?5CBMix?5S@
CONST	SEGMENT
??_C@_0DH@PODHMCM@?$FL?E?u?$LI?m?$LI?A?E?d?5Mix?$FN?5?$FL?$CFs?$FN?$FL?$CFs?$FN?5CBMix?5S@ DB '['
	DB	0c5H, 0f5H, 0b8H, 0edH, 0b8H, 0c1H, 0c5H, 0e4H, ' Mix] [%s][%s'
	DB	'] CBMix Success %d Money : %d-%d', 00H	; `string'
CONST	ENDS
;	COMDAT ??_C@_0GA@CFALPHEA@?$FLBlood?5Castle?$FN?5?E?u?$LI?m?$LI?A?E?d?5Mix?5Cha@
CONST	SEGMENT
??_C@_0GA@CFALPHEA@?$FLBlood?5Castle?$FN?5?E?u?$LI?m?$LI?A?E?d?5Mix?5Cha@ DB '['
	DB	'Blood Castle] ', 0c5H, 0f5H, 0b8H, 0edH, 0b8H, 0c1H, 0c5H, 0e4H
	DB	' Mix Chaos Mix Failed - Not Enough Money (Account:%s, Name:%s'
	DB	', Level:%d)', 00H				; `string'
CONST	ENDS
;	COMDAT ??_C@_0FM@MNNOPKAN@?$FLBlood?5Castle?$FN?5?E?u?$LI?m?$LI?A?E?d?5Mix?5Cha@
CONST	SEGMENT
??_C@_0FM@MNNOPKAN@?$FLBlood?5Castle?$FN?5?E?u?$LI?m?$LI?A?E?d?5Mix?5Cha@ DB '['
	DB	'Blood Castle] ', 0c5H, 0f5H, 0b8H, 0edH, 0b8H, 0c1H, 0c5H, 0e4H
	DB	' Mix Chaos Mix Failed - MixMoney < 0 (Account:%s, Name:%s, Le'
	DB	'vel:%d)', 00H				; `string'
CONST	ENDS
;	COMDAT ??_C@_0GE@IPBOHNGB@?$FLBlood?5Castle?$FN?5?E?u?$LI?m?$LI?A?E?d?5Mix?5Cha@
CONST	SEGMENT
??_C@_0GE@IPBOHNGB@?$FLBlood?5Castle?$FN?5?E?u?$LI?m?$LI?A?E?d?5Mix?5Cha@ DB '['
	DB	'Blood Castle] ', 0c5H, 0f5H, 0b8H, 0edH, 0b8H, 0c1H, 0c5H, 0e4H
	DB	' Mix Chaos Mix Failed - MixRate Out of Bound (Account:%s, Nam'
	DB	'e:%s, Level:%d)', 00H			; `string'
CONST	ENDS
;	COMDAT ??_C@_0N@FFCGFOPA@?E?u?$LI?m?$LI?A?E?d?5Mix@
CONST	SEGMENT
??_C@_0N@FFCGFOPA@?E?u?$LI?m?$LI?A?E?d?5Mix@ DB 0c5H, 0f5H, 0b8H, 0edH, 0b8H
	DB	0c1H, 0c5H, 0e4H, ' Mix', 00H		; `string'
CONST	ENDS
;	COMDAT ??_C@_0EM@CDAILJHC@?$FLBlood?5Castle?$FN?5?E?u?$LI?m?$LI?A?E?d?5Mix?5Cha@
CONST	SEGMENT
??_C@_0EM@CDAILJHC@?$FLBlood?5Castle?$FN?5?E?u?$LI?m?$LI?A?E?d?5Mix?5Cha@ DB '['
	DB	'Blood Castle] ', 0c5H, 0f5H, 0b8H, 0edH, 0b8H, 0c1H, 0c5H, 0e4H
	DB	' Mix Chaos Mix Start (Account:%s, Name:%s, Level:%d)', 00H ; `string'
CONST	ENDS
;	COMDAT ??_C@_0CF@OPFFLCHN@?$FLBlood?5Castle?$FN?5?$CI?$CFd?$CJ?5SetState?5PL@
CONST	SEGMENT
??_C@_0CF@OPFFLCHN@?$FLBlood?5Castle?$FN?5?$CI?$CFd?$CJ?5SetState?5PL@ DB '['
	DB	'Blood Castle] (%d) SetState PLAYEND', 00H	; `string'
CONST	ENDS
;	COMDAT ??_C@_0CF@IOKOFOAG@?$FLBlood?5Castle?$FN?5?$CI?$CFd?$CJ?5SetState?5PL@
CONST	SEGMENT
??_C@_0CF@IOKOFOAG@?$FLBlood?5Castle?$FN?5?$CI?$CFd?$CJ?5SetState?5PL@ DB '['
	DB	'Blood Castle] (%d) SetState PLAYING', 00H	; `string'
CONST	ENDS
;	COMDAT ??_C@_0CE@INEHOCBG@?$FLBlood?5Castle?$FN?5?$CI?$CFd?$CJ?5SetState?5CL@
CONST	SEGMENT
??_C@_0CE@INEHOCBG@?$FLBlood?5Castle?$FN?5?$CI?$CFd?$CJ?5SetState?5CL@ DB '['
	DB	'Blood Castle] (%d) SetState CLOSED', 00H	; `string'
CONST	ENDS
;	COMDAT ??_C@_0DK@EOCANJIL@?$FLBlood?5Castle?$FN?5?$CI?$CFd?$CJ?5Blood?5Castl@
CONST	SEGMENT
??_C@_0DK@EOCANJIL@?$FLBlood?5Castle?$FN?5?$CI?$CFd?$CJ?5Blood?5Castl@ DB '['
	DB	'Blood Castle] (%d) Blood Castle Quest Failed -> Time Out', 00H ; `string'
CONST	ENDS
;	COMDAT ??_C@_0DM@EMKPJGDI@?$FLBlood?5Castle?$FN?5?$CI?$CFd?$CJ?5CheckWinner@
CONST	SEGMENT
??_C@_0DM@EMKPJGDI@?$FLBlood?5Castle?$FN?5?$CI?$CFd?$CJ?5CheckWinner@ DB '['
	DB	'Blood Castle] (%d) CheckWinnerValid(iBridgeIndex) == false', 00H ; `string'
CONST	ENDS
;	COMDAT ??_C@_0ED@LAGFFAOI@?$FLBlood?5Castle?$FN?5?$CI?$CFd?$CJ?5CheckWinner@
CONST	SEGMENT
??_C@_0ED@LAGFFAOI@?$FLBlood?5Castle?$FN?5?$CI?$CFd?$CJ?5CheckWinner@ DB '['
	DB	'Blood Castle] (%d) CheckWinnerPartyComplete(iBridgeIndex) == '
	DB	'true', 00H					; `string'
CONST	ENDS
;	COMDAT ??_C@_0EA@OKAIGEKM@?$FLBlood?5Castle?$FN?5?$CI?$CFd?$CJ?5Blood?5Castl@
CONST	SEGMENT
??_C@_0EA@OKAIGEKM@?$FLBlood?5Castle?$FN?5?$CI?$CFd?$CJ?5Blood?5Castl@ DB '['
	DB	'Blood Castle] (%d) Blood Castle Quest Failed -> Every User Ou'
	DB	't', 00H					; `string'
CONST	ENDS
;	COMDAT ??_C@_0FE@DMAGKDKC@?$FLBlood?5Castle?$FN?5?$CI?$CFd?$CJ?5Blood?5Castl@
CONST	SEGMENT
??_C@_0FE@DMAGKDKC@?$FLBlood?5Castle?$FN?5?$CI?$CFd?$CJ?5Blood?5Castl@ DB '['
	DB	'Blood Castle] (%d) Blood Castle Quest Fail Result -> Destroy '
	DB	'Saint Status [%s][%s]', 00H			; `string'
CONST	ENDS
;	COMDAT ??_C@_0FD@DNPEIOMM@?$FLBlood?5Castle?$FN?5?$CI?$CFd?$CJ?5Blood?5Castl@
CONST	SEGMENT
??_C@_0FD@DNPEIOMM@?$FLBlood?5Castle?$FN?5?$CI?$CFd?$CJ?5Blood?5Castl@ DB '['
	DB	'Blood Castle] (%d) Blood Castle Quest Fail Result -> Destroy '
	DB	'Castle Door [%s][%s]', 00H			; `string'
CONST	ENDS
;	COMDAT ??_C@_0CN@CMBLFMKI@?$FLBlood?5Castle?$FN?5?$CI?$CFd?$CJ?5Blood?5Castl@
CONST	SEGMENT
??_C@_0CN@CMBLFMKI@?$FLBlood?5Castle?$FN?5?$CI?$CFd?$CJ?5Blood?5Castl@ DB '['
	DB	'Blood Castle] (%d) Blood Castle Quest Start', 00H ; `string'
CONST	ENDS
;	COMDAT ??_C@_0DL@ILEHECHL@?$FLBlood?5Castle?$FN?5?$CI?$CFd?$CJ?5Bridge?5Chan@
CONST	SEGMENT
??_C@_0DL@ILEHECHL@?$FLBlood?5Castle?$FN?5?$CI?$CFd?$CJ?5Bridge?5Chan@ DB '['
	DB	'Blood Castle] (%d) Bridge Change Bridge Attribute -> Open', 00H ; `string'
CONST	ENDS
;	COMDAT ??_C@_0DE@JOEGJLEF@?$FLBlood?5Castle?$FN?5?$CI?$CFd?$CJ?5Sync?5Open?5T@
CONST	SEGMENT
??_C@_0DE@JOEGJLEF@?$FLBlood?5Castle?$FN?5?$CI?$CFd?$CJ?5Sync?5Open?5T@ DB '['
	DB	'Blood Castle] (%d) Sync Open Time. [%d] min remain', 00H ; `string'
CONST	ENDS
;	COMDAT ??_C@_0O@FHPHMJJK@StoneItemDrop@
CONST	SEGMENT
??_C@_0O@FHPHMJJK@StoneItemDrop@ DB 'StoneItemDrop', 00H ; `string'
CONST	ENDS
;	COMDAT ??_C@_0O@PBCFFJJH@StoneDropRate@
CONST	SEGMENT
??_C@_0O@PBCFFJJH@StoneDropRate@ DB 'StoneDropRate', 00H ; `string'
CONST	ENDS
;	COMDAT ??_C@_0BC@NGLLHLOE@BloodBoneDropRate@
CONST	SEGMENT
??_C@_0BC@NGLLHLOE@BloodBoneDropRate@ DB 'BloodBoneDropRate', 00H ; `string'
CONST	ENDS
;	COMDAT ??_C@_0BI@KPDDGOOE@AngelKingsPaperDropRate@
CONST	SEGMENT
??_C@_0BI@KPDDGOOE@AngelKingsPaperDropRate@ DB 'AngelKingsPaperDropRate', 00H ; `string'
CONST	ENDS
;	COMDAT ??_C@_0P@EMJDPFDH@GameServerInfo@
CONST	SEGMENT
??_C@_0P@EMJDPFDH@GameServerInfo@ DB 'GameServerInfo', 00H ; `string'
CONST	ENDS
;	COMDAT ??_C@_0BB@DHAFCNAC@BloodCastleEvent@
CONST	SEGMENT
??_C@_0BB@DHAFCNAC@BloodCastleEvent@ DB 'BloodCastleEvent', 00H ; `string'
CONST	ENDS
;	COMDAT ??_C@_0BB@IGLHFEOF@commonserver?4cfg@
CONST	SEGMENT
??_C@_0BB@IGLHFEOF@commonserver?4cfg@ DB 'commonserver.cfg', 00H ; `string'
CONST	ENDS
;	COMDAT ??_C@_0O@CEHBAEMJ@?$CFs?5file?5load?$CB@
CONST	SEGMENT
??_C@_0O@CEHBAEMJ@?$CFs?5file?5load?$CB@ DB '%s file load!', 00H ; `string'
CONST	ENDS
;	COMDAT ??_C@_03JBJLGPFL@end@
CONST	SEGMENT
??_C@_03JBJLGPFL@end@ DB 'end', 00H			; `string'
CONST	ENDS
;	COMDAT ??_C@_0CI@EIBEEFOB@?$FLBlood?5Castle?$FN?5Info?5file?5Load?5F@
CONST	SEGMENT
??_C@_0CI@EIBEEFOB@?$FLBlood?5Castle?$FN?5Info?5file?5Load?5F@ DB '[Blood'
	DB	' Castle] Info file Load Fail [%s]', 00H	; `string'
CONST	ENDS
;	COMDAT ??_C@_01KDCPPGHE@r@
CONST	SEGMENT
??_C@_01KDCPPGHE@r@ DB 'r', 00H				; `string'
CONST	ENDS
;	COMDAT ??_7CBloodCastle@@6B@
CONST	SEGMENT
??_7CBloodCastle@@6B@ DD FLAT:??_R4CBloodCastle@@6B@	; CBloodCastle::`vftable'
	DD	FLAT:??_ECBloodCastle@@UAEPAXI@Z
CONST	ENDS
_DATA	SEGMENT
?g_sttBLOODCASTLE_LEVEL@@3PAU_BLOOODCASTLE_LEVEL@@A DD 0fH ; g_sttBLOODCASTLE_LEVEL
	DD	050H
	DD	0aH
	DD	03cH
	DD	051H
	DD	082H
	DD	03dH
	DD	06eH
	DD	083H
	DD	0b4H
	DD	06fH
	DD	0a0H
	DD	0b5H
	DD	0e6H
	DD	0a1H
	DD	0d2H
	DD	0e7H
	DD	0118H
	DD	0d3H
	DD	0104H
	DD	0119H
	DD	014aH
	DD	0105H
	DD	0136H
	DD	014bH
	DD	0190H
	DD	0137H
	DD	0190H
_DATA	ENDS
;	COMDAT ??_R1A@?0A@EA@bad_array_new_length@std@@8
rdata$r	SEGMENT
??_R1A@?0A@EA@bad_array_new_length@std@@8 DD FLAT:??_R0?AVbad_array_new_length@std@@@8 ; std::bad_array_new_length::`RTTI Base Class Descriptor at (0,-1,0,64)'
	DD	02H
	DD	00H
	DD	0ffffffffH
	DD	00H
	DD	040H
	DD	FLAT:??_R3bad_array_new_length@std@@8
rdata$r	ENDS
;	COMDAT ??_R2bad_array_new_length@std@@8
rdata$r	SEGMENT
??_R2bad_array_new_length@std@@8 DD FLAT:??_R1A@?0A@EA@bad_array_new_length@std@@8 ; std::bad_array_new_length::`RTTI Base Class Array'
	DD	FLAT:??_R1A@?0A@EA@bad_alloc@std@@8
	DD	FLAT:??_R1A@?0A@EA@exception@std@@8
rdata$r	ENDS
;	COMDAT ??_R3bad_array_new_length@std@@8
rdata$r	SEGMENT
??_R3bad_array_new_length@std@@8 DD 00H			; std::bad_array_new_length::`RTTI Class Hierarchy Descriptor'
	DD	00H
	DD	03H
	DD	FLAT:??_R2bad_array_new_length@std@@8
rdata$r	ENDS
;	COMDAT ??_R4bad_array_new_length@std@@6B@
rdata$r	SEGMENT
??_R4bad_array_new_length@std@@6B@ DD 00H		; std::bad_array_new_length::`RTTI Complete Object Locator'
	DD	00H
	DD	00H
	DD	FLAT:??_R0?AVbad_array_new_length@std@@@8
	DD	FLAT:??_R3bad_array_new_length@std@@8
rdata$r	ENDS
;	COMDAT ??_R1A@?0A@EA@bad_alloc@std@@8
rdata$r	SEGMENT
??_R1A@?0A@EA@bad_alloc@std@@8 DD FLAT:??_R0?AVbad_alloc@std@@@8 ; std::bad_alloc::`RTTI Base Class Descriptor at (0,-1,0,64)'
	DD	01H
	DD	00H
	DD	0ffffffffH
	DD	00H
	DD	040H
	DD	FLAT:??_R3bad_alloc@std@@8
rdata$r	ENDS
;	COMDAT ??_R2bad_alloc@std@@8
rdata$r	SEGMENT
??_R2bad_alloc@std@@8 DD FLAT:??_R1A@?0A@EA@bad_alloc@std@@8 ; std::bad_alloc::`RTTI Base Class Array'
	DD	FLAT:??_R1A@?0A@EA@exception@std@@8
rdata$r	ENDS
;	COMDAT ??_R3bad_alloc@std@@8
rdata$r	SEGMENT
??_R3bad_alloc@std@@8 DD 00H				; std::bad_alloc::`RTTI Class Hierarchy Descriptor'
	DD	00H
	DD	02H
	DD	FLAT:??_R2bad_alloc@std@@8
rdata$r	ENDS
;	COMDAT ??_R4bad_alloc@std@@6B@
rdata$r	SEGMENT
??_R4bad_alloc@std@@6B@ DD 00H				; std::bad_alloc::`RTTI Complete Object Locator'
	DD	00H
	DD	00H
	DD	FLAT:??_R0?AVbad_alloc@std@@@8
	DD	FLAT:??_R3bad_alloc@std@@8
rdata$r	ENDS
;	COMDAT ??_R1A@?0A@EA@exception@std@@8
rdata$r	SEGMENT
??_R1A@?0A@EA@exception@std@@8 DD FLAT:??_R0?AVexception@std@@@8 ; std::exception::`RTTI Base Class Descriptor at (0,-1,0,64)'
	DD	00H
	DD	00H
	DD	0ffffffffH
	DD	00H
	DD	040H
	DD	FLAT:??_R3exception@std@@8
rdata$r	ENDS
;	COMDAT ??_R2exception@std@@8
rdata$r	SEGMENT
??_R2exception@std@@8 DD FLAT:??_R1A@?0A@EA@exception@std@@8 ; std::exception::`RTTI Base Class Array'
rdata$r	ENDS
;	COMDAT ??_R3exception@std@@8
rdata$r	SEGMENT
??_R3exception@std@@8 DD 00H				; std::exception::`RTTI Class Hierarchy Descriptor'
	DD	00H
	DD	01H
	DD	FLAT:??_R2exception@std@@8
rdata$r	ENDS
;	COMDAT ??_R4exception@std@@6B@
rdata$r	SEGMENT
??_R4exception@std@@6B@ DD 00H				; std::exception::`RTTI Complete Object Locator'
	DD	00H
	DD	00H
	DD	FLAT:??_R0?AVexception@std@@@8
	DD	FLAT:??_R3exception@std@@8
rdata$r	ENDS
;	COMDAT __CT??_R0?AVexception@std@@@8??0exception@std@@QAE@ABV01@@Z12
xdata$x	SEGMENT
__CT??_R0?AVexception@std@@@8??0exception@std@@QAE@ABV01@@Z12 DD 00H
	DD	FLAT:??_R0?AVexception@std@@@8
	DD	00H
	DD	0ffffffffH
	ORG $+4
	DD	0cH
	DD	FLAT:??0exception@std@@QAE@ABV01@@Z
xdata$x	ENDS
;	COMDAT ??_R0?AVexception@std@@@8
data$r	SEGMENT
??_R0?AVexception@std@@@8 DD FLAT:??_7type_info@@6B@	; std::exception `RTTI Type Descriptor'
	DD	00H
	DB	'.?AVexception@std@@', 00H
data$r	ENDS
;	COMDAT __CT??_R0?AVbad_alloc@std@@@8??0bad_alloc@std@@QAE@ABV01@@Z12
xdata$x	SEGMENT
__CT??_R0?AVbad_alloc@std@@@8??0bad_alloc@std@@QAE@ABV01@@Z12 DD 010H
	DD	FLAT:??_R0?AVbad_alloc@std@@@8
	DD	00H
	DD	0ffffffffH
	ORG $+4
	DD	0cH
	DD	FLAT:??0bad_alloc@std@@QAE@ABV01@@Z
xdata$x	ENDS
;	COMDAT ??_R0?AVbad_alloc@std@@@8
data$r	SEGMENT
??_R0?AVbad_alloc@std@@@8 DD FLAT:??_7type_info@@6B@	; std::bad_alloc `RTTI Type Descriptor'
	DD	00H
	DB	'.?AVbad_alloc@std@@', 00H
data$r	ENDS
;	COMDAT __CT??_R0?AVbad_array_new_length@std@@@8??0bad_array_new_length@std@@QAE@ABV01@@Z12
xdata$x	SEGMENT
__CT??_R0?AVbad_array_new_length@std@@@8??0bad_array_new_length@std@@QAE@ABV01@@Z12 DD 00H
	DD	FLAT:??_R0?AVbad_array_new_length@std@@@8
	DD	00H
	DD	0ffffffffH
	ORG $+4
	DD	0cH
	DD	FLAT:??0bad_array_new_length@std@@QAE@ABV01@@Z
xdata$x	ENDS
;	COMDAT ??_R0?AVbad_array_new_length@std@@@8
data$r	SEGMENT
??_R0?AVbad_array_new_length@std@@@8 DD FLAT:??_7type_info@@6B@ ; std::bad_array_new_length `RTTI Type Descriptor'
	DD	00H
	DB	'.?AVbad_array_new_length@std@@', 00H
data$r	ENDS
;	COMDAT __CTA3?AVbad_array_new_length@std@@
xdata$x	SEGMENT
__CTA3?AVbad_array_new_length@std@@ DD 03H
	DD	FLAT:__CT??_R0?AVbad_array_new_length@std@@@8??0bad_array_new_length@std@@QAE@ABV01@@Z12
	DD	FLAT:__CT??_R0?AVbad_alloc@std@@@8??0bad_alloc@std@@QAE@ABV01@@Z12
	DD	FLAT:__CT??_R0?AVexception@std@@@8??0exception@std@@QAE@ABV01@@Z12
xdata$x	ENDS
;	COMDAT __TI3?AVbad_array_new_length@std@@
xdata$x	SEGMENT
__TI3?AVbad_array_new_length@std@@ DD 00H
	DD	FLAT:??1bad_array_new_length@std@@UAE@XZ
	DD	00H
	DD	FLAT:__CTA3?AVbad_array_new_length@std@@
xdata$x	ENDS
;	COMDAT ??_C@_0BF@KINCDENJ@bad?5array?5new?5length@
CONST	SEGMENT
??_C@_0BF@KINCDENJ@bad?5array?5new?5length@ DB 'bad array new length', 00H ; `string'
CONST	ENDS
;	COMDAT ??_7bad_array_new_length@std@@6B@
CONST	SEGMENT
??_7bad_array_new_length@std@@6B@ DD FLAT:??_R4bad_array_new_length@std@@6B@ ; std::bad_array_new_length::`vftable'
	DD	FLAT:??_Ebad_array_new_length@std@@UAEPAXI@Z
	DD	FLAT:?what@exception@std@@UBEPBDXZ
CONST	ENDS
;	COMDAT ??_7bad_alloc@std@@6B@
CONST	SEGMENT
??_7bad_alloc@std@@6B@ DD FLAT:??_R4bad_alloc@std@@6B@	; std::bad_alloc::`vftable'
	DD	FLAT:??_Ebad_alloc@std@@UAEPAXI@Z
	DD	FLAT:?what@exception@std@@UBEPBDXZ
CONST	ENDS
;	COMDAT ??_C@_0BC@EOODALEL@Unknown?5exception@
CONST	SEGMENT
??_C@_0BC@EOODALEL@Unknown?5exception@ DB 'Unknown exception', 00H ; `string'
CONST	ENDS
;	COMDAT ??_7exception@std@@6B@
CONST	SEGMENT
??_7exception@std@@6B@ DD FLAT:??_R4exception@std@@6B@	; std::exception::`vftable'
	DD	FLAT:??_Eexception@std@@UAEPAXI@Z
	DD	FLAT:?what@exception@std@@UBEPBDXZ
CONST	ENDS
;	COMDAT xdata$x
xdata$x	SEGMENT
__unwindtable$??$?0ABUBLOODCASTLE_REWARD@@@?$_List_node_emplace_op2@V?$allocator@U?$_List_node@UBLOODCASTLE_REWARD@@PAX@std@@@std@@@std@@QAE@AAV?$allocator@U?$_List_node@UBLOODCASTLE_REWARD@@PAX@std@@@1@ABUBLOODCASTLE_REWARD@@@Z DD 0ffffffffH
	DD	FLAT:__unwindfunclet$??$?0ABUBLOODCASTLE_REWARD@@@?$_List_node_emplace_op2@V?$allocator@U?$_List_node@UBLOODCASTLE_REWARD@@PAX@std@@@std@@@std@@QAE@AAV?$allocator@U?$_List_node@UBLOODCASTLE_REWARD@@PAX@std@@@1@ABUBLOODCASTLE_REWARD@@@Z$0
__ehfuncinfo$??$?0ABUBLOODCASTLE_REWARD@@@?$_List_node_emplace_op2@V?$allocator@U?$_List_node@UBLOODCASTLE_REWARD@@PAX@std@@@std@@@std@@QAE@AAV?$allocator@U?$_List_node@UBLOODCASTLE_REWARD@@PAX@std@@@1@ABUBLOODCASTLE_REWARD@@@Z DD 019930522H
	DD	01H
	DD	FLAT:__unwindtable$??$?0ABUBLOODCASTLE_REWARD@@@?$_List_node_emplace_op2@V?$allocator@U?$_List_node@UBLOODCASTLE_REWARD@@PAX@std@@@std@@@std@@QAE@AAV?$allocator@U?$_List_node@UBLOODCASTLE_REWARD@@PAX@std@@@1@ABUBLOODCASTLE_REWARD@@@Z
	DD	2 DUP(00H)
	DD	2 DUP(00H)
	DD	00H
	DD	01H
xdata$x	ENDS
;	COMDAT xdata$x
xdata$x	SEGMENT
__ehfuncinfo$??1?$_List_node_emplace_op2@V?$allocator@U?$_List_node@UBLOODCASTLE_REWARD@@PAX@std@@@std@@@std@@QAE@XZ DD 019930522H
	DD	00H
	DD	00H
	DD	2 DUP(00H)
	DD	2 DUP(00H)
	DD	00H
	DD	05H
xdata$x	ENDS
;	COMDAT xdata$x
xdata$x	SEGMENT
__ehfuncinfo$??1?$_Alloc_construct_ptr@V?$allocator@U?$_List_node@UBLOODCASTLE_REWARD@@PAX@std@@@std@@@std@@QAE@XZ DD 019930522H
	DD	00H
	DD	00H
	DD	2 DUP(00H)
	DD	2 DUP(00H)
	DD	00H
	DD	05H
xdata$x	ENDS
;	COMDAT xdata$x
xdata$x	SEGMENT
__ehfuncinfo$??$_Freenode@V?$allocator@U?$_List_node@UBLOODCASTLE_REWARD@@PAX@std@@@std@@@?$_List_node@UBLOODCASTLE_REWARD@@PAX@std@@SAXAAV?$allocator@U?$_List_node@UBLOODCASTLE_REWARD@@PAX@std@@@1@PAU01@@Z DD 019930522H
	DD	00H
	DD	00H
	DD	2 DUP(00H)
	DD	2 DUP(00H)
	DD	00H
	DD	05H
xdata$x	ENDS
;	COMDAT xdata$x
xdata$x	SEGMENT
__ehfuncinfo$??$_Freenode0@V?$allocator@U?$_List_node@UBLOODCASTLE_REWARD@@PAX@std@@@std@@@?$_List_node@UBLOODCASTLE_REWARD@@PAX@std@@SAXAAV?$allocator@U?$_List_node@UBLOODCASTLE_REWARD@@PAX@std@@@1@PAU01@@Z DD 019930522H
	DD	00H
	DD	00H
	DD	2 DUP(00H)
	DD	2 DUP(00H)
	DD	00H
	DD	05H
xdata$x	ENDS
;	COMDAT xdata$x
xdata$x	SEGMENT
__ehfuncinfo$??1CBloodCastle@@UAE@XZ DD 019930522H
	DD	00H
	DD	00H
	DD	2 DUP(00H)
	DD	2 DUP(00H)
	DD	00H
	DD	05H
xdata$x	ENDS
;	COMDAT xdata$x
xdata$x	SEGMENT
__unwindtable$??0CBloodCastle@@QAE@XZ DD 0ffffffffH
	DD	FLAT:__unwindfunclet$??0CBloodCastle@@QAE@XZ$0
__ehfuncinfo$??0CBloodCastle@@QAE@XZ DD 019930522H
	DD	01H
	DD	FLAT:__unwindtable$??0CBloodCastle@@QAE@XZ
	DD	2 DUP(00H)
	DD	2 DUP(00H)
	DD	00H
	DD	01H
xdata$x	ENDS
;	COMDAT xdata$x
xdata$x	SEGMENT
__ehfuncinfo$??$_Deallocate@$07$0A@@std@@YAXPAXI@Z DD 019930522H
	DD	00H
	DD	00H
	DD	2 DUP(00H)
	DD	2 DUP(00H)
	DD	00H
	DD	05H
xdata$x	ENDS
CRT$XCU	SEGMENT
?g_iChaosCastle_MonsterItems$initializer$@@3P6AXXZA DD FLAT:??__Eg_iChaosCastle_MonsterItems@@YAXXZ ; g_iChaosCastle_MonsterItems$initializer$
CRT$XCU	ENDS
; Function compile flags: /Odtp /ZI
; File C:\Program Files (x86)\Microsoft Visual Studio\2019\Community\VC\Tools\MSVC\14.27.29110\include\type_traits
;	COMDAT ??$forward@ABQAU?$_List_node@UBLOODCASTLE_REWARD@@PAX@std@@@std@@YAABQAU?$_List_node@UBLOODCASTLE_REWARD@@PAX@0@ABQAU10@@Z
_TEXT	SEGMENT
__Arg$ = 8						; size = 4
??$forward@ABQAU?$_List_node@UBLOODCASTLE_REWARD@@PAX@std@@@std@@YAABQAU?$_List_node@UBLOODCASTLE_REWARD@@PAX@0@ABQAU10@@Z PROC ; std::forward<std::_List_node<BLOODCASTLE_REWARD,void *> * const &>, COMDAT

; 1454 :     remove_reference_t<_Ty>& _Arg) noexcept { // forward an lvalue as either an lvalue or an rvalue

  00000	55		 push	 ebp
  00001	8b ec		 mov	 ebp, esp
  00003	83 ec 40	 sub	 esp, 64			; 00000040H
  00006	53		 push	 ebx
  00007	56		 push	 esi
  00008	57		 push	 edi

; 1455 :     return static_cast<_Ty&&>(_Arg);

  00009	8b 45 08	 mov	 eax, DWORD PTR __Arg$[ebp]

; 1456 : }

  0000c	5f		 pop	 edi
  0000d	5e		 pop	 esi
  0000e	5b		 pop	 ebx
  0000f	8b e5		 mov	 esp, ebp
  00011	5d		 pop	 ebp
  00012	c3		 ret	 0
??$forward@ABQAU?$_List_node@UBLOODCASTLE_REWARD@@PAX@std@@@std@@YAABQAU?$_List_node@UBLOODCASTLE_REWARD@@PAX@0@ABQAU10@@Z ENDP ; std::forward<std::_List_node<BLOODCASTLE_REWARD,void *> * const &>
_TEXT	ENDS
; Function compile flags: /Odtp /ZI
; File C:\Program Files (x86)\Microsoft Visual Studio\2019\Community\VC\Tools\MSVC\14.27.29110\include\xmemory
;	COMDAT ??$construct@UBLOODCASTLE_REWARD@@ABU1@@?$_Default_allocator_traits@V?$allocator@U?$_List_node@UBLOODCASTLE_REWARD@@PAX@std@@@std@@@std@@SAXAAV?$allocator@U?$_List_node@UBLOODCASTLE_REWARD@@PAX@std@@@1@QAUBLOODCASTLE_REWARD@@ABU3@@Z
_TEXT	SEGMENT
$T1 = -68						; size = 4
___formal$ = 8						; size = 4
__Ptr$ = 12						; size = 4
_<_Args_0>$ = 16					; size = 4
??$construct@UBLOODCASTLE_REWARD@@ABU1@@?$_Default_allocator_traits@V?$allocator@U?$_List_node@UBLOODCASTLE_REWARD@@PAX@std@@@std@@@std@@SAXAAV?$allocator@U?$_List_node@UBLOODCASTLE_REWARD@@PAX@std@@@1@QAUBLOODCASTLE_REWARD@@ABU3@@Z PROC ; std::_Default_allocator_traits<std::allocator<std::_List_node<BLOODCASTLE_REWARD,void *> > >::construct<BLOODCASTLE_REWARD,BLOODCASTLE_REWARD const &>, COMDAT

; 693  :     static void construct(_Alloc&, _Objty* const _Ptr, _Types&&... _Args) {

  00000	55		 push	 ebp
  00001	8b ec		 mov	 ebp, esp
  00003	83 ec 44	 sub	 esp, 68			; 00000044H
  00006	53		 push	 ebx
  00007	56		 push	 esi
  00008	57		 push	 edi

; 694  :         ::new (const_cast<void*>(static_cast<const volatile void*>(_Ptr))) _Objty(_STD forward<_Types>(_Args)...);

  00009	8b 45 0c	 mov	 eax, DWORD PTR __Ptr$[ebp]
  0000c	50		 push	 eax
  0000d	6a 0a		 push	 10			; 0000000aH
  0000f	e8 00 00 00 00	 call	 ??2@YAPAXIPAX@Z		; operator new
  00014	83 c4 08	 add	 esp, 8
  00017	89 45 bc	 mov	 DWORD PTR $T1[ebp], eax
  0001a	8b 4d 10	 mov	 ecx, DWORD PTR _<_Args_0>$[ebp]
  0001d	51		 push	 ecx
  0001e	e8 00 00 00 00	 call	 ??$forward@ABUBLOODCASTLE_REWARD@@@std@@YAABUBLOODCASTLE_REWARD@@ABU1@@Z ; std::forward<BLOODCASTLE_REWARD const &>
  00023	83 c4 04	 add	 esp, 4
  00026	8b 55 bc	 mov	 edx, DWORD PTR $T1[ebp]
  00029	8b 08		 mov	 ecx, DWORD PTR [eax]
  0002b	89 0a		 mov	 DWORD PTR [edx], ecx
  0002d	8b 48 04	 mov	 ecx, DWORD PTR [eax+4]
  00030	89 4a 04	 mov	 DWORD PTR [edx+4], ecx
  00033	66 8b 40 08	 mov	 ax, WORD PTR [eax+8]
  00037	66 89 42 08	 mov	 WORD PTR [edx+8], ax

; 695  :     }

  0003b	5f		 pop	 edi
  0003c	5e		 pop	 esi
  0003d	5b		 pop	 ebx
  0003e	8b e5		 mov	 esp, ebp
  00040	5d		 pop	 ebp
  00041	c3		 ret	 0
??$construct@UBLOODCASTLE_REWARD@@ABU1@@?$_Default_allocator_traits@V?$allocator@U?$_List_node@UBLOODCASTLE_REWARD@@PAX@std@@@std@@@std@@SAXAAV?$allocator@U?$_List_node@UBLOODCASTLE_REWARD@@PAX@std@@@1@QAUBLOODCASTLE_REWARD@@ABU3@@Z ENDP ; std::_Default_allocator_traits<std::allocator<std::_List_node<BLOODCASTLE_REWARD,void *> > >::construct<BLOODCASTLE_REWARD,BLOODCASTLE_REWARD const &>
_TEXT	ENDS
; Function compile flags: /Odtp /ZI
; File C:\Program Files (x86)\Microsoft Visual Studio\2019\Community\VC\Tools\MSVC\14.27.29110\include\xmemory
;	COMDAT ??$destroy@UBLOODCASTLE_REWARD@@@?$_Default_allocator_traits@V?$allocator@U?$_List_node@UBLOODCASTLE_REWARD@@PAX@std@@@std@@@std@@SAXAAV?$allocator@U?$_List_node@UBLOODCASTLE_REWARD@@PAX@std@@@1@QAUBLOODCASTLE_REWARD@@@Z
_TEXT	SEGMENT
___formal$ = 8						; size = 4
__Ptr$ = 12						; size = 4
??$destroy@UBLOODCASTLE_REWARD@@@?$_Default_allocator_traits@V?$allocator@U?$_List_node@UBLOODCASTLE_REWARD@@PAX@std@@@std@@@std@@SAXAAV?$allocator@U?$_List_node@UBLOODCASTLE_REWARD@@PAX@std@@@1@QAUBLOODCASTLE_REWARD@@@Z PROC ; std::_Default_allocator_traits<std::allocator<std::_List_node<BLOODCASTLE_REWARD,void *> > >::destroy<BLOODCASTLE_REWARD>, COMDAT

; 698  :     static void destroy(_Alloc&, _Uty* const _Ptr) {

  00000	55		 push	 ebp
  00001	8b ec		 mov	 ebp, esp
  00003	83 ec 40	 sub	 esp, 64			; 00000040H
  00006	53		 push	 ebx
  00007	56		 push	 esi
  00008	57		 push	 edi

; 699  :         _Ptr->~_Uty();
; 700  :     }

  00009	5f		 pop	 edi
  0000a	5e		 pop	 esi
  0000b	5b		 pop	 ebx
  0000c	8b e5		 mov	 esp, ebp
  0000e	5d		 pop	 ebp
  0000f	c3		 ret	 0
??$destroy@UBLOODCASTLE_REWARD@@@?$_Default_allocator_traits@V?$allocator@U?$_List_node@UBLOODCASTLE_REWARD@@PAX@std@@@std@@@std@@SAXAAV?$allocator@U?$_List_node@UBLOODCASTLE_REWARD@@PAX@std@@@1@QAUBLOODCASTLE_REWARD@@@Z ENDP ; std::_Default_allocator_traits<std::allocator<std::_List_node<BLOODCASTLE_REWARD,void *> > >::destroy<BLOODCASTLE_REWARD>
_TEXT	ENDS
; Function compile flags: /Odtp /ZI
; File C:\Program Files (x86)\Microsoft Visual Studio\2019\Community\VC\Tools\MSVC\14.27.29110\include\xstddef
;	COMDAT ??$addressof@UBLOODCASTLE_REWARD@@@std@@YAPAUBLOODCASTLE_REWARD@@AAU1@@Z
_TEXT	SEGMENT
__Val$ = 8						; size = 4
??$addressof@UBLOODCASTLE_REWARD@@@std@@YAPAUBLOODCASTLE_REWARD@@AAU1@@Z PROC ; std::addressof<BLOODCASTLE_REWARD>, COMDAT

; 274  : _NODISCARD constexpr _Ty* addressof(_Ty& _Val) noexcept {

  00000	55		 push	 ebp
  00001	8b ec		 mov	 ebp, esp
  00003	83 ec 40	 sub	 esp, 64			; 00000040H
  00006	53		 push	 ebx
  00007	56		 push	 esi
  00008	57		 push	 edi

; 275  :     return __builtin_addressof(_Val);

  00009	8b 45 08	 mov	 eax, DWORD PTR __Val$[ebp]

; 276  : }

  0000c	5f		 pop	 edi
  0000d	5e		 pop	 esi
  0000e	5b		 pop	 ebx
  0000f	8b e5		 mov	 esp, ebp
  00011	5d		 pop	 ebp
  00012	c3		 ret	 0
??$addressof@UBLOODCASTLE_REWARD@@@std@@YAPAUBLOODCASTLE_REWARD@@AAU1@@Z ENDP ; std::addressof<BLOODCASTLE_REWARD>
_TEXT	ENDS
; Function compile flags: /Odtp /ZI
; File C:\Program Files (x86)\Microsoft Visual Studio\2019\Community\VC\Tools\MSVC\14.27.29110\include\xmemory
;	COMDAT ??$_Construct_in_place@PAU?$_List_node@UBLOODCASTLE_REWARD@@PAX@std@@ABQAU12@@std@@YAXAAPAU?$_List_node@UBLOODCASTLE_REWARD@@PAX@0@ABQAU10@@Z
_TEXT	SEGMENT
$T1 = -68						; size = 4
__Obj$ = 8						; size = 4
_<_Args_0>$ = 12					; size = 4
??$_Construct_in_place@PAU?$_List_node@UBLOODCASTLE_REWARD@@PAX@std@@ABQAU12@@std@@YAXAAPAU?$_List_node@UBLOODCASTLE_REWARD@@PAX@0@ABQAU10@@Z PROC ; std::_Construct_in_place<std::_List_node<BLOODCASTLE_REWARD,void *> *,std::_List_node<BLOODCASTLE_REWARD,void *> * const &>, COMDAT

; 228  : void _Construct_in_place(_Ty& _Obj, _Types&&... _Args) noexcept(is_nothrow_constructible_v<_Ty, _Types...>) {

  00000	55		 push	 ebp
  00001	8b ec		 mov	 ebp, esp
  00003	83 ec 44	 sub	 esp, 68			; 00000044H
  00006	53		 push	 ebx
  00007	56		 push	 esi
  00008	57		 push	 edi

; 229  :     ::new (const_cast<void*>(static_cast<const volatile void*>(_STD addressof(_Obj))))

  00009	8b 45 08	 mov	 eax, DWORD PTR __Obj$[ebp]
  0000c	50		 push	 eax
  0000d	e8 00 00 00 00	 call	 ??$addressof@PAU?$_List_node@UBLOODCASTLE_REWARD@@PAX@std@@@std@@YAPAPAU?$_List_node@UBLOODCASTLE_REWARD@@PAX@0@AAPAU10@@Z ; std::addressof<std::_List_node<BLOODCASTLE_REWARD,void *> *>
  00012	83 c4 04	 add	 esp, 4
  00015	50		 push	 eax
  00016	6a 04		 push	 4
  00018	e8 00 00 00 00	 call	 ??2@YAPAXIPAX@Z		; operator new
  0001d	83 c4 08	 add	 esp, 8
  00020	89 45 bc	 mov	 DWORD PTR $T1[ebp], eax
  00023	8b 4d 0c	 mov	 ecx, DWORD PTR _<_Args_0>$[ebp]
  00026	51		 push	 ecx
  00027	e8 00 00 00 00	 call	 ??$forward@ABQAU?$_List_node@UBLOODCASTLE_REWARD@@PAX@std@@@std@@YAABQAU?$_List_node@UBLOODCASTLE_REWARD@@PAX@0@ABQAU10@@Z ; std::forward<std::_List_node<BLOODCASTLE_REWARD,void *> * const &>
  0002c	83 c4 04	 add	 esp, 4
  0002f	8b 55 bc	 mov	 edx, DWORD PTR $T1[ebp]
  00032	8b 00		 mov	 eax, DWORD PTR [eax]
  00034	89 02		 mov	 DWORD PTR [edx], eax

; 230  :         _Ty(_STD forward<_Types>(_Args)...);
; 231  : }

  00036	5f		 pop	 edi
  00037	5e		 pop	 esi
  00038	5b		 pop	 ebx
  00039	8b e5		 mov	 esp, ebp
  0003b	5d		 pop	 ebp
  0003c	c3		 ret	 0
??$_Construct_in_place@PAU?$_List_node@UBLOODCASTLE_REWARD@@PAX@std@@ABQAU12@@std@@YAXAAPAU?$_List_node@UBLOODCASTLE_REWARD@@PAX@0@ABQAU10@@Z ENDP ; std::_Construct_in_place<std::_List_node<BLOODCASTLE_REWARD,void *> *,std::_List_node<BLOODCASTLE_REWARD,void *> * const &>
_TEXT	ENDS
; Function compile flags: /Odtp /ZI
; File C:\Program Files (x86)\Microsoft Visual Studio\2019\Community\VC\Tools\MSVC\14.27.29110\include\xmemory
;	COMDAT ??$_Destroy_in_place@PAU?$_List_node@UBLOODCASTLE_REWARD@@PAX@std@@@std@@YAXAAPAU?$_List_node@UBLOODCASTLE_REWARD@@PAX@0@@Z
_TEXT	SEGMENT
__Obj$ = 8						; size = 4
??$_Destroy_in_place@PAU?$_List_node@UBLOODCASTLE_REWARD@@PAX@std@@@std@@YAXAAPAU?$_List_node@UBLOODCASTLE_REWARD@@PAX@0@@Z PROC ; std::_Destroy_in_place<std::_List_node<BLOODCASTLE_REWARD,void *> *>, COMDAT

; 267  : void _Destroy_in_place(_Ty& _Obj) noexcept {

  00000	55		 push	 ebp
  00001	8b ec		 mov	 ebp, esp
  00003	83 ec 40	 sub	 esp, 64			; 00000040H
  00006	53		 push	 ebx
  00007	56		 push	 esi
  00008	57		 push	 edi

; 268  :     _Obj.~_Ty();
; 269  : }

  00009	5f		 pop	 edi
  0000a	5e		 pop	 esi
  0000b	5b		 pop	 ebx
  0000c	8b e5		 mov	 esp, ebp
  0000e	5d		 pop	 ebp
  0000f	c3		 ret	 0
??$_Destroy_in_place@PAU?$_List_node@UBLOODCASTLE_REWARD@@PAX@std@@@std@@YAXAAPAU?$_List_node@UBLOODCASTLE_REWARD@@PAX@0@@Z ENDP ; std::_Destroy_in_place<std::_List_node<BLOODCASTLE_REWARD,void *> *>
_TEXT	ENDS
; Function compile flags: /Odtp /ZI
; File C:\Program Files (x86)\Microsoft Visual Studio\2019\Community\VC\Tools\MSVC\14.27.29110\include\type_traits
;	COMDAT ??$forward@AAPAU?$_List_node@UBLOODCASTLE_REWARD@@PAX@std@@@std@@YAAAPAU?$_List_node@UBLOODCASTLE_REWARD@@PAX@0@AAPAU10@@Z
_TEXT	SEGMENT
__Arg$ = 8						; size = 4
??$forward@AAPAU?$_List_node@UBLOODCASTLE_REWARD@@PAX@std@@@std@@YAAAPAU?$_List_node@UBLOODCASTLE_REWARD@@PAX@0@AAPAU10@@Z PROC ; std::forward<std::_List_node<BLOODCASTLE_REWARD,void *> * &>, COMDAT

; 1454 :     remove_reference_t<_Ty>& _Arg) noexcept { // forward an lvalue as either an lvalue or an rvalue

  00000	55		 push	 ebp
  00001	8b ec		 mov	 ebp, esp
  00003	83 ec 40	 sub	 esp, 64			; 00000040H
  00006	53		 push	 ebx
  00007	56		 push	 esi
  00008	57		 push	 edi

; 1455 :     return static_cast<_Ty&&>(_Arg);

  00009	8b 45 08	 mov	 eax, DWORD PTR __Arg$[ebp]

; 1456 : }

  0000c	5f		 pop	 edi
  0000d	5e		 pop	 esi
  0000e	5b		 pop	 ebx
  0000f	8b e5		 mov	 esp, ebp
  00011	5d		 pop	 ebp
  00012	c3		 ret	 0
??$forward@AAPAU?$_List_node@UBLOODCASTLE_REWARD@@PAX@std@@@std@@YAAAPAU?$_List_node@UBLOODCASTLE_REWARD@@PAX@0@AAPAU10@@Z ENDP ; std::forward<std::_List_node<BLOODCASTLE_REWARD,void *> * &>
_TEXT	ENDS
; Function compile flags: /Odtp /ZI
; File C:\Program Files (x86)\Microsoft Visual Studio\2019\Community\VC\Tools\MSVC\14.27.29110\include\xstddef
;	COMDAT ??$addressof@PAU?$_List_node@UBLOODCASTLE_REWARD@@PAX@std@@@std@@YAPAPAU?$_List_node@UBLOODCASTLE_REWARD@@PAX@0@AAPAU10@@Z
_TEXT	SEGMENT
__Val$ = 8						; size = 4
??$addressof@PAU?$_List_node@UBLOODCASTLE_REWARD@@PAX@std@@@std@@YAPAPAU?$_List_node@UBLOODCASTLE_REWARD@@PAX@0@AAPAU10@@Z PROC ; std::addressof<std::_List_node<BLOODCASTLE_REWARD,void *> *>, COMDAT

; 274  : _NODISCARD constexpr _Ty* addressof(_Ty& _Val) noexcept {

  00000	55		 push	 ebp
  00001	8b ec		 mov	 ebp, esp
  00003	83 ec 40	 sub	 esp, 64			; 00000040H
  00006	53		 push	 ebx
  00007	56		 push	 esi
  00008	57		 push	 edi

; 275  :     return __builtin_addressof(_Val);

  00009	8b 45 08	 mov	 eax, DWORD PTR __Val$[ebp]

; 276  : }

  0000c	5f		 pop	 edi
  0000d	5e		 pop	 esi
  0000e	5b		 pop	 ebx
  0000f	8b e5		 mov	 esp, ebp
  00011	5d		 pop	 ebp
  00012	c3		 ret	 0
??$addressof@PAU?$_List_node@UBLOODCASTLE_REWARD@@PAX@std@@@std@@YAPAPAU?$_List_node@UBLOODCASTLE_REWARD@@PAX@0@AAPAU10@@Z ENDP ; std::addressof<std::_List_node<BLOODCASTLE_REWARD,void *> *>
_TEXT	ENDS
; Function compile flags: /Odtp /ZI
; File C:\Program Files (x86)\Microsoft Visual Studio\2019\Community\VC\Tools\MSVC\14.27.29110\include\list
;	COMDAT ??$?0ABUBLOODCASTLE_REWARD@@@?$_List_node_emplace_op2@V?$allocator@U?$_List_node@UBLOODCASTLE_REWARD@@PAX@std@@@std@@@std@@QAE@AAV?$allocator@U?$_List_node@UBLOODCASTLE_REWARD@@PAX@std@@@1@ABUBLOODCASTLE_REWARD@@@Z
_TEXT	SEGMENT
_this$ = -16						; size = 4
__$EHRec$ = -12						; size = 12
__Al_$ = 8						; size = 4
_<_Vals_0>$ = 12					; size = 4
??$?0ABUBLOODCASTLE_REWARD@@@?$_List_node_emplace_op2@V?$allocator@U?$_List_node@UBLOODCASTLE_REWARD@@PAX@std@@@std@@@std@@QAE@AAV?$allocator@U?$_List_node@UBLOODCASTLE_REWARD@@PAX@std@@@1@ABUBLOODCASTLE_REWARD@@@Z PROC ; std::_List_node_emplace_op2<std::allocator<std::_List_node<BLOODCASTLE_REWARD,void *> > >::_List_node_emplace_op2<std::allocator<std::_List_node<BLOODCASTLE_REWARD,void *> > ><BLOODCASTLE_REWARD const &>, COMDAT
; _this$ = ecx

; 585  :     explicit _List_node_emplace_op2(_Alnode& _Al_, _Valtys&&... _Vals) : _Alloc_construct_ptr<_Alnode>(_Al_) {

  00000	55		 push	 ebp
  00001	8b ec		 mov	 ebp, esp
  00003	6a ff		 push	 -1
  00005	68 00 00 00 00	 push	 __ehhandler$??$?0ABUBLOODCASTLE_REWARD@@@?$_List_node_emplace_op2@V?$allocator@U?$_List_node@UBLOODCASTLE_REWARD@@PAX@std@@@std@@@std@@QAE@AAV?$allocator@U?$_List_node@UBLOODCASTLE_REWARD@@PAX@std@@@1@ABUBLOODCASTLE_REWARD@@@Z
  0000a	64 a1 00 00 00
	00		 mov	 eax, DWORD PTR fs:0
  00010	50		 push	 eax
  00011	83 ec 44	 sub	 esp, 68			; 00000044H
  00014	53		 push	 ebx
  00015	56		 push	 esi
  00016	57		 push	 edi
  00017	a1 00 00 00 00	 mov	 eax, DWORD PTR ___security_cookie
  0001c	33 c5		 xor	 eax, ebp
  0001e	50		 push	 eax
  0001f	8d 45 f4	 lea	 eax, DWORD PTR __$EHRec$[ebp]
  00022	64 a3 00 00 00
	00		 mov	 DWORD PTR fs:0, eax
  00028	89 4d f0	 mov	 DWORD PTR _this$[ebp], ecx
  0002b	8b 45 08	 mov	 eax, DWORD PTR __Al_$[ebp]
  0002e	50		 push	 eax
  0002f	8b 4d f0	 mov	 ecx, DWORD PTR _this$[ebp]
  00032	e8 00 00 00 00	 call	 ??0?$_Alloc_construct_ptr@V?$allocator@U?$_List_node@UBLOODCASTLE_REWARD@@PAX@std@@@std@@@std@@QAE@AAV?$allocator@U?$_List_node@UBLOODCASTLE_REWARD@@PAX@std@@@1@@Z ; std::_Alloc_construct_ptr<std::allocator<std::_List_node<BLOODCASTLE_REWARD,void *> > >::_Alloc_construct_ptr<std::allocator<std::_List_node<BLOODCASTLE_REWARD,void *> > >
  00037	c7 45 fc 00 00
	00 00		 mov	 DWORD PTR __$EHRec$[ebp+8], 0

; 586  :         this->_Allocate();

  0003e	8b 4d f0	 mov	 ecx, DWORD PTR _this$[ebp]
  00041	e8 00 00 00 00	 call	 ?_Allocate@?$_Alloc_construct_ptr@V?$allocator@U?$_List_node@UBLOODCASTLE_REWARD@@PAX@std@@@std@@@std@@QAEXXZ ; std::_Alloc_construct_ptr<std::allocator<std::_List_node<BLOODCASTLE_REWARD,void *> > >::_Allocate

; 587  :         _Alnode_traits::construct(this->_Al, _STD addressof(this->_Ptr->_Myval), _STD forward<_Valtys>(_Vals)...);

  00046	8b 45 0c	 mov	 eax, DWORD PTR _<_Vals_0>$[ebp]
  00049	50		 push	 eax
  0004a	e8 00 00 00 00	 call	 ??$forward@ABUBLOODCASTLE_REWARD@@@std@@YAABUBLOODCASTLE_REWARD@@ABU1@@Z ; std::forward<BLOODCASTLE_REWARD const &>
  0004f	83 c4 04	 add	 esp, 4
  00052	50		 push	 eax
  00053	8b 4d f0	 mov	 ecx, DWORD PTR _this$[ebp]
  00056	8b 51 04	 mov	 edx, DWORD PTR [ecx+4]
  00059	83 c2 08	 add	 edx, 8
  0005c	52		 push	 edx
  0005d	e8 00 00 00 00	 call	 ??$addressof@UBLOODCASTLE_REWARD@@@std@@YAPAUBLOODCASTLE_REWARD@@AAU1@@Z ; std::addressof<BLOODCASTLE_REWARD>
  00062	83 c4 04	 add	 esp, 4
  00065	50		 push	 eax
  00066	8b 45 f0	 mov	 eax, DWORD PTR _this$[ebp]
  00069	8b 08		 mov	 ecx, DWORD PTR [eax]
  0006b	51		 push	 ecx
  0006c	e8 00 00 00 00	 call	 ??$construct@UBLOODCASTLE_REWARD@@ABU1@@?$_Default_allocator_traits@V?$allocator@U?$_List_node@UBLOODCASTLE_REWARD@@PAX@std@@@std@@@std@@SAXAAV?$allocator@U?$_List_node@UBLOODCASTLE_REWARD@@PAX@std@@@1@QAUBLOODCASTLE_REWARD@@ABU3@@Z ; std::_Default_allocator_traits<std::allocator<std::_List_node<BLOODCASTLE_REWARD,void *> > >::construct<BLOODCASTLE_REWARD,BLOODCASTLE_REWARD const &>
  00071	83 c4 0c	 add	 esp, 12			; 0000000cH

; 588  :     }

  00074	c7 45 fc ff ff
	ff ff		 mov	 DWORD PTR __$EHRec$[ebp+8], -1
  0007b	8b 45 f0	 mov	 eax, DWORD PTR _this$[ebp]
  0007e	8b 4d f4	 mov	 ecx, DWORD PTR __$EHRec$[ebp]
  00081	64 89 0d 00 00
	00 00		 mov	 DWORD PTR fs:0, ecx
  00088	59		 pop	 ecx
  00089	5f		 pop	 edi
  0008a	5e		 pop	 esi
  0008b	5b		 pop	 ebx
  0008c	8b e5		 mov	 esp, ebp
  0008e	5d		 pop	 ebp
  0008f	c2 08 00	 ret	 8
_TEXT	ENDS
;	COMDAT text$x
text$x	SEGMENT
__unwindfunclet$??$?0ABUBLOODCASTLE_REWARD@@@?$_List_node_emplace_op2@V?$allocator@U?$_List_node@UBLOODCASTLE_REWARD@@PAX@std@@@std@@@std@@QAE@AAV?$allocator@U?$_List_node@UBLOODCASTLE_REWARD@@PAX@std@@@1@ABUBLOODCASTLE_REWARD@@@Z$0:
  00000	8b 4d f0	 mov	 ecx, DWORD PTR _this$[ebp]
  00003	e9 00 00 00 00	 jmp	 ??1?$_Alloc_construct_ptr@V?$allocator@U?$_List_node@UBLOODCASTLE_REWARD@@PAX@std@@@std@@@std@@QAE@XZ ; std::_Alloc_construct_ptr<std::allocator<std::_List_node<BLOODCASTLE_REWARD,void *> > >::~_Alloc_construct_ptr<std::allocator<std::_List_node<BLOODCASTLE_REWARD,void *> > >
  00008	cc		 int	 3
  00009	cc		 int	 3
  0000a	cc		 int	 3
  0000b	cc		 int	 3
  0000c	cc		 int	 3
__ehhandler$??$?0ABUBLOODCASTLE_REWARD@@@?$_List_node_emplace_op2@V?$allocator@U?$_List_node@UBLOODCASTLE_REWARD@@PAX@std@@@std@@@std@@QAE@AAV?$allocator@U?$_List_node@UBLOODCASTLE_REWARD@@PAX@std@@@1@ABUBLOODCASTLE_REWARD@@@Z:
  0000d	90		 npad	 1
  0000e	90		 npad	 1
  0000f	8b 54 24 08	 mov	 edx, DWORD PTR [esp+8]
  00013	8d 42 0c	 lea	 eax, DWORD PTR [edx+12]
  00016	8b 4a ac	 mov	 ecx, DWORD PTR [edx-84]
  00019	33 c8		 xor	 ecx, eax
  0001b	e8 00 00 00 00	 call	 @__security_check_cookie@4
  00020	b8 00 00 00 00	 mov	 eax, OFFSET __ehfuncinfo$??$?0ABUBLOODCASTLE_REWARD@@@?$_List_node_emplace_op2@V?$allocator@U?$_List_node@UBLOODCASTLE_REWARD@@PAX@std@@@std@@@std@@QAE@AAV?$allocator@U?$_List_node@UBLOODCASTLE_REWARD@@PAX@std@@@1@ABUBLOODCASTLE_REWARD@@@Z
  00025	e9 00 00 00 00	 jmp	 ___CxxFrameHandler3
text$x	ENDS
??$?0ABUBLOODCASTLE_REWARD@@@?$_List_node_emplace_op2@V?$allocator@U?$_List_node@UBLOODCASTLE_REWARD@@PAX@std@@@std@@@std@@QAE@AAV?$allocator@U?$_List_node@UBLOODCASTLE_REWARD@@PAX@std@@@1@ABUBLOODCASTLE_REWARD@@@Z ENDP ; std::_List_node_emplace_op2<std::allocator<std::_List_node<BLOODCASTLE_REWARD,void *> > >::_List_node_emplace_op2<std::allocator<std::_List_node<BLOODCASTLE_REWARD,void *> > ><BLOODCASTLE_REWARD const &>
; Function compile flags: /Odtp /ZI
; File C:\Program Files (x86)\Microsoft Visual Studio\2019\Community\VC\Tools\MSVC\14.27.29110\include\type_traits
;	COMDAT ??$forward@ABUBLOODCASTLE_REWARD@@@std@@YAABUBLOODCASTLE_REWARD@@ABU1@@Z
_TEXT	SEGMENT
__Arg$ = 8						; size = 4
??$forward@ABUBLOODCASTLE_REWARD@@@std@@YAABUBLOODCASTLE_REWARD@@ABU1@@Z PROC ; std::forward<BLOODCASTLE_REWARD const &>, COMDAT

; 1454 :     remove_reference_t<_Ty>& _Arg) noexcept { // forward an lvalue as either an lvalue or an rvalue

  00000	55		 push	 ebp
  00001	8b ec		 mov	 ebp, esp
  00003	83 ec 40	 sub	 esp, 64			; 00000040H
  00006	53		 push	 ebx
  00007	56		 push	 esi
  00008	57		 push	 edi

; 1455 :     return static_cast<_Ty&&>(_Arg);

  00009	8b 45 08	 mov	 eax, DWORD PTR __Arg$[ebp]

; 1456 : }

  0000c	5f		 pop	 edi
  0000d	5e		 pop	 esi
  0000e	5b		 pop	 ebx
  0000f	8b e5		 mov	 esp, ebp
  00011	5d		 pop	 ebp
  00012	c3		 ret	 0
??$forward@ABUBLOODCASTLE_REWARD@@@std@@YAABUBLOODCASTLE_REWARD@@ABU1@@Z ENDP ; std::forward<BLOODCASTLE_REWARD const &>
_TEXT	ENDS
; Function compile flags: /Odtp /ZI
; File C:\Program Files (x86)\Microsoft Visual Studio\2019\Community\VC\Tools\MSVC\14.27.29110\include\list
;	COMDAT ?_Transfer_before@?$_List_node_emplace_op2@V?$allocator@U?$_List_node@UBLOODCASTLE_REWARD@@PAX@std@@@std@@@std@@QAEPAU?$_List_node@UBLOODCASTLE_REWARD@@PAX@2@QAU32@@Z
_TEXT	SEGMENT
__Result$ = -12						; size = 4
__Insert_after$ = -8					; size = 4
_this$ = -4						; size = 4
__Insert_before$ = 8					; size = 4
?_Transfer_before@?$_List_node_emplace_op2@V?$allocator@U?$_List_node@UBLOODCASTLE_REWARD@@PAX@std@@@std@@@std@@QAEPAU?$_List_node@UBLOODCASTLE_REWARD@@PAX@2@QAU32@@Z PROC ; std::_List_node_emplace_op2<std::allocator<std::_List_node<BLOODCASTLE_REWARD,void *> > >::_Transfer_before, COMDAT
; _this$ = ecx

; 599  :     pointer _Transfer_before(const pointer _Insert_before) noexcept {

  00000	55		 push	 ebp
  00001	8b ec		 mov	 ebp, esp
  00003	83 ec 4c	 sub	 esp, 76			; 0000004cH
  00006	53		 push	 ebx
  00007	56		 push	 esi
  00008	57		 push	 edi
  00009	89 4d fc	 mov	 DWORD PTR _this$[ebp], ecx

; 600  :         const pointer _Insert_after = _Insert_before->_Prev;

  0000c	8b 45 08	 mov	 eax, DWORD PTR __Insert_before$[ebp]
  0000f	8b 48 04	 mov	 ecx, DWORD PTR [eax+4]
  00012	89 4d f8	 mov	 DWORD PTR __Insert_after$[ebp], ecx

; 601  :         _Construct_in_place(this->_Ptr->_Next, _Insert_before);

  00015	8d 45 08	 lea	 eax, DWORD PTR __Insert_before$[ebp]
  00018	50		 push	 eax
  00019	8b 4d fc	 mov	 ecx, DWORD PTR _this$[ebp]
  0001c	8b 51 04	 mov	 edx, DWORD PTR [ecx+4]
  0001f	52		 push	 edx
  00020	e8 00 00 00 00	 call	 ??$_Construct_in_place@PAU?$_List_node@UBLOODCASTLE_REWARD@@PAX@std@@ABQAU12@@std@@YAXAAPAU?$_List_node@UBLOODCASTLE_REWARD@@PAX@0@ABQAU10@@Z ; std::_Construct_in_place<std::_List_node<BLOODCASTLE_REWARD,void *> *,std::_List_node<BLOODCASTLE_REWARD,void *> * const &>
  00025	83 c4 08	 add	 esp, 8

; 602  :         _Construct_in_place(this->_Ptr->_Prev, _Insert_after);

  00028	8d 45 f8	 lea	 eax, DWORD PTR __Insert_after$[ebp]
  0002b	50		 push	 eax
  0002c	8b 4d fc	 mov	 ecx, DWORD PTR _this$[ebp]
  0002f	8b 51 04	 mov	 edx, DWORD PTR [ecx+4]
  00032	83 c2 04	 add	 edx, 4
  00035	52		 push	 edx
  00036	e8 00 00 00 00	 call	 ??$_Construct_in_place@PAU?$_List_node@UBLOODCASTLE_REWARD@@PAX@std@@ABQAU12@@std@@YAXAAPAU?$_List_node@UBLOODCASTLE_REWARD@@PAX@0@ABQAU10@@Z ; std::_Construct_in_place<std::_List_node<BLOODCASTLE_REWARD,void *> *,std::_List_node<BLOODCASTLE_REWARD,void *> * const &>
  0003b	83 c4 08	 add	 esp, 8

; 603  :         const auto _Result    = this->_Ptr;

  0003e	8b 45 fc	 mov	 eax, DWORD PTR _this$[ebp]
  00041	8b 48 04	 mov	 ecx, DWORD PTR [eax+4]
  00044	89 4d f4	 mov	 DWORD PTR __Result$[ebp], ecx

; 604  :         this->_Ptr            = pointer{};

  00047	8b 45 fc	 mov	 eax, DWORD PTR _this$[ebp]
  0004a	c7 40 04 00 00
	00 00		 mov	 DWORD PTR [eax+4], 0

; 605  :         _Insert_before->_Prev = _Result;

  00051	8b 45 08	 mov	 eax, DWORD PTR __Insert_before$[ebp]
  00054	8b 4d f4	 mov	 ecx, DWORD PTR __Result$[ebp]
  00057	89 48 04	 mov	 DWORD PTR [eax+4], ecx

; 606  :         _Insert_after->_Next  = _Result;

  0005a	8b 45 f8	 mov	 eax, DWORD PTR __Insert_after$[ebp]
  0005d	8b 4d f4	 mov	 ecx, DWORD PTR __Result$[ebp]
  00060	89 08		 mov	 DWORD PTR [eax], ecx

; 607  :         return _Result;

  00062	8b 45 f4	 mov	 eax, DWORD PTR __Result$[ebp]

; 608  :     }

  00065	5f		 pop	 edi
  00066	5e		 pop	 esi
  00067	5b		 pop	 ebx
  00068	8b e5		 mov	 esp, ebp
  0006a	5d		 pop	 ebp
  0006b	c2 04 00	 ret	 4
?_Transfer_before@?$_List_node_emplace_op2@V?$allocator@U?$_List_node@UBLOODCASTLE_REWARD@@PAX@std@@@std@@@std@@QAEPAU?$_List_node@UBLOODCASTLE_REWARD@@PAX@2@QAU32@@Z ENDP ; std::_List_node_emplace_op2<std::allocator<std::_List_node<BLOODCASTLE_REWARD,void *> > >::_Transfer_before
_TEXT	ENDS
; Function compile flags: /Odtp /ZI
; File C:\Program Files (x86)\Microsoft Visual Studio\2019\Community\VC\Tools\MSVC\14.27.29110\include\list
;	COMDAT ??1?$_List_node_emplace_op2@V?$allocator@U?$_List_node@UBLOODCASTLE_REWARD@@PAX@std@@@std@@@std@@QAE@XZ
_TEXT	SEGMENT
_this$ = -16						; size = 4
__$EHRec$ = -12						; size = 12
??1?$_List_node_emplace_op2@V?$allocator@U?$_List_node@UBLOODCASTLE_REWARD@@PAX@std@@@std@@@std@@QAE@XZ PROC ; std::_List_node_emplace_op2<std::allocator<std::_List_node<BLOODCASTLE_REWARD,void *> > >::~_List_node_emplace_op2<std::allocator<std::_List_node<BLOODCASTLE_REWARD,void *> > >, COMDAT
; _this$ = ecx

; 590  :     ~_List_node_emplace_op2() {

  00000	55		 push	 ebp
  00001	8b ec		 mov	 ebp, esp
  00003	6a ff		 push	 -1
  00005	68 00 00 00 00	 push	 __ehhandler$??1?$_List_node_emplace_op2@V?$allocator@U?$_List_node@UBLOODCASTLE_REWARD@@PAX@std@@@std@@@std@@QAE@XZ
  0000a	64 a1 00 00 00
	00		 mov	 eax, DWORD PTR fs:0
  00010	50		 push	 eax
  00011	83 ec 44	 sub	 esp, 68			; 00000044H
  00014	53		 push	 ebx
  00015	56		 push	 esi
  00016	57		 push	 edi
  00017	a1 00 00 00 00	 mov	 eax, DWORD PTR ___security_cookie
  0001c	33 c5		 xor	 eax, ebp
  0001e	50		 push	 eax
  0001f	8d 45 f4	 lea	 eax, DWORD PTR __$EHRec$[ebp]
  00022	64 a3 00 00 00
	00		 mov	 DWORD PTR fs:0, eax
  00028	89 4d f0	 mov	 DWORD PTR _this$[ebp], ecx

; 591  :         if (this->_Ptr != pointer{}) {

  0002b	8b 45 f0	 mov	 eax, DWORD PTR _this$[ebp]
  0002e	83 78 04 00	 cmp	 DWORD PTR [eax+4], 0
  00032	74 21		 je	 SHORT $LN1@List_node_

; 592  :             _Alnode_traits::destroy(this->_Al, _STD addressof(this->_Ptr->_Myval));

  00034	8b 45 f0	 mov	 eax, DWORD PTR _this$[ebp]
  00037	8b 48 04	 mov	 ecx, DWORD PTR [eax+4]
  0003a	83 c1 08	 add	 ecx, 8
  0003d	51		 push	 ecx
  0003e	e8 00 00 00 00	 call	 ??$addressof@UBLOODCASTLE_REWARD@@@std@@YAPAUBLOODCASTLE_REWARD@@AAU1@@Z ; std::addressof<BLOODCASTLE_REWARD>
  00043	83 c4 04	 add	 esp, 4
  00046	50		 push	 eax
  00047	8b 55 f0	 mov	 edx, DWORD PTR _this$[ebp]
  0004a	8b 02		 mov	 eax, DWORD PTR [edx]
  0004c	50		 push	 eax
  0004d	e8 00 00 00 00	 call	 ??$destroy@UBLOODCASTLE_REWARD@@@?$_Default_allocator_traits@V?$allocator@U?$_List_node@UBLOODCASTLE_REWARD@@PAX@std@@@std@@@std@@SAXAAV?$allocator@U?$_List_node@UBLOODCASTLE_REWARD@@PAX@std@@@1@QAUBLOODCASTLE_REWARD@@@Z ; std::_Default_allocator_traits<std::allocator<std::_List_node<BLOODCASTLE_REWARD,void *> > >::destroy<BLOODCASTLE_REWARD>
  00052	83 c4 08	 add	 esp, 8
$LN1@List_node_:

; 593  :         }
; 594  :     }

  00055	8b 4d f0	 mov	 ecx, DWORD PTR _this$[ebp]
  00058	e8 00 00 00 00	 call	 ??1?$_Alloc_construct_ptr@V?$allocator@U?$_List_node@UBLOODCASTLE_REWARD@@PAX@std@@@std@@@std@@QAE@XZ ; std::_Alloc_construct_ptr<std::allocator<std::_List_node<BLOODCASTLE_REWARD,void *> > >::~_Alloc_construct_ptr<std::allocator<std::_List_node<BLOODCASTLE_REWARD,void *> > >
  0005d	8b 4d f4	 mov	 ecx, DWORD PTR __$EHRec$[ebp]
  00060	64 89 0d 00 00
	00 00		 mov	 DWORD PTR fs:0, ecx
  00067	59		 pop	 ecx
  00068	5f		 pop	 edi
  00069	5e		 pop	 esi
  0006a	5b		 pop	 ebx
  0006b	8b e5		 mov	 esp, ebp
  0006d	5d		 pop	 ebp
  0006e	c3		 ret	 0
  0006f	cc		 int	 3
  00070	cc		 int	 3
  00071	cc		 int	 3
  00072	cc		 int	 3
  00073	cc		 int	 3
_TEXT	ENDS
;	COMDAT text$x
text$x	SEGMENT
__ehhandler$??1?$_List_node_emplace_op2@V?$allocator@U?$_List_node@UBLOODCASTLE_REWARD@@PAX@std@@@std@@@std@@QAE@XZ:
  00000	90		 npad	 1
  00001	90		 npad	 1
  00002	8b 54 24 08	 mov	 edx, DWORD PTR [esp+8]
  00006	8d 42 0c	 lea	 eax, DWORD PTR [edx+12]
  00009	8b 4a ac	 mov	 ecx, DWORD PTR [edx-84]
  0000c	33 c8		 xor	 ecx, eax
  0000e	e8 00 00 00 00	 call	 @__security_check_cookie@4
  00013	b8 00 00 00 00	 mov	 eax, OFFSET __ehfuncinfo$??1?$_List_node_emplace_op2@V?$allocator@U?$_List_node@UBLOODCASTLE_REWARD@@PAX@std@@@std@@@std@@QAE@XZ
  00018	e9 00 00 00 00	 jmp	 ___CxxFrameHandler3
text$x	ENDS
??1?$_List_node_emplace_op2@V?$allocator@U?$_List_node@UBLOODCASTLE_REWARD@@PAX@std@@@std@@@std@@QAE@XZ ENDP ; std::_List_node_emplace_op2<std::allocator<std::_List_node<BLOODCASTLE_REWARD,void *> > >::~_List_node_emplace_op2<std::allocator<std::_List_node<BLOODCASTLE_REWARD,void *> > >
; Function compile flags: /Odtp /ZI
; File C:\Program Files (x86)\Microsoft Visual Studio\2019\Community\VC\Tools\MSVC\14.27.29110\include\xmemory
;	COMDAT ??1?$_Alloc_construct_ptr@V?$allocator@U?$_List_node@UBLOODCASTLE_REWARD@@PAX@std@@@std@@@std@@QAE@XZ
_TEXT	SEGMENT
_this$ = -16						; size = 4
__$EHRec$ = -12						; size = 12
??1?$_Alloc_construct_ptr@V?$allocator@U?$_List_node@UBLOODCASTLE_REWARD@@PAX@std@@@std@@@std@@QAE@XZ PROC ; std::_Alloc_construct_ptr<std::allocator<std::_List_node<BLOODCASTLE_REWARD,void *> > >::~_Alloc_construct_ptr<std::allocator<std::_List_node<BLOODCASTLE_REWARD,void *> > >, COMDAT
; _this$ = ecx

; 1051 :     ~_Alloc_construct_ptr() { // if this instance is engaged, deallocate storage

  00000	55		 push	 ebp
  00001	8b ec		 mov	 ebp, esp
  00003	6a ff		 push	 -1
  00005	68 00 00 00 00	 push	 __ehhandler$??1?$_Alloc_construct_ptr@V?$allocator@U?$_List_node@UBLOODCASTLE_REWARD@@PAX@std@@@std@@@std@@QAE@XZ
  0000a	64 a1 00 00 00
	00		 mov	 eax, DWORD PTR fs:0
  00010	50		 push	 eax
  00011	83 ec 44	 sub	 esp, 68			; 00000044H
  00014	53		 push	 ebx
  00015	56		 push	 esi
  00016	57		 push	 edi
  00017	a1 00 00 00 00	 mov	 eax, DWORD PTR ___security_cookie
  0001c	33 c5		 xor	 eax, ebp
  0001e	50		 push	 eax
  0001f	8d 45 f4	 lea	 eax, DWORD PTR __$EHRec$[ebp]
  00022	64 a3 00 00 00
	00		 mov	 DWORD PTR fs:0, eax
  00028	89 4d f0	 mov	 DWORD PTR _this$[ebp], ecx

; 1052 :         if (_Ptr) {

  0002b	8b 45 f0	 mov	 eax, DWORD PTR _this$[ebp]
  0002e	83 78 04 00	 cmp	 DWORD PTR [eax+4], 0
  00032	74 13		 je	 SHORT $LN3@Alloc_cons

; 1053 :             _Al.deallocate(_Ptr, 1);

  00034	6a 01		 push	 1
  00036	8b 45 f0	 mov	 eax, DWORD PTR _this$[ebp]
  00039	8b 48 04	 mov	 ecx, DWORD PTR [eax+4]
  0003c	51		 push	 ecx
  0003d	8b 55 f0	 mov	 edx, DWORD PTR _this$[ebp]
  00040	8b 0a		 mov	 ecx, DWORD PTR [edx]
  00042	e8 00 00 00 00	 call	 ?deallocate@?$allocator@U?$_List_node@UBLOODCASTLE_REWARD@@PAX@std@@@std@@QAEXQAU?$_List_node@UBLOODCASTLE_REWARD@@PAX@2@I@Z ; std::allocator<std::_List_node<BLOODCASTLE_REWARD,void *> >::deallocate
$LN3@Alloc_cons:

; 1054 :         }
; 1055 :     }

  00047	8b 4d f4	 mov	 ecx, DWORD PTR __$EHRec$[ebp]
  0004a	64 89 0d 00 00
	00 00		 mov	 DWORD PTR fs:0, ecx
  00051	59		 pop	 ecx
  00052	5f		 pop	 edi
  00053	5e		 pop	 esi
  00054	5b		 pop	 ebx
  00055	8b e5		 mov	 esp, ebp
  00057	5d		 pop	 ebp
  00058	c3		 ret	 0
  00059	cc		 int	 3
  0005a	cc		 int	 3
  0005b	cc		 int	 3
  0005c	cc		 int	 3
  0005d	cc		 int	 3
_TEXT	ENDS
;	COMDAT text$x
text$x	SEGMENT
__ehhandler$??1?$_Alloc_construct_ptr@V?$allocator@U?$_List_node@UBLOODCASTLE_REWARD@@PAX@std@@@std@@@std@@QAE@XZ:
  00000	90		 npad	 1
  00001	90		 npad	 1
  00002	8b 54 24 08	 mov	 edx, DWORD PTR [esp+8]
  00006	8d 42 0c	 lea	 eax, DWORD PTR [edx+12]
  00009	8b 4a ac	 mov	 ecx, DWORD PTR [edx-84]
  0000c	33 c8		 xor	 ecx, eax
  0000e	e8 00 00 00 00	 call	 @__security_check_cookie@4
  00013	b8 00 00 00 00	 mov	 eax, OFFSET __ehfuncinfo$??1?$_Alloc_construct_ptr@V?$allocator@U?$_List_node@UBLOODCASTLE_REWARD@@PAX@std@@@std@@@std@@QAE@XZ
  00018	e9 00 00 00 00	 jmp	 ___CxxFrameHandler3
text$x	ENDS
??1?$_Alloc_construct_ptr@V?$allocator@U?$_List_node@UBLOODCASTLE_REWARD@@PAX@std@@@std@@@std@@QAE@XZ ENDP ; std::_Alloc_construct_ptr<std::allocator<std::_List_node<BLOODCASTLE_REWARD,void *> > >::~_Alloc_construct_ptr<std::allocator<std::_List_node<BLOODCASTLE_REWARD,void *> > >
; Function compile flags: /Odtp /ZI
; File C:\Program Files (x86)\Microsoft Visual Studio\2019\Community\VC\Tools\MSVC\14.27.29110\include\xmemory
;	COMDAT ?_Allocate@?$_Alloc_construct_ptr@V?$allocator@U?$_List_node@UBLOODCASTLE_REWARD@@PAX@std@@@std@@@std@@QAEXXZ
_TEXT	SEGMENT
_this$ = -4						; size = 4
?_Allocate@?$_Alloc_construct_ptr@V?$allocator@U?$_List_node@UBLOODCASTLE_REWARD@@PAX@std@@@std@@@std@@QAEXXZ PROC ; std::_Alloc_construct_ptr<std::allocator<std::_List_node<BLOODCASTLE_REWARD,void *> > >::_Allocate, COMDAT
; _this$ = ecx

; 1046 :     void _Allocate() { // disengage *this, then allocate a new memory block

  00000	55		 push	 ebp
  00001	8b ec		 mov	 ebp, esp
  00003	83 ec 44	 sub	 esp, 68			; 00000044H
  00006	53		 push	 ebx
  00007	56		 push	 esi
  00008	57		 push	 edi
  00009	89 4d fc	 mov	 DWORD PTR _this$[ebp], ecx

; 1047 :         _Ptr = nullptr; // if allocate throws, prevents double-free

  0000c	8b 45 fc	 mov	 eax, DWORD PTR _this$[ebp]
  0000f	c7 40 04 00 00
	00 00		 mov	 DWORD PTR [eax+4], 0

; 1048 :         _Ptr = _Al.allocate(1);

  00016	6a 01		 push	 1
  00018	8b 45 fc	 mov	 eax, DWORD PTR _this$[ebp]
  0001b	8b 08		 mov	 ecx, DWORD PTR [eax]
  0001d	e8 00 00 00 00	 call	 ?allocate@?$allocator@U?$_List_node@UBLOODCASTLE_REWARD@@PAX@std@@@std@@QAEPAU?$_List_node@UBLOODCASTLE_REWARD@@PAX@2@I@Z ; std::allocator<std::_List_node<BLOODCASTLE_REWARD,void *> >::allocate
  00022	8b 4d fc	 mov	 ecx, DWORD PTR _this$[ebp]
  00025	89 41 04	 mov	 DWORD PTR [ecx+4], eax

; 1049 :     }

  00028	5f		 pop	 edi
  00029	5e		 pop	 esi
  0002a	5b		 pop	 ebx
  0002b	8b e5		 mov	 esp, ebp
  0002d	5d		 pop	 ebp
  0002e	c3		 ret	 0
?_Allocate@?$_Alloc_construct_ptr@V?$allocator@U?$_List_node@UBLOODCASTLE_REWARD@@PAX@std@@@std@@@std@@QAEXXZ ENDP ; std::_Alloc_construct_ptr<std::allocator<std::_List_node<BLOODCASTLE_REWARD,void *> > >::_Allocate
_TEXT	ENDS
; Function compile flags: /Odtp /ZI
; File C:\Program Files (x86)\Microsoft Visual Studio\2019\Community\VC\Tools\MSVC\14.27.29110\include\xmemory
;	COMDAT ??0?$_Alloc_construct_ptr@V?$allocator@U?$_List_node@UBLOODCASTLE_REWARD@@PAX@std@@@std@@@std@@QAE@AAV?$allocator@U?$_List_node@UBLOODCASTLE_REWARD@@PAX@std@@@1@@Z
_TEXT	SEGMENT
_this$ = -4						; size = 4
__Al_$ = 8						; size = 4
??0?$_Alloc_construct_ptr@V?$allocator@U?$_List_node@UBLOODCASTLE_REWARD@@PAX@std@@@std@@@std@@QAE@AAV?$allocator@U?$_List_node@UBLOODCASTLE_REWARD@@PAX@std@@@1@@Z PROC ; std::_Alloc_construct_ptr<std::allocator<std::_List_node<BLOODCASTLE_REWARD,void *> > >::_Alloc_construct_ptr<std::allocator<std::_List_node<BLOODCASTLE_REWARD,void *> > >, COMDAT
; _this$ = ecx

; 1040 :     explicit _Alloc_construct_ptr(_Alloc& _Al_) : _Al(_Al_), _Ptr(nullptr) {}

  00000	55		 push	 ebp
  00001	8b ec		 mov	 ebp, esp
  00003	83 ec 44	 sub	 esp, 68			; 00000044H
  00006	53		 push	 ebx
  00007	56		 push	 esi
  00008	57		 push	 edi
  00009	89 4d fc	 mov	 DWORD PTR _this$[ebp], ecx
  0000c	8b 45 fc	 mov	 eax, DWORD PTR _this$[ebp]
  0000f	8b 4d 08	 mov	 ecx, DWORD PTR __Al_$[ebp]
  00012	89 08		 mov	 DWORD PTR [eax], ecx
  00014	8b 45 fc	 mov	 eax, DWORD PTR _this$[ebp]
  00017	c7 40 04 00 00
	00 00		 mov	 DWORD PTR [eax+4], 0
  0001e	8b 45 fc	 mov	 eax, DWORD PTR _this$[ebp]
  00021	5f		 pop	 edi
  00022	5e		 pop	 esi
  00023	5b		 pop	 ebx
  00024	8b e5		 mov	 esp, ebp
  00026	5d		 pop	 ebp
  00027	c2 04 00	 ret	 4
??0?$_Alloc_construct_ptr@V?$allocator@U?$_List_node@UBLOODCASTLE_REWARD@@PAX@std@@@std@@@std@@QAE@AAV?$allocator@U?$_List_node@UBLOODCASTLE_REWARD@@PAX@std@@@1@@Z ENDP ; std::_Alloc_construct_ptr<std::allocator<std::_List_node<BLOODCASTLE_REWARD,void *> > >::_Alloc_construct_ptr<std::allocator<std::_List_node<BLOODCASTLE_REWARD,void *> > >
_TEXT	ENDS
; Function compile flags: /Odtp /ZI
; File C:\Program Files (x86)\Microsoft Visual Studio\2019\Community\VC\Tools\MSVC\14.27.29110\include\list
;	COMDAT ??$_Freenode@V?$allocator@U?$_List_node@UBLOODCASTLE_REWARD@@PAX@std@@@std@@@?$_List_node@UBLOODCASTLE_REWARD@@PAX@std@@SAXAAV?$allocator@U?$_List_node@UBLOODCASTLE_REWARD@@PAX@std@@@1@PAU01@@Z
_TEXT	SEGMENT
__$EHRec$ = -12						; size = 12
__Al$ = 8						; size = 4
__Ptr$ = 12						; size = 4
??$_Freenode@V?$allocator@U?$_List_node@UBLOODCASTLE_REWARD@@PAX@std@@@std@@@?$_List_node@UBLOODCASTLE_REWARD@@PAX@std@@SAXAAV?$allocator@U?$_List_node@UBLOODCASTLE_REWARD@@PAX@std@@@1@PAU01@@Z PROC ; std::_List_node<BLOODCASTLE_REWARD,void *>::_Freenode<std::allocator<std::_List_node<BLOODCASTLE_REWARD,void *> > >, COMDAT

; 316  :     static void _Freenode(_Alnode& _Al, _Nodeptr _Ptr) noexcept { // destroy all members in _Ptr and deallocate with _Al

  00000	55		 push	 ebp
  00001	8b ec		 mov	 ebp, esp
  00003	6a ff		 push	 -1
  00005	68 00 00 00 00	 push	 __ehhandler$??$_Freenode@V?$allocator@U?$_List_node@UBLOODCASTLE_REWARD@@PAX@std@@@std@@@?$_List_node@UBLOODCASTLE_REWARD@@PAX@std@@SAXAAV?$allocator@U?$_List_node@UBLOODCASTLE_REWARD@@PAX@std@@@1@PAU01@@Z
  0000a	64 a1 00 00 00
	00		 mov	 eax, DWORD PTR fs:0
  00010	50		 push	 eax
  00011	83 ec 40	 sub	 esp, 64			; 00000040H
  00014	53		 push	 ebx
  00015	56		 push	 esi
  00016	57		 push	 edi
  00017	a1 00 00 00 00	 mov	 eax, DWORD PTR ___security_cookie
  0001c	33 c5		 xor	 eax, ebp
  0001e	50		 push	 eax
  0001f	8d 45 f4	 lea	 eax, DWORD PTR __$EHRec$[ebp]
  00022	64 a3 00 00 00
	00		 mov	 DWORD PTR fs:0, eax

; 317  :         allocator_traits<_Alnode>::destroy(_Al, _STD addressof(_Ptr->_Myval));

  00028	8b 45 0c	 mov	 eax, DWORD PTR __Ptr$[ebp]
  0002b	83 c0 08	 add	 eax, 8
  0002e	50		 push	 eax
  0002f	e8 00 00 00 00	 call	 ??$addressof@UBLOODCASTLE_REWARD@@@std@@YAPAUBLOODCASTLE_REWARD@@AAU1@@Z ; std::addressof<BLOODCASTLE_REWARD>
  00034	83 c4 04	 add	 esp, 4
  00037	50		 push	 eax
  00038	8b 4d 08	 mov	 ecx, DWORD PTR __Al$[ebp]
  0003b	51		 push	 ecx
  0003c	e8 00 00 00 00	 call	 ??$destroy@UBLOODCASTLE_REWARD@@@?$_Default_allocator_traits@V?$allocator@U?$_List_node@UBLOODCASTLE_REWARD@@PAX@std@@@std@@@std@@SAXAAV?$allocator@U?$_List_node@UBLOODCASTLE_REWARD@@PAX@std@@@1@QAUBLOODCASTLE_REWARD@@@Z ; std::_Default_allocator_traits<std::allocator<std::_List_node<BLOODCASTLE_REWARD,void *> > >::destroy<BLOODCASTLE_REWARD>
  00041	83 c4 08	 add	 esp, 8

; 318  :         _Freenode0(_Al, _Ptr);

  00044	8b 45 0c	 mov	 eax, DWORD PTR __Ptr$[ebp]
  00047	50		 push	 eax
  00048	8b 4d 08	 mov	 ecx, DWORD PTR __Al$[ebp]
  0004b	51		 push	 ecx
  0004c	e8 00 00 00 00	 call	 ??$_Freenode0@V?$allocator@U?$_List_node@UBLOODCASTLE_REWARD@@PAX@std@@@std@@@?$_List_node@UBLOODCASTLE_REWARD@@PAX@std@@SAXAAV?$allocator@U?$_List_node@UBLOODCASTLE_REWARD@@PAX@std@@@1@PAU01@@Z ; std::_List_node<BLOODCASTLE_REWARD,void *>::_Freenode0<std::allocator<std::_List_node<BLOODCASTLE_REWARD,void *> > >
  00051	83 c4 08	 add	 esp, 8

; 319  :     }

  00054	8b 4d f4	 mov	 ecx, DWORD PTR __$EHRec$[ebp]
  00057	64 89 0d 00 00
	00 00		 mov	 DWORD PTR fs:0, ecx
  0005e	59		 pop	 ecx
  0005f	5f		 pop	 edi
  00060	5e		 pop	 esi
  00061	5b		 pop	 ebx
  00062	8b e5		 mov	 esp, ebp
  00064	5d		 pop	 ebp
  00065	c3		 ret	 0
  00066	cc		 int	 3
  00067	cc		 int	 3
  00068	cc		 int	 3
  00069	cc		 int	 3
  0006a	cc		 int	 3
_TEXT	ENDS
;	COMDAT text$x
text$x	SEGMENT
__ehhandler$??$_Freenode@V?$allocator@U?$_List_node@UBLOODCASTLE_REWARD@@PAX@std@@@std@@@?$_List_node@UBLOODCASTLE_REWARD@@PAX@std@@SAXAAV?$allocator@U?$_List_node@UBLOODCASTLE_REWARD@@PAX@std@@@1@PAU01@@Z:
  00000	90		 npad	 1
  00001	90		 npad	 1
  00002	8b 54 24 08	 mov	 edx, DWORD PTR [esp+8]
  00006	8d 42 0c	 lea	 eax, DWORD PTR [edx+12]
  00009	8b 4a b0	 mov	 ecx, DWORD PTR [edx-80]
  0000c	33 c8		 xor	 ecx, eax
  0000e	e8 00 00 00 00	 call	 @__security_check_cookie@4
  00013	b8 00 00 00 00	 mov	 eax, OFFSET __ehfuncinfo$??$_Freenode@V?$allocator@U?$_List_node@UBLOODCASTLE_REWARD@@PAX@std@@@std@@@?$_List_node@UBLOODCASTLE_REWARD@@PAX@std@@SAXAAV?$allocator@U?$_List_node@UBLOODCASTLE_REWARD@@PAX@std@@@1@PAU01@@Z
  00018	e9 00 00 00 00	 jmp	 ___CxxFrameHandler3
text$x	ENDS
??$_Freenode@V?$allocator@U?$_List_node@UBLOODCASTLE_REWARD@@PAX@std@@@std@@@?$_List_node@UBLOODCASTLE_REWARD@@PAX@std@@SAXAAV?$allocator@U?$_List_node@UBLOODCASTLE_REWARD@@PAX@std@@@1@PAU01@@Z ENDP ; std::_List_node<BLOODCASTLE_REWARD,void *>::_Freenode<std::allocator<std::_List_node<BLOODCASTLE_REWARD,void *> > >
; Function compile flags: /Odtp /ZI
; File C:\Program Files (x86)\Microsoft Visual Studio\2019\Community\VC\Tools\MSVC\14.27.29110\include\xutility
;	COMDAT ??$_Seek_wrapped@V?$_List_iterator@V?$_List_val@U?$_List_simple_types@UBLOODCASTLE_REWARD@@@std@@@std@@@std@@V?$_List_unchecked_iterator@V?$_List_val@U?$_List_simple_types@UBLOODCASTLE_REWARD@@@std@@@std@@@2@@std@@YAXAAV?$_List_iterator@V?$_List_val@U?$_List_simple_types@UBLOODCASTLE_REWARD@@@std@@@std@@@0@$$QAV?$_List_unchecked_iterator@V?$_List_val@U?$_List_simple_types@UBLOODCASTLE_REWARD@@@std@@@std@@@0@@Z
_TEXT	SEGMENT
$T1 = -68						; size = 4
__It$ = 8						; size = 4
__UIt$ = 12						; size = 4
??$_Seek_wrapped@V?$_List_iterator@V?$_List_val@U?$_List_simple_types@UBLOODCASTLE_REWARD@@@std@@@std@@@std@@V?$_List_unchecked_iterator@V?$_List_val@U?$_List_simple_types@UBLOODCASTLE_REWARD@@@std@@@std@@@2@@std@@YAXAAV?$_List_iterator@V?$_List_val@U?$_List_simple_types@UBLOODCASTLE_REWARD@@@std@@@std@@@0@$$QAV?$_List_unchecked_iterator@V?$_List_val@U?$_List_simple_types@UBLOODCASTLE_REWARD@@@std@@@std@@@0@@Z PROC ; std::_Seek_wrapped<std::_List_iterator<std::_List_val<std::_List_simple_types<BLOODCASTLE_REWARD> > >,std::_List_unchecked_iterator<std::_List_val<std::_List_simple_types<BLOODCASTLE_REWARD> > > >, COMDAT

; 1417 : constexpr void _Seek_wrapped(_Iter& _It, _UIter&& _UIt) {

  00000	55		 push	 ebp
  00001	8b ec		 mov	 ebp, esp
  00003	83 ec 44	 sub	 esp, 68			; 00000044H
  00006	53		 push	 ebx
  00007	56		 push	 esi
  00008	57		 push	 edi

; 1418 :     if constexpr (_Wrapped_seekable_v<_Iter, _UIter>) {
; 1419 :         _It._Seek_to(static_cast<_UIter&&>(_UIt));

  00009	8b 45 0c	 mov	 eax, DWORD PTR __UIt$[ebp]
  0000c	8b 08		 mov	 ecx, DWORD PTR [eax]
  0000e	89 4d bc	 mov	 DWORD PTR $T1[ebp], ecx
  00011	8b 55 bc	 mov	 edx, DWORD PTR $T1[ebp]
  00014	52		 push	 edx
  00015	8b 4d 08	 mov	 ecx, DWORD PTR __It$[ebp]
  00018	e8 00 00 00 00	 call	 ?_Seek_to@?$_List_const_iterator@V?$_List_val@U?$_List_simple_types@UBLOODCASTLE_REWARD@@@std@@@std@@@std@@QAEXV?$_List_unchecked_const_iterator@V?$_List_val@U?$_List_simple_types@UBLOODCASTLE_REWARD@@@std@@@std@@U_Iterator_base0@2@@2@@Z ; std::_List_const_iterator<std::_List_val<std::_List_simple_types<BLOODCASTLE_REWARD> > >::_Seek_to

; 1420 :     } else {
; 1421 :         _It = static_cast<_UIter&&>(_UIt);
; 1422 :     }
; 1423 : }

  0001d	5f		 pop	 edi
  0001e	5e		 pop	 esi
  0001f	5b		 pop	 ebx
  00020	8b e5		 mov	 esp, ebp
  00022	5d		 pop	 ebp
  00023	c3		 ret	 0
??$_Seek_wrapped@V?$_List_iterator@V?$_List_val@U?$_List_simple_types@UBLOODCASTLE_REWARD@@@std@@@std@@@std@@V?$_List_unchecked_iterator@V?$_List_val@U?$_List_simple_types@UBLOODCASTLE_REWARD@@@std@@@std@@@2@@std@@YAXAAV?$_List_iterator@V?$_List_val@U?$_List_simple_types@UBLOODCASTLE_REWARD@@@std@@@std@@@0@$$QAV?$_List_unchecked_iterator@V?$_List_val@U?$_List_simple_types@UBLOODCASTLE_REWARD@@@std@@@std@@@0@@Z ENDP ; std::_Seek_wrapped<std::_List_iterator<std::_List_val<std::_List_simple_types<BLOODCASTLE_REWARD> > >,std::_List_unchecked_iterator<std::_List_val<std::_List_simple_types<BLOODCASTLE_REWARD> > > >
_TEXT	ENDS
; Function compile flags: /Odtp /ZI
; File C:\Program Files (x86)\Microsoft Visual Studio\2019\Community\VC\Tools\MSVC\14.27.29110\include\type_traits
;	COMDAT ??$move@AAV?$_List_unchecked_iterator@V?$_List_val@U?$_List_simple_types@UBLOODCASTLE_REWARD@@@std@@@std@@@std@@@std@@YA$$QAV?$_List_unchecked_iterator@V?$_List_val@U?$_List_simple_types@UBLOODCASTLE_REWARD@@@std@@@std@@@0@AAV10@@Z
_TEXT	SEGMENT
__Arg$ = 8						; size = 4
??$move@AAV?$_List_unchecked_iterator@V?$_List_val@U?$_List_simple_types@UBLOODCASTLE_REWARD@@@std@@@std@@@std@@@std@@YA$$QAV?$_List_unchecked_iterator@V?$_List_val@U?$_List_simple_types@UBLOODCASTLE_REWARD@@@std@@@std@@@0@AAV10@@Z PROC ; std::move<std::_List_unchecked_iterator<std::_List_val<std::_List_simple_types<BLOODCASTLE_REWARD> > > &>, COMDAT

; 1466 : _NODISCARD constexpr remove_reference_t<_Ty>&& move(_Ty&& _Arg) noexcept { // forward _Arg as movable

  00000	55		 push	 ebp
  00001	8b ec		 mov	 ebp, esp
  00003	83 ec 40	 sub	 esp, 64			; 00000040H
  00006	53		 push	 ebx
  00007	56		 push	 esi
  00008	57		 push	 edi

; 1467 :     return static_cast<remove_reference_t<_Ty>&&>(_Arg);

  00009	8b 45 08	 mov	 eax, DWORD PTR __Arg$[ebp]

; 1468 : }

  0000c	5f		 pop	 edi
  0000d	5e		 pop	 esi
  0000e	5b		 pop	 ebx
  0000f	8b e5		 mov	 esp, ebp
  00011	5d		 pop	 ebp
  00012	c3		 ret	 0
??$move@AAV?$_List_unchecked_iterator@V?$_List_val@U?$_List_simple_types@UBLOODCASTLE_REWARD@@@std@@@std@@@std@@@std@@YA$$QAV?$_List_unchecked_iterator@V?$_List_val@U?$_List_simple_types@UBLOODCASTLE_REWARD@@@std@@@std@@@0@AAV10@@Z ENDP ; std::move<std::_List_unchecked_iterator<std::_List_val<std::_List_simple_types<BLOODCASTLE_REWARD> > > &>
_TEXT	ENDS
; Function compile flags: /Odtp /ZI
;	COMDAT ??0?$_List_unchecked_iterator@V?$_List_val@U?$_List_simple_types@UBLOODCASTLE_REWARD@@@std@@@std@@@std@@QAE@PAU?$_List_node@UBLOODCASTLE_REWARD@@PAX@1@PBV?$_List_val@U?$_List_simple_types@UBLOODCASTLE_REWARD@@@std@@@1@@Z
_TEXT	SEGMENT
_this$ = -4						; size = 4
___param0$ = 8						; size = 4
___param1$ = 12						; size = 4
??0?$_List_unchecked_iterator@V?$_List_val@U?$_List_simple_types@UBLOODCASTLE_REWARD@@@std@@@std@@@std@@QAE@PAU?$_List_node@UBLOODCASTLE_REWARD@@PAX@1@PBV?$_List_val@U?$_List_simple_types@UBLOODCASTLE_REWARD@@@std@@@1@@Z PROC ; std::_List_unchecked_iterator<std::_List_val<std::_List_simple_types<BLOODCASTLE_REWARD> > >::_List_unchecked_iterator<std::_List_val<std::_List_simple_types<BLOODCASTLE_REWARD> > >, COMDAT
; _this$ = ecx
  00000	55		 push	 ebp
  00001	8b ec		 mov	 ebp, esp
  00003	83 ec 44	 sub	 esp, 68			; 00000044H
  00006	53		 push	 ebx
  00007	56		 push	 esi
  00008	57		 push	 edi
  00009	89 4d fc	 mov	 DWORD PTR _this$[ebp], ecx
  0000c	8b 45 0c	 mov	 eax, DWORD PTR ___param1$[ebp]
  0000f	50		 push	 eax
  00010	8b 4d 08	 mov	 ecx, DWORD PTR ___param0$[ebp]
  00013	51		 push	 ecx
  00014	8b 4d fc	 mov	 ecx, DWORD PTR _this$[ebp]
  00017	e8 00 00 00 00	 call	 ??0?$_List_unchecked_const_iterator@V?$_List_val@U?$_List_simple_types@UBLOODCASTLE_REWARD@@@std@@@std@@U_Iterator_base0@2@@std@@QAE@PAU?$_List_node@UBLOODCASTLE_REWARD@@PAX@1@PBV?$_List_val@U?$_List_simple_types@UBLOODCASTLE_REWARD@@@std@@@1@@Z ; std::_List_unchecked_const_iterator<std::_List_val<std::_List_simple_types<BLOODCASTLE_REWARD> >,std::_Iterator_base0>::_List_unchecked_const_iterator<std::_List_val<std::_List_simple_types<BLOODCASTLE_REWARD> >,std::_Iterator_base0>
  0001c	8b 45 fc	 mov	 eax, DWORD PTR _this$[ebp]
  0001f	5f		 pop	 edi
  00020	5e		 pop	 esi
  00021	5b		 pop	 ebx
  00022	8b e5		 mov	 esp, ebp
  00024	5d		 pop	 ebp
  00025	c2 08 00	 ret	 8
??0?$_List_unchecked_iterator@V?$_List_val@U?$_List_simple_types@UBLOODCASTLE_REWARD@@@std@@@std@@@std@@QAE@PAU?$_List_node@UBLOODCASTLE_REWARD@@PAX@1@PBV?$_List_val@U?$_List_simple_types@UBLOODCASTLE_REWARD@@@std@@@1@@Z ENDP ; std::_List_unchecked_iterator<std::_List_val<std::_List_simple_types<BLOODCASTLE_REWARD> > >::_List_unchecked_iterator<std::_List_val<std::_List_simple_types<BLOODCASTLE_REWARD> > >
_TEXT	ENDS
; Function compile flags: /Odtp /ZI
; File C:\Program Files (x86)\Microsoft Visual Studio\2019\Community\VC\Tools\MSVC\14.27.29110\include\list
;	COMDAT ??F?$_List_unchecked_iterator@V?$_List_val@U?$_List_simple_types@UBLOODCASTLE_REWARD@@@std@@@std@@@std@@QAEAAV01@XZ
_TEXT	SEGMENT
_this$ = -4						; size = 4
??F?$_List_unchecked_iterator@V?$_List_val@U?$_List_simple_types@UBLOODCASTLE_REWARD@@@std@@@std@@@std@@QAEAAV01@XZ PROC ; std::_List_unchecked_iterator<std::_List_val<std::_List_simple_types<BLOODCASTLE_REWARD> > >::operator--, COMDAT
; _this$ = ecx

; 118  :     _List_unchecked_iterator& operator--() {

  00000	55		 push	 ebp
  00001	8b ec		 mov	 ebp, esp
  00003	83 ec 44	 sub	 esp, 68			; 00000044H
  00006	53		 push	 ebx
  00007	56		 push	 esi
  00008	57		 push	 edi
  00009	89 4d fc	 mov	 DWORD PTR _this$[ebp], ecx

; 119  :         _Mybase::operator--();

  0000c	8b 4d fc	 mov	 ecx, DWORD PTR _this$[ebp]
  0000f	e8 00 00 00 00	 call	 ??F?$_List_unchecked_const_iterator@V?$_List_val@U?$_List_simple_types@UBLOODCASTLE_REWARD@@@std@@@std@@U_Iterator_base0@2@@std@@QAEAAV01@XZ ; std::_List_unchecked_const_iterator<std::_List_val<std::_List_simple_types<BLOODCASTLE_REWARD> >,std::_Iterator_base0>::operator--

; 120  :         return *this;

  00014	8b 45 fc	 mov	 eax, DWORD PTR _this$[ebp]

; 121  :     }

  00017	5f		 pop	 edi
  00018	5e		 pop	 esi
  00019	5b		 pop	 ebx
  0001a	8b e5		 mov	 esp, ebp
  0001c	5d		 pop	 ebp
  0001d	c3		 ret	 0
??F?$_List_unchecked_iterator@V?$_List_val@U?$_List_simple_types@UBLOODCASTLE_REWARD@@@std@@@std@@@std@@QAEAAV01@XZ ENDP ; std::_List_unchecked_iterator<std::_List_val<std::_List_simple_types<BLOODCASTLE_REWARD> > >::operator--
_TEXT	ENDS
; Function compile flags: /Odtp /ZI
; File C:\Program Files (x86)\Microsoft Visual Studio\2019\Community\VC\Tools\MSVC\14.27.29110\include\list
;	COMDAT ??E?$_List_unchecked_iterator@V?$_List_val@U?$_List_simple_types@UBLOODCASTLE_REWARD@@@std@@@std@@@std@@QAEAAV01@XZ
_TEXT	SEGMENT
_this$ = -4						; size = 4
??E?$_List_unchecked_iterator@V?$_List_val@U?$_List_simple_types@UBLOODCASTLE_REWARD@@@std@@@std@@@std@@QAEAAV01@XZ PROC ; std::_List_unchecked_iterator<std::_List_val<std::_List_simple_types<BLOODCASTLE_REWARD> > >::operator++, COMDAT
; _this$ = ecx

; 107  :     _List_unchecked_iterator& operator++() {

  00000	55		 push	 ebp
  00001	8b ec		 mov	 ebp, esp
  00003	83 ec 44	 sub	 esp, 68			; 00000044H
  00006	53		 push	 ebx
  00007	56		 push	 esi
  00008	57		 push	 edi
  00009	89 4d fc	 mov	 DWORD PTR _this$[ebp], ecx

; 108  :         _Mybase::operator++();

  0000c	8b 4d fc	 mov	 ecx, DWORD PTR _this$[ebp]
  0000f	e8 00 00 00 00	 call	 ??E?$_List_unchecked_const_iterator@V?$_List_val@U?$_List_simple_types@UBLOODCASTLE_REWARD@@@std@@@std@@U_Iterator_base0@2@@std@@QAEAAV01@XZ ; std::_List_unchecked_const_iterator<std::_List_val<std::_List_simple_types<BLOODCASTLE_REWARD> >,std::_Iterator_base0>::operator++

; 109  :         return *this;

  00014	8b 45 fc	 mov	 eax, DWORD PTR _this$[ebp]

; 110  :     }

  00017	5f		 pop	 edi
  00018	5e		 pop	 esi
  00019	5b		 pop	 ebx
  0001a	8b e5		 mov	 esp, ebp
  0001c	5d		 pop	 ebp
  0001d	c3		 ret	 0
??E?$_List_unchecked_iterator@V?$_List_val@U?$_List_simple_types@UBLOODCASTLE_REWARD@@@std@@@std@@@std@@QAEAAV01@XZ ENDP ; std::_List_unchecked_iterator<std::_List_val<std::_List_simple_types<BLOODCASTLE_REWARD> > >::operator++
_TEXT	ENDS
; Function compile flags: /Odtp /ZI
; File C:\Program Files (x86)\Microsoft Visual Studio\2019\Community\VC\Tools\MSVC\14.27.29110\include\xutility
;	COMDAT ??$_Get_unwrapped_n@V?$_List_iterator@V?$_List_val@U?$_List_simple_types@UBLOODCASTLE_REWARD@@@std@@@std@@@std@@H@std@@YA@$$QAV?$_List_iterator@V?$_List_val@U?$_List_simple_types@UBLOODCASTLE_REWARD@@@std@@@std@@@0@H@Z
_TEXT	SEGMENT
___$ReturnUdt$ = 8					; size = 4
__It$ = 12						; size = 4
__Off$ = 16						; size = 4
??$_Get_unwrapped_n@V?$_List_iterator@V?$_List_val@U?$_List_simple_types@UBLOODCASTLE_REWARD@@@std@@@std@@@std@@H@std@@YA@$$QAV?$_List_iterator@V?$_List_val@U?$_List_simple_types@UBLOODCASTLE_REWARD@@@std@@@std@@@0@H@Z PROC ; std::_Get_unwrapped_n<std::_List_iterator<std::_List_val<std::_List_simple_types<BLOODCASTLE_REWARD> > >,int>, COMDAT

; 1335 : _NODISCARD constexpr decltype(auto) _Get_unwrapped_n(_Iter&& _It, const _Diff _Off) {

  00000	55		 push	 ebp
  00001	8b ec		 mov	 ebp, esp
  00003	83 ec 40	 sub	 esp, 64			; 00000040H
  00006	53		 push	 ebx
  00007	56		 push	 esi
  00008	57		 push	 edi

; 1336 :     if constexpr (is_pointer_v<decay_t<_Iter>>) {
; 1337 :         return _It + 0;
; 1338 :     } else if constexpr (_Unwrappable_for_offset_v<_Iter> && is_integral_v<_Diff>) {
; 1339 :         // ask an iterator to assert that the iterator moved _Off positions is valid, and unwrap
; 1340 :         using _IDiff     = _Iter_diff_t<_Remove_cvref_t<_Iter>>;
; 1341 :         using _CDiff     = common_type_t<_Diff, _IDiff>;
; 1342 :         const auto _COff = static_cast<_CDiff>(_Off);
; 1343 : 
; 1344 :         _STL_ASSERT(_COff <= static_cast<_CDiff>(_Max_possible_v<_IDiff>)
; 1345 :                         && (is_unsigned_v<_Diff> || static_cast<_CDiff>(_Min_possible_v<_IDiff>) <= _COff),
; 1346 :             "integer overflow");
; 1347 :         (void) _COff;
; 1348 : 
; 1349 :         _It._Verify_offset(static_cast<_IDiff>(_Off));
; 1350 :         return static_cast<_Iter&&>(_It)._Unwrapped();
; 1351 :     } else if constexpr (_Unwrappable_for_unverified_v<_Iter>) {
; 1352 :         // iterator doesn't support offset-based asserts, or offset unknown; defer to unverified unwrap
; 1353 :         return static_cast<_Iter&&>(_It)._Unwrapped();

  00009	8b 45 08	 mov	 eax, DWORD PTR ___$ReturnUdt$[ebp]
  0000c	50		 push	 eax
  0000d	8b 4d 0c	 mov	 ecx, DWORD PTR __It$[ebp]
  00010	e8 00 00 00 00	 call	 ?_Unwrapped@?$_List_iterator@V?$_List_val@U?$_List_simple_types@UBLOODCASTLE_REWARD@@@std@@@std@@@std@@QBE?AV?$_List_unchecked_iterator@V?$_List_val@U?$_List_simple_types@UBLOODCASTLE_REWARD@@@std@@@std@@@2@XZ ; std::_List_iterator<std::_List_val<std::_List_simple_types<BLOODCASTLE_REWARD> > >::_Unwrapped
  00015	8b 45 08	 mov	 eax, DWORD PTR ___$ReturnUdt$[ebp]

; 1354 :     } else {
; 1355 :         // pass through iterator that doesn't participate in checking
; 1356 :         return static_cast<_Iter&&>(_It);
; 1357 :     }
; 1358 : }

  00018	5f		 pop	 edi
  00019	5e		 pop	 esi
  0001a	5b		 pop	 ebx
  0001b	8b e5		 mov	 esp, ebp
  0001d	5d		 pop	 ebp
  0001e	c3		 ret	 0
??$_Get_unwrapped_n@V?$_List_iterator@V?$_List_val@U?$_List_simple_types@UBLOODCASTLE_REWARD@@@std@@@std@@@std@@H@std@@YA@$$QAV?$_List_iterator@V?$_List_val@U?$_List_simple_types@UBLOODCASTLE_REWARD@@@std@@@std@@@0@H@Z ENDP ; std::_Get_unwrapped_n<std::_List_iterator<std::_List_val<std::_List_simple_types<BLOODCASTLE_REWARD> > >,int>
_TEXT	ENDS
; Function compile flags: /Odtp /ZI
; File C:\Program Files (x86)\Microsoft Visual Studio\2019\Community\VC\Tools\MSVC\14.27.29110\include\type_traits
;	COMDAT ??$move@AAV?$_List_iterator@V?$_List_val@U?$_List_simple_types@UBLOODCASTLE_REWARD@@@std@@@std@@@std@@@std@@YA$$QAV?$_List_iterator@V?$_List_val@U?$_List_simple_types@UBLOODCASTLE_REWARD@@@std@@@std@@@0@AAV10@@Z
_TEXT	SEGMENT
__Arg$ = 8						; size = 4
??$move@AAV?$_List_iterator@V?$_List_val@U?$_List_simple_types@UBLOODCASTLE_REWARD@@@std@@@std@@@std@@@std@@YA$$QAV?$_List_iterator@V?$_List_val@U?$_List_simple_types@UBLOODCASTLE_REWARD@@@std@@@std@@@0@AAV10@@Z PROC ; std::move<std::_List_iterator<std::_List_val<std::_List_simple_types<BLOODCASTLE_REWARD> > > &>, COMDAT

; 1466 : _NODISCARD constexpr remove_reference_t<_Ty>&& move(_Ty&& _Arg) noexcept { // forward _Arg as movable

  00000	55		 push	 ebp
  00001	8b ec		 mov	 ebp, esp
  00003	83 ec 40	 sub	 esp, 64			; 00000040H
  00006	53		 push	 ebx
  00007	56		 push	 esi
  00008	57		 push	 edi

; 1467 :     return static_cast<remove_reference_t<_Ty>&&>(_Arg);

  00009	8b 45 08	 mov	 eax, DWORD PTR __Arg$[ebp]

; 1468 : }

  0000c	5f		 pop	 edi
  0000d	5e		 pop	 esi
  0000e	5b		 pop	 ebx
  0000f	8b e5		 mov	 esp, ebp
  00011	5d		 pop	 ebp
  00012	c3		 ret	 0
??$move@AAV?$_List_iterator@V?$_List_val@U?$_List_simple_types@UBLOODCASTLE_REWARD@@@std@@@std@@@std@@@std@@YA$$QAV?$_List_iterator@V?$_List_val@U?$_List_simple_types@UBLOODCASTLE_REWARD@@@std@@@std@@@0@AAV10@@Z ENDP ; std::move<std::_List_iterator<std::_List_val<std::_List_simple_types<BLOODCASTLE_REWARD> > > &>
_TEXT	ENDS
; Function compile flags: /Odtp /ZI
; File C:\Program Files (x86)\Microsoft Visual Studio\2019\Community\VC\Tools\MSVC\14.27.29110\include\xmemory
;	COMDAT ??$_Get_size_of_n@$0BE@@std@@YAII@Z
_TEXT	SEGMENT
__Max_possible$1 = -8					; size = 4
__Overflow_is_possible$ = -1				; size = 1
__Count$ = 8						; size = 4
??$_Get_size_of_n@$0BE@@std@@YAII@Z PROC		; std::_Get_size_of_n<20>, COMDAT

; 55   : _NODISCARD constexpr size_t _Get_size_of_n(const size_t _Count) {

  00000	55		 push	 ebp
  00001	8b ec		 mov	 ebp, esp
  00003	83 ec 48	 sub	 esp, 72			; 00000048H
  00006	53		 push	 ebx
  00007	56		 push	 esi
  00008	57		 push	 edi

; 56   :     constexpr bool _Overflow_is_possible = _Ty_size > 1;

  00009	c6 45 ff 01	 mov	 BYTE PTR __Overflow_is_possible$[ebp], 1

; 57   : 
; 58   :     if _CONSTEXPR_IF (_Overflow_is_possible) {
; 59   :         constexpr size_t _Max_possible = static_cast<size_t>(-1) / _Ty_size;

  0000d	c7 45 f8 cc cc
	cc 0c		 mov	 DWORD PTR __Max_possible$1[ebp], 214748364 ; 0cccccccH

; 60   :         if (_Count > _Max_possible) {

  00014	81 7d 08 cc cc
	cc 0c		 cmp	 DWORD PTR __Count$[ebp], 214748364 ; 0cccccccH
  0001b	76 05		 jbe	 SHORT $LN2@Get_size_o

; 61   :             _Throw_bad_array_new_length(); // multiply overflow

  0001d	e8 00 00 00 00	 call	 ?_Throw_bad_array_new_length@std@@YAXXZ ; std::_Throw_bad_array_new_length
$LN2@Get_size_o:

; 62   :         }
; 63   :     }
; 64   : 
; 65   :     return _Count * _Ty_size;

  00022	6b 45 08 14	 imul	 eax, DWORD PTR __Count$[ebp], 20
$LN3@Get_size_o:

; 66   : }

  00026	5f		 pop	 edi
  00027	5e		 pop	 esi
  00028	5b		 pop	 ebx
  00029	8b e5		 mov	 esp, ebp
  0002b	5d		 pop	 ebp
  0002c	c3		 ret	 0
??$_Get_size_of_n@$0BE@@std@@YAII@Z ENDP		; std::_Get_size_of_n<20>
_TEXT	ENDS
; Function compile flags: /Odtp /ZI
; File C:\Program Files (x86)\Microsoft Visual Studio\2019\Community\VC\Tools\MSVC\14.27.29110\include\list
;	COMDAT ??$_Freenode0@V?$allocator@U?$_List_node@UBLOODCASTLE_REWARD@@PAX@std@@@std@@@?$_List_node@UBLOODCASTLE_REWARD@@PAX@std@@SAXAAV?$allocator@U?$_List_node@UBLOODCASTLE_REWARD@@PAX@std@@@1@PAU01@@Z
_TEXT	SEGMENT
__$EHRec$ = -12						; size = 12
__Al$ = 8						; size = 4
__Ptr$ = 12						; size = 4
??$_Freenode0@V?$allocator@U?$_List_node@UBLOODCASTLE_REWARD@@PAX@std@@@std@@@?$_List_node@UBLOODCASTLE_REWARD@@PAX@std@@SAXAAV?$allocator@U?$_List_node@UBLOODCASTLE_REWARD@@PAX@std@@@1@PAU01@@Z PROC ; std::_List_node<BLOODCASTLE_REWARD,void *>::_Freenode0<std::allocator<std::_List_node<BLOODCASTLE_REWARD,void *> > >, COMDAT

; 307  :     static void _Freenode0(_Alnode& _Al, _Nodeptr _Ptr) noexcept {

  00000	55		 push	 ebp
  00001	8b ec		 mov	 ebp, esp
  00003	6a ff		 push	 -1
  00005	68 00 00 00 00	 push	 __ehhandler$??$_Freenode0@V?$allocator@U?$_List_node@UBLOODCASTLE_REWARD@@PAX@std@@@std@@@?$_List_node@UBLOODCASTLE_REWARD@@PAX@std@@SAXAAV?$allocator@U?$_List_node@UBLOODCASTLE_REWARD@@PAX@std@@@1@PAU01@@Z
  0000a	64 a1 00 00 00
	00		 mov	 eax, DWORD PTR fs:0
  00010	50		 push	 eax
  00011	83 ec 40	 sub	 esp, 64			; 00000040H
  00014	53		 push	 ebx
  00015	56		 push	 esi
  00016	57		 push	 edi
  00017	a1 00 00 00 00	 mov	 eax, DWORD PTR ___security_cookie
  0001c	33 c5		 xor	 eax, ebp
  0001e	50		 push	 eax
  0001f	8d 45 f4	 lea	 eax, DWORD PTR __$EHRec$[ebp]
  00022	64 a3 00 00 00
	00		 mov	 DWORD PTR fs:0, eax

; 308  :         // destroy pointer members in _Ptr and deallocate with _Al
; 309  :         static_assert(is_same_v<typename _Alnode::value_type, _List_node>, "Bad _Freenode0 call");
; 310  :         _Destroy_in_place(_Ptr->_Next);

  00028	8b 45 0c	 mov	 eax, DWORD PTR __Ptr$[ebp]
  0002b	50		 push	 eax
  0002c	e8 00 00 00 00	 call	 ??$_Destroy_in_place@PAU?$_List_node@UBLOODCASTLE_REWARD@@PAX@std@@@std@@YAXAAPAU?$_List_node@UBLOODCASTLE_REWARD@@PAX@0@@Z ; std::_Destroy_in_place<std::_List_node<BLOODCASTLE_REWARD,void *> *>
  00031	83 c4 04	 add	 esp, 4

; 311  :         _Destroy_in_place(_Ptr->_Prev);

  00034	8b 45 0c	 mov	 eax, DWORD PTR __Ptr$[ebp]
  00037	83 c0 04	 add	 eax, 4
  0003a	50		 push	 eax
  0003b	e8 00 00 00 00	 call	 ??$_Destroy_in_place@PAU?$_List_node@UBLOODCASTLE_REWARD@@PAX@std@@@std@@YAXAAPAU?$_List_node@UBLOODCASTLE_REWARD@@PAX@0@@Z ; std::_Destroy_in_place<std::_List_node<BLOODCASTLE_REWARD,void *> *>
  00040	83 c4 04	 add	 esp, 4

; 312  :         allocator_traits<_Alnode>::deallocate(_Al, _Ptr, 1);

  00043	6a 01		 push	 1
  00045	8b 45 0c	 mov	 eax, DWORD PTR __Ptr$[ebp]
  00048	50		 push	 eax
  00049	8b 4d 08	 mov	 ecx, DWORD PTR __Al$[ebp]
  0004c	51		 push	 ecx
  0004d	e8 00 00 00 00	 call	 ?deallocate@?$_Default_allocator_traits@V?$allocator@U?$_List_node@UBLOODCASTLE_REWARD@@PAX@std@@@std@@@std@@SAXAAV?$allocator@U?$_List_node@UBLOODCASTLE_REWARD@@PAX@std@@@2@QAU?$_List_node@UBLOODCASTLE_REWARD@@PAX@2@I@Z ; std::_Default_allocator_traits<std::allocator<std::_List_node<BLOODCASTLE_REWARD,void *> > >::deallocate
  00052	83 c4 0c	 add	 esp, 12			; 0000000cH

; 313  :     }

  00055	8b 4d f4	 mov	 ecx, DWORD PTR __$EHRec$[ebp]
  00058	64 89 0d 00 00
	00 00		 mov	 DWORD PTR fs:0, ecx
  0005f	59		 pop	 ecx
  00060	5f		 pop	 edi
  00061	5e		 pop	 esi
  00062	5b		 pop	 ebx
  00063	8b e5		 mov	 esp, ebp
  00065	5d		 pop	 ebp
  00066	c3		 ret	 0
  00067	cc		 int	 3
  00068	cc		 int	 3
  00069	cc		 int	 3
  0006a	cc		 int	 3
  0006b	cc		 int	 3
_TEXT	ENDS
;	COMDAT text$x
text$x	SEGMENT
__ehhandler$??$_Freenode0@V?$allocator@U?$_List_node@UBLOODCASTLE_REWARD@@PAX@std@@@std@@@?$_List_node@UBLOODCASTLE_REWARD@@PAX@std@@SAXAAV?$allocator@U?$_List_node@UBLOODCASTLE_REWARD@@PAX@std@@@1@PAU01@@Z:
  00000	90		 npad	 1
  00001	90		 npad	 1
  00002	8b 54 24 08	 mov	 edx, DWORD PTR [esp+8]
  00006	8d 42 0c	 lea	 eax, DWORD PTR [edx+12]
  00009	8b 4a b0	 mov	 ecx, DWORD PTR [edx-80]
  0000c	33 c8		 xor	 ecx, eax
  0000e	e8 00 00 00 00	 call	 @__security_check_cookie@4
  00013	b8 00 00 00 00	 mov	 eax, OFFSET __ehfuncinfo$??$_Freenode0@V?$allocator@U?$_List_node@UBLOODCASTLE_REWARD@@PAX@std@@@std@@@?$_List_node@UBLOODCASTLE_REWARD@@PAX@std@@SAXAAV?$allocator@U?$_List_node@UBLOODCASTLE_REWARD@@PAX@std@@@1@PAU01@@Z
  00018	e9 00 00 00 00	 jmp	 ___CxxFrameHandler3
text$x	ENDS
??$_Freenode0@V?$allocator@U?$_List_node@UBLOODCASTLE_REWARD@@PAX@std@@@std@@@?$_List_node@UBLOODCASTLE_REWARD@@PAX@std@@SAXAAV?$allocator@U?$_List_node@UBLOODCASTLE_REWARD@@PAX@std@@@1@PAU01@@Z ENDP ; std::_List_node<BLOODCASTLE_REWARD,void *>::_Freenode0<std::allocator<std::_List_node<BLOODCASTLE_REWARD,void *> > >
; Function compile flags: /Odtp /ZI
; File C:\Program Files (x86)\Microsoft Visual Studio\2019\Community\VC\Tools\MSVC\14.27.29110\include\xmemory
;	COMDAT ??$_Construct_in_place@PAU?$_List_node@UBLOODCASTLE_REWARD@@PAX@std@@AAPAU12@@std@@YAXAAPAU?$_List_node@UBLOODCASTLE_REWARD@@PAX@0@0@Z
_TEXT	SEGMENT
$T1 = -68						; size = 4
__Obj$ = 8						; size = 4
_<_Args_0>$ = 12					; size = 4
??$_Construct_in_place@PAU?$_List_node@UBLOODCASTLE_REWARD@@PAX@std@@AAPAU12@@std@@YAXAAPAU?$_List_node@UBLOODCASTLE_REWARD@@PAX@0@0@Z PROC ; std::_Construct_in_place<std::_List_node<BLOODCASTLE_REWARD,void *> *,std::_List_node<BLOODCASTLE_REWARD,void *> * &>, COMDAT

; 228  : void _Construct_in_place(_Ty& _Obj, _Types&&... _Args) noexcept(is_nothrow_constructible_v<_Ty, _Types...>) {

  00000	55		 push	 ebp
  00001	8b ec		 mov	 ebp, esp
  00003	83 ec 44	 sub	 esp, 68			; 00000044H
  00006	53		 push	 ebx
  00007	56		 push	 esi
  00008	57		 push	 edi

; 229  :     ::new (const_cast<void*>(static_cast<const volatile void*>(_STD addressof(_Obj))))

  00009	8b 45 08	 mov	 eax, DWORD PTR __Obj$[ebp]
  0000c	50		 push	 eax
  0000d	e8 00 00 00 00	 call	 ??$addressof@PAU?$_List_node@UBLOODCASTLE_REWARD@@PAX@std@@@std@@YAPAPAU?$_List_node@UBLOODCASTLE_REWARD@@PAX@0@AAPAU10@@Z ; std::addressof<std::_List_node<BLOODCASTLE_REWARD,void *> *>
  00012	83 c4 04	 add	 esp, 4
  00015	50		 push	 eax
  00016	6a 04		 push	 4
  00018	e8 00 00 00 00	 call	 ??2@YAPAXIPAX@Z		; operator new
  0001d	83 c4 08	 add	 esp, 8
  00020	89 45 bc	 mov	 DWORD PTR $T1[ebp], eax
  00023	8b 4d 0c	 mov	 ecx, DWORD PTR _<_Args_0>$[ebp]
  00026	51		 push	 ecx
  00027	e8 00 00 00 00	 call	 ??$forward@AAPAU?$_List_node@UBLOODCASTLE_REWARD@@PAX@std@@@std@@YAAAPAU?$_List_node@UBLOODCASTLE_REWARD@@PAX@0@AAPAU10@@Z ; std::forward<std::_List_node<BLOODCASTLE_REWARD,void *> * &>
  0002c	83 c4 04	 add	 esp, 4
  0002f	8b 55 bc	 mov	 edx, DWORD PTR $T1[ebp]
  00032	8b 00		 mov	 eax, DWORD PTR [eax]
  00034	89 02		 mov	 DWORD PTR [edx], eax

; 230  :         _Ty(_STD forward<_Types>(_Args)...);
; 231  : }

  00036	5f		 pop	 edi
  00037	5e		 pop	 esi
  00038	5b		 pop	 ebx
  00039	8b e5		 mov	 esp, ebp
  0003b	5d		 pop	 ebp
  0003c	c3		 ret	 0
??$_Construct_in_place@PAU?$_List_node@UBLOODCASTLE_REWARD@@PAX@std@@AAPAU12@@std@@YAXAAPAU?$_List_node@UBLOODCASTLE_REWARD@@PAX@0@0@Z ENDP ; std::_Construct_in_place<std::_List_node<BLOODCASTLE_REWARD,void *> *,std::_List_node<BLOODCASTLE_REWARD,void *> * &>
_TEXT	ENDS
; Function compile flags: /Odtp /ZI
; File C:\Program Files (x86)\Microsoft Visual Studio\2019\Community\VC\Tools\MSVC\14.27.29110\include\xmemory
;	COMDAT ??$?0$$V@?$_Compressed_pair@V?$allocator@U?$_List_node@UBLOODCASTLE_REWARD@@PAX@std@@@std@@V?$_List_val@U?$_List_simple_types@UBLOODCASTLE_REWARD@@@std@@@2@$00@std@@QAE@U_Zero_then_variadic_args_t@1@@Z
_TEXT	SEGMENT
_this$ = -4						; size = 4
___formal$ = 8						; size = 1
??$?0$$V@?$_Compressed_pair@V?$allocator@U?$_List_node@UBLOODCASTLE_REWARD@@PAX@std@@@std@@V?$_List_val@U?$_List_simple_types@UBLOODCASTLE_REWARD@@@std@@@2@$00@std@@QAE@U_Zero_then_variadic_args_t@1@@Z PROC ; std::_Compressed_pair<std::allocator<std::_List_node<BLOODCASTLE_REWARD,void *> >,std::_List_val<std::_List_simple_types<BLOODCASTLE_REWARD> >,1>::_Compressed_pair<std::allocator<std::_List_node<BLOODCASTLE_REWARD,void *> >,std::_List_val<std::_List_simple_types<BLOODCASTLE_REWARD> >,1><>, COMDAT
; _this$ = ecx

; 1336 :         : _Ty1(), _Myval2(_STD forward<_Other2>(_Val2)...) {}

  00000	55		 push	 ebp
  00001	8b ec		 mov	 ebp, esp
  00003	83 ec 44	 sub	 esp, 68			; 00000044H
  00006	53		 push	 ebx
  00007	56		 push	 esi
  00008	57		 push	 edi
  00009	89 4d fc	 mov	 DWORD PTR _this$[ebp], ecx
  0000c	8b 4d fc	 mov	 ecx, DWORD PTR _this$[ebp]
  0000f	e8 00 00 00 00	 call	 ??0?$allocator@U?$_List_node@UBLOODCASTLE_REWARD@@PAX@std@@@std@@QAE@XZ ; std::allocator<std::_List_node<BLOODCASTLE_REWARD,void *> >::allocator<std::_List_node<BLOODCASTLE_REWARD,void *> >
  00014	8b 4d fc	 mov	 ecx, DWORD PTR _this$[ebp]
  00017	e8 00 00 00 00	 call	 ??0?$_List_val@U?$_List_simple_types@UBLOODCASTLE_REWARD@@@std@@@std@@QAE@XZ ; std::_List_val<std::_List_simple_types<BLOODCASTLE_REWARD> >::_List_val<std::_List_simple_types<BLOODCASTLE_REWARD> >
  0001c	8b 45 fc	 mov	 eax, DWORD PTR _this$[ebp]
  0001f	5f		 pop	 edi
  00020	5e		 pop	 esi
  00021	5b		 pop	 ebx
  00022	8b e5		 mov	 esp, ebp
  00024	5d		 pop	 ebp
  00025	c2 04 00	 ret	 4
??$?0$$V@?$_Compressed_pair@V?$allocator@U?$_List_node@UBLOODCASTLE_REWARD@@PAX@std@@@std@@V?$_List_val@U?$_List_simple_types@UBLOODCASTLE_REWARD@@@std@@@2@$00@std@@QAE@U_Zero_then_variadic_args_t@1@@Z ENDP ; std::_Compressed_pair<std::allocator<std::_List_node<BLOODCASTLE_REWARD,void *> >,std::_List_val<std::_List_simple_types<BLOODCASTLE_REWARD> >,1>::_Compressed_pair<std::allocator<std::_List_node<BLOODCASTLE_REWARD,void *> >,std::_List_val<std::_List_simple_types<BLOODCASTLE_REWARD> >,1><>
_TEXT	ENDS
; Function compile flags: /Odtp /ZI
; File C:\Program Files (x86)\Microsoft Visual Studio\2019\Community\VC\Tools\MSVC\14.27.29110\include\xstddef
;	COMDAT ??$addressof@V?$_List_val@U?$_List_simple_types@UBLOODCASTLE_REWARD@@@std@@@std@@@std@@YAPAV?$_List_val@U?$_List_simple_types@UBLOODCASTLE_REWARD@@@std@@@0@AAV10@@Z
_TEXT	SEGMENT
__Val$ = 8						; size = 4
??$addressof@V?$_List_val@U?$_List_simple_types@UBLOODCASTLE_REWARD@@@std@@@std@@@std@@YAPAV?$_List_val@U?$_List_simple_types@UBLOODCASTLE_REWARD@@@std@@@0@AAV10@@Z PROC ; std::addressof<std::_List_val<std::_List_simple_types<BLOODCASTLE_REWARD> > >, COMDAT

; 274  : _NODISCARD constexpr _Ty* addressof(_Ty& _Val) noexcept {

  00000	55		 push	 ebp
  00001	8b ec		 mov	 ebp, esp
  00003	83 ec 40	 sub	 esp, 64			; 00000040H
  00006	53		 push	 ebx
  00007	56		 push	 esi
  00008	57		 push	 edi

; 275  :     return __builtin_addressof(_Val);

  00009	8b 45 08	 mov	 eax, DWORD PTR __Val$[ebp]

; 276  : }

  0000c	5f		 pop	 edi
  0000d	5e		 pop	 esi
  0000e	5b		 pop	 ebx
  0000f	8b e5		 mov	 esp, ebp
  00011	5d		 pop	 ebp
  00012	c3		 ret	 0
??$addressof@V?$_List_val@U?$_List_simple_types@UBLOODCASTLE_REWARD@@@std@@@std@@@std@@YAPAV?$_List_val@U?$_List_simple_types@UBLOODCASTLE_REWARD@@@std@@@0@AAV10@@Z ENDP ; std::addressof<std::_List_val<std::_List_simple_types<BLOODCASTLE_REWARD> > >
_TEXT	ENDS
; Function compile flags: /Odtp /ZI
; File C:\Program Files (x86)\Microsoft Visual Studio\2019\Community\VC\Tools\MSVC\14.27.29110\include\list
;	COMDAT ??$_Emplace@ABUBLOODCASTLE_REWARD@@@?$list@UBLOODCASTLE_REWARD@@V?$allocator@UBLOODCASTLE_REWARD@@@std@@@std@@QAEPAU?$_List_node@UBLOODCASTLE_REWARD@@PAX@1@QAU21@ABUBLOODCASTLE_REWARD@@@Z
_TEXT	SEGMENT
tv82 = -92						; size = 4
tv80 = -88						; size = 4
$T1 = -84						; size = 4
__Op$ = -16						; size = 8
__Mysize$ = -8						; size = 4
_this$ = -4						; size = 4
__Where$ = 8						; size = 4
_<_Val_0>$ = 12						; size = 4
??$_Emplace@ABUBLOODCASTLE_REWARD@@@?$list@UBLOODCASTLE_REWARD@@V?$allocator@UBLOODCASTLE_REWARD@@@std@@@std@@QAEPAU?$_List_node@UBLOODCASTLE_REWARD@@PAX@1@QAU21@ABUBLOODCASTLE_REWARD@@@Z PROC ; std::list<BLOODCASTLE_REWARD,std::allocator<BLOODCASTLE_REWARD> >::_Emplace<BLOODCASTLE_REWARD const &>, COMDAT
; _this$ = ecx

; 1012 :     _Nodeptr _Emplace(const _Nodeptr _Where, _Valty&&... _Val) { // insert element at _Where

  00000	55		 push	 ebp
  00001	8b ec		 mov	 ebp, esp
  00003	83 ec 5c	 sub	 esp, 92			; 0000005cH
  00006	53		 push	 ebx
  00007	56		 push	 esi
  00008	57		 push	 edi
  00009	89 4d fc	 mov	 DWORD PTR _this$[ebp], ecx

; 1013 :         size_type& _Mysize = _Mypair._Myval2._Mysize;

  0000c	8b 45 fc	 mov	 eax, DWORD PTR _this$[ebp]
  0000f	83 c0 04	 add	 eax, 4
  00012	89 45 f8	 mov	 DWORD PTR __Mysize$[ebp], eax

; 1014 :         if (_Mysize == max_size()) {

  00015	8b 4d fc	 mov	 ecx, DWORD PTR _this$[ebp]
  00018	e8 00 00 00 00	 call	 ?max_size@?$list@UBLOODCASTLE_REWARD@@V?$allocator@UBLOODCASTLE_REWARD@@@std@@@std@@QBEIXZ ; std::list<BLOODCASTLE_REWARD,std::allocator<BLOODCASTLE_REWARD> >::max_size
  0001d	8b 4d f8	 mov	 ecx, DWORD PTR __Mysize$[ebp]
  00020	39 01		 cmp	 DWORD PTR [ecx], eax
  00022	75 0a		 jne	 SHORT $LN2@Emplace

; 1015 :             _Xlength_error("list too long");

  00024	68 00 00 00 00	 push	 OFFSET ??_C@_0O@NKNMEGII@list?5too?5long@
  00029	e8 00 00 00 00	 call	 ?_Xlength_error@std@@YAXPBD@Z ; std::_Xlength_error
$LN2@Emplace:

; 1016 :         }
; 1017 : 
; 1018 :         _List_node_emplace_op2<_Alnode> _Op{_Getal(), _STD forward<_Valty>(_Val)...};

  0002e	8b 4d fc	 mov	 ecx, DWORD PTR _this$[ebp]
  00031	e8 00 00 00 00	 call	 ?_Getal@?$list@UBLOODCASTLE_REWARD@@V?$allocator@UBLOODCASTLE_REWARD@@@std@@@std@@AAEAAV?$allocator@U?$_List_node@UBLOODCASTLE_REWARD@@PAX@std@@@2@XZ ; std::list<BLOODCASTLE_REWARD,std::allocator<BLOODCASTLE_REWARD> >::_Getal
  00036	89 45 a8	 mov	 DWORD PTR tv80[ebp], eax
  00039	8b 45 0c	 mov	 eax, DWORD PTR _<_Val_0>$[ebp]
  0003c	50		 push	 eax
  0003d	e8 00 00 00 00	 call	 ??$forward@ABUBLOODCASTLE_REWARD@@@std@@YAABUBLOODCASTLE_REWARD@@ABU1@@Z ; std::forward<BLOODCASTLE_REWARD const &>
  00042	83 c4 04	 add	 esp, 4
  00045	89 45 a4	 mov	 DWORD PTR tv82[ebp], eax
  00048	8b 4d a4	 mov	 ecx, DWORD PTR tv82[ebp]
  0004b	51		 push	 ecx
  0004c	8b 55 a8	 mov	 edx, DWORD PTR tv80[ebp]
  0004f	52		 push	 edx
  00050	8d 4d f0	 lea	 ecx, DWORD PTR __Op$[ebp]
  00053	e8 00 00 00 00	 call	 ??$?0ABUBLOODCASTLE_REWARD@@@?$_List_node_emplace_op2@V?$allocator@U?$_List_node@UBLOODCASTLE_REWARD@@PAX@std@@@std@@@std@@QAE@AAV?$allocator@U?$_List_node@UBLOODCASTLE_REWARD@@PAX@std@@@1@ABUBLOODCASTLE_REWARD@@@Z ; std::_List_node_emplace_op2<std::allocator<std::_List_node<BLOODCASTLE_REWARD,void *> > >::_List_node_emplace_op2<std::allocator<std::_List_node<BLOODCASTLE_REWARD,void *> > ><BLOODCASTLE_REWARD const &>

; 1019 :         ++_Mysize;

  00058	8b 45 f8	 mov	 eax, DWORD PTR __Mysize$[ebp]
  0005b	8b 08		 mov	 ecx, DWORD PTR [eax]
  0005d	83 c1 01	 add	 ecx, 1
  00060	8b 55 f8	 mov	 edx, DWORD PTR __Mysize$[ebp]
  00063	89 0a		 mov	 DWORD PTR [edx], ecx

; 1020 :         return _Op._Transfer_before(_Where);

  00065	8b 45 08	 mov	 eax, DWORD PTR __Where$[ebp]
  00068	50		 push	 eax
  00069	8d 4d f0	 lea	 ecx, DWORD PTR __Op$[ebp]
  0006c	e8 00 00 00 00	 call	 ?_Transfer_before@?$_List_node_emplace_op2@V?$allocator@U?$_List_node@UBLOODCASTLE_REWARD@@PAX@std@@@std@@@std@@QAEPAU?$_List_node@UBLOODCASTLE_REWARD@@PAX@2@QAU32@@Z ; std::_List_node_emplace_op2<std::allocator<std::_List_node<BLOODCASTLE_REWARD,void *> > >::_Transfer_before
  00071	89 45 ac	 mov	 DWORD PTR $T1[ebp], eax
  00074	8d 4d f0	 lea	 ecx, DWORD PTR __Op$[ebp]
  00077	e8 00 00 00 00	 call	 ??1?$_List_node_emplace_op2@V?$allocator@U?$_List_node@UBLOODCASTLE_REWARD@@PAX@std@@@std@@@std@@QAE@XZ ; std::_List_node_emplace_op2<std::allocator<std::_List_node<BLOODCASTLE_REWARD,void *> > >::~_List_node_emplace_op2<std::allocator<std::_List_node<BLOODCASTLE_REWARD,void *> > >
  0007c	8b 45 ac	 mov	 eax, DWORD PTR $T1[ebp]
$LN3@Emplace:

; 1021 :     }

  0007f	5f		 pop	 edi
  00080	5e		 pop	 esi
  00081	5b		 pop	 ebx
  00082	8b e5		 mov	 esp, ebp
  00084	5d		 pop	 ebp
  00085	c2 08 00	 ret	 8
??$_Emplace@ABUBLOODCASTLE_REWARD@@@?$list@UBLOODCASTLE_REWARD@@V?$allocator@UBLOODCASTLE_REWARD@@@std@@@std@@QAEPAU?$_List_node@UBLOODCASTLE_REWARD@@PAX@1@QAU21@ABUBLOODCASTLE_REWARD@@@Z ENDP ; std::list<BLOODCASTLE_REWARD,std::allocator<BLOODCASTLE_REWARD> >::_Emplace<BLOODCASTLE_REWARD const &>
_TEXT	ENDS
; Function compile flags: /Odtp /ZI
; File C:\Program Files (x86)\Microsoft Visual Studio\2019\Community\VC\Tools\MSVC\14.27.29110\include\list
;	COMDAT ??$_Free_non_head@V?$allocator@U?$_List_node@UBLOODCASTLE_REWARD@@PAX@std@@@std@@@?$_List_node@UBLOODCASTLE_REWARD@@PAX@std@@SAXAAV?$allocator@U?$_List_node@UBLOODCASTLE_REWARD@@PAX@std@@@1@PAU01@@Z
_TEXT	SEGMENT
__Pnext$1 = -8						; size = 4
__Pnode$ = -4						; size = 4
__Al$ = 8						; size = 4
__Head$ = 12						; size = 4
??$_Free_non_head@V?$allocator@U?$_List_node@UBLOODCASTLE_REWARD@@PAX@std@@@std@@@?$_List_node@UBLOODCASTLE_REWARD@@PAX@std@@SAXAAV?$allocator@U?$_List_node@UBLOODCASTLE_REWARD@@PAX@std@@@1@PAU01@@Z PROC ; std::_List_node<BLOODCASTLE_REWARD,void *>::_Free_non_head<std::allocator<std::_List_node<BLOODCASTLE_REWARD,void *> > >, COMDAT

; 323  :         _Alnode& _Al, _Nodeptr _Head) noexcept { // free a list starting at _First and terminated at nullptr

  00000	55		 push	 ebp
  00001	8b ec		 mov	 ebp, esp
  00003	83 ec 48	 sub	 esp, 72			; 00000048H
  00006	53		 push	 ebx
  00007	56		 push	 esi
  00008	57		 push	 edi

; 324  :         _Head->_Prev->_Next = nullptr;

  00009	8b 45 0c	 mov	 eax, DWORD PTR __Head$[ebp]
  0000c	8b 48 04	 mov	 ecx, DWORD PTR [eax+4]
  0000f	c7 01 00 00 00
	00		 mov	 DWORD PTR [ecx], 0

; 325  : 
; 326  :         auto _Pnode = _Head->_Next;

  00015	8b 45 0c	 mov	 eax, DWORD PTR __Head$[ebp]
  00018	8b 08		 mov	 ecx, DWORD PTR [eax]
  0001a	89 4d fc	 mov	 DWORD PTR __Pnode$[ebp], ecx

; 327  :         for (_Nodeptr _Pnext; _Pnode; _Pnode = _Pnext) {

  0001d	eb 06		 jmp	 SHORT $LN4@Free_non_h
$LN2@Free_non_h:
  0001f	8b 45 f8	 mov	 eax, DWORD PTR __Pnext$1[ebp]
  00022	89 45 fc	 mov	 DWORD PTR __Pnode$[ebp], eax
$LN4@Free_non_h:
  00025	83 7d fc 00	 cmp	 DWORD PTR __Pnode$[ebp], 0
  00029	74 1a		 je	 SHORT $LN5@Free_non_h

; 328  :             _Pnext = _Pnode->_Next;

  0002b	8b 45 fc	 mov	 eax, DWORD PTR __Pnode$[ebp]
  0002e	8b 08		 mov	 ecx, DWORD PTR [eax]
  00030	89 4d f8	 mov	 DWORD PTR __Pnext$1[ebp], ecx

; 329  :             _Freenode(_Al, _Pnode);

  00033	8b 45 fc	 mov	 eax, DWORD PTR __Pnode$[ebp]
  00036	50		 push	 eax
  00037	8b 4d 08	 mov	 ecx, DWORD PTR __Al$[ebp]
  0003a	51		 push	 ecx
  0003b	e8 00 00 00 00	 call	 ??$_Freenode@V?$allocator@U?$_List_node@UBLOODCASTLE_REWARD@@PAX@std@@@std@@@?$_List_node@UBLOODCASTLE_REWARD@@PAX@std@@SAXAAV?$allocator@U?$_List_node@UBLOODCASTLE_REWARD@@PAX@std@@@1@PAU01@@Z ; std::_List_node<BLOODCASTLE_REWARD,void *>::_Freenode<std::allocator<std::_List_node<BLOODCASTLE_REWARD,void *> > >
  00040	83 c4 08	 add	 esp, 8

; 330  :         }

  00043	eb da		 jmp	 SHORT $LN2@Free_non_h
$LN5@Free_non_h:

; 331  :     }

  00045	5f		 pop	 edi
  00046	5e		 pop	 esi
  00047	5b		 pop	 ebx
  00048	8b e5		 mov	 esp, ebp
  0004a	5d		 pop	 ebp
  0004b	c3		 ret	 0
??$_Free_non_head@V?$allocator@U?$_List_node@UBLOODCASTLE_REWARD@@PAX@std@@@std@@@?$_List_node@UBLOODCASTLE_REWARD@@PAX@std@@SAXAAV?$allocator@U?$_List_node@UBLOODCASTLE_REWARD@@PAX@std@@@1@PAU01@@Z ENDP ; std::_List_node<BLOODCASTLE_REWARD,void *>::_Free_non_head<std::allocator<std::_List_node<BLOODCASTLE_REWARD,void *> > >
_TEXT	ENDS
; Function compile flags: /Odtp /ZI
; File C:\Program Files (x86)\Microsoft Visual Studio\2019\Community\VC\Tools\MSVC\14.27.29110\include\xutility
;	COMDAT ??$advance@V?$_List_iterator@V?$_List_val@U?$_List_simple_types@UBLOODCASTLE_REWARD@@@std@@@std@@@std@@H@std@@YAXAAV?$_List_iterator@V?$_List_val@U?$_List_simple_types@UBLOODCASTLE_REWARD@@@std@@@std@@@0@H@Z
_TEXT	SEGMENT
__Need_rewrap$1 = -9					; size = 1
_$S24$2 = -8						; size = 4
__UWhere$3 = -4						; size = 4
__Where$ = 8						; size = 4
__Off$ = 12						; size = 4
??$advance@V?$_List_iterator@V?$_List_val@U?$_List_simple_types@UBLOODCASTLE_REWARD@@@std@@@std@@@std@@H@std@@YAXAAV?$_List_iterator@V?$_List_val@U?$_List_simple_types@UBLOODCASTLE_REWARD@@@std@@@std@@@0@H@Z PROC ; std::advance<std::_List_iterator<std::_List_val<std::_List_simple_types<BLOODCASTLE_REWARD> > >,int>, COMDAT

; 1642 : _CONSTEXPR17 void advance(_InIt& _Where, _Diff _Off) { // increment iterator by offset

  00000	55		 push	 ebp
  00001	8b ec		 mov	 ebp, esp
  00003	83 ec 4c	 sub	 esp, 76			; 0000004cH
  00006	53		 push	 ebx
  00007	56		 push	 esi
  00008	57		 push	 edi

; 1643 :     if constexpr (_Is_random_iter_v<_InIt>) {
; 1644 :         _Where += _Off;
; 1645 :     } else {
; 1646 :         if constexpr (is_signed_v<_Diff> && !_Is_bidi_iter_v<_InIt>) {
; 1647 :             _STL_ASSERT(_Off >= 0, "negative advance of non-bidirectional iterator");
; 1648 :         }
; 1649 : 
; 1650 :         auto&& _UWhere              = _Get_unwrapped_n(_STD move(_Where), _Off);

  00009	8b 45 0c	 mov	 eax, DWORD PTR __Off$[ebp]
  0000c	50		 push	 eax
  0000d	8b 4d 08	 mov	 ecx, DWORD PTR __Where$[ebp]
  00010	51		 push	 ecx
  00011	e8 00 00 00 00	 call	 ??$move@AAV?$_List_iterator@V?$_List_val@U?$_List_simple_types@UBLOODCASTLE_REWARD@@@std@@@std@@@std@@@std@@YA$$QAV?$_List_iterator@V?$_List_val@U?$_List_simple_types@UBLOODCASTLE_REWARD@@@std@@@std@@@0@AAV10@@Z ; std::move<std::_List_iterator<std::_List_val<std::_List_simple_types<BLOODCASTLE_REWARD> > > &>
  00016	83 c4 04	 add	 esp, 4
  00019	50		 push	 eax
  0001a	8d 55 f8	 lea	 edx, DWORD PTR _$S24$2[ebp]
  0001d	52		 push	 edx
  0001e	e8 00 00 00 00	 call	 ??$_Get_unwrapped_n@V?$_List_iterator@V?$_List_val@U?$_List_simple_types@UBLOODCASTLE_REWARD@@@std@@@std@@@std@@H@std@@YA@$$QAV?$_List_iterator@V?$_List_val@U?$_List_simple_types@UBLOODCASTLE_REWARD@@@std@@@std@@@0@H@Z ; std::_Get_unwrapped_n<std::_List_iterator<std::_List_val<std::_List_simple_types<BLOODCASTLE_REWARD> > >,int>
  00023	83 c4 0c	 add	 esp, 12			; 0000000cH
  00026	8d 45 f8	 lea	 eax, DWORD PTR _$S24$2[ebp]
  00029	89 45 fc	 mov	 DWORD PTR __UWhere$3[ebp], eax

; 1651 :         constexpr bool _Need_rewrap = !is_reference_v<decltype(_Get_unwrapped_n(_STD move(_Where), _Off))>;

  0002c	c6 45 f7 01	 mov	 BYTE PTR __Need_rewrap$1[ebp], 1

; 1652 : 
; 1653 :         if constexpr (is_signed_v<_Diff> && _Is_bidi_iter_v<_InIt>) {
; 1654 :             for (; _Off < 0; ++_Off) {

  00030	eb 09		 jmp	 SHORT $LN4@advance
$LN2@advance:
  00032	8b 45 0c	 mov	 eax, DWORD PTR __Off$[ebp]
  00035	83 c0 01	 add	 eax, 1
  00038	89 45 0c	 mov	 DWORD PTR __Off$[ebp], eax
$LN4@advance:
  0003b	83 7d 0c 00	 cmp	 DWORD PTR __Off$[ebp], 0
  0003f	7d 0a		 jge	 SHORT $LN3@advance

; 1655 :                 --_UWhere;

  00041	8b 4d fc	 mov	 ecx, DWORD PTR __UWhere$3[ebp]
  00044	e8 00 00 00 00	 call	 ??F?$_List_unchecked_iterator@V?$_List_val@U?$_List_simple_types@UBLOODCASTLE_REWARD@@@std@@@std@@@std@@QAEAAV01@XZ ; std::_List_unchecked_iterator<std::_List_val<std::_List_simple_types<BLOODCASTLE_REWARD> > >::operator--

; 1656 :             }

  00049	eb e7		 jmp	 SHORT $LN2@advance
$LN3@advance:

; 1657 :         }
; 1658 : 
; 1659 :         for (; 0 < _Off; --_Off) {

  0004b	eb 09		 jmp	 SHORT $LN7@advance
$LN5@advance:
  0004d	8b 45 0c	 mov	 eax, DWORD PTR __Off$[ebp]
  00050	83 e8 01	 sub	 eax, 1
  00053	89 45 0c	 mov	 DWORD PTR __Off$[ebp], eax
$LN7@advance:
  00056	83 7d 0c 00	 cmp	 DWORD PTR __Off$[ebp], 0
  0005a	7e 0a		 jle	 SHORT $LN6@advance

; 1660 :             ++_UWhere;

  0005c	8b 4d fc	 mov	 ecx, DWORD PTR __UWhere$3[ebp]
  0005f	e8 00 00 00 00	 call	 ??E?$_List_unchecked_iterator@V?$_List_val@U?$_List_simple_types@UBLOODCASTLE_REWARD@@@std@@@std@@@std@@QAEAAV01@XZ ; std::_List_unchecked_iterator<std::_List_val<std::_List_simple_types<BLOODCASTLE_REWARD> > >::operator++

; 1661 :         }

  00064	eb e7		 jmp	 SHORT $LN5@advance
$LN6@advance:

; 1662 : 
; 1663 :         if constexpr (_Need_rewrap) {
; 1664 :             _Seek_wrapped(_Where, _STD move(_UWhere));

  00066	8b 45 fc	 mov	 eax, DWORD PTR __UWhere$3[ebp]
  00069	50		 push	 eax
  0006a	e8 00 00 00 00	 call	 ??$move@AAV?$_List_unchecked_iterator@V?$_List_val@U?$_List_simple_types@UBLOODCASTLE_REWARD@@@std@@@std@@@std@@@std@@YA$$QAV?$_List_unchecked_iterator@V?$_List_val@U?$_List_simple_types@UBLOODCASTLE_REWARD@@@std@@@std@@@0@AAV10@@Z ; std::move<std::_List_unchecked_iterator<std::_List_val<std::_List_simple_types<BLOODCASTLE_REWARD> > > &>
  0006f	83 c4 04	 add	 esp, 4
  00072	50		 push	 eax
  00073	8b 4d 08	 mov	 ecx, DWORD PTR __Where$[ebp]
  00076	51		 push	 ecx
  00077	e8 00 00 00 00	 call	 ??$_Seek_wrapped@V?$_List_iterator@V?$_List_val@U?$_List_simple_types@UBLOODCASTLE_REWARD@@@std@@@std@@@std@@V?$_List_unchecked_iterator@V?$_List_val@U?$_List_simple_types@UBLOODCASTLE_REWARD@@@std@@@std@@@2@@std@@YAXAAV?$_List_iterator@V?$_List_val@U?$_List_simple_types@UBLOODCASTLE_REWARD@@@std@@@std@@@0@$$QAV?$_List_unchecked_iterator@V?$_List_val@U?$_List_simple_types@UBLOODCASTLE_REWARD@@@std@@@std@@@0@@Z ; std::_Seek_wrapped<std::_List_iterator<std::_List_val<std::_List_simple_types<BLOODCASTLE_REWARD> > >,std::_List_unchecked_iterator<std::_List_val<std::_List_simple_types<BLOODCASTLE_REWARD> > > >
  0007c	83 c4 08	 add	 esp, 8

; 1665 :         }
; 1666 :     }
; 1667 : }

  0007f	5f		 pop	 edi
  00080	5e		 pop	 esi
  00081	5b		 pop	 ebx
  00082	8b e5		 mov	 esp, ebp
  00084	5d		 pop	 ebp
  00085	c3		 ret	 0
??$advance@V?$_List_iterator@V?$_List_val@U?$_List_simple_types@UBLOODCASTLE_REWARD@@@std@@@std@@@std@@H@std@@YAXAAV?$_List_iterator@V?$_List_val@U?$_List_simple_types@UBLOODCASTLE_REWARD@@@std@@@std@@@0@H@Z ENDP ; std::advance<std::_List_iterator<std::_List_val<std::_List_simple_types<BLOODCASTLE_REWARD> > >,int>
_TEXT	ENDS
; Function compile flags: /Odtp /ZI
;	COMDAT ??0?$_List_iterator@V?$_List_val@U?$_List_simple_types@UBLOODCASTLE_REWARD@@@std@@@std@@@std@@QAE@PAU?$_List_node@UBLOODCASTLE_REWARD@@PAX@1@PBV?$_List_val@U?$_List_simple_types@UBLOODCASTLE_REWARD@@@std@@@1@@Z
_TEXT	SEGMENT
_this$ = -4						; size = 4
___param0$ = 8						; size = 4
___param1$ = 12						; size = 4
??0?$_List_iterator@V?$_List_val@U?$_List_simple_types@UBLOODCASTLE_REWARD@@@std@@@std@@@std@@QAE@PAU?$_List_node@UBLOODCASTLE_REWARD@@PAX@1@PBV?$_List_val@U?$_List_simple_types@UBLOODCASTLE_REWARD@@@std@@@1@@Z PROC ; std::_List_iterator<std::_List_val<std::_List_simple_types<BLOODCASTLE_REWARD> > >::_List_iterator<std::_List_val<std::_List_simple_types<BLOODCASTLE_REWARD> > >, COMDAT
; _this$ = ecx
  00000	55		 push	 ebp
  00001	8b ec		 mov	 ebp, esp
  00003	83 ec 44	 sub	 esp, 68			; 00000044H
  00006	53		 push	 ebx
  00007	56		 push	 esi
  00008	57		 push	 edi
  00009	89 4d fc	 mov	 DWORD PTR _this$[ebp], ecx
  0000c	8b 45 0c	 mov	 eax, DWORD PTR ___param1$[ebp]
  0000f	50		 push	 eax
  00010	8b 4d 08	 mov	 ecx, DWORD PTR ___param0$[ebp]
  00013	51		 push	 ecx
  00014	8b 4d fc	 mov	 ecx, DWORD PTR _this$[ebp]
  00017	e8 00 00 00 00	 call	 ??0?$_List_const_iterator@V?$_List_val@U?$_List_simple_types@UBLOODCASTLE_REWARD@@@std@@@std@@@std@@QAE@PAU?$_List_node@UBLOODCASTLE_REWARD@@PAX@1@PBV?$_List_val@U?$_List_simple_types@UBLOODCASTLE_REWARD@@@std@@@1@@Z
  0001c	8b 45 fc	 mov	 eax, DWORD PTR _this$[ebp]
  0001f	5f		 pop	 edi
  00020	5e		 pop	 esi
  00021	5b		 pop	 ebx
  00022	8b e5		 mov	 esp, ebp
  00024	5d		 pop	 ebp
  00025	c2 08 00	 ret	 8
??0?$_List_iterator@V?$_List_val@U?$_List_simple_types@UBLOODCASTLE_REWARD@@@std@@@std@@@std@@QAE@PAU?$_List_node@UBLOODCASTLE_REWARD@@PAX@1@PBV?$_List_val@U?$_List_simple_types@UBLOODCASTLE_REWARD@@@std@@@1@@Z ENDP ; std::_List_iterator<std::_List_val<std::_List_simple_types<BLOODCASTLE_REWARD> > >::_List_iterator<std::_List_val<std::_List_simple_types<BLOODCASTLE_REWARD> > >
_TEXT	ENDS
; Function compile flags: /Odtp /ZI
; File C:\Program Files (x86)\Microsoft Visual Studio\2019\Community\VC\Tools\MSVC\14.27.29110\include\list
;	COMDAT ?_Unwrapped@?$_List_iterator@V?$_List_val@U?$_List_simple_types@UBLOODCASTLE_REWARD@@@std@@@std@@@std@@QBE?AV?$_List_unchecked_iterator@V?$_List_val@U?$_List_simple_types@UBLOODCASTLE_REWARD@@@std@@@std@@@2@XZ
_TEXT	SEGMENT
_this$ = -4						; size = 4
___$ReturnUdt$ = 8					; size = 4
?_Unwrapped@?$_List_iterator@V?$_List_val@U?$_List_simple_types@UBLOODCASTLE_REWARD@@@std@@@std@@@std@@QBE?AV?$_List_unchecked_iterator@V?$_List_val@U?$_List_simple_types@UBLOODCASTLE_REWARD@@@std@@@std@@@2@XZ PROC ; std::_List_iterator<std::_List_val<std::_List_simple_types<BLOODCASTLE_REWARD> > >::_Unwrapped, COMDAT
; _this$ = ecx

; 270  :     _NODISCARD _List_unchecked_iterator<_Mylist> _Unwrapped() const {

  00000	55		 push	 ebp
  00001	8b ec		 mov	 ebp, esp
  00003	83 ec 44	 sub	 esp, 68			; 00000044H
  00006	53		 push	 ebx
  00007	56		 push	 esi
  00008	57		 push	 edi
  00009	89 4d fc	 mov	 DWORD PTR _this$[ebp], ecx

; 271  :         return _List_unchecked_iterator<_Mylist>(this->_Ptr, static_cast<const _Mylist*>(this->_Getcont()));

  0000c	8b 4d fc	 mov	 ecx, DWORD PTR _this$[ebp]
  0000f	e8 00 00 00 00	 call	 ?_Getcont@_Iterator_base0@std@@QBEPBU_Container_base0@2@XZ ; std::_Iterator_base0::_Getcont
  00014	50		 push	 eax
  00015	8b 45 fc	 mov	 eax, DWORD PTR _this$[ebp]
  00018	8b 08		 mov	 ecx, DWORD PTR [eax]
  0001a	51		 push	 ecx
  0001b	8b 4d 08	 mov	 ecx, DWORD PTR ___$ReturnUdt$[ebp]
  0001e	e8 00 00 00 00	 call	 ??0?$_List_unchecked_iterator@V?$_List_val@U?$_List_simple_types@UBLOODCASTLE_REWARD@@@std@@@std@@@std@@QAE@PAU?$_List_node@UBLOODCASTLE_REWARD@@PAX@1@PBV?$_List_val@U?$_List_simple_types@UBLOODCASTLE_REWARD@@@std@@@1@@Z
  00023	8b 45 08	 mov	 eax, DWORD PTR ___$ReturnUdt$[ebp]

; 272  :     }

  00026	5f		 pop	 edi
  00027	5e		 pop	 esi
  00028	5b		 pop	 ebx
  00029	8b e5		 mov	 esp, ebp
  0002b	5d		 pop	 ebp
  0002c	c2 04 00	 ret	 4
?_Unwrapped@?$_List_iterator@V?$_List_val@U?$_List_simple_types@UBLOODCASTLE_REWARD@@@std@@@std@@@std@@QBE?AV?$_List_unchecked_iterator@V?$_List_val@U?$_List_simple_types@UBLOODCASTLE_REWARD@@@std@@@std@@@2@XZ ENDP ; std::_List_iterator<std::_List_val<std::_List_simple_types<BLOODCASTLE_REWARD> > >::_Unwrapped
_TEXT	ENDS
; Function compile flags: /Odtp /ZI
; File C:\Program Files (x86)\Microsoft Visual Studio\2019\Community\VC\Tools\MSVC\14.27.29110\include\list
;	COMDAT ??D?$_List_iterator@V?$_List_val@U?$_List_simple_types@UBLOODCASTLE_REWARD@@@std@@@std@@@std@@QBEAAUBLOODCASTLE_REWARD@@XZ
_TEXT	SEGMENT
_this$ = -4						; size = 4
??D?$_List_iterator@V?$_List_val@U?$_List_simple_types@UBLOODCASTLE_REWARD@@@std@@@std@@@std@@QBEAAUBLOODCASTLE_REWARD@@XZ PROC ; std::_List_iterator<std::_List_val<std::_List_simple_types<BLOODCASTLE_REWARD> > >::operator*, COMDAT
; _this$ = ecx

; 238  :     _NODISCARD reference operator*() const {

  00000	55		 push	 ebp
  00001	8b ec		 mov	 ebp, esp
  00003	83 ec 44	 sub	 esp, 68			; 00000044H
  00006	53		 push	 ebx
  00007	56		 push	 esi
  00008	57		 push	 edi
  00009	89 4d fc	 mov	 DWORD PTR _this$[ebp], ecx

; 239  :         return const_cast<reference>(_Mybase::operator*());

  0000c	8b 4d fc	 mov	 ecx, DWORD PTR _this$[ebp]
  0000f	e8 00 00 00 00	 call	 ??D?$_List_const_iterator@V?$_List_val@U?$_List_simple_types@UBLOODCASTLE_REWARD@@@std@@@std@@@std@@QBEABUBLOODCASTLE_REWARD@@XZ ; std::_List_const_iterator<std::_List_val<std::_List_simple_types<BLOODCASTLE_REWARD> > >::operator*

; 240  :     }

  00014	5f		 pop	 edi
  00015	5e		 pop	 esi
  00016	5b		 pop	 ebx
  00017	8b e5		 mov	 esp, ebp
  00019	5d		 pop	 ebp
  0001a	c3		 ret	 0
??D?$_List_iterator@V?$_List_val@U?$_List_simple_types@UBLOODCASTLE_REWARD@@@std@@@std@@@std@@QBEAAUBLOODCASTLE_REWARD@@XZ ENDP ; std::_List_iterator<std::_List_val<std::_List_simple_types<BLOODCASTLE_REWARD> > >::operator*
_TEXT	ENDS
; Function compile flags: /Odtp /ZI
;	COMDAT ??0?$_List_const_iterator@V?$_List_val@U?$_List_simple_types@UBLOODCASTLE_REWARD@@@std@@@std@@@std@@QAE@PAU?$_List_node@UBLOODCASTLE_REWARD@@PAX@1@PBV?$_List_val@U?$_List_simple_types@UBLOODCASTLE_REWARD@@@std@@@1@@Z
_TEXT	SEGMENT
_this$ = -4						; size = 4
___param0$ = 8						; size = 4
___param1$ = 12						; size = 4
??0?$_List_const_iterator@V?$_List_val@U?$_List_simple_types@UBLOODCASTLE_REWARD@@@std@@@std@@@std@@QAE@PAU?$_List_node@UBLOODCASTLE_REWARD@@PAX@1@PBV?$_List_val@U?$_List_simple_types@UBLOODCASTLE_REWARD@@@std@@@1@@Z PROC ; std::_List_const_iterator<std::_List_val<std::_List_simple_types<BLOODCASTLE_REWARD> > >::_List_const_iterator<std::_List_val<std::_List_simple_types<BLOODCASTLE_REWARD> > >, COMDAT
; _this$ = ecx
  00000	55		 push	 ebp
  00001	8b ec		 mov	 ebp, esp
  00003	83 ec 44	 sub	 esp, 68			; 00000044H
  00006	53		 push	 ebx
  00007	56		 push	 esi
  00008	57		 push	 edi
  00009	89 4d fc	 mov	 DWORD PTR _this$[ebp], ecx
  0000c	8b 45 0c	 mov	 eax, DWORD PTR ___param1$[ebp]
  0000f	50		 push	 eax
  00010	8b 4d 08	 mov	 ecx, DWORD PTR ___param0$[ebp]
  00013	51		 push	 ecx
  00014	8b 4d fc	 mov	 ecx, DWORD PTR _this$[ebp]
  00017	e8 00 00 00 00	 call	 ??0?$_List_unchecked_const_iterator@V?$_List_val@U?$_List_simple_types@UBLOODCASTLE_REWARD@@@std@@@std@@U_Iterator_base0@2@@std@@QAE@PAU?$_List_node@UBLOODCASTLE_REWARD@@PAX@1@PBV?$_List_val@U?$_List_simple_types@UBLOODCASTLE_REWARD@@@std@@@1@@Z ; std::_List_unchecked_const_iterator<std::_List_val<std::_List_simple_types<BLOODCASTLE_REWARD> >,std::_Iterator_base0>::_List_unchecked_const_iterator<std::_List_val<std::_List_simple_types<BLOODCASTLE_REWARD> >,std::_Iterator_base0>
  0001c	8b 45 fc	 mov	 eax, DWORD PTR _this$[ebp]
  0001f	5f		 pop	 edi
  00020	5e		 pop	 esi
  00021	5b		 pop	 ebx
  00022	8b e5		 mov	 esp, ebp
  00024	5d		 pop	 ebp
  00025	c2 08 00	 ret	 8
??0?$_List_const_iterator@V?$_List_val@U?$_List_simple_types@UBLOODCASTLE_REWARD@@@std@@@std@@@std@@QAE@PAU?$_List_node@UBLOODCASTLE_REWARD@@PAX@1@PBV?$_List_val@U?$_List_simple_types@UBLOODCASTLE_REWARD@@@std@@@1@@Z ENDP ; std::_List_const_iterator<std::_List_val<std::_List_simple_types<BLOODCASTLE_REWARD> > >::_List_const_iterator<std::_List_val<std::_List_simple_types<BLOODCASTLE_REWARD> > >
_TEXT	ENDS
; Function compile flags: /Odtp /ZI
; File C:\Program Files (x86)\Microsoft Visual Studio\2019\Community\VC\Tools\MSVC\14.27.29110\include\list
;	COMDAT ?_Seek_to@?$_List_const_iterator@V?$_List_val@U?$_List_simple_types@UBLOODCASTLE_REWARD@@@std@@@std@@@std@@QAEXV?$_List_unchecked_const_iterator@V?$_List_val@U?$_List_simple_types@UBLOODCASTLE_REWARD@@@std@@@std@@U_Iterator_base0@2@@2@@Z
_TEXT	SEGMENT
_this$ = -4						; size = 4
__It$ = 8						; size = 4
?_Seek_to@?$_List_const_iterator@V?$_List_val@U?$_List_simple_types@UBLOODCASTLE_REWARD@@@std@@@std@@@std@@QAEXV?$_List_unchecked_const_iterator@V?$_List_val@U?$_List_simple_types@UBLOODCASTLE_REWARD@@@std@@@std@@U_Iterator_base0@2@@2@@Z PROC ; std::_List_const_iterator<std::_List_val<std::_List_simple_types<BLOODCASTLE_REWARD> > >::_Seek_to, COMDAT
; _this$ = ecx

; 218  :     void _Seek_to(const _List_unchecked_const_iterator<_Mylist> _It) {

  00000	55		 push	 ebp
  00001	8b ec		 mov	 ebp, esp
  00003	83 ec 44	 sub	 esp, 68			; 00000044H
  00006	53		 push	 ebx
  00007	56		 push	 esi
  00008	57		 push	 edi
  00009	89 4d fc	 mov	 DWORD PTR _this$[ebp], ecx

; 219  :         this->_Ptr = _It._Ptr;

  0000c	8b 45 fc	 mov	 eax, DWORD PTR _this$[ebp]
  0000f	8b 4d 08	 mov	 ecx, DWORD PTR __It$[ebp]
  00012	89 08		 mov	 DWORD PTR [eax], ecx

; 220  :     }

  00014	5f		 pop	 edi
  00015	5e		 pop	 esi
  00016	5b		 pop	 ebx
  00017	8b e5		 mov	 esp, ebp
  00019	5d		 pop	 ebp
  0001a	c2 04 00	 ret	 4
?_Seek_to@?$_List_const_iterator@V?$_List_val@U?$_List_simple_types@UBLOODCASTLE_REWARD@@@std@@@std@@@std@@QAEXV?$_List_unchecked_const_iterator@V?$_List_val@U?$_List_simple_types@UBLOODCASTLE_REWARD@@@std@@@std@@U_Iterator_base0@2@@2@@Z ENDP ; std::_List_const_iterator<std::_List_val<std::_List_simple_types<BLOODCASTLE_REWARD> > >::_Seek_to
_TEXT	ENDS
; Function compile flags: /Odtp /ZI
; File C:\Program Files (x86)\Microsoft Visual Studio\2019\Community\VC\Tools\MSVC\14.27.29110\include\list
;	COMDAT ??D?$_List_const_iterator@V?$_List_val@U?$_List_simple_types@UBLOODCASTLE_REWARD@@@std@@@std@@@std@@QBEABUBLOODCASTLE_REWARD@@XZ
_TEXT	SEGMENT
_this$ = -4						; size = 4
??D?$_List_const_iterator@V?$_List_val@U?$_List_simple_types@UBLOODCASTLE_REWARD@@@std@@@std@@@std@@QBEABUBLOODCASTLE_REWARD@@XZ PROC ; std::_List_const_iterator<std::_List_val<std::_List_simple_types<BLOODCASTLE_REWARD> > >::operator*, COMDAT
; _this$ = ecx

; 145  :     _NODISCARD reference operator*() const {

  00000	55		 push	 ebp
  00001	8b ec		 mov	 ebp, esp
  00003	83 ec 44	 sub	 esp, 68			; 00000044H
  00006	53		 push	 ebx
  00007	56		 push	 esi
  00008	57		 push	 edi
  00009	89 4d fc	 mov	 DWORD PTR _this$[ebp], ecx

; 146  : #if _ITERATOR_DEBUG_LEVEL == 2
; 147  :         const auto _Mycont = static_cast<const _Mylist*>(this->_Getcont());
; 148  :         _STL_ASSERT(_Mycont, "cannot dereference value-initialized list iterator");
; 149  :         _STL_VERIFY(this->_Ptr != _Mycont->_Myhead, "cannot dereference end list iterator");
; 150  : #endif // _ITERATOR_DEBUG_LEVEL == 2
; 151  : 
; 152  :         return this->_Ptr->_Myval;

  0000c	8b 45 fc	 mov	 eax, DWORD PTR _this$[ebp]
  0000f	8b 00		 mov	 eax, DWORD PTR [eax]
  00011	83 c0 08	 add	 eax, 8

; 153  :     }

  00014	5f		 pop	 edi
  00015	5e		 pop	 esi
  00016	5b		 pop	 ebx
  00017	8b e5		 mov	 esp, ebp
  00019	5d		 pop	 ebp
  0001a	c3		 ret	 0
??D?$_List_const_iterator@V?$_List_val@U?$_List_simple_types@UBLOODCASTLE_REWARD@@@std@@@std@@@std@@QBEABUBLOODCASTLE_REWARD@@XZ ENDP ; std::_List_const_iterator<std::_List_val<std::_List_simple_types<BLOODCASTLE_REWARD> > >::operator*
_TEXT	ENDS
; Function compile flags: /Odtp /ZI
; File C:\Program Files (x86)\Microsoft Visual Studio\2019\Community\VC\Tools\MSVC\14.27.29110\include\list
;	COMDAT ??F?$_List_unchecked_const_iterator@V?$_List_val@U?$_List_simple_types@UBLOODCASTLE_REWARD@@@std@@@std@@U_Iterator_base0@2@@std@@QAEAAV01@XZ
_TEXT	SEGMENT
_this$ = -4						; size = 4
??F?$_List_unchecked_const_iterator@V?$_List_val@U?$_List_simple_types@UBLOODCASTLE_REWARD@@@std@@@std@@U_Iterator_base0@2@@std@@QAEAAV01@XZ PROC ; std::_List_unchecked_const_iterator<std::_List_val<std::_List_simple_types<BLOODCASTLE_REWARD> >,std::_Iterator_base0>::operator--, COMDAT
; _this$ = ecx

; 62   :     _List_unchecked_const_iterator& operator--() {

  00000	55		 push	 ebp
  00001	8b ec		 mov	 ebp, esp
  00003	83 ec 44	 sub	 esp, 68			; 00000044H
  00006	53		 push	 ebx
  00007	56		 push	 esi
  00008	57		 push	 edi
  00009	89 4d fc	 mov	 DWORD PTR _this$[ebp], ecx

; 63   :         _Ptr = _Ptr->_Prev;

  0000c	8b 45 fc	 mov	 eax, DWORD PTR _this$[ebp]
  0000f	8b 08		 mov	 ecx, DWORD PTR [eax]
  00011	8b 55 fc	 mov	 edx, DWORD PTR _this$[ebp]
  00014	8b 41 04	 mov	 eax, DWORD PTR [ecx+4]
  00017	89 02		 mov	 DWORD PTR [edx], eax

; 64   :         return *this;

  00019	8b 45 fc	 mov	 eax, DWORD PTR _this$[ebp]

; 65   :     }

  0001c	5f		 pop	 edi
  0001d	5e		 pop	 esi
  0001e	5b		 pop	 ebx
  0001f	8b e5		 mov	 esp, ebp
  00021	5d		 pop	 ebp
  00022	c3		 ret	 0
??F?$_List_unchecked_const_iterator@V?$_List_val@U?$_List_simple_types@UBLOODCASTLE_REWARD@@@std@@@std@@U_Iterator_base0@2@@std@@QAEAAV01@XZ ENDP ; std::_List_unchecked_const_iterator<std::_List_val<std::_List_simple_types<BLOODCASTLE_REWARD> >,std::_Iterator_base0>::operator--
_TEXT	ENDS
; Function compile flags: /Odtp /ZI
; File C:\Program Files (x86)\Microsoft Visual Studio\2019\Community\VC\Tools\MSVC\14.27.29110\include\list
;	COMDAT ??E?$_List_unchecked_const_iterator@V?$_List_val@U?$_List_simple_types@UBLOODCASTLE_REWARD@@@std@@@std@@U_Iterator_base0@2@@std@@QAEAAV01@XZ
_TEXT	SEGMENT
_this$ = -4						; size = 4
??E?$_List_unchecked_const_iterator@V?$_List_val@U?$_List_simple_types@UBLOODCASTLE_REWARD@@@std@@@std@@U_Iterator_base0@2@@std@@QAEAAV01@XZ PROC ; std::_List_unchecked_const_iterator<std::_List_val<std::_List_simple_types<BLOODCASTLE_REWARD> >,std::_Iterator_base0>::operator++, COMDAT
; _this$ = ecx

; 51   :     _List_unchecked_const_iterator& operator++() {

  00000	55		 push	 ebp
  00001	8b ec		 mov	 ebp, esp
  00003	83 ec 44	 sub	 esp, 68			; 00000044H
  00006	53		 push	 ebx
  00007	56		 push	 esi
  00008	57		 push	 edi
  00009	89 4d fc	 mov	 DWORD PTR _this$[ebp], ecx

; 52   :         _Ptr = _Ptr->_Next;

  0000c	8b 45 fc	 mov	 eax, DWORD PTR _this$[ebp]
  0000f	8b 08		 mov	 ecx, DWORD PTR [eax]
  00011	8b 55 fc	 mov	 edx, DWORD PTR _this$[ebp]
  00014	8b 01		 mov	 eax, DWORD PTR [ecx]
  00016	89 02		 mov	 DWORD PTR [edx], eax

; 53   :         return *this;

  00018	8b 45 fc	 mov	 eax, DWORD PTR _this$[ebp]

; 54   :     }

  0001b	5f		 pop	 edi
  0001c	5e		 pop	 esi
  0001d	5b		 pop	 ebx
  0001e	8b e5		 mov	 esp, ebp
  00020	5d		 pop	 ebp
  00021	c3		 ret	 0
??E?$_List_unchecked_const_iterator@V?$_List_val@U?$_List_simple_types@UBLOODCASTLE_REWARD@@@std@@@std@@U_Iterator_base0@2@@std@@QAEAAV01@XZ ENDP ; std::_List_unchecked_const_iterator<std::_List_val<std::_List_simple_types<BLOODCASTLE_REWARD> >,std::_Iterator_base0>::operator++
_TEXT	ENDS
; Function compile flags: /Odtp /ZI
; File C:\Program Files (x86)\Microsoft Visual Studio\2019\Community\VC\Tools\MSVC\14.27.29110\include\list
;	COMDAT ??0?$_List_unchecked_const_iterator@V?$_List_val@U?$_List_simple_types@UBLOODCASTLE_REWARD@@@std@@@std@@U_Iterator_base0@2@@std@@QAE@PAU?$_List_node@UBLOODCASTLE_REWARD@@PAX@1@PBV?$_List_val@U?$_List_simple_types@UBLOODCASTLE_REWARD@@@std@@@1@@Z
_TEXT	SEGMENT
_this$ = -4						; size = 4
__Pnode$ = 8						; size = 4
__Plist$ = 12						; size = 4
??0?$_List_unchecked_const_iterator@V?$_List_val@U?$_List_simple_types@UBLOODCASTLE_REWARD@@@std@@@std@@U_Iterator_base0@2@@std@@QAE@PAU?$_List_node@UBLOODCASTLE_REWARD@@PAX@1@PBV?$_List_val@U?$_List_simple_types@UBLOODCASTLE_REWARD@@@std@@@1@@Z PROC ; std::_List_unchecked_const_iterator<std::_List_val<std::_List_simple_types<BLOODCASTLE_REWARD> >,std::_Iterator_base0>::_List_unchecked_const_iterator<std::_List_val<std::_List_simple_types<BLOODCASTLE_REWARD> >,std::_Iterator_base0>, COMDAT
; _this$ = ecx

; 39   :     _List_unchecked_const_iterator(_Nodeptr _Pnode, const _Mylist* _Plist) noexcept : _Ptr(_Pnode) {

  00000	55		 push	 ebp
  00001	8b ec		 mov	 ebp, esp
  00003	83 ec 44	 sub	 esp, 68			; 00000044H
  00006	53		 push	 ebx
  00007	56		 push	 esi
  00008	57		 push	 edi
  00009	89 4d fc	 mov	 DWORD PTR _this$[ebp], ecx
  0000c	8b 45 fc	 mov	 eax, DWORD PTR _this$[ebp]
  0000f	8b 4d 08	 mov	 ecx, DWORD PTR __Pnode$[ebp]
  00012	89 08		 mov	 DWORD PTR [eax], ecx

; 40   :         this->_Adopt(_Plist);

  00014	8b 45 0c	 mov	 eax, DWORD PTR __Plist$[ebp]
  00017	50		 push	 eax
  00018	8b 4d fc	 mov	 ecx, DWORD PTR _this$[ebp]
  0001b	e8 00 00 00 00	 call	 ?_Adopt@_Iterator_base0@std@@QAEXPBX@Z ; std::_Iterator_base0::_Adopt

; 41   :     }

  00020	8b 45 fc	 mov	 eax, DWORD PTR _this$[ebp]
  00023	5f		 pop	 edi
  00024	5e		 pop	 esi
  00025	5b		 pop	 ebx
  00026	8b e5		 mov	 esp, ebp
  00028	5d		 pop	 ebp
  00029	c2 08 00	 ret	 8
??0?$_List_unchecked_const_iterator@V?$_List_val@U?$_List_simple_types@UBLOODCASTLE_REWARD@@@std@@@std@@U_Iterator_base0@2@@std@@QAE@PAU?$_List_node@UBLOODCASTLE_REWARD@@PAX@1@PBV?$_List_val@U?$_List_simple_types@UBLOODCASTLE_REWARD@@@std@@@1@@Z ENDP ; std::_List_unchecked_const_iterator<std::_List_val<std::_List_simple_types<BLOODCASTLE_REWARD> >,std::_Iterator_base0>::_List_unchecked_const_iterator<std::_List_val<std::_List_simple_types<BLOODCASTLE_REWARD> >,std::_Iterator_base0>
_TEXT	ENDS
; Function compile flags: /Odtp /ZI
; File C:\Mu Online\Mu-GS-Webzen-MC-10093\GameServer\ChaosCastle.h
;	COMDAT ??__Eg_iChaosCastle_MonsterItems@@YAXXZ
text$di	SEGMENT
??__Eg_iChaosCastle_MonsterItems@@YAXXZ PROC		; `dynamic initializer for 'g_iChaosCastle_MonsterItems'', COMDAT

; 359  : };

  00000	55		 push	 ebp
  00001	8b ec		 mov	 ebp, esp
  00003	83 ec 40	 sub	 esp, 64			; 00000040H
  00006	53		 push	 ebx
  00007	56		 push	 esi
  00008	57		 push	 edi

; 337  : 	MAKE_ITEMNUM(14, 13),		1,								// 1  - 

  00009	6a 0d		 push	 13			; 0000000dH
  0000b	6a 0e		 push	 14			; 0000000eH
  0000d	e8 00 00 00 00	 call	 ?MakeItemNumber@@YAHHH@Z ; MakeItemNumber
  00012	83 c4 08	 add	 esp, 8
  00015	a3 00 00 00 00	 mov	 DWORD PTR ?g_iChaosCastle_MonsterItems@@3PAY111HA, eax
  0001a	c7 05 04 00 00
	00 01 00 00 00	 mov	 DWORD PTR ?g_iChaosCastle_MonsterItems@@3PAY111HA+4, 1

; 338  : 	MAKE_ITEMNUM(14, 14),		2,								// 1  - 

  00024	6a 0e		 push	 14			; 0000000eH
  00026	6a 0e		 push	 14			; 0000000eH
  00028	e8 00 00 00 00	 call	 ?MakeItemNumber@@YAHHH@Z ; MakeItemNumber
  0002d	83 c4 08	 add	 esp, 8
  00030	a3 08 00 00 00	 mov	 DWORD PTR ?g_iChaosCastle_MonsterItems@@3PAY111HA+8, eax
  00035	c7 05 0c 00 00
	00 02 00 00 00	 mov	 DWORD PTR ?g_iChaosCastle_MonsterItems@@3PAY111HA+12, 2

; 339  : 	
; 340  : 	MAKE_ITEMNUM(14, 13),		1,								// 2  - 

  0003f	6a 0d		 push	 13			; 0000000dH
  00041	6a 0e		 push	 14			; 0000000eH
  00043	e8 00 00 00 00	 call	 ?MakeItemNumber@@YAHHH@Z ; MakeItemNumber
  00048	83 c4 08	 add	 esp, 8
  0004b	a3 10 00 00 00	 mov	 DWORD PTR ?g_iChaosCastle_MonsterItems@@3PAY111HA+16, eax
  00050	c7 05 14 00 00
	00 01 00 00 00	 mov	 DWORD PTR ?g_iChaosCastle_MonsterItems@@3PAY111HA+20, 1

; 341  : 	MAKE_ITEMNUM(14, 14),		3,								// 2  - 

  0005a	6a 0e		 push	 14			; 0000000eH
  0005c	6a 0e		 push	 14			; 0000000eH
  0005e	e8 00 00 00 00	 call	 ?MakeItemNumber@@YAHHH@Z ; MakeItemNumber
  00063	83 c4 08	 add	 esp, 8
  00066	a3 18 00 00 00	 mov	 DWORD PTR ?g_iChaosCastle_MonsterItems@@3PAY111HA+24, eax
  0006b	c7 05 1c 00 00
	00 03 00 00 00	 mov	 DWORD PTR ?g_iChaosCastle_MonsterItems@@3PAY111HA+28, 3

; 342  : 	
; 343  : 	MAKE_ITEMNUM(14, 13),		1,								// 3  - 

  00075	6a 0d		 push	 13			; 0000000dH
  00077	6a 0e		 push	 14			; 0000000eH
  00079	e8 00 00 00 00	 call	 ?MakeItemNumber@@YAHHH@Z ; MakeItemNumber
  0007e	83 c4 08	 add	 esp, 8
  00081	a3 20 00 00 00	 mov	 DWORD PTR ?g_iChaosCastle_MonsterItems@@3PAY111HA+32, eax
  00086	c7 05 24 00 00
	00 01 00 00 00	 mov	 DWORD PTR ?g_iChaosCastle_MonsterItems@@3PAY111HA+36, 1

; 344  : 	MAKE_ITEMNUM(14, 14),		3,								// 3  - 

  00090	6a 0e		 push	 14			; 0000000eH
  00092	6a 0e		 push	 14			; 0000000eH
  00094	e8 00 00 00 00	 call	 ?MakeItemNumber@@YAHHH@Z ; MakeItemNumber
  00099	83 c4 08	 add	 esp, 8
  0009c	a3 28 00 00 00	 mov	 DWORD PTR ?g_iChaosCastle_MonsterItems@@3PAY111HA+40, eax
  000a1	c7 05 2c 00 00
	00 03 00 00 00	 mov	 DWORD PTR ?g_iChaosCastle_MonsterItems@@3PAY111HA+44, 3

; 345  : 	
; 346  : 	MAKE_ITEMNUM(14, 13),		2,								// 4  - 

  000ab	6a 0d		 push	 13			; 0000000dH
  000ad	6a 0e		 push	 14			; 0000000eH
  000af	e8 00 00 00 00	 call	 ?MakeItemNumber@@YAHHH@Z ; MakeItemNumber
  000b4	83 c4 08	 add	 esp, 8
  000b7	a3 30 00 00 00	 mov	 DWORD PTR ?g_iChaosCastle_MonsterItems@@3PAY111HA+48, eax
  000bc	c7 05 34 00 00
	00 02 00 00 00	 mov	 DWORD PTR ?g_iChaosCastle_MonsterItems@@3PAY111HA+52, 2

; 347  : 	MAKE_ITEMNUM(14, 14),		2,								// 4  - 

  000c6	6a 0e		 push	 14			; 0000000eH
  000c8	6a 0e		 push	 14			; 0000000eH
  000ca	e8 00 00 00 00	 call	 ?MakeItemNumber@@YAHHH@Z ; MakeItemNumber
  000cf	83 c4 08	 add	 esp, 8
  000d2	a3 38 00 00 00	 mov	 DWORD PTR ?g_iChaosCastle_MonsterItems@@3PAY111HA+56, eax
  000d7	c7 05 3c 00 00
	00 02 00 00 00	 mov	 DWORD PTR ?g_iChaosCastle_MonsterItems@@3PAY111HA+60, 2

; 348  : 	
; 349  : 	MAKE_ITEMNUM(14, 13),		2,								// 5  - 

  000e1	6a 0d		 push	 13			; 0000000dH
  000e3	6a 0e		 push	 14			; 0000000eH
  000e5	e8 00 00 00 00	 call	 ?MakeItemNumber@@YAHHH@Z ; MakeItemNumber
  000ea	83 c4 08	 add	 esp, 8
  000ed	a3 40 00 00 00	 mov	 DWORD PTR ?g_iChaosCastle_MonsterItems@@3PAY111HA+64, eax
  000f2	c7 05 44 00 00
	00 02 00 00 00	 mov	 DWORD PTR ?g_iChaosCastle_MonsterItems@@3PAY111HA+68, 2

; 350  : 	MAKE_ITEMNUM(14, 14),		3,								// 5  - 

  000fc	6a 0e		 push	 14			; 0000000eH
  000fe	6a 0e		 push	 14			; 0000000eH
  00100	e8 00 00 00 00	 call	 ?MakeItemNumber@@YAHHH@Z ; MakeItemNumber
  00105	83 c4 08	 add	 esp, 8
  00108	a3 48 00 00 00	 mov	 DWORD PTR ?g_iChaosCastle_MonsterItems@@3PAY111HA+72, eax
  0010d	c7 05 4c 00 00
	00 03 00 00 00	 mov	 DWORD PTR ?g_iChaosCastle_MonsterItems@@3PAY111HA+76, 3

; 351  : 	
; 352  : 	MAKE_ITEMNUM(14, 13),		2,								// 6  - 

  00117	6a 0d		 push	 13			; 0000000dH
  00119	6a 0e		 push	 14			; 0000000eH
  0011b	e8 00 00 00 00	 call	 ?MakeItemNumber@@YAHHH@Z ; MakeItemNumber
  00120	83 c4 08	 add	 esp, 8
  00123	a3 50 00 00 00	 mov	 DWORD PTR ?g_iChaosCastle_MonsterItems@@3PAY111HA+80, eax
  00128	c7 05 54 00 00
	00 02 00 00 00	 mov	 DWORD PTR ?g_iChaosCastle_MonsterItems@@3PAY111HA+84, 2

; 353  : 	MAKE_ITEMNUM(14, 14),		3,								// 6  - 

  00132	6a 0e		 push	 14			; 0000000eH
  00134	6a 0e		 push	 14			; 0000000eH
  00136	e8 00 00 00 00	 call	 ?MakeItemNumber@@YAHHH@Z ; MakeItemNumber
  0013b	83 c4 08	 add	 esp, 8
  0013e	a3 58 00 00 00	 mov	 DWORD PTR ?g_iChaosCastle_MonsterItems@@3PAY111HA+88, eax
  00143	c7 05 5c 00 00
	00 03 00 00 00	 mov	 DWORD PTR ?g_iChaosCastle_MonsterItems@@3PAY111HA+92, 3
  0014d	5f		 pop	 edi
  0014e	5e		 pop	 esi
  0014f	5b		 pop	 ebx
  00150	8b e5		 mov	 esp, ebp
  00152	5d		 pop	 ebp
  00153	c3		 ret	 0
??__Eg_iChaosCastle_MonsterItems@@YAXXZ ENDP		; `dynamic initializer for 'g_iChaosCastle_MonsterItems''
text$di	ENDS
; Function compile flags: /Odtp /ZI
; File C:\Mu Online\Mu-GS-Webzen-MC-10093\Include\Readscript.h
;	COMDAT ?GetToken@@YA?AW4SMDToken@@XZ
_TEXT	SEGMENT
tv93 = -184						; size = 4
$T1 = -180						; size = 4
_TempString$ = -112					; size = 100
_p$ = -12						; size = 4
_ch$ = -5						; size = 1
__$ArrayPad$ = -4					; size = 4
?GetToken@@YA?AW4SMDToken@@XZ PROC			; GetToken, COMDAT

; 25   : {

  00000	55		 push	 ebp
  00001	8b ec		 mov	 ebp, esp
  00003	81 ec b8 00 00
	00		 sub	 esp, 184		; 000000b8H
  00009	a1 00 00 00 00	 mov	 eax, DWORD PTR ___security_cookie
  0000e	33 c5		 xor	 eax, ebp
  00010	89 45 fc	 mov	 DWORD PTR __$ArrayPad$[ebp], eax
  00013	53		 push	 ebx
  00014	56		 push	 esi
  00015	57		 push	 edi

; 26   : 	unsigned char ch;
; 27   : 	TokenString[0] = '\0';

  00016	b8 01 00 00 00	 mov	 eax, 1
  0001b	6b c8 00	 imul	 ecx, eax, 0
  0001e	89 8d 4c ff ff
	ff		 mov	 DWORD PTR $T1[ebp], ecx
  00024	83 bd 4c ff ff
	ff 64		 cmp	 DWORD PTR $T1[ebp], 100	; 00000064H
  0002b	73 02		 jae	 SHORT $LN31@GetToken
  0002d	eb 05		 jmp	 SHORT $LN32@GetToken
$LN31@GetToken:
  0002f	e8 00 00 00 00	 call	 ___report_rangecheckfailure
$LN32@GetToken:
  00034	8b 95 4c ff ff
	ff		 mov	 edx, DWORD PTR $T1[ebp]
  0003a	c6 82 00 00 00
	00 00		 mov	 BYTE PTR ?TokenString@@3PADA[edx], 0
$LN4@GetToken:

; 28   : 	do
; 29   : 	{
; 30   : 		if ( (ch =(unsigned char) fgetc(SMDFile)) == (BYTE)EOF) return END;

  00041	a1 00 00 00 00	 mov	 eax, DWORD PTR ?SMDFile@@3PAU_iobuf@@A
  00046	50		 push	 eax
  00047	e8 00 00 00 00	 call	 _fgetc
  0004c	83 c4 04	 add	 esp, 4
  0004f	88 45 fb	 mov	 BYTE PTR _ch$[ebp], al
  00052	0f b6 4d fb	 movzx	 ecx, BYTE PTR _ch$[ebp]
  00056	81 f9 ff 00 00
	00		 cmp	 ecx, 255		; 000000ffH
  0005c	75 0a		 jne	 SHORT $LN15@GetToken
  0005e	b8 02 00 00 00	 mov	 eax, 2
  00063	e9 d9 02 00 00	 jmp	 $LN7@GetToken
$LN15@GetToken:

; 31   : 		if (ch=='/' && (ch =(unsigned char) fgetc(SMDFile) )=='/')	

  00068	0f b6 45 fb	 movzx	 eax, BYTE PTR _ch$[ebp]
  0006c	83 f8 2f	 cmp	 eax, 47			; 0000002fH
  0006f	75 56		 jne	 SHORT $LN17@GetToken
  00071	a1 00 00 00 00	 mov	 eax, DWORD PTR ?SMDFile@@3PAU_iobuf@@A
  00076	50		 push	 eax
  00077	e8 00 00 00 00	 call	 _fgetc
  0007c	83 c4 04	 add	 esp, 4
  0007f	88 45 fb	 mov	 BYTE PTR _ch$[ebp], al
  00082	0f b6 4d fb	 movzx	 ecx, BYTE PTR _ch$[ebp]
  00086	83 f9 2f	 cmp	 ecx, 47			; 0000002fH
  00089	75 3c		 jne	 SHORT $LN17@GetToken
$LN5@GetToken:

; 32   : 		{
; 33   : 			while((ch != '\n') && (ch != (BYTE)EOF)) {			// 2003.09.02 H.J.I 

  0008b	0f b6 45 fb	 movzx	 eax, BYTE PTR _ch$[ebp]
  0008f	83 f8 0a	 cmp	 eax, 10			; 0000000aH
  00092	74 1e		 je	 SHORT $LN6@GetToken
  00094	0f b6 45 fb	 movzx	 eax, BYTE PTR _ch$[ebp]
  00098	3d ff 00 00 00	 cmp	 eax, 255		; 000000ffH
  0009d	74 13		 je	 SHORT $LN6@GetToken

; 34   : 				ch = (unsigned char) fgetc( SMDFile);

  0009f	a1 00 00 00 00	 mov	 eax, DWORD PTR ?SMDFile@@3PAU_iobuf@@A
  000a4	50		 push	 eax
  000a5	e8 00 00 00 00	 call	 _fgetc
  000aa	83 c4 04	 add	 esp, 4
  000ad	88 45 fb	 mov	 BYTE PTR _ch$[ebp], al

; 35   : 			}

  000b0	eb d9		 jmp	 SHORT $LN5@GetToken
$LN6@GetToken:

; 36   : 
; 37   : 			if (ch == (BYTE)EOF)

  000b2	0f b6 45 fb	 movzx	 eax, BYTE PTR _ch$[ebp]
  000b6	3d ff 00 00 00	 cmp	 eax, 255		; 000000ffH
  000bb	75 0a		 jne	 SHORT $LN17@GetToken

; 38   : 				return END;

  000bd	b8 02 00 00 00	 mov	 eax, 2
  000c2	e9 7a 02 00 00	 jmp	 $LN7@GetToken
$LN17@GetToken:

; 39   : 		}
; 40   : 	} while(  isspace(ch) );

  000c7	0f b6 45 fb	 movzx	 eax, BYTE PTR _ch$[ebp]
  000cb	50		 push	 eax
  000cc	e8 00 00 00 00	 call	 _isspace
  000d1	83 c4 04	 add	 esp, 4
  000d4	85 c0		 test	 eax, eax
  000d6	0f 85 65 ff ff
	ff		 jne	 $LN4@GetToken

; 41   : 	
; 42   : 	char *p, TempString[100];
; 43   : 	switch(ch)

  000dc	0f b6 45 fb	 movzx	 eax, BYTE PTR _ch$[ebp]
  000e0	89 85 48 ff ff
	ff		 mov	 DWORD PTR tv93[ebp], eax
  000e6	8b 8d 48 ff ff
	ff		 mov	 ecx, DWORD PTR tv93[ebp]
  000ec	83 e9 22	 sub	 ecx, 34			; 00000022H
  000ef	89 8d 48 ff ff
	ff		 mov	 DWORD PTR tv93[ebp], ecx
  000f5	83 bd 48 ff ff
	ff 5b		 cmp	 DWORD PTR tv93[ebp], 91	; 0000005bH
  000fc	0f 87 86 01 00
	00		 ja	 $LN27@GetToken
  00102	8b 95 48 ff ff
	ff		 mov	 edx, DWORD PTR tv93[ebp]
  00108	0f b6 82 00 00
	00 00		 movzx	 eax, BYTE PTR $LN33@GetToken[edx]
  0010f	ff 24 85 00 00
	00 00		 jmp	 DWORD PTR $LN34@GetToken[eax*4]
$LN18@GetToken:

; 44   : 	{	
; 45   : 	case '#':
; 46   : 		return CurrentToken = COMMAND;

  00116	c7 05 00 00 00
	00 23 00 00 00	 mov	 DWORD PTR ?CurrentToken@@3W4SMDToken@@A, 35 ; 00000023H
  00120	a1 00 00 00 00	 mov	 eax, DWORD PTR ?CurrentToken@@3W4SMDToken@@A
  00125	e9 17 02 00 00	 jmp	 $LN7@GetToken
$LN19@GetToken:

; 47   : 	case ';':
; 48   : 		return CurrentToken = SEMICOLON;

  0012a	c7 05 00 00 00
	00 3b 00 00 00	 mov	 DWORD PTR ?CurrentToken@@3W4SMDToken@@A, 59 ; 0000003bH
  00134	a1 00 00 00 00	 mov	 eax, DWORD PTR ?CurrentToken@@3W4SMDToken@@A
  00139	e9 03 02 00 00	 jmp	 $LN7@GetToken
$LN20@GetToken:

; 49   : 	case ',':
; 50   : 		return CurrentToken = COMMA;

  0013e	c7 05 00 00 00
	00 2c 00 00 00	 mov	 DWORD PTR ?CurrentToken@@3W4SMDToken@@A, 44 ; 0000002cH
  00148	a1 00 00 00 00	 mov	 eax, DWORD PTR ?CurrentToken@@3W4SMDToken@@A
  0014d	e9 ef 01 00 00	 jmp	 $LN7@GetToken
$LN21@GetToken:

; 51   : 	case '{':
; 52   : 		return CurrentToken = LP;

  00152	c7 05 00 00 00
	00 7b 00 00 00	 mov	 DWORD PTR ?CurrentToken@@3W4SMDToken@@A, 123 ; 0000007bH
  0015c	a1 00 00 00 00	 mov	 eax, DWORD PTR ?CurrentToken@@3W4SMDToken@@A
  00161	e9 db 01 00 00	 jmp	 $LN7@GetToken
$LN22@GetToken:

; 53   : 	case '}':
; 54   : 		return CurrentToken = RP;

  00166	c7 05 00 00 00
	00 7d 00 00 00	 mov	 DWORD PTR ?CurrentToken@@3W4SMDToken@@A, 125 ; 0000007dH
  00170	a1 00 00 00 00	 mov	 eax, DWORD PTR ?CurrentToken@@3W4SMDToken@@A
  00175	e9 c7 01 00 00	 jmp	 $LN7@GetToken
$LN23@GetToken:

; 55   : 	case '0':	case '1':	case '2':	case '3':	case '4':
; 56   : 	case '5':	case '6':	case '7':	case '8':	case '9':
; 57   : 	case '.':	case '-':
; 58   : 		ungetc(ch,SMDFile);

  0017a	a1 00 00 00 00	 mov	 eax, DWORD PTR ?SMDFile@@3PAU_iobuf@@A
  0017f	50		 push	 eax
  00180	0f b6 4d fb	 movzx	 ecx, BYTE PTR _ch$[ebp]
  00184	51		 push	 ecx
  00185	e8 00 00 00 00	 call	 _ungetc
  0018a	83 c4 08	 add	 esp, 8

; 59   : 		p = TempString;

  0018d	8d 45 90	 lea	 eax, DWORD PTR _TempString$[ebp]
  00190	89 45 f4	 mov	 DWORD PTR _p$[ebp], eax
$LN9@GetToken:

; 60   : 		while ( (  (ch = getc(SMDFile) ) !=(BYTE)EOF) && (ch=='.' || isdigit(ch) || ch=='-') )

  00193	a1 00 00 00 00	 mov	 eax, DWORD PTR ?SMDFile@@3PAU_iobuf@@A
  00198	50		 push	 eax
  00199	e8 00 00 00 00	 call	 _getc
  0019e	83 c4 04	 add	 esp, 4
  001a1	88 45 fb	 mov	 BYTE PTR _ch$[ebp], al
  001a4	0f b6 4d fb	 movzx	 ecx, BYTE PTR _ch$[ebp]
  001a8	81 f9 ff 00 00
	00		 cmp	 ecx, 255		; 000000ffH
  001ae	74 36		 je	 SHORT $LN10@GetToken
  001b0	0f b6 45 fb	 movzx	 eax, BYTE PTR _ch$[ebp]
  001b4	83 f8 2e	 cmp	 eax, 46			; 0000002eH
  001b7	74 1a		 je	 SHORT $LN24@GetToken
  001b9	0f b6 45 fb	 movzx	 eax, BYTE PTR _ch$[ebp]
  001bd	50		 push	 eax
  001be	e8 00 00 00 00	 call	 _isdigit
  001c3	83 c4 04	 add	 esp, 4
  001c6	85 c0		 test	 eax, eax
  001c8	75 09		 jne	 SHORT $LN24@GetToken
  001ca	0f b6 45 fb	 movzx	 eax, BYTE PTR _ch$[ebp]
  001ce	83 f8 2d	 cmp	 eax, 45			; 0000002dH
  001d1	75 13		 jne	 SHORT $LN10@GetToken
$LN24@GetToken:

; 61   : 			*p++ = ch;

  001d3	8b 45 f4	 mov	 eax, DWORD PTR _p$[ebp]
  001d6	8a 4d fb	 mov	 cl, BYTE PTR _ch$[ebp]
  001d9	88 08		 mov	 BYTE PTR [eax], cl
  001db	8b 55 f4	 mov	 edx, DWORD PTR _p$[ebp]
  001de	83 c2 01	 add	 edx, 1
  001e1	89 55 f4	 mov	 DWORD PTR _p$[ebp], edx
  001e4	eb ad		 jmp	 SHORT $LN9@GetToken
$LN10@GetToken:

; 62   : 		*p = 0;

  001e6	8b 45 f4	 mov	 eax, DWORD PTR _p$[ebp]
  001e9	c6 00 00	 mov	 BYTE PTR [eax], 0

; 63   : 		TokenNumber = (float)atof(TempString);

  001ec	8d 45 90	 lea	 eax, DWORD PTR _TempString$[ebp]
  001ef	50		 push	 eax
  001f0	e8 00 00 00 00	 call	 _atof
  001f5	83 c4 04	 add	 esp, 4
  001f8	d9 1d 00 00 00
	00		 fstp	 DWORD PTR ?TokenNumber@@3MA

; 64   : 		//			sscanf(TempString," %f ",&TokenNumber);
; 65   : 		return CurrentToken = NUMBER;

  001fe	c7 05 00 00 00
	00 01 00 00 00	 mov	 DWORD PTR ?CurrentToken@@3W4SMDToken@@A, 1
  00208	a1 00 00 00 00	 mov	 eax, DWORD PTR ?CurrentToken@@3W4SMDToken@@A
  0020d	e9 2f 01 00 00	 jmp	 $LN7@GetToken
$LN25@GetToken:

; 66   : 	case '"':
; 67   : 		p = TokenString;

  00212	c7 45 f4 00 00
	00 00		 mov	 DWORD PTR _p$[ebp], OFFSET ?TokenString@@3PADA
$LN11@GetToken:

; 68   : 		while ( (  (ch = getc(SMDFile) ) !=(BYTE)EOF) && (ch!='"'))// || isalnum(ch)) )

  00219	a1 00 00 00 00	 mov	 eax, DWORD PTR ?SMDFile@@3PAU_iobuf@@A
  0021e	50		 push	 eax
  0021f	e8 00 00 00 00	 call	 _getc
  00224	83 c4 04	 add	 esp, 4
  00227	88 45 fb	 mov	 BYTE PTR _ch$[ebp], al
  0022a	0f b6 4d fb	 movzx	 ecx, BYTE PTR _ch$[ebp]
  0022e	81 f9 ff 00 00
	00		 cmp	 ecx, 255		; 000000ffH
  00234	74 1c		 je	 SHORT $LN12@GetToken
  00236	0f b6 45 fb	 movzx	 eax, BYTE PTR _ch$[ebp]
  0023a	83 f8 22	 cmp	 eax, 34			; 00000022H
  0023d	74 13		 je	 SHORT $LN12@GetToken

; 69   : 			*p++ = ch;

  0023f	8b 45 f4	 mov	 eax, DWORD PTR _p$[ebp]
  00242	8a 4d fb	 mov	 cl, BYTE PTR _ch$[ebp]
  00245	88 08		 mov	 BYTE PTR [eax], cl
  00247	8b 55 f4	 mov	 edx, DWORD PTR _p$[ebp]
  0024a	83 c2 01	 add	 edx, 1
  0024d	89 55 f4	 mov	 DWORD PTR _p$[ebp], edx
  00250	eb c7		 jmp	 SHORT $LN11@GetToken
$LN12@GetToken:

; 70   : 		if (ch!='"')

  00252	0f b6 45 fb	 movzx	 eax, BYTE PTR _ch$[ebp]
  00256	83 f8 22	 cmp	 eax, 34			; 00000022H
  00259	74 13		 je	 SHORT $LN26@GetToken

; 71   : 			ungetc(ch,SMDFile);

  0025b	a1 00 00 00 00	 mov	 eax, DWORD PTR ?SMDFile@@3PAU_iobuf@@A
  00260	50		 push	 eax
  00261	0f b6 4d fb	 movzx	 ecx, BYTE PTR _ch$[ebp]
  00265	51		 push	 ecx
  00266	e8 00 00 00 00	 call	 _ungetc
  0026b	83 c4 08	 add	 esp, 8
$LN26@GetToken:

; 72   : 		*p = 0;

  0026e	8b 45 f4	 mov	 eax, DWORD PTR _p$[ebp]
  00271	c6 00 00	 mov	 BYTE PTR [eax], 0

; 73   : 		return CurrentToken = NAME;

  00274	c7 05 00 00 00
	00 00 00 00 00	 mov	 DWORD PTR ?CurrentToken@@3W4SMDToken@@A, 0
  0027e	a1 00 00 00 00	 mov	 eax, DWORD PTR ?CurrentToken@@3W4SMDToken@@A
  00283	e9 b9 00 00 00	 jmp	 $LN7@GetToken
$LN27@GetToken:

; 74   : 	default:
; 75   : 		if (isalpha(ch))	

  00288	0f b6 45 fb	 movzx	 eax, BYTE PTR _ch$[ebp]
  0028c	50		 push	 eax
  0028d	e8 00 00 00 00	 call	 _isalpha
  00292	83 c4 04	 add	 esp, 4
  00295	85 c0		 test	 eax, eax
  00297	0f 84 95 00 00
	00		 je	 $LN28@GetToken

; 76   : 		{
; 77   : 			p = TokenString;

  0029d	c7 45 f4 00 00
	00 00		 mov	 DWORD PTR _p$[ebp], OFFSET ?TokenString@@3PADA

; 78   : 			*p++ = ch;

  002a4	8b 45 f4	 mov	 eax, DWORD PTR _p$[ebp]
  002a7	8a 4d fb	 mov	 cl, BYTE PTR _ch$[ebp]
  002aa	88 08		 mov	 BYTE PTR [eax], cl
  002ac	8b 55 f4	 mov	 edx, DWORD PTR _p$[ebp]
  002af	83 c2 01	 add	 edx, 1
  002b2	89 55 f4	 mov	 DWORD PTR _p$[ebp], edx
$LN13@GetToken:

; 79   : 			while ( (  (ch = getc(SMDFile) ) !=(BYTE)EOF) && (ch=='.' || ch=='_' || isalnum(ch)) )

  002b5	a1 00 00 00 00	 mov	 eax, DWORD PTR ?SMDFile@@3PAU_iobuf@@A
  002ba	50		 push	 eax
  002bb	e8 00 00 00 00	 call	 _getc
  002c0	83 c4 04	 add	 esp, 4
  002c3	88 45 fb	 mov	 BYTE PTR _ch$[ebp], al
  002c6	0f b6 4d fb	 movzx	 ecx, BYTE PTR _ch$[ebp]
  002ca	81 f9 ff 00 00
	00		 cmp	 ecx, 255		; 000000ffH
  002d0	74 36		 je	 SHORT $LN14@GetToken
  002d2	0f b6 45 fb	 movzx	 eax, BYTE PTR _ch$[ebp]
  002d6	83 f8 2e	 cmp	 eax, 46			; 0000002eH
  002d9	74 1a		 je	 SHORT $LN29@GetToken
  002db	0f b6 45 fb	 movzx	 eax, BYTE PTR _ch$[ebp]
  002df	83 f8 5f	 cmp	 eax, 95			; 0000005fH
  002e2	74 11		 je	 SHORT $LN29@GetToken
  002e4	0f b6 45 fb	 movzx	 eax, BYTE PTR _ch$[ebp]
  002e8	50		 push	 eax
  002e9	e8 00 00 00 00	 call	 _isalnum
  002ee	83 c4 04	 add	 esp, 4
  002f1	85 c0		 test	 eax, eax
  002f3	74 13		 je	 SHORT $LN14@GetToken
$LN29@GetToken:

; 80   : 				*p++ = ch;

  002f5	8b 45 f4	 mov	 eax, DWORD PTR _p$[ebp]
  002f8	8a 4d fb	 mov	 cl, BYTE PTR _ch$[ebp]
  002fb	88 08		 mov	 BYTE PTR [eax], cl
  002fd	8b 55 f4	 mov	 edx, DWORD PTR _p$[ebp]
  00300	83 c2 01	 add	 edx, 1
  00303	89 55 f4	 mov	 DWORD PTR _p$[ebp], edx
  00306	eb ad		 jmp	 SHORT $LN13@GetToken
$LN14@GetToken:

; 81   : 			ungetc(ch,SMDFile);

  00308	a1 00 00 00 00	 mov	 eax, DWORD PTR ?SMDFile@@3PAU_iobuf@@A
  0030d	50		 push	 eax
  0030e	0f b6 4d fb	 movzx	 ecx, BYTE PTR _ch$[ebp]
  00312	51		 push	 ecx
  00313	e8 00 00 00 00	 call	 _ungetc
  00318	83 c4 08	 add	 esp, 8

; 82   : 			*p = 0;

  0031b	8b 45 f4	 mov	 eax, DWORD PTR _p$[ebp]
  0031e	c6 00 00	 mov	 BYTE PTR [eax], 0

; 83   : 			return CurrentToken = NAME;

  00321	c7 05 00 00 00
	00 00 00 00 00	 mov	 DWORD PTR ?CurrentToken@@3W4SMDToken@@A, 0
  0032b	a1 00 00 00 00	 mov	 eax, DWORD PTR ?CurrentToken@@3W4SMDToken@@A
  00330	eb 0f		 jmp	 SHORT $LN7@GetToken
$LN28@GetToken:

; 84   : 		}
; 85   : 		return CurrentToken = SMD_ERROR;

  00332	c7 05 00 00 00
	00 3c 00 00 00	 mov	 DWORD PTR ?CurrentToken@@3W4SMDToken@@A, 60 ; 0000003cH
  0033c	a1 00 00 00 00	 mov	 eax, DWORD PTR ?CurrentToken@@3W4SMDToken@@A
$LN7@GetToken:

; 86   : 	}
; 87   : }

  00341	5f		 pop	 edi
  00342	5e		 pop	 esi
  00343	5b		 pop	 ebx
  00344	8b 4d fc	 mov	 ecx, DWORD PTR __$ArrayPad$[ebp]
  00347	33 cd		 xor	 ecx, ebp
  00349	e8 00 00 00 00	 call	 @__security_check_cookie@4
  0034e	8b e5		 mov	 esp, ebp
  00350	5d		 pop	 ebp
  00351	c3		 ret	 0
  00352	66 90		 npad	 2
$LN34@GetToken:
  00354	00 00 00 00	 DD	 $LN25@GetToken
  00358	00 00 00 00	 DD	 $LN18@GetToken
  0035c	00 00 00 00	 DD	 $LN20@GetToken
  00360	00 00 00 00	 DD	 $LN23@GetToken
  00364	00 00 00 00	 DD	 $LN19@GetToken
  00368	00 00 00 00	 DD	 $LN21@GetToken
  0036c	00 00 00 00	 DD	 $LN22@GetToken
  00370	00 00 00 00	 DD	 $LN27@GetToken
$LN33@GetToken:
  00374	00		 DB	 0
  00375	01		 DB	 1
  00376	07		 DB	 7
  00377	07		 DB	 7
  00378	07		 DB	 7
  00379	07		 DB	 7
  0037a	07		 DB	 7
  0037b	07		 DB	 7
  0037c	07		 DB	 7
  0037d	07		 DB	 7
  0037e	02		 DB	 2
  0037f	03		 DB	 3
  00380	03		 DB	 3
  00381	07		 DB	 7
  00382	03		 DB	 3
  00383	03		 DB	 3
  00384	03		 DB	 3
  00385	03		 DB	 3
  00386	03		 DB	 3
  00387	03		 DB	 3
  00388	03		 DB	 3
  00389	03		 DB	 3
  0038a	03		 DB	 3
  0038b	03		 DB	 3
  0038c	07		 DB	 7
  0038d	04		 DB	 4
  0038e	07		 DB	 7
  0038f	07		 DB	 7
  00390	07		 DB	 7
  00391	07		 DB	 7
  00392	07		 DB	 7
  00393	07		 DB	 7
  00394	07		 DB	 7
  00395	07		 DB	 7
  00396	07		 DB	 7
  00397	07		 DB	 7
  00398	07		 DB	 7
  00399	07		 DB	 7
  0039a	07		 DB	 7
  0039b	07		 DB	 7
  0039c	07		 DB	 7
  0039d	07		 DB	 7
  0039e	07		 DB	 7
  0039f	07		 DB	 7
  003a0	07		 DB	 7
  003a1	07		 DB	 7
  003a2	07		 DB	 7
  003a3	07		 DB	 7
  003a4	07		 DB	 7
  003a5	07		 DB	 7
  003a6	07		 DB	 7
  003a7	07		 DB	 7
  003a8	07		 DB	 7
  003a9	07		 DB	 7
  003aa	07		 DB	 7
  003ab	07		 DB	 7
  003ac	07		 DB	 7
  003ad	07		 DB	 7
  003ae	07		 DB	 7
  003af	07		 DB	 7
  003b0	07		 DB	 7
  003b1	07		 DB	 7
  003b2	07		 DB	 7
  003b3	07		 DB	 7
  003b4	07		 DB	 7
  003b5	07		 DB	 7
  003b6	07		 DB	 7
  003b7	07		 DB	 7
  003b8	07		 DB	 7
  003b9	07		 DB	 7
  003ba	07		 DB	 7
  003bb	07		 DB	 7
  003bc	07		 DB	 7
  003bd	07		 DB	 7
  003be	07		 DB	 7
  003bf	07		 DB	 7
  003c0	07		 DB	 7
  003c1	07		 DB	 7
  003c2	07		 DB	 7
  003c3	07		 DB	 7
  003c4	07		 DB	 7
  003c5	07		 DB	 7
  003c6	07		 DB	 7
  003c7	07		 DB	 7
  003c8	07		 DB	 7
  003c9	07		 DB	 7
  003ca	07		 DB	 7
  003cb	07		 DB	 7
  003cc	07		 DB	 7
  003cd	05		 DB	 5
  003ce	07		 DB	 7
  003cf	06		 DB	 6
?GetToken@@YA?AW4SMDToken@@XZ ENDP			; GetToken
_TEXT	ENDS
; Function compile flags: /Odtp /ZI
;	COMDAT ??__Fg_BloodCastle@@YAXXZ
text$yd	SEGMENT
??__Fg_BloodCastle@@YAXXZ PROC				; `dynamic atexit destructor for 'g_BloodCastle'', COMDAT
  00000	55		 push	 ebp
  00001	8b ec		 mov	 ebp, esp
  00003	83 ec 40	 sub	 esp, 64			; 00000040H
  00006	53		 push	 ebx
  00007	56		 push	 esi
  00008	57		 push	 edi
  00009	b9 00 00 00 00	 mov	 ecx, OFFSET ?g_BloodCastle@@3VCBloodCastle@@A ; g_BloodCastle
  0000e	e8 00 00 00 00	 call	 ??1CBloodCastle@@UAE@XZ	; CBloodCastle::~CBloodCastle
  00013	5f		 pop	 edi
  00014	5e		 pop	 esi
  00015	5b		 pop	 ebx
  00016	8b e5		 mov	 esp, ebp
  00018	5d		 pop	 ebp
  00019	c3		 ret	 0
??__Fg_BloodCastle@@YAXXZ ENDP				; `dynamic atexit destructor for 'g_BloodCastle''
text$yd	ENDS
; Function compile flags: /Odtp /ZI
; File C:\Mu Online\Mu-GS-Webzen-MC-10093\GameServer\BloodCastle.cpp
;	COMDAT ??__Eg_BloodCastle@@YAXXZ
text$di	SEGMENT
??__Eg_BloodCastle@@YAXXZ PROC				; `dynamic initializer for 'g_BloodCastle'', COMDAT

; 8    : CBloodCastle			g_BloodCastle;		//    

  00000	55		 push	 ebp
  00001	8b ec		 mov	 ebp, esp
  00003	83 ec 40	 sub	 esp, 64			; 00000040H
  00006	53		 push	 ebx
  00007	56		 push	 esi
  00008	57		 push	 edi
  00009	b9 00 00 00 00	 mov	 ecx, OFFSET ?g_BloodCastle@@3VCBloodCastle@@A ; g_BloodCastle
  0000e	e8 00 00 00 00	 call	 ??0CBloodCastle@@QAE@XZ	; CBloodCastle::CBloodCastle
  00013	68 00 00 00 00	 push	 OFFSET ??__Fg_BloodCastle@@YAXXZ ; `dynamic atexit destructor for 'g_BloodCastle''
  00018	e8 00 00 00 00	 call	 _atexit
  0001d	83 c4 04	 add	 esp, 4
  00020	5f		 pop	 edi
  00021	5e		 pop	 esi
  00022	5b		 pop	 ebx
  00023	8b e5		 mov	 esp, ebp
  00025	5d		 pop	 ebp
  00026	c3		 ret	 0
??__Eg_BloodCastle@@YAXXZ ENDP				; `dynamic initializer for 'g_BloodCastle''
text$di	ENDS
; Function compile flags: /Odtp /ZI
;	COMDAT ??_GCBloodCastle@@UAEPAXI@Z
_TEXT	SEGMENT
_this$ = -4						; size = 4
___flags$ = 8						; size = 4
??_GCBloodCastle@@UAEPAXI@Z PROC			; CBloodCastle::`scalar deleting destructor', COMDAT
; _this$ = ecx
  00000	55		 push	 ebp
  00001	8b ec		 mov	 ebp, esp
  00003	83 ec 44	 sub	 esp, 68			; 00000044H
  00006	53		 push	 ebx
  00007	56		 push	 esi
  00008	57		 push	 edi
  00009	89 4d fc	 mov	 DWORD PTR _this$[ebp], ecx
  0000c	8b 4d fc	 mov	 ecx, DWORD PTR _this$[ebp]
  0000f	e8 00 00 00 00	 call	 ??1CBloodCastle@@UAE@XZ	; CBloodCastle::~CBloodCastle
  00014	8b 45 08	 mov	 eax, DWORD PTR ___flags$[ebp]
  00017	83 e0 01	 and	 eax, 1
  0001a	74 11		 je	 SHORT $LN2@scalar
  0001c	68 74 0e 00 00	 push	 3700			; 00000e74H
  00021	8b 45 fc	 mov	 eax, DWORD PTR _this$[ebp]
  00024	50		 push	 eax
  00025	e8 00 00 00 00	 call	 ??3@YAXPAXI@Z		; operator delete
  0002a	83 c4 08	 add	 esp, 8
$LN2@scalar:
  0002d	8b 45 fc	 mov	 eax, DWORD PTR _this$[ebp]
  00030	5f		 pop	 edi
  00031	5e		 pop	 esi
  00032	5b		 pop	 ebx
  00033	8b e5		 mov	 esp, ebp
  00035	5d		 pop	 ebp
  00036	c2 04 00	 ret	 4
??_GCBloodCastle@@UAEPAXI@Z ENDP			; CBloodCastle::`scalar deleting destructor'
_TEXT	ENDS
; Function compile flags: /Odtp /ZI
; File C:\Mu Online\Mu-GS-Webzen-MC-10093\GameServer\BloodCastle.cpp
;	COMDAT ?GetAliveUserTotalEXP@CBloodCastle@@IAEHH@Z
_TEXT	SEGMENT
tv149 = -84						; size = 4
tv66 = -84						; size = 4
tv150 = -80						; size = 4
tv67 = -80						; size = 4
_i$1 = -12						; size = 4
_iRET_EXP$ = -8						; size = 4
_this$ = -4						; size = 4
_iBridgeIndex$ = 8					; size = 4
?GetAliveUserTotalEXP@CBloodCastle@@IAEHH@Z PROC	; CBloodCastle::GetAliveUserTotalEXP, COMDAT
; _this$ = ecx

; 2884 : {

  00000	55		 push	 ebp
  00001	8b ec		 mov	 ebp, esp
  00003	83 ec 54	 sub	 esp, 84			; 00000054H
  00006	53		 push	 ebx
  00007	56		 push	 esi
  00008	57		 push	 edi
  00009	89 4d fc	 mov	 DWORD PTR _this$[ebp], ecx

; 2885 : 	if (!CHECK_LIMIT(iBridgeIndex, MAX_BLOODCASTLE_BRIDGE_COUNT))

  0000c	83 7d 08 00	 cmp	 DWORD PTR _iBridgeIndex$[ebp], 0
  00010	7d 09		 jge	 SHORT $LN11@GetAliveUs
  00012	c7 45 b0 00 00
	00 00		 mov	 DWORD PTR tv67[ebp], 0
  00019	eb 1c		 jmp	 SHORT $LN12@GetAliveUs
$LN11@GetAliveUs:
  0001b	83 7d 08 06	 cmp	 DWORD PTR _iBridgeIndex$[ebp], 6
  0001f	7e 09		 jle	 SHORT $LN9@GetAliveUs
  00021	c7 45 ac 00 00
	00 00		 mov	 DWORD PTR tv66[ebp], 0
  00028	eb 07		 jmp	 SHORT $LN10@GetAliveUs
$LN9@GetAliveUs:
  0002a	c7 45 ac 01 00
	00 00		 mov	 DWORD PTR tv66[ebp], 1
$LN10@GetAliveUs:
  00031	8b 45 ac	 mov	 eax, DWORD PTR tv66[ebp]
  00034	89 45 b0	 mov	 DWORD PTR tv67[ebp], eax
$LN12@GetAliveUs:
  00037	83 7d b0 00	 cmp	 DWORD PTR tv67[ebp], 0
  0003b	75 07		 jne	 SHORT $LN5@GetAliveUs

; 2886 : 		return 0;

  0003d	33 c0		 xor	 eax, eax
  0003f	e9 0d 01 00 00	 jmp	 $LN1@GetAliveUs
$LN5@GetAliveUs:

; 2887 : 
; 2888 : 	int iRET_EXP = 0;

  00044	c7 45 f8 00 00
	00 00		 mov	 DWORD PTR _iRET_EXP$[ebp], 0

; 2889 : 
; 2890 : 	for (int i = 0 ; i < MAX_BLOODCASTLE_USER_COUNT ; i++) {

  0004b	c7 45 f4 00 00
	00 00		 mov	 DWORD PTR _i$1[ebp], 0
  00052	eb 09		 jmp	 SHORT $LN4@GetAliveUs
$LN2@GetAliveUs:
  00054	8b 45 f4	 mov	 eax, DWORD PTR _i$1[ebp]
  00057	83 c0 01	 add	 eax, 1
  0005a	89 45 f4	 mov	 DWORD PTR _i$1[ebp], eax
$LN4@GetAliveUs:
  0005d	83 7d f4 0a	 cmp	 DWORD PTR _i$1[ebp], 10	; 0000000aH
  00061	0f 8d e7 00 00
	00		 jge	 $LN3@GetAliveUs

; 2891 : 		if ((m_BridgeData[iBridgeIndex].m_UserData[i].m_iIndex != -1) && (gObj[m_BridgeData[iBridgeIndex].m_UserData[i].m_iIndex].Connected > 2)) {

  00067	69 45 08 04 02
	00 00		 imul	 eax, DWORD PTR _iBridgeIndex$[ebp], 516
  0006e	8b 4d fc	 mov	 ecx, DWORD PTR _this$[ebp]
  00071	8d 54 01 04	 lea	 edx, DWORD PTR [ecx+eax+4]
  00075	6b 45 f4 14	 imul	 eax, DWORD PTR _i$1[ebp], 20
  00079	83 7c 02 18 ff	 cmp	 DWORD PTR [edx+eax+24], -1
  0007e	0f 84 c5 00 00
	00		 je	 $LN6@GetAliveUs
  00084	69 45 08 04 02
	00 00		 imul	 eax, DWORD PTR _iBridgeIndex$[ebp], 516
  0008b	8b 4d fc	 mov	 ecx, DWORD PTR _this$[ebp]
  0008e	8d 54 01 04	 lea	 edx, DWORD PTR [ecx+eax+4]
  00092	6b 45 f4 14	 imul	 eax, DWORD PTR _i$1[ebp], 20
  00096	69 4c 02 18 a0
	1b 00 00	 imul	 ecx, DWORD PTR [edx+eax+24], 7072
  0009e	8b 15 00 00 00
	00		 mov	 edx, DWORD PTR ?gObj@@3PAVOBJECTSTRUCT@@A ; gObj
  000a4	83 7c 0a 04 02	 cmp	 DWORD PTR [edx+ecx+4], 2
  000a9	0f 8e 9a 00 00
	00		 jle	 $LN6@GetAliveUs

; 2892 : 			if (CHECK_BLOODCASTLE(gObj[m_BridgeData[iBridgeIndex].m_UserData[i].m_iIndex].MapNumber)) {

  000af	69 45 08 04 02
	00 00		 imul	 eax, DWORD PTR _iBridgeIndex$[ebp], 516
  000b6	8b 4d fc	 mov	 ecx, DWORD PTR _this$[ebp]
  000b9	8d 54 01 04	 lea	 edx, DWORD PTR [ecx+eax+4]
  000bd	6b 45 f4 14	 imul	 eax, DWORD PTR _i$1[ebp], 20
  000c1	69 4c 02 18 a0
	1b 00 00	 imul	 ecx, DWORD PTR [edx+eax+24], 7072
  000c9	8b 15 00 00 00
	00		 mov	 edx, DWORD PTR ?gObj@@3PAVOBJECTSTRUCT@@A ; gObj
  000cf	0f b6 84 0a 09
	01 00 00	 movzx	 eax, BYTE PTR [edx+ecx+265]
  000d7	83 f8 0b	 cmp	 eax, 11			; 0000000bH
  000da	7d 09		 jge	 SHORT $LN15@GetAliveUs
  000dc	c7 45 b0 00 00
	00 00		 mov	 DWORD PTR tv150[ebp], 0
  000e3	eb 42		 jmp	 SHORT $LN16@GetAliveUs
$LN15@GetAliveUs:
  000e5	69 4d 08 04 02
	00 00		 imul	 ecx, DWORD PTR _iBridgeIndex$[ebp], 516
  000ec	8b 55 fc	 mov	 edx, DWORD PTR _this$[ebp]
  000ef	8d 44 0a 04	 lea	 eax, DWORD PTR [edx+ecx+4]
  000f3	6b 4d f4 14	 imul	 ecx, DWORD PTR _i$1[ebp], 20
  000f7	69 54 08 18 a0
	1b 00 00	 imul	 edx, DWORD PTR [eax+ecx+24], 7072
  000ff	a1 00 00 00 00	 mov	 eax, DWORD PTR ?gObj@@3PAVOBJECTSTRUCT@@A ; gObj
  00104	0f b6 8c 10 09
	01 00 00	 movzx	 ecx, BYTE PTR [eax+edx+265]
  0010c	83 f9 11	 cmp	 ecx, 17			; 00000011H
  0010f	7e 09		 jle	 SHORT $LN13@GetAliveUs
  00111	c7 45 ac 00 00
	00 00		 mov	 DWORD PTR tv149[ebp], 0
  00118	eb 07		 jmp	 SHORT $LN14@GetAliveUs
$LN13@GetAliveUs:
  0011a	c7 45 ac 01 00
	00 00		 mov	 DWORD PTR tv149[ebp], 1
$LN14@GetAliveUs:
  00121	8b 55 ac	 mov	 edx, DWORD PTR tv149[ebp]
  00124	89 55 b0	 mov	 DWORD PTR tv150[ebp], edx
$LN16@GetAliveUs:
  00127	83 7d b0 00	 cmp	 DWORD PTR tv150[ebp], 0
  0012b	74 1c		 je	 SHORT $LN6@GetAliveUs

; 2893 : 				iRET_EXP += m_BridgeData[iBridgeIndex].m_UserData[i].m_iEXP;

  0012d	69 45 08 04 02
	00 00		 imul	 eax, DWORD PTR _iBridgeIndex$[ebp], 516
  00134	8b 4d fc	 mov	 ecx, DWORD PTR _this$[ebp]
  00137	8d 54 01 04	 lea	 edx, DWORD PTR [ecx+eax+4]
  0013b	6b 45 f4 14	 imul	 eax, DWORD PTR _i$1[ebp], 20
  0013f	8b 4d f8	 mov	 ecx, DWORD PTR _iRET_EXP$[ebp]
  00142	03 4c 02 1c	 add	 ecx, DWORD PTR [edx+eax+28]
  00146	89 4d f8	 mov	 DWORD PTR _iRET_EXP$[ebp], ecx
$LN6@GetAliveUs:

; 2894 : 			}
; 2895 : 		}
; 2896 : 	}

  00149	e9 06 ff ff ff	 jmp	 $LN2@GetAliveUs
$LN3@GetAliveUs:

; 2897 : 
; 2898 : 	return iRET_EXP;

  0014e	8b 45 f8	 mov	 eax, DWORD PTR _iRET_EXP$[ebp]
$LN1@GetAliveUs:

; 2899 : }

  00151	5f		 pop	 edi
  00152	5e		 pop	 esi
  00153	5b		 pop	 ebx
  00154	8b e5		 mov	 esp, ebp
  00156	5d		 pop	 ebp
  00157	c2 04 00	 ret	 4
?GetAliveUserTotalEXP@CBloodCastle@@IAEHH@Z ENDP	; CBloodCastle::GetAliveUserTotalEXP
_TEXT	ENDS
; Function compile flags: /Odtp /ZI
; File C:\Mu Online\Mu-GS-Webzen-MC-10093\GameServer\BloodCastle.cpp
;	COMDAT ?ReleaseSector@CBloodCastle@@IAEXHHHHH@Z
_TEXT	SEGMENT
tv66 = -84						; size = 4
tv67 = -80						; size = 4
_j$1 = -12						; size = 4
_i$2 = -8						; size = 4
_this$ = -4						; size = 4
_iMAP_NUM$ = 8						; size = 4
_iSTART_X$ = 12						; size = 4
_iSTART_Y$ = 16						; size = 4
_iEND_X$ = 20						; size = 4
_iEND_Y$ = 24						; size = 4
?ReleaseSector@CBloodCastle@@IAEXHHHHH@Z PROC		; CBloodCastle::ReleaseSector, COMDAT
; _this$ = ecx

; 2654 : {

  00000	55		 push	 ebp
  00001	8b ec		 mov	 ebp, esp
  00003	83 ec 54	 sub	 esp, 84			; 00000054H
  00006	53		 push	 ebx
  00007	56		 push	 esi
  00008	57		 push	 edi
  00009	89 4d fc	 mov	 DWORD PTR _this$[ebp], ecx

; 2655 : 	if(!CHECK_BLOODCASTLE(iMAP_NUM))

  0000c	83 7d 08 0b	 cmp	 DWORD PTR _iMAP_NUM$[ebp], 11 ; 0000000bH
  00010	7d 09		 jge	 SHORT $LN12@ReleaseSec
  00012	c7 45 b0 00 00
	00 00		 mov	 DWORD PTR tv67[ebp], 0
  00019	eb 1c		 jmp	 SHORT $LN13@ReleaseSec
$LN12@ReleaseSec:
  0001b	83 7d 08 11	 cmp	 DWORD PTR _iMAP_NUM$[ebp], 17 ; 00000011H
  0001f	7e 09		 jle	 SHORT $LN10@ReleaseSec
  00021	c7 45 ac 00 00
	00 00		 mov	 DWORD PTR tv66[ebp], 0
  00028	eb 07		 jmp	 SHORT $LN11@ReleaseSec
$LN10@ReleaseSec:
  0002a	c7 45 ac 01 00
	00 00		 mov	 DWORD PTR tv66[ebp], 1
$LN11@ReleaseSec:
  00031	8b 45 ac	 mov	 eax, DWORD PTR tv66[ebp]
  00034	89 45 b0	 mov	 DWORD PTR tv67[ebp], eax
$LN13@ReleaseSec:
  00037	83 7d b0 00	 cmp	 DWORD PTR tv67[ebp], 0
  0003b	75 02		 jne	 SHORT $LN8@ReleaseSec

; 2656 : 		return;

  0003d	eb 74		 jmp	 SHORT $LN1@ReleaseSec
$LN8@ReleaseSec:

; 2657 : 
; 2658 : 	for (INT i = iSTART_X ; i <= iEND_X ; i++) {

  0003f	8b 45 0c	 mov	 eax, DWORD PTR _iSTART_X$[ebp]
  00042	89 45 f8	 mov	 DWORD PTR _i$2[ebp], eax
  00045	eb 09		 jmp	 SHORT $LN4@ReleaseSec
$LN2@ReleaseSec:
  00047	8b 45 f8	 mov	 eax, DWORD PTR _i$2[ebp]
  0004a	83 c0 01	 add	 eax, 1
  0004d	89 45 f8	 mov	 DWORD PTR _i$2[ebp], eax
$LN4@ReleaseSec:
  00050	8b 45 f8	 mov	 eax, DWORD PTR _i$2[ebp]
  00053	3b 45 14	 cmp	 eax, DWORD PTR _iEND_X$[ebp]
  00056	7f 5b		 jg	 SHORT $LN1@ReleaseSec

; 2659 : 		for (INT j = iSTART_Y ; j <= iEND_Y ; j++) {

  00058	8b 45 10	 mov	 eax, DWORD PTR _iSTART_Y$[ebp]
  0005b	89 45 f4	 mov	 DWORD PTR _j$1[ebp], eax
  0005e	eb 09		 jmp	 SHORT $LN7@ReleaseSec
$LN5@ReleaseSec:
  00060	8b 45 f4	 mov	 eax, DWORD PTR _j$1[ebp]
  00063	83 c0 01	 add	 eax, 1
  00066	89 45 f4	 mov	 DWORD PTR _j$1[ebp], eax
$LN7@ReleaseSec:
  00069	8b 45 f4	 mov	 eax, DWORD PTR _j$1[ebp]
  0006c	3b 45 18	 cmp	 eax, DWORD PTR _iEND_Y$[ebp]
  0006f	7f 40		 jg	 SHORT $LN6@ReleaseSec

; 2660 : 			MapC[iMAP_NUM].m_attrbuf[(j*MAX_TERRAIN_SIZE)+i] &= ~((BYTE) MAP_ATTR_BLOCK);

  00071	69 45 08 8c 04
	05 00		 imul	 eax, DWORD PTR _iMAP_NUM$[ebp], 328844
  00078	8b 4d f4	 mov	 ecx, DWORD PTR _j$1[ebp]
  0007b	c1 e1 08	 shl	 ecx, 8
  0007e	03 4d f8	 add	 ecx, DWORD PTR _i$2[ebp]
  00081	8b 15 00 00 00
	00		 mov	 edx, DWORD PTR ?MapC@@3PAVMapClass@@A ; MapC
  00087	8b 44 02 10	 mov	 eax, DWORD PTR [edx+eax+16]
  0008b	0f b6 0c 08	 movzx	 ecx, BYTE PTR [eax+ecx]
  0008f	83 e1 fb	 and	 ecx, -5			; fffffffbH
  00092	69 55 08 8c 04
	05 00		 imul	 edx, DWORD PTR _iMAP_NUM$[ebp], 328844
  00099	8b 45 f4	 mov	 eax, DWORD PTR _j$1[ebp]
  0009c	c1 e0 08	 shl	 eax, 8
  0009f	03 45 f8	 add	 eax, DWORD PTR _i$2[ebp]
  000a2	8b 35 00 00 00
	00		 mov	 esi, DWORD PTR ?MapC@@3PAVMapClass@@A ; MapC
  000a8	8b 54 16 10	 mov	 edx, DWORD PTR [esi+edx+16]
  000ac	88 0c 02	 mov	 BYTE PTR [edx+eax], cl

; 2661 : 		}

  000af	eb af		 jmp	 SHORT $LN5@ReleaseSec
$LN6@ReleaseSec:

; 2662 : 	}

  000b1	eb 94		 jmp	 SHORT $LN2@ReleaseSec
$LN1@ReleaseSec:

; 2663 : }

  000b3	5f		 pop	 edi
  000b4	5e		 pop	 esi
  000b5	5b		 pop	 ebx
  000b6	8b e5		 mov	 esp, ebp
  000b8	5d		 pop	 ebp
  000b9	c2 14 00	 ret	 20			; 00000014H
?ReleaseSector@CBloodCastle@@IAEXHHHHH@Z ENDP		; CBloodCastle::ReleaseSector
_TEXT	ENDS
; Function compile flags: /Odtp /ZI
; File C:\Mu Online\Mu-GS-Webzen-MC-10093\GameServer\BloodCastle.cpp
;	COMDAT ?BlockSector@CBloodCastle@@IAEXHHHHH@Z
_TEXT	SEGMENT
tv66 = -84						; size = 4
tv67 = -80						; size = 4
_j$1 = -12						; size = 4
_i$2 = -8						; size = 4
_this$ = -4						; size = 4
_iMAP_NUM$ = 8						; size = 4
_iSTART_X$ = 12						; size = 4
_iSTART_Y$ = 16						; size = 4
_iEND_X$ = 20						; size = 4
_iEND_Y$ = 24						; size = 4
?BlockSector@CBloodCastle@@IAEXHHHHH@Z PROC		; CBloodCastle::BlockSector, COMDAT
; _this$ = ecx

; 2635 : {

  00000	55		 push	 ebp
  00001	8b ec		 mov	 ebp, esp
  00003	83 ec 54	 sub	 esp, 84			; 00000054H
  00006	53		 push	 ebx
  00007	56		 push	 esi
  00008	57		 push	 edi
  00009	89 4d fc	 mov	 DWORD PTR _this$[ebp], ecx

; 2636 : 	if(!CHECK_BLOODCASTLE(iMAP_NUM))

  0000c	83 7d 08 0b	 cmp	 DWORD PTR _iMAP_NUM$[ebp], 11 ; 0000000bH
  00010	7d 09		 jge	 SHORT $LN12@BlockSecto
  00012	c7 45 b0 00 00
	00 00		 mov	 DWORD PTR tv67[ebp], 0
  00019	eb 1c		 jmp	 SHORT $LN13@BlockSecto
$LN12@BlockSecto:
  0001b	83 7d 08 11	 cmp	 DWORD PTR _iMAP_NUM$[ebp], 17 ; 00000011H
  0001f	7e 09		 jle	 SHORT $LN10@BlockSecto
  00021	c7 45 ac 00 00
	00 00		 mov	 DWORD PTR tv66[ebp], 0
  00028	eb 07		 jmp	 SHORT $LN11@BlockSecto
$LN10@BlockSecto:
  0002a	c7 45 ac 01 00
	00 00		 mov	 DWORD PTR tv66[ebp], 1
$LN11@BlockSecto:
  00031	8b 45 ac	 mov	 eax, DWORD PTR tv66[ebp]
  00034	89 45 b0	 mov	 DWORD PTR tv67[ebp], eax
$LN13@BlockSecto:
  00037	83 7d b0 00	 cmp	 DWORD PTR tv67[ebp], 0
  0003b	75 02		 jne	 SHORT $LN8@BlockSecto

; 2637 : 		return;

  0003d	eb 74		 jmp	 SHORT $LN1@BlockSecto
$LN8@BlockSecto:

; 2638 : 
; 2639 : 	for (INT i = iSTART_X ; i <= iEND_X ; i++) {

  0003f	8b 45 0c	 mov	 eax, DWORD PTR _iSTART_X$[ebp]
  00042	89 45 f8	 mov	 DWORD PTR _i$2[ebp], eax
  00045	eb 09		 jmp	 SHORT $LN4@BlockSecto
$LN2@BlockSecto:
  00047	8b 45 f8	 mov	 eax, DWORD PTR _i$2[ebp]
  0004a	83 c0 01	 add	 eax, 1
  0004d	89 45 f8	 mov	 DWORD PTR _i$2[ebp], eax
$LN4@BlockSecto:
  00050	8b 45 f8	 mov	 eax, DWORD PTR _i$2[ebp]
  00053	3b 45 14	 cmp	 eax, DWORD PTR _iEND_X$[ebp]
  00056	7f 5b		 jg	 SHORT $LN1@BlockSecto

; 2640 : 		for (INT j = iSTART_Y ; j <= iEND_Y ; j++) {

  00058	8b 45 10	 mov	 eax, DWORD PTR _iSTART_Y$[ebp]
  0005b	89 45 f4	 mov	 DWORD PTR _j$1[ebp], eax
  0005e	eb 09		 jmp	 SHORT $LN7@BlockSecto
$LN5@BlockSecto:
  00060	8b 45 f4	 mov	 eax, DWORD PTR _j$1[ebp]
  00063	83 c0 01	 add	 eax, 1
  00066	89 45 f4	 mov	 DWORD PTR _j$1[ebp], eax
$LN7@BlockSecto:
  00069	8b 45 f4	 mov	 eax, DWORD PTR _j$1[ebp]
  0006c	3b 45 18	 cmp	 eax, DWORD PTR _iEND_Y$[ebp]
  0006f	7f 40		 jg	 SHORT $LN6@BlockSecto

; 2641 : 			MapC[iMAP_NUM].m_attrbuf[(j*MAX_TERRAIN_SIZE)+i] |= (BYTE) MAP_ATTR_BLOCK;

  00071	69 45 08 8c 04
	05 00		 imul	 eax, DWORD PTR _iMAP_NUM$[ebp], 328844
  00078	8b 4d f4	 mov	 ecx, DWORD PTR _j$1[ebp]
  0007b	c1 e1 08	 shl	 ecx, 8
  0007e	03 4d f8	 add	 ecx, DWORD PTR _i$2[ebp]
  00081	8b 15 00 00 00
	00		 mov	 edx, DWORD PTR ?MapC@@3PAVMapClass@@A ; MapC
  00087	8b 44 02 10	 mov	 eax, DWORD PTR [edx+eax+16]
  0008b	0f b6 0c 08	 movzx	 ecx, BYTE PTR [eax+ecx]
  0008f	83 c9 04	 or	 ecx, 4
  00092	69 55 08 8c 04
	05 00		 imul	 edx, DWORD PTR _iMAP_NUM$[ebp], 328844
  00099	8b 45 f4	 mov	 eax, DWORD PTR _j$1[ebp]
  0009c	c1 e0 08	 shl	 eax, 8
  0009f	03 45 f8	 add	 eax, DWORD PTR _i$2[ebp]
  000a2	8b 35 00 00 00
	00		 mov	 esi, DWORD PTR ?MapC@@3PAVMapClass@@A ; MapC
  000a8	8b 54 16 10	 mov	 edx, DWORD PTR [esi+edx+16]
  000ac	88 0c 02	 mov	 BYTE PTR [edx+eax], cl

; 2642 : 		}

  000af	eb af		 jmp	 SHORT $LN5@BlockSecto
$LN6@BlockSecto:

; 2643 : 	}

  000b1	eb 94		 jmp	 SHORT $LN2@BlockSecto
$LN1@BlockSecto:

; 2644 : }

  000b3	5f		 pop	 edi
  000b4	5e		 pop	 esi
  000b5	5b		 pop	 ebx
  000b6	8b e5		 mov	 esp, ebp
  000b8	5d		 pop	 ebp
  000b9	c2 14 00	 ret	 20			; 00000014H
?BlockSector@CBloodCastle@@IAEXHHHHH@Z ENDP		; CBloodCastle::BlockSector
_TEXT	ENDS
; Function compile flags: /Odtp /ZI
; File C:\Mu Online\Mu-GS-Webzen-MC-10093\GameServer\BloodCastle.cpp
;	COMDAT ?SetState_PlayEnd@CBloodCastle@@IAEXH@Z
_TEXT	SEGMENT
tv139 = -80						; size = 4
tv66 = -80						; size = 4
tv140 = -76						; size = 4
tv67 = -76						; size = 4
_n$1 = -8						; size = 4
_this$ = -4						; size = 4
_iBridgeIndex$ = 8					; size = 4
?SetState_PlayEnd@CBloodCastle@@IAEXH@Z PROC		; CBloodCastle::SetState_PlayEnd, COMDAT
; _this$ = ecx

; 1175 : {

  00000	55		 push	 ebp
  00001	8b ec		 mov	 ebp, esp
  00003	83 ec 50	 sub	 esp, 80			; 00000050H
  00006	53		 push	 ebx
  00007	56		 push	 esi
  00008	57		 push	 edi
  00009	89 4d fc	 mov	 DWORD PTR _this$[ebp], ecx

; 1176 : 	if (!CHECK_LIMIT(iBridgeIndex, MAX_BLOODCASTLE_BRIDGE_COUNT))

  0000c	83 7d 08 00	 cmp	 DWORD PTR _iBridgeIndex$[ebp], 0
  00010	7d 09		 jge	 SHORT $LN10@SetState_P
  00012	c7 45 b4 00 00
	00 00		 mov	 DWORD PTR tv67[ebp], 0
  00019	eb 1c		 jmp	 SHORT $LN11@SetState_P
$LN10@SetState_P:
  0001b	83 7d 08 06	 cmp	 DWORD PTR _iBridgeIndex$[ebp], 6
  0001f	7e 09		 jle	 SHORT $LN8@SetState_P
  00021	c7 45 b0 00 00
	00 00		 mov	 DWORD PTR tv66[ebp], 0
  00028	eb 07		 jmp	 SHORT $LN9@SetState_P
$LN8@SetState_P:
  0002a	c7 45 b0 01 00
	00 00		 mov	 DWORD PTR tv66[ebp], 1
$LN9@SetState_P:
  00031	8b 45 b0	 mov	 eax, DWORD PTR tv66[ebp]
  00034	89 45 b4	 mov	 DWORD PTR tv67[ebp], eax
$LN11@SetState_P:
  00037	83 7d b4 00	 cmp	 DWORD PTR tv67[ebp], 0
  0003b	75 05		 jne	 SHORT $LN5@SetState_P

; 1177 : 		return;

  0003d	e9 fa 00 00 00	 jmp	 $LN1@SetState_P
$LN5@SetState_P:

; 1178 : 
; 1179 : 	SendNoticeState(iBridgeIndex, BC_STATE_END);

  00042	6a 02		 push	 2
  00044	8b 45 08	 mov	 eax, DWORD PTR _iBridgeIndex$[ebp]
  00047	50		 push	 eax
  00048	8b 4d fc	 mov	 ecx, DWORD PTR _this$[ebp]
  0004b	e8 00 00 00 00	 call	 ?SendNoticeState@CBloodCastle@@QAEXHH@Z ; CBloodCastle::SendNoticeState

; 1180 : 
; 1181 : 	ClearMonster(iBridgeIndex, false);

  00050	6a 00		 push	 0
  00052	8b 45 08	 mov	 eax, DWORD PTR _iBridgeIndex$[ebp]
  00055	50		 push	 eax
  00056	8b 4d fc	 mov	 ecx, DWORD PTR _this$[ebp]
  00059	e8 00 00 00 00	 call	 ?ClearMonster@CBloodCastle@@QAEXH_N@Z ; CBloodCastle::ClearMonster

; 1182 : 
; 1183 : 	m_BridgeData[iBridgeIndex].m_bBC_CAN_ENTER = false;

  0005e	69 45 08 04 02
	00 00		 imul	 eax, DWORD PTR _iBridgeIndex$[ebp], 516
  00065	8b 4d fc	 mov	 ecx, DWORD PTR _this$[ebp]
  00068	c6 84 01 63 01
	00 00 00	 mov	 BYTE PTR [ecx+eax+355], 0

; 1184 : 	m_BridgeData[iBridgeIndex].m_iBC_REMAIN_MSEC = m_iBC_TIME_MIN_REST * 60 * 1000;		// BLOODCASTLE_STATE_PLAYEND -> BLOODCASTLE_STATE_CLOSED   

  00070	8b 45 fc	 mov	 eax, DWORD PTR _this$[ebp]
  00073	6b 88 2c 0e 00
	00 3c		 imul	 ecx, DWORD PTR [eax+3628], 60
  0007a	69 d1 e8 03 00
	00		 imul	 edx, ecx, 1000
  00080	69 45 08 04 02
	00 00		 imul	 eax, DWORD PTR _iBridgeIndex$[ebp], 516
  00087	8b 4d fc	 mov	 ecx, DWORD PTR _this$[ebp]
  0008a	89 94 01 54 01
	00 00		 mov	 DWORD PTR [ecx+eax+340], edx

; 1185 : 
; 1186 : 	LogAddTD("[Blood Castle] (%d) SetState PLAYEND", iBridgeIndex+1);

  00091	8b 45 08	 mov	 eax, DWORD PTR _iBridgeIndex$[ebp]
  00094	83 c0 01	 add	 eax, 1
  00097	50		 push	 eax
  00098	68 00 00 00 00	 push	 OFFSET ??_C@_0CF@OPFFLCHN@?$FLBlood?5Castle?$FN?5?$CI?$CFd?$CJ?5SetState?5PL@
  0009d	ff 15 00 00 00
	00		 call	 DWORD PTR ?LogAddTD@@3P6AXPADZZA ; LogAddTD
  000a3	83 c4 08	 add	 esp, 8

; 1187 : 
; 1188 : 	for (int n=0 ; n < MAX_BLOODCASTLE_USER_COUNT ; n++) {

  000a6	c7 45 f8 00 00
	00 00		 mov	 DWORD PTR _n$1[ebp], 0
  000ad	eb 09		 jmp	 SHORT $LN4@SetState_P
$LN2@SetState_P:
  000af	8b 45 f8	 mov	 eax, DWORD PTR _n$1[ebp]
  000b2	83 c0 01	 add	 eax, 1
  000b5	89 45 f8	 mov	 DWORD PTR _n$1[ebp], eax
$LN4@SetState_P:
  000b8	83 7d f8 0a	 cmp	 DWORD PTR _n$1[ebp], 10	; 0000000aH
  000bc	7d 7e		 jge	 SHORT $LN1@SetState_P

; 1189 : 		if (CHECK_LIMIT(m_BridgeData[iBridgeIndex].m_UserData[n].m_iIndex, MAX_OBJECT)) {

  000be	69 45 08 04 02
	00 00		 imul	 eax, DWORD PTR _iBridgeIndex$[ebp], 516
  000c5	8b 4d fc	 mov	 ecx, DWORD PTR _this$[ebp]
  000c8	8d 54 01 04	 lea	 edx, DWORD PTR [ecx+eax+4]
  000cc	6b 45 f8 14	 imul	 eax, DWORD PTR _n$1[ebp], 20
  000d0	83 7c 02 18 00	 cmp	 DWORD PTR [edx+eax+24], 0
  000d5	7d 09		 jge	 SHORT $LN14@SetState_P
  000d7	c7 45 b4 00 00
	00 00		 mov	 DWORD PTR tv140[ebp], 0
  000de	eb 32		 jmp	 SHORT $LN15@SetState_P
$LN14@SetState_P:
  000e0	69 4d 08 04 02
	00 00		 imul	 ecx, DWORD PTR _iBridgeIndex$[ebp], 516
  000e7	8b 55 fc	 mov	 edx, DWORD PTR _this$[ebp]
  000ea	8d 44 0a 04	 lea	 eax, DWORD PTR [edx+ecx+4]
  000ee	6b 4d f8 14	 imul	 ecx, DWORD PTR _n$1[ebp], 20
  000f2	81 7c 08 18 e7
	1c 00 00	 cmp	 DWORD PTR [eax+ecx+24], 7399 ; 00001ce7H
  000fa	7e 09		 jle	 SHORT $LN12@SetState_P
  000fc	c7 45 b0 00 00
	00 00		 mov	 DWORD PTR tv139[ebp], 0
  00103	eb 07		 jmp	 SHORT $LN13@SetState_P
$LN12@SetState_P:
  00105	c7 45 b0 01 00
	00 00		 mov	 DWORD PTR tv139[ebp], 1
$LN13@SetState_P:
  0010c	8b 55 b0	 mov	 edx, DWORD PTR tv139[ebp]
  0010f	89 55 b4	 mov	 DWORD PTR tv140[ebp], edx
$LN15@SetState_P:
  00112	83 7d b4 00	 cmp	 DWORD PTR tv140[ebp], 0
  00116	74 1f		 je	 SHORT $LN6@SetState_P

; 1190 : 			SearchUserDeleteQuestItem(m_BridgeData[iBridgeIndex].m_UserData[n].m_iIndex);

  00118	69 45 08 04 02
	00 00		 imul	 eax, DWORD PTR _iBridgeIndex$[ebp], 516
  0011f	8b 4d fc	 mov	 ecx, DWORD PTR _this$[ebp]
  00122	8d 54 01 04	 lea	 edx, DWORD PTR [ecx+eax+4]
  00126	6b 45 f8 14	 imul	 eax, DWORD PTR _n$1[ebp], 20
  0012a	8b 4c 02 18	 mov	 ecx, DWORD PTR [edx+eax+24]
  0012e	51		 push	 ecx
  0012f	8b 4d fc	 mov	 ecx, DWORD PTR _this$[ebp]
  00132	e8 00 00 00 00	 call	 ?SearchUserDeleteQuestItem@CBloodCastle@@QAEXH@Z ; CBloodCastle::SearchUserDeleteQuestItem
$LN6@SetState_P:

; 1191 : 		}
; 1192 : 	}

  00137	e9 73 ff ff ff	 jmp	 $LN2@SetState_P
$LN1@SetState_P:

; 1193 : 
; 1194 : //	 !! -    
; 1195 : //	SendNoticeScore(iBridgeIndex);
; 1196 : }

  0013c	5f		 pop	 edi
  0013d	5e		 pop	 esi
  0013e	5b		 pop	 ebx
  0013f	8b e5		 mov	 esp, ebp
  00141	5d		 pop	 ebp
  00142	c2 04 00	 ret	 4
?SetState_PlayEnd@CBloodCastle@@IAEXH@Z ENDP		; CBloodCastle::SetState_PlayEnd
_TEXT	ENDS
; Function compile flags: /Odtp /ZI
; File C:\Mu Online\Mu-GS-Webzen-MC-10093\GameServer\BloodCastle.cpp
;	COMDAT ?SetState_Playing@CBloodCastle@@IAEXH@Z
_TEXT	SEGMENT
tv66 = -364						; size = 4
tv67 = -360						; size = 4
_n$1 = -292						; size = 4
_ServerCmd$ = -288					; size = 7
_pNotice$ = -280					; size = 272
_this$ = -8						; size = 4
__$ArrayPad$ = -4					; size = 4
_iBridgeIndex$ = 8					; size = 4
?SetState_Playing@CBloodCastle@@IAEXH@Z PROC		; CBloodCastle::SetState_Playing, COMDAT
; _this$ = ecx

; 1129 : {

  00000	55		 push	 ebp
  00001	8b ec		 mov	 ebp, esp
  00003	81 ec 6c 01 00
	00		 sub	 esp, 364		; 0000016cH
  00009	a1 00 00 00 00	 mov	 eax, DWORD PTR ___security_cookie
  0000e	33 c5		 xor	 eax, ebp
  00010	89 45 fc	 mov	 DWORD PTR __$ArrayPad$[ebp], eax
  00013	53		 push	 ebx
  00014	56		 push	 esi
  00015	57		 push	 edi
  00016	89 4d f8	 mov	 DWORD PTR _this$[ebp], ecx

; 1130 : 	if (!CHECK_LIMIT(iBridgeIndex, MAX_BLOODCASTLE_BRIDGE_COUNT))

  00019	83 7d 08 00	 cmp	 DWORD PTR _iBridgeIndex$[ebp], 0
  0001d	7d 0c		 jge	 SHORT $LN10@SetState_P
  0001f	c7 85 98 fe ff
	ff 00 00 00 00	 mov	 DWORD PTR tv67[ebp], 0
  00029	eb 28		 jmp	 SHORT $LN11@SetState_P
$LN10@SetState_P:
  0002b	83 7d 08 06	 cmp	 DWORD PTR _iBridgeIndex$[ebp], 6
  0002f	7e 0c		 jle	 SHORT $LN8@SetState_P
  00031	c7 85 94 fe ff
	ff 00 00 00 00	 mov	 DWORD PTR tv66[ebp], 0
  0003b	eb 0a		 jmp	 SHORT $LN9@SetState_P
$LN8@SetState_P:
  0003d	c7 85 94 fe ff
	ff 01 00 00 00	 mov	 DWORD PTR tv66[ebp], 1
$LN9@SetState_P:
  00047	8b 85 94 fe ff
	ff		 mov	 eax, DWORD PTR tv66[ebp]
  0004d	89 85 98 fe ff
	ff		 mov	 DWORD PTR tv67[ebp], eax
$LN11@SetState_P:
  00053	83 bd 98 fe ff
	ff 00		 cmp	 DWORD PTR tv67[ebp], 0
  0005a	75 05		 jne	 SHORT $LN5@SetState_P

; 1131 : 		return;

  0005c	e9 53 01 00 00	 jmp	 $LN1@SetState_P
$LN5@SetState_P:

; 1132 : 
; 1133 : 	m_BridgeData[iBridgeIndex].m_bBC_CAN_ENTER = false;

  00061	69 45 08 04 02
	00 00		 imul	 eax, DWORD PTR _iBridgeIndex$[ebp], 516
  00068	8b 4d f8	 mov	 ecx, DWORD PTR _this$[ebp]
  0006b	c6 84 01 63 01
	00 00 00	 mov	 BYTE PTR [ecx+eax+355], 0

; 1134 : 	m_BridgeData[iBridgeIndex].m_iBC_REMAIN_MSEC = m_iBC_TIME_MIN_PLAY * 60 * 1000;			// BLOODCASTLE_STATE_PLAYING -> BLOODCASTLE_STATE_PLAYEND   

  00073	8b 45 f8	 mov	 eax, DWORD PTR _this$[ebp]
  00076	6b 88 28 0e 00
	00 3c		 imul	 ecx, DWORD PTR [eax+3624], 60
  0007d	69 d1 e8 03 00
	00		 imul	 edx, ecx, 1000
  00083	69 45 08 04 02
	00 00		 imul	 eax, DWORD PTR _iBridgeIndex$[ebp], 516
  0008a	8b 4d f8	 mov	 ecx, DWORD PTR _this$[ebp]
  0008d	89 94 01 54 01
	00 00		 mov	 DWORD PTR [ecx+eax+340], edx

; 1135 : 	
; 1136 : 	// *> .           . ->         (2004.06.09)
; 1137 : 	CheckUsersOnConnect(iBridgeIndex);

  00094	8b 45 08	 mov	 eax, DWORD PTR _iBridgeIndex$[ebp]
  00097	50		 push	 eax
  00098	8b 4d f8	 mov	 ecx, DWORD PTR _this$[ebp]
  0009b	e8 00 00 00 00	 call	 ?CheckUsersOnConnect@CBloodCastle@@QAEXH@Z ; CBloodCastle::CheckUsersOnConnect

; 1138 : 	
; 1139 : 	PMSG_NOTICE	pNotice;
; 1140 : 
; 1141 : #ifdef MODIFY_NOTICE_20040325
; 1142 : 	TNotice::MakeNoticeMsgEx( &pNotice, 1, lMsg.Get(1163), iBridgeIndex + 1, BC_MAX_START_WAIT_TERM );

  000a0	6a 3c		 push	 60			; 0000003cH
  000a2	8b 45 08	 mov	 eax, DWORD PTR _iBridgeIndex$[ebp]
  000a5	83 c0 01	 add	 eax, 1
  000a8	50		 push	 eax
  000a9	68 8b 04 00 00	 push	 1163			; 0000048bH
  000ae	b9 00 00 00 00	 mov	 ecx, OFFSET ?lMsg@@3VCMsg@@A ; lMsg
  000b3	ff 15 00 00 00
	00		 call	 DWORD PTR __imp_?Get@CMsg@@QAEPADH@Z
  000b9	50		 push	 eax
  000ba	6a 01		 push	 1
  000bc	8d 8d e8 fe ff
	ff		 lea	 ecx, DWORD PTR _pNotice$[ebp]
  000c2	51		 push	 ecx
  000c3	e8 00 00 00 00	 call	 ?MakeNoticeMsgEx@TNotice@@SAXPAXEPADZZ ; TNotice::MakeNoticeMsgEx
  000c8	83 c4 14	 add	 esp, 20			; 00000014H

; 1143 : #else
; 1144 : 	pNotice.type = 1;
; 1145 : 	wsprintf(pNotice.Notice, lMsg.Get(1163), iBridgeIndex + 1, BC_MAX_START_WAIT_TERM);		// " %d     %d   ."
; 1146 : 	PHeadSetB((LPBYTE)&pNotice, 0x0D, 4+(strlen(pNotice.Notice)+1));
; 1147 : #endif
; 1148 : 
; 1149 : 	SendBridgeAnyMsg ((LPBYTE) &pNotice, pNotice.h.size, iBridgeIndex);

  000cb	8b 45 08	 mov	 eax, DWORD PTR _iBridgeIndex$[ebp]
  000ce	50		 push	 eax
  000cf	0f b6 8d e9 fe
	ff ff		 movzx	 ecx, BYTE PTR _pNotice$[ebp+1]
  000d6	51		 push	 ecx
  000d7	8d 95 e8 fe ff
	ff		 lea	 edx, DWORD PTR _pNotice$[ebp]
  000dd	52		 push	 edx
  000de	8b 4d f8	 mov	 ecx, DWORD PTR _this$[ebp]
  000e1	e8 00 00 00 00	 call	 ?SendBridgeAnyMsg@CBloodCastle@@QAEXPAEHH@Z ; CBloodCastle::SendBridgeAnyMsg

; 1150 : 
; 1151 : 	PMSG_SERVERCMD	ServerCmd;
; 1152 : 	PHeadSubSetB((LPBYTE)&ServerCmd, 0xF3, 0x40, sizeof(ServerCmd));			

  000e6	6a 07		 push	 7
  000e8	6a 40		 push	 64			; 00000040H
  000ea	68 f3 00 00 00	 push	 243			; 000000f3H
  000ef	8d 85 e0 fe ff
	ff		 lea	 eax, DWORD PTR _ServerCmd$[ebp]
  000f5	50		 push	 eax
  000f6	e8 00 00 00 00	 call	 ?PHeadSubSetB@@YAXPAEEEH@Z ; PHeadSubSetB
  000fb	83 c4 10	 add	 esp, 16			; 00000010H

; 1153 : 	ServerCmd.CmdType = 1;

  000fe	c6 85 e4 fe ff
	ff 01		 mov	 BYTE PTR _ServerCmd$[ebp+4], 1

; 1154 : 	ServerCmd.X = 45;

  00105	c6 85 e5 fe ff
	ff 2d		 mov	 BYTE PTR _ServerCmd$[ebp+5], 45 ; 0000002dH

; 1155 : 	ServerCmd.Y = 0;

  0010c	c6 85 e6 fe ff
	ff 00		 mov	 BYTE PTR _ServerCmd$[ebp+6], 0

; 1156 : 	SendBridgeAnyMsg ((LPBYTE) &ServerCmd, ServerCmd.h.size, iBridgeIndex);

  00113	8b 45 08	 mov	 eax, DWORD PTR _iBridgeIndex$[ebp]
  00116	50		 push	 eax
  00117	0f b6 8d e1 fe
	ff ff		 movzx	 ecx, BYTE PTR _ServerCmd$[ebp+1]
  0011e	51		 push	 ecx
  0011f	8d 95 e0 fe ff
	ff		 lea	 edx, DWORD PTR _ServerCmd$[ebp]
  00125	52		 push	 edx
  00126	8b 4d f8	 mov	 ecx, DWORD PTR _this$[ebp]
  00129	e8 00 00 00 00	 call	 ?SendBridgeAnyMsg@CBloodCastle@@QAEXPAEHH@Z ; CBloodCastle::SendBridgeAnyMsg

; 1157 : 
; 1158 : 	//        .
; 1159 : 	for( int n=ALLOC_USEROBJECTSTART; n<MAX_OBJECT; n++)

  0012e	c7 85 dc fe ff
	ff 00 19 00 00	 mov	 DWORD PTR _n$1[ebp], 6400 ; 00001900H
  00138	eb 0f		 jmp	 SHORT $LN4@SetState_P
$LN2@SetState_P:
  0013a	8b 85 dc fe ff
	ff		 mov	 eax, DWORD PTR _n$1[ebp]
  00140	83 c0 01	 add	 eax, 1
  00143	89 85 dc fe ff
	ff		 mov	 DWORD PTR _n$1[ebp], eax
$LN4@SetState_P:
  00149	81 bd dc fe ff
	ff e8 1c 00 00	 cmp	 DWORD PTR _n$1[ebp], 7400 ; 00001ce8H
  00153	7d 4a		 jge	 SHORT $LN3@SetState_P

; 1160 : 	{
; 1161 : #ifdef ADD_BLOODCASTLE_FOR_MASTER_LEVEL_20071010	//    
; 1162 : 		if( (gObj[n].MapNumber == GetMapNumByBCBridge( iBridgeIndex ) ) && (gObj[n].Connected > 2) ) {
; 1163 : #else
; 1164 : 		if( (gObj[n].MapNumber == MAP_INDEX_BLOODCASTLE1 + iBridgeIndex) && (gObj[n].Connected > 2) ) {

  00155	69 85 dc fe ff
	ff a0 1b 00 00	 imul	 eax, DWORD PTR _n$1[ebp], 7072
  0015f	8b 0d 00 00 00
	00		 mov	 ecx, DWORD PTR ?gObj@@3PAVOBJECTSTRUCT@@A ; gObj
  00165	0f b6 94 01 09
	01 00 00	 movzx	 edx, BYTE PTR [ecx+eax+265]
  0016d	8b 45 08	 mov	 eax, DWORD PTR _iBridgeIndex$[ebp]
  00170	83 c0 0b	 add	 eax, 11			; 0000000bH
  00173	3b d0		 cmp	 edx, eax
  00175	75 26		 jne	 SHORT $LN6@SetState_P
  00177	69 85 dc fe ff
	ff a0 1b 00 00	 imul	 eax, DWORD PTR _n$1[ebp], 7072
  00181	8b 0d 00 00 00
	00		 mov	 ecx, DWORD PTR ?gObj@@3PAVOBJECTSTRUCT@@A ; gObj
  00187	83 7c 01 04 02	 cmp	 DWORD PTR [ecx+eax+4], 2
  0018c	7e 0f		 jle	 SHORT $LN6@SetState_P

; 1165 : #endif
; 1166 : 			SearchUserDeleteQuestItem(n);

  0018e	8b 85 dc fe ff
	ff		 mov	 eax, DWORD PTR _n$1[ebp]
  00194	50		 push	 eax
  00195	8b 4d f8	 mov	 ecx, DWORD PTR _this$[ebp]
  00198	e8 00 00 00 00	 call	 ?SearchUserDeleteQuestItem@CBloodCastle@@QAEXH@Z ; CBloodCastle::SearchUserDeleteQuestItem
$LN6@SetState_P:

; 1167 : 		}
; 1168 : 	}

  0019d	eb 9b		 jmp	 SHORT $LN2@SetState_P
$LN3@SetState_P:

; 1169 : 
; 1170 : 	LogAddTD("[Blood Castle] (%d) SetState PLAYING", iBridgeIndex+1);

  0019f	8b 45 08	 mov	 eax, DWORD PTR _iBridgeIndex$[ebp]
  001a2	83 c0 01	 add	 eax, 1
  001a5	50		 push	 eax
  001a6	68 00 00 00 00	 push	 OFFSET ??_C@_0CF@IOKOFOAG@?$FLBlood?5Castle?$FN?5?$CI?$CFd?$CJ?5SetState?5PL@
  001ab	ff 15 00 00 00
	00		 call	 DWORD PTR ?LogAddTD@@3P6AXPADZZA ; LogAddTD
  001b1	83 c4 08	 add	 esp, 8
$LN1@SetState_P:

; 1171 : }

  001b4	5f		 pop	 edi
  001b5	5e		 pop	 esi
  001b6	5b		 pop	 ebx
  001b7	8b 4d fc	 mov	 ecx, DWORD PTR __$ArrayPad$[ebp]
  001ba	33 cd		 xor	 ecx, ebp
  001bc	e8 00 00 00 00	 call	 @__security_check_cookie@4
  001c1	8b e5		 mov	 esp, ebp
  001c3	5d		 pop	 ebp
  001c4	c2 04 00	 ret	 4
?SetState_Playing@CBloodCastle@@IAEXH@Z ENDP		; CBloodCastle::SetState_Playing
_TEXT	ENDS
; Function compile flags: /Odtp /ZI
; File C:\Mu Online\Mu-GS-Webzen-MC-10093\GameServer\BloodCastle.cpp
;	COMDAT ?SetState_Closed@CBloodCastle@@IAEXH@Z
_TEXT	SEGMENT
tv66 = -80						; size = 4
tv67 = -76						; size = 4
_n$1 = -8						; size = 4
_this$ = -4						; size = 4
_iBridgeIndex$ = 8					; size = 4
?SetState_Closed@CBloodCastle@@IAEXH@Z PROC		; CBloodCastle::SetState_Closed, COMDAT
; _this$ = ecx

; 1086 : {

  00000	55		 push	 ebp
  00001	8b ec		 mov	 ebp, esp
  00003	83 ec 50	 sub	 esp, 80			; 00000050H
  00006	53		 push	 ebx
  00007	56		 push	 esi
  00008	57		 push	 edi
  00009	89 4d fc	 mov	 DWORD PTR _this$[ebp], ecx

; 1087 : 	if (!CHECK_LIMIT(iBridgeIndex, MAX_BLOODCASTLE_BRIDGE_COUNT))

  0000c	83 7d 08 00	 cmp	 DWORD PTR _iBridgeIndex$[ebp], 0
  00010	7d 09		 jge	 SHORT $LN10@SetState_C
  00012	c7 45 b4 00 00
	00 00		 mov	 DWORD PTR tv67[ebp], 0
  00019	eb 1c		 jmp	 SHORT $LN11@SetState_C
$LN10@SetState_C:
  0001b	83 7d 08 06	 cmp	 DWORD PTR _iBridgeIndex$[ebp], 6
  0001f	7e 09		 jle	 SHORT $LN8@SetState_C
  00021	c7 45 b0 00 00
	00 00		 mov	 DWORD PTR tv66[ebp], 0
  00028	eb 07		 jmp	 SHORT $LN9@SetState_C
$LN8@SetState_C:
  0002a	c7 45 b0 01 00
	00 00		 mov	 DWORD PTR tv66[ebp], 1
$LN9@SetState_C:
  00031	8b 45 b0	 mov	 eax, DWORD PTR tv66[ebp]
  00034	89 45 b4	 mov	 DWORD PTR tv67[ebp], eax
$LN11@SetState_C:
  00037	83 7d b4 00	 cmp	 DWORD PTR tv67[ebp], 0
  0003b	75 05		 jne	 SHORT $LN5@SetState_C

; 1088 : 		return;

  0003d	e9 e3 00 00 00	 jmp	 $LN1@SetState_C
$LN5@SetState_C:

; 1089 : 
; 1090 : 	SendNoticeState(iBridgeIndex, BC_STATE_END);

  00042	6a 02		 push	 2
  00044	8b 45 08	 mov	 eax, DWORD PTR _iBridgeIndex$[ebp]
  00047	50		 push	 eax
  00048	8b 4d fc	 mov	 ecx, DWORD PTR _this$[ebp]
  0004b	e8 00 00 00 00	 call	 ?SendNoticeState@CBloodCastle@@QAEXHH@Z ; CBloodCastle::SendNoticeState

; 1091 : 
; 1092 : 	ClearBridgeData(iBridgeIndex);

  00050	8b 45 08	 mov	 eax, DWORD PTR _iBridgeIndex$[ebp]
  00053	50		 push	 eax
  00054	8b 4d fc	 mov	 ecx, DWORD PTR _this$[ebp]
  00057	e8 00 00 00 00	 call	 ?ClearBridgeData@CBloodCastle@@IAEXH@Z ; CBloodCastle::ClearBridgeData

; 1093 : 
; 1094 : 	ClearMonster(iBridgeIndex, true);

  0005c	6a 01		 push	 1
  0005e	8b 45 08	 mov	 eax, DWORD PTR _iBridgeIndex$[ebp]
  00061	50		 push	 eax
  00062	8b 4d fc	 mov	 ecx, DWORD PTR _this$[ebp]
  00065	e8 00 00 00 00	 call	 ?ClearMonster@CBloodCastle@@QAEXH_N@Z ; CBloodCastle::ClearMonster

; 1095 : 
; 1096 : 	CheckAngelKingExist (iBridgeIndex);				//    ->  .

  0006a	8b 45 08	 mov	 eax, DWORD PTR _iBridgeIndex$[ebp]
  0006d	50		 push	 eax
  0006e	8b 4d fc	 mov	 ecx, DWORD PTR _this$[ebp]
  00071	e8 00 00 00 00	 call	 ?CheckAngelKingExist@CBloodCastle@@QAE_NH@Z ; CBloodCastle::CheckAngelKingExist

; 1097 : 
; 1098 : //	BlockSector(iBridgeIndex + MAP_INDEX_BLOODCASTLE1, 13,	77,	15,	78);		// !!>   ->     
; 1099 : 
; 1100 : 	//            .
; 1101 : 	for( int n=ALLOC_USEROBJECTSTART; n<MAX_OBJECT; n++)

  00076	c7 45 f8 00 19
	00 00		 mov	 DWORD PTR _n$1[ebp], 6400 ; 00001900H
  0007d	eb 09		 jmp	 SHORT $LN4@SetState_C
$LN2@SetState_C:
  0007f	8b 45 f8	 mov	 eax, DWORD PTR _n$1[ebp]
  00082	83 c0 01	 add	 eax, 1
  00085	89 45 f8	 mov	 DWORD PTR _n$1[ebp], eax
$LN4@SetState_C:
  00088	81 7d f8 e8 1c
	00 00		 cmp	 DWORD PTR _n$1[ebp], 7400 ; 00001ce8H
  0008f	7d 4f		 jge	 SHORT $LN3@SetState_C

; 1102 : 	{
; 1103 : #ifdef ADD_BLOODCASTLE_FOR_MASTER_LEVEL_20071010	//    
; 1104 : 		int iMapNum = GetMapNumByBCBridge( iBridgeIndex );		
; 1105 : 		if( (gObj[n].MapNumber == iMapNum) && (gObj[n].Connected > 2) )
; 1106 : #else
; 1107 : 		if( (gObj[n].MapNumber == MAP_INDEX_BLOODCASTLE1 + iBridgeIndex) && (gObj[n].Connected > 2) )

  00091	69 45 f8 a0 1b
	00 00		 imul	 eax, DWORD PTR _n$1[ebp], 7072
  00098	8b 0d 00 00 00
	00		 mov	 ecx, DWORD PTR ?gObj@@3PAVOBJECTSTRUCT@@A ; gObj
  0009e	0f b6 94 01 09
	01 00 00	 movzx	 edx, BYTE PTR [ecx+eax+265]
  000a6	8b 45 08	 mov	 eax, DWORD PTR _iBridgeIndex$[ebp]
  000a9	83 c0 0b	 add	 eax, 11			; 0000000bH
  000ac	3b d0		 cmp	 edx, eax
  000ae	75 2e		 jne	 SHORT $LN6@SetState_C
  000b0	69 45 f8 a0 1b
	00 00		 imul	 eax, DWORD PTR _n$1[ebp], 7072
  000b7	8b 0d 00 00 00
	00		 mov	 ecx, DWORD PTR ?gObj@@3PAVOBJECTSTRUCT@@A ; gObj
  000bd	83 7c 01 04 02	 cmp	 DWORD PTR [ecx+eax+4], 2
  000c2	7e 1a		 jle	 SHORT $LN6@SetState_C

; 1108 : #endif
; 1109 : 		{
; 1110 : 			SearchUserDeleteQuestItem(n);			

  000c4	8b 45 f8	 mov	 eax, DWORD PTR _n$1[ebp]
  000c7	50		 push	 eax
  000c8	8b 4d fc	 mov	 ecx, DWORD PTR _this$[ebp]
  000cb	e8 00 00 00 00	 call	 ?SearchUserDeleteQuestItem@CBloodCastle@@QAEXH@Z ; CBloodCastle::SearchUserDeleteQuestItem

; 1111 : 			gObjMoveGate(n, 22);

  000d0	6a 16		 push	 22			; 00000016H
  000d2	8b 45 f8	 mov	 eax, DWORD PTR _n$1[ebp]
  000d5	50		 push	 eax
  000d6	e8 00 00 00 00	 call	 ?gObjMoveGate@@YAHHH@Z	; gObjMoveGate
  000db	83 c4 08	 add	 esp, 8
$LN6@SetState_C:

; 1112 : 		}
; 1113 : 	}

  000de	eb 9f		 jmp	 SHORT $LN2@SetState_C
$LN3@SetState_C:

; 1114 : 
; 1115 : 	//     .
; 1116 : 	BlockCastleDoor(iBridgeIndex);

  000e0	8b 45 08	 mov	 eax, DWORD PTR _iBridgeIndex$[ebp]
  000e3	50		 push	 eax
  000e4	8b 4d fc	 mov	 ecx, DWORD PTR _this$[ebp]
  000e7	e8 00 00 00 00	 call	 ?BlockCastleDoor@CBloodCastle@@QAEXH@Z ; CBloodCastle::BlockCastleDoor

; 1117 : 	//      .
; 1118 : 	BlockCastleBridge(iBridgeIndex);

  000ec	8b 45 08	 mov	 eax, DWORD PTR _iBridgeIndex$[ebp]
  000ef	50		 push	 eax
  000f0	8b 4d fc	 mov	 ecx, DWORD PTR _this$[ebp]
  000f3	e8 00 00 00 00	 call	 ?BlockCastleBridge@CBloodCastle@@QAEXH@Z ; CBloodCastle::BlockCastleBridge

; 1119 : 	//      .
; 1120 : 	BlockCastleEntrance(iBridgeIndex);

  000f8	8b 45 08	 mov	 eax, DWORD PTR _iBridgeIndex$[ebp]
  000fb	50		 push	 eax
  000fc	8b 4d fc	 mov	 ecx, DWORD PTR _this$[ebp]
  000ff	e8 00 00 00 00	 call	 ?BlockCastleEntrance@CBloodCastle@@QAEXH@Z ; CBloodCastle::BlockCastleEntrance

; 1121 : 
; 1122 : 	CheckSync(iBridgeIndex);						// BLOODCASTLE_STATE_CLOSED -> BLOODCASTLE_STATE_PLAYING    

  00104	8b 45 08	 mov	 eax, DWORD PTR _iBridgeIndex$[ebp]
  00107	50		 push	 eax
  00108	8b 4d fc	 mov	 ecx, DWORD PTR _this$[ebp]
  0010b	e8 00 00 00 00	 call	 ?CheckSync@CBloodCastle@@IAEXH@Z ; CBloodCastle::CheckSync

; 1123 : 
; 1124 : 	LogAddTD("[Blood Castle] (%d) SetState CLOSED", iBridgeIndex+1);

  00110	8b 45 08	 mov	 eax, DWORD PTR _iBridgeIndex$[ebp]
  00113	83 c0 01	 add	 eax, 1
  00116	50		 push	 eax
  00117	68 00 00 00 00	 push	 OFFSET ??_C@_0CE@INEHOCBG@?$FLBlood?5Castle?$FN?5?$CI?$CFd?$CJ?5SetState?5CL@
  0011c	ff 15 00 00 00
	00		 call	 DWORD PTR ?LogAddTD@@3P6AXPADZZA ; LogAddTD
  00122	83 c4 08	 add	 esp, 8
$LN1@SetState_C:

; 1125 : }

  00125	5f		 pop	 edi
  00126	5e		 pop	 esi
  00127	5b		 pop	 ebx
  00128	8b e5		 mov	 esp, ebp
  0012a	5d		 pop	 ebp
  0012b	c2 04 00	 ret	 4
?SetState_Closed@CBloodCastle@@IAEXH@Z ENDP		; CBloodCastle::SetState_Closed
_TEXT	ENDS
; Function compile flags: /Odtp /ZI
; File C:\Mu Online\Mu-GS-Webzen-MC-10093\GameServer\BloodCastle.cpp
;	COMDAT ?SetState_None@CBloodCastle@@IAEXH@Z
_TEXT	SEGMENT
tv66 = -80						; size = 4
tv67 = -76						; size = 4
_n$1 = -8						; size = 4
_this$ = -4						; size = 4
_iBridgeIndex$ = 8					; size = 4
?SetState_None@CBloodCastle@@IAEXH@Z PROC		; CBloodCastle::SetState_None, COMDAT
; _this$ = ecx

; 1052 : {

  00000	55		 push	 ebp
  00001	8b ec		 mov	 ebp, esp
  00003	83 ec 50	 sub	 esp, 80			; 00000050H
  00006	53		 push	 ebx
  00007	56		 push	 esi
  00008	57		 push	 edi
  00009	89 4d fc	 mov	 DWORD PTR _this$[ebp], ecx

; 1053 : 	//       (     .)
; 1054 : 	if (!CHECK_LIMIT(iBridgeIndex, MAX_BLOODCASTLE_BRIDGE_COUNT))

  0000c	83 7d 08 00	 cmp	 DWORD PTR _iBridgeIndex$[ebp], 0
  00010	7d 09		 jge	 SHORT $LN10@SetState_N
  00012	c7 45 b4 00 00
	00 00		 mov	 DWORD PTR tv67[ebp], 0
  00019	eb 1c		 jmp	 SHORT $LN11@SetState_N
$LN10@SetState_N:
  0001b	83 7d 08 06	 cmp	 DWORD PTR _iBridgeIndex$[ebp], 6
  0001f	7e 09		 jle	 SHORT $LN8@SetState_N
  00021	c7 45 b0 00 00
	00 00		 mov	 DWORD PTR tv66[ebp], 0
  00028	eb 07		 jmp	 SHORT $LN9@SetState_N
$LN8@SetState_N:
  0002a	c7 45 b0 01 00
	00 00		 mov	 DWORD PTR tv66[ebp], 1
$LN9@SetState_N:
  00031	8b 45 b0	 mov	 eax, DWORD PTR tv66[ebp]
  00034	89 45 b4	 mov	 DWORD PTR tv67[ebp], eax
$LN11@SetState_N:
  00037	83 7d b4 00	 cmp	 DWORD PTR tv67[ebp], 0
  0003b	75 05		 jne	 SHORT $LN5@SetState_N

; 1055 : 		return;

  0003d	e9 bc 00 00 00	 jmp	 $LN1@SetState_N
$LN5@SetState_N:

; 1056 : 
; 1057 : 	m_BridgeData[iBridgeIndex].m_iBC_REMAIN_MSEC	= -1;

  00042	69 45 08 04 02
	00 00		 imul	 eax, DWORD PTR _iBridgeIndex$[ebp], 516
  00049	8b 4d fc	 mov	 ecx, DWORD PTR _this$[ebp]
  0004c	c7 84 01 54 01
	00 00 ff ff ff
	ff		 mov	 DWORD PTR [ecx+eax+340], -1

; 1058 : 	m_BridgeData[iBridgeIndex].m_iBC_TICK_COUNT		= -1;

  00057	69 45 08 04 02
	00 00		 imul	 eax, DWORD PTR _iBridgeIndex$[ebp], 516
  0005e	8b 4d fc	 mov	 ecx, DWORD PTR _this$[ebp]
  00061	c7 84 01 58 01
	00 00 ff ff ff
	ff		 mov	 DWORD PTR [ecx+eax+344], -1

; 1059 : 
; 1060 : 	SendNoticeState(iBridgeIndex, BC_STATE_END);

  0006c	6a 02		 push	 2
  0006e	8b 45 08	 mov	 eax, DWORD PTR _iBridgeIndex$[ebp]
  00071	50		 push	 eax
  00072	8b 4d fc	 mov	 ecx, DWORD PTR _this$[ebp]
  00075	e8 00 00 00 00	 call	 ?SendNoticeState@CBloodCastle@@QAEXHH@Z ; CBloodCastle::SendNoticeState

; 1061 : 
; 1062 : 	ClearBridgeData(iBridgeIndex);

  0007a	8b 45 08	 mov	 eax, DWORD PTR _iBridgeIndex$[ebp]
  0007d	50		 push	 eax
  0007e	8b 4d fc	 mov	 ecx, DWORD PTR _this$[ebp]
  00081	e8 00 00 00 00	 call	 ?ClearBridgeData@CBloodCastle@@IAEXH@Z ; CBloodCastle::ClearBridgeData

; 1063 : 
; 1064 : 	ClearMonster(iBridgeIndex, true);

  00086	6a 01		 push	 1
  00088	8b 45 08	 mov	 eax, DWORD PTR _iBridgeIndex$[ebp]
  0008b	50		 push	 eax
  0008c	8b 4d fc	 mov	 ecx, DWORD PTR _this$[ebp]
  0008f	e8 00 00 00 00	 call	 ?ClearMonster@CBloodCastle@@QAEXH_N@Z ; CBloodCastle::ClearMonster

; 1065 : 
; 1066 : 	//        .
; 1067 : 	for( int n=ALLOC_USEROBJECTSTART; n<MAX_OBJECT; n++)

  00094	c7 45 f8 00 19
	00 00		 mov	 DWORD PTR _n$1[ebp], 6400 ; 00001900H
  0009b	eb 09		 jmp	 SHORT $LN4@SetState_N
$LN2@SetState_N:
  0009d	8b 45 f8	 mov	 eax, DWORD PTR _n$1[ebp]
  000a0	83 c0 01	 add	 eax, 1
  000a3	89 45 f8	 mov	 DWORD PTR _n$1[ebp], eax
$LN4@SetState_N:
  000a6	81 7d f8 e8 1c
	00 00		 cmp	 DWORD PTR _n$1[ebp], 7400 ; 00001ce8H
  000ad	7d 43		 jge	 SHORT $LN3@SetState_N

; 1068 : 	{
; 1069 : #ifdef ADD_BLOODCASTLE_FOR_MASTER_LEVEL_20071010	//    
; 1070 : 		int iMapNum = GetMapNumByBCBridge( iBridgeIndex );
; 1071 : 		if( (gObj[n].MapNumber == iMapNum) && (gObj[n].Connected == 3) )
; 1072 : #else
; 1073 : 		if( (gObj[n].MapNumber == MAP_INDEX_BLOODCASTLE1 + iBridgeIndex) && (gObj[n].Connected == 3) )

  000af	69 45 f8 a0 1b
	00 00		 imul	 eax, DWORD PTR _n$1[ebp], 7072
  000b6	8b 0d 00 00 00
	00		 mov	 ecx, DWORD PTR ?gObj@@3PAVOBJECTSTRUCT@@A ; gObj
  000bc	0f b6 94 01 09
	01 00 00	 movzx	 edx, BYTE PTR [ecx+eax+265]
  000c4	8b 45 08	 mov	 eax, DWORD PTR _iBridgeIndex$[ebp]
  000c7	83 c0 0b	 add	 eax, 11			; 0000000bH
  000ca	3b d0		 cmp	 edx, eax
  000cc	75 22		 jne	 SHORT $LN6@SetState_N
  000ce	69 45 f8 a0 1b
	00 00		 imul	 eax, DWORD PTR _n$1[ebp], 7072
  000d5	8b 0d 00 00 00
	00		 mov	 ecx, DWORD PTR ?gObj@@3PAVOBJECTSTRUCT@@A ; gObj
  000db	83 7c 01 04 03	 cmp	 DWORD PTR [ecx+eax+4], 3
  000e0	75 0e		 jne	 SHORT $LN6@SetState_N

; 1074 : #endif
; 1075 : 		{					
; 1076 : 			gObjMoveGate(n, 22);

  000e2	6a 16		 push	 22			; 00000016H
  000e4	8b 45 f8	 mov	 eax, DWORD PTR _n$1[ebp]
  000e7	50		 push	 eax
  000e8	e8 00 00 00 00	 call	 ?gObjMoveGate@@YAHHH@Z	; gObjMoveGate
  000ed	83 c4 08	 add	 esp, 8
$LN6@SetState_N:

; 1077 : 		}
; 1078 : 	}

  000f0	eb ab		 jmp	 SHORT $LN2@SetState_N
$LN3@SetState_N:

; 1079 : 
; 1080 : 	//     .
; 1081 : 	BlockCastleDoor(iBridgeIndex);

  000f2	8b 45 08	 mov	 eax, DWORD PTR _iBridgeIndex$[ebp]
  000f5	50		 push	 eax
  000f6	8b 4d fc	 mov	 ecx, DWORD PTR _this$[ebp]
  000f9	e8 00 00 00 00	 call	 ?BlockCastleDoor@CBloodCastle@@QAEXH@Z ; CBloodCastle::BlockCastleDoor
$LN1@SetState_N:

; 1082 : }

  000fe	5f		 pop	 edi
  000ff	5e		 pop	 esi
  00100	5b		 pop	 ebx
  00101	8b e5		 mov	 esp, ebp
  00103	5d		 pop	 ebp
  00104	c2 04 00	 ret	 4
?SetState_None@CBloodCastle@@IAEXH@Z ENDP		; CBloodCastle::SetState_None
_TEXT	ENDS
; Function compile flags: /Odtp /ZI
; File C:\Mu Online\Mu-GS-Webzen-MC-10093\GameServer\BloodCastle.cpp
;	COMDAT ?ProcState_PlayEnd@CBloodCastle@@IAEXH@Z
_TEXT	SEGMENT
_pMsg$1 = -12						; size = 4
_iTICK_MSEC$ = -8					; size = 4
_this$ = -4						; size = 4
_iBridgeIndex$ = 8					; size = 4
?ProcState_PlayEnd@CBloodCastle@@IAEXH@Z PROC		; CBloodCastle::ProcState_PlayEnd, COMDAT
; _this$ = ecx

; 1025 : {

  00000	55		 push	 ebp
  00001	8b ec		 mov	 ebp, esp
  00003	83 ec 4c	 sub	 esp, 76			; 0000004cH
  00006	53		 push	 ebx
  00007	56		 push	 esi
  00008	57		 push	 edi
  00009	89 4d fc	 mov	 DWORD PTR _this$[ebp], ecx

; 1026 : //	INT iTICK_SEC = (GetTickCount() - m_BridgeData[iBridgeIndex].m_iBC_TICK_COUNT) / 1000;
; 1027 : 	INT iTICK_MSEC = (GetTickCount() - m_BridgeData[iBridgeIndex].m_iBC_TICK_COUNT);

  0000c	ff 15 00 00 00
	00		 call	 DWORD PTR __imp__GetTickCount@0
  00012	69 4d 08 04 02
	00 00		 imul	 ecx, DWORD PTR _iBridgeIndex$[ebp], 516
  00019	8b 55 fc	 mov	 edx, DWORD PTR _this$[ebp]
  0001c	2b 84 0a 58 01
	00 00		 sub	 eax, DWORD PTR [edx+ecx+344]
  00023	89 45 f8	 mov	 DWORD PTR _iTICK_MSEC$[ebp], eax

; 1028 : 	
; 1029 : 	if (iTICK_MSEC >= 1000) {

  00026	81 7d f8 e8 03
	00 00		 cmp	 DWORD PTR _iTICK_MSEC$[ebp], 1000 ; 000003e8H
  0002d	0f 8c b8 00 00
	00		 jl	 $LN2@ProcState_

; 1030 : 		m_BridgeData[iBridgeIndex].m_iBC_REMAIN_MSEC -= iTICK_MSEC;

  00033	69 45 08 04 02
	00 00		 imul	 eax, DWORD PTR _iBridgeIndex$[ebp], 516
  0003a	8b 4d fc	 mov	 ecx, DWORD PTR _this$[ebp]
  0003d	8b 94 01 54 01
	00 00		 mov	 edx, DWORD PTR [ecx+eax+340]
  00044	2b 55 f8	 sub	 edx, DWORD PTR _iTICK_MSEC$[ebp]
  00047	69 45 08 04 02
	00 00		 imul	 eax, DWORD PTR _iBridgeIndex$[ebp], 516
  0004e	8b 4d fc	 mov	 ecx, DWORD PTR _this$[ebp]
  00051	89 94 01 54 01
	00 00		 mov	 DWORD PTR [ecx+eax+340], edx

; 1031 : 		m_BridgeData[iBridgeIndex].m_iBC_TICK_COUNT = GetTickCount();

  00058	ff 15 00 00 00
	00		 call	 DWORD PTR __imp__GetTickCount@0
  0005e	69 4d 08 04 02
	00 00		 imul	 ecx, DWORD PTR _iBridgeIndex$[ebp], 516
  00065	8b 55 fc	 mov	 edx, DWORD PTR _this$[ebp]
  00068	89 84 0a 58 01
	00 00		 mov	 DWORD PTR [edx+ecx+344], eax

; 1032 : 
; 1033 : #if TESTSERVER == 1
; 1034 : 		//LogAddTD("[Blood Castle] (%d) - PLAY END Check Time. [%d] sec remain", iBridgeIndex+1, m_BridgeData[iBridgeIndex].m_iBC_REMAIN_MSEC/1000);
; 1035 : #endif
; 1036 : 		if ((m_BridgeData[iBridgeIndex].m_iBC_REMAIN_MSEC <= 30*1000) && (m_BridgeData[iBridgeIndex].m_iBC_REMAIN_MSEC > 0) && (!m_BridgeData[iBridgeIndex].m_bBC_MSG_BEFORE_QUIT)) {

  0006f	69 45 08 04 02
	00 00		 imul	 eax, DWORD PTR _iBridgeIndex$[ebp], 516
  00076	8b 4d fc	 mov	 ecx, DWORD PTR _this$[ebp]
  00079	81 bc 01 54 01
	00 00 30 75 00
	00		 cmp	 DWORD PTR [ecx+eax+340], 30000 ; 00007530H
  00084	7f 65		 jg	 SHORT $LN2@ProcState_
  00086	69 45 08 04 02
	00 00		 imul	 eax, DWORD PTR _iBridgeIndex$[ebp], 516
  0008d	8b 4d fc	 mov	 ecx, DWORD PTR _this$[ebp]
  00090	83 bc 01 54 01
	00 00 00	 cmp	 DWORD PTR [ecx+eax+340], 0
  00098	7e 51		 jle	 SHORT $LN2@ProcState_
  0009a	69 45 08 04 02
	00 00		 imul	 eax, DWORD PTR _iBridgeIndex$[ebp], 516
  000a1	8b 4d fc	 mov	 ecx, DWORD PTR _this$[ebp]
  000a4	0f b6 94 01 6a
	01 00 00	 movzx	 edx, BYTE PTR [ecx+eax+362]
  000ac	85 d2		 test	 edx, edx
  000ae	75 3b		 jne	 SHORT $LN2@ProcState_

; 1037 : 			m_BridgeData[iBridgeIndex].m_bBC_MSG_BEFORE_QUIT = true;

  000b0	69 45 08 04 02
	00 00		 imul	 eax, DWORD PTR _iBridgeIndex$[ebp], 516
  000b7	8b 4d fc	 mov	 ecx, DWORD PTR _this$[ebp]
  000ba	c6 84 01 6a 01
	00 00 01	 mov	 BYTE PTR [ecx+eax+362], 1

; 1038 : 			PMSG_SET_DEVILSQUARE pMsg;
; 1039 : 			PHeadSetB((LPBYTE)&pMsg, 0x92, sizeof( pMsg ));

  000c2	6a 04		 push	 4
  000c4	68 92 00 00 00	 push	 146			; 00000092H
  000c9	8d 45 f4	 lea	 eax, DWORD PTR _pMsg$1[ebp]
  000cc	50		 push	 eax
  000cd	e8 00 00 00 00	 call	 ?PHeadSetB@@YAXPAEEH@Z	; PHeadSetB
  000d2	83 c4 0c	 add	 esp, 12			; 0000000cH

; 1040 : 			pMsg.Type = BC_MSG_BEFORE_QUIT;

  000d5	c6 45 f7 06	 mov	 BYTE PTR _pMsg$1[ebp+3], 6

; 1041 : 			SendBridgeAnyMsg ((LPBYTE)&pMsg, sizeof( pMsg ), iBridgeIndex);

  000d9	8b 45 08	 mov	 eax, DWORD PTR _iBridgeIndex$[ebp]
  000dc	50		 push	 eax
  000dd	6a 04		 push	 4
  000df	8d 4d f4	 lea	 ecx, DWORD PTR _pMsg$1[ebp]
  000e2	51		 push	 ecx
  000e3	8b 4d fc	 mov	 ecx, DWORD PTR _this$[ebp]
  000e6	e8 00 00 00 00	 call	 ?SendBridgeAnyMsg@CBloodCastle@@QAEXPAEHH@Z ; CBloodCastle::SendBridgeAnyMsg
$LN2@ProcState_:

; 1042 : 		}
; 1043 : 	}
; 1044 : 
; 1045 : 	if (m_BridgeData[iBridgeIndex].m_iBC_REMAIN_MSEC <= 0) {

  000eb	69 45 08 04 02
	00 00		 imul	 eax, DWORD PTR _iBridgeIndex$[ebp], 516
  000f2	8b 4d fc	 mov	 ecx, DWORD PTR _this$[ebp]
  000f5	83 bc 01 54 01
	00 00 00	 cmp	 DWORD PTR [ecx+eax+340], 0
  000fd	7f 0e		 jg	 SHORT $LN1@ProcState_

; 1046 : 		SetState (iBridgeIndex, BLOODCASTLE_STATE_CLOSED);

  000ff	6a 01		 push	 1
  00101	8b 45 08	 mov	 eax, DWORD PTR _iBridgeIndex$[ebp]
  00104	50		 push	 eax
  00105	8b 4d fc	 mov	 ecx, DWORD PTR _this$[ebp]
  00108	e8 00 00 00 00	 call	 ?SetState@CBloodCastle@@QAEXHH@Z ; CBloodCastle::SetState
$LN1@ProcState_:

; 1047 : 	}
; 1048 : }

  0010d	5f		 pop	 edi
  0010e	5e		 pop	 esi
  0010f	5b		 pop	 ebx
  00110	8b e5		 mov	 esp, ebp
  00112	5d		 pop	 ebp
  00113	c2 04 00	 ret	 4
?ProcState_PlayEnd@CBloodCastle@@IAEXH@Z ENDP		; CBloodCastle::ProcState_PlayEnd
_TEXT	ENDS
; Function compile flags: /Odtp /ZI
; File C:\Mu Online\Mu-GS-Webzen-MC-10093\GameServer\BloodCastle.cpp
;	COMDAT ?ProcState_Playing@CBloodCastle@@IAEXH@Z
_TEXT	SEGMENT
_pNotice$1 = -564					; size = 272
_pMsg$2 = -292						; size = 4
_pNotice$3 = -288					; size = 272
_pMsg$4 = -16						; size = 4
_iTICK_MSEC$ = -12					; size = 4
_this$ = -8						; size = 4
__$ArrayPad$ = -4					; size = 4
_iBridgeIndex$ = 8					; size = 4
?ProcState_Playing@CBloodCastle@@IAEXH@Z PROC		; CBloodCastle::ProcState_Playing, COMDAT
; _this$ = ecx

; 841  : {

  00000	55		 push	 ebp
  00001	8b ec		 mov	 ebp, esp
  00003	81 ec b4 02 00
	00		 sub	 esp, 692		; 000002b4H
  00009	a1 00 00 00 00	 mov	 eax, DWORD PTR ___security_cookie
  0000e	33 c5		 xor	 eax, ebp
  00010	89 45 fc	 mov	 DWORD PTR __$ArrayPad$[ebp], eax
  00013	53		 push	 ebx
  00014	56		 push	 esi
  00015	57		 push	 edi
  00016	89 4d f8	 mov	 DWORD PTR _this$[ebp], ecx

; 842  : //	INT iTICK_SEC = (GetTickCount() - m_BridgeData[iBridgeIndex].m_iBC_TICK_COUNT) / 1000;
; 843  : 	INT iTICK_MSEC = (GetTickCount() - m_BridgeData[iBridgeIndex].m_iBC_TICK_COUNT);

  00019	ff 15 00 00 00
	00		 call	 DWORD PTR __imp__GetTickCount@0
  0001f	69 4d 08 04 02
	00 00		 imul	 ecx, DWORD PTR _iBridgeIndex$[ebp], 516
  00026	8b 55 f8	 mov	 edx, DWORD PTR _this$[ebp]
  00029	2b 84 0a 58 01
	00 00		 sub	 eax, DWORD PTR [edx+ecx+344]
  00030	89 45 f4	 mov	 DWORD PTR _iTICK_MSEC$[ebp], eax

; 844  : 	
; 845  : 	if (iTICK_MSEC >= 1000) {

  00033	81 7d f4 e8 03
	00 00		 cmp	 DWORD PTR _iTICK_MSEC$[ebp], 1000 ; 000003e8H
  0003a	0f 8c e8 04 00
	00		 jl	 $LN2@ProcState_

; 846  : 		m_BridgeData[iBridgeIndex].m_iBC_REMAIN_MSEC -= iTICK_MSEC;

  00040	69 45 08 04 02
	00 00		 imul	 eax, DWORD PTR _iBridgeIndex$[ebp], 516
  00047	8b 4d f8	 mov	 ecx, DWORD PTR _this$[ebp]
  0004a	8b 94 01 54 01
	00 00		 mov	 edx, DWORD PTR [ecx+eax+340]
  00051	2b 55 f4	 sub	 edx, DWORD PTR _iTICK_MSEC$[ebp]
  00054	69 45 08 04 02
	00 00		 imul	 eax, DWORD PTR _iBridgeIndex$[ebp], 516
  0005b	8b 4d f8	 mov	 ecx, DWORD PTR _this$[ebp]
  0005e	89 94 01 54 01
	00 00		 mov	 DWORD PTR [ecx+eax+340], edx

; 847  : 		m_BridgeData[iBridgeIndex].m_iBC_TICK_COUNT = GetTickCount();

  00065	ff 15 00 00 00
	00		 call	 DWORD PTR __imp__GetTickCount@0
  0006b	69 4d 08 04 02
	00 00		 imul	 ecx, DWORD PTR _iBridgeIndex$[ebp], 516
  00072	8b 55 f8	 mov	 edx, DWORD PTR _this$[ebp]
  00075	89 84 0a 58 01
	00 00		 mov	 DWORD PTR [edx+ecx+344], eax

; 848  : 
; 849  : #if TESTSERVER == 1
; 850  : 		//LogAddTD("[Blood Castle] (%d) - PLAYING Check Time. [%d] sec remain", iBridgeIndex+1, m_BridgeData[iBridgeIndex].m_iBC_REMAIN_MSEC / 1000);
; 851  : #endif
; 852  : 		if ((m_BridgeData[iBridgeIndex].m_iBC_REMAIN_MSEC <= (m_iBC_TIME_MIN_PLAY * 60 - BC_MAX_START_WAIT_TERM + 30) * 1000) && (!m_BridgeData[iBridgeIndex].m_bBC_MSG_BEFORE_PLAY)) {

  0007c	69 45 08 04 02
	00 00		 imul	 eax, DWORD PTR _iBridgeIndex$[ebp], 516
  00083	8b 4d f8	 mov	 ecx, DWORD PTR _this$[ebp]
  00086	6b 91 28 0e 00
	00 3c		 imul	 edx, DWORD PTR [ecx+3624], 60
  0008d	83 ea 1e	 sub	 edx, 30			; 0000001eH
  00090	69 ca e8 03 00
	00		 imul	 ecx, edx, 1000
  00096	8b 55 f8	 mov	 edx, DWORD PTR _this$[ebp]
  00099	39 8c 02 54 01
	00 00		 cmp	 DWORD PTR [edx+eax+340], ecx
  000a0	7f 51		 jg	 SHORT $LN3@ProcState_
  000a2	69 45 08 04 02
	00 00		 imul	 eax, DWORD PTR _iBridgeIndex$[ebp], 516
  000a9	8b 4d f8	 mov	 ecx, DWORD PTR _this$[ebp]
  000ac	0f b6 94 01 68
	01 00 00	 movzx	 edx, BYTE PTR [ecx+eax+360]
  000b4	85 d2		 test	 edx, edx
  000b6	75 3b		 jne	 SHORT $LN3@ProcState_

; 853  : 			m_BridgeData[iBridgeIndex].m_bBC_MSG_BEFORE_PLAY = true;

  000b8	69 45 08 04 02
	00 00		 imul	 eax, DWORD PTR _iBridgeIndex$[ebp], 516
  000bf	8b 4d f8	 mov	 ecx, DWORD PTR _this$[ebp]
  000c2	c6 84 01 68 01
	00 00 01	 mov	 BYTE PTR [ecx+eax+360], 1

; 854  : 			PMSG_SET_DEVILSQUARE pMsg;
; 855  : 			PHeadSetB((LPBYTE)&pMsg, 0x92, sizeof( pMsg ));

  000ca	6a 04		 push	 4
  000cc	68 92 00 00 00	 push	 146			; 00000092H
  000d1	8d 45 f0	 lea	 eax, DWORD PTR _pMsg$4[ebp]
  000d4	50		 push	 eax
  000d5	e8 00 00 00 00	 call	 ?PHeadSetB@@YAXPAEEH@Z	; PHeadSetB
  000da	83 c4 0c	 add	 esp, 12			; 0000000cH

; 856  : 			pMsg.Type = BC_MSG_BEFORE_PLAY;

  000dd	c6 45 f3 04	 mov	 BYTE PTR _pMsg$4[ebp+3], 4

; 857  : 			SendBridgeAnyMsg ((LPBYTE)&pMsg, sizeof( pMsg ), iBridgeIndex);

  000e1	8b 45 08	 mov	 eax, DWORD PTR _iBridgeIndex$[ebp]
  000e4	50		 push	 eax
  000e5	6a 04		 push	 4
  000e7	8d 4d f0	 lea	 ecx, DWORD PTR _pMsg$4[ebp]
  000ea	51		 push	 ecx
  000eb	8b 4d f8	 mov	 ecx, DWORD PTR _this$[ebp]
  000ee	e8 00 00 00 00	 call	 ?SendBridgeAnyMsg@CBloodCastle@@QAEXPAEHH@Z ; CBloodCastle::SendBridgeAnyMsg
$LN3@ProcState_:

; 858  : 		}
; 859  : 
; 860  : 		if (m_BridgeData[iBridgeIndex].m_bBC_MONSTER_KILL_COMPLETE) {

  000f3	69 45 08 04 02
	00 00		 imul	 eax, DWORD PTR _iBridgeIndex$[ebp], 516
  000fa	8b 4d f8	 mov	 ecx, DWORD PTR _this$[ebp]
  000fd	0f b6 94 01 60
	01 00 00	 movzx	 edx, BYTE PTR [ecx+eax+352]
  00105	85 d2		 test	 edx, edx
  00107	74 71		 je	 SHORT $LN4@ProcState_

; 861  : 			if (m_BridgeData[iBridgeIndex].m_dwBC_TICK_DOOR_OPEN != -1) {

  00109	69 45 08 04 02
	00 00		 imul	 eax, DWORD PTR _iBridgeIndex$[ebp], 516
  00110	8b 4d f8	 mov	 ecx, DWORD PTR _this$[ebp]
  00113	83 bc 01 80 01
	00 00 ff	 cmp	 DWORD PTR [ecx+eax+384], -1
  0011b	74 5d		 je	 SHORT $LN4@ProcState_

; 862  : 				if (GetTickCount() > m_BridgeData[iBridgeIndex].m_dwBC_TICK_DOOR_OPEN) {

  0011d	ff 15 00 00 00
	00		 call	 DWORD PTR __imp__GetTickCount@0
  00123	69 4d 08 04 02
	00 00		 imul	 ecx, DWORD PTR _iBridgeIndex$[ebp], 516
  0012a	8b 55 f8	 mov	 edx, DWORD PTR _this$[ebp]
  0012d	3b 84 0a 80 01
	00 00		 cmp	 eax, DWORD PTR [edx+ecx+384]
  00134	76 44		 jbe	 SHORT $LN4@ProcState_

; 863  : 					//  BC_MAX_TICK_DOOR_OPEN   ->   
; 864  : 					ReleaseCastleBridge(iBridgeIndex);						

  00136	8b 45 08	 mov	 eax, DWORD PTR _iBridgeIndex$[ebp]
  00139	50		 push	 eax
  0013a	8b 4d f8	 mov	 ecx, DWORD PTR _this$[ebp]
