; Listing generated by Microsoft (R) Optimizing Compiler Version 19.27.29111.0 

	TITLE	C:\Mu Online\Mu-GS-Webzen-MC-10093\GameServer\BuffHelper.cpp
	.686P
	.XMM
	include listing.inc
	.model	flat

INCLUDELIB LIBCMT
INCLUDELIB OLDNAMES

PUBLIC	?__empty_global_delete@@YAXPAX@Z		; __empty_global_delete
PUBLIC	?__empty_global_delete@@YAXPAXI@Z		; __empty_global_delete
PUBLIC	??2@YAPAXIPAX@Z					; operator new
PUBLIC	??0exception@std@@QAE@QBDH@Z			; std::exception::exception
PUBLIC	??0exception@std@@QAE@ABV01@@Z			; std::exception::exception
PUBLIC	??1exception@std@@UAE@XZ			; std::exception::~exception
PUBLIC	?what@exception@std@@UBEPBDXZ			; std::exception::what
PUBLIC	??_Gexception@std@@UAEPAXI@Z			; std::exception::`scalar deleting destructor'
PUBLIC	??0bad_alloc@std@@AAE@QBD@Z			; std::bad_alloc::bad_alloc
PUBLIC	??1bad_alloc@std@@UAE@XZ			; std::bad_alloc::~bad_alloc
PUBLIC	??0bad_alloc@std@@QAE@ABV01@@Z			; std::bad_alloc::bad_alloc
PUBLIC	??_Gbad_alloc@std@@UAEPAXI@Z			; std::bad_alloc::`scalar deleting destructor'
PUBLIC	??0bad_array_new_length@std@@QAE@XZ		; std::bad_array_new_length::bad_array_new_length
PUBLIC	??1bad_array_new_length@std@@UAE@XZ		; std::bad_array_new_length::~bad_array_new_length
PUBLIC	??0bad_array_new_length@std@@QAE@ABV01@@Z	; std::bad_array_new_length::bad_array_new_length
PUBLIC	??_Gbad_array_new_length@std@@UAEPAXI@Z		; std::bad_array_new_length::`scalar deleting destructor'
PUBLIC	?_Throw_bad_array_new_length@std@@YAXXZ		; std::_Throw_bad_array_new_length
PUBLIC	?max@?$numeric_limits@H@std@@SAHXZ		; std::numeric_limits<int>::max
PUBLIC	?_Allocate@_Default_allocate_traits@std@@SAPAXI@Z ; std::_Default_allocate_traits::_Allocate
PUBLIC	?_Adjust_manually_vector_aligned@std@@YAXAAPAXAAI@Z ; std::_Adjust_manually_vector_aligned
PUBLIC	?_Orphan_all@_Container_base0@std@@QAEXXZ	; std::_Container_base0::_Orphan_all
PUBLIC	?_Adopt@_Iterator_base0@std@@QAEXPBX@Z		; std::_Iterator_base0::_Adopt
PUBLIC	?_Getcont@_Iterator_base0@std@@QBEPBU_Container_base0@2@XZ ; std::_Iterator_base0::_Getcont
PUBLIC	??0_Fake_proxy_ptr_impl@std@@QAE@ABU_Fake_allocator@1@ABU_Container_base0@1@@Z ; std::_Fake_proxy_ptr_impl::_Fake_proxy_ptr_impl
PUBLIC	?_Release@_Fake_proxy_ptr_impl@std@@QAEXXZ	; std::_Fake_proxy_ptr_impl::_Release
PUBLIC	?_Throw_tree_length_error@std@@YAXXZ		; std::_Throw_tree_length_error
PUBLIC	??R?$less@H@std@@QBE_NABH0@Z			; std::less<int>::operator()
PUBLIC	??0CBuffHelper@@QAE@XZ				; CBuffHelper::CBuffHelper
PUBLIC	?Clear@CBuffHelper@@QAEXXZ			; CBuffHelper::Clear
PUBLIC	?Init@CBuffHelper@@QAEXXZ			; CBuffHelper::Init
PUBLIC	?Load@CBuffHelper@@QAEHPAD@Z			; CBuffHelper::Load
PUBLIC	?CheckUserCondition@CBuffHelper@@QAEXPAVOBJECTSTRUCT@@H@Z ; CBuffHelper::CheckUserCondition
PUBLIC	?SetNPCData@CBuffHelper@@QAEXAAUNPC_DATA_HELPER@@@Z ; CBuffHelper::SetNPCData
PUBLIC	?ClearNPCData@CBuffHelper@@QAEXXZ		; CBuffHelper::ClearNPCData
PUBLIC	?GetNPCData@CBuffHelper@@QAEHH@Z		; CBuffHelper::GetNPCData
PUBLIC	??0?$allocator@U?$_Tree_node@U?$pair@$$CBHUNPC_DATA_HELPER@@@std@@PAX@std@@@std@@QAE@XZ ; std::allocator<std::_Tree_node<std::pair<int const ,NPC_DATA_HELPER>,void *> >::allocator<std::_Tree_node<std::pair<int const ,NPC_DATA_HELPER>,void *> >
PUBLIC	?deallocate@?$allocator@U?$_Tree_node@U?$pair@$$CBHUNPC_DATA_HELPER@@@std@@PAX@std@@@std@@QAEXQAU?$_Tree_node@U?$pair@$$CBHUNPC_DATA_HELPER@@@std@@PAX@2@I@Z ; std::allocator<std::_Tree_node<std::pair<int const ,NPC_DATA_HELPER>,void *> >::deallocate
PUBLIC	?allocate@?$allocator@U?$_Tree_node@U?$pair@$$CBHUNPC_DATA_HELPER@@@std@@PAX@std@@@std@@QAEPAU?$_Tree_node@U?$pair@$$CBHUNPC_DATA_HELPER@@@std@@PAX@2@I@Z ; std::allocator<std::_Tree_node<std::pair<int const ,NPC_DATA_HELPER>,void *> >::allocate
PUBLIC	?deallocate@?$_Default_allocator_traits@V?$allocator@U?$_Tree_node@U?$pair@$$CBHUNPC_DATA_HELPER@@@std@@PAX@std@@@std@@@std@@SAXAAV?$allocator@U?$_Tree_node@U?$pair@$$CBHUNPC_DATA_HELPER@@@std@@PAX@std@@@2@QAU?$_Tree_node@U?$pair@$$CBHUNPC_DATA_HELPER@@@std@@PAX@2@I@Z ; std::_Default_allocator_traits<std::allocator<std::_Tree_node<std::pair<int const ,NPC_DATA_HELPER>,void *> > >::deallocate
PUBLIC	?max_size@?$_Default_allocator_traits@V?$allocator@U?$_Tree_node@U?$pair@$$CBHUNPC_DATA_HELPER@@@std@@PAX@std@@@std@@@std@@SAIABV?$allocator@U?$_Tree_node@U?$pair@$$CBHUNPC_DATA_HELPER@@@std@@PAX@std@@@2@@Z ; std::_Default_allocator_traits<std::allocator<std::_Tree_node<std::pair<int const ,NPC_DATA_HELPER>,void *> > >::max_size
PUBLIC	??0?$_Tree@V?$_Tmap_traits@HUNPC_DATA_HELPER@@U?$less@H@std@@V?$allocator@U?$pair@$$CBHUNPC_DATA_HELPER@@@std@@@3@$0A@@std@@@std@@QAE@ABU?$less@H@1@@Z ; std::_Tree<std::_Tmap_traits<int,NPC_DATA_HELPER,std::less<int>,std::allocator<std::pair<int const ,NPC_DATA_HELPER> >,0> >::_Tree<std::_Tmap_traits<int,NPC_DATA_HELPER,std::less<int>,std::allocator<std::pair<int const ,NPC_DATA_HELPER> >,0> >
PUBLIC	??1?$_Tree@V?$_Tmap_traits@HUNPC_DATA_HELPER@@U?$less@H@std@@V?$allocator@U?$pair@$$CBHUNPC_DATA_HELPER@@@std@@@3@$0A@@std@@@std@@QAE@XZ ; std::_Tree<std::_Tmap_traits<int,NPC_DATA_HELPER,std::less<int>,std::allocator<std::pair<int const ,NPC_DATA_HELPER> >,0> >::~_Tree<std::_Tmap_traits<int,NPC_DATA_HELPER,std::less<int>,std::allocator<std::pair<int const ,NPC_DATA_HELPER> >,0> >
PUBLIC	?begin@?$_Tree@V?$_Tmap_traits@HUNPC_DATA_HELPER@@U?$less@H@std@@V?$allocator@U?$pair@$$CBHUNPC_DATA_HELPER@@@std@@@3@$0A@@std@@@std@@QAE?AV?$_Tree_iterator@V?$_Tree_val@U?$_Tree_simple_types@U?$pair@$$CBHUNPC_DATA_HELPER@@@std@@@std@@@std@@@2@XZ ; std::_Tree<std::_Tmap_traits<int,NPC_DATA_HELPER,std::less<int>,std::allocator<std::pair<int const ,NPC_DATA_HELPER> >,0> >::begin
PUBLIC	?end@?$_Tree@V?$_Tmap_traits@HUNPC_DATA_HELPER@@U?$less@H@std@@V?$allocator@U?$pair@$$CBHUNPC_DATA_HELPER@@@std@@@3@$0A@@std@@@std@@QAE?AV?$_Tree_iterator@V?$_Tree_val@U?$_Tree_simple_types@U?$pair@$$CBHUNPC_DATA_HELPER@@@std@@@std@@@std@@@2@XZ ; std::_Tree<std::_Tmap_traits<int,NPC_DATA_HELPER,std::less<int>,std::allocator<std::pair<int const ,NPC_DATA_HELPER> >,0> >::end
PUBLIC	?size@?$_Tree@V?$_Tmap_traits@HUNPC_DATA_HELPER@@U?$less@H@std@@V?$allocator@U?$pair@$$CBHUNPC_DATA_HELPER@@@std@@@3@$0A@@std@@@std@@QBEIXZ ; std::_Tree<std::_Tmap_traits<int,NPC_DATA_HELPER,std::less<int>,std::allocator<std::pair<int const ,NPC_DATA_HELPER> >,0> >::size
PUBLIC	?max_size@?$_Tree@V?$_Tmap_traits@HUNPC_DATA_HELPER@@U?$less@H@std@@V?$allocator@U?$pair@$$CBHUNPC_DATA_HELPER@@@std@@@3@$0A@@std@@@std@@QBEIXZ ; std::_Tree<std::_Tmap_traits<int,NPC_DATA_HELPER,std::less<int>,std::allocator<std::pair<int const ,NPC_DATA_HELPER> >,0> >::max_size
PUBLIC	?_Erase_unchecked@?$_Tree@V?$_Tmap_traits@HUNPC_DATA_HELPER@@U?$less@H@std@@V?$allocator@U?$pair@$$CBHUNPC_DATA_HELPER@@@std@@@3@$0A@@std@@@std@@AAEPAU?$_Tree_node@U?$pair@$$CBHUNPC_DATA_HELPER@@@std@@PAX@2@V?$_Tree_unchecked_const_iterator@V?$_Tree_val@U?$_Tree_simple_types@U?$pair@$$CBHUNPC_DATA_HELPER@@@std@@@std@@@std@@U_Iterator_base0@2@@2@@Z ; std::_Tree<std::_Tmap_traits<int,NPC_DATA_HELPER,std::less<int>,std::allocator<std::pair<int const ,NPC_DATA_HELPER> >,0> >::_Erase_unchecked
PUBLIC	?find@?$_Tree@V?$_Tmap_traits@HUNPC_DATA_HELPER@@U?$less@H@std@@V?$allocator@U?$pair@$$CBHUNPC_DATA_HELPER@@@std@@@3@$0A@@std@@@std@@QAE?AV?$_Tree_iterator@V?$_Tree_val@U?$_Tree_simple_types@U?$pair@$$CBHUNPC_DATA_HELPER@@@std@@@std@@@std@@@2@ABH@Z ; std::_Tree<std::_Tmap_traits<int,NPC_DATA_HELPER,std::less<int>,std::allocator<std::pair<int const ,NPC_DATA_HELPER> >,0> >::find
PUBLIC	?_Check_grow_by_1@?$_Tree@V?$_Tmap_traits@HUNPC_DATA_HELPER@@U?$less@H@std@@V?$allocator@U?$pair@$$CBHUNPC_DATA_HELPER@@@std@@@3@$0A@@std@@@std@@IAEXXZ ; std::_Tree<std::_Tmap_traits<int,NPC_DATA_HELPER,std::less<int>,std::allocator<std::pair<int const ,NPC_DATA_HELPER> >,0> >::_Check_grow_by_1
PUBLIC	?_Alloc_sentinel_and_proxy@?$_Tree@V?$_Tmap_traits@HUNPC_DATA_HELPER@@U?$less@H@std@@V?$allocator@U?$pair@$$CBHUNPC_DATA_HELPER@@@std@@@3@$0A@@std@@@std@@IAEXXZ ; std::_Tree<std::_Tmap_traits<int,NPC_DATA_HELPER,std::less<int>,std::allocator<std::pair<int const ,NPC_DATA_HELPER> >,0> >::_Alloc_sentinel_and_proxy
PUBLIC	?_Getcomp@?$_Tree@V?$_Tmap_traits@HUNPC_DATA_HELPER@@U?$less@H@std@@V?$allocator@U?$pair@$$CBHUNPC_DATA_HELPER@@@std@@@3@$0A@@std@@@std@@IBEABU?$less@H@2@XZ ; std::_Tree<std::_Tmap_traits<int,NPC_DATA_HELPER,std::less<int>,std::allocator<std::pair<int const ,NPC_DATA_HELPER> >,0> >::_Getcomp
PUBLIC	?_Getal@?$_Tree@V?$_Tmap_traits@HUNPC_DATA_HELPER@@U?$less@H@std@@V?$allocator@U?$pair@$$CBHUNPC_DATA_HELPER@@@std@@@3@$0A@@std@@@std@@IAEAAV?$allocator@U?$_Tree_node@U?$pair@$$CBHUNPC_DATA_HELPER@@@std@@PAX@std@@@2@XZ ; std::_Tree<std::_Tmap_traits<int,NPC_DATA_HELPER,std::less<int>,std::allocator<std::pair<int const ,NPC_DATA_HELPER> >,0> >::_Getal
PUBLIC	?_Getal@?$_Tree@V?$_Tmap_traits@HUNPC_DATA_HELPER@@U?$less@H@std@@V?$allocator@U?$pair@$$CBHUNPC_DATA_HELPER@@@std@@@3@$0A@@std@@@std@@IBEABV?$allocator@U?$_Tree_node@U?$pair@$$CBHUNPC_DATA_HELPER@@@std@@PAX@std@@@2@XZ ; std::_Tree<std::_Tmap_traits<int,NPC_DATA_HELPER,std::less<int>,std::allocator<std::pair<int const ,NPC_DATA_HELPER> >,0> >::_Getal
PUBLIC	?_Get_scary@?$_Tree@V?$_Tmap_traits@HUNPC_DATA_HELPER@@U?$less@H@std@@V?$allocator@U?$pair@$$CBHUNPC_DATA_HELPER@@@std@@@3@$0A@@std@@@std@@IAEPAV?$_Tree_val@U?$_Tree_simple_types@U?$pair@$$CBHUNPC_DATA_HELPER@@@std@@@std@@@2@XZ ; std::_Tree<std::_Tmap_traits<int,NPC_DATA_HELPER,std::less<int>,std::allocator<std::pair<int const ,NPC_DATA_HELPER> >,0> >::_Get_scary
PUBLIC	?_Get_scary@?$_Tree@V?$_Tmap_traits@HUNPC_DATA_HELPER@@U?$less@H@std@@V?$allocator@U?$pair@$$CBHUNPC_DATA_HELPER@@@std@@@3@$0A@@std@@@std@@IBEPBV?$_Tree_val@U?$_Tree_simple_types@U?$pair@$$CBHUNPC_DATA_HELPER@@@std@@@std@@@2@XZ ; std::_Tree<std::_Tmap_traits<int,NPC_DATA_HELPER,std::less<int>,std::allocator<std::pair<int const ,NPC_DATA_HELPER> >,0> >::_Get_scary
PUBLIC	??0?$_Tree_val@U?$_Tree_simple_types@U?$pair@$$CBHUNPC_DATA_HELPER@@@std@@@std@@@std@@QAE@XZ ; std::_Tree_val<std::_Tree_simple_types<std::pair<int const ,NPC_DATA_HELPER> > >::_Tree_val<std::_Tree_simple_types<std::pair<int const ,NPC_DATA_HELPER> > >
PUBLIC	?_Max@?$_Tree_val@U?$_Tree_simple_types@U?$pair@$$CBHUNPC_DATA_HELPER@@@std@@@std@@@std@@SAPAU?$_Tree_node@U?$pair@$$CBHUNPC_DATA_HELPER@@@std@@PAX@2@PAU32@@Z ; std::_Tree_val<std::_Tree_simple_types<std::pair<int const ,NPC_DATA_HELPER> > >::_Max
PUBLIC	?_Min@?$_Tree_val@U?$_Tree_simple_types@U?$pair@$$CBHUNPC_DATA_HELPER@@@std@@@std@@@std@@SAPAU?$_Tree_node@U?$pair@$$CBHUNPC_DATA_HELPER@@@std@@PAX@2@PAU32@@Z ; std::_Tree_val<std::_Tree_simple_types<std::pair<int const ,NPC_DATA_HELPER> > >::_Min
PUBLIC	?_Lrotate@?$_Tree_val@U?$_Tree_simple_types@U?$pair@$$CBHUNPC_DATA_HELPER@@@std@@@std@@@std@@QAEXPAU?$_Tree_node@U?$pair@$$CBHUNPC_DATA_HELPER@@@std@@PAX@2@@Z ; std::_Tree_val<std::_Tree_simple_types<std::pair<int const ,NPC_DATA_HELPER> > >::_Lrotate
PUBLIC	?_Rrotate@?$_Tree_val@U?$_Tree_simple_types@U?$pair@$$CBHUNPC_DATA_HELPER@@@std@@@std@@@std@@QAEXPAU?$_Tree_node@U?$pair@$$CBHUNPC_DATA_HELPER@@@std@@PAX@2@@Z ; std::_Tree_val<std::_Tree_simple_types<std::pair<int const ,NPC_DATA_HELPER> > >::_Rrotate
PUBLIC	?_Extract@?$_Tree_val@U?$_Tree_simple_types@U?$pair@$$CBHUNPC_DATA_HELPER@@@std@@@std@@@std@@QAEPAU?$_Tree_node@U?$pair@$$CBHUNPC_DATA_HELPER@@@std@@PAX@2@V?$_Tree_unchecked_const_iterator@V?$_Tree_val@U?$_Tree_simple_types@U?$pair@$$CBHUNPC_DATA_HELPER@@@std@@@std@@@std@@U_Iterator_base0@2@@2@@Z ; std::_Tree_val<std::_Tree_simple_types<std::pair<int const ,NPC_DATA_HELPER> > >::_Extract
PUBLIC	?_Insert_node@?$_Tree_val@U?$_Tree_simple_types@U?$pair@$$CBHUNPC_DATA_HELPER@@@std@@@std@@@std@@QAEPAU?$_Tree_node@U?$pair@$$CBHUNPC_DATA_HELPER@@@std@@PAX@2@U?$_Tree_id@PAU?$_Tree_node@U?$pair@$$CBHUNPC_DATA_HELPER@@@std@@PAX@std@@@2@QAU32@@Z ; std::_Tree_val<std::_Tree_simple_types<std::pair<int const ,NPC_DATA_HELPER> > >::_Insert_node
PUBLIC	?_Orphan_ptr@?$_Tree_val@U?$_Tree_simple_types@U?$pair@$$CBHUNPC_DATA_HELPER@@@std@@@std@@@std@@QAEXQAU?$_Tree_node@U?$pair@$$CBHUNPC_DATA_HELPER@@@std@@PAX@2@@Z ; std::_Tree_val<std::_Tree_simple_types<std::pair<int const ,NPC_DATA_HELPER> > >::_Orphan_ptr
PUBLIC	?_Get_first@?$_Compressed_pair@V?$allocator@U?$_Tree_node@U?$pair@$$CBHUNPC_DATA_HELPER@@@std@@PAX@std@@@std@@V?$_Tree_val@U?$_Tree_simple_types@U?$pair@$$CBHUNPC_DATA_HELPER@@@std@@@std@@@2@$00@std@@QAEAAV?$allocator@U?$_Tree_node@U?$pair@$$CBHUNPC_DATA_HELPER@@@std@@PAX@std@@@2@XZ ; std::_Compressed_pair<std::allocator<std::_Tree_node<std::pair<int const ,NPC_DATA_HELPER>,void *> >,std::_Tree_val<std::_Tree_simple_types<std::pair<int const ,NPC_DATA_HELPER> > >,1>::_Get_first
PUBLIC	?_Get_first@?$_Compressed_pair@V?$allocator@U?$_Tree_node@U?$pair@$$CBHUNPC_DATA_HELPER@@@std@@PAX@std@@@std@@V?$_Tree_val@U?$_Tree_simple_types@U?$pair@$$CBHUNPC_DATA_HELPER@@@std@@@std@@@2@$00@std@@QBEABV?$allocator@U?$_Tree_node@U?$pair@$$CBHUNPC_DATA_HELPER@@@std@@PAX@std@@@2@XZ ; std::_Compressed_pair<std::allocator<std::_Tree_node<std::pair<int const ,NPC_DATA_HELPER>,void *> >,std::_Tree_val<std::_Tree_simple_types<std::pair<int const ,NPC_DATA_HELPER> > >,1>::_Get_first
PUBLIC	?_Get_first@?$_Compressed_pair@U?$less@H@std@@V?$_Compressed_pair@V?$allocator@U?$_Tree_node@U?$pair@$$CBHUNPC_DATA_HELPER@@@std@@PAX@std@@@std@@V?$_Tree_val@U?$_Tree_simple_types@U?$pair@$$CBHUNPC_DATA_HELPER@@@std@@@std@@@2@$00@2@$00@std@@QBEABU?$less@H@2@XZ ; std::_Compressed_pair<std::less<int>,std::_Compressed_pair<std::allocator<std::_Tree_node<std::pair<int const ,NPC_DATA_HELPER>,void *> >,std::_Tree_val<std::_Tree_simple_types<std::pair<int const ,NPC_DATA_HELPER> > >,1>,1>::_Get_first
PUBLIC	??0?$map@HUNPC_DATA_HELPER@@U?$less@H@std@@V?$allocator@U?$pair@$$CBHUNPC_DATA_HELPER@@@std@@@3@@std@@QAE@XZ ; std::map<int,NPC_DATA_HELPER,std::less<int>,std::allocator<std::pair<int const ,NPC_DATA_HELPER> > >::map<int,NPC_DATA_HELPER,std::less<int>,std::allocator<std::pair<int const ,NPC_DATA_HELPER> > >
PUBLIC	??1?$map@HUNPC_DATA_HELPER@@U?$less@H@std@@V?$allocator@U?$pair@$$CBHUNPC_DATA_HELPER@@@std@@@3@@std@@QAE@XZ ; std::map<int,NPC_DATA_HELPER,std::less<int>,std::allocator<std::pair<int const ,NPC_DATA_HELPER> > >::~map<int,NPC_DATA_HELPER,std::less<int>,std::allocator<std::pair<int const ,NPC_DATA_HELPER> > >
PUBLIC	??1CBuffHelper@@QAE@XZ				; CBuffHelper::~CBuffHelper
PUBLIC	??$min@I@std@@YAABIABI0@Z			; std::min<unsigned int>
PUBLIC	??$_Deallocate@$07$0A@@std@@YAXPAXI@Z		; std::_Deallocate<8,0>
PUBLIC	??$_Allocate@$07U_Default_allocate_traits@std@@$0A@@std@@YAPAXI@Z ; std::_Allocate<8,std::_Default_allocate_traits,0>
PUBLIC	??$_Allocate_manually_vector_aligned@U_Default_allocate_traits@std@@@std@@YAPAXI@Z ; std::_Allocate_manually_vector_aligned<std::_Default_allocate_traits>
PUBLIC	??$make_pair@AAHAAUNPC_DATA_HELPER@@@std@@YA?AU?$pair@HUNPC_DATA_HELPER@@@0@AAHAAUNPC_DATA_HELPER@@@Z ; std::make_pair<int &,NPC_DATA_HELPER &>
PUBLIC	??$?0HUNPC_DATA_HELPER@@$0A@@?$pair@$$CBHUNPC_DATA_HELPER@@@std@@QAE@$$QAU?$pair@HUNPC_DATA_HELPER@@@1@@Z ; std::pair<int const ,NPC_DATA_HELPER>::pair<int const ,NPC_DATA_HELPER><int,NPC_DATA_HELPER,0>
PUBLIC	??$insert@U?$pair@HUNPC_DATA_HELPER@@@std@@$0A@@?$map@HUNPC_DATA_HELPER@@U?$less@H@std@@V?$allocator@U?$pair@$$CBHUNPC_DATA_HELPER@@@std@@@3@@std@@QAE?AU?$pair@V?$_Tree_iterator@V?$_Tree_val@U?$_Tree_simple_types@U?$pair@$$CBHUNPC_DATA_HELPER@@@std@@@std@@@std@@@std@@_N@1@$$QAU?$pair@HUNPC_DATA_HELPER@@@1@@Z ; std::map<int,NPC_DATA_HELPER,std::less<int>,std::allocator<std::pair<int const ,NPC_DATA_HELPER> > >::insert<std::pair<int,NPC_DATA_HELPER>,0>
PUBLIC	??0?$_Tree_unchecked_const_iterator@V?$_Tree_val@U?$_Tree_simple_types@U?$pair@$$CBHUNPC_DATA_HELPER@@@std@@@std@@@std@@U_Iterator_base0@2@@std@@QAE@PAU?$_Tree_node@U?$pair@$$CBHUNPC_DATA_HELPER@@@std@@PAX@1@PBV?$_Tree_val@U?$_Tree_simple_types@U?$pair@$$CBHUNPC_DATA_HELPER@@@std@@@std@@@1@@Z ; std::_Tree_unchecked_const_iterator<std::_Tree_val<std::_Tree_simple_types<std::pair<int const ,NPC_DATA_HELPER> > >,std::_Iterator_base0>::_Tree_unchecked_const_iterator<std::_Tree_val<std::_Tree_simple_types<std::pair<int const ,NPC_DATA_HELPER> > >,std::_Iterator_base0>
PUBLIC	??E?$_Tree_unchecked_const_iterator@V?$_Tree_val@U?$_Tree_simple_types@U?$pair@$$CBHUNPC_DATA_HELPER@@@std@@@std@@@std@@U_Iterator_base0@2@@std@@QAEAAV01@XZ ; std::_Tree_unchecked_const_iterator<std::_Tree_val<std::_Tree_simple_types<std::pair<int const ,NPC_DATA_HELPER> > >,std::_Iterator_base0>::operator++
PUBLIC	??D?$_Tree_const_iterator@V?$_Tree_val@U?$_Tree_simple_types@U?$pair@$$CBHUNPC_DATA_HELPER@@@std@@@std@@@std@@@std@@QBEABU?$pair@$$CBHUNPC_DATA_HELPER@@@1@XZ ; std::_Tree_const_iterator<std::_Tree_val<std::_Tree_simple_types<std::pair<int const ,NPC_DATA_HELPER> > > >::operator*
PUBLIC	??8?$_Tree_const_iterator@V?$_Tree_val@U?$_Tree_simple_types@U?$pair@$$CBHUNPC_DATA_HELPER@@@std@@@std@@@std@@@std@@QBE_NABV01@@Z ; std::_Tree_const_iterator<std::_Tree_val<std::_Tree_simple_types<std::pair<int const ,NPC_DATA_HELPER> > > >::operator==
PUBLIC	??9?$_Tree_const_iterator@V?$_Tree_val@U?$_Tree_simple_types@U?$pair@$$CBHUNPC_DATA_HELPER@@@std@@@std@@@std@@@std@@QBE_NABV01@@Z ; std::_Tree_const_iterator<std::_Tree_val<std::_Tree_simple_types<std::pair<int const ,NPC_DATA_HELPER> > > >::operator!=
PUBLIC	??0?$_Tree_const_iterator@V?$_Tree_val@U?$_Tree_simple_types@U?$pair@$$CBHUNPC_DATA_HELPER@@@std@@@std@@@std@@@std@@QAE@PAU?$_Tree_node@U?$pair@$$CBHUNPC_DATA_HELPER@@@std@@PAX@1@PBV?$_Tree_val@U?$_Tree_simple_types@U?$pair@$$CBHUNPC_DATA_HELPER@@@std@@@std@@@1@@Z ; std::_Tree_const_iterator<std::_Tree_val<std::_Tree_simple_types<std::pair<int const ,NPC_DATA_HELPER> > > >::_Tree_const_iterator<std::_Tree_val<std::_Tree_simple_types<std::pair<int const ,NPC_DATA_HELPER> > > >
PUBLIC	??D?$_Tree_iterator@V?$_Tree_val@U?$_Tree_simple_types@U?$pair@$$CBHUNPC_DATA_HELPER@@@std@@@std@@@std@@@std@@QBEAAU?$pair@$$CBHUNPC_DATA_HELPER@@@1@XZ ; std::_Tree_iterator<std::_Tree_val<std::_Tree_simple_types<std::pair<int const ,NPC_DATA_HELPER> > > >::operator*
PUBLIC	??C?$_Tree_iterator@V?$_Tree_val@U?$_Tree_simple_types@U?$pair@$$CBHUNPC_DATA_HELPER@@@std@@@std@@@std@@@std@@QBEPAU?$pair@$$CBHUNPC_DATA_HELPER@@@1@XZ ; std::_Tree_iterator<std::_Tree_val<std::_Tree_simple_types<std::pair<int const ,NPC_DATA_HELPER> > > >::operator->
PUBLIC	?_Unwrapped@?$_Tree_iterator@V?$_Tree_val@U?$_Tree_simple_types@U?$pair@$$CBHUNPC_DATA_HELPER@@@std@@@std@@@std@@@std@@QBE?AV?$_Tree_unchecked_iterator@V?$_Tree_val@U?$_Tree_simple_types@U?$pair@$$CBHUNPC_DATA_HELPER@@@std@@@std@@@std@@@2@XZ ; std::_Tree_iterator<std::_Tree_val<std::_Tree_simple_types<std::pair<int const ,NPC_DATA_HELPER> > > >::_Unwrapped
PUBLIC	??0?$_Tree_iterator@V?$_Tree_val@U?$_Tree_simple_types@U?$pair@$$CBHUNPC_DATA_HELPER@@@std@@@std@@@std@@@std@@QAE@PAU?$_Tree_node@U?$pair@$$CBHUNPC_DATA_HELPER@@@std@@PAX@1@PBV?$_Tree_val@U?$_Tree_simple_types@U?$pair@$$CBHUNPC_DATA_HELPER@@@std@@@std@@@1@@Z ; std::_Tree_iterator<std::_Tree_val<std::_Tree_simple_types<std::pair<int const ,NPC_DATA_HELPER> > > >::_Tree_iterator<std::_Tree_val<std::_Tree_simple_types<std::pair<int const ,NPC_DATA_HELPER> > > >
PUBLIC	??$erase@V?$_Tree_iterator@V?$_Tree_val@U?$_Tree_simple_types@U?$pair@$$CBHUNPC_DATA_HELPER@@@std@@@std@@@std@@@std@@$0A@@?$_Tree@V?$_Tmap_traits@HUNPC_DATA_HELPER@@U?$less@H@std@@V?$allocator@U?$pair@$$CBHUNPC_DATA_HELPER@@@std@@@3@$0A@@std@@@std@@QAE?AV?$_Tree_iterator@V?$_Tree_val@U?$_Tree_simple_types@U?$pair@$$CBHUNPC_DATA_HELPER@@@std@@@std@@@std@@@1@V21@@Z ; std::_Tree<std::_Tmap_traits<int,NPC_DATA_HELPER,std::less<int>,std::allocator<std::pair<int const ,NPC_DATA_HELPER> >,0> >::erase<std::_Tree_iterator<std::_Tree_val<std::_Tree_simple_types<std::pair<int const ,NPC_DATA_HELPER> > > >,0>
PUBLIC	?pointer_to@?$pointer_traits@PAU?$pair@$$CBHUNPC_DATA_HELPER@@@std@@@std@@SAPAU?$pair@$$CBHUNPC_DATA_HELPER@@@2@AAU32@@Z ; std::pointer_traits<std::pair<int const ,NPC_DATA_HELPER> *>::pointer_to
PUBLIC	??$_Find@H@?$_Tree@V?$_Tmap_traits@HUNPC_DATA_HELPER@@U?$less@H@std@@V?$allocator@U?$pair@$$CBHUNPC_DATA_HELPER@@@std@@@3@$0A@@std@@@std@@ABEPAU?$_Tree_node@U?$pair@$$CBHUNPC_DATA_HELPER@@@std@@PAX@1@ABH@Z ; std::_Tree<std::_Tmap_traits<int,NPC_DATA_HELPER,std::less<int>,std::allocator<std::pair<int const ,NPC_DATA_HELPER> >,0> >::_Find<int>
PUBLIC	??$_Erase_head@V?$allocator@U?$_Tree_node@U?$pair@$$CBHUNPC_DATA_HELPER@@@std@@PAX@std@@@std@@@?$_Tree_val@U?$_Tree_simple_types@U?$pair@$$CBHUNPC_DATA_HELPER@@@std@@@std@@@std@@QAEXAAV?$allocator@U?$_Tree_node@U?$pair@$$CBHUNPC_DATA_HELPER@@@std@@PAX@std@@@1@@Z ; std::_Tree_val<std::_Tree_simple_types<std::pair<int const ,NPC_DATA_HELPER> > >::_Erase_head<std::allocator<std::_Tree_node<std::pair<int const ,NPC_DATA_HELPER>,void *> > >
PUBLIC	??$addressof@U?$pair@$$CBHUNPC_DATA_HELPER@@@std@@@std@@YAPAU?$pair@$$CBHUNPC_DATA_HELPER@@@0@AAU10@@Z ; std::addressof<std::pair<int const ,NPC_DATA_HELPER> >
PUBLIC	??$addressof@$$CBV?$_Tree_val@U?$_Tree_simple_types@U?$pair@$$CBHUNPC_DATA_HELPER@@@std@@@std@@@std@@@std@@YAPBV?$_Tree_val@U?$_Tree_simple_types@U?$pair@$$CBHUNPC_DATA_HELPER@@@std@@@std@@@0@ABV10@@Z ; std::addressof<std::_Tree_val<std::_Tree_simple_types<std::pair<int const ,NPC_DATA_HELPER> > > const >
PUBLIC	??$addressof@V?$_Tree_val@U?$_Tree_simple_types@U?$pair@$$CBHUNPC_DATA_HELPER@@@std@@@std@@@std@@@std@@YAPAV?$_Tree_val@U?$_Tree_simple_types@U?$pair@$$CBHUNPC_DATA_HELPER@@@std@@@std@@@0@AAV10@@Z ; std::addressof<std::_Tree_val<std::_Tree_simple_types<std::pair<int const ,NPC_DATA_HELPER> > > >
PUBLIC	??$?0ABU?$less@H@std@@U_Zero_then_variadic_args_t@1@@?$_Compressed_pair@U?$less@H@std@@V?$_Compressed_pair@V?$allocator@U?$_Tree_node@U?$pair@$$CBHUNPC_DATA_HELPER@@@std@@PAX@std@@@std@@V?$_Tree_val@U?$_Tree_simple_types@U?$pair@$$CBHUNPC_DATA_HELPER@@@std@@@std@@@2@$00@2@$00@std@@QAE@U_One_then_variadic_args_t@1@ABU?$less@H@1@$$QAU_Zero_then_variadic_args_t@1@@Z ; std::_Compressed_pair<std::less<int>,std::_Compressed_pair<std::allocator<std::_Tree_node<std::pair<int const ,NPC_DATA_HELPER>,void *> >,std::_Tree_val<std::_Tree_simple_types<std::pair<int const ,NPC_DATA_HELPER> > >,1>,1>::_Compressed_pair<std::less<int>,std::_Compressed_pair<std::allocator<std::_Tree_node<std::pair<int const ,NPC_DATA_HELPER>,void *> >,std::_Tree_val<std::_Tree_simple_types<std::pair<int const ,NPC_DATA_HELPER> > >,1>,1><std::less<int> const &,std::_Zero_then_variadic_args_t>
PUBLIC	??$?0$$V@?$_Compressed_pair@V?$allocator@U?$_Tree_node@U?$pair@$$CBHUNPC_DATA_HELPER@@@std@@PAX@std@@@std@@V?$_Tree_val@U?$_Tree_simple_types@U?$pair@$$CBHUNPC_DATA_HELPER@@@std@@@std@@@2@$00@std@@QAE@U_Zero_then_variadic_args_t@1@@Z ; std::_Compressed_pair<std::allocator<std::_Tree_node<std::pair<int const ,NPC_DATA_HELPER>,void *> >,std::_Tree_val<std::_Tree_simple_types<std::pair<int const ,NPC_DATA_HELPER> > >,1>::_Compressed_pair<std::allocator<std::_Tree_node<std::pair<int const ,NPC_DATA_HELPER>,void *> >,std::_Tree_val<std::_Tree_simple_types<std::pair<int const ,NPC_DATA_HELPER> > >,1><>
PUBLIC	??$_Buyheadnode@V?$allocator@U?$_Tree_node@U?$pair@$$CBHUNPC_DATA_HELPER@@@std@@PAX@std@@@std@@@?$_Tree_node@U?$pair@$$CBHUNPC_DATA_HELPER@@@std@@PAX@std@@SAPAU01@AAV?$allocator@U?$_Tree_node@U?$pair@$$CBHUNPC_DATA_HELPER@@@std@@PAX@std@@@1@@Z ; std::_Tree_node<std::pair<int const ,NPC_DATA_HELPER>,void *>::_Buyheadnode<std::allocator<std::_Tree_node<std::pair<int const ,NPC_DATA_HELPER>,void *> > >
PUBLIC	??$forward@AAH@std@@YAAAHAAH@Z			; std::forward<int &>
PUBLIC	??$forward@AAUNPC_DATA_HELPER@@@std@@YAAAUNPC_DATA_HELPER@@AAU1@@Z ; std::forward<NPC_DATA_HELPER &>
PUBLIC	??$?0AAHAAUNPC_DATA_HELPER@@$0A@@?$pair@HUNPC_DATA_HELPER@@@std@@QAE@AAHAAUNPC_DATA_HELPER@@@Z ; std::pair<int,NPC_DATA_HELPER>::pair<int,NPC_DATA_HELPER><int &,NPC_DATA_HELPER &,0>
PUBLIC	??$forward@U?$pair@HUNPC_DATA_HELPER@@@std@@@std@@YA$$QAU?$pair@HUNPC_DATA_HELPER@@@0@AAU10@@Z ; std::forward<std::pair<int,NPC_DATA_HELPER> >
PUBLIC	??$emplace@U?$pair@HUNPC_DATA_HELPER@@@std@@@?$_Tree@V?$_Tmap_traits@HUNPC_DATA_HELPER@@U?$less@H@std@@V?$allocator@U?$pair@$$CBHUNPC_DATA_HELPER@@@std@@@3@$0A@@std@@@std@@QAE?AU?$pair@V?$_Tree_iterator@V?$_Tree_val@U?$_Tree_simple_types@U?$pair@$$CBHUNPC_DATA_HELPER@@@std@@@std@@@std@@@std@@_N@1@$$QAU?$pair@HUNPC_DATA_HELPER@@@1@@Z ; std::_Tree<std::_Tmap_traits<int,NPC_DATA_HELPER,std::less<int>,std::allocator<std::pair<int const ,NPC_DATA_HELPER> >,0> >::emplace<std::pair<int,NPC_DATA_HELPER> >
PUBLIC	??0?$_Tree_unchecked_iterator@V?$_Tree_val@U?$_Tree_simple_types@U?$pair@$$CBHUNPC_DATA_HELPER@@@std@@@std@@@std@@@std@@QAE@PAU?$_Tree_node@U?$pair@$$CBHUNPC_DATA_HELPER@@@std@@PAX@1@PBV?$_Tree_val@U?$_Tree_simple_types@U?$pair@$$CBHUNPC_DATA_HELPER@@@std@@@std@@@1@@Z ; std::_Tree_unchecked_iterator<std::_Tree_val<std::_Tree_simple_types<std::pair<int const ,NPC_DATA_HELPER> > > >::_Tree_unchecked_iterator<std::_Tree_val<std::_Tree_simple_types<std::pair<int const ,NPC_DATA_HELPER> > > >
PUBLIC	??$_Find_lower_bound@H@?$_Tree@V?$_Tmap_traits@HUNPC_DATA_HELPER@@U?$less@H@std@@V?$allocator@U?$pair@$$CBHUNPC_DATA_HELPER@@@std@@@3@$0A@@std@@@std@@IBE?AU?$_Tree_find_result@PAU?$_Tree_node@U?$pair@$$CBHUNPC_DATA_HELPER@@@std@@PAX@std@@@1@ABH@Z ; std::_Tree<std::_Tmap_traits<int,NPC_DATA_HELPER,std::less<int>,std::allocator<std::pair<int const ,NPC_DATA_HELPER> >,0> >::_Find_lower_bound<int>
PUBLIC	??$_Lower_bound_duplicate@H@?$_Tree@V?$_Tmap_traits@HUNPC_DATA_HELPER@@U?$less@H@std@@V?$allocator@U?$pair@$$CBHUNPC_DATA_HELPER@@@std@@@3@$0A@@std@@@std@@IBE_NQAU?$_Tree_node@U?$pair@$$CBHUNPC_DATA_HELPER@@@std@@PAX@1@ABH@Z ; std::_Tree<std::_Tmap_traits<int,NPC_DATA_HELPER,std::less<int>,std::allocator<std::pair<int const ,NPC_DATA_HELPER> >,0> >::_Lower_bound_duplicate<int>
PUBLIC	??$_Erase_tree@V?$allocator@U?$_Tree_node@U?$pair@$$CBHUNPC_DATA_HELPER@@@std@@PAX@std@@@std@@@?$_Tree_val@U?$_Tree_simple_types@U?$pair@$$CBHUNPC_DATA_HELPER@@@std@@@std@@@std@@QAEXAAV?$allocator@U?$_Tree_node@U?$pair@$$CBHUNPC_DATA_HELPER@@@std@@PAX@std@@@1@PAU?$_Tree_node@U?$pair@$$CBHUNPC_DATA_HELPER@@@std@@PAX@1@@Z ; std::_Tree_val<std::_Tree_simple_types<std::pair<int const ,NPC_DATA_HELPER> > >::_Erase_tree<std::allocator<std::_Tree_node<std::pair<int const ,NPC_DATA_HELPER>,void *> > >
PUBLIC	??$_Freenode0@V?$allocator@U?$_Tree_node@U?$pair@$$CBHUNPC_DATA_HELPER@@@std@@PAX@std@@@std@@@?$_Tree_node@U?$pair@$$CBHUNPC_DATA_HELPER@@@std@@PAX@std@@SAXAAV?$allocator@U?$_Tree_node@U?$pair@$$CBHUNPC_DATA_HELPER@@@std@@PAX@std@@@1@PAU01@@Z ; std::_Tree_node<std::pair<int const ,NPC_DATA_HELPER>,void *>::_Freenode0<std::allocator<std::_Tree_node<std::pair<int const ,NPC_DATA_HELPER>,void *> > >
PUBLIC	??$forward@ABU?$less@H@std@@@std@@YAABU?$less@H@0@ABU10@@Z ; std::forward<std::less<int> const &>
PUBLIC	??$forward@U_Zero_then_variadic_args_t@std@@@std@@YA$$QAU_Zero_then_variadic_args_t@0@AAU10@@Z ; std::forward<std::_Zero_then_variadic_args_t>
PUBLIC	??$_Construct_in_place@PAU?$_Tree_node@U?$pair@$$CBHUNPC_DATA_HELPER@@@std@@PAX@std@@ABQAU12@@std@@YAXAAPAU?$_Tree_node@U?$pair@$$CBHUNPC_DATA_HELPER@@@std@@PAX@0@ABQAU10@@Z ; std::_Construct_in_place<std::_Tree_node<std::pair<int const ,NPC_DATA_HELPER>,void *> *,std::_Tree_node<std::pair<int const ,NPC_DATA_HELPER>,void *> * const &>
PUBLIC	??$_Freenode@V?$allocator@U?$_Tree_node@U?$pair@$$CBHUNPC_DATA_HELPER@@@std@@PAX@std@@@std@@@?$_Tree_node@U?$pair@$$CBHUNPC_DATA_HELPER@@@std@@PAX@std@@SAXAAV?$allocator@U?$_Tree_node@U?$pair@$$CBHUNPC_DATA_HELPER@@@std@@PAX@std@@@1@PAU01@@Z ; std::_Tree_node<std::pair<int const ,NPC_DATA_HELPER>,void *>::_Freenode<std::allocator<std::_Tree_node<std::pair<int const ,NPC_DATA_HELPER>,void *> > >
PUBLIC	??$_Get_size_of_n@$0CI@@std@@YAII@Z		; std::_Get_size_of_n<40>
PUBLIC	??$swap@D$0A@@std@@YAXAAD0@Z			; std::swap<char,0>
PUBLIC	??$_Emplace@U?$pair@HUNPC_DATA_HELPER@@@std@@@?$_Tree@V?$_Tmap_traits@HUNPC_DATA_HELPER@@U?$less@H@std@@V?$allocator@U?$pair@$$CBHUNPC_DATA_HELPER@@@std@@@3@$0A@@std@@@std@@IAE?AU?$pair@PAU?$_Tree_node@U?$pair@$$CBHUNPC_DATA_HELPER@@@std@@PAX@std@@_N@1@$$QAU?$pair@HUNPC_DATA_HELPER@@@1@@Z ; std::_Tree<std::_Tmap_traits<int,NPC_DATA_HELPER,std::less<int>,std::allocator<std::pair<int const ,NPC_DATA_HELPER> >,0> >::_Emplace<std::pair<int,NPC_DATA_HELPER> >
PUBLIC	??$?0V?$_Tree_iterator@V?$_Tree_val@U?$_Tree_simple_types@U?$pair@$$CBHUNPC_DATA_HELPER@@@std@@@std@@@std@@@std@@AB_N$0A@@?$pair@V?$_Tree_iterator@V?$_Tree_val@U?$_Tree_simple_types@U?$pair@$$CBHUNPC_DATA_HELPER@@@std@@@std@@@std@@@std@@_N@std@@QAE@$$QAV?$_Tree_iterator@V?$_Tree_val@U?$_Tree_simple_types@U?$pair@$$CBHUNPC_DATA_HELPER@@@std@@@std@@@std@@@1@AB_N@Z ; std::pair<std::_Tree_iterator<std::_Tree_val<std::_Tree_simple_types<std::pair<int const ,NPC_DATA_HELPER> > > >,bool>::pair<std::_Tree_iterator<std::_Tree_val<std::_Tree_simple_types<std::pair<int const ,NPC_DATA_HELPER> > > >,bool><std::_Tree_iterator<std::_Tree_val<std::_Tree_simple_types<std::pair<int const ,NPC_DATA_HELPER> > > >,bool const &,0>
PUBLIC	??$_Kfn@$$CBHUNPC_DATA_HELPER@@@?$_Tmap_traits@HUNPC_DATA_HELPER@@U?$less@H@std@@V?$allocator@U?$pair@$$CBHUNPC_DATA_HELPER@@@std@@@3@$0A@@std@@SAABHABU?$pair@$$CBHUNPC_DATA_HELPER@@@1@@Z ; std::_Tmap_traits<int,NPC_DATA_HELPER,std::less<int>,std::allocator<std::pair<int const ,NPC_DATA_HELPER> >,0>::_Kfn<int const ,NPC_DATA_HELPER>
PUBLIC	??$exchange@PAU?$_Tree_node@U?$pair@$$CBHUNPC_DATA_HELPER@@@std@@PAX@std@@AAPAU12@@std@@YAPAU?$_Tree_node@U?$pair@$$CBHUNPC_DATA_HELPER@@@std@@PAX@0@AAPAU10@0@Z ; std::exchange<std::_Tree_node<std::pair<int const ,NPC_DATA_HELPER>,void *> *,std::_Tree_node<std::pair<int const ,NPC_DATA_HELPER>,void *> * &>
PUBLIC	??$_Destroy_in_place@PAU?$_Tree_node@U?$pair@$$CBHUNPC_DATA_HELPER@@@std@@PAX@std@@@std@@YAXAAPAU?$_Tree_node@U?$pair@$$CBHUNPC_DATA_HELPER@@@std@@PAX@0@@Z ; std::_Destroy_in_place<std::_Tree_node<std::pair<int const ,NPC_DATA_HELPER>,void *> *>
PUBLIC	??$addressof@PAU?$_Tree_node@U?$pair@$$CBHUNPC_DATA_HELPER@@@std@@PAX@std@@@std@@YAPAPAU?$_Tree_node@U?$pair@$$CBHUNPC_DATA_HELPER@@@std@@PAX@0@AAPAU10@@Z ; std::addressof<std::_Tree_node<std::pair<int const ,NPC_DATA_HELPER>,void *> *>
PUBLIC	??$forward@ABQAU?$_Tree_node@U?$pair@$$CBHUNPC_DATA_HELPER@@@std@@PAX@std@@@std@@YAABQAU?$_Tree_node@U?$pair@$$CBHUNPC_DATA_HELPER@@@std@@PAX@0@ABQAU10@@Z ; std::forward<std::_Tree_node<std::pair<int const ,NPC_DATA_HELPER>,void *> * const &>
PUBLIC	??$destroy@U?$pair@$$CBHUNPC_DATA_HELPER@@@std@@@?$_Default_allocator_traits@V?$allocator@U?$_Tree_node@U?$pair@$$CBHUNPC_DATA_HELPER@@@std@@PAX@std@@@std@@@std@@SAXAAV?$allocator@U?$_Tree_node@U?$pair@$$CBHUNPC_DATA_HELPER@@@std@@PAX@std@@@1@QAU?$pair@$$CBHUNPC_DATA_HELPER@@@1@@Z ; std::_Default_allocator_traits<std::allocator<std::_Tree_node<std::pair<int const ,NPC_DATA_HELPER>,void *> > >::destroy<std::pair<int const ,NPC_DATA_HELPER> >
PUBLIC	??$move@AAD@std@@YA$$QADAAD@Z			; std::move<char &>
PUBLIC	?_Extract@?$_In_place_key_extract_map@HU?$pair@HUNPC_DATA_HELPER@@@std@@@std@@SAABHABU?$pair@HUNPC_DATA_HELPER@@@2@@Z ; std::_In_place_key_extract_map<int,std::pair<int,NPC_DATA_HELPER> >::_Extract
PUBLIC	??$?0AAPAU?$_Tree_node@U?$pair@$$CBHUNPC_DATA_HELPER@@@std@@PAX@std@@_N$0A@@?$pair@PAU?$_Tree_node@U?$pair@$$CBHUNPC_DATA_HELPER@@@std@@PAX@std@@_N@std@@QAE@AAPAU?$_Tree_node@U?$pair@$$CBHUNPC_DATA_HELPER@@@std@@PAX@1@$$QA_N@Z ; std::pair<std::_Tree_node<std::pair<int const ,NPC_DATA_HELPER>,void *> *,bool>::pair<std::_Tree_node<std::pair<int const ,NPC_DATA_HELPER>,void *> *,bool><std::_Tree_node<std::pair<int const ,NPC_DATA_HELPER>,void *> * &,bool,0>
PUBLIC	??0?$_Alloc_construct_ptr@V?$allocator@U?$_Tree_node@U?$pair@$$CBHUNPC_DATA_HELPER@@@std@@PAX@std@@@std@@@std@@QAE@AAV?$allocator@U?$_Tree_node@U?$pair@$$CBHUNPC_DATA_HELPER@@@std@@PAX@std@@@1@@Z ; std::_Alloc_construct_ptr<std::allocator<std::_Tree_node<std::pair<int const ,NPC_DATA_HELPER>,void *> > >::_Alloc_construct_ptr<std::allocator<std::_Tree_node<std::pair<int const ,NPC_DATA_HELPER>,void *> > >
PUBLIC	?_Release@?$_Alloc_construct_ptr@V?$allocator@U?$_Tree_node@U?$pair@$$CBHUNPC_DATA_HELPER@@@std@@PAX@std@@@std@@@std@@QAEPAU?$_Tree_node@U?$pair@$$CBHUNPC_DATA_HELPER@@@std@@PAX@2@XZ ; std::_Alloc_construct_ptr<std::allocator<std::_Tree_node<std::pair<int const ,NPC_DATA_HELPER>,void *> > >::_Release
PUBLIC	?_Allocate@?$_Alloc_construct_ptr@V?$allocator@U?$_Tree_node@U?$pair@$$CBHUNPC_DATA_HELPER@@@std@@PAX@std@@@std@@@std@@QAEXXZ ; std::_Alloc_construct_ptr<std::allocator<std::_Tree_node<std::pair<int const ,NPC_DATA_HELPER>,void *> > >::_Allocate
PUBLIC	??1?$_Alloc_construct_ptr@V?$allocator@U?$_Tree_node@U?$pair@$$CBHUNPC_DATA_HELPER@@@std@@PAX@std@@@std@@@std@@QAE@XZ ; std::_Alloc_construct_ptr<std::allocator<std::_Tree_node<std::pair<int const ,NPC_DATA_HELPER>,void *> > >::~_Alloc_construct_ptr<std::allocator<std::_Tree_node<std::pair<int const ,NPC_DATA_HELPER>,void *> > >
PUBLIC	??0?$_Tree_temp_node_alloc@V?$allocator@U?$_Tree_node@U?$pair@$$CBHUNPC_DATA_HELPER@@@std@@PAX@std@@@std@@@std@@QAE@AAV?$allocator@U?$_Tree_node@U?$pair@$$CBHUNPC_DATA_HELPER@@@std@@PAX@std@@@1@@Z ; std::_Tree_temp_node_alloc<std::allocator<std::_Tree_node<std::pair<int const ,NPC_DATA_HELPER>,void *> > >::_Tree_temp_node_alloc<std::allocator<std::_Tree_node<std::pair<int const ,NPC_DATA_HELPER>,void *> > >
PUBLIC	??1?$_Tree_temp_node_alloc@V?$allocator@U?$_Tree_node@U?$pair@$$CBHUNPC_DATA_HELPER@@@std@@PAX@std@@@std@@@std@@QAE@XZ ; std::_Tree_temp_node_alloc<std::allocator<std::_Tree_node<std::pair<int const ,NPC_DATA_HELPER>,void *> > >::~_Tree_temp_node_alloc<std::allocator<std::_Tree_node<std::pair<int const ,NPC_DATA_HELPER>,void *> > >
PUBLIC	??1?$_Tree_temp_node@V?$allocator@U?$_Tree_node@U?$pair@$$CBHUNPC_DATA_HELPER@@@std@@PAX@std@@@std@@@std@@QAE@XZ ; std::_Tree_temp_node<std::allocator<std::_Tree_node<std::pair<int const ,NPC_DATA_HELPER>,void *> > >::~_Tree_temp_node<std::allocator<std::_Tree_node<std::pair<int const ,NPC_DATA_HELPER>,void *> > >
PUBLIC	??$?0U?$pair@HUNPC_DATA_HELPER@@@std@@@?$_Tree_temp_node@V?$allocator@U?$_Tree_node@U?$pair@$$CBHUNPC_DATA_HELPER@@@std@@PAX@std@@@std@@@std@@QAE@AAV?$allocator@U?$_Tree_node@U?$pair@$$CBHUNPC_DATA_HELPER@@@std@@PAX@std@@@1@PAU?$_Tree_node@U?$pair@$$CBHUNPC_DATA_HELPER@@@std@@PAX@1@$$QAU?$pair@HUNPC_DATA_HELPER@@@1@@Z ; std::_Tree_temp_node<std::allocator<std::_Tree_node<std::pair<int const ,NPC_DATA_HELPER>,void *> > >::_Tree_temp_node<std::allocator<std::_Tree_node<std::pair<int const ,NPC_DATA_HELPER>,void *> > ><std::pair<int,NPC_DATA_HELPER> >
PUBLIC	??$?0PAU?$_Tree_node@U?$pair@$$CBHUNPC_DATA_HELPER@@@std@@PAX@std@@_N$0A@@?$pair@PAU?$_Tree_node@U?$pair@$$CBHUNPC_DATA_HELPER@@@std@@PAX@std@@_N@std@@QAE@$$QAPAU?$_Tree_node@U?$pair@$$CBHUNPC_DATA_HELPER@@@std@@PAX@1@$$QA_N@Z ; std::pair<std::_Tree_node<std::pair<int const ,NPC_DATA_HELPER>,void *> *,bool>::pair<std::_Tree_node<std::pair<int const ,NPC_DATA_HELPER>,void *> *,bool><std::_Tree_node<std::pair<int const ,NPC_DATA_HELPER>,void *> *,bool,0>
PUBLIC	??$forward@V?$_Tree_iterator@V?$_Tree_val@U?$_Tree_simple_types@U?$pair@$$CBHUNPC_DATA_HELPER@@@std@@@std@@@std@@@std@@@std@@YA$$QAV?$_Tree_iterator@V?$_Tree_val@U?$_Tree_simple_types@U?$pair@$$CBHUNPC_DATA_HELPER@@@std@@@std@@@std@@@0@AAV10@@Z ; std::forward<std::_Tree_iterator<std::_Tree_val<std::_Tree_simple_types<std::pair<int const ,NPC_DATA_HELPER> > > > >
PUBLIC	??$forward@AB_N@std@@YAAB_NAB_N@Z		; std::forward<bool const &>
PUBLIC	??$exchange@PAU?$_Tree_node@U?$pair@$$CBHUNPC_DATA_HELPER@@@std@@PAX@std@@$$T@std@@YAPAU?$_Tree_node@U?$pair@$$CBHUNPC_DATA_HELPER@@@std@@PAX@0@AAPAU10@$$QA$$T@Z ; std::exchange<std::_Tree_node<std::pair<int const ,NPC_DATA_HELPER>,void *> *,std::nullptr_t>
PUBLIC	??$forward@AAPAU?$_Tree_node@U?$pair@$$CBHUNPC_DATA_HELPER@@@std@@PAX@std@@@std@@YAAAPAU?$_Tree_node@U?$pair@$$CBHUNPC_DATA_HELPER@@@std@@PAX@0@AAPAU10@@Z ; std::forward<std::_Tree_node<std::pair<int const ,NPC_DATA_HELPER>,void *> * &>
PUBLIC	??$forward@_N@std@@YA$$QA_NAA_N@Z		; std::forward<bool>
PUBLIC	??$construct@U?$pair@$$CBHUNPC_DATA_HELPER@@@std@@U?$pair@HUNPC_DATA_HELPER@@@2@@?$_Default_allocator_traits@V?$allocator@U?$_Tree_node@U?$pair@$$CBHUNPC_DATA_HELPER@@@std@@PAX@std@@@std@@@std@@SAXAAV?$allocator@U?$_Tree_node@U?$pair@$$CBHUNPC_DATA_HELPER@@@std@@PAX@std@@@1@QAU?$pair@$$CBHUNPC_DATA_HELPER@@@1@$$QAU?$pair@HUNPC_DATA_HELPER@@@1@@Z ; std::_Default_allocator_traits<std::allocator<std::_Tree_node<std::pair<int const ,NPC_DATA_HELPER>,void *> > >::construct<std::pair<int const ,NPC_DATA_HELPER>,std::pair<int,NPC_DATA_HELPER> >
PUBLIC	??$_Construct_in_place@PAU?$_Tree_node@U?$pair@$$CBHUNPC_DATA_HELPER@@@std@@PAX@std@@AAPAU12@@std@@YAXAAPAU?$_Tree_node@U?$pair@$$CBHUNPC_DATA_HELPER@@@std@@PAX@0@0@Z ; std::_Construct_in_place<std::_Tree_node<std::pair<int const ,NPC_DATA_HELPER>,void *> *,std::_Tree_node<std::pair<int const ,NPC_DATA_HELPER>,void *> * &>
PUBLIC	??$forward@PAU?$_Tree_node@U?$pair@$$CBHUNPC_DATA_HELPER@@@std@@PAX@std@@@std@@YA$$QAPAU?$_Tree_node@U?$pair@$$CBHUNPC_DATA_HELPER@@@std@@PAX@0@AAPAU10@@Z ; std::forward<std::_Tree_node<std::pair<int const ,NPC_DATA_HELPER>,void *> *>
PUBLIC	??$forward@H@std@@YA$$QAHAAH@Z			; std::forward<int>
PUBLIC	??$forward@UNPC_DATA_HELPER@@@std@@YA$$QAUNPC_DATA_HELPER@@AAU1@@Z ; std::forward<NPC_DATA_HELPER>
PUBLIC	??_7exception@std@@6B@				; std::exception::`vftable'
PUBLIC	??_C@_0BC@EOODALEL@Unknown?5exception@		; `string'
PUBLIC	??_7bad_alloc@std@@6B@				; std::bad_alloc::`vftable'
PUBLIC	??_7bad_array_new_length@std@@6B@		; std::bad_array_new_length::`vftable'
PUBLIC	??_C@_0BF@KINCDENJ@bad?5array?5new?5length@	; `string'
PUBLIC	__TI3?AVbad_array_new_length@std@@
PUBLIC	__CTA3?AVbad_array_new_length@std@@
PUBLIC	??_R0?AVbad_array_new_length@std@@@8		; std::bad_array_new_length `RTTI Type Descriptor'
PUBLIC	__CT??_R0?AVbad_array_new_length@std@@@8??0bad_array_new_length@std@@QAE@ABV01@@Z12
PUBLIC	??_R0?AVbad_alloc@std@@@8			; std::bad_alloc `RTTI Type Descriptor'
PUBLIC	__CT??_R0?AVbad_alloc@std@@@8??0bad_alloc@std@@QAE@ABV01@@Z12
PUBLIC	??_R0?AVexception@std@@@8			; std::exception `RTTI Type Descriptor'
PUBLIC	__CT??_R0?AVexception@std@@@8??0exception@std@@QAE@ABV01@@Z12
PUBLIC	??_C@_00CNPNBAHC@@				; `string'
PUBLIC	??_C@_0BB@GCADKGJO@map?1set?5too?5long@		; `string'
PUBLIC	?g_BuffHelper@@3VCBuffHelper@@A			; g_BuffHelper
PUBLIC	??_R4exception@std@@6B@				; std::exception::`RTTI Complete Object Locator'
PUBLIC	??_R3exception@std@@8				; std::exception::`RTTI Class Hierarchy Descriptor'
PUBLIC	??_R2exception@std@@8				; std::exception::`RTTI Base Class Array'
PUBLIC	??_R1A@?0A@EA@exception@std@@8			; std::exception::`RTTI Base Class Descriptor at (0,-1,0,64)'
PUBLIC	??_R4bad_alloc@std@@6B@				; std::bad_alloc::`RTTI Complete Object Locator'
PUBLIC	??_R3bad_alloc@std@@8				; std::bad_alloc::`RTTI Class Hierarchy Descriptor'
PUBLIC	??_R2bad_alloc@std@@8				; std::bad_alloc::`RTTI Base Class Array'
PUBLIC	??_R1A@?0A@EA@bad_alloc@std@@8			; std::bad_alloc::`RTTI Base Class Descriptor at (0,-1,0,64)'
PUBLIC	??_R4bad_array_new_length@std@@6B@		; std::bad_array_new_length::`RTTI Complete Object Locator'
PUBLIC	??_R3bad_array_new_length@std@@8		; std::bad_array_new_length::`RTTI Class Hierarchy Descriptor'
PUBLIC	??_R2bad_array_new_length@std@@8		; std::bad_array_new_length::`RTTI Base Class Array'
PUBLIC	??_R1A@?0A@EA@bad_array_new_length@std@@8	; std::bad_array_new_length::`RTTI Base Class Descriptor at (0,-1,0,64)'
PUBLIC	??_C@_0GP@LCGDMAEI@?$FLBuff?5Helper?5System?$FN?5CBuffHelpe@ ; `string'
PUBLIC	??_C@_0DJ@BAMDBE@?$FLBuff?5Helper?5System?$FN?5?9?5File?5loa@ ; `string'
PUBLIC	??_C@_01KDCPPGHE@r@				; `string'
PUBLIC	??_C@_0CO@GCPPHFMJ@?$FLBuff?5Helper?5System?$FN?5Info?5file?5@ ; `string'
PUBLIC	??_C@_03JBJLGPFL@end@				; `string'
PUBLIC	??_C@_0CD@GOIAKHBP@?$FLBuff?5Helper?5System?$FN?5?$CFs?5file?5lo@ ; `string'
PUBLIC	??_R0K@8					; unsigned long `RTTI Type Descriptor'
PUBLIC	??_C@_0DL@FBHIFMMM@?$FLBuff?5Helper?5System?$FN?5?9?5Loading?5@ ; `string'
PUBLIC	??_C@_0BF@JNEFBNFE@Buff?5Helper?5Disabled@	; `string'
PUBLIC	??_C@_0BG@IOLOAAPD@Buff?5Nivel?5Maximo?3?5?$CFd@ ; `string'
PUBLIC	??_C@_0FE@NFCKJBIJ@?$FLBuff?5Helper?5System?$FN?5Npc?5Additi@ ; `string'
PUBLIC	??_C@_0CP@EOIOJIAO@?$FLBuff?5Helper?5System?$FN?5To?5Delete?5@ ; `string'
PUBLIC	__real@0000000000000000
EXTRN	??2@YAPAXI@Z:PROC				; operator new
EXTRN	??3@YAXPAXI@Z:PROC				; operator delete
EXTRN	_atexit:PROC
EXTRN	___report_rangecheckfailure:PROC
EXTRN	__invalid_parameter_noinfo_noreturn:PROC
EXTRN	_isalpha:PROC
EXTRN	_isdigit:PROC
EXTRN	_isspace:PROC
EXTRN	_isalnum:PROC
EXTRN	_strcmp:PROC
EXTRN	__imp__GetTickCount@0:PROC
EXTRN	_fclose:PROC
EXTRN	_fgetc:PROC
EXTRN	_fopen:PROC
EXTRN	_getc:PROC
EXTRN	_ungetc:PROC
EXTRN	_atof:PROC
EXTRN	?MsgBox@@YAXPADZZ:PROC				; MsgBox
EXTRN	?_Xlength_error@std@@YAXPBD@Z:PROC		; std::_Xlength_error
EXTRN	___std_exception_copy:PROC
EXTRN	___std_exception_destroy:PROC
EXTRN	??_Eexception@std@@UAEPAXI@Z:PROC		; std::exception::`vector deleting destructor'
EXTRN	??_Ebad_alloc@std@@UAEPAXI@Z:PROC		; std::bad_alloc::`vector deleting destructor'
EXTRN	??_Ebad_array_new_length@std@@UAEPAXI@Z:PROC	; std::bad_array_new_length::`vector deleting destructor'
EXTRN	?gObjAddMonster@@YAFH@Z:PROC			; gObjAddMonster
EXTRN	?gObjDel@@YAFH@Z:PROC				; gObjDel
EXTRN	?gObjSetMonster@@YAHHH@Z:PROC			; gObjSetMonster
EXTRN	?GCServerMsgStringSend@@YAXPADHE@Z:PROC		; GCServerMsgStringSend
EXTRN	?CGWarehouseUseEnd@@YAXH@Z:PROC			; CGWarehouseUseEnd
EXTRN	?MakeNoticeMsgEx@TNotice@@SAXPAXEPADZZ:PROC	; TNotice::MakeNoticeMsgEx
EXTRN	?SendNoticeToUser@TNotice@@SAXHPAX@Z:PROC	; TNotice::SendNoticeToUser
EXTRN	?MakeItemNumber@@YAHHH@Z:PROC			; MakeItemNumber
EXTRN	?GetAttr@CMonsterAttr@@QAEPAUMONSTER_ATTRIBUTE@@H@Z:PROC ; CMonsterAttr::GetAttr
EXTRN	?SkillDefense@CObjUseSkill@@QAEXHHH@Z:PROC	; CObjUseSkill::SkillDefense
EXTRN	?SkillAttack@CObjUseSkill@@QAEXHHH@Z:PROC	; CObjUseSkill::SkillAttack
EXTRN	@__security_check_cookie@4:PROC
EXTRN	__CxxThrowException@8:PROC
EXTRN	___CxxFrameHandler3:PROC
EXTRN	??_7type_info@@6B@:QWORD			; type_info::`vftable'
EXTRN	?LogAdd@@3P6AXPADZZA:DWORD			; LogAdd
EXTRN	?LogAddC@@3P6AXEPADZZA:DWORD			; LogAddC
EXTRN	?LogAddTD@@3P6AXPADZZA:DWORD			; LogAddTD
EXTRN	?gObj@@3PAVOBJECTSTRUCT@@A:DWORD		; gObj
EXTRN	?gObjUseSkill@@3VCObjUseSkill@@A:DWORD		; gObjUseSkill
EXTRN	?gMAttr@@3VCMonsterAttr@@A:BYTE			; gMAttr
EXTRN	___security_cookie:DWORD
EXTRN	__fltused:DWORD
_BSS	SEGMENT
?g_BuffHelper@@3VCBuffHelper@@A DB 018H DUP (?)		; g_BuffHelper
?SMDFile@@3PAU_iobuf@@A DD 01H DUP (?)			; SMDFile
?TokenNumber@@3MA DD 01H DUP (?)			; TokenNumber
?TokenString@@3PADA DB 064H DUP (?)			; TokenString
?CurrentToken@@3W4SMDToken@@A DD 01H DUP (?)		; CurrentToken
?g_iChaosCastle_MonsterItems@@3PAY111HA DD 018H DUP (?)	; g_iChaosCastle_MonsterItems
_BSS	ENDS
CRT$XCU	SEGMENT
?g_iChaosCastle_MonsterItems$initializer$@@3P6AXXZA DD FLAT:??__Eg_iChaosCastle_MonsterItems@@YAXXZ ; g_iChaosCastle_MonsterItems$initializer$
CRT$XCU	ENDS
;	COMDAT __real@0000000000000000
CONST	SEGMENT
__real@0000000000000000 DQ 00000000000000000r	; 0
CONST	ENDS
;	COMDAT ??_C@_0CP@EOIOJIAO@?$FLBuff?5Helper?5System?$FN?5To?5Delete?5@
CONST	SEGMENT
??_C@_0CP@EOIOJIAO@?$FLBuff?5Helper?5System?$FN?5To?5Delete?5@ DB '[Buff '
	DB	'Helper System] To Delete Npc : Index(%d)', 00H ; `string'
CONST	ENDS
;	COMDAT ??_C@_0FE@NFCKJBIJ@?$FLBuff?5Helper?5System?$FN?5Npc?5Additi@
CONST	SEGMENT
??_C@_0FE@NFCKJBIJ@?$FLBuff?5Helper?5System?$FN?5Npc?5Additi@ DB '[Buff H'
	DB	'elper System] Npc Addition : Index(%d) NpcID(%d) MapID(%d) Po'
	DB	'sX(%d) PosY(%d)', 00H			; `string'
CONST	ENDS
;	COMDAT ??_C@_0BG@IOLOAAPD@Buff?5Nivel?5Maximo?3?5?$CFd@
CONST	SEGMENT
??_C@_0BG@IOLOAAPD@Buff?5Nivel?5Maximo?3?5?$CFd@ DB 'Buff Nivel Maximo: %'
	DB	'd', 00H					; `string'
CONST	ENDS
;	COMDAT ??_C@_0BF@JNEFBNFE@Buff?5Helper?5Disabled@
CONST	SEGMENT
??_C@_0BF@JNEFBNFE@Buff?5Helper?5Disabled@ DB 'Buff Helper Disabled', 00H ; `string'
CONST	ENDS
;	COMDAT ??_C@_0DL@FBHIFMMM@?$FLBuff?5Helper?5System?$FN?5?9?5Loading?5@
CONST	SEGMENT
??_C@_0DL@FBHIFMMM@?$FLBuff?5Helper?5System?$FN?5?9?5Loading?5@ DB '[Buff'
	DB	' Helper System] - Loading Exception Error (%s) File. ', 00H ; `string'
CONST	ENDS
;	COMDAT ??_R0K@8
data$r	SEGMENT
??_R0K@8 DD	FLAT:??_7type_info@@6B@			; unsigned long `RTTI Type Descriptor'
	DD	00H
	DB	'.K', 00H
data$r	ENDS
;	COMDAT ??_C@_0CD@GOIAKHBP@?$FLBuff?5Helper?5System?$FN?5?$CFs?5file?5lo@
CONST	SEGMENT
??_C@_0CD@GOIAKHBP@?$FLBuff?5Helper?5System?$FN?5?$CFs?5file?5lo@ DB '[Bu'
	DB	'ff Helper System] %s file load!', 00H	; `string'
CONST	ENDS
;	COMDAT ??_C@_03JBJLGPFL@end@
CONST	SEGMENT
??_C@_03JBJLGPFL@end@ DB 'end', 00H			; `string'
CONST	ENDS
;	COMDAT ??_C@_0CO@GCPPHFMJ@?$FLBuff?5Helper?5System?$FN?5Info?5file?5@
CONST	SEGMENT
??_C@_0CO@GCPPHFMJ@?$FLBuff?5Helper?5System?$FN?5Info?5file?5@ DB '[Buff '
	DB	'Helper System] Info file Load Fail [%s]', 00H ; `string'
CONST	ENDS
;	COMDAT ??_C@_01KDCPPGHE@r@
CONST	SEGMENT
??_C@_01KDCPPGHE@r@ DB 'r', 00H				; `string'
CONST	ENDS
;	COMDAT ??_C@_0DJ@BAMDBE@?$FLBuff?5Helper?5System?$FN?5?9?5File?5loa@
CONST	SEGMENT
??_C@_0DJ@BAMDBE@?$FLBuff?5Helper?5System?$FN?5?9?5File?5loa@ DB '[Buff H'
	DB	'elper System] - File load error : File Name Error', 00H ; `string'
CONST	ENDS
;	COMDAT ??_C@_0GP@LCGDMAEI@?$FLBuff?5Helper?5System?$FN?5CBuffHelpe@
CONST	SEGMENT
??_C@_0GP@LCGDMAEI@?$FLBuff?5Helper?5System?$FN?5CBuffHelpe@ DB '[Buff He'
	DB	'lper System] CBuffHelper::Init() - Buff Helper is Disable or '
	DB	'NPC Setting is empty (m_mNpcData is Zero)', 00H ; `string'
CONST	ENDS
;	COMDAT ??_R1A@?0A@EA@bad_array_new_length@std@@8
rdata$r	SEGMENT
??_R1A@?0A@EA@bad_array_new_length@std@@8 DD FLAT:??_R0?AVbad_array_new_length@std@@@8 ; std::bad_array_new_length::`RTTI Base Class Descriptor at (0,-1,0,64)'
	DD	02H
	DD	00H
	DD	0ffffffffH
	DD	00H
	DD	040H
	DD	FLAT:??_R3bad_array_new_length@std@@8
rdata$r	ENDS
;	COMDAT ??_R2bad_array_new_length@std@@8
rdata$r	SEGMENT
??_R2bad_array_new_length@std@@8 DD FLAT:??_R1A@?0A@EA@bad_array_new_length@std@@8 ; std::bad_array_new_length::`RTTI Base Class Array'
	DD	FLAT:??_R1A@?0A@EA@bad_alloc@std@@8
	DD	FLAT:??_R1A@?0A@EA@exception@std@@8
rdata$r	ENDS
;	COMDAT ??_R3bad_array_new_length@std@@8
rdata$r	SEGMENT
??_R3bad_array_new_length@std@@8 DD 00H			; std::bad_array_new_length::`RTTI Class Hierarchy Descriptor'
	DD	00H
	DD	03H
	DD	FLAT:??_R2bad_array_new_length@std@@8
rdata$r	ENDS
;	COMDAT ??_R4bad_array_new_length@std@@6B@
rdata$r	SEGMENT
??_R4bad_array_new_length@std@@6B@ DD 00H		; std::bad_array_new_length::`RTTI Complete Object Locator'
	DD	00H
	DD	00H
	DD	FLAT:??_R0?AVbad_array_new_length@std@@@8
	DD	FLAT:??_R3bad_array_new_length@std@@8
rdata$r	ENDS
;	COMDAT ??_R1A@?0A@EA@bad_alloc@std@@8
rdata$r	SEGMENT
??_R1A@?0A@EA@bad_alloc@std@@8 DD FLAT:??_R0?AVbad_alloc@std@@@8 ; std::bad_alloc::`RTTI Base Class Descriptor at (0,-1,0,64)'
	DD	01H
	DD	00H
	DD	0ffffffffH
	DD	00H
	DD	040H
	DD	FLAT:??_R3bad_alloc@std@@8
rdata$r	ENDS
;	COMDAT ??_R2bad_alloc@std@@8
rdata$r	SEGMENT
??_R2bad_alloc@std@@8 DD FLAT:??_R1A@?0A@EA@bad_alloc@std@@8 ; std::bad_alloc::`RTTI Base Class Array'
	DD	FLAT:??_R1A@?0A@EA@exception@std@@8
rdata$r	ENDS
;	COMDAT ??_R3bad_alloc@std@@8
rdata$r	SEGMENT
??_R3bad_alloc@std@@8 DD 00H				; std::bad_alloc::`RTTI Class Hierarchy Descriptor'
	DD	00H
	DD	02H
	DD	FLAT:??_R2bad_alloc@std@@8
rdata$r	ENDS
;	COMDAT ??_R4bad_alloc@std@@6B@
rdata$r	SEGMENT
??_R4bad_alloc@std@@6B@ DD 00H				; std::bad_alloc::`RTTI Complete Object Locator'
	DD	00H
	DD	00H
	DD	FLAT:??_R0?AVbad_alloc@std@@@8
	DD	FLAT:??_R3bad_alloc@std@@8
rdata$r	ENDS
;	COMDAT ??_R1A@?0A@EA@exception@std@@8
rdata$r	SEGMENT
??_R1A@?0A@EA@exception@std@@8 DD FLAT:??_R0?AVexception@std@@@8 ; std::exception::`RTTI Base Class Descriptor at (0,-1,0,64)'
	DD	00H
	DD	00H
	DD	0ffffffffH
	DD	00H
	DD	040H
	DD	FLAT:??_R3exception@std@@8
rdata$r	ENDS
;	COMDAT ??_R2exception@std@@8
rdata$r	SEGMENT
??_R2exception@std@@8 DD FLAT:??_R1A@?0A@EA@exception@std@@8 ; std::exception::`RTTI Base Class Array'
rdata$r	ENDS
;	COMDAT ??_R3exception@std@@8
rdata$r	SEGMENT
??_R3exception@std@@8 DD 00H				; std::exception::`RTTI Class Hierarchy Descriptor'
	DD	00H
	DD	01H
	DD	FLAT:??_R2exception@std@@8
rdata$r	ENDS
;	COMDAT ??_R4exception@std@@6B@
rdata$r	SEGMENT
??_R4exception@std@@6B@ DD 00H				; std::exception::`RTTI Complete Object Locator'
	DD	00H
	DD	00H
	DD	FLAT:??_R0?AVexception@std@@@8
	DD	FLAT:??_R3exception@std@@8
rdata$r	ENDS
;	COMDAT ??_C@_0BB@GCADKGJO@map?1set?5too?5long@
CONST	SEGMENT
??_C@_0BB@GCADKGJO@map?1set?5too?5long@ DB 'map/set too long', 00H ; `string'
CONST	ENDS
;	COMDAT ??_C@_00CNPNBAHC@@
CONST	SEGMENT
??_C@_00CNPNBAHC@@ DB 00H				; `string'
CONST	ENDS
;	COMDAT __CT??_R0?AVexception@std@@@8??0exception@std@@QAE@ABV01@@Z12
xdata$x	SEGMENT
__CT??_R0?AVexception@std@@@8??0exception@std@@QAE@ABV01@@Z12 DD 00H
	DD	FLAT:??_R0?AVexception@std@@@8
	DD	00H
	DD	0ffffffffH
	ORG $+4
	DD	0cH
	DD	FLAT:??0exception@std@@QAE@ABV01@@Z
xdata$x	ENDS
;	COMDAT ??_R0?AVexception@std@@@8
data$r	SEGMENT
??_R0?AVexception@std@@@8 DD FLAT:??_7type_info@@6B@	; std::exception `RTTI Type Descriptor'
	DD	00H
	DB	'.?AVexception@std@@', 00H
data$r	ENDS
;	COMDAT __CT??_R0?AVbad_alloc@std@@@8??0bad_alloc@std@@QAE@ABV01@@Z12
xdata$x	SEGMENT
__CT??_R0?AVbad_alloc@std@@@8??0bad_alloc@std@@QAE@ABV01@@Z12 DD 010H
	DD	FLAT:??_R0?AVbad_alloc@std@@@8
	DD	00H
	DD	0ffffffffH
	ORG $+4
	DD	0cH
	DD	FLAT:??0bad_alloc@std@@QAE@ABV01@@Z
xdata$x	ENDS
;	COMDAT ??_R0?AVbad_alloc@std@@@8
data$r	SEGMENT
??_R0?AVbad_alloc@std@@@8 DD FLAT:??_7type_info@@6B@	; std::bad_alloc `RTTI Type Descriptor'
	DD	00H
	DB	'.?AVbad_alloc@std@@', 00H
data$r	ENDS
;	COMDAT __CT??_R0?AVbad_array_new_length@std@@@8??0bad_array_new_length@std@@QAE@ABV01@@Z12
xdata$x	SEGMENT
__CT??_R0?AVbad_array_new_length@std@@@8??0bad_array_new_length@std@@QAE@ABV01@@Z12 DD 00H
	DD	FLAT:??_R0?AVbad_array_new_length@std@@@8
	DD	00H
	DD	0ffffffffH
	ORG $+4
	DD	0cH
	DD	FLAT:??0bad_array_new_length@std@@QAE@ABV01@@Z
xdata$x	ENDS
;	COMDAT ??_R0?AVbad_array_new_length@std@@@8
data$r	SEGMENT
??_R0?AVbad_array_new_length@std@@@8 DD FLAT:??_7type_info@@6B@ ; std::bad_array_new_length `RTTI Type Descriptor'
	DD	00H
	DB	'.?AVbad_array_new_length@std@@', 00H
data$r	ENDS
;	COMDAT __CTA3?AVbad_array_new_length@std@@
xdata$x	SEGMENT
__CTA3?AVbad_array_new_length@std@@ DD 03H
	DD	FLAT:__CT??_R0?AVbad_array_new_length@std@@@8??0bad_array_new_length@std@@QAE@ABV01@@Z12
	DD	FLAT:__CT??_R0?AVbad_alloc@std@@@8??0bad_alloc@std@@QAE@ABV01@@Z12
	DD	FLAT:__CT??_R0?AVexception@std@@@8??0exception@std@@QAE@ABV01@@Z12
xdata$x	ENDS
;	COMDAT __TI3?AVbad_array_new_length@std@@
xdata$x	SEGMENT
__TI3?AVbad_array_new_length@std@@ DD 00H
	DD	FLAT:??1bad_array_new_length@std@@UAE@XZ
	DD	00H
	DD	FLAT:__CTA3?AVbad_array_new_length@std@@
xdata$x	ENDS
;	COMDAT ??_C@_0BF@KINCDENJ@bad?5array?5new?5length@
CONST	SEGMENT
??_C@_0BF@KINCDENJ@bad?5array?5new?5length@ DB 'bad array new length', 00H ; `string'
CONST	ENDS
;	COMDAT ??_7bad_array_new_length@std@@6B@
CONST	SEGMENT
??_7bad_array_new_length@std@@6B@ DD FLAT:??_R4bad_array_new_length@std@@6B@ ; std::bad_array_new_length::`vftable'
	DD	FLAT:??_Ebad_array_new_length@std@@UAEPAXI@Z
	DD	FLAT:?what@exception@std@@UBEPBDXZ
CONST	ENDS
;	COMDAT ??_7bad_alloc@std@@6B@
CONST	SEGMENT
??_7bad_alloc@std@@6B@ DD FLAT:??_R4bad_alloc@std@@6B@	; std::bad_alloc::`vftable'
	DD	FLAT:??_Ebad_alloc@std@@UAEPAXI@Z
	DD	FLAT:?what@exception@std@@UBEPBDXZ
CONST	ENDS
;	COMDAT ??_C@_0BC@EOODALEL@Unknown?5exception@
CONST	SEGMENT
??_C@_0BC@EOODALEL@Unknown?5exception@ DB 'Unknown exception', 00H ; `string'
CONST	ENDS
;	COMDAT ??_7exception@std@@6B@
CONST	SEGMENT
??_7exception@std@@6B@ DD FLAT:??_R4exception@std@@6B@	; std::exception::`vftable'
	DD	FLAT:??_Eexception@std@@UAEPAXI@Z
	DD	FLAT:?what@exception@std@@UBEPBDXZ
CONST	ENDS
;	COMDAT xdata$x
xdata$x	SEGMENT
__unwindtable$??$?0U?$pair@HUNPC_DATA_HELPER@@@std@@@?$_Tree_temp_node@V?$allocator@U?$_Tree_node@U?$pair@$$CBHUNPC_DATA_HELPER@@@std@@PAX@std@@@std@@@std@@QAE@AAV?$allocator@U?$_Tree_node@U?$pair@$$CBHUNPC_DATA_HELPER@@@std@@PAX@std@@@1@PAU?$_Tree_node@U?$pair@$$CBHUNPC_DATA_HELPER@@@std@@PAX@1@$$QAU?$pair@HUNPC_DATA_HELPER@@@1@@Z DD 0ffffffffH
	DD	FLAT:__unwindfunclet$??$?0U?$pair@HUNPC_DATA_HELPER@@@std@@@?$_Tree_temp_node@V?$allocator@U?$_Tree_node@U?$pair@$$CBHUNPC_DATA_HELPER@@@std@@PAX@std@@@std@@@std@@QAE@AAV?$allocator@U?$_Tree_node@U?$pair@$$CBHUNPC_DATA_HELPER@@@std@@PAX@std@@@1@PAU?$_Tree_node@U?$pair@$$CBHUNPC_DATA_HELPER@@@std@@PAX@1@$$QAU?$pair@HUNPC_DATA_HELPER@@@1@@Z$0
__ehfuncinfo$??$?0U?$pair@HUNPC_DATA_HELPER@@@std@@@?$_Tree_temp_node@V?$allocator@U?$_Tree_node@U?$pair@$$CBHUNPC_DATA_HELPER@@@std@@PAX@std@@@std@@@std@@QAE@AAV?$allocator@U?$_Tree_node@U?$pair@$$CBHUNPC_DATA_HELPER@@@std@@PAX@std@@@1@PAU?$_Tree_node@U?$pair@$$CBHUNPC_DATA_HELPER@@@std@@PAX@1@$$QAU?$pair@HUNPC_DATA_HELPER@@@1@@Z DD 019930522H
	DD	01H
	DD	FLAT:__unwindtable$??$?0U?$pair@HUNPC_DATA_HELPER@@@std@@@?$_Tree_temp_node@V?$allocator@U?$_Tree_node@U?$pair@$$CBHUNPC_DATA_HELPER@@@std@@PAX@std@@@std@@@std@@QAE@AAV?$allocator@U?$_Tree_node@U?$pair@$$CBHUNPC_DATA_HELPER@@@std@@PAX@std@@@1@PAU?$_Tree_node@U?$pair@$$CBHUNPC_DATA_HELPER@@@std@@PAX@1@$$QAU?$pair@HUNPC_DATA_HELPER@@@1@@Z
	DD	2 DUP(00H)
	DD	2 DUP(00H)
	DD	00H
	DD	01H
xdata$x	ENDS
;	COMDAT xdata$x
xdata$x	SEGMENT
__ehfuncinfo$??1?$_Tree_temp_node@V?$allocator@U?$_Tree_node@U?$pair@$$CBHUNPC_DATA_HELPER@@@std@@PAX@std@@@std@@@std@@QAE@XZ DD 019930522H
	DD	00H
	DD	00H
	DD	2 DUP(00H)
	DD	2 DUP(00H)
	DD	00H
	DD	05H
xdata$x	ENDS
;	COMDAT xdata$x
xdata$x	SEGMENT
__unwindtable$??0?$_Tree_temp_node_alloc@V?$allocator@U?$_Tree_node@U?$pair@$$CBHUNPC_DATA_HELPER@@@std@@PAX@std@@@std@@@std@@QAE@AAV?$allocator@U?$_Tree_node@U?$pair@$$CBHUNPC_DATA_HELPER@@@std@@PAX@std@@@1@@Z DD 0ffffffffH
	DD	FLAT:__unwindfunclet$??0?$_Tree_temp_node_alloc@V?$allocator@U?$_Tree_node@U?$pair@$$CBHUNPC_DATA_HELPER@@@std@@PAX@std@@@std@@@std@@QAE@AAV?$allocator@U?$_Tree_node@U?$pair@$$CBHUNPC_DATA_HELPER@@@std@@PAX@std@@@1@@Z$0
__ehfuncinfo$??0?$_Tree_temp_node_alloc@V?$allocator@U?$_Tree_node@U?$pair@$$CBHUNPC_DATA_HELPER@@@std@@PAX@std@@@std@@@std@@QAE@AAV?$allocator@U?$_Tree_node@U?$pair@$$CBHUNPC_DATA_HELPER@@@std@@PAX@std@@@1@@Z DD 019930522H
	DD	01H
	DD	FLAT:__unwindtable$??0?$_Tree_temp_node_alloc@V?$allocator@U?$_Tree_node@U?$pair@$$CBHUNPC_DATA_HELPER@@@std@@PAX@std@@@std@@@std@@QAE@AAV?$allocator@U?$_Tree_node@U?$pair@$$CBHUNPC_DATA_HELPER@@@std@@PAX@std@@@1@@Z
	DD	2 DUP(00H)
	DD	2 DUP(00H)
	DD	00H
	DD	01H
xdata$x	ENDS
;	COMDAT xdata$x
xdata$x	SEGMENT
__ehfuncinfo$??1?$_Alloc_construct_ptr@V?$allocator@U?$_Tree_node@U?$pair@$$CBHUNPC_DATA_HELPER@@@std@@PAX@std@@@std@@@std@@QAE@XZ DD 019930522H
	DD	00H
	DD	00H
	DD	2 DUP(00H)
	DD	2 DUP(00H)
	DD	00H
	DD	05H
xdata$x	ENDS
;	COMDAT xdata$x
xdata$x	SEGMENT
__ehfuncinfo$??$_Freenode@V?$allocator@U?$_Tree_node@U?$pair@$$CBHUNPC_DATA_HELPER@@@std@@PAX@std@@@std@@@?$_Tree_node@U?$pair@$$CBHUNPC_DATA_HELPER@@@std@@PAX@std@@SAXAAV?$allocator@U?$_Tree_node@U?$pair@$$CBHUNPC_DATA_HELPER@@@std@@PAX@std@@@1@PAU01@@Z DD 019930522H
	DD	00H
	DD	00H
	DD	2 DUP(00H)
	DD	2 DUP(00H)
	DD	00H
	DD	05H
xdata$x	ENDS
;	COMDAT xdata$x
xdata$x	SEGMENT
__ehfuncinfo$??$_Freenode0@V?$allocator@U?$_Tree_node@U?$pair@$$CBHUNPC_DATA_HELPER@@@std@@PAX@std@@@std@@@?$_Tree_node@U?$pair@$$CBHUNPC_DATA_HELPER@@@std@@PAX@std@@SAXAAV?$allocator@U?$_Tree_node@U?$pair@$$CBHUNPC_DATA_HELPER@@@std@@PAX@std@@@1@PAU01@@Z DD 019930522H
	DD	00H
	DD	00H
	DD	2 DUP(00H)
	DD	2 DUP(00H)
	DD	00H
	DD	05H
xdata$x	ENDS
;	COMDAT xdata$x
xdata$x	SEGMENT
__ehfuncinfo$??$erase@V?$_Tree_iterator@V?$_Tree_val@U?$_Tree_simple_types@U?$pair@$$CBHUNPC_DATA_HELPER@@@std@@@std@@@std@@@std@@$0A@@?$_Tree@V?$_Tmap_traits@HUNPC_DATA_HELPER@@U?$less@H@std@@V?$allocator@U?$pair@$$CBHUNPC_DATA_HELPER@@@std@@@3@$0A@@std@@@std@@QAE?AV?$_Tree_iterator@V?$_Tree_val@U?$_Tree_simple_types@U?$pair@$$CBHUNPC_DATA_HELPER@@@std@@@std@@@std@@@1@V21@@Z DD 019930522H
	DD	00H
	DD	00H
	DD	2 DUP(00H)
	DD	2 DUP(00H)
	DD	00H
	DD	05H
xdata$x	ENDS
;	COMDAT xdata$x
xdata$x	SEGMENT
__ehfuncinfo$??$_Deallocate@$07$0A@@std@@YAXPAXI@Z DD 019930522H
	DD	00H
	DD	00H
	DD	2 DUP(00H)
	DD	2 DUP(00H)
	DD	00H
	DD	05H
xdata$x	ENDS
;	COMDAT xdata$x
xdata$x	SEGMENT
__ehfuncinfo$?_Extract@?$_Tree_val@U?$_Tree_simple_types@U?$pair@$$CBHUNPC_DATA_HELPER@@@std@@@std@@@std@@QAEPAU?$_Tree_node@U?$pair@$$CBHUNPC_DATA_HELPER@@@std@@PAX@2@V?$_Tree_unchecked_const_iterator@V?$_Tree_val@U?$_Tree_simple_types@U?$pair@$$CBHUNPC_DATA_HELPER@@@std@@@std@@@std@@U_Iterator_base0@2@@2@@Z DD 019930522H
	DD	00H
	DD	00H
	DD	2 DUP(00H)
	DD	2 DUP(00H)
	DD	00H
	DD	05H
xdata$x	ENDS
;	COMDAT xdata$x
xdata$x	SEGMENT
__ehfuncinfo$?_Erase_unchecked@?$_Tree@V?$_Tmap_traits@HUNPC_DATA_HELPER@@U?$less@H@std@@V?$allocator@U?$pair@$$CBHUNPC_DATA_HELPER@@@std@@@3@$0A@@std@@@std@@AAEPAU?$_Tree_node@U?$pair@$$CBHUNPC_DATA_HELPER@@@std@@PAX@2@V?$_Tree_unchecked_const_iterator@V?$_Tree_val@U?$_Tree_simple_types@U?$pair@$$CBHUNPC_DATA_HELPER@@@std@@@std@@@std@@U_Iterator_base0@2@@2@@Z DD 019930522H
	DD	00H
	DD	00H
	DD	2 DUP(00H)
	DD	2 DUP(00H)
	DD	00H
	DD	05H
xdata$x	ENDS
;	COMDAT xdata$x
xdata$x	SEGMENT
__catchsym$?Load@CBuffHelper@@QAEHPAD@Z$2 DD 00H
	DD	FLAT:??_R0K@8
	DD	00H
	DD	FLAT:__catch$?Load@CBuffHelper@@QAEHPAD@Z$0
__unwindtable$?Load@CBuffHelper@@QAEHPAD@Z DD 0ffffffffH
	DD	00H
	DD	0ffffffffH
	DD	00H
__tryblocktable$?Load@CBuffHelper@@QAEHPAD@Z DD 00H
	DD	00H
	DD	01H
	DD	01H
	DD	FLAT:__catchsym$?Load@CBuffHelper@@QAEHPAD@Z$2
__ehfuncinfo$?Load@CBuffHelper@@QAEHPAD@Z DD 019930522H
	DD	02H
	DD	FLAT:__unwindtable$?Load@CBuffHelper@@QAEHPAD@Z
	DD	01H
	DD	FLAT:__tryblocktable$?Load@CBuffHelper@@QAEHPAD@Z
	DD	2 DUP(00H)
	DD	00H
	DD	01H
xdata$x	ENDS
;	COMDAT xdata$x
xdata$x	SEGMENT
__unwindtable$??0CBuffHelper@@QAE@XZ DD 0ffffffffH
	DD	FLAT:__unwindfunclet$??0CBuffHelper@@QAE@XZ$0
__ehfuncinfo$??0CBuffHelper@@QAE@XZ DD 019930522H
	DD	01H
	DD	FLAT:__unwindtable$??0CBuffHelper@@QAE@XZ
	DD	2 DUP(00H)
	DD	2 DUP(00H)
	DD	00H
	DD	01H
xdata$x	ENDS
CRT$XCU	SEGMENT
?g_BuffHelper$initializer$@@3P6AXXZA DD FLAT:??__Eg_BuffHelper@@YAXXZ ; g_BuffHelper$initializer$
CRT$XCU	ENDS
; Function compile flags: /Odtp /ZI
; File C:\Program Files (x86)\Microsoft Visual Studio\2019\Community\VC\Tools\MSVC\14.27.29110\include\type_traits
;	COMDAT ??$forward@UNPC_DATA_HELPER@@@std@@YA$$QAUNPC_DATA_HELPER@@AAU1@@Z
_TEXT	SEGMENT
__Arg$ = 8						; size = 4
??$forward@UNPC_DATA_HELPER@@@std@@YA$$QAUNPC_DATA_HELPER@@AAU1@@Z PROC ; std::forward<NPC_DATA_HELPER>, COMDAT

; 1454 :     remove_reference_t<_Ty>& _Arg) noexcept { // forward an lvalue as either an lvalue or an rvalue

  00000	55		 push	 ebp
  00001	8b ec		 mov	 ebp, esp
  00003	83 ec 40	 sub	 esp, 64			; 00000040H
  00006	53		 push	 ebx
  00007	56		 push	 esi
  00008	57		 push	 edi

; 1455 :     return static_cast<_Ty&&>(_Arg);

  00009	8b 45 08	 mov	 eax, DWORD PTR __Arg$[ebp]

; 1456 : }

  0000c	5f		 pop	 edi
  0000d	5e		 pop	 esi
  0000e	5b		 pop	 ebx
  0000f	8b e5		 mov	 esp, ebp
  00011	5d		 pop	 ebp
  00012	c3		 ret	 0
??$forward@UNPC_DATA_HELPER@@@std@@YA$$QAUNPC_DATA_HELPER@@AAU1@@Z ENDP ; std::forward<NPC_DATA_HELPER>
_TEXT	ENDS
; Function compile flags: /Odtp /ZI
; File C:\Program Files (x86)\Microsoft Visual Studio\2019\Community\VC\Tools\MSVC\14.27.29110\include\type_traits
;	COMDAT ??$forward@H@std@@YA$$QAHAAH@Z
_TEXT	SEGMENT
__Arg$ = 8						; size = 4
??$forward@H@std@@YA$$QAHAAH@Z PROC			; std::forward<int>, COMDAT

; 1454 :     remove_reference_t<_Ty>& _Arg) noexcept { // forward an lvalue as either an lvalue or an rvalue

  00000	55		 push	 ebp
  00001	8b ec		 mov	 ebp, esp
  00003	83 ec 40	 sub	 esp, 64			; 00000040H
  00006	53		 push	 ebx
  00007	56		 push	 esi
  00008	57		 push	 edi

; 1455 :     return static_cast<_Ty&&>(_Arg);

  00009	8b 45 08	 mov	 eax, DWORD PTR __Arg$[ebp]

; 1456 : }

  0000c	5f		 pop	 edi
  0000d	5e		 pop	 esi
  0000e	5b		 pop	 ebx
  0000f	8b e5		 mov	 esp, ebp
  00011	5d		 pop	 ebp
  00012	c3		 ret	 0
??$forward@H@std@@YA$$QAHAAH@Z ENDP			; std::forward<int>
_TEXT	ENDS
; Function compile flags: /Odtp /ZI
; File C:\Program Files (x86)\Microsoft Visual Studio\2019\Community\VC\Tools\MSVC\14.27.29110\include\type_traits
;	COMDAT ??$forward@PAU?$_Tree_node@U?$pair@$$CBHUNPC_DATA_HELPER@@@std@@PAX@std@@@std@@YA$$QAPAU?$_Tree_node@U?$pair@$$CBHUNPC_DATA_HELPER@@@std@@PAX@0@AAPAU10@@Z
_TEXT	SEGMENT
__Arg$ = 8						; size = 4
??$forward@PAU?$_Tree_node@U?$pair@$$CBHUNPC_DATA_HELPER@@@std@@PAX@std@@@std@@YA$$QAPAU?$_Tree_node@U?$pair@$$CBHUNPC_DATA_HELPER@@@std@@PAX@0@AAPAU10@@Z PROC ; std::forward<std::_Tree_node<std::pair<int const ,NPC_DATA_HELPER>,void *> *>, COMDAT

; 1454 :     remove_reference_t<_Ty>& _Arg) noexcept { // forward an lvalue as either an lvalue or an rvalue

  00000	55		 push	 ebp
  00001	8b ec		 mov	 ebp, esp
  00003	83 ec 40	 sub	 esp, 64			; 00000040H
  00006	53		 push	 ebx
  00007	56		 push	 esi
  00008	57		 push	 edi

; 1455 :     return static_cast<_Ty&&>(_Arg);

  00009	8b 45 08	 mov	 eax, DWORD PTR __Arg$[ebp]

; 1456 : }

  0000c	5f		 pop	 edi
  0000d	5e		 pop	 esi
  0000e	5b		 pop	 ebx
  0000f	8b e5		 mov	 esp, ebp
  00011	5d		 pop	 ebp
  00012	c3		 ret	 0
??$forward@PAU?$_Tree_node@U?$pair@$$CBHUNPC_DATA_HELPER@@@std@@PAX@std@@@std@@YA$$QAPAU?$_Tree_node@U?$pair@$$CBHUNPC_DATA_HELPER@@@std@@PAX@0@AAPAU10@@Z ENDP ; std::forward<std::_Tree_node<std::pair<int const ,NPC_DATA_HELPER>,void *> *>
_TEXT	ENDS
; Function compile flags: /Odtp /ZI
; File C:\Program Files (x86)\Microsoft Visual Studio\2019\Community\VC\Tools\MSVC\14.27.29110\include\xmemory
;	COMDAT ??$_Construct_in_place@PAU?$_Tree_node@U?$pair@$$CBHUNPC_DATA_HELPER@@@std@@PAX@std@@AAPAU12@@std@@YAXAAPAU?$_Tree_node@U?$pair@$$CBHUNPC_DATA_HELPER@@@std@@PAX@0@0@Z
_TEXT	SEGMENT
$T1 = -68						; size = 4
__Obj$ = 8						; size = 4
_<_Args_0>$ = 12					; size = 4
??$_Construct_in_place@PAU?$_Tree_node@U?$pair@$$CBHUNPC_DATA_HELPER@@@std@@PAX@std@@AAPAU12@@std@@YAXAAPAU?$_Tree_node@U?$pair@$$CBHUNPC_DATA_HELPER@@@std@@PAX@0@0@Z PROC ; std::_Construct_in_place<std::_Tree_node<std::pair<int const ,NPC_DATA_HELPER>,void *> *,std::_Tree_node<std::pair<int const ,NPC_DATA_HELPER>,void *> * &>, COMDAT

; 228  : void _Construct_in_place(_Ty& _Obj, _Types&&... _Args) noexcept(is_nothrow_constructible_v<_Ty, _Types...>) {

  00000	55		 push	 ebp
  00001	8b ec		 mov	 ebp, esp
  00003	83 ec 44	 sub	 esp, 68			; 00000044H
  00006	53		 push	 ebx
  00007	56		 push	 esi
  00008	57		 push	 edi

; 229  :     ::new (const_cast<void*>(static_cast<const volatile void*>(_STD addressof(_Obj))))

  00009	8b 45 08	 mov	 eax, DWORD PTR __Obj$[ebp]
  0000c	50		 push	 eax
  0000d	e8 00 00 00 00	 call	 ??$addressof@PAU?$_Tree_node@U?$pair@$$CBHUNPC_DATA_HELPER@@@std@@PAX@std@@@std@@YAPAPAU?$_Tree_node@U?$pair@$$CBHUNPC_DATA_HELPER@@@std@@PAX@0@AAPAU10@@Z ; std::addressof<std::_Tree_node<std::pair<int const ,NPC_DATA_HELPER>,void *> *>
  00012	83 c4 04	 add	 esp, 4
  00015	50		 push	 eax
  00016	6a 04		 push	 4
  00018	e8 00 00 00 00	 call	 ??2@YAPAXIPAX@Z		; operator new
  0001d	83 c4 08	 add	 esp, 8
  00020	89 45 bc	 mov	 DWORD PTR $T1[ebp], eax
  00023	8b 4d 0c	 mov	 ecx, DWORD PTR _<_Args_0>$[ebp]
  00026	51		 push	 ecx
  00027	e8 00 00 00 00	 call	 ??$forward@AAPAU?$_Tree_node@U?$pair@$$CBHUNPC_DATA_HELPER@@@std@@PAX@std@@@std@@YAAAPAU?$_Tree_node@U?$pair@$$CBHUNPC_DATA_HELPER@@@std@@PAX@0@AAPAU10@@Z ; std::forward<std::_Tree_node<std::pair<int const ,NPC_DATA_HELPER>,void *> * &>
  0002c	83 c4 04	 add	 esp, 4
  0002f	8b 55 bc	 mov	 edx, DWORD PTR $T1[ebp]
  00032	8b 00		 mov	 eax, DWORD PTR [eax]
  00034	89 02		 mov	 DWORD PTR [edx], eax

; 230  :         _Ty(_STD forward<_Types>(_Args)...);
; 231  : }

  00036	5f		 pop	 edi
  00037	5e		 pop	 esi
  00038	5b		 pop	 ebx
  00039	8b e5		 mov	 esp, ebp
  0003b	5d		 pop	 ebp
  0003c	c3		 ret	 0
??$_Construct_in_place@PAU?$_Tree_node@U?$pair@$$CBHUNPC_DATA_HELPER@@@std@@PAX@std@@AAPAU12@@std@@YAXAAPAU?$_Tree_node@U?$pair@$$CBHUNPC_DATA_HELPER@@@std@@PAX@0@0@Z ENDP ; std::_Construct_in_place<std::_Tree_node<std::pair<int const ,NPC_DATA_HELPER>,void *> *,std::_Tree_node<std::pair<int const ,NPC_DATA_HELPER>,void *> * &>
_TEXT	ENDS
; Function compile flags: /Odtp /ZI
; File C:\Program Files (x86)\Microsoft Visual Studio\2019\Community\VC\Tools\MSVC\14.27.29110\include\xmemory
;	COMDAT ??$construct@U?$pair@$$CBHUNPC_DATA_HELPER@@@std@@U?$pair@HUNPC_DATA_HELPER@@@2@@?$_Default_allocator_traits@V?$allocator@U?$_Tree_node@U?$pair@$$CBHUNPC_DATA_HELPER@@@std@@PAX@std@@@std@@@std@@SAXAAV?$allocator@U?$_Tree_node@U?$pair@$$CBHUNPC_DATA_HELPER@@@std@@PAX@std@@@1@QAU?$pair@$$CBHUNPC_DATA_HELPER@@@1@$$QAU?$pair@HUNPC_DATA_HELPER@@@1@@Z
_TEXT	SEGMENT
$T1 = -68						; size = 4
___formal$ = 8						; size = 4
__Ptr$ = 12						; size = 4
_<_Args_0>$ = 16					; size = 4
??$construct@U?$pair@$$CBHUNPC_DATA_HELPER@@@std@@U?$pair@HUNPC_DATA_HELPER@@@2@@?$_Default_allocator_traits@V?$allocator@U?$_Tree_node@U?$pair@$$CBHUNPC_DATA_HELPER@@@std@@PAX@std@@@std@@@std@@SAXAAV?$allocator@U?$_Tree_node@U?$pair@$$CBHUNPC_DATA_HELPER@@@std@@PAX@std@@@1@QAU?$pair@$$CBHUNPC_DATA_HELPER@@@1@$$QAU?$pair@HUNPC_DATA_HELPER@@@1@@Z PROC ; std::_Default_allocator_traits<std::allocator<std::_Tree_node<std::pair<int const ,NPC_DATA_HELPER>,void *> > >::construct<std::pair<int const ,NPC_DATA_HELPER>,std::pair<int,NPC_DATA_HELPER> >, COMDAT

; 693  :     static void construct(_Alloc&, _Objty* const _Ptr, _Types&&... _Args) {

  00000	55		 push	 ebp
  00001	8b ec		 mov	 ebp, esp
  00003	83 ec 44	 sub	 esp, 68			; 00000044H
  00006	53		 push	 ebx
  00007	56		 push	 esi
  00008	57		 push	 edi

; 694  :         ::new (const_cast<void*>(static_cast<const volatile void*>(_Ptr))) _Objty(_STD forward<_Types>(_Args)...);

  00009	8b 45 0c	 mov	 eax, DWORD PTR __Ptr$[ebp]
  0000c	50		 push	 eax
  0000d	6a 18		 push	 24			; 00000018H
  0000f	e8 00 00 00 00	 call	 ??2@YAPAXIPAX@Z		; operator new
  00014	83 c4 08	 add	 esp, 8
  00017	89 45 bc	 mov	 DWORD PTR $T1[ebp], eax
  0001a	8b 4d 10	 mov	 ecx, DWORD PTR _<_Args_0>$[ebp]
  0001d	51		 push	 ecx
  0001e	e8 00 00 00 00	 call	 ??$forward@U?$pair@HUNPC_DATA_HELPER@@@std@@@std@@YA$$QAU?$pair@HUNPC_DATA_HELPER@@@0@AAU10@@Z ; std::forward<std::pair<int,NPC_DATA_HELPER> >
  00023	83 c4 04	 add	 esp, 4
  00026	50		 push	 eax
  00027	8b 4d bc	 mov	 ecx, DWORD PTR $T1[ebp]
  0002a	e8 00 00 00 00	 call	 ??$?0HUNPC_DATA_HELPER@@$0A@@?$pair@$$CBHUNPC_DATA_HELPER@@@std@@QAE@$$QAU?$pair@HUNPC_DATA_HELPER@@@1@@Z ; std::pair<int const ,NPC_DATA_HELPER>::pair<int const ,NPC_DATA_HELPER><int,NPC_DATA_HELPER,0>

; 695  :     }

  0002f	5f		 pop	 edi
  00030	5e		 pop	 esi
  00031	5b		 pop	 ebx
  00032	8b e5		 mov	 esp, ebp
  00034	5d		 pop	 ebp
  00035	c3		 ret	 0
??$construct@U?$pair@$$CBHUNPC_DATA_HELPER@@@std@@U?$pair@HUNPC_DATA_HELPER@@@2@@?$_Default_allocator_traits@V?$allocator@U?$_Tree_node@U?$pair@$$CBHUNPC_DATA_HELPER@@@std@@PAX@std@@@std@@@std@@SAXAAV?$allocator@U?$_Tree_node@U?$pair@$$CBHUNPC_DATA_HELPER@@@std@@PAX@std@@@1@QAU?$pair@$$CBHUNPC_DATA_HELPER@@@1@$$QAU?$pair@HUNPC_DATA_HELPER@@@1@@Z ENDP ; std::_Default_allocator_traits<std::allocator<std::_Tree_node<std::pair<int const ,NPC_DATA_HELPER>,void *> > >::construct<std::pair<int const ,NPC_DATA_HELPER>,std::pair<int,NPC_DATA_HELPER> >
_TEXT	ENDS
; Function compile flags: /Odtp /ZI
; File C:\Program Files (x86)\Microsoft Visual Studio\2019\Community\VC\Tools\MSVC\14.27.29110\include\type_traits
;	COMDAT ??$forward@_N@std@@YA$$QA_NAA_N@Z
_TEXT	SEGMENT
__Arg$ = 8						; size = 4
??$forward@_N@std@@YA$$QA_NAA_N@Z PROC			; std::forward<bool>, COMDAT

; 1454 :     remove_reference_t<_Ty>& _Arg) noexcept { // forward an lvalue as either an lvalue or an rvalue

  00000	55		 push	 ebp
  00001	8b ec		 mov	 ebp, esp
  00003	83 ec 40	 sub	 esp, 64			; 00000040H
  00006	53		 push	 ebx
  00007	56		 push	 esi
  00008	57		 push	 edi

; 1455 :     return static_cast<_Ty&&>(_Arg);

  00009	8b 45 08	 mov	 eax, DWORD PTR __Arg$[ebp]

; 1456 : }

  0000c	5f		 pop	 edi
  0000d	5e		 pop	 esi
  0000e	5b		 pop	 ebx
  0000f	8b e5		 mov	 esp, ebp
  00011	5d		 pop	 ebp
  00012	c3		 ret	 0
??$forward@_N@std@@YA$$QA_NAA_N@Z ENDP			; std::forward<bool>
_TEXT	ENDS
; Function compile flags: /Odtp /ZI
; File C:\Program Files (x86)\Microsoft Visual Studio\2019\Community\VC\Tools\MSVC\14.27.29110\include\type_traits
;	COMDAT ??$forward@AAPAU?$_Tree_node@U?$pair@$$CBHUNPC_DATA_HELPER@@@std@@PAX@std@@@std@@YAAAPAU?$_Tree_node@U?$pair@$$CBHUNPC_DATA_HELPER@@@std@@PAX@0@AAPAU10@@Z
_TEXT	SEGMENT
__Arg$ = 8						; size = 4
??$forward@AAPAU?$_Tree_node@U?$pair@$$CBHUNPC_DATA_HELPER@@@std@@PAX@std@@@std@@YAAAPAU?$_Tree_node@U?$pair@$$CBHUNPC_DATA_HELPER@@@std@@PAX@0@AAPAU10@@Z PROC ; std::forward<std::_Tree_node<std::pair<int const ,NPC_DATA_HELPER>,void *> * &>, COMDAT

; 1454 :     remove_reference_t<_Ty>& _Arg) noexcept { // forward an lvalue as either an lvalue or an rvalue

  00000	55		 push	 ebp
  00001	8b ec		 mov	 ebp, esp
  00003	83 ec 40	 sub	 esp, 64			; 00000040H
  00006	53		 push	 ebx
  00007	56		 push	 esi
  00008	57		 push	 edi

; 1455 :     return static_cast<_Ty&&>(_Arg);

  00009	8b 45 08	 mov	 eax, DWORD PTR __Arg$[ebp]

; 1456 : }

  0000c	5f		 pop	 edi
  0000d	5e		 pop	 esi
  0000e	5b		 pop	 ebx
  0000f	8b e5		 mov	 esp, ebp
  00011	5d		 pop	 ebp
  00012	c3		 ret	 0
??$forward@AAPAU?$_Tree_node@U?$pair@$$CBHUNPC_DATA_HELPER@@@std@@PAX@std@@@std@@YAAAPAU?$_Tree_node@U?$pair@$$CBHUNPC_DATA_HELPER@@@std@@PAX@0@AAPAU10@@Z ENDP ; std::forward<std::_Tree_node<std::pair<int const ,NPC_DATA_HELPER>,void *> * &>
_TEXT	ENDS
; Function compile flags: /Odtp /ZI
; File C:\Program Files (x86)\Microsoft Visual Studio\2019\Community\VC\Tools\MSVC\14.27.29110\include\utility
;	COMDAT ??$exchange@PAU?$_Tree_node@U?$pair@$$CBHUNPC_DATA_HELPER@@@std@@PAX@std@@$$T@std@@YAPAU?$_Tree_node@U?$pair@$$CBHUNPC_DATA_HELPER@@@std@@PAX@0@AAPAU10@$$QA$$T@Z
_TEXT	SEGMENT
__Old_val$ = -4						; size = 4
__Val$ = 8						; size = 4
__New_val$ = 12						; size = 4
??$exchange@PAU?$_Tree_node@U?$pair@$$CBHUNPC_DATA_HELPER@@@std@@PAX@std@@$$T@std@@YAPAU?$_Tree_node@U?$pair@$$CBHUNPC_DATA_HELPER@@@std@@PAX@0@AAPAU10@$$QA$$T@Z PROC ; std::exchange<std::_Tree_node<std::pair<int const ,NPC_DATA_HELPER>,void *> *,std::nullptr_t>, COMDAT

; 597  :     conjunction_v<is_nothrow_move_constructible<_Ty>, is_nothrow_assignable<_Ty&, _Other>>) /* strengthened */ {

  00000	55		 push	 ebp
  00001	8b ec		 mov	 ebp, esp
  00003	83 ec 44	 sub	 esp, 68			; 00000044H
  00006	53		 push	 ebx
  00007	56		 push	 esi
  00008	57		 push	 edi

; 598  :     // assign _New_val to _Val, return previous _Val
; 599  :     _Ty _Old_val = static_cast<_Ty&&>(_Val);

  00009	8b 45 08	 mov	 eax, DWORD PTR __Val$[ebp]
  0000c	8b 08		 mov	 ecx, DWORD PTR [eax]
  0000e	89 4d fc	 mov	 DWORD PTR __Old_val$[ebp], ecx

; 600  :     _Val         = static_cast<_Other&&>(_New_val);

  00011	8b 45 08	 mov	 eax, DWORD PTR __Val$[ebp]
  00014	8b 4d 0c	 mov	 ecx, DWORD PTR __New_val$[ebp]
  00017	8b 11		 mov	 edx, DWORD PTR [ecx]
  00019	89 10		 mov	 DWORD PTR [eax], edx

; 601  :     return _Old_val;

  0001b	8b 45 fc	 mov	 eax, DWORD PTR __Old_val$[ebp]

; 602  : }

  0001e	5f		 pop	 edi
  0001f	5e		 pop	 esi
  00020	5b		 pop	 ebx
  00021	8b e5		 mov	 esp, ebp
  00023	5d		 pop	 ebp
  00024	c3		 ret	 0
??$exchange@PAU?$_Tree_node@U?$pair@$$CBHUNPC_DATA_HELPER@@@std@@PAX@std@@$$T@std@@YAPAU?$_Tree_node@U?$pair@$$CBHUNPC_DATA_HELPER@@@std@@PAX@0@AAPAU10@$$QA$$T@Z ENDP ; std::exchange<std::_Tree_node<std::pair<int const ,NPC_DATA_HELPER>,void *> *,std::nullptr_t>
_TEXT	ENDS
; Function compile flags: /Odtp /ZI
; File C:\Program Files (x86)\Microsoft Visual Studio\2019\Community\VC\Tools\MSVC\14.27.29110\include\type_traits
;	COMDAT ??$forward@AB_N@std@@YAAB_NAB_N@Z
_TEXT	SEGMENT
__Arg$ = 8						; size = 4
??$forward@AB_N@std@@YAAB_NAB_N@Z PROC			; std::forward<bool const &>, COMDAT

; 1454 :     remove_reference_t<_Ty>& _Arg) noexcept { // forward an lvalue as either an lvalue or an rvalue

  00000	55		 push	 ebp
  00001	8b ec		 mov	 ebp, esp
  00003	83 ec 40	 sub	 esp, 64			; 00000040H
  00006	53		 push	 ebx
  00007	56		 push	 esi
  00008	57		 push	 edi

; 1455 :     return static_cast<_Ty&&>(_Arg);

  00009	8b 45 08	 mov	 eax, DWORD PTR __Arg$[ebp]

; 1456 : }

  0000c	5f		 pop	 edi
  0000d	5e		 pop	 esi
  0000e	5b		 pop	 ebx
  0000f	8b e5		 mov	 esp, ebp
  00011	5d		 pop	 ebp
  00012	c3		 ret	 0
??$forward@AB_N@std@@YAAB_NAB_N@Z ENDP			; std::forward<bool const &>
_TEXT	ENDS
; Function compile flags: /Odtp /ZI
; File C:\Program Files (x86)\Microsoft Visual Studio\2019\Community\VC\Tools\MSVC\14.27.29110\include\type_traits
;	COMDAT ??$forward@V?$_Tree_iterator@V?$_Tree_val@U?$_Tree_simple_types@U?$pair@$$CBHUNPC_DATA_HELPER@@@std@@@std@@@std@@@std@@@std@@YA$$QAV?$_Tree_iterator@V?$_Tree_val@U?$_Tree_simple_types@U?$pair@$$CBHUNPC_DATA_HELPER@@@std@@@std@@@std@@@0@AAV10@@Z
_TEXT	SEGMENT
__Arg$ = 8						; size = 4
??$forward@V?$_Tree_iterator@V?$_Tree_val@U?$_Tree_simple_types@U?$pair@$$CBHUNPC_DATA_HELPER@@@std@@@std@@@std@@@std@@@std@@YA$$QAV?$_Tree_iterator@V?$_Tree_val@U?$_Tree_simple_types@U?$pair@$$CBHUNPC_DATA_HELPER@@@std@@@std@@@std@@@0@AAV10@@Z PROC ; std::forward<std::_Tree_iterator<std::_Tree_val<std::_Tree_simple_types<std::pair<int const ,NPC_DATA_HELPER> > > > >, COMDAT

; 1454 :     remove_reference_t<_Ty>& _Arg) noexcept { // forward an lvalue as either an lvalue or an rvalue

  00000	55		 push	 ebp
  00001	8b ec		 mov	 ebp, esp
  00003	83 ec 40	 sub	 esp, 64			; 00000040H
  00006	53		 push	 ebx
  00007	56		 push	 esi
  00008	57		 push	 edi

; 1455 :     return static_cast<_Ty&&>(_Arg);

  00009	8b 45 08	 mov	 eax, DWORD PTR __Arg$[ebp]

; 1456 : }

  0000c	5f		 pop	 edi
  0000d	5e		 pop	 esi
  0000e	5b		 pop	 ebx
  0000f	8b e5		 mov	 esp, ebp
  00011	5d		 pop	 ebp
  00012	c3		 ret	 0
??$forward@V?$_Tree_iterator@V?$_Tree_val@U?$_Tree_simple_types@U?$pair@$$CBHUNPC_DATA_HELPER@@@std@@@std@@@std@@@std@@@std@@YA$$QAV?$_Tree_iterator@V?$_Tree_val@U?$_Tree_simple_types@U?$pair@$$CBHUNPC_DATA_HELPER@@@std@@@std@@@std@@@0@AAV10@@Z ENDP ; std::forward<std::_Tree_iterator<std::_Tree_val<std::_Tree_simple_types<std::pair<int const ,NPC_DATA_HELPER> > > > >
_TEXT	ENDS
; Function compile flags: /Odtp /ZI
; File C:\Program Files (x86)\Microsoft Visual Studio\2019\Community\VC\Tools\MSVC\14.27.29110\include\utility
;	COMDAT ??$?0PAU?$_Tree_node@U?$pair@$$CBHUNPC_DATA_HELPER@@@std@@PAX@std@@_N$0A@@?$pair@PAU?$_Tree_node@U?$pair@$$CBHUNPC_DATA_HELPER@@@std@@PAX@std@@_N@std@@QAE@$$QAPAU?$_Tree_node@U?$pair@$$CBHUNPC_DATA_HELPER@@@std@@PAX@1@$$QA_N@Z
_TEXT	SEGMENT
_this$ = -4						; size = 4
__Val1$ = 8						; size = 4
__Val2$ = 12						; size = 4
??$?0PAU?$_Tree_node@U?$pair@$$CBHUNPC_DATA_HELPER@@@std@@PAX@std@@_N$0A@@?$pair@PAU?$_Tree_node@U?$pair@$$CBHUNPC_DATA_HELPER@@@std@@PAX@std@@_N@std@@QAE@$$QAPAU?$_Tree_node@U?$pair@$$CBHUNPC_DATA_HELPER@@@std@@PAX@1@$$QA_N@Z PROC ; std::pair<std::_Tree_node<std::pair<int const ,NPC_DATA_HELPER>,void *> *,bool>::pair<std::_Tree_node<std::pair<int const ,NPC_DATA_HELPER>,void *> *,bool><std::_Tree_node<std::pair<int const ,NPC_DATA_HELPER>,void *> *,bool,0>, COMDAT
; _this$ = ecx

; 192  :         : first(_STD forward<_Other1>(_Val1)), second(_STD forward<_Other2>(_Val2)) {}

  00000	55		 push	 ebp
  00001	8b ec		 mov	 ebp, esp
  00003	83 ec 44	 sub	 esp, 68			; 00000044H
  00006	53		 push	 ebx
  00007	56		 push	 esi
  00008	57		 push	 edi
  00009	89 4d fc	 mov	 DWORD PTR _this$[ebp], ecx
  0000c	8b 45 08	 mov	 eax, DWORD PTR __Val1$[ebp]
  0000f	50		 push	 eax
  00010	e8 00 00 00 00	 call	 ??$forward@PAU?$_Tree_node@U?$pair@$$CBHUNPC_DATA_HELPER@@@std@@PAX@std@@@std@@YA$$QAPAU?$_Tree_node@U?$pair@$$CBHUNPC_DATA_HELPER@@@std@@PAX@0@AAPAU10@@Z ; std::forward<std::_Tree_node<std::pair<int const ,NPC_DATA_HELPER>,void *> *>
  00015	83 c4 04	 add	 esp, 4
  00018	8b 4d fc	 mov	 ecx, DWORD PTR _this$[ebp]
  0001b	8b 10		 mov	 edx, DWORD PTR [eax]
  0001d	89 11		 mov	 DWORD PTR [ecx], edx
  0001f	8b 45 0c	 mov	 eax, DWORD PTR __Val2$[ebp]
  00022	50		 push	 eax
  00023	e8 00 00 00 00	 call	 ??$forward@_N@std@@YA$$QA_NAA_N@Z ; std::forward<bool>
  00028	83 c4 04	 add	 esp, 4
  0002b	8b 4d fc	 mov	 ecx, DWORD PTR _this$[ebp]
  0002e	8a 10		 mov	 dl, BYTE PTR [eax]
  00030	88 51 04	 mov	 BYTE PTR [ecx+4], dl
  00033	8b 45 fc	 mov	 eax, DWORD PTR _this$[ebp]
  00036	5f		 pop	 edi
  00037	5e		 pop	 esi
  00038	5b		 pop	 ebx
  00039	8b e5		 mov	 esp, ebp
  0003b	5d		 pop	 ebp
  0003c	c2 08 00	 ret	 8
??$?0PAU?$_Tree_node@U?$pair@$$CBHUNPC_DATA_HELPER@@@std@@PAX@std@@_N$0A@@?$pair@PAU?$_Tree_node@U?$pair@$$CBHUNPC_DATA_HELPER@@@std@@PAX@std@@_N@std@@QAE@$$QAPAU?$_Tree_node@U?$pair@$$CBHUNPC_DATA_HELPER@@@std@@PAX@1@$$QA_N@Z ENDP ; std::pair<std::_Tree_node<std::pair<int const ,NPC_DATA_HELPER>,void *> *,bool>::pair<std::_Tree_node<std::pair<int const ,NPC_DATA_HELPER>,void *> *,bool><std::_Tree_node<std::pair<int const ,NPC_DATA_HELPER>,void *> *,bool,0>
_TEXT	ENDS
; Function compile flags: /Odtp /ZI
; File C:\Program Files (x86)\Microsoft Visual Studio\2019\Community\VC\Tools\MSVC\14.27.29110\include\xtree
;	COMDAT ??$?0U?$pair@HUNPC_DATA_HELPER@@@std@@@?$_Tree_temp_node@V?$allocator@U?$_Tree_node@U?$pair@$$CBHUNPC_DATA_HELPER@@@std@@PAX@std@@@std@@@std@@QAE@AAV?$allocator@U?$_Tree_node@U?$pair@$$CBHUNPC_DATA_HELPER@@@std@@PAX@std@@@1@PAU?$_Tree_node@U?$pair@$$CBHUNPC_DATA_HELPER@@@std@@PAX@1@$$QAU?$pair@HUNPC_DATA_HELPER@@@1@@Z
_TEXT	SEGMENT
_this$ = -16						; size = 4
__$EHRec$ = -12						; size = 12
__Al_$ = 8						; size = 4
__Myhead$ = 12						; size = 4
_<_Vals_0>$ = 16					; size = 4
??$?0U?$pair@HUNPC_DATA_HELPER@@@std@@@?$_Tree_temp_node@V?$allocator@U?$_Tree_node@U?$pair@$$CBHUNPC_DATA_HELPER@@@std@@PAX@std@@@std@@@std@@QAE@AAV?$allocator@U?$_Tree_node@U?$pair@$$CBHUNPC_DATA_HELPER@@@std@@PAX@std@@@1@PAU?$_Tree_node@U?$pair@$$CBHUNPC_DATA_HELPER@@@std@@PAX@1@$$QAU?$pair@HUNPC_DATA_HELPER@@@1@@Z PROC ; std::_Tree_temp_node<std::allocator<std::_Tree_node<std::pair<int const ,NPC_DATA_HELPER>,void *> > >::_Tree_temp_node<std::allocator<std::_Tree_node<std::pair<int const ,NPC_DATA_HELPER>,void *> > ><std::pair<int,NPC_DATA_HELPER> >, COMDAT
; _this$ = ecx

; 805  :         : _Tree_temp_node_alloc<_Alnode>(_Al_) {

  00000	55		 push	 ebp
  00001	8b ec		 mov	 ebp, esp
  00003	6a ff		 push	 -1
  00005	68 00 00 00 00	 push	 __ehhandler$??$?0U?$pair@HUNPC_DATA_HELPER@@@std@@@?$_Tree_temp_node@V?$allocator@U?$_Tree_node@U?$pair@$$CBHUNPC_DATA_HELPER@@@std@@PAX@std@@@std@@@std@@QAE@AAV?$allocator@U?$_Tree_node@U?$pair@$$CBHUNPC_DATA_HELPER@@@std@@PAX@std@@@1@PAU?$_Tree_node@U?$pair@$$CBHUNPC_DATA_HELPER@@@std@@PAX@1@$$QAU?$pair@HUNPC_DATA_HELPER@@@1@@Z
  0000a	64 a1 00 00 00
	00		 mov	 eax, DWORD PTR fs:0
  00010	50		 push	 eax
  00011	83 ec 44	 sub	 esp, 68			; 00000044H
  00014	53		 push	 ebx
  00015	56		 push	 esi
  00016	57		 push	 edi
  00017	a1 00 00 00 00	 mov	 eax, DWORD PTR ___security_cookie
  0001c	33 c5		 xor	 eax, ebp
  0001e	50		 push	 eax
  0001f	8d 45 f4	 lea	 eax, DWORD PTR __$EHRec$[ebp]
  00022	64 a3 00 00 00
	00		 mov	 DWORD PTR fs:0, eax
  00028	89 4d f0	 mov	 DWORD PTR _this$[ebp], ecx
  0002b	8b 45 08	 mov	 eax, DWORD PTR __Al_$[ebp]
  0002e	50		 push	 eax
  0002f	8b 4d f0	 mov	 ecx, DWORD PTR _this$[ebp]
  00032	e8 00 00 00 00	 call	 ??0?$_Tree_temp_node_alloc@V?$allocator@U?$_Tree_node@U?$pair@$$CBHUNPC_DATA_HELPER@@@std@@PAX@std@@@std@@@std@@QAE@AAV?$allocator@U?$_Tree_node@U?$pair@$$CBHUNPC_DATA_HELPER@@@std@@PAX@std@@@1@@Z ; std::_Tree_temp_node_alloc<std::allocator<std::_Tree_node<std::pair<int const ,NPC_DATA_HELPER>,void *> > >::_Tree_temp_node_alloc<std::allocator<std::_Tree_node<std::pair<int const ,NPC_DATA_HELPER>,void *> > >
  00037	c7 45 fc 00 00
	00 00		 mov	 DWORD PTR __$EHRec$[ebp+8], 0

; 806  :         _Alnode_traits::construct(this->_Al, _STD addressof(this->_Ptr->_Myval), _STD forward<_Valtys>(_Vals)...);

  0003e	8b 45 10	 mov	 eax, DWORD PTR _<_Vals_0>$[ebp]
  00041	50		 push	 eax
  00042	e8 00 00 00 00	 call	 ??$forward@U?$pair@HUNPC_DATA_HELPER@@@std@@@std@@YA$$QAU?$pair@HUNPC_DATA_HELPER@@@0@AAU10@@Z ; std::forward<std::pair<int,NPC_DATA_HELPER> >
  00047	83 c4 04	 add	 esp, 4
  0004a	50		 push	 eax
  0004b	8b 4d f0	 mov	 ecx, DWORD PTR _this$[ebp]
  0004e	8b 51 04	 mov	 edx, DWORD PTR [ecx+4]
  00051	83 c2 10	 add	 edx, 16			; 00000010H
  00054	52		 push	 edx
  00055	e8 00 00 00 00	 call	 ??$addressof@U?$pair@$$CBHUNPC_DATA_HELPER@@@std@@@std@@YAPAU?$pair@$$CBHUNPC_DATA_HELPER@@@0@AAU10@@Z ; std::addressof<std::pair<int const ,NPC_DATA_HELPER> >
  0005a	83 c4 04	 add	 esp, 4
  0005d	50		 push	 eax
  0005e	8b 45 f0	 mov	 eax, DWORD PTR _this$[ebp]
  00061	8b 08		 mov	 ecx, DWORD PTR [eax]
  00063	51		 push	 ecx
  00064	e8 00 00 00 00	 call	 ??$construct@U?$pair@$$CBHUNPC_DATA_HELPER@@@std@@U?$pair@HUNPC_DATA_HELPER@@@2@@?$_Default_allocator_traits@V?$allocator@U?$_Tree_node@U?$pair@$$CBHUNPC_DATA_HELPER@@@std@@PAX@std@@@std@@@std@@SAXAAV?$allocator@U?$_Tree_node@U?$pair@$$CBHUNPC_DATA_HELPER@@@std@@PAX@std@@@1@QAU?$pair@$$CBHUNPC_DATA_HELPER@@@1@$$QAU?$pair@HUNPC_DATA_HELPER@@@1@@Z ; std::_Default_allocator_traits<std::allocator<std::_Tree_node<std::pair<int const ,NPC_DATA_HELPER>,void *> > >::construct<std::pair<int const ,NPC_DATA_HELPER>,std::pair<int,NPC_DATA_HELPER> >
  00069	83 c4 0c	 add	 esp, 12			; 0000000cH

; 807  :         _Construct_in_place(this->_Ptr->_Left, _Myhead);

  0006c	8d 45 0c	 lea	 eax, DWORD PTR __Myhead$[ebp]
  0006f	50		 push	 eax
  00070	8b 4d f0	 mov	 ecx, DWORD PTR _this$[ebp]
  00073	8b 51 04	 mov	 edx, DWORD PTR [ecx+4]
  00076	52		 push	 edx
  00077	e8 00 00 00 00	 call	 ??$_Construct_in_place@PAU?$_Tree_node@U?$pair@$$CBHUNPC_DATA_HELPER@@@std@@PAX@std@@AAPAU12@@std@@YAXAAPAU?$_Tree_node@U?$pair@$$CBHUNPC_DATA_HELPER@@@std@@PAX@0@0@Z ; std::_Construct_in_place<std::_Tree_node<std::pair<int const ,NPC_DATA_HELPER>,void *> *,std::_Tree_node<std::pair<int const ,NPC_DATA_HELPER>,void *> * &>
  0007c	83 c4 08	 add	 esp, 8

; 808  :         _Construct_in_place(this->_Ptr->_Parent, _Myhead);

  0007f	8d 45 0c	 lea	 eax, DWORD PTR __Myhead$[ebp]
  00082	50		 push	 eax
  00083	8b 4d f0	 mov	 ecx, DWORD PTR _this$[ebp]
  00086	8b 51 04	 mov	 edx, DWORD PTR [ecx+4]
  00089	83 c2 04	 add	 edx, 4
  0008c	52		 push	 edx
  0008d	e8 00 00 00 00	 call	 ??$_Construct_in_place@PAU?$_Tree_node@U?$pair@$$CBHUNPC_DATA_HELPER@@@std@@PAX@std@@AAPAU12@@std@@YAXAAPAU?$_Tree_node@U?$pair@$$CBHUNPC_DATA_HELPER@@@std@@PAX@0@0@Z ; std::_Construct_in_place<std::_Tree_node<std::pair<int const ,NPC_DATA_HELPER>,void *> *,std::_Tree_node<std::pair<int const ,NPC_DATA_HELPER>,void *> * &>
  00092	83 c4 08	 add	 esp, 8

; 809  :         _Construct_in_place(this->_Ptr->_Right, _Myhead);

  00095	8d 45 0c	 lea	 eax, DWORD PTR __Myhead$[ebp]
  00098	50		 push	 eax
  00099	8b 4d f0	 mov	 ecx, DWORD PTR _this$[ebp]
  0009c	8b 51 04	 mov	 edx, DWORD PTR [ecx+4]
  0009f	83 c2 08	 add	 edx, 8
  000a2	52		 push	 edx
  000a3	e8 00 00 00 00	 call	 ??$_Construct_in_place@PAU?$_Tree_node@U?$pair@$$CBHUNPC_DATA_HELPER@@@std@@PAX@std@@AAPAU12@@std@@YAXAAPAU?$_Tree_node@U?$pair@$$CBHUNPC_DATA_HELPER@@@std@@PAX@0@0@Z ; std::_Construct_in_place<std::_Tree_node<std::pair<int const ,NPC_DATA_HELPER>,void *> *,std::_Tree_node<std::pair<int const ,NPC_DATA_HELPER>,void *> * &>
  000a8	83 c4 08	 add	 esp, 8

; 810  :         this->_Ptr->_Color = _Red;

  000ab	8b 45 f0	 mov	 eax, DWORD PTR _this$[ebp]
  000ae	8b 48 04	 mov	 ecx, DWORD PTR [eax+4]
  000b1	c6 41 0c 00	 mov	 BYTE PTR [ecx+12], 0

; 811  :         this->_Ptr->_Isnil = false;

  000b5	8b 45 f0	 mov	 eax, DWORD PTR _this$[ebp]
  000b8	8b 48 04	 mov	 ecx, DWORD PTR [eax+4]
  000bb	c6 41 0d 00	 mov	 BYTE PTR [ecx+13], 0

; 812  :     }

  000bf	c7 45 fc ff ff
	ff ff		 mov	 DWORD PTR __$EHRec$[ebp+8], -1
  000c6	8b 45 f0	 mov	 eax, DWORD PTR _this$[ebp]
  000c9	8b 4d f4	 mov	 ecx, DWORD PTR __$EHRec$[ebp]
  000cc	64 89 0d 00 00
	00 00		 mov	 DWORD PTR fs:0, ecx
  000d3	59		 pop	 ecx
  000d4	5f		 pop	 edi
  000d5	5e		 pop	 esi
  000d6	5b		 pop	 ebx
  000d7	8b e5		 mov	 esp, ebp
  000d9	5d		 pop	 ebp
  000da	c2 0c 00	 ret	 12			; 0000000cH
_TEXT	ENDS
;	COMDAT text$x
text$x	SEGMENT
__unwindfunclet$??$?0U?$pair@HUNPC_DATA_HELPER@@@std@@@?$_Tree_temp_node@V?$allocator@U?$_Tree_node@U?$pair@$$CBHUNPC_DATA_HELPER@@@std@@PAX@std@@@std@@@std@@QAE@AAV?$allocator@U?$_Tree_node@U?$pair@$$CBHUNPC_DATA_HELPER@@@std@@PAX@std@@@1@PAU?$_Tree_node@U?$pair@$$CBHUNPC_DATA_HELPER@@@std@@PAX@1@$$QAU?$pair@HUNPC_DATA_HELPER@@@1@@Z$0:
  00000	8b 4d f0	 mov	 ecx, DWORD PTR _this$[ebp]
  00003	e9 00 00 00 00	 jmp	 ??1?$_Tree_temp_node_alloc@V?$allocator@U?$_Tree_node@U?$pair@$$CBHUNPC_DATA_HELPER@@@std@@PAX@std@@@std@@@std@@QAE@XZ
  00008	cc		 int	 3
  00009	cc		 int	 3
  0000a	cc		 int	 3
  0000b	cc		 int	 3
  0000c	cc		 int	 3
__ehhandler$??$?0U?$pair@HUNPC_DATA_HELPER@@@std@@@?$_Tree_temp_node@V?$allocator@U?$_Tree_node@U?$pair@$$CBHUNPC_DATA_HELPER@@@std@@PAX@std@@@std@@@std@@QAE@AAV?$allocator@U?$_Tree_node@U?$pair@$$CBHUNPC_DATA_HELPER@@@std@@PAX@std@@@1@PAU?$_Tree_node@U?$pair@$$CBHUNPC_DATA_HELPER@@@std@@PAX@1@$$QAU?$pair@HUNPC_DATA_HELPER@@@1@@Z:
  0000d	90		 npad	 1
  0000e	90		 npad	 1
  0000f	8b 54 24 08	 mov	 edx, DWORD PTR [esp+8]
  00013	8d 42 0c	 lea	 eax, DWORD PTR [edx+12]
  00016	8b 4a ac	 mov	 ecx, DWORD PTR [edx-84]
  00019	33 c8		 xor	 ecx, eax
  0001b	e8 00 00 00 00	 call	 @__security_check_cookie@4
  00020	b8 00 00 00 00	 mov	 eax, OFFSET __ehfuncinfo$??$?0U?$pair@HUNPC_DATA_HELPER@@@std@@@?$_Tree_temp_node@V?$allocator@U?$_Tree_node@U?$pair@$$CBHUNPC_DATA_HELPER@@@std@@PAX@std@@@std@@@std@@QAE@AAV?$allocator@U?$_Tree_node@U?$pair@$$CBHUNPC_DATA_HELPER@@@std@@PAX@std@@@1@PAU?$_Tree_node@U?$pair@$$CBHUNPC_DATA_HELPER@@@std@@PAX@1@$$QAU?$pair@HUNPC_DATA_HELPER@@@1@@Z
  00025	e9 00 00 00 00	 jmp	 ___CxxFrameHandler3
text$x	ENDS
??$?0U?$pair@HUNPC_DATA_HELPER@@@std@@@?$_Tree_temp_node@V?$allocator@U?$_Tree_node@U?$pair@$$CBHUNPC_DATA_HELPER@@@std@@PAX@std@@@std@@@std@@QAE@AAV?$allocator@U?$_Tree_node@U?$pair@$$CBHUNPC_DATA_HELPER@@@std@@PAX@std@@@1@PAU?$_Tree_node@U?$pair@$$CBHUNPC_DATA_HELPER@@@std@@PAX@1@$$QAU?$pair@HUNPC_DATA_HELPER@@@1@@Z ENDP ; std::_Tree_temp_node<std::allocator<std::_Tree_node<std::pair<int const ,NPC_DATA_HELPER>,void *> > >::_Tree_temp_node<std::allocator<std::_Tree_node<std::pair<int const ,NPC_DATA_HELPER>,void *> > ><std::pair<int,NPC_DATA_HELPER> >
; Function compile flags: /Odtp /ZI
; File C:\Program Files (x86)\Microsoft Visual Studio\2019\Community\VC\Tools\MSVC\14.27.29110\include\xtree
;	COMDAT ??1?$_Tree_temp_node@V?$allocator@U?$_Tree_node@U?$pair@$$CBHUNPC_DATA_HELPER@@@std@@PAX@std@@@std@@@std@@QAE@XZ
_TEXT	SEGMENT
_this$ = -16						; size = 4
__$EHRec$ = -12						; size = 12
??1?$_Tree_temp_node@V?$allocator@U?$_Tree_node@U?$pair@$$CBHUNPC_DATA_HELPER@@@std@@PAX@std@@@std@@@std@@QAE@XZ PROC ; std::_Tree_temp_node<std::allocator<std::_Tree_node<std::pair<int const ,NPC_DATA_HELPER>,void *> > >::~_Tree_temp_node<std::allocator<std::_Tree_node<std::pair<int const ,NPC_DATA_HELPER>,void *> > >, COMDAT
; _this$ = ecx

; 817  :     ~_Tree_temp_node() {

  00000	55		 push	 ebp
  00001	8b ec		 mov	 ebp, esp
  00003	6a ff		 push	 -1
  00005	68 00 00 00 00	 push	 __ehhandler$??1?$_Tree_temp_node@V?$allocator@U?$_Tree_node@U?$pair@$$CBHUNPC_DATA_HELPER@@@std@@PAX@std@@@std@@@std@@QAE@XZ
  0000a	64 a1 00 00 00
	00		 mov	 eax, DWORD PTR fs:0
  00010	50		 push	 eax
  00011	83 ec 44	 sub	 esp, 68			; 00000044H
  00014	53		 push	 ebx
  00015	56		 push	 esi
  00016	57		 push	 edi
  00017	a1 00 00 00 00	 mov	 eax, DWORD PTR ___security_cookie
  0001c	33 c5		 xor	 eax, ebp
  0001e	50		 push	 eax
  0001f	8d 45 f4	 lea	 eax, DWORD PTR __$EHRec$[ebp]
  00022	64 a3 00 00 00
	00		 mov	 DWORD PTR fs:0, eax
  00028	89 4d f0	 mov	 DWORD PTR _this$[ebp], ecx

; 818  :         if (this->_Ptr) {

  0002b	8b 45 f0	 mov	 eax, DWORD PTR _this$[ebp]
  0002e	83 78 04 00	 cmp	 DWORD PTR [eax+4], 0
  00032	74 54		 je	 SHORT $LN1@Tree_temp_

; 819  :             _Destroy_in_place(this->_Ptr->_Left);

  00034	8b 45 f0	 mov	 eax, DWORD PTR _this$[ebp]
  00037	8b 48 04	 mov	 ecx, DWORD PTR [eax+4]
  0003a	51		 push	 ecx
  0003b	e8 00 00 00 00	 call	 ??$_Destroy_in_place@PAU?$_Tree_node@U?$pair@$$CBHUNPC_DATA_HELPER@@@std@@PAX@std@@@std@@YAXAAPAU?$_Tree_node@U?$pair@$$CBHUNPC_DATA_HELPER@@@std@@PAX@0@@Z ; std::_Destroy_in_place<std::_Tree_node<std::pair<int const ,NPC_DATA_HELPER>,void *> *>
  00040	83 c4 04	 add	 esp, 4

; 820  :             _Destroy_in_place(this->_Ptr->_Parent);

  00043	8b 45 f0	 mov	 eax, DWORD PTR _this$[ebp]
  00046	8b 48 04	 mov	 ecx, DWORD PTR [eax+4]
  00049	83 c1 04	 add	 ecx, 4
  0004c	51		 push	 ecx
  0004d	e8 00 00 00 00	 call	 ??$_Destroy_in_place@PAU?$_Tree_node@U?$pair@$$CBHUNPC_DATA_HELPER@@@std@@PAX@std@@@std@@YAXAAPAU?$_Tree_node@U?$pair@$$CBHUNPC_DATA_HELPER@@@std@@PAX@0@@Z ; std::_Destroy_in_place<std::_Tree_node<std::pair<int const ,NPC_DATA_HELPER>,void *> *>
  00052	83 c4 04	 add	 esp, 4

; 821  :             _Destroy_in_place(this->_Ptr->_Right);

  00055	8b 45 f0	 mov	 eax, DWORD PTR _this$[ebp]
  00058	8b 48 04	 mov	 ecx, DWORD PTR [eax+4]
  0005b	83 c1 08	 add	 ecx, 8
  0005e	51		 push	 ecx
  0005f	e8 00 00 00 00	 call	 ??$_Destroy_in_place@PAU?$_Tree_node@U?$pair@$$CBHUNPC_DATA_HELPER@@@std@@PAX@std@@@std@@YAXAAPAU?$_Tree_node@U?$pair@$$CBHUNPC_DATA_HELPER@@@std@@PAX@0@@Z ; std::_Destroy_in_place<std::_Tree_node<std::pair<int const ,NPC_DATA_HELPER>,void *> *>
  00064	83 c4 04	 add	 esp, 4

; 822  :             _Alnode_traits::destroy(this->_Al, _STD addressof(this->_Ptr->_Myval));

  00067	8b 45 f0	 mov	 eax, DWORD PTR _this$[ebp]
  0006a	8b 48 04	 mov	 ecx, DWORD PTR [eax+4]
  0006d	83 c1 10	 add	 ecx, 16			; 00000010H
  00070	51		 push	 ecx
  00071	e8 00 00 00 00	 call	 ??$addressof@U?$pair@$$CBHUNPC_DATA_HELPER@@@std@@@std@@YAPAU?$pair@$$CBHUNPC_DATA_HELPER@@@0@AAU10@@Z ; std::addressof<std::pair<int const ,NPC_DATA_HELPER> >
  00076	83 c4 04	 add	 esp, 4
  00079	50		 push	 eax
  0007a	8b 55 f0	 mov	 edx, DWORD PTR _this$[ebp]
  0007d	8b 02		 mov	 eax, DWORD PTR [edx]
  0007f	50		 push	 eax
  00080	e8 00 00 00 00	 call	 ??$destroy@U?$pair@$$CBHUNPC_DATA_HELPER@@@std@@@?$_Default_allocator_traits@V?$allocator@U?$_Tree_node@U?$pair@$$CBHUNPC_DATA_HELPER@@@std@@PAX@std@@@std@@@std@@SAXAAV?$allocator@U?$_Tree_node@U?$pair@$$CBHUNPC_DATA_HELPER@@@std@@PAX@std@@@1@QAU?$pair@$$CBHUNPC_DATA_HELPER@@@1@@Z ; std::_Default_allocator_traits<std::allocator<std::_Tree_node<std::pair<int const ,NPC_DATA_HELPER>,void *> > >::destroy<std::pair<int const ,NPC_DATA_HELPER> >
  00085	83 c4 08	 add	 esp, 8
$LN1@Tree_temp_:

; 823  :         }
; 824  :     }

  00088	8b 4d f0	 mov	 ecx, DWORD PTR _this$[ebp]
  0008b	e8 00 00 00 00	 call	 ??1?$_Tree_temp_node_alloc@V?$allocator@U?$_Tree_node@U?$pair@$$CBHUNPC_DATA_HELPER@@@std@@PAX@std@@@std@@@std@@QAE@XZ
  00090	8b 4d f4	 mov	 ecx, DWORD PTR __$EHRec$[ebp]
  00093	64 89 0d 00 00
	00 00		 mov	 DWORD PTR fs:0, ecx
  0009a	59		 pop	 ecx
  0009b	5f		 pop	 edi
  0009c	5e		 pop	 esi
  0009d	5b		 pop	 ebx
  0009e	8b e5		 mov	 esp, ebp
  000a0	5d		 pop	 ebp
  000a1	c3		 ret	 0
  000a2	cc		 int	 3
  000a3	cc		 int	 3
  000a4	cc		 int	 3
  000a5	cc		 int	 3
  000a6	cc		 int	 3
_TEXT	ENDS
;	COMDAT text$x
text$x	SEGMENT
__ehhandler$??1?$_Tree_temp_node@V?$allocator@U?$_Tree_node@U?$pair@$$CBHUNPC_DATA_HELPER@@@std@@PAX@std@@@std@@@std@@QAE@XZ:
  00000	90		 npad	 1
  00001	90		 npad	 1
  00002	8b 54 24 08	 mov	 edx, DWORD PTR [esp+8]
  00006	8d 42 0c	 lea	 eax, DWORD PTR [edx+12]
  00009	8b 4a ac	 mov	 ecx, DWORD PTR [edx-84]
  0000c	33 c8		 xor	 ecx, eax
  0000e	e8 00 00 00 00	 call	 @__security_check_cookie@4
  00013	b8 00 00 00 00	 mov	 eax, OFFSET __ehfuncinfo$??1?$_Tree_temp_node@V?$allocator@U?$_Tree_node@U?$pair@$$CBHUNPC_DATA_HELPER@@@std@@PAX@std@@@std@@@std@@QAE@XZ
  00018	e9 00 00 00 00	 jmp	 ___CxxFrameHandler3
text$x	ENDS
??1?$_Tree_temp_node@V?$allocator@U?$_Tree_node@U?$pair@$$CBHUNPC_DATA_HELPER@@@std@@PAX@std@@@std@@@std@@QAE@XZ ENDP ; std::_Tree_temp_node<std::allocator<std::_Tree_node<std::pair<int const ,NPC_DATA_HELPER>,void *> > >::~_Tree_temp_node<std::allocator<std::_Tree_node<std::pair<int const ,NPC_DATA_HELPER>,void *> > >
; Function compile flags: /Odtp /ZI
;	COMDAT ??1?$_Tree_temp_node_alloc@V?$allocator@U?$_Tree_node@U?$pair@$$CBHUNPC_DATA_HELPER@@@std@@PAX@std@@@std@@@std@@QAE@XZ
_TEXT	SEGMENT
_this$ = -4						; size = 4
??1?$_Tree_temp_node_alloc@V?$allocator@U?$_Tree_node@U?$pair@$$CBHUNPC_DATA_HELPER@@@std@@PAX@std@@@std@@@std@@QAE@XZ PROC ; std::_Tree_temp_node_alloc<std::allocator<std::_Tree_node<std::pair<int const ,NPC_DATA_HELPER>,void *> > >::~_Tree_temp_node_alloc<std::allocator<std::_Tree_node<std::pair<int const ,NPC_DATA_HELPER>,void *> > >, COMDAT
; _this$ = ecx
  00000	55		 push	 ebp
  00001	8b ec		 mov	 ebp, esp
  00003	83 ec 44	 sub	 esp, 68			; 00000044H
  00006	53		 push	 ebx
  00007	56		 push	 esi
  00008	57		 push	 edi
  00009	89 4d fc	 mov	 DWORD PTR _this$[ebp], ecx
  0000c	8b 4d fc	 mov	 ecx, DWORD PTR _this$[ebp]
  0000f	e8 00 00 00 00	 call	 ??1?$_Alloc_construct_ptr@V?$allocator@U?$_Tree_node@U?$pair@$$CBHUNPC_DATA_HELPER@@@std@@PAX@std@@@std@@@std@@QAE@XZ ; std::_Alloc_construct_ptr<std::allocator<std::_Tree_node<std::pair<int const ,NPC_DATA_HELPER>,void *> > >::~_Alloc_construct_ptr<std::allocator<std::_Tree_node<std::pair<int const ,NPC_DATA_HELPER>,void *> > >
  00014	5f		 pop	 edi
  00015	5e		 pop	 esi
  00016	5b		 pop	 ebx
  00017	8b e5		 mov	 esp, ebp
  00019	5d		 pop	 ebp
  0001a	c3		 ret	 0
??1?$_Tree_temp_node_alloc@V?$allocator@U?$_Tree_node@U?$pair@$$CBHUNPC_DATA_HELPER@@@std@@PAX@std@@@std@@@std@@QAE@XZ ENDP ; std::_Tree_temp_node_alloc<std::allocator<std::_Tree_node<std::pair<int const ,NPC_DATA_HELPER>,void *> > >::~_Tree_temp_node_alloc<std::allocator<std::_Tree_node<std::pair<int const ,NPC_DATA_HELPER>,void *> > >
_TEXT	ENDS
; Function compile flags: /Odtp /ZI
; File C:\Program Files (x86)\Microsoft Visual Studio\2019\Community\VC\Tools\MSVC\14.27.29110\include\xtree
;	COMDAT ??0?$_Tree_temp_node_alloc@V?$allocator@U?$_Tree_node@U?$pair@$$CBHUNPC_DATA_HELPER@@@std@@PAX@std@@@std@@@std@@QAE@AAV?$allocator@U?$_Tree_node@U?$pair@$$CBHUNPC_DATA_HELPER@@@std@@PAX@std@@@1@@Z
_TEXT	SEGMENT
_this$ = -16						; size = 4
__$EHRec$ = -12						; size = 12
__Al_$ = 8						; size = 4
??0?$_Tree_temp_node_alloc@V?$allocator@U?$_Tree_node@U?$pair@$$CBHUNPC_DATA_HELPER@@@std@@PAX@std@@@std@@@std@@QAE@AAV?$allocator@U?$_Tree_node@U?$pair@$$CBHUNPC_DATA_HELPER@@@std@@PAX@std@@@1@@Z PROC ; std::_Tree_temp_node_alloc<std::allocator<std::_Tree_node<std::pair<int const ,NPC_DATA_HELPER>,void *> > >::_Tree_temp_node_alloc<std::allocator<std::_Tree_node<std::pair<int const ,NPC_DATA_HELPER>,void *> > >, COMDAT
; _this$ = ecx

; 784  :     explicit _Tree_temp_node_alloc(_Alnode& _Al_) : _Alloc_construct_ptr<_Alnode>(_Al_) {

  00000	55		 push	 ebp
  00001	8b ec		 mov	 ebp, esp
  00003	6a ff		 push	 -1
  00005	68 00 00 00 00	 push	 __ehhandler$??0?$_Tree_temp_node_alloc@V?$allocator@U?$_Tree_node@U?$pair@$$CBHUNPC_DATA_HELPER@@@std@@PAX@std@@@std@@@std@@QAE@AAV?$allocator@U?$_Tree_node@U?$pair@$$CBHUNPC_DATA_HELPER@@@std@@PAX@std@@@1@@Z
  0000a	64 a1 00 00 00
	00		 mov	 eax, DWORD PTR fs:0
  00010	50		 push	 eax
  00011	83 ec 44	 sub	 esp, 68			; 00000044H
  00014	53		 push	 ebx
  00015	56		 push	 esi
  00016	57		 push	 edi
  00017	a1 00 00 00 00	 mov	 eax, DWORD PTR ___security_cookie
  0001c	33 c5		 xor	 eax, ebp
  0001e	50		 push	 eax
  0001f	8d 45 f4	 lea	 eax, DWORD PTR __$EHRec$[ebp]
  00022	64 a3 00 00 00
	00		 mov	 DWORD PTR fs:0, eax
  00028	89 4d f0	 mov	 DWORD PTR _this$[ebp], ecx
  0002b	8b 45 08	 mov	 eax, DWORD PTR __Al_$[ebp]
  0002e	50		 push	 eax
  0002f	8b 4d f0	 mov	 ecx, DWORD PTR _this$[ebp]
  00032	e8 00 00 00 00	 call	 ??0?$_Alloc_construct_ptr@V?$allocator@U?$_Tree_node@U?$pair@$$CBHUNPC_DATA_HELPER@@@std@@PAX@std@@@std@@@std@@QAE@AAV?$allocator@U?$_Tree_node@U?$pair@$$CBHUNPC_DATA_HELPER@@@std@@PAX@std@@@1@@Z ; std::_Alloc_construct_ptr<std::allocator<std::_Tree_node<std::pair<int const ,NPC_DATA_HELPER>,void *> > >::_Alloc_construct_ptr<std::allocator<std::_Tree_node<std::pair<int const ,NPC_DATA_HELPER>,void *> > >
  00037	c7 45 fc 00 00
	00 00		 mov	 DWORD PTR __$EHRec$[ebp+8], 0

; 785  :         _Alloc_construct_ptr<_Alnode>::_Allocate();

  0003e	8b 4d f0	 mov	 ecx, DWORD PTR _this$[ebp]
  00041	e8 00 00 00 00	 call	 ?_Allocate@?$_Alloc_construct_ptr@V?$allocator@U?$_Tree_node@U?$pair@$$CBHUNPC_DATA_HELPER@@@std@@PAX@std@@@std@@@std@@QAEXXZ ; std::_Alloc_construct_ptr<std::allocator<std::_Tree_node<std::pair<int const ,NPC_DATA_HELPER>,void *> > >::_Allocate

; 786  :     }

  00046	c7 45 fc ff ff
	ff ff		 mov	 DWORD PTR __$EHRec$[ebp+8], -1
  0004d	8b 45 f0	 mov	 eax, DWORD PTR _this$[ebp]
  00050	8b 4d f4	 mov	 ecx, DWORD PTR __$EHRec$[ebp]
  00053	64 89 0d 00 00
	00 00		 mov	 DWORD PTR fs:0, ecx
  0005a	59		 pop	 ecx
  0005b	5f		 pop	 edi
  0005c	5e		 pop	 esi
  0005d	5b		 pop	 ebx
  0005e	8b e5		 mov	 esp, ebp
  00060	5d		 pop	 ebp
  00061	c2 04 00	 ret	 4
_TEXT	ENDS
;	COMDAT text$x
text$x	SEGMENT
__unwindfunclet$??0?$_Tree_temp_node_alloc@V?$allocator@U?$_Tree_node@U?$pair@$$CBHUNPC_DATA_HELPER@@@std@@PAX@std@@@std@@@std@@QAE@AAV?$allocator@U?$_Tree_node@U?$pair@$$CBHUNPC_DATA_HELPER@@@std@@PAX@std@@@1@@Z$0:
  00000	8b 4d f0	 mov	 ecx, DWORD PTR _this$[ebp]
  00003	e9 00 00 00 00	 jmp	 ??1?$_Alloc_construct_ptr@V?$allocator@U?$_Tree_node@U?$pair@$$CBHUNPC_DATA_HELPER@@@std@@PAX@std@@@std@@@std@@QAE@XZ ; std::_Alloc_construct_ptr<std::allocator<std::_Tree_node<std::pair<int const ,NPC_DATA_HELPER>,void *> > >::~_Alloc_construct_ptr<std::allocator<std::_Tree_node<std::pair<int const ,NPC_DATA_HELPER>,void *> > >
  00008	cc		 int	 3
  00009	cc		 int	 3
  0000a	cc		 int	 3
  0000b	cc		 int	 3
  0000c	cc		 int	 3
__ehhandler$??0?$_Tree_temp_node_alloc@V?$allocator@U?$_Tree_node@U?$pair@$$CBHUNPC_DATA_HELPER@@@std@@PAX@std@@@std@@@std@@QAE@AAV?$allocator@U?$_Tree_node@U?$pair@$$CBHUNPC_DATA_HELPER@@@std@@PAX@std@@@1@@Z:
  0000d	90		 npad	 1
  0000e	90		 npad	 1
  0000f	8b 54 24 08	 mov	 edx, DWORD PTR [esp+8]
  00013	8d 42 0c	 lea	 eax, DWORD PTR [edx+12]
  00016	8b 4a ac	 mov	 ecx, DWORD PTR [edx-84]
  00019	33 c8		 xor	 ecx, eax
  0001b	e8 00 00 00 00	 call	 @__security_check_cookie@4
  00020	b8 00 00 00 00	 mov	 eax, OFFSET __ehfuncinfo$??0?$_Tree_temp_node_alloc@V?$allocator@U?$_Tree_node@U?$pair@$$CBHUNPC_DATA_HELPER@@@std@@PAX@std@@@std@@@std@@QAE@AAV?$allocator@U?$_Tree_node@U?$pair@$$CBHUNPC_DATA_HELPER@@@std@@PAX@std@@@1@@Z
  00025	e9 00 00 00 00	 jmp	 ___CxxFrameHandler3
text$x	ENDS
??0?$_Tree_temp_node_alloc@V?$allocator@U?$_Tree_node@U?$pair@$$CBHUNPC_DATA_HELPER@@@std@@PAX@std@@@std@@@std@@QAE@AAV?$allocator@U?$_Tree_node@U?$pair@$$CBHUNPC_DATA_HELPER@@@std@@PAX@std@@@1@@Z ENDP ; std::_Tree_temp_node_alloc<std::allocator<std::_Tree_node<std::pair<int const ,NPC_DATA_HELPER>,void *> > >::_Tree_temp_node_alloc<std::allocator<std::_Tree_node<std::pair<int const ,NPC_DATA_HELPER>,void *> > >
; Function compile flags: /Odtp /ZI
; File C:\Program Files (x86)\Microsoft Visual Studio\2019\Community\VC\Tools\MSVC\14.27.29110\include\xmemory
;	COMDAT ??1?$_Alloc_construct_ptr@V?$allocator@U?$_Tree_node@U?$pair@$$CBHUNPC_DATA_HELPER@@@std@@PAX@std@@@std@@@std@@QAE@XZ
_TEXT	SEGMENT
_this$ = -16						; size = 4
__$EHRec$ = -12						; size = 12
??1?$_Alloc_construct_ptr@V?$allocator@U?$_Tree_node@U?$pair@$$CBHUNPC_DATA_HELPER@@@std@@PAX@std@@@std@@@std@@QAE@XZ PROC ; std::_Alloc_construct_ptr<std::allocator<std::_Tree_node<std::pair<int const ,NPC_DATA_HELPER>,void *> > >::~_Alloc_construct_ptr<std::allocator<std::_Tree_node<std::pair<int const ,NPC_DATA_HELPER>,void *> > >, COMDAT
; _this$ = ecx

; 1051 :     ~_Alloc_construct_ptr() { // if this instance is engaged, deallocate storage

  00000	55		 push	 ebp
  00001	8b ec		 mov	 ebp, esp
  00003	6a ff		 push	 -1
  00005	68 00 00 00 00	 push	 __ehhandler$??1?$_Alloc_construct_ptr@V?$allocator@U?$_Tree_node@U?$pair@$$CBHUNPC_DATA_HELPER@@@std@@PAX@std@@@std@@@std@@QAE@XZ
  0000a	64 a1 00 00 00
	00		 mov	 eax, DWORD PTR fs:0
  00010	50		 push	 eax
  00011	83 ec 44	 sub	 esp, 68			; 00000044H
  00014	53		 push	 ebx
  00015	56		 push	 esi
  00016	57		 push	 edi
  00017	a1 00 00 00 00	 mov	 eax, DWORD PTR ___security_cookie
  0001c	33 c5		 xor	 eax, ebp
  0001e	50		 push	 eax
  0001f	8d 45 f4	 lea	 eax, DWORD PTR __$EHRec$[ebp]
  00022	64 a3 00 00 00
	00		 mov	 DWORD PTR fs:0, eax
  00028	89 4d f0	 mov	 DWORD PTR _this$[ebp], ecx

; 1052 :         if (_Ptr) {

  0002b	8b 45 f0	 mov	 eax, DWORD PTR _this$[ebp]
  0002e	83 78 04 00	 cmp	 DWORD PTR [eax+4], 0
  00032	74 13		 je	 SHORT $LN3@Alloc_cons

; 1053 :             _Al.deallocate(_Ptr, 1);

  00034	6a 01		 push	 1
  00036	8b 45 f0	 mov	 eax, DWORD PTR _this$[ebp]
  00039	8b 48 04	 mov	 ecx, DWORD PTR [eax+4]
  0003c	51		 push	 ecx
  0003d	8b 55 f0	 mov	 edx, DWORD PTR _this$[ebp]
  00040	8b 0a		 mov	 ecx, DWORD PTR [edx]
  00042	e8 00 00 00 00	 call	 ?deallocate@?$allocator@U?$_Tree_node@U?$pair@$$CBHUNPC_DATA_HELPER@@@std@@PAX@std@@@std@@QAEXQAU?$_Tree_node@U?$pair@$$CBHUNPC_DATA_HELPER@@@std@@PAX@2@I@Z ; std::allocator<std::_Tree_node<std::pair<int const ,NPC_DATA_HELPER>,void *> >::deallocate
$LN3@Alloc_cons:

; 1054 :         }
; 1055 :     }

  00047	8b 4d f4	 mov	 ecx, DWORD PTR __$EHRec$[ebp]
  0004a	64 89 0d 00 00
	00 00		 mov	 DWORD PTR fs:0, ecx
  00051	59		 pop	 ecx
  00052	5f		 pop	 edi
  00053	5e		 pop	 esi
  00054	5b		 pop	 ebx
  00055	8b e5		 mov	 esp, ebp
  00057	5d		 pop	 ebp
  00058	c3		 ret	 0
  00059	cc		 int	 3
  0005a	cc		 int	 3
  0005b	cc		 int	 3
  0005c	cc		 int	 3
  0005d	cc		 int	 3
_TEXT	ENDS
;	COMDAT text$x
text$x	SEGMENT
__ehhandler$??1?$_Alloc_construct_ptr@V?$allocator@U?$_Tree_node@U?$pair@$$CBHUNPC_DATA_HELPER@@@std@@PAX@std@@@std@@@std@@QAE@XZ:
  00000	90		 npad	 1
  00001	90		 npad	 1
  00002	8b 54 24 08	 mov	 edx, DWORD PTR [esp+8]
  00006	8d 42 0c	 lea	 eax, DWORD PTR [edx+12]
  00009	8b 4a ac	 mov	 ecx, DWORD PTR [edx-84]
  0000c	33 c8		 xor	 ecx, eax
  0000e	e8 00 00 00 00	 call	 @__security_check_cookie@4
  00013	b8 00 00 00 00	 mov	 eax, OFFSET __ehfuncinfo$??1?$_Alloc_construct_ptr@V?$allocator@U?$_Tree_node@U?$pair@$$CBHUNPC_DATA_HELPER@@@std@@PAX@std@@@std@@@std@@QAE@XZ
  00018	e9 00 00 00 00	 jmp	 ___CxxFrameHandler3
text$x	ENDS
??1?$_Alloc_construct_ptr@V?$allocator@U?$_Tree_node@U?$pair@$$CBHUNPC_DATA_HELPER@@@std@@PAX@std@@@std@@@std@@QAE@XZ ENDP ; std::_Alloc_construct_ptr<std::allocator<std::_Tree_node<std::pair<int const ,NPC_DATA_HELPER>,void *> > >::~_Alloc_construct_ptr<std::allocator<std::_Tree_node<std::pair<int const ,NPC_DATA_HELPER>,void *> > >
; Function compile flags: /Odtp /ZI
; File C:\Program Files (x86)\Microsoft Visual Studio\2019\Community\VC\Tools\MSVC\14.27.29110\include\xmemory
;	COMDAT ?_Allocate@?$_Alloc_construct_ptr@V?$allocator@U?$_Tree_node@U?$pair@$$CBHUNPC_DATA_HELPER@@@std@@PAX@std@@@std@@@std@@QAEXXZ
_TEXT	SEGMENT
_this$ = -4						; size = 4
?_Allocate@?$_Alloc_construct_ptr@V?$allocator@U?$_Tree_node@U?$pair@$$CBHUNPC_DATA_HELPER@@@std@@PAX@std@@@std@@@std@@QAEXXZ PROC ; std::_Alloc_construct_ptr<std::allocator<std::_Tree_node<std::pair<int const ,NPC_DATA_HELPER>,void *> > >::_Allocate, COMDAT
; _this$ = ecx

; 1046 :     void _Allocate() { // disengage *this, then allocate a new memory block

  00000	55		 push	 ebp
  00001	8b ec		 mov	 ebp, esp
  00003	83 ec 44	 sub	 esp, 68			; 00000044H
  00006	53		 push	 ebx
  00007	56		 push	 esi
  00008	57		 push	 edi
  00009	89 4d fc	 mov	 DWORD PTR _this$[ebp], ecx

; 1047 :         _Ptr = nullptr; // if allocate throws, prevents double-free

  0000c	8b 45 fc	 mov	 eax, DWORD PTR _this$[ebp]
  0000f	c7 40 04 00 00
	00 00		 mov	 DWORD PTR [eax+4], 0

; 1048 :         _Ptr = _Al.allocate(1);

  00016	6a 01		 push	 1
  00018	8b 45 fc	 mov	 eax, DWORD PTR _this$[ebp]
  0001b	8b 08		 mov	 ecx, DWORD PTR [eax]
  0001d	e8 00 00 00 00	 call	 ?allocate@?$allocator@U?$_Tree_node@U?$pair@$$CBHUNPC_DATA_HELPER@@@std@@PAX@std@@@std@@QAEPAU?$_Tree_node@U?$pair@$$CBHUNPC_DATA_HELPER@@@std@@PAX@2@I@Z ; std::allocator<std::_Tree_node<std::pair<int const ,NPC_DATA_HELPER>,void *> >::allocate
  00022	8b 4d fc	 mov	 ecx, DWORD PTR _this$[ebp]
  00025	89 41 04	 mov	 DWORD PTR [ecx+4], eax

; 1049 :     }

  00028	5f		 pop	 edi
  00029	5e		 pop	 esi
  0002a	5b		 pop	 ebx
  0002b	8b e5		 mov	 esp, ebp
  0002d	5d		 pop	 ebp
  0002e	c3		 ret	 0
?_Allocate@?$_Alloc_construct_ptr@V?$allocator@U?$_Tree_node@U?$pair@$$CBHUNPC_DATA_HELPER@@@std@@PAX@std@@@std@@@std@@QAEXXZ ENDP ; std::_Alloc_construct_ptr<std::allocator<std::_Tree_node<std::pair<int const ,NPC_DATA_HELPER>,void *> > >::_Allocate
_TEXT	ENDS
; Function compile flags: /Odtp /ZI
; File C:\Program Files (x86)\Microsoft Visual Studio\2019\Community\VC\Tools\MSVC\14.27.29110\include\xmemory
;	COMDAT ?_Release@?$_Alloc_construct_ptr@V?$allocator@U?$_Tree_node@U?$pair@$$CBHUNPC_DATA_HELPER@@@std@@PAX@std@@@std@@@std@@QAEPAU?$_Tree_node@U?$pair@$$CBHUNPC_DATA_HELPER@@@std@@PAX@2@XZ
_TEXT	SEGMENT
$T1 = -72						; size = 4
_this$ = -4						; size = 4
?_Release@?$_Alloc_construct_ptr@V?$allocator@U?$_Tree_node@U?$pair@$$CBHUNPC_DATA_HELPER@@@std@@PAX@std@@@std@@@std@@QAEPAU?$_Tree_node@U?$pair@$$CBHUNPC_DATA_HELPER@@@std@@PAX@2@XZ PROC ; std::_Alloc_construct_ptr<std::allocator<std::_Tree_node<std::pair<int const ,NPC_DATA_HELPER>,void *> > >::_Release, COMDAT
; _this$ = ecx

; 1042 :     _NODISCARD pointer _Release() noexcept { // disengage *this and return contained pointer

  00000	55		 push	 ebp
  00001	8b ec		 mov	 ebp, esp
  00003	83 ec 48	 sub	 esp, 72			; 00000048H
  00006	53		 push	 ebx
  00007	56		 push	 esi
  00008	57		 push	 edi
  00009	89 4d fc	 mov	 DWORD PTR _this$[ebp], ecx

; 1043 :         return _STD exchange(_Ptr, nullptr);

  0000c	c7 45 b8 00 00
	00 00		 mov	 DWORD PTR $T1[ebp], 0
  00013	8d 45 b8	 lea	 eax, DWORD PTR $T1[ebp]
  00016	50		 push	 eax
  00017	8b 4d fc	 mov	 ecx, DWORD PTR _this$[ebp]
  0001a	83 c1 04	 add	 ecx, 4
  0001d	51		 push	 ecx
  0001e	e8 00 00 00 00	 call	 ??$exchange@PAU?$_Tree_node@U?$pair@$$CBHUNPC_DATA_HELPER@@@std@@PAX@std@@$$T@std@@YAPAU?$_Tree_node@U?$pair@$$CBHUNPC_DATA_HELPER@@@std@@PAX@0@AAPAU10@$$QA$$T@Z ; std::exchange<std::_Tree_node<std::pair<int const ,NPC_DATA_HELPER>,void *> *,std::nullptr_t>
  00023	83 c4 08	 add	 esp, 8

; 1044 :     }

  00026	5f		 pop	 edi
  00027	5e		 pop	 esi
  00028	5b		 pop	 ebx
  00029	8b e5		 mov	 esp, ebp
  0002b	5d		 pop	 ebp
  0002c	c3		 ret	 0
?_Release@?$_Alloc_construct_ptr@V?$allocator@U?$_Tree_node@U?$pair@$$CBHUNPC_DATA_HELPER@@@std@@PAX@std@@@std@@@std@@QAEPAU?$_Tree_node@U?$pair@$$CBHUNPC_DATA_HELPER@@@std@@PAX@2@XZ ENDP ; std::_Alloc_construct_ptr<std::allocator<std::_Tree_node<std::pair<int const ,NPC_DATA_HELPER>,void *> > >::_Release
_TEXT	ENDS
; Function compile flags: /Odtp /ZI
; File C:\Program Files (x86)\Microsoft Visual Studio\2019\Community\VC\Tools\MSVC\14.27.29110\include\xmemory
;	COMDAT ??0?$_Alloc_construct_ptr@V?$allocator@U?$_Tree_node@U?$pair@$$CBHUNPC_DATA_HELPER@@@std@@PAX@std@@@std@@@std@@QAE@AAV?$allocator@U?$_Tree_node@U?$pair@$$CBHUNPC_DATA_HELPER@@@std@@PAX@std@@@1@@Z
_TEXT	SEGMENT
_this$ = -4						; size = 4
__Al_$ = 8						; size = 4
??0?$_Alloc_construct_ptr@V?$allocator@U?$_Tree_node@U?$pair@$$CBHUNPC_DATA_HELPER@@@std@@PAX@std@@@std@@@std@@QAE@AAV?$allocator@U?$_Tree_node@U?$pair@$$CBHUNPC_DATA_HELPER@@@std@@PAX@std@@@1@@Z PROC ; std::_Alloc_construct_ptr<std::allocator<std::_Tree_node<std::pair<int const ,NPC_DATA_HELPER>,void *> > >::_Alloc_construct_ptr<std::allocator<std::_Tree_node<std::pair<int const ,NPC_DATA_HELPER>,void *> > >, COMDAT
; _this$ = ecx

; 1040 :     explicit _Alloc_construct_ptr(_Alloc& _Al_) : _Al(_Al_), _Ptr(nullptr) {}

  00000	55		 push	 ebp
  00001	8b ec		 mov	 ebp, esp
  00003	83 ec 44	 sub	 esp, 68			; 00000044H
  00006	53		 push	 ebx
  00007	56		 push	 esi
  00008	57		 push	 edi
  00009	89 4d fc	 mov	 DWORD PTR _this$[ebp], ecx
  0000c	8b 45 fc	 mov	 eax, DWORD PTR _this$[ebp]
  0000f	8b 4d 08	 mov	 ecx, DWORD PTR __Al_$[ebp]
  00012	89 08		 mov	 DWORD PTR [eax], ecx
  00014	8b 45 fc	 mov	 eax, DWORD PTR _this$[ebp]
  00017	c7 40 04 00 00
	00 00		 mov	 DWORD PTR [eax+4], 0
  0001e	8b 45 fc	 mov	 eax, DWORD PTR _this$[ebp]
  00021	5f		 pop	 edi
  00022	5e		 pop	 esi
  00023	5b		 pop	 ebx
  00024	8b e5		 mov	 esp, ebp
  00026	5d		 pop	 ebp
  00027	c2 04 00	 ret	 4
??0?$_Alloc_construct_ptr@V?$allocator@U?$_Tree_node@U?$pair@$$CBHUNPC_DATA_HELPER@@@std@@PAX@std@@@std@@@std@@QAE@AAV?$allocator@U?$_Tree_node@U?$pair@$$CBHUNPC_DATA_HELPER@@@std@@PAX@std@@@1@@Z ENDP ; std::_Alloc_construct_ptr<std::allocator<std::_Tree_node<std::pair<int const ,NPC_DATA_HELPER>,void *> > >::_Alloc_construct_ptr<std::allocator<std::_Tree_node<std::pair<int const ,NPC_DATA_HELPER>,void *> > >
_TEXT	ENDS
; Function compile flags: /Odtp /ZI
; File C:\Program Files (x86)\Microsoft Visual Studio\2019\Community\VC\Tools\MSVC\14.27.29110\include\utility
;	COMDAT ??$?0AAPAU?$_Tree_node@U?$pair@$$CBHUNPC_DATA_HELPER@@@std@@PAX@std@@_N$0A@@?$pair@PAU?$_Tree_node@U?$pair@$$CBHUNPC_DATA_HELPER@@@std@@PAX@std@@_N@std@@QAE@AAPAU?$_Tree_node@U?$pair@$$CBHUNPC_DATA_HELPER@@@std@@PAX@1@$$QA_N@Z
_TEXT	SEGMENT
_this$ = -4						; size = 4
__Val1$ = 8						; size = 4
__Val2$ = 12						; size = 4
??$?0AAPAU?$_Tree_node@U?$pair@$$CBHUNPC_DATA_HELPER@@@std@@PAX@std@@_N$0A@@?$pair@PAU?$_Tree_node@U?$pair@$$CBHUNPC_DATA_HELPER@@@std@@PAX@std@@_N@std@@QAE@AAPAU?$_Tree_node@U?$pair@$$CBHUNPC_DATA_HELPER@@@std@@PAX@1@$$QA_N@Z PROC ; std::pair<std::_Tree_node<std::pair<int const ,NPC_DATA_HELPER>,void *> *,bool>::pair<std::_Tree_node<std::pair<int const ,NPC_DATA_HELPER>,void *> *,bool><std::_Tree_node<std::pair<int const ,NPC_DATA_HELPER>,void *> * &,bool,0>, COMDAT
; _this$ = ecx

; 192  :         : first(_STD forward<_Other1>(_Val1)), second(_STD forward<_Other2>(_Val2)) {}

  00000	55		 push	 ebp
  00001	8b ec		 mov	 ebp, esp
  00003	83 ec 44	 sub	 esp, 68			; 00000044H
  00006	53		 push	 ebx
  00007	56		 push	 esi
  00008	57		 push	 edi
  00009	89 4d fc	 mov	 DWORD PTR _this$[ebp], ecx
  0000c	8b 45 08	 mov	 eax, DWORD PTR __Val1$[ebp]
  0000f	50		 push	 eax
  00010	e8 00 00 00 00	 call	 ??$forward@AAPAU?$_Tree_node@U?$pair@$$CBHUNPC_DATA_HELPER@@@std@@PAX@std@@@std@@YAAAPAU?$_Tree_node@U?$pair@$$CBHUNPC_DATA_HELPER@@@std@@PAX@0@AAPAU10@@Z ; std::forward<std::_Tree_node<std::pair<int const ,NPC_DATA_HELPER>,void *> * &>
  00015	83 c4 04	 add	 esp, 4
  00018	8b 4d fc	 mov	 ecx, DWORD PTR _this$[ebp]
  0001b	8b 10		 mov	 edx, DWORD PTR [eax]
  0001d	89 11		 mov	 DWORD PTR [ecx], edx
  0001f	8b 45 0c	 mov	 eax, DWORD PTR __Val2$[ebp]
  00022	50		 push	 eax
  00023	e8 00 00 00 00	 call	 ??$forward@_N@std@@YA$$QA_NAA_N@Z ; std::forward<bool>
  00028	83 c4 04	 add	 esp, 4
  0002b	8b 4d fc	 mov	 ecx, DWORD PTR _this$[ebp]
  0002e	8a 10		 mov	 dl, BYTE PTR [eax]
  00030	88 51 04	 mov	 BYTE PTR [ecx+4], dl
  00033	8b 45 fc	 mov	 eax, DWORD PTR _this$[ebp]
  00036	5f		 pop	 edi
  00037	5e		 pop	 esi
  00038	5b		 pop	 ebx
  00039	8b e5		 mov	 esp, ebp
  0003b	5d		 pop	 ebp
  0003c	c2 08 00	 ret	 8
??$?0AAPAU?$_Tree_node@U?$pair@$$CBHUNPC_DATA_HELPER@@@std@@PAX@std@@_N$0A@@?$pair@PAU?$_Tree_node@U?$pair@$$CBHUNPC_DATA_HELPER@@@std@@PAX@std@@_N@std@@QAE@AAPAU?$_Tree_node@U?$pair@$$CBHUNPC_DATA_HELPER@@@std@@PAX@1@$$QA_N@Z ENDP ; std::pair<std::_Tree_node<std::pair<int const ,NPC_DATA_HELPER>,void *> *,bool>::pair<std::_Tree_node<std::pair<int const ,NPC_DATA_HELPER>,void *> *,bool><std::_Tree_node<std::pair<int const ,NPC_DATA_HELPER>,void *> * &,bool,0>
_TEXT	ENDS
; Function compile flags: /Odtp /ZI
; File C:\Program Files (x86)\Microsoft Visual Studio\2019\Community\VC\Tools\MSVC\14.27.29110\include\xmemory
;	COMDAT ?_Extract@?$_In_place_key_extract_map@HU?$pair@HUNPC_DATA_HELPER@@@std@@@std@@SAABHABU?$pair@HUNPC_DATA_HELPER@@@2@@Z
_TEXT	SEGMENT
__Val$ = 8						; size = 4
?_Extract@?$_In_place_key_extract_map@HU?$pair@HUNPC_DATA_HELPER@@@std@@@std@@SAABHABU?$pair@HUNPC_DATA_HELPER@@@2@@Z PROC ; std::_In_place_key_extract_map<int,std::pair<int,NPC_DATA_HELPER> >::_Extract, COMDAT

; 1961 :     static const _Key& _Extract(const pair<_First, _Second>& _Val) {

  00000	55		 push	 ebp
  00001	8b ec		 mov	 ebp, esp
  00003	83 ec 40	 sub	 esp, 64			; 00000040H
  00006	53		 push	 ebx
  00007	56		 push	 esi
  00008	57		 push	 edi

; 1962 :         return _Val.first;

  00009	8b 45 08	 mov	 eax, DWORD PTR __Val$[ebp]

; 1963 :     }

  0000c	5f		 pop	 edi
  0000d	5e		 pop	 esi
  0000e	5b		 pop	 ebx
  0000f	8b e5		 mov	 esp, ebp
  00011	5d		 pop	 ebp
  00012	c3		 ret	 0
?_Extract@?$_In_place_key_extract_map@HU?$pair@HUNPC_DATA_HELPER@@@std@@@std@@SAABHABU?$pair@HUNPC_DATA_HELPER@@@2@@Z ENDP ; std::_In_place_key_extract_map<int,std::pair<int,NPC_DATA_HELPER> >::_Extract
_TEXT	ENDS
; Function compile flags: /Odtp /ZI
; File C:\Program Files (x86)\Microsoft Visual Studio\2019\Community\VC\Tools\MSVC\14.27.29110\include\type_traits
;	COMDAT ??$move@AAD@std@@YA$$QADAAD@Z
_TEXT	SEGMENT
__Arg$ = 8						; size = 4
??$move@AAD@std@@YA$$QADAAD@Z PROC			; std::move<char &>, COMDAT

; 1466 : _NODISCARD constexpr remove_reference_t<_Ty>&& move(_Ty&& _Arg) noexcept { // forward _Arg as movable

  00000	55		 push	 ebp
  00001	8b ec		 mov	 ebp, esp
  00003	83 ec 40	 sub	 esp, 64			; 00000040H
  00006	53		 push	 ebx
  00007	56		 push	 esi
  00008	57		 push	 edi

; 1467 :     return static_cast<remove_reference_t<_Ty>&&>(_Arg);

  00009	8b 45 08	 mov	 eax, DWORD PTR __Arg$[ebp]

; 1468 : }

  0000c	5f		 pop	 edi
  0000d	5e		 pop	 esi
  0000e	5b		 pop	 ebx
  0000f	8b e5		 mov	 esp, ebp
  00011	5d		 pop	 ebp
  00012	c3		 ret	 0
??$move@AAD@std@@YA$$QADAAD@Z ENDP			; std::move<char &>
_TEXT	ENDS
; Function compile flags: /Odtp /ZI
; File C:\Program Files (x86)\Microsoft Visual Studio\2019\Community\VC\Tools\MSVC\14.27.29110\include\xmemory
;	COMDAT ??$destroy@U?$pair@$$CBHUNPC_DATA_HELPER@@@std@@@?$_Default_allocator_traits@V?$allocator@U?$_Tree_node@U?$pair@$$CBHUNPC_DATA_HELPER@@@std@@PAX@std@@@std@@@std@@SAXAAV?$allocator@U?$_Tree_node@U?$pair@$$CBHUNPC_DATA_HELPER@@@std@@PAX@std@@@1@QAU?$pair@$$CBHUNPC_DATA_HELPER@@@1@@Z
_TEXT	SEGMENT
___formal$ = 8						; size = 4
__Ptr$ = 12						; size = 4
??$destroy@U?$pair@$$CBHUNPC_DATA_HELPER@@@std@@@?$_Default_allocator_traits@V?$allocator@U?$_Tree_node@U?$pair@$$CBHUNPC_DATA_HELPER@@@std@@PAX@std@@@std@@@std@@SAXAAV?$allocator@U?$_Tree_node@U?$pair@$$CBHUNPC_DATA_HELPER@@@std@@PAX@std@@@1@QAU?$pair@$$CBHUNPC_DATA_HELPER@@@1@@Z PROC ; std::_Default_allocator_traits<std::allocator<std::_Tree_node<std::pair<int const ,NPC_DATA_HELPER>,void *> > >::destroy<std::pair<int const ,NPC_DATA_HELPER> >, COMDAT

; 698  :     static void destroy(_Alloc&, _Uty* const _Ptr) {

  00000	55		 push	 ebp
  00001	8b ec		 mov	 ebp, esp
  00003	83 ec 40	 sub	 esp, 64			; 00000040H
  00006	53		 push	 ebx
  00007	56		 push	 esi
  00008	57		 push	 edi

; 699  :         _Ptr->~_Uty();
; 700  :     }

  00009	5f		 pop	 edi
  0000a	5e		 pop	 esi
  0000b	5b		 pop	 ebx
  0000c	8b e5		 mov	 esp, ebp
  0000e	5d		 pop	 ebp
  0000f	c3		 ret	 0
??$destroy@U?$pair@$$CBHUNPC_DATA_HELPER@@@std@@@?$_Default_allocator_traits@V?$allocator@U?$_Tree_node@U?$pair@$$CBHUNPC_DATA_HELPER@@@std@@PAX@std@@@std@@@std@@SAXAAV?$allocator@U?$_Tree_node@U?$pair@$$CBHUNPC_DATA_HELPER@@@std@@PAX@std@@@1@QAU?$pair@$$CBHUNPC_DATA_HELPER@@@1@@Z ENDP ; std::_Default_allocator_traits<std::allocator<std::_Tree_node<std::pair<int const ,NPC_DATA_HELPER>,void *> > >::destroy<std::pair<int const ,NPC_DATA_HELPER> >
_TEXT	ENDS
; Function compile flags: /Odtp /ZI
; File C:\Program Files (x86)\Microsoft Visual Studio\2019\Community\VC\Tools\MSVC\14.27.29110\include\type_traits
;	COMDAT ??$forward@ABQAU?$_Tree_node@U?$pair@$$CBHUNPC_DATA_HELPER@@@std@@PAX@std@@@std@@YAABQAU?$_Tree_node@U?$pair@$$CBHUNPC_DATA_HELPER@@@std@@PAX@0@ABQAU10@@Z
_TEXT	SEGMENT
__Arg$ = 8						; size = 4
??$forward@ABQAU?$_Tree_node@U?$pair@$$CBHUNPC_DATA_HELPER@@@std@@PAX@std@@@std@@YAABQAU?$_Tree_node@U?$pair@$$CBHUNPC_DATA_HELPER@@@std@@PAX@0@ABQAU10@@Z PROC ; std::forward<std::_Tree_node<std::pair<int const ,NPC_DATA_HELPER>,void *> * const &>, COMDAT

; 1454 :     remove_reference_t<_Ty>& _Arg) noexcept { // forward an lvalue as either an lvalue or an rvalue

  00000	55		 push	 ebp
  00001	8b ec		 mov	 ebp, esp
  00003	83 ec 40	 sub	 esp, 64			; 00000040H
  00006	53		 push	 ebx
  00007	56		 push	 esi
  00008	57		 push	 edi

; 1455 :     return static_cast<_Ty&&>(_Arg);

  00009	8b 45 08	 mov	 eax, DWORD PTR __Arg$[ebp]

; 1456 : }

  0000c	5f		 pop	 edi
  0000d	5e		 pop	 esi
  0000e	5b		 pop	 ebx
  0000f	8b e5		 mov	 esp, ebp
  00011	5d		 pop	 ebp
  00012	c3		 ret	 0
??$forward@ABQAU?$_Tree_node@U?$pair@$$CBHUNPC_DATA_HELPER@@@std@@PAX@std@@@std@@YAABQAU?$_Tree_node@U?$pair@$$CBHUNPC_DATA_HELPER@@@std@@PAX@0@ABQAU10@@Z ENDP ; std::forward<std::_Tree_node<std::pair<int const ,NPC_DATA_HELPER>,void *> * const &>
_TEXT	ENDS
; Function compile flags: /Odtp /ZI
; File C:\Program Files (x86)\Microsoft Visual Studio\2019\Community\VC\Tools\MSVC\14.27.29110\include\xstddef
;	COMDAT ??$addressof@PAU?$_Tree_node@U?$pair@$$CBHUNPC_DATA_HELPER@@@std@@PAX@std@@@std@@YAPAPAU?$_Tree_node@U?$pair@$$CBHUNPC_DATA_HELPER@@@std@@PAX@0@AAPAU10@@Z
_TEXT	SEGMENT
__Val$ = 8						; size = 4
??$addressof@PAU?$_Tree_node@U?$pair@$$CBHUNPC_DATA_HELPER@@@std@@PAX@std@@@std@@YAPAPAU?$_Tree_node@U?$pair@$$CBHUNPC_DATA_HELPER@@@std@@PAX@0@AAPAU10@@Z PROC ; std::addressof<std::_Tree_node<std::pair<int const ,NPC_DATA_HELPER>,void *> *>, COMDAT

; 274  : _NODISCARD constexpr _Ty* addressof(_Ty& _Val) noexcept {

  00000	55		 push	 ebp
  00001	8b ec		 mov	 ebp, esp
  00003	83 ec 40	 sub	 esp, 64			; 00000040H
  00006	53		 push	 ebx
  00007	56		 push	 esi
  00008	57		 push	 edi

; 275  :     return __builtin_addressof(_Val);

  00009	8b 45 08	 mov	 eax, DWORD PTR __Val$[ebp]

; 276  : }

  0000c	5f		 pop	 edi
  0000d	5e		 pop	 esi
  0000e	5b		 pop	 ebx
  0000f	8b e5		 mov	 esp, ebp
  00011	5d		 pop	 ebp
  00012	c3		 ret	 0
??$addressof@PAU?$_Tree_node@U?$pair@$$CBHUNPC_DATA_HELPER@@@std@@PAX@std@@@std@@YAPAPAU?$_Tree_node@U?$pair@$$CBHUNPC_DATA_HELPER@@@std@@PAX@0@AAPAU10@@Z ENDP ; std::addressof<std::_Tree_node<std::pair<int const ,NPC_DATA_HELPER>,void *> *>
_TEXT	ENDS
; Function compile flags: /Odtp /ZI
; File C:\Program Files (x86)\Microsoft Visual Studio\2019\Community\VC\Tools\MSVC\14.27.29110\include\xmemory
;	COMDAT ??$_Destroy_in_place@PAU?$_Tree_node@U?$pair@$$CBHUNPC_DATA_HELPER@@@std@@PAX@std@@@std@@YAXAAPAU?$_Tree_node@U?$pair@$$CBHUNPC_DATA_HELPER@@@std@@PAX@0@@Z
_TEXT	SEGMENT
__Obj$ = 8						; size = 4
??$_Destroy_in_place@PAU?$_Tree_node@U?$pair@$$CBHUNPC_DATA_HELPER@@@std@@PAX@std@@@std@@YAXAAPAU?$_Tree_node@U?$pair@$$CBHUNPC_DATA_HELPER@@@std@@PAX@0@@Z PROC ; std::_Destroy_in_place<std::_Tree_node<std::pair<int const ,NPC_DATA_HELPER>,void *> *>, COMDAT

; 267  : void _Destroy_in_place(_Ty& _Obj) noexcept {

  00000	55		 push	 ebp
  00001	8b ec		 mov	 ebp, esp
  00003	83 ec 40	 sub	 esp, 64			; 00000040H
  00006	53		 push	 ebx
  00007	56		 push	 esi
  00008	57		 push	 edi

; 268  :     _Obj.~_Ty();
; 269  : }

  00009	5f		 pop	 edi
  0000a	5e		 pop	 esi
  0000b	5b		 pop	 ebx
  0000c	8b e5		 mov	 esp, ebp
  0000e	5d		 pop	 ebp
  0000f	c3		 ret	 0
??$_Destroy_in_place@PAU?$_Tree_node@U?$pair@$$CBHUNPC_DATA_HELPER@@@std@@PAX@std@@@std@@YAXAAPAU?$_Tree_node@U?$pair@$$CBHUNPC_DATA_HELPER@@@std@@PAX@0@@Z ENDP ; std::_Destroy_in_place<std::_Tree_node<std::pair<int const ,NPC_DATA_HELPER>,void *> *>
_TEXT	ENDS
; Function compile flags: /Odtp /ZI
; File C:\Program Files (x86)\Microsoft Visual Studio\2019\Community\VC\Tools\MSVC\14.27.29110\include\utility
;	COMDAT ??$exchange@PAU?$_Tree_node@U?$pair@$$CBHUNPC_DATA_HELPER@@@std@@PAX@std@@AAPAU12@@std@@YAPAU?$_Tree_node@U?$pair@$$CBHUNPC_DATA_HELPER@@@std@@PAX@0@AAPAU10@0@Z
_TEXT	SEGMENT
__Old_val$ = -4						; size = 4
__Val$ = 8						; size = 4
__New_val$ = 12						; size = 4
??$exchange@PAU?$_Tree_node@U?$pair@$$CBHUNPC_DATA_HELPER@@@std@@PAX@std@@AAPAU12@@std@@YAPAU?$_Tree_node@U?$pair@$$CBHUNPC_DATA_HELPER@@@std@@PAX@0@AAPAU10@0@Z PROC ; std::exchange<std::_Tree_node<std::pair<int const ,NPC_DATA_HELPER>,void *> *,std::_Tree_node<std::pair<int const ,NPC_DATA_HELPER>,void *> * &>, COMDAT

; 597  :     conjunction_v<is_nothrow_move_constructible<_Ty>, is_nothrow_assignable<_Ty&, _Other>>) /* strengthened */ {

  00000	55		 push	 ebp
  00001	8b ec		 mov	 ebp, esp
  00003	83 ec 44	 sub	 esp, 68			; 00000044H
  00006	53		 push	 ebx
  00007	56		 push	 esi
  00008	57		 push	 edi

; 598  :     // assign _New_val to _Val, return previous _Val
; 599  :     _Ty _Old_val = static_cast<_Ty&&>(_Val);

  00009	8b 45 08	 mov	 eax, DWORD PTR __Val$[ebp]
  0000c	8b 08		 mov	 ecx, DWORD PTR [eax]
  0000e	89 4d fc	 mov	 DWORD PTR __Old_val$[ebp], ecx

; 600  :     _Val         = static_cast<_Other&&>(_New_val);

  00011	8b 45 08	 mov	 eax, DWORD PTR __Val$[ebp]
  00014	8b 4d 0c	 mov	 ecx, DWORD PTR __New_val$[ebp]
  00017	8b 11		 mov	 edx, DWORD PTR [ecx]
  00019	89 10		 mov	 DWORD PTR [eax], edx

; 601  :     return _Old_val;

  0001b	8b 45 fc	 mov	 eax, DWORD PTR __Old_val$[ebp]

; 602  : }

  0001e	5f		 pop	 edi
  0001f	5e		 pop	 esi
  00020	5b		 pop	 ebx
  00021	8b e5		 mov	 esp, ebp
  00023	5d		 pop	 ebp
  00024	c3		 ret	 0
??$exchange@PAU?$_Tree_node@U?$pair@$$CBHUNPC_DATA_HELPER@@@std@@PAX@std@@AAPAU12@@std@@YAPAU?$_Tree_node@U?$pair@$$CBHUNPC_DATA_HELPER@@@std@@PAX@0@AAPAU10@0@Z ENDP ; std::exchange<std::_Tree_node<std::pair<int const ,NPC_DATA_HELPER>,void *> *,std::_Tree_node<std::pair<int const ,NPC_DATA_HELPER>,void *> * &>
_TEXT	ENDS
; Function compile flags: /Odtp /ZI
; File C:\Program Files (x86)\Microsoft Visual Studio\2019\Community\VC\Tools\MSVC\14.27.29110\include\map
;	COMDAT ??$_Kfn@$$CBHUNPC_DATA_HELPER@@@?$_Tmap_traits@HUNPC_DATA_HELPER@@U?$less@H@std@@V?$allocator@U?$pair@$$CBHUNPC_DATA_HELPER@@@std@@@3@$0A@@std@@SAABHABU?$pair@$$CBHUNPC_DATA_HELPER@@@1@@Z
_TEXT	SEGMENT
__Val$ = 8						; size = 4
??$_Kfn@$$CBHUNPC_DATA_HELPER@@@?$_Tmap_traits@HUNPC_DATA_HELPER@@U?$less@H@std@@V?$allocator@U?$pair@$$CBHUNPC_DATA_HELPER@@@std@@@3@$0A@@std@@SAABHABU?$pair@$$CBHUNPC_DATA_HELPER@@@1@@Z PROC ; std::_Tmap_traits<int,NPC_DATA_HELPER,std::less<int>,std::allocator<std::pair<int const ,NPC_DATA_HELPER> >,0>::_Kfn<int const ,NPC_DATA_HELPER>, COMDAT

; 68   :     static const _Kty& _Kfn(const pair<_Ty1, _Ty2>& _Val) { // extract key from element value

  00000	55		 push	 ebp
  00001	8b ec		 mov	 ebp, esp
  00003	83 ec 40	 sub	 esp, 64			; 00000040H
  00006	53		 push	 ebx
  00007	56		 push	 esi
  00008	57		 push	 edi

; 69   :         return _Val.first;

  00009	8b 45 08	 mov	 eax, DWORD PTR __Val$[ebp]

; 70   :     }

  0000c	5f		 pop	 edi
  0000d	5e		 pop	 esi
  0000e	5b		 pop	 ebx
  0000f	8b e5		 mov	 esp, ebp
  00011	5d		 pop	 ebp
  00012	c3		 ret	 0
??$_Kfn@$$CBHUNPC_DATA_HELPER@@@?$_Tmap_traits@HUNPC_DATA_HELPER@@U?$less@H@std@@V?$allocator@U?$pair@$$CBHUNPC_DATA_HELPER@@@std@@@3@$0A@@std@@SAABHABU?$pair@$$CBHUNPC_DATA_HELPER@@@1@@Z ENDP ; std::_Tmap_traits<int,NPC_DATA_HELPER,std::less<int>,std::allocator<std::pair<int const ,NPC_DATA_HELPER> >,0>::_Kfn<int const ,NPC_DATA_HELPER>
_TEXT	ENDS
; Function compile flags: /Odtp /ZI
; File C:\Program Files (x86)\Microsoft Visual Studio\2019\Community\VC\Tools\MSVC\14.27.29110\include\utility
;	COMDAT ??$?0V?$_Tree_iterator@V?$_Tree_val@U?$_Tree_simple_types@U?$pair@$$CBHUNPC_DATA_HELPER@@@std@@@std@@@std@@@std@@AB_N$0A@@?$pair@V?$_Tree_iterator@V?$_Tree_val@U?$_Tree_simple_types@U?$pair@$$CBHUNPC_DATA_HELPER@@@std@@@std@@@std@@@std@@_N@std@@QAE@$$QAV?$_Tree_iterator@V?$_Tree_val@U?$_Tree_simple_types@U?$pair@$$CBHUNPC_DATA_HELPER@@@std@@@std@@@std@@@1@AB_N@Z
_TEXT	SEGMENT
_this$ = -4						; size = 4
__Val1$ = 8						; size = 4
__Val2$ = 12						; size = 4
??$?0V?$_Tree_iterator@V?$_Tree_val@U?$_Tree_simple_types@U?$pair@$$CBHUNPC_DATA_HELPER@@@std@@@std@@@std@@@std@@AB_N$0A@@?$pair@V?$_Tree_iterator@V?$_Tree_val@U?$_Tree_simple_types@U?$pair@$$CBHUNPC_DATA_HELPER@@@std@@@std@@@std@@@std@@_N@std@@QAE@$$QAV?$_Tree_iterator@V?$_Tree_val@U?$_Tree_simple_types@U?$pair@$$CBHUNPC_DATA_HELPER@@@std@@@std@@@std@@@1@AB_N@Z PROC ; std::pair<std::_Tree_iterator<std::_Tree_val<std::_Tree_simple_types<std::pair<int const ,NPC_DATA_HELPER> > > >,bool>::pair<std::_Tree_iterator<std::_Tree_val<std::_Tree_simple_types<std::pair<int const ,NPC_DATA_HELPER> > > >,bool><std::_Tree_iterator<std::_Tree_val<std::_Tree_simple_types<std::pair<int const ,NPC_DATA_HELPER> > > >,bool const &,0>, COMDAT
; _this$ = ecx

; 192  :         : first(_STD forward<_Other1>(_Val1)), second(_STD forward<_Other2>(_Val2)) {}

  00000	55		 push	 ebp
  00001	8b ec		 mov	 ebp, esp
  00003	83 ec 44	 sub	 esp, 68			; 00000044H
  00006	53		 push	 ebx
  00007	56		 push	 esi
  00008	57		 push	 edi
  00009	89 4d fc	 mov	 DWORD PTR _this$[ebp], ecx
  0000c	8b 45 08	 mov	 eax, DWORD PTR __Val1$[ebp]
  0000f	50		 push	 eax
  00010	e8 00 00 00 00	 call	 ??$forward@V?$_Tree_iterator@V?$_Tree_val@U?$_Tree_simple_types@U?$pair@$$CBHUNPC_DATA_HELPER@@@std@@@std@@@std@@@std@@@std@@YA$$QAV?$_Tree_iterator@V?$_Tree_val@U?$_Tree_simple_types@U?$pair@$$CBHUNPC_DATA_HELPER@@@std@@@std@@@std@@@0@AAV10@@Z ; std::forward<std::_Tree_iterator<std::_Tree_val<std::_Tree_simple_types<std::pair<int const ,NPC_DATA_HELPER> > > > >
  00015	83 c4 04	 add	 esp, 4
  00018	8b 08		 mov	 ecx, DWORD PTR [eax]
  0001a	8b 55 fc	 mov	 edx, DWORD PTR _this$[ebp]
  0001d	89 0a		 mov	 DWORD PTR [edx], ecx
  0001f	8b 45 0c	 mov	 eax, DWORD PTR __Val2$[ebp]
  00022	50		 push	 eax
  00023	e8 00 00 00 00	 call	 ??$forward@AB_N@std@@YAAB_NAB_N@Z ; std::forward<bool const &>
  00028	83 c4 04	 add	 esp, 4
  0002b	8b 4d fc	 mov	 ecx, DWORD PTR _this$[ebp]
  0002e	8a 10		 mov	 dl, BYTE PTR [eax]
  00030	88 51 04	 mov	 BYTE PTR [ecx+4], dl
  00033	8b 45 fc	 mov	 eax, DWORD PTR _this$[ebp]
  00036	5f		 pop	 edi
  00037	5e		 pop	 esi
  00038	5b		 pop	 ebx
  00039	8b e5		 mov	 esp, ebp
  0003b	5d		 pop	 ebp
  0003c	c2 08 00	 ret	 8
??$?0V?$_Tree_iterator@V?$_Tree_val@U?$_Tree_simple_types@U?$pair@$$CBHUNPC_DATA_HELPER@@@std@@@std@@@std@@@std@@AB_N$0A@@?$pair@V?$_Tree_iterator@V?$_Tree_val@U?$_Tree_simple_types@U?$pair@$$CBHUNPC_DATA_HELPER@@@std@@@std@@@std@@@std@@_N@std@@QAE@$$QAV?$_Tree_iterator@V?$_Tree_val@U?$_Tree_simple_types@U?$pair@$$CBHUNPC_DATA_HELPER@@@std@@@std@@@std@@@1@AB_N@Z ENDP ; std::pair<std::_Tree_iterator<std::_Tree_val<std::_Tree_simple_types<std::pair<int const ,NPC_DATA_HELPER> > > >,bool>::pair<std::_Tree_iterator<std::_Tree_val<std::_Tree_simple_types<std::pair<int const ,NPC_DATA_HELPER> > > >,bool><std::_Tree_iterator<std::_Tree_val<std::_Tree_simple_types<std::pair<int const ,NPC_DATA_HELPER> > > >,bool const &,0>
_TEXT	ENDS
; Function compile flags: /Odtp /ZI
; File C:\Program Files (x86)\Microsoft Visual Studio\2019\Community\VC\Tools\MSVC\14.27.29110\include\xtree
;	COMDAT ??$_Emplace@U?$pair@HUNPC_DATA_HELPER@@@std@@@?$_Tree@V?$_Tmap_traits@HUNPC_DATA_HELPER@@U?$less@H@std@@V?$allocator@U?$pair@$$CBHUNPC_DATA_HELPER@@@std@@@3@$0A@@std@@@std@@IAE?AU?$pair@PAU?$_Tree_node@U?$pair@$$CBHUNPC_DATA_HELPER@@@std@@PAX@std@@_N@1@$$QAU?$pair@HUNPC_DATA_HELPER@@@1@@Z
_TEXT	SEGMENT
tv141 = -128						; size = 4
$T1 = -124						; size = 4
$T2 = -117						; size = 1
$T3 = -116						; size = 8
$T4 = -105						; size = 1
$T5 = -104						; size = 12
__Keyval$6 = -28					; size = 4
__Inserted$ = -24					; size = 4
__Loc$ = -20						; size = 12
__Scary$ = -8						; size = 4
_this$ = -4						; size = 4
___$ReturnUdt$ = 8					; size = 4
_<_Vals_0>$ = 12					; size = 4
??$_Emplace@U?$pair@HUNPC_DATA_HELPER@@@std@@@?$_Tree@V?$_Tmap_traits@HUNPC_DATA_HELPER@@U?$less@H@std@@V?$allocator@U?$pair@$$CBHUNPC_DATA_HELPER@@@std@@@3@$0A@@std@@@std@@IAE?AU?$pair@PAU?$_Tree_node@U?$pair@$$CBHUNPC_DATA_HELPER@@@std@@PAX@std@@_N@1@$$QAU?$pair@HUNPC_DATA_HELPER@@@1@@Z PROC ; std::_Tree<std::_Tmap_traits<int,NPC_DATA_HELPER,std::less<int>,std::allocator<std::pair<int const ,NPC_DATA_HELPER> >,0> >::_Emplace<std::pair<int,NPC_DATA_HELPER> >, COMDAT
; _this$ = ecx

; 1002 :     pair<_Nodeptr, bool> _Emplace(_Valtys&&... _Vals) {

  00000	55		 push	 ebp
  00001	8b ec		 mov	 ebp, esp
  00003	81 ec 80 00 00
	00		 sub	 esp, 128		; 00000080H
  00009	53		 push	 ebx
  0000a	56		 push	 esi
  0000b	57		 push	 edi
  0000c	89 4d fc	 mov	 DWORD PTR _this$[ebp], ecx

; 1003 :         using _In_place_key_extractor = typename _Traits::template _In_place_key_extractor<_Remove_cvref_t<_Valtys>...>;
; 1004 :         const auto _Scary             = _Get_scary();

  0000f	8b 4d fc	 mov	 ecx, DWORD PTR _this$[ebp]
  00012	e8 00 00 00 00	 call	 ?_Get_scary@?$_Tree@V?$_Tmap_traits@HUNPC_DATA_HELPER@@U?$less@H@std@@V?$allocator@U?$pair@$$CBHUNPC_DATA_HELPER@@@std@@@3@$0A@@std@@@std@@IAEPAV?$_Tree_val@U?$_Tree_simple_types@U?$pair@$$CBHUNPC_DATA_HELPER@@@std@@@std@@@2@XZ ; std::_Tree<std::_Tmap_traits<int,NPC_DATA_HELPER,std::less<int>,std::allocator<std::pair<int const ,NPC_DATA_HELPER> >,0> >::_Get_scary
  00017	89 45 f8	 mov	 DWORD PTR __Scary$[ebp], eax

; 1005 :         _Tree_find_result<_Nodeptr> _Loc;
; 1006 :         _Nodeptr _Inserted;
; 1007 :         if constexpr (!_Multi && _In_place_key_extractor::_Extractable) {
; 1008 :             const auto& _Keyval = _In_place_key_extractor::_Extract(_Vals...);

  0001a	8b 45 0c	 mov	 eax, DWORD PTR _<_Vals_0>$[ebp]
  0001d	50		 push	 eax
  0001e	e8 00 00 00 00	 call	 ?_Extract@?$_In_place_key_extract_map@HU?$pair@HUNPC_DATA_HELPER@@@std@@@std@@SAABHABU?$pair@HUNPC_DATA_HELPER@@@2@@Z ; std::_In_place_key_extract_map<int,std::pair<int,NPC_DATA_HELPER> >::_Extract
  00023	83 c4 04	 add	 esp, 4
  00026	89 45 e4	 mov	 DWORD PTR __Keyval$6[ebp], eax

; 1009 :             _Loc                = _Find_lower_bound(_Keyval);

  00029	8b 45 e4	 mov	 eax, DWORD PTR __Keyval$6[ebp]
  0002c	50		 push	 eax
  0002d	8d 4d 98	 lea	 ecx, DWORD PTR $T5[ebp]
  00030	51		 push	 ecx
  00031	8b 4d fc	 mov	 ecx, DWORD PTR _this$[ebp]
  00034	e8 00 00 00 00	 call	 ??$_Find_lower_bound@H@?$_Tree@V?$_Tmap_traits@HUNPC_DATA_HELPER@@U?$less@H@std@@V?$allocator@U?$pair@$$CBHUNPC_DATA_HELPER@@@std@@@3@$0A@@std@@@std@@IBE?AU?$_Tree_find_result@PAU?$_Tree_node@U?$pair@$$CBHUNPC_DATA_HELPER@@@std@@PAX@std@@@1@ABH@Z ; std::_Tree<std::_Tmap_traits<int,NPC_DATA_HELPER,std::less<int>,std::allocator<std::pair<int const ,NPC_DATA_HELPER> >,0> >::_Find_lower_bound<int>
  00039	8b 10		 mov	 edx, DWORD PTR [eax]
  0003b	89 55 ec	 mov	 DWORD PTR __Loc$[ebp], edx
  0003e	8b 48 04	 mov	 ecx, DWORD PTR [eax+4]
  00041	89 4d f0	 mov	 DWORD PTR __Loc$[ebp+4], ecx
  00044	8b 50 08	 mov	 edx, DWORD PTR [eax+8]
  00047	89 55 f4	 mov	 DWORD PTR __Loc$[ebp+8], edx

; 1010 :             if (_Lower_bound_duplicate(_Loc._Bound, _Keyval)) {

  0004a	8b 45 e4	 mov	 eax, DWORD PTR __Keyval$6[ebp]
  0004d	50		 push	 eax
  0004e	8b 4d f4	 mov	 ecx, DWORD PTR __Loc$[ebp+8]
  00051	51		 push	 ecx
  00052	8b 4d fc	 mov	 ecx, DWORD PTR _this$[ebp]
  00055	e8 00 00 00 00	 call	 ??$_Lower_bound_duplicate@H@?$_Tree@V?$_Tmap_traits@HUNPC_DATA_HELPER@@U?$less@H@std@@V?$allocator@U?$pair@$$CBHUNPC_DATA_HELPER@@@std@@@3@$0A@@std@@@std@@IBE_NQAU?$_Tree_node@U?$pair@$$CBHUNPC_DATA_HELPER@@@std@@PAX@1@ABH@Z ; std::_Tree<std::_Tmap_traits<int,NPC_DATA_HELPER,std::less<int>,std::allocator<std::pair<int const ,NPC_DATA_HELPER> >,0> >::_Lower_bound_duplicate<int>
  0005a	0f b6 d0	 movzx	 edx, al
  0005d	85 d2		 test	 edx, edx
  0005f	74 19		 je	 SHORT $LN2@Emplace

; 1011 :                 return {_Loc._Bound, false};

  00061	c6 45 97 00	 mov	 BYTE PTR $T4[ebp], 0
  00065	8d 45 97	 lea	 eax, DWORD PTR $T4[ebp]
  00068	50		 push	 eax
  00069	8d 4d f4	 lea	 ecx, DWORD PTR __Loc$[ebp+8]
  0006c	51		 push	 ecx
  0006d	8b 4d 08	 mov	 ecx, DWORD PTR ___$ReturnUdt$[ebp]
  00070	e8 00 00 00 00	 call	 ??$?0AAPAU?$_Tree_node@U?$pair@$$CBHUNPC_DATA_HELPER@@@std@@PAX@std@@_N$0A@@?$pair@PAU?$_Tree_node@U?$pair@$$CBHUNPC_DATA_HELPER@@@std@@PAX@std@@_N@std@@QAE@AAPAU?$_Tree_node@U?$pair@$$CBHUNPC_DATA_HELPER@@@std@@PAX@1@$$QA_N@Z ; std::pair<std::_Tree_node<std::pair<int const ,NPC_DATA_HELPER>,void *> *,bool>::pair<std::_Tree_node<std::pair<int const ,NPC_DATA_HELPER>,void *> *,bool><std::_Tree_node<std::pair<int const ,NPC_DATA_HELPER>,void *> * &,bool,0>
  00075	8b 45 08	 mov	 eax, DWORD PTR ___$ReturnUdt$[ebp]
  00078	eb 70		 jmp	 SHORT $LN1@Emplace
$LN2@Emplace:

; 1012 :             }
; 1013 : 
; 1014 :             _Check_grow_by_1();

  0007a	8b 4d fc	 mov	 ecx, DWORD PTR _this$[ebp]
  0007d	e8 00 00 00 00	 call	 ?_Check_grow_by_1@?$_Tree@V?$_Tmap_traits@HUNPC_DATA_HELPER@@U?$less@H@std@@V?$allocator@U?$pair@$$CBHUNPC_DATA_HELPER@@@std@@@3@$0A@@std@@@std@@IAEXXZ ; std::_Tree<std::_Tmap_traits<int,NPC_DATA_HELPER,std::less<int>,std::allocator<std::pair<int const ,NPC_DATA_HELPER> >,0> >::_Check_grow_by_1

; 1015 :             _Inserted = _Tree_temp_node<_Alnode>(_Getal(), _Scary->_Myhead, _STD forward<_Valtys>(_Vals)...)._Release();

  00082	8b 45 0c	 mov	 eax, DWORD PTR _<_Vals_0>$[ebp]
  00085	50		 push	 eax
  00086	e8 00 00 00 00	 call	 ??$forward@U?$pair@HUNPC_DATA_HELPER@@@std@@@std@@YA$$QAU?$pair@HUNPC_DATA_HELPER@@@0@AAU10@@Z ; std::forward<std::pair<int,NPC_DATA_HELPER> >
  0008b	83 c4 04	 add	 esp, 4
  0008e	50		 push	 eax
  0008f	8b 4d f8	 mov	 ecx, DWORD PTR __Scary$[ebp]
  00092	8b 11		 mov	 edx, DWORD PTR [ecx]
  00094	52		 push	 edx
  00095	8b 4d fc	 mov	 ecx, DWORD PTR _this$[ebp]
  00098	e8 00 00 00 00	 call	 ?_Getal@?$_Tree@V?$_Tmap_traits@HUNPC_DATA_HELPER@@U?$less@H@std@@V?$allocator@U?$pair@$$CBHUNPC_DATA_HELPER@@@std@@@3@$0A@@std@@@std@@IAEAAV?$allocator@U?$_Tree_node@U?$pair@$$CBHUNPC_DATA_HELPER@@@std@@PAX@std@@@2@XZ ; std::_Tree<std::_Tmap_traits<int,NPC_DATA_HELPER,std::less<int>,std::allocator<std::pair<int const ,NPC_DATA_HELPER> >,0> >::_Getal
  0009d	50		 push	 eax
  0009e	8d 4d 8c	 lea	 ecx, DWORD PTR $T3[ebp]
  000a1	e8 00 00 00 00	 call	 ??$?0U?$pair@HUNPC_DATA_HELPER@@@std@@@?$_Tree_temp_node@V?$allocator@U?$_Tree_node@U?$pair@$$CBHUNPC_DATA_HELPER@@@std@@PAX@std@@@std@@@std@@QAE@AAV?$allocator@U?$_Tree_node@U?$pair@$$CBHUNPC_DATA_HELPER@@@std@@PAX@std@@@1@PAU?$_Tree_node@U?$pair@$$CBHUNPC_DATA_HELPER@@@std@@PAX@1@$$QAU?$pair@HUNPC_DATA_HELPER@@@1@@Z ; std::_Tree_temp_node<std::allocator<std::_Tree_node<std::pair<int const ,NPC_DATA_HELPER>,void *> > >::_Tree_temp_node<std::allocator<std::_Tree_node<std::pair<int const ,NPC_DATA_HELPER>,void *> > ><std::pair<int,NPC_DATA_HELPER> >
  000a6	89 45 80	 mov	 DWORD PTR tv141[ebp], eax
  000a9	8b 4d 80	 mov	 ecx, DWORD PTR tv141[ebp]
  000ac	e8 00 00 00 00	 call	 ?_Release@?$_Alloc_construct_ptr@V?$allocator@U?$_Tree_node@U?$pair@$$CBHUNPC_DATA_HELPER@@@std@@PAX@std@@@std@@@std@@QAEPAU?$_Tree_node@U?$pair@$$CBHUNPC_DATA_HELPER@@@std@@PAX@2@XZ ; std::_Alloc_construct_ptr<std::allocator<std::_Tree_node<std::pair<int const ,NPC_DATA_HELPER>,void *> > >::_Release
  000b1	89 45 e8	 mov	 DWORD PTR __Inserted$[ebp], eax
  000b4	8d 4d 8c	 lea	 ecx, DWORD PTR $T3[ebp]
  000b7	e8 00 00 00 00	 call	 ??1?$_Tree_temp_node@V?$allocator@U?$_Tree_node@U?$pair@$$CBHUNPC_DATA_HELPER@@@std@@PAX@std@@@std@@@std@@QAE@XZ ; std::_Tree_temp_node<std::allocator<std::_Tree_node<std::pair<int const ,NPC_DATA_HELPER>,void *> > >::~_Tree_temp_node<std::allocator<std::_Tree_node<std::pair<int const ,NPC_DATA_HELPER>,void *> > >

; 1016 :             // nothrow hereafter
; 1017 :         } else {
; 1018 :             _Tree_temp_node<_Alnode> _Newnode(_Getal(), _Scary->_Myhead, _STD forward<_Valtys>(_Vals)...);
; 1019 :             const auto& _Keyval = _Traits::_Kfn(_Newnode._Ptr->_Myval);
; 1020 :             if constexpr (_Multi) { // duplicate check if unique
; 1021 :                 _Loc = _Find_upper_bound(_Keyval);
; 1022 :             } else {
; 1023 :                 _Loc = _Find_lower_bound(_Keyval);
; 1024 :                 if (_Lower_bound_duplicate(_Loc._Bound, _Keyval)) {
; 1025 :                     return {_Loc._Bound, false};
; 1026 :                 }
; 1027 :             }
; 1028 : 
; 1029 :             _Check_grow_by_1();
; 1030 :             // nothrow hereafter
; 1031 :             _Inserted = _Newnode._Release();
; 1032 :         }
; 1033 : 
; 1034 :         return {_Scary->_Insert_node(_Loc._Location, _Inserted), true};

  000bc	8b 45 e8	 mov	 eax, DWORD PTR __Inserted$[ebp]
  000bf	50		 push	 eax
  000c0	8b 4d f0	 mov	 ecx, DWORD PTR __Loc$[ebp+4]
  000c3	51		 push	 ecx
  000c4	8b 55 ec	 mov	 edx, DWORD PTR __Loc$[ebp]
  000c7	52		 push	 edx
  000c8	8b 4d f8	 mov	 ecx, DWORD PTR __Scary$[ebp]
  000cb	e8 00 00 00 00	 call	 ?_Insert_node@?$_Tree_val@U?$_Tree_simple_types@U?$pair@$$CBHUNPC_DATA_HELPER@@@std@@@std@@@std@@QAEPAU?$_Tree_node@U?$pair@$$CBHUNPC_DATA_HELPER@@@std@@PAX@2@U?$_Tree_id@PAU?$_Tree_node@U?$pair@$$CBHUNPC_DATA_HELPER@@@std@@PAX@std@@@2@QAU32@@Z ; std::_Tree_val<std::_Tree_simple_types<std::pair<int const ,NPC_DATA_HELPER> > >::_Insert_node
  000d0	89 45 84	 mov	 DWORD PTR $T1[ebp], eax
  000d3	c6 45 8b 01	 mov	 BYTE PTR $T2[ebp], 1
  000d7	8d 45 8b	 lea	 eax, DWORD PTR $T2[ebp]
  000da	50		 push	 eax
  000db	8d 4d 84	 lea	 ecx, DWORD PTR $T1[ebp]
  000de	51		 push	 ecx
  000df	8b 4d 08	 mov	 ecx, DWORD PTR ___$ReturnUdt$[ebp]
  000e2	e8 00 00 00 00	 call	 ??$?0PAU?$_Tree_node@U?$pair@$$CBHUNPC_DATA_HELPER@@@std@@PAX@std@@_N$0A@@?$pair@PAU?$_Tree_node@U?$pair@$$CBHUNPC_DATA_HELPER@@@std@@PAX@std@@_N@std@@QAE@$$QAPAU?$_Tree_node@U?$pair@$$CBHUNPC_DATA_HELPER@@@std@@PAX@1@$$QA_N@Z ; std::pair<std::_Tree_node<std::pair<int const ,NPC_DATA_HELPER>,void *> *,bool>::pair<std::_Tree_node<std::pair<int const ,NPC_DATA_HELPER>,void *> *,bool><std::_Tree_node<std::pair<int const ,NPC_DATA_HELPER>,void *> *,bool,0>
  000e7	8b 45 08	 mov	 eax, DWORD PTR ___$ReturnUdt$[ebp]
$LN1@Emplace:

; 1035 :     }

  000ea	5f		 pop	 edi
  000eb	5e		 pop	 esi
  000ec	5b		 pop	 ebx
  000ed	8b e5		 mov	 esp, ebp
  000ef	5d		 pop	 ebp
  000f0	c2 08 00	 ret	 8
??$_Emplace@U?$pair@HUNPC_DATA_HELPER@@@std@@@?$_Tree@V?$_Tmap_traits@HUNPC_DATA_HELPER@@U?$less@H@std@@V?$allocator@U?$pair@$$CBHUNPC_DATA_HELPER@@@std@@@3@$0A@@std@@@std@@IAE?AU?$pair@PAU?$_Tree_node@U?$pair@$$CBHUNPC_DATA_HELPER@@@std@@PAX@std@@_N@1@$$QAU?$pair@HUNPC_DATA_HELPER@@@1@@Z ENDP ; std::_Tree<std::_Tmap_traits<int,NPC_DATA_HELPER,std::less<int>,std::allocator<std::pair<int const ,NPC_DATA_HELPER> >,0> >::_Emplace<std::pair<int,NPC_DATA_HELPER> >
_TEXT	ENDS
; Function compile flags: /Odtp /ZI
; File C:\Program Files (x86)\Microsoft Visual Studio\2019\Community\VC\Tools\MSVC\14.27.29110\include\utility
;	COMDAT ??$swap@D$0A@@std@@YAXAAD0@Z
_TEXT	SEGMENT
__Tmp$ = -1						; size = 1
__Left$ = 8						; size = 4
__Right$ = 12						; size = 4
??$swap@D$0A@@std@@YAXAAD0@Z PROC			; std::swap<char,0>, COMDAT

; 105  :     is_nothrow_move_constructible_v<_Ty>&& is_nothrow_move_assignable_v<_Ty>) {

  00000	55		 push	 ebp
  00001	8b ec		 mov	 ebp, esp
  00003	83 ec 44	 sub	 esp, 68			; 00000044H
  00006	53		 push	 ebx
  00007	56		 push	 esi
  00008	57		 push	 edi

; 106  :     _Ty _Tmp = _STD move(_Left);

  00009	8b 45 08	 mov	 eax, DWORD PTR __Left$[ebp]
  0000c	50		 push	 eax
  0000d	e8 00 00 00 00	 call	 ??$move@AAD@std@@YA$$QADAAD@Z ; std::move<char &>
  00012	83 c4 04	 add	 esp, 4
  00015	8a 08		 mov	 cl, BYTE PTR [eax]
  00017	88 4d ff	 mov	 BYTE PTR __Tmp$[ebp], cl

; 107  :     _Left    = _STD move(_Right);

  0001a	8b 45 0c	 mov	 eax, DWORD PTR __Right$[ebp]
  0001d	50		 push	 eax
  0001e	e8 00 00 00 00	 call	 ??$move@AAD@std@@YA$$QADAAD@Z ; std::move<char &>
  00023	83 c4 04	 add	 esp, 4
  00026	8b 4d 08	 mov	 ecx, DWORD PTR __Left$[ebp]
  00029	8a 10		 mov	 dl, BYTE PTR [eax]
  0002b	88 11		 mov	 BYTE PTR [ecx], dl

; 108  :     _Right   = _STD move(_Tmp);

  0002d	8d 45 ff	 lea	 eax, DWORD PTR __Tmp$[ebp]
  00030	50		 push	 eax
  00031	e8 00 00 00 00	 call	 ??$move@AAD@std@@YA$$QADAAD@Z ; std::move<char &>
  00036	83 c4 04	 add	 esp, 4
  00039	8b 4d 0c	 mov	 ecx, DWORD PTR __Right$[ebp]
  0003c	8a 10		 mov	 dl, BYTE PTR [eax]
  0003e	88 11		 mov	 BYTE PTR [ecx], dl

; 109  : }

  00040	5f		 pop	 edi
  00041	5e		 pop	 esi
  00042	5b		 pop	 ebx
  00043	8b e5		 mov	 esp, ebp
  00045	5d		 pop	 ebp
  00046	c3		 ret	 0
??$swap@D$0A@@std@@YAXAAD0@Z ENDP			; std::swap<char,0>
_TEXT	ENDS
; Function compile flags: /Odtp /ZI
; File C:\Program Files (x86)\Microsoft Visual Studio\2019\Community\VC\Tools\MSVC\14.27.29110\include\xmemory
;	COMDAT ??$_Get_size_of_n@$0CI@@std@@YAII@Z
_TEXT	SEGMENT
__Max_possible$1 = -8					; size = 4
__Overflow_is_possible$ = -1				; size = 1
__Count$ = 8						; size = 4
??$_Get_size_of_n@$0CI@@std@@YAII@Z PROC		; std::_Get_size_of_n<40>, COMDAT

; 55   : _NODISCARD constexpr size_t _Get_size_of_n(const size_t _Count) {

  00000	55		 push	 ebp
  00001	8b ec		 mov	 ebp, esp
  00003	83 ec 48	 sub	 esp, 72			; 00000048H
  00006	53		 push	 ebx
  00007	56		 push	 esi
  00008	57		 push	 edi

; 56   :     constexpr bool _Overflow_is_possible = _Ty_size > 1;

  00009	c6 45 ff 01	 mov	 BYTE PTR __Overflow_is_possible$[ebp], 1

; 57   : 
; 58   :     if _CONSTEXPR_IF (_Overflow_is_possible) {
; 59   :         constexpr size_t _Max_possible = static_cast<size_t>(-1) / _Ty_size;

  0000d	c7 45 f8 66 66
	66 06		 mov	 DWORD PTR __Max_possible$1[ebp], 107374182 ; 06666666H

; 60   :         if (_Count > _Max_possible) {

  00014	81 7d 08 66 66
	66 06		 cmp	 DWORD PTR __Count$[ebp], 107374182 ; 06666666H
  0001b	76 05		 jbe	 SHORT $LN2@Get_size_o

; 61   :             _Throw_bad_array_new_length(); // multiply overflow

  0001d	e8 00 00 00 00	 call	 ?_Throw_bad_array_new_length@std@@YAXXZ ; std::_Throw_bad_array_new_length
$LN2@Get_size_o:

; 62   :         }
; 63   :     }
; 64   : 
; 65   :     return _Count * _Ty_size;

  00022	6b 45 08 28	 imul	 eax, DWORD PTR __Count$[ebp], 40
$LN3@Get_size_o:

; 66   : }

  00026	5f		 pop	 edi
  00027	5e		 pop	 esi
  00028	5b		 pop	 ebx
  00029	8b e5		 mov	 esp, ebp
  0002b	5d		 pop	 ebp
  0002c	c3		 ret	 0
??$_Get_size_of_n@$0CI@@std@@YAII@Z ENDP		; std::_Get_size_of_n<40>
_TEXT	ENDS
; Function compile flags: /Odtp /ZI
; File C:\Program Files (x86)\Microsoft Visual Studio\2019\Community\VC\Tools\MSVC\14.27.29110\include\xtree
;	COMDAT ??$_Freenode@V?$allocator@U?$_Tree_node@U?$pair@$$CBHUNPC_DATA_HELPER@@@std@@PAX@std@@@std@@@?$_Tree_node@U?$pair@$$CBHUNPC_DATA_HELPER@@@std@@PAX@std@@SAXAAV?$allocator@U?$_Tree_node@U?$pair@$$CBHUNPC_DATA_HELPER@@@std@@PAX@std@@@1@PAU01@@Z
_TEXT	SEGMENT
__$EHRec$ = -12						; size = 12
__Al$ = 8						; size = 4
__Ptr$ = 12						; size = 4
??$_Freenode@V?$allocator@U?$_Tree_node@U?$pair@$$CBHUNPC_DATA_HELPER@@@std@@PAX@std@@@std@@@?$_Tree_node@U?$pair@$$CBHUNPC_DATA_HELPER@@@std@@PAX@std@@SAXAAV?$allocator@U?$_Tree_node@U?$pair@$$CBHUNPC_DATA_HELPER@@@std@@PAX@std@@@1@PAU01@@Z PROC ; std::_Tree_node<std::pair<int const ,NPC_DATA_HELPER>,void *>::_Freenode<std::allocator<std::_Tree_node<std::pair<int const ,NPC_DATA_HELPER>,void *> > >, COMDAT

; 377  :     static void _Freenode(_Alloc& _Al, _Nodeptr _Ptr) noexcept {

  00000	55		 push	 ebp
  00001	8b ec		 mov	 ebp, esp
  00003	6a ff		 push	 -1
  00005	68 00 00 00 00	 push	 __ehhandler$??$_Freenode@V?$allocator@U?$_Tree_node@U?$pair@$$CBHUNPC_DATA_HELPER@@@std@@PAX@std@@@std@@@?$_Tree_node@U?$pair@$$CBHUNPC_DATA_HELPER@@@std@@PAX@std@@SAXAAV?$allocator@U?$_Tree_node@U?$pair@$$CBHUNPC_DATA_HELPER@@@std@@PAX@std@@@1@PAU01@@Z
  0000a	64 a1 00 00 00
	00		 mov	 eax, DWORD PTR fs:0
  00010	50		 push	 eax
  00011	83 ec 40	 sub	 esp, 64			; 00000040H
  00014	53		 push	 ebx
  00015	56		 push	 esi
  00016	57		 push	 edi
  00017	a1 00 00 00 00	 mov	 eax, DWORD PTR ___security_cookie
  0001c	33 c5		 xor	 eax, ebp
  0001e	50		 push	 eax
  0001f	8d 45 f4	 lea	 eax, DWORD PTR __$EHRec$[ebp]
  00022	64 a3 00 00 00
	00		 mov	 DWORD PTR fs:0, eax

; 378  :         static_assert(is_same_v<typename _Alloc::value_type, _Tree_node>, "Bad _Freenode call");
; 379  :         allocator_traits<_Alloc>::destroy(_Al, _STD addressof(_Ptr->_Myval));

  00028	8b 45 0c	 mov	 eax, DWORD PTR __Ptr$[ebp]
  0002b	83 c0 10	 add	 eax, 16			; 00000010H
  0002e	50		 push	 eax
  0002f	e8 00 00 00 00	 call	 ??$addressof@U?$pair@$$CBHUNPC_DATA_HELPER@@@std@@@std@@YAPAU?$pair@$$CBHUNPC_DATA_HELPER@@@0@AAU10@@Z ; std::addressof<std::pair<int const ,NPC_DATA_HELPER> >
  00034	83 c4 04	 add	 esp, 4
  00037	50		 push	 eax
  00038	8b 4d 08	 mov	 ecx, DWORD PTR __Al$[ebp]
  0003b	51		 push	 ecx
  0003c	e8 00 00 00 00	 call	 ??$destroy@U?$pair@$$CBHUNPC_DATA_HELPER@@@std@@@?$_Default_allocator_traits@V?$allocator@U?$_Tree_node@U?$pair@$$CBHUNPC_DATA_HELPER@@@std@@PAX@std@@@std@@@std@@SAXAAV?$allocator@U?$_Tree_node@U?$pair@$$CBHUNPC_DATA_HELPER@@@std@@PAX@std@@@1@QAU?$pair@$$CBHUNPC_DATA_HELPER@@@1@@Z ; std::_Default_allocator_traits<std::allocator<std::_Tree_node<std::pair<int const ,NPC_DATA_HELPER>,void *> > >::destroy<std::pair<int const ,NPC_DATA_HELPER> >
  00041	83 c4 08	 add	 esp, 8

; 380  :         _Freenode0(_Al, _Ptr);

  00044	8b 45 0c	 mov	 eax, DWORD PTR __Ptr$[ebp]
  00047	50		 push	 eax
  00048	8b 4d 08	 mov	 ecx, DWORD PTR __Al$[ebp]
  0004b	51		 push	 ecx
  0004c	e8 00 00 00 00	 call	 ??$_Freenode0@V?$allocator@U?$_Tree_node@U?$pair@$$CBHUNPC_DATA_HELPER@@@std@@PAX@std@@@std@@@?$_Tree_node@U?$pair@$$CBHUNPC_DATA_HELPER@@@std@@PAX@std@@SAXAAV?$allocator@U?$_Tree_node@U?$pair@$$CBHUNPC_DATA_HELPER@@@std@@PAX@std@@@1@PAU01@@Z ; std::_Tree_node<std::pair<int const ,NPC_DATA_HELPER>,void *>::_Freenode0<std::allocator<std::_Tree_node<std::pair<int const ,NPC_DATA_HELPER>,void *> > >
  00051	83 c4 08	 add	 esp, 8

; 381  :     }

  00054	8b 4d f4	 mov	 ecx, DWORD PTR __$EHRec$[ebp]
  00057	64 89 0d 00 00
	00 00		 mov	 DWORD PTR fs:0, ecx
  0005e	59		 pop	 ecx
  0005f	5f		 pop	 edi
  00060	5e		 pop	 esi
  00061	5b		 pop	 ebx
  00062	8b e5		 mov	 esp, ebp
  00064	5d		 pop	 ebp
  00065	c3		 ret	 0
  00066	cc		 int	 3
  00067	cc		 int	 3
  00068	cc		 int	 3
  00069	cc		 int	 3
  0006a	cc		 int	 3
_TEXT	ENDS
;	COMDAT text$x
text$x	SEGMENT
__ehhandler$??$_Freenode@V?$allocator@U?$_Tree_node@U?$pair@$$CBHUNPC_DATA_HELPER@@@std@@PAX@std@@@std@@@?$_Tree_node@U?$pair@$$CBHUNPC_DATA_HELPER@@@std@@PAX@std@@SAXAAV?$allocator@U?$_Tree_node@U?$pair@$$CBHUNPC_DATA_HELPER@@@std@@PAX@std@@@1@PAU01@@Z:
  00000	90		 npad	 1
  00001	90		 npad	 1
  00002	8b 54 24 08	 mov	 edx, DWORD PTR [esp+8]
  00006	8d 42 0c	 lea	 eax, DWORD PTR [edx+12]
  00009	8b 4a b0	 mov	 ecx, DWORD PTR [edx-80]
  0000c	33 c8		 xor	 ecx, eax
  0000e	e8 00 00 00 00	 call	 @__security_check_cookie@4
  00013	b8 00 00 00 00	 mov	 eax, OFFSET __ehfuncinfo$??$_Freenode@V?$allocator@U?$_Tree_node@U?$pair@$$CBHUNPC_DATA_HELPER@@@std@@PAX@std@@@std@@@?$_Tree_node@U?$pair@$$CBHUNPC_DATA_HELPER@@@std@@PAX@std@@SAXAAV?$allocator@U?$_Tree_node@U?$pair@$$CBHUNPC_DATA_HELPER@@@std@@PAX@std@@@1@PAU01@@Z
  00018	e9 00 00 00 00	 jmp	 ___CxxFrameHandler3
text$x	ENDS
??$_Freenode@V?$allocator@U?$_Tree_node@U?$pair@$$CBHUNPC_DATA_HELPER@@@std@@PAX@std@@@std@@@?$_Tree_node@U?$pair@$$CBHUNPC_DATA_HELPER@@@std@@PAX@std@@SAXAAV?$allocator@U?$_Tree_node@U?$pair@$$CBHUNPC_DATA_HELPER@@@std@@PAX@std@@@1@PAU01@@Z ENDP ; std::_Tree_node<std::pair<int const ,NPC_DATA_HELPER>,void *>::_Freenode<std::allocator<std::_Tree_node<std::pair<int const ,NPC_DATA_HELPER>,void *> > >
; Function compile flags: /Odtp /ZI
; File C:\Program Files (x86)\Microsoft Visual Studio\2019\Community\VC\Tools\MSVC\14.27.29110\include\xmemory
;	COMDAT ??$_Construct_in_place@PAU?$_Tree_node@U?$pair@$$CBHUNPC_DATA_HELPER@@@std@@PAX@std@@ABQAU12@@std@@YAXAAPAU?$_Tree_node@U?$pair@$$CBHUNPC_DATA_HELPER@@@std@@PAX@0@ABQAU10@@Z
_TEXT	SEGMENT
$T1 = -68						; size = 4
__Obj$ = 8						; size = 4
_<_Args_0>$ = 12					; size = 4
??$_Construct_in_place@PAU?$_Tree_node@U?$pair@$$CBHUNPC_DATA_HELPER@@@std@@PAX@std@@ABQAU12@@std@@YAXAAPAU?$_Tree_node@U?$pair@$$CBHUNPC_DATA_HELPER@@@std@@PAX@0@ABQAU10@@Z PROC ; std::_Construct_in_place<std::_Tree_node<std::pair<int const ,NPC_DATA_HELPER>,void *> *,std::_Tree_node<std::pair<int const ,NPC_DATA_HELPER>,void *> * const &>, COMDAT

; 228  : void _Construct_in_place(_Ty& _Obj, _Types&&... _Args) noexcept(is_nothrow_constructible_v<_Ty, _Types...>) {

  00000	55		 push	 ebp
  00001	8b ec		 mov	 ebp, esp
  00003	83 ec 44	 sub	 esp, 68			; 00000044H
  00006	53		 push	 ebx
  00007	56		 push	 esi
  00008	57		 push	 edi

; 229  :     ::new (const_cast<void*>(static_cast<const volatile void*>(_STD addressof(_Obj))))

  00009	8b 45 08	 mov	 eax, DWORD PTR __Obj$[ebp]
  0000c	50		 push	 eax
  0000d	e8 00 00 00 00	 call	 ??$addressof@PAU?$_Tree_node@U?$pair@$$CBHUNPC_DATA_HELPER@@@std@@PAX@std@@@std@@YAPAPAU?$_Tree_node@U?$pair@$$CBHUNPC_DATA_HELPER@@@std@@PAX@0@AAPAU10@@Z ; std::addressof<std::_Tree_node<std::pair<int const ,NPC_DATA_HELPER>,void *> *>
  00012	83 c4 04	 add	 esp, 4
  00015	50		 push	 eax
  00016	6a 04		 push	 4
  00018	e8 00 00 00 00	 call	 ??2@YAPAXIPAX@Z		; operator new
  0001d	83 c4 08	 add	 esp, 8
  00020	89 45 bc	 mov	 DWORD PTR $T1[ebp], eax
  00023	8b 4d 0c	 mov	 ecx, DWORD PTR _<_Args_0>$[ebp]
  00026	51		 push	 ecx
  00027	e8 00 00 00 00	 call	 ??$forward@ABQAU?$_Tree_node@U?$pair@$$CBHUNPC_DATA_HELPER@@@std@@PAX@std@@@std@@YAABQAU?$_Tree_node@U?$pair@$$CBHUNPC_DATA_HELPER@@@std@@PAX@0@ABQAU10@@Z ; std::forward<std::_Tree_node<std::pair<int const ,NPC_DATA_HELPER>,void *> * const &>
  0002c	83 c4 04	 add	 esp, 4
  0002f	8b 55 bc	 mov	 edx, DWORD PTR $T1[ebp]
  00032	8b 00		 mov	 eax, DWORD PTR [eax]
  00034	89 02		 mov	 DWORD PTR [edx], eax

; 230  :         _Ty(_STD forward<_Types>(_Args)...);
; 231  : }

  00036	5f		 pop	 edi
  00037	5e		 pop	 esi
  00038	5b		 pop	 ebx
  00039	8b e5		 mov	 esp, ebp
  0003b	5d		 pop	 ebp
  0003c	c3		 ret	 0
??$_Construct_in_place@PAU?$_Tree_node@U?$pair@$$CBHUNPC_DATA_HELPER@@@std@@PAX@std@@ABQAU12@@std@@YAXAAPAU?$_Tree_node@U?$pair@$$CBHUNPC_DATA_HELPER@@@std@@PAX@0@ABQAU10@@Z ENDP ; std::_Construct_in_place<std::_Tree_node<std::pair<int const ,NPC_DATA_HELPER>,void *> *,std::_Tree_node<std::pair<int const ,NPC_DATA_HELPER>,void *> * const &>
_TEXT	ENDS
; Function compile flags: /Odtp /ZI
; File C:\Program Files (x86)\Microsoft Visual Studio\2019\Community\VC\Tools\MSVC\14.27.29110\include\type_traits
;	COMDAT ??$forward@U_Zero_then_variadic_args_t@std@@@std@@YA$$QAU_Zero_then_variadic_args_t@0@AAU10@@Z
_TEXT	SEGMENT
__Arg$ = 8						; size = 4
??$forward@U_Zero_then_variadic_args_t@std@@@std@@YA$$QAU_Zero_then_variadic_args_t@0@AAU10@@Z PROC ; std::forward<std::_Zero_then_variadic_args_t>, COMDAT

; 1454 :     remove_reference_t<_Ty>& _Arg) noexcept { // forward an lvalue as either an lvalue or an rvalue

  00000	55		 push	 ebp
  00001	8b ec		 mov	 ebp, esp
  00003	83 ec 40	 sub	 esp, 64			; 00000040H
  00006	53		 push	 ebx
  00007	56		 push	 esi
  00008	57		 push	 edi

; 1455 :     return static_cast<_Ty&&>(_Arg);

  00009	8b 45 08	 mov	 eax, DWORD PTR __Arg$[ebp]

; 1456 : }

  0000c	5f		 pop	 edi
  0000d	5e		 pop	 esi
  0000e	5b		 pop	 ebx
  0000f	8b e5		 mov	 esp, ebp
  00011	5d		 pop	 ebp
  00012	c3		 ret	 0
??$forward@U_Zero_then_variadic_args_t@std@@@std@@YA$$QAU_Zero_then_variadic_args_t@0@AAU10@@Z ENDP ; std::forward<std::_Zero_then_variadic_args_t>
_TEXT	ENDS
; Function compile flags: /Odtp /ZI
; File C:\Program Files (x86)\Microsoft Visual Studio\2019\Community\VC\Tools\MSVC\14.27.29110\include\type_traits
;	COMDAT ??$forward@ABU?$less@H@std@@@std@@YAABU?$less@H@0@ABU10@@Z
_TEXT	SEGMENT
__Arg$ = 8						; size = 4
??$forward@ABU?$less@H@std@@@std@@YAABU?$less@H@0@ABU10@@Z PROC ; std::forward<std::less<int> const &>, COMDAT

; 1454 :     remove_reference_t<_Ty>& _Arg) noexcept { // forward an lvalue as either an lvalue or an rvalue

  00000	55		 push	 ebp
  00001	8b ec		 mov	 ebp, esp
  00003	83 ec 40	 sub	 esp, 64			; 00000040H
  00006	53		 push	 ebx
  00007	56		 push	 esi
  00008	57		 push	 edi

; 1455 :     return static_cast<_Ty&&>(_Arg);

  00009	8b 45 08	 mov	 eax, DWORD PTR __Arg$[ebp]

; 1456 : }

  0000c	5f		 pop	 edi
  0000d	5e		 pop	 esi
  0000e	5b		 pop	 ebx
  0000f	8b e5		 mov	 esp, ebp
  00011	5d		 pop	 ebp
  00012	c3		 ret	 0
??$forward@ABU?$less@H@std@@@std@@YAABU?$less@H@0@ABU10@@Z ENDP ; std::forward<std::less<int> const &>
_TEXT	ENDS
; Function compile flags: /Odtp /ZI
; File C:\Program Files (x86)\Microsoft Visual Studio\2019\Community\VC\Tools\MSVC\14.27.29110\include\xtree
;	COMDAT ??$_Freenode0@V?$allocator@U?$_Tree_node@U?$pair@$$CBHUNPC_DATA_HELPER@@@std@@PAX@std@@@std@@@?$_Tree_node@U?$pair@$$CBHUNPC_DATA_HELPER@@@std@@PAX@std@@SAXAAV?$allocator@U?$_Tree_node@U?$pair@$$CBHUNPC_DATA_HELPER@@@std@@PAX@std@@@1@PAU01@@Z
_TEXT	SEGMENT
__$EHRec$ = -12						; size = 12
__Al$ = 8						; size = 4
__Ptr$ = 12						; size = 4
??$_Freenode0@V?$allocator@U?$_Tree_node@U?$pair@$$CBHUNPC_DATA_HELPER@@@std@@PAX@std@@@std@@@?$_Tree_node@U?$pair@$$CBHUNPC_DATA_HELPER@@@std@@PAX@std@@SAXAAV?$allocator@U?$_Tree_node@U?$pair@$$CBHUNPC_DATA_HELPER@@@std@@PAX@std@@@1@PAU01@@Z PROC ; std::_Tree_node<std::pair<int const ,NPC_DATA_HELPER>,void *>::_Freenode0<std::allocator<std::_Tree_node<std::pair<int const ,NPC_DATA_HELPER>,void *> > >, COMDAT

; 368  :     static void _Freenode0(_Alloc& _Al, _Nodeptr _Ptr) noexcept {

  00000	55		 push	 ebp
  00001	8b ec		 mov	 ebp, esp
  00003	6a ff		 push	 -1
  00005	68 00 00 00 00	 push	 __ehhandler$??$_Freenode0@V?$allocator@U?$_Tree_node@U?$pair@$$CBHUNPC_DATA_HELPER@@@std@@PAX@std@@@std@@@?$_Tree_node@U?$pair@$$CBHUNPC_DATA_HELPER@@@std@@PAX@std@@SAXAAV?$allocator@U?$_Tree_node@U?$pair@$$CBHUNPC_DATA_HELPER@@@std@@PAX@std@@@1@PAU01@@Z
  0000a	64 a1 00 00 00
	00		 mov	 eax, DWORD PTR fs:0
  00010	50		 push	 eax
  00011	83 ec 40	 sub	 esp, 64			; 00000040H
  00014	53		 push	 ebx
  00015	56		 push	 esi
  00016	57		 push	 edi
  00017	a1 00 00 00 00	 mov	 eax, DWORD PTR ___security_cookie
  0001c	33 c5		 xor	 eax, ebp
  0001e	50		 push	 eax
  0001f	8d 45 f4	 lea	 eax, DWORD PTR __$EHRec$[ebp]
  00022	64 a3 00 00 00
	00		 mov	 DWORD PTR fs:0, eax

; 369  :         static_assert(is_same_v<typename _Alloc::value_type, _Tree_node>, "Bad _Freenode0 call");
; 370  :         _Destroy_in_place(_Ptr->_Left);

  00028	8b 45 0c	 mov	 eax, DWORD PTR __Ptr$[ebp]
  0002b	50		 push	 eax
  0002c	e8 00 00 00 00	 call	 ??$_Destroy_in_place@PAU?$_Tree_node@U?$pair@$$CBHUNPC_DATA_HELPER@@@std@@PAX@std@@@std@@YAXAAPAU?$_Tree_node@U?$pair@$$CBHUNPC_DATA_HELPER@@@std@@PAX@0@@Z ; std::_Destroy_in_place<std::_Tree_node<std::pair<int const ,NPC_DATA_HELPER>,void *> *>
  00031	83 c4 04	 add	 esp, 4

; 371  :         _Destroy_in_place(_Ptr->_Parent);

  00034	8b 45 0c	 mov	 eax, DWORD PTR __Ptr$[ebp]
  00037	83 c0 04	 add	 eax, 4
  0003a	50		 push	 eax
  0003b	e8 00 00 00 00	 call	 ??$_Destroy_in_place@PAU?$_Tree_node@U?$pair@$$CBHUNPC_DATA_HELPER@@@std@@PAX@std@@@std@@YAXAAPAU?$_Tree_node@U?$pair@$$CBHUNPC_DATA_HELPER@@@std@@PAX@0@@Z ; std::_Destroy_in_place<std::_Tree_node<std::pair<int const ,NPC_DATA_HELPER>,void *> *>
  00040	83 c4 04	 add	 esp, 4

; 372  :         _Destroy_in_place(_Ptr->_Right);

  00043	8b 45 0c	 mov	 eax, DWORD PTR __Ptr$[ebp]
  00046	83 c0 08	 add	 eax, 8
  00049	50		 push	 eax
  0004a	e8 00 00 00 00	 call	 ??$_Destroy_in_place@PAU?$_Tree_node@U?$pair@$$CBHUNPC_DATA_HELPER@@@std@@PAX@std@@@std@@YAXAAPAU?$_Tree_node@U?$pair@$$CBHUNPC_DATA_HELPER@@@std@@PAX@0@@Z ; std::_Destroy_in_place<std::_Tree_node<std::pair<int const ,NPC_DATA_HELPER>,void *> *>
  0004f	83 c4 04	 add	 esp, 4

; 373  :         allocator_traits<_Alloc>::deallocate(_Al, _Ptr, 1);

  00052	6a 01		 push	 1
  00054	8b 45 0c	 mov	 eax, DWORD PTR __Ptr$[ebp]
  00057	50		 push	 eax
  00058	8b 4d 08	 mov	 ecx, DWORD PTR __Al$[ebp]
  0005b	51		 push	 ecx
  0005c	e8 00 00 00 00	 call	 ?deallocate@?$_Default_allocator_traits@V?$allocator@U?$_Tree_node@U?$pair@$$CBHUNPC_DATA_HELPER@@@std@@PAX@std@@@std@@@std@@SAXAAV?$allocator@U?$_Tree_node@U?$pair@$$CBHUNPC_DATA_HELPER@@@std@@PAX@std@@@2@QAU?$_Tree_node@U?$pair@$$CBHUNPC_DATA_HELPER@@@std@@PAX@2@I@Z ; std::_Default_allocator_traits<std::allocator<std::_Tree_node<std::pair<int const ,NPC_DATA_HELPER>,void *> > >::deallocate
  00061	83 c4 0c	 add	 esp, 12			; 0000000cH

; 374  :     }

  00064	8b 4d f4	 mov	 ecx, DWORD PTR __$EHRec$[ebp]
  00067	64 89 0d 00 00
	00 00		 mov	 DWORD PTR fs:0, ecx
  0006e	59		 pop	 ecx
  0006f	5f		 pop	 edi
  00070	5e		 pop	 esi
  00071	5b		 pop	 ebx
  00072	8b e5		 mov	 esp, ebp
  00074	5d		 pop	 ebp
  00075	c3		 ret	 0
  00076	cc		 int	 3
  00077	cc		 int	 3
  00078	cc		 int	 3
  00079	cc		 int	 3
  0007a	cc		 int	 3
_TEXT	ENDS
;	COMDAT text$x
text$x	SEGMENT
__ehhandler$??$_Freenode0@V?$allocator@U?$_Tree_node@U?$pair@$$CBHUNPC_DATA_HELPER@@@std@@PAX@std@@@std@@@?$_Tree_node@U?$pair@$$CBHUNPC_DATA_HELPER@@@std@@PAX@std@@SAXAAV?$allocator@U?$_Tree_node@U?$pair@$$CBHUNPC_DATA_HELPER@@@std@@PAX@std@@@1@PAU01@@Z:
  00000	90		 npad	 1
  00001	90		 npad	 1
  00002	8b 54 24 08	 mov	 edx, DWORD PTR [esp+8]
  00006	8d 42 0c	 lea	 eax, DWORD PTR [edx+12]
  00009	8b 4a b0	 mov	 ecx, DWORD PTR [edx-80]
  0000c	33 c8		 xor	 ecx, eax
  0000e	e8 00 00 00 00	 call	 @__security_check_cookie@4
  00013	b8 00 00 00 00	 mov	 eax, OFFSET __ehfuncinfo$??$_Freenode0@V?$allocator@U?$_Tree_node@U?$pair@$$CBHUNPC_DATA_HELPER@@@std@@PAX@std@@@std@@@?$_Tree_node@U?$pair@$$CBHUNPC_DATA_HELPER@@@std@@PAX@std@@SAXAAV?$allocator@U?$_Tree_node@U?$pair@$$CBHUNPC_DATA_HELPER@@@std@@PAX@std@@@1@PAU01@@Z
  00018	e9 00 00 00 00	 jmp	 ___CxxFrameHandler3
text$x	ENDS
??$_Freenode0@V?$allocator@U?$_Tree_node@U?$pair@$$CBHUNPC_DATA_HELPER@@@std@@PAX@std@@@std@@@?$_Tree_node@U?$pair@$$CBHUNPC_DATA_HELPER@@@std@@PAX@std@@SAXAAV?$allocator@U?$_Tree_node@U?$pair@$$CBHUNPC_DATA_HELPER@@@std@@PAX@std@@@1@PAU01@@Z ENDP ; std::_Tree_node<std::pair<int const ,NPC_DATA_HELPER>,void *>::_Freenode0<std::allocator<std::_Tree_node<std::pair<int const ,NPC_DATA_HELPER>,void *> > >
; Function compile flags: /Odtp /ZI
; File C:\Program Files (x86)\Microsoft Visual Studio\2019\Community\VC\Tools\MSVC\14.27.29110\include\xtree
;	COMDAT ??$_Erase_tree@V?$allocator@U?$_Tree_node@U?$pair@$$CBHUNPC_DATA_HELPER@@@std@@PAX@std@@@std@@@?$_Tree_val@U?$_Tree_simple_types@U?$pair@$$CBHUNPC_DATA_HELPER@@@std@@@std@@@std@@QAEXAAV?$allocator@U?$_Tree_node@U?$pair@$$CBHUNPC_DATA_HELPER@@@std@@PAX@std@@@1@PAU?$_Tree_node@U?$pair@$$CBHUNPC_DATA_HELPER@@@std@@PAX@1@@Z
_TEXT	SEGMENT
_this$ = -4						; size = 4
__Al$ = 8						; size = 4
__Rootnode$ = 12					; size = 4
??$_Erase_tree@V?$allocator@U?$_Tree_node@U?$pair@$$CBHUNPC_DATA_HELPER@@@std@@PAX@std@@@std@@@?$_Tree_val@U?$_Tree_simple_types@U?$pair@$$CBHUNPC_DATA_HELPER@@@std@@@std@@@std@@QAEXAAV?$allocator@U?$_Tree_node@U?$pair@$$CBHUNPC_DATA_HELPER@@@std@@PAX@std@@@1@PAU?$_Tree_node@U?$pair@$$CBHUNPC_DATA_HELPER@@@std@@PAX@1@@Z PROC ; std::_Tree_val<std::_Tree_simple_types<std::pair<int const ,NPC_DATA_HELPER> > >::_Erase_tree<std::allocator<std::_Tree_node<std::pair<int const ,NPC_DATA_HELPER>,void *> > >, COMDAT
; _this$ = ecx

; 742  :     void _Erase_tree(_Alnode& _Al, _Nodeptr _Rootnode) noexcept {

  00000	55		 push	 ebp
  00001	8b ec		 mov	 ebp, esp
  00003	83 ec 44	 sub	 esp, 68			; 00000044H
  00006	53		 push	 ebx
  00007	56		 push	 esi
  00008	57		 push	 edi
  00009	89 4d fc	 mov	 DWORD PTR _this$[ebp], ecx
$LN2@Erase_tree:

; 743  :         while (!_Rootnode->_Isnil) { // free subtrees, then node

  0000c	8b 45 0c	 mov	 eax, DWORD PTR __Rootnode$[ebp]
  0000f	0f be 48 0d	 movsx	 ecx, BYTE PTR [eax+13]
  00013	85 c9		 test	 ecx, ecx
  00015	75 32		 jne	 SHORT $LN4@Erase_tree

; 744  :             _Erase_tree(_Al, _Rootnode->_Right);

  00017	8b 45 0c	 mov	 eax, DWORD PTR __Rootnode$[ebp]
  0001a	8b 48 08	 mov	 ecx, DWORD PTR [eax+8]
  0001d	51		 push	 ecx
  0001e	8b 55 08	 mov	 edx, DWORD PTR __Al$[ebp]
  00021	52		 push	 edx
  00022	8b 4d fc	 mov	 ecx, DWORD PTR _this$[ebp]
  00025	e8 00 00 00 00	 call	 ??$_Erase_tree@V?$allocator@U?$_Tree_node@U?$pair@$$CBHUNPC_DATA_HELPER@@@std@@PAX@std@@@std@@@?$_Tree_val@U?$_Tree_simple_types@U?$pair@$$CBHUNPC_DATA_HELPER@@@std@@@std@@@std@@QAEXAAV?$allocator@U?$_Tree_node@U?$pair@$$CBHUNPC_DATA_HELPER@@@std@@PAX@std@@@1@PAU?$_Tree_node@U?$pair@$$CBHUNPC_DATA_HELPER@@@std@@PAX@1@@Z ; std::_Tree_val<std::_Tree_simple_types<std::pair<int const ,NPC_DATA_HELPER> > >::_Erase_tree<std::allocator<std::_Tree_node<std::pair<int const ,NPC_DATA_HELPER>,void *> > >

; 745  :             _Alnode::value_type::_Freenode(_Al, _STD exchange(_Rootnode, _Rootnode->_Left));

  0002a	8b 45 0c	 mov	 eax, DWORD PTR __Rootnode$[ebp]
  0002d	50		 push	 eax
  0002e	8d 4d 0c	 lea	 ecx, DWORD PTR __Rootnode$[ebp]
  00031	51		 push	 ecx
  00032	e8 00 00 00 00	 call	 ??$exchange@PAU?$_Tree_node@U?$pair@$$CBHUNPC_DATA_HELPER@@@std@@PAX@std@@AAPAU12@@std@@YAPAU?$_Tree_node@U?$pair@$$CBHUNPC_DATA_HELPER@@@std@@PAX@0@AAPAU10@0@Z ; std::exchange<std::_Tree_node<std::pair<int const ,NPC_DATA_HELPER>,void *> *,std::_Tree_node<std::pair<int const ,NPC_DATA_HELPER>,void *> * &>
  00037	83 c4 08	 add	 esp, 8
  0003a	50		 push	 eax
  0003b	8b 55 08	 mov	 edx, DWORD PTR __Al$[ebp]
  0003e	52		 push	 edx
  0003f	e8 00 00 00 00	 call	 ??$_Freenode@V?$allocator@U?$_Tree_node@U?$pair@$$CBHUNPC_DATA_HELPER@@@std@@PAX@std@@@std@@@?$_Tree_node@U?$pair@$$CBHUNPC_DATA_HELPER@@@std@@PAX@std@@SAXAAV?$allocator@U?$_Tree_node@U?$pair@$$CBHUNPC_DATA_HELPER@@@std@@PAX@std@@@1@PAU01@@Z ; std::_Tree_node<std::pair<int const ,NPC_DATA_HELPER>,void *>::_Freenode<std::allocator<std::_Tree_node<std::pair<int const ,NPC_DATA_HELPER>,void *> > >
  00044	83 c4 08	 add	 esp, 8

; 746  :         }

  00047	eb c3		 jmp	 SHORT $LN2@Erase_tree
$LN4@Erase_tree:

; 747  :     }

  00049	5f		 pop	 edi
  0004a	5e		 pop	 esi
  0004b	5b		 pop	 ebx
  0004c	8b e5		 mov	 esp, ebp
  0004e	5d		 pop	 ebp
  0004f	c2 08 00	 ret	 8
??$_Erase_tree@V?$allocator@U?$_Tree_node@U?$pair@$$CBHUNPC_DATA_HELPER@@@std@@PAX@std@@@std@@@?$_Tree_val@U?$_Tree_simple_types@U?$pair@$$CBHUNPC_DATA_HELPER@@@std@@@std@@@std@@QAEXAAV?$allocator@U?$_Tree_node@U?$pair@$$CBHUNPC_DATA_HELPER@@@std@@PAX@std@@@1@PAU?$_Tree_node@U?$pair@$$CBHUNPC_DATA_HELPER@@@std@@PAX@1@@Z ENDP ; std::_Tree_val<std::_Tree_simple_types<std::pair<int const ,NPC_DATA_HELPER> > >::_Erase_tree<std::allocator<std::_Tree_node<std::pair<int const ,NPC_DATA_HELPER>,void *> > >
_TEXT	ENDS
; Function compile flags: /Odtp /ZI
; File C:\Program Files (x86)\Microsoft Visual Studio\2019\Community\VC\Tools\MSVC\14.27.29110\include\xtree
;	COMDAT ??$_Lower_bound_duplicate@H@?$_Tree@V?$_Tmap_traits@HUNPC_DATA_HELPER@@U?$less@H@std@@V?$allocator@U?$pair@$$CBHUNPC_DATA_HELPER@@@std@@@3@$0A@@std@@@std@@IBE_NQAU?$_Tree_node@U?$pair@$$CBHUNPC_DATA_HELPER@@@std@@PAX@1@ABH@Z
_TEXT	SEGMENT
tv78 = -72						; size = 4
_this$ = -4						; size = 4
__Bound$ = 8						; size = 4
__Keyval$ = 12						; size = 4
??$_Lower_bound_duplicate@H@?$_Tree@V?$_Tmap_traits@HUNPC_DATA_HELPER@@U?$less@H@std@@V?$allocator@U?$pair@$$CBHUNPC_DATA_HELPER@@@std@@@3@$0A@@std@@@std@@IBE_NQAU?$_Tree_node@U?$pair@$$CBHUNPC_DATA_HELPER@@@std@@PAX@1@ABH@Z PROC ; std::_Tree<std::_Tmap_traits<int,NPC_DATA_HELPER,std::less<int>,std::allocator<std::pair<int const ,NPC_DATA_HELPER> >,0> >::_Lower_bound_duplicate<int>, COMDAT
; _this$ = ecx

; 1694 :     bool _Lower_bound_duplicate(const _Nodeptr _Bound, const _Keyty& _Keyval) const {

  00000	55		 push	 ebp
  00001	8b ec		 mov	 ebp, esp
  00003	83 ec 48	 sub	 esp, 72			; 00000048H
  00006	53		 push	 ebx
  00007	56		 push	 esi
  00008	57		 push	 edi
  00009	89 4d fc	 mov	 DWORD PTR _this$[ebp], ecx

; 1695 :         return !_Bound->_Isnil && !_DEBUG_LT_PRED(_Getcomp(), _Keyval, _Traits::_Kfn(_Bound->_Myval));

  0000c	8b 45 08	 mov	 eax, DWORD PTR __Bound$[ebp]
  0000f	0f be 48 0d	 movsx	 ecx, BYTE PTR [eax+13]
  00013	85 c9		 test	 ecx, ecx
  00015	75 33		 jne	 SHORT $LN3@Lower_boun
  00017	8b 55 08	 mov	 edx, DWORD PTR __Bound$[ebp]
  0001a	83 c2 10	 add	 edx, 16			; 00000010H
  0001d	52		 push	 edx
  0001e	e8 00 00 00 00	 call	 ??$_Kfn@$$CBHUNPC_DATA_HELPER@@@?$_Tmap_traits@HUNPC_DATA_HELPER@@U?$less@H@std@@V?$allocator@U?$pair@$$CBHUNPC_DATA_HELPER@@@std@@@3@$0A@@std@@SAABHABU?$pair@$$CBHUNPC_DATA_HELPER@@@1@@Z ; std::_Tmap_traits<int,NPC_DATA_HELPER,std::less<int>,std::allocator<std::pair<int const ,NPC_DATA_HELPER> >,0>::_Kfn<int const ,NPC_DATA_HELPER>
  00023	83 c4 04	 add	 esp, 4
  00026	50		 push	 eax
  00027	8b 45 0c	 mov	 eax, DWORD PTR __Keyval$[ebp]
  0002a	50		 push	 eax
  0002b	8b 4d fc	 mov	 ecx, DWORD PTR _this$[ebp]
  0002e	e8 00 00 00 00	 call	 ?_Getcomp@?$_Tree@V?$_Tmap_traits@HUNPC_DATA_HELPER@@U?$less@H@std@@V?$allocator@U?$pair@$$CBHUNPC_DATA_HELPER@@@std@@@3@$0A@@std@@@std@@IBEABU?$less@H@2@XZ ; std::_Tree<std::_Tmap_traits<int,NPC_DATA_HELPER,std::less<int>,std::allocator<std::pair<int const ,NPC_DATA_HELPER> >,0> >::_Getcomp
  00033	8b c8		 mov	 ecx, eax
  00035	e8 00 00 00 00	 call	 ??R?$less@H@std@@QBE_NABH0@Z ; std::less<int>::operator()
  0003a	0f b6 c8	 movzx	 ecx, al
  0003d	85 c9		 test	 ecx, ecx
  0003f	75 09		 jne	 SHORT $LN3@Lower_boun
  00041	c7 45 b8 01 00
	00 00		 mov	 DWORD PTR tv78[ebp], 1
  00048	eb 07		 jmp	 SHORT $LN4@Lower_boun
$LN3@Lower_boun:
  0004a	c7 45 b8 00 00
	00 00		 mov	 DWORD PTR tv78[ebp], 0
$LN4@Lower_boun:
  00051	8a 45 b8	 mov	 al, BYTE PTR tv78[ebp]

; 1696 :     }

  00054	5f		 pop	 edi
  00055	5e		 pop	 esi
  00056	5b		 pop	 ebx
  00057	8b e5		 mov	 esp, ebp
  00059	5d		 pop	 ebp
  0005a	c2 08 00	 ret	 8
??$_Lower_bound_duplicate@H@?$_Tree@V?$_Tmap_traits@HUNPC_DATA_HELPER@@U?$less@H@std@@V?$allocator@U?$pair@$$CBHUNPC_DATA_HELPER@@@std@@@3@$0A@@std@@@std@@IBE_NQAU?$_Tree_node@U?$pair@$$CBHUNPC_DATA_HELPER@@@std@@PAX@1@ABH@Z ENDP ; std::_Tree<std::_Tmap_traits<int,NPC_DATA_HELPER,std::less<int>,std::allocator<std::pair<int const ,NPC_DATA_HELPER> >,0> >::_Lower_bound_duplicate<int>
_TEXT	ENDS
; Function compile flags: /Odtp /ZI
; File C:\Program Files (x86)\Microsoft Visual Studio\2019\Community\VC\Tools\MSVC\14.27.29110\include\xtree
;	COMDAT ??$_Find_lower_bound@H@?$_Tree@V?$_Tmap_traits@HUNPC_DATA_HELPER@@U?$less@H@std@@V?$allocator@U?$pair@$$CBHUNPC_DATA_HELPER@@@std@@@3@$0A@@std@@@std@@IBE?AU?$_Tree_find_result@PAU?$_Tree_node@U?$pair@$$CBHUNPC_DATA_HELPER@@@std@@PAX@std@@@1@ABH@Z
_TEXT	SEGMENT
__Trynode$ = -24					; size = 4
__Result$ = -20						; size = 12
__Scary$ = -8						; size = 4
_this$ = -4						; size = 4
___$ReturnUdt$ = 8					; size = 4
__Keyval$ = 12						; size = 4
??$_Find_lower_bound@H@?$_Tree@V?$_Tmap_traits@HUNPC_DATA_HELPER@@U?$less@H@std@@V?$allocator@U?$pair@$$CBHUNPC_DATA_HELPER@@@std@@@3@$0A@@std@@@std@@IBE?AU?$_Tree_find_result@PAU?$_Tree_node@U?$pair@$$CBHUNPC_DATA_HELPER@@@std@@PAX@std@@@1@ABH@Z PROC ; std::_Tree<std::_Tmap_traits<int,NPC_DATA_HELPER,std::less<int>,std::allocator<std::pair<int const ,NPC_DATA_HELPER> >,0> >::_Find_lower_bound<int>, COMDAT
; _this$ = ecx

; 1699 :     _Tree_find_result<_Nodeptr> _Find_lower_bound(const _Keyty& _Keyval) const {

  00000	55		 push	 ebp
  00001	8b ec		 mov	 ebp, esp
  00003	83 ec 58	 sub	 esp, 88			; 00000058H
  00006	53		 push	 ebx
  00007	56		 push	 esi
  00008	57		 push	 edi
  00009	89 4d fc	 mov	 DWORD PTR _this$[ebp], ecx

; 1700 :         const auto _Scary = _Get_scary();

  0000c	8b 4d fc	 mov	 ecx, DWORD PTR _this$[ebp]
  0000f	e8 00 00 00 00	 call	 ?_Get_scary@?$_Tree@V?$_Tmap_traits@HUNPC_DATA_HELPER@@U?$less@H@std@@V?$allocator@U?$pair@$$CBHUNPC_DATA_HELPER@@@std@@@3@$0A@@std@@@std@@IBEPBV?$_Tree_val@U?$_Tree_simple_types@U?$pair@$$CBHUNPC_DATA_HELPER@@@std@@@std@@@2@XZ ; std::_Tree<std::_Tmap_traits<int,NPC_DATA_HELPER,std::less<int>,std::allocator<std::pair<int const ,NPC_DATA_HELPER> >,0> >::_Get_scary
  00014	89 45 f8	 mov	 DWORD PTR __Scary$[ebp], eax

; 1701 :         _Tree_find_result<_Nodeptr> _Result{{_Scary->_Myhead->_Parent, _Tree_child::_Right}, _Scary->_Myhead};

  00017	8b 45 f8	 mov	 eax, DWORD PTR __Scary$[ebp]
  0001a	8b 08		 mov	 ecx, DWORD PTR [eax]
  0001c	8b 51 04	 mov	 edx, DWORD PTR [ecx+4]
  0001f	89 55 ec	 mov	 DWORD PTR __Result$[ebp], edx
  00022	c7 45 f0 00 00
	00 00		 mov	 DWORD PTR __Result$[ebp+4], 0
  00029	8b 45 f8	 mov	 eax, DWORD PTR __Scary$[ebp]
  0002c	8b 08		 mov	 ecx, DWORD PTR [eax]
  0002e	89 4d f4	 mov	 DWORD PTR __Result$[ebp+8], ecx

; 1702 :         _Nodeptr _Trynode = _Result._Location._Parent;

  00031	8b 45 ec	 mov	 eax, DWORD PTR __Result$[ebp]
  00034	89 45 e8	 mov	 DWORD PTR __Trynode$[ebp], eax
$LN2@Find_lower:

; 1703 :         while (!_Trynode->_Isnil) {

  00037	8b 45 e8	 mov	 eax, DWORD PTR __Trynode$[ebp]
  0003a	0f be 48 0d	 movsx	 ecx, BYTE PTR [eax+13]
  0003e	85 c9		 test	 ecx, ecx
  00040	75 59		 jne	 SHORT $LN3@Find_lower

; 1704 :             _Result._Location._Parent = _Trynode;

  00042	8b 45 e8	 mov	 eax, DWORD PTR __Trynode$[ebp]
  00045	89 45 ec	 mov	 DWORD PTR __Result$[ebp], eax

; 1705 :             if (_DEBUG_LT_PRED(_Getcomp(), _Traits::_Kfn(_Trynode->_Myval), _Keyval)) {

  00048	8b 45 0c	 mov	 eax, DWORD PTR __Keyval$[ebp]
  0004b	50		 push	 eax
  0004c	8b 4d e8	 mov	 ecx, DWORD PTR __Trynode$[ebp]
  0004f	83 c1 10	 add	 ecx, 16			; 00000010H
  00052	51		 push	 ecx
  00053	e8 00 00 00 00	 call	 ??$_Kfn@$$CBHUNPC_DATA_HELPER@@@?$_Tmap_traits@HUNPC_DATA_HELPER@@U?$less@H@std@@V?$allocator@U?$pair@$$CBHUNPC_DATA_HELPER@@@std@@@3@$0A@@std@@SAABHABU?$pair@$$CBHUNPC_DATA_HELPER@@@1@@Z ; std::_Tmap_traits<int,NPC_DATA_HELPER,std::less<int>,std::allocator<std::pair<int const ,NPC_DATA_HELPER> >,0>::_Kfn<int const ,NPC_DATA_HELPER>
  00058	83 c4 04	 add	 esp, 4
  0005b	50		 push	 eax
  0005c	8b 4d fc	 mov	 ecx, DWORD PTR _this$[ebp]
  0005f	e8 00 00 00 00	 call	 ?_Getcomp@?$_Tree@V?$_Tmap_traits@HUNPC_DATA_HELPER@@U?$less@H@std@@V?$allocator@U?$pair@$$CBHUNPC_DATA_HELPER@@@std@@@3@$0A@@std@@@std@@IBEABU?$less@H@2@XZ ; std::_Tree<std::_Tmap_traits<int,NPC_DATA_HELPER,std::less<int>,std::allocator<std::pair<int const ,NPC_DATA_HELPER> >,0> >::_Getcomp
  00064	8b c8		 mov	 ecx, eax
  00066	e8 00 00 00 00	 call	 ??R?$less@H@std@@QBE_NABH0@Z ; std::less<int>::operator()
  0006b	0f b6 d0	 movzx	 edx, al
  0006e	85 d2		 test	 edx, edx
  00070	74 12		 je	 SHORT $LN4@Find_lower

; 1706 :                 _Result._Location._Child = _Tree_child::_Right;

  00072	c7 45 f0 00 00
	00 00		 mov	 DWORD PTR __Result$[ebp+4], 0

; 1707 :                 _Trynode                 = _Trynode->_Right;

  00079	8b 45 e8	 mov	 eax, DWORD PTR __Trynode$[ebp]
  0007c	8b 48 08	 mov	 ecx, DWORD PTR [eax+8]
  0007f	89 4d e8	 mov	 DWORD PTR __Trynode$[ebp], ecx

; 1708 :             } else {

  00082	eb 15		 jmp	 SHORT $LN5@Find_lower
$LN4@Find_lower:

; 1709 :                 _Result._Location._Child = _Tree_child::_Left;

  00084	c7 45 f0 01 00
	00 00		 mov	 DWORD PTR __Result$[ebp+4], 1

; 1710 :                 _Result._Bound           = _Trynode;

  0008b	8b 45 e8	 mov	 eax, DWORD PTR __Trynode$[ebp]
  0008e	89 45 f4	 mov	 DWORD PTR __Result$[ebp+8], eax

; 1711 :                 _Trynode                 = _Trynode->_Left;

  00091	8b 45 e8	 mov	 eax, DWORD PTR __Trynode$[ebp]
  00094	8b 08		 mov	 ecx, DWORD PTR [eax]
  00096	89 4d e8	 mov	 DWORD PTR __Trynode$[ebp], ecx
$LN5@Find_lower:

; 1712 :             }
; 1713 :         }

  00099	eb 9c		 jmp	 SHORT $LN2@Find_lower
$LN3@Find_lower:

; 1714 : 
; 1715 :         return _Result;

  0009b	8b 45 08	 mov	 eax, DWORD PTR ___$ReturnUdt$[ebp]
  0009e	8b 4d ec	 mov	 ecx, DWORD PTR __Result$[ebp]
  000a1	89 08		 mov	 DWORD PTR [eax], ecx
  000a3	8b 55 f0	 mov	 edx, DWORD PTR __Result$[ebp+4]
  000a6	89 50 04	 mov	 DWORD PTR [eax+4], edx
  000a9	8b 4d f4	 mov	 ecx, DWORD PTR __Result$[ebp+8]
  000ac	89 48 08	 mov	 DWORD PTR [eax+8], ecx
  000af	8b 45 08	 mov	 eax, DWORD PTR ___$ReturnUdt$[ebp]

; 1716 :     }

  000b2	5f		 pop	 edi
  000b3	5e		 pop	 esi
  000b4	5b		 pop	 ebx
  000b5	8b e5		 mov	 esp, ebp
  000b7	5d		 pop	 ebp
  000b8	c2 08 00	 ret	 8
??$_Find_lower_bound@H@?$_Tree@V?$_Tmap_traits@HUNPC_DATA_HELPER@@U?$less@H@std@@V?$allocator@U?$pair@$$CBHUNPC_DATA_HELPER@@@std@@@3@$0A@@std@@@std@@IBE?AU?$_Tree_find_result@PAU?$_Tree_node@U?$pair@$$CBHUNPC_DATA_HELPER@@@std@@PAX@std@@@1@ABH@Z ENDP ; std::_Tree<std::_Tmap_traits<int,NPC_DATA_HELPER,std::less<int>,std::allocator<std::pair<int const ,NPC_DATA_HELPER> >,0> >::_Find_lower_bound<int>
_TEXT	ENDS
; Function compile flags: /Odtp /ZI
;	COMDAT ??0?$_Tree_unchecked_iterator@V?$_Tree_val@U?$_Tree_simple_types@U?$pair@$$CBHUNPC_DATA_HELPER@@@std@@@std@@@std@@@std@@QAE@PAU?$_Tree_node@U?$pair@$$CBHUNPC_DATA_HELPER@@@std@@PAX@1@PBV?$_Tree_val@U?$_Tree_simple_types@U?$pair@$$CBHUNPC_DATA_HELPER@@@std@@@std@@@1@@Z
_TEXT	SEGMENT
_this$ = -4						; size = 4
___param0$ = 8						; size = 4
___param1$ = 12						; size = 4
??0?$_Tree_unchecked_iterator@V?$_Tree_val@U?$_Tree_simple_types@U?$pair@$$CBHUNPC_DATA_HELPER@@@std@@@std@@@std@@@std@@QAE@PAU?$_Tree_node@U?$pair@$$CBHUNPC_DATA_HELPER@@@std@@PAX@1@PBV?$_Tree_val@U?$_Tree_simple_types@U?$pair@$$CBHUNPC_DATA_HELPER@@@std@@@std@@@1@@Z PROC ; std::_Tree_unchecked_iterator<std::_Tree_val<std::_Tree_simple_types<std::pair<int const ,NPC_DATA_HELPER> > > >::_Tree_unchecked_iterator<std::_Tree_val<std::_Tree_simple_types<std::pair<int const ,NPC_DATA_HELPER> > > >, COMDAT
; _this$ = ecx
  00000	55		 push	 ebp
  00001	8b ec		 mov	 ebp, esp
  00003	83 ec 44	 sub	 esp, 68			; 00000044H
  00006	53		 push	 ebx
  00007	56		 push	 esi
  00008	57		 push	 edi
  00009	89 4d fc	 mov	 DWORD PTR _this$[ebp], ecx
  0000c	8b 45 0c	 mov	 eax, DWORD PTR ___param1$[ebp]
  0000f	50		 push	 eax
  00010	8b 4d 08	 mov	 ecx, DWORD PTR ___param0$[ebp]
  00013	51		 push	 ecx
  00014	8b 4d fc	 mov	 ecx, DWORD PTR _this$[ebp]
  00017	e8 00 00 00 00	 call	 ??0?$_Tree_unchecked_const_iterator@V?$_Tree_val@U?$_Tree_simple_types@U?$pair@$$CBHUNPC_DATA_HELPER@@@std@@@std@@@std@@U_Iterator_base0@2@@std@@QAE@PAU?$_Tree_node@U?$pair@$$CBHUNPC_DATA_HELPER@@@std@@PAX@1@PBV?$_Tree_val@U?$_Tree_simple_types@U?$pair@$$CBHUNPC_DATA_HELPER@@@std@@@std@@@1@@Z ; std::_Tree_unchecked_const_iterator<std::_Tree_val<std::_Tree_simple_types<std::pair<int const ,NPC_DATA_HELPER> > >,std::_Iterator_base0>::_Tree_unchecked_const_iterator<std::_Tree_val<std::_Tree_simple_types<std::pair<int const ,NPC_DATA_HELPER> > >,std::_Iterator_base0>
  0001c	8b 45 fc	 mov	 eax, DWORD PTR _this$[ebp]
  0001f	5f		 pop	 edi
  00020	5e		 pop	 esi
  00021	5b		 pop	 ebx
  00022	8b e5		 mov	 esp, ebp
  00024	5d		 pop	 ebp
  00025	c2 08 00	 ret	 8
??0?$_Tree_unchecked_iterator@V?$_Tree_val@U?$_Tree_simple_types@U?$pair@$$CBHUNPC_DATA_HELPER@@@std@@@std@@@std@@@std@@QAE@PAU?$_Tree_node@U?$pair@$$CBHUNPC_DATA_HELPER@@@std@@PAX@1@PBV?$_Tree_val@U?$_Tree_simple_types@U?$pair@$$CBHUNPC_DATA_HELPER@@@std@@@std@@@1@@Z ENDP ; std::_Tree_unchecked_iterator<std::_Tree_val<std::_Tree_simple_types<std::pair<int const ,NPC_DATA_HELPER> > > >::_Tree_unchecked_iterator<std::_Tree_val<std::_Tree_simple_types<std::pair<int const ,NPC_DATA_HELPER> > > >
_TEXT	ENDS
; Function compile flags: /Odtp /ZI
; File C:\Program Files (x86)\Microsoft Visual Studio\2019\Community\VC\Tools\MSVC\14.27.29110\include\xtree
;	COMDAT ??$emplace@U?$pair@HUNPC_DATA_HELPER@@@std@@@?$_Tree@V?$_Tmap_traits@HUNPC_DATA_HELPER@@U?$less@H@std@@V?$allocator@U?$pair@$$CBHUNPC_DATA_HELPER@@@std@@@3@$0A@@std@@@std@@QAE?AU?$pair@V?$_Tree_iterator@V?$_Tree_val@U?$_Tree_simple_types@U?$pair@$$CBHUNPC_DATA_HELPER@@@std@@@std@@@std@@@std@@_N@1@$$QAU?$pair@HUNPC_DATA_HELPER@@@1@@Z
_TEXT	SEGMENT
$T1 = -80						; size = 4
__Result$ = -12						; size = 8
_this$ = -4						; size = 4
___$ReturnUdt$ = 8					; size = 4
_<_Vals_0>$ = 12					; size = 4
??$emplace@U?$pair@HUNPC_DATA_HELPER@@@std@@@?$_Tree@V?$_Tmap_traits@HUNPC_DATA_HELPER@@U?$less@H@std@@V?$allocator@U?$pair@$$CBHUNPC_DATA_HELPER@@@std@@@3@$0A@@std@@@std@@QAE?AU?$pair@V?$_Tree_iterator@V?$_Tree_val@U?$_Tree_simple_types@U?$pair@$$CBHUNPC_DATA_HELPER@@@std@@@std@@@std@@@std@@_N@1@$$QAU?$pair@HUNPC_DATA_HELPER@@@1@@Z PROC ; std::_Tree<std::_Tmap_traits<int,NPC_DATA_HELPER,std::less<int>,std::allocator<std::pair<int const ,NPC_DATA_HELPER> >,0> >::emplace<std::pair<int,NPC_DATA_HELPER> >, COMDAT
; _this$ = ecx

; 1094 :     pair<iterator, bool> emplace(_Valtys&&... _Vals) {

  00000	55		 push	 ebp
  00001	8b ec		 mov	 ebp, esp
  00003	83 ec 50	 sub	 esp, 80			; 00000050H
  00006	53		 push	 ebx
  00007	56		 push	 esi
  00008	57		 push	 edi
  00009	89 4d fc	 mov	 DWORD PTR _this$[ebp], ecx

; 1095 :         const auto _Result = _Emplace(_STD forward<_Valtys>(_Vals)...);

  0000c	8b 45 0c	 mov	 eax, DWORD PTR _<_Vals_0>$[ebp]
  0000f	50		 push	 eax
  00010	e8 00 00 00 00	 call	 ??$forward@U?$pair@HUNPC_DATA_HELPER@@@std@@@std@@YA$$QAU?$pair@HUNPC_DATA_HELPER@@@0@AAU10@@Z ; std::forward<std::pair<int,NPC_DATA_HELPER> >
  00015	83 c4 04	 add	 esp, 4
  00018	50		 push	 eax
  00019	8d 4d f4	 lea	 ecx, DWORD PTR __Result$[ebp]
  0001c	51		 push	 ecx
  0001d	8b 4d fc	 mov	 ecx, DWORD PTR _this$[ebp]
  00020	e8 00 00 00 00	 call	 ??$_Emplace@U?$pair@HUNPC_DATA_HELPER@@@std@@@?$_Tree@V?$_Tmap_traits@HUNPC_DATA_HELPER@@U?$less@H@std@@V?$allocator@U?$pair@$$CBHUNPC_DATA_HELPER@@@std@@@3@$0A@@std@@@std@@IAE?AU?$pair@PAU?$_Tree_node@U?$pair@$$CBHUNPC_DATA_HELPER@@@std@@PAX@std@@_N@1@$$QAU?$pair@HUNPC_DATA_HELPER@@@1@@Z ; std::_Tree<std::_Tmap_traits<int,NPC_DATA_HELPER,std::less<int>,std::allocator<std::pair<int const ,NPC_DATA_HELPER> >,0> >::_Emplace<std::pair<int,NPC_DATA_HELPER> >

; 1096 :         return {iterator(_Result.first, _Get_scary()), _Result.second};

  00025	8b 4d fc	 mov	 ecx, DWORD PTR _this$[ebp]
  00028	e8 00 00 00 00	 call	 ?_Get_scary@?$_Tree@V?$_Tmap_traits@HUNPC_DATA_HELPER@@U?$less@H@std@@V?$allocator@U?$pair@$$CBHUNPC_DATA_HELPER@@@std@@@3@$0A@@std@@@std@@IAEPAV?$_Tree_val@U?$_Tree_simple_types@U?$pair@$$CBHUNPC_DATA_HELPER@@@std@@@std@@@2@XZ ; std::_Tree<std::_Tmap_traits<int,NPC_DATA_HELPER,std::less<int>,std::allocator<std::pair<int const ,NPC_DATA_HELPER> >,0> >::_Get_scary
  0002d	50		 push	 eax
  0002e	8b 45 f4	 mov	 eax, DWORD PTR __Result$[ebp]
  00031	50		 push	 eax
  00032	8d 4d b0	 lea	 ecx, DWORD PTR $T1[ebp]
  00035	e8 00 00 00 00	 call	 ??0?$_Tree_iterator@V?$_Tree_val@U?$_Tree_simple_types@U?$pair@$$CBHUNPC_DATA_HELPER@@@std@@@std@@@std@@@std@@QAE@PAU?$_Tree_node@U?$pair@$$CBHUNPC_DATA_HELPER@@@std@@PAX@1@PBV?$_Tree_val@U?$_Tree_simple_types@U?$pair@$$CBHUNPC_DATA_HELPER@@@std@@@std@@@1@@Z
  0003a	8d 4d f8	 lea	 ecx, DWORD PTR __Result$[ebp+4]
  0003d	51		 push	 ecx
  0003e	50		 push	 eax
  0003f	8b 4d 08	 mov	 ecx, DWORD PTR ___$ReturnUdt$[ebp]
  00042	e8 00 00 00 00	 call	 ??$?0V?$_Tree_iterator@V?$_Tree_val@U?$_Tree_simple_types@U?$pair@$$CBHUNPC_DATA_HELPER@@@std@@@std@@@std@@@std@@AB_N$0A@@?$pair@V?$_Tree_iterator@V?$_Tree_val@U?$_Tree_simple_types@U?$pair@$$CBHUNPC_DATA_HELPER@@@std@@@std@@@std@@@std@@_N@std@@QAE@$$QAV?$_Tree_iterator@V?$_Tree_val@U?$_Tree_simple_types@U?$pair@$$CBHUNPC_DATA_HELPER@@@std@@@std@@@std@@@1@AB_N@Z ; std::pair<std::_Tree_iterator<std::_Tree_val<std::_Tree_simple_types<std::pair<int const ,NPC_DATA_HELPER> > > >,bool>::pair<std::_Tree_iterator<std::_Tree_val<std::_Tree_simple_types<std::pair<int const ,NPC_DATA_HELPER> > > >,bool><std::_Tree_iterator<std::_Tree_val<std::_Tree_simple_types<std::pair<int const ,NPC_DATA_HELPER> > > >,bool const &,0>
  00047	8b 45 08	 mov	 eax, DWORD PTR ___$ReturnUdt$[ebp]

; 1097 :     }

  0004a	5f		 pop	 edi
  0004b	5e		 pop	 esi
  0004c	5b		 pop	 ebx
  0004d	8b e5		 mov	 esp, ebp
  0004f	5d		 pop	 ebp
  00050	c2 08 00	 ret	 8
??$emplace@U?$pair@HUNPC_DATA_HELPER@@@std@@@?$_Tree@V?$_Tmap_traits@HUNPC_DATA_HELPER@@U?$less@H@std@@V?$allocator@U?$pair@$$CBHUNPC_DATA_HELPER@@@std@@@3@$0A@@std@@@std@@QAE?AU?$pair@V?$_Tree_iterator@V?$_Tree_val@U?$_Tree_simple_types@U?$pair@$$CBHUNPC_DATA_HELPER@@@std@@@std@@@std@@@std@@_N@1@$$QAU?$pair@HUNPC_DATA_HELPER@@@1@@Z ENDP ; std::_Tree<std::_Tmap_traits<int,NPC_DATA_HELPER,std::less<int>,std::allocator<std::pair<int const ,NPC_DATA_HELPER> >,0> >::emplace<std::pair<int,NPC_DATA_HELPER> >
_TEXT	ENDS
; Function compile flags: /Odtp /ZI
; File C:\Program Files (x86)\Microsoft Visual Studio\2019\Community\VC\Tools\MSVC\14.27.29110\include\type_traits
;	COMDAT ??$forward@U?$pair@HUNPC_DATA_HELPER@@@std@@@std@@YA$$QAU?$pair@HUNPC_DATA_HELPER@@@0@AAU10@@Z
_TEXT	SEGMENT
__Arg$ = 8						; size = 4
??$forward@U?$pair@HUNPC_DATA_HELPER@@@std@@@std@@YA$$QAU?$pair@HUNPC_DATA_HELPER@@@0@AAU10@@Z PROC ; std::forward<std::pair<int,NPC_DATA_HELPER> >, COMDAT

; 1454 :     remove_reference_t<_Ty>& _Arg) noexcept { // forward an lvalue as either an lvalue or an rvalue

  00000	55		 push	 ebp
  00001	8b ec		 mov	 ebp, esp
  00003	83 ec 40	 sub	 esp, 64			; 00000040H
  00006	53		 push	 ebx
  00007	56		 push	 esi
  00008	57		 push	 edi

; 1455 :     return static_cast<_Ty&&>(_Arg);

  00009	8b 45 08	 mov	 eax, DWORD PTR __Arg$[ebp]

; 1456 : }

  0000c	5f		 pop	 edi
  0000d	5e		 pop	 esi
  0000e	5b		 pop	 ebx
  0000f	8b e5		 mov	 esp, ebp
  00011	5d		 pop	 ebp
  00012	c3		 ret	 0
??$forward@U?$pair@HUNPC_DATA_HELPER@@@std@@@std@@YA$$QAU?$pair@HUNPC_DATA_HELPER@@@0@AAU10@@Z ENDP ; std::forward<std::pair<int,NPC_DATA_HELPER> >
_TEXT	ENDS
; Function compile flags: /Odtp /ZI
; File C:\Program Files (x86)\Microsoft Visual Studio\2019\Community\VC\Tools\MSVC\14.27.29110\include\utility
;	COMDAT ??$?0AAHAAUNPC_DATA_HELPER@@$0A@@?$pair@HUNPC_DATA_HELPER@@@std@@QAE@AAHAAUNPC_DATA_HELPER@@@Z
_TEXT	SEGMENT
_this$ = -4						; size = 4
__Val1$ = 8						; size = 4
__Val2$ = 12						; size = 4
??$?0AAHAAUNPC_DATA_HELPER@@$0A@@?$pair@HUNPC_DATA_HELPER@@@std@@QAE@AAHAAUNPC_DATA_HELPER@@@Z PROC ; std::pair<int,NPC_DATA_HELPER>::pair<int,NPC_DATA_HELPER><int &,NPC_DATA_HELPER &,0>, COMDAT
; _this$ = ecx

; 192  :         : first(_STD forward<_Other1>(_Val1)), second(_STD forward<_Other2>(_Val2)) {}

  00000	55		 push	 ebp
  00001	8b ec		 mov	 ebp, esp
  00003	83 ec 44	 sub	 esp, 68			; 00000044H
  00006	53		 push	 ebx
  00007	56		 push	 esi
  00008	57		 push	 edi
  00009	89 4d fc	 mov	 DWORD PTR _this$[ebp], ecx
  0000c	8b 45 08	 mov	 eax, DWORD PTR __Val1$[ebp]
  0000f	50		 push	 eax
  00010	e8 00 00 00 00	 call	 ??$forward@AAH@std@@YAAAHAAH@Z ; std::forward<int &>
  00015	83 c4 04	 add	 esp, 4
  00018	8b 4d fc	 mov	 ecx, DWORD PTR _this$[ebp]
  0001b	8b 10		 mov	 edx, DWORD PTR [eax]
  0001d	89 11		 mov	 DWORD PTR [ecx], edx
  0001f	8b 45 0c	 mov	 eax, DWORD PTR __Val2$[ebp]
  00022	50		 push	 eax
  00023	e8 00 00 00 00	 call	 ??$forward@AAUNPC_DATA_HELPER@@@std@@YAAAUNPC_DATA_HELPER@@AAU1@@Z ; std::forward<NPC_DATA_HELPER &>
  00028	83 c4 04	 add	 esp, 4
  0002b	8b 4d fc	 mov	 ecx, DWORD PTR _this$[ebp]
  0002e	83 c1 04	 add	 ecx, 4
  00031	8b 10		 mov	 edx, DWORD PTR [eax]
  00033	89 11		 mov	 DWORD PTR [ecx], edx
  00035	8b 50 04	 mov	 edx, DWORD PTR [eax+4]
  00038	89 51 04	 mov	 DWORD PTR [ecx+4], edx
  0003b	8b 50 08	 mov	 edx, DWORD PTR [eax+8]
  0003e	89 51 08	 mov	 DWORD PTR [ecx+8], edx
  00041	8b 50 0c	 mov	 edx, DWORD PTR [eax+12]
  00044	89 51 0c	 mov	 DWORD PTR [ecx+12], edx
  00047	8b 40 10	 mov	 eax, DWORD PTR [eax+16]
  0004a	89 41 10	 mov	 DWORD PTR [ecx+16], eax
  0004d	8b 45 fc	 mov	 eax, DWORD PTR _this$[ebp]
  00050	5f		 pop	 edi
  00051	5e		 pop	 esi
  00052	5b		 pop	 ebx
  00053	8b e5		 mov	 esp, ebp
  00055	5d		 pop	 ebp
  00056	c2 08 00	 ret	 8
??$?0AAHAAUNPC_DATA_HELPER@@$0A@@?$pair@HUNPC_DATA_HELPER@@@std@@QAE@AAHAAUNPC_DATA_HELPER@@@Z ENDP ; std::pair<int,NPC_DATA_HELPER>::pair<int,NPC_DATA_HELPER><int &,NPC_DATA_HELPER &,0>
_TEXT	ENDS
; Function compile flags: /Odtp /ZI
; File C:\Program Files (x86)\Microsoft Visual Studio\2019\Community\VC\Tools\MSVC\14.27.29110\include\type_traits
;	COMDAT ??$forward@AAUNPC_DATA_HELPER@@@std@@YAAAUNPC_DATA_HELPER@@AAU1@@Z
_TEXT	SEGMENT
__Arg$ = 8						; size = 4
??$forward@AAUNPC_DATA_HELPER@@@std@@YAAAUNPC_DATA_HELPER@@AAU1@@Z PROC ; std::forward<NPC_DATA_HELPER &>, COMDAT

; 1454 :     remove_reference_t<_Ty>& _Arg) noexcept { // forward an lvalue as either an lvalue or an rvalue

  00000	55		 push	 ebp
  00001	8b ec		 mov	 ebp, esp
  00003	83 ec 40	 sub	 esp, 64			; 00000040H
  00006	53		 push	 ebx
  00007	56		 push	 esi
  00008	57		 push	 edi

; 1455 :     return static_cast<_Ty&&>(_Arg);

  00009	8b 45 08	 mov	 eax, DWORD PTR __Arg$[ebp]

; 1456 : }

  0000c	5f		 pop	 edi
  0000d	5e		 pop	 esi
  0000e	5b		 pop	 ebx
  0000f	8b e5		 mov	 esp, ebp
  00011	5d		 pop	 ebp
  00012	c3		 ret	 0
??$forward@AAUNPC_DATA_HELPER@@@std@@YAAAUNPC_DATA_HELPER@@AAU1@@Z ENDP ; std::forward<NPC_DATA_HELPER &>
_TEXT	ENDS
; Function compile flags: /Odtp /ZI
; File C:\Program Files (x86)\Microsoft Visual Studio\2019\Community\VC\Tools\MSVC\14.27.29110\include\type_traits
;	COMDAT ??$forward@AAH@std@@YAAAHAAH@Z
_TEXT	SEGMENT
__Arg$ = 8						; size = 4
??$forward@AAH@std@@YAAAHAAH@Z PROC			; std::forward<int &>, COMDAT

; 1454 :     remove_reference_t<_Ty>& _Arg) noexcept { // forward an lvalue as either an lvalue or an rvalue

  00000	55		 push	 ebp
  00001	8b ec		 mov	 ebp, esp
  00003	83 ec 40	 sub	 esp, 64			; 00000040H
  00006	53		 push	 ebx
  00007	56		 push	 esi
  00008	57		 push	 edi

; 1455 :     return static_cast<_Ty&&>(_Arg);

  00009	8b 45 08	 mov	 eax, DWORD PTR __Arg$[ebp]

; 1456 : }

  0000c	5f		 pop	 edi
  0000d	5e		 pop	 esi
  0000e	5b		 pop	 ebx
  0000f	8b e5		 mov	 esp, ebp
  00011	5d		 pop	 ebp
  00012	c3		 ret	 0
??$forward@AAH@std@@YAAAHAAH@Z ENDP			; std::forward<int &>
_TEXT	ENDS
; Function compile flags: /Odtp /ZI
; File C:\Program Files (x86)\Microsoft Visual Studio\2019\Community\VC\Tools\MSVC\14.27.29110\include\xtree
;	COMDAT ??$_Buyheadnode@V?$allocator@U?$_Tree_node@U?$pair@$$CBHUNPC_DATA_HELPER@@@std@@PAX@std@@@std@@@?$_Tree_node@U?$pair@$$CBHUNPC_DATA_HELPER@@@std@@PAX@std@@SAPAU01@AAV?$allocator@U?$_Tree_node@U?$pair@$$CBHUNPC_DATA_HELPER@@@std@@PAX@std@@@1@@Z
_TEXT	SEGMENT
__Pnode$ = -4						; size = 4
__Al$ = 8						; size = 4
??$_Buyheadnode@V?$allocator@U?$_Tree_node@U?$pair@$$CBHUNPC_DATA_HELPER@@@std@@PAX@std@@@std@@@?$_Tree_node@U?$pair@$$CBHUNPC_DATA_HELPER@@@std@@PAX@std@@SAPAU01@AAV?$allocator@U?$_Tree_node@U?$pair@$$CBHUNPC_DATA_HELPER@@@std@@PAX@std@@@1@@Z PROC ; std::_Tree_node<std::pair<int const ,NPC_DATA_HELPER>,void *>::_Buyheadnode<std::allocator<std::_Tree_node<std::pair<int const ,NPC_DATA_HELPER>,void *> > >, COMDAT

; 341  :     static _Nodeptr _Buyheadnode(_Alloc& _Al) {

  00000	55		 push	 ebp
  00001	8b ec		 mov	 ebp, esp
  00003	83 ec 44	 sub	 esp, 68			; 00000044H
  00006	53		 push	 ebx
  00007	56		 push	 esi
  00008	57		 push	 edi

; 342  :         static_assert(is_same_v<typename _Alloc::value_type, _Tree_node>, "Bad _Buyheadnode call");
; 343  :         const auto _Pnode = _Al.allocate(1);

  00009	6a 01		 push	 1
  0000b	8b 4d 08	 mov	 ecx, DWORD PTR __Al$[ebp]
  0000e	e8 00 00 00 00	 call	 ?allocate@?$allocator@U?$_Tree_node@U?$pair@$$CBHUNPC_DATA_HELPER@@@std@@PAX@std@@@std@@QAEPAU?$_Tree_node@U?$pair@$$CBHUNPC_DATA_HELPER@@@std@@PAX@2@I@Z ; std::allocator<std::_Tree_node<std::pair<int const ,NPC_DATA_HELPER>,void *> >::allocate
  00013	89 45 fc	 mov	 DWORD PTR __Pnode$[ebp], eax

; 344  :         _Construct_in_place(_Pnode->_Left, _Pnode);

  00016	8d 45 fc	 lea	 eax, DWORD PTR __Pnode$[ebp]
  00019	50		 push	 eax
  0001a	8b 4d fc	 mov	 ecx, DWORD PTR __Pnode$[ebp]
  0001d	51		 push	 ecx
  0001e	e8 00 00 00 00	 call	 ??$_Construct_in_place@PAU?$_Tree_node@U?$pair@$$CBHUNPC_DATA_HELPER@@@std@@PAX@std@@ABQAU12@@std@@YAXAAPAU?$_Tree_node@U?$pair@$$CBHUNPC_DATA_HELPER@@@std@@PAX@0@ABQAU10@@Z ; std::_Construct_in_place<std::_Tree_node<std::pair<int const ,NPC_DATA_HELPER>,void *> *,std::_Tree_node<std::pair<int const ,NPC_DATA_HELPER>,void *> * const &>
  00023	83 c4 08	 add	 esp, 8

; 345  :         _Construct_in_place(_Pnode->_Parent, _Pnode);

  00026	8d 45 fc	 lea	 eax, DWORD PTR __Pnode$[ebp]
  00029	50		 push	 eax
  0002a	8b 4d fc	 mov	 ecx, DWORD PTR __Pnode$[ebp]
  0002d	83 c1 04	 add	 ecx, 4
  00030	51		 push	 ecx
  00031	e8 00 00 00 00	 call	 ??$_Construct_in_place@PAU?$_Tree_node@U?$pair@$$CBHUNPC_DATA_HELPER@@@std@@PAX@std@@ABQAU12@@std@@YAXAAPAU?$_Tree_node@U?$pair@$$CBHUNPC_DATA_HELPER@@@std@@PAX@0@ABQAU10@@Z ; std::_Construct_in_place<std::_Tree_node<std::pair<int const ,NPC_DATA_HELPER>,void *> *,std::_Tree_node<std::pair<int const ,NPC_DATA_HELPER>,void *> * const &>
  00036	83 c4 08	 add	 esp, 8

; 346  :         _Construct_in_place(_Pnode->_Right, _Pnode);

  00039	8d 45 fc	 lea	 eax, DWORD PTR __Pnode$[ebp]
  0003c	50		 push	 eax
  0003d	8b 4d fc	 mov	 ecx, DWORD PTR __Pnode$[ebp]
  00040	83 c1 08	 add	 ecx, 8
  00043	51		 push	 ecx
  00044	e8 00 00 00 00	 call	 ??$_Construct_in_place@PAU?$_Tree_node@U?$pair@$$CBHUNPC_DATA_HELPER@@@std@@PAX@std@@ABQAU12@@std@@YAXAAPAU?$_Tree_node@U?$pair@$$CBHUNPC_DATA_HELPER@@@std@@PAX@0@ABQAU10@@Z ; std::_Construct_in_place<std::_Tree_node<std::pair<int const ,NPC_DATA_HELPER>,void *> *,std::_Tree_node<std::pair<int const ,NPC_DATA_HELPER>,void *> * const &>
  00049	83 c4 08	 add	 esp, 8

; 347  :         _Pnode->_Color = _Black;

  0004c	8b 45 fc	 mov	 eax, DWORD PTR __Pnode$[ebp]
  0004f	c6 40 0c 01	 mov	 BYTE PTR [eax+12], 1

; 348  :         _Pnode->_Isnil = true;

  00053	8b 45 fc	 mov	 eax, DWORD PTR __Pnode$[ebp]
  00056	c6 40 0d 01	 mov	 BYTE PTR [eax+13], 1

; 349  :         return _Pnode;

  0005a	8b 45 fc	 mov	 eax, DWORD PTR __Pnode$[ebp]

; 350  :     }

  0005d	5f		 pop	 edi
  0005e	5e		 pop	 esi
  0005f	5b		 pop	 ebx
  00060	8b e5		 mov	 esp, ebp
  00062	5d		 pop	 ebp
  00063	c3		 ret	 0
??$_Buyheadnode@V?$allocator@U?$_Tree_node@U?$pair@$$CBHUNPC_DATA_HELPER@@@std@@PAX@std@@@std@@@?$_Tree_node@U?$pair@$$CBHUNPC_DATA_HELPER@@@std@@PAX@std@@SAPAU01@AAV?$allocator@U?$_Tree_node@U?$pair@$$CBHUNPC_DATA_HELPER@@@std@@PAX@std@@@1@@Z ENDP ; std::_Tree_node<std::pair<int const ,NPC_DATA_HELPER>,void *>::_Buyheadnode<std::allocator<std::_Tree_node<std::pair<int const ,NPC_DATA_HELPER>,void *> > >
_TEXT	ENDS
; Function compile flags: /Odtp /ZI
; File C:\Program Files (x86)\Microsoft Visual Studio\2019\Community\VC\Tools\MSVC\14.27.29110\include\xmemory
;	COMDAT ??$?0$$V@?$_Compressed_pair@V?$allocator@U?$_Tree_node@U?$pair@$$CBHUNPC_DATA_HELPER@@@std@@PAX@std@@@std@@V?$_Tree_val@U?$_Tree_simple_types@U?$pair@$$CBHUNPC_DATA_HELPER@@@std@@@std@@@2@$00@std@@QAE@U_Zero_then_variadic_args_t@1@@Z
_TEXT	SEGMENT
_this$ = -4						; size = 4
___formal$ = 8						; size = 1
??$?0$$V@?$_Compressed_pair@V?$allocator@U?$_Tree_node@U?$pair@$$CBHUNPC_DATA_HELPER@@@std@@PAX@std@@@std@@V?$_Tree_val@U?$_Tree_simple_types@U?$pair@$$CBHUNPC_DATA_HELPER@@@std@@@std@@@2@$00@std@@QAE@U_Zero_then_variadic_args_t@1@@Z PROC ; std::_Compressed_pair<std::allocator<std::_Tree_node<std::pair<int const ,NPC_DATA_HELPER>,void *> >,std::_Tree_val<std::_Tree_simple_types<std::pair<int const ,NPC_DATA_HELPER> > >,1>::_Compressed_pair<std::allocator<std::_Tree_node<std::pair<int const ,NPC_DATA_HELPER>,void *> >,std::_Tree_val<std::_Tree_simple_types<std::pair<int const ,NPC_DATA_HELPER> > >,1><>, COMDAT
; _this$ = ecx

; 1336 :         : _Ty1(), _Myval2(_STD forward<_Other2>(_Val2)...) {}

  00000	55		 push	 ebp
  00001	8b ec		 mov	 ebp, esp
  00003	83 ec 44	 sub	 esp, 68			; 00000044H
  00006	53		 push	 ebx
  00007	56		 push	 esi
  00008	57		 push	 edi
  00009	89 4d fc	 mov	 DWORD PTR _this$[ebp], ecx
  0000c	8b 4d fc	 mov	 ecx, DWORD PTR _this$[ebp]
  0000f	e8 00 00 00 00	 call	 ??0?$allocator@U?$_Tree_node@U?$pair@$$CBHUNPC_DATA_HELPER@@@std@@PAX@std@@@std@@QAE@XZ ; std::allocator<std::_Tree_node<std::pair<int const ,NPC_DATA_HELPER>,void *> >::allocator<std::_Tree_node<std::pair<int const ,NPC_DATA_HELPER>,void *> >
  00014	8b 4d fc	 mov	 ecx, DWORD PTR _this$[ebp]
  00017	e8 00 00 00 00	 call	 ??0?$_Tree_val@U?$_Tree_simple_types@U?$pair@$$CBHUNPC_DATA_HELPER@@@std@@@std@@@std@@QAE@XZ ; std::_Tree_val<std::_Tree_simple_types<std::pair<int const ,NPC_DATA_HELPER> > >::_Tree_val<std::_Tree_simple_types<std::pair<int const ,NPC_DATA_HELPER> > >
  0001c	8b 45 fc	 mov	 eax, DWORD PTR _this$[ebp]
  0001f	5f		 pop	 edi
  00020	5e		 pop	 esi
  00021	5b		 pop	 ebx
  00022	8b e5		 mov	 esp, ebp
  00024	5d		 pop	 ebp
  00025	c2 04 00	 ret	 4
??$?0$$V@?$_Compressed_pair@V?$allocator@U?$_Tree_node@U?$pair@$$CBHUNPC_DATA_HELPER@@@std@@PAX@std@@@std@@V?$_Tree_val@U?$_Tree_simple_types@U?$pair@$$CBHUNPC_DATA_HELPER@@@std@@@std@@@2@$00@std@@QAE@U_Zero_then_variadic_args_t@1@@Z ENDP ; std::_Compressed_pair<std::allocator<std::_Tree_node<std::pair<int const ,NPC_DATA_HELPER>,void *> >,std::_Tree_val<std::_Tree_simple_types<std::pair<int const ,NPC_DATA_HELPER> > >,1>::_Compressed_pair<std::allocator<std::_Tree_node<std::pair<int const ,NPC_DATA_HELPER>,void *> >,std::_Tree_val<std::_Tree_simple_types<std::pair<int const ,NPC_DATA_HELPER> > >,1><>
_TEXT	ENDS
; Function compile flags: /Odtp /ZI
; File C:\Program Files (x86)\Microsoft Visual Studio\2019\Community\VC\Tools\MSVC\14.27.29110\include\xmemory
;	COMDAT ??$?0ABU?$less@H@std@@U_Zero_then_variadic_args_t@1@@?$_Compressed_pair@U?$less@H@std@@V?$_Compressed_pair@V?$allocator@U?$_Tree_node@U?$pair@$$CBHUNPC_DATA_HELPER@@@std@@PAX@std@@@std@@V?$_Tree_val@U?$_Tree_simple_types@U?$pair@$$CBHUNPC_DATA_HELPER@@@std@@@std@@@2@$00@2@$00@std@@QAE@U_One_then_variadic_args_t@1@ABU?$less@H@1@$$QAU_Zero_then_variadic_args_t@1@@Z
_TEXT	SEGMENT
_this$ = -4						; size = 4
___formal$ = 8						; size = 1
__Val1$ = 12						; size = 4
_<_Val2_0>$ = 16					; size = 4
??$?0ABU?$less@H@std@@U_Zero_then_variadic_args_t@1@@?$_Compressed_pair@U?$less@H@std@@V?$_Compressed_pair@V?$allocator@U?$_Tree_node@U?$pair@$$CBHUNPC_DATA_HELPER@@@std@@PAX@std@@@std@@V?$_Tree_val@U?$_Tree_simple_types@U?$pair@$$CBHUNPC_DATA_HELPER@@@std@@@std@@@2@$00@2@$00@std@@QAE@U_One_then_variadic_args_t@1@ABU?$less@H@1@$$QAU_Zero_then_variadic_args_t@1@@Z PROC ; std::_Compressed_pair<std::less<int>,std::_Compressed_pair<std::allocator<std::_Tree_node<std::pair<int const ,NPC_DATA_HELPER>,void *> >,std::_Tree_val<std::_Tree_simple_types<std::pair<int const ,NPC_DATA_HELPER> > >,1>,1>::_Compressed_pair<std::less<int>,std::_Compressed_pair<std::allocator<std::_Tree_node<std::pair<int const ,NPC_DATA_HELPER>,void *> >,std::_Tree_val<std::_Tree_simple_types<std::pair<int const ,NPC_DATA_HELPER> > >,1>,1><std::less<int> const &,std::_Zero_then_variadic_args_t>, COMDAT
; _this$ = ecx

; 1341 :         : _Ty1(_STD forward<_Other1>(_Val1)), _Myval2(_STD forward<_Other2>(_Val2)...) {}

  00000	55		 push	 ebp
  00001	8b ec		 mov	 ebp, esp
  00003	83 ec 44	 sub	 esp, 68			; 00000044H
  00006	53		 push	 ebx
  00007	56		 push	 esi
  00008	57		 push	 edi
  00009	89 4d fc	 mov	 DWORD PTR _this$[ebp], ecx
  0000c	8b 45 0c	 mov	 eax, DWORD PTR __Val1$[ebp]
  0000f	50		 push	 eax
  00010	e8 00 00 00 00	 call	 ??$forward@ABU?$less@H@std@@@std@@YAABU?$less@H@0@ABU10@@Z ; std::forward<std::less<int> const &>
  00015	83 c4 04	 add	 esp, 4
  00018	8b 45 10	 mov	 eax, DWORD PTR _<_Val2_0>$[ebp]
  0001b	50		 push	 eax
  0001c	e8 00 00 00 00	 call	 ??$forward@U_Zero_then_variadic_args_t@std@@@std@@YA$$QAU_Zero_then_variadic_args_t@0@AAU10@@Z ; std::forward<std::_Zero_then_variadic_args_t>
  00021	83 c4 04	 add	 esp, 4
  00024	8a 08		 mov	 cl, BYTE PTR [eax]
  00026	0f b6 d1	 movzx	 edx, cl
  00029	52		 push	 edx
  0002a	8b 4d fc	 mov	 ecx, DWORD PTR _this$[ebp]
  0002d	e8 00 00 00 00	 call	 ??$?0$$V@?$_Compressed_pair@V?$allocator@U?$_Tree_node@U?$pair@$$CBHUNPC_DATA_HELPER@@@std@@PAX@std@@@std@@V?$_Tree_val@U?$_Tree_simple_types@U?$pair@$$CBHUNPC_DATA_HELPER@@@std@@@std@@@2@$00@std@@QAE@U_Zero_then_variadic_args_t@1@@Z ; std::_Compressed_pair<std::allocator<std::_Tree_node<std::pair<int const ,NPC_DATA_HELPER>,void *> >,std::_Tree_val<std::_Tree_simple_types<std::pair<int const ,NPC_DATA_HELPER> > >,1>::_Compressed_pair<std::allocator<std::_Tree_node<std::pair<int const ,NPC_DATA_HELPER>,void *> >,std::_Tree_val<std::_Tree_simple_types<std::pair<int const ,NPC_DATA_HELPER> > >,1><>
  00032	8b 45 fc	 mov	 eax, DWORD PTR _this$[ebp]
  00035	5f		 pop	 edi
  00036	5e		 pop	 esi
  00037	5b		 pop	 ebx
  00038	8b e5		 mov	 esp, ebp
  0003a	5d		 pop	 ebp
  0003b	c2 0c 00	 ret	 12			; 0000000cH
??$?0ABU?$less@H@std@@U_Zero_then_variadic_args_t@1@@?$_Compressed_pair@U?$less@H@std@@V?$_Compressed_pair@V?$allocator@U?$_Tree_node@U?$pair@$$CBHUNPC_DATA_HELPER@@@std@@PAX@std@@@std@@V?$_Tree_val@U?$_Tree_simple_types@U?$pair@$$CBHUNPC_DATA_HELPER@@@std@@@std@@@2@$00@2@$00@std@@QAE@U_One_then_variadic_args_t@1@ABU?$less@H@1@$$QAU_Zero_then_variadic_args_t@1@@Z ENDP ; std::_Compressed_pair<std::less<int>,std::_Compressed_pair<std::allocator<std::_Tree_node<std::pair<int const ,NPC_DATA_HELPER>,void *> >,std::_Tree_val<std::_Tree_simple_types<std::pair<int const ,NPC_DATA_HELPER> > >,1>,1>::_Compressed_pair<std::less<int>,std::_Compressed_pair<std::allocator<std::_Tree_node<std::pair<int const ,NPC_DATA_HELPER>,void *> >,std::_Tree_val<std::_Tree_simple_types<std::pair<int const ,NPC_DATA_HELPER> > >,1>,1><std::less<int> const &,std::_Zero_then_variadic_args_t>
_TEXT	ENDS
; Function compile flags: /Odtp /ZI
; File C:\Program Files (x86)\Microsoft Visual Studio\2019\Community\VC\Tools\MSVC\14.27.29110\include\xstddef
;	COMDAT ??$addressof@V?$_Tree_val@U?$_Tree_simple_types@U?$pair@$$CBHUNPC_DATA_HELPER@@@std@@@std@@@std@@@std@@YAPAV?$_Tree_val@U?$_Tree_simple_types@U?$pair@$$CBHUNPC_DATA_HELPER@@@std@@@std@@@0@AAV10@@Z
_TEXT	SEGMENT
__Val$ = 8						; size = 4
??$addressof@V?$_Tree_val@U?$_Tree_simple_types@U?$pair@$$CBHUNPC_DATA_HELPER@@@std@@@std@@@std@@@std@@YAPAV?$_Tree_val@U?$_Tree_simple_types@U?$pair@$$CBHUNPC_DATA_HELPER@@@std@@@std@@@0@AAV10@@Z PROC ; std::addressof<std::_Tree_val<std::_Tree_simple_types<std::pair<int const ,NPC_DATA_HELPER> > > >, COMDAT

; 274  : _NODISCARD constexpr _Ty* addressof(_Ty& _Val) noexcept {

  00000	55		 push	 ebp
  00001	8b ec		 mov	 ebp, esp
  00003	83 ec 40	 sub	 esp, 64			; 00000040H
  00006	53		 push	 ebx
  00007	56		 push	 esi
  00008	57		 push	 edi

; 275  :     return __builtin_addressof(_Val);

  00009	8b 45 08	 mov	 eax, DWORD PTR __Val$[ebp]

; 276  : }

  0000c	5f		 pop	 edi
  0000d	5e		 pop	 esi
  0000e	5b		 pop	 ebx
  0000f	8b e5		 mov	 esp, ebp
  00011	5d		 pop	 ebp
  00012	c3		 ret	 0
??$addressof@V?$_Tree_val@U?$_Tree_simple_types@U?$pair@$$CBHUNPC_DATA_HELPER@@@std@@@std@@@std@@@std@@YAPAV?$_Tree_val@U?$_Tree_simple_types@U?$pair@$$CBHUNPC_DATA_HELPER@@@std@@@std@@@0@AAV10@@Z ENDP ; std::addressof<std::_Tree_val<std::_Tree_simple_types<std::pair<int const ,NPC_DATA_HELPER> > > >
_TEXT	ENDS
; Function compile flags: /Odtp /ZI
; File C:\Program Files (x86)\Microsoft Visual Studio\2019\Community\VC\Tools\MSVC\14.27.29110\include\xstddef
;	COMDAT ??$addressof@$$CBV?$_Tree_val@U?$_Tree_simple_types@U?$pair@$$CBHUNPC_DATA_HELPER@@@std@@@std@@@std@@@std@@YAPBV?$_Tree_val@U?$_Tree_simple_types@U?$pair@$$CBHUNPC_DATA_HELPER@@@std@@@std@@@0@ABV10@@Z
_TEXT	SEGMENT
__Val$ = 8						; size = 4
??$addressof@$$CBV?$_Tree_val@U?$_Tree_simple_types@U?$pair@$$CBHUNPC_DATA_HELPER@@@std@@@std@@@std@@@std@@YAPBV?$_Tree_val@U?$_Tree_simple_types@U?$pair@$$CBHUNPC_DATA_HELPER@@@std@@@std@@@0@ABV10@@Z PROC ; std::addressof<std::_Tree_val<std::_Tree_simple_types<std::pair<int const ,NPC_DATA_HELPER> > > const >, COMDAT

; 274  : _NODISCARD constexpr _Ty* addressof(_Ty& _Val) noexcept {

  00000	55		 push	 ebp
  00001	8b ec		 mov	 ebp, esp
  00003	83 ec 40	 sub	 esp, 64			; 00000040H
  00006	53		 push	 ebx
  00007	56		 push	 esi
  00008	57		 push	 edi

; 275  :     return __builtin_addressof(_Val);

  00009	8b 45 08	 mov	 eax, DWORD PTR __Val$[ebp]

; 276  : }

  0000c	5f		 pop	 edi
  0000d	5e		 pop	 esi
  0000e	5b		 pop	 ebx
  0000f	8b e5		 mov	 esp, ebp
  00011	5d		 pop	 ebp
  00012	c3		 ret	 0
??$addressof@$$CBV?$_Tree_val@U?$_Tree_simple_types@U?$pair@$$CBHUNPC_DATA_HELPER@@@std@@@std@@@std@@@std@@YAPBV?$_Tree_val@U?$_Tree_simple_types@U?$pair@$$CBHUNPC_DATA_HELPER@@@std@@@std@@@0@ABV10@@Z ENDP ; std::addressof<std::_Tree_val<std::_Tree_simple_types<std::pair<int const ,NPC_DATA_HELPER> > > const >
_TEXT	ENDS
; Function compile flags: /Odtp /ZI
; File C:\Program Files (x86)\Microsoft Visual Studio\2019\Community\VC\Tools\MSVC\14.27.29110\include\xstddef
;	COMDAT ??$addressof@U?$pair@$$CBHUNPC_DATA_HELPER@@@std@@@std@@YAPAU?$pair@$$CBHUNPC_DATA_HELPER@@@0@AAU10@@Z
_TEXT	SEGMENT
__Val$ = 8						; size = 4
??$addressof@U?$pair@$$CBHUNPC_DATA_HELPER@@@std@@@std@@YAPAU?$pair@$$CBHUNPC_DATA_HELPER@@@0@AAU10@@Z PROC ; std::addressof<std::pair<int const ,NPC_DATA_HELPER> >, COMDAT

; 274  : _NODISCARD constexpr _Ty* addressof(_Ty& _Val) noexcept {

  00000	55		 push	 ebp
  00001	8b ec		 mov	 ebp, esp
  00003	83 ec 40	 sub	 esp, 64			; 00000040H
  00006	53		 push	 ebx
  00007	56		 push	 esi
  00008	57		 push	 edi

; 275  :     return __builtin_addressof(_Val);

  00009	8b 45 08	 mov	 eax, DWORD PTR __Val$[ebp]

; 276  : }

  0000c	5f		 pop	 edi
  0000d	5e		 pop	 esi
  0000e	5b		 pop	 ebx
  0000f	8b e5		 mov	 esp, ebp
  00011	5d		 pop	 ebp
  00012	c3		 ret	 0
??$addressof@U?$pair@$$CBHUNPC_DATA_HELPER@@@std@@@std@@YAPAU?$pair@$$CBHUNPC_DATA_HELPER@@@0@AAU10@@Z ENDP ; std::addressof<std::pair<int const ,NPC_DATA_HELPER> >
_TEXT	ENDS
; Function compile flags: /Odtp /ZI
; File C:\Program Files (x86)\Microsoft Visual Studio\2019\Community\VC\Tools\MSVC\14.27.29110\include\xtree
;	COMDAT ??$_Erase_head@V?$allocator@U?$_Tree_node@U?$pair@$$CBHUNPC_DATA_HELPER@@@std@@PAX@std@@@std@@@?$_Tree_val@U?$_Tree_simple_types@U?$pair@$$CBHUNPC_DATA_HELPER@@@std@@@std@@@std@@QAEXAAV?$allocator@U?$_Tree_node@U?$pair@$$CBHUNPC_DATA_HELPER@@@std@@PAX@std@@@1@@Z
_TEXT	SEGMENT
_this$ = -4						; size = 4
__Al$ = 8						; size = 4
??$_Erase_head@V?$allocator@U?$_Tree_node@U?$pair@$$CBHUNPC_DATA_HELPER@@@std@@PAX@std@@@std@@@?$_Tree_val@U?$_Tree_simple_types@U?$pair@$$CBHUNPC_DATA_HELPER@@@std@@@std@@@std@@QAEXAAV?$allocator@U?$_Tree_node@U?$pair@$$CBHUNPC_DATA_HELPER@@@std@@PAX@std@@@1@@Z PROC ; std::_Tree_val<std::_Tree_simple_types<std::pair<int const ,NPC_DATA_HELPER> > >::_Erase_head<std::allocator<std::_Tree_node<std::pair<int const ,NPC_DATA_HELPER>,void *> > >, COMDAT
; _this$ = ecx

; 750  :     void _Erase_head(_Alnode& _Al) noexcept {

  00000	55		 push	 ebp
  00001	8b ec		 mov	 ebp, esp
  00003	83 ec 44	 sub	 esp, 68			; 00000044H
  00006	53		 push	 ebx
  00007	56		 push	 esi
  00008	57		 push	 edi
  00009	89 4d fc	 mov	 DWORD PTR _this$[ebp], ecx

; 751  :         this->_Orphan_all();

  0000c	8b 4d fc	 mov	 ecx, DWORD PTR _this$[ebp]
  0000f	e8 00 00 00 00	 call	 ?_Orphan_all@_Container_base0@std@@QAEXXZ ; std::_Container_base0::_Orphan_all

; 752  :         _Erase_tree(_Al, _Myhead->_Parent);

  00014	8b 45 fc	 mov	 eax, DWORD PTR _this$[ebp]
  00017	8b 08		 mov	 ecx, DWORD PTR [eax]
  00019	8b 51 04	 mov	 edx, DWORD PTR [ecx+4]
  0001c	52		 push	 edx
  0001d	8b 45 08	 mov	 eax, DWORD PTR __Al$[ebp]
  00020	50		 push	 eax
  00021	8b 4d fc	 mov	 ecx, DWORD PTR _this$[ebp]
  00024	e8 00 00 00 00	 call	 ??$_Erase_tree@V?$allocator@U?$_Tree_node@U?$pair@$$CBHUNPC_DATA_HELPER@@@std@@PAX@std@@@std@@@?$_Tree_val@U?$_Tree_simple_types@U?$pair@$$CBHUNPC_DATA_HELPER@@@std@@@std@@@std@@QAEXAAV?$allocator@U?$_Tree_node@U?$pair@$$CBHUNPC_DATA_HELPER@@@std@@PAX@std@@@1@PAU?$_Tree_node@U?$pair@$$CBHUNPC_DATA_HELPER@@@std@@PAX@1@@Z ; std::_Tree_val<std::_Tree_simple_types<std::pair<int const ,NPC_DATA_HELPER> > >::_Erase_tree<std::allocator<std::_Tree_node<std::pair<int const ,NPC_DATA_HELPER>,void *> > >

; 753  :         _Alnode::value_type::_Freenode0(_Al, _Myhead);

  00029	8b 45 fc	 mov	 eax, DWORD PTR _this$[ebp]
  0002c	8b 08		 mov	 ecx, DWORD PTR [eax]
  0002e	51		 push	 ecx
  0002f	8b 55 08	 mov	 edx, DWORD PTR __Al$[ebp]
  00032	52		 push	 edx
  00033	e8 00 00 00 00	 call	 ??$_Freenode0@V?$allocator@U?$_Tree_node@U?$pair@$$CBHUNPC_DATA_HELPER@@@std@@PAX@std@@@std@@@?$_Tree_node@U?$pair@$$CBHUNPC_DATA_HELPER@@@std@@PAX@std@@SAXAAV?$allocator@U?$_Tree_node@U?$pair@$$CBHUNPC_DATA_HELPER@@@std@@PAX@std@@@1@PAU01@@Z ; std::_Tree_node<std::pair<int const ,NPC_DATA_HELPER>,void *>::_Freenode0<std::allocator<std::_Tree_node<std::pair<int const ,NPC_DATA_HELPER>,void *> > >
  00038	83 c4 08	 add	 esp, 8

; 754  :     }

  0003b	5f		 pop	 edi
  0003c	5e		 pop	 esi
  0003d	5b		 pop	 ebx
  0003e	8b e5		 mov	 esp, ebp
  00040	5d		 pop	 ebp
  00041	c2 04 00	 ret	 4
??$_Erase_head@V?$allocator@U?$_Tree_node@U?$pair@$$CBHUNPC_DATA_HELPER@@@std@@PAX@std@@@std@@@?$_Tree_val@U?$_Tree_simple_types@U?$pair@$$CBHUNPC_DATA_HELPER@@@std@@@std@@@std@@QAEXAAV?$allocator@U?$_Tree_node@U?$pair@$$CBHUNPC_DATA_HELPER@@@std@@PAX@std@@@1@@Z ENDP ; std::_Tree_val<std::_Tree_simple_types<std::pair<int const ,NPC_DATA_HELPER> > >::_Erase_head<std::allocator<std::_Tree_node<std::pair<int const ,NPC_DATA_HELPER>,void *> > >
_TEXT	ENDS
; Function compile flags: /Odtp /ZI
; File C:\Program Files (x86)\Microsoft Visual Studio\2019\Community\VC\Tools\MSVC\14.27.29110\include\xtree
;	COMDAT ??$_Find@H@?$_Tree@V?$_Tmap_traits@HUNPC_DATA_HELPER@@U?$less@H@std@@V?$allocator@U?$pair@$$CBHUNPC_DATA_HELPER@@@std@@@3@$0A@@std@@@std@@ABEPAU?$_Tree_node@U?$pair@$$CBHUNPC_DATA_HELPER@@@std@@PAX@1@ABH@Z
_TEXT	SEGMENT
__Loc$ = -16						; size = 12
_this$ = -4						; size = 4
__Keyval$ = 8						; size = 4
??$_Find@H@?$_Tree@V?$_Tmap_traits@HUNPC_DATA_HELPER@@U?$less@H@std@@V?$allocator@U?$pair@$$CBHUNPC_DATA_HELPER@@@std@@@3@$0A@@std@@@std@@ABEPAU?$_Tree_node@U?$pair@$$CBHUNPC_DATA_HELPER@@@std@@PAX@1@ABH@Z PROC ; std::_Tree<std::_Tmap_traits<int,NPC_DATA_HELPER,std::less<int>,std::allocator<std::pair<int const ,NPC_DATA_HELPER> >,0> >::_Find<int>, COMDAT
; _this$ = ecx

; 1457 :     _NODISCARD _Nodeptr _Find(const _Other& _Keyval) const {

  00000	55		 push	 ebp
  00001	8b ec		 mov	 ebp, esp
  00003	83 ec 50	 sub	 esp, 80			; 00000050H
  00006	53		 push	 ebx
  00007	56		 push	 esi
  00008	57		 push	 edi
  00009	89 4d fc	 mov	 DWORD PTR _this$[ebp], ecx

; 1458 :         const _Tree_find_result<_Nodeptr> _Loc = _Find_lower_bound(_Keyval);

  0000c	8b 45 08	 mov	 eax, DWORD PTR __Keyval$[ebp]
  0000f	50		 push	 eax
  00010	8d 4d f0	 lea	 ecx, DWORD PTR __Loc$[ebp]
  00013	51		 push	 ecx
  00014	8b 4d fc	 mov	 ecx, DWORD PTR _this$[ebp]
  00017	e8 00 00 00 00	 call	 ??$_Find_lower_bound@H@?$_Tree@V?$_Tmap_traits@HUNPC_DATA_HELPER@@U?$less@H@std@@V?$allocator@U?$pair@$$CBHUNPC_DATA_HELPER@@@std@@@3@$0A@@std@@@std@@IBE?AU?$_Tree_find_result@PAU?$_Tree_node@U?$pair@$$CBHUNPC_DATA_HELPER@@@std@@PAX@std@@@1@ABH@Z ; std::_Tree<std::_Tmap_traits<int,NPC_DATA_HELPER,std::less<int>,std::allocator<std::pair<int const ,NPC_DATA_HELPER> >,0> >::_Find_lower_bound<int>

; 1459 :         if (_Lower_bound_duplicate(_Loc._Bound, _Keyval)) {

  0001c	8b 45 08	 mov	 eax, DWORD PTR __Keyval$[ebp]
  0001f	50		 push	 eax
  00020	8b 4d f8	 mov	 ecx, DWORD PTR __Loc$[ebp+8]
  00023	51		 push	 ecx
  00024	8b 4d fc	 mov	 ecx, DWORD PTR _this$[ebp]
  00027	e8 00 00 00 00	 call	 ??$_Lower_bound_duplicate@H@?$_Tree@V?$_Tmap_traits@HUNPC_DATA_HELPER@@U?$less@H@std@@V?$allocator@U?$pair@$$CBHUNPC_DATA_HELPER@@@std@@@3@$0A@@std@@@std@@IBE_NQAU?$_Tree_node@U?$pair@$$CBHUNPC_DATA_HELPER@@@std@@PAX@1@ABH@Z ; std::_Tree<std::_Tmap_traits<int,NPC_DATA_HELPER,std::less<int>,std::allocator<std::pair<int const ,NPC_DATA_HELPER> >,0> >::_Lower_bound_duplicate<int>
  0002c	0f b6 d0	 movzx	 edx, al
  0002f	85 d2		 test	 edx, edx
  00031	74 05		 je	 SHORT $LN2@Find

; 1460 :             return _Loc._Bound;

  00033	8b 45 f8	 mov	 eax, DWORD PTR __Loc$[ebp+8]
  00036	eb 0a		 jmp	 SHORT $LN1@Find
$LN2@Find:

; 1461 :         }
; 1462 : 
; 1463 :         return _Get_scary()->_Myhead;

  00038	8b 4d fc	 mov	 ecx, DWORD PTR _this$[ebp]
  0003b	e8 00 00 00 00	 call	 ?_Get_scary@?$_Tree@V?$_Tmap_traits@HUNPC_DATA_HELPER@@U?$less@H@std@@V?$allocator@U?$pair@$$CBHUNPC_DATA_HELPER@@@std@@@3@$0A@@std@@@std@@IBEPBV?$_Tree_val@U?$_Tree_simple_types@U?$pair@$$CBHUNPC_DATA_HELPER@@@std@@@std@@@2@XZ ; std::_Tree<std::_Tmap_traits<int,NPC_DATA_HELPER,std::less<int>,std::allocator<std::pair<int const ,NPC_DATA_HELPER> >,0> >::_Get_scary
  00040	8b 00		 mov	 eax, DWORD PTR [eax]
$LN1@Find:

; 1464 :     }

  00042	5f		 pop	 edi
  00043	5e		 pop	 esi
  00044	5b		 pop	 ebx
  00045	8b e5		 mov	 esp, ebp
  00047	5d		 pop	 ebp
  00048	c2 04 00	 ret	 4
??$_Find@H@?$_Tree@V?$_Tmap_traits@HUNPC_DATA_HELPER@@U?$less@H@std@@V?$allocator@U?$pair@$$CBHUNPC_DATA_HELPER@@@std@@@3@$0A@@std@@@std@@ABEPAU?$_Tree_node@U?$pair@$$CBHUNPC_DATA_HELPER@@@std@@PAX@1@ABH@Z ENDP ; std::_Tree<std::_Tmap_traits<int,NPC_DATA_HELPER,std::less<int>,std::allocator<std::pair<int const ,NPC_DATA_HELPER> >,0> >::_Find<int>
_TEXT	ENDS
; Function compile flags: /Odtp /ZI
; File C:\Program Files (x86)\Microsoft Visual Studio\2019\Community\VC\Tools\MSVC\14.27.29110\include\xutility
;	COMDAT ?pointer_to@?$pointer_traits@PAU?$pair@$$CBHUNPC_DATA_HELPER@@@std@@@std@@SAPAU?$pair@$$CBHUNPC_DATA_HELPER@@@2@AAU32@@Z
_TEXT	SEGMENT
__Val$ = 8						; size = 4
?pointer_to@?$pointer_traits@PAU?$pair@$$CBHUNPC_DATA_HELPER@@@std@@@std@@SAPAU?$pair@$$CBHUNPC_DATA_HELPER@@@2@AAU32@@Z PROC ; std::pointer_traits<std::pair<int const ,NPC_DATA_HELPER> *>::pointer_to, COMDAT

; 146  :     _NODISCARD static _CONSTEXPR20 pointer pointer_to(_Reftype _Val) noexcept {

  00000	55		 push	 ebp
  00001	8b ec		 mov	 ebp, esp
  00003	83 ec 40	 sub	 esp, 64			; 00000040H
  00006	53		 push	 ebx
  00007	56		 push	 esi
  00008	57		 push	 edi

; 147  :         return _STD addressof(_Val);

  00009	8b 45 08	 mov	 eax, DWORD PTR __Val$[ebp]
  0000c	50		 push	 eax
  0000d	e8 00 00 00 00	 call	 ??$addressof@U?$pair@$$CBHUNPC_DATA_HELPER@@@std@@@std@@YAPAU?$pair@$$CBHUNPC_DATA_HELPER@@@0@AAU10@@Z ; std::addressof<std::pair<int const ,NPC_DATA_HELPER> >
  00012	83 c4 04	 add	 esp, 4

; 148  :     }

  00015	5f		 pop	 edi
  00016	5e		 pop	 esi
  00017	5b		 pop	 ebx
  00018	8b e5		 mov	 esp, ebp
  0001a	5d		 pop	 ebp
  0001b	c3		 ret	 0
?pointer_to@?$pointer_traits@PAU?$pair@$$CBHUNPC_DATA_HELPER@@@std@@@std@@SAPAU?$pair@$$CBHUNPC_DATA_HELPER@@@2@AAU32@@Z ENDP ; std::pointer_traits<std::pair<int const ,NPC_DATA_HELPER> *>::pointer_to
_TEXT	ENDS
; Function compile flags: /Odtp /ZI
; File C:\Program Files (x86)\Microsoft Visual Studio\2019\Community\VC\Tools\MSVC\14.27.29110\include\xtree
;	COMDAT ??$erase@V?$_Tree_iterator@V?$_Tree_val@U?$_Tree_simple_types@U?$pair@$$CBHUNPC_DATA_HELPER@@@std@@@std@@@std@@@std@@$0A@@?$_Tree@V?$_Tmap_traits@HUNPC_DATA_HELPER@@U?$less@H@std@@V?$allocator@U?$pair@$$CBHUNPC_DATA_HELPER@@@std@@@3@$0A@@std@@@std@@QAE?AV?$_Tree_iterator@V?$_Tree_val@U?$_Tree_simple_types@U?$pair@$$CBHUNPC_DATA_HELPER@@@std@@@std@@@std@@@1@V21@@Z
_TEXT	SEGMENT
$T2 = -92						; size = 4
$T3 = -88						; size = 4
__Scary$ = -20						; size = 4
_this$ = -16						; size = 4
__$EHRec$ = -12						; size = 12
___$ReturnUdt$ = 8					; size = 4
__Where$ = 12						; size = 4
??$erase@V?$_Tree_iterator@V?$_Tree_val@U?$_Tree_simple_types@U?$pair@$$CBHUNPC_DATA_HELPER@@@std@@@std@@@std@@@std@@$0A@@?$_Tree@V?$_Tmap_traits@HUNPC_DATA_HELPER@@U?$less@H@std@@V?$allocator@U?$pair@$$CBHUNPC_DATA_HELPER@@@std@@@3@$0A@@std@@@std@@QAE?AV?$_Tree_iterator@V?$_Tree_val@U?$_Tree_simple_types@U?$pair@$$CBHUNPC_DATA_HELPER@@@std@@@std@@@std@@@1@V21@@Z PROC ; std::_Tree<std::_Tmap_traits<int,NPC_DATA_HELPER,std::less<int>,std::allocator<std::pair<int const ,NPC_DATA_HELPER> >,0> >::erase<std::_Tree_iterator<std::_Tree_val<std::_Tree_simple_types<std::pair<int const ,NPC_DATA_HELPER> > > >,0>, COMDAT
; _this$ = ecx

; 1413 :     iterator erase(iterator _Where) noexcept /* strengthened */ {

  00000	55		 push	 ebp
  00001	8b ec		 mov	 ebp, esp
  00003	6a ff		 push	 -1
  00005	68 00 00 00 00	 push	 __ehhandler$??$erase@V?$_Tree_iterator@V?$_Tree_val@U?$_Tree_simple_types@U?$pair@$$CBHUNPC_DATA_HELPER@@@std@@@std@@@std@@@std@@$0A@@?$_Tree@V?$_Tmap_traits@HUNPC_DATA_HELPER@@U?$less@H@std@@V?$allocator@U?$pair@$$CBHUNPC_DATA_HELPER@@@std@@@3@$0A@@std@@@std@@QAE?AV?$_Tree_iterator@V?$_Tree_val@U?$_Tree_simple_types@U?$pair@$$CBHUNPC_DATA_HELPER@@@std@@@std@@@std@@@1@V21@@Z
  0000a	64 a1 00 00 00
	00		 mov	 eax, DWORD PTR fs:0
  00010	50		 push	 eax
  00011	83 ec 50	 sub	 esp, 80			; 00000050H
  00014	53		 push	 ebx
  00015	56		 push	 esi
  00016	57		 push	 edi
  00017	a1 00 00 00 00	 mov	 eax, DWORD PTR ___security_cookie
  0001c	33 c5		 xor	 eax, ebp
  0001e	50		 push	 eax
  0001f	8d 45 f4	 lea	 eax, DWORD PTR __$EHRec$[ebp]
  00022	64 a3 00 00 00
	00		 mov	 DWORD PTR fs:0, eax
  00028	89 4d f0	 mov	 DWORD PTR _this$[ebp], ecx

; 1414 :         const auto _Scary = _Get_scary();

  0002b	8b 4d f0	 mov	 ecx, DWORD PTR _this$[ebp]
  0002e	e8 00 00 00 00	 call	 ?_Get_scary@?$_Tree@V?$_Tmap_traits@HUNPC_DATA_HELPER@@U?$less@H@std@@V?$allocator@U?$pair@$$CBHUNPC_DATA_HELPER@@@std@@@3@$0A@@std@@@std@@IAEPAV?$_Tree_val@U?$_Tree_simple_types@U?$pair@$$CBHUNPC_DATA_HELPER@@@std@@@std@@@2@XZ ; std::_Tree<std::_Tmap_traits<int,NPC_DATA_HELPER,std::less<int>,std::allocator<std::pair<int const ,NPC_DATA_HELPER> >,0> >::_Get_scary
  00033	89 45 ec	 mov	 DWORD PTR __Scary$[ebp], eax

; 1415 : #if _ITERATOR_DEBUG_LEVEL == 2
; 1416 :         _STL_VERIFY(_Where._Getcont() == _Scary, "map/set erase iterator from incorrect container");
; 1417 :         _STL_VERIFY(!_Where._Ptr->_Isnil, "cannot erase map/set end() iterator");
; 1418 : #endif // _ITERATOR_DEBUG_LEVEL == 2
; 1419 :         return iterator(_Erase_unchecked(_Where._Unwrapped()), _Scary);

  00036	8d 45 a4	 lea	 eax, DWORD PTR $T2[ebp]
  00039	50		 push	 eax
  0003a	8d 4d 0c	 lea	 ecx, DWORD PTR __Where$[ebp]
  0003d	e8 00 00 00 00	 call	 ?_Unwrapped@?$_Tree_iterator@V?$_Tree_val@U?$_Tree_simple_types@U?$pair@$$CBHUNPC_DATA_HELPER@@@std@@@std@@@std@@@std@@QBE?AV?$_Tree_unchecked_iterator@V?$_Tree_val@U?$_Tree_simple_types@U?$pair@$$CBHUNPC_DATA_HELPER@@@std@@@std@@@std@@@2@XZ ; std::_Tree_iterator<std::_Tree_val<std::_Tree_simple_types<std::pair<int const ,NPC_DATA_HELPER> > > >::_Unwrapped
  00042	8b 08		 mov	 ecx, DWORD PTR [eax]
  00044	89 4d a8	 mov	 DWORD PTR $T3[ebp], ecx
  00047	8b 55 ec	 mov	 edx, DWORD PTR __Scary$[ebp]
  0004a	52		 push	 edx
  0004b	8b 45 a8	 mov	 eax, DWORD PTR $T3[ebp]
  0004e	50		 push	 eax
  0004f	8b 4d f0	 mov	 ecx, DWORD PTR _this$[ebp]
  00052	e8 00 00 00 00	 call	 ?_Erase_unchecked@?$_Tree@V?$_Tmap_traits@HUNPC_DATA_HELPER@@U?$less@H@std@@V?$allocator@U?$pair@$$CBHUNPC_DATA_HELPER@@@std@@@3@$0A@@std@@@std@@AAEPAU?$_Tree_node@U?$pair@$$CBHUNPC_DATA_HELPER@@@std@@PAX@2@V?$_Tree_unchecked_const_iterator@V?$_Tree_val@U?$_Tree_simple_types@U?$pair@$$CBHUNPC_DATA_HELPER@@@std@@@std@@@std@@U_Iterator_base0@2@@2@@Z ; std::_Tree<std::_Tmap_traits<int,NPC_DATA_HELPER,std::less<int>,std::allocator<std::pair<int const ,NPC_DATA_HELPER> >,0> >::_Erase_unchecked
  00057	50		 push	 eax
  00058	8b 4d 08	 mov	 ecx, DWORD PTR ___$ReturnUdt$[ebp]
  0005b	e8 00 00 00 00	 call	 ??0?$_Tree_iterator@V?$_Tree_val@U?$_Tree_simple_types@U?$pair@$$CBHUNPC_DATA_HELPER@@@std@@@std@@@std@@@std@@QAE@PAU?$_Tree_node@U?$pair@$$CBHUNPC_DATA_HELPER@@@std@@PAX@1@PBV?$_Tree_val@U?$_Tree_simple_types@U?$pair@$$CBHUNPC_DATA_HELPER@@@std@@@std@@@1@@Z
  00060	8b 45 08	 mov	 eax, DWORD PTR ___$ReturnUdt$[ebp]

; 1420 :     }

  00063	8b 4d f4	 mov	 ecx, DWORD PTR __$EHRec$[ebp]
  00066	64 89 0d 00 00
	00 00		 mov	 DWORD PTR fs:0, ecx
  0006d	59		 pop	 ecx
  0006e	5f		 pop	 edi
  0006f	5e		 pop	 esi
  00070	5b		 pop	 ebx
  00071	8b e5		 mov	 esp, ebp
  00073	5d		 pop	 ebp
  00074	c2 08 00	 ret	 8
  00077	cc		 int	 3
  00078	cc		 int	 3
  00079	cc		 int	 3
  0007a	cc		 int	 3
  0007b	cc		 int	 3
_TEXT	ENDS
;	COMDAT text$x
text$x	SEGMENT
__ehhandler$??$erase@V?$_Tree_iterator@V?$_Tree_val@U?$_Tree_simple_types@U?$pair@$$CBHUNPC_DATA_HELPER@@@std@@@std@@@std@@@std@@$0A@@?$_Tree@V?$_Tmap_traits@HUNPC_DATA_HELPER@@U?$less@H@std@@V?$allocator@U?$pair@$$CBHUNPC_DATA_HELPER@@@std@@@3@$0A@@std@@@std@@QAE?AV?$_Tree_iterator@V?$_Tree_val@U?$_Tree_simple_types@U?$pair@$$CBHUNPC_DATA_HELPER@@@std@@@std@@@std@@@1@V21@@Z:
  00000	90		 npad	 1
  00001	90		 npad	 1
  00002	8b 54 24 08	 mov	 edx, DWORD PTR [esp+8]
  00006	8d 42 0c	 lea	 eax, DWORD PTR [edx+12]
  00009	8b 4a a0	 mov	 ecx, DWORD PTR [edx-96]
  0000c	33 c8		 xor	 ecx, eax
  0000e	e8 00 00 00 00	 call	 @__security_check_cookie@4
  00013	b8 00 00 00 00	 mov	 eax, OFFSET __ehfuncinfo$??$erase@V?$_Tree_iterator@V?$_Tree_val@U?$_Tree_simple_types@U?$pair@$$CBHUNPC_DATA_HELPER@@@std@@@std@@@std@@@std@@$0A@@?$_Tree@V?$_Tmap_traits@HUNPC_DATA_HELPER@@U?$less@H@std@@V?$allocator@U?$pair@$$CBHUNPC_DATA_HELPER@@@std@@@3@$0A@@std@@@std@@QAE?AV?$_Tree_iterator@V?$_Tree_val@U?$_Tree_simple_types@U?$pair@$$CBHUNPC_DATA_HELPER@@@std@@@std@@@std@@@1@V21@@Z
  00018	e9 00 00 00 00	 jmp	 ___CxxFrameHandler3
text$x	ENDS
??$erase@V?$_Tree_iterator@V?$_Tree_val@U?$_Tree_simple_types@U?$pair@$$CBHUNPC_DATA_HELPER@@@std@@@std@@@std@@@std@@$0A@@?$_Tree@V?$_Tmap_traits@HUNPC_DATA_HELPER@@U?$less@H@std@@V?$allocator@U?$pair@$$CBHUNPC_DATA_HELPER@@@std@@@3@$0A@@std@@@std@@QAE?AV?$_Tree_iterator@V?$_Tree_val@U?$_Tree_simple_types@U?$pair@$$CBHUNPC_DATA_HELPER@@@std@@@std@@@std@@@1@V21@@Z ENDP ; std::_Tree<std::_Tmap_traits<int,NPC_DATA_HELPER,std::less<int>,std::allocator<std::pair<int const ,NPC_DATA_HELPER> >,0> >::erase<std::_Tree_iterator<std::_Tree_val<std::_Tree_simple_types<std::pair<int const ,NPC_DATA_HELPER> > > >,0>
; Function compile flags: /Odtp /ZI
;	COMDAT ??0?$_Tree_iterator@V?$_Tree_val@U?$_Tree_simple_types@U?$pair@$$CBHUNPC_DATA_HELPER@@@std@@@std@@@std@@@std@@QAE@PAU?$_Tree_node@U?$pair@$$CBHUNPC_DATA_HELPER@@@std@@PAX@1@PBV?$_Tree_val@U?$_Tree_simple_types@U?$pair@$$CBHUNPC_DATA_HELPER@@@std@@@std@@@1@@Z
_TEXT	SEGMENT
_this$ = -4						; size = 4
___param0$ = 8						; size = 4
___param1$ = 12						; size = 4
??0?$_Tree_iterator@V?$_Tree_val@U?$_Tree_simple_types@U?$pair@$$CBHUNPC_DATA_HELPER@@@std@@@std@@@std@@@std@@QAE@PAU?$_Tree_node@U?$pair@$$CBHUNPC_DATA_HELPER@@@std@@PAX@1@PBV?$_Tree_val@U?$_Tree_simple_types@U?$pair@$$CBHUNPC_DATA_HELPER@@@std@@@std@@@1@@Z PROC ; std::_Tree_iterator<std::_Tree_val<std::_Tree_simple_types<std::pair<int const ,NPC_DATA_HELPER> > > >::_Tree_iterator<std::_Tree_val<std::_Tree_simple_types<std::pair<int const ,NPC_DATA_HELPER> > > >, COMDAT
; _this$ = ecx
  00000	55		 push	 ebp
  00001	8b ec		 mov	 ebp, esp
  00003	83 ec 44	 sub	 esp, 68			; 00000044H
  00006	53		 push	 ebx
  00007	56		 push	 esi
  00008	57		 push	 edi
  00009	89 4d fc	 mov	 DWORD PTR _this$[ebp], ecx
  0000c	8b 45 0c	 mov	 eax, DWORD PTR ___param1$[ebp]
  0000f	50		 push	 eax
  00010	8b 4d 08	 mov	 ecx, DWORD PTR ___param0$[ebp]
  00013	51		 push	 ecx
  00014	8b 4d fc	 mov	 ecx, DWORD PTR _this$[ebp]
  00017	e8 00 00 00 00	 call	 ??0?$_Tree_const_iterator@V?$_Tree_val@U?$_Tree_simple_types@U?$pair@$$CBHUNPC_DATA_HELPER@@@std@@@std@@@std@@@std@@QAE@PAU?$_Tree_node@U?$pair@$$CBHUNPC_DATA_HELPER@@@std@@PAX@1@PBV?$_Tree_val@U?$_Tree_simple_types@U?$pair@$$CBHUNPC_DATA_HELPER@@@std@@@std@@@1@@Z
  0001c	8b 45 fc	 mov	 eax, DWORD PTR _this$[ebp]
  0001f	5f		 pop	 edi
  00020	5e		 pop	 esi
  00021	5b		 pop	 ebx
  00022	8b e5		 mov	 esp, ebp
  00024	5d		 pop	 ebp
  00025	c2 08 00	 ret	 8
??0?$_Tree_iterator@V?$_Tree_val@U?$_Tree_simple_types@U?$pair@$$CBHUNPC_DATA_HELPER@@@std@@@std@@@std@@@std@@QAE@PAU?$_Tree_node@U?$pair@$$CBHUNPC_DATA_HELPER@@@std@@PAX@1@PBV?$_Tree_val@U?$_Tree_simple_types@U?$pair@$$CBHUNPC_DATA_HELPER@@@std@@@std@@@1@@Z ENDP ; std::_Tree_iterator<std::_Tree_val<std::_Tree_simple_types<std::pair<int const ,NPC_DATA_HELPER> > > >::_Tree_iterator<std::_Tree_val<std::_Tree_simple_types<std::pair<int const ,NPC_DATA_HELPER> > > >
_TEXT	ENDS
; Function compile flags: /Odtp /ZI
; File C:\Program Files (x86)\Microsoft Visual Studio\2019\Community\VC\Tools\MSVC\14.27.29110\include\xtree
;	COMDAT ?_Unwrapped@?$_Tree_iterator@V?$_Tree_val@U?$_Tree_simple_types@U?$pair@$$CBHUNPC_DATA_HELPER@@@std@@@std@@@std@@@std@@QBE?AV?$_Tree_unchecked_iterator@V?$_Tree_val@U?$_Tree_simple_types@U?$pair@$$CBHUNPC_DATA_HELPER@@@std@@@std@@@std@@@2@XZ
_TEXT	SEGMENT
_this$ = -4						; size = 4
___$ReturnUdt$ = 8					; size = 4
?_Unwrapped@?$_Tree_iterator@V?$_Tree_val@U?$_Tree_simple_types@U?$pair@$$CBHUNPC_DATA_HELPER@@@std@@@std@@@std@@@std@@QBE?AV?$_Tree_unchecked_iterator@V?$_Tree_val@U?$_Tree_simple_types@U?$pair@$$CBHUNPC_DATA_HELPER@@@std@@@std@@@std@@@2@XZ PROC ; std::_Tree_iterator<std::_Tree_val<std::_Tree_simple_types<std::pair<int const ,NPC_DATA_HELPER> > > >::_Unwrapped, COMDAT
; _this$ = ecx

; 304  :     _NODISCARD _Tree_unchecked_iterator<_Mytree> _Unwrapped() const {

  00000	55		 push	 ebp
  00001	8b ec		 mov	 ebp, esp
  00003	83 ec 44	 sub	 esp, 68			; 00000044H
  00006	53		 push	 ebx
  00007	56		 push	 esi
  00008	57		 push	 edi
  00009	89 4d fc	 mov	 DWORD PTR _this$[ebp], ecx

; 305  :         return _Tree_unchecked_iterator<_Mytree>(this->_Ptr, static_cast<const _Mytree*>(this->_Getcont()));

  0000c	8b 4d fc	 mov	 ecx, DWORD PTR _this$[ebp]
  0000f	e8 00 00 00 00	 call	 ?_Getcont@_Iterator_base0@std@@QBEPBU_Container_base0@2@XZ ; std::_Iterator_base0::_Getcont
  00014	50		 push	 eax
  00015	8b 45 fc	 mov	 eax, DWORD PTR _this$[ebp]
  00018	8b 08		 mov	 ecx, DWORD PTR [eax]
  0001a	51		 push	 ecx
  0001b	8b 4d 08	 mov	 ecx, DWORD PTR ___$ReturnUdt$[ebp]
  0001e	e8 00 00 00 00	 call	 ??0?$_Tree_unchecked_iterator@V?$_Tree_val@U?$_Tree_simple_types@U?$pair@$$CBHUNPC_DATA_HELPER@@@std@@@std@@@std@@@std@@QAE@PAU?$_Tree_node@U?$pair@$$CBHUNPC_DATA_HELPER@@@std@@PAX@1@PBV?$_Tree_val@U?$_Tree_simple_types@U?$pair@$$CBHUNPC_DATA_HELPER@@@std@@@std@@@1@@Z
  00023	8b 45 08	 mov	 eax, DWORD PTR ___$ReturnUdt$[ebp]

; 306  :     }

  00026	5f		 pop	 edi
  00027	5e		 pop	 esi
  00028	5b		 pop	 ebx
  00029	8b e5		 mov	 esp, ebp
  0002b	5d		 pop	 ebp
  0002c	c2 04 00	 ret	 4
?_Unwrapped@?$_Tree_iterator@V?$_Tree_val@U?$_Tree_simple_types@U?$pair@$$CBHUNPC_DATA_HELPER@@@std@@@std@@@std@@@std@@QBE?AV?$_Tree_unchecked_iterator@V?$_Tree_val@U?$_Tree_simple_types@U?$pair@$$CBHUNPC_DATA_HELPER@@@std@@@std@@@std@@@2@XZ ENDP ; std::_Tree_iterator<std::_Tree_val<std::_Tree_simple_types<std::pair<int const ,NPC_DATA_HELPER> > > >::_Unwrapped
_TEXT	ENDS
; Function compile flags: /Odtp /ZI
; File C:\Program Files (x86)\Microsoft Visual Studio\2019\Community\VC\Tools\MSVC\14.27.29110\include\xtree
;	COMDAT ??C?$_Tree_iterator@V?$_Tree_val@U?$_Tree_simple_types@U?$pair@$$CBHUNPC_DATA_HELPER@@@std@@@std@@@std@@@std@@QBEPAU?$pair@$$CBHUNPC_DATA_HELPER@@@1@XZ
_TEXT	SEGMENT
_this$ = -4						; size = 4
??C?$_Tree_iterator@V?$_Tree_val@U?$_Tree_simple_types@U?$pair@$$CBHUNPC_DATA_HELPER@@@std@@@std@@@std@@@std@@QBEPAU?$pair@$$CBHUNPC_DATA_HELPER@@@1@XZ PROC ; std::_Tree_iterator<std::_Tree_val<std::_Tree_simple_types<std::pair<int const ,NPC_DATA_HELPER> > > >::operator->, COMDAT
; _this$ = ecx

; 276  :     _NODISCARD pointer operator->() const {

  00000	55		 push	 ebp
  00001	8b ec		 mov	 ebp, esp
  00003	83 ec 44	 sub	 esp, 68			; 00000044H
  00006	53		 push	 ebx
  00007	56		 push	 esi
  00008	57		 push	 edi
  00009	89 4d fc	 mov	 DWORD PTR _this$[ebp], ecx

; 277  :         return pointer_traits<pointer>::pointer_to(**this);

  0000c	8b 4d fc	 mov	 ecx, DWORD PTR _this$[ebp]
  0000f	e8 00 00 00 00	 call	 ??D?$_Tree_iterator@V?$_Tree_val@U?$_Tree_simple_types@U?$pair@$$CBHUNPC_DATA_HELPER@@@std@@@std@@@std@@@std@@QBEAAU?$pair@$$CBHUNPC_DATA_HELPER@@@1@XZ ; std::_Tree_iterator<std::_Tree_val<std::_Tree_simple_types<std::pair<int const ,NPC_DATA_HELPER> > > >::operator*
  00014	50		 push	 eax
  00015	e8 00 00 00 00	 call	 ?pointer_to@?$pointer_traits@PAU?$pair@$$CBHUNPC_DATA_HELPER@@@std@@@std@@SAPAU?$pair@$$CBHUNPC_DATA_HELPER@@@2@AAU32@@Z ; std::pointer_traits<std::pair<int const ,NPC_DATA_HELPER> *>::pointer_to
  0001a	83 c4 04	 add	 esp, 4

; 278  :     }

  0001d	5f		 pop	 edi
  0001e	5e		 pop	 esi
  0001f	5b		 pop	 ebx
  00020	8b e5		 mov	 esp, ebp
  00022	5d		 pop	 ebp
  00023	c3		 ret	 0
??C?$_Tree_iterator@V?$_Tree_val@U?$_Tree_simple_types@U?$pair@$$CBHUNPC_DATA_HELPER@@@std@@@std@@@std@@@std@@QBEPAU?$pair@$$CBHUNPC_DATA_HELPER@@@1@XZ ENDP ; std::_Tree_iterator<std::_Tree_val<std::_Tree_simple_types<std::pair<int const ,NPC_DATA_HELPER> > > >::operator->
_TEXT	ENDS
; Function compile flags: /Odtp /ZI
; File C:\Program Files (x86)\Microsoft Visual Studio\2019\Community\VC\Tools\MSVC\14.27.29110\include\xtree
;	COMDAT ??D?$_Tree_iterator@V?$_Tree_val@U?$_Tree_simple_types@U?$pair@$$CBHUNPC_DATA_HELPER@@@std@@@std@@@std@@@std@@QBEAAU?$pair@$$CBHUNPC_DATA_HELPER@@@1@XZ
_TEXT	SEGMENT
_this$ = -4						; size = 4
??D?$_Tree_iterator@V?$_Tree_val@U?$_Tree_simple_types@U?$pair@$$CBHUNPC_DATA_HELPER@@@std@@@std@@@std@@@std@@QBEAAU?$pair@$$CBHUNPC_DATA_HELPER@@@1@XZ PROC ; std::_Tree_iterator<std::_Tree_val<std::_Tree_simple_types<std::pair<int const ,NPC_DATA_HELPER> > > >::operator*, COMDAT
; _this$ = ecx

; 272  :     _NODISCARD reference operator*() const {

  00000	55		 push	 ebp
  00001	8b ec		 mov	 ebp, esp
  00003	83 ec 44	 sub	 esp, 68			; 00000044H
  00006	53		 push	 ebx
  00007	56		 push	 esi
  00008	57		 push	 edi
  00009	89 4d fc	 mov	 DWORD PTR _this$[ebp], ecx

; 273  :         return const_cast<reference>(_Mybase::operator*());

  0000c	8b 4d fc	 mov	 ecx, DWORD PTR _this$[ebp]
  0000f	e8 00 00 00 00	 call	 ??D?$_Tree_const_iterator@V?$_Tree_val@U?$_Tree_simple_types@U?$pair@$$CBHUNPC_DATA_HELPER@@@std@@@std@@@std@@@std@@QBEABU?$pair@$$CBHUNPC_DATA_HELPER@@@1@XZ ; std::_Tree_const_iterator<std::_Tree_val<std::_Tree_simple_types<std::pair<int const ,NPC_DATA_HELPER> > > >::operator*

; 274  :     }

  00014	5f		 pop	 edi
  00015	5e		 pop	 esi
  00016	5b		 pop	 ebx
  00017	8b e5		 mov	 esp, ebp
  00019	5d		 pop	 ebp
  0001a	c3		 ret	 0
??D?$_Tree_iterator@V?$_Tree_val@U?$_Tree_simple_types@U?$pair@$$CBHUNPC_DATA_HELPER@@@std@@@std@@@std@@@std@@QBEAAU?$pair@$$CBHUNPC_DATA_HELPER@@@1@XZ ENDP ; std::_Tree_iterator<std::_Tree_val<std::_Tree_simple_types<std::pair<int const ,NPC_DATA_HELPER> > > >::operator*
_TEXT	ENDS
; Function compile flags: /Odtp /ZI
;	COMDAT ??0?$_Tree_const_iterator@V?$_Tree_val@U?$_Tree_simple_types@U?$pair@$$CBHUNPC_DATA_HELPER@@@std@@@std@@@std@@@std@@QAE@PAU?$_Tree_node@U?$pair@$$CBHUNPC_DATA_HELPER@@@std@@PAX@1@PBV?$_Tree_val@U?$_Tree_simple_types@U?$pair@$$CBHUNPC_DATA_HELPER@@@std@@@std@@@1@@Z
_TEXT	SEGMENT
_this$ = -4						; size = 4
___param0$ = 8						; size = 4
___param1$ = 12						; size = 4
??0?$_Tree_const_iterator@V?$_Tree_val@U?$_Tree_simple_types@U?$pair@$$CBHUNPC_DATA_HELPER@@@std@@@std@@@std@@@std@@QAE@PAU?$_Tree_node@U?$pair@$$CBHUNPC_DATA_HELPER@@@std@@PAX@1@PBV?$_Tree_val@U?$_Tree_simple_types@U?$pair@$$CBHUNPC_DATA_HELPER@@@std@@@std@@@1@@Z PROC ; std::_Tree_const_iterator<std::_Tree_val<std::_Tree_simple_types<std::pair<int const ,NPC_DATA_HELPER> > > >::_Tree_const_iterator<std::_Tree_val<std::_Tree_simple_types<std::pair<int const ,NPC_DATA_HELPER> > > >, COMDAT
; _this$ = ecx
  00000	55		 push	 ebp
  00001	8b ec		 mov	 ebp, esp
  00003	83 ec 44	 sub	 esp, 68			; 00000044H
  00006	53		 push	 ebx
  00007	56		 push	 esi
  00008	57		 push	 edi
  00009	89 4d fc	 mov	 DWORD PTR _this$[ebp], ecx
  0000c	8b 45 0c	 mov	 eax, DWORD PTR ___param1$[ebp]
  0000f	50		 push	 eax
  00010	8b 4d 08	 mov	 ecx, DWORD PTR ___param0$[ebp]
  00013	51		 push	 ecx
  00014	8b 4d fc	 mov	 ecx, DWORD PTR _this$[ebp]
  00017	e8 00 00 00 00	 call	 ??0?$_Tree_unchecked_const_iterator@V?$_Tree_val@U?$_Tree_simple_types@U?$pair@$$CBHUNPC_DATA_HELPER@@@std@@@std@@@std@@U_Iterator_base0@2@@std@@QAE@PAU?$_Tree_node@U?$pair@$$CBHUNPC_DATA_HELPER@@@std@@PAX@1@PBV?$_Tree_val@U?$_Tree_simple_types@U?$pair@$$CBHUNPC_DATA_HELPER@@@std@@@std@@@1@@Z ; std::_Tree_unchecked_const_iterator<std::_Tree_val<std::_Tree_simple_types<std::pair<int const ,NPC_DATA_HELPER> > >,std::_Iterator_base0>::_Tree_unchecked_const_iterator<std::_Tree_val<std::_Tree_simple_types<std::pair<int const ,NPC_DATA_HELPER> > >,std::_Iterator_base0>
  0001c	8b 45 fc	 mov	 eax, DWORD PTR _this$[ebp]
  0001f	5f		 pop	 edi
  00020	5e		 pop	 esi
  00021	5b		 pop	 ebx
  00022	8b e5		 mov	 esp, ebp
  00024	5d		 pop	 ebp
  00025	c2 08 00	 ret	 8
??0?$_Tree_const_iterator@V?$_Tree_val@U?$_Tree_simple_types@U?$pair@$$CBHUNPC_DATA_HELPER@@@std@@@std@@@std@@@std@@QAE@PAU?$_Tree_node@U?$pair@$$CBHUNPC_DATA_HELPER@@@std@@PAX@1@PBV?$_Tree_val@U?$_Tree_simple_types@U?$pair@$$CBHUNPC_DATA_HELPER@@@std@@@std@@@1@@Z ENDP ; std::_Tree_const_iterator<std::_Tree_val<std::_Tree_simple_types<std::pair<int const ,NPC_DATA_HELPER> > > >::_Tree_const_iterator<std::_Tree_val<std::_Tree_simple_types<std::pair<int const ,NPC_DATA_HELPER> > > >
_TEXT	ENDS
; Function compile flags: /Odtp /ZI
; File C:\Program Files (x86)\Microsoft Visual Studio\2019\Community\VC\Tools\MSVC\14.27.29110\include\xtree
;	COMDAT ??9?$_Tree_const_iterator@V?$_Tree_val@U?$_Tree_simple_types@U?$pair@$$CBHUNPC_DATA_HELPER@@@std@@@std@@@std@@@std@@QBE_NABV01@@Z
_TEXT	SEGMENT
tv69 = -72						; size = 4
_this$ = -4						; size = 4
__Right$ = 8						; size = 4
??9?$_Tree_const_iterator@V?$_Tree_val@U?$_Tree_simple_types@U?$pair@$$CBHUNPC_DATA_HELPER@@@std@@@std@@@std@@@std@@QBE_NABV01@@Z PROC ; std::_Tree_const_iterator<std::_Tree_val<std::_Tree_simple_types<std::pair<int const ,NPC_DATA_HELPER> > > >::operator!=, COMDAT
; _this$ = ecx

; 235  :     _NODISCARD bool operator!=(const _Tree_const_iterator& _Right) const {

  00000	55		 push	 ebp
  00001	8b ec		 mov	 ebp, esp
  00003	83 ec 48	 sub	 esp, 72			; 00000048H
  00006	53		 push	 ebx
  00007	56		 push	 esi
  00008	57		 push	 edi
  00009	89 4d fc	 mov	 DWORD PTR _this$[ebp], ecx

; 236  :         return !(*this == _Right);

  0000c	8b 45 08	 mov	 eax, DWORD PTR __Right$[ebp]
  0000f	50		 push	 eax
  00010	8b 4d fc	 mov	 ecx, DWORD PTR _this$[ebp]
  00013	e8 00 00 00 00	 call	 ??8?$_Tree_const_iterator@V?$_Tree_val@U?$_Tree_simple_types@U?$pair@$$CBHUNPC_DATA_HELPER@@@std@@@std@@@std@@@std@@QBE_NABV01@@Z ; std::_Tree_const_iterator<std::_Tree_val<std::_Tree_simple_types<std::pair<int const ,NPC_DATA_HELPER> > > >::operator==
  00018	0f b6 c8	 movzx	 ecx, al
  0001b	85 c9		 test	 ecx, ecx
  0001d	75 09		 jne	 SHORT $LN3@operator
  0001f	c7 45 b8 01 00
	00 00		 mov	 DWORD PTR tv69[ebp], 1
  00026	eb 07		 jmp	 SHORT $LN4@operator
$LN3@operator:
  00028	c7 45 b8 00 00
	00 00		 mov	 DWORD PTR tv69[ebp], 0
$LN4@operator:
  0002f	8a 45 b8	 mov	 al, BYTE PTR tv69[ebp]

; 237  :     }

  00032	5f		 pop	 edi
  00033	5e		 pop	 esi
  00034	5b		 pop	 ebx
  00035	8b e5		 mov	 esp, ebp
  00037	5d		 pop	 ebp
  00038	c2 04 00	 ret	 4
??9?$_Tree_const_iterator@V?$_Tree_val@U?$_Tree_simple_types@U?$pair@$$CBHUNPC_DATA_HELPER@@@std@@@std@@@std@@@std@@QBE_NABV01@@Z ENDP ; std::_Tree_const_iterator<std::_Tree_val<std::_Tree_simple_types<std::pair<int const ,NPC_DATA_HELPER> > > >::operator!=
_TEXT	ENDS
; Function compile flags: /Odtp /ZI
; File C:\Program Files (x86)\Microsoft Visual Studio\2019\Community\VC\Tools\MSVC\14.27.29110\include\xtree
;	COMDAT ??8?$_Tree_const_iterator@V?$_Tree_val@U?$_Tree_simple_types@U?$pair@$$CBHUNPC_DATA_HELPER@@@std@@@std@@@std@@@std@@QBE_NABV01@@Z
_TEXT	SEGMENT
tv75 = -72						; size = 4
_this$ = -4						; size = 4
__Right$ = 8						; size = 4
??8?$_Tree_const_iterator@V?$_Tree_val@U?$_Tree_simple_types@U?$pair@$$CBHUNPC_DATA_HELPER@@@std@@@std@@@std@@@std@@QBE_NABV01@@Z PROC ; std::_Tree_const_iterator<std::_Tree_val<std::_Tree_simple_types<std::pair<int const ,NPC_DATA_HELPER> > > >::operator==, COMDAT
; _this$ = ecx

; 227  :     _NODISCARD bool operator==(const _Tree_const_iterator& _Right) const {

  00000	55		 push	 ebp
  00001	8b ec		 mov	 ebp, esp
  00003	83 ec 48	 sub	 esp, 72			; 00000048H
  00006	53		 push	 ebx
  00007	56		 push	 esi
  00008	57		 push	 edi
  00009	89 4d fc	 mov	 DWORD PTR _this$[ebp], ecx

; 228  : #if _ITERATOR_DEBUG_LEVEL == 2
; 229  :         _STL_VERIFY(this->_Getcont() == _Right._Getcont(), "map/set iterators incompatible");
; 230  : #endif // _ITERATOR_DEBUG_LEVEL == 2
; 231  : 
; 232  :         return this->_Ptr == _Right._Ptr;

  0000c	8b 45 fc	 mov	 eax, DWORD PTR _this$[ebp]
  0000f	8b 4d 08	 mov	 ecx, DWORD PTR __Right$[ebp]
  00012	8b 10		 mov	 edx, DWORD PTR [eax]
  00014	3b 11		 cmp	 edx, DWORD PTR [ecx]
  00016	75 09		 jne	 SHORT $LN3@operator
  00018	c7 45 b8 01 00
	00 00		 mov	 DWORD PTR tv75[ebp], 1
  0001f	eb 07		 jmp	 SHORT $LN4@operator
$LN3@operator:
  00021	c7 45 b8 00 00
	00 00		 mov	 DWORD PTR tv75[ebp], 0
$LN4@operator:
  00028	8a 45 b8	 mov	 al, BYTE PTR tv75[ebp]

; 233  :     }

  0002b	5f		 pop	 edi
  0002c	5e		 pop	 esi
  0002d	5b		 pop	 ebx
  0002e	8b e5		 mov	 esp, ebp
  00030	5d		 pop	 ebp
  00031	c2 04 00	 ret	 4
??8?$_Tree_const_iterator@V?$_Tree_val@U?$_Tree_simple_types@U?$pair@$$CBHUNPC_DATA_HELPER@@@std@@@std@@@std@@@std@@QBE_NABV01@@Z ENDP ; std::_Tree_const_iterator<std::_Tree_val<std::_Tree_simple_types<std::pair<int const ,NPC_DATA_HELPER> > > >::operator==
_TEXT	ENDS
; Function compile flags: /Odtp /ZI
; File C:\Program Files (x86)\Microsoft Visual Studio\2019\Community\VC\Tools\MSVC\14.27.29110\include\xtree
;	COMDAT ??D?$_Tree_const_iterator@V?$_Tree_val@U?$_Tree_simple_types@U?$pair@$$CBHUNPC_DATA_HELPER@@@std@@@std@@@std@@@std@@QBEABU?$pair@$$CBHUNPC_DATA_HELPER@@@1@XZ
_TEXT	SEGMENT
_this$ = -4						; size = 4
??D?$_Tree_const_iterator@V?$_Tree_val@U?$_Tree_simple_types@U?$pair@$$CBHUNPC_DATA_HELPER@@@std@@@std@@@std@@@std@@QBEABU?$pair@$$CBHUNPC_DATA_HELPER@@@1@XZ PROC ; std::_Tree_const_iterator<std::_Tree_val<std::_Tree_simple_types<std::pair<int const ,NPC_DATA_HELPER> > > >::operator*, COMDAT
; _this$ = ecx

; 178  :     _NODISCARD reference operator*() const {

  00000	55		 push	 ebp
  00001	8b ec		 mov	 ebp, esp
  00003	83 ec 44	 sub	 esp, 68			; 00000044H
  00006	53		 push	 ebx
  00007	56		 push	 esi
  00008	57		 push	 edi
  00009	89 4d fc	 mov	 DWORD PTR _this$[ebp], ecx

; 179  : #if _ITERATOR_DEBUG_LEVEL == 2
; 180  :         const auto _Mycont = static_cast<const _Mytree*>(this->_Getcont());
; 181  :         _STL_ASSERT(_Mycont, "cannot dereference value-initialized map/set iterator");
; 182  :         _STL_VERIFY(this->_Ptr != _Mycont->_Myhead, "cannot dereference end map/set iterator");
; 183  : #endif // _ITERATOR_DEBUG_LEVEL == 2
; 184  : 
; 185  :         return this->_Ptr->_Myval;

  0000c	8b 45 fc	 mov	 eax, DWORD PTR _this$[ebp]
  0000f	8b 00		 mov	 eax, DWORD PTR [eax]
  00011	83 c0 10	 add	 eax, 16			; 00000010H

; 186  :     }

  00014	5f		 pop	 edi
  00015	5e		 pop	 esi
  00016	5b		 pop	 ebx
  00017	8b e5		 mov	 esp, ebp
  00019	5d		 pop	 ebp
  0001a	c3		 ret	 0
??D?$_Tree_const_iterator@V?$_Tree_val@U?$_Tree_simple_types@U?$pair@$$CBHUNPC_DATA_HELPER@@@std@@@std@@@std@@@std@@QBEABU?$pair@$$CBHUNPC_DATA_HELPER@@@1@XZ ENDP ; std::_Tree_const_iterator<std::_Tree_val<std::_Tree_simple_types<std::pair<int const ,NPC_DATA_HELPER> > > >::operator*
_TEXT	ENDS
; Function compile flags: /Odtp /ZI
; File C:\Program Files (x86)\Microsoft Visual Studio\2019\Community\VC\Tools\MSVC\14.27.29110\include\xtree
;	COMDAT ??E?$_Tree_unchecked_const_iterator@V?$_Tree_val@U?$_Tree_simple_types@U?$pair@$$CBHUNPC_DATA_HELPER@@@std@@@std@@@std@@U_Iterator_base0@2@@std@@QAEAAV01@XZ
_TEXT	SEGMENT
__Pnode$1 = -8						; size = 4
_this$ = -4						; size = 4
??E?$_Tree_unchecked_const_iterator@V?$_Tree_val@U?$_Tree_simple_types@U?$pair@$$CBHUNPC_DATA_HELPER@@@std@@@std@@@std@@U_Iterator_base0@2@@std@@QAEAAV01@XZ PROC ; std::_Tree_unchecked_const_iterator<std::_Tree_val<std::_Tree_simple_types<std::pair<int const ,NPC_DATA_HELPER> > >,std::_Iterator_base0>::operator++, COMDAT
; _this$ = ecx

; 51   :     _Tree_unchecked_const_iterator& operator++() {

  00000	55		 push	 ebp
  00001	8b ec		 mov	 ebp, esp
  00003	83 ec 48	 sub	 esp, 72			; 00000048H
  00006	53		 push	 ebx
  00007	56		 push	 esi
  00008	57		 push	 edi
  00009	89 4d fc	 mov	 DWORD PTR _this$[ebp], ecx

; 52   :         if (_Ptr->_Right->_Isnil) { // climb looking for right subtree

  0000c	8b 45 fc	 mov	 eax, DWORD PTR _this$[ebp]
  0000f	8b 08		 mov	 ecx, DWORD PTR [eax]
  00011	8b 51 08	 mov	 edx, DWORD PTR [ecx+8]
  00014	0f be 42 0d	 movsx	 eax, BYTE PTR [edx+13]
  00018	85 c0		 test	 eax, eax
  0001a	74 37		 je	 SHORT $LN4@operator
$LN2@operator:

; 53   :             _Nodeptr _Pnode;
; 54   :             while (!(_Pnode = _Ptr->_Parent)->_Isnil && _Ptr == _Pnode->_Right) {

  0001c	8b 45 fc	 mov	 eax, DWORD PTR _this$[ebp]
  0001f	8b 08		 mov	 ecx, DWORD PTR [eax]
  00021	8b 51 04	 mov	 edx, DWORD PTR [ecx+4]
  00024	89 55 f8	 mov	 DWORD PTR __Pnode$1[ebp], edx
  00027	8b 45 f8	 mov	 eax, DWORD PTR __Pnode$1[ebp]
  0002a	0f be 48 0d	 movsx	 ecx, BYTE PTR [eax+13]
  0002e	85 c9		 test	 ecx, ecx
  00030	75 17		 jne	 SHORT $LN3@operator
  00032	8b 45 fc	 mov	 eax, DWORD PTR _this$[ebp]
  00035	8b 4d f8	 mov	 ecx, DWORD PTR __Pnode$1[ebp]
  00038	8b 10		 mov	 edx, DWORD PTR [eax]
  0003a	3b 51 08	 cmp	 edx, DWORD PTR [ecx+8]
  0003d	75 0a		 jne	 SHORT $LN3@operator

; 55   :                 _Ptr = _Pnode; // ==> parent while right subtree

  0003f	8b 45 fc	 mov	 eax, DWORD PTR _this$[ebp]
  00042	8b 4d f8	 mov	 ecx, DWORD PTR __Pnode$1[ebp]
  00045	89 08		 mov	 DWORD PTR [eax], ecx

; 56   :             }

  00047	eb d3		 jmp	 SHORT $LN2@operator
$LN3@operator:

; 57   : 
; 58   :             _Ptr = _Pnode; // ==> parent (head if end())

  00049	8b 45 fc	 mov	 eax, DWORD PTR _this$[ebp]
  0004c	8b 4d f8	 mov	 ecx, DWORD PTR __Pnode$1[ebp]
  0004f	89 08		 mov	 DWORD PTR [eax], ecx

; 59   :         } else {

  00051	eb 16		 jmp	 SHORT $LN5@operator
$LN4@operator:

; 60   :             _Ptr = _Mytree::_Min(_Ptr->_Right); // ==> smallest of right subtree

  00053	8b 45 fc	 mov	 eax, DWORD PTR _this$[ebp]
  00056	8b 08		 mov	 ecx, DWORD PTR [eax]
  00058	8b 51 08	 mov	 edx, DWORD PTR [ecx+8]
  0005b	52		 push	 edx
  0005c	e8 00 00 00 00	 call	 ?_Min@?$_Tree_val@U?$_Tree_simple_types@U?$pair@$$CBHUNPC_DATA_HELPER@@@std@@@std@@@std@@SAPAU?$_Tree_node@U?$pair@$$CBHUNPC_DATA_HELPER@@@std@@PAX@2@PAU32@@Z ; std::_Tree_val<std::_Tree_simple_types<std::pair<int const ,NPC_DATA_HELPER> > >::_Min
  00061	83 c4 04	 add	 esp, 4
  00064	8b 4d fc	 mov	 ecx, DWORD PTR _this$[ebp]
  00067	89 01		 mov	 DWORD PTR [ecx], eax
$LN5@operator:

; 61   :         }
; 62   : 
; 63   :         return *this;

  00069	8b 45 fc	 mov	 eax, DWORD PTR _this$[ebp]

; 64   :     }

  0006c	5f		 pop	 edi
  0006d	5e		 pop	 esi
  0006e	5b		 pop	 ebx
  0006f	8b e5		 mov	 esp, ebp
  00071	5d		 pop	 ebp
  00072	c3		 ret	 0
??E?$_Tree_unchecked_const_iterator@V?$_Tree_val@U?$_Tree_simple_types@U?$pair@$$CBHUNPC_DATA_HELPER@@@std@@@std@@@std@@U_Iterator_base0@2@@std@@QAEAAV01@XZ ENDP ; std::_Tree_unchecked_const_iterator<std::_Tree_val<std::_Tree_simple_types<std::pair<int const ,NPC_DATA_HELPER> > >,std::_Iterator_base0>::operator++
_TEXT	ENDS
; Function compile flags: /Odtp /ZI
; File C:\Program Files (x86)\Microsoft Visual Studio\2019\Community\VC\Tools\MSVC\14.27.29110\include\xtree
;	COMDAT ??0?$_Tree_unchecked_const_iterator@V?$_Tree_val@U?$_Tree_simple_types@U?$pair@$$CBHUNPC_DATA_HELPER@@@std@@@std@@@std@@U_Iterator_base0@2@@std@@QAE@PAU?$_Tree_node@U?$pair@$$CBHUNPC_DATA_HELPER@@@std@@PAX@1@PBV?$_Tree_val@U?$_Tree_simple_types@U?$pair@$$CBHUNPC_DATA_HELPER@@@std@@@std@@@1@@Z
_TEXT	SEGMENT
_this$ = -4						; size = 4
__Pnode$ = 8						; size = 4
__Plist$ = 12						; size = 4
??0?$_Tree_unchecked_const_iterator@V?$_Tree_val@U?$_Tree_simple_types@U?$pair@$$CBHUNPC_DATA_HELPER@@@std@@@std@@@std@@U_Iterator_base0@2@@std@@QAE@PAU?$_Tree_node@U?$pair@$$CBHUNPC_DATA_HELPER@@@std@@PAX@1@PBV?$_Tree_val@U?$_Tree_simple_types@U?$pair@$$CBHUNPC_DATA_HELPER@@@std@@@std@@@1@@Z PROC ; std::_Tree_unchecked_const_iterator<std::_Tree_val<std::_Tree_simple_types<std::pair<int const ,NPC_DATA_HELPER> > >,std::_Iterator_base0>::_Tree_unchecked_const_iterator<std::_Tree_val<std::_Tree_simple_types<std::pair<int const ,NPC_DATA_HELPER> > >,std::_Iterator_base0>, COMDAT
; _this$ = ecx

; 39   :     _Tree_unchecked_const_iterator(_Nodeptr _Pnode, const _Mytree* _Plist) noexcept : _Ptr(_Pnode) {

  00000	55		 push	 ebp
  00001	8b ec		 mov	 ebp, esp
  00003	83 ec 44	 sub	 esp, 68			; 00000044H
  00006	53		 push	 ebx
  00007	56		 push	 esi
  00008	57		 push	 edi
  00009	89 4d fc	 mov	 DWORD PTR _this$[ebp], ecx
  0000c	8b 45 fc	 mov	 eax, DWORD PTR _this$[ebp]
  0000f	8b 4d 08	 mov	 ecx, DWORD PTR __Pnode$[ebp]
  00012	89 08		 mov	 DWORD PTR [eax], ecx

; 40   :         this->_Adopt(_Plist);

  00014	8b 45 0c	 mov	 eax, DWORD PTR __Plist$[ebp]
  00017	50		 push	 eax
  00018	8b 4d fc	 mov	 ecx, DWORD PTR _this$[ebp]
  0001b	e8 00 00 00 00	 call	 ?_Adopt@_Iterator_base0@std@@QAEXPBX@Z ; std::_Iterator_base0::_Adopt

; 41   :     }

  00020	8b 45 fc	 mov	 eax, DWORD PTR _this$[ebp]
  00023	5f		 pop	 edi
  00024	5e		 pop	 esi
  00025	5b		 pop	 ebx
  00026	8b e5		 mov	 esp, ebp
  00028	5d		 pop	 ebp
  00029	c2 08 00	 ret	 8
??0?$_Tree_unchecked_const_iterator@V?$_Tree_val@U?$_Tree_simple_types@U?$pair@$$CBHUNPC_DATA_HELPER@@@std@@@std@@@std@@U_Iterator_base0@2@@std@@QAE@PAU?$_Tree_node@U?$pair@$$CBHUNPC_DATA_HELPER@@@std@@PAX@1@PBV?$_Tree_val@U?$_Tree_simple_types@U?$pair@$$CBHUNPC_DATA_HELPER@@@std@@@std@@@1@@Z ENDP ; std::_Tree_unchecked_const_iterator<std::_Tree_val<std::_Tree_simple_types<std::pair<int const ,NPC_DATA_HELPER> > >,std::_Iterator_base0>::_Tree_unchecked_const_iterator<std::_Tree_val<std::_Tree_simple_types<std::pair<int const ,NPC_DATA_HELPER> > >,std::_Iterator_base0>
_TEXT	ENDS
; Function compile flags: /Odtp /ZI
; File C:\Program Files (x86)\Microsoft Visual Studio\2019\Community\VC\Tools\MSVC\14.27.29110\include\map
;	COMDAT ??$insert@U?$pair@HUNPC_DATA_HELPER@@@std@@$0A@@?$map@HUNPC_DATA_HELPER@@U?$less@H@std@@V?$allocator@U?$pair@$$CBHUNPC_DATA_HELPER@@@std@@@3@@std@@QAE?AU?$pair@V?$_Tree_iterator@V?$_Tree_val@U?$_Tree_simple_types@U?$pair@$$CBHUNPC_DATA_HELPER@@@std@@@std@@@std@@@std@@_N@1@$$QAU?$pair@HUNPC_DATA_HELPER@@@1@@Z
_TEXT	SEGMENT
_this$ = -4						; size = 4
___$ReturnUdt$ = 8					; size = 4
__Val$ = 12						; size = 4
??$insert@U?$pair@HUNPC_DATA_HELPER@@@std@@$0A@@?$map@HUNPC_DATA_HELPER@@U?$less@H@std@@V?$allocator@U?$pair@$$CBHUNPC_DATA_HELPER@@@std@@@3@@std@@QAE?AU?$pair@V?$_Tree_iterator@V?$_Tree_val@U?$_Tree_simple_types@U?$pair@$$CBHUNPC_DATA_HELPER@@@std@@@std@@@std@@@std@@_N@1@$$QAU?$pair@HUNPC_DATA_HELPER@@@1@@Z PROC ; std::map<int,NPC_DATA_HELPER,std::less<int>,std::allocator<std::pair<int const ,NPC_DATA_HELPER> > >::insert<std::pair<int,NPC_DATA_HELPER>,0>, COMDAT
; _this$ = ecx

; 164  :     pair<iterator, bool> insert(_Valty&& _Val) {

  00000	55		 push	 ebp
  00001	8b ec		 mov	 ebp, esp
  00003	83 ec 44	 sub	 esp, 68			; 00000044H
  00006	53		 push	 ebx
  00007	56		 push	 esi
  00008	57		 push	 edi
  00009	89 4d fc	 mov	 DWORD PTR _this$[ebp], ecx

; 165  :         return this->emplace(_STD forward<_Valty>(_Val));

  0000c	8b 45 0c	 mov	 eax, DWORD PTR __Val$[ebp]
  0000f	50		 push	 eax
  00010	e8 00 00 00 00	 call	 ??$forward@U?$pair@HUNPC_DATA_HELPER@@@std@@@std@@YA$$QAU?$pair@HUNPC_DATA_HELPER@@@0@AAU10@@Z ; std::forward<std::pair<int,NPC_DATA_HELPER> >
  00015	83 c4 04	 add	 esp, 4
  00018	50		 push	 eax
  00019	8b 4d 08	 mov	 ecx, DWORD PTR ___$ReturnUdt$[ebp]
  0001c	51		 push	 ecx
  0001d	8b 4d fc	 mov	 ecx, DWORD PTR _this$[ebp]
  00020	e8 00 00 00 00	 call	 ??$emplace@U?$pair@HUNPC_DATA_HELPER@@@std@@@?$_Tree@V?$_Tmap_traits@HUNPC_DATA_HELPER@@U?$less@H@std@@V?$allocator@U?$pair@$$CBHUNPC_DATA_HELPER@@@std@@@3@$0A@@std@@@std@@QAE?AU?$pair@V?$_Tree_iterator@V?$_Tree_val@U?$_Tree_simple_types@U?$pair@$$CBHUNPC_DATA_HELPER@@@std@@@std@@@std@@@std@@_N@1@$$QAU?$pair@HUNPC_DATA_HELPER@@@1@@Z ; std::_Tree<std::_Tmap_traits<int,NPC_DATA_HELPER,std::less<int>,std::allocator<std::pair<int const ,NPC_DATA_HELPER> >,0> >::emplace<std::pair<int,NPC_DATA_HELPER> >
  00025	8b 45 08	 mov	 eax, DWORD PTR ___$ReturnUdt$[ebp]

; 166  :     }

  00028	5f		 pop	 edi
  00029	5e		 pop	 esi
  0002a	5b		 pop	 ebx
  0002b	8b e5		 mov	 esp, ebp
  0002d	5d		 pop	 ebp
  0002e	c2 08 00	 ret	 8
??$insert@U?$pair@HUNPC_DATA_HELPER@@@std@@$0A@@?$map@HUNPC_DATA_HELPER@@U?$less@H@std@@V?$allocator@U?$pair@$$CBHUNPC_DATA_HELPER@@@std@@@3@@std@@QAE?AU?$pair@V?$_Tree_iterator@V?$_Tree_val@U?$_Tree_simple_types@U?$pair@$$CBHUNPC_DATA_HELPER@@@std@@@std@@@std@@@std@@_N@1@$$QAU?$pair@HUNPC_DATA_HELPER@@@1@@Z ENDP ; std::map<int,NPC_DATA_HELPER,std::less<int>,std::allocator<std::pair<int const ,NPC_DATA_HELPER> > >::insert<std::pair<int,NPC_DATA_HELPER>,0>
_TEXT	ENDS
; Function compile flags: /Odtp /ZI
; File C:\Program Files (x86)\Microsoft Visual Studio\2019\Community\VC\Tools\MSVC\14.27.29110\include\utility
;	COMDAT ??$?0HUNPC_DATA_HELPER@@$0A@@?$pair@$$CBHUNPC_DATA_HELPER@@@std@@QAE@$$QAU?$pair@HUNPC_DATA_HELPER@@@1@@Z
_TEXT	SEGMENT
_this$ = -4						; size = 4
__Right$ = 8						; size = 4
??$?0HUNPC_DATA_HELPER@@$0A@@?$pair@$$CBHUNPC_DATA_HELPER@@@std@@QAE@$$QAU?$pair@HUNPC_DATA_HELPER@@@1@@Z PROC ; std::pair<int const ,NPC_DATA_HELPER>::pair<int const ,NPC_DATA_HELPER><int,NPC_DATA_HELPER,0>, COMDAT
; _this$ = ecx

; 248  :         : first(_STD forward<_Other1>(_Right.first)), second(_STD forward<_Other2>(_Right.second)) {}

  00000	55		 push	 ebp
  00001	8b ec		 mov	 ebp, esp
  00003	83 ec 44	 sub	 esp, 68			; 00000044H
  00006	53		 push	 ebx
  00007	56		 push	 esi
  00008	57		 push	 edi
  00009	89 4d fc	 mov	 DWORD PTR _this$[ebp], ecx
  0000c	8b 45 08	 mov	 eax, DWORD PTR __Right$[ebp]
  0000f	50		 push	 eax
  00010	e8 00 00 00 00	 call	 ??$forward@H@std@@YA$$QAHAAH@Z ; std::forward<int>
  00015	83 c4 04	 add	 esp, 4
  00018	8b 4d fc	 mov	 ecx, DWORD PTR _this$[ebp]
  0001b	8b 10		 mov	 edx, DWORD PTR [eax]
  0001d	89 11		 mov	 DWORD PTR [ecx], edx
  0001f	8b 45 08	 mov	 eax, DWORD PTR __Right$[ebp]
  00022	83 c0 04	 add	 eax, 4
  00025	50		 push	 eax
  00026	e8 00 00 00 00	 call	 ??$forward@UNPC_DATA_HELPER@@@std@@YA$$QAUNPC_DATA_HELPER@@AAU1@@Z ; std::forward<NPC_DATA_HELPER>
  0002b	83 c4 04	 add	 esp, 4
  0002e	8b 4d fc	 mov	 ecx, DWORD PTR _this$[ebp]
  00031	83 c1 04	 add	 ecx, 4
  00034	8b 10		 mov	 edx, DWORD PTR [eax]
  00036	89 11		 mov	 DWORD PTR [ecx], edx
  00038	8b 50 04	 mov	 edx, DWORD PTR [eax+4]
  0003b	89 51 04	 mov	 DWORD PTR [ecx+4], edx
  0003e	8b 50 08	 mov	 edx, DWORD PTR [eax+8]
  00041	89 51 08	 mov	 DWORD PTR [ecx+8], edx
  00044	8b 50 0c	 mov	 edx, DWORD PTR [eax+12]
  00047	89 51 0c	 mov	 DWORD PTR [ecx+12], edx
  0004a	8b 40 10	 mov	 eax, DWORD PTR [eax+16]
  0004d	89 41 10	 mov	 DWORD PTR [ecx+16], eax
  00050	8b 45 fc	 mov	 eax, DWORD PTR _this$[ebp]
  00053	5f		 pop	 edi
  00054	5e		 pop	 esi
  00055	5b		 pop	 ebx
  00056	8b e5		 mov	 esp, ebp
  00058	5d		 pop	 ebp
  00059	c2 04 00	 ret	 4
??$?0HUNPC_DATA_HELPER@@$0A@@?$pair@$$CBHUNPC_DATA_HELPER@@@std@@QAE@$$QAU?$pair@HUNPC_DATA_HELPER@@@1@@Z ENDP ; std::pair<int const ,NPC_DATA_HELPER>::pair<int const ,NPC_DATA_HELPER><int,NPC_DATA_HELPER,0>
_TEXT	ENDS
; Function compile flags: /Odtp /ZI
; File C:\Program Files (x86)\Microsoft Visual Studio\2019\Community\VC\Tools\MSVC\14.27.29110\include\utility
;	COMDAT ??$make_pair@AAHAAUNPC_DATA_HELPER@@@std@@YA?AU?$pair@HUNPC_DATA_HELPER@@@0@AAHAAUNPC_DATA_HELPER@@@Z
_TEXT	SEGMENT
___$ReturnUdt$ = 8					; size = 4
__Val1$ = 12						; size = 4
__Val2$ = 16						; size = 4
??$make_pair@AAHAAUNPC_DATA_HELPER@@@std@@YA?AU?$pair@HUNPC_DATA_HELPER@@@0@AAHAAUNPC_DATA_HELPER@@@Z PROC ; std::make_pair<int &,NPC_DATA_HELPER &>, COMDAT

; 389  :         is_nothrow_constructible_v<_Unrefwrap_t<_Ty2>, _Ty2>) /* strengthened */ {

  00000	55		 push	 ebp
  00001	8b ec		 mov	 ebp, esp
  00003	83 ec 40	 sub	 esp, 64			; 00000040H
  00006	53		 push	 ebx
  00007	56		 push	 esi
  00008	57		 push	 edi

; 390  :     // return pair composed from arguments
; 391  :     using _Mypair = pair<_Unrefwrap_t<_Ty1>, _Unrefwrap_t<_Ty2>>;
; 392  :     return _Mypair(_STD forward<_Ty1>(_Val1), _STD forward<_Ty2>(_Val2));

  00009	8b 45 10	 mov	 eax, DWORD PTR __Val2$[ebp]
  0000c	50		 push	 eax
  0000d	e8 00 00 00 00	 call	 ??$forward@AAUNPC_DATA_HELPER@@@std@@YAAAUNPC_DATA_HELPER@@AAU1@@Z ; std::forward<NPC_DATA_HELPER &>
  00012	83 c4 04	 add	 esp, 4
  00015	50		 push	 eax
  00016	8b 4d 0c	 mov	 ecx, DWORD PTR __Val1$[ebp]
  00019	51		 push	 ecx
  0001a	e8 00 00 00 00	 call	 ??$forward@AAH@std@@YAAAHAAH@Z ; std::forward<int &>
  0001f	83 c4 04	 add	 esp, 4
  00022	50		 push	 eax
  00023	8b 4d 08	 mov	 ecx, DWORD PTR ___$ReturnUdt$[ebp]
  00026	e8 00 00 00 00	 call	 ??$?0AAHAAUNPC_DATA_HELPER@@$0A@@?$pair@HUNPC_DATA_HELPER@@@std@@QAE@AAHAAUNPC_DATA_HELPER@@@Z ; std::pair<int,NPC_DATA_HELPER>::pair<int,NPC_DATA_HELPER><int &,NPC_DATA_HELPER &,0>
  0002b	8b 45 08	 mov	 eax, DWORD PTR ___$ReturnUdt$[ebp]

; 393  : }

  0002e	5f		 pop	 edi
  0002f	5e		 pop	 esi
  00030	5b		 pop	 ebx
  00031	8b e5		 mov	 esp, ebp
  00033	5d		 pop	 ebp
  00034	c3		 ret	 0
??$make_pair@AAHAAUNPC_DATA_HELPER@@@std@@YA?AU?$pair@HUNPC_DATA_HELPER@@@0@AAHAAUNPC_DATA_HELPER@@@Z ENDP ; std::make_pair<int &,NPC_DATA_HELPER &>
_TEXT	ENDS
; Function compile flags: /Odtp /ZI
;	COMDAT ??__Fg_BuffHelper@@YAXXZ
text$yd	SEGMENT
??__Fg_BuffHelper@@YAXXZ PROC				; `dynamic atexit destructor for 'g_BuffHelper'', COMDAT
  00000	55		 push	 ebp
  00001	8b ec		 mov	 ebp, esp
  00003	83 ec 40	 sub	 esp, 64			; 00000040H
  00006	53		 push	 ebx
  00007	56		 push	 esi
  00008	57		 push	 edi
  00009	b9 00 00 00 00	 mov	 ecx, OFFSET ?g_BuffHelper@@3VCBuffHelper@@A ; g_BuffHelper
  0000e	e8 00 00 00 00	 call	 ??1CBuffHelper@@QAE@XZ
  00013	5f		 pop	 edi
  00014	5e		 pop	 esi
  00015	5b		 pop	 ebx
  00016	8b e5		 mov	 esp, ebp
  00018	5d		 pop	 ebp
  00019	c3		 ret	 0
??__Fg_BuffHelper@@YAXXZ ENDP				; `dynamic atexit destructor for 'g_BuffHelper''
text$yd	ENDS
; Function compile flags: /Odtp /ZI
; File C:\Mu Online\Mu-GS-Webzen-MC-10093\GameServer\BuffHelper.cpp
;	COMDAT ??__Eg_BuffHelper@@YAXXZ
text$di	SEGMENT
??__Eg_BuffHelper@@YAXXZ PROC				; `dynamic initializer for 'g_BuffHelper'', COMDAT

; 22   : CBuffHelper g_BuffHelper;

  00000	55		 push	 ebp
  00001	8b ec		 mov	 ebp, esp
  00003	83 ec 40	 sub	 esp, 64			; 00000040H
  00006	53		 push	 ebx
  00007	56		 push	 esi
  00008	57		 push	 edi
  00009	b9 00 00 00 00	 mov	 ecx, OFFSET ?g_BuffHelper@@3VCBuffHelper@@A ; g_BuffHelper
  0000e	e8 00 00 00 00	 call	 ??0CBuffHelper@@QAE@XZ	; CBuffHelper::CBuffHelper
  00013	68 00 00 00 00	 push	 OFFSET ??__Fg_BuffHelper@@YAXXZ ; `dynamic atexit destructor for 'g_BuffHelper''
  00018	e8 00 00 00 00	 call	 _atexit
  0001d	83 c4 04	 add	 esp, 4
  00020	5f		 pop	 edi
  00021	5e		 pop	 esi
  00022	5b		 pop	 ebx
  00023	8b e5		 mov	 esp, ebp
  00025	5d		 pop	 ebp
  00026	c3		 ret	 0
??__Eg_BuffHelper@@YAXXZ ENDP				; `dynamic initializer for 'g_BuffHelper''
text$di	ENDS
; Function compile flags: /Odtp /ZI
; File C:\Mu Online\Mu-GS-Webzen-MC-10093\GameServer\ChaosCastle.h
;	COMDAT ??__Eg_iChaosCastle_MonsterItems@@YAXXZ
text$di	SEGMENT
??__Eg_iChaosCastle_MonsterItems@@YAXXZ PROC		; `dynamic initializer for 'g_iChaosCastle_MonsterItems'', COMDAT

; 359  : };

  00000	55		 push	 ebp
  00001	8b ec		 mov	 ebp, esp
  00003	83 ec 40	 sub	 esp, 64			; 00000040H
  00006	53		 push	 ebx
  00007	56		 push	 esi
  00008	57		 push	 edi

; 337  : 	MAKE_ITEMNUM(14, 13),		1,								// 1  - 

  00009	6a 0d		 push	 13			; 0000000dH
  0000b	6a 0e		 push	 14			; 0000000eH
  0000d	e8 00 00 00 00	 call	 ?MakeItemNumber@@YAHHH@Z ; MakeItemNumber
  00012	83 c4 08	 add	 esp, 8
  00015	a3 00 00 00 00	 mov	 DWORD PTR ?g_iChaosCastle_MonsterItems@@3PAY111HA, eax
  0001a	c7 05 04 00 00
	00 01 00 00 00	 mov	 DWORD PTR ?g_iChaosCastle_MonsterItems@@3PAY111HA+4, 1

; 338  : 	MAKE_ITEMNUM(14, 14),		2,								// 1  - 

  00024	6a 0e		 push	 14			; 0000000eH
  00026	6a 0e		 push	 14			; 0000000eH
  00028	e8 00 00 00 00	 call	 ?MakeItemNumber@@YAHHH@Z ; MakeItemNumber
  0002d	83 c4 08	 add	 esp, 8
  00030	a3 08 00 00 00	 mov	 DWORD PTR ?g_iChaosCastle_MonsterItems@@3PAY111HA+8, eax
  00035	c7 05 0c 00 00
	00 02 00 00 00	 mov	 DWORD PTR ?g_iChaosCastle_MonsterItems@@3PAY111HA+12, 2

; 339  : 	
; 340  : 	MAKE_ITEMNUM(14, 13),		1,								// 2  - 

  0003f	6a 0d		 push	 13			; 0000000dH
  00041	6a 0e		 push	 14			; 0000000eH
  00043	e8 00 00 00 00	 call	 ?MakeItemNumber@@YAHHH@Z ; MakeItemNumber
  00048	83 c4 08	 add	 esp, 8
  0004b	a3 10 00 00 00	 mov	 DWORD PTR ?g_iChaosCastle_MonsterItems@@3PAY111HA+16, eax
  00050	c7 05 14 00 00
	00 01 00 00 00	 mov	 DWORD PTR ?g_iChaosCastle_MonsterItems@@3PAY111HA+20, 1

; 341  : 	MAKE_ITEMNUM(14, 14),		3,								// 2  - 

  0005a	6a 0e		 push	 14			; 0000000eH
  0005c	6a 0e		 push	 14			; 0000000eH
  0005e	e8 00 00 00 00	 call	 ?MakeItemNumber@@YAHHH@Z ; MakeItemNumber
  00063	83 c4 08	 add	 esp, 8
  00066	a3 18 00 00 00	 mov	 DWORD PTR ?g_iChaosCastle_MonsterItems@@3PAY111HA+24, eax
  0006b	c7 05 1c 00 00
	00 03 00 00 00	 mov	 DWORD PTR ?g_iChaosCastle_MonsterItems@@3PAY111HA+28, 3

; 342  : 	
; 343  : 	MAKE_ITEMNUM(14, 13),		1,								// 3  - 

  00075	6a 0d		 push	 13			; 0000000dH
  00077	6a 0e		 push	 14			; 0000000eH
  00079	e8 00 00 00 00	 call	 ?MakeItemNumber@@YAHHH@Z ; MakeItemNumber
  0007e	83 c4 08	 add	 esp, 8
  00081	a3 20 00 00 00	 mov	 DWORD PTR ?g_iChaosCastle_MonsterItems@@3PAY111HA+32, eax
  00086	c7 05 24 00 00
	00 01 00 00 00	 mov	 DWORD PTR ?g_iChaosCastle_MonsterItems@@3PAY111HA+36, 1

; 344  : 	MAKE_ITEMNUM(14, 14),		3,								// 3  - 

  00090	6a 0e		 push	 14			; 0000000eH
  00092	6a 0e		 push	 14			; 0000000eH
  00094	e8 00 00 00 00	 call	 ?MakeItemNumber@@YAHHH@Z ; MakeItemNumber
  00099	83 c4 08	 add	 esp, 8
  0009c	a3 28 00 00 00	 mov	 DWORD PTR ?g_iChaosCastle_MonsterItems@@3PAY111HA+40, eax
  000a1	c7 05 2c 00 00
	00 03 00 00 00	 mov	 DWORD PTR ?g_iChaosCastle_MonsterItems@@3PAY111HA+44, 3

; 345  : 	
; 346  : 	MAKE_ITEMNUM(14, 13),		2,								// 4  - 

  000ab	6a 0d		 push	 13			; 0000000dH
  000ad	6a 0e		 push	 14			; 0000000eH
  000af	e8 00 00 00 00	 call	 ?MakeItemNumber@@YAHHH@Z ; MakeItemNumber
  000b4	83 c4 08	 add	 esp, 8
  000b7	a3 30 00 00 00	 mov	 DWORD PTR ?g_iChaosCastle_MonsterItems@@3PAY111HA+48, eax
  000bc	c7 05 34 00 00
	00 02 00 00 00	 mov	 DWORD PTR ?g_iChaosCastle_MonsterItems@@3PAY111HA+52, 2

; 347  : 	MAKE_ITEMNUM(14, 14),		2,								// 4  - 

  000c6	6a 0e		 push	 14			; 0000000eH
  000c8	6a 0e		 push	 14			; 0000000eH
  000ca	e8 00 00 00 00	 call	 ?MakeItemNumber@@YAHHH@Z ; MakeItemNumber
  000cf	83 c4 08	 add	 esp, 8
  000d2	a3 38 00 00 00	 mov	 DWORD PTR ?g_iChaosCastle_MonsterItems@@3PAY111HA+56, eax
  000d7	c7 05 3c 00 00
	00 02 00 00 00	 mov	 DWORD PTR ?g_iChaosCastle_MonsterItems@@3PAY111HA+60, 2

; 348  : 	
; 349  : 	MAKE_ITEMNUM(14, 13),		2,								// 5  - 

  000e1	6a 0d		 push	 13			; 0000000dH
  000e3	6a 0e		 push	 14			; 0000000eH
  000e5	e8 00 00 00 00	 call	 ?MakeItemNumber@@YAHHH@Z ; MakeItemNumber
  000ea	83 c4 08	 add	 esp, 8
  000ed	a3 40 00 00 00	 mov	 DWORD PTR ?g_iChaosCastle_MonsterItems@@3PAY111HA+64, eax
  000f2	c7 05 44 00 00
	00 02 00 00 00	 mov	 DWORD PTR ?g_iChaosCastle_MonsterItems@@3PAY111HA+68, 2

; 350  : 	MAKE_ITEMNUM(14, 14),		3,								// 5  - 

  000fc	6a 0e		 push	 14			; 0000000eH
  000fe	6a 0e		 push	 14			; 0000000eH
  00100	e8 00 00 00 00	 call	 ?MakeItemNumber@@YAHHH@Z ; MakeItemNumber
  00105	83 c4 08	 add	 esp, 8
  00108	a3 48 00 00 00	 mov	 DWORD PTR ?g_iChaosCastle_MonsterItems@@3PAY111HA+72, eax
  0010d	c7 05 4c 00 00
	00 03 00 00 00	 mov	 DWORD PTR ?g_iChaosCastle_MonsterItems@@3PAY111HA+76, 3

; 351  : 	
; 352  : 	MAKE_ITEMNUM(14, 13),		2,								// 6  - 

  00117	6a 0d		 push	 13			; 0000000dH
  00119	6a 0e		 push	 14			; 0000000eH
  0011b	e8 00 00 00 00	 call	 ?MakeItemNumber@@YAHHH@Z ; MakeItemNumber
  00120	83 c4 08	 add	 esp, 8
  00123	a3 50 00 00 00	 mov	 DWORD PTR ?g_iChaosCastle_MonsterItems@@3PAY111HA+80, eax
  00128	c7 05 54 00 00
	00 02 00 00 00	 mov	 DWORD PTR ?g_iChaosCastle_MonsterItems@@3PAY111HA+84, 2

; 353  : 	MAKE_ITEMNUM(14, 14),		3,								// 6  - 

  00132	6a 0e		 push	 14			; 0000000eH
  00134	6a 0e		 push	 14			; 0000000eH
  00136	e8 00 00 00 00	 call	 ?MakeItemNumber@@YAHHH@Z ; MakeItemNumber
  0013b	83 c4 08	 add	 esp, 8
  0013e	a3 58 00 00 00	 mov	 DWORD PTR ?g_iChaosCastle_MonsterItems@@3PAY111HA+88, eax
  00143	c7 05 5c 00 00
	00 03 00 00 00	 mov	 DWORD PTR ?g_iChaosCastle_MonsterItems@@3PAY111HA+92, 3
  0014d	5f		 pop	 edi
  0014e	5e		 pop	 esi
  0014f	5b		 pop	 ebx
  00150	8b e5		 mov	 esp, ebp
  00152	5d		 pop	 ebp
  00153	c3		 ret	 0
??__Eg_iChaosCastle_MonsterItems@@YAXXZ ENDP		; `dynamic initializer for 'g_iChaosCastle_MonsterItems''
text$di	ENDS
; Function compile flags: /Odtp /ZI
; File C:\Mu Online\Mu-GS-Webzen-MC-10093\include\readscript.h
;	COMDAT ?GetToken@@YA?AW4SMDToken@@XZ
_TEXT	SEGMENT
tv93 = -184						; size = 4
$T1 = -180						; size = 4
_TempString$ = -112					; size = 100
_p$ = -12						; size = 4
_ch$ = -5						; size = 1
__$ArrayPad$ = -4					; size = 4
?GetToken@@YA?AW4SMDToken@@XZ PROC			; GetToken, COMDAT

; 25   : {

  00000	55		 push	 ebp
  00001	8b ec		 mov	 ebp, esp
  00003	81 ec b8 00 00
	00		 sub	 esp, 184		; 000000b8H
  00009	a1 00 00 00 00	 mov	 eax, DWORD PTR ___security_cookie
  0000e	33 c5		 xor	 eax, ebp
  00010	89 45 fc	 mov	 DWORD PTR __$ArrayPad$[ebp], eax
  00013	53		 push	 ebx
  00014	56		 push	 esi
  00015	57		 push	 edi

; 26   : 	unsigned char ch;
; 27   : 	TokenString[0] = '\0';

  00016	b8 01 00 00 00	 mov	 eax, 1
  0001b	6b c8 00	 imul	 ecx, eax, 0
  0001e	89 8d 4c ff ff
	ff		 mov	 DWORD PTR $T1[ebp], ecx
  00024	83 bd 4c ff ff
	ff 64		 cmp	 DWORD PTR $T1[ebp], 100	; 00000064H
  0002b	73 02		 jae	 SHORT $LN31@GetToken
  0002d	eb 05		 jmp	 SHORT $LN32@GetToken
$LN31@GetToken:
  0002f	e8 00 00 00 00	 call	 ___report_rangecheckfailure
$LN32@GetToken:
  00034	8b 95 4c ff ff
	ff		 mov	 edx, DWORD PTR $T1[ebp]
  0003a	c6 82 00 00 00
	00 00		 mov	 BYTE PTR ?TokenString@@3PADA[edx], 0
$LN4@GetToken:

; 28   : 	do
; 29   : 	{
; 30   : 		if ( (ch =(unsigned char) fgetc(SMDFile)) == (BYTE)EOF) return END;

  00041	a1 00 00 00 00	 mov	 eax, DWORD PTR ?SMDFile@@3PAU_iobuf@@A
  00046	50		 push	 eax
  00047	e8 00 00 00 00	 call	 _fgetc
  0004c	83 c4 04	 add	 esp, 4
  0004f	88 45 fb	 mov	 BYTE PTR _ch$[ebp], al
  00052	0f b6 4d fb	 movzx	 ecx, BYTE PTR _ch$[ebp]
  00056	81 f9 ff 00 00
	00		 cmp	 ecx, 255		; 000000ffH
  0005c	75 0a		 jne	 SHORT $LN15@GetToken
  0005e	b8 02 00 00 00	 mov	 eax, 2
  00063	e9 d9 02 00 00	 jmp	 $LN7@GetToken
$LN15@GetToken:

; 31   : 		if (ch=='/' && (ch =(unsigned char) fgetc(SMDFile) )=='/')	

  00068	0f b6 45 fb	 movzx	 eax, BYTE PTR _ch$[ebp]
  0006c	83 f8 2f	 cmp	 eax, 47			; 0000002fH
  0006f	75 56		 jne	 SHORT $LN17@GetToken
  00071	a1 00 00 00 00	 mov	 eax, DWORD PTR ?SMDFile@@3PAU_iobuf@@A
  00076	50		 push	 eax
  00077	e8 00 00 00 00	 call	 _fgetc
  0007c	83 c4 04	 add	 esp, 4
  0007f	88 45 fb	 mov	 BYTE PTR _ch$[ebp], al
  00082	0f b6 4d fb	 movzx	 ecx, BYTE PTR _ch$[ebp]
  00086	83 f9 2f	 cmp	 ecx, 47			; 0000002fH
  00089	75 3c		 jne	 SHORT $LN17@GetToken
$LN5@GetToken:

; 32   : 		{
; 33   : 			while((ch != '\n') && (ch != (BYTE)EOF)) {			// 2003.09.02 H.J.I 

  0008b	0f b6 45 fb	 movzx	 eax, BYTE PTR _ch$[ebp]
  0008f	83 f8 0a	 cmp	 eax, 10			; 0000000aH
  00092	74 1e		 je	 SHORT $LN6@GetToken
  00094	0f b6 45 fb	 movzx	 eax, BYTE PTR _ch$[ebp]
  00098	3d ff 00 00 00	 cmp	 eax, 255		; 000000ffH
  0009d	74 13		 je	 SHORT $LN6@GetToken

; 34   : 				ch = (unsigned char) fgetc( SMDFile);

  0009f	a1 00 00 00 00	 mov	 eax, DWORD PTR ?SMDFile@@3PAU_iobuf@@A
  000a4	50		 push	 eax
  000a5	e8 00 00 00 00	 call	 _fgetc
  000aa	83 c4 04	 add	 esp, 4
  000ad	88 45 fb	 mov	 BYTE PTR _ch$[ebp], al

; 35   : 			}

  000b0	eb d9		 jmp	 SHORT $LN5@GetToken
$LN6@GetToken:

; 36   : 
; 37   : 			if (ch == (BYTE)EOF)

  000b2	0f b6 45 fb	 movzx	 eax, BYTE PTR _ch$[ebp]
  000b6	3d ff 00 00 00	 cmp	 eax, 255		; 000000ffH
  000bb	75 0a		 jne	 SHORT $LN17@GetToken

; 38   : 				return END;

  000bd	b8 02 00 00 00	 mov	 eax, 2
  000c2	e9 7a 02 00 00	 jmp	 $LN7@GetToken
$LN17@GetToken:

; 39   : 		}
; 40   : 	} while(  isspace(ch) );

  000c7	0f b6 45 fb	 movzx	 eax, BYTE PTR _ch$[ebp]
  000cb	50		 push	 eax
  000cc	e8 00 00 00 00	 call	 _isspace
  000d1	83 c4 04	 add	 esp, 4
  000d4	85 c0		 test	 eax, eax
  000d6	0f 85 65 ff ff
	ff		 jne	 $LN4@GetToken

; 41   : 	
; 42   : 	char *p, TempString[100];
; 43   : 	switch(ch)

  000dc	0f b6 45 fb	 movzx	 eax, BYTE PTR _ch$[ebp]
  000e0	89 85 48 ff ff
	ff		 mov	 DWORD PTR tv93[ebp], eax
  000e6	8b 8d 48 ff ff
	ff		 mov	 ecx, DWORD PTR tv93[ebp]
  000ec	83 e9 22	 sub	 ecx, 34			; 00000022H
  000ef	89 8d 48 ff ff
	ff		 mov	 DWORD PTR tv93[ebp], ecx
  000f5	83 bd 48 ff ff
	ff 5b		 cmp	 DWORD PTR tv93[ebp], 91	; 0000005bH
  000fc	0f 87 86 01 00
	00		 ja	 $LN27@GetToken
  00102	8b 95 48 ff ff
	ff		 mov	 edx, DWORD PTR tv93[ebp]
  00108	0f b6 82 00 00
	00 00		 movzx	 eax, BYTE PTR $LN33@GetToken[edx]
  0010f	ff 24 85 00 00
	00 00		 jmp	 DWORD PTR $LN34@GetToken[eax*4]
$LN18@GetToken:

; 44   : 	{	
; 45   : 	case '#':
; 46   : 		return CurrentToken = COMMAND;

  00116	c7 05 00 00 00
	00 23 00 00 00	 mov	 DWORD PTR ?CurrentToken@@3W4SMDToken@@A, 35 ; 00000023H
  00120	a1 00 00 00 00	 mov	 eax, DWORD PTR ?CurrentToken@@3W4SMDToken@@A
  00125	e9 17 02 00 00	 jmp	 $LN7@GetToken
$LN19@GetToken:

; 47   : 	case ';':
; 48   : 		return CurrentToken = SEMICOLON;

  0012a	c7 05 00 00 00
	00 3b 00 00 00	 mov	 DWORD PTR ?CurrentToken@@3W4SMDToken@@A, 59 ; 0000003bH
  00134	a1 00 00 00 00	 mov	 eax, DWORD PTR ?CurrentToken@@3W4SMDToken@@A
  00139	e9 03 02 00 00	 jmp	 $LN7@GetToken
$LN20@GetToken:

; 49   : 	case ',':
; 50   : 		return CurrentToken = COMMA;

  0013e	c7 05 00 00 00
	00 2c 00 00 00	 mov	 DWORD PTR ?CurrentToken@@3W4SMDToken@@A, 44 ; 0000002cH
  00148	a1 00 00 00 00	 mov	 eax, DWORD PTR ?CurrentToken@@3W4SMDToken@@A
  0014d	e9 ef 01 00 00	 jmp	 $LN7@GetToken
$LN21@GetToken:

; 51   : 	case '{':
; 52   : 		return CurrentToken = LP;

  00152	c7 05 00 00 00
	00 7b 00 00 00	 mov	 DWORD PTR ?CurrentToken@@3W4SMDToken@@A, 123 ; 0000007bH
  0015c	a1 00 00 00 00	 mov	 eax, DWORD PTR ?CurrentToken@@3W4SMDToken@@A
  00161	e9 db 01 00 00	 jmp	 $LN7@GetToken
$LN22@GetToken:

; 53   : 	case '}':
; 54   : 		return CurrentToken = RP;

  00166	c7 05 00 00 00
	00 7d 00 00 00	 mov	 DWORD PTR ?CurrentToken@@3W4SMDToken@@A, 125 ; 0000007dH
  00170	a1 00 00 00 00	 mov	 eax, DWORD PTR ?CurrentToken@@3W4SMDToken@@A
  00175	e9 c7 01 00 00	 jmp	 $LN7@GetToken
$LN23@GetToken:

; 55   : 	case '0':	case '1':	case '2':	case '3':	case '4':
; 56   : 	case '5':	case '6':	case '7':	case '8':	case '9':
; 57   : 	case '.':	case '-':
; 58   : 		ungetc(ch,SMDFile);

  0017a	a1 00 00 00 00	 mov	 eax, DWORD PTR ?SMDFile@@3PAU_iobuf@@A
  0017f	50		 push	 eax
  00180	0f b6 4d fb	 movzx	 ecx, BYTE PTR _ch$[ebp]
  00184	51		 push	 ecx
  00185	e8 00 00 00 00	 call	 _ungetc
  0018a	83 c4 08	 add	 esp, 8

; 59   : 		p = TempString;

  0018d	8d 45 90	 lea	 eax, DWORD PTR _TempString$[ebp]
  00190	89 45 f4	 mov	 DWORD PTR _p$[ebp], eax
$LN9@GetToken:

; 60   : 		while ( (  (ch = getc(SMDFile) ) !=(BYTE)EOF) && (ch=='.' || isdigit(ch) || ch=='-') )

  00193	a1 00 00 00 00	 mov	 eax, DWORD PTR ?SMDFile@@3PAU_iobuf@@A
  00198	50		 push	 eax
  00199	e8 00 00 00 00	 call	 _getc
  0019e	83 c4 04	 add	 esp, 4
  001a1	88 45 fb	 mov	 BYTE PTR _ch$[ebp], al
  001a4	0f b6 4d fb	 movzx	 ecx, BYTE PTR _ch$[ebp]
  001a8	81 f9 ff 00 00
	00		 cmp	 ecx, 255		; 000000ffH
  001ae	74 36		 je	 SHORT $LN10@GetToken
  001b0	0f b6 45 fb	 movzx	 eax, BYTE PTR _ch$[ebp]
  001b4	83 f8 2e	 cmp	 eax, 46			; 0000002eH
  001b7	74 1a		 je	 SHORT $LN24@GetToken
  001b9	0f b6 45 fb	 movzx	 eax, BYTE PTR _ch$[ebp]
  001bd	50		 push	 eax
  001be	e8 00 00 00 00	 call	 _isdigit
  001c3	83 c4 04	 add	 esp, 4
  001c6	85 c0		 test	 eax, eax
  001c8	75 09		 jne	 SHORT $LN24@GetToken
  001ca	0f b6 45 fb	 movzx	 eax, BYTE PTR _ch$[ebp]
  001ce	83 f8 2d	 cmp	 eax, 45			; 0000002dH
  001d1	75 13		 jne	 SHORT $LN10@GetToken
$LN24@GetToken:

; 61   : 			*p++ = ch;

  001d3	8b 45 f4	 mov	 eax, DWORD PTR _p$[ebp]
  001d6	8a 4d fb	 mov	 cl, BYTE PTR _ch$[ebp]
  001d9	88 08		 mov	 BYTE PTR [eax], cl
  001db	8b 55 f4	 mov	 edx, DWORD PTR _p$[ebp]
  001de	83 c2 01	 add	 edx, 1
  001e1	89 55 f4	 mov	 DWORD PTR _p$[ebp], edx
  001e4	eb ad		 jmp	 SHORT $LN9@GetToken
$LN10@GetToken:

; 62   : 		*p = 0;

  001e6	8b 45 f4	 mov	 eax, DWORD PTR _p$[ebp]
  001e9	c6 00 00	 mov	 BYTE PTR [eax], 0

; 63   : 		TokenNumber = (float)atof(TempString);

  001ec	8d 45 90	 lea	 eax, DWORD PTR _TempString$[ebp]
  001ef	50		 push	 eax
  001f0	e8 00 00 00 00	 call	 _atof
  001f5	83 c4 04	 add	 esp, 4
  001f8	d9 1d 00 00 00
	00		 fstp	 DWORD PTR ?TokenNumber@@3MA

; 64   : 		//			sscanf(TempString," %f ",&TokenNumber);
; 65   : 		return CurrentToken = NUMBER;

  001fe	c7 05 00 00 00
	00 01 00 00 00	 mov	 DWORD PTR ?CurrentToken@@3W4SMDToken@@A, 1
  00208	a1 00 00 00 00	 mov	 eax, DWORD PTR ?CurrentToken@@3W4SMDToken@@A
  0020d	e9 2f 01 00 00	 jmp	 $LN7@GetToken
$LN25@GetToken:

; 66   : 	case '"':
; 67   : 		p = TokenString;

  00212	c7 45 f4 00 00
	00 00		 mov	 DWORD PTR _p$[ebp], OFFSET ?TokenString@@3PADA
$LN11@GetToken:

; 68   : 		while ( (  (ch = getc(SMDFile) ) !=(BYTE)EOF) && (ch!='"'))// || isalnum(ch)) )

  00219	a1 00 00 00 00	 mov	 eax, DWORD PTR ?SMDFile@@3PAU_iobuf@@A
  0021e	50		 push	 eax
  0021f	e8 00 00 00 00	 call	 _getc
  00224	83 c4 04	 add	 esp, 4
  00227	88 45 fb	 mov	 BYTE PTR _ch$[ebp], al
  0022a	0f b6 4d fb	 movzx	 ecx, BYTE PTR _ch$[ebp]
  0022e	81 f9 ff 00 00
	00		 cmp	 ecx, 255		; 000000ffH
  00234	74 1c		 je	 SHORT $LN12@GetToken
  00236	0f b6 45 fb	 movzx	 eax, BYTE PTR _ch$[ebp]
  0023a	83 f8 22	 cmp	 eax, 34			; 00000022H
  0023d	74 13		 je	 SHORT $LN12@GetToken

; 69   : 			*p++ = ch;

  0023f	8b 45 f4	 mov	 eax, DWORD PTR _p$[ebp]
  00242	8a 4d fb	 mov	 cl, BYTE PTR _ch$[ebp]
  00245	88 08		 mov	 BYTE PTR [eax], cl
  00247	8b 55 f4	 mov	 edx, DWORD PTR _p$[ebp]
  0024a	83 c2 01	 add	 edx, 1
  0024d	89 55 f4	 mov	 DWORD PTR _p$[ebp], edx
  00250	eb c7		 jmp	 SHORT $LN11@GetToken
$LN12@GetToken:

; 70   : 		if (ch!='"')

  00252	0f b6 45 fb	 movzx	 eax, BYTE PTR _ch$[ebp]
  00256	83 f8 22	 cmp	 eax, 34			; 00000022H
  00259	74 13		 je	 SHORT $LN26@GetToken

; 71   : 			ungetc(ch,SMDFile);

  0025b	a1 00 00 00 00	 mov	 eax, DWORD PTR ?SMDFile@@3PAU_iobuf@@A
  00260	50		 push	 eax
  00261	0f b6 4d fb	 movzx	 ecx, BYTE PTR _ch$[ebp]
  00265	51		 push	 ecx
  00266	e8 00 00 00 00	 call	 _ungetc
  0026b	83 c4 08	 add	 esp, 8
$LN26@GetToken:

; 72   : 		*p = 0;

  0026e	8b 45 f4	 mov	 eax, DWORD PTR _p$[ebp]
  00271	c6 00 00	 mov	 BYTE PTR [eax], 0

; 73   : 		return CurrentToken = NAME;

  00274	c7 05 00 00 00
	00 00 00 00 00	 mov	 DWORD PTR ?CurrentToken@@3W4SMDToken@@A, 0
  0027e	a1 00 00 00 00	 mov	 eax, DWORD PTR ?CurrentToken@@3W4SMDToken@@A
  00283	e9 b9 00 00 00	 jmp	 $LN7@GetToken
$LN27@GetToken:

; 74   : 	default:
; 75   : 		if (isalpha(ch))	

  00288	0f b6 45 fb	 movzx	 eax, BYTE PTR _ch$[ebp]
  0028c	50		 push	 eax
  0028d	e8 00 00 00 00	 call	 _isalpha
  00292	83 c4 04	 add	 esp, 4
  00295	85 c0		 test	 eax, eax
  00297	0f 84 95 00 00
	00		 je	 $LN28@GetToken

; 76   : 		{
; 77   : 			p = TokenString;

  0029d	c7 45 f4 00 00
	00 00		 mov	 DWORD PTR _p$[ebp], OFFSET ?TokenString@@3PADA

; 78   : 			*p++ = ch;

  002a4	8b 45 f4	 mov	 eax, DWORD PTR _p$[ebp]
  002a7	8a 4d fb	 mov	 cl, BYTE PTR _ch$[ebp]
  002aa	88 08		 mov	 BYTE PTR [eax], cl
  002ac	8b 55 f4	 mov	 edx, DWORD PTR _p$[ebp]
  002af	83 c2 01	 add	 edx, 1
  002b2	89 55 f4	 mov	 DWORD PTR _p$[ebp], edx
$LN13@GetToken:

; 79   : 			while ( (  (ch = getc(SMDFile) ) !=(BYTE)EOF) && (ch=='.' || ch=='_' || isalnum(ch)) )

  002b5	a1 00 00 00 00	 mov	 eax, DWORD PTR ?SMDFile@@3PAU_iobuf@@A
  002ba	50		 push	 eax
  002bb	e8 00 00 00 00	 call	 _getc
  002c0	83 c4 04	 add	 esp, 4
  002c3	88 45 fb	 mov	 BYTE PTR _ch$[ebp], al
  002c6	0f b6 4d fb	 movzx	 ecx, BYTE PTR _ch$[ebp]
  002ca	81 f9 ff 00 00
	00		 cmp	 ecx, 255		; 000000ffH
  002d0	74 36		 je	 SHORT $LN14@GetToken
  002d2	0f b6 45 fb	 movzx	 eax, BYTE PTR _ch$[ebp]
  002d6	83 f8 2e	 cmp	 eax, 46			; 0000002eH
  002d9	74 1a		 je	 SHORT $LN29@GetToken
  002db	0f b6 45 fb	 movzx	 eax, BYTE PTR _ch$[ebp]
  002df	83 f8 5f	 cmp	 eax, 95			; 0000005fH
  002e2	74 11		 je	 SHORT $LN29@GetToken
  002e4	0f b6 45 fb	 movzx	 eax, BYTE PTR _ch$[ebp]
  002e8	50		 push	 eax
  002e9	e8 00 00 00 00	 call	 _isalnum
  002ee	83 c4 04	 add	 esp, 4
  002f1	85 c0		 test	 eax, eax
  002f3	74 13		 je	 SHORT $LN14@GetToken
$LN29@GetToken:

; 80   : 				*p++ = ch;

  002f5	8b 45 f4	 mov	 eax, DWORD PTR _p$[ebp]
  002f8	8a 4d fb	 mov	 cl, BYTE PTR _ch$[ebp]
  002fb	88 08		 mov	 BYTE PTR [eax], cl
  002fd	8b 55 f4	 mov	 edx, DWORD PTR _p$[ebp]
  00300	83 c2 01	 add	 edx, 1
  00303	89 55 f4	 mov	 DWORD PTR _p$[ebp], edx
  00306	eb ad		 jmp	 SHORT $LN13@GetToken
$LN14@GetToken:

; 81   : 			ungetc(ch,SMDFile);

  00308	a1 00 00 00 00	 mov	 eax, DWORD PTR ?SMDFile@@3PAU_iobuf@@A
  0030d	50		 push	 eax
  0030e	0f b6 4d fb	 movzx	 ecx, BYTE PTR _ch$[ebp]
  00312	51		 push	 ecx
  00313	e8 00 00 00 00	 call	 _ungetc
  00318	83 c4 08	 add	 esp, 8

; 82   : 			*p = 0;

  0031b	8b 45 f4	 mov	 eax, DWORD PTR _p$[ebp]
  0031e	c6 00 00	 mov	 BYTE PTR [eax], 0

; 83   : 			return CurrentToken = NAME;

  00321	c7 05 00 00 00
	00 00 00 00 00	 mov	 DWORD PTR ?CurrentToken@@3W4SMDToken@@A, 0
  0032b	a1 00 00 00 00	 mov	 eax, DWORD PTR ?CurrentToken@@3W4SMDToken@@A
  00330	eb 0f		 jmp	 SHORT $LN7@GetToken
$LN28@GetToken:

; 84   : 		}
; 85   : 		return CurrentToken = SMD_ERROR;

  00332	c7 05 00 00 00
	00 3c 00 00 00	 mov	 DWORD PTR ?CurrentToken@@3W4SMDToken@@A, 60 ; 0000003cH
  0033c	a1 00 00 00 00	 mov	 eax, DWORD PTR ?CurrentToken@@3W4SMDToken@@A
$LN7@GetToken:

; 86   : 	}
; 87   : }

  00341	5f		 pop	 edi
  00342	5e		 pop	 esi
  00343	5b		 pop	 ebx
  00344	8b 4d fc	 mov	 ecx, DWORD PTR __$ArrayPad$[ebp]
  00347	33 cd		 xor	 ecx, ebp
  00349	e8 00 00 00 00	 call	 @__security_check_cookie@4
  0034e	8b e5		 mov	 esp, ebp
  00350	5d		 pop	 ebp
  00351	c3		 ret	 0
  00352	66 90		 npad	 2
$LN34@GetToken:
  00354	00 00 00 00	 DD	 $LN25@GetToken
  00358	00 00 00 00	 DD	 $LN18@GetToken
  0035c	00 00 00 00	 DD	 $LN20@GetToken
  00360	00 00 00 00	 DD	 $LN23@GetToken
  00364	00 00 00 00	 DD	 $LN19@GetToken
  00368	00 00 00 00	 DD	 $LN21@GetToken
  0036c	00 00 00 00	 DD	 $LN22@GetToken
  00370	00 00 00 00	 DD	 $LN27@GetToken
$LN33@GetToken:
  00374	00		 DB	 0
  00375	01		 DB	 1
  00376	07		 DB	 7
  00377	07		 DB	 7
  00378	07		 DB	 7
  00379	07		 DB	 7
  0037a	07		 DB	 7
  0037b	07		 DB	 7
  0037c	07		 DB	 7
  0037d	07		 DB	 7
  0037e	02		 DB	 2
  0037f	03		 DB	 3
  00380	03		 DB	 3
  00381	07		 DB	 7
  00382	03		 DB	 3
  00383	03		 DB	 3
  00384	03		 DB	 3
  00385	03		 DB	 3
  00386	03		 DB	 3
  00387	03		 DB	 3
  00388	03		 DB	 3
  00389	03		 DB	 3
  0038a	03		 DB	 3
  0038b	03		 DB	 3
  0038c	07		 DB	 7
  0038d	04		 DB	 4
  0038e	07		 DB	 7
  0038f	07		 DB	 7
  00390	07		 DB	 7
  00391	07		 DB	 7
  00392	07		 DB	 7
  00393	07		 DB	 7
  00394	07		 DB	 7
  00395	07		 DB	 7
  00396	07		 DB	 7
  00397	07		 DB	 7
  00398	07		 DB	 7
  00399	07		 DB	 7
  0039a	07		 DB	 7
  0039b	07		 DB	 7
  0039c	07		 DB	 7
  0039d	07		 DB	 7
  0039e	07		 DB	 7
  0039f	07		 DB	 7
  003a0	07		 DB	 7
  003a1	07		 DB	 7
  003a2	07		 DB	 7
  003a3	07		 DB	 7
  003a4	07		 DB	 7
  003a5	07		 DB	 7
  003a6	07		 DB	 7
  003a7	07		 DB	 7
  003a8	07		 DB	 7
  003a9	07		 DB	 7
  003aa	07		 DB	 7
  003ab	07		 DB	 7
  003ac	07		 DB	 7
  003ad	07		 DB	 7
  003ae	07		 DB	 7
  003af	07		 DB	 7
  003b0	07		 DB	 7
  003b1	07		 DB	 7
  003b2	07		 DB	 7
  003b3	07		 DB	 7
  003b4	07		 DB	 7
  003b5	07		 DB	 7
  003b6	07		 DB	 7
  003b7	07		 DB	 7
  003b8	07		 DB	 7
  003b9	07		 DB	 7
  003ba	07		 DB	 7
  003bb	07		 DB	 7
  003bc	07		 DB	 7
  003bd	07		 DB	 7
  003be	07		 DB	 7
  003bf	07		 DB	 7
  003c0	07		 DB	 7
  003c1	07		 DB	 7
  003c2	07		 DB	 7
  003c3	07		 DB	 7
  003c4	07		 DB	 7
  003c5	07		 DB	 7
  003c6	07		 DB	 7
  003c7	07		 DB	 7
  003c8	07		 DB	 7
  003c9	07		 DB	 7
  003ca	07		 DB	 7
  003cb	07		 DB	 7
  003cc	07		 DB	 7
  003cd	05		 DB	 5
  003ce	07		 DB	 7
  003cf	06		 DB	 6
?GetToken@@YA?AW4SMDToken@@XZ ENDP			; GetToken
_TEXT	ENDS
; Function compile flags: /Odtp /ZI
; File C:\Program Files (x86)\Microsoft Visual Studio\2019\Community\VC\Tools\MSVC\14.27.29110\include\xmemory
;	COMDAT ??$_Allocate_manually_vector_aligned@U_Default_allocate_traits@std@@@std@@YAPAXI@Z
_TEXT	SEGMENT
__Ptr$ = -12						; size = 4
__Ptr_container$ = -8					; size = 4
__Block_size$ = -4					; size = 4
__Bytes$ = 8						; size = 4
??$_Allocate_manually_vector_aligned@U_Default_allocate_traits@std@@@std@@YAPAXI@Z PROC ; std::_Allocate_manually_vector_aligned<std::_Default_allocate_traits>, COMDAT

; 113  : __declspec(allocator) void* _Allocate_manually_vector_aligned(const size_t _Bytes) {

  00000	55		 push	 ebp
  00001	8b ec		 mov	 ebp, esp
  00003	83 ec 4c	 sub	 esp, 76			; 0000004cH
  00006	53		 push	 ebx
  00007	56		 push	 esi
  00008	57		 push	 edi

; 114  :     // allocate _Bytes manually aligned to at least _Big_allocation_alignment
; 115  :     const size_t _Block_size = _Non_user_size + _Bytes;

  00009	8b 45 08	 mov	 eax, DWORD PTR __Bytes$[ebp]
  0000c	83 c0 23	 add	 eax, 35			; 00000023H
  0000f	89 45 fc	 mov	 DWORD PTR __Block_size$[ebp], eax

; 116  :     if (_Block_size <= _Bytes) {

  00012	8b 45 fc	 mov	 eax, DWORD PTR __Block_size$[ebp]
  00015	3b 45 08	 cmp	 eax, DWORD PTR __Bytes$[ebp]
  00018	77 05		 ja	 SHORT $LN8@Allocate_m

; 117  :         _Throw_bad_array_new_length(); // add overflow

  0001a	e8 00 00 00 00	 call	 ?_Throw_bad_array_new_length@std@@YAXXZ ; std::_Throw_bad_array_new_length
$LN8@Allocate_m:

; 118  :     }
; 119  : 
; 120  :     const uintptr_t _Ptr_container = reinterpret_cast<uintptr_t>(_Traits::_Allocate(_Block_size));

  0001f	8b 45 fc	 mov	 eax, DWORD PTR __Block_size$[ebp]
  00022	50		 push	 eax
  00023	e8 00 00 00 00	 call	 ?_Allocate@_Default_allocate_traits@std@@SAPAXI@Z ; std::_Default_allocate_traits::_Allocate
  00028	83 c4 04	 add	 esp, 4
  0002b	89 45 f8	 mov	 DWORD PTR __Ptr_container$[ebp], eax
$LN4@Allocate_m:

; 121  :     _STL_VERIFY(_Ptr_container != 0, "invalid argument"); // validate even in release since we're doing p[-1]

  0002e	83 7d f8 00	 cmp	 DWORD PTR __Ptr_container$[ebp], 0
  00032	74 02		 je	 SHORT $LN7@Allocate_m
  00034	eb 09		 jmp	 SHORT $LN2@Allocate_m
$LN7@Allocate_m:
  00036	e8 00 00 00 00	 call	 __invalid_parameter_noinfo_noreturn
  0003b	33 c0		 xor	 eax, eax
  0003d	75 f7		 jne	 SHORT $LN7@Allocate_m
$LN2@Allocate_m:
  0003f	33 c0		 xor	 eax, eax
  00041	75 eb		 jne	 SHORT $LN4@Allocate_m

; 122  :     void* const _Ptr = reinterpret_cast<void*>((_Ptr_container + _Non_user_size) & ~(_Big_allocation_alignment - 1));

  00043	8b 45 f8	 mov	 eax, DWORD PTR __Ptr_container$[ebp]
  00046	83 c0 23	 add	 eax, 35			; 00000023H
  00049	83 e0 e0	 and	 eax, -32		; ffffffe0H
  0004c	89 45 f4	 mov	 DWORD PTR __Ptr$[ebp], eax

; 123  :     static_cast<uintptr_t*>(_Ptr)[-1] = _Ptr_container;

  0004f	b8 04 00 00 00	 mov	 eax, 4
  00054	6b c8 ff	 imul	 ecx, eax, -1
  00057	8b 55 f4	 mov	 edx, DWORD PTR __Ptr$[ebp]
  0005a	8b 45 f8	 mov	 eax, DWORD PTR __Ptr_container$[ebp]
  0005d	89 04 0a	 mov	 DWORD PTR [edx+ecx], eax

; 124  : 
; 125  : #ifdef _DEBUG
; 126  :     static_cast<uintptr_t*>(_Ptr)[-2] = _Big_allocation_sentinel;
; 127  : #endif // _DEBUG
; 128  :     return _Ptr;

  00060	8b 45 f4	 mov	 eax, DWORD PTR __Ptr$[ebp]
$LN11@Allocate_m:

; 129  : }

  00063	5f		 pop	 edi
  00064	5e		 pop	 esi
  00065	5b		 pop	 ebx
  00066	8b e5		 mov	 esp, ebp
  00068	5d		 pop	 ebp
  00069	c3		 ret	 0
??$_Allocate_manually_vector_aligned@U_Default_allocate_traits@std@@@std@@YAPAXI@Z ENDP ; std::_Allocate_manually_vector_aligned<std::_Default_allocate_traits>
_TEXT	ENDS
; Function compile flags: /Odtp /ZI
; File C:\Program Files (x86)\Microsoft Visual Studio\2019\Community\VC\Tools\MSVC\14.27.29110\include\xmemory
;	COMDAT ??$_Allocate@$07U_Default_allocate_traits@std@@$0A@@std@@YAPAXI@Z
_TEXT	SEGMENT
__Bytes$ = 8						; size = 4
??$_Allocate@$07U_Default_allocate_traits@std@@$0A@@std@@YAPAXI@Z PROC ; std::_Allocate<8,std::_Default_allocate_traits,0>, COMDAT

; 197  : __declspec(allocator) void* _Allocate(const size_t _Bytes) {

  00000	55		 push	 ebp
  00001	8b ec		 mov	 ebp, esp
  00003	83 ec 40	 sub	 esp, 64			; 00000040H
  00006	53		 push	 ebx
  00007	56		 push	 esi
  00008	57		 push	 edi

; 198  :     // allocate _Bytes when !_HAS_ALIGNED_NEW || _Align <= __STDCPP_DEFAULT_NEW_ALIGNMENT__
; 199  : #if defined(_M_IX86) || defined(_M_X64)
; 200  :     if (_Bytes >= _Big_allocation_threshold) { // boost the alignment of big allocations to help autovectorization

  00009	81 7d 08 00 10
	00 00		 cmp	 DWORD PTR __Bytes$[ebp], 4096 ; 00001000H
  00010	72 0e		 jb	 SHORT $LN2@Allocate

; 201  :         return _Allocate_manually_vector_aligned<_Traits>(_Bytes);

  00012	8b 45 08	 mov	 eax, DWORD PTR __Bytes$[ebp]
  00015	50		 push	 eax
  00016	e8 00 00 00 00	 call	 ??$_Allocate_manually_vector_aligned@U_Default_allocate_traits@std@@@std@@YAPAXI@Z ; std::_Allocate_manually_vector_aligned<std::_Default_allocate_traits>
  0001b	83 c4 04	 add	 esp, 4
  0001e	eb 16		 jmp	 SHORT $LN1@Allocate
$LN2@Allocate:

; 202  :     }
; 203  : #endif // defined(_M_IX86) || defined(_M_X64)
; 204  : 
; 205  :     if (_Bytes != 0) {

  00020	83 7d 08 00	 cmp	 DWORD PTR __Bytes$[ebp], 0
  00024	74 0e		 je	 SHORT $LN3@Allocate

; 206  :         return _Traits::_Allocate(_Bytes);

  00026	8b 45 08	 mov	 eax, DWORD PTR __Bytes$[ebp]
  00029	50		 push	 eax
  0002a	e8 00 00 00 00	 call	 ?_Allocate@_Default_allocate_traits@std@@SAPAXI@Z ; std::_Default_allocate_traits::_Allocate
  0002f	83 c4 04	 add	 esp, 4
  00032	eb 02		 jmp	 SHORT $LN1@Allocate
$LN3@Allocate:

; 207  :     }
; 208  : 
; 209  :     return nullptr;

  00034	33 c0		 xor	 eax, eax
$LN1@Allocate:

; 210  : }

  00036	5f		 pop	 edi
  00037	5e		 pop	 esi
  00038	5b		 pop	 ebx
  00039	8b e5		 mov	 esp, ebp
  0003b	5d		 pop	 ebp
  0003c	c3		 ret	 0
??$_Allocate@$07U_Default_allocate_traits@std@@$0A@@std@@YAPAXI@Z ENDP ; std::_Allocate<8,std::_Default_allocate_traits,0>
_TEXT	ENDS
; Function compile flags: /Odtp /ZI
; File C:\Program Files (x86)\Microsoft Visual Studio\2019\Community\VC\Tools\MSVC\14.27.29110\include\xmemory
;	COMDAT ??$_Deallocate@$07$0A@@std@@YAXPAXI@Z
_TEXT	SEGMENT
__$EHRec$ = -12						; size = 12
__Ptr$ = 8						; size = 4
__Bytes$ = 12						; size = 4
??$_Deallocate@$07$0A@@std@@YAXPAXI@Z PROC		; std::_Deallocate<8,0>, COMDAT

; 213  : void _Deallocate(void* _Ptr, size_t _Bytes) noexcept {

  00000	55		 push	 ebp
  00001	8b ec		 mov	 ebp, esp
  00003	6a ff		 push	 -1
  00005	68 00 00 00 00	 push	 __ehhandler$??$_Deallocate@$07$0A@@std@@YAXPAXI@Z
  0000a	64 a1 00 00 00
	00		 mov	 eax, DWORD PTR fs:0
  00010	50		 push	 eax
  00011	83 ec 40	 sub	 esp, 64			; 00000040H
  00014	53		 push	 ebx
  00015	56		 push	 esi
  00016	57		 push	 edi
  00017	a1 00 00 00 00	 mov	 eax, DWORD PTR ___security_cookie
  0001c	33 c5		 xor	 eax, ebp
  0001e	50		 push	 eax
  0001f	8d 45 f4	 lea	 eax, DWORD PTR __$EHRec$[ebp]
  00022	64 a3 00 00 00
	00		 mov	 DWORD PTR fs:0, eax

; 214  :     // deallocate storage allocated by _Allocate when !_HAS_ALIGNED_NEW || _Align <= __STDCPP_DEFAULT_NEW_ALIGNMENT__
; 215  : #if defined(_M_IX86) || defined(_M_X64)
; 216  :     if (_Bytes >= _Big_allocation_threshold) { // boost the alignment of big allocations to help autovectorization

  00028	81 7d 0c 00 10
	00 00		 cmp	 DWORD PTR __Bytes$[ebp], 4096 ; 00001000H
  0002f	72 10		 jb	 SHORT $LN2@Deallocate

; 217  :         _Adjust_manually_vector_aligned(_Ptr, _Bytes);

  00031	8d 45 0c	 lea	 eax, DWORD PTR __Bytes$[ebp]
  00034	50		 push	 eax
  00035	8d 4d 08	 lea	 ecx, DWORD PTR __Ptr$[ebp]
  00038	51		 push	 ecx
  00039	e8 00 00 00 00	 call	 ?_Adjust_manually_vector_aligned@std@@YAXAAPAXAAI@Z ; std::_Adjust_manually_vector_aligned
  0003e	83 c4 08	 add	 esp, 8
$LN2@Deallocate:

; 218  :     }
; 219  : #endif // defined(_M_IX86) || defined(_M_X64)
; 220  : 
; 221  :     ::operator delete(_Ptr, _Bytes);

  00041	8b 45 0c	 mov	 eax, DWORD PTR __Bytes$[ebp]
  00044	50		 push	 eax
  00045	8b 4d 08	 mov	 ecx, DWORD PTR __Ptr$[ebp]
  00048	51		 push	 ecx
  00049	e8 00 00 00 00	 call	 ??3@YAXPAXI@Z		; operator delete
  0004e	83 c4 08	 add	 esp, 8

; 222  : }

  00051	8b 4d f4	 mov	 ecx, DWORD PTR __$EHRec$[ebp]
  00054	64 89 0d 00 00
	00 00		 mov	 DWORD PTR fs:0, ecx
  0005b	59		 pop	 ecx
  0005c	5f		 pop	 edi
  0005d	5e		 pop	 esi
  0005e	5b		 pop	 ebx
  0005f	8b e5		 mov	 esp, ebp
  00061	5d		 pop	 ebp
  00062	c3		 ret	 0
  00063	cc		 int	 3
  00064	cc		 int	 3
  00065	cc		 int	 3
  00066	cc		 int	 3
  00067	cc		 int	 3
_TEXT	ENDS
;	COMDAT text$x
text$x	SEGMENT
__ehhandler$??$_Deallocate@$07$0A@@std@@YAXPAXI@Z:
  00000	90		 npad	 1
  00001	90		 npad	 1
  00002	8b 54 24 08	 mov	 edx, DWORD PTR [esp+8]
  00006	8d 42 0c	 lea	 eax, DWORD PTR [edx+12]
  00009	8b 4a b0	 mov	 ecx, DWORD PTR [edx-80]
  0000c	33 c8		 xor	 ecx, eax
  0000e	e8 00 00 00 00	 call	 @__security_check_cookie@4
  00013	b8 00 00 00 00	 mov	 eax, OFFSET __ehfuncinfo$??$_Deallocate@$07$0A@@std@@YAXPAXI@Z
  00018	e9 00 00 00 00	 jmp	 ___CxxFrameHandler3
text$x	ENDS
??$_Deallocate@$07$0A@@std@@YAXPAXI@Z ENDP		; std::_Deallocate<8,0>
; Function compile flags: /Odtp /ZI
; File C:\Program Files (x86)\Microsoft Visual Studio\2019\Community\VC\Tools\MSVC\14.27.29110\include\utility
;	COMDAT ??$min@I@std@@YAABIABI0@Z
_TEXT	SEGMENT
tv65 = -72						; size = 4
$T1 = -68						; size = 4
__Left$ = 8						; size = 4
__Right$ = 12						; size = 4
??$min@I@std@@YAABIABI0@Z PROC				; std::min<unsigned int>, COMDAT

; 67   :     const _Ty& _Left, const _Ty& _Right) noexcept(noexcept(_Right < _Left)) /* strengthened */ {

  00000	55		 push	 ebp
  00001	8b ec		 mov	 ebp, esp
  00003	83 ec 48	 sub	 esp, 72			; 00000048H
  00006	53		 push	 ebx
  00007	56		 push	 esi
  00008	57		 push	 edi

; 68   :     // return smaller of _Left and _Right
; 69   :     return _Right < _Left ? _Right : _Left;

  00009	8b 45 0c	 mov	 eax, DWORD PTR __Right$[ebp]
  0000c	8b 4d 08	 mov	 ecx, DWORD PTR __Left$[ebp]
  0000f	8b 10		 mov	 edx, DWORD PTR [eax]
  00011	3b 11		 cmp	 edx, DWORD PTR [ecx]
  00013	73 08		 jae	 SHORT $LN3@min
  00015	8b 45 0c	 mov	 eax, DWORD PTR __Right$[ebp]
  00018	89 45 b8	 mov	 DWORD PTR tv65[ebp], eax
  0001b	eb 06		 jmp	 SHORT $LN4@min
$LN3@min:
  0001d	8b 4d 08	 mov	 ecx, DWORD PTR __Left$[ebp]
  00020	89 4d b8	 mov	 DWORD PTR tv65[ebp], ecx
$LN4@min:
  00023	8b 55 b8	 mov	 edx, DWORD PTR tv65[ebp]
  00026	89 55 bc	 mov	 DWORD PTR $T1[ebp], edx
  00029	8b 45 bc	 mov	 eax, DWORD PTR $T1[ebp]

; 70   : }

  0002c	5f		 pop	 edi
  0002d	5e		 pop	 esi
  0002e	5b		 pop	 ebx
  0002f	8b e5		 mov	 esp, ebp
  00031	5d		 pop	 ebp
  00032	c3		 ret	 0
??$min@I@std@@YAABIABI0@Z ENDP				; std::min<unsigned int>
_TEXT	ENDS
; Function compile flags: /Odtp /ZI
;	COMDAT ??1CBuffHelper@@QAE@XZ
_TEXT	SEGMENT
_this$ = -4						; size = 4
??1CBuffHelper@@QAE@XZ PROC				; CBuffHelper::~CBuffHelper, COMDAT
; _this$ = ecx
  00000	55		 push	 ebp
  00001	8b ec		 mov	 ebp, esp
  00003	83 ec 44	 sub	 esp, 68			; 00000044H
  00006	53		 push	 ebx
  00007	56		 push	 esi
  00008	57		 push	 edi
  00009	89 4d fc	 mov	 DWORD PTR _this$[ebp], ecx
  0000c	8b 4d fc	 mov	 ecx, DWORD PTR _this$[ebp]
  0000f	83 c1 10	 add	 ecx, 16			; 00000010H
  00012	e8 00 00 00 00	 call	 ??1?$map@HUNPC_DATA_HELPER@@U?$less@H@std@@V?$allocator@U?$pair@$$CBHUNPC_DATA_HELPER@@@std@@@3@@std@@QAE@XZ
  00017	5f		 pop	 edi
  00018	5e		 pop	 esi
  00019	5b		 pop	 ebx
  0001a	8b e5		 mov	 esp, ebp
  0001c	5d		 pop	 ebp
  0001d	c3		 ret	 0
??1CBuffHelper@@QAE@XZ ENDP				; CBuffHelper::~CBuffHelper
_TEXT	ENDS
; Function compile flags: /Odtp /ZI
;	COMDAT ??1?$map@HUNPC_DATA_HELPER@@U?$less@H@std@@V?$allocator@U?$pair@$$CBHUNPC_DATA_HELPER@@@std@@@3@@std@@QAE@XZ
_TEXT	SEGMENT
_this$ = -4						; size = 4
??1?$map@HUNPC_DATA_HELPER@@U?$less@H@std@@V?$allocator@U?$pair@$$CBHUNPC_DATA_HELPER@@@std@@@3@@std@@QAE@XZ PROC ; std::map<int,NPC_DATA_HELPER,std::less<int>,std::allocator<std::pair<int const ,NPC_DATA_HELPER> > >::~map<int,NPC_DATA_HELPER,std::less<int>,std::allocator<std::pair<int const ,NPC_DATA_HELPER> > >, COMDAT
; _this$ = ecx
  00000	55		 push	 ebp
  00001	8b ec		 mov	 ebp, esp
  00003	83 ec 44	 sub	 esp, 68			; 00000044H
  00006	53		 push	 ebx
  00007	56		 push	 esi
  00008	57		 push	 edi
  00009	89 4d fc	 mov	 DWORD PTR _this$[ebp], ecx
  0000c	8b 4d fc	 mov	 ecx, DWORD PTR _this$[ebp]
  0000f	e8 00 00 00 00	 call	 ??1?$_Tree@V?$_Tmap_traits@HUNPC_DATA_HELPER@@U?$less@H@std@@V?$allocator@U?$pair@$$CBHUNPC_DATA_HELPER@@@std@@@3@$0A@@std@@@std@@QAE@XZ ; std::_Tree<std::_Tmap_traits<int,NPC_DATA_HELPER,std::less<int>,std::allocator<std::pair<int const ,NPC_DATA_HELPER> >,0> >::~_Tree<std::_Tmap_traits<int,NPC_DATA_HELPER,std::less<int>,std::allocator<std::pair<int const ,NPC_DATA_HELPER> >,0> >
  00014	5f		 pop	 edi
  00015	5e		 pop	 esi
  00016	5b		 pop	 ebx
  00017	8b e5		 mov	 esp, ebp
  00019	5d		 pop	 ebp
  0001a	c3		 ret	 0
??1?$map@HUNPC_DATA_HELPER@@U?$less@H@std@@V?$allocator@U?$pair@$$CBHUNPC_DATA_HELPER@@@std@@@3@@std@@QAE@XZ ENDP ; std::map<int,NPC_DATA_HELPER,std::less<int>,std::allocator<std::pair<int const ,NPC_DATA_HELPER> > >::~map<int,NPC_DATA_HELPER,std::less<int>,std::allocator<std::pair<int const ,NPC_DATA_HELPER> > >
_TEXT	ENDS
; Function compile flags: /Odtp /ZI
; File C:\Program Files (x86)\Microsoft Visual Studio\2019\Community\VC\Tools\MSVC\14.27.29110\include\map
;	COMDAT ??0?$map@HUNPC_DATA_HELPER@@U?$less@H@std@@V?$allocator@U?$pair@$$CBHUNPC_DATA_HELPER@@@std@@@3@@std@@QAE@XZ
_TEXT	SEGMENT
$T1 = -69						; size = 1
_this$ = -4						; size = 4
??0?$map@HUNPC_DATA_HELPER@@U?$less@H@std@@V?$allocator@U?$pair@$$CBHUNPC_DATA_HELPER@@@std@@@3@@std@@QAE@XZ PROC ; std::map<int,NPC_DATA_HELPER,std::less<int>,std::allocator<std::pair<int const ,NPC_DATA_HELPER> > >::map<int,NPC_DATA_HELPER,std::less<int>,std::allocator<std::pair<int const ,NPC_DATA_HELPER> > >, COMDAT
; _this$ = ecx

; 107  :     map() : _Mybase(key_compare()) {}

  00000	55		 push	 ebp
  00001	8b ec		 mov	 ebp, esp
  00003	83 ec 48	 sub	 esp, 72			; 00000048H
  00006	53		 push	 ebx
  00007	56		 push	 esi
  00008	57		 push	 edi
  00009	89 4d fc	 mov	 DWORD PTR _this$[ebp], ecx
  0000c	8d 45 bb	 lea	 eax, DWORD PTR $T1[ebp]
  0000f	50		 push	 eax
  00010	8b 4d fc	 mov	 ecx, DWORD PTR _this$[ebp]
  00013	e8 00 00 00 00	 call	 ??0?$_Tree@V?$_Tmap_traits@HUNPC_DATA_HELPER@@U?$less@H@std@@V?$allocator@U?$pair@$$CBHUNPC_DATA_HELPER@@@std@@@3@$0A@@std@@@std@@QAE@ABU?$less@H@1@@Z ; std::_Tree<std::_Tmap_traits<int,NPC_DATA_HELPER,std::less<int>,std::allocator<std::pair<int const ,NPC_DATA_HELPER> >,0> >::_Tree<std::_Tmap_traits<int,NPC_DATA_HELPER,std::less<int>,std::allocator<std::pair<int const ,NPC_DATA_HELPER> >,0> >
  00018	8b 45 fc	 mov	 eax, DWORD PTR _this$[ebp]
  0001b	5f		 pop	 edi
  0001c	5e		 pop	 esi
  0001d	5b		 pop	 ebx
  0001e	8b e5		 mov	 esp, ebp
  00020	5d		 pop	 ebp
  00021	c3		 ret	 0
??0?$map@HUNPC_DATA_HELPER@@U?$less@H@std@@V?$allocator@U?$pair@$$CBHUNPC_DATA_HELPER@@@std@@@3@@std@@QAE@XZ ENDP ; std::map<int,NPC_DATA_HELPER,std::less<int>,std::allocator<std::pair<int const ,NPC_DATA_HELPER> > >::map<int,NPC_DATA_HELPER,std::less<int>,std::allocator<std::pair<int const ,NPC_DATA_HELPER> > >
_TEXT	ENDS
; Function compile flags: /Odtp /ZI
; File C:\Program Files (x86)\Microsoft Visual Studio\2019\Community\VC\Tools\MSVC\14.27.29110\include\xmemory
;	COMDAT ?_Get_first@?$_Compressed_pair@U?$less@H@std@@V?$_Compressed_pair@V?$allocator@U?$_Tree_node@U?$pair@$$CBHUNPC_DATA_HELPER@@@std@@PAX@std@@@std@@V?$_Tree_val@U?$_Tree_simple_types@U?$pair@$$CBHUNPC_DATA_HELPER@@@std@@@std@@@2@$00@2@$00@std@@QBEABU?$less@H@2@XZ
_TEXT	SEGMENT
_this$ = -4						; size = 4
?_Get_first@?$_Compressed_pair@U?$less@H@std@@V?$_Compressed_pair@V?$allocator@U?$_Tree_node@U?$pair@$$CBHUNPC_DATA_HELPER@@@std@@PAX@std@@@std@@V?$_Tree_val@U?$_Tree_simple_types@U?$pair@$$CBHUNPC_DATA_HELPER@@@std@@@std@@@2@$00@2@$00@std@@QBEABU?$less@H@2@XZ PROC ; std::_Compressed_pair<std::less<int>,std::_Compressed_pair<std::allocator<std::_Tree_node<std::pair<int const ,NPC_DATA_HELPER>,void *> >,std::_Tree_val<std::_Tree_simple_types<std::pair<int const ,NPC_DATA_HELPER> > >,1>,1>::_Get_first, COMDAT
; _this$ = ecx

; 1347 :     constexpr const _Ty1& _Get_first() const noexcept {

  00000	55		 push	 ebp
  00001	8b ec		 mov	 ebp, esp
  00003	83 ec 44	 sub	 esp, 68			; 00000044H
  00006	53		 push	 ebx
  00007	56		 push	 esi
  00008	57		 push	 edi
  00009	89 4d fc	 mov	 DWORD PTR _this$[ebp], ecx

; 1348 :         return *this;

  0000c	8b 45 fc	 mov	 eax, DWORD PTR _this$[ebp]

; 1349 :     }

  0000f	5f		 pop	 edi
  00010	5e		 pop	 esi
  00011	5b		 pop	 ebx
  00012	8b e5		 mov	 esp, ebp
  00014	5d		 pop	 ebp
  00015	c3		 ret	 0
?_Get_first@?$_Compressed_pair@U?$less@H@std@@V?$_Compressed_pair@V?$allocator@U?$_Tree_node@U?$pair@$$CBHUNPC_DATA_HELPER@@@std@@PAX@std@@@std@@V?$_Tree_val@U?$_Tree_simple_types@U?$pair@$$CBHUNPC_DATA_HELPER@@@std@@@std@@@2@$00@2@$00@std@@QBEABU?$less@H@2@XZ ENDP ; std::_Compressed_pair<std::less<int>,std::_Compressed_pair<std::allocator<std::_Tree_node<std::pair<int const ,NPC_DATA_HELPER>,void *> >,std::_Tree_val<std::_Tree_simple_types<std::pair<int const ,NPC_DATA_HELPER> > >,1>,1>::_Get_first
_TEXT	ENDS
; Function compile flags: /Odtp /ZI
; File C:\Program Files (x86)\Microsoft Visual Studio\2019\Community\VC\Tools\MSVC\14.27.29110\include\xmemory
;	COMDAT ?_Get_first@?$_Compressed_pair@V?$allocator@U?$_Tree_node@U?$pair@$$CBHUNPC_DATA_HELPER@@@std@@PAX@std@@@std@@V?$_Tree_val@U?$_Tree_simple_types@U?$pair@$$CBHUNPC_DATA_HELPER@@@std@@@std@@@2@$00@std@@QBEABV?$allocator@U?$_Tree_node@U?$pair@$$CBHUNPC_DATA_HELPER@@@std@@PAX@std@@@2@XZ
_TEXT	SEGMENT
_this$ = -4						; size = 4
?_Get_first@?$_Compressed_pair@V?$allocator@U?$_Tree_node@U?$pair@$$CBHUNPC_DATA_HELPER@@@std@@PAX@std@@@std@@V?$_Tree_val@U?$_Tree_simple_types@U?$pair@$$CBHUNPC_DATA_HELPER@@@std@@@std@@@2@$00@std@@QBEABV?$allocator@U?$_Tree_node@U?$pair@$$CBHUNPC_DATA_HELPER@@@std@@PAX@std@@@2@XZ PROC ; std::_Compressed_pair<std::allocator<std::_Tree_node<std::pair<int const ,NPC_DATA_HELPER>,void *> >,std::_Tree_val<std::_Tree_simple_types<std::pair<int const ,NPC_DATA_HELPER> > >,1>::_Get_first, COMDAT
; _this$ = ecx

; 1347 :     constexpr const _Ty1& _Get_first() const noexcept {

  00000	55		 push	 ebp
  00001	8b ec		 mov	 ebp, esp
  00003	83 ec 44	 sub	 esp, 68			; 00000044H
  00006	53		 push	 ebx
  00007	56		 push	 esi
  00008	57		 push	 edi
  00009	89 4d fc	 mov	 DWORD PTR _this$[ebp], ecx

; 1348 :         return *this;

  0000c	8b 45 fc	 mov	 eax, DWORD PTR _this$[ebp]

; 1349 :     }

  0000f	5f		 pop	 edi
  00010	5e		 pop	 esi
  00011	5b		 pop	 ebx
  00012	8b e5		 mov	 esp, ebp
  00014	5d		 pop	 ebp
  00015	c3		 ret	 0
?_Get_first@?$_Compressed_pair@V?$allocator@U?$_Tree_node@U?$pair@$$CBHUNPC_DATA_HELPER@@@std@@PAX@std@@@std@@V?$_Tree_val@U?$_Tree_simple_types@U?$pair@$$CBHUNPC_DATA_HELPER@@@std@@@std@@@2@$00@std@@QBEABV?$allocator@U?$_Tree_node@U?$pair@$$CBHUNPC_DATA_HELPER@@@std@@PAX@std@@@2@XZ ENDP ; std::_Compressed_pair<std::allocator<std::_Tree_node<std::pair<int const ,NPC_DATA_HELPER>,void *> >,std::_Tree_val<std::_Tree_simple_types<std::pair<int const ,NPC_DATA_HELPER> > >,1>::_Get_first
_TEXT	ENDS
; Function compile flags: /Odtp /ZI
; File C:\Program Files (x86)\Microsoft Visual Studio\2019\Community\VC\Tools\MSVC\14.27.29110\include\xmemory
;	COMDAT ?_Get_first@?$_Compressed_pair@V?$allocator@U?$_Tree_node@U?$pair@$$CBHUNPC_DATA_HELPER@@@std@@PAX@std@@@std@@V?$_Tree_val@U?$_Tree_simple_types@U?$pair@$$CBHUNPC_DATA_HELPER@@@std@@@std@@@2@$00@std@@QAEAAV?$allocator@U?$_Tree_node@U?$pair@$$CBHUNPC_DATA_HELPER@@@std@@PAX@std@@@2@XZ
_TEXT	SEGMENT
_this$ = -4						; size = 4
?_Get_first@?$_Compressed_pair@V?$allocator@U?$_Tree_node@U?$pair@$$CBHUNPC_DATA_HELPER@@@std@@PAX@std@@@std@@V?$_Tree_val@U?$_Tree_simple_types@U?$pair@$$CBHUNPC_DATA_HELPER@@@std@@@std@@@2@$00@std@@QAEAAV?$allocator@U?$_Tree_node@U?$pair@$$CBHUNPC_DATA_HELPER@@@std@@PAX@std@@@2@XZ PROC ; std::_Compressed_pair<std::allocator<std::_Tree_node<std::pair<int const ,NPC_DATA_HELPER>,void *> >,std::_Tree_val<std::_Tree_simple_types<std::pair<int const ,NPC_DATA_HELPER> > >,1>::_Get_first, COMDAT
; _this$ = ecx

; 1343 :     constexpr _Ty1& _Get_first() noexcept {

  00000	55		 push	 ebp
  00001	8b ec		 mov	 ebp, esp
  00003	83 ec 44	 sub	 esp, 68			; 00000044H
  00006	53		 push	 ebx
  00007	56		 push	 esi
  00008	57		 push	 edi
  00009	89 4d fc	 mov	 DWORD PTR _this$[ebp], ecx

; 1344 :         return *this;

  0000c	8b 45 fc	 mov	 eax, DWORD PTR _this$[ebp]

; 1345 :     }

  0000f	5f		 pop	 edi
  00010	5e		 pop	 esi
  00011	5b		 pop	 ebx
  00012	8b e5		 mov	 esp, ebp
  00014	5d		 pop	 ebp
  00015	c3		 ret	 0
?_Get_first@?$_Compressed_pair@V?$allocator@U?$_Tree_node@U?$pair@$$CBHUNPC_DATA_HELPER@@@std@@PAX@std@@@std@@V?$_Tree_val@U?$_Tree_simple_types@U?$pair@$$CBHUNPC_DATA_HELPER@@@std@@@std@@@2@$00@std@@QAEAAV?$allocator@U?$_Tree_node@U?$pair@$$CBHUNPC_DATA_HELPER@@@std@@PAX@std@@@2@XZ ENDP ; std::_Compressed_pair<std::allocator<std::_Tree_node<std::pair<int const ,NPC_DATA_HELPER>,void *> >,std::_Tree_val<std::_Tree_simple_types<std::pair<int const ,NPC_DATA_HELPER> > >,1>::_Get_first
_TEXT	ENDS
; Function compile flags: /Odtp /ZI
; File C:\Program Files (x86)\Microsoft Visual Studio\2019\Community\VC\Tools\MSVC\14.27.29110\include\xtree
;	COMDAT ?_Orphan_ptr@?$_Tree_val@U?$_Tree_simple_types@U?$pair@$$CBHUNPC_DATA_HELPER@@@std@@@std@@@std@@QAEXQAU?$_Tree_node@U?$pair@$$CBHUNPC_DATA_HELPER@@@std@@PAX@2@@Z
_TEXT	SEGMENT
_this$ = -4						; size = 4
__Ptr$ = 8						; size = 4
?_Orphan_ptr@?$_Tree_val@U?$_Tree_simple_types@U?$pair@$$CBHUNPC_DATA_HELPER@@@std@@@std@@@std@@QAEXQAU?$_Tree_node@U?$pair@$$CBHUNPC_DATA_HELPER@@@std@@PAX@2@@Z PROC ; std::_Tree_val<std::_Tree_simple_types<std::pair<int const ,NPC_DATA_HELPER> > >::_Orphan_ptr, COMDAT
; _this$ = ecx

; 713  :     void _Orphan_ptr(const _Nodeptr _Ptr) noexcept {

  00000	55		 push	 ebp
  00001	8b ec		 mov	 ebp, esp
  00003	83 ec 44	 sub	 esp, 68			; 00000044H
  00006	53		 push	 ebx
  00007	56		 push	 esi
  00008	57		 push	 edi
  00009	89 4d fc	 mov	 DWORD PTR _this$[ebp], ecx

; 714  : #if _ITERATOR_DEBUG_LEVEL == 2
; 715  :         _Lockit _Lock(_LOCK_DEBUG);
; 716  :         _Iterator_base12** _Pnext = &this->_Myproxy->_Myfirstiter;
; 717  :         while (*_Pnext) {
; 718  :             const auto _Pnextptr = static_cast<const_iterator&>(**_Pnext)._Ptr;
; 719  :             if (_Pnextptr == _Myhead || (_Ptr != nullptr && _Pnextptr != _Ptr)) {
; 720  :                 _Pnext = &(*_Pnext)->_Mynextiter;
; 721  :             } else { // orphan the iterator
; 722  :                 (*_Pnext)->_Myproxy = nullptr;
; 723  :                 *_Pnext             = (*_Pnext)->_Mynextiter;
; 724  :             }
; 725  :         }
; 726  : #else // ^^^ _ITERATOR_DEBUG_LEVEL == 2 ^^^ // vvv _ITERATOR_DEBUG_LEVEL != 2 vvv
; 727  :         (void) _Ptr;
; 728  : #endif // _ITERATOR_DEBUG_LEVEL == 2
; 729  :     }

  0000c	5f		 pop	 edi
  0000d	5e		 pop	 esi
  0000e	5b		 pop	 ebx
  0000f	8b e5		 mov	 esp, ebp
  00011	5d		 pop	 ebp
  00012	c2 04 00	 ret	 4
?_Orphan_ptr@?$_Tree_val@U?$_Tree_simple_types@U?$pair@$$CBHUNPC_DATA_HELPER@@@std@@@std@@@std@@QAEXQAU?$_Tree_node@U?$pair@$$CBHUNPC_DATA_HELPER@@@std@@PAX@2@@Z ENDP ; std::_Tree_val<std::_Tree_simple_types<std::pair<int const ,NPC_DATA_HELPER> > >::_Orphan_ptr
_TEXT	ENDS
; Function compile flags: /Odtp /ZI
; File C:\Program Files (x86)\Microsoft Visual Studio\2019\Community\VC\Tools\MSVC\14.27.29110\include\xtree
;	COMDAT ?_Insert_node@?$_Tree_val@U?$_Tree_simple_types@U?$pair@$$CBHUNPC_DATA_HELPER@@@std@@@std@@@std@@QAEPAU?$_Tree_node@U?$pair@$$CBHUNPC_DATA_HELPER@@@std@@PAX@2@U?$_Tree_id@PAU?$_Tree_node@U?$pair@$$CBHUNPC_DATA_HELPER@@@std@@PAX@std@@@2@QAU32@@Z
_TEXT	SEGMENT
__Parent_sibling$1 = -20				; size = 4
__Parent_sibling$2 = -16				; size = 4
__Pnode$3 = -12						; size = 4
__Head$ = -8						; size = 4
_this$ = -4						; size = 4
__Loc$ = 8						; size = 8
__Newnode$ = 16						; size = 4
?_Insert_node@?$_Tree_val@U?$_Tree_simple_types@U?$pair@$$CBHUNPC_DATA_HELPER@@@std@@@std@@@std@@QAEPAU?$_Tree_node@U?$pair@$$CBHUNPC_DATA_HELPER@@@std@@PAX@2@U?$_Tree_id@PAU?$_Tree_node@U?$pair@$$CBHUNPC_DATA_HELPER@@@std@@PAX@std@@@2@QAU32@@Z PROC ; std::_Tree_val<std::_Tree_simple_types<std::pair<int const ,NPC_DATA_HELPER> > >::_Insert_node, COMDAT
; _this$ = ecx

; 644  :     _Nodeptr _Insert_node(const _Tree_id<_Nodeptr> _Loc, const _Nodeptr _Newnode) noexcept {

  00000	55		 push	 ebp
  00001	8b ec		 mov	 ebp, esp
  00003	83 ec 54	 sub	 esp, 84			; 00000054H
  00006	53		 push	 ebx
  00007	56		 push	 esi
  00008	57		 push	 edi
  00009	89 4d fc	 mov	 DWORD PTR _this$[ebp], ecx

; 645  :         ++_Mysize;

  0000c	8b 45 fc	 mov	 eax, DWORD PTR _this$[ebp]
  0000f	8b 48 04	 mov	 ecx, DWORD PTR [eax+4]
  00012	83 c1 01	 add	 ecx, 1
  00015	8b 55 fc	 mov	 edx, DWORD PTR _this$[ebp]
  00018	89 4a 04	 mov	 DWORD PTR [edx+4], ecx

; 646  :         const auto _Head  = _Myhead;

  0001b	8b 45 fc	 mov	 eax, DWORD PTR _this$[ebp]
  0001e	8b 08		 mov	 ecx, DWORD PTR [eax]
  00020	89 4d f8	 mov	 DWORD PTR __Head$[ebp], ecx

; 647  :         _Newnode->_Parent = _Loc._Parent;

  00023	8b 45 10	 mov	 eax, DWORD PTR __Newnode$[ebp]
  00026	8b 4d 08	 mov	 ecx, DWORD PTR __Loc$[ebp]
  00029	89 48 04	 mov	 DWORD PTR [eax+4], ecx

; 648  :         if (_Loc._Parent == _Head) { // first node in tree, just set head values

  0002c	8b 45 08	 mov	 eax, DWORD PTR __Loc$[ebp]
  0002f	3b 45 f8	 cmp	 eax, DWORD PTR __Head$[ebp]
  00032	75 29		 jne	 SHORT $LN5@Insert_nod

; 649  :             _Head->_Left     = _Newnode;

  00034	8b 45 f8	 mov	 eax, DWORD PTR __Head$[ebp]
  00037	8b 4d 10	 mov	 ecx, DWORD PTR __Newnode$[ebp]
  0003a	89 08		 mov	 DWORD PTR [eax], ecx

; 650  :             _Head->_Parent   = _Newnode;

  0003c	8b 45 f8	 mov	 eax, DWORD PTR __Head$[ebp]
  0003f	8b 4d 10	 mov	 ecx, DWORD PTR __Newnode$[ebp]
  00042	89 48 04	 mov	 DWORD PTR [eax+4], ecx

; 651  :             _Head->_Right    = _Newnode;

  00045	8b 45 f8	 mov	 eax, DWORD PTR __Head$[ebp]
  00048	8b 4d 10	 mov	 ecx, DWORD PTR __Newnode$[ebp]
  0004b	89 48 08	 mov	 DWORD PTR [eax+8], ecx

; 652  :             _Newnode->_Color = _Black; // the root is black

  0004e	8b 45 10	 mov	 eax, DWORD PTR __Newnode$[ebp]
  00051	c6 40 0c 01	 mov	 BYTE PTR [eax+12], 1

; 653  :             return _Newnode;

  00055	8b 45 10	 mov	 eax, DWORD PTR __Newnode$[ebp]
  00058	e9 a7 01 00 00	 jmp	 $LN18@Insert_nod
$LN5@Insert_nod:

; 654  :         }
; 655  : 
; 656  :         _STL_INTERNAL_CHECK(_Loc._Child != _Tree_child::_Unused);
; 657  :         if (_Loc._Child == _Tree_child::_Right) { // add to right of _Loc._Parent

  0005d	83 7d 0c 00	 cmp	 DWORD PTR __Loc$[ebp+4], 0
  00061	75 1f		 jne	 SHORT $LN6@Insert_nod

; 658  :             _STL_INTERNAL_CHECK(_Loc._Parent->_Right->_Isnil);
; 659  :             _Loc._Parent->_Right = _Newnode;

  00063	8b 45 08	 mov	 eax, DWORD PTR __Loc$[ebp]
  00066	8b 4d 10	 mov	 ecx, DWORD PTR __Newnode$[ebp]
  00069	89 48 08	 mov	 DWORD PTR [eax+8], ecx

; 660  :             if (_Loc._Parent == _Head->_Right) { // remember rightmost node

  0006c	8b 45 f8	 mov	 eax, DWORD PTR __Head$[ebp]
  0006f	8b 4d 08	 mov	 ecx, DWORD PTR __Loc$[ebp]
  00072	3b 48 08	 cmp	 ecx, DWORD PTR [eax+8]
  00075	75 09		 jne	 SHORT $LN8@Insert_nod

; 661  :                 _Head->_Right = _Newnode;

  00077	8b 45 f8	 mov	 eax, DWORD PTR __Head$[ebp]
  0007a	8b 4d 10	 mov	 ecx, DWORD PTR __Newnode$[ebp]
  0007d	89 48 08	 mov	 DWORD PTR [eax+8], ecx
$LN8@Insert_nod:

; 662  :             }
; 663  :         } else { // add to left of _Loc._Parent

  00080	eb 1a		 jmp	 SHORT $LN7@Insert_nod
$LN6@Insert_nod:

; 664  :             _STL_INTERNAL_CHECK(_Loc._Parent->_Left->_Isnil);
; 665  :             _Loc._Parent->_Left = _Newnode;

  00082	8b 45 08	 mov	 eax, DWORD PTR __Loc$[ebp]
  00085	8b 4d 10	 mov	 ecx, DWORD PTR __Newnode$[ebp]
  00088	89 08		 mov	 DWORD PTR [eax], ecx

; 666  :             if (_Loc._Parent == _Head->_Left) { // remember leftmost node

  0008a	8b 45 f8	 mov	 eax, DWORD PTR __Head$[ebp]
  0008d	8b 4d 08	 mov	 ecx, DWORD PTR __Loc$[ebp]
  00090	3b 08		 cmp	 ecx, DWORD PTR [eax]
  00092	75 08		 jne	 SHORT $LN7@Insert_nod

; 667  :                 _Head->_Left = _Newnode;

  00094	8b 45 f8	 mov	 eax, DWORD PTR __Head$[ebp]
  00097	8b 4d 10	 mov	 ecx, DWORD PTR __Newnode$[ebp]
  0009a	89 08		 mov	 DWORD PTR [eax], ecx
$LN7@Insert_nod:

; 668  :             }
; 669  :         }
; 670  : 
; 671  :         for (_Nodeptr _Pnode = _Newnode; _Pnode->_Parent->_Color == _Red;) {

  0009c	8b 45 10	 mov	 eax, DWORD PTR __Newnode$[ebp]
  0009f	89 45 f4	 mov	 DWORD PTR __Pnode$3[ebp], eax
$LN4@Insert_nod:
  000a2	8b 45 f4	 mov	 eax, DWORD PTR __Pnode$3[ebp]
  000a5	8b 48 04	 mov	 ecx, DWORD PTR [eax+4]
  000a8	0f be 51 0c	 movsx	 edx, BYTE PTR [ecx+12]
  000ac	85 d2		 test	 edx, edx
  000ae	0f 85 43 01 00
	00		 jne	 $LN3@Insert_nod

; 672  :             if (_Pnode->_Parent == _Pnode->_Parent->_Parent->_Left) { // fixup red-red in left subtree

  000b4	8b 45 f4	 mov	 eax, DWORD PTR __Pnode$3[ebp]
  000b7	8b 48 04	 mov	 ecx, DWORD PTR [eax+4]
  000ba	8b 51 04	 mov	 edx, DWORD PTR [ecx+4]
  000bd	8b 45 f4	 mov	 eax, DWORD PTR __Pnode$3[ebp]
  000c0	8b 48 04	 mov	 ecx, DWORD PTR [eax+4]
  000c3	3b 0a		 cmp	 ecx, DWORD PTR [edx]
  000c5	0f 85 97 00 00
	00		 jne	 $LN10@Insert_nod

; 673  :                 const auto _Parent_sibling = _Pnode->_Parent->_Parent->_Right;

  000cb	8b 45 f4	 mov	 eax, DWORD PTR __Pnode$3[ebp]
  000ce	8b 48 04	 mov	 ecx, DWORD PTR [eax+4]
  000d1	8b 51 04	 mov	 edx, DWORD PTR [ecx+4]
  000d4	8b 42 08	 mov	 eax, DWORD PTR [edx+8]
  000d7	89 45 f0	 mov	 DWORD PTR __Parent_sibling$2[ebp], eax

; 674  :                 if (_Parent_sibling->_Color == _Red) { // parent's sibling has two red children, blacken both

  000da	8b 45 f0	 mov	 eax, DWORD PTR __Parent_sibling$2[ebp]
  000dd	0f be 48 0c	 movsx	 ecx, BYTE PTR [eax+12]
  000e1	85 c9		 test	 ecx, ecx
  000e3	75 2c		 jne	 SHORT $LN12@Insert_nod

; 675  :                     _Pnode->_Parent->_Color          = _Black;

  000e5	8b 45 f4	 mov	 eax, DWORD PTR __Pnode$3[ebp]
  000e8	8b 48 04	 mov	 ecx, DWORD PTR [eax+4]
  000eb	c6 41 0c 01	 mov	 BYTE PTR [ecx+12], 1

; 676  :                     _Parent_sibling->_Color          = _Black;

  000ef	8b 45 f0	 mov	 eax, DWORD PTR __Parent_sibling$2[ebp]
  000f2	c6 40 0c 01	 mov	 BYTE PTR [eax+12], 1

; 677  :                     _Pnode->_Parent->_Parent->_Color = _Red;

  000f6	8b 45 f4	 mov	 eax, DWORD PTR __Pnode$3[ebp]
  000f9	8b 48 04	 mov	 ecx, DWORD PTR [eax+4]
  000fc	8b 51 04	 mov	 edx, DWORD PTR [ecx+4]
  000ff	c6 42 0c 00	 mov	 BYTE PTR [edx+12], 0

; 678  :                     _Pnode                           = _Pnode->_Parent->_Parent;

  00103	8b 45 f4	 mov	 eax, DWORD PTR __Pnode$3[ebp]
  00106	8b 48 04	 mov	 ecx, DWORD PTR [eax+4]
  00109	8b 51 04	 mov	 edx, DWORD PTR [ecx+4]
  0010c	89 55 f4	 mov	 DWORD PTR __Pnode$3[ebp], edx

; 679  :                 } else { // parent's sibling has red and black children

  0010f	eb 4c		 jmp	 SHORT $LN13@Insert_nod
$LN12@Insert_nod:

; 680  :                     if (_Pnode == _Pnode->_Parent->_Right) { // rotate right child to left

  00111	8b 45 f4	 mov	 eax, DWORD PTR __Pnode$3[ebp]
  00114	8b 48 04	 mov	 ecx, DWORD PTR [eax+4]
  00117	8b 55 f4	 mov	 edx, DWORD PTR __Pnode$3[ebp]
  0011a	3b 51 08	 cmp	 edx, DWORD PTR [ecx+8]
  0011d	75 15		 jne	 SHORT $LN14@Insert_nod

; 681  :                         _Pnode = _Pnode->_Parent;

  0011f	8b 45 f4	 mov	 eax, DWORD PTR __Pnode$3[ebp]
  00122	8b 48 04	 mov	 ecx, DWORD PTR [eax+4]
  00125	89 4d f4	 mov	 DWORD PTR __Pnode$3[ebp], ecx

; 682  :                         _Lrotate(_Pnode);

  00128	8b 45 f4	 mov	 eax, DWORD PTR __Pnode$3[ebp]
  0012b	50		 push	 eax
  0012c	8b 4d fc	 mov	 ecx, DWORD PTR _this$[ebp]
  0012f	e8 00 00 00 00	 call	 ?_Lrotate@?$_Tree_val@U?$_Tree_simple_types@U?$pair@$$CBHUNPC_DATA_HELPER@@@std@@@std@@@std@@QAEXPAU?$_Tree_node@U?$pair@$$CBHUNPC_DATA_HELPER@@@std@@PAX@2@@Z ; std::_Tree_val<std::_Tree_simple_types<std::pair<int const ,NPC_DATA_HELPER> > >::_Lrotate
$LN14@Insert_nod:

; 683  :                     }
; 684  : 
; 685  :                     _Pnode->_Parent->_Color          = _Black; // propagate red up

  00134	8b 45 f4	 mov	 eax, DWORD PTR __Pnode$3[ebp]
  00137	8b 48 04	 mov	 ecx, DWORD PTR [eax+4]
  0013a	c6 41 0c 01	 mov	 BYTE PTR [ecx+12], 1

; 686  :                     _Pnode->_Parent->_Parent->_Color = _Red;

  0013e	8b 45 f4	 mov	 eax, DWORD PTR __Pnode$3[ebp]
  00141	8b 48 04	 mov	 ecx, DWORD PTR [eax+4]
  00144	8b 51 04	 mov	 edx, DWORD PTR [ecx+4]
  00147	c6 42 0c 00	 mov	 BYTE PTR [edx+12], 0

; 687  :                     _Rrotate(_Pnode->_Parent->_Parent);

  0014b	8b 45 f4	 mov	 eax, DWORD PTR __Pnode$3[ebp]
  0014e	8b 48 04	 mov	 ecx, DWORD PTR [eax+4]
  00151	8b 51 04	 mov	 edx, DWORD PTR [ecx+4]
  00154	52		 push	 edx
  00155	8b 4d fc	 mov	 ecx, DWORD PTR _this$[ebp]
  00158	e8 00 00 00 00	 call	 ?_Rrotate@?$_Tree_val@U?$_Tree_simple_types@U?$pair@$$CBHUNPC_DATA_HELPER@@@std@@@std@@@std@@QAEXPAU?$_Tree_node@U?$pair@$$CBHUNPC_DATA_HELPER@@@std@@PAX@2@@Z ; std::_Tree_val<std::_Tree_simple_types<std::pair<int const ,NPC_DATA_HELPER> > >::_Rrotate
$LN13@Insert_nod:

; 688  :                 }
; 689  :             } else { // fixup red-red in right subtree

  0015d	e9 90 00 00 00	 jmp	 $LN11@Insert_nod
$LN10@Insert_nod:

; 690  :                 const auto _Parent_sibling = _Pnode->_Parent->_Parent->_Left;

  00162	8b 45 f4	 mov	 eax, DWORD PTR __Pnode$3[ebp]
  00165	8b 48 04	 mov	 ecx, DWORD PTR [eax+4]
  00168	8b 51 04	 mov	 edx, DWORD PTR [ecx+4]
  0016b	8b 02		 mov	 eax, DWORD PTR [edx]
  0016d	89 45 ec	 mov	 DWORD PTR __Parent_sibling$1[ebp], eax

; 691  :                 if (_Parent_sibling->_Color == _Red) { // parent's sibling has two red children, blacken both

  00170	8b 45 ec	 mov	 eax, DWORD PTR __Parent_sibling$1[ebp]
  00173	0f be 48 0c	 movsx	 ecx, BYTE PTR [eax+12]
  00177	85 c9		 test	 ecx, ecx
  00179	75 2c		 jne	 SHORT $LN15@Insert_nod

; 692  :                     _Pnode->_Parent->_Color          = _Black;

  0017b	8b 45 f4	 mov	 eax, DWORD PTR __Pnode$3[ebp]
  0017e	8b 48 04	 mov	 ecx, DWORD PTR [eax+4]
  00181	c6 41 0c 01	 mov	 BYTE PTR [ecx+12], 1

; 693  :                     _Parent_sibling->_Color          = _Black;

  00185	8b 45 ec	 mov	 eax, DWORD PTR __Parent_sibling$1[ebp]
  00188	c6 40 0c 01	 mov	 BYTE PTR [eax+12], 1

; 694  :                     _Pnode->_Parent->_Parent->_Color = _Red;

  0018c	8b 45 f4	 mov	 eax, DWORD PTR __Pnode$3[ebp]
  0018f	8b 48 04	 mov	 ecx, DWORD PTR [eax+4]
  00192	8b 51 04	 mov	 edx, DWORD PTR [ecx+4]
  00195	c6 42 0c 00	 mov	 BYTE PTR [edx+12], 0

; 695  :                     _Pnode                           = _Pnode->_Parent->_Parent;

  00199	8b 45 f4	 mov	 eax, DWORD PTR __Pnode$3[ebp]
  0019c	8b 48 04	 mov	 ecx, DWORD PTR [eax+4]
  0019f	8b 51 04	 mov	 edx, DWORD PTR [ecx+4]
  001a2	89 55 f4	 mov	 DWORD PTR __Pnode$3[ebp], edx

; 696  :                 } else { // parent's sibling has red and black children

  001a5	eb 4b		 jmp	 SHORT $LN11@Insert_nod
$LN15@Insert_nod:

; 697  :                     if (_Pnode == _Pnode->_Parent->_Left) { // rotate left child to right

  001a7	8b 45 f4	 mov	 eax, DWORD PTR __Pnode$3[ebp]
  001aa	8b 48 04	 mov	 ecx, DWORD PTR [eax+4]
  001ad	8b 55 f4	 mov	 edx, DWORD PTR __Pnode$3[ebp]
  001b0	3b 11		 cmp	 edx, DWORD PTR [ecx]
  001b2	75 15		 jne	 SHORT $LN17@Insert_nod

; 698  :                         _Pnode = _Pnode->_Parent;

  001b4	8b 45 f4	 mov	 eax, DWORD PTR __Pnode$3[ebp]
  001b7	8b 48 04	 mov	 ecx, DWORD PTR [eax+4]
  001ba	89 4d f4	 mov	 DWORD PTR __Pnode$3[ebp], ecx

; 699  :                         _Rrotate(_Pnode);

  001bd	8b 45 f4	 mov	 eax, DWORD PTR __Pnode$3[ebp]
  001c0	50		 push	 eax
  001c1	8b 4d fc	 mov	 ecx, DWORD PTR _this$[ebp]
  001c4	e8 00 00 00 00	 call	 ?_Rrotate@?$_Tree_val@U?$_Tree_simple_types@U?$pair@$$CBHUNPC_DATA_HELPER@@@std@@@std@@@std@@QAEXPAU?$_Tree_node@U?$pair@$$CBHUNPC_DATA_HELPER@@@std@@PAX@2@@Z ; std::_Tree_val<std::_Tree_simple_types<std::pair<int const ,NPC_DATA_HELPER> > >::_Rrotate
$LN17@Insert_nod:

; 700  :                     }
; 701  : 
; 702  :                     _Pnode->_Parent->_Color          = _Black; // propagate red up

  001c9	8b 45 f4	 mov	 eax, DWORD PTR __Pnode$3[ebp]
  001cc	8b 48 04	 mov	 ecx, DWORD PTR [eax+4]
  001cf	c6 41 0c 01	 mov	 BYTE PTR [ecx+12], 1

; 703  :                     _Pnode->_Parent->_Parent->_Color = _Red;

  001d3	8b 45 f4	 mov	 eax, DWORD PTR __Pnode$3[ebp]
  001d6	8b 48 04	 mov	 ecx, DWORD PTR [eax+4]
  001d9	8b 51 04	 mov	 edx, DWORD PTR [ecx+4]
  001dc	c6 42 0c 00	 mov	 BYTE PTR [edx+12], 0

; 704  :                     _Lrotate(_Pnode->_Parent->_Parent);

  001e0	8b 45 f4	 mov	 eax, DWORD PTR __Pnode$3[ebp]
  001e3	8b 48 04	 mov	 ecx, DWORD PTR [eax+4]
  001e6	8b 51 04	 mov	 edx, DWORD PTR [ecx+4]
  001e9	52		 push	 edx
  001ea	8b 4d fc	 mov	 ecx, DWORD PTR _this$[ebp]
  001ed	e8 00 00 00 00	 call	 ?_Lrotate@?$_Tree_val@U?$_Tree_simple_types@U?$pair@$$CBHUNPC_DATA_HELPER@@@std@@@std@@@std@@QAEXPAU?$_Tree_node@U?$pair@$$CBHUNPC_DATA_HELPER@@@std@@PAX@2@@Z ; std::_Tree_val<std::_Tree_simple_types<std::pair<int const ,NPC_DATA_HELPER> > >::_Lrotate
$LN11@Insert_nod:

; 705  :                 }
; 706  :             }
; 707  :         }

  001f2	e9 ab fe ff ff	 jmp	 $LN4@Insert_nod
$LN3@Insert_nod:

; 708  : 
; 709  :         _Head->_Parent->_Color = _Black; // root is always black

  001f7	8b 45 f8	 mov	 eax, DWORD PTR __Head$[ebp]
  001fa	8b 48 04	 mov	 ecx, DWORD PTR [eax+4]
  001fd	c6 41 0c 01	 mov	 BYTE PTR [ecx+12], 1

; 710  :         return _Newnode;

  00201	8b 45 10	 mov	 eax, DWORD PTR __Newnode$[ebp]
$LN18@Insert_nod:

; 711  :     }

  00204	5f		 pop	 edi
  00205	5e		 pop	 esi
  00206	5b		 pop	 ebx
  00207	8b e5		 mov	 esp, ebp
  00209	5d		 pop	 ebp
  0020a	c2 0c 00	 ret	 12			; 0000000cH
?_Insert_node@?$_Tree_val@U?$_Tree_simple_types@U?$pair@$$CBHUNPC_DATA_HELPER@@@std@@@std@@@std@@QAEPAU?$_Tree_node@U?$pair@$$CBHUNPC_DATA_HELPER@@@std@@PAX@2@U?$_Tree_id@PAU?$_Tree_node@U?$pair@$$CBHUNPC_DATA_HELPER@@@std@@PAX@std@@@2@QAU32@@Z ENDP ; std::_Tree_val<std::_Tree_simple_types<std::pair<int const ,NPC_DATA_HELPER> > >::_Insert_node
_TEXT	ENDS
; Function compile flags: /Odtp /ZI
; File C:\Program Files (x86)\Microsoft Visual Studio\2019\Community\VC\Tools\MSVC\14.27.29110\include\xtree
;	COMDAT ?_Extract@?$_Tree_val@U?$_Tree_simple_types@U?$pair@$$CBHUNPC_DATA_HELPER@@@std@@@std@@@std@@QAEPAU?$_Tree_node@U?$pair@$$CBHUNPC_DATA_HELPER@@@std@@PAX@2@V?$_Tree_unchecked_const_iterator@V?$_Tree_val@U?$_Tree_simple_types@U?$pair@$$CBHUNPC_DATA_HELPER@@@std@@@std@@@std@@U_Iterator_base0@2@@2@@Z
_TEXT	SEGMENT
tv144 = -100						; size = 4
tv133 = -100						; size = 4
__Pnode$ = -32						; size = 4
__Fixnodeparent$ = -28					; size = 4
__Fixnode$ = -24					; size = 4
__Erasednode$ = -20					; size = 4
_this$ = -16						; size = 4
__$EHRec$ = -12						; size = 12
__Where$ = 8						; size = 4
?_Extract@?$_Tree_val@U?$_Tree_simple_types@U?$pair@$$CBHUNPC_DATA_HELPER@@@std@@@std@@@std@@QAEPAU?$_Tree_node@U?$pair@$$CBHUNPC_DATA_HELPER@@@std@@PAX@2@V?$_Tree_unchecked_const_iterator@V?$_Tree_val@U?$_Tree_simple_types@U?$pair@$$CBHUNPC_DATA_HELPER@@@std@@@std@@@std@@U_Iterator_base0@2@@2@@Z PROC ; std::_Tree_val<std::_Tree_simple_types<std::pair<int const ,NPC_DATA_HELPER> > >::_Extract, COMDAT
; _this$ = ecx

; 502  :     _Nodeptr _Extract(_Unchecked_const_iterator _Where) noexcept {

  00000	55		 push	 ebp
  00001	8b ec		 mov	 ebp, esp
  00003	6a ff		 push	 -1
  00005	68 00 00 00 00	 push	 __ehhandler$?_Extract@?$_Tree_val@U?$_Tree_simple_types@U?$pair@$$CBHUNPC_DATA_HELPER@@@std@@@std@@@std@@QAEPAU?$_Tree_node@U?$pair@$$CBHUNPC_DATA_HELPER@@@std@@PAX@2@V?$_Tree_unchecked_const_iterator@V?$_Tree_val@U?$_Tree_simple_types@U?$pair@$$CBHUNPC_DATA_HELPER@@@std@@@std@@@std@@U_Iterator_base0@2@@2@@Z
  0000a	64 a1 00 00 00
	00		 mov	 eax, DWORD PTR fs:0
  00010	50		 push	 eax
  00011	83 ec 58	 sub	 esp, 88			; 00000058H
  00014	53		 push	 ebx
  00015	56		 push	 esi
  00016	57		 push	 edi
  00017	a1 00 00 00 00	 mov	 eax, DWORD PTR ___security_cookie
  0001c	33 c5		 xor	 eax, ebp
  0001e	50		 push	 eax
  0001f	8d 45 f4	 lea	 eax, DWORD PTR __$EHRec$[ebp]
  00022	64 a3 00 00 00
	00		 mov	 DWORD PTR fs:0, eax
  00028	89 4d f0	 mov	 DWORD PTR _this$[ebp], ecx

; 503  :         _Nodeptr _Erasednode = _Where._Ptr; // node to erase

  0002b	8b 45 08	 mov	 eax, DWORD PTR __Where$[ebp]
  0002e	89 45 ec	 mov	 DWORD PTR __Erasednode$[ebp], eax

; 504  :         ++_Where; // save successor iterator for return

  00031	8d 4d 08	 lea	 ecx, DWORD PTR __Where$[ebp]
  00034	e8 00 00 00 00	 call	 ??E?$_Tree_unchecked_const_iterator@V?$_Tree_val@U?$_Tree_simple_types@U?$pair@$$CBHUNPC_DATA_HELPER@@@std@@@std@@@std@@U_Iterator_base0@2@@std@@QAEAAV01@XZ ; std::_Tree_unchecked_const_iterator<std::_Tree_val<std::_Tree_simple_types<std::pair<int const ,NPC_DATA_HELPER> > >,std::_Iterator_base0>::operator++

; 505  : 
; 506  :         _Nodeptr _Fixnode; // the node to recolor as needed
; 507  :         _Nodeptr _Fixnodeparent; // parent of _Fixnode (which may be nil)
; 508  :         _Nodeptr _Pnode = _Erasednode;

  00039	8b 45 ec	 mov	 eax, DWORD PTR __Erasednode$[ebp]
  0003c	89 45 e0	 mov	 DWORD PTR __Pnode$[ebp], eax

; 509  : 
; 510  :         if (_Pnode->_Left->_Isnil) {

  0003f	8b 45 e0	 mov	 eax, DWORD PTR __Pnode$[ebp]
  00042	8b 08		 mov	 ecx, DWORD PTR [eax]
  00044	0f be 51 0d	 movsx	 edx, BYTE PTR [ecx+13]
  00048	85 d2		 test	 edx, edx
  0004a	74 0b		 je	 SHORT $LN5@Extract

; 511  :             _Fixnode = _Pnode->_Right; // stitch up right subtree

  0004c	8b 45 e0	 mov	 eax, DWORD PTR __Pnode$[ebp]
  0004f	8b 48 08	 mov	 ecx, DWORD PTR [eax+8]
  00052	89 4d e8	 mov	 DWORD PTR __Fixnode$[ebp], ecx
  00055	eb 27		 jmp	 SHORT $LN6@Extract
$LN5@Extract:

; 512  :         } else if (_Pnode->_Right->_Isnil) {

  00057	8b 45 e0	 mov	 eax, DWORD PTR __Pnode$[ebp]
  0005a	8b 48 08	 mov	 ecx, DWORD PTR [eax+8]
  0005d	0f be 51 0d	 movsx	 edx, BYTE PTR [ecx+13]
  00061	85 d2		 test	 edx, edx
  00063	74 0a		 je	 SHORT $LN7@Extract

; 513  :             _Fixnode = _Pnode->_Left; // stitch up left subtree

  00065	8b 45 e0	 mov	 eax, DWORD PTR __Pnode$[ebp]
  00068	8b 08		 mov	 ecx, DWORD PTR [eax]
  0006a	89 4d e8	 mov	 DWORD PTR __Fixnode$[ebp], ecx

; 514  :         } else { // two subtrees, must lift successor node to replace erased

  0006d	eb 0f		 jmp	 SHORT $LN6@Extract
$LN7@Extract:

; 515  :             _Pnode   = _Where._Ptr; // _Pnode is successor node

  0006f	8b 45 08	 mov	 eax, DWORD PTR __Where$[ebp]
  00072	89 45 e0	 mov	 DWORD PTR __Pnode$[ebp], eax

; 516  :             _Fixnode = _Pnode->_Right; // _Fixnode is only subtree

  00075	8b 45 e0	 mov	 eax, DWORD PTR __Pnode$[ebp]
  00078	8b 48 08	 mov	 ecx, DWORD PTR [eax+8]
  0007b	89 4d e8	 mov	 DWORD PTR __Fixnode$[ebp], ecx
$LN6@Extract:

; 517  :         }
; 518  : 
; 519  :         if (_Pnode == _Erasednode) { // at most one subtree, relink it

  0007e	8b 45 e0	 mov	 eax, DWORD PTR __Pnode$[ebp]
  00081	3b 45 ec	 cmp	 eax, DWORD PTR __Erasednode$[ebp]
  00084	0f 85 cb 00 00
	00		 jne	 $LN9@Extract

; 520  :             _Fixnodeparent = _Erasednode->_Parent;

  0008a	8b 45 ec	 mov	 eax, DWORD PTR __Erasednode$[ebp]
  0008d	8b 48 04	 mov	 ecx, DWORD PTR [eax+4]
  00090	89 4d e4	 mov	 DWORD PTR __Fixnodeparent$[ebp], ecx

; 521  :             if (!_Fixnode->_Isnil) {

  00093	8b 45 e8	 mov	 eax, DWORD PTR __Fixnode$[ebp]
  00096	0f be 48 0d	 movsx	 ecx, BYTE PTR [eax+13]
  0009a	85 c9		 test	 ecx, ecx
  0009c	75 09		 jne	 SHORT $LN11@Extract

; 522  :                 _Fixnode->_Parent = _Fixnodeparent; // link up

  0009e	8b 45 e8	 mov	 eax, DWORD PTR __Fixnode$[ebp]
  000a1	8b 4d e4	 mov	 ecx, DWORD PTR __Fixnodeparent$[ebp]
  000a4	89 48 04	 mov	 DWORD PTR [eax+4], ecx
$LN11@Extract:

; 523  :             }
; 524  : 
; 525  :             if (_Myhead->_Parent == _Erasednode) {

  000a7	8b 45 f0	 mov	 eax, DWORD PTR _this$[ebp]
  000aa	8b 08		 mov	 ecx, DWORD PTR [eax]
  000ac	8b 51 04	 mov	 edx, DWORD PTR [ecx+4]
  000af	3b 55 ec	 cmp	 edx, DWORD PTR __Erasednode$[ebp]
  000b2	75 0d		 jne	 SHORT $LN12@Extract

; 526  :                 _Myhead->_Parent = _Fixnode; // link down from root

  000b4	8b 45 f0	 mov	 eax, DWORD PTR _this$[ebp]
  000b7	8b 08		 mov	 ecx, DWORD PTR [eax]
  000b9	8b 55 e8	 mov	 edx, DWORD PTR __Fixnode$[ebp]
  000bc	89 51 04	 mov	 DWORD PTR [ecx+4], edx
  000bf	eb 1d		 jmp	 SHORT $LN13@Extract
$LN12@Extract:

; 527  :             } else if (_Fixnodeparent->_Left == _Erasednode) {

  000c1	8b 45 e4	 mov	 eax, DWORD PTR __Fixnodeparent$[ebp]
  000c4	8b 08		 mov	 ecx, DWORD PTR [eax]
  000c6	3b 4d ec	 cmp	 ecx, DWORD PTR __Erasednode$[ebp]
  000c9	75 0a		 jne	 SHORT $LN14@Extract

; 528  :                 _Fixnodeparent->_Left = _Fixnode; // link down to left

  000cb	8b 45 e4	 mov	 eax, DWORD PTR __Fixnodeparent$[ebp]
  000ce	8b 4d e8	 mov	 ecx, DWORD PTR __Fixnode$[ebp]
  000d1	89 08		 mov	 DWORD PTR [eax], ecx

; 529  :             } else {

  000d3	eb 09		 jmp	 SHORT $LN13@Extract
$LN14@Extract:

; 530  :                 _Fixnodeparent->_Right = _Fixnode; // link down to right

  000d5	8b 45 e4	 mov	 eax, DWORD PTR __Fixnodeparent$[ebp]
  000d8	8b 4d e8	 mov	 ecx, DWORD PTR __Fixnode$[ebp]
  000db	89 48 08	 mov	 DWORD PTR [eax+8], ecx
$LN13@Extract:

; 531  :             }
; 532  : 
; 533  :             if (_Myhead->_Left == _Erasednode) {

  000de	8b 45 f0	 mov	 eax, DWORD PTR _this$[ebp]
  000e1	8b 08		 mov	 ecx, DWORD PTR [eax]
  000e3	8b 11		 mov	 edx, DWORD PTR [ecx]
  000e5	3b 55 ec	 cmp	 edx, DWORD PTR __Erasednode$[ebp]
  000e8	75 2c		 jne	 SHORT $LN16@Extract

; 534  :                 _Myhead->_Left = _Fixnode->_Isnil ? _Fixnodeparent // smallest is parent of erased node

  000ea	8b 45 e8	 mov	 eax, DWORD PTR __Fixnode$[ebp]
  000ed	0f be 48 0d	 movsx	 ecx, BYTE PTR [eax+13]
  000f1	85 c9		 test	 ecx, ecx
  000f3	74 08		 je	 SHORT $LN42@Extract
  000f5	8b 55 e4	 mov	 edx, DWORD PTR __Fixnodeparent$[ebp]
  000f8	89 55 9c	 mov	 DWORD PTR tv133[ebp], edx
  000fb	eb 0f		 jmp	 SHORT $LN43@Extract
$LN42@Extract:
  000fd	8b 45 e8	 mov	 eax, DWORD PTR __Fixnode$[ebp]
  00100	50		 push	 eax
  00101	e8 00 00 00 00	 call	 ?_Min@?$_Tree_val@U?$_Tree_simple_types@U?$pair@$$CBHUNPC_DATA_HELPER@@@std@@@std@@@std@@SAPAU?$_Tree_node@U?$pair@$$CBHUNPC_DATA_HELPER@@@std@@PAX@2@PAU32@@Z ; std::_Tree_val<std::_Tree_simple_types<std::pair<int const ,NPC_DATA_HELPER> > >::_Min
  00106	83 c4 04	 add	 esp, 4
  00109	89 45 9c	 mov	 DWORD PTR tv133[ebp], eax
$LN43@Extract:
  0010c	8b 4d f0	 mov	 ecx, DWORD PTR _this$[ebp]
  0010f	8b 11		 mov	 edx, DWORD PTR [ecx]
  00111	8b 45 9c	 mov	 eax, DWORD PTR tv133[ebp]
  00114	89 02		 mov	 DWORD PTR [edx], eax
$LN16@Extract:

; 535  :                                                   : _Min(_Fixnode); // smallest in relinked subtree
; 536  :             }
; 537  : 
; 538  :             if (_Myhead->_Right == _Erasednode) {

  00116	8b 45 f0	 mov	 eax, DWORD PTR _this$[ebp]
  00119	8b 08		 mov	 ecx, DWORD PTR [eax]
  0011b	8b 51 08	 mov	 edx, DWORD PTR [ecx+8]
  0011e	3b 55 ec	 cmp	 edx, DWORD PTR __Erasednode$[ebp]
  00121	75 2d		 jne	 SHORT $LN17@Extract

; 539  :                 _Myhead->_Right = _Fixnode->_Isnil ? _Fixnodeparent // largest is parent of erased node

  00123	8b 45 e8	 mov	 eax, DWORD PTR __Fixnode$[ebp]
  00126	0f be 48 0d	 movsx	 ecx, BYTE PTR [eax+13]
  0012a	85 c9		 test	 ecx, ecx
  0012c	74 08		 je	 SHORT $LN44@Extract
  0012e	8b 55 e4	 mov	 edx, DWORD PTR __Fixnodeparent$[ebp]
  00131	89 55 9c	 mov	 DWORD PTR tv144[ebp], edx
  00134	eb 0f		 jmp	 SHORT $LN45@Extract
$LN44@Extract:
  00136	8b 45 e8	 mov	 eax, DWORD PTR __Fixnode$[ebp]
  00139	50		 push	 eax
  0013a	e8 00 00 00 00	 call	 ?_Max@?$_Tree_val@U?$_Tree_simple_types@U?$pair@$$CBHUNPC_DATA_HELPER@@@std@@@std@@@std@@SAPAU?$_Tree_node@U?$pair@$$CBHUNPC_DATA_HELPER@@@std@@PAX@2@PAU32@@Z ; std::_Tree_val<std::_Tree_simple_types<std::pair<int const ,NPC_DATA_HELPER> > >::_Max
  0013f	83 c4 04	 add	 esp, 4
  00142	89 45 9c	 mov	 DWORD PTR tv144[ebp], eax
$LN45@Extract:
  00145	8b 4d f0	 mov	 ecx, DWORD PTR _this$[ebp]
  00148	8b 11		 mov	 edx, DWORD PTR [ecx]
  0014a	8b 45 9c	 mov	 eax, DWORD PTR tv144[ebp]
  0014d	89 42 08	 mov	 DWORD PTR [edx+8], eax
$LN17@Extract:

; 540  :                                                    : _Max(_Fixnode); // largest in relinked subtree
; 541  :             }
; 542  :         } else { // erased has two subtrees, _Pnode is successor to erased

  00150	e9 c7 00 00 00	 jmp	 $LN10@Extract
$LN9@Extract:

; 543  :             _Erasednode->_Left->_Parent = _Pnode; // link left up

  00155	8b 45 ec	 mov	 eax, DWORD PTR __Erasednode$[ebp]
  00158	8b 08		 mov	 ecx, DWORD PTR [eax]
  0015a	8b 55 e0	 mov	 edx, DWORD PTR __Pnode$[ebp]
  0015d	89 51 04	 mov	 DWORD PTR [ecx+4], edx

; 544  :             _Pnode->_Left               = _Erasednode->_Left; // link successor down

  00160	8b 45 e0	 mov	 eax, DWORD PTR __Pnode$[ebp]
  00163	8b 4d ec	 mov	 ecx, DWORD PTR __Erasednode$[ebp]
  00166	8b 11		 mov	 edx, DWORD PTR [ecx]
  00168	89 10		 mov	 DWORD PTR [eax], edx

; 545  : 
; 546  :             if (_Pnode == _Erasednode->_Right) {

  0016a	8b 45 ec	 mov	 eax, DWORD PTR __Erasednode$[ebp]
  0016d	8b 4d e0	 mov	 ecx, DWORD PTR __Pnode$[ebp]
  00170	3b 48 08	 cmp	 ecx, DWORD PTR [eax+8]
  00173	75 08		 jne	 SHORT $LN18@Extract

; 547  :                 _Fixnodeparent = _Pnode; // successor is next to erased

  00175	8b 45 e0	 mov	 eax, DWORD PTR __Pnode$[ebp]
  00178	89 45 e4	 mov	 DWORD PTR __Fixnodeparent$[ebp], eax

; 548  :             } else { // successor further down, link in place of erased

  0017b	eb 3d		 jmp	 SHORT $LN19@Extract
$LN18@Extract:

; 549  :                 _Fixnodeparent = _Pnode->_Parent; // parent is successor's

  0017d	8b 45 e0	 mov	 eax, DWORD PTR __Pnode$[ebp]
  00180	8b 48 04	 mov	 ecx, DWORD PTR [eax+4]
  00183	89 4d e4	 mov	 DWORD PTR __Fixnodeparent$[ebp], ecx

; 550  :                 if (!_Fixnode->_Isnil) {

  00186	8b 45 e8	 mov	 eax, DWORD PTR __Fixnode$[ebp]
  00189	0f be 48 0d	 movsx	 ecx, BYTE PTR [eax+13]
  0018d	85 c9		 test	 ecx, ecx
  0018f	75 09		 jne	 SHORT $LN20@Extract

; 551  :                     _Fixnode->_Parent = _Fixnodeparent; // link fix up

  00191	8b 45 e8	 mov	 eax, DWORD PTR __Fixnode$[ebp]
  00194	8b 4d e4	 mov	 ecx, DWORD PTR __Fixnodeparent$[ebp]
  00197	89 48 04	 mov	 DWORD PTR [eax+4], ecx
$LN20@Extract:

; 552  :                 }
; 553  : 
; 554  :                 _Fixnodeparent->_Left        = _Fixnode; // link fix down

  0019a	8b 45 e4	 mov	 eax, DWORD PTR __Fixnodeparent$[ebp]
  0019d	8b 4d e8	 mov	 ecx, DWORD PTR __Fixnode$[ebp]
  001a0	89 08		 mov	 DWORD PTR [eax], ecx

; 555  :                 _Pnode->_Right               = _Erasednode->_Right; // link next down

  001a2	8b 45 e0	 mov	 eax, DWORD PTR __Pnode$[ebp]
  001a5	8b 4d ec	 mov	 ecx, DWORD PTR __Erasednode$[ebp]
  001a8	8b 51 08	 mov	 edx, DWORD PTR [ecx+8]
  001ab	89 50 08	 mov	 DWORD PTR [eax+8], edx

; 556  :                 _Erasednode->_Right->_Parent = _Pnode; // right up

  001ae	8b 45 ec	 mov	 eax, DWORD PTR __Erasednode$[ebp]
  001b1	8b 48 08	 mov	 ecx, DWORD PTR [eax+8]
  001b4	8b 55 e0	 mov	 edx, DWORD PTR __Pnode$[ebp]
  001b7	89 51 04	 mov	 DWORD PTR [ecx+4], edx
$LN19@Extract:

; 557  :             }
; 558  : 
; 559  :             if (_Myhead->_Parent == _Erasednode) {

  001ba	8b 45 f0	 mov	 eax, DWORD PTR _this$[ebp]
  001bd	8b 08		 mov	 ecx, DWORD PTR [eax]
  001bf	8b 51 04	 mov	 edx, DWORD PTR [ecx+4]
  001c2	3b 55 ec	 cmp	 edx, DWORD PTR __Erasednode$[ebp]
  001c5	75 0d		 jne	 SHORT $LN21@Extract

; 560  :                 _Myhead->_Parent = _Pnode; // link down from root

  001c7	8b 45 f0	 mov	 eax, DWORD PTR _this$[ebp]
  001ca	8b 08		 mov	 ecx, DWORD PTR [eax]
  001cc	8b 55 e0	 mov	 edx, DWORD PTR __Pnode$[ebp]
  001cf	89 51 04	 mov	 DWORD PTR [ecx+4], edx
  001d2	eb 26		 jmp	 SHORT $LN22@Extract
$LN21@Extract:

; 561  :             } else if (_Erasednode->_Parent->_Left == _Erasednode) {

  001d4	8b 45 ec	 mov	 eax, DWORD PTR __Erasednode$[ebp]
  001d7	8b 48 04	 mov	 ecx, DWORD PTR [eax+4]
  001da	8b 11		 mov	 edx, DWORD PTR [ecx]
  001dc	3b 55 ec	 cmp	 edx, DWORD PTR __Erasednode$[ebp]
  001df	75 0d		 jne	 SHORT $LN23@Extract

; 562  :                 _Erasednode->_Parent->_Left = _Pnode; // link down to left

  001e1	8b 45 ec	 mov	 eax, DWORD PTR __Erasednode$[ebp]
  001e4	8b 48 04	 mov	 ecx, DWORD PTR [eax+4]
  001e7	8b 55 e0	 mov	 edx, DWORD PTR __Pnode$[ebp]
  001ea	89 11		 mov	 DWORD PTR [ecx], edx

; 563  :             } else {

  001ec	eb 0c		 jmp	 SHORT $LN22@Extract
$LN23@Extract:

; 564  :                 _Erasednode->_Parent->_Right = _Pnode; // link down to right

  001ee	8b 45 ec	 mov	 eax, DWORD PTR __Erasednode$[ebp]
  001f1	8b 48 04	 mov	 ecx, DWORD PTR [eax+4]
  001f4	8b 55 e0	 mov	 edx, DWORD PTR __Pnode$[ebp]
  001f7	89 51 08	 mov	 DWORD PTR [ecx+8], edx
$LN22@Extract:

; 565  :             }
; 566  : 
; 567  :             _Pnode->_Parent = _Erasednode->_Parent; // link successor up

  001fa	8b 45 e0	 mov	 eax, DWORD PTR __Pnode$[ebp]
  001fd	8b 4d ec	 mov	 ecx, DWORD PTR __Erasednode$[ebp]
  00200	8b 51 04	 mov	 edx, DWORD PTR [ecx+4]
  00203	89 50 04	 mov	 DWORD PTR [eax+4], edx

; 568  :             _STD swap(_Pnode->_Color, _Erasednode->_Color); // recolor it

  00206	8b 45 ec	 mov	 eax, DWORD PTR __Erasednode$[ebp]
  00209	83 c0 0c	 add	 eax, 12			; 0000000cH
  0020c	50		 push	 eax
  0020d	8b 4d e0	 mov	 ecx, DWORD PTR __Pnode$[ebp]
  00210	83 c1 0c	 add	 ecx, 12			; 0000000cH
  00213	51		 push	 ecx
  00214	e8 00 00 00 00	 call	 ??$swap@D$0A@@std@@YAXAAD0@Z ; std::swap<char,0>
  00219	83 c4 08	 add	 esp, 8
$LN10@Extract:

; 569  :         }
; 570  : 
; 571  :         if (_Erasednode->_Color == _Black) { // erasing black link, must recolor/rebalance tree

  0021c	8b 45 ec	 mov	 eax, DWORD PTR __Erasednode$[ebp]
  0021f	0f be 48 0c	 movsx	 ecx, BYTE PTR [eax+12]
  00223	83 f9 01	 cmp	 ecx, 1
  00226	0f 85 fa 01 00
	00		 jne	 $LN25@Extract

; 572  :             for (; _Fixnode != _Myhead->_Parent && _Fixnode->_Color == _Black; _Fixnodeparent = _Fixnode->_Parent) {

  0022c	eb 09		 jmp	 SHORT $LN4@Extract
$LN2@Extract:
  0022e	8b 45 e8	 mov	 eax, DWORD PTR __Fixnode$[ebp]
  00231	8b 48 04	 mov	 ecx, DWORD PTR [eax+4]
  00234	89 4d e4	 mov	 DWORD PTR __Fixnodeparent$[ebp], ecx
$LN4@Extract:
  00237	8b 45 f0	 mov	 eax, DWORD PTR _this$[ebp]
  0023a	8b 08		 mov	 ecx, DWORD PTR [eax]
  0023c	8b 55 e8	 mov	 edx, DWORD PTR __Fixnode$[ebp]
  0023f	3b 51 04	 cmp	 edx, DWORD PTR [ecx+4]
  00242	0f 84 d7 01 00
	00		 je	 $LN3@Extract
  00248	8b 45 e8	 mov	 eax, DWORD PTR __Fixnode$[ebp]
  0024b	0f be 48 0c	 movsx	 ecx, BYTE PTR [eax+12]
  0024f	83 f9 01	 cmp	 ecx, 1
  00252	0f 85 c7 01 00
	00		 jne	 $LN3@Extract

; 573  :                 if (_Fixnode == _Fixnodeparent->_Left) { // fixup left subtree

  00258	8b 45 e4	 mov	 eax, DWORD PTR __Fixnodeparent$[ebp]
  0025b	8b 4d e8	 mov	 ecx, DWORD PTR __Fixnode$[ebp]
  0025e	3b 08		 cmp	 ecx, DWORD PTR [eax]
  00260	0f 85 e0 00 00
	00		 jne	 $LN26@Extract

; 574  :                     _Pnode = _Fixnodeparent->_Right;

  00266	8b 45 e4	 mov	 eax, DWORD PTR __Fixnodeparent$[ebp]
  00269	8b 48 08	 mov	 ecx, DWORD PTR [eax+8]
  0026c	89 4d e0	 mov	 DWORD PTR __Pnode$[ebp], ecx

; 575  :                     if (_Pnode->_Color == _Red) { // rotate red up from right subtree

  0026f	8b 45 e0	 mov	 eax, DWORD PTR __Pnode$[ebp]
  00272	0f be 48 0c	 movsx	 ecx, BYTE PTR [eax+12]
  00276	85 c9		 test	 ecx, ecx
  00278	75 23		 jne	 SHORT $LN28@Extract

; 576  :                         _Pnode->_Color         = _Black;

  0027a	8b 45 e0	 mov	 eax, DWORD PTR __Pnode$[ebp]
  0027d	c6 40 0c 01	 mov	 BYTE PTR [eax+12], 1

; 577  :                         _Fixnodeparent->_Color = _Red;

  00281	8b 45 e4	 mov	 eax, DWORD PTR __Fixnodeparent$[ebp]
  00284	c6 40 0c 00	 mov	 BYTE PTR [eax+12], 0

; 578  :                         _Lrotate(_Fixnodeparent);

  00288	8b 45 e4	 mov	 eax, DWORD PTR __Fixnodeparent$[ebp]
  0028b	50		 push	 eax
  0028c	8b 4d f0	 mov	 ecx, DWORD PTR _this$[ebp]
  0028f	e8 00 00 00 00	 call	 ?_Lrotate@?$_Tree_val@U?$_Tree_simple_types@U?$pair@$$CBHUNPC_DATA_HELPER@@@std@@@std@@@std@@QAEXPAU?$_Tree_node@U?$pair@$$CBHUNPC_DATA_HELPER@@@std@@PAX@2@@Z ; std::_Tree_val<std::_Tree_simple_types<std::pair<int const ,NPC_DATA_HELPER> > >::_Lrotate

; 579  :                         _Pnode = _Fixnodeparent->_Right;

  00294	8b 45 e4	 mov	 eax, DWORD PTR __Fixnodeparent$[ebp]
  00297	8b 48 08	 mov	 ecx, DWORD PTR [eax+8]
  0029a	89 4d e0	 mov	 DWORD PTR __Pnode$[ebp], ecx
$LN28@Extract:

; 580  :                     }
; 581  : 
; 582  :                     if (_Pnode->_Isnil) {

  0029d	8b 45 e0	 mov	 eax, DWORD PTR __Pnode$[ebp]
  002a0	0f be 48 0d	 movsx	 ecx, BYTE PTR [eax+13]
  002a4	85 c9		 test	 ecx, ecx
  002a6	74 0b		 je	 SHORT $LN29@Extract

; 583  :                         _Fixnode = _Fixnodeparent; // shouldn't happen

  002a8	8b 45 e4	 mov	 eax, DWORD PTR __Fixnodeparent$[ebp]
  002ab	89 45 e8	 mov	 DWORD PTR __Fixnode$[ebp], eax

; 584  :                     } else if (_Pnode->_Left->_Color == _Black

  002ae	e9 8e 00 00 00	 jmp	 $LN30@Extract
$LN29@Extract:

; 585  :                                && _Pnode->_Right->_Color == _Black) { // redden right subtree with black children

  002b3	8b 45 e0	 mov	 eax, DWORD PTR __Pnode$[ebp]
  002b6	8b 08		 mov	 ecx, DWORD PTR [eax]
  002b8	0f be 51 0c	 movsx	 edx, BYTE PTR [ecx+12]
  002bc	83 fa 01	 cmp	 edx, 1
  002bf	75 1e		 jne	 SHORT $LN31@Extract
  002c1	8b 45 e0	 mov	 eax, DWORD PTR __Pnode$[ebp]
  002c4	8b 48 08	 mov	 ecx, DWORD PTR [eax+8]
  002c7	0f be 51 0c	 movsx	 edx, BYTE PTR [ecx+12]
  002cb	83 fa 01	 cmp	 edx, 1
  002ce	75 0f		 jne	 SHORT $LN31@Extract

; 586  :                         _Pnode->_Color = _Red;

  002d0	8b 45 e0	 mov	 eax, DWORD PTR __Pnode$[ebp]
  002d3	c6 40 0c 00	 mov	 BYTE PTR [eax+12], 0

; 587  :                         _Fixnode       = _Fixnodeparent;

  002d7	8b 45 e4	 mov	 eax, DWORD PTR __Fixnodeparent$[ebp]
  002da	89 45 e8	 mov	 DWORD PTR __Fixnode$[ebp], eax

; 588  :                     } else { // must rearrange right subtree

  002dd	eb 62		 jmp	 SHORT $LN30@Extract
$LN31@Extract:

; 589  :                         if (_Pnode->_Right->_Color == _Black) { // rotate red up from left sub-subtree

  002df	8b 45 e0	 mov	 eax, DWORD PTR __Pnode$[ebp]
  002e2	8b 48 08	 mov	 ecx, DWORD PTR [eax+8]
  002e5	0f be 51 0c	 movsx	 edx, BYTE PTR [ecx+12]
  002e9	83 fa 01	 cmp	 edx, 1
  002ec	75 25		 jne	 SHORT $LN33@Extract

; 590  :                             _Pnode->_Left->_Color = _Black;

  002ee	8b 45 e0	 mov	 eax, DWORD PTR __Pnode$[ebp]
  002f1	8b 08		 mov	 ecx, DWORD PTR [eax]
  002f3	c6 41 0c 01	 mov	 BYTE PTR [ecx+12], 1

; 591  :                             _Pnode->_Color        = _Red;

  002f7	8b 45 e0	 mov	 eax, DWORD PTR __Pnode$[ebp]
  002fa	c6 40 0c 00	 mov	 BYTE PTR [eax+12], 0

; 592  :                             _Rrotate(_Pnode);

  002fe	8b 45 e0	 mov	 eax, DWORD PTR __Pnode$[ebp]
  00301	50		 push	 eax
  00302	8b 4d f0	 mov	 ecx, DWORD PTR _this$[ebp]
  00305	e8 00 00 00 00	 call	 ?_Rrotate@?$_Tree_val@U?$_Tree_simple_types@U?$pair@$$CBHUNPC_DATA_HELPER@@@std@@@std@@@std@@QAEXPAU?$_Tree_node@U?$pair@$$CBHUNPC_DATA_HELPER@@@std@@PAX@2@@Z ; std::_Tree_val<std::_Tree_simple_types<std::pair<int const ,NPC_DATA_HELPER> > >::_Rrotate

; 593  :                             _Pnode = _Fixnodeparent->_Right;

  0030a	8b 45 e4	 mov	 eax, DWORD PTR __Fixnodeparent$[ebp]
  0030d	8b 48 08	 mov	 ecx, DWORD PTR [eax+8]
  00310	89 4d e0	 mov	 DWORD PTR __Pnode$[ebp], ecx
$LN33@Extract:

; 594  :                         }
; 595  : 
; 596  :                         _Pnode->_Color         = _Fixnodeparent->_Color;

  00313	8b 45 e0	 mov	 eax, DWORD PTR __Pnode$[ebp]
  00316	8b 4d e4	 mov	 ecx, DWORD PTR __Fixnodeparent$[ebp]
  00319	8a 51 0c	 mov	 dl, BYTE PTR [ecx+12]
  0031c	88 50 0c	 mov	 BYTE PTR [eax+12], dl

; 597  :                         _Fixnodeparent->_Color = _Black;

  0031f	8b 45 e4	 mov	 eax, DWORD PTR __Fixnodeparent$[ebp]
  00322	c6 40 0c 01	 mov	 BYTE PTR [eax+12], 1

; 598  :                         _Pnode->_Right->_Color = _Black;

  00326	8b 45 e0	 mov	 eax, DWORD PTR __Pnode$[ebp]
  00329	8b 48 08	 mov	 ecx, DWORD PTR [eax+8]
  0032c	c6 41 0c 01	 mov	 BYTE PTR [ecx+12], 1

; 599  :                         _Lrotate(_Fixnodeparent);

  00330	8b 45 e4	 mov	 eax, DWORD PTR __Fixnodeparent$[ebp]
  00333	50		 push	 eax
  00334	8b 4d f0	 mov	 ecx, DWORD PTR _this$[ebp]
  00337	e8 00 00 00 00	 call	 ?_Lrotate@?$_Tree_val@U?$_Tree_simple_types@U?$pair@$$CBHUNPC_DATA_HELPER@@@std@@@std@@@std@@QAEXPAU?$_Tree_node@U?$pair@$$CBHUNPC_DATA_HELPER@@@std@@PAX@2@@Z ; std::_Tree_val<std::_Tree_simple_types<std::pair<int const ,NPC_DATA_HELPER> > >::_Lrotate

; 600  :                         break; // tree now recolored/rebalanced

  0033c	e9 de 00 00 00	 jmp	 $LN3@Extract
$LN30@Extract:

; 601  :                     }
; 602  :                 } else { // fixup right subtree

  00341	e9 d4 00 00 00	 jmp	 $LN27@Extract
$LN26@Extract:

; 603  :                     _Pnode = _Fixnodeparent->_Left;

  00346	8b 45 e4	 mov	 eax, DWORD PTR __Fixnodeparent$[ebp]
  00349	8b 08		 mov	 ecx, DWORD PTR [eax]
  0034b	89 4d e0	 mov	 DWORD PTR __Pnode$[ebp], ecx

; 604  :                     if (_Pnode->_Color == _Red) { // rotate red up from left subtree

  0034e	8b 45 e0	 mov	 eax, DWORD PTR __Pnode$[ebp]
  00351	0f be 48 0c	 movsx	 ecx, BYTE PTR [eax+12]
  00355	85 c9		 test	 ecx, ecx
  00357	75 22		 jne	 SHORT $LN34@Extract

; 605  :                         _Pnode->_Color         = _Black;

  00359	8b 45 e0	 mov	 eax, DWORD PTR __Pnode$[ebp]
  0035c	c6 40 0c 01	 mov	 BYTE PTR [eax+12], 1

; 606  :                         _Fixnodeparent->_Color = _Red;

  00360	8b 45 e4	 mov	 eax, DWORD PTR __Fixnodeparent$[ebp]
  00363	c6 40 0c 00	 mov	 BYTE PTR [eax+12], 0

; 607  :                         _Rrotate(_Fixnodeparent);

  00367	8b 45 e4	 mov	 eax, DWORD PTR __Fixnodeparent$[ebp]
  0036a	50		 push	 eax
  0036b	8b 4d f0	 mov	 ecx, DWORD PTR _this$[ebp]
  0036e	e8 00 00 00 00	 call	 ?_Rrotate@?$_Tree_val@U?$_Tree_simple_types@U?$pair@$$CBHUNPC_DATA_HELPER@@@std@@@std@@@std@@QAEXPAU?$_Tree_node@U?$pair@$$CBHUNPC_DATA_HELPER@@@std@@PAX@2@@Z ; std::_Tree_val<std::_Tree_simple_types<std::pair<int const ,NPC_DATA_HELPER> > >::_Rrotate

; 608  :                         _Pnode = _Fixnodeparent->_Left;

  00373	8b 45 e4	 mov	 eax, DWORD PTR __Fixnodeparent$[ebp]
  00376	8b 08		 mov	 ecx, DWORD PTR [eax]
  00378	89 4d e0	 mov	 DWORD PTR __Pnode$[ebp], ecx
$LN34@Extract:

; 609  :                     }
; 610  : 
; 611  :                     if (_Pnode->_Isnil) {

  0037b	8b 45 e0	 mov	 eax, DWORD PTR __Pnode$[ebp]
  0037e	0f be 48 0d	 movsx	 ecx, BYTE PTR [eax+13]
  00382	85 c9		 test	 ecx, ecx
  00384	74 0b		 je	 SHORT $LN35@Extract

; 612  :                         _Fixnode = _Fixnodeparent; // shouldn't happen

  00386	8b 45 e4	 mov	 eax, DWORD PTR __Fixnodeparent$[ebp]
  00389	89 45 e8	 mov	 DWORD PTR __Fixnode$[ebp], eax

; 613  :                     } else if (_Pnode->_Right->_Color == _Black

  0038c	e9 89 00 00 00	 jmp	 $LN27@Extract
$LN35@Extract:

; 614  :                                && _Pnode->_Left->_Color == _Black) { // redden left subtree with black children

  00391	8b 45 e0	 mov	 eax, DWORD PTR __Pnode$[ebp]
  00394	8b 48 08	 mov	 ecx, DWORD PTR [eax+8]
  00397	0f be 51 0c	 movsx	 edx, BYTE PTR [ecx+12]
  0039b	83 fa 01	 cmp	 edx, 1
  0039e	75 1d		 jne	 SHORT $LN37@Extract
  003a0	8b 45 e0	 mov	 eax, DWORD PTR __Pnode$[ebp]
  003a3	8b 08		 mov	 ecx, DWORD PTR [eax]
  003a5	0f be 51 0c	 movsx	 edx, BYTE PTR [ecx+12]
  003a9	83 fa 01	 cmp	 edx, 1
  003ac	75 0f		 jne	 SHORT $LN37@Extract

; 615  :                         _Pnode->_Color = _Red;

  003ae	8b 45 e0	 mov	 eax, DWORD PTR __Pnode$[ebp]
  003b1	c6 40 0c 00	 mov	 BYTE PTR [eax+12], 0

; 616  :                         _Fixnode       = _Fixnodeparent;

  003b5	8b 45 e4	 mov	 eax, DWORD PTR __Fixnodeparent$[ebp]
  003b8	89 45 e8	 mov	 DWORD PTR __Fixnode$[ebp], eax

; 617  :                     } else { // must rearrange left subtree

  003bb	eb 5d		 jmp	 SHORT $LN27@Extract
$LN37@Extract:

; 618  :                         if (_Pnode->_Left->_Color == _Black) { // rotate red up from right sub-subtree

  003bd	8b 45 e0	 mov	 eax, DWORD PTR __Pnode$[ebp]
  003c0	8b 08		 mov	 ecx, DWORD PTR [eax]
  003c2	0f be 51 0c	 movsx	 edx, BYTE PTR [ecx+12]
  003c6	83 fa 01	 cmp	 edx, 1
  003c9	75 25		 jne	 SHORT $LN39@Extract

; 619  :                             _Pnode->_Right->_Color = _Black;

  003cb	8b 45 e0	 mov	 eax, DWORD PTR __Pnode$[ebp]
  003ce	8b 48 08	 mov	 ecx, DWORD PTR [eax+8]
  003d1	c6 41 0c 01	 mov	 BYTE PTR [ecx+12], 1

; 620  :                             _Pnode->_Color         = _Red;

  003d5	8b 45 e0	 mov	 eax, DWORD PTR __Pnode$[ebp]
  003d8	c6 40 0c 00	 mov	 BYTE PTR [eax+12], 0

; 621  :                             _Lrotate(_Pnode);

  003dc	8b 45 e0	 mov	 eax, DWORD PTR __Pnode$[ebp]
  003df	50		 push	 eax
  003e0	8b 4d f0	 mov	 ecx, DWORD PTR _this$[ebp]
  003e3	e8 00 00 00 00	 call	 ?_Lrotate@?$_Tree_val@U?$_Tree_simple_types@U?$pair@$$CBHUNPC_DATA_HELPER@@@std@@@std@@@std@@QAEXPAU?$_Tree_node@U?$pair@$$CBHUNPC_DATA_HELPER@@@std@@PAX@2@@Z ; std::_Tree_val<std::_Tree_simple_types<std::pair<int const ,NPC_DATA_HELPER> > >::_Lrotate

; 622  :                             _Pnode = _Fixnodeparent->_Left;

  003e8	8b 45 e4	 mov	 eax, DWORD PTR __Fixnodeparent$[ebp]
  003eb	8b 08		 mov	 ecx, DWORD PTR [eax]
  003ed	89 4d e0	 mov	 DWORD PTR __Pnode$[ebp], ecx
$LN39@Extract:

; 623  :                         }
; 624  : 
; 625  :                         _Pnode->_Color         = _Fixnodeparent->_Color;

  003f0	8b 45 e0	 mov	 eax, DWORD PTR __Pnode$[ebp]
  003f3	8b 4d e4	 mov	 ecx, DWORD PTR __Fixnodeparent$[ebp]
  003f6	8a 51 0c	 mov	 dl, BYTE PTR [ecx+12]
  003f9	88 50 0c	 mov	 BYTE PTR [eax+12], dl

; 626  :                         _Fixnodeparent->_Color = _Black;

  003fc	8b 45 e4	 mov	 eax, DWORD PTR __Fixnodeparent$[ebp]
  003ff	c6 40 0c 01	 mov	 BYTE PTR [eax+12], 1

; 627  :                         _Pnode->_Left->_Color  = _Black;

  00403	8b 45 e0	 mov	 eax, DWORD PTR __Pnode$[ebp]
  00406	8b 08		 mov	 ecx, DWORD PTR [eax]
  00408	c6 41 0c 01	 mov	 BYTE PTR [ecx+12], 1

; 628  :                         _Rrotate(_Fixnodeparent);

  0040c	8b 45 e4	 mov	 eax, DWORD PTR __Fixnodeparent$[ebp]
  0040f	50		 push	 eax
  00410	8b 4d f0	 mov	 ecx, DWORD PTR _this$[ebp]
  00413	e8 00 00 00 00	 call	 ?_Rrotate@?$_Tree_val@U?$_Tree_simple_types@U?$pair@$$CBHUNPC_DATA_HELPER@@@std@@@std@@@std@@QAEXPAU?$_Tree_node@U?$pair@$$CBHUNPC_DATA_HELPER@@@std@@PAX@2@@Z ; std::_Tree_val<std::_Tree_simple_types<std::pair<int const ,NPC_DATA_HELPER> > >::_Rrotate

; 629  :                         break; // tree now recolored/rebalanced

  00418	eb 05		 jmp	 SHORT $LN3@Extract
$LN27@Extract:

; 630  :                     }
; 631  :                 }
; 632  :             }

  0041a	e9 0f fe ff ff	 jmp	 $LN2@Extract
$LN3@Extract:

; 633  : 
; 634  :             _Fixnode->_Color = _Black; // stopping node is black

  0041f	8b 45 e8	 mov	 eax, DWORD PTR __Fixnode$[ebp]
  00422	c6 40 0c 01	 mov	 BYTE PTR [eax+12], 1
$LN25@Extract:

; 635  :         }
; 636  : 
; 637  :         if (0 < _Mysize) {

  00426	8b 45 f0	 mov	 eax, DWORD PTR _this$[ebp]
  00429	83 78 04 00	 cmp	 DWORD PTR [eax+4], 0
  0042d	76 0f		 jbe	 SHORT $LN40@Extract

; 638  :             --_Mysize;

  0042f	8b 45 f0	 mov	 eax, DWORD PTR _this$[ebp]
  00432	8b 48 04	 mov	 ecx, DWORD PTR [eax+4]
  00435	83 e9 01	 sub	 ecx, 1
  00438	8b 55 f0	 mov	 edx, DWORD PTR _this$[ebp]
  0043b	89 4a 04	 mov	 DWORD PTR [edx+4], ecx
$LN40@Extract:

; 639  :         }
; 640  : 
; 641  :         return _Erasednode;

  0043e	8b 45 ec	 mov	 eax, DWORD PTR __Erasednode$[ebp]

; 642  :     }

  00441	8b 4d f4	 mov	 ecx, DWORD PTR __$EHRec$[ebp]
  00444	64 89 0d 00 00
	00 00		 mov	 DWORD PTR fs:0, ecx
  0044b	59		 pop	 ecx
  0044c	5f		 pop	 edi
  0044d	5e		 pop	 esi
  0044e	5b		 pop	 ebx
  0044f	8b e5		 mov	 esp, ebp
  00451	5d		 pop	 ebp
  00452	c2 04 00	 ret	 4
  00455	cc		 int	 3
  00456	cc		 int	 3
  00457	cc		 int	 3
  00458	cc		 int	 3
  00459	cc		 int	 3
_TEXT	ENDS
;	COMDAT text$x
text$x	SEGMENT
__ehhandler$?_Extract@?$_Tree_val@U?$_Tree_simple_types@U?$pair@$$CBHUNPC_DATA_HELPER@@@std@@@std@@@std@@QAEPAU?$_Tree_node@U?$pair@$$CBHUNPC_DATA_HELPER@@@std@@PAX@2@V?$_Tree_unchecked_const_iterator@V?$_Tree_val@U?$_Tree_simple_types@U?$pair@$$CBHUNPC_DATA_HELPER@@@std@@@std@@@std@@U_Iterator_base0@2@@2@@Z:
  00000	90		 npad	 1
  00001	90		 npad	 1
  00002	8b 54 24 08	 mov	 edx, DWORD PTR [esp+8]
  00006	8d 42 0c	 lea	 eax, DWORD PTR [edx+12]
  00009	8b 4a 98	 mov	 ecx, DWORD PTR [edx-104]
  0000c	33 c8		 xor	 ecx, eax
  0000e	e8 00 00 00 00	 call	 @__security_check_cookie@4
  00013	b8 00 00 00 00	 mov	 eax, OFFSET __ehfuncinfo$?_Extract@?$_Tree_val@U?$_Tree_simple_types@U?$pair@$$CBHUNPC_DATA_HELPER@@@std@@@std@@@std@@QAEPAU?$_Tree_node@U?$pair@$$CBHUNPC_DATA_HELPER@@@std@@PAX@2@V?$_Tree_unchecked_const_iterator@V?$_Tree_val@U?$_Tree_simple_types@U?$pair@$$CBHUNPC_DATA_HELPER@@@std@@@std@@@std@@U_Iterator_base0@2@@2@@Z
  00018	e9 00 00 00 00	 jmp	 ___CxxFrameHandler3
text$x	ENDS
?_Extract@?$_Tree_val@U?$_Tree_simple_types@U?$pair@$$CBHUNPC_DATA_HELPER@@@std@@@std@@@std@@QAEPAU?$_Tree_node@U?$pair@$$CBHUNPC_DATA_HELPER@@@std@@PAX@2@V?$_Tree_unchecked_const_iterator@V?$_Tree_val@U?$_Tree_simple_types@U?$pair@$$CBHUNPC_DATA_HELPER@@@std@@@std@@@std@@U_Iterator_base0@2@@2@@Z ENDP ; std::_Tree_val<std::_Tree_simple_types<std::pair<int const ,NPC_DATA_HELPER> > >::_Extract
; Function compile flags: /Odtp /ZI
; File C:\Program Files (x86)\Microsoft Visual Studio\2019\Community\VC\Tools\MSVC\14.27.29110\include\xtree
;	COMDAT ?_Rrotate@?$_Tree_val@U?$_Tree_simple_types@U?$pair@$$CBHUNPC_DATA_HELPER@@@std@@@std@@@std@@QAEXPAU?$_Tree_node@U?$pair@$$CBHUNPC_DATA_HELPER@@@std@@PAX@2@@Z
_TEXT	SEGMENT
__Pnode$ = -8						; size = 4
_this$ = -4						; size = 4
__Wherenode$ = 8					; size = 4
?_Rrotate@?$_Tree_val@U?$_Tree_simple_types@U?$pair@$$CBHUNPC_DATA_HELPER@@@std@@@std@@@std@@QAEXPAU?$_Tree_node@U?$pair@$$CBHUNPC_DATA_HELPER@@@std@@PAX@2@@Z PROC ; std::_Tree_val<std::_Tree_simple_types<std::pair<int const ,NPC_DATA_HELPER> > >::_Rrotate, COMDAT
; _this$ = ecx

; 480  :     void _Rrotate(_Nodeptr _Wherenode) noexcept { // promote left node to root of subtree

  00000	55		 push	 ebp
  00001	8b ec		 mov	 ebp, esp
  00003	83 ec 48	 sub	 esp, 72			; 00000048H
  00006	53		 push	 ebx
  00007	56		 push	 esi
  00008	57		 push	 edi
  00009	89 4d fc	 mov	 DWORD PTR _this$[ebp], ecx

; 481  :         _Nodeptr _Pnode   = _Wherenode->_Left;

  0000c	8b 45 08	 mov	 eax, DWORD PTR __Wherenode$[ebp]
  0000f	8b 08		 mov	 ecx, DWORD PTR [eax]
  00011	89 4d f8	 mov	 DWORD PTR __Pnode$[ebp], ecx

; 482  :         _Wherenode->_Left = _Pnode->_Right;

  00014	8b 45 08	 mov	 eax, DWORD PTR __Wherenode$[ebp]
  00017	8b 4d f8	 mov	 ecx, DWORD PTR __Pnode$[ebp]
  0001a	8b 51 08	 mov	 edx, DWORD PTR [ecx+8]
  0001d	89 10		 mov	 DWORD PTR [eax], edx

; 483  : 
; 484  :         if (!_Pnode->_Right->_Isnil) {

  0001f	8b 45 f8	 mov	 eax, DWORD PTR __Pnode$[ebp]
  00022	8b 48 08	 mov	 ecx, DWORD PTR [eax+8]
  00025	0f be 51 0d	 movsx	 edx, BYTE PTR [ecx+13]
  00029	85 d2		 test	 edx, edx
  0002b	75 0c		 jne	 SHORT $LN2@Rrotate

; 485  :             _Pnode->_Right->_Parent = _Wherenode;

  0002d	8b 45 f8	 mov	 eax, DWORD PTR __Pnode$[ebp]
  00030	8b 48 08	 mov	 ecx, DWORD PTR [eax+8]
  00033	8b 55 08	 mov	 edx, DWORD PTR __Wherenode$[ebp]
  00036	89 51 04	 mov	 DWORD PTR [ecx+4], edx
$LN2@Rrotate:

; 486  :         }
; 487  : 
; 488  :         _Pnode->_Parent = _Wherenode->_Parent;

  00039	8b 45 f8	 mov	 eax, DWORD PTR __Pnode$[ebp]
  0003c	8b 4d 08	 mov	 ecx, DWORD PTR __Wherenode$[ebp]
  0003f	8b 51 04	 mov	 edx, DWORD PTR [ecx+4]
  00042	89 50 04	 mov	 DWORD PTR [eax+4], edx

; 489  : 
; 490  :         if (_Wherenode == _Myhead->_Parent) {

  00045	8b 45 fc	 mov	 eax, DWORD PTR _this$[ebp]
  00048	8b 08		 mov	 ecx, DWORD PTR [eax]
  0004a	8b 55 08	 mov	 edx, DWORD PTR __Wherenode$[ebp]
  0004d	3b 51 04	 cmp	 edx, DWORD PTR [ecx+4]
  00050	75 0d		 jne	 SHORT $LN3@Rrotate

; 491  :             _Myhead->_Parent = _Pnode;

  00052	8b 45 fc	 mov	 eax, DWORD PTR _this$[ebp]
  00055	8b 08		 mov	 ecx, DWORD PTR [eax]
  00057	8b 55 f8	 mov	 edx, DWORD PTR __Pnode$[ebp]
  0005a	89 51 04	 mov	 DWORD PTR [ecx+4], edx
  0005d	eb 27		 jmp	 SHORT $LN4@Rrotate
$LN3@Rrotate:

; 492  :         } else if (_Wherenode == _Wherenode->_Parent->_Right) {

  0005f	8b 45 08	 mov	 eax, DWORD PTR __Wherenode$[ebp]
  00062	8b 48 04	 mov	 ecx, DWORD PTR [eax+4]
  00065	8b 55 08	 mov	 edx, DWORD PTR __Wherenode$[ebp]
  00068	3b 51 08	 cmp	 edx, DWORD PTR [ecx+8]
  0006b	75 0e		 jne	 SHORT $LN5@Rrotate

; 493  :             _Wherenode->_Parent->_Right = _Pnode;

  0006d	8b 45 08	 mov	 eax, DWORD PTR __Wherenode$[ebp]
  00070	8b 48 04	 mov	 ecx, DWORD PTR [eax+4]
  00073	8b 55 f8	 mov	 edx, DWORD PTR __Pnode$[ebp]
  00076	89 51 08	 mov	 DWORD PTR [ecx+8], edx

; 494  :         } else {

  00079	eb 0b		 jmp	 SHORT $LN4@Rrotate
$LN5@Rrotate:

; 495  :             _Wherenode->_Parent->_Left = _Pnode;

  0007b	8b 45 08	 mov	 eax, DWORD PTR __Wherenode$[ebp]
  0007e	8b 48 04	 mov	 ecx, DWORD PTR [eax+4]
  00081	8b 55 f8	 mov	 edx, DWORD PTR __Pnode$[ebp]
  00084	89 11		 mov	 DWORD PTR [ecx], edx
$LN4@Rrotate:

; 496  :         }
; 497  : 
; 498  :         _Pnode->_Right      = _Wherenode;

  00086	8b 45 f8	 mov	 eax, DWORD PTR __Pnode$[ebp]
  00089	8b 4d 08	 mov	 ecx, DWORD PTR __Wherenode$[ebp]
  0008c	89 48 08	 mov	 DWORD PTR [eax+8], ecx

; 499  :         _Wherenode->_Parent = _Pnode;

  0008f	8b 45 08	 mov	 eax, DWORD PTR __Wherenode$[ebp]
  00092	8b 4d f8	 mov	 ecx, DWORD PTR __Pnode$[ebp]
  00095	89 48 04	 mov	 DWORD PTR [eax+4], ecx

; 500  :     }

  00098	5f		 pop	 edi
  00099	5e		 pop	 esi
  0009a	5b		 pop	 ebx
  0009b	8b e5		 mov	 esp, ebp
  0009d	5d		 pop	 ebp
  0009e	c2 04 00	 ret	 4
?_Rrotate@?$_Tree_val@U?$_Tree_simple_types@U?$pair@$$CBHUNPC_DATA_HELPER@@@std@@@std@@@std@@QAEXPAU?$_Tree_node@U?$pair@$$CBHUNPC_DATA_HELPER@@@std@@PAX@2@@Z ENDP ; std::_Tree_val<std::_Tree_simple_types<std::pair<int const ,NPC_DATA_HELPER> > >::_Rrotate
_TEXT	ENDS
; Function compile flags: /Odtp /ZI
; File C:\Program Files (x86)\Microsoft Visual Studio\2019\Community\VC\Tools\MSVC\14.27.29110\include\xtree
;	COMDAT ?_Lrotate@?$_Tree_val@U?$_Tree_simple_types@U?$pair@$$CBHUNPC_DATA_HELPER@@@std@@@std@@@std@@QAEXPAU?$_Tree_node@U?$pair@$$CBHUNPC_DATA_HELPER@@@std@@PAX@2@@Z
_TEXT	SEGMENT
__Pnode$ = -8						; size = 4
_this$ = -4						; size = 4
__Wherenode$ = 8					; size = 4
?_Lrotate@?$_Tree_val@U?$_Tree_simple_types@U?$pair@$$CBHUNPC_DATA_HELPER@@@std@@@std@@@std@@QAEXPAU?$_Tree_node@U?$pair@$$CBHUNPC_DATA_HELPER@@@std@@PAX@2@@Z PROC ; std::_Tree_val<std::_Tree_simple_types<std::pair<int const ,NPC_DATA_HELPER> > >::_Lrotate, COMDAT
; _this$ = ecx

; 458  :     void _Lrotate(_Nodeptr _Wherenode) noexcept { // promote right node to root of subtree

  00000	55		 push	 ebp
  00001	8b ec		 mov	 ebp, esp
  00003	83 ec 48	 sub	 esp, 72			; 00000048H
  00006	53		 push	 ebx
  00007	56		 push	 esi
  00008	57		 push	 edi
  00009	89 4d fc	 mov	 DWORD PTR _this$[ebp], ecx

; 459  :         _Nodeptr _Pnode    = _Wherenode->_Right;

  0000c	8b 45 08	 mov	 eax, DWORD PTR __Wherenode$[ebp]
  0000f	8b 48 08	 mov	 ecx, DWORD PTR [eax+8]
  00012	89 4d f8	 mov	 DWORD PTR __Pnode$[ebp], ecx

; 460  :         _Wherenode->_Right = _Pnode->_Left;

  00015	8b 45 08	 mov	 eax, DWORD PTR __Wherenode$[ebp]
  00018	8b 4d f8	 mov	 ecx, DWORD PTR __Pnode$[ebp]
  0001b	8b 11		 mov	 edx, DWORD PTR [ecx]
  0001d	89 50 08	 mov	 DWORD PTR [eax+8], edx

; 461  : 
; 462  :         if (!_Pnode->_Left->_Isnil) {

  00020	8b 45 f8	 mov	 eax, DWORD PTR __Pnode$[ebp]
  00023	8b 08		 mov	 ecx, DWORD PTR [eax]
  00025	0f be 51 0d	 movsx	 edx, BYTE PTR [ecx+13]
  00029	85 d2		 test	 edx, edx
  0002b	75 0b		 jne	 SHORT $LN2@Lrotate

; 463  :             _Pnode->_Left->_Parent = _Wherenode;

  0002d	8b 45 f8	 mov	 eax, DWORD PTR __Pnode$[ebp]
  00030	8b 08		 mov	 ecx, DWORD PTR [eax]
  00032	8b 55 08	 mov	 edx, DWORD PTR __Wherenode$[ebp]
  00035	89 51 04	 mov	 DWORD PTR [ecx+4], edx
$LN2@Lrotate:

; 464  :         }
; 465  : 
; 466  :         _Pnode->_Parent = _Wherenode->_Parent;

  00038	8b 45 f8	 mov	 eax, DWORD PTR __Pnode$[ebp]
  0003b	8b 4d 08	 mov	 ecx, DWORD PTR __Wherenode$[ebp]
  0003e	8b 51 04	 mov	 edx, DWORD PTR [ecx+4]
  00041	89 50 04	 mov	 DWORD PTR [eax+4], edx

; 467  : 
; 468  :         if (_Wherenode == _Myhead->_Parent) {

  00044	8b 45 fc	 mov	 eax, DWORD PTR _this$[ebp]
  00047	8b 08		 mov	 ecx, DWORD PTR [eax]
  00049	8b 55 08	 mov	 edx, DWORD PTR __Wherenode$[ebp]
  0004c	3b 51 04	 cmp	 edx, DWORD PTR [ecx+4]
  0004f	75 0d		 jne	 SHORT $LN3@Lrotate

; 469  :             _Myhead->_Parent = _Pnode;

  00051	8b 45 fc	 mov	 eax, DWORD PTR _this$[ebp]
  00054	8b 08		 mov	 ecx, DWORD PTR [eax]
  00056	8b 55 f8	 mov	 edx, DWORD PTR __Pnode$[ebp]
  00059	89 51 04	 mov	 DWORD PTR [ecx+4], edx
  0005c	eb 26		 jmp	 SHORT $LN4@Lrotate
$LN3@Lrotate:

; 470  :         } else if (_Wherenode == _Wherenode->_Parent->_Left) {

  0005e	8b 45 08	 mov	 eax, DWORD PTR __Wherenode$[ebp]
  00061	8b 48 04	 mov	 ecx, DWORD PTR [eax+4]
  00064	8b 55 08	 mov	 edx, DWORD PTR __Wherenode$[ebp]
  00067	3b 11		 cmp	 edx, DWORD PTR [ecx]
  00069	75 0d		 jne	 SHORT $LN5@Lrotate

; 471  :             _Wherenode->_Parent->_Left = _Pnode;

  0006b	8b 45 08	 mov	 eax, DWORD PTR __Wherenode$[ebp]
  0006e	8b 48 04	 mov	 ecx, DWORD PTR [eax+4]
  00071	8b 55 f8	 mov	 edx, DWORD PTR __Pnode$[ebp]
  00074	89 11		 mov	 DWORD PTR [ecx], edx

; 472  :         } else {

  00076	eb 0c		 jmp	 SHORT $LN4@Lrotate
$LN5@Lrotate:

; 473  :             _Wherenode->_Parent->_Right = _Pnode;

  00078	8b 45 08	 mov	 eax, DWORD PTR __Wherenode$[ebp]
  0007b	8b 48 04	 mov	 ecx, DWORD PTR [eax+4]
  0007e	8b 55 f8	 mov	 edx, DWORD PTR __Pnode$[ebp]
  00081	89 51 08	 mov	 DWORD PTR [ecx+8], edx
$LN4@Lrotate:

; 474  :         }
; 475  : 
; 476  :         _Pnode->_Left       = _Wherenode;

  00084	8b 45 f8	 mov	 eax, DWORD PTR __Pnode$[ebp]
  00087	8b 4d 08	 mov	 ecx, DWORD PTR __Wherenode$[ebp]
  0008a	89 08		 mov	 DWORD PTR [eax], ecx

; 477  :         _Wherenode->_Parent = _Pnode;

  0008c	8b 45 08	 mov	 eax, DWORD PTR __Wherenode$[ebp]
  0008f	8b 4d f8	 mov	 ecx, DWORD PTR __Pnode$[ebp]
  00092	89 48 04	 mov	 DWORD PTR [eax+4], ecx

; 478  :     }

  00095	5f		 pop	 edi
  00096	5e		 pop	 esi
  00097	5b		 pop	 ebx
  00098	8b e5		 mov	 esp, ebp
  0009a	5d		 pop	 ebp
  0009b	c2 04 00	 ret	 4
?_Lrotate@?$_Tree_val@U?$_Tree_simple_types@U?$pair@$$CBHUNPC_DATA_HELPER@@@std@@@std@@@std@@QAEXPAU?$_Tree_node@U?$pair@$$CBHUNPC_DATA_HELPER@@@std@@PAX@2@@Z ENDP ; std::_Tree_val<std::_Tree_simple_types<std::pair<int const ,NPC_DATA_HELPER> > >::_Lrotate
_TEXT	ENDS
; Function compile flags: /Odtp /ZI
; File C:\Program Files (x86)\Microsoft Visual Studio\2019\Community\VC\Tools\MSVC\14.27.29110\include\xtree
;	COMDAT ?_Min@?$_Tree_val@U?$_Tree_simple_types@U?$pair@$$CBHUNPC_DATA_HELPER@@@std@@@std@@@std@@SAPAU?$_Tree_node@U?$pair@$$CBHUNPC_DATA_HELPER@@@std@@PAX@2@PAU32@@Z
_TEXT	SEGMENT
__Pnode$ = 8						; size = 4
?_Min@?$_Tree_val@U?$_Tree_simple_types@U?$pair@$$CBHUNPC_DATA_HELPER@@@std@@@std@@@std@@SAPAU?$_Tree_node@U?$pair@$$CBHUNPC_DATA_HELPER@@@std@@PAX@2@PAU32@@Z PROC ; std::_Tree_val<std::_Tree_simple_types<std::pair<int const ,NPC_DATA_HELPER> > >::_Min, COMDAT

; 450  :     static _Nodeptr _Min(_Nodeptr _Pnode) noexcept { // return leftmost node in subtree at _Pnode

  00000	55		 push	 ebp
  00001	8b ec		 mov	 ebp, esp
  00003	83 ec 40	 sub	 esp, 64			; 00000040H
  00006	53		 push	 ebx
  00007	56		 push	 esi
  00008	57		 push	 edi
$LN2@Min:

; 451  :         while (!_Pnode->_Left->_Isnil) {

  00009	8b 45 08	 mov	 eax, DWORD PTR __Pnode$[ebp]
  0000c	8b 08		 mov	 ecx, DWORD PTR [eax]
  0000e	0f be 51 0d	 movsx	 edx, BYTE PTR [ecx+13]
  00012	85 d2		 test	 edx, edx
  00014	75 0a		 jne	 SHORT $LN3@Min

; 452  :             _Pnode = _Pnode->_Left;

  00016	8b 45 08	 mov	 eax, DWORD PTR __Pnode$[ebp]
  00019	8b 08		 mov	 ecx, DWORD PTR [eax]
  0001b	89 4d 08	 mov	 DWORD PTR __Pnode$[ebp], ecx

; 453  :         }

  0001e	eb e9		 jmp	 SHORT $LN2@Min
$LN3@Min:

; 454  : 
; 455  :         return _Pnode;

  00020	8b 45 08	 mov	 eax, DWORD PTR __Pnode$[ebp]

; 456  :     }

  00023	5f		 pop	 edi
  00024	5e		 pop	 esi
  00025	5b		 pop	 ebx
  00026	8b e5		 mov	 esp, ebp
  00028	5d		 pop	 ebp
  00029	c3		 ret	 0
?_Min@?$_Tree_val@U?$_Tree_simple_types@U?$pair@$$CBHUNPC_DATA_HELPER@@@std@@@std@@@std@@SAPAU?$_Tree_node@U?$pair@$$CBHUNPC_DATA_HELPER@@@std@@PAX@2@PAU32@@Z ENDP ; std::_Tree_val<std::_Tree_simple_types<std::pair<int const ,NPC_DATA_HELPER> > >::_Min
_TEXT	ENDS
; Function compile flags: /Odtp /ZI
; File C:\Program Files (x86)\Microsoft Visual Studio\2019\Community\VC\Tools\MSVC\14.27.29110\include\xtree
;	COMDAT ?_Max@?$_Tree_val@U?$_Tree_simple_types@U?$pair@$$CBHUNPC_DATA_HELPER@@@std@@@std@@@std@@SAPAU?$_Tree_node@U?$pair@$$CBHUNPC_DATA_HELPER@@@std@@PAX@2@PAU32@@Z
_TEXT	SEGMENT
__Pnode$ = 8						; size = 4
?_Max@?$_Tree_val@U?$_Tree_simple_types@U?$pair@$$CBHUNPC_DATA_HELPER@@@std@@@std@@@std@@SAPAU?$_Tree_node@U?$pair@$$CBHUNPC_DATA_HELPER@@@std@@PAX@2@PAU32@@Z PROC ; std::_Tree_val<std::_Tree_simple_types<std::pair<int const ,NPC_DATA_HELPER> > >::_Max, COMDAT

; 442  :     static _Nodeptr _Max(_Nodeptr _Pnode) noexcept { // return rightmost node in subtree at _Pnode

  00000	55		 push	 ebp
  00001	8b ec		 mov	 ebp, esp
  00003	83 ec 40	 sub	 esp, 64			; 00000040H
  00006	53		 push	 ebx
  00007	56		 push	 esi
  00008	57		 push	 edi
$LN2@Max:

; 443  :         while (!_Pnode->_Right->_Isnil) {

  00009	8b 45 08	 mov	 eax, DWORD PTR __Pnode$[ebp]
  0000c	8b 48 08	 mov	 ecx, DWORD PTR [eax+8]
  0000f	0f be 51 0d	 movsx	 edx, BYTE PTR [ecx+13]
  00013	85 d2		 test	 edx, edx
  00015	75 0b		 jne	 SHORT $LN3@Max

; 444  :             _Pnode = _Pnode->_Right;

  00017	8b 45 08	 mov	 eax, DWORD PTR __Pnode$[ebp]
  0001a	8b 48 08	 mov	 ecx, DWORD PTR [eax+8]
  0001d	89 4d 08	 mov	 DWORD PTR __Pnode$[ebp], ecx

; 445  :         }

  00020	eb e7		 jmp	 SHORT $LN2@Max
$LN3@Max:

; 446  : 
; 447  :         return _Pnode;

  00022	8b 45 08	 mov	 eax, DWORD PTR __Pnode$[ebp]

; 448  :     }

  00025	5f		 pop	 edi
  00026	5e		 pop	 esi
  00027	5b		 pop	 ebx
  00028	8b e5		 mov	 esp, ebp
  0002a	5d		 pop	 ebp
  0002b	c3		 ret	 0
?_Max@?$_Tree_val@U?$_Tree_simple_types@U?$pair@$$CBHUNPC_DATA_HELPER@@@std@@@std@@@std@@SAPAU?$_Tree_node@U?$pair@$$CBHUNPC_DATA_HELPER@@@std@@PAX@2@PAU32@@Z ENDP ; std::_Tree_val<std::_Tree_simple_types<std::pair<int const ,NPC_DATA_HELPER> > >::_Max
_TEXT	ENDS
; Function compile flags: /Odtp /ZI
; File C:\Program Files (x86)\Microsoft Visual Studio\2019\Community\VC\Tools\MSVC\14.27.29110\include\xtree
;	COMDAT ??0?$_Tree_val@U?$_Tree_simple_types@U?$pair@$$CBHUNPC_DATA_HELPER@@@std@@@std@@@std@@QAE@XZ
_TEXT	SEGMENT
_this$ = -4						; size = 4
??0?$_Tree_val@U?$_Tree_simple_types@U?$pair@$$CBHUNPC_DATA_HELPER@@@std@@@std@@@std@@QAE@XZ PROC ; std::_Tree_val<std::_Tree_simple_types<std::pair<int const ,NPC_DATA_HELPER> > >::_Tree_val<std::_Tree_simple_types<std::pair<int const ,NPC_DATA_HELPER> > >, COMDAT
; _this$ = ecx

; 435  :     _Tree_val() noexcept : _Myhead(), _Mysize(0) {}

  00000	55		 push	 ebp
  00001	8b ec		 mov	 ebp, esp
  00003	83 ec 44	 sub	 esp, 68			; 00000044H
  00006	53		 push	 ebx
  00007	56		 push	 esi
  00008	57		 push	 edi
  00009	89 4d fc	 mov	 DWORD PTR _this$[ebp], ecx
  0000c	8b 45 fc	 mov	 eax, DWORD PTR _this$[ebp]
  0000f	c7 00 00 00 00
	00		 mov	 DWORD PTR [eax], 0
  00015	8b 45 fc	 mov	 eax, DWORD PTR _this$[ebp]
  00018	c7 40 04 00 00
	00 00		 mov	 DWORD PTR [eax+4], 0
  0001f	8b 45 fc	 mov	 eax, DWORD PTR _this$[ebp]
  00022	5f		 pop	 edi
  00023	5e		 pop	 esi
  00024	5b		 pop	 ebx
  00025	8b e5		 mov	 esp, ebp
  00027	5d		 pop	 ebp
  00028	c3		 ret	 0
??0?$_Tree_val@U?$_Tree_simple_types@U?$pair@$$CBHUNPC_DATA_HELPER@@@std@@@std@@@std@@QAE@XZ ENDP ; std::_Tree_val<std::_Tree_simple_types<std::pair<int const ,NPC_DATA_HELPER> > >::_Tree_val<std::_Tree_simple_types<std::pair<int const ,NPC_DATA_HELPER> > >
_TEXT	ENDS
; Function compile flags: /Odtp /ZI
; File C:\Program Files (x86)\Microsoft Visual Studio\2019\Community\VC\Tools\MSVC\14.27.29110\include\xtree
;	COMDAT ?_Get_scary@?$_Tree@V?$_Tmap_traits@HUNPC_DATA_HELPER@@U?$less@H@std@@V?$allocator@U?$pair@$$CBHUNPC_DATA_HELPER@@@std@@@3@$0A@@std@@@std@@IBEPBV?$_Tree_val@U?$_Tree_simple_types@U?$pair@$$CBHUNPC_DATA_HELPER@@@std@@@std@@@2@XZ
_TEXT	SEGMENT
_this$ = -4						; size = 4
?_Get_scary@?$_Tree@V?$_Tmap_traits@HUNPC_DATA_HELPER@@U?$less@H@std@@V?$allocator@U?$pair@$$CBHUNPC_DATA_HELPER@@@std@@@3@$0A@@std@@@std@@IBEPBV?$_Tree_val@U?$_Tree_simple_types@U?$pair@$$CBHUNPC_DATA_HELPER@@@std@@@std@@@2@XZ PROC ; std::_Tree<std::_Tmap_traits<int,NPC_DATA_HELPER,std::less<int>,std::allocator<std::pair<int const ,NPC_DATA_HELPER> >,0> >::_Get_scary, COMDAT
; _this$ = ecx

; 2050 :     const _Scary_val* _Get_scary() const noexcept {

  00000	55		 push	 ebp
  00001	8b ec		 mov	 ebp, esp
  00003	83 ec 44	 sub	 esp, 68			; 00000044H
  00006	53		 push	 ebx
  00007	56		 push	 esi
  00008	57		 push	 edi
  00009	89 4d fc	 mov	 DWORD PTR _this$[ebp], ecx

; 2051 :         return _STD addressof(_Mypair._Myval2._Myval2);

  0000c	8b 45 fc	 mov	 eax, DWORD PTR _this$[ebp]
  0000f	50		 push	 eax
  00010	e8 00 00 00 00	 call	 ??$addressof@$$CBV?$_Tree_val@U?$_Tree_simple_types@U?$pair@$$CBHUNPC_DATA_HELPER@@@std@@@std@@@std@@@std@@YAPBV?$_Tree_val@U?$_Tree_simple_types@U?$pair@$$CBHUNPC_DATA_HELPER@@@std@@@std@@@0@ABV10@@Z ; std::addressof<std::_Tree_val<std::_Tree_simple_types<std::pair<int const ,NPC_DATA_HELPER> > > const >
  00015	83 c4 04	 add	 esp, 4

; 2052 :     }

  00018	5f		 pop	 edi
  00019	5e		 pop	 esi
  0001a	5b		 pop	 ebx
  0001b	8b e5		 mov	 esp, ebp
  0001d	5d		 pop	 ebp
  0001e	c3		 ret	 0
?_Get_scary@?$_Tree@V?$_Tmap_traits@HUNPC_DATA_HELPER@@U?$less@H@std@@V?$allocator@U?$pair@$$CBHUNPC_DATA_HELPER@@@std@@@3@$0A@@std@@@std@@IBEPBV?$_Tree_val@U?$_Tree_simple_types@U?$pair@$$CBHUNPC_DATA_HELPER@@@std@@@std@@@2@XZ ENDP ; std::_Tree<std::_Tmap_traits<int,NPC_DATA_HELPER,std::less<int>,std::allocator<std::pair<int const ,NPC_DATA_HELPER> >,0> >::_Get_scary
_TEXT	ENDS
; Function compile flags: /Odtp /ZI
; File C:\Program Files (x86)\Microsoft Visual Studio\2019\Community\VC\Tools\MSVC\14.27.29110\include\xtree
;	COMDAT ?_Get_scary@?$_Tree@V?$_Tmap_traits@HUNPC_DATA_HELPER@@U?$less@H@std@@V?$allocator@U?$pair@$$CBHUNPC_DATA_HELPER@@@std@@@3@$0A@@std@@@std@@IAEPAV?$_Tree_val@U?$_Tree_simple_types@U?$pair@$$CBHUNPC_DATA_HELPER@@@std@@@std@@@2@XZ
_TEXT	SEGMENT
_this$ = -4						; size = 4
?_Get_scary@?$_Tree@V?$_Tmap_traits@HUNPC_DATA_HELPER@@U?$less@H@std@@V?$allocator@U?$pair@$$CBHUNPC_DATA_HELPER@@@std@@@3@$0A@@std@@@std@@IAEPAV?$_Tree_val@U?$_Tree_simple_types@U?$pair@$$CBHUNPC_DATA_HELPER@@@std@@@std@@@2@XZ PROC ; std::_Tree<std::_Tmap_traits<int,NPC_DATA_HELPER,std::less<int>,std::allocator<std::pair<int const ,NPC_DATA_HELPER> >,0> >::_Get_scary, COMDAT
; _this$ = ecx

; 2046 :     _Scary_val* _Get_scary() noexcept {

  00000	55		 push	 ebp
  00001	8b ec		 mov	 ebp, esp
  00003	83 ec 44	 sub	 esp, 68			; 00000044H
  00006	53		 push	 ebx
  00007	56		 push	 esi
  00008	57		 push	 edi
  00009	89 4d fc	 mov	 DWORD PTR _this$[ebp], ecx

; 2047 :         return _STD addressof(_Mypair._Myval2._Myval2);

  0000c	8b 45 fc	 mov	 eax, DWORD PTR _this$[ebp]
  0000f	50		 push	 eax
  00010	e8 00 00 00 00	 call	 ??$addressof@V?$_Tree_val@U?$_Tree_simple_types@U?$pair@$$CBHUNPC_DATA_HELPER@@@std@@@std@@@std@@@std@@YAPAV?$_Tree_val@U?$_Tree_simple_types@U?$pair@$$CBHUNPC_DATA_HELPER@@@std@@@std@@@0@AAV10@@Z ; std::addressof<std::_Tree_val<std::_Tree_simple_types<std::pair<int const ,NPC_DATA_HELPER> > > >
  00015	83 c4 04	 add	 esp, 4

; 2048 :     }

  00018	5f		 pop	 edi
  00019	5e		 pop	 esi
  0001a	5b		 pop	 ebx
  0001b	8b e5		 mov	 esp, ebp
  0001d	5d		 pop	 ebp
  0001e	c3		 ret	 0
?_Get_scary@?$_Tree@V?$_Tmap_traits@HUNPC_DATA_HELPER@@U?$less@H@std@@V?$allocator@U?$pair@$$CBHUNPC_DATA_HELPER@@@std@@@3@$0A@@std@@@std@@IAEPAV?$_Tree_val@U?$_Tree_simple_types@U?$pair@$$CBHUNPC_DATA_HELPER@@@std@@@std@@@2@XZ ENDP ; std::_Tree<std::_Tmap_traits<int,NPC_DATA_HELPER,std::less<int>,std::allocator<std::pair<int const ,NPC_DATA_HELPER> >,0> >::_Get_scary
_TEXT	ENDS
; Function compile flags: /Odtp /ZI
; File C:\Program Files (x86)\Microsoft Visual Studio\2019\Community\VC\Tools\MSVC\14.27.29110\include\xtree
;	COMDAT ?_Getal@?$_Tree@V?$_Tmap_traits@HUNPC_DATA_HELPER@@U?$less@H@std@@V?$allocator@U?$pair@$$CBHUNPC_DATA_HELPER@@@std@@@3@$0A@@std@@@std@@IBEABV?$allocator@U?$_Tree_node@U?$pair@$$CBHUNPC_DATA_HELPER@@@std@@PAX@std@@@2@XZ
_TEXT	SEGMENT
_this$ = -4						; size = 4
?_Getal@?$_Tree@V?$_Tmap_traits@HUNPC_DATA_HELPER@@U?$less@H@std@@V?$allocator@U?$pair@$$CBHUNPC_DATA_HELPER@@@std@@@3@$0A@@std@@@std@@IBEABV?$allocator@U?$_Tree_node@U?$pair@$$CBHUNPC_DATA_HELPER@@@std@@PAX@std@@@2@XZ PROC ; std::_Tree<std::_Tmap_traits<int,NPC_DATA_HELPER,std::less<int>,std::allocator<std::pair<int const ,NPC_DATA_HELPER> >,0> >::_Getal, COMDAT
; _this$ = ecx

; 2042 :     const _Alnode& _Getal() const noexcept {

  00000	55		 push	 ebp
  00001	8b ec		 mov	 ebp, esp
  00003	83 ec 44	 sub	 esp, 68			; 00000044H
  00006	53		 push	 ebx
  00007	56		 push	 esi
  00008	57		 push	 edi
  00009	89 4d fc	 mov	 DWORD PTR _this$[ebp], ecx

; 2043 :         return _Mypair._Myval2._Get_first();

  0000c	8b 4d fc	 mov	 ecx, DWORD PTR _this$[ebp]
  0000f	e8 00 00 00 00	 call	 ?_Get_first@?$_Compressed_pair@V?$allocator@U?$_Tree_node@U?$pair@$$CBHUNPC_DATA_HELPER@@@std@@PAX@std@@@std@@V?$_Tree_val@U?$_Tree_simple_types@U?$pair@$$CBHUNPC_DATA_HELPER@@@std@@@std@@@2@$00@std@@QBEABV?$allocator@U?$_Tree_node@U?$pair@$$CBHUNPC_DATA_HELPER@@@std@@PAX@std@@@2@XZ ; std::_Compressed_pair<std::allocator<std::_Tree_node<std::pair<int const ,NPC_DATA_HELPER>,void *> >,std::_Tree_val<std::_Tree_simple_types<std::pair<int const ,NPC_DATA_HELPER> > >,1>::_Get_first

; 2044 :     }

  00014	5f		 pop	 edi
  00015	5e		 pop	 esi
  00016	5b		 pop	 ebx
  00017	8b e5		 mov	 esp, ebp
  00019	5d		 pop	 ebp
  0001a	c3		 ret	 0
?_Getal@?$_Tree@V?$_Tmap_traits@HUNPC_DATA_HELPER@@U?$less@H@std@@V?$allocator@U?$pair@$$CBHUNPC_DATA_HELPER@@@std@@@3@$0A@@std@@@std@@IBEABV?$allocator@U?$_Tree_node@U?$pair@$$CBHUNPC_DATA_HELPER@@@std@@PAX@std@@@2@XZ ENDP ; std::_Tree<std::_Tmap_traits<int,NPC_DATA_HELPER,std::less<int>,std::allocator<std::pair<int const ,NPC_DATA_HELPER> >,0> >::_Getal
_TEXT	ENDS
; Function compile flags: /Odtp /ZI
; File C:\Program Files (x86)\Microsoft Visual Studio\2019\Community\VC\Tools\MSVC\14.27.29110\include\xtree
;	COMDAT ?_Getal@?$_Tree@V?$_Tmap_traits@HUNPC_DATA_HELPER@@U?$less@H@std@@V?$allocator@U?$pair@$$CBHUNPC_DATA_HELPER@@@std@@@3@$0A@@std@@@std@@IAEAAV?$allocator@U?$_Tree_node@U?$pair@$$CBHUNPC_DATA_HELPER@@@std@@PAX@std@@@2@XZ
_TEXT	SEGMENT
_this$ = -4						; size = 4
?_Getal@?$_Tree@V?$_Tmap_traits@HUNPC_DATA_HELPER@@U?$less@H@std@@V?$allocator@U?$pair@$$CBHUNPC_DATA_HELPER@@@std@@@3@$0A@@std@@@std@@IAEAAV?$allocator@U?$_Tree_node@U?$pair@$$CBHUNPC_DATA_HELPER@@@std@@PAX@std@@@2@XZ PROC ; std::_Tree<std::_Tmap_traits<int,NPC_DATA_HELPER,std::less<int>,std::allocator<std::pair<int const ,NPC_DATA_HELPER> >,0> >::_Getal, COMDAT
; _this$ = ecx

; 2038 :     _Alnode& _Getal() noexcept {

  00000	55		 push	 ebp
  00001	8b ec		 mov	 ebp, esp
  00003	83 ec 44	 sub	 esp, 68			; 00000044H
  00006	53		 push	 ebx
  00007	56		 push	 esi
  00008	57		 push	 edi
  00009	89 4d fc	 mov	 DWORD PTR _this$[ebp], ecx

; 2039 :         return _Mypair._Myval2._Get_first();

  0000c	8b 4d fc	 mov	 ecx, DWORD PTR _this$[ebp]
  0000f	e8 00 00 00 00	 call	 ?_Get_first@?$_Compressed_pair@V?$allocator@U?$_Tree_node@U?$pair@$$CBHUNPC_DATA_HELPER@@@std@@PAX@std@@@std@@V?$_Tree_val@U?$_Tree_simple_types@U?$pair@$$CBHUNPC_DATA_HELPER@@@std@@@std@@@2@$00@std@@QAEAAV?$allocator@U?$_Tree_node@U?$pair@$$CBHUNPC_DATA_HELPER@@@std@@PAX@std@@@2@XZ ; std::_Compressed_pair<std::allocator<std::_Tree_node<std::pair<int const ,NPC_DATA_HELPER>,void *> >,std::_Tree_val<std::_Tree_simple_types<std::pair<int const ,NPC_DATA_HELPER> > >,1>::_Get_first

; 2040 :     }

  00014	5f		 pop	 edi
  00015	5e		 pop	 esi
  00016	5b		 pop	 ebx
  00017	8b e5		 mov	 esp, ebp
  00019	5d		 pop	 ebp
  0001a	c3		 ret	 0
?_Getal@?$_Tree@V?$_Tmap_traits@HUNPC_DATA_HELPER@@U?$less@H@std@@V?$allocator@U?$pair@$$CBHUNPC_DATA_HELPER@@@std@@@3@$0A@@std@@@std@@IAEAAV?$allocator@U?$_Tree_node@U?$pair@$$CBHUNPC_DATA_HELPER@@@std@@PAX@std@@@2@XZ ENDP ; std::_Tree<std::_Tmap_traits<int,NPC_DATA_HELPER,std::less<int>,std::allocator<std::pair<int const ,NPC_DATA_HELPER> >,0> >::_Getal
_TEXT	ENDS
; Function compile flags: /Odtp /ZI
; File C:\Program Files (x86)\Microsoft Visual Studio\2019\Community\VC\Tools\MSVC\14.27.29110\include\xtree
;	COMDAT ?_Getcomp@?$_Tree@V?$_Tmap_traits@HUNPC_DATA_HELPER@@U?$less@H@std@@V?$allocator@U?$pair@$$CBHUNPC_DATA_HELPER@@@std@@@3@$0A@@std@@@std@@IBEABU?$less@H@2@XZ
_TEXT	SEGMENT
_this$ = -4						; size = 4
?_Getcomp@?$_Tree@V?$_Tmap_traits@HUNPC_DATA_HELPER@@U?$less@H@std@@V?$allocator@U?$pair@$$CBHUNPC_DATA_HELPER@@@std@@@3@$0A@@std@@@std@@IBEABU?$less@H@2@XZ PROC ; std::_Tree<std::_Tmap_traits<int,NPC_DATA_HELPER,std::less<int>,std::allocator<std::pair<int const ,NPC_DATA_HELPER> >,0> >::_Getcomp, COMDAT
; _this$ = ecx

; 2034 :     const key_compare& _Getcomp() const noexcept {

  00000	55		 push	 ebp
  00001	8b ec		 mov	 ebp, esp
  00003	83 ec 44	 sub	 esp, 68			; 00000044H
  00006	53		 push	 ebx
  00007	56		 push	 esi
  00008	57		 push	 edi
  00009	89 4d fc	 mov	 DWORD PTR _this$[ebp], ecx

; 2035 :         return _Mypair._Get_first();

  0000c	8b 4d fc	 mov	 ecx, DWORD PTR _this$[ebp]
  0000f	e8 00 00 00 00	 call	 ?_Get_first@?$_Compressed_pair@U?$less@H@std@@V?$_Compressed_pair@V?$allocator@U?$_Tree_node@U?$pair@$$CBHUNPC_DATA_HELPER@@@std@@PAX@std@@@std@@V?$_Tree_val@U?$_Tree_simple_types@U?$pair@$$CBHUNPC_DATA_HELPER@@@std@@@std@@@2@$00@2@$00@std@@QBEABU?$less@H@2@XZ ; std::_Compressed_pair<std::less<int>,std::_Compressed_pair<std::allocator<std::_Tree_node<std::pair<int const ,NPC_DATA_HELPER>,void *> >,std::_Tree_val<std::_Tree_simple_types<std::pair<int const ,NPC_DATA_HELPER> > >,1>,1>::_Get_first

; 2036 :     }

  00014	5f		 pop	 edi
  00015	5e		 pop	 esi
  00016	5b		 pop	 ebx
  00017	8b e5		 mov	 esp, ebp
  00019	5d		 pop	 ebp
  0001a	c3		 ret	 0
?_Getcomp@?$_Tree@V?$_Tmap_traits@HUNPC_DATA_HELPER@@U?$less@H@std@@V?$allocator@U?$pair@$$CBHUNPC_DATA_HELPER@@@std@@@3@$0A@@std@@@std@@IBEABU?$less@H@2@XZ ENDP ; std::_Tree<std::_Tmap_traits<int,NPC_DATA_HELPER,std::less<int>,std::allocator<std::pair<int const ,NPC_DATA_HELPER> >,0> >::_Getcomp
_TEXT	ENDS
; Function compile flags: /Odtp /ZI
; File C:\Program Files (x86)\Microsoft Visual Studio\2019\Community\VC\Tools\MSVC\14.27.29110\include\xtree
;	COMDAT ?_Alloc_sentinel_and_proxy@?$_Tree@V?$_Tmap_traits@HUNPC_DATA_HELPER@@U?$less@H@std@@V?$allocator@U?$pair@$$CBHUNPC_DATA_HELPER@@@std@@@3@$0A@@std@@@std@@IAEXXZ
_TEXT	SEGMENT
__Proxy$ = -14						; size = 1
_$S23$ = -13						; size = 1
__Alproxy$ = -12					; size = 4
__Scary$ = -8						; size = 4
_this$ = -4						; size = 4
?_Alloc_sentinel_and_proxy@?$_Tree@V?$_Tmap_traits@HUNPC_DATA_HELPER@@U?$less@H@std@@V?$allocator@U?$pair@$$CBHUNPC_DATA_HELPER@@@std@@@3@$0A@@std@@@std@@IAEXXZ PROC ; std::_Tree<std::_Tmap_traits<int,NPC_DATA_HELPER,std::less<int>,std::allocator<std::pair<int const ,NPC_DATA_HELPER> >,0> >::_Alloc_sentinel_and_proxy, COMDAT
; _this$ = ecx

; 2017 :     void _Alloc_sentinel_and_proxy() {

  00000	55		 push	 ebp
  00001	8b ec		 mov	 ebp, esp
  00003	83 ec 50	 sub	 esp, 80			; 00000050H
  00006	53		 push	 ebx
  00007	56		 push	 esi
  00008	57		 push	 edi
  00009	89 4d fc	 mov	 DWORD PTR _this$[ebp], ecx

; 2018 :         const auto _Scary = _Get_scary();

  0000c	8b 4d fc	 mov	 ecx, DWORD PTR _this$[ebp]
  0000f	e8 00 00 00 00	 call	 ?_Get_scary@?$_Tree@V?$_Tmap_traits@HUNPC_DATA_HELPER@@U?$less@H@std@@V?$allocator@U?$pair@$$CBHUNPC_DATA_HELPER@@@std@@@3@$0A@@std@@@std@@IAEPAV?$_Tree_val@U?$_Tree_simple_types@U?$pair@$$CBHUNPC_DATA_HELPER@@@std@@@std@@@2@XZ ; std::_Tree<std::_Tmap_traits<int,NPC_DATA_HELPER,std::less<int>,std::allocator<std::pair<int const ,NPC_DATA_HELPER> >,0> >::_Get_scary
  00014	89 45 f8	 mov	 DWORD PTR __Scary$[ebp], eax

; 2019 :         auto&& _Alproxy   = _GET_PROXY_ALLOCATOR(_Alnode, _Getal());

  00017	8d 45 f3	 lea	 eax, DWORD PTR _$S23$[ebp]
  0001a	89 45 f4	 mov	 DWORD PTR __Alproxy$[ebp], eax

; 2020 :         _Container_proxy_ptr<_Alnode> _Proxy(_Alproxy, *_Scary);

  0001d	8b 45 f8	 mov	 eax, DWORD PTR __Scary$[ebp]
  00020	50		 push	 eax
  00021	8b 4d f4	 mov	 ecx, DWORD PTR __Alproxy$[ebp]
  00024	51		 push	 ecx
  00025	8d 4d f2	 lea	 ecx, DWORD PTR __Proxy$[ebp]
  00028	e8 00 00 00 00	 call	 ??0_Fake_proxy_ptr_impl@std@@QAE@ABU_Fake_allocator@1@ABU_Container_base0@1@@Z ; std::_Fake_proxy_ptr_impl::_Fake_proxy_ptr_impl

; 2021 :         _Scary->_Myhead = _Node::_Buyheadnode(_Getal());

  0002d	8b 4d fc	 mov	 ecx, DWORD PTR _this$[ebp]
  00030	e8 00 00 00 00	 call	 ?_Getal@?$_Tree@V?$_Tmap_traits@HUNPC_DATA_HELPER@@U?$less@H@std@@V?$allocator@U?$pair@$$CBHUNPC_DATA_HELPER@@@std@@@3@$0A@@std@@@std@@IAEAAV?$allocator@U?$_Tree_node@U?$pair@$$CBHUNPC_DATA_HELPER@@@std@@PAX@std@@@2@XZ ; std::_Tree<std::_Tmap_traits<int,NPC_DATA_HELPER,std::less<int>,std::allocator<std::pair<int const ,NPC_DATA_HELPER> >,0> >::_Getal
  00035	50		 push	 eax
  00036	e8 00 00 00 00	 call	 ??$_Buyheadnode@V?$allocator@U?$_Tree_node@U?$pair@$$CBHUNPC_DATA_HELPER@@@std@@PAX@std@@@std@@@?$_Tree_node@U?$pair@$$CBHUNPC_DATA_HELPER@@@std@@PAX@std@@SAPAU01@AAV?$allocator@U?$_Tree_node@U?$pair@$$CBHUNPC_DATA_HELPER@@@std@@PAX@std@@@1@@Z ; std::_Tree_node<std::pair<int const ,NPC_DATA_HELPER>,void *>::_Buyheadnode<std::allocator<std::_Tree_node<std::pair<int const ,NPC_DATA_HELPER>,void *> > >
  0003b	83 c4 04	 add	 esp, 4
  0003e	8b 4d f8	 mov	 ecx, DWORD PTR __Scary$[ebp]
  00041	89 01		 mov	 DWORD PTR [ecx], eax

; 2022 :         _Proxy._Release();

  00043	8d 4d f2	 lea	 ecx, DWORD PTR __Proxy$[ebp]
  00046	e8 00 00 00 00	 call	 ?_Release@_Fake_proxy_ptr_impl@std@@QAEXXZ ; std::_Fake_proxy_ptr_impl::_Release

; 2023 :     }

  0004b	5f		 pop	 edi
  0004c	5e		 pop	 esi
  0004d	5b		 pop	 ebx
  0004e	8b e5		 mov	 esp, ebp
  00050	5d		 pop	 ebp
  00051	c3		 ret	 0
?_Alloc_sentinel_and_proxy@?$_Tree@V?$_Tmap_traits@HUNPC_DATA_HELPER@@U?$less@H@std@@V?$allocator@U?$pair@$$CBHUNPC_DATA_HELPER@@@std@@@3@$0A@@std@@@std@@IAEXXZ ENDP ; std::_Tree<std::_Tmap_traits<int,NPC_DATA_HELPER,std::less<int>,std::allocator<std::pair<int const ,NPC_DATA_HELPER> >,0> >::_Alloc_sentinel_and_proxy
_TEXT	ENDS
; Function compile flags: /Odtp /ZI
; File C:\Program Files (x86)\Microsoft Visual Studio\2019\Community\VC\Tools\MSVC\14.27.29110\include\xtree
;	COMDAT ?_Check_grow_by_1@?$_Tree@V?$_Tmap_traits@HUNPC_DATA_HELPER@@U?$less@H@std@@V?$allocator@U?$pair@$$CBHUNPC_DATA_HELPER@@@std@@@3@$0A@@std@@@std@@IAEXXZ
_TEXT	SEGMENT
_this$ = -4						; size = 4
?_Check_grow_by_1@?$_Tree@V?$_Tmap_traits@HUNPC_DATA_HELPER@@U?$less@H@std@@V?$allocator@U?$pair@$$CBHUNPC_DATA_HELPER@@@std@@@3@$0A@@std@@@std@@IAEXXZ PROC ; std::_Tree<std::_Tmap_traits<int,NPC_DATA_HELPER,std::less<int>,std::allocator<std::pair<int const ,NPC_DATA_HELPER> >,0> >::_Check_grow_by_1, COMDAT
; _this$ = ecx

; 1718 :     void _Check_grow_by_1() {

  00000	55		 push	 ebp
  00001	8b ec		 mov	 ebp, esp
  00003	83 ec 44	 sub	 esp, 68			; 00000044H
  00006	53		 push	 ebx
  00007	56		 push	 esi
  00008	57		 push	 edi
  00009	89 4d fc	 mov	 DWORD PTR _this$[ebp], ecx

; 1719 :         if (max_size() == _Get_scary()->_Mysize) {

  0000c	8b 4d fc	 mov	 ecx, DWORD PTR _this$[ebp]
  0000f	e8 00 00 00 00	 call	 ?max_size@?$_Tree@V?$_Tmap_traits@HUNPC_DATA_HELPER@@U?$less@H@std@@V?$allocator@U?$pair@$$CBHUNPC_DATA_HELPER@@@std@@@3@$0A@@std@@@std@@QBEIXZ ; std::_Tree<std::_Tmap_traits<int,NPC_DATA_HELPER,std::less<int>,std::allocator<std::pair<int const ,NPC_DATA_HELPER> >,0> >::max_size
  00014	8b f0		 mov	 esi, eax
  00016	8b 4d fc	 mov	 ecx, DWORD PTR _this$[ebp]
  00019	e8 00 00 00 00	 call	 ?_Get_scary@?$_Tree@V?$_Tmap_traits@HUNPC_DATA_HELPER@@U?$less@H@std@@V?$allocator@U?$pair@$$CBHUNPC_DATA_HELPER@@@std@@@3@$0A@@std@@@std@@IAEPAV?$_Tree_val@U?$_Tree_simple_types@U?$pair@$$CBHUNPC_DATA_HELPER@@@std@@@std@@@2@XZ ; std::_Tree<std::_Tmap_traits<int,NPC_DATA_HELPER,std::less<int>,std::allocator<std::pair<int const ,NPC_DATA_HELPER> >,0> >::_Get_scary
  0001e	3b 70 04	 cmp	 esi, DWORD PTR [eax+4]
  00021	75 05		 jne	 SHORT $LN3@Check_grow

; 1720 :             _Throw_tree_length_error();

  00023	e8 00 00 00 00	 call	 ?_Throw_tree_length_error@std@@YAXXZ ; std::_Throw_tree_length_error
$LN3@Check_grow:

; 1721 :         }
; 1722 :     }

  00028	5f		 pop	 edi
  00029	5e		 pop	 esi
  0002a	5b		 pop	 ebx
  0002b	8b e5		 mov	 esp, ebp
  0002d	5d		 pop	 ebp
  0002e	c3		 ret	 0
?_Check_grow_by_1@?$_Tree@V?$_Tmap_traits@HUNPC_DATA_HELPER@@U?$less@H@std@@V?$allocator@U?$pair@$$CBHUNPC_DATA_HELPER@@@std@@@3@$0A@@std@@@std@@IAEXXZ ENDP ; std::_Tree<std::_Tmap_traits<int,NPC_DATA_HELPER,std::less<int>,std::allocator<std::pair<int const ,NPC_DATA_HELPER> >,0> >::_Check_grow_by_1
_TEXT	ENDS
; Function compile flags: /Odtp /ZI
; File C:\Program Files (x86)\Microsoft Visual Studio\2019\Community\VC\Tools\MSVC\14.27.29110\include\xtree
;	COMDAT ?find@?$_Tree@V?$_Tmap_traits@HUNPC_DATA_HELPER@@U?$less@H@std@@V?$allocator@U?$pair@$$CBHUNPC_DATA_HELPER@@@std@@@3@$0A@@std@@@std@@QAE?AV?$_Tree_iterator@V?$_Tree_val@U?$_Tree_simple_types@U?$pair@$$CBHUNPC_DATA_HELPER@@@std@@@std@@@std@@@2@ABH@Z
_TEXT	SEGMENT
_this$ = -4						; size = 4
___$ReturnUdt$ = 8					; size = 4
__Keyval$ = 12						; size = 4
?find@?$_Tree@V?$_Tmap_traits@HUNPC_DATA_HELPER@@U?$less@H@std@@V?$allocator@U?$pair@$$CBHUNPC_DATA_HELPER@@@std@@@3@$0A@@std@@@std@@QAE?AV?$_Tree_iterator@V?$_Tree_val@U?$_Tree_simple_types@U?$pair@$$CBHUNPC_DATA_HELPER@@@std@@@std@@@std@@@2@ABH@Z PROC ; std::_Tree<std::_Tmap_traits<int,NPC_DATA_HELPER,std::less<int>,std::allocator<std::pair<int const ,NPC_DATA_HELPER> >,0> >::find, COMDAT
; _this$ = ecx

; 1467 :     _NODISCARD iterator find(const key_type& _Keyval) {

  00000	55		 push	 ebp
  00001	8b ec		 mov	 ebp, esp
  00003	83 ec 44	 sub	 esp, 68			; 00000044H
  00006	53		 push	 ebx
  00007	56		 push	 esi
  00008	57		 push	 edi
  00009	89 4d fc	 mov	 DWORD PTR _this$[ebp], ecx

; 1468 :         return iterator(_Find(_Keyval), _Get_scary());

  0000c	8b 4d fc	 mov	 ecx, DWORD PTR _this$[ebp]
  0000f	e8 00 00 00 00	 call	 ?_Get_scary@?$_Tree@V?$_Tmap_traits@HUNPC_DATA_HELPER@@U?$less@H@std@@V?$allocator@U?$pair@$$CBHUNPC_DATA_HELPER@@@std@@@3@$0A@@std@@@std@@IAEPAV?$_Tree_val@U?$_Tree_simple_types@U?$pair@$$CBHUNPC_DATA_HELPER@@@std@@@std@@@2@XZ ; std::_Tree<std::_Tmap_traits<int,NPC_DATA_HELPER,std::less<int>,std::allocator<std::pair<int const ,NPC_DATA_HELPER> >,0> >::_Get_scary
  00014	50		 push	 eax
  00015	8b 45 0c	 mov	 eax, DWORD PTR __Keyval$[ebp]
  00018	50		 push	 eax
  00019	8b 4d fc	 mov	 ecx, DWORD PTR _this$[ebp]
  0001c	e8 00 00 00 00	 call	 ??$_Find@H@?$_Tree@V?$_Tmap_traits@HUNPC_DATA_HELPER@@U?$less@H@std@@V?$allocator@U?$pair@$$CBHUNPC_DATA_HELPER@@@std@@@3@$0A@@std@@@std@@ABEPAU?$_Tree_node@U?$pair@$$CBHUNPC_DATA_HELPER@@@std@@PAX@1@ABH@Z ; std::_Tree<std::_Tmap_traits<int,NPC_DATA_HELPER,std::less<int>,std::allocator<std::pair<int const ,NPC_DATA_HELPER> >,0> >::_Find<int>
  00021	50		 push	 eax
  00022	8b 4d 08	 mov	 ecx, DWORD PTR ___$ReturnUdt$[ebp]
  00025	e8 00 00 00 00	 call	 ??0?$_Tree_iterator@V?$_Tree_val@U?$_Tree_simple_types@U?$pair@$$CBHUNPC_DATA_HELPER@@@std@@@std@@@std@@@std@@QAE@PAU?$_Tree_node@U?$pair@$$CBHUNPC_DATA_HELPER@@@std@@PAX@1@PBV?$_Tree_val@U?$_Tree_simple_types@U?$pair@$$CBHUNPC_DATA_HELPER@@@std@@@std@@@1@@Z
  0002a	8b 45 08	 mov	 eax, DWORD PTR ___$ReturnUdt$[ebp]

; 1469 :     }

  0002d	5f		 pop	 edi
  0002e	5e		 pop	 esi
  0002f	5b		 pop	 ebx
  00030	8b e5		 mov	 esp, ebp
  00032	5d		 pop	 ebp
  00033	c2 08 00	 ret	 8
?find@?$_Tree@V?$_Tmap_traits@HUNPC_DATA_HELPER@@U?$less@H@std@@V?$allocator@U?$pair@$$CBHUNPC_DATA_HELPER@@@std@@@3@$0A@@std@@@std@@QAE?AV?$_Tree_iterator@V?$_Tree_val@U?$_Tree_simple_types@U?$pair@$$CBHUNPC_DATA_HELPER@@@std@@@std@@@std@@@2@ABH@Z ENDP ; std::_Tree<std::_Tmap_traits<int,NPC_DATA_HELPER,std::less<int>,std::allocator<std::pair<int const ,NPC_DATA_HELPER> >,0> >::find
_TEXT	ENDS
; Function compile flags: /Odtp /ZI
; File C:\Program Files (x86)\Microsoft Visual Studio\2019\Community\VC\Tools\MSVC\14.27.29110\include\xtree
;	COMDAT ?_Erase_unchecked@?$_Tree@V?$_Tmap_traits@HUNPC_DATA_HELPER@@U?$less@H@std@@V?$allocator@U?$pair@$$CBHUNPC_DATA_HELPER@@@std@@@3@$0A@@std@@@std@@AAEPAU?$_Tree_node@U?$pair@$$CBHUNPC_DATA_HELPER@@@std@@PAX@2@V?$_Tree_unchecked_const_iterator@V?$_Tree_val@U?$_Tree_simple_types@U?$pair@$$CBHUNPC_DATA_HELPER@@@std@@@std@@@std@@U_Iterator_base0@2@@2@@Z
_TEXT	SEGMENT
__Erasednode$ = -28					; size = 4
__Successor$ = -24					; size = 4
__Scary$ = -20						; size = 4
_this$ = -16						; size = 4
__$EHRec$ = -12						; size = 12
__Where$ = 8						; size = 4
?_Erase_unchecked@?$_Tree@V?$_Tmap_traits@HUNPC_DATA_HELPER@@U?$less@H@std@@V?$allocator@U?$pair@$$CBHUNPC_DATA_HELPER@@@std@@@3@$0A@@std@@@std@@AAEPAU?$_Tree_node@U?$pair@$$CBHUNPC_DATA_HELPER@@@std@@PAX@2@V?$_Tree_unchecked_const_iterator@V?$_Tree_val@U?$_Tree_simple_types@U?$pair@$$CBHUNPC_DATA_HELPER@@@std@@@std@@@std@@U_Iterator_base0@2@@2@@Z PROC ; std::_Tree<std::_Tmap_traits<int,NPC_DATA_HELPER,std::less<int>,std::allocator<std::pair<int const ,NPC_DATA_HELPER> >,0> >::_Erase_unchecked, COMDAT
; _this$ = ecx

; 1385 :     _Nodeptr _Erase_unchecked(_Unchecked_const_iterator _Where) noexcept {

  00000	55		 push	 ebp
  00001	8b ec		 mov	 ebp, esp
  00003	6a ff		 push	 -1
  00005	68 00 00 00 00	 push	 __ehhandler$?_Erase_unchecked@?$_Tree@V?$_Tmap_traits@HUNPC_DATA_HELPER@@U?$less@H@std@@V?$allocator@U?$pair@$$CBHUNPC_DATA_HELPER@@@std@@@3@$0A@@std@@@std@@AAEPAU?$_Tree_node@U?$pair@$$CBHUNPC_DATA_HELPER@@@std@@PAX@2@V?$_Tree_unchecked_const_iterator@V?$_Tree_val@U?$_Tree_simple_types@U?$pair@$$CBHUNPC_DATA_HELPER@@@std@@@std@@@std@@U_Iterator_base0@2@@2@@Z
  0000a	64 a1 00 00 00
	00		 mov	 eax, DWORD PTR fs:0
  00010	50		 push	 eax
  00011	83 ec 50	 sub	 esp, 80			; 00000050H
  00014	53		 push	 ebx
  00015	56		 push	 esi
  00016	57		 push	 edi
  00017	a1 00 00 00 00	 mov	 eax, DWORD PTR ___security_cookie
  0001c	33 c5		 xor	 eax, ebp
  0001e	50		 push	 eax
  0001f	8d 45 f4	 lea	 eax, DWORD PTR __$EHRec$[ebp]
  00022	64 a3 00 00 00
	00		 mov	 DWORD PTR fs:0, eax
  00028	89 4d f0	 mov	 DWORD PTR _this$[ebp], ecx

; 1386 :         const auto _Scary                    = _Get_scary();

  0002b	8b 4d f0	 mov	 ecx, DWORD PTR _this$[ebp]
  0002e	e8 00 00 00 00	 call	 ?_Get_scary@?$_Tree@V?$_Tmap_traits@HUNPC_DATA_HELPER@@U?$less@H@std@@V?$allocator@U?$pair@$$CBHUNPC_DATA_HELPER@@@std@@@3@$0A@@std@@@std@@IAEPAV?$_Tree_val@U?$_Tree_simple_types@U?$pair@$$CBHUNPC_DATA_HELPER@@@std@@@std@@@2@XZ ; std::_Tree<std::_Tmap_traits<int,NPC_DATA_HELPER,std::less<int>,std::allocator<std::pair<int const ,NPC_DATA_HELPER> >,0> >::_Get_scary
  00033	89 45 ec	 mov	 DWORD PTR __Scary$[ebp], eax

; 1387 :         _Unchecked_const_iterator _Successor = _Where;

  00036	8b 45 08	 mov	 eax, DWORD PTR __Where$[ebp]
  00039	89 45 e8	 mov	 DWORD PTR __Successor$[ebp], eax

; 1388 :         ++_Successor; // save successor iterator for return

  0003c	8d 4d e8	 lea	 ecx, DWORD PTR __Successor$[ebp]
  0003f	e8 00 00 00 00	 call	 ??E?$_Tree_unchecked_const_iterator@V?$_Tree_val@U?$_Tree_simple_types@U?$pair@$$CBHUNPC_DATA_HELPER@@@std@@@std@@@std@@U_Iterator_base0@2@@std@@QAEAAV01@XZ ; std::_Tree_unchecked_const_iterator<std::_Tree_val<std::_Tree_simple_types<std::pair<int const ,NPC_DATA_HELPER> > >,std::_Iterator_base0>::operator++

; 1389 :         _Nodeptr _Erasednode = _Scary->_Extract(_Where); // node to erase

  00044	8b 45 08	 mov	 eax, DWORD PTR __Where$[ebp]
  00047	50		 push	 eax
  00048	8b 4d ec	 mov	 ecx, DWORD PTR __Scary$[ebp]
  0004b	e8 00 00 00 00	 call	 ?_Extract@?$_Tree_val@U?$_Tree_simple_types@U?$pair@$$CBHUNPC_DATA_HELPER@@@std@@@std@@@std@@QAEPAU?$_Tree_node@U?$pair@$$CBHUNPC_DATA_HELPER@@@std@@PAX@2@V?$_Tree_unchecked_const_iterator@V?$_Tree_val@U?$_Tree_simple_types@U?$pair@$$CBHUNPC_DATA_HELPER@@@std@@@std@@@std@@U_Iterator_base0@2@@2@@Z ; std::_Tree_val<std::_Tree_simple_types<std::pair<int const ,NPC_DATA_HELPER> > >::_Extract
  00050	89 45 e4	 mov	 DWORD PTR __Erasednode$[ebp], eax

; 1390 :         _Scary->_Orphan_ptr(_Erasednode);

  00053	8b 45 e4	 mov	 eax, DWORD PTR __Erasednode$[ebp]
  00056	50		 push	 eax
  00057	8b 4d ec	 mov	 ecx, DWORD PTR __Scary$[ebp]
  0005a	e8 00 00 00 00	 call	 ?_Orphan_ptr@?$_Tree_val@U?$_Tree_simple_types@U?$pair@$$CBHUNPC_DATA_HELPER@@@std@@@std@@@std@@QAEXQAU?$_Tree_node@U?$pair@$$CBHUNPC_DATA_HELPER@@@std@@PAX@2@@Z ; std::_Tree_val<std::_Tree_simple_types<std::pair<int const ,NPC_DATA_HELPER> > >::_Orphan_ptr

; 1391 :         _Node::_Freenode(_Getal(), _Erasednode); // delete erased node

  0005f	8b 45 e4	 mov	 eax, DWORD PTR __Erasednode$[ebp]
  00062	50		 push	 eax
  00063	8b 4d f0	 mov	 ecx, DWORD PTR _this$[ebp]
  00066	e8 00 00 00 00	 call	 ?_Getal@?$_Tree@V?$_Tmap_traits@HUNPC_DATA_HELPER@@U?$less@H@std@@V?$allocator@U?$pair@$$CBHUNPC_DATA_HELPER@@@std@@@3@$0A@@std@@@std@@IAEAAV?$allocator@U?$_Tree_node@U?$pair@$$CBHUNPC_DATA_HELPER@@@std@@PAX@std@@@2@XZ ; std::_Tree<std::_Tmap_traits<int,NPC_DATA_HELPER,std::less<int>,std::allocator<std::pair<int const ,NPC_DATA_HELPER> >,0> >::_Getal
  0006b	50		 push	 eax
  0006c	e8 00 00 00 00	 call	 ??$_Freenode@V?$allocator@U?$_Tree_node@U?$pair@$$CBHUNPC_DATA_HELPER@@@std@@PAX@std@@@std@@@?$_Tree_node@U?$pair@$$CBHUNPC_DATA_HELPER@@@std@@PAX@std@@SAXAAV?$allocator@U?$_Tree_node@U?$pair@$$CBHUNPC_DATA_HELPER@@@std@@PAX@std@@@1@PAU01@@Z ; std::_Tree_node<std::pair<int const ,NPC_DATA_HELPER>,void *>::_Freenode<std::allocator<std::_Tree_node<std::pair<int const ,NPC_DATA_HELPER>,void *> > >
  00071	83 c4 08	 add	 esp, 8

; 1392 :         return _Successor._Ptr; // return successor nodeptr

  00074	8b 45 e8	 mov	 eax, DWORD PTR __Successor$[ebp]

; 1393 :     }

  00077	8b 4d f4	 mov	 ecx, DWORD PTR __$EHRec$[ebp]
  0007a	64 89 0d 00 00
	00 00		 mov	 DWORD PTR fs:0, ecx
  00081	59		 pop	 ecx
  00082	5f		 pop	 edi
  00083	5e		 pop	 esi
  00084	5b		 pop	 ebx
  00085	8b e5		 mov	 esp, ebp
  00087	5d		 pop	 ebp
  00088	c2 04 00	 ret	 4
  0008b	cc		 int	 3
  0008c	cc		 int	 3
  0008d	cc		 int	 3
  0008e	cc		 int	 3
  0008f	cc		 int	 3
_TEXT	ENDS
;	COMDAT text$x
text$x	SEGMENT
__ehhandler$?_Erase_unchecked@?$_Tree@V?$_Tmap_traits@HUNPC_DATA_HELPER@@U?$less@H@std@@V?$allocator@U?$pair@$$CBHUNPC_DATA_HELPER@@@std@@@3@$0A@@std@@@std@@AAEPAU?$_Tree_node@U?$pair@$$CBHUNPC_DATA_HELPER@@@std@@PAX@2@V?$_Tree_unchecked_const_iterator@V?$_Tree_val@U?$_Tree_simple_types@U?$pair@$$CBHUNPC_DATA_HELPER@@@std@@@std@@@std@@U_Iterator_base0@2@@2@@Z:
  00000	90		 npad	 1
  00001	90		 npad	 1
  00002	8b 54 24 08	 mov	 edx, DWORD PTR [esp+8]
  00006	8d 42 0c	 lea	 eax, DWORD PTR [edx+12]
  00009	8b 4a a0	 mov	 ecx, DWORD PTR [edx-96]
  0000c	33 c8		 xor	 ecx, eax
  0000e	e8 00 00 00 00	 call	 @__security_check_cookie@4
  00013	b8 00 00 00 00	 mov	 eax, OFFSET __ehfuncinfo$?_Erase_unchecked@?$_Tree@V?$_Tmap_traits@HUNPC_DATA_HELPER@@U?$less@H@std@@V?$allocator@U?$pair@$$CBHUNPC_DATA_HELPER@@@std@@@3@$0A@@std@@@std@@AAEPAU?$_Tree_node@U?$pair@$$CBHUNPC_DATA_HELPER@@@std@@PAX@2@V?$_Tree_unchecked_const_iterator@V?$_Tree_val@U?$_Tree_simple_types@U?$pair@$$CBHUNPC_DATA_HELPER@@@std@@@std@@@std@@U_Iterator_base0@2@@2@@Z
  00018	e9 00 00 00 00	 jmp	 ___CxxFrameHandler3
text$x	ENDS
?_Erase_unchecked@?$_Tree@V?$_Tmap_traits@HUNPC_DATA_HELPER@@U?$less@H@std@@V?$allocator@U?$pair@$$CBHUNPC_DATA_HELPER@@@std@@@3@$0A@@std@@@std@@AAEPAU?$_Tree_node@U?$pair@$$CBHUNPC_DATA_HELPER@@@std@@PAX@2@V?$_Tree_unchecked_const_iterator@V?$_Tree_val@U?$_Tree_simple_types@U?$pair@$$CBHUNPC_DATA_HELPER@@@std@@@std@@@std@@U_Iterator_base0@2@@2@@Z ENDP ; std::_Tree<std::_Tmap_traits<int,NPC_DATA_HELPER,std::less<int>,std::allocator<std::pair<int const ,NPC_DATA_HELPER> >,0> >::_Erase_unchecked
; Function compile flags: /Odtp /ZI
; File C:\Program Files (x86)\Microsoft Visual Studio\2019\Community\VC\Tools\MSVC\14.27.29110\include\xtree
;	COMDAT ?max_size@?$_Tree@V?$_Tmap_traits@HUNPC_DATA_HELPER@@U?$less@H@std@@V?$allocator@U?$pair@$$CBHUNPC_DATA_HELPER@@@std@@@3@$0A@@std@@@std@@QBEIXZ
_TEXT	SEGMENT
$T1 = -76						; size = 4
$T2 = -72						; size = 4
_this$ = -4						; size = 4
?max_size@?$_Tree@V?$_Tmap_traits@HUNPC_DATA_HELPER@@U?$less@H@std@@V?$allocator@U?$pair@$$CBHUNPC_DATA_HELPER@@@std@@@3@$0A@@std@@@std@@QBEIXZ PROC ; std::_Tree<std::_Tmap_traits<int,NPC_DATA_HELPER,std::less<int>,std::allocator<std::pair<int const ,NPC_DATA_HELPER> >,0> >::max_size, COMDAT
; _this$ = ecx

; 1310 :     _NODISCARD size_type max_size() const noexcept {

  00000	55		 push	 ebp
  00001	8b ec		 mov	 ebp, esp
  00003	83 ec 4c	 sub	 esp, 76			; 0000004cH
  00006	53		 push	 ebx
  00007	56		 push	 esi
  00008	57		 push	 edi
  00009	89 4d fc	 mov	 DWORD PTR _this$[ebp], ecx

; 1311 :         return (_STD min)(

  0000c	8b 4d fc	 mov	 ecx, DWORD PTR _this$[ebp]
  0000f	e8 00 00 00 00	 call	 ?_Getal@?$_Tree@V?$_Tmap_traits@HUNPC_DATA_HELPER@@U?$less@H@std@@V?$allocator@U?$pair@$$CBHUNPC_DATA_HELPER@@@std@@@3@$0A@@std@@@std@@IBEABV?$allocator@U?$_Tree_node@U?$pair@$$CBHUNPC_DATA_HELPER@@@std@@PAX@std@@@2@XZ ; std::_Tree<std::_Tmap_traits<int,NPC_DATA_HELPER,std::less<int>,std::allocator<std::pair<int const ,NPC_DATA_HELPER> >,0> >::_Getal
  00014	50		 push	 eax
  00015	e8 00 00 00 00	 call	 ?max_size@?$_Default_allocator_traits@V?$allocator@U?$_Tree_node@U?$pair@$$CBHUNPC_DATA_HELPER@@@std@@PAX@std@@@std@@@std@@SAIABV?$allocator@U?$_Tree_node@U?$pair@$$CBHUNPC_DATA_HELPER@@@std@@PAX@std@@@2@@Z ; std::_Default_allocator_traits<std::allocator<std::_Tree_node<std::pair<int const ,NPC_DATA_HELPER>,void *> > >::max_size
  0001a	83 c4 04	 add	 esp, 4
  0001d	89 45 b8	 mov	 DWORD PTR $T2[ebp], eax
  00020	e8 00 00 00 00	 call	 ?max@?$numeric_limits@H@std@@SAHXZ ; std::numeric_limits<int>::max
  00025	89 45 b4	 mov	 DWORD PTR $T1[ebp], eax
  00028	8d 45 b8	 lea	 eax, DWORD PTR $T2[ebp]
  0002b	50		 push	 eax
  0002c	8d 4d b4	 lea	 ecx, DWORD PTR $T1[ebp]
  0002f	51		 push	 ecx
  00030	e8 00 00 00 00	 call	 ??$min@I@std@@YAABIABI0@Z ; std::min<unsigned int>
  00035	83 c4 08	 add	 esp, 8
  00038	8b 00		 mov	 eax, DWORD PTR [eax]

; 1312 :             static_cast<size_type>((numeric_limits<difference_type>::max)()), _Alnode_traits::max_size(_Getal()));
; 1313 :     }

  0003a	5f		 pop	 edi
  0003b	5e		 pop	 esi
  0003c	5b		 pop	 ebx
  0003d	8b e5		 mov	 esp, ebp
  0003f	5d		 pop	 ebp
  00040	c3		 ret	 0
?max_size@?$_Tree@V?$_Tmap_traits@HUNPC_DATA_HELPER@@U?$less@H@std@@V?$allocator@U?$pair@$$CBHUNPC_DATA_HELPER@@@std@@@3@$0A@@std@@@std@@QBEIXZ ENDP ; std::_Tree<std::_Tmap_traits<int,NPC_DATA_HELPER,std::less<int>,std::allocator<std::pair<int const ,NPC_DATA_HELPER> >,0> >::max_size
_TEXT	ENDS
; Function compile flags: /Odtp /ZI
; File C:\Program Files (x86)\Microsoft Visual Studio\2019\Community\VC\Tools\MSVC\14.27.29110\include\xtree
;	COMDAT ?size@?$_Tree@V?$_Tmap_traits@HUNPC_DATA_HELPER@@U?$less@H@std@@V?$allocator@U?$pair@$$CBHUNPC_DATA_HELPER@@@std@@@3@$0A@@std@@@std@@QBEIXZ
_TEXT	SEGMENT
_this$ = -4						; size = 4
?size@?$_Tree@V?$_Tmap_traits@HUNPC_DATA_HELPER@@U?$less@H@std@@V?$allocator@U?$pair@$$CBHUNPC_DATA_HELPER@@@std@@@3@$0A@@std@@@std@@QBEIXZ PROC ; std::_Tree<std::_Tmap_traits<int,NPC_DATA_HELPER,std::less<int>,std::allocator<std::pair<int const ,NPC_DATA_HELPER> >,0> >::size, COMDAT
; _this$ = ecx

; 1306 :     _NODISCARD size_type size() const noexcept {

  00000	55		 push	 ebp
  00001	8b ec		 mov	 ebp, esp
  00003	83 ec 44	 sub	 esp, 68			; 00000044H
  00006	53		 push	 ebx
  00007	56		 push	 esi
  00008	57		 push	 edi
  00009	89 4d fc	 mov	 DWORD PTR _this$[ebp], ecx

; 1307 :         return _Get_scary()->_Mysize;

  0000c	8b 4d fc	 mov	 ecx, DWORD PTR _this$[ebp]
  0000f	e8 00 00 00 00	 call	 ?_Get_scary@?$_Tree@V?$_Tmap_traits@HUNPC_DATA_HELPER@@U?$less@H@std@@V?$allocator@U?$pair@$$CBHUNPC_DATA_HELPER@@@std@@@3@$0A@@std@@@std@@IBEPBV?$_Tree_val@U?$_Tree_simple_types@U?$pair@$$CBHUNPC_DATA_HELPER@@@std@@@std@@@2@XZ ; std::_Tree<std::_Tmap_traits<int,NPC_DATA_HELPER,std::less<int>,std::allocator<std::pair<int const ,NPC_DATA_HELPER> >,0> >::_Get_scary
  00014	8b 40 04	 mov	 eax, DWORD PTR [eax+4]

; 1308 :     }

  00017	5f		 pop	 edi
  00018	5e		 pop	 esi
  00019	5b		 pop	 ebx
  0001a	8b e5		 mov	 esp, ebp
  0001c	5d		 pop	 ebp
  0001d	c3		 ret	 0
?size@?$_Tree@V?$_Tmap_traits@HUNPC_DATA_HELPER@@U?$less@H@std@@V?$allocator@U?$pair@$$CBHUNPC_DATA_HELPER@@@std@@@3@$0A@@std@@@std@@QBEIXZ ENDP ; std::_Tree<std::_Tmap_traits<int,NPC_DATA_HELPER,std::less<int>,std::allocator<std::pair<int const ,NPC_DATA_HELPER> >,0> >::size
_TEXT	ENDS
; Function compile flags: /Odtp /ZI
; File C:\Program Files (x86)\Microsoft Visual Studio\2019\Community\VC\Tools\MSVC\14.27.29110\include\xtree
;	COMDAT ?end@?$_Tree@V?$_Tmap_traits@HUNPC_DATA_HELPER@@U?$less@H@std@@V?$allocator@U?$pair@$$CBHUNPC_DATA_HELPER@@@std@@@3@$0A@@std@@@std@@QAE?AV?$_Tree_iterator@V?$_Tree_val@U?$_Tree_simple_types@U?$pair@$$CBHUNPC_DATA_HELPER@@@std@@@std@@@std@@@2@XZ
_TEXT	SEGMENT
__Scary$ = -8						; size = 4
_this$ = -4						; size = 4
___$ReturnUdt$ = 8					; size = 4
?end@?$_Tree@V?$_Tmap_traits@HUNPC_DATA_HELPER@@U?$less@H@std@@V?$allocator@U?$pair@$$CBHUNPC_DATA_HELPER@@@std@@@3@$0A@@std@@@std@@QAE?AV?$_Tree_iterator@V?$_Tree_val@U?$_Tree_simple_types@U?$pair@$$CBHUNPC_DATA_HELPER@@@std@@@std@@@std@@@2@XZ PROC ; std::_Tree<std::_Tmap_traits<int,NPC_DATA_HELPER,std::less<int>,std::allocator<std::pair<int const ,NPC_DATA_HELPER> >,0> >::end, COMDAT
; _this$ = ecx

; 1248 :     _NODISCARD iterator end() noexcept {

  00000	55		 push	 ebp
  00001	8b ec		 mov	 ebp, esp
  00003	83 ec 48	 sub	 esp, 72			; 00000048H
  00006	53		 push	 ebx
  00007	56		 push	 esi
  00008	57		 push	 edi
  00009	89 4d fc	 mov	 DWORD PTR _this$[ebp], ecx

; 1249 :         const auto _Scary = _Get_scary();

  0000c	8b 4d fc	 mov	 ecx, DWORD PTR _this$[ebp]
  0000f	e8 00 00 00 00	 call	 ?_Get_scary@?$_Tree@V?$_Tmap_traits@HUNPC_DATA_HELPER@@U?$less@H@std@@V?$allocator@U?$pair@$$CBHUNPC_DATA_HELPER@@@std@@@3@$0A@@std@@@std@@IAEPAV?$_Tree_val@U?$_Tree_simple_types@U?$pair@$$CBHUNPC_DATA_HELPER@@@std@@@std@@@2@XZ ; std::_Tree<std::_Tmap_traits<int,NPC_DATA_HELPER,std::less<int>,std::allocator<std::pair<int const ,NPC_DATA_HELPER> >,0> >::_Get_scary
  00014	89 45 f8	 mov	 DWORD PTR __Scary$[ebp], eax

; 1250 :         return iterator(_Scary->_Myhead, _Scary);

  00017	8b 45 f8	 mov	 eax, DWORD PTR __Scary$[ebp]
  0001a	50		 push	 eax
  0001b	8b 4d f8	 mov	 ecx, DWORD PTR __Scary$[ebp]
  0001e	8b 11		 mov	 edx, DWORD PTR [ecx]
  00020	52		 push	 edx
  00021	8b 4d 08	 mov	 ecx, DWORD PTR ___$ReturnUdt$[ebp]
  00024	e8 00 00 00 00	 call	 ??0?$_Tree_iterator@V?$_Tree_val@U?$_Tree_simple_types@U?$pair@$$CBHUNPC_DATA_HELPER@@@std@@@std@@@std@@@std@@QAE@PAU?$_Tree_node@U?$pair@$$CBHUNPC_DATA_HELPER@@@std@@PAX@1@PBV?$_Tree_val@U?$_Tree_simple_types@U?$pair@$$CBHUNPC_DATA_HELPER@@@std@@@std@@@1@@Z
  00029	8b 45 08	 mov	 eax, DWORD PTR ___$ReturnUdt$[ebp]

; 1251 :     }

  0002c	5f		 pop	 edi
  0002d	5e		 pop	 esi
  0002e	5b		 pop	 ebx
  0002f	8b e5		 mov	 esp, ebp
  00031	5d		 pop	 ebp
  00032	c2 04 00	 ret	 4
?end@?$_Tree@V?$_Tmap_traits@HUNPC_DATA_HELPER@@U?$less@H@std@@V?$allocator@U?$pair@$$CBHUNPC_DATA_HELPER@@@std@@@3@$0A@@std@@@std@@QAE?AV?$_Tree_iterator@V?$_Tree_val@U?$_Tree_simple_types@U?$pair@$$CBHUNPC_DATA_HELPER@@@std@@@std@@@std@@@2@XZ ENDP ; std::_Tree<std::_Tmap_traits<int,NPC_DATA_HELPER,std::less<int>,std::allocator<std::pair<int const ,NPC_DATA_HELPER> >,0> >::end
_TEXT	ENDS
; Function compile flags: /Odtp /ZI
; File C:\Program Files (x86)\Microsoft Visual Studio\2019\Community\VC\Tools\MSVC\14.27.29110\include\xtree
;	COMDAT ?begin@?$_Tree@V?$_Tmap_traits@HUNPC_DATA_HELPER@@U?$less@H@std@@V?$allocator@U?$pair@$$CBHUNPC_DATA_HELPER@@@std@@@3@$0A@@std@@@std@@QAE?AV?$_Tree_iterator@V?$_Tree_val@U?$_Tree_simple_types@U?$pair@$$CBHUNPC_DATA_HELPER@@@std@@@std@@@std@@@2@XZ
_TEXT	SEGMENT
__Scary$ = -8						; size = 4
_this$ = -4						; size = 4
___$ReturnUdt$ = 8					; size = 4
?begin@?$_Tree@V?$_Tmap_traits@HUNPC_DATA_HELPER@@U?$less@H@std@@V?$allocator@U?$pair@$$CBHUNPC_DATA_HELPER@@@std@@@3@$0A@@std@@@std@@QAE?AV?$_Tree_iterator@V?$_Tree_val@U?$_Tree_simple_types@U?$pair@$$CBHUNPC_DATA_HELPER@@@std@@@std@@@std@@@2@XZ PROC ; std::_Tree<std::_Tmap_traits<int,NPC_DATA_HELPER,std::less<int>,std::allocator<std::pair<int const ,NPC_DATA_HELPER> >,0> >::begin, COMDAT
; _this$ = ecx

; 1238 :     _NODISCARD iterator begin() noexcept {

  00000	55		 push	 ebp
  00001	8b ec		 mov	 ebp, esp
  00003	83 ec 48	 sub	 esp, 72			; 00000048H
  00006	53		 push	 ebx
  00007	56		 push	 esi
  00008	57		 push	 edi
  00009	89 4d fc	 mov	 DWORD PTR _this$[ebp], ecx

; 1239 :         const auto _Scary = _Get_scary();

  0000c	8b 4d fc	 mov	 ecx, DWORD PTR _this$[ebp]
  0000f	e8 00 00 00 00	 call	 ?_Get_scary@?$_Tree@V?$_Tmap_traits@HUNPC_DATA_HELPER@@U?$less@H@std@@V?$allocator@U?$pair@$$CBHUNPC_DATA_HELPER@@@std@@@3@$0A@@std@@@std@@IAEPAV?$_Tree_val@U?$_Tree_simple_types@U?$pair@$$CBHUNPC_DATA_HELPER@@@std@@@std@@@2@XZ ; std::_Tree<std::_Tmap_traits<int,NPC_DATA_HELPER,std::less<int>,std::allocator<std::pair<int const ,NPC_DATA_HELPER> >,0> >::_Get_scary
  00014	89 45 f8	 mov	 DWORD PTR __Scary$[ebp], eax

; 1240 :         return iterator(_Scary->_Myhead->_Left, _Scary);

  00017	8b 45 f8	 mov	 eax, DWORD PTR __Scary$[ebp]
  0001a	50		 push	 eax
  0001b	8b 4d f8	 mov	 ecx, DWORD PTR __Scary$[ebp]
  0001e	8b 11		 mov	 edx, DWORD PTR [ecx]
  00020	8b 02		 mov	 eax, DWORD PTR [edx]
  00022	50		 push	 eax
  00023	8b 4d 08	 mov	 ecx, DWORD PTR ___$ReturnUdt$[ebp]
  00026	e8 00 00 00 00	 call	 ??0?$_Tree_iterator@V?$_Tree_val@U?$_Tree_simple_types@U?$pair@$$CBHUNPC_DATA_HELPER@@@std@@@std@@@std@@@std@@QAE@PAU?$_Tree_node@U?$pair@$$CBHUNPC_DATA_HELPER@@@std@@PAX@1@PBV?$_Tree_val@U?$_Tree_simple_types@U?$pair@$$CBHUNPC_DATA_HELPER@@@std@@@std@@@1@@Z
  0002b	8b 45 08	 mov	 eax, DWORD PTR ___$ReturnUdt$[ebp]

; 1241 :     }

  0002e	5f		 pop	 edi
  0002f	5e		 pop	 esi
  00030	5b		 pop	 ebx
  00031	8b e5		 mov	 esp, ebp
  00033	5d		 pop	 ebp
  00034	c2 04 00	 ret	 4
?begin@?$_Tree@V?$_Tmap_traits@HUNPC_DATA_HELPER@@U?$less@H@std@@V?$allocator@U?$pair@$$CBHUNPC_DATA_HELPER@@@std@@@3@$0A@@std@@@std@@QAE?AV?$_Tree_iterator@V?$_Tree_val@U?$_Tree_simple_types@U?$pair@$$CBHUNPC_DATA_HELPER@@@std@@@std@@@std@@@2@XZ ENDP ; std::_Tree<std::_Tmap_traits<int,NPC_DATA_HELPER,std::less<int>,std::allocator<std::pair<int const ,NPC_DATA_HELPER> >,0> >::begin
_TEXT	ENDS
; Function compile flags: /Odtp /ZI
; File C:\Program Files (x86)\Microsoft Visual Studio\2019\Community\VC\Tools\MSVC\14.27.29110\include\xtree
;	COMDAT ??1?$_Tree@V?$_Tmap_traits@HUNPC_DATA_HELPER@@U?$less@H@std@@V?$allocator@U?$pair@$$CBHUNPC_DATA_HELPER@@@std@@@3@$0A@@std@@@std@@QAE@XZ
_TEXT	SEGMENT
__Scary$ = -8						; size = 4
_this$ = -4						; size = 4
??1?$_Tree@V?$_Tmap_traits@HUNPC_DATA_HELPER@@U?$less@H@std@@V?$allocator@U?$pair@$$CBHUNPC_DATA_HELPER@@@std@@@3@$0A@@std@@@std@@QAE@XZ PROC ; std::_Tree<std::_Tmap_traits<int,NPC_DATA_HELPER,std::less<int>,std::allocator<std::pair<int const ,NPC_DATA_HELPER> >,0> >::~_Tree<std::_Tmap_traits<int,NPC_DATA_HELPER,std::less<int>,std::allocator<std::pair<int const ,NPC_DATA_HELPER> >,0> >, COMDAT
; _this$ = ecx

; 1189 :     ~_Tree() noexcept {

  00000	55		 push	 ebp
  00001	8b ec		 mov	 ebp, esp
  00003	83 ec 48	 sub	 esp, 72			; 00000048H
  00006	53		 push	 ebx
  00007	56		 push	 esi
  00008	57		 push	 edi
  00009	89 4d fc	 mov	 DWORD PTR _this$[ebp], ecx

; 1190 :         const auto _Scary = _Get_scary();

  0000c	8b 4d fc	 mov	 ecx, DWORD PTR _this$[ebp]
  0000f	e8 00 00 00 00	 call	 ?_Get_scary@?$_Tree@V?$_Tmap_traits@HUNPC_DATA_HELPER@@U?$less@H@std@@V?$allocator@U?$pair@$$CBHUNPC_DATA_HELPER@@@std@@@3@$0A@@std@@@std@@IAEPAV?$_Tree_val@U?$_Tree_simple_types@U?$pair@$$CBHUNPC_DATA_HELPER@@@std@@@std@@@2@XZ ; std::_Tree<std::_Tmap_traits<int,NPC_DATA_HELPER,std::less<int>,std::allocator<std::pair<int const ,NPC_DATA_HELPER> >,0> >::_Get_scary
  00014	89 45 f8	 mov	 DWORD PTR __Scary$[ebp], eax

; 1191 :         _Scary->_Erase_head(_Getal());

  00017	8b 4d fc	 mov	 ecx, DWORD PTR _this$[ebp]
  0001a	e8 00 00 00 00	 call	 ?_Getal@?$_Tree@V?$_Tmap_traits@HUNPC_DATA_HELPER@@U?$less@H@std@@V?$allocator@U?$pair@$$CBHUNPC_DATA_HELPER@@@std@@@3@$0A@@std@@@std@@IAEAAV?$allocator@U?$_Tree_node@U?$pair@$$CBHUNPC_DATA_HELPER@@@std@@PAX@std@@@2@XZ ; std::_Tree<std::_Tmap_traits<int,NPC_DATA_HELPER,std::less<int>,std::allocator<std::pair<int const ,NPC_DATA_HELPER> >,0> >::_Getal
  0001f	50		 push	 eax
  00020	8b 4d f8	 mov	 ecx, DWORD PTR __Scary$[ebp]
  00023	e8 00 00 00 00	 call	 ??$_Erase_head@V?$allocator@U?$_Tree_node@U?$pair@$$CBHUNPC_DATA_HELPER@@@std@@PAX@std@@@std@@@?$_Tree_val@U?$_Tree_simple_types@U?$pair@$$CBHUNPC_DATA_HELPER@@@std@@@std@@@std@@QAEXAAV?$allocator@U?$_Tree_node@U?$pair@$$CBHUNPC_DATA_HELPER@@@std@@PAX@std@@@1@@Z ; std::_Tree_val<std::_Tree_simple_types<std::pair<int const ,NPC_DATA_HELPER> > >::_Erase_head<std::allocator<std::_Tree_node<std::pair<int const ,NPC_DATA_HELPER>,void *> > >

; 1192 : #if _ITERATOR_DEBUG_LEVEL != 0 // TRANSITION, ABI
; 1193 :         auto&& _Alproxy = _GET_PROXY_ALLOCATOR(_Alnode, _Getal());
; 1194 :         _Delete_plain_internal(_Alproxy, _Scary->_Myproxy);
; 1195 : #endif // _ITERATOR_DEBUG_LEVEL != 0
; 1196 :     }

  00028	5f		 pop	 edi
  00029	5e		 pop	 esi
  0002a	5b		 pop	 ebx
  0002b	8b e5		 mov	 esp, ebp
  0002d	5d		 pop	 ebp
  0002e	c3		 ret	 0
??1?$_Tree@V?$_Tmap_traits@HUNPC_DATA_HELPER@@U?$less@H@std@@V?$allocator@U?$pair@$$CBHUNPC_DATA_HELPER@@@std@@@3@$0A@@std@@@std@@QAE@XZ ENDP ; std::_Tree<std::_Tmap_traits<int,NPC_DATA_HELPER,std::less<int>,std::allocator<std::pair<int const ,NPC_DATA_HELPER> >,0> >::~_Tree<std::_Tmap_traits<int,NPC_DATA_HELPER,std::less<int>,std::allocator<std::pair<int const ,NPC_DATA_HELPER> >,0> >
_TEXT	ENDS
; Function compile flags: /Odtp /ZI
; File C:\Program Files (x86)\Microsoft Visual Studio\2019\Community\VC\Tools\MSVC\14.27.29110\include\xtree
;	COMDAT ??0?$_Tree@V?$_Tmap_traits@HUNPC_DATA_HELPER@@U?$less@H@std@@V?$allocator@U?$pair@$$CBHUNPC_DATA_HELPER@@@std@@@3@$0A@@std@@@std@@QAE@ABU?$less@H@1@@Z
_TEXT	SEGMENT
$T1 = -70						; size = 1
$T2 = -69						; size = 1
_this$ = -4						; size = 4
__Parg$ = 8						; size = 4
??0?$_Tree@V?$_Tmap_traits@HUNPC_DATA_HELPER@@U?$less@H@std@@V?$allocator@U?$pair@$$CBHUNPC_DATA_HELPER@@@std@@@3@$0A@@std@@@std@@QAE@ABU?$less@H@1@@Z PROC ; std::_Tree<std::_Tmap_traits<int,NPC_DATA_HELPER,std::less<int>,std::allocator<std::pair<int const ,NPC_DATA_HELPER> >,0> >::_Tree<std::_Tmap_traits<int,NPC_DATA_HELPER,std::less<int>,std::allocator<std::pair<int const ,NPC_DATA_HELPER> >,0> >, COMDAT
; _this$ = ecx

; 885  :     _Tree(const key_compare& _Parg) : _Mypair(_One_then_variadic_args_t{}, _Parg, _Zero_then_variadic_args_t{}) {

  00000	55		 push	 ebp
  00001	8b ec		 mov	 ebp, esp
  00003	83 ec 48	 sub	 esp, 72			; 00000048H
  00006	53		 push	 ebx
  00007	56		 push	 esi
  00008	57		 push	 edi
  00009	89 4d fc	 mov	 DWORD PTR _this$[ebp], ecx
  0000c	8d 45 bb	 lea	 eax, DWORD PTR $T2[ebp]
  0000f	50		 push	 eax
  00010	8b 4d 08	 mov	 ecx, DWORD PTR __Parg$[ebp]
  00013	51		 push	 ecx
  00014	0f b6 55 ba	 movzx	 edx, BYTE PTR $T1[ebp]
  00018	52		 push	 edx
  00019	8b 4d fc	 mov	 ecx, DWORD PTR _this$[ebp]
  0001c	e8 00 00 00 00	 call	 ??$?0ABU?$less@H@std@@U_Zero_then_variadic_args_t@1@@?$_Compressed_pair@U?$less@H@std@@V?$_Compressed_pair@V?$allocator@U?$_Tree_node@U?$pair@$$CBHUNPC_DATA_HELPER@@@std@@PAX@std@@@std@@V?$_Tree_val@U?$_Tree_simple_types@U?$pair@$$CBHUNPC_DATA_HELPER@@@std@@@std@@@2@$00@2@$00@std@@QAE@U_One_then_variadic_args_t@1@ABU?$less@H@1@$$QAU_Zero_then_variadic_args_t@1@@Z ; std::_Compressed_pair<std::less<int>,std::_Compressed_pair<std::allocator<std::_Tree_node<std::pair<int const ,NPC_DATA_HELPER>,void *> >,std::_Tree_val<std::_Tree_simple_types<std::pair<int const ,NPC_DATA_HELPER> > >,1>,1>::_Compressed_pair<std::less<int>,std::_Compressed_pair<std::allocator<std::_Tree_node<std::pair<int const ,NPC_DATA_HELPER>,void *> >,std::_Tree_val<std::_Tree_simple_types<std::pair<int const ,NPC_DATA_HELPER> > >,1>,1><std::less<int> const &,std::_Zero_then_variadic_args_t>

; 886  :         _Alloc_sentinel_and_proxy();

  00021	8b 4d fc	 mov	 ecx, DWORD PTR _this$[ebp]
  00024	e8 00 00 00 00	 call	 ?_Alloc_sentinel_and_proxy@?$_Tree@V?$_Tmap_traits@HUNPC_DATA_HELPER@@U?$less@H@std@@V?$allocator@U?$pair@$$CBHUNPC_DATA_HELPER@@@std@@@3@$0A@@std@@@std@@IAEXXZ ; std::_Tree<std::_Tmap_traits<int,NPC_DATA_HELPER,std::less<int>,std::allocator<std::pair<int const ,NPC_DATA_HELPER> >,0> >::_Alloc_sentinel_and_proxy

; 887  :     }

  00029	8b 45 fc	 mov	 eax, DWORD PTR _this$[ebp]
  0002c	5f		 pop	 edi
  0002d	5e		 pop	 esi
  0002e	5b		 pop	 ebx
  0002f	8b e5		 mov	 esp, ebp
  00031	5d		 pop	 ebp
  00032	c2 04 00	 ret	 4
??0?$_Tree@V?$_Tmap_traits@HUNPC_DATA_HELPER@@U?$less@H@std@@V?$allocator@U?$pair@$$CBHUNPC_DATA_HELPER@@@std@@@3@$0A@@std@@@std@@QAE@ABU?$less@H@1@@Z ENDP ; std::_Tree<std::_Tmap_traits<int,NPC_DATA_HELPER,std::less<int>,std::allocator<std::pair<int const ,NPC_DATA_HELPER> >,0> >::_Tree<std::_Tmap_traits<int,NPC_DATA_HELPER,std::less<int>,std::allocator<std::pair<int const ,NPC_DATA_HELPER> >,0> >
_TEXT	ENDS
; Function compile flags: /Odtp /ZI
; File C:\Program Files (x86)\Microsoft Visual Studio\2019\Community\VC\Tools\MSVC\14.27.29110\include\xmemory
;	COMDAT ?max_size@?$_Default_allocator_traits@V?$allocator@U?$_Tree_node@U?$pair@$$CBHUNPC_DATA_HELPER@@@std@@PAX@std@@@std@@@std@@SAIABV?$allocator@U?$_Tree_node@U?$pair@$$CBHUNPC_DATA_HELPER@@@std@@PAX@std@@@2@@Z
_TEXT	SEGMENT
___formal$ = 8						; size = 4
?max_size@?$_Default_allocator_traits@V?$allocator@U?$_Tree_node@U?$pair@$$CBHUNPC_DATA_HELPER@@@std@@PAX@std@@@std@@@std@@SAIABV?$allocator@U?$_Tree_node@U?$pair@$$CBHUNPC_DATA_HELPER@@@std@@PAX@std@@@2@@Z PROC ; std::_Default_allocator_traits<std::allocator<std::_Tree_node<std::pair<int const ,NPC_DATA_HELPER>,void *> > >::max_size, COMDAT

; 702  :     _NODISCARD static size_type max_size(const _Alloc&) noexcept {

  00000	55		 push	 ebp
  00001	8b ec		 mov	 ebp, esp
  00003	83 ec 40	 sub	 esp, 64			; 00000040H
  00006	53		 push	 ebx
  00007	56		 push	 esi
  00008	57		 push	 edi

; 703  :         return static_cast<size_t>(-1) / sizeof(value_type);

  00009	b8 66 66 66 06	 mov	 eax, 107374182		; 06666666H

; 704  :     }

  0000e	5f		 pop	 edi
  0000f	5e		 pop	 esi
  00010	5b		 pop	 ebx
  00011	8b e5		 mov	 esp, ebp
  00013	5d		 pop	 ebp
  00014	c3		 ret	 0
?max_size@?$_Default_allocator_traits@V?$allocator@U?$_Tree_node@U?$pair@$$CBHUNPC_DATA_HELPER@@@std@@PAX@std@@@std@@@std@@SAIABV?$allocator@U?$_Tree_node@U?$pair@$$CBHUNPC_DATA_HELPER@@@std@@PAX@std@@@2@@Z ENDP ; std::_Default_allocator_traits<std::allocator<std::_Tree_node<std::pair<int const ,NPC_DATA_HELPER>,void *> > >::max_size
_TEXT	ENDS
; Function compile flags: /Odtp /ZI
; File C:\Program Files (x86)\Microsoft Visual Studio\2019\Community\VC\Tools\MSVC\14.27.29110\include\xmemory
;	COMDAT ?deallocate@?$_Default_allocator_traits@V?$allocator@U?$_Tree_node@U?$pair@$$CBHUNPC_DATA_HELPER@@@std@@PAX@std@@@std@@@std@@SAXAAV?$allocator@U?$_Tree_node@U?$pair@$$CBHUNPC_DATA_HELPER@@@std@@PAX@std@@@2@QAU?$_Tree_node@U?$pair@$$CBHUNPC_DATA_HELPER@@@std@@PAX@2@I@Z
_TEXT	SEGMENT
___formal$ = 8						; size = 4
__Ptr$ = 12						; size = 4
__Count$ = 16						; size = 4
?deallocate@?$_Default_allocator_traits@V?$allocator@U?$_Tree_node@U?$pair@$$CBHUNPC_DATA_HELPER@@@std@@PAX@std@@@std@@@std@@SAXAAV?$allocator@U?$_Tree_node@U?$pair@$$CBHUNPC_DATA_HELPER@@@std@@PAX@std@@@2@QAU?$_Tree_node@U?$pair@$$CBHUNPC_DATA_HELPER@@@std@@PAX@2@I@Z PROC ; std::_Default_allocator_traits<std::allocator<std::_Tree_node<std::pair<int const ,NPC_DATA_HELPER>,void *> > >::deallocate, COMDAT

; 687  :     static void deallocate(_Alloc&, const pointer _Ptr, const size_type _Count) {

  00000	55		 push	 ebp
  00001	8b ec		 mov	 ebp, esp
  00003	83 ec 40	 sub	 esp, 64			; 00000040H
  00006	53		 push	 ebx
  00007	56		 push	 esi
  00008	57		 push	 edi

; 688  :         // no overflow check on the following multiply; we assume _Allocate did that check
; 689  :         _Deallocate<_New_alignof<value_type>>(_Ptr, sizeof(value_type) * _Count);

  00009	6b 45 10 28	 imul	 eax, DWORD PTR __Count$[ebp], 40
  0000d	50		 push	 eax
  0000e	8b 4d 0c	 mov	 ecx, DWORD PTR __Ptr$[ebp]
  00011	51		 push	 ecx
  00012	e8 00 00 00 00	 call	 ??$_Deallocate@$07$0A@@std@@YAXPAXI@Z ; std::_Deallocate<8,0>
  00017	83 c4 08	 add	 esp, 8

; 690  :     }

  0001a	5f		 pop	 edi
  0001b	5e		 pop	 esi
  0001c	5b		 pop	 ebx
  0001d	8b e5		 mov	 esp, ebp
  0001f	5d		 pop	 ebp
  00020	c3		 ret	 0
?deallocate@?$_Default_allocator_traits@V?$allocator@U?$_Tree_node@U?$pair@$$CBHUNPC_DATA_HELPER@@@std@@PAX@std@@@std@@@std@@SAXAAV?$allocator@U?$_Tree_node@U?$pair@$$CBHUNPC_DATA_HELPER@@@std@@PAX@std@@@2@QAU?$_Tree_node@U?$pair@$$CBHUNPC_DATA_HELPER@@@std@@PAX@2@I@Z ENDP ; std::_Default_allocator_traits<std::allocator<std::_Tree_node<std::pair<int const ,NPC_DATA_HELPER>,void *> > >::deallocate
_TEXT	ENDS
; Function compile flags: /Odtp /ZI
; File C:\Program Files (x86)\Microsoft Visual Studio\2019\Community\VC\Tools\MSVC\14.27.29110\include\xmemory
;	COMDAT ?allocate@?$allocator@U?$_Tree_node@U?$pair@$$CBHUNPC_DATA_HELPER@@@std@@PAX@std@@@std@@QAEPAU?$_Tree_node@U?$pair@$$CBHUNPC_DATA_HELPER@@@std@@PAX@2@I@Z
_TEXT	SEGMENT
_this$ = -4						; size = 4
__Count$ = 8						; size = 4
?allocate@?$allocator@U?$_Tree_node@U?$pair@$$CBHUNPC_DATA_HELPER@@@std@@PAX@std@@@std@@QAEPAU?$_Tree_node@U?$pair@$$CBHUNPC_DATA_HELPER@@@std@@PAX@2@I@Z PROC ; std::allocator<std::_Tree_node<std::pair<int const ,NPC_DATA_HELPER>,void *> >::allocate, COMDAT
; _this$ = ecx

; 806  :     _NODISCARD __declspec(allocator) _Ty* allocate(_CRT_GUARDOVERFLOW const size_t _Count) {

  00000	55		 push	 ebp
  00001	8b ec		 mov	 ebp, esp
  00003	83 ec 44	 sub	 esp, 68			; 00000044H
  00006	53		 push	 ebx
  00007	56		 push	 esi
  00008	57		 push	 edi
  00009	89 4d fc	 mov	 DWORD PTR _this$[ebp], ecx

; 807  :         return static_cast<_Ty*>(_Allocate<_New_alignof<_Ty>>(_Get_size_of_n<sizeof(_Ty)>(_Count)));

  0000c	8b 45 08	 mov	 eax, DWORD PTR __Count$[ebp]
  0000f	50		 push	 eax
  00010	e8 00 00 00 00	 call	 ??$_Get_size_of_n@$0CI@@std@@YAII@Z ; std::_Get_size_of_n<40>
  00015	83 c4 04	 add	 esp, 4
  00018	50		 push	 eax
  00019	e8 00 00 00 00	 call	 ??$_Allocate@$07U_Default_allocate_traits@std@@$0A@@std@@YAPAXI@Z ; std::_Allocate<8,std::_Default_allocate_traits,0>
  0001e	83 c4 04	 add	 esp, 4

; 808  :     }

  00021	5f		 pop	 edi
  00022	5e		 pop	 esi
  00023	5b		 pop	 ebx
  00024	8b e5		 mov	 esp, ebp
  00026	5d		 pop	 ebp
  00027	c2 04 00	 ret	 4
?allocate@?$allocator@U?$_Tree_node@U?$pair@$$CBHUNPC_DATA_HELPER@@@std@@PAX@std@@@std@@QAEPAU?$_Tree_node@U?$pair@$$CBHUNPC_DATA_HELPER@@@std@@PAX@2@I@Z ENDP ; std::allocator<std::_Tree_node<std::pair<int const ,NPC_DATA_HELPER>,void *> >::allocate
_TEXT	ENDS
; Function compile flags: /Odtp /ZI
; File C:\Program Files (x86)\Microsoft Visual Studio\2019\Community\VC\Tools\MSVC\14.27.29110\include\xmemory
;	COMDAT ?deallocate@?$allocator@U?$_Tree_node@U?$pair@$$CBHUNPC_DATA_HELPER@@@std@@PAX@std@@@std@@QAEXQAU?$_Tree_node@U?$pair@$$CBHUNPC_DATA_HELPER@@@std@@PAX@2@I@Z
_TEXT	SEGMENT
_this$ = -4						; size = 4
__Ptr$ = 8						; size = 4
__Count$ = 12						; size = 4
?deallocate@?$allocator@U?$_Tree_node@U?$pair@$$CBHUNPC_DATA_HELPER@@@std@@PAX@std@@@std@@QAEXQAU?$_Tree_node@U?$pair@$$CBHUNPC_DATA_HELPER@@@std@@PAX@2@I@Z PROC ; std::allocator<std::_Tree_node<std::pair<int const ,NPC_DATA_HELPER>,void *> >::deallocate, COMDAT
; _this$ = ecx

; 801  :     void deallocate(_Ty* const _Ptr, const size_t _Count) {

  00000	55		 push	 ebp
  00001	8b ec		 mov	 ebp, esp
  00003	83 ec 44	 sub	 esp, 68			; 00000044H
  00006	53		 push	 ebx
  00007	56		 push	 esi
  00008	57		 push	 edi
  00009	89 4d fc	 mov	 DWORD PTR _this$[ebp], ecx

; 802  :         // no overflow check on the following multiply; we assume _Allocate did that check
; 803  :         _Deallocate<_New_alignof<_Ty>>(_Ptr, sizeof(_Ty) * _Count);

  0000c	6b 45 0c 28	 imul	 eax, DWORD PTR __Count$[ebp], 40
  00010	50		 push	 eax
  00011	8b 4d 08	 mov	 ecx, DWORD PTR __Ptr$[ebp]
  00014	51		 push	 ecx
  00015	e8 00 00 00 00	 call	 ??$_Deallocate@$07$0A@@std@@YAXPAXI@Z ; std::_Deallocate<8,0>
  0001a	83 c4 08	 add	 esp, 8

; 804  :     }

  0001d	5f		 pop	 edi
  0001e	5e		 pop	 esi
  0001f	5b		 pop	 ebx
  00020	8b e5		 mov	 esp, ebp
  00022	5d		 pop	 ebp
  00023	c2 08 00	 ret	 8
?deallocate@?$allocator@U?$_Tree_node@U?$pair@$$CBHUNPC_DATA_HELPER@@@std@@PAX@std@@@std@@QAEXQAU?$_Tree_node@U?$pair@$$CBHUNPC_DATA_HELPER@@@std@@PAX@2@I@Z ENDP ; std::allocator<std::_Tree_node<std::pair<int const ,NPC_DATA_HELPER>,void *> >::deallocate
_TEXT	ENDS
; Function compile flags: /Odtp /ZI
; File C:\Program Files (x86)\Microsoft Visual Studio\2019\Community\VC\Tools\MSVC\14.27.29110\include\xmemory
;	COMDAT ??0?$allocator@U?$_Tree_node@U?$pair@$$CBHUNPC_DATA_HELPER@@@std@@PAX@std@@@std@@QAE@XZ
_TEXT	SEGMENT
_this$ = -4						; size = 4
??0?$allocator@U?$_Tree_node@U?$pair@$$CBHUNPC_DATA_HELPER@@@std@@PAX@std@@@std@@QAE@XZ PROC ; std::allocator<std::_Tree_node<std::pair<int const ,NPC_DATA_HELPER>,void *> >::allocator<std::_Tree_node<std::pair<int const ,NPC_DATA_HELPER>,void *> >, COMDAT
; _this$ = ecx

; 795  :     constexpr allocator() noexcept {}

  00000	55		 push	 ebp
  00001	8b ec		 mov	 ebp, esp
  00003	83 ec 44	 sub	 esp, 68			; 00000044H
  00006	53		 push	 ebx
  00007	56		 push	 esi
  00008	57		 push	 edi
  00009	89 4d fc	 mov	 DWORD PTR _this$[ebp], ecx
  0000c	8b 45 fc	 mov	 eax, DWORD PTR _this$[ebp]
  0000f	5f		 pop	 edi
  00010	5e		 pop	 esi
  00011	5b		 pop	 ebx
  00012	8b e5		 mov	 esp, ebp
  00014	5d		 pop	 ebp
  00015	c3		 ret	 0
??0?$allocator@U?$_Tree_node@U?$pair@$$CBHUNPC_DATA_HELPER@@@std@@PAX@std@@@std@@QAE@XZ ENDP ; std::allocator<std::_Tree_node<std::pair<int const ,NPC_DATA_HELPER>,void *> >::allocator<std::_Tree_node<std::pair<int const ,NPC_DATA_HELPER>,void *> >
_TEXT	ENDS
; Function compile flags: /Odtp /ZI
; File C:\Mu Online\Mu-GS-Webzen-MC-10093\GameServer\BuffHelper.cpp
;	COMDAT ?GetNPCData@CBuffHelper@@QAEHH@Z
_TEXT	SEGMENT
$T1 = -76						; size = 4
$T2 = -72						; size = 4
_this$ = -4						; size = 4
_iIndex$ = 8						; size = 4
?GetNPCData@CBuffHelper@@QAEHH@Z PROC			; CBuffHelper::GetNPCData, COMDAT
; _this$ = ecx

; 261  : {

  00000	55		 push	 ebp
  00001	8b ec		 mov	 ebp, esp
  00003	83 ec 4c	 sub	 esp, 76			; 0000004cH
  00006	53		 push	 ebx
  00007	56		 push	 esi
  00008	57		 push	 edi
  00009	89 4d fc	 mov	 DWORD PTR _this$[ebp], ecx

; 262  : 	if(m_mNpcData.find(iIndex) != m_mNpcData.end())

  0000c	8d 45 b4	 lea	 eax, DWORD PTR $T1[ebp]
  0000f	50		 push	 eax
  00010	8b 4d fc	 mov	 ecx, DWORD PTR _this$[ebp]
  00013	83 c1 10	 add	 ecx, 16			; 00000010H
  00016	e8 00 00 00 00	 call	 ?end@?$_Tree@V?$_Tmap_traits@HUNPC_DATA_HELPER@@U?$less@H@std@@V?$allocator@U?$pair@$$CBHUNPC_DATA_HELPER@@@std@@@3@$0A@@std@@@std@@QAE?AV?$_Tree_iterator@V?$_Tree_val@U?$_Tree_simple_types@U?$pair@$$CBHUNPC_DATA_HELPER@@@std@@@std@@@std@@@2@XZ ; std::_Tree<std::_Tmap_traits<int,NPC_DATA_HELPER,std::less<int>,std::allocator<std::pair<int const ,NPC_DATA_HELPER> >,0> >::end
  0001b	50		 push	 eax
  0001c	8d 4d 08	 lea	 ecx, DWORD PTR _iIndex$[ebp]
  0001f	51		 push	 ecx
  00020	8d 55 b8	 lea	 edx, DWORD PTR $T2[ebp]
  00023	52		 push	 edx
  00024	8b 4d fc	 mov	 ecx, DWORD PTR _this$[ebp]
  00027	83 c1 10	 add	 ecx, 16			; 00000010H
  0002a	e8 00 00 00 00	 call	 ?find@?$_Tree@V?$_Tmap_traits@HUNPC_DATA_HELPER@@U?$less@H@std@@V?$allocator@U?$pair@$$CBHUNPC_DATA_HELPER@@@std@@@3@$0A@@std@@@std@@QAE?AV?$_Tree_iterator@V?$_Tree_val@U?$_Tree_simple_types@U?$pair@$$CBHUNPC_DATA_HELPER@@@std@@@std@@@std@@@2@ABH@Z ; std::_Tree<std::_Tmap_traits<int,NPC_DATA_HELPER,std::less<int>,std::allocator<std::pair<int const ,NPC_DATA_HELPER> >,0> >::find
  0002f	8b c8		 mov	 ecx, eax
  00031	e8 00 00 00 00	 call	 ??9?$_Tree_const_iterator@V?$_Tree_val@U?$_Tree_simple_types@U?$pair@$$CBHUNPC_DATA_HELPER@@@std@@@std@@@std@@@std@@QBE_NABV01@@Z ; std::_Tree_const_iterator<std::_Tree_val<std::_Tree_simple_types<std::pair<int const ,NPC_DATA_HELPER> > > >::operator!=
  00036	0f b6 c0	 movzx	 eax, al
  00039	85 c0		 test	 eax, eax
  0003b	74 07		 je	 SHORT $LN2@GetNPCData

; 263  : 	{
; 264  : 		return TRUE;

  0003d	b8 01 00 00 00	 mov	 eax, 1
  00042	eb 02		 jmp	 SHORT $LN1@GetNPCData
$LN2@GetNPCData:

; 265  : 	}
; 266  : 
; 267  : 	return FALSE;

  00044	33 c0		 xor	 eax, eax
$LN1@GetNPCData:

; 268  : }

  00046	5f		 pop	 edi
  00047	5e		 pop	 esi
  00048	5b		 pop	 ebx
  00049	8b e5		 mov	 esp, ebp
  0004b	5d		 pop	 ebp
  0004c	c2 04 00	 ret	 4
?GetNPCData@CBuffHelper@@QAEHH@Z ENDP			; CBuffHelper::GetNPCData
_TEXT	ENDS
; Function compile flags: /Odtp /ZI
; File C:\Mu Online\Mu-GS-Webzen-MC-10093\GameServer\BuffHelper.cpp
;	COMDAT ?ClearNPCData@CBuffHelper@@QAEXXZ
_TEXT	SEGMENT
$T1 = -80						; size = 4
$T2 = -76						; size = 4
_it$3 = -8						; size = 4
_this$ = -4						; size = 4
?ClearNPCData@CBuffHelper@@QAEXXZ PROC			; CBuffHelper::ClearNPCData, COMDAT
; _this$ = ecx

; 251  : {

  00000	55		 push	 ebp
  00001	8b ec		 mov	 ebp, esp
  00003	83 ec 50	 sub	 esp, 80			; 00000050H
  00006	53		 push	 ebx
  00007	56		 push	 esi
  00008	57		 push	 edi
  00009	89 4d fc	 mov	 DWORD PTR _this$[ebp], ecx

; 252  : 	for(NPC_DATA_MAP_HELPER::iterator it = m_mNpcData.begin();it != m_mNpcData.end();)

  0000c	8d 45 f8	 lea	 eax, DWORD PTR _it$3[ebp]
  0000f	50		 push	 eax
  00010	8b 4d fc	 mov	 ecx, DWORD PTR _this$[ebp]
  00013	83 c1 10	 add	 ecx, 16			; 00000010H
  00016	e8 00 00 00 00	 call	 ?begin@?$_Tree@V?$_Tmap_traits@HUNPC_DATA_HELPER@@U?$less@H@std@@V?$allocator@U?$pair@$$CBHUNPC_DATA_HELPER@@@std@@@3@$0A@@std@@@std@@QAE?AV?$_Tree_iterator@V?$_Tree_val@U?$_Tree_simple_types@U?$pair@$$CBHUNPC_DATA_HELPER@@@std@@@std@@@std@@@2@XZ ; std::_Tree<std::_Tmap_traits<int,NPC_DATA_HELPER,std::less<int>,std::allocator<std::pair<int const ,NPC_DATA_HELPER> >,0> >::begin
$LN4@ClearNPCDa:
  0001b	8d 45 b4	 lea	 eax, DWORD PTR $T2[ebp]
  0001e	50		 push	 eax
  0001f	8b 4d fc	 mov	 ecx, DWORD PTR _this$[ebp]
  00022	83 c1 10	 add	 ecx, 16			; 00000010H
  00025	e8 00 00 00 00	 call	 ?end@?$_Tree@V?$_Tmap_traits@HUNPC_DATA_HELPER@@U?$less@H@std@@V?$allocator@U?$pair@$$CBHUNPC_DATA_HELPER@@@std@@@3@$0A@@std@@@std@@QAE?AV?$_Tree_iterator@V?$_Tree_val@U?$_Tree_simple_types@U?$pair@$$CBHUNPC_DATA_HELPER@@@std@@@std@@@std@@@2@XZ ; std::_Tree<std::_Tmap_traits<int,NPC_DATA_HELPER,std::less<int>,std::allocator<std::pair<int const ,NPC_DATA_HELPER> >,0> >::end
  0002a	50		 push	 eax
  0002b	8d 4d f8	 lea	 ecx, DWORD PTR _it$3[ebp]
  0002e	e8 00 00 00 00	 call	 ??9?$_Tree_const_iterator@V?$_Tree_val@U?$_Tree_simple_types@U?$pair@$$CBHUNPC_DATA_HELPER@@@std@@@std@@@std@@@std@@QBE_NABV01@@Z ; std::_Tree_const_iterator<std::_Tree_val<std::_Tree_simple_types<std::pair<int const ,NPC_DATA_HELPER> > > >::operator!=
  00033	0f b6 c8	 movzx	 ecx, al
  00036	85 c9		 test	 ecx, ecx
  00038	74 46		 je	 SHORT $LN1@ClearNPCDa

; 253  : 	{
; 254  : 		LogAddTD("[Buff Helper System] To Delete Npc : Index(%d)", it->first);

  0003a	8d 4d f8	 lea	 ecx, DWORD PTR _it$3[ebp]
  0003d	e8 00 00 00 00	 call	 ??C?$_Tree_iterator@V?$_Tree_val@U?$_Tree_simple_types@U?$pair@$$CBHUNPC_DATA_HELPER@@@std@@@std@@@std@@@std@@QBEPAU?$pair@$$CBHUNPC_DATA_HELPER@@@1@XZ ; std::_Tree_iterator<std::_Tree_val<std::_Tree_simple_types<std::pair<int const ,NPC_DATA_HELPER> > > >::operator->
  00042	8b 00		 mov	 eax, DWORD PTR [eax]
  00044	50		 push	 eax
  00045	68 00 00 00 00	 push	 OFFSET ??_C@_0CP@EOIOJIAO@?$FLBuff?5Helper?5System?$FN?5To?5Delete?5@
  0004a	ff 15 00 00 00
	00		 call	 DWORD PTR ?LogAddTD@@3P6AXPADZZA ; LogAddTD
  00050	83 c4 08	 add	 esp, 8

; 255  : 		gObjDel(it->first);

  00053	8d 4d f8	 lea	 ecx, DWORD PTR _it$3[ebp]
  00056	e8 00 00 00 00	 call	 ??C?$_Tree_iterator@V?$_Tree_val@U?$_Tree_simple_types@U?$pair@$$CBHUNPC_DATA_HELPER@@@std@@@std@@@std@@@std@@QBEPAU?$pair@$$CBHUNPC_DATA_HELPER@@@1@XZ ; std::_Tree_iterator<std::_Tree_val<std::_Tree_simple_types<std::pair<int const ,NPC_DATA_HELPER> > > >::operator->
  0005b	8b 00		 mov	 eax, DWORD PTR [eax]
  0005d	50		 push	 eax
  0005e	e8 00 00 00 00	 call	 ?gObjDel@@YAFH@Z	; gObjDel
  00063	83 c4 04	 add	 esp, 4

; 256  : 		it = m_mNpcData.erase(it);

  00066	8b 45 f8	 mov	 eax, DWORD PTR _it$3[ebp]
  00069	50		 push	 eax
  0006a	8d 4d b0	 lea	 ecx, DWORD PTR $T1[ebp]
  0006d	51		 push	 ecx
  0006e	8b 4d fc	 mov	 ecx, DWORD PTR _this$[ebp]
  00071	83 c1 10	 add	 ecx, 16			; 00000010H
  00074	e8 00 00 00 00	 call	 ??$erase@V?$_Tree_iterator@V?$_Tree_val@U?$_Tree_simple_types@U?$pair@$$CBHUNPC_DATA_HELPER@@@std@@@std@@@std@@@std@@$0A@@?$_Tree@V?$_Tmap_traits@HUNPC_DATA_HELPER@@U?$less@H@std@@V?$allocator@U?$pair@$$CBHUNPC_DATA_HELPER@@@std@@@3@$0A@@std@@@std@@QAE?AV?$_Tree_iterator@V?$_Tree_val@U?$_Tree_simple_types@U?$pair@$$CBHUNPC_DATA_HELPER@@@std@@@std@@@std@@@1@V21@@Z ; std::_Tree<std::_Tmap_traits<int,NPC_DATA_HELPER,std::less<int>,std::allocator<std::pair<int const ,NPC_DATA_HELPER> >,0> >::erase<std::_Tree_iterator<std::_Tree_val<std::_Tree_simple_types<std::pair<int const ,NPC_DATA_HELPER> > > >,0>
  00079	8b 10		 mov	 edx, DWORD PTR [eax]
  0007b	89 55 f8	 mov	 DWORD PTR _it$3[ebp], edx

; 257  : 	}

  0007e	eb 9b		 jmp	 SHORT $LN4@ClearNPCDa
$LN1@ClearNPCDa:

; 258  : }

  00080	5f		 pop	 edi
  00081	5e		 pop	 esi
  00082	5b		 pop	 ebx
  00083	8b e5		 mov	 esp, ebp
  00085	5d		 pop	 ebp
  00086	c3		 ret	 0
?ClearNPCData@CBuffHelper@@QAEXXZ ENDP			; CBuffHelper::ClearNPCData
_TEXT	ENDS
; Function compile flags: /Odtp /ZI
; File C:\Mu Online\Mu-GS-Webzen-MC-10093\GameServer\BuffHelper.cpp
;	COMDAT ?SetNPCData@CBuffHelper@@QAEXAAUNPC_DATA_HELPER@@@Z
_TEXT	SEGMENT
$T1 = -112						; size = 8
$T2 = -104						; size = 24
_MAttr$3 = -16						; size = 4
_iMonsterIndex$ = -12					; size = 4
_this$ = -8						; size = 4
__$ArrayPad$ = -4					; size = 4
_npc$ = 8						; size = 4
?SetNPCData@CBuffHelper@@QAEXAAUNPC_DATA_HELPER@@@Z PROC ; CBuffHelper::SetNPCData, COMDAT
; _this$ = ecx

; 203  : {

  00000	55		 push	 ebp
  00001	8b ec		 mov	 ebp, esp
  00003	83 ec 70	 sub	 esp, 112		; 00000070H
  00006	a1 00 00 00 00	 mov	 eax, DWORD PTR ___security_cookie
  0000b	33 c5		 xor	 eax, ebp
  0000d	89 45 fc	 mov	 DWORD PTR __$ArrayPad$[ebp], eax
  00010	53		 push	 ebx
  00011	56		 push	 esi
  00012	57		 push	 edi
  00013	89 4d f8	 mov	 DWORD PTR _this$[ebp], ecx

; 204  : 	int iMonsterIndex = gObjAddMonster(npc.m_iMapIndex);

  00016	8b 45 08	 mov	 eax, DWORD PTR _npc$[ebp]
  00019	8b 48 04	 mov	 ecx, DWORD PTR [eax+4]
  0001c	51		 push	 ecx
  0001d	e8 00 00 00 00	 call	 ?gObjAddMonster@@YAFH@Z	; gObjAddMonster
  00022	83 c4 04	 add	 esp, 4
  00025	0f bf d0	 movsx	 edx, ax
  00028	89 55 f4	 mov	 DWORD PTR _iMonsterIndex$[ebp], edx

; 205  : 
; 206  : 	if(iMonsterIndex >= 0)

  0002b	83 7d f4 00	 cmp	 DWORD PTR _iMonsterIndex$[ebp], 0
  0002f	0f 8c 14 03 00
	00		 jl	 $LN2@SetNPCData

; 207  : 	{
; 208  : 		MONSTER_ATTRIBUTE * MAttr = gMAttr.GetAttr(npc.m_iNpcIndex);

  00035	8b 45 08	 mov	 eax, DWORD PTR _npc$[ebp]
  00038	8b 08		 mov	 ecx, DWORD PTR [eax]
  0003a	51		 push	 ecx
  0003b	b9 00 00 00 00	 mov	 ecx, OFFSET ?gMAttr@@3VCMonsterAttr@@A ; gMAttr
  00040	e8 00 00 00 00	 call	 ?GetAttr@CMonsterAttr@@QAEPAUMONSTER_ATTRIBUTE@@H@Z ; CMonsterAttr::GetAttr
  00045	89 45 f0	 mov	 DWORD PTR _MAttr$3[ebp], eax

; 209  : 
; 210  : 		if ( MAttr == NULL )

  00048	83 7d f0 00	 cmp	 DWORD PTR _MAttr$3[ebp], 0
  0004c	75 11		 jne	 SHORT $LN3@SetNPCData

; 211  : 		{
; 212  : 			gObjDel(iMonsterIndex);

  0004e	8b 45 f4	 mov	 eax, DWORD PTR _iMonsterIndex$[ebp]
  00051	50		 push	 eax
  00052	e8 00 00 00 00	 call	 ?gObjDel@@YAFH@Z	; gObjDel
  00057	83 c4 04	 add	 esp, 4

; 213  : 			return;

  0005a	e9 ea 02 00 00	 jmp	 $LN1@SetNPCData
$LN3@SetNPCData:

; 214  : 		}
; 215  : 
; 216  : 		gObjSetMonster(iMonsterIndex, npc.m_iNpcIndex);

  0005f	8b 45 08	 mov	 eax, DWORD PTR _npc$[ebp]
  00062	8b 08		 mov	 ecx, DWORD PTR [eax]
  00064	51		 push	 ecx
  00065	8b 55 f4	 mov	 edx, DWORD PTR _iMonsterIndex$[ebp]
  00068	52		 push	 edx
  00069	e8 00 00 00 00	 call	 ?gObjSetMonster@@YAHHH@Z ; gObjSetMonster
  0006e	83 c4 08	 add	 esp, 8

; 217  : 		gObj[iMonsterIndex].Live = TRUE;

  00071	69 45 f4 a0 1b
	00 00		 imul	 eax, DWORD PTR _iMonsterIndex$[ebp], 7072
  00078	8b 0d 00 00 00
	00		 mov	 ecx, DWORD PTR ?gObj@@3PAVOBJECTSTRUCT@@A ; gObj
  0007e	c6 44 01 66 01	 mov	 BYTE PTR [ecx+eax+102], 1

; 218  : 		gObj[iMonsterIndex].Life = MAttr->m_Hp;

  00083	8b 45 f0	 mov	 eax, DWORD PTR _MAttr$3[ebp]
  00086	f3 0f 2a 40 24	 cvtsi2ss xmm0, DWORD PTR [eax+36]
  0008b	69 4d f4 a0 1b
	00 00		 imul	 ecx, DWORD PTR _iMonsterIndex$[ebp], 7072
  00092	8b 15 00 00 00
	00		 mov	 edx, DWORD PTR ?gObj@@3PAVOBJECTSTRUCT@@A ; gObj
  00098	f3 0f 11 84 0a
	bc 00 00 00	 movss	 DWORD PTR [edx+ecx+188], xmm0

; 219  : 		gObj[iMonsterIndex].MaxLife = MAttr->m_Hp;

  000a1	8b 45 f0	 mov	 eax, DWORD PTR _MAttr$3[ebp]
  000a4	f3 0f 2a 40 24	 cvtsi2ss xmm0, DWORD PTR [eax+36]
  000a9	69 4d f4 a0 1b
	00 00		 imul	 ecx, DWORD PTR _iMonsterIndex$[ebp], 7072
  000b0	8b 15 00 00 00
	00		 mov	 edx, DWORD PTR ?gObj@@3PAVOBJECTSTRUCT@@A ; gObj
  000b6	f3 0f 11 84 0a
	c0 00 00 00	 movss	 DWORD PTR [edx+ecx+192], xmm0

; 220  : 		gObj[iMonsterIndex].m_PosNum = -1;

  000bf	69 45 f4 a0 1b
	00 00		 imul	 eax, DWORD PTR _iMonsterIndex$[ebp], 7072
  000c6	83 c9 ff	 or	 ecx, -1
  000c9	8b 15 00 00 00
	00		 mov	 edx, DWORD PTR ?gObj@@3PAVOBJECTSTRUCT@@A ; gObj
  000cf	66 89 8c 02 0c
	02 00 00	 mov	 WORD PTR [edx+eax+524], cx

; 221  : 		gObj[iMonsterIndex].X = npc.m_icX;

  000d7	69 45 f4 a0 1b
	00 00		 imul	 eax, DWORD PTR _iMonsterIndex$[ebp], 7072
  000de	8b 0d 00 00 00
	00		 mov	 ecx, DWORD PTR ?gObj@@3PAVOBJECTSTRUCT@@A ; gObj
  000e4	8b 55 08	 mov	 edx, DWORD PTR _npc$[ebp]
  000e7	66 8b 52 08	 mov	 dx, WORD PTR [edx+8]
  000eb	66 89 94 01 04
	01 00 00	 mov	 WORD PTR [ecx+eax+260], dx

; 222  : 		gObj[iMonsterIndex].Y = npc.m_icY;

  000f3	69 45 f4 a0 1b
	00 00		 imul	 eax, DWORD PTR _iMonsterIndex$[ebp], 7072
  000fa	8b 0d 00 00 00
	00		 mov	 ecx, DWORD PTR ?gObj@@3PAVOBJECTSTRUCT@@A ; gObj
  00100	8b 55 08	 mov	 edx, DWORD PTR _npc$[ebp]
  00103	66 8b 52 0c	 mov	 dx, WORD PTR [edx+12]
  00107	66 89 94 01 06
	01 00 00	 mov	 WORD PTR [ecx+eax+262], dx

; 223  : 		gObj[iMonsterIndex].MTX = npc.m_icX;

  0010f	69 45 f4 a0 1b
	00 00		 imul	 eax, DWORD PTR _iMonsterIndex$[ebp], 7072
  00116	8b 0d 00 00 00
	00		 mov	 ecx, DWORD PTR ?gObj@@3PAVOBJECTSTRUCT@@A ; gObj
  0011c	8b 55 08	 mov	 edx, DWORD PTR _npc$[ebp]
  0011f	66 8b 52 08	 mov	 dx, WORD PTR [edx+8]
  00123	66 89 94 01 24
	01 00 00	 mov	 WORD PTR [ecx+eax+292], dx

; 224  : 		gObj[iMonsterIndex].MTY = npc.m_icY;

  0012b	69 45 f4 a0 1b
	00 00		 imul	 eax, DWORD PTR _iMonsterIndex$[ebp], 7072
  00132	8b 0d 00 00 00
	00		 mov	 ecx, DWORD PTR ?gObj@@3PAVOBJECTSTRUCT@@A ; gObj
  00138	8b 55 08	 mov	 edx, DWORD PTR _npc$[ebp]
  0013b	66 8b 52 0c	 mov	 dx, WORD PTR [edx+12]
  0013f	66 89 94 01 26
	01 00 00	 mov	 WORD PTR [ecx+eax+294], dx

; 225  : 		gObj[iMonsterIndex].TX = npc.m_icX;

  00147	69 45 f4 a0 1b
	00 00		 imul	 eax, DWORD PTR _iMonsterIndex$[ebp], 7072
  0014e	8b 0d 00 00 00
	00		 mov	 ecx, DWORD PTR ?gObj@@3PAVOBJECTSTRUCT@@A ; gObj
  00154	8b 55 08	 mov	 edx, DWORD PTR _npc$[ebp]
  00157	66 8b 52 08	 mov	 dx, WORD PTR [edx+8]
  0015b	66 89 94 01 20
	01 00 00	 mov	 WORD PTR [ecx+eax+288], dx

; 226  : 		gObj[iMonsterIndex].TY = npc.m_icY;

  00163	69 45 f4 a0 1b
	00 00		 imul	 eax, DWORD PTR _iMonsterIndex$[ebp], 7072
  0016a	8b 0d 00 00 00
	00		 mov	 ecx, DWORD PTR ?gObj@@3PAVOBJECTSTRUCT@@A ; gObj
  00170	8b 55 08	 mov	 edx, DWORD PTR _npc$[ebp]
  00173	66 8b 52 0c	 mov	 dx, WORD PTR [edx+12]
  00177	66 89 94 01 22
	01 00 00	 mov	 WORD PTR [ecx+eax+290], dx

; 227  : 		gObj[iMonsterIndex].m_OldX = npc.m_icX;

  0017f	69 45 f4 a0 1b
	00 00		 imul	 eax, DWORD PTR _iMonsterIndex$[ebp], 7072
  00186	8b 0d 00 00 00
	00		 mov	 ecx, DWORD PTR ?gObj@@3PAVOBJECTSTRUCT@@A ; gObj
  0018c	8b 55 08	 mov	 edx, DWORD PTR _npc$[ebp]
  0018f	66 8b 52 08	 mov	 dx, WORD PTR [edx+8]
  00193	66 89 94 01 1c
	01 00 00	 mov	 WORD PTR [ecx+eax+284], dx

; 228  : 		gObj[iMonsterIndex].m_OldY = npc.m_icY;

  0019b	69 45 f4 a0 1b
	00 00		 imul	 eax, DWORD PTR _iMonsterIndex$[ebp], 7072
  001a2	8b 0d 00 00 00
	00		 mov	 ecx, DWORD PTR ?gObj@@3PAVOBJECTSTRUCT@@A ; gObj
  001a8	8b 55 08	 mov	 edx, DWORD PTR _npc$[ebp]
  001ab	66 8b 52 0c	 mov	 dx, WORD PTR [edx+12]
  001af	66 89 94 01 1e
	01 00 00	 mov	 WORD PTR [ecx+eax+286], dx

; 229  : 		gObj[iMonsterIndex].StartX = npc.m_icX;

  001b7	69 45 f4 a0 1b
	00 00		 imul	 eax, DWORD PTR _iMonsterIndex$[ebp], 7072
  001be	8b 0d 00 00 00
	00		 mov	 ecx, DWORD PTR ?gObj@@3PAVOBJECTSTRUCT@@A ; gObj
  001c4	8b 55 08	 mov	 edx, DWORD PTR _npc$[ebp]
  001c7	8a 52 08	 mov	 dl, BYTE PTR [edx+8]
  001ca	88 94 01 1a 01
	00 00		 mov	 BYTE PTR [ecx+eax+282], dl

; 230  : 		gObj[iMonsterIndex].StartY = npc.m_icY;

  001d1	69 45 f4 a0 1b
	00 00		 imul	 eax, DWORD PTR _iMonsterIndex$[ebp], 7072
  001d8	8b 0d 00 00 00
	00		 mov	 ecx, DWORD PTR ?gObj@@3PAVOBJECTSTRUCT@@A ; gObj
  001de	8b 55 08	 mov	 edx, DWORD PTR _npc$[ebp]
  001e1	8a 52 0c	 mov	 dl, BYTE PTR [edx+12]
  001e4	88 94 01 1b 01
	00 00		 mov	 BYTE PTR [ecx+eax+283], dl

; 231  : 		gObj[iMonsterIndex].MapNumber = npc.m_iMapIndex;

  001eb	69 45 f4 a0 1b
	00 00		 imul	 eax, DWORD PTR _iMonsterIndex$[ebp], 7072
  001f2	8b 0d 00 00 00
	00		 mov	 ecx, DWORD PTR ?gObj@@3PAVOBJECTSTRUCT@@A ; gObj
  001f8	8b 55 08	 mov	 edx, DWORD PTR _npc$[ebp]
  001fb	8a 52 04	 mov	 dl, BYTE PTR [edx+4]
  001fe	88 94 01 09 01
	00 00		 mov	 BYTE PTR [ecx+eax+265], dl

; 232  : 		gObj[iMonsterIndex].m_MoveRange = 0;

  00205	69 45 f4 a0 1b
	00 00		 imul	 eax, DWORD PTR _iMonsterIndex$[ebp], 7072
  0020c	33 c9		 xor	 ecx, ecx
  0020e	8b 15 00 00 00
	00		 mov	 edx, DWORD PTR ?gObj@@3PAVOBJECTSTRUCT@@A ; gObj
  00214	66 89 8c 02 f6
	02 00 00	 mov	 WORD PTR [edx+eax+758], cx

; 233  : 		gObj[iMonsterIndex].Level = MAttr->m_Level;

  0021c	69 45 f4 a0 1b
	00 00		 imul	 eax, DWORD PTR _iMonsterIndex$[ebp], 7072
  00223	8b 0d 00 00 00
	00		 mov	 ecx, DWORD PTR ?gObj@@3PAVOBJECTSTRUCT@@A ; gObj
  00229	8b 55 f0	 mov	 edx, DWORD PTR _MAttr$3[ebp]
  0022c	66 8b 52 1c	 mov	 dx, WORD PTR [edx+28]
  00230	66 89 94 01 a0
	00 00 00	 mov	 WORD PTR [ecx+eax+160], dx

; 234  : 		gObj[iMonsterIndex].Type = OBJTYPE_NPC;

  00238	69 45 f4 a0 1b
	00 00		 imul	 eax, DWORD PTR _iMonsterIndex$[ebp], 7072
  0023f	b9 03 00 00 00	 mov	 ecx, 3
  00244	8b 15 00 00 00
	00		 mov	 edx, DWORD PTR ?gObj@@3PAVOBJECTSTRUCT@@A ; gObj
  0024a	66 89 4c 02 64	 mov	 WORD PTR [edx+eax+100], cx

; 235  : 		gObj[iMonsterIndex].MaxRegenTime = 1000;

  0024f	69 45 f4 a0 1b
	00 00		 imul	 eax, DWORD PTR _iMonsterIndex$[ebp], 7072
  00256	8b 0d 00 00 00
	00		 mov	 ecx, DWORD PTR ?gObj@@3PAVOBJECTSTRUCT@@A ; gObj
  0025c	c7 84 01 08 02
	00 00 e8 03 00
	00		 mov	 DWORD PTR [ecx+eax+520], 1000 ; 000003e8H

; 236  : 		gObj[iMonsterIndex].Dir = npc.m_iDir;

  00267	69 45 f4 a0 1b
	00 00		 imul	 eax, DWORD PTR _iMonsterIndex$[ebp], 7072
  0026e	8b 0d 00 00 00
	00		 mov	 ecx, DWORD PTR ?gObj@@3PAVOBJECTSTRUCT@@A ; gObj
  00274	8b 55 08	 mov	 edx, DWORD PTR _npc$[ebp]
  00277	8a 52 10	 mov	 dl, BYTE PTR [edx+16]
  0027a	88 94 01 08 01
	00 00		 mov	 BYTE PTR [ecx+eax+264], dl

; 237  : 		gObj[iMonsterIndex].RegenTime = GetTickCount();

  00281	ff 15 00 00 00
	00		 call	 DWORD PTR __imp__GetTickCount@0
  00287	69 4d f4 a0 1b
	00 00		 imul	 ecx, DWORD PTR _iMonsterIndex$[ebp], 7072
  0028e	8b 15 00 00 00
	00		 mov	 edx, DWORD PTR ?gObj@@3PAVOBJECTSTRUCT@@A ; gObj
  00294	89 84 0a 04 02
	00 00		 mov	 DWORD PTR [edx+ecx+516], eax

; 238  : 		gObj[iMonsterIndex].m_Attribute = 0;

  0029b	69 45 f4 a0 1b
	00 00		 imul	 eax, DWORD PTR _iMonsterIndex$[ebp], 7072
  002a2	33 c9		 xor	 ecx, ecx
  002a4	8b 15 00 00 00
	00		 mov	 edx, DWORD PTR ?gObj@@3PAVOBJECTSTRUCT@@A ; gObj
  002aa	66 89 8c 02 fe
	02 00 00	 mov	 WORD PTR [edx+eax+766], cx

; 239  : 		gObj[iMonsterIndex].DieRegen = 0;

  002b2	69 45 f4 a0 1b
	00 00		 imul	 eax, DWORD PTR _iMonsterIndex$[ebp], 7072
  002b9	8b 0d 00 00 00
	00		 mov	 ecx, DWORD PTR ?gObj@@3PAVOBJECTSTRUCT@@A ; gObj
  002bf	c6 84 01 fe 01
	00 00 00	 mov	 BYTE PTR [ecx+eax+510], 0

; 240  : 		gObj[iMonsterIndex].m_bBuffHelper = true;

  002c7	69 45 f4 a0 1b
	00 00		 imul	 eax, DWORD PTR _iMonsterIndex$[ebp], 7072
  002ce	8b 0d 00 00 00
	00		 mov	 ecx, DWORD PTR ?gObj@@3PAVOBJECTSTRUCT@@A ; gObj
  002d4	c6 84 01 84 1a
	00 00 01	 mov	 BYTE PTR [ecx+eax+6788], 1

; 241  : 
; 242  : 		gObj[iMonsterIndex].Energy = this->m_iNpcEnergy;

  002dc	69 45 f4 a0 1b
	00 00		 imul	 eax, DWORD PTR _iMonsterIndex$[ebp], 7072
  002e3	8b 0d 00 00 00
	00		 mov	 ecx, DWORD PTR ?gObj@@3PAVOBJECTSTRUCT@@A ; gObj
  002e9	8b 55 f8	 mov	 edx, DWORD PTR _this$[ebp]
  002ec	66 8b 52 08	 mov	 dx, WORD PTR [edx+8]
  002f0	66 89 94 01 ba
	00 00 00	 mov	 WORD PTR [ecx+eax+186], dx

; 243  : 
; 244  : 		LogAddTD("[Buff Helper System] Npc Addition : Index(%d) NpcID(%d) MapID(%d) PosX(%d) PosY(%d)", iMonsterIndex, npc.m_iNpcIndex, npc.m_iMapIndex, npc.m_icX, npc.m_icY);

  002f8	8b 45 08	 mov	 eax, DWORD PTR _npc$[ebp]
  002fb	8b 48 0c	 mov	 ecx, DWORD PTR [eax+12]
  002fe	51		 push	 ecx
  002ff	8b 55 08	 mov	 edx, DWORD PTR _npc$[ebp]
  00302	8b 42 08	 mov	 eax, DWORD PTR [edx+8]
  00305	50		 push	 eax
  00306	8b 4d 08	 mov	 ecx, DWORD PTR _npc$[ebp]
  00309	8b 51 04	 mov	 edx, DWORD PTR [ecx+4]
  0030c	52		 push	 edx
  0030d	8b 45 08	 mov	 eax, DWORD PTR _npc$[ebp]
  00310	8b 08		 mov	 ecx, DWORD PTR [eax]
  00312	51		 push	 ecx
  00313	8b 55 f4	 mov	 edx, DWORD PTR _iMonsterIndex$[ebp]
  00316	52		 push	 edx
  00317	68 00 00 00 00	 push	 OFFSET ??_C@_0FE@NFCKJBIJ@?$FLBuff?5Helper?5System?$FN?5Npc?5Additi@
  0031c	ff 15 00 00 00
	00		 call	 DWORD PTR ?LogAddTD@@3P6AXPADZZA ; LogAddTD
  00322	83 c4 18	 add	 esp, 24			; 00000018H

; 245  : 
; 246  : 		this->m_mNpcData.insert(std::make_pair(iMonsterIndex,npc));

  00325	8b 45 08	 mov	 eax, DWORD PTR _npc$[ebp]
  00328	50		 push	 eax
  00329	8d 4d f4	 lea	 ecx, DWORD PTR _iMonsterIndex$[ebp]
  0032c	51		 push	 ecx
  0032d	8d 55 98	 lea	 edx, DWORD PTR $T2[ebp]
  00330	52		 push	 edx
  00331	e8 00 00 00 00	 call	 ??$make_pair@AAHAAUNPC_DATA_HELPER@@@std@@YA?AU?$pair@HUNPC_DATA_HELPER@@@0@AAHAAUNPC_DATA_HELPER@@@Z ; std::make_pair<int &,NPC_DATA_HELPER &>
  00336	83 c4 0c	 add	 esp, 12			; 0000000cH
  00339	50		 push	 eax
  0033a	8d 45 90	 lea	 eax, DWORD PTR $T1[ebp]
  0033d	50		 push	 eax
  0033e	8b 4d f8	 mov	 ecx, DWORD PTR _this$[ebp]
  00341	83 c1 10	 add	 ecx, 16			; 00000010H
  00344	e8 00 00 00 00	 call	 ??$insert@U?$pair@HUNPC_DATA_HELPER@@@std@@$0A@@?$map@HUNPC_DATA_HELPER@@U?$less@H@std@@V?$allocator@U?$pair@$$CBHUNPC_DATA_HELPER@@@std@@@3@@std@@QAE?AU?$pair@V?$_Tree_iterator@V?$_Tree_val@U?$_Tree_simple_types@U?$pair@$$CBHUNPC_DATA_HELPER@@@std@@@std@@@std@@@std@@_N@1@$$QAU?$pair@HUNPC_DATA_HELPER@@@1@@Z ; std::map<int,NPC_DATA_HELPER,std::less<int>,std::allocator<std::pair<int const ,NPC_DATA_HELPER> > >::insert<std::pair<int,NPC_DATA_HELPER>,0>
$LN2@SetNPCData:
$LN1@SetNPCData:

; 247  : 	}
; 248  : }

  00349	5f		 pop	 edi
  0034a	5e		 pop	 esi
  0034b	5b		 pop	 ebx
  0034c	8b 4d fc	 mov	 ecx, DWORD PTR __$ArrayPad$[ebp]
  0034f	33 cd		 xor	 ecx, ebp
  00351	e8 00 00 00 00	 call	 @__security_check_cookie@4
  00356	8b e5		 mov	 esp, ebp
  00358	5d		 pop	 ebp
  00359	c2 04 00	 ret	 4
?SetNPCData@CBuffHelper@@QAEXAAUNPC_DATA_HELPER@@@Z ENDP ; CBuffHelper::SetNPCData
_TEXT	ENDS
; Function compile flags: /Odtp /ZI
; File C:\Mu Online\Mu-GS-Webzen-MC-10093\GameServer\BuffHelper.cpp
;	COMDAT ?CheckUserCondition@CBuffHelper@@QAEXPAVOBJECTSTRUCT@@H@Z
_TEXT	SEGMENT
tv145 = -352						; size = 4
tv133 = -352						; size = 4
tv146 = -348						; size = 4
tv134 = -348						; size = 4
_msgNotice$1 = -280					; size = 272
_this$ = -8						; size = 4
__$ArrayPad$ = -4					; size = 4
_lpObj$ = 8						; size = 4
_aNpcIndex$ = 12					; size = 4
?CheckUserCondition@CBuffHelper@@QAEXPAVOBJECTSTRUCT@@H@Z PROC ; CBuffHelper::CheckUserCondition, COMDAT
; _this$ = ecx

; 149  : {

  00000	55		 push	 ebp
  00001	8b ec		 mov	 ebp, esp
  00003	81 ec 60 01 00
	00		 sub	 esp, 352		; 00000160H
  00009	a1 00 00 00 00	 mov	 eax, DWORD PTR ___security_cookie
  0000e	33 c5		 xor	 eax, ebp
  00010	89 45 fc	 mov	 DWORD PTR __$ArrayPad$[ebp], eax
  00013	53		 push	 ebx
  00014	56		 push	 esi
  00015	57		 push	 edi
  00016	89 4d f8	 mov	 DWORD PTR _this$[ebp], ecx

; 150  : 	if (lpObj->CloseCount > 0 || lpObj->CloseType >= 0)

  00019	8b 45 08	 mov	 eax, DWORD PTR _lpObj$[ebp]
  0001c	0f be 48 0a	 movsx	 ecx, BYTE PTR [eax+10]
  00020	85 c9		 test	 ecx, ecx
  00022	7f 0b		 jg	 SHORT $LN3@CheckUserC
  00024	8b 45 08	 mov	 eax, DWORD PTR _lpObj$[ebp]
  00027	0f be 48 0b	 movsx	 ecx, BYTE PTR [eax+11]
  0002b	85 c9		 test	 ecx, ecx
  0002d	7c 05		 jl	 SHORT $LN2@CheckUserC
$LN3@CheckUserC:

; 151  : 	{
; 152  : 		return;

  0002f	e9 ae 01 00 00	 jmp	 $LN1@CheckUserC
$LN2@CheckUserC:

; 153  : 	}
; 154  : 
; 155  : 	if(this->m_bHasData == FALSE)

  00034	8b 45 f8	 mov	 eax, DWORD PTR _this$[ebp]
  00037	0f b6 08	 movzx	 ecx, BYTE PTR [eax]
  0003a	85 c9		 test	 ecx, ecx
  0003c	75 1a		 jne	 SHORT $LN4@CheckUserC

; 156  : 	{
; 157  : 		GCServerMsgStringSend("Buff Helper Disabled", lpObj->m_Index, 1); //The PKClear System is currently disabled

  0003e	6a 01		 push	 1
  00040	8b 45 08	 mov	 eax, DWORD PTR _lpObj$[ebp]
  00043	8b 08		 mov	 ecx, DWORD PTR [eax]
  00045	51		 push	 ecx
  00046	68 00 00 00 00	 push	 OFFSET ??_C@_0BF@JNEFBNFE@Buff?5Helper?5Disabled@
  0004b	e8 00 00 00 00	 call	 ?GCServerMsgStringSend@@YAXPADHE@Z ; GCServerMsgStringSend
  00050	83 c4 0c	 add	 esp, 12			; 0000000cH

; 158  : 		return;

  00053	e9 8a 01 00 00	 jmp	 $LN1@CheckUserC
$LN4@CheckUserC:

; 159  : 	}
; 160  : 
; 161  : 	if(lpObj->m_IfState.use == 1 && lpObj->m_IfState.type == 6)

  00058	8b 45 08	 mov	 eax, DWORD PTR _lpObj$[ebp]
  0005b	8a 88 56 0c 00
	00		 mov	 cl, BYTE PTR [eax+3158]
  00061	80 e1 03	 and	 cl, 3
  00064	0f b6 d1	 movzx	 edx, cl
  00067	83 fa 01	 cmp	 edx, 1
  0006a	75 25		 jne	 SHORT $LN5@CheckUserC
  0006c	8b 45 08	 mov	 eax, DWORD PTR _lpObj$[ebp]
  0006f	8a 88 56 0c 00
	00		 mov	 cl, BYTE PTR [eax+3158]
  00075	c0 e9 04	 shr	 cl, 4
  00078	80 e1 0f	 and	 cl, 15			; 0000000fH
  0007b	0f b6 d1	 movzx	 edx, cl
  0007e	83 fa 06	 cmp	 edx, 6
  00081	75 0e		 jne	 SHORT $LN5@CheckUserC

; 162  : 	{
; 163  : 		CGWarehouseUseEnd(lpObj->m_Index); //Lock the Vault

  00083	8b 45 08	 mov	 eax, DWORD PTR _lpObj$[ebp]
  00086	8b 08		 mov	 ecx, DWORD PTR [eax]
  00088	51		 push	 ecx
  00089	e8 00 00 00 00	 call	 ?CGWarehouseUseEnd@@YAXH@Z ; CGWarehouseUseEnd
  0008e	83 c4 04	 add	 esp, 4
$LN5@CheckUserC:

; 164  : 	}
; 165  : 
; 166  : 	if(lpObj->m_ReqWarehouseOpen != false)

  00091	8b 45 08	 mov	 eax, DWORD PTR _lpObj$[ebp]
  00094	0f b6 88 24 0f
	00 00		 movzx	 ecx, BYTE PTR [eax+3876]
  0009b	85 c9		 test	 ecx, ecx
  0009d	74 05		 je	 SHORT $LN6@CheckUserC

; 167  : 	{
; 168  : 		return;

  0009f	e9 3e 01 00 00	 jmp	 $LN1@CheckUserC
$LN6@CheckUserC:

; 169  : 	}
; 170  : 
; 171  : 	if(lpObj->m_stateEngagePVP == PVP_USER_PLAYING)

  000a4	8b 45 08	 mov	 eax, DWORD PTR _lpObj$[ebp]
  000a7	83 b8 80 1a 00
	00 02		 cmp	 DWORD PTR [eax+6784], 2
  000ae	75 05		 jne	 SHORT $LN7@CheckUserC

; 172  : 		return;

  000b0	e9 2d 01 00 00	 jmp	 $LN1@CheckUserC
$LN7@CheckUserC:

; 173  : 
; 174  : 	if(CHECK_BLOODCASTLE(lpObj->MapNumber) || 
; 175  : #ifdef DEVILSQUARE_EXTEND_20050221		//    
; 176  : 		CHECK_DEVILSQUARE(lpObj->MapNumber)
; 177  : #else
; 178  : 		lpObj->MapNumber == 9 
; 179  : #endif
; 180  : #ifdef CHAOSCASTLE_SYSTEM_20040408
; 181  : 		|| CHECK_CHAOSCASTLE(lpObj->MapNumber)	//      .

  000b5	8b 45 08	 mov	 eax, DWORD PTR _lpObj$[ebp]
  000b8	0f b6 88 09 01
	00 00		 movzx	 ecx, BYTE PTR [eax+265]
  000bf	83 f9 0b	 cmp	 ecx, 11			; 0000000bH
  000c2	7d 0c		 jge	 SHORT $LN14@CheckUserC
  000c4	c7 85 a4 fe ff
	ff 00 00 00 00	 mov	 DWORD PTR tv134[ebp], 0
  000ce	eb 31		 jmp	 SHORT $LN15@CheckUserC
$LN14@CheckUserC:
  000d0	8b 55 08	 mov	 edx, DWORD PTR _lpObj$[ebp]
  000d3	0f b6 82 09 01
	00 00		 movzx	 eax, BYTE PTR [edx+265]
  000da	83 f8 11	 cmp	 eax, 17			; 00000011H
  000dd	7e 0c		 jle	 SHORT $LN12@CheckUserC
  000df	c7 85 a0 fe ff
	ff 00 00 00 00	 mov	 DWORD PTR tv133[ebp], 0
  000e9	eb 0a		 jmp	 SHORT $LN13@CheckUserC
$LN12@CheckUserC:
  000eb	c7 85 a0 fe ff
	ff 01 00 00 00	 mov	 DWORD PTR tv133[ebp], 1
$LN13@CheckUserC:
  000f5	8b 8d a0 fe ff
	ff		 mov	 ecx, DWORD PTR tv133[ebp]
  000fb	89 8d a4 fe ff
	ff		 mov	 DWORD PTR tv134[ebp], ecx
$LN15@CheckUserC:
  00101	83 bd a4 fe ff
	ff 00		 cmp	 DWORD PTR tv134[ebp], 0
  00108	75 64		 jne	 SHORT $LN9@CheckUserC
  0010a	8b 45 08	 mov	 eax, DWORD PTR _lpObj$[ebp]
  0010d	0f b6 88 09 01
	00 00		 movzx	 ecx, BYTE PTR [eax+265]
  00114	83 f9 09	 cmp	 ecx, 9
  00117	74 55		 je	 SHORT $LN9@CheckUserC
  00119	8b 45 08	 mov	 eax, DWORD PTR _lpObj$[ebp]
  0011c	0f b6 88 09 01
	00 00		 movzx	 ecx, BYTE PTR [eax+265]
  00123	83 f9 12	 cmp	 ecx, 18			; 00000012H
  00126	7d 0c		 jge	 SHORT $LN18@CheckUserC
  00128	c7 85 a4 fe ff
	ff 00 00 00 00	 mov	 DWORD PTR tv146[ebp], 0
  00132	eb 31		 jmp	 SHORT $LN19@CheckUserC
$LN18@CheckUserC:
  00134	8b 55 08	 mov	 edx, DWORD PTR _lpObj$[ebp]
  00137	0f b6 82 09 01
	00 00		 movzx	 eax, BYTE PTR [edx+265]
  0013e	83 f8 17	 cmp	 eax, 23			; 00000017H
  00141	7e 0c		 jle	 SHORT $LN16@CheckUserC
  00143	c7 85 a0 fe ff
	ff 00 00 00 00	 mov	 DWORD PTR tv145[ebp], 0
  0014d	eb 0a		 jmp	 SHORT $LN17@CheckUserC
$LN16@CheckUserC:
  0014f	c7 85 a0 fe ff
	ff 01 00 00 00	 mov	 DWORD PTR tv145[ebp], 1
$LN17@CheckUserC:
  00159	8b 8d a0 fe ff
	ff		 mov	 ecx, DWORD PTR tv145[ebp]
  0015f	89 8d a4 fe ff
	ff		 mov	 DWORD PTR tv146[ebp], ecx
$LN19@CheckUserC:
  00165	83 bd a4 fe ff
	ff 00		 cmp	 DWORD PTR tv146[ebp], 0
  0016c	74 02		 je	 SHORT $LN8@CheckUserC
$LN9@CheckUserC:

; 182  : #endif
; 183  : 		)
; 184  : 	{
; 185  : 		return;

  0016e	eb 72		 jmp	 SHORT $LN1@CheckUserC
$LN8@CheckUserC:

; 186  : 	}
; 187  : 
; 188  : 	if(lpObj->Level > this->m_iMaxLevel)

  00170	8b 45 08	 mov	 eax, DWORD PTR _lpObj$[ebp]
  00173	0f bf 88 a0 00
	00 00		 movsx	 ecx, WORD PTR [eax+160]
  0017a	8b 55 f8	 mov	 edx, DWORD PTR _this$[ebp]
  0017d	3b 4a 04	 cmp	 ecx, DWORD PTR [edx+4]
  00180	7e 34		 jle	 SHORT $LN10@CheckUserC

; 189  : 	{
; 190  : 		PMSG_NOTICE msgNotice;
; 191  : 
; 192  : 		TNotice::MakeNoticeMsgEx((LPVOID)&msgNotice, 0, "Buff Nivel Maximo: %d", this->m_iMaxLevel);

  00182	8b 45 f8	 mov	 eax, DWORD PTR _this$[ebp]
  00185	8b 48 04	 mov	 ecx, DWORD PTR [eax+4]
  00188	51		 push	 ecx
  00189	68 00 00 00 00	 push	 OFFSET ??_C@_0BG@IOLOAAPD@Buff?5Nivel?5Maximo?3?5?$CFd@
  0018e	6a 00		 push	 0
  00190	8d 95 e8 fe ff
	ff		 lea	 edx, DWORD PTR _msgNotice$1[ebp]
  00196	52		 push	 edx
  00197	e8 00 00 00 00	 call	 ?MakeNoticeMsgEx@TNotice@@SAXPAXEPADZZ ; TNotice::MakeNoticeMsgEx
  0019c	83 c4 10	 add	 esp, 16			; 00000010H

; 193  : 
; 194  : 		TNotice::SendNoticeToUser(lpObj->m_Index, (LPVOID)&msgNotice);

  0019f	8d 85 e8 fe ff
	ff		 lea	 eax, DWORD PTR _msgNotice$1[ebp]
  001a5	50		 push	 eax
  001a6	8b 4d 08	 mov	 ecx, DWORD PTR _lpObj$[ebp]
  001a9	8b 11		 mov	 edx, DWORD PTR [ecx]
  001ab	52		 push	 edx
  001ac	e8 00 00 00 00	 call	 ?SendNoticeToUser@TNotice@@SAXHPAX@Z ; TNotice::SendNoticeToUser
  001b1	83 c4 08	 add	 esp, 8

; 195  : 		return;

  001b4	eb 2c		 jmp	 SHORT $LN1@CheckUserC
$LN10@CheckUserC:

; 196  : 	}
; 197  : 
; 198  : 	gObjUseSkill.SkillAttack(aNpcIndex, lpObj->m_Index, 7);

  001b6	6a 07		 push	 7
  001b8	8b 45 08	 mov	 eax, DWORD PTR _lpObj$[ebp]
  001bb	8b 08		 mov	 ecx, DWORD PTR [eax]
  001bd	51		 push	 ecx
  001be	8b 55 0c	 mov	 edx, DWORD PTR _aNpcIndex$[ebp]
  001c1	52		 push	 edx
  001c2	b9 00 00 00 00	 mov	 ecx, OFFSET ?gObjUseSkill@@3VCObjUseSkill@@A ; gObjUseSkill
  001c7	e8 00 00 00 00	 call	 ?SkillAttack@CObjUseSkill@@QAEXHHH@Z ; CObjUseSkill::SkillAttack

; 199  : 	gObjUseSkill.SkillDefense(aNpcIndex, lpObj->m_Index, 7);

  001cc	6a 07		 push	 7
  001ce	8b 45 08	 mov	 eax, DWORD PTR _lpObj$[ebp]
  001d1	8b 08		 mov	 ecx, DWORD PTR [eax]
  001d3	51		 push	 ecx
  001d4	8b 55 0c	 mov	 edx, DWORD PTR _aNpcIndex$[ebp]
  001d7	52		 push	 edx
  001d8	b9 00 00 00 00	 mov	 ecx, OFFSET ?gObjUseSkill@@3VCObjUseSkill@@A ; gObjUseSkill
  001dd	e8 00 00 00 00	 call	 ?SkillDefense@CObjUseSkill@@QAEXHHH@Z ; CObjUseSkill::SkillDefense
$LN1@CheckUserC:

; 200  : }

  001e2	5f		 pop	 edi
  001e3	5e		 pop	 esi
  001e4	5b		 pop	 ebx
  001e5	8b 4d fc	 mov	 ecx, DWORD PTR __$ArrayPad$[ebp]
  001e8	33 cd		 xor	 ecx, ebp
  001ea	e8 00 00 00 00	 call	 @__security_check_cookie@4
  001ef	8b e5		 mov	 esp, ebp
  001f1	5d		 pop	 ebp
  001f2	c2 08 00	 ret	 8
?CheckUserCondition@CBuffHelper@@QAEXPAVOBJECTSTRUCT@@H@Z ENDP ; CBuffHelper::CheckUserCondition
_TEXT	ENDS
; Function compile flags: /Odtp /ZI
; File C:\Mu Online\Mu-GS-Webzen-MC-10093\GameServer\BuffHelper.cpp
;	COMDAT ?Load@CBuffHelper@@QAEHPAD@Z
_TEXT	SEGMENT
tv166 = -120						; size = 4
tv165 = -120						; size = 4
tv164 = -120						; size = 4
tv163 = -120						; size = 4
tv162 = -120						; size = 4
tv161 = -120						; size = 4
tv160 = -120						; size = 4
tv159 = -120						; size = 4
tv158 = -120						; size = 4
tv157 = -120						; size = 4
tv91 = -117						; size = 1
_NpcData$2 = -52					; size = 20
_type$3 = -32						; size = 4
_Token$4 = -28						; size = 4
_this$ = -24						; size = 4
__$ArrayPad$ = -20					; size = 4
__$EHRec$ = -16						; size = 16
_lpszFileName$ = 8					; size = 4
?Load@CBuffHelper@@QAEHPAD@Z PROC			; CBuffHelper::Load, COMDAT
; _this$ = ecx

; 48   : {

  00000	55		 push	 ebp
  00001	8b ec		 mov	 ebp, esp
  00003	6a ff		 push	 -1
  00005	68 00 00 00 00	 push	 __ehhandler$?Load@CBuffHelper@@QAEHPAD@Z
  0000a	64 a1 00 00 00
	00		 mov	 eax, DWORD PTR fs:0
  00010	50		 push	 eax
  00011	51		 push	 ecx
  00012	83 ec 68	 sub	 esp, 104		; 00000068H
  00015	a1 00 00 00 00	 mov	 eax, DWORD PTR ___security_cookie
  0001a	33 c5		 xor	 eax, ebp
  0001c	89 45 ec	 mov	 DWORD PTR __$ArrayPad$[ebp], eax
  0001f	53		 push	 ebx
  00020	56		 push	 esi
  00021	57		 push	 edi
  00022	50		 push	 eax
  00023	8d 45 f4	 lea	 eax, DWORD PTR __$EHRec$[ebp+4]
  00026	64 a3 00 00 00
	00		 mov	 DWORD PTR fs:0, eax
  0002c	89 65 f0	 mov	 DWORD PTR __$EHRec$[ebp], esp
  0002f	89 4d e8	 mov	 DWORD PTR _this$[ebp], ecx

; 49   : 	this->Clear();

  00032	8b 4d e8	 mov	 ecx, DWORD PTR _this$[ebp]
  00035	e8 00 00 00 00	 call	 ?Clear@CBuffHelper@@QAEXXZ ; CBuffHelper::Clear

; 50   : 
; 51   : 	if ( !lpszFileName || !strcmp(lpszFileName , "") )

  0003a	83 7d 08 00	 cmp	 DWORD PTR _lpszFileName$[ebp], 0
  0003e	74 15		 je	 SHORT $LN7@Load
  00040	68 00 00 00 00	 push	 OFFSET ??_C@_00CNPNBAHC@@
  00045	8b 45 08	 mov	 eax, DWORD PTR _lpszFileName$[ebp]
  00048	50		 push	 eax
  00049	e8 00 00 00 00	 call	 _strcmp
  0004e	83 c4 08	 add	 esp, 8
  00051	85 c0		 test	 eax, eax
  00053	75 14		 jne	 SHORT $LN6@Load
$LN7@Load:

; 52   : 	{
; 53   : 		MsgBox("[Buff Helper System] - File load error : File Name Error");

  00055	68 00 00 00 00	 push	 OFFSET ??_C@_0DJ@BAMDBE@?$FLBuff?5Helper?5System?$FN?5?9?5File?5loa@
  0005a	e8 00 00 00 00	 call	 ?MsgBox@@YAXPADZZ	; MsgBox
  0005f	83 c4 04	 add	 esp, 4

; 54   : 		return FALSE;

  00062	33 c0		 xor	 eax, eax
  00064	e9 46 02 00 00	 jmp	 $LN1@Load
$LN6@Load:

; 55   : 	}
; 56   : 
; 57   : 	try

  00069	c7 45 fc 00 00
	00 00		 mov	 DWORD PTR __$EHRec$[ebp+12], 0

; 58   : 	{
; 59   : 		SMDFile = fopen(lpszFileName, "r");

  00070	68 00 00 00 00	 push	 OFFSET ??_C@_01KDCPPGHE@r@
  00075	8b 45 08	 mov	 eax, DWORD PTR _lpszFileName$[ebp]
  00078	50		 push	 eax
  00079	e8 00 00 00 00	 call	 _fopen
  0007e	83 c4 08	 add	 esp, 8
  00081	a3 00 00 00 00	 mov	 DWORD PTR ?SMDFile@@3PAU_iobuf@@A, eax

; 60   : 
; 61   : 		if ( SMDFile == NULL )

  00086	83 3d 00 00 00
	00 00		 cmp	 DWORD PTR ?SMDFile@@3PAU_iobuf@@A, 0
  0008d	75 18		 jne	 SHORT $LN9@Load

; 62   : 		{
; 63   : 			MsgBox("[Buff Helper System] Info file Load Fail [%s]", lpszFileName);

  0008f	8b 45 08	 mov	 eax, DWORD PTR _lpszFileName$[ebp]
  00092	50		 push	 eax
  00093	68 00 00 00 00	 push	 OFFSET ??_C@_0CO@GCPPHFMJ@?$FLBuff?5Helper?5System?$FN?5Info?5file?5@
  00098	e8 00 00 00 00	 call	 ?MsgBox@@YAXPADZZ	; MsgBox
  0009d	83 c4 08	 add	 esp, 8

; 64   : 
; 65   : 			return false;

  000a0	33 c0		 xor	 eax, eax
  000a2	e9 08 02 00 00	 jmp	 $LN1@Load
$LN9@Load:

; 66   : 		}
; 67   : 
; 68   : 		int Token;
; 69   : 		int type = -1;

  000a7	c7 45 e0 ff ff
	ff ff		 mov	 DWORD PTR _type$3[ebp], -1
$LN2@Load:

; 70   : 
; 71   : 		while ( true )

  000ae	b8 01 00 00 00	 mov	 eax, 1
  000b3	85 c0		 test	 eax, eax
  000b5	0f 84 9e 01 00
	00		 je	 $LN3@Load

; 72   : 		{
; 73   : 			Token = GetToken();

  000bb	e8 00 00 00 00	 call	 ?GetToken@@YA?AW4SMDToken@@XZ ; GetToken
  000c0	89 45 88	 mov	 DWORD PTR tv157[ebp], eax
  000c3	8b 45 88	 mov	 eax, DWORD PTR tv157[ebp]
  000c6	89 45 e4	 mov	 DWORD PTR _Token$4[ebp], eax

; 74   : 
; 75   : 			if ( Token == END )

  000c9	83 7d e4 02	 cmp	 DWORD PTR _Token$4[ebp], 2
  000cd	75 05		 jne	 SHORT $LN10@Load

; 76   : 			{
; 77   : 				break;

  000cf	e9 85 01 00 00	 jmp	 $LN3@Load
$LN10@Load:

; 78   : 			}
; 79   : 
; 80   : 			type = TokenNumber;

  000d4	f3 0f 2c 05 00
	00 00 00	 cvttss2si eax, DWORD PTR ?TokenNumber@@3MA
  000dc	89 45 e0	 mov	 DWORD PTR _type$3[ebp], eax
$LN4@Load:

; 81   : 
; 82   : 			while ( true )

  000df	b8 01 00 00 00	 mov	 eax, 1
  000e4	85 c0		 test	 eax, eax
  000e6	0f 84 68 01 00
	00		 je	 $LN5@Load

; 83   : 			{
; 84   : 				if ( type == 0 ) //PkClear Settings

  000ec	83 7d e0 00	 cmp	 DWORD PTR _type$3[ebp], 0
  000f0	0f 85 ab 00 00
	00		 jne	 $LN11@Load

; 85   : 				{
; 86   : 					Token = GetToken();

  000f6	e8 00 00 00 00	 call	 ?GetToken@@YA?AW4SMDToken@@XZ ; GetToken
  000fb	89 45 88	 mov	 DWORD PTR tv158[ebp], eax
  000fe	8b 45 88	 mov	 eax, DWORD PTR tv158[ebp]
  00101	89 45 e4	 mov	 DWORD PTR _Token$4[ebp], eax

; 87   : 
; 88   : 					if ( strcmp("end", TokenString) == 0 )

  00104	68 00 00 00 00	 push	 OFFSET ?TokenString@@3PADA
  00109	68 00 00 00 00	 push	 OFFSET ??_C@_03JBJLGPFL@end@
  0010e	e8 00 00 00 00	 call	 _strcmp
  00113	83 c4 08	 add	 esp, 8
  00116	85 c0		 test	 eax, eax
  00118	75 05		 jne	 SHORT $LN13@Load

; 89   : 					{
; 90   : 						break;

  0011a	e9 35 01 00 00	 jmp	 $LN5@Load
$LN13@Load:

; 91   : 					}
; 92   : 
; 93   : 					this->m_bUseBuffHelper = TokenNumber;

  0011f	f3 0f 5a 05 00
	00 00 00	 cvtss2sd xmm0, DWORD PTR ?TokenNumber@@3MA
  00127	66 0f 2e 05 00
	00 00 00	 ucomisd xmm0, QWORD PTR __real@0000000000000000
  0012f	9f		 lahf
  00130	f6 c4 44	 test	 ah, 68			; 00000044H
  00133	7b 06		 jnp	 SHORT $LN17@Load
  00135	c6 45 8b 01	 mov	 BYTE PTR tv91[ebp], 1
  00139	eb 04		 jmp	 SHORT $LN18@Load
$LN17@Load:
  0013b	c6 45 8b 00	 mov	 BYTE PTR tv91[ebp], 0
$LN18@Load:
  0013f	8b 45 e8	 mov	 eax, DWORD PTR _this$[ebp]
  00142	8a 4d 8b	 mov	 cl, BYTE PTR tv91[ebp]
  00145	88 48 01	 mov	 BYTE PTR [eax+1], cl

; 94   : 
; 95   : 					Token = GetToken();

  00148	e8 00 00 00 00	 call	 ?GetToken@@YA?AW4SMDToken@@XZ ; GetToken
  0014d	89 45 88	 mov	 DWORD PTR tv159[ebp], eax
  00150	8b 45 88	 mov	 eax, DWORD PTR tv159[ebp]
  00153	89 45 e4	 mov	 DWORD PTR _Token$4[ebp], eax

; 96   : 					this->m_iMaxLevel = TokenNumber;

  00156	f3 0f 2c 05 00
	00 00 00	 cvttss2si eax, DWORD PTR ?TokenNumber@@3MA
  0015e	8b 4d e8	 mov	 ecx, DWORD PTR _this$[ebp]
  00161	89 41 04	 mov	 DWORD PTR [ecx+4], eax

; 97   : 
; 98   : 					Token = GetToken();

  00164	e8 00 00 00 00	 call	 ?GetToken@@YA?AW4SMDToken@@XZ ; GetToken
  00169	89 45 88	 mov	 DWORD PTR tv160[ebp], eax
  0016c	8b 45 88	 mov	 eax, DWORD PTR tv160[ebp]
  0016f	89 45 e4	 mov	 DWORD PTR _Token$4[ebp], eax

; 99   : 					this->m_iNpcEnergy = TokenNumber;

  00172	f3 0f 2c 05 00
	00 00 00	 cvttss2si eax, DWORD PTR ?TokenNumber@@3MA
  0017a	8b 4d e8	 mov	 ecx, DWORD PTR _this$[ebp]
  0017d	89 41 08	 mov	 DWORD PTR [ecx+8], eax

; 100  : 
; 101  : 					Token = GetToken();

  00180	e8 00 00 00 00	 call	 ?GetToken@@YA?AW4SMDToken@@XZ ; GetToken
  00185	89 45 88	 mov	 DWORD PTR tv161[ebp], eax
  00188	8b 45 88	 mov	 eax, DWORD PTR tv161[ebp]
  0018b	89 45 e4	 mov	 DWORD PTR _Token$4[ebp], eax

; 102  : 					this->m_iAuraTime = TokenNumber;

  0018e	f3 0f 2c 05 00
	00 00 00	 cvttss2si eax, DWORD PTR ?TokenNumber@@3MA
  00196	8b 4d e8	 mov	 ecx, DWORD PTR _this$[ebp]
  00199	89 41 0c	 mov	 DWORD PTR [ecx+12], eax

; 103  : 				}

  0019c	e9 ae 00 00 00	 jmp	 $LN14@Load
$LN11@Load:

; 104  : 
; 105  : 				else if ( type == 1 ) //NPC Settings

  001a1	83 7d e0 01	 cmp	 DWORD PTR _type$3[ebp], 1
  001a5	0f 85 a4 00 00
	00		 jne	 $LN14@Load

; 106  : 				{
; 107  : 					Token = GetToken();

  001ab	e8 00 00 00 00	 call	 ?GetToken@@YA?AW4SMDToken@@XZ ; GetToken
  001b0	89 45 88	 mov	 DWORD PTR tv162[ebp], eax
  001b3	8b 45 88	 mov	 eax, DWORD PTR tv162[ebp]
  001b6	89 45 e4	 mov	 DWORD PTR _Token$4[ebp], eax

; 108  : 
; 109  : 					if ( strcmp("end", TokenString) == 0 )

  001b9	68 00 00 00 00	 push	 OFFSET ?TokenString@@3PADA
  001be	68 00 00 00 00	 push	 OFFSET ??_C@_03JBJLGPFL@end@
  001c3	e8 00 00 00 00	 call	 _strcmp
  001c8	83 c4 08	 add	 esp, 8
  001cb	85 c0		 test	 eax, eax
  001cd	75 05		 jne	 SHORT $LN15@Load

; 110  : 					{
; 111  : 						break;

  001cf	e9 80 00 00 00	 jmp	 $LN5@Load
$LN15@Load:

; 112  : 					}
; 113  : 
; 114  : 					NPC_DATA_HELPER NpcData;
; 115  : 
; 116  : 					NpcData.m_iNpcIndex = TokenNumber;

  001d4	f3 0f 2c 05 00
	00 00 00	 cvttss2si eax, DWORD PTR ?TokenNumber@@3MA
  001dc	89 45 cc	 mov	 DWORD PTR _NpcData$2[ebp], eax

; 117  : 
; 118  : 					Token = GetToken();

  001df	e8 00 00 00 00	 call	 ?GetToken@@YA?AW4SMDToken@@XZ ; GetToken
  001e4	89 45 88	 mov	 DWORD PTR tv163[ebp], eax
  001e7	8b 45 88	 mov	 eax, DWORD PTR tv163[ebp]
  001ea	89 45 e4	 mov	 DWORD PTR _Token$4[ebp], eax

; 119  : 					NpcData.m_iMapIndex = TokenNumber;

  001ed	f3 0f 2c 05 00
	00 00 00	 cvttss2si eax, DWORD PTR ?TokenNumber@@3MA
  001f5	89 45 d0	 mov	 DWORD PTR _NpcData$2[ebp+4], eax

; 120  : 
; 121  : 					Token = GetToken();

  001f8	e8 00 00 00 00	 call	 ?GetToken@@YA?AW4SMDToken@@XZ ; GetToken
  001fd	89 45 88	 mov	 DWORD PTR tv164[ebp], eax
  00200	8b 45 88	 mov	 eax, DWORD PTR tv164[ebp]
  00203	89 45 e4	 mov	 DWORD PTR _Token$4[ebp], eax

; 122  : 					NpcData.m_icX = TokenNumber;

  00206	f3 0f 2c 05 00
	00 00 00	 cvttss2si eax, DWORD PTR ?TokenNumber@@3MA
  0020e	89 45 d4	 mov	 DWORD PTR _NpcData$2[ebp+8], eax

; 123  : 
; 124  : 					Token = GetToken();

  00211	e8 00 00 00 00	 call	 ?GetToken@@YA?AW4SMDToken@@XZ ; GetToken
  00216	89 45 88	 mov	 DWORD PTR tv165[ebp], eax
  00219	8b 45 88	 mov	 eax, DWORD PTR tv165[ebp]
  0021c	89 45 e4	 mov	 DWORD PTR _Token$4[ebp], eax

; 125  : 					NpcData.m_icY = TokenNumber;

  0021f	f3 0f 2c 05 00
	00 00 00	 cvttss2si eax, DWORD PTR ?TokenNumber@@3MA
  00227	89 45 d8	 mov	 DWORD PTR _NpcData$2[ebp+12], eax

; 126  : 
; 127  : 					Token = GetToken();

  0022a	e8 00 00 00 00	 call	 ?GetToken@@YA?AW4SMDToken@@XZ ; GetToken
  0022f	89 45 88	 mov	 DWORD PTR tv166[ebp], eax
  00232	8b 45 88	 mov	 eax, DWORD PTR tv166[ebp]
  00235	89 45 e4	 mov	 DWORD PTR _Token$4[ebp], eax

; 128  : 					NpcData.m_iDir = TokenNumber;

  00238	f3 0f 2c 05 00
	00 00 00	 cvttss2si eax, DWORD PTR ?TokenNumber@@3MA
  00240	89 45 dc	 mov	 DWORD PTR _NpcData$2[ebp+16], eax

; 129  : 
; 130  : 					this->SetNPCData(NpcData);

  00243	8d 45 cc	 lea	 eax, DWORD PTR _NpcData$2[ebp]
  00246	50		 push	 eax
  00247	8b 4d e8	 mov	 ecx, DWORD PTR _this$[ebp]
  0024a	e8 00 00 00 00	 call	 ?SetNPCData@CBuffHelper@@QAEXAAUNPC_DATA_HELPER@@@Z ; CBuffHelper::SetNPCData
$LN14@Load:

; 131  : 				}
; 132  : 			}

  0024f	e9 8b fe ff ff	 jmp	 $LN4@Load
$LN5@Load:

; 133  : 		}

  00254	e9 55 fe ff ff	 jmp	 $LN2@Load
$LN3@Load:

; 134  : 
; 135  : 		fclose(SMDFile);

  00259	a1 00 00 00 00	 mov	 eax, DWORD PTR ?SMDFile@@3PAU_iobuf@@A
  0025e	50		 push	 eax
  0025f	e8 00 00 00 00	 call	 _fclose
  00264	83 c4 04	 add	 esp, 4

; 136  : 		LogAdd("[Buff Helper System] %s file load!", lpszFileName);

  00267	8b 45 08	 mov	 eax, DWORD PTR _lpszFileName$[ebp]
  0026a	50		 push	 eax
  0026b	68 00 00 00 00	 push	 OFFSET ??_C@_0CD@GOIAKHBP@?$FLBuff?5Helper?5System?$FN?5?$CFs?5file?5lo@
  00270	ff 15 00 00 00
	00		 call	 DWORD PTR ?LogAdd@@3P6AXPADZZA ; LogAdd
  00276	83 c4 08	 add	 esp, 8

; 137  : 
; 138  : 		this->Init(); //check settings from the file

  00279	8b 4d e8	 mov	 ecx, DWORD PTR _this$[ebp]
  0027c	e8 00 00 00 00	 call	 ?Init@CBuffHelper@@QAEXXZ ; CBuffHelper::Init

; 139  : 	}	// __try

  00281	eb 17		 jmp	 SHORT $LN19@Load
__catch$?Load@CBuffHelper@@QAEHPAD@Z$0:

; 140  : 	catch ( DWORD )
; 141  : 	{
; 142  : 		MsgBox("[Buff Helper System] - Loading Exception Error (%s) File. ", lpszFileName);

  00283	8b 45 08	 mov	 eax, DWORD PTR _lpszFileName$[ebp]
  00286	50		 push	 eax
  00287	68 00 00 00 00	 push	 OFFSET ??_C@_0DL@FBHIFMMM@?$FLBuff?5Helper?5System?$FN?5?9?5Loading?5@
  0028c	e8 00 00 00 00	 call	 ?MsgBox@@YAXPADZZ	; MsgBox
  00291	83 c4 08	 add	 esp, 8

; 143  : 	}

  00294	b8 00 00 00 00	 mov	 eax, $LN22@Load
  00299	c3		 ret	 0
$LN19@Load:
  0029a	c7 45 fc ff ff
	ff ff		 mov	 DWORD PTR __$EHRec$[ebp+12], -1
  002a1	eb 07		 jmp	 SHORT $LN21@Load
$LN22@Load:
  002a3	c7 45 fc ff ff
	ff ff		 mov	 DWORD PTR __$EHRec$[ebp+12], -1
$LN21@Load:

; 144  : 
; 145  : 	return true;

  002aa	b8 01 00 00 00	 mov	 eax, 1
$LN1@Load:

; 146  : }

  002af	8b 4d f4	 mov	 ecx, DWORD PTR __$EHRec$[ebp+4]
  002b2	64 89 0d 00 00
	00 00		 mov	 DWORD PTR fs:0, ecx
  002b9	59		 pop	 ecx
  002ba	5f		 pop	 edi
  002bb	5e		 pop	 esi
  002bc	5b		 pop	 ebx
  002bd	8b 4d ec	 mov	 ecx, DWORD PTR __$ArrayPad$[ebp]
  002c0	33 cd		 xor	 ecx, ebp
  002c2	e8 00 00 00 00	 call	 @__security_check_cookie@4
  002c7	8b e5		 mov	 esp, ebp
  002c9	5d		 pop	 ebp
  002ca	c2 04 00	 ret	 4
  002cd	cc		 int	 3
  002ce	cc		 int	 3
  002cf	cc		 int	 3
  002d0	cc		 int	 3
  002d1	cc		 int	 3
_TEXT	ENDS
;	COMDAT text$x
text$x	SEGMENT
__ehhandler$?Load@CBuffHelper@@QAEHPAD@Z:
  00000	90		 npad	 1
  00001	90		 npad	 1
  00002	8b 54 24 08	 mov	 edx, DWORD PTR [esp+8]
  00006	8d 42 0c	 lea	 eax, DWORD PTR [edx+12]
  00009	8b 4a 84	 mov	 ecx, DWORD PTR [edx-124]
  0000c	33 c8		 xor	 ecx, eax
  0000e	e8 00 00 00 00	 call	 @__security_check_cookie@4
  00013	8b 4a f8	 mov	 ecx, DWORD PTR [edx-8]
  00016	33 c8		 xor	 ecx, eax
  00018	e8 00 00 00 00	 call	 @__security_check_cookie@4
  0001d	b8 00 00 00 00	 mov	 eax, OFFSET __ehfuncinfo$?Load@CBuffHelper@@QAEHPAD@Z
  00022	e9 00 00 00 00	 jmp	 ___CxxFrameHandler3
text$x	ENDS
?Load@CBuffHelper@@QAEHPAD@Z ENDP			; CBuffHelper::Load
; Function compile flags: /Odtp /ZI
; File C:\Mu Online\Mu-GS-Webzen-MC-10093\GameServer\BuffHelper.cpp
;	COMDAT ?Init@CBuffHelper@@QAEXXZ
_TEXT	SEGMENT
_this$ = -4						; size = 4
?Init@CBuffHelper@@QAEXXZ PROC				; CBuffHelper::Init, COMDAT
; _this$ = ecx

; 36   : {

  00000	55		 push	 ebp
  00001	8b ec		 mov	 ebp, esp
  00003	83 ec 44	 sub	 esp, 68			; 00000044H
  00006	53		 push	 ebx
  00007	56		 push	 esi
  00008	57		 push	 edi
  00009	89 4d fc	 mov	 DWORD PTR _this$[ebp], ecx

; 37   : 	if(this->m_bUseBuffHelper == false || this->m_mNpcData.size() == 0)

  0000c	8b 45 fc	 mov	 eax, DWORD PTR _this$[ebp]
  0000f	0f b6 48 01	 movzx	 ecx, BYTE PTR [eax+1]
  00013	85 c9		 test	 ecx, ecx
  00015	74 0f		 je	 SHORT $LN3@Init
  00017	8b 4d fc	 mov	 ecx, DWORD PTR _this$[ebp]
  0001a	83 c1 10	 add	 ecx, 16			; 00000010H
  0001d	e8 00 00 00 00	 call	 ?size@?$_Tree@V?$_Tmap_traits@HUNPC_DATA_HELPER@@U?$less@H@std@@V?$allocator@U?$pair@$$CBHUNPC_DATA_HELPER@@@std@@@3@$0A@@std@@@std@@QBEIXZ ; std::_Tree<std::_Tmap_traits<int,NPC_DATA_HELPER,std::less<int>,std::allocator<std::pair<int const ,NPC_DATA_HELPER> >,0> >::size
  00022	85 c0		 test	 eax, eax
  00024	75 18		 jne	 SHORT $LN2@Init
$LN3@Init:

; 38   : 	{
; 39   : 		LogAddC(2,"[Buff Helper System] CBuffHelper::Init() - Buff Helper is Disable or NPC Setting is empty (m_mNpcData is Zero)");

  00026	68 00 00 00 00	 push	 OFFSET ??_C@_0GP@LCGDMAEI@?$FLBuff?5Helper?5System?$FN?5CBuffHelpe@
  0002b	6a 02		 push	 2
  0002d	ff 15 00 00 00
	00		 call	 DWORD PTR ?LogAddC@@3P6AXEPADZZA ; LogAddC
  00033	83 c4 08	 add	 esp, 8

; 40   : 		this->m_bHasData = FALSE;

  00036	8b 45 fc	 mov	 eax, DWORD PTR _this$[ebp]
  00039	c6 00 00	 mov	 BYTE PTR [eax], 0

; 41   : 		return;

  0003c	eb 06		 jmp	 SHORT $LN1@Init
$LN2@Init:

; 42   : 	}
; 43   : 
; 44   : 	this->m_bHasData = TRUE;

  0003e	8b 45 fc	 mov	 eax, DWORD PTR _this$[ebp]
  00041	c6 00 01	 mov	 BYTE PTR [eax], 1
$LN1@Init:

; 45   : }

  00044	5f		 pop	 edi
  00045	5e		 pop	 esi
  00046	5b		 pop	 ebx
  00047	8b e5		 mov	 esp, ebp
  00049	5d		 pop	 ebp
  0004a	c3		 ret	 0
?Init@CBuffHelper@@QAEXXZ ENDP				; CBuffHelper::Init
_TEXT	ENDS
; Function compile flags: /Odtp /ZI
; File C:\Mu Online\Mu-GS-Webzen-MC-10093\GameServer\BuffHelper.cpp
;	COMDAT ?Clear@CBuffHelper@@QAEXXZ
_TEXT	SEGMENT
_this$ = -4						; size = 4
?Clear@CBuffHelper@@QAEXXZ PROC				; CBuffHelper::Clear, COMDAT
; _this$ = ecx

; 31   : {

  00000	55		 push	 ebp
  00001	8b ec		 mov	 ebp, esp
  00003	83 ec 44	 sub	 esp, 68			; 00000044H
  00006	53		 push	 ebx
  00007	56		 push	 esi
  00008	57		 push	 edi
  00009	89 4d fc	 mov	 DWORD PTR _this$[ebp], ecx

; 32   : 	this->ClearNPCData();

  0000c	8b 4d fc	 mov	 ecx, DWORD PTR _this$[ebp]
  0000f	e8 00 00 00 00	 call	 ?ClearNPCData@CBuffHelper@@QAEXXZ ; CBuffHelper::ClearNPCData

; 33   : }

  00014	5f		 pop	 edi
  00015	5e		 pop	 esi
  00016	5b		 pop	 ebx
  00017	8b e5		 mov	 esp, ebp
  00019	5d		 pop	 ebp
  0001a	c3		 ret	 0
?Clear@CBuffHelper@@QAEXXZ ENDP				; CBuffHelper::Clear
_TEXT	ENDS
; Function compile flags: /Odtp /ZI
; File C:\Mu Online\Mu-GS-Webzen-MC-10093\GameServer\BuffHelper.cpp
;	COMDAT ??0CBuffHelper@@QAE@XZ
_TEXT	SEGMENT
_this$ = -16						; size = 4
__$EHRec$ = -12						; size = 12
??0CBuffHelper@@QAE@XZ PROC				; CBuffHelper::CBuffHelper, COMDAT
; _this$ = ecx

; 25   : {

  00000	55		 push	 ebp
  00001	8b ec		 mov	 ebp, esp
  00003	6a ff		 push	 -1
  00005	68 00 00 00 00	 push	 __ehhandler$??0CBuffHelper@@QAE@XZ
  0000a	64 a1 00 00 00
	00		 mov	 eax, DWORD PTR fs:0
  00010	50		 push	 eax
  00011	83 ec 44	 sub	 esp, 68			; 00000044H
  00014	53		 push	 ebx
  00015	56		 push	 esi
  00016	57		 push	 edi
  00017	a1 00 00 00 00	 mov	 eax, DWORD PTR ___security_cookie
  0001c	33 c5		 xor	 eax, ebp
  0001e	50		 push	 eax
  0001f	8d 45 f4	 lea	 eax, DWORD PTR __$EHRec$[ebp]
  00022	64 a3 00 00 00
	00		 mov	 DWORD PTR fs:0, eax
  00028	89 4d f0	 mov	 DWORD PTR _this$[ebp], ecx
  0002b	8b 4d f0	 mov	 ecx, DWORD PTR _this$[ebp]
  0002e	83 c1 10	 add	 ecx, 16			; 00000010H
  00031	e8 00 00 00 00	 call	 ??0?$map@HUNPC_DATA_HELPER@@U?$less@H@std@@V?$allocator@U?$pair@$$CBHUNPC_DATA_HELPER@@@std@@@3@@std@@QAE@XZ ; std::map<int,NPC_DATA_HELPER,std::less<int>,std::allocator<std::pair<int const ,NPC_DATA_HELPER> > >::map<int,NPC_DATA_HELPER,std::less<int>,std::allocator<std::pair<int const ,NPC_DATA_HELPER> > >
  00036	c7 45 fc 00 00
	00 00		 mov	 DWORD PTR __$EHRec$[ebp+8], 0

; 26   : 	this->m_bUseBuffHelper = false;

  0003d	8b 45 f0	 mov	 eax, DWORD PTR _this$[ebp]
  00040	c6 40 01 00	 mov	 BYTE PTR [eax+1], 0

; 27   : 	this->Clear();

  00044	8b 4d f0	 mov	 ecx, DWORD PTR _this$[ebp]
  00047	e8 00 00 00 00	 call	 ?Clear@CBuffHelper@@QAEXXZ ; CBuffHelper::Clear

; 28   : }

  0004c	c7 45 fc ff ff
	ff ff		 mov	 DWORD PTR __$EHRec$[ebp+8], -1
  00053	8b 45 f0	 mov	 eax, DWORD PTR _this$[ebp]
  00056	8b 4d f4	 mov	 ecx, DWORD PTR __$EHRec$[ebp]
  00059	64 89 0d 00 00
	00 00		 mov	 DWORD PTR fs:0, ecx
  00060	59		 pop	 ecx
  00061	5f		 pop	 edi
  00062	5e		 pop	 esi
  00063	5b		 pop	 ebx
  00064	8b e5		 mov	 esp, ebp
  00066	5d		 pop	 ebp
  00067	c3		 ret	 0
_TEXT	ENDS
;	COMDAT text$x
text$x	SEGMENT
__unwindfunclet$??0CBuffHelper@@QAE@XZ$0:
  00000	8b 4d f0	 mov	 ecx, DWORD PTR _this$[ebp]
  00003	83 c1 10	 add	 ecx, 16			; 00000010H
  00006	e9 00 00 00 00	 jmp	 ??1?$map@HUNPC_DATA_HELPER@@U?$less@H@std@@V?$allocator@U?$pair@$$CBHUNPC_DATA_HELPER@@@std@@@3@@std@@QAE@XZ
  0000b	cc		 int	 3
  0000c	cc		 int	 3
  0000d	cc		 int	 3
  0000e	cc		 int	 3
  0000f	cc		 int	 3
__ehhandler$??0CBuffHelper@@QAE@XZ:
  00010	90		 npad	 1
  00011	90		 npad	 1
  00012	8b 54 24 08	 mov	 edx, DWORD PTR [esp+8]
  00016	8d 42 0c	 lea	 eax, DWORD PTR [edx+12]
  00019	8b 4a ac	 mov	 ecx, DWORD PTR [edx-84]
  0001c	33 c8		 xor	 ecx, eax
  0001e	e8 00 00 00 00	 call	 @__security_check_cookie@4
  00023	b8 00 00 00 00	 mov	 eax, OFFSET __ehfuncinfo$??0CBuffHelper@@QAE@XZ
  00028	e9 00 00 00 00	 jmp	 ___CxxFrameHandler3
text$x	ENDS
??0CBuffHelper@@QAE@XZ ENDP				; CBuffHelper::CBuffHelper
; Function compile flags: /Odtp /ZI
; File C:\Program Files (x86)\Microsoft Visual Studio\2019\Community\VC\Tools\MSVC\14.27.29110\include\xstddef
;	COMDAT ??R?$less@H@std@@QBE_NABH0@Z
_TEXT	SEGMENT
tv65 = -72						; size = 4
_this$ = -4						; size = 4
__Left$ = 8						; size = 4
__Right$ = 12						; size = 4
??R?$less@H@std@@QBE_NABH0@Z PROC			; std::less<int>::operator(), COMDAT
; _this$ = ecx

; 126  :     constexpr bool operator()(const _Ty& _Left, const _Ty& _Right) const {

  00000	55		 push	 ebp
  00001	8b ec		 mov	 ebp, esp
  00003	83 ec 48	 sub	 esp, 72			; 00000048H
  00006	53		 push	 ebx
  00007	56		 push	 esi
  00008	57		 push	 edi
  00009	89 4d fc	 mov	 DWORD PTR _this$[ebp], ecx

; 127  :         return _Left < _Right;

  0000c	8b 45 08	 mov	 eax, DWORD PTR __Left$[ebp]
  0000f	8b 4d 0c	 mov	 ecx, DWORD PTR __Right$[ebp]
  00012	8b 10		 mov	 edx, DWORD PTR [eax]
  00014	3b 11		 cmp	 edx, DWORD PTR [ecx]
  00016	7d 09		 jge	 SHORT $LN3@operator
  00018	c7 45 b8 01 00
	00 00		 mov	 DWORD PTR tv65[ebp], 1
  0001f	eb 07		 jmp	 SHORT $LN4@operator
$LN3@operator:
  00021	c7 45 b8 00 00
	00 00		 mov	 DWORD PTR tv65[ebp], 0
$LN4@operator:
  00028	8a 45 b8	 mov	 al, BYTE PTR tv65[ebp]

; 128  :     }

  0002b	5f		 pop	 edi
  0002c	5e		 pop	 esi
  0002d	5b		 pop	 ebx
  0002e	8b e5		 mov	 esp, ebp
  00030	5d		 pop	 ebp
  00031	c2 08 00	 ret	 8
??R?$less@H@std@@QBE_NABH0@Z ENDP			; std::less<int>::operator()
_TEXT	ENDS
; Function compile flags: /Odtp /ZI
; File C:\Program Files (x86)\Microsoft Visual Studio\2019\Community\VC\Tools\MSVC\14.27.29110\include\xtree
;	COMDAT ?_Throw_tree_length_error@std@@YAXXZ
_TEXT	SEGMENT
?_Throw_tree_length_error@std@@YAXXZ PROC		; std::_Throw_tree_length_error, COMDAT

; 414  : [[noreturn]] inline void _Throw_tree_length_error() {

  00000	55		 push	 ebp
  00001	8b ec		 mov	 ebp, esp
  00003	83 ec 40	 sub	 esp, 64			; 00000040H
  00006	53		 push	 ebx
  00007	56		 push	 esi
  00008	57		 push	 edi

; 415  :     _Xlength_error("map/set too long");

  00009	68 00 00 00 00	 push	 OFFSET ??_C@_0BB@GCADKGJO@map?1set?5too?5long@
  0000e	e8 00 00 00 00	 call	 ?_Xlength_error@std@@YAXPBD@Z ; std::_Xlength_error
$LN2@Throw_tree:

; 416  : }

  00013	5f		 pop	 edi
  00014	5e		 pop	 esi
  00015	5b		 pop	 ebx
  00016	8b e5		 mov	 esp, ebp
  00018	5d		 pop	 ebp
  00019	c3		 ret	 0
?_Throw_tree_length_error@std@@YAXXZ ENDP		; std::_Throw_tree_length_error
_TEXT	ENDS
; Function compile flags: /Odtp /ZI
; File C:\Program Files (x86)\Microsoft Visual Studio\2019\Community\VC\Tools\MSVC\14.27.29110\include\xmemory
;	COMDAT ?_Release@_Fake_proxy_ptr_impl@std@@QAEXXZ
_TEXT	SEGMENT
_this$ = -4						; size = 4
?_Release@_Fake_proxy_ptr_impl@std@@QAEXXZ PROC		; std::_Fake_proxy_ptr_impl::_Release, COMDAT
; _this$ = ecx

; 1259 :     void _Release() noexcept {}

  00000	55		 push	 ebp
  00001	8b ec		 mov	 ebp, esp
  00003	83 ec 44	 sub	 esp, 68			; 00000044H
  00006	53		 push	 ebx
  00007	56		 push	 esi
  00008	57		 push	 edi
  00009	89 4d fc	 mov	 DWORD PTR _this$[ebp], ecx
  0000c	5f		 pop	 edi
  0000d	5e		 pop	 esi
  0000e	5b		 pop	 ebx
  0000f	8b e5		 mov	 esp, ebp
  00011	5d		 pop	 ebp
  00012	c3		 ret	 0
?_Release@_Fake_proxy_ptr_impl@std@@QAEXXZ ENDP		; std::_Fake_proxy_ptr_impl::_Release
_TEXT	ENDS
; Function compile flags: /Odtp /ZI
; File C:\Program Files (x86)\Microsoft Visual Studio\2019\Community\VC\Tools\MSVC\14.27.29110\include\xmemory
;	COMDAT ??0_Fake_proxy_ptr_impl@std@@QAE@ABU_Fake_allocator@1@ABU_Container_base0@1@@Z
_TEXT	SEGMENT
_this$ = -4						; size = 4
___formal$ = 8						; size = 4
___formal$ = 12						; size = 4
??0_Fake_proxy_ptr_impl@std@@QAE@ABU_Fake_allocator@1@ABU_Container_base0@1@@Z PROC ; std::_Fake_proxy_ptr_impl::_Fake_proxy_ptr_impl, COMDAT
; _this$ = ecx

; 1256 :     _Fake_proxy_ptr_impl(const _Fake_allocator&, const _Container_base0&) noexcept {}

  00000	55		 push	 ebp
  00001	8b ec		 mov	 ebp, esp
  00003	83 ec 44	 sub	 esp, 68			; 00000044H
  00006	53		 push	 ebx
  00007	56		 push	 esi
  00008	57		 push	 edi
  00009	89 4d fc	 mov	 DWORD PTR _this$[ebp], ecx
  0000c	8b 45 fc	 mov	 eax, DWORD PTR _this$[ebp]
  0000f	5f		 pop	 edi
  00010	5e		 pop	 esi
  00011	5b		 pop	 ebx
  00012	8b e5		 mov	 esp, ebp
  00014	5d		 pop	 ebp
  00015	c2 08 00	 ret	 8
??0_Fake_proxy_ptr_impl@std@@QAE@ABU_Fake_allocator@1@ABU_Container_base0@1@@Z ENDP ; std::_Fake_proxy_ptr_impl::_Fake_proxy_ptr_impl
_TEXT	ENDS
; Function compile flags: /Odtp /ZI
; File C:\Program Files (x86)\Microsoft Visual Studio\2019\Community\VC\Tools\MSVC\14.27.29110\include\xmemory
;	COMDAT ?_Getcont@_Iterator_base0@std@@QBEPBU_Container_base0@2@XZ
_TEXT	SEGMENT
_this$ = -4						; size = 4
?_Getcont@_Iterator_base0@std@@QBEPBU_Container_base0@2@XZ PROC ; std::_Iterator_base0::_Getcont, COMDAT
; _this$ = ecx

; 1073 :     const _Container_base0* _Getcont() const noexcept {

  00000	55		 push	 ebp
  00001	8b ec		 mov	 ebp, esp
  00003	83 ec 44	 sub	 esp, 68			; 00000044H
  00006	53		 push	 ebx
  00007	56		 push	 esi
  00008	57		 push	 edi
  00009	89 4d fc	 mov	 DWORD PTR _this$[ebp], ecx

; 1074 :         return nullptr;

  0000c	33 c0		 xor	 eax, eax

; 1075 :     }

  0000e	5f		 pop	 edi
  0000f	5e		 pop	 esi
  00010	5b		 pop	 ebx
  00011	8b e5		 mov	 esp, ebp
  00013	5d		 pop	 ebp
  00014	c3		 ret	 0
?_Getcont@_Iterator_base0@std@@QBEPBU_Container_base0@2@XZ ENDP ; std::_Iterator_base0::_Getcont
_TEXT	ENDS
; Function compile flags: /Odtp /ZI
; File C:\Program Files (x86)\Microsoft Visual Studio\2019\Community\VC\Tools\MSVC\14.27.29110\include\xmemory
;	COMDAT ?_Adopt@_Iterator_base0@std@@QAEXPBX@Z
_TEXT	SEGMENT
_this$ = -4						; size = 4
___formal$ = 8						; size = 4
?_Adopt@_Iterator_base0@std@@QAEXPBX@Z PROC		; std::_Iterator_base0::_Adopt, COMDAT
; _this$ = ecx

; 1072 :     void _Adopt(const void*) noexcept {}

  00000	55		 push	 ebp
  00001	8b ec		 mov	 ebp, esp
  00003	83 ec 44	 sub	 esp, 68			; 00000044H
  00006	53		 push	 ebx
  00007	56		 push	 esi
  00008	57		 push	 edi
  00009	89 4d fc	 mov	 DWORD PTR _this$[ebp], ecx
  0000c	5f		 pop	 edi
  0000d	5e		 pop	 esi
  0000e	5b		 pop	 ebx
  0000f	8b e5		 mov	 esp, ebp
  00011	5d		 pop	 ebp
  00012	c2 04 00	 ret	 4
?_Adopt@_Iterator_base0@std@@QAEXPBX@Z ENDP		; std::_Iterator_base0::_Adopt
_TEXT	ENDS
; Function compile flags: /Odtp /ZI
; File C:\Program Files (x86)\Microsoft Visual Studio\2019\Community\VC\Tools\MSVC\14.27.29110\include\xmemory
;	COMDAT ?_Orphan_all@_Container_base0@std@@QAEXXZ
_TEXT	SEGMENT
_this$ = -4						; size = 4
?_Orphan_all@_Container_base0@std@@QAEXXZ PROC		; std::_Container_base0::_Orphan_all, COMDAT
; _this$ = ecx

; 1065 :     void _Orphan_all() noexcept {}

  00000	55		 push	 ebp
  00001	8b ec		 mov	 ebp, esp
  00003	83 ec 44	 sub	 esp, 68			; 00000044H
  00006	53		 push	 ebx
  00007	56		 push	 esi
  00008	57		 push	 edi
  00009	89 4d fc	 mov	 DWORD PTR _this$[ebp], ecx
  0000c	5f		 pop	 edi
  0000d	5e		 pop	 esi
  0000e	5b		 pop	 ebx
  0000f	8b e5		 mov	 esp, ebp
  00011	5d		 pop	 ebp
  00012	c3		 ret	 0
?_Orphan_all@_Container_base0@std@@QAEXXZ ENDP		; std::_Container_base0::_Orphan_all
_TEXT	ENDS
; Function compile flags: /Odtp /ZI
; File C:\Program Files (x86)\Microsoft Visual Studio\2019\Community\VC\Tools\MSVC\14.27.29110\include\xmemory
;	COMDAT ?_Adjust_manually_vector_aligned@std@@YAXAAPAXAAI@Z
_TEXT	SEGMENT
__Back_shift$ = -16					; size = 4
__Min_back_shift$ = -12					; size = 4
__Ptr_container$ = -8					; size = 4
__Ptr_user$ = -4					; size = 4
__Ptr$ = 8						; size = 4
__Bytes$ = 12						; size = 4
?_Adjust_manually_vector_aligned@std@@YAXAAPAXAAI@Z PROC ; std::_Adjust_manually_vector_aligned, COMDAT

; 132  : inline void _Adjust_manually_vector_aligned(void*& _Ptr, size_t& _Bytes) {

  00000	55		 push	 ebp
  00001	8b ec		 mov	 ebp, esp
  00003	83 ec 50	 sub	 esp, 80			; 00000050H
  00006	53		 push	 ebx
  00007	56		 push	 esi
  00008	57		 push	 edi

; 133  :     // adjust parameters from _Allocate_manually_vector_aligned to pass to operator delete
; 134  :     _Bytes += _Non_user_size;

  00009	8b 45 0c	 mov	 eax, DWORD PTR __Bytes$[ebp]
  0000c	8b 08		 mov	 ecx, DWORD PTR [eax]
  0000e	83 c1 23	 add	 ecx, 35			; 00000023H
  00011	8b 55 0c	 mov	 edx, DWORD PTR __Bytes$[ebp]
  00014	89 0a		 mov	 DWORD PTR [edx], ecx

; 135  : 
; 136  :     const uintptr_t* const _Ptr_user = reinterpret_cast<uintptr_t*>(_Ptr);

  00016	8b 45 08	 mov	 eax, DWORD PTR __Ptr$[ebp]
  00019	8b 08		 mov	 ecx, DWORD PTR [eax]
  0001b	89 4d fc	 mov	 DWORD PTR __Ptr_user$[ebp], ecx

; 137  :     const uintptr_t _Ptr_container   = _Ptr_user[-1];

  0001e	b8 04 00 00 00	 mov	 eax, 4
  00023	6b c8 ff	 imul	 ecx, eax, -1
  00026	8b 55 fc	 mov	 edx, DWORD PTR __Ptr_user$[ebp]
  00029	8b 04 0a	 mov	 eax, DWORD PTR [edx+ecx]
  0002c	89 45 f8	 mov	 DWORD PTR __Ptr_container$[ebp], eax

; 138  : 
; 139  :     // If the following asserts, it likely means that we are performing
; 140  :     // an aligned delete on memory coming from an unaligned allocation.
; 141  :     _STL_ASSERT(_Ptr_user[-2] == _Big_allocation_sentinel, "invalid argument");
; 142  : 
; 143  :     // Extra paranoia on aligned allocation/deallocation; ensure _Ptr_container is
; 144  :     // in range [_Min_back_shift, _Non_user_size]
; 145  : #ifdef _DEBUG
; 146  :     constexpr uintptr_t _Min_back_shift = 2 * sizeof(void*);
; 147  : #else // ^^^ _DEBUG ^^^ // vvv !_DEBUG vvv
; 148  :     constexpr uintptr_t _Min_back_shift = sizeof(void*);

  0002f	c7 45 f4 04 00
	00 00		 mov	 DWORD PTR __Min_back_shift$[ebp], 4

; 149  : #endif // _DEBUG
; 150  :     const uintptr_t _Back_shift = reinterpret_cast<uintptr_t>(_Ptr) - _Ptr_container;

  00036	8b 45 08	 mov	 eax, DWORD PTR __Ptr$[ebp]
  00039	8b 08		 mov	 ecx, DWORD PTR [eax]
  0003b	2b 4d f8	 sub	 ecx, DWORD PTR __Ptr_container$[ebp]
  0003e	89 4d f0	 mov	 DWORD PTR __Back_shift$[ebp], ecx
$LN4@Adjust_man:

; 151  :     _STL_VERIFY(_Back_shift >= _Min_back_shift && _Back_shift <= _Non_user_size, "invalid argument");

  00041	83 7d f0 04	 cmp	 DWORD PTR __Back_shift$[ebp], 4
  00045	72 08		 jb	 SHORT $LN7@Adjust_man
  00047	83 7d f0 23	 cmp	 DWORD PTR __Back_shift$[ebp], 35 ; 00000023H
  0004b	77 02		 ja	 SHORT $LN7@Adjust_man
  0004d	eb 09		 jmp	 SHORT $LN2@Adjust_man
$LN7@Adjust_man:
  0004f	e8 00 00 00 00	 call	 __invalid_parameter_noinfo_noreturn
  00054	33 c0		 xor	 eax, eax
  00056	75 f7		 jne	 SHORT $LN7@Adjust_man
$LN2@Adjust_man:
  00058	33 c0		 xor	 eax, eax
  0005a	75 e5		 jne	 SHORT $LN4@Adjust_man

; 152  :     _Ptr = reinterpret_cast<void*>(_Ptr_container);

  0005c	8b 45 08	 mov	 eax, DWORD PTR __Ptr$[ebp]
  0005f	8b 4d f8	 mov	 ecx, DWORD PTR __Ptr_container$[ebp]
  00062	89 08		 mov	 DWORD PTR [eax], ecx
$LN10@Adjust_man:

; 153  : }

  00064	5f		 pop	 edi
  00065	5e		 pop	 esi
  00066	5b		 pop	 ebx
  00067	8b e5		 mov	 esp, ebp
  00069	5d		 pop	 ebp
  0006a	c3		 ret	 0
?_Adjust_manually_vector_aligned@std@@YAXAAPAXAAI@Z ENDP ; std::_Adjust_manually_vector_aligned
_TEXT	ENDS
; Function compile flags: /Odtp /ZI
; File C:\Program Files (x86)\Microsoft Visual Studio\2019\Community\VC\Tools\MSVC\14.27.29110\include\xmemory
;	COMDAT ?_Allocate@_Default_allocate_traits@std@@SAPAXI@Z
_TEXT	SEGMENT
__Bytes$ = 8						; size = 4
?_Allocate@_Default_allocate_traits@std@@SAPAXI@Z PROC	; std::_Default_allocate_traits::_Allocate, COMDAT

; 76   :     __declspec(allocator) static void* _Allocate(const size_t _Bytes) {

  00000	55		 push	 ebp
  00001	8b ec		 mov	 ebp, esp
  00003	83 ec 40	 sub	 esp, 64			; 00000040H
  00006	53		 push	 ebx
  00007	56		 push	 esi
  00008	57		 push	 edi

; 77   :         return ::operator new(_Bytes);

  00009	8b 45 08	 mov	 eax, DWORD PTR __Bytes$[ebp]
  0000c	50		 push	 eax
  0000d	e8 00 00 00 00	 call	 ??2@YAPAXI@Z		; operator new
  00012	83 c4 04	 add	 esp, 4

; 78   :     }

  00015	5f		 pop	 edi
  00016	5e		 pop	 esi
  00017	5b		 pop	 ebx
  00018	8b e5		 mov	 esp, ebp
  0001a	5d		 pop	 ebp
  0001b	c3		 ret	 0
?_Allocate@_Default_allocate_traits@std@@SAPAXI@Z ENDP	; std::_Default_allocate_traits::_Allocate
_TEXT	ENDS
; Function compile flags: /Odtp /ZI
; File C:\Program Files (x86)\Microsoft Visual Studio\2019\Community\VC\Tools\MSVC\14.27.29110\include\limits
;	COMDAT ?max@?$numeric_limits@H@std@@SAHXZ
_TEXT	SEGMENT
?max@?$numeric_limits@H@std@@SAHXZ PROC			; std::numeric_limits<int>::max, COMDAT

; 554  :     _NODISCARD static constexpr int(max)() noexcept {

  00000	55		 push	 ebp
  00001	8b ec		 mov	 ebp, esp
  00003	83 ec 40	 sub	 esp, 64			; 00000040H
  00006	53		 push	 ebx
  00007	56		 push	 esi
  00008	57		 push	 edi

; 555  :         return INT_MAX;

  00009	b8 ff ff ff 7f	 mov	 eax, 2147483647		; 7fffffffH

; 556  :     }

  0000e	5f		 pop	 edi
  0000f	5e		 pop	 esi
  00010	5b		 pop	 ebx
  00011	8b e5		 mov	 esp, ebp
  00013	5d		 pop	 ebp
  00014	c3		 ret	 0
?max@?$numeric_limits@H@std@@SAHXZ ENDP			; std::numeric_limits<int>::max
_TEXT	ENDS
; Function compile flags: /Odtp /ZI
; File C:\Program Files (x86)\Microsoft Visual Studio\2019\Community\VC\Tools\MSVC\14.27.29110\include\exception
;	COMDAT ?_Throw_bad_array_new_length@std@@YAXXZ
_TEXT	SEGMENT
$T1 = -76						; size = 12
?_Throw_bad_array_new_length@std@@YAXXZ PROC		; std::_Throw_bad_array_new_length, COMDAT

; 320  : [[noreturn]] inline void _Throw_bad_array_new_length() {

  00000	55		 push	 ebp
  00001	8b ec		 mov	 ebp, esp
  00003	83 ec 4c	 sub	 esp, 76			; 0000004cH
  00006	53		 push	 ebx
  00007	56		 push	 esi
  00008	57		 push	 edi

; 321  :     _THROW(bad_array_new_length{});

  00009	8d 4d b4	 lea	 ecx, DWORD PTR $T1[ebp]
  0000c	e8 00 00 00 00	 call	 ??0bad_array_new_length@std@@QAE@XZ ; std::bad_array_new_length::bad_array_new_length
  00011	68 00 00 00 00	 push	 OFFSET __TI3?AVbad_array_new_length@std@@
  00016	8d 45 b4	 lea	 eax, DWORD PTR $T1[ebp]
  00019	50		 push	 eax
  0001a	e8 00 00 00 00	 call	 __CxxThrowException@8
$LN2@Throw_bad_:

; 322  : }

  0001f	5f		 pop	 edi
  00020	5e		 pop	 esi
  00021	5b		 pop	 ebx
  00022	8b e5		 mov	 esp, ebp
  00024	5d		 pop	 ebp
  00025	c3		 ret	 0
?_Throw_bad_array_new_length@std@@YAXXZ ENDP		; std::_Throw_bad_array_new_length
_TEXT	ENDS
; Function compile flags: /Odtp /ZI
;	COMDAT ??_Gbad_array_new_length@std@@UAEPAXI@Z
_TEXT	SEGMENT
_this$ = -4						; size = 4
___flags$ = 8						; size = 4
??_Gbad_array_new_length@std@@UAEPAXI@Z PROC		; std::bad_array_new_length::`scalar deleting destructor', COMDAT
; _this$ = ecx
  00000	55		 push	 ebp
  00001	8b ec		 mov	 ebp, esp
  00003	83 ec 44	 sub	 esp, 68			; 00000044H
  00006	53		 push	 ebx
  00007	56		 push	 esi
  00008	57		 push	 edi
  00009	89 4d fc	 mov	 DWORD PTR _this$[ebp], ecx
  0000c	8b 4d fc	 mov	 ecx, DWORD PTR _this$[ebp]
  0000f	e8 00 00 00 00	 call	 ??1bad_array_new_length@std@@UAE@XZ
  00014	8b 45 08	 mov	 eax, DWORD PTR ___flags$[ebp]
  00017	83 e0 01	 and	 eax, 1
  0001a	74 0e		 je	 SHORT $LN2@scalar
  0001c	6a 0c		 push	 12			; 0000000cH
  0001e	8b 45 fc	 mov	 eax, DWORD PTR _this$[ebp]
  00021	50		 push	 eax
  00022	e8 00 00 00 00	 call	 ??3@YAXPAXI@Z		; operator delete
  00027	83 c4 08	 add	 esp, 8
$LN2@scalar:
  0002a	8b 45 fc	 mov	 eax, DWORD PTR _this$[ebp]
  0002d	5f		 pop	 edi
  0002e	5e		 pop	 esi
  0002f	5b		 pop	 ebx
  00030	8b e5		 mov	 esp, ebp
  00032	5d		 pop	 ebp
  00033	c2 04 00	 ret	 4
??_Gbad_array_new_length@std@@UAEPAXI@Z ENDP		; std::bad_array_new_length::`scalar deleting destructor'
_TEXT	ENDS
; Function compile flags: /Odtp /ZI
;	COMDAT ??0bad_array_new_length@std@@QAE@ABV01@@Z
_TEXT	SEGMENT
_this$ = -4						; size = 4
___that$ = 8						; size = 4
??0bad_array_new_length@std@@QAE@ABV01@@Z PROC		; std::bad_array_new_length::bad_array_new_length, COMDAT
; _this$ = ecx
  00000	55		 push	 ebp
  00001	8b ec		 mov	 ebp, esp
  00003	83 ec 44	 sub	 esp, 68			; 00000044H
  00006	53		 push	 ebx
  00007	56		 push	 esi
  00008	57		 push	 edi
  00009	89 4d fc	 mov	 DWORD PTR _this$[ebp], ecx
  0000c	8b 45 08	 mov	 eax, DWORD PTR ___that$[ebp]
  0000f	50		 push	 eax
  00010	8b 4d fc	 mov	 ecx, DWORD PTR _this$[ebp]
  00013	e8 00 00 00 00	 call	 ??0bad_alloc@std@@QAE@ABV01@@Z
  00018	8b 45 fc	 mov	 eax, DWORD PTR _this$[ebp]
  0001b	c7 00 00 00 00
	00		 mov	 DWORD PTR [eax], OFFSET ??_7bad_array_new_length@std@@6B@
  00021	8b 45 fc	 mov	 eax, DWORD PTR _this$[ebp]
  00024	5f		 pop	 edi
  00025	5e		 pop	 esi
  00026	5b		 pop	 ebx
  00027	8b e5		 mov	 esp, ebp
  00029	5d		 pop	 ebp
  0002a	c2 04 00	 ret	 4
??0bad_array_new_length@std@@QAE@ABV01@@Z ENDP		; std::bad_array_new_length::bad_array_new_length
_TEXT	ENDS
; Function compile flags: /Odtp /ZI
;	COMDAT ??1bad_array_new_length@std@@UAE@XZ
_TEXT	SEGMENT
_this$ = -4						; size = 4
??1bad_array_new_length@std@@UAE@XZ PROC		; std::bad_array_new_length::~bad_array_new_length, COMDAT
; _this$ = ecx
  00000	55		 push	 ebp
  00001	8b ec		 mov	 ebp, esp
  00003	83 ec 44	 sub	 esp, 68			; 00000044H
  00006	53		 push	 ebx
  00007	56		 push	 esi
  00008	57		 push	 edi
  00009	89 4d fc	 mov	 DWORD PTR _this$[ebp], ecx
  0000c	8b 4d fc	 mov	 ecx, DWORD PTR _this$[ebp]
  0000f	e8 00 00 00 00	 call	 ??1bad_alloc@std@@UAE@XZ
  00014	5f		 pop	 edi
  00015	5e		 pop	 esi
  00016	5b		 pop	 ebx
  00017	8b e5		 mov	 esp, ebp
  00019	5d		 pop	 ebp
  0001a	c3		 ret	 0
??1bad_array_new_length@std@@UAE@XZ ENDP		; std::bad_array_new_length::~bad_array_new_length
_TEXT	ENDS
; Function compile flags: /Odtp /ZI
; File C:\Program Files (x86)\Microsoft Visual Studio\2019\Community\VC\Tools\MSVC\14.27.29110\include\vcruntime_exception.h
;	COMDAT ??0bad_array_new_length@std@@QAE@XZ
_TEXT	SEGMENT
_this$ = -4						; size = 4
??0bad_array_new_length@std@@QAE@XZ PROC		; std::bad_array_new_length::bad_array_new_length, COMDAT
; _this$ = ecx

; 141  :     {

  00000	55		 push	 ebp
  00001	8b ec		 mov	 ebp, esp
  00003	83 ec 44	 sub	 esp, 68			; 00000044H
  00006	53		 push	 ebx
  00007	56		 push	 esi
  00008	57		 push	 edi
  00009	89 4d fc	 mov	 DWORD PTR _this$[ebp], ecx

; 140  :         : bad_alloc("bad array new length")

  0000c	68 00 00 00 00	 push	 OFFSET ??_C@_0BF@KINCDENJ@bad?5array?5new?5length@
  00011	8b 4d fc	 mov	 ecx, DWORD PTR _this$[ebp]
  00014	e8 00 00 00 00	 call	 ??0bad_alloc@std@@AAE@QBD@Z ; std::bad_alloc::bad_alloc

; 141  :     {

  00019	8b 45 fc	 mov	 eax, DWORD PTR _this$[ebp]
  0001c	c7 00 00 00 00
	00		 mov	 DWORD PTR [eax], OFFSET ??_7bad_array_new_length@std@@6B@

; 142  :     }

  00022	8b 45 fc	 mov	 eax, DWORD PTR _this$[ebp]
  00025	5f		 pop	 edi
  00026	5e		 pop	 esi
  00027	5b		 pop	 ebx
  00028	8b e5		 mov	 esp, ebp
  0002a	5d		 pop	 ebp
  0002b	c3		 ret	 0
??0bad_array_new_length@std@@QAE@XZ ENDP		; std::bad_array_new_length::bad_array_new_length
_TEXT	ENDS
; Function compile flags: /Odtp /ZI
;	COMDAT ??_Gbad_alloc@std@@UAEPAXI@Z
_TEXT	SEGMENT
_this$ = -4						; size = 4
___flags$ = 8						; size = 4
??_Gbad_alloc@std@@UAEPAXI@Z PROC			; std::bad_alloc::`scalar deleting destructor', COMDAT
; _this$ = ecx
  00000	55		 push	 ebp
  00001	8b ec		 mov	 ebp, esp
  00003	83 ec 44	 sub	 esp, 68			; 00000044H
  00006	53		 push	 ebx
  00007	56		 push	 esi
  00008	57		 push	 edi
  00009	89 4d fc	 mov	 DWORD PTR _this$[ebp], ecx
  0000c	8b 4d fc	 mov	 ecx, DWORD PTR _this$[ebp]
  0000f	e8 00 00 00 00	 call	 ??1bad_alloc@std@@UAE@XZ
  00014	8b 45 08	 mov	 eax, DWORD PTR ___flags$[ebp]
  00017	83 e0 01	 and	 eax, 1
  0001a	74 0e		 je	 SHORT $LN2@scalar
  0001c	6a 0c		 push	 12			; 0000000cH
  0001e	8b 45 fc	 mov	 eax, DWORD PTR _this$[ebp]
  00021	50		 push	 eax
  00022	e8 00 00 00 00	 call	 ??3@YAXPAXI@Z		; operator delete
  00027	83 c4 08	 add	 esp, 8
$LN2@scalar:
  0002a	8b 45 fc	 mov	 eax, DWORD PTR _this$[ebp]
  0002d	5f		 pop	 edi
  0002e	5e		 pop	 esi
  0002f	5b		 pop	 ebx
  00030	8b e5		 mov	 esp, ebp
  00032	5d		 pop	 ebp
  00033	c2 04 00	 ret	 4
??_Gbad_alloc@std@@UAEPAXI@Z ENDP			; std::bad_alloc::`scalar deleting destructor'
_TEXT	ENDS
; Function compile flags: /Odtp /ZI
;	COMDAT ??0bad_alloc@std@@QAE@ABV01@@Z
_TEXT	SEGMENT
_this$ = -4						; size = 4
___that$ = 8						; size = 4
??0bad_alloc@std@@QAE@ABV01@@Z PROC			; std::bad_alloc::bad_alloc, COMDAT
; _this$ = ecx
  00000	55		 push	 ebp
  00001	8b ec		 mov	 ebp, esp
  00003	83 ec 44	 sub	 esp, 68			; 00000044H
  00006	53		 push	 ebx
  00007	56		 push	 esi
  00008	57		 push	 edi
  00009	89 4d fc	 mov	 DWORD PTR _this$[ebp], ecx
  0000c	8b 45 08	 mov	 eax, DWORD PTR ___that$[ebp]
  0000f	50		 push	 eax
  00010	8b 4d fc	 mov	 ecx, DWORD PTR _this$[ebp]
  00013	e8 00 00 00 00	 call	 ??0exception@std@@QAE@ABV01@@Z ; std::exception::exception
  00018	8b 45 fc	 mov	 eax, DWORD PTR _this$[ebp]
  0001b	c7 00 00 00 00
	00		 mov	 DWORD PTR [eax], OFFSET ??_7bad_alloc@std@@6B@
  00021	8b 45 fc	 mov	 eax, DWORD PTR _this$[ebp]
  00024	5f		 pop	 edi
  00025	5e		 pop	 esi
  00026	5b		 pop	 ebx
  00027	8b e5		 mov	 esp, ebp
  00029	5d		 pop	 ebp
  0002a	c2 04 00	 ret	 4
??0bad_alloc@std@@QAE@ABV01@@Z ENDP			; std::bad_alloc::bad_alloc
_TEXT	ENDS
; Function compile flags: /Odtp /ZI
;	COMDAT ??1bad_alloc@std@@UAE@XZ
_TEXT	SEGMENT
_this$ = -4						; size = 4
??1bad_alloc@std@@UAE@XZ PROC				; std::bad_alloc::~bad_alloc, COMDAT
; _this$ = ecx
  00000	55		 push	 ebp
  00001	8b ec		 mov	 ebp, esp
  00003	83 ec 44	 sub	 esp, 68			; 00000044H
  00006	53		 push	 ebx
  00007	56		 push	 esi
  00008	57		 push	 edi
  00009	89 4d fc	 mov	 DWORD PTR _this$[ebp], ecx
  0000c	8b 4d fc	 mov	 ecx, DWORD PTR _this$[ebp]
  0000f	e8 00 00 00 00	 call	 ??1exception@std@@UAE@XZ ; std::exception::~exception
  00014	5f		 pop	 edi
  00015	5e		 pop	 esi
  00016	5b		 pop	 ebx
  00017	8b e5		 mov	 esp, ebp
  00019	5d		 pop	 ebp
  0001a	c3		 ret	 0
??1bad_alloc@std@@UAE@XZ ENDP				; std::bad_alloc::~bad_alloc
_TEXT	ENDS
; Function compile flags: /Odtp /ZI
; File C:\Program Files (x86)\Microsoft Visual Studio\2019\Community\VC\Tools\MSVC\14.27.29110\include\vcruntime_exception.h
;	COMDAT ??0bad_alloc@std@@AAE@QBD@Z
_TEXT	SEGMENT
_this$ = -4						; size = 4
__Message$ = 8						; size = 4
??0bad_alloc@std@@AAE@QBD@Z PROC			; std::bad_alloc::bad_alloc, COMDAT
; _this$ = ecx

; 130  :     {

  00000	55		 push	 ebp
  00001	8b ec		 mov	 ebp, esp
  00003	83 ec 44	 sub	 esp, 68			; 00000044H
  00006	53		 push	 ebx
  00007	56		 push	 esi
  00008	57		 push	 edi
  00009	89 4d fc	 mov	 DWORD PTR _this$[ebp], ecx

; 129  :         : exception(_Message, 1)

  0000c	6a 01		 push	 1
  0000e	8b 45 08	 mov	 eax, DWORD PTR __Message$[ebp]
  00011	50		 push	 eax
  00012	8b 4d fc	 mov	 ecx, DWORD PTR _this$[ebp]
  00015	e8 00 00 00 00	 call	 ??0exception@std@@QAE@QBDH@Z ; std::exception::exception

; 130  :     {

  0001a	8b 45 fc	 mov	 eax, DWORD PTR _this$[ebp]
  0001d	c7 00 00 00 00
	00		 mov	 DWORD PTR [eax], OFFSET ??_7bad_alloc@std@@6B@

; 131  :     }

  00023	8b 45 fc	 mov	 eax, DWORD PTR _this$[ebp]
  00026	5f		 pop	 edi
  00027	5e		 pop	 esi
  00028	5b		 pop	 ebx
  00029	8b e5		 mov	 esp, ebp
  0002b	5d		 pop	 ebp
  0002c	c2 04 00	 ret	 4
??0bad_alloc@std@@AAE@QBD@Z ENDP			; std::bad_alloc::bad_alloc
_TEXT	ENDS
; Function compile flags: /Odtp /ZI
;	COMDAT ??_Gexception@std@@UAEPAXI@Z
_TEXT	SEGMENT
_this$ = -4						; size = 4
___flags$ = 8						; size = 4
??_Gexception@std@@UAEPAXI@Z PROC			; std::exception::`scalar deleting destructor', COMDAT
; _this$ = ecx
  00000	55		 push	 ebp
  00001	8b ec		 mov	 ebp, esp
  00003	83 ec 44	 sub	 esp, 68			; 00000044H
  00006	53		 push	 ebx
  00007	56		 push	 esi
  00008	57		 push	 edi
  00009	89 4d fc	 mov	 DWORD PTR _this$[ebp], ecx
  0000c	8b 4d fc	 mov	 ecx, DWORD PTR _this$[ebp]
  0000f	e8 00 00 00 00	 call	 ??1exception@std@@UAE@XZ ; std::exception::~exception
  00014	8b 45 08	 mov	 eax, DWORD PTR ___flags$[ebp]
  00017	83 e0 01	 and	 eax, 1
  0001a	74 0e		 je	 SHORT $LN2@scalar
  0001c	6a 0c		 push	 12			; 0000000cH
  0001e	8b 45 fc	 mov	 eax, DWORD PTR _this$[ebp]
  00021	50		 push	 eax
  00022	e8 00 00 00 00	 call	 ??3@YAXPAXI@Z		; operator delete
  00027	83 c4 08	 add	 esp, 8
$LN2@scalar:
  0002a	8b 45 fc	 mov	 eax, DWORD PTR _this$[ebp]
  0002d	5f		 pop	 edi
  0002e	5e		 pop	 esi
  0002f	5b		 pop	 ebx
  00030	8b e5		 mov	 esp, ebp
  00032	5d		 pop	 ebp
  00033	c2 04 00	 ret	 4
??_Gexception@std@@UAEPAXI@Z ENDP			; std::exception::`scalar deleting destructor'
_TEXT	ENDS
; Function compile flags: /Odtp /ZI
; File C:\Program Files (x86)\Microsoft Visual Studio\2019\Community\VC\Tools\MSVC\14.27.29110\include\vcruntime_exception.h
;	COMDAT ?what@exception@std@@UBEPBDXZ
_TEXT	SEGMENT
tv69 = -72						; size = 4
_this$ = -4						; size = 4
?what@exception@std@@UBEPBDXZ PROC			; std::exception::what, COMDAT
; _this$ = ecx

; 94   :     {

  00000	55		 push	 ebp
  00001	8b ec		 mov	 ebp, esp
  00003	83 ec 48	 sub	 esp, 72			; 00000048H
  00006	53		 push	 ebx
  00007	56		 push	 esi
  00008	57		 push	 edi
  00009	89 4d fc	 mov	 DWORD PTR _this$[ebp], ecx

; 95   :         return _Data._What ? _Data._What : "Unknown exception";

  0000c	8b 45 fc	 mov	 eax, DWORD PTR _this$[ebp]
  0000f	83 78 04 00	 cmp	 DWORD PTR [eax+4], 0
  00013	74 0b		 je	 SHORT $LN3@what
  00015	8b 4d fc	 mov	 ecx, DWORD PTR _this$[ebp]
  00018	8b 51 04	 mov	 edx, DWORD PTR [ecx+4]
  0001b	89 55 b8	 mov	 DWORD PTR tv69[ebp], edx
  0001e	eb 07		 jmp	 SHORT $LN4@what
$LN3@what:
  00020	c7 45 b8 00 00
	00 00		 mov	 DWORD PTR tv69[ebp], OFFSET ??_C@_0BC@EOODALEL@Unknown?5exception@
$LN4@what:
  00027	8b 45 b8	 mov	 eax, DWORD PTR tv69[ebp]

; 96   :     }

  0002a	5f		 pop	 edi
  0002b	5e		 pop	 esi
  0002c	5b		 pop	 ebx
  0002d	8b e5		 mov	 esp, ebp
  0002f	5d		 pop	 ebp
  00030	c3		 ret	 0
?what@exception@std@@UBEPBDXZ ENDP			; std::exception::what
_TEXT	ENDS
; Function compile flags: /Odtp /ZI
; File C:\Program Files (x86)\Microsoft Visual Studio\2019\Community\VC\Tools\MSVC\14.27.29110\include\vcruntime_exception.h
;	COMDAT ??1exception@std@@UAE@XZ
_TEXT	SEGMENT
_this$ = -4						; size = 4
??1exception@std@@UAE@XZ PROC				; std::exception::~exception, COMDAT
; _this$ = ecx

; 89   :     {

  00000	55		 push	 ebp
  00001	8b ec		 mov	 ebp, esp
  00003	83 ec 44	 sub	 esp, 68			; 00000044H
  00006	53		 push	 ebx
  00007	56		 push	 esi
  00008	57		 push	 edi
  00009	89 4d fc	 mov	 DWORD PTR _this$[ebp], ecx
  0000c	8b 45 fc	 mov	 eax, DWORD PTR _this$[ebp]
  0000f	c7 00 00 00 00
	00		 mov	 DWORD PTR [eax], OFFSET ??_7exception@std@@6B@

; 90   :         __std_exception_destroy(&_Data);

  00015	8b 45 fc	 mov	 eax, DWORD PTR _this$[ebp]
  00018	83 c0 04	 add	 eax, 4
  0001b	50		 push	 eax
  0001c	e8 00 00 00 00	 call	 ___std_exception_destroy
  00021	83 c4 04	 add	 esp, 4

; 91   :     }

  00024	5f		 pop	 edi
  00025	5e		 pop	 esi
  00026	5b		 pop	 ebx
  00027	8b e5		 mov	 esp, ebp
  00029	5d		 pop	 ebp
  0002a	c3		 ret	 0
??1exception@std@@UAE@XZ ENDP				; std::exception::~exception
_TEXT	ENDS
; Function compile flags: /Odtp /ZI
; File C:\Program Files (x86)\Microsoft Visual Studio\2019\Community\VC\Tools\MSVC\14.27.29110\include\vcruntime_exception.h
;	COMDAT ??0exception@std@@QAE@ABV01@@Z
_TEXT	SEGMENT
_this$ = -4						; size = 4
__Other$ = 8						; size = 4
??0exception@std@@QAE@ABV01@@Z PROC			; std::exception::exception, COMDAT
; _this$ = ecx

; 72   :     {

  00000	55		 push	 ebp
  00001	8b ec		 mov	 ebp, esp
  00003	83 ec 44	 sub	 esp, 68			; 00000044H
  00006	53		 push	 ebx
  00007	56		 push	 esi
  00008	57		 push	 edi
  00009	89 4d fc	 mov	 DWORD PTR _this$[ebp], ecx
  0000c	8b 45 fc	 mov	 eax, DWORD PTR _this$[ebp]
  0000f	c7 00 00 00 00
	00		 mov	 DWORD PTR [eax], OFFSET ??_7exception@std@@6B@

; 71   :         : _Data()

  00015	33 c0		 xor	 eax, eax
  00017	8b 4d fc	 mov	 ecx, DWORD PTR _this$[ebp]
  0001a	83 c1 04	 add	 ecx, 4
  0001d	89 01		 mov	 DWORD PTR [ecx], eax
  0001f	89 41 04	 mov	 DWORD PTR [ecx+4], eax

; 73   :         __std_exception_copy(&_Other._Data, &_Data);

  00022	8b 45 fc	 mov	 eax, DWORD PTR _this$[ebp]
  00025	83 c0 04	 add	 eax, 4
  00028	50		 push	 eax
  00029	8b 4d 08	 mov	 ecx, DWORD PTR __Other$[ebp]
  0002c	83 c1 04	 add	 ecx, 4
  0002f	51		 push	 ecx
  00030	e8 00 00 00 00	 call	 ___std_exception_copy
  00035	83 c4 08	 add	 esp, 8

; 74   :     }

  00038	8b 45 fc	 mov	 eax, DWORD PTR _this$[ebp]
  0003b	5f		 pop	 edi
  0003c	5e		 pop	 esi
  0003d	5b		 pop	 ebx
  0003e	8b e5		 mov	 esp, ebp
  00040	5d		 pop	 ebp
  00041	c2 04 00	 ret	 4
??0exception@std@@QAE@ABV01@@Z ENDP			; std::exception::exception
_TEXT	ENDS
; Function compile flags: /Odtp /ZI
; File C:\Program Files (x86)\Microsoft Visual Studio\2019\Community\VC\Tools\MSVC\14.27.29110\include\vcruntime_exception.h
;	COMDAT ??0exception@std@@QAE@QBDH@Z
_TEXT	SEGMENT
_this$ = -4						; size = 4
__Message$ = 8						; size = 4
___formal$ = 12						; size = 4
??0exception@std@@QAE@QBDH@Z PROC			; std::exception::exception, COMDAT
; _this$ = ecx

; 66   :     {

  00000	55		 push	 ebp
  00001	8b ec		 mov	 ebp, esp
  00003	83 ec 44	 sub	 esp, 68			; 00000044H
  00006	53		 push	 ebx
  00007	56		 push	 esi
  00008	57		 push	 edi
  00009	89 4d fc	 mov	 DWORD PTR _this$[ebp], ecx
  0000c	8b 45 fc	 mov	 eax, DWORD PTR _this$[ebp]
  0000f	c7 00 00 00 00
	00		 mov	 DWORD PTR [eax], OFFSET ??_7exception@std@@6B@

; 65   :         : _Data()

  00015	33 c0		 xor	 eax, eax
  00017	8b 4d fc	 mov	 ecx, DWORD PTR _this$[ebp]
  0001a	83 c1 04	 add	 ecx, 4
  0001d	89 01		 mov	 DWORD PTR [ecx], eax
  0001f	89 41 04	 mov	 DWORD PTR [ecx+4], eax

; 67   :         _Data._What = _Message;

  00022	8b 45 fc	 mov	 eax, DWORD PTR _this$[ebp]
  00025	8b 4d 08	 mov	 ecx, DWORD PTR __Message$[ebp]
  00028	89 48 04	 mov	 DWORD PTR [eax+4], ecx

; 68   :     }

  0002b	8b 45 fc	 mov	 eax, DWORD PTR _this$[ebp]
  0002e	5f		 pop	 edi
  0002f	5e		 pop	 esi
  00030	5b		 pop	 ebx
  00031	8b e5		 mov	 esp, ebp
  00033	5d		 pop	 ebp
  00034	c2 08 00	 ret	 8
??0exception@std@@QAE@QBDH@Z ENDP			; std::exception::exception
_TEXT	ENDS
; Function compile flags: /Odtp /ZI
; File C:\Program Files (x86)\Microsoft Visual Studio\2019\Community\VC\Tools\MSVC\14.27.29110\include\vcruntime_new.h
;	COMDAT ??2@YAPAXIPAX@Z
_TEXT	SEGMENT
__Size$ = 8						; size = 4
__Where$ = 12						; size = 4
??2@YAPAXIPAX@Z PROC					; operator new, COMDAT

; 167  :     {

  00000	55		 push	 ebp
  00001	8b ec		 mov	 ebp, esp
  00003	83 ec 40	 sub	 esp, 64			; 00000040H
  00006	53		 push	 ebx
  00007	56		 push	 esi
  00008	57		 push	 edi

; 168  :         (void)_Size;
; 169  :         return _Where;

  00009	8b 45 0c	 mov	 eax, DWORD PTR __Where$[ebp]

; 170  :     }

  0000c	5f		 pop	 edi
  0000d	5e		 pop	 esi
  0000e	5b		 pop	 ebx
  0000f	8b e5		 mov	 esp, ebp
  00011	5d		 pop	 ebp
  00012	c3		 ret	 0
??2@YAPAXIPAX@Z ENDP					; operator new
_TEXT	ENDS
; Function compile flags: /Odtp /ZI
; File C:\Mu Online\Mu-GS-Webzen-MC-10093\GameServer\BuffHelper.cpp
;	COMDAT ?__empty_global_delete@@YAXPAXI@Z
_TEXT	SEGMENT
___formal$ = 8						; size = 4
___formal$ = 12						; size = 4
?__empty_global_delete@@YAXPAXI@Z PROC			; __empty_global_delete, COMDAT

  00000	55		 push	 ebp
  00001	8b ec		 mov	 ebp, esp
  00003	83 ec 40	 sub	 esp, 64			; 00000040H
  00006	53		 push	 ebx
  00007	56		 push	 esi
  00008	57		 push	 edi
  00009	5f		 pop	 edi
  0000a	5e		 pop	 esi
  0000b	5b		 pop	 ebx
  0000c	8b e5		 mov	 esp, ebp
  0000e	5d		 pop	 ebp
  0000f	c3		 ret	 0
?__empty_global_delete@@YAXPAXI@Z ENDP			; __empty_global_delete
_TEXT	ENDS
; Function compile flags: /Odtp /ZI
; File C:\Mu Online\Mu-GS-Webzen-MC-10093\GameServer\BuffHelper.cpp
;	COMDAT ?__empty_global_delete@@YAXPAX@Z
_TEXT	SEGMENT
___formal$ = 8						; size = 4
?__empty_global_delete@@YAXPAX@Z PROC			; __empty_global_delete, COMDAT

  00000	55		 push	 ebp
  00001	8b ec		 mov	 ebp, esp
  00003	83 ec 40	 sub	 esp, 64			; 00000040H
  00006	53		 push	 ebx
  00007	56		 push	 esi
  00008	57		 push	 edi
  00009	5f		 pop	 edi
  0000a	5e		 pop	 esi
  0000b	5b		 pop	 ebx
  0000c	8b e5		 mov	 esp, ebp
  0000e	5d		 pop	 ebp
  0000f	c3		 ret	 0
?__empty_global_delete@@YAXPAX@Z ENDP			; __empty_global_delete
_TEXT	ENDS
END
