; Listing generated by Microsoft (R) Optimizing Compiler Version 19.27.29111.0 

	TITLE	C:\Mu Online\Mu-GS-Webzen-MC-10093\GameServer\CalCharacter.cpp
	.686P
	.XMM
	include listing.inc
	.model	flat

INCLUDELIB LIBCMT
INCLUDELIB OLDNAMES

PUBLIC	?Balancer@@3VCBalancer@@A			; Balancer
_BSS	SEGMENT
?Balancer@@3VCBalancer@@A DB 0acH DUP (?)		; Balancer
_BSS	ENDS
PUBLIC	?__empty_global_delete@@YAXPAX@Z		; __empty_global_delete
PUBLIC	?__empty_global_delete@@YAXPAXI@Z		; __empty_global_delete
PUBLIC	?Load@CBalancer@@QAE_NXZ			; CBalancer::Load
PUBLIC	??_C@_0BJ@BBPOEELO@?4?4?2data?2CalCharacter?4cfg@ ; `string'
PUBLIC	??_C@_0CC@FGOCFGOC@AttackDamageMin_Bow_StrDexDiv_E@ ; `string'
PUBLIC	??_C@_06KGFFMMMJ@Damage@			; `string'
PUBLIC	??_C@_0CC@BHPFGJGE@AttackDamageMax_Bow_StrDexDiv_E@ ; `string'
PUBLIC	??_C@_0CB@KDIIOFKO@AttackDamageMin_NoBow_DexDiv_El@ ; `string'
PUBLIC	??_C@_0CB@HJAHFEKO@AttackDamageMin_NoBow_StrDiv_El@ ; `string'
PUBLIC	??_C@_0CB@LAMNADAF@AttackDamageMax_NoBow_DexDiv_El@ ; `string'
PUBLIC	??_C@_0CB@GKECLCAF@AttackDamageMax_NoBow_StrDiv_El@ ; `string'
PUBLIC	??_C@_0BO@IFECDNA@AttackDamageMin_DexStrDiv_Elf@ ; `string'
PUBLIC	??_C@_0BO@FLPCDLDE@AttackDamageMax_DexStrDiv_Elf@ ; `string'
PUBLIC	??_C@_0BK@HDHNHIB@AttackDamageMin_StrDiv_DK@	; `string'
PUBLIC	??_C@_0BK@LOBBEMPA@AttackDamageMax_StrDiv_DK@	; `string'
PUBLIC	??_C@_0BK@KEFDKDAC@AttackDamageMin_StrDiv_MG@	; `string'
PUBLIC	??_C@_0BK@MBHDKCHA@AttackDamageMin_EneDiv_MG@	; `string'
PUBLIC	??_C@_0BK@BNHFDIHD@AttackDamageMax_StrDiv_MG@	; `string'
PUBLIC	??_C@_0BK@HIFFDJAB@AttackDamageMax_EneDiv_MG@	; `string'
PUBLIC	??_C@_0BK@OBEAIKNM@AttackDamageMin_StrDiv_DW@	; `string'
PUBLIC	??_C@_0BK@FIGGBBKN@AttackDamageMax_StrDiv_DW@	; `string'
PUBLIC	??_C@_0BJ@CNHOIBBH@MagicDamageMin_StrDiv_DW@	; `string'
PUBLIC	??_C@_0BJ@JEFIBKGG@MagicDamageMax_StrDiv_DW@	; `string'
PUBLIC	??_C@_0BJ@HABEAFKM@RightDamageMin_StrDiv_DW@	; `string'
PUBLIC	??_C@_0BJ@MJDCJONN@RightDamageMax_StrDiv_DW@	; `string'
PUBLIC	??_C@_0M@HIPKNHBP@Defense_Elf@			; `string'
PUBLIC	??_C@_07PEDPFCGC@Defense@			; `string'
PUBLIC	??_C@_0L@ICMIKBHH@Defense_DK@			; `string'
PUBLIC	??_C@_0O@ICBJBLFL@Defense_DW_MG@		; `string'
PUBLIC	??_C@_0BH@MNKOAJFO@SuccessfulBlocking_Elf@	; `string'
PUBLIC	??_C@_0BG@OAKOIMJH@SuccessfulBlocking_DW@	; `string'
PUBLIC	??_C@_0BG@GNJNBMK@SuccessfulBlocking_DK@	; `string'
PUBLIC	??_C@_0BG@KFLNKFEJ@SuccessfulBlocking_MG@	; `string'
PUBLIC	??_C@_0BI@EINFKGLK@OtherSuccessfulBlocking@	; `string'
PUBLIC	??_C@_0BA@HGOIMDA@AttackSpeed_Elf@		; `string'
PUBLIC	??_C@_05HOIAGEJD@Speed@				; `string'
PUBLIC	??_C@_0P@BEMFJBKP@MagicSpeed_Elf@		; `string'
PUBLIC	??_C@_0BC@MJKMKOFN@AttackSpeed_DK_MG@		; `string'
PUBLIC	??_C@_0BB@FMHDEHPK@MagicSpeed_DK_MG@		; `string'
PUBLIC	??_C@_0P@JKOJGIGG@AttackSpeed_DW@		; `string'
PUBLIC	??_C@_0O@FNGMKBHO@MagicSpeed_DW@		; `string'
PUBLIC	??_C@_0BK@EIHGEBEG@AttackDamageMin_StrDiv_DL@	; `string'
PUBLIC	??_C@_0BK@CNFGEADE@AttackDamageMin_EneDiv_DL@	; `string'
PUBLIC	??_C@_0BK@PBFANKDH@AttackDamageMax_StrDiv_DL@	; `string'
PUBLIC	??_C@_0BK@JEHANLEF@AttackDamageMax_EneDiv_DL@	; `string'
PUBLIC	??_C@_0L@MNIJDHLA@Defense_DL@			; `string'
PUBLIC	??_C@_0BG@EJJIEHAN@SuccessfulBlocking_DL@	; `string'
PUBLIC	??_C@_0P@DDNPKDPM@AttackSpeed_DL@		; `string'
PUBLIC	??_C@_0O@PEFKGKOE@MagicSpeed_DL@		; `string'
PUBLIC	??_C@_0CE@KBCLBPKJ@?$FLCalCharacter?4cfg?$FN?5Load?$CI?$CJ?5compl@ ; `string'
EXTRN	__imp__GetPrivateProfileIntA@16:PROC
EXTRN	?LogAdd@@3P6AXPADZZA:DWORD			; LogAdd
;	COMDAT ??_C@_0CE@KBCLBPKJ@?$FLCalCharacter?4cfg?$FN?5Load?$CI?$CJ?5compl@
CONST	SEGMENT
??_C@_0CE@KBCLBPKJ@?$FLCalCharacter?4cfg?$FN?5Load?$CI?$CJ?5compl@ DB '[C'
	DB	'alCharacter.cfg] Load() completed', 00H	; `string'
CONST	ENDS
;	COMDAT ??_C@_0O@PEFKGKOE@MagicSpeed_DL@
CONST	SEGMENT
??_C@_0O@PEFKGKOE@MagicSpeed_DL@ DB 'MagicSpeed_DL', 00H ; `string'
CONST	ENDS
;	COMDAT ??_C@_0P@DDNPKDPM@AttackSpeed_DL@
CONST	SEGMENT
??_C@_0P@DDNPKDPM@AttackSpeed_DL@ DB 'AttackSpeed_DL', 00H ; `string'
CONST	ENDS
;	COMDAT ??_C@_0BG@EJJIEHAN@SuccessfulBlocking_DL@
CONST	SEGMENT
??_C@_0BG@EJJIEHAN@SuccessfulBlocking_DL@ DB 'SuccessfulBlocking_DL', 00H ; `string'
CONST	ENDS
;	COMDAT ??_C@_0L@MNIJDHLA@Defense_DL@
CONST	SEGMENT
??_C@_0L@MNIJDHLA@Defense_DL@ DB 'Defense_DL', 00H	; `string'
CONST	ENDS
;	COMDAT ??_C@_0BK@JEHANLEF@AttackDamageMax_EneDiv_DL@
CONST	SEGMENT
??_C@_0BK@JEHANLEF@AttackDamageMax_EneDiv_DL@ DB 'AttackDamageMax_EneDiv_'
	DB	'DL', 00H					; `string'
CONST	ENDS
;	COMDAT ??_C@_0BK@PBFANKDH@AttackDamageMax_StrDiv_DL@
CONST	SEGMENT
??_C@_0BK@PBFANKDH@AttackDamageMax_StrDiv_DL@ DB 'AttackDamageMax_StrDiv_'
	DB	'DL', 00H					; `string'
CONST	ENDS
;	COMDAT ??_C@_0BK@CNFGEADE@AttackDamageMin_EneDiv_DL@
CONST	SEGMENT
??_C@_0BK@CNFGEADE@AttackDamageMin_EneDiv_DL@ DB 'AttackDamageMin_EneDiv_'
	DB	'DL', 00H					; `string'
CONST	ENDS
;	COMDAT ??_C@_0BK@EIHGEBEG@AttackDamageMin_StrDiv_DL@
CONST	SEGMENT
??_C@_0BK@EIHGEBEG@AttackDamageMin_StrDiv_DL@ DB 'AttackDamageMin_StrDiv_'
	DB	'DL', 00H					; `string'
CONST	ENDS
;	COMDAT ??_C@_0O@FNGMKBHO@MagicSpeed_DW@
CONST	SEGMENT
??_C@_0O@FNGMKBHO@MagicSpeed_DW@ DB 'MagicSpeed_DW', 00H ; `string'
CONST	ENDS
;	COMDAT ??_C@_0P@JKOJGIGG@AttackSpeed_DW@
CONST	SEGMENT
??_C@_0P@JKOJGIGG@AttackSpeed_DW@ DB 'AttackSpeed_DW', 00H ; `string'
CONST	ENDS
;	COMDAT ??_C@_0BB@FMHDEHPK@MagicSpeed_DK_MG@
CONST	SEGMENT
??_C@_0BB@FMHDEHPK@MagicSpeed_DK_MG@ DB 'MagicSpeed_DK_MG', 00H ; `string'
CONST	ENDS
;	COMDAT ??_C@_0BC@MJKMKOFN@AttackSpeed_DK_MG@
CONST	SEGMENT
??_C@_0BC@MJKMKOFN@AttackSpeed_DK_MG@ DB 'AttackSpeed_DK_MG', 00H ; `string'
CONST	ENDS
;	COMDAT ??_C@_0P@BEMFJBKP@MagicSpeed_Elf@
CONST	SEGMENT
??_C@_0P@BEMFJBKP@MagicSpeed_Elf@ DB 'MagicSpeed_Elf', 00H ; `string'
CONST	ENDS
;	COMDAT ??_C@_05HOIAGEJD@Speed@
CONST	SEGMENT
??_C@_05HOIAGEJD@Speed@ DB 'Speed', 00H			; `string'
CONST	ENDS
;	COMDAT ??_C@_0BA@HGOIMDA@AttackSpeed_Elf@
CONST	SEGMENT
??_C@_0BA@HGOIMDA@AttackSpeed_Elf@ DB 'AttackSpeed_Elf', 00H ; `string'
CONST	ENDS
;	COMDAT ??_C@_0BI@EINFKGLK@OtherSuccessfulBlocking@
CONST	SEGMENT
??_C@_0BI@EINFKGLK@OtherSuccessfulBlocking@ DB 'OtherSuccessfulBlocking', 00H ; `string'
CONST	ENDS
;	COMDAT ??_C@_0BG@KFLNKFEJ@SuccessfulBlocking_MG@
CONST	SEGMENT
??_C@_0BG@KFLNKFEJ@SuccessfulBlocking_MG@ DB 'SuccessfulBlocking_MG', 00H ; `string'
CONST	ENDS
;	COMDAT ??_C@_0BG@GNJNBMK@SuccessfulBlocking_DK@
CONST	SEGMENT
??_C@_0BG@GNJNBMK@SuccessfulBlocking_DK@ DB 'SuccessfulBlocking_DK', 00H ; `string'
CONST	ENDS
;	COMDAT ??_C@_0BG@OAKOIMJH@SuccessfulBlocking_DW@
CONST	SEGMENT
??_C@_0BG@OAKOIMJH@SuccessfulBlocking_DW@ DB 'SuccessfulBlocking_DW', 00H ; `string'
CONST	ENDS
;	COMDAT ??_C@_0BH@MNKOAJFO@SuccessfulBlocking_Elf@
CONST	SEGMENT
??_C@_0BH@MNKOAJFO@SuccessfulBlocking_Elf@ DB 'SuccessfulBlocking_Elf', 00H ; `string'
CONST	ENDS
;	COMDAT ??_C@_0O@ICBJBLFL@Defense_DW_MG@
CONST	SEGMENT
??_C@_0O@ICBJBLFL@Defense_DW_MG@ DB 'Defense_DW_MG', 00H ; `string'
CONST	ENDS
;	COMDAT ??_C@_0L@ICMIKBHH@Defense_DK@
CONST	SEGMENT
??_C@_0L@ICMIKBHH@Defense_DK@ DB 'Defense_DK', 00H	; `string'
CONST	ENDS
;	COMDAT ??_C@_07PEDPFCGC@Defense@
CONST	SEGMENT
??_C@_07PEDPFCGC@Defense@ DB 'Defense', 00H		; `string'
CONST	ENDS
;	COMDAT ??_C@_0M@HIPKNHBP@Defense_Elf@
CONST	SEGMENT
??_C@_0M@HIPKNHBP@Defense_Elf@ DB 'Defense_Elf', 00H	; `string'
CONST	ENDS
;	COMDAT ??_C@_0BJ@MJDCJONN@RightDamageMax_StrDiv_DW@
CONST	SEGMENT
??_C@_0BJ@MJDCJONN@RightDamageMax_StrDiv_DW@ DB 'RightDamageMax_StrDiv_DW'
	DB	00H						; `string'
CONST	ENDS
;	COMDAT ??_C@_0BJ@HABEAFKM@RightDamageMin_StrDiv_DW@
CONST	SEGMENT
??_C@_0BJ@HABEAFKM@RightDamageMin_StrDiv_DW@ DB 'RightDamageMin_StrDiv_DW'
	DB	00H						; `string'
CONST	ENDS
;	COMDAT ??_C@_0BJ@JEFIBKGG@MagicDamageMax_StrDiv_DW@
CONST	SEGMENT
??_C@_0BJ@JEFIBKGG@MagicDamageMax_StrDiv_DW@ DB 'MagicDamageMax_StrDiv_DW'
	DB	00H						; `string'
CONST	ENDS
;	COMDAT ??_C@_0BJ@CNHOIBBH@MagicDamageMin_StrDiv_DW@
CONST	SEGMENT
??_C@_0BJ@CNHOIBBH@MagicDamageMin_StrDiv_DW@ DB 'MagicDamageMin_StrDiv_DW'
	DB	00H						; `string'
CONST	ENDS
;	COMDAT ??_C@_0BK@FIGGBBKN@AttackDamageMax_StrDiv_DW@
CONST	SEGMENT
??_C@_0BK@FIGGBBKN@AttackDamageMax_StrDiv_DW@ DB 'AttackDamageMax_StrDiv_'
	DB	'DW', 00H					; `string'
CONST	ENDS
;	COMDAT ??_C@_0BK@OBEAIKNM@AttackDamageMin_StrDiv_DW@
CONST	SEGMENT
??_C@_0BK@OBEAIKNM@AttackDamageMin_StrDiv_DW@ DB 'AttackDamageMin_StrDiv_'
	DB	'DW', 00H					; `string'
CONST	ENDS
;	COMDAT ??_C@_0BK@HIFFDJAB@AttackDamageMax_EneDiv_MG@
CONST	SEGMENT
??_C@_0BK@HIFFDJAB@AttackDamageMax_EneDiv_MG@ DB 'AttackDamageMax_EneDiv_'
	DB	'MG', 00H					; `string'
CONST	ENDS
;	COMDAT ??_C@_0BK@BNHFDIHD@AttackDamageMax_StrDiv_MG@
CONST	SEGMENT
??_C@_0BK@BNHFDIHD@AttackDamageMax_StrDiv_MG@ DB 'AttackDamageMax_StrDiv_'
	DB	'MG', 00H					; `string'
CONST	ENDS
;	COMDAT ??_C@_0BK@MBHDKCHA@AttackDamageMin_EneDiv_MG@
CONST	SEGMENT
??_C@_0BK@MBHDKCHA@AttackDamageMin_EneDiv_MG@ DB 'AttackDamageMin_EneDiv_'
	DB	'MG', 00H					; `string'
CONST	ENDS
;	COMDAT ??_C@_0BK@KEFDKDAC@AttackDamageMin_StrDiv_MG@
CONST	SEGMENT
??_C@_0BK@KEFDKDAC@AttackDamageMin_StrDiv_MG@ DB 'AttackDamageMin_StrDiv_'
	DB	'MG', 00H					; `string'
CONST	ENDS
;	COMDAT ??_C@_0BK@LOBBEMPA@AttackDamageMax_StrDiv_DK@
CONST	SEGMENT
??_C@_0BK@LOBBEMPA@AttackDamageMax_StrDiv_DK@ DB 'AttackDamageMax_StrDiv_'
	DB	'DK', 00H					; `string'
CONST	ENDS
;	COMDAT ??_C@_0BK@HDHNHIB@AttackDamageMin_StrDiv_DK@
CONST	SEGMENT
??_C@_0BK@HDHNHIB@AttackDamageMin_StrDiv_DK@ DB 'AttackDamageMin_StrDiv_D'
	DB	'K', 00H					; `string'
CONST	ENDS
;	COMDAT ??_C@_0BO@FLPCDLDE@AttackDamageMax_DexStrDiv_Elf@
CONST	SEGMENT
??_C@_0BO@FLPCDLDE@AttackDamageMax_DexStrDiv_Elf@ DB 'AttackDamageMax_Dex'
	DB	'StrDiv_Elf', 00H				; `string'
CONST	ENDS
;	COMDAT ??_C@_0BO@IFECDNA@AttackDamageMin_DexStrDiv_Elf@
CONST	SEGMENT
??_C@_0BO@IFECDNA@AttackDamageMin_DexStrDiv_Elf@ DB 'AttackDamageMin_DexS'
	DB	'trDiv_Elf', 00H				; `string'
CONST	ENDS
;	COMDAT ??_C@_0CB@GKECLCAF@AttackDamageMax_NoBow_StrDiv_El@
CONST	SEGMENT
??_C@_0CB@GKECLCAF@AttackDamageMax_NoBow_StrDiv_El@ DB 'AttackDamageMax_N'
	DB	'oBow_StrDiv_Elf', 00H			; `string'
CONST	ENDS
;	COMDAT ??_C@_0CB@LAMNADAF@AttackDamageMax_NoBow_DexDiv_El@
CONST	SEGMENT
??_C@_0CB@LAMNADAF@AttackDamageMax_NoBow_DexDiv_El@ DB 'AttackDamageMax_N'
	DB	'oBow_DexDiv_Elf', 00H			; `string'
CONST	ENDS
;	COMDAT ??_C@_0CB@HJAHFEKO@AttackDamageMin_NoBow_StrDiv_El@
CONST	SEGMENT
??_C@_0CB@HJAHFEKO@AttackDamageMin_NoBow_StrDiv_El@ DB 'AttackDamageMin_N'
	DB	'oBow_StrDiv_Elf', 00H			; `string'
CONST	ENDS
;	COMDAT ??_C@_0CB@KDIIOFKO@AttackDamageMin_NoBow_DexDiv_El@
CONST	SEGMENT
??_C@_0CB@KDIIOFKO@AttackDamageMin_NoBow_DexDiv_El@ DB 'AttackDamageMin_N'
	DB	'oBow_DexDiv_Elf', 00H			; `string'
CONST	ENDS
;	COMDAT ??_C@_0CC@BHPFGJGE@AttackDamageMax_Bow_StrDexDiv_E@
CONST	SEGMENT
??_C@_0CC@BHPFGJGE@AttackDamageMax_Bow_StrDexDiv_E@ DB 'AttackDamageMax_B'
	DB	'ow_StrDexDiv_Elf', 00H			; `string'
CONST	ENDS
;	COMDAT ??_C@_06KGFFMMMJ@Damage@
CONST	SEGMENT
??_C@_06KGFFMMMJ@Damage@ DB 'Damage', 00H		; `string'
CONST	ENDS
;	COMDAT ??_C@_0CC@FGOCFGOC@AttackDamageMin_Bow_StrDexDiv_E@
CONST	SEGMENT
??_C@_0CC@FGOCFGOC@AttackDamageMin_Bow_StrDexDiv_E@ DB 'AttackDamageMin_B'
	DB	'ow_StrDexDiv_Elf', 00H			; `string'
CONST	ENDS
;	COMDAT ??_C@_0BJ@BBPOEELO@?4?4?2data?2CalCharacter?4cfg@
CONST	SEGMENT
??_C@_0BJ@BBPOEELO@?4?4?2data?2CalCharacter?4cfg@ DB '..\data\CalCharacte'
	DB	'r.cfg', 00H					; `string'
CONST	ENDS
; Function compile flags: /Odtp /ZI
; File C:\Mu Online\Mu-GS-Webzen-MC-10093\GameServer\CalCharacter.cpp
;	COMDAT ?Load@CBalancer@@QAE_NXZ
_TEXT	SEGMENT
_this$ = -4						; size = 4
?Load@CBalancer@@QAE_NXZ PROC				; CBalancer::Load, COMDAT
; _this$ = ecx

; 6    : {

  00000	55		 push	 ebp
  00001	8b ec		 mov	 ebp, esp
  00003	83 ec 44	 sub	 esp, 68			; 00000044H
  00006	53		 push	 ebx
  00007	56		 push	 esi
  00008	57		 push	 edi
  00009	89 4d fc	 mov	 DWORD PTR _this$[ebp], ecx

; 7    : 	// Formulas
; 8    : 	AttackDamageMin_Bow_StrDexDiv_Elf = GetPrivateProfileInt("Damage","AttackDamageMin_Bow_StrDexDiv_Elf", 7, "..\\data\\CalCharacter.cfg");

  0000c	68 00 00 00 00	 push	 OFFSET ??_C@_0BJ@BBPOEELO@?4?4?2data?2CalCharacter?4cfg@
  00011	6a 07		 push	 7
  00013	68 00 00 00 00	 push	 OFFSET ??_C@_0CC@FGOCFGOC@AttackDamageMin_Bow_StrDexDiv_E@
  00018	68 00 00 00 00	 push	 OFFSET ??_C@_06KGFFMMMJ@Damage@
  0001d	ff 15 00 00 00
	00		 call	 DWORD PTR __imp__GetPrivateProfileIntA@16
  00023	8b 4d fc	 mov	 ecx, DWORD PTR _this$[ebp]
  00026	89 01		 mov	 DWORD PTR [ecx], eax

; 9    : 	AttackDamageMax_Bow_StrDexDiv_Elf = GetPrivateProfileInt("Damage","AttackDamageMax_Bow_StrDexDiv_Elf", 4, "..\\data\\CalCharacter.cfg");

  00028	68 00 00 00 00	 push	 OFFSET ??_C@_0BJ@BBPOEELO@?4?4?2data?2CalCharacter?4cfg@
  0002d	6a 04		 push	 4
  0002f	68 00 00 00 00	 push	 OFFSET ??_C@_0CC@BHPFGJGE@AttackDamageMax_Bow_StrDexDiv_E@
  00034	68 00 00 00 00	 push	 OFFSET ??_C@_06KGFFMMMJ@Damage@
  00039	ff 15 00 00 00
	00		 call	 DWORD PTR __imp__GetPrivateProfileIntA@16
  0003f	8b 4d fc	 mov	 ecx, DWORD PTR _this$[ebp]
  00042	89 41 04	 mov	 DWORD PTR [ecx+4], eax

; 10   : 	AttackDamageMin_NoBow_DexDiv_Elf = GetPrivateProfileInt("Damage","AttackDamageMin_NoBow_DexDiv_Elf", 7, "..\\data\\CalCharacter.cfg");

  00045	68 00 00 00 00	 push	 OFFSET ??_C@_0BJ@BBPOEELO@?4?4?2data?2CalCharacter?4cfg@
  0004a	6a 07		 push	 7
  0004c	68 00 00 00 00	 push	 OFFSET ??_C@_0CB@KDIIOFKO@AttackDamageMin_NoBow_DexDiv_El@
  00051	68 00 00 00 00	 push	 OFFSET ??_C@_06KGFFMMMJ@Damage@
  00056	ff 15 00 00 00
	00		 call	 DWORD PTR __imp__GetPrivateProfileIntA@16
  0005c	8b 4d fc	 mov	 ecx, DWORD PTR _this$[ebp]
  0005f	89 41 08	 mov	 DWORD PTR [ecx+8], eax

; 11   : 	AttackDamageMin_NoBow_StrDiv_Elf = GetPrivateProfileInt("Damage","AttackDamageMin_NoBow_StrDiv_Elf", 14, "..\\data\\CalCharacter.cfg");

  00062	68 00 00 00 00	 push	 OFFSET ??_C@_0BJ@BBPOEELO@?4?4?2data?2CalCharacter?4cfg@
  00067	6a 0e		 push	 14			; 0000000eH
  00069	68 00 00 00 00	 push	 OFFSET ??_C@_0CB@HJAHFEKO@AttackDamageMin_NoBow_StrDiv_El@
  0006e	68 00 00 00 00	 push	 OFFSET ??_C@_06KGFFMMMJ@Damage@
  00073	ff 15 00 00 00
	00		 call	 DWORD PTR __imp__GetPrivateProfileIntA@16
  00079	8b 4d fc	 mov	 ecx, DWORD PTR _this$[ebp]
  0007c	89 41 0c	 mov	 DWORD PTR [ecx+12], eax

; 12   : 	AttackDamageMax_NoBow_DexDiv_Elf = GetPrivateProfileInt("Damage","AttackDamageMax_NoBow_DexDiv_Elf", 4, "..\\data\\CalCharacter.cfg");

  0007f	68 00 00 00 00	 push	 OFFSET ??_C@_0BJ@BBPOEELO@?4?4?2data?2CalCharacter?4cfg@
  00084	6a 04		 push	 4
  00086	68 00 00 00 00	 push	 OFFSET ??_C@_0CB@LAMNADAF@AttackDamageMax_NoBow_DexDiv_El@
  0008b	68 00 00 00 00	 push	 OFFSET ??_C@_06KGFFMMMJ@Damage@
  00090	ff 15 00 00 00
	00		 call	 DWORD PTR __imp__GetPrivateProfileIntA@16
  00096	8b 4d fc	 mov	 ecx, DWORD PTR _this$[ebp]
  00099	89 41 10	 mov	 DWORD PTR [ecx+16], eax

; 13   : 	AttackDamageMax_NoBow_StrDiv_Elf = GetPrivateProfileInt("Damage","AttackDamageMax_NoBow_StrDiv_Elf", 8, "..\\data\\CalCharacter.cfg");

  0009c	68 00 00 00 00	 push	 OFFSET ??_C@_0BJ@BBPOEELO@?4?4?2data?2CalCharacter?4cfg@
  000a1	6a 08		 push	 8
  000a3	68 00 00 00 00	 push	 OFFSET ??_C@_0CB@GKECLCAF@AttackDamageMax_NoBow_StrDiv_El@
  000a8	68 00 00 00 00	 push	 OFFSET ??_C@_06KGFFMMMJ@Damage@
  000ad	ff 15 00 00 00
	00		 call	 DWORD PTR __imp__GetPrivateProfileIntA@16
  000b3	8b 4d fc	 mov	 ecx, DWORD PTR _this$[ebp]
  000b6	89 41 14	 mov	 DWORD PTR [ecx+20], eax

; 14   : 	AttackDamageMin_DexStrDiv_Elf = GetPrivateProfileInt("Damage","AttackDamageMin_DexStrDiv_Elf", 7, "..\\data\\CalCharacter.cfg");

  000b9	68 00 00 00 00	 push	 OFFSET ??_C@_0BJ@BBPOEELO@?4?4?2data?2CalCharacter?4cfg@
  000be	6a 07		 push	 7
  000c0	68 00 00 00 00	 push	 OFFSET ??_C@_0BO@IFECDNA@AttackDamageMin_DexStrDiv_Elf@
  000c5	68 00 00 00 00	 push	 OFFSET ??_C@_06KGFFMMMJ@Damage@
  000ca	ff 15 00 00 00
	00		 call	 DWORD PTR __imp__GetPrivateProfileIntA@16
  000d0	8b 4d fc	 mov	 ecx, DWORD PTR _this$[ebp]
  000d3	89 41 18	 mov	 DWORD PTR [ecx+24], eax

; 15   : 	AttackDamageMax_DexStrDiv_Elf = GetPrivateProfileInt("Damage","AttackDamageMax_DexStrDiv_Elf", 4, "..\\data\\CalCharacter.cfg");

  000d6	68 00 00 00 00	 push	 OFFSET ??_C@_0BJ@BBPOEELO@?4?4?2data?2CalCharacter?4cfg@
  000db	6a 04		 push	 4
  000dd	68 00 00 00 00	 push	 OFFSET ??_C@_0BO@FLPCDLDE@AttackDamageMax_DexStrDiv_Elf@
  000e2	68 00 00 00 00	 push	 OFFSET ??_C@_06KGFFMMMJ@Damage@
  000e7	ff 15 00 00 00
	00		 call	 DWORD PTR __imp__GetPrivateProfileIntA@16
  000ed	8b 4d fc	 mov	 ecx, DWORD PTR _this$[ebp]
  000f0	89 41 1c	 mov	 DWORD PTR [ecx+28], eax

; 16   : 	AttackDamageMin_StrDiv_DK = GetPrivateProfileInt("Damage","AttackDamageMin_StrDiv_DK", 6, "..\\data\\CalCharacter.cfg");

  000f3	68 00 00 00 00	 push	 OFFSET ??_C@_0BJ@BBPOEELO@?4?4?2data?2CalCharacter?4cfg@
  000f8	6a 06		 push	 6
  000fa	68 00 00 00 00	 push	 OFFSET ??_C@_0BK@HDHNHIB@AttackDamageMin_StrDiv_DK@
  000ff	68 00 00 00 00	 push	 OFFSET ??_C@_06KGFFMMMJ@Damage@
  00104	ff 15 00 00 00
	00		 call	 DWORD PTR __imp__GetPrivateProfileIntA@16
  0010a	8b 4d fc	 mov	 ecx, DWORD PTR _this$[ebp]
  0010d	89 41 20	 mov	 DWORD PTR [ecx+32], eax

; 17   : 	AttackDamageMax_StrDiv_DK = GetPrivateProfileInt("Damage","AttackDamageMax_StrDiv_DK", 4, "..\\data\\CalCharacter.cfg");

  00110	68 00 00 00 00	 push	 OFFSET ??_C@_0BJ@BBPOEELO@?4?4?2data?2CalCharacter?4cfg@
  00115	6a 04		 push	 4
  00117	68 00 00 00 00	 push	 OFFSET ??_C@_0BK@LOBBEMPA@AttackDamageMax_StrDiv_DK@
  0011c	68 00 00 00 00	 push	 OFFSET ??_C@_06KGFFMMMJ@Damage@
  00121	ff 15 00 00 00
	00		 call	 DWORD PTR __imp__GetPrivateProfileIntA@16
  00127	8b 4d fc	 mov	 ecx, DWORD PTR _this$[ebp]
  0012a	89 41 24	 mov	 DWORD PTR [ecx+36], eax

; 18   : 
; 19   : 	AttackDamageMin_StrDiv_MG = GetPrivateProfileInt("Damage","AttackDamageMin_StrDiv_MG", 6, "..\\data\\CalCharacter.cfg");

  0012d	68 00 00 00 00	 push	 OFFSET ??_C@_0BJ@BBPOEELO@?4?4?2data?2CalCharacter?4cfg@
  00132	6a 06		 push	 6
  00134	68 00 00 00 00	 push	 OFFSET ??_C@_0BK@KEFDKDAC@AttackDamageMin_StrDiv_MG@
  00139	68 00 00 00 00	 push	 OFFSET ??_C@_06KGFFMMMJ@Damage@
  0013e	ff 15 00 00 00
	00		 call	 DWORD PTR __imp__GetPrivateProfileIntA@16
  00144	8b 4d fc	 mov	 ecx, DWORD PTR _this$[ebp]
  00147	89 41 28	 mov	 DWORD PTR [ecx+40], eax

; 20   : 	AttackDamageMin_EneDiv_MG = GetPrivateProfileInt("Damage","AttackDamageMin_EneDiv_MG", 12, "..\\data\\CalCharacter.cfg");

  0014a	68 00 00 00 00	 push	 OFFSET ??_C@_0BJ@BBPOEELO@?4?4?2data?2CalCharacter?4cfg@
  0014f	6a 0c		 push	 12			; 0000000cH
  00151	68 00 00 00 00	 push	 OFFSET ??_C@_0BK@MBHDKCHA@AttackDamageMin_EneDiv_MG@
  00156	68 00 00 00 00	 push	 OFFSET ??_C@_06KGFFMMMJ@Damage@
  0015b	ff 15 00 00 00
	00		 call	 DWORD PTR __imp__GetPrivateProfileIntA@16
  00161	8b 4d fc	 mov	 ecx, DWORD PTR _this$[ebp]
  00164	89 41 2c	 mov	 DWORD PTR [ecx+44], eax

; 21   : 	AttackDamageMax_StrDiv_MG = GetPrivateProfileInt("Damage","AttackDamageMax_StrDiv_MG", 4, "..\\data\\CalCharacter.cfg");

  00167	68 00 00 00 00	 push	 OFFSET ??_C@_0BJ@BBPOEELO@?4?4?2data?2CalCharacter?4cfg@
  0016c	6a 04		 push	 4
  0016e	68 00 00 00 00	 push	 OFFSET ??_C@_0BK@BNHFDIHD@AttackDamageMax_StrDiv_MG@
  00173	68 00 00 00 00	 push	 OFFSET ??_C@_06KGFFMMMJ@Damage@
  00178	ff 15 00 00 00
	00		 call	 DWORD PTR __imp__GetPrivateProfileIntA@16
  0017e	8b 4d fc	 mov	 ecx, DWORD PTR _this$[ebp]
  00181	89 41 30	 mov	 DWORD PTR [ecx+48], eax

; 22   : 	AttackDamageMax_EneDiv_MG = GetPrivateProfileInt("Damage","AttackDamageMax_EneDiv_MG", 8, "..\\data\\CalCharacter.cfg");

  00184	68 00 00 00 00	 push	 OFFSET ??_C@_0BJ@BBPOEELO@?4?4?2data?2CalCharacter?4cfg@
  00189	6a 08		 push	 8
  0018b	68 00 00 00 00	 push	 OFFSET ??_C@_0BK@HIFFDJAB@AttackDamageMax_EneDiv_MG@
  00190	68 00 00 00 00	 push	 OFFSET ??_C@_06KGFFMMMJ@Damage@
  00195	ff 15 00 00 00
	00		 call	 DWORD PTR __imp__GetPrivateProfileIntA@16
  0019b	8b 4d fc	 mov	 ecx, DWORD PTR _this$[ebp]
  0019e	89 41 34	 mov	 DWORD PTR [ecx+52], eax

; 23   : 
; 24   : 	AttackDamageMin_StrDiv_DW = GetPrivateProfileInt("Damage","AttackDamageMin_StrDiv_DW", 8, "..\\data\\CalCharacter.cfg");

  001a1	68 00 00 00 00	 push	 OFFSET ??_C@_0BJ@BBPOEELO@?4?4?2data?2CalCharacter?4cfg@
  001a6	6a 08		 push	 8
  001a8	68 00 00 00 00	 push	 OFFSET ??_C@_0BK@OBEAIKNM@AttackDamageMin_StrDiv_DW@
  001ad	68 00 00 00 00	 push	 OFFSET ??_C@_06KGFFMMMJ@Damage@
  001b2	ff 15 00 00 00
	00		 call	 DWORD PTR __imp__GetPrivateProfileIntA@16
  001b8	8b 4d fc	 mov	 ecx, DWORD PTR _this$[ebp]
  001bb	89 41 38	 mov	 DWORD PTR [ecx+56], eax

; 25   : 	AttackDamageMax_StrDiv_DW = GetPrivateProfileInt("Damage","AttackDamageMax_StrDiv_DW", 4, "..\\data\\CalCharacter.cfg");

  001be	68 00 00 00 00	 push	 OFFSET ??_C@_0BJ@BBPOEELO@?4?4?2data?2CalCharacter?4cfg@
  001c3	6a 04		 push	 4
  001c5	68 00 00 00 00	 push	 OFFSET ??_C@_0BK@FIGGBBKN@AttackDamageMax_StrDiv_DW@
  001ca	68 00 00 00 00	 push	 OFFSET ??_C@_06KGFFMMMJ@Damage@
  001cf	ff 15 00 00 00
	00		 call	 DWORD PTR __imp__GetPrivateProfileIntA@16
  001d5	8b 4d fc	 mov	 ecx, DWORD PTR _this$[ebp]
  001d8	89 41 3c	 mov	 DWORD PTR [ecx+60], eax

; 26   : 	MagicDamageMin = GetPrivateProfileInt("Damage","MagicDamageMin_StrDiv_DW", 9, "..\\data\\CalCharacter.cfg");

  001db	68 00 00 00 00	 push	 OFFSET ??_C@_0BJ@BBPOEELO@?4?4?2data?2CalCharacter?4cfg@
  001e0	6a 09		 push	 9
  001e2	68 00 00 00 00	 push	 OFFSET ??_C@_0BJ@CNHOIBBH@MagicDamageMin_StrDiv_DW@
  001e7	68 00 00 00 00	 push	 OFFSET ??_C@_06KGFFMMMJ@Damage@
  001ec	ff 15 00 00 00
	00		 call	 DWORD PTR __imp__GetPrivateProfileIntA@16
  001f2	8b 4d fc	 mov	 ecx, DWORD PTR _this$[ebp]
  001f5	89 41 40	 mov	 DWORD PTR [ecx+64], eax

; 27   : 	MagicDamageMax = GetPrivateProfileInt("Damage","MagicDamageMax_StrDiv_DW", 4, "..\\data\\CalCharacter.cfg");

  001f8	68 00 00 00 00	 push	 OFFSET ??_C@_0BJ@BBPOEELO@?4?4?2data?2CalCharacter?4cfg@
  001fd	6a 04		 push	 4
  001ff	68 00 00 00 00	 push	 OFFSET ??_C@_0BJ@JEFIBKGG@MagicDamageMax_StrDiv_DW@
  00204	68 00 00 00 00	 push	 OFFSET ??_C@_06KGFFMMMJ@Damage@
  00209	ff 15 00 00 00
	00		 call	 DWORD PTR __imp__GetPrivateProfileIntA@16
  0020f	8b 4d fc	 mov	 ecx, DWORD PTR _this$[ebp]
  00212	89 41 44	 mov	 DWORD PTR [ecx+68], eax

; 28   : 	RightDamageMinDW = GetPrivateProfileInt("Damage","RightDamageMin_StrDiv_DW", 2, "..\\data\\CalCharacter.cfg");

  00215	68 00 00 00 00	 push	 OFFSET ??_C@_0BJ@BBPOEELO@?4?4?2data?2CalCharacter?4cfg@
  0021a	6a 02		 push	 2
  0021c	68 00 00 00 00	 push	 OFFSET ??_C@_0BJ@HABEAFKM@RightDamageMin_StrDiv_DW@
  00221	68 00 00 00 00	 push	 OFFSET ??_C@_06KGFFMMMJ@Damage@
  00226	ff 15 00 00 00
	00		 call	 DWORD PTR __imp__GetPrivateProfileIntA@16
  0022c	8b 4d fc	 mov	 ecx, DWORD PTR _this$[ebp]
  0022f	89 41 68	 mov	 DWORD PTR [ecx+104], eax

; 29   : 	RightDamageMaxDW = GetPrivateProfileInt("Damage","RightDamageMax_StrDiv_DW", 2, "..\\data\\CalCharacter.cfg");

  00232	68 00 00 00 00	 push	 OFFSET ??_C@_0BJ@BBPOEELO@?4?4?2data?2CalCharacter?4cfg@
  00237	6a 02		 push	 2
  00239	68 00 00 00 00	 push	 OFFSET ??_C@_0BJ@MJDCJONN@RightDamageMax_StrDiv_DW@
  0023e	68 00 00 00 00	 push	 OFFSET ??_C@_06KGFFMMMJ@Damage@
  00243	ff 15 00 00 00
	00		 call	 DWORD PTR __imp__GetPrivateProfileIntA@16
  00249	8b 4d fc	 mov	 ecx, DWORD PTR _this$[ebp]
  0024c	89 41 6c	 mov	 DWORD PTR [ecx+108], eax

; 30   : 
; 31   : 	Defense_Elf = GetPrivateProfileInt("Defense","Defense_Elf", 10, "..\\data\\CalCharacter.cfg");

  0024f	68 00 00 00 00	 push	 OFFSET ??_C@_0BJ@BBPOEELO@?4?4?2data?2CalCharacter?4cfg@
  00254	6a 0a		 push	 10			; 0000000aH
  00256	68 00 00 00 00	 push	 OFFSET ??_C@_0M@HIPKNHBP@Defense_Elf@
  0025b	68 00 00 00 00	 push	 OFFSET ??_C@_07PEDPFCGC@Defense@
  00260	ff 15 00 00 00
	00		 call	 DWORD PTR __imp__GetPrivateProfileIntA@16
  00266	8b 4d fc	 mov	 ecx, DWORD PTR _this$[ebp]
  00269	89 41 48	 mov	 DWORD PTR [ecx+72], eax

; 32   : 	Defense_DK = GetPrivateProfileInt("Defense","Defense_DK", 3, "..\\data\\CalCharacter.cfg");

  0026c	68 00 00 00 00	 push	 OFFSET ??_C@_0BJ@BBPOEELO@?4?4?2data?2CalCharacter?4cfg@
  00271	6a 03		 push	 3
  00273	68 00 00 00 00	 push	 OFFSET ??_C@_0L@ICMIKBHH@Defense_DK@
  00278	68 00 00 00 00	 push	 OFFSET ??_C@_07PEDPFCGC@Defense@
  0027d	ff 15 00 00 00
	00		 call	 DWORD PTR __imp__GetPrivateProfileIntA@16
  00283	8b 4d fc	 mov	 ecx, DWORD PTR _this$[ebp]
  00286	89 41 4c	 mov	 DWORD PTR [ecx+76], eax

; 33   : 	Defense_DW_MG = GetPrivateProfileInt("Defense","Defense_DW_MG", 4, "..\\data\\CalCharacter.cfg");

  00289	68 00 00 00 00	 push	 OFFSET ??_C@_0BJ@BBPOEELO@?4?4?2data?2CalCharacter?4cfg@
  0028e	6a 04		 push	 4
  00290	68 00 00 00 00	 push	 OFFSET ??_C@_0O@ICBJBLFL@Defense_DW_MG@
  00295	68 00 00 00 00	 push	 OFFSET ??_C@_07PEDPFCGC@Defense@
  0029a	ff 15 00 00 00
	00		 call	 DWORD PTR __imp__GetPrivateProfileIntA@16
  002a0	8b 4d fc	 mov	 ecx, DWORD PTR _this$[ebp]
  002a3	89 41 50	 mov	 DWORD PTR [ecx+80], eax

; 34   : 
; 35   : 	SuccessfulBlocking_Elf = GetPrivateProfileInt("Defense","SuccessfulBlocking_Elf", 4, "..\\data\\CalCharacter.cfg");

  002a6	68 00 00 00 00	 push	 OFFSET ??_C@_0BJ@BBPOEELO@?4?4?2data?2CalCharacter?4cfg@
  002ab	6a 04		 push	 4
  002ad	68 00 00 00 00	 push	 OFFSET ??_C@_0BH@MNKOAJFO@SuccessfulBlocking_Elf@
  002b2	68 00 00 00 00	 push	 OFFSET ??_C@_07PEDPFCGC@Defense@
  002b7	ff 15 00 00 00
	00		 call	 DWORD PTR __imp__GetPrivateProfileIntA@16
  002bd	8b 4d fc	 mov	 ecx, DWORD PTR _this$[ebp]
  002c0	89 41 54	 mov	 DWORD PTR [ecx+84], eax

; 36   : 	SuccessfulBlocking_DW = GetPrivateProfileInt("Defense","SuccessfulBlocking_DW", 3, "..\\data\\CalCharacter.cfg");

  002c3	68 00 00 00 00	 push	 OFFSET ??_C@_0BJ@BBPOEELO@?4?4?2data?2CalCharacter?4cfg@
  002c8	6a 03		 push	 3
  002ca	68 00 00 00 00	 push	 OFFSET ??_C@_0BG@OAKOIMJH@SuccessfulBlocking_DW@
  002cf	68 00 00 00 00	 push	 OFFSET ??_C@_07PEDPFCGC@Defense@
  002d4	ff 15 00 00 00
	00		 call	 DWORD PTR __imp__GetPrivateProfileIntA@16
  002da	8b 4d fc	 mov	 ecx, DWORD PTR _this$[ebp]
  002dd	89 41 58	 mov	 DWORD PTR [ecx+88], eax

; 37   : 	SuccessfulBlocking_DK = GetPrivateProfileInt("Defense","SuccessfulBlocking_DK", 3, "..\\data\\CalCharacter.cfg");

  002e0	68 00 00 00 00	 push	 OFFSET ??_C@_0BJ@BBPOEELO@?4?4?2data?2CalCharacter?4cfg@
  002e5	6a 03		 push	 3
  002e7	68 00 00 00 00	 push	 OFFSET ??_C@_0BG@GNJNBMK@SuccessfulBlocking_DK@
  002ec	68 00 00 00 00	 push	 OFFSET ??_C@_07PEDPFCGC@Defense@
  002f1	ff 15 00 00 00
	00		 call	 DWORD PTR __imp__GetPrivateProfileIntA@16
  002f7	8b 4d fc	 mov	 ecx, DWORD PTR _this$[ebp]
  002fa	89 41 60	 mov	 DWORD PTR [ecx+96], eax

; 38   : 	SuccessfulBlocking_MG = GetPrivateProfileInt("Defense","SuccessfulBlocking_MG", 3, "..\\data\\CalCharacter.cfg");

  002fd	68 00 00 00 00	 push	 OFFSET ??_C@_0BJ@BBPOEELO@?4?4?2data?2CalCharacter?4cfg@
  00302	6a 03		 push	 3
  00304	68 00 00 00 00	 push	 OFFSET ??_C@_0BG@KFLNKFEJ@SuccessfulBlocking_MG@
  00309	68 00 00 00 00	 push	 OFFSET ??_C@_07PEDPFCGC@Defense@
  0030e	ff 15 00 00 00
	00		 call	 DWORD PTR __imp__GetPrivateProfileIntA@16
  00314	8b 4d fc	 mov	 ecx, DWORD PTR _this$[ebp]
  00317	89 41 5c	 mov	 DWORD PTR [ecx+92], eax

; 39   : 	OtherSuccessfulBlocking = GetPrivateProfileInt("Defense","OtherSuccessfulBlocking", 3, "..\\data\\CalCharacter.cfg");

  0031a	68 00 00 00 00	 push	 OFFSET ??_C@_0BJ@BBPOEELO@?4?4?2data?2CalCharacter?4cfg@
  0031f	6a 03		 push	 3
  00321	68 00 00 00 00	 push	 OFFSET ??_C@_0BI@EINFKGLK@OtherSuccessfulBlocking@
  00326	68 00 00 00 00	 push	 OFFSET ??_C@_07PEDPFCGC@Defense@
  0032b	ff 15 00 00 00
	00		 call	 DWORD PTR __imp__GetPrivateProfileIntA@16
  00331	8b 4d fc	 mov	 ecx, DWORD PTR _this$[ebp]
  00334	89 41 64	 mov	 DWORD PTR [ecx+100], eax

; 40   : 
; 41   : 	AttackSpeed_Elf = GetPrivateProfileInt("Speed","AttackSpeed_Elf", 50, "..\\data\\CalCharacter.cfg");

  00337	68 00 00 00 00	 push	 OFFSET ??_C@_0BJ@BBPOEELO@?4?4?2data?2CalCharacter?4cfg@
  0033c	6a 32		 push	 50			; 00000032H
  0033e	68 00 00 00 00	 push	 OFFSET ??_C@_0BA@HGOIMDA@AttackSpeed_Elf@
  00343	68 00 00 00 00	 push	 OFFSET ??_C@_05HOIAGEJD@Speed@
  00348	ff 15 00 00 00
	00		 call	 DWORD PTR __imp__GetPrivateProfileIntA@16
  0034e	8b 4d fc	 mov	 ecx, DWORD PTR _this$[ebp]
  00351	89 41 70	 mov	 DWORD PTR [ecx+112], eax

; 42   : 	MagicSpeed_Elf = GetPrivateProfileInt("Speed","MagicSpeed_Elf", 50, "..\\data\\CalCharacter.cfg");

  00354	68 00 00 00 00	 push	 OFFSET ??_C@_0BJ@BBPOEELO@?4?4?2data?2CalCharacter?4cfg@
  00359	6a 32		 push	 50			; 00000032H
  0035b	68 00 00 00 00	 push	 OFFSET ??_C@_0P@BEMFJBKP@MagicSpeed_Elf@
  00360	68 00 00 00 00	 push	 OFFSET ??_C@_05HOIAGEJD@Speed@
  00365	ff 15 00 00 00
	00		 call	 DWORD PTR __imp__GetPrivateProfileIntA@16
  0036b	8b 4d fc	 mov	 ecx, DWORD PTR _this$[ebp]
  0036e	89 41 74	 mov	 DWORD PTR [ecx+116], eax

; 43   : 	AttackSpeed_DK_MG = GetPrivateProfileInt("Speed","AttackSpeed_DK_MG", 15, "..\\data\\CalCharacter.cfg");

  00371	68 00 00 00 00	 push	 OFFSET ??_C@_0BJ@BBPOEELO@?4?4?2data?2CalCharacter?4cfg@
  00376	6a 0f		 push	 15			; 0000000fH
  00378	68 00 00 00 00	 push	 OFFSET ??_C@_0BC@MJKMKOFN@AttackSpeed_DK_MG@
  0037d	68 00 00 00 00	 push	 OFFSET ??_C@_05HOIAGEJD@Speed@
  00382	ff 15 00 00 00
	00		 call	 DWORD PTR __imp__GetPrivateProfileIntA@16
  00388	8b 4d fc	 mov	 ecx, DWORD PTR _this$[ebp]
  0038b	89 41 78	 mov	 DWORD PTR [ecx+120], eax

; 44   : 	MagicSpeed_DK_MG = GetPrivateProfileInt("Speed","MagicSpeed_DK_MG", 20, "..\\data\\CalCharacter.cfg");

  0038e	68 00 00 00 00	 push	 OFFSET ??_C@_0BJ@BBPOEELO@?4?4?2data?2CalCharacter?4cfg@
  00393	6a 14		 push	 20			; 00000014H
  00395	68 00 00 00 00	 push	 OFFSET ??_C@_0BB@FMHDEHPK@MagicSpeed_DK_MG@
  0039a	68 00 00 00 00	 push	 OFFSET ??_C@_05HOIAGEJD@Speed@
  0039f	ff 15 00 00 00
	00		 call	 DWORD PTR __imp__GetPrivateProfileIntA@16
  003a5	8b 4d fc	 mov	 ecx, DWORD PTR _this$[ebp]
  003a8	89 41 7c	 mov	 DWORD PTR [ecx+124], eax

; 45   : 	AttackSpeed_DW = GetPrivateProfileInt("Speed","AttackSpeed_DW", 20, "..\\data\\CalCharacter.cfg");

  003ab	68 00 00 00 00	 push	 OFFSET ??_C@_0BJ@BBPOEELO@?4?4?2data?2CalCharacter?4cfg@
  003b0	6a 14		 push	 20			; 00000014H
  003b2	68 00 00 00 00	 push	 OFFSET ??_C@_0P@JKOJGIGG@AttackSpeed_DW@
  003b7	68 00 00 00 00	 push	 OFFSET ??_C@_05HOIAGEJD@Speed@
  003bc	ff 15 00 00 00
	00		 call	 DWORD PTR __imp__GetPrivateProfileIntA@16
  003c2	8b 4d fc	 mov	 ecx, DWORD PTR _this$[ebp]
  003c5	89 81 80 00 00
	00		 mov	 DWORD PTR [ecx+128], eax

; 46   : 	MagicSpeed_DW = GetPrivateProfileInt("Speed","MagicSpeed_DW", 10, "..\\data\\CalCharacter.cfg");

  003cb	68 00 00 00 00	 push	 OFFSET ??_C@_0BJ@BBPOEELO@?4?4?2data?2CalCharacter?4cfg@
  003d0	6a 0a		 push	 10			; 0000000aH
  003d2	68 00 00 00 00	 push	 OFFSET ??_C@_0O@FNGMKBHO@MagicSpeed_DW@
  003d7	68 00 00 00 00	 push	 OFFSET ??_C@_05HOIAGEJD@Speed@
  003dc	ff 15 00 00 00
	00		 call	 DWORD PTR __imp__GetPrivateProfileIntA@16
  003e2	8b 4d fc	 mov	 ecx, DWORD PTR _this$[ebp]
  003e5	89 81 84 00 00
	00		 mov	 DWORD PTR [ecx+132], eax

; 47   : 
; 48   : #ifdef DARKLORD_WORK
; 49   : 	AttackDamageMin_StrDiv_DL = GetPrivateProfileInt("Damage","AttackDamageMin_StrDiv_DL", 7, "..\\data\\CalCharacter.cfg");

  003eb	68 00 00 00 00	 push	 OFFSET ??_C@_0BJ@BBPOEELO@?4?4?2data?2CalCharacter?4cfg@
  003f0	6a 07		 push	 7
  003f2	68 00 00 00 00	 push	 OFFSET ??_C@_0BK@EIHGEBEG@AttackDamageMin_StrDiv_DL@
  003f7	68 00 00 00 00	 push	 OFFSET ??_C@_06KGFFMMMJ@Damage@
  003fc	ff 15 00 00 00
	00		 call	 DWORD PTR __imp__GetPrivateProfileIntA@16
  00402	8b 4d fc	 mov	 ecx, DWORD PTR _this$[ebp]
  00405	89 81 8c 00 00
	00		 mov	 DWORD PTR [ecx+140], eax

; 50   : 	AttackDamageMin_EneDiv_DL = GetPrivateProfileInt("Damage","AttackDamageMin_EneDiv_DL", 14, "..\\data\\CalCharacter.cfg");

  0040b	68 00 00 00 00	 push	 OFFSET ??_C@_0BJ@BBPOEELO@?4?4?2data?2CalCharacter?4cfg@
  00410	6a 0e		 push	 14			; 0000000eH
  00412	68 00 00 00 00	 push	 OFFSET ??_C@_0BK@CNFGEADE@AttackDamageMin_EneDiv_DL@
  00417	68 00 00 00 00	 push	 OFFSET ??_C@_06KGFFMMMJ@Damage@
  0041c	ff 15 00 00 00
	00		 call	 DWORD PTR __imp__GetPrivateProfileIntA@16
  00422	8b 4d fc	 mov	 ecx, DWORD PTR _this$[ebp]
  00425	89 81 90 00 00
	00		 mov	 DWORD PTR [ecx+144], eax

; 51   : 	AttackDamageMax_StrDiv_DL = GetPrivateProfileInt("Damage","AttackDamageMax_StrDiv_DL", 5, "..\\data\\CalCharacter.cfg");

  0042b	68 00 00 00 00	 push	 OFFSET ??_C@_0BJ@BBPOEELO@?4?4?2data?2CalCharacter?4cfg@
  00430	6a 05		 push	 5
  00432	68 00 00 00 00	 push	 OFFSET ??_C@_0BK@PBFANKDH@AttackDamageMax_StrDiv_DL@
  00437	68 00 00 00 00	 push	 OFFSET ??_C@_06KGFFMMMJ@Damage@
  0043c	ff 15 00 00 00
	00		 call	 DWORD PTR __imp__GetPrivateProfileIntA@16
  00442	8b 4d fc	 mov	 ecx, DWORD PTR _this$[ebp]
  00445	89 81 94 00 00
	00		 mov	 DWORD PTR [ecx+148], eax

; 52   : 	AttackDamageMax_EneDiv_DL = GetPrivateProfileInt("Damage","AttackDamageMax_EneDiv_DL", 10, "..\\data\\CalCharacter.cfg");

  0044b	68 00 00 00 00	 push	 OFFSET ??_C@_0BJ@BBPOEELO@?4?4?2data?2CalCharacter?4cfg@
  00450	6a 0a		 push	 10			; 0000000aH
  00452	68 00 00 00 00	 push	 OFFSET ??_C@_0BK@JEHANLEF@AttackDamageMax_EneDiv_DL@
  00457	68 00 00 00 00	 push	 OFFSET ??_C@_06KGFFMMMJ@Damage@
  0045c	ff 15 00 00 00
	00		 call	 DWORD PTR __imp__GetPrivateProfileIntA@16
  00462	8b 4d fc	 mov	 ecx, DWORD PTR _this$[ebp]
  00465	89 81 98 00 00
	00		 mov	 DWORD PTR [ecx+152], eax

; 53   : 
; 54   : 	Defense_DL = GetPrivateProfileInt("Defense","Defense_DL", 7, "..\\data\\CalCharacter.cfg");

  0046b	68 00 00 00 00	 push	 OFFSET ??_C@_0BJ@BBPOEELO@?4?4?2data?2CalCharacter?4cfg@
  00470	6a 07		 push	 7
  00472	68 00 00 00 00	 push	 OFFSET ??_C@_0L@MNIJDHLA@Defense_DL@
  00477	68 00 00 00 00	 push	 OFFSET ??_C@_07PEDPFCGC@Defense@
  0047c	ff 15 00 00 00
	00		 call	 DWORD PTR __imp__GetPrivateProfileIntA@16
  00482	8b 4d fc	 mov	 ecx, DWORD PTR _this$[ebp]
  00485	89 81 9c 00 00
	00		 mov	 DWORD PTR [ecx+156], eax

; 55   : 	SuccessfulBlocking_DL = GetPrivateProfileInt("Defense","SuccessfulBlocking_DL", 7, "..\\data\\CalCharacter.cfg");

  0048b	68 00 00 00 00	 push	 OFFSET ??_C@_0BJ@BBPOEELO@?4?4?2data?2CalCharacter?4cfg@
  00490	6a 07		 push	 7
  00492	68 00 00 00 00	 push	 OFFSET ??_C@_0BG@EJJIEHAN@SuccessfulBlocking_DL@
  00497	68 00 00 00 00	 push	 OFFSET ??_C@_07PEDPFCGC@Defense@
  0049c	ff 15 00 00 00
	00		 call	 DWORD PTR __imp__GetPrivateProfileIntA@16
  004a2	8b 4d fc	 mov	 ecx, DWORD PTR _this$[ebp]
  004a5	89 81 a0 00 00
	00		 mov	 DWORD PTR [ecx+160], eax

; 56   : 	AttackSpeed_DL = GetPrivateProfileInt("Speed","AttackSpeed_DL", 10, "..\\data\\CalCharacter.cfg");

  004ab	68 00 00 00 00	 push	 OFFSET ??_C@_0BJ@BBPOEELO@?4?4?2data?2CalCharacter?4cfg@
  004b0	6a 0a		 push	 10			; 0000000aH
  004b2	68 00 00 00 00	 push	 OFFSET ??_C@_0P@DDNPKDPM@AttackSpeed_DL@
  004b7	68 00 00 00 00	 push	 OFFSET ??_C@_05HOIAGEJD@Speed@
  004bc	ff 15 00 00 00
	00		 call	 DWORD PTR __imp__GetPrivateProfileIntA@16
  004c2	8b 4d fc	 mov	 ecx, DWORD PTR _this$[ebp]
  004c5	89 81 a4 00 00
	00		 mov	 DWORD PTR [ecx+164], eax

; 57   : 	MagicSpeed_DL = GetPrivateProfileInt("Speed","MagicSpeed_DL", 10, "..\\data\\CalCharacter.cfg");

  004cb	68 00 00 00 00	 push	 OFFSET ??_C@_0BJ@BBPOEELO@?4?4?2data?2CalCharacter?4cfg@
  004d0	6a 0a		 push	 10			; 0000000aH
  004d2	68 00 00 00 00	 push	 OFFSET ??_C@_0O@PEFKGKOE@MagicSpeed_DL@
  004d7	68 00 00 00 00	 push	 OFFSET ??_C@_05HOIAGEJD@Speed@
  004dc	ff 15 00 00 00
	00		 call	 DWORD PTR __imp__GetPrivateProfileIntA@16
  004e2	8b 4d fc	 mov	 ecx, DWORD PTR _this$[ebp]
  004e5	89 81 a8 00 00
	00		 mov	 DWORD PTR [ecx+168], eax

; 58   : #endif
; 59   : 
; 60   : 	LogAdd("[CalCharacter.cfg] Load() completed");

  004eb	68 00 00 00 00	 push	 OFFSET ??_C@_0CE@KBCLBPKJ@?$FLCalCharacter?4cfg?$FN?5Load?$CI?$CJ?5compl@
  004f0	ff 15 00 00 00
	00		 call	 DWORD PTR ?LogAdd@@3P6AXPADZZA ; LogAdd
  004f6	83 c4 04	 add	 esp, 4

; 61   : 
; 62   : 	return true;

  004f9	b0 01		 mov	 al, 1

; 63   : }

  004fb	5f		 pop	 edi
  004fc	5e		 pop	 esi
  004fd	5b		 pop	 ebx
  004fe	8b e5		 mov	 esp, ebp
  00500	5d		 pop	 ebp
  00501	c3		 ret	 0
?Load@CBalancer@@QAE_NXZ ENDP				; CBalancer::Load
_TEXT	ENDS
; Function compile flags: /Odtp /ZI
; File C:\Mu Online\Mu-GS-Webzen-MC-10093\GameServer\CalCharacter.cpp
;	COMDAT ?__empty_global_delete@@YAXPAXI@Z
_TEXT	SEGMENT
___formal$ = 8						; size = 4
___formal$ = 12						; size = 4
?__empty_global_delete@@YAXPAXI@Z PROC			; __empty_global_delete, COMDAT

  00000	55		 push	 ebp
  00001	8b ec		 mov	 ebp, esp
  00003	83 ec 40	 sub	 esp, 64			; 00000040H
  00006	53		 push	 ebx
  00007	56		 push	 esi
  00008	57		 push	 edi
  00009	5f		 pop	 edi
  0000a	5e		 pop	 esi
  0000b	5b		 pop	 ebx
  0000c	8b e5		 mov	 esp, ebp
  0000e	5d		 pop	 ebp
  0000f	c3		 ret	 0
?__empty_global_delete@@YAXPAXI@Z ENDP			; __empty_global_delete
_TEXT	ENDS
; Function compile flags: /Odtp /ZI
; File C:\Mu Online\Mu-GS-Webzen-MC-10093\GameServer\CalCharacter.cpp
;	COMDAT ?__empty_global_delete@@YAXPAX@Z
_TEXT	SEGMENT
___formal$ = 8						; size = 4
?__empty_global_delete@@YAXPAX@Z PROC			; __empty_global_delete, COMDAT

  00000	55		 push	 ebp
  00001	8b ec		 mov	 ebp, esp
  00003	83 ec 40	 sub	 esp, 64			; 00000040H
  00006	53		 push	 ebx
  00007	56		 push	 esi
  00008	57		 push	 edi
  00009	5f		 pop	 edi
  0000a	5e		 pop	 esi
  0000b	5b		 pop	 ebx
  0000c	8b e5		 mov	 esp, ebp
  0000e	5d		 pop	 ebp
  0000f	c3		 ret	 0
?__empty_global_delete@@YAXPAX@Z ENDP			; __empty_global_delete
_TEXT	ENDS
END
