; Listing generated by Microsoft (R) Optimizing Compiler Version 19.27.29111.0 

	TITLE	C:\Mu Online\Mu-GS-Webzen-MC-10093\common\classdef.cpp
	.686P
	.XMM
	include listing.inc
	.model	flat

INCLUDELIB LIBCMT
INCLUDELIB OLDNAMES

PUBLIC	??_H@YGXPAXIIP6EPAX0@Z@Z			; `vector constructor iterator'
PUBLIC	?__empty_global_delete@@YAXPAX@Z		; __empty_global_delete
PUBLIC	?__empty_global_delete@@YAXPAXI@Z		; __empty_global_delete
PUBLIC	??0DEFAULTCLASSTYPE@@QAE@XZ			; DEFAULTCLASSTYPE::DEFAULTCLASSTYPE
PUBLIC	??0classdef@@QAE@XZ				; classdef::classdef
PUBLIC	??1classdef@@UAE@XZ				; classdef::~classdef
PUBLIC	?Init@classdef@@QAEXXZ				; classdef::Init
PUBLIC	?SetCharacter@classdef@@QAEXHHHHHMMMMMMH@Z	; classdef::SetCharacter
PUBLIC	?SetEquipment@classdef@@QAEXH@Z			; classdef::SetEquipment
PUBLIC	?GetDefPoint@classdef@@QAEHH@Z			; classdef::GetDefPoint
PUBLIC	?SetMabubBanjiOption@classdef@@QAEXH@Z		; classdef::SetMabubBanjiOption
PUBLIC	??_Gclassdef@@UAEPAXI@Z				; classdef::`scalar deleting destructor'
PUBLIC	??_7classdef@@6B@				; classdef::`vftable'
PUBLIC	??_R4classdef@@6B@				; classdef::`RTTI Complete Object Locator'
PUBLIC	??_R0?AVclassdef@@@8				; classdef `RTTI Type Descriptor'
PUBLIC	??_R3classdef@@8				; classdef::`RTTI Class Hierarchy Descriptor'
PUBLIC	??_R2classdef@@8				; classdef::`RTTI Base Class Array'
PUBLIC	??_R1A@?0A@EA@classdef@@8			; classdef::`RTTI Base Class Descriptor at (0,-1,0,64)'
PUBLIC	__real@3f000000
PUBLIC	__real@3f800000
PUBLIC	__real@3fc00000
PUBLIC	__real@40000000
PUBLIC	__real@40400000
PUBLIC	__real@41a00000
PUBLIC	__real@41f00000
PUBLIC	__real@42200000
PUBLIC	__real@42700000
PUBLIC	__real@42a00000
PUBLIC	__real@42b40000
PUBLIC	__real@42dc0000
EXTRN	??3@YAXPAXI@Z:PROC				; operator delete
EXTRN	??0CItem@@QAE@XZ:PROC				; CItem::CItem
EXTRN	?Convert@CItem@@QAEXHEEEEEE@Z:PROC		; CItem::Convert
EXTRN	?Clear@CItem@@QAEXXZ:PROC			; CItem::Clear
EXTRN	?ItemGetNumberMake@@YAHHH@Z:PROC		; ItemGetNumberMake
EXTRN	??_Eclassdef@@UAEPAXI@Z:PROC			; classdef::`vector deleting destructor'
EXTRN	??_7type_info@@6B@:QWORD			; type_info::`vftable'
EXTRN	__fltused:DWORD
;	COMDAT __real@42dc0000
CONST	SEGMENT
__real@42dc0000 DD 042dc0000r			; 110
CONST	ENDS
;	COMDAT __real@42b40000
CONST	SEGMENT
__real@42b40000 DD 042b40000r			; 90
CONST	ENDS
;	COMDAT __real@42a00000
CONST	SEGMENT
__real@42a00000 DD 042a00000r			; 80
CONST	ENDS
;	COMDAT __real@42700000
CONST	SEGMENT
__real@42700000 DD 042700000r			; 60
CONST	ENDS
;	COMDAT __real@42200000
CONST	SEGMENT
__real@42200000 DD 042200000r			; 40
CONST	ENDS
;	COMDAT __real@41f00000
CONST	SEGMENT
__real@41f00000 DD 041f00000r			; 30
CONST	ENDS
;	COMDAT __real@41a00000
CONST	SEGMENT
__real@41a00000 DD 041a00000r			; 20
CONST	ENDS
;	COMDAT __real@40400000
CONST	SEGMENT
__real@40400000 DD 040400000r			; 3
CONST	ENDS
;	COMDAT __real@40000000
CONST	SEGMENT
__real@40000000 DD 040000000r			; 2
CONST	ENDS
;	COMDAT __real@3fc00000
CONST	SEGMENT
__real@3fc00000 DD 03fc00000r			; 1.5
CONST	ENDS
;	COMDAT __real@3f800000
CONST	SEGMENT
__real@3f800000 DD 03f800000r			; 1
CONST	ENDS
;	COMDAT __real@3f000000
CONST	SEGMENT
__real@3f000000 DD 03f000000r			; 0.5
CONST	ENDS
;	COMDAT ??_R1A@?0A@EA@classdef@@8
rdata$r	SEGMENT
??_R1A@?0A@EA@classdef@@8 DD FLAT:??_R0?AVclassdef@@@8	; classdef::`RTTI Base Class Descriptor at (0,-1,0,64)'
	DD	00H
	DD	00H
	DD	0ffffffffH
	DD	00H
	DD	040H
	DD	FLAT:??_R3classdef@@8
rdata$r	ENDS
;	COMDAT ??_R2classdef@@8
rdata$r	SEGMENT
??_R2classdef@@8 DD FLAT:??_R1A@?0A@EA@classdef@@8	; classdef::`RTTI Base Class Array'
rdata$r	ENDS
;	COMDAT ??_R3classdef@@8
rdata$r	SEGMENT
??_R3classdef@@8 DD 00H					; classdef::`RTTI Class Hierarchy Descriptor'
	DD	00H
	DD	01H
	DD	FLAT:??_R2classdef@@8
rdata$r	ENDS
;	COMDAT ??_R0?AVclassdef@@@8
data$r	SEGMENT
??_R0?AVclassdef@@@8 DD FLAT:??_7type_info@@6B@		; classdef `RTTI Type Descriptor'
	DD	00H
	DB	'.?AVclassdef@@', 00H
data$r	ENDS
;	COMDAT ??_R4classdef@@6B@
rdata$r	SEGMENT
??_R4classdef@@6B@ DD 00H				; classdef::`RTTI Complete Object Locator'
	DD	00H
	DD	00H
	DD	FLAT:??_R0?AVclassdef@@@8
	DD	FLAT:??_R3classdef@@8
rdata$r	ENDS
;	COMDAT ??_7classdef@@6B@
CONST	SEGMENT
??_7classdef@@6B@ DD FLAT:??_R4classdef@@6B@		; classdef::`vftable'
	DD	FLAT:??_Eclassdef@@UAEPAXI@Z
CONST	ENDS
; Function compile flags: /Odtp /ZI
;	COMDAT ??_Gclassdef@@UAEPAXI@Z
_TEXT	SEGMENT
_this$ = -4						; size = 4
___flags$ = 8						; size = 4
??_Gclassdef@@UAEPAXI@Z PROC				; classdef::`scalar deleting destructor', COMDAT
; _this$ = ecx
  00000	55		 push	 ebp
  00001	8b ec		 mov	 ebp, esp
  00003	83 ec 44	 sub	 esp, 68			; 00000044H
  00006	53		 push	 ebx
  00007	56		 push	 esi
  00008	57		 push	 edi
  00009	89 4d fc	 mov	 DWORD PTR _this$[ebp], ecx
  0000c	8b 4d fc	 mov	 ecx, DWORD PTR _this$[ebp]
  0000f	e8 00 00 00 00	 call	 ??1classdef@@UAE@XZ	; classdef::~classdef
  00014	8b 45 08	 mov	 eax, DWORD PTR ___flags$[ebp]
  00017	83 e0 01	 and	 eax, 1
  0001a	74 11		 je	 SHORT $LN2@scalar
  0001c	68 e8 2e 00 00	 push	 12008			; 00002ee8H
  00021	8b 45 fc	 mov	 eax, DWORD PTR _this$[ebp]
  00024	50		 push	 eax
  00025	e8 00 00 00 00	 call	 ??3@YAXPAXI@Z		; operator delete
  0002a	83 c4 08	 add	 esp, 8
$LN2@scalar:
  0002d	8b 45 fc	 mov	 eax, DWORD PTR _this$[ebp]
  00030	5f		 pop	 edi
  00031	5e		 pop	 esi
  00032	5b		 pop	 ebx
  00033	8b e5		 mov	 esp, ebp
  00035	5d		 pop	 ebp
  00036	c2 04 00	 ret	 4
??_Gclassdef@@UAEPAXI@Z ENDP				; classdef::`scalar deleting destructor'
_TEXT	ENDS
; Function compile flags: /Odtp /ZI
; File C:\Mu Online\Mu-GS-Webzen-MC-10093\common\classdef.cpp
;	COMDAT ?SetMabubBanjiOption@classdef@@QAEXH@Z
_TEXT	SEGMENT
_this$ = -4						; size = 4
_flag$ = 8						; size = 4
?SetMabubBanjiOption@classdef@@QAEXH@Z PROC		; classdef::SetMabubBanjiOption, COMDAT
; _this$ = ecx

; 176  : {

  00000	55		 push	 ebp
  00001	8b ec		 mov	 ebp, esp
  00003	83 ec 44	 sub	 esp, 68			; 00000044H
  00006	53		 push	 ebx
  00007	56		 push	 esi
  00008	57		 push	 edi
  00009	89 4d fc	 mov	 DWORD PTR _this$[ebp], ecx

; 177  : 	m_BabubBanJiCreate = flag;

  0000c	8b 45 fc	 mov	 eax, DWORD PTR _this$[ebp]
  0000f	8b 4d 08	 mov	 ecx, DWORD PTR _flag$[ebp]
  00012	89 88 e4 2e 00
	00		 mov	 DWORD PTR [eax+12004], ecx

; 178  : }

  00018	5f		 pop	 edi
  00019	5e		 pop	 esi
  0001a	5b		 pop	 ebx
  0001b	8b e5		 mov	 esp, ebp
  0001d	5d		 pop	 ebp
  0001e	c2 04 00	 ret	 4
?SetMabubBanjiOption@classdef@@QAEXH@Z ENDP		; classdef::SetMabubBanjiOption
_TEXT	ENDS
; Function compile flags: /Odtp /ZI
; File C:\Mu Online\Mu-GS-Webzen-MC-10093\common\classdef.cpp
;	COMDAT ?GetDefPoint@classdef@@QAEHH@Z
_TEXT	SEGMENT
_this$ = -4						; size = 4
_char_class$ = 8					; size = 4
?GetDefPoint@classdef@@QAEHH@Z PROC			; classdef::GetDefPoint, COMDAT
; _this$ = ecx

; 166  : {

  00000	55		 push	 ebp
  00001	8b ec		 mov	 ebp, esp
  00003	83 ec 44	 sub	 esp, 68			; 00000044H
  00006	53		 push	 ebx
  00007	56		 push	 esi
  00008	57		 push	 edi
  00009	89 4d fc	 mov	 DWORD PTR _this$[ebp], ecx

; 167  : 	if( char_class < 0 || char_class > MAX_CLASSTYPE-1 )  return 0;

  0000c	83 7d 08 00	 cmp	 DWORD PTR _char_class$[ebp], 0
  00010	7c 06		 jl	 SHORT $LN3@GetDefPoin
  00012	83 7d 08 04	 cmp	 DWORD PTR _char_class$[ebp], 4
  00016	7e 04		 jle	 SHORT $LN2@GetDefPoin
$LN3@GetDefPoin:
  00018	33 c0		 xor	 eax, eax
  0001a	eb 56		 jmp	 SHORT $LN1@GetDefPoin
$LN2@GetDefPoin:

; 168  : #ifdef DARKLORD_WORK
; 169  : 	return DefClass[char_class].Strength+DefClass[char_class].Dexterity+DefClass[char_class].Vitality+DefClass[char_class].Energy+DefClass[char_class].Leadership;

  0001c	69 45 08 60 09
	00 00		 imul	 eax, DWORD PTR _char_class$[ebp], 2400
  00023	8b 4d fc	 mov	 ecx, DWORD PTR _this$[ebp]
  00026	0f b7 44 01 08	 movzx	 eax, WORD PTR [ecx+eax+8]
  0002b	69 55 08 60 09
	00 00		 imul	 edx, DWORD PTR _char_class$[ebp], 2400
  00032	8b 4d fc	 mov	 ecx, DWORD PTR _this$[ebp]
  00035	0f b7 54 11 0a	 movzx	 edx, WORD PTR [ecx+edx+10]
  0003a	03 c2		 add	 eax, edx
  0003c	69 4d 08 60 09
	00 00		 imul	 ecx, DWORD PTR _char_class$[ebp], 2400
  00043	8b 55 fc	 mov	 edx, DWORD PTR _this$[ebp]
  00046	0f b7 4c 0a 0c	 movzx	 ecx, WORD PTR [edx+ecx+12]
  0004b	03 c1		 add	 eax, ecx
  0004d	69 55 08 60 09
	00 00		 imul	 edx, DWORD PTR _char_class$[ebp], 2400
  00054	8b 4d fc	 mov	 ecx, DWORD PTR _this$[ebp]
  00057	0f b7 54 11 0e	 movzx	 edx, WORD PTR [ecx+edx+14]
  0005c	03 c2		 add	 eax, edx
  0005e	69 4d 08 60 09
	00 00		 imul	 ecx, DWORD PTR _char_class$[ebp], 2400
  00065	8b 55 fc	 mov	 edx, DWORD PTR _this$[ebp]
  00068	0f b7 8c 0a 60
	09 00 00	 movzx	 ecx, WORD PTR [edx+ecx+2400]
  00070	03 c1		 add	 eax, ecx
$LN1@GetDefPoin:

; 170  : #else
; 171  : 	return DefClass[char_class].Strength+DefClass[char_class].Dexterity+DefClass[char_class].Vitality+DefClass[char_class].Energy;
; 172  : #endif
; 173  : }

  00072	5f		 pop	 edi
  00073	5e		 pop	 esi
  00074	5b		 pop	 ebx
  00075	8b e5		 mov	 esp, ebp
  00077	5d		 pop	 ebp
  00078	c2 04 00	 ret	 4
?GetDefPoint@classdef@@QAEHH@Z ENDP			; classdef::GetDefPoint
_TEXT	ENDS
; Function compile flags: /Odtp /ZI
; File C:\Mu Online\Mu-GS-Webzen-MC-10093\common\classdef.cpp
;	COMDAT ?SetEquipment@classdef@@QAEXH@Z
_TEXT	SEGMENT
tv73 = -84						; size = 4
_n$ = -16						; size = 4
_right_type$ = -12					; size = 4
_def_type$ = -8						; size = 4
_this$ = -4						; size = 4
_Class$ = 8						; size = 4
?SetEquipment@classdef@@QAEXH@Z PROC			; classdef::SetEquipment, COMDAT
; _this$ = ecx

; 79   : {

  00000	55		 push	 ebp
  00001	8b ec		 mov	 ebp, esp
  00003	83 ec 54	 sub	 esp, 84			; 00000054H
  00006	53		 push	 ebx
  00007	56		 push	 esi
  00008	57		 push	 edi
  00009	89 4d fc	 mov	 DWORD PTR _this$[ebp], ecx

; 80   : 	int def_type=0;

  0000c	c7 45 f8 00 00
	00 00		 mov	 DWORD PTR _def_type$[ebp], 0

; 81   : 	int right_type=0;

  00013	c7 45 f4 00 00
	00 00		 mov	 DWORD PTR _right_type$[ebp], 0

; 82   : 	int n;
; 83   : 
; 84   : 	for( n=0; n<MAX_EQUIPMENT+1; n++) 

  0001a	c7 45 f0 00 00
	00 00		 mov	 DWORD PTR _n$[ebp], 0
  00021	eb 09		 jmp	 SHORT $LN4@SetEquipme
$LN2@SetEquipme:
  00023	8b 45 f0	 mov	 eax, DWORD PTR _n$[ebp]
  00026	83 c0 01	 add	 eax, 1
  00029	89 45 f0	 mov	 DWORD PTR _n$[ebp], eax
$LN4@SetEquipme:
  0002c	83 7d f0 0d	 cmp	 DWORD PTR _n$[ebp], 13	; 0000000dH
  00030	7d 20		 jge	 SHORT $LN3@SetEquipme

; 85   : 		DefClass[Class].Equipment[n].Clear();

  00032	69 45 08 60 09
	00 00		 imul	 eax, DWORD PTR _Class$[ebp], 2400
  00039	8b 4d fc	 mov	 ecx, DWORD PTR _this$[ebp]
  0003c	8d 54 01 04	 lea	 edx, DWORD PTR [ecx+eax+4]
  00040	69 45 f0 a8 00
	00 00		 imul	 eax, DWORD PTR _n$[ebp], 168
  00047	8d 4c 02 2c	 lea	 ecx, DWORD PTR [edx+eax+44]
  0004b	e8 00 00 00 00	 call	 ?Clear@CItem@@QAEXXZ	; CItem::Clear
  00050	eb d1		 jmp	 SHORT $LN2@SetEquipme
$LN3@SetEquipme:

; 86   : 
; 87   : 	// 종족에 따라 기본 무기를 세팅한다.
; 88   : 	switch( Class )

  00052	8b 45 08	 mov	 eax, DWORD PTR _Class$[ebp]
  00055	89 45 ac	 mov	 DWORD PTR tv73[ebp], eax
  00058	8b 4d ac	 mov	 ecx, DWORD PTR tv73[ebp]
  0005b	83 e9 01	 sub	 ecx, 1
  0005e	89 4d ac	 mov	 DWORD PTR tv73[ebp], ecx
  00061	83 7d ac 03	 cmp	 DWORD PTR tv73[ebp], 3
  00065	77 79		 ja	 SHORT $LN5@SetEquipme
  00067	8b 55 ac	 mov	 edx, DWORD PTR tv73[ebp]
  0006a	ff 24 95 00 00
	00 00		 jmp	 DWORD PTR $LN19@SetEquipme[edx*4]
$LN7@SetEquipme:

; 89   : 	{
; 90   : 	case CLASS_KNIGHT : //흑기사 (작은도끼)
; 91   : 		def_type   = ItemGetNumberMake(1, 0);	

  00071	6a 00		 push	 0
  00073	6a 01		 push	 1
  00075	e8 00 00 00 00	 call	 ?ItemGetNumberMake@@YAHHH@Z ; ItemGetNumberMake
  0007a	83 c4 08	 add	 esp, 8
  0007d	89 45 f8	 mov	 DWORD PTR _def_type$[ebp], eax

; 92   : 		break;	

  00080	eb 5e		 jmp	 SHORT $LN5@SetEquipme
$LN8@SetEquipme:

; 93   : 	case CLASS_ELF    : //요정 (활과 화살)
; 94   : 		def_type   = ItemGetNumberMake(4, 0);

  00082	6a 00		 push	 0
  00084	6a 04		 push	 4
  00086	e8 00 00 00 00	 call	 ?ItemGetNumberMake@@YAHHH@Z ; ItemGetNumberMake
  0008b	83 c4 08	 add	 esp, 8
  0008e	89 45 f8	 mov	 DWORD PTR _def_type$[ebp], eax

; 95   : 		right_type = ItemGetNumberMake(4, 15);	

  00091	6a 0f		 push	 15			; 0000000fH
  00093	6a 04		 push	 4
  00095	e8 00 00 00 00	 call	 ?ItemGetNumberMake@@YAHHH@Z ; ItemGetNumberMake
  0009a	83 c4 08	 add	 esp, 8
  0009d	89 45 f4	 mov	 DWORD PTR _right_type$[ebp], eax

; 96   : 		break;	

  000a0	eb 3e		 jmp	 SHORT $LN5@SetEquipme
$LN9@SetEquipme:

; 97   : 
; 98   : #ifdef DARKLORD_WORK
; 99   : 	case CLASS_DARKLORD: //다크로드 (원형방패/짧은검)
; 100  : 		def_type   = ItemGetNumberMake(6, 0);

  000a2	6a 00		 push	 0
  000a4	6a 06		 push	 6
  000a6	e8 00 00 00 00	 call	 ?ItemGetNumberMake@@YAHHH@Z ; ItemGetNumberMake
  000ab	83 c4 08	 add	 esp, 8
  000ae	89 45 f8	 mov	 DWORD PTR _def_type$[ebp], eax

; 101  : 		right_type = ItemGetNumberMake(0, 1);

  000b1	6a 01		 push	 1
  000b3	6a 00		 push	 0
  000b5	e8 00 00 00 00	 call	 ?ItemGetNumberMake@@YAHHH@Z ; ItemGetNumberMake
  000ba	83 c4 08	 add	 esp, 8
  000bd	89 45 f4	 mov	 DWORD PTR _right_type$[ebp], eax

; 102  : 		break;	

  000c0	eb 1e		 jmp	 SHORT $LN5@SetEquipme
$LN10@SetEquipme:

; 103  : #endif
; 104  : 	case CLASS_MAGUMSA: //마검사 (원형방패/짧은검)
; 105  : 
; 106  : 		def_type   = ItemGetNumberMake(6, 0);

  000c2	6a 00		 push	 0
  000c4	6a 06		 push	 6
  000c6	e8 00 00 00 00	 call	 ?ItemGetNumberMake@@YAHHH@Z ; ItemGetNumberMake
  000cb	83 c4 08	 add	 esp, 8
  000ce	89 45 f8	 mov	 DWORD PTR _def_type$[ebp], eax

; 107  : 		right_type = ItemGetNumberMake(0, 1);

  000d1	6a 01		 push	 1
  000d3	6a 00		 push	 0
  000d5	e8 00 00 00 00	 call	 ?ItemGetNumberMake@@YAHHH@Z ; ItemGetNumberMake
  000da	83 c4 08	 add	 esp, 8
  000dd	89 45 f4	 mov	 DWORD PTR _right_type$[ebp], eax
$LN5@SetEquipme:

; 108  : 		break;	
; 109  : #ifdef ADD_SEASON_3_NEW_CHARACTER_SUMMONER_20070912	// 소환술사 생성시 기본 아이템
; 110  : 	case CLASS_SUMMONER:	// 소환술사 (작은도끼)
; 111  : 		def_type = ItemGetNumberMake(1, 0);
; 112  : 		break;	
; 113  : #endif
; 114  : 	}
; 115  : 	
; 116  : 	if( Class != CLASS_WIZARD )

  000e0	83 7d 08 00	 cmp	 DWORD PTR _Class$[ebp], 0
  000e4	0f 84 9d 01 00
	00		 je	 $LN11@SetEquipme

; 117  : 	{
; 118  : #ifdef DARKLORD_WORK
; 119  : 		if( Class == CLASS_DARKLORD )

  000ea	83 7d 08 04	 cmp	 DWORD PTR _Class$[ebp], 4
  000ee	0f 85 9d 00 00
	00		 jne	 $LN12@SetEquipme

; 120  : 		{
; 121  : 			DefClass[Class].Equipment[EQUIPMENT_WEAPON_RIGHT].m_Level = 0;

  000f4	69 45 08 60 09
	00 00		 imul	 eax, DWORD PTR _Class$[ebp], 2400
  000fb	8b 4d fc	 mov	 ecx, DWORD PTR _this$[ebp]
  000fe	8d 54 01 04	 lea	 edx, DWORD PTR [ecx+eax+4]
  00102	b8 a8 00 00 00	 mov	 eax, 168		; 000000a8H
  00107	6b c8 00	 imul	 ecx, eax, 0
  0010a	33 c0		 xor	 eax, eax
  0010c	66 89 44 0a 34	 mov	 WORD PTR [edx+ecx+52], ax

; 122  : 			DefClass[Class].Equipment[EQUIPMENT_WEAPON_LEFT].m_Level = 0;

  00111	69 45 08 60 09
	00 00		 imul	 eax, DWORD PTR _Class$[ebp], 2400
  00118	8b 4d fc	 mov	 ecx, DWORD PTR _this$[ebp]
  0011b	8d 54 01 04	 lea	 edx, DWORD PTR [ecx+eax+4]
  0011f	b8 a8 00 00 00	 mov	 eax, 168		; 000000a8H
  00124	c1 e0 00	 shl	 eax, 0
  00127	33 c9		 xor	 ecx, ecx
  00129	66 89 4c 02 34	 mov	 WORD PTR [edx+eax+52], cx

; 123  : 			DefClass[Class].Equipment[EQUIPMENT_WEAPON_RIGHT].Convert(right_type);

  0012e	6a 01		 push	 1
  00130	6a 00		 push	 0
  00132	6a 00		 push	 0
  00134	6a 00		 push	 0
  00136	6a 00		 push	 0
  00138	6a 00		 push	 0
  0013a	8b 45 f4	 mov	 eax, DWORD PTR _right_type$[ebp]
  0013d	50		 push	 eax
  0013e	69 4d 08 60 09
	00 00		 imul	 ecx, DWORD PTR _Class$[ebp], 2400
  00145	8b 55 fc	 mov	 edx, DWORD PTR _this$[ebp]
  00148	8d 44 0a 04	 lea	 eax, DWORD PTR [edx+ecx+4]
  0014c	b9 a8 00 00 00	 mov	 ecx, 168		; 000000a8H
  00151	6b d1 00	 imul	 edx, ecx, 0
  00154	8d 4c 10 2c	 lea	 ecx, DWORD PTR [eax+edx+44]
  00158	e8 00 00 00 00	 call	 ?Convert@CItem@@QAEXHEEEEEE@Z ; CItem::Convert

; 124  : 			DefClass[Class].Equipment[EQUIPMENT_WEAPON_LEFT ].Convert(def_type);

  0015d	6a 01		 push	 1
  0015f	6a 00		 push	 0
  00161	6a 00		 push	 0
  00163	6a 00		 push	 0
  00165	6a 00		 push	 0
  00167	6a 00		 push	 0
  00169	8b 45 f8	 mov	 eax, DWORD PTR _def_type$[ebp]
  0016c	50		 push	 eax
  0016d	69 4d 08 60 09
	00 00		 imul	 ecx, DWORD PTR _Class$[ebp], 2400
  00174	8b 55 fc	 mov	 edx, DWORD PTR _this$[ebp]
  00177	8d 44 0a 04	 lea	 eax, DWORD PTR [edx+ecx+4]
  0017b	b9 a8 00 00 00	 mov	 ecx, 168		; 000000a8H
  00180	c1 e1 00	 shl	 ecx, 0
  00183	8d 4c 08 2c	 lea	 ecx, DWORD PTR [eax+ecx+44]
  00187	e8 00 00 00 00	 call	 ?Convert@CItem@@QAEXHEEEEEE@Z ; CItem::Convert

; 125  : 		}

  0018c	e9 f6 00 00 00	 jmp	 $LN11@SetEquipme
$LN12@SetEquipme:

; 126  : 		else
; 127  : #endif
; 128  : 		if( Class == CLASS_ELF || Class == CLASS_MAGUMSA )

  00191	83 7d 08 02	 cmp	 DWORD PTR _Class$[ebp], 2
  00195	74 0a		 je	 SHORT $LN16@SetEquipme
  00197	83 7d 08 03	 cmp	 DWORD PTR _Class$[ebp], 3
  0019b	0f 85 9a 00 00
	00		 jne	 $LN14@SetEquipme
$LN16@SetEquipme:

; 129  : 
; 130  : 		{
; 131  : 			DefClass[Class].Equipment[EQUIPMENT_WEAPON_RIGHT].m_Level = 0;

  001a1	69 45 08 60 09
	00 00		 imul	 eax, DWORD PTR _Class$[ebp], 2400
  001a8	8b 4d fc	 mov	 ecx, DWORD PTR _this$[ebp]
  001ab	8d 54 01 04	 lea	 edx, DWORD PTR [ecx+eax+4]
  001af	b8 a8 00 00 00	 mov	 eax, 168		; 000000a8H
  001b4	6b c8 00	 imul	 ecx, eax, 0
  001b7	33 c0		 xor	 eax, eax
  001b9	66 89 44 0a 34	 mov	 WORD PTR [edx+ecx+52], ax

; 132  : 			DefClass[Class].Equipment[EQUIPMENT_WEAPON_LEFT].m_Level = 0;

  001be	69 45 08 60 09
	00 00		 imul	 eax, DWORD PTR _Class$[ebp], 2400
  001c5	8b 4d fc	 mov	 ecx, DWORD PTR _this$[ebp]
  001c8	8d 54 01 04	 lea	 edx, DWORD PTR [ecx+eax+4]
  001cc	b8 a8 00 00 00	 mov	 eax, 168		; 000000a8H
  001d1	c1 e0 00	 shl	 eax, 0
  001d4	33 c9		 xor	 ecx, ecx
  001d6	66 89 4c 02 34	 mov	 WORD PTR [edx+eax+52], cx

; 133  : 			DefClass[Class].Equipment[EQUIPMENT_WEAPON_RIGHT].Convert(right_type);

  001db	6a 01		 push	 1
  001dd	6a 00		 push	 0
  001df	6a 00		 push	 0
  001e1	6a 00		 push	 0
  001e3	6a 00		 push	 0
  001e5	6a 00		 push	 0
  001e7	8b 45 f4	 mov	 eax, DWORD PTR _right_type$[ebp]
  001ea	50		 push	 eax
  001eb	69 4d 08 60 09
	00 00		 imul	 ecx, DWORD PTR _Class$[ebp], 2400
  001f2	8b 55 fc	 mov	 edx, DWORD PTR _this$[ebp]
  001f5	8d 44 0a 04	 lea	 eax, DWORD PTR [edx+ecx+4]
  001f9	b9 a8 00 00 00	 mov	 ecx, 168		; 000000a8H
  001fe	6b d1 00	 imul	 edx, ecx, 0
  00201	8d 4c 10 2c	 lea	 ecx, DWORD PTR [eax+edx+44]
  00205	e8 00 00 00 00	 call	 ?Convert@CItem@@QAEXHEEEEEE@Z ; CItem::Convert

; 134  : 			DefClass[Class].Equipment[EQUIPMENT_WEAPON_LEFT ].Convert(def_type);

  0020a	6a 01		 push	 1
  0020c	6a 00		 push	 0
  0020e	6a 00		 push	 0
  00210	6a 00		 push	 0
  00212	6a 00		 push	 0
  00214	6a 00		 push	 0
  00216	8b 45 f8	 mov	 eax, DWORD PTR _def_type$[ebp]
  00219	50		 push	 eax
  0021a	69 4d 08 60 09
	00 00		 imul	 ecx, DWORD PTR _Class$[ebp], 2400
  00221	8b 55 fc	 mov	 edx, DWORD PTR _this$[ebp]
  00224	8d 44 0a 04	 lea	 eax, DWORD PTR [edx+ecx+4]
  00228	b9 a8 00 00 00	 mov	 ecx, 168		; 000000a8H
  0022d	c1 e1 00	 shl	 ecx, 0
  00230	8d 4c 08 2c	 lea	 ecx, DWORD PTR [eax+ecx+44]
  00234	e8 00 00 00 00	 call	 ?Convert@CItem@@QAEXHEEEEEE@Z ; CItem::Convert

; 135  : 		}

  00239	eb 4c		 jmp	 SHORT $LN11@SetEquipme
$LN14@SetEquipme:

; 136  : #ifdef ADD_SEASON_3_NEW_CHARACTER_SUMMONER_20070912	// 소환술사 생성시 기본 아이템
; 137  : 		else if( Class == CLASS_SUMMONER )
; 138  : 		{
; 139  : 			DefClass[Class].Equipment[EQUIPMENT_WEAPON_RIGHT].m_Level = 0;
; 140  : 			DefClass[Class].Equipment[EQUIPMENT_WEAPON_RIGHT].Convert(def_type);
; 141  : 		}
; 142  : #endif
; 143  : 		else
; 144  : 		{
; 145  : 			DefClass[Class].Equipment[EQUIPMENT_WEAPON_RIGHT].m_Level = 0;

  0023b	69 45 08 60 09
	00 00		 imul	 eax, DWORD PTR _Class$[ebp], 2400
  00242	8b 4d fc	 mov	 ecx, DWORD PTR _this$[ebp]
  00245	8d 54 01 04	 lea	 edx, DWORD PTR [ecx+eax+4]
  00249	b8 a8 00 00 00	 mov	 eax, 168		; 000000a8H
  0024e	6b c8 00	 imul	 ecx, eax, 0
  00251	33 c0		 xor	 eax, eax
  00253	66 89 44 0a 34	 mov	 WORD PTR [edx+ecx+52], ax

; 146  : 			DefClass[Class].Equipment[EQUIPMENT_WEAPON_RIGHT].Convert(def_type);

  00258	6a 01		 push	 1
  0025a	6a 00		 push	 0
  0025c	6a 00		 push	 0
  0025e	6a 00		 push	 0
  00260	6a 00		 push	 0
  00262	6a 00		 push	 0
  00264	8b 45 f8	 mov	 eax, DWORD PTR _def_type$[ebp]
  00267	50		 push	 eax
  00268	69 4d 08 60 09
	00 00		 imul	 ecx, DWORD PTR _Class$[ebp], 2400
  0026f	8b 55 fc	 mov	 edx, DWORD PTR _this$[ebp]
  00272	8d 44 0a 04	 lea	 eax, DWORD PTR [edx+ecx+4]
  00276	b9 a8 00 00 00	 mov	 ecx, 168		; 000000a8H
  0027b	6b d1 00	 imul	 edx, ecx, 0
  0027e	8d 4c 10 2c	 lea	 ecx, DWORD PTR [eax+edx+44]
  00282	e8 00 00 00 00	 call	 ?Convert@CItem@@QAEXHEEEEEE@Z ; CItem::Convert
$LN11@SetEquipme:

; 147  : 		}
; 148  : 	}
; 149  : 	
; 150  : 	if( m_BabubBanJiCreate == 1 )

  00287	8b 45 fc	 mov	 eax, DWORD PTR _this$[ebp]
  0028a	83 b8 e4 2e 00
	00 01		 cmp	 DWORD PTR [eax+12004], 1
  00291	0f 85 bc 00 00
	00		 jne	 $LN1@SetEquipme

; 151  : 	{
; 152  :  		// 이벤트로 용사의 반지를 추가해준다.
; 153  : 		def_type   = ItemGetNumberMake(13, 20);	

  00297	6a 14		 push	 20			; 00000014H
  00299	6a 0d		 push	 13			; 0000000dH
  0029b	e8 00 00 00 00	 call	 ?ItemGetNumberMake@@YAHHH@Z ; ItemGetNumberMake
  002a0	83 c4 08	 add	 esp, 8
  002a3	89 45 f8	 mov	 DWORD PTR _def_type$[ebp], eax

; 154  : 		DefClass[Class].Equipment[MAX_EQUIPMENT].m_Level = 1;

  002a6	69 45 08 60 09
	00 00		 imul	 eax, DWORD PTR _Class$[ebp], 2400
  002ad	8b 4d fc	 mov	 ecx, DWORD PTR _this$[ebp]
  002b0	8d 54 01 04	 lea	 edx, DWORD PTR [ecx+eax+4]
  002b4	b8 a8 00 00 00	 mov	 eax, 168		; 000000a8H
  002b9	6b c8 0c	 imul	 ecx, eax, 12
  002bc	b8 01 00 00 00	 mov	 eax, 1
  002c1	66 89 44 0a 34	 mov	 WORD PTR [edx+ecx+52], ax

; 155  : 		DefClass[Class].Equipment[MAX_EQUIPMENT].Convert(def_type);

  002c6	6a 01		 push	 1
  002c8	6a 00		 push	 0
  002ca	6a 00		 push	 0
  002cc	6a 00		 push	 0
  002ce	6a 00		 push	 0
  002d0	6a 00		 push	 0
  002d2	8b 45 f8	 mov	 eax, DWORD PTR _def_type$[ebp]
  002d5	50		 push	 eax
  002d6	69 4d 08 60 09
	00 00		 imul	 ecx, DWORD PTR _Class$[ebp], 2400
  002dd	8b 55 fc	 mov	 edx, DWORD PTR _this$[ebp]
  002e0	8d 44 0a 04	 lea	 eax, DWORD PTR [edx+ecx+4]
  002e4	b9 a8 00 00 00	 mov	 ecx, 168		; 000000a8H
  002e9	6b d1 0c	 imul	 edx, ecx, 12
  002ec	8d 4c 10 2c	 lea	 ecx, DWORD PTR [eax+edx+44]
  002f0	e8 00 00 00 00	 call	 ?Convert@CItem@@QAEXHEEEEEE@Z ; CItem::Convert

; 156  : 		
; 157  : 		// 이벤트로 전사의 반지를 추가해준다.
; 158  : 		def_type   = ItemGetNumberMake(13, 20);	

  002f5	6a 14		 push	 20			; 00000014H
  002f7	6a 0d		 push	 13			; 0000000dH
  002f9	e8 00 00 00 00	 call	 ?ItemGetNumberMake@@YAHHH@Z ; ItemGetNumberMake
  002fe	83 c4 08	 add	 esp, 8
  00301	89 45 f8	 mov	 DWORD PTR _def_type$[ebp], eax

; 159  : 		DefClass[Class].Equipment[MAX_EQUIPMENT+1].m_Level = 2;

  00304	69 45 08 60 09
	00 00		 imul	 eax, DWORD PTR _Class$[ebp], 2400
  0030b	8b 4d fc	 mov	 ecx, DWORD PTR _this$[ebp]
  0030e	8d 54 01 04	 lea	 edx, DWORD PTR [ecx+eax+4]
  00312	b8 a8 00 00 00	 mov	 eax, 168		; 000000a8H
  00317	6b c8 0d	 imul	 ecx, eax, 13
  0031a	b8 02 00 00 00	 mov	 eax, 2
  0031f	66 89 44 0a 34	 mov	 WORD PTR [edx+ecx+52], ax

; 160  : 		DefClass[Class].Equipment[MAX_EQUIPMENT+1].Convert(def_type);

  00324	6a 01		 push	 1
  00326	6a 00		 push	 0
  00328	6a 00		 push	 0
  0032a	6a 00		 push	 0
  0032c	6a 00		 push	 0
  0032e	6a 00		 push	 0
  00330	8b 45 f8	 mov	 eax, DWORD PTR _def_type$[ebp]
  00333	50		 push	 eax
  00334	69 4d 08 60 09
	00 00		 imul	 ecx, DWORD PTR _Class$[ebp], 2400
  0033b	8b 55 fc	 mov	 edx, DWORD PTR _this$[ebp]
  0033e	8d 44 0a 04	 lea	 eax, DWORD PTR [edx+ecx+4]
  00342	b9 a8 00 00 00	 mov	 ecx, 168		; 000000a8H
  00347	6b d1 0d	 imul	 edx, ecx, 13
  0034a	8d 4c 10 2c	 lea	 ecx, DWORD PTR [eax+edx+44]
  0034e	e8 00 00 00 00	 call	 ?Convert@CItem@@QAEXHEEEEEE@Z ; CItem::Convert
$LN1@SetEquipme:

; 161  : 	}
; 162  : }

  00353	5f		 pop	 edi
  00354	5e		 pop	 esi
  00355	5b		 pop	 ebx
  00356	8b e5		 mov	 esp, ebp
  00358	5d		 pop	 ebp
  00359	c2 04 00	 ret	 4
$LN19@SetEquipme:
  0035c	00 00 00 00	 DD	 $LN7@SetEquipme
  00360	00 00 00 00	 DD	 $LN8@SetEquipme
  00364	00 00 00 00	 DD	 $LN10@SetEquipme
  00368	00 00 00 00	 DD	 $LN9@SetEquipme
?SetEquipment@classdef@@QAEXH@Z ENDP			; classdef::SetEquipment
_TEXT	ENDS
; Function compile flags: /Odtp /ZI
; File C:\Mu Online\Mu-GS-Webzen-MC-10093\common\classdef.cpp
;	COMDAT ?SetCharacter@classdef@@QAEXHHHHHMMMMMMH@Z
_TEXT	SEGMENT
_this$ = -4						; size = 4
_Class$ = 8						; size = 4
_Str$ = 12						; size = 4
_Dex$ = 16						; size = 4
_Vit$ = 20						; size = 4
_Energy$ = 24						; size = 4
_Life$ = 28						; size = 4
_Mana$ = 32						; size = 4
_LevelLife$ = 36					; size = 4
_LevelMana$ = 40					; size = 4
_VitalityToLife$ = 44					; size = 4
_EnergyToMana$ = 48					; size = 4
_Leadership$ = 52					; size = 4
?SetCharacter@classdef@@QAEXHHHHHMMMMMMH@Z PROC		; classdef::SetCharacter, COMDAT
; _this$ = ecx

; 54   : {

  00000	55		 push	 ebp
  00001	8b ec		 mov	 ebp, esp
  00003	83 ec 44	 sub	 esp, 68			; 00000044H
  00006	53		 push	 ebx
  00007	56		 push	 esi
  00008	57		 push	 edi
  00009	89 4d fc	 mov	 DWORD PTR _this$[ebp], ecx

; 55   : 	DefClass[Class].Experience = 0;

  0000c	69 45 08 60 09
	00 00		 imul	 eax, DWORD PTR _Class$[ebp], 2400
  00013	8b 4d fc	 mov	 ecx, DWORD PTR _this$[ebp]
  00016	c7 44 01 04 00
	00 00 00	 mov	 DWORD PTR [ecx+eax+4], 0

; 56   : 	DefClass[Class].Strength   = Str;

  0001e	69 45 08 60 09
	00 00		 imul	 eax, DWORD PTR _Class$[ebp], 2400
  00025	8b 4d fc	 mov	 ecx, DWORD PTR _this$[ebp]
  00028	66 8b 55 0c	 mov	 dx, WORD PTR _Str$[ebp]
  0002c	66 89 54 01 08	 mov	 WORD PTR [ecx+eax+8], dx

; 57   : 	DefClass[Class].Dexterity  = Dex;

  00031	69 45 08 60 09
	00 00		 imul	 eax, DWORD PTR _Class$[ebp], 2400
  00038	8b 4d fc	 mov	 ecx, DWORD PTR _this$[ebp]
  0003b	66 8b 55 10	 mov	 dx, WORD PTR _Dex$[ebp]
  0003f	66 89 54 01 0a	 mov	 WORD PTR [ecx+eax+10], dx

; 58   : 	DefClass[Class].Vitality   = Vit;

  00044	69 45 08 60 09
	00 00		 imul	 eax, DWORD PTR _Class$[ebp], 2400
  0004b	8b 4d fc	 mov	 ecx, DWORD PTR _this$[ebp]
  0004e	66 8b 55 14	 mov	 dx, WORD PTR _Vit$[ebp]
  00052	66 89 54 01 0c	 mov	 WORD PTR [ecx+eax+12], dx

; 59   : 	DefClass[Class].Energy     = Energy;

  00057	69 45 08 60 09
	00 00		 imul	 eax, DWORD PTR _Class$[ebp], 2400
  0005e	8b 4d fc	 mov	 ecx, DWORD PTR _this$[ebp]
  00061	66 8b 55 18	 mov	 dx, WORD PTR _Energy$[ebp]
  00065	66 89 54 01 0e	 mov	 WORD PTR [ecx+eax+14], dx

; 60   : 	DefClass[Class].Life	   = Life;

  0006a	69 45 08 60 09
	00 00		 imul	 eax, DWORD PTR _Class$[ebp], 2400
  00071	8b 4d fc	 mov	 ecx, DWORD PTR _this$[ebp]
  00074	f3 0f 10 45 1c	 movss	 xmm0, DWORD PTR _Life$[ebp]
  00079	f3 0f 11 44 01
	14		 movss	 DWORD PTR [ecx+eax+20], xmm0

; 61   : 	DefClass[Class].MaxLife    = Life;

  0007f	69 45 08 60 09
	00 00		 imul	 eax, DWORD PTR _Class$[ebp], 2400
  00086	8b 4d fc	 mov	 ecx, DWORD PTR _this$[ebp]
  00089	f3 0f 10 45 1c	 movss	 xmm0, DWORD PTR _Life$[ebp]
  0008e	f3 0f 11 44 01
	18		 movss	 DWORD PTR [ecx+eax+24], xmm0

; 62   : 	DefClass[Class].LevelLife  = LevelLife;

  00094	69 45 08 60 09
	00 00		 imul	 eax, DWORD PTR _Class$[ebp], 2400
  0009b	8b 4d fc	 mov	 ecx, DWORD PTR _this$[ebp]
  0009e	f3 0f 10 45 24	 movss	 xmm0, DWORD PTR _LevelLife$[ebp]
  000a3	f3 0f 11 44 01
	10		 movss	 DWORD PTR [ecx+eax+16], xmm0

; 63   : 	DefClass[Class].Mana       = Mana;

  000a9	69 45 08 60 09
	00 00		 imul	 eax, DWORD PTR _Class$[ebp], 2400
  000b0	8b 4d fc	 mov	 ecx, DWORD PTR _this$[ebp]
  000b3	f3 0f 10 45 20	 movss	 xmm0, DWORD PTR _Mana$[ebp]
  000b8	f3 0f 11 44 01
	20		 movss	 DWORD PTR [ecx+eax+32], xmm0

; 64   : 	DefClass[Class].MaxMana    = Mana;

  000be	69 45 08 60 09
	00 00		 imul	 eax, DWORD PTR _Class$[ebp], 2400
  000c5	8b 4d fc	 mov	 ecx, DWORD PTR _this$[ebp]
  000c8	f3 0f 10 45 20	 movss	 xmm0, DWORD PTR _Mana$[ebp]
  000cd	f3 0f 11 44 01
	24		 movss	 DWORD PTR [ecx+eax+36], xmm0

; 65   : 	DefClass[Class].LevelMana  = LevelMana;

  000d3	69 45 08 60 09
	00 00		 imul	 eax, DWORD PTR _Class$[ebp], 2400
  000da	8b 4d fc	 mov	 ecx, DWORD PTR _this$[ebp]
  000dd	f3 0f 10 45 28	 movss	 xmm0, DWORD PTR _LevelMana$[ebp]
  000e2	f3 0f 11 44 01
	1c		 movss	 DWORD PTR [ecx+eax+28], xmm0

; 66   : 	DefClass[Class].VitalityToLife = VitalityToLife;

  000e8	69 45 08 60 09
	00 00		 imul	 eax, DWORD PTR _Class$[ebp], 2400
  000ef	8b 4d fc	 mov	 ecx, DWORD PTR _this$[ebp]
  000f2	f3 0f 10 45 2c	 movss	 xmm0, DWORD PTR _VitalityToLife$[ebp]
  000f7	f3 0f 11 44 01
	28		 movss	 DWORD PTR [ecx+eax+40], xmm0

; 67   : 	DefClass[Class].EnergyToMana   = EnergyToMana;

  000fd	69 45 08 60 09
	00 00		 imul	 eax, DWORD PTR _Class$[ebp], 2400
  00104	8b 4d fc	 mov	 ecx, DWORD PTR _this$[ebp]
  00107	f3 0f 10 45 30	 movss	 xmm0, DWORD PTR _EnergyToMana$[ebp]
  0010c	f3 0f 11 44 01
	2c		 movss	 DWORD PTR [ecx+eax+44], xmm0

; 68   : 
; 69   : #ifdef DARKLORD_WORK	
; 70   : 	DefClass[Class].Leadership = Leadership;

  00112	69 45 08 60 09
	00 00		 imul	 eax, DWORD PTR _Class$[ebp], 2400
  00119	8b 4d fc	 mov	 ecx, DWORD PTR _this$[ebp]
  0011c	66 8b 55 34	 mov	 dx, WORD PTR _Leadership$[ebp]
  00120	66 89 94 01 60
	09 00 00	 mov	 WORD PTR [ecx+eax+2400], dx

; 71   : #endif
; 72   : 	SetEquipment(Class);

  00128	8b 45 08	 mov	 eax, DWORD PTR _Class$[ebp]
  0012b	50		 push	 eax
  0012c	8b 4d fc	 mov	 ecx, DWORD PTR _this$[ebp]
  0012f	e8 00 00 00 00	 call	 ?SetEquipment@classdef@@QAEXH@Z ; classdef::SetEquipment

; 73   : }

  00134	5f		 pop	 edi
  00135	5e		 pop	 esi
  00136	5b		 pop	 ebx
  00137	8b e5		 mov	 esp, ebp
  00139	5d		 pop	 ebp
  0013a	c2 30 00	 ret	 48			; 00000030H
?SetCharacter@classdef@@QAEXHHHHHMMMMMMH@Z ENDP		; classdef::SetCharacter
_TEXT	ENDS
; Function compile flags: /Odtp /ZI
; File C:\Mu Online\Mu-GS-Webzen-MC-10093\common\classdef.cpp
;	COMDAT ?Init@classdef@@QAEXXZ
_TEXT	SEGMENT
_this$ = -4						; size = 4
?Init@classdef@@QAEXXZ PROC				; classdef::Init, COMDAT
; _this$ = ecx

; 27   : {

  00000	55		 push	 ebp
  00001	8b ec		 mov	 ebp, esp
  00003	83 ec 44	 sub	 esp, 68			; 00000044H
  00006	53		 push	 ebx
  00007	56		 push	 esi
  00008	57		 push	 edi
  00009	89 4d fc	 mov	 DWORD PTR _this$[ebp], ecx

; 28   : 	
; 29   : 
; 30   : /**********************************************************************************************************************
; 31   : 				        Class * Str * Dex * Vit * Energy * Life * Mana * LevelLife * LevelMana * VitalityToLife * EnergyToMana , Leadership
; 32   : ***********************************************************************************************************************/
; 33   : 	SetCharacter( CLASS_WIZARD,  18,   18,  15,     30,     60,    60,        1,		2,	        	2,  		2);

  0000c	6a 00		 push	 0
  0000e	51		 push	 ecx
  0000f	f3 0f 10 05 00
	00 00 00	 movss	 xmm0, DWORD PTR __real@40000000
  00017	f3 0f 11 04 24	 movss	 DWORD PTR [esp], xmm0
  0001c	51		 push	 ecx
  0001d	f3 0f 10 05 00
	00 00 00	 movss	 xmm0, DWORD PTR __real@40000000
  00025	f3 0f 11 04 24	 movss	 DWORD PTR [esp], xmm0
  0002a	51		 push	 ecx
  0002b	f3 0f 10 05 00
	00 00 00	 movss	 xmm0, DWORD PTR __real@40000000
  00033	f3 0f 11 04 24	 movss	 DWORD PTR [esp], xmm0
  00038	51		 push	 ecx
  00039	f3 0f 10 05 00
	00 00 00	 movss	 xmm0, DWORD PTR __real@3f800000
  00041	f3 0f 11 04 24	 movss	 DWORD PTR [esp], xmm0
  00046	51		 push	 ecx
  00047	f3 0f 10 05 00
	00 00 00	 movss	 xmm0, DWORD PTR __real@42700000
  0004f	f3 0f 11 04 24	 movss	 DWORD PTR [esp], xmm0
  00054	51		 push	 ecx
  00055	f3 0f 10 05 00
	00 00 00	 movss	 xmm0, DWORD PTR __real@42700000
  0005d	f3 0f 11 04 24	 movss	 DWORD PTR [esp], xmm0
  00062	6a 1e		 push	 30			; 0000001eH
  00064	6a 0f		 push	 15			; 0000000fH
  00066	6a 12		 push	 18			; 00000012H
  00068	6a 12		 push	 18			; 00000012H
  0006a	6a 00		 push	 0
  0006c	8b 4d fc	 mov	 ecx, DWORD PTR _this$[ebp]
  0006f	e8 00 00 00 00	 call	 ?SetCharacter@classdef@@QAEXHHHHHMMMMMMH@Z ; classdef::SetCharacter

; 34   : 	SetCharacter( CLASS_KNIGHT,  28,   20,  25,     10,    110,    20,        2,	  0.5,				3,			1);

  00074	6a 00		 push	 0
  00076	51		 push	 ecx
  00077	f3 0f 10 05 00
	00 00 00	 movss	 xmm0, DWORD PTR __real@3f800000
  0007f	f3 0f 11 04 24	 movss	 DWORD PTR [esp], xmm0
  00084	51		 push	 ecx
  00085	f3 0f 10 05 00
	00 00 00	 movss	 xmm0, DWORD PTR __real@40400000
  0008d	f3 0f 11 04 24	 movss	 DWORD PTR [esp], xmm0
  00092	51		 push	 ecx
  00093	f3 0f 10 05 00
	00 00 00	 movss	 xmm0, DWORD PTR __real@3f000000
  0009b	f3 0f 11 04 24	 movss	 DWORD PTR [esp], xmm0
  000a0	51		 push	 ecx
  000a1	f3 0f 10 05 00
	00 00 00	 movss	 xmm0, DWORD PTR __real@40000000
  000a9	f3 0f 11 04 24	 movss	 DWORD PTR [esp], xmm0
  000ae	51		 push	 ecx
  000af	f3 0f 10 05 00
	00 00 00	 movss	 xmm0, DWORD PTR __real@41a00000
  000b7	f3 0f 11 04 24	 movss	 DWORD PTR [esp], xmm0
  000bc	51		 push	 ecx
  000bd	f3 0f 10 05 00
	00 00 00	 movss	 xmm0, DWORD PTR __real@42dc0000
  000c5	f3 0f 11 04 24	 movss	 DWORD PTR [esp], xmm0
  000ca	6a 0a		 push	 10			; 0000000aH
  000cc	6a 19		 push	 25			; 00000019H
  000ce	6a 14		 push	 20			; 00000014H
  000d0	6a 1c		 push	 28			; 0000001cH
  000d2	6a 01		 push	 1
  000d4	8b 4d fc	 mov	 ecx, DWORD PTR _this$[ebp]
  000d7	e8 00 00 00 00	 call	 ?SetCharacter@classdef@@QAEXHHHHHMMMMMMH@Z ; classdef::SetCharacter

; 35   : 	SetCharacter( CLASS_ELF	  ,  22,   25,  20,     15,     80,    30,        1,	  1.5,    			2,		  1.5);

  000dc	6a 00		 push	 0
  000de	51		 push	 ecx
  000df	f3 0f 10 05 00
	00 00 00	 movss	 xmm0, DWORD PTR __real@3fc00000
  000e7	f3 0f 11 04 24	 movss	 DWORD PTR [esp], xmm0
  000ec	51		 push	 ecx
  000ed	f3 0f 10 05 00
	00 00 00	 movss	 xmm0, DWORD PTR __real@40000000
  000f5	f3 0f 11 04 24	 movss	 DWORD PTR [esp], xmm0
  000fa	51		 push	 ecx
  000fb	f3 0f 10 05 00
	00 00 00	 movss	 xmm0, DWORD PTR __real@3fc00000
  00103	f3 0f 11 04 24	 movss	 DWORD PTR [esp], xmm0
  00108	51		 push	 ecx
  00109	f3 0f 10 05 00
	00 00 00	 movss	 xmm0, DWORD PTR __real@3f800000
  00111	f3 0f 11 04 24	 movss	 DWORD PTR [esp], xmm0
  00116	51		 push	 ecx
  00117	f3 0f 10 05 00
	00 00 00	 movss	 xmm0, DWORD PTR __real@41f00000
  0011f	f3 0f 11 04 24	 movss	 DWORD PTR [esp], xmm0
  00124	51		 push	 ecx
  00125	f3 0f 10 05 00
	00 00 00	 movss	 xmm0, DWORD PTR __real@42a00000
  0012d	f3 0f 11 04 24	 movss	 DWORD PTR [esp], xmm0
  00132	6a 0f		 push	 15			; 0000000fH
  00134	6a 14		 push	 20			; 00000014H
  00136	6a 19		 push	 25			; 00000019H
  00138	6a 16		 push	 22			; 00000016H
  0013a	6a 02		 push	 2
  0013c	8b 4d fc	 mov	 ecx, DWORD PTR _this$[ebp]
  0013f	e8 00 00 00 00	 call	 ?SetCharacter@classdef@@QAEXHHHHHMMMMMMH@Z ; classdef::SetCharacter

; 36   : 	SetCharacter(CLASS_MAGUMSA,  26,   26,  26,     26,    110,    60,        1,		1,				2,			2);

  00144	6a 00		 push	 0
  00146	51		 push	 ecx
  00147	f3 0f 10 05 00
	00 00 00	 movss	 xmm0, DWORD PTR __real@40000000
  0014f	f3 0f 11 04 24	 movss	 DWORD PTR [esp], xmm0
  00154	51		 push	 ecx
  00155	f3 0f 10 05 00
	00 00 00	 movss	 xmm0, DWORD PTR __real@40000000
  0015d	f3 0f 11 04 24	 movss	 DWORD PTR [esp], xmm0
  00162	51		 push	 ecx
  00163	f3 0f 10 05 00
	00 00 00	 movss	 xmm0, DWORD PTR __real@3f800000
  0016b	f3 0f 11 04 24	 movss	 DWORD PTR [esp], xmm0
  00170	51		 push	 ecx
  00171	f3 0f 10 05 00
	00 00 00	 movss	 xmm0, DWORD PTR __real@3f800000
  00179	f3 0f 11 04 24	 movss	 DWORD PTR [esp], xmm0
  0017e	51		 push	 ecx
  0017f	f3 0f 10 05 00
	00 00 00	 movss	 xmm0, DWORD PTR __real@42700000
  00187	f3 0f 11 04 24	 movss	 DWORD PTR [esp], xmm0
  0018c	51		 push	 ecx
  0018d	f3 0f 10 05 00
	00 00 00	 movss	 xmm0, DWORD PTR __real@42dc0000
  00195	f3 0f 11 04 24	 movss	 DWORD PTR [esp], xmm0
  0019a	6a 1a		 push	 26			; 0000001aH
  0019c	6a 1a		 push	 26			; 0000001aH
  0019e	6a 1a		 push	 26			; 0000001aH
  001a0	6a 1a		 push	 26			; 0000001aH
  001a2	6a 03		 push	 3
  001a4	8b 4d fc	 mov	 ecx, DWORD PTR _this$[ebp]
  001a7	e8 00 00 00 00	 call	 ?SetCharacter@classdef@@QAEXHHHHHMMMMMMH@Z ; classdef::SetCharacter

; 37   : 
; 38   : #ifdef DARKLORD_WORK
; 39   : 	SetCharacter(CLASS_DARKLORD,  26,   20,  20,    15,     90,    40,        1.5f,		1,				2,			1.5, 25);

  001ac	6a 19		 push	 25			; 00000019H
  001ae	51		 push	 ecx
  001af	f3 0f 10 05 00
	00 00 00	 movss	 xmm0, DWORD PTR __real@3fc00000
  001b7	f3 0f 11 04 24	 movss	 DWORD PTR [esp], xmm0
  001bc	51		 push	 ecx
  001bd	f3 0f 10 05 00
	00 00 00	 movss	 xmm0, DWORD PTR __real@40000000
  001c5	f3 0f 11 04 24	 movss	 DWORD PTR [esp], xmm0
  001ca	51		 push	 ecx
  001cb	f3 0f 10 05 00
	00 00 00	 movss	 xmm0, DWORD PTR __real@3f800000
  001d3	f3 0f 11 04 24	 movss	 DWORD PTR [esp], xmm0
  001d8	51		 push	 ecx
  001d9	f3 0f 10 05 00
	00 00 00	 movss	 xmm0, DWORD PTR __real@3fc00000
  001e1	f3 0f 11 04 24	 movss	 DWORD PTR [esp], xmm0
  001e6	51		 push	 ecx
  001e7	f3 0f 10 05 00
	00 00 00	 movss	 xmm0, DWORD PTR __real@42200000
  001ef	f3 0f 11 04 24	 movss	 DWORD PTR [esp], xmm0
  001f4	51		 push	 ecx
  001f5	f3 0f 10 05 00
	00 00 00	 movss	 xmm0, DWORD PTR __real@42b40000
  001fd	f3 0f 11 04 24	 movss	 DWORD PTR [esp], xmm0
  00202	6a 0f		 push	 15			; 0000000fH
  00204	6a 14		 push	 20			; 00000014H
  00206	6a 14		 push	 20			; 00000014H
  00208	6a 1a		 push	 26			; 0000001aH
  0020a	6a 04		 push	 4
  0020c	8b 4d fc	 mov	 ecx, DWORD PTR _this$[ebp]
  0020f	e8 00 00 00 00	 call	 ?SetCharacter@classdef@@QAEXHHHHHMMMMMMH@Z ; classdef::SetCharacter

; 40   : #endif
; 41   : #ifdef ADD_SEASON_3_NEW_CHARACTER_SUMMONER_20070912	// 기본값 설정
; 42   : 	SetCharacter(CLASS_SUMMONER,  21,   21,  18,     23,     70,    40,        1,		1.5,        	2,  		1.5);
; 43   : #endif	
; 44   : }

  00214	5f		 pop	 edi
  00215	5e		 pop	 esi
  00216	5b		 pop	 ebx
  00217	8b e5		 mov	 esp, ebp
  00219	5d		 pop	 ebp
  0021a	c3		 ret	 0
?Init@classdef@@QAEXXZ ENDP				; classdef::Init
_TEXT	ENDS
; Function compile flags: /Odtp /ZI
; File C:\Mu Online\Mu-GS-Webzen-MC-10093\common\classdef.cpp
;	COMDAT ??1classdef@@UAE@XZ
_TEXT	SEGMENT
_this$ = -4						; size = 4
??1classdef@@UAE@XZ PROC				; classdef::~classdef, COMDAT
; _this$ = ecx

; 23   : {

  00000	55		 push	 ebp
  00001	8b ec		 mov	 ebp, esp
  00003	83 ec 44	 sub	 esp, 68			; 00000044H
  00006	53		 push	 ebx
  00007	56		 push	 esi
  00008	57		 push	 edi
  00009	89 4d fc	 mov	 DWORD PTR _this$[ebp], ecx
  0000c	8b 45 fc	 mov	 eax, DWORD PTR _this$[ebp]
  0000f	c7 00 00 00 00
	00		 mov	 DWORD PTR [eax], OFFSET ??_7classdef@@6B@

; 24   : }

  00015	5f		 pop	 edi
  00016	5e		 pop	 esi
  00017	5b		 pop	 ebx
  00018	8b e5		 mov	 esp, ebp
  0001a	5d		 pop	 ebp
  0001b	c3		 ret	 0
??1classdef@@UAE@XZ ENDP				; classdef::~classdef
_TEXT	ENDS
; Function compile flags: /Odtp /ZI
; File C:\Mu Online\Mu-GS-Webzen-MC-10093\common\classdef.cpp
;	COMDAT ??0classdef@@QAE@XZ
_TEXT	SEGMENT
_this$ = -4						; size = 4
??0classdef@@QAE@XZ PROC				; classdef::classdef, COMDAT
; _this$ = ecx

; 18   : {

  00000	55		 push	 ebp
  00001	8b ec		 mov	 ebp, esp
  00003	83 ec 44	 sub	 esp, 68			; 00000044H
  00006	53		 push	 ebx
  00007	56		 push	 esi
  00008	57		 push	 edi
  00009	89 4d fc	 mov	 DWORD PTR _this$[ebp], ecx
  0000c	8b 45 fc	 mov	 eax, DWORD PTR _this$[ebp]
  0000f	c7 00 00 00 00
	00		 mov	 DWORD PTR [eax], OFFSET ??_7classdef@@6B@
  00015	68 00 00 00 00	 push	 OFFSET ??0DEFAULTCLASSTYPE@@QAE@XZ
  0001a	6a 05		 push	 5
  0001c	68 60 09 00 00	 push	 2400			; 00000960H
  00021	8b 45 fc	 mov	 eax, DWORD PTR _this$[ebp]
  00024	83 c0 04	 add	 eax, 4
  00027	50		 push	 eax
  00028	e8 00 00 00 00	 call	 ??_H@YGXPAXIIP6EPAX0@Z@Z

; 19   : 	m_BabubBanJiCreate = 0;

  0002d	8b 45 fc	 mov	 eax, DWORD PTR _this$[ebp]
  00030	c7 80 e4 2e 00
	00 00 00 00 00	 mov	 DWORD PTR [eax+12004], 0

; 20   : }

  0003a	8b 45 fc	 mov	 eax, DWORD PTR _this$[ebp]
  0003d	5f		 pop	 edi
  0003e	5e		 pop	 esi
  0003f	5b		 pop	 ebx
  00040	8b e5		 mov	 esp, ebp
  00042	5d		 pop	 ebp
  00043	c3		 ret	 0
??0classdef@@QAE@XZ ENDP				; classdef::classdef
_TEXT	ENDS
; Function compile flags: /Odtp /ZI
;	COMDAT ??0DEFAULTCLASSTYPE@@QAE@XZ
_TEXT	SEGMENT
_this$ = -4						; size = 4
??0DEFAULTCLASSTYPE@@QAE@XZ PROC			; DEFAULTCLASSTYPE::DEFAULTCLASSTYPE, COMDAT
; _this$ = ecx
  00000	55		 push	 ebp
  00001	8b ec		 mov	 ebp, esp
  00003	83 ec 44	 sub	 esp, 68			; 00000044H
  00006	53		 push	 ebx
  00007	56		 push	 esi
  00008	57		 push	 edi
  00009	89 4d fc	 mov	 DWORD PTR _this$[ebp], ecx
  0000c	68 00 00 00 00	 push	 OFFSET ??0CItem@@QAE@XZ	; CItem::CItem
  00011	6a 0e		 push	 14			; 0000000eH
  00013	68 a8 00 00 00	 push	 168			; 000000a8H
  00018	8b 45 fc	 mov	 eax, DWORD PTR _this$[ebp]
  0001b	83 c0 2c	 add	 eax, 44			; 0000002cH
  0001e	50		 push	 eax
  0001f	e8 00 00 00 00	 call	 ??_H@YGXPAXIIP6EPAX0@Z@Z
  00024	8b 45 fc	 mov	 eax, DWORD PTR _this$[ebp]
  00027	5f		 pop	 edi
  00028	5e		 pop	 esi
  00029	5b		 pop	 ebx
  0002a	8b e5		 mov	 esp, ebp
  0002c	5d		 pop	 ebp
  0002d	c3		 ret	 0
??0DEFAULTCLASSTYPE@@QAE@XZ ENDP			; DEFAULTCLASSTYPE::DEFAULTCLASSTYPE
_TEXT	ENDS
; Function compile flags: /Odtp /ZI
; File C:\Mu Online\Mu-GS-Webzen-MC-10093\common\classdef.cpp
;	COMDAT ?__empty_global_delete@@YAXPAXI@Z
_TEXT	SEGMENT
___formal$ = 8						; size = 4
___formal$ = 12						; size = 4
?__empty_global_delete@@YAXPAXI@Z PROC			; __empty_global_delete, COMDAT

  00000	55		 push	 ebp
  00001	8b ec		 mov	 ebp, esp
  00003	83 ec 40	 sub	 esp, 64			; 00000040H
  00006	53		 push	 ebx
  00007	56		 push	 esi
  00008	57		 push	 edi
  00009	5f		 pop	 edi
  0000a	5e		 pop	 esi
  0000b	5b		 pop	 ebx
  0000c	8b e5		 mov	 esp, ebp
  0000e	5d		 pop	 ebp
  0000f	c3		 ret	 0
?__empty_global_delete@@YAXPAXI@Z ENDP			; __empty_global_delete
_TEXT	ENDS
; Function compile flags: /Odtp /ZI
; File C:\Mu Online\Mu-GS-Webzen-MC-10093\common\classdef.cpp
;	COMDAT ?__empty_global_delete@@YAXPAX@Z
_TEXT	SEGMENT
___formal$ = 8						; size = 4
?__empty_global_delete@@YAXPAX@Z PROC			; __empty_global_delete, COMDAT

  00000	55		 push	 ebp
  00001	8b ec		 mov	 ebp, esp
  00003	83 ec 40	 sub	 esp, 64			; 00000040H
  00006	53		 push	 ebx
  00007	56		 push	 esi
  00008	57		 push	 edi
  00009	5f		 pop	 edi
  0000a	5e		 pop	 esi
  0000b	5b		 pop	 ebx
  0000c	8b e5		 mov	 esp, ebp
  0000e	5d		 pop	 ebp
  0000f	c3		 ret	 0
?__empty_global_delete@@YAXPAX@Z ENDP			; __empty_global_delete
_TEXT	ENDS
; Function compile flags: /Odtp /ZI
;	COMDAT ??_H@YGXPAXIIP6EPAX0@Z@Z
_TEXT	SEGMENT
tv66 = -68						; size = 4
___t$ = 8						; size = 4
___s$ = 12						; size = 4
___n$ = 16						; size = 4
___f$ = 20						; size = 4
??_H@YGXPAXIIP6EPAX0@Z@Z PROC				; `vector constructor iterator', COMDAT
  00000	55		 push	 ebp
  00001	8b ec		 mov	 ebp, esp
  00003	83 ec 44	 sub	 esp, 68			; 00000044H
  00006	53		 push	 ebx
  00007	56		 push	 esi
  00008	57		 push	 edi
$LN2@vector:
  00009	8b 45 10	 mov	 eax, DWORD PTR ___n$[ebp]
  0000c	89 45 bc	 mov	 DWORD PTR tv66[ebp], eax
  0000f	8b 4d 10	 mov	 ecx, DWORD PTR ___n$[ebp]
  00012	83 e9 01	 sub	 ecx, 1
  00015	89 4d 10	 mov	 DWORD PTR ___n$[ebp], ecx
  00018	83 7d bc 00	 cmp	 DWORD PTR tv66[ebp], 0
  0001c	76 11		 jbe	 SHORT $LN1@vector
  0001e	8b 4d 08	 mov	 ecx, DWORD PTR ___t$[ebp]
  00021	ff 55 14	 call	 DWORD PTR ___f$[ebp]
  00024	8b 45 08	 mov	 eax, DWORD PTR ___t$[ebp]
  00027	03 45 0c	 add	 eax, DWORD PTR ___s$[ebp]
  0002a	89 45 08	 mov	 DWORD PTR ___t$[ebp], eax
  0002d	eb da		 jmp	 SHORT $LN2@vector
$LN1@vector:
  0002f	5f		 pop	 edi
  00030	5e		 pop	 esi
  00031	5b		 pop	 ebx
  00032	8b e5		 mov	 esp, ebp
  00034	5d		 pop	 ebp
  00035	c2 10 00	 ret	 16			; 00000010H
??_H@YGXPAXIIP6EPAX0@Z@Z ENDP				; `vector constructor iterator'
_TEXT	ENDS
END
