; Listing generated by Microsoft (R) Optimizing Compiler Version 19.27.29111.0 

	TITLE	C:\Mu Online\Mu-GS-Webzen-MC-10093\GameServer\CLoginCount.cpp
	.686P
	.XMM
	include listing.inc
	.model	flat

INCLUDELIB LIBCMT
INCLUDELIB OLDNAMES

PUBLIC	?__empty_global_delete@@YAXPAX@Z		; __empty_global_delete
PUBLIC	?__empty_global_delete@@YAXPAXI@Z		; __empty_global_delete
PUBLIC	??0CLoginCount@@QAE@XZ				; CLoginCount::CLoginCount
PUBLIC	??1CLoginCount@@QAE@XZ				; CLoginCount::~CLoginCount
PUBLIC	?Init@CLoginCount@@QAEXXZ			; CLoginCount::Init
PUBLIC	?Add@CLoginCount@@QAEXXZ			; CLoginCount::Add
PUBLIC	?Delete@CLoginCount@@QAEXXZ			; CLoginCount::Delete
PUBLIC	?Get@CLoginCount@@QAEHXZ			; CLoginCount::Get
; Function compile flags: /Odtp /ZI
; File C:\Mu Online\Mu-GS-Webzen-MC-10093\GameServer\CLoginCount.cpp
;	COMDAT ?Get@CLoginCount@@QAEHXZ
_TEXT	SEGMENT
_this$ = -4						; size = 4
?Get@CLoginCount@@QAEHXZ PROC				; CLoginCount::Get, COMDAT
; _this$ = ecx

; 37   : {

  00000	55		 push	 ebp
  00001	8b ec		 mov	 ebp, esp
  00003	83 ec 44	 sub	 esp, 68			; 00000044H
  00006	53		 push	 ebx
  00007	56		 push	 esi
  00008	57		 push	 edi
  00009	89 4d fc	 mov	 DWORD PTR _this$[ebp], ecx

; 38   : 	return m_count;

  0000c	8b 45 fc	 mov	 eax, DWORD PTR _this$[ebp]
  0000f	8b 00		 mov	 eax, DWORD PTR [eax]

; 39   : }

  00011	5f		 pop	 edi
  00012	5e		 pop	 esi
  00013	5b		 pop	 ebx
  00014	8b e5		 mov	 esp, ebp
  00016	5d		 pop	 ebp
  00017	c3		 ret	 0
?Get@CLoginCount@@QAEHXZ ENDP				; CLoginCount::Get
_TEXT	ENDS
; Function compile flags: /Odtp /ZI
; File C:\Mu Online\Mu-GS-Webzen-MC-10093\GameServer\CLoginCount.cpp
;	COMDAT ?Delete@CLoginCount@@QAEXXZ
_TEXT	SEGMENT
_this$ = -4						; size = 4
?Delete@CLoginCount@@QAEXXZ PROC			; CLoginCount::Delete, COMDAT
; _this$ = ecx

; 28   : {

  00000	55		 push	 ebp
  00001	8b ec		 mov	 ebp, esp
  00003	83 ec 44	 sub	 esp, 68			; 00000044H
  00006	53		 push	 ebx
  00007	56		 push	 esi
  00008	57		 push	 edi
  00009	89 4d fc	 mov	 DWORD PTR _this$[ebp], ecx

; 29   : 	m_count--;

  0000c	8b 45 fc	 mov	 eax, DWORD PTR _this$[ebp]
  0000f	8b 08		 mov	 ecx, DWORD PTR [eax]
  00011	83 e9 01	 sub	 ecx, 1
  00014	8b 55 fc	 mov	 edx, DWORD PTR _this$[ebp]
  00017	89 0a		 mov	 DWORD PTR [edx], ecx

; 30   : 	if( m_count < 0 )

  00019	8b 45 fc	 mov	 eax, DWORD PTR _this$[ebp]
  0001c	83 38 00	 cmp	 DWORD PTR [eax], 0
  0001f	7d 09		 jge	 SHORT $LN1@Delete

; 31   : 	{
; 32   : 		m_count = 0;

  00021	8b 45 fc	 mov	 eax, DWORD PTR _this$[ebp]
  00024	c7 00 00 00 00
	00		 mov	 DWORD PTR [eax], 0
$LN1@Delete:

; 33   : 	}
; 34   : }

  0002a	5f		 pop	 edi
  0002b	5e		 pop	 esi
  0002c	5b		 pop	 ebx
  0002d	8b e5		 mov	 esp, ebp
  0002f	5d		 pop	 ebp
  00030	c3		 ret	 0
?Delete@CLoginCount@@QAEXXZ ENDP			; CLoginCount::Delete
_TEXT	ENDS
; Function compile flags: /Odtp /ZI
; File C:\Mu Online\Mu-GS-Webzen-MC-10093\GameServer\CLoginCount.cpp
;	COMDAT ?Add@CLoginCount@@QAEXXZ
_TEXT	SEGMENT
_this$ = -4						; size = 4
?Add@CLoginCount@@QAEXXZ PROC				; CLoginCount::Add, COMDAT
; _this$ = ecx

; 22   : {

  00000	55		 push	 ebp
  00001	8b ec		 mov	 ebp, esp
  00003	83 ec 44	 sub	 esp, 68			; 00000044H
  00006	53		 push	 ebx
  00007	56		 push	 esi
  00008	57		 push	 edi
  00009	89 4d fc	 mov	 DWORD PTR _this$[ebp], ecx

; 23   : 	m_count++;

  0000c	8b 45 fc	 mov	 eax, DWORD PTR _this$[ebp]
  0000f	8b 08		 mov	 ecx, DWORD PTR [eax]
  00011	83 c1 01	 add	 ecx, 1
  00014	8b 55 fc	 mov	 edx, DWORD PTR _this$[ebp]
  00017	89 0a		 mov	 DWORD PTR [edx], ecx

; 24   : }

  00019	5f		 pop	 edi
  0001a	5e		 pop	 esi
  0001b	5b		 pop	 ebx
  0001c	8b e5		 mov	 esp, ebp
  0001e	5d		 pop	 ebp
  0001f	c3		 ret	 0
?Add@CLoginCount@@QAEXXZ ENDP				; CLoginCount::Add
_TEXT	ENDS
; Function compile flags: /Odtp /ZI
; File C:\Mu Online\Mu-GS-Webzen-MC-10093\GameServer\CLoginCount.cpp
;	COMDAT ?Init@CLoginCount@@QAEXXZ
_TEXT	SEGMENT
_this$ = -4						; size = 4
?Init@CLoginCount@@QAEXXZ PROC				; CLoginCount::Init, COMDAT
; _this$ = ecx

; 16   : {

  00000	55		 push	 ebp
  00001	8b ec		 mov	 ebp, esp
  00003	83 ec 44	 sub	 esp, 68			; 00000044H
  00006	53		 push	 ebx
  00007	56		 push	 esi
  00008	57		 push	 edi
  00009	89 4d fc	 mov	 DWORD PTR _this$[ebp], ecx

; 17   : 	m_count = 0;

  0000c	8b 45 fc	 mov	 eax, DWORD PTR _this$[ebp]
  0000f	c7 00 00 00 00
	00		 mov	 DWORD PTR [eax], 0

; 18   : }

  00015	5f		 pop	 edi
  00016	5e		 pop	 esi
  00017	5b		 pop	 ebx
  00018	8b e5		 mov	 esp, ebp
  0001a	5d		 pop	 ebp
  0001b	c3		 ret	 0
?Init@CLoginCount@@QAEXXZ ENDP				; CLoginCount::Init
_TEXT	ENDS
; Function compile flags: /Odtp /ZI
; File C:\Mu Online\Mu-GS-Webzen-MC-10093\GameServer\CLoginCount.cpp
;	COMDAT ??1CLoginCount@@QAE@XZ
_TEXT	SEGMENT
_this$ = -4						; size = 4
??1CLoginCount@@QAE@XZ PROC				; CLoginCount::~CLoginCount, COMDAT
; _this$ = ecx

; 11   : {

  00000	55		 push	 ebp
  00001	8b ec		 mov	 ebp, esp
  00003	83 ec 44	 sub	 esp, 68			; 00000044H
  00006	53		 push	 ebx
  00007	56		 push	 esi
  00008	57		 push	 edi
  00009	89 4d fc	 mov	 DWORD PTR _this$[ebp], ecx

; 12   : 
; 13   : }

  0000c	5f		 pop	 edi
  0000d	5e		 pop	 esi
  0000e	5b		 pop	 ebx
  0000f	8b e5		 mov	 esp, ebp
  00011	5d		 pop	 ebp
  00012	c3		 ret	 0
??1CLoginCount@@QAE@XZ ENDP				; CLoginCount::~CLoginCount
_TEXT	ENDS
; Function compile flags: /Odtp /ZI
; File C:\Mu Online\Mu-GS-Webzen-MC-10093\GameServer\CLoginCount.cpp
;	COMDAT ??0CLoginCount@@QAE@XZ
_TEXT	SEGMENT
_this$ = -4						; size = 4
??0CLoginCount@@QAE@XZ PROC				; CLoginCount::CLoginCount, COMDAT
; _this$ = ecx

; 6    : {

  00000	55		 push	 ebp
  00001	8b ec		 mov	 ebp, esp
  00003	83 ec 44	 sub	 esp, 68			; 00000044H
  00006	53		 push	 ebx
  00007	56		 push	 esi
  00008	57		 push	 edi
  00009	89 4d fc	 mov	 DWORD PTR _this$[ebp], ecx

; 7    : 	Init();

  0000c	8b 4d fc	 mov	 ecx, DWORD PTR _this$[ebp]
  0000f	e8 00 00 00 00	 call	 ?Init@CLoginCount@@QAEXXZ ; CLoginCount::Init

; 8    : }

  00014	8b 45 fc	 mov	 eax, DWORD PTR _this$[ebp]
  00017	5f		 pop	 edi
  00018	5e		 pop	 esi
  00019	5b		 pop	 ebx
  0001a	8b e5		 mov	 esp, ebp
  0001c	5d		 pop	 ebp
  0001d	c3		 ret	 0
??0CLoginCount@@QAE@XZ ENDP				; CLoginCount::CLoginCount
_TEXT	ENDS
; Function compile flags: /Odtp /ZI
; File C:\Mu Online\Mu-GS-Webzen-MC-10093\GameServer\CLoginCount.cpp
;	COMDAT ?__empty_global_delete@@YAXPAXI@Z
_TEXT	SEGMENT
___formal$ = 8						; size = 4
___formal$ = 12						; size = 4
?__empty_global_delete@@YAXPAXI@Z PROC			; __empty_global_delete, COMDAT

  00000	55		 push	 ebp
  00001	8b ec		 mov	 ebp, esp
  00003	83 ec 40	 sub	 esp, 64			; 00000040H
  00006	53		 push	 ebx
  00007	56		 push	 esi
  00008	57		 push	 edi
  00009	5f		 pop	 edi
  0000a	5e		 pop	 esi
  0000b	5b		 pop	 ebx
  0000c	8b e5		 mov	 esp, ebp
  0000e	5d		 pop	 ebp
  0000f	c3		 ret	 0
?__empty_global_delete@@YAXPAXI@Z ENDP			; __empty_global_delete
_TEXT	ENDS
; Function compile flags: /Odtp /ZI
; File C:\Mu Online\Mu-GS-Webzen-MC-10093\GameServer\CLoginCount.cpp
;	COMDAT ?__empty_global_delete@@YAXPAX@Z
_TEXT	SEGMENT
___formal$ = 8						; size = 4
?__empty_global_delete@@YAXPAX@Z PROC			; __empty_global_delete, COMDAT

  00000	55		 push	 ebp
  00001	8b ec		 mov	 ebp, esp
  00003	83 ec 40	 sub	 esp, 64			; 00000040H
  00006	53		 push	 ebx
  00007	56		 push	 esi
  00008	57		 push	 edi
  00009	5f		 pop	 edi
  0000a	5e		 pop	 esi
  0000b	5b		 pop	 ebx
  0000c	8b e5		 mov	 esp, ebp
  0000e	5d		 pop	 ebp
  0000f	c3		 ret	 0
?__empty_global_delete@@YAXPAX@Z ENDP			; __empty_global_delete
_TEXT	ENDS
END
