; Listing generated by Microsoft (R) Optimizing Compiler Version 19.27.29111.0 

	TITLE	C:\Mu Online\Mu-GS-Webzen-MC-10093\GameServer\Command.cpp
	.686P
	.XMM
	include listing.inc
	.model	flat

INCLUDELIB LIBCMT
INCLUDELIB OLDNAMES

PUBLIC	?gs_cmd@@3VCHAT_COMMANDS@@A			; gs_cmd
_BSS	SEGMENT
?gs_cmd@@3VCHAT_COMMANDS@@A DB 07d0H DUP (?)		; gs_cmd
_BSS	ENDS
PUBLIC	?__empty_global_delete@@YAXPAX@Z		; __empty_global_delete
PUBLIC	?__empty_global_delete@@YAXPAXI@Z		; __empty_global_delete
PUBLIC	___local_stdio_printf_options
PUBLIC	__vsnprintf_l
PUBLIC	__vsprintf_l
PUBLIC	_sprintf
PUBLIC	?Settings@CHAT_COMMANDS@@QAE_NXZ		; CHAT_COMMANDS::Settings
PUBLIC	?myinfo@CHAT_COMMANDS@@QAEXH@Z			; CHAT_COMMANDS::myinfo
PUBLIC	?Compro@CHAT_COMMANDS@@QAEXHPAD@Z		; CHAT_COMMANDS::Compro
PUBLIC	?Vendo@CHAT_COMMANDS@@QAEXHPAD@Z		; CHAT_COMMANDS::Vendo
PUBLIC	?OpenWareCommand@CHAT_COMMANDS@@QAEXH@Z		; CHAT_COMMANDS::OpenWareCommand
PUBLIC	?ChatRecv@CHAT_COMMANDS@@QAE_NPAUPMSG_CHATDATA@@H@Z ; CHAT_COMMANDS::ChatRecv
PUBLIC	?_OptionsStorage@?1??__local_stdio_printf_options@@9@4_KA ; `__local_stdio_printf_options'::`2'::_OptionsStorage
PUBLIC	??_C@_0BI@LEKPHMLP@?4?4?2data?2NewsCommand?4ini@ ; `string'
PUBLIC	??_C@_03HMOFHEFA@?1ir@				; `string'
PUBLIC	??_C@_0BI@HAHAILJD@Sintax?5do?5Comando?5?$DM?1ir?$DO@ ; `string'
PUBLIC	??_C@_09GPOJNOCF@IrCommand@			; `string'
PUBLIC	??_C@_0BA@CMECIFIG@Activar?5Comando@		; `string'
PUBLIC	??_C@_0BA@LLHACNMM@OpenWareCommand@		; `string'
PUBLIC	??_C@_0BL@OBCCLBMH@Level?5para?5usar?5el?5comando@ ; `string'
PUBLIC	??_C@_0BM@OBJJOAPA@Activar?5Solamente?5para?5Vips@ ; `string'
PUBLIC	??_C@_0BI@MFMGNPLC@Zen?5por?5usar?5el?5comando@	; `string'
PUBLIC	??_C@_05HNPIOGFN@?1open@			; `string'
PUBLIC	??_C@_0BC@GBEMELCE@Sintax?5de?5Comando@		; `string'
PUBLIC	??_C@_07EGPKGDKN@?1compro@			; `string'
PUBLIC	??_C@_0BM@ENMDJGPI@Sintax?5de?5Comando?5?$DM?1compro?$DO@ ; `string'
PUBLIC	??_C@_0O@MMMAPBCJ@ComproCommand@		; `string'
PUBLIC	??_C@_0M@LMOGAOGB@?$FLCOMPRO?$FN?3?$CFs@	; `string'
PUBLIC	??_C@_0CK@KCCLJGNK@Formato?5para?5exhibir?5el?5comando@ ; `string'
PUBLIC	??_C@_06KBINOLLB@?1vendo@			; `string'
PUBLIC	??_C@_0BL@LGOMLOK@Sintax?5de?5Comando?5?$DM?1vendo?$DO@ ; `string'
PUBLIC	??_C@_0N@HPAHJDBN@VendoCommand@			; `string'
PUBLIC	??_C@_0L@PIDECALJ@?$FLVENDO?$FN?3?$CFs@		; `string'
PUBLIC	??_C@_0CJ@DGHOMDKJ@Formato?5para?5exhibir?5el?5comando@ ; `string'
PUBLIC	??_C@_0BG@GGOILNKD@?4?4?2data?2QueryShop?4ini@	; `string'
PUBLIC	??_C@_0EK@CLGCAEDA@UPDATE?5MuOnline?4dbo?4MEMB_INFO?5S@ ; `string'
PUBLIC	??_C@_0P@FHJNEOJG@UPDATE?5PREMIAR@		; `string'
PUBLIC	??_C@_0P@CBCPBPE@PREMIAR?5UPDATE@		; `string'
PUBLIC	??_C@_0BL@JDNEBAAB@?4?4?2data?2ConfigSurvivor?4txt@ ; `string'
PUBLIC	??_C@_0BO@LALEILJL@digite?5?$FL?1ir?$FN?5para?5participar?4@ ; `string'
PUBLIC	??_C@_0BI@BLEPPMMK@Mensaje?5Sobrevivencia?51@	; `string'
PUBLIC	??_C@_06LGMEBDBC@Server@			; `string'
PUBLIC	??_C@_0CC@CFJMEDFK@?$FLInfo?$FN?5Character?3?5?$CFs?5?$HM?$HM?5Guild?3?5@ ; `string'
PUBLIC	??_C@_0BM@BCIDPKAN@?$FLInfo?$FN?5Level?3?5?$CFd?0Resets?3?5?$CFd@ ; `string'
PUBLIC	??_C@_0BB@GBJEPCIK@?$FLInfo?$FN?5Cash?3?5?$CFd?5@ ; `string'
PUBLIC	??_C@_0BD@PFFDPDMN@WwW?4MuCastillo?4Net@	; `string'
PUBLIC	??_C@_0DN@EHGBANIM@?$FLCOMANDO?5OPENWARE?$FN?3?5?$FL?$CFs?$FN?5Falta?5@ ; `string'
PUBLIC	??_C@_0DL@EKHFNOJG@?$FLCOMANDO?5OPENWARE?$FN?3?5?$FL?$CFs?$FN?5Falta?5@ ; `string'
PUBLIC	??_C@_0DN@PHDOIJNL@?$FLCOMANDO?5OPENWARE?$FN?3?5?$CFs?5Cerrar?5e@ ; `string'
PUBLIC	??_C@_0EA@BHABJDMD@?$FLCOMANDO?5OPENWARE?$FN?3?5?$CFs?5Cerrar?5e@ ; `string'
PUBLIC	??_C@_0DM@PPNPHKCN@?$FLCOMANDO?5OPENWARE?$FN?3?5?$CFs?5Cerrar?5e@ ; `string'
PUBLIC	??_C@_0CP@IALCJIGM@?$FLCOMANDO?5OPENWARE?$FN?3?5?$CFs?5Baul?5abi@ ; `string'
PUBLIC	??_C@_0BK@KADNJCEF@Activar?5Comando?5?$DM?1compro?$DO@ ; `string'
PUBLIC	??_C@_0CM@ELOIPGD@Level?5minimo?5para?5usar?5el?5coman@ ; `string'
PUBLIC	??_C@_0CK@ECCHDMOM@Zen?5minimo?5para?5usar?5el?5comando@ ; `string'
PUBLIC	??_C@_0BJ@LAJKFNAO@Usted?5necesita?5mas?5level@	; `string'
PUBLIC	??_C@_0BH@NCNNDCFN@usted?5necesita?5mas?5zen@	; `string'
PUBLIC	??_C@_0BJ@ENOJFGGK@Activar?5Comando?5?$DM?1vendo?$DO@ ; `string'
PUBLIC	??_C@_0CL@BPDABNAM@Level?5minimo?5para?5usar?5el?5coman@ ; `string'
PUBLIC	??_C@_0CJ@OPDNOLKD@Zen?5minimo?5para?5usar?5el?5comando@ ; `string'
PUBLIC	??_C@_0L@IAAHPKCE@?1abrirbaul@			; `string'
PUBLIC	??_C@_05FJCDLMEJ@?1info@			; `string'
EXTRN	__memicmp:PROC
EXTRN	_strlen:PROC
EXTRN	__imp__GetPrivateProfileIntA@16:PROC
EXTRN	__imp__GetPrivateProfileStringA@24:PROC
EXTRN	___stdio_common_vsprintf:PROC
EXTRN	?MsgOutput@@YAXHPADZZ:PROC			; MsgOutput
EXTRN	?GCServerMsgStringSend@@YAXPADHE@Z:PROC		; GCServerMsgStringSend
EXTRN	?GCMoneySend@@YAXHK@Z:PROC			; GCMoneySend
EXTRN	?VipCount@CManager@@QAEHPAD@Z:PROC		; CManager::VipCount
EXTRN	?CountResets@CManager@@QAEHPAD@Z:PROC		; CManager::CountResets
EXTRN	?KCredits@CManager@@QAEHPAD@Z:PROC		; CManager::KCredits
EXTRN	?OutWhiteMSG@Functions@@QAAXHPBDZZ:PROC		; Functions::OutWhiteMSG
EXTRN	?GreenChatSend@Functions@@QAEXPBDPADK@Z:PROC	; Functions::GreenChatSend
EXTRN	?GDGetWarehouseList@@YAXHPAD@Z:PROC		; GDGetWarehouseList
EXTRN	@__security_check_cookie@4:PROC
EXTRN	?gObj@@3PAVOBJECTSTRUCT@@A:DWORD		; gObj
EXTRN	?Manager@@3VCManager@@A:BYTE			; Manager
EXTRN	?func@@3VFunctions@@A:BYTE			; func
EXTRN	___security_cookie:DWORD
;	COMDAT ?_OptionsStorage@?1??__local_stdio_printf_options@@9@4_KA
_BSS	SEGMENT
?_OptionsStorage@?1??__local_stdio_printf_options@@9@4_KA DQ 01H DUP (?) ; `__local_stdio_printf_options'::`2'::_OptionsStorage
_BSS	ENDS
;	COMDAT ??_C@_05FJCDLMEJ@?1info@
CONST	SEGMENT
??_C@_05FJCDLMEJ@?1info@ DB '/info', 00H		; `string'
CONST	ENDS
;	COMDAT ??_C@_0L@IAAHPKCE@?1abrirbaul@
CONST	SEGMENT
??_C@_0L@IAAHPKCE@?1abrirbaul@ DB '/abrirbaul', 00H	; `string'
CONST	ENDS
;	COMDAT ??_C@_0CJ@OPDNOLKD@Zen?5minimo?5para?5usar?5el?5comando@
CONST	SEGMENT
??_C@_0CJ@OPDNOLKD@Zen?5minimo?5para?5usar?5el?5comando@ DB 'Zen minimo p'
	DB	'ara usar el comando </vendo>', 00H		; `string'
CONST	ENDS
;	COMDAT ??_C@_0CL@BPDABNAM@Level?5minimo?5para?5usar?5el?5coman@
CONST	SEGMENT
??_C@_0CL@BPDABNAM@Level?5minimo?5para?5usar?5el?5coman@ DB 'Level minimo'
	DB	' para usar el comando </vendo>', 00H	; `string'
CONST	ENDS
;	COMDAT ??_C@_0BJ@ENOJFGGK@Activar?5Comando?5?$DM?1vendo?$DO@
CONST	SEGMENT
??_C@_0BJ@ENOJFGGK@Activar?5Comando?5?$DM?1vendo?$DO@ DB 'Activar Comando'
	DB	' </vendo>', 00H				; `string'
CONST	ENDS
;	COMDAT ??_C@_0BH@NCNNDCFN@usted?5necesita?5mas?5zen@
CONST	SEGMENT
??_C@_0BH@NCNNDCFN@usted?5necesita?5mas?5zen@ DB 'usted necesita mas zen', 00H ; `string'
CONST	ENDS
;	COMDAT ??_C@_0BJ@LAJKFNAO@Usted?5necesita?5mas?5level@
CONST	SEGMENT
??_C@_0BJ@LAJKFNAO@Usted?5necesita?5mas?5level@ DB 'Usted necesita mas le'
	DB	'vel', 00H					; `string'
CONST	ENDS
;	COMDAT ??_C@_0CK@ECCHDMOM@Zen?5minimo?5para?5usar?5el?5comando@
CONST	SEGMENT
??_C@_0CK@ECCHDMOM@Zen?5minimo?5para?5usar?5el?5comando@ DB 'Zen minimo p'
	DB	'ara usar el comando </compro>', 00H		; `string'
CONST	ENDS
;	COMDAT ??_C@_0CM@ELOIPGD@Level?5minimo?5para?5usar?5el?5coman@
CONST	SEGMENT
??_C@_0CM@ELOIPGD@Level?5minimo?5para?5usar?5el?5coman@ DB 'Level minimo '
	DB	'para usar el comando </compro>', 00H	; `string'
CONST	ENDS
;	COMDAT ??_C@_0BK@KADNJCEF@Activar?5Comando?5?$DM?1compro?$DO@
CONST	SEGMENT
??_C@_0BK@KADNJCEF@Activar?5Comando?5?$DM?1compro?$DO@ DB 'Activar Comand'
	DB	'o </compro>', 00H				; `string'
CONST	ENDS
;	COMDAT ??_C@_0CP@IALCJIGM@?$FLCOMANDO?5OPENWARE?$FN?3?5?$CFs?5Baul?5abi@
CONST	SEGMENT
??_C@_0CP@IALCJIGM@?$FLCOMANDO?5OPENWARE?$FN?3?5?$CFs?5Baul?5abi@ DB '[CO'
	DB	'MANDO OPENWARE]: %s Baul abierto con exito ', 00H ; `string'
CONST	ENDS
;	COMDAT ??_C@_0DM@PPNPHKCN@?$FLCOMANDO?5OPENWARE?$FN?3?5?$CFs?5Cerrar?5e@
CONST	SEGMENT
??_C@_0DM@PPNPHKCN@?$FLCOMANDO?5OPENWARE?$FN?3?5?$CFs?5Cerrar?5e@ DB '[CO'
	DB	'MANDO OPENWARE]: %s Cerrar el Baul Para Usar el Comando!', 00H ; `string'
CONST	ENDS
;	COMDAT ??_C@_0EA@BHABJDMD@?$FLCOMANDO?5OPENWARE?$FN?3?5?$CFs?5Cerrar?5e@
CONST	SEGMENT
??_C@_0EA@BHABJDMD@?$FLCOMANDO?5OPENWARE?$FN?3?5?$CFs?5Cerrar?5e@ DB '[CO'
	DB	'MANDO OPENWARE]: %s Cerrar el ChaosBox Para Usar el Comando!', 00H ; `string'
CONST	ENDS
;	COMDAT ??_C@_0DN@PHDOIJNL@?$FLCOMANDO?5OPENWARE?$FN?3?5?$CFs?5Cerrar?5e@
CONST	SEGMENT
??_C@_0DN@PHDOIJNL@?$FLCOMANDO?5OPENWARE?$FN?3?5?$CFs?5Cerrar?5e@ DB '[CO'
	DB	'MANDO OPENWARE]: %s Cerrar el Trade Para Usar el Comando!', 00H ; `string'
CONST	ENDS
;	COMDAT ??_C@_0DL@EKHFNOJG@?$FLCOMANDO?5OPENWARE?$FN?3?5?$FL?$CFs?$FN?5Falta?5@
CONST	SEGMENT
??_C@_0DL@EKHFNOJG@?$FLCOMANDO?5OPENWARE?$FN?3?5?$FL?$CFs?$FN?5Falta?5@ DB '['
	DB	'COMANDO OPENWARE]: [%s] Falta %d Zen Para usar el comando', 00H ; `string'
CONST	ENDS
;	COMDAT ??_C@_0DN@EHGBANIM@?$FLCOMANDO?5OPENWARE?$FN?3?5?$FL?$CFs?$FN?5Falta?5@
CONST	SEGMENT
??_C@_0DN@EHGBANIM@?$FLCOMANDO?5OPENWARE?$FN?3?5?$FL?$CFs?$FN?5Falta?5@ DB '['
	DB	'COMANDO OPENWARE]: [%s] Falta %d Level Para usar el comando', 00H ; `string'
CONST	ENDS
;	COMDAT ??_C@_0BD@PFFDPDMN@WwW?4MuCastillo?4Net@
CONST	SEGMENT
??_C@_0BD@PFFDPDMN@WwW?4MuCastillo?4Net@ DB 'WwW.MuCastillo.Net', 00H ; `string'
CONST	ENDS
;	COMDAT ??_C@_0BB@GBJEPCIK@?$FLInfo?$FN?5Cash?3?5?$CFd?5@
CONST	SEGMENT
??_C@_0BB@GBJEPCIK@?$FLInfo?$FN?5Cash?3?5?$CFd?5@ DB '[Info] Cash: %d ', 00H ; `string'
CONST	ENDS
;	COMDAT ??_C@_0BM@BCIDPKAN@?$FLInfo?$FN?5Level?3?5?$CFd?0Resets?3?5?$CFd@
CONST	SEGMENT
??_C@_0BM@BCIDPKAN@?$FLInfo?$FN?5Level?3?5?$CFd?0Resets?3?5?$CFd@ DB '[In'
	DB	'fo] Level: %d,Resets: %d', 00H		; `string'
CONST	ENDS
;	COMDAT ??_C@_0CC@CFJMEDFK@?$FLInfo?$FN?5Character?3?5?$CFs?5?$HM?$HM?5Guild?3?5@
CONST	SEGMENT
??_C@_0CC@CFJMEDFK@?$FLInfo?$FN?5Character?3?5?$CFs?5?$HM?$HM?5Guild?3?5@ DB '['
	DB	'Info] Character: %s || Guild: %s', 00H	; `string'
CONST	ENDS
;	COMDAT ??_C@_06LGMEBDBC@Server@
CONST	SEGMENT
??_C@_06LGMEBDBC@Server@ DB 'Server', 00H		; `string'
CONST	ENDS
;	COMDAT ??_C@_0BI@BLEPPMMK@Mensaje?5Sobrevivencia?51@
CONST	SEGMENT
??_C@_0BI@BLEPPMMK@Mensaje?5Sobrevivencia?51@ DB 'Mensaje Sobrevivencia 1'
	DB	00H						; `string'
CONST	ENDS
;	COMDAT ??_C@_0BO@LALEILJL@digite?5?$FL?1ir?$FN?5para?5participar?4@
CONST	SEGMENT
??_C@_0BO@LALEILJL@digite?5?$FL?1ir?$FN?5para?5participar?4@ DB 'digite ['
	DB	'/ir] para participar.', 00H			; `string'
CONST	ENDS
;	COMDAT ??_C@_0BL@JDNEBAAB@?4?4?2data?2ConfigSurvivor?4txt@
CONST	SEGMENT
??_C@_0BL@JDNEBAAB@?4?4?2data?2ConfigSurvivor?4txt@ DB '..\data\ConfigSur'
	DB	'vivor.txt', 00H				; `string'
CONST	ENDS
;	COMDAT ??_C@_0P@CBCPBPE@PREMIAR?5UPDATE@
CONST	SEGMENT
??_C@_0P@CBCPBPE@PREMIAR?5UPDATE@ DB 'PREMIAR UPDATE', 00H ; `string'
CONST	ENDS
;	COMDAT ??_C@_0P@FHJNEOJG@UPDATE?5PREMIAR@
CONST	SEGMENT
??_C@_0P@FHJNEOJG@UPDATE?5PREMIAR@ DB 'UPDATE PREMIAR', 00H ; `string'
CONST	ENDS
;	COMDAT ??_C@_0EK@CLGCAEDA@UPDATE?5MuOnline?4dbo?4MEMB_INFO?5S@
CONST	SEGMENT
??_C@_0EK@CLGCAEDA@UPDATE?5MuOnline?4dbo?4MEMB_INFO?5S@ DB 'UPDATE MuOnli'
	DB	'ne.dbo.MEMB_INFO SET Gold = Gold + %d Where memb___id = ''%s'''
	DB	00H						; `string'
CONST	ENDS
;	COMDAT ??_C@_0BG@GGOILNKD@?4?4?2data?2QueryShop?4ini@
CONST	SEGMENT
??_C@_0BG@GGOILNKD@?4?4?2data?2QueryShop?4ini@ DB '..\data\QueryShop.ini', 00H ; `string'
CONST	ENDS
;	COMDAT ??_C@_0CJ@DGHOMDKJ@Formato?5para?5exhibir?5el?5comando@
CONST	SEGMENT
??_C@_0CJ@DGHOMDKJ@Formato?5para?5exhibir?5el?5comando@ DB 'Formato para '
	DB	'exhibir el comando </vendo>', 00H		; `string'
CONST	ENDS
;	COMDAT ??_C@_0L@PIDECALJ@?$FLVENDO?$FN?3?$CFs@
CONST	SEGMENT
??_C@_0L@PIDECALJ@?$FLVENDO?$FN?3?$CFs@ DB '[VENDO]:%s', 00H ; `string'
CONST	ENDS
;	COMDAT ??_C@_0N@HPAHJDBN@VendoCommand@
CONST	SEGMENT
??_C@_0N@HPAHJDBN@VendoCommand@ DB 'VendoCommand', 00H	; `string'
CONST	ENDS
;	COMDAT ??_C@_0BL@LGOMLOK@Sintax?5de?5Comando?5?$DM?1vendo?$DO@
CONST	SEGMENT
??_C@_0BL@LGOMLOK@Sintax?5de?5Comando?5?$DM?1vendo?$DO@ DB 'Sintax de Com'
	DB	'ando </vendo>', 00H				; `string'
CONST	ENDS
;	COMDAT ??_C@_06KBINOLLB@?1vendo@
CONST	SEGMENT
??_C@_06KBINOLLB@?1vendo@ DB '/vendo', 00H		; `string'
CONST	ENDS
;	COMDAT ??_C@_0CK@KCCLJGNK@Formato?5para?5exhibir?5el?5comando@
CONST	SEGMENT
??_C@_0CK@KCCLJGNK@Formato?5para?5exhibir?5el?5comando@ DB 'Formato para '
	DB	'exhibir el comando </compro>', 00H		; `string'
CONST	ENDS
;	COMDAT ??_C@_0M@LMOGAOGB@?$FLCOMPRO?$FN?3?$CFs@
CONST	SEGMENT
??_C@_0M@LMOGAOGB@?$FLCOMPRO?$FN?3?$CFs@ DB '[COMPRO]:%s', 00H ; `string'
CONST	ENDS
;	COMDAT ??_C@_0O@MMMAPBCJ@ComproCommand@
CONST	SEGMENT
??_C@_0O@MMMAPBCJ@ComproCommand@ DB 'ComproCommand', 00H ; `string'
CONST	ENDS
;	COMDAT ??_C@_0BM@ENMDJGPI@Sintax?5de?5Comando?5?$DM?1compro?$DO@
CONST	SEGMENT
??_C@_0BM@ENMDJGPI@Sintax?5de?5Comando?5?$DM?1compro?$DO@ DB 'Sintax de C'
	DB	'omando </compro>', 00H			; `string'
CONST	ENDS
;	COMDAT ??_C@_07EGPKGDKN@?1compro@
CONST	SEGMENT
??_C@_07EGPKGDKN@?1compro@ DB '/compro', 00H		; `string'
CONST	ENDS
;	COMDAT ??_C@_0BC@GBEMELCE@Sintax?5de?5Comando@
CONST	SEGMENT
??_C@_0BC@GBEMELCE@Sintax?5de?5Comando@ DB 'Sintax de Comando', 00H ; `string'
CONST	ENDS
;	COMDAT ??_C@_05HNPIOGFN@?1open@
CONST	SEGMENT
??_C@_05HNPIOGFN@?1open@ DB '/open', 00H		; `string'
CONST	ENDS
;	COMDAT ??_C@_0BI@MFMGNPLC@Zen?5por?5usar?5el?5comando@
CONST	SEGMENT
??_C@_0BI@MFMGNPLC@Zen?5por?5usar?5el?5comando@ DB 'Zen por usar el coman'
	DB	'do', 00H					; `string'
CONST	ENDS
;	COMDAT ??_C@_0BM@OBJJOAPA@Activar?5Solamente?5para?5Vips@
CONST	SEGMENT
??_C@_0BM@OBJJOAPA@Activar?5Solamente?5para?5Vips@ DB 'Activar Solamente '
	DB	'para Vips', 00H				; `string'
CONST	ENDS
;	COMDAT ??_C@_0BL@OBCCLBMH@Level?5para?5usar?5el?5comando@
CONST	SEGMENT
??_C@_0BL@OBCCLBMH@Level?5para?5usar?5el?5comando@ DB 'Level para usar el'
	DB	' comando', 00H				; `string'
CONST	ENDS
;	COMDAT ??_C@_0BA@LLHACNMM@OpenWareCommand@
CONST	SEGMENT
??_C@_0BA@LLHACNMM@OpenWareCommand@ DB 'OpenWareCommand', 00H ; `string'
CONST	ENDS
;	COMDAT ??_C@_0BA@CMECIFIG@Activar?5Comando@
CONST	SEGMENT
??_C@_0BA@CMECIFIG@Activar?5Comando@ DB 'Activar Comando', 00H ; `string'
CONST	ENDS
;	COMDAT ??_C@_09GPOJNOCF@IrCommand@
CONST	SEGMENT
??_C@_09GPOJNOCF@IrCommand@ DB 'IrCommand', 00H		; `string'
CONST	ENDS
;	COMDAT ??_C@_0BI@HAHAILJD@Sintax?5do?5Comando?5?$DM?1ir?$DO@
CONST	SEGMENT
??_C@_0BI@HAHAILJD@Sintax?5do?5Comando?5?$DM?1ir?$DO@ DB 'Sintax do Coman'
	DB	'do </ir>', 00H				; `string'
CONST	ENDS
;	COMDAT ??_C@_03HMOFHEFA@?1ir@
CONST	SEGMENT
??_C@_03HMOFHEFA@?1ir@ DB '/ir', 00H			; `string'
CONST	ENDS
;	COMDAT ??_C@_0BI@LEKPHMLP@?4?4?2data?2NewsCommand?4ini@
CONST	SEGMENT
??_C@_0BI@LEKPHMLP@?4?4?2data?2NewsCommand?4ini@ DB '..\data\NewsCommand.'
	DB	'ini', 00H					; `string'
CONST	ENDS
; Function compile flags: /Odtp /ZI
; File C:\Mu Online\Mu-GS-Webzen-MC-10093\GameServer\Command.cpp
;	COMDAT ?ChatRecv@CHAT_COMMANDS@@QAE_NPAUPMSG_CHATDATA@@H@Z
_TEXT	SEGMENT
_this$ = -4						; size = 4
_lpMsg$ = 8						; size = 4
_aIndex$ = 12						; size = 4
?ChatRecv@CHAT_COMMANDS@@QAE_NPAUPMSG_CHATDATA@@H@Z PROC ; CHAT_COMMANDS::ChatRecv, COMDAT
; _this$ = ecx

; 342  : {

  00000	55		 push	 ebp
  00001	8b ec		 mov	 ebp, esp
  00003	83 ec 44	 sub	 esp, 68			; 00000044H
  00006	53		 push	 ebx
  00007	56		 push	 esi
  00008	57		 push	 edi
  00009	89 4d fc	 mov	 DWORD PTR _this$[ebp], ecx

; 343  : 	
; 344  : 	//open baul
; 345  : 	//if(!_stricmp((const char*)(lpMsg->chatmsg),OpenWareSintax))
; 346  :     if(!_memicmp(lpMsg->chatmsg,"/abrirbaul",strlen("/abrirbaul")))

  0000c	68 00 00 00 00	 push	 OFFSET ??_C@_0L@IAAHPKCE@?1abrirbaul@
  00011	e8 00 00 00 00	 call	 _strlen
  00016	83 c4 04	 add	 esp, 4
  00019	50		 push	 eax
  0001a	68 00 00 00 00	 push	 OFFSET ??_C@_0L@IAAHPKCE@?1abrirbaul@
  0001f	8b 45 08	 mov	 eax, DWORD PTR _lpMsg$[ebp]
  00022	83 c0 0d	 add	 eax, 13			; 0000000dH
  00025	50		 push	 eax
  00026	e8 00 00 00 00	 call	 __memicmp
  0002b	83 c4 0c	 add	 esp, 12			; 0000000cH
  0002e	85 c0		 test	 eax, eax
  00030	75 15		 jne	 SHORT $LN2@ChatRecv

; 347  : 	{
; 348  : 		gs_cmd.OpenWareCommand(aIndex);

  00032	8b 45 0c	 mov	 eax, DWORD PTR _aIndex$[ebp]
  00035	50		 push	 eax
  00036	b9 00 00 00 00	 mov	 ecx, OFFSET ?gs_cmd@@3VCHAT_COMMANDS@@A ; gs_cmd
  0003b	e8 00 00 00 00	 call	 ?OpenWareCommand@CHAT_COMMANDS@@QAEXH@Z ; CHAT_COMMANDS::OpenWareCommand

; 349  : 		return true;

  00040	b0 01		 mov	 al, 1
  00042	e9 d7 00 00 00	 jmp	 $LN1@ChatRecv
$LN2@ChatRecv:

; 350  : 	}
; 351  : 
; 352  : 	if(!_memicmp(lpMsg->chatmsg,"/info",strlen("/info")))

  00047	68 00 00 00 00	 push	 OFFSET ??_C@_05FJCDLMEJ@?1info@
  0004c	e8 00 00 00 00	 call	 _strlen
  00051	83 c4 04	 add	 esp, 4
  00054	50		 push	 eax
  00055	68 00 00 00 00	 push	 OFFSET ??_C@_05FJCDLMEJ@?1info@
  0005a	8b 45 08	 mov	 eax, DWORD PTR _lpMsg$[ebp]
  0005d	83 c0 0d	 add	 eax, 13			; 0000000dH
  00060	50		 push	 eax
  00061	e8 00 00 00 00	 call	 __memicmp
  00066	83 c4 0c	 add	 esp, 12			; 0000000cH
  00069	85 c0		 test	 eax, eax
  0006b	75 15		 jne	 SHORT $LN3@ChatRecv

; 353  : 	{
; 354  : 		gs_cmd.myinfo(aIndex);

  0006d	8b 45 0c	 mov	 eax, DWORD PTR _aIndex$[ebp]
  00070	50		 push	 eax
  00071	b9 00 00 00 00	 mov	 ecx, OFFSET ?gs_cmd@@3VCHAT_COMMANDS@@A ; gs_cmd
  00076	e8 00 00 00 00	 call	 ?myinfo@CHAT_COMMANDS@@QAEXH@Z ; CHAT_COMMANDS::myinfo

; 355  : 		return true;

  0007b	b0 01		 mov	 al, 1
  0007d	e9 9c 00 00 00	 jmp	 $LN1@ChatRecv
$LN3@ChatRecv:

; 356  : 	}
; 357  : 	
; 358  : 	// comando compro
; 359  : 	if(!_memicmp(lpMsg->chatmsg,gs_cmd.ComproSintax,strlen(gs_cmd.ComproSintax)))

  00082	68 64 00 00 00	 push	 OFFSET ?gs_cmd@@3VCHAT_COMMANDS@@A+100
  00087	e8 00 00 00 00	 call	 _strlen
  0008c	83 c4 04	 add	 esp, 4
  0008f	50		 push	 eax
  00090	68 64 00 00 00	 push	 OFFSET ?gs_cmd@@3VCHAT_COMMANDS@@A+100
  00095	8b 45 08	 mov	 eax, DWORD PTR _lpMsg$[ebp]
  00098	83 c0 0d	 add	 eax, 13			; 0000000dH
  0009b	50		 push	 eax
  0009c	e8 00 00 00 00	 call	 __memicmp
  000a1	83 c4 0c	 add	 esp, 12			; 0000000cH
  000a4	85 c0		 test	 eax, eax
  000a6	75 27		 jne	 SHORT $LN4@ChatRecv

; 360  : 	{
; 361  : 		gs_cmd.Compro(aIndex,(char*)(lpMsg->chatmsg+strlen(gs_cmd.ComproSintax)));

  000a8	68 64 00 00 00	 push	 OFFSET ?gs_cmd@@3VCHAT_COMMANDS@@A+100
  000ad	e8 00 00 00 00	 call	 _strlen
  000b2	83 c4 04	 add	 esp, 4
  000b5	8b 4d 08	 mov	 ecx, DWORD PTR _lpMsg$[ebp]
  000b8	8d 54 01 0d	 lea	 edx, DWORD PTR [ecx+eax+13]
  000bc	52		 push	 edx
  000bd	8b 45 0c	 mov	 eax, DWORD PTR _aIndex$[ebp]
  000c0	50		 push	 eax
  000c1	b9 00 00 00 00	 mov	 ecx, OFFSET ?gs_cmd@@3VCHAT_COMMANDS@@A ; gs_cmd
  000c6	e8 00 00 00 00	 call	 ?Compro@CHAT_COMMANDS@@QAEXHPAD@Z ; CHAT_COMMANDS::Compro

; 362  : 		return true;

  000cb	b0 01		 mov	 al, 1
  000cd	eb 4f		 jmp	 SHORT $LN1@ChatRecv
$LN4@ChatRecv:

; 363  : 	}
; 364  : 	// comando vendo
; 365  : 	if(!_memicmp(lpMsg->chatmsg,gs_cmd.VendoSintax,strlen(gs_cmd.VendoSintax)))

  000cf	68 c8 00 00 00	 push	 OFFSET ?gs_cmd@@3VCHAT_COMMANDS@@A+200
  000d4	e8 00 00 00 00	 call	 _strlen
  000d9	83 c4 04	 add	 esp, 4
  000dc	50		 push	 eax
  000dd	68 c8 00 00 00	 push	 OFFSET ?gs_cmd@@3VCHAT_COMMANDS@@A+200
  000e2	8b 45 08	 mov	 eax, DWORD PTR _lpMsg$[ebp]
  000e5	83 c0 0d	 add	 eax, 13			; 0000000dH
  000e8	50		 push	 eax
  000e9	e8 00 00 00 00	 call	 __memicmp
  000ee	83 c4 0c	 add	 esp, 12			; 0000000cH
  000f1	85 c0		 test	 eax, eax
  000f3	75 27		 jne	 SHORT $LN5@ChatRecv

; 366  : 	{
; 367  : 		gs_cmd.Vendo(aIndex,(char*)(lpMsg->chatmsg+strlen(gs_cmd.VendoSintax)));

  000f5	68 c8 00 00 00	 push	 OFFSET ?gs_cmd@@3VCHAT_COMMANDS@@A+200
  000fa	e8 00 00 00 00	 call	 _strlen
  000ff	83 c4 04	 add	 esp, 4
  00102	8b 4d 08	 mov	 ecx, DWORD PTR _lpMsg$[ebp]
  00105	8d 54 01 0d	 lea	 edx, DWORD PTR [ecx+eax+13]
  00109	52		 push	 edx
  0010a	8b 45 0c	 mov	 eax, DWORD PTR _aIndex$[ebp]
  0010d	50		 push	 eax
  0010e	b9 00 00 00 00	 mov	 ecx, OFFSET ?gs_cmd@@3VCHAT_COMMANDS@@A ; gs_cmd
  00113	e8 00 00 00 00	 call	 ?Vendo@CHAT_COMMANDS@@QAEXHPAD@Z ; CHAT_COMMANDS::Vendo

; 368  : 		return true;

  00118	b0 01		 mov	 al, 1
  0011a	eb 02		 jmp	 SHORT $LN1@ChatRecv
$LN5@ChatRecv:

; 369  : 	}
; 370  : 
; 371  : 	/*if(!_memicmp(lpMsg->chatmsg,gs_cmd.WareSintax,strlen(gs_cmd.WareSintax)))
; 372  : 	{
; 373  : 		gs_cmd.WareCommand(aIndex,(char*)(lpMsg->chatmsg+strlen(gs_cmd.WareSintax)));
; 374  : 		return true;
; 375  : 	}
; 376  : 	if(!_memicmp(lpMsg->chatmsg,gs_cmd.PremiarSintax,strlen(gs_cmd.PremiarSintax)))
; 377  : 	{
; 378  : 		gs_cmd.Premiar(aIndex,(char*)(lpMsg->chatmsg+strlen(gs_cmd.PremiarSintax)));
; 379  : 		return true;
; 380  : 	}
; 381  : 	*/
; 382  : 	/*if(!_memicmp(lpMsg->chatmsg,SobreSintax,strlen(SobreSintax)))
; 383  : 	{
; 384  : 		Sobre.Init(aIndex,(char*)(lpMsg->chatmsg+strlen(SobreSintax)));
; 385  : 		return true;
; 386  : 	}*/
; 387  : 
; 388  : 	/*if(!_memicmp(lpMsg->chatmsg,IrSintax,strlen(IrSintax)))
; 389  : 	{
; 390  : 		Sobre.Ir(aIndex);
; 391  : 		return true;
; 392  : 	}*/
; 393  : 
; 394  : 	return false;

  0011c	32 c0		 xor	 al, al
$LN1@ChatRecv:

; 395  : }

  0011e	5f		 pop	 edi
  0011f	5e		 pop	 esi
  00120	5b		 pop	 ebx
  00121	8b e5		 mov	 esp, ebp
  00123	5d		 pop	 ebp
  00124	c2 08 00	 ret	 8
?ChatRecv@CHAT_COMMANDS@@QAE_NPAUPMSG_CHATDATA@@H@Z ENDP ; CHAT_COMMANDS::ChatRecv
_TEXT	ENDS
; Function compile flags: /Odtp /ZI
; File C:\Mu Online\Mu-GS-Webzen-MC-10093\GameServer\Command.cpp
;	COMDAT ?OpenWareCommand@CHAT_COMMANDS@@QAEXH@Z
_TEXT	SEGMENT
tv230 = -76						; size = 4
_VipIndex$ = -8						; size = 4
_this$ = -4						; size = 4
_aIndex$ = 8						; size = 4
?OpenWareCommand@CHAT_COMMANDS@@QAEXH@Z PROC		; CHAT_COMMANDS::OpenWareCommand, COMDAT
; _this$ = ecx

; 224  : {

  00000	55		 push	 ebp
  00001	8b ec		 mov	 ebp, esp
  00003	83 ec 4c	 sub	 esp, 76			; 0000004cH
  00006	53		 push	 ebx
  00007	56		 push	 esi
  00008	57		 push	 edi
  00009	89 4d fc	 mov	 DWORD PTR _this$[ebp], ecx

; 225  : 	int VipIndex = Manager.VipCount(gObj[aIndex].AccountID);

  0000c	69 45 08 a0 1b
	00 00		 imul	 eax, DWORD PTR _aIndex$[ebp], 7072
  00013	8b 0d 00 00 00
	00		 mov	 ecx, DWORD PTR ?gObj@@3PAVOBJECTSTRUCT@@A ; gObj
  00019	8d 54 01 68	 lea	 edx, DWORD PTR [ecx+eax+104]
  0001d	52		 push	 edx
  0001e	b9 00 00 00 00	 mov	 ecx, OFFSET ?Manager@@3VCManager@@A ; Manager
  00023	e8 00 00 00 00	 call	 ?VipCount@CManager@@QAEHPAD@Z ; CManager::VipCount
  00028	89 45 f8	 mov	 DWORD PTR _VipIndex$[ebp], eax

; 226  : 	
; 227  : 	/*if(OpenWareAtivo == 0)
; 228  : 	{
; 229  : 		MsgOutput(aIndex,"[COMANDO OPENWARE]: [%s] Este Comando fue Desabilitado Por Administrador",gObj[aIndex].Name);
; 230  : 		
; 231  : 		return;
; 232  : 	}*/
; 233  : 	/*else if(OpenWareVip != 0)
; 234  : 	{	
; 235  : 		if( VipIndex <= 0 )
; 236  : 		{
; 237  : 			MsgOutput(aIndex,"[COMANDO OPENWARE]: [%s] Comando Exclusivo para vip's ",gObj[aIndex].Name);
; 238  : 			return;
; 239  : 		}
; 240  : 	}*/
; 241  : 	if(gObj[aIndex].Level < OpenWareLevel)

  0002b	69 45 08 a0 1b
	00 00		 imul	 eax, DWORD PTR _aIndex$[ebp], 7072
  00032	8b 0d 00 00 00
	00		 mov	 ecx, DWORD PTR ?gObj@@3PAVOBJECTSTRUCT@@A ; gObj
  00038	0f bf 94 01 a0
	00 00 00	 movsx	 edx, WORD PTR [ecx+eax+160]
  00040	8b 45 fc	 mov	 eax, DWORD PTR _this$[ebp]
  00043	3b 90 18 05 00
	00		 cmp	 edx, DWORD PTR [eax+1304]
  00049	73 4c		 jae	 SHORT $LN2@OpenWareCo

; 242  : 	{
; 243  : 		MsgOutput(aIndex,"[COMANDO OPENWARE]: [%s] Falta %d Level Para usar el comando",gObj[aIndex].Name,gObj[aIndex].Level - OpenWareLevel);

  0004b	69 45 08 a0 1b
	00 00		 imul	 eax, DWORD PTR _aIndex$[ebp], 7072
  00052	8b 0d 00 00 00
	00		 mov	 ecx, DWORD PTR ?gObj@@3PAVOBJECTSTRUCT@@A ; gObj
  00058	0f bf 94 01 a0
	00 00 00	 movsx	 edx, WORD PTR [ecx+eax+160]
  00060	8b 45 fc	 mov	 eax, DWORD PTR _this$[ebp]
  00063	2b 90 18 05 00
	00		 sub	 edx, DWORD PTR [eax+1304]
  00069	52		 push	 edx
  0006a	69 4d 08 a0 1b
	00 00		 imul	 ecx, DWORD PTR _aIndex$[ebp], 7072
  00071	8b 15 00 00 00
	00		 mov	 edx, DWORD PTR ?gObj@@3PAVOBJECTSTRUCT@@A ; gObj
  00077	8d 44 0a 73	 lea	 eax, DWORD PTR [edx+ecx+115]
  0007b	50		 push	 eax
  0007c	68 00 00 00 00	 push	 OFFSET ??_C@_0DN@EHGBANIM@?$FLCOMANDO?5OPENWARE?$FN?3?5?$FL?$CFs?$FN?5Falta?5@
  00081	8b 4d 08	 mov	 ecx, DWORD PTR _aIndex$[ebp]
  00084	51		 push	 ecx
  00085	e8 00 00 00 00	 call	 ?MsgOutput@@YAXHPADZZ	; MsgOutput
  0008a	83 c4 10	 add	 esp, 16			; 00000010H

; 244  : 		return;

  0008d	e9 c3 02 00 00	 jmp	 $LN1@OpenWareCo

; 245  : 	}

  00092	e9 be 02 00 00	 jmp	 $LN1@OpenWareCo
$LN2@OpenWareCo:

; 246  : 	else if(gObj[aIndex].Money < OpenWareZen)

  00097	69 45 08 a0 1b
	00 00		 imul	 eax, DWORD PTR _aIndex$[ebp], 7072
  0009e	8b 0d 00 00 00
	00		 mov	 ecx, DWORD PTR ?gObj@@3PAVOBJECTSTRUCT@@A ; gObj
  000a4	8b 55 fc	 mov	 edx, DWORD PTR _this$[ebp]
  000a7	8b 84 01 b0 00
	00 00		 mov	 eax, DWORD PTR [ecx+eax+176]
  000ae	3b 82 20 05 00
	00		 cmp	 eax, DWORD PTR [edx+1312]
  000b4	73 4b		 jae	 SHORT $LN4@OpenWareCo

; 247  : 	{
; 248  : 		MsgOutput(aIndex,"[COMANDO OPENWARE]: [%s] Falta %d Zen Para usar el comando",gObj[aIndex].Name,gObj[aIndex].Money - OpenWareZen );

  000b6	69 45 08 a0 1b
	00 00		 imul	 eax, DWORD PTR _aIndex$[ebp], 7072
  000bd	8b 0d 00 00 00
	00		 mov	 ecx, DWORD PTR ?gObj@@3PAVOBJECTSTRUCT@@A ; gObj
  000c3	8b 55 fc	 mov	 edx, DWORD PTR _this$[ebp]
  000c6	8b 84 01 b0 00
	00 00		 mov	 eax, DWORD PTR [ecx+eax+176]
  000cd	2b 82 20 05 00
	00		 sub	 eax, DWORD PTR [edx+1312]
  000d3	50		 push	 eax
  000d4	69 4d 08 a0 1b
	00 00		 imul	 ecx, DWORD PTR _aIndex$[ebp], 7072
  000db	8b 15 00 00 00
	00		 mov	 edx, DWORD PTR ?gObj@@3PAVOBJECTSTRUCT@@A ; gObj
  000e1	8d 44 0a 73	 lea	 eax, DWORD PTR [edx+ecx+115]
  000e5	50		 push	 eax
  000e6	68 00 00 00 00	 push	 OFFSET ??_C@_0DL@EKHFNOJG@?$FLCOMANDO?5OPENWARE?$FN?3?5?$FL?$CFs?$FN?5Falta?5@
  000eb	8b 4d 08	 mov	 ecx, DWORD PTR _aIndex$[ebp]
  000ee	51		 push	 ecx
  000ef	e8 00 00 00 00	 call	 ?MsgOutput@@YAXHPADZZ	; MsgOutput
  000f4	83 c4 10	 add	 esp, 16			; 00000010H

; 249  : 		return;

  000f7	e9 59 02 00 00	 jmp	 $LN1@OpenWareCo

; 250  : 	}

  000fc	e9 54 02 00 00	 jmp	 $LN1@OpenWareCo
$LN4@OpenWareCo:

; 251  : 	else 
; 252  : 	{
; 253  : 		if(gObj[aIndex].pTransaction == 1)

  00101	69 45 08 a0 1b
	00 00		 imul	 eax, DWORD PTR _aIndex$[ebp], 7072
  00108	8b 0d 00 00 00
	00		 mov	 ecx, DWORD PTR ?gObj@@3PAVOBJECTSTRUCT@@A ; gObj
  0010e	0f be 94 01 68
	0c 00 00	 movsx	 edx, BYTE PTR [ecx+eax+3176]
  00116	83 fa 01	 cmp	 edx, 1
  00119	75 28		 jne	 SHORT $LN6@OpenWareCo

; 254  : 		{
; 255  : 			MsgOutput(aIndex,"[COMANDO OPENWARE]: %s Cerrar el Trade Para Usar el Comando!",gObj[aIndex].Name);		

  0011b	69 45 08 a0 1b
	00 00		 imul	 eax, DWORD PTR _aIndex$[ebp], 7072
  00122	8b 0d 00 00 00
	00		 mov	 ecx, DWORD PTR ?gObj@@3PAVOBJECTSTRUCT@@A ; gObj
  00128	8d 54 01 73	 lea	 edx, DWORD PTR [ecx+eax+115]
  0012c	52		 push	 edx
  0012d	68 00 00 00 00	 push	 OFFSET ??_C@_0DN@PHDOIJNL@?$FLCOMANDO?5OPENWARE?$FN?3?5?$CFs?5Cerrar?5e@
  00132	8b 45 08	 mov	 eax, DWORD PTR _aIndex$[ebp]
  00135	50		 push	 eax
  00136	e8 00 00 00 00	 call	 ?MsgOutput@@YAXHPADZZ	; MsgOutput
  0013b	83 c4 0c	 add	 esp, 12			; 0000000cH

; 256  : 			return;

  0013e	e9 12 02 00 00	 jmp	 $LN1@OpenWareCo
$LN6@OpenWareCo:

; 257  : 		}
; 258  : 
; 259  : 		if(gObj[aIndex].m_IfState.use == 1 && gObj[aIndex].m_IfState.type == 7 )

  00143	69 45 08 a0 1b
	00 00		 imul	 eax, DWORD PTR _aIndex$[ebp], 7072
  0014a	8b 0d 00 00 00
	00		 mov	 ecx, DWORD PTR ?gObj@@3PAVOBJECTSTRUCT@@A ; gObj
  00150	8a 94 01 56 0c
	00 00		 mov	 dl, BYTE PTR [ecx+eax+3158]
  00157	80 e2 03	 and	 dl, 3
  0015a	0f b6 c2	 movzx	 eax, dl
  0015d	83 f8 01	 cmp	 eax, 1
  00160	75 4a		 jne	 SHORT $LN7@OpenWareCo
  00162	69 45 08 a0 1b
	00 00		 imul	 eax, DWORD PTR _aIndex$[ebp], 7072
  00169	8b 0d 00 00 00
	00		 mov	 ecx, DWORD PTR ?gObj@@3PAVOBJECTSTRUCT@@A ; gObj
  0016f	8a 94 01 56 0c
	00 00		 mov	 dl, BYTE PTR [ecx+eax+3158]
  00176	c0 ea 04	 shr	 dl, 4
  00179	80 e2 0f	 and	 dl, 15			; 0000000fH
  0017c	0f b6 c2	 movzx	 eax, dl
  0017f	83 f8 07	 cmp	 eax, 7
  00182	75 28		 jne	 SHORT $LN7@OpenWareCo

; 260  : 		{
; 261  : 			MsgOutput(aIndex,"[COMANDO OPENWARE]: %s Cerrar el ChaosBox Para Usar el Comando!",gObj[aIndex].Name);	

  00184	69 45 08 a0 1b
	00 00		 imul	 eax, DWORD PTR _aIndex$[ebp], 7072
  0018b	8b 0d 00 00 00
	00		 mov	 ecx, DWORD PTR ?gObj@@3PAVOBJECTSTRUCT@@A ; gObj
  00191	8d 54 01 73	 lea	 edx, DWORD PTR [ecx+eax+115]
  00195	52		 push	 edx
  00196	68 00 00 00 00	 push	 OFFSET ??_C@_0EA@BHABJDMD@?$FLCOMANDO?5OPENWARE?$FN?3?5?$CFs?5Cerrar?5e@
  0019b	8b 45 08	 mov	 eax, DWORD PTR _aIndex$[ebp]
  0019e	50		 push	 eax
  0019f	e8 00 00 00 00	 call	 ?MsgOutput@@YAXHPADZZ	; MsgOutput
  001a4	83 c4 0c	 add	 esp, 12			; 0000000cH

; 262  : 			return;

  001a7	e9 a9 01 00 00	 jmp	 $LN1@OpenWareCo
$LN7@OpenWareCo:

; 263  : 		}
; 264  : 
; 265  : 		if(gObj[aIndex].m_ReqWarehouseOpen != 0  || gObj[aIndex].WarehouseSave != 0 )

  001ac	69 45 08 a0 1b
	00 00		 imul	 eax, DWORD PTR _aIndex$[ebp], 7072
  001b3	8b 0d 00 00 00
	00		 mov	 ecx, DWORD PTR ?gObj@@3PAVOBJECTSTRUCT@@A ; gObj
  001b9	0f b6 94 01 24
	0f 00 00	 movzx	 edx, BYTE PTR [ecx+eax+3876]
  001c1	85 d2		 test	 edx, edx
  001c3	75 17		 jne	 SHORT $LN9@OpenWareCo
  001c5	69 45 08 a0 1b
	00 00		 imul	 eax, DWORD PTR _aIndex$[ebp], 7072
  001cc	8b 0d 00 00 00
	00		 mov	 ecx, DWORD PTR ?gObj@@3PAVOBJECTSTRUCT@@A ; gObj
  001d2	83 bc 01 a8 0c
	00 00 00	 cmp	 DWORD PTR [ecx+eax+3240], 0
  001da	74 28		 je	 SHORT $LN8@OpenWareCo
$LN9@OpenWareCo:

; 266  : 		{
; 267  : 			MsgOutput(aIndex,"[COMANDO OPENWARE]: %s Cerrar el Baul Para Usar el Comando!",gObj[aIndex].Name);	

  001dc	69 45 08 a0 1b
	00 00		 imul	 eax, DWORD PTR _aIndex$[ebp], 7072
  001e3	8b 0d 00 00 00
	00		 mov	 ecx, DWORD PTR ?gObj@@3PAVOBJECTSTRUCT@@A ; gObj
  001e9	8d 54 01 73	 lea	 edx, DWORD PTR [ecx+eax+115]
  001ed	52		 push	 edx
  001ee	68 00 00 00 00	 push	 OFFSET ??_C@_0DM@PPNPHKCN@?$FLCOMANDO?5OPENWARE?$FN?3?5?$CFs?5Cerrar?5e@
  001f3	8b 45 08	 mov	 eax, DWORD PTR _aIndex$[ebp]
  001f6	50		 push	 eax
  001f7	e8 00 00 00 00	 call	 ?MsgOutput@@YAXHPADZZ	; MsgOutput
  001fc	83 c4 0c	 add	 esp, 12			; 0000000cH

; 268  : 			return;

  001ff	e9 51 01 00 00	 jmp	 $LN1@OpenWareCo
$LN8@OpenWareCo:

; 269  : 		}
; 270  : 			gObj[aIndex].m_ReqWarehouseOpen = 1;

  00204	69 45 08 a0 1b
	00 00		 imul	 eax, DWORD PTR _aIndex$[ebp], 7072
  0020b	8b 0d 00 00 00
	00		 mov	 ecx, DWORD PTR ?gObj@@3PAVOBJECTSTRUCT@@A ; gObj
  00211	c6 84 01 24 0f
	00 00 01	 mov	 BYTE PTR [ecx+eax+3876], 1

; 271  : 			gObj[aIndex].m_IfState.type = 6;

  00219	69 45 08 a0 1b
	00 00		 imul	 eax, DWORD PTR _aIndex$[ebp], 7072
  00220	8b 0d 00 00 00
	00		 mov	 ecx, DWORD PTR ?gObj@@3PAVOBJECTSTRUCT@@A ; gObj
  00226	8a 94 01 56 0c
	00 00		 mov	 dl, BYTE PTR [ecx+eax+3158]
  0022d	80 e2 0f	 and	 dl, 15			; 0000000fH
  00230	80 ca 60	 or	 dl, 96			; 00000060H
  00233	69 45 08 a0 1b
	00 00		 imul	 eax, DWORD PTR _aIndex$[ebp], 7072
  0023a	8b 0d 00 00 00
	00		 mov	 ecx, DWORD PTR ?gObj@@3PAVOBJECTSTRUCT@@A ; gObj
  00240	88 94 01 56 0c
	00 00		 mov	 BYTE PTR [ecx+eax+3158], dl

; 272  : 			gObj[aIndex].m_IfState.use = 1;

  00247	69 45 08 a0 1b
	00 00		 imul	 eax, DWORD PTR _aIndex$[ebp], 7072
  0024e	8b 0d 00 00 00
	00		 mov	 ecx, DWORD PTR ?gObj@@3PAVOBJECTSTRUCT@@A ; gObj
  00254	8a 94 01 56 0c
	00 00		 mov	 dl, BYTE PTR [ecx+eax+3158]
  0025b	80 e2 fc	 and	 dl, 252			; 000000fcH
  0025e	80 ca 01	 or	 dl, 1
  00261	69 45 08 a0 1b
	00 00		 imul	 eax, DWORD PTR _aIndex$[ebp], 7072
  00268	8b 0d 00 00 00
	00		 mov	 ecx, DWORD PTR ?gObj@@3PAVOBJECTSTRUCT@@A ; gObj
  0026e	88 94 01 56 0c
	00 00		 mov	 BYTE PTR [ecx+eax+3158], dl

; 273  : 			gObj[aIndex].m_IfState.state = 0;

  00275	69 45 08 a0 1b
	00 00		 imul	 eax, DWORD PTR _aIndex$[ebp], 7072
  0027c	8b 0d 00 00 00
	00		 mov	 ecx, DWORD PTR ?gObj@@3PAVOBJECTSTRUCT@@A ; gObj
  00282	8a 94 01 56 0c
	00 00		 mov	 dl, BYTE PTR [ecx+eax+3158]
  00289	80 e2 f3	 and	 dl, 243			; 000000f3H
  0028c	69 45 08 a0 1b
	00 00		 imul	 eax, DWORD PTR _aIndex$[ebp], 7072
  00293	8b 0d 00 00 00
	00		 mov	 ecx, DWORD PTR ?gObj@@3PAVOBJECTSTRUCT@@A ; gObj
  00299	88 94 01 56 0c
	00 00		 mov	 BYTE PTR [ecx+eax+3158], dl

; 274  : 			gObj[aIndex].WarehouseSave = TRUE;

  002a0	69 45 08 a0 1b
	00 00		 imul	 eax, DWORD PTR _aIndex$[ebp], 7072
  002a7	8b 0d 00 00 00
	00		 mov	 ecx, DWORD PTR ?gObj@@3PAVOBJECTSTRUCT@@A ; gObj
  002ad	c7 84 01 a8 0c
	00 00 01 00 00
	00		 mov	 DWORD PTR [ecx+eax+3240], 1

; 275  : 			gObj[aIndex].WarehouseCount = 0;

  002b8	69 45 08 a0 1b
	00 00		 imul	 eax, DWORD PTR _aIndex$[ebp], 7072
  002bf	8b 0d 00 00 00
	00		 mov	 ecx, DWORD PTR ?gObj@@3PAVOBJECTSTRUCT@@A ; gObj
  002c5	c6 84 01 9c 0c
	00 00 00	 mov	 BYTE PTR [ecx+eax+3228], 0

; 276  : 
; 277  : 			GCMoneySend(aIndex,gObj[aIndex].Money -= OpenWareZen);

  002cd	69 45 08 a0 1b
	00 00		 imul	 eax, DWORD PTR _aIndex$[ebp], 7072
  002d4	8b 0d 00 00 00
	00		 mov	 ecx, DWORD PTR ?gObj@@3PAVOBJECTSTRUCT@@A ; gObj
  002da	8b 55 fc	 mov	 edx, DWORD PTR _this$[ebp]
  002dd	8b 84 01 b0 00
	00 00		 mov	 eax, DWORD PTR [ecx+eax+176]
  002e4	2b 82 20 05 00
	00		 sub	 eax, DWORD PTR [edx+1312]
  002ea	89 45 b4	 mov	 DWORD PTR tv230[ebp], eax
  002ed	69 4d 08 a0 1b
	00 00		 imul	 ecx, DWORD PTR _aIndex$[ebp], 7072
  002f4	8b 15 00 00 00
	00		 mov	 edx, DWORD PTR ?gObj@@3PAVOBJECTSTRUCT@@A ; gObj
  002fa	8b 45 b4	 mov	 eax, DWORD PTR tv230[ebp]
  002fd	89 84 0a b0 00
	00 00		 mov	 DWORD PTR [edx+ecx+176], eax
  00304	8b 4d b4	 mov	 ecx, DWORD PTR tv230[ebp]
  00307	51		 push	 ecx
  00308	8b 55 08	 mov	 edx, DWORD PTR _aIndex$[ebp]
  0030b	52		 push	 edx
  0030c	e8 00 00 00 00	 call	 ?GCMoneySend@@YAXHK@Z	; GCMoneySend
  00311	83 c4 08	 add	 esp, 8

; 278  : 			GDGetWarehouseList(aIndex,gObj[aIndex].AccountID);

  00314	69 45 08 a0 1b
	00 00		 imul	 eax, DWORD PTR _aIndex$[ebp], 7072
  0031b	8b 0d 00 00 00
	00		 mov	 ecx, DWORD PTR ?gObj@@3PAVOBJECTSTRUCT@@A ; gObj
  00321	8d 54 01 68	 lea	 edx, DWORD PTR [ecx+eax+104]
  00325	52		 push	 edx
  00326	8b 45 08	 mov	 eax, DWORD PTR _aIndex$[ebp]
  00329	50		 push	 eax
  0032a	e8 00 00 00 00	 call	 ?GDGetWarehouseList@@YAXHPAD@Z ; GDGetWarehouseList
  0032f	83 c4 08	 add	 esp, 8

; 279  : 			MsgOutput(aIndex,"[COMANDO OPENWARE]: %s Baul abierto con exito ",gObj[aIndex].Name);	

  00332	69 45 08 a0 1b
	00 00		 imul	 eax, DWORD PTR _aIndex$[ebp], 7072
  00339	8b 0d 00 00 00
	00		 mov	 ecx, DWORD PTR ?gObj@@3PAVOBJECTSTRUCT@@A ; gObj
  0033f	8d 54 01 73	 lea	 edx, DWORD PTR [ecx+eax+115]
  00343	52		 push	 edx
  00344	68 00 00 00 00	 push	 OFFSET ??_C@_0CP@IALCJIGM@?$FLCOMANDO?5OPENWARE?$FN?3?5?$CFs?5Baul?5abi@
  00349	8b 45 08	 mov	 eax, DWORD PTR _aIndex$[ebp]
  0034c	50		 push	 eax
  0034d	e8 00 00 00 00	 call	 ?MsgOutput@@YAXHPADZZ	; MsgOutput
  00352	83 c4 0c	 add	 esp, 12			; 0000000cH
$LN1@OpenWareCo:

; 280  : 		}
; 281  : }

  00355	5f		 pop	 edi
  00356	5e		 pop	 esi
  00357	5b		 pop	 ebx
  00358	8b e5		 mov	 esp, ebp
  0035a	5d		 pop	 ebp
  0035b	c2 04 00	 ret	 4
?OpenWareCommand@CHAT_COMMANDS@@QAEXH@Z ENDP		; CHAT_COMMANDS::OpenWareCommand
_TEXT	ENDS
; Function compile flags: /Odtp /ZI
; File C:\Mu Online\Mu-GS-Webzen-MC-10093\GameServer\Command.cpp
;	COMDAT ?Vendo@CHAT_COMMANDS@@QAEXHPAD@Z
_TEXT	SEGMENT
tv142 = -212						; size = 4
_Buffer$ = -144						; size = 60
_Zen$ = -20						; size = 4
_Level$ = -16						; size = 4
__ativa$ = -12						; size = 4
_this$ = -8						; size = 4
__$ArrayPad$ = -4					; size = 4
_aIndex$ = 8						; size = 4
_msg$ = 12						; size = 4
?Vendo@CHAT_COMMANDS@@QAEXHPAD@Z PROC			; CHAT_COMMANDS::Vendo, COMDAT
; _this$ = ecx

; 314  : {

  00000	55		 push	 ebp
  00001	8b ec		 mov	 ebp, esp
  00003	81 ec d4 00 00
	00		 sub	 esp, 212		; 000000d4H
  00009	a1 00 00 00 00	 mov	 eax, DWORD PTR ___security_cookie
  0000e	33 c5		 xor	 eax, ebp
  00010	89 45 fc	 mov	 DWORD PTR __$ArrayPad$[ebp], eax
  00013	53		 push	 ebx
  00014	56		 push	 esi
  00015	57		 push	 edi
  00016	89 4d f8	 mov	 DWORD PTR _this$[ebp], ecx

; 315  : 	int _ativa = GetPrivateProfileInt("VendoCommand","Activar Comando </vendo>",1,CFG_COMMAND);

  00019	68 00 00 00 00	 push	 OFFSET ??_C@_0BI@LEKPHMLP@?4?4?2data?2NewsCommand?4ini@
  0001e	6a 01		 push	 1
  00020	68 00 00 00 00	 push	 OFFSET ??_C@_0BJ@ENOJFGGK@Activar?5Comando?5?$DM?1vendo?$DO@
  00025	68 00 00 00 00	 push	 OFFSET ??_C@_0N@HPAHJDBN@VendoCommand@
  0002a	ff 15 00 00 00
	00		 call	 DWORD PTR __imp__GetPrivateProfileIntA@16
  00030	89 45 f4	 mov	 DWORD PTR __ativa$[ebp], eax

; 316  : 	int Level = GetPrivateProfileInt("VendoCommand","Level minimo para usar el comando </vendo>",1,CFG_COMMAND);

  00033	68 00 00 00 00	 push	 OFFSET ??_C@_0BI@LEKPHMLP@?4?4?2data?2NewsCommand?4ini@
  00038	6a 01		 push	 1
  0003a	68 00 00 00 00	 push	 OFFSET ??_C@_0CL@BPDABNAM@Level?5minimo?5para?5usar?5el?5coman@
  0003f	68 00 00 00 00	 push	 OFFSET ??_C@_0N@HPAHJDBN@VendoCommand@
  00044	ff 15 00 00 00
	00		 call	 DWORD PTR __imp__GetPrivateProfileIntA@16
  0004a	89 45 f0	 mov	 DWORD PTR _Level$[ebp], eax

; 317  : 	unsigned int Zen = GetPrivateProfileInt("VendoCommand","Zen minimo para usar el comando </vendo>",1,CFG_COMMAND);

  0004d	68 00 00 00 00	 push	 OFFSET ??_C@_0BI@LEKPHMLP@?4?4?2data?2NewsCommand?4ini@
  00052	6a 01		 push	 1
  00054	68 00 00 00 00	 push	 OFFSET ??_C@_0CJ@OPDNOLKD@Zen?5minimo?5para?5usar?5el?5comando@
  00059	68 00 00 00 00	 push	 OFFSET ??_C@_0N@HPAHJDBN@VendoCommand@
  0005e	ff 15 00 00 00
	00		 call	 DWORD PTR __imp__GetPrivateProfileIntA@16
  00064	89 45 ec	 mov	 DWORD PTR _Zen$[ebp], eax

; 318  : 
; 319  : 	if(gObj[aIndex].Level < Level)

  00067	69 45 08 a0 1b
	00 00		 imul	 eax, DWORD PTR _aIndex$[ebp], 7072
  0006e	8b 0d 00 00 00
	00		 mov	 ecx, DWORD PTR ?gObj@@3PAVOBJECTSTRUCT@@A ; gObj
  00074	0f bf 94 01 a0
	00 00 00	 movsx	 edx, WORD PTR [ecx+eax+160]
  0007c	3b 55 f0	 cmp	 edx, DWORD PTR _Level$[ebp]
  0007f	7d 1a		 jge	 SHORT $LN2@Vendo

; 320  : 	{
; 321  : 		GCServerMsgStringSend("Usted necesita mas level",aIndex,1);

  00081	6a 01		 push	 1
  00083	8b 45 08	 mov	 eax, DWORD PTR _aIndex$[ebp]
  00086	50		 push	 eax
  00087	68 00 00 00 00	 push	 OFFSET ??_C@_0BJ@LAJKFNAO@Usted?5necesita?5mas?5level@
  0008c	e8 00 00 00 00	 call	 ?GCServerMsgStringSend@@YAXPADHE@Z ; GCServerMsgStringSend
  00091	83 c4 0c	 add	 esp, 12			; 0000000cH

; 322  : 		return;

  00094	e9 bb 00 00 00	 jmp	 $LN1@Vendo

; 323  : 	}

  00099	eb 31		 jmp	 SHORT $LN3@Vendo
$LN2@Vendo:

; 324  : 	else if(gObj[aIndex].Money < Zen)

  0009b	69 45 08 a0 1b
	00 00		 imul	 eax, DWORD PTR _aIndex$[ebp], 7072
  000a2	8b 0d 00 00 00
	00		 mov	 ecx, DWORD PTR ?gObj@@3PAVOBJECTSTRUCT@@A ; gObj
  000a8	8b 94 01 b0 00
	00 00		 mov	 edx, DWORD PTR [ecx+eax+176]
  000af	3b 55 ec	 cmp	 edx, DWORD PTR _Zen$[ebp]
  000b2	73 18		 jae	 SHORT $LN3@Vendo

; 325  : 	{
; 326  : 		GCServerMsgStringSend("usted necesita mas zen",aIndex,1);

  000b4	6a 01		 push	 1
  000b6	8b 45 08	 mov	 eax, DWORD PTR _aIndex$[ebp]
  000b9	50		 push	 eax
  000ba	68 00 00 00 00	 push	 OFFSET ??_C@_0BH@NCNNDCFN@usted?5necesita?5mas?5zen@
  000bf	e8 00 00 00 00	 call	 ?GCServerMsgStringSend@@YAXPADHE@Z ; GCServerMsgStringSend
  000c4	83 c4 0c	 add	 esp, 12			; 0000000cH

; 327  : 		return;

  000c7	e9 88 00 00 00	 jmp	 $LN1@Vendo
$LN3@Vendo:

; 328  : 	}
; 329  : 
; 330  : 	CHAR Message[61];
; 331  : 	char Buffer[60];
; 332  : 
; 333  : 	//sprintf(Message,gs_cmd.VendoFormato,msg);
; 334  : 	sprintf(Buffer, gs_cmd.VendoFormato, msg);

  000cc	8b 45 0c	 mov	 eax, DWORD PTR _msg$[ebp]
  000cf	50		 push	 eax
  000d0	68 fa 00 00 00	 push	 OFFSET ?gs_cmd@@3VCHAT_COMMANDS@@A+250
  000d5	8d 8d 70 ff ff
	ff		 lea	 ecx, DWORD PTR _Buffer$[ebp]
  000db	51		 push	 ecx
  000dc	e8 00 00 00 00	 call	 _sprintf
  000e1	83 c4 0c	 add	 esp, 12			; 0000000cH

; 335  : 
; 336  : 	func.GreenChatSend(gObj[aIndex].Name, Buffer, aIndex);

  000e4	8b 45 08	 mov	 eax, DWORD PTR _aIndex$[ebp]
  000e7	50		 push	 eax
  000e8	8d 8d 70 ff ff
	ff		 lea	 ecx, DWORD PTR _Buffer$[ebp]
  000ee	51		 push	 ecx
  000ef	69 55 08 a0 1b
	00 00		 imul	 edx, DWORD PTR _aIndex$[ebp], 7072
  000f6	a1 00 00 00 00	 mov	 eax, DWORD PTR ?gObj@@3PAVOBJECTSTRUCT@@A ; gObj
  000fb	8d 4c 10 73	 lea	 ecx, DWORD PTR [eax+edx+115]
  000ff	51		 push	 ecx
  00100	b9 00 00 00 00	 mov	 ecx, OFFSET ?func@@3VFunctions@@A ; func
  00105	e8 00 00 00 00	 call	 ?GreenChatSend@Functions@@QAEXPBDPADK@Z ; Functions::GreenChatSend

; 337  : 
; 338  : 	GCMoneySend(aIndex,gObj[aIndex].Money -= Zen);

  0010a	69 45 08 a0 1b
	00 00		 imul	 eax, DWORD PTR _aIndex$[ebp], 7072
  00111	8b 0d 00 00 00
	00		 mov	 ecx, DWORD PTR ?gObj@@3PAVOBJECTSTRUCT@@A ; gObj
  00117	8b 94 01 b0 00
	00 00		 mov	 edx, DWORD PTR [ecx+eax+176]
  0011e	2b 55 ec	 sub	 edx, DWORD PTR _Zen$[ebp]
  00121	89 95 2c ff ff
	ff		 mov	 DWORD PTR tv142[ebp], edx
  00127	69 45 08 a0 1b
	00 00		 imul	 eax, DWORD PTR _aIndex$[ebp], 7072
  0012e	8b 0d 00 00 00
	00		 mov	 ecx, DWORD PTR ?gObj@@3PAVOBJECTSTRUCT@@A ; gObj
  00134	8b 95 2c ff ff
	ff		 mov	 edx, DWORD PTR tv142[ebp]
  0013a	89 94 01 b0 00
	00 00		 mov	 DWORD PTR [ecx+eax+176], edx
  00141	8b 85 2c ff ff
	ff		 mov	 eax, DWORD PTR tv142[ebp]
  00147	50		 push	 eax
  00148	8b 4d 08	 mov	 ecx, DWORD PTR _aIndex$[ebp]
  0014b	51		 push	 ecx
  0014c	e8 00 00 00 00	 call	 ?GCMoneySend@@YAXHK@Z	; GCMoneySend
  00151	83 c4 08	 add	 esp, 8
$LN1@Vendo:

; 339  : }

  00154	5f		 pop	 edi
  00155	5e		 pop	 esi
  00156	5b		 pop	 ebx
  00157	8b 4d fc	 mov	 ecx, DWORD PTR __$ArrayPad$[ebp]
  0015a	33 cd		 xor	 ecx, ebp
  0015c	e8 00 00 00 00	 call	 @__security_check_cookie@4
  00161	8b e5		 mov	 esp, ebp
  00163	5d		 pop	 ebp
  00164	c2 08 00	 ret	 8
?Vendo@CHAT_COMMANDS@@QAEXHPAD@Z ENDP			; CHAT_COMMANDS::Vendo
_TEXT	ENDS
; Function compile flags: /Odtp /ZI
; File C:\Mu Online\Mu-GS-Webzen-MC-10093\GameServer\Command.cpp
;	COMDAT ?Compro@CHAT_COMMANDS@@QAEXHPAD@Z
_TEXT	SEGMENT
tv142 = -148						; size = 4
_Buffer$ = -80						; size = 60
_Zen$ = -20						; size = 4
_Level$ = -16						; size = 4
__ativa$ = -12						; size = 4
_this$ = -8						; size = 4
__$ArrayPad$ = -4					; size = 4
_aIndex$ = 8						; size = 4
_msg$ = 12						; size = 4
?Compro@CHAT_COMMANDS@@QAEXHPAD@Z PROC			; CHAT_COMMANDS::Compro, COMDAT
; _this$ = ecx

; 284  : {

  00000	55		 push	 ebp
  00001	8b ec		 mov	 ebp, esp
  00003	81 ec 94 00 00
	00		 sub	 esp, 148		; 00000094H
  00009	a1 00 00 00 00	 mov	 eax, DWORD PTR ___security_cookie
  0000e	33 c5		 xor	 eax, ebp
  00010	89 45 fc	 mov	 DWORD PTR __$ArrayPad$[ebp], eax
  00013	53		 push	 ebx
  00014	56		 push	 esi
  00015	57		 push	 edi
  00016	89 4d f8	 mov	 DWORD PTR _this$[ebp], ecx

; 285  : 	//int banned = Manager.BancharPost(&gObj[aIndex].Name[0]);
; 286  : 	int _ativa = GetPrivateProfileInt("ComproCommand","Activar Comando </compro>",1,CFG_COMMAND);

  00019	68 00 00 00 00	 push	 OFFSET ??_C@_0BI@LEKPHMLP@?4?4?2data?2NewsCommand?4ini@
  0001e	6a 01		 push	 1
  00020	68 00 00 00 00	 push	 OFFSET ??_C@_0BK@KADNJCEF@Activar?5Comando?5?$DM?1compro?$DO@
  00025	68 00 00 00 00	 push	 OFFSET ??_C@_0O@MMMAPBCJ@ComproCommand@
  0002a	ff 15 00 00 00
	00		 call	 DWORD PTR __imp__GetPrivateProfileIntA@16
  00030	89 45 f4	 mov	 DWORD PTR __ativa$[ebp], eax

; 287  : 	int Level = GetPrivateProfileInt("ComproCommand","Level minimo para usar el comando </compro>",1,CFG_COMMAND);

  00033	68 00 00 00 00	 push	 OFFSET ??_C@_0BI@LEKPHMLP@?4?4?2data?2NewsCommand?4ini@
  00038	6a 01		 push	 1
  0003a	68 00 00 00 00	 push	 OFFSET ??_C@_0CM@ELOIPGD@Level?5minimo?5para?5usar?5el?5coman@
  0003f	68 00 00 00 00	 push	 OFFSET ??_C@_0O@MMMAPBCJ@ComproCommand@
  00044	ff 15 00 00 00
	00		 call	 DWORD PTR __imp__GetPrivateProfileIntA@16
  0004a	89 45 f0	 mov	 DWORD PTR _Level$[ebp], eax

; 288  : 	unsigned int Zen = GetPrivateProfileInt("ComproCommand","Zen minimo para usar el comando </compro>",1,CFG_COMMAND);

  0004d	68 00 00 00 00	 push	 OFFSET ??_C@_0BI@LEKPHMLP@?4?4?2data?2NewsCommand?4ini@
  00052	6a 01		 push	 1
  00054	68 00 00 00 00	 push	 OFFSET ??_C@_0CK@ECCHDMOM@Zen?5minimo?5para?5usar?5el?5comando@
  00059	68 00 00 00 00	 push	 OFFSET ??_C@_0O@MMMAPBCJ@ComproCommand@
  0005e	ff 15 00 00 00
	00		 call	 DWORD PTR __imp__GetPrivateProfileIntA@16
  00064	89 45 ec	 mov	 DWORD PTR _Zen$[ebp], eax

; 289  : 	//int ComproCor = GetPrivateProfileInt("ComproCommand","Color de comando </compro>",1,CFG_COMMAND);
; 290  : 
; 291  : 	if(gObj[aIndex].Level < Level)

  00067	69 45 08 a0 1b
	00 00		 imul	 eax, DWORD PTR _aIndex$[ebp], 7072
  0006e	8b 0d 00 00 00
	00		 mov	 ecx, DWORD PTR ?gObj@@3PAVOBJECTSTRUCT@@A ; gObj
  00074	0f bf 94 01 a0
	00 00 00	 movsx	 edx, WORD PTR [ecx+eax+160]
  0007c	3b 55 f0	 cmp	 edx, DWORD PTR _Level$[ebp]
  0007f	7d 1a		 jge	 SHORT $LN2@Compro

; 292  : 	{
; 293  : 		GCServerMsgStringSend("Usted necesita mas level",aIndex,1);

  00081	6a 01		 push	 1
  00083	8b 45 08	 mov	 eax, DWORD PTR _aIndex$[ebp]
  00086	50		 push	 eax
  00087	68 00 00 00 00	 push	 OFFSET ??_C@_0BJ@LAJKFNAO@Usted?5necesita?5mas?5level@
  0008c	e8 00 00 00 00	 call	 ?GCServerMsgStringSend@@YAXPADHE@Z ; GCServerMsgStringSend
  00091	83 c4 0c	 add	 esp, 12			; 0000000cH

; 294  : 		return;

  00094	e9 b5 00 00 00	 jmp	 $LN1@Compro

; 295  : 	}

  00099	eb 31		 jmp	 SHORT $LN3@Compro
$LN2@Compro:

; 296  : 	else if(gObj[aIndex].Money < Zen)

  0009b	69 45 08 a0 1b
	00 00		 imul	 eax, DWORD PTR _aIndex$[ebp], 7072
  000a2	8b 0d 00 00 00
	00		 mov	 ecx, DWORD PTR ?gObj@@3PAVOBJECTSTRUCT@@A ; gObj
  000a8	8b 94 01 b0 00
	00 00		 mov	 edx, DWORD PTR [ecx+eax+176]
  000af	3b 55 ec	 cmp	 edx, DWORD PTR _Zen$[ebp]
  000b2	73 18		 jae	 SHORT $LN3@Compro

; 297  : 	{
; 298  : 		GCServerMsgStringSend("usted necesita mas zen",aIndex,1);

  000b4	6a 01		 push	 1
  000b6	8b 45 08	 mov	 eax, DWORD PTR _aIndex$[ebp]
  000b9	50		 push	 eax
  000ba	68 00 00 00 00	 push	 OFFSET ??_C@_0BH@NCNNDCFN@usted?5necesita?5mas?5zen@
  000bf	e8 00 00 00 00	 call	 ?GCServerMsgStringSend@@YAXPADHE@Z ; GCServerMsgStringSend
  000c4	83 c4 0c	 add	 esp, 12			; 0000000cH

; 299  : 		return;

  000c7	e9 82 00 00 00	 jmp	 $LN1@Compro
$LN3@Compro:

; 300  : 	}
; 301  : 
; 302  : 	//CHAR Message[61];
; 303  : 	char Buffer[60];
; 304  : 	sprintf(Buffer, gs_cmd.VendoFormato, msg);

  000cc	8b 45 0c	 mov	 eax, DWORD PTR _msg$[ebp]
  000cf	50		 push	 eax
  000d0	68 fa 00 00 00	 push	 OFFSET ?gs_cmd@@3VCHAT_COMMANDS@@A+250
  000d5	8d 4d b0	 lea	 ecx, DWORD PTR _Buffer$[ebp]
  000d8	51		 push	 ecx
  000d9	e8 00 00 00 00	 call	 _sprintf
  000de	83 c4 0c	 add	 esp, 12			; 0000000cH

; 305  : 	//sprintf(Message,gs_cmd.ComproFormato,msg);
; 306  : 
; 307  : 	func.GreenChatSend(gObj[aIndex].Name, Buffer, aIndex);

  000e1	8b 45 08	 mov	 eax, DWORD PTR _aIndex$[ebp]
  000e4	50		 push	 eax
  000e5	8d 4d b0	 lea	 ecx, DWORD PTR _Buffer$[ebp]
  000e8	51		 push	 ecx
  000e9	69 55 08 a0 1b
	00 00		 imul	 edx, DWORD PTR _aIndex$[ebp], 7072
  000f0	a1 00 00 00 00	 mov	 eax, DWORD PTR ?gObj@@3PAVOBJECTSTRUCT@@A ; gObj
  000f5	8d 4c 10 73	 lea	 ecx, DWORD PTR [eax+edx+115]
  000f9	51		 push	 ecx
  000fa	b9 00 00 00 00	 mov	 ecx, OFFSET ?func@@3VFunctions@@A ; func
  000ff	e8 00 00 00 00	 call	 ?GreenChatSend@Functions@@QAEXPBDPADK@Z ; Functions::GreenChatSend

; 308  : 
; 309  : 	GCMoneySend(aIndex,gObj[aIndex].Money -= Zen);

  00104	69 45 08 a0 1b
	00 00		 imul	 eax, DWORD PTR _aIndex$[ebp], 7072
  0010b	8b 0d 00 00 00
	00		 mov	 ecx, DWORD PTR ?gObj@@3PAVOBJECTSTRUCT@@A ; gObj
  00111	8b 94 01 b0 00
	00 00		 mov	 edx, DWORD PTR [ecx+eax+176]
  00118	2b 55 ec	 sub	 edx, DWORD PTR _Zen$[ebp]
  0011b	89 95 6c ff ff
	ff		 mov	 DWORD PTR tv142[ebp], edx
  00121	69 45 08 a0 1b
	00 00		 imul	 eax, DWORD PTR _aIndex$[ebp], 7072
  00128	8b 0d 00 00 00
	00		 mov	 ecx, DWORD PTR ?gObj@@3PAVOBJECTSTRUCT@@A ; gObj
  0012e	8b 95 6c ff ff
	ff		 mov	 edx, DWORD PTR tv142[ebp]
  00134	89 94 01 b0 00
	00 00		 mov	 DWORD PTR [ecx+eax+176], edx
  0013b	8b 85 6c ff ff
	ff		 mov	 eax, DWORD PTR tv142[ebp]
  00141	50		 push	 eax
  00142	8b 4d 08	 mov	 ecx, DWORD PTR _aIndex$[ebp]
  00145	51		 push	 ecx
  00146	e8 00 00 00 00	 call	 ?GCMoneySend@@YAXHK@Z	; GCMoneySend
  0014b	83 c4 08	 add	 esp, 8
$LN1@Compro:

; 310  : 
; 311  : }

  0014e	5f		 pop	 edi
  0014f	5e		 pop	 esi
  00150	5b		 pop	 ebx
  00151	8b 4d fc	 mov	 ecx, DWORD PTR __$ArrayPad$[ebp]
  00154	33 cd		 xor	 ecx, ebp
  00156	e8 00 00 00 00	 call	 @__security_check_cookie@4
  0015b	8b e5		 mov	 esp, ebp
  0015d	5d		 pop	 ebp
  0015e	c2 08 00	 ret	 8
?Compro@CHAT_COMMANDS@@QAEXHPAD@Z ENDP			; CHAT_COMMANDS::Compro
_TEXT	ENDS
; Function compile flags: /Odtp /ZI
; File C:\Mu Online\Mu-GS-Webzen-MC-10093\GameServer\Command.cpp
;	COMDAT ?myinfo@CHAT_COMMANDS@@QAEXH@Z
_TEXT	SEGMENT
_Resets$ = -16						; size = 4
_Golds$ = -12						; size = 4
_lpObj$ = -8						; size = 4
_this$ = -4						; size = 4
_aIndex$ = 8						; size = 4
?myinfo@CHAT_COMMANDS@@QAEXH@Z PROC			; CHAT_COMMANDS::myinfo, COMDAT
; _this$ = ecx

; 43   : 	{

  00000	55		 push	 ebp
  00001	8b ec		 mov	 ebp, esp
  00003	83 ec 50	 sub	 esp, 80			; 00000050H
  00006	53		 push	 ebx
  00007	56		 push	 esi
  00008	57		 push	 edi
  00009	89 4d fc	 mov	 DWORD PTR _this$[ebp], ecx

; 44   : 	LPOBJECTSTRUCT lpObj = &gObj[aIndex];

  0000c	69 45 08 a0 1b
	00 00		 imul	 eax, DWORD PTR _aIndex$[ebp], 7072
  00013	03 05 00 00 00
	00		 add	 eax, DWORD PTR ?gObj@@3PAVOBJECTSTRUCT@@A ; gObj
  00019	89 45 f8	 mov	 DWORD PTR _lpObj$[ebp], eax

; 45   : 	int Golds = Manager.KCredits(lpObj->AccountID);

  0001c	8b 45 f8	 mov	 eax, DWORD PTR _lpObj$[ebp]
  0001f	83 c0 68	 add	 eax, 104		; 00000068H
  00022	50		 push	 eax
  00023	b9 00 00 00 00	 mov	 ecx, OFFSET ?Manager@@3VCManager@@A ; Manager
  00028	e8 00 00 00 00	 call	 ?KCredits@CManager@@QAEHPAD@Z ; CManager::KCredits
  0002d	89 45 f4	 mov	 DWORD PTR _Golds$[ebp], eax

; 46   : 	int Resets = Manager.CountResets(lpObj->Name);

  00030	8b 45 f8	 mov	 eax, DWORD PTR _lpObj$[ebp]
  00033	83 c0 73	 add	 eax, 115		; 00000073H
  00036	50		 push	 eax
  00037	b9 00 00 00 00	 mov	 ecx, OFFSET ?Manager@@3VCManager@@A ; Manager
  0003c	e8 00 00 00 00	 call	 ?CountResets@CManager@@QAEHPAD@Z ; CManager::CountResets
  00041	89 45 f0	 mov	 DWORD PTR _Resets$[ebp], eax

; 47   : 
; 48   : 	func.OutWhiteMSG(aIndex, "[Info] Character: %s || Guild: %s", lpObj->Name, lpObj->GuildName);

  00044	8b 45 f8	 mov	 eax, DWORD PTR _lpObj$[ebp]
  00047	05 98 02 00 00	 add	 eax, 664		; 00000298H
  0004c	50		 push	 eax
  0004d	8b 4d f8	 mov	 ecx, DWORD PTR _lpObj$[ebp]
  00050	83 c1 73	 add	 ecx, 115		; 00000073H
  00053	51		 push	 ecx
  00054	68 00 00 00 00	 push	 OFFSET ??_C@_0CC@CFJMEDFK@?$FLInfo?$FN?5Character?3?5?$CFs?5?$HM?$HM?5Guild?3?5@
  00059	8b 55 08	 mov	 edx, DWORD PTR _aIndex$[ebp]
  0005c	52		 push	 edx
  0005d	68 00 00 00 00	 push	 OFFSET ?func@@3VFunctions@@A ; func
  00062	e8 00 00 00 00	 call	 ?OutWhiteMSG@Functions@@QAAXHPBDZZ ; Functions::OutWhiteMSG
  00067	83 c4 14	 add	 esp, 20			; 00000014H

; 49   : 	func.OutWhiteMSG(aIndex, "[Info] Level: %d,Resets: %d" , lpObj->Level,Resets);

  0006a	8b 45 f0	 mov	 eax, DWORD PTR _Resets$[ebp]
  0006d	50		 push	 eax
  0006e	8b 4d f8	 mov	 ecx, DWORD PTR _lpObj$[ebp]
  00071	0f bf 91 a0 00
	00 00		 movsx	 edx, WORD PTR [ecx+160]
  00078	52		 push	 edx
  00079	68 00 00 00 00	 push	 OFFSET ??_C@_0BM@BCIDPKAN@?$FLInfo?$FN?5Level?3?5?$CFd?0Resets?3?5?$CFd@
  0007e	8b 45 08	 mov	 eax, DWORD PTR _aIndex$[ebp]
  00081	50		 push	 eax
  00082	68 00 00 00 00	 push	 OFFSET ?func@@3VFunctions@@A ; func
  00087	e8 00 00 00 00	 call	 ?OutWhiteMSG@Functions@@QAAXHPBDZZ ; Functions::OutWhiteMSG
  0008c	83 c4 14	 add	 esp, 20			; 00000014H

; 50   : 	func.OutWhiteMSG(aIndex, "[Info] Cash: %d ",Golds);	

  0008f	8b 45 f4	 mov	 eax, DWORD PTR _Golds$[ebp]
  00092	50		 push	 eax
  00093	68 00 00 00 00	 push	 OFFSET ??_C@_0BB@GBJEPCIK@?$FLInfo?$FN?5Cash?3?5?$CFd?5@
  00098	8b 4d 08	 mov	 ecx, DWORD PTR _aIndex$[ebp]
  0009b	51		 push	 ecx
  0009c	68 00 00 00 00	 push	 OFFSET ?func@@3VFunctions@@A ; func
  000a1	e8 00 00 00 00	 call	 ?OutWhiteMSG@Functions@@QAAXHPBDZZ ; Functions::OutWhiteMSG
  000a6	83 c4 10	 add	 esp, 16			; 00000010H

; 51   : 	func.OutWhiteMSG(aIndex, "WwW.MuCastillo.Net");	

  000a9	68 00 00 00 00	 push	 OFFSET ??_C@_0BD@PFFDPDMN@WwW?4MuCastillo?4Net@
  000ae	8b 45 08	 mov	 eax, DWORD PTR _aIndex$[ebp]
  000b1	50		 push	 eax
  000b2	68 00 00 00 00	 push	 OFFSET ?func@@3VFunctions@@A ; func
  000b7	e8 00 00 00 00	 call	 ?OutWhiteMSG@Functions@@QAAXHPBDZZ ; Functions::OutWhiteMSG
  000bc	83 c4 0c	 add	 esp, 12			; 0000000cH

; 52   : }

  000bf	5f		 pop	 edi
  000c0	5e		 pop	 esi
  000c1	5b		 pop	 ebx
  000c2	8b e5		 mov	 esp, ebp
  000c4	5d		 pop	 ebp
  000c5	c2 04 00	 ret	 4
?myinfo@CHAT_COMMANDS@@QAEXH@Z ENDP			; CHAT_COMMANDS::myinfo
_TEXT	ENDS
; Function compile flags: /Odtp /ZI
; File C:\Mu Online\Mu-GS-Webzen-MC-10093\GameServer\Command.cpp
;	COMDAT ?Settings@CHAT_COMMANDS@@QAE_NXZ
_TEXT	SEGMENT
_this$ = -4						; size = 4
?Settings@CHAT_COMMANDS@@QAE_NXZ PROC			; CHAT_COMMANDS::Settings, COMDAT
; _this$ = ecx

; 17   : {

  00000	55		 push	 ebp
  00001	8b ec		 mov	 ebp, esp
  00003	83 ec 44	 sub	 esp, 68			; 00000044H
  00006	53		 push	 ebx
  00007	56		 push	 esi
  00008	57		 push	 edi
  00009	89 4d fc	 mov	 DWORD PTR _this$[ebp], ecx

; 18   : 
; 19   : 	GetPrivateProfileString("IrCommand","Sintax do Comando </ir>","/ir",gs_cmd.IrSintax,50,CFG_COMMAND);

  0000c	68 00 00 00 00	 push	 OFFSET ??_C@_0BI@LEKPHMLP@?4?4?2data?2NewsCommand?4ini@
  00011	6a 32		 push	 50			; 00000032H
  00013	68 e2 04 00 00	 push	 OFFSET ?gs_cmd@@3VCHAT_COMMANDS@@A+1250
  00018	68 00 00 00 00	 push	 OFFSET ??_C@_03HMOFHEFA@?1ir@
  0001d	68 00 00 00 00	 push	 OFFSET ??_C@_0BI@HAHAILJD@Sintax?5do?5Comando?5?$DM?1ir?$DO@
  00022	68 00 00 00 00	 push	 OFFSET ??_C@_09GPOJNOCF@IrCommand@
  00027	ff 15 00 00 00
	00		 call	 DWORD PTR __imp__GetPrivateProfileStringA@24

; 20   : 
; 21   : 	//open baul
; 22   : 	OpenWareAtivo	= GetPrivateProfileInt("OpenWareCommand","Activar Comando",1,CFG_COMMAND);

  0002d	68 00 00 00 00	 push	 OFFSET ??_C@_0BI@LEKPHMLP@?4?4?2data?2NewsCommand?4ini@
  00032	6a 01		 push	 1
  00034	68 00 00 00 00	 push	 OFFSET ??_C@_0BA@CMECIFIG@Activar?5Comando@
  00039	68 00 00 00 00	 push	 OFFSET ??_C@_0BA@LLHACNMM@OpenWareCommand@
  0003e	ff 15 00 00 00
	00		 call	 DWORD PTR __imp__GetPrivateProfileIntA@16
  00044	8b 4d fc	 mov	 ecx, DWORD PTR _this$[ebp]
  00047	89 81 14 05 00
	00		 mov	 DWORD PTR [ecx+1300], eax

; 23   : 	OpenWareLevel	= GetPrivateProfileInt("OpenWareCommand","Level para usar el comando",1,CFG_COMMAND);

  0004d	68 00 00 00 00	 push	 OFFSET ??_C@_0BI@LEKPHMLP@?4?4?2data?2NewsCommand?4ini@
  00052	6a 01		 push	 1
  00054	68 00 00 00 00	 push	 OFFSET ??_C@_0BL@OBCCLBMH@Level?5para?5usar?5el?5comando@
  00059	68 00 00 00 00	 push	 OFFSET ??_C@_0BA@LLHACNMM@OpenWareCommand@
  0005e	ff 15 00 00 00
	00		 call	 DWORD PTR __imp__GetPrivateProfileIntA@16
  00064	8b 4d fc	 mov	 ecx, DWORD PTR _this$[ebp]
  00067	89 81 18 05 00
	00		 mov	 DWORD PTR [ecx+1304], eax

; 24   : 	OpenWareVip		= GetPrivateProfileInt("OpenWareCommand","Activar Solamente para Vips",0,CFG_COMMAND);

  0006d	68 00 00 00 00	 push	 OFFSET ??_C@_0BI@LEKPHMLP@?4?4?2data?2NewsCommand?4ini@
  00072	6a 00		 push	 0
  00074	68 00 00 00 00	 push	 OFFSET ??_C@_0BM@OBJJOAPA@Activar?5Solamente?5para?5Vips@
  00079	68 00 00 00 00	 push	 OFFSET ??_C@_0BA@LLHACNMM@OpenWareCommand@
  0007e	ff 15 00 00 00
	00		 call	 DWORD PTR __imp__GetPrivateProfileIntA@16
  00084	8b 4d fc	 mov	 ecx, DWORD PTR _this$[ebp]
  00087	89 81 1c 05 00
	00		 mov	 DWORD PTR [ecx+1308], eax

; 25   : 	OpenWareZen		= GetPrivateProfileInt("OpenWareCommand","Zen por usar el comando",100000,CFG_COMMAND);

  0008d	68 00 00 00 00	 push	 OFFSET ??_C@_0BI@LEKPHMLP@?4?4?2data?2NewsCommand?4ini@
  00092	68 a0 86 01 00	 push	 100000			; 000186a0H
  00097	68 00 00 00 00	 push	 OFFSET ??_C@_0BI@MFMGNPLC@Zen?5por?5usar?5el?5comando@
  0009c	68 00 00 00 00	 push	 OFFSET ??_C@_0BA@LLHACNMM@OpenWareCommand@
  000a1	ff 15 00 00 00
	00		 call	 DWORD PTR __imp__GetPrivateProfileIntA@16
  000a7	8b 4d fc	 mov	 ecx, DWORD PTR _this$[ebp]
  000aa	89 81 20 05 00
	00		 mov	 DWORD PTR [ecx+1312], eax

; 26   : 	GetPrivateProfileString("OpenWareCommand","Sintax de Comando","/open",OpenWareSintax,50,CFG_COMMAND);

  000b0	68 00 00 00 00	 push	 OFFSET ??_C@_0BI@LEKPHMLP@?4?4?2data?2NewsCommand?4ini@
  000b5	6a 32		 push	 50			; 00000032H
  000b7	8b 45 fc	 mov	 eax, DWORD PTR _this$[ebp]
  000ba	05 24 05 00 00	 add	 eax, 1316		; 00000524H
  000bf	50		 push	 eax
  000c0	68 00 00 00 00	 push	 OFFSET ??_C@_05HNPIOGFN@?1open@
  000c5	68 00 00 00 00	 push	 OFFSET ??_C@_0BC@GBEMELCE@Sintax?5de?5Comando@
  000ca	68 00 00 00 00	 push	 OFFSET ??_C@_0BA@LLHACNMM@OpenWareCommand@
  000cf	ff 15 00 00 00
	00		 call	 DWORD PTR __imp__GetPrivateProfileStringA@24

; 27   : 
; 28   : 	GetPrivateProfileString("ComproCommand","Sintax de Comando </compro>","/compro",gs_cmd.ComproSintax,50,CFG_COMMAND);

  000d5	68 00 00 00 00	 push	 OFFSET ??_C@_0BI@LEKPHMLP@?4?4?2data?2NewsCommand?4ini@
  000da	6a 32		 push	 50			; 00000032H
  000dc	68 64 00 00 00	 push	 OFFSET ?gs_cmd@@3VCHAT_COMMANDS@@A+100
  000e1	68 00 00 00 00	 push	 OFFSET ??_C@_07EGPKGDKN@?1compro@
  000e6	68 00 00 00 00	 push	 OFFSET ??_C@_0BM@ENMDJGPI@Sintax?5de?5Comando?5?$DM?1compro?$DO@
  000eb	68 00 00 00 00	 push	 OFFSET ??_C@_0O@MMMAPBCJ@ComproCommand@
  000f0	ff 15 00 00 00
	00		 call	 DWORD PTR __imp__GetPrivateProfileStringA@24

; 29   : 	GetPrivateProfileString("ComproCommand","Formato para exhibir el comando </compro>","[COMPRO]:%s",gs_cmd.ComproFormato,50,CFG_COMMAND);

  000f6	68 00 00 00 00	 push	 OFFSET ??_C@_0BI@LEKPHMLP@?4?4?2data?2NewsCommand?4ini@
  000fb	6a 32		 push	 50			; 00000032H
  000fd	68 96 00 00 00	 push	 OFFSET ?gs_cmd@@3VCHAT_COMMANDS@@A+150
  00102	68 00 00 00 00	 push	 OFFSET ??_C@_0M@LMOGAOGB@?$FLCOMPRO?$FN?3?$CFs@
  00107	68 00 00 00 00	 push	 OFFSET ??_C@_0CK@KCCLJGNK@Formato?5para?5exhibir?5el?5comando@
  0010c	68 00 00 00 00	 push	 OFFSET ??_C@_0O@MMMAPBCJ@ComproCommand@
  00111	ff 15 00 00 00
	00		 call	 DWORD PTR __imp__GetPrivateProfileStringA@24

; 30   : 	GetPrivateProfileString("VendoCommand","Sintax de Comando </vendo>","/vendo",gs_cmd.VendoSintax,50,CFG_COMMAND);

  00117	68 00 00 00 00	 push	 OFFSET ??_C@_0BI@LEKPHMLP@?4?4?2data?2NewsCommand?4ini@
  0011c	6a 32		 push	 50			; 00000032H
  0011e	68 c8 00 00 00	 push	 OFFSET ?gs_cmd@@3VCHAT_COMMANDS@@A+200
  00123	68 00 00 00 00	 push	 OFFSET ??_C@_06KBINOLLB@?1vendo@
  00128	68 00 00 00 00	 push	 OFFSET ??_C@_0BL@LGOMLOK@Sintax?5de?5Comando?5?$DM?1vendo?$DO@
  0012d	68 00 00 00 00	 push	 OFFSET ??_C@_0N@HPAHJDBN@VendoCommand@
  00132	ff 15 00 00 00
	00		 call	 DWORD PTR __imp__GetPrivateProfileStringA@24

; 31   : 	GetPrivateProfileString("VendoCommand","Formato para exhibir el comando </vendo>","[VENDO]:%s",gs_cmd.VendoFormato,50,CFG_COMMAND);

  00138	68 00 00 00 00	 push	 OFFSET ??_C@_0BI@LEKPHMLP@?4?4?2data?2NewsCommand?4ini@
  0013d	6a 32		 push	 50			; 00000032H
  0013f	68 fa 00 00 00	 push	 OFFSET ?gs_cmd@@3VCHAT_COMMANDS@@A+250
  00144	68 00 00 00 00	 push	 OFFSET ??_C@_0L@PIDECALJ@?$FLVENDO?$FN?3?$CFs@
  00149	68 00 00 00 00	 push	 OFFSET ??_C@_0CJ@DGHOMDKJ@Formato?5para?5exhibir?5el?5comando@
  0014e	68 00 00 00 00	 push	 OFFSET ??_C@_0N@HPAHJDBN@VendoCommand@
  00153	ff 15 00 00 00
	00		 call	 DWORD PTR __imp__GetPrivateProfileStringA@24

; 32   : 
; 33   : 
; 34   : 	//GetPrivateProfileString("Server","Mensaje comando /premiar","[%s] Foi premiado(a) com [%d] Golds!",gs_cmd.PremiarNotice,160,"..\\data\\ConfigSurvivor.txt");
; 35   : 	GetPrivateProfileString("PREMIAR UPDATE","UPDATE PREMIAR","UPDATE MuOnline.dbo.MEMB_INFO SET Gold = Gold + %d Where memb___id = '%s'",gs_cmd.PremiarQuery,100,CFG_QUERYSHOP);

  00159	68 00 00 00 00	 push	 OFFSET ??_C@_0BG@GGOILNKD@?4?4?2data?2QueryShop?4ini@
  0015e	6a 64		 push	 100			; 00000064H
  00160	68 56 05 00 00	 push	 OFFSET ?gs_cmd@@3VCHAT_COMMANDS@@A+1366
  00165	68 00 00 00 00	 push	 OFFSET ??_C@_0EK@CLGCAEDA@UPDATE?5MuOnline?4dbo?4MEMB_INFO?5S@
  0016a	68 00 00 00 00	 push	 OFFSET ??_C@_0P@FHJNEOJG@UPDATE?5PREMIAR@
  0016f	68 00 00 00 00	 push	 OFFSET ??_C@_0P@CBCPBPE@PREMIAR?5UPDATE@
  00174	ff 15 00 00 00
	00		 call	 DWORD PTR __imp__GetPrivateProfileStringA@24

; 36   : 
; 37   : 	GetPrivateProfileString("Server","Mensaje Sobrevivencia 1","digite [/ir] para participar.",gs_cmd.SobreNotice,160,"..\\data\\ConfigSurvivor.txt");

  0017a	68 00 00 00 00	 push	 OFFSET ??_C@_0BL@JDNEBAAB@?4?4?2data?2ConfigSurvivor?4txt@
  0017f	68 a0 00 00 00	 push	 160			; 000000a0H
  00184	68 be 06 00 00	 push	 OFFSET ?gs_cmd@@3VCHAT_COMMANDS@@A+1726
  00189	68 00 00 00 00	 push	 OFFSET ??_C@_0BO@LALEILJL@digite?5?$FL?1ir?$FN?5para?5participar?4@
  0018e	68 00 00 00 00	 push	 OFFSET ??_C@_0BI@BLEPPMMK@Mensaje?5Sobrevivencia?51@
  00193	68 00 00 00 00	 push	 OFFSET ??_C@_06LGMEBDBC@Server@
  00198	ff 15 00 00 00
	00		 call	 DWORD PTR __imp__GetPrivateProfileStringA@24

; 38   : 
; 39   : 	return true;

  0019e	b0 01		 mov	 al, 1

; 40   : }

  001a0	5f		 pop	 edi
  001a1	5e		 pop	 esi
  001a2	5b		 pop	 ebx
  001a3	8b e5		 mov	 esp, ebp
  001a5	5d		 pop	 ebp
  001a6	c3		 ret	 0
?Settings@CHAT_COMMANDS@@QAE_NXZ ENDP			; CHAT_COMMANDS::Settings
_TEXT	ENDS
; Function compile flags: /Odtp /ZI
; File C:\Program Files (x86)\Windows Kits\10\Include\10.0.18362.0\ucrt\stdio.h
;	COMDAT _sprintf
_TEXT	SEGMENT
__ArgList$ = -8						; size = 4
__Result$ = -4						; size = 4
__Buffer$ = 8						; size = 4
__Format$ = 12						; size = 4
_sprintf PROC						; COMDAT

; 1781 :     {

  00000	55		 push	 ebp
  00001	8b ec		 mov	 ebp, esp
  00003	83 ec 4c	 sub	 esp, 76			; 0000004cH
  00006	53		 push	 ebx
  00007	56		 push	 esi
  00008	57		 push	 edi

; 1782 :         int _Result;
; 1783 :         va_list _ArgList;
; 1784 :         __crt_va_start(_ArgList, _Format);

  00009	8d 45 10	 lea	 eax, DWORD PTR __Format$[ebp+4]
  0000c	89 45 f8	 mov	 DWORD PTR __ArgList$[ebp], eax

; 1785 : 
; 1786 :         #pragma warning(push)
; 1787 :         #pragma warning(disable: 4996) // Deprecation
; 1788 :         _Result = _vsprintf_l(_Buffer, _Format, NULL, _ArgList);

  0000f	8b 45 f8	 mov	 eax, DWORD PTR __ArgList$[ebp]
  00012	50		 push	 eax
  00013	6a 00		 push	 0
  00015	8b 4d 0c	 mov	 ecx, DWORD PTR __Format$[ebp]
  00018	51		 push	 ecx
  00019	8b 55 08	 mov	 edx, DWORD PTR __Buffer$[ebp]
  0001c	52		 push	 edx
  0001d	e8 00 00 00 00	 call	 __vsprintf_l
  00022	83 c4 10	 add	 esp, 16			; 00000010H
  00025	89 45 fc	 mov	 DWORD PTR __Result$[ebp], eax

; 1789 :         #pragma warning(pop)
; 1790 : 
; 1791 :         __crt_va_end(_ArgList);

  00028	c7 45 f8 00 00
	00 00		 mov	 DWORD PTR __ArgList$[ebp], 0

; 1792 :         return _Result;

  0002f	8b 45 fc	 mov	 eax, DWORD PTR __Result$[ebp]

; 1793 :     }

  00032	5f		 pop	 edi
  00033	5e		 pop	 esi
  00034	5b		 pop	 ebx
  00035	8b e5		 mov	 esp, ebp
  00037	5d		 pop	 ebp
  00038	c3		 ret	 0
_sprintf ENDP
_TEXT	ENDS
; Function compile flags: /Odtp /ZI
; File C:\Program Files (x86)\Windows Kits\10\Include\10.0.18362.0\ucrt\stdio.h
;	COMDAT __vsprintf_l
_TEXT	SEGMENT
__Buffer$ = 8						; size = 4
__Format$ = 12						; size = 4
__Locale$ = 16						; size = 4
__ArgList$ = 20						; size = 4
__vsprintf_l PROC					; COMDAT

; 1459 :     {

  00000	55		 push	 ebp
  00001	8b ec		 mov	 ebp, esp
  00003	83 ec 40	 sub	 esp, 64			; 00000040H
  00006	53		 push	 ebx
  00007	56		 push	 esi
  00008	57		 push	 edi

; 1460 :         #pragma warning(push)
; 1461 :         #pragma warning(disable: 4996) // Deprecation
; 1462 :         return _vsnprintf_l(_Buffer, (size_t)-1, _Format, _Locale, _ArgList);

  00009	8b 45 14	 mov	 eax, DWORD PTR __ArgList$[ebp]
  0000c	50		 push	 eax
  0000d	8b 4d 10	 mov	 ecx, DWORD PTR __Locale$[ebp]
  00010	51		 push	 ecx
  00011	8b 55 0c	 mov	 edx, DWORD PTR __Format$[ebp]
  00014	52		 push	 edx
  00015	6a ff		 push	 -1
  00017	8b 45 08	 mov	 eax, DWORD PTR __Buffer$[ebp]
  0001a	50		 push	 eax
  0001b	e8 00 00 00 00	 call	 __vsnprintf_l
  00020	83 c4 14	 add	 esp, 20			; 00000014H

; 1463 :         #pragma warning(pop)
; 1464 :     }

  00023	5f		 pop	 edi
  00024	5e		 pop	 esi
  00025	5b		 pop	 ebx
  00026	8b e5		 mov	 esp, ebp
  00028	5d		 pop	 ebp
  00029	c3		 ret	 0
__vsprintf_l ENDP
_TEXT	ENDS
; Function compile flags: /Odtp /ZI
; File C:\Program Files (x86)\Windows Kits\10\Include\10.0.18362.0\ucrt\stdio.h
;	COMDAT __vsnprintf_l
_TEXT	SEGMENT
tv74 = -72						; size = 4
__Result$ = -4						; size = 4
__Buffer$ = 8						; size = 4
__BufferCount$ = 12					; size = 4
__Format$ = 16						; size = 4
__Locale$ = 20						; size = 4
__ArgList$ = 24						; size = 4
__vsnprintf_l PROC					; COMDAT

; 1389 :     {

  00000	55		 push	 ebp
  00001	8b ec		 mov	 ebp, esp
  00003	83 ec 48	 sub	 esp, 72			; 00000048H
  00006	53		 push	 ebx
  00007	56		 push	 esi
  00008	57		 push	 edi

; 1390 :         int const _Result = __stdio_common_vsprintf(

  00009	8b 45 18	 mov	 eax, DWORD PTR __ArgList$[ebp]
  0000c	50		 push	 eax
  0000d	8b 4d 14	 mov	 ecx, DWORD PTR __Locale$[ebp]
  00010	51		 push	 ecx
  00011	8b 55 10	 mov	 edx, DWORD PTR __Format$[ebp]
  00014	52		 push	 edx
  00015	8b 45 0c	 mov	 eax, DWORD PTR __BufferCount$[ebp]
  00018	50		 push	 eax
  00019	8b 4d 08	 mov	 ecx, DWORD PTR __Buffer$[ebp]
  0001c	51		 push	 ecx
  0001d	e8 00 00 00 00	 call	 ___local_stdio_printf_options
  00022	8b 10		 mov	 edx, DWORD PTR [eax]
  00024	83 ca 01	 or	 edx, 1
  00027	8b 40 04	 mov	 eax, DWORD PTR [eax+4]
  0002a	50		 push	 eax
  0002b	52		 push	 edx
  0002c	e8 00 00 00 00	 call	 ___stdio_common_vsprintf
  00031	83 c4 1c	 add	 esp, 28			; 0000001cH
  00034	89 45 fc	 mov	 DWORD PTR __Result$[ebp], eax

; 1391 :             _CRT_INTERNAL_LOCAL_PRINTF_OPTIONS | _CRT_INTERNAL_PRINTF_LEGACY_VSPRINTF_NULL_TERMINATION,
; 1392 :             _Buffer, _BufferCount, _Format, _Locale, _ArgList);
; 1393 : 
; 1394 :         return _Result < 0 ? -1 : _Result;

  00037	83 7d fc 00	 cmp	 DWORD PTR __Result$[ebp], 0
  0003b	7d 09		 jge	 SHORT $LN3@vsnprintf_
  0003d	c7 45 b8 ff ff
	ff ff		 mov	 DWORD PTR tv74[ebp], -1
  00044	eb 06		 jmp	 SHORT $LN4@vsnprintf_
$LN3@vsnprintf_:
  00046	8b 45 fc	 mov	 eax, DWORD PTR __Result$[ebp]
  00049	89 45 b8	 mov	 DWORD PTR tv74[ebp], eax
$LN4@vsnprintf_:
  0004c	8b 45 b8	 mov	 eax, DWORD PTR tv74[ebp]

; 1395 :     }

  0004f	5f		 pop	 edi
  00050	5e		 pop	 esi
  00051	5b		 pop	 ebx
  00052	8b e5		 mov	 esp, ebp
  00054	5d		 pop	 ebp
  00055	c3		 ret	 0
__vsnprintf_l ENDP
_TEXT	ENDS
; Function compile flags: /Odtp /ZI
; File C:\Program Files (x86)\Windows Kits\10\Include\10.0.18362.0\ucrt\corecrt_stdio_config.h
;	COMDAT ___local_stdio_printf_options
_TEXT	SEGMENT
___local_stdio_printf_options PROC			; COMDAT

; 86   :     {

  00000	55		 push	 ebp
  00001	8b ec		 mov	 ebp, esp
  00003	83 ec 40	 sub	 esp, 64			; 00000040H
  00006	53		 push	 ebx
  00007	56		 push	 esi
  00008	57		 push	 edi

; 87   :         static unsigned __int64 _OptionsStorage;
; 88   :         return &_OptionsStorage;

  00009	b8 00 00 00 00	 mov	 eax, OFFSET ?_OptionsStorage@?1??__local_stdio_printf_options@@9@4_KA ; `__local_stdio_printf_options'::`2'::_OptionsStorage

; 89   :     }

  0000e	5f		 pop	 edi
  0000f	5e		 pop	 esi
  00010	5b		 pop	 ebx
  00011	8b e5		 mov	 esp, ebp
  00013	5d		 pop	 ebp
  00014	c3		 ret	 0
___local_stdio_printf_options ENDP
_TEXT	ENDS
; Function compile flags: /Odtp /ZI
; File C:\Mu Online\Mu-GS-Webzen-MC-10093\GameServer\Command.cpp
;	COMDAT ?__empty_global_delete@@YAXPAXI@Z
_TEXT	SEGMENT
___formal$ = 8						; size = 4
___formal$ = 12						; size = 4
?__empty_global_delete@@YAXPAXI@Z PROC			; __empty_global_delete, COMDAT

  00000	55		 push	 ebp
  00001	8b ec		 mov	 ebp, esp
  00003	83 ec 40	 sub	 esp, 64			; 00000040H
  00006	53		 push	 ebx
  00007	56		 push	 esi
  00008	57		 push	 edi
  00009	5f		 pop	 edi
  0000a	5e		 pop	 esi
  0000b	5b		 pop	 ebx
  0000c	8b e5		 mov	 esp, ebp
  0000e	5d		 pop	 ebp
  0000f	c3		 ret	 0
?__empty_global_delete@@YAXPAXI@Z ENDP			; __empty_global_delete
_TEXT	ENDS
; Function compile flags: /Odtp /ZI
; File C:\Mu Online\Mu-GS-Webzen-MC-10093\GameServer\Command.cpp
;	COMDAT ?__empty_global_delete@@YAXPAX@Z
_TEXT	SEGMENT
___formal$ = 8						; size = 4
?__empty_global_delete@@YAXPAX@Z PROC			; __empty_global_delete, COMDAT

  00000	55		 push	 ebp
  00001	8b ec		 mov	 ebp, esp
  00003	83 ec 40	 sub	 esp, 64			; 00000040H
  00006	53		 push	 ebx
  00007	56		 push	 esi
  00008	57		 push	 edi
  00009	5f		 pop	 edi
  0000a	5e		 pop	 esi
  0000b	5b		 pop	 ebx
  0000c	8b e5		 mov	 esp, ebp
  0000e	5d		 pop	 ebp
  0000f	c3		 ret	 0
?__empty_global_delete@@YAXPAX@Z ENDP			; __empty_global_delete
_TEXT	ENDS
END
