; Listing generated by Microsoft (R) Optimizing Compiler Version 19.27.29111.0 

	TITLE	C:\Mu Online\Mu-GS-Webzen-MC-10093\GameServer\DevilSquareGround.cpp
	.686P
	.XMM
	include listing.inc
	.model	flat

INCLUDELIB LIBCMT
INCLUDELIB OLDNAMES

PUBLIC	?__empty_global_delete@@YAXPAX@Z		; __empty_global_delete
PUBLIC	?__empty_global_delete@@YAXPAXI@Z		; __empty_global_delete
PUBLIC	??2@YAPAXIPAX@Z					; operator new
PUBLIC	??0exception@std@@QAE@QBDH@Z			; std::exception::exception
PUBLIC	??0exception@std@@QAE@ABV01@@Z			; std::exception::exception
PUBLIC	??1exception@std@@UAE@XZ			; std::exception::~exception
PUBLIC	?what@exception@std@@UBEPBDXZ			; std::exception::what
PUBLIC	??_Gexception@std@@UAEPAXI@Z			; std::exception::`scalar deleting destructor'
PUBLIC	??0bad_alloc@std@@AAE@QBD@Z			; std::bad_alloc::bad_alloc
PUBLIC	??1bad_alloc@std@@UAE@XZ			; std::bad_alloc::~bad_alloc
PUBLIC	??0bad_alloc@std@@QAE@ABV01@@Z			; std::bad_alloc::bad_alloc
PUBLIC	??_Gbad_alloc@std@@UAEPAXI@Z			; std::bad_alloc::`scalar deleting destructor'
PUBLIC	??0bad_array_new_length@std@@QAE@XZ		; std::bad_array_new_length::bad_array_new_length
PUBLIC	??1bad_array_new_length@std@@UAE@XZ		; std::bad_array_new_length::~bad_array_new_length
PUBLIC	??0bad_array_new_length@std@@QAE@ABV01@@Z	; std::bad_array_new_length::bad_array_new_length
PUBLIC	??_Gbad_array_new_length@std@@UAEPAXI@Z		; std::bad_array_new_length::`scalar deleting destructor'
PUBLIC	?_Throw_bad_array_new_length@std@@YAXXZ		; std::_Throw_bad_array_new_length
PUBLIC	?max@?$numeric_limits@H@std@@SAHXZ		; std::numeric_limits<int>::max
PUBLIC	?_Allocate@_Default_allocate_traits@std@@SAPAXI@Z ; std::_Default_allocate_traits::_Allocate
PUBLIC	?_Adjust_manually_vector_aligned@std@@YAXAAPAXAAI@Z ; std::_Adjust_manually_vector_aligned
PUBLIC	?_Orphan_all@_Container_base0@std@@QAEXXZ	; std::_Container_base0::_Orphan_all
PUBLIC	?_Alloc_proxy@_Container_base0@std@@QAEXABU_Fake_allocator@2@@Z ; std::_Container_base0::_Alloc_proxy
PUBLIC	?_Adopt@_Iterator_base0@std@@QAEXPBX@Z		; std::_Iterator_base0::_Adopt
PUBLIC	??$min@I@std@@YAABIABI0@Z			; std::min<unsigned int>
PUBLIC	??$_Deallocate@$07$0A@@std@@YAXPAXI@Z		; std::_Deallocate<8,0>
PUBLIC	??$_Allocate@$07U_Default_allocate_traits@std@@$0A@@std@@YAPAXI@Z ; std::_Allocate<8,std::_Default_allocate_traits,0>
PUBLIC	??$_Allocate_manually_vector_aligned@U_Default_allocate_traits@std@@@std@@YAPAXI@Z ; std::_Allocate_manually_vector_aligned<std::_Default_allocate_traits>
PUBLIC	??$_Get_size_of_n@$03@std@@YAII@Z		; std::_Get_size_of_n<4>
PUBLIC	??0?$allocator@PAVOBJECTSTRUCT@@@std@@QAE@XZ	; std::allocator<OBJECTSTRUCT *>::allocator<OBJECTSTRUCT *>
PUBLIC	?deallocate@?$allocator@PAVOBJECTSTRUCT@@@std@@QAEXQAPAVOBJECTSTRUCT@@I@Z ; std::allocator<OBJECTSTRUCT *>::deallocate
PUBLIC	?allocate@?$allocator@PAVOBJECTSTRUCT@@@std@@QAEPAPAVOBJECTSTRUCT@@I@Z ; std::allocator<OBJECTSTRUCT *>::allocate
PUBLIC	?max_size@?$_Default_allocator_traits@V?$allocator@PAVOBJECTSTRUCT@@@std@@@std@@SAIABV?$allocator@PAVOBJECTSTRUCT@@@2@@Z ; std::_Default_allocator_traits<std::allocator<OBJECTSTRUCT *> >::max_size
PUBLIC	??0?$vector@PAVOBJECTSTRUCT@@V?$allocator@PAVOBJECTSTRUCT@@@std@@@std@@QAE@XZ ; std::vector<OBJECTSTRUCT *,std::allocator<OBJECTSTRUCT *> >::vector<OBJECTSTRUCT *,std::allocator<OBJECTSTRUCT *> >
PUBLIC	??1?$vector@PAVOBJECTSTRUCT@@V?$allocator@PAVOBJECTSTRUCT@@@std@@@std@@QAE@XZ ; std::vector<OBJECTSTRUCT *,std::allocator<OBJECTSTRUCT *> >::~vector<OBJECTSTRUCT *,std::allocator<OBJECTSTRUCT *> >
PUBLIC	?push_back@?$vector@PAVOBJECTSTRUCT@@V?$allocator@PAVOBJECTSTRUCT@@@std@@@std@@QAEXABQAVOBJECTSTRUCT@@@Z ; std::vector<OBJECTSTRUCT *,std::allocator<OBJECTSTRUCT *> >::push_back
PUBLIC	?clear@?$vector@PAVOBJECTSTRUCT@@V?$allocator@PAVOBJECTSTRUCT@@@std@@@std@@QAEXXZ ; std::vector<OBJECTSTRUCT *,std::allocator<OBJECTSTRUCT *> >::clear
PUBLIC	?begin@?$vector@PAVOBJECTSTRUCT@@V?$allocator@PAVOBJECTSTRUCT@@@std@@@std@@QAE?AV?$_Vector_iterator@V?$_Vector_val@U?$_Simple_types@PAVOBJECTSTRUCT@@@std@@@std@@@2@XZ ; std::vector<OBJECTSTRUCT *,std::allocator<OBJECTSTRUCT *> >::begin
PUBLIC	?end@?$vector@PAVOBJECTSTRUCT@@V?$allocator@PAVOBJECTSTRUCT@@@std@@@std@@QAE?AV?$_Vector_iterator@V?$_Vector_val@U?$_Simple_types@PAVOBJECTSTRUCT@@@std@@@std@@@2@XZ ; std::vector<OBJECTSTRUCT *,std::allocator<OBJECTSTRUCT *> >::end
PUBLIC	?size@?$vector@PAVOBJECTSTRUCT@@V?$allocator@PAVOBJECTSTRUCT@@@std@@@std@@QBEIXZ ; std::vector<OBJECTSTRUCT *,std::allocator<OBJECTSTRUCT *> >::size
PUBLIC	?max_size@?$vector@PAVOBJECTSTRUCT@@V?$allocator@PAVOBJECTSTRUCT@@@std@@@std@@QBEIXZ ; std::vector<OBJECTSTRUCT *,std::allocator<OBJECTSTRUCT *> >::max_size
PUBLIC	?capacity@?$vector@PAVOBJECTSTRUCT@@V?$allocator@PAVOBJECTSTRUCT@@@std@@@std@@QBEIXZ ; std::vector<OBJECTSTRUCT *,std::allocator<OBJECTSTRUCT *> >::capacity
PUBLIC	?_Umove@?$vector@PAVOBJECTSTRUCT@@V?$allocator@PAVOBJECTSTRUCT@@@std@@@std@@AAEPAPAVOBJECTSTRUCT@@PAPAV3@00@Z ; std::vector<OBJECTSTRUCT *,std::allocator<OBJECTSTRUCT *> >::_Umove
PUBLIC	?_Umove_if_noexcept1@?$vector@PAVOBJECTSTRUCT@@V?$allocator@PAVOBJECTSTRUCT@@@std@@@std@@AAEXPAPAVOBJECTSTRUCT@@00U?$integral_constant@_N$00@2@@Z ; std::vector<OBJECTSTRUCT *,std::allocator<OBJECTSTRUCT *> >::_Umove_if_noexcept1
PUBLIC	?_Umove_if_noexcept@?$vector@PAVOBJECTSTRUCT@@V?$allocator@PAVOBJECTSTRUCT@@@std@@@std@@AAEXPAPAVOBJECTSTRUCT@@00@Z ; std::vector<OBJECTSTRUCT *,std::allocator<OBJECTSTRUCT *> >::_Umove_if_noexcept
PUBLIC	?_Destroy@?$vector@PAVOBJECTSTRUCT@@V?$allocator@PAVOBJECTSTRUCT@@@std@@@std@@AAEXPAPAVOBJECTSTRUCT@@0@Z ; std::vector<OBJECTSTRUCT *,std::allocator<OBJECTSTRUCT *> >::_Destroy
PUBLIC	?_Calculate_growth@?$vector@PAVOBJECTSTRUCT@@V?$allocator@PAVOBJECTSTRUCT@@@std@@@std@@ABEII@Z ; std::vector<OBJECTSTRUCT *,std::allocator<OBJECTSTRUCT *> >::_Calculate_growth
PUBLIC	?_Change_array@?$vector@PAVOBJECTSTRUCT@@V?$allocator@PAVOBJECTSTRUCT@@@std@@@std@@AAEXQAPAVOBJECTSTRUCT@@II@Z ; std::vector<OBJECTSTRUCT *,std::allocator<OBJECTSTRUCT *> >::_Change_array
PUBLIC	?_Tidy@?$vector@PAVOBJECTSTRUCT@@V?$allocator@PAVOBJECTSTRUCT@@@std@@@std@@AAEXXZ ; std::vector<OBJECTSTRUCT *,std::allocator<OBJECTSTRUCT *> >::_Tidy
PUBLIC	?_Xlength@?$vector@PAVOBJECTSTRUCT@@V?$allocator@PAVOBJECTSTRUCT@@@std@@@std@@CAXXZ ; std::vector<OBJECTSTRUCT *,std::allocator<OBJECTSTRUCT *> >::_Xlength
PUBLIC	?_Orphan_range@?$vector@PAVOBJECTSTRUCT@@V?$allocator@PAVOBJECTSTRUCT@@@std@@@std@@ABEXPAPAVOBJECTSTRUCT@@0@Z ; std::vector<OBJECTSTRUCT *,std::allocator<OBJECTSTRUCT *> >::_Orphan_range
PUBLIC	?_Getal@?$vector@PAVOBJECTSTRUCT@@V?$allocator@PAVOBJECTSTRUCT@@@std@@@std@@AAEAAV?$allocator@PAVOBJECTSTRUCT@@@2@XZ ; std::vector<OBJECTSTRUCT *,std::allocator<OBJECTSTRUCT *> >::_Getal
PUBLIC	?_Getal@?$vector@PAVOBJECTSTRUCT@@V?$allocator@PAVOBJECTSTRUCT@@@std@@@std@@ABEABV?$allocator@PAVOBJECTSTRUCT@@@2@XZ ; std::vector<OBJECTSTRUCT *,std::allocator<OBJECTSTRUCT *> >::_Getal
PUBLIC	??0?$_Vector_val@U?$_Simple_types@PAVOBJECTSTRUCT@@@std@@@std@@QAE@XZ ; std::_Vector_val<std::_Simple_types<OBJECTSTRUCT *> >::_Vector_val<std::_Simple_types<OBJECTSTRUCT *> >
PUBLIC	?_Get_first@?$_Compressed_pair@V?$allocator@PAVOBJECTSTRUCT@@@std@@V?$_Vector_val@U?$_Simple_types@PAVOBJECTSTRUCT@@@std@@@2@$00@std@@QAEAAV?$allocator@PAVOBJECTSTRUCT@@@2@XZ ; std::_Compressed_pair<std::allocator<OBJECTSTRUCT *>,std::_Vector_val<std::_Simple_types<OBJECTSTRUCT *> >,1>::_Get_first
PUBLIC	?_Get_first@?$_Compressed_pair@V?$allocator@PAVOBJECTSTRUCT@@@std@@V?$_Vector_val@U?$_Simple_types@PAVOBJECTSTRUCT@@@std@@@2@$00@std@@QBEABV?$allocator@PAVOBJECTSTRUCT@@@2@XZ ; std::_Compressed_pair<std::allocator<OBJECTSTRUCT *>,std::_Vector_val<std::_Simple_types<OBJECTSTRUCT *> >,1>::_Get_first
PUBLIC	??0CDevilSquareGround@@QAE@XZ			; CDevilSquareGround::CDevilSquareGround
PUBLIC	??1CDevilSquareGround@@UAE@XZ			; CDevilSquareGround::~CDevilSquareGround
PUBLIC	?Init@CDevilSquareGround@@QAEXH@Z		; CDevilSquareGround::Init
PUBLIC	?Clear@CDevilSquareGround@@QAEXXZ		; CDevilSquareGround::Clear
PUBLIC	?SetBonus@CDevilSquareGround@@QAEXHHH@Z		; CDevilSquareGround::SetBonus
PUBLIC	?Set@CDevilSquareGround@@QAEXGHH@Z		; CDevilSquareGround::Set
PUBLIC	?SetBoss@CDevilSquareGround@@QAEXGHHHHH@Z	; CDevilSquareGround::SetBoss
PUBLIC	?IncObjCount@CDevilSquareGround@@QAEXXZ		; CDevilSquareGround::IncObjCount
PUBLIC	?GetObjCount@CDevilSquareGround@@QAEJXZ		; CDevilSquareGround::GetObjCount
PUBLIC	?RegenBossMonster@CDevilSquareGround@@QAEXH@Z	; CDevilSquareGround::RegenBossMonster
PUBLIC	?FindMonsterType@CDevilSquareGround@@QAEHG@Z	; CDevilSquareGround::FindMonsterType
PUBLIC	?GetMonsterType@CDevilSquareGround@@QAEGH@Z	; CDevilSquareGround::GetMonsterType
PUBLIC	?SendRankingInfo@CDevilSquareGround@@QAEXPAVOBJECTSTRUCT@@@Z ; CDevilSquareGround::SendRankingInfo
PUBLIC	?ClearScore@CDevilSquareGround@@QAEXXZ		; CDevilSquareGround::ClearScore
PUBLIC	?SortScore@CDevilSquareGround@@QAEXXZ		; CDevilSquareGround::SortScore
PUBLIC	?InsertObj@CDevilSquareGround@@QAEXPAVOBJECTSTRUCT@@@Z ; CDevilSquareGround::InsertObj
PUBLIC	?SendScore@CDevilSquareGround@@QAEXXZ		; CDevilSquareGround::SendScore
PUBLIC	??_GCDevilSquareGround@@UAEPAXI@Z		; CDevilSquareGround::`scalar deleting destructor'
PUBLIC	?DevilSquareScoreSort@@YA_NABQAVOBJECTSTRUCT@@0@Z ; DevilSquareScoreSort
PUBLIC	??0?$_Vector_const_iterator@V?$_Vector_val@U?$_Simple_types@PAVOBJECTSTRUCT@@@std@@@std@@@std@@QAE@PAPAVOBJECTSTRUCT@@PBU_Container_base0@1@@Z ; std::_Vector_const_iterator<std::_Vector_val<std::_Simple_types<OBJECTSTRUCT *> > >::_Vector_const_iterator<std::_Vector_val<std::_Simple_types<OBJECTSTRUCT *> > >
PUBLIC	??D?$_Vector_const_iterator@V?$_Vector_val@U?$_Simple_types@PAVOBJECTSTRUCT@@@std@@@std@@@std@@QBEABQAVOBJECTSTRUCT@@XZ ; std::_Vector_const_iterator<std::_Vector_val<std::_Simple_types<OBJECTSTRUCT *> > >::operator*
PUBLIC	??E?$_Vector_const_iterator@V?$_Vector_val@U?$_Simple_types@PAVOBJECTSTRUCT@@@std@@@std@@@std@@QAEAAV01@XZ ; std::_Vector_const_iterator<std::_Vector_val<std::_Simple_types<OBJECTSTRUCT *> > >::operator++
PUBLIC	??8?$_Vector_const_iterator@V?$_Vector_val@U?$_Simple_types@PAVOBJECTSTRUCT@@@std@@@std@@@std@@QBE_NABV01@@Z ; std::_Vector_const_iterator<std::_Vector_val<std::_Simple_types<OBJECTSTRUCT *> > >::operator==
PUBLIC	??9?$_Vector_const_iterator@V?$_Vector_val@U?$_Simple_types@PAVOBJECTSTRUCT@@@std@@@std@@@std@@QBE_NABV01@@Z ; std::_Vector_const_iterator<std::_Vector_val<std::_Simple_types<OBJECTSTRUCT *> > >::operator!=
PUBLIC	?_Compat@?$_Vector_const_iterator@V?$_Vector_val@U?$_Simple_types@PAVOBJECTSTRUCT@@@std@@@std@@@std@@QBEXABV12@@Z ; std::_Vector_const_iterator<std::_Vector_val<std::_Simple_types<OBJECTSTRUCT *> > >::_Compat
PUBLIC	??D?$_Vector_iterator@V?$_Vector_val@U?$_Simple_types@PAVOBJECTSTRUCT@@@std@@@std@@@std@@QBEAAPAVOBJECTSTRUCT@@XZ ; std::_Vector_iterator<std::_Vector_val<std::_Simple_types<OBJECTSTRUCT *> > >::operator*
PUBLIC	??E?$_Vector_iterator@V?$_Vector_val@U?$_Simple_types@PAVOBJECTSTRUCT@@@std@@@std@@@std@@QAEAAV01@XZ ; std::_Vector_iterator<std::_Vector_val<std::_Simple_types<OBJECTSTRUCT *> > >::operator++
PUBLIC	?_Unwrapped@?$_Vector_iterator@V?$_Vector_val@U?$_Simple_types@PAVOBJECTSTRUCT@@@std@@@std@@@std@@QBEPAPAVOBJECTSTRUCT@@XZ ; std::_Vector_iterator<std::_Vector_val<std::_Simple_types<OBJECTSTRUCT *> > >::_Unwrapped
PUBLIC	??0?$_Vector_iterator@V?$_Vector_val@U?$_Simple_types@PAVOBJECTSTRUCT@@@std@@@std@@@std@@QAE@PAPAVOBJECTSTRUCT@@PBU_Container_base0@1@@Z ; std::_Vector_iterator<std::_Vector_val<std::_Simple_types<OBJECTSTRUCT *> > >::_Vector_iterator<std::_Vector_val<std::_Simple_types<OBJECTSTRUCT *> > >
PUBLIC	??$sort@V?$_Vector_iterator@V?$_Vector_val@U?$_Simple_types@PAVOBJECTSTRUCT@@@std@@@std@@@std@@P6A_NABQAVOBJECTSTRUCT@@0@Z@std@@YAXV?$_Vector_iterator@V?$_Vector_val@U?$_Simple_types@PAVOBJECTSTRUCT@@@std@@@std@@@0@0P6A_NABQAVOBJECTSTRUCT@@1@Z@Z ; std::sort<std::_Vector_iterator<std::_Vector_val<std::_Simple_types<OBJECTSTRUCT *> > >,bool (__cdecl*)(OBJECTSTRUCT * const &,OBJECTSTRUCT * const &)>
PUBLIC	??$addressof@V?$_Vector_val@U?$_Simple_types@PAVOBJECTSTRUCT@@@std@@@std@@@std@@YAPAV?$_Vector_val@U?$_Simple_types@PAVOBJECTSTRUCT@@@std@@@0@AAV10@@Z ; std::addressof<std::_Vector_val<std::_Simple_types<OBJECTSTRUCT *> > >
PUBLIC	??$emplace_back@ABQAVOBJECTSTRUCT@@@?$vector@PAVOBJECTSTRUCT@@V?$allocator@PAVOBJECTSTRUCT@@@std@@@std@@QAE@ABQAVOBJECTSTRUCT@@@Z ; std::vector<OBJECTSTRUCT *,std::allocator<OBJECTSTRUCT *> >::emplace_back<OBJECTSTRUCT * const &>
PUBLIC	??$forward@ABQAVOBJECTSTRUCT@@@std@@YAABQAVOBJECTSTRUCT@@ABQAV1@@Z ; std::forward<OBJECTSTRUCT * const &>
PUBLIC	??$_Emplace_back_with_unused_capacity@ABQAVOBJECTSTRUCT@@@?$vector@PAVOBJECTSTRUCT@@V?$allocator@PAVOBJECTSTRUCT@@@std@@@std@@AAE@ABQAVOBJECTSTRUCT@@@Z ; std::vector<OBJECTSTRUCT *,std::allocator<OBJECTSTRUCT *> >::_Emplace_back_with_unused_capacity<OBJECTSTRUCT * const &>
PUBLIC	??$_Unfancy@PAVOBJECTSTRUCT@@@std@@YAPAPAVOBJECTSTRUCT@@PAPAV1@@Z ; std::_Unfancy<OBJECTSTRUCT *>
PUBLIC	??$construct@PAVOBJECTSTRUCT@@ABQAV1@@?$_Default_allocator_traits@V?$allocator@PAVOBJECTSTRUCT@@@std@@@std@@SAXAAV?$allocator@PAVOBJECTSTRUCT@@@1@QAPAVOBJECTSTRUCT@@ABQAV3@@Z ; std::_Default_allocator_traits<std::allocator<OBJECTSTRUCT *> >::construct<OBJECTSTRUCT *,OBJECTSTRUCT * const &>
PUBLIC	??$_Emplace_reallocate@ABQAVOBJECTSTRUCT@@@?$vector@PAVOBJECTSTRUCT@@V?$allocator@PAVOBJECTSTRUCT@@@std@@@std@@QAEPAPAVOBJECTSTRUCT@@QAPAV2@ABQAV2@@Z ; std::vector<OBJECTSTRUCT *,std::allocator<OBJECTSTRUCT *> >::_Emplace_reallocate<OBJECTSTRUCT * const &>
PUBLIC	??$?0$$V@?$_Compressed_pair@V?$allocator@PAVOBJECTSTRUCT@@@std@@V?$_Vector_val@U?$_Simple_types@PAVOBJECTSTRUCT@@@std@@@2@$00@std@@QAE@U_Zero_then_variadic_args_t@1@@Z ; std::_Compressed_pair<std::allocator<OBJECTSTRUCT *>,std::_Vector_val<std::_Simple_types<OBJECTSTRUCT *> >,1>::_Compressed_pair<std::allocator<OBJECTSTRUCT *>,std::_Vector_val<std::_Simple_types<OBJECTSTRUCT *> >,1><>
PUBLIC	??$_Destroy_range@V?$allocator@PAVOBJECTSTRUCT@@@std@@@std@@YAXPAPAVOBJECTSTRUCT@@QAPAV1@AAV?$allocator@PAVOBJECTSTRUCT@@@0@@Z ; std::_Destroy_range<std::allocator<OBJECTSTRUCT *> >
PUBLIC	??$_Adl_verify_range@V?$_Vector_iterator@V?$_Vector_val@U?$_Simple_types@PAVOBJECTSTRUCT@@@std@@@std@@@std@@V12@@std@@YAXABV?$_Vector_iterator@V?$_Vector_val@U?$_Simple_types@PAVOBJECTSTRUCT@@@std@@@std@@@0@0@Z ; std::_Adl_verify_range<std::_Vector_iterator<std::_Vector_val<std::_Simple_types<OBJECTSTRUCT *> > >,std::_Vector_iterator<std::_Vector_val<std::_Simple_types<OBJECTSTRUCT *> > > >
PUBLIC	??$_Get_unwrapped@ABV?$_Vector_iterator@V?$_Vector_val@U?$_Simple_types@PAVOBJECTSTRUCT@@@std@@@std@@@std@@@std@@YA@ABV?$_Vector_iterator@V?$_Vector_val@U?$_Simple_types@PAVOBJECTSTRUCT@@@std@@@std@@@0@@Z ; std::_Get_unwrapped<std::_Vector_iterator<std::_Vector_val<std::_Simple_types<OBJECTSTRUCT *> > > const &>
PUBLIC	??$_Pass_fn@P6A_NABQAVOBJECTSTRUCT@@0@Z$0A@@std@@YAP6A_NABQAVOBJECTSTRUCT@@0@ZP6A_N00@Z@Z ; std::_Pass_fn<bool (__cdecl*)(OBJECTSTRUCT * const &,OBJECTSTRUCT * const &),0>
PUBLIC	??$_Sort_unchecked@PAPAVOBJECTSTRUCT@@P6A_NABQAV1@0@Z@std@@YAXPAPAVOBJECTSTRUCT@@0HP6A_NABQAV1@1@Z@Z ; std::_Sort_unchecked<OBJECTSTRUCT * *,bool (__cdecl*)(OBJECTSTRUCT * const &,OBJECTSTRUCT * const &)>
PUBLIC	??$_Uninitialized_move@PAPAVOBJECTSTRUCT@@V?$allocator@PAVOBJECTSTRUCT@@@std@@@std@@YAPAPAVOBJECTSTRUCT@@QAPAV1@0PAPAV1@AAV?$allocator@PAVOBJECTSTRUCT@@@0@@Z ; std::_Uninitialized_move<OBJECTSTRUCT * *,std::allocator<OBJECTSTRUCT *> >
PUBLIC	??$_Insertion_sort_unchecked@PAPAVOBJECTSTRUCT@@P6A_NABQAV1@0@Z@std@@YAPAPAVOBJECTSTRUCT@@PAPAV1@QAPAV1@P6A_NABQAV1@2@Z@Z ; std::_Insertion_sort_unchecked<OBJECTSTRUCT * *,bool (__cdecl*)(OBJECTSTRUCT * const &,OBJECTSTRUCT * const &)>
PUBLIC	??$_Make_heap_unchecked@PAPAVOBJECTSTRUCT@@P6A_NABQAV1@0@Z@std@@YAXPAPAVOBJECTSTRUCT@@0P6A_NABQAV1@1@Z@Z ; std::_Make_heap_unchecked<OBJECTSTRUCT * *,bool (__cdecl*)(OBJECTSTRUCT * const &,OBJECTSTRUCT * const &)>
PUBLIC	??$_Sort_heap_unchecked@PAPAVOBJECTSTRUCT@@P6A_NABQAV1@0@Z@std@@YAXPAPAVOBJECTSTRUCT@@0P6A_NABQAV1@1@Z@Z ; std::_Sort_heap_unchecked<OBJECTSTRUCT * *,bool (__cdecl*)(OBJECTSTRUCT * const &,OBJECTSTRUCT * const &)>
PUBLIC	??$_Partition_by_median_guess_unchecked@PAPAVOBJECTSTRUCT@@P6A_NABQAV1@0@Z@std@@YA?AU?$pair@PAPAVOBJECTSTRUCT@@PAPAV1@@0@PAPAVOBJECTSTRUCT@@0P6A_NABQAV2@1@Z@Z ; std::_Partition_by_median_guess_unchecked<OBJECTSTRUCT * *,bool (__cdecl*)(OBJECTSTRUCT * const &,OBJECTSTRUCT * const &)>
PUBLIC	??$_Get_unwrapped@ABQAPAVOBJECTSTRUCT@@@std@@YA@ABQAPAVOBJECTSTRUCT@@@Z ; std::_Get_unwrapped<OBJECTSTRUCT * * const &>
PUBLIC	??$move@AAPAVOBJECTSTRUCT@@@std@@YA$$QAPAVOBJECTSTRUCT@@AAPAV1@@Z ; std::move<OBJECTSTRUCT * &>
PUBLIC	??$_Copy_memmove@PAPAVOBJECTSTRUCT@@PAPAV1@@std@@YAPAPAVOBJECTSTRUCT@@PAPAV1@00@Z ; std::_Copy_memmove<OBJECTSTRUCT * *,OBJECTSTRUCT * *>
PUBLIC	??$_Move_backward_unchecked@PAPAVOBJECTSTRUCT@@PAPAV1@@std@@YAPAPAVOBJECTSTRUCT@@PAPAV1@00@Z ; std::_Move_backward_unchecked<OBJECTSTRUCT * *,OBJECTSTRUCT * *>
PUBLIC	??$_Pop_heap_hole_by_index@PAPAVOBJECTSTRUCT@@PAV1@P6A_NABQAV1@0@Z@std@@YAXPAPAVOBJECTSTRUCT@@HH$$QAPAV1@P6A_NABQAV1@2@Z@Z ; std::_Pop_heap_hole_by_index<OBJECTSTRUCT * *,OBJECTSTRUCT *,bool (__cdecl*)(OBJECTSTRUCT * const &,OBJECTSTRUCT * const &)>
PUBLIC	??$_Pop_heap_unchecked@PAPAVOBJECTSTRUCT@@P6A_NABQAV1@0@Z@std@@YAXPAPAVOBJECTSTRUCT@@0P6A_NABQAV1@1@Z@Z ; std::_Pop_heap_unchecked<OBJECTSTRUCT * *,bool (__cdecl*)(OBJECTSTRUCT * const &,OBJECTSTRUCT * const &)>
PUBLIC	??$_Prev_iter@PAPAVOBJECTSTRUCT@@@std@@YAPAPAVOBJECTSTRUCT@@PAPAV1@@Z ; std::_Prev_iter<OBJECTSTRUCT * *>
PUBLIC	??$_Guess_median_unchecked@PAPAVOBJECTSTRUCT@@P6A_NABQAV1@0@Z@std@@YAXPAPAVOBJECTSTRUCT@@00P6A_NABQAV1@1@Z@Z ; std::_Guess_median_unchecked<OBJECTSTRUCT * *,bool (__cdecl*)(OBJECTSTRUCT * const &,OBJECTSTRUCT * const &)>
PUBLIC	??$_Next_iter@PAPAVOBJECTSTRUCT@@@std@@YAPAPAVOBJECTSTRUCT@@PAPAV1@@Z ; std::_Next_iter<OBJECTSTRUCT * *>
PUBLIC	??$iter_swap@PAPAVOBJECTSTRUCT@@PAPAV1@@std@@YAXPAPAVOBJECTSTRUCT@@0@Z ; std::iter_swap<OBJECTSTRUCT * *,OBJECTSTRUCT * *>
PUBLIC	??$?0AAPAPAVOBJECTSTRUCT@@AAPAPAV0@$0A@@?$pair@PAPAVOBJECTSTRUCT@@PAPAV1@@std@@QAE@AAPAPAVOBJECTSTRUCT@@0@Z ; std::pair<OBJECTSTRUCT * *,OBJECTSTRUCT * *>::pair<OBJECTSTRUCT * *,OBJECTSTRUCT * *><OBJECTSTRUCT * * &,OBJECTSTRUCT * * &,0>
PUBLIC	??$_Copy_backward_memmove@PAPAVOBJECTSTRUCT@@PAPAV1@@std@@YAPAPAVOBJECTSTRUCT@@PAPAV1@00@Z ; std::_Copy_backward_memmove<OBJECTSTRUCT * *,OBJECTSTRUCT * *>
PUBLIC	??$_Push_heap_by_index@PAPAVOBJECTSTRUCT@@PAV1@P6A_NABQAV1@0@Z@std@@YAXPAPAVOBJECTSTRUCT@@HH$$QAPAV1@P6A_NABQAV1@2@Z@Z ; std::_Push_heap_by_index<OBJECTSTRUCT * *,OBJECTSTRUCT *,bool (__cdecl*)(OBJECTSTRUCT * const &,OBJECTSTRUCT * const &)>
PUBLIC	??$_Pop_heap_hole_unchecked@PAPAVOBJECTSTRUCT@@PAV1@P6A_NABQAV1@0@Z@std@@YAXPAPAVOBJECTSTRUCT@@00$$QAPAV1@P6A_NABQAV1@2@Z@Z ; std::_Pop_heap_hole_unchecked<OBJECTSTRUCT * *,OBJECTSTRUCT *,bool (__cdecl*)(OBJECTSTRUCT * const &,OBJECTSTRUCT * const &)>
PUBLIC	??$_Med3_unchecked@PAPAVOBJECTSTRUCT@@P6A_NABQAV1@0@Z@std@@YAXPAPAVOBJECTSTRUCT@@00P6A_NABQAV1@1@Z@Z ; std::_Med3_unchecked<OBJECTSTRUCT * *,bool (__cdecl*)(OBJECTSTRUCT * const &,OBJECTSTRUCT * const &)>
PUBLIC	??$swap@PAVOBJECTSTRUCT@@$0A@@std@@YAXAAPAVOBJECTSTRUCT@@0@Z ; std::swap<OBJECTSTRUCT *,0>
PUBLIC	??$forward@AAPAPAVOBJECTSTRUCT@@@std@@YAAAPAPAVOBJECTSTRUCT@@AAPAPAV1@@Z ; std::forward<OBJECTSTRUCT * * &>
PUBLIC	??_7exception@std@@6B@				; std::exception::`vftable'
PUBLIC	??_C@_0BC@EOODALEL@Unknown?5exception@		; `string'
PUBLIC	??_7bad_alloc@std@@6B@				; std::bad_alloc::`vftable'
PUBLIC	??_7bad_array_new_length@std@@6B@		; std::bad_array_new_length::`vftable'
PUBLIC	??_C@_0BF@KINCDENJ@bad?5array?5new?5length@	; `string'
PUBLIC	__TI3?AVbad_array_new_length@std@@
PUBLIC	__CTA3?AVbad_array_new_length@std@@
PUBLIC	??_R0?AVbad_array_new_length@std@@@8		; std::bad_array_new_length `RTTI Type Descriptor'
PUBLIC	__CT??_R0?AVbad_array_new_length@std@@@8??0bad_array_new_length@std@@QAE@ABV01@@Z12
PUBLIC	??_R0?AVbad_alloc@std@@@8			; std::bad_alloc `RTTI Type Descriptor'
PUBLIC	__CT??_R0?AVbad_alloc@std@@@8??0bad_alloc@std@@QAE@ABV01@@Z12
PUBLIC	??_R0?AVexception@std@@@8			; std::exception `RTTI Type Descriptor'
PUBLIC	__CT??_R0?AVexception@std@@@8??0exception@std@@QAE@ABV01@@Z12
PUBLIC	??_R4exception@std@@6B@				; std::exception::`RTTI Complete Object Locator'
PUBLIC	??_R3exception@std@@8				; std::exception::`RTTI Class Hierarchy Descriptor'
PUBLIC	??_R2exception@std@@8				; std::exception::`RTTI Base Class Array'
PUBLIC	??_R1A@?0A@EA@exception@std@@8			; std::exception::`RTTI Base Class Descriptor at (0,-1,0,64)'
PUBLIC	??_R4bad_alloc@std@@6B@				; std::bad_alloc::`RTTI Complete Object Locator'
PUBLIC	??_R3bad_alloc@std@@8				; std::bad_alloc::`RTTI Class Hierarchy Descriptor'
PUBLIC	??_R2bad_alloc@std@@8				; std::bad_alloc::`RTTI Base Class Array'
PUBLIC	??_R1A@?0A@EA@bad_alloc@std@@8			; std::bad_alloc::`RTTI Base Class Descriptor at (0,-1,0,64)'
PUBLIC	??_R4bad_array_new_length@std@@6B@		; std::bad_array_new_length::`RTTI Complete Object Locator'
PUBLIC	??_R3bad_array_new_length@std@@8		; std::bad_array_new_length::`RTTI Class Hierarchy Descriptor'
PUBLIC	??_R2bad_array_new_length@std@@8		; std::bad_array_new_length::`RTTI Base Class Array'
PUBLIC	??_R1A@?0A@EA@bad_array_new_length@std@@8	; std::bad_array_new_length::`RTTI Base Class Descriptor at (0,-1,0,64)'
PUBLIC	??_7CDevilSquareGround@@6B@			; CDevilSquareGround::`vftable'
PUBLIC	??_C@_0CE@EDJNDEMF@?$FLDevilSquare?$FN?5Boss?5?$CFd?5?$CFd?5?$CFd?5cre@ ; `string'
PUBLIC	??_C@_0BI@NLONHAKI@?$FLDevilSquare?$FN?5Rank?5?$FL?$CFd?$FN@ ; `string'
PUBLIC	??_C@_0CC@JEAIPIFD@Rank?5?3?$FL?$CFd?$FN?5?3?5?$FL?$CFs?$FN?$FL?$CFs?$FN?$FL?$CFd?$FN?$FL?$CFd?$FN?$FL?$CF@ ; `string'
PUBLIC	??_C@_0BA@FOIKENOD@vector?5too?5long@		; `string'
PUBLIC	??_R4CDevilSquareGround@@6B@			; CDevilSquareGround::`RTTI Complete Object Locator'
PUBLIC	??_R0?AVCDevilSquareGround@@@8			; CDevilSquareGround `RTTI Type Descriptor'
PUBLIC	??_R3CDevilSquareGround@@8			; CDevilSquareGround::`RTTI Class Hierarchy Descriptor'
PUBLIC	??_R2CDevilSquareGround@@8			; CDevilSquareGround::`RTTI Base Class Array'
PUBLIC	??_R1A@?0A@EA@CDevilSquareGround@@8		; CDevilSquareGround::`RTTI Base Class Descriptor at (0,-1,0,64)'
PUBLIC	__real@42c80000
EXTRN	??2@YAPAXI@Z:PROC				; operator new
EXTRN	??3@YAXPAXI@Z:PROC				; operator delete
EXTRN	__invalid_parameter_noinfo_noreturn:PROC
EXTRN	_memcpy:PROC
EXTRN	_memmove:PROC
EXTRN	_memset:PROC
EXTRN	_rand:PROC
EXTRN	?_Xlength_error@std@@YAXPBD@Z:PROC		; std::_Xlength_error
EXTRN	___std_exception_copy:PROC
EXTRN	___std_exception_destroy:PROC
EXTRN	??_Eexception@std@@UAEPAXI@Z:PROC		; std::exception::`vector deleting destructor'
EXTRN	??_Ebad_alloc@std@@UAEPAXI@Z:PROC		; std::bad_alloc::`vector deleting destructor'
EXTRN	??_Ebad_array_new_length@std@@UAEPAXI@Z:PROC	; std::bad_array_new_length::`vector deleting destructor'
EXTRN	?DataSend@@YAHHPAEK@Z:PROC			; DataSend
EXTRN	?gObjAddMonster@@YAFH@Z:PROC			; gObjAddMonster
EXTRN	?gObjSetMonster@@YAHHH@Z:PROC			; gObjSetMonster
EXTRN	?gObjLevelUp@@YA_NPAVOBJECTSTRUCT@@HHH@Z:PROC	; gObjLevelUp
EXTRN	?gObjCheckMaxZen@@YAHHH@Z:PROC			; gObjCheckMaxZen
EXTRN	?GCKillPlayerExpSend@@YAXHHHHH@Z:PROC		; GCKillPlayerExpSend
EXTRN	?GCMoneySend@@YAXHK@Z:PROC			; GCMoneySend
EXTRN	?PHeadSetB@@YAXPAEEH@Z:PROC			; PHeadSetB
EXTRN	??_ECDevilSquareGround@@UAEPAXI@Z:PROC		; CDevilSquareGround::`vector deleting destructor'
EXTRN	?GetBoxPosition@CMonsterSetBase@@QAEHHHHHHAAF0@Z:PROC ; CMonsterSetBase::GetBoxPosition
EXTRN	?DataSendRank@@YAXPADH@Z:PROC			; DataSendRank
EXTRN	@__security_check_cookie@4:PROC
EXTRN	__CxxThrowException@8:PROC
EXTRN	___CxxFrameHandler3:PROC
EXTRN	??_7type_info@@6B@:QWORD			; type_info::`vftable'
EXTRN	?LogAddTD@@3P6AXPADZZA:DWORD			; LogAddTD
EXTRN	?gObj@@3PAVOBJECTSTRUCT@@A:DWORD		; gObj
EXTRN	?gGameServerCode@@3FA:WORD			; gGameServerCode
EXTRN	?gMSetBase@@3VCMonsterSetBase@@A:BYTE		; gMSetBase
EXTRN	___security_cookie:DWORD
EXTRN	__fltused:DWORD
;	COMDAT __real@42c80000
CONST	SEGMENT
__real@42c80000 DD 042c80000r			; 100
CONST	ENDS
;	COMDAT ??_R1A@?0A@EA@CDevilSquareGround@@8
rdata$r	SEGMENT
??_R1A@?0A@EA@CDevilSquareGround@@8 DD FLAT:??_R0?AVCDevilSquareGround@@@8 ; CDevilSquareGround::`RTTI Base Class Descriptor at (0,-1,0,64)'
	DD	00H
	DD	00H
	DD	0ffffffffH
	DD	00H
	DD	040H
	DD	FLAT:??_R3CDevilSquareGround@@8
rdata$r	ENDS
;	COMDAT ??_R2CDevilSquareGround@@8
rdata$r	SEGMENT
??_R2CDevilSquareGround@@8 DD FLAT:??_R1A@?0A@EA@CDevilSquareGround@@8 ; CDevilSquareGround::`RTTI Base Class Array'
rdata$r	ENDS
;	COMDAT ??_R3CDevilSquareGround@@8
rdata$r	SEGMENT
??_R3CDevilSquareGround@@8 DD 00H			; CDevilSquareGround::`RTTI Class Hierarchy Descriptor'
	DD	00H
	DD	01H
	DD	FLAT:??_R2CDevilSquareGround@@8
rdata$r	ENDS
;	COMDAT ??_R0?AVCDevilSquareGround@@@8
data$r	SEGMENT
??_R0?AVCDevilSquareGround@@@8 DD FLAT:??_7type_info@@6B@ ; CDevilSquareGround `RTTI Type Descriptor'
	DD	00H
	DB	'.?AVCDevilSquareGround@@', 00H
data$r	ENDS
;	COMDAT ??_R4CDevilSquareGround@@6B@
rdata$r	SEGMENT
??_R4CDevilSquareGround@@6B@ DD 00H			; CDevilSquareGround::`RTTI Complete Object Locator'
	DD	00H
	DD	00H
	DD	FLAT:??_R0?AVCDevilSquareGround@@@8
	DD	FLAT:??_R3CDevilSquareGround@@8
rdata$r	ENDS
;	COMDAT ??_C@_0BA@FOIKENOD@vector?5too?5long@
CONST	SEGMENT
??_C@_0BA@FOIKENOD@vector?5too?5long@ DB 'vector too long', 00H ; `string'
CONST	ENDS
;	COMDAT ??_C@_0CC@JEAIPIFD@Rank?5?3?$FL?$CFd?$FN?5?3?5?$FL?$CFs?$FN?$FL?$CFs?$FN?$FL?$CFd?$FN?$FL?$CFd?$FN?$FL?$CF@
CONST	SEGMENT
??_C@_0CC@JEAIPIFD@Rank?5?3?$FL?$CFd?$FN?5?3?5?$FL?$CFs?$FN?$FL?$CFs?$FN?$FL?$CFd?$FN?$FL?$CFd?$FN?$FL?$CF@ DB 'R'
	DB	'ank :[%d] : [%s][%s][%d][%d][%d]', 00H	; `string'
CONST	ENDS
;	COMDAT ??_C@_0BI@NLONHAKI@?$FLDevilSquare?$FN?5Rank?5?$FL?$CFd?$FN@
CONST	SEGMENT
??_C@_0BI@NLONHAKI@?$FLDevilSquare?$FN?5Rank?5?$FL?$CFd?$FN@ DB '[DevilSq'
	DB	'uare] Rank [%d]', 00H			; `string'
CONST	ENDS
;	COMDAT ??_C@_0CE@EDJNDEMF@?$FLDevilSquare?$FN?5Boss?5?$CFd?5?$CFd?5?$CFd?5cre@
CONST	SEGMENT
??_C@_0CE@EDJNDEMF@?$FLDevilSquare?$FN?5Boss?5?$CFd?5?$CFd?5?$CFd?5cre@ DB '['
	DB	'DevilSquare] Boss %d %d %d create ', 00H	; `string'
CONST	ENDS
;	COMDAT ??_7CDevilSquareGround@@6B@
CONST	SEGMENT
??_7CDevilSquareGround@@6B@ DD FLAT:??_R4CDevilSquareGround@@6B@ ; CDevilSquareGround::`vftable'
	DD	FLAT:??_ECDevilSquareGround@@UAEPAXI@Z
CONST	ENDS
;	COMDAT ??_R1A@?0A@EA@bad_array_new_length@std@@8
rdata$r	SEGMENT
??_R1A@?0A@EA@bad_array_new_length@std@@8 DD FLAT:??_R0?AVbad_array_new_length@std@@@8 ; std::bad_array_new_length::`RTTI Base Class Descriptor at (0,-1,0,64)'
	DD	02H
	DD	00H
	DD	0ffffffffH
	DD	00H
	DD	040H
	DD	FLAT:??_R3bad_array_new_length@std@@8
rdata$r	ENDS
;	COMDAT ??_R2bad_array_new_length@std@@8
rdata$r	SEGMENT
??_R2bad_array_new_length@std@@8 DD FLAT:??_R1A@?0A@EA@bad_array_new_length@std@@8 ; std::bad_array_new_length::`RTTI Base Class Array'
	DD	FLAT:??_R1A@?0A@EA@bad_alloc@std@@8
	DD	FLAT:??_R1A@?0A@EA@exception@std@@8
rdata$r	ENDS
;	COMDAT ??_R3bad_array_new_length@std@@8
rdata$r	SEGMENT
??_R3bad_array_new_length@std@@8 DD 00H			; std::bad_array_new_length::`RTTI Class Hierarchy Descriptor'
	DD	00H
	DD	03H
	DD	FLAT:??_R2bad_array_new_length@std@@8
rdata$r	ENDS
;	COMDAT ??_R4bad_array_new_length@std@@6B@
rdata$r	SEGMENT
??_R4bad_array_new_length@std@@6B@ DD 00H		; std::bad_array_new_length::`RTTI Complete Object Locator'
	DD	00H
	DD	00H
	DD	FLAT:??_R0?AVbad_array_new_length@std@@@8
	DD	FLAT:??_R3bad_array_new_length@std@@8
rdata$r	ENDS
;	COMDAT ??_R1A@?0A@EA@bad_alloc@std@@8
rdata$r	SEGMENT
??_R1A@?0A@EA@bad_alloc@std@@8 DD FLAT:??_R0?AVbad_alloc@std@@@8 ; std::bad_alloc::`RTTI Base Class Descriptor at (0,-1,0,64)'
	DD	01H
	DD	00H
	DD	0ffffffffH
	DD	00H
	DD	040H
	DD	FLAT:??_R3bad_alloc@std@@8
rdata$r	ENDS
;	COMDAT ??_R2bad_alloc@std@@8
rdata$r	SEGMENT
??_R2bad_alloc@std@@8 DD FLAT:??_R1A@?0A@EA@bad_alloc@std@@8 ; std::bad_alloc::`RTTI Base Class Array'
	DD	FLAT:??_R1A@?0A@EA@exception@std@@8
rdata$r	ENDS
;	COMDAT ??_R3bad_alloc@std@@8
rdata$r	SEGMENT
??_R3bad_alloc@std@@8 DD 00H				; std::bad_alloc::`RTTI Class Hierarchy Descriptor'
	DD	00H
	DD	02H
	DD	FLAT:??_R2bad_alloc@std@@8
rdata$r	ENDS
;	COMDAT ??_R4bad_alloc@std@@6B@
rdata$r	SEGMENT
??_R4bad_alloc@std@@6B@ DD 00H				; std::bad_alloc::`RTTI Complete Object Locator'
	DD	00H
	DD	00H
	DD	FLAT:??_R0?AVbad_alloc@std@@@8
	DD	FLAT:??_R3bad_alloc@std@@8
rdata$r	ENDS
;	COMDAT ??_R1A@?0A@EA@exception@std@@8
rdata$r	SEGMENT
??_R1A@?0A@EA@exception@std@@8 DD FLAT:??_R0?AVexception@std@@@8 ; std::exception::`RTTI Base Class Descriptor at (0,-1,0,64)'
	DD	00H
	DD	00H
	DD	0ffffffffH
	DD	00H
	DD	040H
	DD	FLAT:??_R3exception@std@@8
rdata$r	ENDS
;	COMDAT ??_R2exception@std@@8
rdata$r	SEGMENT
??_R2exception@std@@8 DD FLAT:??_R1A@?0A@EA@exception@std@@8 ; std::exception::`RTTI Base Class Array'
rdata$r	ENDS
;	COMDAT ??_R3exception@std@@8
rdata$r	SEGMENT
??_R3exception@std@@8 DD 00H				; std::exception::`RTTI Class Hierarchy Descriptor'
	DD	00H
	DD	01H
	DD	FLAT:??_R2exception@std@@8
rdata$r	ENDS
;	COMDAT ??_R4exception@std@@6B@
rdata$r	SEGMENT
??_R4exception@std@@6B@ DD 00H				; std::exception::`RTTI Complete Object Locator'
	DD	00H
	DD	00H
	DD	FLAT:??_R0?AVexception@std@@@8
	DD	FLAT:??_R3exception@std@@8
rdata$r	ENDS
;	COMDAT __CT??_R0?AVexception@std@@@8??0exception@std@@QAE@ABV01@@Z12
xdata$x	SEGMENT
__CT??_R0?AVexception@std@@@8??0exception@std@@QAE@ABV01@@Z12 DD 00H
	DD	FLAT:??_R0?AVexception@std@@@8
	DD	00H
	DD	0ffffffffH
	ORG $+4
	DD	0cH
	DD	FLAT:??0exception@std@@QAE@ABV01@@Z
xdata$x	ENDS
;	COMDAT ??_R0?AVexception@std@@@8
data$r	SEGMENT
??_R0?AVexception@std@@@8 DD FLAT:??_7type_info@@6B@	; std::exception `RTTI Type Descriptor'
	DD	00H
	DB	'.?AVexception@std@@', 00H
data$r	ENDS
;	COMDAT __CT??_R0?AVbad_alloc@std@@@8??0bad_alloc@std@@QAE@ABV01@@Z12
xdata$x	SEGMENT
__CT??_R0?AVbad_alloc@std@@@8??0bad_alloc@std@@QAE@ABV01@@Z12 DD 010H
	DD	FLAT:??_R0?AVbad_alloc@std@@@8
	DD	00H
	DD	0ffffffffH
	ORG $+4
	DD	0cH
	DD	FLAT:??0bad_alloc@std@@QAE@ABV01@@Z
xdata$x	ENDS
;	COMDAT ??_R0?AVbad_alloc@std@@@8
data$r	SEGMENT
??_R0?AVbad_alloc@std@@@8 DD FLAT:??_7type_info@@6B@	; std::bad_alloc `RTTI Type Descriptor'
	DD	00H
	DB	'.?AVbad_alloc@std@@', 00H
data$r	ENDS
;	COMDAT __CT??_R0?AVbad_array_new_length@std@@@8??0bad_array_new_length@std@@QAE@ABV01@@Z12
xdata$x	SEGMENT
__CT??_R0?AVbad_array_new_length@std@@@8??0bad_array_new_length@std@@QAE@ABV01@@Z12 DD 00H
	DD	FLAT:??_R0?AVbad_array_new_length@std@@@8
	DD	00H
	DD	0ffffffffH
	ORG $+4
	DD	0cH
	DD	FLAT:??0bad_array_new_length@std@@QAE@ABV01@@Z
xdata$x	ENDS
;	COMDAT ??_R0?AVbad_array_new_length@std@@@8
data$r	SEGMENT
??_R0?AVbad_array_new_length@std@@@8 DD FLAT:??_7type_info@@6B@ ; std::bad_array_new_length `RTTI Type Descriptor'
	DD	00H
	DB	'.?AVbad_array_new_length@std@@', 00H
data$r	ENDS
;	COMDAT __CTA3?AVbad_array_new_length@std@@
xdata$x	SEGMENT
__CTA3?AVbad_array_new_length@std@@ DD 03H
	DD	FLAT:__CT??_R0?AVbad_array_new_length@std@@@8??0bad_array_new_length@std@@QAE@ABV01@@Z12
	DD	FLAT:__CT??_R0?AVbad_alloc@std@@@8??0bad_alloc@std@@QAE@ABV01@@Z12
	DD	FLAT:__CT??_R0?AVexception@std@@@8??0exception@std@@QAE@ABV01@@Z12
xdata$x	ENDS
;	COMDAT __TI3?AVbad_array_new_length@std@@
xdata$x	SEGMENT
__TI3?AVbad_array_new_length@std@@ DD 00H
	DD	FLAT:??1bad_array_new_length@std@@UAE@XZ
	DD	00H
	DD	FLAT:__CTA3?AVbad_array_new_length@std@@
xdata$x	ENDS
;	COMDAT ??_C@_0BF@KINCDENJ@bad?5array?5new?5length@
CONST	SEGMENT
??_C@_0BF@KINCDENJ@bad?5array?5new?5length@ DB 'bad array new length', 00H ; `string'
CONST	ENDS
;	COMDAT ??_7bad_array_new_length@std@@6B@
CONST	SEGMENT
??_7bad_array_new_length@std@@6B@ DD FLAT:??_R4bad_array_new_length@std@@6B@ ; std::bad_array_new_length::`vftable'
	DD	FLAT:??_Ebad_array_new_length@std@@UAEPAXI@Z
	DD	FLAT:?what@exception@std@@UBEPBDXZ
CONST	ENDS
;	COMDAT ??_7bad_alloc@std@@6B@
CONST	SEGMENT
??_7bad_alloc@std@@6B@ DD FLAT:??_R4bad_alloc@std@@6B@	; std::bad_alloc::`vftable'
	DD	FLAT:??_Ebad_alloc@std@@UAEPAXI@Z
	DD	FLAT:?what@exception@std@@UBEPBDXZ
CONST	ENDS
;	COMDAT ??_C@_0BC@EOODALEL@Unknown?5exception@
CONST	SEGMENT
??_C@_0BC@EOODALEL@Unknown?5exception@ DB 'Unknown exception', 00H ; `string'
CONST	ENDS
;	COMDAT ??_7exception@std@@6B@
CONST	SEGMENT
??_7exception@std@@6B@ DD FLAT:??_R4exception@std@@6B@	; std::exception::`vftable'
	DD	FLAT:??_Eexception@std@@UAEPAXI@Z
	DD	FLAT:?what@exception@std@@UBEPBDXZ
CONST	ENDS
;	COMDAT xdata$x
xdata$x	SEGMENT
__catchsym$??$_Emplace_reallocate@ABQAVOBJECTSTRUCT@@@?$vector@PAVOBJECTSTRUCT@@V?$allocator@PAVOBJECTSTRUCT@@@std@@@std@@QAEPAPAVOBJECTSTRUCT@@QAPAV2@ABQAV2@@Z$2 DD 040H
	DD	00H
	DD	00H
	DD	FLAT:__catch$??$_Emplace_reallocate@ABQAVOBJECTSTRUCT@@@?$vector@PAVOBJECTSTRUCT@@V?$allocator@PAVOBJECTSTRUCT@@@std@@@std@@QAEPAPAVOBJECTSTRUCT@@QAPAV2@ABQAV2@@Z$0
__unwindtable$??$_Emplace_reallocate@ABQAVOBJECTSTRUCT@@@?$vector@PAVOBJECTSTRUCT@@V?$allocator@PAVOBJECTSTRUCT@@@std@@@std@@QAEPAPAVOBJECTSTRUCT@@QAPAV2@ABQAV2@@Z DD 0ffffffffH
	DD	00H
	DD	0ffffffffH
	DD	00H
__tryblocktable$??$_Emplace_reallocate@ABQAVOBJECTSTRUCT@@@?$vector@PAVOBJECTSTRUCT@@V?$allocator@PAVOBJECTSTRUCT@@@std@@@std@@QAEPAPAVOBJECTSTRUCT@@QAPAV2@ABQAV2@@Z DD 00H
	DD	00H
	DD	01H
	DD	01H
	DD	FLAT:__catchsym$??$_Emplace_reallocate@ABQAVOBJECTSTRUCT@@@?$vector@PAVOBJECTSTRUCT@@V?$allocator@PAVOBJECTSTRUCT@@@std@@@std@@QAEPAPAVOBJECTSTRUCT@@QAPAV2@ABQAV2@@Z$2
__ehfuncinfo$??$_Emplace_reallocate@ABQAVOBJECTSTRUCT@@@?$vector@PAVOBJECTSTRUCT@@V?$allocator@PAVOBJECTSTRUCT@@@std@@@std@@QAEPAPAVOBJECTSTRUCT@@QAPAV2@ABQAV2@@Z DD 019930522H
	DD	02H
	DD	FLAT:__unwindtable$??$_Emplace_reallocate@ABQAVOBJECTSTRUCT@@@?$vector@PAVOBJECTSTRUCT@@V?$allocator@PAVOBJECTSTRUCT@@@std@@@std@@QAEPAPAVOBJECTSTRUCT@@QAPAV2@ABQAV2@@Z
	DD	01H
	DD	FLAT:__tryblocktable$??$_Emplace_reallocate@ABQAVOBJECTSTRUCT@@@?$vector@PAVOBJECTSTRUCT@@V?$allocator@PAVOBJECTSTRUCT@@@std@@@std@@QAEPAPAVOBJECTSTRUCT@@QAPAV2@ABQAV2@@Z
	DD	2 DUP(00H)
	DD	00H
	DD	01H
xdata$x	ENDS
;	COMDAT xdata$x
xdata$x	SEGMENT
__unwindtable$??0CDevilSquareGround@@QAE@XZ DD 0ffffffffH
	DD	FLAT:__unwindfunclet$??0CDevilSquareGround@@QAE@XZ$0
__ehfuncinfo$??0CDevilSquareGround@@QAE@XZ DD 019930522H
	DD	01H
	DD	FLAT:__unwindtable$??0CDevilSquareGround@@QAE@XZ
	DD	2 DUP(00H)
	DD	2 DUP(00H)
	DD	00H
	DD	01H
xdata$x	ENDS
;	COMDAT xdata$x
xdata$x	SEGMENT
__ehfuncinfo$?_Tidy@?$vector@PAVOBJECTSTRUCT@@V?$allocator@PAVOBJECTSTRUCT@@@std@@@std@@AAEXXZ DD 019930522H
	DD	00H
	DD	00H
	DD	2 DUP(00H)
	DD	2 DUP(00H)
	DD	00H
	DD	05H
xdata$x	ENDS
;	COMDAT xdata$x
xdata$x	SEGMENT
__ehfuncinfo$?clear@?$vector@PAVOBJECTSTRUCT@@V?$allocator@PAVOBJECTSTRUCT@@@std@@@std@@QAEXXZ DD 019930522H
	DD	00H
	DD	00H
	DD	2 DUP(00H)
	DD	2 DUP(00H)
	DD	00H
	DD	05H
xdata$x	ENDS
;	COMDAT xdata$x
xdata$x	SEGMENT
__ehfuncinfo$??$_Deallocate@$07$0A@@std@@YAXPAXI@Z DD 019930522H
	DD	00H
	DD	00H
	DD	2 DUP(00H)
	DD	2 DUP(00H)
	DD	00H
	DD	05H
xdata$x	ENDS
; Function compile flags: /Odtp /ZI
; File C:\Program Files (x86)\Microsoft Visual Studio\2019\Community\VC\Tools\MSVC\14.27.29110\include\type_traits
;	COMDAT ??$forward@AAPAPAVOBJECTSTRUCT@@@std@@YAAAPAPAVOBJECTSTRUCT@@AAPAPAV1@@Z
_TEXT	SEGMENT
__Arg$ = 8						; size = 4
??$forward@AAPAPAVOBJECTSTRUCT@@@std@@YAAAPAPAVOBJECTSTRUCT@@AAPAPAV1@@Z PROC ; std::forward<OBJECTSTRUCT * * &>, COMDAT

; 1454 :     remove_reference_t<_Ty>& _Arg) noexcept { // forward an lvalue as either an lvalue or an rvalue

  00000	55		 push	 ebp
  00001	8b ec		 mov	 ebp, esp
  00003	83 ec 40	 sub	 esp, 64			; 00000040H
  00006	53		 push	 ebx
  00007	56		 push	 esi
  00008	57		 push	 edi

; 1455 :     return static_cast<_Ty&&>(_Arg);

  00009	8b 45 08	 mov	 eax, DWORD PTR __Arg$[ebp]

; 1456 : }

  0000c	5f		 pop	 edi
  0000d	5e		 pop	 esi
  0000e	5b		 pop	 ebx
  0000f	8b e5		 mov	 esp, ebp
  00011	5d		 pop	 ebp
  00012	c3		 ret	 0
??$forward@AAPAPAVOBJECTSTRUCT@@@std@@YAAAPAPAVOBJECTSTRUCT@@AAPAPAV1@@Z ENDP ; std::forward<OBJECTSTRUCT * * &>
_TEXT	ENDS
; Function compile flags: /Odtp /ZI
; File C:\Program Files (x86)\Microsoft Visual Studio\2019\Community\VC\Tools\MSVC\14.27.29110\include\utility
;	COMDAT ??$swap@PAVOBJECTSTRUCT@@$0A@@std@@YAXAAPAVOBJECTSTRUCT@@0@Z
_TEXT	SEGMENT
__Tmp$ = -4						; size = 4
__Left$ = 8						; size = 4
__Right$ = 12						; size = 4
??$swap@PAVOBJECTSTRUCT@@$0A@@std@@YAXAAPAVOBJECTSTRUCT@@0@Z PROC ; std::swap<OBJECTSTRUCT *,0>, COMDAT

; 105  :     is_nothrow_move_constructible_v<_Ty>&& is_nothrow_move_assignable_v<_Ty>) {

  00000	55		 push	 ebp
  00001	8b ec		 mov	 ebp, esp
  00003	83 ec 44	 sub	 esp, 68			; 00000044H
  00006	53		 push	 ebx
  00007	56		 push	 esi
  00008	57		 push	 edi

; 106  :     _Ty _Tmp = _STD move(_Left);

  00009	8b 45 08	 mov	 eax, DWORD PTR __Left$[ebp]
  0000c	50		 push	 eax
  0000d	e8 00 00 00 00	 call	 ??$move@AAPAVOBJECTSTRUCT@@@std@@YA$$QAPAVOBJECTSTRUCT@@AAPAV1@@Z ; std::move<OBJECTSTRUCT * &>
  00012	83 c4 04	 add	 esp, 4
  00015	8b 08		 mov	 ecx, DWORD PTR [eax]
  00017	89 4d fc	 mov	 DWORD PTR __Tmp$[ebp], ecx

; 107  :     _Left    = _STD move(_Right);

  0001a	8b 45 0c	 mov	 eax, DWORD PTR __Right$[ebp]
  0001d	50		 push	 eax
  0001e	e8 00 00 00 00	 call	 ??$move@AAPAVOBJECTSTRUCT@@@std@@YA$$QAPAVOBJECTSTRUCT@@AAPAV1@@Z ; std::move<OBJECTSTRUCT * &>
  00023	83 c4 04	 add	 esp, 4
  00026	8b 4d 08	 mov	 ecx, DWORD PTR __Left$[ebp]
  00029	8b 10		 mov	 edx, DWORD PTR [eax]
  0002b	89 11		 mov	 DWORD PTR [ecx], edx

; 108  :     _Right   = _STD move(_Tmp);

  0002d	8d 45 fc	 lea	 eax, DWORD PTR __Tmp$[ebp]
  00030	50		 push	 eax
  00031	e8 00 00 00 00	 call	 ??$move@AAPAVOBJECTSTRUCT@@@std@@YA$$QAPAVOBJECTSTRUCT@@AAPAV1@@Z ; std::move<OBJECTSTRUCT * &>
  00036	83 c4 04	 add	 esp, 4
  00039	8b 4d 0c	 mov	 ecx, DWORD PTR __Right$[ebp]
  0003c	8b 10		 mov	 edx, DWORD PTR [eax]
  0003e	89 11		 mov	 DWORD PTR [ecx], edx

; 109  : }

  00040	5f		 pop	 edi
  00041	5e		 pop	 esi
  00042	5b		 pop	 ebx
  00043	8b e5		 mov	 esp, ebp
  00045	5d		 pop	 ebp
  00046	c3		 ret	 0
??$swap@PAVOBJECTSTRUCT@@$0A@@std@@YAXAAPAVOBJECTSTRUCT@@0@Z ENDP ; std::swap<OBJECTSTRUCT *,0>
_TEXT	ENDS
; Function compile flags: /Odtp /ZI
; File C:\Program Files (x86)\Microsoft Visual Studio\2019\Community\VC\Tools\MSVC\14.27.29110\include\algorithm
;	COMDAT ??$_Med3_unchecked@PAPAVOBJECTSTRUCT@@P6A_NABQAV1@0@Z@std@@YAXPAPAVOBJECTSTRUCT@@00P6A_NABQAV1@1@Z@Z
_TEXT	SEGMENT
__First$ = 8						; size = 4
__Mid$ = 12						; size = 4
__Last$ = 16						; size = 4
__Pred$ = 20						; size = 4
??$_Med3_unchecked@PAPAVOBJECTSTRUCT@@P6A_NABQAV1@0@Z@std@@YAXPAPAVOBJECTSTRUCT@@00P6A_NABQAV1@1@Z@Z PROC ; std::_Med3_unchecked<OBJECTSTRUCT * *,bool (__cdecl*)(OBJECTSTRUCT * const &,OBJECTSTRUCT * const &)>, COMDAT

; 4003 : _CONSTEXPR20 void _Med3_unchecked(_RanIt _First, _RanIt _Mid, _RanIt _Last, _Pr _Pred) {

  00000	55		 push	 ebp
  00001	8b ec		 mov	 ebp, esp
  00003	83 ec 40	 sub	 esp, 64			; 00000040H
  00006	53		 push	 ebx
  00007	56		 push	 esi
  00008	57		 push	 edi

; 4004 :     // sort median of three elements to middle
; 4005 :     if (_DEBUG_LT_PRED(_Pred, *_Mid, *_First)) {

  00009	8b 45 08	 mov	 eax, DWORD PTR __First$[ebp]
  0000c	50		 push	 eax
  0000d	8b 4d 0c	 mov	 ecx, DWORD PTR __Mid$[ebp]
  00010	51		 push	 ecx
  00011	ff 55 14	 call	 DWORD PTR __Pred$[ebp]
  00014	83 c4 08	 add	 esp, 8
  00017	0f b6 d0	 movzx	 edx, al
  0001a	85 d2		 test	 edx, edx
  0001c	74 10		 je	 SHORT $LN2@Med3_unche

; 4006 :         _STD iter_swap(_Mid, _First);

  0001e	8b 45 08	 mov	 eax, DWORD PTR __First$[ebp]
  00021	50		 push	 eax
  00022	8b 4d 0c	 mov	 ecx, DWORD PTR __Mid$[ebp]
  00025	51		 push	 ecx
  00026	e8 00 00 00 00	 call	 ??$iter_swap@PAPAVOBJECTSTRUCT@@PAPAV1@@std@@YAXPAPAVOBJECTSTRUCT@@0@Z ; std::iter_swap<OBJECTSTRUCT * *,OBJECTSTRUCT * *>
  0002b	83 c4 08	 add	 esp, 8
$LN2@Med3_unche:

; 4007 :     }
; 4008 : 
; 4009 :     if (_DEBUG_LT_PRED(_Pred, *_Last, *_Mid)) { // swap middle and last, then test first again

  0002e	8b 45 0c	 mov	 eax, DWORD PTR __Mid$[ebp]
  00031	50		 push	 eax
  00032	8b 4d 10	 mov	 ecx, DWORD PTR __Last$[ebp]
  00035	51		 push	 ecx
  00036	ff 55 14	 call	 DWORD PTR __Pred$[ebp]
  00039	83 c4 08	 add	 esp, 8
  0003c	0f b6 d0	 movzx	 edx, al
  0003f	85 d2		 test	 edx, edx
  00041	74 35		 je	 SHORT $LN1@Med3_unche

; 4010 :         _STD iter_swap(_Last, _Mid);

  00043	8b 45 0c	 mov	 eax, DWORD PTR __Mid$[ebp]
  00046	50		 push	 eax
  00047	8b 4d 10	 mov	 ecx, DWORD PTR __Last$[ebp]
  0004a	51		 push	 ecx
  0004b	e8 00 00 00 00	 call	 ??$iter_swap@PAPAVOBJECTSTRUCT@@PAPAV1@@std@@YAXPAPAVOBJECTSTRUCT@@0@Z ; std::iter_swap<OBJECTSTRUCT * *,OBJECTSTRUCT * *>
  00050	83 c4 08	 add	 esp, 8

; 4011 : 
; 4012 :         if (_DEBUG_LT_PRED(_Pred, *_Mid, *_First)) {

  00053	8b 45 08	 mov	 eax, DWORD PTR __First$[ebp]
  00056	50		 push	 eax
  00057	8b 4d 0c	 mov	 ecx, DWORD PTR __Mid$[ebp]
  0005a	51		 push	 ecx
  0005b	ff 55 14	 call	 DWORD PTR __Pred$[ebp]
  0005e	83 c4 08	 add	 esp, 8
  00061	0f b6 d0	 movzx	 edx, al
  00064	85 d2		 test	 edx, edx
  00066	74 10		 je	 SHORT $LN1@Med3_unche

; 4013 :             _STD iter_swap(_Mid, _First);

  00068	8b 45 08	 mov	 eax, DWORD PTR __First$[ebp]
  0006b	50		 push	 eax
  0006c	8b 4d 0c	 mov	 ecx, DWORD PTR __Mid$[ebp]
  0006f	51		 push	 ecx
  00070	e8 00 00 00 00	 call	 ??$iter_swap@PAPAVOBJECTSTRUCT@@PAPAV1@@std@@YAXPAPAVOBJECTSTRUCT@@0@Z ; std::iter_swap<OBJECTSTRUCT * *,OBJECTSTRUCT * *>
  00075	83 c4 08	 add	 esp, 8
$LN1@Med3_unche:

; 4014 :         }
; 4015 :     }
; 4016 : }

  00078	5f		 pop	 edi
  00079	5e		 pop	 esi
  0007a	5b		 pop	 ebx
  0007b	8b e5		 mov	 esp, ebp
  0007d	5d		 pop	 ebp
  0007e	c3		 ret	 0
??$_Med3_unchecked@PAPAVOBJECTSTRUCT@@P6A_NABQAV1@0@Z@std@@YAXPAPAVOBJECTSTRUCT@@00P6A_NABQAV1@1@Z@Z ENDP ; std::_Med3_unchecked<OBJECTSTRUCT * *,bool (__cdecl*)(OBJECTSTRUCT * const &,OBJECTSTRUCT * const &)>
_TEXT	ENDS
; Function compile flags: /Odtp /ZI
; File C:\Program Files (x86)\Microsoft Visual Studio\2019\Community\VC\Tools\MSVC\14.27.29110\include\algorithm
;	COMDAT ??$_Pop_heap_hole_unchecked@PAPAVOBJECTSTRUCT@@PAV1@P6A_NABQAV1@0@Z@std@@YAXPAPAVOBJECTSTRUCT@@00$$QAPAV1@P6A_NABQAV1@2@Z@Z
_TEXT	SEGMENT
__First$ = 8						; size = 4
__Last$ = 12						; size = 4
__Dest$ = 16						; size = 4
__Val$ = 20						; size = 4
__Pred$ = 24						; size = 4
??$_Pop_heap_hole_unchecked@PAPAVOBJECTSTRUCT@@PAV1@P6A_NABQAV1@0@Z@std@@YAXPAPAVOBJECTSTRUCT@@00$$QAPAV1@P6A_NABQAV1@2@Z@Z PROC ; std::_Pop_heap_hole_unchecked<OBJECTSTRUCT * *,OBJECTSTRUCT *,bool (__cdecl*)(OBJECTSTRUCT * const &,OBJECTSTRUCT * const &)>, COMDAT

; 3382 : _CONSTEXPR20 void _Pop_heap_hole_unchecked(_RanIt _First, _RanIt _Last, _RanIt _Dest, _Ty&& _Val, _Pr _Pred) {

  00000	55		 push	 ebp
  00001	8b ec		 mov	 ebp, esp
  00003	83 ec 40	 sub	 esp, 64			; 00000040H
  00006	53		 push	 ebx
  00007	56		 push	 esi
  00008	57		 push	 edi

; 3383 :     // pop *_First to *_Dest and reheap, using _Pred
; 3384 :     // precondition: _First != _Last
; 3385 :     // precondition: _First != _Dest
; 3386 :     *_Dest      = _STD move(*_First);

  00009	8b 45 08	 mov	 eax, DWORD PTR __First$[ebp]
  0000c	50		 push	 eax
  0000d	e8 00 00 00 00	 call	 ??$move@AAPAVOBJECTSTRUCT@@@std@@YA$$QAPAVOBJECTSTRUCT@@AAPAV1@@Z ; std::move<OBJECTSTRUCT * &>
  00012	83 c4 04	 add	 esp, 4
  00015	8b 4d 10	 mov	 ecx, DWORD PTR __Dest$[ebp]
  00018	8b 10		 mov	 edx, DWORD PTR [eax]
  0001a	89 11		 mov	 DWORD PTR [ecx], edx

; 3387 :     using _Diff = _Iter_diff_t<_RanIt>;
; 3388 :     _Pop_heap_hole_by_index(_First, static_cast<_Diff>(0), static_cast<_Diff>(_Last - _First), _STD move(_Val), _Pred);

  0001c	8b 45 18	 mov	 eax, DWORD PTR __Pred$[ebp]
  0001f	50		 push	 eax
  00020	8b 4d 14	 mov	 ecx, DWORD PTR __Val$[ebp]
  00023	51		 push	 ecx
  00024	e8 00 00 00 00	 call	 ??$move@AAPAVOBJECTSTRUCT@@@std@@YA$$QAPAVOBJECTSTRUCT@@AAPAV1@@Z ; std::move<OBJECTSTRUCT * &>
  00029	83 c4 04	 add	 esp, 4
  0002c	50		 push	 eax
  0002d	8b 55 0c	 mov	 edx, DWORD PTR __Last$[ebp]
  00030	2b 55 08	 sub	 edx, DWORD PTR __First$[ebp]
  00033	c1 fa 02	 sar	 edx, 2
  00036	52		 push	 edx
  00037	6a 00		 push	 0
  00039	8b 45 08	 mov	 eax, DWORD PTR __First$[ebp]
  0003c	50		 push	 eax
  0003d	e8 00 00 00 00	 call	 ??$_Pop_heap_hole_by_index@PAPAVOBJECTSTRUCT@@PAV1@P6A_NABQAV1@0@Z@std@@YAXPAPAVOBJECTSTRUCT@@HH$$QAPAV1@P6A_NABQAV1@2@Z@Z ; std::_Pop_heap_hole_by_index<OBJECTSTRUCT * *,OBJECTSTRUCT *,bool (__cdecl*)(OBJECTSTRUCT * const &,OBJECTSTRUCT * const &)>
  00042	83 c4 14	 add	 esp, 20			; 00000014H

; 3389 : }

  00045	5f		 pop	 edi
  00046	5e		 pop	 esi
  00047	5b		 pop	 ebx
  00048	8b e5		 mov	 esp, ebp
  0004a	5d		 pop	 ebp
  0004b	c3		 ret	 0
??$_Pop_heap_hole_unchecked@PAPAVOBJECTSTRUCT@@PAV1@P6A_NABQAV1@0@Z@std@@YAXPAPAVOBJECTSTRUCT@@00$$QAPAV1@P6A_NABQAV1@2@Z@Z ENDP ; std::_Pop_heap_hole_unchecked<OBJECTSTRUCT * *,OBJECTSTRUCT *,bool (__cdecl*)(OBJECTSTRUCT * const &,OBJECTSTRUCT * const &)>
_TEXT	ENDS
; Function compile flags: /Odtp /ZI
; File C:\Program Files (x86)\Microsoft Visual Studio\2019\Community\VC\Tools\MSVC\14.27.29110\include\algorithm
;	COMDAT ??$_Push_heap_by_index@PAPAVOBJECTSTRUCT@@PAV1@P6A_NABQAV1@0@Z@std@@YAXPAPAVOBJECTSTRUCT@@HH$$QAPAV1@P6A_NABQAV1@2@Z@Z
_TEXT	SEGMENT
__Idx$1 = -4						; size = 4
__First$ = 8						; size = 4
__Hole$ = 12						; size = 4
__Top$ = 16						; size = 4
__Val$ = 20						; size = 4
__Pred$ = 24						; size = 4
??$_Push_heap_by_index@PAPAVOBJECTSTRUCT@@PAV1@P6A_NABQAV1@0@Z@std@@YAXPAPAVOBJECTSTRUCT@@HH$$QAPAV1@P6A_NABQAV1@2@Z@Z PROC ; std::_Push_heap_by_index<OBJECTSTRUCT * *,OBJECTSTRUCT *,bool (__cdecl*)(OBJECTSTRUCT * const &,OBJECTSTRUCT * const &)>, COMDAT

; 3317 :     _RanIt _First, _Iter_diff_t<_RanIt> _Hole, _Iter_diff_t<_RanIt> _Top, _Ty&& _Val, _Pr _Pred) {

  00000	55		 push	 ebp
  00001	8b ec		 mov	 ebp, esp
  00003	83 ec 44	 sub	 esp, 68			; 00000044H
  00006	53		 push	 ebx
  00007	56		 push	 esi
  00008	57		 push	 edi

; 3318 :     // percolate _Hole to _Top or where _Val belongs, using _Pred
; 3319 :     using _Diff = _Iter_diff_t<_RanIt>;
; 3320 :     for (_Diff _Idx = (_Hole - 1) >> 1; // shift for codegen

  00009	8b 45 0c	 mov	 eax, DWORD PTR __Hole$[ebp]
  0000c	83 e8 01	 sub	 eax, 1
  0000f	d1 f8		 sar	 eax, 1
  00011	89 45 fc	 mov	 DWORD PTR __Idx$1[ebp], eax
  00014	eb 0b		 jmp	 SHORT $LN4@Push_heap_
$LN2@Push_heap_:

; 3322 :          _Idx = (_Hole - 1) >> 1) { // shift for codegen

  00016	8b 45 0c	 mov	 eax, DWORD PTR __Hole$[ebp]
  00019	83 e8 01	 sub	 eax, 1
  0001c	d1 f8		 sar	 eax, 1
  0001e	89 45 fc	 mov	 DWORD PTR __Idx$1[ebp], eax
$LN4@Push_heap_:

; 3321 :          _Top < _Hole && _DEBUG_LT_PRED(_Pred, *(_First + _Idx), _Val); //

  00021	8b 45 10	 mov	 eax, DWORD PTR __Top$[ebp]
  00024	3b 45 0c	 cmp	 eax, DWORD PTR __Hole$[ebp]
  00027	7d 40		 jge	 SHORT $LN3@Push_heap_
  00029	8b 45 14	 mov	 eax, DWORD PTR __Val$[ebp]
  0002c	50		 push	 eax
  0002d	8b 4d fc	 mov	 ecx, DWORD PTR __Idx$1[ebp]
  00030	8b 55 08	 mov	 edx, DWORD PTR __First$[ebp]
  00033	8d 04 8a	 lea	 eax, DWORD PTR [edx+ecx*4]
  00036	50		 push	 eax
  00037	ff 55 18	 call	 DWORD PTR __Pred$[ebp]
  0003a	83 c4 08	 add	 esp, 8
  0003d	0f b6 c8	 movzx	 ecx, al
  00040	85 c9		 test	 ecx, ecx
  00042	74 25		 je	 SHORT $LN3@Push_heap_

; 3323 :         // move _Hole up to parent
; 3324 :         *(_First + _Hole) = _STD move(*(_First + _Idx));

  00044	8b 45 fc	 mov	 eax, DWORD PTR __Idx$1[ebp]
  00047	8b 4d 08	 mov	 ecx, DWORD PTR __First$[ebp]
  0004a	8d 14 81	 lea	 edx, DWORD PTR [ecx+eax*4]
  0004d	52		 push	 edx
  0004e	e8 00 00 00 00	 call	 ??$move@AAPAVOBJECTSTRUCT@@@std@@YA$$QAPAVOBJECTSTRUCT@@AAPAV1@@Z ; std::move<OBJECTSTRUCT * &>
  00053	83 c4 04	 add	 esp, 4
  00056	8b 4d 0c	 mov	 ecx, DWORD PTR __Hole$[ebp]
  00059	8b 55 08	 mov	 edx, DWORD PTR __First$[ebp]
  0005c	8b 00		 mov	 eax, DWORD PTR [eax]
  0005e	89 04 8a	 mov	 DWORD PTR [edx+ecx*4], eax

; 3325 :         _Hole             = _Idx;

  00061	8b 45 fc	 mov	 eax, DWORD PTR __Idx$1[ebp]
  00064	89 45 0c	 mov	 DWORD PTR __Hole$[ebp], eax

; 3326 :     }

  00067	eb ad		 jmp	 SHORT $LN2@Push_heap_
$LN3@Push_heap_:

; 3327 : 
; 3328 :     *(_First + _Hole) = _STD move(_Val); // drop _Val into final hole

  00069	8b 45 14	 mov	 eax, DWORD PTR __Val$[ebp]
  0006c	50		 push	 eax
  0006d	e8 00 00 00 00	 call	 ??$move@AAPAVOBJECTSTRUCT@@@std@@YA$$QAPAVOBJECTSTRUCT@@AAPAV1@@Z ; std::move<OBJECTSTRUCT * &>
  00072	83 c4 04	 add	 esp, 4
  00075	8b 4d 0c	 mov	 ecx, DWORD PTR __Hole$[ebp]
  00078	8b 55 08	 mov	 edx, DWORD PTR __First$[ebp]
  0007b	8b 00		 mov	 eax, DWORD PTR [eax]
  0007d	89 04 8a	 mov	 DWORD PTR [edx+ecx*4], eax

; 3329 : }

  00080	5f		 pop	 edi
  00081	5e		 pop	 esi
  00082	5b		 pop	 ebx
  00083	8b e5		 mov	 esp, ebp
  00085	5d		 pop	 ebp
  00086	c3		 ret	 0
??$_Push_heap_by_index@PAPAVOBJECTSTRUCT@@PAV1@P6A_NABQAV1@0@Z@std@@YAXPAPAVOBJECTSTRUCT@@HH$$QAPAV1@P6A_NABQAV1@2@Z@Z ENDP ; std::_Push_heap_by_index<OBJECTSTRUCT * *,OBJECTSTRUCT *,bool (__cdecl*)(OBJECTSTRUCT * const &,OBJECTSTRUCT * const &)>
_TEXT	ENDS
; Function compile flags: /Odtp /ZI
; File C:\Program Files (x86)\Microsoft Visual Studio\2019\Community\VC\Tools\MSVC\14.27.29110\include\xutility
;	COMDAT ??$_Copy_backward_memmove@PAPAVOBJECTSTRUCT@@PAPAV1@@std@@YAPAPAVOBJECTSTRUCT@@PAPAV1@00@Z
_TEXT	SEGMENT
__Count$ = -16						; size = 4
__Dest_ch$ = -12					; size = 4
__Last_ch$ = -8						; size = 4
__First_ch$ = -4					; size = 4
__First$ = 8						; size = 4
__Last$ = 12						; size = 4
__Dest$ = 16						; size = 4
??$_Copy_backward_memmove@PAPAVOBJECTSTRUCT@@PAPAV1@@std@@YAPAPAVOBJECTSTRUCT@@PAPAV1@00@Z PROC ; std::_Copy_backward_memmove<OBJECTSTRUCT * *,OBJECTSTRUCT * *>, COMDAT

; 4284 : _BidIt2 _Copy_backward_memmove(_BidIt1 _First, _BidIt1 _Last, _BidIt2 _Dest) {

  00000	55		 push	 ebp
  00001	8b ec		 mov	 ebp, esp
  00003	83 ec 50	 sub	 esp, 80			; 00000050H
  00006	53		 push	 ebx
  00007	56		 push	 esi
  00008	57		 push	 edi

; 4285 :     // implement copy_backward-like function as memmove
; 4286 :     const char* const _First_ch = const_cast<const char*>(reinterpret_cast<const volatile char*>(_First));

  00009	8b 45 08	 mov	 eax, DWORD PTR __First$[ebp]
  0000c	89 45 fc	 mov	 DWORD PTR __First_ch$[ebp], eax

; 4287 :     const char* const _Last_ch  = const_cast<const char*>(reinterpret_cast<const volatile char*>(_Last));

  0000f	8b 45 0c	 mov	 eax, DWORD PTR __Last$[ebp]
  00012	89 45 f8	 mov	 DWORD PTR __Last_ch$[ebp], eax

; 4288 :     char* const _Dest_ch        = const_cast<char*>(reinterpret_cast<volatile char*>(_Dest));

  00015	8b 45 10	 mov	 eax, DWORD PTR __Dest$[ebp]
  00018	89 45 f4	 mov	 DWORD PTR __Dest_ch$[ebp], eax

; 4289 :     const auto _Count           = static_cast<size_t>(_Last_ch - _First_ch);

  0001b	8b 45 f8	 mov	 eax, DWORD PTR __Last_ch$[ebp]
  0001e	2b 45 fc	 sub	 eax, DWORD PTR __First_ch$[ebp]
  00021	89 45 f0	 mov	 DWORD PTR __Count$[ebp], eax

; 4290 :     return static_cast<_BidIt2>(_CSTD memmove(_Dest_ch - _Count, _First_ch, _Count));

  00024	8b 45 f0	 mov	 eax, DWORD PTR __Count$[ebp]
  00027	50		 push	 eax
  00028	8b 4d fc	 mov	 ecx, DWORD PTR __First_ch$[ebp]
  0002b	51		 push	 ecx
  0002c	8b 55 f4	 mov	 edx, DWORD PTR __Dest_ch$[ebp]
  0002f	2b 55 f0	 sub	 edx, DWORD PTR __Count$[ebp]
  00032	52		 push	 edx
  00033	e8 00 00 00 00	 call	 _memmove
  00038	83 c4 0c	 add	 esp, 12			; 0000000cH

; 4291 : }

  0003b	5f		 pop	 edi
  0003c	5e		 pop	 esi
  0003d	5b		 pop	 ebx
  0003e	8b e5		 mov	 esp, ebp
  00040	5d		 pop	 ebp
  00041	c3		 ret	 0
??$_Copy_backward_memmove@PAPAVOBJECTSTRUCT@@PAPAV1@@std@@YAPAPAVOBJECTSTRUCT@@PAPAV1@00@Z ENDP ; std::_Copy_backward_memmove<OBJECTSTRUCT * *,OBJECTSTRUCT * *>
_TEXT	ENDS
; Function compile flags: /Odtp /ZI
; File C:\Program Files (x86)\Microsoft Visual Studio\2019\Community\VC\Tools\MSVC\14.27.29110\include\utility
;	COMDAT ??$?0AAPAPAVOBJECTSTRUCT@@AAPAPAV0@$0A@@?$pair@PAPAVOBJECTSTRUCT@@PAPAV1@@std@@QAE@AAPAPAVOBJECTSTRUCT@@0@Z
_TEXT	SEGMENT
_this$ = -4						; size = 4
__Val1$ = 8						; size = 4
__Val2$ = 12						; size = 4
??$?0AAPAPAVOBJECTSTRUCT@@AAPAPAV0@$0A@@?$pair@PAPAVOBJECTSTRUCT@@PAPAV1@@std@@QAE@AAPAPAVOBJECTSTRUCT@@0@Z PROC ; std::pair<OBJECTSTRUCT * *,OBJECTSTRUCT * *>::pair<OBJECTSTRUCT * *,OBJECTSTRUCT * *><OBJECTSTRUCT * * &,OBJECTSTRUCT * * &,0>, COMDAT
; _this$ = ecx

; 192  :         : first(_STD forward<_Other1>(_Val1)), second(_STD forward<_Other2>(_Val2)) {}

  00000	55		 push	 ebp
  00001	8b ec		 mov	 ebp, esp
  00003	83 ec 44	 sub	 esp, 68			; 00000044H
  00006	53		 push	 ebx
  00007	56		 push	 esi
  00008	57		 push	 edi
  00009	89 4d fc	 mov	 DWORD PTR _this$[ebp], ecx
  0000c	8b 45 08	 mov	 eax, DWORD PTR __Val1$[ebp]
  0000f	50		 push	 eax
  00010	e8 00 00 00 00	 call	 ??$forward@AAPAPAVOBJECTSTRUCT@@@std@@YAAAPAPAVOBJECTSTRUCT@@AAPAPAV1@@Z ; std::forward<OBJECTSTRUCT * * &>
  00015	83 c4 04	 add	 esp, 4
  00018	8b 4d fc	 mov	 ecx, DWORD PTR _this$[ebp]
  0001b	8b 10		 mov	 edx, DWORD PTR [eax]
  0001d	89 11		 mov	 DWORD PTR [ecx], edx
  0001f	8b 45 0c	 mov	 eax, DWORD PTR __Val2$[ebp]
  00022	50		 push	 eax
  00023	e8 00 00 00 00	 call	 ??$forward@AAPAPAVOBJECTSTRUCT@@@std@@YAAAPAPAVOBJECTSTRUCT@@AAPAPAV1@@Z ; std::forward<OBJECTSTRUCT * * &>
  00028	83 c4 04	 add	 esp, 4
  0002b	8b 4d fc	 mov	 ecx, DWORD PTR _this$[ebp]
  0002e	8b 10		 mov	 edx, DWORD PTR [eax]
  00030	89 51 04	 mov	 DWORD PTR [ecx+4], edx
  00033	8b 45 fc	 mov	 eax, DWORD PTR _this$[ebp]
  00036	5f		 pop	 edi
  00037	5e		 pop	 esi
  00038	5b		 pop	 ebx
  00039	8b e5		 mov	 esp, ebp
  0003b	5d		 pop	 ebp
  0003c	c2 08 00	 ret	 8
??$?0AAPAPAVOBJECTSTRUCT@@AAPAPAV0@$0A@@?$pair@PAPAVOBJECTSTRUCT@@PAPAV1@@std@@QAE@AAPAPAVOBJECTSTRUCT@@0@Z ENDP ; std::pair<OBJECTSTRUCT * *,OBJECTSTRUCT * *>::pair<OBJECTSTRUCT * *,OBJECTSTRUCT * *><OBJECTSTRUCT * * &,OBJECTSTRUCT * * &,0>
_TEXT	ENDS
; Function compile flags: /Odtp /ZI
; File C:\Program Files (x86)\Microsoft Visual Studio\2019\Community\VC\Tools\MSVC\14.27.29110\include\utility
;	COMDAT ??$iter_swap@PAPAVOBJECTSTRUCT@@PAPAV1@@std@@YAXPAPAVOBJECTSTRUCT@@0@Z
_TEXT	SEGMENT
__Left$ = 8						; size = 4
__Right$ = 12						; size = 4
??$iter_swap@PAPAVOBJECTSTRUCT@@PAPAV1@@std@@YAXPAPAVOBJECTSTRUCT@@0@Z PROC ; std::iter_swap<OBJECTSTRUCT * *,OBJECTSTRUCT * *>, COMDAT

; 82   : _CONSTEXPR20 void iter_swap(_FwdIt1 _Left, _FwdIt2 _Right) { // swap *_Left and *_Right

  00000	55		 push	 ebp
  00001	8b ec		 mov	 ebp, esp
  00003	83 ec 40	 sub	 esp, 64			; 00000040H
  00006	53		 push	 ebx
  00007	56		 push	 esi
  00008	57		 push	 edi

; 83   :     swap(*_Left, *_Right);

  00009	8b 45 0c	 mov	 eax, DWORD PTR __Right$[ebp]
  0000c	50		 push	 eax
  0000d	8b 4d 08	 mov	 ecx, DWORD PTR __Left$[ebp]
  00010	51		 push	 ecx
  00011	e8 00 00 00 00	 call	 ??$swap@PAVOBJECTSTRUCT@@$0A@@std@@YAXAAPAVOBJECTSTRUCT@@0@Z ; std::swap<OBJECTSTRUCT *,0>
  00016	83 c4 08	 add	 esp, 8

; 84   : }

  00019	5f		 pop	 edi
  0001a	5e		 pop	 esi
  0001b	5b		 pop	 ebx
  0001c	8b e5		 mov	 esp, ebp
  0001e	5d		 pop	 ebp
  0001f	c3		 ret	 0
??$iter_swap@PAPAVOBJECTSTRUCT@@PAPAV1@@std@@YAXPAPAVOBJECTSTRUCT@@0@Z ENDP ; std::iter_swap<OBJECTSTRUCT * *,OBJECTSTRUCT * *>
_TEXT	ENDS
; Function compile flags: /Odtp /ZI
; File C:\Program Files (x86)\Microsoft Visual Studio\2019\Community\VC\Tools\MSVC\14.27.29110\include\xutility
;	COMDAT ??$_Next_iter@PAPAVOBJECTSTRUCT@@@std@@YAPAPAVOBJECTSTRUCT@@PAPAV1@@Z
_TEXT	SEGMENT
__First$ = 8						; size = 4
??$_Next_iter@PAPAVOBJECTSTRUCT@@@std@@YAPAPAVOBJECTSTRUCT@@PAPAV1@@Z PROC ; std::_Next_iter<OBJECTSTRUCT * *>, COMDAT

; 1766 : constexpr _InIt _Next_iter(_InIt _First) { // increment iterator

  00000	55		 push	 ebp
  00001	8b ec		 mov	 ebp, esp
  00003	83 ec 40	 sub	 esp, 64			; 00000040H
  00006	53		 push	 ebx
  00007	56		 push	 esi
  00008	57		 push	 edi

; 1767 :     return ++_First;

  00009	8b 45 08	 mov	 eax, DWORD PTR __First$[ebp]
  0000c	83 c0 04	 add	 eax, 4
  0000f	89 45 08	 mov	 DWORD PTR __First$[ebp], eax
  00012	8b 45 08	 mov	 eax, DWORD PTR __First$[ebp]

; 1768 : }

  00015	5f		 pop	 edi
  00016	5e		 pop	 esi
  00017	5b		 pop	 ebx
  00018	8b e5		 mov	 esp, ebp
  0001a	5d		 pop	 ebp
  0001b	c3		 ret	 0
??$_Next_iter@PAPAVOBJECTSTRUCT@@@std@@YAPAPAVOBJECTSTRUCT@@PAPAV1@@Z ENDP ; std::_Next_iter<OBJECTSTRUCT * *>
_TEXT	ENDS
; Function compile flags: /Odtp /ZI
; File C:\Program Files (x86)\Microsoft Visual Studio\2019\Community\VC\Tools\MSVC\14.27.29110\include\algorithm
;	COMDAT ??$_Guess_median_unchecked@PAPAVOBJECTSTRUCT@@P6A_NABQAV1@0@Z@std@@YAXPAPAVOBJECTSTRUCT@@00P6A_NABQAV1@1@Z@Z
_TEXT	SEGMENT
__Two_step$1 = -12					; size = 4
__Step$2 = -8						; size = 4
__Count$ = -4						; size = 4
__First$ = 8						; size = 4
__Mid$ = 12						; size = 4
__Last$ = 16						; size = 4
__Pred$ = 20						; size = 4
??$_Guess_median_unchecked@PAPAVOBJECTSTRUCT@@P6A_NABQAV1@0@Z@std@@YAXPAPAVOBJECTSTRUCT@@00P6A_NABQAV1@1@Z@Z PROC ; std::_Guess_median_unchecked<OBJECTSTRUCT * *,bool (__cdecl*)(OBJECTSTRUCT * const &,OBJECTSTRUCT * const &)>, COMDAT

; 4019 : _CONSTEXPR20 void _Guess_median_unchecked(_RanIt _First, _RanIt _Mid, _RanIt _Last, _Pr _Pred) {

  00000	55		 push	 ebp
  00001	8b ec		 mov	 ebp, esp
  00003	83 ec 4c	 sub	 esp, 76			; 0000004cH
  00006	53		 push	 ebx
  00007	56		 push	 esi
  00008	57		 push	 edi

; 4020 :     // sort median element to middle
; 4021 :     using _Diff        = _Iter_diff_t<_RanIt>;
; 4022 :     const _Diff _Count = _Last - _First;

  00009	8b 45 10	 mov	 eax, DWORD PTR __Last$[ebp]
  0000c	2b 45 08	 sub	 eax, DWORD PTR __First$[ebp]
  0000f	c1 f8 02	 sar	 eax, 2
  00012	89 45 fc	 mov	 DWORD PTR __Count$[ebp], eax

; 4023 :     if (40 < _Count) { // Tukey's ninther

  00015	83 7d fc 28	 cmp	 DWORD PTR __Count$[ebp], 40 ; 00000028H
  00019	0f 8e ae 00 00
	00		 jle	 $LN2@Guess_medi

; 4024 :         const _Diff _Step     = (_Count + 1) >> 3; // +1 can't overflow because range was made inclusive in caller

  0001f	8b 45 fc	 mov	 eax, DWORD PTR __Count$[ebp]
  00022	83 c0 01	 add	 eax, 1
  00025	c1 f8 03	 sar	 eax, 3
  00028	89 45 f8	 mov	 DWORD PTR __Step$2[ebp], eax

; 4025 :         const _Diff _Two_step = _Step << 1; // note: intentionally discards low-order bit

  0002b	8b 45 f8	 mov	 eax, DWORD PTR __Step$2[ebp]
  0002e	d1 e0		 shl	 eax, 1
  00030	89 45 f4	 mov	 DWORD PTR __Two_step$1[ebp], eax

; 4026 :         _Med3_unchecked(_First, _First + _Step, _First + _Two_step, _Pred);

  00033	8b 45 14	 mov	 eax, DWORD PTR __Pred$[ebp]
  00036	50		 push	 eax
  00037	8b 4d f4	 mov	 ecx, DWORD PTR __Two_step$1[ebp]
  0003a	8b 55 08	 mov	 edx, DWORD PTR __First$[ebp]
  0003d	8d 04 8a	 lea	 eax, DWORD PTR [edx+ecx*4]
  00040	50		 push	 eax
  00041	8b 4d f8	 mov	 ecx, DWORD PTR __Step$2[ebp]
  00044	8b 55 08	 mov	 edx, DWORD PTR __First$[ebp]
  00047	8d 04 8a	 lea	 eax, DWORD PTR [edx+ecx*4]
  0004a	50		 push	 eax
  0004b	8b 4d 08	 mov	 ecx, DWORD PTR __First$[ebp]
  0004e	51		 push	 ecx
  0004f	e8 00 00 00 00	 call	 ??$_Med3_unchecked@PAPAVOBJECTSTRUCT@@P6A_NABQAV1@0@Z@std@@YAXPAPAVOBJECTSTRUCT@@00P6A_NABQAV1@1@Z@Z ; std::_Med3_unchecked<OBJECTSTRUCT * *,bool (__cdecl*)(OBJECTSTRUCT * const &,OBJECTSTRUCT * const &)>
  00054	83 c4 10	 add	 esp, 16			; 00000010H

; 4027 :         _Med3_unchecked(_Mid - _Step, _Mid, _Mid + _Step, _Pred);

  00057	8b 45 14	 mov	 eax, DWORD PTR __Pred$[ebp]
  0005a	50		 push	 eax
  0005b	8b 4d f8	 mov	 ecx, DWORD PTR __Step$2[ebp]
  0005e	8b 55 0c	 mov	 edx, DWORD PTR __Mid$[ebp]
  00061	8d 04 8a	 lea	 eax, DWORD PTR [edx+ecx*4]
  00064	50		 push	 eax
  00065	8b 4d 0c	 mov	 ecx, DWORD PTR __Mid$[ebp]
  00068	51		 push	 ecx
  00069	8b 55 f8	 mov	 edx, DWORD PTR __Step$2[ebp]
  0006c	c1 e2 02	 shl	 edx, 2
  0006f	8b 45 0c	 mov	 eax, DWORD PTR __Mid$[ebp]
  00072	2b c2		 sub	 eax, edx
  00074	50		 push	 eax
  00075	e8 00 00 00 00	 call	 ??$_Med3_unchecked@PAPAVOBJECTSTRUCT@@P6A_NABQAV1@0@Z@std@@YAXPAPAVOBJECTSTRUCT@@00P6A_NABQAV1@1@Z@Z ; std::_Med3_unchecked<OBJECTSTRUCT * *,bool (__cdecl*)(OBJECTSTRUCT * const &,OBJECTSTRUCT * const &)>
  0007a	83 c4 10	 add	 esp, 16			; 00000010H

; 4028 :         _Med3_unchecked(_Last - _Two_step, _Last - _Step, _Last, _Pred);

  0007d	8b 45 14	 mov	 eax, DWORD PTR __Pred$[ebp]
  00080	50		 push	 eax
  00081	8b 4d 10	 mov	 ecx, DWORD PTR __Last$[ebp]
  00084	51		 push	 ecx
  00085	8b 55 f8	 mov	 edx, DWORD PTR __Step$2[ebp]
  00088	c1 e2 02	 shl	 edx, 2
  0008b	8b 45 10	 mov	 eax, DWORD PTR __Last$[ebp]
  0008e	2b c2		 sub	 eax, edx
  00090	50		 push	 eax
  00091	8b 4d f4	 mov	 ecx, DWORD PTR __Two_step$1[ebp]
  00094	c1 e1 02	 shl	 ecx, 2
  00097	8b 55 10	 mov	 edx, DWORD PTR __Last$[ebp]
  0009a	2b d1		 sub	 edx, ecx
  0009c	52		 push	 edx
  0009d	e8 00 00 00 00	 call	 ??$_Med3_unchecked@PAPAVOBJECTSTRUCT@@P6A_NABQAV1@0@Z@std@@YAXPAPAVOBJECTSTRUCT@@00P6A_NABQAV1@1@Z@Z ; std::_Med3_unchecked<OBJECTSTRUCT * *,bool (__cdecl*)(OBJECTSTRUCT * const &,OBJECTSTRUCT * const &)>
  000a2	83 c4 10	 add	 esp, 16			; 00000010H

; 4029 :         _Med3_unchecked(_First + _Step, _Mid, _Last - _Step, _Pred);

  000a5	8b 45 14	 mov	 eax, DWORD PTR __Pred$[ebp]
  000a8	50		 push	 eax
  000a9	8b 4d f8	 mov	 ecx, DWORD PTR __Step$2[ebp]
  000ac	c1 e1 02	 shl	 ecx, 2
  000af	8b 55 10	 mov	 edx, DWORD PTR __Last$[ebp]
  000b2	2b d1		 sub	 edx, ecx
  000b4	52		 push	 edx
  000b5	8b 45 0c	 mov	 eax, DWORD PTR __Mid$[ebp]
  000b8	50		 push	 eax
  000b9	8b 4d f8	 mov	 ecx, DWORD PTR __Step$2[ebp]
  000bc	8b 55 08	 mov	 edx, DWORD PTR __First$[ebp]
  000bf	8d 04 8a	 lea	 eax, DWORD PTR [edx+ecx*4]
  000c2	50		 push	 eax
  000c3	e8 00 00 00 00	 call	 ??$_Med3_unchecked@PAPAVOBJECTSTRUCT@@P6A_NABQAV1@0@Z@std@@YAXPAPAVOBJECTSTRUCT@@00P6A_NABQAV1@1@Z@Z ; std::_Med3_unchecked<OBJECTSTRUCT * *,bool (__cdecl*)(OBJECTSTRUCT * const &,OBJECTSTRUCT * const &)>
  000c8	83 c4 10	 add	 esp, 16			; 00000010H

; 4030 :     } else {

  000cb	eb 18		 jmp	 SHORT $LN1@Guess_medi
$LN2@Guess_medi:

; 4031 :         _Med3_unchecked(_First, _Mid, _Last, _Pred);

  000cd	8b 45 14	 mov	 eax, DWORD PTR __Pred$[ebp]
  000d0	50		 push	 eax
  000d1	8b 4d 10	 mov	 ecx, DWORD PTR __Last$[ebp]
  000d4	51		 push	 ecx
  000d5	8b 55 0c	 mov	 edx, DWORD PTR __Mid$[ebp]
  000d8	52		 push	 edx
  000d9	8b 45 08	 mov	 eax, DWORD PTR __First$[ebp]
  000dc	50		 push	 eax
  000dd	e8 00 00 00 00	 call	 ??$_Med3_unchecked@PAPAVOBJECTSTRUCT@@P6A_NABQAV1@0@Z@std@@YAXPAPAVOBJECTSTRUCT@@00P6A_NABQAV1@1@Z@Z ; std::_Med3_unchecked<OBJECTSTRUCT * *,bool (__cdecl*)(OBJECTSTRUCT * const &,OBJECTSTRUCT * const &)>
  000e2	83 c4 10	 add	 esp, 16			; 00000010H
$LN1@Guess_medi:

; 4032 :     }
; 4033 : }

  000e5	5f		 pop	 edi
  000e6	5e		 pop	 esi
  000e7	5b		 pop	 ebx
  000e8	8b e5		 mov	 esp, ebp
  000ea	5d		 pop	 ebp
  000eb	c3		 ret	 0
??$_Guess_median_unchecked@PAPAVOBJECTSTRUCT@@P6A_NABQAV1@0@Z@std@@YAXPAPAVOBJECTSTRUCT@@00P6A_NABQAV1@1@Z@Z ENDP ; std::_Guess_median_unchecked<OBJECTSTRUCT * *,bool (__cdecl*)(OBJECTSTRUCT * const &,OBJECTSTRUCT * const &)>
_TEXT	ENDS
; Function compile flags: /Odtp /ZI
; File C:\Program Files (x86)\Microsoft Visual Studio\2019\Community\VC\Tools\MSVC\14.27.29110\include\xutility
;	COMDAT ??$_Prev_iter@PAPAVOBJECTSTRUCT@@@std@@YAPAPAVOBJECTSTRUCT@@PAPAV1@@Z
_TEXT	SEGMENT
__First$ = 8						; size = 4
??$_Prev_iter@PAPAVOBJECTSTRUCT@@@std@@YAPAPAVOBJECTSTRUCT@@PAPAV1@@Z PROC ; std::_Prev_iter<OBJECTSTRUCT * *>, COMDAT

; 1781 : constexpr _BidIt _Prev_iter(_BidIt _First) { // decrement iterator

  00000	55		 push	 ebp
  00001	8b ec		 mov	 ebp, esp
  00003	83 ec 40	 sub	 esp, 64			; 00000040H
  00006	53		 push	 ebx
  00007	56		 push	 esi
  00008	57		 push	 edi

; 1782 :     return --_First;

  00009	8b 45 08	 mov	 eax, DWORD PTR __First$[ebp]
  0000c	83 e8 04	 sub	 eax, 4
  0000f	89 45 08	 mov	 DWORD PTR __First$[ebp], eax
  00012	8b 45 08	 mov	 eax, DWORD PTR __First$[ebp]

; 1783 : }

  00015	5f		 pop	 edi
  00016	5e		 pop	 esi
  00017	5b		 pop	 ebx
  00018	8b e5		 mov	 esp, ebp
  0001a	5d		 pop	 ebp
  0001b	c3		 ret	 0
??$_Prev_iter@PAPAVOBJECTSTRUCT@@@std@@YAPAPAVOBJECTSTRUCT@@PAPAV1@@Z ENDP ; std::_Prev_iter<OBJECTSTRUCT * *>
_TEXT	ENDS
; Function compile flags: /Odtp /ZI
; File C:\Program Files (x86)\Microsoft Visual Studio\2019\Community\VC\Tools\MSVC\14.27.29110\include\algorithm
;	COMDAT ??$_Pop_heap_unchecked@PAPAVOBJECTSTRUCT@@P6A_NABQAV1@0@Z@std@@YAXPAPAVOBJECTSTRUCT@@0P6A_NABQAV1@1@Z@Z
_TEXT	SEGMENT
__Val$1 = -4						; size = 4
__First$ = 8						; size = 4
__Last$ = 12						; size = 4
__Pred$ = 16						; size = 4
??$_Pop_heap_unchecked@PAPAVOBJECTSTRUCT@@P6A_NABQAV1@0@Z@std@@YAXPAPAVOBJECTSTRUCT@@0P6A_NABQAV1@1@Z@Z PROC ; std::_Pop_heap_unchecked<OBJECTSTRUCT * *,bool (__cdecl*)(OBJECTSTRUCT * const &,OBJECTSTRUCT * const &)>, COMDAT

; 3392 : _CONSTEXPR20 void _Pop_heap_unchecked(_RanIt _First, _RanIt _Last, _Pr _Pred) {

  00000	55		 push	 ebp
  00001	8b ec		 mov	 ebp, esp
  00003	83 ec 44	 sub	 esp, 68			; 00000044H
  00006	53		 push	 ebx
  00007	56		 push	 esi
  00008	57		 push	 edi

; 3393 :     // pop *_First to *(_Last - 1) and reheap, using _Pred
; 3394 :     if (2 <= _Last - _First) {

  00009	8b 45 0c	 mov	 eax, DWORD PTR __Last$[ebp]
  0000c	2b 45 08	 sub	 eax, DWORD PTR __First$[ebp]
  0000f	c1 f8 02	 sar	 eax, 2
  00012	83 f8 02	 cmp	 eax, 2
  00015	7c 3f		 jl	 SHORT $LN1@Pop_heap_u

; 3395 :         --_Last;

  00017	8b 45 0c	 mov	 eax, DWORD PTR __Last$[ebp]
  0001a	83 e8 04	 sub	 eax, 4
  0001d	89 45 0c	 mov	 DWORD PTR __Last$[ebp], eax

; 3396 :         _Iter_value_t<_RanIt> _Val = _STD move(*_Last);

  00020	8b 45 0c	 mov	 eax, DWORD PTR __Last$[ebp]
  00023	50		 push	 eax
  00024	e8 00 00 00 00	 call	 ??$move@AAPAVOBJECTSTRUCT@@@std@@YA$$QAPAVOBJECTSTRUCT@@AAPAV1@@Z ; std::move<OBJECTSTRUCT * &>
  00029	83 c4 04	 add	 esp, 4
  0002c	8b 08		 mov	 ecx, DWORD PTR [eax]
  0002e	89 4d fc	 mov	 DWORD PTR __Val$1[ebp], ecx

; 3397 :         _Pop_heap_hole_unchecked(_First, _Last, _Last, _STD move(_Val), _Pred);

  00031	8b 45 10	 mov	 eax, DWORD PTR __Pred$[ebp]
  00034	50		 push	 eax
  00035	8d 4d fc	 lea	 ecx, DWORD PTR __Val$1[ebp]
  00038	51		 push	 ecx
  00039	e8 00 00 00 00	 call	 ??$move@AAPAVOBJECTSTRUCT@@@std@@YA$$QAPAVOBJECTSTRUCT@@AAPAV1@@Z ; std::move<OBJECTSTRUCT * &>
  0003e	83 c4 04	 add	 esp, 4
  00041	50		 push	 eax
  00042	8b 55 0c	 mov	 edx, DWORD PTR __Last$[ebp]
  00045	52		 push	 edx
  00046	8b 45 0c	 mov	 eax, DWORD PTR __Last$[ebp]
  00049	50		 push	 eax
  0004a	8b 4d 08	 mov	 ecx, DWORD PTR __First$[ebp]
  0004d	51		 push	 ecx
  0004e	e8 00 00 00 00	 call	 ??$_Pop_heap_hole_unchecked@PAPAVOBJECTSTRUCT@@PAV1@P6A_NABQAV1@0@Z@std@@YAXPAPAVOBJECTSTRUCT@@00$$QAPAV1@P6A_NABQAV1@2@Z@Z ; std::_Pop_heap_hole_unchecked<OBJECTSTRUCT * *,OBJECTSTRUCT *,bool (__cdecl*)(OBJECTSTRUCT * const &,OBJECTSTRUCT * const &)>
  00053	83 c4 14	 add	 esp, 20			; 00000014H
$LN1@Pop_heap_u:

; 3398 :     }
; 3399 : }

  00056	5f		 pop	 edi
  00057	5e		 pop	 esi
  00058	5b		 pop	 ebx
  00059	8b e5		 mov	 esp, ebp
  0005b	5d		 pop	 ebp
  0005c	c3		 ret	 0
??$_Pop_heap_unchecked@PAPAVOBJECTSTRUCT@@P6A_NABQAV1@0@Z@std@@YAXPAPAVOBJECTSTRUCT@@0P6A_NABQAV1@1@Z@Z ENDP ; std::_Pop_heap_unchecked<OBJECTSTRUCT * *,bool (__cdecl*)(OBJECTSTRUCT * const &,OBJECTSTRUCT * const &)>
_TEXT	ENDS
; Function compile flags: /Odtp /ZI
; File C:\Program Files (x86)\Microsoft Visual Studio\2019\Community\VC\Tools\MSVC\14.27.29110\include\algorithm
;	COMDAT ??$_Pop_heap_hole_by_index@PAPAVOBJECTSTRUCT@@PAV1@P6A_NABQAV1@0@Z@std@@YAXPAPAVOBJECTSTRUCT@@HH$$QAPAV1@P6A_NABQAV1@2@Z@Z
_TEXT	SEGMENT
__Max_sequence_non_leaf$ = -12				; size = 4
__Idx$ = -8						; size = 4
__Top$ = -4						; size = 4
__First$ = 8						; size = 4
__Hole$ = 12						; size = 4
__Bottom$ = 16						; size = 4
__Val$ = 20						; size = 4
__Pred$ = 24						; size = 4
??$_Pop_heap_hole_by_index@PAPAVOBJECTSTRUCT@@PAV1@P6A_NABQAV1@0@Z@std@@YAXPAPAVOBJECTSTRUCT@@HH$$QAPAV1@P6A_NABQAV1@2@Z@Z PROC ; std::_Pop_heap_hole_by_index<OBJECTSTRUCT * *,OBJECTSTRUCT *,bool (__cdecl*)(OBJECTSTRUCT * const &,OBJECTSTRUCT * const &)>, COMDAT

; 3354 :     _RanIt _First, _Iter_diff_t<_RanIt> _Hole, _Iter_diff_t<_RanIt> _Bottom, _Ty&& _Val, _Pr _Pred) {

  00000	55		 push	 ebp
  00001	8b ec		 mov	 ebp, esp
  00003	83 ec 4c	 sub	 esp, 76			; 0000004cH
  00006	53		 push	 ebx
  00007	56		 push	 esi
  00008	57		 push	 edi

; 3355 :     // percolate _Hole to _Bottom, then push _Val, using _Pred
; 3356 :     _STL_INTERNAL_CHECK(_Bottom != 0);
; 3357 :     using _Diff      = _Iter_diff_t<_RanIt>;
; 3358 :     const _Diff _Top = _Hole;

  00009	8b 45 0c	 mov	 eax, DWORD PTR __Hole$[ebp]
  0000c	89 45 fc	 mov	 DWORD PTR __Top$[ebp], eax

; 3359 :     _Diff _Idx       = _Hole;

  0000f	8b 45 0c	 mov	 eax, DWORD PTR __Hole$[ebp]
  00012	89 45 f8	 mov	 DWORD PTR __Idx$[ebp], eax

; 3360 : 
; 3361 :     // Check whether _Idx can have a child before calculating that child's index, since
; 3362 :     // calculating the child's index can trigger integer overflows
; 3363 :     const _Diff _Max_sequence_non_leaf = (_Bottom - 1) >> 1; // shift for codegen

  00015	8b 45 10	 mov	 eax, DWORD PTR __Bottom$[ebp]
  00018	83 e8 01	 sub	 eax, 1
  0001b	d1 f8		 sar	 eax, 1
  0001d	89 45 f4	 mov	 DWORD PTR __Max_sequence_non_leaf$[ebp], eax
$LN2@Pop_heap_h:

; 3364 :     while (_Idx < _Max_sequence_non_leaf) { // move _Hole down to larger child

  00020	8b 45 f8	 mov	 eax, DWORD PTR __Idx$[ebp]
  00023	3b 45 f4	 cmp	 eax, DWORD PTR __Max_sequence_non_leaf$[ebp]
  00026	7d 5a		 jge	 SHORT $LN3@Pop_heap_h

; 3365 :         _Idx = 2 * _Idx + 2;

  00028	8b 45 f8	 mov	 eax, DWORD PTR __Idx$[ebp]
  0002b	8d 4c 00 02	 lea	 ecx, DWORD PTR [eax+eax+2]
  0002f	89 4d f8	 mov	 DWORD PTR __Idx$[ebp], ecx

; 3366 :         if (_DEBUG_LT_PRED(_Pred, *(_First + _Idx), *(_First + (_Idx - 1)))) {

  00032	8b 45 f8	 mov	 eax, DWORD PTR __Idx$[ebp]
  00035	8b 4d 08	 mov	 ecx, DWORD PTR __First$[ebp]
  00038	8d 54 81 fc	 lea	 edx, DWORD PTR [ecx+eax*4-4]
  0003c	52		 push	 edx
  0003d	8b 45 f8	 mov	 eax, DWORD PTR __Idx$[ebp]
  00040	8b 4d 08	 mov	 ecx, DWORD PTR __First$[ebp]
  00043	8d 14 81	 lea	 edx, DWORD PTR [ecx+eax*4]
  00046	52		 push	 edx
  00047	ff 55 18	 call	 DWORD PTR __Pred$[ebp]
  0004a	83 c4 08	 add	 esp, 8
  0004d	0f b6 c0	 movzx	 eax, al
  00050	85 c0		 test	 eax, eax
  00052	74 09		 je	 SHORT $LN4@Pop_heap_h

; 3367 :             --_Idx;

  00054	8b 45 f8	 mov	 eax, DWORD PTR __Idx$[ebp]
  00057	83 e8 01	 sub	 eax, 1
  0005a	89 45 f8	 mov	 DWORD PTR __Idx$[ebp], eax
$LN4@Pop_heap_h:

; 3368 :         }
; 3369 :         *(_First + _Hole) = _STD move(*(_First + _Idx));

  0005d	8b 45 f8	 mov	 eax, DWORD PTR __Idx$[ebp]
  00060	8b 4d 08	 mov	 ecx, DWORD PTR __First$[ebp]
  00063	8d 14 81	 lea	 edx, DWORD PTR [ecx+eax*4]
  00066	52		 push	 edx
  00067	e8 00 00 00 00	 call	 ??$move@AAPAVOBJECTSTRUCT@@@std@@YA$$QAPAVOBJECTSTRUCT@@AAPAV1@@Z ; std::move<OBJECTSTRUCT * &>
  0006c	83 c4 04	 add	 esp, 4
  0006f	8b 4d 0c	 mov	 ecx, DWORD PTR __Hole$[ebp]
  00072	8b 55 08	 mov	 edx, DWORD PTR __First$[ebp]
  00075	8b 00		 mov	 eax, DWORD PTR [eax]
  00077	89 04 8a	 mov	 DWORD PTR [edx+ecx*4], eax

; 3370 :         _Hole             = _Idx;

  0007a	8b 45 f8	 mov	 eax, DWORD PTR __Idx$[ebp]
  0007d	89 45 0c	 mov	 DWORD PTR __Hole$[ebp], eax

; 3371 :     }

  00080	eb 9e		 jmp	 SHORT $LN2@Pop_heap_h
$LN3@Pop_heap_h:

; 3372 : 
; 3373 :     if (_Idx == _Max_sequence_non_leaf && _Bottom % 2 == 0) { // only child at bottom, move _Hole down to it

  00082	8b 45 f8	 mov	 eax, DWORD PTR __Idx$[ebp]
  00085	3b 45 f4	 cmp	 eax, DWORD PTR __Max_sequence_non_leaf$[ebp]
  00088	75 3a		 jne	 SHORT $LN5@Pop_heap_h
  0008a	8b 45 10	 mov	 eax, DWORD PTR __Bottom$[ebp]
  0008d	25 01 00 00 80	 and	 eax, -2147483647	; 80000001H
  00092	79 05		 jns	 SHORT $LN7@Pop_heap_h
  00094	48		 dec	 eax
  00095	83 c8 fe	 or	 eax, -2			; fffffffeH
  00098	40		 inc	 eax
$LN7@Pop_heap_h:
  00099	85 c0		 test	 eax, eax
  0009b	75 27		 jne	 SHORT $LN5@Pop_heap_h

; 3374 :         *(_First + _Hole) = _STD move(*(_First + (_Bottom - 1)));

  0009d	8b 45 10	 mov	 eax, DWORD PTR __Bottom$[ebp]
  000a0	8b 4d 08	 mov	 ecx, DWORD PTR __First$[ebp]
  000a3	8d 54 81 fc	 lea	 edx, DWORD PTR [ecx+eax*4-4]
  000a7	52		 push	 edx
  000a8	e8 00 00 00 00	 call	 ??$move@AAPAVOBJECTSTRUCT@@@std@@YA$$QAPAVOBJECTSTRUCT@@AAPAV1@@Z ; std::move<OBJECTSTRUCT * &>
  000ad	83 c4 04	 add	 esp, 4
  000b0	8b 4d 0c	 mov	 ecx, DWORD PTR __Hole$[ebp]
  000b3	8b 55 08	 mov	 edx, DWORD PTR __First$[ebp]
  000b6	8b 00		 mov	 eax, DWORD PTR [eax]
  000b8	89 04 8a	 mov	 DWORD PTR [edx+ecx*4], eax

; 3375 :         _Hole             = _Bottom - 1;

  000bb	8b 45 10	 mov	 eax, DWORD PTR __Bottom$[ebp]
  000be	83 e8 01	 sub	 eax, 1
  000c1	89 45 0c	 mov	 DWORD PTR __Hole$[ebp], eax
$LN5@Pop_heap_h:

; 3376 :     }
; 3377 : 
; 3378 :     _Push_heap_by_index(_First, _Hole, _Top, _STD move(_Val), _Pred);

  000c4	8b 45 18	 mov	 eax, DWORD PTR __Pred$[ebp]
  000c7	50		 push	 eax
  000c8	8b 4d 14	 mov	 ecx, DWORD PTR __Val$[ebp]
  000cb	51		 push	 ecx
  000cc	e8 00 00 00 00	 call	 ??$move@AAPAVOBJECTSTRUCT@@@std@@YA$$QAPAVOBJECTSTRUCT@@AAPAV1@@Z ; std::move<OBJECTSTRUCT * &>
  000d1	83 c4 04	 add	 esp, 4
  000d4	50		 push	 eax
  000d5	8b 55 fc	 mov	 edx, DWORD PTR __Top$[ebp]
  000d8	52		 push	 edx
  000d9	8b 45 0c	 mov	 eax, DWORD PTR __Hole$[ebp]
  000dc	50		 push	 eax
  000dd	8b 4d 08	 mov	 ecx, DWORD PTR __First$[ebp]
  000e0	51		 push	 ecx
  000e1	e8 00 00 00 00	 call	 ??$_Push_heap_by_index@PAPAVOBJECTSTRUCT@@PAV1@P6A_NABQAV1@0@Z@std@@YAXPAPAVOBJECTSTRUCT@@HH$$QAPAV1@P6A_NABQAV1@2@Z@Z ; std::_Push_heap_by_index<OBJECTSTRUCT * *,OBJECTSTRUCT *,bool (__cdecl*)(OBJECTSTRUCT * const &,OBJECTSTRUCT * const &)>
  000e6	83 c4 14	 add	 esp, 20			; 00000014H

; 3379 : }

  000e9	5f		 pop	 edi
  000ea	5e		 pop	 esi
  000eb	5b		 pop	 ebx
  000ec	8b e5		 mov	 esp, ebp
  000ee	5d		 pop	 ebp
  000ef	c3		 ret	 0
??$_Pop_heap_hole_by_index@PAPAVOBJECTSTRUCT@@PAV1@P6A_NABQAV1@0@Z@std@@YAXPAPAVOBJECTSTRUCT@@HH$$QAPAV1@P6A_NABQAV1@2@Z@Z ENDP ; std::_Pop_heap_hole_by_index<OBJECTSTRUCT * *,OBJECTSTRUCT *,bool (__cdecl*)(OBJECTSTRUCT * const &,OBJECTSTRUCT * const &)>
_TEXT	ENDS
; Function compile flags: /Odtp /ZI
; File C:\Program Files (x86)\Microsoft Visual Studio\2019\Community\VC\Tools\MSVC\14.27.29110\include\xutility
;	COMDAT ??$_Move_backward_unchecked@PAPAVOBJECTSTRUCT@@PAPAV1@@std@@YAPAPAVOBJECTSTRUCT@@PAPAV1@00@Z
_TEXT	SEGMENT
__First$ = 8						; size = 4
__Last$ = 12						; size = 4
__Dest$ = 16						; size = 4
??$_Move_backward_unchecked@PAPAVOBJECTSTRUCT@@PAPAV1@@std@@YAPAPAVOBJECTSTRUCT@@PAPAV1@00@Z PROC ; std::_Move_backward_unchecked<OBJECTSTRUCT * *,OBJECTSTRUCT * *>, COMDAT

; 4432 : _CONSTEXPR20 _BidIt2 _Move_backward_unchecked(_BidIt1 _First, _BidIt1 _Last, _BidIt2 _Dest) {

  00000	55		 push	 ebp
  00001	8b ec		 mov	 ebp, esp
  00003	83 ec 40	 sub	 esp, 64			; 00000040H
  00006	53		 push	 ebx
  00007	56		 push	 esi
  00008	57		 push	 edi

; 4433 :     // move [_First, _Last) backwards to [..., _Dest)
; 4434 :     // note: _Move_backward_unchecked has callers other than the move_backward family
; 4435 :     if constexpr (_Ptr_move_cat<_BidIt1, _BidIt2>::_Trivially_copyable) {
; 4436 : #ifdef __cpp_lib_is_constant_evaluated
; 4437 :         if (!_STD is_constant_evaluated())
; 4438 : #endif // __cpp_lib_is_constant_evaluated
; 4439 :         {
; 4440 :             return _Copy_backward_memmove(_First, _Last, _Dest);

  00009	8b 45 10	 mov	 eax, DWORD PTR __Dest$[ebp]
  0000c	50		 push	 eax
  0000d	8b 4d 0c	 mov	 ecx, DWORD PTR __Last$[ebp]
  00010	51		 push	 ecx
  00011	8b 55 08	 mov	 edx, DWORD PTR __First$[ebp]
  00014	52		 push	 edx
  00015	e8 00 00 00 00	 call	 ??$_Copy_backward_memmove@PAPAVOBJECTSTRUCT@@PAPAV1@@std@@YAPAPAVOBJECTSTRUCT@@PAPAV1@00@Z ; std::_Copy_backward_memmove<OBJECTSTRUCT * *,OBJECTSTRUCT * *>
  0001a	83 c4 0c	 add	 esp, 12			; 0000000cH
  0001d	eb 32		 jmp	 SHORT $LN1@Move_backw
$LN2@Move_backw:

; 4441 :         }
; 4442 :     }
; 4443 : 
; 4444 :     while (_First != _Last) {

  0001f	8b 45 08	 mov	 eax, DWORD PTR __First$[ebp]
  00022	3b 45 0c	 cmp	 eax, DWORD PTR __Last$[ebp]
  00025	74 27		 je	 SHORT $LN3@Move_backw

; 4445 :         *--_Dest = _STD move(*--_Last);

  00027	8b 45 0c	 mov	 eax, DWORD PTR __Last$[ebp]
  0002a	83 e8 04	 sub	 eax, 4
  0002d	89 45 0c	 mov	 DWORD PTR __Last$[ebp], eax
  00030	8b 4d 10	 mov	 ecx, DWORD PTR __Dest$[ebp]
  00033	83 e9 04	 sub	 ecx, 4
  00036	89 4d 10	 mov	 DWORD PTR __Dest$[ebp], ecx
  00039	8b 55 0c	 mov	 edx, DWORD PTR __Last$[ebp]
  0003c	52		 push	 edx
  0003d	e8 00 00 00 00	 call	 ??$move@AAPAVOBJECTSTRUCT@@@std@@YA$$QAPAVOBJECTSTRUCT@@AAPAV1@@Z ; std::move<OBJECTSTRUCT * &>
  00042	83 c4 04	 add	 esp, 4
  00045	8b 4d 10	 mov	 ecx, DWORD PTR __Dest$[ebp]
  00048	8b 10		 mov	 edx, DWORD PTR [eax]
  0004a	89 11		 mov	 DWORD PTR [ecx], edx

; 4446 :     }

  0004c	eb d1		 jmp	 SHORT $LN2@Move_backw
$LN3@Move_backw:

; 4447 : 
; 4448 :     return _Dest;

  0004e	8b 45 10	 mov	 eax, DWORD PTR __Dest$[ebp]
$LN1@Move_backw:

; 4449 : }

  00051	5f		 pop	 edi
  00052	5e		 pop	 esi
  00053	5b		 pop	 ebx
  00054	8b e5		 mov	 esp, ebp
  00056	5d		 pop	 ebp
  00057	c3		 ret	 0
??$_Move_backward_unchecked@PAPAVOBJECTSTRUCT@@PAPAV1@@std@@YAPAPAVOBJECTSTRUCT@@PAPAV1@00@Z ENDP ; std::_Move_backward_unchecked<OBJECTSTRUCT * *,OBJECTSTRUCT * *>
_TEXT	ENDS
; Function compile flags: /Odtp /ZI
; File C:\Program Files (x86)\Microsoft Visual Studio\2019\Community\VC\Tools\MSVC\14.27.29110\include\xutility
;	COMDAT ??$_Copy_memmove@PAPAVOBJECTSTRUCT@@PAPAV1@@std@@YAPAPAVOBJECTSTRUCT@@PAPAV1@00@Z
_TEXT	SEGMENT
__Count$ = -16						; size = 4
__Dest_ch$ = -12					; size = 4
__Last_ch$ = -8						; size = 4
__First_ch$ = -4					; size = 4
__First$ = 8						; size = 4
__Last$ = 12						; size = 4
__Dest$ = 16						; size = 4
??$_Copy_memmove@PAPAVOBJECTSTRUCT@@PAPAV1@@std@@YAPAPAVOBJECTSTRUCT@@PAPAV1@00@Z PROC ; std::_Copy_memmove<OBJECTSTRUCT * *,OBJECTSTRUCT * *>, COMDAT

; 4113 : _OutIt _Copy_memmove(_InIt _First, _InIt _Last, _OutIt _Dest) {

  00000	55		 push	 ebp
  00001	8b ec		 mov	 ebp, esp
  00003	83 ec 50	 sub	 esp, 80			; 00000050H
  00006	53		 push	 ebx
  00007	56		 push	 esi
  00008	57		 push	 edi

; 4114 :     const char* const _First_ch = const_cast<const char*>(reinterpret_cast<const volatile char*>(_First));

  00009	8b 45 08	 mov	 eax, DWORD PTR __First$[ebp]
  0000c	89 45 fc	 mov	 DWORD PTR __First_ch$[ebp], eax

; 4115 :     const char* const _Last_ch  = const_cast<const char*>(reinterpret_cast<const volatile char*>(_Last));

  0000f	8b 45 0c	 mov	 eax, DWORD PTR __Last$[ebp]
  00012	89 45 f8	 mov	 DWORD PTR __Last_ch$[ebp], eax

; 4116 :     char* const _Dest_ch        = const_cast<char*>(reinterpret_cast<volatile char*>(_Dest));

  00015	8b 45 10	 mov	 eax, DWORD PTR __Dest$[ebp]
  00018	89 45 f4	 mov	 DWORD PTR __Dest_ch$[ebp], eax

; 4117 :     const auto _Count           = static_cast<size_t>(_Last_ch - _First_ch);

  0001b	8b 45 f8	 mov	 eax, DWORD PTR __Last_ch$[ebp]
  0001e	2b 45 fc	 sub	 eax, DWORD PTR __First_ch$[ebp]
  00021	89 45 f0	 mov	 DWORD PTR __Count$[ebp], eax

; 4118 :     _CSTD memmove(_Dest_ch, _First_ch, _Count);

  00024	8b 45 f0	 mov	 eax, DWORD PTR __Count$[ebp]
  00027	50		 push	 eax
  00028	8b 4d fc	 mov	 ecx, DWORD PTR __First_ch$[ebp]
  0002b	51		 push	 ecx
  0002c	8b 55 f4	 mov	 edx, DWORD PTR __Dest_ch$[ebp]
  0002f	52		 push	 edx
  00030	e8 00 00 00 00	 call	 _memmove
  00035	83 c4 0c	 add	 esp, 12			; 0000000cH

; 4119 :     return reinterpret_cast<_OutIt>(_Dest_ch + _Count);

  00038	8b 45 f4	 mov	 eax, DWORD PTR __Dest_ch$[ebp]
  0003b	03 45 f0	 add	 eax, DWORD PTR __Count$[ebp]

; 4120 : }

  0003e	5f		 pop	 edi
  0003f	5e		 pop	 esi
  00040	5b		 pop	 ebx
  00041	8b e5		 mov	 esp, ebp
  00043	5d		 pop	 ebp
  00044	c3		 ret	 0
??$_Copy_memmove@PAPAVOBJECTSTRUCT@@PAPAV1@@std@@YAPAPAVOBJECTSTRUCT@@PAPAV1@00@Z ENDP ; std::_Copy_memmove<OBJECTSTRUCT * *,OBJECTSTRUCT * *>
_TEXT	ENDS
; Function compile flags: /Odtp /ZI
; File C:\Program Files (x86)\Microsoft Visual Studio\2019\Community\VC\Tools\MSVC\14.27.29110\include\type_traits
;	COMDAT ??$move@AAPAVOBJECTSTRUCT@@@std@@YA$$QAPAVOBJECTSTRUCT@@AAPAV1@@Z
_TEXT	SEGMENT
__Arg$ = 8						; size = 4
??$move@AAPAVOBJECTSTRUCT@@@std@@YA$$QAPAVOBJECTSTRUCT@@AAPAV1@@Z PROC ; std::move<OBJECTSTRUCT * &>, COMDAT

; 1466 : _NODISCARD constexpr remove_reference_t<_Ty>&& move(_Ty&& _Arg) noexcept { // forward _Arg as movable

  00000	55		 push	 ebp
  00001	8b ec		 mov	 ebp, esp
  00003	83 ec 40	 sub	 esp, 64			; 00000040H
  00006	53		 push	 ebx
  00007	56		 push	 esi
  00008	57		 push	 edi

; 1467 :     return static_cast<remove_reference_t<_Ty>&&>(_Arg);

  00009	8b 45 08	 mov	 eax, DWORD PTR __Arg$[ebp]

; 1468 : }

  0000c	5f		 pop	 edi
  0000d	5e		 pop	 esi
  0000e	5b		 pop	 ebx
  0000f	8b e5		 mov	 esp, ebp
  00011	5d		 pop	 ebp
  00012	c3		 ret	 0
??$move@AAPAVOBJECTSTRUCT@@@std@@YA$$QAPAVOBJECTSTRUCT@@AAPAV1@@Z ENDP ; std::move<OBJECTSTRUCT * &>
_TEXT	ENDS
; Function compile flags: /Odtp /ZI
; File C:\Program Files (x86)\Microsoft Visual Studio\2019\Community\VC\Tools\MSVC\14.27.29110\include\xutility
;	COMDAT ??$_Get_unwrapped@ABQAPAVOBJECTSTRUCT@@@std@@YA@ABQAPAVOBJECTSTRUCT@@@Z
_TEXT	SEGMENT
__It$ = 8						; size = 4
??$_Get_unwrapped@ABQAPAVOBJECTSTRUCT@@@std@@YA@ABQAPAVOBJECTSTRUCT@@@Z PROC ; std::_Get_unwrapped<OBJECTSTRUCT * * const &>, COMDAT

; 1229 : _NODISCARD constexpr decltype(auto) _Get_unwrapped(_Iter&& _It) {

  00000	55		 push	 ebp
  00001	8b ec		 mov	 ebp, esp
  00003	83 ec 40	 sub	 esp, 64			; 00000040H
  00006	53		 push	 ebx
  00007	56		 push	 esi
  00008	57		 push	 edi

; 1230 :     // unwrap an iterator previously subjected to _Adl_verify_range or otherwise validated
; 1231 :     if constexpr (is_pointer_v<decay_t<_Iter>>) { // special-case pointers and arrays
; 1232 :         return _It + 0;

  00009	8b 45 08	 mov	 eax, DWORD PTR __It$[ebp]
  0000c	8b 00		 mov	 eax, DWORD PTR [eax]

; 1233 :     } else if constexpr (_Unwrappable_v<_Iter>) {
; 1234 :         return static_cast<_Iter&&>(_It)._Unwrapped();
; 1235 :     } else {
; 1236 :         return static_cast<_Iter&&>(_It);
; 1237 :     }
; 1238 : }

  0000e	5f		 pop	 edi
  0000f	5e		 pop	 esi
  00010	5b		 pop	 ebx
  00011	8b e5		 mov	 esp, ebp
  00013	5d		 pop	 ebp
  00014	c3		 ret	 0
??$_Get_unwrapped@ABQAPAVOBJECTSTRUCT@@@std@@YA@ABQAPAVOBJECTSTRUCT@@@Z ENDP ; std::_Get_unwrapped<OBJECTSTRUCT * * const &>
_TEXT	ENDS
; Function compile flags: /Odtp /ZI
; File C:\Program Files (x86)\Microsoft Visual Studio\2019\Community\VC\Tools\MSVC\14.27.29110\include\algorithm
;	COMDAT ??$_Partition_by_median_guess_unchecked@PAPAVOBJECTSTRUCT@@P6A_NABQAV1@0@Z@std@@YA?AU?$pair@PAPAVOBJECTSTRUCT@@PAPAV1@@0@PAPAVOBJECTSTRUCT@@0P6A_NABQAV2@1@Z@Z
_TEXT	SEGMENT
__Glast$ = -20						; size = 4
__Gfirst$ = -16						; size = 4
__Plast$ = -12						; size = 4
__Pfirst$ = -8						; size = 4
__Mid$ = -4						; size = 4
___$ReturnUdt$ = 8					; size = 4
__First$ = 12						; size = 4
__Last$ = 16						; size = 4
__Pred$ = 20						; size = 4
??$_Partition_by_median_guess_unchecked@PAPAVOBJECTSTRUCT@@P6A_NABQAV1@0@Z@std@@YA?AU?$pair@PAPAVOBJECTSTRUCT@@PAPAV1@@0@PAPAVOBJECTSTRUCT@@0P6A_NABQAV2@1@Z@Z PROC ; std::_Partition_by_median_guess_unchecked<OBJECTSTRUCT * *,bool (__cdecl*)(OBJECTSTRUCT * const &,OBJECTSTRUCT * const &)>, COMDAT

; 4036 : _CONSTEXPR20 pair<_RanIt, _RanIt> _Partition_by_median_guess_unchecked(_RanIt _First, _RanIt _Last, _Pr _Pred) {

  00000	55		 push	 ebp
  00001	8b ec		 mov	 ebp, esp
  00003	83 ec 54	 sub	 esp, 84			; 00000054H
  00006	53		 push	 ebx
  00007	56		 push	 esi
  00008	57		 push	 edi

; 4037 :     // partition [_First, _Last), using _Pred
; 4038 :     _RanIt _Mid = _First + ((_Last - _First) >> 1); // shift for codegen

  00009	8b 45 10	 mov	 eax, DWORD PTR __Last$[ebp]
  0000c	2b 45 0c	 sub	 eax, DWORD PTR __First$[ebp]
  0000f	c1 f8 02	 sar	 eax, 2
  00012	d1 f8		 sar	 eax, 1
  00014	8b 4d 0c	 mov	 ecx, DWORD PTR __First$[ebp]
  00017	8d 14 81	 lea	 edx, DWORD PTR [ecx+eax*4]
  0001a	89 55 fc	 mov	 DWORD PTR __Mid$[ebp], edx

; 4039 :     _Guess_median_unchecked(_First, _Mid, _Prev_iter(_Last), _Pred);

  0001d	8b 45 14	 mov	 eax, DWORD PTR __Pred$[ebp]
  00020	50		 push	 eax
  00021	8b 4d 10	 mov	 ecx, DWORD PTR __Last$[ebp]
  00024	51		 push	 ecx
  00025	e8 00 00 00 00	 call	 ??$_Prev_iter@PAPAVOBJECTSTRUCT@@@std@@YAPAPAVOBJECTSTRUCT@@PAPAV1@@Z ; std::_Prev_iter<OBJECTSTRUCT * *>
  0002a	83 c4 04	 add	 esp, 4
  0002d	50		 push	 eax
  0002e	8b 55 fc	 mov	 edx, DWORD PTR __Mid$[ebp]
  00031	52		 push	 edx
  00032	8b 45 0c	 mov	 eax, DWORD PTR __First$[ebp]
  00035	50		 push	 eax
  00036	e8 00 00 00 00	 call	 ??$_Guess_median_unchecked@PAPAVOBJECTSTRUCT@@P6A_NABQAV1@0@Z@std@@YAXPAPAVOBJECTSTRUCT@@00P6A_NABQAV1@1@Z@Z ; std::_Guess_median_unchecked<OBJECTSTRUCT * *,bool (__cdecl*)(OBJECTSTRUCT * const &,OBJECTSTRUCT * const &)>
  0003b	83 c4 10	 add	 esp, 16			; 00000010H

; 4040 :     _RanIt _Pfirst = _Mid;

  0003e	8b 45 fc	 mov	 eax, DWORD PTR __Mid$[ebp]
  00041	89 45 f8	 mov	 DWORD PTR __Pfirst$[ebp], eax

; 4041 :     _RanIt _Plast  = _Next_iter(_Pfirst);

  00044	8b 45 f8	 mov	 eax, DWORD PTR __Pfirst$[ebp]
  00047	50		 push	 eax
  00048	e8 00 00 00 00	 call	 ??$_Next_iter@PAPAVOBJECTSTRUCT@@@std@@YAPAPAVOBJECTSTRUCT@@PAPAV1@@Z ; std::_Next_iter<OBJECTSTRUCT * *>
  0004d	83 c4 04	 add	 esp, 4
  00050	89 45 f4	 mov	 DWORD PTR __Plast$[ebp], eax
$LN2@Partition_:

; 4042 : 
; 4043 :     while (_First < _Pfirst && !_DEBUG_LT_PRED(_Pred, *_Prev_iter(_Pfirst), *_Pfirst)
; 4044 :            && !_Pred(*_Pfirst, *_Prev_iter(_Pfirst))) {

  00053	8b 45 0c	 mov	 eax, DWORD PTR __First$[ebp]
  00056	3b 45 f8	 cmp	 eax, DWORD PTR __Pfirst$[ebp]
  00059	73 47		 jae	 SHORT $LN4@Partition_
  0005b	8b 45 f8	 mov	 eax, DWORD PTR __Pfirst$[ebp]
  0005e	50		 push	 eax
  0005f	8b 4d f8	 mov	 ecx, DWORD PTR __Pfirst$[ebp]
  00062	51		 push	 ecx
  00063	e8 00 00 00 00	 call	 ??$_Prev_iter@PAPAVOBJECTSTRUCT@@@std@@YAPAPAVOBJECTSTRUCT@@PAPAV1@@Z ; std::_Prev_iter<OBJECTSTRUCT * *>
  00068	83 c4 04	 add	 esp, 4
  0006b	50		 push	 eax
  0006c	ff 55 14	 call	 DWORD PTR __Pred$[ebp]
  0006f	83 c4 08	 add	 esp, 8
  00072	0f b6 d0	 movzx	 edx, al
  00075	85 d2		 test	 edx, edx
  00077	75 29		 jne	 SHORT $LN4@Partition_
  00079	8b 45 f8	 mov	 eax, DWORD PTR __Pfirst$[ebp]
  0007c	50		 push	 eax
  0007d	e8 00 00 00 00	 call	 ??$_Prev_iter@PAPAVOBJECTSTRUCT@@@std@@YAPAPAVOBJECTSTRUCT@@PAPAV1@@Z ; std::_Prev_iter<OBJECTSTRUCT * *>
  00082	83 c4 04	 add	 esp, 4
  00085	50		 push	 eax
  00086	8b 4d f8	 mov	 ecx, DWORD PTR __Pfirst$[ebp]
  00089	51		 push	 ecx
  0008a	ff 55 14	 call	 DWORD PTR __Pred$[ebp]
  0008d	83 c4 08	 add	 esp, 8
  00090	0f b6 d0	 movzx	 edx, al
  00093	85 d2		 test	 edx, edx
  00095	75 0b		 jne	 SHORT $LN4@Partition_

; 4045 :         --_Pfirst;

  00097	8b 45 f8	 mov	 eax, DWORD PTR __Pfirst$[ebp]
  0009a	83 e8 04	 sub	 eax, 4
  0009d	89 45 f8	 mov	 DWORD PTR __Pfirst$[ebp], eax

; 4046 :     }

  000a0	eb b1		 jmp	 SHORT $LN2@Partition_
$LN4@Partition_:

; 4047 : 
; 4048 :     while (_Plast < _Last && !_DEBUG_LT_PRED(_Pred, *_Plast, *_Pfirst) && !_Pred(*_Pfirst, *_Plast)) {

  000a2	8b 45 f4	 mov	 eax, DWORD PTR __Plast$[ebp]
  000a5	3b 45 10	 cmp	 eax, DWORD PTR __Last$[ebp]
  000a8	73 35		 jae	 SHORT $LN5@Partition_
  000aa	8b 45 f8	 mov	 eax, DWORD PTR __Pfirst$[ebp]
  000ad	50		 push	 eax
  000ae	8b 4d f4	 mov	 ecx, DWORD PTR __Plast$[ebp]
  000b1	51		 push	 ecx
  000b2	ff 55 14	 call	 DWORD PTR __Pred$[ebp]
  000b5	83 c4 08	 add	 esp, 8
  000b8	0f b6 d0	 movzx	 edx, al
  000bb	85 d2		 test	 edx, edx
  000bd	75 20		 jne	 SHORT $LN5@Partition_
  000bf	8b 45 f4	 mov	 eax, DWORD PTR __Plast$[ebp]
  000c2	50		 push	 eax
  000c3	8b 4d f8	 mov	 ecx, DWORD PTR __Pfirst$[ebp]
  000c6	51		 push	 ecx
  000c7	ff 55 14	 call	 DWORD PTR __Pred$[ebp]
  000ca	83 c4 08	 add	 esp, 8
  000cd	0f b6 d0	 movzx	 edx, al
  000d0	85 d2		 test	 edx, edx
  000d2	75 0b		 jne	 SHORT $LN5@Partition_

; 4049 :         ++_Plast;

  000d4	8b 45 f4	 mov	 eax, DWORD PTR __Plast$[ebp]
  000d7	83 c0 04	 add	 eax, 4
  000da	89 45 f4	 mov	 DWORD PTR __Plast$[ebp], eax

; 4050 :     }

  000dd	eb c3		 jmp	 SHORT $LN4@Partition_
$LN5@Partition_:

; 4051 : 
; 4052 :     _RanIt _Gfirst = _Plast;

  000df	8b 45 f4	 mov	 eax, DWORD PTR __Plast$[ebp]
  000e2	89 45 f0	 mov	 DWORD PTR __Gfirst$[ebp], eax

; 4053 :     _RanIt _Glast  = _Pfirst;

  000e5	8b 45 f8	 mov	 eax, DWORD PTR __Pfirst$[ebp]
  000e8	89 45 ec	 mov	 DWORD PTR __Glast$[ebp], eax
$LN8@Partition_:

; 4054 : 
; 4055 :     for (;;) { // partition
; 4056 :         for (; _Gfirst < _Last; ++_Gfirst) {

  000eb	eb 09		 jmp	 SHORT $LN11@Partition_
$LN9@Partition_:
  000ed	8b 45 f0	 mov	 eax, DWORD PTR __Gfirst$[ebp]
  000f0	83 c0 04	 add	 eax, 4
  000f3	89 45 f0	 mov	 DWORD PTR __Gfirst$[ebp], eax
$LN11@Partition_:
  000f6	8b 45 f0	 mov	 eax, DWORD PTR __Gfirst$[ebp]
  000f9	3b 45 10	 cmp	 eax, DWORD PTR __Last$[ebp]
  000fc	73 5e		 jae	 SHORT $LN10@Partition_

; 4057 :             if (_DEBUG_LT_PRED(_Pred, *_Pfirst, *_Gfirst)) {

  000fe	8b 45 f0	 mov	 eax, DWORD PTR __Gfirst$[ebp]
  00101	50		 push	 eax
  00102	8b 4d f8	 mov	 ecx, DWORD PTR __Pfirst$[ebp]
  00105	51		 push	 ecx
  00106	ff 55 14	 call	 DWORD PTR __Pred$[ebp]
  00109	83 c4 08	 add	 esp, 8
  0010c	0f b6 d0	 movzx	 edx, al
  0010f	85 d2		 test	 edx, edx
  00111	74 02		 je	 SHORT $LN15@Partition_
  00113	eb 45		 jmp	 SHORT $LN16@Partition_
$LN15@Partition_:

; 4058 :             } else if (_Pred(*_Gfirst, *_Pfirst)) {

  00115	8b 45 f8	 mov	 eax, DWORD PTR __Pfirst$[ebp]
  00118	50		 push	 eax
  00119	8b 4d f0	 mov	 ecx, DWORD PTR __Gfirst$[ebp]
  0011c	51		 push	 ecx
  0011d	ff 55 14	 call	 DWORD PTR __Pred$[ebp]
  00120	83 c4 08	 add	 esp, 8
  00123	0f b6 d0	 movzx	 edx, al
  00126	85 d2		 test	 edx, edx
  00128	74 04		 je	 SHORT $LN17@Partition_

; 4059 :                 break;

  0012a	eb 30		 jmp	 SHORT $LN10@Partition_
  0012c	eb 2c		 jmp	 SHORT $LN16@Partition_
$LN17@Partition_:

; 4060 :             } else if (_Plast != _Gfirst) {

  0012e	8b 45 f4	 mov	 eax, DWORD PTR __Plast$[ebp]
  00131	3b 45 f0	 cmp	 eax, DWORD PTR __Gfirst$[ebp]
  00134	74 1b		 je	 SHORT $LN19@Partition_

; 4061 :                 _STD iter_swap(_Plast, _Gfirst);

  00136	8b 45 f0	 mov	 eax, DWORD PTR __Gfirst$[ebp]
  00139	50		 push	 eax
  0013a	8b 4d f4	 mov	 ecx, DWORD PTR __Plast$[ebp]
  0013d	51		 push	 ecx
  0013e	e8 00 00 00 00	 call	 ??$iter_swap@PAPAVOBJECTSTRUCT@@PAPAV1@@std@@YAXPAPAVOBJECTSTRUCT@@0@Z ; std::iter_swap<OBJECTSTRUCT * *,OBJECTSTRUCT * *>
  00143	83 c4 08	 add	 esp, 8

; 4062 :                 ++_Plast;

  00146	8b 45 f4	 mov	 eax, DWORD PTR __Plast$[ebp]
  00149	83 c0 04	 add	 eax, 4
  0014c	89 45 f4	 mov	 DWORD PTR __Plast$[ebp], eax

; 4063 :             } else {

  0014f	eb 09		 jmp	 SHORT $LN16@Partition_
$LN19@Partition_:

; 4064 :                 ++_Plast;

  00151	8b 45 f4	 mov	 eax, DWORD PTR __Plast$[ebp]
  00154	83 c0 04	 add	 eax, 4
  00157	89 45 f4	 mov	 DWORD PTR __Plast$[ebp], eax
$LN16@Partition_:

; 4065 :             }
; 4066 :         }

  0015a	eb 91		 jmp	 SHORT $LN9@Partition_
$LN10@Partition_:

; 4067 : 
; 4068 :         for (; _First < _Glast; --_Glast) {

  0015c	eb 09		 jmp	 SHORT $LN14@Partition_
$LN12@Partition_:
  0015e	8b 45 ec	 mov	 eax, DWORD PTR __Glast$[ebp]
  00161	83 e8 04	 sub	 eax, 4
  00164	89 45 ec	 mov	 DWORD PTR __Glast$[ebp], eax
$LN14@Partition_:
  00167	8b 45 0c	 mov	 eax, DWORD PTR __First$[ebp]
  0016a	3b 45 ec	 cmp	 eax, DWORD PTR __Glast$[ebp]
  0016d	73 7a		 jae	 SHORT $LN13@Partition_

; 4069 :             if (_DEBUG_LT_PRED(_Pred, *_Prev_iter(_Glast), *_Pfirst)) {

  0016f	8b 45 f8	 mov	 eax, DWORD PTR __Pfirst$[ebp]
  00172	50		 push	 eax
  00173	8b 4d ec	 mov	 ecx, DWORD PTR __Glast$[ebp]
  00176	51		 push	 ecx
  00177	e8 00 00 00 00	 call	 ??$_Prev_iter@PAPAVOBJECTSTRUCT@@@std@@YAPAPAVOBJECTSTRUCT@@PAPAV1@@Z ; std::_Prev_iter<OBJECTSTRUCT * *>
  0017c	83 c4 04	 add	 esp, 4
  0017f	50		 push	 eax
  00180	ff 55 14	 call	 DWORD PTR __Pred$[ebp]
  00183	83 c4 08	 add	 esp, 8
  00186	0f b6 d0	 movzx	 edx, al
  00189	85 d2		 test	 edx, edx
  0018b	74 02		 je	 SHORT $LN21@Partition_
  0018d	eb 55		 jmp	 SHORT $LN22@Partition_
$LN21@Partition_:

; 4070 :             } else if (_Pred(*_Pfirst, *_Prev_iter(_Glast))) {

  0018f	8b 45 ec	 mov	 eax, DWORD PTR __Glast$[ebp]
  00192	50		 push	 eax
  00193	e8 00 00 00 00	 call	 ??$_Prev_iter@PAPAVOBJECTSTRUCT@@@std@@YAPAPAVOBJECTSTRUCT@@PAPAV1@@Z ; std::_Prev_iter<OBJECTSTRUCT * *>
  00198	83 c4 04	 add	 esp, 4
  0019b	50		 push	 eax
  0019c	8b 4d f8	 mov	 ecx, DWORD PTR __Pfirst$[ebp]
  0019f	51		 push	 ecx
  001a0	ff 55 14	 call	 DWORD PTR __Pred$[ebp]
  001a3	83 c4 08	 add	 esp, 8
  001a6	0f b6 d0	 movzx	 edx, al
  001a9	85 d2		 test	 edx, edx
  001ab	74 04		 je	 SHORT $LN23@Partition_

; 4071 :                 break;

  001ad	eb 3a		 jmp	 SHORT $LN13@Partition_
  001af	eb 33		 jmp	 SHORT $LN22@Partition_
$LN23@Partition_:

; 4072 :             } else if (--_Pfirst != _Prev_iter(_Glast)) {

  001b1	8b 45 f8	 mov	 eax, DWORD PTR __Pfirst$[ebp]
  001b4	83 e8 04	 sub	 eax, 4
  001b7	89 45 f8	 mov	 DWORD PTR __Pfirst$[ebp], eax
  001ba	8b 4d ec	 mov	 ecx, DWORD PTR __Glast$[ebp]
  001bd	51		 push	 ecx
  001be	e8 00 00 00 00	 call	 ??$_Prev_iter@PAPAVOBJECTSTRUCT@@@std@@YAPAPAVOBJECTSTRUCT@@PAPAV1@@Z ; std::_Prev_iter<OBJECTSTRUCT * *>
  001c3	83 c4 04	 add	 esp, 4
  001c6	39 45 f8	 cmp	 DWORD PTR __Pfirst$[ebp], eax
  001c9	74 19		 je	 SHORT $LN22@Partition_

; 4073 :                 _STD iter_swap(_Pfirst, _Prev_iter(_Glast));

  001cb	8b 45 ec	 mov	 eax, DWORD PTR __Glast$[ebp]
  001ce	50		 push	 eax
  001cf	e8 00 00 00 00	 call	 ??$_Prev_iter@PAPAVOBJECTSTRUCT@@@std@@YAPAPAVOBJECTSTRUCT@@PAPAV1@@Z ; std::_Prev_iter<OBJECTSTRUCT * *>
  001d4	83 c4 04	 add	 esp, 4
  001d7	50		 push	 eax
  001d8	8b 4d f8	 mov	 ecx, DWORD PTR __Pfirst$[ebp]
  001db	51		 push	 ecx
  001dc	e8 00 00 00 00	 call	 ??$iter_swap@PAPAVOBJECTSTRUCT@@PAPAV1@@std@@YAXPAPAVOBJECTSTRUCT@@0@Z ; std::iter_swap<OBJECTSTRUCT * *,OBJECTSTRUCT * *>
  001e1	83 c4 08	 add	 esp, 8
$LN22@Partition_:

; 4074 :             }
; 4075 :         }

  001e4	e9 75 ff ff ff	 jmp	 $LN12@Partition_
$LN13@Partition_:

; 4076 : 
; 4077 :         if (_Glast == _First && _Gfirst == _Last) {

  001e9	8b 45 ec	 mov	 eax, DWORD PTR __Glast$[ebp]
  001ec	3b 45 0c	 cmp	 eax, DWORD PTR __First$[ebp]
  001ef	75 20		 jne	 SHORT $LN26@Partition_
  001f1	8b 45 f0	 mov	 eax, DWORD PTR __Gfirst$[ebp]
  001f4	3b 45 10	 cmp	 eax, DWORD PTR __Last$[ebp]
  001f7	75 18		 jne	 SHORT $LN26@Partition_

; 4078 :             return pair<_RanIt, _RanIt>(_Pfirst, _Plast);

  001f9	8d 45 f4	 lea	 eax, DWORD PTR __Plast$[ebp]
  001fc	50		 push	 eax
  001fd	8d 4d f8	 lea	 ecx, DWORD PTR __Pfirst$[ebp]
  00200	51		 push	 ecx
  00201	8b 4d 08	 mov	 ecx, DWORD PTR ___$ReturnUdt$[ebp]
  00204	e8 00 00 00 00	 call	 ??$?0AAPAPAVOBJECTSTRUCT@@AAPAPAV0@$0A@@?$pair@PAPAVOBJECTSTRUCT@@PAPAV1@@std@@QAE@AAPAPAVOBJECTSTRUCT@@0@Z ; std::pair<OBJECTSTRUCT * *,OBJECTSTRUCT * *>::pair<OBJECTSTRUCT * *,OBJECTSTRUCT * *><OBJECTSTRUCT * * &,OBJECTSTRUCT * * &,0>
  00209	8b 45 08	 mov	 eax, DWORD PTR ___$ReturnUdt$[ebp]
  0020c	e9 c1 00 00 00	 jmp	 $LN1@Partition_
$LN26@Partition_:

; 4079 :         }
; 4080 : 
; 4081 :         if (_Glast == _First) { // no room at bottom, rotate pivot upward

  00211	8b 45 ec	 mov	 eax, DWORD PTR __Glast$[ebp]
  00214	3b 45 0c	 cmp	 eax, DWORD PTR __First$[ebp]
  00217	75 45		 jne	 SHORT $LN27@Partition_

; 4082 :             if (_Plast != _Gfirst) {

  00219	8b 45 f4	 mov	 eax, DWORD PTR __Plast$[ebp]
  0021c	3b 45 f0	 cmp	 eax, DWORD PTR __Gfirst$[ebp]
  0021f	74 10		 je	 SHORT $LN29@Partition_

; 4083 :                 _STD iter_swap(_Pfirst, _Plast);

  00221	8b 45 f4	 mov	 eax, DWORD PTR __Plast$[ebp]
  00224	50		 push	 eax
  00225	8b 4d f8	 mov	 ecx, DWORD PTR __Pfirst$[ebp]
  00228	51		 push	 ecx
  00229	e8 00 00 00 00	 call	 ??$iter_swap@PAPAVOBJECTSTRUCT@@PAPAV1@@std@@YAXPAPAVOBJECTSTRUCT@@0@Z ; std::iter_swap<OBJECTSTRUCT * *,OBJECTSTRUCT * *>
  0022e	83 c4 08	 add	 esp, 8
$LN29@Partition_:

; 4084 :             }
; 4085 : 
; 4086 :             ++_Plast;

  00231	8b 45 f4	 mov	 eax, DWORD PTR __Plast$[ebp]
  00234	83 c0 04	 add	 eax, 4
  00237	89 45 f4	 mov	 DWORD PTR __Plast$[ebp], eax

; 4087 :             _STD iter_swap(_Pfirst, _Gfirst);

  0023a	8b 45 f0	 mov	 eax, DWORD PTR __Gfirst$[ebp]
  0023d	50		 push	 eax
  0023e	8b 4d f8	 mov	 ecx, DWORD PTR __Pfirst$[ebp]
  00241	51		 push	 ecx
  00242	e8 00 00 00 00	 call	 ??$iter_swap@PAPAVOBJECTSTRUCT@@PAPAV1@@std@@YAXPAPAVOBJECTSTRUCT@@0@Z ; std::iter_swap<OBJECTSTRUCT * *,OBJECTSTRUCT * *>
  00247	83 c4 08	 add	 esp, 8

; 4088 :             ++_Pfirst;

  0024a	8b 45 f8	 mov	 eax, DWORD PTR __Pfirst$[ebp]
  0024d	83 c0 04	 add	 eax, 4
  00250	89 45 f8	 mov	 DWORD PTR __Pfirst$[ebp], eax

; 4089 :             ++_Gfirst;

  00253	8b 45 f0	 mov	 eax, DWORD PTR __Gfirst$[ebp]
  00256	83 c0 04	 add	 eax, 4
  00259	89 45 f0	 mov	 DWORD PTR __Gfirst$[ebp], eax
  0025c	eb 6f		 jmp	 SHORT $LN28@Partition_
$LN27@Partition_:

; 4090 :         } else if (_Gfirst == _Last) { // no room at top, rotate pivot downward

  0025e	8b 45 f0	 mov	 eax, DWORD PTR __Gfirst$[ebp]
  00261	3b 45 10	 cmp	 eax, DWORD PTR __Last$[ebp]
  00264	75 45		 jne	 SHORT $LN30@Partition_

; 4091 :             if (--_Glast != --_Pfirst) {

  00266	8b 45 ec	 mov	 eax, DWORD PTR __Glast$[ebp]
  00269	83 e8 04	 sub	 eax, 4
  0026c	89 45 ec	 mov	 DWORD PTR __Glast$[ebp], eax
  0026f	8b 4d f8	 mov	 ecx, DWORD PTR __Pfirst$[ebp]
  00272	83 e9 04	 sub	 ecx, 4
  00275	89 4d f8	 mov	 DWORD PTR __Pfirst$[ebp], ecx
  00278	8b 55 ec	 mov	 edx, DWORD PTR __Glast$[ebp]
  0027b	3b 55 f8	 cmp	 edx, DWORD PTR __Pfirst$[ebp]
  0027e	74 10		 je	 SHORT $LN32@Partition_

; 4092 :                 _STD iter_swap(_Glast, _Pfirst);

  00280	8b 45 f8	 mov	 eax, DWORD PTR __Pfirst$[ebp]
  00283	50		 push	 eax
  00284	8b 4d ec	 mov	 ecx, DWORD PTR __Glast$[ebp]
  00287	51		 push	 ecx
  00288	e8 00 00 00 00	 call	 ??$iter_swap@PAPAVOBJECTSTRUCT@@PAPAV1@@std@@YAXPAPAVOBJECTSTRUCT@@0@Z ; std::iter_swap<OBJECTSTRUCT * *,OBJECTSTRUCT * *>
  0028d	83 c4 08	 add	 esp, 8
$LN32@Partition_:

; 4093 :             }
; 4094 : 
; 4095 :             _STD iter_swap(_Pfirst, --_Plast);

  00290	8b 45 f4	 mov	 eax, DWORD PTR __Plast$[ebp]
  00293	83 e8 04	 sub	 eax, 4
  00296	89 45 f4	 mov	 DWORD PTR __Plast$[ebp], eax
  00299	8b 4d f4	 mov	 ecx, DWORD PTR __Plast$[ebp]
  0029c	51		 push	 ecx
  0029d	8b 55 f8	 mov	 edx, DWORD PTR __Pfirst$[ebp]
  002a0	52		 push	 edx
  002a1	e8 00 00 00 00	 call	 ??$iter_swap@PAPAVOBJECTSTRUCT@@PAPAV1@@std@@YAXPAPAVOBJECTSTRUCT@@0@Z ; std::iter_swap<OBJECTSTRUCT * *,OBJECTSTRUCT * *>
  002a6	83 c4 08	 add	 esp, 8

; 4096 :         } else {

  002a9	eb 22		 jmp	 SHORT $LN28@Partition_
$LN30@Partition_:

; 4097 :             _STD iter_swap(_Gfirst, --_Glast);

  002ab	8b 45 ec	 mov	 eax, DWORD PTR __Glast$[ebp]
  002ae	83 e8 04	 sub	 eax, 4
  002b1	89 45 ec	 mov	 DWORD PTR __Glast$[ebp], eax
  002b4	8b 4d ec	 mov	 ecx, DWORD PTR __Glast$[ebp]
  002b7	51		 push	 ecx
  002b8	8b 55 f0	 mov	 edx, DWORD PTR __Gfirst$[ebp]
  002bb	52		 push	 edx
  002bc	e8 00 00 00 00	 call	 ??$iter_swap@PAPAVOBJECTSTRUCT@@PAPAV1@@std@@YAXPAPAVOBJECTSTRUCT@@0@Z ; std::iter_swap<OBJECTSTRUCT * *,OBJECTSTRUCT * *>
  002c1	83 c4 08	 add	 esp, 8

; 4098 :             ++_Gfirst;

  002c4	8b 45 f0	 mov	 eax, DWORD PTR __Gfirst$[ebp]
  002c7	83 c0 04	 add	 eax, 4
  002ca	89 45 f0	 mov	 DWORD PTR __Gfirst$[ebp], eax
$LN28@Partition_:

; 4099 :         }
; 4100 :     }

  002cd	e9 19 fe ff ff	 jmp	 $LN8@Partition_
$LN1@Partition_:

; 4101 : }

  002d2	5f		 pop	 edi
  002d3	5e		 pop	 esi
  002d4	5b		 pop	 ebx
  002d5	8b e5		 mov	 esp, ebp
  002d7	5d		 pop	 ebp
  002d8	c3		 ret	 0
??$_Partition_by_median_guess_unchecked@PAPAVOBJECTSTRUCT@@P6A_NABQAV1@0@Z@std@@YA?AU?$pair@PAPAVOBJECTSTRUCT@@PAPAV1@@0@PAPAVOBJECTSTRUCT@@0P6A_NABQAV2@1@Z@Z ENDP ; std::_Partition_by_median_guess_unchecked<OBJECTSTRUCT * *,bool (__cdecl*)(OBJECTSTRUCT * const &,OBJECTSTRUCT * const &)>
_TEXT	ENDS
; Function compile flags: /Odtp /ZI
; File C:\Program Files (x86)\Microsoft Visual Studio\2019\Community\VC\Tools\MSVC\14.27.29110\include\algorithm
;	COMDAT ??$_Sort_heap_unchecked@PAPAVOBJECTSTRUCT@@P6A_NABQAV1@0@Z@std@@YAXPAPAVOBJECTSTRUCT@@0P6A_NABQAV1@1@Z@Z
_TEXT	SEGMENT
__First$ = 8						; size = 4
__Last$ = 12						; size = 4
__Pred$ = 16						; size = 4
??$_Sort_heap_unchecked@PAPAVOBJECTSTRUCT@@P6A_NABQAV1@0@Z@std@@YAXPAPAVOBJECTSTRUCT@@0P6A_NABQAV1@1@Z@Z PROC ; std::_Sort_heap_unchecked<OBJECTSTRUCT * *,bool (__cdecl*)(OBJECTSTRUCT * const &,OBJECTSTRUCT * const &)>, COMDAT

; 3507 : _CONSTEXPR20 void _Sort_heap_unchecked(_RanIt _First, _RanIt _Last, _Pr _Pred) {

  00000	55		 push	 ebp
  00001	8b ec		 mov	 ebp, esp
  00003	83 ec 40	 sub	 esp, 64			; 00000040H
  00006	53		 push	 ebx
  00007	56		 push	 esi
  00008	57		 push	 edi

; 3508 :     // order heap by repeatedly popping, using _Pred
; 3509 :     for (; 2 <= _Last - _First; --_Last) {

  00009	eb 09		 jmp	 SHORT $LN4@Sort_heap_
$LN2@Sort_heap_:
  0000b	8b 45 0c	 mov	 eax, DWORD PTR __Last$[ebp]
  0000e	83 e8 04	 sub	 eax, 4
  00011	89 45 0c	 mov	 DWORD PTR __Last$[ebp], eax
$LN4@Sort_heap_:
  00014	8b 45 0c	 mov	 eax, DWORD PTR __Last$[ebp]
  00017	2b 45 08	 sub	 eax, DWORD PTR __First$[ebp]
  0001a	c1 f8 02	 sar	 eax, 2
  0001d	83 f8 02	 cmp	 eax, 2
  00020	7c 16		 jl	 SHORT $LN1@Sort_heap_

; 3510 :         _Pop_heap_unchecked(_First, _Last, _Pred);

  00022	8b 45 10	 mov	 eax, DWORD PTR __Pred$[ebp]
  00025	50		 push	 eax
  00026	8b 4d 0c	 mov	 ecx, DWORD PTR __Last$[ebp]
  00029	51		 push	 ecx
  0002a	8b 55 08	 mov	 edx, DWORD PTR __First$[ebp]
  0002d	52		 push	 edx
  0002e	e8 00 00 00 00	 call	 ??$_Pop_heap_unchecked@PAPAVOBJECTSTRUCT@@P6A_NABQAV1@0@Z@std@@YAXPAPAVOBJECTSTRUCT@@0P6A_NABQAV1@1@Z@Z ; std::_Pop_heap_unchecked<OBJECTSTRUCT * *,bool (__cdecl*)(OBJECTSTRUCT * const &,OBJECTSTRUCT * const &)>
  00033	83 c4 0c	 add	 esp, 12			; 0000000cH

; 3511 :     }

  00036	eb d3		 jmp	 SHORT $LN2@Sort_heap_
$LN1@Sort_heap_:

; 3512 : }

  00038	5f		 pop	 edi
  00039	5e		 pop	 esi
  0003a	5b		 pop	 ebx
  0003b	8b e5		 mov	 esp, ebp
  0003d	5d		 pop	 ebp
  0003e	c3		 ret	 0
??$_Sort_heap_unchecked@PAPAVOBJECTSTRUCT@@P6A_NABQAV1@0@Z@std@@YAXPAPAVOBJECTSTRUCT@@0P6A_NABQAV1@1@Z@Z ENDP ; std::_Sort_heap_unchecked<OBJECTSTRUCT * *,bool (__cdecl*)(OBJECTSTRUCT * const &,OBJECTSTRUCT * const &)>
_TEXT	ENDS
; Function compile flags: /Odtp /ZI
; File C:\Program Files (x86)\Microsoft Visual Studio\2019\Community\VC\Tools\MSVC\14.27.29110\include\algorithm
;	COMDAT ??$_Make_heap_unchecked@PAPAVOBJECTSTRUCT@@P6A_NABQAV1@0@Z@std@@YAXPAPAVOBJECTSTRUCT@@0P6A_NABQAV1@1@Z@Z
_TEXT	SEGMENT
__Val$1 = -12						; size = 4
__Hole$2 = -8						; size = 4
__Bottom$ = -4						; size = 4
__First$ = 8						; size = 4
__Last$ = 12						; size = 4
__Pred$ = 16						; size = 4
??$_Make_heap_unchecked@PAPAVOBJECTSTRUCT@@P6A_NABQAV1@0@Z@std@@YAXPAPAVOBJECTSTRUCT@@0P6A_NABQAV1@1@Z@Z PROC ; std::_Make_heap_unchecked<OBJECTSTRUCT * *,bool (__cdecl*)(OBJECTSTRUCT * const &,OBJECTSTRUCT * const &)>, COMDAT

; 3416 : _CONSTEXPR20 void _Make_heap_unchecked(_RanIt _First, _RanIt _Last, _Pr _Pred) {

  00000	55		 push	 ebp
  00001	8b ec		 mov	 ebp, esp
  00003	83 ec 4c	 sub	 esp, 76			; 0000004cH
  00006	53		 push	 ebx
  00007	56		 push	 esi
  00008	57		 push	 edi

; 3417 :     // make nontrivial [_First, _Last) into a heap, using _Pred
; 3418 :     using _Diff   = _Iter_diff_t<_RanIt>;
; 3419 :     _Diff _Bottom = _Last - _First;

  00009	8b 45 0c	 mov	 eax, DWORD PTR __Last$[ebp]
  0000c	2b 45 08	 sub	 eax, DWORD PTR __First$[ebp]
  0000f	c1 f8 02	 sar	 eax, 2
  00012	89 45 fc	 mov	 DWORD PTR __Bottom$[ebp], eax

; 3420 :     for (_Diff _Hole = _Bottom >> 1; 0 < _Hole;) { // shift for codegen

  00015	8b 45 fc	 mov	 eax, DWORD PTR __Bottom$[ebp]
  00018	d1 f8		 sar	 eax, 1
  0001a	89 45 f8	 mov	 DWORD PTR __Hole$2[ebp], eax
$LN4@Make_heap_:
  0001d	83 7d f8 00	 cmp	 DWORD PTR __Hole$2[ebp], 0
  00021	7e 47		 jle	 SHORT $LN1@Make_heap_

; 3421 :         // reheap top half, bottom to top
; 3422 :         --_Hole;

  00023	8b 45 f8	 mov	 eax, DWORD PTR __Hole$2[ebp]
  00026	83 e8 01	 sub	 eax, 1
  00029	89 45 f8	 mov	 DWORD PTR __Hole$2[ebp], eax

; 3423 :         _Iter_value_t<_RanIt> _Val = _STD move(*(_First + _Hole));

  0002c	8b 45 f8	 mov	 eax, DWORD PTR __Hole$2[ebp]
  0002f	8b 4d 08	 mov	 ecx, DWORD PTR __First$[ebp]
  00032	8d 14 81	 lea	 edx, DWORD PTR [ecx+eax*4]
  00035	52		 push	 edx
  00036	e8 00 00 00 00	 call	 ??$move@AAPAVOBJECTSTRUCT@@@std@@YA$$QAPAVOBJECTSTRUCT@@AAPAV1@@Z ; std::move<OBJECTSTRUCT * &>
  0003b	83 c4 04	 add	 esp, 4
  0003e	8b 00		 mov	 eax, DWORD PTR [eax]
  00040	89 45 f4	 mov	 DWORD PTR __Val$1[ebp], eax

; 3424 :         _Pop_heap_hole_by_index(_First, _Hole, _Bottom, _STD move(_Val), _Pred);

  00043	8b 45 10	 mov	 eax, DWORD PTR __Pred$[ebp]
  00046	50		 push	 eax
  00047	8d 4d f4	 lea	 ecx, DWORD PTR __Val$1[ebp]
  0004a	51		 push	 ecx
  0004b	e8 00 00 00 00	 call	 ??$move@AAPAVOBJECTSTRUCT@@@std@@YA$$QAPAVOBJECTSTRUCT@@AAPAV1@@Z ; std::move<OBJECTSTRUCT * &>
  00050	83 c4 04	 add	 esp, 4
  00053	50		 push	 eax
  00054	8b 55 fc	 mov	 edx, DWORD PTR __Bottom$[ebp]
  00057	52		 push	 edx
  00058	8b 45 f8	 mov	 eax, DWORD PTR __Hole$2[ebp]
  0005b	50		 push	 eax
  0005c	8b 4d 08	 mov	 ecx, DWORD PTR __First$[ebp]
  0005f	51		 push	 ecx
  00060	e8 00 00 00 00	 call	 ??$_Pop_heap_hole_by_index@PAPAVOBJECTSTRUCT@@PAV1@P6A_NABQAV1@0@Z@std@@YAXPAPAVOBJECTSTRUCT@@HH$$QAPAV1@P6A_NABQAV1@2@Z@Z ; std::_Pop_heap_hole_by_index<OBJECTSTRUCT * *,OBJECTSTRUCT *,bool (__cdecl*)(OBJECTSTRUCT * const &,OBJECTSTRUCT * const &)>
  00065	83 c4 14	 add	 esp, 20			; 00000014H

; 3425 :     }

  00068	eb b3		 jmp	 SHORT $LN4@Make_heap_
$LN1@Make_heap_:

; 3426 : }

  0006a	5f		 pop	 edi
  0006b	5e		 pop	 esi
  0006c	5b		 pop	 ebx
  0006d	8b e5		 mov	 esp, ebp
  0006f	5d		 pop	 ebp
  00070	c3		 ret	 0
??$_Make_heap_unchecked@PAPAVOBJECTSTRUCT@@P6A_NABQAV1@0@Z@std@@YAXPAPAVOBJECTSTRUCT@@0P6A_NABQAV1@1@Z@Z ENDP ; std::_Make_heap_unchecked<OBJECTSTRUCT * *,bool (__cdecl*)(OBJECTSTRUCT * const &,OBJECTSTRUCT * const &)>
_TEXT	ENDS
; Function compile flags: /Odtp /ZI
; File C:\Program Files (x86)\Microsoft Visual Studio\2019\Community\VC\Tools\MSVC\14.27.29110\include\algorithm
;	COMDAT ??$_Insertion_sort_unchecked@PAPAVOBJECTSTRUCT@@P6A_NABQAV1@0@Z@std@@YAPAPAVOBJECTSTRUCT@@PAPAV1@QAPAV1@P6A_NABQAV1@2@Z@Z
_TEXT	SEGMENT
__First1$1 = -16					; size = 4
__Val$2 = -12						; size = 4
__Next1$3 = -8						; size = 4
__Next$4 = -4						; size = 4
__First$ = 8						; size = 4
__Last$ = 12						; size = 4
__Pred$ = 16						; size = 4
??$_Insertion_sort_unchecked@PAPAVOBJECTSTRUCT@@P6A_NABQAV1@0@Z@std@@YAPAPAVOBJECTSTRUCT@@PAPAV1@QAPAV1@P6A_NABQAV1@2@Z@Z PROC ; std::_Insertion_sort_unchecked<OBJECTSTRUCT * *,bool (__cdecl*)(OBJECTSTRUCT * const &,OBJECTSTRUCT * const &)>, COMDAT

; 3979 : _CONSTEXPR20 _BidIt _Insertion_sort_unchecked(_BidIt _First, const _BidIt _Last, _Pr _Pred) {

  00000	55		 push	 ebp
  00001	8b ec		 mov	 ebp, esp
  00003	83 ec 50	 sub	 esp, 80			; 00000050H
  00006	53		 push	 ebx
  00007	56		 push	 esi
  00008	57		 push	 edi

; 3980 :     // insertion sort [_First, _Last), using _Pred
; 3981 :     if (_First != _Last) {

  00009	8b 45 08	 mov	 eax, DWORD PTR __First$[ebp]
  0000c	3b 45 0c	 cmp	 eax, DWORD PTR __Last$[ebp]
  0000f	0f 84 d2 00 00
	00		 je	 $LN8@Insertion_

; 3982 :         for (_BidIt _Next = _First; ++_Next != _Last;) { // order next element

  00015	8b 45 08	 mov	 eax, DWORD PTR __First$[ebp]
  00018	89 45 fc	 mov	 DWORD PTR __Next$4[ebp], eax
$LN4@Insertion_:
  0001b	8b 45 fc	 mov	 eax, DWORD PTR __Next$4[ebp]
  0001e	83 c0 04	 add	 eax, 4
  00021	89 45 fc	 mov	 DWORD PTR __Next$4[ebp], eax
  00024	8b 4d fc	 mov	 ecx, DWORD PTR __Next$4[ebp]
  00027	3b 4d 0c	 cmp	 ecx, DWORD PTR __Last$[ebp]
  0002a	0f 84 b7 00 00
	00		 je	 $LN8@Insertion_

; 3983 :             _BidIt _Next1              = _Next;

  00030	8b 45 fc	 mov	 eax, DWORD PTR __Next$4[ebp]
  00033	89 45 f8	 mov	 DWORD PTR __Next1$3[ebp], eax

; 3984 :             _Iter_value_t<_BidIt> _Val = _STD move(*_Next);

  00036	8b 45 fc	 mov	 eax, DWORD PTR __Next$4[ebp]
  00039	50		 push	 eax
  0003a	e8 00 00 00 00	 call	 ??$move@AAPAVOBJECTSTRUCT@@@std@@YA$$QAPAVOBJECTSTRUCT@@AAPAV1@@Z ; std::move<OBJECTSTRUCT * &>
  0003f	83 c4 04	 add	 esp, 4
  00042	8b 08		 mov	 ecx, DWORD PTR [eax]
  00044	89 4d f4	 mov	 DWORD PTR __Val$2[ebp], ecx

; 3985 : 
; 3986 :             if (_DEBUG_LT_PRED(_Pred, _Val, *_First)) { // found new earliest element, move to front

  00047	8b 45 08	 mov	 eax, DWORD PTR __First$[ebp]
  0004a	50		 push	 eax
  0004b	8d 4d f4	 lea	 ecx, DWORD PTR __Val$2[ebp]
  0004e	51		 push	 ecx
  0004f	ff 55 10	 call	 DWORD PTR __Pred$[ebp]
  00052	83 c4 08	 add	 esp, 8
  00055	0f b6 d0	 movzx	 edx, al
  00058	85 d2		 test	 edx, edx
  0005a	74 32		 je	 SHORT $LN9@Insertion_

; 3987 :                 _Move_backward_unchecked(_First, _Next, ++_Next1);

  0005c	8b 45 f8	 mov	 eax, DWORD PTR __Next1$3[ebp]
  0005f	83 c0 04	 add	 eax, 4
  00062	89 45 f8	 mov	 DWORD PTR __Next1$3[ebp], eax
  00065	8b 4d f8	 mov	 ecx, DWORD PTR __Next1$3[ebp]
  00068	51		 push	 ecx
  00069	8b 55 fc	 mov	 edx, DWORD PTR __Next$4[ebp]
  0006c	52		 push	 edx
  0006d	8b 45 08	 mov	 eax, DWORD PTR __First$[ebp]
  00070	50		 push	 eax
  00071	e8 00 00 00 00	 call	 ??$_Move_backward_unchecked@PAPAVOBJECTSTRUCT@@PAPAV1@@std@@YAPAPAVOBJECTSTRUCT@@PAPAV1@00@Z ; std::_Move_backward_unchecked<OBJECTSTRUCT * *,OBJECTSTRUCT * *>
  00076	83 c4 0c	 add	 esp, 12			; 0000000cH

; 3988 :                 *_First = _STD move(_Val);

  00079	8d 45 f4	 lea	 eax, DWORD PTR __Val$2[ebp]
  0007c	50		 push	 eax
  0007d	e8 00 00 00 00	 call	 ??$move@AAPAVOBJECTSTRUCT@@@std@@YA$$QAPAVOBJECTSTRUCT@@AAPAV1@@Z ; std::move<OBJECTSTRUCT * &>
  00082	83 c4 04	 add	 esp, 4
  00085	8b 4d 08	 mov	 ecx, DWORD PTR __First$[ebp]
  00088	8b 10		 mov	 edx, DWORD PTR [eax]
  0008a	89 11		 mov	 DWORD PTR [ecx], edx

; 3989 :             } else { // look for insertion point after first

  0008c	eb 54		 jmp	 SHORT $LN10@Insertion_
$LN9@Insertion_:

; 3990 :                 for (_BidIt _First1 = _Next1; _DEBUG_LT_PRED(_Pred, _Val, *--_First1); _Next1 = _First1) {

  0008e	8b 45 f8	 mov	 eax, DWORD PTR __Next1$3[ebp]
  00091	89 45 f0	 mov	 DWORD PTR __First1$1[ebp], eax
  00094	eb 06		 jmp	 SHORT $LN7@Insertion_
$LN5@Insertion_:
  00096	8b 45 f0	 mov	 eax, DWORD PTR __First1$1[ebp]
  00099	89 45 f8	 mov	 DWORD PTR __Next1$3[ebp], eax
$LN7@Insertion_:
  0009c	8b 45 f0	 mov	 eax, DWORD PTR __First1$1[ebp]
  0009f	83 e8 04	 sub	 eax, 4
  000a2	89 45 f0	 mov	 DWORD PTR __First1$1[ebp], eax
  000a5	8b 4d f0	 mov	 ecx, DWORD PTR __First1$1[ebp]
  000a8	51		 push	 ecx
  000a9	8d 55 f4	 lea	 edx, DWORD PTR __Val$2[ebp]
  000ac	52		 push	 edx
  000ad	ff 55 10	 call	 DWORD PTR __Pred$[ebp]
  000b0	83 c4 08	 add	 esp, 8
  000b3	0f b6 c0	 movzx	 eax, al
  000b6	85 c0		 test	 eax, eax
  000b8	74 15		 je	 SHORT $LN6@Insertion_

; 3991 :                     *_Next1 = _STD move(*_First1); // move hole down

  000ba	8b 45 f0	 mov	 eax, DWORD PTR __First1$1[ebp]
  000bd	50		 push	 eax
  000be	e8 00 00 00 00	 call	 ??$move@AAPAVOBJECTSTRUCT@@@std@@YA$$QAPAVOBJECTSTRUCT@@AAPAV1@@Z ; std::move<OBJECTSTRUCT * &>
  000c3	83 c4 04	 add	 esp, 4
  000c6	8b 4d f8	 mov	 ecx, DWORD PTR __Next1$3[ebp]
  000c9	8b 10		 mov	 edx, DWORD PTR [eax]
  000cb	89 11		 mov	 DWORD PTR [ecx], edx

; 3992 :                 }

  000cd	eb c7		 jmp	 SHORT $LN5@Insertion_
$LN6@Insertion_:

; 3993 : 
; 3994 :                 *_Next1 = _STD move(_Val); // insert element in hole

  000cf	8d 45 f4	 lea	 eax, DWORD PTR __Val$2[ebp]
  000d2	50		 push	 eax
  000d3	e8 00 00 00 00	 call	 ??$move@AAPAVOBJECTSTRUCT@@@std@@YA$$QAPAVOBJECTSTRUCT@@AAPAV1@@Z ; std::move<OBJECTSTRUCT * &>
  000d8	83 c4 04	 add	 esp, 4
  000db	8b 4d f8	 mov	 ecx, DWORD PTR __Next1$3[ebp]
  000de	8b 10		 mov	 edx, DWORD PTR [eax]
  000e0	89 11		 mov	 DWORD PTR [ecx], edx
$LN10@Insertion_:

; 3995 :             }
; 3996 :         }

  000e2	e9 34 ff ff ff	 jmp	 $LN4@Insertion_
$LN8@Insertion_:

; 3997 :     }
; 3998 : 
; 3999 :     return _Last;

  000e7	8b 45 0c	 mov	 eax, DWORD PTR __Last$[ebp]

; 4000 : }

  000ea	5f		 pop	 edi
  000eb	5e		 pop	 esi
  000ec	5b		 pop	 ebx
  000ed	8b e5		 mov	 esp, ebp
  000ef	5d		 pop	 ebp
  000f0	c3		 ret	 0
??$_Insertion_sort_unchecked@PAPAVOBJECTSTRUCT@@P6A_NABQAV1@0@Z@std@@YAPAPAVOBJECTSTRUCT@@PAPAV1@QAPAV1@P6A_NABQAV1@2@Z@Z ENDP ; std::_Insertion_sort_unchecked<OBJECTSTRUCT * *,bool (__cdecl*)(OBJECTSTRUCT * const &,OBJECTSTRUCT * const &)>
_TEXT	ENDS
; Function compile flags: /Odtp /ZI
; File C:\Program Files (x86)\Microsoft Visual Studio\2019\Community\VC\Tools\MSVC\14.27.29110\include\xmemory
;	COMDAT ??$_Uninitialized_move@PAPAVOBJECTSTRUCT@@V?$allocator@PAVOBJECTSTRUCT@@@std@@@std@@YAPAPAVOBJECTSTRUCT@@QAPAV1@0PAPAV1@AAV?$allocator@PAVOBJECTSTRUCT@@@0@@Z
_TEXT	SEGMENT
__ULast$ = -8						; size = 4
__UFirst$ = -4						; size = 4
__First$ = 8						; size = 4
__Last$ = 12						; size = 4
__Dest$ = 16						; size = 4
__Al$ = 20						; size = 4
??$_Uninitialized_move@PAPAVOBJECTSTRUCT@@V?$allocator@PAVOBJECTSTRUCT@@@std@@@std@@YAPAPAVOBJECTSTRUCT@@QAPAV1@0PAPAV1@AAV?$allocator@PAVOBJECTSTRUCT@@@0@@Z PROC ; std::_Uninitialized_move<OBJECTSTRUCT * *,std::allocator<OBJECTSTRUCT *> >, COMDAT

; 1647 :     const _InIt _First, const _InIt _Last, _Alloc_ptr_t<_Alloc> _Dest, _Alloc& _Al) {

  00000	55		 push	 ebp
  00001	8b ec		 mov	 ebp, esp
  00003	83 ec 48	 sub	 esp, 72			; 00000048H
  00006	53		 push	 ebx
  00007	56		 push	 esi
  00008	57		 push	 edi

; 1648 :     // move [_First, _Last) to raw _Dest, using _Al
; 1649 :     // note: only called internally from elsewhere in the STL
; 1650 :     using _Ptrval     = typename _Alloc::value_type*;
; 1651 :     auto _UFirst      = _Get_unwrapped(_First);

  00009	8d 45 08	 lea	 eax, DWORD PTR __First$[ebp]
  0000c	50		 push	 eax
  0000d	e8 00 00 00 00	 call	 ??$_Get_unwrapped@ABQAPAVOBJECTSTRUCT@@@std@@YA@ABQAPAVOBJECTSTRUCT@@@Z ; std::_Get_unwrapped<OBJECTSTRUCT * * const &>
  00012	83 c4 04	 add	 esp, 4
  00015	89 45 fc	 mov	 DWORD PTR __UFirst$[ebp], eax

; 1652 :     const auto _ULast = _Get_unwrapped(_Last);

  00018	8d 45 0c	 lea	 eax, DWORD PTR __Last$[ebp]
  0001b	50		 push	 eax
  0001c	e8 00 00 00 00	 call	 ??$_Get_unwrapped@ABQAPAVOBJECTSTRUCT@@@std@@YA@ABQAPAVOBJECTSTRUCT@@@Z ; std::_Get_unwrapped<OBJECTSTRUCT * * const &>
  00021	83 c4 04	 add	 esp, 4
  00024	89 45 f8	 mov	 DWORD PTR __ULast$[ebp], eax

; 1653 :     if constexpr (conjunction_v<bool_constant<_Ptr_move_cat<decltype(_UFirst), _Ptrval>::_Really_trivial>,
; 1654 :                       _Uses_default_construct<_Alloc, _Ptrval, decltype(_STD move(*_UFirst))>>) {
; 1655 :         _Copy_memmove(_UFirst, _ULast, _Unfancy(_Dest));

  00027	8b 45 10	 mov	 eax, DWORD PTR __Dest$[ebp]
  0002a	50		 push	 eax
  0002b	e8 00 00 00 00	 call	 ??$_Unfancy@PAVOBJECTSTRUCT@@@std@@YAPAPAVOBJECTSTRUCT@@PAPAV1@@Z ; std::_Unfancy<OBJECTSTRUCT *>
  00030	83 c4 04	 add	 esp, 4
  00033	50		 push	 eax
  00034	8b 4d f8	 mov	 ecx, DWORD PTR __ULast$[ebp]
  00037	51		 push	 ecx
  00038	8b 55 fc	 mov	 edx, DWORD PTR __UFirst$[ebp]
  0003b	52		 push	 edx
  0003c	e8 00 00 00 00	 call	 ??$_Copy_memmove@PAPAVOBJECTSTRUCT@@PAPAV1@@std@@YAPAPAVOBJECTSTRUCT@@PAPAV1@00@Z ; std::_Copy_memmove<OBJECTSTRUCT * *,OBJECTSTRUCT * *>
  00041	83 c4 0c	 add	 esp, 12			; 0000000cH

; 1656 :         return _Dest + (_ULast - _UFirst);

  00044	8b 45 f8	 mov	 eax, DWORD PTR __ULast$[ebp]
  00047	2b 45 fc	 sub	 eax, DWORD PTR __UFirst$[ebp]
  0004a	c1 f8 02	 sar	 eax, 2
  0004d	8b 4d 10	 mov	 ecx, DWORD PTR __Dest$[ebp]
  00050	8d 04 81	 lea	 eax, DWORD PTR [ecx+eax*4]

; 1657 :     } else {
; 1658 :         _Uninitialized_backout_al<_Alloc> _Backout{_Dest, _Al};
; 1659 :         for (; _UFirst != _ULast; ++_UFirst) {
; 1660 :             _Backout._Emplace_back(_STD move(*_UFirst));
; 1661 :         }
; 1662 : 
; 1663 :         return _Backout._Release();
; 1664 :     }
; 1665 : }

  00053	5f		 pop	 edi
  00054	5e		 pop	 esi
  00055	5b		 pop	 ebx
  00056	8b e5		 mov	 esp, ebp
  00058	5d		 pop	 ebp
  00059	c3		 ret	 0
??$_Uninitialized_move@PAPAVOBJECTSTRUCT@@V?$allocator@PAVOBJECTSTRUCT@@@std@@@std@@YAPAPAVOBJECTSTRUCT@@QAPAV1@0PAPAV1@AAV?$allocator@PAVOBJECTSTRUCT@@@0@@Z ENDP ; std::_Uninitialized_move<OBJECTSTRUCT * *,std::allocator<OBJECTSTRUCT *> >
_TEXT	ENDS
; Function compile flags: /Odtp /ZI
; File C:\Program Files (x86)\Microsoft Visual Studio\2019\Community\VC\Tools\MSVC\14.27.29110\include\algorithm
;	COMDAT ??$_Sort_unchecked@PAPAVOBJECTSTRUCT@@P6A_NABQAV1@0@Z@std@@YAXPAPAVOBJECTSTRUCT@@0HP6A_NABQAV1@1@Z@Z
_TEXT	SEGMENT
__Mid$1 = -8						; size = 8
__First$ = 8						; size = 4
__Last$ = 12						; size = 4
__Ideal$ = 16						; size = 4
__Pred$ = 20						; size = 4
??$_Sort_unchecked@PAPAVOBJECTSTRUCT@@P6A_NABQAV1@0@Z@std@@YAXPAPAVOBJECTSTRUCT@@0HP6A_NABQAV1@1@Z@Z PROC ; std::_Sort_unchecked<OBJECTSTRUCT * *,bool (__cdecl*)(OBJECTSTRUCT * const &,OBJECTSTRUCT * const &)>, COMDAT

; 4104 : _CONSTEXPR20 void _Sort_unchecked(_RanIt _First, _RanIt _Last, _Iter_diff_t<_RanIt> _Ideal, _Pr _Pred) {

  00000	55		 push	 ebp
  00001	8b ec		 mov	 ebp, esp
  00003	83 ec 48	 sub	 esp, 72			; 00000048H
  00006	53		 push	 ebx
  00007	56		 push	 esi
  00008	57		 push	 edi
$LN4@Sort_unche:

; 4105 :     // order [_First, _Last), using _Pred
; 4106 :     for (;;) {
; 4107 :         if (_Last - _First <= _ISORT_MAX) { // small

  00009	8b 45 0c	 mov	 eax, DWORD PTR __Last$[ebp]
  0000c	2b 45 08	 sub	 eax, DWORD PTR __First$[ebp]
  0000f	c1 f8 02	 sar	 eax, 2
  00012	83 f8 20	 cmp	 eax, 32			; 00000020H
  00015	7f 19		 jg	 SHORT $LN5@Sort_unche

; 4108 :             _Insertion_sort_unchecked(_First, _Last, _Pred);

  00017	8b 45 14	 mov	 eax, DWORD PTR __Pred$[ebp]
  0001a	50		 push	 eax
  0001b	8b 4d 0c	 mov	 ecx, DWORD PTR __Last$[ebp]
  0001e	51		 push	 ecx
  0001f	8b 55 08	 mov	 edx, DWORD PTR __First$[ebp]
  00022	52		 push	 edx
  00023	e8 00 00 00 00	 call	 ??$_Insertion_sort_unchecked@PAPAVOBJECTSTRUCT@@P6A_NABQAV1@0@Z@std@@YAPAPAVOBJECTSTRUCT@@PAPAV1@QAPAV1@P6A_NABQAV1@2@Z@Z ; std::_Insertion_sort_unchecked<OBJECTSTRUCT * *,bool (__cdecl*)(OBJECTSTRUCT * const &,OBJECTSTRUCT * const &)>
  00028	83 c4 0c	 add	 esp, 12			; 0000000cH

; 4109 :             return;

  0002b	e9 b4 00 00 00	 jmp	 $LN1@Sort_unche
$LN5@Sort_unche:

; 4110 :         }
; 4111 : 
; 4112 :         if (_Ideal <= 0) { // heap sort if too many divisions

  00030	83 7d 10 00	 cmp	 DWORD PTR __Ideal$[ebp], 0
  00034	7f 2d		 jg	 SHORT $LN6@Sort_unche

; 4113 :             _Make_heap_unchecked(_First, _Last, _Pred);

  00036	8b 45 14	 mov	 eax, DWORD PTR __Pred$[ebp]
  00039	50		 push	 eax
  0003a	8b 4d 0c	 mov	 ecx, DWORD PTR __Last$[ebp]
  0003d	51		 push	 ecx
  0003e	8b 55 08	 mov	 edx, DWORD PTR __First$[ebp]
  00041	52		 push	 edx
  00042	e8 00 00 00 00	 call	 ??$_Make_heap_unchecked@PAPAVOBJECTSTRUCT@@P6A_NABQAV1@0@Z@std@@YAXPAPAVOBJECTSTRUCT@@0P6A_NABQAV1@1@Z@Z ; std::_Make_heap_unchecked<OBJECTSTRUCT * *,bool (__cdecl*)(OBJECTSTRUCT * const &,OBJECTSTRUCT * const &)>
  00047	83 c4 0c	 add	 esp, 12			; 0000000cH

; 4114 :             _Sort_heap_unchecked(_First, _Last, _Pred);

  0004a	8b 45 14	 mov	 eax, DWORD PTR __Pred$[ebp]
  0004d	50		 push	 eax
  0004e	8b 4d 0c	 mov	 ecx, DWORD PTR __Last$[ebp]
  00051	51		 push	 ecx
  00052	8b 55 08	 mov	 edx, DWORD PTR __First$[ebp]
  00055	52		 push	 edx
  00056	e8 00 00 00 00	 call	 ??$_Sort_heap_unchecked@PAPAVOBJECTSTRUCT@@P6A_NABQAV1@0@Z@std@@YAXPAPAVOBJECTSTRUCT@@0P6A_NABQAV1@1@Z@Z ; std::_Sort_heap_unchecked<OBJECTSTRUCT * *,bool (__cdecl*)(OBJECTSTRUCT * const &,OBJECTSTRUCT * const &)>
  0005b	83 c4 0c	 add	 esp, 12			; 0000000cH

; 4115 :             return;

  0005e	e9 81 00 00 00	 jmp	 $LN1@Sort_unche
$LN6@Sort_unche:

; 4116 :         }
; 4117 : 
; 4118 :         // divide and conquer by quicksort
; 4119 :         auto _Mid = _Partition_by_median_guess_unchecked(_First, _Last, _Pred);

  00063	8b 45 14	 mov	 eax, DWORD PTR __Pred$[ebp]
  00066	50		 push	 eax
  00067	8b 4d 0c	 mov	 ecx, DWORD PTR __Last$[ebp]
  0006a	51		 push	 ecx
  0006b	8b 55 08	 mov	 edx, DWORD PTR __First$[ebp]
  0006e	52		 push	 edx
  0006f	8d 45 f8	 lea	 eax, DWORD PTR __Mid$1[ebp]
  00072	50		 push	 eax
  00073	e8 00 00 00 00	 call	 ??$_Partition_by_median_guess_unchecked@PAPAVOBJECTSTRUCT@@P6A_NABQAV1@0@Z@std@@YA?AU?$pair@PAPAVOBJECTSTRUCT@@PAPAV1@@0@PAPAVOBJECTSTRUCT@@0P6A_NABQAV2@1@Z@Z ; std::_Partition_by_median_guess_unchecked<OBJECTSTRUCT * *,bool (__cdecl*)(OBJECTSTRUCT * const &,OBJECTSTRUCT * const &)>
  00078	83 c4 10	 add	 esp, 16			; 00000010H

; 4120 : 
; 4121 :         _Ideal = (_Ideal >> 1) + (_Ideal >> 2); // allow 1.5 log2(N) divisions

  0007b	8b 45 10	 mov	 eax, DWORD PTR __Ideal$[ebp]
  0007e	d1 f8		 sar	 eax, 1
  00080	8b 4d 10	 mov	 ecx, DWORD PTR __Ideal$[ebp]
  00083	c1 f9 02	 sar	 ecx, 2
  00086	03 c1		 add	 eax, ecx
  00088	89 45 10	 mov	 DWORD PTR __Ideal$[ebp], eax

; 4122 : 
; 4123 :         if (_Mid.first - _First < _Last - _Mid.second) { // loop on second half

  0008b	8b 45 f8	 mov	 eax, DWORD PTR __Mid$1[ebp]
  0008e	2b 45 08	 sub	 eax, DWORD PTR __First$[ebp]
  00091	c1 f8 02	 sar	 eax, 2
  00094	8b 4d 0c	 mov	 ecx, DWORD PTR __Last$[ebp]
  00097	2b 4d fc	 sub	 ecx, DWORD PTR __Mid$1[ebp+4]
  0009a	c1 f9 02	 sar	 ecx, 2
  0009d	3b c1		 cmp	 eax, ecx
  0009f	7d 20		 jge	 SHORT $LN7@Sort_unche

; 4124 :             _Sort_unchecked(_First, _Mid.first, _Ideal, _Pred);

  000a1	8b 45 14	 mov	 eax, DWORD PTR __Pred$[ebp]
  000a4	50		 push	 eax
  000a5	8b 4d 10	 mov	 ecx, DWORD PTR __Ideal$[ebp]
  000a8	51		 push	 ecx
  000a9	8b 55 f8	 mov	 edx, DWORD PTR __Mid$1[ebp]
  000ac	52		 push	 edx
  000ad	8b 45 08	 mov	 eax, DWORD PTR __First$[ebp]
  000b0	50		 push	 eax
  000b1	e8 00 00 00 00	 call	 ??$_Sort_unchecked@PAPAVOBJECTSTRUCT@@P6A_NABQAV1@0@Z@std@@YAXPAPAVOBJECTSTRUCT@@0HP6A_NABQAV1@1@Z@Z ; std::_Sort_unchecked<OBJECTSTRUCT * *,bool (__cdecl*)(OBJECTSTRUCT * const &,OBJECTSTRUCT * const &)>
  000b6	83 c4 10	 add	 esp, 16			; 00000010H

; 4125 :             _First = _Mid.second;

  000b9	8b 45 fc	 mov	 eax, DWORD PTR __Mid$1[ebp+4]
  000bc	89 45 08	 mov	 DWORD PTR __First$[ebp], eax

; 4126 :         } else { // loop on first half

  000bf	eb 1e		 jmp	 SHORT $LN8@Sort_unche
$LN7@Sort_unche:

; 4127 :             _Sort_unchecked(_Mid.second, _Last, _Ideal, _Pred);

  000c1	8b 45 14	 mov	 eax, DWORD PTR __Pred$[ebp]
  000c4	50		 push	 eax
  000c5	8b 4d 10	 mov	 ecx, DWORD PTR __Ideal$[ebp]
  000c8	51		 push	 ecx
  000c9	8b 55 0c	 mov	 edx, DWORD PTR __Last$[ebp]
  000cc	52		 push	 edx
  000cd	8b 45 fc	 mov	 eax, DWORD PTR __Mid$1[ebp+4]
  000d0	50		 push	 eax
  000d1	e8 00 00 00 00	 call	 ??$_Sort_unchecked@PAPAVOBJECTSTRUCT@@P6A_NABQAV1@0@Z@std@@YAXPAPAVOBJECTSTRUCT@@0HP6A_NABQAV1@1@Z@Z ; std::_Sort_unchecked<OBJECTSTRUCT * *,bool (__cdecl*)(OBJECTSTRUCT * const &,OBJECTSTRUCT * const &)>
  000d6	83 c4 10	 add	 esp, 16			; 00000010H

; 4128 :             _Last = _Mid.first;

  000d9	8b 45 f8	 mov	 eax, DWORD PTR __Mid$1[ebp]
  000dc	89 45 0c	 mov	 DWORD PTR __Last$[ebp], eax
$LN8@Sort_unche:

; 4129 :         }
; 4130 :     }

  000df	e9 25 ff ff ff	 jmp	 $LN4@Sort_unche
$LN1@Sort_unche:

; 4131 : }

  000e4	5f		 pop	 edi
  000e5	5e		 pop	 esi
  000e6	5b		 pop	 ebx
  000e7	8b e5		 mov	 esp, ebp
  000e9	5d		 pop	 ebp
  000ea	c3		 ret	 0
??$_Sort_unchecked@PAPAVOBJECTSTRUCT@@P6A_NABQAV1@0@Z@std@@YAXPAPAVOBJECTSTRUCT@@0HP6A_NABQAV1@1@Z@Z ENDP ; std::_Sort_unchecked<OBJECTSTRUCT * *,bool (__cdecl*)(OBJECTSTRUCT * const &,OBJECTSTRUCT * const &)>
_TEXT	ENDS
; Function compile flags: /Odtp /ZI
; File C:\Program Files (x86)\Microsoft Visual Studio\2019\Community\VC\Tools\MSVC\14.27.29110\include\xutility
;	COMDAT ??$_Pass_fn@P6A_NABQAVOBJECTSTRUCT@@0@Z$0A@@std@@YAP6A_NABQAVOBJECTSTRUCT@@0@ZP6A_N00@Z@Z
_TEXT	SEGMENT
__Val$ = 8						; size = 4
??$_Pass_fn@P6A_NABQAVOBJECTSTRUCT@@0@Z$0A@@std@@YAP6A_NABQAVOBJECTSTRUCT@@0@ZP6A_N00@Z@Z PROC ; std::_Pass_fn<bool (__cdecl*)(OBJECTSTRUCT * const &,OBJECTSTRUCT * const &),0>, COMDAT

; 205  : constexpr _Fn _Pass_fn(_Fn _Val) { // pass functor by value

  00000	55		 push	 ebp
  00001	8b ec		 mov	 ebp, esp
  00003	83 ec 40	 sub	 esp, 64			; 00000040H
  00006	53		 push	 ebx
  00007	56		 push	 esi
  00008	57		 push	 edi

; 206  :     return _Val;

  00009	8b 45 08	 mov	 eax, DWORD PTR __Val$[ebp]

; 207  : }

  0000c	5f		 pop	 edi
  0000d	5e		 pop	 esi
  0000e	5b		 pop	 ebx
  0000f	8b e5		 mov	 esp, ebp
  00011	5d		 pop	 ebp
  00012	c3		 ret	 0
??$_Pass_fn@P6A_NABQAVOBJECTSTRUCT@@0@Z$0A@@std@@YAP6A_NABQAVOBJECTSTRUCT@@0@ZP6A_N00@Z@Z ENDP ; std::_Pass_fn<bool (__cdecl*)(OBJECTSTRUCT * const &,OBJECTSTRUCT * const &),0>
_TEXT	ENDS
; Function compile flags: /Odtp /ZI
; File C:\Program Files (x86)\Microsoft Visual Studio\2019\Community\VC\Tools\MSVC\14.27.29110\include\xutility
;	COMDAT ??$_Get_unwrapped@ABV?$_Vector_iterator@V?$_Vector_val@U?$_Simple_types@PAVOBJECTSTRUCT@@@std@@@std@@@std@@@std@@YA@ABV?$_Vector_iterator@V?$_Vector_val@U?$_Simple_types@PAVOBJECTSTRUCT@@@std@@@std@@@0@@Z
_TEXT	SEGMENT
__It$ = 8						; size = 4
??$_Get_unwrapped@ABV?$_Vector_iterator@V?$_Vector_val@U?$_Simple_types@PAVOBJECTSTRUCT@@@std@@@std@@@std@@@std@@YA@ABV?$_Vector_iterator@V?$_Vector_val@U?$_Simple_types@PAVOBJECTSTRUCT@@@std@@@std@@@0@@Z PROC ; std::_Get_unwrapped<std::_Vector_iterator<std::_Vector_val<std::_Simple_types<OBJECTSTRUCT *> > > const &>, COMDAT

; 1229 : _NODISCARD constexpr decltype(auto) _Get_unwrapped(_Iter&& _It) {

  00000	55		 push	 ebp
  00001	8b ec		 mov	 ebp, esp
  00003	83 ec 40	 sub	 esp, 64			; 00000040H
  00006	53		 push	 ebx
  00007	56		 push	 esi
  00008	57		 push	 edi

; 1230 :     // unwrap an iterator previously subjected to _Adl_verify_range or otherwise validated
; 1231 :     if constexpr (is_pointer_v<decay_t<_Iter>>) { // special-case pointers and arrays
; 1232 :         return _It + 0;
; 1233 :     } else if constexpr (_Unwrappable_v<_Iter>) {
; 1234 :         return static_cast<_Iter&&>(_It)._Unwrapped();

  00009	8b 4d 08	 mov	 ecx, DWORD PTR __It$[ebp]
  0000c	e8 00 00 00 00	 call	 ?_Unwrapped@?$_Vector_iterator@V?$_Vector_val@U?$_Simple_types@PAVOBJECTSTRUCT@@@std@@@std@@@std@@QBEPAPAVOBJECTSTRUCT@@XZ ; std::_Vector_iterator<std::_Vector_val<std::_Simple_types<OBJECTSTRUCT *> > >::_Unwrapped

; 1235 :     } else {
; 1236 :         return static_cast<_Iter&&>(_It);
; 1237 :     }
; 1238 : }

  00011	5f		 pop	 edi
  00012	5e		 pop	 esi
  00013	5b		 pop	 ebx
  00014	8b e5		 mov	 esp, ebp
  00016	5d		 pop	 ebp
  00017	c3		 ret	 0
??$_Get_unwrapped@ABV?$_Vector_iterator@V?$_Vector_val@U?$_Simple_types@PAVOBJECTSTRUCT@@@std@@@std@@@std@@@std@@YA@ABV?$_Vector_iterator@V?$_Vector_val@U?$_Simple_types@PAVOBJECTSTRUCT@@@std@@@std@@@0@@Z ENDP ; std::_Get_unwrapped<std::_Vector_iterator<std::_Vector_val<std::_Simple_types<OBJECTSTRUCT *> > > const &>
_TEXT	ENDS
; Function compile flags: /Odtp /ZI
; File C:\Program Files (x86)\Microsoft Visual Studio\2019\Community\VC\Tools\MSVC\14.27.29110\include\xutility
;	COMDAT ??$_Adl_verify_range@V?$_Vector_iterator@V?$_Vector_val@U?$_Simple_types@PAVOBJECTSTRUCT@@@std@@@std@@@std@@V12@@std@@YAXABV?$_Vector_iterator@V?$_Vector_val@U?$_Simple_types@PAVOBJECTSTRUCT@@@std@@@std@@@0@0@Z
_TEXT	SEGMENT
__First$ = 8						; size = 4
__Last$ = 12						; size = 4
??$_Adl_verify_range@V?$_Vector_iterator@V?$_Vector_val@U?$_Simple_types@PAVOBJECTSTRUCT@@@std@@@std@@@std@@V12@@std@@YAXABV?$_Vector_iterator@V?$_Vector_val@U?$_Simple_types@PAVOBJECTSTRUCT@@@std@@@std@@@0@0@Z PROC ; std::_Adl_verify_range<std::_Vector_iterator<std::_Vector_val<std::_Simple_types<OBJECTSTRUCT *> > >,std::_Vector_iterator<std::_Vector_val<std::_Simple_types<OBJECTSTRUCT *> > > >, COMDAT

; 1192 : constexpr void _Adl_verify_range(const _Iter& _First, const _Sentinel& _Last) {

  00000	55		 push	 ebp
  00001	8b ec		 mov	 ebp, esp
  00003	83 ec 40	 sub	 esp, 64			; 00000040H
  00006	53		 push	 ebx
  00007	56		 push	 esi
  00008	57		 push	 edi

; 1193 :     // check that [_First, _Last) forms an iterator range
; 1194 :     if constexpr (_Range_verifiable_v<_Iter, _Sentinel>) {
; 1195 :         _Verify_range(_First, _Last);
; 1196 :     }
; 1197 : }

  00009	5f		 pop	 edi
  0000a	5e		 pop	 esi
  0000b	5b		 pop	 ebx
  0000c	8b e5		 mov	 esp, ebp
  0000e	5d		 pop	 ebp
  0000f	c3		 ret	 0
??$_Adl_verify_range@V?$_Vector_iterator@V?$_Vector_val@U?$_Simple_types@PAVOBJECTSTRUCT@@@std@@@std@@@std@@V12@@std@@YAXABV?$_Vector_iterator@V?$_Vector_val@U?$_Simple_types@PAVOBJECTSTRUCT@@@std@@@std@@@0@0@Z ENDP ; std::_Adl_verify_range<std::_Vector_iterator<std::_Vector_val<std::_Simple_types<OBJECTSTRUCT *> > >,std::_Vector_iterator<std::_Vector_val<std::_Simple_types<OBJECTSTRUCT *> > > >
_TEXT	ENDS
; Function compile flags: /Odtp /ZI
; File C:\Program Files (x86)\Microsoft Visual Studio\2019\Community\VC\Tools\MSVC\14.27.29110\include\xmemory
;	COMDAT ??$_Destroy_range@V?$allocator@PAVOBJECTSTRUCT@@@std@@@std@@YAXPAPAVOBJECTSTRUCT@@QAPAV1@AAV?$allocator@PAVOBJECTSTRUCT@@@0@@Z
_TEXT	SEGMENT
__First$ = 8						; size = 4
__Last$ = 12						; size = 4
__Al$ = 16						; size = 4
??$_Destroy_range@V?$allocator@PAVOBJECTSTRUCT@@@std@@@std@@YAXPAPAVOBJECTSTRUCT@@QAPAV1@AAV?$allocator@PAVOBJECTSTRUCT@@@0@@Z PROC ; std::_Destroy_range<std::allocator<OBJECTSTRUCT *> >, COMDAT

; 955  : void _Destroy_range(_Alloc_ptr_t<_Alloc> _First, const _Alloc_ptr_t<_Alloc> _Last, _Alloc& _Al) noexcept {

  00000	55		 push	 ebp
  00001	8b ec		 mov	 ebp, esp
  00003	83 ec 40	 sub	 esp, 64			; 00000040H
  00006	53		 push	 ebx
  00007	56		 push	 esi
  00008	57		 push	 edi

; 956  :     // note that this is an optimization for debug mode codegen; in release mode the BE removes all of this
; 957  :     using _Ty = typename _Alloc::value_type;
; 958  :     if _CONSTEXPR_IF (!conjunction_v<is_trivially_destructible<_Ty>, _Uses_default_destroy<_Alloc, _Ty*>>) {
; 959  :         for (; _First != _Last; ++_First) {
; 960  :             allocator_traits<_Alloc>::destroy(_Al, _Unfancy(_First));
; 961  :         }
; 962  :     }
; 963  : }

  00009	5f		 pop	 edi
  0000a	5e		 pop	 esi
  0000b	5b		 pop	 ebx
  0000c	8b e5		 mov	 esp, ebp
  0000e	5d		 pop	 ebp
  0000f	c3		 ret	 0
??$_Destroy_range@V?$allocator@PAVOBJECTSTRUCT@@@std@@@std@@YAXPAPAVOBJECTSTRUCT@@QAPAV1@AAV?$allocator@PAVOBJECTSTRUCT@@@0@@Z ENDP ; std::_Destroy_range<std::allocator<OBJECTSTRUCT *> >
_TEXT	ENDS
; Function compile flags: /Odtp /ZI
; File C:\Program Files (x86)\Microsoft Visual Studio\2019\Community\VC\Tools\MSVC\14.27.29110\include\xmemory
;	COMDAT ??$?0$$V@?$_Compressed_pair@V?$allocator@PAVOBJECTSTRUCT@@@std@@V?$_Vector_val@U?$_Simple_types@PAVOBJECTSTRUCT@@@std@@@2@$00@std@@QAE@U_Zero_then_variadic_args_t@1@@Z
_TEXT	SEGMENT
_this$ = -4						; size = 4
___formal$ = 8						; size = 1
??$?0$$V@?$_Compressed_pair@V?$allocator@PAVOBJECTSTRUCT@@@std@@V?$_Vector_val@U?$_Simple_types@PAVOBJECTSTRUCT@@@std@@@2@$00@std@@QAE@U_Zero_then_variadic_args_t@1@@Z PROC ; std::_Compressed_pair<std::allocator<OBJECTSTRUCT *>,std::_Vector_val<std::_Simple_types<OBJECTSTRUCT *> >,1>::_Compressed_pair<std::allocator<OBJECTSTRUCT *>,std::_Vector_val<std::_Simple_types<OBJECTSTRUCT *> >,1><>, COMDAT
; _this$ = ecx

; 1336 :         : _Ty1(), _Myval2(_STD forward<_Other2>(_Val2)...) {}

  00000	55		 push	 ebp
  00001	8b ec		 mov	 ebp, esp
  00003	83 ec 44	 sub	 esp, 68			; 00000044H
  00006	53		 push	 ebx
  00007	56		 push	 esi
  00008	57		 push	 edi
  00009	89 4d fc	 mov	 DWORD PTR _this$[ebp], ecx
  0000c	8b 4d fc	 mov	 ecx, DWORD PTR _this$[ebp]
  0000f	e8 00 00 00 00	 call	 ??0?$allocator@PAVOBJECTSTRUCT@@@std@@QAE@XZ ; std::allocator<OBJECTSTRUCT *>::allocator<OBJECTSTRUCT *>
  00014	8b 4d fc	 mov	 ecx, DWORD PTR _this$[ebp]
  00017	e8 00 00 00 00	 call	 ??0?$_Vector_val@U?$_Simple_types@PAVOBJECTSTRUCT@@@std@@@std@@QAE@XZ ; std::_Vector_val<std::_Simple_types<OBJECTSTRUCT *> >::_Vector_val<std::_Simple_types<OBJECTSTRUCT *> >
  0001c	8b 45 fc	 mov	 eax, DWORD PTR _this$[ebp]
  0001f	5f		 pop	 edi
  00020	5e		 pop	 esi
  00021	5b		 pop	 ebx
  00022	8b e5		 mov	 esp, ebp
  00024	5d		 pop	 ebp
  00025	c2 04 00	 ret	 4
??$?0$$V@?$_Compressed_pair@V?$allocator@PAVOBJECTSTRUCT@@@std@@V?$_Vector_val@U?$_Simple_types@PAVOBJECTSTRUCT@@@std@@@2@$00@std@@QAE@U_Zero_then_variadic_args_t@1@@Z ENDP ; std::_Compressed_pair<std::allocator<OBJECTSTRUCT *>,std::_Vector_val<std::_Simple_types<OBJECTSTRUCT *> >,1>::_Compressed_pair<std::allocator<OBJECTSTRUCT *>,std::_Vector_val<std::_Simple_types<OBJECTSTRUCT *> >,1><>
_TEXT	ENDS
; Function compile flags: /Odtp /ZI
; File C:\Program Files (x86)\Microsoft Visual Studio\2019\Community\VC\Tools\MSVC\14.27.29110\include\vector
;	COMDAT ??$_Emplace_reallocate@ABQAVOBJECTSTRUCT@@@?$vector@PAVOBJECTSTRUCT@@V?$allocator@PAVOBJECTSTRUCT@@@std@@@std@@QAEPAPAVOBJECTSTRUCT@@QAPAV2@ABQAV2@@Z
_TEXT	SEGMENT
__Constructed_first$ = -64				; size = 4
__Constructed_last$ = -60				; size = 4
__Newvec$ = -56						; size = 4
__Newcapacity$ = -52					; size = 4
__Newsize$ = -48					; size = 4
__Oldsize$ = -44					; size = 4
__Whereoff$ = -40					; size = 4
__Mylast$ = -36						; size = 4
__Myfirst$ = -32					; size = 4
__My_data$ = -28					; size = 4
__Al$ = -24						; size = 4
_this$ = -20						; size = 4
__$EHRec$ = -16						; size = 16
__Whereptr$ = 8						; size = 4
_<_Val_0>$ = 12						; size = 4
??$_Emplace_reallocate@ABQAVOBJECTSTRUCT@@@?$vector@PAVOBJECTSTRUCT@@V?$allocator@PAVOBJECTSTRUCT@@@std@@@std@@QAEPAPAVOBJECTSTRUCT@@QAPAV2@ABQAV2@@Z PROC ; std::vector<OBJECTSTRUCT *,std::allocator<OBJECTSTRUCT *> >::_Emplace_reallocate<OBJECTSTRUCT * const &>, COMDAT
; _this$ = ecx

; 725  :     pointer _Emplace_reallocate(const pointer _Whereptr, _Valty&&... _Val) {

  00000	55		 push	 ebp
  00001	8b ec		 mov	 ebp, esp
  00003	6a ff		 push	 -1
  00005	68 00 00 00 00	 push	 __ehhandler$??$_Emplace_reallocate@ABQAVOBJECTSTRUCT@@@?$vector@PAVOBJECTSTRUCT@@V?$allocator@PAVOBJECTSTRUCT@@@std@@@std@@QAEPAPAVOBJECTSTRUCT@@QAPAV2@ABQAV2@@Z
  0000a	64 a1 00 00 00
	00		 mov	 eax, DWORD PTR fs:0
  00010	50		 push	 eax
  00011	51		 push	 ecx
  00012	83 ec 70	 sub	 esp, 112		; 00000070H
  00015	53		 push	 ebx
  00016	56		 push	 esi
  00017	57		 push	 edi
  00018	a1 00 00 00 00	 mov	 eax, DWORD PTR ___security_cookie
  0001d	33 c5		 xor	 eax, ebp
  0001f	50		 push	 eax
  00020	8d 45 f4	 lea	 eax, DWORD PTR __$EHRec$[ebp+4]
  00023	64 a3 00 00 00
	00		 mov	 DWORD PTR fs:0, eax
  00029	89 65 f0	 mov	 DWORD PTR __$EHRec$[ebp], esp
  0002c	89 4d ec	 mov	 DWORD PTR _this$[ebp], ecx

; 726  :         // reallocate and insert by perfectly forwarding _Val at _Whereptr
; 727  :         _Alty& _Al        = _Getal();

  0002f	8b 4d ec	 mov	 ecx, DWORD PTR _this$[ebp]
  00032	e8 00 00 00 00	 call	 ?_Getal@?$vector@PAVOBJECTSTRUCT@@V?$allocator@PAVOBJECTSTRUCT@@@std@@@std@@AAEAAV?$allocator@PAVOBJECTSTRUCT@@@2@XZ ; std::vector<OBJECTSTRUCT *,std::allocator<OBJECTSTRUCT *> >::_Getal
  00037	89 45 e8	 mov	 DWORD PTR __Al$[ebp], eax

; 728  :         auto& _My_data    = _Mypair._Myval2;

  0003a	8b 45 ec	 mov	 eax, DWORD PTR _this$[ebp]
  0003d	89 45 e4	 mov	 DWORD PTR __My_data$[ebp], eax

; 729  :         pointer& _Myfirst = _My_data._Myfirst;

  00040	8b 45 e4	 mov	 eax, DWORD PTR __My_data$[ebp]
  00043	89 45 e0	 mov	 DWORD PTR __Myfirst$[ebp], eax

; 730  :         pointer& _Mylast  = _My_data._Mylast;

  00046	8b 45 e4	 mov	 eax, DWORD PTR __My_data$[ebp]
  00049	83 c0 04	 add	 eax, 4
  0004c	89 45 dc	 mov	 DWORD PTR __Mylast$[ebp], eax

; 731  : 
; 732  :         _STL_INTERNAL_CHECK(_Mylast == _My_data._Myend); // check that we have no unused capacity
; 733  : 
; 734  :         const auto _Whereoff = static_cast<size_type>(_Whereptr - _Myfirst);

  0004f	8b 45 e0	 mov	 eax, DWORD PTR __Myfirst$[ebp]
  00052	8b 4d 08	 mov	 ecx, DWORD PTR __Whereptr$[ebp]
  00055	2b 08		 sub	 ecx, DWORD PTR [eax]
  00057	c1 f9 02	 sar	 ecx, 2
  0005a	89 4d d8	 mov	 DWORD PTR __Whereoff$[ebp], ecx

; 735  :         const auto _Oldsize  = static_cast<size_type>(_Mylast - _Myfirst);

  0005d	8b 45 dc	 mov	 eax, DWORD PTR __Mylast$[ebp]
  00060	8b 4d e0	 mov	 ecx, DWORD PTR __Myfirst$[ebp]
  00063	8b 10		 mov	 edx, DWORD PTR [eax]
  00065	2b 11		 sub	 edx, DWORD PTR [ecx]
  00067	c1 fa 02	 sar	 edx, 2
  0006a	89 55 d4	 mov	 DWORD PTR __Oldsize$[ebp], edx

; 736  : 
; 737  :         if (_Oldsize == max_size()) {

  0006d	8b 4d ec	 mov	 ecx, DWORD PTR _this$[ebp]
  00070	e8 00 00 00 00	 call	 ?max_size@?$vector@PAVOBJECTSTRUCT@@V?$allocator@PAVOBJECTSTRUCT@@@std@@@std@@QBEIXZ ; std::vector<OBJECTSTRUCT *,std::allocator<OBJECTSTRUCT *> >::max_size
  00075	39 45 d4	 cmp	 DWORD PTR __Oldsize$[ebp], eax
  00078	75 05		 jne	 SHORT $LN2@Emplace_re

; 738  :             _Xlength();

  0007a	e8 00 00 00 00	 call	 ?_Xlength@?$vector@PAVOBJECTSTRUCT@@V?$allocator@PAVOBJECTSTRUCT@@@std@@@std@@CAXXZ ; std::vector<OBJECTSTRUCT *,std::allocator<OBJECTSTRUCT *> >::_Xlength
$LN2@Emplace_re:

; 739  :         }
; 740  : 
; 741  :         const size_type _Newsize     = _Oldsize + 1;

  0007f	8b 45 d4	 mov	 eax, DWORD PTR __Oldsize$[ebp]
  00082	83 c0 01	 add	 eax, 1
  00085	89 45 d0	 mov	 DWORD PTR __Newsize$[ebp], eax

; 742  :         const size_type _Newcapacity = _Calculate_growth(_Newsize);

  00088	8b 45 d0	 mov	 eax, DWORD PTR __Newsize$[ebp]
  0008b	50		 push	 eax
  0008c	8b 4d ec	 mov	 ecx, DWORD PTR _this$[ebp]
  0008f	e8 00 00 00 00	 call	 ?_Calculate_growth@?$vector@PAVOBJECTSTRUCT@@V?$allocator@PAVOBJECTSTRUCT@@@std@@@std@@ABEII@Z ; std::vector<OBJECTSTRUCT *,std::allocator<OBJECTSTRUCT *> >::_Calculate_growth
  00094	89 45 cc	 mov	 DWORD PTR __Newcapacity$[ebp], eax

; 743  : 
; 744  :         const pointer _Newvec           = _Al.allocate(_Newcapacity);

  00097	8b 45 cc	 mov	 eax, DWORD PTR __Newcapacity$[ebp]
  0009a	50		 push	 eax
  0009b	8b 4d e8	 mov	 ecx, DWORD PTR __Al$[ebp]
  0009e	e8 00 00 00 00	 call	 ?allocate@?$allocator@PAVOBJECTSTRUCT@@@std@@QAEPAPAVOBJECTSTRUCT@@I@Z ; std::allocator<OBJECTSTRUCT *>::allocate
  000a3	89 45 c8	 mov	 DWORD PTR __Newvec$[ebp], eax

; 745  :         const pointer _Constructed_last = _Newvec + _Whereoff + 1;

  000a6	8b 45 d8	 mov	 eax, DWORD PTR __Whereoff$[ebp]
  000a9	8b 4d c8	 mov	 ecx, DWORD PTR __Newvec$[ebp]
  000ac	8d 54 81 04	 lea	 edx, DWORD PTR [ecx+eax*4+4]
  000b0	89 55 c4	 mov	 DWORD PTR __Constructed_last$[ebp], edx

; 746  :         pointer _Constructed_first      = _Constructed_last;

  000b3	8b 45 c4	 mov	 eax, DWORD PTR __Constructed_last$[ebp]
  000b6	89 45 c0	 mov	 DWORD PTR __Constructed_first$[ebp], eax

; 747  : 
; 748  :         _TRY_BEGIN

  000b9	c7 45 fc 00 00
	00 00		 mov	 DWORD PTR __$EHRec$[ebp+12], 0

; 749  :         _Alty_traits::construct(_Al, _Unfancy(_Newvec + _Whereoff), _STD forward<_Valty>(_Val)...);

  000c0	8b 45 0c	 mov	 eax, DWORD PTR _<_Val_0>$[ebp]
  000c3	50		 push	 eax
  000c4	e8 00 00 00 00	 call	 ??$forward@ABQAVOBJECTSTRUCT@@@std@@YAABQAVOBJECTSTRUCT@@ABQAV1@@Z ; std::forward<OBJECTSTRUCT * const &>
  000c9	83 c4 04	 add	 esp, 4
  000cc	50		 push	 eax
  000cd	8b 4d d8	 mov	 ecx, DWORD PTR __Whereoff$[ebp]
  000d0	8b 55 c8	 mov	 edx, DWORD PTR __Newvec$[ebp]
  000d3	8d 04 8a	 lea	 eax, DWORD PTR [edx+ecx*4]
  000d6	50		 push	 eax
  000d7	e8 00 00 00 00	 call	 ??$_Unfancy@PAVOBJECTSTRUCT@@@std@@YAPAPAVOBJECTSTRUCT@@PAPAV1@@Z ; std::_Unfancy<OBJECTSTRUCT *>
  000dc	83 c4 04	 add	 esp, 4
  000df	50		 push	 eax
  000e0	8b 4d e8	 mov	 ecx, DWORD PTR __Al$[ebp]
  000e3	51		 push	 ecx
  000e4	e8 00 00 00 00	 call	 ??$construct@PAVOBJECTSTRUCT@@ABQAV1@@?$_Default_allocator_traits@V?$allocator@PAVOBJECTSTRUCT@@@std@@@std@@SAXAAV?$allocator@PAVOBJECTSTRUCT@@@1@QAPAVOBJECTSTRUCT@@ABQAV3@@Z ; std::_Default_allocator_traits<std::allocator<OBJECTSTRUCT *> >::construct<OBJECTSTRUCT *,OBJECTSTRUCT * const &>
  000e9	83 c4 0c	 add	 esp, 12			; 0000000cH

; 750  :         _Constructed_first = _Newvec + _Whereoff;

  000ec	8b 45 d8	 mov	 eax, DWORD PTR __Whereoff$[ebp]
  000ef	8b 4d c8	 mov	 ecx, DWORD PTR __Newvec$[ebp]
  000f2	8d 14 81	 lea	 edx, DWORD PTR [ecx+eax*4]
  000f5	89 55 c0	 mov	 DWORD PTR __Constructed_first$[ebp], edx

; 751  : 
; 752  :         if (_Whereptr == _Mylast) { // at back, provide strong guarantee

  000f8	8b 45 dc	 mov	 eax, DWORD PTR __Mylast$[ebp]
  000fb	8b 4d 08	 mov	 ecx, DWORD PTR __Whereptr$[ebp]
  000fe	3b 08		 cmp	 ecx, DWORD PTR [eax]
  00100	75 1a		 jne	 SHORT $LN4@Emplace_re

; 753  :             _Umove_if_noexcept(_Myfirst, _Mylast, _Newvec);

  00102	8b 45 c8	 mov	 eax, DWORD PTR __Newvec$[ebp]
  00105	50		 push	 eax
  00106	8b 4d dc	 mov	 ecx, DWORD PTR __Mylast$[ebp]
  00109	8b 11		 mov	 edx, DWORD PTR [ecx]
  0010b	52		 push	 edx
  0010c	8b 45 e0	 mov	 eax, DWORD PTR __Myfirst$[ebp]
  0010f	8b 08		 mov	 ecx, DWORD PTR [eax]
  00111	51		 push	 ecx
  00112	8b 4d ec	 mov	 ecx, DWORD PTR _this$[ebp]
  00115	e8 00 00 00 00	 call	 ?_Umove_if_noexcept@?$vector@PAVOBJECTSTRUCT@@V?$allocator@PAVOBJECTSTRUCT@@@std@@@std@@AAEXPAPAVOBJECTSTRUCT@@00@Z ; std::vector<OBJECTSTRUCT *,std::allocator<OBJECTSTRUCT *> >::_Umove_if_noexcept

; 754  :         } else { // provide basic guarantee

  0011a	eb 39		 jmp	 SHORT $LN5@Emplace_re
$LN4@Emplace_re:

; 755  :             _Umove(_Myfirst, _Whereptr, _Newvec);

  0011c	8b 45 c8	 mov	 eax, DWORD PTR __Newvec$[ebp]
  0011f	50		 push	 eax
  00120	8b 4d 08	 mov	 ecx, DWORD PTR __Whereptr$[ebp]
  00123	51		 push	 ecx
  00124	8b 55 e0	 mov	 edx, DWORD PTR __Myfirst$[ebp]
  00127	8b 02		 mov	 eax, DWORD PTR [edx]
  00129	50		 push	 eax
  0012a	8b 4d ec	 mov	 ecx, DWORD PTR _this$[ebp]
  0012d	e8 00 00 00 00	 call	 ?_Umove@?$vector@PAVOBJECTSTRUCT@@V?$allocator@PAVOBJECTSTRUCT@@@std@@@std@@AAEPAPAVOBJECTSTRUCT@@PAPAV3@00@Z ; std::vector<OBJECTSTRUCT *,std::allocator<OBJECTSTRUCT *> >::_Umove

; 756  :             _Constructed_first = _Newvec;

  00132	8b 45 c8	 mov	 eax, DWORD PTR __Newvec$[ebp]
  00135	89 45 c0	 mov	 DWORD PTR __Constructed_first$[ebp], eax

; 757  :             _Umove(_Whereptr, _Mylast, _Newvec + _Whereoff + 1);

  00138	8b 45 d8	 mov	 eax, DWORD PTR __Whereoff$[ebp]
  0013b	8b 4d c8	 mov	 ecx, DWORD PTR __Newvec$[ebp]
  0013e	8d 54 81 04	 lea	 edx, DWORD PTR [ecx+eax*4+4]
  00142	52		 push	 edx
  00143	8b 45 dc	 mov	 eax, DWORD PTR __Mylast$[ebp]
  00146	8b 08		 mov	 ecx, DWORD PTR [eax]
  00148	51		 push	 ecx
  00149	8b 55 08	 mov	 edx, DWORD PTR __Whereptr$[ebp]
  0014c	52		 push	 edx
  0014d	8b 4d ec	 mov	 ecx, DWORD PTR _this$[ebp]
  00150	e8 00 00 00 00	 call	 ?_Umove@?$vector@PAVOBJECTSTRUCT@@V?$allocator@PAVOBJECTSTRUCT@@@std@@@std@@AAEPAPAVOBJECTSTRUCT@@PAPAV3@00@Z ; std::vector<OBJECTSTRUCT *,std::allocator<OBJECTSTRUCT *> >::_Umove
$LN5@Emplace_re:
  00155	eb 2f		 jmp	 SHORT $LN7@Emplace_re
__catch$??$_Emplace_reallocate@ABQAVOBJECTSTRUCT@@@?$vector@PAVOBJECTSTRUCT@@V?$allocator@PAVOBJECTSTRUCT@@@std@@@std@@QAEPAPAVOBJECTSTRUCT@@QAPAV2@ABQAV2@@Z$0:

; 758  :         }
; 759  :         _CATCH_ALL
; 760  :         _Destroy(_Constructed_first, _Constructed_last);

  00157	8b 45 c4	 mov	 eax, DWORD PTR __Constructed_last$[ebp]
  0015a	50		 push	 eax
  0015b	8b 4d c0	 mov	 ecx, DWORD PTR __Constructed_first$[ebp]
  0015e	51		 push	 ecx
  0015f	8b 4d ec	 mov	 ecx, DWORD PTR _this$[ebp]
  00162	e8 00 00 00 00	 call	 ?_Destroy@?$vector@PAVOBJECTSTRUCT@@V?$allocator@PAVOBJECTSTRUCT@@@std@@@std@@AAEXPAPAVOBJECTSTRUCT@@0@Z ; std::vector<OBJECTSTRUCT *,std::allocator<OBJECTSTRUCT *> >::_Destroy

; 761  :         _Al.deallocate(_Newvec, _Newcapacity);

  00167	8b 45 cc	 mov	 eax, DWORD PTR __Newcapacity$[ebp]
  0016a	50		 push	 eax
  0016b	8b 4d c8	 mov	 ecx, DWORD PTR __Newvec$[ebp]
  0016e	51		 push	 ecx
  0016f	8b 4d e8	 mov	 ecx, DWORD PTR __Al$[ebp]
  00172	e8 00 00 00 00	 call	 ?deallocate@?$allocator@PAVOBJECTSTRUCT@@@std@@QAEXQAPAVOBJECTSTRUCT@@I@Z ; std::allocator<OBJECTSTRUCT *>::deallocate

; 762  :         _RERAISE;

  00177	6a 00		 push	 0
  00179	6a 00		 push	 0
  0017b	e8 00 00 00 00	 call	 __CxxThrowException@8

; 763  :         _CATCH_END

  00180	b8 00 00 00 00	 mov	 eax, $LN10@Emplace_re
  00185	c3		 ret	 0
$LN7@Emplace_re:
  00186	c7 45 fc ff ff
	ff ff		 mov	 DWORD PTR __$EHRec$[ebp+12], -1
  0018d	eb 07		 jmp	 SHORT __tryend$??$_Emplace_reallocate@ABQAVOBJECTSTRUCT@@@?$vector@PAVOBJECTSTRUCT@@V?$allocator@PAVOBJECTSTRUCT@@@std@@@std@@QAEPAPAVOBJECTSTRUCT@@QAPAV2@ABQAV2@@Z$1
$LN10@Emplace_re:
  0018f	c7 45 fc ff ff
	ff ff		 mov	 DWORD PTR __$EHRec$[ebp+12], -1
__tryend$??$_Emplace_reallocate@ABQAVOBJECTSTRUCT@@@?$vector@PAVOBJECTSTRUCT@@V?$allocator@PAVOBJECTSTRUCT@@@std@@@std@@QAEPAPAVOBJECTSTRUCT@@QAPAV2@ABQAV2@@Z$1:

; 764  : 
; 765  :         _Change_array(_Newvec, _Newsize, _Newcapacity);

  00196	8b 45 cc	 mov	 eax, DWORD PTR __Newcapacity$[ebp]
  00199	50		 push	 eax
  0019a	8b 4d d0	 mov	 ecx, DWORD PTR __Newsize$[ebp]
  0019d	51		 push	 ecx
  0019e	8b 55 c8	 mov	 edx, DWORD PTR __Newvec$[ebp]
  001a1	52		 push	 edx
  001a2	8b 4d ec	 mov	 ecx, DWORD PTR _this$[ebp]
  001a5	e8 00 00 00 00	 call	 ?_Change_array@?$vector@PAVOBJECTSTRUCT@@V?$allocator@PAVOBJECTSTRUCT@@@std@@@std@@AAEXQAPAVOBJECTSTRUCT@@II@Z ; std::vector<OBJECTSTRUCT *,std::allocator<OBJECTSTRUCT *> >::_Change_array

; 766  :         return _Newvec + _Whereoff;

  001aa	8b 45 d8	 mov	 eax, DWORD PTR __Whereoff$[ebp]
  001ad	8b 4d c8	 mov	 ecx, DWORD PTR __Newvec$[ebp]
  001b0	8d 04 81	 lea	 eax, DWORD PTR [ecx+eax*4]
$LN6@Emplace_re:

; 767  :     }

  001b3	8b 4d f4	 mov	 ecx, DWORD PTR __$EHRec$[ebp+4]
  001b6	64 89 0d 00 00
	00 00		 mov	 DWORD PTR fs:0, ecx
  001bd	59		 pop	 ecx
  001be	5f		 pop	 edi
  001bf	5e		 pop	 esi
  001c0	5b		 pop	 ebx
  001c1	8b e5		 mov	 esp, ebp
  001c3	5d		 pop	 ebp
  001c4	c2 08 00	 ret	 8
  001c7	cc		 int	 3
  001c8	cc		 int	 3
  001c9	cc		 int	 3
  001ca	cc		 int	 3
  001cb	cc		 int	 3
_TEXT	ENDS
;	COMDAT text$x
text$x	SEGMENT
__ehhandler$??$_Emplace_reallocate@ABQAVOBJECTSTRUCT@@@?$vector@PAVOBJECTSTRUCT@@V?$allocator@PAVOBJECTSTRUCT@@@std@@@std@@QAEPAPAVOBJECTSTRUCT@@QAPAV2@ABQAV2@@Z:
  00000	90		 npad	 1
  00001	90		 npad	 1
  00002	8b 54 24 08	 mov	 edx, DWORD PTR [esp+8]
  00006	8d 42 0c	 lea	 eax, DWORD PTR [edx+12]
  00009	8b 8a 7c ff ff
	ff		 mov	 ecx, DWORD PTR [edx-132]
  0000f	33 c8		 xor	 ecx, eax
  00011	e8 00 00 00 00	 call	 @__security_check_cookie@4
  00016	b8 00 00 00 00	 mov	 eax, OFFSET __ehfuncinfo$??$_Emplace_reallocate@ABQAVOBJECTSTRUCT@@@?$vector@PAVOBJECTSTRUCT@@V?$allocator@PAVOBJECTSTRUCT@@@std@@@std@@QAEPAPAVOBJECTSTRUCT@@QAPAV2@ABQAV2@@Z
  0001b	e9 00 00 00 00	 jmp	 ___CxxFrameHandler3
text$x	ENDS
??$_Emplace_reallocate@ABQAVOBJECTSTRUCT@@@?$vector@PAVOBJECTSTRUCT@@V?$allocator@PAVOBJECTSTRUCT@@@std@@@std@@QAEPAPAVOBJECTSTRUCT@@QAPAV2@ABQAV2@@Z ENDP ; std::vector<OBJECTSTRUCT *,std::allocator<OBJECTSTRUCT *> >::_Emplace_reallocate<OBJECTSTRUCT * const &>
; Function compile flags: /Odtp /ZI
; File C:\Program Files (x86)\Microsoft Visual Studio\2019\Community\VC\Tools\MSVC\14.27.29110\include\xmemory
;	COMDAT ??$construct@PAVOBJECTSTRUCT@@ABQAV1@@?$_Default_allocator_traits@V?$allocator@PAVOBJECTSTRUCT@@@std@@@std@@SAXAAV?$allocator@PAVOBJECTSTRUCT@@@1@QAPAVOBJECTSTRUCT@@ABQAV3@@Z
_TEXT	SEGMENT
$T1 = -68						; size = 4
___formal$ = 8						; size = 4
__Ptr$ = 12						; size = 4
_<_Args_0>$ = 16					; size = 4
??$construct@PAVOBJECTSTRUCT@@ABQAV1@@?$_Default_allocator_traits@V?$allocator@PAVOBJECTSTRUCT@@@std@@@std@@SAXAAV?$allocator@PAVOBJECTSTRUCT@@@1@QAPAVOBJECTSTRUCT@@ABQAV3@@Z PROC ; std::_Default_allocator_traits<std::allocator<OBJECTSTRUCT *> >::construct<OBJECTSTRUCT *,OBJECTSTRUCT * const &>, COMDAT

; 693  :     static void construct(_Alloc&, _Objty* const _Ptr, _Types&&... _Args) {

  00000	55		 push	 ebp
  00001	8b ec		 mov	 ebp, esp
  00003	83 ec 44	 sub	 esp, 68			; 00000044H
  00006	53		 push	 ebx
  00007	56		 push	 esi
  00008	57		 push	 edi

; 694  :         ::new (const_cast<void*>(static_cast<const volatile void*>(_Ptr))) _Objty(_STD forward<_Types>(_Args)...);

  00009	8b 45 0c	 mov	 eax, DWORD PTR __Ptr$[ebp]
  0000c	50		 push	 eax
  0000d	6a 04		 push	 4
  0000f	e8 00 00 00 00	 call	 ??2@YAPAXIPAX@Z		; operator new
  00014	83 c4 08	 add	 esp, 8
  00017	89 45 bc	 mov	 DWORD PTR $T1[ebp], eax
  0001a	8b 4d 10	 mov	 ecx, DWORD PTR _<_Args_0>$[ebp]
  0001d	51		 push	 ecx
  0001e	e8 00 00 00 00	 call	 ??$forward@ABQAVOBJECTSTRUCT@@@std@@YAABQAVOBJECTSTRUCT@@ABQAV1@@Z ; std::forward<OBJECTSTRUCT * const &>
  00023	83 c4 04	 add	 esp, 4
  00026	8b 55 bc	 mov	 edx, DWORD PTR $T1[ebp]
  00029	8b 00		 mov	 eax, DWORD PTR [eax]
  0002b	89 02		 mov	 DWORD PTR [edx], eax

; 695  :     }

  0002d	5f		 pop	 edi
  0002e	5e		 pop	 esi
  0002f	5b		 pop	 ebx
  00030	8b e5		 mov	 esp, ebp
  00032	5d		 pop	 ebp
  00033	c3		 ret	 0
??$construct@PAVOBJECTSTRUCT@@ABQAV1@@?$_Default_allocator_traits@V?$allocator@PAVOBJECTSTRUCT@@@std@@@std@@SAXAAV?$allocator@PAVOBJECTSTRUCT@@@1@QAPAVOBJECTSTRUCT@@ABQAV3@@Z ENDP ; std::_Default_allocator_traits<std::allocator<OBJECTSTRUCT *> >::construct<OBJECTSTRUCT *,OBJECTSTRUCT * const &>
_TEXT	ENDS
; Function compile flags: /Odtp /ZI
; File C:\Program Files (x86)\Microsoft Visual Studio\2019\Community\VC\Tools\MSVC\14.27.29110\include\xstddef
;	COMDAT ??$_Unfancy@PAVOBJECTSTRUCT@@@std@@YAPAPAVOBJECTSTRUCT@@PAPAV1@@Z
_TEXT	SEGMENT
__Ptr$ = 8						; size = 4
??$_Unfancy@PAVOBJECTSTRUCT@@@std@@YAPAPAVOBJECTSTRUCT@@PAPAV1@@Z PROC ; std::_Unfancy<OBJECTSTRUCT *>, COMDAT

; 288  : _NODISCARD constexpr _Ty* _Unfancy(_Ty* _Ptr) noexcept { // do nothing for plain pointers

  00000	55		 push	 ebp
  00001	8b ec		 mov	 ebp, esp
  00003	83 ec 40	 sub	 esp, 64			; 00000040H
  00006	53		 push	 ebx
  00007	56		 push	 esi
  00008	57		 push	 edi

; 289  :     return _Ptr;

  00009	8b 45 08	 mov	 eax, DWORD PTR __Ptr$[ebp]

; 290  : }

  0000c	5f		 pop	 edi
  0000d	5e		 pop	 esi
  0000e	5b		 pop	 ebx
  0000f	8b e5		 mov	 esp, ebp
  00011	5d		 pop	 ebp
  00012	c3		 ret	 0
??$_Unfancy@PAVOBJECTSTRUCT@@@std@@YAPAPAVOBJECTSTRUCT@@PAPAV1@@Z ENDP ; std::_Unfancy<OBJECTSTRUCT *>
_TEXT	ENDS
; Function compile flags: /Odtp /ZI
; File C:\Program Files (x86)\Microsoft Visual Studio\2019\Community\VC\Tools\MSVC\14.27.29110\include\vector
;	COMDAT ??$_Emplace_back_with_unused_capacity@ABQAVOBJECTSTRUCT@@@?$vector@PAVOBJECTSTRUCT@@V?$allocator@PAVOBJECTSTRUCT@@@std@@@std@@AAE@ABQAVOBJECTSTRUCT@@@Z
_TEXT	SEGMENT
__Result$ = -16						; size = 4
__Mylast$ = -12						; size = 4
__My_data$ = -8						; size = 4
_this$ = -4						; size = 4
_<_Val_0>$ = 8						; size = 4
??$_Emplace_back_with_unused_capacity@ABQAVOBJECTSTRUCT@@@?$vector@PAVOBJECTSTRUCT@@V?$allocator@PAVOBJECTSTRUCT@@@std@@@std@@AAE@ABQAVOBJECTSTRUCT@@@Z PROC ; std::vector<OBJECTSTRUCT *,std::allocator<OBJECTSTRUCT *> >::_Emplace_back_with_unused_capacity<OBJECTSTRUCT * const &>, COMDAT
; _this$ = ecx

; 682  :     decltype(auto) _Emplace_back_with_unused_capacity(_Valty&&... _Val) {

  00000	55		 push	 ebp
  00001	8b ec		 mov	 ebp, esp
  00003	83 ec 50	 sub	 esp, 80			; 00000050H
  00006	53		 push	 ebx
  00007	56		 push	 esi
  00008	57		 push	 edi
  00009	89 4d fc	 mov	 DWORD PTR _this$[ebp], ecx

; 683  :         // insert by perfectly forwarding into element at end, provide strong guarantee
; 684  :         auto& _My_data   = _Mypair._Myval2;

  0000c	8b 45 fc	 mov	 eax, DWORD PTR _this$[ebp]
  0000f	89 45 f8	 mov	 DWORD PTR __My_data$[ebp], eax

; 685  :         pointer& _Mylast = _My_data._Mylast;

  00012	8b 45 f8	 mov	 eax, DWORD PTR __My_data$[ebp]
  00015	83 c0 04	 add	 eax, 4
  00018	89 45 f4	 mov	 DWORD PTR __Mylast$[ebp], eax

; 686  :         _STL_INTERNAL_CHECK(_Mylast != _My_data._Myend); // check that we have unused capacity
; 687  :         _Alty_traits::construct(_Getal(), _Unfancy(_Mylast), _STD forward<_Valty>(_Val)...);

  0001b	8b 45 08	 mov	 eax, DWORD PTR _<_Val_0>$[ebp]
  0001e	50		 push	 eax
  0001f	e8 00 00 00 00	 call	 ??$forward@ABQAVOBJECTSTRUCT@@@std@@YAABQAVOBJECTSTRUCT@@ABQAV1@@Z ; std::forward<OBJECTSTRUCT * const &>
  00024	83 c4 04	 add	 esp, 4
  00027	50		 push	 eax
  00028	8b 4d f4	 mov	 ecx, DWORD PTR __Mylast$[ebp]
  0002b	8b 11		 mov	 edx, DWORD PTR [ecx]
  0002d	52		 push	 edx
  0002e	e8 00 00 00 00	 call	 ??$_Unfancy@PAVOBJECTSTRUCT@@@std@@YAPAPAVOBJECTSTRUCT@@PAPAV1@@Z ; std::_Unfancy<OBJECTSTRUCT *>
  00033	83 c4 04	 add	 esp, 4
  00036	50		 push	 eax
  00037	8b 4d fc	 mov	 ecx, DWORD PTR _this$[ebp]
  0003a	e8 00 00 00 00	 call	 ?_Getal@?$vector@PAVOBJECTSTRUCT@@V?$allocator@PAVOBJECTSTRUCT@@@std@@@std@@AAEAAV?$allocator@PAVOBJECTSTRUCT@@@2@XZ ; std::vector<OBJECTSTRUCT *,std::allocator<OBJECTSTRUCT *> >::_Getal
  0003f	50		 push	 eax
  00040	e8 00 00 00 00	 call	 ??$construct@PAVOBJECTSTRUCT@@ABQAV1@@?$_Default_allocator_traits@V?$allocator@PAVOBJECTSTRUCT@@@std@@@std@@SAXAAV?$allocator@PAVOBJECTSTRUCT@@@1@QAPAVOBJECTSTRUCT@@ABQAV3@@Z ; std::_Default_allocator_traits<std::allocator<OBJECTSTRUCT *> >::construct<OBJECTSTRUCT *,OBJECTSTRUCT * const &>
  00045	83 c4 0c	 add	 esp, 12			; 0000000cH

; 688  :         _Orphan_range(_Mylast, _Mylast);

  00048	8b 45 f4	 mov	 eax, DWORD PTR __Mylast$[ebp]
  0004b	8b 08		 mov	 ecx, DWORD PTR [eax]
  0004d	51		 push	 ecx
  0004e	8b 55 f4	 mov	 edx, DWORD PTR __Mylast$[ebp]
  00051	8b 02		 mov	 eax, DWORD PTR [edx]
  00053	50		 push	 eax
  00054	8b 4d fc	 mov	 ecx, DWORD PTR _this$[ebp]
  00057	e8 00 00 00 00	 call	 ?_Orphan_range@?$vector@PAVOBJECTSTRUCT@@V?$allocator@PAVOBJECTSTRUCT@@@std@@@std@@ABEXPAPAVOBJECTSTRUCT@@0@Z ; std::vector<OBJECTSTRUCT *,std::allocator<OBJECTSTRUCT *> >::_Orphan_range

; 689  :         _Ty& _Result = *_Mylast;

  0005c	8b 45 f4	 mov	 eax, DWORD PTR __Mylast$[ebp]
  0005f	8b 08		 mov	 ecx, DWORD PTR [eax]
  00061	89 4d f0	 mov	 DWORD PTR __Result$[ebp], ecx

; 690  :         ++_Mylast;

  00064	8b 45 f4	 mov	 eax, DWORD PTR __Mylast$[ebp]
  00067	8b 08		 mov	 ecx, DWORD PTR [eax]
  00069	83 c1 04	 add	 ecx, 4
  0006c	8b 55 f4	 mov	 edx, DWORD PTR __Mylast$[ebp]
  0006f	89 0a		 mov	 DWORD PTR [edx], ecx

; 691  : #if _HAS_CXX17
; 692  :         return _Result;
; 693  : #else // ^^^ _HAS_CXX17 ^^^ // vvv !_HAS_CXX17 vvv
; 694  :         (void) _Result;
; 695  : #endif // _HAS_CXX17
; 696  :     }

  00071	5f		 pop	 edi
  00072	5e		 pop	 esi
  00073	5b		 pop	 ebx
  00074	8b e5		 mov	 esp, ebp
  00076	5d		 pop	 ebp
  00077	c2 04 00	 ret	 4
??$_Emplace_back_with_unused_capacity@ABQAVOBJECTSTRUCT@@@?$vector@PAVOBJECTSTRUCT@@V?$allocator@PAVOBJECTSTRUCT@@@std@@@std@@AAE@ABQAVOBJECTSTRUCT@@@Z ENDP ; std::vector<OBJECTSTRUCT *,std::allocator<OBJECTSTRUCT *> >::_Emplace_back_with_unused_capacity<OBJECTSTRUCT * const &>
_TEXT	ENDS
; Function compile flags: /Odtp /ZI
; File C:\Program Files (x86)\Microsoft Visual Studio\2019\Community\VC\Tools\MSVC\14.27.29110\include\type_traits
;	COMDAT ??$forward@ABQAVOBJECTSTRUCT@@@std@@YAABQAVOBJECTSTRUCT@@ABQAV1@@Z
_TEXT	SEGMENT
__Arg$ = 8						; size = 4
??$forward@ABQAVOBJECTSTRUCT@@@std@@YAABQAVOBJECTSTRUCT@@ABQAV1@@Z PROC ; std::forward<OBJECTSTRUCT * const &>, COMDAT

; 1454 :     remove_reference_t<_Ty>& _Arg) noexcept { // forward an lvalue as either an lvalue or an rvalue

  00000	55		 push	 ebp
  00001	8b ec		 mov	 ebp, esp
  00003	83 ec 40	 sub	 esp, 64			; 00000040H
  00006	53		 push	 ebx
  00007	56		 push	 esi
  00008	57		 push	 edi

; 1455 :     return static_cast<_Ty&&>(_Arg);

  00009	8b 45 08	 mov	 eax, DWORD PTR __Arg$[ebp]

; 1456 : }

  0000c	5f		 pop	 edi
  0000d	5e		 pop	 esi
  0000e	5b		 pop	 ebx
  0000f	8b e5		 mov	 esp, ebp
  00011	5d		 pop	 ebp
  00012	c3		 ret	 0
??$forward@ABQAVOBJECTSTRUCT@@@std@@YAABQAVOBJECTSTRUCT@@ABQAV1@@Z ENDP ; std::forward<OBJECTSTRUCT * const &>
_TEXT	ENDS
; Function compile flags: /Odtp /ZI
; File C:\Program Files (x86)\Microsoft Visual Studio\2019\Community\VC\Tools\MSVC\14.27.29110\include\vector
;	COMDAT ??$emplace_back@ABQAVOBJECTSTRUCT@@@?$vector@PAVOBJECTSTRUCT@@V?$allocator@PAVOBJECTSTRUCT@@@std@@@std@@QAE@ABQAVOBJECTSTRUCT@@@Z
_TEXT	SEGMENT
__Result$ = -16						; size = 4
__Mylast$ = -12						; size = 4
__My_data$ = -8						; size = 4
_this$ = -4						; size = 4
_<_Val_0>$ = 8						; size = 4
??$emplace_back@ABQAVOBJECTSTRUCT@@@?$vector@PAVOBJECTSTRUCT@@V?$allocator@PAVOBJECTSTRUCT@@@std@@@std@@QAE@ABQAVOBJECTSTRUCT@@@Z PROC ; std::vector<OBJECTSTRUCT *,std::allocator<OBJECTSTRUCT *> >::emplace_back<OBJECTSTRUCT * const &>, COMDAT
; _this$ = ecx

; 700  :     decltype(auto) emplace_back(_Valty&&... _Val) {

  00000	55		 push	 ebp
  00001	8b ec		 mov	 ebp, esp
  00003	83 ec 50	 sub	 esp, 80			; 00000050H
  00006	53		 push	 ebx
  00007	56		 push	 esi
  00008	57		 push	 edi
  00009	89 4d fc	 mov	 DWORD PTR _this$[ebp], ecx

; 701  :         // insert by perfectly forwarding into element at end, provide strong guarantee
; 702  :         auto& _My_data   = _Mypair._Myval2;

  0000c	8b 45 fc	 mov	 eax, DWORD PTR _this$[ebp]
  0000f	89 45 f8	 mov	 DWORD PTR __My_data$[ebp], eax

; 703  :         pointer& _Mylast = _My_data._Mylast;

  00012	8b 45 f8	 mov	 eax, DWORD PTR __My_data$[ebp]
  00015	83 c0 04	 add	 eax, 4
  00018	89 45 f4	 mov	 DWORD PTR __Mylast$[ebp], eax

; 704  :         if (_Mylast != _My_data._Myend) {

  0001b	8b 45 f4	 mov	 eax, DWORD PTR __Mylast$[ebp]
  0001e	8b 4d f8	 mov	 ecx, DWORD PTR __My_data$[ebp]
  00021	8b 10		 mov	 edx, DWORD PTR [eax]
  00023	3b 51 08	 cmp	 edx, DWORD PTR [ecx+8]
  00026	74 17		 je	 SHORT $LN2@emplace_ba

; 705  :             return _Emplace_back_with_unused_capacity(_STD forward<_Valty>(_Val)...);

  00028	8b 45 08	 mov	 eax, DWORD PTR _<_Val_0>$[ebp]
  0002b	50		 push	 eax
  0002c	e8 00 00 00 00	 call	 ??$forward@ABQAVOBJECTSTRUCT@@@std@@YAABQAVOBJECTSTRUCT@@ABQAV1@@Z ; std::forward<OBJECTSTRUCT * const &>
  00031	83 c4 04	 add	 esp, 4
  00034	50		 push	 eax
  00035	8b 4d fc	 mov	 ecx, DWORD PTR _this$[ebp]
  00038	e8 00 00 00 00	 call	 ??$_Emplace_back_with_unused_capacity@ABQAVOBJECTSTRUCT@@@?$vector@PAVOBJECTSTRUCT@@V?$allocator@PAVOBJECTSTRUCT@@@std@@@std@@AAE@ABQAVOBJECTSTRUCT@@@Z ; std::vector<OBJECTSTRUCT *,std::allocator<OBJECTSTRUCT *> >::_Emplace_back_with_unused_capacity<OBJECTSTRUCT * const &>
  0003d	eb 1e		 jmp	 SHORT $LN1@emplace_ba
$LN2@emplace_ba:

; 706  :         }
; 707  : 
; 708  :         _Ty& _Result = *_Emplace_reallocate(_Mylast, _STD forward<_Valty>(_Val)...);

  0003f	8b 45 08	 mov	 eax, DWORD PTR _<_Val_0>$[ebp]
  00042	50		 push	 eax
  00043	e8 00 00 00 00	 call	 ??$forward@ABQAVOBJECTSTRUCT@@@std@@YAABQAVOBJECTSTRUCT@@ABQAV1@@Z ; std::forward<OBJECTSTRUCT * const &>
  00048	83 c4 04	 add	 esp, 4
  0004b	50		 push	 eax
  0004c	8b 4d f4	 mov	 ecx, DWORD PTR __Mylast$[ebp]
  0004f	8b 11		 mov	 edx, DWORD PTR [ecx]
  00051	52		 push	 edx
  00052	8b 4d fc	 mov	 ecx, DWORD PTR _this$[ebp]
  00055	e8 00 00 00 00	 call	 ??$_Emplace_reallocate@ABQAVOBJECTSTRUCT@@@?$vector@PAVOBJECTSTRUCT@@V?$allocator@PAVOBJECTSTRUCT@@@std@@@std@@QAEPAPAVOBJECTSTRUCT@@QAPAV2@ABQAV2@@Z ; std::vector<OBJECTSTRUCT *,std::allocator<OBJECTSTRUCT *> >::_Emplace_reallocate<OBJECTSTRUCT * const &>
  0005a	89 45 f0	 mov	 DWORD PTR __Result$[ebp], eax
$LN1@emplace_ba:

; 709  : #if _HAS_CXX17
; 710  :         return _Result;
; 711  : #else // ^^^ _HAS_CXX17 ^^^ // vvv !_HAS_CXX17 vvv
; 712  :         (void) _Result;
; 713  : #endif // _HAS_CXX17
; 714  :     }

  0005d	5f		 pop	 edi
  0005e	5e		 pop	 esi
  0005f	5b		 pop	 ebx
  00060	8b e5		 mov	 esp, ebp
  00062	5d		 pop	 ebp
  00063	c2 04 00	 ret	 4
??$emplace_back@ABQAVOBJECTSTRUCT@@@?$vector@PAVOBJECTSTRUCT@@V?$allocator@PAVOBJECTSTRUCT@@@std@@@std@@QAE@ABQAVOBJECTSTRUCT@@@Z ENDP ; std::vector<OBJECTSTRUCT *,std::allocator<OBJECTSTRUCT *> >::emplace_back<OBJECTSTRUCT * const &>
_TEXT	ENDS
; Function compile flags: /Odtp /ZI
; File C:\Program Files (x86)\Microsoft Visual Studio\2019\Community\VC\Tools\MSVC\14.27.29110\include\xstddef
;	COMDAT ??$addressof@V?$_Vector_val@U?$_Simple_types@PAVOBJECTSTRUCT@@@std@@@std@@@std@@YAPAV?$_Vector_val@U?$_Simple_types@PAVOBJECTSTRUCT@@@std@@@0@AAV10@@Z
_TEXT	SEGMENT
__Val$ = 8						; size = 4
??$addressof@V?$_Vector_val@U?$_Simple_types@PAVOBJECTSTRUCT@@@std@@@std@@@std@@YAPAV?$_Vector_val@U?$_Simple_types@PAVOBJECTSTRUCT@@@std@@@0@AAV10@@Z PROC ; std::addressof<std::_Vector_val<std::_Simple_types<OBJECTSTRUCT *> > >, COMDAT

; 274  : _NODISCARD constexpr _Ty* addressof(_Ty& _Val) noexcept {

  00000	55		 push	 ebp
  00001	8b ec		 mov	 ebp, esp
  00003	83 ec 40	 sub	 esp, 64			; 00000040H
  00006	53		 push	 ebx
  00007	56		 push	 esi
  00008	57		 push	 edi

; 275  :     return __builtin_addressof(_Val);

  00009	8b 45 08	 mov	 eax, DWORD PTR __Val$[ebp]

; 276  : }

  0000c	5f		 pop	 edi
  0000d	5e		 pop	 esi
  0000e	5b		 pop	 ebx
  0000f	8b e5		 mov	 esp, ebp
  00011	5d		 pop	 ebp
  00012	c3		 ret	 0
??$addressof@V?$_Vector_val@U?$_Simple_types@PAVOBJECTSTRUCT@@@std@@@std@@@std@@YAPAV?$_Vector_val@U?$_Simple_types@PAVOBJECTSTRUCT@@@std@@@0@AAV10@@Z ENDP ; std::addressof<std::_Vector_val<std::_Simple_types<OBJECTSTRUCT *> > >
_TEXT	ENDS
; Function compile flags: /Odtp /ZI
; File C:\Program Files (x86)\Microsoft Visual Studio\2019\Community\VC\Tools\MSVC\14.27.29110\include\algorithm
;	COMDAT ??$sort@V?$_Vector_iterator@V?$_Vector_val@U?$_Simple_types@PAVOBJECTSTRUCT@@@std@@@std@@@std@@P6A_NABQAVOBJECTSTRUCT@@0@Z@std@@YAXV?$_Vector_iterator@V?$_Vector_val@U?$_Simple_types@PAVOBJECTSTRUCT@@@std@@@std@@@0@0P6A_NABQAVOBJECTSTRUCT@@1@Z@Z
_TEXT	SEGMENT
__ULast$ = -8						; size = 4
__UFirst$ = -4						; size = 4
__First$ = 8						; size = 4
__Last$ = 12						; size = 4
__Pred$ = 16						; size = 4
??$sort@V?$_Vector_iterator@V?$_Vector_val@U?$_Simple_types@PAVOBJECTSTRUCT@@@std@@@std@@@std@@P6A_NABQAVOBJECTSTRUCT@@0@Z@std@@YAXV?$_Vector_iterator@V?$_Vector_val@U?$_Simple_types@PAVOBJECTSTRUCT@@@std@@@std@@@0@0P6A_NABQAVOBJECTSTRUCT@@1@Z@Z PROC ; std::sort<std::_Vector_iterator<std::_Vector_val<std::_Simple_types<OBJECTSTRUCT *> > >,bool (__cdecl*)(OBJECTSTRUCT * const &,OBJECTSTRUCT * const &)>, COMDAT

; 4134 : _CONSTEXPR20 void sort(const _RanIt _First, const _RanIt _Last, _Pr _Pred) { // order [_First, _Last), using _Pred

  00000	55		 push	 ebp
  00001	8b ec		 mov	 ebp, esp
  00003	83 ec 48	 sub	 esp, 72			; 00000048H
  00006	53		 push	 ebx
  00007	56		 push	 esi
  00008	57		 push	 edi

; 4135 :     _Adl_verify_range(_First, _Last);

  00009	8d 45 0c	 lea	 eax, DWORD PTR __Last$[ebp]
  0000c	50		 push	 eax
  0000d	8d 4d 08	 lea	 ecx, DWORD PTR __First$[ebp]
  00010	51		 push	 ecx
  00011	e8 00 00 00 00	 call	 ??$_Adl_verify_range@V?$_Vector_iterator@V?$_Vector_val@U?$_Simple_types@PAVOBJECTSTRUCT@@@std@@@std@@@std@@V12@@std@@YAXABV?$_Vector_iterator@V?$_Vector_val@U?$_Simple_types@PAVOBJECTSTRUCT@@@std@@@std@@@0@0@Z ; std::_Adl_verify_range<std::_Vector_iterator<std::_Vector_val<std::_Simple_types<OBJECTSTRUCT *> > >,std::_Vector_iterator<std::_Vector_val<std::_Simple_types<OBJECTSTRUCT *> > > >
  00016	83 c4 08	 add	 esp, 8

; 4136 :     const auto _UFirst = _Get_unwrapped(_First);

  00019	8d 45 08	 lea	 eax, DWORD PTR __First$[ebp]
  0001c	50		 push	 eax
  0001d	e8 00 00 00 00	 call	 ??$_Get_unwrapped@ABV?$_Vector_iterator@V?$_Vector_val@U?$_Simple_types@PAVOBJECTSTRUCT@@@std@@@std@@@std@@@std@@YA@ABV?$_Vector_iterator@V?$_Vector_val@U?$_Simple_types@PAVOBJECTSTRUCT@@@std@@@std@@@0@@Z ; std::_Get_unwrapped<std::_Vector_iterator<std::_Vector_val<std::_Simple_types<OBJECTSTRUCT *> > > const &>
  00022	83 c4 04	 add	 esp, 4
  00025	89 45 fc	 mov	 DWORD PTR __UFirst$[ebp], eax

; 4137 :     const auto _ULast  = _Get_unwrapped(_Last);

  00028	8d 45 0c	 lea	 eax, DWORD PTR __Last$[ebp]
  0002b	50		 push	 eax
  0002c	e8 00 00 00 00	 call	 ??$_Get_unwrapped@ABV?$_Vector_iterator@V?$_Vector_val@U?$_Simple_types@PAVOBJECTSTRUCT@@@std@@@std@@@std@@@std@@YA@ABV?$_Vector_iterator@V?$_Vector_val@U?$_Simple_types@PAVOBJECTSTRUCT@@@std@@@std@@@0@@Z ; std::_Get_unwrapped<std::_Vector_iterator<std::_Vector_val<std::_Simple_types<OBJECTSTRUCT *> > > const &>
  00031	83 c4 04	 add	 esp, 4
  00034	89 45 f8	 mov	 DWORD PTR __ULast$[ebp], eax

; 4138 :     _Sort_unchecked(_UFirst, _ULast, _ULast - _UFirst, _Pass_fn(_Pred));

  00037	8b 45 10	 mov	 eax, DWORD PTR __Pred$[ebp]
  0003a	50		 push	 eax
  0003b	e8 00 00 00 00	 call	 ??$_Pass_fn@P6A_NABQAVOBJECTSTRUCT@@0@Z$0A@@std@@YAP6A_NABQAVOBJECTSTRUCT@@0@ZP6A_N00@Z@Z ; std::_Pass_fn<bool (__cdecl*)(OBJECTSTRUCT * const &,OBJECTSTRUCT * const &),0>
  00040	83 c4 04	 add	 esp, 4
  00043	50		 push	 eax
  00044	8b 4d f8	 mov	 ecx, DWORD PTR __ULast$[ebp]
  00047	2b 4d fc	 sub	 ecx, DWORD PTR __UFirst$[ebp]
  0004a	c1 f9 02	 sar	 ecx, 2
  0004d	51		 push	 ecx
  0004e	8b 55 f8	 mov	 edx, DWORD PTR __ULast$[ebp]
  00051	52		 push	 edx
  00052	8b 45 fc	 mov	 eax, DWORD PTR __UFirst$[ebp]
  00055	50		 push	 eax
  00056	e8 00 00 00 00	 call	 ??$_Sort_unchecked@PAPAVOBJECTSTRUCT@@P6A_NABQAV1@0@Z@std@@YAXPAPAVOBJECTSTRUCT@@0HP6A_NABQAV1@1@Z@Z ; std::_Sort_unchecked<OBJECTSTRUCT * *,bool (__cdecl*)(OBJECTSTRUCT * const &,OBJECTSTRUCT * const &)>
  0005b	83 c4 10	 add	 esp, 16			; 00000010H

; 4139 : }

  0005e	5f		 pop	 edi
  0005f	5e		 pop	 esi
  00060	5b		 pop	 ebx
  00061	8b e5		 mov	 esp, ebp
  00063	5d		 pop	 ebp
  00064	c3		 ret	 0
??$sort@V?$_Vector_iterator@V?$_Vector_val@U?$_Simple_types@PAVOBJECTSTRUCT@@@std@@@std@@@std@@P6A_NABQAVOBJECTSTRUCT@@0@Z@std@@YAXV?$_Vector_iterator@V?$_Vector_val@U?$_Simple_types@PAVOBJECTSTRUCT@@@std@@@std@@@0@0P6A_NABQAVOBJECTSTRUCT@@1@Z@Z ENDP ; std::sort<std::_Vector_iterator<std::_Vector_val<std::_Simple_types<OBJECTSTRUCT *> > >,bool (__cdecl*)(OBJECTSTRUCT * const &,OBJECTSTRUCT * const &)>
_TEXT	ENDS
; Function compile flags: /Odtp /ZI
;	COMDAT ??0?$_Vector_iterator@V?$_Vector_val@U?$_Simple_types@PAVOBJECTSTRUCT@@@std@@@std@@@std@@QAE@PAPAVOBJECTSTRUCT@@PBU_Container_base0@1@@Z
_TEXT	SEGMENT
_this$ = -4						; size = 4
___param0$ = 8						; size = 4
___param1$ = 12						; size = 4
??0?$_Vector_iterator@V?$_Vector_val@U?$_Simple_types@PAVOBJECTSTRUCT@@@std@@@std@@@std@@QAE@PAPAVOBJECTSTRUCT@@PBU_Container_base0@1@@Z PROC ; std::_Vector_iterator<std::_Vector_val<std::_Simple_types<OBJECTSTRUCT *> > >::_Vector_iterator<std::_Vector_val<std::_Simple_types<OBJECTSTRUCT *> > >, COMDAT
; _this$ = ecx
  00000	55		 push	 ebp
  00001	8b ec		 mov	 ebp, esp
  00003	83 ec 44	 sub	 esp, 68			; 00000044H
  00006	53		 push	 ebx
  00007	56		 push	 esi
  00008	57		 push	 edi
  00009	89 4d fc	 mov	 DWORD PTR _this$[ebp], ecx
  0000c	8b 45 0c	 mov	 eax, DWORD PTR ___param1$[ebp]
  0000f	50		 push	 eax
  00010	8b 4d 08	 mov	 ecx, DWORD PTR ___param0$[ebp]
  00013	51		 push	 ecx
  00014	8b 4d fc	 mov	 ecx, DWORD PTR _this$[ebp]
  00017	e8 00 00 00 00	 call	 ??0?$_Vector_const_iterator@V?$_Vector_val@U?$_Simple_types@PAVOBJECTSTRUCT@@@std@@@std@@@std@@QAE@PAPAVOBJECTSTRUCT@@PBU_Container_base0@1@@Z ; std::_Vector_const_iterator<std::_Vector_val<std::_Simple_types<OBJECTSTRUCT *> > >::_Vector_const_iterator<std::_Vector_val<std::_Simple_types<OBJECTSTRUCT *> > >
  0001c	8b 45 fc	 mov	 eax, DWORD PTR _this$[ebp]
  0001f	5f		 pop	 edi
  00020	5e		 pop	 esi
  00021	5b		 pop	 ebx
  00022	8b e5		 mov	 esp, ebp
  00024	5d		 pop	 ebp
  00025	c2 08 00	 ret	 8
??0?$_Vector_iterator@V?$_Vector_val@U?$_Simple_types@PAVOBJECTSTRUCT@@@std@@@std@@@std@@QAE@PAPAVOBJECTSTRUCT@@PBU_Container_base0@1@@Z ENDP ; std::_Vector_iterator<std::_Vector_val<std::_Simple_types<OBJECTSTRUCT *> > >::_Vector_iterator<std::_Vector_val<std::_Simple_types<OBJECTSTRUCT *> > >
_TEXT	ENDS
; Function compile flags: /Odtp /ZI
; File C:\Program Files (x86)\Microsoft Visual Studio\2019\Community\VC\Tools\MSVC\14.27.29110\include\vector
;	COMDAT ?_Unwrapped@?$_Vector_iterator@V?$_Vector_val@U?$_Simple_types@PAVOBJECTSTRUCT@@@std@@@std@@@std@@QBEPAPAVOBJECTSTRUCT@@XZ
_TEXT	SEGMENT
_this$ = -4						; size = 4
?_Unwrapped@?$_Vector_iterator@V?$_Vector_val@U?$_Simple_types@PAVOBJECTSTRUCT@@@std@@@std@@@std@@QBEPAPAVOBJECTSTRUCT@@XZ PROC ; std::_Vector_iterator<std::_Vector_val<std::_Simple_types<OBJECTSTRUCT *> > >::_Unwrapped, COMDAT
; _this$ = ecx

; 309  :     _NODISCARD value_type* _Unwrapped() const {

  00000	55		 push	 ebp
  00001	8b ec		 mov	 ebp, esp
  00003	83 ec 44	 sub	 esp, 68			; 00000044H
  00006	53		 push	 ebx
  00007	56		 push	 esi
  00008	57		 push	 edi
  00009	89 4d fc	 mov	 DWORD PTR _this$[ebp], ecx

; 310  :         return _Unfancy(this->_Ptr);

  0000c	8b 45 fc	 mov	 eax, DWORD PTR _this$[ebp]
  0000f	8b 08		 mov	 ecx, DWORD PTR [eax]
  00011	51		 push	 ecx
  00012	e8 00 00 00 00	 call	 ??$_Unfancy@PAVOBJECTSTRUCT@@@std@@YAPAPAVOBJECTSTRUCT@@PAPAV1@@Z ; std::_Unfancy<OBJECTSTRUCT *>
  00017	83 c4 04	 add	 esp, 4

; 311  :     }

  0001a	5f		 pop	 edi
  0001b	5e		 pop	 esi
  0001c	5b		 pop	 ebx
  0001d	8b e5		 mov	 esp, ebp
  0001f	5d		 pop	 ebp
  00020	c3		 ret	 0
?_Unwrapped@?$_Vector_iterator@V?$_Vector_val@U?$_Simple_types@PAVOBJECTSTRUCT@@@std@@@std@@@std@@QBEPAPAVOBJECTSTRUCT@@XZ ENDP ; std::_Vector_iterator<std::_Vector_val<std::_Simple_types<OBJECTSTRUCT *> > >::_Unwrapped
_TEXT	ENDS
; Function compile flags: /Odtp /ZI
; File C:\Program Files (x86)\Microsoft Visual Studio\2019\Community\VC\Tools\MSVC\14.27.29110\include\vector
;	COMDAT ??E?$_Vector_iterator@V?$_Vector_val@U?$_Simple_types@PAVOBJECTSTRUCT@@@std@@@std@@@std@@QAEAAV01@XZ
_TEXT	SEGMENT
_this$ = -4						; size = 4
??E?$_Vector_iterator@V?$_Vector_val@U?$_Simple_types@PAVOBJECTSTRUCT@@@std@@@std@@@std@@QAEAAV01@XZ PROC ; std::_Vector_iterator<std::_Vector_val<std::_Simple_types<OBJECTSTRUCT *> > >::operator++, COMDAT
; _this$ = ecx

; 259  :     _Vector_iterator& operator++() {

  00000	55		 push	 ebp
  00001	8b ec		 mov	 ebp, esp
  00003	83 ec 44	 sub	 esp, 68			; 00000044H
  00006	53		 push	 ebx
  00007	56		 push	 esi
  00008	57		 push	 edi
  00009	89 4d fc	 mov	 DWORD PTR _this$[ebp], ecx

; 260  :         _Mybase::operator++();

  0000c	8b 4d fc	 mov	 ecx, DWORD PTR _this$[ebp]
  0000f	e8 00 00 00 00	 call	 ??E?$_Vector_const_iterator@V?$_Vector_val@U?$_Simple_types@PAVOBJECTSTRUCT@@@std@@@std@@@std@@QAEAAV01@XZ ; std::_Vector_const_iterator<std::_Vector_val<std::_Simple_types<OBJECTSTRUCT *> > >::operator++

; 261  :         return *this;

  00014	8b 45 fc	 mov	 eax, DWORD PTR _this$[ebp]

; 262  :     }

  00017	5f		 pop	 edi
  00018	5e		 pop	 esi
  00019	5b		 pop	 ebx
  0001a	8b e5		 mov	 esp, ebp
  0001c	5d		 pop	 ebp
  0001d	c3		 ret	 0
??E?$_Vector_iterator@V?$_Vector_val@U?$_Simple_types@PAVOBJECTSTRUCT@@@std@@@std@@@std@@QAEAAV01@XZ ENDP ; std::_Vector_iterator<std::_Vector_val<std::_Simple_types<OBJECTSTRUCT *> > >::operator++
_TEXT	ENDS
; Function compile flags: /Odtp /ZI
; File C:\Program Files (x86)\Microsoft Visual Studio\2019\Community\VC\Tools\MSVC\14.27.29110\include\vector
;	COMDAT ??D?$_Vector_iterator@V?$_Vector_val@U?$_Simple_types@PAVOBJECTSTRUCT@@@std@@@std@@@std@@QBEAAPAVOBJECTSTRUCT@@XZ
_TEXT	SEGMENT
_this$ = -4						; size = 4
??D?$_Vector_iterator@V?$_Vector_val@U?$_Simple_types@PAVOBJECTSTRUCT@@@std@@@std@@@std@@QBEAAPAVOBJECTSTRUCT@@XZ PROC ; std::_Vector_iterator<std::_Vector_val<std::_Simple_types<OBJECTSTRUCT *> > >::operator*, COMDAT
; _this$ = ecx

; 251  :     _NODISCARD reference operator*() const {

  00000	55		 push	 ebp
  00001	8b ec		 mov	 ebp, esp
  00003	83 ec 44	 sub	 esp, 68			; 00000044H
  00006	53		 push	 ebx
  00007	56		 push	 esi
  00008	57		 push	 edi
  00009	89 4d fc	 mov	 DWORD PTR _this$[ebp], ecx

; 252  :         return const_cast<reference>(_Mybase::operator*());

  0000c	8b 4d fc	 mov	 ecx, DWORD PTR _this$[ebp]
  0000f	e8 00 00 00 00	 call	 ??D?$_Vector_const_iterator@V?$_Vector_val@U?$_Simple_types@PAVOBJECTSTRUCT@@@std@@@std@@@std@@QBEABQAVOBJECTSTRUCT@@XZ ; std::_Vector_const_iterator<std::_Vector_val<std::_Simple_types<OBJECTSTRUCT *> > >::operator*

; 253  :     }

  00014	5f		 pop	 edi
  00015	5e		 pop	 esi
  00016	5b		 pop	 ebx
  00017	8b e5		 mov	 esp, ebp
  00019	5d		 pop	 ebp
  0001a	c3		 ret	 0
??D?$_Vector_iterator@V?$_Vector_val@U?$_Simple_types@PAVOBJECTSTRUCT@@@std@@@std@@@std@@QBEAAPAVOBJECTSTRUCT@@XZ ENDP ; std::_Vector_iterator<std::_Vector_val<std::_Simple_types<OBJECTSTRUCT *> > >::operator*
_TEXT	ENDS
; Function compile flags: /Odtp /ZI
; File C:\Program Files (x86)\Microsoft Visual Studio\2019\Community\VC\Tools\MSVC\14.27.29110\include\vector
;	COMDAT ?_Compat@?$_Vector_const_iterator@V?$_Vector_val@U?$_Simple_types@PAVOBJECTSTRUCT@@@std@@@std@@@std@@QBEXABV12@@Z
_TEXT	SEGMENT
_this$ = -4						; size = 4
__Right$ = 8						; size = 4
?_Compat@?$_Vector_const_iterator@V?$_Vector_val@U?$_Simple_types@PAVOBJECTSTRUCT@@@std@@@std@@@std@@QBEXABV12@@Z PROC ; std::_Vector_const_iterator<std::_Vector_val<std::_Simple_types<OBJECTSTRUCT *> > >::_Compat, COMDAT
; _this$ = ecx

; 173  :     void _Compat(const _Vector_const_iterator& _Right) const { // test for compatible iterator pair

  00000	55		 push	 ebp
  00001	8b ec		 mov	 ebp, esp
  00003	83 ec 44	 sub	 esp, 68			; 00000044H
  00006	53		 push	 ebx
  00007	56		 push	 esi
  00008	57		 push	 edi
  00009	89 4d fc	 mov	 DWORD PTR _this$[ebp], ecx

; 174  : #if _ITERATOR_DEBUG_LEVEL == 0
; 175  :         (void) _Right;
; 176  : #else // ^^^ _ITERATOR_DEBUG_LEVEL == 0 ^^^ // vvv _ITERATOR_DEBUG_LEVEL != 0 vvv
; 177  :         _STL_VERIFY(this->_Getcont() == _Right._Getcont(), "vector iterators incompatible");
; 178  : #endif // _ITERATOR_DEBUG_LEVEL == 0
; 179  :     }

  0000c	5f		 pop	 edi
  0000d	5e		 pop	 esi
  0000e	5b		 pop	 ebx
  0000f	8b e5		 mov	 esp, ebp
  00011	5d		 pop	 ebp
  00012	c2 04 00	 ret	 4
?_Compat@?$_Vector_const_iterator@V?$_Vector_val@U?$_Simple_types@PAVOBJECTSTRUCT@@@std@@@std@@@std@@QBEXABV12@@Z ENDP ; std::_Vector_const_iterator<std::_Vector_val<std::_Simple_types<OBJECTSTRUCT *> > >::_Compat
_TEXT	ENDS
; Function compile flags: /Odtp /ZI
; File C:\Program Files (x86)\Microsoft Visual Studio\2019\Community\VC\Tools\MSVC\14.27.29110\include\vector
;	COMDAT ??9?$_Vector_const_iterator@V?$_Vector_val@U?$_Simple_types@PAVOBJECTSTRUCT@@@std@@@std@@@std@@QBE_NABV01@@Z
_TEXT	SEGMENT
tv69 = -72						; size = 4
_this$ = -4						; size = 4
__Right$ = 8						; size = 4
??9?$_Vector_const_iterator@V?$_Vector_val@U?$_Simple_types@PAVOBJECTSTRUCT@@@std@@@std@@@std@@QBE_NABV01@@Z PROC ; std::_Vector_const_iterator<std::_Vector_val<std::_Simple_types<OBJECTSTRUCT *> > >::operator!=, COMDAT
; _this$ = ecx

; 152  :     _NODISCARD bool operator!=(const _Vector_const_iterator& _Right) const {

  00000	55		 push	 ebp
  00001	8b ec		 mov	 ebp, esp
  00003	83 ec 48	 sub	 esp, 72			; 00000048H
  00006	53		 push	 ebx
  00007	56		 push	 esi
  00008	57		 push	 edi
  00009	89 4d fc	 mov	 DWORD PTR _this$[ebp], ecx

; 153  :         return !(*this == _Right);

  0000c	8b 45 08	 mov	 eax, DWORD PTR __Right$[ebp]
  0000f	50		 push	 eax
  00010	8b 4d fc	 mov	 ecx, DWORD PTR _this$[ebp]
  00013	e8 00 00 00 00	 call	 ??8?$_Vector_const_iterator@V?$_Vector_val@U?$_Simple_types@PAVOBJECTSTRUCT@@@std@@@std@@@std@@QBE_NABV01@@Z ; std::_Vector_const_iterator<std::_Vector_val<std::_Simple_types<OBJECTSTRUCT *> > >::operator==
  00018	0f b6 c8	 movzx	 ecx, al
  0001b	85 c9		 test	 ecx, ecx
  0001d	75 09		 jne	 SHORT $LN3@operator
  0001f	c7 45 b8 01 00
	00 00		 mov	 DWORD PTR tv69[ebp], 1
  00026	eb 07		 jmp	 SHORT $LN4@operator
$LN3@operator:
  00028	c7 45 b8 00 00
	00 00		 mov	 DWORD PTR tv69[ebp], 0
$LN4@operator:
  0002f	8a 45 b8	 mov	 al, BYTE PTR tv69[ebp]

; 154  :     }

  00032	5f		 pop	 edi
  00033	5e		 pop	 esi
  00034	5b		 pop	 ebx
  00035	8b e5		 mov	 esp, ebp
  00037	5d		 pop	 ebp
  00038	c2 04 00	 ret	 4
??9?$_Vector_const_iterator@V?$_Vector_val@U?$_Simple_types@PAVOBJECTSTRUCT@@@std@@@std@@@std@@QBE_NABV01@@Z ENDP ; std::_Vector_const_iterator<std::_Vector_val<std::_Simple_types<OBJECTSTRUCT *> > >::operator!=
_TEXT	ENDS
; Function compile flags: /Odtp /ZI
; File C:\Program Files (x86)\Microsoft Visual Studio\2019\Community\VC\Tools\MSVC\14.27.29110\include\vector
;	COMDAT ??8?$_Vector_const_iterator@V?$_Vector_val@U?$_Simple_types@PAVOBJECTSTRUCT@@@std@@@std@@@std@@QBE_NABV01@@Z
_TEXT	SEGMENT
tv69 = -72						; size = 4
_this$ = -4						; size = 4
__Right$ = 8						; size = 4
??8?$_Vector_const_iterator@V?$_Vector_val@U?$_Simple_types@PAVOBJECTSTRUCT@@@std@@@std@@@std@@QBE_NABV01@@Z PROC ; std::_Vector_const_iterator<std::_Vector_val<std::_Simple_types<OBJECTSTRUCT *> > >::operator==, COMDAT
; _this$ = ecx

; 147  :     _NODISCARD bool operator==(const _Vector_const_iterator& _Right) const {

  00000	55		 push	 ebp
  00001	8b ec		 mov	 ebp, esp
  00003	83 ec 48	 sub	 esp, 72			; 00000048H
  00006	53		 push	 ebx
  00007	56		 push	 esi
  00008	57		 push	 edi
  00009	89 4d fc	 mov	 DWORD PTR _this$[ebp], ecx

; 148  :         _Compat(_Right);

  0000c	8b 45 08	 mov	 eax, DWORD PTR __Right$[ebp]
  0000f	50		 push	 eax
  00010	8b 4d fc	 mov	 ecx, DWORD PTR _this$[ebp]
  00013	e8 00 00 00 00	 call	 ?_Compat@?$_Vector_const_iterator@V?$_Vector_val@U?$_Simple_types@PAVOBJECTSTRUCT@@@std@@@std@@@std@@QBEXABV12@@Z ; std::_Vector_const_iterator<std::_Vector_val<std::_Simple_types<OBJECTSTRUCT *> > >::_Compat

; 149  :         return _Ptr == _Right._Ptr;

  00018	8b 45 fc	 mov	 eax, DWORD PTR _this$[ebp]
  0001b	8b 4d 08	 mov	 ecx, DWORD PTR __Right$[ebp]
  0001e	8b 10		 mov	 edx, DWORD PTR [eax]
  00020	3b 11		 cmp	 edx, DWORD PTR [ecx]
  00022	75 09		 jne	 SHORT $LN3@operator
  00024	c7 45 b8 01 00
	00 00		 mov	 DWORD PTR tv69[ebp], 1
  0002b	eb 07		 jmp	 SHORT $LN4@operator
$LN3@operator:
  0002d	c7 45 b8 00 00
	00 00		 mov	 DWORD PTR tv69[ebp], 0
$LN4@operator:
  00034	8a 45 b8	 mov	 al, BYTE PTR tv69[ebp]

; 150  :     }

  00037	5f		 pop	 edi
  00038	5e		 pop	 esi
  00039	5b		 pop	 ebx
  0003a	8b e5		 mov	 esp, ebp
  0003c	5d		 pop	 ebp
  0003d	c2 04 00	 ret	 4
??8?$_Vector_const_iterator@V?$_Vector_val@U?$_Simple_types@PAVOBJECTSTRUCT@@@std@@@std@@@std@@QBE_NABV01@@Z ENDP ; std::_Vector_const_iterator<std::_Vector_val<std::_Simple_types<OBJECTSTRUCT *> > >::operator==
_TEXT	ENDS
; Function compile flags: /Odtp /ZI
; File C:\Program Files (x86)\Microsoft Visual Studio\2019\Community\VC\Tools\MSVC\14.27.29110\include\vector
;	COMDAT ??E?$_Vector_const_iterator@V?$_Vector_val@U?$_Simple_types@PAVOBJECTSTRUCT@@@std@@@std@@@std@@QAEAAV01@XZ
_TEXT	SEGMENT
_this$ = -4						; size = 4
??E?$_Vector_const_iterator@V?$_Vector_val@U?$_Simple_types@PAVOBJECTSTRUCT@@@std@@@std@@@std@@QAEAAV01@XZ PROC ; std::_Vector_const_iterator<std::_Vector_val<std::_Simple_types<OBJECTSTRUCT *> > >::operator++, COMDAT
; _this$ = ecx

; 68   :     _Vector_const_iterator& operator++() {

  00000	55		 push	 ebp
  00001	8b ec		 mov	 ebp, esp
  00003	83 ec 44	 sub	 esp, 68			; 00000044H
  00006	53		 push	 ebx
  00007	56		 push	 esi
  00008	57		 push	 edi
  00009	89 4d fc	 mov	 DWORD PTR _this$[ebp], ecx

; 69   : #if _ITERATOR_DEBUG_LEVEL != 0
; 70   :         const auto _Mycont = static_cast<const _Myvec*>(this->_Getcont());
; 71   :         _STL_VERIFY(_Ptr, "can't increment value-initialized vector iterator");
; 72   :         _STL_VERIFY(_Ptr < _Mycont->_Mylast, "can't increment vector iterator past end");
; 73   : #endif // _ITERATOR_DEBUG_LEVEL != 0
; 74   : 
; 75   :         ++_Ptr;

  0000c	8b 45 fc	 mov	 eax, DWORD PTR _this$[ebp]
  0000f	8b 08		 mov	 ecx, DWORD PTR [eax]
  00011	83 c1 04	 add	 ecx, 4
  00014	8b 55 fc	 mov	 edx, DWORD PTR _this$[ebp]
  00017	89 0a		 mov	 DWORD PTR [edx], ecx

; 76   :         return *this;

  00019	8b 45 fc	 mov	 eax, DWORD PTR _this$[ebp]

; 77   :     }

  0001c	5f		 pop	 edi
  0001d	5e		 pop	 esi
  0001e	5b		 pop	 ebx
  0001f	8b e5		 mov	 esp, ebp
  00021	5d		 pop	 ebp
  00022	c3		 ret	 0
??E?$_Vector_const_iterator@V?$_Vector_val@U?$_Simple_types@PAVOBJECTSTRUCT@@@std@@@std@@@std@@QAEAAV01@XZ ENDP ; std::_Vector_const_iterator<std::_Vector_val<std::_Simple_types<OBJECTSTRUCT *> > >::operator++
_TEXT	ENDS
; Function compile flags: /Odtp /ZI
; File C:\Program Files (x86)\Microsoft Visual Studio\2019\Community\VC\Tools\MSVC\14.27.29110\include\vector
;	COMDAT ??D?$_Vector_const_iterator@V?$_Vector_val@U?$_Simple_types@PAVOBJECTSTRUCT@@@std@@@std@@@std@@QBEABQAVOBJECTSTRUCT@@XZ
_TEXT	SEGMENT
_this$ = -4						; size = 4
??D?$_Vector_const_iterator@V?$_Vector_val@U?$_Simple_types@PAVOBJECTSTRUCT@@@std@@@std@@@std@@QBEABQAVOBJECTSTRUCT@@XZ PROC ; std::_Vector_const_iterator<std::_Vector_val<std::_Simple_types<OBJECTSTRUCT *> > >::operator*, COMDAT
; _this$ = ecx

; 46   :     _NODISCARD reference operator*() const {

  00000	55		 push	 ebp
  00001	8b ec		 mov	 ebp, esp
  00003	83 ec 44	 sub	 esp, 68			; 00000044H
  00006	53		 push	 ebx
  00007	56		 push	 esi
  00008	57		 push	 edi
  00009	89 4d fc	 mov	 DWORD PTR _this$[ebp], ecx

; 47   : #if _ITERATOR_DEBUG_LEVEL != 0
; 48   :         const auto _Mycont = static_cast<const _Myvec*>(this->_Getcont());
; 49   :         _STL_VERIFY(_Ptr, "can't dereference value-initialized vector iterator");
; 50   :         _STL_VERIFY(
; 51   :             _Mycont->_Myfirst <= _Ptr && _Ptr < _Mycont->_Mylast, "can't dereference out of range vector iterator");
; 52   : #endif // _ITERATOR_DEBUG_LEVEL != 0
; 53   : 
; 54   :         return *_Ptr;

  0000c	8b 45 fc	 mov	 eax, DWORD PTR _this$[ebp]
  0000f	8b 00		 mov	 eax, DWORD PTR [eax]

; 55   :     }

  00011	5f		 pop	 edi
  00012	5e		 pop	 esi
  00013	5b		 pop	 ebx
  00014	8b e5		 mov	 esp, ebp
  00016	5d		 pop	 ebp
  00017	c3		 ret	 0
??D?$_Vector_const_iterator@V?$_Vector_val@U?$_Simple_types@PAVOBJECTSTRUCT@@@std@@@std@@@std@@QBEABQAVOBJECTSTRUCT@@XZ ENDP ; std::_Vector_const_iterator<std::_Vector_val<std::_Simple_types<OBJECTSTRUCT *> > >::operator*
_TEXT	ENDS
; Function compile flags: /Odtp /ZI
; File C:\Program Files (x86)\Microsoft Visual Studio\2019\Community\VC\Tools\MSVC\14.27.29110\include\vector
;	COMDAT ??0?$_Vector_const_iterator@V?$_Vector_val@U?$_Simple_types@PAVOBJECTSTRUCT@@@std@@@std@@@std@@QAE@PAPAVOBJECTSTRUCT@@PBU_Container_base0@1@@Z
_TEXT	SEGMENT
_this$ = -4						; size = 4
__Parg$ = 8						; size = 4
__Pvector$ = 12						; size = 4
??0?$_Vector_const_iterator@V?$_Vector_val@U?$_Simple_types@PAVOBJECTSTRUCT@@@std@@@std@@@std@@QAE@PAPAVOBJECTSTRUCT@@PBU_Container_base0@1@@Z PROC ; std::_Vector_const_iterator<std::_Vector_val<std::_Simple_types<OBJECTSTRUCT *> > >::_Vector_const_iterator<std::_Vector_val<std::_Simple_types<OBJECTSTRUCT *> > >, COMDAT
; _this$ = ecx

; 42   :     _Vector_const_iterator(_Tptr _Parg, const _Container_base* _Pvector) noexcept : _Ptr(_Parg) {

  00000	55		 push	 ebp
  00001	8b ec		 mov	 ebp, esp
  00003	83 ec 44	 sub	 esp, 68			; 00000044H
  00006	53		 push	 ebx
  00007	56		 push	 esi
  00008	57		 push	 edi
  00009	89 4d fc	 mov	 DWORD PTR _this$[ebp], ecx
  0000c	8b 45 fc	 mov	 eax, DWORD PTR _this$[ebp]
  0000f	8b 4d 08	 mov	 ecx, DWORD PTR __Parg$[ebp]
  00012	89 08		 mov	 DWORD PTR [eax], ecx

; 43   :         this->_Adopt(_Pvector);

  00014	8b 45 0c	 mov	 eax, DWORD PTR __Pvector$[ebp]
  00017	50		 push	 eax
  00018	8b 4d fc	 mov	 ecx, DWORD PTR _this$[ebp]
  0001b	e8 00 00 00 00	 call	 ?_Adopt@_Iterator_base0@std@@QAEXPBX@Z ; std::_Iterator_base0::_Adopt

; 44   :     }

  00020	8b 45 fc	 mov	 eax, DWORD PTR _this$[ebp]
  00023	5f		 pop	 edi
  00024	5e		 pop	 esi
  00025	5b		 pop	 ebx
  00026	8b e5		 mov	 esp, ebp
  00028	5d		 pop	 ebp
  00029	c2 08 00	 ret	 8
??0?$_Vector_const_iterator@V?$_Vector_val@U?$_Simple_types@PAVOBJECTSTRUCT@@@std@@@std@@@std@@QAE@PAPAVOBJECTSTRUCT@@PBU_Container_base0@1@@Z ENDP ; std::_Vector_const_iterator<std::_Vector_val<std::_Simple_types<OBJECTSTRUCT *> > >::_Vector_const_iterator<std::_Vector_val<std::_Simple_types<OBJECTSTRUCT *> > >
_TEXT	ENDS
; Function compile flags: /Odtp /ZI
; File C:\Mu Online\Mu-GS-Webzen-MC-10093\GameServer\DevilSquareGround.cpp
;	COMDAT ?DevilSquareScoreSort@@YA_NABQAVOBJECTSTRUCT@@0@Z
_TEXT	SEGMENT
_lhs$ = 8						; size = 4
_rhs$ = 12						; size = 4
?DevilSquareScoreSort@@YA_NABQAVOBJECTSTRUCT@@0@Z PROC	; DevilSquareScoreSort, COMDAT

; 33   : {	

  00000	55		 push	 ebp
  00001	8b ec		 mov	 ebp, esp
  00003	83 ec 40	 sub	 esp, 64			; 00000040H
  00006	53		 push	 ebx
  00007	56		 push	 esi
  00008	57		 push	 edi

; 34   : 	if( lhs->m_nEventScore == rhs->m_nEventScore )

  00009	8b 45 08	 mov	 eax, DWORD PTR _lhs$[ebp]
  0000c	8b 08		 mov	 ecx, DWORD PTR [eax]
  0000e	8b 55 0c	 mov	 edx, DWORD PTR _rhs$[ebp]
  00011	8b 02		 mov	 eax, DWORD PTR [edx]
  00013	8b 89 c4 0c 00
	00		 mov	 ecx, DWORD PTR [ecx+3268]
  00019	3b 88 c4 0c 00
	00		 cmp	 ecx, DWORD PTR [eax+3268]
  0001f	75 26		 jne	 SHORT $LN2@DevilSquar

; 35   : 	{	//      
; 36   : 		if( lhs->Level < rhs->Level )

  00021	8b 45 08	 mov	 eax, DWORD PTR _lhs$[ebp]
  00024	8b 08		 mov	 ecx, DWORD PTR [eax]
  00026	0f bf 91 a0 00
	00 00		 movsx	 edx, WORD PTR [ecx+160]
  0002d	8b 45 0c	 mov	 eax, DWORD PTR _rhs$[ebp]
  00030	8b 08		 mov	 ecx, DWORD PTR [eax]
  00032	0f bf 81 a0 00
	00 00		 movsx	 eax, WORD PTR [ecx+160]
  00039	3b d0		 cmp	 edx, eax
  0003b	7d 06		 jge	 SHORT $LN3@DevilSquar

; 37   : 		{
; 38   : 			return TRUE;

  0003d	b0 01		 mov	 al, 1
  0003f	eb 24		 jmp	 SHORT $LN1@DevilSquar

; 39   : 		}

  00041	eb 04		 jmp	 SHORT $LN2@DevilSquar
$LN3@DevilSquar:

; 40   : 		else
; 41   : 		{
; 42   : 			return FALSE;

  00043	32 c0		 xor	 al, al
  00045	eb 1e		 jmp	 SHORT $LN1@DevilSquar
$LN2@DevilSquar:

; 43   : 		}
; 44   : 	}
; 45   : 
; 46   : 	if( lhs->m_nEventScore > rhs->m_nEventScore )

  00047	8b 45 08	 mov	 eax, DWORD PTR _lhs$[ebp]
  0004a	8b 08		 mov	 ecx, DWORD PTR [eax]
  0004c	8b 55 0c	 mov	 edx, DWORD PTR _rhs$[ebp]
  0004f	8b 02		 mov	 eax, DWORD PTR [edx]
  00051	8b 89 c4 0c 00
	00		 mov	 ecx, DWORD PTR [ecx+3268]
  00057	3b 88 c4 0c 00
	00		 cmp	 ecx, DWORD PTR [eax+3268]
  0005d	7e 04		 jle	 SHORT $LN5@DevilSquar

; 47   : 		return TRUE;

  0005f	b0 01		 mov	 al, 1
  00061	eb 02		 jmp	 SHORT $LN1@DevilSquar
$LN5@DevilSquar:

; 48   : 	return FALSE;

  00063	32 c0		 xor	 al, al
$LN1@DevilSquar:

; 49   : }

  00065	5f		 pop	 edi
  00066	5e		 pop	 esi
  00067	5b		 pop	 ebx
  00068	8b e5		 mov	 esp, ebp
  0006a	5d		 pop	 ebp
  0006b	c3		 ret	 0
?DevilSquareScoreSort@@YA_NABQAVOBJECTSTRUCT@@0@Z ENDP	; DevilSquareScoreSort
_TEXT	ENDS
; Function compile flags: /Odtp /ZI
;	COMDAT ??_GCDevilSquareGround@@UAEPAXI@Z
_TEXT	SEGMENT
_this$ = -4						; size = 4
___flags$ = 8						; size = 4
??_GCDevilSquareGround@@UAEPAXI@Z PROC			; CDevilSquareGround::`scalar deleting destructor', COMDAT
; _this$ = ecx
  00000	55		 push	 ebp
  00001	8b ec		 mov	 ebp, esp
  00003	83 ec 44	 sub	 esp, 68			; 00000044H
  00006	53		 push	 ebx
  00007	56		 push	 esi
  00008	57		 push	 edi
  00009	89 4d fc	 mov	 DWORD PTR _this$[ebp], ecx
  0000c	8b 4d fc	 mov	 ecx, DWORD PTR _this$[ebp]
  0000f	e8 00 00 00 00	 call	 ??1CDevilSquareGround@@UAE@XZ ; CDevilSquareGround::~CDevilSquareGround
  00014	8b 45 08	 mov	 eax, DWORD PTR ___flags$[ebp]
  00017	83 e0 01	 and	 eax, 1
  0001a	74 11		 je	 SHORT $LN2@scalar
  0001c	68 e0 03 00 00	 push	 992			; 000003e0H
  00021	8b 45 fc	 mov	 eax, DWORD PTR _this$[ebp]
  00024	50		 push	 eax
  00025	e8 00 00 00 00	 call	 ??3@YAXPAXI@Z		; operator delete
  0002a	83 c4 08	 add	 esp, 8
$LN2@scalar:
  0002d	8b 45 fc	 mov	 eax, DWORD PTR _this$[ebp]
  00030	5f		 pop	 edi
  00031	5e		 pop	 esi
  00032	5b		 pop	 ebx
  00033	8b e5		 mov	 esp, ebp
  00035	5d		 pop	 ebp
  00036	c2 04 00	 ret	 4
??_GCDevilSquareGround@@UAEPAXI@Z ENDP			; CDevilSquareGround::`scalar deleting destructor'
_TEXT	ENDS
; Function compile flags: /Odtp /ZI
; File C:\Mu Online\Mu-GS-Webzen-MC-10093\GameServer\DevilSquareGround.cpp
;	COMDAT ?SendScore@CDevilSquareGround@@QAEXXZ
_TEXT	SEGMENT
tv909 = -120						; size = 4
tv534 = -120						; size = 4
tv526 = -120						; size = 4
tv487 = -120						; size = 4
$T1 = -116						; size = 4
$T2 = -112						; size = 4
$T3 = -108						; size = 4
_iZEN$4 = -40						; size = 4
_bSendExp$5 = -33					; size = 1
_rate$6 = -32						; size = 4
_iSize$ = -28						; size = 4
_rate$7 = -24						; size = 4
_Itor$ = -20						; size = 4
_iExp$ = -16						; size = 4
_iUserCount$ = -12					; size = 4
_count$ = -5						; size = 1
_this$ = -4						; size = 4
?SendScore@CDevilSquareGround@@QAEXXZ PROC		; CDevilSquareGround::SendScore, COMDAT
; _this$ = ecx

; 351  : {

  00000	55		 push	 ebp
  00001	8b ec		 mov	 ebp, esp
  00003	83 ec 78	 sub	 esp, 120		; 00000078H
  00006	53		 push	 ebx
  00007	56		 push	 esi
  00008	57		 push	 edi
  00009	89 4d fc	 mov	 DWORD PTR _this$[ebp], ecx

; 352  : 	if( m_DevilSquareRankList.size() < 1 )

  0000c	8b 4d fc	 mov	 ecx, DWORD PTR _this$[ebp]
  0000f	81 c1 5c 02 00
	00		 add	 ecx, 604		; 0000025cH
  00015	e8 00 00 00 00	 call	 ?size@?$vector@PAVOBJECTSTRUCT@@V?$allocator@PAVOBJECTSTRUCT@@@std@@@std@@QBEIXZ ; std::vector<OBJECTSTRUCT *,std::allocator<OBJECTSTRUCT *> >::size
  0001a	83 f8 01	 cmp	 eax, 1
  0001d	73 05		 jae	 SHORT $LN8@SendScore

; 353  : 	{	//  
; 354  : 		return;

  0001f	e9 77 09 00 00	 jmp	 $LN1@SendScore
$LN8@SendScore:

; 355  : 	}
; 356  : 
; 357  : 	BYTE count = 1;

  00024	c6 45 fb 01	 mov	 BYTE PTR _count$[ebp], 1

; 358  : 	int iUserCount = m_DevilSquareRankList.size();

  00028	8b 4d fc	 mov	 ecx, DWORD PTR _this$[ebp]
  0002b	81 c1 5c 02 00
	00		 add	 ecx, 604		; 0000025cH
  00031	e8 00 00 00 00	 call	 ?size@?$vector@PAVOBJECTSTRUCT@@V?$allocator@PAVOBJECTSTRUCT@@@std@@@std@@QBEIXZ ; std::vector<OBJECTSTRUCT *,std::allocator<OBJECTSTRUCT *> >::size
  00036	89 45 f4	 mov	 DWORD PTR _iUserCount$[ebp], eax

; 359  : 
; 360  : #ifdef ADD_PCS_MARK_OF_EXP_20070205
; 361  : 	int iExp = 0;

  00039	c7 45 f0 00 00
	00 00		 mov	 DWORD PTR _iExp$[ebp], 0

; 362  : #endif // ADD_PCS_MARK_OF_EXP_20070205
; 363  : 	
; 364  : 	DevilSquareRankList::iterator Itor = m_DevilSquareRankList.begin();

  00040	8d 45 ec	 lea	 eax, DWORD PTR _Itor$[ebp]
  00043	50		 push	 eax
  00044	8b 4d fc	 mov	 ecx, DWORD PTR _this$[ebp]
  00047	81 c1 5c 02 00
	00		 add	 ecx, 604		; 0000025cH
  0004d	e8 00 00 00 00	 call	 ?begin@?$vector@PAVOBJECTSTRUCT@@V?$allocator@PAVOBJECTSTRUCT@@@std@@@std@@QAE?AV?$_Vector_iterator@V?$_Vector_val@U?$_Simple_types@PAVOBJECTSTRUCT@@@std@@@std@@@2@XZ ; std::vector<OBJECTSTRUCT *,std::allocator<OBJECTSTRUCT *> >::begin
  00052	eb 08		 jmp	 SHORT $LN4@SendScore
$LN2@SendScore:

; 365  : 	for( ; Itor != m_DevilSquareRankList.end(); ++Itor)

  00054	8d 4d ec	 lea	 ecx, DWORD PTR _Itor$[ebp]
  00057	e8 00 00 00 00	 call	 ??E?$_Vector_iterator@V?$_Vector_val@U?$_Simple_types@PAVOBJECTSTRUCT@@@std@@@std@@@std@@QAEAAV01@XZ ; std::_Vector_iterator<std::_Vector_val<std::_Simple_types<OBJECTSTRUCT *> > >::operator++
$LN4@SendScore:
  0005c	8d 45 94	 lea	 eax, DWORD PTR $T3[ebp]
  0005f	50		 push	 eax
  00060	8b 4d fc	 mov	 ecx, DWORD PTR _this$[ebp]
  00063	81 c1 5c 02 00
	00		 add	 ecx, 604		; 0000025cH
  00069	e8 00 00 00 00	 call	 ?end@?$vector@PAVOBJECTSTRUCT@@V?$allocator@PAVOBJECTSTRUCT@@@std@@@std@@QAE?AV?$_Vector_iterator@V?$_Vector_val@U?$_Simple_types@PAVOBJECTSTRUCT@@@std@@@std@@@2@XZ ; std::vector<OBJECTSTRUCT *,std::allocator<OBJECTSTRUCT *> >::end
  0006e	50		 push	 eax
  0006f	8d 4d ec	 lea	 ecx, DWORD PTR _Itor$[ebp]
  00072	e8 00 00 00 00	 call	 ??9?$_Vector_const_iterator@V?$_Vector_val@U?$_Simple_types@PAVOBJECTSTRUCT@@@std@@@std@@@std@@QBE_NABV01@@Z ; std::_Vector_const_iterator<std::_Vector_val<std::_Simple_types<OBJECTSTRUCT *> > >::operator!=
  00077	0f b6 c8	 movzx	 ecx, al
  0007a	85 c9		 test	 ecx, ecx
  0007c	0f 84 ca 02 00
	00		 je	 $LN3@SendScore

; 366  : 	{
; 367  : 		memcpy(m_DevilSquareScoreInfoTOP10.Score[count].Name, (*Itor)->Name, 10);		

  00082	6a 0a		 push	 10			; 0000000aH
  00084	8d 4d ec	 lea	 ecx, DWORD PTR _Itor$[ebp]
  00087	e8 00 00 00 00	 call	 ??D?$_Vector_iterator@V?$_Vector_val@U?$_Simple_types@PAVOBJECTSTRUCT@@@std@@@std@@@std@@QBEAAPAVOBJECTSTRUCT@@XZ ; std::_Vector_iterator<std::_Vector_val<std::_Simple_types<OBJECTSTRUCT *> > >::operator*
  0008c	8b 00		 mov	 eax, DWORD PTR [eax]
  0008e	83 c0 73	 add	 eax, 115		; 00000073H
  00091	50		 push	 eax
  00092	0f b6 4d fb	 movzx	 ecx, BYTE PTR _count$[ebp]
  00096	6b d1 18	 imul	 edx, ecx, 24
  00099	8b 45 fc	 mov	 eax, DWORD PTR _this$[ebp]
  0009c	8d 8c 10 6d 02
	00 00		 lea	 ecx, DWORD PTR [eax+edx+621]
  000a3	51		 push	 ecx
  000a4	e8 00 00 00 00	 call	 _memcpy
  000a9	83 c4 0c	 add	 esp, 12			; 0000000cH

; 368  : 		
; 369  : 		m_DevilSquareScoreInfoTOP10.Score[count].TotalScore = (*Itor)->m_nEventScore;

  000ac	8d 4d ec	 lea	 ecx, DWORD PTR _Itor$[ebp]
  000af	e8 00 00 00 00	 call	 ??D?$_Vector_iterator@V?$_Vector_val@U?$_Simple_types@PAVOBJECTSTRUCT@@@std@@@std@@@std@@QBEAAPAVOBJECTSTRUCT@@XZ ; std::_Vector_iterator<std::_Vector_val<std::_Simple_types<OBJECTSTRUCT *> > >::operator*
  000b4	8b 00		 mov	 eax, DWORD PTR [eax]
  000b6	0f b6 4d fb	 movzx	 ecx, BYTE PTR _count$[ebp]
  000ba	6b d1 18	 imul	 edx, ecx, 24
  000bd	8b 4d fc	 mov	 ecx, DWORD PTR _this$[ebp]
  000c0	8b 80 c4 0c 00
	00		 mov	 eax, DWORD PTR [eax+3268]
  000c6	89 84 11 79 02
	00 00		 mov	 DWORD PTR [ecx+edx+633], eax

; 370  : 
; 371  : 		if( iUserCount <= 6 )

  000cd	83 7d f4 06	 cmp	 DWORD PTR _iUserCount$[ebp], 6
  000d1	0f 8f c0 00 00
	00		 jg	 $LN9@SendScore

; 372  : 		{
; 373  : #ifdef DEVILSQUARE_EXTEND_20050221
; 374  : 			if( count < 4 )
; 375  : #else
; 376  : 			if( count < 3 )

  000d7	0f b6 45 fb	 movzx	 eax, BYTE PTR _count$[ebp]
  000db	83 f8 03	 cmp	 eax, 3
  000de	7d 56		 jge	 SHORT $LN11@SendScore

; 377  : #endif
; 378  : 			{
; 379  : 				m_DevilSquareScoreInfoTOP10.Score[count].BonusZen = m_Bonus[count-1][0];

  000e0	0f b6 45 fb	 movzx	 eax, BYTE PTR _count$[ebp]
  000e4	8b 4d fc	 mov	 ecx, DWORD PTR _this$[ebp]
  000e7	8d 94 c1 74 03
	00 00		 lea	 edx, DWORD PTR [ecx+eax*8+884]
  000ee	b8 04 00 00 00	 mov	 eax, 4
  000f3	6b c8 00	 imul	 ecx, eax, 0
  000f6	0f b6 45 fb	 movzx	 eax, BYTE PTR _count$[ebp]
  000fa	6b c0 18	 imul	 eax, eax, 24
  000fd	8b 75 fc	 mov	 esi, DWORD PTR _this$[ebp]
  00100	8b 0c 0a	 mov	 ecx, DWORD PTR [edx+ecx]
  00103	89 8c 06 81 02
	00 00		 mov	 DWORD PTR [esi+eax+641], ecx

; 380  : 				m_DevilSquareScoreInfoTOP10.Score[count].BonusExp = m_Bonus[count-1][1];

  0010a	0f b6 45 fb	 movzx	 eax, BYTE PTR _count$[ebp]
  0010e	8b 4d fc	 mov	 ecx, DWORD PTR _this$[ebp]
  00111	8d 94 c1 74 03
	00 00		 lea	 edx, DWORD PTR [ecx+eax*8+884]
  00118	b8 04 00 00 00	 mov	 eax, 4
  0011d	c1 e0 00	 shl	 eax, 0
  00120	0f b6 4d fb	 movzx	 ecx, BYTE PTR _count$[ebp]
  00124	6b c9 18	 imul	 ecx, ecx, 24
  00127	8b 75 fc	 mov	 esi, DWORD PTR _this$[ebp]
  0012a	8b 14 02	 mov	 edx, DWORD PTR [edx+eax]
  0012d	89 94 0e 7d 02
	00 00		 mov	 DWORD PTR [esi+ecx+637], edx

; 381  : 			}

  00134	eb 5c		 jmp	 SHORT $LN12@SendScore
$LN11@SendScore:

; 382  : 			else
; 383  : 			{
; 384  : 				m_DevilSquareScoreInfoTOP10.Score[count].BonusZen = m_Bonus[3][0];

  00136	b8 08 00 00 00	 mov	 eax, 8
  0013b	6b c8 03	 imul	 ecx, eax, 3
  0013e	8b 55 fc	 mov	 edx, DWORD PTR _this$[ebp]
  00141	8d 84 0a 7c 03
	00 00		 lea	 eax, DWORD PTR [edx+ecx+892]
  00148	b9 04 00 00 00	 mov	 ecx, 4
  0014d	6b d1 00	 imul	 edx, ecx, 0
  00150	0f b6 4d fb	 movzx	 ecx, BYTE PTR _count$[ebp]
  00154	6b c9 18	 imul	 ecx, ecx, 24
  00157	8b 75 fc	 mov	 esi, DWORD PTR _this$[ebp]
  0015a	8b 14 10	 mov	 edx, DWORD PTR [eax+edx]
  0015d	89 94 0e 81 02
	00 00		 mov	 DWORD PTR [esi+ecx+641], edx

; 385  : 				m_DevilSquareScoreInfoTOP10.Score[count].BonusExp = m_Bonus[3][1];

  00164	b8 08 00 00 00	 mov	 eax, 8
  00169	6b c8 03	 imul	 ecx, eax, 3
  0016c	8b 55 fc	 mov	 edx, DWORD PTR _this$[ebp]
  0016f	8d 84 0a 7c 03
	00 00		 lea	 eax, DWORD PTR [edx+ecx+892]
  00176	b9 04 00 00 00	 mov	 ecx, 4
  0017b	c1 e1 00	 shl	 ecx, 0
  0017e	0f b6 55 fb	 movzx	 edx, BYTE PTR _count$[ebp]
  00182	6b d2 18	 imul	 edx, edx, 24
  00185	8b 75 fc	 mov	 esi, DWORD PTR _this$[ebp]
  00188	8b 04 08	 mov	 eax, DWORD PTR [eax+ecx]
  0018b	89 84 16 7d 02
	00 00		 mov	 DWORD PTR [esi+edx+637], eax
$LN12@SendScore:

; 386  : 			}
; 387  : 		}

  00192	e9 9d 01 00 00	 jmp	 $LN18@SendScore
$LN9@SendScore:

; 388  : 		else
; 389  : 		{
; 390  : 			int rate = ((count*100)/iUserCount);

  00197	0f b6 45 fb	 movzx	 eax, BYTE PTR _count$[ebp]
  0019b	6b c0 64	 imul	 eax, eax, 100
  0019e	99		 cdq
  0019f	f7 7d f4	 idiv	 DWORD PTR _iUserCount$[ebp]
  001a2	89 45 e8	 mov	 DWORD PTR _rate$7[ebp], eax

; 391  : 			if( count == 1 )

  001a5	0f b6 45 fb	 movzx	 eax, BYTE PTR _count$[ebp]
  001a9	83 f8 01	 cmp	 eax, 1
  001ac	75 61		 jne	 SHORT $LN13@SendScore

; 392  : 			{	//  
; 393  : 				m_DevilSquareScoreInfoTOP10.Score[count].BonusZen = m_Bonus[0][0];

  001ae	b8 08 00 00 00	 mov	 eax, 8
  001b3	6b c8 00	 imul	 ecx, eax, 0
  001b6	8b 55 fc	 mov	 edx, DWORD PTR _this$[ebp]
  001b9	8d 84 0a 7c 03
	00 00		 lea	 eax, DWORD PTR [edx+ecx+892]
  001c0	b9 04 00 00 00	 mov	 ecx, 4
  001c5	6b d1 00	 imul	 edx, ecx, 0
  001c8	0f b6 4d fb	 movzx	 ecx, BYTE PTR _count$[ebp]
  001cc	6b c9 18	 imul	 ecx, ecx, 24
  001cf	8b 75 fc	 mov	 esi, DWORD PTR _this$[ebp]
  001d2	8b 14 10	 mov	 edx, DWORD PTR [eax+edx]
  001d5	89 94 0e 81 02
	00 00		 mov	 DWORD PTR [esi+ecx+641], edx

; 394  : 				m_DevilSquareScoreInfoTOP10.Score[count].BonusExp = m_Bonus[0][1];

  001dc	b8 08 00 00 00	 mov	 eax, 8
  001e1	6b c8 00	 imul	 ecx, eax, 0
  001e4	8b 55 fc	 mov	 edx, DWORD PTR _this$[ebp]
  001e7	8d 84 0a 7c 03
	00 00		 lea	 eax, DWORD PTR [edx+ecx+892]
  001ee	b9 04 00 00 00	 mov	 ecx, 4
  001f3	c1 e1 00	 shl	 ecx, 0
  001f6	0f b6 55 fb	 movzx	 edx, BYTE PTR _count$[ebp]
  001fa	6b d2 18	 imul	 edx, edx, 24
  001fd	8b 75 fc	 mov	 esi, DWORD PTR _this$[ebp]
  00200	8b 04 08	 mov	 eax, DWORD PTR [eax+ecx]
  00203	89 84 16 7d 02
	00 00		 mov	 DWORD PTR [esi+edx+637], eax

; 395  : 			}

  0020a	e9 25 01 00 00	 jmp	 $LN18@SendScore
$LN13@SendScore:

; 396  : 			else if( rate <= 30 )

  0020f	83 7d e8 1e	 cmp	 DWORD PTR _rate$7[ebp], 30 ; 0000001eH
  00213	7f 61		 jg	 SHORT $LN15@SendScore

; 397  : 			{	// 30% 
; 398  : 				m_DevilSquareScoreInfoTOP10.Score[count].BonusZen = m_Bonus[1][0];

  00215	b8 08 00 00 00	 mov	 eax, 8
  0021a	c1 e0 00	 shl	 eax, 0
  0021d	8b 4d fc	 mov	 ecx, DWORD PTR _this$[ebp]
  00220	8d 94 01 7c 03
	00 00		 lea	 edx, DWORD PTR [ecx+eax+892]
  00227	b8 04 00 00 00	 mov	 eax, 4
  0022c	6b c8 00	 imul	 ecx, eax, 0
  0022f	0f b6 45 fb	 movzx	 eax, BYTE PTR _count$[ebp]
  00233	6b c0 18	 imul	 eax, eax, 24
  00236	8b 75 fc	 mov	 esi, DWORD PTR _this$[ebp]
  00239	8b 0c 0a	 mov	 ecx, DWORD PTR [edx+ecx]
  0023c	89 8c 06 81 02
	00 00		 mov	 DWORD PTR [esi+eax+641], ecx

; 399  : 				m_DevilSquareScoreInfoTOP10.Score[count].BonusExp = m_Bonus[1][1];

  00243	b8 08 00 00 00	 mov	 eax, 8
  00248	c1 e0 00	 shl	 eax, 0
  0024b	8b 4d fc	 mov	 ecx, DWORD PTR _this$[ebp]
  0024e	8d 94 01 7c 03
	00 00		 lea	 edx, DWORD PTR [ecx+eax+892]
  00255	b8 04 00 00 00	 mov	 eax, 4
  0025a	c1 e0 00	 shl	 eax, 0
  0025d	0f b6 4d fb	 movzx	 ecx, BYTE PTR _count$[ebp]
  00261	6b c9 18	 imul	 ecx, ecx, 24
  00264	8b 75 fc	 mov	 esi, DWORD PTR _this$[ebp]
  00267	8b 14 02	 mov	 edx, DWORD PTR [edx+eax]
  0026a	89 94 0e 7d 02
	00 00		 mov	 DWORD PTR [esi+ecx+637], edx

; 400  : 			}

  00271	e9 be 00 00 00	 jmp	 $LN18@SendScore
$LN15@SendScore:

; 401  : 			else if( rate <= 50 )

  00276	83 7d e8 32	 cmp	 DWORD PTR _rate$7[ebp], 50 ; 00000032H
  0027a	7f 5c		 jg	 SHORT $LN17@SendScore

; 402  : 			{	// 50%
; 403  : 				m_DevilSquareScoreInfoTOP10.Score[count].BonusZen = m_Bonus[2][0];

  0027c	b8 08 00 00 00	 mov	 eax, 8
  00281	d1 e0		 shl	 eax, 1
  00283	8b 4d fc	 mov	 ecx, DWORD PTR _this$[ebp]
  00286	8d 94 01 7c 03
	00 00		 lea	 edx, DWORD PTR [ecx+eax+892]
  0028d	b8 04 00 00 00	 mov	 eax, 4
  00292	6b c8 00	 imul	 ecx, eax, 0
  00295	0f b6 45 fb	 movzx	 eax, BYTE PTR _count$[ebp]
  00299	6b c0 18	 imul	 eax, eax, 24
  0029c	8b 75 fc	 mov	 esi, DWORD PTR _this$[ebp]
  0029f	8b 0c 0a	 mov	 ecx, DWORD PTR [edx+ecx]
  002a2	89 8c 06 81 02
	00 00		 mov	 DWORD PTR [esi+eax+641], ecx

; 404  : 				m_DevilSquareScoreInfoTOP10.Score[count].BonusExp = m_Bonus[2][1];

  002a9	b8 08 00 00 00	 mov	 eax, 8
  002ae	d1 e0		 shl	 eax, 1
  002b0	8b 4d fc	 mov	 ecx, DWORD PTR _this$[ebp]
  002b3	8d 94 01 7c 03
	00 00		 lea	 edx, DWORD PTR [ecx+eax+892]
  002ba	b8 04 00 00 00	 mov	 eax, 4
  002bf	c1 e0 00	 shl	 eax, 0
  002c2	0f b6 4d fb	 movzx	 ecx, BYTE PTR _count$[ebp]
  002c6	6b c9 18	 imul	 ecx, ecx, 24
  002c9	8b 75 fc	 mov	 esi, DWORD PTR _this$[ebp]
  002cc	8b 14 02	 mov	 edx, DWORD PTR [edx+eax]
  002cf	89 94 0e 7d 02
	00 00		 mov	 DWORD PTR [esi+ecx+637], edx

; 405  : 			}

  002d6	eb 5c		 jmp	 SHORT $LN18@SendScore
$LN17@SendScore:

; 406  : 			else
; 407  : 			{	// 
; 408  : 				m_DevilSquareScoreInfoTOP10.Score[count].BonusZen = m_Bonus[3][0];

  002d8	b8 08 00 00 00	 mov	 eax, 8
  002dd	6b c8 03	 imul	 ecx, eax, 3
  002e0	8b 55 fc	 mov	 edx, DWORD PTR _this$[ebp]
  002e3	8d 84 0a 7c 03
	00 00		 lea	 eax, DWORD PTR [edx+ecx+892]
  002ea	b9 04 00 00 00	 mov	 ecx, 4
  002ef	6b d1 00	 imul	 edx, ecx, 0
  002f2	0f b6 4d fb	 movzx	 ecx, BYTE PTR _count$[ebp]
  002f6	6b c9 18	 imul	 ecx, ecx, 24
  002f9	8b 75 fc	 mov	 esi, DWORD PTR _this$[ebp]
  002fc	8b 14 10	 mov	 edx, DWORD PTR [eax+edx]
  002ff	89 94 0e 81 02
	00 00		 mov	 DWORD PTR [esi+ecx+641], edx

; 409  : 				m_DevilSquareScoreInfoTOP10.Score[count].BonusExp = m_Bonus[3][1];

  00306	b8 08 00 00 00	 mov	 eax, 8
  0030b	6b c8 03	 imul	 ecx, eax, 3
  0030e	8b 55 fc	 mov	 edx, DWORD PTR _this$[ebp]
  00311	8d 84 0a 7c 03
	00 00		 lea	 eax, DWORD PTR [edx+ecx+892]
  00318	b9 04 00 00 00	 mov	 ecx, 4
  0031d	c1 e1 00	 shl	 ecx, 0
  00320	0f b6 55 fb	 movzx	 edx, BYTE PTR _count$[ebp]
  00324	6b d2 18	 imul	 edx, edx, 24
  00327	8b 75 fc	 mov	 esi, DWORD PTR _this$[ebp]
  0032a	8b 04 08	 mov	 eax, DWORD PTR [eax+ecx]
  0032d	89 84 16 7d 02
	00 00		 mov	 DWORD PTR [esi+edx+637], eax
$LN18@SendScore:

; 410  : 			}
; 411  : 		}
; 412  : 		
; 413  : 		count++;

  00334	8a 45 fb	 mov	 al, BYTE PTR _count$[ebp]
  00337	04 01		 add	 al, 1
  00339	88 45 fb	 mov	 BYTE PTR _count$[ebp], al

; 414  : 		if( count >= 10 )

  0033c	0f b6 45 fb	 movzx	 eax, BYTE PTR _count$[ebp]
  00340	83 f8 0a	 cmp	 eax, 10			; 0000000aH
  00343	7c 02		 jl	 SHORT $LN19@SendScore

; 415  : 			break;

  00345	eb 05		 jmp	 SHORT $LN3@SendScore
$LN19@SendScore:

; 416  : 	}

  00347	e9 08 fd ff ff	 jmp	 $LN2@SendScore
$LN3@SendScore:

; 417  : 
; 418  : 	m_DevilSquareScoreInfoTOP10.Count = count;

  0034c	8b 45 fc	 mov	 eax, DWORD PTR _this$[ebp]
  0034f	8a 4d fb	 mov	 cl, BYTE PTR _count$[ebp]
  00352	88 88 6c 02 00
	00		 mov	 BYTE PTR [eax+620], cl

; 419  : 
; 420  : 	int	iSize = 3+(sizeof(DevilSquareScoreInfo)*count)+2;

  00358	0f b6 45 fb	 movzx	 eax, BYTE PTR _count$[ebp]
  0035c	6b c8 18	 imul	 ecx, eax, 24
  0035f	83 c1 05	 add	 ecx, 5
  00362	89 4d e4	 mov	 DWORD PTR _iSize$[ebp], ecx

; 421  : 	PHeadSetB((LPBYTE)&m_DevilSquareScoreInfoTOP10, 0x93, iSize);

  00365	8b 45 e4	 mov	 eax, DWORD PTR _iSize$[ebp]
  00368	50		 push	 eax
  00369	68 93 00 00 00	 push	 147			; 00000093H
  0036e	8b 4d fc	 mov	 ecx, DWORD PTR _this$[ebp]
  00371	81 c1 68 02 00
	00		 add	 ecx, 616		; 00000268H
  00377	51		 push	 ecx
  00378	e8 00 00 00 00	 call	 ?PHeadSetB@@YAXPAEEH@Z	; PHeadSetB
  0037d	83 c4 0c	 add	 esp, 12			; 0000000cH

; 422  : 
; 423  : 	count = 1;

  00380	c6 45 fb 01	 mov	 BYTE PTR _count$[ebp], 1

; 424  : 
; 425  : 	Itor = m_DevilSquareRankList.begin();

  00384	8d 45 90	 lea	 eax, DWORD PTR $T2[ebp]
  00387	50		 push	 eax
  00388	8b 4d fc	 mov	 ecx, DWORD PTR _this$[ebp]
  0038b	81 c1 5c 02 00
	00		 add	 ecx, 604		; 0000025cH
  00391	e8 00 00 00 00	 call	 ?begin@?$vector@PAVOBJECTSTRUCT@@V?$allocator@PAVOBJECTSTRUCT@@@std@@@std@@QAE?AV?$_Vector_iterator@V?$_Vector_val@U?$_Simple_types@PAVOBJECTSTRUCT@@@std@@@std@@@2@XZ ; std::vector<OBJECTSTRUCT *,std::allocator<OBJECTSTRUCT *> >::begin
  00396	8b 08		 mov	 ecx, DWORD PTR [eax]
  00398	89 4d ec	 mov	 DWORD PTR _Itor$[ebp], ecx

; 426  : 
; 427  : 	LogAddTD("[DevilSquare] Rank [%d]", m_iIndex);

  0039b	8b 45 fc	 mov	 eax, DWORD PTR _this$[ebp]
  0039e	8b 88 78 03 00
	00		 mov	 ecx, DWORD PTR [eax+888]
  003a4	51		 push	 ecx
  003a5	68 00 00 00 00	 push	 OFFSET ??_C@_0BI@NLONHAKI@?$FLDevilSquare?$FN?5Rank?5?$FL?$CFd?$FN@
  003aa	ff 15 00 00 00
	00		 call	 DWORD PTR ?LogAddTD@@3P6AXPADZZA ; LogAddTD
  003b0	83 c4 08	 add	 esp, 8
  003b3	eb 08		 jmp	 SHORT $LN7@SendScore
$LN5@SendScore:

; 428  : 	for( ; Itor != m_DevilSquareRankList.end(); ++Itor)

  003b5	8d 4d ec	 lea	 ecx, DWORD PTR _Itor$[ebp]
  003b8	e8 00 00 00 00	 call	 ??E?$_Vector_iterator@V?$_Vector_val@U?$_Simple_types@PAVOBJECTSTRUCT@@@std@@@std@@@std@@QAEAAV01@XZ ; std::_Vector_iterator<std::_Vector_val<std::_Simple_types<OBJECTSTRUCT *> > >::operator++
$LN7@SendScore:
  003bd	8d 45 8c	 lea	 eax, DWORD PTR $T1[ebp]
  003c0	50		 push	 eax
  003c1	8b 4d fc	 mov	 ecx, DWORD PTR _this$[ebp]
  003c4	81 c1 5c 02 00
	00		 add	 ecx, 604		; 0000025cH
  003ca	e8 00 00 00 00	 call	 ?end@?$vector@PAVOBJECTSTRUCT@@V?$allocator@PAVOBJECTSTRUCT@@@std@@@std@@QAE?AV?$_Vector_iterator@V?$_Vector_val@U?$_Simple_types@PAVOBJECTSTRUCT@@@std@@@std@@@2@XZ ; std::vector<OBJECTSTRUCT *,std::allocator<OBJECTSTRUCT *> >::end
  003cf	50		 push	 eax
  003d0	8d 4d ec	 lea	 ecx, DWORD PTR _Itor$[ebp]
  003d3	e8 00 00 00 00	 call	 ??9?$_Vector_const_iterator@V?$_Vector_val@U?$_Simple_types@PAVOBJECTSTRUCT@@@std@@@std@@@std@@QBE_NABV01@@Z ; std::_Vector_const_iterator<std::_Vector_val<std::_Simple_types<OBJECTSTRUCT *> > >::operator!=
  003d8	0f b6 c8	 movzx	 ecx, al
  003db	85 c9		 test	 ecx, ecx
  003dd	0f 84 b8 05 00
	00		 je	 $LN6@SendScore

; 429  : 	{	
; 430  : 		if( iUserCount <= 6 )

  003e3	83 7d f4 06	 cmp	 DWORD PTR _iUserCount$[ebp], 6
  003e7	0f 8f c4 00 00
	00		 jg	 $LN20@SendScore

; 431  : 		{
; 432  : #ifdef DEVILSQUARE_EXTEND_20050221
; 433  : 			if( count < 4 )
; 434  : #else
; 435  : 			if( count < 3 )

  003ed	0f b6 45 fb	 movzx	 eax, BYTE PTR _count$[ebp]
  003f1	83 f8 03	 cmp	 eax, 3
  003f4	7d 58		 jge	 SHORT $LN22@SendScore

; 436  : #endif // DEVILSQUARE_EXTEND_20050221
; 437  : 			{
; 438  : 				m_DevilSquareScoreInfoTOP10.Score[0].BonusZen = m_Bonus[count-1][0];

  003f6	0f b6 45 fb	 movzx	 eax, BYTE PTR _count$[ebp]
  003fa	8b 4d fc	 mov	 ecx, DWORD PTR _this$[ebp]
  003fd	8d 94 c1 74 03
	00 00		 lea	 edx, DWORD PTR [ecx+eax*8+884]
  00404	b8 04 00 00 00	 mov	 eax, 4
  00409	6b c8 00	 imul	 ecx, eax, 0
  0040c	b8 18 00 00 00	 mov	 eax, 24			; 00000018H
  00411	6b c0 00	 imul	 eax, eax, 0
  00414	8b 75 fc	 mov	 esi, DWORD PTR _this$[ebp]
  00417	8b 0c 0a	 mov	 ecx, DWORD PTR [edx+ecx]
  0041a	89 8c 06 81 02
	00 00		 mov	 DWORD PTR [esi+eax+641], ecx

; 439  : 				m_DevilSquareScoreInfoTOP10.Score[0].BonusExp = m_Bonus[count-1][1];

  00421	0f b6 45 fb	 movzx	 eax, BYTE PTR _count$[ebp]
  00425	8b 4d fc	 mov	 ecx, DWORD PTR _this$[ebp]
  00428	8d 94 c1 74 03
	00 00		 lea	 edx, DWORD PTR [ecx+eax*8+884]
  0042f	b8 04 00 00 00	 mov	 eax, 4
  00434	c1 e0 00	 shl	 eax, 0
  00437	b9 18 00 00 00	 mov	 ecx, 24			; 00000018H
  0043c	6b c9 00	 imul	 ecx, ecx, 0
  0043f	8b 75 fc	 mov	 esi, DWORD PTR _this$[ebp]
  00442	8b 14 02	 mov	 edx, DWORD PTR [edx+eax]
  00445	89 94 0e 7d 02
	00 00		 mov	 DWORD PTR [esi+ecx+637], edx

; 440  : 			}

  0044c	eb 5e		 jmp	 SHORT $LN23@SendScore
$LN22@SendScore:

; 441  : 			else
; 442  : 			{
; 443  : 				m_DevilSquareScoreInfoTOP10.Score[0].BonusZen = m_Bonus[3][0];

  0044e	b8 08 00 00 00	 mov	 eax, 8
  00453	6b c8 03	 imul	 ecx, eax, 3
  00456	8b 55 fc	 mov	 edx, DWORD PTR _this$[ebp]
  00459	8d 84 0a 7c 03
	00 00		 lea	 eax, DWORD PTR [edx+ecx+892]
  00460	b9 04 00 00 00	 mov	 ecx, 4
  00465	6b d1 00	 imul	 edx, ecx, 0
  00468	b9 18 00 00 00	 mov	 ecx, 24			; 00000018H
  0046d	6b c9 00	 imul	 ecx, ecx, 0
  00470	8b 75 fc	 mov	 esi, DWORD PTR _this$[ebp]
  00473	8b 14 10	 mov	 edx, DWORD PTR [eax+edx]
  00476	89 94 0e 81 02
	00 00		 mov	 DWORD PTR [esi+ecx+641], edx

; 444  : 				m_DevilSquareScoreInfoTOP10.Score[0].BonusExp = m_Bonus[3][1];

  0047d	b8 08 00 00 00	 mov	 eax, 8
  00482	6b c8 03	 imul	 ecx, eax, 3
  00485	8b 55 fc	 mov	 edx, DWORD PTR _this$[ebp]
  00488	8d 84 0a 7c 03
	00 00		 lea	 eax, DWORD PTR [edx+ecx+892]
  0048f	b9 04 00 00 00	 mov	 ecx, 4
  00494	c1 e1 00	 shl	 ecx, 0
  00497	ba 18 00 00 00	 mov	 edx, 24			; 00000018H
  0049c	6b d2 00	 imul	 edx, edx, 0
  0049f	8b 75 fc	 mov	 esi, DWORD PTR _this$[ebp]
  004a2	8b 04 08	 mov	 eax, DWORD PTR [eax+ecx]
  004a5	89 84 16 7d 02
	00 00		 mov	 DWORD PTR [esi+edx+637], eax
$LN23@SendScore:

; 445  : 			}
; 446  : 		}

  004ac	e9 a5 01 00 00	 jmp	 $LN29@SendScore
$LN20@SendScore:

; 447  : 		else
; 448  : 		{
; 449  : 			int rate = ((count*100)/iUserCount);

  004b1	0f b6 45 fb	 movzx	 eax, BYTE PTR _count$[ebp]
  004b5	6b c0 64	 imul	 eax, eax, 100
  004b8	99		 cdq
  004b9	f7 7d f4	 idiv	 DWORD PTR _iUserCount$[ebp]
  004bc	89 45 e0	 mov	 DWORD PTR _rate$6[ebp], eax

; 450  : 			if( count == 1 )

  004bf	0f b6 45 fb	 movzx	 eax, BYTE PTR _count$[ebp]
  004c3	83 f8 01	 cmp	 eax, 1
  004c6	75 63		 jne	 SHORT $LN24@SendScore

; 451  : 			{	//  
; 452  : 				m_DevilSquareScoreInfoTOP10.Score[0].BonusZen = m_Bonus[0][0];

  004c8	b8 08 00 00 00	 mov	 eax, 8
  004cd	6b c8 00	 imul	 ecx, eax, 0
  004d0	8b 55 fc	 mov	 edx, DWORD PTR _this$[ebp]
  004d3	8d 84 0a 7c 03
	00 00		 lea	 eax, DWORD PTR [edx+ecx+892]
  004da	b9 04 00 00 00	 mov	 ecx, 4
  004df	6b d1 00	 imul	 edx, ecx, 0
  004e2	b9 18 00 00 00	 mov	 ecx, 24			; 00000018H
  004e7	6b c9 00	 imul	 ecx, ecx, 0
  004ea	8b 75 fc	 mov	 esi, DWORD PTR _this$[ebp]
  004ed	8b 14 10	 mov	 edx, DWORD PTR [eax+edx]
  004f0	89 94 0e 81 02
	00 00		 mov	 DWORD PTR [esi+ecx+641], edx

; 453  : 				m_DevilSquareScoreInfoTOP10.Score[0].BonusExp = m_Bonus[0][1];

  004f7	b8 08 00 00 00	 mov	 eax, 8
  004fc	6b c8 00	 imul	 ecx, eax, 0
  004ff	8b 55 fc	 mov	 edx, DWORD PTR _this$[ebp]
  00502	8d 84 0a 7c 03
	00 00		 lea	 eax, DWORD PTR [edx+ecx+892]
  00509	b9 04 00 00 00	 mov	 ecx, 4
  0050e	c1 e1 00	 shl	 ecx, 0
  00511	ba 18 00 00 00	 mov	 edx, 24			; 00000018H
  00516	6b d2 00	 imul	 edx, edx, 0
  00519	8b 75 fc	 mov	 esi, DWORD PTR _this$[ebp]
  0051c	8b 04 08	 mov	 eax, DWORD PTR [eax+ecx]
  0051f	89 84 16 7d 02
	00 00		 mov	 DWORD PTR [esi+edx+637], eax

; 454  : 			}

  00526	e9 2b 01 00 00	 jmp	 $LN29@SendScore
$LN24@SendScore:

; 455  : 			else if( rate <= 30 )

  0052b	83 7d e0 1e	 cmp	 DWORD PTR _rate$6[ebp], 30 ; 0000001eH
  0052f	7f 63		 jg	 SHORT $LN26@SendScore

; 456  : 			{	// 30% 
; 457  : 				m_DevilSquareScoreInfoTOP10.Score[0].BonusZen = m_Bonus[1][0];

  00531	b8 08 00 00 00	 mov	 eax, 8
  00536	c1 e0 00	 shl	 eax, 0
  00539	8b 4d fc	 mov	 ecx, DWORD PTR _this$[ebp]
  0053c	8d 94 01 7c 03
	00 00		 lea	 edx, DWORD PTR [ecx+eax+892]
  00543	b8 04 00 00 00	 mov	 eax, 4
  00548	6b c8 00	 imul	 ecx, eax, 0
  0054b	b8 18 00 00 00	 mov	 eax, 24			; 00000018H
  00550	6b c0 00	 imul	 eax, eax, 0
  00553	8b 75 fc	 mov	 esi, DWORD PTR _this$[ebp]
  00556	8b 0c 0a	 mov	 ecx, DWORD PTR [edx+ecx]
  00559	89 8c 06 81 02
	00 00		 mov	 DWORD PTR [esi+eax+641], ecx

; 458  : 				m_DevilSquareScoreInfoTOP10.Score[0].BonusExp = m_Bonus[1][1];

  00560	b8 08 00 00 00	 mov	 eax, 8
  00565	c1 e0 00	 shl	 eax, 0
  00568	8b 4d fc	 mov	 ecx, DWORD PTR _this$[ebp]
  0056b	8d 94 01 7c 03
	00 00		 lea	 edx, DWORD PTR [ecx+eax+892]
  00572	b8 04 00 00 00	 mov	 eax, 4
  00577	c1 e0 00	 shl	 eax, 0
  0057a	b9 18 00 00 00	 mov	 ecx, 24			; 00000018H
  0057f	6b c9 00	 imul	 ecx, ecx, 0
  00582	8b 75 fc	 mov	 esi, DWORD PTR _this$[ebp]
  00585	8b 14 02	 mov	 edx, DWORD PTR [edx+eax]
  00588	89 94 0e 7d 02
	00 00		 mov	 DWORD PTR [esi+ecx+637], edx

; 459  : 			}

  0058f	e9 c2 00 00 00	 jmp	 $LN29@SendScore
$LN26@SendScore:

; 460  : 			else if( rate <= 50 )

  00594	83 7d e0 32	 cmp	 DWORD PTR _rate$6[ebp], 50 ; 00000032H
  00598	7f 5e		 jg	 SHORT $LN28@SendScore

; 461  : 			{	// 50%
; 462  : 				m_DevilSquareScoreInfoTOP10.Score[0].BonusZen = m_Bonus[2][0];

  0059a	b8 08 00 00 00	 mov	 eax, 8
  0059f	d1 e0		 shl	 eax, 1
  005a1	8b 4d fc	 mov	 ecx, DWORD PTR _this$[ebp]
  005a4	8d 94 01 7c 03
	00 00		 lea	 edx, DWORD PTR [ecx+eax+892]
  005ab	b8 04 00 00 00	 mov	 eax, 4
  005b0	6b c8 00	 imul	 ecx, eax, 0
  005b3	b8 18 00 00 00	 mov	 eax, 24			; 00000018H
  005b8	6b c0 00	 imul	 eax, eax, 0
  005bb	8b 75 fc	 mov	 esi, DWORD PTR _this$[ebp]
  005be	8b 0c 0a	 mov	 ecx, DWORD PTR [edx+ecx]
  005c1	89 8c 06 81 02
	00 00		 mov	 DWORD PTR [esi+eax+641], ecx

; 463  : 				m_DevilSquareScoreInfoTOP10.Score[0].BonusExp = m_Bonus[2][1];

  005c8	b8 08 00 00 00	 mov	 eax, 8
  005cd	d1 e0		 shl	 eax, 1
  005cf	8b 4d fc	 mov	 ecx, DWORD PTR _this$[ebp]
  005d2	8d 94 01 7c 03
	00 00		 lea	 edx, DWORD PTR [ecx+eax+892]
  005d9	b8 04 00 00 00	 mov	 eax, 4
  005de	c1 e0 00	 shl	 eax, 0
  005e1	b9 18 00 00 00	 mov	 ecx, 24			; 00000018H
  005e6	6b c9 00	 imul	 ecx, ecx, 0
  005e9	8b 75 fc	 mov	 esi, DWORD PTR _this$[ebp]
  005ec	8b 14 02	 mov	 edx, DWORD PTR [edx+eax]
  005ef	89 94 0e 7d 02
	00 00		 mov	 DWORD PTR [esi+ecx+637], edx

; 464  : 			}

  005f6	eb 5e		 jmp	 SHORT $LN29@SendScore
$LN28@SendScore:

; 465  : 			else
; 466  : 			{	// 
; 467  : 				m_DevilSquareScoreInfoTOP10.Score[0].BonusZen = m_Bonus[3][0];

  005f8	b8 08 00 00 00	 mov	 eax, 8
  005fd	6b c8 03	 imul	 ecx, eax, 3
  00600	8b 55 fc	 mov	 edx, DWORD PTR _this$[ebp]
  00603	8d 84 0a 7c 03
	00 00		 lea	 eax, DWORD PTR [edx+ecx+892]
  0060a	b9 04 00 00 00	 mov	 ecx, 4
  0060f	6b d1 00	 imul	 edx, ecx, 0
  00612	b9 18 00 00 00	 mov	 ecx, 24			; 00000018H
  00617	6b c9 00	 imul	 ecx, ecx, 0
  0061a	8b 75 fc	 mov	 esi, DWORD PTR _this$[ebp]
  0061d	8b 14 10	 mov	 edx, DWORD PTR [eax+edx]
  00620	89 94 0e 81 02
	00 00		 mov	 DWORD PTR [esi+ecx+641], edx

; 468  : 				m_DevilSquareScoreInfoTOP10.Score[0].BonusExp = m_Bonus[3][1];

  00627	b8 08 00 00 00	 mov	 eax, 8
  0062c	6b c8 03	 imul	 ecx, eax, 3
  0062f	8b 55 fc	 mov	 edx, DWORD PTR _this$[ebp]
  00632	8d 84 0a 7c 03
	00 00		 lea	 eax, DWORD PTR [edx+ecx+892]
  00639	b9 04 00 00 00	 mov	 ecx, 4
  0063e	c1 e1 00	 shl	 ecx, 0
  00641	ba 18 00 00 00	 mov	 edx, 24			; 00000018H
  00646	6b d2 00	 imul	 edx, edx, 0
  00649	8b 75 fc	 mov	 esi, DWORD PTR _this$[ebp]
  0064c	8b 04 08	 mov	 eax, DWORD PTR [eax+ecx]
  0064f	89 84 16 7d 02
	00 00		 mov	 DWORD PTR [esi+edx+637], eax
$LN29@SendScore:

; 469  : 			}
; 470  : 		}
; 471  : 
; 472  : #ifdef CHN_PLAYTIME_LIMIT_SYSTEM_20050818	// > .      .
; 473  : 	#ifdef MODIFY_CHN_PLAYTIME_LIMIT_SYSTEM_01_20070509
; 474  : 		if (g_bChnPlayTimeLimitOn)
; 475  : 		{
; 476  : 			if( (*Itor)->m_iVerifyType != PLAYTIME_LIMIT_VERIFY_ADULT )
; 477  : 			{
; 478  : 				if ((*Itor)->m_iPlayTimeLimit >= 5*60*60)
; 479  : 				{
; 480  : 					m_DevilSquareScoreInfoTOP10.Score[0].BonusExp = m_DevilSquareScoreInfoTOP10.Score[0].BonusExp * g_iChnPlayTimeLimitLevel2Exp / 100;
; 481  : 					m_DevilSquareScoreInfoTOP10.Score[0].BonusZen = m_DevilSquareScoreInfoTOP10.Score[0].BonusZen * g_iChnPlayTimeLimitLevel2ItemDrop / 100;
; 482  : 				}
; 483  : 				else if ((*Itor)->m_iPlayTimeLimit >= 3*60*60)
; 484  : 				{
; 485  : 					m_DevilSquareScoreInfoTOP10.Score[0].BonusExp = m_DevilSquareScoreInfoTOP10.Score[0].BonusExp * g_iChnPlayTimeLimitLevel1Exp / 100;
; 486  : 					m_DevilSquareScoreInfoTOP10.Score[0].BonusZen = m_DevilSquareScoreInfoTOP10.Score[0].BonusZen * g_iChnPlayTimeLimitLevel1ItemDrop / 100;
; 487  : 				}
; 488  : 			}
; 489  : 		}
; 490  : 	#else
; 491  : 		if (g_bChnPlayTimeLimitOn)
; 492  : 		{
; 493  : 			if ((*Itor)->m_iPlayTimeLimit >= 5*60*60)
; 494  : 			{
; 495  : 				m_DevilSquareScoreInfoTOP10.Score[0].BonusExp = m_DevilSquareScoreInfoTOP10.Score[0].BonusExp * g_iChnPlayTimeLimitLevel2Exp / 100;
; 496  : 				m_DevilSquareScoreInfoTOP10.Score[0].BonusZen = m_DevilSquareScoreInfoTOP10.Score[0].BonusZen * g_iChnPlayTimeLimitLevel2ItemDrop / 100;
; 497  : 			}
; 498  : 			else if ((*Itor)->m_iPlayTimeLimit >= 3*60*60)
; 499  : 			{
; 500  : 				m_DevilSquareScoreInfoTOP10.Score[0].BonusExp = m_DevilSquareScoreInfoTOP10.Score[0].BonusExp * g_iChnPlayTimeLimitLevel1Exp / 100;
; 501  : 				m_DevilSquareScoreInfoTOP10.Score[0].BonusZen = m_DevilSquareScoreInfoTOP10.Score[0].BonusZen * g_iChnPlayTimeLimitLevel1ItemDrop / 100;
; 502  : 			}
; 503  : 		}
; 504  : 	#endif // MODIFY_CHN_PLAYTIME_LIMIT_SYSTEM_01_20070509
; 505  : #endif
; 506  : 		
; 507  : #ifdef VTM_PLAYTIME_LIMIT_SYSTEM_20060626	//  :     
; 508  : 		if (g_bVtmPlayTimeLimitOn) 
; 509  : 		{
; 510  : 			if ((*Itor)->m_iPlayTimeLimit >= g_iVtmPlayTimeLimitLevel2Time * 60) 
; 511  : 			{
; 512  : 				m_DevilSquareScoreInfoTOP10.Score[0].BonusExp = m_DevilSquareScoreInfoTOP10.Score[0].BonusExp * g_iVtmPlayTimeLimitLevel2Exp / 100;
; 513  : 				m_DevilSquareScoreInfoTOP10.Score[0].BonusZen = m_DevilSquareScoreInfoTOP10.Score[0].BonusZen * g_iVtmPlayTimeLimitLevel2ItemDrop / 100;
; 514  : 			}
; 515  : 			else if ((*Itor)->m_iPlayTimeLimit >= g_iVtmPlayTimeLimitLevel1Time * 60) 
; 516  : 			{
; 517  : 				m_DevilSquareScoreInfoTOP10.Score[0].BonusExp = m_DevilSquareScoreInfoTOP10.Score[0].BonusExp * g_iVtmPlayTimeLimitLevel1Exp / 100;
; 518  : 				m_DevilSquareScoreInfoTOP10.Score[0].BonusZen = m_DevilSquareScoreInfoTOP10.Score[0].BonusZen * g_iVtmPlayTimeLimitLevel1ItemDrop / 100;
; 519  : 			}
; 520  : 		}
; 521  : #endif	
; 522  : 
; 523  : #ifdef MU_CRYWOLF_PENALTY_20051215
; 524  : 		// MVP  :    
; 525  : 		if( g_CrywolfSync.GetOccupationState() == CRYWOLF_OCCUPATION_STATE_OCCUPIED 
; 526  : 			&& g_iCrywolfApplyMvpPenalty
; 527  : 		  )
; 528  : 		{
; 529  : 			m_DevilSquareScoreInfoTOP10.Score[0].BonusExp = m_DevilSquareScoreInfoTOP10.Score[0].BonusExp * g_CrywolfSync.GetGettingExpPenaltyRate() / 100;
; 530  : 		}
; 531  : #endif
; 532  : 		
; 533  : #ifdef MODIFY_OLD_BUFF_EFFECT_SYSTEM_20071004
; 534  : 	#ifdef BUGFIX_GAIN_EXP_20071210		
; 535  : 		INT64 iExp = m_DevilSquareScoreInfoTOP10.Score[0].BonusExp;
; 536  : 
; 537  : 		#ifdef MODIFY_BUFF_EFFECT_SYSTEM_CHECKLOGIC
; 538  : 		CheckItemOptForGetExpEx( (*Itor), iExp, TRUE );
; 539  : 		#else // MODIFY_BUFF_EFFECT_SYSTEM_CHECKLOGIC
; 540  : 		//--> MODIFY_BUFF_EFFECT_SYSTEM_CHECKLOGIC     		
; 541  : 		#ifdef BUGFIX_BUFF_EFFECT_SYSTEM_FOR_PCBANG_ITEM_20071205
; 542  : 		g_PCBangPointSystem.CheckItemOptForGetExp( (*Itor), iExp );
; 543  : 		#else	
; 544  : 			#ifdef MODIFY_BUFF_SYSTEM_EXTENTION_CASHSHOP_20080318
; 545  : 		CheckItemOptForGetExp((*Itor), iExp, TRUE);
; 546  : 			#endif // MODIFY_BUFF_SYSTEM_EXTENTION_CASHSHOP_20080318
; 547  : 		#endif // BUGFIX_BUFF_EFFECT_SYSTEM_FOR_PCBANG_ITEM_20071205
; 548  : 		//<--
; 549  : 		#endif // MODIFY_BUFF_EFFECT_SYSTEM_CHECKLOGIC
; 550  : 		
; 551  : 		(*Itor)->Experience += iExp;
; 552  : 	#else
; 553  : 		(*Itor)->Experience += m_DevilSquareScoreInfoTOP10.Score[0].BonusExp;
; 554  : 	#endif
; 555  : #else
; 556  : 	#ifdef ADD_PCS_MARK_OF_EXP_20070205
; 557  : 		#ifdef MODIFY_MARKITEM_EFFECT_REMOVE_IN_EVENTMAP_20070328
; 558  : 		if( (*Itor)->m_wExprienceRate == 0 )
; 559  : 		{
; 560  : 			iExp = 0;
; 561  : 		}
; 562  : 		else
; 563  : 		{
; 564  : 			iExp = m_DevilSquareScoreInfoTOP10.Score[0].BonusExp;
; 565  : 			(*Itor)->Experience += iExp;
; 566  : 		}
; 567  : 		#else
; 568  : 		if( (*Itor)->m_wExprienceRate > 0 )

  00656	8d 4d ec	 lea	 ecx, DWORD PTR _Itor$[ebp]
  00659	e8 00 00 00 00	 call	 ??D?$_Vector_iterator@V?$_Vector_val@U?$_Simple_types@PAVOBJECTSTRUCT@@@std@@@std@@@std@@QBEAAPAVOBJECTSTRUCT@@XZ ; std::_Vector_iterator<std::_Vector_val<std::_Simple_types<OBJECTSTRUCT *> > >::operator*
  0065e	8b 00		 mov	 eax, DWORD PTR [eax]
  00660	0f b7 88 2c 1a
	00 00		 movzx	 ecx, WORD PTR [eax+6700]
  00667	85 c9		 test	 ecx, ecx
  00669	7e 65		 jle	 SHORT $LN30@SendScore

; 569  : 		{
; 570  : 			iExp = (int)(m_DevilSquareScoreInfoTOP10.Score[0].BonusExp * ((float)(*Itor)->m_wExprienceRate / 100 ));

  0066b	b8 18 00 00 00	 mov	 eax, 24			; 00000018H
  00670	6b c8 00	 imul	 ecx, eax, 0
  00673	8b 55 fc	 mov	 edx, DWORD PTR _this$[ebp]
  00676	f3 0f 2a 84 0a
	7d 02 00 00	 cvtsi2ss xmm0, DWORD PTR [edx+ecx+637]
  0067f	8d 4d ec	 lea	 ecx, DWORD PTR _Itor$[ebp]
  00682	f3 0f 11 45 88	 movss	 DWORD PTR tv909[ebp], xmm0
  00687	e8 00 00 00 00	 call	 ??D?$_Vector_iterator@V?$_Vector_val@U?$_Simple_types@PAVOBJECTSTRUCT@@@std@@@std@@@std@@QBEAAPAVOBJECTSTRUCT@@XZ ; std::_Vector_iterator<std::_Vector_val<std::_Simple_types<OBJECTSTRUCT *> > >::operator*
  0068c	8b 00		 mov	 eax, DWORD PTR [eax]
  0068e	0f b7 88 2c 1a
	00 00		 movzx	 ecx, WORD PTR [eax+6700]
  00695	f3 0f 2a c1	 cvtsi2ss xmm0, ecx
  00699	f3 0f 5e 05 00
	00 00 00	 divss	 xmm0, DWORD PTR __real@42c80000
  006a1	f3 0f 10 4d 88	 movss	 xmm1, DWORD PTR tv909[ebp]
  006a6	f3 0f 59 c8	 mulss	 xmm1, xmm0
  006aa	f3 0f 2c d1	 cvttss2si edx, xmm1
  006ae	89 55 f0	 mov	 DWORD PTR _iExp$[ebp], edx

; 571  : 			(*Itor)->Experience += iExp;

  006b1	8d 4d ec	 lea	 ecx, DWORD PTR _Itor$[ebp]
  006b4	e8 00 00 00 00	 call	 ??D?$_Vector_iterator@V?$_Vector_val@U?$_Simple_types@PAVOBJECTSTRUCT@@@std@@@std@@@std@@QBEAAPAVOBJECTSTRUCT@@XZ ; std::_Vector_iterator<std::_Vector_val<std::_Simple_types<OBJECTSTRUCT *> > >::operator*
  006b9	8b 00		 mov	 eax, DWORD PTR [eax]
  006bb	05 a8 00 00 00	 add	 eax, 168		; 000000a8H
  006c0	89 45 88	 mov	 DWORD PTR tv487[ebp], eax
  006c3	8b 4d 88	 mov	 ecx, DWORD PTR tv487[ebp]
  006c6	8b 11		 mov	 edx, DWORD PTR [ecx]
  006c8	03 55 f0	 add	 edx, DWORD PTR _iExp$[ebp]
  006cb	8b 45 88	 mov	 eax, DWORD PTR tv487[ebp]
  006ce	89 10		 mov	 DWORD PTR [eax], edx
$LN30@SendScore:

; 572  : 		}
; 573  : 		#endif // MODIFY_MARKITEM_EFFECT_REMOVE_IN_EVENTMAP_20070328
; 574  : 	#else
; 575  : 		(*Itor)->Experience += m_DevilSquareScoreInfoTOP10.Score[0].BonusExp;
; 576  : 	#endif // ADD_PCS_MARK_OF_EXP_20070205
; 577  : #endif // MODIFY_OLD_BUFF_EFFECT_SYSTEM_20071004
; 578  : 
; 579  : #ifdef BUGFIX_GAIN_EXP_20071210
; 580  : 		bool bSendExp = gObjLevelUp((*Itor), iExp, 0, EVENT_TYPE_DEVILSQUARE );
; 581  : #else		
; 582  : 	#ifdef MODIFY_OLD_BUFF_EFFECT_SYSTEM_20071004
; 583  : 		#ifdef MODIFY_EXP_LOG_MONSTER_EVENT_INDEX_20060906
; 584  : 			bool bSendExp = gObjLevelUp((*Itor), m_DevilSquareScoreInfoTOP10.Score[0].BonusExp, 0, EVENT_TYPE_DEVILSQUARE );
; 585  : 		#else
; 586  : 			bool bSendExp = gObjLevelUp((*Itor), m_DevilSquareScoreInfoTOP10.Score[0].BonusExp);
; 587  : 		#endif // MODIFY_EXP_LOG_MONSTER_EVENT_INDEX_20060906
; 588  : 	#else
; 589  : 		#ifdef MODIFY_EXP_LOG_MONSTER_EVENT_INDEX_20060906
; 590  : 			#ifdef ADD_PCS_MARK_OF_EXP_20070205
; 591  : 			bool bSendExp = false;

  006d0	c6 45 df 00	 mov	 BYTE PTR _bSendExp$5[ebp], 0

; 592  : 			if( (*Itor)->m_wExprienceRate > 0 )

  006d4	8d 4d ec	 lea	 ecx, DWORD PTR _Itor$[ebp]
  006d7	e8 00 00 00 00	 call	 ??D?$_Vector_iterator@V?$_Vector_val@U?$_Simple_types@PAVOBJECTSTRUCT@@@std@@@std@@@std@@QBEAAPAVOBJECTSTRUCT@@XZ ; std::_Vector_iterator<std::_Vector_val<std::_Simple_types<OBJECTSTRUCT *> > >::operator*
  006dc	8b 00		 mov	 eax, DWORD PTR [eax]
  006de	0f b7 88 2c 1a
	00 00		 movzx	 ecx, WORD PTR [eax+6700]
  006e5	85 c9		 test	 ecx, ecx
  006e7	7e 1e		 jle	 SHORT $LN31@SendScore

; 593  : 			{
; 594  : 				bSendExp = gObjLevelUp((*Itor), iExp, 0, EVENT_TYPE_DEVILSQUARE );

  006e9	6a 02		 push	 2
  006eb	6a 00		 push	 0
  006ed	8b 45 f0	 mov	 eax, DWORD PTR _iExp$[ebp]
  006f0	50		 push	 eax
  006f1	8d 4d ec	 lea	 ecx, DWORD PTR _Itor$[ebp]
  006f4	e8 00 00 00 00	 call	 ??D?$_Vector_iterator@V?$_Vector_val@U?$_Simple_types@PAVOBJECTSTRUCT@@@std@@@std@@@std@@QBEAAPAVOBJECTSTRUCT@@XZ ; std::_Vector_iterator<std::_Vector_val<std::_Simple_types<OBJECTSTRUCT *> > >::operator*
  006f9	8b 08		 mov	 ecx, DWORD PTR [eax]
  006fb	51		 push	 ecx
  006fc	e8 00 00 00 00	 call	 ?gObjLevelUp@@YA_NPAVOBJECTSTRUCT@@HHH@Z ; gObjLevelUp
  00701	83 c4 10	 add	 esp, 16			; 00000010H
  00704	88 45 df	 mov	 BYTE PTR _bSendExp$5[ebp], al
$LN31@SendScore:

; 595  : 			}
; 596  : 			#else
; 597  : 			bool bSendExp = gObjLevelUp((*Itor), m_DevilSquareScoreInfoTOP10.Score[0].BonusExp, 0, EVENT_TYPE_DEVILSQUARE );
; 598  : 			#endif // ADD_PCS_MARK_OF_EXP_20070205
; 599  : 		#else
; 600  : 			#ifdef MAX_LEVEL_BLOCK_GAIN_EXPERIENCE_20050613
; 601  : 				#ifdef ADD_PCS_MARK_OF_EXP_20070205
; 602  : 			bool bSendExp = false;
; 603  : 			if( (*Itor)->m_wExprienceRate > 0 )
; 604  : 			{
; 605  : 				bSendExp = gObjLevelUp((*Itor), iExp );
; 606  : 			}
; 607  : 				#else
; 608  : 			bool bSendExp = gObjLevelUp((*Itor), m_DevilSquareScoreInfoTOP10.Score[0].BonusExp);
; 609  : 				#endif // ADD_PCS_MARK_OF_EXP_20070205
; 610  : 			#else
; 611  : 				#ifdef ADD_PCS_MARK_OF_EXP_20070205
; 612  : 			bool bSendExp = false;
; 613  : 			if( (*Itor)->m_wExprienceRate > 0 )
; 614  : 			{
; 615  : 				bSendExp = gObjLevelUp((*Itor), iExp );
; 616  : 			}
; 617  : 				#else
; 618  : 			bool bSendExp = gObjLevelUp((*Itor), m_DevilSquareScoreInfoTOP10.Score[0].BonusExp);
; 619  : 				#endif // ADD_PCS_MARK_OF_EXP_20070205
; 620  : 			#endif
; 621  : 		#endif // MODIFY_EXP_LOG_MONSTER_EVENT_INDEX_20060906	
; 622  : 	#endif // MODIFY_OLD_BUFF_EFFECT_SYSTEM_20071004
; 623  : #endif	// BUGFIX_GAIN_EXP_20071210
; 624  : 
; 625  : 		(*Itor)->m_nEventMoney = m_DevilSquareScoreInfoTOP10.Score[0].BonusZen;

  00707	b8 18 00 00 00	 mov	 eax, 24			; 00000018H
  0070c	6b f0 00	 imul	 esi, eax, 0
  0070f	8d 4d ec	 lea	 ecx, DWORD PTR _Itor$[ebp]
  00712	e8 00 00 00 00	 call	 ??D?$_Vector_iterator@V?$_Vector_val@U?$_Simple_types@PAVOBJECTSTRUCT@@@std@@@std@@@std@@QBEAAPAVOBJECTSTRUCT@@XZ ; std::_Vector_iterator<std::_Vector_val<std::_Simple_types<OBJECTSTRUCT *> > >::operator*
  00717	8b 08		 mov	 ecx, DWORD PTR [eax]
  00719	8b 55 fc	 mov	 edx, DWORD PTR _this$[ebp]
  0071c	8b 84 32 81 02
	00 00		 mov	 eax, DWORD PTR [edx+esi+641]
  00723	89 81 cc 0c 00
	00		 mov	 DWORD PTR [ecx+3276], eax

; 626  : 		
; 627  : #ifdef MODIFY_ZEN_MAX_20040414
; 628  : 		if( !gObjCheckMaxZen( (*Itor)->m_Index, (*Itor)->m_nEventMoney ) )

  00729	8d 4d ec	 lea	 ecx, DWORD PTR _Itor$[ebp]
  0072c	e8 00 00 00 00	 call	 ??D?$_Vector_iterator@V?$_Vector_val@U?$_Simple_types@PAVOBJECTSTRUCT@@@std@@@std@@@std@@QBEAAPAVOBJECTSTRUCT@@XZ ; std::_Vector_iterator<std::_Vector_val<std::_Simple_types<OBJECTSTRUCT *> > >::operator*
  00731	8b 00		 mov	 eax, DWORD PTR [eax]
  00733	8b 88 cc 0c 00
	00		 mov	 ecx, DWORD PTR [eax+3276]
  00739	51		 push	 ecx
  0073a	8d 4d ec	 lea	 ecx, DWORD PTR _Itor$[ebp]
  0073d	e8 00 00 00 00	 call	 ??D?$_Vector_iterator@V?$_Vector_val@U?$_Simple_types@PAVOBJECTSTRUCT@@@std@@@std@@@std@@QBEAAPAVOBJECTSTRUCT@@XZ ; std::_Vector_iterator<std::_Vector_val<std::_Simple_types<OBJECTSTRUCT *> > >::operator*
  00742	8b 10		 mov	 edx, DWORD PTR [eax]
  00744	8b 02		 mov	 eax, DWORD PTR [edx]
  00746	50		 push	 eax
  00747	e8 00 00 00 00	 call	 ?gObjCheckMaxZen@@YAHHH@Z ; gObjCheckMaxZen
  0074c	83 c4 08	 add	 esp, 8
  0074f	85 c0		 test	 eax, eax
  00751	75 39		 jne	 SHORT $LN32@SendScore

; 629  : 		{
; 630  : 			int iZEN = MAX_ZEN - (*Itor)->Money;

  00753	8d 4d ec	 lea	 ecx, DWORD PTR _Itor$[ebp]
  00756	e8 00 00 00 00	 call	 ??D?$_Vector_iterator@V?$_Vector_val@U?$_Simple_types@PAVOBJECTSTRUCT@@@std@@@std@@@std@@QBEAAPAVOBJECTSTRUCT@@XZ ; std::_Vector_iterator<std::_Vector_val<std::_Simple_types<OBJECTSTRUCT *> > >::operator*
  0075b	8b 00		 mov	 eax, DWORD PTR [eax]
  0075d	b9 00 94 35 77	 mov	 ecx, 2000000000		; 77359400H
  00762	2b 88 b0 00 00
	00		 sub	 ecx, DWORD PTR [eax+176]
  00768	89 4d d8	 mov	 DWORD PTR _iZEN$4[ebp], ecx

; 631  : 			(*Itor)->Money += iZEN;

  0076b	8d 4d ec	 lea	 ecx, DWORD PTR _Itor$[ebp]
  0076e	e8 00 00 00 00	 call	 ??D?$_Vector_iterator@V?$_Vector_val@U?$_Simple_types@PAVOBJECTSTRUCT@@@std@@@std@@@std@@QBEAAPAVOBJECTSTRUCT@@XZ ; std::_Vector_iterator<std::_Vector_val<std::_Simple_types<OBJECTSTRUCT *> > >::operator*
  00773	8b 00		 mov	 eax, DWORD PTR [eax]
  00775	05 b0 00 00 00	 add	 eax, 176		; 000000b0H
  0077a	89 45 88	 mov	 DWORD PTR tv526[ebp], eax
  0077d	8b 4d 88	 mov	 ecx, DWORD PTR tv526[ebp]
  00780	8b 11		 mov	 edx, DWORD PTR [ecx]
  00782	03 55 d8	 add	 edx, DWORD PTR _iZEN$4[ebp]
  00785	8b 45 88	 mov	 eax, DWORD PTR tv526[ebp]
  00788	89 10		 mov	 DWORD PTR [eax], edx

; 632  : 		}

  0078a	eb 2c		 jmp	 SHORT $LN33@SendScore
$LN32@SendScore:

; 633  : 		else
; 634  : #endif
; 635  : 		(*Itor)->Money += (*Itor)->m_nEventMoney;

  0078c	8d 4d ec	 lea	 ecx, DWORD PTR _Itor$[ebp]
  0078f	e8 00 00 00 00	 call	 ??D?$_Vector_iterator@V?$_Vector_val@U?$_Simple_types@PAVOBJECTSTRUCT@@@std@@@std@@@std@@QBEAAPAVOBJECTSTRUCT@@XZ ; std::_Vector_iterator<std::_Vector_val<std::_Simple_types<OBJECTSTRUCT *> > >::operator*
  00794	8b 00		 mov	 eax, DWORD PTR [eax]
  00796	05 b0 00 00 00	 add	 eax, 176		; 000000b0H
  0079b	89 45 88	 mov	 DWORD PTR tv534[ebp], eax
  0079e	8d 4d ec	 lea	 ecx, DWORD PTR _Itor$[ebp]
  007a1	e8 00 00 00 00	 call	 ??D?$_Vector_iterator@V?$_Vector_val@U?$_Simple_types@PAVOBJECTSTRUCT@@@std@@@std@@@std@@QBEAAPAVOBJECTSTRUCT@@XZ ; std::_Vector_iterator<std::_Vector_val<std::_Simple_types<OBJECTSTRUCT *> > >::operator*
  007a6	8b 08		 mov	 ecx, DWORD PTR [eax]
  007a8	8b 55 88	 mov	 edx, DWORD PTR tv534[ebp]
  007ab	8b 02		 mov	 eax, DWORD PTR [edx]
  007ad	03 81 cc 0c 00
	00		 add	 eax, DWORD PTR [ecx+3276]
  007b3	8b 4d 88	 mov	 ecx, DWORD PTR tv534[ebp]
  007b6	89 01		 mov	 DWORD PTR [ecx], eax
$LN33@SendScore:

; 636  : 
; 637  : 		//  , 
; 638  : 		GCMoneySend((*Itor)->m_Index, (*Itor)->Money);		

  007b8	8d 4d ec	 lea	 ecx, DWORD PTR _Itor$[ebp]
  007bb	e8 00 00 00 00	 call	 ??D?$_Vector_iterator@V?$_Vector_val@U?$_Simple_types@PAVOBJECTSTRUCT@@@std@@@std@@@std@@QBEAAPAVOBJECTSTRUCT@@XZ ; std::_Vector_iterator<std::_Vector_val<std::_Simple_types<OBJECTSTRUCT *> > >::operator*
  007c0	8b 00		 mov	 eax, DWORD PTR [eax]
  007c2	8b 88 b0 00 00
	00		 mov	 ecx, DWORD PTR [eax+176]
  007c8	51		 push	 ecx
  007c9	8d 4d ec	 lea	 ecx, DWORD PTR _Itor$[ebp]
  007cc	e8 00 00 00 00	 call	 ??D?$_Vector_iterator@V?$_Vector_val@U?$_Simple_types@PAVOBJECTSTRUCT@@@std@@@std@@@std@@QBEAAPAVOBJECTSTRUCT@@XZ ; std::_Vector_iterator<std::_Vector_val<std::_Simple_types<OBJECTSTRUCT *> > >::operator*
  007d1	8b 10		 mov	 edx, DWORD PTR [eax]
  007d3	8b 02		 mov	 eax, DWORD PTR [edx]
  007d5	50		 push	 eax
  007d6	e8 00 00 00 00	 call	 ?GCMoneySend@@YAXHK@Z	; GCMoneySend
  007db	83 c4 08	 add	 esp, 8

; 639  : 		//  ,
; 640  : #ifdef MAX_LEVEL_BLOCK_GAIN_EXPERIENCE_20050613
; 641  : 		if (bSendExp == true) {

  007de	0f b6 45 df	 movzx	 eax, BYTE PTR _bSendExp$5[ebp]
  007e2	83 f8 01	 cmp	 eax, 1
  007e5	75 37		 jne	 SHORT $LN35@SendScore

; 642  : 	//#ifdef ADD_PCS_MARK_OF_EXP_20070205
; 643  : 	#if !defined(MODIFY_OLD_BUFF_EFFECT_SYSTEM_20071004) && defined(ADD_PCS_MARK_OF_EXP_20070205)
; 644  : 			if( (*Itor)->m_wExprienceRate > 0 )

  007e7	8d 4d ec	 lea	 ecx, DWORD PTR _Itor$[ebp]
  007ea	e8 00 00 00 00	 call	 ??D?$_Vector_iterator@V?$_Vector_val@U?$_Simple_types@PAVOBJECTSTRUCT@@@std@@@std@@@std@@QBEAAPAVOBJECTSTRUCT@@XZ ; std::_Vector_iterator<std::_Vector_val<std::_Simple_types<OBJECTSTRUCT *> > >::operator*
  007ef	8b 00		 mov	 eax, DWORD PTR [eax]
  007f1	0f b7 88 2c 1a
	00 00		 movzx	 ecx, WORD PTR [eax+6700]
  007f8	85 c9		 test	 ecx, ecx
  007fa	7e 22		 jle	 SHORT $LN35@SendScore

; 645  : 			{
; 646  : 				GCKillPlayerExpSend((*Itor)->m_Index, 0xffff, iExp, 0, 0);

  007fc	6a 00		 push	 0
  007fe	6a 00		 push	 0
  00800	8b 45 f0	 mov	 eax, DWORD PTR _iExp$[ebp]
  00803	50		 push	 eax
  00804	68 ff ff 00 00	 push	 65535			; 0000ffffH
  00809	8d 4d ec	 lea	 ecx, DWORD PTR _Itor$[ebp]
  0080c	e8 00 00 00 00	 call	 ??D?$_Vector_iterator@V?$_Vector_val@U?$_Simple_types@PAVOBJECTSTRUCT@@@std@@@std@@@std@@QBEAAPAVOBJECTSTRUCT@@XZ ; std::_Vector_iterator<std::_Vector_val<std::_Simple_types<OBJECTSTRUCT *> > >::operator*
  00811	8b 08		 mov	 ecx, DWORD PTR [eax]
  00813	8b 11		 mov	 edx, DWORD PTR [ecx]
  00815	52		 push	 edx
  00816	e8 00 00 00 00	 call	 ?GCKillPlayerExpSend@@YAXHHHHH@Z ; GCKillPlayerExpSend
  0081b	83 c4 14	 add	 esp, 20			; 00000014H
$LN35@SendScore:

; 647  : 			}
; 648  : 	#else
; 649  : 		#ifdef MODIFY_BUFF_SYSTEM_EXTENTION_CASHSHOP_20080318
; 650  : 			//          20081121 (grooving)
; 651  : 			GCKillPlayerExpSend((*Itor)->m_Index, 0xffff, iExp, 0, 0);// 
; 652  : 		#else //MODIFY_BUFF_SYSTEM_EXTENTION_CASHSHOP_20080318
; 653  : 			GCKillPlayerExpSend((*Itor)->m_Index, 0xffff, m_DevilSquareScoreInfoTOP10.Score[0].BonusExp, 0, 0);
; 654  : 		#endif //MODIFY_BUFF_SYSTEM_EXTENTION_CASHSHOP_20080318
; 655  : 	#endif // ADD_PCS_MARK_OF_EXP_20070205
; 656  : 		}
; 657  : #else
; 658  : 		GCKillPlayerExpSend((*Itor)->m_Index, 0xffff, m_DevilSquareScoreInfoTOP10.Score[0].BonusExp, 0, 0);
; 659  : #endif
; 660  : 
; 661  : 
; 662  : 		//   
; 663  : 		SendRankingInfo((*Itor));

  0081e	8d 4d ec	 lea	 ecx, DWORD PTR _Itor$[ebp]
  00821	e8 00 00 00 00	 call	 ??D?$_Vector_iterator@V?$_Vector_val@U?$_Simple_types@PAVOBJECTSTRUCT@@@std@@@std@@@std@@QBEAAPAVOBJECTSTRUCT@@XZ ; std::_Vector_iterator<std::_Vector_val<std::_Simple_types<OBJECTSTRUCT *> > >::operator*
  00826	8b 00		 mov	 eax, DWORD PTR [eax]
  00828	50		 push	 eax
  00829	8b 4d fc	 mov	 ecx, DWORD PTR _this$[ebp]
  0082c	e8 00 00 00 00	 call	 ?SendRankingInfo@CDevilSquareGround@@QAEXPAVOBJECTSTRUCT@@@Z ; CDevilSquareGround::SendRankingInfo

; 664  : 
; 665  : 		LogAddTD("Rank :[%d] : [%s][%s][%d][%d][%d]", count, (*Itor)->AccountID, (*Itor)->Name, (*Itor)->m_nEventMoney, (*Itor)->m_nEventExp, (*Itor)->m_nEventScore);

  00831	8d 4d ec	 lea	 ecx, DWORD PTR _Itor$[ebp]
  00834	e8 00 00 00 00	 call	 ??D?$_Vector_iterator@V?$_Vector_val@U?$_Simple_types@PAVOBJECTSTRUCT@@@std@@@std@@@std@@QBEAAPAVOBJECTSTRUCT@@XZ ; std::_Vector_iterator<std::_Vector_val<std::_Simple_types<OBJECTSTRUCT *> > >::operator*
  00839	8b 00		 mov	 eax, DWORD PTR [eax]
  0083b	8b 88 c4 0c 00
	00		 mov	 ecx, DWORD PTR [eax+3268]
  00841	51		 push	 ecx
  00842	8d 4d ec	 lea	 ecx, DWORD PTR _Itor$[ebp]
  00845	e8 00 00 00 00	 call	 ??D?$_Vector_iterator@V?$_Vector_val@U?$_Simple_types@PAVOBJECTSTRUCT@@@std@@@std@@@std@@QBEAAPAVOBJECTSTRUCT@@XZ ; std::_Vector_iterator<std::_Vector_val<std::_Simple_types<OBJECTSTRUCT *> > >::operator*
  0084a	8b 10		 mov	 edx, DWORD PTR [eax]
  0084c	8b 82 c8 0c 00
	00		 mov	 eax, DWORD PTR [edx+3272]
  00852	50		 push	 eax
  00853	8d 4d ec	 lea	 ecx, DWORD PTR _Itor$[ebp]
  00856	e8 00 00 00 00	 call	 ??D?$_Vector_iterator@V?$_Vector_val@U?$_Simple_types@PAVOBJECTSTRUCT@@@std@@@std@@@std@@QBEAAPAVOBJECTSTRUCT@@XZ ; std::_Vector_iterator<std::_Vector_val<std::_Simple_types<OBJECTSTRUCT *> > >::operator*
  0085b	8b 08		 mov	 ecx, DWORD PTR [eax]
  0085d	8b 91 cc 0c 00
	00		 mov	 edx, DWORD PTR [ecx+3276]
  00863	52		 push	 edx
  00864	8d 4d ec	 lea	 ecx, DWORD PTR _Itor$[ebp]
  00867	e8 00 00 00 00	 call	 ??D?$_Vector_iterator@V?$_Vector_val@U?$_Simple_types@PAVOBJECTSTRUCT@@@std@@@std@@@std@@QBEAAPAVOBJECTSTRUCT@@XZ ; std::_Vector_iterator<std::_Vector_val<std::_Simple_types<OBJECTSTRUCT *> > >::operator*
  0086c	8b 00		 mov	 eax, DWORD PTR [eax]
  0086e	83 c0 73	 add	 eax, 115		; 00000073H
  00871	50		 push	 eax
  00872	8d 4d ec	 lea	 ecx, DWORD PTR _Itor$[ebp]
  00875	e8 00 00 00 00	 call	 ??D?$_Vector_iterator@V?$_Vector_val@U?$_Simple_types@PAVOBJECTSTRUCT@@@std@@@std@@@std@@QBEAAPAVOBJECTSTRUCT@@XZ ; std::_Vector_iterator<std::_Vector_val<std::_Simple_types<OBJECTSTRUCT *> > >::operator*
  0087a	8b 08		 mov	 ecx, DWORD PTR [eax]
  0087c	83 c1 68	 add	 ecx, 104		; 00000068H
  0087f	51		 push	 ecx
  00880	0f b6 55 fb	 movzx	 edx, BYTE PTR _count$[ebp]
  00884	52		 push	 edx
  00885	68 00 00 00 00	 push	 OFFSET ??_C@_0CC@JEAIPIFD@Rank?5?3?$FL?$CFd?$FN?5?3?5?$FL?$CFs?$FN?$FL?$CFs?$FN?$FL?$CFd?$FN?$FL?$CFd?$FN?$FL?$CF@
  0088a	ff 15 00 00 00
	00		 call	 DWORD PTR ?LogAddTD@@3P6AXPADZZA ; LogAddTD
  00890	83 c4 1c	 add	 esp, 28			; 0000001cH

; 666  : 		memcpy(m_DevilSquareScoreInfoTOP10.Score[0].Name, (*Itor)->Name, 10);	

  00893	6a 0a		 push	 10			; 0000000aH
  00895	8d 4d ec	 lea	 ecx, DWORD PTR _Itor$[ebp]
  00898	e8 00 00 00 00	 call	 ??D?$_Vector_iterator@V?$_Vector_val@U?$_Simple_types@PAVOBJECTSTRUCT@@@std@@@std@@@std@@QBEAAPAVOBJECTSTRUCT@@XZ ; std::_Vector_iterator<std::_Vector_val<std::_Simple_types<OBJECTSTRUCT *> > >::operator*
  0089d	8b 00		 mov	 eax, DWORD PTR [eax]
  0089f	83 c0 73	 add	 eax, 115		; 00000073H
  008a2	50		 push	 eax
  008a3	b9 18 00 00 00	 mov	 ecx, 24			; 00000018H
  008a8	6b d1 00	 imul	 edx, ecx, 0
  008ab	8b 45 fc	 mov	 eax, DWORD PTR _this$[ebp]
  008ae	8d 8c 10 6d 02
	00 00		 lea	 ecx, DWORD PTR [eax+edx+621]
  008b5	51		 push	 ecx
  008b6	e8 00 00 00 00	 call	 _memcpy
  008bb	83 c4 0c	 add	 esp, 12			; 0000000cH

; 667  : 		
; 668  : 		m_DevilSquareScoreInfoTOP10.Score[0].TotalScore = (*Itor)->m_nEventScore;		

  008be	8d 4d ec	 lea	 ecx, DWORD PTR _Itor$[ebp]
  008c1	e8 00 00 00 00	 call	 ??D?$_Vector_iterator@V?$_Vector_val@U?$_Simple_types@PAVOBJECTSTRUCT@@@std@@@std@@@std@@QBEAAPAVOBJECTSTRUCT@@XZ ; std::_Vector_iterator<std::_Vector_val<std::_Simple_types<OBJECTSTRUCT *> > >::operator*
  008c6	8b 00		 mov	 eax, DWORD PTR [eax]
  008c8	b9 18 00 00 00	 mov	 ecx, 24			; 00000018H
  008cd	6b d1 00	 imul	 edx, ecx, 0
  008d0	8b 4d fc	 mov	 ecx, DWORD PTR _this$[ebp]
  008d3	8b 80 c4 0c 00
	00		 mov	 eax, DWORD PTR [eax+3268]
  008d9	89 84 11 79 02
	00 00		 mov	 DWORD PTR [ecx+edx+633], eax

; 669  : 
; 670  : //#ifdef ADD_PCS_MARK_OF_EXP_20070205
; 671  : #if !defined(MODIFY_OLD_BUFF_EFFECT_SYSTEM_20071004) && defined(ADD_PCS_MARK_OF_EXP_20070205)
; 672  : 		if( (*Itor)->m_wExprienceRate == 0 )

  008e0	8d 4d ec	 lea	 ecx, DWORD PTR _Itor$[ebp]
  008e3	e8 00 00 00 00	 call	 ??D?$_Vector_iterator@V?$_Vector_val@U?$_Simple_types@PAVOBJECTSTRUCT@@@std@@@std@@@std@@QBEAAPAVOBJECTSTRUCT@@XZ ; std::_Vector_iterator<std::_Vector_val<std::_Simple_types<OBJECTSTRUCT *> > >::operator*
  008e8	8b 00		 mov	 eax, DWORD PTR [eax]
  008ea	0f b7 88 2c 1a
	00 00		 movzx	 ecx, WORD PTR [eax+6700]
  008f1	85 c9		 test	 ecx, ecx
  008f3	75 18		 jne	 SHORT $LN36@SendScore

; 673  : 		{
; 674  : 			m_DevilSquareScoreInfoTOP10.Score[0].BonusExp = 0;

  008f5	b8 18 00 00 00	 mov	 eax, 24			; 00000018H
  008fa	6b c8 00	 imul	 ecx, eax, 0
  008fd	8b 55 fc	 mov	 edx, DWORD PTR _this$[ebp]
  00900	c7 84 0a 7d 02
	00 00 00 00 00
	00		 mov	 DWORD PTR [edx+ecx+637], 0

; 675  : 		}

  0090b	eb 15		 jmp	 SHORT $LN37@SendScore
$LN36@SendScore:

; 676  : 		else
; 677  : 		{
; 678  : 			m_DevilSquareScoreInfoTOP10.Score[0].BonusExp = iExp;

  0090d	b8 18 00 00 00	 mov	 eax, 24			; 00000018H
  00912	6b c8 00	 imul	 ecx, eax, 0
  00915	8b 55 fc	 mov	 edx, DWORD PTR _this$[ebp]
  00918	8b 45 f0	 mov	 eax, DWORD PTR _iExp$[ebp]
  0091b	89 84 0a 7d 02
	00 00		 mov	 DWORD PTR [edx+ecx+637], eax
$LN37@SendScore:

; 679  : 		}
; 680  : #endif // ADD_PCS_MARK_OF_EXP_20070205
; 681  : 
; 682  : 		m_DevilSquareScoreInfoTOP10.MyRank = count++;

  00922	8b 45 fc	 mov	 eax, DWORD PTR _this$[ebp]
  00925	8a 4d fb	 mov	 cl, BYTE PTR _count$[ebp]
  00928	88 88 6b 02 00
	00		 mov	 BYTE PTR [eax+619], cl
  0092e	8a 55 fb	 mov	 dl, BYTE PTR _count$[ebp]
  00931	80 c2 01	 add	 dl, 1
  00934	88 55 fb	 mov	 BYTE PTR _count$[ebp], dl

; 683  : 		DataSend((*Itor)->m_Index, (LPBYTE)&m_DevilSquareScoreInfoTOP10, iSize);

  00937	8b 45 e4	 mov	 eax, DWORD PTR _iSize$[ebp]
  0093a	50		 push	 eax
  0093b	8b 4d fc	 mov	 ecx, DWORD PTR _this$[ebp]
  0093e	81 c1 68 02 00
	00		 add	 ecx, 616		; 00000268H
  00944	51		 push	 ecx
  00945	8d 4d ec	 lea	 ecx, DWORD PTR _Itor$[ebp]
  00948	e8 00 00 00 00	 call	 ??D?$_Vector_iterator@V?$_Vector_val@U?$_Simple_types@PAVOBJECTSTRUCT@@@std@@@std@@@std@@QBEAAPAVOBJECTSTRUCT@@XZ ; std::_Vector_iterator<std::_Vector_val<std::_Simple_types<OBJECTSTRUCT *> > >::operator*
  0094d	8b 10		 mov	 edx, DWORD PTR [eax]
  0094f	8b 02		 mov	 eax, DWORD PTR [edx]
  00951	50		 push	 eax
  00952	e8 00 00 00 00	 call	 ?DataSend@@YAHHPAEK@Z	; DataSend
  00957	83 c4 0c	 add	 esp, 12			; 0000000cH

; 684  : 		
; 685  : 		(*Itor)->m_nEventScore = 0;

  0095a	8d 4d ec	 lea	 ecx, DWORD PTR _Itor$[ebp]
  0095d	e8 00 00 00 00	 call	 ??D?$_Vector_iterator@V?$_Vector_val@U?$_Simple_types@PAVOBJECTSTRUCT@@@std@@@std@@@std@@QBEAAPAVOBJECTSTRUCT@@XZ ; std::_Vector_iterator<std::_Vector_val<std::_Simple_types<OBJECTSTRUCT *> > >::operator*
  00962	8b 00		 mov	 eax, DWORD PTR [eax]
  00964	c7 80 c4 0c 00
	00 00 00 00 00	 mov	 DWORD PTR [eax+3268], 0

; 686  : 		(*Itor)->m_nEventMoney = 0;

  0096e	8d 4d ec	 lea	 ecx, DWORD PTR _Itor$[ebp]
  00971	e8 00 00 00 00	 call	 ??D?$_Vector_iterator@V?$_Vector_val@U?$_Simple_types@PAVOBJECTSTRUCT@@@std@@@std@@@std@@QBEAAPAVOBJECTSTRUCT@@XZ ; std::_Vector_iterator<std::_Vector_val<std::_Simple_types<OBJECTSTRUCT *> > >::operator*
  00976	8b 00		 mov	 eax, DWORD PTR [eax]
  00978	c7 80 cc 0c 00
	00 00 00 00 00	 mov	 DWORD PTR [eax+3276], 0

; 687  : 		(*Itor)->m_nEventExp = 0;

  00982	8d 4d ec	 lea	 ecx, DWORD PTR _Itor$[ebp]
  00985	e8 00 00 00 00	 call	 ??D?$_Vector_iterator@V?$_Vector_val@U?$_Simple_types@PAVOBJECTSTRUCT@@@std@@@std@@@std@@QBEAAPAVOBJECTSTRUCT@@XZ ; std::_Vector_iterator<std::_Vector_val<std::_Simple_types<OBJECTSTRUCT *> > >::operator*
  0098a	8b 00		 mov	 eax, DWORD PTR [eax]
  0098c	c7 80 c8 0c 00
	00 00 00 00 00	 mov	 DWORD PTR [eax+3272], 0

; 688  : 	}

  00996	e9 1a fa ff ff	 jmp	 $LN5@SendScore
$LN6@SendScore:
$LN1@SendScore:

; 689  : }

  0099b	5f		 pop	 edi
  0099c	5e		 pop	 esi
  0099d	5b		 pop	 ebx
  0099e	8b e5		 mov	 esp, ebp
  009a0	5d		 pop	 ebp
  009a1	c3		 ret	 0
?SendScore@CDevilSquareGround@@QAEXXZ ENDP		; CDevilSquareGround::SendScore
_TEXT	ENDS
; Function compile flags: /Odtp /ZI
; File C:\Mu Online\Mu-GS-Webzen-MC-10093\GameServer\DevilSquareGround.cpp
;	COMDAT ?InsertObj@CDevilSquareGround@@QAEXPAVOBJECTSTRUCT@@@Z
_TEXT	SEGMENT
_this$ = -4						; size = 4
_lpObj$ = 8						; size = 4
?InsertObj@CDevilSquareGround@@QAEXPAVOBJECTSTRUCT@@@Z PROC ; CDevilSquareGround::InsertObj, COMDAT
; _this$ = ecx

; 329  : {

  00000	55		 push	 ebp
  00001	8b ec		 mov	 ebp, esp
  00003	83 ec 44	 sub	 esp, 68			; 00000044H
  00006	53		 push	 ebx
  00007	56		 push	 esi
  00008	57		 push	 edi
  00009	89 4d fc	 mov	 DWORD PTR _this$[ebp], ecx

; 330  : 	if( lpObj->Authority != AUTHORITY_ADMIN )

  0000c	8b 45 08	 mov	 eax, DWORD PTR _lpObj$[ebp]
  0000f	83 b8 a4 01 00
	00 02		 cmp	 DWORD PTR [eax+420], 2
  00016	0f 84 8a 00 00
	00		 je	 $LN1@InsertObj

; 331  : 	{	//    		
; 332  : 
; 333  : 		//  
; 334  : 		if( 
; 335  : #ifdef DEVILSQUARE_EXTEND_20050221
; 336  : 			lpObj->Class >= 0 && lpObj->Class < 5 && 
; 337  : 			CHECK_DEVILSQUARE_INDEX(lpObj->m_bDevilSquareIndex)
; 338  : #else
; 339  : 			lpObj->Class >= 0 && lpObj->Class < 4 && 
; 340  : 			lpObj->m_bDevilSquareIndex >= 0 && lpObj->m_bDevilSquareIndex < 4

  0001c	8b 45 08	 mov	 eax, DWORD PTR _lpObj$[ebp]
  0001f	0f b7 88 9c 00
	00 00		 movzx	 ecx, WORD PTR [eax+156]
  00026	85 c9		 test	 ecx, ecx
  00028	7c 6a		 jl	 SHORT $LN3@InsertObj
  0002a	8b 45 08	 mov	 eax, DWORD PTR _lpObj$[ebp]
  0002d	0f b7 88 9c 00
	00 00		 movzx	 ecx, WORD PTR [eax+156]
  00034	83 f9 04	 cmp	 ecx, 4
  00037	7d 5b		 jge	 SHORT $LN3@InsertObj
  00039	8b 45 08	 mov	 eax, DWORD PTR _lpObj$[ebp]
  0003c	0f b6 88 d0 0c
	00 00		 movzx	 ecx, BYTE PTR [eax+3280]
  00043	85 c9		 test	 ecx, ecx
  00045	7c 4d		 jl	 SHORT $LN3@InsertObj
  00047	8b 45 08	 mov	 eax, DWORD PTR _lpObj$[ebp]
  0004a	0f b6 88 d0 0c
	00 00		 movzx	 ecx, BYTE PTR [eax+3280]
  00051	83 f9 04	 cmp	 ecx, 4
  00054	7d 3e		 jge	 SHORT $LN3@InsertObj

; 341  : #endif
; 342  : 			)
; 343  : 		{
; 344  : 			lpObj->m_nEventScore += m_BonusScoreTable[lpObj->Class][lpObj->m_bDevilSquareIndex]/100;

  00056	8b 45 08	 mov	 eax, DWORD PTR _lpObj$[ebp]
  00059	0f b7 88 9c 00
	00 00		 movzx	 ecx, WORD PTR [eax+156]
  00060	c1 e1 04	 shl	 ecx, 4
  00063	8b 55 fc	 mov	 edx, DWORD PTR _this$[ebp]
  00066	8d 84 0a a0 03
	00 00		 lea	 eax, DWORD PTR [edx+ecx+928]
  0006d	8b 4d 08	 mov	 ecx, DWORD PTR _lpObj$[ebp]
  00070	0f b6 91 d0 0c
	00 00		 movzx	 edx, BYTE PTR [ecx+3280]
  00077	8b 04 90	 mov	 eax, DWORD PTR [eax+edx*4]
  0007a	99		 cdq
  0007b	b9 64 00 00 00	 mov	 ecx, 100		; 00000064H
  00080	f7 f9		 idiv	 ecx
  00082	8b 55 08	 mov	 edx, DWORD PTR _lpObj$[ebp]
  00085	03 82 c4 0c 00
	00		 add	 eax, DWORD PTR [edx+3268]
  0008b	8b 4d 08	 mov	 ecx, DWORD PTR _lpObj$[ebp]
  0008e	89 81 c4 0c 00
	00		 mov	 DWORD PTR [ecx+3268], eax
$LN3@InsertObj:

; 345  : 		}
; 346  : 		m_DevilSquareRankList.push_back(lpObj);

  00094	8d 45 08	 lea	 eax, DWORD PTR _lpObj$[ebp]
  00097	50		 push	 eax
  00098	8b 4d fc	 mov	 ecx, DWORD PTR _this$[ebp]
  0009b	81 c1 5c 02 00
	00		 add	 ecx, 604		; 0000025cH
  000a1	e8 00 00 00 00	 call	 ?push_back@?$vector@PAVOBJECTSTRUCT@@V?$allocator@PAVOBJECTSTRUCT@@@std@@@std@@QAEXABQAVOBJECTSTRUCT@@@Z ; std::vector<OBJECTSTRUCT *,std::allocator<OBJECTSTRUCT *> >::push_back
$LN1@InsertObj:

; 347  : 	}
; 348  : }

  000a6	5f		 pop	 edi
  000a7	5e		 pop	 esi
  000a8	5b		 pop	 ebx
  000a9	8b e5		 mov	 esp, ebp
  000ab	5d		 pop	 ebp
  000ac	c2 04 00	 ret	 4
?InsertObj@CDevilSquareGround@@QAEXPAVOBJECTSTRUCT@@@Z ENDP ; CDevilSquareGround::InsertObj
_TEXT	ENDS
; Function compile flags: /Odtp /ZI
; File C:\Mu Online\Mu-GS-Webzen-MC-10093\GameServer\DevilSquareGround.cpp
;	COMDAT ?SortScore@CDevilSquareGround@@QAEXXZ
_TEXT	SEGMENT
$T1 = -76						; size = 4
$T2 = -72						; size = 4
_this$ = -4						; size = 4
?SortScore@CDevilSquareGround@@QAEXXZ PROC		; CDevilSquareGround::SortScore, COMDAT
; _this$ = ecx

; 324  : {

  00000	55		 push	 ebp
  00001	8b ec		 mov	 ebp, esp
  00003	83 ec 4c	 sub	 esp, 76			; 0000004cH
  00006	53		 push	 ebx
  00007	56		 push	 esi
  00008	57		 push	 edi
  00009	89 4d fc	 mov	 DWORD PTR _this$[ebp], ecx

; 325  : 	sort(m_DevilSquareRankList.begin(), m_DevilSquareRankList.end(),DevilSquareScoreSort); 

  0000c	68 00 00 00 00	 push	 OFFSET ?DevilSquareScoreSort@@YA_NABQAVOBJECTSTRUCT@@0@Z ; DevilSquareScoreSort
  00011	8d 45 b8	 lea	 eax, DWORD PTR $T2[ebp]
  00014	50		 push	 eax
  00015	8b 4d fc	 mov	 ecx, DWORD PTR _this$[ebp]
  00018	81 c1 5c 02 00
	00		 add	 ecx, 604		; 0000025cH
  0001e	e8 00 00 00 00	 call	 ?end@?$vector@PAVOBJECTSTRUCT@@V?$allocator@PAVOBJECTSTRUCT@@@std@@@std@@QAE?AV?$_Vector_iterator@V?$_Vector_val@U?$_Simple_types@PAVOBJECTSTRUCT@@@std@@@std@@@2@XZ ; std::vector<OBJECTSTRUCT *,std::allocator<OBJECTSTRUCT *> >::end
  00023	8b 08		 mov	 ecx, DWORD PTR [eax]
  00025	51		 push	 ecx
  00026	8d 55 b4	 lea	 edx, DWORD PTR $T1[ebp]
  00029	52		 push	 edx
  0002a	8b 4d fc	 mov	 ecx, DWORD PTR _this$[ebp]
  0002d	81 c1 5c 02 00
	00		 add	 ecx, 604		; 0000025cH
  00033	e8 00 00 00 00	 call	 ?begin@?$vector@PAVOBJECTSTRUCT@@V?$allocator@PAVOBJECTSTRUCT@@@std@@@std@@QAE?AV?$_Vector_iterator@V?$_Vector_val@U?$_Simple_types@PAVOBJECTSTRUCT@@@std@@@std@@@2@XZ ; std::vector<OBJECTSTRUCT *,std::allocator<OBJECTSTRUCT *> >::begin
  00038	8b 00		 mov	 eax, DWORD PTR [eax]
  0003a	50		 push	 eax
  0003b	e8 00 00 00 00	 call	 ??$sort@V?$_Vector_iterator@V?$_Vector_val@U?$_Simple_types@PAVOBJECTSTRUCT@@@std@@@std@@@std@@P6A_NABQAVOBJECTSTRUCT@@0@Z@std@@YAXV?$_Vector_iterator@V?$_Vector_val@U?$_Simple_types@PAVOBJECTSTRUCT@@@std@@@std@@@0@0P6A_NABQAVOBJECTSTRUCT@@1@Z@Z ; std::sort<std::_Vector_iterator<std::_Vector_val<std::_Simple_types<OBJECTSTRUCT *> > >,bool (__cdecl*)(OBJECTSTRUCT * const &,OBJECTSTRUCT * const &)>
  00040	83 c4 0c	 add	 esp, 12			; 0000000cH

; 326  : }

  00043	5f		 pop	 edi
  00044	5e		 pop	 esi
  00045	5b		 pop	 ebx
  00046	8b e5		 mov	 esp, ebp
  00048	5d		 pop	 ebp
  00049	c3		 ret	 0
?SortScore@CDevilSquareGround@@QAEXXZ ENDP		; CDevilSquareGround::SortScore
_TEXT	ENDS
; Function compile flags: /Odtp /ZI
; File C:\Mu Online\Mu-GS-Webzen-MC-10093\GameServer\DevilSquareGround.cpp
;	COMDAT ?ClearScore@CDevilSquareGround@@QAEXXZ
_TEXT	SEGMENT
_this$ = -4						; size = 4
?ClearScore@CDevilSquareGround@@QAEXXZ PROC		; CDevilSquareGround::ClearScore, COMDAT
; _this$ = ecx

; 319  : {

  00000	55		 push	 ebp
  00001	8b ec		 mov	 ebp, esp
  00003	83 ec 44	 sub	 esp, 68			; 00000044H
  00006	53		 push	 ebx
  00007	56		 push	 esi
  00008	57		 push	 edi
  00009	89 4d fc	 mov	 DWORD PTR _this$[ebp], ecx

; 320  : 	m_DevilSquareRankList.clear();

  0000c	8b 4d fc	 mov	 ecx, DWORD PTR _this$[ebp]
  0000f	81 c1 5c 02 00
	00		 add	 ecx, 604		; 0000025cH
  00015	e8 00 00 00 00	 call	 ?clear@?$vector@PAVOBJECTSTRUCT@@V?$allocator@PAVOBJECTSTRUCT@@@std@@@std@@QAEXXZ ; std::vector<OBJECTSTRUCT *,std::allocator<OBJECTSTRUCT *> >::clear

; 321  : }

  0001a	5f		 pop	 edi
  0001b	5e		 pop	 esi
  0001c	5b		 pop	 ebx
  0001d	8b e5		 mov	 esp, ebp
  0001f	5d		 pop	 ebp
  00020	c3		 ret	 0
?ClearScore@CDevilSquareGround@@QAEXXZ ENDP		; CDevilSquareGround::ClearScore
_TEXT	ENDS
; Function compile flags: /Odtp /ZI
; File C:\Mu Online\Mu-GS-Webzen-MC-10093\GameServer\DevilSquareGround.cpp
;	COMDAT ?SendRankingInfo@CDevilSquareGround@@QAEXPAVOBJECTSTRUCT@@@Z
_TEXT	SEGMENT
_pMsg$ = -48						; size = 40
_this$ = -8						; size = 4
__$ArrayPad$ = -4					; size = 4
_lpObj$ = 8						; size = 4
?SendRankingInfo@CDevilSquareGround@@QAEXPAVOBJECTSTRUCT@@@Z PROC ; CDevilSquareGround::SendRankingInfo, COMDAT
; _this$ = ecx

; 692  : {

  00000	55		 push	 ebp
  00001	8b ec		 mov	 ebp, esp
  00003	83 ec 70	 sub	 esp, 112		; 00000070H
  00006	a1 00 00 00 00	 mov	 eax, DWORD PTR ___security_cookie
  0000b	33 c5		 xor	 eax, ebp
