; Listing generated by Microsoft (R) Optimizing Compiler Version 19.27.29111.0 

	TITLE	C:\Mu Online\Mu-GS-Webzen-MC-10093\GameServer\DirPath.cpp
	.686P
	.XMM
	include listing.inc
	.model	flat

INCLUDELIB LIBCMT
INCLUDELIB OLDNAMES

PUBLIC	?__empty_global_delete@@YAXPAX@Z		; __empty_global_delete
PUBLIC	?__empty_global_delete@@YAXPAXI@Z		; __empty_global_delete
PUBLIC	??0CDirPath@@QAE@XZ				; CDirPath::CDirPath
PUBLIC	??1CDirPath@@UAE@XZ				; CDirPath::~CDirPath
PUBLIC	?SetFirstPath@CDirPath@@QAEXPAD@Z		; CDirPath::SetFirstPath
PUBLIC	?GetNewPath@CDirPath@@QAEPADPAD@Z		; CDirPath::GetNewPath
PUBLIC	??_GCDirPath@@UAEPAXI@Z				; CDirPath::`scalar deleting destructor'
PUBLIC	??_7CDirPath@@6B@				; CDirPath::`vftable'
PUBLIC	??_R4CDirPath@@6B@				; CDirPath::`RTTI Complete Object Locator'
PUBLIC	??_R0?AVCDirPath@@@8				; CDirPath `RTTI Type Descriptor'
PUBLIC	??_R3CDirPath@@8				; CDirPath::`RTTI Class Hierarchy Descriptor'
PUBLIC	??_R2CDirPath@@8				; CDirPath::`RTTI Base Class Array'
PUBLIC	??_R1A@?0A@EA@CDirPath@@8			; CDirPath::`RTTI Base Class Descriptor at (0,-1,0,64)'
EXTRN	??3@YAXPAXI@Z:PROC				; operator delete
EXTRN	_strcat:PROC
EXTRN	_strcpy:PROC
EXTRN	??_ECDirPath@@UAEPAXI@Z:PROC			; CDirPath::`vector deleting destructor'
EXTRN	??_7type_info@@6B@:QWORD			; type_info::`vftable'
;	COMDAT ??_R1A@?0A@EA@CDirPath@@8
rdata$r	SEGMENT
??_R1A@?0A@EA@CDirPath@@8 DD FLAT:??_R0?AVCDirPath@@@8	; CDirPath::`RTTI Base Class Descriptor at (0,-1,0,64)'
	DD	00H
	DD	00H
	DD	0ffffffffH
	DD	00H
	DD	040H
	DD	FLAT:??_R3CDirPath@@8
rdata$r	ENDS
;	COMDAT ??_R2CDirPath@@8
rdata$r	SEGMENT
??_R2CDirPath@@8 DD FLAT:??_R1A@?0A@EA@CDirPath@@8	; CDirPath::`RTTI Base Class Array'
rdata$r	ENDS
;	COMDAT ??_R3CDirPath@@8
rdata$r	SEGMENT
??_R3CDirPath@@8 DD 00H					; CDirPath::`RTTI Class Hierarchy Descriptor'
	DD	00H
	DD	01H
	DD	FLAT:??_R2CDirPath@@8
rdata$r	ENDS
;	COMDAT ??_R0?AVCDirPath@@@8
data$r	SEGMENT
??_R0?AVCDirPath@@@8 DD FLAT:??_7type_info@@6B@		; CDirPath `RTTI Type Descriptor'
	DD	00H
	DB	'.?AVCDirPath@@', 00H
data$r	ENDS
;	COMDAT ??_R4CDirPath@@6B@
rdata$r	SEGMENT
??_R4CDirPath@@6B@ DD 00H				; CDirPath::`RTTI Complete Object Locator'
	DD	00H
	DD	00H
	DD	FLAT:??_R0?AVCDirPath@@@8
	DD	FLAT:??_R3CDirPath@@8
rdata$r	ENDS
;	COMDAT ??_7CDirPath@@6B@
CONST	SEGMENT
??_7CDirPath@@6B@ DD FLAT:??_R4CDirPath@@6B@		; CDirPath::`vftable'
	DD	FLAT:??_ECDirPath@@UAEPAXI@Z
CONST	ENDS
; Function compile flags: /Odtp /ZI
;	COMDAT ??_GCDirPath@@UAEPAXI@Z
_TEXT	SEGMENT
_this$ = -4						; size = 4
___flags$ = 8						; size = 4
??_GCDirPath@@UAEPAXI@Z PROC				; CDirPath::`scalar deleting destructor', COMDAT
; _this$ = ecx
  00000	55		 push	 ebp
  00001	8b ec		 mov	 ebp, esp
  00003	83 ec 44	 sub	 esp, 68			; 00000044H
  00006	53		 push	 ebx
  00007	56		 push	 esi
  00008	57		 push	 edi
  00009	89 4d fc	 mov	 DWORD PTR _this$[ebp], ecx
  0000c	8b 4d fc	 mov	 ecx, DWORD PTR _this$[ebp]
  0000f	e8 00 00 00 00	 call	 ??1CDirPath@@UAE@XZ	; CDirPath::~CDirPath
  00014	8b 45 08	 mov	 eax, DWORD PTR ___flags$[ebp]
  00017	83 e0 01	 and	 eax, 1
  0001a	74 11		 je	 SHORT $LN2@scalar
  0001c	68 0c 02 00 00	 push	 524			; 0000020cH
  00021	8b 45 fc	 mov	 eax, DWORD PTR _this$[ebp]
  00024	50		 push	 eax
  00025	e8 00 00 00 00	 call	 ??3@YAXPAXI@Z		; operator delete
  0002a	83 c4 08	 add	 esp, 8
$LN2@scalar:
  0002d	8b 45 fc	 mov	 eax, DWORD PTR _this$[ebp]
  00030	5f		 pop	 edi
  00031	5e		 pop	 esi
  00032	5b		 pop	 ebx
  00033	8b e5		 mov	 esp, ebp
  00035	5d		 pop	 ebp
  00036	c2 04 00	 ret	 4
??_GCDirPath@@UAEPAXI@Z ENDP				; CDirPath::`scalar deleting destructor'
_TEXT	ENDS
; Function compile flags: /Odtp /ZI
; File C:\Mu Online\Mu-GS-Webzen-MC-10093\GameServer\DirPath.cpp
;	COMDAT ?GetNewPath@CDirPath@@QAEPADPAD@Z
_TEXT	SEGMENT
_this$ = -4						; size = 4
_npath$ = 8						; size = 4
?GetNewPath@CDirPath@@QAEPADPAD@Z PROC			; CDirPath::GetNewPath, COMDAT
; _this$ = ecx

; 29   : {

  00000	55		 push	 ebp
  00001	8b ec		 mov	 ebp, esp
  00003	83 ec 44	 sub	 esp, 68			; 00000044H
  00006	53		 push	 ebx
  00007	56		 push	 esi
  00008	57		 push	 edi
  00009	89 4d fc	 mov	 DWORD PTR _this$[ebp], ecx

; 30   : 	strcpy(m_newpath, m_path);

  0000c	8b 45 fc	 mov	 eax, DWORD PTR _this$[ebp]
  0000f	83 c0 04	 add	 eax, 4
  00012	50		 push	 eax
  00013	8b 4d fc	 mov	 ecx, DWORD PTR _this$[ebp]
  00016	81 c1 08 01 00
	00		 add	 ecx, 264		; 00000108H
  0001c	51		 push	 ecx
  0001d	e8 00 00 00 00	 call	 _strcpy
  00022	83 c4 08	 add	 esp, 8

; 31   : 	strcat(m_newpath, npath);

  00025	8b 45 08	 mov	 eax, DWORD PTR _npath$[ebp]
  00028	50		 push	 eax
  00029	8b 4d fc	 mov	 ecx, DWORD PTR _this$[ebp]
  0002c	81 c1 08 01 00
	00		 add	 ecx, 264		; 00000108H
  00032	51		 push	 ecx
  00033	e8 00 00 00 00	 call	 _strcat
  00038	83 c4 08	 add	 esp, 8

; 32   : 	return m_newpath;

  0003b	8b 45 fc	 mov	 eax, DWORD PTR _this$[ebp]
  0003e	05 08 01 00 00	 add	 eax, 264		; 00000108H

; 33   : }

  00043	5f		 pop	 edi
  00044	5e		 pop	 esi
  00045	5b		 pop	 ebx
  00046	8b e5		 mov	 esp, ebp
  00048	5d		 pop	 ebp
  00049	c2 04 00	 ret	 4
?GetNewPath@CDirPath@@QAEPADPAD@Z ENDP			; CDirPath::GetNewPath
_TEXT	ENDS
; Function compile flags: /Odtp /ZI
; File C:\Mu Online\Mu-GS-Webzen-MC-10093\GameServer\DirPath.cpp
;	COMDAT ?SetFirstPath@CDirPath@@QAEXPAD@Z
_TEXT	SEGMENT
_this$ = -4						; size = 4
_dir_path$ = 8						; size = 4
?SetFirstPath@CDirPath@@QAEXPAD@Z PROC			; CDirPath::SetFirstPath, COMDAT
; _this$ = ecx

; 23   : {

  00000	55		 push	 ebp
  00001	8b ec		 mov	 ebp, esp
  00003	83 ec 44	 sub	 esp, 68			; 00000044H
  00006	53		 push	 ebx
  00007	56		 push	 esi
  00008	57		 push	 edi
  00009	89 4d fc	 mov	 DWORD PTR _this$[ebp], ecx

; 24   : 	strcpy(m_path, dir_path);

  0000c	8b 45 08	 mov	 eax, DWORD PTR _dir_path$[ebp]
  0000f	50		 push	 eax
  00010	8b 4d fc	 mov	 ecx, DWORD PTR _this$[ebp]
  00013	83 c1 04	 add	 ecx, 4
  00016	51		 push	 ecx
  00017	e8 00 00 00 00	 call	 _strcpy
  0001c	83 c4 08	 add	 esp, 8

; 25   : }

  0001f	5f		 pop	 edi
  00020	5e		 pop	 esi
  00021	5b		 pop	 ebx
  00022	8b e5		 mov	 esp, ebp
  00024	5d		 pop	 ebp
  00025	c2 04 00	 ret	 4
?SetFirstPath@CDirPath@@QAEXPAD@Z ENDP			; CDirPath::SetFirstPath
_TEXT	ENDS
; Function compile flags: /Odtp /ZI
; File C:\Mu Online\Mu-GS-Webzen-MC-10093\GameServer\DirPath.cpp
;	COMDAT ??1CDirPath@@UAE@XZ
_TEXT	SEGMENT
_this$ = -4						; size = 4
??1CDirPath@@UAE@XZ PROC				; CDirPath::~CDirPath, COMDAT
; _this$ = ecx

; 18   : {

  00000	55		 push	 ebp
  00001	8b ec		 mov	 ebp, esp
  00003	83 ec 44	 sub	 esp, 68			; 00000044H
  00006	53		 push	 ebx
  00007	56		 push	 esi
  00008	57		 push	 edi
  00009	89 4d fc	 mov	 DWORD PTR _this$[ebp], ecx
  0000c	8b 45 fc	 mov	 eax, DWORD PTR _this$[ebp]
  0000f	c7 00 00 00 00
	00		 mov	 DWORD PTR [eax], OFFSET ??_7CDirPath@@6B@

; 19   : 
; 20   : }

  00015	5f		 pop	 edi
  00016	5e		 pop	 esi
  00017	5b		 pop	 ebx
  00018	8b e5		 mov	 esp, ebp
  0001a	5d		 pop	 ebp
  0001b	c3		 ret	 0
??1CDirPath@@UAE@XZ ENDP				; CDirPath::~CDirPath
_TEXT	ENDS
; Function compile flags: /Odtp /ZI
; File C:\Mu Online\Mu-GS-Webzen-MC-10093\GameServer\DirPath.cpp
;	COMDAT ??0CDirPath@@QAE@XZ
_TEXT	SEGMENT
_this$ = -4						; size = 4
??0CDirPath@@QAE@XZ PROC				; CDirPath::CDirPath, COMDAT
; _this$ = ecx

; 13   : {

  00000	55		 push	 ebp
  00001	8b ec		 mov	 ebp, esp
  00003	83 ec 44	 sub	 esp, 68			; 00000044H
  00006	53		 push	 ebx
  00007	56		 push	 esi
  00008	57		 push	 edi
  00009	89 4d fc	 mov	 DWORD PTR _this$[ebp], ecx
  0000c	8b 45 fc	 mov	 eax, DWORD PTR _this$[ebp]
  0000f	c7 00 00 00 00
	00		 mov	 DWORD PTR [eax], OFFSET ??_7CDirPath@@6B@

; 14   : 
; 15   : }

  00015	8b 45 fc	 mov	 eax, DWORD PTR _this$[ebp]
  00018	5f		 pop	 edi
  00019	5e		 pop	 esi
  0001a	5b		 pop	 ebx
  0001b	8b e5		 mov	 esp, ebp
  0001d	5d		 pop	 ebp
  0001e	c3		 ret	 0
??0CDirPath@@QAE@XZ ENDP				; CDirPath::CDirPath
_TEXT	ENDS
; Function compile flags: /Odtp /ZI
; File C:\Mu Online\Mu-GS-Webzen-MC-10093\GameServer\DirPath.cpp
;	COMDAT ?__empty_global_delete@@YAXPAXI@Z
_TEXT	SEGMENT
___formal$ = 8						; size = 4
___formal$ = 12						; size = 4
?__empty_global_delete@@YAXPAXI@Z PROC			; __empty_global_delete, COMDAT

  00000	55		 push	 ebp
  00001	8b ec		 mov	 ebp, esp
  00003	83 ec 40	 sub	 esp, 64			; 00000040H
  00006	53		 push	 ebx
  00007	56		 push	 esi
  00008	57		 push	 edi
  00009	5f		 pop	 edi
  0000a	5e		 pop	 esi
  0000b	5b		 pop	 ebx
  0000c	8b e5		 mov	 esp, ebp
  0000e	5d		 pop	 ebp
  0000f	c3		 ret	 0
?__empty_global_delete@@YAXPAXI@Z ENDP			; __empty_global_delete
_TEXT	ENDS
; Function compile flags: /Odtp /ZI
; File C:\Mu Online\Mu-GS-Webzen-MC-10093\GameServer\DirPath.cpp
;	COMDAT ?__empty_global_delete@@YAXPAX@Z
_TEXT	SEGMENT
___formal$ = 8						; size = 4
?__empty_global_delete@@YAXPAX@Z PROC			; __empty_global_delete, COMDAT

  00000	55		 push	 ebp
  00001	8b ec		 mov	 ebp, esp
  00003	83 ec 40	 sub	 esp, 64			; 00000040H
  00006	53		 push	 ebx
  00007	56		 push	 esi
  00008	57		 push	 edi
  00009	5f		 pop	 edi
  0000a	5e		 pop	 esi
  0000b	5b		 pop	 ebx
  0000c	8b e5		 mov	 esp, ebp
  0000e	5d		 pop	 ebp
  0000f	c3		 ret	 0
?__empty_global_delete@@YAXPAX@Z ENDP			; __empty_global_delete
_TEXT	ENDS
END
