; Listing generated by Microsoft (R) Optimizing Compiler Version 19.27.29111.0 

	TITLE	C:\Mu Online\Mu-GS-Webzen-MC-10093\GameServer\DragonEvent.cpp
	.686P
	.XMM
	include listing.inc
	.model	flat

INCLUDELIB LIBCMT
INCLUDELIB OLDNAMES

PUBLIC	?__empty_global_delete@@YAXPAX@Z		; __empty_global_delete
PUBLIC	?__empty_global_delete@@YAXPAXI@Z		; __empty_global_delete
PUBLIC	??0CDragonEvent@@QAE@XZ				; CDragonEvent::CDragonEvent
PUBLIC	??1CDragonEvent@@UAE@XZ				; CDragonEvent::~CDragonEvent
PUBLIC	?Init@CDragonEvent@@QAEXXZ			; CDragonEvent::Init
PUBLIC	?Start@CDragonEvent@@QAEXXZ			; CDragonEvent::Start
PUBLIC	?End@CDragonEvent@@QAEXXZ			; CDragonEvent::End
PUBLIC	?Run@CDragonEvent@@QAEXXZ			; CDragonEvent::Run
PUBLIC	?DragonActive@CDragonEvent@@QAEXXZ		; CDragonEvent::DragonActive
PUBLIC	?SetMenualStart@CDragonEvent@@QAEXH@Z		; CDragonEvent::SetMenualStart
PUBLIC	?Start_Menual@CDragonEvent@@QAEXXZ		; CDragonEvent::Start_Menual
PUBLIC	?End_Menual@CDragonEvent@@QAEXXZ		; CDragonEvent::End_Menual
PUBLIC	??_GCDragonEvent@@UAEPAXI@Z			; CDragonEvent::`scalar deleting destructor'
PUBLIC	??_7CDragonEvent@@6B@				; CDragonEvent::`vftable'
PUBLIC	??_C@_03DMLAHEJO@?$KB?Y?5@			; `string'
PUBLIC	??_C@_03PGMJMGNM@?5?$KB?Y@			; `string'
PUBLIC	??_C@_0M@JPEAEJLO@Event?51?5End@		; `string'
PUBLIC	??_C@_0O@KHDGKEEO@Event?5Start?51@		; `string'
PUBLIC	??_C@_0CN@HLGGPDEG@?$KB?$NL?$KB?$NM?$FLEvent?5Management?$FN?5?$FLStart?$FN?5@ ; `string'
PUBLIC	??_R4CDragonEvent@@6B@				; CDragonEvent::`RTTI Complete Object Locator'
PUBLIC	??_R0?AVCDragonEvent@@@8			; CDragonEvent `RTTI Type Descriptor'
PUBLIC	??_R3CDragonEvent@@8				; CDragonEvent::`RTTI Class Hierarchy Descriptor'
PUBLIC	??_R2CDragonEvent@@8				; CDragonEvent::`RTTI Base Class Array'
PUBLIC	??_R1A@?0A@EA@CDragonEvent@@8			; CDragonEvent::`RTTI Base Class Descriptor at (0,-1,0,64)'
EXTRN	??3@YAXPAXI@Z:PROC				; operator delete
EXTRN	_strcat:PROC
EXTRN	_strcpy:PROC
EXTRN	__imp__GetTickCount@0:PROC
EXTRN	_rand:PROC
EXTRN	__imp_?Get@CMsg@@QAEPADH@Z:PROC
EXTRN	?GCMapEventStateSend@@YAXHEE@Z:PROC		; GCMapEventStateSend
EXTRN	?AllSendServerMsg@@YAXPAD@Z:PROC		; AllSendServerMsg
EXTRN	?GetBoxPosition@CMonsterSetBase@@QAEHHHHHHAAF0@Z:PROC ; CMonsterSetBase::GetBoxPosition
EXTRN	??_ECDragonEvent@@UAEPAXI@Z:PROC		; CDragonEvent::`vector deleting destructor'
EXTRN	@__security_check_cookie@4:PROC
EXTRN	??_7type_info@@6B@:QWORD			; type_info::`vftable'
EXTRN	?LogAdd@@3P6AXPADZZA:DWORD			; LogAdd
EXTRN	?LogAddTD@@3P6AXPADZZA:DWORD			; LogAddTD
EXTRN	?gObj@@3PAVOBJECTSTRUCT@@A:DWORD		; gObj
EXTRN	?lMsg@@3VCMsg@@A:BYTE				; lMsg
EXTRN	?gMSetBase@@3VCMonsterSetBase@@A:BYTE		; gMSetBase
EXTRN	___security_cookie:DWORD
;	COMDAT ??_R1A@?0A@EA@CDragonEvent@@8
rdata$r	SEGMENT
??_R1A@?0A@EA@CDragonEvent@@8 DD FLAT:??_R0?AVCDragonEvent@@@8 ; CDragonEvent::`RTTI Base Class Descriptor at (0,-1,0,64)'
	DD	00H
	DD	00H
	DD	0ffffffffH
	DD	00H
	DD	040H
	DD	FLAT:??_R3CDragonEvent@@8
rdata$r	ENDS
;	COMDAT ??_R2CDragonEvent@@8
rdata$r	SEGMENT
??_R2CDragonEvent@@8 DD FLAT:??_R1A@?0A@EA@CDragonEvent@@8 ; CDragonEvent::`RTTI Base Class Array'
rdata$r	ENDS
;	COMDAT ??_R3CDragonEvent@@8
rdata$r	SEGMENT
??_R3CDragonEvent@@8 DD 00H				; CDragonEvent::`RTTI Class Hierarchy Descriptor'
	DD	00H
	DD	01H
	DD	FLAT:??_R2CDragonEvent@@8
rdata$r	ENDS
;	COMDAT ??_R0?AVCDragonEvent@@@8
data$r	SEGMENT
??_R0?AVCDragonEvent@@@8 DD FLAT:??_7type_info@@6B@	; CDragonEvent `RTTI Type Descriptor'
	DD	00H
	DB	'.?AVCDragonEvent@@', 00H
data$r	ENDS
;	COMDAT ??_R4CDragonEvent@@6B@
rdata$r	SEGMENT
??_R4CDragonEvent@@6B@ DD 00H				; CDragonEvent::`RTTI Complete Object Locator'
	DD	00H
	DD	00H
	DD	FLAT:??_R0?AVCDragonEvent@@@8
	DD	FLAT:??_R3CDragonEvent@@8
rdata$r	ENDS
;	COMDAT ??_C@_0CN@HLGGPDEG@?$KB?$NL?$KB?$NM?$FLEvent?5Management?$FN?5?$FLStart?$FN?5@
CONST	SEGMENT
??_C@_0CN@HLGGPDEG@?$KB?$NL?$KB?$NM?$FLEvent?5Management?$FN?5?$FLStart?$FN?5@ DB 0a1H
	DB	0dbH, 0a1H, 0dcH, '[Event Management] [Start] Dragon Event!', 00H ; `string'
CONST	ENDS
;	COMDAT ??_C@_0O@KHDGKEEO@Event?5Start?51@
CONST	SEGMENT
??_C@_0O@KHDGKEEO@Event?5Start?51@ DB 'Event Start 1', 00H ; `string'
CONST	ENDS
;	COMDAT ??_C@_0M@JPEAEJLO@Event?51?5End@
CONST	SEGMENT
??_C@_0M@JPEAEJLO@Event?51?5End@ DB 'Event 1 End', 00H	; `string'
CONST	ENDS
;	COMDAT ??_C@_03PGMJMGNM@?5?$KB?Y@
CONST	SEGMENT
??_C@_03PGMJMGNM@?5?$KB?Y@ DB ' ', 0a1H, 0d9H, 00H	; `string'
CONST	ENDS
;	COMDAT ??_C@_03DMLAHEJO@?$KB?Y?5@
CONST	SEGMENT
??_C@_03DMLAHEJO@?$KB?Y?5@ DB 0a1H, 0d9H, ' ', 00H	; `string'
CONST	ENDS
;	COMDAT ??_7CDragonEvent@@6B@
CONST	SEGMENT
??_7CDragonEvent@@6B@ DD FLAT:??_R4CDragonEvent@@6B@	; CDragonEvent::`vftable'
	DD	FLAT:??_ECDragonEvent@@UAEPAXI@Z
CONST	ENDS
; Function compile flags: /Odtp /ZI
;	COMDAT ??_GCDragonEvent@@UAEPAXI@Z
_TEXT	SEGMENT
_this$ = -4						; size = 4
___flags$ = 8						; size = 4
??_GCDragonEvent@@UAEPAXI@Z PROC			; CDragonEvent::`scalar deleting destructor', COMDAT
; _this$ = ecx
  00000	55		 push	 ebp
  00001	8b ec		 mov	 ebp, esp
  00003	83 ec 44	 sub	 esp, 68			; 00000044H
  00006	53		 push	 ebx
  00007	56		 push	 esi
  00008	57		 push	 edi
  00009	89 4d fc	 mov	 DWORD PTR _this$[ebp], ecx
  0000c	8b 4d fc	 mov	 ecx, DWORD PTR _this$[ebp]
  0000f	e8 00 00 00 00	 call	 ??1CDragonEvent@@UAE@XZ	; CDragonEvent::~CDragonEvent
  00014	8b 45 08	 mov	 eax, DWORD PTR ___flags$[ebp]
  00017	83 e0 01	 and	 eax, 1
  0001a	74 0e		 je	 SHORT $LN2@scalar
  0001c	6a 14		 push	 20			; 00000014H
  0001e	8b 45 fc	 mov	 eax, DWORD PTR _this$[ebp]
  00021	50		 push	 eax
  00022	e8 00 00 00 00	 call	 ??3@YAXPAXI@Z		; operator delete
  00027	83 c4 08	 add	 esp, 8
$LN2@scalar:
  0002a	8b 45 fc	 mov	 eax, DWORD PTR _this$[ebp]
  0002d	5f		 pop	 edi
  0002e	5e		 pop	 esi
  0002f	5b		 pop	 ebx
  00030	8b e5		 mov	 esp, ebp
  00032	5d		 pop	 ebp
  00033	c2 04 00	 ret	 4
??_GCDragonEvent@@UAEPAXI@Z ENDP			; CDragonEvent::`scalar deleting destructor'
_TEXT	ENDS
; Function compile flags: /Odtp /ZI
; File C:\Mu Online\Mu-GS-Webzen-MC-10093\GameServer\DragonEvent.cpp
;	COMDAT ?End_Menual@CDragonEvent@@QAEXXZ
_TEXT	SEGMENT
_this$ = -4						; size = 4
?End_Menual@CDragonEvent@@QAEXXZ PROC			; CDragonEvent::End_Menual, COMDAT
; _this$ = ecx

; 178  : {

  00000	55		 push	 ebp
  00001	8b ec		 mov	 ebp, esp
  00003	83 ec 44	 sub	 esp, 68			; 00000044H
  00006	53		 push	 ebx
  00007	56		 push	 esi
  00008	57		 push	 edi
  00009	89 4d fc	 mov	 DWORD PTR _this$[ebp], ecx

; 179  : 	SetMenualStart(FALSE);

  0000c	6a 00		 push	 0
  0000e	8b 4d fc	 mov	 ecx, DWORD PTR _this$[ebp]
  00011	e8 00 00 00 00	 call	 ?SetMenualStart@CDragonEvent@@QAEXH@Z ; CDragonEvent::SetMenualStart

; 180  : 
; 181  : 	End();

  00016	8b 4d fc	 mov	 ecx, DWORD PTR _this$[ebp]
  00019	e8 00 00 00 00	 call	 ?End@CDragonEvent@@QAEXXZ ; CDragonEvent::End

; 182  : }

  0001e	5f		 pop	 edi
  0001f	5e		 pop	 esi
  00020	5b		 pop	 ebx
  00021	8b e5		 mov	 esp, ebp
  00023	5d		 pop	 ebp
  00024	c3		 ret	 0
?End_Menual@CDragonEvent@@QAEXXZ ENDP			; CDragonEvent::End_Menual
_TEXT	ENDS
; Function compile flags: /Odtp /ZI
; File C:\Mu Online\Mu-GS-Webzen-MC-10093\GameServer\DragonEvent.cpp
;	COMDAT ?Start_Menual@CDragonEvent@@QAEXXZ
_TEXT	SEGMENT
_this$ = -4						; size = 4
?Start_Menual@CDragonEvent@@QAEXXZ PROC			; CDragonEvent::Start_Menual, COMDAT
; _this$ = ecx

; 167  : {

  00000	55		 push	 ebp
  00001	8b ec		 mov	 ebp, esp
  00003	83 ec 44	 sub	 esp, 68			; 00000044H
  00006	53		 push	 ebx
  00007	56		 push	 esi
  00008	57		 push	 edi
  00009	89 4d fc	 mov	 DWORD PTR _this$[ebp], ecx

; 168  : 	SetMenualStart(TRUE);

  0000c	6a 01		 push	 1
  0000e	8b 4d fc	 mov	 ecx, DWORD PTR _this$[ebp]
  00011	e8 00 00 00 00	 call	 ?SetMenualStart@CDragonEvent@@QAEXH@Z ; CDragonEvent::SetMenualStart

; 169  : 
; 170  : 	LogAddTD("○●[Event Management] [Start] Dragon Event!");

  00016	68 00 00 00 00	 push	 OFFSET ??_C@_0CN@HLGGPDEG@?$KB?$NL?$KB?$NM?$FLEvent?5Management?$FN?5?$FLStart?$FN?5@
  0001b	ff 15 00 00 00
	00		 call	 DWORD PTR ?LogAddTD@@3P6AXPADZZA ; LogAddTD
  00021	83 c4 04	 add	 esp, 4

; 171  : 	
; 172  : 	EventState = 0;

  00024	8b 45 fc	 mov	 eax, DWORD PTR _this$[ebp]
  00027	c6 40 04 00	 mov	 BYTE PTR [eax+4], 0

; 173  : 	Start();

  0002b	8b 4d fc	 mov	 ecx, DWORD PTR _this$[ebp]
  0002e	e8 00 00 00 00	 call	 ?Start@CDragonEvent@@QAEXXZ ; CDragonEvent::Start

; 174  : }

  00033	5f		 pop	 edi
  00034	5e		 pop	 esi
  00035	5b		 pop	 ebx
  00036	8b e5		 mov	 esp, ebp
  00038	5d		 pop	 ebp
  00039	c3		 ret	 0
?Start_Menual@CDragonEvent@@QAEXXZ ENDP			; CDragonEvent::Start_Menual
_TEXT	ENDS
; Function compile flags: /Odtp /ZI
; File C:\Mu Online\Mu-GS-Webzen-MC-10093\GameServer\DragonEvent.h
;	COMDAT ?SetMenualStart@CDragonEvent@@QAEXH@Z
_TEXT	SEGMENT
_this$ = -4						; size = 4
_bMenualStart$ = 8					; size = 4
?SetMenualStart@CDragonEvent@@QAEXH@Z PROC		; CDragonEvent::SetMenualStart, COMDAT
; _this$ = ecx

; 46   : 	void SetMenualStart (BOOL bMenualStart)	{	m_bMenualStart = bMenualStart;	}

  00000	55		 push	 ebp
  00001	8b ec		 mov	 ebp, esp
  00003	83 ec 44	 sub	 esp, 68			; 00000044H
  00006	53		 push	 ebx
  00007	56		 push	 esi
  00008	57		 push	 edi
  00009	89 4d fc	 mov	 DWORD PTR _this$[ebp], ecx
  0000c	8b 45 fc	 mov	 eax, DWORD PTR _this$[ebp]
  0000f	8b 4d 08	 mov	 ecx, DWORD PTR _bMenualStart$[ebp]
  00012	89 48 10	 mov	 DWORD PTR [eax+16], ecx
  00015	5f		 pop	 edi
  00016	5e		 pop	 esi
  00017	5b		 pop	 ebx
  00018	8b e5		 mov	 esp, ebp
  0001a	5d		 pop	 ebp
  0001b	c2 04 00	 ret	 4
?SetMenualStart@CDragonEvent@@QAEXH@Z ENDP		; CDragonEvent::SetMenualStart
_TEXT	ENDS
; Function compile flags: /Odtp /ZI
; File C:\Mu Online\Mu-GS-Webzen-MC-10093\GameServer\DragonEvent.cpp
;	COMDAT ?DragonActive@CDragonEvent@@QAEXXZ
_TEXT	SEGMENT
tv80 = -76						; size = 4
_n$ = -8						; size = 4
_this$ = -4						; size = 4
?DragonActive@CDragonEvent@@QAEXXZ PROC			; CDragonEvent::DragonActive, COMDAT
; _this$ = ecx

; 90   : {

  00000	55		 push	 ebp
  00001	8b ec		 mov	 ebp, esp
  00003	83 ec 4c	 sub	 esp, 76			; 0000004cH
  00006	53		 push	 ebx
  00007	56		 push	 esi
  00008	57		 push	 edi
  00009	89 4d fc	 mov	 DWORD PTR _this$[ebp], ecx

; 91   : 	int n;
; 92   : 	
; 93   : 	for( n=0; n<MAX_MONSTER; n++)

  0000c	c7 45 f8 00 00
	00 00		 mov	 DWORD PTR _n$[ebp], 0
  00013	eb 09		 jmp	 SHORT $LN4@DragonActi
$LN2@DragonActi:
  00015	8b 45 f8	 mov	 eax, DWORD PTR _n$[ebp]
  00018	83 c0 01	 add	 eax, 1
  0001b	89 45 f8	 mov	 DWORD PTR _n$[ebp], eax
$LN4@DragonActi:
  0001e	81 7d f8 a8 16
	00 00		 cmp	 DWORD PTR _n$[ebp], 5800 ; 000016a8H
  00025	0f 8d fa 02 00
	00		 jge	 $LN1@DragonActi

; 94   : 	{
; 95   : 		
; 96   : 		if( gObj[n].Class == 44 )	// 환수 드래곤 일경우

  0002b	69 45 f8 a0 1b
	00 00		 imul	 eax, DWORD PTR _n$[ebp], 7072
  00032	8b 0d 00 00 00
	00		 mov	 ecx, DWORD PTR ?gObj@@3PAVOBJECTSTRUCT@@A ; gObj
  00038	0f b7 94 01 9c
	00 00 00	 movzx	 edx, WORD PTR [ecx+eax+156]
  00040	83 fa 2c	 cmp	 edx, 44			; 0000002cH
  00043	0f 85 d7 02 00
	00		 jne	 $LN7@DragonActi

; 97   : 		{
; 98   : 			gObj[n].Live	= 1;

  00049	69 45 f8 a0 1b
	00 00		 imul	 eax, DWORD PTR _n$[ebp], 7072
  00050	8b 0d 00 00 00
	00		 mov	 ecx, DWORD PTR ?gObj@@3PAVOBJECTSTRUCT@@A ; gObj
  00056	c6 44 01 66 01	 mov	 BYTE PTR [ecx+eax+102], 1

; 99   : 			gObj[n].MapNumber = m_MapNumber;

  0005b	69 45 f8 a0 1b
	00 00		 imul	 eax, DWORD PTR _n$[ebp], 7072
  00062	8b 0d 00 00 00
	00		 mov	 ecx, DWORD PTR ?gObj@@3PAVOBJECTSTRUCT@@A ; gObj
  00068	8b 55 fc	 mov	 edx, DWORD PTR _this$[ebp]
  0006b	8a 52 0c	 mov	 dl, BYTE PTR [edx+12]
  0006e	88 94 01 09 01
	00 00		 mov	 BYTE PTR [ecx+eax+265], dl

; 100  : 			
; 101  : 			switch( m_MapNumber )

  00075	8b 45 fc	 mov	 eax, DWORD PTR _this$[ebp]
  00078	8a 48 0c	 mov	 cl, BYTE PTR [eax+12]
  0007b	88 4d b4	 mov	 BYTE PTR tv80[ebp], cl
  0007e	80 7d b4 00	 cmp	 BYTE PTR tv80[ebp], 0
  00082	74 19		 je	 SHORT $LN8@DragonActi
  00084	80 7d b4 02	 cmp	 BYTE PTR tv80[ebp], 2
  00088	0f 84 19 01 00
	00		 je	 $LN13@DragonActi
  0008e	80 7d b4 03	 cmp	 BYTE PTR tv80[ebp], 3
  00092	0f 84 bf 01 00
	00		 je	 $LN16@DragonActi
  00098	e9 6b 02 00 00	 jmp	 $LN5@DragonActi
$LN8@DragonActi:

; 102  : 			{
; 103  : 			case 0 :
; 104  : 				if( (rand()%3) == 0 )

  0009d	e8 00 00 00 00	 call	 _rand
  000a2	99		 cdq
  000a3	b9 03 00 00 00	 mov	 ecx, 3
  000a8	f7 f9		 idiv	 ecx
  000aa	85 d2		 test	 edx, edx
  000ac	75 4f		 jne	 SHORT $LN9@DragonActi

; 105  : 					gMSetBase.GetBoxPosition(m_MapNumber, 135, 61, 146, 70, gObj[n].X,gObj[n].Y);

  000ae	69 45 f8 a0 1b
	00 00		 imul	 eax, DWORD PTR _n$[ebp], 7072
  000b5	8b 0d 00 00 00
	00		 mov	 ecx, DWORD PTR ?gObj@@3PAVOBJECTSTRUCT@@A ; gObj
  000bb	8d 94 01 06 01
	00 00		 lea	 edx, DWORD PTR [ecx+eax+262]
  000c2	52		 push	 edx
  000c3	69 45 f8 a0 1b
	00 00		 imul	 eax, DWORD PTR _n$[ebp], 7072
  000ca	8b 0d 00 00 00
	00		 mov	 ecx, DWORD PTR ?gObj@@3PAVOBJECTSTRUCT@@A ; gObj
  000d0	8d 94 01 04 01
	00 00		 lea	 edx, DWORD PTR [ecx+eax+260]
  000d7	52		 push	 edx
  000d8	6a 46		 push	 70			; 00000046H
  000da	68 92 00 00 00	 push	 146			; 00000092H
  000df	6a 3d		 push	 61			; 0000003dH
  000e1	68 87 00 00 00	 push	 135			; 00000087H
  000e6	8b 45 fc	 mov	 eax, DWORD PTR _this$[ebp]
  000e9	0f b6 48 0c	 movzx	 ecx, BYTE PTR [eax+12]
  000ed	51		 push	 ecx
  000ee	b9 00 00 00 00	 mov	 ecx, OFFSET ?gMSetBase@@3VCMonsterSetBase@@A ; gMSetBase
  000f3	e8 00 00 00 00	 call	 ?GetBoxPosition@CMonsterSetBase@@QAEHHHHHHAAF0@Z ; CMonsterSetBase::GetBoxPosition
  000f8	e9 a5 00 00 00	 jmp	 $LN10@DragonActi
$LN9@DragonActi:

; 106  : 				else if( (rand()%3) == 1 )

  000fd	e8 00 00 00 00	 call	 _rand
  00102	99		 cdq
  00103	b9 03 00 00 00	 mov	 ecx, 3
  00108	f7 f9		 idiv	 ecx
  0010a	83 fa 01	 cmp	 edx, 1
  0010d	75 4c		 jne	 SHORT $LN11@DragonActi

; 107  : 					gMSetBase.GetBoxPosition(m_MapNumber, 120, 204, 126, 219, gObj[n].X, gObj[n].Y);

  0010f	69 45 f8 a0 1b
	00 00		 imul	 eax, DWORD PTR _n$[ebp], 7072
  00116	8b 0d 00 00 00
	00		 mov	 ecx, DWORD PTR ?gObj@@3PAVOBJECTSTRUCT@@A ; gObj
  0011c	8d 94 01 06 01
	00 00		 lea	 edx, DWORD PTR [ecx+eax+262]
  00123	52		 push	 edx
  00124	69 45 f8 a0 1b
	00 00		 imul	 eax, DWORD PTR _n$[ebp], 7072
  0012b	8b 0d 00 00 00
	00		 mov	 ecx, DWORD PTR ?gObj@@3PAVOBJECTSTRUCT@@A ; gObj
  00131	8d 94 01 04 01
	00 00		 lea	 edx, DWORD PTR [ecx+eax+260]
  00138	52		 push	 edx
  00139	68 db 00 00 00	 push	 219			; 000000dbH
  0013e	6a 7e		 push	 126			; 0000007eH
  00140	68 cc 00 00 00	 push	 204			; 000000ccH
  00145	6a 78		 push	 120			; 00000078H
  00147	8b 45 fc	 mov	 eax, DWORD PTR _this$[ebp]
  0014a	0f b6 48 0c	 movzx	 ecx, BYTE PTR [eax+12]
  0014e	51		 push	 ecx
  0014f	b9 00 00 00 00	 mov	 ecx, OFFSET ?gMSetBase@@3VCMonsterSetBase@@A ; gMSetBase
  00154	e8 00 00 00 00	 call	 ?GetBoxPosition@CMonsterSetBase@@QAEHHHHHHAAF0@Z ; CMonsterSetBase::GetBoxPosition
  00159	eb 47		 jmp	 SHORT $LN10@DragonActi
$LN11@DragonActi:

; 108  : 				else 
; 109  : 					gMSetBase.GetBoxPosition(m_MapNumber, 67, 116, 77, 131, gObj[n].X, gObj[n].Y);

  0015b	69 45 f8 a0 1b
	00 00		 imul	 eax, DWORD PTR _n$[ebp], 7072
  00162	8b 0d 00 00 00
	00		 mov	 ecx, DWORD PTR ?gObj@@3PAVOBJECTSTRUCT@@A ; gObj
  00168	8d 94 01 06 01
	00 00		 lea	 edx, DWORD PTR [ecx+eax+262]
  0016f	52		 push	 edx
  00170	69 45 f8 a0 1b
	00 00		 imul	 eax, DWORD PTR _n$[ebp], 7072
  00177	8b 0d 00 00 00
	00		 mov	 ecx, DWORD PTR ?gObj@@3PAVOBJECTSTRUCT@@A ; gObj
  0017d	8d 94 01 04 01
	00 00		 lea	 edx, DWORD PTR [ecx+eax+260]
  00184	52		 push	 edx
  00185	68 83 00 00 00	 push	 131			; 00000083H
  0018a	6a 4d		 push	 77			; 0000004dH
  0018c	6a 74		 push	 116			; 00000074H
  0018e	6a 43		 push	 67			; 00000043H
  00190	8b 45 fc	 mov	 eax, DWORD PTR _this$[ebp]
  00193	0f b6 48 0c	 movzx	 ecx, BYTE PTR [eax+12]
  00197	51		 push	 ecx
  00198	b9 00 00 00 00	 mov	 ecx, OFFSET ?gMSetBase@@3VCMonsterSetBase@@A ; gMSetBase
  0019d	e8 00 00 00 00	 call	 ?GetBoxPosition@CMonsterSetBase@@QAEHHHHHHAAF0@Z ; CMonsterSetBase::GetBoxPosition
$LN10@DragonActi:

; 110  : 				break;

  001a2	e9 61 01 00 00	 jmp	 $LN5@DragonActi
$LN13@DragonActi:

; 111  : 			case 2 :
; 112  : 				if( (rand()%2) == 0 )

  001a7	e8 00 00 00 00	 call	 _rand
  001ac	25 01 00 00 80	 and	 eax, -2147483647	; 80000001H
  001b1	79 05		 jns	 SHORT $LN20@DragonActi
  001b3	48		 dec	 eax
  001b4	83 c8 fe	 or	 eax, -2			; fffffffeH
  001b7	40		 inc	 eax
$LN20@DragonActi:
  001b8	85 c0		 test	 eax, eax
  001ba	75 4c		 jne	 SHORT $LN14@DragonActi

; 113  : 					gMSetBase.GetBoxPosition(m_MapNumber, 155, 16, 169, 55, gObj[n].X, gObj[n].Y);

  001bc	69 45 f8 a0 1b
	00 00		 imul	 eax, DWORD PTR _n$[ebp], 7072
  001c3	8b 0d 00 00 00
	00		 mov	 ecx, DWORD PTR ?gObj@@3PAVOBJECTSTRUCT@@A ; gObj
  001c9	8d 94 01 06 01
	00 00		 lea	 edx, DWORD PTR [ecx+eax+262]
  001d0	52		 push	 edx
  001d1	69 45 f8 a0 1b
	00 00		 imul	 eax, DWORD PTR _n$[ebp], 7072
  001d8	8b 0d 00 00 00
	00		 mov	 ecx, DWORD PTR ?gObj@@3PAVOBJECTSTRUCT@@A ; gObj
  001de	8d 94 01 04 01
	00 00		 lea	 edx, DWORD PTR [ecx+eax+260]
  001e5	52		 push	 edx
  001e6	6a 37		 push	 55			; 00000037H
  001e8	68 a9 00 00 00	 push	 169			; 000000a9H
  001ed	6a 10		 push	 16			; 00000010H
  001ef	68 9b 00 00 00	 push	 155			; 0000009bH
  001f4	8b 45 fc	 mov	 eax, DWORD PTR _this$[ebp]
  001f7	0f b6 48 0c	 movzx	 ecx, BYTE PTR [eax+12]
  001fb	51		 push	 ecx
  001fc	b9 00 00 00 00	 mov	 ecx, OFFSET ?gMSetBase@@3VCMonsterSetBase@@A ; gMSetBase
  00201	e8 00 00 00 00	 call	 ?GetBoxPosition@CMonsterSetBase@@QAEHHHHHHAAF0@Z ; CMonsterSetBase::GetBoxPosition
  00206	eb 4a		 jmp	 SHORT $LN15@DragonActi
$LN14@DragonActi:

; 114  : 				else 
; 115  : 					gMSetBase.GetBoxPosition(m_MapNumber, 193, 110, 232, 126, gObj[n].X, gObj[n].Y);

  00208	69 45 f8 a0 1b
	00 00		 imul	 eax, DWORD PTR _n$[ebp], 7072
  0020f	8b 0d 00 00 00
	00		 mov	 ecx, DWORD PTR ?gObj@@3PAVOBJECTSTRUCT@@A ; gObj
  00215	8d 94 01 06 01
	00 00		 lea	 edx, DWORD PTR [ecx+eax+262]
  0021c	52		 push	 edx
  0021d	69 45 f8 a0 1b
	00 00		 imul	 eax, DWORD PTR _n$[ebp], 7072
  00224	8b 0d 00 00 00
	00		 mov	 ecx, DWORD PTR ?gObj@@3PAVOBJECTSTRUCT@@A ; gObj
  0022a	8d 94 01 04 01
	00 00		 lea	 edx, DWORD PTR [ecx+eax+260]
  00231	52		 push	 edx
  00232	6a 7e		 push	 126			; 0000007eH
  00234	68 e8 00 00 00	 push	 232			; 000000e8H
  00239	6a 6e		 push	 110			; 0000006eH
  0023b	68 c1 00 00 00	 push	 193			; 000000c1H
  00240	8b 45 fc	 mov	 eax, DWORD PTR _this$[ebp]
  00243	0f b6 48 0c	 movzx	 ecx, BYTE PTR [eax+12]
  00247	51		 push	 ecx
  00248	b9 00 00 00 00	 mov	 ecx, OFFSET ?gMSetBase@@3VCMonsterSetBase@@A ; gMSetBase
  0024d	e8 00 00 00 00	 call	 ?GetBoxPosition@CMonsterSetBase@@QAEHHHHHHAAF0@Z ; CMonsterSetBase::GetBoxPosition
$LN15@DragonActi:

; 116  : 				break;

  00252	e9 b1 00 00 00	 jmp	 $LN5@DragonActi
$LN16@DragonActi:

; 117  : 			case 3 :
; 118  : 				if( (rand()%2) == 0 )						

  00257	e8 00 00 00 00	 call	 _rand
  0025c	25 01 00 00 80	 and	 eax, -2147483647	; 80000001H
  00261	79 05		 jns	 SHORT $LN21@DragonActi
  00263	48		 dec	 eax
  00264	83 c8 fe	 or	 eax, -2			; fffffffeH
  00267	40		 inc	 eax
$LN21@DragonActi:
  00268	85 c0		 test	 eax, eax
  0026a	75 52		 jne	 SHORT $LN17@DragonActi

; 119  : 					gMSetBase.GetBoxPosition(m_MapNumber, 198, 161, 223, 175, gObj[n].X, gObj[n].Y);

  0026c	69 45 f8 a0 1b
	00 00		 imul	 eax, DWORD PTR _n$[ebp], 7072
  00273	8b 0d 00 00 00
	00		 mov	 ecx, DWORD PTR ?gObj@@3PAVOBJECTSTRUCT@@A ; gObj
  00279	8d 94 01 06 01
	00 00		 lea	 edx, DWORD PTR [ecx+eax+262]
  00280	52		 push	 edx
  00281	69 45 f8 a0 1b
	00 00		 imul	 eax, DWORD PTR _n$[ebp], 7072
  00288	8b 0d 00 00 00
	00		 mov	 ecx, DWORD PTR ?gObj@@3PAVOBJECTSTRUCT@@A ; gObj
  0028e	8d 94 01 04 01
	00 00		 lea	 edx, DWORD PTR [ecx+eax+260]
  00295	52		 push	 edx
  00296	68 af 00 00 00	 push	 175			; 000000afH
  0029b	68 df 00 00 00	 push	 223			; 000000dfH
  002a0	68 a1 00 00 00	 push	 161			; 000000a1H
  002a5	68 c6 00 00 00	 push	 198			; 000000c6H
  002aa	8b 45 fc	 mov	 eax, DWORD PTR _this$[ebp]
  002ad	0f b6 48 0c	 movzx	 ecx, BYTE PTR [eax+12]
  002b1	51		 push	 ecx
  002b2	b9 00 00 00 00	 mov	 ecx, OFFSET ?gMSetBase@@3VCMonsterSetBase@@A ; gMSetBase
  002b7	e8 00 00 00 00	 call	 ?GetBoxPosition@CMonsterSetBase@@QAEHHHHHHAAF0@Z ; CMonsterSetBase::GetBoxPosition
  002bc	eb 4a		 jmp	 SHORT $LN5@DragonActi
$LN17@DragonActi:

; 120  : 				else 
; 121  : 					gMSetBase.GetBoxPosition(m_MapNumber, 136, 50, 164, 59, gObj[n].X, gObj[n].Y);

  002be	69 45 f8 a0 1b
	00 00		 imul	 eax, DWORD PTR _n$[ebp], 7072
  002c5	8b 0d 00 00 00
	00		 mov	 ecx, DWORD PTR ?gObj@@3PAVOBJECTSTRUCT@@A ; gObj
  002cb	8d 94 01 06 01
	00 00		 lea	 edx, DWORD PTR [ecx+eax+262]
  002d2	52		 push	 edx
  002d3	69 45 f8 a0 1b
	00 00		 imul	 eax, DWORD PTR _n$[ebp], 7072
  002da	8b 0d 00 00 00
	00		 mov	 ecx, DWORD PTR ?gObj@@3PAVOBJECTSTRUCT@@A ; gObj
  002e0	8d 94 01 04 01
	00 00		 lea	 edx, DWORD PTR [ecx+eax+260]
  002e7	52		 push	 edx
  002e8	6a 3b		 push	 59			; 0000003bH
  002ea	68 a4 00 00 00	 push	 164			; 000000a4H
  002ef	6a 32		 push	 50			; 00000032H
  002f1	68 88 00 00 00	 push	 136			; 00000088H
  002f6	8b 45 fc	 mov	 eax, DWORD PTR _this$[ebp]
  002f9	0f b6 48 0c	 movzx	 ecx, BYTE PTR [eax+12]
  002fd	51		 push	 ecx
  002fe	b9 00 00 00 00	 mov	 ecx, OFFSET ?gMSetBase@@3VCMonsterSetBase@@A ; gMSetBase
  00303	e8 00 00 00 00	 call	 ?GetBoxPosition@CMonsterSetBase@@QAEHHHHHHAAF0@Z ; CMonsterSetBase::GetBoxPosition
$LN5@DragonActi:

; 122  : 				break;
; 123  : 			}
; 124  : 			gObj[n].m_State	= OBJST_CREATE;				

  00308	69 45 f8 a0 1b
	00 00		 imul	 eax, DWORD PTR _n$[ebp], 7072
  0030f	8b 0d 00 00 00
	00		 mov	 ecx, DWORD PTR ?gObj@@3PAVOBJECTSTRUCT@@A ; gObj
  00315	c7 84 01 b8 01
	00 00 01 00 00
	00		 mov	 DWORD PTR [ecx+eax+440], 1
$LN7@DragonActi:

; 125  : 		}		
; 126  : 	}

  00320	e9 f0 fc ff ff	 jmp	 $LN2@DragonActi
$LN1@DragonActi:

; 127  : }

  00325	5f		 pop	 edi
  00326	5e		 pop	 esi
  00327	5b		 pop	 ebx
  00328	8b e5		 mov	 esp, ebp
  0032a	5d		 pop	 ebp
  0032b	c3		 ret	 0
?DragonActive@CDragonEvent@@QAEXXZ ENDP			; CDragonEvent::DragonActive
_TEXT	ENDS
; Function compile flags: /Odtp /ZI
; File C:\Mu Online\Mu-GS-Webzen-MC-10093\GameServer\DragonEvent.cpp
;	COMDAT ?Run@CDragonEvent@@QAEXXZ
_TEXT	SEGMENT
_this$ = -4						; size = 4
?Run@CDragonEvent@@QAEXXZ PROC				; CDragonEvent::Run, COMDAT
; _this$ = ecx

; 130  : {

  00000	55		 push	 ebp
  00001	8b ec		 mov	 ebp, esp
  00003	83 ec 44	 sub	 esp, 68			; 00000044H
  00006	53		 push	 ebx
  00007	56		 push	 esi
  00008	57		 push	 edi
  00009	89 4d fc	 mov	 DWORD PTR _this$[ebp], ecx

; 131  : 
; 132  : #ifdef EVENT_MANAGEMENT_20040711
; 133  : 	if (m_bMenualStart)

  0000c	8b 45 fc	 mov	 eax, DWORD PTR _this$[ebp]
  0000f	83 78 10 00	 cmp	 DWORD PTR [eax+16], 0
  00013	74 05		 je	 SHORT $LN2@Run

; 134  : 		return;

  00015	e9 97 00 00 00	 jmp	 $LN1@Run
$LN2@Run:

; 135  : #endif
; 136  : 
; 137  : 	if( !EventState ) return;

  0001a	8b 45 fc	 mov	 eax, DWORD PTR _this$[ebp]
  0001d	0f b6 48 04	 movzx	 ecx, BYTE PTR [eax+4]
  00021	85 c9		 test	 ecx, ecx
  00023	75 05		 jne	 SHORT $LN3@Run
  00025	e9 87 00 00 00	 jmp	 $LN1@Run
$LN3@Run:

; 138  : 
; 139  : 
; 140  : 	if( EventState == 1 )

  0002a	8b 45 fc	 mov	 eax, DWORD PTR _this$[ebp]
  0002d	0f b6 48 04	 movzx	 ecx, BYTE PTR [eax+4]
  00031	83 f9 01	 cmp	 ecx, 1
  00034	75 54		 jne	 SHORT $LN4@Run

; 141  : 	{
; 142  : 		if( (GetTickCount()-EventStartTime) > 3000 )

  00036	ff 15 00 00 00
	00		 call	 DWORD PTR __imp__GetTickCount@0
  0003c	8b 4d fc	 mov	 ecx, DWORD PTR _this$[ebp]
  0003f	2b 41 08	 sub	 eax, DWORD PTR [ecx+8]
  00042	3d b8 0b 00 00	 cmp	 eax, 3000		; 00000bb8H
  00047	76 3f		 jbe	 SHORT $LN6@Run

; 143  : 		{
; 144  : 			EventState = 2;

  00049	8b 45 fc	 mov	 eax, DWORD PTR _this$[ebp]
  0004c	c6 40 04 02	 mov	 BYTE PTR [eax+4], 2

; 145  : 			// 드래곤 월드에 뿌림..
; 146  : 			GCMapEventStateSend(m_MapNumber, 1, 1);

  00050	6a 01		 push	 1
  00052	6a 01		 push	 1
  00054	8b 45 fc	 mov	 eax, DWORD PTR _this$[ebp]
  00057	0f b6 48 0c	 movzx	 ecx, BYTE PTR [eax+12]
  0005b	51		 push	 ecx
  0005c	e8 00 00 00 00	 call	 ?GCMapEventStateSend@@YAXHEE@Z ; GCMapEventStateSend
  00061	83 c4 0c	 add	 esp, 12			; 0000000cH

; 147  : 			LogAdd("Event Start 1");

  00064	68 00 00 00 00	 push	 OFFSET ??_C@_0O@KHDGKEEO@Event?5Start?51@
  00069	ff 15 00 00 00
	00		 call	 DWORD PTR ?LogAdd@@3P6AXPADZZA ; LogAdd
  0006f	83 c4 04	 add	 esp, 4

; 148  : 			DragonActive();

  00072	8b 4d fc	 mov	 ecx, DWORD PTR _this$[ebp]
  00075	e8 00 00 00 00	 call	 ?DragonActive@CDragonEvent@@QAEXXZ ; CDragonEvent::DragonActive

; 149  : 			EventStartTime = GetTickCount();

  0007a	ff 15 00 00 00
	00		 call	 DWORD PTR __imp__GetTickCount@0
  00080	8b 4d fc	 mov	 ecx, DWORD PTR _this$[ebp]
  00083	89 41 08	 mov	 DWORD PTR [ecx+8], eax

; 150  : 			return;

  00086	eb 29		 jmp	 SHORT $LN1@Run
$LN6@Run:

; 151  : 		}
; 152  : 	}

  00088	eb 27		 jmp	 SHORT $LN1@Run
$LN4@Run:

; 153  : 	else if( EventState == 2 )

  0008a	8b 45 fc	 mov	 eax, DWORD PTR _this$[ebp]
  0008d	0f b6 48 04	 movzx	 ecx, BYTE PTR [eax+4]
  00091	83 f9 02	 cmp	 ecx, 2
  00094	75 1b		 jne	 SHORT $LN1@Run

; 154  : 	{
; 155  : 		if( (GetTickCount()-EventStartTime) > ((1000*60)*5) )

  00096	ff 15 00 00 00
	00		 call	 DWORD PTR __imp__GetTickCount@0
  0009c	8b 4d fc	 mov	 ecx, DWORD PTR _this$[ebp]
  0009f	2b 41 08	 sub	 eax, DWORD PTR [ecx+8]
  000a2	3d e0 93 04 00	 cmp	 eax, 300000		; 000493e0H
  000a7	76 08		 jbe	 SHORT $LN1@Run

; 156  : 		{
; 157  : 			End();

  000a9	8b 4d fc	 mov	 ecx, DWORD PTR _this$[ebp]
  000ac	e8 00 00 00 00	 call	 ?End@CDragonEvent@@QAEXXZ ; CDragonEvent::End
$LN1@Run:

; 158  : 		}
; 159  : 	}	
; 160  : }

  000b1	5f		 pop	 edi
  000b2	5e		 pop	 esi
  000b3	5b		 pop	 ebx
  000b4	8b e5		 mov	 esp, ebp
  000b6	5d		 pop	 ebp
  000b7	c3		 ret	 0
?Run@CDragonEvent@@QAEXXZ ENDP				; CDragonEvent::Run
_TEXT	ENDS
; Function compile flags: /Odtp /ZI
; File C:\Mu Online\Mu-GS-Webzen-MC-10093\GameServer\DragonEvent.cpp
;	COMDAT ?End@CDragonEvent@@QAEXXZ
_TEXT	SEGMENT
_this$ = -4						; size = 4
?End@CDragonEvent@@QAEXXZ PROC				; CDragonEvent::End, COMDAT
; _this$ = ecx

; 83   : {

  00000	55		 push	 ebp
  00001	8b ec		 mov	 ebp, esp
  00003	83 ec 44	 sub	 esp, 68			; 00000044H
  00006	53		 push	 ebx
  00007	56		 push	 esi
  00008	57		 push	 edi
  00009	89 4d fc	 mov	 DWORD PTR _this$[ebp], ecx

; 84   : 	GCMapEventStateSend(m_MapNumber, 0, 1);

  0000c	6a 01		 push	 1
  0000e	6a 00		 push	 0
  00010	8b 45 fc	 mov	 eax, DWORD PTR _this$[ebp]
  00013	0f b6 48 0c	 movzx	 ecx, BYTE PTR [eax+12]
  00017	51		 push	 ecx
  00018	e8 00 00 00 00	 call	 ?GCMapEventStateSend@@YAXHEE@Z ; GCMapEventStateSend
  0001d	83 c4 0c	 add	 esp, 12			; 0000000cH

; 85   : 	LogAdd("Event 1 End");

  00020	68 00 00 00 00	 push	 OFFSET ??_C@_0M@JPEAEJLO@Event?51?5End@
  00025	ff 15 00 00 00
	00		 call	 DWORD PTR ?LogAdd@@3P6AXPADZZA ; LogAdd
  0002b	83 c4 04	 add	 esp, 4

; 86   : 	EventState = 0;

  0002e	8b 45 fc	 mov	 eax, DWORD PTR _this$[ebp]
  00031	c6 40 04 00	 mov	 BYTE PTR [eax+4], 0

; 87   : }

  00035	5f		 pop	 edi
  00036	5e		 pop	 esi
  00037	5b		 pop	 ebx
  00038	8b e5		 mov	 esp, ebp
  0003a	5d		 pop	 ebp
  0003b	c3		 ret	 0
?End@CDragonEvent@@QAEXXZ ENDP				; CDragonEvent::End
_TEXT	ENDS
; Function compile flags: /Odtp /ZI
; File C:\Mu Online\Mu-GS-Webzen-MC-10093\GameServer\DragonEvent.cpp
;	COMDAT ?Start@CDragonEvent@@QAEXXZ
_TEXT	SEGMENT
tv78 = -336						; size = 4
_map$ = -268						; size = 3
_szTemp$ = -264						; size = 256
_this$ = -8						; size = 4
__$ArrayPad$ = -4					; size = 4
?Start@CDragonEvent@@QAEXXZ PROC			; CDragonEvent::Start, COMDAT
; _this$ = ecx

; 41   : {	

  00000	55		 push	 ebp
  00001	8b ec		 mov	 ebp, esp
  00003	81 ec 50 01 00
	00		 sub	 esp, 336		; 00000150H
  00009	a1 00 00 00 00	 mov	 eax, DWORD PTR ___security_cookie
  0000e	33 c5		 xor	 eax, ebp
  00010	89 45 fc	 mov	 DWORD PTR __$ArrayPad$[ebp], eax
  00013	53		 push	 ebx
  00014	56		 push	 esi
  00015	57		 push	 edi
  00016	89 4d f8	 mov	 DWORD PTR _this$[ebp], ecx

; 42   : 	if( EventState ) return;

  00019	8b 45 f8	 mov	 eax, DWORD PTR _this$[ebp]
  0001c	0f b6 48 04	 movzx	 ecx, BYTE PTR [eax+4]
  00020	85 c9		 test	 ecx, ecx
  00022	74 05		 je	 SHORT $LN4@Start
  00024	e9 2e 01 00 00	 jmp	 $LN1@Start
$LN4@Start:

; 43   : 	Init();

  00029	8b 4d f8	 mov	 ecx, DWORD PTR _this$[ebp]
  0002c	e8 00 00 00 00	 call	 ?Init@CDragonEvent@@QAEXXZ ; CDragonEvent::Init

; 44   : 
; 45   : 	char szTemp[256];	
; 46   : 	EventState = 1;

  00031	8b 45 f8	 mov	 eax, DWORD PTR _this$[ebp]
  00034	c6 40 04 01	 mov	 BYTE PTR [eax+4], 1

; 47   : #ifdef ADD_GOLDEN_EVENT_RENEWAL_20090311
; 48   : 	char map[2]={MAP_INDEX_NORIA, MAP_INDEX_RORENCIA};
; 49   : 	m_MapNumber = map[rand()%2];
; 50   : #else
; 51   : 	char map[3]={0, 2, 3};

  00038	c6 85 f4 fe ff
	ff 00		 mov	 BYTE PTR _map$[ebp], 0
  0003f	c6 85 f5 fe ff
	ff 02		 mov	 BYTE PTR _map$[ebp+1], 2
  00046	c6 85 f6 fe ff
	ff 03		 mov	 BYTE PTR _map$[ebp+2], 3

; 52   : 	m_MapNumber = map[rand()%3];

  0004d	e8 00 00 00 00	 call	 _rand
  00052	99		 cdq
  00053	b9 03 00 00 00	 mov	 ecx, 3
  00058	f7 f9		 idiv	 ecx
  0005a	8b 45 f8	 mov	 eax, DWORD PTR _this$[ebp]
  0005d	8a 8c 15 f4 fe
	ff ff		 mov	 cl, BYTE PTR _map$[ebp+edx]
  00064	88 48 0c	 mov	 BYTE PTR [eax+12], cl

; 53   : #endif
; 54   : 	
; 55   : 	strcpy(szTemp, "☆ ");

  00067	68 00 00 00 00	 push	 OFFSET ??_C@_03DMLAHEJO@?$KB?Y?5@
  0006c	8d 85 f8 fe ff
	ff		 lea	 eax, DWORD PTR _szTemp$[ebp]
  00072	50		 push	 eax
  00073	e8 00 00 00 00	 call	 _strcpy
  00078	83 c4 08	 add	 esp, 8

; 56   : 
; 57   : 	
; 58   : 	/*switch( m_MapNumber )
; 59   : 	{
; 60   : 	case 0 : strcat(szTemp, "로랜시아에 "); break;
; 61   : 	case 2 : strcat(szTemp, "데비아스에 "); break;
; 62   : 	case 3 : strcat(szTemp, "노리아에 "); break;
; 63   : 	}
; 64   : 	strcat(szTemp, "드래곤 습격 ☆");
; 65   : 	*/
; 66   : 	switch( m_MapNumber )

  0007b	8b 45 f8	 mov	 eax, DWORD PTR _this$[ebp]
  0007e	8a 48 0c	 mov	 cl, BYTE PTR [eax+12]
  00081	88 8d b0 fe ff
	ff		 mov	 BYTE PTR tv78[ebp], cl
  00087	80 bd b0 fe ff
	ff 00		 cmp	 BYTE PTR tv78[ebp], 0
  0008e	74 14		 je	 SHORT $LN5@Start
  00090	80 bd b0 fe ff
	ff 02		 cmp	 BYTE PTR tv78[ebp], 2
  00097	74 2d		 je	 SHORT $LN6@Start
  00099	80 bd b0 fe ff
	ff 03		 cmp	 BYTE PTR tv78[ebp], 3
  000a0	74 46		 je	 SHORT $LN7@Start
  000a2	eb 64		 jmp	 SHORT $LN2@Start
$LN5@Start:

; 67   : 	{
; 68   : 	case 0 : strcat(szTemp, lMsg.Get(2000)); break;

  000a4	68 d0 07 00 00	 push	 2000			; 000007d0H
  000a9	b9 00 00 00 00	 mov	 ecx, OFFSET ?lMsg@@3VCMsg@@A ; lMsg
  000ae	ff 15 00 00 00
	00		 call	 DWORD PTR __imp_?Get@CMsg@@QAEPADH@Z
  000b4	50		 push	 eax
  000b5	8d 85 f8 fe ff
	ff		 lea	 eax, DWORD PTR _szTemp$[ebp]
  000bb	50		 push	 eax
  000bc	e8 00 00 00 00	 call	 _strcat
  000c1	83 c4 08	 add	 esp, 8
  000c4	eb 42		 jmp	 SHORT $LN2@Start
$LN6@Start:

; 69   : 	case 2 : strcat(szTemp, lMsg.Get(2002)); break;

  000c6	68 d2 07 00 00	 push	 2002			; 000007d2H
  000cb	b9 00 00 00 00	 mov	 ecx, OFFSET ?lMsg@@3VCMsg@@A ; lMsg
  000d0	ff 15 00 00 00
	00		 call	 DWORD PTR __imp_?Get@CMsg@@QAEPADH@Z
  000d6	50		 push	 eax
  000d7	8d 85 f8 fe ff
	ff		 lea	 eax, DWORD PTR _szTemp$[ebp]
  000dd	50		 push	 eax
  000de	e8 00 00 00 00	 call	 _strcat
  000e3	83 c4 08	 add	 esp, 8
  000e6	eb 20		 jmp	 SHORT $LN2@Start
$LN7@Start:

; 70   : 	case 3 : strcat(szTemp, lMsg.Get(2003)); break;

  000e8	68 d3 07 00 00	 push	 2003			; 000007d3H
  000ed	b9 00 00 00 00	 mov	 ecx, OFFSET ?lMsg@@3VCMsg@@A ; lMsg
  000f2	ff 15 00 00 00
	00		 call	 DWORD PTR __imp_?Get@CMsg@@QAEPADH@Z
  000f8	50		 push	 eax
  000f9	8d 85 f8 fe ff
	ff		 lea	 eax, DWORD PTR _szTemp$[ebp]
  000ff	50		 push	 eax
  00100	e8 00 00 00 00	 call	 _strcat
  00105	83 c4 08	 add	 esp, 8
$LN2@Start:

; 71   : 	}
; 72   : 	strcat(szTemp, lMsg.Get(1156));

  00108	68 84 04 00 00	 push	 1156			; 00000484H
  0010d	b9 00 00 00 00	 mov	 ecx, OFFSET ?lMsg@@3VCMsg@@A ; lMsg
  00112	ff 15 00 00 00
	00		 call	 DWORD PTR __imp_?Get@CMsg@@QAEPADH@Z
  00118	50		 push	 eax
  00119	8d 85 f8 fe ff
	ff		 lea	 eax, DWORD PTR _szTemp$[ebp]
  0011f	50		 push	 eax
  00120	e8 00 00 00 00	 call	 _strcat
  00125	83 c4 08	 add	 esp, 8

; 73   : 	strcat(szTemp, " ☆");

  00128	68 00 00 00 00	 push	 OFFSET ??_C@_03PGMJMGNM@?5?$KB?Y@
  0012d	8d 85 f8 fe ff
	ff		 lea	 eax, DWORD PTR _szTemp$[ebp]
  00133	50		 push	 eax
  00134	e8 00 00 00 00	 call	 _strcat
  00139	83 c4 08	 add	 esp, 8

; 74   : #ifdef FOR_JAPAN	// 일본에는 드래곤 습격 시 양쪽에 ☆ 표시가 깨져서 보임 (2004.10.19)
; 75   : 	AllSendServerMsg(lMsg.Get(1156));
; 76   : #else
; 77   : 	AllSendServerMsg(szTemp);

  0013c	8d 85 f8 fe ff
	ff		 lea	 eax, DWORD PTR _szTemp$[ebp]
  00142	50		 push	 eax
  00143	e8 00 00 00 00	 call	 ?AllSendServerMsg@@YAXPAD@Z ; AllSendServerMsg
  00148	83 c4 04	 add	 esp, 4

; 78   : #endif	
; 79   : 	EventStartTime = GetTickCount();

  0014b	ff 15 00 00 00
	00		 call	 DWORD PTR __imp__GetTickCount@0
  00151	8b 4d f8	 mov	 ecx, DWORD PTR _this$[ebp]
  00154	89 41 08	 mov	 DWORD PTR [ecx+8], eax
$LN1@Start:

; 80   : }

  00157	5f		 pop	 edi
  00158	5e		 pop	 esi
  00159	5b		 pop	 ebx
  0015a	8b 4d fc	 mov	 ecx, DWORD PTR __$ArrayPad$[ebp]
  0015d	33 cd		 xor	 ecx, ebp
  0015f	e8 00 00 00 00	 call	 @__security_check_cookie@4
  00164	8b e5		 mov	 esp, ebp
  00166	5d		 pop	 ebp
  00167	c3		 ret	 0
?Start@CDragonEvent@@QAEXXZ ENDP			; CDragonEvent::Start
_TEXT	ENDS
; Function compile flags: /Odtp /ZI
; File C:\Mu Online\Mu-GS-Webzen-MC-10093\GameServer\DragonEvent.cpp
;	COMDAT ?Init@CDragonEvent@@QAEXXZ
_TEXT	SEGMENT
_this$ = -4						; size = 4
?Init@CDragonEvent@@QAEXXZ PROC				; CDragonEvent::Init, COMDAT
; _this$ = ecx

; 29   : {

  00000	55		 push	 ebp
  00001	8b ec		 mov	 ebp, esp
  00003	83 ec 44	 sub	 esp, 68			; 00000044H
  00006	53		 push	 ebx
  00007	56		 push	 esi
  00008	57		 push	 edi
  00009	89 4d fc	 mov	 DWORD PTR _this$[ebp], ecx

; 30   : 	EventState = 0;

  0000c	8b 45 fc	 mov	 eax, DWORD PTR _this$[ebp]
  0000f	c6 40 04 00	 mov	 BYTE PTR [eax+4], 0

; 31   : 	EventStartTime = 0;

  00013	8b 45 fc	 mov	 eax, DWORD PTR _this$[ebp]
  00016	c7 40 08 00 00
	00 00		 mov	 DWORD PTR [eax+8], 0

; 32   : 	m_MapNumber	= 0;

  0001d	8b 45 fc	 mov	 eax, DWORD PTR _this$[ebp]
  00020	c6 40 0c 00	 mov	 BYTE PTR [eax+12], 0

; 33   : 
; 34   : #ifdef EVENT_MANAGEMENT_20040711
; 35   : 	m_bMenualStart	 = FALSE;

  00024	8b 45 fc	 mov	 eax, DWORD PTR _this$[ebp]
  00027	c7 40 10 00 00
	00 00		 mov	 DWORD PTR [eax+16], 0

; 36   : #endif
; 37   : 	
; 38   : }

  0002e	5f		 pop	 edi
  0002f	5e		 pop	 esi
  00030	5b		 pop	 ebx
  00031	8b e5		 mov	 esp, ebp
  00033	5d		 pop	 ebp
  00034	c3		 ret	 0
?Init@CDragonEvent@@QAEXXZ ENDP				; CDragonEvent::Init
_TEXT	ENDS
; Function compile flags: /Odtp /ZI
; File C:\Mu Online\Mu-GS-Webzen-MC-10093\GameServer\DragonEvent.cpp
;	COMDAT ??1CDragonEvent@@UAE@XZ
_TEXT	SEGMENT
_this$ = -4						; size = 4
??1CDragonEvent@@UAE@XZ PROC				; CDragonEvent::~CDragonEvent, COMDAT
; _this$ = ecx

; 25   : {

  00000	55		 push	 ebp
  00001	8b ec		 mov	 ebp, esp
  00003	83 ec 44	 sub	 esp, 68			; 00000044H
  00006	53		 push	 ebx
  00007	56		 push	 esi
  00008	57		 push	 edi
  00009	89 4d fc	 mov	 DWORD PTR _this$[ebp], ecx
  0000c	8b 45 fc	 mov	 eax, DWORD PTR _this$[ebp]
  0000f	c7 00 00 00 00
	00		 mov	 DWORD PTR [eax], OFFSET ??_7CDragonEvent@@6B@

; 26   : }

  00015	5f		 pop	 edi
  00016	5e		 pop	 esi
  00017	5b		 pop	 ebx
  00018	8b e5		 mov	 esp, ebp
  0001a	5d		 pop	 ebp
  0001b	c3		 ret	 0
??1CDragonEvent@@UAE@XZ ENDP				; CDragonEvent::~CDragonEvent
_TEXT	ENDS
; Function compile flags: /Odtp /ZI
; File C:\Mu Online\Mu-GS-Webzen-MC-10093\GameServer\DragonEvent.cpp
;	COMDAT ??0CDragonEvent@@QAE@XZ
_TEXT	SEGMENT
_this$ = -4						; size = 4
??0CDragonEvent@@QAE@XZ PROC				; CDragonEvent::CDragonEvent, COMDAT
; _this$ = ecx

; 20   : {

  00000	55		 push	 ebp
  00001	8b ec		 mov	 ebp, esp
  00003	83 ec 44	 sub	 esp, 68			; 00000044H
  00006	53		 push	 ebx
  00007	56		 push	 esi
  00008	57		 push	 edi
  00009	89 4d fc	 mov	 DWORD PTR _this$[ebp], ecx
  0000c	8b 45 fc	 mov	 eax, DWORD PTR _this$[ebp]
  0000f	c7 00 00 00 00
	00		 mov	 DWORD PTR [eax], OFFSET ??_7CDragonEvent@@6B@

; 21   : 	Init();

  00015	8b 4d fc	 mov	 ecx, DWORD PTR _this$[ebp]
  00018	e8 00 00 00 00	 call	 ?Init@CDragonEvent@@QAEXXZ ; CDragonEvent::Init

; 22   : }

  0001d	8b 45 fc	 mov	 eax, DWORD PTR _this$[ebp]
  00020	5f		 pop	 edi
  00021	5e		 pop	 esi
  00022	5b		 pop	 ebx
  00023	8b e5		 mov	 esp, ebp
  00025	5d		 pop	 ebp
  00026	c3		 ret	 0
??0CDragonEvent@@QAE@XZ ENDP				; CDragonEvent::CDragonEvent
_TEXT	ENDS
; Function compile flags: /Odtp /ZI
; File C:\Mu Online\Mu-GS-Webzen-MC-10093\GameServer\DragonEvent.cpp
;	COMDAT ?__empty_global_delete@@YAXPAXI@Z
_TEXT	SEGMENT
___formal$ = 8						; size = 4
___formal$ = 12						; size = 4
?__empty_global_delete@@YAXPAXI@Z PROC			; __empty_global_delete, COMDAT

  00000	55		 push	 ebp
  00001	8b ec		 mov	 ebp, esp
  00003	83 ec 40	 sub	 esp, 64			; 00000040H
  00006	53		 push	 ebx
  00007	56		 push	 esi
  00008	57		 push	 edi
  00009	5f		 pop	 edi
  0000a	5e		 pop	 esi
  0000b	5b		 pop	 ebx
  0000c	8b e5		 mov	 esp, ebp
  0000e	5d		 pop	 ebp
  0000f	c3		 ret	 0
?__empty_global_delete@@YAXPAXI@Z ENDP			; __empty_global_delete
_TEXT	ENDS
; Function compile flags: /Odtp /ZI
; File C:\Mu Online\Mu-GS-Webzen-MC-10093\GameServer\DragonEvent.cpp
;	COMDAT ?__empty_global_delete@@YAXPAX@Z
_TEXT	SEGMENT
___formal$ = 8						; size = 4
?__empty_global_delete@@YAXPAX@Z PROC			; __empty_global_delete, COMDAT

  00000	55		 push	 ebp
  00001	8b ec		 mov	 ebp, esp
  00003	83 ec 40	 sub	 esp, 64			; 00000040H
  00006	53		 push	 ebx
  00007	56		 push	 esi
  00008	57		 push	 edi
  00009	5f		 pop	 edi
  0000a	5e		 pop	 esi
  0000b	5b		 pop	 ebx
  0000c	8b e5		 mov	 esp, ebp
  0000e	5d		 pop	 ebp
  0000f	c3		 ret	 0
?__empty_global_delete@@YAXPAX@Z ENDP			; __empty_global_delete
_TEXT	ENDS
END
