; Listing generated by Microsoft (R) Optimizing Compiler Version 19.27.29111.0 

	TITLE	C:\Mu Online\Mu-GS-Webzen-MC-10093\GameServer\DSProtocol.cpp
	.686P
	.XMM
	include listing.inc
	.model	flat

INCLUDELIB LIBCMT
INCLUDELIB OLDNAMES

PUBLIC	?iCount@@3HA					; iCount
_BSS	SEGMENT
?iCount@@3HA DD	01H DUP (?)				; iCount
_BSS	ENDS
PUBLIC	?__empty_global_delete@@YAXPAX@Z		; __empty_global_delete
PUBLIC	?__empty_global_delete@@YAXPAXI@Z		; __empty_global_delete
PUBLIC	?set@PWMSG_HEAD@@QAEXPAEEH@Z			; PWMSG_HEAD::set
PUBLIC	?Size@CTerrainManager@@QAE?BHXZ			; CTerrainManager::Size
PUBLIC	?DataServerProtocolCore@@YAXEPAEH@Z		; DataServerProtocolCore
PUBLIC	?DataServerLogin@@YAXH@Z			; DataServerLogin
PUBLIC	?DataServerGetCharListRequest@@YAXF@Z		; DataServerGetCharListRequest
PUBLIC	?GDGameServerInfoSave@@YAXXZ			; GDGameServerInfoSave
PUBLIC	?GJSetCharacterInfo@@YAXPAVOBJECTSTRUCT@@HH@Z	; GJSetCharacterInfo
PUBLIC	?GDUserItemSave@@YAXPAVOBJECTSTRUCT@@@Z		; GDUserItemSave
PUBLIC	?JGCharacterCreateFailSend@@YAXHPAD@Z		; JGCharacterCreateFailSend
PUBLIC	?ItemSerialCreateSend@@YAXHEEEHEEEEEHEEH@Z	; ItemSerialCreateSend
PUBLIC	?PetItemSerialCreateSend@@YAXHEEEHEEEEEHEE@Z	; PetItemSerialCreateSend
PUBLIC	?ItemMovePathSave@@YAXPAD0EEEE0EEEK@Z		; ItemMovePathSave
PUBLIC	?GDGetWarehouseList@@YAXHPAD@Z			; GDGetWarehouseList
PUBLIC	?GDSetWarehouseList@@YAXH@Z			; GDSetWarehouseList
PUBLIC	?GDSetWarehouseMoney@@YAXH@Z			; GDSetWarehouseMoney
PUBLIC	?DGOptionDataSend@@YAXHPADPAEEEEEE@Z		; DGOptionDataSend
PUBLIC	?gObjRequestPetItemInfo@@YAXHH@Z		; gObjRequestPetItemInfo
PUBLIC	?gObjSavePetItemInfo@@YAXHH@Z			; gObjSavePetItemInfo
PUBLIC	?GCItemListSend@@YAXH@Z				; GCItemListSend
PUBLIC	?JGPGetCharList@@YAXPAE@Z			; JGPGetCharList
PUBLIC	?JGCharacterCreateRequest@@YAXPAUSDHP_CREATECHARRESULT@@@Z ; JGCharacterCreateRequest
PUBLIC	?JGCharDelRequest@@YAXPAUSDHP_CHARDELETERESULT@@@Z ; JGCharDelRequest
PUBLIC	?JGGetCharacterInfo@@YAXPAUSDHP_DBCHAR_INFORESULT@@@Z ; JGGetCharacterInfo
PUBLIC	?DataServerLoginResult@@YAXPAUSDHP_RESULT@@@Z	; DataServerLoginResult
PUBLIC	?TestDSSend@@YAXXZ				; TestDSSend
PUBLIC	?ItemSerialCreateRecv@@YAXPAUSDHP_ITEMCREATERECV@@@Z ; ItemSerialCreateRecv
PUBLIC	?DGGetWarehouseList@@YAXPAUSDHP_GETWAREHOUSEDB_SAVE@@@Z ; DGGetWarehouseList
PUBLIC	?GDGetWarehouseNoItem@@YAXPAUSDHP_GETWAREHOUSEDB_RESULT@@@Z ; GDGetWarehouseNoItem
PUBLIC	?DGOptionDataRecv@@YAXPAUSDHP_SKILLKEYDATA_SEND@@@Z ; DGOptionDataRecv
PUBLIC	?DGMoveOtherServer@@YAXPAUSDHP_CHARACTER_TRANSFER_RESULT@@@Z ; DGMoveOtherServer
PUBLIC	?DGRecvPetItemInfo@@YAXPAE@Z			; DGRecvPetItemInfo
PUBLIC	??_C@_02DPKJAMEF@?$CFd@				; `string'
PUBLIC	??_C@_0CC@MBCBAID@error?9L2DataServer?5RECV?5?3?5?$CFd?5?$CI?$CF@ ; `string'
PUBLIC	??_C@_02DKCKIIND@?$CFs@				; `string'
PUBLIC	??_C@_0P@GMPEKMII@Test?5Data?5Send@		; `string'
PUBLIC	??_C@_0DB@KDJHGNDI@?0?5?$FLD?9?$DOG?5Recv?5GetCharList?$FN?0?5Acco@ ; `string'
PUBLIC	?__LINE__Var@?0??DataServerGetCharListRequest@@YAXF@Z@4JA ; `DataServerGetCharListRequest'::`1'::__LINE__Var
PUBLIC	??_C@_0DN@MBPEHAPP@C?3?2Mu?5Online?2Mu?9GS?9Webzen?9MC?910@ ; `string'
PUBLIC	??_C@_0DB@LJIPDNBN@?0?5?$FLG?9?$DOD?5Req?5GetCharList?$FN?0?5Accou@ ; `string'
PUBLIC	?__LINE__Var@?0??JGGetCharacterInfo@@YAXPAUSDHP_DBCHAR_INFORESULT@@@Z@4JA ; `JGGetCharacterInfo'::`1'::__LINE__Var
PUBLIC	??_C@_0CL@ECFCLMFK@error?9L1?5?3?5Load?5Block?5Character@ ; `string'
PUBLIC	??_C@_0FE@JOJGEKKO@?$FLAnti?9HACK?$FN?$FLJGGetCharacterInfo?$FN@ ; `string'
PUBLIC	??_C@_0CG@BPCBIHIK@?$KB?Z?$KB?Y?5ZEN?5MODIFY?5?$KB?Y?$KB?Z?5?$FL?$CFs?$FN?$FL?$CFs?$FN?5?$CF@ ; `string'
PUBLIC	??_C@_0EE@HOADODHJ@?0?5?$FLD?9?$DOG?5Recv?5MapJoin?$FN?5CharSelec@ ; `string'
PUBLIC	??_C@_0DG@DAPPAGFG@?0?5?$FLG?9?$DOD?5Req?5GetWarehouseList?$FN?0?5@ ; `string'
PUBLIC	??_C@_0DH@CCJJLLEJ@?0?5?$FLG?9?$DOC?5Recv?5GetWarehouseList?$FN?0@ ; `string'
PUBLIC	??_C@_0CI@MIGOHDHJ@?$FL?$CFs?$FN?$FL?$CFs?$FN?5WareHouse?5Save?5Fail?5?3?5@ ; `string'
PUBLIC	??_C@_0BP@KBPACLIK@?$FLERROR?$FN?5Item?5doesn?8t?5exists?5?$CFd@ ; `string'
PUBLIC	??_C@_0GG@PDKAJKAJ@Monster?5Item?5Drop?5Request?5?$FL?$CFs?$FN?5@ ; `string'
PUBLIC	?__LINE__Var@?0??ItemSerialCreateRecv@@YAXPAUSDHP_ITEMCREATERECV@@@Z@4JA ; `ItemSerialCreateRecv'::`1'::__LINE__Var
PUBLIC	??_C@_0BC@OFCHNMFP@error?9L3?5?$FL?$CFs?$FN?$FL?$CFd?$FN@ ; `string'
PUBLIC	??_C@_0FF@NJPANPON@?$FL?$CFs?$FN?$FL?$CFs?$FN?5Special?5Shop?5Item?3?$CFs?5?$FL@ ; `string'
PUBLIC	??_C@_0CD@JBKACADO@error?9L2?3?5DarkTrainerBox?5not?5us@ ; `string'
PUBLIC	??_C@_0BN@BDLDNMBN@error?9L2?3?5ChaosBox?5not?5used?4@ ; `string'
PUBLIC	??_C@_0GA@EHKFCGJE@?$FL?$CFs?$FN?$FL?$CFs?$FN?5CBMix?5Item?5Create?5Item@ ; `string'
PUBLIC	??_C@_0EO@DCIKCPFD@?$FLMu_2Anv_Event?$FN?5Error?5?3?5Failed?5@ ; `string'
PUBLIC	??_C@_0EP@FICGMJHI@?$FLPickupSystem?$FN?5Error?5?3?5Failed?5T@ ; `string'
PUBLIC	??_C@_0BO@CNHMPMBL@?$FLPickUp?5System?$FN?5?3?5?$CFs?5Obtained@ ; `string'
PUBLIC	??_C@_0GD@LMECKDPM@Monster?5Item?5Drop?5?$FL?$CFd?$FN?$FL?$CFd?$FN?$FL?$CFd?$FN?5@ ; `string'
PUBLIC	??_C@_0CE@HMMPKDMJ@?$CFd?7?$CFd?7?$CFd?7?$CFd?7?$CFd?7?$CFd?7?$CFd?7?$CFd?7?$CFd?7?$CFd?7?$CF@ ; `string'
PUBLIC	?__LINE__Var@?0??DGMoveOtherServer@@YAXPAUSDHP_CHARACTER_TRANSFER_RESULT@@@Z@4JA ; `DGMoveOtherServer'::`1'::__LINE__Var
PUBLIC	??_C@_0CB@DOBLFOAF@?$FLCharTrasfer?$FN?5Fail?5?$FL?$CFs?$FN?$FL?$CFs?$FN?5?$CI?$CFd@ ; `string'
PUBLIC	??_C@_0DI@PPPCGFPL@?$LJ?$KO?A?$KG?5?$LJ?$NP?$LL?$PN?$LN?C?5change?$EAwebzen?4co?4kr@ ; `string'
PUBLIC	??_C@_0CE@IPHEEDFH@?$FLCharTrasfer?$FN?5Success?5?$FL?$CFs?$FN?$FL?$CFs?$FN?5@ ; `string'
PUBLIC	??_C@_0BD@IBAEEAEE@?A?$KC?$LM?S?$MA?L?5?A?$LO?$LH?a?$LF?K?$LE?O?$LE?Y?4@ ; `string'
PUBLIC	??_C@_0CD@HNLEMMHH@?$LK?P?G?R?5?$LM?$KN?$LJ?v?$LH?N?5?A?$KC?$LM?S?G?X?A?V?$LN?C?$LB?b?5?$LJ?Y?$LG?x?$LE?O@ ; `string'
PUBLIC	??_C@_0EA@PICKNLKN@Request?5to?5receive?5petitem?5info@ ; `string'
PUBLIC	??_C@_0CP@HBHBBGIF@?$FL?$CFs?$FN?$FL?$CFs?$FN?$FLPI?$FN?$FL?$CFd?0?$CFs?$FNserial?3?$FL?$CFd?$FN?5@ ; `string'
PUBLIC	??_C@_0CP@HLCJJJIG@?$FL?$CFs?$FN?$FL?$CFs?$FN?$FLPW?$FN?$FL?$CFd?0?$CFs?$FNserial?3?$FL?$CFd?$FN?5@ ; `string'
PUBLIC	__real@00000000
PUBLIC	__real@3f800000
PUBLIC	__real@41200000
EXTRN	___report_rangecheckfailure:PROC
EXTRN	_memcpy:PROC
EXTRN	_memset:PROC
EXTRN	_strcmp:PROC
EXTRN	_strcpy:PROC
EXTRN	_strlen:PROC
EXTRN	_strncmp:PROC
EXTRN	__imp__GetTickCount@0:PROC
EXTRN	__imp__wsprintfA:PROC
EXTRN	__imp__SendMessageA@16:PROC
EXTRN	__time64:PROC
EXTRN	?MsgBox@@YAXPADZZ:PROC				; MsgBox
EXTRN	__imp_?Get@CMsg@@QAEPADH@Z:PROC
EXTRN	??0CItem@@QAE@XZ:PROC				; CItem::CItem
EXTRN	?Convert@CItem@@QAEXHEEEEEE@Z:PROC		; CItem::Convert
EXTRN	?Clear@CItem@@QAEXXZ:PROC			; CItem::Clear
EXTRN	?IsItem@CItem@@QAEHXZ:PROC			; CItem::IsItem
EXTRN	?SetPetItemInfo@CItem@@QAEXHH@Z:PROC		; CItem::SetPetItemInfo
EXTRN	?GetName@CItem@@QAEPADXZ:PROC			; CItem::GetName
EXTRN	?ItemByteConvert10@@YAXPAEQAVCItem@@H@Z:PROC	; ItemByteConvert10
EXTRN	?ItemByteConvert@@YAXPAEVCItem@@@Z:PROC		; ItemByteConvert
EXTRN	?IsItem@@YAHH@Z:PROC				; IsItem
EXTRN	?ItemGetDurability@@YAHHHHH@Z:PROC		; ItemGetDurability
EXTRN	?MagicByteConvert@@YAXPAEQAVCMagicInf@@H@Z:PROC	; MagicByteConvert
EXTRN	?CloseClient@@YAXH@Z:PROC			; CloseClient
EXTRN	?DataSend@@YAHHPAEK@Z:PROC			; DataSend
EXTRN	?gObjGetAccountId@@YAPADH@Z:PROC		; gObjGetAccountId
EXTRN	?gObjIsConnectedGP@@YAHH@Z:PROC			; gObjIsConnectedGP
EXTRN	?gObjIsAccontConnect@@YAHHPAD@Z:PROC		; gObjIsAccontConnect
EXTRN	?gObjSetCharacter@@YAHPAEH@Z:PROC		; gObjSetCharacter
EXTRN	?LevelSmallConvert@@YAEH@Z:PROC			; LevelSmallConvert
EXTRN	?gObjInventoryInsertItem@@YAEHVCItem@@@Z:PROC	; gObjInventoryInsertItem
EXTRN	?gObjInventoryInsertItem@@YAEPAVOBJECTSTRUCT@@HHHHH@Z:PROC ; gObjInventoryInsertItem
EXTRN	?gObjInventoryDeleteItem@@YAEHH@Z:PROC		; gObjInventoryDeleteItem
EXTRN	?gObjCloseSet@@YAXHH@Z:PROC			; gObjCloseSet
EXTRN	?gObjStatTextSave@@YAXPAVOBJECTSTRUCT@@@Z:PROC	; gObjStatTextSave
EXTRN	?gObjItemTextSave@@YAXPAVOBJECTSTRUCT@@@Z:PROC	; gObjItemTextSave
EXTRN	?gObjWarehouseTextSave@@YAXPAVOBJECTSTRUCT@@@Z:PROC ; gObjWarehouseTextSave
EXTRN	?gObjWarehouseInsertItemPos@@YAEHVCItem@@HH@Z:PROC ; gObjWarehouseInsertItemPos
EXTRN	?gObjWarehouseItemSet@@YAXHHE@Z:PROC		; gObjWarehouseItemSet
EXTRN	?gObjChaosBoxInsertItemPos@@YAEHVCItem@@HH@Z:PROC ; gObjChaosBoxInsertItemPos
EXTRN	?gObjChaosItemSet@@YAXHHE@Z:PROC		; gObjChaosItemSet
EXTRN	?ItemIsBufExOption@@YAXPAEPAVCItem@@@Z:PROC	; ItemIsBufExOption
EXTRN	?gObjGetStatPointState@@YAXHAAF0@Z:PROC		; gObjGetStatPointState
EXTRN	?MsgOutput@@YAXHPADZZ:PROC			; MsgOutput
EXTRN	?GCServerMsgStringSend@@YAXPADHE@Z:PROC		; GCServerMsgStringSend
EXTRN	?GCMagicListMultiSend@@YAXPAVOBJECTSTRUCT@@@Z:PROC ; GCMagicListMultiSend
EXTRN	?GCInventoryItemOneSend@@YAXHH@Z:PROC		; GCInventoryItemOneSend
EXTRN	?GCInventoryItemDeleteSend@@YAXHEE@Z:PROC	; GCInventoryItemDeleteSend
EXTRN	?GCUserWarehouseSend@@YAXPAVOBJECTSTRUCT@@@Z:PROC ; GCUserWarehouseSend
EXTRN	?GCSkillKeySend@@YAXHPAEEEEEE@Z:PROC		; GCSkillKeySend
EXTRN	?PHeadSetB@@YAXPAEEH@Z:PROC			; PHeadSetB
EXTRN	?GCWarehouseStateSend@@YAXHE@Z:PROC		; GCWarehouseStateSend
EXTRN	?CGRequestQuestInfo@@YAXH@Z:PROC		; CGRequestQuestInfo
EXTRN	?MakeNoticeMsg@TNotice@@SAXPAXEPAD@Z:PROC	; TNotice::MakeNoticeMsg
EXTRN	?DBGetResetInfo@CResetSystem@@QAEXPAVOBJECTSTRUCT@@@Z:PROC ; CResetSystem::DBGetResetInfo
EXTRN	?DBLoadReset@CResetSystem@@QAEXPAE@Z:PROC	; CResetSystem::DBLoadReset
EXTRN	?DBAnsUpdateReset@CResetSystem@@QAEXPAE@Z:PROC	; CResetSystem::DBAnsUpdateReset
EXTRN	?MakeItemNumber@@YAHHH@Z:PROC			; MakeItemNumber
EXTRN	?MonsterItemDrop@MapClass@@QAEHHHMHHEEEEEHK@Z:PROC ; MapClass::MonsterItemDrop
EXTRN	?Send@DBSockMng@@QAEHPADH@Z:PROC		; DBSockMng::Send
EXTRN	?Send@DBSockMng@@QAEHHPADH@Z:PROC		; DBSockMng::Send
EXTRN	?PickUpActive@CPickUpSystem@@QAEHHH@Z:PROC	; CPickUpSystem::PickUpActive
EXTRN	?ChaosBoxInit@CMixSystem@@QAEHPAVOBJECTSTRUCT@@@Z:PROC ; CMixSystem::ChaosBoxInit
EXTRN	?gObjCalCharacter@@YAXH@Z:PROC			; gObjCalCharacter
EXTRN	?FriendListRequest@@YAXH@Z:PROC			; FriendListRequest
EXTRN	?DGGuildMemberInfoRequest@@YAXH@Z:PROC		; DGGuildMemberInfoRequest
EXTRN	?QuestInfoSave@CQuestInfo@@QAEXPAVOBJECTSTRUCT@@@Z:PROC ; CQuestInfo::QuestInfoSave
EXTRN	?gObjWarehouseDeleteItem@@YAEHH@Z:PROC		; gObjWarehouseDeleteItem
EXTRN	@__security_check_cookie@4:PROC
EXTRN	?LogAdd@@3P6AXPADZZA:DWORD			; LogAdd
EXTRN	?LogAddC@@3P6AXEPADZZA:DWORD			; LogAddC
EXTRN	?LogAddTD@@3P6AXPADZZA:DWORD			; LogAddTD
EXTRN	?LogAdd_MonsterItemDrop@@3P6AXPADZZA:DWORD	; LogAdd_MonsterItemDrop
EXTRN	?LogAddTD_TempLog@@3P6AXPADZZA:DWORD		; LogAddTD_TempLog
EXTRN	?ItemAttribute@@3PAUITEM_ATTRIBUTE@@A:BYTE	; ItemAttribute
EXTRN	?gObj@@3PAVOBJECTSTRUCT@@A:DWORD		; gObj
EXTRN	?g_GlobalConfig@@3VCGlobalConfig@@A:BYTE	; g_GlobalConfig
EXTRN	?g_ResetSystem@@3VCResetSystem@@A:BYTE		; g_ResetSystem
EXTRN	?g_TerrainManager@@3VCTerrainManager@@A:BYTE	; g_TerrainManager
EXTRN	?lMsg@@3VCMsg@@A:BYTE				; lMsg
EXTRN	?ghWnd@@3PAUHWND__@@A:DWORD			; ghWnd
EXTRN	?gServerReady@@3HA:DWORD			; gServerReady
EXTRN	?GameServerPort@@3HA:DWORD			; GameServerPort
EXTRN	?DataServerConnected@@3HA:DWORD			; DataServerConnected
EXTRN	?gGameServerCode@@3FA:WORD			; gGameServerCode
EXTRN	?bCanWarehouseLock@@3HA:DWORD			; bCanWarehouseLock
EXTRN	?MapC@@3PAVMapClass@@A:DWORD			; MapC
EXTRN	?szServerName@@3PADA:BYTE			; szServerName
EXTRN	?cDBSMng@@3VDBSockMng@@A:BYTE			; cDBSMng
EXTRN	?s_PickUp@@3VCPickUpSystem@@A:BYTE		; s_PickUp
EXTRN	?g_MixSystem@@3VCMixSystem@@A:BYTE		; g_MixSystem
EXTRN	?g_QuestInfo@@3VCQuestInfo@@A:BYTE		; g_QuestInfo
EXTRN	?g_BloodCastle@@3VCBloodCastle@@A:BYTE		; g_BloodCastle
EXTRN	___security_cookie:DWORD
EXTRN	__fltused:DWORD
;	COMDAT __real@41200000
CONST	SEGMENT
__real@41200000 DD 041200000r			; 10
CONST	ENDS
;	COMDAT __real@3f800000
CONST	SEGMENT
__real@3f800000 DD 03f800000r			; 1
CONST	ENDS
;	COMDAT __real@00000000
CONST	SEGMENT
__real@00000000 DD 000000000r			; 0
CONST	ENDS
;	COMDAT ??_C@_0CP@HLCJJJIG@?$FL?$CFs?$FN?$FL?$CFs?$FN?$FLPW?$FN?$FL?$CFd?0?$CFs?$FNserial?3?$FL?$CFd?$FN?5@
CONST	SEGMENT
??_C@_0CP@HLCJJJIG@?$FL?$CFs?$FN?$FL?$CFs?$FN?$FLPW?$FN?$FL?$CFd?0?$CFs?$FNserial?3?$FL?$CFd?$FN?5@ DB '['
	DB	'%s][%s][PW][%d,%s]serial:[%d] Level:%d Exp:%d', 00H ; `string'
CONST	ENDS
;	COMDAT ??_C@_0CP@HBHBBGIF@?$FL?$CFs?$FN?$FL?$CFs?$FN?$FLPI?$FN?$FL?$CFd?0?$CFs?$FNserial?3?$FL?$CFd?$FN?5@
CONST	SEGMENT
??_C@_0CP@HBHBBGIF@?$FL?$CFs?$FN?$FL?$CFs?$FN?$FLPI?$FN?$FL?$CFd?0?$CFs?$FNserial?3?$FL?$CFd?$FN?5@ DB '['
	DB	'%s][%s][PI][%d,%s]serial:[%d] Level:%d Exp:%d', 00H ; `string'
CONST	ENDS
;	COMDAT ??_C@_0EA@PICKNLKN@Request?5to?5receive?5petitem?5info@
CONST	SEGMENT
??_C@_0EA@PICKNLKN@Request?5to?5receive?5petitem?5info@ DB 'Request to re'
	DB	'ceive petitem infomation doesn''t match the user %s', 00H ; `string'
CONST	ENDS
;	COMDAT ??_C@_0CD@HNLEMMHH@?$LK?P?G?R?5?$LM?$KN?$LJ?v?$LH?N?5?A?$KC?$LM?S?G?X?A?V?$LN?C?$LB?b?5?$LJ?Y?$LG?x?$LE?O@
CONST	SEGMENT
??_C@_0CD@HNLEMMHH@?$LK?P?G?R?5?$LM?$KN?$LJ?v?$LH?N?5?A?$KC?$LM?S?G?X?A?V?$LN?C?$LB?b?5?$LJ?Y?$LG?x?$LE?O@ DB 0baH
	DB	0d0H, 0c7H, 0d2H, ' ', 0bcH, 0adH, 0b9H, 0f6H, 0b7H, 0ceH, ' ', 0c1H
	DB	0a2H, 0bcH, 0d3H, 0c7H, 0d8H, 0c1H, 0d6H, 0bdH, 0c3H, 0b1H, 0e2H
	DB	' ', 0b9H, 0d9H, 0b6H, 0f8H, 0b4H, 0cfH, 0b4H, 0d9H, '.', 00H ; `string'
CONST	ENDS
;	COMDAT ??_C@_0BD@IBAEEAEE@?A?$KC?$LM?S?$MA?L?5?A?$LO?$LH?a?$LF?K?$LE?O?$LE?Y?4@
CONST	SEGMENT
??_C@_0BD@IBAEEAEE@?A?$KC?$LM?S?$MA?L?5?A?$LO?$LH?a?$LF?K?$LE?O?$LE?Y?4@ DB 0c1H
	DB	0a2H, 0bcH, 0d3H, 0c0H, 0ccH, ' ', 0c1H, 0beH, 0b7H, 0e1H, 0b5H
	DB	0cbH, 0b4H, 0cfH, 0b4H, 0d9H, '.', 00H	; `string'
CONST	ENDS
;	COMDAT ??_C@_0CE@IPHEEDFH@?$FLCharTrasfer?$FN?5Success?5?$FL?$CFs?$FN?$FL?$CFs?$FN?5@
CONST	SEGMENT
??_C@_0CE@IPHEEDFH@?$FLCharTrasfer?$FN?5Success?5?$FL?$CFs?$FN?$FL?$CFs?$FN?5@ DB '['
	DB	'CharTrasfer] Success [%s][%s] (%d)', 00H	; `string'
CONST	ENDS
;	COMDAT ??_C@_0DI@PPPCGFPL@?$LJ?$KO?A?$KG?5?$LJ?$NP?$LL?$PN?$LN?C?5change?$EAwebzen?4co?4kr@
CONST	SEGMENT
??_C@_0DI@PPPCGFPL@?$LJ?$KO?A?$KG?5?$LJ?$NP?$LL?$PN?$LN?C?5change?$EAwebzen?4co?4kr@ DB 0b9H
	DB	0aeH, 0c1H, 0a6H, ' ', 0b9H, 0dfH, 0bbH, 0fdH, 0bdH, 0c3H, ' c'
	DB	'hange@webzen.co.kr', 0b7H, 0ceH, ' ', 0b9H, 0aeH, 0c0H, 0c7H, 0c7H
	DB	0d8H, ' ', 0c1H, 0d6H, 0bdH, 0c3H, 0b1H, 0e2H, 0b9H, 0d9H, 0b6H
	DB	0f8H, 0b4H, 0cfH, 0b4H, 0d9H, 00H		; `string'
CONST	ENDS
;	COMDAT ??_C@_0CB@DOBLFOAF@?$FLCharTrasfer?$FN?5Fail?5?$FL?$CFs?$FN?$FL?$CFs?$FN?5?$CI?$CFd@
CONST	SEGMENT
??_C@_0CB@DOBLFOAF@?$FLCharTrasfer?$FN?5Fail?5?$FL?$CFs?$FN?$FL?$CFs?$FN?5?$CI?$CFd@ DB '['
	DB	'CharTrasfer] Fail [%s][%s] (%d)', 00H	; `string'
CONST	ENDS
;	COMDAT ?__LINE__Var@?0??DGMoveOtherServer@@YAXPAUSDHP_CHARACTER_TRANSFER_RESULT@@@Z@4JA
_DATA	SEGMENT
?__LINE__Var@?0??DGMoveOtherServer@@YAXPAUSDHP_CHARACTER_TRANSFER_RESULT@@@Z@4JA DD 0f0cH ; `DGMoveOtherServer'::`1'::__LINE__Var
_DATA	ENDS
;	COMDAT ??_C@_0CE@HMMPKDMJ@?$CFd?7?$CFd?7?$CFd?7?$CFd?7?$CFd?7?$CFd?7?$CFd?7?$CFd?7?$CFd?7?$CFd?7?$CF@
CONST	SEGMENT
??_C@_0CE@HMMPKDMJ@?$CFd?7?$CFd?7?$CFd?7?$CFd?7?$CFd?7?$CFd?7?$CFd?7?$CFd?7?$CFd?7?$CFd?7?$CF@ DB '%'
	DB	'd', 09H, '%d', 09H, '%d', 09H, '%d', 09H, '%d', 09H, '%d', 09H
	DB	'%d', 09H, '%d', 09H, '%d', 09H, '%d', 09H, '%d', 09H, '%d', 00H ; `string'
CONST	ENDS
;	COMDAT ??_C@_0GD@LMECKDPM@Monster?5Item?5Drop?5?$FL?$CFd?$FN?$FL?$CFd?$FN?$FL?$CFd?$FN?5@
CONST	SEGMENT
??_C@_0GD@LMECKDPM@Monster?5Item?5Drop?5?$FL?$CFd?$FN?$FL?$CFd?$FN?$FL?$CFd?$FN?5@ DB 'M'
	DB	'onster Item Drop [%d][%d][%d] : serial:%d [%s][%d][%d][%d][%d'
	DB	'] Ex:[%d,%d,%d,%d,%d,%d,%d] Set:[%d]', 00H	; `string'
CONST	ENDS
;	COMDAT ??_C@_0BO@CNHMPMBL@?$FLPickUp?5System?$FN?5?3?5?$CFs?5Obtained@
CONST	SEGMENT
??_C@_0BO@CNHMPMBL@?$FLPickUp?5System?$FN?5?3?5?$CFs?5Obtained@ DB '[Pick'
	DB	'Up System] : %s Obtained', 00H		; `string'
CONST	ENDS
;	COMDAT ??_C@_0EP@FICGMJHI@?$FLPickupSystem?$FN?5Error?5?3?5Failed?5T@
CONST	SEGMENT
??_C@_0EP@FICGMJHI@?$FLPickupSystem?$FN?5Error?5?3?5Failed?5T@ DB '[Picku'
	DB	'pSystem] Error : Failed To Insert Item Type:%d, TypeIndex:%d '
	DB	'to [%s][%s]', 00H				; `string'
CONST	ENDS
;	COMDAT ??_C@_0EO@DCIKCPFD@?$FLMu_2Anv_Event?$FN?5Error?5?3?5Failed?5@
CONST	SEGMENT
??_C@_0EO@DCIKCPFD@?$FLMu_2Anv_Event?$FN?5Error?5?3?5Failed?5@ DB '[Mu_2A'
	DB	'nv_Event] Error : Failed To Gift Item Type:%d, TypeIndex:%d t'
	DB	'o [%s][%s]', 00H				; `string'
CONST	ENDS
;	COMDAT ??_C@_0GA@EHKFCGJE@?$FL?$CFs?$FN?$FL?$CFs?$FN?5CBMix?5Item?5Create?5Item@
CONST	SEGMENT
??_C@_0GA@EHKFCGJE@?$FL?$CFs?$FN?$FL?$CFs?$FN?5CBMix?5Item?5Create?5Item@ DB '['
	DB	'%s][%s] CBMix Item Create Item:%s [%d][%d] [%d][%d][%d][%d] E'
	DB	'x:[%d,%d,%d,%d,%d,%d,%d] Set:[%d]', 00H	; `string'
CONST	ENDS
;	COMDAT ??_C@_0BN@BDLDNMBN@error?9L2?3?5ChaosBox?5not?5used?4@
CONST	SEGMENT
??_C@_0BN@BDLDNMBN@error?9L2?3?5ChaosBox?5not?5used?4@ DB 'error-L2: Chao'
	DB	'sBox not used.', 00H			; `string'
CONST	ENDS
;	COMDAT ??_C@_0CD@JBKACADO@error?9L2?3?5DarkTrainerBox?5not?5us@
CONST	SEGMENT
??_C@_0CD@JBKACADO@error?9L2?3?5DarkTrainerBox?5not?5us@ DB 'error-L2: Da'
	DB	'rkTrainerBox not used.', 00H		; `string'
CONST	ENDS
;	COMDAT ??_C@_0FF@NJPANPON@?$FL?$CFs?$FN?$FL?$CFs?$FN?5Special?5Shop?5Item?3?$CFs?5?$FL@
CONST	SEGMENT
??_C@_0FF@NJPANPON@?$FL?$CFs?$FN?$FL?$CFs?$FN?5Special?5Shop?5Item?3?$CFs?5?$FL@ DB '['
	DB	'%s][%s] Special Shop Item:%s [%d][%d] [%d][%d][%d][%d] Ex:[%d'
	DB	',%d,%d,%d,%d] Set:[%d]', 00H		; `string'
CONST	ENDS
;	COMDAT ??_C@_0BC@OFCHNMFP@error?9L3?5?$FL?$CFs?$FN?$FL?$CFd?$FN@
CONST	SEGMENT
??_C@_0BC@OFCHNMFP@error?9L3?5?$FL?$CFs?$FN?$FL?$CFd?$FN@ DB 'error-L3 [%'
	DB	's][%d]', 00H				; `string'
CONST	ENDS
;	COMDAT ?__LINE__Var@?0??ItemSerialCreateRecv@@YAXPAUSDHP_ITEMCREATERECV@@@Z@4JA
_DATA	SEGMENT
?__LINE__Var@?0??ItemSerialCreateRecv@@YAXPAUSDHP_ITEMCREATERECV@@@Z@4JA DD 0ba9H ; `ItemSerialCreateRecv'::`1'::__LINE__Var
_DATA	ENDS
;	COMDAT ??_C@_0GG@PDKAJKAJ@Monster?5Item?5Drop?5Request?5?$FL?$CFs?$FN?5@
CONST	SEGMENT
??_C@_0GG@PDKAJKAJ@Monster?5Item?5Drop?5Request?5?$FL?$CFs?$FN?5@ DB 'Mon'
	DB	'ster Item Drop Request [%s] [%d][%d][%d] : [%s][%d][%d][%d][%'
	DB	'd] Ex:[%d,%d,%d,%d,%d,%d,%d] Set:[%d]', 00H	; `string'
CONST	ENDS
;	COMDAT ??_C@_0BP@KBPACLIK@?$FLERROR?$FN?5Item?5doesn?8t?5exists?5?$CFd@
CONST	SEGMENT
??_C@_0BP@KBPACLIK@?$FLERROR?$FN?5Item?5doesn?8t?5exists?5?$CFd@ DB '[ERR'
	DB	'OR] Item doesn''t exists %d', 00H		; `string'
CONST	ENDS
;	COMDAT ??_C@_0CI@MIGOHDHJ@?$FL?$CFs?$FN?$FL?$CFs?$FN?5WareHouse?5Save?5Fail?5?3?5@
CONST	SEGMENT
??_C@_0CI@MIGOHDHJ@?$FL?$CFs?$FN?$FL?$CFs?$FN?5WareHouse?5Save?5Fail?5?3?5@ DB '['
	DB	'%s][%s] WareHouse Save Fail : Not Open', 00H ; `string'
CONST	ENDS
;	COMDAT ??_C@_0DH@CCJJLLEJ@?0?5?$FLG?9?$DOC?5Recv?5GetWarehouseList?$FN?0@
CONST	SEGMENT
??_C@_0DH@CCJJLLEJ@?0?5?$FLG?9?$DOC?5Recv?5GetWarehouseList?$FN?0@ DB ', '
	DB	'[G->C Recv GetWarehouseList], Account [%s], IP [%s] ', 00H ; `string'
CONST	ENDS
;	COMDAT ??_C@_0DG@DAPPAGFG@?0?5?$FLG?9?$DOD?5Req?5GetWarehouseList?$FN?0?5@
CONST	SEGMENT
??_C@_0DG@DAPPAGFG@?0?5?$FLG?9?$DOD?5Req?5GetWarehouseList?$FN?0?5@ DB ','
	DB	' [G->D Req GetWarehouseList], Account [%s], IP [%s] ', 00H ; `string'
CONST	ENDS
;	COMDAT ??_C@_0EE@HOADODHJ@?0?5?$FLD?9?$DOG?5Recv?5MapJoin?$FN?5CharSelec@
CONST	SEGMENT
??_C@_0EE@HOADODHJ@?0?5?$FLD?9?$DOG?5Recv?5MapJoin?$FN?5CharSelec@ DB ', '
	DB	'[D->G Recv MapJoin] CharSelected, Account [%s], IP [%s], Name'
	DB	'[%s]', 00H					; `string'
CONST	ENDS
;	COMDAT ??_C@_0CG@BPCBIHIK@?$KB?Z?$KB?Y?5ZEN?5MODIFY?5?$KB?Y?$KB?Z?5?$FL?$CFs?$FN?$FL?$CFs?$FN?5?$CF@
CONST	SEGMENT
??_C@_0CG@BPCBIHIK@?$KB?Z?$KB?Y?5ZEN?5MODIFY?5?$KB?Y?$KB?Z?5?$FL?$CFs?$FN?$FL?$CFs?$FN?5?$CF@ DB 0a1H
	DB	0daH, 0a1H, 0d9H, ' ZEN MODIFY ', 0a1H, 0d9H, 0a1H, 0daH, ' [%'
	DB	's][%s] %d -> 0', 00H			; `string'
CONST	ENDS
;	COMDAT ??_C@_0FE@JOJGEKKO@?$FLAnti?9HACK?$FN?$FLJGGetCharacterInfo?$FN@
CONST	SEGMENT
??_C@_0FE@JOJGEKKO@?$FLAnti?9HACK?$FN?$FLJGGetCharacterInfo?$FN@ DB '[Ant'
	DB	'i-HACK][JGGetCharacterInfo] Attempted Character-Copy by doubl'
	DB	'e logging [%s][%s]', 00H			; `string'
CONST	ENDS
;	COMDAT ??_C@_0CL@ECFCLMFK@error?9L1?5?3?5Load?5Block?5Character@
CONST	SEGMENT
??_C@_0CL@ECFCLMFK@error?9L1?5?3?5Load?5Block?5Character@ DB 'error-L1 : '
	DB	'Load Block Character infomation', 00H	; `string'
CONST	ENDS
;	COMDAT ?__LINE__Var@?0??JGGetCharacterInfo@@YAXPAUSDHP_DBCHAR_INFORESULT@@@Z@4JA
_DATA	SEGMENT
?__LINE__Var@?0??JGGetCharacterInfo@@YAXPAUSDHP_DBCHAR_INFORESULT@@@Z@4JA DD 06c3H ; `JGGetCharacterInfo'::`1'::__LINE__Var
_DATA	ENDS
;	COMDAT ??_C@_0DB@LJIPDNBN@?0?5?$FLG?9?$DOD?5Req?5GetCharList?$FN?0?5Accou@
CONST	SEGMENT
??_C@_0DB@LJIPDNBN@?0?5?$FLG?9?$DOD?5Req?5GetCharList?$FN?0?5Accou@ DB ','
	DB	' [G->D Req GetCharList], Account [%s], IP [%s] ', 00H ; `string'
CONST	ENDS
;	COMDAT ??_C@_0DN@MBPEHAPP@C?3?2Mu?5Online?2Mu?9GS?9Webzen?9MC?910@
CONST	SEGMENT
??_C@_0DN@MBPEHAPP@C?3?2Mu?5Online?2Mu?9GS?9Webzen?9MC?910@ DB 'C:\Mu Onl'
	DB	'ine\Mu-GS-Webzen-MC-10093\GameServer\DSProtocol.cpp', 00H ; `string'
CONST	ENDS
;	COMDAT ?__LINE__Var@?0??DataServerGetCharListRequest@@YAXF@Z@4JA
_DATA	SEGMENT
?__LINE__Var@?0??DataServerGetCharListRequest@@YAXF@Z@4JA DD 060dH ; `DataServerGetCharListRequest'::`1'::__LINE__Var
_DATA	ENDS
;	COMDAT ??_C@_0DB@KDJHGNDI@?0?5?$FLD?9?$DOG?5Recv?5GetCharList?$FN?0?5Acco@
CONST	SEGMENT
??_C@_0DB@KDJHGNDI@?0?5?$FLD?9?$DOG?5Recv?5GetCharList?$FN?0?5Acco@ DB ','
	DB	' [D->G Recv GetCharList], Account [%s], IP [%s]', 00H ; `string'
CONST	ENDS
;	COMDAT ??_C@_0P@GMPEKMII@Test?5Data?5Send@
CONST	SEGMENT
??_C@_0P@GMPEKMII@Test?5Data?5Send@ DB 'Test Data Send', 00H ; `string'
CONST	ENDS
;	COMDAT ??_C@_02DKCKIIND@?$CFs@
CONST	SEGMENT
??_C@_02DKCKIIND@?$CFs@ DB '%s', 00H			; `string'
CONST	ENDS
;	COMDAT ??_C@_0CC@MBCBAID@error?9L2DataServer?5RECV?5?3?5?$CFd?5?$CI?$CF@
CONST	SEGMENT
??_C@_0CC@MBCBAID@error?9L2DataServer?5RECV?5?3?5?$CFd?5?$CI?$CF@ DB 'err'
	DB	'or-L2DataServer RECV : %d (%d)', 00H	; `string'
CONST	ENDS
;	COMDAT ??_C@_02DPKJAMEF@?$CFd@
CONST	SEGMENT
??_C@_02DPKJAMEF@?$CFd@ DB '%d', 00H			; `string'
CONST	ENDS
; Function compile flags: /Odtp /ZI
; File C:\Mu Online\Mu-GS-Webzen-MC-10093\GameServer\DSProtocol.cpp
;	COMDAT ?DGRecvPetItemInfo@@YAXPAE@Z
_TEXT	SEGMENT
$T1 = -108						; size = 4
_n$2 = -40						; size = 4
_n$3 = -36						; size = 4
_ReCalc$4 = -32						; size = 4
_szAccountId$ = -28					; size = 11
_aIndex$ = -16						; size = 4
_pPetItemInfo$ = -12					; size = 4
_lpMsg$ = -8						; size = 4
__$ArrayPad$ = -4					; size = 4
_lpData$ = 8						; size = 4
?DGRecvPetItemInfo@@YAXPAE@Z PROC			; DGRecvPetItemInfo, COMDAT

; 3980 : {

  00000	55		 push	 ebp
  00001	8b ec		 mov	 ebp, esp
  00003	83 ec 6c	 sub	 esp, 108		; 0000006cH
  00006	a1 00 00 00 00	 mov	 eax, DWORD PTR ___security_cookie
  0000b	33 c5		 xor	 eax, ebp
  0000d	89 45 fc	 mov	 DWORD PTR __$ArrayPad$[ebp], eax
  00010	53		 push	 ebx
  00011	56		 push	 esi
  00012	57		 push	 edi

; 3981 : 	LPSDHP_RECV_PETITEM_INFO lpMsg = (LPSDHP_RECV_PETITEM_INFO)lpData; 

  00013	8b 45 08	 mov	 eax, DWORD PTR _lpData$[ebp]
  00016	89 45 f8	 mov	 DWORD PTR _lpMsg$[ebp], eax

; 3982 : 	Recv_PetItem_Info*	pPetItemInfo = (Recv_PetItem_Info*)(lpData+sizeof(SDHP_RECV_PETITEM_INFO));

  00019	8b 45 08	 mov	 eax, DWORD PTR _lpData$[ebp]
  0001c	83 c0 14	 add	 eax, 20			; 00000014H
  0001f	89 45 f4	 mov	 DWORD PTR _pPetItemInfo$[ebp], eax

; 3983 : 
; 3984 : 	int		aIndex = lpMsg->Number;

  00022	8b 45 f8	 mov	 eax, DWORD PTR _lpMsg$[ebp]
  00025	0f b7 48 10	 movzx	 ecx, WORD PTR [eax+16]
  00029	89 4d f0	 mov	 DWORD PTR _aIndex$[ebp], ecx

; 3985 : 	char	szAccountId[MAX_IDSTRING+1];
; 3986 : 
; 3987 : 	szAccountId[MAX_IDSTRING] = '\0';

  0002c	b8 01 00 00 00	 mov	 eax, 1
  00031	6b c8 0a	 imul	 ecx, eax, 10
  00034	89 4d 94	 mov	 DWORD PTR $T1[ebp], ecx
  00037	83 7d 94 0b	 cmp	 DWORD PTR $T1[ebp], 11	; 0000000bH
  0003b	73 02		 jae	 SHORT $LN17@DGRecvPetI
  0003d	eb 05		 jmp	 SHORT $LN18@DGRecvPetI
$LN17@DGRecvPetI:
  0003f	e8 00 00 00 00	 call	 ___report_rangecheckfailure
$LN18@DGRecvPetI:
  00044	8b 55 94	 mov	 edx, DWORD PTR $T1[ebp]
  00047	c6 44 15 e4 00	 mov	 BYTE PTR _szAccountId$[ebp+edx], 0

; 3988 : 	memcpy(szAccountId, lpMsg->AccountID, MAX_IDSTRING);

  0004c	6a 0a		 push	 10			; 0000000aH
  0004e	8b 45 f8	 mov	 eax, DWORD PTR _lpMsg$[ebp]
  00051	83 c0 04	 add	 eax, 4
  00054	50		 push	 eax
  00055	8d 4d e4	 lea	 ecx, DWORD PTR _szAccountId$[ebp]
  00058	51		 push	 ecx
  00059	e8 00 00 00 00	 call	 _memcpy
  0005e	83 c4 0c	 add	 esp, 12			; 0000000cH

; 3989 : 	if( gObjIsAccontConnect(aIndex, szAccountId) == FALSE )

  00061	8d 45 e4	 lea	 eax, DWORD PTR _szAccountId$[ebp]
  00064	50		 push	 eax
  00065	8b 4d f0	 mov	 ecx, DWORD PTR _aIndex$[ebp]
  00068	51		 push	 ecx
  00069	e8 00 00 00 00	 call	 ?gObjIsAccontConnect@@YAHHPAD@Z ; gObjIsAccontConnect
  0006e	83 c4 08	 add	 esp, 8
  00071	85 c0		 test	 eax, eax
  00073	75 25		 jne	 SHORT $LN8@DGRecvPetI

; 3990 : 	{
; 3991 : 		LogAddC(LOGC_RED, "Request to receive petitem infomation doesn't match the user %s",

  00075	8d 45 e4	 lea	 eax, DWORD PTR _szAccountId$[ebp]
  00078	50		 push	 eax
  00079	68 00 00 00 00	 push	 OFFSET ??_C@_0EA@PICKNLKN@Request?5to?5receive?5petitem?5info@
  0007e	6a 02		 push	 2
  00080	ff 15 00 00 00
	00		 call	 DWORD PTR ?LogAddC@@3P6AXEPADZZA ; LogAddC
  00086	83 c4 0c	 add	 esp, 12			; 0000000cH

; 3992 : 				szAccountId);
; 3993 : 		CloseClient ( aIndex );

  00089	8b 45 f0	 mov	 eax, DWORD PTR _aIndex$[ebp]
  0008c	50		 push	 eax
  0008d	e8 00 00 00 00	 call	 ?CloseClient@@YAXH@Z	; CloseClient
  00092	83 c4 04	 add	 esp, 4

; 3994 : 		return;

  00095	e9 10 02 00 00	 jmp	 $LN16@DGRecvPetI
$LN8@DGRecvPetI:

; 3995 : 	}
; 3996 : 
; 3997 : 	if( lpMsg->InvenType == 0 )

  0009a	8b 45 f8	 mov	 eax, DWORD PTR _lpMsg$[ebp]
  0009d	0f b6 48 12	 movzx	 ecx, BYTE PTR [eax+18]
  000a1	85 c9		 test	 ecx, ecx
  000a3	0f 85 14 01 00
	00		 jne	 $LN9@DGRecvPetI

; 3998 : 	{	// 인벤토리
; 3999 : 		BOOL	ReCalc = FALSE;

  000a9	c7 45 e0 00 00
	00 00		 mov	 DWORD PTR _ReCalc$4[ebp], 0

; 4000 : 		for( int n=0; n<lpMsg->nCount; n++)

  000b0	c7 45 dc 00 00
	00 00		 mov	 DWORD PTR _n$3[ebp], 0
  000b7	eb 09		 jmp	 SHORT $LN4@DGRecvPetI
$LN2@DGRecvPetI:
  000b9	8b 45 dc	 mov	 eax, DWORD PTR _n$3[ebp]
  000bc	83 c0 01	 add	 eax, 1
  000bf	89 45 dc	 mov	 DWORD PTR _n$3[ebp], eax
$LN4@DGRecvPetI:
  000c2	8b 45 f8	 mov	 eax, DWORD PTR _lpMsg$[ebp]
  000c5	0f b6 48 13	 movzx	 ecx, BYTE PTR [eax+19]
  000c9	39 4d dc	 cmp	 DWORD PTR _n$3[ebp], ecx
  000cc	0f 8d d4 00 00
	00		 jge	 $LN3@DGRecvPetI

; 4001 : 		{
; 4002 : 			if( pPetItemInfo[n].nPos < MAX_EQUIPMENT )

  000d2	8b 45 dc	 mov	 eax, DWORD PTR _n$3[ebp]
  000d5	c1 e0 04	 shl	 eax, 4
  000d8	8b 4d f4	 mov	 ecx, DWORD PTR _pPetItemInfo$[ebp]
  000db	0f b6 14 01	 movzx	 edx, BYTE PTR [ecx+eax]
  000df	83 fa 0c	 cmp	 edx, 12			; 0000000cH
  000e2	7d 07		 jge	 SHORT $LN11@DGRecvPetI

; 4003 : 			{
; 4004 : 				ReCalc = TRUE;

  000e4	c7 45 e0 01 00
	00 00		 mov	 DWORD PTR _ReCalc$4[ebp], 1
$LN11@DGRecvPetI:

; 4005 : 			}
; 4006 : 
; 4007 : 			if( gObj[aIndex].pInventory[pPetItemInfo[n].nPos].IsItem() && 

  000eb	69 45 f0 a0 1b
	00 00		 imul	 eax, DWORD PTR _aIndex$[ebp], 7072
  000f2	8b 4d dc	 mov	 ecx, DWORD PTR _n$3[ebp]
  000f5	c1 e1 04	 shl	 ecx, 4
  000f8	8b 55 f4	 mov	 edx, DWORD PTR _pPetItemInfo$[ebp]
  000fb	0f b6 0c 0a	 movzx	 ecx, BYTE PTR [edx+ecx]
  000ff	69 c9 a8 00 00
	00		 imul	 ecx, ecx, 168
  00105	8b 15 00 00 00
	00		 mov	 edx, DWORD PTR ?gObj@@3PAVOBJECTSTRUCT@@A ; gObj
  0010b	03 8c 02 5c 0c
	00 00		 add	 ecx, DWORD PTR [edx+eax+3164]
  00112	e8 00 00 00 00	 call	 ?IsItem@CItem@@QAEHXZ	; CItem::IsItem
  00117	85 c0		 test	 eax, eax
  00119	0f 84 82 00 00
	00		 je	 $LN12@DGRecvPetI
  0011f	69 45 f0 a0 1b
	00 00		 imul	 eax, DWORD PTR _aIndex$[ebp], 7072
  00126	8b 4d dc	 mov	 ecx, DWORD PTR _n$3[ebp]
  00129	c1 e1 04	 shl	 ecx, 4
  0012c	8b 55 f4	 mov	 edx, DWORD PTR _pPetItemInfo$[ebp]
  0012f	0f b6 0c 0a	 movzx	 ecx, BYTE PTR [edx+ecx]
  00133	69 d1 a8 00 00
	00		 imul	 edx, ecx, 168
  00139	8b 0d 00 00 00
	00		 mov	 ecx, DWORD PTR ?gObj@@3PAVOBJECTSTRUCT@@A ; gObj
  0013f	8b 84 01 5c 0c
	00 00		 mov	 eax, DWORD PTR [ecx+eax+3164]
  00146	8b 4d dc	 mov	 ecx, DWORD PTR _n$3[ebp]
  00149	c1 e1 04	 shl	 ecx, 4
  0014c	8b 75 f4	 mov	 esi, DWORD PTR _pPetItemInfo$[ebp]
  0014f	8b 14 10	 mov	 edx, DWORD PTR [eax+edx]
  00152	3b 54 0e 04	 cmp	 edx, DWORD PTR [esi+ecx+4]
  00156	75 49		 jne	 SHORT $LN12@DGRecvPetI

; 4008 : 				gObj[aIndex].pInventory[pPetItemInfo[n].nPos].m_Number == pPetItemInfo[n].nSerial)
; 4009 : 			{	
; 4010 : 
; 4011 : #if TESTSERVER == 1
; 4012 : 				DebugOutput(aIndex, "[인벤] %s/%d Lv:%d Exp:%d", 
; 4013 : 							gObj[aIndex].pInventory[pPetItemInfo[n].nPos].GetName(),
; 4014 : 							pPetItemInfo[n].nPos, 
; 4015 : 							pPetItemInfo[n].Level, pPetItemInfo[n].Exp);
; 4016 : #endif
; 4017 : 
; 4018 : 				gObj[aIndex].pInventory[pPetItemInfo[n].nPos].SetPetItemInfo(pPetItemInfo[n].Level, pPetItemInfo[n].Exp);

  00158	8b 45 dc	 mov	 eax, DWORD PTR _n$3[ebp]
  0015b	c1 e0 04	 shl	 eax, 4
  0015e	8b 4d f4	 mov	 ecx, DWORD PTR _pPetItemInfo$[ebp]
  00161	8b 54 01 0c	 mov	 edx, DWORD PTR [ecx+eax+12]
  00165	52		 push	 edx
  00166	8b 45 dc	 mov	 eax, DWORD PTR _n$3[ebp]
  00169	c1 e0 04	 shl	 eax, 4
  0016c	8b 4d f4	 mov	 ecx, DWORD PTR _pPetItemInfo$[ebp]
  0016f	0f b6 54 01 08	 movzx	 edx, BYTE PTR [ecx+eax+8]
  00174	52		 push	 edx
  00175	69 45 f0 a0 1b
	00 00		 imul	 eax, DWORD PTR _aIndex$[ebp], 7072
  0017c	8b 4d dc	 mov	 ecx, DWORD PTR _n$3[ebp]
  0017f	c1 e1 04	 shl	 ecx, 4
  00182	8b 55 f4	 mov	 edx, DWORD PTR _pPetItemInfo$[ebp]
  00185	0f b6 0c 0a	 movzx	 ecx, BYTE PTR [edx+ecx]
  00189	69 c9 a8 00 00
	00		 imul	 ecx, ecx, 168
  0018f	8b 15 00 00 00
	00		 mov	 edx, DWORD PTR ?gObj@@3PAVOBJECTSTRUCT@@A ; gObj
  00195	03 8c 02 5c 0c
	00 00		 add	 ecx, DWORD PTR [edx+eax+3164]
  0019c	e8 00 00 00 00	 call	 ?SetPetItemInfo@CItem@@QAEXHH@Z ; CItem::SetPetItemInfo
$LN12@DGRecvPetI:

; 4019 : 			}
; 4020 : 		}

  001a1	e9 13 ff ff ff	 jmp	 $LN2@DGRecvPetI
$LN3@DGRecvPetI:

; 4021 : 
; 4022 : 		if( ReCalc )

  001a6	83 7d e0 00	 cmp	 DWORD PTR _ReCalc$4[ebp], 0
  001aa	74 0c		 je	 SHORT $LN13@DGRecvPetI

; 4023 : 		{
; 4024 : 			gObjCalCharacter(aIndex);

  001ac	8b 45 f0	 mov	 eax, DWORD PTR _aIndex$[ebp]
  001af	50		 push	 eax
  001b0	e8 00 00 00 00	 call	 ?gObjCalCharacter@@YAXH@Z ; gObjCalCharacter
  001b5	83 c4 04	 add	 esp, 4
$LN13@DGRecvPetI:

; 4025 : 		}
; 4026 : 	}

  001b8	e9 ed 00 00 00	 jmp	 $LN16@DGRecvPetI
$LN9@DGRecvPetI:

; 4027 : 	else if( lpMsg->InvenType == 1 )

  001bd	8b 45 f8	 mov	 eax, DWORD PTR _lpMsg$[ebp]
  001c0	0f b6 48 12	 movzx	 ecx, BYTE PTR [eax+18]
  001c4	83 f9 01	 cmp	 ecx, 1
  001c7	0f 85 dd 00 00
	00		 jne	 $LN16@DGRecvPetI

; 4028 : 	{	// 창고
; 4029 : 		for( int n=0; n<lpMsg->nCount; n++)

  001cd	c7 45 d8 00 00
	00 00		 mov	 DWORD PTR _n$2[ebp], 0
  001d4	eb 09		 jmp	 SHORT $LN7@DGRecvPetI
$LN5@DGRecvPetI:
  001d6	8b 45 d8	 mov	 eax, DWORD PTR _n$2[ebp]
  001d9	83 c0 01	 add	 eax, 1
  001dc	89 45 d8	 mov	 DWORD PTR _n$2[ebp], eax
$LN7@DGRecvPetI:
  001df	8b 45 f8	 mov	 eax, DWORD PTR _lpMsg$[ebp]
  001e2	0f b6 48 13	 movzx	 ecx, BYTE PTR [eax+19]
  001e6	39 4d d8	 cmp	 DWORD PTR _n$2[ebp], ecx
  001e9	0f 8d bb 00 00
	00		 jge	 $LN16@DGRecvPetI

; 4030 : 		{
; 4031 : 			if( gObj[aIndex].pWarehouse[pPetItemInfo[n].nPos].IsItem() && 

  001ef	69 45 f0 a0 1b
	00 00		 imul	 eax, DWORD PTR _aIndex$[ebp], 7072
  001f6	8b 4d d8	 mov	 ecx, DWORD PTR _n$2[ebp]
  001f9	c1 e1 04	 shl	 ecx, 4
  001fc	8b 55 f4	 mov	 edx, DWORD PTR _pPetItemInfo$[ebp]
  001ff	0f b6 0c 0a	 movzx	 ecx, BYTE PTR [edx+ecx]
  00203	69 c9 a8 00 00
	00		 imul	 ecx, ecx, 168
  00209	8b 15 00 00 00
	00		 mov	 edx, DWORD PTR ?gObj@@3PAVOBJECTSTRUCT@@A ; gObj
  0020f	03 8c 02 94 0c
	00 00		 add	 ecx, DWORD PTR [edx+eax+3220]
  00216	e8 00 00 00 00	 call	 ?IsItem@CItem@@QAEHXZ	; CItem::IsItem
  0021b	85 c0		 test	 eax, eax
  0021d	0f 84 82 00 00
	00		 je	 $LN15@DGRecvPetI
  00223	69 45 f0 a0 1b
	00 00		 imul	 eax, DWORD PTR _aIndex$[ebp], 7072
  0022a	8b 4d d8	 mov	 ecx, DWORD PTR _n$2[ebp]
  0022d	c1 e1 04	 shl	 ecx, 4
  00230	8b 55 f4	 mov	 edx, DWORD PTR _pPetItemInfo$[ebp]
  00233	0f b6 0c 0a	 movzx	 ecx, BYTE PTR [edx+ecx]
  00237	69 d1 a8 00 00
	00		 imul	 edx, ecx, 168
  0023d	8b 0d 00 00 00
	00		 mov	 ecx, DWORD PTR ?gObj@@3PAVOBJECTSTRUCT@@A ; gObj
  00243	8b 84 01 94 0c
	00 00		 mov	 eax, DWORD PTR [ecx+eax+3220]
  0024a	8b 4d d8	 mov	 ecx, DWORD PTR _n$2[ebp]
  0024d	c1 e1 04	 shl	 ecx, 4
  00250	8b 75 f4	 mov	 esi, DWORD PTR _pPetItemInfo$[ebp]
  00253	8b 14 10	 mov	 edx, DWORD PTR [eax+edx]
  00256	3b 54 0e 04	 cmp	 edx, DWORD PTR [esi+ecx+4]
  0025a	75 49		 jne	 SHORT $LN15@DGRecvPetI

; 4032 : 				gObj[aIndex].pWarehouse[pPetItemInfo[n].nPos].m_Number == pPetItemInfo[n].nSerial)
; 4033 : 			{	
; 4034 : #if TESTSERVER == 1
; 4035 : 				DebugOutput(aIndex, "[창고] %s/%d Lv:%d Exp:%d", 
; 4036 : 							gObj[aIndex].pWarehouse[pPetItemInfo[n].nPos].GetName(),
; 4037 : 							pPetItemInfo[n].nPos, 
; 4038 : 							pPetItemInfo[n].Level, pPetItemInfo[n].Exp);				
; 4039 : #endif
; 4040 : 
; 4041 : 				gObj[aIndex].pWarehouse[pPetItemInfo[n].nPos].SetPetItemInfo(pPetItemInfo[n].Level, pPetItemInfo[n].Exp);

  0025c	8b 45 d8	 mov	 eax, DWORD PTR _n$2[ebp]
  0025f	c1 e0 04	 shl	 eax, 4
  00262	8b 4d f4	 mov	 ecx, DWORD PTR _pPetItemInfo$[ebp]
  00265	8b 54 01 0c	 mov	 edx, DWORD PTR [ecx+eax+12]
  00269	52		 push	 edx
  0026a	8b 45 d8	 mov	 eax, DWORD PTR _n$2[ebp]
  0026d	c1 e0 04	 shl	 eax, 4
  00270	8b 4d f4	 mov	 ecx, DWORD PTR _pPetItemInfo$[ebp]
  00273	0f b6 54 01 08	 movzx	 edx, BYTE PTR [ecx+eax+8]
  00278	52		 push	 edx
  00279	69 45 f0 a0 1b
	00 00		 imul	 eax, DWORD PTR _aIndex$[ebp], 7072
  00280	8b 4d d8	 mov	 ecx, DWORD PTR _n$2[ebp]
  00283	c1 e1 04	 shl	 ecx, 4
  00286	8b 55 f4	 mov	 edx, DWORD PTR _pPetItemInfo$[ebp]
  00289	0f b6 0c 0a	 movzx	 ecx, BYTE PTR [edx+ecx]
  0028d	69 c9 a8 00 00
	00		 imul	 ecx, ecx, 168
  00293	8b 15 00 00 00
	00		 mov	 edx, DWORD PTR ?gObj@@3PAVOBJECTSTRUCT@@A ; gObj
  00299	03 8c 02 94 0c
	00 00		 add	 ecx, DWORD PTR [edx+eax+3220]
  002a0	e8 00 00 00 00	 call	 ?SetPetItemInfo@CItem@@QAEXHH@Z ; CItem::SetPetItemInfo
$LN15@DGRecvPetI:

; 4042 : 			}
; 4043 : 		}

  002a5	e9 2c ff ff ff	 jmp	 $LN5@DGRecvPetI
$LN16@DGRecvPetI:

; 4044 : 	}	
; 4045 : }

  002aa	5f		 pop	 edi
  002ab	5e		 pop	 esi
  002ac	5b		 pop	 ebx
  002ad	8b 4d fc	 mov	 ecx, DWORD PTR __$ArrayPad$[ebp]
  002b0	33 cd		 xor	 ecx, ebp
  002b2	e8 00 00 00 00	 call	 @__security_check_cookie@4
  002b7	8b e5		 mov	 esp, ebp
  002b9	5d		 pop	 ebp
  002ba	c3		 ret	 0
?DGRecvPetItemInfo@@YAXPAE@Z ENDP			; DGRecvPetItemInfo
_TEXT	ENDS
; Function compile flags: /Odtp /ZI
; File C:\Mu Online\Mu-GS-Webzen-MC-10093\GameServer\DSProtocol.cpp
;	COMDAT ?DGMoveOtherServer@@YAXPAUSDHP_CHARACTER_TRANSFER_RESULT@@@Z
_TEXT	SEGMENT
_pResult$1 = -8						; size = 4
_lpObj$ = -4						; size = 4
_lpMsg$ = 8						; size = 4
?DGMoveOtherServer@@YAXPAUSDHP_CHARACTER_TRANSFER_RESULT@@@Z PROC ; DGMoveOtherServer, COMDAT

; 3852 : {

  00000	55		 push	 ebp
  00001	8b ec		 mov	 ebp, esp
  00003	83 ec 48	 sub	 esp, 72			; 00000048H
  00006	53		 push	 ebx
  00007	56		 push	 esi
  00008	57		 push	 edi

; 3853 : 	if( gObjIsConnectedGP(lpMsg->Number) == FALSE ) 

  00009	8b 45 08	 mov	 eax, DWORD PTR _lpMsg$[ebp]
  0000c	0f bf 48 0e	 movsx	 ecx, WORD PTR [eax+14]
  00010	51		 push	 ecx
  00011	e8 00 00 00 00	 call	 ?gObjIsConnectedGP@@YAHH@Z ; gObjIsConnectedGP
  00016	83 c4 04	 add	 esp, 4
  00019	85 c0		 test	 eax, eax
  0001b	75 23		 jne	 SHORT $LN2@DGMoveOthe

; 3854 : 	{
; 3855 : 		LogAddC(LOGC_RED, "error-L3 [%s][%d]", __FILE__,__LINE__);

  0001d	a1 00 00 00 00	 mov	 eax, DWORD PTR ?__LINE__Var@?0??DGMoveOtherServer@@YAXPAUSDHP_CHARACTER_TRANSFER_RESULT@@@Z@4JA
  00022	83 c0 03	 add	 eax, 3
  00025	50		 push	 eax
  00026	68 00 00 00 00	 push	 OFFSET ??_C@_0DN@MBPEHAPP@C?3?2Mu?5Online?2Mu?9GS?9Webzen?9MC?910@
  0002b	68 00 00 00 00	 push	 OFFSET ??_C@_0BC@OFCHNMFP@error?9L3?5?$FL?$CFs?$FN?$FL?$CFd?$FN@
  00030	6a 02		 push	 2
  00032	ff 15 00 00 00
	00		 call	 DWORD PTR ?LogAddC@@3P6AXEPADZZA ; LogAddC
  00038	83 c4 10	 add	 esp, 16			; 00000010H

; 3856 : 		return;

  0003b	e9 08 01 00 00	 jmp	 $LN1@DGMoveOthe
$LN2@DGMoveOthe:

; 3857 : 	}
; 3858 : 	
; 3859 : 	LPOBJECTSTRUCT lpObj = &gObj[lpMsg->Number];	

  00040	8b 45 08	 mov	 eax, DWORD PTR _lpMsg$[ebp]
  00043	0f bf 48 0e	 movsx	 ecx, WORD PTR [eax+14]
  00047	69 d1 a0 1b 00
	00		 imul	 edx, ecx, 7072
  0004d	03 15 00 00 00
	00		 add	 edx, DWORD PTR ?gObj@@3PAVOBJECTSTRUCT@@A ; gObj
  00053	89 55 fc	 mov	 DWORD PTR _lpObj$[ebp], edx

; 3860 : 	if( lpMsg->Result != 0 )

  00056	8b 45 08	 mov	 eax, DWORD PTR _lpMsg$[ebp]
  00059	0f b6 48 10	 movzx	 ecx, BYTE PTR [eax+16]
  0005d	85 c9		 test	 ecx, ecx
  0005f	74 6b		 je	 SHORT $LN3@DGMoveOthe

; 3861 : 	{	// 서버 이전 실패 했다
; 3862 : 		PMSG_DEFRESULT pResult;	
; 3863 : 		PHeadSetB((LPBYTE)&pResult, 0x99, sizeof(pResult));

  00061	6a 04		 push	 4
  00063	68 99 00 00 00	 push	 153			; 00000099H
  00068	8d 45 f8	 lea	 eax, DWORD PTR _pResult$1[ebp]
  0006b	50		 push	 eax
  0006c	e8 00 00 00 00	 call	 ?PHeadSetB@@YAXPAEEH@Z	; PHeadSetB
  00071	83 c4 0c	 add	 esp, 12			; 0000000cH

; 3864 : 		pResult.result	   = 0x01;

  00074	c6 45 fb 01	 mov	 BYTE PTR _pResult$1[ebp+3], 1

; 3865 : 		DataSend(lpMsg->Number, (LPBYTE)&pResult, pResult.h.size);

  00078	0f b6 45 f9	 movzx	 eax, BYTE PTR _pResult$1[ebp+1]
  0007c	50		 push	 eax
  0007d	8d 4d f8	 lea	 ecx, DWORD PTR _pResult$1[ebp]
  00080	51		 push	 ecx
  00081	8b 55 08	 mov	 edx, DWORD PTR _lpMsg$[ebp]
  00084	0f bf 42 0e	 movsx	 eax, WORD PTR [edx+14]
  00088	50		 push	 eax
  00089	e8 00 00 00 00	 call	 ?DataSend@@YAHHPAEK@Z	; DataSend
  0008e	83 c4 0c	 add	 esp, 12			; 0000000cH

; 3866 : 
; 3867 : 		LogAddTD("[CharTrasfer] Fail [%s][%s] (%d)", lpObj->AccountID, lpObj->Name, lpMsg->Result);

  00091	8b 45 08	 mov	 eax, DWORD PTR _lpMsg$[ebp]
  00094	0f b6 48 10	 movzx	 ecx, BYTE PTR [eax+16]
  00098	51		 push	 ecx
  00099	8b 55 fc	 mov	 edx, DWORD PTR _lpObj$[ebp]
  0009c	83 c2 73	 add	 edx, 115		; 00000073H
  0009f	52		 push	 edx
  000a0	8b 45 fc	 mov	 eax, DWORD PTR _lpObj$[ebp]
  000a3	83 c0 68	 add	 eax, 104		; 00000068H
  000a6	50		 push	 eax
  000a7	68 00 00 00 00	 push	 OFFSET ??_C@_0CB@DOBLFOAF@?$FLCharTrasfer?$FN?5Fail?5?$FL?$CFs?$FN?$FL?$CFs?$FN?5?$CI?$CFd@
  000ac	ff 15 00 00 00
	00		 call	 DWORD PTR ?LogAddTD@@3P6AXPADZZA ; LogAddTD
  000b2	83 c4 10	 add	 esp, 16			; 00000010H

; 3868 : #ifdef GAMESERVER_DIVISION
; 3869 : 		lpObj->m_MoveOtherServer = FALSE;
; 3870 : #endif
; 3871 : 
; 3872 : 		GCServerMsgStringSend("문제 발생시 change@webzen.co.kr로 문의해 주시기바랍니다", lpObj->m_Index, 1);

  000b5	6a 01		 push	 1
  000b7	8b 45 fc	 mov	 eax, DWORD PTR _lpObj$[ebp]
  000ba	8b 08		 mov	 ecx, DWORD PTR [eax]
  000bc	51		 push	 ecx
  000bd	68 00 00 00 00	 push	 OFFSET ??_C@_0DI@PPPCGFPL@?$LJ?$KO?A?$KG?5?$LJ?$NP?$LL?$PN?$LN?C?5change?$EAwebzen?4co?4kr@
  000c2	e8 00 00 00 00	 call	 ?GCServerMsgStringSend@@YAXPADHE@Z ; GCServerMsgStringSend
  000c7	83 c4 0c	 add	 esp, 12			; 0000000cH

; 3873 : 		return;

  000ca	eb 7c		 jmp	 SHORT $LN1@DGMoveOthe
$LN3@DGMoveOthe:

; 3874 : 	}
; 3875 : 
; 3876 : 	LogAddTD("[CharTrasfer] Success [%s][%s] (%d)", lpObj->AccountID, lpObj->Name, lpMsg->Result);

  000cc	8b 45 08	 mov	 eax, DWORD PTR _lpMsg$[ebp]
  000cf	0f b6 48 10	 movzx	 ecx, BYTE PTR [eax+16]
  000d3	51		 push	 ecx
  000d4	8b 55 fc	 mov	 edx, DWORD PTR _lpObj$[ebp]
  000d7	83 c2 73	 add	 edx, 115		; 00000073H
  000da	52		 push	 edx
  000db	8b 45 fc	 mov	 eax, DWORD PTR _lpObj$[ebp]
  000de	83 c0 68	 add	 eax, 104		; 00000068H
  000e1	50		 push	 eax
  000e2	68 00 00 00 00	 push	 OFFSET ??_C@_0CE@IPHEEDFH@?$FLCharTrasfer?$FN?5Success?5?$FL?$CFs?$FN?$FL?$CFs?$FN?5@
  000e7	ff 15 00 00 00
	00		 call	 DWORD PTR ?LogAddTD@@3P6AXPADZZA ; LogAddTD
  000ed	83 c4 10	 add	 esp, 16			; 00000010H

; 3877 : 
; 3878 : 	GCServerMsgStringSend("접속이 종료됩니다.", lpObj->m_Index, 1);	

  000f0	6a 01		 push	 1
  000f2	8b 45 fc	 mov	 eax, DWORD PTR _lpObj$[ebp]
  000f5	8b 08		 mov	 ecx, DWORD PTR [eax]
  000f7	51		 push	 ecx
  000f8	68 00 00 00 00	 push	 OFFSET ??_C@_0BD@IBAEEAEE@?A?$KC?$LM?S?$MA?L?5?A?$LO?$LH?a?$LF?K?$LE?O?$LE?Y?4@
  000fd	e8 00 00 00 00	 call	 ?GCServerMsgStringSend@@YAXPADHE@Z ; GCServerMsgStringSend
  00102	83 c4 0c	 add	 esp, 12			; 0000000cH

; 3879 : 	GCServerMsgStringSend("분할 서버로 접속해주시기 바랍니다.", lpObj->m_Index, 1);	

  00105	6a 01		 push	 1
  00107	8b 45 fc	 mov	 eax, DWORD PTR _lpObj$[ebp]
  0010a	8b 08		 mov	 ecx, DWORD PTR [eax]
  0010c	51		 push	 ecx
  0010d	68 00 00 00 00	 push	 OFFSET ??_C@_0CD@HNLEMMHH@?$LK?P?G?R?5?$LM?$KN?$LJ?v?$LH?N?5?A?$KC?$LM?S?G?X?A?V?$LN?C?$LB?b?5?$LJ?Y?$LG?x?$LE?O@
  00112	e8 00 00 00 00	 call	 ?GCServerMsgStringSend@@YAXPADHE@Z ; GCServerMsgStringSend
  00117	83 c4 0c	 add	 esp, 12			; 0000000cH

; 3880 : 
; 3881 : 	// 마지막으로 저장한번 하고
; 3882 : 	GJSetCharacterInfo(lpObj, lpObj->m_Index);

  0011a	6a 00		 push	 0
  0011c	8b 45 fc	 mov	 eax, DWORD PTR _lpObj$[ebp]
  0011f	8b 08		 mov	 ecx, DWORD PTR [eax]
  00121	51		 push	 ecx
  00122	8b 55 fc	 mov	 edx, DWORD PTR _lpObj$[ebp]
  00125	52		 push	 edx
  00126	e8 00 00 00 00	 call	 ?GJSetCharacterInfo@@YAXPAVOBJECTSTRUCT@@HH@Z ; GJSetCharacterInfo
  0012b	83 c4 0c	 add	 esp, 12			; 0000000cH

; 3883 : 
; 3884 : 	// 창고는 저장안되게 만들어 두고.
; 3885 : 	lpObj->LoadWareHouseInfo = FALSE;

  0012e	8b 45 fc	 mov	 eax, DWORD PTR _lpObj$[ebp]
  00131	c6 80 88 0e 00
	00 00		 mov	 BYTE PTR [eax+3720], 0

; 3886 : 
; 3887 : 	// 캐릭터를 서버 선택화면으로 보낸다
; 3888 : 	gObjCloseSet(lpObj->m_Index, CL_SERVERLIST);

  00138	6a 02		 push	 2
  0013a	8b 45 fc	 mov	 eax, DWORD PTR _lpObj$[ebp]
  0013d	8b 08		 mov	 ecx, DWORD PTR [eax]
  0013f	51		 push	 ecx
  00140	e8 00 00 00 00	 call	 ?gObjCloseSet@@YAXHH@Z	; gObjCloseSet
  00145	83 c4 08	 add	 esp, 8
$LN1@DGMoveOthe:

; 3889 : #ifdef GAMESERVER_DIVISION
; 3890 : 	lpObj->m_MoveOtherServer = FALSE;
; 3891 : #endif
; 3892 : }

  00148	5f		 pop	 edi
  00149	5e		 pop	 esi
  0014a	5b		 pop	 ebx
  0014b	8b e5		 mov	 esp, ebp
  0014d	5d		 pop	 ebp
  0014e	c3		 ret	 0
?DGMoveOtherServer@@YAXPAUSDHP_CHARACTER_TRANSFER_RESULT@@@Z ENDP ; DGMoveOtherServer
_TEXT	ENDS
; Function compile flags: /Odtp /ZI
; File C:\Mu Online\Mu-GS-Webzen-MC-10093\GameServer\DSProtocol.cpp
;	COMDAT ?DGOptionDataRecv@@YAXPAUSDHP_SKILLKEYDATA_SEND@@@Z
_TEXT	SEGMENT
$T1 = -88						; size = 4
_szName$ = -20						; size = 11
_aIndex$ = -8						; size = 4
__$ArrayPad$ = -4					; size = 4
_lpMsg$ = 8						; size = 4
?DGOptionDataRecv@@YAXPAUSDHP_SKILLKEYDATA_SEND@@@Z PROC ; DGOptionDataRecv, COMDAT

; 3818 : {

  00000	55		 push	 ebp
  00001	8b ec		 mov	 ebp, esp
  00003	83 ec 58	 sub	 esp, 88			; 00000058H
  00006	a1 00 00 00 00	 mov	 eax, DWORD PTR ___security_cookie
  0000b	33 c5		 xor	 eax, ebp
  0000d	89 45 fc	 mov	 DWORD PTR __$ArrayPad$[ebp], eax
  00010	53		 push	 ebx
  00011	56		 push	 esi
  00012	57		 push	 edi

; 3819 : 	int aIndex = lpMsg->aIndex;

  00013	8b 45 08	 mov	 eax, DWORD PTR _lpMsg$[ebp]
  00016	8b 48 04	 mov	 ecx, DWORD PTR [eax+4]
  00019	89 4d f8	 mov	 DWORD PTR _aIndex$[ebp], ecx

; 3820 : 	char szName[MAX_IDSTRING+1];
; 3821 : 
; 3822 : 	if( aIndex < 0 || aIndex >= MAX_OBJECT)

  0001c	83 7d f8 00	 cmp	 DWORD PTR _aIndex$[ebp], 0
  00020	7c 09		 jl	 SHORT $LN3@DGOptionDa
  00022	81 7d f8 e8 1c
	00 00		 cmp	 DWORD PTR _aIndex$[ebp], 7400 ; 00001ce8H
  00029	7c 05		 jl	 SHORT $LN2@DGOptionDa
$LN3@DGOptionDa:

; 3823 : 		return;

  0002b	e9 a4 00 00 00	 jmp	 $LN5@DGOptionDa
$LN2@DGOptionDa:

; 3824 : 
; 3825 : 	memset(szName, 0, MAX_IDSTRING+1);

  00030	6a 0b		 push	 11			; 0000000bH
  00032	6a 00		 push	 0
  00034	8d 45 ec	 lea	 eax, DWORD PTR _szName$[ebp]
  00037	50		 push	 eax
  00038	e8 00 00 00 00	 call	 _memset
  0003d	83 c4 0c	 add	 esp, 12			; 0000000cH

; 3826 : 	memcpy(szName, lpMsg->Name, MAX_IDSTRING);

  00040	6a 0a		 push	 10			; 0000000aH
  00042	8b 45 08	 mov	 eax, DWORD PTR _lpMsg$[ebp]
  00045	83 c0 08	 add	 eax, 8
  00048	50		 push	 eax
  00049	8d 4d ec	 lea	 ecx, DWORD PTR _szName$[ebp]
  0004c	51		 push	 ecx
  0004d	e8 00 00 00 00	 call	 _memcpy
  00052	83 c4 0c	 add	 esp, 12			; 0000000cH

; 3827 : 
; 3828 : 	szName[MAX_IDSTRING] = '\0';

  00055	b8 01 00 00 00	 mov	 eax, 1
  0005a	6b c8 0a	 imul	 ecx, eax, 10
  0005d	89 4d a8	 mov	 DWORD PTR $T1[ebp], ecx
  00060	83 7d a8 0b	 cmp	 DWORD PTR $T1[ebp], 11	; 0000000bH
  00064	73 02		 jae	 SHORT $LN6@DGOptionDa
  00066	eb 05		 jmp	 SHORT $LN7@DGOptionDa
$LN6@DGOptionDa:
  00068	e8 00 00 00 00	 call	 ___report_rangecheckfailure
$LN7@DGOptionDa:
  0006d	8b 55 a8	 mov	 edx, DWORD PTR $T1[ebp]
  00070	c6 44 15 ec 00	 mov	 BYTE PTR _szName$[ebp+edx], 0

; 3829 : 
; 3830 : 	if( strcmp(gObj[aIndex].Name, szName) != 0 )

  00075	8d 45 ec	 lea	 eax, DWORD PTR _szName$[ebp]
  00078	50		 push	 eax
  00079	69 4d f8 a0 1b
	00 00		 imul	 ecx, DWORD PTR _aIndex$[ebp], 7072
  00080	8b 15 00 00 00
	00		 mov	 edx, DWORD PTR ?gObj@@3PAVOBJECTSTRUCT@@A ; gObj
  00086	8d 44 0a 73	 lea	 eax, DWORD PTR [edx+ecx+115]
  0008a	50		 push	 eax
  0008b	e8 00 00 00 00	 call	 _strcmp
  00090	83 c4 08	 add	 esp, 8
  00093	85 c0		 test	 eax, eax
  00095	74 02		 je	 SHORT $LN4@DGOptionDa

; 3831 : 	{
; 3832 : 		return;

  00097	eb 3b		 jmp	 SHORT $LN5@DGOptionDa
$LN4@DGOptionDa:

; 3833 : 	}
; 3834 : 
; 3835 : #ifdef UPDATE_OPTIONKEY_LEVEL_20080116
; 3836 : 	GCSkillKeySend(aIndex, lpMsg->SkillKeyBuffer, lpMsg->GameOption, lpMsg->QkeyDefine, lpMsg->WkeyDefine, lpMsg->EkeyDefine, lpMsg->ChatWindow, lpMsg->RkeyDefine, lpMsg->QWERLevel);
; 3837 : #else	// UPDATE_OPTIONKEY_LEVEL_20080116	
; 3838 : #ifdef VER_CHATWINDOW_OPTION	
; 3839 : #ifdef ADD_SEASON_3_NEW_UI_20071122 
; 3840 : 	GCSkillKeySend(aIndex, lpMsg->SkillKeyBuffer, lpMsg->GameOption, lpMsg->QkeyDefine, lpMsg->WkeyDefine, lpMsg->EkeyDefine, lpMsg->ChatWindow, lpMsg->RkeyDefine);
; 3841 : #else
; 3842 : 	GCSkillKeySend(aIndex, lpMsg->SkillKeyBuffer, lpMsg->GameOption, lpMsg->QkeyDefine, lpMsg->WkeyDefine, lpMsg->EkeyDefine, lpMsg->ChatWindow);

  00099	8b 45 08	 mov	 eax, DWORD PTR _lpMsg$[ebp]
  0009c	0f b6 48 20	 movzx	 ecx, BYTE PTR [eax+32]
  000a0	51		 push	 ecx
  000a1	8b 55 08	 mov	 edx, DWORD PTR _lpMsg$[ebp]
  000a4	0f b6 42 1f	 movzx	 eax, BYTE PTR [edx+31]
  000a8	50		 push	 eax
  000a9	8b 4d 08	 mov	 ecx, DWORD PTR _lpMsg$[ebp]
  000ac	0f b6 51 1e	 movzx	 edx, BYTE PTR [ecx+30]
  000b0	52		 push	 edx
  000b1	8b 45 08	 mov	 eax, DWORD PTR _lpMsg$[ebp]
  000b4	0f b6 48 1d	 movzx	 ecx, BYTE PTR [eax+29]
  000b8	51		 push	 ecx
  000b9	8b 55 08	 mov	 edx, DWORD PTR _lpMsg$[ebp]
  000bc	0f b6 42 1c	 movzx	 eax, BYTE PTR [edx+28]
  000c0	50		 push	 eax
  000c1	8b 4d 08	 mov	 ecx, DWORD PTR _lpMsg$[ebp]
  000c4	83 c1 12	 add	 ecx, 18			; 00000012H
  000c7	51		 push	 ecx
  000c8	8b 55 f8	 mov	 edx, DWORD PTR _aIndex$[ebp]
  000cb	52		 push	 edx
  000cc	e8 00 00 00 00	 call	 ?GCSkillKeySend@@YAXHPAEEEEEE@Z ; GCSkillKeySend
  000d1	83 c4 1c	 add	 esp, 28			; 0000001cH
$LN5@DGOptionDa:

; 3843 : #endif
; 3844 : #else
; 3845 : 	GCSkillKeySend(aIndex, lpMsg->SkillKeyBuffer, lpMsg->GameOption, lpMsg->QkeyDefine, lpMsg->WkeyDefine, lpMsg->EkeyDefine);
; 3846 : #endif
; 3847 : #endif	// UPDATE_OPTIONKEY_LEVEL_20080116
; 3848 : }

  000d4	5f		 pop	 edi
  000d5	5e		 pop	 esi
  000d6	5b		 pop	 ebx
  000d7	8b 4d fc	 mov	 ecx, DWORD PTR __$ArrayPad$[ebp]
  000da	33 cd		 xor	 ecx, ebp
  000dc	e8 00 00 00 00	 call	 @__security_check_cookie@4
  000e1	8b e5		 mov	 esp, ebp
  000e3	5d		 pop	 ebp
  000e4	c3		 ret	 0
?DGOptionDataRecv@@YAXPAUSDHP_SKILLKEYDATA_SEND@@@Z ENDP ; DGOptionDataRecv
_TEXT	ENDS
; Function compile flags: /Odtp /ZI
; File C:\Mu Online\Mu-GS-Webzen-MC-10093\GameServer\DSProtocol.cpp
;	COMDAT ?GDGetWarehouseNoItem@@YAXPAUSDHP_GETWAREHOUSEDB_RESULT@@@Z
_TEXT	SEGMENT
$T1 = -100						; size = 4
_lpObj$ = -32						; size = 4
_pResult$ = -28						; size = 8
_aIndex$ = -20						; size = 4
_szId$ = -16						; size = 11
__$ArrayPad$ = -4					; size = 4
_lpMsg$ = 8						; size = 4
?GDGetWarehouseNoItem@@YAXPAUSDHP_GETWAREHOUSEDB_RESULT@@@Z PROC ; GDGetWarehouseNoItem, COMDAT

; 2715 : {

  00000	55		 push	 ebp
  00001	8b ec		 mov	 ebp, esp
  00003	83 ec 64	 sub	 esp, 100		; 00000064H
  00006	a1 00 00 00 00	 mov	 eax, DWORD PTR ___security_cookie
  0000b	33 c5		 xor	 eax, ebp
  0000d	89 45 fc	 mov	 DWORD PTR __$ArrayPad$[ebp], eax
  00010	53		 push	 ebx
  00011	56		 push	 esi
  00012	57		 push	 edi

; 2716 : 	char szId[MAX_IDSTRING+1];
; 2717 : 	int  aIndex=lpMsg->aIndex;

  00013	8b 45 08	 mov	 eax, DWORD PTR _lpMsg$[ebp]
  00016	0f bf 48 0e	 movsx	 ecx, WORD PTR [eax+14]
  0001a	89 4d ec	 mov	 DWORD PTR _aIndex$[ebp], ecx

; 2718 : 
; 2719 : 	PMSG_TALKRESULT		pResult;
; 2720 : 
; 2721 : 	szId[MAX_IDSTRING] = '\0';

  0001d	b8 01 00 00 00	 mov	 eax, 1
  00022	6b c8 0a	 imul	 ecx, eax, 10
  00025	89 4d 9c	 mov	 DWORD PTR $T1[ebp], ecx
  00028	83 7d 9c 0b	 cmp	 DWORD PTR $T1[ebp], 11	; 0000000bH
  0002c	73 02		 jae	 SHORT $LN6@GDGetWareh
  0002e	eb 05		 jmp	 SHORT $LN7@GDGetWareh
$LN6@GDGetWareh:
  00030	e8 00 00 00 00	 call	 ___report_rangecheckfailure
$LN7@GDGetWareh:
  00035	8b 55 9c	 mov	 edx, DWORD PTR $T1[ebp]
  00038	c6 44 15 f0 00	 mov	 BYTE PTR _szId$[ebp+edx], 0

; 2722 : 	memcpy(szId, lpMsg->AccountID, MAX_IDSTRING);

  0003d	6a 0a		 push	 10			; 0000000aH
  0003f	8b 45 08	 mov	 eax, DWORD PTR _lpMsg$[ebp]
  00042	83 c0 03	 add	 eax, 3
  00045	50		 push	 eax
  00046	8d 4d f0	 lea	 ecx, DWORD PTR _szId$[ebp]
  00049	51		 push	 ecx
  0004a	e8 00 00 00 00	 call	 _memcpy
  0004f	83 c4 0c	 add	 esp, 12			; 0000000cH

; 2723 : 	if( gObjIsAccontConnect(aIndex, szId) == FALSE )

  00052	8d 45 f0	 lea	 eax, DWORD PTR _szId$[ebp]
  00055	50		 push	 eax
  00056	8b 4d ec	 mov	 ecx, DWORD PTR _aIndex$[ebp]
  00059	51		 push	 ecx
  0005a	e8 00 00 00 00	 call	 ?gObjIsAccontConnect@@YAHHPAD@Z ; gObjIsAccontConnect
  0005f	83 c4 08	 add	 esp, 8
  00062	85 c0		 test	 eax, eax
  00064	75 29		 jne	 SHORT $LN2@GDGetWareh

; 2724 : 	{
; 2725 : 		LogAddC(LOGC_RED, lMsg.Get(431), szId, aIndex);

  00066	8b 45 ec	 mov	 eax, DWORD PTR _aIndex$[ebp]
  00069	50		 push	 eax
  0006a	8d 4d f0	 lea	 ecx, DWORD PTR _szId$[ebp]
  0006d	51		 push	 ecx
  0006e	68 af 01 00 00	 push	 431			; 000001afH
  00073	b9 00 00 00 00	 mov	 ecx, OFFSET ?lMsg@@3VCMsg@@A ; lMsg
  00078	ff 15 00 00 00
	00		 call	 DWORD PTR __imp_?Get@CMsg@@QAEPADH@Z
  0007e	50		 push	 eax
  0007f	6a 02		 push	 2
  00081	ff 15 00 00 00
	00		 call	 DWORD PTR ?LogAddC@@3P6AXEPADZZA ; LogAddC
  00087	83 c4 10	 add	 esp, 16			; 00000010H

; 2726 : 		return;

  0008a	e9 c4 00 00 00	 jmp	 $LN5@GDGetWareh
$LN2@GDGetWareh:

; 2727 : 	}
; 2728 : 	LPOBJECTSTRUCT	lpObj;
; 2729 : 
; 2730 : 	lpObj = &gObj[aIndex];

  0008f	69 45 ec a0 1b
	00 00		 imul	 eax, DWORD PTR _aIndex$[ebp], 7072
  00096	03 05 00 00 00
	00		 add	 eax, DWORD PTR ?gObj@@3PAVOBJECTSTRUCT@@A ; gObj
  0009c	89 45 e0	 mov	 DWORD PTR _lpObj$[ebp], eax

; 2731 : 	if( lpObj->m_IfState.type == I_WAREHOUSE )

  0009f	8b 45 e0	 mov	 eax, DWORD PTR _lpObj$[ebp]
  000a2	8a 88 56 0c 00
	00		 mov	 cl, BYTE PTR [eax+3158]
  000a8	c0 e9 04	 shr	 cl, 4
  000ab	80 e1 0f	 and	 cl, 15			; 0000000fH
  000ae	0f b6 d1	 movzx	 edx, cl
  000b1	83 fa 06	 cmp	 edx, 6
  000b4	0f 85 85 00 00
	00		 jne	 $LN3@GDGetWareh

; 2732 : 	{
; 2733 : 		if( lpObj->m_IfState.state == 0 )

  000ba	8b 45 e0	 mov	 eax, DWORD PTR _lpObj$[ebp]
  000bd	8a 88 56 0c 00
	00		 mov	 cl, BYTE PTR [eax+3158]
  000c3	c0 e9 02	 shr	 cl, 2
  000c6	80 e1 03	 and	 cl, 3
  000c9	0f b6 d1	 movzx	 edx, cl
  000cc	85 d2		 test	 edx, edx
  000ce	75 6f		 jne	 SHORT $LN3@GDGetWareh

; 2734 : 		{
; 2735 : 			lpObj->m_IfState.state	= 1;

  000d0	8b 45 e0	 mov	 eax, DWORD PTR _lpObj$[ebp]
  000d3	8a 88 56 0c 00
	00		 mov	 cl, BYTE PTR [eax+3158]
  000d9	80 e1 f3	 and	 cl, 243			; 000000f3H
  000dc	80 c9 04	 or	 cl, 4
  000df	8b 55 e0	 mov	 edx, DWORD PTR _lpObj$[ebp]
  000e2	88 8a 56 0c 00
	00		 mov	 BYTE PTR [edx+3158], cl

; 2736 : 			lpObj->WarehouseSave	= TRUE;

  000e8	8b 45 e0	 mov	 eax, DWORD PTR _lpObj$[ebp]
  000eb	c7 80 a8 0c 00
	00 01 00 00 00	 mov	 DWORD PTR [eax+3240], 1

; 2737 : 
; 2738 : 			pResult.h.c        = PMHCE_BYTE;

  000f5	c6 45 e4 c3	 mov	 BYTE PTR _pResult$[ebp], 195 ; 000000c3H

; 2739 : 			pResult.h.headcode = 0x30;

  000f9	c6 45 e6 30	 mov	 BYTE PTR _pResult$[ebp+2], 48 ; 00000030H

; 2740 : 			pResult.h.size     = sizeof( pResult );

  000fd	c6 45 e5 08	 mov	 BYTE PTR _pResult$[ebp+1], 8

; 2741 : 			pResult.result     = 0x02;

  00101	c6 45 e7 02	 mov	 BYTE PTR _pResult$[ebp+3], 2

; 2742 : 			DataSend(lpObj->m_Index, (LPBYTE)&pResult, pResult.h.size);

  00105	0f b6 45 e5	 movzx	 eax, BYTE PTR _pResult$[ebp+1]
  00109	50		 push	 eax
  0010a	8d 4d e4	 lea	 ecx, DWORD PTR _pResult$[ebp]
  0010d	51		 push	 ecx
  0010e	8b 55 e0	 mov	 edx, DWORD PTR _lpObj$[ebp]
  00111	8b 02		 mov	 eax, DWORD PTR [edx]
  00113	50		 push	 eax
  00114	e8 00 00 00 00	 call	 ?DataSend@@YAHHPAEK@Z	; DataSend
  00119	83 c4 0c	 add	 esp, 12			; 0000000cH

; 2743 : 			LogAddC(LOGC_RED, lMsg.Get(432), lpObj->Name);

  0011c	8b 45 e0	 mov	 eax, DWORD PTR _lpObj$[ebp]
  0011f	83 c0 73	 add	 eax, 115		; 00000073H
  00122	50		 push	 eax
  00123	68 b0 01 00 00	 push	 432			; 000001b0H
  00128	b9 00 00 00 00	 mov	 ecx, OFFSET ?lMsg@@3VCMsg@@A ; lMsg
  0012d	ff 15 00 00 00
	00		 call	 DWORD PTR __imp_?Get@CMsg@@QAEPADH@Z
  00133	50		 push	 eax
  00134	6a 02		 push	 2
  00136	ff 15 00 00 00
	00		 call	 DWORD PTR ?LogAddC@@3P6AXEPADZZA ; LogAddC
  0013c	83 c4 0c	 add	 esp, 12			; 0000000cH
$LN3@GDGetWareh:

; 2744 : 			
; 2745 : #ifdef MODIFY_NEW_ACCOUNT_WAREHOUSE_ZEN_BUGFIX_20080812	// 젠 보유량도 보내주도록 수정
; 2746 : 			PMSG_MONEY	pMsg;
; 2747 : 			
; 2748 : 			PHeadSetB((LPBYTE)&pMsg, 0x81, sizeof( pMsg ));
; 2749 : 			pMsg.Result     = 0x01;
; 2750 : 			pMsg.iMoney		= lpObj->Money; 
; 2751 : 			pMsg.wMoney		= lpObj->WarehouseMoney;
; 2752 : 			DataSend( aIndex, (LPBYTE)&pMsg, pMsg.h.size);
; 2753 : #endif // MODIFY_NEW_ACCOUNT_WAREHOUSE_ZEN_BUGFIX_20080812
; 2754 : 		}
; 2755 : 	}
; 2756 : 
; 2757 : 	lpObj->LoadWareHouseInfo = TRUE;

  0013f	8b 45 e0	 mov	 eax, DWORD PTR _lpObj$[ebp]
  00142	c6 80 88 0e 00
	00 01		 mov	 BYTE PTR [eax+3720], 1

; 2758 : 
; 2759 : #ifdef WAREHOUSE_ITEMCOPY_BUG_FIX
; 2760 : 	lpObj->m_ReqWarehouseOpen = FALSE;

  00149	8b 45 e0	 mov	 eax, DWORD PTR _lpObj$[ebp]
  0014c	c6 80 24 0f 00
	00 00		 mov	 BYTE PTR [eax+3876], 0
$LN5@GDGetWareh:

; 2761 : #endif
; 2762 : }

  00153	5f		 pop	 edi
  00154	5e		 pop	 esi
  00155	5b		 pop	 ebx
  00156	8b 4d fc	 mov	 ecx, DWORD PTR __$ArrayPad$[ebp]
  00159	33 cd		 xor	 ecx, ebp
  0015b	e8 00 00 00 00	 call	 @__security_check_cookie@4
  00160	8b e5		 mov	 esp, ebp
  00162	5d		 pop	 ebp
  00163	c3		 ret	 0
?GDGetWarehouseNoItem@@YAXPAUSDHP_GETWAREHOUSEDB_RESULT@@@Z ENDP ; GDGetWarehouseNoItem
_TEXT	ENDS
; Function compile flags: /Odtp /ZI
; File C:\Mu Online\Mu-GS-Webzen-MC-10093\GameServer\DSProtocol.cpp
;	COMDAT ?DGGetWarehouseList@@YAXPAUSDHP_GETWAREHOUSEDB_SAVE@@@Z
_TEXT	SEGMENT
$T1 = -296						; size = 4
_loWord$2 = -228					; size = 2
_hiWord$3 = -224					; size = 2
_n$4 = -220						; size = 4
_dbsize$ = -216						; size = 4
_item$ = -212						; size = 168
_OptionData$ = -41					; size = 1
__type$ = -40						; size = 4
_itype$ = -36						; size = 4
_lpObj$ = -32						; size = 4
_pResult$ = -28						; size = 8
_aIndex$ = -20						; size = 4
_szId$ = -16						; size = 11
__$ArrayPad$ = -4					; size = 4
_lpMsg$ = 8						; size = 4
?DGGetWarehouseList@@YAXPAUSDHP_GETWAREHOUSEDB_SAVE@@@Z PROC ; DGGetWarehouseList, COMDAT

; 2297 : {

  00000	55		 push	 ebp
  00001	8b ec		 mov	 ebp, esp
  00003	81 ec 28 01 00
	00		 sub	 esp, 296		; 00000128H
  00009	a1 00 00 00 00	 mov	 eax, DWORD PTR ___security_cookie
  0000e	33 c5		 xor	 eax, ebp
  00010	89 45 fc	 mov	 DWORD PTR __$ArrayPad$[ebp], eax
  00013	53		 push	 ebx
  00014	56		 push	 esi
  00015	57		 push	 edi

; 2298 : 	char	szId[MAX_IDSTRING+1];
; 2299 : 	int		aIndex=0;

  00016	c7 45 ec 00 00
	00 00		 mov	 DWORD PTR _aIndex$[ebp], 0

; 2300 : 	PMSG_TALKRESULT		pResult;
; 2301 : 	
; 2302 : 	szId[MAX_IDSTRING] = '\0';

  0001d	b8 01 00 00 00	 mov	 eax, 1
  00022	6b c8 0a	 imul	 ecx, eax, 10
  00025	89 8d d8 fe ff
	ff		 mov	 DWORD PTR $T1[ebp], ecx
  0002b	83 bd d8 fe ff
	ff 0b		 cmp	 DWORD PTR $T1[ebp], 11	; 0000000bH
  00032	73 02		 jae	 SHORT $LN39@DGGetWareh
  00034	eb 05		 jmp	 SHORT $LN40@DGGetWareh
$LN39@DGGetWareh:
  00036	e8 00 00 00 00	 call	 ___report_rangecheckfailure
$LN40@DGGetWareh:
  0003b	8b 95 d8 fe ff
	ff		 mov	 edx, DWORD PTR $T1[ebp]
  00041	c6 44 15 f0 00	 mov	 BYTE PTR _szId$[ebp+edx], 0

; 2303 : 	memcpy(szId, lpMsg->AccountID, MAX_IDSTRING);

  00046	6a 0a		 push	 10			; 0000000aH
  00048	8b 45 08	 mov	 eax, DWORD PTR _lpMsg$[ebp]
  0004b	83 c0 04	 add	 eax, 4
  0004e	50		 push	 eax
  0004f	8d 4d f0	 lea	 ecx, DWORD PTR _szId$[ebp]
  00052	51		 push	 ecx
  00053	e8 00 00 00 00	 call	 _memcpy
  00058	83 c4 0c	 add	 esp, 12			; 0000000cH

; 2304 : 	aIndex = (int)lpMsg->aIndex;

  0005b	8b 45 08	 mov	 eax, DWORD PTR _lpMsg$[ebp]
  0005e	0f bf 48 0e	 movsx	 ecx, WORD PTR [eax+14]
  00062	89 4d ec	 mov	 DWORD PTR _aIndex$[ebp], ecx

; 2305 : 
; 2306 : 	if( gObjIsAccontConnect(aIndex, szId) == FALSE )

  00065	8d 45 f0	 lea	 eax, DWORD PTR _szId$[ebp]
  00068	50		 push	 eax
  00069	8b 4d ec	 mov	 ecx, DWORD PTR _aIndex$[ebp]
  0006c	51		 push	 ecx
  0006d	e8 00 00 00 00	 call	 ?gObjIsAccontConnect@@YAHHPAD@Z ; gObjIsAccontConnect
  00072	83 c4 08	 add	 esp, 8
  00075	85 c0		 test	 eax, eax
  00077	75 29		 jne	 SHORT $LN5@DGGetWareh

; 2307 : 	{
; 2308 : 		LogAddC(LOGC_RED, lMsg.Get(431), szId, aIndex);

  00079	8b 45 ec	 mov	 eax, DWORD PTR _aIndex$[ebp]
  0007c	50		 push	 eax
  0007d	8d 4d f0	 lea	 ecx, DWORD PTR _szId$[ebp]
  00080	51		 push	 ecx
  00081	68 af 01 00 00	 push	 431			; 000001afH
  00086	b9 00 00 00 00	 mov	 ecx, OFFSET ?lMsg@@3VCMsg@@A ; lMsg
  0008b	ff 15 00 00 00
	00		 call	 DWORD PTR __imp_?Get@CMsg@@QAEPADH@Z
  00091	50		 push	 eax
  00092	6a 02		 push	 2
  00094	ff 15 00 00 00
	00		 call	 DWORD PTR ?LogAddC@@3P6AXEPADZZA ; LogAddC
  0009a	83 c4 10	 add	 esp, 16			; 00000010H

; 2309 : 		return;

  0009d	e9 e4 06 00 00	 jmp	 $LN1@DGGetWareh
$LN5@DGGetWareh:

; 2310 : 	}
; 2311 : 	LPOBJECTSTRUCT	lpObj;
; 2312 : 
; 2313 : 	lpObj = &gObj[aIndex];

  000a2	69 45 ec a0 1b
	00 00		 imul	 eax, DWORD PTR _aIndex$[ebp], 7072
  000a9	03 05 00 00 00
	00		 add	 eax, DWORD PTR ?gObj@@3PAVOBJECTSTRUCT@@A ; gObj
  000af	89 45 e0	 mov	 DWORD PTR _lpObj$[ebp], eax

; 2314 : 
; 2315 : 	int		itype, _type;
; 2316 : 	BYTE	OptionData;
; 2317 : 	CItem	item;

  000b2	8d 8d 2c ff ff
	ff		 lea	 ecx, DWORD PTR _item$[ebp]
  000b8	e8 00 00 00 00	 call	 ??0CItem@@QAE@XZ	; CItem::CItem

; 2318 : 	
; 2319 : 	memset(gObj[aIndex].pWarehouseMap, 0xFF, MAX_WAREHOUSEITEMS);

  000bd	6a 78		 push	 120			; 00000078H
  000bf	68 ff 00 00 00	 push	 255			; 000000ffH
  000c4	69 45 ec a0 1b
	00 00		 imul	 eax, DWORD PTR _aIndex$[ebp], 7072
  000cb	8b 0d 00 00 00
	00		 mov	 ecx, DWORD PTR ?gObj@@3PAVOBJECTSTRUCT@@A ; gObj
  000d1	8b 94 01 98 0c
	00 00		 mov	 edx, DWORD PTR [ecx+eax+3224]
  000d8	52		 push	 edx
  000d9	e8 00 00 00 00	 call	 _memset
  000de	83 c4 0c	 add	 esp, 12			; 0000000cH

; 2320 : 	gObj[aIndex].WarehouseMoney = lpMsg->Money;

  000e1	69 45 ec a0 1b
	00 00		 imul	 eax, DWORD PTR _aIndex$[ebp], 7072
  000e8	8b 0d 00 00 00
	00		 mov	 ecx, DWORD PTR ?gObj@@3PAVOBJECTSTRUCT@@A ; gObj
  000ee	8b 55 08	 mov	 edx, DWORD PTR _lpMsg$[ebp]
  000f1	8b 52 10	 mov	 edx, DWORD PTR [edx+16]
  000f4	89 94 01 a4 0c
	00 00		 mov	 DWORD PTR [ecx+eax+3236], edx

; 2321 : 	gObj[aIndex].WarehousePW	= lpMsg->pw;

  000fb	69 45 ec a0 1b
	00 00		 imul	 eax, DWORD PTR _aIndex$[ebp], 7072
  00102	8b 0d 00 00 00
	00		 mov	 ecx, DWORD PTR ?gObj@@3PAVOBJECTSTRUCT@@A ; gObj
  00108	8b 55 08	 mov	 edx, DWORD PTR _lpMsg$[ebp]
  0010b	66 8b 92 c6 04
	00 00		 mov	 dx, WORD PTR [edx+1222]
  00112	66 89 94 01 9e
	0c 00 00	 mov	 WORD PTR [ecx+eax+3230], dx

; 2322 : 	
; 2323 : 	int dbsize = MAX_ITEMDBBYTE_V00;

  0011a	c7 85 28 ff ff
	ff 07 00 00 00	 mov	 DWORD PTR _dbsize$[ebp], 7

; 2324 : 	
; 2325 : #ifdef ITEM_DBSIZE_EXTEND_20050706
; 2326 : 	if( lpMsg->DbVersion >= 0x03 ) {
; 2327 : 		dbsize = MAX_ITEMDBBYTE;
; 2328 : 	}
; 2329 : 	else if (lpMsg->DbVersion >= 0x01) {
; 2330 : 		dbsize = MAX_ITEMDBBYTE_V02;
; 2331 : 	}
; 2332 : #else
; 2333 : #ifdef SETITEM_BUFFER_CLEAR
; 2334 : 	if( lpMsg->DbVersion != 0x00 ) dbsize = MAX_ITEMDBBYTE;

  00124	8b 45 08	 mov	 eax, DWORD PTR _lpMsg$[ebp]
  00127	0f b6 88 c4 04
	00 00		 movzx	 ecx, BYTE PTR [eax+1220]
  0012e	85 c9		 test	 ecx, ecx
  00130	74 0a		 je	 SHORT $LN6@DGGetWareh
  00132	c7 85 28 ff ff
	ff 0a 00 00 00	 mov	 DWORD PTR _dbsize$[ebp], 10 ; 0000000aH
$LN6@DGGetWareh:

; 2335 : #else
; 2336 : 	if( lpMsg->DbVersion == 0x01 ) dbsize = MAX_ITEMDBBYTE;
; 2337 : #endif
; 2338 : #endif
; 2339 : 
; 2340 : 	for( int n=0; n<MAX_WAREHOUSEITEMS; n++)

  0013c	c7 85 24 ff ff
	ff 00 00 00 00	 mov	 DWORD PTR _n$4[ebp], 0
  00146	eb 0f		 jmp	 SHORT $LN4@DGGetWareh
$LN2@DGGetWareh:
  00148	8b 85 24 ff ff
	ff		 mov	 eax, DWORD PTR _n$4[ebp]
  0014e	83 c0 01	 add	 eax, 1
  00151	89 85 24 ff ff
	ff		 mov	 DWORD PTR _n$4[ebp], eax
$LN4@DGGetWareh:
  00157	83 bd 24 ff ff
	ff 78		 cmp	 DWORD PTR _n$4[ebp], 120 ; 00000078H
  0015e	0f 8d 26 05 00
	00		 jge	 $LN3@DGGetWareh

; 2341 : 	{
; 2342 : 		itype = lpMsg->dbItems[n*dbsize];

  00164	8b 85 24 ff ff
	ff		 mov	 eax, DWORD PTR _n$4[ebp]
  0016a	0f af 85 28 ff
	ff ff		 imul	 eax, DWORD PTR _dbsize$[ebp]
  00171	8b 4d 08	 mov	 ecx, DWORD PTR _lpMsg$[ebp]
  00174	0f b6 54 01 14	 movzx	 edx, BYTE PTR [ecx+eax+20]
  00179	89 55 dc	 mov	 DWORD PTR _itype$[ebp], edx

; 2343 : 
; 2344 : #ifdef ITEM_DBSIZE_EXTEND_20050706
; 2345 : 		if( dbsize == MAX_ITEMDBBYTE ) {
; 2346 : #ifdef ITEM_INDEX_EXTEND_20050706
; 2347 : //			itype |= (BYTE)lpMsg->dbInventory[n*ItemDbByte];
; 2348 : 			itype |= (lpMsg->dbItems[(n*dbsize)+9]&0xF0)<<5;
; 2349 : 			itype |= (lpMsg->dbItems[(n*dbsize)+7]&0x80)<<1;
; 2350 : 			_type = itype;
; 2351 : #endif
; 2352 : 		}
; 2353 : 		else if (dbsize == MAX_ITEMDBBYTE_V02)
; 2354 : #else
; 2355 : 		if( dbsize == 10 )

  0017c	83 bd 28 ff ff
	ff 0a		 cmp	 DWORD PTR _dbsize$[ebp], 10 ; 0000000aH
  00183	75 30		 jne	 SHORT $LN7@DGGetWareh

; 2356 : #endif
; 2357 : 		{
; 2358 : 			if( (lpMsg->dbItems[(n*dbsize)+7]>>7)&1 ) itype += 256;

  00185	8b 85 24 ff ff
	ff		 mov	 eax, DWORD PTR _n$4[ebp]
  0018b	0f af 85 28 ff
	ff ff		 imul	 eax, DWORD PTR _dbsize$[ebp]
  00192	8b 4d 08	 mov	 ecx, DWORD PTR _lpMsg$[ebp]
  00195	0f b6 54 01 1b	 movzx	 edx, BYTE PTR [ecx+eax+27]
  0019a	c1 fa 07	 sar	 edx, 7
  0019d	83 e2 01	 and	 edx, 1
  001a0	74 0b		 je	 SHORT $LN9@DGGetWareh
  001a2	8b 45 dc	 mov	 eax, DWORD PTR _itype$[ebp]
  001a5	05 00 01 00 00	 add	 eax, 256		; 00000100H
  001aa	89 45 dc	 mov	 DWORD PTR _itype$[ebp], eax
$LN9@DGGetWareh:

; 2359 : 
; 2360 : #ifdef ITEM_INDEX_EXTEND_20050706
; 2361 : 			_type = ((itype/32)*MAX_ITEM_INDEX)+(itype%32);
; 2362 : #else
; 2363 : 			_type = itype;

  001ad	8b 45 dc	 mov	 eax, DWORD PTR _itype$[ebp]
  001b0	89 45 d8	 mov	 DWORD PTR __type$[ebp], eax

; 2364 : #endif
; 2365 : 		}

  001b3	eb 24		 jmp	 SHORT $LN8@DGGetWareh
$LN7@DGGetWareh:

; 2366 : 		else
; 2367 : 		{
; 2368 : 			_type = ((itype/16)*MAX_ITEM_INDEX)+(itype%16);

  001b5	8b 45 dc	 mov	 eax, DWORD PTR _itype$[ebp]
  001b8	99		 cdq
  001b9	83 e2 0f	 and	 edx, 15			; 0000000fH
  001bc	03 c2		 add	 eax, edx
  001be	c1 f8 04	 sar	 eax, 4
  001c1	c1 e0 05	 shl	 eax, 5
  001c4	8b 4d dc	 mov	 ecx, DWORD PTR _itype$[ebp]
  001c7	81 e1 0f 00 00
	80		 and	 ecx, -2147483633	; 8000000fH
  001cd	79 05		 jns	 SHORT $LN41@DGGetWareh
  001cf	49		 dec	 ecx
  001d0	83 c9 f0	 or	 ecx, -16		; fffffff0H
  001d3	41		 inc	 ecx
$LN41@DGGetWareh:
  001d4	03 c1		 add	 eax, ecx
  001d6	89 45 d8	 mov	 DWORD PTR __type$[ebp], eax
$LN8@DGGetWareh:

; 2369 : 		}
; 2370 : 
; 2371 : 		gObj[aIndex].pWarehouse[n].Clear();

  001d9	69 45 ec a0 1b
	00 00		 imul	 eax, DWORD PTR _aIndex$[ebp], 7072
  001e0	69 8d 24 ff ff
	ff a8 00 00 00	 imul	 ecx, DWORD PTR _n$4[ebp], 168
  001ea	8b 15 00 00 00
	00		 mov	 edx, DWORD PTR ?gObj@@3PAVOBJECTSTRUCT@@A ; gObj
  001f0	03 8c 02 94 0c
	00 00		 add	 ecx, DWORD PTR [edx+eax+3220]
  001f7	e8 00 00 00 00	 call	 ?Clear@CItem@@QAEXXZ	; CItem::Clear

; 2372 : 		
; 2373 : 		// 2003-01-08 : 잘못된 타입의 창고 아이템 검사 추가
; 2374 : 		// type == 0xef extype = 0x80 현재 의미없는 아이템 타입 
; 2375 : #ifdef ITEM_INDEX_EXTEND_20050706
; 2376 : 		if( dbsize >= MAX_ITEMDBBYTE ) {
; 2377 : 			if( (lpMsg->dbItems[n*dbsize] == 0xFF)
; 2378 : 				&& (lpMsg->dbItems[(n*dbsize)+9]&0xF0) == 0xF0
; 2379 : 				&& (lpMsg->dbItems[(n*dbsize)+7]&0x80) == 0x80
; 2380 : 				) 
; 2381 : 			{
; 2382 : 				// 저장할 때 아이템이 없으면 모든 비트를 1로 set 하므로 이런 식별이 가능
; 2383 : 				itype = -1;
; 2384 : 			}
; 2385 : 		}
; 2386 : 		else if (dbsize >= MAX_ITEMDBBYTE_V02) {
; 2387 : 			if( (lpMsg->dbItems[n*dbsize] == 0xFF) && (lpMsg->dbItems[(n*dbsize)+7]&0x80) == 0x80) 
; 2388 : 			{
; 2389 : 				itype = -1;
; 2390 : 			}
; 2391 : 		}
; 2392 : 		else {
; 2393 : 			if(lpMsg->dbItems[n*dbsize] == 0xFF) 
; 2394 : 			{
; 2395 : 				itype = -1;
; 2396 : 			}
; 2397 : 		}
; 2398 : #else
; 2399 : #ifdef INVENTORY_EMPTYSLOT_CHECK_20050217
; 2400 : 		if( (lpMsg->dbItems[n*dbsize] == 0xFF) && (lpMsg->dbItems[(n*dbsize)+7]&0x80) == 0x80) {

  001fc	8b 85 24 ff ff
	ff		 mov	 eax, DWORD PTR _n$4[ebp]
  00202	0f af 85 28 ff
	ff ff		 imul	 eax, DWORD PTR _dbsize$[ebp]
  00209	8b 4d 08	 mov	 ecx, DWORD PTR _lpMsg$[ebp]
  0020c	0f b6 54 01 14	 movzx	 edx, BYTE PTR [ecx+eax+20]
  00211	81 fa ff 00 00
	00		 cmp	 edx, 255		; 000000ffH
  00217	75 24		 jne	 SHORT $LN10@DGGetWareh
  00219	8b 85 24 ff ff
	ff		 mov	 eax, DWORD PTR _n$4[ebp]
  0021f	0f af 85 28 ff
	ff ff		 imul	 eax, DWORD PTR _dbsize$[ebp]
  00226	8b 4d 08	 mov	 ecx, DWORD PTR _lpMsg$[ebp]
  00229	0f b6 54 01 1b	 movzx	 edx, BYTE PTR [ecx+eax+27]
  0022e	81 e2 80 00 00
	00		 and	 edx, 128		; 00000080H
  00234	74 07		 je	 SHORT $LN10@DGGetWareh

; 2401 : #else
; 2402 : 		if( (lpMsg->dbItems[n*dbsize] == 0xFF) ) {
; 2403 : #endif
; 2404 : 			itype = -1;

  00236	c7 45 dc ff ff
	ff ff		 mov	 DWORD PTR _itype$[ebp], -1
$LN10@DGGetWareh:

; 2405 : 		}
; 2406 : #endif
; 2407 : 
; 2408 : 		if( !IsItem(_type) )

  0023d	8b 45 d8	 mov	 eax, DWORD PTR __type$[ebp]
  00240	50		 push	 eax
  00241	e8 00 00 00 00	 call	 ?IsItem@@YAHH@Z		; IsItem
  00246	83 c4 04	 add	 esp, 4
  00249	85 c0		 test	 eax, eax
  0024b	75 07		 jne	 SHORT $LN11@DGGetWareh

; 2409 : 		{
; 2410 : 			itype = -1;

  0024d	c7 45 dc ff ff
	ff ff		 mov	 DWORD PTR _itype$[ebp], -1
$LN11@DGGetWareh:

; 2411 : 		}
; 2412 : 
; 2413 : 		if( _type == MAKE_ITEMNUM(14,17) || _type == MAKE_ITEMNUM(14,18) )

  00254	6a 11		 push	 17			; 00000011H
  00256	6a 0e		 push	 14			; 0000000eH
  00258	e8 00 00 00 00	 call	 ?MakeItemNumber@@YAHHH@Z ; MakeItemNumber
  0025d	83 c4 08	 add	 esp, 8
  00260	39 45 d8	 cmp	 DWORD PTR __type$[ebp], eax
  00263	74 11		 je	 SHORT $LN13@DGGetWareh
  00265	6a 12		 push	 18			; 00000012H
  00267	6a 0e		 push	 14			; 0000000eH
  00269	e8 00 00 00 00	 call	 ?MakeItemNumber@@YAHHH@Z ; MakeItemNumber
  0026e	83 c4 08	 add	 esp, 8
  00271	39 45 d8	 cmp	 DWORD PTR __type$[ebp], eax
  00274	75 20		 jne	 SHORT $LN14@DGGetWareh
$LN13@DGGetWareh:

; 2414 : 		{	// 악마의 열쇠, 눈의 경우에는 내구도가 0인건 다 무시한다			
; 2415 : 			if( lpMsg->dbItems[(n*dbsize)+2] == 0 )

  00276	8b 85 24 ff ff
	ff		 mov	 eax, DWORD PTR _n$4[ebp]
  0027c	0f af 85 28 ff
	ff ff		 imul	 eax, DWORD PTR _dbsize$[ebp]
  00283	8b 4d 08	 mov	 ecx, DWORD PTR _lpMsg$[ebp]
  00286	0f b6 54 01 16	 movzx	 edx, BYTE PTR [ecx+eax+22]
  0028b	85 d2		 test	 edx, edx
  0028d	75 07		 jne	 SHORT $LN14@DGGetWareh

; 2416 : 			{
; 2417 : 				_type = -1;

  0028f	c7 45 d8 ff ff
	ff ff		 mov	 DWORD PTR __type$[ebp], -1
$LN14@DGGetWareh:

; 2418 : 			}
; 2419 : 		}
; 2420 : 
; 2421 : 		if( _type == MAKE_ITEMNUM(14,19) )

  00296	6a 13		 push	 19			; 00000013H
  00298	6a 0e		 push	 14			; 0000000eH
  0029a	e8 00 00 00 00	 call	 ?MakeItemNumber@@YAHHH@Z ; MakeItemNumber
  0029f	83 c4 08	 add	 esp, 8
  002a2	39 45 d8	 cmp	 DWORD PTR __type$[ebp], eax
  002a5	75 24		 jne	 SHORT $LN16@DGGetWareh

; 2422 : 		{	// 악마의 초대권의 경우에는 내구도가 255인건 다 무시한다			
; 2423 : 			if( lpMsg->dbItems[(n*dbsize)+2] == 255 )

  002a7	8b 85 24 ff ff
	ff		 mov	 eax, DWORD PTR _n$4[ebp]
  002ad	0f af 85 28 ff
	ff ff		 imul	 eax, DWORD PTR _dbsize$[ebp]
  002b4	8b 4d 08	 mov	 ecx, DWORD PTR _lpMsg$[ebp]
  002b7	0f b6 54 01 16	 movzx	 edx, BYTE PTR [ecx+eax+22]
  002bc	81 fa ff 00 00
	00		 cmp	 edx, 255		; 000000ffH
  002c2	75 07		 jne	 SHORT $LN16@DGGetWareh

; 2424 : 			{
; 2425 : 				itype = -1;

  002c4	c7 45 dc ff ff
	ff ff		 mov	 DWORD PTR _itype$[ebp], -1
$LN16@DGGetWareh:

; 2426 : 			}
; 2427 : 		}
; 2428 : 		
; 2429 : #ifdef CHINA_BUG_RETOUCH		
; 2430 : 		if( _type == MAKE_ITEMNUM(13,20) )
; 2431 : 		{	// 마법사의 반지, 용/전사의 반지는 창고에 있으면 안된다
; 2432 : 			LogAddTD("(%s)(%s) Invalid Ring Item Found - Removed", lpObj->AccountID, lpObj->Name);
; 2433 : 			itype = -1;
; 2434 : 		}
; 2435 : #endif
; 2436 : 
; 2437 : #ifndef FOR_BLOODCASTLE_TEST
; 2438 : /*		if ( 
; 2439 : 			_type == MAKE_ITEMNUM(13, 16) ||	// 대천사의서
; 2440 : 			_type == MAKE_ITEMNUM(13, 17)		// 블러드본
; 2441 : //			_type == MAKE_ITEMNUM(13, 18)		// 투명망토
; 2442 : 			)	
; 2443 : 		{
; 2444 : 			if( lpMsg->dbItems[(n*dbsize)+2] != 128 )
; 2445 : 			{
; 2446 : 				itype = -1;
; 2447 : 			}
; 2448 : 		}
; 2449 : 
; 2450 : 		if (_type == MAKE_ITEMNUM(14, 21))
; 2451 : 		{
; 2452 : 			int _level = ((lpMsg->dbItems[(n*dbsize)+1]>>3)&0xF);
; 2453 : 			if (_level == 1) {	// 스톤임
; 2454 : 				if( lpMsg->dbItems[(n*dbsize)+2] != 128 )
; 2455 : 				{
; 2456 : 					itype = -1;
; 2457 : 				}
; 2458 : 			}
; 2459 : 		}
; 2460 : */
; 2461 : #endif
; 2462 : 
; 2463 : 
; 2464 : 		if( itype != -1 )

  002cb	83 7d dc ff	 cmp	 DWORD PTR _itype$[ebp], -1
  002cf	0f 84 b0 03 00
	00		 je	 $LN17@DGGetWareh

; 2465 : 		{	
; 2466 : 			item.m_Level = ((lpMsg->dbItems[(n*dbsize)+1]>>3)&0xF);

  002d5	8b 85 24 ff ff
	ff		 mov	 eax, DWORD PTR _n$4[ebp]
  002db	0f af 85 28 ff
	ff ff		 imul	 eax, DWORD PTR _dbsize$[ebp]
  002e2	8b 4d 08	 mov	 ecx, DWORD PTR _lpMsg$[ebp]
  002e5	0f b6 54 01 15	 movzx	 edx, BYTE PTR [ecx+eax+21]
  002ea	c1 fa 03	 sar	 edx, 3
  002ed	83 e2 0f	 and	 edx, 15			; 0000000fH
  002f0	66 89 95 34 ff
	ff ff		 mov	 WORD PTR _item$[ebp+8], dx

; 2467 : 
; 2468 : #ifdef SETITEM_BUFFER_CLEAR
; 2469 : 			if( lpMsg->DbVersion < 2 )

  002f7	8b 45 08	 mov	 eax, DWORD PTR _lpMsg$[ebp]
  002fa	0f b6 88 c4 04
	00 00		 movzx	 ecx, BYTE PTR [eax+1220]
  00301	83 f9 02	 cmp	 ecx, 2
  00304	7d 2a		 jge	 SHORT $LN18@DGGetWareh

; 2470 : 			{	// 인벤이 세트용으로 클리어 되어 있지 않으면 세트아이템 정보를 클리어 한다
; 2471 : 				lpMsg->dbItems[(n*dbsize)+8] = 0xFF;

  00306	8b 85 24 ff ff
	ff		 mov	 eax, DWORD PTR _n$4[ebp]
  0030c	0f af 85 28 ff
	ff ff		 imul	 eax, DWORD PTR _dbsize$[ebp]
  00313	8b 4d 08	 mov	 ecx, DWORD PTR _lpMsg$[ebp]
  00316	c6 44 01 1c ff	 mov	 BYTE PTR [ecx+eax+28], 255 ; 000000ffH

; 2472 : 				lpMsg->dbItems[(n*dbsize)+9] = 0xFF;

  0031b	8b 85 24 ff ff
	ff		 mov	 eax, DWORD PTR _n$4[ebp]
  00321	0f af 85 28 ff
	ff ff		 imul	 eax, DWORD PTR _dbsize$[ebp]
  00328	8b 4d 08	 mov	 ecx, DWORD PTR _lpMsg$[ebp]
  0032b	c6 44 01 1d ff	 mov	 BYTE PTR [ecx+eax+29], 255 ; 000000ffH
$LN18@DGGetWareh:

; 2473 : 			}
; 2474 : #endif
; 2475 : 
; 2476 : 
; 2477 : #ifdef TEST_SETITEM_CLEAR			
; 2478 : 			if( !(lpObj->ClearInfoForSetItem&0x02) )
; 2479 : 			{	// 인벤이 세트용으로 클리어 되어 있지 않으면 세트아이템 정보를 클리어 한다
; 2480 : 				lpMsg->dbItems[(n*dbsize)+8] = 0xFF;
; 2481 : 				lpMsg->dbItems[(n*dbsize)+9] = 0xFF;
; 2482 : 			}
; 2483 : #endif
; 2484 : 
; 2485 : 			if( _type != MAKE_ITEMNUM(14,11) )	// 행운의 상자는 레벨 체크 안한다

  00330	6a 0b		 push	 11			; 0000000bH
  00332	6a 0e		 push	 14			; 0000000eH
  00334	e8 00 00 00 00	 call	 ?MakeItemNumber@@YAHHH@Z ; MakeItemNumber
  00339	83 c4 08	 add	 esp, 8
  0033c	39 45 d8	 cmp	 DWORD PTR __type$[ebp], eax
  0033f	74 15		 je	 SHORT $LN20@DGGetWareh

; 2486 : 				if( item.m_Level >  MAX_ITEMLEVEL ) item.m_Level = 0;

  00341	0f bf 85 34 ff
	ff ff		 movsx	 eax, WORD PTR _item$[ebp+8]
  00348	83 f8 0f	 cmp	 eax, 15			; 0000000fH
  0034b	7e 09		 jle	 SHORT $LN20@DGGetWareh
  0034d	33 c0		 xor	 eax, eax
  0034f	66 89 85 34 ff
	ff ff		 mov	 WORD PTR _item$[ebp+8], ax
$LN20@DGGetWareh:

; 2487 : 			
; 2488 : 			OptionData = lpMsg->dbItems[(n*dbsize)+1];

  00356	8b 85 24 ff ff
	ff		 mov	 eax, DWORD PTR _n$4[ebp]
  0035c	0f af 85 28 ff
	ff ff		 imul	 eax, DWORD PTR _dbsize$[ebp]
  00363	8b 4d 08	 mov	 ecx, DWORD PTR _lpMsg$[ebp]
  00366	8a 54 01 15	 mov	 dl, BYTE PTR [ecx+eax+21]
  0036a	88 55 d7	 mov	 BYTE PTR _OptionData$[ebp], dl

; 2489 : 			item.m_Option1 = OptionData>>7;

  0036d	0f b6 45 d7	 movzx	 eax, BYTE PTR _OptionData$[ebp]
  00371	c1 f8 07	 sar	 eax, 7
  00374	88 45 a4	 mov	 BYTE PTR _item$[ebp+120], al

; 2490 : 			item.m_Option2 = (OptionData>>2)&0x1;

  00377	0f b6 45 d7	 movzx	 eax, BYTE PTR _OptionData$[ebp]
  0037b	c1 f8 02	 sar	 eax, 2
  0037e	83 e0 01	 and	 eax, 1
  00381	88 45 a5	 mov	 BYTE PTR _item$[ebp+121], al

; 2491 : 			item.m_Option3 = OptionData&0x3;

  00384	0f b6 45 d7	 movzx	 eax, BYTE PTR _OptionData$[ebp]
  00388	83 e0 03	 and	 eax, 3
  0038b	88 45 a6	 mov	 BYTE PTR _item$[ebp+122], al

; 2492 : 
; 2493 : #ifdef ITEM_DBSIZE_EXTEND_20050706
; 2494 : 			if( dbsize >= 10 )
; 2495 : #else
; 2496 : 			if( dbsize == 10 )

  0038e	83 bd 28 ff ff
	ff 0a		 cmp	 DWORD PTR _dbsize$[ebp], 10 ; 0000000aH
  00395	75 5b		 jne	 SHORT $LN24@DGGetWareh

; 2497 : #endif
; 2498 : 			{
; 2499 : 				if( _type == MAKE_ITEMNUM(13,3) )

  00397	6a 03		 push	 3
  00399	6a 0d		 push	 13			; 0000000dH
  0039b	e8 00 00 00 00	 call	 ?MakeItemNumber@@YAHHH@Z ; MakeItemNumber
  003a0	83 c4 08	 add	 esp, 8
  003a3	39 45 d8	 cmp	 DWORD PTR __type$[ebp], eax
  003a6	75 26		 jne	 SHORT $LN22@DGGetWareh

; 2500 : 				{	// 디노란트는 옵션 3Bit를 모두다 사용한다
; 2501 : 					item.m_Option3 |= (lpMsg->dbItems[(n*dbsize)+7]&0x40)>>4;

  003a8	8b 85 24 ff ff
	ff		 mov	 eax, DWORD PTR _n$4[ebp]
  003ae	0f af 85 28 ff
	ff ff		 imul	 eax, DWORD PTR _dbsize$[ebp]
  003b5	8b 4d 08	 mov	 ecx, DWORD PTR _lpMsg$[ebp]
  003b8	0f b6 54 01 1b	 movzx	 edx, BYTE PTR [ecx+eax+27]
  003bd	83 e2 40	 and	 edx, 64			; 00000040H
  003c0	c1 fa 04	 sar	 edx, 4
  003c3	0f b6 45 a6	 movzx	 eax, BYTE PTR _item$[ebp+122]
  003c7	0b c2		 or	 eax, edx
  003c9	88 45 a6	 mov	 BYTE PTR _item$[ebp+122], al

; 2502 : 				}

  003cc	eb 24		 jmp	 SHORT $LN24@DGGetWareh
$LN22@DGGetWareh:

; 2503 : 				else
; 2504 : 				{
; 2505 : 					if( (lpMsg->dbItems[(n*dbsize)+7]&0x40) == 0x40 )

  003ce	8b 85 24 ff ff
	ff		 mov	 eax, DWORD PTR _n$4[ebp]
  003d4	0f af 85 28 ff
	ff ff		 imul	 eax, DWORD PTR _dbsize$[ebp]
  003db	8b 4d 08	 mov	 ecx, DWORD PTR _lpMsg$[ebp]
  003de	0f b6 54 01 1b	 movzx	 edx, BYTE PTR [ecx+eax+27]
  003e3	83 e2 40	 and	 edx, 64			; 00000040H
  003e6	74 0a		 je	 SHORT $LN24@DGGetWareh

; 2506 : 						item.m_Option3 += 4;

  003e8	0f b6 45 a6	 movzx	 eax, BYTE PTR _item$[ebp+122]
  003ec	83 c0 04	 add	 eax, 4
  003ef	88 45 a6	 mov	 BYTE PTR _item$[ebp+122], al
$LN24@DGGetWareh:

; 2507 : 				}
; 2508 : 			}
; 2509 : 
; 2510 : 			item.m_Durability = lpMsg->dbItems[(n*dbsize)+2];

  003f2	8b 85 24 ff ff
	ff		 mov	 eax, DWORD PTR _n$4[ebp]
  003f8	0f af 85 28 ff
	ff ff		 imul	 eax, DWORD PTR _dbsize$[ebp]
  003ff	8b 4d 08	 mov	 ecx, DWORD PTR _lpMsg$[ebp]
  00402	0f b6 54 01 16	 movzx	 edx, BYTE PTR [ecx+eax+22]
  00407	f3 0f 2a c2	 cvtsi2ss xmm0, edx
  0040b	f3 0f 11 85 50
	ff ff ff	 movss	 DWORD PTR _item$[ebp+36], xmm0

; 2511 : 
; 2512 : #ifdef ADD_JEWEL_OF_HARMONY_SYSTEM_20060530
; 2513 : 	#ifdef MODIFY_JEWELOFHARMONY_380OPTION_DBVERSION_BUGFIX_20060727 // ITEM_DBSIZE_EXTEND_20050706 define 반드시 On
; 2514 : 			if ( dbsize >= MAX_ITEMDBBYTE)
; 2515 : 			{
; 2516 : 				item.m_JewelOfHarmonyOption = lpMsg->dbItems[(n*dbsize)+10];	// 10번째 버퍼 : 조화의보석 강화 옵션
; 2517 : 			}
; 2518 : 	#else
; 2519 : 			item.m_JewelOfHarmonyOption = lpMsg->dbItems[(n*dbsize)+10];	// 10번째 버퍼 : 조화의보석 강화 옵션
; 2520 : 	#endif // MODIFY_JEWELOFHARMONY_380OPTION_DBVERSION_BUGFIX_20060727
; 2521 : #endif // ADD_JEWEL_OF_HARMONY_SYSTEM_20060530
; 2522 : 
; 2523 : #ifdef ADD_380ITEM_NEWOPTION_20060711
; 2524 : 	#ifdef MODIFY_JEWELOFHARMONY_380OPTION_DBVERSION_BUGFIX_20060727 // ITEM_DBSIZE_EXTEND_20050706 define 반드시 On
; 2525 : 			if ( dbsize >= MAX_ITEMDBBYTE)
; 2526 : 			{
; 2527 : 				item.m_ItemOptionEx = (lpMsg->dbItems[(n*dbsize)+9]&0x08)<<4;	// 9번째 버퍼. 상위 5번째 1 비트값을 m_ItemOptionEx의 상위 1비트로 설정
; 2528 : 				// 2006.8.2 추가
; 2529 : 				if ( item.m_ItemOptionEx != 0 )
; 2530 : 				{
; 2531 : 					// 380 아이템이 아닌 경우 옵션 삭제
; 2532 : 					item.m_Type = itype;	// DBVersion3이상이기 때문에 itype값을 그대로 설정
; 2533 : 					if ( g_kItemSystemFor380.Is380Item( &item ) == FALSE )
; 2534 : 					{
; 2535 : 						item.m_ItemOptionEx = 0;
; 2536 : 						LogAddTD("[380Item][%s][%s] Invalid 380 Item Option in Warehouse pos[%d]", lpObj->AccountID, lpObj->Name, n);
; 2537 : 					}
; 2538 : 				}
; 2539 : 			}
; 2540 : 	#else
; 2541 : 			item.m_ItemOptionEx = (lpMsg->dbItems[(n*dbsize)+9]&0x08)<<4;	// 9번째 버퍼. 상위 5번째 1 비트값을 m_ItemOptionEx의 상위 1비트로 설정
; 2542 : 	#endif // MODIFY_JEWELOFHARMONY_380OPTION_DBVERSION_BUGFIX_20060727
; 2543 : #endif // ADD_380ITEM_NEWOPTION_20060711
; 2544 : 
; 2545 : #ifdef ADD_ITEM_SOCKET_OPTION_EXTEND_20080422
; 2546 : 			BYTE SocketOption[MAX_SOCKET_SLOT];
; 2547 : 			BYTE SocketBonusOption = SOCKETSLOT_NONE;
; 2548 : 			int iSocketSlotIndex = 0;
; 2549 : 
; 2550 : 			memset( SocketOption, SOCKETSLOT_NONE, MAX_SOCKET_SLOT );
; 2551 : 
; 2552 : 			if( g_SocketOptionSystem.IsEnableSocketItem( itype ) == true )
; 2553 : 			{
; 2554 : 				SocketBonusOption = lpMsg->dbItems[(n*dbsize)+10];
; 2555 : 				for( iSocketSlotIndex = 0; iSocketSlotIndex < MAX_SOCKET_SLOT ; iSocketSlotIndex++ )
; 2556 : 				{
; 2557 : 					SocketOption[iSocketSlotIndex] = lpMsg->dbItems[(n*dbsize)+11+iSocketSlotIndex];
; 2558 : 				}
; 2559 : 			}
; 2560 : 			else
; 2561 : 			{
; 2562 : 				SocketBonusOption = 0;
; 2563 : 
; 2564 : 				for( iSocketSlotIndex = 0 ; iSocketSlotIndex < MAX_SOCKET_SLOT ; iSocketSlotIndex++ )
; 2565 : 				{
; 2566 : 					SocketOption[iSocketSlotIndex] = SOCKETSLOT_NONE;
; 2567 : 				}
; 2568 : 			}
; 2569 : #endif // ADD_ITEM_SOCKET_OPTION_EXTEND_20080422
; 2570 : 
; 2571 : 			if( lpMsg->DbVersion == 0x00 )

  00413	8b 45 08	 mov	 eax, DWORD PTR _lpMsg$[ebp]
  00416	0f b6 88 c4 04
	00 00		 movzx	 ecx, BYTE PTR [eax+1220]
  0041d	85 c9		 test	 ecx, ecx
  0041f	75 26		 jne	 SHORT $LN25@DGGetWareh

; 2572 : 	#ifdef ADD_380ITEM_NEWOPTION_20060711
; 2573 : 				item.Convert(itype, item.m_Option1, item.m_Option2, item.m_Option3, 0, 0, 0, 0);
; 2574 : 	#else
; 2575 : 				item.Convert(itype, item.m_Option1, item.m_Option2, item.m_Option3, 0, 0, 0);

  00421	6a 00		 push	 0
  00423	6a 00		 push	 0
  00425	6a 00		 push	 0
  00427	0f b6 45 a6	 movzx	 eax, BYTE PTR _item$[ebp+122]
  0042b	50		 push	 eax
  0042c	0f b6 4d a5	 movzx	 ecx, BYTE PTR _item$[ebp+121]
  00430	51		 push	 ecx
  00431	0f b6 55 a4	 movzx	 edx, BYTE PTR _item$[ebp+120]
  00435	52		 push	 edx
  00436	8b 45 dc	 mov	 eax, DWORD PTR _itype$[ebp]
  00439	50		 push	 eax
  0043a	8d 8d 2c ff ff
	ff		 lea	 ecx, DWORD PTR _item$[ebp]
  00440	e8 00 00 00 00	 call	 ?Convert@CItem@@QAEXHEEEEEE@Z ; CItem::Convert
  00445	eb 4f		 jmp	 SHORT $LN26@DGGetWareh
$LN25@DGGetWareh:

; 2576 : 	#endif // ADD_380ITEM_NEWOPTION_20060711
; 2577 : 
; 2578 : #ifdef ITEM_INDEX_EXTEND_20050706
; 2579 : 			else if (lpMsg->DbVersion <= 0x02) 
; 2580 : 			{
; 2581 : 			#ifdef ADD_ITEM_SOCKET_OPTION_EXTEND_20080422
; 2582 : 				item.Convert(itype, item.m_Option1, item.m_Option2, item.m_Option3, lpMsg->dbItems[(n*dbsize)+7]&0x3F, lpMsg->dbItems[(n*dbsize)+8], item.m_ItemOptionEx, NULL, SOCKETSLOT_NONE, 1);
; 2583 : 			#else
; 2584 : 				#ifdef ADD_380ITEM_NEWOPTION_20060711
; 2585 : 					item.Convert(itype, item.m_Option1, item.m_Option2, item.m_Option3, lpMsg->dbItems[(n*dbsize)+7]&0x3F, lpMsg->dbItems[(n*dbsize)+8], item.m_ItemOptionEx, 1);
; 2586 : 				#else
; 2587 : 					item.Convert(itype, item.m_Option1, item.m_Option2, item.m_Option3, lpMsg->dbItems[(n*dbsize)+7]&0x3F, lpMsg->dbItems[(n*dbsize)+8], 1);
; 2588 : 				#endif // ADD_380ITEM_NEWOPTION_20060711
; 2589 : 			#endif // ADD_ITEM_SOCKET_OPTION_EXTEND_20080422
; 2590 : 			}
; 2591 : 			else 
; 2592 : 			{
; 2593 : #ifdef ADD_ITEM_SOCKET_OPTION_EXTEND_20080422
; 2594 : 				item.Convert(itype, item.m_Option1, item.m_Option2, item.m_Option3, lpMsg->dbItems[(n*dbsize)+7]&0x3F, lpMsg->dbItems[(n*dbsize)+8], item.m_ItemOptionEx, SocketOption, SocketBonusOption, 3);
; 2595 : #else
; 2596 : 	#ifdef ADD_380ITEM_NEWOPTION_20060711
; 2597 : 				item.Convert(itype, item.m_Option1, item.m_Option2, item.m_Option3, lpMsg->dbItems[(n*dbsize)+7]&0x3F, lpMsg->dbItems[(n*dbsize)+8], item.m_ItemOptionEx, 3);
; 2598 : 	#else
; 2599 : 				item.Convert(itype, item.m_Option1, item.m_Option2, item.m_Option3, lpMsg->dbItems[(n*dbsize)+7]&0x3F, lpMsg->dbItems[(n*dbsize)+8], 3);
; 2600 : 	#endif	// ADD_380ITEM_NEWOPTION_20060711
; 2601 : #endif // ADD_ITEM_SOCKET_OPTION_EXTEND_20080422
; 2602 : 			}
; 2603 : #else
; 2604 : 			else 
; 2605 : 				item.Convert(itype, item.m_Option1, item.m_Option2, item.m_Option3, lpMsg->dbItems[(n*dbsize)+7]&0x3F, lpMsg->dbItems[(n*dbsize)+8], 1);

  00447	6a 01		 push	 1
  00449	8b 85 24 ff ff
	ff		 mov	 eax, DWORD PTR _n$4[ebp]
  0044f	0f af 85 28 ff
	ff ff		 imul	 eax, DWORD PTR _dbsize$[ebp]
  00456	8b 4d 08	 mov	 ecx, DWORD PTR _lpMsg$[ebp]
  00459	0f b6 54 01 1c	 movzx	 edx, BYTE PTR [ecx+eax+28]
  0045e	52		 push	 edx
  0045f	8b 85 24 ff ff
	ff		 mov	 eax, DWORD PTR _n$4[ebp]
  00465	0f af 85 28 ff
	ff ff		 imul	 eax, DWORD PTR _dbsize$[ebp]
  0046c	8b 4d 08	 mov	 ecx, DWORD PTR _lpMsg$[ebp]
  0046f	0f b6 54 01 1b	 movzx	 edx, BYTE PTR [ecx+eax+27]
  00474	83 e2 3f	 and	 edx, 63			; 0000003fH
  00477	52		 push	 edx
  00478	0f b6 45 a6	 movzx	 eax, BYTE PTR _item$[ebp+122]
  0047c	50		 push	 eax
  0047d	0f b6 4d a5	 movzx	 ecx, BYTE PTR _item$[ebp+121]
  00481	51		 push	 ecx
  00482	0f b6 55 a4	 movzx	 edx, BYTE PTR _item$[ebp+120]
  00486	52		 push	 edx
  00487	8b 45 dc	 mov	 eax, DWORD PTR _itype$[ebp]
  0048a	50		 push	 eax
  0048b	8d 8d 2c ff ff
	ff		 lea	 ecx, DWORD PTR _item$[ebp]
  00491	e8 00 00 00 00	 call	 ?Convert@CItem@@QAEXHEEEEEE@Z ; CItem::Convert
$LN26@DGGetWareh:

; 2606 : #endif
; 2607 : 
; 2608 : 
; 2609 : #ifdef ADD_NEW_ITEM_FOR_CASTLE_01_20041116
; 2610 : 			if( _type == ITEM_POTION + 7 )
; 2611 : 			{
; 2612 : 				// 공성물약 제외
; 2613 : 			}
; 2614 : 			else
; 2615 : #endif
; 2616 : 			if( _type >= ITEM_POTION && 

  00496	81 7d d8 c0 01
	00 00		 cmp	 DWORD PTR __type$[ebp], 448 ; 000001c0H
  0049d	7c 55		 jl	 SHORT $LN27@DGGetWareh
  0049f	81 7d d8 c8 01
	00 00		 cmp	 DWORD PTR __type$[ebp], 456 ; 000001c8H
  004a6	7f 4c		 jg	 SHORT $LN27@DGGetWareh

; 2617 : 				_type <= ITEM_POTION+8 
; 2618 : #ifdef ADD_SHIELD_POINT_01_20060403
; 2619 : 				|| ( _type >= ITEM_POTION+35 && _type <= ITEM_POTION+40 )
; 2620 : #endif
; 2621 : 				) 
; 2622 : 			{
; 2623 : 				if( item.m_Durability == 0 ) item.m_Durability = 1;

  004a8	f3 0f 10 85 50
	ff ff ff	 movss	 xmm0, DWORD PTR _item$[ebp+36]
  004b0	0f 2e 05 00 00
	00 00		 ucomiss xmm0, DWORD PTR __real@00000000
  004b7	9f		 lahf
  004b8	f6 c4 44	 test	 ah, 68			; 00000044H
  004bb	7a 10		 jp	 SHORT $LN29@DGGetWareh
  004bd	f3 0f 10 05 00
	00 00 00	 movss	 xmm0, DWORD PTR __real@3f800000
  004c5	f3 0f 11 85 50
	ff ff ff	 movss	 DWORD PTR _item$[ebp+36], xmm0
$LN29@DGGetWareh:

; 2624 : 				if( item.m_Durability > g_GlobalConfig.m_iMaxPotionDurability  ) item.m_Durability = g_GlobalConfig.m_iMaxPotionDurability;

  004cd	f3 0f 2a 05 b8
	00 00 00	 cvtsi2ss xmm0, DWORD PTR ?g_GlobalConfig@@3VCGlobalConfig@@A+184
  004d5	f3 0f 10 8d 50
	ff ff ff	 movss	 xmm1, DWORD PTR _item$[ebp+36]
  004dd	0f 2f c8	 comiss	 xmm1, xmm0
  004e0	76 10		 jbe	 SHORT $LN30@DGGetWareh
  004e2	f3 0f 2a 05 b8
	00 00 00	 cvtsi2ss xmm0, DWORD PTR ?g_GlobalConfig@@3VCGlobalConfig@@A+184
  004ea	f3 0f 11 85 50
	ff ff ff	 movss	 DWORD PTR _item$[ebp+36], xmm0
$LN30@DGGetWareh:

; 2625 : 			}

  004f2	eb 43		 jmp	 SHORT $LN32@DGGetWareh
$LN27@DGGetWareh:

; 2626 : 
; 2627 : 			else if( _type != MAKE_ITEMNUM(13,10)
; 2628 : #ifdef ADD_NEW_MAP_KALIMA_20040518					// 쿤둔의 표식의 내구력은 초기값에 맞춰 초기화되면 않된다.
; 2629 : 				 && _type != MAKE_ITEMNUM(14,29)

  004f4	6a 0a		 push	 10			; 0000000aH
  004f6	6a 0d		 push	 13			; 0000000dH
  004f8	e8 00 00 00 00	 call	 ?MakeItemNumber@@YAHHH@Z ; MakeItemNumber
  004fd	83 c4 08	 add	 esp, 8
  00500	39 45 d8	 cmp	 DWORD PTR __type$[ebp], eax
  00503	74 32		 je	 SHORT $LN32@DGGetWareh
  00505	6a 1d		 push	 29			; 0000001dH
  00507	6a 0e		 push	 14			; 0000000eH
  00509	e8 00 00 00 00	 call	 ?MakeItemNumber@@YAHHH@Z ; MakeItemNumber
  0050e	83 c4 08	 add	 esp, 8
  00511	39 45 d8	 cmp	 DWORD PTR __type$[ebp], eax
  00514	74 21		 je	 SHORT $LN32@DGGetWareh

; 2630 : #endif
; 2631 : #ifdef MU_CASTLESIEGE_CS_MARKS_20041214				// 성주의 표식의 내구력은 초기값에 맞춰 초기화되면 않된다.
; 2632 : 				 && (_type != MAKE_ITEMNUM(14,21) && item.m_Level == 3)
; 2633 : #endif
; 2634 : #ifdef UPDATE_LUCKY_COIN_EVENT_20081029				// 행운의 동전의 내구력은 초기값에 맞춰 초기화되면 않된다.
; 2635 : 				 && _type != MAKE_ITEMNUM(14, 100)
; 2636 : #endif	// UPDATE_LUCKY_COIN_EVENT_20081029				 
; 2637 : 				)			
; 2638 : 			{
; 2639 : 				if( item.m_Durability > item.m_BaseDurability )

  00516	f3 0f 10 85 50
	ff ff ff	 movss	 xmm0, DWORD PTR _item$[ebp+36]
  0051e	0f 2f 85 58 ff
	ff ff		 comiss	 xmm0, DWORD PTR _item$[ebp+44]
  00525	76 10		 jbe	 SHORT $LN32@DGGetWareh

; 2640 : 				{
; 2641 : 					item.m_Durability = item.m_BaseDurability;

  00527	f3 0f 10 85 58
	ff ff ff	 movss	 xmm0, DWORD PTR _item$[ebp+44]
  0052f	f3 0f 11 85 50
	ff ff ff	 movss	 DWORD PTR _item$[ebp+36], xmm0
$LN32@DGGetWareh:

; 2642 : 				}
; 2643 : 			}
; 2644 : 
; 2645 : 			lpObj->pWarehouse[n].m_Option1 = item.m_Option1;

  00537	69 85 24 ff ff
	ff a8 00 00 00	 imul	 eax, DWORD PTR _n$4[ebp], 168
  00541	8b 4d e0	 mov	 ecx, DWORD PTR _lpObj$[ebp]
  00544	8b 91 94 0c 00
	00		 mov	 edx, DWORD PTR [ecx+3220]
  0054a	8a 4d a4	 mov	 cl, BYTE PTR _item$[ebp+120]
  0054d	88 4c 02 78	 mov	 BYTE PTR [edx+eax+120], cl

; 2646 : 			lpObj->pWarehouse[n].m_Option2 = item.m_Option2;

  00551	69 85 24 ff ff
	ff a8 00 00 00	 imul	 eax, DWORD PTR _n$4[ebp], 168
  0055b	8b 4d e0	 mov	 ecx, DWORD PTR _lpObj$[ebp]
  0055e	8b 91 94 0c 00
	00		 mov	 edx, DWORD PTR [ecx+3220]
  00564	8a 4d a5	 mov	 cl, BYTE PTR _item$[ebp+121]
  00567	88 4c 02 79	 mov	 BYTE PTR [edx+eax+121], cl

; 2647 : 			lpObj->pWarehouse[n].m_Option3 = item.m_Option3;

  0056b	69 85 24 ff ff
	ff a8 00 00 00	 imul	 eax, DWORD PTR _n$4[ebp], 168
  00575	8b 4d e0	 mov	 ecx, DWORD PTR _lpObj$[ebp]
  00578	8b 91 94 0c 00
	00		 mov	 edx, DWORD PTR [ecx+3220]
  0057e	8a 4d a6	 mov	 cl, BYTE PTR _item$[ebp+122]
  00581	88 4c 02 7a	 mov	 BYTE PTR [edx+eax+122], cl

; 2648 : 
; 2649 : 
; 2650 : #ifdef ADD_JEWEL_OF_HARMONY_SYSTEM_20060530
; 2651 : 			lpObj->pWarehouse[n].m_JewelOfHarmonyOption = item.m_JewelOfHarmonyOption;
; 2652 : #endif //	ADD_JEWEL_OF_HARMONY_SYSTEM_20060530
; 2653 : 
; 2654 : #ifdef ADD_380ITEM_NEWOPTION_20060711
; 2655 : 			lpObj->pWarehouse[n].m_ItemOptionEx = item.m_ItemOptionEx;
; 2656 : #endif // ADD_380ITEM_NEWOPTION_20060711
; 2657 : 			
; 2658 : 			WORD hiWord, loWord;
; 2659 : 
; 2660 : 			hiWord = MAKEWORD(lpMsg->dbItems[(n*dbsize)+4], lpMsg->dbItems[(n*dbsize)+3]);

  00585	8b 85 24 ff ff
	ff		 mov	 eax, DWORD PTR _n$4[ebp]
  0058b	0f af 85 28 ff
	ff ff		 imul	 eax, DWORD PTR _dbsize$[ebp]
  00592	8b 4d 08	 mov	 ecx, DWORD PTR _lpMsg$[ebp]
  00595	0f b6 54 01 18	 movzx	 edx, BYTE PTR [ecx+eax+24]
  0059a	81 e2 ff 00 00
	00		 and	 edx, 255		; 000000ffH
  005a0	0f b6 c2	 movzx	 eax, dl
  005a3	8b 8d 24 ff ff
	ff		 mov	 ecx, DWORD PTR _n$4[ebp]
  005a9	0f af 8d 28 ff
	ff ff		 imul	 ecx, DWORD PTR _dbsize$[ebp]
  005b0	8b 55 08	 mov	 edx, DWORD PTR _lpMsg$[ebp]
  005b3	0f b6 4c 0a 17	 movzx	 ecx, BYTE PTR [edx+ecx+23]
  005b8	81 e1 ff 00 00
	00		 and	 ecx, 255		; 000000ffH
  005be	0f b6 d1	 movzx	 edx, cl
  005c1	c1 e2 08	 shl	 edx, 8
  005c4	0b c2		 or	 eax, edx
  005c6	66 89 85 20 ff
	ff ff		 mov	 WORD PTR _hiWord$3[ebp], ax

; 2661 : 			loWord = MAKEWORD(lpMsg->dbItems[(n*dbsize)+6], lpMsg->dbItems[(n*dbsize)+5]);			

  005cd	8b 85 24 ff ff
	ff		 mov	 eax, DWORD PTR _n$4[ebp]
  005d3	0f af 85 28 ff
	ff ff		 imul	 eax, DWORD PTR _dbsize$[ebp]
  005da	8b 4d 08	 mov	 ecx, DWORD PTR _lpMsg$[ebp]
  005dd	0f b6 54 01 1a	 movzx	 edx, BYTE PTR [ecx+eax+26]
  005e2	81 e2 ff 00 00
	00		 and	 edx, 255		; 000000ffH
  005e8	0f b6 c2	 movzx	 eax, dl
  005eb	8b 8d 24 ff ff
	ff		 mov	 ecx, DWORD PTR _n$4[ebp]
  005f1	0f af 8d 28 ff
	ff ff		 imul	 ecx, DWORD PTR _dbsize$[ebp]
  005f8	8b 55 08	 mov	 edx, DWORD PTR _lpMsg$[ebp]
  005fb	0f b6 4c 0a 19	 movzx	 ecx, BYTE PTR [edx+ecx+25]
  00600	81 e1 ff 00 00
	00		 and	 ecx, 255		; 000000ffH
  00606	0f b6 d1	 movzx	 edx, cl
  00609	c1 e2 08	 shl	 edx, 8
  0060c	0b c2		 or	 eax, edx
  0060e	66 89 85 1c ff
	ff ff		 mov	 WORD PTR _loWord$2[ebp], ax

; 2662 : 			item.m_Number		= MAKELONG(loWord, hiWord);

  00615	0f b7 85 1c ff
	ff ff		 movzx	 eax, WORD PTR _loWord$2[ebp]
  0061c	25 ff ff 00 00	 and	 eax, 65535		; 0000ffffH
  00621	0f b7 c8	 movzx	 ecx, ax
  00624	0f b7 95 20 ff
	ff ff		 movzx	 edx, WORD PTR _hiWord$3[ebp]
  0062b	81 e2 ff ff 00
	00		 and	 edx, 65535		; 0000ffffH
  00631	0f b7 c2	 movzx	 eax, dx
  00634	c1 e0 10	 shl	 eax, 16			; 00000010H
  00637	0b c8		 or	 ecx, eax
  00639	89 8d 2c ff ff
	ff		 mov	 DWORD PTR _item$[ebp], ecx

; 2663 : 
; 2664 : 			gObjWarehouseInsertItemPos(lpObj->m_Index, item, n, -1);

  0063f	6a ff		 push	 -1
  00641	8b 85 24 ff ff
	ff		 mov	 eax, DWORD PTR _n$4[ebp]
  00647	50		 push	 eax
  00648	81 ec a8 00 00
	00		 sub	 esp, 168		; 000000a8H
  0064e	b9 2a 00 00 00	 mov	 ecx, 42			; 0000002aH
  00653	8d b5 2c ff ff
	ff		 lea	 esi, DWORD PTR _item$[ebp]
  00659	8b fc		 mov	 edi, esp
  0065b	f3 a5		 rep movsd
  0065d	8b 4d e0	 mov	 ecx, DWORD PTR _lpObj$[ebp]
  00660	8b 11		 mov	 edx, DWORD PTR [ecx]
  00662	52		 push	 edx
  00663	e8 00 00 00 00	 call	 ?gObjWarehouseInsertItemPos@@YAEHVCItem@@HH@Z ; gObjWarehouseInsertItemPos
  00668	81 c4 b4 00 00
	00		 add	 esp, 180		; 000000b4H

; 2665 : 			gObjWarehouseItemSet(lpObj->m_Index, n, 0x01);

  0066e	6a 01		 push	 1
  00670	8b 85 24 ff ff
	ff		 mov	 eax, DWORD PTR _n$4[ebp]
  00676	50		 push	 eax
  00677	8b 4d e0	 mov	 ecx, DWORD PTR _lpObj$[ebp]
  0067a	8b 11		 mov	 edx, DWORD PTR [ecx]
  0067c	52		 push	 edx
  0067d	e8 00 00 00 00	 call	 ?gObjWarehouseItemSet@@YAXHHE@Z ; gObjWarehouseItemSet
  00682	83 c4 0c	 add	 esp, 12			; 0000000cH
$LN17@DGGetWareh:

; 2666 : 		}
; 2667 : 	}

  00685	e9 be fa ff ff	 jmp	 $LN2@DGGetWareh
$LN3@DGGetWareh:

; 2668 : 
; 2669 : #ifdef TEST_SETITEM_CLEAR	// 세트 아이템용 정보를 클리어 했다
; 2670 : 	lpObj->ClearInfoForSetItem |= 0x02;
; 2671 : #endif
; 2672 : 
; 2673 : 	pResult.h.c        = PMHCE_BYTE;

  0068a	c6 45 e4 c3	 mov	 BYTE PTR _pResult$[ebp], 195 ; 000000c3H

; 2674 : 	pResult.h.headcode = 0x30;

  0068e	c6 45 e6 30	 mov	 BYTE PTR _pResult$[ebp+2], 48 ; 00000030H

; 2675 : 	pResult.h.size     = sizeof( pResult );

  00692	c6 45 e5 08	 mov	 BYTE PTR _pResult$[ebp+1], 8

; 2676 : 	pResult.result     = 0x02;

  00696	c6 45 e7 02	 mov	 BYTE PTR _pResult$[ebp+3], 2

; 2677 : 	DataSend(lpObj->m_Index, (LPBYTE)&pResult, pResult.h.size);

  0069a	0f b6 45 e5	 movzx	 eax, BYTE PTR _pResult$[ebp+1]
  0069e	50		 push	 eax
  0069f	8d 4d e4	 lea	 ecx, DWORD PTR _pResult$[ebp]
  006a2	51		 push	 ecx
  006a3	8b 55 e0	 mov	 edx, DWORD PTR _lpObj$[ebp]
  006a6	8b 02		 mov	 eax, DWORD PTR [edx]
  006a8	50		 push	 eax
  006a9	e8 00 00 00 00	 call	 ?DataSend@@YAHHPAEK@Z	; DataSend
  006ae	83 c4 0c	 add	 esp, 12			; 0000000cH

; 2678 : 
; 2679 : 	// 창고의 아이템을 보낸다.
; 2680 : 	GCUserWarehouseSend(&gObj[aIndex]);

  006b1	69 45 ec a0 1b
	00 00		 imul	 eax, DWORD PTR _aIndex$[ebp], 7072
  006b8	03 05 00 00 00
	00		 add	 eax, DWORD PTR ?gObj@@3PAVOBJECTSTRUCT@@A ; gObj
  006be	50		 push	 eax
  006bf	e8 00 00 00 00	 call	 ?GCUserWarehouseSend@@YAXPAVOBJECTSTRUCT@@@Z ; GCUserWarehouseSend
  006c4	83 c4 04	 add	 esp, 4

; 2681 : 	
; 2682 :     if( bCanWarehouseLock == TRUE )

  006c7	83 3d 00 00 00
	00 01		 cmp	 DWORD PTR ?bCanWarehouseLock@@3HA, 1 ; bCanWarehouseLock
  006ce	75 60		 jne	 SHORT $LN35@DGGetWareh

; 2683 : 	{
; 2684 : 		if( gObj[aIndex].WarehousePW > 0 )

  006d0	69 45 ec a0 1b
	00 00		 imul	 eax, DWORD PTR _aIndex$[ebp], 7072
  006d7	8b 0d 00 00 00
	00		 mov	 ecx, DWORD PTR ?gObj@@3PAVOBJECTSTRUCT@@A ; gObj
  006dd	0f bf 94 01 9e
	0c 00 00	 movsx	 edx, WORD PTR [ecx+eax+3230]
  006e5	85 d2		 test	 edx, edx
  006e7	7e 39		 jle	 SHORT $LN34@DGGetWareh

; 2685 : 			if( gObj[aIndex].WarehouseLock == 0  )

  006e9	69 45 ec a0 1b
	00 00		 imul	 eax, DWORD PTR _aIndex$[ebp], 7072
  006f0	8b 0d 00 00 00
	00		 mov	 ecx, DWORD PTR ?gObj@@3PAVOBJECTSTRUCT@@A ; gObj
  006f6	0f b6 94 01 a0
	0c 00 00	 movzx	 edx, BYTE PTR [ecx+eax+3232]
  006fe	85 d2		 test	 edx, edx
  00700	75 10		 jne	 SHORT $LN36@DGGetWareh

; 2686 : 				GCWarehouseStateSend(aIndex, 12);

  00702	6a 0c		 push	 12			; 0000000cH
  00704	8b 45 ec	 mov	 eax, DWORD PTR _aIndex$[ebp]
  00707	50		 push	 eax
  00708	e8 00 00 00 00	 call	 ?GCWarehouseStateSend@@YAXHE@Z ; GCWarehouseStateSend
  0070d	83 c4 08	 add	 esp, 8
  00710	eb 0e		 jmp	 SHORT $LN37@DGGetWareh
$LN36@DGGetWareh:

; 2687 : 			else GCWarehouseStateSend(aIndex, 1);

  00712	6a 01		 push	 1
  00714	8b 45 ec	 mov	 eax, DWORD PTR _aIndex$[ebp]
  00717	50		 push	 eax
  00718	e8 00 00 00 00	 call	 ?GCWarehouseStateSend@@YAXHE@Z ; GCWarehouseStateSend
  0071d	83 c4 08	 add	 esp, 8
$LN37@DGGetWareh:
  00720	eb 0e		 jmp	 SHORT $LN35@DGGetWareh
$LN34@DGGetWareh:

; 2688 : 		else GCWarehouseStateSend(aIndex, 0);

  00722	6a 00		 push	 0
  00724	8b 45 ec	 mov	 eax, DWORD PTR _aIndex$[ebp]
  00727	50		 push	 eax
  00728	e8 00 00 00 00	 call	 ?GCWarehouseStateSend@@YAXHE@Z ; GCWarehouseStateSend
  0072d	83 c4 08	 add	 esp, 8
$LN35@DGGetWareh:

; 2689 : 	}
; 2690 : 
; 2691 : 	lpObj->LoadWareHouseInfo = TRUE;

  00730	8b 45 e0	 mov	 eax, DWORD PTR _lpObj$[ebp]
  00733	c6 80 88 0e 00
	00 01		 mov	 BYTE PTR [eax+3720], 1

; 2692 : 
; 2693 : #ifdef WAREHOUSE_ITEMCOPY_BUG_FIX
; 2694 : 	lpObj->m_ReqWarehouseOpen = FALSE;

  0073a	8b 45 e0	 mov	 eax, DWORD PTR _lpObj$[ebp]
  0073d	c6 80 24 0f 00
	00 00		 mov	 BYTE PTR [eax+3876], 0

; 2695 : #endif
; 2696 : 
; 2697 : #ifdef DARKLORD_WORK
; 2698 : 	gObjRequestPetItemInfo(lpObj->m_Index, 1);

  00744	6a 01		 push	 1
  00746	8b 45 e0	 mov	 eax, DWORD PTR _lpObj$[ebp]
  00749	8b 08		 mov	 ecx, DWORD PTR [eax]
  0074b	51		 push	 ecx
  0074c	e8 00 00 00 00	 call	 ?gObjRequestPetItemInfo@@YAXHH@Z ; gObjRequestPetItemInfo
  00751	83 c4 08	 add	 esp, 8

; 2699 : #endif	
; 2700 : 
; 2701 : #ifdef AUTH_GAMESERVER_CHECKKEY
; 2702 : 	if( szAuthKey[2] != AUTH_CHECK_02 )
; 2703 : 		DestroyGIocp();
; 2704 : #endif
; 2705 : 
; 2706 : #ifdef MODIFY_CONNNECT_HACK_ATTACK_20090409
; 2707 :     //창고 요청 정보 받고 클라로
; 2708 : 	LogAddTD_TempLog(", [G->C Recv GetWarehouseList], Account [%s], IP [%s] ", gObj[aIndex].AccountID, gObj[aIndex].Ip_addr);

  00754	69 45 ec a0 1b
	00 00		 imul	 eax, DWORD PTR _aIndex$[ebp], 7072
  0075b	8b 0d 00 00 00
	00		 mov	 ecx, DWORD PTR ?gObj@@3PAVOBJECTSTRUCT@@A ; gObj
  00761	8d 54 01 18	 lea	 edx, DWORD PTR [ecx+eax+24]
  00765	52		 push	 edx
  00766	69 45 ec a0 1b
	00 00		 imul	 eax, DWORD PTR _aIndex$[ebp], 7072
  0076d	8b 0d 00 00 00
	00		 mov	 ecx, DWORD PTR ?gObj@@3PAVOBJECTSTRUCT@@A ; gObj
  00773	8d 54 01 68	 lea	 edx, DWORD PTR [ecx+eax+104]
  00777	52		 push	 edx
  00778	68 00 00 00 00	 push	 OFFSET ??_C@_0DH@CCJJLLEJ@?0?5?$FLG?9?$DOC?5Recv?5GetWarehouseList?$FN?0@
  0077d	ff 15 00 00 00
	00		 call	 DWORD PTR ?LogAddTD_TempLog@@3P6AXPADZZA ; LogAddTD_TempLog
  00783	83 c4 0c	 add	 esp, 12			; 0000000cH
$LN1@DGGetWareh:

; 2709 : #endif
; 2710 : }

  00786	5f		 pop	 edi
  00787	5e		 pop	 esi
  00788	5b		 pop	 ebx
  00789	8b 4d fc	 mov	 ecx, DWORD PTR __$ArrayPad$[ebp]
  0078c	33 cd		 xor	 ecx, ebp
  0078e	e8 00 00 00 00	 call	 @__security_check_cookie@4
  00793	8b e5		 mov	 esp, ebp
  00795	5d		 pop	 ebp
  00796	c3		 ret	 0
?DGGetWarehouseList@@YAXPAUSDHP_GETWAREHOUSEDB_SAVE@@@Z ENDP ; DGGetWarehouseList
_TEXT	ENDS
; Function compile flags: /Odtp /ZI
; File C:\Mu Online\Mu-GS-Webzen-MC-10093\GameServer\DSProtocol.cpp
;	COMDAT ?ItemSerialCreateRecv@@YAXPAUSDHP_ITEMCREATERECV@@@Z
_TEXT	SEGMENT
$T1 = -728						; size = 4
_i$2 = -596						; size = 4
_NewOption$3 = -592					; size = 8
_iItemCount$4 = -584					; size = 4
_iRetMapNumber$5 = -580					; size = 4
_btItemPos$6 = -573					; size = 1
_iItemIndex$7 = -572					; size = 4
_iItemType$8 = -568					; size = 4
_pCreateItem$9 = -564					; size = 168
_DropItem$10 = -396					; size = 4
_iItemPos$11 = -391					; size = 1
_iTypeIndex$12 = -390					; size = 1
_iType$13 = -389					; size = 1
_ExOption$14 = -388					; size = 8
_NewItem$15 = -380					; size = 168
_pMsg$16 = -212						; size = 9
_ExOption$17 = -200					; size = 8
_iTypeIndex$18 = -190					; size = 1
_iType$19 = -189					; size = 1
_NewItem$20 = -188					; size = 168
_lootindex$ = -20					; size = 4
_aIndex$ = -16						; size = 4
_mapnumber$ = -12					; size = 4
_lpObj$ = -8						; size = 4
__$ArrayPad$ = -4					; size = 4
_lpMsg$ = 8						; size = 4
?ItemSerialCreateRecv@@YAXPAUSDHP_ITEMCREATERECV@@@Z PROC ; ItemSerialCreateRecv, COMDAT

; 2985 : {

  00000	55		 push	 ebp
  00001	8b ec		 mov	 ebp, esp
  00003	81 ec d8 02 00
	00		 sub	 esp, 728		; 000002d8H
  00009	a1 00 00 00 00	 mov	 eax, DWORD PTR ___security_cookie
  0000e	33 c5		 xor	 eax, ebp
  00010	89 45 fc	 mov	 DWORD PTR __$ArrayPad$[ebp], eax
  00013	53		 push	 ebx
  00014	56		 push	 esi
  00015	57		 push	 edi

; 2986 : 	LPOBJECTSTRUCT			lpObj;
; 2987 : 	
; 2988 : 	int mapnumber	= lpMsg->MapNumber;

  00016	8b 45 08	 mov	 eax, DWORD PTR _lpMsg$[ebp]
  00019	0f b6 48 05	 movzx	 ecx, BYTE PTR [eax+5]
  0001d	89 4d f4	 mov	 DWORD PTR _mapnumber$[ebp], ecx

; 2989 : 	int	aIndex		= lpMsg->aIndex;

  00020	8b 45 08	 mov	 eax, DWORD PTR _lpMsg$[ebp]
  00023	8b 48 14	 mov	 ecx, DWORD PTR [eax+20]
  00026	89 4d f0	 mov	 DWORD PTR _aIndex$[ebp], ecx

; 2990 : 	int lootindex   = lpMsg->lootindex;

  00029	8b 45 08	 mov	 eax, DWORD PTR _lpMsg$[ebp]
  0002c	0f bf 48 18	 movsx	 ecx, WORD PTR [eax+24]
  00030	89 4d ec	 mov	 DWORD PTR _lootindex$[ebp], ecx

; 2991 : 	
; 2992 : 	if( mapnumber != 255 )

  00033	81 7d f4 ff 00
	00 00		 cmp	 DWORD PTR _mapnumber$[ebp], 255 ; 000000ffH
  0003a	74 26		 je	 SHORT $LN6@ItemSerial

; 2993 : 	{
; 2994 : //#if defined ( EVENT_FRIENDSHIP_20040204 ) || defined ( EVENT_LOTTO )
; 2995 : #ifdef MODIFY_GAMBLING_COMPLEMENT_20090513
; 2996 : 		if( (mapnumber < 0) || ((mapnumber > g_TerrainManager.Size()-1) && (mapnumber < ITEMMAKE_INVENTORY_GAMBLINGITEM)))
; 2997 : #else // MODIFY_GAMBLING_COMPLEMENT_20090513
; 2998 : 		if( (mapnumber < 0) || ((mapnumber > g_TerrainManager.Size()-1) && (mapnumber < ITEMMAKE_INVENTORY_1CELL)))

  0003c	83 7d f4 00	 cmp	 DWORD PTR _mapnumber$[ebp], 0
  00040	7c 1b		 jl	 SHORT $LN7@ItemSerial
  00042	b9 00 00 00 00	 mov	 ecx, OFFSET ?g_TerrainManager@@3VCTerrainManager@@A ; g_TerrainManager
  00047	e8 00 00 00 00	 call	 ?Size@CTerrainManager@@QAE?BHXZ ; CTerrainManager::Size
  0004c	83 e8 01	 sub	 eax, 1
  0004f	39 45 f4	 cmp	 DWORD PTR _mapnumber$[ebp], eax
  00052	7e 0e		 jle	 SHORT $LN6@ItemSerial
  00054	81 7d f4 eb 00
	00 00		 cmp	 DWORD PTR _mapnumber$[ebp], 235 ; 000000ebH
  0005b	7d 05		 jge	 SHORT $LN6@ItemSerial
$LN7@ItemSerial:

; 2999 : #endif // MODIFY_GAMBLING_COMPLEMENT_20090513
; 3000 : 				
; 3001 : //#else // else EVENT_FRIENDSHIP_20040204 || EVENT_LOTTO
; 3002 : /*	#ifdef FOR_BLOODCASTLE
; 3003 : 			if( (mapnumber < 0) || ((mapnumber > MAX_MAP-1) && (mapnumber < BC_MAPNUMBER_CHAOSGEM1)))
; 3004 : 	
; 3005 : 	#else // else FOR_BLOODCASTLE
; 3006 : 			if( mapnumber < 0 || mapnumber > MAX_MAP-1)
; 3007 : 	
; 3008 : 	#endif
; 3009 : */
; 3010 : //#endif // EVENT_FRIENDSHIP_20040204 || EVENT_LOTTO
; 3011 : 		{
; 3012 : 			return;

  0005d	e9 19 0c 00 00	 jmp	 $LN1@ItemSerial
$LN6@ItemSerial:

; 3013 : 		}
; 3014 : 	}
; 3015 : 
; 3016 : 	if( lpMsg->SpecialShop == TRUE )	// 카오스 박스 였는지..

  00062	8b 45 08	 mov	 eax, DWORD PTR _lpMsg$[ebp]
  00065	83 78 1c 01	 cmp	 DWORD PTR [eax+28], 1
  00069	0f 85 f2 01 00
	00		 jne	 $LN8@ItemSerial

; 3017 : 	{
; 3018 : 		if( gObjIsConnectedGP(aIndex) == FALSE ) 

  0006f	8b 45 f0	 mov	 eax, DWORD PTR _aIndex$[ebp]
  00072	50		 push	 eax
  00073	e8 00 00 00 00	 call	 ?gObjIsConnectedGP@@YAHH@Z ; gObjIsConnectedGP
  00078	83 c4 04	 add	 esp, 4
  0007b	85 c0		 test	 eax, eax
  0007d	75 23		 jne	 SHORT $LN10@ItemSerial

; 3019 : 		{
; 3020 : 			LogAddC(LOGC_RED, "error-L3 [%s][%d]", __FILE__,__LINE__);

  0007f	a1 00 00 00 00	 mov	 eax, DWORD PTR ?__LINE__Var@?0??ItemSerialCreateRecv@@YAXPAUSDHP_ITEMCREATERECV@@@Z@4JA
  00084	83 c0 23	 add	 eax, 35			; 00000023H
  00087	50		 push	 eax
  00088	68 00 00 00 00	 push	 OFFSET ??_C@_0DN@MBPEHAPP@C?3?2Mu?5Online?2Mu?9GS?9Webzen?9MC?910@
  0008d	68 00 00 00 00	 push	 OFFSET ??_C@_0BC@OFCHNMFP@error?9L3?5?$FL?$CFs?$FN?$FL?$CFd?$FN@
  00092	6a 02		 push	 2
  00094	ff 15 00 00 00
	00		 call	 DWORD PTR ?LogAddC@@3P6AXEPADZZA ; LogAddC
  0009a	83 c4 10	 add	 esp, 16			; 00000010H

; 3021 : 			return;

  0009d	e9 d9 0b 00 00	 jmp	 $LN1@ItemSerial
$LN10@ItemSerial:

; 3022 : 		}
; 3023 : 		lpObj = (LPOBJECTSTRUCT)&gObj[aIndex];

  000a2	69 45 f0 a0 1b
	00 00		 imul	 eax, DWORD PTR _aIndex$[ebp], 7072
  000a9	03 05 00 00 00
	00		 add	 eax, DWORD PTR ?gObj@@3PAVOBJECTSTRUCT@@A ; gObj
  000af	89 45 f8	 mov	 DWORD PTR _lpObj$[ebp], eax

; 3024 : 
; 3025 : 		CItem NewItem;								

  000b2	8d 8d 44 ff ff
	ff		 lea	 ecx, DWORD PTR _NewItem$20[ebp]
  000b8	e8 00 00 00 00	 call	 ??0CItem@@QAE@XZ	; CItem::CItem

; 3026 : 
; 3027 : 		NewItem.m_Level      = lpMsg->Level;

  000bd	8b 45 08	 mov	 eax, DWORD PTR _lpMsg$[ebp]
  000c0	66 0f b6 48 0e	 movzx	 cx, BYTE PTR [eax+14]
  000c5	66 89 8d 4c ff
	ff ff		 mov	 WORD PTR _NewItem$20[ebp+8], cx

; 3028 : 
; 3029 : 		NewItem.m_Durability = (float)ItemGetDurability(lpMsg->Type, lpMsg->Level, lpMsg->NewOption, lpMsg->SetOption);

  000cc	8b 45 08	 mov	 eax, DWORD PTR _lpMsg$[ebp]
  000cf	0f b6 48 1a	 movzx	 ecx, BYTE PTR [eax+26]
  000d3	51		 push	 ecx
  000d4	8b 55 08	 mov	 edx, DWORD PTR _lpMsg$[ebp]
  000d7	0f b6 42 13	 movzx	 eax, BYTE PTR [edx+19]
  000db	50		 push	 eax
  000dc	8b 4d 08	 mov	 ecx, DWORD PTR _lpMsg$[ebp]
  000df	0f b6 51 0e	 movzx	 edx, BYTE PTR [ecx+14]
  000e3	52		 push	 edx
  000e4	8b 45 08	 mov	 eax, DWORD PTR _lpMsg$[ebp]
  000e7	0f bf 48 0c	 movsx	 ecx, WORD PTR [eax+12]
  000eb	51		 push	 ecx
  000ec	e8 00 00 00 00	 call	 ?ItemGetDurability@@YAHHHHH@Z ; ItemGetDurability
  000f1	83 c4 10	 add	 esp, 16			; 00000010H
  000f4	f3 0f 2a c0	 cvtsi2ss xmm0, eax
  000f8	f3 0f 11 85 68
	ff ff ff	 movss	 DWORD PTR _NewItem$20[ebp+36], xmm0

; 3030 : 
; 3031 : #ifdef ADD_NEW_ITEM_FOR_CASTLE_01_20041116
; 3032 : 		// 축복의 물약, 영혼의 물약은 내구력이 데이터서버에서 넘어온 상태로 세팅되어야 한다.
; 3033 : 		if( lpMsg->Type == MAKE_ITEMNUM(14,7) )
; 3034 : 		{
; 3035 : 			NewItem.m_Durability = lpMsg->Dur;
; 3036 : 		}
; 3037 : #endif
; 3038 : 
; 3039 : #ifdef ADD_ITEM_FENRIR_01_20051110
; 3040 : 		// 펜릴의 경우, 업그레이드 시 액설런트 옵션을 사용 하기 때문에 내구력 재조정 필요!
; 3041 : 		if( lpMsg->Type == MAKE_ITEMNUM(13,37))
; 3042 : 		{
; 3043 : 			NewItem.m_Durability = lpMsg->Dur;
; 3044 : 		}
; 3045 : #endif
; 3046 : 
; 3047 : #ifdef ADD_380ITEM_NEWOPTION_20060711
; 3048 : 		// 주의 : 380 추가 옵션은 0, 380 추가옵션은 시리얼발급을 필요로하는 아이템이 아님.
; 3049 : 		NewItem.Convert(lpMsg->Type, lpMsg->Op1, lpMsg->Op2, lpMsg->Op3, lpMsg->NewOption, lpMsg->SetOption, 0);	
; 3050 : #else
; 3051 : 		NewItem.Convert(lpMsg->Type, lpMsg->Op1, lpMsg->Op2, lpMsg->Op3, lpMsg->NewOption, lpMsg->SetOption);	

  00100	6a 01		 push	 1
  00102	8b 45 08	 mov	 eax, DWORD PTR _lpMsg$[ebp]
  00105	0f b6 48 1a	 movzx	 ecx, BYTE PTR [eax+26]
  00109	51		 push	 ecx
  0010a	8b 55 08	 mov	 edx, DWORD PTR _lpMsg$[ebp]
  0010d	0f b6 42 13	 movzx	 eax, BYTE PTR [edx+19]
  00111	50		 push	 eax
  00112	8b 4d 08	 mov	 ecx, DWORD PTR _lpMsg$[ebp]
  00115	0f b6 51 12	 movzx	 edx, BYTE PTR [ecx+18]
  00119	52		 push	 edx
  0011a	8b 45 08	 mov	 eax, DWORD PTR _lpMsg$[ebp]
  0011d	0f b6 48 11	 movzx	 ecx, BYTE PTR [eax+17]
  00121	51		 push	 ecx
  00122	8b 55 08	 mov	 edx, DWORD PTR _lpMsg$[ebp]
  00125	0f b6 42 10	 movzx	 eax, BYTE PTR [edx+16]
  00129	50		 push	 eax
  0012a	8b 4d 08	 mov	 ecx, DWORD PTR _lpMsg$[ebp]
  0012d	0f bf 51 0c	 movsx	 edx, WORD PTR [ecx+12]
  00131	52		 push	 edx
  00132	8d 8d 44 ff ff
	ff		 lea	 ecx, DWORD PTR _NewItem$20[ebp]
  00138	e8 00 00 00 00	 call	 ?Convert@CItem@@QAEXHEEEEEE@Z ; CItem::Convert

; 3052 : #endif // ADD_380ITEM_NEWOPTION_20060711
; 3053 : 
; 3054 : 		NewItem.m_Number = lpMsg->m_Number;	

  0013d	8b 45 08	 mov	 eax, DWORD PTR _lpMsg$[ebp]
  00140	8b 48 08	 mov	 ecx, DWORD PTR [eax+8]
  00143	89 8d 44 ff ff
	ff		 mov	 DWORD PTR _NewItem$20[ebp], ecx

; 3055 : 
; 3056 : #ifdef ITEM_INDEX_EXTEND_20050706
; 3057 : 		INT iType = lpMsg->Type/MAX_ITEM_INDEX;
; 3058 : 		INT iTypeIndex = lpMsg->Type%MAX_ITEM_INDEX;
; 3059 : #else
; 3060 : 		BYTE iType = lpMsg->Type >> ITEM_BITSHIFT;

  00149	8b 45 08	 mov	 eax, DWORD PTR _lpMsg$[ebp]
  0014c	0f bf 48 0c	 movsx	 ecx, WORD PTR [eax+12]
  00150	c1 f9 05	 sar	 ecx, 5
  00153	88 8d 43 ff ff
	ff		 mov	 BYTE PTR _iType$19[ebp], cl

; 3061 : 		BYTE iTypeIndex = lpMsg->Type & 0x1F;

  00159	8b 45 08	 mov	 eax, DWORD PTR _lpMsg$[ebp]
  0015c	0f bf 48 0c	 movsx	 ecx, WORD PTR [eax+12]
  00160	83 e1 1f	 and	 ecx, 31			; 0000001fH
  00163	88 8d 42 ff ff
	ff		 mov	 BYTE PTR _iTypeIndex$18[ebp], cl

; 3062 : #endif
; 3063 : 
; 3064 : 		gObjInventoryInsertItem(lpObj,iType,iTypeIndex,lpMsg->Level,lpMsg->m_Number,lpMsg->Dur);

  00169	8b 45 08	 mov	 eax, DWORD PTR _lpMsg$[ebp]
  0016c	0f b6 48 0f	 movzx	 ecx, BYTE PTR [eax+15]
  00170	51		 push	 ecx
  00171	8b 55 08	 mov	 edx, DWORD PTR _lpMsg$[ebp]
  00174	8b 42 08	 mov	 eax, DWORD PTR [edx+8]
  00177	50		 push	 eax
  00178	8b 4d 08	 mov	 ecx, DWORD PTR _lpMsg$[ebp]
  0017b	0f b6 51 0e	 movzx	 edx, BYTE PTR [ecx+14]
  0017f	52		 push	 edx
  00180	0f b6 85 42 ff
	ff ff		 movzx	 eax, BYTE PTR _iTypeIndex$18[ebp]
  00187	50		 push	 eax
  00188	0f b6 8d 43 ff
	ff ff		 movzx	 ecx, BYTE PTR _iType$19[ebp]
  0018f	51		 push	 ecx
  00190	8b 55 f8	 mov	 edx, DWORD PTR _lpObj$[ebp]
  00193	52		 push	 edx
  00194	e8 00 00 00 00	 call	 ?gObjInventoryInsertItem@@YAEPAVOBJECTSTRUCT@@HHHHH@Z ; gObjInventoryInsertItem
  00199	83 c4 18	 add	 esp, 24			; 00000018H

; 3065 : 
; 3066 : 		BYTE ExOption[8];		
; 3067 : 		ItemIsBufExOption(ExOption, &NewItem);

  0019c	8d 85 44 ff ff
	ff		 lea	 eax, DWORD PTR _NewItem$20[ebp]
  001a2	50		 push	 eax
  001a3	8d 8d 38 ff ff
	ff		 lea	 ecx, DWORD PTR _ExOption$17[ebp]
  001a9	51		 push	 ecx
  001aa	e8 00 00 00 00	 call	 ?ItemIsBufExOption@@YAXPAEPAVCItem@@@Z ; ItemIsBufExOption
  001af	83 c4 08	 add	 esp, 8

; 3068 : 
; 3069 : 		LogAddTD("[%s][%s] Special Shop Item:%s [%d][%d] [%d][%d][%d][%d] Ex:[%d,%d,%d,%d,%d] Set:[%d]",

  001b2	8b 45 08	 mov	 eax, DWORD PTR _lpMsg$[ebp]
  001b5	0f b6 48 1a	 movzx	 ecx, BYTE PTR [eax+26]
  001b9	51		 push	 ecx
  001ba	ba 01 00 00 00	 mov	 edx, 1
  001bf	c1 e2 02	 shl	 edx, 2
  001c2	0f b6 84 15 38
	ff ff ff	 movzx	 eax, BYTE PTR _ExOption$17[ebp+edx]
  001ca	50		 push	 eax
  001cb	b9 01 00 00 00	 mov	 ecx, 1
  001d0	6b d1 03	 imul	 edx, ecx, 3
  001d3	0f b6 84 15 38
	ff ff ff	 movzx	 eax, BYTE PTR _ExOption$17[ebp+edx]
  001db	50		 push	 eax
  001dc	b9 01 00 00 00	 mov	 ecx, 1
  001e1	d1 e1		 shl	 ecx, 1
  001e3	0f b6 94 0d 38
	ff ff ff	 movzx	 edx, BYTE PTR _ExOption$17[ebp+ecx]
  001eb	52		 push	 edx
  001ec	b8 01 00 00 00	 mov	 eax, 1
  001f1	c1 e0 00	 shl	 eax, 0
  001f4	0f b6 8c 05 38
	ff ff ff	 movzx	 ecx, BYTE PTR _ExOption$17[ebp+eax]
  001fc	51		 push	 ecx
  001fd	ba 01 00 00 00	 mov	 edx, 1
  00202	6b c2 00	 imul	 eax, edx, 0
  00205	0f b6 8c 05 38
	ff ff ff	 movzx	 ecx, BYTE PTR _ExOption$17[ebp+eax]
  0020d	51		 push	 ecx
  0020e	0f b6 55 be	 movzx	 edx, BYTE PTR _NewItem$20[ebp+122]
  00212	52		 push	 edx
  00213	0f b6 45 bd	 movzx	 eax, BYTE PTR _NewItem$20[ebp+121]
  00217	50		 push	 eax
  00218	0f b6 4d bc	 movzx	 ecx, BYTE PTR _NewItem$20[ebp+120]
  0021c	51		 push	 ecx
  0021d	0f bf 95 4c ff
	ff ff		 movsx	 edx, WORD PTR _NewItem$20[ebp+8]
  00224	52		 push	 edx
  00225	8b 45 08	 mov	 eax, DWORD PTR _lpMsg$[ebp]
  00228	0f b6 48 0f	 movzx	 ecx, BYTE PTR [eax+15]
  0022c	51		 push	 ecx
  0022d	8b 55 08	 mov	 edx, DWORD PTR _lpMsg$[ebp]
  00230	8b 42 08	 mov	 eax, DWORD PTR [edx+8]
  00233	50		 push	 eax
  00234	8d 8d 44 ff ff
	ff		 lea	 ecx, DWORD PTR _NewItem$20[ebp]
  0023a	e8 00 00 00 00	 call	 ?GetName@CItem@@QAEPADXZ ; CItem::GetName
  0023f	50		 push	 eax
  00240	8b 4d f8	 mov	 ecx, DWORD PTR _lpObj$[ebp]
  00243	83 c1 73	 add	 ecx, 115		; 00000073H
  00246	51		 push	 ecx
  00247	8b 55 f8	 mov	 edx, DWORD PTR _lpObj$[ebp]
  0024a	83 c2 68	 add	 edx, 104		; 00000068H
  0024d	52		 push	 edx
  0024e	68 00 00 00 00	 push	 OFFSET ??_C@_0FF@NJPANPON@?$FL?$CFs?$FN?$FL?$CFs?$FN?5Special?5Shop?5Item?3?$CFs?5?$FL@
  00253	ff 15 00 00 00
	00		 call	 DWORD PTR ?LogAddTD@@3P6AXPADZZA ; LogAddTD
  00259	83 c4 40	 add	 esp, 64			; 00000040H

; 3070 : 			lpObj->AccountID, lpObj->Name, NewItem.GetName(), lpMsg->m_Number, lpMsg->Dur, NewItem.m_Level, 
; 3071 : 			NewItem.m_Option1, NewItem.m_Option2, NewItem.m_Option3, ExOption[0], ExOption[1],
; 3072 : 			ExOption[2], ExOption[3], ExOption[4], lpMsg->SetOption);
; 3073 : 	}	

  0025c	e9 1a 0a 00 00	 jmp	 $LN31@ItemSerial
$LN8@ItemSerial:

; 3074 : #ifdef DARKLORD_WORK
; 3075 : 	else if( lpMsg->MapNumber == 255 || lpMsg->MapNumber == 254 )	// 카오스 박스 였는지..

  00261	8b 45 08	 mov	 eax, DWORD PTR _lpMsg$[ebp]
  00264	0f b6 48 05	 movzx	 ecx, BYTE PTR [eax+5]
  00268	81 f9 ff 00 00
	00		 cmp	 ecx, 255		; 000000ffH
  0026e	74 13		 je	 SHORT $LN13@ItemSerial
  00270	8b 45 08	 mov	 eax, DWORD PTR _lpMsg$[ebp]
  00273	0f b6 48 05	 movzx	 ecx, BYTE PTR [eax+5]
  00277	81 f9 fe 00 00
	00		 cmp	 ecx, 254		; 000000feH
  0027d	0f 85 03 03 00
	00		 jne	 $LN11@ItemSerial
$LN13@ItemSerial:

; 3076 : #else
; 3077 : 	else if( lpMsg->MapNumber == 255 )	// 카오스 박스 였는지..
; 3078 : #endif
; 3079 : 	{
; 3080 : 		PMSG_CHAOSMIXRESULT		pMsg;
; 3081 : 
; 3082 : 		if( gObjIsConnectedGP(aIndex) == FALSE ) 

  00283	8b 45 f0	 mov	 eax, DWORD PTR _aIndex$[ebp]
  00286	50		 push	 eax
  00287	e8 00 00 00 00	 call	 ?gObjIsConnectedGP@@YAHH@Z ; gObjIsConnectedGP
  0028c	83 c4 04	 add	 esp, 4
  0028f	85 c0		 test	 eax, eax
  00291	75 23		 jne	 SHORT $LN14@ItemSerial

; 3083 : 		{
; 3084 : 			LogAddC(LOGC_RED, "error-L3 [%s][%d]", __FILE__,__LINE__);

  00293	a1 00 00 00 00	 mov	 eax, DWORD PTR ?__LINE__Var@?0??ItemSerialCreateRecv@@YAXPAUSDHP_ITEMCREATERECV@@@Z@4JA
  00298	83 c0 63	 add	 eax, 99			; 00000063H
  0029b	50		 push	 eax
  0029c	68 00 00 00 00	 push	 OFFSET ??_C@_0DN@MBPEHAPP@C?3?2Mu?5Online?2Mu?9GS?9Webzen?9MC?910@
  002a1	68 00 00 00 00	 push	 OFFSET ??_C@_0BC@OFCHNMFP@error?9L3?5?$FL?$CFs?$FN?$FL?$CFd?$FN@
  002a6	6a 02		 push	 2
  002a8	ff 15 00 00 00
	00		 call	 DWORD PTR ?LogAddC@@3P6AXEPADZZA ; LogAddC
  002ae	83 c4 10	 add	 esp, 16			; 00000010H

; 3085 : 			return;

  002b1	e9 c5 09 00 00	 jmp	 $LN1@ItemSerial
$LN14@ItemSerial:

; 3086 : 		}
; 3087 : 		lpObj = (LPOBJECTSTRUCT)&gObj[aIndex];

  002b6	69 45 f0 a0 1b
	00 00		 imul	 eax, DWORD PTR _aIndex$[ebp], 7072
  002bd	03 05 00 00 00
	00		 add	 eax, DWORD PTR ?gObj@@3PAVOBJECTSTRUCT@@A ; gObj
  002c3	89 45 f8	 mov	 DWORD PTR _lpObj$[ebp], eax

; 3088 : 		
; 3089 : #ifdef DARKLORD_WORK
; 3090 : 		if( lpMsg->MapNumber == 254 )

  002c6	8b 45 08	 mov	 eax, DWORD PTR _lpMsg$[ebp]
  002c9	0f b6 48 05	 movzx	 ecx, BYTE PTR [eax+5]
  002cd	81 f9 fe 00 00
	00		 cmp	 ecx, 254		; 000000feH
  002d3	75 2c		 jne	 SHORT $LN15@ItemSerial

; 3091 : 		{
; 3092 : 			if( lpObj->m_IfState.type != I_DARK_TRAINER )

  002d5	8b 45 f8	 mov	 eax, DWORD PTR _lpObj$[ebp]
  002d8	8a 88 56 0c 00
	00		 mov	 cl, BYTE PTR [eax+3158]
  002de	c0 e9 04	 shr	 cl, 4
  002e1	80 e1 0f	 and	 cl, 15			; 0000000fH
  002e4	0f b6 d1	 movzx	 edx, cl
  002e7	83 fa 0d	 cmp	 edx, 13			; 0000000dH
  002ea	74 13		 je	 SHORT $LN17@ItemSerial

; 3093 : 			{
; 3094 : 				LogAdd("error-L2: DarkTrainerBox not used.");

  002ec	68 00 00 00 00	 push	 OFFSET ??_C@_0CD@JBKACADO@error?9L2?3?5DarkTrainerBox?5not?5us@
  002f1	ff 15 00 00 00
	00		 call	 DWORD PTR ?LogAdd@@3P6AXPADZZA ; LogAdd
  002f7	83 c4 04	 add	 esp, 4

; 3095 : 				return;

  002fa	e9 7c 09 00 00	 jmp	 $LN1@ItemSerial
$LN17@ItemSerial:

; 3096 : 			}
; 3097 : 		}

  002ff	eb 2a		 jmp	 SHORT $LN18@ItemSerial
$LN15@ItemSerial:

; 3098 : 		else		
; 3099 : #endif
; 3100 : 		{
; 3101 : 			if( lpObj->m_IfState.type != I_CHAOSBOX )

  00301	8b 45 f8	 mov	 eax, DWORD PTR _lpObj$[ebp]
  00304	8a 88 56 0c 00
	00		 mov	 cl, BYTE PTR [eax+3158]
  0030a	c0 e9 04	 shr	 cl, 4
  0030d	80 e1 0f	 and	 cl, 15			; 0000000fH
  00310	0f b6 d1	 movzx	 edx, cl
  00313	83 fa 07	 cmp	 edx, 7
  00316	74 13		 je	 SHORT $LN18@ItemSerial

; 3102 : 			{
; 3103 : 				LogAdd("error-L2: ChaosBox not used.");

  00318	68 00 00 00 00	 push	 OFFSET ??_C@_0BN@BDLDNMBN@error?9L2?3?5ChaosBox?5not?5used?4@
  0031d	ff 15 00 00 00
	00		 call	 DWORD PTR ?LogAdd@@3P6AXPADZZA ; LogAdd
  00323	83 c4 04	 add	 esp, 4

; 3104 : 				return;

  00326	e9 50 09 00 00	 jmp	 $LN1@ItemSerial
$LN18@ItemSerial:

; 3105 : 			}
; 3106 : 		}
; 3107 : 		pMsg.h.c		= PMHC_BYTE;

  0032b	c6 85 2c ff ff
	ff c1		 mov	 BYTE PTR _pMsg$16[ebp], 193 ; 000000c1H

; 3108 : 		pMsg.h.headcode	= 0x86;

  00332	c6 85 2e ff ff
	ff 86		 mov	 BYTE PTR _pMsg$16[ebp+2], 134 ; 00000086H

; 3109 : 		pMsg.h.size		= sizeof( pMsg );

  00339	c6 85 2d ff ff
	ff 09		 mov	 BYTE PTR _pMsg$16[ebp+1], 9

; 3110 : 
; 3111 : #ifdef DARKLORD_WORK
; 3112 : 		if( lpMsg->MapNumber == 254 )

  00340	8b 45 08	 mov	 eax, DWORD PTR _lpMsg$[ebp]
  00343	0f b6 48 05	 movzx	 ecx, BYTE PTR [eax+5]
  00347	81 f9 fe 00 00
	00		 cmp	 ecx, 254		; 000000feH
  0034d	75 09		 jne	 SHORT $LN19@ItemSerial

; 3113 : 			pMsg.Result		= 100;	// 조련사 조합은 성공이 100이다

  0034f	c6 85 2f ff ff
	ff 64		 mov	 BYTE PTR _pMsg$16[ebp+3], 100 ; 00000064H
  00356	eb 07		 jmp	 SHORT $LN20@ItemSerial
$LN19@ItemSerial:

; 3114 : 		else
; 3115 : #endif
; 3116 : 		pMsg.Result		= 0x01;

  00358	c6 85 2f ff ff
	ff 01		 mov	 BYTE PTR _pMsg$16[ebp+3], 1
$LN20@ItemSerial:

; 3117 : 		
; 3118 : 		CItem NewItem;								

  0035f	8d 8d 84 fe ff
	ff		 lea	 ecx, DWORD PTR _NewItem$15[ebp]
  00365	e8 00 00 00 00	 call	 ??0CItem@@QAE@XZ	; CItem::CItem

; 3119 : 		
; 3120 : 		NewItem.m_Level      = lpMsg->Level;

  0036a	8b 45 08	 mov	 eax, DWORD PTR _lpMsg$[ebp]
  0036d	66 0f b6 48 0e	 movzx	 cx, BYTE PTR [eax+14]
  00372	66 89 8d 8c fe
	ff ff		 mov	 WORD PTR _NewItem$15[ebp+8], cx

; 3121 : 
; 3122 : 		NewItem.m_Durability = (float)ItemGetDurability(lpMsg->Type, lpMsg->Level, lpMsg->NewOption, lpMsg->SetOption);

  00379	8b 45 08	 mov	 eax, DWORD PTR _lpMsg$[ebp]
  0037c	0f b6 48 1a	 movzx	 ecx, BYTE PTR [eax+26]
  00380	51		 push	 ecx
  00381	8b 55 08	 mov	 edx, DWORD PTR _lpMsg$[ebp]
  00384	0f b6 42 13	 movzx	 eax, BYTE PTR [edx+19]
  00388	50		 push	 eax
  00389	8b 4d 08	 mov	 ecx, DWORD PTR _lpMsg$[ebp]
  0038c	0f b6 51 0e	 movzx	 edx, BYTE PTR [ecx+14]
  00390	52		 push	 edx
  00391	8b 45 08	 mov	 eax, DWORD PTR _lpMsg$[ebp]
  00394	0f bf 48 0c	 movsx	 ecx, WORD PTR [eax+12]
  00398	51		 push	 ecx
  00399	e8 00 00 00 00	 call	 ?ItemGetDurability@@YAHHHHH@Z ; ItemGetDurability
  0039e	83 c4 10	 add	 esp, 16			; 00000010H
  003a1	f3 0f 2a c0	 cvtsi2ss xmm0, eax
  003a5	f3 0f 11 85 a8
	fe ff ff	 movss	 DWORD PTR _NewItem$15[ebp+36], xmm0

; 3123 : 
; 3124 : #ifdef ADD_NEW_ITEM_FOR_CASTLE_01_20041116
; 3125 : 		// 축복의 물약, 영혼의 물약은 내구력이 데이터서버에서 넘어온 상태로 세팅되어야 한다.
; 3126 : 		if( lpMsg->Type == MAKE_ITEMNUM(14,7) )
; 3127 : 		{
; 3128 : 			NewItem.m_Durability = lpMsg->Dur;
; 3129 : 		}
; 3130 : #endif
; 3131 : 		
; 3132 : #ifdef ADD_ITEM_FENRIR_01_20051110
; 3133 : 		// 펜릴의 경우, 업그레이드 시 액설런트 옵션을 사용 하기 때문에 내구력 재조정 필요!
; 3134 : 		if( lpMsg->Type == MAKE_ITEMNUM(13,37))
; 3135 : 		{
; 3136 : 			NewItem.m_Durability = lpMsg->Dur;
; 3137 : 		}
; 3138 : #endif
; 3139 : 		
; 3140 : #ifdef ADD_380ITEM_NEWOPTION_20060711
; 3141 : 		// 주의 : 380 추가 옵션은 0, 380 추가옵션은 시리얼발급을 필요로하는 아이템이 아님.
; 3142 : 		NewItem.Convert(lpMsg->Type, lpMsg->Op1, lpMsg->Op2, lpMsg->Op3, lpMsg->NewOption, lpMsg->SetOption, 0);	
; 3143 : #else
; 3144 : 		NewItem.Convert(lpMsg->Type, lpMsg->Op1, lpMsg->Op2, lpMsg->Op3, lpMsg->NewOption, lpMsg->SetOption);	

  003ad	6a 01		 push	 1
  003af	8b 45 08	 mov	 eax, DWORD PTR _lpMsg$[ebp]
  003b2	0f b6 48 1a	 movzx	 ecx, BYTE PTR [eax+26]
  003b6	51		 push	 ecx
  003b7	8b 55 08	 mov	 edx, DWORD PTR _lpMsg$[ebp]
  003ba	0f b6 42 13	 movzx	 eax, BYTE PTR [edx+19]
  003be	50		 push	 eax
  003bf	8b 4d 08	 mov	 ecx, DWORD PTR _lpMsg$[ebp]
  003c2	0f b6 51 12	 movzx	 edx, BYTE PTR [ecx+18]
  003c6	52		 push	 edx
  003c7	8b 45 08	 mov	 eax, DWORD PTR _lpMsg$[ebp]
  003ca	0f b6 48 11	 movzx	 ecx, BYTE PTR [eax+17]
  003ce	51		 push	 ecx
  003cf	8b 55 08	 mov	 edx, DWORD PTR _lpMsg$[ebp]
  003d2	0f b6 42 10	 movzx	 eax, BYTE PTR [edx+16]
  003d6	50		 push	 eax
  003d7	8b 4d 08	 mov	 ecx, DWORD PTR _lpMsg$[ebp]
  003da	0f bf 51 0c	 movsx	 edx, WORD PTR [ecx+12]
  003de	52		 push	 edx
  003df	8d 8d 84 fe ff
	ff		 lea	 ecx, DWORD PTR _NewItem$15[ebp]
  003e5	e8 00 00 00 00	 call	 ?Convert@CItem@@QAEXHEEEEEE@Z ; CItem::Convert

; 3145 : #endif // ADD_380ITEM_NEWOPTION_20060711
; 3146 : 		
; 3147 : 		ItemByteConvert(pMsg.ItemInfo, NewItem);

  003ea	81 ec a8 00 00
	00		 sub	 esp, 168		; 000000a8H
  003f0	b9 2a 00 00 00	 mov	 ecx, 42			; 0000002aH
  003f5	8d b5 84 fe ff
	ff		 lea	 esi, DWORD PTR _NewItem$15[ebp]
  003fb	8b fc		 mov	 edi, esp
  003fd	f3 a5		 rep movsd
  003ff	8d 85 30 ff ff
	ff		 lea	 eax, DWORD PTR _pMsg$16[ebp+4]
  00405	50		 push	 eax
  00406	e8 00 00 00 00	 call	 ?ItemByteConvert@@YAXPAEVCItem@@@Z ; ItemByteConvert
  0040b	81 c4 ac 00 00
	00		 add	 esp, 172		; 000000acH

; 3148 : 		NewItem.m_Number = lpMsg->m_Number;

  00411	8b 45 08	 mov	 eax, DWORD PTR _lpMsg$[ebp]
  00414	8b 48 08	 mov	 ecx, DWORD PTR [eax+8]
  00417	89 8d 84 fe ff
	ff		 mov	 DWORD PTR _NewItem$15[ebp], ecx

; 3149 : 		
; 3150 : #ifdef MODIFY_MIX_SYSTEM_20070518
; 3151 : 		g_MixSystem.ChaosBoxInit(lpObj);

  0041d	8b 45 f8	 mov	 eax, DWORD PTR _lpObj$[ebp]
  00420	50		 push	 eax
  00421	b9 00 00 00 00	 mov	 ecx, OFFSET ?g_MixSystem@@3VCMixSystem@@A ; g_MixSystem
  00426	e8 00 00 00 00	 call	 ?ChaosBoxInit@CMixSystem@@QAEHPAVOBJECTSTRUCT@@@Z ; CMixSystem::ChaosBoxInit

; 3152 : #endif
; 3153 : 
; 3154 : 		gObjChaosBoxInsertItemPos(aIndex, NewItem, 0, -1);

  0042b	6a ff		 push	 -1
  0042d	6a 00		 push	 0
  0042f	81 ec a8 00 00
	00		 sub	 esp, 168		; 000000a8H
  00435	b9 2a 00 00 00	 mov	 ecx, 42			; 0000002aH
  0043a	8d b5 84 fe ff
	ff		 lea	 esi, DWORD PTR _NewItem$15[ebp]
  00440	8b fc		 mov	 edi, esp
  00442	f3 a5		 rep movsd
  00444	8b 45 f0	 mov	 eax, DWORD PTR _aIndex$[ebp]
  00447	50		 push	 eax
  00448	e8 00 00 00 00	 call	 ?gObjChaosBoxInsertItemPos@@YAEHVCItem@@HH@Z ; gObjChaosBoxInsertItemPos
  0044d	81 c4 b4 00 00
	00		 add	 esp, 180		; 000000b4H

; 3155 : 		gObjChaosItemSet(aIndex, 0, 1);		

  00453	6a 01		 push	 1
  00455	6a 00		 push	 0
  00457	8b 45 f0	 mov	 eax, DWORD PTR _aIndex$[ebp]
  0045a	50		 push	 eax
  0045b	e8 00 00 00 00	 call	 ?gObjChaosItemSet@@YAXHHE@Z ; gObjChaosItemSet
  00460	83 c4 0c	 add	 esp, 12			; 0000000cH

; 3156 : 
; 3157 : 		BYTE ExOption[8];		
; 3158 : 		ItemIsBufExOption(ExOption, &NewItem);

  00463	8d 85 84 fe ff
	ff		 lea	 eax, DWORD PTR _NewItem$15[ebp]
  00469	50		 push	 eax
  0046a	8d 8d 7c fe ff
	ff		 lea	 ecx, DWORD PTR _ExOption$14[ebp]
  00470	51		 push	 ecx
  00471	e8 00 00 00 00	 call	 ?ItemIsBufExOption@@YAXPAEPAVCItem@@@Z ; ItemIsBufExOption
  00476	83 c4 08	 add	 esp, 8

; 3159 : 		
; 3160 : #ifdef MODIFY_ITEM_SERIAL_EXPAND_20080227
; 3161 : 		LogAddTD("[%s][%s] CBMix Item Create Item:%s [%u][%d] [%d][%d][%d][%d] Ex:[%d,%d,%d,%d,%d,%d,%d] Set:[%d]", 
; 3162 : #else
; 3163 : 		LogAddTD("[%s][%s] CBMix Item Create Item:%s [%d][%d] [%d][%d][%d][%d] Ex:[%d,%d,%d,%d,%d,%d,%d] Set:[%d]", 

  00479	8b 45 08	 mov	 eax, DWORD PTR _lpMsg$[ebp]
  0047c	0f b6 48 1a	 movzx	 ecx, BYTE PTR [eax+26]
  00480	51		 push	 ecx
  00481	ba 01 00 00 00	 mov	 edx, 1
  00486	6b c2 06	 imul	 eax, edx, 6
  00489	0f b6 8c 05 7c
	fe ff ff	 movzx	 ecx, BYTE PTR _ExOption$14[ebp+eax]
  00491	51		 push	 ecx
  00492	ba 01 00 00 00	 mov	 edx, 1
  00497	6b c2 05	 imul	 eax, edx, 5
  0049a	0f b6 8c 05 7c
	fe ff ff	 movzx	 ecx, BYTE PTR _ExOption$14[ebp+eax]
  004a2	51		 push	 ecx
  004a3	ba 01 00 00 00	 mov	 edx, 1
  004a8	c1 e2 02	 shl	 edx, 2
  004ab	0f b6 84 15 7c
	fe ff ff	 movzx	 eax, BYTE PTR _ExOption$14[ebp+edx]
  004b3	50		 push	 eax
  004b4	b9 01 00 00 00	 mov	 ecx, 1
  004b9	6b d1 03	 imul	 edx, ecx, 3
  004bc	0f b6 84 15 7c
	fe ff ff	 movzx	 eax, BYTE PTR _ExOption$14[ebp+edx]
  004c4	50		 push	 eax
  004c5	b9 01 00 00 00	 mov	 ecx, 1
  004ca	d1 e1		 shl	 ecx, 1
  004cc	0f b6 94 0d 7c
	fe ff ff	 movzx	 edx, BYTE PTR _ExOption$14[ebp+ecx]
  004d4	52		 push	 edx
  004d5	b8 01 00 00 00	 mov	 eax, 1
  004da	c1 e0 00	 shl	 eax, 0
  004dd	0f b6 8c 05 7c
	fe ff ff	 movzx	 ecx, BYTE PTR _ExOption$14[ebp+eax]
  004e5	51		 push	 ecx
  004e6	ba 01 00 00 00	 mov	 edx, 1
  004eb	6b c2 00	 imul	 eax, edx, 0
  004ee	0f b6 8c 05 7c
	fe ff ff	 movzx	 ecx, BYTE PTR _ExOption$14[ebp+eax]
  004f6	51		 push	 ecx
  004f7	0f b6 95 fe fe
	ff ff		 movzx	 edx, BYTE PTR _NewItem$15[ebp+122]
  004fe	52		 push	 edx
  004ff	0f b6 85 fd fe
	ff ff		 movzx	 eax, BYTE PTR _NewItem$15[ebp+121]
  00506	50		 push	 eax
  00507	0f b6 8d fc fe
	ff ff		 movzx	 ecx, BYTE PTR _NewItem$15[ebp+120]
  0050e	51		 push	 ecx
  0050f	0f bf 95 8c fe
	ff ff		 movsx	 edx, WORD PTR _NewItem$15[ebp+8]
  00516	52		 push	 edx
  00517	8b 45 08	 mov	 eax, DWORD PTR _lpMsg$[ebp]
  0051a	0f b6 48 0f	 movzx	 ecx, BYTE PTR [eax+15]
  0051e	51		 push	 ecx
  0051f	8b 55 08	 mov	 edx, DWORD PTR _lpMsg$[ebp]
  00522	8b 42 08	 mov	 eax, DWORD PTR [edx+8]
  00525	50		 push	 eax
  00526	8d 8d 84 fe ff
	ff		 lea	 ecx, DWORD PTR _NewItem$15[ebp]
  0052c	e8 00 00 00 00	 call	 ?GetName@CItem@@QAEPADXZ ; CItem::GetName
  00531	50		 push	 eax
  00532	8b 4d f8	 mov	 ecx, DWORD PTR _lpObj$[ebp]
  00535	83 c1 73	 add	 ecx, 115		; 00000073H
  00538	51		 push	 ecx
  00539	8b 55 f8	 mov	 edx, DWORD PTR _lpObj$[ebp]
  0053c	83 c2 68	 add	 edx, 104		; 00000068H
  0053f	52		 push	 edx
  00540	68 00 00 00 00	 push	 OFFSET ??_C@_0GA@EHKFCGJE@?$FL?$CFs?$FN?$FL?$CFs?$FN?5CBMix?5Item?5Create?5Item@
  00545	ff 15 00 00 00
	00		 call	 DWORD PTR ?LogAddTD@@3P6AXPADZZA ; LogAddTD
  0054b	83 c4 48	 add	 esp, 72			; 00000048H

; 3164 : #endif // MODIFY_ITEM_SERIAL_EXPAND_20080227
; 3165 : 				lpObj->AccountID, lpObj->Name,
; 3166 : 				NewItem.GetName(),
; 3167 : 			    lpMsg->m_Number, lpMsg->Dur, 				
; 3168 : 				NewItem.m_Level, NewItem.m_Option1, NewItem.m_Option2, NewItem.m_Option3,
; 3169 : 				ExOption[0],
; 3170 : 			    ExOption[1],
; 3171 : 			    ExOption[2],
; 3172 : 			    ExOption[3],
; 3173 : 			    ExOption[4],
; 3174 : 			    ExOption[5],
; 3175 : 			    ExOption[6],
; 3176 : 				lpMsg->SetOption
; 3177 : 			   );
; 3178 : 
; 3179 : 		DataSend( aIndex, (LPBYTE)&pMsg, pMsg.h.size);

  0054e	0f b6 85 2d ff
	ff ff		 movzx	 eax, BYTE PTR _pMsg$16[ebp+1]
  00555	50		 push	 eax
  00556	8d 8d 2c ff ff
	ff		 lea	 ecx, DWORD PTR _pMsg$16[ebp]
  0055c	51		 push	 ecx
  0055d	8b 55 f0	 mov	 edx, DWORD PTR _aIndex$[ebp]
  00560	52		 push	 edx
  00561	e8 00 00 00 00	 call	 ?DataSend@@YAHHPAEK@Z	; DataSend
  00566	83 c4 0c	 add	 esp, 12			; 0000000cH

; 3180 : 		gObj[aIndex].ChaosLock = FALSE;

  00569	69 45 f0 a0 1b
	00 00		 imul	 eax, DWORD PTR _aIndex$[ebp], 7072
  00570	8b 0d 00 00 00
	00		 mov	 ecx, DWORD PTR ?gObj@@3PAVOBJECTSTRUCT@@A ; gObj
  00576	c7 84 01 bc 0c
	00 00 00 00 00
	00		 mov	 DWORD PTR [ecx+eax+3260], 0

; 3181 : 	}

  00581	e9 f5 06 00 00	 jmp	 $LN31@ItemSerial
$LN11@ItemSerial:

; 3182 : //#if defined ( EVENT_FRIENDSHIP_20040204 ) || defined ( EVENT_LOTTO )
; 3183 : 	else if (lpMsg->MapNumber == ITEMMAKE_INVENTORY_1CELL) {

  00586	8b 45 08	 mov	 eax, DWORD PTR _lpMsg$[ebp]
  00589	0f b6 48 05	 movzx	 ecx, BYTE PTR [eax+5]
  0058d	81 f9 eb 00 00
	00		 cmp	 ecx, 235		; 000000ebH
  00593	0f 85 f4 00 00
	00		 jne	 $LN21@ItemSerial

; 3184 : 		if(gObj[lpMsg->aIndex].Connected > 1) {			// 인증을 받은 상태까지는 인정

  00599	8b 45 08	 mov	 eax, DWORD PTR _lpMsg$[ebp]
  0059c	69 48 14 a0 1b
	00 00		 imul	 ecx, DWORD PTR [eax+20], 7072
  005a3	8b 15 00 00 00
	00		 mov	 edx, DWORD PTR ?gObj@@3PAVOBJECTSTRUCT@@A ; gObj
  005a9	83 7c 0a 04 01	 cmp	 DWORD PTR [edx+ecx+4], 1
  005ae	0f 8e d4 00 00
	00		 jle	 $LN25@ItemSerial

; 3185 : #ifdef ITEM_INDEX_EXTEND_20050706
; 3186 : 			INT iType = lpMsg->Type/MAX_ITEM_INDEX;
; 3187 : 			INT iTypeIndex = lpMsg->Type%MAX_ITEM_INDEX;
; 3188 : #else
; 3189 : 			BYTE iType = lpMsg->Type >> ITEM_BITSHIFT;

  005b4	8b 45 08	 mov	 eax, DWORD PTR _lpMsg$[ebp]
  005b7	0f bf 48 0c	 movsx	 ecx, WORD PTR [eax+12]
  005bb	c1 f9 05	 sar	 ecx, 5
  005be	88 8d 7b fe ff
	ff		 mov	 BYTE PTR _iType$13[ebp], cl

; 3190 : 			BYTE iTypeIndex = lpMsg->Type & 0x1F;

  005c4	8b 45 08	 mov	 eax, DWORD PTR _lpMsg$[ebp]
  005c7	0f bf 48 0c	 movsx	 ecx, WORD PTR [eax+12]
  005cb	83 e1 1f	 and	 ecx, 31			; 0000001fH
  005ce	88 8d 7a fe ff
	ff		 mov	 BYTE PTR _iTypeIndex$12[ebp], cl

; 3191 : #endif
; 3192 : 			BYTE iItemPos = gObjInventoryInsertItem(&gObj[lpMsg->aIndex], iType, iTypeIndex, lpMsg->Level, lpMsg->m_Number, lpMsg->Dur);

  005d4	8b 45 08	 mov	 eax, DWORD PTR _lpMsg$[ebp]
  005d7	0f b6 48 0f	 movzx	 ecx, BYTE PTR [eax+15]
  005db	51		 push	 ecx
  005dc	8b 55 08	 mov	 edx, DWORD PTR _lpMsg$[ebp]
  005df	8b 42 08	 mov	 eax, DWORD PTR [edx+8]
  005e2	50		 push	 eax
  005e3	8b 4d 08	 mov	 ecx, DWORD PTR _lpMsg$[ebp]
  005e6	0f b6 51 0e	 movzx	 edx, BYTE PTR [ecx+14]
  005ea	52		 push	 edx
  005eb	0f b6 85 7a fe
	ff ff		 movzx	 eax, BYTE PTR _iTypeIndex$12[ebp]
  005f2	50		 push	 eax
  005f3	0f b6 8d 7b fe
	ff ff		 movzx	 ecx, BYTE PTR _iType$13[ebp]
  005fa	51		 push	 ecx
  005fb	8b 55 08	 mov	 edx, DWORD PTR _lpMsg$[ebp]
  005fe	69 42 14 a0 1b
	00 00		 imul	 eax, DWORD PTR [edx+20], 7072
  00605	03 05 00 00 00
	00		 add	 eax, DWORD PTR ?gObj@@3PAVOBJECTSTRUCT@@A ; gObj
  0060b	50		 push	 eax
  0060c	e8 00 00 00 00	 call	 ?gObjInventoryInsertItem@@YAEPAVOBJECTSTRUCT@@HHHHH@Z ; gObjInventoryInsertItem
  00611	83 c4 18	 add	 esp, 24			; 00000018H
  00614	88 85 79 fe ff
	ff		 mov	 BYTE PTR _iItemPos$11[ebp], al

; 3193 : 			if (0xFF == iItemPos) {

  0061a	0f b6 85 79 fe
	ff ff		 movzx	 eax, BYTE PTR _iItemPos$11[ebp]
  00621	3d ff 00 00 00	 cmp	 eax, 255		; 000000ffH
  00626	75 49		 jne	 SHORT $LN24@ItemSerial

; 3194 : 				// 에러
; 3195 : 				LogAddTD("[Mu_2Anv_Event] Error : Failed To Gift Item Type:%d, TypeIndex:%d to [%s][%s]",

  00628	8b 45 08	 mov	 eax, DWORD PTR _lpMsg$[ebp]
  0062b	69 48 14 a0 1b
	00 00		 imul	 ecx, DWORD PTR [eax+20], 7072
  00632	8b 15 00 00 00
	00		 mov	 edx, DWORD PTR ?gObj@@3PAVOBJECTSTRUCT@@A ; gObj
  00638	8d 44 0a 73	 lea	 eax, DWORD PTR [edx+ecx+115]
  0063c	50		 push	 eax
  0063d	8b 4d 08	 mov	 ecx, DWORD PTR _lpMsg$[ebp]
  00640	69 51 14 a0 1b
	00 00		 imul	 edx, DWORD PTR [ecx+20], 7072
  00647	a1 00 00 00 00	 mov	 eax, DWORD PTR ?gObj@@3PAVOBJECTSTRUCT@@A ; gObj
  0064c	8d 4c 10 68	 lea	 ecx, DWORD PTR [eax+edx+104]
  00650	51		 push	 ecx
  00651	0f b6 95 7a fe
	ff ff		 movzx	 edx, BYTE PTR _iTypeIndex$12[ebp]
  00658	52		 push	 edx
  00659	0f b6 85 7b fe
	ff ff		 movzx	 eax, BYTE PTR _iType$13[ebp]
  00660	50		 push	 eax
  00661	68 00 00 00 00	 push	 OFFSET ??_C@_0EO@DCIKCPFD@?$FLMu_2Anv_Event?$FN?5Error?5?3?5Failed?5@
  00666	ff 15 00 00 00
	00		 call	 DWORD PTR ?LogAddTD@@3P6AXPADZZA ; LogAddTD
  0066c	83 c4 14	 add	 esp, 20			; 00000014H

; 3196 : 					iType,
; 3197 : 					iTypeIndex,
; 3198 : 					gObj[lpMsg->aIndex].AccountID,
; 3199 : 					gObj[lpMsg->aIndex].Name
; 3200 : 					);
; 3201 : 			}

  0066f	eb 17		 jmp	 SHORT $LN25@ItemSerial
$LN24@ItemSerial:

; 3202 : 			else {
; 3203 : 				GCInventoryItemOneSend (lpMsg->aIndex, iItemPos);

  00671	0f b6 85 79 fe
	ff ff		 movzx	 eax, BYTE PTR _iItemPos$11[ebp]
  00678	50		 push	 eax
  00679	8b 4d 08	 mov	 ecx, DWORD PTR _lpMsg$[ebp]
  0067c	8b 51 14	 mov	 edx, DWORD PTR [ecx+20]
  0067f	52		 push	 edx
  00680	e8 00 00 00 00	 call	 ?GCInventoryItemOneSend@@YAXHH@Z ; GCInventoryItemOneSend
  00685	83 c4 08	 add	 esp, 8
$LN25@ItemSerial:

; 3204 : 			}
; 3205 : 		}
; 3206 : 	}

  00688	e9 ee 05 00 00	 jmp	 $LN31@ItemSerial
$LN21@ItemSerial:

; 3207 : //#endif // EVENT_FRIENDSHIP_20040204 || EVENT_LOTTO	
; 3208 : #ifdef ADD_PARTIALY_CHARGE_CASH_SHOP_20070117
; 3209 : 	else if( lpMsg->MapNumber == ITEMMAKE_INVENTORY_CASHITEM )
; 3210 : 	{
; 3211 : 		if( gObj[lpMsg->aIndex].Connected > 1 )
; 3212 : 		{
; 3213 : 			CItem pCreateItem;
; 3214 : 			int iItemType	= lpMsg->Type / MAX_ITEM_INDEX;
; 3215 : 			int iItemIndex	= lpMsg->Type % MAX_ITEM_INDEX;
; 3216 : 
; 3217 : 			pCreateItem.m_Level = lpMsg->Level;
; 3218 : 			pCreateItem.m_Durability = lpMsg->Dur;
; 3219 : 			
; 3220 : 			pCreateItem.Convert( MAKE_ITEMNUM( iItemType, iItemIndex ), lpMsg->Op1, lpMsg->Op2, lpMsg->Op3, lpMsg->NewOption, lpMsg->SetOption );
; 3221 : 			//pCreateItem.m_Level = lpMsg->Level;
; 3222 : 			//pCreateItem.m_Durability = lpMsg->Dur;
; 3223 : 			BYTE btItemPos = gObjInventoryInsertItem( lpMsg->aIndex, pCreateItem );
; 3224 : 			if (0xFF == btItemPos) {
; 3225 : 				// 에러
; 3226 : 				LogAddTD("[CashShop] Error : Failed To Insert Item Type:%d, TypeIndex:%d to [%s][%s]",
; 3227 : 					iItemType,
; 3228 : 					iItemIndex,
; 3229 : 					gObj[lpMsg->aIndex].AccountID,
; 3230 : 					gObj[lpMsg->aIndex].Name
; 3231 : 					);
; 3232 : 			}
; 3233 : 			else {
; 3234 : 				GCInventoryItemOneSend(lpMsg->aIndex, btItemPos);
; 3235 : 			}
; 3236 : 		}
; 3237 : 	}
; 3238 : #endif // ADD_PARTIALY_CHARGE_CASH_SHOP_20070117
; 3239 : #ifdef UPDATE_LUCKY_COIN_EVENT_20081029	// 행운의 동전을 교환된 아이템을 인벤에 추가
; 3240 : 	else if( lpMsg->MapNumber == ITEMMAKE_INVENTORY_COINITEM )
; 3241 : 	{
; 3242 : 		if( gObj[lpMsg->aIndex].Connected > 1 )
; 3243 : 		{
; 3244 : 			CItem pCreateItem;
; 3245 : 			int iItemType	= lpMsg->Type / MAX_ITEM_INDEX;
; 3246 : 			int iItemIndex	= lpMsg->Type % MAX_ITEM_INDEX;
; 3247 : 
; 3248 : 			pCreateItem.m_Level = lpMsg->Level;
; 3249 : 			pCreateItem.m_Durability = lpMsg->Dur;
; 3250 : 
; 3251 : 			pCreateItem.Convert( MAKE_ITEMNUM( iItemType, iItemIndex ), lpMsg->Op1, lpMsg->Op2, lpMsg->Op3, lpMsg->NewOption, lpMsg->SetOption );
; 3252 : 			pCreateItem.m_Level = lpMsg->Level;
; 3253 : 			//pCreateItem.m_Durability = lpMsg->Dur;
; 3254 : 			//pCreateItem.m_Number = lpMsg->m_Number;
; 3255 : 			BYTE btItemPos = gObjInventoryInsertItem( lpMsg->aIndex, pCreateItem );
; 3256 : 			if (0xFF == btItemPos) {
; 3257 : 				// 에러
; 3258 : 				LogAddTD("[LuckyCoin Trade] Error : Failed To Insert Item Type:%d, TypeIndex:%d to [%s][%s]",
; 3259 : 					iItemType,
; 3260 : 					iItemIndex,
; 3261 : 					gObj[lpMsg->aIndex].AccountID,
; 3262 : 					gObj[lpMsg->aIndex].Name
; 3263 : 					);
; 3264 : 				GCANSTradeCoin(lpMsg->aIndex, 2);
; 3265 : 			}
; 3266 : 			else {
; 3267 : 				// 아이템 전송
; 3268 : 				GCInventoryItemOneSend(lpMsg->aIndex, btItemPos);
; 3269 : 				GCANSTradeCoin(lpMsg->aIndex, 1);
; 3270 : 			}
; 3271 : 			
; 3272 : 			gObj[aIndex].ChaosLock = FALSE;
; 3273 : 		}
; 3274 : 	}
; 3275 : #endif	// UPDATE_LUCKY_COIN_EVENT_20081029
; 3276 : #ifdef ADD_GAMBLING_20090120		// 겜블링을 해서 획득한 아이템을 인벤에 추가
; 3277 : 	else if( lpMsg->MapNumber == ITEMMAKE_INVENTORY_GAMBLINGITEM )
; 3278 : 	{
; 3279 : 		if( gObj[lpMsg->aIndex].Connected > 1 )
; 3280 : 		{
; 3281 : 			CItem pCreateItem;
; 3282 : 			int iItemType	= lpMsg->Type / MAX_ITEM_INDEX;
; 3283 : 			int iItemIndex	= lpMsg->Type % MAX_ITEM_INDEX;
; 3284 : 			
; 3285 : 			pCreateItem.m_Level = lpMsg->Level;
; 3286 : 			pCreateItem.m_Durability = lpMsg->Dur;
; 3287 : 
; 3288 : #ifdef MODIFY_GAMBLING_BUGFIX_1_20090323
; 3289 : 			pCreateItem.m_Number = lpMsg->m_Number;
; 3290 : #endif // MODIFY_GAMBLING_BUGFIX_1_20090323
; 3291 : 			
; 3292 : 			pCreateItem.Convert( MAKE_ITEMNUM( iItemType, iItemIndex ), lpMsg->Op1, lpMsg->Op2, lpMsg->Op3, lpMsg->NewOption, lpMsg->SetOption );
; 3293 : 			pCreateItem.m_Level = lpMsg->Level;
; 3294 : 
; 3295 : 			// 인벤에 2*4의 공간이 있는지 체크한다.
; 3296 : 			BOOL bIsBlank = gObjGamblingInventoryCheck( lpMsg->aIndex, 2, 4 );
; 3297 : 			if ( bIsBlank == TRUE ) {
; 3298 : 				// 아이템을 인벤에 넣어준다.
; 3299 : 				BYTE btItemPos = gObjInventoryInsertItem( lpMsg->aIndex, pCreateItem );
; 3300 : 
; 3301 : 				if( btItemPos == 0xFF )
; 3302 : 				{
; 3303 : 					// 에러
; 3304 : 					LogAddTD("[Gambling Trade] Error : Failed To Insert Item Type:%d, TypeIndex:%d to [%s][%s]",
; 3305 : 						iItemType,
; 3306 : 						iItemIndex,
; 3307 : 						gObj[lpMsg->aIndex].AccountID,
; 3308 : 						gObj[lpMsg->aIndex].Name
; 3309 : 					);
; 3310 : 
; 3311 : #ifdef MODIFY_GAMBLING_COMPLEMENT_20090513
; 3312 : 					// 클라이언트로 일단 패킷을 리턴해준다.
; 3313 : 					PMSG_BUYRESULT	pResult;			
; 3314 : 					PHeadSetB((LPBYTE)&pResult, 0x32, sizeof( pResult ));
; 3315 : 					pResult.Result = 0xFF;
; 3316 : 					DataSend(aIndex, (LPBYTE)&pResult, pResult.h.size);
; 3317 : #endif // MODIFY_GAMBLING_COMPLEMENT_20090513
; 3318 : 
; 3319 : #ifdef MODIFY_GAMBLING_BUGFIX_1_20090323
; 3320 : 					return;
; 3321 : #endif // MODIFY_GAMBLING_BUGFIX_1_20090323
; 3322 : 				}
; 3323 : 				
; 3324 : 				int iBuyTaxMoney = (INT)((INT64)g_iGamblingValue * (INT64)g_CastleSiegeSync.GetTaxRateStore(gObj[lpMsg->aIndex].m_Index) / (INT64)100);
; 3325 : 				g_CastleSiegeSync.AddTributeMoney(iBuyTaxMoney);	// 상점에서 물건을 판 세금을 저장
; 3326 : 
; 3327 : 				gObj[lpMsg->aIndex].Money -= (g_iGamblingValue + iBuyTaxMoney);
; 3328 : 								
; 3329 : 				if( gObj[lpMsg->aIndex].Money < 0 )
; 3330 : 					gObj[lpMsg->aIndex].Money = 0;
; 3331 : 				
; 3332 : 				GCMoneySend(gObj[lpMsg->aIndex].m_Index, gObj[lpMsg->aIndex].Money);
; 3333 : 				
; 3334 : 				// 아이템 전송
; 3335 : 				GCInventoryItemOneSend(lpMsg->aIndex, btItemPos);
; 3336 : 				
; 3337 : 				// 겜블링 아이템을 받은 유저를 로그로 남긴다.
; 3338 : 				BYTE ExOption[6];
; 3339 : 				ItemIsBufExOption(ExOption, &pCreateItem);
; 3340 : 
; 3341 : 				// 겜블링 아이템일 경우 축하 메시지와 폭죽을 터트려준다.
; 3342 : 				if( lpMsg->Type ==  MAKE_ITEMNUM(3, 11)
; 3343 : 					|| lpMsg->Type ==  MAKE_ITEMNUM(5, 33)
; 3344 : 					|| lpMsg->Type ==  MAKE_ITEMNUM(4, 24)
; 3345 : 					|| lpMsg->Type ==  MAKE_ITEMNUM(2, 18)
; 3346 : 					|| lpMsg->Type ==  MAKE_ITEMNUM(5, 34)
; 3347 : 					)
; 3348 : 				{					
; 3349 : 					char szBuffer[512] = "";
; 3350 : 					sprintf( szBuffer, lMsg.Get(1262), gObj[lpMsg->aIndex].Name, pCreateItem.GetName() );
; 3351 : 					
; 3352 : 					PMSG_NOTICE	pNotice;
; 3353 : 					TNotice::MakeNoticeMsg( &pNotice, 0, szBuffer );
; 3354 : 					TNotice::SendNoticeToAllUser( &pNotice );
; 3355 : 
; 3356 : 					PMSG_SERVERCMD	ServerCmd;
; 3357 : 					PHeadSubSetB((LPBYTE)&ServerCmd, 0xF3, 0x40, sizeof(ServerCmd));			
; 3358 : 					ServerCmd.CmdType = 0;
; 3359 : 					ServerCmd.X = gObj[lpMsg->aIndex].X;
; 3360 : 					ServerCmd.Y = gObj[lpMsg->aIndex].Y;
; 3361 : 					MsgSendV2( &gObj[lpMsg->aIndex], (LPBYTE)&ServerCmd, sizeof(ServerCmd) );
; 3362 : 					DataSend( lpMsg->aIndex, (LPBYTE)&ServerCmd, sizeof(ServerCmd));				
; 3363 : 
; 3364 : 					LogAddTD("[Gambling Unique] User:%s(%s) Item:[%s,%d,%d,%d,%d]serial:[%u][%d] Ex:[%d,%d,%d,%d,%d,%d,%d] Set:[%d] 380:[%d] HO:[%d,%d] Socket[%d,%d,%d,%d,%d]", 
; 3365 : 						gObj[lpMsg->aIndex].AccountID, gObj[lpMsg->aIndex].Name,
; 3366 : 						pCreateItem.GetName(),
; 3367 : 						pCreateItem.m_Level,
; 3368 : 						pCreateItem.m_Option1,
; 3369 : 						pCreateItem.m_Option2,
; 3370 : 						pCreateItem.m_Option3,
; 3371 : 						pCreateItem.m_Number,
; 3372 : 						(int)pCreateItem.m_Durability,
; 3373 : 						ExOption[0],
; 3374 : 						ExOption[1],
; 3375 : 						ExOption[2],
; 3376 : 						ExOption[3],
; 3377 : 						ExOption[4],
; 3378 : 						ExOption[5],
; 3379 : 						ExOption[6],
; 3380 : 						pCreateItem.m_SetOption,
; 3381 : 						pCreateItem.m_ItemOptionEx >> 7,
; 3382 : 						g_kJewelOfHarmonySystem.GetItemStrengthenOption( &pCreateItem ),
; 3383 : 						g_kJewelOfHarmonySystem.GetItemOptionLevel( &pCreateItem ),
; 3384 : 						pCreateItem.m_SocketOption[0],
; 3385 : 						pCreateItem.m_SocketOption[1],
; 3386 : 						pCreateItem.m_SocketOption[2],
; 3387 : 						pCreateItem.m_SocketOption[3],
; 3388 : 						pCreateItem.m_SocketOption[4]
; 3389 : 					);
; 3390 : 				}
; 3391 : 				else
; 3392 : 				{
; 3393 : 					LogAddTD("[Gambling Normal] User:%s(%s) Item:[%s,%d,%d,%d,%d]serial:[%u][%d] Ex:[%d,%d,%d,%d,%d,%d,%d] Set:[%d] 380:[%d] HO:[%d,%d] Socket[%d,%d,%d,%d,%d]", 
; 3394 : 						gObj[lpMsg->aIndex].AccountID, gObj[lpMsg->aIndex].Name,
; 3395 : 						pCreateItem.GetName(),
; 3396 : 						pCreateItem.m_Level,
; 3397 : 						pCreateItem.m_Option1,
; 3398 : 						pCreateItem.m_Option2,
; 3399 : 						pCreateItem.m_Option3,
; 3400 : 						pCreateItem.m_Number,
; 3401 : 						(int)pCreateItem.m_Durability,
; 3402 : 						ExOption[0],
; 3403 : 						ExOption[1],
; 3404 : 						ExOption[2],
; 3405 : 						ExOption[3],
; 3406 : 						ExOption[4],
; 3407 : 						ExOption[5],
; 3408 : 						ExOption[6],
; 3409 : 						pCreateItem.m_SetOption,
; 3410 : 						pCreateItem.m_ItemOptionEx >> 7,
; 3411 : 						g_kJewelOfHarmonySystem.GetItemStrengthenOption( &pCreateItem ),
; 3412 : 						g_kJewelOfHarmonySystem.GetItemOptionLevel( &pCreateItem ),
; 3413 : 						pCreateItem.m_SocketOption[0],
; 3414 : 						pCreateItem.m_SocketOption[1],
; 3415 : 						pCreateItem.m_SocketOption[2],
; 3416 : 						pCreateItem.m_SocketOption[3],
; 3417 : 						pCreateItem.m_SocketOption[4]
; 3418 : 					);
; 3419 : 				}
; 3420 : 			}
; 3421 : 			else {
; 3422 : 				// 겜블 아이템 구매 실패
; 3423 : 				GCServerMsgStringSend( lMsg.Get(1260), lpMsg->aIndex, 1);
; 3424 : 				
; 3425 : 				LogAddTD("[Gambling Fail] Error : Failed To Insert Item Type:%d, TypeIndex:%d to [%s][%s]",
; 3426 : 					iItemType,
; 3427 : 					iItemIndex,
; 3428 : 					gObj[lpMsg->aIndex].AccountID,
; 3429 : 					gObj[lpMsg->aIndex].Name
; 3430 : 					);
; 3431 : 			}
; 3432 : 
; 3433 : 			// 클라이언트로 일단 패킷을 리턴해준다.
; 3434 : 			PMSG_BUYRESULT	pResult;			
; 3435 : 			PHeadSetB((LPBYTE)&pResult, 0x32, sizeof( pResult ));
; 3436 : 			pResult.Result = 0xFF;
; 3437 : 			DataSend(aIndex, (LPBYTE)&pResult, pResult.h.size);
; 3438 : 			
; 3439 : 			gObj[aIndex].ChaosLock = FALSE;
; 3440 : 		}
; 3441 : 	}
; 3442 : #endif	// ADD_GAMBLING_20090120
; 3443 : 	else 
; 3444 : 	{
; 3445 : 
; 3446 : 		//#ifdef PICKUP_SYSTEM
; 3447 : 		//	s_PickUp.PickUpActive(lpObj->m_Index, 0);
; 3448 : 		//#endif
; 3449 : 		//PICKUP
; 3450 : #ifdef PICKUP_SYSTEM
; 3451 : 		BOOL DropItem;
; 3452 : 		if (s_PickUp.PickUpActive(lpMsg->lootindex, lpMsg->Type))

  0068d	8b 45 08	 mov	 eax, DWORD PTR _lpMsg$[ebp]
  00690	0f bf 48 0c	 movsx	 ecx, WORD PTR [eax+12]
  00694	51		 push	 ecx
  00695	8b 55 08	 mov	 edx, DWORD PTR _lpMsg$[ebp]
  00698	0f bf 42 18	 movsx	 eax, WORD PTR [edx+24]
  0069c	50		 push	 eax
  0069d	b9 00 00 00 00	 mov	 ecx, OFFSET ?s_PickUp@@3VCPickUpSystem@@A ; s_PickUp
  006a2	e8 00 00 00 00	 call	 ?PickUpActive@CPickUpSystem@@QAEHHH@Z ; CPickUpSystem::PickUpActive
  006a7	85 c0		 test	 eax, eax
  006a9	0f 84 a2 01 00
	00		 je	 $LN26@ItemSerial

; 3453 : 		{
; 3454 : 
; 3455 : 			if (gObj[lpMsg->lootindex].Connected > PLAYER_CONNECTED)

  006af	8b 45 08	 mov	 eax, DWORD PTR _lpMsg$[ebp]
  006b2	0f bf 48 18	 movsx	 ecx, WORD PTR [eax+24]
  006b6	69 d1 a0 1b 00
	00		 imul	 edx, ecx, 7072
  006bc	a1 00 00 00 00	 mov	 eax, DWORD PTR ?gObj@@3PAVOBJECTSTRUCT@@A ; gObj
  006c1	83 7c 10 04 01	 cmp	 DWORD PTR [eax+edx+4], 1
  006c6	0f 8e 83 01 00
	00		 jle	 $LN30@ItemSerial

; 3456 : 			{
; 3457 : 				CItem pCreateItem;

  006cc	8d 8d cc fd ff
	ff		 lea	 ecx, DWORD PTR _pCreateItem$9[ebp]
  006d2	e8 00 00 00 00	 call	 ??0CItem@@QAE@XZ	; CItem::CItem

; 3458 : 				int iItemType = ITEM_GET_TYPE(lpMsg->Type);

  006d7	8b 45 08	 mov	 eax, DWORD PTR _lpMsg$[ebp]
  006da	0f bf 40 0c	 movsx	 eax, WORD PTR [eax+12]
  006de	99		 cdq
  006df	81 e2 ff 01 00
	00		 and	 edx, 511		; 000001ffH
  006e5	03 c2		 add	 eax, edx
  006e7	c1 f8 09	 sar	 eax, 9
  006ea	89 85 c8 fd ff
	ff		 mov	 DWORD PTR _iItemType$8[ebp], eax

; 3459 : 				int iItemIndex = ITEM_GET_INDEX(lpMsg->Type);

  006f0	8b 45 08	 mov	 eax, DWORD PTR _lpMsg$[ebp]
  006f3	0f bf 48 0c	 movsx	 ecx, WORD PTR [eax+12]
  006f7	81 e1 ff 01 00
	80		 and	 ecx, -2147483137	; 800001ffH
  006fd	79 08		 jns	 SHORT $LN46@ItemSerial
  006ff	49		 dec	 ecx
  00700	81 c9 00 fe ff
	ff		 or	 ecx, -512		; fffffe00H
  00706	41		 inc	 ecx
$LN46@ItemSerial:
  00707	89 8d c4 fd ff
	ff		 mov	 DWORD PTR _iItemIndex$7[ebp], ecx

; 3460 : 
; 3461 : 				pCreateItem.Convert(ITEMGET(iItemType, iItemIndex), lpMsg->Op1, lpMsg->Op2,

  0070d	6a 00		 push	 0
  0070f	8b 45 08	 mov	 eax, DWORD PTR _lpMsg$[ebp]
  00712	0f b6 48 1a	 movzx	 ecx, BYTE PTR [eax+26]
  00716	51		 push	 ecx
  00717	8b 55 08	 mov	 edx, DWORD PTR _lpMsg$[ebp]
  0071a	0f b6 42 13	 movzx	 eax, BYTE PTR [edx+19]
  0071e	50		 push	 eax
  0071f	8b 4d 08	 mov	 ecx, DWORD PTR _lpMsg$[ebp]
  00722	0f b6 51 12	 movzx	 edx, BYTE PTR [ecx+18]
  00726	52		 push	 edx
  00727	8b 45 08	 mov	 eax, DWORD PTR _lpMsg$[ebp]
  0072a	0f b6 48 11	 movzx	 ecx, BYTE PTR [eax+17]
  0072e	51		 push	 ecx
  0072f	8b 55 08	 mov	 edx, DWORD PTR _lpMsg$[ebp]
  00732	0f b6 42 10	 movzx	 eax, BYTE PTR [edx+16]
  00736	50		 push	 eax
  00737	8b 8d c8 fd ff
	ff		 mov	 ecx, DWORD PTR _iItemType$8[ebp]
  0073d	c1 e1 09	 shl	 ecx, 9
  00740	03 8d c4 fd ff
	ff		 add	 ecx, DWORD PTR _iItemIndex$7[ebp]
  00746	51		 push	 ecx
  00747	8d 8d cc fd ff
	ff		 lea	 ecx, DWORD PTR _pCreateItem$9[ebp]
  0074d	e8 00 00 00 00	 call	 ?Convert@CItem@@QAEXHEEEEEE@Z ; CItem::Convert

; 3462 : 					lpMsg->Op3, lpMsg->NewOption, lpMsg->SetOption, 0);
; 3463 : 				pCreateItem.m_Level = lpMsg->Level;

  00752	8b 45 08	 mov	 eax, DWORD PTR _lpMsg$[ebp]
  00755	66 0f b6 48 0e	 movzx	 cx, BYTE PTR [eax+14]
  0075a	66 89 8d d4 fd
	ff ff		 mov	 WORD PTR _pCreateItem$9[ebp+8], cx

; 3464 : 				pCreateItem.m_Durability = lpMsg->Dur;

  00761	8b 45 08	 mov	 eax, DWORD PTR _lpMsg$[ebp]
  00764	0f b6 48 0f	 movzx	 ecx, BYTE PTR [eax+15]
  00768	f3 0f 2a c1	 cvtsi2ss xmm0, ecx
  0076c	f3 0f 11 85 f0
	fd ff ff	 movss	 DWORD PTR _pCreateItem$9[ebp+36], xmm0

; 3465 : 
; 3466 : 				BYTE btItemPos = gObjInventoryInsertItem(lpMsg->lootindex, pCreateItem);

  00774	81 ec a8 00 00
	00		 sub	 esp, 168		; 000000a8H
  0077a	b9 2a 00 00 00	 mov	 ecx, 42			; 0000002aH
  0077f	8d b5 cc fd ff
	ff		 lea	 esi, DWORD PTR _pCreateItem$9[ebp]
  00785	8b fc		 mov	 edi, esp
  00787	f3 a5		 rep movsd
  00789	8b 45 08	 mov	 eax, DWORD PTR _lpMsg$[ebp]
  0078c	0f bf 48 18	 movsx	 ecx, WORD PTR [eax+24]
  00790	51		 push	 ecx
  00791	e8 00 00 00 00	 call	 ?gObjInventoryInsertItem@@YAEHVCItem@@@Z ; gObjInventoryInsertItem
  00796	81 c4 ac 00 00
	00		 add	 esp, 172		; 000000acH
  0079c	88 85 c3 fd ff
	ff		 mov	 BYTE PTR _btItemPos$6[ebp], al

; 3467 : 
; 3468 : 				if (btItemPos == (BYTE)-1)

  007a2	0f b6 85 c3 fd
	ff ff		 movzx	 eax, BYTE PTR _btItemPos$6[ebp]
  007a9	3d ff 00 00 00	 cmp	 eax, 255		; 000000ffH
  007ae	75 57		 jne	 SHORT $LN29@ItemSerial

; 3469 : 				{
; 3470 : 					DropItem = false;

  007b0	c7 85 74 fe ff
	ff 00 00 00 00	 mov	 DWORD PTR _DropItem$10[ebp], 0

; 3471 : 					LogAddTD("[PickupSystem] Error : Failed To Insert Item Type:%d, TypeIndex:%d to [%s][%s]",

  007ba	8b 45 08	 mov	 eax, DWORD PTR _lpMsg$[ebp]
  007bd	0f bf 48 18	 movsx	 ecx, WORD PTR [eax+24]
  007c1	69 d1 a0 1b 00
	00		 imul	 edx, ecx, 7072
  007c7	a1 00 00 00 00	 mov	 eax, DWORD PTR ?gObj@@3PAVOBJECTSTRUCT@@A ; gObj
  007cc	8d 4c 10 73	 lea	 ecx, DWORD PTR [eax+edx+115]
  007d0	51		 push	 ecx
  007d1	8b 55 08	 mov	 edx, DWORD PTR _lpMsg$[ebp]
  007d4	0f bf 42 18	 movsx	 eax, WORD PTR [edx+24]
  007d8	69 c8 a0 1b 00
	00		 imul	 ecx, eax, 7072
  007de	8b 15 00 00 00
	00		 mov	 edx, DWORD PTR ?gObj@@3PAVOBJECTSTRUCT@@A ; gObj
  007e4	8d 44 0a 68	 lea	 eax, DWORD PTR [edx+ecx+104]
  007e8	50		 push	 eax
  007e9	8b 8d c4 fd ff
	ff		 mov	 ecx, DWORD PTR _iItemIndex$7[ebp]
  007ef	51		 push	 ecx
  007f0	8b 95 c8 fd ff
	ff		 mov	 edx, DWORD PTR _iItemType$8[ebp]
  007f6	52		 push	 edx
  007f7	68 00 00 00 00	 push	 OFFSET ??_C@_0EP@FICGMJHI@?$FLPickupSystem?$FN?5Error?5?3?5Failed?5T@
  007fc	ff 15 00 00 00
	00		 call	 DWORD PTR ?LogAddTD@@3P6AXPADZZA ; LogAddTD
  00802	83 c4 14	 add	 esp, 20			; 00000014H

; 3472 : 						iItemType, iItemIndex, gObj[lpMsg->lootindex].AccountID, gObj[lpMsg->lootindex].Name);
; 3473 : 				}

  00805	eb 48		 jmp	 SHORT $LN30@ItemSerial
$LN29@ItemSerial:

; 3474 : 				else
; 3475 : 				{
; 3476 : 					DropItem = true;

  00807	c7 85 74 fe ff
	ff 01 00 00 00	 mov	 DWORD PTR _DropItem$10[ebp], 1

; 3477 : 					GCInventoryItemOneSend(lpMsg->lootindex, btItemPos);

  00811	0f b6 85 c3 fd
	ff ff		 movzx	 eax, BYTE PTR _btItemPos$6[ebp]
  00818	50		 push	 eax
  00819	8b 4d 08	 mov	 ecx, DWORD PTR _lpMsg$[ebp]
  0081c	0f bf 51 18	 movsx	 edx, WORD PTR [ecx+24]
  00820	52		 push	 edx
  00821	e8 00 00 00 00	 call	 ?GCInventoryItemOneSend@@YAXHH@Z ; GCInventoryItemOneSend
  00826	83 c4 08	 add	 esp, 8

; 3478 : 					MsgOutput(lpMsg->lootindex, "[PickUp System] : %s Obtained", ItemAttribute[lpMsg->Type].Name);

  00829	8b 45 08	 mov	 eax, DWORD PTR _lpMsg$[ebp]
  0082c	0f bf 48 0c	 movsx	 ecx, WORD PTR [eax+12]
  00830	6b d1 6c	 imul	 edx, ecx, 108
  00833	81 c2 00 00 00
	00		 add	 edx, OFFSET ?ItemAttribute@@3PAUITEM_ATTRIBUTE@@A ; ItemAttribute
  00839	52		 push	 edx
  0083a	68 00 00 00 00	 push	 OFFSET ??_C@_0BO@CNHMPMBL@?$FLPickUp?5System?$FN?5?3?5?$CFs?5Obtained@
  0083f	8b 45 08	 mov	 eax, DWORD PTR _lpMsg$[ebp]
  00842	0f bf 48 18	 movsx	 ecx, WORD PTR [eax+24]
  00846	51		 push	 ecx
  00847	e8 00 00 00 00	 call	 ?MsgOutput@@YAXHPADZZ	; MsgOutput
  0084c	83 c4 0c	 add	 esp, 12			; 0000000cH
$LN30@ItemSerial:

; 3479 : 				}
; 3480 : 			}
; 3481 : 
; 3482 : 		}

  0084f	eb 0a		 jmp	 SHORT $LN27@ItemSerial
$LN26@ItemSerial:

; 3483 : 		else
; 3484 : 		{
; 3485 : 
; 3486 : 			DropItem = false;

  00851	c7 85 74 fe ff
	ff 00 00 00 00	 mov	 DWORD PTR _DropItem$10[ebp], 0
$LN27@ItemSerial:

; 3487 : 		}
; 3488 : 		if (!DropItem)

  0085b	83 bd 74 fe ff
	ff 00		 cmp	 DWORD PTR _DropItem$10[ebp], 0
  00862	0f 85 13 04 00
	00		 jne	 $LN31@ItemSerial

; 3489 : 		{
; 3490 : #endif
; 3491 : #ifdef FOR_BLOODCASTLE
; 3492 : 		INT iRetMapNumber = lpMsg->MapNumber;

  00868	8b 45 08	 mov	 eax, DWORD PTR _lpMsg$[ebp]
  0086b	0f b6 48 05	 movzx	 ecx, BYTE PTR [eax+5]
  0086f	89 8d bc fd ff
	ff		 mov	 DWORD PTR _iRetMapNumber$5[ebp], ecx

; 3493 : 
; 3494 : #ifdef ADD_BLOODCASTLE_FOR_MASTER_LEVEL_20071010	// 맵 체크 변경
; 3495 : 		if ((lpMsg->MapNumber >= BC_MAPNUMBER_CHAOSGEM1) && (lpMsg->MapNumber <= BC_MAPNUMBER_CHAOSGEM8)) 
; 3496 : 		{
; 3497 : 			mapnumber = g_BloodCastle.GetMapNumByBC_CHAOSGEM( iRetMapNumber );
; 3498 : 		}
; 3499 : #else		
; 3500 : #ifdef BLOODCASTLE_EXTEND_20040314
; 3501 : 		if ((lpMsg->MapNumber >= BC_MAPNUMBER_CHAOSGEM1) && (lpMsg->MapNumber <= BC_MAPNUMBER_CHAOSGEM7)) {

  00875	8b 45 08	 mov	 eax, DWORD PTR _lpMsg$[ebp]
  00878	0f b6 48 05	 movzx	 ecx, BYTE PTR [eax+5]
  0087c	81 f9 ee 00 00
	00		 cmp	 ecx, 238		; 000000eeH
  00882	7c 1a		 jl	 SHORT $LN32@ItemSerial
  00884	8b 45 08	 mov	 eax, DWORD PTR _lpMsg$[ebp]
  00887	0f b6 48 05	 movzx	 ecx, BYTE PTR [eax+5]
  0088b	81 f9 f4 00 00
	00		 cmp	 ecx, 244		; 000000f4H
  00891	7f 0b		 jg	 SHORT $LN32@ItemSerial

; 3502 : #else
; 3503 : 		if ((lpMsg->MapNumber >= BC_MAPNUMBER_CHAOSGEM1) && (lpMsg->MapNumber <= BC_MAPNUMBER_CHAOSGEM6)) {
; 3504 : #endif
; 3505 : 			mapnumber -= BC_MAPNUMBER_BASE_CHAOSGEM;

  00893	8b 45 f4	 mov	 eax, DWORD PTR _mapnumber$[ebp]
  00896	2d e3 00 00 00	 sub	 eax, 227		; 000000e3H
  0089b	89 45 f4	 mov	 DWORD PTR _mapnumber$[ebp], eax
$LN32@ItemSerial:

; 3506 : 		}
; 3507 : #endif	// ADD_BLOODCASTLE_FOR_MASTER_LEVEL_20071010
; 3508 : 
; 3509 : #ifdef ADD_BLOODCASTLE_FOR_MASTER_LEVEL_20071010	// 맵 체크 변경		
; 3510 : 		if ((lpMsg->MapNumber >= BC_MAPNUMBER_ULTIMATEWEAPON1) && (lpMsg->MapNumber <= BC_MAPNUMBER_ULTIMATEWEAPON8)) 
; 3511 : 		{
; 3512 : 			mapnumber = g_BloodCastle.GetMapNumByBC_ULTIMATEWEAPON( iRetMapNumber );
; 3513 : 		}
; 3514 : #else
; 3515 : #ifdef BLOODCASTLE_EXTEND_20040314
; 3516 : 		if ((lpMsg->MapNumber >= BC_MAPNUMBER_ULTIMATEWEAPON1) && (lpMsg->MapNumber <= BC_MAPNUMBER_ULTIMATEWEAPON7)) {

  0089e	8b 45 08	 mov	 eax, DWORD PTR _lpMsg$[ebp]
  008a1	0f b6 48 05	 movzx	 ecx, BYTE PTR [eax+5]
  008a5	81 f9 f7 00 00
	00		 cmp	 ecx, 247		; 000000f7H
  008ab	7c 1a		 jl	 SHORT $LN33@ItemSerial
  008ad	8b 45 08	 mov	 eax, DWORD PTR _lpMsg$[ebp]
  008b0	0f b6 48 05	 movzx	 ecx, BYTE PTR [eax+5]
  008b4	81 f9 fd 00 00
	00		 cmp	 ecx, 253		; 000000fdH
  008ba	7f 0b		 jg	 SHORT $LN33@ItemSerial

; 3517 : #else
; 3518 : 		if ((lpMsg->MapNumber >= BC_MAPNUMBER_ULTIMATEWEAPON1) && (lpMsg->MapNumber <= BC_MAPNUMBER_ULTIMATEWEAPON6)) {
; 3519 : #endif
; 3520 : 			mapnumber -= BC_MAPNUMBER_BASE_ULTIMATEWEAPON;

  008bc	8b 45 f4	 mov	 eax, DWORD PTR _mapnumber$[ebp]
  008bf	2d ec 00 00 00	 sub	 eax, 236		; 000000ecH
  008c4	89 45 f4	 mov	 DWORD PTR _mapnumber$[ebp], eax
$LN33@ItemSerial:

; 3521 : 		}
; 3522 : #endif	// ADD_BLOODCASTLE_FOR_MASTER_LEVEL_20071010		
; 3523 : 
; 3524 : #ifdef ADD_ITEM_SOCKET_OPTION_EXTEND_20080422
; 3525 : 		// 소켓아이템은 엑설런트옵션과 세트옵션을 삭제한다.
; 3526 : 
; 3527 : 		BYTE btSocketSlotCount = 0;
; 3528 : 		BYTE btSocketOption[MAX_SOCKET_SLOT];
; 3529 : 		BYTE btBonusSocketOption = 0;
; 3530 : 
; 3531 : 		if( g_SocketOptionSystem.IsEnableSocketItem( lpMsg->Type ) == true )
; 3532 : 		{	
; 3533 : #ifdef MODIFY_ITEM_SOCKET_OPTION_BUGFIX_05_20080715
; 3534 : 			btSocketSlotCount = g_SocketOptionSystem.GetMakeSocketSlotCount( lpMsg->Type );
; 3535 : #else
; 3536 : 			btSocketSlotCount = g_SocketOptionSystem.GetMakeSocketSlotCount();
; 3537 : #endif // MODIFY_ITEM_SOCKET_OPTION_BUGFIX_05_20080715
; 3538 : 			
; 3539 : #ifdef ADD_SOCKET_OPTION_LOG_02_20080821
; 3540 : 			LogAddTD( "[SocketItem] Drop Socket Item ( Socket Slot : %d ) - %s, [%d,%d,%d,%d], Serial : %u, ItemCode : %d, Level : %d, MapNumber : %d(%d/%d)",
; 3541 : 				 btSocketSlotCount, ItemAttribute[lpMsg->Type].Name, lpMsg->Level, lpMsg->Op1, lpMsg->Op2, lpMsg->Op3, lpMsg->m_Number, lpMsg->Type, lpMsg->Level, lpMsg->MapNumber, lpMsg->x, lpMsg->y );
; 3542 : #else
; 3543 : 	#ifdef ADD_SOCKET_OPTION_LOG_20080715
; 3544 : 			LogAddTD( "[SocketItem] Drop Socket Item ( Socket Slot : %d ) - ItemCode : %d, Level : %d, MapNumber : %d(%d/%d)",
; 3545 : 				 btSocketSlotCount, lpMsg->Type, lpMsg->Level, lpMsg->MapNumber, lpMsg->x, lpMsg->y );
; 3546 : 	#endif // ADD_SOCKET_OPTION_LOG_20080715
; 3547 : #endif // ADD_SOCKET_OPTION_LOG_02_20080821
; 3548 : 
; 3549 : 			btBonusSocketOption = SOCKETSLOT_NONE;
; 3550 : 
; 3551 : 			for( int i = 0 ; i < MAX_SOCKET_SLOT ; i++ )
; 3552 : 			{
; 3553 : 				if( i < btSocketSlotCount )
; 3554 : 				{
; 3555 : 					btSocketOption[i] = SOCKETSLOT_EMPTY;
; 3556 : 				}
; 3557 : 				else
; 3558 : 				{
; 3559 : 					btSocketOption[i] = SOCKETSLOT_NONE;
; 3560 : 				}
; 3561 : 			}
; 3562 : 		}
; 3563 : 		else
; 3564 : 		{
; 3565 : 			btBonusSocketOption = 0;
; 3566 : 
; 3567 : 			for( int i = 0 ; i < MAX_SOCKET_SLOT ; i++ )
; 3568 : 			{
; 3569 : 				btSocketOption[i] = SOCKETSLOT_NONE;
; 3570 : 			}
; 3571 : 		}
; 3572 : 
; 3573 : 		INT iItemCount = MapC[mapnumber].MonsterItemDrop(
; 3574 : 							lpMsg->Type, 
; 3575 : 							lpMsg->Level, 
; 3576 : 							lpMsg->Dur, 
; 3577 : 							lpMsg->x, 
; 3578 : 							lpMsg->y, 
; 3579 : 							lpMsg->Op1, 
; 3580 : 							lpMsg->Op2, 
; 3581 : 							lpMsg->Op3, 
; 3582 : 							lpMsg->NewOption,
; 3583 : 							lpMsg->SetOption,
; 3584 : 							lootindex, 
; 3585 : 							lpMsg->m_Number,
; 3586 : 							0,
; 3587 : 							btSocketOption,
; 3588 :   							btBonusSocketOption );
; 3589 : 
; 3590 : #else
; 3591 : 
; 3592 : 		INT iItemCount = MapC[mapnumber].MonsterItemDrop(

  008c7	8b 45 08	 mov	 eax, DWORD PTR _lpMsg$[ebp]
  008ca	8b 48 08	 mov	 ecx, DWORD PTR [eax+8]
  008cd	51		 push	 ecx
  008ce	8b 55 ec	 mov	 edx, DWORD PTR _lootindex$[ebp]
  008d1	52		 push	 edx
  008d2	8b 45 08	 mov	 eax, DWORD PTR _lpMsg$[ebp]
  008d5	0f b6 48 1a	 movzx	 ecx, BYTE PTR [eax+26]
  008d9	51		 push	 ecx
  008da	8b 55 08	 mov	 edx, DWORD PTR _lpMsg$[ebp]
  008dd	0f b6 42 13	 movzx	 eax, BYTE PTR [edx+19]
  008e1	50		 push	 eax
  008e2	8b 4d 08	 mov	 ecx, DWORD PTR _lpMsg$[ebp]
  008e5	0f b6 51 12	 movzx	 edx, BYTE PTR [ecx+18]
  008e9	52		 push	 edx
  008ea	8b 45 08	 mov	 eax, DWORD PTR _lpMsg$[ebp]
  008ed	0f b6 48 11	 movzx	 ecx, BYTE PTR [eax+17]
  008f1	51		 push	 ecx
  008f2	8b 55 08	 mov	 edx, DWORD PTR _lpMsg$[ebp]
  008f5	0f b6 42 10	 movzx	 eax, BYTE PTR [edx+16]
  008f9	50		 push	 eax
  008fa	8b 4d 08	 mov	 ecx, DWORD PTR _lpMsg$[ebp]
  008fd	0f b6 51 04	 movzx	 edx, BYTE PTR [ecx+4]
  00901	52		 push	 edx
  00902	8b 45 08	 mov	 eax, DWORD PTR _lpMsg$[ebp]
  00905	0f b6 48 03	 movzx	 ecx, BYTE PTR [eax+3]
  00909	51		 push	 ecx
  0090a	8b 55 08	 mov	 edx, DWORD PTR _lpMsg$[ebp]
  0090d	0f b6 42 0f	 movzx	 eax, BYTE PTR [edx+15]
  00911	f3 0f 2a c0	 cvtsi2ss xmm0, eax
  00915	51		 push	 ecx
  00916	f3 0f 11 04 24	 movss	 DWORD PTR [esp], xmm0
  0091b	8b 4d 08	 mov	 ecx, DWORD PTR _lpMsg$[ebp]
  0091e	0f b6 51 0e	 movzx	 edx, BYTE PTR [ecx+14]
  00922	52		 push	 edx
  00923	8b 45 08	 mov	 eax, DWORD PTR _lpMsg$[ebp]
  00926	0f bf 48 0c	 movsx	 ecx, WORD PTR [eax+12]
  0092a	51		 push	 ecx
  0092b	69 4d f4 8c 04
	05 00		 imul	 ecx, DWORD PTR _mapnumber$[ebp], 328844
  00932	03 0d 00 00 00
	00		 add	 ecx, DWORD PTR ?MapC@@3PAVMapClass@@A ; MapC
  00938	e8 00 00 00 00	 call	 ?MonsterItemDrop@MapClass@@QAEHHHMHHEEEEEHK@Z ; MapClass::MonsterItemDrop
  0093d	89 85 b8 fd ff
	ff		 mov	 DWORD PTR _iItemCount$4[ebp], eax

; 3593 : 							lpMsg->Type, 
; 3594 : 							lpMsg->Level, 
; 3595 : 							lpMsg->Dur, 
; 3596 : 							lpMsg->x, 
; 3597 : 							lpMsg->y, 
; 3598 : 							lpMsg->Op1, 
; 3599 : 							lpMsg->Op2, 
; 3600 : 							lpMsg->Op3, 
; 3601 : 							lpMsg->NewOption,
; 3602 : 							lpMsg->SetOption,
; 3603 : 							lootindex, 
; 3604 : 							lpMsg->m_Number);
; 3605 : 
; 3606 : #endif // ADD_ITEM_SOCKET_OPTION_EXTEND_20080422
; 3607 : 
; 3608 : 		if (iItemCount != -1) 

  00943	83 bd b8 fd ff
	ff ff		 cmp	 DWORD PTR _iItemCount$4[ebp], -1
  0094a	0f 84 f1 00 00
	00		 je	 $LN36@ItemSerial

; 3609 : 		{
; 3610 : #ifdef ADD_BLOODCASTLE_FOR_MASTER_LEVEL_20071010		// 맵 체크 변경 
; 3611 : 			if ((iRetMapNumber >= BC_MAPNUMBER_CHAOSGEM1) && (iRetMapNumber <= BC_MAPNUMBER_CHAOSGEM8)) {
; 3612 : #else
; 3613 : #ifdef BLOODCASTLE_EXTEND_20040314
; 3614 : 			if ((iRetMapNumber >= BC_MAPNUMBER_CHAOSGEM1) && (iRetMapNumber <= BC_MAPNUMBER_CHAOSGEM7)) {

  00950	81 bd bc fd ff
	ff ee 00 00 00	 cmp	 DWORD PTR _iRetMapNumber$5[ebp], 238 ; 000000eeH
  0095a	7c 5e		 jl	 SHORT $LN35@ItemSerial
  0095c	81 bd bc fd ff
	ff f4 00 00 00	 cmp	 DWORD PTR _iRetMapNumber$5[ebp], 244 ; 000000f4H
  00966	7f 52		 jg	 SHORT $LN35@ItemSerial

; 3615 : #else
; 3616 : 			if ((iRetMapNumber >= BC_MAPNUMBER_CHAOSGEM1) && (iRetMapNumber <= BC_MAPNUMBER_CHAOSGEM6)) {
; 3617 : #endif
; 3618 : #endif	// ADD_BLOODCASTLE_FOR_MASTER_LEVEL_20071010
; 3619 : 				// 만약 아이템이 대천사 보상 혼석이라면
; 3620 : 				MapC[mapnumber].m_cItem[iItemCount].m_Time = GetTickCount() + BC_REWARD_CHAOSEGEM_LOOT_TIME;

  00968	ff 15 00 00 00
	00		 call	 DWORD PTR __imp__GetTickCount@0
  0096e	05 e0 93 04 00	 add	 eax, 300000		; 000493e0H
  00973	69 4d f4 8c 04
	05 00		 imul	 ecx, DWORD PTR _mapnumber$[ebp], 328844
  0097a	03 0d 00 00 00
	00		 add	 ecx, DWORD PTR ?MapC@@3PAVMapClass@@A ; MapC
  00980	69 95 b8 fd ff
	ff 48 04 00 00	 imul	 edx, DWORD PTR _iItemCount$4[ebp], 1096
  0098a	89 84 11 d4 00
	00 00		 mov	 DWORD PTR [ecx+edx+212], eax

; 3621 : 				MapC[mapnumber].m_cItem[iItemCount].m_LootTime = GetTickCount() + BC_ANGEL_WEAPON_LOOT_TIME * 2;

  00991	ff 15 00 00 00
	00		 call	 DWORD PTR __imp__GetTickCount@0
  00997	05 20 4e 00 00	 add	 eax, 20000		; 00004e20H
  0099c	69 4d f4 8c 04
	05 00		 imul	 ecx, DWORD PTR _mapnumber$[ebp], 328844
  009a3	03 0d 00 00 00
	00		 add	 ecx, DWORD PTR ?MapC@@3PAVMapClass@@A ; MapC
  009a9	69 95 b8 fd ff
	ff 48 04 00 00	 imul	 edx, DWORD PTR _iItemCount$4[ebp], 1096
  009b3	89 84 11 dc 00
	00 00		 mov	 DWORD PTR [ecx+edx+220], eax
$LN35@ItemSerial:

; 3622 : 			}
; 3623 : 
; 3624 : #ifdef ADD_BLOODCASTLE_FOR_MASTER_LEVEL_20071010		// 맵 체크 변경
; 3625 : 			if ((iRetMapNumber >= BC_MAPNUMBER_ULTIMATEWEAPON1) && (iRetMapNumber <= BC_MAPNUMBER_ULTIMATEWEAPON8)) 
; 3626 : 			{				
; 3627 : 				// 만약 아이템이 대천사 절대아이템 이라면
; 3628 : 				MapC[mapnumber].m_cItem[iItemCount].m_Time = GetTickCount() + BC_REWARD_CHAOSEGEM_LOOT_TIME * 3;
; 3629 : 				MapC[mapnumber].m_cItem[iItemCount].m_LootTime = GetTickCount() + BC_ANGEL_WEAPON_LOOT_TIME;
; 3630 : 
; 3631 : 				int iBridgeIndex = g_BloodCastle.GetBridgeIndexByMapNum( mapnumber );
; 3632 : 				g_BloodCastle.m_BridgeData[iBridgeIndex].m_nBC_QUESTITEM_SERIAL = lpMsg->m_Number;
; 3633 : 			}
; 3634 : #else
; 3635 : #ifdef BLOODCASTLE_EXTEND_20040314
; 3636 : 			if ((iRetMapNumber >= BC_MAPNUMBER_ULTIMATEWEAPON1) && (iRetMapNumber <= BC_MAPNUMBER_ULTIMATEWEAPON7)) {

  009ba	81 bd bc fd ff
	ff f7 00 00 00	 cmp	 DWORD PTR _iRetMapNumber$5[ebp], 247 ; 000000f7H
  009c4	7c 7b		 jl	 SHORT $LN36@ItemSerial
  009c6	81 bd bc fd ff
	ff fd 00 00 00	 cmp	 DWORD PTR _iRetMapNumber$5[ebp], 253 ; 000000fdH
  009d0	7f 6f		 jg	 SHORT $LN36@ItemSerial

; 3637 : #else
; 3638 : 			if ((iRetMapNumber >= BC_MAPNUMBER_ULTIMATEWEAPON1) && (iRetMapNumber <= BC_MAPNUMBER_ULTIMATEWEAPON6)) {
; 3639 : #endif
; 3640 : 				// 만약 아이템이 대천사 절대아이템 이라면
; 3641 : 				MapC[mapnumber].m_cItem[iItemCount].m_Time = GetTickCount() + BC_REWARD_CHAOSEGEM_LOOT_TIME * 3;

  009d2	ff 15 00 00 00
	00		 call	 DWORD PTR __imp__GetTickCount@0
  009d8	05 a0 bb 0d 00	 add	 eax, 900000		; 000dbba0H
  009dd	69 4d f4 8c 04
	05 00		 imul	 ecx, DWORD PTR _mapnumber$[ebp], 328844
  009e4	03 0d 00 00 00
	00		 add	 ecx, DWORD PTR ?MapC@@3PAVMapClass@@A ; MapC
  009ea	69 95 b8 fd ff
	ff 48 04 00 00	 imul	 edx, DWORD PTR _iItemCount$4[ebp], 1096
  009f4	89 84 11 d4 00
	00 00		 mov	 DWORD PTR [ecx+edx+212], eax

; 3642 : 				MapC[mapnumber].m_cItem[iItemCount].m_LootTime = GetTickCount() + BC_ANGEL_WEAPON_LOOT_TIME;

  009fb	ff 15 00 00 00
	00		 call	 DWORD PTR __imp__GetTickCount@0
  00a01	05 10 27 00 00	 add	 eax, 10000		; 00002710H
  00a06	69 4d f4 8c 04
	05 00		 imul	 ecx, DWORD PTR _mapnumber$[ebp], 328844
  00a0d	03 0d 00 00 00
	00		 add	 ecx, DWORD PTR ?MapC@@3PAVMapClass@@A ; MapC
  00a13	69 95 b8 fd ff
	ff 48 04 00 00	 imul	 edx, DWORD PTR _iItemCount$4[ebp], 1096
  00a1d	89 84 11 dc 00
	00 00		 mov	 DWORD PTR [ecx+edx+220], eax

; 3643 : 				g_BloodCastle.m_BridgeData[iRetMapNumber - BC_MAPNUMBER_ULTIMATEWEAPON1].m_nBC_QUESTITEM_SERIAL = lpMsg->m_Number;

  00a24	8b 85 bc fd ff
	ff		 mov	 eax, DWORD PTR _iRetMapNumber$5[ebp]
  00a2a	2d f7 00 00 00	 sub	 eax, 247		; 000000f7H
  00a2f	69 c8 04 02 00
	00		 imul	 ecx, eax, 516
  00a35	8b 55 08	 mov	 edx, DWORD PTR _lpMsg$[ebp]
  00a38	8b 42 08	 mov	 eax, DWORD PTR [edx+8]
  00a3b	89 81 90 01 00
	00		 mov	 DWORD PTR ?g_BloodCastle@@3VCBloodCastle@@A[ecx+400], eax
$LN36@ItemSerial:

; 3644 : 			}
; 3645 : #endif	// ADD_BLOODCASTLE_FOR_MASTER_LEVEL_20071010
; 3646 : 		}
; 3647 : 
; 3648 : #else
; 3649 : 		MapC[mapnumber].MonsterItemDrop(
; 3650 : 			lpMsg->Type, 
; 3651 : 			lpMsg->Level, 
; 3652 : 			lpMsg->Dur, 
; 3653 : 			lpMsg->x, 
; 3654 : 			lpMsg->y, 
; 3655 : 			lpMsg->Op1, 
; 3656 : 			lpMsg->Op2, 
; 3657 : 			lpMsg->Op3, 
; 3658 : 			lpMsg->NewOption,
; 3659 : 			lpMsg->SetOption,
; 3660 : 			lootindex, 
; 3661 : 			lpMsg->m_Number);
; 3662 : #endif
; 3663 : 
; 3664 : #ifdef ADD_EVENT_MAP_ILLUSION_TEMPLE_20070328	// 성물 일경우 없어지는 시간과 루팅 시간 설정
; 3665 : 			if(CHECK_ILLUSION_TEMPLE(mapnumber))
; 3666 : 			{
; 3667 : 				// 성물 루팅 시간
; 3668 : 				if(lpMsg->Type == MAKE_ITEMNUM(14, 64))
; 3669 : 				{
; 3670 : 					MapC[mapnumber].m_cItem[iItemCount].m_Time = GetTickCount() + ILLUSION_TEMPLE_RELICS_LOOT_TIME * 3 * 1000;
; 3671 : 					MapC[mapnumber].m_cItem[iItemCount].m_LootTime = GetTickCount() + ILLUSION_TEMPLE_RELICS_LOOT_TIME * 1000;
; 3672 : 				}
; 3673 : 				
; 3674 : 				// 혼석 루팅 시간
; 3675 : 				if(lpMsg->Type == MAKE_ITEMNUM(12, 15))
; 3676 : 				{
; 3677 : 					MapC[mapnumber].m_cItem[iItemCount].m_Time = GetTickCount() + ILLUSION_TEMPLE_CHAOSGEM_LOOT_TIME;
; 3678 : #ifdef MODIFY_ILLUSIONTEMPLE_BUGFIX_2_20070724	//보상 혼석 루팅시간 10초
; 3679 : 					MapC[mapnumber].m_cItem[iItemCount].m_LootTime = GetTickCount() + 10*1000;
; 3680 : #else
; 3681 : 					MapC[mapnumber].m_cItem[iItemCount].m_LootTime = GetTickCount() + ILLUSION_TEMPLE_CHAOSGEM_LOOT_TIME * 2;
; 3682 : #endif
; 3683 : 				}
; 3684 : 			}
; 3685 : #endif
; 3686 : 
; 3687 : 		BYTE NewOption[8];
; 3688 : 		for( int i=0; i<8; i++) NewOption[i]=0;

  00a41	c7 85 ac fd ff
	ff 00 00 00 00	 mov	 DWORD PTR _i$2[ebp], 0
  00a4b	eb 0f		 jmp	 SHORT $LN4@ItemSerial
$LN2@ItemSerial:
  00a4d	8b 85 ac fd ff
	ff		 mov	 eax, DWORD PTR _i$2[ebp]
  00a53	83 c0 01	 add	 eax, 1
  00a56	89 85 ac fd ff
	ff		 mov	 DWORD PTR _i$2[ebp], eax
$LN4@ItemSerial:
  00a5c	83 bd ac fd ff
	ff 08		 cmp	 DWORD PTR _i$2[ebp], 8
  00a63	7d 2c		 jge	 SHORT $LN3@ItemSerial
  00a65	8b 85 ac fd ff
	ff		 mov	 eax, DWORD PTR _i$2[ebp]
  00a6b	89 85 28 fd ff
	ff		 mov	 DWORD PTR $T1[ebp], eax
  00a71	83 bd 28 fd ff
	ff 08		 cmp	 DWORD PTR $T1[ebp], 8
  00a78	73 02		 jae	 SHORT $LN44@ItemSerial
  00a7a	eb 05		 jmp	 SHORT $LN45@ItemSerial
$LN44@ItemSerial:
  00a7c	e8 00 00 00 00	 call	 ___report_rangecheckfailure
$LN45@ItemSerial:
  00a81	8b 8d 28 fd ff
	ff		 mov	 ecx, DWORD PTR $T1[ebp]
  00a87	c6 84 0d b0 fd
	ff ff 00	 mov	 BYTE PTR _NewOption$3[ebp+ecx], 0
  00a8f	eb bc		 jmp	 SHORT $LN2@ItemSerial
$LN3@ItemSerial:

; 3689 : 
; 3690 : 		if( lpMsg->NewOption&0x20) NewOption[0] = 1;

  00a91	8b 45 08	 mov	 eax, DWORD PTR _lpMsg$[ebp]
  00a94	0f b6 48 13	 movzx	 ecx, BYTE PTR [eax+19]
  00a98	83 e1 20	 and	 ecx, 32			; 00000020H
  00a9b	74 10		 je	 SHORT $LN37@ItemSerial
  00a9d	b8 01 00 00 00	 mov	 eax, 1
  00aa2	6b c8 00	 imul	 ecx, eax, 0
  00aa5	c6 84 0d b0 fd
	ff ff 01	 mov	 BYTE PTR _NewOption$3[ebp+ecx], 1
$LN37@ItemSerial:

; 3691 : 		if( lpMsg->NewOption&0x10) NewOption[1] = 1;

  00aad	8b 45 08	 mov	 eax, DWORD PTR _lpMsg$[ebp]
  00ab0	0f b6 48 13	 movzx	 ecx, BYTE PTR [eax+19]
  00ab4	83 e1 10	 and	 ecx, 16			; 00000010H
  00ab7	74 10		 je	 SHORT $LN38@ItemSerial
  00ab9	b8 01 00 00 00	 mov	 eax, 1
  00abe	c1 e0 00	 shl	 eax, 0
  00ac1	c6 84 05 b0 fd
	ff ff 01	 mov	 BYTE PTR _NewOption$3[ebp+eax], 1
$LN38@ItemSerial:

; 3692 : 		if( lpMsg->NewOption&0x08) NewOption[2] = 1;

  00ac9	8b 45 08	 mov	 eax, DWORD PTR _lpMsg$[ebp]
  00acc	0f b6 48 13	 movzx	 ecx, BYTE PTR [eax+19]
  00ad0	83 e1 08	 and	 ecx, 8
  00ad3	74 0f		 je	 SHORT $LN39@ItemSerial
  00ad5	b8 01 00 00 00	 mov	 eax, 1
  00ada	d1 e0		 shl	 eax, 1
  00adc	c6 84 05 b0 fd
	ff ff 01	 mov	 BYTE PTR _NewOption$3[ebp+eax], 1
$LN39@ItemSerial:

; 3693 : 		if( lpMsg->NewOption&0x04) NewOption[3] = 1;

  00ae4	8b 45 08	 mov	 eax, DWORD PTR _lpMsg$[ebp]
  00ae7	0f b6 48 13	 movzx	 ecx, BYTE PTR [eax+19]
  00aeb	83 e1 04	 and	 ecx, 4
  00aee	74 10		 je	 SHORT $LN40@ItemSerial
  00af0	b8 01 00 00 00	 mov	 eax, 1
  00af5	6b c8 03	 imul	 ecx, eax, 3
  00af8	c6 84 0d b0 fd
	ff ff 01	 mov	 BYTE PTR _NewOption$3[ebp+ecx], 1
$LN40@ItemSerial:

; 3694 : 		if( lpMsg->NewOption&0x02) NewOption[4] = 1;

  00b00	8b 45 08	 mov	 eax, DWORD PTR _lpMsg$[ebp]
  00b03	0f b6 48 13	 movzx	 ecx, BYTE PTR [eax+19]
  00b07	83 e1 02	 and	 ecx, 2
  00b0a	74 10		 je	 SHORT $LN41@ItemSerial
  00b0c	b8 01 00 00 00	 mov	 eax, 1
  00b11	c1 e0 02	 shl	 eax, 2
  00b14	c6 84 05 b0 fd
	ff ff 01	 mov	 BYTE PTR _NewOption$3[ebp+eax], 1
$LN41@ItemSerial:

; 3695 : 		if( lpMsg->NewOption&0x01) NewOption[5] = 1;		

  00b1c	8b 45 08	 mov	 eax, DWORD PTR _lpMsg$[ebp]
  00b1f	0f b6 48 13	 movzx	 ecx, BYTE PTR [eax+19]
  00b23	83 e1 01	 and	 ecx, 1
  00b26	74 10		 je	 SHORT $LN42@ItemSerial
  00b28	b8 01 00 00 00	 mov	 eax, 1
  00b2d	6b c8 05	 imul	 ecx, eax, 5
  00b30	c6 84 0d b0 fd
	ff ff 01	 mov	 BYTE PTR _NewOption$3[ebp+ecx], 1
$LN42@ItemSerial:

; 3696 : 
; 3697 : #ifdef MODIFY_ITEM_SERIAL_EXPAND_20080227
; 3698 : 		LogAddTD("Monster Item Drop [%d][%d][%d] : serial:%u [%s][%d][%d][%d][%d] Ex:[%d,%d,%d,%d,%d,%d,%d] Set:[%d]", 
; 3699 : #else
; 3700 : 		LogAddTD("Monster Item Drop [%d][%d][%d] : serial:%d [%s][%d][%d][%d][%d] Ex:[%d,%d,%d,%d,%d,%d,%d] Set:[%d]", 

  00b38	8b 45 08	 mov	 eax, DWORD PTR _lpMsg$[ebp]
  00b3b	0f b6 48 1a	 movzx	 ecx, BYTE PTR [eax+26]
  00b3f	51		 push	 ecx
  00b40	ba 01 00 00 00	 mov	 edx, 1
  00b45	6b c2 06	 imul	 eax, edx, 6
  00b48	0f b6 8c 05 b0
	fd ff ff	 movzx	 ecx, BYTE PTR _NewOption$3[ebp+eax]
  00b50	51		 push	 ecx
  00b51	ba 01 00 00 00	 mov	 edx, 1
  00b56	6b c2 05	 imul	 eax, edx, 5
  00b59	0f b6 8c 05 b0
	fd ff ff	 movzx	 ecx, BYTE PTR _NewOption$3[ebp+eax]
  00b61	51		 push	 ecx
  00b62	ba 01 00 00 00	 mov	 edx, 1
  00b67	c1 e2 02	 shl	 edx, 2
  00b6a	0f b6 84 15 b0
	fd ff ff	 movzx	 eax, BYTE PTR _NewOption$3[ebp+edx]
  00b72	50		 push	 eax
  00b73	b9 01 00 00 00	 mov	 ecx, 1
  00b78	6b d1 03	 imul	 edx, ecx, 3
  00b7b	0f b6 84 15 b0
	fd ff ff	 movzx	 eax, BYTE PTR _NewOption$3[ebp+edx]
  00b83	50		 push	 eax
  00b84	b9 01 00 00 00	 mov	 ecx, 1
  00b89	d1 e1		 shl	 ecx, 1
  00b8b	0f b6 94 0d b0
	fd ff ff	 movzx	 edx, BYTE PTR _NewOption$3[ebp+ecx]
  00b93	52		 push	 edx
  00b94	b8 01 00 00 00	 mov	 eax, 1
  00b99	c1 e0 00	 shl	 eax, 0
  00b9c	0f b6 8c 05 b0
	fd ff ff	 movzx	 ecx, BYTE PTR _NewOption$3[ebp+eax]
  00ba4	51		 push	 ecx
  00ba5	ba 01 00 00 00	 mov	 edx, 1
  00baa	6b c2 00	 imul	 eax, edx, 0
  00bad	0f b6 8c 05 b0
	fd ff ff	 movzx	 ecx, BYTE PTR _NewOption$3[ebp+eax]
  00bb5	51		 push	 ecx
  00bb6	8b 55 08	 mov	 edx, DWORD PTR _lpMsg$[ebp]
  00bb9	0f b6 42 12	 movzx	 eax, BYTE PTR [edx+18]
  00bbd	50		 push	 eax
  00bbe	8b 4d 08	 mov	 ecx, DWORD PTR _lpMsg$[ebp]
  00bc1	0f b6 51 11	 movzx	 edx, BYTE PTR [ecx+17]
  00bc5	52		 push	 edx
  00bc6	8b 45 08	 mov	 eax, DWORD PTR _lpMsg$[ebp]
  00bc9	0f b6 48 10	 movzx	 ecx, BYTE PTR [eax+16]
  00bcd	51		 push	 ecx
  00bce	8b 55 08	 mov	 edx, DWORD PTR _lpMsg$[ebp]
  00bd1	0f b6 42 0e	 movzx	 eax, BYTE PTR [edx+14]
  00bd5	50		 push	 eax
  00bd6	8b 4d 08	 mov	 ecx, DWORD PTR _lpMsg$[ebp]
  00bd9	0f bf 51 0c	 movsx	 edx, WORD PTR [ecx+12]
  00bdd	6b c2 6c	 imul	 eax, edx, 108
  00be0	05 00 00 00 00	 add	 eax, OFFSET ?ItemAttribute@@3PAUITEM_ATTRIBUTE@@A ; ItemAttribute
  00be5	50		 push	 eax
  00be6	8b 4d 08	 mov	 ecx, DWORD PTR _lpMsg$[ebp]
  00be9	8b 51 08	 mov	 edx, DWORD PTR [ecx+8]
  00bec	52		 push	 edx
  00bed	8b 45 08	 mov	 eax, DWORD PTR _lpMsg$[ebp]
  00bf0	0f b6 48 04	 movzx	 ecx, BYTE PTR [eax+4]
  00bf4	51		 push	 ecx
  00bf5	8b 55 08	 mov	 edx, DWORD PTR _lpMsg$[ebp]
  00bf8	0f b6 42 03	 movzx	 eax, BYTE PTR [edx+3]
  00bfc	50		 push	 eax
  00bfd	8b 4d f4	 mov	 ecx, DWORD PTR _mapnumber$[ebp]
  00c00	51		 push	 ecx
  00c01	68 00 00 00 00	 push	 OFFSET ??_C@_0GD@LMECKDPM@Monster?5Item?5Drop?5?$FL?$CFd?$FN?$FL?$CFd?$FN?$FL?$CFd?$FN?5@
  00c06	ff 15 00 00 00
	00		 call	 DWORD PTR ?LogAddTD@@3P6AXPADZZA ; LogAddTD
  00c0c	83 c4 48	 add	 esp, 72			; 00000048H

; 3701 : #endif // MODIFY_ITEM_SERIAL_EXPAND_20080227
; 3702 : 				mapnumber, lpMsg->x, lpMsg->y,
; 3703 : 			    lpMsg->m_Number, 				
; 3704 : 				ItemAttribute[lpMsg->Type].Name, 				
; 3705 : 				lpMsg->Level, 
; 3706 : 				lpMsg->Op1, 
; 3707 : 				lpMsg->Op2, 
; 3708 : 				lpMsg->Op3,
; 3709 : 				NewOption[0],
; 3710 : 				NewOption[1],
; 3711 : 				NewOption[2],
; 3712 : 				NewOption[3],
; 3713 : 				NewOption[4],
; 3714 : 				NewOption[5],
; 3715 : 				NewOption[6],
; 3716 : 				lpMsg->SetOption
; 3717 : 			   );
; 3718 : 
; 3719 : #ifdef MONSTER_ITEMDROP_LOG_20040309
; 3720 : 	#ifdef MODIFY_ITEM_SERIAL_EXPAND_20080227
; 3721 : 		LogAdd_MonsterItemDrop("%d\t%d\t%d\t%d\t%d\t%d\t%d\t%d\t%d\t%d\t%d\t%u",
; 3722 : 	#else
; 3723 : 		LogAdd_MonsterItemDrop("%d\t%d\t%d\t%d\t%d\t%d\t%d\t%d\t%d\t%d\t%d\t%d",

  00c0f	8b 45 08	 mov	 eax, DWORD PTR _lpMsg$[ebp]
  00c12	8b 48 08	 mov	 ecx, DWORD PTR [eax+8]
  00c15	51		 push	 ecx
  00c16	8b 55 08	 mov	 edx, DWORD PTR _lpMsg$[ebp]
  00c19	0f b6 42 1a	 movzx	 eax, BYTE PTR [edx+26]
  00c1d	50		 push	 eax
  00c1e	8b 4d 08	 mov	 ecx, DWORD PTR _lpMsg$[ebp]
  00c21	0f b6 51 13	 movzx	 edx, BYTE PTR [ecx+19]
  00c25	83 e2 3f	 and	 edx, 63			; 0000003fH
  00c28	52		 push	 edx
  00c29	8b 45 08	 mov	 eax, DWORD PTR _lpMsg$[ebp]
  00c2c	0f b6 48 12	 movzx	 ecx, BYTE PTR [eax+18]
  00c30	51		 push	 ecx
  00c31	8b 55 08	 mov	 edx, DWORD PTR _lpMsg$[ebp]
  00c34	0f b6 42 11	 movzx	 eax, BYTE PTR [edx+17]
  00c38	50		 push	 eax
  00c39	8b 4d 08	 mov	 ecx, DWORD PTR _lpMsg$[ebp]
  00c3c	0f b6 51 10	 movzx	 edx, BYTE PTR [ecx+16]
  00c40	52		 push	 edx
  00c41	8b 45 08	 mov	 eax, DWORD PTR _lpMsg$[ebp]
  00c44	0f b6 48 0f	 movzx	 ecx, BYTE PTR [eax+15]
  00c48	51		 push	 ecx
  00c49	8b 55 08	 mov	 edx, DWORD PTR _lpMsg$[ebp]
  00c4c	0f b6 42 0e	 movzx	 eax, BYTE PTR [edx+14]
  00c50	50		 push	 eax
  00c51	8b 4d 08	 mov	 ecx, DWORD PTR _lpMsg$[ebp]
  00c54	0f bf 51 0c	 movsx	 edx, WORD PTR [ecx+12]
  00c58	52		 push	 edx
  00c59	8b 45 08	 mov	 eax, DWORD PTR _lpMsg$[ebp]
  00c5c	0f b6 48 04	 movzx	 ecx, BYTE PTR [eax+4]
  00c60	51		 push	 ecx
  00c61	8b 55 08	 mov	 edx, DWORD PTR _lpMsg$[ebp]
  00c64	0f b6 42 03	 movzx	 eax, BYTE PTR [edx+3]
  00c68	50		 push	 eax
  00c69	8b 4d f4	 mov	 ecx, DWORD PTR _mapnumber$[ebp]
  00c6c	51		 push	 ecx
  00c6d	68 00 00 00 00	 push	 OFFSET ??_C@_0CE@HMMPKDMJ@?$CFd?7?$CFd?7?$CFd?7?$CFd?7?$CFd?7?$CFd?7?$CFd?7?$CFd?7?$CFd?7?$CFd?7?$CF@
  00c72	ff 15 00 00 00
	00		 call	 DWORD PTR ?LogAdd_MonsterItemDrop@@3P6AXPADZZA ; LogAdd_MonsterItemDrop
  00c78	83 c4 34	 add	 esp, 52			; 00000034H
$LN31@ItemSerial:
$LN1@ItemSerial:

; 3724 : 	#endif // MODIFY_ITEM_SERIAL_EXPAND_20080227
; 3725 : 				mapnumber, lpMsg->x, lpMsg->y,
; 3726 : 				lpMsg->Type, 
; 3727 : 				lpMsg->Level, 
; 3728 : 				lpMsg->Dur, 
; 3729 : 				lpMsg->Op1, 
; 3730 : 				lpMsg->Op2, 
; 3731 : 				lpMsg->Op3,
; 3732 : 				lpMsg->NewOption & 0x3F,
; 3733 : 				lpMsg->SetOption,
; 3734 : 			    lpMsg->m_Number 				
; 3735 : 			);
; 3736 : #endif
; 3737 : 		
; 3738 : 	}
; 3739 : 	#ifdef PICKUP_SYSTEM
; 3740 : 	}
; 3741 : #endif
; 3742 : }

  00c7b	5f		 pop	 edi
  00c7c	5e		 pop	 esi
  00c7d	5b		 pop	 ebx
  00c7e	8b 4d fc	 mov	 ecx, DWORD PTR __$ArrayPad$[ebp]
  00c81	33 cd		 xor	 ecx, ebp
  00c83	e8 00 00 00 00	 call	 @__security_check_cookie@4
  00c88	8b e5		 mov	 esp, ebp
  00c8a	5d		 pop	 ebp
  00c8b	c3		 ret	 0
?ItemSerialCreateRecv@@YAXPAUSDHP_ITEMCREATERECV@@@Z ENDP ; ItemSerialCreateRecv
_TEXT	ENDS
; Function compile flags: /Odtp /ZI
; File C:\Mu Online\Mu-GS-Webzen-MC-10093\GameServer\DSProtocol.cpp
;	COMDAT ?TestDSSend@@YAXXZ
_TEXT	SEGMENT
_size$ = -2012						; size = 4
_pMsg$ = -2008						; size = 2004
__$ArrayPad$ = -4					; size = 4
?TestDSSend@@YAXXZ PROC					; TestDSSend, COMDAT

; 456  : {

  00000	55		 push	 ebp
  00001	8b ec		 mov	 ebp, esp
  00003	81 ec dc 08 00
	00		 sub	 esp, 2268		; 000008dcH
  00009	a1 00 00 00 00	 mov	 eax, DWORD PTR ___security_cookie
  0000e	33 c5		 xor	 eax, ebp
  00010	89 45 fc	 mov	 DWORD PTR __$ArrayPad$[ebp], eax
  00013	53		 push	 ebx
  00014	56		 push	 esi
  00015	57		 push	 edi

; 457  : 	PMSG_TEST	pMsg;
; 458  : 	int			size;
; 459  : 	
; 460  : 	size = sizeof( PMSG_TEST );

  00016	c7 85 24 f8 ff
	ff d4 07 00 00	 mov	 DWORD PTR _size$[ebp], 2004 ; 000007d4H

; 461  : 	pMsg.h.c			= 0xC2;

  00020	c6 85 28 f8 ff
	ff c2		 mov	 BYTE PTR _pMsg$[ebp], 194 ; 000000c2H

; 462  : 	pMsg.h.headcode		= 0xFF;

  00027	c6 85 2b f8 ff
	ff ff		 mov	 BYTE PTR _pMsg$[ebp+3], 255 ; 000000ffH

; 463  : 	pMsg.h.sizeH			= HIBYTE(size);

  0002e	8b 85 24 f8 ff
	ff		 mov	 eax, DWORD PTR _size$[ebp]
  00034	c1 e8 08	 shr	 eax, 8
  00037	25 ff 00 00 00	 and	 eax, 255		; 000000ffH
  0003c	88 85 29 f8 ff
	ff		 mov	 BYTE PTR _pMsg$[ebp+1], al

; 464  : 	pMsg.h.sizeL			= LOBYTE(size);

  00042	8b 85 24 f8 ff
	ff		 mov	 eax, DWORD PTR _size$[ebp]
  00048	25 ff 00 00 00	 and	 eax, 255		; 000000ffH
  0004d	88 85 2a f8 ff
	ff		 mov	 BYTE PTR _pMsg$[ebp+2], al

; 465  : 	wsprintf(pMsg.testbuf,"%d", iCount);LogAdd("%s",pMsg.testbuf);	

  00053	a1 00 00 00 00	 mov	 eax, DWORD PTR ?iCount@@3HA ; iCount
  00058	50		 push	 eax
  00059	68 00 00 00 00	 push	 OFFSET ??_C@_02DPKJAMEF@?$CFd@
  0005e	8d 8d 2c f8 ff
	ff		 lea	 ecx, DWORD PTR _pMsg$[ebp+4]
  00064	51		 push	 ecx
  00065	ff 15 00 00 00
	00		 call	 DWORD PTR __imp__wsprintfA
  0006b	83 c4 0c	 add	 esp, 12			; 0000000cH
  0006e	8d 85 2c f8 ff
	ff		 lea	 eax, DWORD PTR _pMsg$[ebp+4]
  00074	50		 push	 eax
  00075	68 00 00 00 00	 push	 OFFSET ??_C@_02DKCKIIND@?$CFs@
  0007a	ff 15 00 00 00
	00		 call	 DWORD PTR ?LogAdd@@3P6AXPADZZA ; LogAdd
  00080	83 c4 08	 add	 esp, 8

; 466  : 	cDBSMng.Send((char*)&pMsg, size); iCount++;

  00083	8b 85 24 f8 ff
	ff		 mov	 eax, DWORD PTR _size$[ebp]
  00089	50		 push	 eax
  0008a	8d 8d 28 f8 ff
	ff		 lea	 ecx, DWORD PTR _pMsg$[ebp]
  00090	51		 push	 ecx
  00091	b9 00 00 00 00	 mov	 ecx, OFFSET ?cDBSMng@@3VDBSockMng@@A ; cDBSMng
  00096	e8 00 00 00 00	 call	 ?Send@DBSockMng@@QAEHPADH@Z ; DBSockMng::Send
  0009b	a1 00 00 00 00	 mov	 eax, DWORD PTR ?iCount@@3HA ; iCount
  000a0	83 c0 01	 add	 eax, 1
  000a3	a3 00 00 00 00	 mov	 DWORD PTR ?iCount@@3HA, eax ; iCount

; 467  : 	wsprintf(pMsg.testbuf,"%d", iCount);LogAdd("%s",pMsg.testbuf);

  000a8	a1 00 00 00 00	 mov	 eax, DWORD PTR ?iCount@@3HA ; iCount
  000ad	50		 push	 eax
  000ae	68 00 00 00 00	 push	 OFFSET ??_C@_02DPKJAMEF@?$CFd@
  000b3	8d 8d 2c f8 ff
	ff		 lea	 ecx, DWORD PTR _pMsg$[ebp+4]
  000b9	51		 push	 ecx
  000ba	ff 15 00 00 00
	00		 call	 DWORD PTR __imp__wsprintfA
  000c0	83 c4 0c	 add	 esp, 12			; 0000000cH
  000c3	8d 85 2c f8 ff
	ff		 lea	 eax, DWORD PTR _pMsg$[ebp+4]
  000c9	50		 push	 eax
  000ca	68 00 00 00 00	 push	 OFFSET ??_C@_02DKCKIIND@?$CFs@
  000cf	ff 15 00 00 00
	00		 call	 DWORD PTR ?LogAdd@@3P6AXPADZZA ; LogAdd
  000d5	83 c4 08	 add	 esp, 8

; 468  : 	cDBSMng.Send((char*)&pMsg, size); iCount++;

  000d8	8b 85 24 f8 ff
	ff		 mov	 eax, DWORD PTR _size$[ebp]
  000de	50		 push	 eax
  000df	8d 8d 28 f8 ff
	ff		 lea	 ecx, DWORD PTR _pMsg$[ebp]
  000e5	51		 push	 ecx
  000e6	b9 00 00 00 00	 mov	 ecx, OFFSET ?cDBSMng@@3VDBSockMng@@A ; cDBSMng
  000eb	e8 00 00 00 00	 call	 ?Send@DBSockMng@@QAEHPADH@Z ; DBSockMng::Send
  000f0	a1 00 00 00 00	 mov	 eax, DWORD PTR ?iCount@@3HA ; iCount
  000f5	83 c0 01	 add	 eax, 1
  000f8	a3 00 00 00 00	 mov	 DWORD PTR ?iCount@@3HA, eax ; iCount

; 469  : 	wsprintf(pMsg.testbuf,"%d", iCount);LogAdd("%s",pMsg.testbuf);

  000fd	a1 00 00 00 00	 mov	 eax, DWORD PTR ?iCount@@3HA ; iCount
  00102	50		 push	 eax
  00103	68 00 00 00 00	 push	 OFFSET ??_C@_02DPKJAMEF@?$CFd@
  00108	8d 8d 2c f8 ff
	ff		 lea	 ecx, DWORD PTR _pMsg$[ebp+4]
  0010e	51		 push	 ecx
  0010f	ff 15 00 00 00
	00		 call	 DWORD PTR __imp__wsprintfA
  00115	83 c4 0c	 add	 esp, 12			; 0000000cH
  00118	8d 85 2c f8 ff
	ff		 lea	 eax, DWORD PTR _pMsg$[ebp+4]
  0011e	50		 push	 eax
  0011f	68 00 00 00 00	 push	 OFFSET ??_C@_02DKCKIIND@?$CFs@
  00124	ff 15 00 00 00
	00		 call	 DWORD PTR ?LogAdd@@3P6AXPADZZA ; LogAdd
  0012a	83 c4 08	 add	 esp, 8

; 470  : 	cDBSMng.Send((char*)&pMsg, size); iCount++;

  0012d	8b 85 24 f8 ff
	ff		 mov	 eax, DWORD PTR _size$[ebp]
  00133	50		 push	 eax
  00134	8d 8d 28 f8 ff
	ff		 lea	 ecx, DWORD PTR _pMsg$[ebp]
  0013a	51		 push	 ecx
  0013b	b9 00 00 00 00	 mov	 ecx, OFFSET ?cDBSMng@@3VDBSockMng@@A ; cDBSMng
  00140	e8 00 00 00 00	 call	 ?Send@DBSockMng@@QAEHPADH@Z ; DBSockMng::Send
  00145	a1 00 00 00 00	 mov	 eax, DWORD PTR ?iCount@@3HA ; iCount
  0014a	83 c0 01	 add	 eax, 1
  0014d	a3 00 00 00 00	 mov	 DWORD PTR ?iCount@@3HA, eax ; iCount

; 471  : 	wsprintf(pMsg.testbuf,"%d", iCount);LogAdd("%s",pMsg.testbuf);

  00152	a1 00 00 00 00	 mov	 eax, DWORD PTR ?iCount@@3HA ; iCount
  00157	50		 push	 eax
  00158	68 00 00 00 00	 push	 OFFSET ??_C@_02DPKJAMEF@?$CFd@
  0015d	8d 8d 2c f8 ff
	ff		 lea	 ecx, DWORD PTR _pMsg$[ebp+4]
  00163	51		 push	 ecx
  00164	ff 15 00 00 00
	00		 call	 DWORD PTR __imp__wsprintfA
  0016a	83 c4 0c	 add	 esp, 12			; 0000000cH
  0016d	8d 85 2c f8 ff
	ff		 lea	 eax, DWORD PTR _pMsg$[ebp+4]
  00173	50		 push	 eax
  00174	68 00 00 00 00	 push	 OFFSET ??_C@_02DKCKIIND@?$CFs@
  00179	ff 15 00 00 00
	00		 call	 DWORD PTR ?LogAdd@@3P6AXPADZZA ; LogAdd
  0017f	83 c4 08	 add	 esp, 8

; 472  : 	cDBSMng.Send((char*)&pMsg, size); iCount++;

  00182	8b 85 24 f8 ff
	ff		 mov	 eax, DWORD PTR _size$[ebp]
  00188	50		 push	 eax
  00189	8d 8d 28 f8 ff
	ff		 lea	 ecx, DWORD PTR _pMsg$[ebp]
  0018f	51		 push	 ecx
  00190	b9 00 00 00 00	 mov	 ecx, OFFSET ?cDBSMng@@3VDBSockMng@@A ; cDBSMng
  00195	e8 00 00 00 00	 call	 ?Send@DBSockMng@@QAEHPADH@Z ; DBSockMng::Send
  0019a	a1 00 00 00 00	 mov	 eax, DWORD PTR ?iCount@@3HA ; iCount
  0019f	83 c0 01	 add	 eax, 1
  001a2	a3 00 00 00 00	 mov	 DWORD PTR ?iCount@@3HA, eax ; iCount

; 473  : 	wsprintf(pMsg.testbuf,"%d", iCount);LogAdd("%s",pMsg.testbuf);

  001a7	a1 00 00 00 00	 mov	 eax, DWORD PTR ?iCount@@3HA ; iCount
  001ac	50		 push	 eax
  001ad	68 00 00 00 00	 push	 OFFSET ??_C@_02DPKJAMEF@?$CFd@
  001b2	8d 8d 2c f8 ff
	ff		 lea	 ecx, DWORD PTR _pMsg$[ebp+4]
  001b8	51		 push	 ecx
  001b9	ff 15 00 00 00
	00		 call	 DWORD PTR __imp__wsprintfA
  001bf	83 c4 0c	 add	 esp, 12			; 0000000cH
  001c2	8d 85 2c f8 ff
	ff		 lea	 eax, DWORD PTR _pMsg$[ebp+4]
  001c8	50		 push	 eax
  001c9	68 00 00 00 00	 push	 OFFSET ??_C@_02DKCKIIND@?$CFs@
  001ce	ff 15 00 00 00
	00		 call	 DWORD PTR ?LogAdd@@3P6AXPADZZA ; LogAdd
  001d4	83 c4 08	 add	 esp, 8

; 474  : 	cDBSMng.Send((char*)&pMsg, size); iCount++;

  001d7	8b 85 24 f8 ff
	ff		 mov	 eax, DWORD PTR _size$[ebp]
  001dd	50		 push	 eax
  001de	8d 8d 28 f8 ff
	ff		 lea	 ecx, DWORD PTR _pMsg$[ebp]
  001e4	51		 push	 ecx
  001e5	b9 00 00 00 00	 mov	 ecx, OFFSET ?cDBSMng@@3VDBSockMng@@A ; cDBSMng
  001ea	e8 00 00 00 00	 call	 ?Send@DBSockMng@@QAEHPADH@Z ; DBSockMng::Send
  001ef	a1 00 00 00 00	 mov	 eax, DWORD PTR ?iCount@@3HA ; iCount
  001f4	83 c0 01	 add	 eax, 1
  001f7	a3 00 00 00 00	 mov	 DWORD PTR ?iCount@@3HA, eax ; iCount

; 475  : 	wsprintf(pMsg.testbuf,"%d", iCount);LogAdd("%s",pMsg.testbuf);

  001fc	a1 00 00 00 00	 mov	 eax, DWORD PTR ?iCount@@3HA ; iCount
  00201	50		 push	 eax
  00202	68 00 00 00 00	 push	 OFFSET ??_C@_02DPKJAMEF@?$CFd@
  00207	8d 8d 2c f8 ff
	ff		 lea	 ecx, DWORD PTR _pMsg$[ebp+4]
  0020d	51		 push	 ecx
  0020e	ff 15 00 00 00
	00		 call	 DWORD PTR __imp__wsprintfA
  00214	83 c4 0c	 add	 esp, 12			; 0000000cH
  00217	8d 85 2c f8 ff
	ff		 lea	 eax, DWORD PTR _pMsg$[ebp+4]
  0021d	50		 push	 eax
  0021e	68 00 00 00 00	 push	 OFFSET ??_C@_02DKCKIIND@?$CFs@
  00223	ff 15 00 00 00
	00		 call	 DWORD PTR ?LogAdd@@3P6AXPADZZA ; LogAdd
  00229	83 c4 08	 add	 esp, 8

; 476  : 	cDBSMng.Send((char*)&pMsg, size); iCount++;

  0022c	8b 85 24 f8 ff
	ff		 mov	 eax, DWORD PTR _size$[ebp]
  00232	50		 push	 eax
  00233	8d 8d 28 f8 ff
	ff		 lea	 ecx, DWORD PTR _pMsg$[ebp]
  00239	51		 push	 ecx
  0023a	b9 00 00 00 00	 mov	 ecx, OFFSET ?cDBSMng@@3VDBSockMng@@A ; cDBSMng
  0023f	e8 00 00 00 00	 call	 ?Send@DBSockMng@@QAEHPADH@Z ; DBSockMng::Send
  00244	a1 00 00 00 00	 mov	 eax, DWORD PTR ?iCount@@3HA ; iCount
  00249	83 c0 01	 add	 eax, 1
  0024c	a3 00 00 00 00	 mov	 DWORD PTR ?iCount@@3HA, eax ; iCount

; 477  : 	wsprintf(pMsg.testbuf,"%d", iCount);LogAdd("%s",pMsg.testbuf);

  00251	a1 00 00 00 00	 mov	 eax, DWORD PTR ?iCount@@3HA ; iCount
  00256	50		 push	 eax
  00257	68 00 00 00 00	 push	 OFFSET ??_C@_02DPKJAMEF@?$CFd@
  0025c	8d 8d 2c f8 ff
	ff		 lea	 ecx, DWORD PTR _pMsg$[ebp+4]
  00262	51		 push	 ecx
  00263	ff 15 00 00 00
	00		 call	 DWORD PTR __imp__wsprintfA
  00269	83 c4 0c	 add	 esp, 12			; 0000000cH
  0026c	8d 85 2c f8 ff
	ff		 lea	 eax, DWORD PTR _pMsg$[ebp+4]
  00272	50		 push	 eax
  00273	68 00 00 00 00	 push	 OFFSET ??_C@_02DKCKIIND@?$CFs@
  00278	ff 15 00 00 00
	00		 call	 DWORD PTR ?LogAdd@@3P6AXPADZZA ; LogAdd
  0027e	83 c4 08	 add	 esp, 8

; 478  : 	cDBSMng.Send((char*)&pMsg, size); iCount++;

  00281	8b 85 24 f8 ff
	ff		 mov	 eax, DWORD PTR _size$[ebp]
  00287	50		 push	 eax
  00288	8d 8d 28 f8 ff
	ff		 lea	 ecx, DWORD PTR _pMsg$[ebp]
  0028e	51		 push	 ecx
  0028f	b9 00 00 00 00	 mov	 ecx, OFFSET ?cDBSMng@@3VDBSockMng@@A ; cDBSMng
  00294	e8 00 00 00 00	 call	 ?Send@DBSockMng@@QAEHPADH@Z ; DBSockMng::Send
  00299	a1 00 00 00 00	 mov	 eax, DWORD PTR ?iCount@@3HA ; iCount
  0029e	83 c0 01	 add	 eax, 1
  002a1	a3 00 00 00 00	 mov	 DWORD PTR ?iCount@@3HA, eax ; iCount

; 479  : 	wsprintf(pMsg.testbuf,"%d", iCount);LogAdd("%s",pMsg.testbuf);

  002a6	a1 00 00 00 00	 mov	 eax, DWORD PTR ?iCount@@3HA ; iCount
  002ab	50		 push	 eax
  002ac	68 00 00 00 00	 push	 OFFSET ??_C@_02DPKJAMEF@?$CFd@
  002b1	8d 8d 2c f8 ff
	ff		 lea	 ecx, DWORD PTR _pMsg$[ebp+4]
  002b7	51		 push	 ecx
  002b8	ff 15 00 00 00
	00		 call	 DWORD PTR __imp__wsprintfA
  002be	83 c4 0c	 add	 esp, 12			; 0000000cH
  002c1	8d 85 2c f8 ff
	ff		 lea	 eax, DWORD PTR _pMsg$[ebp+4]
  002c7	50		 push	 eax
  002c8	68 00 00 00 00	 push	 OFFSET ??_C@_02DKCKIIND@?$CFs@
  002cd	ff 15 00 00 00
	00		 call	 DWORD PTR ?LogAdd@@3P6AXPADZZA ; LogAdd
  002d3	83 c4 08	 add	 esp, 8

; 480  : 	cDBSMng.Send((char*)&pMsg, size); iCount++;

  002d6	8b 85 24 f8 ff
	ff		 mov	 eax, DWORD PTR _size$[ebp]
  002dc	50		 push	 eax
  002dd	8d 8d 28 f8 ff
	ff		 lea	 ecx, DWORD PTR _pMsg$[ebp]
  002e3	51		 push	 ecx
  002e4	b9 00 00 00 00	 mov	 ecx, OFFSET ?cDBSMng@@3VDBSockMng@@A ; cDBSMng
  002e9	e8 00 00 00 00	 call	 ?Send@DBSockMng@@QAEHPADH@Z ; DBSockMng::Send
  002ee	a1 00 00 00 00	 mov	 eax, DWORD PTR ?iCount@@3HA ; iCount
  002f3	83 c0 01	 add	 eax, 1
  002f6	a3 00 00 00 00	 mov	 DWORD PTR ?iCount@@3HA, eax ; iCount

; 481  : 	wsprintf(pMsg.testbuf,"%d", iCount);LogAdd("%s",pMsg.testbuf);

  002fb	a1 00 00 00 00	 mov	 eax, DWORD PTR ?iCount@@3HA ; iCount
  00300	50		 push	 eax
  00301	68 00 00 00 00	 push	 OFFSET ??_C@_02DPKJAMEF@?$CFd@
  00306	8d 8d 2c f8 ff
	ff		 lea	 ecx, DWORD PTR _pMsg$[ebp+4]
  0030c	51		 push	 ecx
  0030d	ff 15 00 00 00
	00		 call	 DWORD PTR __imp__wsprintfA
  00313	83 c4 0c	 add	 esp, 12			; 0000000cH
  00316	8d 85 2c f8 ff
	ff		 lea	 eax, DWORD PTR _pMsg$[ebp+4]
  0031c	50		 push	 eax
  0031d	68 00 00 00 00	 push	 OFFSET ??_C@_02DKCKIIND@?$CFs@
  00322	ff 15 00 00 00
	00		 call	 DWORD PTR ?LogAdd@@3P6AXPADZZA ; LogAdd
  00328	83 c4 08	 add	 esp, 8

; 482  : 	cDBSMng.Send((char*)&pMsg, size); iCount++;

  0032b	8b 85 24 f8 ff
	ff		 mov	 eax, DWORD PTR _size$[ebp]
  00331	50		 push	 eax
  00332	8d 8d 28 f8 ff
	ff		 lea	 ecx, DWORD PTR _pMsg$[ebp]
  00338	51		 push	 ecx
  00339	b9 00 00 00 00	 mov	 ecx, OFFSET ?cDBSMng@@3VDBSockMng@@A ; cDBSMng
  0033e	e8 00 00 00 00	 call	 ?Send@DBSockMng@@QAEHPADH@Z ; DBSockMng::Send
  00343	a1 00 00 00 00	 mov	 eax, DWORD PTR ?iCount@@3HA ; iCount
  00348	83 c0 01	 add	 eax, 1
  0034b	a3 00 00 00 00	 mov	 DWORD PTR ?iCount@@3HA, eax ; iCount

; 483  : 	wsprintf(pMsg.testbuf,"%d", iCount);LogAdd("%s",pMsg.testbuf);

  00350	a1 00 00 00 00	 mov	 eax, DWORD PTR ?iCount@@3HA ; iCount
  00355	50		 push	 eax
  00356	68 00 00 00 00	 push	 OFFSET ??_C@_02DPKJAMEF@?$CFd@
  0035b	8d 8d 2c f8 ff
	ff		 lea	 ecx, DWORD PTR _pMsg$[ebp+4]
  00361	51		 push	 ecx
  00362	ff 15 00 00 00
	00		 call	 DWORD PTR __imp__wsprintfA
  00368	83 c4 0c	 add	 esp, 12			; 0000000cH
  0036b	8d 85 2c f8 ff
	ff		 lea	 eax, DWORD PTR _pMsg$[ebp+4]
  00371	50		 push	 eax
  00372	68 00 00 00 00	 push	 OFFSET ??_C@_02DKCKIIND@?$CFs@
  00377	ff 15 00 00 00
	00		 call	 DWORD PTR ?LogAdd@@3P6AXPADZZA ; LogAdd
  0037d	83 c4 08	 add	 esp, 8

; 484  : 	cDBSMng.Send((char*)&pMsg, size); iCount++;

  00380	8b 85 24 f8 ff
	ff		 mov	 eax, DWORD PTR _size$[ebp]
  00386	50		 push	 eax
  00387	8d 8d 28 f8 ff
	ff		 lea	 ecx, DWORD PTR _pMsg$[ebp]
  0038d	51		 push	 ecx
  0038e	b9 00 00 00 00	 mov	 ecx, OFFSET ?cDBSMng@@3VDBSockMng@@A ; cDBSMng
  00393	e8 00 00 00 00	 call	 ?Send@DBSockMng@@QAEHPADH@Z ; DBSockMng::Send
  00398	a1 00 00 00 00	 mov	 eax, DWORD PTR ?iCount@@3HA ; iCount
  0039d	83 c0 01	 add	 eax, 1
  003a0	a3 00 00 00 00	 mov	 DWORD PTR ?iCount@@3HA, eax ; iCount

; 485  : 	wsprintf(pMsg.testbuf,"%d", iCount);LogAdd("%s",pMsg.testbuf);

  003a5	a1 00 00 00 00	 mov	 eax, DWORD PTR ?iCount@@3HA ; iCount
  003aa	50		 push	 eax
  003ab	68 00 00 00 00	 push	 OFFSET ??_C@_02DPKJAMEF@?$CFd@
  003b0	8d 8d 2c f8 ff
	ff		 lea	 ecx, DWORD PTR _pMsg$[ebp+4]
  003b6	51		 push	 ecx
  003b7	ff 15 00 00 00
	00		 call	 DWORD PTR __imp__wsprintfA
  003bd	83 c4 0c	 add	 esp, 12			; 0000000cH
  003c0	8d 85 2c f8 ff
	ff		 lea	 eax, DWORD PTR _pMsg$[ebp+4]
  003c6	50		 push	 eax
  003c7	68 00 00 00 00	 push	 OFFSET ??_C@_02DKCKIIND@?$CFs@
  003cc	ff 15 00 00 00
	00		 call	 DWORD PTR ?LogAdd@@3P6AXPADZZA ; LogAdd
  003d2	83 c4 08	 add	 esp, 8

; 486  : 	cDBSMng.Send((char*)&pMsg, size); iCount++;

  003d5	8b 85 24 f8 ff
	ff		 mov	 eax, DWORD PTR _size$[ebp]
  003db	50		 push	 eax
  003dc	8d 8d 28 f8 ff
	ff		 lea	 ecx, DWORD PTR _pMsg$[ebp]
  003e2	51		 push	 ecx
  003e3	b9 00 00 00 00	 mov	 ecx, OFFSET ?cDBSMng@@3VDBSockMng@@A ; cDBSMng
  003e8	e8 00 00 00 00	 call	 ?Send@DBSockMng@@QAEHPADH@Z ; DBSockMng::Send
  003ed	a1 00 00 00 00	 mov	 eax, DWORD PTR ?iCount@@3HA ; iCount
  003f2	83 c0 01	 add	 eax, 1
  003f5	a3 00 00 00 00	 mov	 DWORD PTR ?iCount@@3HA, eax ; iCount

; 487  : 	wsprintf(pMsg.testbuf,"%d", iCount);LogAdd("%s",pMsg.testbuf);

  003fa	a1 00 00 00 00	 mov	 eax, DWORD PTR ?iCount@@3HA ; iCount
  003ff	50		 push	 eax
  00400	68 00 00 00 00	 push	 OFFSET ??_C@_02DPKJAMEF@?$CFd@
  00405	8d 8d 2c f8 ff
	ff		 lea	 ecx, DWORD PTR _pMsg$[ebp+4]
  0040b	51		 push	 ecx
  0040c	ff 15 00 00 00
	00		 call	 DWORD PTR __imp__wsprintfA
  00412	83 c4 0c	 add	 esp, 12			; 0000000cH
  00415	8d 85 2c f8 ff
	ff		 lea	 eax, DWORD PTR _pMsg$[ebp+4]
  0041b	50		 push	 eax
  0041c	68 00 00 00 00	 push	 OFFSET ??_C@_02DKCKIIND@?$CFs@
  00421	ff 15 00 00 00
	00		 call	 DWORD PTR ?LogAdd@@3P6AXPADZZA ; LogAdd
  00427	83 c4 08	 add	 esp, 8

; 488  : 	cDBSMng.Send((char*)&pMsg, size); iCount++;

  0042a	8b 85 24 f8 ff
	ff		 mov	 eax, DWORD PTR _size$[ebp]
  00430	50		 push	 eax
  00431	8d 8d 28 f8 ff
	ff		 lea	 ecx, DWORD PTR _pMsg$[ebp]
  00437	51		 push	 ecx
  00438	b9 00 00 00 00	 mov	 ecx, OFFSET ?cDBSMng@@3VDBSockMng@@A ; cDBSMng
  0043d	e8 00 00 00 00	 call	 ?Send@DBSockMng@@QAEHPADH@Z ; DBSockMng::Send
  00442	a1 00 00 00 00	 mov	 eax, DWORD PTR ?iCount@@3HA ; iCount
  00447	83 c0 01	 add	 eax, 1
  0044a	a3 00 00 00 00	 mov	 DWORD PTR ?iCount@@3HA, eax ; iCount

; 489  : 	wsprintf(pMsg.testbuf,"%d", iCount);LogAdd("%s",pMsg.testbuf);

  0044f	a1 00 00 00 00	 mov	 eax, DWORD PTR ?iCount@@3HA ; iCount
  00454	50		 push	 eax
  00455	68 00 00 00 00	 push	 OFFSET ??_C@_02DPKJAMEF@?$CFd@
  0045a	8d 8d 2c f8 ff
	ff		 lea	 ecx, DWORD PTR _pMsg$[ebp+4]
  00460	51		 push	 ecx
  00461	ff 15 00 00 00
	00		 call	 DWORD PTR __imp__wsprintfA
  00467	83 c4 0c	 add	 esp, 12			; 0000000cH
  0046a	8d 85 2c f8 ff
	ff		 lea	 eax, DWORD PTR _pMsg$[ebp+4]
  00470	50		 push	 eax
  00471	68 00 00 00 00	 push	 OFFSET ??_C@_02DKCKIIND@?$CFs@
  00476	ff 15 00 00 00
	00		 call	 DWORD PTR ?LogAdd@@3P6AXPADZZA ; LogAdd
  0047c	83 c4 08	 add	 esp, 8

; 490  : 	cDBSMng.Send((char*)&pMsg, size); iCount++;

  0047f	8b 85 24 f8 ff
	ff		 mov	 eax, DWORD PTR _size$[ebp]
  00485	50		 push	 eax
  00486	8d 8d 28 f8 ff
	ff		 lea	 ecx, DWORD PTR _pMsg$[ebp]
  0048c	51		 push	 ecx
  0048d	b9 00 00 00 00	 mov	 ecx, OFFSET ?cDBSMng@@3VDBSockMng@@A ; cDBSMng
  00492	e8 00 00 00 00	 call	 ?Send@DBSockMng@@QAEHPADH@Z ; DBSockMng::Send
  00497	a1 00 00 00 00	 mov	 eax, DWORD PTR ?iCount@@3HA ; iCount
  0049c	83 c0 01	 add	 eax, 1
  0049f	a3 00 00 00 00	 mov	 DWORD PTR ?iCount@@3HA, eax ; iCount

; 491  : 	wsprintf(pMsg.testbuf,"%d", iCount);LogAdd("%s",pMsg.testbuf);

  004a4	a1 00 00 00 00	 mov	 eax, DWORD PTR ?iCount@@3HA ; iCount
  004a9	50		 push	 eax
  004aa	68 00 00 00 00	 push	 OFFSET ??_C@_02DPKJAMEF@?$CFd@
  004af	8d 8d 2c f8 ff
	ff		 lea	 ecx, DWORD PTR _pMsg$[ebp+4]
  004b5	51		 push	 ecx
  004b6	ff 15 00 00 00
	00		 call	 DWORD PTR __imp__wsprintfA
  004bc	83 c4 0c	 add	 esp, 12			; 0000000cH
  004bf	8d 85 2c f8 ff
	ff		 lea	 eax, DWORD PTR _pMsg$[ebp+4]
  004c5	50		 push	 eax
  004c6	68 00 00 00 00	 push	 OFFSET ??_C@_02DKCKIIND@?$CFs@
  004cb	ff 15 00 00 00
	00		 call	 DWORD PTR ?LogAdd@@3P6AXPADZZA ; LogAdd
  004d1	83 c4 08	 add	 esp, 8

; 492  : 	cDBSMng.Send((char*)&pMsg, size); iCount++;

  004d4	8b 85 24 f8 ff
	ff		 mov	 eax, DWORD PTR _size$[ebp]
  004da	50		 push	 eax
  004db	8d 8d 28 f8 ff
	ff		 lea	 ecx, DWORD PTR _pMsg$[ebp]
  004e1	51		 push	 ecx
  004e2	b9 00 00 00 00	 mov	 ecx, OFFSET ?cDBSMng@@3VDBSockMng@@A ; cDBSMng
  004e7	e8 00 00 00 00	 call	 ?Send@DBSockMng@@QAEHPADH@Z ; DBSockMng::Send
  004ec	a1 00 00 00 00	 mov	 eax, DWORD PTR ?iCount@@3HA ; iCount
  004f1	83 c0 01	 add	 eax, 1
  004f4	a3 00 00 00 00	 mov	 DWORD PTR ?iCount@@3HA, eax ; iCount

; 493  : 	wsprintf(pMsg.testbuf,"%d", iCount);LogAdd("%s",pMsg.testbuf);

  004f9	a1 00 00 00 00	 mov	 eax, DWORD PTR ?iCount@@3HA ; iCount
  004fe	50		 push	 eax
  004ff	68 00 00 00 00	 push	 OFFSET ??_C@_02DPKJAMEF@?$CFd@
  00504	8d 8d 2c f8 ff
	ff		 lea	 ecx, DWORD PTR _pMsg$[ebp+4]
  0050a	51		 push	 ecx
  0050b	ff 15 00 00 00
	00		 call	 DWORD PTR __imp__wsprintfA
  00511	83 c4 0c	 add	 esp, 12			; 0000000cH
  00514	8d 85 2c f8 ff
	ff		 lea	 eax, DWORD PTR _pMsg$[ebp+4]
  0051a	50		 push	 eax
  0051b	68 00 00 00 00	 push	 OFFSET ??_C@_02DKCKIIND@?$CFs@
  00520	ff 15 00 00 00
	00		 call	 DWORD PTR ?LogAdd@@3P6AXPADZZA ; LogAdd
  00526	83 c4 08	 add	 esp, 8

; 494  : 	cDBSMng.Send((char*)&pMsg, size); iCount++;

  00529	8b 85 24 f8 ff
	ff		 mov	 eax, DWORD PTR _size$[ebp]
  0052f	50		 push	 eax
  00530	8d 8d 28 f8 ff
	ff		 lea	 ecx, DWORD PTR _pMsg$[ebp]
  00536	51		 push	 ecx
  00537	b9 00 00 00 00	 mov	 ecx, OFFSET ?cDBSMng@@3VDBSockMng@@A ; cDBSMng
  0053c	e8 00 00 00 00	 call	 ?Send@DBSockMng@@QAEHPADH@Z ; DBSockMng::Send
  00541	a1 00 00 00 00	 mov	 eax, DWORD PTR ?iCount@@3HA ; iCount
  00546	83 c0 01	 add	 eax, 1
  00549	a3 00 00 00 00	 mov	 DWORD PTR ?iCount@@3HA, eax ; iCount

; 495  : 	wsprintf(pMsg.testbuf,"%d", iCount);LogAdd("%s",pMsg.testbuf);

  0054e	a1 00 00 00 00	 mov	 eax, DWORD PTR ?iCount@@3HA ; iCount
  00553	50		 push	 eax
  00554	68 00 00 00 00	 push	 OFFSET ??_C@_02DPKJAMEF@?$CFd@
  00559	8d 8d 2c f8 ff
	ff		 lea	 ecx, DWORD PTR _pMsg$[ebp+4]
  0055f	51		 push	 ecx
  00560	ff 15 00 00 00
	00		 call	 DWORD PTR __imp__wsprintfA
  00566	83 c4 0c	 add	 esp, 12			; 0000000cH
  00569	8d 85 2c f8 ff
	ff		 lea	 eax, DWORD PTR _pMsg$[ebp+4]
  0056f	50		 push	 eax
  00570	68 00 00 00 00	 push	 OFFSET ??_C@_02DKCKIIND@?$CFs@
  00575	ff 15 00 00 00
	00		 call	 DWORD PTR ?LogAdd@@3P6AXPADZZA ; LogAdd
  0057b	83 c4 08	 add	 esp, 8

; 496  : 	cDBSMng.Send((char*)&pMsg, size); iCount++;

  0057e	8b 85 24 f8 ff
	ff		 mov	 eax, DWORD PTR _size$[ebp]
  00584	50		 push	 eax
  00585	8d 8d 28 f8 ff
	ff		 lea	 ecx, DWORD PTR _pMsg$[ebp]
  0058b	51		 push	 ecx
  0058c	b9 00 00 00 00	 mov	 ecx, OFFSET ?cDBSMng@@3VDBSockMng@@A ; cDBSMng
  00591	e8 00 00 00 00	 call	 ?Send@DBSockMng@@QAEHPADH@Z ; DBSockMng::Send
  00596	a1 00 00 00 00	 mov	 eax, DWORD PTR ?iCount@@3HA ; iCount
  0059b	83 c0 01	 add	 eax, 1
  0059e	a3 00 00 00 00	 mov	 DWORD PTR ?iCount@@3HA, eax ; iCount

; 497  : 	wsprintf(pMsg.testbuf,"%d", iCount);LogAdd("%s",pMsg.testbuf);

  005a3	a1 00 00 00 00	 mov	 eax, DWORD PTR ?iCount@@3HA ; iCount
  005a8	50		 push	 eax
  005a9	68 00 00 00 00	 push	 OFFSET ??_C@_02DPKJAMEF@?$CFd@
  005ae	8d 8d 2c f8 ff
	ff		 lea	 ecx, DWORD PTR _pMsg$[ebp+4]
  005b4	51		 push	 ecx
  005b5	ff 15 00 00 00
	00		 call	 DWORD PTR __imp__wsprintfA
  005bb	83 c4 0c	 add	 esp, 12			; 0000000cH
  005be	8d 85 2c f8 ff
	ff		 lea	 eax, DWORD PTR _pMsg$[ebp+4]
  005c4	50		 push	 eax
  005c5	68 00 00 00 00	 push	 OFFSET ??_C@_02DKCKIIND@?$CFs@
  005ca	ff 15 00 00 00
	00		 call	 DWORD PTR ?LogAdd@@3P6AXPADZZA ; LogAdd
  005d0	83 c4 08	 add	 esp, 8

; 498  : 	cDBSMng.Send((char*)&pMsg, size); iCount++;

  005d3	8b 85 24 f8 ff
	ff		 mov	 eax, DWORD PTR _size$[ebp]
  005d9	50		 push	 eax
  005da	8d 8d 28 f8 ff
	ff		 lea	 ecx, DWORD PTR _pMsg$[ebp]
  005e0	51		 push	 ecx
  005e1	b9 00 00 00 00	 mov	 ecx, OFFSET ?cDBSMng@@3VDBSockMng@@A ; cDBSMng
  005e6	e8 00 00 00 00	 call	 ?Send@DBSockMng@@QAEHPADH@Z ; DBSockMng::Send
  005eb	a1 00 00 00 00	 mov	 eax, DWORD PTR ?iCount@@3HA ; iCount
  005f0	83 c0 01	 add	 eax, 1
  005f3	a3 00 00 00 00	 mov	 DWORD PTR ?iCount@@3HA, eax ; iCount

; 499  : 	wsprintf(pMsg.testbuf,"%d", iCount);LogAdd("%s",pMsg.testbuf);

  005f8	a1 00 00 00 00	 mov	 eax, DWORD PTR ?iCount@@3HA ; iCount
  005fd	50		 push	 eax
  005fe	68 00 00 00 00	 push	 OFFSET ??_C@_02DPKJAMEF@?$CFd@
  00603	8d 8d 2c f8 ff
	ff		 lea	 ecx, DWORD PTR _pMsg$[ebp+4]
  00609	51		 push	 ecx
  0060a	ff 15 00 00 00
	00		 call	 DWORD PTR __imp__wsprintfA
  00610	83 c4 0c	 add	 esp, 12			; 0000000cH
  00613	8d 85 2c f8 ff
	ff		 lea	 eax, DWORD PTR _pMsg$[ebp+4]
  00619	50		 push	 eax
  0061a	68 00 00 00 00	 push	 OFFSET ??_C@_02DKCKIIND@?$CFs@
  0061f	ff 15 00 00 00
	00		 call	 DWORD PTR ?LogAdd@@3P6AXPADZZA ; LogAdd
  00625	83 c4 08	 add	 esp, 8

; 500  : 	cDBSMng.Send((char*)&pMsg, size); iCount++;

  00628	8b 85 24 f8 ff
	ff		 mov	 eax, DWORD PTR _size$[ebp]
  0062e	50		 push	 eax
  0062f	8d 8d 28 f8 ff
	ff		 lea	 ecx, DWORD PTR _pMsg$[ebp]
  00635	51		 push	 ecx
  00636	b9 00 00 00 00	 mov	 ecx, OFFSET ?cDBSMng@@3VDBSockMng@@A ; cDBSMng
  0063b	e8 00 00 00 00	 call	 ?Send@DBSockMng@@QAEHPADH@Z ; DBSockMng::Send
  00640	a1 00 00 00 00	 mov	 eax, DWORD PTR ?iCount@@3HA ; iCount
  00645	83 c0 01	 add	 eax, 1
  00648	a3 00 00 00 00	 mov	 DWORD PTR ?iCount@@3HA, eax ; iCount

; 501  : 	wsprintf(pMsg.testbuf,"%d", iCount);LogAdd("%s",pMsg.testbuf);

  0064d	a1 00 00 00 00	 mov	 eax, DWORD PTR ?iCount@@3HA ; iCount
  00652	50		 push	 eax
  00653	68 00 00 00 00	 push	 OFFSET ??_C@_02DPKJAMEF@?$CFd@
  00658	8d 8d 2c f8 ff
	ff		 lea	 ecx, DWORD PTR _pMsg$[ebp+4]
  0065e	51		 push	 ecx
  0065f	ff 15 00 00 00
	00		 call	 DWORD PTR __imp__wsprintfA
  00665	83 c4 0c	 add	 esp, 12			; 0000000cH
  00668	8d 85 2c f8 ff
	ff		 lea	 eax, DWORD PTR _pMsg$[ebp+4]
  0066e	50		 push	 eax
  0066f	68 00 00 00 00	 push	 OFFSET ??_C@_02DKCKIIND@?$CFs@
  00674	ff 15 00 00 00
	00		 call	 DWORD PTR ?LogAdd@@3P6AXPADZZA ; LogAdd
  0067a	83 c4 08	 add	 esp, 8

; 502  : 	cDBSMng.Send((char*)&pMsg, size); iCount++;

  0067d	8b 85 24 f8 ff
	ff		 mov	 eax, DWORD PTR _size$[ebp]
  00683	50		 push	 eax
  00684	8d 8d 28 f8 ff
	ff		 lea	 ecx, DWORD PTR _pMsg$[ebp]
  0068a	51		 push	 ecx
  0068b	b9 00 00 00 00	 mov	 ecx, OFFSET ?cDBSMng@@3VDBSockMng@@A ; cDBSMng
  00690	e8 00 00 00 00	 call	 ?Send@DBSockMng@@QAEHPADH@Z ; DBSockMng::Send
  00695	a1 00 00 00 00	 mov	 eax, DWORD PTR ?iCount@@3HA ; iCount
  0069a	83 c0 01	 add	 eax, 1
  0069d	a3 00 00 00 00	 mov	 DWORD PTR ?iCount@@3HA, eax ; iCount

; 503  : 	wsprintf(pMsg.testbuf,"%d", iCount);LogAdd("%s",pMsg.testbuf);

  006a2	a1 00 00 00 00	 mov	 eax, DWORD PTR ?iCount@@3HA ; iCount
  006a7	50		 push	 eax
  006a8	68 00 00 00 00	 push	 OFFSET ??_C@_02DPKJAMEF@?$CFd@
  006ad	8d 8d 2c f8 ff
	ff		 lea	 ecx, DWORD PTR _pMsg$[ebp+4]
  006b3	51		 push	 ecx
  006b4	ff 15 00 00 00
	00		 call	 DWORD PTR __imp__wsprintfA
  006ba	83 c4 0c	 add	 esp, 12			; 0000000cH
  006bd	8d 85 2c f8 ff
	ff		 lea	 eax, DWORD PTR _pMsg$[ebp+4]
  006c3	50		 push	 eax
  006c4	68 00 00 00 00	 push	 OFFSET ??_C@_02DKCKIIND@?$CFs@
  006c9	ff 15 00 00 00
	00		 call	 DWORD PTR ?LogAdd@@3P6AXPADZZA ; LogAdd
  006cf	83 c4 08	 add	 esp, 8

; 504  : 	cDBSMng.Send((char*)&pMsg, size); iCount++;

  006d2	8b 85 24 f8 ff
	ff		 mov	 eax, DWORD PTR _size$[ebp]
  006d8	50		 push	 eax
  006d9	8d 8d 28 f8 ff
	ff		 lea	 ecx, DWORD PTR _pMsg$[ebp]
  006df	51		 push	 ecx
  006e0	b9 00 00 00 00	 mov	 ecx, OFFSET ?cDBSMng@@3VDBSockMng@@A ; cDBSMng
  006e5	e8 00 00 00 00	 call	 ?Send@DBSockMng@@QAEHPADH@Z ; DBSockMng::Send
  006ea	a1 00 00 00 00	 mov	 eax, DWORD PTR ?iCount@@3HA ; iCount
  006ef	83 c0 01	 add	 eax, 1
  006f2	a3 00 00 00 00	 mov	 DWORD PTR ?iCount@@3HA, eax ; iCount

; 505  : 	wsprintf(pMsg.testbuf,"%d", iCount);LogAdd("%s",pMsg.testbuf);

  006f7	a1 00 00 00 00	 mov	 eax, DWORD PTR ?iCount@@3HA ; iCount
  006fc	50		 push	 eax
  006fd	68 00 00 00 00	 push	 OFFSET ??_C@_02DPKJAMEF@?$CFd@
  00702	8d 8d 2c f8 ff
	ff		 lea	 ecx, DWORD PTR _pMsg$[ebp+4]
  00708	51		 push	 ecx
  00709	ff 15 00 00 00
	00		 call	 DWORD PTR __imp__wsprintfA
  0070f	83 c4 0c	 add	 esp, 12			; 0000000cH
  00712	8d 85 2c f8 ff
	ff		 lea	 eax, DWORD PTR _pMsg$[ebp+4]
  00718	50		 push	 eax
  00719	68 00 00 00 00	 push	 OFFSET ??_C@_02DKCKIIND@?$CFs@
  0071e	ff 15 00 00 00
	00		 call	 DWORD PTR ?LogAdd@@3P6AXPADZZA ; LogAdd
  00724	83 c4 08	 add	 esp, 8

; 506  : 	cDBSMng.Send((char*)&pMsg, size); iCount++;

  00727	8b 85 24 f8 ff
	ff		 mov	 eax, DWORD PTR _size$[ebp]
  0072d	50		 push	 eax
  0072e	8d 8d 28 f8 ff
	ff		 lea	 ecx, DWORD PTR _pMsg$[ebp]
  00734	51		 push	 ecx
  00735	b9 00 00 00 00	 mov	 ecx, OFFSET ?cDBSMng@@3VDBSockMng@@A ; cDBSMng
  0073a	e8 00 00 00 00	 call	 ?Send@DBSockMng@@QAEHPADH@Z ; DBSockMng::Send
  0073f	a1 00 00 00 00	 mov	 eax, DWORD PTR ?iCount@@3HA ; iCount
  00744	83 c0 01	 add	 eax, 1
  00747	a3 00 00 00 00	 mov	 DWORD PTR ?iCount@@3HA, eax ; iCount

; 507  : 	wsprintf(pMsg.testbuf,"%d", iCount);LogAdd("%s",pMsg.testbuf);

  0074c	a1 00 00 00 00	 mov	 eax, DWORD PTR ?iCount@@3HA ; iCount
  00751	50		 push	 eax
  00752	68 00 00 00 00	 push	 OFFSET ??_C@_02DPKJAMEF@?$CFd@
  00757	8d 8d 2c f8 ff
	ff		 lea	 ecx, DWORD PTR _pMsg$[ebp+4]
  0075d	51		 push	 ecx
  0075e	ff 15 00 00 00
	00		 call	 DWORD PTR __imp__wsprintfA
  00764	83 c4 0c	 add	 esp, 12			; 0000000cH
  00767	8d 85 2c f8 ff
	ff		 lea	 eax, DWORD PTR _pMsg$[ebp+4]
  0076d	50		 push	 eax
  0076e	68 00 00 00 00	 push	 OFFSET ??_C@_02DKCKIIND@?$CFs@
  00773	ff 15 00 00 00
	00		 call	 DWORD PTR ?LogAdd@@3P6AXPADZZA ; LogAdd
  00779	83 c4 08	 add	 esp, 8

; 508  : 	cDBSMng.Send((char*)&pMsg, size); iCount++;

  0077c	8b 85 24 f8 ff
	ff		 mov	 eax, DWORD PTR _size$[ebp]
  00782	50		 push	 eax
  00783	8d 8d 28 f8 ff
	ff		 lea	 ecx, DWORD PTR _pMsg$[ebp]
  00789	51		 push	 ecx
  0078a	b9 00 00 00 00	 mov	 ecx, OFFSET ?cDBSMng@@3VDBSockMng@@A ; cDBSMng
  0078f	e8 00 00 00 00	 call	 ?Send@DBSockMng@@QAEHPADH@Z ; DBSockMng::Send
  00794	a1 00 00 00 00	 mov	 eax, DWORD PTR ?iCount@@3HA ; iCount
  00799	83 c0 01	 add	 eax, 1
  0079c	a3 00 00 00 00	 mov	 DWORD PTR ?iCount@@3HA, eax ; iCount

; 509  : 	wsprintf(pMsg.testbuf,"%d", iCount);LogAdd("%s",pMsg.testbuf);

  007a1	a1 00 00 00 00	 mov	 eax, DWORD PTR ?iCount@@3HA ; iCount
  007a6	50		 push	 eax
  007a7	68 00 00 00 00	 push	 OFFSET ??_C@_02DPKJAMEF@?$CFd@
  007ac	8d 8d 2c f8 ff
	ff		 lea	 ecx, DWORD PTR _pMsg$[ebp+4]
  007b2	51		 push	 ecx
  007b3	ff 15 00 00 00
	00		 call	 DWORD PTR __imp__wsprintfA
  007b9	83 c4 0c	 add	 esp, 12			; 0000000cH
  007bc	8d 85 2c f8 ff
	ff		 lea	 eax, DWORD PTR _pMsg$[ebp+4]
  007c2	50		 push	 eax
  007c3	68 00 00 00 00	 push	 OFFSET ??_C@_02DKCKIIND@?$CFs@
  007c8	ff 15 00 00 00
	00		 call	 DWORD PTR ?LogAdd@@3P6AXPADZZA ; LogAdd
  007ce	83 c4 08	 add	 esp, 8

; 510  : 	cDBSMng.Send((char*)&pMsg, size); iCount++;

  007d1	8b 85 24 f8 ff
	ff		 mov	 eax, DWORD PTR _size$[ebp]
  007d7	50		 push	 eax
  007d8	8d 8d 28 f8 ff
	ff		 lea	 ecx, DWORD PTR _pMsg$[ebp]
  007de	51		 push	 ecx
  007df	b9 00 00 00 00	 mov	 ecx, OFFSET ?cDBSMng@@3VDBSockMng@@A ; cDBSMng
  007e4	e8 00 00 00 00	 call	 ?Send@DBSockMng@@QAEHPADH@Z ; DBSockMng::Send
  007e9	a1 00 00 00 00	 mov	 eax, DWORD PTR ?iCount@@3HA ; iCount
  007ee	83 c0 01	 add	 eax, 1
  007f1	a3 00 00 00 00	 mov	 DWORD PTR ?iCount@@3HA, eax ; iCount

; 511  : 	/*
; 512  : 	cDBSMng.Send((char*)&pMsg, size);
; 513  : 	cDBSMng.Send((char*)&pMsg, size);
; 514  : 	cDBSMng.Send((char*)&pMsg, size);
; 515  : 	cDBSMng.Send((char*)&pMsg, size);
; 516  : 	cDBSMng.Send((char*)&pMsg, size);
; 517  : 	cDBSMng.Send((char*)&pMsg, size);
; 518  : 	*/
; 519  : 	//cDBSMng.Send((char*)&pMsg, size);
; 520  : 	//cDBSMng.Send((char*)&pMsg, size);
; 521  : 	//cDBSMng.Send((char*)&pMsg, size);
; 522  : 
; 523  : 	LogAdd("Test Data Send");

  007f6	68 00 00 00 00	 push	 OFFSET ??_C@_0P@GMPEKMII@Test?5Data?5Send@
  007fb	ff 15 00 00 00
	00		 call	 DWORD PTR ?LogAdd@@3P6AXPADZZA ; LogAdd
  00801	83 c4 04	 add	 esp, 4

; 524  : }

  00804	5f		 pop	 edi
  00805	5e		 pop	 esi
  00806	5b		 pop	 ebx
  00807	8b 4d fc	 mov	 ecx, DWORD PTR __$ArrayPad$[ebp]
  0080a	33 cd		 xor	 ecx, ebp
  0080c	e8 00 00 00 00	 call	 @__security_check_cookie@4
  00811	8b e5		 mov	 esp, ebp
  00813	5d		 pop	 ebp
  00814	c3		 ret	 0
?TestDSSend@@YAXXZ ENDP					; TestDSSend
_TEXT	ENDS
; Function compile flags: /Odtp /ZI
; File C:\Mu Online\Mu-GS-Webzen-MC-10093\GameServer\DSProtocol.cpp
;	COMDAT ?DataServerLoginResult@@YAXPAUSDHP_RESULT@@@Z
_TEXT	SEGMENT
_lpMsg$ = 8						; size = 4
?DataServerLoginResult@@YAXPAUSDHP_RESULT@@@Z PROC	; DataServerLoginResult, COMDAT

; 553  : {

  00000	55		 push	 ebp
  00001	8b ec		 mov	 ebp, esp
  00003	83 ec 40	 sub	 esp, 64			; 00000040H
  00006	53		 push	 ebx
  00007	56		 push	 esi
  00008	57		 push	 edi

; 554  : 	if( lpMsg->Result == FALSE )

  00009	8b 45 08	 mov	 eax, DWORD PTR _lpMsg$[ebp]
  0000c	0f b6 48 03	 movzx	 ecx, BYTE PTR [eax+3]
  00010	85 c9		 test	 ecx, ecx
  00012	75 1b		 jne	 SHORT $LN2@DataServer

; 555  : 	{
; 556  : 		MsgBox(lMsg.Get(466));

  00014	68 d2 01 00 00	 push	 466			; 000001d2H
  00019	b9 00 00 00 00	 mov	 ecx, OFFSET ?lMsg@@3VCMsg@@A ; lMsg
  0001e	ff 15 00 00 00
	00		 call	 DWORD PTR __imp_?Get@CMsg@@QAEPADH@Z
  00024	50		 push	 eax
  00025	e8 00 00 00 00	 call	 ?MsgBox@@YAXPADZZ	; MsgBox
  0002a	83 c4 04	 add	 esp, 4

; 557  : 	}

  0002d	eb 2c		 jmp	 SHORT $LN1@DataServer
$LN2@DataServer:

; 558  : 	else
; 559  : 	{
; 560  : 		//gItemNumberCount = lpMsg->ItemCount;
; 561  : 		//LogAdd("아이템 번호 설정 : %d", gItemNumberCount);
; 562  : 		DataServerConnected = 1;

  0002f	c7 05 00 00 00
	00 01 00 00 00	 mov	 DWORD PTR ?DataServerConnected@@3HA, 1 ; DataServerConnected

; 563  : 		gServerReady++;

  00039	a1 00 00 00 00	 mov	 eax, DWORD PTR ?gServerReady@@3HA ; gServerReady
  0003e	83 c0 01	 add	 eax, 1
  00041	a3 00 00 00 00	 mov	 DWORD PTR ?gServerReady@@3HA, eax ; gServerReady

; 564  : 		SendMessage(ghWnd, WM_ASS_CREATEGAMESERVER, 0, 0);

  00046	6a 00		 push	 0
  00048	6a 00		 push	 0
  0004a	68 05 04 00 00	 push	 1029			; 00000405H
  0004f	a1 00 00 00 00	 mov	 eax, DWORD PTR ?ghWnd@@3PAUHWND__@@A ; ghWnd
  00054	50		 push	 eax
  00055	ff 15 00 00 00
	00		 call	 DWORD PTR __imp__SendMessageA@16
$LN1@DataServer:

; 565  : 	}
; 566  : }

  0005b	5f		 pop	 edi
  0005c	5e		 pop	 esi
  0005d	5b		 pop	 ebx
  0005e	8b e5		 mov	 esp, ebp
  00060	5d		 pop	 ebp
  00061	c3		 ret	 0
?DataServerLoginResult@@YAXPAUSDHP_RESULT@@@Z ENDP	; DataServerLoginResult
_TEXT	ENDS
; Function compile flags: /Odtp /ZI
; File C:\Mu Online\Mu-GS-Webzen-MC-10093\GameServer\DSProtocol.cpp
;	COMDAT ?JGGetCharacterInfo@@YAXPAUSDHP_DBCHAR_INFORESULT@@@Z
_TEXT	SEGMENT
$T1 = -444						; size = 4
$T2 = -440						; size = 4
_pNotice$ = -372					; size = 272
_MaxAddPoint$ = -100					; size = 2
_AddPoint$ = -96					; size = 2
_lpObj$ = -92						; size = 4
_i$3 = -88						; size = 4
_aIndex$ = -84						; size = 4
_szName$ = -80						; size = 11
_szAccountId$ = -68					; size = 11
_pjMsg$ = -56						; size = 52
__$ArrayPad$ = -4					; size = 4
_lpMsg$ = 8						; size = 4
?JGGetCharacterInfo@@YAXPAUSDHP_DBCHAR_INFORESULT@@@Z PROC ; JGGetCharacterInfo, COMDAT

; 1731 : {

  00000	55		 push	 ebp
  00001	8b ec		 mov	 ebp, esp
  00003	81 ec bc 01 00
	00		 sub	 esp, 444		; 000001bcH
  00009	a1 00 00 00 00	 mov	 eax, DWORD PTR ___security_cookie
  0000e	33 c5		 xor	 eax, ebp
  00010	89 45 fc	 mov	 DWORD PTR __$ArrayPad$[ebp], eax
  00013	53		 push	 ebx
  00014	56		 push	 esi
  00015	57		 push	 edi

; 1732 : 	PMSG_CHARMAPJOINRESULT	pjMsg;
; 1733 : 		
; 1734 : 	char szAccountId[MAX_IDSTRING+1];
; 1735 : 	char szName[MAX_IDSTRING+1];
; 1736 : 
; 1737 : 	int	 aIndex = lpMsg->Number;	

  00016	8b 45 08	 mov	 eax, DWORD PTR _lpMsg$[ebp]
  00019	0f bf 48 06	 movsx	 ecx, WORD PTR [eax+6]
  0001d	89 4d ac	 mov	 DWORD PTR _aIndex$[ebp], ecx

; 1738 : 	
; 1739 : 	szAccountId[MAX_IDSTRING] = '\0';

  00020	b8 01 00 00 00	 mov	 eax, 1
  00025	6b c8 0a	 imul	 ecx, eax, 10
  00028	89 8d 48 fe ff
	ff		 mov	 DWORD PTR $T2[ebp], ecx
  0002e	83 bd 48 fe ff
	ff 0b		 cmp	 DWORD PTR $T2[ebp], 11	; 0000000bH
  00035	73 02		 jae	 SHORT $LN17@JGGetChara
  00037	eb 05		 jmp	 SHORT $LN18@JGGetChara
$LN17@JGGetChara:
  00039	e8 00 00 00 00	 call	 ___report_rangecheckfailure
$LN18@JGGetChara:
  0003e	8b 95 48 fe ff
	ff		 mov	 edx, DWORD PTR $T2[ebp]
  00044	c6 44 15 bc 00	 mov	 BYTE PTR _szAccountId$[ebp+edx], 0

; 1740 : 	memcpy(szAccountId, lpMsg->AccountID, MAX_IDSTRING);

  00049	6a 0a		 push	 10			; 0000000aH
  0004b	8b 45 08	 mov	 eax, DWORD PTR _lpMsg$[ebp]
  0004e	83 c0 08	 add	 eax, 8
  00051	50		 push	 eax
  00052	8d 4d bc	 lea	 ecx, DWORD PTR _szAccountId$[ebp]
  00055	51		 push	 ecx
  00056	e8 00 00 00 00	 call	 _memcpy
  0005b	83 c4 0c	 add	 esp, 12			; 0000000cH

; 1741 : 	if( gObjIsAccontConnect(aIndex, szAccountId) == FALSE )

  0005e	8d 45 bc	 lea	 eax, DWORD PTR _szAccountId$[ebp]
  00061	50		 push	 eax
  00062	8b 4d ac	 mov	 ecx, DWORD PTR _aIndex$[ebp]
  00065	51		 push	 ecx
  00066	e8 00 00 00 00	 call	 ?gObjIsAccontConnect@@YAHHPAD@Z ; gObjIsAccontConnect
  0006b	83 c4 08	 add	 esp, 8
  0006e	85 c0		 test	 eax, eax
  00070	75 31		 jne	 SHORT $LN5@JGGetChara

; 1742 : 	{
; 1743 : 		LogAddC(LOGC_RED, lMsg.Get(426), szAccountId);

  00072	8d 45 bc	 lea	 eax, DWORD PTR _szAccountId$[ebp]
  00075	50		 push	 eax
  00076	68 aa 01 00 00	 push	 426			; 000001aaH
  0007b	b9 00 00 00 00	 mov	 ecx, OFFSET ?lMsg@@3VCMsg@@A ; lMsg
  00080	ff 15 00 00 00
	00		 call	 DWORD PTR __imp_?Get@CMsg@@QAEPADH@Z
  00086	50		 push	 eax
  00087	6a 02		 push	 2
  00089	ff 15 00 00 00
	00		 call	 DWORD PTR ?LogAddC@@3P6AXEPADZZA ; LogAddC
  0008f	83 c4 0c	 add	 esp, 12			; 0000000cH

; 1744 : 		CloseClient ( aIndex );

  00092	8b 45 ac	 mov	 eax, DWORD PTR _aIndex$[ebp]
  00095	50		 push	 eax
  00096	e8 00 00 00 00	 call	 ?CloseClient@@YAXH@Z	; CloseClient
  0009b	83 c4 04	 add	 esp, 4

; 1745 : 		return;

  0009e	e9 29 05 00 00	 jmp	 $LN1@JGGetChara
$LN5@JGGetChara:

; 1746 : 	}
; 1747 : 	szName[MAX_IDSTRING] = '\0';

  000a3	b8 01 00 00 00	 mov	 eax, 1
  000a8	6b c8 0a	 imul	 ecx, eax, 10
  000ab	89 8d 44 fe ff
	ff		 mov	 DWORD PTR $T1[ebp], ecx
  000b1	83 bd 44 fe ff
	ff 0b		 cmp	 DWORD PTR $T1[ebp], 11	; 0000000bH
  000b8	73 02		 jae	 SHORT $LN19@JGGetChara
  000ba	eb 05		 jmp	 SHORT $LN20@JGGetChara
$LN19@JGGetChara:
  000bc	e8 00 00 00 00	 call	 ___report_rangecheckfailure
$LN20@JGGetChara:
  000c1	8b 95 44 fe ff
	ff		 mov	 edx, DWORD PTR $T1[ebp]
  000c7	c6 44 15 b0 00	 mov	 BYTE PTR _szName$[ebp+edx], 0

; 1748 : 	memcpy(szName, lpMsg->Name, MAX_IDSTRING);

  000cc	6a 0a		 push	 10			; 0000000aH
  000ce	8b 45 08	 mov	 eax, DWORD PTR _lpMsg$[ebp]
  000d1	83 c0 12	 add	 eax, 18			; 00000012H
  000d4	50		 push	 eax
  000d5	8d 4d b0	 lea	 ecx, DWORD PTR _szName$[ebp]
  000d8	51		 push	 ecx
  000d9	e8 00 00 00 00	 call	 _memcpy
  000de	83 c4 0c	 add	 esp, 12			; 0000000cH

; 1749 : 	if( lpMsg->result == 0x00 )

  000e1	8b 45 08	 mov	 eax, DWORD PTR _lpMsg$[ebp]
  000e4	0f b6 48 04	 movzx	 ecx, BYTE PTR [eax+4]
  000e8	85 c9		 test	 ecx, ecx
  000ea	75 43		 jne	 SHORT $LN6@JGGetChara

; 1750 : 	{
; 1751 : 		LogAddC(LOGC_RED, lMsg.Get(427), szName, gObj[aIndex].AccountID);

  000ec	69 45 ac a0 1b
	00 00		 imul	 eax, DWORD PTR _aIndex$[ebp], 7072
  000f3	8b 0d 00 00 00
	00		 mov	 ecx, DWORD PTR ?gObj@@3PAVOBJECTSTRUCT@@A ; gObj
  000f9	8d 54 01 68	 lea	 edx, DWORD PTR [ecx+eax+104]
  000fd	52		 push	 edx
  000fe	8d 45 b0	 lea	 eax, DWORD PTR _szName$[ebp]
  00101	50		 push	 eax
  00102	68 ab 01 00 00	 push	 427			; 000001abH
  00107	b9 00 00 00 00	 mov	 ecx, OFFSET ?lMsg@@3VCMsg@@A ; lMsg
  0010c	ff 15 00 00 00
	00		 call	 DWORD PTR __imp_?Get@CMsg@@QAEPADH@Z
  00112	50		 push	 eax
  00113	6a 02		 push	 2
  00115	ff 15 00 00 00
	00		 call	 DWORD PTR ?LogAddC@@3P6AXEPADZZA ; LogAddC
  0011b	83 c4 10	 add	 esp, 16			; 00000010H

; 1752 : 		CloseClient ( aIndex );

  0011e	8b 45 ac	 mov	 eax, DWORD PTR _aIndex$[ebp]
  00121	50		 push	 eax
  00122	e8 00 00 00 00	 call	 ?CloseClient@@YAXH@Z	; CloseClient
  00127	83 c4 04	 add	 esp, 4

; 1753 : 		return;

  0012a	e9 9d 04 00 00	 jmp	 $LN1@JGGetChara
$LN6@JGGetChara:

; 1754 : 	}
; 1755 : 
; 1756 : 	if( lpMsg->CtlCode & 0x01 )

  0012f	8b 45 08	 mov	 eax, DWORD PTR _lpMsg$[ebp]
  00132	0f b6 88 3c 05
	00 00		 movzx	 ecx, BYTE PTR [eax+1340]
  00139	83 e1 01	 and	 ecx, 1
  0013c	74 37		 je	 SHORT $LN7@JGGetChara

; 1757 : 	{	// 캐릭터 블럭일때는 강제로 접속을 종료 시킨다
; 1758 : 		LogAddC(LOGC_RED, "error-L1 : Load Block Character infomation", szName, gObj[aIndex].AccountID);

  0013e	69 45 ac a0 1b
	00 00		 imul	 eax, DWORD PTR _aIndex$[ebp], 7072
  00145	8b 0d 00 00 00
	00		 mov	 ecx, DWORD PTR ?gObj@@3PAVOBJECTSTRUCT@@A ; gObj
  0014b	8d 54 01 68	 lea	 edx, DWORD PTR [ecx+eax+104]
  0014f	52		 push	 edx
  00150	8d 45 b0	 lea	 eax, DWORD PTR _szName$[ebp]
  00153	50		 push	 eax
  00154	68 00 00 00 00	 push	 OFFSET ??_C@_0CL@ECFCLMFK@error?9L1?5?3?5Load?5Block?5Character@
  00159	6a 02		 push	 2
  0015b	ff 15 00 00 00
	00		 call	 DWORD PTR ?LogAddC@@3P6AXEPADZZA ; LogAddC
  00161	83 c4 10	 add	 esp, 16			; 00000010H

; 1759 : 		CloseClient ( aIndex );

  00164	8b 45 ac	 mov	 eax, DWORD PTR _aIndex$[ebp]
  00167	50		 push	 eax
  00168	e8 00 00 00 00	 call	 ?CloseClient@@YAXH@Z	; CloseClient
  0016d	83 c4 04	 add	 esp, 4

; 1760 : 		return;

  00170	e9 57 04 00 00	 jmp	 $LN1@JGGetChara
$LN7@JGGetChara:

; 1761 : 	}
; 1762 : 
; 1763 : // 본서버만 적용 된다
; 1764 : #if TESTSERVER == 0
; 1765 : #ifdef MODIFY_CHARACTER_DELETE_IN_MAP_20051121
; 1766 : 	// 동일한 이름의 캐릭터가 이미 존재하면 접속 할수 없다.
; 1767 : 	for( int i=ALLOC_USEROBJECTSTART ; i<MAX_OBJECT; i++)

  00175	c7 45 a8 00 19
	00 00		 mov	 DWORD PTR _i$3[ebp], 6400 ; 00001900H
  0017c	eb 09		 jmp	 SHORT $LN4@JGGetChara
$LN2@JGGetChara:
  0017e	8b 45 a8	 mov	 eax, DWORD PTR _i$3[ebp]
  00181	83 c0 01	 add	 eax, 1
  00184	89 45 a8	 mov	 DWORD PTR _i$3[ebp], eax
$LN4@JGGetChara:
  00187	81 7d a8 e8 1c
	00 00		 cmp	 DWORD PTR _i$3[ebp], 7400 ; 00001ce8H
  0018e	0f 8d b1 00 00
	00		 jge	 $LN3@JGGetChara

; 1768 : 	{
; 1769 : 		if( (gObj[i].Connected == CSS_GAMEPLAYING) && (gObj[i].Type == OBJTYPE_CHARACTER))

  00194	69 45 a8 a0 1b
	00 00		 imul	 eax, DWORD PTR _i$3[ebp], 7072
  0019b	8b 0d 00 00 00
	00		 mov	 ecx, DWORD PTR ?gObj@@3PAVOBJECTSTRUCT@@A ; gObj
  001a1	83 7c 01 04 03	 cmp	 DWORD PTR [ecx+eax+4], 3
  001a6	0f 85 94 00 00
	00		 jne	 $LN9@JGGetChara
  001ac	69 45 a8 a0 1b
	00 00		 imul	 eax, DWORD PTR _i$3[ebp], 7072
  001b3	8b 0d 00 00 00
	00		 mov	 ecx, DWORD PTR ?gObj@@3PAVOBJECTSTRUCT@@A ; gObj
  001b9	0f b7 54 01 64	 movzx	 edx, WORD PTR [ecx+eax+100]
  001be	83 fa 01	 cmp	 edx, 1
  001c1	75 7d		 jne	 SHORT $LN9@JGGetChara

; 1770 : 		{
; 1771 : 			if( strncmp(szName, gObj[i].Name, MAX_IDSTRING) == 0 || strncmp(szAccountId, gObj[i].AccountID, MAX_IDSTRING) == 0 )

  001c3	6a 0a		 push	 10			; 0000000aH
  001c5	69 45 a8 a0 1b
	00 00		 imul	 eax, DWORD PTR _i$3[ebp], 7072
  001cc	8b 0d 00 00 00
	00		 mov	 ecx, DWORD PTR ?gObj@@3PAVOBJECTSTRUCT@@A ; gObj
  001d2	8d 54 01 73	 lea	 edx, DWORD PTR [ecx+eax+115]
  001d6	52		 push	 edx
  001d7	8d 45 b0	 lea	 eax, DWORD PTR _szName$[ebp]
  001da	50		 push	 eax
  001db	e8 00 00 00 00	 call	 _strncmp
  001e0	83 c4 0c	 add	 esp, 12			; 0000000cH
  001e3	85 c0		 test	 eax, eax
  001e5	74 24		 je	 SHORT $LN10@JGGetChara
  001e7	6a 0a		 push	 10			; 0000000aH
  001e9	69 45 a8 a0 1b
	00 00		 imul	 eax, DWORD PTR _i$3[ebp], 7072
  001f0	8b 0d 00 00 00
	00		 mov	 ecx, DWORD PTR ?gObj@@3PAVOBJECTSTRUCT@@A ; gObj
  001f6	8d 54 01 68	 lea	 edx, DWORD PTR [ecx+eax+104]
  001fa	52		 push	 edx
  001fb	8d 45 bc	 lea	 eax, DWORD PTR _szAccountId$[ebp]
  001fe	50		 push	 eax
  001ff	e8 00 00 00 00	 call	 _strncmp
  00204	83 c4 0c	 add	 esp, 12			; 0000000cH
  00207	85 c0		 test	 eax, eax
  00209	75 35		 jne	 SHORT $LN9@JGGetChara
$LN10@JGGetChara:

; 1772 : 			{
; 1773 : 				LogAddTD("[Anti-HACK][JGGetCharacterInfo] Attempted Character-Copy by double logging [%s][%s]", 

  0020b	69 45 ac a0 1b
	00 00		 imul	 eax, DWORD PTR _aIndex$[ebp], 7072
  00212	8b 0d 00 00 00
	00		 mov	 ecx, DWORD PTR ?gObj@@3PAVOBJECTSTRUCT@@A ; gObj
  00218	8d 54 01 68	 lea	 edx, DWORD PTR [ecx+eax+104]
  0021c	52		 push	 edx
  0021d	8d 45 b0	 lea	 eax, DWORD PTR _szName$[ebp]
  00220	50		 push	 eax
  00221	68 00 00 00 00	 push	 OFFSET ??_C@_0FE@JOJGEKKO@?$FLAnti?9HACK?$FN?$FLJGGetCharacterInfo?$FN@
  00226	ff 15 00 00 00
	00		 call	 DWORD PTR ?LogAddTD@@3P6AXPADZZA ; LogAddTD
  0022c	83 c4 0c	 add	 esp, 12			; 0000000cH

; 1774 : 					szName, gObj[aIndex].AccountID);
; 1775 : 				
; 1776 : 				CloseClient ( aIndex );

  0022f	8b 45 ac	 mov	 eax, DWORD PTR _aIndex$[ebp]
  00232	50		 push	 eax
  00233	e8 00 00 00 00	 call	 ?CloseClient@@YAXH@Z	; CloseClient
  00238	83 c4 04	 add	 esp, 4

; 1777 : 				return;

  0023b	e9 8c 03 00 00	 jmp	 $LN1@JGGetChara
$LN9@JGGetChara:

; 1778 : 			}
; 1779 : 		}
; 1780 : 	}

  00240	e9 39 ff ff ff	 jmp	 $LN2@JGGetChara
$LN3@JGGetChara:

; 1781 : 
; 1782 : #endif // MODIFY_CHARACTER_DELETE_IN_MAP_20051121
; 1783 : #endif // TESTSERVER
; 1784 : 	
; 1785 : 	// 세팅한다.
; 1786 : 	if( gObjSetCharacter((LPBYTE)lpMsg, aIndex) == FALSE) 

  00245	8b 45 ac	 mov	 eax, DWORD PTR _aIndex$[ebp]
  00248	50		 push	 eax
  00249	8b 4d 08	 mov	 ecx, DWORD PTR _lpMsg$[ebp]
  0024c	51		 push	 ecx
  0024d	e8 00 00 00 00	 call	 ?gObjSetCharacter@@YAHPAEH@Z ; gObjSetCharacter
  00252	83 c4 08	 add	 esp, 8
  00255	85 c0		 test	 eax, eax
  00257	75 31		 jne	 SHORT $LN11@JGGetChara

; 1787 : 	{
; 1788 : 		LogAddC(LOGC_RED, lMsg.Get(428), szName);

  00259	8d 45 b0	 lea	 eax, DWORD PTR _szName$[ebp]
  0025c	50		 push	 eax
  0025d	68 ac 01 00 00	 push	 428			; 000001acH
  00262	b9 00 00 00 00	 mov	 ecx, OFFSET ?lMsg@@3VCMsg@@A ; lMsg
  00267	ff 15 00 00 00
	00		 call	 DWORD PTR __imp_?Get@CMsg@@QAEPADH@Z
  0026d	50		 push	 eax
  0026e	6a 02		 push	 2
  00270	ff 15 00 00 00
	00		 call	 DWORD PTR ?LogAddC@@3P6AXEPADZZA ; LogAddC
  00276	83 c4 0c	 add	 esp, 12			; 0000000cH

; 1789 : 		CloseClient ( aIndex );

  00279	8b 45 ac	 mov	 eax, DWORD PTR _aIndex$[ebp]
  0027c	50		 push	 eax
  0027d	e8 00 00 00 00	 call	 ?CloseClient@@YAXH@Z	; CloseClient
  00282	83 c4 04	 add	 esp, 4

; 1790 : 		return;

  00285	e9 42 03 00 00	 jmp	 $LN1@JGGetChara
$LN11@JGGetChara:

; 1791 : 	}
; 1792 : 	
; 1793 : #ifdef ADD_SHIELD_POINT_01_20060403
; 1794 : 	gObj[aIndex].iShield = (gObj[aIndex].iMaxShield + gObj[aIndex].iAddShield);
; 1795 : #endif
; 1796 : 
; 1797 : 	
; 1798 : #ifdef AUTH_GAMESERVER_CHECKKEY
; 1799 : 	if( szAuthKey[0] != AUTH_CHECK_00 )
; 1800 : 		DestroyGIocp();
; 1801 : #endif
; 1802 : 
; 1803 : 	LPOBJECTSTRUCT	lpObj = &gObj[aIndex];

  0028a	69 45 ac a0 1b
	00 00		 imul	 eax, DWORD PTR _aIndex$[ebp], 7072
  00291	03 05 00 00 00
	00		 add	 eax, DWORD PTR ?gObj@@3PAVOBJECTSTRUCT@@A ; gObj
  00297	89 45 a4	 mov	 DWORD PTR _lpObj$[ebp], eax

; 1804 : 	if( gObj[aIndex].m_Index != aIndex )

  0029a	69 45 ac a0 1b
	00 00		 imul	 eax, DWORD PTR _aIndex$[ebp], 7072
  002a1	8b 0d 00 00 00
	00		 mov	 ecx, DWORD PTR ?gObj@@3PAVOBJECTSTRUCT@@A ; gObj
  002a7	8b 14 01	 mov	 edx, DWORD PTR [ecx+eax]
  002aa	3b 55 ac	 cmp	 edx, DWORD PTR _aIndex$[ebp]
  002ad	74 3b		 je	 SHORT $LN12@JGGetChara

; 1805 : 	{
; 1806 : 		LogAddC(LOGC_RED, lMsg.Get(429), __FILE__, __LINE__);

  002af	a1 00 00 00 00	 mov	 eax, DWORD PTR ?__LINE__Var@?0??JGGetCharacterInfo@@YAXPAUSDHP_DBCHAR_INFORESULT@@@Z@4JA
  002b4	83 c0 4b	 add	 eax, 75			; 0000004bH
  002b7	50		 push	 eax
  002b8	68 00 00 00 00	 push	 OFFSET ??_C@_0DN@MBPEHAPP@C?3?2Mu?5Online?2Mu?9GS?9Webzen?9MC?910@
  002bd	68 ad 01 00 00	 push	 429			; 000001adH
  002c2	b9 00 00 00 00	 mov	 ecx, OFFSET ?lMsg@@3VCMsg@@A ; lMsg
  002c7	ff 15 00 00 00
	00		 call	 DWORD PTR __imp_?Get@CMsg@@QAEPADH@Z
  002cd	50		 push	 eax
  002ce	6a 02		 push	 2
  002d0	ff 15 00 00 00
	00		 call	 DWORD PTR ?LogAddC@@3P6AXEPADZZA ; LogAddC
  002d6	83 c4 10	 add	 esp, 16			; 00000010H

; 1807 : 		CloseClient ( aIndex );

  002d9	8b 45 ac	 mov	 eax, DWORD PTR _aIndex$[ebp]
  002dc	50		 push	 eax
  002dd	e8 00 00 00 00	 call	 ?CloseClient@@YAXH@Z	; CloseClient
  002e2	83 c4 04	 add	 esp, 4

; 1808 : 		return;

  002e5	e9 e2 02 00 00	 jmp	 $LN1@JGGetChara
$LN12@JGGetChara:

; 1809 : 	}
; 1810 : 
; 1811 : #ifdef MODIFY_ZEN_MAX_20040414
; 1812 : 	// Zen이 0보다 작으면 0으로 세팅해준다.
; 1813 : 	if( lpObj->Money < 0 )

  002ea	8b 45 a4	 mov	 eax, DWORD PTR _lpObj$[ebp]
  002ed	83 b8 b0 00 00
	00 00		 cmp	 DWORD PTR [eax+176], 0
  002f4	7d 3c		 jge	 SHORT $LN13@JGGetChara

; 1814 : 	{
; 1815 : 		LogAddC(LOGC_RED, "★☆ ZEN MODIFY ☆★ [%s][%s] %d -> 0", 

  002f6	8b 45 a4	 mov	 eax, DWORD PTR _lpObj$[ebp]
  002f9	8b 88 b0 00 00
	00		 mov	 ecx, DWORD PTR [eax+176]
  002ff	51		 push	 ecx
  00300	69 55 ac a0 1b
	00 00		 imul	 edx, DWORD PTR _aIndex$[ebp], 7072
  00307	a1 00 00 00 00	 mov	 eax, DWORD PTR ?gObj@@3PAVOBJECTSTRUCT@@A ; gObj
  0030c	8d 4c 10 68	 lea	 ecx, DWORD PTR [eax+edx+104]
  00310	51		 push	 ecx
  00311	8d 55 b0	 lea	 edx, DWORD PTR _szName$[ebp]
  00314	52		 push	 edx
  00315	68 00 00 00 00	 push	 OFFSET ??_C@_0CG@BPCBIHIK@?$KB?Z?$KB?Y?5ZEN?5MODIFY?5?$KB?Y?$KB?Z?5?$FL?$CFs?$FN?$FL?$CFs?$FN?5?$CF@
  0031a	6a 02		 push	 2
  0031c	ff 15 00 00 00
	00		 call	 DWORD PTR ?LogAddC@@3P6AXEPADZZA ; LogAddC
  00322	83 c4 14	 add	 esp, 20			; 00000014H

; 1816 : 			szName, gObj[aIndex].AccountID, lpObj->Money);
; 1817 : 		lpObj->Money = 0;

  00325	8b 45 a4	 mov	 eax, DWORD PTR _lpObj$[ebp]
  00328	c7 80 b0 00 00
	00 00 00 00 00	 mov	 DWORD PTR [eax+176], 0
$LN13@JGGetChara:

; 1818 : 	}
; 1819 : #endif
; 1820 : 
; 1821 : #ifdef MAP_SERVER_WORK_20041030		// 맵서버로 이동여부 체크 -> 최초 로그인 하여 케릭터 정보를 받을 때 이 맵이 아니라면 다른 맵서버로 이동시켜 준다.
; 1822 : 	if (lpObj->m_bMapSvrMoveReq == false) {
; 1823 : 		// 최초 로그인인 경우에만 여기서 처리한다. -> 다른 맵서버에서 온 경우는 gObjSetCharacter() 에서 처리
; 1824 : 		if( !MapNumberCheck(lpObj->MapNumber) ) 
; 1825 : 		{
; 1826 : 			LogAdd("error-L3 : %s %d", __FILE__, __LINE__);
; 1827 : 			CloseClient ( aIndex );
; 1828 : 			return;
; 1829 : 		}
; 1830 : 
; 1831 : 		SHORT sSvrCode	= g_MapServerManager.CheckMoveMapSvr(lpObj->m_Index, lpObj->MapNumber, lpObj->m_sPrevMapSvrCode);
; 1832 : 		if (sSvrCode != gGameServerCode) {
; 1833 : 			if (sSvrCode == -1) {
; 1834 : 				// 치명적인 에러 -> 거의 없슴
; 1835 : 				LogAddC(LOGC_RED, "[MapServerMng] Map Server Move Fail : CheckMoveMapSvr() == -1 [%s][%s] (%d)",
; 1836 : 					lpObj->AccountID,
; 1837 : 					lpObj->Name,
; 1838 : 					lpObj->m_Index
; 1839 : 					);
; 1840 : 				CloseClient ( aIndex );
; 1841 : 				return;
; 1842 : 			}
; 1843 : 
; 1844 : 			// 인증서버에 맵서버 이동 요청을 한다.
; 1845 : 			GJReqMapSvrMove (lpObj->m_Index, sSvrCode, lpObj->MapNumber, lpObj->X, lpObj->Y);
; 1846 : 			LogAddTD("[MapServerMng] Request to Move Map Server : (%d) - [%s][%s] (%d)",
; 1847 : 				sSvrCode,
; 1848 : 				lpObj->AccountID,
; 1849 : 				lpObj->Name,
; 1850 : 				lpObj->m_Index
; 1851 : 				);
; 1852 : 			return;
; 1853 : 		}
; 1854 : 	}
; 1855 : 	
; 1856 : 	lpObj->m_bMapSvrMoveReq	= false;
; 1857 : #endif
; 1858 : 
; 1859 : 	pjMsg.h.c			= PMHCE_BYTE;

  00332	c6 45 c8 c3	 mov	 BYTE PTR _pjMsg$[ebp], 195 ; 000000c3H

; 1860 : 	pjMsg.h.headcode	= 0xF3;

  00336	c6 45 ca f3	 mov	 BYTE PTR _pjMsg$[ebp+2], 243 ; 000000f3H

; 1861 : 	pjMsg.h.size		= sizeof(pjMsg);

  0033a	c6 45 c9 34	 mov	 BYTE PTR _pjMsg$[ebp+1], 52 ; 00000034H

; 1862 : 	pjMsg.subcode		= 0x03;

  0033e	c6 45 cb 03	 mov	 BYTE PTR _pjMsg$[ebp+3], 3

; 1863 : 	pjMsg.MapX			= (BYTE)lpObj->X;

  00342	8b 45 a4	 mov	 eax, DWORD PTR _lpObj$[ebp]
  00345	8a 88 04 01 00
	00		 mov	 cl, BYTE PTR [eax+260]
  0034b	88 4d cc	 mov	 BYTE PTR _pjMsg$[ebp+4], cl

; 1864 : 	pjMsg.MapY			= (BYTE)lpObj->Y;

  0034e	8b 45 a4	 mov	 eax, DWORD PTR _lpObj$[ebp]
  00351	8a 88 06 01 00
	00		 mov	 cl, BYTE PTR [eax+262]
  00357	88 4d cd	 mov	 BYTE PTR _pjMsg$[ebp+5], cl

; 1865 : 	pjMsg.MapNumber		= lpObj->MapNumber;

  0035a	8b 45 a4	 mov	 eax, DWORD PTR _lpObj$[ebp]
  0035d	8a 88 09 01 00
	00		 mov	 cl, BYTE PTR [eax+265]
  00363	88 4d ce	 mov	 BYTE PTR _pjMsg$[ebp+6], cl

; 1866 : 	pjMsg.Dir			= lpObj->Dir;

  00366	8b 45 a4	 mov	 eax, DWORD PTR _lpObj$[ebp]
  00369	8a 88 08 01 00
	00		 mov	 cl, BYTE PTR [eax+264]
  0036f	88 4d cf	 mov	 BYTE PTR _pjMsg$[ebp+7], cl

; 1867 : #ifdef	MASTER_LEVEL_UP_SYSTEM_20070912	// 경험치 전송 -> EXP 타입 변경	
; 1868 : 	// *마스터레벨 정보를 받기 전이라 의미는 없음. 나중을 위해서 일단 작업.
; 1869 : 	INT64 i64Exp = lpObj->Experience;
; 1870 : 	if( g_MasterLevelSystem.IsMasterLevelUser( lpObj ) )
; 1871 : 	{
; 1872 : 		i64Exp = lpObj->m_i64MasterLevelExp;
; 1873 : 	}
; 1874 : 
; 1875 : 	// 마스터레벨 유저를 위해 타입 변경						
; 1876 : 	pjMsg.btExp1			= HIBYTE(HIWORD(HILONG( i64Exp )));
; 1877 : 	pjMsg.btExp2			= LOBYTE(HIWORD(HILONG( i64Exp )));
; 1878 : 	pjMsg.btExp3			= HIBYTE(LOWORD(HILONG( i64Exp )));
; 1879 : 	pjMsg.btExp4			= LOBYTE(LOWORD(HILONG( i64Exp )));
; 1880 : 	pjMsg.btExp5			= HIBYTE(HIWORD(LOLONG( i64Exp )));
; 1881 : 	pjMsg.btExp6			= LOBYTE(HIWORD(LOLONG( i64Exp )));
; 1882 : 	pjMsg.btExp7			= HIBYTE(LOWORD(LOLONG( i64Exp )));
; 1883 : 	pjMsg.btExp8			= LOBYTE(LOWORD(LOLONG( i64Exp )));	
; 1884 : 
; 1885 : 	INT64 i64NextExp = lpObj->NextExp;
; 1886 : 	if( g_MasterLevelSystem.IsMasterLevelUser( lpObj ) )
; 1887 : 	{
; 1888 : 		i64NextExp = lpObj->m_i64NextMasterLevelExp;
; 1889 : 	}	
; 1890 : 	pjMsg.btNextExp1		= HIBYTE(HIWORD(HILONG( i64NextExp )));
; 1891 : 	pjMsg.btNextExp2		= LOBYTE(HIWORD(HILONG( i64NextExp )));
; 1892 : 	pjMsg.btNextExp3		= HIBYTE(LOWORD(HILONG( i64NextExp )));
; 1893 : 	pjMsg.btNextExp4		= LOBYTE(LOWORD(HILONG( i64NextExp )));
; 1894 : 	pjMsg.btNextExp5		= HIBYTE(HIWORD(LOLONG( i64NextExp )));
; 1895 : 	pjMsg.btNextExp6		= LOBYTE(HIWORD(LOLONG( i64NextExp )));
; 1896 : 	pjMsg.btNextExp7		= HIBYTE(LOWORD(LOLONG( i64NextExp )));
; 1897 : 	pjMsg.btNextExp8		= LOBYTE(LOWORD(LOLONG( i64NextExp )));	
; 1898 : #else
; 1899 : 	pjMsg.Exp			= lpObj->Experience;

  00372	8b 45 a4	 mov	 eax, DWORD PTR _lpObj$[ebp]
  00375	8b 88 a8 00 00
	00		 mov	 ecx, DWORD PTR [eax+168]
  0037b	89 4d d0	 mov	 DWORD PTR _pjMsg$[ebp+8], ecx

; 1900 : 	pjMsg.NextExp		= lpObj->NextExp;

  0037e	8b 45 a4	 mov	 eax, DWORD PTR _lpObj$[ebp]
  00381	8b 88 ac 00 00
	00		 mov	 ecx, DWORD PTR [eax+172]
  00387	89 4d d4	 mov	 DWORD PTR _pjMsg$[ebp+12], ecx

; 1901 : #endif	
; 1902 : 	pjMsg.LevelUpPoint	= lpObj->LevelUpPoint;

  0038a	8b 45 a4	 mov	 eax, DWORD PTR _lpObj$[ebp]
  0038d	66 8b 88 a4 00
	00 00		 mov	 cx, WORD PTR [eax+164]
  00394	66 89 4d d8	 mov	 WORD PTR _pjMsg$[ebp+16], cx

; 1903 : 	pjMsg.Str			= lpObj->Strength;

  00398	8b 45 a4	 mov	 eax, DWORD PTR _lpObj$[ebp]
  0039b	66 8b 88 b4 00
	00 00		 mov	 cx, WORD PTR [eax+180]
  003a2	66 89 4d da	 mov	 WORD PTR _pjMsg$[ebp+18], cx

; 1904 : 	pjMsg.Dex			= lpObj->Dexterity;

  003a6	8b 45 a4	 mov	 eax, DWORD PTR _lpObj$[ebp]
  003a9	66 8b 88 b6 00
	00 00		 mov	 cx, WORD PTR [eax+182]
  003b0	66 89 4d dc	 mov	 WORD PTR _pjMsg$[ebp+20], cx

; 1905 : 	pjMsg.Vit			= lpObj->Vitality;	

  003b4	8b 45 a4	 mov	 eax, DWORD PTR _lpObj$[ebp]
  003b7	66 8b 88 b8 00
	00 00		 mov	 cx, WORD PTR [eax+184]
  003be	66 89 4d de	 mov	 WORD PTR _pjMsg$[ebp+22], cx

; 1906 : 	pjMsg.Energy		= lpObj->Energy;

  003c2	8b 45 a4	 mov	 eax, DWORD PTR _lpObj$[ebp]
  003c5	66 8b 88 ba 00
	00 00		 mov	 cx, WORD PTR [eax+186]
  003cc	66 89 4d e0	 mov	 WORD PTR _pjMsg$[ebp+24], cx

; 1907 : 	pjMsg.Money			= lpObj->Money;

  003d0	8b 45 a4	 mov	 eax, DWORD PTR _lpObj$[ebp]
  003d3	8b 88 b0 00 00
	00		 mov	 ecx, DWORD PTR [eax+176]
  003d9	89 4d f0	 mov	 DWORD PTR _pjMsg$[ebp+40], ecx

; 1908 : 	pjMsg.PkLevel		= lpObj->m_PK_Level;

  003dc	8b 45 a4	 mov	 eax, DWORD PTR _lpObj$[ebp]
  003df	8a 88 fd 00 00
	00		 mov	 cl, BYTE PTR [eax+253]
  003e5	88 4d f4	 mov	 BYTE PTR _pjMsg$[ebp+44], cl

; 1909 : 	pjMsg.Life			= (WORD)(lpObj->Life);

  003e8	8b 45 a4	 mov	 eax, DWORD PTR _lpObj$[ebp]
  003eb	f3 0f 2c 88 bc
	00 00 00	 cvttss2si ecx, DWORD PTR [eax+188]
  003f3	66 89 4d e2	 mov	 WORD PTR _pjMsg$[ebp+26], cx

; 1910 : 	pjMsg.MaxLife		= (WORD)((lpObj->MaxLife+lpObj->AddLife));

  003f7	8b 45 a4	 mov	 eax, DWORD PTR _lpObj$[ebp]
  003fa	f3 0f 2a 80 0c
	01 00 00	 cvtsi2ss xmm0, DWORD PTR [eax+268]
  00402	8b 4d a4	 mov	 ecx, DWORD PTR _lpObj$[ebp]
  00405	f3 0f 58 81 c0
	00 00 00	 addss	 xmm0, DWORD PTR [ecx+192]
  0040d	f3 0f 2c d0	 cvttss2si edx, xmm0
  00411	66 89 55 e4	 mov	 WORD PTR _pjMsg$[ebp+28], dx

; 1911 : 	pjMsg.Mana			= (WORD)(lpObj->Mana);

  00415	8b 45 a4	 mov	 eax, DWORD PTR _lpObj$[ebp]
  00418	f3 0f 2c 88 d0
	00 00 00	 cvttss2si ecx, DWORD PTR [eax+208]
  00420	66 89 4d e6	 mov	 WORD PTR _pjMsg$[ebp+30], cx

; 1912 : 	pjMsg.MaxMana		= (WORD)((lpObj->MaxMana+lpObj->AddMana));

  00424	8b 45 a4	 mov	 eax, DWORD PTR _lpObj$[ebp]
  00427	f3 0f 2a 80 10
	01 00 00	 cvtsi2ss xmm0, DWORD PTR [eax+272]
  0042f	8b 4d a4	 mov	 ecx, DWORD PTR _lpObj$[ebp]
  00432	f3 0f 58 81 d4
	00 00 00	 addss	 xmm0, DWORD PTR [ecx+212]
  0043a	f3 0f 2c d0	 cvttss2si edx, xmm0
  0043e	66 89 55 e8	 mov	 WORD PTR _pjMsg$[ebp+32], dx

; 1913 : #ifdef ADD_SHIELD_POINT_01_20060403
; 1914 : 	pjMsg.wShield		= (WORD)(lpObj->iShield);
; 1915 : 	pjMsg.wMaxShield	= (WORD)(lpObj->iMaxShield + lpObj->iAddShield);
; 1916 : #endif
; 1917 : 	pjMsg.CtlCode		= lpMsg->CtlCode;

  00442	8b 45 08	 mov	 eax, DWORD PTR _lpMsg$[ebp]
  00445	8a 88 3c 05 00
	00		 mov	 cl, BYTE PTR [eax+1340]
  0044b	88 4d f5	 mov	 BYTE PTR _pjMsg$[ebp+45], cl

; 1918 : 
; 1919 : #ifdef NEW_FORSKYLAND2
; 1920 : 	pjMsg.BP			= lpObj->BP;

  0044e	8b 45 a4	 mov	 eax, DWORD PTR _lpObj$[ebp]
  00451	66 8b 88 e8 00
	00 00		 mov	 cx, WORD PTR [eax+232]
  00458	66 89 4d ea	 mov	 WORD PTR _pjMsg$[ebp+34], cx

; 1921 : 	pjMsg.MaxBP			= lpObj->MaxBP+lpObj->AddBP;

  0045c	8b 45 a4	 mov	 eax, DWORD PTR _lpObj$[ebp]
  0045f	8b 88 ec 00 00
	00		 mov	 ecx, DWORD PTR [eax+236]
  00465	8b 55 a4	 mov	 edx, DWORD PTR _lpObj$[ebp]
  00468	03 8a f0 00 00
	00		 add	 ecx, DWORD PTR [edx+240]
  0046e	66 89 4d ec	 mov	 WORD PTR _pjMsg$[ebp+36], cx

; 1922 : #endif
; 1923 : 
; 1924 : #ifdef DARKLORD_WORK
; 1925 : 	pjMsg.Leadership = lpObj->Leadership;

  00472	8b 45 a4	 mov	 eax, DWORD PTR _lpObj$[ebp]
  00475	66 8b 88 d8 00
	00 00		 mov	 cx, WORD PTR [eax+216]
  0047c	66 89 4d fa	 mov	 WORD PTR _pjMsg$[ebp+50], cx

; 1926 : #endif
; 1927 : 
; 1928 : 	short AddPoint		= 0;

  00480	33 c0		 xor	 eax, eax
  00482	66 89 45 a0	 mov	 WORD PTR _AddPoint$[ebp], ax

; 1929 : 	short MaxAddPoint	= 0;

  00486	33 c0		 xor	 eax, eax
  00488	66 89 45 9c	 mov	 WORD PTR _MaxAddPoint$[ebp], ax

; 1930 : 
; 1931 : #ifdef ADD_MINUS_STAT_SYSTEM_USING_FRUIT_20050712
; 1932 : 	short MinusPoint	= 0;
; 1933 : 	short MaxMinusPoint = 0;
; 1934 : 	gObjGetStatPointState(lpObj->m_Index, AddPoint, MaxAddPoint, MinusPoint, MaxMinusPoint);
; 1935 : #else
; 1936 : 	gObjGetStatPointState(lpObj->m_Index, AddPoint, MaxAddPoint);

  0048c	8d 45 9c	 lea	 eax, DWORD PTR _MaxAddPoint$[ebp]
  0048f	50		 push	 eax
  00490	8d 4d a0	 lea	 ecx, DWORD PTR _AddPoint$[ebp]
  00493	51		 push	 ecx
  00494	8b 55 a4	 mov	 edx, DWORD PTR _lpObj$[ebp]
  00497	8b 02		 mov	 eax, DWORD PTR [edx]
  00499	50		 push	 eax
  0049a	e8 00 00 00 00	 call	 ?gObjGetStatPointState@@YAXHAAF0@Z ; gObjGetStatPointState
  0049f	83 c4 0c	 add	 esp, 12			; 0000000cH

; 1937 : #endif
; 1938 : 
; 1939 : 	pjMsg.AddPoint		= AddPoint;

  004a2	66 8b 45 a0	 mov	 ax, WORD PTR _AddPoint$[ebp]
  004a6	66 89 45 f6	 mov	 WORD PTR _pjMsg$[ebp+46], ax

; 1940 : 	pjMsg.MaxAddPoint	= MaxAddPoint;

  004aa	66 8b 45 9c	 mov	 ax, WORD PTR _MaxAddPoint$[ebp]
  004ae	66 89 45 f8	 mov	 WORD PTR _pjMsg$[ebp+48], ax

; 1941 : 
; 1942 : #ifdef ADD_MINUS_STAT_SYSTEM_USING_FRUIT_20050712
; 1943 : 	pjMsg.wMinusPoint	= MinusPoint;
; 1944 : 	pjMsg.wMaxMinusPoint= MaxMinusPoint;
; 1945 : 
; 1946 : 	LogAddTD("[FRUIT System] [%s][%s] (MinusPoint:%d/PlusPoint:%d) (MaxMinus:%d/MaxPlus:%d)", 
; 1947 : 		lpObj->AccountID, lpObj->Name, MinusPoint, AddPoint, MaxMinusPoint, MaxAddPoint);
; 1948 : #endif
; 1949 : 
; 1950 : #ifdef ADD_MINUS_STAT_SYSTEM_USING_FRUIT_20050712
; 1951 : 	if( AddPoint<0 || AddPoint>MaxAddPoint  || MinusPoint<0 || MinusPoint>MaxMinusPoint )
; 1952 : 	{
; 1953 : 		LogAddTD("[FRUIT System] Character Stat Error [%s][%s] (MinusPoint:%d/PlusPoint:%d) (MaxMinus:%d/MaxPlus:%d)", 
; 1954 : 			lpObj->AccountID, lpObj->Name, MinusPoint, AddPoint, MaxMinusPoint, MaxAddPoint);
; 1955 : 	}
; 1956 : #else
; 1957 : 	if( AddPoint < 0 || AddPoint > MaxAddPoint)

  004b2	0f bf 45 a0	 movsx	 eax, WORD PTR _AddPoint$[ebp]
  004b6	85 c0		 test	 eax, eax
  004b8	7c 0c		 jl	 SHORT $LN15@JGGetChara
  004ba	0f bf 45 a0	 movsx	 eax, WORD PTR _AddPoint$[ebp]
  004be	0f bf 4d 9c	 movsx	 ecx, WORD PTR _MaxAddPoint$[ebp]
  004c2	3b c1		 cmp	 eax, ecx
  004c4	7e 32		 jle	 SHORT $LN14@JGGetChara
$LN15@JGGetChara:

; 1958 : 	{
; 1959 : 		LogAddTD(lMsg.Get(500), lpObj->AccountID, lpObj->Name, AddPoint, MaxAddPoint);

  004c6	0f bf 45 9c	 movsx	 eax, WORD PTR _MaxAddPoint$[ebp]
  004ca	50		 push	 eax
  004cb	0f bf 4d a0	 movsx	 ecx, WORD PTR _AddPoint$[ebp]
  004cf	51		 push	 ecx
  004d0	8b 55 a4	 mov	 edx, DWORD PTR _lpObj$[ebp]
  004d3	83 c2 73	 add	 edx, 115		; 00000073H
  004d6	52		 push	 edx
  004d7	8b 45 a4	 mov	 eax, DWORD PTR _lpObj$[ebp]
  004da	83 c0 68	 add	 eax, 104		; 00000068H
  004dd	50		 push	 eax
  004de	68 f4 01 00 00	 push	 500			; 000001f4H
  004e3	b9 00 00 00 00	 mov	 ecx, OFFSET ?lMsg@@3VCMsg@@A ; lMsg
  004e8	ff 15 00 00 00
	00		 call	 DWORD PTR __imp_?Get@CMsg@@QAEPADH@Z
  004ee	50		 push	 eax
  004ef	ff 15 00 00 00
	00		 call	 DWORD PTR ?LogAddTD@@3P6AXPADZZA ; LogAddTD
  004f5	83 c4 14	 add	 esp, 20			; 00000014H
$LN14@JGGetChara:

; 1960 : 	}
; 1961 : #endif
; 1962 : 
; 1963 : #ifdef EXTEND_LOG_SYSTEM_20060202
; 1964 : 	g_QuestInfo.QuestInfoSave(lpObj);
; 1965 : #endif // EXTEND_LOG_SYSTEM_20060202
; 1966 : 
; 1967 : 	DataSend(aIndex, (LPBYTE)&pjMsg, pjMsg.h.size);		// 여기까지 하면 사람의 모습만 보인다.

  004f8	0f b6 45 c9	 movzx	 eax, BYTE PTR _pjMsg$[ebp+1]
  004fc	50		 push	 eax
  004fd	8d 4d c8	 lea	 ecx, DWORD PTR _pjMsg$[ebp]
  00500	51		 push	 ecx
  00501	8b 55 ac	 mov	 edx, DWORD PTR _aIndex$[ebp]
  00504	52		 push	 edx
  00505	e8 00 00 00 00	 call	 ?DataSend@@YAHHPAEK@Z	; DataSend
  0050a	83 c4 0c	 add	 esp, 12			; 0000000cH

; 1968 : 	GCItemListSend(aIndex);								// 여기까지 하면 사람이 장비한 것이 보인다.

  0050d	8b 45 ac	 mov	 eax, DWORD PTR _aIndex$[ebp]
  00510	50		 push	 eax
  00511	e8 00 00 00 00	 call	 ?GCItemListSend@@YAXH@Z	; GCItemListSend
  00516	83 c4 04	 add	 esp, 4

; 1969 : 	GCMagicListMultiSend( lpObj );						// 여기까지 하면 사람의 마법리스트를 한방에 보낸다.

  00519	8b 45 a4	 mov	 eax, DWORD PTR _lpObj$[ebp]
  0051c	50		 push	 eax
  0051d	e8 00 00 00 00	 call	 ?GCMagicListMultiSend@@YAXPAVOBJECTSTRUCT@@@Z ; GCMagicListMultiSend
  00522	83 c4 04	 add	 esp, 4

; 1970 : 
; 1971 : #ifdef MASTER_LEVEL_UP_SYSTEM_20070912					// DS에 마스터레벨 정보 요청
; 1972 : 	g_MasterLevelSystem.GDReqMasterLevelInfo( lpObj );
; 1973 : #endif
; 1974 : 
; 1975 : #ifdef ADD_SKILL_WITH_COMBO
; 1976 : 	CGRequestQuestInfo(aIndex);

  00525	8b 45 ac	 mov	 eax, DWORD PTR _aIndex$[ebp]
  00528	50		 push	 eax
  00529	e8 00 00 00 00	 call	 ?CGRequestQuestInfo@@YAXH@Z ; CGRequestQuestInfo
  0052e	83 c4 04	 add	 esp, 4

; 1977 : #endif
; 1978 : 
; 1979 : #ifdef MODIFY_QUEST_MONSTER_KILL_COUNT_BUGFIX_20070704	// DS에 퀘스트 몬스터 킬카운트 정보 요청
; 1980 : 	// 정보 셋팅이 완료되면 몬스터 킬카운트 정보를 요청한다.
; 1981 : 	g_QuestUtil.GDReqQuestMonsterKillInfo( lpObj );
; 1982 : #endif
; 1983 : 
; 1984 : #ifdef _NEW_EXDB_
; 1985 : 	//##EXDB##
; 1986 : 	DGGuildMemberInfoRequest(aIndex);					// 해당 케릭에 대한 길드정보를 길드서버에 요청??

  00531	8b 45 ac	 mov	 eax, DWORD PTR _aIndex$[ebp]
  00534	50		 push	 eax
  00535	e8 00 00 00 00	 call	 ?DGGuildMemberInfoRequest@@YAXH@Z ; DGGuildMemberInfoRequest
  0053a	83 c4 04	 add	 esp, 4

; 1987 : 	//##EXDB##
; 1988 : #endif
; 1989 : 	
; 1990 : // gObjSetCharacter에서 호출하던 것을 맵서버 적용에 따라 뒤쪽으로 이동시킴.
; 1991 : #ifdef MODIFY_ORDER_REQUEST_FRIENDLIST_20050205
; 1992 : 	#ifdef __FRIEND_WORK__
; 1993 : 		FriendListRequest(aIndex);

  0053d	8b 45 ac	 mov	 eax, DWORD PTR _aIndex$[ebp]
  00540	50		 push	 eax
  00541	e8 00 00 00 00	 call	 ?FriendListRequest@@YAXH@Z ; FriendListRequest
  00546	83 c4 04	 add	 esp, 4

; 1994 : 	#endif
; 1995 : #endif
; 1996 : 
; 1997 : #ifdef FOR_JAPAN	
; 1998 : 	// 타마짱 이벤트가 진행중이면
; 1999 : 	if( gTamaJJangEvent )
; 2000 : 	{
; 2001 : 		if( gAppearTamaJJang && lpObj->MapNumber == 0 )
; 2002 : 		{	// 타마짱이 나와 있고, 로렌시아에 있으면
; 2003 : 			GCMapEventStateSend(0, gAppearTamaJJang, 2);	
; 2004 : 		}
; 2005 : 	}
; 2006 : #endif
; 2007 : 
; 2008 : #ifdef ADD_ELITE_SKELETON_WORRIOR_CHANGE_RING_20060830	// 게임에 입장했을 때 변신 보여주기
; 2009 : 	gObjUseSkill.SkillChangeUse( lpObj->m_Index );
; 2010 : #endif
; 2011 : 	
; 2012 : #ifdef ADD_HACKING_TOOL_BLOCK_20090311
; 2013 : 	// 신규 접속자에게 서버에서 설정된 블록된 해킹툴의 사용여부를 확인한다.
; 2014 : 	g_HackToolBlock.HacktoolStatisticsNewConnect( lpObj );
; 2015 : #endif // ADD_HACKING_TOOL_BLOCK_20090311
; 2016 : 
; 2017 : #ifdef ADD_MAPMOVE_PROTOCOL_20090327
; 2018 : 	lpObj->m_dwMapMoveKeyValue = g_KeyGenerater.GenerateSeedValue();
; 2019 : 	GCSendMapMoveChecksum( lpObj );
; 2020 : #endif // ADD_MAPMOVE_PROTOCOL_20090327
; 2021 : 
; 2022 : 	g_ResetSystem.DBGetResetInfo(lpObj);

  00549	8b 45 a4	 mov	 eax, DWORD PTR _lpObj$[ebp]
  0054c	50		 push	 eax
  0054d	b9 00 00 00 00	 mov	 ecx, OFFSET ?g_ResetSystem@@3VCResetSystem@@A ; g_ResetSystem
  00552	e8 00 00 00 00	 call	 ?DBGetResetInfo@CResetSystem@@QAEXPAVOBJECTSTRUCT@@@Z ; CResetSystem::DBGetResetInfo

; 2023 : 
; 2024 : #ifdef MODIFY_CONNNECT_HACK_ATTACK_20090409
; 2025 : 	// 캐릭터 선택 후 맵
; 2026 : 	LogAddTD_TempLog(", [D->G Recv MapJoin] CharSelected, Account [%s], IP [%s], Name[%s]", 

  00557	69 45 ac a0 1b
	00 00		 imul	 eax, DWORD PTR _aIndex$[ebp], 7072
  0055e	8b 0d 00 00 00
	00		 mov	 ecx, DWORD PTR ?gObj@@3PAVOBJECTSTRUCT@@A ; gObj
  00564	8d 54 01 73	 lea	 edx, DWORD PTR [ecx+eax+115]
  00568	52		 push	 edx
  00569	69 45 ac a0 1b
	00 00		 imul	 eax, DWORD PTR _aIndex$[ebp], 7072
  00570	8b 0d 00 00 00
	00		 mov	 ecx, DWORD PTR ?gObj@@3PAVOBJECTSTRUCT@@A ; gObj
  00576	8d 54 01 18	 lea	 edx, DWORD PTR [ecx+eax+24]
  0057a	52		 push	 edx
  0057b	69 45 ac a0 1b
	00 00		 imul	 eax, DWORD PTR _aIndex$[ebp], 7072
  00582	8b 0d 00 00 00
	00		 mov	 ecx, DWORD PTR ?gObj@@3PAVOBJECTSTRUCT@@A ; gObj
  00588	8d 54 01 68	 lea	 edx, DWORD PTR [ecx+eax+104]
  0058c	52		 push	 edx
  0058d	68 00 00 00 00	 push	 OFFSET ??_C@_0EE@HOADODHJ@?0?5?$FLD?9?$DOG?5Recv?5MapJoin?$FN?5CharSelec@
  00592	ff 15 00 00 00
	00		 call	 DWORD PTR ?LogAddTD_TempLog@@3P6AXPADZZA ; LogAddTD_TempLog
  00598	83 c4 10	 add	 esp, 16			; 00000010H

; 2027 : 		gObj[aIndex].AccountID, gObj[aIndex].Ip_addr, gObj[aIndex].Name);
; 2028 : #endif
; 2029 : 
; 2030 : 	PMSG_NOTICE pNotice;
; 2031 : 
; 2032 : 	TNotice::MakeNoticeMsg((TNotice*)&pNotice, 0x00,  g_GlobalConfig.m_szConnectMessage);

  0059b	68 fc 00 00 00	 push	 OFFSET ?g_GlobalConfig@@3VCGlobalConfig@@A+252
  005a0	6a 00		 push	 0
  005a2	8d 85 8c fe ff
	ff		 lea	 eax, DWORD PTR _pNotice$[ebp]
  005a8	50		 push	 eax
  005a9	e8 00 00 00 00	 call	 ?MakeNoticeMsg@TNotice@@SAXPAXEPAD@Z ; TNotice::MakeNoticeMsg
  005ae	83 c4 0c	 add	 esp, 12			; 0000000cH

; 2033 : 	DataSend(aIndex, (unsigned char*)&pNotice , pNotice.h.size );

  005b1	0f b6 85 8d fe
	ff ff		 movzx	 eax, BYTE PTR _pNotice$[ebp+1]
  005b8	50		 push	 eax
  005b9	8d 8d 8c fe ff
	ff		 lea	 ecx, DWORD PTR _pNotice$[ebp]
  005bf	51		 push	 ecx
  005c0	8b 55 ac	 mov	 edx, DWORD PTR _aIndex$[ebp]
  005c3	52		 push	 edx
  005c4	e8 00 00 00 00	 call	 ?DataSend@@YAHHPAEK@Z	; DataSend
  005c9	83 c4 0c	 add	 esp, 12			; 0000000cH
$LN1@JGGetChara:

; 2034 : }

  005cc	5f		 pop	 edi
  005cd	5e		 pop	 esi
  005ce	5b		 pop	 ebx
  005cf	8b 4d fc	 mov	 ecx, DWORD PTR __$ArrayPad$[ebp]
  005d2	33 cd		 xor	 ecx, ebp
  005d4	e8 00 00 00 00	 call	 @__security_check_cookie@4
  005d9	8b e5		 mov	 esp, ebp
  005db	5d		 pop	 ebp
  005dc	c3		 ret	 0
?JGGetCharacterInfo@@YAXPAUSDHP_DBCHAR_INFORESULT@@@Z ENDP ; JGGetCharacterInfo
_TEXT	ENDS
; Function compile flags: /Odtp /ZI
; File C:\Mu Online\Mu-GS-Webzen-MC-10093\GameServer\DSProtocol.cpp
;	COMDAT ?JGCharDelRequest@@YAXPAUSDHP_CHARDELETERESULT@@@Z
_TEXT	SEGMENT
$T1 = -96						; size = 4
_aIndex$ = -28						; size = 4
_szAccountId$ = -24					; size = 11
_pResult$ = -12						; size = 5
__$ArrayPad$ = -4					; size = 4
_lpMsg$ = 8						; size = 4
?JGCharDelRequest@@YAXPAUSDHP_CHARDELETERESULT@@@Z PROC	; JGCharDelRequest, COMDAT

; 1702 : {

  00000	55		 push	 ebp
  00001	8b ec		 mov	 ebp, esp
  00003	83 ec 60	 sub	 esp, 96			; 00000060H
  00006	a1 00 00 00 00	 mov	 eax, DWORD PTR ___security_cookie
  0000b	33 c5		 xor	 eax, ebp
  0000d	89 45 fc	 mov	 DWORD PTR __$ArrayPad$[ebp], eax
  00010	53		 push	 ebx
  00011	56		 push	 esi
  00012	57		 push	 edi

; 1703 : 	PMSG_RESULT pResult;
; 1704 : 
; 1705 : 	char szAccountId[MAX_IDSTRING+1];
; 1706 : 	int	 aIndex = lpMsg->Number;	

  00013	8b 45 08	 mov	 eax, DWORD PTR _lpMsg$[ebp]
  00016	0f bf 48 04	 movsx	 ecx, WORD PTR [eax+4]
  0001a	89 4d e4	 mov	 DWORD PTR _aIndex$[ebp], ecx

; 1707 : 	
; 1708 : 	szAccountId[MAX_IDSTRING] = '\0';

  0001d	b8 01 00 00 00	 mov	 eax, 1
  00022	6b c8 0a	 imul	 ecx, eax, 10
  00025	89 4d a0	 mov	 DWORD PTR $T1[ebp], ecx
  00028	83 7d a0 0b	 cmp	 DWORD PTR $T1[ebp], 11	; 0000000bH
  0002c	73 02		 jae	 SHORT $LN4@JGCharDelR
  0002e	eb 05		 jmp	 SHORT $LN5@JGCharDelR
$LN4@JGCharDelR:
  00030	e8 00 00 00 00	 call	 ___report_rangecheckfailure
$LN5@JGCharDelR:
  00035	8b 55 a0	 mov	 edx, DWORD PTR $T1[ebp]
  00038	c6 44 15 e8 00	 mov	 BYTE PTR _szAccountId$[ebp+edx], 0

; 1709 : 	
; 1710 : 	memcpy(szAccountId, lpMsg->AccountID, MAX_IDSTRING);

  0003d	6a 0a		 push	 10			; 0000000aH
  0003f	8b 45 08	 mov	 eax, DWORD PTR _lpMsg$[ebp]
  00042	83 c0 06	 add	 eax, 6
  00045	50		 push	 eax
  00046	8d 4d e8	 lea	 ecx, DWORD PTR _szAccountId$[ebp]
  00049	51		 push	 ecx
  0004a	e8 00 00 00 00	 call	 _memcpy
  0004f	83 c4 0c	 add	 esp, 12			; 0000000cH

; 1711 : 	if( gObjIsAccontConnect(aIndex, szAccountId) == FALSE )

  00052	8d 45 e8	 lea	 eax, DWORD PTR _szAccountId$[ebp]
  00055	50		 push	 eax
  00056	8b 4d e4	 mov	 ecx, DWORD PTR _aIndex$[ebp]
  00059	51		 push	 ecx
  0005a	e8 00 00 00 00	 call	 ?gObjIsAccontConnect@@YAHHPAD@Z ; gObjIsAccontConnect
  0005f	83 c4 08	 add	 esp, 8
  00062	85 c0		 test	 eax, eax
  00064	75 2e		 jne	 SHORT $LN2@JGCharDelR

; 1712 : 	{
; 1713 : 		LogAddC(LOGC_RED, lMsg.Get(425), szAccountId);

  00066	8d 45 e8	 lea	 eax, DWORD PTR _szAccountId$[ebp]
  00069	50		 push	 eax
  0006a	68 a9 01 00 00	 push	 425			; 000001a9H
  0006f	b9 00 00 00 00	 mov	 ecx, OFFSET ?lMsg@@3VCMsg@@A ; lMsg
  00074	ff 15 00 00 00
	00		 call	 DWORD PTR __imp_?Get@CMsg@@QAEPADH@Z
  0007a	50		 push	 eax
  0007b	6a 02		 push	 2
  0007d	ff 15 00 00 00
	00		 call	 DWORD PTR ?LogAddC@@3P6AXEPADZZA ; LogAddC
  00083	83 c4 0c	 add	 esp, 12			; 0000000cH

; 1714 : 		CloseClient ( aIndex );

  00086	8b 45 e4	 mov	 eax, DWORD PTR _aIndex$[ebp]
  00089	50		 push	 eax
  0008a	e8 00 00 00 00	 call	 ?CloseClient@@YAXH@Z	; CloseClient
  0008f	83 c4 04	 add	 esp, 4

; 1715 : 		return;

  00092	eb 32		 jmp	 SHORT $LN3@JGCharDelR
$LN2@JGCharDelR:

; 1716 : 	}
; 1717 : 
; 1718 : 	pResult.h.c        = PMHC_BYTE;

  00094	c6 45 f4 c1	 mov	 BYTE PTR _pResult$[ebp], 193 ; 000000c1H

; 1719 : 	pResult.h.size     = sizeof( pResult );

  00098	c6 45 f5 05	 mov	 BYTE PTR _pResult$[ebp+1], 5

; 1720 : 	pResult.h.headcode = 0xF3;

  0009c	c6 45 f6 f3	 mov	 BYTE PTR _pResult$[ebp+2], 243 ; 000000f3H

; 1721 : 	pResult.subcode    = 0x02;

  000a0	c6 45 f7 02	 mov	 BYTE PTR _pResult$[ebp+3], 2

; 1722 : 	pResult.result	   = lpMsg->Result;

  000a4	8b 45 08	 mov	 eax, DWORD PTR _lpMsg$[ebp]
  000a7	8a 48 03	 mov	 cl, BYTE PTR [eax+3]
  000aa	88 4d f8	 mov	 BYTE PTR _pResult$[ebp+4], cl

; 1723 : 
; 1724 : 	DataSend(lpMsg->Number, (LPBYTE)&pResult, pResult.h.size);

  000ad	0f b6 45 f5	 movzx	 eax, BYTE PTR _pResult$[ebp+1]
  000b1	50		 push	 eax
  000b2	8d 4d f4	 lea	 ecx, DWORD PTR _pResult$[ebp]
  000b5	51		 push	 ecx
  000b6	8b 55 08	 mov	 edx, DWORD PTR _lpMsg$[ebp]
  000b9	0f bf 42 04	 movsx	 eax, WORD PTR [edx+4]
  000bd	50		 push	 eax
  000be	e8 00 00 00 00	 call	 ?DataSend@@YAHHPAEK@Z	; DataSend
  000c3	83 c4 0c	 add	 esp, 12			; 0000000cH
$LN3@JGCharDelR:

; 1725 : }

  000c6	5f		 pop	 edi
  000c7	5e		 pop	 esi
  000c8	5b		 pop	 ebx
  000c9	8b 4d fc	 mov	 ecx, DWORD PTR __$ArrayPad$[ebp]
  000cc	33 cd		 xor	 ecx, ebp
  000ce	e8 00 00 00 00	 call	 @__security_check_cookie@4
  000d3	8b e5		 mov	 esp, ebp
  000d5	5d		 pop	 ebp
  000d6	c3		 ret	 0
?JGCharDelRequest@@YAXPAUSDHP_CHARDELETERESULT@@@Z ENDP	; JGCharDelRequest
_TEXT	ENDS
; Function compile flags: /Odtp /ZI
; File C:\Mu Online\Mu-GS-Webzen-MC-10093\GameServer\DSProtocol.cpp
;	COMDAT ?JGCharacterCreateRequest@@YAXPAUSDHP_CREATECHARRESULT@@@Z
_TEXT	SEGMENT
$T1 = -132						; size = 4
_aIndex$ = -64						; size = 4
_szAccountId$ = -60					; size = 11
_pResult$ = -48						; size = 42
__$ArrayPad$ = -4					; size = 4
_lpMsg$ = 8						; size = 4
?JGCharacterCreateRequest@@YAXPAUSDHP_CREATECHARRESULT@@@Z PROC ; JGCharacterCreateRequest, COMDAT

; 1610 : {	

  00000	55		 push	 ebp
  00001	8b ec		 mov	 ebp, esp
  00003	81 ec 84 00 00
	00		 sub	 esp, 132		; 00000084H
  00009	a1 00 00 00 00	 mov	 eax, DWORD PTR ___security_cookie
  0000e	33 c5		 xor	 eax, ebp
  00010	89 45 fc	 mov	 DWORD PTR __$ArrayPad$[ebp], eax
  00013	53		 push	 ebx
  00014	56		 push	 esi
  00015	57		 push	 edi

; 1611 : 	PMSG_CHARCREATERESULT	pResult;
; 1612 : 	
; 1613 : 	char szAccountId[MAX_IDSTRING+1];
; 1614 : 	
; 1615 : 	int	 aIndex = lpMsg->Number;

  00016	8b 45 08	 mov	 eax, DWORD PTR _lpMsg$[ebp]
  00019	0f bf 48 04	 movsx	 ecx, WORD PTR [eax+4]
  0001d	89 4d c0	 mov	 DWORD PTR _aIndex$[ebp], ecx

; 1616 : 	
; 1617 : 	szAccountId[MAX_IDSTRING] = '\0';

  00020	b8 01 00 00 00	 mov	 eax, 1
  00025	6b c8 0a	 imul	 ecx, eax, 10
  00028	89 8d 7c ff ff
	ff		 mov	 DWORD PTR $T1[ebp], ecx
  0002e	83 bd 7c ff ff
	ff 0b		 cmp	 DWORD PTR $T1[ebp], 11	; 0000000bH
  00035	73 02		 jae	 SHORT $LN5@JGCharacte
  00037	eb 05		 jmp	 SHORT $LN6@JGCharacte
$LN5@JGCharacte:
  00039	e8 00 00 00 00	 call	 ___report_rangecheckfailure
$LN6@JGCharacte:
  0003e	8b 95 7c ff ff
	ff		 mov	 edx, DWORD PTR $T1[ebp]
  00044	c6 44 15 c4 00	 mov	 BYTE PTR _szAccountId$[ebp+edx], 0

; 1618 : 	
; 1619 : 	memcpy(szAccountId, lpMsg->AccountId, MAX_IDSTRING);

  00049	6a 0a		 push	 10			; 0000000aH
  0004b	8b 45 08	 mov	 eax, DWORD PTR _lpMsg$[ebp]
  0004e	83 c0 06	 add	 eax, 6
  00051	50		 push	 eax
  00052	8d 4d c4	 lea	 ecx, DWORD PTR _szAccountId$[ebp]
  00055	51		 push	 ecx
  00056	e8 00 00 00 00	 call	 _memcpy
  0005b	83 c4 0c	 add	 esp, 12			; 0000000cH

; 1620 : 	if( gObjIsAccontConnect(aIndex, szAccountId) == FALSE )

  0005e	8d 45 c4	 lea	 eax, DWORD PTR _szAccountId$[ebp]
  00061	50		 push	 eax
  00062	8b 4d c0	 mov	 ecx, DWORD PTR _aIndex$[ebp]
  00065	51		 push	 ecx
  00066	e8 00 00 00 00	 call	 ?gObjIsAccontConnect@@YAHHPAD@Z ; gObjIsAccontConnect
  0006b	83 c4 08	 add	 esp, 8
  0006e	85 c0		 test	 eax, eax
  00070	75 2e		 jne	 SHORT $LN2@JGCharacte

; 1621 : 	{
; 1622 : 		LogAddC(LOGC_RED, lMsg.Get(424),szAccountId);

  00072	8d 45 c4	 lea	 eax, DWORD PTR _szAccountId$[ebp]
  00075	50		 push	 eax
  00076	68 a8 01 00 00	 push	 424			; 000001a8H
  0007b	b9 00 00 00 00	 mov	 ecx, OFFSET ?lMsg@@3VCMsg@@A ; lMsg
  00080	ff 15 00 00 00
	00		 call	 DWORD PTR __imp_?Get@CMsg@@QAEPADH@Z
  00086	50		 push	 eax
  00087	6a 02		 push	 2
  00089	ff 15 00 00 00
	00		 call	 DWORD PTR ?LogAddC@@3P6AXEPADZZA ; LogAddC
  0008f	83 c4 0c	 add	 esp, 12			; 0000000cH

; 1623 : 		CloseClient ( aIndex );

  00092	8b 45 c0	 mov	 eax, DWORD PTR _aIndex$[ebp]
  00095	50		 push	 eax
  00096	e8 00 00 00 00	 call	 ?CloseClient@@YAXH@Z	; CloseClient
  0009b	83 c4 04	 add	 esp, 4

; 1624 : 		return;

  0009e	eb 75		 jmp	 SHORT $LN4@JGCharacte
$LN2@JGCharacte:

; 1625 : 	}
; 1626 : 
; 1627 : 	pResult.h.c        = PMHC_BYTE;

  000a0	c6 45 d0 c1	 mov	 BYTE PTR _pResult$[ebp], 193 ; 000000c1H

; 1628 : 	pResult.h.size     = sizeof( pResult );

  000a4	c6 45 d1 2a	 mov	 BYTE PTR _pResult$[ebp+1], 42 ; 0000002aH

; 1629 : 	pResult.h.headcode = 0xF3;

  000a8	c6 45 d2 f3	 mov	 BYTE PTR _pResult$[ebp+2], 243 ; 000000f3H

; 1630 : 	pResult.subcode    = 0x01;

  000ac	c6 45 d3 01	 mov	 BYTE PTR _pResult$[ebp+3], 1

; 1631 : 	pResult.Result     = lpMsg->Result;

  000b0	8b 45 08	 mov	 eax, DWORD PTR _lpMsg$[ebp]
  000b3	8a 48 03	 mov	 cl, BYTE PTR [eax+3]
  000b6	88 4d d4	 mov	 BYTE PTR _pResult$[ebp+4], cl

; 1632 : 	pResult.pos        = lpMsg->Pos;

  000b9	8b 45 08	 mov	 eax, DWORD PTR _lpMsg$[ebp]
  000bc	8a 48 1a	 mov	 cl, BYTE PTR [eax+26]
  000bf	88 4d df	 mov	 BYTE PTR _pResult$[ebp+15], cl

; 1633 : 
; 1634 : #ifdef WORLD_TOURNAMENT_EVENT_SETTING
; 1635 : 	if( lpMsg->ClassSkin == 0 || lpMsg->ClassSkin == 16 || lpMsg->ClassSkin == 32 )
; 1636 : 	{
; 1637 : 		lpMsg->ClassSkin++;
; 1638 : 	}
; 1639 : 
; 1640 : 	pResult.Class = ((lpMsg->ClassSkin>>4)<<5)&0xE0; 
; 1641 : 	int changeup = (lpMsg->ClassSkin)&CHANGEUP_MASK;
; 1642 : 	pResult.Class |= (changeup<<4)&0x10;
; 1643 : 	
; 1644 : #ifdef THIRD_CHANGEUP_SYSTEM_20070507	// 캐릭생성결과를 받았다.	
; 1645 : 	pResult.Class |= ( changeup << 4 )&0x20;
; 1646 : #endif
; 1647 : 
; 1648 : 	//pResult.Class = lpMsg->ClassSkin;
; 1649 : #else
; 1650 : 	#ifdef ADD_CLASSINFO_ON_CHARCTER_CREATION_20041224
; 1651 : //		if( lpMsg->ClassSkin == 0 || lpMsg->ClassSkin == 16 || lpMsg->ClassSkin == 32 )
; 1652 : //		{
; 1653 : //			lpMsg->ClassSkin++;
; 1654 : //		}
; 1655 : 		
; 1656 : 		pResult.Class = ((lpMsg->ClassSkin>>4)<<5)&0xE0; 
; 1657 : 		int changeup = (lpMsg->ClassSkin)&CHANGEUP_MASK;
; 1658 : 		pResult.Class |= (changeup<<4)&0x10;	
; 1659 : 		
; 1660 : #ifdef THIRD_CHANGEUP_SYSTEM_20070507	// 캐릭생성결과를 받았다.
; 1661 : 		pResult.Class |= ( changeup << 4 )&0x20;
; 1662 : #endif
; 1663 : 
; 1664 : 	#endif
; 1665 : #endif
; 1666 : 	
; 1667 : 
; 1668 : 
; 1669 : 
; 1670 : #ifdef DARKLORD_WORK
; 1671 : 	pResult.Level        = lpMsg->Level;

  000c2	8b 45 08	 mov	 eax, DWORD PTR _lpMsg$[ebp]
  000c5	66 8b 48 34	 mov	 cx, WORD PTR [eax+52]
  000c9	66 89 4d e0	 mov	 WORD PTR _pResult$[ebp+16], cx

; 1672 : #endif
; 1673 : 	memcpy(pResult.Name, lpMsg->Name, MAX_IDSTRING);

  000cd	6a 0a		 push	 10			; 0000000aH
  000cf	8b 45 08	 mov	 eax, DWORD PTR _lpMsg$[ebp]
  000d2	83 c0 10	 add	 eax, 16			; 00000010H
  000d5	50		 push	 eax
  000d6	8d 4d d5	 lea	 ecx, DWORD PTR _pResult$[ebp+5]
  000d9	51		 push	 ecx
  000da	e8 00 00 00 00	 call	 _memcpy
  000df	83 c4 0c	 add	 esp, 12			; 0000000cH

; 1674 : 	
; 1675 : 	if( pResult.Result == 0x01 ) // 성공이면 장비 착용

  000e2	0f b6 45 d4	 movzx	 eax, BYTE PTR _pResult$[ebp+4]
  000e6	83 f8 01	 cmp	 eax, 1
  000e9	75 15		 jne	 SHORT $LN3@JGCharacte

; 1676 : 	{
; 1677 : 		memcpy(pResult.Equipment, lpMsg->Equipment, 24);

  000eb	6a 18		 push	 24			; 00000018H
  000ed	8b 45 08	 mov	 eax, DWORD PTR _lpMsg$[ebp]
  000f0	83 c0 1c	 add	 eax, 28			; 0000001cH
  000f3	50		 push	 eax
  000f4	8d 4d e2	 lea	 ecx, DWORD PTR _pResult$[ebp+18]
  000f7	51		 push	 ecx
  000f8	e8 00 00 00 00	 call	 _memcpy
  000fd	83 c4 0c	 add	 esp, 12			; 0000000cH
$LN3@JGCharacte:

; 1678 : 	}
; 1679 : 
; 1680 : 	DataSend(aIndex, (LPBYTE)&pResult, pResult.h.size);

  00100	0f b6 45 d1	 movzx	 eax, BYTE PTR _pResult$[ebp+1]
  00104	50		 push	 eax
  00105	8d 4d d0	 lea	 ecx, DWORD PTR _pResult$[ebp]
  00108	51		 push	 ecx
  00109	8b 55 c0	 mov	 edx, DWORD PTR _aIndex$[ebp]
  0010c	52		 push	 edx
  0010d	e8 00 00 00 00	 call	 ?DataSend@@YAHHPAEK@Z	; DataSend
  00112	83 c4 0c	 add	 esp, 12			; 0000000cH
$LN4@JGCharacte:

; 1681 : }

  00115	5f		 pop	 edi
  00116	5e		 pop	 esi
  00117	5b		 pop	 ebx
  00118	8b 4d fc	 mov	 ecx, DWORD PTR __$ArrayPad$[ebp]
  0011b	33 cd		 xor	 ecx, ebp
  0011d	e8 00 00 00 00	 call	 @__security_check_cookie@4
  00122	8b e5		 mov	 esp, ebp
  00124	5d		 pop	 ebp
  00125	c3		 ret	 0
?JGCharacterCreateRequest@@YAXPAUSDHP_CREATECHARRESULT@@@Z ENDP ; JGCharacterCreateRequest
_TEXT	ENDS
; Function compile flags: /Odtp /ZI
; File C:\Mu Online\Mu-GS-Webzen-MC-10093\GameServer\DSProtocol.cpp
