; Listing generated by Microsoft (R) Optimizing Compiler Version 19.27.29111.0 

	TITLE	C:\Mu Online\Mu-GS-Webzen-MC-10093\GameServer\DynamicExperience.cpp
	.686P
	.XMM
	include listing.inc
	.model	flat

INCLUDELIB LIBCMT
INCLUDELIB OLDNAMES

PUBLIC	?__empty_global_delete@@YAXPAX@Z		; __empty_global_delete
PUBLIC	?__empty_global_delete@@YAXPAXI@Z		; __empty_global_delete
PUBLIC	??2@YAPAXIPAX@Z					; operator new
PUBLIC	?strstr@@YAPADQADQBD@Z				; strstr
PUBLIC	??0exception@std@@QAE@QBDH@Z			; std::exception::exception
PUBLIC	??0exception@std@@QAE@ABV01@@Z			; std::exception::exception
PUBLIC	??1exception@std@@UAE@XZ			; std::exception::~exception
PUBLIC	?what@exception@std@@UBEPBDXZ			; std::exception::what
PUBLIC	??_Gexception@std@@UAEPAXI@Z			; std::exception::`scalar deleting destructor'
PUBLIC	??0bad_alloc@std@@AAE@QBD@Z			; std::bad_alloc::bad_alloc
PUBLIC	??1bad_alloc@std@@UAE@XZ			; std::bad_alloc::~bad_alloc
PUBLIC	??0bad_alloc@std@@QAE@ABV01@@Z			; std::bad_alloc::bad_alloc
PUBLIC	??_Gbad_alloc@std@@UAEPAXI@Z			; std::bad_alloc::`scalar deleting destructor'
PUBLIC	??0bad_array_new_length@std@@QAE@XZ		; std::bad_array_new_length::bad_array_new_length
PUBLIC	??1bad_array_new_length@std@@UAE@XZ		; std::bad_array_new_length::~bad_array_new_length
PUBLIC	??0bad_array_new_length@std@@QAE@ABV01@@Z	; std::bad_array_new_length::bad_array_new_length
PUBLIC	??_Gbad_array_new_length@std@@UAEPAXI@Z		; std::bad_array_new_length::`scalar deleting destructor'
PUBLIC	?_Throw_bad_array_new_length@std@@YAXXZ		; std::_Throw_bad_array_new_length
PUBLIC	?max@?$numeric_limits@H@std@@SAHXZ		; std::numeric_limits<int>::max
PUBLIC	?_Allocate@_Default_allocate_traits@std@@SAPAXI@Z ; std::_Default_allocate_traits::_Allocate
PUBLIC	?_Adjust_manually_vector_aligned@std@@YAXAAPAXAAI@Z ; std::_Adjust_manually_vector_aligned
PUBLIC	?_Orphan_all@_Container_base0@std@@QAEXXZ	; std::_Container_base0::_Orphan_all
PUBLIC	?_Alloc_proxy@_Container_base0@std@@QAEXABU_Fake_allocator@2@@Z ; std::_Container_base0::_Alloc_proxy
PUBLIC	?_Adopt@_Iterator_base0@std@@QAEXPBX@Z		; std::_Iterator_base0::_Adopt
PUBLIC	?_loading@CDynamicExperience@@QAEXXZ		; CDynamicExperience::_loading
PUBLIC	?_checkCondition@CDynamicExperience@@QAEMPAVOBJECTSTRUCT@@@Z ; CDynamicExperience::_checkCondition
PUBLIC	?_getNewExperience@CDynamicExperience@@QAEKKM@Z	; CDynamicExperience::_getNewExperience
PUBLIC	??0?$allocator@VCDynamicExperienceData@@@std@@QAE@XZ ; std::allocator<CDynamicExperienceData>::allocator<CDynamicExperienceData>
PUBLIC	?deallocate@?$allocator@VCDynamicExperienceData@@@std@@QAEXQAVCDynamicExperienceData@@I@Z ; std::allocator<CDynamicExperienceData>::deallocate
PUBLIC	?allocate@?$allocator@VCDynamicExperienceData@@@std@@QAEPAVCDynamicExperienceData@@I@Z ; std::allocator<CDynamicExperienceData>::allocate
PUBLIC	?max_size@?$_Default_allocator_traits@V?$allocator@VCDynamicExperienceData@@@std@@@std@@SAIABV?$allocator@VCDynamicExperienceData@@@2@@Z ; std::_Default_allocator_traits<std::allocator<CDynamicExperienceData> >::max_size
PUBLIC	??0?$vector@VCDynamicExperienceData@@V?$allocator@VCDynamicExperienceData@@@std@@@std@@QAE@XZ ; std::vector<CDynamicExperienceData,std::allocator<CDynamicExperienceData> >::vector<CDynamicExperienceData,std::allocator<CDynamicExperienceData> >
PUBLIC	??1?$vector@VCDynamicExperienceData@@V?$allocator@VCDynamicExperienceData@@@std@@@std@@QAE@XZ ; std::vector<CDynamicExperienceData,std::allocator<CDynamicExperienceData> >::~vector<CDynamicExperienceData,std::allocator<CDynamicExperienceData> >
PUBLIC	?push_back@?$vector@VCDynamicExperienceData@@V?$allocator@VCDynamicExperienceData@@@std@@@std@@QAEXABVCDynamicExperienceData@@@Z ; std::vector<CDynamicExperienceData,std::allocator<CDynamicExperienceData> >::push_back
PUBLIC	?begin@?$vector@VCDynamicExperienceData@@V?$allocator@VCDynamicExperienceData@@@std@@@std@@QAE?AV?$_Vector_iterator@V?$_Vector_val@U?$_Simple_types@VCDynamicExperienceData@@@std@@@std@@@2@XZ ; std::vector<CDynamicExperienceData,std::allocator<CDynamicExperienceData> >::begin
PUBLIC	?end@?$vector@VCDynamicExperienceData@@V?$allocator@VCDynamicExperienceData@@@std@@@std@@QAE?AV?$_Vector_iterator@V?$_Vector_val@U?$_Simple_types@VCDynamicExperienceData@@@std@@@std@@@2@XZ ; std::vector<CDynamicExperienceData,std::allocator<CDynamicExperienceData> >::end
PUBLIC	?max_size@?$vector@VCDynamicExperienceData@@V?$allocator@VCDynamicExperienceData@@@std@@@std@@QBEIXZ ; std::vector<CDynamicExperienceData,std::allocator<CDynamicExperienceData> >::max_size
PUBLIC	?capacity@?$vector@VCDynamicExperienceData@@V?$allocator@VCDynamicExperienceData@@@std@@@std@@QBEIXZ ; std::vector<CDynamicExperienceData,std::allocator<CDynamicExperienceData> >::capacity
PUBLIC	?_Umove@?$vector@VCDynamicExperienceData@@V?$allocator@VCDynamicExperienceData@@@std@@@std@@AAEPAVCDynamicExperienceData@@PAV3@00@Z ; std::vector<CDynamicExperienceData,std::allocator<CDynamicExperienceData> >::_Umove
PUBLIC	?_Umove_if_noexcept1@?$vector@VCDynamicExperienceData@@V?$allocator@VCDynamicExperienceData@@@std@@@std@@AAEXPAVCDynamicExperienceData@@00U?$integral_constant@_N$00@2@@Z ; std::vector<CDynamicExperienceData,std::allocator<CDynamicExperienceData> >::_Umove_if_noexcept1
PUBLIC	?_Umove_if_noexcept@?$vector@VCDynamicExperienceData@@V?$allocator@VCDynamicExperienceData@@@std@@@std@@AAEXPAVCDynamicExperienceData@@00@Z ; std::vector<CDynamicExperienceData,std::allocator<CDynamicExperienceData> >::_Umove_if_noexcept
PUBLIC	?_Destroy@?$vector@VCDynamicExperienceData@@V?$allocator@VCDynamicExperienceData@@@std@@@std@@AAEXPAVCDynamicExperienceData@@0@Z ; std::vector<CDynamicExperienceData,std::allocator<CDynamicExperienceData> >::_Destroy
PUBLIC	?_Calculate_growth@?$vector@VCDynamicExperienceData@@V?$allocator@VCDynamicExperienceData@@@std@@@std@@ABEII@Z ; std::vector<CDynamicExperienceData,std::allocator<CDynamicExperienceData> >::_Calculate_growth
PUBLIC	?_Change_array@?$vector@VCDynamicExperienceData@@V?$allocator@VCDynamicExperienceData@@@std@@@std@@AAEXQAVCDynamicExperienceData@@II@Z ; std::vector<CDynamicExperienceData,std::allocator<CDynamicExperienceData> >::_Change_array
PUBLIC	?_Tidy@?$vector@VCDynamicExperienceData@@V?$allocator@VCDynamicExperienceData@@@std@@@std@@AAEXXZ ; std::vector<CDynamicExperienceData,std::allocator<CDynamicExperienceData> >::_Tidy
PUBLIC	?_Xlength@?$vector@VCDynamicExperienceData@@V?$allocator@VCDynamicExperienceData@@@std@@@std@@CAXXZ ; std::vector<CDynamicExperienceData,std::allocator<CDynamicExperienceData> >::_Xlength
PUBLIC	?_Orphan_range@?$vector@VCDynamicExperienceData@@V?$allocator@VCDynamicExperienceData@@@std@@@std@@ABEXPAVCDynamicExperienceData@@0@Z ; std::vector<CDynamicExperienceData,std::allocator<CDynamicExperienceData> >::_Orphan_range
PUBLIC	?_Getal@?$vector@VCDynamicExperienceData@@V?$allocator@VCDynamicExperienceData@@@std@@@std@@AAEAAV?$allocator@VCDynamicExperienceData@@@2@XZ ; std::vector<CDynamicExperienceData,std::allocator<CDynamicExperienceData> >::_Getal
PUBLIC	?_Getal@?$vector@VCDynamicExperienceData@@V?$allocator@VCDynamicExperienceData@@@std@@@std@@ABEABV?$allocator@VCDynamicExperienceData@@@2@XZ ; std::vector<CDynamicExperienceData,std::allocator<CDynamicExperienceData> >::_Getal
PUBLIC	??0?$_Vector_val@U?$_Simple_types@VCDynamicExperienceData@@@std@@@std@@QAE@XZ ; std::_Vector_val<std::_Simple_types<CDynamicExperienceData> >::_Vector_val<std::_Simple_types<CDynamicExperienceData> >
PUBLIC	?_Get_first@?$_Compressed_pair@V?$allocator@VCDynamicExperienceData@@@std@@V?$_Vector_val@U?$_Simple_types@VCDynamicExperienceData@@@std@@@2@$00@std@@QAEAAV?$allocator@VCDynamicExperienceData@@@2@XZ ; std::_Compressed_pair<std::allocator<CDynamicExperienceData>,std::_Vector_val<std::_Simple_types<CDynamicExperienceData> >,1>::_Get_first
PUBLIC	?_Get_first@?$_Compressed_pair@V?$allocator@VCDynamicExperienceData@@@std@@V?$_Vector_val@U?$_Simple_types@VCDynamicExperienceData@@@std@@@2@$00@std@@QBEABV?$allocator@VCDynamicExperienceData@@@2@XZ ; std::_Compressed_pair<std::allocator<CDynamicExperienceData>,std::_Vector_val<std::_Simple_types<CDynamicExperienceData> >,1>::_Get_first
PUBLIC	??0CDynamicExperience@@QAE@XZ			; CDynamicExperience::CDynamicExperience
PUBLIC	??1CDynamicExperience@@QAE@XZ			; CDynamicExperience::~CDynamicExperience
PUBLIC	??$min@I@std@@YAABIABI0@Z			; std::min<unsigned int>
PUBLIC	??$_Deallocate@$07$0A@@std@@YAXPAXI@Z		; std::_Deallocate<8,0>
PUBLIC	??$_Allocate@$07U_Default_allocate_traits@std@@$0A@@std@@YAPAXI@Z ; std::_Allocate<8,std::_Default_allocate_traits,0>
PUBLIC	??$_Allocate_manually_vector_aligned@U_Default_allocate_traits@std@@@std@@YAPAXI@Z ; std::_Allocate_manually_vector_aligned<std::_Default_allocate_traits>
PUBLIC	??0?$_Vector_const_iterator@V?$_Vector_val@U?$_Simple_types@VCDynamicExperienceData@@@std@@@std@@@std@@QAE@PAVCDynamicExperienceData@@PBU_Container_base0@1@@Z ; std::_Vector_const_iterator<std::_Vector_val<std::_Simple_types<CDynamicExperienceData> > >::_Vector_const_iterator<std::_Vector_val<std::_Simple_types<CDynamicExperienceData> > >
PUBLIC	??C?$_Vector_const_iterator@V?$_Vector_val@U?$_Simple_types@VCDynamicExperienceData@@@std@@@std@@@std@@QBEPBVCDynamicExperienceData@@XZ ; std::_Vector_const_iterator<std::_Vector_val<std::_Simple_types<CDynamicExperienceData> > >::operator->
PUBLIC	??E?$_Vector_const_iterator@V?$_Vector_val@U?$_Simple_types@VCDynamicExperienceData@@@std@@@std@@@std@@QAEAAV01@XZ ; std::_Vector_const_iterator<std::_Vector_val<std::_Simple_types<CDynamicExperienceData> > >::operator++
PUBLIC	??8?$_Vector_const_iterator@V?$_Vector_val@U?$_Simple_types@VCDynamicExperienceData@@@std@@@std@@@std@@QBE_NABV01@@Z ; std::_Vector_const_iterator<std::_Vector_val<std::_Simple_types<CDynamicExperienceData> > >::operator==
PUBLIC	??9?$_Vector_const_iterator@V?$_Vector_val@U?$_Simple_types@VCDynamicExperienceData@@@std@@@std@@@std@@QBE_NABV01@@Z ; std::_Vector_const_iterator<std::_Vector_val<std::_Simple_types<CDynamicExperienceData> > >::operator!=
PUBLIC	?_Compat@?$_Vector_const_iterator@V?$_Vector_val@U?$_Simple_types@VCDynamicExperienceData@@@std@@@std@@@std@@QBEXABV12@@Z ; std::_Vector_const_iterator<std::_Vector_val<std::_Simple_types<CDynamicExperienceData> > >::_Compat
PUBLIC	??C?$_Vector_iterator@V?$_Vector_val@U?$_Simple_types@VCDynamicExperienceData@@@std@@@std@@@std@@QBEPAVCDynamicExperienceData@@XZ ; std::_Vector_iterator<std::_Vector_val<std::_Simple_types<CDynamicExperienceData> > >::operator->
PUBLIC	??E?$_Vector_iterator@V?$_Vector_val@U?$_Simple_types@VCDynamicExperienceData@@@std@@@std@@@std@@QAE?AV01@H@Z ; std::_Vector_iterator<std::_Vector_val<std::_Simple_types<CDynamicExperienceData> > >::operator++
PUBLIC	??0?$_Vector_iterator@V?$_Vector_val@U?$_Simple_types@VCDynamicExperienceData@@@std@@@std@@@std@@QAE@PAVCDynamicExperienceData@@PBU_Container_base0@1@@Z ; std::_Vector_iterator<std::_Vector_val<std::_Simple_types<CDynamicExperienceData> > >::_Vector_iterator<std::_Vector_val<std::_Simple_types<CDynamicExperienceData> > >
PUBLIC	??$_Const_cast@$$CBVCDynamicExperienceData@@@std@@YA@PBVCDynamicExperienceData@@@Z ; std::_Const_cast<CDynamicExperienceData const >
PUBLIC	??$addressof@V?$_Vector_val@U?$_Simple_types@VCDynamicExperienceData@@@std@@@std@@@std@@YAPAV?$_Vector_val@U?$_Simple_types@VCDynamicExperienceData@@@std@@@0@AAV10@@Z ; std::addressof<std::_Vector_val<std::_Simple_types<CDynamicExperienceData> > >
PUBLIC	??$emplace_back@ABVCDynamicExperienceData@@@?$vector@VCDynamicExperienceData@@V?$allocator@VCDynamicExperienceData@@@std@@@std@@QAE@ABVCDynamicExperienceData@@@Z ; std::vector<CDynamicExperienceData,std::allocator<CDynamicExperienceData> >::emplace_back<CDynamicExperienceData const &>
PUBLIC	??$forward@ABVCDynamicExperienceData@@@std@@YAABVCDynamicExperienceData@@ABV1@@Z ; std::forward<CDynamicExperienceData const &>
PUBLIC	??$_Emplace_back_with_unused_capacity@ABVCDynamicExperienceData@@@?$vector@VCDynamicExperienceData@@V?$allocator@VCDynamicExperienceData@@@std@@@std@@AAE@ABVCDynamicExperienceData@@@Z ; std::vector<CDynamicExperienceData,std::allocator<CDynamicExperienceData> >::_Emplace_back_with_unused_capacity<CDynamicExperienceData const &>
PUBLIC	??$_Unfancy@VCDynamicExperienceData@@@std@@YAPAVCDynamicExperienceData@@PAV1@@Z ; std::_Unfancy<CDynamicExperienceData>
PUBLIC	??$construct@VCDynamicExperienceData@@ABV1@@?$_Default_allocator_traits@V?$allocator@VCDynamicExperienceData@@@std@@@std@@SAXAAV?$allocator@VCDynamicExperienceData@@@1@QAVCDynamicExperienceData@@ABV3@@Z ; std::_Default_allocator_traits<std::allocator<CDynamicExperienceData> >::construct<CDynamicExperienceData,CDynamicExperienceData const &>
PUBLIC	??$_Emplace_reallocate@ABVCDynamicExperienceData@@@?$vector@VCDynamicExperienceData@@V?$allocator@VCDynamicExperienceData@@@std@@@std@@QAEPAVCDynamicExperienceData@@QAV2@ABV2@@Z ; std::vector<CDynamicExperienceData,std::allocator<CDynamicExperienceData> >::_Emplace_reallocate<CDynamicExperienceData const &>
PUBLIC	??$?0$$V@?$_Compressed_pair@V?$allocator@VCDynamicExperienceData@@@std@@V?$_Vector_val@U?$_Simple_types@VCDynamicExperienceData@@@std@@@2@$00@std@@QAE@U_Zero_then_variadic_args_t@1@@Z ; std::_Compressed_pair<std::allocator<CDynamicExperienceData>,std::_Vector_val<std::_Simple_types<CDynamicExperienceData> >,1>::_Compressed_pair<std::allocator<CDynamicExperienceData>,std::_Vector_val<std::_Simple_types<CDynamicExperienceData> >,1><>
PUBLIC	??$_Destroy_range@V?$allocator@VCDynamicExperienceData@@@std@@@std@@YAXPAVCDynamicExperienceData@@QAV1@AAV?$allocator@VCDynamicExperienceData@@@0@@Z ; std::_Destroy_range<std::allocator<CDynamicExperienceData> >
PUBLIC	??$_Uninitialized_move@PAVCDynamicExperienceData@@V?$allocator@VCDynamicExperienceData@@@std@@@std@@YAPAVCDynamicExperienceData@@QAV1@0PAV1@AAV?$allocator@VCDynamicExperienceData@@@0@@Z ; std::_Uninitialized_move<CDynamicExperienceData *,std::allocator<CDynamicExperienceData> >
PUBLIC	??$_Get_size_of_n@$07@std@@YAII@Z		; std::_Get_size_of_n<8>
PUBLIC	??$_Get_unwrapped@ABQAVCDynamicExperienceData@@@std@@YA@ABQAVCDynamicExperienceData@@@Z ; std::_Get_unwrapped<CDynamicExperienceData * const &>
PUBLIC	??$_Copy_memmove@PAVCDynamicExperienceData@@PAV1@@std@@YAPAVCDynamicExperienceData@@PAV1@00@Z ; std::_Copy_memmove<CDynamicExperienceData *,CDynamicExperienceData *>
PUBLIC	??_7exception@std@@6B@				; std::exception::`vftable'
PUBLIC	??_C@_0BC@EOODALEL@Unknown?5exception@		; `string'
PUBLIC	??_7bad_alloc@std@@6B@				; std::bad_alloc::`vftable'
PUBLIC	??_7bad_array_new_length@std@@6B@		; std::bad_array_new_length::`vftable'
PUBLIC	??_C@_0BF@KINCDENJ@bad?5array?5new?5length@	; `string'
PUBLIC	__TI3?AVbad_array_new_length@std@@
PUBLIC	__CTA3?AVbad_array_new_length@std@@
PUBLIC	??_R0?AVbad_array_new_length@std@@@8		; std::bad_array_new_length `RTTI Type Descriptor'
PUBLIC	__CT??_R0?AVbad_array_new_length@std@@@8??0bad_array_new_length@std@@QAE@ABV01@@Z12
PUBLIC	??_R0?AVbad_alloc@std@@@8			; std::bad_alloc `RTTI Type Descriptor'
PUBLIC	__CT??_R0?AVbad_alloc@std@@@8??0bad_alloc@std@@QAE@ABV01@@Z12
PUBLIC	??_R0?AVexception@std@@@8			; std::exception `RTTI Type Descriptor'
PUBLIC	__CT??_R0?AVexception@std@@@8??0exception@std@@QAE@ABV01@@Z12
PUBLIC	?_dynamic_experience@@3VCDynamicExperience@@A	; _dynamic_experience
PUBLIC	??_R4exception@std@@6B@				; std::exception::`RTTI Complete Object Locator'
PUBLIC	??_R3exception@std@@8				; std::exception::`RTTI Class Hierarchy Descriptor'
PUBLIC	??_R2exception@std@@8				; std::exception::`RTTI Base Class Array'
PUBLIC	??_R1A@?0A@EA@exception@std@@8			; std::exception::`RTTI Base Class Descriptor at (0,-1,0,64)'
PUBLIC	??_R4bad_alloc@std@@6B@				; std::bad_alloc::`RTTI Complete Object Locator'
PUBLIC	??_R3bad_alloc@std@@8				; std::bad_alloc::`RTTI Class Hierarchy Descriptor'
PUBLIC	??_R2bad_alloc@std@@8				; std::bad_alloc::`RTTI Base Class Array'
PUBLIC	??_R1A@?0A@EA@bad_alloc@std@@8			; std::bad_alloc::`RTTI Base Class Descriptor at (0,-1,0,64)'
PUBLIC	??_R4bad_array_new_length@std@@6B@		; std::bad_array_new_length::`RTTI Complete Object Locator'
PUBLIC	??_R3bad_array_new_length@std@@8		; std::bad_array_new_length::`RTTI Class Hierarchy Descriptor'
PUBLIC	??_R2bad_array_new_length@std@@8		; std::bad_array_new_length::`RTTI Base Class Array'
PUBLIC	??_R1A@?0A@EA@bad_array_new_length@std@@8	; std::bad_array_new_length::`RTTI Base Class Descriptor at (0,-1,0,64)'
PUBLIC	??_C@_01KDCPPGHE@r@				; `string'
PUBLIC	??_C@_0BO@CEHHNHJM@?4?4?2data?2DynamicExperience?4cfg@ ; `string'
PUBLIC	??_C@_05NAOIJFC@Error@				; `string'
PUBLIC	??_C@_0CE@HADBHEOD@Error?5on?5load?5DynamicExperience@ ; `string'
PUBLIC	??_C@_03JBJLGPFL@end@				; `string'
PUBLIC	??_C@_0BA@FOIKENOD@vector?5too?5long@		; `string'
PUBLIC	__real@00000000
PUBLIC	__real@42c80000
PUBLIC	__xmm@41f00000000000000000000000000000
EXTRN	??2@YAPAXI@Z:PROC				; operator new
EXTRN	??3@YAXPAXI@Z:PROC				; operator delete
EXTRN	_atexit:PROC
EXTRN	___report_rangecheckfailure:PROC
EXTRN	__invalid_parameter_noinfo_noreturn:PROC
EXTRN	_isalpha:PROC
EXTRN	_isdigit:PROC
EXTRN	_isspace:PROC
EXTRN	_isalnum:PROC
EXTRN	_memmove:PROC
EXTRN	_strstr:PROC
EXTRN	__imp__ExitProcess@4:PROC
EXTRN	__imp__MessageBoxA@16:PROC
EXTRN	_fclose:PROC
EXTRN	_fgetc:PROC
EXTRN	_fopen:PROC
EXTRN	_getc:PROC
EXTRN	_ungetc:PROC
EXTRN	_atof:PROC
EXTRN	?_Xlength_error@std@@YAXPBD@Z:PROC		; std::_Xlength_error
EXTRN	___std_exception_copy:PROC
EXTRN	___std_exception_destroy:PROC
EXTRN	??_Eexception@std@@UAEPAXI@Z:PROC		; std::exception::`vector deleting destructor'
EXTRN	??_Ebad_alloc@std@@UAEPAXI@Z:PROC		; std::bad_alloc::`vector deleting destructor'
EXTRN	??_Ebad_array_new_length@std@@UAEPAXI@Z:PROC	; std::bad_array_new_length::`vector deleting destructor'
EXTRN	@__security_check_cookie@4:PROC
EXTRN	__CxxThrowException@8:PROC
EXTRN	___CxxFrameHandler3:PROC
EXTRN	__dtoui3:PROC
EXTRN	??_7type_info@@6B@:QWORD			; type_info::`vftable'
EXTRN	?gSettings@@3PAVCSettings@@A:DWORD		; gSettings
EXTRN	___security_cookie:DWORD
EXTRN	__fltused:DWORD
_BSS	SEGMENT
?_dynamic_experience@@3VCDynamicExperience@@A DB 0cH DUP (?) ; _dynamic_experience
?SMDFile@@3PAU_iobuf@@A DD 01H DUP (?)			; SMDFile
?TokenNumber@@3MA DD 01H DUP (?)			; TokenNumber
?TokenString@@3PADA DB 064H DUP (?)			; TokenString
?CurrentToken@@3W4SMDToken@@A DD 01H DUP (?)		; CurrentToken
_BSS	ENDS
CRT$XCU	SEGMENT
?_dynamic_experience$initializer$@@3P6AXXZA DD FLAT:??__E_dynamic_experience@@YAXXZ ; _dynamic_experience$initializer$
CRT$XCU	ENDS
;	COMDAT __xmm@41f00000000000000000000000000000
CONST	SEGMENT
__xmm@41f00000000000000000000000000000 DB 00H, 00H, 00H, 00H, 00H, 00H, 00H
	DB	00H, 00H, 00H, 00H, 00H, 00H, 00H, 0f0H, 'A'
CONST	ENDS
;	COMDAT __real@42c80000
CONST	SEGMENT
__real@42c80000 DD 042c80000r			; 100
CONST	ENDS
;	COMDAT __real@00000000
CONST	SEGMENT
__real@00000000 DD 000000000r			; 0
CONST	ENDS
;	COMDAT ??_C@_0BA@FOIKENOD@vector?5too?5long@
CONST	SEGMENT
??_C@_0BA@FOIKENOD@vector?5too?5long@ DB 'vector too long', 00H ; `string'
CONST	ENDS
;	COMDAT ??_C@_03JBJLGPFL@end@
CONST	SEGMENT
??_C@_03JBJLGPFL@end@ DB 'end', 00H			; `string'
CONST	ENDS
;	COMDAT ??_C@_0CE@HADBHEOD@Error?5on?5load?5DynamicExperience@
CONST	SEGMENT
??_C@_0CE@HADBHEOD@Error?5on?5load?5DynamicExperience@ DB 'Error on load '
	DB	'DynamicExperience.cfg', 00H			; `string'
CONST	ENDS
;	COMDAT ??_C@_05NAOIJFC@Error@
CONST	SEGMENT
??_C@_05NAOIJFC@Error@ DB 'Error', 00H			; `string'
CONST	ENDS
;	COMDAT ??_C@_0BO@CEHHNHJM@?4?4?2data?2DynamicExperience?4cfg@
CONST	SEGMENT
??_C@_0BO@CEHHNHJM@?4?4?2data?2DynamicExperience?4cfg@ DB '..\data\Dynami'
	DB	'cExperience.cfg', 00H			; `string'
CONST	ENDS
;	COMDAT ??_C@_01KDCPPGHE@r@
CONST	SEGMENT
??_C@_01KDCPPGHE@r@ DB 'r', 00H				; `string'
CONST	ENDS
;	COMDAT ??_R1A@?0A@EA@bad_array_new_length@std@@8
rdata$r	SEGMENT
??_R1A@?0A@EA@bad_array_new_length@std@@8 DD FLAT:??_R0?AVbad_array_new_length@std@@@8 ; std::bad_array_new_length::`RTTI Base Class Descriptor at (0,-1,0,64)'
	DD	02H
	DD	00H
	DD	0ffffffffH
	DD	00H
	DD	040H
	DD	FLAT:??_R3bad_array_new_length@std@@8
rdata$r	ENDS
;	COMDAT ??_R2bad_array_new_length@std@@8
rdata$r	SEGMENT
??_R2bad_array_new_length@std@@8 DD FLAT:??_R1A@?0A@EA@bad_array_new_length@std@@8 ; std::bad_array_new_length::`RTTI Base Class Array'
	DD	FLAT:??_R1A@?0A@EA@bad_alloc@std@@8
	DD	FLAT:??_R1A@?0A@EA@exception@std@@8
rdata$r	ENDS
;	COMDAT ??_R3bad_array_new_length@std@@8
rdata$r	SEGMENT
??_R3bad_array_new_length@std@@8 DD 00H			; std::bad_array_new_length::`RTTI Class Hierarchy Descriptor'
	DD	00H
	DD	03H
	DD	FLAT:??_R2bad_array_new_length@std@@8
rdata$r	ENDS
;	COMDAT ??_R4bad_array_new_length@std@@6B@
rdata$r	SEGMENT
??_R4bad_array_new_length@std@@6B@ DD 00H		; std::bad_array_new_length::`RTTI Complete Object Locator'
	DD	00H
	DD	00H
	DD	FLAT:??_R0?AVbad_array_new_length@std@@@8
	DD	FLAT:??_R3bad_array_new_length@std@@8
rdata$r	ENDS
;	COMDAT ??_R1A@?0A@EA@bad_alloc@std@@8
rdata$r	SEGMENT
??_R1A@?0A@EA@bad_alloc@std@@8 DD FLAT:??_R0?AVbad_alloc@std@@@8 ; std::bad_alloc::`RTTI Base Class Descriptor at (0,-1,0,64)'
	DD	01H
	DD	00H
	DD	0ffffffffH
	DD	00H
	DD	040H
	DD	FLAT:??_R3bad_alloc@std@@8
rdata$r	ENDS
;	COMDAT ??_R2bad_alloc@std@@8
rdata$r	SEGMENT
??_R2bad_alloc@std@@8 DD FLAT:??_R1A@?0A@EA@bad_alloc@std@@8 ; std::bad_alloc::`RTTI Base Class Array'
	DD	FLAT:??_R1A@?0A@EA@exception@std@@8
rdata$r	ENDS
;	COMDAT ??_R3bad_alloc@std@@8
rdata$r	SEGMENT
??_R3bad_alloc@std@@8 DD 00H				; std::bad_alloc::`RTTI Class Hierarchy Descriptor'
	DD	00H
	DD	02H
	DD	FLAT:??_R2bad_alloc@std@@8
rdata$r	ENDS
;	COMDAT ??_R4bad_alloc@std@@6B@
rdata$r	SEGMENT
??_R4bad_alloc@std@@6B@ DD 00H				; std::bad_alloc::`RTTI Complete Object Locator'
	DD	00H
	DD	00H
	DD	FLAT:??_R0?AVbad_alloc@std@@@8
	DD	FLAT:??_R3bad_alloc@std@@8
rdata$r	ENDS
;	COMDAT ??_R1A@?0A@EA@exception@std@@8
rdata$r	SEGMENT
??_R1A@?0A@EA@exception@std@@8 DD FLAT:??_R0?AVexception@std@@@8 ; std::exception::`RTTI Base Class Descriptor at (0,-1,0,64)'
	DD	00H
	DD	00H
	DD	0ffffffffH
	DD	00H
	DD	040H
	DD	FLAT:??_R3exception@std@@8
rdata$r	ENDS
;	COMDAT ??_R2exception@std@@8
rdata$r	SEGMENT
??_R2exception@std@@8 DD FLAT:??_R1A@?0A@EA@exception@std@@8 ; std::exception::`RTTI Base Class Array'
rdata$r	ENDS
;	COMDAT ??_R3exception@std@@8
rdata$r	SEGMENT
??_R3exception@std@@8 DD 00H				; std::exception::`RTTI Class Hierarchy Descriptor'
	DD	00H
	DD	01H
	DD	FLAT:??_R2exception@std@@8
rdata$r	ENDS
;	COMDAT ??_R4exception@std@@6B@
rdata$r	SEGMENT
??_R4exception@std@@6B@ DD 00H				; std::exception::`RTTI Complete Object Locator'
	DD	00H
	DD	00H
	DD	FLAT:??_R0?AVexception@std@@@8
	DD	FLAT:??_R3exception@std@@8
rdata$r	ENDS
;	COMDAT __CT??_R0?AVexception@std@@@8??0exception@std@@QAE@ABV01@@Z12
xdata$x	SEGMENT
__CT??_R0?AVexception@std@@@8??0exception@std@@QAE@ABV01@@Z12 DD 00H
	DD	FLAT:??_R0?AVexception@std@@@8
	DD	00H
	DD	0ffffffffH
	ORG $+4
	DD	0cH
	DD	FLAT:??0exception@std@@QAE@ABV01@@Z
xdata$x	ENDS
;	COMDAT ??_R0?AVexception@std@@@8
data$r	SEGMENT
??_R0?AVexception@std@@@8 DD FLAT:??_7type_info@@6B@	; std::exception `RTTI Type Descriptor'
	DD	00H
	DB	'.?AVexception@std@@', 00H
data$r	ENDS
;	COMDAT __CT??_R0?AVbad_alloc@std@@@8??0bad_alloc@std@@QAE@ABV01@@Z12
xdata$x	SEGMENT
__CT??_R0?AVbad_alloc@std@@@8??0bad_alloc@std@@QAE@ABV01@@Z12 DD 010H
	DD	FLAT:??_R0?AVbad_alloc@std@@@8
	DD	00H
	DD	0ffffffffH
	ORG $+4
	DD	0cH
	DD	FLAT:??0bad_alloc@std@@QAE@ABV01@@Z
xdata$x	ENDS
;	COMDAT ??_R0?AVbad_alloc@std@@@8
data$r	SEGMENT
??_R0?AVbad_alloc@std@@@8 DD FLAT:??_7type_info@@6B@	; std::bad_alloc `RTTI Type Descriptor'
	DD	00H
	DB	'.?AVbad_alloc@std@@', 00H
data$r	ENDS
;	COMDAT __CT??_R0?AVbad_array_new_length@std@@@8??0bad_array_new_length@std@@QAE@ABV01@@Z12
xdata$x	SEGMENT
__CT??_R0?AVbad_array_new_length@std@@@8??0bad_array_new_length@std@@QAE@ABV01@@Z12 DD 00H
	DD	FLAT:??_R0?AVbad_array_new_length@std@@@8
	DD	00H
	DD	0ffffffffH
	ORG $+4
	DD	0cH
	DD	FLAT:??0bad_array_new_length@std@@QAE@ABV01@@Z
xdata$x	ENDS
;	COMDAT ??_R0?AVbad_array_new_length@std@@@8
data$r	SEGMENT
??_R0?AVbad_array_new_length@std@@@8 DD FLAT:??_7type_info@@6B@ ; std::bad_array_new_length `RTTI Type Descriptor'
	DD	00H
	DB	'.?AVbad_array_new_length@std@@', 00H
data$r	ENDS
;	COMDAT __CTA3?AVbad_array_new_length@std@@
xdata$x	SEGMENT
__CTA3?AVbad_array_new_length@std@@ DD 03H
	DD	FLAT:__CT??_R0?AVbad_array_new_length@std@@@8??0bad_array_new_length@std@@QAE@ABV01@@Z12
	DD	FLAT:__CT??_R0?AVbad_alloc@std@@@8??0bad_alloc@std@@QAE@ABV01@@Z12
	DD	FLAT:__CT??_R0?AVexception@std@@@8??0exception@std@@QAE@ABV01@@Z12
xdata$x	ENDS
;	COMDAT __TI3?AVbad_array_new_length@std@@
xdata$x	SEGMENT
__TI3?AVbad_array_new_length@std@@ DD 00H
	DD	FLAT:??1bad_array_new_length@std@@UAE@XZ
	DD	00H
	DD	FLAT:__CTA3?AVbad_array_new_length@std@@
xdata$x	ENDS
;	COMDAT ??_C@_0BF@KINCDENJ@bad?5array?5new?5length@
CONST	SEGMENT
??_C@_0BF@KINCDENJ@bad?5array?5new?5length@ DB 'bad array new length', 00H ; `string'
CONST	ENDS
;	COMDAT ??_7bad_array_new_length@std@@6B@
CONST	SEGMENT
??_7bad_array_new_length@std@@6B@ DD FLAT:??_R4bad_array_new_length@std@@6B@ ; std::bad_array_new_length::`vftable'
	DD	FLAT:??_Ebad_array_new_length@std@@UAEPAXI@Z
	DD	FLAT:?what@exception@std@@UBEPBDXZ
CONST	ENDS
;	COMDAT ??_7bad_alloc@std@@6B@
CONST	SEGMENT
??_7bad_alloc@std@@6B@ DD FLAT:??_R4bad_alloc@std@@6B@	; std::bad_alloc::`vftable'
	DD	FLAT:??_Ebad_alloc@std@@UAEPAXI@Z
	DD	FLAT:?what@exception@std@@UBEPBDXZ
CONST	ENDS
;	COMDAT ??_C@_0BC@EOODALEL@Unknown?5exception@
CONST	SEGMENT
??_C@_0BC@EOODALEL@Unknown?5exception@ DB 'Unknown exception', 00H ; `string'
CONST	ENDS
;	COMDAT ??_7exception@std@@6B@
CONST	SEGMENT
??_7exception@std@@6B@ DD FLAT:??_R4exception@std@@6B@	; std::exception::`vftable'
	DD	FLAT:??_Eexception@std@@UAEPAXI@Z
	DD	FLAT:?what@exception@std@@UBEPBDXZ
CONST	ENDS
;	COMDAT xdata$x
xdata$x	SEGMENT
__catchsym$??$_Emplace_reallocate@ABVCDynamicExperienceData@@@?$vector@VCDynamicExperienceData@@V?$allocator@VCDynamicExperienceData@@@std@@@std@@QAEPAVCDynamicExperienceData@@QAV2@ABV2@@Z$2 DD 040H
	DD	00H
	DD	00H
	DD	FLAT:__catch$??$_Emplace_reallocate@ABVCDynamicExperienceData@@@?$vector@VCDynamicExperienceData@@V?$allocator@VCDynamicExperienceData@@@std@@@std@@QAEPAVCDynamicExperienceData@@QAV2@ABV2@@Z$0
__unwindtable$??$_Emplace_reallocate@ABVCDynamicExperienceData@@@?$vector@VCDynamicExperienceData@@V?$allocator@VCDynamicExperienceData@@@std@@@std@@QAEPAVCDynamicExperienceData@@QAV2@ABV2@@Z DD 0ffffffffH
	DD	00H
	DD	0ffffffffH
	DD	00H
__tryblocktable$??$_Emplace_reallocate@ABVCDynamicExperienceData@@@?$vector@VCDynamicExperienceData@@V?$allocator@VCDynamicExperienceData@@@std@@@std@@QAEPAVCDynamicExperienceData@@QAV2@ABV2@@Z DD 00H
	DD	00H
	DD	01H
	DD	01H
	DD	FLAT:__catchsym$??$_Emplace_reallocate@ABVCDynamicExperienceData@@@?$vector@VCDynamicExperienceData@@V?$allocator@VCDynamicExperienceData@@@std@@@std@@QAEPAVCDynamicExperienceData@@QAV2@ABV2@@Z$2
__ehfuncinfo$??$_Emplace_reallocate@ABVCDynamicExperienceData@@@?$vector@VCDynamicExperienceData@@V?$allocator@VCDynamicExperienceData@@@std@@@std@@QAEPAVCDynamicExperienceData@@QAV2@ABV2@@Z DD 019930522H
	DD	02H
	DD	FLAT:__unwindtable$??$_Emplace_reallocate@ABVCDynamicExperienceData@@@?$vector@VCDynamicExperienceData@@V?$allocator@VCDynamicExperienceData@@@std@@@std@@QAEPAVCDynamicExperienceData@@QAV2@ABV2@@Z
	DD	01H
	DD	FLAT:__tryblocktable$??$_Emplace_reallocate@ABVCDynamicExperienceData@@@?$vector@VCDynamicExperienceData@@V?$allocator@VCDynamicExperienceData@@@std@@@std@@QAEPAVCDynamicExperienceData@@QAV2@ABV2@@Z
	DD	2 DUP(00H)
	DD	00H
	DD	01H
xdata$x	ENDS
;	COMDAT xdata$x
xdata$x	SEGMENT
__ehfuncinfo$??$_Deallocate@$07$0A@@std@@YAXPAXI@Z DD 019930522H
	DD	00H
	DD	00H
	DD	2 DUP(00H)
	DD	2 DUP(00H)
	DD	00H
	DD	05H
xdata$x	ENDS
;	COMDAT xdata$x
xdata$x	SEGMENT
__ehfuncinfo$?_Tidy@?$vector@VCDynamicExperienceData@@V?$allocator@VCDynamicExperienceData@@@std@@@std@@AAEXXZ DD 019930522H
	DD	00H
	DD	00H
	DD	2 DUP(00H)
	DD	2 DUP(00H)
	DD	00H
	DD	05H
xdata$x	ENDS
; Function compile flags: /Odtp /ZI
; File C:\Program Files (x86)\Microsoft Visual Studio\2019\Community\VC\Tools\MSVC\14.27.29110\include\xutility
;	COMDAT ??$_Copy_memmove@PAVCDynamicExperienceData@@PAV1@@std@@YAPAVCDynamicExperienceData@@PAV1@00@Z
_TEXT	SEGMENT
__Count$ = -16						; size = 4
__Dest_ch$ = -12					; size = 4
__Last_ch$ = -8						; size = 4
__First_ch$ = -4					; size = 4
__First$ = 8						; size = 4
__Last$ = 12						; size = 4
__Dest$ = 16						; size = 4
??$_Copy_memmove@PAVCDynamicExperienceData@@PAV1@@std@@YAPAVCDynamicExperienceData@@PAV1@00@Z PROC ; std::_Copy_memmove<CDynamicExperienceData *,CDynamicExperienceData *>, COMDAT

; 4113 : _OutIt _Copy_memmove(_InIt _First, _InIt _Last, _OutIt _Dest) {

  00000	55		 push	 ebp
  00001	8b ec		 mov	 ebp, esp
  00003	83 ec 50	 sub	 esp, 80			; 00000050H
  00006	53		 push	 ebx
  00007	56		 push	 esi
  00008	57		 push	 edi

; 4114 :     const char* const _First_ch = const_cast<const char*>(reinterpret_cast<const volatile char*>(_First));

  00009	8b 45 08	 mov	 eax, DWORD PTR __First$[ebp]
  0000c	89 45 fc	 mov	 DWORD PTR __First_ch$[ebp], eax

; 4115 :     const char* const _Last_ch  = const_cast<const char*>(reinterpret_cast<const volatile char*>(_Last));

  0000f	8b 45 0c	 mov	 eax, DWORD PTR __Last$[ebp]
  00012	89 45 f8	 mov	 DWORD PTR __Last_ch$[ebp], eax

; 4116 :     char* const _Dest_ch        = const_cast<char*>(reinterpret_cast<volatile char*>(_Dest));

  00015	8b 45 10	 mov	 eax, DWORD PTR __Dest$[ebp]
  00018	89 45 f4	 mov	 DWORD PTR __Dest_ch$[ebp], eax

; 4117 :     const auto _Count           = static_cast<size_t>(_Last_ch - _First_ch);

  0001b	8b 45 f8	 mov	 eax, DWORD PTR __Last_ch$[ebp]
  0001e	2b 45 fc	 sub	 eax, DWORD PTR __First_ch$[ebp]
  00021	89 45 f0	 mov	 DWORD PTR __Count$[ebp], eax

; 4118 :     _CSTD memmove(_Dest_ch, _First_ch, _Count);

  00024	8b 45 f0	 mov	 eax, DWORD PTR __Count$[ebp]
  00027	50		 push	 eax
  00028	8b 4d fc	 mov	 ecx, DWORD PTR __First_ch$[ebp]
  0002b	51		 push	 ecx
  0002c	8b 55 f4	 mov	 edx, DWORD PTR __Dest_ch$[ebp]
  0002f	52		 push	 edx
  00030	e8 00 00 00 00	 call	 _memmove
  00035	83 c4 0c	 add	 esp, 12			; 0000000cH

; 4119 :     return reinterpret_cast<_OutIt>(_Dest_ch + _Count);

  00038	8b 45 f4	 mov	 eax, DWORD PTR __Dest_ch$[ebp]
  0003b	03 45 f0	 add	 eax, DWORD PTR __Count$[ebp]

; 4120 : }

  0003e	5f		 pop	 edi
  0003f	5e		 pop	 esi
  00040	5b		 pop	 ebx
  00041	8b e5		 mov	 esp, ebp
  00043	5d		 pop	 ebp
  00044	c3		 ret	 0
??$_Copy_memmove@PAVCDynamicExperienceData@@PAV1@@std@@YAPAVCDynamicExperienceData@@PAV1@00@Z ENDP ; std::_Copy_memmove<CDynamicExperienceData *,CDynamicExperienceData *>
_TEXT	ENDS
; Function compile flags: /Odtp /ZI
; File C:\Program Files (x86)\Microsoft Visual Studio\2019\Community\VC\Tools\MSVC\14.27.29110\include\xutility
;	COMDAT ??$_Get_unwrapped@ABQAVCDynamicExperienceData@@@std@@YA@ABQAVCDynamicExperienceData@@@Z
_TEXT	SEGMENT
__It$ = 8						; size = 4
??$_Get_unwrapped@ABQAVCDynamicExperienceData@@@std@@YA@ABQAVCDynamicExperienceData@@@Z PROC ; std::_Get_unwrapped<CDynamicExperienceData * const &>, COMDAT

; 1229 : _NODISCARD constexpr decltype(auto) _Get_unwrapped(_Iter&& _It) {

  00000	55		 push	 ebp
  00001	8b ec		 mov	 ebp, esp
  00003	83 ec 40	 sub	 esp, 64			; 00000040H
  00006	53		 push	 ebx
  00007	56		 push	 esi
  00008	57		 push	 edi

; 1230 :     // unwrap an iterator previously subjected to _Adl_verify_range or otherwise validated
; 1231 :     if constexpr (is_pointer_v<decay_t<_Iter>>) { // special-case pointers and arrays
; 1232 :         return _It + 0;

  00009	8b 45 08	 mov	 eax, DWORD PTR __It$[ebp]
  0000c	8b 00		 mov	 eax, DWORD PTR [eax]

; 1233 :     } else if constexpr (_Unwrappable_v<_Iter>) {
; 1234 :         return static_cast<_Iter&&>(_It)._Unwrapped();
; 1235 :     } else {
; 1236 :         return static_cast<_Iter&&>(_It);
; 1237 :     }
; 1238 : }

  0000e	5f		 pop	 edi
  0000f	5e		 pop	 esi
  00010	5b		 pop	 ebx
  00011	8b e5		 mov	 esp, ebp
  00013	5d		 pop	 ebp
  00014	c3		 ret	 0
??$_Get_unwrapped@ABQAVCDynamicExperienceData@@@std@@YA@ABQAVCDynamicExperienceData@@@Z ENDP ; std::_Get_unwrapped<CDynamicExperienceData * const &>
_TEXT	ENDS
; Function compile flags: /Odtp /ZI
; File C:\Program Files (x86)\Microsoft Visual Studio\2019\Community\VC\Tools\MSVC\14.27.29110\include\xmemory
;	COMDAT ??$_Get_size_of_n@$07@std@@YAII@Z
_TEXT	SEGMENT
__Max_possible$1 = -8					; size = 4
__Overflow_is_possible$ = -1				; size = 1
__Count$ = 8						; size = 4
??$_Get_size_of_n@$07@std@@YAII@Z PROC			; std::_Get_size_of_n<8>, COMDAT

; 55   : _NODISCARD constexpr size_t _Get_size_of_n(const size_t _Count) {

  00000	55		 push	 ebp
  00001	8b ec		 mov	 ebp, esp
  00003	83 ec 48	 sub	 esp, 72			; 00000048H
  00006	53		 push	 ebx
  00007	56		 push	 esi
  00008	57		 push	 edi

; 56   :     constexpr bool _Overflow_is_possible = _Ty_size > 1;

  00009	c6 45 ff 01	 mov	 BYTE PTR __Overflow_is_possible$[ebp], 1

; 57   : 
; 58   :     if _CONSTEXPR_IF (_Overflow_is_possible) {
; 59   :         constexpr size_t _Max_possible = static_cast<size_t>(-1) / _Ty_size;

  0000d	c7 45 f8 ff ff
	ff 1f		 mov	 DWORD PTR __Max_possible$1[ebp], 536870911 ; 1fffffffH

; 60   :         if (_Count > _Max_possible) {

  00014	81 7d 08 ff ff
	ff 1f		 cmp	 DWORD PTR __Count$[ebp], 536870911 ; 1fffffffH
  0001b	76 05		 jbe	 SHORT $LN2@Get_size_o

; 61   :             _Throw_bad_array_new_length(); // multiply overflow

  0001d	e8 00 00 00 00	 call	 ?_Throw_bad_array_new_length@std@@YAXXZ ; std::_Throw_bad_array_new_length
$LN2@Get_size_o:

; 62   :         }
; 63   :     }
; 64   : 
; 65   :     return _Count * _Ty_size;

  00022	8b 45 08	 mov	 eax, DWORD PTR __Count$[ebp]
  00025	c1 e0 03	 shl	 eax, 3
$LN3@Get_size_o:

; 66   : }

  00028	5f		 pop	 edi
  00029	5e		 pop	 esi
  0002a	5b		 pop	 ebx
  0002b	8b e5		 mov	 esp, ebp
  0002d	5d		 pop	 ebp
  0002e	c3		 ret	 0
??$_Get_size_of_n@$07@std@@YAII@Z ENDP			; std::_Get_size_of_n<8>
_TEXT	ENDS
; Function compile flags: /Odtp /ZI
; File C:\Program Files (x86)\Microsoft Visual Studio\2019\Community\VC\Tools\MSVC\14.27.29110\include\xmemory
;	COMDAT ??$_Uninitialized_move@PAVCDynamicExperienceData@@V?$allocator@VCDynamicExperienceData@@@std@@@std@@YAPAVCDynamicExperienceData@@QAV1@0PAV1@AAV?$allocator@VCDynamicExperienceData@@@0@@Z
_TEXT	SEGMENT
__ULast$ = -8						; size = 4
__UFirst$ = -4						; size = 4
__First$ = 8						; size = 4
__Last$ = 12						; size = 4
__Dest$ = 16						; size = 4
__Al$ = 20						; size = 4
??$_Uninitialized_move@PAVCDynamicExperienceData@@V?$allocator@VCDynamicExperienceData@@@std@@@std@@YAPAVCDynamicExperienceData@@QAV1@0PAV1@AAV?$allocator@VCDynamicExperienceData@@@0@@Z PROC ; std::_Uninitialized_move<CDynamicExperienceData *,std::allocator<CDynamicExperienceData> >, COMDAT

; 1647 :     const _InIt _First, const _InIt _Last, _Alloc_ptr_t<_Alloc> _Dest, _Alloc& _Al) {

  00000	55		 push	 ebp
  00001	8b ec		 mov	 ebp, esp
  00003	83 ec 48	 sub	 esp, 72			; 00000048H
  00006	53		 push	 ebx
  00007	56		 push	 esi
  00008	57		 push	 edi

; 1648 :     // move [_First, _Last) to raw _Dest, using _Al
; 1649 :     // note: only called internally from elsewhere in the STL
; 1650 :     using _Ptrval     = typename _Alloc::value_type*;
; 1651 :     auto _UFirst      = _Get_unwrapped(_First);

  00009	8d 45 08	 lea	 eax, DWORD PTR __First$[ebp]
  0000c	50		 push	 eax
  0000d	e8 00 00 00 00	 call	 ??$_Get_unwrapped@ABQAVCDynamicExperienceData@@@std@@YA@ABQAVCDynamicExperienceData@@@Z ; std::_Get_unwrapped<CDynamicExperienceData * const &>
  00012	83 c4 04	 add	 esp, 4
  00015	89 45 fc	 mov	 DWORD PTR __UFirst$[ebp], eax

; 1652 :     const auto _ULast = _Get_unwrapped(_Last);

  00018	8d 45 0c	 lea	 eax, DWORD PTR __Last$[ebp]
  0001b	50		 push	 eax
  0001c	e8 00 00 00 00	 call	 ??$_Get_unwrapped@ABQAVCDynamicExperienceData@@@std@@YA@ABQAVCDynamicExperienceData@@@Z ; std::_Get_unwrapped<CDynamicExperienceData * const &>
  00021	83 c4 04	 add	 esp, 4
  00024	89 45 f8	 mov	 DWORD PTR __ULast$[ebp], eax

; 1653 :     if constexpr (conjunction_v<bool_constant<_Ptr_move_cat<decltype(_UFirst), _Ptrval>::_Really_trivial>,
; 1654 :                       _Uses_default_construct<_Alloc, _Ptrval, decltype(_STD move(*_UFirst))>>) {
; 1655 :         _Copy_memmove(_UFirst, _ULast, _Unfancy(_Dest));

  00027	8b 45 10	 mov	 eax, DWORD PTR __Dest$[ebp]
  0002a	50		 push	 eax
  0002b	e8 00 00 00 00	 call	 ??$_Unfancy@VCDynamicExperienceData@@@std@@YAPAVCDynamicExperienceData@@PAV1@@Z ; std::_Unfancy<CDynamicExperienceData>
  00030	83 c4 04	 add	 esp, 4
  00033	50		 push	 eax
  00034	8b 4d f8	 mov	 ecx, DWORD PTR __ULast$[ebp]
  00037	51		 push	 ecx
  00038	8b 55 fc	 mov	 edx, DWORD PTR __UFirst$[ebp]
  0003b	52		 push	 edx
  0003c	e8 00 00 00 00	 call	 ??$_Copy_memmove@PAVCDynamicExperienceData@@PAV1@@std@@YAPAVCDynamicExperienceData@@PAV1@00@Z ; std::_Copy_memmove<CDynamicExperienceData *,CDynamicExperienceData *>
  00041	83 c4 0c	 add	 esp, 12			; 0000000cH

; 1656 :         return _Dest + (_ULast - _UFirst);

  00044	8b 45 f8	 mov	 eax, DWORD PTR __ULast$[ebp]
  00047	2b 45 fc	 sub	 eax, DWORD PTR __UFirst$[ebp]
  0004a	c1 f8 03	 sar	 eax, 3
  0004d	8b 4d 10	 mov	 ecx, DWORD PTR __Dest$[ebp]
  00050	8d 04 c1	 lea	 eax, DWORD PTR [ecx+eax*8]

; 1657 :     } else {
; 1658 :         _Uninitialized_backout_al<_Alloc> _Backout{_Dest, _Al};
; 1659 :         for (; _UFirst != _ULast; ++_UFirst) {
; 1660 :             _Backout._Emplace_back(_STD move(*_UFirst));
; 1661 :         }
; 1662 : 
; 1663 :         return _Backout._Release();
; 1664 :     }
; 1665 : }

  00053	5f		 pop	 edi
  00054	5e		 pop	 esi
  00055	5b		 pop	 ebx
  00056	8b e5		 mov	 esp, ebp
  00058	5d		 pop	 ebp
  00059	c3		 ret	 0
??$_Uninitialized_move@PAVCDynamicExperienceData@@V?$allocator@VCDynamicExperienceData@@@std@@@std@@YAPAVCDynamicExperienceData@@QAV1@0PAV1@AAV?$allocator@VCDynamicExperienceData@@@0@@Z ENDP ; std::_Uninitialized_move<CDynamicExperienceData *,std::allocator<CDynamicExperienceData> >
_TEXT	ENDS
; Function compile flags: /Odtp /ZI
; File C:\Program Files (x86)\Microsoft Visual Studio\2019\Community\VC\Tools\MSVC\14.27.29110\include\xmemory
;	COMDAT ??$_Destroy_range@V?$allocator@VCDynamicExperienceData@@@std@@@std@@YAXPAVCDynamicExperienceData@@QAV1@AAV?$allocator@VCDynamicExperienceData@@@0@@Z
_TEXT	SEGMENT
__First$ = 8						; size = 4
__Last$ = 12						; size = 4
__Al$ = 16						; size = 4
??$_Destroy_range@V?$allocator@VCDynamicExperienceData@@@std@@@std@@YAXPAVCDynamicExperienceData@@QAV1@AAV?$allocator@VCDynamicExperienceData@@@0@@Z PROC ; std::_Destroy_range<std::allocator<CDynamicExperienceData> >, COMDAT

; 955  : void _Destroy_range(_Alloc_ptr_t<_Alloc> _First, const _Alloc_ptr_t<_Alloc> _Last, _Alloc& _Al) noexcept {

  00000	55		 push	 ebp
  00001	8b ec		 mov	 ebp, esp
  00003	83 ec 40	 sub	 esp, 64			; 00000040H
  00006	53		 push	 ebx
  00007	56		 push	 esi
  00008	57		 push	 edi

; 956  :     // note that this is an optimization for debug mode codegen; in release mode the BE removes all of this
; 957  :     using _Ty = typename _Alloc::value_type;
; 958  :     if _CONSTEXPR_IF (!conjunction_v<is_trivially_destructible<_Ty>, _Uses_default_destroy<_Alloc, _Ty*>>) {
; 959  :         for (; _First != _Last; ++_First) {
; 960  :             allocator_traits<_Alloc>::destroy(_Al, _Unfancy(_First));
; 961  :         }
; 962  :     }
; 963  : }

  00009	5f		 pop	 edi
  0000a	5e		 pop	 esi
  0000b	5b		 pop	 ebx
  0000c	8b e5		 mov	 esp, ebp
  0000e	5d		 pop	 ebp
  0000f	c3		 ret	 0
??$_Destroy_range@V?$allocator@VCDynamicExperienceData@@@std@@@std@@YAXPAVCDynamicExperienceData@@QAV1@AAV?$allocator@VCDynamicExperienceData@@@0@@Z ENDP ; std::_Destroy_range<std::allocator<CDynamicExperienceData> >
_TEXT	ENDS
; Function compile flags: /Odtp /ZI
; File C:\Program Files (x86)\Microsoft Visual Studio\2019\Community\VC\Tools\MSVC\14.27.29110\include\xmemory
;	COMDAT ??$?0$$V@?$_Compressed_pair@V?$allocator@VCDynamicExperienceData@@@std@@V?$_Vector_val@U?$_Simple_types@VCDynamicExperienceData@@@std@@@2@$00@std@@QAE@U_Zero_then_variadic_args_t@1@@Z
_TEXT	SEGMENT
_this$ = -4						; size = 4
___formal$ = 8						; size = 1
??$?0$$V@?$_Compressed_pair@V?$allocator@VCDynamicExperienceData@@@std@@V?$_Vector_val@U?$_Simple_types@VCDynamicExperienceData@@@std@@@2@$00@std@@QAE@U_Zero_then_variadic_args_t@1@@Z PROC ; std::_Compressed_pair<std::allocator<CDynamicExperienceData>,std::_Vector_val<std::_Simple_types<CDynamicExperienceData> >,1>::_Compressed_pair<std::allocator<CDynamicExperienceData>,std::_Vector_val<std::_Simple_types<CDynamicExperienceData> >,1><>, COMDAT
; _this$ = ecx

; 1336 :         : _Ty1(), _Myval2(_STD forward<_Other2>(_Val2)...) {}

  00000	55		 push	 ebp
  00001	8b ec		 mov	 ebp, esp
  00003	83 ec 44	 sub	 esp, 68			; 00000044H
  00006	53		 push	 ebx
  00007	56		 push	 esi
  00008	57		 push	 edi
  00009	89 4d fc	 mov	 DWORD PTR _this$[ebp], ecx
  0000c	8b 4d fc	 mov	 ecx, DWORD PTR _this$[ebp]
  0000f	e8 00 00 00 00	 call	 ??0?$allocator@VCDynamicExperienceData@@@std@@QAE@XZ ; std::allocator<CDynamicExperienceData>::allocator<CDynamicExperienceData>
  00014	8b 4d fc	 mov	 ecx, DWORD PTR _this$[ebp]
  00017	e8 00 00 00 00	 call	 ??0?$_Vector_val@U?$_Simple_types@VCDynamicExperienceData@@@std@@@std@@QAE@XZ ; std::_Vector_val<std::_Simple_types<CDynamicExperienceData> >::_Vector_val<std::_Simple_types<CDynamicExperienceData> >
  0001c	8b 45 fc	 mov	 eax, DWORD PTR _this$[ebp]
  0001f	5f		 pop	 edi
  00020	5e		 pop	 esi
  00021	5b		 pop	 ebx
  00022	8b e5		 mov	 esp, ebp
  00024	5d		 pop	 ebp
  00025	c2 04 00	 ret	 4
??$?0$$V@?$_Compressed_pair@V?$allocator@VCDynamicExperienceData@@@std@@V?$_Vector_val@U?$_Simple_types@VCDynamicExperienceData@@@std@@@2@$00@std@@QAE@U_Zero_then_variadic_args_t@1@@Z ENDP ; std::_Compressed_pair<std::allocator<CDynamicExperienceData>,std::_Vector_val<std::_Simple_types<CDynamicExperienceData> >,1>::_Compressed_pair<std::allocator<CDynamicExperienceData>,std::_Vector_val<std::_Simple_types<CDynamicExperienceData> >,1><>
_TEXT	ENDS
; Function compile flags: /Odtp /ZI
; File C:\Program Files (x86)\Microsoft Visual Studio\2019\Community\VC\Tools\MSVC\14.27.29110\include\vector
;	COMDAT ??$_Emplace_reallocate@ABVCDynamicExperienceData@@@?$vector@VCDynamicExperienceData@@V?$allocator@VCDynamicExperienceData@@@std@@@std@@QAEPAVCDynamicExperienceData@@QAV2@ABV2@@Z
_TEXT	SEGMENT
__Constructed_first$ = -64				; size = 4
__Constructed_last$ = -60				; size = 4
__Newvec$ = -56						; size = 4
__Newcapacity$ = -52					; size = 4
__Newsize$ = -48					; size = 4
__Oldsize$ = -44					; size = 4
__Whereoff$ = -40					; size = 4
__Mylast$ = -36						; size = 4
__Myfirst$ = -32					; size = 4
__My_data$ = -28					; size = 4
__Al$ = -24						; size = 4
_this$ = -20						; size = 4
__$EHRec$ = -16						; size = 16
__Whereptr$ = 8						; size = 4
_<_Val_0>$ = 12						; size = 4
??$_Emplace_reallocate@ABVCDynamicExperienceData@@@?$vector@VCDynamicExperienceData@@V?$allocator@VCDynamicExperienceData@@@std@@@std@@QAEPAVCDynamicExperienceData@@QAV2@ABV2@@Z PROC ; std::vector<CDynamicExperienceData,std::allocator<CDynamicExperienceData> >::_Emplace_reallocate<CDynamicExperienceData const &>, COMDAT
; _this$ = ecx

; 725  :     pointer _Emplace_reallocate(const pointer _Whereptr, _Valty&&... _Val) {

  00000	55		 push	 ebp
  00001	8b ec		 mov	 ebp, esp
  00003	6a ff		 push	 -1
  00005	68 00 00 00 00	 push	 __ehhandler$??$_Emplace_reallocate@ABVCDynamicExperienceData@@@?$vector@VCDynamicExperienceData@@V?$allocator@VCDynamicExperienceData@@@std@@@std@@QAEPAVCDynamicExperienceData@@QAV2@ABV2@@Z
  0000a	64 a1 00 00 00
	00		 mov	 eax, DWORD PTR fs:0
  00010	50		 push	 eax
  00011	51		 push	 ecx
  00012	83 ec 70	 sub	 esp, 112		; 00000070H
  00015	53		 push	 ebx
  00016	56		 push	 esi
  00017	57		 push	 edi
  00018	a1 00 00 00 00	 mov	 eax, DWORD PTR ___security_cookie
  0001d	33 c5		 xor	 eax, ebp
  0001f	50		 push	 eax
  00020	8d 45 f4	 lea	 eax, DWORD PTR __$EHRec$[ebp+4]
  00023	64 a3 00 00 00
	00		 mov	 DWORD PTR fs:0, eax
  00029	89 65 f0	 mov	 DWORD PTR __$EHRec$[ebp], esp
  0002c	89 4d ec	 mov	 DWORD PTR _this$[ebp], ecx

; 726  :         // reallocate and insert by perfectly forwarding _Val at _Whereptr
; 727  :         _Alty& _Al        = _Getal();

  0002f	8b 4d ec	 mov	 ecx, DWORD PTR _this$[ebp]
  00032	e8 00 00 00 00	 call	 ?_Getal@?$vector@VCDynamicExperienceData@@V?$allocator@VCDynamicExperienceData@@@std@@@std@@AAEAAV?$allocator@VCDynamicExperienceData@@@2@XZ ; std::vector<CDynamicExperienceData,std::allocator<CDynamicExperienceData> >::_Getal
  00037	89 45 e8	 mov	 DWORD PTR __Al$[ebp], eax

; 728  :         auto& _My_data    = _Mypair._Myval2;

  0003a	8b 45 ec	 mov	 eax, DWORD PTR _this$[ebp]
  0003d	89 45 e4	 mov	 DWORD PTR __My_data$[ebp], eax

; 729  :         pointer& _Myfirst = _My_data._Myfirst;

  00040	8b 45 e4	 mov	 eax, DWORD PTR __My_data$[ebp]
  00043	89 45 e0	 mov	 DWORD PTR __Myfirst$[ebp], eax

; 730  :         pointer& _Mylast  = _My_data._Mylast;

  00046	8b 45 e4	 mov	 eax, DWORD PTR __My_data$[ebp]
  00049	83 c0 04	 add	 eax, 4
  0004c	89 45 dc	 mov	 DWORD PTR __Mylast$[ebp], eax

; 731  : 
; 732  :         _STL_INTERNAL_CHECK(_Mylast == _My_data._Myend); // check that we have no unused capacity
; 733  : 
; 734  :         const auto _Whereoff = static_cast<size_type>(_Whereptr - _Myfirst);

  0004f	8b 45 e0	 mov	 eax, DWORD PTR __Myfirst$[ebp]
  00052	8b 4d 08	 mov	 ecx, DWORD PTR __Whereptr$[ebp]
  00055	2b 08		 sub	 ecx, DWORD PTR [eax]
  00057	c1 f9 03	 sar	 ecx, 3
  0005a	89 4d d8	 mov	 DWORD PTR __Whereoff$[ebp], ecx

; 735  :         const auto _Oldsize  = static_cast<size_type>(_Mylast - _Myfirst);

  0005d	8b 45 dc	 mov	 eax, DWORD PTR __Mylast$[ebp]
  00060	8b 4d e0	 mov	 ecx, DWORD PTR __Myfirst$[ebp]
  00063	8b 10		 mov	 edx, DWORD PTR [eax]
  00065	2b 11		 sub	 edx, DWORD PTR [ecx]
  00067	c1 fa 03	 sar	 edx, 3
  0006a	89 55 d4	 mov	 DWORD PTR __Oldsize$[ebp], edx

; 736  : 
; 737  :         if (_Oldsize == max_size()) {

  0006d	8b 4d ec	 mov	 ecx, DWORD PTR _this$[ebp]
  00070	e8 00 00 00 00	 call	 ?max_size@?$vector@VCDynamicExperienceData@@V?$allocator@VCDynamicExperienceData@@@std@@@std@@QBEIXZ ; std::vector<CDynamicExperienceData,std::allocator<CDynamicExperienceData> >::max_size
  00075	39 45 d4	 cmp	 DWORD PTR __Oldsize$[ebp], eax
  00078	75 05		 jne	 SHORT $LN2@Emplace_re

; 738  :             _Xlength();

  0007a	e8 00 00 00 00	 call	 ?_Xlength@?$vector@VCDynamicExperienceData@@V?$allocator@VCDynamicExperienceData@@@std@@@std@@CAXXZ ; std::vector<CDynamicExperienceData,std::allocator<CDynamicExperienceData> >::_Xlength
$LN2@Emplace_re:

; 739  :         }
; 740  : 
; 741  :         const size_type _Newsize     = _Oldsize + 1;

  0007f	8b 45 d4	 mov	 eax, DWORD PTR __Oldsize$[ebp]
  00082	83 c0 01	 add	 eax, 1
  00085	89 45 d0	 mov	 DWORD PTR __Newsize$[ebp], eax

; 742  :         const size_type _Newcapacity = _Calculate_growth(_Newsize);

  00088	8b 45 d0	 mov	 eax, DWORD PTR __Newsize$[ebp]
  0008b	50		 push	 eax
  0008c	8b 4d ec	 mov	 ecx, DWORD PTR _this$[ebp]
  0008f	e8 00 00 00 00	 call	 ?_Calculate_growth@?$vector@VCDynamicExperienceData@@V?$allocator@VCDynamicExperienceData@@@std@@@std@@ABEII@Z ; std::vector<CDynamicExperienceData,std::allocator<CDynamicExperienceData> >::_Calculate_growth
  00094	89 45 cc	 mov	 DWORD PTR __Newcapacity$[ebp], eax

; 743  : 
; 744  :         const pointer _Newvec           = _Al.allocate(_Newcapacity);

  00097	8b 45 cc	 mov	 eax, DWORD PTR __Newcapacity$[ebp]
  0009a	50		 push	 eax
  0009b	8b 4d e8	 mov	 ecx, DWORD PTR __Al$[ebp]
  0009e	e8 00 00 00 00	 call	 ?allocate@?$allocator@VCDynamicExperienceData@@@std@@QAEPAVCDynamicExperienceData@@I@Z ; std::allocator<CDynamicExperienceData>::allocate
  000a3	89 45 c8	 mov	 DWORD PTR __Newvec$[ebp], eax

; 745  :         const pointer _Constructed_last = _Newvec + _Whereoff + 1;

  000a6	8b 45 d8	 mov	 eax, DWORD PTR __Whereoff$[ebp]
  000a9	8b 4d c8	 mov	 ecx, DWORD PTR __Newvec$[ebp]
  000ac	8d 54 c1 08	 lea	 edx, DWORD PTR [ecx+eax*8+8]
  000b0	89 55 c4	 mov	 DWORD PTR __Constructed_last$[ebp], edx

; 746  :         pointer _Constructed_first      = _Constructed_last;

  000b3	8b 45 c4	 mov	 eax, DWORD PTR __Constructed_last$[ebp]
  000b6	89 45 c0	 mov	 DWORD PTR __Constructed_first$[ebp], eax

; 747  : 
; 748  :         _TRY_BEGIN

  000b9	c7 45 fc 00 00
	00 00		 mov	 DWORD PTR __$EHRec$[ebp+12], 0

; 749  :         _Alty_traits::construct(_Al, _Unfancy(_Newvec + _Whereoff), _STD forward<_Valty>(_Val)...);

  000c0	8b 45 0c	 mov	 eax, DWORD PTR _<_Val_0>$[ebp]
  000c3	50		 push	 eax
  000c4	e8 00 00 00 00	 call	 ??$forward@ABVCDynamicExperienceData@@@std@@YAABVCDynamicExperienceData@@ABV1@@Z ; std::forward<CDynamicExperienceData const &>
  000c9	83 c4 04	 add	 esp, 4
  000cc	50		 push	 eax
  000cd	8b 4d d8	 mov	 ecx, DWORD PTR __Whereoff$[ebp]
  000d0	8b 55 c8	 mov	 edx, DWORD PTR __Newvec$[ebp]
  000d3	8d 04 ca	 lea	 eax, DWORD PTR [edx+ecx*8]
  000d6	50		 push	 eax
  000d7	e8 00 00 00 00	 call	 ??$_Unfancy@VCDynamicExperienceData@@@std@@YAPAVCDynamicExperienceData@@PAV1@@Z ; std::_Unfancy<CDynamicExperienceData>
  000dc	83 c4 04	 add	 esp, 4
  000df	50		 push	 eax
  000e0	8b 4d e8	 mov	 ecx, DWORD PTR __Al$[ebp]
  000e3	51		 push	 ecx
  000e4	e8 00 00 00 00	 call	 ??$construct@VCDynamicExperienceData@@ABV1@@?$_Default_allocator_traits@V?$allocator@VCDynamicExperienceData@@@std@@@std@@SAXAAV?$allocator@VCDynamicExperienceData@@@1@QAVCDynamicExperienceData@@ABV3@@Z ; std::_Default_allocator_traits<std::allocator<CDynamicExperienceData> >::construct<CDynamicExperienceData,CDynamicExperienceData const &>
  000e9	83 c4 0c	 add	 esp, 12			; 0000000cH

; 750  :         _Constructed_first = _Newvec + _Whereoff;

  000ec	8b 45 d8	 mov	 eax, DWORD PTR __Whereoff$[ebp]
  000ef	8b 4d c8	 mov	 ecx, DWORD PTR __Newvec$[ebp]
  000f2	8d 14 c1	 lea	 edx, DWORD PTR [ecx+eax*8]
  000f5	89 55 c0	 mov	 DWORD PTR __Constructed_first$[ebp], edx

; 751  : 
; 752  :         if (_Whereptr == _Mylast) { // at back, provide strong guarantee

  000f8	8b 45 dc	 mov	 eax, DWORD PTR __Mylast$[ebp]
  000fb	8b 4d 08	 mov	 ecx, DWORD PTR __Whereptr$[ebp]
  000fe	3b 08		 cmp	 ecx, DWORD PTR [eax]
  00100	75 1a		 jne	 SHORT $LN4@Emplace_re

; 753  :             _Umove_if_noexcept(_Myfirst, _Mylast, _Newvec);

  00102	8b 45 c8	 mov	 eax, DWORD PTR __Newvec$[ebp]
  00105	50		 push	 eax
  00106	8b 4d dc	 mov	 ecx, DWORD PTR __Mylast$[ebp]
  00109	8b 11		 mov	 edx, DWORD PTR [ecx]
  0010b	52		 push	 edx
  0010c	8b 45 e0	 mov	 eax, DWORD PTR __Myfirst$[ebp]
  0010f	8b 08		 mov	 ecx, DWORD PTR [eax]
  00111	51		 push	 ecx
  00112	8b 4d ec	 mov	 ecx, DWORD PTR _this$[ebp]
  00115	e8 00 00 00 00	 call	 ?_Umove_if_noexcept@?$vector@VCDynamicExperienceData@@V?$allocator@VCDynamicExperienceData@@@std@@@std@@AAEXPAVCDynamicExperienceData@@00@Z ; std::vector<CDynamicExperienceData,std::allocator<CDynamicExperienceData> >::_Umove_if_noexcept

; 754  :         } else { // provide basic guarantee

  0011a	eb 39		 jmp	 SHORT $LN5@Emplace_re
$LN4@Emplace_re:

; 755  :             _Umove(_Myfirst, _Whereptr, _Newvec);

  0011c	8b 45 c8	 mov	 eax, DWORD PTR __Newvec$[ebp]
  0011f	50		 push	 eax
  00120	8b 4d 08	 mov	 ecx, DWORD PTR __Whereptr$[ebp]
  00123	51		 push	 ecx
  00124	8b 55 e0	 mov	 edx, DWORD PTR __Myfirst$[ebp]
  00127	8b 02		 mov	 eax, DWORD PTR [edx]
  00129	50		 push	 eax
  0012a	8b 4d ec	 mov	 ecx, DWORD PTR _this$[ebp]
  0012d	e8 00 00 00 00	 call	 ?_Umove@?$vector@VCDynamicExperienceData@@V?$allocator@VCDynamicExperienceData@@@std@@@std@@AAEPAVCDynamicExperienceData@@PAV3@00@Z ; std::vector<CDynamicExperienceData,std::allocator<CDynamicExperienceData> >::_Umove

; 756  :             _Constructed_first = _Newvec;

  00132	8b 45 c8	 mov	 eax, DWORD PTR __Newvec$[ebp]
  00135	89 45 c0	 mov	 DWORD PTR __Constructed_first$[ebp], eax

; 757  :             _Umove(_Whereptr, _Mylast, _Newvec + _Whereoff + 1);

  00138	8b 45 d8	 mov	 eax, DWORD PTR __Whereoff$[ebp]
  0013b	8b 4d c8	 mov	 ecx, DWORD PTR __Newvec$[ebp]
  0013e	8d 54 c1 08	 lea	 edx, DWORD PTR [ecx+eax*8+8]
  00142	52		 push	 edx
  00143	8b 45 dc	 mov	 eax, DWORD PTR __Mylast$[ebp]
  00146	8b 08		 mov	 ecx, DWORD PTR [eax]
  00148	51		 push	 ecx
  00149	8b 55 08	 mov	 edx, DWORD PTR __Whereptr$[ebp]
  0014c	52		 push	 edx
  0014d	8b 4d ec	 mov	 ecx, DWORD PTR _this$[ebp]
  00150	e8 00 00 00 00	 call	 ?_Umove@?$vector@VCDynamicExperienceData@@V?$allocator@VCDynamicExperienceData@@@std@@@std@@AAEPAVCDynamicExperienceData@@PAV3@00@Z ; std::vector<CDynamicExperienceData,std::allocator<CDynamicExperienceData> >::_Umove
$LN5@Emplace_re:
  00155	eb 2f		 jmp	 SHORT $LN7@Emplace_re
__catch$??$_Emplace_reallocate@ABVCDynamicExperienceData@@@?$vector@VCDynamicExperienceData@@V?$allocator@VCDynamicExperienceData@@@std@@@std@@QAEPAVCDynamicExperienceData@@QAV2@ABV2@@Z$0:

; 758  :         }
; 759  :         _CATCH_ALL
; 760  :         _Destroy(_Constructed_first, _Constructed_last);

  00157	8b 45 c4	 mov	 eax, DWORD PTR __Constructed_last$[ebp]
  0015a	50		 push	 eax
  0015b	8b 4d c0	 mov	 ecx, DWORD PTR __Constructed_first$[ebp]
  0015e	51		 push	 ecx
  0015f	8b 4d ec	 mov	 ecx, DWORD PTR _this$[ebp]
  00162	e8 00 00 00 00	 call	 ?_Destroy@?$vector@VCDynamicExperienceData@@V?$allocator@VCDynamicExperienceData@@@std@@@std@@AAEXPAVCDynamicExperienceData@@0@Z ; std::vector<CDynamicExperienceData,std::allocator<CDynamicExperienceData> >::_Destroy

; 761  :         _Al.deallocate(_Newvec, _Newcapacity);

  00167	8b 45 cc	 mov	 eax, DWORD PTR __Newcapacity$[ebp]
  0016a	50		 push	 eax
  0016b	8b 4d c8	 mov	 ecx, DWORD PTR __Newvec$[ebp]
  0016e	51		 push	 ecx
  0016f	8b 4d e8	 mov	 ecx, DWORD PTR __Al$[ebp]
  00172	e8 00 00 00 00	 call	 ?deallocate@?$allocator@VCDynamicExperienceData@@@std@@QAEXQAVCDynamicExperienceData@@I@Z ; std::allocator<CDynamicExperienceData>::deallocate

; 762  :         _RERAISE;

  00177	6a 00		 push	 0
  00179	6a 00		 push	 0
  0017b	e8 00 00 00 00	 call	 __CxxThrowException@8

; 763  :         _CATCH_END

  00180	b8 00 00 00 00	 mov	 eax, $LN10@Emplace_re
  00185	c3		 ret	 0
$LN7@Emplace_re:
  00186	c7 45 fc ff ff
	ff ff		 mov	 DWORD PTR __$EHRec$[ebp+12], -1
  0018d	eb 07		 jmp	 SHORT __tryend$??$_Emplace_reallocate@ABVCDynamicExperienceData@@@?$vector@VCDynamicExperienceData@@V?$allocator@VCDynamicExperienceData@@@std@@@std@@QAEPAVCDynamicExperienceData@@QAV2@ABV2@@Z$1
$LN10@Emplace_re:
  0018f	c7 45 fc ff ff
	ff ff		 mov	 DWORD PTR __$EHRec$[ebp+12], -1
__tryend$??$_Emplace_reallocate@ABVCDynamicExperienceData@@@?$vector@VCDynamicExperienceData@@V?$allocator@VCDynamicExperienceData@@@std@@@std@@QAEPAVCDynamicExperienceData@@QAV2@ABV2@@Z$1:

; 764  : 
; 765  :         _Change_array(_Newvec, _Newsize, _Newcapacity);

  00196	8b 45 cc	 mov	 eax, DWORD PTR __Newcapacity$[ebp]
  00199	50		 push	 eax
  0019a	8b 4d d0	 mov	 ecx, DWORD PTR __Newsize$[ebp]
  0019d	51		 push	 ecx
  0019e	8b 55 c8	 mov	 edx, DWORD PTR __Newvec$[ebp]
  001a1	52		 push	 edx
  001a2	8b 4d ec	 mov	 ecx, DWORD PTR _this$[ebp]
  001a5	e8 00 00 00 00	 call	 ?_Change_array@?$vector@VCDynamicExperienceData@@V?$allocator@VCDynamicExperienceData@@@std@@@std@@AAEXQAVCDynamicExperienceData@@II@Z ; std::vector<CDynamicExperienceData,std::allocator<CDynamicExperienceData> >::_Change_array

; 766  :         return _Newvec + _Whereoff;

  001aa	8b 45 d8	 mov	 eax, DWORD PTR __Whereoff$[ebp]
  001ad	8b 4d c8	 mov	 ecx, DWORD PTR __Newvec$[ebp]
  001b0	8d 04 c1	 lea	 eax, DWORD PTR [ecx+eax*8]
$LN6@Emplace_re:

; 767  :     }

  001b3	8b 4d f4	 mov	 ecx, DWORD PTR __$EHRec$[ebp+4]
  001b6	64 89 0d 00 00
	00 00		 mov	 DWORD PTR fs:0, ecx
  001bd	59		 pop	 ecx
  001be	5f		 pop	 edi
  001bf	5e		 pop	 esi
  001c0	5b		 pop	 ebx
  001c1	8b e5		 mov	 esp, ebp
  001c3	5d		 pop	 ebp
  001c4	c2 08 00	 ret	 8
  001c7	cc		 int	 3
  001c8	cc		 int	 3
  001c9	cc		 int	 3
  001ca	cc		 int	 3
  001cb	cc		 int	 3
_TEXT	ENDS
;	COMDAT text$x
text$x	SEGMENT
__ehhandler$??$_Emplace_reallocate@ABVCDynamicExperienceData@@@?$vector@VCDynamicExperienceData@@V?$allocator@VCDynamicExperienceData@@@std@@@std@@QAEPAVCDynamicExperienceData@@QAV2@ABV2@@Z:
  00000	90		 npad	 1
  00001	90		 npad	 1
  00002	8b 54 24 08	 mov	 edx, DWORD PTR [esp+8]
  00006	8d 42 0c	 lea	 eax, DWORD PTR [edx+12]
  00009	8b 8a 7c ff ff
	ff		 mov	 ecx, DWORD PTR [edx-132]
  0000f	33 c8		 xor	 ecx, eax
  00011	e8 00 00 00 00	 call	 @__security_check_cookie@4
  00016	b8 00 00 00 00	 mov	 eax, OFFSET __ehfuncinfo$??$_Emplace_reallocate@ABVCDynamicExperienceData@@@?$vector@VCDynamicExperienceData@@V?$allocator@VCDynamicExperienceData@@@std@@@std@@QAEPAVCDynamicExperienceData@@QAV2@ABV2@@Z
  0001b	e9 00 00 00 00	 jmp	 ___CxxFrameHandler3
text$x	ENDS
??$_Emplace_reallocate@ABVCDynamicExperienceData@@@?$vector@VCDynamicExperienceData@@V?$allocator@VCDynamicExperienceData@@@std@@@std@@QAEPAVCDynamicExperienceData@@QAV2@ABV2@@Z ENDP ; std::vector<CDynamicExperienceData,std::allocator<CDynamicExperienceData> >::_Emplace_reallocate<CDynamicExperienceData const &>
; Function compile flags: /Odtp /ZI
; File C:\Program Files (x86)\Microsoft Visual Studio\2019\Community\VC\Tools\MSVC\14.27.29110\include\xmemory
;	COMDAT ??$construct@VCDynamicExperienceData@@ABV1@@?$_Default_allocator_traits@V?$allocator@VCDynamicExperienceData@@@std@@@std@@SAXAAV?$allocator@VCDynamicExperienceData@@@1@QAVCDynamicExperienceData@@ABV3@@Z
_TEXT	SEGMENT
$T1 = -68						; size = 4
___formal$ = 8						; size = 4
__Ptr$ = 12						; size = 4
_<_Args_0>$ = 16					; size = 4
??$construct@VCDynamicExperienceData@@ABV1@@?$_Default_allocator_traits@V?$allocator@VCDynamicExperienceData@@@std@@@std@@SAXAAV?$allocator@VCDynamicExperienceData@@@1@QAVCDynamicExperienceData@@ABV3@@Z PROC ; std::_Default_allocator_traits<std::allocator<CDynamicExperienceData> >::construct<CDynamicExperienceData,CDynamicExperienceData const &>, COMDAT

; 693  :     static void construct(_Alloc&, _Objty* const _Ptr, _Types&&... _Args) {

  00000	55		 push	 ebp
  00001	8b ec		 mov	 ebp, esp
  00003	83 ec 44	 sub	 esp, 68			; 00000044H
  00006	53		 push	 ebx
  00007	56		 push	 esi
  00008	57		 push	 edi

; 694  :         ::new (const_cast<void*>(static_cast<const volatile void*>(_Ptr))) _Objty(_STD forward<_Types>(_Args)...);

  00009	8b 45 0c	 mov	 eax, DWORD PTR __Ptr$[ebp]
  0000c	50		 push	 eax
  0000d	6a 08		 push	 8
  0000f	e8 00 00 00 00	 call	 ??2@YAPAXIPAX@Z		; operator new
  00014	83 c4 08	 add	 esp, 8
  00017	89 45 bc	 mov	 DWORD PTR $T1[ebp], eax
  0001a	8b 4d 10	 mov	 ecx, DWORD PTR _<_Args_0>$[ebp]
  0001d	51		 push	 ecx
  0001e	e8 00 00 00 00	 call	 ??$forward@ABVCDynamicExperienceData@@@std@@YAABVCDynamicExperienceData@@ABV1@@Z ; std::forward<CDynamicExperienceData const &>
  00023	83 c4 04	 add	 esp, 4
  00026	8b 10		 mov	 edx, DWORD PTR [eax]
  00028	8b 40 04	 mov	 eax, DWORD PTR [eax+4]
  0002b	8b 4d bc	 mov	 ecx, DWORD PTR $T1[ebp]
  0002e	89 11		 mov	 DWORD PTR [ecx], edx
  00030	89 41 04	 mov	 DWORD PTR [ecx+4], eax

; 695  :     }

  00033	5f		 pop	 edi
  00034	5e		 pop	 esi
  00035	5b		 pop	 ebx
  00036	8b e5		 mov	 esp, ebp
  00038	5d		 pop	 ebp
  00039	c3		 ret	 0
??$construct@VCDynamicExperienceData@@ABV1@@?$_Default_allocator_traits@V?$allocator@VCDynamicExperienceData@@@std@@@std@@SAXAAV?$allocator@VCDynamicExperienceData@@@1@QAVCDynamicExperienceData@@ABV3@@Z ENDP ; std::_Default_allocator_traits<std::allocator<CDynamicExperienceData> >::construct<CDynamicExperienceData,CDynamicExperienceData const &>
_TEXT	ENDS
; Function compile flags: /Odtp /ZI
; File C:\Program Files (x86)\Microsoft Visual Studio\2019\Community\VC\Tools\MSVC\14.27.29110\include\xstddef
;	COMDAT ??$_Unfancy@VCDynamicExperienceData@@@std@@YAPAVCDynamicExperienceData@@PAV1@@Z
_TEXT	SEGMENT
__Ptr$ = 8						; size = 4
??$_Unfancy@VCDynamicExperienceData@@@std@@YAPAVCDynamicExperienceData@@PAV1@@Z PROC ; std::_Unfancy<CDynamicExperienceData>, COMDAT

; 288  : _NODISCARD constexpr _Ty* _Unfancy(_Ty* _Ptr) noexcept { // do nothing for plain pointers

  00000	55		 push	 ebp
  00001	8b ec		 mov	 ebp, esp
  00003	83 ec 40	 sub	 esp, 64			; 00000040H
  00006	53		 push	 ebx
  00007	56		 push	 esi
  00008	57		 push	 edi

; 289  :     return _Ptr;

  00009	8b 45 08	 mov	 eax, DWORD PTR __Ptr$[ebp]

; 290  : }

  0000c	5f		 pop	 edi
  0000d	5e		 pop	 esi
  0000e	5b		 pop	 ebx
  0000f	8b e5		 mov	 esp, ebp
  00011	5d		 pop	 ebp
  00012	c3		 ret	 0
??$_Unfancy@VCDynamicExperienceData@@@std@@YAPAVCDynamicExperienceData@@PAV1@@Z ENDP ; std::_Unfancy<CDynamicExperienceData>
_TEXT	ENDS
; Function compile flags: /Odtp /ZI
; File C:\Program Files (x86)\Microsoft Visual Studio\2019\Community\VC\Tools\MSVC\14.27.29110\include\vector
;	COMDAT ??$_Emplace_back_with_unused_capacity@ABVCDynamicExperienceData@@@?$vector@VCDynamicExperienceData@@V?$allocator@VCDynamicExperienceData@@@std@@@std@@AAE@ABVCDynamicExperienceData@@@Z
_TEXT	SEGMENT
__Result$ = -16						; size = 4
__Mylast$ = -12						; size = 4
__My_data$ = -8						; size = 4
_this$ = -4						; size = 4
_<_Val_0>$ = 8						; size = 4
??$_Emplace_back_with_unused_capacity@ABVCDynamicExperienceData@@@?$vector@VCDynamicExperienceData@@V?$allocator@VCDynamicExperienceData@@@std@@@std@@AAE@ABVCDynamicExperienceData@@@Z PROC ; std::vector<CDynamicExperienceData,std::allocator<CDynamicExperienceData> >::_Emplace_back_with_unused_capacity<CDynamicExperienceData const &>, COMDAT
; _this$ = ecx

; 682  :     decltype(auto) _Emplace_back_with_unused_capacity(_Valty&&... _Val) {

  00000	55		 push	 ebp
  00001	8b ec		 mov	 ebp, esp
  00003	83 ec 50	 sub	 esp, 80			; 00000050H
  00006	53		 push	 ebx
  00007	56		 push	 esi
  00008	57		 push	 edi
  00009	89 4d fc	 mov	 DWORD PTR _this$[ebp], ecx

; 683  :         // insert by perfectly forwarding into element at end, provide strong guarantee
; 684  :         auto& _My_data   = _Mypair._Myval2;

  0000c	8b 45 fc	 mov	 eax, DWORD PTR _this$[ebp]
  0000f	89 45 f8	 mov	 DWORD PTR __My_data$[ebp], eax

; 685  :         pointer& _Mylast = _My_data._Mylast;

  00012	8b 45 f8	 mov	 eax, DWORD PTR __My_data$[ebp]
  00015	83 c0 04	 add	 eax, 4
  00018	89 45 f4	 mov	 DWORD PTR __Mylast$[ebp], eax

; 686  :         _STL_INTERNAL_CHECK(_Mylast != _My_data._Myend); // check that we have unused capacity
; 687  :         _Alty_traits::construct(_Getal(), _Unfancy(_Mylast), _STD forward<_Valty>(_Val)...);

  0001b	8b 45 08	 mov	 eax, DWORD PTR _<_Val_0>$[ebp]
  0001e	50		 push	 eax
  0001f	e8 00 00 00 00	 call	 ??$forward@ABVCDynamicExperienceData@@@std@@YAABVCDynamicExperienceData@@ABV1@@Z ; std::forward<CDynamicExperienceData const &>
  00024	83 c4 04	 add	 esp, 4
  00027	50		 push	 eax
  00028	8b 4d f4	 mov	 ecx, DWORD PTR __Mylast$[ebp]
  0002b	8b 11		 mov	 edx, DWORD PTR [ecx]
  0002d	52		 push	 edx
  0002e	e8 00 00 00 00	 call	 ??$_Unfancy@VCDynamicExperienceData@@@std@@YAPAVCDynamicExperienceData@@PAV1@@Z ; std::_Unfancy<CDynamicExperienceData>
  00033	83 c4 04	 add	 esp, 4
  00036	50		 push	 eax
  00037	8b 4d fc	 mov	 ecx, DWORD PTR _this$[ebp]
  0003a	e8 00 00 00 00	 call	 ?_Getal@?$vector@VCDynamicExperienceData@@V?$allocator@VCDynamicExperienceData@@@std@@@std@@AAEAAV?$allocator@VCDynamicExperienceData@@@2@XZ ; std::vector<CDynamicExperienceData,std::allocator<CDynamicExperienceData> >::_Getal
  0003f	50		 push	 eax
  00040	e8 00 00 00 00	 call	 ??$construct@VCDynamicExperienceData@@ABV1@@?$_Default_allocator_traits@V?$allocator@VCDynamicExperienceData@@@std@@@std@@SAXAAV?$allocator@VCDynamicExperienceData@@@1@QAVCDynamicExperienceData@@ABV3@@Z ; std::_Default_allocator_traits<std::allocator<CDynamicExperienceData> >::construct<CDynamicExperienceData,CDynamicExperienceData const &>
  00045	83 c4 0c	 add	 esp, 12			; 0000000cH

; 688  :         _Orphan_range(_Mylast, _Mylast);

  00048	8b 45 f4	 mov	 eax, DWORD PTR __Mylast$[ebp]
  0004b	8b 08		 mov	 ecx, DWORD PTR [eax]
  0004d	51		 push	 ecx
  0004e	8b 55 f4	 mov	 edx, DWORD PTR __Mylast$[ebp]
  00051	8b 02		 mov	 eax, DWORD PTR [edx]
  00053	50		 push	 eax
  00054	8b 4d fc	 mov	 ecx, DWORD PTR _this$[ebp]
  00057	e8 00 00 00 00	 call	 ?_Orphan_range@?$vector@VCDynamicExperienceData@@V?$allocator@VCDynamicExperienceData@@@std@@@std@@ABEXPAVCDynamicExperienceData@@0@Z ; std::vector<CDynamicExperienceData,std::allocator<CDynamicExperienceData> >::_Orphan_range

; 689  :         _Ty& _Result = *_Mylast;

  0005c	8b 45 f4	 mov	 eax, DWORD PTR __Mylast$[ebp]
  0005f	8b 08		 mov	 ecx, DWORD PTR [eax]
  00061	89 4d f0	 mov	 DWORD PTR __Result$[ebp], ecx

; 690  :         ++_Mylast;

  00064	8b 45 f4	 mov	 eax, DWORD PTR __Mylast$[ebp]
  00067	8b 08		 mov	 ecx, DWORD PTR [eax]
  00069	83 c1 08	 add	 ecx, 8
  0006c	8b 55 f4	 mov	 edx, DWORD PTR __Mylast$[ebp]
  0006f	89 0a		 mov	 DWORD PTR [edx], ecx

; 691  : #if _HAS_CXX17
; 692  :         return _Result;
; 693  : #else // ^^^ _HAS_CXX17 ^^^ // vvv !_HAS_CXX17 vvv
; 694  :         (void) _Result;
; 695  : #endif // _HAS_CXX17
; 696  :     }

  00071	5f		 pop	 edi
  00072	5e		 pop	 esi
  00073	5b		 pop	 ebx
  00074	8b e5		 mov	 esp, ebp
  00076	5d		 pop	 ebp
  00077	c2 04 00	 ret	 4
??$_Emplace_back_with_unused_capacity@ABVCDynamicExperienceData@@@?$vector@VCDynamicExperienceData@@V?$allocator@VCDynamicExperienceData@@@std@@@std@@AAE@ABVCDynamicExperienceData@@@Z ENDP ; std::vector<CDynamicExperienceData,std::allocator<CDynamicExperienceData> >::_Emplace_back_with_unused_capacity<CDynamicExperienceData const &>
_TEXT	ENDS
; Function compile flags: /Odtp /ZI
; File C:\Program Files (x86)\Microsoft Visual Studio\2019\Community\VC\Tools\MSVC\14.27.29110\include\type_traits
;	COMDAT ??$forward@ABVCDynamicExperienceData@@@std@@YAABVCDynamicExperienceData@@ABV1@@Z
_TEXT	SEGMENT
__Arg$ = 8						; size = 4
??$forward@ABVCDynamicExperienceData@@@std@@YAABVCDynamicExperienceData@@ABV1@@Z PROC ; std::forward<CDynamicExperienceData const &>, COMDAT

; 1454 :     remove_reference_t<_Ty>& _Arg) noexcept { // forward an lvalue as either an lvalue or an rvalue

  00000	55		 push	 ebp
  00001	8b ec		 mov	 ebp, esp
  00003	83 ec 40	 sub	 esp, 64			; 00000040H
  00006	53		 push	 ebx
  00007	56		 push	 esi
  00008	57		 push	 edi

; 1455 :     return static_cast<_Ty&&>(_Arg);

  00009	8b 45 08	 mov	 eax, DWORD PTR __Arg$[ebp]

; 1456 : }

  0000c	5f		 pop	 edi
  0000d	5e		 pop	 esi
  0000e	5b		 pop	 ebx
  0000f	8b e5		 mov	 esp, ebp
  00011	5d		 pop	 ebp
  00012	c3		 ret	 0
??$forward@ABVCDynamicExperienceData@@@std@@YAABVCDynamicExperienceData@@ABV1@@Z ENDP ; std::forward<CDynamicExperienceData const &>
_TEXT	ENDS
; Function compile flags: /Odtp /ZI
; File C:\Program Files (x86)\Microsoft Visual Studio\2019\Community\VC\Tools\MSVC\14.27.29110\include\vector
;	COMDAT ??$emplace_back@ABVCDynamicExperienceData@@@?$vector@VCDynamicExperienceData@@V?$allocator@VCDynamicExperienceData@@@std@@@std@@QAE@ABVCDynamicExperienceData@@@Z
_TEXT	SEGMENT
__Result$ = -16						; size = 4
__Mylast$ = -12						; size = 4
__My_data$ = -8						; size = 4
_this$ = -4						; size = 4
_<_Val_0>$ = 8						; size = 4
??$emplace_back@ABVCDynamicExperienceData@@@?$vector@VCDynamicExperienceData@@V?$allocator@VCDynamicExperienceData@@@std@@@std@@QAE@ABVCDynamicExperienceData@@@Z PROC ; std::vector<CDynamicExperienceData,std::allocator<CDynamicExperienceData> >::emplace_back<CDynamicExperienceData const &>, COMDAT
; _this$ = ecx

; 700  :     decltype(auto) emplace_back(_Valty&&... _Val) {

  00000	55		 push	 ebp
  00001	8b ec		 mov	 ebp, esp
  00003	83 ec 50	 sub	 esp, 80			; 00000050H
  00006	53		 push	 ebx
  00007	56		 push	 esi
  00008	57		 push	 edi
  00009	89 4d fc	 mov	 DWORD PTR _this$[ebp], ecx

; 701  :         // insert by perfectly forwarding into element at end, provide strong guarantee
; 702  :         auto& _My_data   = _Mypair._Myval2;

  0000c	8b 45 fc	 mov	 eax, DWORD PTR _this$[ebp]
  0000f	89 45 f8	 mov	 DWORD PTR __My_data$[ebp], eax

; 703  :         pointer& _Mylast = _My_data._Mylast;

  00012	8b 45 f8	 mov	 eax, DWORD PTR __My_data$[ebp]
  00015	83 c0 04	 add	 eax, 4
  00018	89 45 f4	 mov	 DWORD PTR __Mylast$[ebp], eax

; 704  :         if (_Mylast != _My_data._Myend) {

  0001b	8b 45 f4	 mov	 eax, DWORD PTR __Mylast$[ebp]
  0001e	8b 4d f8	 mov	 ecx, DWORD PTR __My_data$[ebp]
  00021	8b 10		 mov	 edx, DWORD PTR [eax]
  00023	3b 51 08	 cmp	 edx, DWORD PTR [ecx+8]
  00026	74 17		 je	 SHORT $LN2@emplace_ba

; 705  :             return _Emplace_back_with_unused_capacity(_STD forward<_Valty>(_Val)...);

  00028	8b 45 08	 mov	 eax, DWORD PTR _<_Val_0>$[ebp]
  0002b	50		 push	 eax
  0002c	e8 00 00 00 00	 call	 ??$forward@ABVCDynamicExperienceData@@@std@@YAABVCDynamicExperienceData@@ABV1@@Z ; std::forward<CDynamicExperienceData const &>
  00031	83 c4 04	 add	 esp, 4
  00034	50		 push	 eax
  00035	8b 4d fc	 mov	 ecx, DWORD PTR _this$[ebp]
  00038	e8 00 00 00 00	 call	 ??$_Emplace_back_with_unused_capacity@ABVCDynamicExperienceData@@@?$vector@VCDynamicExperienceData@@V?$allocator@VCDynamicExperienceData@@@std@@@std@@AAE@ABVCDynamicExperienceData@@@Z ; std::vector<CDynamicExperienceData,std::allocator<CDynamicExperienceData> >::_Emplace_back_with_unused_capacity<CDynamicExperienceData const &>
  0003d	eb 1e		 jmp	 SHORT $LN1@emplace_ba
$LN2@emplace_ba:

; 706  :         }
; 707  : 
; 708  :         _Ty& _Result = *_Emplace_reallocate(_Mylast, _STD forward<_Valty>(_Val)...);

  0003f	8b 45 08	 mov	 eax, DWORD PTR _<_Val_0>$[ebp]
  00042	50		 push	 eax
  00043	e8 00 00 00 00	 call	 ??$forward@ABVCDynamicExperienceData@@@std@@YAABVCDynamicExperienceData@@ABV1@@Z ; std::forward<CDynamicExperienceData const &>
  00048	83 c4 04	 add	 esp, 4
  0004b	50		 push	 eax
  0004c	8b 4d f4	 mov	 ecx, DWORD PTR __Mylast$[ebp]
  0004f	8b 11		 mov	 edx, DWORD PTR [ecx]
  00051	52		 push	 edx
  00052	8b 4d fc	 mov	 ecx, DWORD PTR _this$[ebp]
  00055	e8 00 00 00 00	 call	 ??$_Emplace_reallocate@ABVCDynamicExperienceData@@@?$vector@VCDynamicExperienceData@@V?$allocator@VCDynamicExperienceData@@@std@@@std@@QAEPAVCDynamicExperienceData@@QAV2@ABV2@@Z ; std::vector<CDynamicExperienceData,std::allocator<CDynamicExperienceData> >::_Emplace_reallocate<CDynamicExperienceData const &>
  0005a	89 45 f0	 mov	 DWORD PTR __Result$[ebp], eax
$LN1@emplace_ba:

; 709  : #if _HAS_CXX17
; 710  :         return _Result;
; 711  : #else // ^^^ _HAS_CXX17 ^^^ // vvv !_HAS_CXX17 vvv
; 712  :         (void) _Result;
; 713  : #endif // _HAS_CXX17
; 714  :     }

  0005d	5f		 pop	 edi
  0005e	5e		 pop	 esi
  0005f	5b		 pop	 ebx
  00060	8b e5		 mov	 esp, ebp
  00062	5d		 pop	 ebp
  00063	c2 04 00	 ret	 4
??$emplace_back@ABVCDynamicExperienceData@@@?$vector@VCDynamicExperienceData@@V?$allocator@VCDynamicExperienceData@@@std@@@std@@QAE@ABVCDynamicExperienceData@@@Z ENDP ; std::vector<CDynamicExperienceData,std::allocator<CDynamicExperienceData> >::emplace_back<CDynamicExperienceData const &>
_TEXT	ENDS
; Function compile flags: /Odtp /ZI
; File C:\Program Files (x86)\Microsoft Visual Studio\2019\Community\VC\Tools\MSVC\14.27.29110\include\xstddef
;	COMDAT ??$addressof@V?$_Vector_val@U?$_Simple_types@VCDynamicExperienceData@@@std@@@std@@@std@@YAPAV?$_Vector_val@U?$_Simple_types@VCDynamicExperienceData@@@std@@@0@AAV10@@Z
_TEXT	SEGMENT
__Val$ = 8						; size = 4
??$addressof@V?$_Vector_val@U?$_Simple_types@VCDynamicExperienceData@@@std@@@std@@@std@@YAPAV?$_Vector_val@U?$_Simple_types@VCDynamicExperienceData@@@std@@@0@AAV10@@Z PROC ; std::addressof<std::_Vector_val<std::_Simple_types<CDynamicExperienceData> > >, COMDAT

; 274  : _NODISCARD constexpr _Ty* addressof(_Ty& _Val) noexcept {

  00000	55		 push	 ebp
  00001	8b ec		 mov	 ebp, esp
  00003	83 ec 40	 sub	 esp, 64			; 00000040H
  00006	53		 push	 ebx
  00007	56		 push	 esi
  00008	57		 push	 edi

; 275  :     return __builtin_addressof(_Val);

  00009	8b 45 08	 mov	 eax, DWORD PTR __Val$[ebp]

; 276  : }

  0000c	5f		 pop	 edi
  0000d	5e		 pop	 esi
  0000e	5b		 pop	 ebx
  0000f	8b e5		 mov	 esp, ebp
  00011	5d		 pop	 ebp
  00012	c3		 ret	 0
??$addressof@V?$_Vector_val@U?$_Simple_types@VCDynamicExperienceData@@@std@@@std@@@std@@YAPAV?$_Vector_val@U?$_Simple_types@VCDynamicExperienceData@@@std@@@0@AAV10@@Z ENDP ; std::addressof<std::_Vector_val<std::_Simple_types<CDynamicExperienceData> > >
_TEXT	ENDS
; Function compile flags: /Odtp /ZI
; File C:\Program Files (x86)\Microsoft Visual Studio\2019\Community\VC\Tools\MSVC\14.27.29110\include\xmemory
;	COMDAT ??$_Const_cast@$$CBVCDynamicExperienceData@@@std@@YA@PBVCDynamicExperienceData@@@Z
_TEXT	SEGMENT
__Ptr$ = 8						; size = 4
??$_Const_cast@$$CBVCDynamicExperienceData@@@std@@YA@PBVCDynamicExperienceData@@@Z PROC ; std::_Const_cast<CDynamicExperienceData const >, COMDAT

; 282  : auto _Const_cast(_Ty* _Ptr) noexcept {

  00000	55		 push	 ebp
  00001	8b ec		 mov	 ebp, esp
  00003	83 ec 40	 sub	 esp, 64			; 00000040H
  00006	53		 push	 ebx
  00007	56		 push	 esi
  00008	57		 push	 edi

; 283  :     return const_cast<remove_const_t<_Ty>*>(_Ptr);

  00009	8b 45 08	 mov	 eax, DWORD PTR __Ptr$[ebp]

; 284  : }

  0000c	5f		 pop	 edi
  0000d	5e		 pop	 esi
  0000e	5b		 pop	 ebx
  0000f	8b e5		 mov	 esp, ebp
  00011	5d		 pop	 ebp
  00012	c3		 ret	 0
??$_Const_cast@$$CBVCDynamicExperienceData@@@std@@YA@PBVCDynamicExperienceData@@@Z ENDP ; std::_Const_cast<CDynamicExperienceData const >
_TEXT	ENDS
; Function compile flags: /Odtp /ZI
;	COMDAT ??0?$_Vector_iterator@V?$_Vector_val@U?$_Simple_types@VCDynamicExperienceData@@@std@@@std@@@std@@QAE@PAVCDynamicExperienceData@@PBU_Container_base0@1@@Z
_TEXT	SEGMENT
_this$ = -4						; size = 4
___param0$ = 8						; size = 4
___param1$ = 12						; size = 4
??0?$_Vector_iterator@V?$_Vector_val@U?$_Simple_types@VCDynamicExperienceData@@@std@@@std@@@std@@QAE@PAVCDynamicExperienceData@@PBU_Container_base0@1@@Z PROC ; std::_Vector_iterator<std::_Vector_val<std::_Simple_types<CDynamicExperienceData> > >::_Vector_iterator<std::_Vector_val<std::_Simple_types<CDynamicExperienceData> > >, COMDAT
; _this$ = ecx
  00000	55		 push	 ebp
  00001	8b ec		 mov	 ebp, esp
  00003	83 ec 44	 sub	 esp, 68			; 00000044H
  00006	53		 push	 ebx
  00007	56		 push	 esi
  00008	57		 push	 edi
  00009	89 4d fc	 mov	 DWORD PTR _this$[ebp], ecx
  0000c	8b 45 0c	 mov	 eax, DWORD PTR ___param1$[ebp]
  0000f	50		 push	 eax
  00010	8b 4d 08	 mov	 ecx, DWORD PTR ___param0$[ebp]
  00013	51		 push	 ecx
  00014	8b 4d fc	 mov	 ecx, DWORD PTR _this$[ebp]
  00017	e8 00 00 00 00	 call	 ??0?$_Vector_const_iterator@V?$_Vector_val@U?$_Simple_types@VCDynamicExperienceData@@@std@@@std@@@std@@QAE@PAVCDynamicExperienceData@@PBU_Container_base0@1@@Z ; std::_Vector_const_iterator<std::_Vector_val<std::_Simple_types<CDynamicExperienceData> > >::_Vector_const_iterator<std::_Vector_val<std::_Simple_types<CDynamicExperienceData> > >
  0001c	8b 45 fc	 mov	 eax, DWORD PTR _this$[ebp]
  0001f	5f		 pop	 edi
  00020	5e		 pop	 esi
  00021	5b		 pop	 ebx
  00022	8b e5		 mov	 esp, ebp
  00024	5d		 pop	 ebp
  00025	c2 08 00	 ret	 8
??0?$_Vector_iterator@V?$_Vector_val@U?$_Simple_types@VCDynamicExperienceData@@@std@@@std@@@std@@QAE@PAVCDynamicExperienceData@@PBU_Container_base0@1@@Z ENDP ; std::_Vector_iterator<std::_Vector_val<std::_Simple_types<CDynamicExperienceData> > >::_Vector_iterator<std::_Vector_val<std::_Simple_types<CDynamicExperienceData> > >
_TEXT	ENDS
; Function compile flags: /Odtp /ZI
; File C:\Program Files (x86)\Microsoft Visual Studio\2019\Community\VC\Tools\MSVC\14.27.29110\include\vector
;	COMDAT ??E?$_Vector_iterator@V?$_Vector_val@U?$_Simple_types@VCDynamicExperienceData@@@std@@@std@@@std@@QAE?AV01@H@Z
_TEXT	SEGMENT
__Tmp$ = -8						; size = 4
_this$ = -4						; size = 4
___$ReturnUdt$ = 8					; size = 4
___formal$ = 12						; size = 4
??E?$_Vector_iterator@V?$_Vector_val@U?$_Simple_types@VCDynamicExperienceData@@@std@@@std@@@std@@QAE?AV01@H@Z PROC ; std::_Vector_iterator<std::_Vector_val<std::_Simple_types<CDynamicExperienceData> > >::operator++, COMDAT
; _this$ = ecx

; 264  :     _Vector_iterator operator++(int) {

  00000	55		 push	 ebp
  00001	8b ec		 mov	 ebp, esp
  00003	83 ec 48	 sub	 esp, 72			; 00000048H
  00006	53		 push	 ebx
  00007	56		 push	 esi
  00008	57		 push	 edi
  00009	89 4d fc	 mov	 DWORD PTR _this$[ebp], ecx

; 265  :         _Vector_iterator _Tmp = *this;

  0000c	8b 45 fc	 mov	 eax, DWORD PTR _this$[ebp]
  0000f	8b 08		 mov	 ecx, DWORD PTR [eax]
  00011	89 4d f8	 mov	 DWORD PTR __Tmp$[ebp], ecx

; 266  :         _Mybase::operator++();

  00014	8b 4d fc	 mov	 ecx, DWORD PTR _this$[ebp]
  00017	e8 00 00 00 00	 call	 ??E?$_Vector_const_iterator@V?$_Vector_val@U?$_Simple_types@VCDynamicExperienceData@@@std@@@std@@@std@@QAEAAV01@XZ ; std::_Vector_const_iterator<std::_Vector_val<std::_Simple_types<CDynamicExperienceData> > >::operator++

; 267  :         return _Tmp;

  0001c	8b 45 08	 mov	 eax, DWORD PTR ___$ReturnUdt$[ebp]
  0001f	8b 4d f8	 mov	 ecx, DWORD PTR __Tmp$[ebp]
  00022	89 08		 mov	 DWORD PTR [eax], ecx
  00024	8b 45 08	 mov	 eax, DWORD PTR ___$ReturnUdt$[ebp]

; 268  :     }

  00027	5f		 pop	 edi
  00028	5e		 pop	 esi
  00029	5b		 pop	 ebx
  0002a	8b e5		 mov	 esp, ebp
  0002c	5d		 pop	 ebp
  0002d	c2 08 00	 ret	 8
??E?$_Vector_iterator@V?$_Vector_val@U?$_Simple_types@VCDynamicExperienceData@@@std@@@std@@@std@@QAE?AV01@H@Z ENDP ; std::_Vector_iterator<std::_Vector_val<std::_Simple_types<CDynamicExperienceData> > >::operator++
_TEXT	ENDS
; Function compile flags: /Odtp /ZI
; File C:\Program Files (x86)\Microsoft Visual Studio\2019\Community\VC\Tools\MSVC\14.27.29110\include\vector
;	COMDAT ??C?$_Vector_iterator@V?$_Vector_val@U?$_Simple_types@VCDynamicExperienceData@@@std@@@std@@@std@@QBEPAVCDynamicExperienceData@@XZ
_TEXT	SEGMENT
_this$ = -4						; size = 4
??C?$_Vector_iterator@V?$_Vector_val@U?$_Simple_types@VCDynamicExperienceData@@@std@@@std@@@std@@QBEPAVCDynamicExperienceData@@XZ PROC ; std::_Vector_iterator<std::_Vector_val<std::_Simple_types<CDynamicExperienceData> > >::operator->, COMDAT
; _this$ = ecx

; 255  :     _NODISCARD pointer operator->() const {

  00000	55		 push	 ebp
  00001	8b ec		 mov	 ebp, esp
  00003	83 ec 44	 sub	 esp, 68			; 00000044H
  00006	53		 push	 ebx
  00007	56		 push	 esi
  00008	57		 push	 edi
  00009	89 4d fc	 mov	 DWORD PTR _this$[ebp], ecx

; 256  :         return _Const_cast(_Mybase::operator->());

  0000c	8b 4d fc	 mov	 ecx, DWORD PTR _this$[ebp]
  0000f	e8 00 00 00 00	 call	 ??C?$_Vector_const_iterator@V?$_Vector_val@U?$_Simple_types@VCDynamicExperienceData@@@std@@@std@@@std@@QBEPBVCDynamicExperienceData@@XZ ; std::_Vector_const_iterator<std::_Vector_val<std::_Simple_types<CDynamicExperienceData> > >::operator->
  00014	50		 push	 eax
  00015	e8 00 00 00 00	 call	 ??$_Const_cast@$$CBVCDynamicExperienceData@@@std@@YA@PBVCDynamicExperienceData@@@Z ; std::_Const_cast<CDynamicExperienceData const >
  0001a	83 c4 04	 add	 esp, 4

; 257  :     }

  0001d	5f		 pop	 edi
  0001e	5e		 pop	 esi
  0001f	5b		 pop	 ebx
  00020	8b e5		 mov	 esp, ebp
  00022	5d		 pop	 ebp
  00023	c3		 ret	 0
??C?$_Vector_iterator@V?$_Vector_val@U?$_Simple_types@VCDynamicExperienceData@@@std@@@std@@@std@@QBEPAVCDynamicExperienceData@@XZ ENDP ; std::_Vector_iterator<std::_Vector_val<std::_Simple_types<CDynamicExperienceData> > >::operator->
_TEXT	ENDS
; Function compile flags: /Odtp /ZI
; File C:\Program Files (x86)\Microsoft Visual Studio\2019\Community\VC\Tools\MSVC\14.27.29110\include\vector
;	COMDAT ?_Compat@?$_Vector_const_iterator@V?$_Vector_val@U?$_Simple_types@VCDynamicExperienceData@@@std@@@std@@@std@@QBEXABV12@@Z
_TEXT	SEGMENT
_this$ = -4						; size = 4
__Right$ = 8						; size = 4
?_Compat@?$_Vector_const_iterator@V?$_Vector_val@U?$_Simple_types@VCDynamicExperienceData@@@std@@@std@@@std@@QBEXABV12@@Z PROC ; std::_Vector_const_iterator<std::_Vector_val<std::_Simple_types<CDynamicExperienceData> > >::_Compat, COMDAT
; _this$ = ecx

; 173  :     void _Compat(const _Vector_const_iterator& _Right) const { // test for compatible iterator pair

  00000	55		 push	 ebp
  00001	8b ec		 mov	 ebp, esp
  00003	83 ec 44	 sub	 esp, 68			; 00000044H
  00006	53		 push	 ebx
  00007	56		 push	 esi
  00008	57		 push	 edi
  00009	89 4d fc	 mov	 DWORD PTR _this$[ebp], ecx

; 174  : #if _ITERATOR_DEBUG_LEVEL == 0
; 175  :         (void) _Right;
; 176  : #else // ^^^ _ITERATOR_DEBUG_LEVEL == 0 ^^^ // vvv _ITERATOR_DEBUG_LEVEL != 0 vvv
; 177  :         _STL_VERIFY(this->_Getcont() == _Right._Getcont(), "vector iterators incompatible");
; 178  : #endif // _ITERATOR_DEBUG_LEVEL == 0
; 179  :     }

  0000c	5f		 pop	 edi
  0000d	5e		 pop	 esi
  0000e	5b		 pop	 ebx
  0000f	8b e5		 mov	 esp, ebp
  00011	5d		 pop	 ebp
  00012	c2 04 00	 ret	 4
?_Compat@?$_Vector_const_iterator@V?$_Vector_val@U?$_Simple_types@VCDynamicExperienceData@@@std@@@std@@@std@@QBEXABV12@@Z ENDP ; std::_Vector_const_iterator<std::_Vector_val<std::_Simple_types<CDynamicExperienceData> > >::_Compat
_TEXT	ENDS
; Function compile flags: /Odtp /ZI
; File C:\Program Files (x86)\Microsoft Visual Studio\2019\Community\VC\Tools\MSVC\14.27.29110\include\vector
;	COMDAT ??9?$_Vector_const_iterator@V?$_Vector_val@U?$_Simple_types@VCDynamicExperienceData@@@std@@@std@@@std@@QBE_NABV01@@Z
_TEXT	SEGMENT
tv69 = -72						; size = 4
_this$ = -4						; size = 4
__Right$ = 8						; size = 4
??9?$_Vector_const_iterator@V?$_Vector_val@U?$_Simple_types@VCDynamicExperienceData@@@std@@@std@@@std@@QBE_NABV01@@Z PROC ; std::_Vector_const_iterator<std::_Vector_val<std::_Simple_types<CDynamicExperienceData> > >::operator!=, COMDAT
; _this$ = ecx

; 152  :     _NODISCARD bool operator!=(const _Vector_const_iterator& _Right) const {

  00000	55		 push	 ebp
  00001	8b ec		 mov	 ebp, esp
  00003	83 ec 48	 sub	 esp, 72			; 00000048H
  00006	53		 push	 ebx
  00007	56		 push	 esi
  00008	57		 push	 edi
  00009	89 4d fc	 mov	 DWORD PTR _this$[ebp], ecx

; 153  :         return !(*this == _Right);

  0000c	8b 45 08	 mov	 eax, DWORD PTR __Right$[ebp]
  0000f	50		 push	 eax
  00010	8b 4d fc	 mov	 ecx, DWORD PTR _this$[ebp]
  00013	e8 00 00 00 00	 call	 ??8?$_Vector_const_iterator@V?$_Vector_val@U?$_Simple_types@VCDynamicExperienceData@@@std@@@std@@@std@@QBE_NABV01@@Z ; std::_Vector_const_iterator<std::_Vector_val<std::_Simple_types<CDynamicExperienceData> > >::operator==
  00018	0f b6 c8	 movzx	 ecx, al
  0001b	85 c9		 test	 ecx, ecx
  0001d	75 09		 jne	 SHORT $LN3@operator
  0001f	c7 45 b8 01 00
	00 00		 mov	 DWORD PTR tv69[ebp], 1
  00026	eb 07		 jmp	 SHORT $LN4@operator
$LN3@operator:
  00028	c7 45 b8 00 00
	00 00		 mov	 DWORD PTR tv69[ebp], 0
$LN4@operator:
  0002f	8a 45 b8	 mov	 al, BYTE PTR tv69[ebp]

; 154  :     }

  00032	5f		 pop	 edi
  00033	5e		 pop	 esi
  00034	5b		 pop	 ebx
  00035	8b e5		 mov	 esp, ebp
  00037	5d		 pop	 ebp
  00038	c2 04 00	 ret	 4
??9?$_Vector_const_iterator@V?$_Vector_val@U?$_Simple_types@VCDynamicExperienceData@@@std@@@std@@@std@@QBE_NABV01@@Z ENDP ; std::_Vector_const_iterator<std::_Vector_val<std::_Simple_types<CDynamicExperienceData> > >::operator!=
_TEXT	ENDS
; Function compile flags: /Odtp /ZI
; File C:\Program Files (x86)\Microsoft Visual Studio\2019\Community\VC\Tools\MSVC\14.27.29110\include\vector
;	COMDAT ??8?$_Vector_const_iterator@V?$_Vector_val@U?$_Simple_types@VCDynamicExperienceData@@@std@@@std@@@std@@QBE_NABV01@@Z
_TEXT	SEGMENT
tv69 = -72						; size = 4
_this$ = -4						; size = 4
__Right$ = 8						; size = 4
??8?$_Vector_const_iterator@V?$_Vector_val@U?$_Simple_types@VCDynamicExperienceData@@@std@@@std@@@std@@QBE_NABV01@@Z PROC ; std::_Vector_const_iterator<std::_Vector_val<std::_Simple_types<CDynamicExperienceData> > >::operator==, COMDAT
; _this$ = ecx

; 147  :     _NODISCARD bool operator==(const _Vector_const_iterator& _Right) const {

  00000	55		 push	 ebp
  00001	8b ec		 mov	 ebp, esp
  00003	83 ec 48	 sub	 esp, 72			; 00000048H
  00006	53		 push	 ebx
  00007	56		 push	 esi
  00008	57		 push	 edi
  00009	89 4d fc	 mov	 DWORD PTR _this$[ebp], ecx

; 148  :         _Compat(_Right);

  0000c	8b 45 08	 mov	 eax, DWORD PTR __Right$[ebp]
  0000f	50		 push	 eax
  00010	8b 4d fc	 mov	 ecx, DWORD PTR _this$[ebp]
  00013	e8 00 00 00 00	 call	 ?_Compat@?$_Vector_const_iterator@V?$_Vector_val@U?$_Simple_types@VCDynamicExperienceData@@@std@@@std@@@std@@QBEXABV12@@Z ; std::_Vector_const_iterator<std::_Vector_val<std::_Simple_types<CDynamicExperienceData> > >::_Compat

; 149  :         return _Ptr == _Right._Ptr;

  00018	8b 45 fc	 mov	 eax, DWORD PTR _this$[ebp]
  0001b	8b 4d 08	 mov	 ecx, DWORD PTR __Right$[ebp]
  0001e	8b 10		 mov	 edx, DWORD PTR [eax]
  00020	3b 11		 cmp	 edx, DWORD PTR [ecx]
  00022	75 09		 jne	 SHORT $LN3@operator
  00024	c7 45 b8 01 00
	00 00		 mov	 DWORD PTR tv69[ebp], 1
  0002b	eb 07		 jmp	 SHORT $LN4@operator
$LN3@operator:
  0002d	c7 45 b8 00 00
	00 00		 mov	 DWORD PTR tv69[ebp], 0
$LN4@operator:
  00034	8a 45 b8	 mov	 al, BYTE PTR tv69[ebp]

; 150  :     }

  00037	5f		 pop	 edi
  00038	5e		 pop	 esi
  00039	5b		 pop	 ebx
  0003a	8b e5		 mov	 esp, ebp
  0003c	5d		 pop	 ebp
  0003d	c2 04 00	 ret	 4
??8?$_Vector_const_iterator@V?$_Vector_val@U?$_Simple_types@VCDynamicExperienceData@@@std@@@std@@@std@@QBE_NABV01@@Z ENDP ; std::_Vector_const_iterator<std::_Vector_val<std::_Simple_types<CDynamicExperienceData> > >::operator==
_TEXT	ENDS
; Function compile flags: /Odtp /ZI
; File C:\Program Files (x86)\Microsoft Visual Studio\2019\Community\VC\Tools\MSVC\14.27.29110\include\vector
;	COMDAT ??E?$_Vector_const_iterator@V?$_Vector_val@U?$_Simple_types@VCDynamicExperienceData@@@std@@@std@@@std@@QAEAAV01@XZ
_TEXT	SEGMENT
_this$ = -4						; size = 4
??E?$_Vector_const_iterator@V?$_Vector_val@U?$_Simple_types@VCDynamicExperienceData@@@std@@@std@@@std@@QAEAAV01@XZ PROC ; std::_Vector_const_iterator<std::_Vector_val<std::_Simple_types<CDynamicExperienceData> > >::operator++, COMDAT
; _this$ = ecx

; 68   :     _Vector_const_iterator& operator++() {

  00000	55		 push	 ebp
  00001	8b ec		 mov	 ebp, esp
  00003	83 ec 44	 sub	 esp, 68			; 00000044H
  00006	53		 push	 ebx
  00007	56		 push	 esi
  00008	57		 push	 edi
  00009	89 4d fc	 mov	 DWORD PTR _this$[ebp], ecx

; 69   : #if _ITERATOR_DEBUG_LEVEL != 0
; 70   :         const auto _Mycont = static_cast<const _Myvec*>(this->_Getcont());
; 71   :         _STL_VERIFY(_Ptr, "can't increment value-initialized vector iterator");
; 72   :         _STL_VERIFY(_Ptr < _Mycont->_Mylast, "can't increment vector iterator past end");
; 73   : #endif // _ITERATOR_DEBUG_LEVEL != 0
; 74   : 
; 75   :         ++_Ptr;

  0000c	8b 45 fc	 mov	 eax, DWORD PTR _this$[ebp]
  0000f	8b 08		 mov	 ecx, DWORD PTR [eax]
  00011	83 c1 08	 add	 ecx, 8
  00014	8b 55 fc	 mov	 edx, DWORD PTR _this$[ebp]
  00017	89 0a		 mov	 DWORD PTR [edx], ecx

; 76   :         return *this;

  00019	8b 45 fc	 mov	 eax, DWORD PTR _this$[ebp]

; 77   :     }

  0001c	5f		 pop	 edi
  0001d	5e		 pop	 esi
  0001e	5b		 pop	 ebx
  0001f	8b e5		 mov	 esp, ebp
  00021	5d		 pop	 ebp
  00022	c3		 ret	 0
??E?$_Vector_const_iterator@V?$_Vector_val@U?$_Simple_types@VCDynamicExperienceData@@@std@@@std@@@std@@QAEAAV01@XZ ENDP ; std::_Vector_const_iterator<std::_Vector_val<std::_Simple_types<CDynamicExperienceData> > >::operator++
_TEXT	ENDS
; Function compile flags: /Odtp /ZI
; File C:\Program Files (x86)\Microsoft Visual Studio\2019\Community\VC\Tools\MSVC\14.27.29110\include\vector
;	COMDAT ??C?$_Vector_const_iterator@V?$_Vector_val@U?$_Simple_types@VCDynamicExperienceData@@@std@@@std@@@std@@QBEPBVCDynamicExperienceData@@XZ
_TEXT	SEGMENT
_this$ = -4						; size = 4
??C?$_Vector_const_iterator@V?$_Vector_val@U?$_Simple_types@VCDynamicExperienceData@@@std@@@std@@@std@@QBEPBVCDynamicExperienceData@@XZ PROC ; std::_Vector_const_iterator<std::_Vector_val<std::_Simple_types<CDynamicExperienceData> > >::operator->, COMDAT
; _this$ = ecx

; 57   :     _NODISCARD pointer operator->() const {

  00000	55		 push	 ebp
  00001	8b ec		 mov	 ebp, esp
  00003	83 ec 44	 sub	 esp, 68			; 00000044H
  00006	53		 push	 ebx
  00007	56		 push	 esi
  00008	57		 push	 edi
  00009	89 4d fc	 mov	 DWORD PTR _this$[ebp], ecx

; 58   : #if _ITERATOR_DEBUG_LEVEL != 0
; 59   :         const auto _Mycont = static_cast<const _Myvec*>(this->_Getcont());
; 60   :         _STL_VERIFY(_Ptr, "can't dereference value-initialized vector iterator");
; 61   :         _STL_VERIFY(
; 62   :             _Mycont->_Myfirst <= _Ptr && _Ptr < _Mycont->_Mylast, "can't dereference out of range vector iterator");
; 63   : #endif // _ITERATOR_DEBUG_LEVEL != 0
; 64   : 
; 65   :         return _Ptr;

  0000c	8b 45 fc	 mov	 eax, DWORD PTR _this$[ebp]
  0000f	8b 00		 mov	 eax, DWORD PTR [eax]

; 66   :     }

  00011	5f		 pop	 edi
  00012	5e		 pop	 esi
  00013	5b		 pop	 ebx
  00014	8b e5		 mov	 esp, ebp
  00016	5d		 pop	 ebp
  00017	c3		 ret	 0
??C?$_Vector_const_iterator@V?$_Vector_val@U?$_Simple_types@VCDynamicExperienceData@@@std@@@std@@@std@@QBEPBVCDynamicExperienceData@@XZ ENDP ; std::_Vector_const_iterator<std::_Vector_val<std::_Simple_types<CDynamicExperienceData> > >::operator->
_TEXT	ENDS
; Function compile flags: /Odtp /ZI
; File C:\Program Files (x86)\Microsoft Visual Studio\2019\Community\VC\Tools\MSVC\14.27.29110\include\vector
;	COMDAT ??0?$_Vector_const_iterator@V?$_Vector_val@U?$_Simple_types@VCDynamicExperienceData@@@std@@@std@@@std@@QAE@PAVCDynamicExperienceData@@PBU_Container_base0@1@@Z
_TEXT	SEGMENT
_this$ = -4						; size = 4
__Parg$ = 8						; size = 4
__Pvector$ = 12						; size = 4
??0?$_Vector_const_iterator@V?$_Vector_val@U?$_Simple_types@VCDynamicExperienceData@@@std@@@std@@@std@@QAE@PAVCDynamicExperienceData@@PBU_Container_base0@1@@Z PROC ; std::_Vector_const_iterator<std::_Vector_val<std::_Simple_types<CDynamicExperienceData> > >::_Vector_const_iterator<std::_Vector_val<std::_Simple_types<CDynamicExperienceData> > >, COMDAT
; _this$ = ecx

; 42   :     _Vector_const_iterator(_Tptr _Parg, const _Container_base* _Pvector) noexcept : _Ptr(_Parg) {

  00000	55		 push	 ebp
  00001	8b ec		 mov	 ebp, esp
  00003	83 ec 44	 sub	 esp, 68			; 00000044H
  00006	53		 push	 ebx
  00007	56		 push	 esi
  00008	57		 push	 edi
  00009	89 4d fc	 mov	 DWORD PTR _this$[ebp], ecx
  0000c	8b 45 fc	 mov	 eax, DWORD PTR _this$[ebp]
  0000f	8b 4d 08	 mov	 ecx, DWORD PTR __Parg$[ebp]
  00012	89 08		 mov	 DWORD PTR [eax], ecx

; 43   :         this->_Adopt(_Pvector);

  00014	8b 45 0c	 mov	 eax, DWORD PTR __Pvector$[ebp]
  00017	50		 push	 eax
  00018	8b 4d fc	 mov	 ecx, DWORD PTR _this$[ebp]
  0001b	e8 00 00 00 00	 call	 ?_Adopt@_Iterator_base0@std@@QAEXPBX@Z ; std::_Iterator_base0::_Adopt

; 44   :     }

  00020	8b 45 fc	 mov	 eax, DWORD PTR _this$[ebp]
  00023	5f		 pop	 edi
  00024	5e		 pop	 esi
  00025	5b		 pop	 ebx
  00026	8b e5		 mov	 esp, ebp
  00028	5d		 pop	 ebp
  00029	c2 08 00	 ret	 8
??0?$_Vector_const_iterator@V?$_Vector_val@U?$_Simple_types@VCDynamicExperienceData@@@std@@@std@@@std@@QAE@PAVCDynamicExperienceData@@PBU_Container_base0@1@@Z ENDP ; std::_Vector_const_iterator<std::_Vector_val<std::_Simple_types<CDynamicExperienceData> > >::_Vector_const_iterator<std::_Vector_val<std::_Simple_types<CDynamicExperienceData> > >
_TEXT	ENDS
; Function compile flags: /Odtp /ZI
;	COMDAT ??__F_dynamic_experience@@YAXXZ
text$yd	SEGMENT
??__F_dynamic_experience@@YAXXZ PROC			; `dynamic atexit destructor for '_dynamic_experience'', COMDAT
  00000	55		 push	 ebp
  00001	8b ec		 mov	 ebp, esp
  00003	83 ec 40	 sub	 esp, 64			; 00000040H
  00006	53		 push	 ebx
  00007	56		 push	 esi
  00008	57		 push	 edi
  00009	b9 00 00 00 00	 mov	 ecx, OFFSET ?_dynamic_experience@@3VCDynamicExperience@@A ; _dynamic_experience
  0000e	e8 00 00 00 00	 call	 ??1CDynamicExperience@@QAE@XZ
  00013	5f		 pop	 edi
  00014	5e		 pop	 esi
  00015	5b		 pop	 ebx
  00016	8b e5		 mov	 esp, ebp
  00018	5d		 pop	 ebp
  00019	c3		 ret	 0
??__F_dynamic_experience@@YAXXZ ENDP			; `dynamic atexit destructor for '_dynamic_experience''
text$yd	ENDS
; Function compile flags: /Odtp /ZI
; File C:\Mu Online\Mu-GS-Webzen-MC-10093\GameServer\DynamicExperience.cpp
;	COMDAT ??__E_dynamic_experience@@YAXXZ
text$di	SEGMENT
??__E_dynamic_experience@@YAXXZ PROC			; `dynamic initializer for '_dynamic_experience'', COMDAT

; 5    : CDynamicExperience _dynamic_experience;

  00000	55		 push	 ebp
  00001	8b ec		 mov	 ebp, esp
  00003	83 ec 40	 sub	 esp, 64			; 00000040H
  00006	53		 push	 ebx
  00007	56		 push	 esi
  00008	57		 push	 edi
  00009	b9 00 00 00 00	 mov	 ecx, OFFSET ?_dynamic_experience@@3VCDynamicExperience@@A ; _dynamic_experience
  0000e	e8 00 00 00 00	 call	 ??0CDynamicExperience@@QAE@XZ
  00013	68 00 00 00 00	 push	 OFFSET ??__F_dynamic_experience@@YAXXZ ; `dynamic atexit destructor for '_dynamic_experience''
  00018	e8 00 00 00 00	 call	 _atexit
  0001d	83 c4 04	 add	 esp, 4
  00020	5f		 pop	 edi
  00021	5e		 pop	 esi
  00022	5b		 pop	 ebx
  00023	8b e5		 mov	 esp, ebp
  00025	5d		 pop	 ebp
  00026	c3		 ret	 0
??__E_dynamic_experience@@YAXXZ ENDP			; `dynamic initializer for '_dynamic_experience''
text$di	ENDS
; Function compile flags: /Odtp /ZI
; File C:\Mu Online\Mu-GS-Webzen-MC-10093\include\readscript.h
;	COMDAT ?GetToken@@YA?AW4SMDToken@@XZ
_TEXT	SEGMENT
tv93 = -184						; size = 4
$T1 = -180						; size = 4
_TempString$ = -112					; size = 100
_p$ = -12						; size = 4
_ch$ = -5						; size = 1
__$ArrayPad$ = -4					; size = 4
?GetToken@@YA?AW4SMDToken@@XZ PROC			; GetToken, COMDAT

; 25   : {

  00000	55		 push	 ebp
  00001	8b ec		 mov	 ebp, esp
  00003	81 ec b8 00 00
	00		 sub	 esp, 184		; 000000b8H
  00009	a1 00 00 00 00	 mov	 eax, DWORD PTR ___security_cookie
  0000e	33 c5		 xor	 eax, ebp
  00010	89 45 fc	 mov	 DWORD PTR __$ArrayPad$[ebp], eax
  00013	53		 push	 ebx
  00014	56		 push	 esi
  00015	57		 push	 edi

; 26   : 	unsigned char ch;
; 27   : 	TokenString[0] = '\0';

  00016	b8 01 00 00 00	 mov	 eax, 1
  0001b	6b c8 00	 imul	 ecx, eax, 0
  0001e	89 8d 4c ff ff
	ff		 mov	 DWORD PTR $T1[ebp], ecx
  00024	83 bd 4c ff ff
	ff 64		 cmp	 DWORD PTR $T1[ebp], 100	; 00000064H
  0002b	73 02		 jae	 SHORT $LN31@GetToken
  0002d	eb 05		 jmp	 SHORT $LN32@GetToken
$LN31@GetToken:
  0002f	e8 00 00 00 00	 call	 ___report_rangecheckfailure
$LN32@GetToken:
  00034	8b 95 4c ff ff
	ff		 mov	 edx, DWORD PTR $T1[ebp]
  0003a	c6 82 00 00 00
	00 00		 mov	 BYTE PTR ?TokenString@@3PADA[edx], 0
$LN4@GetToken:

; 28   : 	do
; 29   : 	{
; 30   : 		if ( (ch =(unsigned char) fgetc(SMDFile)) == (BYTE)EOF) return END;

  00041	a1 00 00 00 00	 mov	 eax, DWORD PTR ?SMDFile@@3PAU_iobuf@@A
  00046	50		 push	 eax
  00047	e8 00 00 00 00	 call	 _fgetc
  0004c	83 c4 04	 add	 esp, 4
  0004f	88 45 fb	 mov	 BYTE PTR _ch$[ebp], al
  00052	0f b6 4d fb	 movzx	 ecx, BYTE PTR _ch$[ebp]
  00056	81 f9 ff 00 00
	00		 cmp	 ecx, 255		; 000000ffH
  0005c	75 0a		 jne	 SHORT $LN15@GetToken
  0005e	b8 02 00 00 00	 mov	 eax, 2
  00063	e9 d9 02 00 00	 jmp	 $LN7@GetToken
$LN15@GetToken:

; 31   : 		if (ch=='/' && (ch =(unsigned char) fgetc(SMDFile) )=='/')	

  00068	0f b6 45 fb	 movzx	 eax, BYTE PTR _ch$[ebp]
  0006c	83 f8 2f	 cmp	 eax, 47			; 0000002fH
  0006f	75 56		 jne	 SHORT $LN17@GetToken
  00071	a1 00 00 00 00	 mov	 eax, DWORD PTR ?SMDFile@@3PAU_iobuf@@A
  00076	50		 push	 eax
  00077	e8 00 00 00 00	 call	 _fgetc
  0007c	83 c4 04	 add	 esp, 4
  0007f	88 45 fb	 mov	 BYTE PTR _ch$[ebp], al
  00082	0f b6 4d fb	 movzx	 ecx, BYTE PTR _ch$[ebp]
  00086	83 f9 2f	 cmp	 ecx, 47			; 0000002fH
  00089	75 3c		 jne	 SHORT $LN17@GetToken
$LN5@GetToken:

; 32   : 		{
; 33   : 			while((ch != '\n') && (ch != (BYTE)EOF)) {			// 2003.09.02 H.J.I 

  0008b	0f b6 45 fb	 movzx	 eax, BYTE PTR _ch$[ebp]
  0008f	83 f8 0a	 cmp	 eax, 10			; 0000000aH
  00092	74 1e		 je	 SHORT $LN6@GetToken
  00094	0f b6 45 fb	 movzx	 eax, BYTE PTR _ch$[ebp]
  00098	3d ff 00 00 00	 cmp	 eax, 255		; 000000ffH
  0009d	74 13		 je	 SHORT $LN6@GetToken

; 34   : 				ch = (unsigned char) fgetc( SMDFile);

  0009f	a1 00 00 00 00	 mov	 eax, DWORD PTR ?SMDFile@@3PAU_iobuf@@A
  000a4	50		 push	 eax
  000a5	e8 00 00 00 00	 call	 _fgetc
  000aa	83 c4 04	 add	 esp, 4
  000ad	88 45 fb	 mov	 BYTE PTR _ch$[ebp], al

; 35   : 			}

  000b0	eb d9		 jmp	 SHORT $LN5@GetToken
$LN6@GetToken:

; 36   : 
; 37   : 			if (ch == (BYTE)EOF)

  000b2	0f b6 45 fb	 movzx	 eax, BYTE PTR _ch$[ebp]
  000b6	3d ff 00 00 00	 cmp	 eax, 255		; 000000ffH
  000bb	75 0a		 jne	 SHORT $LN17@GetToken

; 38   : 				return END;

  000bd	b8 02 00 00 00	 mov	 eax, 2
  000c2	e9 7a 02 00 00	 jmp	 $LN7@GetToken
$LN17@GetToken:

; 39   : 		}
; 40   : 	} while(  isspace(ch) );

  000c7	0f b6 45 fb	 movzx	 eax, BYTE PTR _ch$[ebp]
  000cb	50		 push	 eax
  000cc	e8 00 00 00 00	 call	 _isspace
  000d1	83 c4 04	 add	 esp, 4
  000d4	85 c0		 test	 eax, eax
  000d6	0f 85 65 ff ff
	ff		 jne	 $LN4@GetToken

; 41   : 	
; 42   : 	char *p, TempString[100];
; 43   : 	switch(ch)

  000dc	0f b6 45 fb	 movzx	 eax, BYTE PTR _ch$[ebp]
  000e0	89 85 48 ff ff
	ff		 mov	 DWORD PTR tv93[ebp], eax
  000e6	8b 8d 48 ff ff
	ff		 mov	 ecx, DWORD PTR tv93[ebp]
  000ec	83 e9 22	 sub	 ecx, 34			; 00000022H
  000ef	89 8d 48 ff ff
	ff		 mov	 DWORD PTR tv93[ebp], ecx
  000f5	83 bd 48 ff ff
	ff 5b		 cmp	 DWORD PTR tv93[ebp], 91	; 0000005bH
  000fc	0f 87 86 01 00
	00		 ja	 $LN27@GetToken
  00102	8b 95 48 ff ff
	ff		 mov	 edx, DWORD PTR tv93[ebp]
  00108	0f b6 82 00 00
	00 00		 movzx	 eax, BYTE PTR $LN33@GetToken[edx]
  0010f	ff 24 85 00 00
	00 00		 jmp	 DWORD PTR $LN34@GetToken[eax*4]
$LN18@GetToken:

; 44   : 	{	
; 45   : 	case '#':
; 46   : 		return CurrentToken = COMMAND;

  00116	c7 05 00 00 00
	00 23 00 00 00	 mov	 DWORD PTR ?CurrentToken@@3W4SMDToken@@A, 35 ; 00000023H
  00120	a1 00 00 00 00	 mov	 eax, DWORD PTR ?CurrentToken@@3W4SMDToken@@A
  00125	e9 17 02 00 00	 jmp	 $LN7@GetToken
$LN19@GetToken:

; 47   : 	case ';':
; 48   : 		return CurrentToken = SEMICOLON;

  0012a	c7 05 00 00 00
	00 3b 00 00 00	 mov	 DWORD PTR ?CurrentToken@@3W4SMDToken@@A, 59 ; 0000003bH
  00134	a1 00 00 00 00	 mov	 eax, DWORD PTR ?CurrentToken@@3W4SMDToken@@A
  00139	e9 03 02 00 00	 jmp	 $LN7@GetToken
$LN20@GetToken:

; 49   : 	case ',':
; 50   : 		return CurrentToken = COMMA;

  0013e	c7 05 00 00 00
	00 2c 00 00 00	 mov	 DWORD PTR ?CurrentToken@@3W4SMDToken@@A, 44 ; 0000002cH
  00148	a1 00 00 00 00	 mov	 eax, DWORD PTR ?CurrentToken@@3W4SMDToken@@A
  0014d	e9 ef 01 00 00	 jmp	 $LN7@GetToken
$LN21@GetToken:

; 51   : 	case '{':
; 52   : 		return CurrentToken = LP;

  00152	c7 05 00 00 00
	00 7b 00 00 00	 mov	 DWORD PTR ?CurrentToken@@3W4SMDToken@@A, 123 ; 0000007bH
  0015c	a1 00 00 00 00	 mov	 eax, DWORD PTR ?CurrentToken@@3W4SMDToken@@A
  00161	e9 db 01 00 00	 jmp	 $LN7@GetToken
$LN22@GetToken:

; 53   : 	case '}':
; 54   : 		return CurrentToken = RP;

  00166	c7 05 00 00 00
	00 7d 00 00 00	 mov	 DWORD PTR ?CurrentToken@@3W4SMDToken@@A, 125 ; 0000007dH
  00170	a1 00 00 00 00	 mov	 eax, DWORD PTR ?CurrentToken@@3W4SMDToken@@A
  00175	e9 c7 01 00 00	 jmp	 $LN7@GetToken
$LN23@GetToken:

; 55   : 	case '0':	case '1':	case '2':	case '3':	case '4':
; 56   : 	case '5':	case '6':	case '7':	case '8':	case '9':
; 57   : 	case '.':	case '-':
; 58   : 		ungetc(ch,SMDFile);

  0017a	a1 00 00 00 00	 mov	 eax, DWORD PTR ?SMDFile@@3PAU_iobuf@@A
  0017f	50		 push	 eax
  00180	0f b6 4d fb	 movzx	 ecx, BYTE PTR _ch$[ebp]
  00184	51		 push	 ecx
  00185	e8 00 00 00 00	 call	 _ungetc
  0018a	83 c4 08	 add	 esp, 8

; 59   : 		p = TempString;

  0018d	8d 45 90	 lea	 eax, DWORD PTR _TempString$[ebp]
  00190	89 45 f4	 mov	 DWORD PTR _p$[ebp], eax
$LN9@GetToken:

; 60   : 		while ( (  (ch = getc(SMDFile) ) !=(BYTE)EOF) && (ch=='.' || isdigit(ch) || ch=='-') )

  00193	a1 00 00 00 00	 mov	 eax, DWORD PTR ?SMDFile@@3PAU_iobuf@@A
  00198	50		 push	 eax
  00199	e8 00 00 00 00	 call	 _getc
  0019e	83 c4 04	 add	 esp, 4
  001a1	88 45 fb	 mov	 BYTE PTR _ch$[ebp], al
  001a4	0f b6 4d fb	 movzx	 ecx, BYTE PTR _ch$[ebp]
  001a8	81 f9 ff 00 00
	00		 cmp	 ecx, 255		; 000000ffH
  001ae	74 36		 je	 SHORT $LN10@GetToken
  001b0	0f b6 45 fb	 movzx	 eax, BYTE PTR _ch$[ebp]
  001b4	83 f8 2e	 cmp	 eax, 46			; 0000002eH
  001b7	74 1a		 je	 SHORT $LN24@GetToken
  001b9	0f b6 45 fb	 movzx	 eax, BYTE PTR _ch$[ebp]
  001bd	50		 push	 eax
  001be	e8 00 00 00 00	 call	 _isdigit
  001c3	83 c4 04	 add	 esp, 4
  001c6	85 c0		 test	 eax, eax
  001c8	75 09		 jne	 SHORT $LN24@GetToken
  001ca	0f b6 45 fb	 movzx	 eax, BYTE PTR _ch$[ebp]
  001ce	83 f8 2d	 cmp	 eax, 45			; 0000002dH
  001d1	75 13		 jne	 SHORT $LN10@GetToken
$LN24@GetToken:

; 61   : 			*p++ = ch;

  001d3	8b 45 f4	 mov	 eax, DWORD PTR _p$[ebp]
  001d6	8a 4d fb	 mov	 cl, BYTE PTR _ch$[ebp]
  001d9	88 08		 mov	 BYTE PTR [eax], cl
  001db	8b 55 f4	 mov	 edx, DWORD PTR _p$[ebp]
  001de	83 c2 01	 add	 edx, 1
  001e1	89 55 f4	 mov	 DWORD PTR _p$[ebp], edx
  001e4	eb ad		 jmp	 SHORT $LN9@GetToken
$LN10@GetToken:

; 62   : 		*p = 0;

  001e6	8b 45 f4	 mov	 eax, DWORD PTR _p$[ebp]
  001e9	c6 00 00	 mov	 BYTE PTR [eax], 0

; 63   : 		TokenNumber = (float)atof(TempString);

  001ec	8d 45 90	 lea	 eax, DWORD PTR _TempString$[ebp]
  001ef	50		 push	 eax
  001f0	e8 00 00 00 00	 call	 _atof
  001f5	83 c4 04	 add	 esp, 4
  001f8	d9 1d 00 00 00
	00		 fstp	 DWORD PTR ?TokenNumber@@3MA

; 64   : 		//			sscanf(TempString," %f ",&TokenNumber);
; 65   : 		return CurrentToken = NUMBER;

  001fe	c7 05 00 00 00
	00 01 00 00 00	 mov	 DWORD PTR ?CurrentToken@@3W4SMDToken@@A, 1
  00208	a1 00 00 00 00	 mov	 eax, DWORD PTR ?CurrentToken@@3W4SMDToken@@A
  0020d	e9 2f 01 00 00	 jmp	 $LN7@GetToken
$LN25@GetToken:

; 66   : 	case '"':
; 67   : 		p = TokenString;

  00212	c7 45 f4 00 00
	00 00		 mov	 DWORD PTR _p$[ebp], OFFSET ?TokenString@@3PADA
$LN11@GetToken:

; 68   : 		while ( (  (ch = getc(SMDFile) ) !=(BYTE)EOF) && (ch!='"'))// || isalnum(ch)) )

  00219	a1 00 00 00 00	 mov	 eax, DWORD PTR ?SMDFile@@3PAU_iobuf@@A
  0021e	50		 push	 eax
  0021f	e8 00 00 00 00	 call	 _getc
  00224	83 c4 04	 add	 esp, 4
  00227	88 45 fb	 mov	 BYTE PTR _ch$[ebp], al
  0022a	0f b6 4d fb	 movzx	 ecx, BYTE PTR _ch$[ebp]
  0022e	81 f9 ff 00 00
	00		 cmp	 ecx, 255		; 000000ffH
  00234	74 1c		 je	 SHORT $LN12@GetToken
  00236	0f b6 45 fb	 movzx	 eax, BYTE PTR _ch$[ebp]
  0023a	83 f8 22	 cmp	 eax, 34			; 00000022H
  0023d	74 13		 je	 SHORT $LN12@GetToken

; 69   : 			*p++ = ch;

  0023f	8b 45 f4	 mov	 eax, DWORD PTR _p$[ebp]
  00242	8a 4d fb	 mov	 cl, BYTE PTR _ch$[ebp]
  00245	88 08		 mov	 BYTE PTR [eax], cl
  00247	8b 55 f4	 mov	 edx, DWORD PTR _p$[ebp]
  0024a	83 c2 01	 add	 edx, 1
  0024d	89 55 f4	 mov	 DWORD PTR _p$[ebp], edx
  00250	eb c7		 jmp	 SHORT $LN11@GetToken
$LN12@GetToken:

; 70   : 		if (ch!='"')

  00252	0f b6 45 fb	 movzx	 eax, BYTE PTR _ch$[ebp]
  00256	83 f8 22	 cmp	 eax, 34			; 00000022H
  00259	74 13		 je	 SHORT $LN26@GetToken

; 71   : 			ungetc(ch,SMDFile);

  0025b	a1 00 00 00 00	 mov	 eax, DWORD PTR ?SMDFile@@3PAU_iobuf@@A
  00260	50		 push	 eax
  00261	0f b6 4d fb	 movzx	 ecx, BYTE PTR _ch$[ebp]
  00265	51		 push	 ecx
  00266	e8 00 00 00 00	 call	 _ungetc
  0026b	83 c4 08	 add	 esp, 8
$LN26@GetToken:

; 72   : 		*p = 0;

  0026e	8b 45 f4	 mov	 eax, DWORD PTR _p$[ebp]
  00271	c6 00 00	 mov	 BYTE PTR [eax], 0

; 73   : 		return CurrentToken = NAME;

  00274	c7 05 00 00 00
	00 00 00 00 00	 mov	 DWORD PTR ?CurrentToken@@3W4SMDToken@@A, 0
  0027e	a1 00 00 00 00	 mov	 eax, DWORD PTR ?CurrentToken@@3W4SMDToken@@A
  00283	e9 b9 00 00 00	 jmp	 $LN7@GetToken
$LN27@GetToken:

; 74   : 	default:
; 75   : 		if (isalpha(ch))	

  00288	0f b6 45 fb	 movzx	 eax, BYTE PTR _ch$[ebp]
  0028c	50		 push	 eax
  0028d	e8 00 00 00 00	 call	 _isalpha
  00292	83 c4 04	 add	 esp, 4
  00295	85 c0		 test	 eax, eax
  00297	0f 84 95 00 00
	00		 je	 $LN28@GetToken

; 76   : 		{
; 77   : 			p = TokenString;

  0029d	c7 45 f4 00 00
	00 00		 mov	 DWORD PTR _p$[ebp], OFFSET ?TokenString@@3PADA

; 78   : 			*p++ = ch;

  002a4	8b 45 f4	 mov	 eax, DWORD PTR _p$[ebp]
  002a7	8a 4d fb	 mov	 cl, BYTE PTR _ch$[ebp]
  002aa	88 08		 mov	 BYTE PTR [eax], cl
  002ac	8b 55 f4	 mov	 edx, DWORD PTR _p$[ebp]
  002af	83 c2 01	 add	 edx, 1
  002b2	89 55 f4	 mov	 DWORD PTR _p$[ebp], edx
$LN13@GetToken:

; 79   : 			while ( (  (ch = getc(SMDFile) ) !=(BYTE)EOF) && (ch=='.' || ch=='_' || isalnum(ch)) )

  002b5	a1 00 00 00 00	 mov	 eax, DWORD PTR ?SMDFile@@3PAU_iobuf@@A
  002ba	50		 push	 eax
  002bb	e8 00 00 00 00	 call	 _getc
  002c0	83 c4 04	 add	 esp, 4
  002c3	88 45 fb	 mov	 BYTE PTR _ch$[ebp], al
  002c6	0f b6 4d fb	 movzx	 ecx, BYTE PTR _ch$[ebp]
  002ca	81 f9 ff 00 00
	00		 cmp	 ecx, 255		; 000000ffH
  002d0	74 36		 je	 SHORT $LN14@GetToken
  002d2	0f b6 45 fb	 movzx	 eax, BYTE PTR _ch$[ebp]
  002d6	83 f8 2e	 cmp	 eax, 46			; 0000002eH
  002d9	74 1a		 je	 SHORT $LN29@GetToken
  002db	0f b6 45 fb	 movzx	 eax, BYTE PTR _ch$[ebp]
  002df	83 f8 5f	 cmp	 eax, 95			; 0000005fH
  002e2	74 11		 je	 SHORT $LN29@GetToken
  002e4	0f b6 45 fb	 movzx	 eax, BYTE PTR _ch$[ebp]
  002e8	50		 push	 eax
  002e9	e8 00 00 00 00	 call	 _isalnum
  002ee	83 c4 04	 add	 esp, 4
  002f1	85 c0		 test	 eax, eax
  002f3	74 13		 je	 SHORT $LN14@GetToken
$LN29@GetToken:

; 80   : 				*p++ = ch;

  002f5	8b 45 f4	 mov	 eax, DWORD PTR _p$[ebp]
  002f8	8a 4d fb	 mov	 cl, BYTE PTR _ch$[ebp]
  002fb	88 08		 mov	 BYTE PTR [eax], cl
  002fd	8b 55 f4	 mov	 edx, DWORD PTR _p$[ebp]
  00300	83 c2 01	 add	 edx, 1
  00303	89 55 f4	 mov	 DWORD PTR _p$[ebp], edx
  00306	eb ad		 jmp	 SHORT $LN13@GetToken
$LN14@GetToken:

; 81   : 			ungetc(ch,SMDFile);

  00308	a1 00 00 00 00	 mov	 eax, DWORD PTR ?SMDFile@@3PAU_iobuf@@A
  0030d	50		 push	 eax
  0030e	0f b6 4d fb	 movzx	 ecx, BYTE PTR _ch$[ebp]
  00312	51		 push	 ecx
  00313	e8 00 00 00 00	 call	 _ungetc
  00318	83 c4 08	 add	 esp, 8

; 82   : 			*p = 0;

  0031b	8b 45 f4	 mov	 eax, DWORD PTR _p$[ebp]
  0031e	c6 00 00	 mov	 BYTE PTR [eax], 0

; 83   : 			return CurrentToken = NAME;

  00321	c7 05 00 00 00
	00 00 00 00 00	 mov	 DWORD PTR ?CurrentToken@@3W4SMDToken@@A, 0
  0032b	a1 00 00 00 00	 mov	 eax, DWORD PTR ?CurrentToken@@3W4SMDToken@@A
  00330	eb 0f		 jmp	 SHORT $LN7@GetToken
$LN28@GetToken:

; 84   : 		}
; 85   : 		return CurrentToken = SMD_ERROR;

  00332	c7 05 00 00 00
	00 3c 00 00 00	 mov	 DWORD PTR ?CurrentToken@@3W4SMDToken@@A, 60 ; 0000003cH
  0033c	a1 00 00 00 00	 mov	 eax, DWORD PTR ?CurrentToken@@3W4SMDToken@@A
$LN7@GetToken:

; 86   : 	}
; 87   : }

  00341	5f		 pop	 edi
  00342	5e		 pop	 esi
  00343	5b		 pop	 ebx
  00344	8b 4d fc	 mov	 ecx, DWORD PTR __$ArrayPad$[ebp]
  00347	33 cd		 xor	 ecx, ebp
  00349	e8 00 00 00 00	 call	 @__security_check_cookie@4
  0034e	8b e5		 mov	 esp, ebp
  00350	5d		 pop	 ebp
  00351	c3		 ret	 0
  00352	66 90		 npad	 2
$LN34@GetToken:
  00354	00 00 00 00	 DD	 $LN25@GetToken
  00358	00 00 00 00	 DD	 $LN18@GetToken
  0035c	00 00 00 00	 DD	 $LN20@GetToken
  00360	00 00 00 00	 DD	 $LN23@GetToken
  00364	00 00 00 00	 DD	 $LN19@GetToken
  00368	00 00 00 00	 DD	 $LN21@GetToken
  0036c	00 00 00 00	 DD	 $LN22@GetToken
  00370	00 00 00 00	 DD	 $LN27@GetToken
$LN33@GetToken:
  00374	00		 DB	 0
  00375	01		 DB	 1
  00376	07		 DB	 7
  00377	07		 DB	 7
  00378	07		 DB	 7
  00379	07		 DB	 7
  0037a	07		 DB	 7
  0037b	07		 DB	 7
  0037c	07		 DB	 7
  0037d	07		 DB	 7
  0037e	02		 DB	 2
  0037f	03		 DB	 3
  00380	03		 DB	 3
  00381	07		 DB	 7
  00382	03		 DB	 3
  00383	03		 DB	 3
  00384	03		 DB	 3
  00385	03		 DB	 3
  00386	03		 DB	 3
  00387	03		 DB	 3
  00388	03		 DB	 3
  00389	03		 DB	 3
  0038a	03		 DB	 3
  0038b	03		 DB	 3
  0038c	07		 DB	 7
  0038d	04		 DB	 4
  0038e	07		 DB	 7
  0038f	07		 DB	 7
  00390	07		 DB	 7
  00391	07		 DB	 7
  00392	07		 DB	 7
  00393	07		 DB	 7
  00394	07		 DB	 7
  00395	07		 DB	 7
  00396	07		 DB	 7
  00397	07		 DB	 7
  00398	07		 DB	 7
  00399	07		 DB	 7
  0039a	07		 DB	 7
  0039b	07		 DB	 7
  0039c	07		 DB	 7
  0039d	07		 DB	 7
  0039e	07		 DB	 7
  0039f	07		 DB	 7
  003a0	07		 DB	 7
  003a1	07		 DB	 7
  003a2	07		 DB	 7
  003a3	07		 DB	 7
  003a4	07		 DB	 7
  003a5	07		 DB	 7
  003a6	07		 DB	 7
  003a7	07		 DB	 7
  003a8	07		 DB	 7
  003a9	07		 DB	 7
  003aa	07		 DB	 7
  003ab	07		 DB	 7
  003ac	07		 DB	 7
  003ad	07		 DB	 7
  003ae	07		 DB	 7
  003af	07		 DB	 7
  003b0	07		 DB	 7
  003b1	07		 DB	 7
  003b2	07		 DB	 7
  003b3	07		 DB	 7
  003b4	07		 DB	 7
  003b5	07		 DB	 7
  003b6	07		 DB	 7
  003b7	07		 DB	 7
  003b8	07		 DB	 7
  003b9	07		 DB	 7
  003ba	07		 DB	 7
  003bb	07		 DB	 7
  003bc	07		 DB	 7
  003bd	07		 DB	 7
  003be	07		 DB	 7
  003bf	07		 DB	 7
  003c0	07		 DB	 7
  003c1	07		 DB	 7
  003c2	07		 DB	 7
  003c3	07		 DB	 7
  003c4	07		 DB	 7
  003c5	07		 DB	 7
  003c6	07		 DB	 7
  003c7	07		 DB	 7
  003c8	07		 DB	 7
  003c9	07		 DB	 7
  003ca	07		 DB	 7
  003cb	07		 DB	 7
  003cc	07		 DB	 7
  003cd	05		 DB	 5
  003ce	07		 DB	 7
  003cf	06		 DB	 6
?GetToken@@YA?AW4SMDToken@@XZ ENDP			; GetToken
_TEXT	ENDS
; Function compile flags: /Odtp /ZI
; File C:\Program Files (x86)\Microsoft Visual Studio\2019\Community\VC\Tools\MSVC\14.27.29110\include\xmemory
;	COMDAT ??$_Allocate_manually_vector_aligned@U_Default_allocate_traits@std@@@std@@YAPAXI@Z
_TEXT	SEGMENT
__Ptr$ = -12						; size = 4
__Ptr_container$ = -8					; size = 4
__Block_size$ = -4					; size = 4
__Bytes$ = 8						; size = 4
??$_Allocate_manually_vector_aligned@U_Default_allocate_traits@std@@@std@@YAPAXI@Z PROC ; std::_Allocate_manually_vector_aligned<std::_Default_allocate_traits>, COMDAT

; 113  : __declspec(allocator) void* _Allocate_manually_vector_aligned(const size_t _Bytes) {

  00000	55		 push	 ebp
  00001	8b ec		 mov	 ebp, esp
  00003	83 ec 4c	 sub	 esp, 76			; 0000004cH
  00006	53		 push	 ebx
  00007	56		 push	 esi
  00008	57		 push	 edi

; 114  :     // allocate _Bytes manually aligned to at least _Big_allocation_alignment
; 115  :     const size_t _Block_size = _Non_user_size + _Bytes;

  00009	8b 45 08	 mov	 eax, DWORD PTR __Bytes$[ebp]
  0000c	83 c0 23	 add	 eax, 35			; 00000023H
  0000f	89 45 fc	 mov	 DWORD PTR __Block_size$[ebp], eax

; 116  :     if (_Block_size <= _Bytes) {

  00012	8b 45 fc	 mov	 eax, DWORD PTR __Block_size$[ebp]
  00015	3b 45 08	 cmp	 eax, DWORD PTR __Bytes$[ebp]
  00018	77 05		 ja	 SHORT $LN8@Allocate_m

; 117  :         _Throw_bad_array_new_length(); // add overflow

  0001a	e8 00 00 00 00	 call	 ?_Throw_bad_array_new_length@std@@YAXXZ ; std::_Throw_bad_array_new_length
$LN8@Allocate_m:

; 118  :     }
; 119  : 
; 120  :     const uintptr_t _Ptr_container = reinterpret_cast<uintptr_t>(_Traits::_Allocate(_Block_size));

  0001f	8b 45 fc	 mov	 eax, DWORD PTR __Block_size$[ebp]
  00022	50		 push	 eax
  00023	e8 00 00 00 00	 call	 ?_Allocate@_Default_allocate_traits@std@@SAPAXI@Z ; std::_Default_allocate_traits::_Allocate
  00028	83 c4 04	 add	 esp, 4
  0002b	89 45 f8	 mov	 DWORD PTR __Ptr_container$[ebp], eax
$LN4@Allocate_m:

; 121  :     _STL_VERIFY(_Ptr_container != 0, "invalid argument"); // validate even in release since we're doing p[-1]

  0002e	83 7d f8 00	 cmp	 DWORD PTR __Ptr_container$[ebp], 0
  00032	74 02		 je	 SHORT $LN7@Allocate_m
  00034	eb 09		 jmp	 SHORT $LN2@Allocate_m
$LN7@Allocate_m:
  00036	e8 00 00 00 00	 call	 __invalid_parameter_noinfo_noreturn
  0003b	33 c0		 xor	 eax, eax
  0003d	75 f7		 jne	 SHORT $LN7@Allocate_m
$LN2@Allocate_m:
  0003f	33 c0		 xor	 eax, eax
  00041	75 eb		 jne	 SHORT $LN4@Allocate_m

; 122  :     void* const _Ptr = reinterpret_cast<void*>((_Ptr_container + _Non_user_size) & ~(_Big_allocation_alignment - 1));

  00043	8b 45 f8	 mov	 eax, DWORD PTR __Ptr_container$[ebp]
  00046	83 c0 23	 add	 eax, 35			; 00000023H
  00049	83 e0 e0	 and	 eax, -32		; ffffffe0H
  0004c	89 45 f4	 mov	 DWORD PTR __Ptr$[ebp], eax

; 123  :     static_cast<uintptr_t*>(_Ptr)[-1] = _Ptr_container;

  0004f	b8 04 00 00 00	 mov	 eax, 4
  00054	6b c8 ff	 imul	 ecx, eax, -1
  00057	8b 55 f4	 mov	 edx, DWORD PTR __Ptr$[ebp]
  0005a	8b 45 f8	 mov	 eax, DWORD PTR __Ptr_container$[ebp]
  0005d	89 04 0a	 mov	 DWORD PTR [edx+ecx], eax

; 124  : 
; 125  : #ifdef _DEBUG
; 126  :     static_cast<uintptr_t*>(_Ptr)[-2] = _Big_allocation_sentinel;
; 127  : #endif // _DEBUG
; 128  :     return _Ptr;

  00060	8b 45 f4	 mov	 eax, DWORD PTR __Ptr$[ebp]
$LN11@Allocate_m:

; 129  : }

  00063	5f		 pop	 edi
  00064	5e		 pop	 esi
  00065	5b		 pop	 ebx
  00066	8b e5		 mov	 esp, ebp
  00068	5d		 pop	 ebp
  00069	c3		 ret	 0
??$_Allocate_manually_vector_aligned@U_Default_allocate_traits@std@@@std@@YAPAXI@Z ENDP ; std::_Allocate_manually_vector_aligned<std::_Default_allocate_traits>
_TEXT	ENDS
; Function compile flags: /Odtp /ZI
; File C:\Program Files (x86)\Microsoft Visual Studio\2019\Community\VC\Tools\MSVC\14.27.29110\include\xmemory
;	COMDAT ??$_Allocate@$07U_Default_allocate_traits@std@@$0A@@std@@YAPAXI@Z
_TEXT	SEGMENT
__Bytes$ = 8						; size = 4
??$_Allocate@$07U_Default_allocate_traits@std@@$0A@@std@@YAPAXI@Z PROC ; std::_Allocate<8,std::_Default_allocate_traits,0>, COMDAT

; 197  : __declspec(allocator) void* _Allocate(const size_t _Bytes) {

  00000	55		 push	 ebp
  00001	8b ec		 mov	 ebp, esp
  00003	83 ec 40	 sub	 esp, 64			; 00000040H
  00006	53		 push	 ebx
  00007	56		 push	 esi
  00008	57		 push	 edi

; 198  :     // allocate _Bytes when !_HAS_ALIGNED_NEW || _Align <= __STDCPP_DEFAULT_NEW_ALIGNMENT__
; 199  : #if defined(_M_IX86) || defined(_M_X64)
; 200  :     if (_Bytes >= _Big_allocation_threshold) { // boost the alignment of big allocations to help autovectorization

  00009	81 7d 08 00 10
	00 00		 cmp	 DWORD PTR __Bytes$[ebp], 4096 ; 00001000H
  00010	72 0e		 jb	 SHORT $LN2@Allocate

; 201  :         return _Allocate_manually_vector_aligned<_Traits>(_Bytes);

  00012	8b 45 08	 mov	 eax, DWORD PTR __Bytes$[ebp]
  00015	50		 push	 eax
  00016	e8 00 00 00 00	 call	 ??$_Allocate_manually_vector_aligned@U_Default_allocate_traits@std@@@std@@YAPAXI@Z ; std::_Allocate_manually_vector_aligned<std::_Default_allocate_traits>
  0001b	83 c4 04	 add	 esp, 4
  0001e	eb 16		 jmp	 SHORT $LN1@Allocate
$LN2@Allocate:

; 202  :     }
; 203  : #endif // defined(_M_IX86) || defined(_M_X64)
; 204  : 
; 205  :     if (_Bytes != 0) {

  00020	83 7d 08 00	 cmp	 DWORD PTR __Bytes$[ebp], 0
  00024	74 0e		 je	 SHORT $LN3@Allocate

; 206  :         return _Traits::_Allocate(_Bytes);

  00026	8b 45 08	 mov	 eax, DWORD PTR __Bytes$[ebp]
  00029	50		 push	 eax
  0002a	e8 00 00 00 00	 call	 ?_Allocate@_Default_allocate_traits@std@@SAPAXI@Z ; std::_Default_allocate_traits::_Allocate
  0002f	83 c4 04	 add	 esp, 4
  00032	eb 02		 jmp	 SHORT $LN1@Allocate
$LN3@Allocate:

; 207  :     }
; 208  : 
; 209  :     return nullptr;

  00034	33 c0		 xor	 eax, eax
$LN1@Allocate:

; 210  : }

  00036	5f		 pop	 edi
  00037	5e		 pop	 esi
  00038	5b		 pop	 ebx
  00039	8b e5		 mov	 esp, ebp
  0003b	5d		 pop	 ebp
  0003c	c3		 ret	 0
??$_Allocate@$07U_Default_allocate_traits@std@@$0A@@std@@YAPAXI@Z ENDP ; std::_Allocate<8,std::_Default_allocate_traits,0>
_TEXT	ENDS
; Function compile flags: /Odtp /ZI
; File C:\Program Files (x86)\Microsoft Visual Studio\2019\Community\VC\Tools\MSVC\14.27.29110\include\xmemory
;	COMDAT ??$_Deallocate@$07$0A@@std@@YAXPAXI@Z
_TEXT	SEGMENT
__$EHRec$ = -12						; size = 12
__Ptr$ = 8						; size = 4
__Bytes$ = 12						; size = 4
??$_Deallocate@$07$0A@@std@@YAXPAXI@Z PROC		; std::_Deallocate<8,0>, COMDAT

; 213  : void _Deallocate(void* _Ptr, size_t _Bytes) noexcept {

  00000	55		 push	 ebp
  00001	8b ec		 mov	 ebp, esp
  00003	6a ff		 push	 -1
  00005	68 00 00 00 00	 push	 __ehhandler$??$_Deallocate@$07$0A@@std@@YAXPAXI@Z
  0000a	64 a1 00 00 00
	00		 mov	 eax, DWORD PTR fs:0
  00010	50		 push	 eax
  00011	83 ec 40	 sub	 esp, 64			; 00000040H
  00014	53		 push	 ebx
  00015	56		 push	 esi
  00016	57		 push	 edi
  00017	a1 00 00 00 00	 mov	 eax, DWORD PTR ___security_cookie
  0001c	33 c5		 xor	 eax, ebp
  0001e	50		 push	 eax
  0001f	8d 45 f4	 lea	 eax, DWORD PTR __$EHRec$[ebp]
  00022	64 a3 00 00 00
	00		 mov	 DWORD PTR fs:0, eax

; 214  :     // deallocate storage allocated by _Allocate when !_HAS_ALIGNED_NEW || _Align <= __STDCPP_DEFAULT_NEW_ALIGNMENT__
; 215  : #if defined(_M_IX86) || defined(_M_X64)
; 216  :     if (_Bytes >= _Big_allocation_threshold) { // boost the alignment of big allocations to help autovectorization

  00028	81 7d 0c 00 10
	00 00		 cmp	 DWORD PTR __Bytes$[ebp], 4096 ; 00001000H
  0002f	72 10		 jb	 SHORT $LN2@Deallocate

; 217  :         _Adjust_manually_vector_aligned(_Ptr, _Bytes);

  00031	8d 45 0c	 lea	 eax, DWORD PTR __Bytes$[ebp]
  00034	50		 push	 eax
  00035	8d 4d 08	 lea	 ecx, DWORD PTR __Ptr$[ebp]
  00038	51		 push	 ecx
  00039	e8 00 00 00 00	 call	 ?_Adjust_manually_vector_aligned@std@@YAXAAPAXAAI@Z ; std::_Adjust_manually_vector_aligned
  0003e	83 c4 08	 add	 esp, 8
$LN2@Deallocate:

; 218  :     }
; 219  : #endif // defined(_M_IX86) || defined(_M_X64)
; 220  : 
; 221  :     ::operator delete(_Ptr, _Bytes);

  00041	8b 45 0c	 mov	 eax, DWORD PTR __Bytes$[ebp]
  00044	50		 push	 eax
  00045	8b 4d 08	 mov	 ecx, DWORD PTR __Ptr$[ebp]
  00048	51		 push	 ecx
  00049	e8 00 00 00 00	 call	 ??3@YAXPAXI@Z		; operator delete
  0004e	83 c4 08	 add	 esp, 8

; 222  : }

  00051	8b 4d f4	 mov	 ecx, DWORD PTR __$EHRec$[ebp]
  00054	64 89 0d 00 00
	00 00		 mov	 DWORD PTR fs:0, ecx
  0005b	59		 pop	 ecx
  0005c	5f		 pop	 edi
  0005d	5e		 pop	 esi
  0005e	5b		 pop	 ebx
  0005f	8b e5		 mov	 esp, ebp
  00061	5d		 pop	 ebp
  00062	c3		 ret	 0
  00063	cc		 int	 3
  00064	cc		 int	 3
  00065	cc		 int	 3
  00066	cc		 int	 3
  00067	cc		 int	 3
_TEXT	ENDS
;	COMDAT text$x
text$x	SEGMENT
__ehhandler$??$_Deallocate@$07$0A@@std@@YAXPAXI@Z:
  00000	90		 npad	 1
  00001	90		 npad	 1
  00002	8b 54 24 08	 mov	 edx, DWORD PTR [esp+8]
  00006	8d 42 0c	 lea	 eax, DWORD PTR [edx+12]
  00009	8b 4a b0	 mov	 ecx, DWORD PTR [edx-80]
  0000c	33 c8		 xor	 ecx, eax
  0000e	e8 00 00 00 00	 call	 @__security_check_cookie@4
  00013	b8 00 00 00 00	 mov	 eax, OFFSET __ehfuncinfo$??$_Deallocate@$07$0A@@std@@YAXPAXI@Z
  00018	e9 00 00 00 00	 jmp	 ___CxxFrameHandler3
text$x	ENDS
??$_Deallocate@$07$0A@@std@@YAXPAXI@Z ENDP		; std::_Deallocate<8,0>
; Function compile flags: /Odtp /ZI
; File C:\Program Files (x86)\Microsoft Visual Studio\2019\Community\VC\Tools\MSVC\14.27.29110\include\utility
;	COMDAT ??$min@I@std@@YAABIABI0@Z
_TEXT	SEGMENT
tv65 = -72						; size = 4
$T1 = -68						; size = 4
__Left$ = 8						; size = 4
__Right$ = 12						; size = 4
??$min@I@std@@YAABIABI0@Z PROC				; std::min<unsigned int>, COMDAT

; 67   :     const _Ty& _Left, const _Ty& _Right) noexcept(noexcept(_Right < _Left)) /* strengthened */ {

  00000	55		 push	 ebp
  00001	8b ec		 mov	 ebp, esp
  00003	83 ec 48	 sub	 esp, 72			; 00000048H
  00006	53		 push	 ebx
  00007	56		 push	 esi
  00008	57		 push	 edi

; 68   :     // return smaller of _Left and _Right
; 69   :     return _Right < _Left ? _Right : _Left;

  00009	8b 45 0c	 mov	 eax, DWORD PTR __Right$[ebp]
  0000c	8b 4d 08	 mov	 ecx, DWORD PTR __Left$[ebp]
  0000f	8b 10		 mov	 edx, DWORD PTR [eax]
  00011	3b 11		 cmp	 edx, DWORD PTR [ecx]
  00013	73 08		 jae	 SHORT $LN3@min
  00015	8b 45 0c	 mov	 eax, DWORD PTR __Right$[ebp]
  00018	89 45 b8	 mov	 DWORD PTR tv65[ebp], eax
  0001b	eb 06		 jmp	 SHORT $LN4@min
$LN3@min:
  0001d	8b 4d 08	 mov	 ecx, DWORD PTR __Left$[ebp]
  00020	89 4d b8	 mov	 DWORD PTR tv65[ebp], ecx
$LN4@min:
  00023	8b 55 b8	 mov	 edx, DWORD PTR tv65[ebp]
  00026	89 55 bc	 mov	 DWORD PTR $T1[ebp], edx
  00029	8b 45 bc	 mov	 eax, DWORD PTR $T1[ebp]

; 70   : }

  0002c	5f		 pop	 edi
  0002d	5e		 pop	 esi
  0002e	5b		 pop	 ebx
  0002f	8b e5		 mov	 esp, ebp
  00031	5d		 pop	 ebp
  00032	c3		 ret	 0
??$min@I@std@@YAABIABI0@Z ENDP				; std::min<unsigned int>
_TEXT	ENDS
; Function compile flags: /Odtp /ZI
;	COMDAT ??1CDynamicExperience@@QAE@XZ
_TEXT	SEGMENT
_this$ = -4						; size = 4
??1CDynamicExperience@@QAE@XZ PROC			; CDynamicExperience::~CDynamicExperience, COMDAT
; _this$ = ecx
  00000	55		 push	 ebp
  00001	8b ec		 mov	 ebp, esp
  00003	83 ec 44	 sub	 esp, 68			; 00000044H
  00006	53		 push	 ebx
  00007	56		 push	 esi
  00008	57		 push	 edi
  00009	89 4d fc	 mov	 DWORD PTR _this$[ebp], ecx
  0000c	8b 4d fc	 mov	 ecx, DWORD PTR _this$[ebp]
  0000f	e8 00 00 00 00	 call	 ??1?$vector@VCDynamicExperienceData@@V?$allocator@VCDynamicExperienceData@@@std@@@std@@QAE@XZ ; std::vector<CDynamicExperienceData,std::allocator<CDynamicExperienceData> >::~vector<CDynamicExperienceData,std::allocator<CDynamicExperienceData> >
  00014	5f		 pop	 edi
  00015	5e		 pop	 esi
  00016	5b		 pop	 ebx
  00017	8b e5		 mov	 esp, ebp
  00019	5d		 pop	 ebp
  0001a	c3		 ret	 0
??1CDynamicExperience@@QAE@XZ ENDP			; CDynamicExperience::~CDynamicExperience
_TEXT	ENDS
; Function compile flags: /Odtp /ZI
;	COMDAT ??0CDynamicExperience@@QAE@XZ
_TEXT	SEGMENT
_this$ = -4						; size = 4
??0CDynamicExperience@@QAE@XZ PROC			; CDynamicExperience::CDynamicExperience, COMDAT
; _this$ = ecx
  00000	55		 push	 ebp
  00001	8b ec		 mov	 ebp, esp
  00003	83 ec 44	 sub	 esp, 68			; 00000044H
  00006	53		 push	 ebx
  00007	56		 push	 esi
  00008	57		 push	 edi
  00009	89 4d fc	 mov	 DWORD PTR _this$[ebp], ecx
  0000c	8b 4d fc	 mov	 ecx, DWORD PTR _this$[ebp]
  0000f	e8 00 00 00 00	 call	 ??0?$vector@VCDynamicExperienceData@@V?$allocator@VCDynamicExperienceData@@@std@@@std@@QAE@XZ ; std::vector<CDynamicExperienceData,std::allocator<CDynamicExperienceData> >::vector<CDynamicExperienceData,std::allocator<CDynamicExperienceData> >
  00014	8b 45 fc	 mov	 eax, DWORD PTR _this$[ebp]
  00017	5f		 pop	 edi
  00018	5e		 pop	 esi
  00019	5b		 pop	 ebx
  0001a	8b e5		 mov	 esp, ebp
  0001c	5d		 pop	 ebp
  0001d	c3		 ret	 0
??0CDynamicExperience@@QAE@XZ ENDP			; CDynamicExperience::CDynamicExperience
_TEXT	ENDS
; Function compile flags: /Odtp /ZI
; File C:\Program Files (x86)\Microsoft Visual Studio\2019\Community\VC\Tools\MSVC\14.27.29110\include\xmemory
;	COMDAT ?_Get_first@?$_Compressed_pair@V?$allocator@VCDynamicExperienceData@@@std@@V?$_Vector_val@U?$_Simple_types@VCDynamicExperienceData@@@std@@@2@$00@std@@QBEABV?$allocator@VCDynamicExperienceData@@@2@XZ
_TEXT	SEGMENT
_this$ = -4						; size = 4
?_Get_first@?$_Compressed_pair@V?$allocator@VCDynamicExperienceData@@@std@@V?$_Vector_val@U?$_Simple_types@VCDynamicExperienceData@@@std@@@2@$00@std@@QBEABV?$allocator@VCDynamicExperienceData@@@2@XZ PROC ; std::_Compressed_pair<std::allocator<CDynamicExperienceData>,std::_Vector_val<std::_Simple_types<CDynamicExperienceData> >,1>::_Get_first, COMDAT
; _this$ = ecx

; 1347 :     constexpr const _Ty1& _Get_first() const noexcept {

  00000	55		 push	 ebp
  00001	8b ec		 mov	 ebp, esp
  00003	83 ec 44	 sub	 esp, 68			; 00000044H
  00006	53		 push	 ebx
  00007	56		 push	 esi
  00008	57		 push	 edi
  00009	89 4d fc	 mov	 DWORD PTR _this$[ebp], ecx

; 1348 :         return *this;

  0000c	8b 45 fc	 mov	 eax, DWORD PTR _this$[ebp]

; 1349 :     }

  0000f	5f		 pop	 edi
  00010	5e		 pop	 esi
  00011	5b		 pop	 ebx
  00012	8b e5		 mov	 esp, ebp
  00014	5d		 pop	 ebp
  00015	c3		 ret	 0
?_Get_first@?$_Compressed_pair@V?$allocator@VCDynamicExperienceData@@@std@@V?$_Vector_val@U?$_Simple_types@VCDynamicExperienceData@@@std@@@2@$00@std@@QBEABV?$allocator@VCDynamicExperienceData@@@2@XZ ENDP ; std::_Compressed_pair<std::allocator<CDynamicExperienceData>,std::_Vector_val<std::_Simple_types<CDynamicExperienceData> >,1>::_Get_first
_TEXT	ENDS
; Function compile flags: /Odtp /ZI
; File C:\Program Files (x86)\Microsoft Visual Studio\2019\Community\VC\Tools\MSVC\14.27.29110\include\xmemory
;	COMDAT ?_Get_first@?$_Compressed_pair@V?$allocator@VCDynamicExperienceData@@@std@@V?$_Vector_val@U?$_Simple_types@VCDynamicExperienceData@@@std@@@2@$00@std@@QAEAAV?$allocator@VCDynamicExperienceData@@@2@XZ
_TEXT	SEGMENT
_this$ = -4						; size = 4
?_Get_first@?$_Compressed_pair@V?$allocator@VCDynamicExperienceData@@@std@@V?$_Vector_val@U?$_Simple_types@VCDynamicExperienceData@@@std@@@2@$00@std@@QAEAAV?$allocator@VCDynamicExperienceData@@@2@XZ PROC ; std::_Compressed_pair<std::allocator<CDynamicExperienceData>,std::_Vector_val<std::_Simple_types<CDynamicExperienceData> >,1>::_Get_first, COMDAT
; _this$ = ecx

; 1343 :     constexpr _Ty1& _Get_first() noexcept {

  00000	55		 push	 ebp
  00001	8b ec		 mov	 ebp, esp
  00003	83 ec 44	 sub	 esp, 68			; 00000044H
  00006	53		 push	 ebx
  00007	56		 push	 esi
  00008	57		 push	 edi
  00009	89 4d fc	 mov	 DWORD PTR _this$[ebp], ecx

; 1344 :         return *this;

  0000c	8b 45 fc	 mov	 eax, DWORD PTR _this$[ebp]

; 1345 :     }

  0000f	5f		 pop	 edi
  00010	5e		 pop	 esi
  00011	5b		 pop	 ebx
  00012	8b e5		 mov	 esp, ebp
  00014	5d		 pop	 ebp
  00015	c3		 ret	 0
?_Get_first@?$_Compressed_pair@V?$allocator@VCDynamicExperienceData@@@std@@V?$_Vector_val@U?$_Simple_types@VCDynamicExperienceData@@@std@@@2@$00@std@@QAEAAV?$allocator@VCDynamicExperienceData@@@2@XZ ENDP ; std::_Compressed_pair<std::allocator<CDynamicExperienceData>,std::_Vector_val<std::_Simple_types<CDynamicExperienceData> >,1>::_Get_first
_TEXT	ENDS
; Function compile flags: /Odtp /ZI
; File C:\Program Files (x86)\Microsoft Visual Studio\2019\Community\VC\Tools\MSVC\14.27.29110\include\vector
;	COMDAT ??0?$_Vector_val@U?$_Simple_types@VCDynamicExperienceData@@@std@@@std@@QAE@XZ
_TEXT	SEGMENT
_this$ = -4						; size = 4
??0?$_Vector_val@U?$_Simple_types@VCDynamicExperienceData@@@std@@@std@@QAE@XZ PROC ; std::_Vector_val<std::_Simple_types<CDynamicExperienceData> >::_Vector_val<std::_Simple_types<CDynamicExperienceData> >, COMDAT
; _this$ = ecx

; 375  :     _Vector_val() noexcept : _Myfirst(), _Mylast(), _Myend() {}

  00000	55		 push	 ebp
  00001	8b ec		 mov	 ebp, esp
  00003	83 ec 44	 sub	 esp, 68			; 00000044H
  00006	53		 push	 ebx
  00007	56		 push	 esi
  00008	57		 push	 edi
  00009	89 4d fc	 mov	 DWORD PTR _this$[ebp], ecx
  0000c	8b 45 fc	 mov	 eax, DWORD PTR _this$[ebp]
  0000f	c7 00 00 00 00
	00		 mov	 DWORD PTR [eax], 0
  00015	8b 45 fc	 mov	 eax, DWORD PTR _this$[ebp]
  00018	c7 40 04 00 00
	00 00		 mov	 DWORD PTR [eax+4], 0
  0001f	8b 45 fc	 mov	 eax, DWORD PTR _this$[ebp]
  00022	c7 40 08 00 00
	00 00		 mov	 DWORD PTR [eax+8], 0
  00029	8b 45 fc	 mov	 eax, DWORD PTR _this$[ebp]
  0002c	5f		 pop	 edi
  0002d	5e		 pop	 esi
  0002e	5b		 pop	 ebx
  0002f	8b e5		 mov	 esp, ebp
  00031	5d		 pop	 ebp
  00032	c3		 ret	 0
??0?$_Vector_val@U?$_Simple_types@VCDynamicExperienceData@@@std@@@std@@QAE@XZ ENDP ; std::_Vector_val<std::_Simple_types<CDynamicExperienceData> >::_Vector_val<std::_Simple_types<CDynamicExperienceData> >
_TEXT	ENDS
; Function compile flags: /Odtp /ZI
; File C:\Program Files (x86)\Microsoft Visual Studio\2019\Community\VC\Tools\MSVC\14.27.29110\include\vector
;	COMDAT ?_Getal@?$vector@VCDynamicExperienceData@@V?$allocator@VCDynamicExperienceData@@@std@@@std@@ABEABV?$allocator@VCDynamicExperienceData@@@2@XZ
_TEXT	SEGMENT
_this$ = -4						; size = 4
?_Getal@?$vector@VCDynamicExperienceData@@V?$allocator@VCDynamicExperienceData@@@std@@@std@@ABEABV?$allocator@VCDynamicExperienceData@@@2@XZ PROC ; std::vector<CDynamicExperienceData,std::allocator<CDynamicExperienceData> >::_Getal, COMDAT
; _this$ = ecx

; 1735 :     const _Alty& _Getal() const noexcept {

  00000	55		 push	 ebp
  00001	8b ec		 mov	 ebp, esp
  00003	83 ec 44	 sub	 esp, 68			; 00000044H
  00006	53		 push	 ebx
  00007	56		 push	 esi
  00008	57		 push	 edi
  00009	89 4d fc	 mov	 DWORD PTR _this$[ebp], ecx

; 1736 :         return _Mypair._Get_first();

  0000c	8b 4d fc	 mov	 ecx, DWORD PTR _this$[ebp]
  0000f	e8 00 00 00 00	 call	 ?_Get_first@?$_Compressed_pair@V?$allocator@VCDynamicExperienceData@@@std@@V?$_Vector_val@U?$_Simple_types@VCDynamicExperienceData@@@std@@@2@$00@std@@QBEABV?$allocator@VCDynamicExperienceData@@@2@XZ ; std::_Compressed_pair<std::allocator<CDynamicExperienceData>,std::_Vector_val<std::_Simple_types<CDynamicExperienceData> >,1>::_Get_first

; 1737 :     }

  00014	5f		 pop	 edi
  00015	5e		 pop	 esi
  00016	5b		 pop	 ebx
  00017	8b e5		 mov	 esp, ebp
  00019	5d		 pop	 ebp
  0001a	c3		 ret	 0
?_Getal@?$vector@VCDynamicExperienceData@@V?$allocator@VCDynamicExperienceData@@@std@@@std@@ABEABV?$allocator@VCDynamicExperienceData@@@2@XZ ENDP ; std::vector<CDynamicExperienceData,std::allocator<CDynamicExperienceData> >::_Getal
_TEXT	ENDS
; Function compile flags: /Odtp /ZI
; File C:\Program Files (x86)\Microsoft Visual Studio\2019\Community\VC\Tools\MSVC\14.27.29110\include\vector
;	COMDAT ?_Getal@?$vector@VCDynamicExperienceData@@V?$allocator@VCDynamicExperienceData@@@std@@@std@@AAEAAV?$allocator@VCDynamicExperienceData@@@2@XZ
_TEXT	SEGMENT
_this$ = -4						; size = 4
?_Getal@?$vector@VCDynamicExperienceData@@V?$allocator@VCDynamicExperienceData@@@std@@@std@@AAEAAV?$allocator@VCDynamicExperienceData@@@2@XZ PROC ; std::vector<CDynamicExperienceData,std::allocator<CDynamicExperienceData> >::_Getal, COMDAT
; _this$ = ecx

; 1731 :     _Alty& _Getal() noexcept {

  00000	55		 push	 ebp
  00001	8b ec		 mov	 ebp, esp
  00003	83 ec 44	 sub	 esp, 68			; 00000044H
  00006	53		 push	 ebx
  00007	56		 push	 esi
  00008	57		 push	 edi
  00009	89 4d fc	 mov	 DWORD PTR _this$[ebp], ecx

; 1732 :         return _Mypair._Get_first();

  0000c	8b 4d fc	 mov	 ecx, DWORD PTR _this$[ebp]
  0000f	e8 00 00 00 00	 call	 ?_Get_first@?$_Compressed_pair@V?$allocator@VCDynamicExperienceData@@@std@@V?$_Vector_val@U?$_Simple_types@VCDynamicExperienceData@@@std@@@2@$00@std@@QAEAAV?$allocator@VCDynamicExperienceData@@@2@XZ ; std::_Compressed_pair<std::allocator<CDynamicExperienceData>,std::_Vector_val<std::_Simple_types<CDynamicExperienceData> >,1>::_Get_first

; 1733 :     }

  00014	5f		 pop	 edi
  00015	5e		 pop	 esi
  00016	5b		 pop	 ebx
  00017	8b e5		 mov	 esp, ebp
  00019	5d		 pop	 ebp
  0001a	c3		 ret	 0
?_Getal@?$vector@VCDynamicExperienceData@@V?$allocator@VCDynamicExperienceData@@@std@@@std@@AAEAAV?$allocator@VCDynamicExperienceData@@@2@XZ ENDP ; std::vector<CDynamicExperienceData,std::allocator<CDynamicExperienceData> >::_Getal
_TEXT	ENDS
; Function compile flags: /Odtp /ZI
; File C:\Program Files (x86)\Microsoft Visual Studio\2019\Community\VC\Tools\MSVC\14.27.29110\include\vector
;	COMDAT ?_Orphan_range@?$vector@VCDynamicExperienceData@@V?$allocator@VCDynamicExperienceData@@@std@@@std@@ABEXPAVCDynamicExperienceData@@0@Z
_TEXT	SEGMENT
_this$ = -4						; size = 4
__First$ = 8						; size = 4
__Last$ = 12						; size = 4
?_Orphan_range@?$vector@VCDynamicExperienceData@@V?$allocator@VCDynamicExperienceData@@@std@@@std@@ABEXPAVCDynamicExperienceData@@0@Z PROC ; std::vector<CDynamicExperienceData,std::allocator<CDynamicExperienceData> >::_Orphan_range, COMDAT
; _this$ = ecx

; 1711 :     void _Orphan_range(pointer _First, pointer _Last) const { // orphan iterators within specified (inclusive) range

  00000	55		 push	 ebp
  00001	8b ec		 mov	 ebp, esp
  00003	83 ec 44	 sub	 esp, 68			; 00000044H
  00006	53		 push	 ebx
  00007	56		 push	 esi
  00008	57		 push	 edi
  00009	89 4d fc	 mov	 DWORD PTR _this$[ebp], ecx

; 1712 : #if _ITERATOR_DEBUG_LEVEL == 2
; 1713 :         _Lockit _Lock(_LOCK_DEBUG);
; 1714 : 
; 1715 :         _Iterator_base12** _Pnext = &_Mypair._Myval2._Myproxy->_Myfirstiter;
; 1716 :         while (*_Pnext) {
; 1717 :             const auto _Pnextptr = static_cast<const_iterator&>(**_Pnext)._Ptr;
; 1718 :             if (_Pnextptr < _First || _Last < _Pnextptr) { // skip the iterator
; 1719 :                 _Pnext = &(*_Pnext)->_Mynextiter;
; 1720 :             } else { // orphan the iterator
; 1721 :                 (*_Pnext)->_Myproxy = nullptr;
; 1722 :                 *_Pnext             = (*_Pnext)->_Mynextiter;
; 1723 :             }
; 1724 :         }
; 1725 : #else // ^^^ _ITERATOR_DEBUG_LEVEL == 2 ^^^ // vvv _ITERATOR_DEBUG_LEVEL != 2 vvv
; 1726 :         (void) _First;
; 1727 :         (void) _Last;
; 1728 : #endif // _ITERATOR_DEBUG_LEVEL == 2
; 1729 :     }

  0000c	5f		 pop	 edi
  0000d	5e		 pop	 esi
  0000e	5b		 pop	 ebx
  0000f	8b e5		 mov	 esp, ebp
  00011	5d		 pop	 ebp
  00012	c2 08 00	 ret	 8
?_Orphan_range@?$vector@VCDynamicExperienceData@@V?$allocator@VCDynamicExperienceData@@@std@@@std@@ABEXPAVCDynamicExperienceData@@0@Z ENDP ; std::vector<CDynamicExperienceData,std::allocator<CDynamicExperienceData> >::_Orphan_range
_TEXT	ENDS
; Function compile flags: /Odtp /ZI
; File C:\Program Files (x86)\Microsoft Visual Studio\2019\Community\VC\Tools\MSVC\14.27.29110\include\vector
;	COMDAT ?_Xlength@?$vector@VCDynamicExperienceData@@V?$allocator@VCDynamicExperienceData@@@std@@@std@@CAXXZ
_TEXT	SEGMENT
?_Xlength@?$vector@VCDynamicExperienceData@@V?$allocator@VCDynamicExperienceData@@@std@@@std@@CAXXZ PROC ; std::vector<CDynamicExperienceData,std::allocator<CDynamicExperienceData> >::_Xlength, COMDAT

; 1703 :     [[noreturn]] static void _Xlength() {

  00000	55		 push	 ebp
  00001	8b ec		 mov	 ebp, esp
  00003	83 ec 40	 sub	 esp, 64			; 00000040H
  00006	53		 push	 ebx
  00007	56		 push	 esi
  00008	57		 push	 edi

; 1704 :         _Xlength_error("vector too long");

  00009	68 00 00 00 00	 push	 OFFSET ??_C@_0BA@FOIKENOD@vector?5too?5long@
  0000e	e8 00 00 00 00	 call	 ?_Xlength_error@std@@YAXPBD@Z ; std::_Xlength_error
$LN2@Xlength:

; 1705 :     }

  00013	5f		 pop	 edi
  00014	5e		 pop	 esi
  00015	5b		 pop	 ebx
  00016	8b e5		 mov	 esp, ebp
  00018	5d		 pop	 ebp
  00019	c3		 ret	 0
?_Xlength@?$vector@VCDynamicExperienceData@@V?$allocator@VCDynamicExperienceData@@@std@@@std@@CAXXZ ENDP ; std::vector<CDynamicExperienceData,std::allocator<CDynamicExperienceData> >::_Xlength
_TEXT	ENDS
; Function compile flags: /Odtp /ZI
; File C:\Program Files (x86)\Microsoft Visual Studio\2019\Community\VC\Tools\MSVC\14.27.29110\include\vector
;	COMDAT ?_Tidy@?$vector@VCDynamicExperienceData@@V?$allocator@VCDynamicExperienceData@@@std@@@std@@AAEXXZ
_TEXT	SEGMENT
__Myend$ = -32						; size = 4
__Mylast$ = -28						; size = 4
__Myfirst$ = -24					; size = 4
__My_data$ = -20					; size = 4
_this$ = -16						; size = 4
__$EHRec$ = -12						; size = 12
?_Tidy@?$vector@VCDynamicExperienceData@@V?$allocator@VCDynamicExperienceData@@@std@@@std@@AAEXXZ PROC ; std::vector<CDynamicExperienceData,std::allocator<CDynamicExperienceData> >::_Tidy, COMDAT
; _this$ = ecx

; 1685 :     void _Tidy() noexcept { // free all storage

  00000	55		 push	 ebp
  00001	8b ec		 mov	 ebp, esp
  00003	6a ff		 push	 -1
  00005	68 00 00 00 00	 push	 __ehhandler$?_Tidy@?$vector@VCDynamicExperienceData@@V?$allocator@VCDynamicExperienceData@@@std@@@std@@AAEXXZ
  0000a	64 a1 00 00 00
	00		 mov	 eax, DWORD PTR fs:0
  00010	50		 push	 eax
  00011	83 ec 54	 sub	 esp, 84			; 00000054H
  00014	53		 push	 ebx
  00015	56		 push	 esi
  00016	57		 push	 edi
  00017	a1 00 00 00 00	 mov	 eax, DWORD PTR ___security_cookie
  0001c	33 c5		 xor	 eax, ebp
  0001e	50		 push	 eax
  0001f	8d 45 f4	 lea	 eax, DWORD PTR __$EHRec$[ebp]
  00022	64 a3 00 00 00
	00		 mov	 DWORD PTR fs:0, eax
  00028	89 4d f0	 mov	 DWORD PTR _this$[ebp], ecx

; 1686 :         auto& _My_data    = _Mypair._Myval2;

  0002b	8b 45 f0	 mov	 eax, DWORD PTR _this$[ebp]
  0002e	89 45 ec	 mov	 DWORD PTR __My_data$[ebp], eax

; 1687 :         pointer& _Myfirst = _My_data._Myfirst;

  00031	8b 45 ec	 mov	 eax, DWORD PTR __My_data$[ebp]
  00034	89 45 e8	 mov	 DWORD PTR __Myfirst$[ebp], eax

; 1688 :         pointer& _Mylast  = _My_data._Mylast;

  00037	8b 45 ec	 mov	 eax, DWORD PTR __My_data$[ebp]
  0003a	83 c0 04	 add	 eax, 4
  0003d	89 45 e4	 mov	 DWORD PTR __Mylast$[ebp], eax

; 1689 :         pointer& _Myend   = _My_data._Myend;

  00040	8b 45 ec	 mov	 eax, DWORD PTR __My_data$[ebp]
  00043	83 c0 08	 add	 eax, 8
  00046	89 45 e0	 mov	 DWORD PTR __Myend$[ebp], eax

; 1690 : 
; 1691 :         _My_data._Orphan_all();

  00049	8b 4d ec	 mov	 ecx, DWORD PTR __My_data$[ebp]
  0004c	e8 00 00 00 00	 call	 ?_Orphan_all@_Container_base0@std@@QAEXXZ ; std::_Container_base0::_Orphan_all

; 1692 : 
; 1693 :         if (_Myfirst) { // destroy and deallocate old array

  00051	8b 45 e8	 mov	 eax, DWORD PTR __Myfirst$[ebp]
  00054	83 38 00	 cmp	 DWORD PTR [eax], 0
  00057	74 52		 je	 SHORT $LN3@Tidy

; 1694 :             _Destroy(_Myfirst, _Mylast);

  00059	8b 45 e4	 mov	 eax, DWORD PTR __Mylast$[ebp]
  0005c	8b 08		 mov	 ecx, DWORD PTR [eax]
  0005e	51		 push	 ecx
  0005f	8b 55 e8	 mov	 edx, DWORD PTR __Myfirst$[ebp]
  00062	8b 02		 mov	 eax, DWORD PTR [edx]
  00064	50		 push	 eax
  00065	8b 4d f0	 mov	 ecx, DWORD PTR _this$[ebp]
  00068	e8 00 00 00 00	 call	 ?_Destroy@?$vector@VCDynamicExperienceData@@V?$allocator@VCDynamicExperienceData@@@std@@@std@@AAEXPAVCDynamicExperienceData@@0@Z ; std::vector<CDynamicExperienceData,std::allocator<CDynamicExperienceData> >::_Destroy

; 1695 :             _Getal().deallocate(_Myfirst, static_cast<size_type>(_Myend - _Myfirst));

  0006d	8b 45 e0	 mov	 eax, DWORD PTR __Myend$[ebp]
  00070	8b 4d e8	 mov	 ecx, DWORD PTR __Myfirst$[ebp]
  00073	8b 10		 mov	 edx, DWORD PTR [eax]
  00075	2b 11		 sub	 edx, DWORD PTR [ecx]
  00077	c1 fa 03	 sar	 edx, 3
  0007a	52		 push	 edx
  0007b	8b 45 e8	 mov	 eax, DWORD PTR __Myfirst$[ebp]
  0007e	8b 08		 mov	 ecx, DWORD PTR [eax]
  00080	51		 push	 ecx
  00081	8b 4d f0	 mov	 ecx, DWORD PTR _this$[ebp]
  00084	e8 00 00 00 00	 call	 ?_Getal@?$vector@VCDynamicExperienceData@@V?$allocator@VCDynamicExperienceData@@@std@@@std@@AAEAAV?$allocator@VCDynamicExperienceData@@@2@XZ ; std::vector<CDynamicExperienceData,std::allocator<CDynamicExperienceData> >::_Getal
  00089	8b c8		 mov	 ecx, eax
  0008b	e8 00 00 00 00	 call	 ?deallocate@?$allocator@VCDynamicExperienceData@@@std@@QAEXQAVCDynamicExperienceData@@I@Z ; std::allocator<CDynamicExperienceData>::deallocate

; 1696 : 
; 1697 :             _Myfirst = pointer();

  00090	8b 45 e8	 mov	 eax, DWORD PTR __Myfirst$[ebp]
  00093	c7 00 00 00 00
	00		 mov	 DWORD PTR [eax], 0

; 1698 :             _Mylast  = pointer();

  00099	8b 45 e4	 mov	 eax, DWORD PTR __Mylast$[ebp]
  0009c	c7 00 00 00 00
	00		 mov	 DWORD PTR [eax], 0

; 1699 :             _Myend   = pointer();

  000a2	8b 45 e0	 mov	 eax, DWORD PTR __Myend$[ebp]
  000a5	c7 00 00 00 00
	00		 mov	 DWORD PTR [eax], 0
$LN3@Tidy:

; 1700 :         }
; 1701 :     }

  000ab	8b 4d f4	 mov	 ecx, DWORD PTR __$EHRec$[ebp]
  000ae	64 89 0d 00 00
	00 00		 mov	 DWORD PTR fs:0, ecx
  000b5	59		 pop	 ecx
  000b6	5f		 pop	 edi
  000b7	5e		 pop	 esi
  000b8	5b		 pop	 ebx
  000b9	8b e5		 mov	 esp, ebp
  000bb	5d		 pop	 ebp
  000bc	c3		 ret	 0
  000bd	cc		 int	 3
  000be	cc		 int	 3
  000bf	cc		 int	 3
  000c0	cc		 int	 3
  000c1	cc		 int	 3
_TEXT	ENDS
;	COMDAT text$x
text$x	SEGMENT
__ehhandler$?_Tidy@?$vector@VCDynamicExperienceData@@V?$allocator@VCDynamicExperienceData@@@std@@@std@@AAEXXZ:
  00000	90		 npad	 1
  00001	90		 npad	 1
  00002	8b 54 24 08	 mov	 edx, DWORD PTR [esp+8]
  00006	8d 42 0c	 lea	 eax, DWORD PTR [edx+12]
  00009	8b 4a 9c	 mov	 ecx, DWORD PTR [edx-100]
  0000c	33 c8		 xor	 ecx, eax
  0000e	e8 00 00 00 00	 call	 @__security_check_cookie@4
  00013	b8 00 00 00 00	 mov	 eax, OFFSET __ehfuncinfo$?_Tidy@?$vector@VCDynamicExperienceData@@V?$allocator@VCDynamicExperienceData@@@std@@@std@@AAEXXZ
  00018	e9 00 00 00 00	 jmp	 ___CxxFrameHandler3
text$x	ENDS
?_Tidy@?$vector@VCDynamicExperienceData@@V?$allocator@VCDynamicExperienceData@@@std@@@std@@AAEXXZ ENDP ; std::vector<CDynamicExperienceData,std::allocator<CDynamicExperienceData> >::_Tidy
; Function compile flags: /Odtp /ZI
; File C:\Program Files (x86)\Microsoft Visual Studio\2019\Community\VC\Tools\MSVC\14.27.29110\include\vector
;	COMDAT ?_Change_array@?$vector@VCDynamicExperienceData@@V?$allocator@VCDynamicExperienceData@@@std@@@std@@AAEXQAVCDynamicExperienceData@@II@Z
_TEXT	SEGMENT
__Myend$ = -20						; size = 4
__Mylast$ = -16						; size = 4
__Myfirst$ = -12					; size = 4
__My_data$ = -8						; size = 4
_this$ = -4						; size = 4
__Newvec$ = 8						; size = 4
__Newsize$ = 12						; size = 4
__Newcapacity$ = 16					; size = 4
?_Change_array@?$vector@VCDynamicExperienceData@@V?$allocator@VCDynamicExperienceData@@@std@@@std@@AAEXQAVCDynamicExperienceData@@II@Z PROC ; std::vector<CDynamicExperienceData,std::allocator<CDynamicExperienceData> >::_Change_array, COMDAT
; _this$ = ecx

; 1666 :     void _Change_array(const pointer _Newvec, const size_type _Newsize, const size_type _Newcapacity) {

  00000	55		 push	 ebp
  00001	8b ec		 mov	 ebp, esp
  00003	83 ec 54	 sub	 esp, 84			; 00000054H
  00006	53		 push	 ebx
  00007	56		 push	 esi
  00008	57		 push	 edi
  00009	89 4d fc	 mov	 DWORD PTR _this$[ebp], ecx

; 1667 :         // orphan all iterators, discard old array, acquire new array
; 1668 :         auto& _My_data    = _Mypair._Myval2;

  0000c	8b 45 fc	 mov	 eax, DWORD PTR _this$[ebp]
  0000f	89 45 f8	 mov	 DWORD PTR __My_data$[ebp], eax

; 1669 :         pointer& _Myfirst = _My_data._Myfirst;

  00012	8b 45 f8	 mov	 eax, DWORD PTR __My_data$[ebp]
  00015	89 45 f4	 mov	 DWORD PTR __Myfirst$[ebp], eax

; 1670 :         pointer& _Mylast  = _My_data._Mylast;

  00018	8b 45 f8	 mov	 eax, DWORD PTR __My_data$[ebp]
  0001b	83 c0 04	 add	 eax, 4
  0001e	89 45 f0	 mov	 DWORD PTR __Mylast$[ebp], eax

; 1671 :         pointer& _Myend   = _My_data._Myend;

  00021	8b 45 f8	 mov	 eax, DWORD PTR __My_data$[ebp]
  00024	83 c0 08	 add	 eax, 8
  00027	89 45 ec	 mov	 DWORD PTR __Myend$[ebp], eax

; 1672 : 
; 1673 :         _My_data._Orphan_all();

  0002a	8b 4d f8	 mov	 ecx, DWORD PTR __My_data$[ebp]
  0002d	e8 00 00 00 00	 call	 ?_Orphan_all@_Container_base0@std@@QAEXXZ ; std::_Container_base0::_Orphan_all

; 1674 : 
; 1675 :         if (_Myfirst) { // destroy and deallocate old array

  00032	8b 45 f4	 mov	 eax, DWORD PTR __Myfirst$[ebp]
  00035	83 38 00	 cmp	 DWORD PTR [eax], 0
  00038	74 37		 je	 SHORT $LN2@Change_arr

; 1676 :             _Destroy(_Myfirst, _Mylast);

  0003a	8b 45 f0	 mov	 eax, DWORD PTR __Mylast$[ebp]
  0003d	8b 08		 mov	 ecx, DWORD PTR [eax]
  0003f	51		 push	 ecx
  00040	8b 55 f4	 mov	 edx, DWORD PTR __Myfirst$[ebp]
  00043	8b 02		 mov	 eax, DWORD PTR [edx]
  00045	50		 push	 eax
  00046	8b 4d fc	 mov	 ecx, DWORD PTR _this$[ebp]
  00049	e8 00 00 00 00	 call	 ?_Destroy@?$vector@VCDynamicExperienceData@@V?$allocator@VCDynamicExperienceData@@@std@@@std@@AAEXPAVCDynamicExperienceData@@0@Z ; std::vector<CDynamicExperienceData,std::allocator<CDynamicExperienceData> >::_Destroy

; 1677 :             _Getal().deallocate(_Myfirst, static_cast<size_type>(_Myend - _Myfirst));

  0004e	8b 45 ec	 mov	 eax, DWORD PTR __Myend$[ebp]
  00051	8b 4d f4	 mov	 ecx, DWORD PTR __Myfirst$[ebp]
  00054	8b 10		 mov	 edx, DWORD PTR [eax]
  00056	2b 11		 sub	 edx, DWORD PTR [ecx]
  00058	c1 fa 03	 sar	 edx, 3
  0005b	52		 push	 edx
  0005c	8b 45 f4	 mov	 eax, DWORD PTR __Myfirst$[ebp]
  0005f	8b 08		 mov	 ecx, DWORD PTR [eax]
  00061	51		 push	 ecx
  00062	8b 4d fc	 mov	 ecx, DWORD PTR _this$[ebp]
  00065	e8 00 00 00 00	 call	 ?_Getal@?$vector@VCDynamicExperienceData@@V?$allocator@VCDynamicExperienceData@@@std@@@std@@AAEAAV?$allocator@VCDynamicExperienceData@@@2@XZ ; std::vector<CDynamicExperienceData,std::allocator<CDynamicExperienceData> >::_Getal
  0006a	8b c8		 mov	 ecx, eax
  0006c	e8 00 00 00 00	 call	 ?deallocate@?$allocator@VCDynamicExperienceData@@@std@@QAEXQAVCDynamicExperienceData@@I@Z ; std::allocator<CDynamicExperienceData>::deallocate
$LN2@Change_arr:

; 1678 :         }
; 1679 : 
; 1680 :         _Myfirst = _Newvec;

  00071	8b 45 f4	 mov	 eax, DWORD PTR __Myfirst$[ebp]
  00074	8b 4d 08	 mov	 ecx, DWORD PTR __Newvec$[ebp]
  00077	89 08		 mov	 DWORD PTR [eax], ecx

; 1681 :         _Mylast  = _Newvec + _Newsize;

  00079	8b 45 0c	 mov	 eax, DWORD PTR __Newsize$[ebp]
  0007c	8b 4d 08	 mov	 ecx, DWORD PTR __Newvec$[ebp]
  0007f	8d 14 c1	 lea	 edx, DWORD PTR [ecx+eax*8]
  00082	8b 45 f0	 mov	 eax, DWORD PTR __Mylast$[ebp]
  00085	89 10		 mov	 DWORD PTR [eax], edx

; 1682 :         _Myend   = _Newvec + _Newcapacity;

  00087	8b 45 10	 mov	 eax, DWORD PTR __Newcapacity$[ebp]
  0008a	8b 4d 08	 mov	 ecx, DWORD PTR __Newvec$[ebp]
  0008d	8d 14 c1	 lea	 edx, DWORD PTR [ecx+eax*8]
  00090	8b 45 ec	 mov	 eax, DWORD PTR __Myend$[ebp]
  00093	89 10		 mov	 DWORD PTR [eax], edx

; 1683 :     }

  00095	5f		 pop	 edi
  00096	5e		 pop	 esi
  00097	5b		 pop	 ebx
  00098	8b e5		 mov	 esp, ebp
  0009a	5d		 pop	 ebp
  0009b	c2 0c 00	 ret	 12			; 0000000cH
?_Change_array@?$vector@VCDynamicExperienceData@@V?$allocator@VCDynamicExperienceData@@@std@@@std@@AAEXQAVCDynamicExperienceData@@II@Z ENDP ; std::vector<CDynamicExperienceData,std::allocator<CDynamicExperienceData> >::_Change_array
_TEXT	ENDS
; Function compile flags: /Odtp /ZI
; File C:\Program Files (x86)\Microsoft Visual Studio\2019\Community\VC\Tools\MSVC\14.27.29110\include\vector
;	COMDAT ?_Calculate_growth@?$vector@VCDynamicExperienceData@@V?$allocator@VCDynamicExperienceData@@@std@@@std@@ABEII@Z
_TEXT	SEGMENT
__Geometric$ = -12					; size = 4
__Oldcapacity$ = -8					; size = 4
_this$ = -4						; size = 4
__Newsize$ = 8						; size = 4
?_Calculate_growth@?$vector@VCDynamicExperienceData@@V?$allocator@VCDynamicExperienceData@@@std@@@std@@ABEII@Z PROC ; std::vector<CDynamicExperienceData,std::allocator<CDynamicExperienceData> >::_Calculate_growth, COMDAT
; _this$ = ecx

; 1615 :     size_type _Calculate_growth(const size_type _Newsize) const {

  00000	55		 push	 ebp
  00001	8b ec		 mov	 ebp, esp
  00003	83 ec 4c	 sub	 esp, 76			; 0000004cH
  00006	53		 push	 ebx
  00007	56		 push	 esi
  00008	57		 push	 edi
  00009	89 4d fc	 mov	 DWORD PTR _this$[ebp], ecx

; 1616 :         // given _Oldcapacity and _Newsize, calculate geometric growth
; 1617 :         const size_type _Oldcapacity = capacity();

  0000c	8b 4d fc	 mov	 ecx, DWORD PTR _this$[ebp]
  0000f	e8 00 00 00 00	 call	 ?capacity@?$vector@VCDynamicExperienceData@@V?$allocator@VCDynamicExperienceData@@@std@@@std@@QBEIXZ ; std::vector<CDynamicExperienceData,std::allocator<CDynamicExperienceData> >::capacity
  00014	89 45 f8	 mov	 DWORD PTR __Oldcapacity$[ebp], eax

; 1618 : 
; 1619 :         if (_Oldcapacity > max_size() - _Oldcapacity / 2) {

  00017	8b 4d fc	 mov	 ecx, DWORD PTR _this$[ebp]
  0001a	e8 00 00 00 00	 call	 ?max_size@?$vector@VCDynamicExperienceData@@V?$allocator@VCDynamicExperienceData@@@std@@@std@@QBEIXZ ; std::vector<CDynamicExperienceData,std::allocator<CDynamicExperienceData> >::max_size
  0001f	8b 4d f8	 mov	 ecx, DWORD PTR __Oldcapacity$[ebp]
  00022	d1 e9		 shr	 ecx, 1
  00024	2b c1		 sub	 eax, ecx
  00026	39 45 f8	 cmp	 DWORD PTR __Oldcapacity$[ebp], eax
  00029	76 05		 jbe	 SHORT $LN2@Calculate_

; 1620 :             return _Newsize; // geometric growth would overflow

  0002b	8b 45 08	 mov	 eax, DWORD PTR __Newsize$[ebp]
  0002e	eb 1b		 jmp	 SHORT $LN1@Calculate_
$LN2@Calculate_:

; 1621 :         }
; 1622 : 
; 1623 :         const size_type _Geometric = _Oldcapacity + _Oldcapacity / 2;

  00030	8b 45 f8	 mov	 eax, DWORD PTR __Oldcapacity$[ebp]
  00033	d1 e8		 shr	 eax, 1
  00035	03 45 f8	 add	 eax, DWORD PTR __Oldcapacity$[ebp]
  00038	89 45 f4	 mov	 DWORD PTR __Geometric$[ebp], eax

; 1624 : 
; 1625 :         if (_Geometric < _Newsize) {

  0003b	8b 45 f4	 mov	 eax, DWORD PTR __Geometric$[ebp]
  0003e	3b 45 08	 cmp	 eax, DWORD PTR __Newsize$[ebp]
  00041	73 05		 jae	 SHORT $LN3@Calculate_

; 1626 :             return _Newsize; // geometric growth would be insufficient

  00043	8b 45 08	 mov	 eax, DWORD PTR __Newsize$[ebp]
  00046	eb 03		 jmp	 SHORT $LN1@Calculate_
$LN3@Calculate_:

; 1627 :         }
; 1628 : 
; 1629 :         return _Geometric; // geometric growth is sufficient

  00048	8b 45 f4	 mov	 eax, DWORD PTR __Geometric$[ebp]
$LN1@Calculate_:

; 1630 :     }

  0004b	5f		 pop	 edi
  0004c	5e		 pop	 esi
  0004d	5b		 pop	 ebx
  0004e	8b e5		 mov	 esp, ebp
  00050	5d		 pop	 ebp
  00051	c2 04 00	 ret	 4
?_Calculate_growth@?$vector@VCDynamicExperienceData@@V?$allocator@VCDynamicExperienceData@@@std@@@std@@ABEII@Z ENDP ; std::vector<CDynamicExperienceData,std::allocator<CDynamicExperienceData> >::_Calculate_growth
_TEXT	ENDS
; Function compile flags: /Odtp /ZI
; File C:\Program Files (x86)\Microsoft Visual Studio\2019\Community\VC\Tools\MSVC\14.27.29110\include\vector
;	COMDAT ?_Destroy@?$vector@VCDynamicExperienceData@@V?$allocator@VCDynamicExperienceData@@@std@@@std@@AAEXPAVCDynamicExperienceData@@0@Z
_TEXT	SEGMENT
_this$ = -4						; size = 4
__First$ = 8						; size = 4
__Last$ = 12						; size = 4
?_Destroy@?$vector@VCDynamicExperienceData@@V?$allocator@VCDynamicExperienceData@@@std@@@std@@AAEXPAVCDynamicExperienceData@@0@Z PROC ; std::vector<CDynamicExperienceData,std::allocator<CDynamicExperienceData> >::_Destroy, COMDAT
; _this$ = ecx

; 1611 :     void _Destroy(pointer _First, pointer _Last) { // destroy [_First, _Last) using allocator

  00000	55		 push	 ebp
  00001	8b ec		 mov	 ebp, esp
  00003	83 ec 44	 sub	 esp, 68			; 00000044H
  00006	53		 push	 ebx
  00007	56		 push	 esi
  00008	57		 push	 edi
  00009	89 4d fc	 mov	 DWORD PTR _this$[ebp], ecx

; 1612 :         _Destroy_range(_First, _Last, _Getal());

  0000c	8b 4d fc	 mov	 ecx, DWORD PTR _this$[ebp]
  0000f	e8 00 00 00 00	 call	 ?_Getal@?$vector@VCDynamicExperienceData@@V?$allocator@VCDynamicExperienceData@@@std@@@std@@AAEAAV?$allocator@VCDynamicExperienceData@@@2@XZ ; std::vector<CDynamicExperienceData,std::allocator<CDynamicExperienceData> >::_Getal
  00014	50		 push	 eax
  00015	8b 45 0c	 mov	 eax, DWORD PTR __Last$[ebp]
  00018	50		 push	 eax
  00019	8b 4d 08	 mov	 ecx, DWORD PTR __First$[ebp]
  0001c	51		 push	 ecx
  0001d	e8 00 00 00 00	 call	 ??$_Destroy_range@V?$allocator@VCDynamicExperienceData@@@std@@@std@@YAXPAVCDynamicExperienceData@@QAV1@AAV?$allocator@VCDynamicExperienceData@@@0@@Z ; std::_Destroy_range<std::allocator<CDynamicExperienceData> >
  00022	83 c4 0c	 add	 esp, 12			; 0000000cH

; 1613 :     }

  00025	5f		 pop	 edi
  00026	5e		 pop	 esi
  00027	5b		 pop	 ebx
  00028	8b e5		 mov	 esp, ebp
  0002a	5d		 pop	 ebp
  0002b	c2 08 00	 ret	 8
?_Destroy@?$vector@VCDynamicExperienceData@@V?$allocator@VCDynamicExperienceData@@@std@@@std@@AAEXPAVCDynamicExperienceData@@0@Z ENDP ; std::vector<CDynamicExperienceData,std::allocator<CDynamicExperienceData> >::_Destroy
_TEXT	ENDS
; Function compile flags: /Odtp /ZI
; File C:\Program Files (x86)\Microsoft Visual Studio\2019\Community\VC\Tools\MSVC\14.27.29110\include\vector
;	COMDAT ?_Umove_if_noexcept@?$vector@VCDynamicExperienceData@@V?$allocator@VCDynamicExperienceData@@@std@@@std@@AAEXPAVCDynamicExperienceData@@00@Z
_TEXT	SEGMENT
$T1 = -69						; size = 1
_this$ = -4						; size = 4
__First$ = 8						; size = 4
__Last$ = 12						; size = 4
__Dest$ = 16						; size = 4
?_Umove_if_noexcept@?$vector@VCDynamicExperienceData@@V?$allocator@VCDynamicExperienceData@@@std@@@std@@AAEXPAVCDynamicExperienceData@@00@Z PROC ; std::vector<CDynamicExperienceData,std::allocator<CDynamicExperienceData> >::_Umove_if_noexcept, COMDAT
; _this$ = ecx

; 1605 :     void _Umove_if_noexcept(pointer _First, pointer _Last, pointer _Dest) {

  00000	55		 push	 ebp
  00001	8b ec		 mov	 ebp, esp
  00003	83 ec 48	 sub	 esp, 72			; 00000048H
  00006	53		 push	 ebx
  00007	56		 push	 esi
  00008	57		 push	 edi
  00009	89 4d fc	 mov	 DWORD PTR _this$[ebp], ecx

; 1606 :         // move_if_noexcept [_First, _Last) to raw _Dest, using allocator
; 1607 :         _Umove_if_noexcept1(_First, _Last, _Dest,

  0000c	33 c0		 xor	 eax, eax
  0000e	88 45 bb	 mov	 BYTE PTR $T1[ebp], al
  00011	0f b6 4d bb	 movzx	 ecx, BYTE PTR $T1[ebp]
  00015	51		 push	 ecx
  00016	8b 55 10	 mov	 edx, DWORD PTR __Dest$[ebp]
  00019	52		 push	 edx
  0001a	8b 45 0c	 mov	 eax, DWORD PTR __Last$[ebp]
  0001d	50		 push	 eax
  0001e	8b 4d 08	 mov	 ecx, DWORD PTR __First$[ebp]
  00021	51		 push	 ecx
  00022	8b 4d fc	 mov	 ecx, DWORD PTR _this$[ebp]
  00025	e8 00 00 00 00	 call	 ?_Umove_if_noexcept1@?$vector@VCDynamicExperienceData@@V?$allocator@VCDynamicExperienceData@@@std@@@std@@AAEXPAVCDynamicExperienceData@@00U?$integral_constant@_N$00@2@@Z ; std::vector<CDynamicExperienceData,std::allocator<CDynamicExperienceData> >::_Umove_if_noexcept1

; 1608 :             bool_constant<disjunction_v<is_nothrow_move_constructible<_Ty>, negation<is_copy_constructible<_Ty>>>>{});
; 1609 :     }

  0002a	5f		 pop	 edi
  0002b	5e		 pop	 esi
  0002c	5b		 pop	 ebx
  0002d	8b e5		 mov	 esp, ebp
  0002f	5d		 pop	 ebp
  00030	c2 0c 00	 ret	 12			; 0000000cH
?_Umove_if_noexcept@?$vector@VCDynamicExperienceData@@V?$allocator@VCDynamicExperienceData@@@std@@@std@@AAEXPAVCDynamicExperienceData@@00@Z ENDP ; std::vector<CDynamicExperienceData,std::allocator<CDynamicExperienceData> >::_Umove_if_noexcept
_TEXT	ENDS
; Function compile flags: /Odtp /ZI
; File C:\Program Files (x86)\Microsoft Visual Studio\2019\Community\VC\Tools\MSVC\14.27.29110\include\vector
;	COMDAT ?_Umove_if_noexcept1@?$vector@VCDynamicExperienceData@@V?$allocator@VCDynamicExperienceData@@@std@@@std@@AAEXPAVCDynamicExperienceData@@00U?$integral_constant@_N$00@2@@Z
_TEXT	SEGMENT
_this$ = -4						; size = 4
__First$ = 8						; size = 4
__Last$ = 12						; size = 4
__Dest$ = 16						; size = 4
___formal$ = 20						; size = 1
?_Umove_if_noexcept1@?$vector@VCDynamicExperienceData@@V?$allocator@VCDynamicExperienceData@@@std@@@std@@AAEXPAVCDynamicExperienceData@@00U?$integral_constant@_N$00@2@@Z PROC ; std::vector<CDynamicExperienceData,std::allocator<CDynamicExperienceData> >::_Umove_if_noexcept1, COMDAT
; _this$ = ecx

; 1595 :     void _Umove_if_noexcept1(pointer _First, pointer _Last, pointer _Dest, true_type) {

  00000	55		 push	 ebp
  00001	8b ec		 mov	 ebp, esp
  00003	83 ec 44	 sub	 esp, 68			; 00000044H
  00006	53		 push	 ebx
  00007	56		 push	 esi
  00008	57		 push	 edi
  00009	89 4d fc	 mov	 DWORD PTR _this$[ebp], ecx

; 1596 :         // move [_First, _Last) to raw _Dest, using allocator
; 1597 :         _Uninitialized_move(_First, _Last, _Dest, _Getal());

  0000c	8b 4d fc	 mov	 ecx, DWORD PTR _this$[ebp]
  0000f	e8 00 00 00 00	 call	 ?_Getal@?$vector@VCDynamicExperienceData@@V?$allocator@VCDynamicExperienceData@@@std@@@std@@AAEAAV?$allocator@VCDynamicExperienceData@@@2@XZ ; std::vector<CDynamicExperienceData,std::allocator<CDynamicExperienceData> >::_Getal
  00014	50		 push	 eax
  00015	8b 45 10	 mov	 eax, DWORD PTR __Dest$[ebp]
  00018	50		 push	 eax
  00019	8b 4d 0c	 mov	 ecx, DWORD PTR __Last$[ebp]
  0001c	51		 push	 ecx
  0001d	8b 55 08	 mov	 edx, DWORD PTR __First$[ebp]
  00020	52		 push	 edx
  00021	e8 00 00 00 00	 call	 ??$_Uninitialized_move@PAVCDynamicExperienceData@@V?$allocator@VCDynamicExperienceData@@@std@@@std@@YAPAVCDynamicExperienceData@@QAV1@0PAV1@AAV?$allocator@VCDynamicExperienceData@@@0@@Z ; std::_Uninitialized_move<CDynamicExperienceData *,std::allocator<CDynamicExperienceData> >
  00026	83 c4 10	 add	 esp, 16			; 00000010H

; 1598 :     }

  00029	5f		 pop	 edi
  0002a	5e		 pop	 esi
  0002b	5b		 pop	 ebx
  0002c	8b e5		 mov	 esp, ebp
  0002e	5d		 pop	 ebp
  0002f	c2 10 00	 ret	 16			; 00000010H
?_Umove_if_noexcept1@?$vector@VCDynamicExperienceData@@V?$allocator@VCDynamicExperienceData@@@std@@@std@@AAEXPAVCDynamicExperienceData@@00U?$integral_constant@_N$00@2@@Z ENDP ; std::vector<CDynamicExperienceData,std::allocator<CDynamicExperienceData> >::_Umove_if_noexcept1
_TEXT	ENDS
; Function compile flags: /Odtp /ZI
; File C:\Program Files (x86)\Microsoft Visual Studio\2019\Community\VC\Tools\MSVC\14.27.29110\include\vector
;	COMDAT ?_Umove@?$vector@VCDynamicExperienceData@@V?$allocator@VCDynamicExperienceData@@@std@@@std@@AAEPAVCDynamicExperienceData@@PAV3@00@Z
_TEXT	SEGMENT
_this$ = -4						; size = 4
__First$ = 8						; size = 4
__Last$ = 12						; size = 4
__Dest$ = 16						; size = 4
?_Umove@?$vector@VCDynamicExperienceData@@V?$allocator@VCDynamicExperienceData@@@std@@@std@@AAEPAVCDynamicExperienceData@@PAV3@00@Z PROC ; std::vector<CDynamicExperienceData,std::allocator<CDynamicExperienceData> >::_Umove, COMDAT
; _this$ = ecx

; 1591 :     pointer _Umove(pointer _First, pointer _Last, pointer _Dest) { // move [_First, _Last) to raw _Dest, using allocator

  00000	55		 push	 ebp
  00001	8b ec		 mov	 ebp, esp
  00003	83 ec 44	 sub	 esp, 68			; 00000044H
  00006	53		 push	 ebx
  00007	56		 push	 esi
  00008	57		 push	 edi
  00009	89 4d fc	 mov	 DWORD PTR _this$[ebp], ecx

; 1592 :         return _Uninitialized_move(_First, _Last, _Dest, _Getal());

  0000c	8b 4d fc	 mov	 ecx, DWORD PTR _this$[ebp]
  0000f	e8 00 00 00 00	 call	 ?_Getal@?$vector@VCDynamicExperienceData@@V?$allocator@VCDynamicExperienceData@@@std@@@std@@AAEAAV?$allocator@VCDynamicExperienceData@@@2@XZ ; std::vector<CDynamicExperienceData,std::allocator<CDynamicExperienceData> >::_Getal
  00014	50		 push	 eax
  00015	8b 45 10	 mov	 eax, DWORD PTR __Dest$[ebp]
  00018	50		 push	 eax
  00019	8b 4d 0c	 mov	 ecx, DWORD PTR __Last$[ebp]
  0001c	51		 push	 ecx
  0001d	8b 55 08	 mov	 edx, DWORD PTR __First$[ebp]
  00020	52		 push	 edx
  00021	e8 00 00 00 00	 call	 ??$_Uninitialized_move@PAVCDynamicExperienceData@@V?$allocator@VCDynamicExperienceData@@@std@@@std@@YAPAVCDynamicExperienceData@@QAV1@0PAV1@AAV?$allocator@VCDynamicExperienceData@@@0@@Z ; std::_Uninitialized_move<CDynamicExperienceData *,std::allocator<CDynamicExperienceData> >
  00026	83 c4 10	 add	 esp, 16			; 00000010H

; 1593 :     }

  00029	5f		 pop	 edi
  0002a	5e		 pop	 esi
  0002b	5b		 pop	 ebx
  0002c	8b e5		 mov	 esp, ebp
  0002e	5d		 pop	 ebp
  0002f	c2 0c 00	 ret	 12			; 0000000cH
?_Umove@?$vector@VCDynamicExperienceData@@V?$allocator@VCDynamicExperienceData@@@std@@@std@@AAEPAVCDynamicExperienceData@@PAV3@00@Z ENDP ; std::vector<CDynamicExperienceData,std::allocator<CDynamicExperienceData> >::_Umove
_TEXT	ENDS
; Function compile flags: /Odtp /ZI
; File C:\Program Files (x86)\Microsoft Visual Studio\2019\Community\VC\Tools\MSVC\14.27.29110\include\vector
;	COMDAT ?capacity@?$vector@VCDynamicExperienceData@@V?$allocator@VCDynamicExperienceData@@@std@@@std@@QBEIXZ
_TEXT	SEGMENT
__My_data$ = -8						; size = 4
_this$ = -4						; size = 4
?capacity@?$vector@VCDynamicExperienceData@@V?$allocator@VCDynamicExperienceData@@@std@@@std@@QBEIXZ PROC ; std::vector<CDynamicExperienceData,std::allocator<CDynamicExperienceData> >::capacity, COMDAT
; _this$ = ecx

; 1492 :     _NODISCARD size_type capacity() const noexcept {

  00000	55		 push	 ebp
  00001	8b ec		 mov	 ebp, esp
  00003	83 ec 48	 sub	 esp, 72			; 00000048H
  00006	53		 push	 ebx
  00007	56		 push	 esi
  00008	57		 push	 edi
  00009	89 4d fc	 mov	 DWORD PTR _this$[ebp], ecx

; 1493 :         auto& _My_data = _Mypair._Myval2;

  0000c	8b 45 fc	 mov	 eax, DWORD PTR _this$[ebp]
  0000f	89 45 f8	 mov	 DWORD PTR __My_data$[ebp], eax

; 1494 :         return static_cast<size_type>(_My_data._Myend - _My_data._Myfirst);

  00012	8b 45 f8	 mov	 eax, DWORD PTR __My_data$[ebp]
  00015	8b 4d f8	 mov	 ecx, DWORD PTR __My_data$[ebp]
  00018	8b 40 08	 mov	 eax, DWORD PTR [eax+8]
  0001b	2b 01		 sub	 eax, DWORD PTR [ecx]
  0001d	c1 f8 03	 sar	 eax, 3

; 1495 :     }

  00020	5f		 pop	 edi
  00021	5e		 pop	 esi
  00022	5b		 pop	 ebx
  00023	8b e5		 mov	 esp, ebp
  00025	5d		 pop	 ebp
  00026	c3		 ret	 0
?capacity@?$vector@VCDynamicExperienceData@@V?$allocator@VCDynamicExperienceData@@@std@@@std@@QBEIXZ ENDP ; std::vector<CDynamicExperienceData,std::allocator<CDynamicExperienceData> >::capacity
_TEXT	ENDS
; Function compile flags: /Odtp /ZI
; File C:\Program Files (x86)\Microsoft Visual Studio\2019\Community\VC\Tools\MSVC\14.27.29110\include\vector
;	COMDAT ?max_size@?$vector@VCDynamicExperienceData@@V?$allocator@VCDynamicExperienceData@@@std@@@std@@QBEIXZ
_TEXT	SEGMENT
$T1 = -76						; size = 4
$T2 = -72						; size = 4
_this$ = -4						; size = 4
?max_size@?$vector@VCDynamicExperienceData@@V?$allocator@VCDynamicExperienceData@@@std@@@std@@QBEIXZ PROC ; std::vector<CDynamicExperienceData,std::allocator<CDynamicExperienceData> >::max_size, COMDAT
; _this$ = ecx

; 1487 :     _NODISCARD size_type max_size() const noexcept {

  00000	55		 push	 ebp
  00001	8b ec		 mov	 ebp, esp
  00003	83 ec 4c	 sub	 esp, 76			; 0000004cH
  00006	53		 push	 ebx
  00007	56		 push	 esi
  00008	57		 push	 edi
  00009	89 4d fc	 mov	 DWORD PTR _this$[ebp], ecx

; 1488 :         return (_STD min)(

  0000c	8b 4d fc	 mov	 ecx, DWORD PTR _this$[ebp]
  0000f	e8 00 00 00 00	 call	 ?_Getal@?$vector@VCDynamicExperienceData@@V?$allocator@VCDynamicExperienceData@@@std@@@std@@ABEABV?$allocator@VCDynamicExperienceData@@@2@XZ ; std::vector<CDynamicExperienceData,std::allocator<CDynamicExperienceData> >::_Getal
  00014	50		 push	 eax
  00015	e8 00 00 00 00	 call	 ?max_size@?$_Default_allocator_traits@V?$allocator@VCDynamicExperienceData@@@std@@@std@@SAIABV?$allocator@VCDynamicExperienceData@@@2@@Z ; std::_Default_allocator_traits<std::allocator<CDynamicExperienceData> >::max_size
  0001a	83 c4 04	 add	 esp, 4
  0001d	89 45 b8	 mov	 DWORD PTR $T2[ebp], eax
  00020	e8 00 00 00 00	 call	 ?max@?$numeric_limits@H@std@@SAHXZ ; std::numeric_limits<int>::max
  00025	89 45 b4	 mov	 DWORD PTR $T1[ebp], eax
  00028	8d 45 b8	 lea	 eax, DWORD PTR $T2[ebp]
  0002b	50		 push	 eax
  0002c	8d 4d b4	 lea	 ecx, DWORD PTR $T1[ebp]
  0002f	51		 push	 ecx
  00030	e8 00 00 00 00	 call	 ??$min@I@std@@YAABIABI0@Z ; std::min<unsigned int>
  00035	83 c4 08	 add	 esp, 8
  00038	8b 00		 mov	 eax, DWORD PTR [eax]

; 1489 :             static_cast<size_type>((numeric_limits<difference_type>::max)()), _Alty_traits::max_size(_Getal()));
; 1490 :     }

  0003a	5f		 pop	 edi
  0003b	5e		 pop	 esi
  0003c	5b		 pop	 ebx
  0003d	8b e5		 mov	 esp, ebp
  0003f	5d		 pop	 ebp
  00040	c3		 ret	 0
?max_size@?$vector@VCDynamicExperienceData@@V?$allocator@VCDynamicExperienceData@@@std@@@std@@QBEIXZ ENDP ; std::vector<CDynamicExperienceData,std::allocator<CDynamicExperienceData> >::max_size
_TEXT	ENDS
; Function compile flags: /Odtp /ZI
; File C:\Program Files (x86)\Microsoft Visual Studio\2019\Community\VC\Tools\MSVC\14.27.29110\include\vector
;	COMDAT ?end@?$vector@VCDynamicExperienceData@@V?$allocator@VCDynamicExperienceData@@@std@@@std@@QAE?AV?$_Vector_iterator@V?$_Vector_val@U?$_Simple_types@VCDynamicExperienceData@@@std@@@std@@@2@XZ
_TEXT	SEGMENT
__My_data$ = -8						; size = 4
_this$ = -4						; size = 4
___$ReturnUdt$ = 8					; size = 4
?end@?$vector@VCDynamicExperienceData@@V?$allocator@VCDynamicExperienceData@@@std@@@std@@QAE?AV?$_Vector_iterator@V?$_Vector_val@U?$_Simple_types@VCDynamicExperienceData@@@std@@@std@@@2@XZ PROC ; std::vector<CDynamicExperienceData,std::allocator<CDynamicExperienceData> >::end, COMDAT
; _this$ = ecx

; 1419 :     _NODISCARD iterator end() noexcept {

  00000	55		 push	 ebp
  00001	8b ec		 mov	 ebp, esp
  00003	83 ec 48	 sub	 esp, 72			; 00000048H
  00006	53		 push	 ebx
  00007	56		 push	 esi
  00008	57		 push	 edi
  00009	89 4d fc	 mov	 DWORD PTR _this$[ebp], ecx

; 1420 :         auto& _My_data = _Mypair._Myval2;

  0000c	8b 45 fc	 mov	 eax, DWORD PTR _this$[ebp]
  0000f	89 45 f8	 mov	 DWORD PTR __My_data$[ebp], eax

; 1421 :         return iterator(_My_data._Mylast, _STD addressof(_My_data));

  00012	8b 45 f8	 mov	 eax, DWORD PTR __My_data$[ebp]
  00015	50		 push	 eax
  00016	e8 00 00 00 00	 call	 ??$addressof@V?$_Vector_val@U?$_Simple_types@VCDynamicExperienceData@@@std@@@std@@@std@@YAPAV?$_Vector_val@U?$_Simple_types@VCDynamicExperienceData@@@std@@@0@AAV10@@Z ; std::addressof<std::_Vector_val<std::_Simple_types<CDynamicExperienceData> > >
  0001b	83 c4 04	 add	 esp, 4
  0001e	50		 push	 eax
  0001f	8b 4d f8	 mov	 ecx, DWORD PTR __My_data$[ebp]
  00022	8b 51 04	 mov	 edx, DWORD PTR [ecx+4]
  00025	52		 push	 edx
  00026	8b 4d 08	 mov	 ecx, DWORD PTR ___$ReturnUdt$[ebp]
  00029	e8 00 00 00 00	 call	 ??0?$_Vector_iterator@V?$_Vector_val@U?$_Simple_types@VCDynamicExperienceData@@@std@@@std@@@std@@QAE@PAVCDynamicExperienceData@@PBU_Container_base0@1@@Z
  0002e	8b 45 08	 mov	 eax, DWORD PTR ___$ReturnUdt$[ebp]

; 1422 :     }

  00031	5f		 pop	 edi
  00032	5e		 pop	 esi
  00033	5b		 pop	 ebx
  00034	8b e5		 mov	 esp, ebp
  00036	5d		 pop	 ebp
  00037	c2 04 00	 ret	 4
?end@?$vector@VCDynamicExperienceData@@V?$allocator@VCDynamicExperienceData@@@std@@@std@@QAE?AV?$_Vector_iterator@V?$_Vector_val@U?$_Simple_types@VCDynamicExperienceData@@@std@@@std@@@2@XZ ENDP ; std::vector<CDynamicExperienceData,std::allocator<CDynamicExperienceData> >::end
_TEXT	ENDS
; Function compile flags: /Odtp /ZI
; File C:\Program Files (x86)\Microsoft Visual Studio\2019\Community\VC\Tools\MSVC\14.27.29110\include\vector
;	COMDAT ?begin@?$vector@VCDynamicExperienceData@@V?$allocator@VCDynamicExperienceData@@@std@@@std@@QAE?AV?$_Vector_iterator@V?$_Vector_val@U?$_Simple_types@VCDynamicExperienceData@@@std@@@std@@@2@XZ
_TEXT	SEGMENT
__My_data$ = -8						; size = 4
_this$ = -4						; size = 4
___$ReturnUdt$ = 8					; size = 4
?begin@?$vector@VCDynamicExperienceData@@V?$allocator@VCDynamicExperienceData@@@std@@@std@@QAE?AV?$_Vector_iterator@V?$_Vector_val@U?$_Simple_types@VCDynamicExperienceData@@@std@@@std@@@2@XZ PROC ; std::vector<CDynamicExperienceData,std::allocator<CDynamicExperienceData> >::begin, COMDAT
; _this$ = ecx

; 1409 :     _NODISCARD iterator begin() noexcept {

  00000	55		 push	 ebp
  00001	8b ec		 mov	 ebp, esp
  00003	83 ec 48	 sub	 esp, 72			; 00000048H
  00006	53		 push	 ebx
  00007	56		 push	 esi
  00008	57		 push	 edi
  00009	89 4d fc	 mov	 DWORD PTR _this$[ebp], ecx

; 1410 :         auto& _My_data = _Mypair._Myval2;

  0000c	8b 45 fc	 mov	 eax, DWORD PTR _this$[ebp]
  0000f	89 45 f8	 mov	 DWORD PTR __My_data$[ebp], eax

; 1411 :         return iterator(_My_data._Myfirst, _STD addressof(_My_data));

  00012	8b 45 f8	 mov	 eax, DWORD PTR __My_data$[ebp]
  00015	50		 push	 eax
  00016	e8 00 00 00 00	 call	 ??$addressof@V?$_Vector_val@U?$_Simple_types@VCDynamicExperienceData@@@std@@@std@@@std@@YAPAV?$_Vector_val@U?$_Simple_types@VCDynamicExperienceData@@@std@@@0@AAV10@@Z ; std::addressof<std::_Vector_val<std::_Simple_types<CDynamicExperienceData> > >
  0001b	83 c4 04	 add	 esp, 4
  0001e	50		 push	 eax
  0001f	8b 4d f8	 mov	 ecx, DWORD PTR __My_data$[ebp]
  00022	8b 11		 mov	 edx, DWORD PTR [ecx]
  00024	52		 push	 edx
  00025	8b 4d 08	 mov	 ecx, DWORD PTR ___$ReturnUdt$[ebp]
  00028	e8 00 00 00 00	 call	 ??0?$_Vector_iterator@V?$_Vector_val@U?$_Simple_types@VCDynamicExperienceData@@@std@@@std@@@std@@QAE@PAVCDynamicExperienceData@@PBU_Container_base0@1@@Z
  0002d	8b 45 08	 mov	 eax, DWORD PTR ___$ReturnUdt$[ebp]

; 1412 :     }

  00030	5f		 pop	 edi
  00031	5e		 pop	 esi
  00032	5b		 pop	 ebx
  00033	8b e5		 mov	 esp, ebp
  00035	5d		 pop	 ebp
  00036	c2 04 00	 ret	 4
?begin@?$vector@VCDynamicExperienceData@@V?$allocator@VCDynamicExperienceData@@@std@@@std@@QAE?AV?$_Vector_iterator@V?$_Vector_val@U?$_Simple_types@VCDynamicExperienceData@@@std@@@std@@@2@XZ ENDP ; std::vector<CDynamicExperienceData,std::allocator<CDynamicExperienceData> >::begin
_TEXT	ENDS
; Function compile flags: /Odtp /ZI
; File C:\Program Files (x86)\Microsoft Visual Studio\2019\Community\VC\Tools\MSVC\14.27.29110\include\vector
;	COMDAT ?push_back@?$vector@VCDynamicExperienceData@@V?$allocator@VCDynamicExperienceData@@@std@@@std@@QAEXABVCDynamicExperienceData@@@Z
_TEXT	SEGMENT
_this$ = -4						; size = 4
__Val$ = 8						; size = 4
?push_back@?$vector@VCDynamicExperienceData@@V?$allocator@VCDynamicExperienceData@@@std@@@std@@QAEXABVCDynamicExperienceData@@@Z PROC ; std::vector<CDynamicExperienceData,std::allocator<CDynamicExperienceData> >::push_back, COMDAT
; _this$ = ecx

; 716  :     void push_back(const _Ty& _Val) { // insert element at end, provide strong guarantee

  00000	55		 push	 ebp
  00001	8b ec		 mov	 ebp, esp
  00003	83 ec 44	 sub	 esp, 68			; 00000044H
  00006	53		 push	 ebx
  00007	56		 push	 esi
  00008	57		 push	 edi
  00009	89 4d fc	 mov	 DWORD PTR _this$[ebp], ecx

; 717  :         emplace_back(_Val);

  0000c	8b 45 08	 mov	 eax, DWORD PTR __Val$[ebp]
  0000f	50		 push	 eax
  00010	8b 4d fc	 mov	 ecx, DWORD PTR _this$[ebp]
  00013	e8 00 00 00 00	 call	 ??$emplace_back@ABVCDynamicExperienceData@@@?$vector@VCDynamicExperienceData@@V?$allocator@VCDynamicExperienceData@@@std@@@std@@QAE@ABVCDynamicExperienceData@@@Z ; std::vector<CDynamicExperienceData,std::allocator<CDynamicExperienceData> >::emplace_back<CDynamicExperienceData const &>

; 718  :     }

  00018	5f		 pop	 edi
  00019	5e		 pop	 esi
  0001a	5b		 pop	 ebx
  0001b	8b e5		 mov	 esp, ebp
  0001d	5d		 pop	 ebp
  0001e	c2 04 00	 ret	 4
?push_back@?$vector@VCDynamicExperienceData@@V?$allocator@VCDynamicExperienceData@@@std@@@std@@QAEXABVCDynamicExperienceData@@@Z ENDP ; std::vector<CDynamicExperienceData,std::allocator<CDynamicExperienceData> >::push_back
_TEXT	ENDS
; Function compile flags: /Odtp /ZI
; File C:\Program Files (x86)\Microsoft Visual Studio\2019\Community\VC\Tools\MSVC\14.27.29110\include\vector
;	COMDAT ??1?$vector@VCDynamicExperienceData@@V?$allocator@VCDynamicExperienceData@@@std@@@std@@QAE@XZ
_TEXT	SEGMENT
_this$ = -4						; size = 4
??1?$vector@VCDynamicExperienceData@@V?$allocator@VCDynamicExperienceData@@@std@@@std@@QAE@XZ PROC ; std::vector<CDynamicExperienceData,std::allocator<CDynamicExperienceData> >::~vector<CDynamicExperienceData,std::allocator<CDynamicExperienceData> >, COMDAT
; _this$ = ecx

; 672  :     ~vector() noexcept {

  00000	55		 push	 ebp
  00001	8b ec		 mov	 ebp, esp
  00003	83 ec 44	 sub	 esp, 68			; 00000044H
  00006	53		 push	 ebx
  00007	56		 push	 esi
  00008	57		 push	 edi
  00009	89 4d fc	 mov	 DWORD PTR _this$[ebp], ecx

; 673  :         _Tidy();

  0000c	8b 4d fc	 mov	 ecx, DWORD PTR _this$[ebp]
  0000f	e8 00 00 00 00	 call	 ?_Tidy@?$vector@VCDynamicExperienceData@@V?$allocator@VCDynamicExperienceData@@@std@@@std@@AAEXXZ ; std::vector<CDynamicExperienceData,std::allocator<CDynamicExperienceData> >::_Tidy

; 674  : #if _ITERATOR_DEBUG_LEVEL != 0
; 675  :         auto&& _Alproxy = _GET_PROXY_ALLOCATOR(_Alty, _Getal());
; 676  :         _Delete_plain_internal(_Alproxy, _STD exchange(_Mypair._Myval2._Myproxy, nullptr));
; 677  : #endif // _ITERATOR_DEBUG_LEVEL != 0
; 678  :     }

  00014	5f		 pop	 edi
  00015	5e		 pop	 esi
  00016	5b		 pop	 ebx
  00017	8b e5		 mov	 esp, ebp
  00019	5d		 pop	 ebp
  0001a	c3		 ret	 0
??1?$vector@VCDynamicExperienceData@@V?$allocator@VCDynamicExperienceData@@@std@@@std@@QAE@XZ ENDP ; std::vector<CDynamicExperienceData,std::allocator<CDynamicExperienceData> >::~vector<CDynamicExperienceData,std::allocator<CDynamicExperienceData> >
_TEXT	ENDS
; Function compile flags: /Odtp /ZI
; File C:\Program Files (x86)\Microsoft Visual Studio\2019\Community\VC\Tools\MSVC\14.27.29110\include\vector
;	COMDAT ??0?$vector@VCDynamicExperienceData@@V?$allocator@VCDynamicExperienceData@@@std@@@std@@QAE@XZ
_TEXT	SEGMENT
$T1 = -70						; size = 1
$T2 = -69						; size = 1
_this$ = -4						; size = 4
??0?$vector@VCDynamicExperienceData@@V?$allocator@VCDynamicExperienceData@@@std@@@std@@QAE@XZ PROC ; std::vector<CDynamicExperienceData,std::allocator<CDynamicExperienceData> >::vector<CDynamicExperienceData,std::allocator<CDynamicExperienceData> >, COMDAT
; _this$ = ecx

; 445  :     vector() noexcept(is_nothrow_default_constructible_v<_Alty>) : _Mypair(_Zero_then_variadic_args_t{}) {

  00000	55		 push	 ebp
  00001	8b ec		 mov	 ebp, esp
  00003	83 ec 48	 sub	 esp, 72			; 00000048H
  00006	53		 push	 ebx
  00007	56		 push	 esi
  00008	57		 push	 edi
  00009	89 4d fc	 mov	 DWORD PTR _this$[ebp], ecx
  0000c	0f b6 45 bb	 movzx	 eax, BYTE PTR $T2[ebp]
  00010	50		 push	 eax
  00011	8b 4d fc	 mov	 ecx, DWORD PTR _this$[ebp]
  00014	e8 00 00 00 00	 call	 ??$?0$$V@?$_Compressed_pair@V?$allocator@VCDynamicExperienceData@@@std@@V?$_Vector_val@U?$_Simple_types@VCDynamicExperienceData@@@std@@@2@$00@std@@QAE@U_Zero_then_variadic_args_t@1@@Z ; std::_Compressed_pair<std::allocator<CDynamicExperienceData>,std::_Vector_val<std::_Simple_types<CDynamicExperienceData> >,1>::_Compressed_pair<std::allocator<CDynamicExperienceData>,std::_Vector_val<std::_Simple_types<CDynamicExperienceData> >,1><>

; 446  :         _Mypair._Myval2._Alloc_proxy(_GET_PROXY_ALLOCATOR(_Alty, _Getal()));

  00019	8d 45 ba	 lea	 eax, DWORD PTR $T1[ebp]
  0001c	50		 push	 eax
  0001d	8b 4d fc	 mov	 ecx, DWORD PTR _this$[ebp]
  00020	e8 00 00 00 00	 call	 ?_Alloc_proxy@_Container_base0@std@@QAEXABU_Fake_allocator@2@@Z ; std::_Container_base0::_Alloc_proxy

; 447  :     }

  00025	8b 45 fc	 mov	 eax, DWORD PTR _this$[ebp]
  00028	5f		 pop	 edi
  00029	5e		 pop	 esi
  0002a	5b		 pop	 ebx
  0002b	8b e5		 mov	 esp, ebp
  0002d	5d		 pop	 ebp
  0002e	c3		 ret	 0
??0?$vector@VCDynamicExperienceData@@V?$allocator@VCDynamicExperienceData@@@std@@@std@@QAE@XZ ENDP ; std::vector<CDynamicExperienceData,std::allocator<CDynamicExperienceData> >::vector<CDynamicExperienceData,std::allocator<CDynamicExperienceData> >
_TEXT	ENDS
; Function compile flags: /Odtp /ZI
; File C:\Program Files (x86)\Microsoft Visual Studio\2019\Community\VC\Tools\MSVC\14.27.29110\include\xmemory
;	COMDAT ?max_size@?$_Default_allocator_traits@V?$allocator@VCDynamicExperienceData@@@std@@@std@@SAIABV?$allocator@VCDynamicExperienceData@@@2@@Z
_TEXT	SEGMENT
___formal$ = 8						; size = 4
?max_size@?$_Default_allocator_traits@V?$allocator@VCDynamicExperienceData@@@std@@@std@@SAIABV?$allocator@VCDynamicExperienceData@@@2@@Z PROC ; std::_Default_allocator_traits<std::allocator<CDynamicExperienceData> >::max_size, COMDAT

; 702  :     _NODISCARD static size_type max_size(const _Alloc&) noexcept {

  00000	55		 push	 ebp
  00001	8b ec		 mov	 ebp, esp
  00003	83 ec 40	 sub	 esp, 64			; 00000040H
  00006	53		 push	 ebx
  00007	56		 push	 esi
  00008	57		 push	 edi

; 703  :         return static_cast<size_t>(-1) / sizeof(value_type);

  00009	b8 ff ff ff 1f	 mov	 eax, 536870911		; 1fffffffH

; 704  :     }

  0000e	5f		 pop	 edi
  0000f	5e		 pop	 esi
  00010	5b		 pop	 ebx
  00011	8b e5		 mov	 esp, ebp
  00013	5d		 pop	 ebp
  00014	c3		 ret	 0
?max_size@?$_Default_allocator_traits@V?$allocator@VCDynamicExperienceData@@@std@@@std@@SAIABV?$allocator@VCDynamicExperienceData@@@2@@Z ENDP ; std::_Default_allocator_traits<std::allocator<CDynamicExperienceData> >::max_size
_TEXT	ENDS
; Function compile flags: /Odtp /ZI
; File C:\Program Files (x86)\Microsoft Visual Studio\2019\Community\VC\Tools\MSVC\14.27.29110\include\xmemory
;	COMDAT ?allocate@?$allocator@VCDynamicExperienceData@@@std@@QAEPAVCDynamicExperienceData@@I@Z
_TEXT	SEGMENT
_this$ = -4						; size = 4
__Count$ = 8						; size = 4
?allocate@?$allocator@VCDynamicExperienceData@@@std@@QAEPAVCDynamicExperienceData@@I@Z PROC ; std::allocator<CDynamicExperienceData>::allocate, COMDAT
; _this$ = ecx

; 806  :     _NODISCARD __declspec(allocator) _Ty* allocate(_CRT_GUARDOVERFLOW const size_t _Count) {

  00000	55		 push	 ebp
  00001	8b ec		 mov	 ebp, esp
  00003	83 ec 44	 sub	 esp, 68			; 00000044H
  00006	53		 push	 ebx
  00007	56		 push	 esi
  00008	57		 push	 edi
  00009	89 4d fc	 mov	 DWORD PTR _this$[ebp], ecx

; 807  :         return static_cast<_Ty*>(_Allocate<_New_alignof<_Ty>>(_Get_size_of_n<sizeof(_Ty)>(_Count)));

  0000c	8b 45 08	 mov	 eax, DWORD PTR __Count$[ebp]
  0000f	50		 push	 eax
  00010	e8 00 00 00 00	 call	 ??$_Get_size_of_n@$07@std@@YAII@Z ; std::_Get_size_of_n<8>
  00015	83 c4 04	 add	 esp, 4
  00018	50		 push	 eax
  00019	e8 00 00 00 00	 call	 ??$_Allocate@$07U_Default_allocate_traits@std@@$0A@@std@@YAPAXI@Z ; std::_Allocate<8,std::_Default_allocate_traits,0>
  0001e	83 c4 04	 add	 esp, 4

; 808  :     }

  00021	5f		 pop	 edi
  00022	5e		 pop	 esi
  00023	5b		 pop	 ebx
  00024	8b e5		 mov	 esp, ebp
  00026	5d		 pop	 ebp
  00027	c2 04 00	 ret	 4
?allocate@?$allocator@VCDynamicExperienceData@@@std@@QAEPAVCDynamicExperienceData@@I@Z ENDP ; std::allocator<CDynamicExperienceData>::allocate
_TEXT	ENDS
; Function compile flags: /Odtp /ZI
; File C:\Program Files (x86)\Microsoft Visual Studio\2019\Community\VC\Tools\MSVC\14.27.29110\include\xmemory
;	COMDAT ?deallocate@?$allocator@VCDynamicExperienceData@@@std@@QAEXQAVCDynamicExperienceData@@I@Z
_TEXT	SEGMENT
_this$ = -4						; size = 4
__Ptr$ = 8						; size = 4
__Count$ = 12						; size = 4
?deallocate@?$allocator@VCDynamicExperienceData@@@std@@QAEXQAVCDynamicExperienceData@@I@Z PROC ; std::allocator<CDynamicExperienceData>::deallocate, COMDAT
; _this$ = ecx

; 801  :     void deallocate(_Ty* const _Ptr, const size_t _Count) {

  00000	55		 push	 ebp
  00001	8b ec		 mov	 ebp, esp
  00003	83 ec 44	 sub	 esp, 68			; 00000044H
  00006	53		 push	 ebx
  00007	56		 push	 esi
  00008	57		 push	 edi
  00009	89 4d fc	 mov	 DWORD PTR _this$[ebp], ecx

; 802  :         // no overflow check on the following multiply; we assume _Allocate did that check
; 803  :         _Deallocate<_New_alignof<_Ty>>(_Ptr, sizeof(_Ty) * _Count);

  0000c	8b 45 0c	 mov	 eax, DWORD PTR __Count$[ebp]
  0000f	c1 e0 03	 shl	 eax, 3
  00012	50		 push	 eax
  00013	8b 4d 08	 mov	 ecx, DWORD PTR __Ptr$[ebp]
  00016	51		 push	 ecx
  00017	e8 00 00 00 00	 call	 ??$_Deallocate@$07$0A@@std@@YAXPAXI@Z ; std::_Deallocate<8,0>
  0001c	83 c4 08	 add	 esp, 8

; 804  :     }

  0001f	5f		 pop	 edi
  00020	5e		 pop	 esi
  00021	5b		 pop	 ebx
  00022	8b e5		 mov	 esp, ebp
  00024	5d		 pop	 ebp
  00025	c2 08 00	 ret	 8
?deallocate@?$allocator@VCDynamicExperienceData@@@std@@QAEXQAVCDynamicExperienceData@@I@Z ENDP ; std::allocator<CDynamicExperienceData>::deallocate
_TEXT	ENDS
; Function compile flags: /Odtp /ZI
; File C:\Program Files (x86)\Microsoft Visual Studio\2019\Community\VC\Tools\MSVC\14.27.29110\include\xmemory
;	COMDAT ??0?$allocator@VCDynamicExperienceData@@@std@@QAE@XZ
_TEXT	SEGMENT
_this$ = -4						; size = 4
??0?$allocator@VCDynamicExperienceData@@@std@@QAE@XZ PROC ; std::allocator<CDynamicExperienceData>::allocator<CDynamicExperienceData>, COMDAT
; _this$ = ecx

; 795  :     constexpr allocator() noexcept {}

  00000	55		 push	 ebp
  00001	8b ec		 mov	 ebp, esp
  00003	83 ec 44	 sub	 esp, 68			; 00000044H
  00006	53		 push	 ebx
  00007	56		 push	 esi
  00008	57		 push	 edi
  00009	89 4d fc	 mov	 DWORD PTR _this$[ebp], ecx
  0000c	8b 45 fc	 mov	 eax, DWORD PTR _this$[ebp]
  0000f	5f		 pop	 edi
  00010	5e		 pop	 esi
  00011	5b		 pop	 ebx
  00012	8b e5		 mov	 esp, ebp
  00014	5d		 pop	 ebp
  00015	c3		 ret	 0
??0?$allocator@VCDynamicExperienceData@@@std@@QAE@XZ ENDP ; std::allocator<CDynamicExperienceData>::allocator<CDynamicExperienceData>
_TEXT	ENDS
; Function compile flags: /Odtp /ZI
; File C:\Mu Online\Mu-GS-Webzen-MC-10093\GameServer\DynamicExperience.cpp
;	COMDAT ?_getNewExperience@CDynamicExperience@@QAEKKM@Z
_TEXT	SEGMENT
tv77 = -88						; size = 8
tv74 = -80						; size = 4
__new_exp$ = -12					; size = 8
_this$ = -4						; size = 4
_m_dwExperience$ = 8					; size = 4
_m_fDivider$ = 12					; size = 4
?_getNewExperience@CDynamicExperience@@QAEKKM@Z PROC	; CDynamicExperience::_getNewExperience, COMDAT
; _this$ = ecx

; 71   : {

  00000	55		 push	 ebp
  00001	8b ec		 mov	 ebp, esp
  00003	83 ec 58	 sub	 esp, 88			; 00000058H
  00006	53		 push	 ebx
  00007	56		 push	 esi
  00008	57		 push	 edi
  00009	89 4d fc	 mov	 DWORD PTR _this$[ebp], ecx

; 72   : 	double _new_exp = (m_dwExperience / 100) * (100.0f - m_fDivider); 

  0000c	8b 45 08	 mov	 eax, DWORD PTR _m_dwExperience$[ebp]
  0000f	33 d2		 xor	 edx, edx
  00011	b9 64 00 00 00	 mov	 ecx, 100		; 00000064H
  00016	f7 f1		 div	 ecx
  00018	89 45 b0	 mov	 DWORD PTR tv74[ebp], eax
  0001b	f2 0f 2a 45 b0	 cvtsi2sd xmm0, DWORD PTR tv74[ebp]
  00020	8b 55 b0	 mov	 edx, DWORD PTR tv74[ebp]
  00023	c1 ea 1f	 shr	 edx, 31			; 0000001fH
  00026	f2 0f 58 04 d5
	00 00 00 00	 addsd	 xmm0, QWORD PTR __xmm@41f00000000000000000000000000000[edx*8]
  0002f	f2 0f 11 45 a8	 movsd	 QWORD PTR tv77[ebp], xmm0
  00034	f2 0f 5a 45 a8	 cvtsd2ss xmm0, QWORD PTR tv77[ebp]
  00039	f3 0f 10 0d 00
	00 00 00	 movss	 xmm1, DWORD PTR __real@42c80000
  00041	f3 0f 5c 4d 0c	 subss	 xmm1, DWORD PTR _m_fDivider$[ebp]
  00046	f3 0f 59 c1	 mulss	 xmm0, xmm1
  0004a	f3 0f 5a c0	 cvtss2sd xmm0, xmm0
  0004e	f2 0f 11 45 f4	 movsd	 QWORD PTR __new_exp$[ebp], xmm0

; 73   : 	
; 74   : 	return (DWORD)_new_exp;//nuevo

  00053	f2 0f 10 45 f4	 movsd	 xmm0, QWORD PTR __new_exp$[ebp]
  00058	e8 00 00 00 00	 call	 __dtoui3

; 75   : }

  0005d	5f		 pop	 edi
  0005e	5e		 pop	 esi
  0005f	5b		 pop	 ebx
  00060	8b e5		 mov	 esp, ebp
  00062	5d		 pop	 ebp
  00063	c2 08 00	 ret	 8
?_getNewExperience@CDynamicExperience@@QAEKKM@Z ENDP	; CDynamicExperience::_getNewExperience
_TEXT	ENDS
; Function compile flags: /Odtp /ZI
; File C:\Mu Online\Mu-GS-Webzen-MC-10093\GameServer\DynamicExperience.cpp
;	COMDAT ?_checkCondition@CDynamicExperience@@QAEMPAVOBJECTSTRUCT@@@Z
_TEXT	SEGMENT
$T1 = -92						; size = 4
$T2 = -88						; size = 4
_Resets$3 = -20						; size = 4
_i$ = -16						; size = 4
__lastReset$ = -12					; size = 4
__fDivider$ = -8					; size = 4
_this$ = -4						; size = 4
_lpObj$ = 8						; size = 4
?_checkCondition@CDynamicExperience@@QAEMPAVOBJECTSTRUCT@@@Z PROC ; CDynamicExperience::_checkCondition, COMDAT
; _this$ = ecx

; 41   : {

  00000	55		 push	 ebp
  00001	8b ec		 mov	 ebp, esp
  00003	83 ec 5c	 sub	 esp, 92			; 0000005cH
  00006	53		 push	 ebx
  00007	56		 push	 esi
  00008	57		 push	 edi
  00009	89 4d fc	 mov	 DWORD PTR _this$[ebp], ecx

; 42   : 	if (gSettings->_dymanic_exp.m_isWork == 0) 

  0000c	a1 00 00 00 00	 mov	 eax, DWORD PTR ?gSettings@@3PAVCSettings@@A ; gSettings
  00011	83 b8 90 00 00
	00 00		 cmp	 DWORD PTR [eax+144], 0
  00018	75 07		 jne	 SHORT $LN5@checkCondi

; 43   : 	{
; 44   : 		return 0;

  0001a	d9 ee		 fldz
  0001c	e9 9a 00 00 00	 jmp	 $LN1@checkCondi
$LN5@checkCondi:

; 45   : 	}
; 46   : 	// ----
; 47   : 	float _fDivider = 0;

  00021	0f 57 c0	 xorps	 xmm0, xmm0
  00024	f3 0f 11 45 f8	 movss	 DWORD PTR __fDivider$[ebp], xmm0

; 48   : 	int _lastReset = 0;

  00029	c7 45 f4 00 00
	00 00		 mov	 DWORD PTR __lastReset$[ebp], 0

; 49   : 
; 50   : 	std::vector<CDynamicExperienceData>::iterator i = _dynamic_exp_data.begin();

  00030	8d 45 f0	 lea	 eax, DWORD PTR _i$[ebp]
  00033	50		 push	 eax
  00034	8b 4d fc	 mov	 ecx, DWORD PTR _this$[ebp]
  00037	e8 00 00 00 00	 call	 ?begin@?$vector@VCDynamicExperienceData@@V?$allocator@VCDynamicExperienceData@@@std@@@std@@QAE?AV?$_Vector_iterator@V?$_Vector_val@U?$_Simple_types@VCDynamicExperienceData@@@std@@@std@@@2@XZ ; std::vector<CDynamicExperienceData,std::allocator<CDynamicExperienceData> >::begin
  0003c	eb 0e		 jmp	 SHORT $LN4@checkCondi
$LN2@checkCondi:

; 51   : 
; 52   : 	for (; i != _dynamic_exp_data.end(); i ++) 

  0003e	6a 00		 push	 0
  00040	8d 45 a8	 lea	 eax, DWORD PTR $T2[ebp]
  00043	50		 push	 eax
  00044	8d 4d f0	 lea	 ecx, DWORD PTR _i$[ebp]
  00047	e8 00 00 00 00	 call	 ??E?$_Vector_iterator@V?$_Vector_val@U?$_Simple_types@VCDynamicExperienceData@@@std@@@std@@@std@@QAE?AV01@H@Z ; std::_Vector_iterator<std::_Vector_val<std::_Simple_types<CDynamicExperienceData> > >::operator++
$LN4@checkCondi:
  0004c	8d 45 a4	 lea	 eax, DWORD PTR $T1[ebp]
  0004f	50		 push	 eax
  00050	8b 4d fc	 mov	 ecx, DWORD PTR _this$[ebp]
  00053	e8 00 00 00 00	 call	 ?end@?$vector@VCDynamicExperienceData@@V?$allocator@VCDynamicExperienceData@@@std@@@std@@QAE?AV?$_Vector_iterator@V?$_Vector_val@U?$_Simple_types@VCDynamicExperienceData@@@std@@@std@@@2@XZ ; std::vector<CDynamicExperienceData,std::allocator<CDynamicExperienceData> >::end
  00058	50		 push	 eax
  00059	8d 4d f0	 lea	 ecx, DWORD PTR _i$[ebp]
  0005c	e8 00 00 00 00	 call	 ??9?$_Vector_const_iterator@V?$_Vector_val@U?$_Simple_types@VCDynamicExperienceData@@@std@@@std@@@std@@QBE_NABV01@@Z ; std::_Vector_const_iterator<std::_Vector_val<std::_Simple_types<CDynamicExperienceData> > >::operator!=
  00061	0f b6 c8	 movzx	 ecx, al
  00064	85 c9		 test	 ecx, ecx
  00066	74 50		 je	 SHORT $LN3@checkCondi

; 53   : 	{
; 54   : 		int Resets = lpObj->m_iResetNumber; //Manager.CountResets(lpObj->Name);//lpObj->m_iResetNumber

  00068	8b 45 08	 mov	 eax, DWORD PTR _lpObj$[ebp]
  0006b	8b 88 78 1a 00
	00		 mov	 ecx, DWORD PTR [eax+6776]
  00071	89 4d ec	 mov	 DWORD PTR _Resets$3[ebp], ecx

; 55   : 
; 56   : 		if (i->m_iReset > _lastReset) 

  00074	8d 4d f0	 lea	 ecx, DWORD PTR _i$[ebp]
  00077	e8 00 00 00 00	 call	 ??C?$_Vector_iterator@V?$_Vector_val@U?$_Simple_types@VCDynamicExperienceData@@@std@@@std@@@std@@QBEPAVCDynamicExperienceData@@XZ ; std::_Vector_iterator<std::_Vector_val<std::_Simple_types<CDynamicExperienceData> > >::operator->
  0007c	8b 00		 mov	 eax, DWORD PTR [eax]
  0007e	3b 45 f4	 cmp	 eax, DWORD PTR __lastReset$[ebp]
  00081	7e 33		 jle	 SHORT $LN6@checkCondi

; 57   : 		{
; 58   : 			if (Resets < i->m_iReset) 

  00083	8d 4d f0	 lea	 ecx, DWORD PTR _i$[ebp]
  00086	e8 00 00 00 00	 call	 ??C?$_Vector_iterator@V?$_Vector_val@U?$_Simple_types@VCDynamicExperienceData@@@std@@@std@@@std@@QBEPAVCDynamicExperienceData@@XZ ; std::_Vector_iterator<std::_Vector_val<std::_Simple_types<CDynamicExperienceData> > >::operator->
  0008b	8b 4d ec	 mov	 ecx, DWORD PTR _Resets$3[ebp]
  0008e	3b 08		 cmp	 ecx, DWORD PTR [eax]
  00090	7d 05		 jge	 SHORT $LN7@checkCondi

; 59   : 			{
; 60   : 				return _fDivider;

  00092	d9 45 f8	 fld	 DWORD PTR __fDivider$[ebp]
  00095	eb 24		 jmp	 SHORT $LN1@checkCondi
$LN7@checkCondi:

; 61   : 			}
; 62   : 			_lastReset = i->m_iReset;

  00097	8d 4d f0	 lea	 ecx, DWORD PTR _i$[ebp]
  0009a	e8 00 00 00 00	 call	 ??C?$_Vector_iterator@V?$_Vector_val@U?$_Simple_types@VCDynamicExperienceData@@@std@@@std@@@std@@QBEPAVCDynamicExperienceData@@XZ ; std::_Vector_iterator<std::_Vector_val<std::_Simple_types<CDynamicExperienceData> > >::operator->
  0009f	8b 00		 mov	 eax, DWORD PTR [eax]
  000a1	89 45 f4	 mov	 DWORD PTR __lastReset$[ebp], eax

; 63   : 			_fDivider = i->m_fDivider;

  000a4	8d 4d f0	 lea	 ecx, DWORD PTR _i$[ebp]
  000a7	e8 00 00 00 00	 call	 ??C?$_Vector_iterator@V?$_Vector_val@U?$_Simple_types@VCDynamicExperienceData@@@std@@@std@@@std@@QBEPAVCDynamicExperienceData@@XZ ; std::_Vector_iterator<std::_Vector_val<std::_Simple_types<CDynamicExperienceData> > >::operator->
  000ac	f3 0f 10 40 04	 movss	 xmm0, DWORD PTR [eax+4]
  000b1	f3 0f 11 45 f8	 movss	 DWORD PTR __fDivider$[ebp], xmm0
$LN6@checkCondi:

; 64   : 		}
; 65   : 	}

  000b6	eb 86		 jmp	 SHORT $LN2@checkCondi
$LN3@checkCondi:

; 66   : 	// ----
; 67   : 	return _fDivider;

  000b8	d9 45 f8	 fld	 DWORD PTR __fDivider$[ebp]
$LN1@checkCondi:

; 68   : }

  000bb	5f		 pop	 edi
  000bc	5e		 pop	 esi
  000bd	5b		 pop	 ebx
  000be	8b e5		 mov	 esp, ebp
  000c0	5d		 pop	 ebp
  000c1	c2 04 00	 ret	 4
?_checkCondition@CDynamicExperience@@QAEMPAVOBJECTSTRUCT@@@Z ENDP ; CDynamicExperience::_checkCondition
_TEXT	ENDS
; Function compile flags: /Odtp /ZI
; File C:\Mu Online\Mu-GS-Webzen-MC-10093\GameServer\DynamicExperience.cpp
;	COMDAT ?_loading@CDynamicExperience@@QAEXXZ
_TEXT	SEGMENT
__data$1 = -12						; size = 8
_this$ = -4						; size = 4
?_loading@CDynamicExperience@@QAEXXZ PROC		; CDynamicExperience::_loading, COMDAT
; _this$ = ecx

; 8    : {

  00000	55		 push	 ebp
  00001	8b ec		 mov	 ebp, esp
  00003	83 ec 4c	 sub	 esp, 76			; 0000004cH
  00006	53		 push	 ebx
  00007	56		 push	 esi
  00008	57		 push	 edi
  00009	89 4d fc	 mov	 DWORD PTR _this$[ebp], ecx

; 9    : 	if (gSettings->_dymanic_exp.m_isWork == 0) 

  0000c	a1 00 00 00 00	 mov	 eax, DWORD PTR ?gSettings@@3PAVCSettings@@A ; gSettings
  00011	83 b8 90 00 00
	00 00		 cmp	 DWORD PTR [eax+144], 0
  00018	75 05		 jne	 SHORT $LN5@loading

; 10   : {
; 11   : 		return;

  0001a	e9 97 00 00 00	 jmp	 $LN1@loading
$LN5@loading:

; 12   : 	}
; 13   : 	// ----
; 14   : 
; 15   : 	if((SMDFile = fopen("..\\data\\DynamicExperience.cfg", "r")) == NULL) // ".\\FT\\Settings.txt" "./Data/ExpSystem/DynamicExperience.cfg"

  0001f	68 00 00 00 00	 push	 OFFSET ??_C@_01KDCPPGHE@r@
  00024	68 00 00 00 00	 push	 OFFSET ??_C@_0BO@CEHHNHJM@?4?4?2data?2DynamicExperience?4cfg@
  00029	e8 00 00 00 00	 call	 _fopen
  0002e	83 c4 08	 add	 esp, 8
  00031	a3 00 00 00 00	 mov	 DWORD PTR ?SMDFile@@3PAU_iobuf@@A, eax
  00036	83 3d 00 00 00
	00 00		 cmp	 DWORD PTR ?SMDFile@@3PAU_iobuf@@A, 0
  0003d	75 1e		 jne	 SHORT $LN6@loading

; 16   : 	{
; 17   : 		MessageBox(0, "Error on load DynamicExperience.cfg", "Error", MB_ICONSTOP); ExitProcess(0); return;

  0003f	6a 10		 push	 16			; 00000010H
  00041	68 00 00 00 00	 push	 OFFSET ??_C@_05NAOIJFC@Error@
  00046	68 00 00 00 00	 push	 OFFSET ??_C@_0CE@HADBHEOD@Error?5on?5load?5DynamicExperience@
  0004b	6a 00		 push	 0
  0004d	ff 15 00 00 00
	00		 call	 DWORD PTR __imp__MessageBoxA@16
  00053	6a 00		 push	 0
  00055	ff 15 00 00 00
	00		 call	 DWORD PTR __imp__ExitProcess@4
  0005b	eb 59		 jmp	 SHORT $LN1@loading
$LN6@loading:
$LN2@loading:

; 18   : 	}
; 19   : 	// ----
; 20   : 	for (;;) {
; 21   : 		GetToken();

  0005d	e8 00 00 00 00	 call	 ?GetToken@@YA?AW4SMDToken@@XZ ; GetToken

; 22   : 		// ----
; 23   : 
; 24   : 		if (strstr(TokenString, "end")) 

  00062	68 00 00 00 00	 push	 OFFSET ??_C@_03JBJLGPFL@end@
  00067	68 00 00 00 00	 push	 OFFSET ?TokenString@@3PADA
  0006c	e8 00 00 00 00	 call	 ?strstr@@YAPADQADQBD@Z	; strstr
  00071	83 c4 08	 add	 esp, 8
  00074	85 c0		 test	 eax, eax
  00076	74 02		 je	 SHORT $LN7@loading

; 25   : 		{
; 26   : 			break;

  00078	eb 2e		 jmp	 SHORT $LN3@loading
$LN7@loading:

; 27   : 		}
; 28   : 		// ----
; 29   : 		CDynamicExperienceData _data;
; 30   : 		// ----
; 31   : 		_data.m_iReset = TokenNumber; GetToken();

  0007a	f3 0f 2c 05 00
	00 00 00	 cvttss2si eax, DWORD PTR ?TokenNumber@@3MA
  00082	89 45 f4	 mov	 DWORD PTR __data$1[ebp], eax
  00085	e8 00 00 00 00	 call	 ?GetToken@@YA?AW4SMDToken@@XZ ; GetToken

; 32   : 		_data.m_fDivider = atof(TokenString);

  0008a	68 00 00 00 00	 push	 OFFSET ?TokenString@@3PADA
  0008f	e8 00 00 00 00	 call	 _atof
  00094	83 c4 04	 add	 esp, 4
  00097	d9 5d f8	 fstp	 DWORD PTR __data$1[ebp+4]

; 33   : 		// ----
; 34   : 		_dynamic_exp_data.push_back(_data);

  0009a	8d 45 f4	 lea	 eax, DWORD PTR __data$1[ebp]
  0009d	50		 push	 eax
  0009e	8b 4d fc	 mov	 ecx, DWORD PTR _this$[ebp]
  000a1	e8 00 00 00 00	 call	 ?push_back@?$vector@VCDynamicExperienceData@@V?$allocator@VCDynamicExperienceData@@@std@@@std@@QAEXABVCDynamicExperienceData@@@Z ; std::vector<CDynamicExperienceData,std::allocator<CDynamicExperienceData> >::push_back

; 35   : 	}

  000a6	eb b5		 jmp	 SHORT $LN2@loading
$LN3@loading:

; 36   : 	// ----
; 37   : 	fclose(SMDFile);

  000a8	a1 00 00 00 00	 mov	 eax, DWORD PTR ?SMDFile@@3PAU_iobuf@@A
  000ad	50		 push	 eax
  000ae	e8 00 00 00 00	 call	 _fclose
  000b3	83 c4 04	 add	 esp, 4
$LN1@loading:

; 38   : }

  000b6	5f		 pop	 edi
  000b7	5e		 pop	 esi
  000b8	5b		 pop	 ebx
  000b9	8b e5		 mov	 esp, ebp
  000bb	5d		 pop	 ebp
  000bc	c3		 ret	 0
?_loading@CDynamicExperience@@QAEXXZ ENDP		; CDynamicExperience::_loading
_TEXT	ENDS
; Function compile flags: /Odtp /ZI
; File C:\Program Files (x86)\Microsoft Visual Studio\2019\Community\VC\Tools\MSVC\14.27.29110\include\xmemory
;	COMDAT ?_Adopt@_Iterator_base0@std@@QAEXPBX@Z
_TEXT	SEGMENT
_this$ = -4						; size = 4
___formal$ = 8						; size = 4
?_Adopt@_Iterator_base0@std@@QAEXPBX@Z PROC		; std::_Iterator_base0::_Adopt, COMDAT
; _this$ = ecx

; 1072 :     void _Adopt(const void*) noexcept {}

  00000	55		 push	 ebp
  00001	8b ec		 mov	 ebp, esp
  00003	83 ec 44	 sub	 esp, 68			; 00000044H
  00006	53		 push	 ebx
  00007	56		 push	 esi
  00008	57		 push	 edi
  00009	89 4d fc	 mov	 DWORD PTR _this$[ebp], ecx
  0000c	5f		 pop	 edi
  0000d	5e		 pop	 esi
  0000e	5b		 pop	 ebx
  0000f	8b e5		 mov	 esp, ebp
  00011	5d		 pop	 ebp
  00012	c2 04 00	 ret	 4
?_Adopt@_Iterator_base0@std@@QAEXPBX@Z ENDP		; std::_Iterator_base0::_Adopt
_TEXT	ENDS
; Function compile flags: /Odtp /ZI
; File C:\Program Files (x86)\Microsoft Visual Studio\2019\Community\VC\Tools\MSVC\14.27.29110\include\xmemory
;	COMDAT ?_Alloc_proxy@_Container_base0@std@@QAEXABU_Fake_allocator@2@@Z
_TEXT	SEGMENT
_this$ = -4						; size = 4
___formal$ = 8						; size = 4
?_Alloc_proxy@_Container_base0@std@@QAEXABU_Fake_allocator@2@@Z PROC ; std::_Container_base0::_Alloc_proxy, COMDAT
; _this$ = ecx

; 1067 :     void _Alloc_proxy(const _Fake_allocator&) noexcept {}

  00000	55		 push	 ebp
  00001	8b ec		 mov	 ebp, esp
  00003	83 ec 44	 sub	 esp, 68			; 00000044H
  00006	53		 push	 ebx
  00007	56		 push	 esi
  00008	57		 push	 edi
  00009	89 4d fc	 mov	 DWORD PTR _this$[ebp], ecx
  0000c	5f		 pop	 edi
  0000d	5e		 pop	 esi
  0000e	5b		 pop	 ebx
  0000f	8b e5		 mov	 esp, ebp
  00011	5d		 pop	 ebp
  00012	c2 04 00	 ret	 4
?_Alloc_proxy@_Container_base0@std@@QAEXABU_Fake_allocator@2@@Z ENDP ; std::_Container_base0::_Alloc_proxy
_TEXT	ENDS
; Function compile flags: /Odtp /ZI
; File C:\Program Files (x86)\Microsoft Visual Studio\2019\Community\VC\Tools\MSVC\14.27.29110\include\xmemory
;	COMDAT ?_Orphan_all@_Container_base0@std@@QAEXXZ
_TEXT	SEGMENT
_this$ = -4						; size = 4
?_Orphan_all@_Container_base0@std@@QAEXXZ PROC		; std::_Container_base0::_Orphan_all, COMDAT
; _this$ = ecx

; 1065 :     void _Orphan_all() noexcept {}

  00000	55		 push	 ebp
  00001	8b ec		 mov	 ebp, esp
  00003	83 ec 44	 sub	 esp, 68			; 00000044H
  00006	53		 push	 ebx
  00007	56		 push	 esi
  00008	57		 push	 edi
  00009	89 4d fc	 mov	 DWORD PTR _this$[ebp], ecx
  0000c	5f		 pop	 edi
  0000d	5e		 pop	 esi
  0000e	5b		 pop	 ebx
  0000f	8b e5		 mov	 esp, ebp
  00011	5d		 pop	 ebp
  00012	c3		 ret	 0
?_Orphan_all@_Container_base0@std@@QAEXXZ ENDP		; std::_Container_base0::_Orphan_all
_TEXT	ENDS
; Function compile flags: /Odtp /ZI
; File C:\Program Files (x86)\Microsoft Visual Studio\2019\Community\VC\Tools\MSVC\14.27.29110\include\xmemory
;	COMDAT ?_Adjust_manually_vector_aligned@std@@YAXAAPAXAAI@Z
_TEXT	SEGMENT
__Back_shift$ = -16					; size = 4
__Min_back_shift$ = -12					; size = 4
__Ptr_container$ = -8					; size = 4
__Ptr_user$ = -4					; size = 4
__Ptr$ = 8						; size = 4
__Bytes$ = 12						; size = 4
?_Adjust_manually_vector_aligned@std@@YAXAAPAXAAI@Z PROC ; std::_Adjust_manually_vector_aligned, COMDAT

; 132  : inline void _Adjust_manually_vector_aligned(void*& _Ptr, size_t& _Bytes) {

  00000	55		 push	 ebp
  00001	8b ec		 mov	 ebp, esp
  00003	83 ec 50	 sub	 esp, 80			; 00000050H
  00006	53		 push	 ebx
  00007	56		 push	 esi
  00008	57		 push	 edi

; 133  :     // adjust parameters from _Allocate_manually_vector_aligned to pass to operator delete
; 134  :     _Bytes += _Non_user_size;

  00009	8b 45 0c	 mov	 eax, DWORD PTR __Bytes$[ebp]
  0000c	8b 08		 mov	 ecx, DWORD PTR [eax]
  0000e	83 c1 23	 add	 ecx, 35			; 00000023H
  00011	8b 55 0c	 mov	 edx, DWORD PTR __Bytes$[ebp]
  00014	89 0a		 mov	 DWORD PTR [edx], ecx

; 135  : 
; 136  :     const uintptr_t* const _Ptr_user = reinterpret_cast<uintptr_t*>(_Ptr);

  00016	8b 45 08	 mov	 eax, DWORD PTR __Ptr$[ebp]
  00019	8b 08		 mov	 ecx, DWORD PTR [eax]
  0001b	89 4d fc	 mov	 DWORD PTR __Ptr_user$[ebp], ecx

; 137  :     const uintptr_t _Ptr_container   = _Ptr_user[-1];

  0001e	b8 04 00 00 00	 mov	 eax, 4
  00023	6b c8 ff	 imul	 ecx, eax, -1
  00026	8b 55 fc	 mov	 edx, DWORD PTR __Ptr_user$[ebp]
  00029	8b 04 0a	 mov	 eax, DWORD PTR [edx+ecx]
  0002c	89 45 f8	 mov	 DWORD PTR __Ptr_container$[ebp], eax

; 138  : 
; 139  :     // If the following asserts, it likely means that we are performing
; 140  :     // an aligned delete on memory coming from an unaligned allocation.
; 141  :     _STL_ASSERT(_Ptr_user[-2] == _Big_allocation_sentinel, "invalid argument");
; 142  : 
; 143  :     // Extra paranoia on aligned allocation/deallocation; ensure _Ptr_container is
; 144  :     // in range [_Min_back_shift, _Non_user_size]
; 145  : #ifdef _DEBUG
; 146  :     constexpr uintptr_t _Min_back_shift = 2 * sizeof(void*);
; 147  : #else // ^^^ _DEBUG ^^^ // vvv !_DEBUG vvv
; 148  :     constexpr uintptr_t _Min_back_shift = sizeof(void*);

  0002f	c7 45 f4 04 00
	00 00		 mov	 DWORD PTR __Min_back_shift$[ebp], 4

; 149  : #endif // _DEBUG
; 150  :     const uintptr_t _Back_shift = reinterpret_cast<uintptr_t>(_Ptr) - _Ptr_container;

  00036	8b 45 08	 mov	 eax, DWORD PTR __Ptr$[ebp]
  00039	8b 08		 mov	 ecx, DWORD PTR [eax]
  0003b	2b 4d f8	 sub	 ecx, DWORD PTR __Ptr_container$[ebp]
  0003e	89 4d f0	 mov	 DWORD PTR __Back_shift$[ebp], ecx
$LN4@Adjust_man:

; 151  :     _STL_VERIFY(_Back_shift >= _Min_back_shift && _Back_shift <= _Non_user_size, "invalid argument");

  00041	83 7d f0 04	 cmp	 DWORD PTR __Back_shift$[ebp], 4
  00045	72 08		 jb	 SHORT $LN7@Adjust_man
  00047	83 7d f0 23	 cmp	 DWORD PTR __Back_shift$[ebp], 35 ; 00000023H
  0004b	77 02		 ja	 SHORT $LN7@Adjust_man
  0004d	eb 09		 jmp	 SHORT $LN2@Adjust_man
$LN7@Adjust_man:
  0004f	e8 00 00 00 00	 call	 __invalid_parameter_noinfo_noreturn
  00054	33 c0		 xor	 eax, eax
  00056	75 f7		 jne	 SHORT $LN7@Adjust_man
$LN2@Adjust_man:
  00058	33 c0		 xor	 eax, eax
  0005a	75 e5		 jne	 SHORT $LN4@Adjust_man

; 152  :     _Ptr = reinterpret_cast<void*>(_Ptr_container);

  0005c	8b 45 08	 mov	 eax, DWORD PTR __Ptr$[ebp]
  0005f	8b 4d f8	 mov	 ecx, DWORD PTR __Ptr_container$[ebp]
  00062	89 08		 mov	 DWORD PTR [eax], ecx
$LN10@Adjust_man:

; 153  : }

  00064	5f		 pop	 edi
  00065	5e		 pop	 esi
  00066	5b		 pop	 ebx
  00067	8b e5		 mov	 esp, ebp
  00069	5d		 pop	 ebp
  0006a	c3		 ret	 0
?_Adjust_manually_vector_aligned@std@@YAXAAPAXAAI@Z ENDP ; std::_Adjust_manually_vector_aligned
_TEXT	ENDS
; Function compile flags: /Odtp /ZI
; File C:\Program Files (x86)\Microsoft Visual Studio\2019\Community\VC\Tools\MSVC\14.27.29110\include\xmemory
;	COMDAT ?_Allocate@_Default_allocate_traits@std@@SAPAXI@Z
_TEXT	SEGMENT
__Bytes$ = 8						; size = 4
?_Allocate@_Default_allocate_traits@std@@SAPAXI@Z PROC	; std::_Default_allocate_traits::_Allocate, COMDAT

; 76   :     __declspec(allocator) static void* _Allocate(const size_t _Bytes) {

  00000	55		 push	 ebp
  00001	8b ec		 mov	 ebp, esp
  00003	83 ec 40	 sub	 esp, 64			; 00000040H
  00006	53		 push	 ebx
  00007	56		 push	 esi
  00008	57		 push	 edi

; 77   :         return ::operator new(_Bytes);

  00009	8b 45 08	 mov	 eax, DWORD PTR __Bytes$[ebp]
  0000c	50		 push	 eax
  0000d	e8 00 00 00 00	 call	 ??2@YAPAXI@Z		; operator new
  00012	83 c4 04	 add	 esp, 4

; 78   :     }

  00015	5f		 pop	 edi
  00016	5e		 pop	 esi
  00017	5b		 pop	 ebx
  00018	8b e5		 mov	 esp, ebp
  0001a	5d		 pop	 ebp
  0001b	c3		 ret	 0
?_Allocate@_Default_allocate_traits@std@@SAPAXI@Z ENDP	; std::_Default_allocate_traits::_Allocate
_TEXT	ENDS
; Function compile flags: /Odtp /ZI
; File C:\Program Files (x86)\Microsoft Visual Studio\2019\Community\VC\Tools\MSVC\14.27.29110\include\limits
;	COMDAT ?max@?$numeric_limits@H@std@@SAHXZ
_TEXT	SEGMENT
?max@?$numeric_limits@H@std@@SAHXZ PROC			; std::numeric_limits<int>::max, COMDAT

; 554  :     _NODISCARD static constexpr int(max)() noexcept {

  00000	55		 push	 ebp
  00001	8b ec		 mov	 ebp, esp
  00003	83 ec 40	 sub	 esp, 64			; 00000040H
  00006	53		 push	 ebx
  00007	56		 push	 esi
  00008	57		 push	 edi

; 555  :         return INT_MAX;

  00009	b8 ff ff ff 7f	 mov	 eax, 2147483647		; 7fffffffH

; 556  :     }

  0000e	5f		 pop	 edi
  0000f	5e		 pop	 esi
  00010	5b		 pop	 ebx
  00011	8b e5		 mov	 esp, ebp
  00013	5d		 pop	 ebp
  00014	c3		 ret	 0
?max@?$numeric_limits@H@std@@SAHXZ ENDP			; std::numeric_limits<int>::max
_TEXT	ENDS
; Function compile flags: /Odtp /ZI
; File C:\Program Files (x86)\Microsoft Visual Studio\2019\Community\VC\Tools\MSVC\14.27.29110\include\exception
;	COMDAT ?_Throw_bad_array_new_length@std@@YAXXZ
_TEXT	SEGMENT
$T1 = -76						; size = 12
?_Throw_bad_array_new_length@std@@YAXXZ PROC		; std::_Throw_bad_array_new_length, COMDAT

; 320  : [[noreturn]] inline void _Throw_bad_array_new_length() {

  00000	55		 push	 ebp
  00001	8b ec		 mov	 ebp, esp
  00003	83 ec 4c	 sub	 esp, 76			; 0000004cH
  00006	53		 push	 ebx
  00007	56		 push	 esi
  00008	57		 push	 edi

; 321  :     _THROW(bad_array_new_length{});

  00009	8d 4d b4	 lea	 ecx, DWORD PTR $T1[ebp]
  0000c	e8 00 00 00 00	 call	 ??0bad_array_new_length@std@@QAE@XZ ; std::bad_array_new_length::bad_array_new_length
  00011	68 00 00 00 00	 push	 OFFSET __TI3?AVbad_array_new_length@std@@
  00016	8d 45 b4	 lea	 eax, DWORD PTR $T1[ebp]
  00019	50		 push	 eax
  0001a	e8 00 00 00 00	 call	 __CxxThrowException@8
$LN2@Throw_bad_:

; 322  : }

  0001f	5f		 pop	 edi
  00020	5e		 pop	 esi
  00021	5b		 pop	 ebx
  00022	8b e5		 mov	 esp, ebp
  00024	5d		 pop	 ebp
  00025	c3		 ret	 0
?_Throw_bad_array_new_length@std@@YAXXZ ENDP		; std::_Throw_bad_array_new_length
_TEXT	ENDS
; Function compile flags: /Odtp /ZI
;	COMDAT ??_Gbad_array_new_length@std@@UAEPAXI@Z
_TEXT	SEGMENT
_this$ = -4						; size = 4
___flags$ = 8						; size = 4
??_Gbad_array_new_length@std@@UAEPAXI@Z PROC		; std::bad_array_new_length::`scalar deleting destructor', COMDAT
; _this$ = ecx
  00000	55		 push	 ebp
  00001	8b ec		 mov	 ebp, esp
  00003	83 ec 44	 sub	 esp, 68			; 00000044H
  00006	53		 push	 ebx
  00007	56		 push	 esi
  00008	57		 push	 edi
  00009	89 4d fc	 mov	 DWORD PTR _this$[ebp], ecx
  0000c	8b 4d fc	 mov	 ecx, DWORD PTR _this$[ebp]
  0000f	e8 00 00 00 00	 call	 ??1bad_array_new_length@std@@UAE@XZ
  00014	8b 45 08	 mov	 eax, DWORD PTR ___flags$[ebp]
  00017	83 e0 01	 and	 eax, 1
  0001a	74 0e		 je	 SHORT $LN2@scalar
  0001c	6a 0c		 push	 12			; 0000000cH
  0001e	8b 45 fc	 mov	 eax, DWORD PTR _this$[ebp]
  00021	50		 push	 eax
  00022	e8 00 00 00 00	 call	 ??3@YAXPAXI@Z		; operator delete
  00027	83 c4 08	 add	 esp, 8
$LN2@scalar:
  0002a	8b 45 fc	 mov	 eax, DWORD PTR _this$[ebp]
  0002d	5f		 pop	 edi
  0002e	5e		 pop	 esi
  0002f	5b		 pop	 ebx
  00030	8b e5		 mov	 esp, ebp
  00032	5d		 pop	 ebp
  00033	c2 04 00	 ret	 4
??_Gbad_array_new_length@std@@UAEPAXI@Z ENDP		; std::bad_array_new_length::`scalar deleting destructor'
_TEXT	ENDS
; Function compile flags: /Odtp /ZI
;	COMDAT ??0bad_array_new_length@std@@QAE@ABV01@@Z
_TEXT	SEGMENT
_this$ = -4						; size = 4
___that$ = 8						; size = 4
??0bad_array_new_length@std@@QAE@ABV01@@Z PROC		; std::bad_array_new_length::bad_array_new_length, COMDAT
; _this$ = ecx
  00000	55		 push	 ebp
  00001	8b ec		 mov	 ebp, esp
  00003	83 ec 44	 sub	 esp, 68			; 00000044H
  00006	53		 push	 ebx
  00007	56		 push	 esi
  00008	57		 push	 edi
  00009	89 4d fc	 mov	 DWORD PTR _this$[ebp], ecx
  0000c	8b 45 08	 mov	 eax, DWORD PTR ___that$[ebp]
  0000f	50		 push	 eax
  00010	8b 4d fc	 mov	 ecx, DWORD PTR _this$[ebp]
  00013	e8 00 00 00 00	 call	 ??0bad_alloc@std@@QAE@ABV01@@Z
  00018	8b 45 fc	 mov	 eax, DWORD PTR _this$[ebp]
  0001b	c7 00 00 00 00
	00		 mov	 DWORD PTR [eax], OFFSET ??_7bad_array_new_length@std@@6B@
  00021	8b 45 fc	 mov	 eax, DWORD PTR _this$[ebp]
  00024	5f		 pop	 edi
  00025	5e		 pop	 esi
  00026	5b		 pop	 ebx
  00027	8b e5		 mov	 esp, ebp
  00029	5d		 pop	 ebp
  0002a	c2 04 00	 ret	 4
??0bad_array_new_length@std@@QAE@ABV01@@Z ENDP		; std::bad_array_new_length::bad_array_new_length
_TEXT	ENDS
; Function compile flags: /Odtp /ZI
;	COMDAT ??1bad_array_new_length@std@@UAE@XZ
_TEXT	SEGMENT
_this$ = -4						; size = 4
??1bad_array_new_length@std@@UAE@XZ PROC		; std::bad_array_new_length::~bad_array_new_length, COMDAT
; _this$ = ecx
  00000	55		 push	 ebp
  00001	8b ec		 mov	 ebp, esp
  00003	83 ec 44	 sub	 esp, 68			; 00000044H
  00006	53		 push	 ebx
  00007	56		 push	 esi
  00008	57		 push	 edi
  00009	89 4d fc	 mov	 DWORD PTR _this$[ebp], ecx
  0000c	8b 4d fc	 mov	 ecx, DWORD PTR _this$[ebp]
  0000f	e8 00 00 00 00	 call	 ??1bad_alloc@std@@UAE@XZ
  00014	5f		 pop	 edi
  00015	5e		 pop	 esi
  00016	5b		 pop	 ebx
  00017	8b e5		 mov	 esp, ebp
  00019	5d		 pop	 ebp
  0001a	c3		 ret	 0
??1bad_array_new_length@std@@UAE@XZ ENDP		; std::bad_array_new_length::~bad_array_new_length
_TEXT	ENDS
; Function compile flags: /Odtp /ZI
; File C:\Program Files (x86)\Microsoft Visual Studio\2019\Community\VC\Tools\MSVC\14.27.29110\include\vcruntime_exception.h
;	COMDAT ??0bad_array_new_length@std@@QAE@XZ
_TEXT	SEGMENT
_this$ = -4						; size = 4
??0bad_array_new_length@std@@QAE@XZ PROC		; std::bad_array_new_length::bad_array_new_length, COMDAT
; _this$ = ecx

; 141  :     {

  00000	55		 push	 ebp
  00001	8b ec		 mov	 ebp, esp
  00003	83 ec 44	 sub	 esp, 68			; 00000044H
  00006	53		 push	 ebx
  00007	56		 push	 esi
  00008	57		 push	 edi
  00009	89 4d fc	 mov	 DWORD PTR _this$[ebp], ecx

; 140  :         : bad_alloc("bad array new length")

  0000c	68 00 00 00 00	 push	 OFFSET ??_C@_0BF@KINCDENJ@bad?5array?5new?5length@
  00011	8b 4d fc	 mov	 ecx, DWORD PTR _this$[ebp]
  00014	e8 00 00 00 00	 call	 ??0bad_alloc@std@@AAE@QBD@Z ; std::bad_alloc::bad_alloc

; 141  :     {

  00019	8b 45 fc	 mov	 eax, DWORD PTR _this$[ebp]
  0001c	c7 00 00 00 00
	00		 mov	 DWORD PTR [eax], OFFSET ??_7bad_array_new_length@std@@6B@

; 142  :     }

  00022	8b 45 fc	 mov	 eax, DWORD PTR _this$[ebp]
  00025	5f		 pop	 edi
  00026	5e		 pop	 esi
  00027	5b		 pop	 ebx
  00028	8b e5		 mov	 esp, ebp
  0002a	5d		 pop	 ebp
  0002b	c3		 ret	 0
??0bad_array_new_length@std@@QAE@XZ ENDP		; std::bad_array_new_length::bad_array_new_length
_TEXT	ENDS
; Function compile flags: /Odtp /ZI
;	COMDAT ??_Gbad_alloc@std@@UAEPAXI@Z
_TEXT	SEGMENT
_this$ = -4						; size = 4
___flags$ = 8						; size = 4
??_Gbad_alloc@std@@UAEPAXI@Z PROC			; std::bad_alloc::`scalar deleting destructor', COMDAT
; _this$ = ecx
  00000	55		 push	 ebp
  00001	8b ec		 mov	 ebp, esp
  00003	83 ec 44	 sub	 esp, 68			; 00000044H
  00006	53		 push	 ebx
  00007	56		 push	 esi
  00008	57		 push	 edi
  00009	89 4d fc	 mov	 DWORD PTR _this$[ebp], ecx
  0000c	8b 4d fc	 mov	 ecx, DWORD PTR _this$[ebp]
  0000f	e8 00 00 00 00	 call	 ??1bad_alloc@std@@UAE@XZ
  00014	8b 45 08	 mov	 eax, DWORD PTR ___flags$[ebp]
  00017	83 e0 01	 and	 eax, 1
  0001a	74 0e		 je	 SHORT $LN2@scalar
  0001c	6a 0c		 push	 12			; 0000000cH
  0001e	8b 45 fc	 mov	 eax, DWORD PTR _this$[ebp]
  00021	50		 push	 eax
  00022	e8 00 00 00 00	 call	 ??3@YAXPAXI@Z		; operator delete
  00027	83 c4 08	 add	 esp, 8
$LN2@scalar:
  0002a	8b 45 fc	 mov	 eax, DWORD PTR _this$[ebp]
  0002d	5f		 pop	 edi
  0002e	5e		 pop	 esi
  0002f	5b		 pop	 ebx
  00030	8b e5		 mov	 esp, ebp
  00032	5d		 pop	 ebp
  00033	c2 04 00	 ret	 4
??_Gbad_alloc@std@@UAEPAXI@Z ENDP			; std::bad_alloc::`scalar deleting destructor'
_TEXT	ENDS
; Function compile flags: /Odtp /ZI
;	COMDAT ??0bad_alloc@std@@QAE@ABV01@@Z
_TEXT	SEGMENT
_this$ = -4						; size = 4
___that$ = 8						; size = 4
??0bad_alloc@std@@QAE@ABV01@@Z PROC			; std::bad_alloc::bad_alloc, COMDAT
; _this$ = ecx
  00000	55		 push	 ebp
  00001	8b ec		 mov	 ebp, esp
  00003	83 ec 44	 sub	 esp, 68			; 00000044H
  00006	53		 push	 ebx
  00007	56		 push	 esi
  00008	57		 push	 edi
  00009	89 4d fc	 mov	 DWORD PTR _this$[ebp], ecx
  0000c	8b 45 08	 mov	 eax, DWORD PTR ___that$[ebp]
  0000f	50		 push	 eax
  00010	8b 4d fc	 mov	 ecx, DWORD PTR _this$[ebp]
  00013	e8 00 00 00 00	 call	 ??0exception@std@@QAE@ABV01@@Z ; std::exception::exception
  00018	8b 45 fc	 mov	 eax, DWORD PTR _this$[ebp]
  0001b	c7 00 00 00 00
	00		 mov	 DWORD PTR [eax], OFFSET ??_7bad_alloc@std@@6B@
  00021	8b 45 fc	 mov	 eax, DWORD PTR _this$[ebp]
  00024	5f		 pop	 edi
  00025	5e		 pop	 esi
  00026	5b		 pop	 ebx
  00027	8b e5		 mov	 esp, ebp
  00029	5d		 pop	 ebp
  0002a	c2 04 00	 ret	 4
??0bad_alloc@std@@QAE@ABV01@@Z ENDP			; std::bad_alloc::bad_alloc
_TEXT	ENDS
; Function compile flags: /Odtp /ZI
;	COMDAT ??1bad_alloc@std@@UAE@XZ
_TEXT	SEGMENT
_this$ = -4						; size = 4
??1bad_alloc@std@@UAE@XZ PROC				; std::bad_alloc::~bad_alloc, COMDAT
; _this$ = ecx
  00000	55		 push	 ebp
  00001	8b ec		 mov	 ebp, esp
  00003	83 ec 44	 sub	 esp, 68			; 00000044H
  00006	53		 push	 ebx
  00007	56		 push	 esi
  00008	57		 push	 edi
  00009	89 4d fc	 mov	 DWORD PTR _this$[ebp], ecx
  0000c	8b 4d fc	 mov	 ecx, DWORD PTR _this$[ebp]
  0000f	e8 00 00 00 00	 call	 ??1exception@std@@UAE@XZ ; std::exception::~exception
  00014	5f		 pop	 edi
  00015	5e		 pop	 esi
  00016	5b		 pop	 ebx
  00017	8b e5		 mov	 esp, ebp
  00019	5d		 pop	 ebp
  0001a	c3		 ret	 0
??1bad_alloc@std@@UAE@XZ ENDP				; std::bad_alloc::~bad_alloc
_TEXT	ENDS
; Function compile flags: /Odtp /ZI
; File C:\Program Files (x86)\Microsoft Visual Studio\2019\Community\VC\Tools\MSVC\14.27.29110\include\vcruntime_exception.h
;	COMDAT ??0bad_alloc@std@@AAE@QBD@Z
_TEXT	SEGMENT
_this$ = -4						; size = 4
__Message$ = 8						; size = 4
??0bad_alloc@std@@AAE@QBD@Z PROC			; std::bad_alloc::bad_alloc, COMDAT
; _this$ = ecx

; 130  :     {

  00000	55		 push	 ebp
  00001	8b ec		 mov	 ebp, esp
  00003	83 ec 44	 sub	 esp, 68			; 00000044H
  00006	53		 push	 ebx
  00007	56		 push	 esi
  00008	57		 push	 edi
  00009	89 4d fc	 mov	 DWORD PTR _this$[ebp], ecx

; 129  :         : exception(_Message, 1)

  0000c	6a 01		 push	 1
  0000e	8b 45 08	 mov	 eax, DWORD PTR __Message$[ebp]
  00011	50		 push	 eax
  00012	8b 4d fc	 mov	 ecx, DWORD PTR _this$[ebp]
  00015	e8 00 00 00 00	 call	 ??0exception@std@@QAE@QBDH@Z ; std::exception::exception

; 130  :     {

  0001a	8b 45 fc	 mov	 eax, DWORD PTR _this$[ebp]
  0001d	c7 00 00 00 00
	00		 mov	 DWORD PTR [eax], OFFSET ??_7bad_alloc@std@@6B@

; 131  :     }

  00023	8b 45 fc	 mov	 eax, DWORD PTR _this$[ebp]
  00026	5f		 pop	 edi
  00027	5e		 pop	 esi
  00028	5b		 pop	 ebx
  00029	8b e5		 mov	 esp, ebp
  0002b	5d		 pop	 ebp
  0002c	c2 04 00	 ret	 4
??0bad_alloc@std@@AAE@QBD@Z ENDP			; std::bad_alloc::bad_alloc
_TEXT	ENDS
; Function compile flags: /Odtp /ZI
;	COMDAT ??_Gexception@std@@UAEPAXI@Z
_TEXT	SEGMENT
_this$ = -4						; size = 4
___flags$ = 8						; size = 4
??_Gexception@std@@UAEPAXI@Z PROC			; std::exception::`scalar deleting destructor', COMDAT
; _this$ = ecx
  00000	55		 push	 ebp
  00001	8b ec		 mov	 ebp, esp
  00003	83 ec 44	 sub	 esp, 68			; 00000044H
  00006	53		 push	 ebx
  00007	56		 push	 esi
  00008	57		 push	 edi
  00009	89 4d fc	 mov	 DWORD PTR _this$[ebp], ecx
  0000c	8b 4d fc	 mov	 ecx, DWORD PTR _this$[ebp]
  0000f	e8 00 00 00 00	 call	 ??1exception@std@@UAE@XZ ; std::exception::~exception
  00014	8b 45 08	 mov	 eax, DWORD PTR ___flags$[ebp]
  00017	83 e0 01	 and	 eax, 1
  0001a	74 0e		 je	 SHORT $LN2@scalar
  0001c	6a 0c		 push	 12			; 0000000cH
  0001e	8b 45 fc	 mov	 eax, DWORD PTR _this$[ebp]
  00021	50		 push	 eax
  00022	e8 00 00 00 00	 call	 ??3@YAXPAXI@Z		; operator delete
  00027	83 c4 08	 add	 esp, 8
$LN2@scalar:
  0002a	8b 45 fc	 mov	 eax, DWORD PTR _this$[ebp]
  0002d	5f		 pop	 edi
  0002e	5e		 pop	 esi
  0002f	5b		 pop	 ebx
  00030	8b e5		 mov	 esp, ebp
  00032	5d		 pop	 ebp
  00033	c2 04 00	 ret	 4
??_Gexception@std@@UAEPAXI@Z ENDP			; std::exception::`scalar deleting destructor'
_TEXT	ENDS
; Function compile flags: /Odtp /ZI
; File C:\Program Files (x86)\Microsoft Visual Studio\2019\Community\VC\Tools\MSVC\14.27.29110\include\vcruntime_exception.h
;	COMDAT ?what@exception@std@@UBEPBDXZ
_TEXT	SEGMENT
tv69 = -72						; size = 4
_this$ = -4						; size = 4
?what@exception@std@@UBEPBDXZ PROC			; std::exception::what, COMDAT
; _this$ = ecx

; 94   :     {

  00000	55		 push	 ebp
  00001	8b ec		 mov	 ebp, esp
  00003	83 ec 48	 sub	 esp, 72			; 00000048H
  00006	53		 push	 ebx
  00007	56		 push	 esi
  00008	57		 push	 edi
  00009	89 4d fc	 mov	 DWORD PTR _this$[ebp], ecx

; 95   :         return _Data._What ? _Data._What : "Unknown exception";

  0000c	8b 45 fc	 mov	 eax, DWORD PTR _this$[ebp]
  0000f	83 78 04 00	 cmp	 DWORD PTR [eax+4], 0
  00013	74 0b		 je	 SHORT $LN3@what
  00015	8b 4d fc	 mov	 ecx, DWORD PTR _this$[ebp]
  00018	8b 51 04	 mov	 edx, DWORD PTR [ecx+4]
  0001b	89 55 b8	 mov	 DWORD PTR tv69[ebp], edx
  0001e	eb 07		 jmp	 SHORT $LN4@what
$LN3@what:
  00020	c7 45 b8 00 00
	00 00		 mov	 DWORD PTR tv69[ebp], OFFSET ??_C@_0BC@EOODALEL@Unknown?5exception@
$LN4@what:
  00027	8b 45 b8	 mov	 eax, DWORD PTR tv69[ebp]

; 96   :     }

  0002a	5f		 pop	 edi
  0002b	5e		 pop	 esi
  0002c	5b		 pop	 ebx
  0002d	8b e5		 mov	 esp, ebp
  0002f	5d		 pop	 ebp
  00030	c3		 ret	 0
?what@exception@std@@UBEPBDXZ ENDP			; std::exception::what
_TEXT	ENDS
; Function compile flags: /Odtp /ZI
; File C:\Program Files (x86)\Microsoft Visual Studio\2019\Community\VC\Tools\MSVC\14.27.29110\include\vcruntime_exception.h
;	COMDAT ??1exception@std@@UAE@XZ
_TEXT	SEGMENT
_this$ = -4						; size = 4
??1exception@std@@UAE@XZ PROC				; std::exception::~exception, COMDAT
; _this$ = ecx

; 89   :     {

  00000	55		 push	 ebp
  00001	8b ec		 mov	 ebp, esp
  00003	83 ec 44	 sub	 esp, 68			; 00000044H
  00006	53		 push	 ebx
  00007	56		 push	 esi
  00008	57		 push	 edi
  00009	89 4d fc	 mov	 DWORD PTR _this$[ebp], ecx
  0000c	8b 45 fc	 mov	 eax, DWORD PTR _this$[ebp]
  0000f	c7 00 00 00 00
	00		 mov	 DWORD PTR [eax], OFFSET ??_7exception@std@@6B@

; 90   :         __std_exception_destroy(&_Data);

  00015	8b 45 fc	 mov	 eax, DWORD PTR _this$[ebp]
  00018	83 c0 04	 add	 eax, 4
  0001b	50		 push	 eax
  0001c	e8 00 00 00 00	 call	 ___std_exception_destroy
  00021	83 c4 04	 add	 esp, 4

; 91   :     }

  00024	5f		 pop	 edi
  00025	5e		 pop	 esi
  00026	5b		 pop	 ebx
  00027	8b e5		 mov	 esp, ebp
  00029	5d		 pop	 ebp
  0002a	c3		 ret	 0
??1exception@std@@UAE@XZ ENDP				; std::exception::~exception
_TEXT	ENDS
; Function compile flags: /Odtp /ZI
; File C:\Program Files (x86)\Microsoft Visual Studio\2019\Community\VC\Tools\MSVC\14.27.29110\include\vcruntime_exception.h
;	COMDAT ??0exception@std@@QAE@ABV01@@Z
_TEXT	SEGMENT
_this$ = -4						; size = 4
__Other$ = 8						; size = 4
??0exception@std@@QAE@ABV01@@Z PROC			; std::exception::exception, COMDAT
; _this$ = ecx

; 72   :     {

  00000	55		 push	 ebp
  00001	8b ec		 mov	 ebp, esp
  00003	83 ec 44	 sub	 esp, 68			; 00000044H
  00006	53		 push	 ebx
  00007	56		 push	 esi
  00008	57		 push	 edi
  00009	89 4d fc	 mov	 DWORD PTR _this$[ebp], ecx
  0000c	8b 45 fc	 mov	 eax, DWORD PTR _this$[ebp]
  0000f	c7 00 00 00 00
	00		 mov	 DWORD PTR [eax], OFFSET ??_7exception@std@@6B@

; 71   :         : _Data()

  00015	33 c0		 xor	 eax, eax
  00017	8b 4d fc	 mov	 ecx, DWORD PTR _this$[ebp]
  0001a	83 c1 04	 add	 ecx, 4
  0001d	89 01		 mov	 DWORD PTR [ecx], eax
  0001f	89 41 04	 mov	 DWORD PTR [ecx+4], eax

; 73   :         __std_exception_copy(&_Other._Data, &_Data);

  00022	8b 45 fc	 mov	 eax, DWORD PTR _this$[ebp]
  00025	83 c0 04	 add	 eax, 4
  00028	50		 push	 eax
  00029	8b 4d 08	 mov	 ecx, DWORD PTR __Other$[ebp]
  0002c	83 c1 04	 add	 ecx, 4
  0002f	51		 push	 ecx
  00030	e8 00 00 00 00	 call	 ___std_exception_copy
  00035	83 c4 08	 add	 esp, 8

; 74   :     }

  00038	8b 45 fc	 mov	 eax, DWORD PTR _this$[ebp]
  0003b	5f		 pop	 edi
  0003c	5e		 pop	 esi
  0003d	5b		 pop	 ebx
  0003e	8b e5		 mov	 esp, ebp
  00040	5d		 pop	 ebp
  00041	c2 04 00	 ret	 4
??0exception@std@@QAE@ABV01@@Z ENDP			; std::exception::exception
_TEXT	ENDS
; Function compile flags: /Odtp /ZI
; File C:\Program Files (x86)\Microsoft Visual Studio\2019\Community\VC\Tools\MSVC\14.27.29110\include\vcruntime_exception.h
;	COMDAT ??0exception@std@@QAE@QBDH@Z
_TEXT	SEGMENT
_this$ = -4						; size = 4
__Message$ = 8						; size = 4
___formal$ = 12						; size = 4
??0exception@std@@QAE@QBDH@Z PROC			; std::exception::exception, COMDAT
; _this$ = ecx

; 66   :     {

  00000	55		 push	 ebp
  00001	8b ec		 mov	 ebp, esp
  00003	83 ec 44	 sub	 esp, 68			; 00000044H
  00006	53		 push	 ebx
  00007	56		 push	 esi
  00008	57		 push	 edi
  00009	89 4d fc	 mov	 DWORD PTR _this$[ebp], ecx
  0000c	8b 45 fc	 mov	 eax, DWORD PTR _this$[ebp]
  0000f	c7 00 00 00 00
	00		 mov	 DWORD PTR [eax], OFFSET ??_7exception@std@@6B@

; 65   :         : _Data()

  00015	33 c0		 xor	 eax, eax
  00017	8b 4d fc	 mov	 ecx, DWORD PTR _this$[ebp]
  0001a	83 c1 04	 add	 ecx, 4
  0001d	89 01		 mov	 DWORD PTR [ecx], eax
  0001f	89 41 04	 mov	 DWORD PTR [ecx+4], eax

; 67   :         _Data._What = _Message;

  00022	8b 45 fc	 mov	 eax, DWORD PTR _this$[ebp]
  00025	8b 4d 08	 mov	 ecx, DWORD PTR __Message$[ebp]
  00028	89 48 04	 mov	 DWORD PTR [eax+4], ecx

; 68   :     }

  0002b	8b 45 fc	 mov	 eax, DWORD PTR _this$[ebp]
  0002e	5f		 pop	 edi
  0002f	5e		 pop	 esi
  00030	5b		 pop	 ebx
  00031	8b e5		 mov	 esp, ebp
  00033	5d		 pop	 ebp
  00034	c2 08 00	 ret	 8
??0exception@std@@QAE@QBDH@Z ENDP			; std::exception::exception
_TEXT	ENDS
; Function compile flags: /Odtp /ZI
; File C:\Program Files (x86)\Windows Kits\10\Include\10.0.18362.0\ucrt\string.h
;	COMDAT ?strstr@@YAPADQADQBD@Z
_TEXT	SEGMENT
__String$ = 8						; size = 4
__SubString$ = 12					; size = 4
?strstr@@YAPADQADQBD@Z PROC				; strstr, COMDAT

; 523  :     {

  00000	55		 push	 ebp
  00001	8b ec		 mov	 ebp, esp
  00003	83 ec 40	 sub	 esp, 64			; 00000040H
  00006	53		 push	 ebx
  00007	56		 push	 esi
  00008	57		 push	 edi

; 524  :         return const_cast<char*>(strstr(static_cast<char const*>(_String), _SubString));

  00009	8b 45 0c	 mov	 eax, DWORD PTR __SubString$[ebp]
  0000c	50		 push	 eax
  0000d	8b 4d 08	 mov	 ecx, DWORD PTR __String$[ebp]
  00010	51		 push	 ecx
  00011	e8 00 00 00 00	 call	 _strstr
  00016	83 c4 08	 add	 esp, 8

; 525  :     }

  00019	5f		 pop	 edi
  0001a	5e		 pop	 esi
  0001b	5b		 pop	 ebx
  0001c	8b e5		 mov	 esp, ebp
  0001e	5d		 pop	 ebp
  0001f	c3		 ret	 0
?strstr@@YAPADQADQBD@Z ENDP				; strstr
_TEXT	ENDS
; Function compile flags: /Odtp /ZI
; File C:\Program Files (x86)\Microsoft Visual Studio\2019\Community\VC\Tools\MSVC\14.27.29110\include\vcruntime_new.h
;	COMDAT ??2@YAPAXIPAX@Z
_TEXT	SEGMENT
__Size$ = 8						; size = 4
__Where$ = 12						; size = 4
??2@YAPAXIPAX@Z PROC					; operator new, COMDAT

; 167  :     {

  00000	55		 push	 ebp
  00001	8b ec		 mov	 ebp, esp
  00003	83 ec 40	 sub	 esp, 64			; 00000040H
  00006	53		 push	 ebx
  00007	56		 push	 esi
  00008	57		 push	 edi

; 168  :         (void)_Size;
; 169  :         return _Where;

  00009	8b 45 0c	 mov	 eax, DWORD PTR __Where$[ebp]

; 170  :     }

  0000c	5f		 pop	 edi
  0000d	5e		 pop	 esi
  0000e	5b		 pop	 ebx
  0000f	8b e5		 mov	 esp, ebp
  00011	5d		 pop	 ebp
  00012	c3		 ret	 0
??2@YAPAXIPAX@Z ENDP					; operator new
_TEXT	ENDS
; Function compile flags: /Odtp /ZI
; File C:\Mu Online\Mu-GS-Webzen-MC-10093\GameServer\DynamicExperience.cpp
;	COMDAT ?__empty_global_delete@@YAXPAXI@Z
_TEXT	SEGMENT
___formal$ = 8						; size = 4
___formal$ = 12						; size = 4
?__empty_global_delete@@YAXPAXI@Z PROC			; __empty_global_delete, COMDAT

  00000	55		 push	 ebp
  00001	8b ec		 mov	 ebp, esp
  00003	83 ec 40	 sub	 esp, 64			; 00000040H
  00006	53		 push	 ebx
  00007	56		 push	 esi
  00008	57		 push	 edi
  00009	5f		 pop	 edi
  0000a	5e		 pop	 esi
  0000b	5b		 pop	 ebx
  0000c	8b e5		 mov	 esp, ebp
  0000e	5d		 pop	 ebp
  0000f	c3		 ret	 0
?__empty_global_delete@@YAXPAXI@Z ENDP			; __empty_global_delete
_TEXT	ENDS
; Function compile flags: /Odtp /ZI
; File C:\Mu Online\Mu-GS-Webzen-MC-10093\GameServer\DynamicExperience.cpp
;	COMDAT ?__empty_global_delete@@YAXPAX@Z
_TEXT	SEGMENT
___formal$ = 8						; size = 4
?__empty_global_delete@@YAXPAX@Z PROC			; __empty_global_delete, COMDAT

  00000	55		 push	 ebp
  00001	8b ec		 mov	 ebp, esp
  00003	83 ec 40	 sub	 esp, 64			; 00000040H
  00006	53		 push	 ebx
  00007	56		 push	 esi
  00008	57		 push	 edi
  00009	5f		 pop	 edi
  0000a	5e		 pop	 esi
  0000b	5b		 pop	 ebx
  0000c	8b e5		 mov	 esp, ebp
  0000e	5d		 pop	 ebp
  0000f	c3		 ret	 0
?__empty_global_delete@@YAXPAX@Z ENDP			; __empty_global_delete
_TEXT	ENDS
END
