; Listing generated by Microsoft (R) Optimizing Compiler Version 19.27.29111.0 

	TITLE	C:\Mu Online\Mu-GS-Webzen-MC-10093\GameServer\EDSProtocol.cpp
	.686P
	.XMM
	include listing.inc
	.model	flat

INCLUDELIB LIBCMT
INCLUDELIB OLDNAMES

PUBLIC	?GuildListhDlg@@3PAUHWND__@@A			; GuildListhDlg
PUBLIC	?GuildListhPrs@@3PAUHWND__@@A			; GuildListhPrs
PUBLIC	?GuildListhSts@@3PAUHWND__@@A			; GuildListhSts
PUBLIC	?gGuildListCount@@3HA				; gGuildListCount
PUBLIC	?gGuildListTotal@@3HA				; gGuildListTotal
_BSS	SEGMENT
?GuildListhDlg@@3PAUHWND__@@A DD 01H DUP (?)		; GuildListhDlg
?GuildListhPrs@@3PAUHWND__@@A DD 01H DUP (?)		; GuildListhPrs
?GuildListhSts@@3PAUHWND__@@A DD 01H DUP (?)		; GuildListhSts
?gGuildListCount@@3HA DD 01H DUP (?)			; gGuildListCount
?gGuildListTotal@@3HA DD 01H DUP (?)			; gGuildListTotal
_BSS	ENDS
PUBLIC	?__empty_global_delete@@YAXPAX@Z		; __empty_global_delete
PUBLIC	?__empty_global_delete@@YAXPAXI@Z		; __empty_global_delete
PUBLIC	?set@PBMSG_HEAD@@QAEXPAEEE@Z			; PBMSG_HEAD::set
PUBLIC	?setE@PBMSG_HEAD@@QAEXPAEEE@Z			; PBMSG_HEAD::setE
PUBLIC	?set@PWMSG_HEAD@@QAEXPAEEH@Z			; PWMSG_HEAD::set
PUBLIC	?setE@PWMSG_HEAD@@QAEXPAEEH@Z			; PWMSG_HEAD::setE
PUBLIC	??0char_ID@@QAE@PAD@Z				; char_ID::char_ID
PUBLIC	?GetBuffer@char_ID@@QAEPADXZ			; char_ID::GetBuffer
PUBLIC	?GetLength@char_ID@@QAEHXZ			; char_ID::GetLength
PUBLIC	?ExDataServerProtocolCore@@YAXEPAEH@Z		; ExDataServerProtocolCore
PUBLIC	?ExDataServerLogin@@YAXXZ			; ExDataServerLogin
PUBLIC	?FriendListRequest@@YAXH@Z			; FriendListRequest
PUBLIC	?FriendDelRequest@@YAXPAUPMSG_FRIEND_DEL_REQ@@H@Z ; FriendDelRequest
PUBLIC	?FriendAddRequest@@YAXPAUPMSG_FRIEND_ADD_REQ@@H@Z ; FriendAddRequest
PUBLIC	?WaitFriendAddRequest@@YAXPAUPMSG_FRIEND_ADD_SIN_RESULT@@H@Z ; WaitFriendAddRequest
PUBLIC	?FriendMemoSend@@YAXPAUPMSG_FRIEND_MEMO@@H@Z	; FriendMemoSend
PUBLIC	?FriendMemoReadReq@@YAXPAUPMSG_FRIEND_READ_MEMO_REQ@@H@Z ; FriendMemoReadReq
PUBLIC	?FriendMemoDelReq@@YAXPAUPMSG_FRIEND_MEMO_DEL_REQ@@H@Z ; FriendMemoDelReq
PUBLIC	?FriendMemoListReq@@YAXH@Z			; FriendMemoListReq
PUBLIC	?FriendChatRoomCreateReq@@YAXPAUPMSG_FRIEND_ROOMCREATE_REQ@@H@Z ; FriendChatRoomCreateReq
PUBLIC	?FriendRoomInvitationReq@@YAXPAUPMSG_ROOM_INVITATION@@H@Z ; FriendRoomInvitationReq
PUBLIC	?FriendStateClientRecv@@YAXPAUPMSG_FRIEND_STATE_C@@H@Z ; FriendStateClientRecv
PUBLIC	?FriendStateRecv@@YAXPAUFHP_FRIEND_STATE@@@Z	; FriendStateRecv
PUBLIC	?GDCharClose@@YAXHPAD0@Z			; GDCharClose
PUBLIC	?MngFriendMemoSend@@YAXPAUPMSG_JG_MEMO_SEND@@@Z	; MngFriendMemoSend
PUBLIC	?DGGuildListRequest@@YAXXZ			; DGGuildListRequest
PUBLIC	?DGGuildMemberInfoRequest@@YAXH@Z		; DGGuildMemberInfoRequest
PUBLIC	?GDGuildCreateSend@@YAXHPAD0PAE@Z		; GDGuildCreateSend
PUBLIC	?GDGuildDestroySend@@YAXHPAD0@Z			; GDGuildDestroySend
PUBLIC	?GDGuildMemberAdd@@YAXHPAD0@Z			; GDGuildMemberAdd
PUBLIC	?GDGuildMemberDel@@YAXHPAD0@Z			; GDGuildMemberDel
PUBLIC	?GDGuildUpdate@@YAXPAD0PAEHE@Z			; GDGuildUpdate
PUBLIC	?DGGuildScoreUpdate@@YAXPADH@Z			; DGGuildScoreUpdate
PUBLIC	?GDGuildNoticeSave@@YAXPAD0@Z			; GDGuildNoticeSave
PUBLIC	?GDGuildMemberDelResult@@YAXPAUSDHP_GUILDMEMBERDEL_RESULT@@@Z ; GDGuildMemberDelResult
PUBLIC	?GDGuildMemberAddResult@@YAXPAUSDHP_GUILDMEMBERADD_RESULT@@@Z ; GDGuildMemberAddResult
PUBLIC	?GDGuildCreateRecv@@YAXPAUSDHP_GUILDCREATE_RESULT@@@Z ; GDGuildCreateRecv
PUBLIC	?DGGuildMemberInfo@@YAXPAUSDHP_GUILDMEMBER_INFO@@@Z ; DGGuildMemberInfo
PUBLIC	?GDGuildDestroyRecv@@YAXPAUSDHP_GUILDDESTROY_RESULT@@@Z ; GDGuildDestroyRecv
PUBLIC	?DGGuildList@@YAXPAUSDHP_GUILDCREATED@@@Z	; DGGuildList
PUBLIC	?DGGuildMasterListRecv@@YAXPAE@Z		; DGGuildMasterListRecv
PUBLIC	?GDGuildScoreUpdateRecv@@YAXPAUSDHP_GUILDSCOREUPDATE@@@Z ; GDGuildScoreUpdateRecv
PUBLIC	?DGGuildNoticeRecv@@YAXPAUSDHP_GUILDNOTICE@@@Z	; DGGuildNoticeRecv
PUBLIC	?DGGuildListState@@YAXPAUSDHP_GUILDLISTSTATE@@@Z ; DGGuildListState
PUBLIC	?GDCharCloseRecv@@YAXPAUSDHP_USERCLOSE@@@Z	; GDCharCloseRecv
PUBLIC	?FriendListResult@@YAXPAE@Z			; FriendListResult
PUBLIC	?FriendAddResult@@YAXPAUFHP_FRIEND_ADD_RESULT@@@Z ; FriendAddResult
PUBLIC	?WaitFriendListResult@@YAXPAUFHP_WAITFRIENDLIST_COUNT@@@Z ; WaitFriendListResult
PUBLIC	?FriendDelResult@@YAXPAUFHP_FRIEND_DEL_RESULT@@@Z ; FriendDelResult
PUBLIC	?WaitFriendAddResult@@YAXPAUFHP_WAITFRIEND_ADD_RESULT@@@Z ; WaitFriendAddResult
PUBLIC	?FriendMemoList@@YAXPAUFHP_FRIEND_MEMO_LIST@@@Z	; FriendMemoList
PUBLIC	?FriendMemoSendResult@@YAXPAUFHP_FRIEND_MEMO_SEND_RESULT@@@Z ; FriendMemoSendResult
PUBLIC	?FriendMemoRead@@YAXPAUFHP_FRIEND_MEMO_RECV@@@Z	; FriendMemoRead
PUBLIC	?FriendMemoDelResult@@YAXPAUFHP_FRIEND_MEMO_DEL_RESULT@@@Z ; FriendMemoDelResult
PUBLIC	?FriendChatRoomCreateResult@@YAXPAUFHP_FRIEND_CHATROOM_CREATE_RESULT@@@Z ; FriendChatRoomCreateResult
PUBLIC	?FriendRoomInvitationRecv@@YAXPAUFHP_FRIEND_INVITATION_RET@@@Z ; FriendRoomInvitationRecv
PUBLIC	?ExDataServerLoginResult@@YAXPAUSDHP_RESULT@@@Z	; ExDataServerLoginResult
PUBLIC	?DGGuildUpdateRecv@@YAXPAUSDHP_GUILDUPDATE@@@Z	; DGGuildUpdateRecv
PUBLIC	?GuildListDlgProc@@YGHPAUHWND__@@IIJ@Z		; GuildListDlgProc
PUBLIC	?WithdrawUserMoney@@YAHPADPAVOBJECTSTRUCT@@H@Z	; WithdrawUserMoney
PUBLIC	??_C@_00CNPNBAHC@@				; `string'
PUBLIC	??_C@_0BL@MLPIPIDH@ExDB?5Server?5Login?5Fail?3?5?$CFd@ ; `string'
PUBLIC	??_C@_0DF@BOBMAPKN@?$FLU?4System?$FN?$FLGuild?5Status?$FN?$FLInfo?$FN?5@ ; `string'
PUBLIC	??_C@_0O@BNCDNIJM@?$CF8s?5?$FL?$CFd?5?1?5?$CFd?$FN@ ; `string'
PUBLIC	?__LINE__Var@?0??FriendListRequest@@YAXH@Z@4JA	; `FriendListRequest'::`1'::__LINE__Var
PUBLIC	??_C@_0DO@DMLGFOAA@C?3?2Mu?5Online?2Mu?9GS?9Webzen?9MC?910@ ; `string'
PUBLIC	??_C@_0BH@LCDOHCGD@error?9L2?5?3?5Index?5?$CFs?5?$CFd@ ; `string'
PUBLIC	??_C@_0DB@ELGELCGP@error?9L3?5?3?5?$FL?$CFs?$FN?$FL?$CFs?$FN?5FriendServe@ ; `string'
PUBLIC	??_C@_0CJ@EJJNCKNG@error?9L3?5?3?5?$FL?$CFs?$FN?$FL?$CFs?$FN?5FriendServe@ ; `string'
PUBLIC	??_C@_0BJ@BDFPCOJL@?$FL?$CFs?$FN?5Friend?5List?5Request@ ; `string'
PUBLIC	?__LINE__Var@?0??FriendListResult@@YAXPAE@Z@4JA	; `FriendListResult'::`1'::__LINE__Var
PUBLIC	??_C@_0CB@HGMGGPGK@?$FL?$CFs?$FN?5Friend?5List?5Count?5?$CI?$CFd?$CJ?5Sen@ ; `string'
PUBLIC	?__LINE__Var@?0??WaitFriendListResult@@YAXPAUFHP_WAITFRIENDLIST_COUNT@@@Z@4JA ; `WaitFriendListResult'::`1'::__LINE__Var
PUBLIC	??_C@_0BN@DOMMEPOB@error?9L2?5?3?5?$CI?$CFs?$CJ?5Index?5?$CFs?5?$CFd?5@ ; `string'
PUBLIC	??_C@_0BK@HLHJLCCE@?$FL?$CFs?$FN?5WaitFriend?5List?5?$FL?$CFs?$FN@ ; `string'
PUBLIC	?__LINE__Var@?0??FriendStateClientRecv@@YAXPAUPMSG_FRIEND_STATE_C@@H@Z@4JA ; `FriendStateClientRecv'::`1'::__LINE__Var
PUBLIC	?__LINE__Var@?0??FriendStateRecv@@YAXPAUFHP_FRIEND_STATE@@@Z@4JA ; `FriendStateRecv'::`1'::__LINE__Var
PUBLIC	??_C@_0BH@OEEJLGGK@?$FL?$CFs?$FN?5Friend?5State?5?$CI?$CFd?$CJ@ ; `string'
PUBLIC	?__LINE__Var@?0??FriendAddRequest@@YAXPAUPMSG_FRIEND_ADD_REQ@@H@Z@4JA ; `FriendAddRequest'::`1'::__LINE__Var
PUBLIC	??_C@_0EL@ENENOIMK@?$FLHACKTOOL?$FN?5?3?5NPC?9FriendAddReque@ ; `string'
PUBLIC	??_C@_0CD@OOGOJAIC@?$FL?$CFs?$FN?5Friend?5add?5request?5Name?3?5?$FL@ ; `string'
PUBLIC	??_C@_0CG@JNIACLCP@error?9L3?5?3?5?$FL?$CFs?$FN?5Friend?5add?5?3?5No@ ; `string'
PUBLIC	?__LINE__Var@?0??FriendAddResult@@YAXPAUFHP_FRIEND_ADD_RESULT@@@Z@4JA ; `FriendAddResult'::`1'::__LINE__Var
PUBLIC	??_C@_0DB@NPDFCIKD@?$FL?$CFs?$FN?5Friend?5add?5result?5?3?5?$CI?$CFd?$CJ?5f@ ; `string'
PUBLIC	?__LINE__Var@?0??WaitFriendAddRequest@@YAXPAUPMSG_FRIEND_ADD_SIN_RESULT@@H@Z@4JA ; `WaitFriendAddRequest'::`1'::__LINE__Var
PUBLIC	??_C@_0CB@IIBIOFAA@?$FL?$CFs?$FN?5WaitFriend?5add?5request?5?$FL?$CFs@ ; `string'
PUBLIC	?__LINE__Var@?0??WaitFriendAddResult@@YAXPAUFHP_WAITFRIEND_ADD_RESULT@@@Z@4JA ; `WaitFriendAddResult'::`1'::__LINE__Var
PUBLIC	??_C@_0CF@CCKIBLLA@?$FL?$CFs?$FN?5WaitFriend?5add?5result?5?$CI?$CFd?$CJ@ ; `string'
PUBLIC	?__LINE__Var@?0??FriendDelRequest@@YAXPAUPMSG_FRIEND_DEL_REQ@@H@Z@4JA ; `FriendDelRequest'::`1'::__LINE__Var
PUBLIC	??_C@_0BN@HLFBKLAE@?$FL?$CFs?$FN?5Friend?5del?5request?5?$FL?$CFs?$FN@ ; `string'
PUBLIC	?__LINE__Var@?0??FriendDelResult@@YAXPAUFHP_FRIEND_DEL_RESULT@@@Z@4JA ; `FriendDelResult'::`1'::__LINE__Var
PUBLIC	??_C@_0CB@NCMBHLMH@?$FL?$CFs?$FN?5Friend?5del?5result?5?$CI?$CFd?$CJ?5?$FL?$CFs@ ; `string'
PUBLIC	?__LINE__Var@?0??FriendChatRoomCreateReq@@YAXPAUPMSG_FRIEND_ROOMCREATE_REQ@@H@Z@4JA ; `FriendChatRoomCreateReq'::`1'::__LINE__Var
PUBLIC	??_C@_0CC@HAGNMCFJ@?$FL?$CFs?$FN?5Chatroom?5create?5request?5?$FL?$CF@ ; `string'
PUBLIC	?__LINE__Var@?0??FriendChatRoomCreateResult@@YAXPAUFHP_FRIEND_CHATROOM_CREATE_RESULT@@@Z@4JA ; `FriendChatRoomCreateResult'::`1'::__LINE__Var
PUBLIC	??_C@_0BM@JEKCBGDH@error?9L2?5?3?5Index?5?$CFs?5?$CFd?5?$CI?$CFs?$CJ@ ; `string'
PUBLIC	??_C@_0CN@LPLKDCJE@?$FL?$CFs?$FN?5Chatroom?5create?5result?5?$CI?$CFd@ ; `string'
PUBLIC	?__LINE__Var@?0??FriendMemoSend@@YAXPAUPMSG_FRIEND_MEMO@@H@Z@4JA ; `FriendMemoSend'::`1'::__LINE__Var
PUBLIC	??_C@_0CD@HIFGHJCH@?$FL?$CFs?$FN?5Friend?5mail?5send?5?$CFs?5?$CISize?3@ ; `string'
PUBLIC	??_C@_0CC@MFFMGDDE@JoinServer?5mail?5send?5?$CFs?5?$CISize?3?$CF@ ; `string'
PUBLIC	??_C@_0DF@HMMPGHMB@?$FL?$CFs?$FN?$FL?$CFs?$FN?5?$CI?$CFs?$CJ?5Pay?5Money?$CIIn?5Inve@ ; `string'
PUBLIC	?__LINE__Var@?0??FriendMemoSendResult@@YAXPAUFHP_FRIEND_MEMO_SEND_RESULT@@@Z@4JA ; `FriendMemoSendResult'::`1'::__LINE__Var
PUBLIC	??_C@_06EBHHHLPK@webzen@			; `string'
PUBLIC	??_C@_0CD@EFIPOPHK@JoinServer?5Send?5Mail?5result?5?3?5?$CI@ ; `string'
PUBLIC	??_C@_0CO@FGOJBJPG@?$FL?$CFs?$FN?5Friend?5mail?5Send?5result?5?3?5@ ; `string'
PUBLIC	??_C@_04JEGKNAHI@Mail@				; `string'
PUBLIC	?__LINE__Var@?0??FriendMemoListReq@@YAXH@Z@4JA	; `FriendMemoListReq'::`1'::__LINE__Var
PUBLIC	??_C@_0BO@BLCCADHK@?$FL?$CFs?$FN?5Friend?5mail?5list?5request@ ; `string'
PUBLIC	?__LINE__Var@?0??FriendMemoList@@YAXPAUFHP_FRIEND_MEMO_LIST@@@Z@4JA ; `FriendMemoList'::`1'::__LINE__Var
PUBLIC	??_C@_0CI@INBOEHDN@?$FL?$CFs?$FN?5Friend?5Mail?5list?5?3?5?$CI?$CFd?3?$CF10@ ; `string'
PUBLIC	?__LINE__Var@?0??FriendMemoReadReq@@YAXPAUPMSG_FRIEND_READ_MEMO_REQ@@H@Z@4JA ; `FriendMemoReadReq'::`1'::__LINE__Var
PUBLIC	??_C@_0BP@DKLEPGIB@?$FL?$CFs?$FN?5Friend?5Mail?5read?5Index?3?$CFd@ ; `string'
PUBLIC	?__LINE__Var@?0??FriendMemoRead@@YAXPAUFHP_FRIEND_MEMO_RECV@@@Z@4JA ; `FriendMemoRead'::`1'::__LINE__Var
PUBLIC	??_C@_0CB@LDOIFNPP@error?9L2?5?3?5Friend?5Memo?5Max?5?$CFs?5?$CF@ ; `string'
PUBLIC	??_C@_0BL@NKLNIHDF@?$FL?$CFs?$FN?5Friend?5Mail?5read?5?$CI?$CFd?$CJ@ ; `string'
PUBLIC	?__LINE__Var@?0??FriendMemoDelReq@@YAXPAUPMSG_FRIEND_MEMO_DEL_REQ@@H@Z@4JA ; `FriendMemoDelReq'::`1'::__LINE__Var
PUBLIC	??_C@_0CL@CONIHEEP@?$FL?$CFs?$FN?5Friend?5mail?5delete?5request@ ; `string'
PUBLIC	?__LINE__Var@?0??FriendMemoDelResult@@YAXPAUFHP_FRIEND_MEMO_DEL_RESULT@@@Z@4JA ; `FriendMemoDelResult'::`1'::__LINE__Var
PUBLIC	??_C@_0DA@BCDIIKMO@?$FL?$CFs?$FN?5Friend?5mail?5delete?5request@ ; `string'
PUBLIC	?__LINE__Var@?0??FriendRoomInvitationReq@@YAXPAUPMSG_ROOM_INVITATION@@H@Z@4JA ; `FriendRoomInvitationReq'::`1'::__LINE__Var
PUBLIC	??_C@_0DD@OCMMINHH@?$FL?$CFs?$FN?5Friend?5Invistation?5request@ ; `string'
PUBLIC	?__LINE__Var@?0??FriendRoomInvitationRecv@@YAXPAUFHP_FRIEND_INVITATION_RET@@@Z@4JA ; `FriendRoomInvitationRecv'::`1'::__LINE__Var
PUBLIC	??_C@_0CC@LIINHIPA@?$FL?$CFs?$FN?5Friend?5Invitation?5result?5?3@ ; `string'
EXTRN	___report_rangecheckfailure:PROC
EXTRN	_memcpy:PROC
EXTRN	_memset:PROC
EXTRN	_strcmp:PROC
EXTRN	_strcpy:PROC
EXTRN	_strlen:PROC
EXTRN	__imp__wsprintfA:PROC
EXTRN	__imp__SendMessageA@16:PROC
EXTRN	__imp__IsWindow@4:PROC
EXTRN	__imp__ShowWindow@8:PROC
EXTRN	__imp__CreateDialogParamA@20:PROC
EXTRN	__imp__EndDialog@8:PROC
EXTRN	__imp__GetDlgItem@8:PROC
EXTRN	__imp__SetDlgItemTextA@12:PROC
EXTRN	__imp_?Get@CMsg@@QAEPADH@Z:PROC
EXTRN	?CloseClient@@YAXH@Z:PROC			; CloseClient
EXTRN	?DataSend@@YAHHPAEK@Z:PROC			; DataSend
EXTRN	?AddGuild@CGuildClass@@QAEPAU_GUILD_INFO_STRUCT@@HPADPAE0H@Z:PROC ; CGuildClass::AddGuild
EXTRN	?AddMember@CGuildClass@@QAEPAU_GUILD_INFO_STRUCT@@PAD0HHH@Z:PROC ; CGuildClass::AddMember
EXTRN	?DelMember@CGuildClass@@QAEHPAD0@Z:PROC		; CGuildClass::DelMember
EXTRN	?DeleteGuild@CGuildClass@@QAEHPAD0@Z:PROC	; CGuildClass::DeleteGuild
EXTRN	?ConnectUser@CGuildClass@@QAEHPAU_GUILD_INFO_STRUCT@@PAD1HH@Z:PROC ; CGuildClass::ConnectUser
EXTRN	?SetServer@CGuildClass@@QAEHPAD0H@Z:PROC	; CGuildClass::SetServer
EXTRN	?SearchGuild@CGuildClass@@QAEPAU_GUILD_INFO_STRUCT@@PAD@Z:PROC ; CGuildClass::SearchGuild
EXTRN	?CloseMember@CGuildClass@@QAEHPAD0@Z:PROC	; CGuildClass::CloseMember
EXTRN	?gObjGetIndex@@YAHPAD@Z:PROC			; gObjGetIndex
EXTRN	?gObjIsConnectedGP@@YAHH@Z:PROC			; gObjIsConnectedGP
EXTRN	?gObjIsConnected@@YAHH@Z:PROC			; gObjIsConnected
EXTRN	?GCServerMsgStringSend@@YAXPADHE@Z:PROC		; GCServerMsgStringSend
EXTRN	?GCResultSend@@YAXHEE@Z:PROC			; GCResultSend
EXTRN	?GCGuildViewportNowPaint@@YAXHPADPAE@Z:PROC	; GCGuildViewportNowPaint
EXTRN	?GCGuildViewportDelNow@@YAXH@Z:PROC		; GCGuildViewportDelNow
EXTRN	?GCGuildWarScore@@YAXH@Z:PROC			; GCGuildWarScore
EXTRN	?GCGuildWarDeclare@@YAXHPAD@Z:PROC		; GCGuildWarDeclare
EXTRN	?GCMoneySend@@YAXHK@Z:PROC			; GCMoneySend
EXTRN	?PHeadSetB@@YAXPAEEH@Z:PROC			; PHeadSetB
EXTRN	?SQLSyntexCheckConvert@@YAHPAD@Z:PROC		; SQLSyntexCheckConvert
EXTRN	?DataSend@wsJoinServerCli@@QAEHPADH@Z:PROC	; wsJoinServerCli::DataSend
EXTRN	?GameServerInfoSendStop@@YAXXZ:PROC		; GameServerInfoSendStop
EXTRN	?GameServerInfoSendStart@@YAXXZ:PROC		; GameServerInfoSendStart
EXTRN	?gObjIsConnectedGP@@YAHHPAD@Z:PROC		; gObjIsConnectedGP
EXTRN	@__security_check_cookie@4:PROC
EXTRN	_memset:PROC
EXTRN	?LogAdd@@3P6AXPADZZA:DWORD			; LogAdd
EXTRN	?LogAddC@@3P6AXEPADZZA:DWORD			; LogAddC
EXTRN	?LogAddTD@@3P6AXPADZZA:DWORD			; LogAddTD
EXTRN	?gObj@@3PAVOBJECTSTRUCT@@A:DWORD		; gObj
EXTRN	?lMsg@@3VCMsg@@A:BYTE				; lMsg
EXTRN	?ghWnd@@3PAUHWND__@@A:DWORD			; ghWnd
EXTRN	?GameServerPort@@3HA:DWORD			; GameServerPort
EXTRN	?gGameServerCode@@3FA:WORD			; gGameServerCode
EXTRN	?szServerName@@3PADA:BYTE			; szServerName
EXTRN	?Guild@@3VCGuildClass@@A:BYTE			; Guild
EXTRN	?wsExDbCli@@3VwsJoinServerCli@@A:BYTE		; wsExDbCli
EXTRN	___security_cookie:DWORD
;	COMDAT ??_C@_0CC@LIINHIPA@?$FL?$CFs?$FN?5Friend?5Invitation?5result?5?3@
CONST	SEGMENT
??_C@_0CC@LIINHIPA@?$FL?$CFs?$FN?5Friend?5Invitation?5result?5?3@ DB '[%s'
	DB	'] Friend Invitation result :%d', 00H	; `string'
CONST	ENDS
;	COMDAT ?__LINE__Var@?0??FriendRoomInvitationRecv@@YAXPAUFHP_FRIEND_INVITATION_RET@@@Z@4JA
_DATA	SEGMENT
?__LINE__Var@?0??FriendRoomInvitationRecv@@YAXPAUFHP_FRIEND_INVITATION_RET@@@Z@4JA DD 0c6fH ; `FriendRoomInvitationRecv'::`1'::__LINE__Var
_DATA	ENDS
;	COMDAT ??_C@_0DD@OCMMINHH@?$FL?$CFs?$FN?5Friend?5Invistation?5request@
CONST	SEGMENT
??_C@_0DD@OCMMINHH@?$FL?$CFs?$FN?5Friend?5Invistation?5request@ DB '[%s] '
	DB	'Friend Invistation request room:%d winguid:%d', 00H ; `string'
CONST	ENDS
;	COMDAT ?__LINE__Var@?0??FriendRoomInvitationReq@@YAXPAUPMSG_ROOM_INVITATION@@H@Z@4JA
_DATA	SEGMENT
?__LINE__Var@?0??FriendRoomInvitationReq@@YAXPAUPMSG_ROOM_INVITATION@@H@Z@4JA DD 0c58H ; `FriendRoomInvitationReq'::`1'::__LINE__Var
_DATA	ENDS
;	COMDAT ??_C@_0DA@BCDIIKMO@?$FL?$CFs?$FN?5Friend?5mail?5delete?5request@
CONST	SEGMENT
??_C@_0DA@BCDIIKMO@?$FL?$CFs?$FN?5Friend?5mail?5delete?5request@ DB '[%s]'
	DB	' Friend mail delete request (%d) index:(%d)', 00H ; `string'
CONST	ENDS
;	COMDAT ?__LINE__Var@?0??FriendMemoDelResult@@YAXPAUFHP_FRIEND_MEMO_DEL_RESULT@@@Z@4JA
_DATA	SEGMENT
?__LINE__Var@?0??FriendMemoDelResult@@YAXPAUFHP_FRIEND_MEMO_DEL_RESULT@@@Z@4JA DD 0c42H ; `FriendMemoDelResult'::`1'::__LINE__Var
_DATA	ENDS
;	COMDAT ??_C@_0CL@CONIHEEP@?$FL?$CFs?$FN?5Friend?5mail?5delete?5request@
CONST	SEGMENT
??_C@_0CL@CONIHEEP@?$FL?$CFs?$FN?5Friend?5mail?5delete?5request@ DB '[%s]'
	DB	' Friend mail delete request Index:(%d)', 00H ; `string'
CONST	ENDS
;	COMDAT ?__LINE__Var@?0??FriendMemoDelReq@@YAXPAUPMSG_FRIEND_MEMO_DEL_REQ@@H@Z@4JA
_DATA	SEGMENT
?__LINE__Var@?0??FriendMemoDelReq@@YAXPAUPMSG_FRIEND_MEMO_DEL_REQ@@H@Z@4JA DD 0c2cH ; `FriendMemoDelReq'::`1'::__LINE__Var
_DATA	ENDS
;	COMDAT ??_C@_0BL@NKLNIHDF@?$FL?$CFs?$FN?5Friend?5Mail?5read?5?$CI?$CFd?$CJ@
CONST	SEGMENT
??_C@_0BL@NKLNIHDF@?$FL?$CFs?$FN?5Friend?5Mail?5read?5?$CI?$CFd?$CJ@ DB '['
	DB	'%s] Friend Mail read (%d)', 00H		; `string'
CONST	ENDS
;	COMDAT ??_C@_0CB@LDOIFNPP@error?9L2?5?3?5Friend?5Memo?5Max?5?$CFs?5?$CF@
CONST	SEGMENT
??_C@_0CB@LDOIFNPP@error?9L2?5?3?5Friend?5Memo?5Max?5?$CFs?5?$CF@ DB 'err'
	DB	'or-L2 : Friend Memo Max %s %d', 00H		; `string'
CONST	ENDS
;	COMDAT ?__LINE__Var@?0??FriendMemoRead@@YAXPAUFHP_FRIEND_MEMO_RECV@@@Z@4JA
_DATA	SEGMENT
?__LINE__Var@?0??FriendMemoRead@@YAXPAUFHP_FRIEND_MEMO_RECV@@@Z@4JA DD 0bfeH ; `FriendMemoRead'::`1'::__LINE__Var
_DATA	ENDS
;	COMDAT ??_C@_0BP@DKLEPGIB@?$FL?$CFs?$FN?5Friend?5Mail?5read?5Index?3?$CFd@
CONST	SEGMENT
??_C@_0BP@DKLEPGIB@?$FL?$CFs?$FN?5Friend?5Mail?5read?5Index?3?$CFd@ DB '['
	DB	'%s] Friend Mail read Index:%d', 00H		; `string'
CONST	ENDS
;	COMDAT ?__LINE__Var@?0??FriendMemoReadReq@@YAXPAUPMSG_FRIEND_READ_MEMO_REQ@@H@Z@4JA
_DATA	SEGMENT
?__LINE__Var@?0??FriendMemoReadReq@@YAXPAUPMSG_FRIEND_READ_MEMO_REQ@@H@Z@4JA DD 0be8H ; `FriendMemoReadReq'::`1'::__LINE__Var
_DATA	ENDS
;	COMDAT ??_C@_0CI@INBOEHDN@?$FL?$CFs?$FN?5Friend?5Mail?5list?5?3?5?$CI?$CFd?3?$CF10@
CONST	SEGMENT
??_C@_0CI@INBOEHDN@?$FL?$CFs?$FN?5Friend?5Mail?5list?5?3?5?$CI?$CFd?3?$CF10@ DB '['
	DB	'%s] Friend Mail list : (%d:%10s:%s:%s)', 00H ; `string'
CONST	ENDS
;	COMDAT ?__LINE__Var@?0??FriendMemoList@@YAXPAUFHP_FRIEND_MEMO_LIST@@@Z@4JA
_DATA	SEGMENT
?__LINE__Var@?0??FriendMemoList@@YAXPAUFHP_FRIEND_MEMO_LIST@@@Z@4JA DD 0bc4H ; `FriendMemoList'::`1'::__LINE__Var
_DATA	ENDS
;	COMDAT ??_C@_0BO@BLCCADHK@?$FL?$CFs?$FN?5Friend?5mail?5list?5request@
CONST	SEGMENT
??_C@_0BO@BLCCADHK@?$FL?$CFs?$FN?5Friend?5mail?5list?5request@ DB '[%s] F'
	DB	'riend mail list request', 00H		; `string'
CONST	ENDS
;	COMDAT ?__LINE__Var@?0??FriendMemoListReq@@YAXH@Z@4JA
_DATA	SEGMENT
?__LINE__Var@?0??FriendMemoListReq@@YAXH@Z@4JA DD 0badH	; `FriendMemoListReq'::`1'::__LINE__Var
_DATA	ENDS
;	COMDAT ??_C@_04JEGKNAHI@Mail@
CONST	SEGMENT
??_C@_04JEGKNAHI@Mail@ DB 'Mail', 00H			; `string'
CONST	ENDS
;	COMDAT ??_C@_0CO@FGOJBJPG@?$FL?$CFs?$FN?5Friend?5mail?5Send?5result?5?3?5@
CONST	SEGMENT
??_C@_0CO@FGOJBJPG@?$FL?$CFs?$FN?5Friend?5mail?5Send?5result?5?3?5@ DB '['
	DB	'%s] Friend mail Send result : (%d) guid:(%d)', 00H ; `string'
CONST	ENDS
;	COMDAT ??_C@_0CD@EFIPOPHK@JoinServer?5Send?5Mail?5result?5?3?5?$CI@
CONST	SEGMENT
??_C@_0CD@EFIPOPHK@JoinServer?5Send?5Mail?5result?5?3?5?$CI@ DB 'JoinServ'
	DB	'er Send Mail result : (%d)', 00H		; `string'
CONST	ENDS
;	COMDAT ??_C@_06EBHHHLPK@webzen@
CONST	SEGMENT
??_C@_06EBHHHLPK@webzen@ DB 'webzen', 00H		; `string'
CONST	ENDS
;	COMDAT ?__LINE__Var@?0??FriendMemoSendResult@@YAXPAUFHP_FRIEND_MEMO_SEND_RESULT@@@Z@4JA
_DATA	SEGMENT
?__LINE__Var@?0??FriendMemoSendResult@@YAXPAUFHP_FRIEND_MEMO_SEND_RESULT@@@Z@4JA DD 0b86H ; `FriendMemoSendResult'::`1'::__LINE__Var
_DATA	ENDS
;	COMDAT ??_C@_0DF@HMMPGHMB@?$FL?$CFs?$FN?$FL?$CFs?$FN?5?$CI?$CFs?$CJ?5Pay?5Money?$CIIn?5Inve@
CONST	SEGMENT
??_C@_0DF@HMMPGHMB@?$FL?$CFs?$FN?$FL?$CFs?$FN?5?$CI?$CFs?$CJ?5Pay?5Money?$CIIn?5Inve@ DB '['
	DB	'%s][%s] (%s) Pay Money(In Inventory) : %d - %d = %d', 00H ; `string'
CONST	ENDS
;	COMDAT ??_C@_0CC@MFFMGDDE@JoinServer?5mail?5send?5?$CFs?5?$CISize?3?$CF@
CONST	SEGMENT
??_C@_0CC@MFFMGDDE@JoinServer?5mail?5send?5?$CFs?5?$CISize?3?$CF@ DB 'Joi'
	DB	'nServer mail send %s (Size:%d)', 00H	; `string'
CONST	ENDS
;	COMDAT ??_C@_0CD@HIFGHJCH@?$FL?$CFs?$FN?5Friend?5mail?5send?5?$CFs?5?$CISize?3@
CONST	SEGMENT
??_C@_0CD@HIFGHJCH@?$FL?$CFs?$FN?5Friend?5mail?5send?5?$CFs?5?$CISize?3@ DB '['
	DB	'%s] Friend mail send %s (Size:%d)', 00H	; `string'
CONST	ENDS
;	COMDAT ?__LINE__Var@?0??FriendMemoSend@@YAXPAUPMSG_FRIEND_MEMO@@H@Z@4JA
_DATA	SEGMENT
?__LINE__Var@?0??FriendMemoSend@@YAXPAUPMSG_FRIEND_MEMO@@H@Z@4JA DD 0ad1H ; `FriendMemoSend'::`1'::__LINE__Var
_DATA	ENDS
;	COMDAT ??_C@_0CN@LPLKDCJE@?$FL?$CFs?$FN?5Chatroom?5create?5result?5?$CI?$CFd@
CONST	SEGMENT
??_C@_0CN@LPLKDCJE@?$FL?$CFs?$FN?5Chatroom?5create?5result?5?$CI?$CFd@ DB '['
	DB	'%s] Chatroom create result (%d) ticket:(%d)', 00H ; `string'
CONST	ENDS
;	COMDAT ??_C@_0BM@JEKCBGDH@error?9L2?5?3?5Index?5?$CFs?5?$CFd?5?$CI?$CFs?$CJ@
CONST	SEGMENT
??_C@_0BM@JEKCBGDH@error?9L2?5?3?5Index?5?$CFs?5?$CFd?5?$CI?$CFs?$CJ@ DB 'e'
	DB	'rror-L2 : Index %s %d (%s)', 00H		; `string'
CONST	ENDS
;	COMDAT ?__LINE__Var@?0??FriendChatRoomCreateResult@@YAXPAUFHP_FRIEND_CHATROOM_CREATE_RESULT@@@Z@4JA
_DATA	SEGMENT
?__LINE__Var@?0??FriendChatRoomCreateResult@@YAXPAUFHP_FRIEND_CHATROOM_CREATE_RESULT@@@Z@4JA DD 0ab5H ; `FriendChatRoomCreateResult'::`1'::__LINE__Var
_DATA	ENDS
;	COMDAT ??_C@_0CC@HAGNMCFJ@?$FL?$CFs?$FN?5Chatroom?5create?5request?5?$FL?$CF@
CONST	SEGMENT
??_C@_0CC@HAGNMCFJ@?$FL?$CFs?$FN?5Chatroom?5create?5request?5?$FL?$CF@ DB '['
	DB	'%s] Chatroom create request [%s]', 00H	; `string'
CONST	ENDS
;	COMDAT ?__LINE__Var@?0??FriendChatRoomCreateReq@@YAXPAUPMSG_FRIEND_ROOMCREATE_REQ@@H@Z@4JA
_DATA	SEGMENT
?__LINE__Var@?0??FriendChatRoomCreateReq@@YAXPAUPMSG_FRIEND_ROOMCREATE_REQ@@H@Z@4JA DD 0aa0H ; `FriendChatRoomCreateReq'::`1'::__LINE__Var
_DATA	ENDS
;	COMDAT ??_C@_0CB@NCMBHLMH@?$FL?$CFs?$FN?5Friend?5del?5result?5?$CI?$CFd?$CJ?5?$FL?$CFs@
CONST	SEGMENT
??_C@_0CB@NCMBHLMH@?$FL?$CFs?$FN?5Friend?5del?5result?5?$CI?$CFd?$CJ?5?$FL?$CFs@ DB '['
	DB	'%s] Friend del result (%d) [%s]', 00H	; `string'
CONST	ENDS
;	COMDAT ?__LINE__Var@?0??FriendDelResult@@YAXPAUFHP_FRIEND_DEL_RESULT@@@Z@4JA
_DATA	SEGMENT
?__LINE__Var@?0??FriendDelResult@@YAXPAUFHP_FRIEND_DEL_RESULT@@@Z@4JA DD 0a89H ; `FriendDelResult'::`1'::__LINE__Var
_DATA	ENDS
;	COMDAT ??_C@_0BN@HLFBKLAE@?$FL?$CFs?$FN?5Friend?5del?5request?5?$FL?$CFs?$FN@
CONST	SEGMENT
??_C@_0BN@HLFBKLAE@?$FL?$CFs?$FN?5Friend?5del?5request?5?$FL?$CFs?$FN@ DB '['
	DB	'%s] Friend del request [%s]', 00H		; `string'
CONST	ENDS
;	COMDAT ?__LINE__Var@?0??FriendDelRequest@@YAXPAUPMSG_FRIEND_DEL_REQ@@H@Z@4JA
_DATA	SEGMENT
?__LINE__Var@?0??FriendDelRequest@@YAXPAUPMSG_FRIEND_DEL_REQ@@H@Z@4JA DD 0a70H ; `FriendDelRequest'::`1'::__LINE__Var
_DATA	ENDS
;	COMDAT ??_C@_0CF@CCKIBLLA@?$FL?$CFs?$FN?5WaitFriend?5add?5result?5?$CI?$CFd?$CJ@
CONST	SEGMENT
??_C@_0CF@CCKIBLLA@?$FL?$CFs?$FN?5WaitFriend?5add?5result?5?$CI?$CFd?$CJ@ DB '['
	DB	'%s] WaitFriend add result (%d) [%s]', 00H	; `string'
CONST	ENDS
;	COMDAT ?__LINE__Var@?0??WaitFriendAddResult@@YAXPAUFHP_WAITFRIEND_ADD_RESULT@@@Z@4JA
_DATA	SEGMENT
?__LINE__Var@?0??WaitFriendAddResult@@YAXPAUFHP_WAITFRIEND_ADD_RESULT@@@Z@4JA DD 0a54H ; `WaitFriendAddResult'::`1'::__LINE__Var
_DATA	ENDS
;	COMDAT ??_C@_0CB@IIBIOFAA@?$FL?$CFs?$FN?5WaitFriend?5add?5request?5?$FL?$CFs@
CONST	SEGMENT
??_C@_0CB@IIBIOFAA@?$FL?$CFs?$FN?5WaitFriend?5add?5request?5?$FL?$CFs@ DB '['
	DB	'%s] WaitFriend add request [%s]', 00H	; `string'
CONST	ENDS
;	COMDAT ?__LINE__Var@?0??WaitFriendAddRequest@@YAXPAUPMSG_FRIEND_ADD_SIN_RESULT@@H@Z@4JA
_DATA	SEGMENT
?__LINE__Var@?0??WaitFriendAddRequest@@YAXPAUPMSG_FRIEND_ADD_SIN_RESULT@@H@Z@4JA DD 0a3aH ; `WaitFriendAddRequest'::`1'::__LINE__Var
_DATA	ENDS
;	COMDAT ??_C@_0DB@NPDFCIKD@?$FL?$CFs?$FN?5Friend?5add?5result?5?3?5?$CI?$CFd?$CJ?5f@
CONST	SEGMENT
??_C@_0DB@NPDFCIKD@?$FL?$CFs?$FN?5Friend?5add?5result?5?3?5?$CI?$CFd?$CJ?5f@ DB '['
	DB	'%s] Friend add result : (%d) friend Name : (%s)', 00H ; `string'
CONST	ENDS
;	COMDAT ?__LINE__Var@?0??FriendAddResult@@YAXPAUFHP_FRIEND_ADD_RESULT@@@Z@4JA
_DATA	SEGMENT
?__LINE__Var@?0??FriendAddResult@@YAXPAUFHP_FRIEND_ADD_RESULT@@@Z@4JA DD 0a20H ; `FriendAddResult'::`1'::__LINE__Var
_DATA	ENDS
;	COMDAT ??_C@_0CG@JNIACLCP@error?9L3?5?3?5?$FL?$CFs?$FN?5Friend?5add?5?3?5No@
CONST	SEGMENT
??_C@_0CG@JNIACLCP@error?9L3?5?3?5?$FL?$CFs?$FN?5Friend?5add?5?3?5No@ DB 'e'
	DB	'rror-L3 : [%s] Friend add : Not self', 00H	; `string'
CONST	ENDS
;	COMDAT ??_C@_0CD@OOGOJAIC@?$FL?$CFs?$FN?5Friend?5add?5request?5Name?3?5?$FL@
CONST	SEGMENT
??_C@_0CD@OOGOJAIC@?$FL?$CFs?$FN?5Friend?5add?5request?5Name?3?5?$FL@ DB '['
	DB	'%s] Friend add request Name: [%s]', 00H	; `string'
CONST	ENDS
;	COMDAT ??_C@_0EL@ENENOIMK@?$FLHACKTOOL?$FN?5?3?5NPC?9FriendAddReque@
CONST	SEGMENT
??_C@_0EL@ENENOIMK@?$FLHACKTOOL?$FN?5?3?5NPC?9FriendAddReque@ DB '[HACKTO'
	DB	'OL] : NPC-FriendAddRequest npc:%d ip:%s account:%s name:%s St'
	DB	'ate:%d', 00H				; `string'
CONST	ENDS
;	COMDAT ?__LINE__Var@?0??FriendAddRequest@@YAXPAUPMSG_FRIEND_ADD_REQ@@H@Z@4JA
_DATA	SEGMENT
?__LINE__Var@?0??FriendAddRequest@@YAXPAUPMSG_FRIEND_ADD_REQ@@H@Z@4JA DD 09ebH ; `FriendAddRequest'::`1'::__LINE__Var
_DATA	ENDS
;	COMDAT ??_C@_0BH@OEEJLGGK@?$FL?$CFs?$FN?5Friend?5State?5?$CI?$CFd?$CJ@
CONST	SEGMENT
??_C@_0BH@OEEJLGGK@?$FL?$CFs?$FN?5Friend?5State?5?$CI?$CFd?$CJ@ DB '[%s] '
	DB	'Friend State (%d)', 00H			; `string'
CONST	ENDS
;	COMDAT ?__LINE__Var@?0??FriendStateRecv@@YAXPAUFHP_FRIEND_STATE@@@Z@4JA
_DATA	SEGMENT
?__LINE__Var@?0??FriendStateRecv@@YAXPAUFHP_FRIEND_STATE@@@Z@4JA DD 09d3H ; `FriendStateRecv'::`1'::__LINE__Var
_DATA	ENDS
;	COMDAT ?__LINE__Var@?0??FriendStateClientRecv@@YAXPAUPMSG_FRIEND_STATE_C@@H@Z@4JA
_DATA	SEGMENT
?__LINE__Var@?0??FriendStateClientRecv@@YAXPAUPMSG_FRIEND_STATE_C@@H@Z@4JA DD 09c0H ; `FriendStateClientRecv'::`1'::__LINE__Var
_DATA	ENDS
;	COMDAT ??_C@_0BK@HLHJLCCE@?$FL?$CFs?$FN?5WaitFriend?5List?5?$FL?$CFs?$FN@
CONST	SEGMENT
??_C@_0BK@HLHJLCCE@?$FL?$CFs?$FN?5WaitFriend?5List?5?$FL?$CFs?$FN@ DB '[%'
	DB	's] WaitFriend List [%s]', 00H		; `string'
CONST	ENDS
;	COMDAT ??_C@_0BN@DOMMEPOB@error?9L2?5?3?5?$CI?$CFs?$CJ?5Index?5?$CFs?5?$CFd?5@
CONST	SEGMENT
??_C@_0BN@DOMMEPOB@error?9L2?5?3?5?$CI?$CFs?$CJ?5Index?5?$CFs?5?$CFd?5@ DB 'e'
	DB	'rror-L2 : (%s) Index %s %d ', 00H		; `string'
CONST	ENDS
;	COMDAT ?__LINE__Var@?0??WaitFriendListResult@@YAXPAUFHP_WAITFRIENDLIST_COUNT@@@Z@4JA
_DATA	SEGMENT
?__LINE__Var@?0??WaitFriendListResult@@YAXPAUFHP_WAITFRIENDLIST_COUNT@@@Z@4JA DD 09a6H ; `WaitFriendListResult'::`1'::__LINE__Var
_DATA	ENDS
;	COMDAT ??_C@_0CB@HGMGGPGK@?$FL?$CFs?$FN?5Friend?5List?5Count?5?$CI?$CFd?$CJ?5Sen@
CONST	SEGMENT
??_C@_0CB@HGMGGPGK@?$FL?$CFs?$FN?5Friend?5List?5Count?5?$CI?$CFd?$CJ?5Sen@ DB '['
	DB	'%s] Friend List Count (%d) Send', 00H	; `string'
CONST	ENDS
;	COMDAT ?__LINE__Var@?0??FriendListResult@@YAXPAE@Z@4JA
_DATA	SEGMENT
?__LINE__Var@?0??FriendListResult@@YAXPAE@Z@4JA DD 0977H ; `FriendListResult'::`1'::__LINE__Var
_DATA	ENDS
;	COMDAT ??_C@_0BJ@BDFPCOJL@?$FL?$CFs?$FN?5Friend?5List?5Request@
CONST	SEGMENT
??_C@_0BJ@BDFPCOJL@?$FL?$CFs?$FN?5Friend?5List?5Request@ DB '[%s] Friend '
	DB	'List Request', 00H				; `string'
CONST	ENDS
;	COMDAT ??_C@_0CJ@EJJNCKNG@error?9L3?5?3?5?$FL?$CFs?$FN?$FL?$CFs?$FN?5FriendServe@
CONST	SEGMENT
??_C@_0CJ@EJJNCKNG@error?9L3?5?3?5?$FL?$CFs?$FN?$FL?$CFs?$FN?5FriendServe@ DB 'e'
	DB	'rror-L3 : [%s][%s] FriendServer Offline', 00H ; `string'
CONST	ENDS
;	COMDAT ??_C@_0DB@ELGELCGP@error?9L3?5?3?5?$FL?$CFs?$FN?$FL?$CFs?$FN?5FriendServe@
CONST	SEGMENT
??_C@_0DB@ELGELCGP@error?9L3?5?3?5?$FL?$CFs?$FN?$FL?$CFs?$FN?5FriendServe@ DB 'e'
	DB	'rror-L3 : [%s][%s] FriendServer Online Request ', 00H ; `string'
CONST	ENDS
;	COMDAT ??_C@_0BH@LCDOHCGD@error?9L2?5?3?5Index?5?$CFs?5?$CFd@
CONST	SEGMENT
??_C@_0BH@LCDOHCGD@error?9L2?5?3?5Index?5?$CFs?5?$CFd@ DB 'error-L2 : Ind'
	DB	'ex %s %d', 00H				; `string'
CONST	ENDS
;	COMDAT ??_C@_0DO@DMLGFOAA@C?3?2Mu?5Online?2Mu?9GS?9Webzen?9MC?910@
CONST	SEGMENT
??_C@_0DO@DMLGFOAA@C?3?2Mu?5Online?2Mu?9GS?9Webzen?9MC?910@ DB 'C:\Mu Onl'
	DB	'ine\Mu-GS-Webzen-MC-10093\GameServer\EDSProtocol.cpp', 00H ; `string'
CONST	ENDS
;	COMDAT ?__LINE__Var@?0??FriendListRequest@@YAXH@Z@4JA
_DATA	SEGMENT
?__LINE__Var@?0??FriendListRequest@@YAXH@Z@4JA DD 0952H	; `FriendListRequest'::`1'::__LINE__Var
_DATA	ENDS
;	COMDAT ??_C@_0O@BNCDNIJM@?$CF8s?5?$FL?$CFd?5?1?5?$CFd?$FN@
CONST	SEGMENT
??_C@_0O@BNCDNIJM@?$CF8s?5?$FL?$CFd?5?1?5?$CFd?$FN@ DB '%8s [%d / %d]', 00H ; `string'
CONST	ENDS
;	COMDAT ??_C@_0DF@BOBMAPKN@?$FLU?4System?$FN?$FLGuild?5Status?$FN?$FLInfo?$FN?5@
CONST	SEGMENT
??_C@_0DF@BOBMAPKN@?$FLU?4System?$FN?$FLGuild?5Status?$FN?$FLInfo?$FN?5@ DB '['
	DB	'U.System][Guild Status][Info] Guild : %s / [%s][%s]', 00H ; `string'
CONST	ENDS
;	COMDAT ??_C@_0BL@MLPIPIDH@ExDB?5Server?5Login?5Fail?3?5?$CFd@
CONST	SEGMENT
??_C@_0BL@MLPIPIDH@ExDB?5Server?5Login?5Fail?3?5?$CFd@ DB 'ExDB Server Lo'
	DB	'gin Fail: %d', 00H				; `string'
CONST	ENDS
;	COMDAT ??_C@_00CNPNBAHC@@
CONST	SEGMENT
??_C@_00CNPNBAHC@@ DB 00H				; `string'
CONST	ENDS
; Function compile flags: /Odtp /ZI
; File C:\Mu Online\Mu-GS-Webzen-MC-10093\GameServer\EDSProtocol.cpp
;	COMDAT ?WithdrawUserMoney@@YAHPADPAVOBJECTSTRUCT@@H@Z
_TEXT	SEGMENT
_oldmoney$ = -4						; size = 4
_Type$ = 8						; size = 4
_lpObj$ = 12						; size = 4
_Withdraw_Money$ = 16					; size = 4
?WithdrawUserMoney@@YAHPADPAVOBJECTSTRUCT@@H@Z PROC	; WithdrawUserMoney, COMDAT

; 2921 : {

  00000	55		 push	 ebp
  00001	8b ec		 mov	 ebp, esp
  00003	83 ec 44	 sub	 esp, 68			; 00000044H
  00006	53		 push	 ebx
  00007	56		 push	 esi
  00008	57		 push	 edi

; 2922 : 	int oldmoney;
; 2923 : 
; 2924 : //	if( lpObj->Money-Withdraw_Money > 0 )
; 2925 : 	if( lpObj->Money-Withdraw_Money >= 0 )			// #BUGFIX_20040707_01

  00009	8b 45 0c	 mov	 eax, DWORD PTR _lpObj$[ebp]
  0000c	8b 88 b0 00 00
	00		 mov	 ecx, DWORD PTR [eax+176]
  00012	2b 4d 10	 sub	 ecx, DWORD PTR _Withdraw_Money$[ebp]
  00015	78 72		 js	 SHORT $LN2@WithdrawUs

; 2926 : 	{
; 2927 : 		oldmoney	  = lpObj->Money;

  00017	8b 45 0c	 mov	 eax, DWORD PTR _lpObj$[ebp]
  0001a	8b 88 b0 00 00
	00		 mov	 ecx, DWORD PTR [eax+176]
  00020	89 4d fc	 mov	 DWORD PTR _oldmoney$[ebp], ecx

; 2928 : 		lpObj->Money -= Withdraw_Money;

  00023	8b 45 0c	 mov	 eax, DWORD PTR _lpObj$[ebp]
  00026	8b 88 b0 00 00
	00		 mov	 ecx, DWORD PTR [eax+176]
  0002c	2b 4d 10	 sub	 ecx, DWORD PTR _Withdraw_Money$[ebp]
  0002f	8b 55 0c	 mov	 edx, DWORD PTR _lpObj$[ebp]
  00032	89 8a b0 00 00
	00		 mov	 DWORD PTR [edx+176], ecx

; 2929 : 		GCMoneySend(lpObj->m_Index, lpObj->Money);

  00038	8b 45 0c	 mov	 eax, DWORD PTR _lpObj$[ebp]
  0003b	8b 88 b0 00 00
	00		 mov	 ecx, DWORD PTR [eax+176]
  00041	51		 push	 ecx
  00042	8b 55 0c	 mov	 edx, DWORD PTR _lpObj$[ebp]
  00045	8b 02		 mov	 eax, DWORD PTR [edx]
  00047	50		 push	 eax
  00048	e8 00 00 00 00	 call	 ?GCMoneySend@@YAXHK@Z	; GCMoneySend
  0004d	83 c4 08	 add	 esp, 8

; 2930 : 		LogAdd("[%s][%s] (%s) Pay Money(In Inventory) : %d - %d = %d", lpObj->AccountID, lpObj->Name, Type, oldmoney, Withdraw_Money, lpObj->Money);

  00050	8b 45 0c	 mov	 eax, DWORD PTR _lpObj$[ebp]
  00053	8b 88 b0 00 00
	00		 mov	 ecx, DWORD PTR [eax+176]
  00059	51		 push	 ecx
  0005a	8b 55 10	 mov	 edx, DWORD PTR _Withdraw_Money$[ebp]
  0005d	52		 push	 edx
  0005e	8b 45 fc	 mov	 eax, DWORD PTR _oldmoney$[ebp]
  00061	50		 push	 eax
  00062	8b 4d 08	 mov	 ecx, DWORD PTR _Type$[ebp]
  00065	51		 push	 ecx
  00066	8b 55 0c	 mov	 edx, DWORD PTR _lpObj$[ebp]
  00069	83 c2 73	 add	 edx, 115		; 00000073H
  0006c	52		 push	 edx
  0006d	8b 45 0c	 mov	 eax, DWORD PTR _lpObj$[ebp]
  00070	83 c0 68	 add	 eax, 104		; 00000068H
  00073	50		 push	 eax
  00074	68 00 00 00 00	 push	 OFFSET ??_C@_0DF@HMMPGHMB@?$FL?$CFs?$FN?$FL?$CFs?$FN?5?$CI?$CFs?$CJ?5Pay?5Money?$CIIn?5Inve@
  00079	ff 15 00 00 00
	00		 call	 DWORD PTR ?LogAdd@@3P6AXPADZZA ; LogAdd
  0007f	83 c4 1c	 add	 esp, 28			; 0000001cH

; 2931 : 		return TRUE;

  00082	b8 01 00 00 00	 mov	 eax, 1
  00087	eb 02		 jmp	 SHORT $LN1@WithdrawUs
$LN2@WithdrawUs:

; 2932 : 	}
; 2933 : 
; 2934 : 	/*else if( lpObj->WarehouseMoney-Withdraw_Money > 0 )
; 2935 : 	{
; 2936 : 		oldmoney			   = lpObj->WarehouseMoney;
; 2937 : 		lpObj->WarehouseMoney -= Withdraw_Money;
; 2938 : 		LogAdd("[%s][%s] (%s) Pay WareHouse Money(In WareHouse) : %d - %d = %d", lpObj->AccountID, lpObj->Name, Type, oldmoney, Withdraw_Money, lpObj->WarehouseMoney);
; 2939 : 		GCWarehouseInventoryMoneySend(lpObj->m_Index, 0x01, lpObj->Money, lpObj->WarehouseMoney);
; 2940 : 		return TRUE;
; 2941 : 	}
; 2942 : 	*/
; 2943 : 	return FALSE;

  00089	33 c0		 xor	 eax, eax
$LN1@WithdrawUs:

; 2944 : }

  0008b	5f		 pop	 edi
  0008c	5e		 pop	 esi
  0008d	5b		 pop	 ebx
  0008e	8b e5		 mov	 esp, ebp
  00090	5d		 pop	 ebp
  00091	c3		 ret	 0
?WithdrawUserMoney@@YAHPADPAVOBJECTSTRUCT@@H@Z ENDP	; WithdrawUserMoney
_TEXT	ENDS
; Function compile flags: /Odtp /ZI
; File C:\Mu Online\Mu-GS-Webzen-MC-10093\GameServer\EDSProtocol.cpp
;	COMDAT ?GuildListDlgProc@@YGHPAUHWND__@@IIJ@Z
_TEXT	SEGMENT
tv65 = -68						; size = 4
tv64 = -68						; size = 4
_hDlg$ = 8						; size = 4
_iMsg$ = 12						; size = 4
_wParam$ = 16						; size = 4
_lParam$ = 20						; size = 4
?GuildListDlgProc@@YGHPAUHWND__@@IIJ@Z PROC		; GuildListDlgProc, COMDAT

; 1401 : {

  00000	55		 push	 ebp
  00001	8b ec		 mov	 ebp, esp
  00003	83 ec 44	 sub	 esp, 68			; 00000044H
  00006	53		 push	 ebx
  00007	56		 push	 esi
  00008	57		 push	 edi

; 1402 : 	switch (iMsg) 

  00009	8b 45 0c	 mov	 eax, DWORD PTR _iMsg$[ebp]
  0000c	89 45 bc	 mov	 DWORD PTR tv64[ebp], eax
  0000f	81 7d bc 11 01
	00 00		 cmp	 DWORD PTR tv64[ebp], 273 ; 00000111H
  00016	74 04		 je	 SHORT $LN7@GuildListD
  00018	eb 28		 jmp	 SHORT $LN2@GuildListD

; 1403 : 	{
; 1404 : 	case WM_INITDIALOG :
; 1405 : 		break;

  0001a	eb 26		 jmp	 SHORT $LN2@GuildListD
$LN7@GuildListD:

; 1406 : 	case WM_COMMAND :
; 1407 : 		switch( wParam )

  0001c	8b 45 10	 mov	 eax, DWORD PTR _wParam$[ebp]
  0001f	89 45 bc	 mov	 DWORD PTR tv65[ebp], eax
  00022	83 7d bc 02	 cmp	 DWORD PTR tv65[ebp], 2
  00026	74 02		 je	 SHORT $LN8@GuildListD
  00028	eb 18		 jmp	 SHORT $LN2@GuildListD
$LN8@GuildListD:

; 1408 : 		{
; 1409 : 		case IDCANCEL :
; 1410 : 			EndDialog(GuildListhDlg, 0);

  0002a	6a 00		 push	 0
  0002c	a1 00 00 00 00	 mov	 eax, DWORD PTR ?GuildListhDlg@@3PAUHWND__@@A ; GuildListhDlg
  00031	50		 push	 eax
  00032	ff 15 00 00 00
	00		 call	 DWORD PTR __imp__EndDialog@8

; 1411 : 			GuildListhDlg = NULL;

  00038	c7 05 00 00 00
	00 00 00 00 00	 mov	 DWORD PTR ?GuildListhDlg@@3PAUHWND__@@A, 0 ; GuildListhDlg
$LN2@GuildListD:

; 1412 : 			break;
; 1413 : 		}
; 1414 : 		break;
; 1415 : 	}
; 1416 : 	return FALSE;

  00042	33 c0		 xor	 eax, eax

; 1417 : }

  00044	5f		 pop	 edi
  00045	5e		 pop	 esi
  00046	5b		 pop	 ebx
  00047	8b e5		 mov	 esp, ebp
  00049	5d		 pop	 ebp
  0004a	c2 10 00	 ret	 16			; 00000010H
?GuildListDlgProc@@YGHPAUHWND__@@IIJ@Z ENDP		; GuildListDlgProc
_TEXT	ENDS
; Function compile flags: /Odtp /ZI
; File C:\Mu Online\Mu-GS-Webzen-MC-10093\GameServer\EDSProtocol.cpp
;	COMDAT ?DGGuildUpdateRecv@@YAXPAUSDHP_GUILDUPDATE@@@Z
_TEXT	SEGMENT
_lpMsg$ = 8						; size = 4
?DGGuildUpdateRecv@@YAXPAUSDHP_GUILDUPDATE@@@Z PROC	; DGGuildUpdateRecv, COMDAT

; 961  : {

  00000	55		 push	 ebp
  00001	8b ec		 mov	 ebp, esp
  00003	83 ec 40	 sub	 esp, 64			; 00000040H
  00006	53		 push	 ebx
  00007	56		 push	 esi
  00008	57		 push	 edi

; 962  : 	
; 963  : }

  00009	5f		 pop	 edi
  0000a	5e		 pop	 esi
  0000b	5b		 pop	 ebx
  0000c	8b e5		 mov	 esp, ebp
  0000e	5d		 pop	 ebp
  0000f	c3		 ret	 0
?DGGuildUpdateRecv@@YAXPAUSDHP_GUILDUPDATE@@@Z ENDP	; DGGuildUpdateRecv
_TEXT	ENDS
; Function compile flags: /Odtp /ZI
; File C:\Mu Online\Mu-GS-Webzen-MC-10093\GameServer\EDSProtocol.cpp
;	COMDAT ?ExDataServerLoginResult@@YAXPAUSDHP_RESULT@@@Z
_TEXT	SEGMENT
_n$1 = -4						; size = 4
_lpMsg$ = 8						; size = 4
?ExDataServerLoginResult@@YAXPAUSDHP_RESULT@@@Z PROC	; ExDataServerLoginResult, COMDAT

; 313  : {

  00000	55		 push	 ebp
  00001	8b ec		 mov	 ebp, esp
  00003	83 ec 44	 sub	 esp, 68			; 00000044H
  00006	53		 push	 ebx
  00007	56		 push	 esi
  00008	57		 push	 edi

; 314  : 	if( lpMsg->Result == FALSE )

  00009	8b 45 08	 mov	 eax, DWORD PTR _lpMsg$[ebp]
  0000c	0f b6 48 03	 movzx	 ecx, BYTE PTR [eax+3]
  00010	85 c9		 test	 ecx, ecx
  00012	75 18		 jne	 SHORT $LN5@ExDataServ

; 315  : 	{
; 316  : 		LogAddTD("ExDB Server Login Fail: %d", lpMsg->Result);

  00014	8b 45 08	 mov	 eax, DWORD PTR _lpMsg$[ebp]
  00017	0f b6 48 03	 movzx	 ecx, BYTE PTR [eax+3]
  0001b	51		 push	 ecx
  0001c	68 00 00 00 00	 push	 OFFSET ??_C@_0BL@MLPIPIDH@ExDB?5Server?5Login?5Fail?3?5?$CFd@
  00021	ff 15 00 00 00
	00		 call	 DWORD PTR ?LogAddTD@@3P6AXPADZZA ; LogAddTD
  00027	83 c4 08	 add	 esp, 8

; 317  : 	}

  0002a	eb 5d		 jmp	 SHORT $LN1@ExDataServ
$LN5@ExDataServ:

; 318  : 	else
; 319  : 	{
; 320  : 		for( int n=0; n<MAX_OBJECT; n++)

  0002c	c7 45 fc 00 00
	00 00		 mov	 DWORD PTR _n$1[ebp], 0
  00033	eb 09		 jmp	 SHORT $LN4@ExDataServ
$LN2@ExDataServ:
  00035	8b 45 fc	 mov	 eax, DWORD PTR _n$1[ebp]
  00038	83 c0 01	 add	 eax, 1
  0003b	89 45 fc	 mov	 DWORD PTR _n$1[ebp], eax
$LN4@ExDataServ:
  0003e	81 7d fc e8 1c
	00 00		 cmp	 DWORD PTR _n$1[ebp], 7400 ; 00001ce8H
  00045	7d 42		 jge	 SHORT $LN1@ExDataServ

; 321  : 		{
; 322  : 			if( gObjIsConnectedGP(n)==TRUE)

  00047	8b 45 fc	 mov	 eax, DWORD PTR _n$1[ebp]
  0004a	50		 push	 eax
  0004b	e8 00 00 00 00	 call	 ?gObjIsConnectedGP@@YAHH@Z ; gObjIsConnectedGP
  00050	83 c4 04	 add	 esp, 4
  00053	83 f8 01	 cmp	 eax, 1
  00056	75 2f		 jne	 SHORT $LN7@ExDataServ

; 323  : 			{
; 324  : 				if( gObj[n].m_FriendServerOnline == FRIENDSERVER_OFFLINE ) 

  00058	69 45 fc a0 1b
	00 00		 imul	 eax, DWORD PTR _n$1[ebp], 7072
  0005f	8b 0d 00 00 00
	00		 mov	 ecx, DWORD PTR ?gObj@@3PAVOBJECTSTRUCT@@A ; gObj
  00065	0f b6 94 01 cc
	01 00 00	 movzx	 edx, BYTE PTR [ecx+eax+460]
  0006d	83 fa 01	 cmp	 edx, 1
  00070	75 15		 jne	 SHORT $LN7@ExDataServ

; 325  : 					gObj[n].m_FriendServerOnline = FRIENDSERVER_ONLINE;	// 접속 하게 해라..

  00072	69 45 fc a0 1b
	00 00		 imul	 eax, DWORD PTR _n$1[ebp], 7072
  00079	8b 0d 00 00 00
	00		 mov	 ecx, DWORD PTR ?gObj@@3PAVOBJECTSTRUCT@@A ; gObj
  0007f	c6 84 01 cc 01
	00 00 00	 mov	 BYTE PTR [ecx+eax+460], 0
$LN7@ExDataServ:

; 326  : 			}
; 327  : 		}

  00087	eb ac		 jmp	 SHORT $LN2@ExDataServ
$LN1@ExDataServ:

; 328  : 	}
; 329  : }

  00089	5f		 pop	 edi
  0008a	5e		 pop	 esi
  0008b	5b		 pop	 ebx
  0008c	8b e5		 mov	 esp, ebp
  0008e	5d		 pop	 ebp
  0008f	c3		 ret	 0
?ExDataServerLoginResult@@YAXPAUSDHP_RESULT@@@Z ENDP	; ExDataServerLoginResult
_TEXT	ENDS
; Function compile flags: /Odtp /ZI
; File C:\Mu Online\Mu-GS-Webzen-MC-10093\GameServer\EDSProtocol.cpp
;	COMDAT ?FriendRoomInvitationRecv@@YAXPAUFHP_FRIEND_INVITATION_RET@@@Z
_TEXT	SEGMENT
_pMsg$ = -24						; size = 8
_Name$ = -16						; size = 11
__$ArrayPad$ = -4					; size = 4
_lpMsg$ = 8						; size = 4
?FriendRoomInvitationRecv@@YAXPAUFHP_FRIEND_INVITATION_RET@@@Z PROC ; FriendRoomInvitationRecv, COMDAT

; 3183 : {

  00000	55		 push	 ebp
  00001	8b ec		 mov	 ebp, esp
  00003	83 ec 58	 sub	 esp, 88			; 00000058H
  00006	a1 00 00 00 00	 mov	 eax, DWORD PTR ___security_cookie
  0000b	33 c5		 xor	 eax, ebp
  0000d	89 45 fc	 mov	 DWORD PTR __$ArrayPad$[ebp], eax
  00010	53		 push	 ebx
  00011	56		 push	 esi
  00012	57		 push	 edi

; 3184 : 	char_ID		Name(lpMsg->Name);

  00013	8b 45 08	 mov	 eax, DWORD PTR _lpMsg$[ebp]
  00016	83 c0 06	 add	 eax, 6
  00019	50		 push	 eax
  0001a	8d 4d f0	 lea	 ecx, DWORD PTR _Name$[ebp]
  0001d	e8 00 00 00 00	 call	 ??0char_ID@@QAE@PAD@Z	; char_ID::char_ID

; 3185 : 	
; 3186 : 	if( gObjIsConnectedGP(lpMsg->Number, Name.GetBuffer()) == FALSE ) 

  00022	8d 4d f0	 lea	 ecx, DWORD PTR _Name$[ebp]
  00025	e8 00 00 00 00	 call	 ?GetBuffer@char_ID@@QAEPADXZ ; char_ID::GetBuffer
  0002a	50		 push	 eax
  0002b	8b 45 08	 mov	 eax, DWORD PTR _lpMsg$[ebp]
  0002e	0f bf 48 04	 movsx	 ecx, WORD PTR [eax+4]
  00032	51		 push	 ecx
  00033	e8 00 00 00 00	 call	 ?gObjIsConnectedGP@@YAHHPAD@Z ; gObjIsConnectedGP
  00038	83 c4 08	 add	 esp, 8
  0003b	85 c0		 test	 eax, eax
  0003d	75 1e		 jne	 SHORT $LN2@FriendRoom

; 3187 : 	{
; 3188 : 		LogAddTD("error-L2 : Index %s %d", __FILE__, __LINE__);

  0003f	a1 00 00 00 00	 mov	 eax, DWORD PTR ?__LINE__Var@?0??FriendRoomInvitationRecv@@YAXPAUFHP_FRIEND_INVITATION_RET@@@Z@4JA
  00044	83 c0 05	 add	 eax, 5
  00047	50		 push	 eax
  00048	68 00 00 00 00	 push	 OFFSET ??_C@_0DO@DMLGFOAA@C?3?2Mu?5Online?2Mu?9GS?9Webzen?9MC?910@
  0004d	68 00 00 00 00	 push	 OFFSET ??_C@_0BH@LCDOHCGD@error?9L2?5?3?5Index?5?$CFs?5?$CFd@
  00052	ff 15 00 00 00
	00		 call	 DWORD PTR ?LogAddTD@@3P6AXPADZZA ; LogAddTD
  00058	83 c4 0c	 add	 esp, 12			; 0000000cH

; 3189 : 		return;

  0005b	eb 57		 jmp	 SHORT $LN1@FriendRoom
$LN2@FriendRoom:

; 3190 : 	}
; 3191 : 
; 3192 : 	PMSG_ROOM_INVITATION_RESULT	pMsg;
; 3193 : 
; 3194 : 
; 3195 : 	pMsg.h.set((LPBYTE)&pMsg, 0xCB, sizeof(pMsg));

  0005d	6a 08		 push	 8
  0005f	68 cb 00 00 00	 push	 203			; 000000cbH
  00064	8d 45 e8	 lea	 eax, DWORD PTR _pMsg$[ebp]
  00067	50		 push	 eax
  00068	8d 4d e8	 lea	 ecx, DWORD PTR _pMsg$[ebp]
  0006b	e8 00 00 00 00	 call	 ?set@PBMSG_HEAD@@QAEXPAEEE@Z ; PBMSG_HEAD::set

; 3196 : 	pMsg.Result		= lpMsg->Result;

  00070	8b 45 08	 mov	 eax, DWORD PTR _lpMsg$[ebp]
  00073	8a 48 03	 mov	 cl, BYTE PTR [eax+3]
  00076	88 4d eb	 mov	 BYTE PTR _pMsg$[ebp+3], cl

; 3197 : 	pMsg.WindowGuid = lpMsg->WindowGuid;

  00079	8b 45 08	 mov	 eax, DWORD PTR _lpMsg$[ebp]
  0007c	8b 48 10	 mov	 ecx, DWORD PTR [eax+16]
  0007f	89 4d ec	 mov	 DWORD PTR _pMsg$[ebp+4], ecx

; 3198 : 
; 3199 : 	DataSend(lpMsg->Number, (LPBYTE)&pMsg, sizeof(pMsg));

  00082	6a 08		 push	 8
  00084	8d 45 e8	 lea	 eax, DWORD PTR _pMsg$[ebp]
  00087	50		 push	 eax
  00088	8b 4d 08	 mov	 ecx, DWORD PTR _lpMsg$[ebp]
  0008b	0f bf 51 04	 movsx	 edx, WORD PTR [ecx+4]
  0008f	52		 push	 edx
  00090	e8 00 00 00 00	 call	 ?DataSend@@YAHHPAEK@Z	; DataSend
  00095	83 c4 0c	 add	 esp, 12			; 0000000cH

; 3200 : 	LogAdd("[%s] Friend Invitation result :%d", Name.GetBuffer(), pMsg.Result);

  00098	0f b6 45 eb	 movzx	 eax, BYTE PTR _pMsg$[ebp+3]
  0009c	50		 push	 eax
  0009d	8d 4d f0	 lea	 ecx, DWORD PTR _Name$[ebp]
  000a0	e8 00 00 00 00	 call	 ?GetBuffer@char_ID@@QAEPADXZ ; char_ID::GetBuffer
  000a5	50		 push	 eax
  000a6	68 00 00 00 00	 push	 OFFSET ??_C@_0CC@LIINHIPA@?$FL?$CFs?$FN?5Friend?5Invitation?5result?5?3@
  000ab	ff 15 00 00 00
	00		 call	 DWORD PTR ?LogAdd@@3P6AXPADZZA ; LogAdd
  000b1	83 c4 0c	 add	 esp, 12			; 0000000cH
$LN1@FriendRoom:

; 3201 : }

  000b4	5f		 pop	 edi
  000b5	5e		 pop	 esi
  000b6	5b		 pop	 ebx
  000b7	8b 4d fc	 mov	 ecx, DWORD PTR __$ArrayPad$[ebp]
  000ba	33 cd		 xor	 ecx, ebp
  000bc	e8 00 00 00 00	 call	 @__security_check_cookie@4
  000c1	8b e5		 mov	 esp, ebp
  000c3	5d		 pop	 ebp
  000c4	c3		 ret	 0
?FriendRoomInvitationRecv@@YAXPAUFHP_FRIEND_INVITATION_RET@@@Z ENDP ; FriendRoomInvitationRecv
_TEXT	ENDS
; Function compile flags: /Odtp /ZI
; File C:\Mu Online\Mu-GS-Webzen-MC-10093\GameServer\EDSProtocol.cpp
;	COMDAT ?FriendChatRoomCreateResult@@YAXPAUFHP_FRIEND_CHATROOM_CREATE_RESULT@@@Z
_TEXT	SEGMENT
_pMsg$ = -52						; size = 36
_Name$ = -16						; size = 11
__$ArrayPad$ = -4					; size = 4
_lpMsg$ = 8						; size = 4
?FriendChatRoomCreateResult@@YAXPAUFHP_FRIEND_CHATROOM_CREATE_RESULT@@@Z PROC ; FriendChatRoomCreateResult, COMDAT

; 2741 : {

  00000	55		 push	 ebp
  00001	8b ec		 mov	 ebp, esp
  00003	83 ec 74	 sub	 esp, 116		; 00000074H
  00006	a1 00 00 00 00	 mov	 eax, DWORD PTR ___security_cookie
  0000b	33 c5		 xor	 eax, ebp
  0000d	89 45 fc	 mov	 DWORD PTR __$ArrayPad$[ebp], eax
  00010	53		 push	 ebx
  00011	56		 push	 esi
  00012	57		 push	 edi

; 2742 :  	char_ID		Name(lpMsg->Name);

  00013	8b 45 08	 mov	 eax, DWORD PTR _lpMsg$[ebp]
  00016	83 c0 06	 add	 eax, 6
  00019	50		 push	 eax
  0001a	8d 4d f0	 lea	 ecx, DWORD PTR _Name$[ebp]
  0001d	e8 00 00 00 00	 call	 ??0char_ID@@QAE@PAD@Z	; char_ID::char_ID

; 2743 : 	
; 2744 : 	if( gObjIsConnectedGP(lpMsg->Number, Name.GetBuffer()) == FALSE ) 

  00022	8d 4d f0	 lea	 ecx, DWORD PTR _Name$[ebp]
  00025	e8 00 00 00 00	 call	 ?GetBuffer@char_ID@@QAEPADXZ ; char_ID::GetBuffer
  0002a	50		 push	 eax
  0002b	8b 45 08	 mov	 eax, DWORD PTR _lpMsg$[ebp]
  0002e	0f bf 48 04	 movsx	 ecx, WORD PTR [eax+4]
  00032	51		 push	 ecx
  00033	e8 00 00 00 00	 call	 ?gObjIsConnectedGP@@YAHHPAD@Z ; gObjIsConnectedGP
  00038	83 c4 08	 add	 esp, 8
  0003b	85 c0		 test	 eax, eax
  0003d	75 2a		 jne	 SHORT $LN2@FriendChat

; 2745 : 	{
; 2746 : 		LogAddTD("error-L2 : Index %s %d (%s)", __FILE__, __LINE__, Name.GetBuffer());

  0003f	8d 4d f0	 lea	 ecx, DWORD PTR _Name$[ebp]
  00042	e8 00 00 00 00	 call	 ?GetBuffer@char_ID@@QAEPADXZ ; char_ID::GetBuffer
  00047	50		 push	 eax
  00048	a1 00 00 00 00	 mov	 eax, DWORD PTR ?__LINE__Var@?0??FriendChatRoomCreateResult@@YAXPAUFHP_FRIEND_CHATROOM_CREATE_RESULT@@@Z@4JA
  0004d	83 c0 05	 add	 eax, 5
  00050	50		 push	 eax
  00051	68 00 00 00 00	 push	 OFFSET ??_C@_0DO@DMLGFOAA@C?3?2Mu?5Online?2Mu?9GS?9Webzen?9MC?910@
  00056	68 00 00 00 00	 push	 OFFSET ??_C@_0BM@JEKCBGDH@error?9L2?5?3?5Index?5?$CFs?5?$CFd?5?$CI?$CFs?$CJ@
  0005b	ff 15 00 00 00
	00		 call	 DWORD PTR ?LogAddTD@@3P6AXPADZZA ; LogAddTD
  00061	83 c4 10	 add	 esp, 16			; 00000010H

; 2747 : 		return;

  00064	e9 ae 00 00 00	 jmp	 $LN1@FriendChat
$LN2@FriendChat:

; 2748 : 	}
; 2749 : 	
; 2750 : 	PMSG_FRIEND_ROOMCREATE_RESULT	pMsg;
; 2751 : 
; 2752 : 	pMsg.h.setE((LPBYTE)&pMsg, 0xCA, sizeof( pMsg ));

  00069	6a 24		 push	 36			; 00000024H
  0006b	68 ca 00 00 00	 push	 202			; 000000caH
  00070	8d 45 cc	 lea	 eax, DWORD PTR _pMsg$[ebp]
  00073	50		 push	 eax
  00074	8d 4d cc	 lea	 ecx, DWORD PTR _pMsg$[ebp]
  00077	e8 00 00 00 00	 call	 ?setE@PBMSG_HEAD@@QAEXPAEEE@Z ; PBMSG_HEAD::setE

; 2753 : 	
; 2754 : 	memcpy(pMsg.ServerIp, lpMsg->ServerIp, 15);

  0007c	6a 0f		 push	 15			; 0000000fH
  0007e	8b 45 08	 mov	 eax, DWORD PTR _lpMsg$[ebp]
  00081	83 c0 1a	 add	 eax, 26			; 0000001aH
  00084	50		 push	 eax
  00085	8d 4d cf	 lea	 ecx, DWORD PTR _pMsg$[ebp+3]
  00088	51		 push	 ecx
  00089	e8 00 00 00 00	 call	 _memcpy
  0008e	83 c4 0c	 add	 esp, 12			; 0000000cH

; 2755 : 	pMsg.RoomNumber = lpMsg->RoomNumber;

  00091	8b 45 08	 mov	 eax, DWORD PTR _lpMsg$[ebp]
  00094	66 8b 48 2a	 mov	 cx, WORD PTR [eax+42]
  00098	66 89 4d de	 mov	 WORD PTR _pMsg$[ebp+18], cx

; 2756 : 	pMsg.Ticket		= lpMsg->Ticket;

  0009c	8b 45 08	 mov	 eax, DWORD PTR _lpMsg$[ebp]
  0009f	8b 48 2c	 mov	 ecx, DWORD PTR [eax+44]
  000a2	89 4d e0	 mov	 DWORD PTR _pMsg$[ebp+20], ecx

; 2757 : 	pMsg.Type		= lpMsg->Type;

  000a5	8b 45 08	 mov	 eax, DWORD PTR _lpMsg$[ebp]
  000a8	8a 48 30	 mov	 cl, BYTE PTR [eax+48]
  000ab	88 4d e4	 mov	 BYTE PTR _pMsg$[ebp+24], cl

; 2758 : 	pMsg.Result		= lpMsg->Result;

  000ae	8b 45 08	 mov	 eax, DWORD PTR _lpMsg$[ebp]
  000b1	8a 48 03	 mov	 cl, BYTE PTR [eax+3]
  000b4	88 4d ef	 mov	 BYTE PTR _pMsg$[ebp+35], cl

; 2759 : 	memcpy(pMsg.Name, lpMsg->FriendName, MAX_IDSTRING);		

  000b7	6a 0a		 push	 10			; 0000000aH
  000b9	8b 45 08	 mov	 eax, DWORD PTR _lpMsg$[ebp]
  000bc	83 c0 10	 add	 eax, 16			; 00000010H
  000bf	50		 push	 eax
  000c0	8d 4d e5	 lea	 ecx, DWORD PTR _pMsg$[ebp+25]
  000c3	51		 push	 ecx
  000c4	e8 00 00 00 00	 call	 _memcpy
  000c9	83 c4 0c	 add	 esp, 12			; 0000000cH

; 2760 : 
; 2761 : 	DataSend(lpMsg->Number, (LPBYTE)&pMsg, sizeof(pMsg));

  000cc	6a 24		 push	 36			; 00000024H
  000ce	8d 45 cc	 lea	 eax, DWORD PTR _pMsg$[ebp]
  000d1	50		 push	 eax
  000d2	8b 4d 08	 mov	 ecx, DWORD PTR _lpMsg$[ebp]
  000d5	0f bf 51 04	 movsx	 edx, WORD PTR [ecx+4]
  000d9	52		 push	 edx
  000da	e8 00 00 00 00	 call	 ?DataSend@@YAHHPAEK@Z	; DataSend
  000df	83 c4 0c	 add	 esp, 12			; 0000000cH

; 2762 : 	LogAdd("[%s] Chatroom create result (%d) ticket:(%d)", gObj[lpMsg->Number].Name, lpMsg->Result, lpMsg->Ticket);

  000e2	8b 45 08	 mov	 eax, DWORD PTR _lpMsg$[ebp]
  000e5	8b 48 2c	 mov	 ecx, DWORD PTR [eax+44]
  000e8	51		 push	 ecx
  000e9	8b 55 08	 mov	 edx, DWORD PTR _lpMsg$[ebp]
  000ec	0f b6 42 03	 movzx	 eax, BYTE PTR [edx+3]
  000f0	50		 push	 eax
  000f1	8b 4d 08	 mov	 ecx, DWORD PTR _lpMsg$[ebp]
  000f4	0f bf 51 04	 movsx	 edx, WORD PTR [ecx+4]
  000f8	69 c2 a0 1b 00
	00		 imul	 eax, edx, 7072
  000fe	8b 0d 00 00 00
	00		 mov	 ecx, DWORD PTR ?gObj@@3PAVOBJECTSTRUCT@@A ; gObj
  00104	8d 54 01 73	 lea	 edx, DWORD PTR [ecx+eax+115]
  00108	52		 push	 edx
  00109	68 00 00 00 00	 push	 OFFSET ??_C@_0CN@LPLKDCJE@?$FL?$CFs?$FN?5Chatroom?5create?5result?5?$CI?$CFd@
  0010e	ff 15 00 00 00
	00		 call	 DWORD PTR ?LogAdd@@3P6AXPADZZA ; LogAdd
  00114	83 c4 10	 add	 esp, 16			; 00000010H
$LN1@FriendChat:

; 2763 : }

  00117	5f		 pop	 edi
  00118	5e		 pop	 esi
  00119	5b		 pop	 ebx
  0011a	8b 4d fc	 mov	 ecx, DWORD PTR __$ArrayPad$[ebp]
  0011d	33 cd		 xor	 ecx, ebp
  0011f	e8 00 00 00 00	 call	 @__security_check_cookie@4
  00124	8b e5		 mov	 esp, ebp
  00126	5d		 pop	 ebp
  00127	c3		 ret	 0
?FriendChatRoomCreateResult@@YAXPAUFHP_FRIEND_CHATROOM_CREATE_RESULT@@@Z ENDP ; FriendChatRoomCreateResult
_TEXT	ENDS
; Function compile flags: /Odtp /ZI
; File C:\Mu Online\Mu-GS-Webzen-MC-10093\GameServer\EDSProtocol.cpp
;	COMDAT ?FriendMemoDelResult@@YAXPAUFHP_FRIEND_MEMO_DEL_RESULT@@@Z
_TEXT	SEGMENT
_pMsg$ = -24						; size = 6
_Name$ = -16						; size = 11
__$ArrayPad$ = -4					; size = 4
_lpMsg$ = 8						; size = 4
?FriendMemoDelResult@@YAXPAUFHP_FRIEND_MEMO_DEL_RESULT@@@Z PROC ; FriendMemoDelResult, COMDAT

; 3138 : {

  00000	55		 push	 ebp
  00001	8b ec		 mov	 ebp, esp
  00003	83 ec 58	 sub	 esp, 88			; 00000058H
  00006	a1 00 00 00 00	 mov	 eax, DWORD PTR ___security_cookie
  0000b	33 c5		 xor	 eax, ebp
  0000d	89 45 fc	 mov	 DWORD PTR __$ArrayPad$[ebp], eax
  00010	53		 push	 ebx
  00011	56		 push	 esi
  00012	57		 push	 edi

; 3139 :  	char_ID		Name(lpMsg->Name);

  00013	8b 45 08	 mov	 eax, DWORD PTR _lpMsg$[ebp]
  00016	83 c0 08	 add	 eax, 8
  00019	50		 push	 eax
  0001a	8d 4d f0	 lea	 ecx, DWORD PTR _Name$[ebp]
  0001d	e8 00 00 00 00	 call	 ??0char_ID@@QAE@PAD@Z	; char_ID::char_ID

; 3140 : 	
; 3141 : 	if( gObjIsConnectedGP(lpMsg->Number, Name.GetBuffer()) == FALSE ) 

  00022	8d 4d f0	 lea	 ecx, DWORD PTR _Name$[ebp]
  00025	e8 00 00 00 00	 call	 ?GetBuffer@char_ID@@QAEPADXZ ; char_ID::GetBuffer
  0002a	50		 push	 eax
  0002b	8b 45 08	 mov	 eax, DWORD PTR _lpMsg$[ebp]
  0002e	0f bf 48 06	 movsx	 ecx, WORD PTR [eax+6]
  00032	51		 push	 ecx
  00033	e8 00 00 00 00	 call	 ?gObjIsConnectedGP@@YAHHPAD@Z ; gObjIsConnectedGP
  00038	83 c4 08	 add	 esp, 8
  0003b	85 c0		 test	 eax, eax
  0003d	75 1e		 jne	 SHORT $LN2@FriendMemo

; 3142 : 	{
; 3143 : 		LogAddTD("error-L2 : Index %s %d", __FILE__, __LINE__);

  0003f	a1 00 00 00 00	 mov	 eax, DWORD PTR ?__LINE__Var@?0??FriendMemoDelResult@@YAXPAUFHP_FRIEND_MEMO_DEL_RESULT@@@Z@4JA
  00044	83 c0 05	 add	 eax, 5
  00047	50		 push	 eax
  00048	68 00 00 00 00	 push	 OFFSET ??_C@_0DO@DMLGFOAA@C?3?2Mu?5Online?2Mu?9GS?9Webzen?9MC?910@
  0004d	68 00 00 00 00	 push	 OFFSET ??_C@_0BH@LCDOHCGD@error?9L2?5?3?5Index?5?$CFs?5?$CFd@
  00052	ff 15 00 00 00
	00		 call	 DWORD PTR ?LogAddTD@@3P6AXPADZZA ; LogAddTD
  00058	83 c4 0c	 add	 esp, 12			; 0000000cH

; 3144 : 		return;

  0005b	eb 64		 jmp	 SHORT $LN1@FriendMemo
$LN2@FriendMemo:

; 3145 : 	}
; 3146 : 	
; 3147 : 	PMSG_FRIEND_MEMO_DEL_RESULT	 pMsg;
; 3148 : 
; 3149 : 	pMsg.h.set((LPBYTE)&pMsg, 0xC8, sizeof(pMsg));

  0005d	6a 06		 push	 6
  0005f	68 c8 00 00 00	 push	 200			; 000000c8H
  00064	8d 45 e8	 lea	 eax, DWORD PTR _pMsg$[ebp]
  00067	50		 push	 eax
  00068	8d 4d e8	 lea	 ecx, DWORD PTR _pMsg$[ebp]
  0006b	e8 00 00 00 00	 call	 ?set@PBMSG_HEAD@@QAEXPAEEE@Z ; PBMSG_HEAD::set

; 3150 : 	pMsg.MemoIndex	= lpMsg->MemoIndex;

  00070	8b 45 08	 mov	 eax, DWORD PTR _lpMsg$[ebp]
  00073	66 8b 48 04	 mov	 cx, WORD PTR [eax+4]
  00077	66 89 4d ec	 mov	 WORD PTR _pMsg$[ebp+4], cx

; 3151 : 	pMsg.Result		= lpMsg->Result;

  0007b	8b 45 08	 mov	 eax, DWORD PTR _lpMsg$[ebp]
  0007e	8a 48 03	 mov	 cl, BYTE PTR [eax+3]
  00081	88 4d eb	 mov	 BYTE PTR _pMsg$[ebp+3], cl

; 3152 : 	
; 3153 : 	DataSend(lpMsg->Number, (LPBYTE)&pMsg, sizeof(pMsg));

  00084	6a 06		 push	 6
  00086	8d 45 e8	 lea	 eax, DWORD PTR _pMsg$[ebp]
  00089	50		 push	 eax
  0008a	8b 4d 08	 mov	 ecx, DWORD PTR _lpMsg$[ebp]
  0008d	0f bf 51 06	 movsx	 edx, WORD PTR [ecx+6]
  00091	52		 push	 edx
  00092	e8 00 00 00 00	 call	 ?DataSend@@YAHHPAEK@Z	; DataSend
  00097	83 c4 0c	 add	 esp, 12			; 0000000cH

; 3154 : 
; 3155 : 	LogAdd("[%s] Friend mail delete request (%d) index:(%d)", Name.GetBuffer(), lpMsg->Result, lpMsg->MemoIndex);

  0009a	8b 45 08	 mov	 eax, DWORD PTR _lpMsg$[ebp]
  0009d	0f b7 48 04	 movzx	 ecx, WORD PTR [eax+4]
  000a1	51		 push	 ecx
  000a2	8b 55 08	 mov	 edx, DWORD PTR _lpMsg$[ebp]
  000a5	0f b6 42 03	 movzx	 eax, BYTE PTR [edx+3]
  000a9	50		 push	 eax
  000aa	8d 4d f0	 lea	 ecx, DWORD PTR _Name$[ebp]
  000ad	e8 00 00 00 00	 call	 ?GetBuffer@char_ID@@QAEPADXZ ; char_ID::GetBuffer
  000b2	50		 push	 eax
  000b3	68 00 00 00 00	 push	 OFFSET ??_C@_0DA@BCDIIKMO@?$FL?$CFs?$FN?5Friend?5mail?5delete?5request@
  000b8	ff 15 00 00 00
	00		 call	 DWORD PTR ?LogAdd@@3P6AXPADZZA ; LogAdd
  000be	83 c4 10	 add	 esp, 16			; 00000010H
$LN1@FriendMemo:

; 3156 : }

  000c1	5f		 pop	 edi
  000c2	5e		 pop	 esi
  000c3	5b		 pop	 ebx
  000c4	8b 4d fc	 mov	 ecx, DWORD PTR __$ArrayPad$[ebp]
  000c7	33 cd		 xor	 ecx, ebp
  000c9	e8 00 00 00 00	 call	 @__security_check_cookie@4
  000ce	8b e5		 mov	 esp, ebp
  000d0	5d		 pop	 ebp
  000d1	c3		 ret	 0
?FriendMemoDelResult@@YAXPAUFHP_FRIEND_MEMO_DEL_RESULT@@@Z ENDP ; FriendMemoDelResult
_TEXT	ENDS
; Function compile flags: /Odtp /ZI
; File C:\Mu Online\Mu-GS-Webzen-MC-10093\GameServer\EDSProtocol.cpp
;	COMDAT ?FriendMemoRead@@YAXPAUFHP_FRIEND_MEMO_RECV@@@Z
_TEXT	SEGMENT
_nsize$ = -1044						; size = 4
_pMsg$ = -1040						; size = 1024
_Name$ = -16						; size = 11
__$ArrayPad$ = -4					; size = 4
_lpMsg$ = 8						; size = 4
?FriendMemoRead@@YAXPAUFHP_FRIEND_MEMO_RECV@@@Z PROC	; FriendMemoRead, COMDAT

; 3070 : {

  00000	55		 push	 ebp
  00001	8b ec		 mov	 ebp, esp
  00003	81 ec d4 04 00
	00		 sub	 esp, 1236		; 000004d4H
  00009	a1 00 00 00 00	 mov	 eax, DWORD PTR ___security_cookie
  0000e	33 c5		 xor	 eax, ebp
  00010	89 45 fc	 mov	 DWORD PTR __$ArrayPad$[ebp], eax
  00013	53		 push	 ebx
  00014	56		 push	 esi
  00015	57		 push	 edi

; 3071 :  	char_ID		Name(lpMsg->Name);

  00016	8b 45 08	 mov	 eax, DWORD PTR _lpMsg$[ebp]
  00019	83 c0 06	 add	 eax, 6
  0001c	50		 push	 eax
  0001d	8d 4d f0	 lea	 ecx, DWORD PTR _Name$[ebp]
  00020	e8 00 00 00 00	 call	 ??0char_ID@@QAE@PAD@Z	; char_ID::char_ID

; 3072 : 	
; 3073 : 	if( gObjIsConnectedGP(lpMsg->Number, Name.GetBuffer()) == FALSE ) 

  00025	8d 4d f0	 lea	 ecx, DWORD PTR _Name$[ebp]
  00028	e8 00 00 00 00	 call	 ?GetBuffer@char_ID@@QAEPADXZ ; char_ID::GetBuffer
  0002d	50		 push	 eax
  0002e	8b 45 08	 mov	 eax, DWORD PTR _lpMsg$[ebp]
  00031	0f bf 48 04	 movsx	 ecx, WORD PTR [eax+4]
  00035	51		 push	 ecx
  00036	e8 00 00 00 00	 call	 ?gObjIsConnectedGP@@YAHHPAD@Z ; gObjIsConnectedGP
  0003b	83 c4 08	 add	 esp, 8
  0003e	85 c0		 test	 eax, eax
  00040	75 21		 jne	 SHORT $LN2@FriendMemo

; 3074 : 	{
; 3075 : 		LogAddTD("error-L2 : Index %s %d", __FILE__, __LINE__);

  00042	a1 00 00 00 00	 mov	 eax, DWORD PTR ?__LINE__Var@?0??FriendMemoRead@@YAXPAUFHP_FRIEND_MEMO_RECV@@@Z@4JA
  00047	83 c0 05	 add	 eax, 5
  0004a	50		 push	 eax
  0004b	68 00 00 00 00	 push	 OFFSET ??_C@_0DO@DMLGFOAA@C?3?2Mu?5Online?2Mu?9GS?9Webzen?9MC?910@
  00050	68 00 00 00 00	 push	 OFFSET ??_C@_0BH@LCDOHCGD@error?9L2?5?3?5Index?5?$CFs?5?$CFd@
  00055	ff 15 00 00 00
	00		 call	 DWORD PTR ?LogAddTD@@3P6AXPADZZA ; LogAddTD
  0005b	83 c4 0c	 add	 esp, 12			; 0000000cH

; 3076 : 		return;

  0005e	e9 21 01 00 00	 jmp	 $LN1@FriendMemo
$LN2@FriendMemo:

; 3077 : 	}
; 3078 : 	
; 3079 : 	PMSG_FRIEND_READ_MEMO	pMsg;
; 3080 : 	int						nsize=sizeof(pMsg)-MAX_MEMO;

  00063	c7 85 ec fb ff
	ff 18 00 00 00	 mov	 DWORD PTR _nsize$[ebp], 24 ; 00000018H

; 3081 : 
; 3082 : 	if( lpMsg->MemoSize > MAX_MEMO )

  0006d	8b 45 08	 mov	 eax, DWORD PTR _lpMsg$[ebp]
  00070	0f bf 48 12	 movsx	 ecx, WORD PTR [eax+18]
  00074	81 f9 e8 03 00
	00		 cmp	 ecx, 1000		; 000003e8H
  0007a	7e 21		 jle	 SHORT $LN3@FriendMemo

; 3083 : 	{
; 3084 : 		LogAddTD("error-L2 : Friend Memo Max %s %d", __FILE__, __LINE__);

  0007c	a1 00 00 00 00	 mov	 eax, DWORD PTR ?__LINE__Var@?0??FriendMemoRead@@YAXPAUFHP_FRIEND_MEMO_RECV@@@Z@4JA
  00081	83 c0 0e	 add	 eax, 14			; 0000000eH
  00084	50		 push	 eax
  00085	68 00 00 00 00	 push	 OFFSET ??_C@_0DO@DMLGFOAA@C?3?2Mu?5Online?2Mu?9GS?9Webzen?9MC?910@
  0008a	68 00 00 00 00	 push	 OFFSET ??_C@_0CB@LDOIFNPP@error?9L2?5?3?5Friend?5Memo?5Max?5?$CFs?5?$CF@
  0008f	ff 15 00 00 00
	00		 call	 DWORD PTR ?LogAddTD@@3P6AXPADZZA ; LogAddTD
  00095	83 c4 0c	 add	 esp, 12			; 0000000cH

; 3085 : 		return;

  00098	e9 e7 00 00 00	 jmp	 $LN1@FriendMemo
$LN3@FriendMemo:

; 3086 : 	}
; 3087 : 	nsize += lpMsg->MemoSize;

  0009d	8b 45 08	 mov	 eax, DWORD PTR _lpMsg$[ebp]
  000a0	0f bf 48 12	 movsx	 ecx, WORD PTR [eax+18]
  000a4	03 8d ec fb ff
	ff		 add	 ecx, DWORD PTR _nsize$[ebp]
  000aa	89 8d ec fb ff
	ff		 mov	 DWORD PTR _nsize$[ebp], ecx

; 3088 : 	pMsg.h.setE((LPBYTE)&pMsg, 0xC7, nsize);

  000b0	8b 85 ec fb ff
	ff		 mov	 eax, DWORD PTR _nsize$[ebp]
  000b6	50		 push	 eax
  000b7	68 c7 00 00 00	 push	 199			; 000000c7H
  000bc	8d 8d f0 fb ff
	ff		 lea	 ecx, DWORD PTR _pMsg$[ebp]
  000c2	51		 push	 ecx
  000c3	8d 8d f0 fb ff
	ff		 lea	 ecx, DWORD PTR _pMsg$[ebp]
  000c9	e8 00 00 00 00	 call	 ?setE@PWMSG_HEAD@@QAEXPAEEH@Z ; PWMSG_HEAD::setE

; 3089 : 	pMsg.MemoIndex	= lpMsg->MemoIndex;

  000ce	8b 45 08	 mov	 eax, DWORD PTR _lpMsg$[ebp]
  000d1	66 8b 48 10	 mov	 cx, WORD PTR [eax+16]
  000d5	66 89 8d f4 fb
	ff ff		 mov	 WORD PTR _pMsg$[ebp+4], cx

; 3090 : 	pMsg.MemoSize	= lpMsg->MemoSize;

  000dc	8b 45 08	 mov	 eax, DWORD PTR _lpMsg$[ebp]
  000df	66 8b 48 12	 mov	 cx, WORD PTR [eax+18]
  000e3	66 89 8d f6 fb
	ff ff		 mov	 WORD PTR _pMsg$[ebp+6], cx

; 3091 : 	pMsg.Dir		= lpMsg->Dir;

  000ea	8b 45 08	 mov	 eax, DWORD PTR _lpMsg$[ebp]
  000ed	8a 48 21	 mov	 cl, BYTE PTR [eax+33]
  000f0	88 8d 05 fc ff
	ff		 mov	 BYTE PTR _pMsg$[ebp+21], cl

; 3092 : 	pMsg.Action		= lpMsg->Action;

  000f6	8b 45 08	 mov	 eax, DWORD PTR _lpMsg$[ebp]
  000f9	8a 48 22	 mov	 cl, BYTE PTR [eax+34]
  000fc	88 8d 06 fc ff
	ff		 mov	 BYTE PTR _pMsg$[ebp+22], cl

; 3093 : 
; 3094 : 
; 3095 : #ifdef ITEM_INDEX_EXTEND_20050706
; 3096 : 	memcpy(pMsg.Photo, lpMsg->Photo, MAX_PREVIEWCHARSET+9);
; 3097 : #else
; 3098 : 	#ifdef DARKLORD_WORK
; 3099 : 	memcpy(pMsg.Photo, lpMsg->Photo, MAX_PREVIEWCHARSET+4);

  00102	6a 0d		 push	 13			; 0000000dH
  00104	8b 45 08	 mov	 eax, DWORD PTR _lpMsg$[ebp]
  00107	83 c0 14	 add	 eax, 20			; 00000014H
  0010a	50		 push	 eax
  0010b	8d 8d f8 fb ff
	ff		 lea	 ecx, DWORD PTR _pMsg$[ebp+8]
  00111	51		 push	 ecx
  00112	e8 00 00 00 00	 call	 _memcpy
  00117	83 c4 0c	 add	 esp, 12			; 0000000cH

; 3100 : 	#else
; 3101 : 	memcpy(pMsg.Photo, lpMsg->Photo, MAX_PREVIEWCHARSET+3);
; 3102 : 	#endif
; 3103 : #endif
; 3104 : 
; 3105 : 	memcpy(pMsg.Memo, lpMsg->Memo, lpMsg->MemoSize);

  0011a	8b 45 08	 mov	 eax, DWORD PTR _lpMsg$[ebp]
  0011d	0f bf 48 12	 movsx	 ecx, WORD PTR [eax+18]
  00121	51		 push	 ecx
  00122	8b 55 08	 mov	 edx, DWORD PTR _lpMsg$[ebp]
  00125	83 c2 23	 add	 edx, 35			; 00000023H
  00128	52		 push	 edx
  00129	8d 85 07 fc ff
	ff		 lea	 eax, DWORD PTR _pMsg$[ebp+23]
  0012f	50		 push	 eax
  00130	e8 00 00 00 00	 call	 _memcpy
  00135	83 c4 0c	 add	 esp, 12			; 0000000cH

; 3106 : 
; 3107 : 	DataSend(lpMsg->Number, (LPBYTE)&pMsg, nsize);

  00138	8b 85 ec fb ff
	ff		 mov	 eax, DWORD PTR _nsize$[ebp]
  0013e	50		 push	 eax
  0013f	8d 8d f0 fb ff
	ff		 lea	 ecx, DWORD PTR _pMsg$[ebp]
  00145	51		 push	 ecx
  00146	8b 55 08	 mov	 edx, DWORD PTR _lpMsg$[ebp]
  00149	0f bf 42 04	 movsx	 eax, WORD PTR [edx+4]
  0014d	50		 push	 eax
  0014e	e8 00 00 00 00	 call	 ?DataSend@@YAHHPAEK@Z	; DataSend
  00153	83 c4 0c	 add	 esp, 12			; 0000000cH

; 3108 : 	
; 3109 : 	LogAdd("[%s] Friend Mail read (%d)", gObj[lpMsg->Number].Name, lpMsg->MemoIndex);

  00156	8b 45 08	 mov	 eax, DWORD PTR _lpMsg$[ebp]
  00159	0f b7 48 10	 movzx	 ecx, WORD PTR [eax+16]
  0015d	51		 push	 ecx
  0015e	8b 55 08	 mov	 edx, DWORD PTR _lpMsg$[ebp]
  00161	0f bf 42 04	 movsx	 eax, WORD PTR [edx+4]
  00165	69 c8 a0 1b 00
	00		 imul	 ecx, eax, 7072
  0016b	8b 15 00 00 00
	00		 mov	 edx, DWORD PTR ?gObj@@3PAVOBJECTSTRUCT@@A ; gObj
  00171	8d 44 0a 73	 lea	 eax, DWORD PTR [edx+ecx+115]
  00175	50		 push	 eax
  00176	68 00 00 00 00	 push	 OFFSET ??_C@_0BL@NKLNIHDF@?$FL?$CFs?$FN?5Friend?5Mail?5read?5?$CI?$CFd?$CJ@
  0017b	ff 15 00 00 00
	00		 call	 DWORD PTR ?LogAdd@@3P6AXPADZZA ; LogAdd
  00181	83 c4 0c	 add	 esp, 12			; 0000000cH
$LN1@FriendMemo:

; 3110 : }

  00184	5f		 pop	 edi
  00185	5e		 pop	 esi
  00186	5b		 pop	 ebx
  00187	8b 4d fc	 mov	 ecx, DWORD PTR __$ArrayPad$[ebp]
  0018a	33 cd		 xor	 ecx, ebp
  0018c	e8 00 00 00 00	 call	 @__security_check_cookie@4
  00191	8b e5		 mov	 esp, ebp
  00193	5d		 pop	 ebp
  00194	c3		 ret	 0
?FriendMemoRead@@YAXPAUFHP_FRIEND_MEMO_RECV@@@Z ENDP	; FriendMemoRead
_TEXT	ENDS
; Function compile flags: /Odtp /ZI
; File C:\Mu Online\Mu-GS-Webzen-MC-10093\GameServer\EDSProtocol.cpp
;	COMDAT ?FriendMemoSendResult@@YAXPAUFHP_FRIEND_MEMO_SEND_RESULT@@@Z
_TEXT	SEGMENT
_pMsg$ = -24						; size = 8
_Name$ = -16						; size = 11
__$ArrayPad$ = -4					; size = 4
_lpMsg$ = 8						; size = 4
?FriendMemoSendResult@@YAXPAUFHP_FRIEND_MEMO_SEND_RESULT@@@Z PROC ; FriendMemoSendResult, COMDAT

; 2950 : {

  00000	55		 push	 ebp
  00001	8b ec		 mov	 ebp, esp
  00003	83 ec 58	 sub	 esp, 88			; 00000058H
  00006	a1 00 00 00 00	 mov	 eax, DWORD PTR ___security_cookie
  0000b	33 c5		 xor	 eax, ebp
  0000d	89 45 fc	 mov	 DWORD PTR __$ArrayPad$[ebp], eax
  00010	53		 push	 ebx
  00011	56		 push	 esi
  00012	57		 push	 edi

; 2951 :  	char_ID		Name(lpMsg->Name);

  00013	8b 45 08	 mov	 eax, DWORD PTR _lpMsg$[ebp]
  00016	83 c0 06	 add	 eax, 6
  00019	50		 push	 eax
  0001a	8d 4d f0	 lea	 ecx, DWORD PTR _Name$[ebp]
  0001d	e8 00 00 00 00	 call	 ??0char_ID@@QAE@PAD@Z	; char_ID::char_ID

; 2952 : 
; 2953 : #ifdef ADD_MANAGER_SENDMAIL
; 2954 : 	if( !strcmp(Name.GetBuffer(), "webzen") )

  00022	68 00 00 00 00	 push	 OFFSET ??_C@_06EBHHHLPK@webzen@
  00027	8d 4d f0	 lea	 ecx, DWORD PTR _Name$[ebp]
  0002a	e8 00 00 00 00	 call	 ?GetBuffer@char_ID@@QAEPADXZ ; char_ID::GetBuffer
  0002f	50		 push	 eax
  00030	e8 00 00 00 00	 call	 _strcmp
  00035	83 c4 08	 add	 esp, 8
  00038	85 c0		 test	 eax, eax
  0003a	75 1b		 jne	 SHORT $LN2@FriendMemo

; 2955 : 	{
; 2956 : 		LogAdd("JoinServer Send Mail result : (%d)", lpMsg->Result);

  0003c	8b 45 08	 mov	 eax, DWORD PTR _lpMsg$[ebp]
  0003f	0f b6 48 10	 movzx	 ecx, BYTE PTR [eax+16]
  00043	51		 push	 ecx
  00044	68 00 00 00 00	 push	 OFFSET ??_C@_0CD@EFIPOPHK@JoinServer?5Send?5Mail?5result?5?3?5?$CI@
  00049	ff 15 00 00 00
	00		 call	 DWORD PTR ?LogAdd@@3P6AXPADZZA ; LogAdd
  0004f	83 c4 08	 add	 esp, 8

; 2957 : 		return;

  00052	e9 dd 00 00 00	 jmp	 $LN1@FriendMemo
$LN2@FriendMemo:

; 2958 : 	}
; 2959 : #endif
; 2960 : 	
; 2961 : 	if( gObjIsConnectedGP(lpMsg->Number, Name.GetBuffer()) == FALSE ) 

  00057	8d 4d f0	 lea	 ecx, DWORD PTR _Name$[ebp]
  0005a	e8 00 00 00 00	 call	 ?GetBuffer@char_ID@@QAEPADXZ ; char_ID::GetBuffer
  0005f	50		 push	 eax
  00060	8b 45 08	 mov	 eax, DWORD PTR _lpMsg$[ebp]
  00063	0f bf 48 04	 movsx	 ecx, WORD PTR [eax+4]
  00067	51		 push	 ecx
  00068	e8 00 00 00 00	 call	 ?gObjIsConnectedGP@@YAHHPAD@Z ; gObjIsConnectedGP
  0006d	83 c4 08	 add	 esp, 8
  00070	85 c0		 test	 eax, eax
  00072	75 21		 jne	 SHORT $LN3@FriendMemo

; 2962 : 	{
; 2963 : 		LogAddTD("error-L2 : Index %s %d", __FILE__, __LINE__);

  00074	a1 00 00 00 00	 mov	 eax, DWORD PTR ?__LINE__Var@?0??FriendMemoSendResult@@YAXPAUFHP_FRIEND_MEMO_SEND_RESULT@@@Z@4JA
  00079	83 c0 0d	 add	 eax, 13			; 0000000dH
  0007c	50		 push	 eax
  0007d	68 00 00 00 00	 push	 OFFSET ??_C@_0DO@DMLGFOAA@C?3?2Mu?5Online?2Mu?9GS?9Webzen?9MC?910@
  00082	68 00 00 00 00	 push	 OFFSET ??_C@_0BH@LCDOHCGD@error?9L2?5?3?5Index?5?$CFs?5?$CFd@
  00087	ff 15 00 00 00
	00		 call	 DWORD PTR ?LogAddTD@@3P6AXPADZZA ; LogAddTD
  0008d	83 c4 0c	 add	 esp, 12			; 0000000cH

; 2964 : 		return;

  00090	e9 9f 00 00 00	 jmp	 $LN1@FriendMemo
$LN3@FriendMemo:

; 2965 : 	}	
; 2966 : 	
; 2967 : 	PMSG_FRIEND_MEMO_RESULT pMsg;
; 2968 : 
; 2969 : 	pMsg.h.set((LPBYTE)&pMsg, 0xC5, sizeof(pMsg));

  00095	6a 08		 push	 8
  00097	68 c5 00 00 00	 push	 197			; 000000c5H
  0009c	8d 45 e8	 lea	 eax, DWORD PTR _pMsg$[ebp]
  0009f	50		 push	 eax
  000a0	8d 4d e8	 lea	 ecx, DWORD PTR _pMsg$[ebp]
  000a3	e8 00 00 00 00	 call	 ?set@PBMSG_HEAD@@QAEXPAEEE@Z ; PBMSG_HEAD::set

; 2970 : 	pMsg.Result		= lpMsg->Result;

  000a8	8b 45 08	 mov	 eax, DWORD PTR _lpMsg$[ebp]
  000ab	8a 48 10	 mov	 cl, BYTE PTR [eax+16]
  000ae	88 4d eb	 mov	 BYTE PTR _pMsg$[ebp+3], cl

; 2971 : 	pMsg.WindowGuid = lpMsg->WindowGuid;

  000b1	8b 45 08	 mov	 eax, DWORD PTR _lpMsg$[ebp]
  000b4	8b 48 14	 mov	 ecx, DWORD PTR [eax+20]
  000b7	89 4d ec	 mov	 DWORD PTR _pMsg$[ebp+4], ecx

; 2972 : 	
; 2973 : 	DataSend(lpMsg->Number, (LPBYTE)&pMsg, sizeof(pMsg));

  000ba	6a 08		 push	 8
  000bc	8d 45 e8	 lea	 eax, DWORD PTR _pMsg$[ebp]
  000bf	50		 push	 eax
  000c0	8b 4d 08	 mov	 ecx, DWORD PTR _lpMsg$[ebp]
  000c3	0f bf 51 04	 movsx	 edx, WORD PTR [ecx+4]
  000c7	52		 push	 edx
  000c8	e8 00 00 00 00	 call	 ?DataSend@@YAHHPAEK@Z	; DataSend
  000cd	83 c4 0c	 add	 esp, 12			; 0000000cH

; 2974 : 
; 2975 : 	LogAdd("[%s] Friend mail Send result : (%d) guid:(%d)", gObj[lpMsg->Number].Name, lpMsg->Result, lpMsg->WindowGuid);

  000d0	8b 45 08	 mov	 eax, DWORD PTR _lpMsg$[ebp]
  000d3	8b 48 14	 mov	 ecx, DWORD PTR [eax+20]
  000d6	51		 push	 ecx
  000d7	8b 55 08	 mov	 edx, DWORD PTR _lpMsg$[ebp]
  000da	0f b6 42 10	 movzx	 eax, BYTE PTR [edx+16]
  000de	50		 push	 eax
  000df	8b 4d 08	 mov	 ecx, DWORD PTR _lpMsg$[ebp]
  000e2	0f bf 51 04	 movsx	 edx, WORD PTR [ecx+4]
  000e6	69 c2 a0 1b 00
	00		 imul	 eax, edx, 7072
  000ec	8b 0d 00 00 00
	00		 mov	 ecx, DWORD PTR ?gObj@@3PAVOBJECTSTRUCT@@A ; gObj
  000f2	8d 54 01 73	 lea	 edx, DWORD PTR [ecx+eax+115]
  000f6	52		 push	 edx
  000f7	68 00 00 00 00	 push	 OFFSET ??_C@_0CO@FGOJBJPG@?$FL?$CFs?$FN?5Friend?5mail?5Send?5result?5?3?5@
  000fc	ff 15 00 00 00
	00		 call	 DWORD PTR ?LogAdd@@3P6AXPADZZA ; LogAdd
  00102	83 c4 10	 add	 esp, 16			; 00000010H

; 2976 : 	
; 2977 : 	// 편지가 성공적으로 보내졌다면.. 1000 젠의 사용료를 받는다.
; 2978 : 	if( pMsg.Result == 0x01 )

  00105	0f b6 45 eb	 movzx	 eax, BYTE PTR _pMsg$[ebp+3]
  00109	83 f8 01	 cmp	 eax, 1
  0010c	75 26		 jne	 SHORT $LN1@FriendMemo

; 2979 : 	{
; 2980 : 		WithdrawUserMoney("Mail", &gObj[lpMsg->Number], 1000);

  0010e	68 e8 03 00 00	 push	 1000			; 000003e8H
  00113	8b 45 08	 mov	 eax, DWORD PTR _lpMsg$[ebp]
  00116	0f bf 48 04	 movsx	 ecx, WORD PTR [eax+4]
  0011a	69 d1 a0 1b 00
	00		 imul	 edx, ecx, 7072
  00120	03 15 00 00 00
	00		 add	 edx, DWORD PTR ?gObj@@3PAVOBJECTSTRUCT@@A ; gObj
  00126	52		 push	 edx
  00127	68 00 00 00 00	 push	 OFFSET ??_C@_04JEGKNAHI@Mail@
  0012c	e8 00 00 00 00	 call	 ?WithdrawUserMoney@@YAHPADPAVOBJECTSTRUCT@@H@Z ; WithdrawUserMoney
  00131	83 c4 0c	 add	 esp, 12			; 0000000cH
$LN1@FriendMemo:

; 2981 : 	}
; 2982 : 
; 2983 : }

  00134	5f		 pop	 edi
  00135	5e		 pop	 esi
  00136	5b		 pop	 ebx
  00137	8b 4d fc	 mov	 ecx, DWORD PTR __$ArrayPad$[ebp]
  0013a	33 cd		 xor	 ecx, ebp
  0013c	e8 00 00 00 00	 call	 @__security_check_cookie@4
  00141	8b e5		 mov	 esp, ebp
  00143	5d		 pop	 ebp
  00144	c3		 ret	 0
?FriendMemoSendResult@@YAXPAUFHP_FRIEND_MEMO_SEND_RESULT@@@Z ENDP ; FriendMemoSendResult
_TEXT	ENDS
; Function compile flags: /Odtp /ZI
; File C:\Mu Online\Mu-GS-Webzen-MC-10093\GameServer\EDSProtocol.cpp
;	COMDAT ?FriendMemoList@@YAXPAUFHP_FRIEND_MEMO_LIST@@@Z
_TEXT	SEGMENT
_pMsg$ = -180						; size = 80
_date$ = -100						; size = 31
_subject$ = -68						; size = 33
_memoindex$ = -32					; size = 4
_RecvName$ = -28					; size = 11
_SendName$ = -16					; size = 11
__$ArrayPad$ = -4					; size = 4
_lpMsg$ = 8						; size = 4
?FriendMemoList@@YAXPAUFHP_FRIEND_MEMO_LIST@@@Z PROC	; FriendMemoList, COMDAT

; 3012 : {

  00000	55		 push	 ebp
  00001	8b ec		 mov	 ebp, esp
  00003	81 ec f4 00 00
	00		 sub	 esp, 244		; 000000f4H
  00009	a1 00 00 00 00	 mov	 eax, DWORD PTR ___security_cookie
  0000e	33 c5		 xor	 eax, ebp
  00010	89 45 fc	 mov	 DWORD PTR __$ArrayPad$[ebp], eax
  00013	53		 push	 ebx
  00014	56		 push	 esi
  00015	57		 push	 edi

; 3013 :  	char_ID		SendName(lpMsg->SendName);

  00016	8b 45 08	 mov	 eax, DWORD PTR _lpMsg$[ebp]
  00019	83 c0 08	 add	 eax, 8
  0001c	50		 push	 eax
  0001d	8d 4d f0	 lea	 ecx, DWORD PTR _SendName$[ebp]
  00020	e8 00 00 00 00	 call	 ??0char_ID@@QAE@PAD@Z	; char_ID::char_ID

; 3014 : 	char_ID		RecvName(lpMsg->RecvName);

  00025	8b 45 08	 mov	 eax, DWORD PTR _lpMsg$[ebp]
  00028	83 c0 12	 add	 eax, 18			; 00000012H
  0002b	50		 push	 eax
  0002c	8d 4d e4	 lea	 ecx, DWORD PTR _RecvName$[ebp]
  0002f	e8 00 00 00 00	 call	 ??0char_ID@@QAE@PAD@Z	; char_ID::char_ID

; 3015 : 	
; 3016 : 	if( gObjIsConnectedGP(lpMsg->Number, RecvName.GetBuffer()) == FALSE ) 

  00034	8d 4d e4	 lea	 ecx, DWORD PTR _RecvName$[ebp]
  00037	e8 00 00 00 00	 call	 ?GetBuffer@char_ID@@QAEPADXZ ; char_ID::GetBuffer
  0003c	50		 push	 eax
  0003d	8b 45 08	 mov	 eax, DWORD PTR _lpMsg$[ebp]
  00040	0f b7 48 04	 movzx	 ecx, WORD PTR [eax+4]
  00044	51		 push	 ecx
  00045	e8 00 00 00 00	 call	 ?gObjIsConnectedGP@@YAHHPAD@Z ; gObjIsConnectedGP
  0004a	83 c4 08	 add	 esp, 8
  0004d	85 c0		 test	 eax, eax
  0004f	75 21		 jne	 SHORT $LN2@FriendMemo

; 3017 : 	{
; 3018 : 		LogAddTD("error-L2 : Index %s %d", __FILE__, __LINE__);

  00051	a1 00 00 00 00	 mov	 eax, DWORD PTR ?__LINE__Var@?0??FriendMemoList@@YAXPAUFHP_FRIEND_MEMO_LIST@@@Z@4JA
  00056	83 c0 06	 add	 eax, 6
  00059	50		 push	 eax
  0005a	68 00 00 00 00	 push	 OFFSET ??_C@_0DO@DMLGFOAA@C?3?2Mu?5Online?2Mu?9GS?9Webzen?9MC?910@
  0005f	68 00 00 00 00	 push	 OFFSET ??_C@_0BH@LCDOHCGD@error?9L2?5?3?5Index?5?$CFs?5?$CFd@
  00064	ff 15 00 00 00
	00		 call	 DWORD PTR ?LogAddTD@@3P6AXPADZZA ; LogAddTD
  0006a	83 c4 0c	 add	 esp, 12			; 0000000cH

; 3019 : 		return;

  0006d	e9 33 01 00 00	 jmp	 $LN1@FriendMemo
$LN2@FriendMemo:

; 3020 : 	}
; 3021 : 	
; 3022 : 	int  memoindex;
; 3023 : 	char subject[MAX_MEMO_SUBJECT+1]="";

  00072	a0 00 00 00 00	 mov	 al, BYTE PTR ??_C@_00CNPNBAHC@@
  00077	88 45 bc	 mov	 BYTE PTR _subject$[ebp], al
  0007a	33 c0		 xor	 eax, eax
  0007c	89 45 bd	 mov	 DWORD PTR _subject$[ebp+1], eax
  0007f	89 45 c1	 mov	 DWORD PTR _subject$[ebp+5], eax
  00082	89 45 c5	 mov	 DWORD PTR _subject$[ebp+9], eax
  00085	89 45 c9	 mov	 DWORD PTR _subject$[ebp+13], eax
  00088	89 45 cd	 mov	 DWORD PTR _subject$[ebp+17], eax
  0008b	89 45 d1	 mov	 DWORD PTR _subject$[ebp+21], eax
  0008e	89 45 d5	 mov	 DWORD PTR _subject$[ebp+25], eax
  00091	89 45 d9	 mov	 DWORD PTR _subject$[ebp+29], eax

; 3024 : 	char date[MAX_DATE+1]="";

  00094	a0 00 00 00 00	 mov	 al, BYTE PTR ??_C@_00CNPNBAHC@@
  00099	88 45 9c	 mov	 BYTE PTR _date$[ebp], al
  0009c	33 c0		 xor	 eax, eax
  0009e	89 45 9d	 mov	 DWORD PTR _date$[ebp+1], eax
  000a1	89 45 a1	 mov	 DWORD PTR _date$[ebp+5], eax
  000a4	89 45 a5	 mov	 DWORD PTR _date$[ebp+9], eax
  000a7	89 45 a9	 mov	 DWORD PTR _date$[ebp+13], eax
  000aa	89 45 ad	 mov	 DWORD PTR _date$[ebp+17], eax
  000ad	89 45 b1	 mov	 DWORD PTR _date$[ebp+21], eax
  000b0	89 45 b5	 mov	 DWORD PTR _date$[ebp+25], eax
  000b3	66 89 45 b9	 mov	 WORD PTR _date$[ebp+29], ax

; 3025 : 
; 3026 : 	PMSG_FRIEND_MEMO_LIST pMsg;
; 3027 : 
; 3028 : 	memoindex	  = lpMsg->MemoIndex;

  000b7	8b 45 08	 mov	 eax, DWORD PTR _lpMsg$[ebp]
  000ba	0f b7 48 06	 movzx	 ecx, WORD PTR [eax+6]
  000be	89 4d e0	 mov	 DWORD PTR _memoindex$[ebp], ecx

; 3029 : 	memcpy(subject, lpMsg->Subject, MAX_MEMO_SUBJECT);

  000c1	6a 20		 push	 32			; 00000020H
  000c3	8b 45 08	 mov	 eax, DWORD PTR _lpMsg$[ebp]
  000c6	83 c0 3a	 add	 eax, 58			; 0000003aH
  000c9	50		 push	 eax
  000ca	8d 4d bc	 lea	 ecx, DWORD PTR _subject$[ebp]
  000cd	51		 push	 ecx
  000ce	e8 00 00 00 00	 call	 _memcpy
  000d3	83 c4 0c	 add	 esp, 12			; 0000000cH

; 3030 : 	memcpy(date, lpMsg->Date, MAX_DATE);

  000d6	6a 1e		 push	 30			; 0000001eH
  000d8	8b 45 08	 mov	 eax, DWORD PTR _lpMsg$[ebp]
  000db	83 c0 1c	 add	 eax, 28			; 0000001cH
  000de	50		 push	 eax
  000df	8d 4d 9c	 lea	 ecx, DWORD PTR _date$[ebp]
  000e2	51		 push	 ecx
  000e3	e8 00 00 00 00	 call	 _memcpy
  000e8	83 c4 0c	 add	 esp, 12			; 0000000cH

; 3031 : 
; 3032 : 	pMsg.h.setE((LPBYTE)&pMsg, 0xC6, sizeof(pMsg));

  000eb	6a 50		 push	 80			; 00000050H
  000ed	68 c6 00 00 00	 push	 198			; 000000c6H
  000f2	8d 85 4c ff ff
	ff		 lea	 eax, DWORD PTR _pMsg$[ebp]
  000f8	50		 push	 eax
  000f9	8d 8d 4c ff ff
	ff		 lea	 ecx, DWORD PTR _pMsg$[ebp]
  000ff	e8 00 00 00 00	 call	 ?setE@PBMSG_HEAD@@QAEXPAEEE@Z ; PBMSG_HEAD::setE

; 3033 : 	memcpy(pMsg.Date, lpMsg->Date, MAX_DATE);

  00104	6a 1e		 push	 30			; 0000001eH
  00106	8b 45 08	 mov	 eax, DWORD PTR _lpMsg$[ebp]
  00109	83 c0 1c	 add	 eax, 28			; 0000001cH
  0010c	50		 push	 eax
  0010d	8d 8d 5c ff ff
	ff		 lea	 ecx, DWORD PTR _pMsg$[ebp+16]
  00113	51		 push	 ecx
  00114	e8 00 00 00 00	 call	 _memcpy
  00119	83 c4 0c	 add	 esp, 12			; 0000000cH

; 3034 : 	memcpy(pMsg.Name, lpMsg->SendName, MAX_IDSTRING);

  0011c	6a 0a		 push	 10			; 0000000aH
  0011e	8b 45 08	 mov	 eax, DWORD PTR _lpMsg$[ebp]
  00121	83 c0 08	 add	 eax, 8
  00124	50		 push	 eax
  00125	8d 8d 52 ff ff
	ff		 lea	 ecx, DWORD PTR _pMsg$[ebp+6]
  0012b	51		 push	 ecx
  0012c	e8 00 00 00 00	 call	 _memcpy
  00131	83 c4 0c	 add	 esp, 12			; 0000000cH

; 3035 : 	memcpy(pMsg.Subject, lpMsg->Subject, MAX_MEMO_SUBJECT);

  00134	6a 20		 push	 32			; 00000020H
  00136	8b 45 08	 mov	 eax, DWORD PTR _lpMsg$[ebp]
  00139	83 c0 3a	 add	 eax, 58			; 0000003aH
  0013c	50		 push	 eax
  0013d	8d 8d 7a ff ff
	ff		 lea	 ecx, DWORD PTR _pMsg$[ebp+46]
  00143	51		 push	 ecx
  00144	e8 00 00 00 00	 call	 _memcpy
  00149	83 c4 0c	 add	 esp, 12			; 0000000cH

; 3036 : 	pMsg.Number = memoindex;

  0014c	66 8b 45 e0	 mov	 ax, WORD PTR _memoindex$[ebp]
  00150	66 89 85 50 ff
	ff ff		 mov	 WORD PTR _pMsg$[ebp+4], ax

; 3037 : 	pMsg.read   = lpMsg->read;

  00157	8b 45 08	 mov	 eax, DWORD PTR _lpMsg$[ebp]
  0015a	8a 48 5a	 mov	 cl, BYTE PTR [eax+90]
  0015d	88 4d 9a	 mov	 BYTE PTR _pMsg$[ebp+78], cl

; 3038 : 
; 3039 : 	DataSend(lpMsg->Number, (LPBYTE)&pMsg, sizeof(pMsg));

  00160	6a 50		 push	 80			; 00000050H
  00162	8d 85 4c ff ff
	ff		 lea	 eax, DWORD PTR _pMsg$[ebp]
  00168	50		 push	 eax
  00169	8b 4d 08	 mov	 ecx, DWORD PTR _lpMsg$[ebp]
  0016c	0f b7 51 04	 movzx	 edx, WORD PTR [ecx+4]
  00170	52		 push	 edx
  00171	e8 00 00 00 00	 call	 ?DataSend@@YAHHPAEK@Z	; DataSend
  00176	83 c4 0c	 add	 esp, 12			; 0000000cH

; 3040 : 
; 3041 : 	LogAdd("[%s] Friend Mail list : (%d:%10s:%s:%s)", SendName.GetBuffer(), memoindex, date, RecvName.GetBuffer(), subject );

  00179	8d 45 bc	 lea	 eax, DWORD PTR _subject$[ebp]
  0017c	50		 push	 eax
  0017d	8d 4d e4	 lea	 ecx, DWORD PTR _RecvName$[ebp]
  00180	e8 00 00 00 00	 call	 ?GetBuffer@char_ID@@QAEPADXZ ; char_ID::GetBuffer
  00185	50		 push	 eax
  00186	8d 4d 9c	 lea	 ecx, DWORD PTR _date$[ebp]
  00189	51		 push	 ecx
  0018a	8b 55 e0	 mov	 edx, DWORD PTR _memoindex$[ebp]
  0018d	52		 push	 edx
  0018e	8d 4d f0	 lea	 ecx, DWORD PTR _SendName$[ebp]
  00191	e8 00 00 00 00	 call	 ?GetBuffer@char_ID@@QAEPADXZ ; char_ID::GetBuffer
  00196	50		 push	 eax
  00197	68 00 00 00 00	 push	 OFFSET ??_C@_0CI@INBOEHDN@?$FL?$CFs?$FN?5Friend?5Mail?5list?5?3?5?$CI?$CFd?3?$CF10@
  0019c	ff 15 00 00 00
	00		 call	 DWORD PTR ?LogAdd@@3P6AXPADZZA ; LogAdd
  001a2	83 c4 18	 add	 esp, 24			; 00000018H
$LN1@FriendMemo:

; 3042 : }

  001a5	5f		 pop	 edi
  001a6	5e		 pop	 esi
  001a7	5b		 pop	 ebx
  001a8	8b 4d fc	 mov	 ecx, DWORD PTR __$ArrayPad$[ebp]
  001ab	33 cd		 xor	 ecx, ebp
  001ad	e8 00 00 00 00	 call	 @__security_check_cookie@4
  001b2	8b e5		 mov	 esp, ebp
  001b4	5d		 pop	 ebp
  001b5	c3		 ret	 0
?FriendMemoList@@YAXPAUFHP_FRIEND_MEMO_LIST@@@Z ENDP	; FriendMemoList
_TEXT	ENDS
; Function compile flags: /Odtp /ZI
; File C:\Mu Online\Mu-GS-Webzen-MC-10093\GameServer\EDSProtocol.cpp
;	COMDAT ?WaitFriendAddResult@@YAXPAUFHP_WAITFRIEND_ADD_RESULT@@@Z
_TEXT	SEGMENT
_FriendName$ = -44					; size = 11
_pMsg$ = -32						; size = 15
_Name$ = -16						; size = 11
__$ArrayPad$ = -4					; size = 4
_lpMsg$ = 8						; size = 4
?WaitFriendAddResult@@YAXPAUFHP_WAITFRIEND_ADD_RESULT@@@Z PROC ; WaitFriendAddResult, COMDAT

; 2644 : {	

  00000	55		 push	 ebp
  00001	8b ec		 mov	 ebp, esp
  00003	83 ec 6c	 sub	 esp, 108		; 0000006cH
  00006	a1 00 00 00 00	 mov	 eax, DWORD PTR ___security_cookie
  0000b	33 c5		 xor	 eax, ebp
  0000d	89 45 fc	 mov	 DWORD PTR __$ArrayPad$[ebp], eax
  00010	53		 push	 ebx
  00011	56		 push	 esi
  00012	57		 push	 edi

; 2645 :  	char_ID		Name(lpMsg->Name);

  00013	8b 45 08	 mov	 eax, DWORD PTR _lpMsg$[ebp]
  00016	83 c0 07	 add	 eax, 7
  00019	50		 push	 eax
  0001a	8d 4d f0	 lea	 ecx, DWORD PTR _Name$[ebp]
  0001d	e8 00 00 00 00	 call	 ??0char_ID@@QAE@PAD@Z	; char_ID::char_ID

; 2646 : 	
; 2647 : 	if( gObjIsConnectedGP(lpMsg->Number, Name.GetBuffer()) == FALSE ) 

  00022	8d 4d f0	 lea	 ecx, DWORD PTR _Name$[ebp]
  00025	e8 00 00 00 00	 call	 ?GetBuffer@char_ID@@QAEPADXZ ; char_ID::GetBuffer
  0002a	50		 push	 eax
  0002b	8b 45 08	 mov	 eax, DWORD PTR _lpMsg$[ebp]
  0002e	0f bf 48 04	 movsx	 ecx, WORD PTR [eax+4]
  00032	51		 push	 ecx
  00033	e8 00 00 00 00	 call	 ?gObjIsConnectedGP@@YAHHPAD@Z ; gObjIsConnectedGP
  00038	83 c4 08	 add	 esp, 8
  0003b	85 c0		 test	 eax, eax
  0003d	75 21		 jne	 SHORT $LN2@WaitFriend

; 2648 : 	{
; 2649 : 		LogAddTD("error-L2 : Index %s %d", __FILE__, __LINE__);

  0003f	a1 00 00 00 00	 mov	 eax, DWORD PTR ?__LINE__Var@?0??WaitFriendAddResult@@YAXPAUFHP_WAITFRIEND_ADD_RESULT@@@Z@4JA
  00044	83 c0 05	 add	 eax, 5
  00047	50		 push	 eax
  00048	68 00 00 00 00	 push	 OFFSET ??_C@_0DO@DMLGFOAA@C?3?2Mu?5Online?2Mu?9GS?9Webzen?9MC?910@
  0004d	68 00 00 00 00	 push	 OFFSET ??_C@_0BH@LCDOHCGD@error?9L2?5?3?5Index?5?$CFs?5?$CFd@
  00052	ff 15 00 00 00
	00		 call	 DWORD PTR ?LogAddTD@@3P6AXPADZZA ; LogAddTD
  00058	83 c4 0c	 add	 esp, 12			; 0000000cH

; 2650 : 		return;

  0005b	e9 87 00 00 00	 jmp	 $LN1@WaitFriend
$LN2@WaitFriend:

; 2651 : 	}
; 2652 : 
; 2653 : 	PMSG_FRIEND_ADD_RESULT	pMsg;
; 2654 : 	
; 2655 : 	pMsg.h.set((LPBYTE)&pMsg, 0xC1, sizeof(pMsg));

  00060	6a 0f		 push	 15			; 0000000fH
  00062	68 c1 00 00 00	 push	 193			; 000000c1H
  00067	8d 45 e0	 lea	 eax, DWORD PTR _pMsg$[ebp]
  0006a	50		 push	 eax
  0006b	8d 4d e0	 lea	 ecx, DWORD PTR _pMsg$[ebp]
  0006e	e8 00 00 00 00	 call	 ?set@PBMSG_HEAD@@QAEXPAEEE@Z ; PBMSG_HEAD::set

; 2656 : 	memcpy( pMsg.Name, lpMsg->FriendName, MAX_IDSTRING);

  00073	6a 0a		 push	 10			; 0000000aH
  00075	8b 45 08	 mov	 eax, DWORD PTR _lpMsg$[ebp]
  00078	83 c0 11	 add	 eax, 17			; 00000011H
  0007b	50		 push	 eax
  0007c	8d 4d e4	 lea	 ecx, DWORD PTR _pMsg$[ebp+4]
  0007f	51		 push	 ecx
  00080	e8 00 00 00 00	 call	 _memcpy
  00085	83 c4 0c	 add	 esp, 12			; 0000000cH

; 2657 : 	
; 2658 : 	pMsg.Result = lpMsg->Result;

  00088	8b 45 08	 mov	 eax, DWORD PTR _lpMsg$[ebp]
  0008b	8a 48 06	 mov	 cl, BYTE PTR [eax+6]
  0008e	88 4d e3	 mov	 BYTE PTR _pMsg$[ebp+3], cl

; 2659 : 	pMsg.State = lpMsg->pServer;

  00091	8b 45 08	 mov	 eax, DWORD PTR _lpMsg$[ebp]
  00094	8a 48 1b	 mov	 cl, BYTE PTR [eax+27]
  00097	88 4d ee	 mov	 BYTE PTR _pMsg$[ebp+14], cl

; 2660 : 
; 2661 : 	char_ID FriendName(lpMsg->FriendName);

  0009a	8b 45 08	 mov	 eax, DWORD PTR _lpMsg$[ebp]
  0009d	83 c0 11	 add	 eax, 17			; 00000011H
  000a0	50		 push	 eax
  000a1	8d 4d d4	 lea	 ecx, DWORD PTR _FriendName$[ebp]
  000a4	e8 00 00 00 00	 call	 ??0char_ID@@QAE@PAD@Z	; char_ID::char_ID

; 2662 : 	LogAdd("[%s] WaitFriend add result (%d) [%s]", Name.GetBuffer(),  lpMsg->Result, FriendName.GetBuffer());

  000a9	8d 4d d4	 lea	 ecx, DWORD PTR _FriendName$[ebp]
  000ac	e8 00 00 00 00	 call	 ?GetBuffer@char_ID@@QAEPADXZ ; char_ID::GetBuffer
  000b1	50		 push	 eax
  000b2	8b 45 08	 mov	 eax, DWORD PTR _lpMsg$[ebp]
  000b5	0f b6 48 06	 movzx	 ecx, BYTE PTR [eax+6]
  000b9	51		 push	 ecx
  000ba	8d 4d f0	 lea	 ecx, DWORD PTR _Name$[ebp]
  000bd	e8 00 00 00 00	 call	 ?GetBuffer@char_ID@@QAEPADXZ ; char_ID::GetBuffer
  000c2	50		 push	 eax
  000c3	68 00 00 00 00	 push	 OFFSET ??_C@_0CF@CCKIBLLA@?$FL?$CFs?$FN?5WaitFriend?5add?5result?5?$CI?$CFd?$CJ@
  000c8	ff 15 00 00 00
	00		 call	 DWORD PTR ?LogAdd@@3P6AXPADZZA ; LogAdd
  000ce	83 c4 10	 add	 esp, 16			; 00000010H

; 2663 : 
; 2664 : 	DataSend(lpMsg->Number, (LPBYTE)&pMsg, sizeof(pMsg));

  000d1	6a 0f		 push	 15			; 0000000fH
  000d3	8d 45 e0	 lea	 eax, DWORD PTR _pMsg$[ebp]
  000d6	50		 push	 eax
  000d7	8b 4d 08	 mov	 ecx, DWORD PTR _lpMsg$[ebp]
  000da	0f bf 51 04	 movsx	 edx, WORD PTR [ecx+4]
  000de	52		 push	 edx
  000df	e8 00 00 00 00	 call	 ?DataSend@@YAHHPAEK@Z	; DataSend
  000e4	83 c4 0c	 add	 esp, 12			; 0000000cH
$LN1@WaitFriend:

; 2665 : }

  000e7	5f		 pop	 edi
  000e8	5e		 pop	 esi
  000e9	5b		 pop	 ebx
  000ea	8b 4d fc	 mov	 ecx, DWORD PTR __$ArrayPad$[ebp]
  000ed	33 cd		 xor	 ecx, ebp
  000ef	e8 00 00 00 00	 call	 @__security_check_cookie@4
  000f4	8b e5		 mov	 esp, ebp
  000f6	5d		 pop	 ebp
  000f7	c3		 ret	 0
?WaitFriendAddResult@@YAXPAUFHP_WAITFRIEND_ADD_RESULT@@@Z ENDP ; WaitFriendAddResult
_TEXT	ENDS
; Function compile flags: /Odtp /ZI
; File C:\Mu Online\Mu-GS-Webzen-MC-10093\GameServer\EDSProtocol.cpp
;	COMDAT ?FriendDelResult@@YAXPAUFHP_FRIEND_DEL_RESULT@@@Z
_TEXT	SEGMENT
_FriendName$ = -44					; size = 11
_pMsg$ = -32						; size = 14
_Name$ = -16						; size = 11
__$ArrayPad$ = -4					; size = 4
_lpMsg$ = 8						; size = 4
?FriendDelResult@@YAXPAUFHP_FRIEND_DEL_RESULT@@@Z PROC	; FriendDelResult, COMDAT

; 2697 : {

  00000	55		 push	 ebp
  00001	8b ec		 mov	 ebp, esp
  00003	83 ec 6c	 sub	 esp, 108		; 0000006cH
  00006	a1 00 00 00 00	 mov	 eax, DWORD PTR ___security_cookie
  0000b	33 c5		 xor	 eax, ebp
  0000d	89 45 fc	 mov	 DWORD PTR __$ArrayPad$[ebp], eax
  00010	53		 push	 ebx
  00011	56		 push	 esi
  00012	57		 push	 edi

; 2698 :  	char_ID		Name(lpMsg->Name);

  00013	8b 45 08	 mov	 eax, DWORD PTR _lpMsg$[ebp]
  00016	83 c0 07	 add	 eax, 7
  00019	50		 push	 eax
  0001a	8d 4d f0	 lea	 ecx, DWORD PTR _Name$[ebp]
  0001d	e8 00 00 00 00	 call	 ??0char_ID@@QAE@PAD@Z	; char_ID::char_ID

; 2699 : 	
; 2700 : 	if( gObjIsConnectedGP(lpMsg->Number, Name.GetBuffer()) == FALSE ) 

  00022	8d 4d f0	 lea	 ecx, DWORD PTR _Name$[ebp]
  00025	e8 00 00 00 00	 call	 ?GetBuffer@char_ID@@QAEPADXZ ; char_ID::GetBuffer
  0002a	50		 push	 eax
  0002b	8b 45 08	 mov	 eax, DWORD PTR _lpMsg$[ebp]
  0002e	0f bf 48 04	 movsx	 ecx, WORD PTR [eax+4]
  00032	51		 push	 ecx
  00033	e8 00 00 00 00	 call	 ?gObjIsConnectedGP@@YAHHPAD@Z ; gObjIsConnectedGP
  00038	83 c4 08	 add	 esp, 8
  0003b	85 c0		 test	 eax, eax
  0003d	75 1e		 jne	 SHORT $LN2@FriendDelR

; 2701 : 	{
; 2702 : 		LogAddTD("error-L2 : Index %s %d", __FILE__, __LINE__);

  0003f	a1 00 00 00 00	 mov	 eax, DWORD PTR ?__LINE__Var@?0??FriendDelResult@@YAXPAUFHP_FRIEND_DEL_RESULT@@@Z@4JA
  00044	83 c0 05	 add	 eax, 5
  00047	50		 push	 eax
  00048	68 00 00 00 00	 push	 OFFSET ??_C@_0DO@DMLGFOAA@C?3?2Mu?5Online?2Mu?9GS?9Webzen?9MC?910@
  0004d	68 00 00 00 00	 push	 OFFSET ??_C@_0BH@LCDOHCGD@error?9L2?5?3?5Index?5?$CFs?5?$CFd@
  00052	ff 15 00 00 00
	00		 call	 DWORD PTR ?LogAddTD@@3P6AXPADZZA ; LogAddTD
  00058	83 c4 0c	 add	 esp, 12			; 0000000cH

; 2703 : 		return;

  0005b	eb 7e		 jmp	 SHORT $LN1@FriendDelR
$LN2@FriendDelR:

; 2704 : 	}
; 2705 : 	
; 2706 : 	PMSG_FRIEND_DEL_RESULT	pMsg;
; 2707 : 	char_ID FriendName(lpMsg->FriendName);

  0005d	8b 45 08	 mov	 eax, DWORD PTR _lpMsg$[ebp]
  00060	83 c0 11	 add	 eax, 17			; 00000011H
  00063	50		 push	 eax
  00064	8d 4d d4	 lea	 ecx, DWORD PTR _FriendName$[ebp]
  00067	e8 00 00 00 00	 call	 ??0char_ID@@QAE@PAD@Z	; char_ID::char_ID

; 2708 : 
; 2709 : 	pMsg.h.set((LPBYTE)&pMsg, 0xC3, sizeof(pMsg));

  0006c	6a 0e		 push	 14			; 0000000eH
  0006e	68 c3 00 00 00	 push	 195			; 000000c3H
  00073	8d 45 e0	 lea	 eax, DWORD PTR _pMsg$[ebp]
  00076	50		 push	 eax
  00077	8d 4d e0	 lea	 ecx, DWORD PTR _pMsg$[ebp]
  0007a	e8 00 00 00 00	 call	 ?set@PBMSG_HEAD@@QAEXPAEEE@Z ; PBMSG_HEAD::set

; 2710 : 	memcpy( pMsg.Name, lpMsg->FriendName, MAX_IDSTRING);

  0007f	6a 0a		 push	 10			; 0000000aH
  00081	8b 45 08	 mov	 eax, DWORD PTR _lpMsg$[ebp]
  00084	83 c0 11	 add	 eax, 17			; 00000011H
  00087	50		 push	 eax
  00088	8d 4d e4	 lea	 ecx, DWORD PTR _pMsg$[ebp+4]
  0008b	51		 push	 ecx
  0008c	e8 00 00 00 00	 call	 _memcpy
  00091	83 c4 0c	 add	 esp, 12			; 0000000cH

; 2711 : 
; 2712 : 	pMsg.Result = lpMsg->Result;

  00094	8b 45 08	 mov	 eax, DWORD PTR _lpMsg$[ebp]
  00097	8a 48 06	 mov	 cl, BYTE PTR [eax+6]
  0009a	88 4d e3	 mov	 BYTE PTR _pMsg$[ebp+3], cl

; 2713 : 
; 2714 : 	LogAdd("[%s] Friend del result (%d) [%s]", Name.GetBuffer(), lpMsg->Result, FriendName.GetBuffer());

  0009d	8d 4d d4	 lea	 ecx, DWORD PTR _FriendName$[ebp]
  000a0	e8 00 00 00 00	 call	 ?GetBuffer@char_ID@@QAEPADXZ ; char_ID::GetBuffer
  000a5	50		 push	 eax
  000a6	8b 45 08	 mov	 eax, DWORD PTR _lpMsg$[ebp]
  000a9	0f b6 48 06	 movzx	 ecx, BYTE PTR [eax+6]
  000ad	51		 push	 ecx
  000ae	8d 4d f0	 lea	 ecx, DWORD PTR _Name$[ebp]
  000b1	e8 00 00 00 00	 call	 ?GetBuffer@char_ID@@QAEPADXZ ; char_ID::GetBuffer
  000b6	50		 push	 eax
  000b7	68 00 00 00 00	 push	 OFFSET ??_C@_0CB@NCMBHLMH@?$FL?$CFs?$FN?5Friend?5del?5result?5?$CI?$CFd?$CJ?5?$FL?$CFs@
  000bc	ff 15 00 00 00
	00		 call	 DWORD PTR ?LogAdd@@3P6AXPADZZA ; LogAdd
  000c2	83 c4 10	 add	 esp, 16			; 00000010H

; 2715 : 	DataSend(lpMsg->Number, (LPBYTE)&pMsg, sizeof(pMsg));

  000c5	6a 0e		 push	 14			; 0000000eH
  000c7	8d 45 e0	 lea	 eax, DWORD PTR _pMsg$[ebp]
  000ca	50		 push	 eax
  000cb	8b 4d 08	 mov	 ecx, DWORD PTR _lpMsg$[ebp]
  000ce	0f bf 51 04	 movsx	 edx, WORD PTR [ecx+4]
  000d2	52		 push	 edx
  000d3	e8 00 00 00 00	 call	 ?DataSend@@YAHHPAEK@Z	; DataSend
  000d8	83 c4 0c	 add	 esp, 12			; 0000000cH
$LN1@FriendDelR:

; 2716 : }

  000db	5f		 pop	 edi
  000dc	5e		 pop	 esi
  000dd	5b		 pop	 ebx
  000de	8b 4d fc	 mov	 ecx, DWORD PTR __$ArrayPad$[ebp]
  000e1	33 cd		 xor	 ecx, ebp
  000e3	e8 00 00 00 00	 call	 @__security_check_cookie@4
  000e8	8b e5		 mov	 esp, ebp
  000ea	5d		 pop	 ebp
  000eb	c3		 ret	 0
?FriendDelResult@@YAXPAUFHP_FRIEND_DEL_RESULT@@@Z ENDP	; FriendDelResult
_TEXT	ENDS
; Function compile flags: /Odtp /ZI
; File C:\Mu Online\Mu-GS-Webzen-MC-10093\GameServer\EDSProtocol.cpp
;	COMDAT ?WaitFriendListResult@@YAXPAUFHP_WAITFRIENDLIST_COUNT@@@Z
_TEXT	SEGMENT
_Name$ = -32						; size = 11
_pMsg$ = -20						; size = 13
__$ArrayPad$ = -4					; size = 4
_lpMsg$ = 8						; size = 4
?WaitFriendListResult@@YAXPAUFHP_WAITFRIENDLIST_COUNT@@@Z PROC ; WaitFriendListResult, COMDAT

; 2470 : {

  00000	55		 push	 ebp
  00001	8b ec		 mov	 ebp, esp
  00003	83 ec 60	 sub	 esp, 96			; 00000060H
  00006	a1 00 00 00 00	 mov	 eax, DWORD PTR ___security_cookie
  0000b	33 c5		 xor	 eax, ebp
  0000d	89 45 fc	 mov	 DWORD PTR __$ArrayPad$[ebp], eax
  00010	53		 push	 ebx
  00011	56		 push	 esi
  00012	57		 push	 edi

; 2471 : 	PMSG_FRIEND_ADD_SIN_REQ	 pMsg;	
; 2472 : 	
; 2473 :  	char_ID		Name(lpMsg->Name);

  00013	8b 45 08	 mov	 eax, DWORD PTR _lpMsg$[ebp]
  00016	83 c0 06	 add	 eax, 6
  00019	50		 push	 eax
  0001a	8d 4d e0	 lea	 ecx, DWORD PTR _Name$[ebp]
  0001d	e8 00 00 00 00	 call	 ??0char_ID@@QAE@PAD@Z	; char_ID::char_ID

; 2474 : 	
; 2475 : 	if( gObjIsConnectedGP(lpMsg->Number, Name.GetBuffer()) == FALSE ) 

  00022	8d 4d e0	 lea	 ecx, DWORD PTR _Name$[ebp]
  00025	e8 00 00 00 00	 call	 ?GetBuffer@char_ID@@QAEPADXZ ; char_ID::GetBuffer
  0002a	50		 push	 eax
  0002b	8b 45 08	 mov	 eax, DWORD PTR _lpMsg$[ebp]
  0002e	0f bf 48 04	 movsx	 ecx, WORD PTR [eax+4]
  00032	51		 push	 ecx
  00033	e8 00 00 00 00	 call	 ?gObjIsConnectedGP@@YAHHPAD@Z ; gObjIsConnectedGP
  00038	83 c4 08	 add	 esp, 8
  0003b	85 c0		 test	 eax, eax
  0003d	75 27		 jne	 SHORT $LN2@WaitFriend

; 2476 : 	{
; 2477 : 		LogAddTD("error-L2 : (%s) Index %s %d ", Name.GetBuffer(), __FILE__, __LINE__);

  0003f	a1 00 00 00 00	 mov	 eax, DWORD PTR ?__LINE__Var@?0??WaitFriendListResult@@YAXPAUFHP_WAITFRIENDLIST_COUNT@@@Z@4JA
  00044	83 c0 07	 add	 eax, 7
  00047	50		 push	 eax
  00048	68 00 00 00 00	 push	 OFFSET ??_C@_0DO@DMLGFOAA@C?3?2Mu?5Online?2Mu?9GS?9Webzen?9MC?910@
  0004d	8d 4d e0	 lea	 ecx, DWORD PTR _Name$[ebp]
  00050	e8 00 00 00 00	 call	 ?GetBuffer@char_ID@@QAEPADXZ ; char_ID::GetBuffer
  00055	50		 push	 eax
  00056	68 00 00 00 00	 push	 OFFSET ??_C@_0BN@DOMMEPOB@error?9L2?5?3?5?$CI?$CFs?$CJ?5Index?5?$CFs?5?$CFd?5@
  0005b	ff 15 00 00 00
	00		 call	 DWORD PTR ?LogAddTD@@3P6AXPADZZA ; LogAddTD
  00061	83 c4 10	 add	 esp, 16			; 00000010H

; 2478 : 		return;

  00064	eb 7b		 jmp	 SHORT $LN1@WaitFriend
$LN2@WaitFriend:

; 2479 : 	}
; 2480 : 
; 2481 : 	if( Name.GetLength() < 1 )

  00066	8d 4d e0	 lea	 ecx, DWORD PTR _Name$[ebp]
  00069	e8 00 00 00 00	 call	 ?GetLength@char_ID@@QAEHXZ ; char_ID::GetLength
  0006e	83 f8 01	 cmp	 eax, 1
  00071	7d 02		 jge	 SHORT $LN3@WaitFriend

; 2482 : 		return;

  00073	eb 6c		 jmp	 SHORT $LN1@WaitFriend
$LN3@WaitFriend:

; 2483 : 
; 2484 : 	pMsg.h.set((LPBYTE)&pMsg, 0xC2, sizeof(pMsg));

  00075	6a 0d		 push	 13			; 0000000dH
  00077	68 c2 00 00 00	 push	 194			; 000000c2H
  0007c	8d 45 ec	 lea	 eax, DWORD PTR _pMsg$[ebp]
  0007f	50		 push	 eax
  00080	8d 4d ec	 lea	 ecx, DWORD PTR _pMsg$[ebp]
  00083	e8 00 00 00 00	 call	 ?set@PBMSG_HEAD@@QAEXPAEEE@Z ; PBMSG_HEAD::set

; 2485 : 	memcpy(pMsg.Name, lpMsg->FriendName, MAX_IDSTRING);

  00088	6a 0a		 push	 10			; 0000000aH
  0008a	8b 45 08	 mov	 eax, DWORD PTR _lpMsg$[ebp]
  0008d	83 c0 10	 add	 eax, 16			; 00000010H
  00090	50		 push	 eax
  00091	8d 4d ef	 lea	 ecx, DWORD PTR _pMsg$[ebp+3]
  00094	51		 push	 ecx
  00095	e8 00 00 00 00	 call	 _memcpy
  0009a	83 c4 0c	 add	 esp, 12			; 0000000cH

; 2486 : 
; 2487 : 	DataSend(lpMsg->Number, (LPBYTE)&pMsg, sizeof(pMsg));

  0009d	6a 0d		 push	 13			; 0000000dH
  0009f	8d 45 ec	 lea	 eax, DWORD PTR _pMsg$[ebp]
  000a2	50		 push	 eax
  000a3	8b 4d 08	 mov	 ecx, DWORD PTR _lpMsg$[ebp]
  000a6	0f bf 51 04	 movsx	 edx, WORD PTR [ecx+4]
  000aa	52		 push	 edx
  000ab	e8 00 00 00 00	 call	 ?DataSend@@YAHHPAEK@Z	; DataSend
  000b0	83 c4 0c	 add	 esp, 12			; 0000000cH

; 2488 : 	LogAdd("[%s] WaitFriend List [%s]", gObj[lpMsg->Number].Name, Name.GetBuffer());

  000b3	8d 4d e0	 lea	 ecx, DWORD PTR _Name$[ebp]
  000b6	e8 00 00 00 00	 call	 ?GetBuffer@char_ID@@QAEPADXZ ; char_ID::GetBuffer
  000bb	50		 push	 eax
  000bc	8b 45 08	 mov	 eax, DWORD PTR _lpMsg$[ebp]
  000bf	0f bf 48 04	 movsx	 ecx, WORD PTR [eax+4]
  000c3	69 d1 a0 1b 00
	00		 imul	 edx, ecx, 7072
  000c9	a1 00 00 00 00	 mov	 eax, DWORD PTR ?gObj@@3PAVOBJECTSTRUCT@@A ; gObj
  000ce	8d 4c 10 73	 lea	 ecx, DWORD PTR [eax+edx+115]
  000d2	51		 push	 ecx
  000d3	68 00 00 00 00	 push	 OFFSET ??_C@_0BK@HLHJLCCE@?$FL?$CFs?$FN?5WaitFriend?5List?5?$FL?$CFs?$FN@
  000d8	ff 15 00 00 00
	00		 call	 DWORD PTR ?LogAdd@@3P6AXPADZZA ; LogAdd
  000de	83 c4 0c	 add	 esp, 12			; 0000000cH
$LN1@WaitFriend:

; 2489 : 	
; 2490 : }

  000e1	5f		 pop	 edi
  000e2	5e		 pop	 esi
  000e3	5b		 pop	 ebx
  000e4	8b 4d fc	 mov	 ecx, DWORD PTR __$ArrayPad$[ebp]
  000e7	33 cd		 xor	 ecx, ebp
  000e9	e8 00 00 00 00	 call	 @__security_check_cookie@4
  000ee	8b e5		 mov	 esp, ebp
  000f0	5d		 pop	 ebp
  000f1	c3		 ret	 0
?WaitFriendListResult@@YAXPAUFHP_WAITFRIENDLIST_COUNT@@@Z ENDP ; WaitFriendListResult
_TEXT	ENDS
; Function compile flags: /Odtp /ZI
; File C:\Mu Online\Mu-GS-Webzen-MC-10093\GameServer\EDSProtocol.cpp
;	COMDAT ?FriendAddResult@@YAXPAUFHP_FRIEND_ADD_RESULT@@@Z
_TEXT	SEGMENT
_szFriendName$ = -44					; size = 11
_pMsg$ = -32						; size = 15
_Name$ = -16						; size = 11
__$ArrayPad$ = -4					; size = 4
_lpMsg$ = 8						; size = 4
?FriendAddResult@@YAXPAUFHP_FRIEND_ADD_RESULT@@@Z PROC	; FriendAddResult, COMDAT

; 2592 : {

  00000	55		 push	 ebp
  00001	8b ec		 mov	 ebp, esp
  00003	83 ec 6c	 sub	 esp, 108		; 0000006cH
  00006	a1 00 00 00 00	 mov	 eax, DWORD PTR ___security_cookie
  0000b	33 c5		 xor	 eax, ebp
  0000d	89 45 fc	 mov	 DWORD PTR __$ArrayPad$[ebp], eax
  00010	53		 push	 ebx
  00011	56		 push	 esi
  00012	57		 push	 edi

; 2593 :  	char_ID		Name(lpMsg->Name);

  00013	8b 45 08	 mov	 eax, DWORD PTR _lpMsg$[ebp]
  00016	83 c0 07	 add	 eax, 7
  00019	50		 push	 eax
  0001a	8d 4d f0	 lea	 ecx, DWORD PTR _Name$[ebp]
  0001d	e8 00 00 00 00	 call	 ??0char_ID@@QAE@PAD@Z	; char_ID::char_ID

; 2594 : 	
; 2595 : 	if( gObjIsConnectedGP(lpMsg->Number, Name.GetBuffer()) == FALSE ) 

  00022	8d 4d f0	 lea	 ecx, DWORD PTR _Name$[ebp]
  00025	e8 00 00 00 00	 call	 ?GetBuffer@char_ID@@QAEPADXZ ; char_ID::GetBuffer
  0002a	50		 push	 eax
  0002b	8b 45 08	 mov	 eax, DWORD PTR _lpMsg$[ebp]
  0002e	0f bf 48 04	 movsx	 ecx, WORD PTR [eax+4]
  00032	51		 push	 ecx
  00033	e8 00 00 00 00	 call	 ?gObjIsConnectedGP@@YAHHPAD@Z ; gObjIsConnectedGP
  00038	83 c4 08	 add	 esp, 8
  0003b	85 c0		 test	 eax, eax
  0003d	75 21		 jne	 SHORT $LN2@FriendAddR

; 2596 : 	{
; 2597 : 		LogAddTD("error-L2 : Index %s %d", __FILE__, __LINE__);

  0003f	a1 00 00 00 00	 mov	 eax, DWORD PTR ?__LINE__Var@?0??FriendAddResult@@YAXPAUFHP_FRIEND_ADD_RESULT@@@Z@4JA
  00044	83 c0 05	 add	 eax, 5
  00047	50		 push	 eax
  00048	68 00 00 00 00	 push	 OFFSET ??_C@_0DO@DMLGFOAA@C?3?2Mu?5Online?2Mu?9GS?9Webzen?9MC?910@
  0004d	68 00 00 00 00	 push	 OFFSET ??_C@_0BH@LCDOHCGD@error?9L2?5?3?5Index?5?$CFs?5?$CFd@
  00052	ff 15 00 00 00
	00		 call	 DWORD PTR ?LogAddTD@@3P6AXPADZZA ; LogAddTD
  00058	83 c4 0c	 add	 esp, 12			; 0000000cH

; 2598 : 		return;

  0005b	e9 87 00 00 00	 jmp	 $LN1@FriendAddR
$LN2@FriendAddR:

; 2599 : 	}
; 2600 : 	
; 2601 : 	PMSG_FRIEND_ADD_RESULT	pMsg;
; 2602 : 
; 2603 : 	char_ID szFriendName(lpMsg->FriendName);

  00060	8b 45 08	 mov	 eax, DWORD PTR _lpMsg$[ebp]
  00063	83 c0 11	 add	 eax, 17			; 00000011H
  00066	50		 push	 eax
  00067	8d 4d d4	 lea	 ecx, DWORD PTR _szFriendName$[ebp]
  0006a	e8 00 00 00 00	 call	 ??0char_ID@@QAE@PAD@Z	; char_ID::char_ID

; 2604 : 
; 2605 : 	pMsg.h.set((LPBYTE)&pMsg, 0xC1, sizeof(pMsg));

  0006f	6a 0f		 push	 15			; 0000000fH
  00071	68 c1 00 00 00	 push	 193			; 000000c1H
  00076	8d 45 e0	 lea	 eax, DWORD PTR _pMsg$[ebp]
  00079	50		 push	 eax
  0007a	8d 4d e0	 lea	 ecx, DWORD PTR _pMsg$[ebp]
  0007d	e8 00 00 00 00	 call	 ?set@PBMSG_HEAD@@QAEXPAEEE@Z ; PBMSG_HEAD::set

; 2606 : 	memcpy( pMsg.Name, lpMsg->FriendName, MAX_IDSTRING);		

  00082	6a 0a		 push	 10			; 0000000aH
  00084	8b 45 08	 mov	 eax, DWORD PTR _lpMsg$[ebp]
  00087	83 c0 11	 add	 eax, 17			; 00000011H
  0008a	50		 push	 eax
  0008b	8d 4d e4	 lea	 ecx, DWORD PTR _pMsg$[ebp+4]
  0008e	51		 push	 ecx
  0008f	e8 00 00 00 00	 call	 _memcpy
  00094	83 c4 0c	 add	 esp, 12			; 0000000cH

; 2607 : 	pMsg.Result = lpMsg->Result;

  00097	8b 45 08	 mov	 eax, DWORD PTR _lpMsg$[ebp]
  0009a	8a 48 06	 mov	 cl, BYTE PTR [eax+6]
  0009d	88 4d e3	 mov	 BYTE PTR _pMsg$[ebp+3], cl

; 2608 : 	pMsg.State  = lpMsg->Server;

  000a0	8b 45 08	 mov	 eax, DWORD PTR _lpMsg$[ebp]
  000a3	8a 48 1b	 mov	 cl, BYTE PTR [eax+27]
  000a6	88 4d ee	 mov	 BYTE PTR _pMsg$[ebp+14], cl

; 2609 : 	DataSend(lpMsg->Number, (LPBYTE)&pMsg, sizeof(pMsg));

  000a9	6a 0f		 push	 15			; 0000000fH
  000ab	8d 45 e0	 lea	 eax, DWORD PTR _pMsg$[ebp]
  000ae	50		 push	 eax
  000af	8b 4d 08	 mov	 ecx, DWORD PTR _lpMsg$[ebp]
  000b2	0f bf 51 04	 movsx	 edx, WORD PTR [ecx+4]
  000b6	52		 push	 edx
  000b7	e8 00 00 00 00	 call	 ?DataSend@@YAHHPAEK@Z	; DataSend
  000bc	83 c4 0c	 add	 esp, 12			; 0000000cH

; 2610 : 
; 2611 : 	LogAdd("[%s] Friend add result : (%d) friend Name : (%s)", Name.GetBuffer(), lpMsg->Result, szFriendName.GetBuffer());

  000bf	8d 4d d4	 lea	 ecx, DWORD PTR _szFriendName$[ebp]
  000c2	e8 00 00 00 00	 call	 ?GetBuffer@char_ID@@QAEPADXZ ; char_ID::GetBuffer
  000c7	50		 push	 eax
  000c8	8b 45 08	 mov	 eax, DWORD PTR _lpMsg$[ebp]
  000cb	0f b6 48 06	 movzx	 ecx, BYTE PTR [eax+6]
  000cf	51		 push	 ecx
  000d0	8d 4d f0	 lea	 ecx, DWORD PTR _Name$[ebp]
  000d3	e8 00 00 00 00	 call	 ?GetBuffer@char_ID@@QAEPADXZ ; char_ID::GetBuffer
  000d8	50		 push	 eax
  000d9	68 00 00 00 00	 push	 OFFSET ??_C@_0DB@NPDFCIKD@?$FL?$CFs?$FN?5Friend?5add?5result?5?3?5?$CI?$CFd?$CJ?5f@
  000de	ff 15 00 00 00
	00		 call	 DWORD PTR ?LogAdd@@3P6AXPADZZA ; LogAdd
  000e4	83 c4 10	 add	 esp, 16			; 00000010H
$LN1@FriendAddR:

; 2612 : }

  000e7	5f		 pop	 edi
  000e8	5e		 pop	 esi
  000e9	5b		 pop	 ebx
  000ea	8b 4d fc	 mov	 ecx, DWORD PTR __$ArrayPad$[ebp]
  000ed	33 cd		 xor	 ecx, ebp
  000ef	e8 00 00 00 00	 call	 @__security_check_cookie@4
  000f4	8b e5		 mov	 esp, ebp
  000f6	5d		 pop	 ebp
  000f7	c3		 ret	 0
?FriendAddResult@@YAXPAUFHP_FRIEND_ADD_RESULT@@@Z ENDP	; FriendAddResult
_TEXT	ENDS
; Function compile flags: /Odtp /ZI
; File C:\Mu Online\Mu-GS-Webzen-MC-10093\GameServer\EDSProtocol.cpp
;	COMDAT ?FriendListResult@@YAXPAE@Z
_TEXT	SEGMENT
_n$1 = -2044						; size = 4
_TmpSendBuf$ = -2040					; size = 2000
_Name$ = -40						; size = 11
_pOfs$ = -28						; size = 4
_pCount$ = -24						; size = 7
_lOfs$ = -16						; size = 4
_lpList$ = -12						; size = 4
_lpCount$ = -8						; size = 4
__$ArrayPad$ = -4					; size = 4
_lpMsg$ = 8						; size = 4
?FriendListResult@@YAXPAE@Z PROC			; FriendListResult, COMDAT

; 2423 : {

  00000	55		 push	 ebp
  00001	8b ec		 mov	 ebp, esp
  00003	81 ec fc 08 00
	00		 sub	 esp, 2300		; 000008fcH
  00009	a1 00 00 00 00	 mov	 eax, DWORD PTR ___security_cookie
  0000e	33 c5		 xor	 eax, ebp
  00010	89 45 fc	 mov	 DWORD PTR __$ArrayPad$[ebp], eax
  00013	53		 push	 ebx
  00014	56		 push	 esi
  00015	57		 push	 edi

; 2424 : 	LPFHP_FRIENDLIST_COUNT	lpCount;	
; 2425 : 	LPFHP_FRIENDLIST		lpList;
; 2426 : 	int						lOfs=sizeof(FHP_FRIENDLIST_COUNT);

  00016	c7 45 f0 12 00
	00 00		 mov	 DWORD PTR _lOfs$[ebp], 18 ; 00000012H

; 2427 : 
; 2428 : 	PMSG_FRIEND_LIST_COUNT	pCount;
; 2429 : 	int						pOfs=sizeof(pCount);

  0001d	c7 45 e4 07 00
	00 00		 mov	 DWORD PTR _pOfs$[ebp], 7

; 2430 : 	
; 2431 : 	lpCount      = (LPFHP_FRIENDLIST_COUNT)lpMsg;

  00024	8b 45 08	 mov	 eax, DWORD PTR _lpMsg$[ebp]
  00027	89 45 f8	 mov	 DWORD PTR _lpCount$[ebp], eax

; 2432 : 	lpList       = (LPFHP_FRIENDLIST)(lpMsg+lOfs);

  0002a	8b 45 08	 mov	 eax, DWORD PTR _lpMsg$[ebp]
  0002d	03 45 f0	 add	 eax, DWORD PTR _lOfs$[ebp]
  00030	89 45 f4	 mov	 DWORD PTR _lpList$[ebp], eax

; 2433 : 
; 2434 : 	char_ID		Name(lpCount->Name);

  00033	8b 45 f8	 mov	 eax, DWORD PTR _lpCount$[ebp]
  00036	83 c0 06	 add	 eax, 6
  00039	50		 push	 eax
  0003a	8d 4d d8	 lea	 ecx, DWORD PTR _Name$[ebp]
  0003d	e8 00 00 00 00	 call	 ??0char_ID@@QAE@PAD@Z	; char_ID::char_ID

; 2435 : 	
; 2436 : 	if( gObjIsConnectedGP(lpCount->Number, Name.GetBuffer()) == FALSE ) 

  00042	8d 4d d8	 lea	 ecx, DWORD PTR _Name$[ebp]
  00045	e8 00 00 00 00	 call	 ?GetBuffer@char_ID@@QAEPADXZ ; char_ID::GetBuffer
  0004a	50		 push	 eax
  0004b	8b 45 f8	 mov	 eax, DWORD PTR _lpCount$[ebp]
  0004e	0f bf 48 04	 movsx	 ecx, WORD PTR [eax+4]
  00052	51		 push	 ecx
  00053	e8 00 00 00 00	 call	 ?gObjIsConnectedGP@@YAHHPAD@Z ; gObjIsConnectedGP
  00058	83 c4 08	 add	 esp, 8
  0005b	85 c0		 test	 eax, eax
  0005d	75 21		 jne	 SHORT $LN5@FriendList

; 2437 : 	{
; 2438 : 		LogAddTD("error-L2 : Index %s %d", __FILE__, __LINE__);

  0005f	a1 00 00 00 00	 mov	 eax, DWORD PTR ?__LINE__Var@?0??FriendListResult@@YAXPAE@Z@4JA
  00064	83 c0 0f	 add	 eax, 15			; 0000000fH
  00067	50		 push	 eax
  00068	68 00 00 00 00	 push	 OFFSET ??_C@_0DO@DMLGFOAA@C?3?2Mu?5Online?2Mu?9GS?9Webzen?9MC?910@
  0006d	68 00 00 00 00	 push	 OFFSET ??_C@_0BH@LCDOHCGD@error?9L2?5?3?5Index?5?$CFs?5?$CFd@
  00072	ff 15 00 00 00
	00		 call	 DWORD PTR ?LogAddTD@@3P6AXPADZZA ; LogAddTD
  00078	83 c4 0c	 add	 esp, 12			; 0000000cH

; 2439 : 		return;

  0007b	e9 05 01 00 00	 jmp	 $LN1@FriendList
$LN5@FriendList:

; 2440 : 	}
; 2441 : 
; 2442 : 	gObj[lpCount->Number].m_FriendServerOnline = FRIENDSERVER_ONLINE;	// 온라인 상태로 만든다.

  00080	8b 45 f8	 mov	 eax, DWORD PTR _lpCount$[ebp]
  00083	0f bf 48 04	 movsx	 ecx, WORD PTR [eax+4]
  00087	69 d1 a0 1b 00
	00		 imul	 edx, ecx, 7072
  0008d	a1 00 00 00 00	 mov	 eax, DWORD PTR ?gObj@@3PAVOBJECTSTRUCT@@A ; gObj
  00092	c6 84 10 cc 01
	00 00 00	 mov	 BYTE PTR [eax+edx+460], 0

; 2443 : 
; 2444 : 	BYTE	TmpSendBuf[2000];
; 2445 : 
; 2446 : 	pCount.Count = lpCount->Count;

  0009a	8b 45 f8	 mov	 eax, DWORD PTR _lpCount$[ebp]
  0009d	8a 48 10	 mov	 cl, BYTE PTR [eax+16]
  000a0	88 4d ee	 mov	 BYTE PTR _pCount$[ebp+6], cl

; 2447 : 	pCount.MemoCount = lpCount->MailCount;

  000a3	8b 45 f8	 mov	 eax, DWORD PTR _lpCount$[ebp]
  000a6	8a 48 11	 mov	 cl, BYTE PTR [eax+17]
  000a9	88 4d ec	 mov	 BYTE PTR _pCount$[ebp+4], cl

; 2448 : 	pCount.MailTotal = 50;

  000ac	c6 45 ed 32	 mov	 BYTE PTR _pCount$[ebp+5], 50 ; 00000032H

; 2449 : 
; 2450 : 	if( pCount.Count )

  000b0	0f b6 45 ee	 movzx	 eax, BYTE PTR _pCount$[ebp+6]
  000b4	85 c0		 test	 eax, eax
  000b6	74 5d		 je	 SHORT $LN6@FriendList

; 2451 : 	{		
; 2452 : 		for( int n=0; n<pCount.Count; n++)

  000b8	c7 85 04 f8 ff
	ff 00 00 00 00	 mov	 DWORD PTR _n$1[ebp], 0
  000c2	eb 0f		 jmp	 SHORT $LN4@FriendList
$LN2@FriendList:
  000c4	8b 85 04 f8 ff
	ff		 mov	 eax, DWORD PTR _n$1[ebp]
  000ca	83 c0 01	 add	 eax, 1
  000cd	89 85 04 f8 ff
	ff		 mov	 DWORD PTR _n$1[ebp], eax
$LN4@FriendList:
  000d3	0f b6 45 ee	 movzx	 eax, BYTE PTR _pCount$[ebp+6]
  000d7	39 85 04 f8 ff
	ff		 cmp	 DWORD PTR _n$1[ebp], eax
  000dd	7d 36		 jge	 SHORT $LN6@FriendList

; 2453 : 		{
; 2454 : 			lpList = (LPFHP_FRIENDLIST)(lpMsg+lOfs);

  000df	8b 45 08	 mov	 eax, DWORD PTR _lpMsg$[ebp]
  000e2	03 45 f0	 add	 eax, DWORD PTR _lOfs$[ebp]
  000e5	89 45 f4	 mov	 DWORD PTR _lpList$[ebp], eax

; 2455 : 			memcpy(TmpSendBuf+pOfs, lpList, sizeof(FHP_FRIENDLIST));

  000e8	6a 0b		 push	 11			; 0000000bH
  000ea	8b 45 f4	 mov	 eax, DWORD PTR _lpList$[ebp]
  000ed	50		 push	 eax
  000ee	8b 4d e4	 mov	 ecx, DWORD PTR _pOfs$[ebp]
  000f1	8d 94 0d 08 f8
	ff ff		 lea	 edx, DWORD PTR _TmpSendBuf$[ebp+ecx]
  000f8	52		 push	 edx
  000f9	e8 00 00 00 00	 call	 _memcpy
  000fe	83 c4 0c	 add	 esp, 12			; 0000000cH

; 2456 : 			lOfs += sizeof(FHP_FRIENDLIST);

  00101	8b 45 f0	 mov	 eax, DWORD PTR _lOfs$[ebp]
  00104	83 c0 0b	 add	 eax, 11			; 0000000bH
  00107	89 45 f0	 mov	 DWORD PTR _lOfs$[ebp], eax

; 2457 : 			pOfs += sizeof(PMSG_FRIEND_LIST);

  0010a	8b 45 e4	 mov	 eax, DWORD PTR _pOfs$[ebp]
  0010d	83 c0 0b	 add	 eax, 11			; 0000000bH
  00110	89 45 e4	 mov	 DWORD PTR _pOfs$[ebp], eax

; 2458 : 		}

  00113	eb af		 jmp	 SHORT $LN2@FriendList
$LN6@FriendList:

; 2459 : 	}
; 2460 : 	pCount.h.set((LPBYTE)&pCount, 0xC0, pOfs);

  00115	8b 45 e4	 mov	 eax, DWORD PTR _pOfs$[ebp]
  00118	50		 push	 eax
  00119	68 c0 00 00 00	 push	 192			; 000000c0H
  0011e	8d 4d e8	 lea	 ecx, DWORD PTR _pCount$[ebp]
  00121	51		 push	 ecx
  00122	8d 4d e8	 lea	 ecx, DWORD PTR _pCount$[ebp]
  00125	e8 00 00 00 00	 call	 ?set@PWMSG_HEAD@@QAEXPAEEH@Z ; PWMSG_HEAD::set

; 2461 : 	memcpy(TmpSendBuf, (LPBYTE)&pCount, sizeof(pCount));	

  0012a	6a 07		 push	 7
  0012c	8d 45 e8	 lea	 eax, DWORD PTR _pCount$[ebp]
  0012f	50		 push	 eax
  00130	8d 8d 08 f8 ff
	ff		 lea	 ecx, DWORD PTR _TmpSendBuf$[ebp]
  00136	51		 push	 ecx
  00137	e8 00 00 00 00	 call	 _memcpy
  0013c	83 c4 0c	 add	 esp, 12			; 0000000cH

; 2462 : 	DataSend(lpCount->Number, TmpSendBuf, pOfs);

  0013f	8b 45 e4	 mov	 eax, DWORD PTR _pOfs$[ebp]
  00142	50		 push	 eax
  00143	8d 8d 08 f8 ff
	ff		 lea	 ecx, DWORD PTR _TmpSendBuf$[ebp]
  00149	51		 push	 ecx
  0014a	8b 55 f8	 mov	 edx, DWORD PTR _lpCount$[ebp]
  0014d	0f bf 42 04	 movsx	 eax, WORD PTR [edx+4]
  00151	50		 push	 eax
  00152	e8 00 00 00 00	 call	 ?DataSend@@YAHHPAEK@Z	; DataSend
  00157	83 c4 0c	 add	 esp, 12			; 0000000cH

; 2463 : 	LogAdd("[%s] Friend List Count (%d) Send", gObj[lpCount->Number].Name, pCount.Count);

  0015a	0f b6 45 ee	 movzx	 eax, BYTE PTR _pCount$[ebp+6]
  0015e	50		 push	 eax
  0015f	8b 4d f8	 mov	 ecx, DWORD PTR _lpCount$[ebp]
  00162	0f bf 51 04	 movsx	 edx, WORD PTR [ecx+4]
  00166	69 c2 a0 1b 00
	00		 imul	 eax, edx, 7072
  0016c	8b 0d 00 00 00
	00		 mov	 ecx, DWORD PTR ?gObj@@3PAVOBJECTSTRUCT@@A ; gObj
  00172	8d 54 01 73	 lea	 edx, DWORD PTR [ecx+eax+115]
  00176	52		 push	 edx
  00177	68 00 00 00 00	 push	 OFFSET ??_C@_0CB@HGMGGPGK@?$FL?$CFs?$FN?5Friend?5List?5Count?5?$CI?$CFd?$CJ?5Sen@
  0017c	ff 15 00 00 00
	00		 call	 DWORD PTR ?LogAdd@@3P6AXPADZZA ; LogAdd
  00182	83 c4 0c	 add	 esp, 12			; 0000000cH
$LN1@FriendList:

; 2464 : }

  00185	5f		 pop	 edi
  00186	5e		 pop	 esi
  00187	5b		 pop	 ebx
  00188	8b 4d fc	 mov	 ecx, DWORD PTR __$ArrayPad$[ebp]
  0018b	33 cd		 xor	 ecx, ebp
  0018d	e8 00 00 00 00	 call	 @__security_check_cookie@4
  00192	8b e5		 mov	 esp, ebp
  00194	5d		 pop	 ebp
  00195	c3		 ret	 0
?FriendListResult@@YAXPAE@Z ENDP			; FriendListResult
_TEXT	ENDS
; Function compile flags: /Odtp /ZI
; File C:\Mu Online\Mu-GS-Webzen-MC-10093\GameServer\EDSProtocol.cpp
;	COMDAT ?GDCharCloseRecv@@YAXPAUSDHP_USERCLOSE@@@Z
_TEXT	SEGMENT
_szGuildName$ = -28					; size = 9
_szName$ = -16						; size = 11
__$ArrayPad$ = -4					; size = 4
_lpMsg$ = 8						; size = 4
?GDCharCloseRecv@@YAXPAUSDHP_USERCLOSE@@@Z PROC		; GDCharCloseRecv, COMDAT

; 337  : {

  00000	55		 push	 ebp
  00001	8b ec		 mov	 ebp, esp
  00003	83 ec 5c	 sub	 esp, 92			; 0000005cH
  00006	a1 00 00 00 00	 mov	 eax, DWORD PTR ___security_cookie
  0000b	33 c5		 xor	 eax, ebp
  0000d	89 45 fc	 mov	 DWORD PTR __$ArrayPad$[ebp], eax
  00010	53		 push	 ebx
  00011	56		 push	 esi
  00012	57		 push	 edi

; 338  : 	char szName[MAX_IDSTRING+1];
; 339  : 	char szGuildName[MAX_GUILDNAMESTRING+1];
; 340  : 
; 341  : 	memset(szName, 0, MAX_IDSTRING+1);

  00013	6a 0b		 push	 11			; 0000000bH
  00015	6a 00		 push	 0
  00017	8d 45 f0	 lea	 eax, DWORD PTR _szName$[ebp]
  0001a	50		 push	 eax
  0001b	e8 00 00 00 00	 call	 _memset
  00020	83 c4 0c	 add	 esp, 12			; 0000000cH

; 342  : 	memset(szGuildName, 0, MAX_GUILDNAMESTRING+1);

  00023	6a 09		 push	 9
  00025	6a 00		 push	 0
  00027	8d 45 e4	 lea	 eax, DWORD PTR _szGuildName$[ebp]
  0002a	50		 push	 eax
  0002b	e8 00 00 00 00	 call	 _memset
  00030	83 c4 0c	 add	 esp, 12			; 0000000cH

; 343  : 
; 344  : 	memcpy(szName, lpMsg->CharName, MAX_IDSTRING);

  00033	6a 0a		 push	 10			; 0000000aH
  00035	8b 45 08	 mov	 eax, DWORD PTR _lpMsg$[ebp]
  00038	83 c0 03	 add	 eax, 3
  0003b	50		 push	 eax
  0003c	8d 4d f0	 lea	 ecx, DWORD PTR _szName$[ebp]
  0003f	51		 push	 ecx
  00040	e8 00 00 00 00	 call	 _memcpy
  00045	83 c4 0c	 add	 esp, 12			; 0000000cH

; 345  : 	memcpy(szGuildName, lpMsg->GuildName, MAX_GUILDNAMESTRING);

  00048	6a 08		 push	 8
  0004a	8b 45 08	 mov	 eax, DWORD PTR _lpMsg$[ebp]
  0004d	83 c0 0d	 add	 eax, 13			; 0000000dH
  00050	50		 push	 eax
  00051	8d 4d e4	 lea	 ecx, DWORD PTR _szGuildName$[ebp]
  00054	51		 push	 ecx
  00055	e8 00 00 00 00	 call	 _memcpy
  0005a	83 c4 0c	 add	 esp, 12			; 0000000cH

; 346  : 
; 347  : 	Guild.CloseMember(szGuildName, szName);

  0005d	8d 45 f0	 lea	 eax, DWORD PTR _szName$[ebp]
  00060	50		 push	 eax
  00061	8d 4d e4	 lea	 ecx, DWORD PTR _szGuildName$[ebp]
  00064	51		 push	 ecx
  00065	b9 00 00 00 00	 mov	 ecx, OFFSET ?Guild@@3VCGuildClass@@A ; Guild
  0006a	e8 00 00 00 00	 call	 ?CloseMember@CGuildClass@@QAEHPAD0@Z ; CGuildClass::CloseMember

; 348  : }

  0006f	5f		 pop	 edi
  00070	5e		 pop	 esi
  00071	5b		 pop	 ebx
  00072	8b 4d fc	 mov	 ecx, DWORD PTR __$ArrayPad$[ebp]
  00075	33 cd		 xor	 ecx, ebp
  00077	e8 00 00 00 00	 call	 @__security_check_cookie@4
  0007c	8b e5		 mov	 esp, ebp
  0007e	5d		 pop	 ebp
  0007f	c3		 ret	 0
?GDCharCloseRecv@@YAXPAUSDHP_USERCLOSE@@@Z ENDP		; GDCharCloseRecv
_TEXT	ENDS
; Function compile flags: /Odtp /ZI
; File C:\Mu Online\Mu-GS-Webzen-MC-10093\GameServer\EDSProtocol.cpp
;	COMDAT ?DGGuildListState@@YAXPAUSDHP_GUILDLISTSTATE@@@Z
_TEXT	SEGMENT
tv66 = -68						; size = 4
_lpMsg$ = 8						; size = 4
?DGGuildListState@@YAXPAUSDHP_GUILDLISTSTATE@@@Z PROC	; DGGuildListState, COMDAT

; 1421 : {

  00000	55		 push	 ebp
  00001	8b ec		 mov	 ebp, esp
  00003	83 ec 44	 sub	 esp, 68			; 00000044H
  00006	53		 push	 ebx
  00007	56		 push	 esi
  00008	57		 push	 edi

; 1422 : 	switch(lpMsg->State)

  00009	8b 45 08	 mov	 eax, DWORD PTR _lpMsg$[ebp]
  0000c	8a 48 03	 mov	 cl, BYTE PTR [eax+3]
  0000f	88 4d bc	 mov	 BYTE PTR tv66[ebp], cl
  00012	80 7d bc 00	 cmp	 BYTE PTR tv66[ebp], 0
  00016	74 0f		 je	 SHORT $LN4@DGGuildLis
  00018	80 7d bc 01	 cmp	 BYTE PTR tv66[ebp], 1
  0001c	0f 84 b4 00 00
	00		 je	 $LN6@DGGuildLis
  00022	e9 dc 00 00 00	 jmp	 $LN1@DGGuildLis
$LN4@DGGuildLis:

; 1423 : 	{
; 1424 : 	case 0x00 :	// 리스트 받기 시작
; 1425 : 		if(!IsWindow(GuildListhDlg))

  00027	a1 00 00 00 00	 mov	 eax, DWORD PTR ?GuildListhDlg@@3PAUHWND__@@A ; GuildListhDlg
  0002c	50		 push	 eax
  0002d	ff 15 00 00 00
	00		 call	 DWORD PTR __imp__IsWindow@4
  00033	85 c0		 test	 eax, eax
  00035	0f 85 99 00 00
	00		 jne	 $LN5@DGGuildLis

; 1426 : 		{
; 1427 : 			GuildListhDlg = CreateDialog(NULL, MAKEINTRESOURCE(IDD_DLG_GUILDLISTSTATE), ghWnd, GuildListDlgProc);

  0003b	6a 00		 push	 0
  0003d	68 00 00 00 00	 push	 OFFSET ?GuildListDlgProc@@YGHPAUHWND__@@IIJ@Z ; GuildListDlgProc
  00042	a1 00 00 00 00	 mov	 eax, DWORD PTR ?ghWnd@@3PAUHWND__@@A ; ghWnd
  00047	50		 push	 eax
  00048	68 8d 00 00 00	 push	 141			; 0000008dH
  0004d	6a 00		 push	 0
  0004f	ff 15 00 00 00
	00		 call	 DWORD PTR __imp__CreateDialogParamA@20
  00055	a3 00 00 00 00	 mov	 DWORD PTR ?GuildListhDlg@@3PAUHWND__@@A, eax ; GuildListhDlg

; 1428 : 			ShowWindow(GuildListhDlg, SW_SHOW);

  0005a	6a 05		 push	 5
  0005c	a1 00 00 00 00	 mov	 eax, DWORD PTR ?GuildListhDlg@@3PAUHWND__@@A ; GuildListhDlg
  00061	50		 push	 eax
  00062	ff 15 00 00 00
	00		 call	 DWORD PTR __imp__ShowWindow@8

; 1429 : 			GuildListhPrs = GetDlgItem( GuildListhDlg, IDC_LIST_PROGRESS);

  00068	68 e8 03 00 00	 push	 1000			; 000003e8H
  0006d	a1 00 00 00 00	 mov	 eax, DWORD PTR ?GuildListhDlg@@3PAUHWND__@@A ; GuildListhDlg
  00072	50		 push	 eax
  00073	ff 15 00 00 00
	00		 call	 DWORD PTR __imp__GetDlgItem@8
  00079	a3 00 00 00 00	 mov	 DWORD PTR ?GuildListhPrs@@3PAUHWND__@@A, eax ; GuildListhPrs

; 1430 : 			SendMessage( GuildListhPrs, PBM_SETRANGE, 0, MAKELPARAM(0,lpMsg->Count));

  0007e	8b 45 08	 mov	 eax, DWORD PTR _lpMsg$[ebp]
  00081	8b 48 04	 mov	 ecx, DWORD PTR [eax+4]
  00084	81 e1 ff ff 00
	00		 and	 ecx, 65535		; 0000ffffH
  0008a	0f b7 d1	 movzx	 edx, cx
  0008d	c1 e2 10	 shl	 edx, 16			; 00000010H
  00090	52		 push	 edx
  00091	6a 00		 push	 0
  00093	68 01 04 00 00	 push	 1025			; 00000401H
  00098	a1 00 00 00 00	 mov	 eax, DWORD PTR ?GuildListhPrs@@3PAUHWND__@@A ; GuildListhPrs
  0009d	50		 push	 eax
  0009e	ff 15 00 00 00
	00		 call	 DWORD PTR __imp__SendMessageA@16

; 1431 : 			gGuildListTotal = lpMsg->Count;

  000a4	8b 45 08	 mov	 eax, DWORD PTR _lpMsg$[ebp]
  000a7	8b 48 04	 mov	 ecx, DWORD PTR [eax+4]
  000aa	89 0d 00 00 00
	00		 mov	 DWORD PTR ?gGuildListTotal@@3HA, ecx ; gGuildListTotal

; 1432 : 			SendMessage( GuildListhPrs, PBM_SETSTEP, 1, 0);

  000b0	6a 00		 push	 0
  000b2	6a 01		 push	 1
  000b4	68 04 04 00 00	 push	 1028			; 00000404H
  000b9	a1 00 00 00 00	 mov	 eax, DWORD PTR ?GuildListhPrs@@3PAUHWND__@@A ; GuildListhPrs
  000be	50		 push	 eax
  000bf	ff 15 00 00 00
	00		 call	 DWORD PTR __imp__SendMessageA@16

; 1433 : 			gGuildListCount = 0;

  000c5	c7 05 00 00 00
	00 00 00 00 00	 mov	 DWORD PTR ?gGuildListCount@@3HA, 0 ; gGuildListCount

; 1434 : 			GameServerInfoSendStop();

  000cf	e8 00 00 00 00	 call	 ?GameServerInfoSendStop@@YAXXZ ; GameServerInfoSendStop
$LN5@DGGuildLis:

; 1435 : 		}
; 1436 : 		break;

  000d4	eb 2d		 jmp	 SHORT $LN1@DGGuildLis
$LN6@DGGuildLis:

; 1437 : 	case 0x01 :	// 리스트 받기 완료
; 1438 : 		if(IsWindow(GuildListhDlg))

  000d6	a1 00 00 00 00	 mov	 eax, DWORD PTR ?GuildListhDlg@@3PAUHWND__@@A ; GuildListhDlg
  000db	50		 push	 eax
  000dc	ff 15 00 00 00
	00		 call	 DWORD PTR __imp__IsWindow@4
  000e2	85 c0		 test	 eax, eax
  000e4	74 1d		 je	 SHORT $LN1@DGGuildLis

; 1439 : 		{
; 1440 : 			EndDialog(GuildListhDlg, 0);

  000e6	6a 00		 push	 0
  000e8	a1 00 00 00 00	 mov	 eax, DWORD PTR ?GuildListhDlg@@3PAUHWND__@@A ; GuildListhDlg
  000ed	50		 push	 eax
  000ee	ff 15 00 00 00
	00		 call	 DWORD PTR __imp__EndDialog@8

; 1441 : 			GameServerInfoSendStart();

  000f4	e8 00 00 00 00	 call	 ?GameServerInfoSendStart@@YAXXZ ; GameServerInfoSendStart

; 1442 : 			GuildListhDlg = NULL;			

  000f9	c7 05 00 00 00
	00 00 00 00 00	 mov	 DWORD PTR ?GuildListhDlg@@3PAUHWND__@@A, 0 ; GuildListhDlg
$LN1@DGGuildLis:

; 1443 : 		}
; 1444 : 		break;
; 1445 : 	}
; 1446 : }

  00103	5f		 pop	 edi
  00104	5e		 pop	 esi
  00105	5b		 pop	 ebx
  00106	8b e5		 mov	 esp, ebp
  00108	5d		 pop	 ebp
  00109	c3		 ret	 0
?DGGuildListState@@YAXPAUSDHP_GUILDLISTSTATE@@@Z ENDP	; DGGuildListState
_TEXT	ENDS
; Function compile flags: /Odtp /ZI
; File C:\Mu Online\Mu-GS-Webzen-MC-10093\GameServer\EDSProtocol.cpp
;	COMDAT ?DGGuildNoticeRecv@@YAXPAUSDHP_GUILDNOTICE@@@Z
_TEXT	SEGMENT
_n$1 = -8						; size = 4
_lpNode$ = -4						; size = 4
_lpMsg$ = 8						; size = 4
?DGGuildNoticeRecv@@YAXPAUSDHP_GUILDNOTICE@@@Z PROC	; DGGuildNoticeRecv, COMDAT

; 1340 : {

  00000	55		 push	 ebp
  00001	8b ec		 mov	 ebp, esp
  00003	83 ec 48	 sub	 esp, 72			; 00000048H
  00006	53		 push	 ebx
  00007	56		 push	 esi
  00008	57		 push	 edi

; 1341 : 	LPGUILD_INFO lpNode;
; 1342 : 	lpNode = Guild.SearchGuild(lpMsg->GuildName);

  00009	8b 45 08	 mov	 eax, DWORD PTR _lpMsg$[ebp]
  0000c	83 c0 03	 add	 eax, 3
  0000f	50		 push	 eax
  00010	b9 00 00 00 00	 mov	 ecx, OFFSET ?Guild@@3VCGuildClass@@A ; Guild
  00015	e8 00 00 00 00	 call	 ?SearchGuild@CGuildClass@@QAEPAU_GUILD_INFO_STRUCT@@PAD@Z ; CGuildClass::SearchGuild
  0001a	89 45 fc	 mov	 DWORD PTR _lpNode$[ebp], eax

; 1343 : 
; 1344 : 	if( lpNode == NULL ) return;

  0001d	83 7d fc 00	 cmp	 DWORD PTR _lpNode$[ebp], 0
  00021	75 05		 jne	 SHORT $LN5@DGGuildNot
  00023	e9 9e 00 00 00	 jmp	 $LN1@DGGuildNot
$LN5@DGGuildNot:

; 1345 : 
; 1346 : #ifdef UNICODE_MODE_20050718
; 1347 : 	memcpy(lpNode->Notice, lpMsg->szGuildNotice, MAX_GUILDNOTICE);
; 1348 : #else
; 1349 : 	strcpy(lpNode->Notice, lpMsg->szGuildNotice);

  00028	8b 45 08	 mov	 eax, DWORD PTR _lpMsg$[ebp]
  0002b	83 c0 0c	 add	 eax, 12			; 0000000cH
  0002e	50		 push	 eax
  0002f	8b 4d fc	 mov	 ecx, DWORD PTR _lpNode$[ebp]
  00032	81 c1 9c 05 00
	00		 add	 ecx, 1436		; 0000059cH
  00038	51		 push	 ecx
  00039	e8 00 00 00 00	 call	 _strcpy
  0003e	83 c4 08	 add	 esp, 8

; 1350 : 	LogAddTD(lMsg.Get(444), lpMsg->GuildName, lpMsg->szGuildNotice);

  00041	8b 45 08	 mov	 eax, DWORD PTR _lpMsg$[ebp]
  00044	83 c0 0c	 add	 eax, 12			; 0000000cH
  00047	50		 push	 eax
  00048	8b 4d 08	 mov	 ecx, DWORD PTR _lpMsg$[ebp]
  0004b	83 c1 03	 add	 ecx, 3
  0004e	51		 push	 ecx
  0004f	68 bc 01 00 00	 push	 444			; 000001bcH
  00054	b9 00 00 00 00	 mov	 ecx, OFFSET ?lMsg@@3VCMsg@@A ; lMsg
  00059	ff 15 00 00 00
	00		 call	 DWORD PTR __imp_?Get@CMsg@@QAEPADH@Z
  0005f	50		 push	 eax
  00060	ff 15 00 00 00
	00		 call	 DWORD PTR ?LogAddTD@@3P6AXPADZZA ; LogAddTD
  00066	83 c4 0c	 add	 esp, 12			; 0000000cH

; 1351 : #endif
; 1352 : 
; 1353 : #ifdef APPLY_TESTSERVER1
; 1354 : 	if( !gGuildNoticeStringCheck(lpNode->Notice) )
; 1355 : 	{
; 1356 : 		return;
; 1357 : 	}
; 1358 : #endif
; 1359 : 
; 1360 : 	for( int n=0; n<MAX_GUILD; n++)

  00069	c7 45 f8 00 00
	00 00		 mov	 DWORD PTR _n$1[ebp], 0
  00070	eb 09		 jmp	 SHORT $LN4@DGGuildNot
$LN2@DGGuildNot:
  00072	8b 45 f8	 mov	 eax, DWORD PTR _n$1[ebp]
  00075	83 c0 01	 add	 eax, 1
  00078	89 45 f8	 mov	 DWORD PTR _n$1[ebp], eax
$LN4@DGGuildNot:
  0007b	83 7d f8 50	 cmp	 DWORD PTR _n$1[ebp], 80	; 00000050H
  0007f	7d 45		 jge	 SHORT $LN1@DGGuildNot

; 1361 : 	{
; 1362 : 		if( (lpNode->Use[n] > 0) && (lpNode->Index[n] >= 0) )

  00081	8b 45 fc	 mov	 eax, DWORD PTR _lpNode$[ebp]
  00084	03 45 f8	 add	 eax, DWORD PTR _n$1[ebp]
  00087	0f b6 88 40 04
	00 00		 movzx	 ecx, BYTE PTR [eax+1088]
  0008e	85 c9		 test	 ecx, ecx
  00090	7e 32		 jle	 SHORT $LN6@DGGuildNot
  00092	8b 45 f8	 mov	 eax, DWORD PTR _n$1[ebp]
  00095	8b 4d fc	 mov	 ecx, DWORD PTR _lpNode$[ebp]
  00098	0f bf 94 41 a0
	03 00 00	 movsx	 edx, WORD PTR [ecx+eax*2+928]
  000a0	85 d2		 test	 edx, edx
  000a2	7c 20		 jl	 SHORT $LN6@DGGuildNot

; 1363 : 		{
; 1364 : #ifdef UNICODE_MODE_20050718
; 1365 : 			PMSG_NOTICE	pNotice;
; 1366 : 			TNotice::MakeNoticeMsgUnicode( &pNotice, 2, lpMsg->szGuildNotice, MAX_GUILDNOTICE);
; 1367 : 			DataSend(lpNode->Index[n], (LPBYTE)&pNotice, pNotice.h.size);
; 1368 : #else
; 1369 : 			GCServerMsgStringSend(lpMsg->szGuildNotice, lpNode->Index[n], 2);

  000a4	6a 02		 push	 2
  000a6	8b 45 f8	 mov	 eax, DWORD PTR _n$1[ebp]
  000a9	8b 4d fc	 mov	 ecx, DWORD PTR _lpNode$[ebp]
  000ac	0f bf 94 41 a0
	03 00 00	 movsx	 edx, WORD PTR [ecx+eax*2+928]
  000b4	52		 push	 edx
  000b5	8b 45 08	 mov	 eax, DWORD PTR _lpMsg$[ebp]
  000b8	83 c0 0c	 add	 eax, 12			; 0000000cH
  000bb	50		 push	 eax
  000bc	e8 00 00 00 00	 call	 ?GCServerMsgStringSend@@YAXPADHE@Z ; GCServerMsgStringSend
  000c1	83 c4 0c	 add	 esp, 12			; 0000000cH
$LN6@DGGuildNot:

; 1370 : #endif
; 1371 : 		}
; 1372 : 	}

  000c4	eb ac		 jmp	 SHORT $LN2@DGGuildNot
$LN1@DGGuildNot:

; 1373 : }

  000c6	5f		 pop	 edi
  000c7	5e		 pop	 esi
  000c8	5b		 pop	 ebx
  000c9	8b e5		 mov	 esp, ebp
  000cb	5d		 pop	 ebp
  000cc	c3		 ret	 0
?DGGuildNoticeRecv@@YAXPAUSDHP_GUILDNOTICE@@@Z ENDP	; DGGuildNoticeRecv
_TEXT	ENDS
; Function compile flags: /Odtp /ZI
; File C:\Mu Online\Mu-GS-Webzen-MC-10093\GameServer\EDSProtocol.cpp
;	COMDAT ?GDGuildScoreUpdateRecv@@YAXPAUSDHP_GUILDSCOREUPDATE@@@Z
_TEXT	SEGMENT
_lpNode$ = -4						; size = 4
_lpMsg$ = 8						; size = 4
?GDGuildScoreUpdateRecv@@YAXPAUSDHP_GUILDSCOREUPDATE@@@Z PROC ; GDGuildScoreUpdateRecv, COMDAT

; 1295 : {

  00000	55		 push	 ebp
  00001	8b ec		 mov	 ebp, esp
  00003	83 ec 44	 sub	 esp, 68			; 00000044H
  00006	53		 push	 ebx
  00007	56		 push	 esi
  00008	57		 push	 edi

; 1296 : 	LPGUILD_INFO lpNode;
; 1297 : 	lpNode = Guild.SearchGuild(lpMsg->GuildName);

  00009	8b 45 08	 mov	 eax, DWORD PTR _lpMsg$[ebp]
  0000c	83 c0 03	 add	 eax, 3
  0000f	50		 push	 eax
  00010	b9 00 00 00 00	 mov	 ecx, OFFSET ?Guild@@3VCGuildClass@@A ; Guild
  00015	e8 00 00 00 00	 call	 ?SearchGuild@CGuildClass@@QAEPAU_GUILD_INFO_STRUCT@@PAD@Z ; CGuildClass::SearchGuild
  0001a	89 45 fc	 mov	 DWORD PTR _lpNode$[ebp], eax

; 1298 : 
; 1299 : 	if( lpNode == NULL ) return;

  0001d	83 7d fc 00	 cmp	 DWORD PTR _lpNode$[ebp], 0
  00021	75 02		 jne	 SHORT $LN2@GDGuildSco
  00023	eb 37		 jmp	 SHORT $LN1@GDGuildSco
$LN2@GDGuildSco:

; 1300 : 
; 1301 : 	lpNode->TotalScore = lpMsg->Score;

  00025	8b 45 fc	 mov	 eax, DWORD PTR _lpNode$[ebp]
  00028	8b 4d 08	 mov	 ecx, DWORD PTR _lpMsg$[ebp]
  0002b	8b 51 0c	 mov	 edx, DWORD PTR [ecx+12]
  0002e	89 90 98 05 00
	00		 mov	 DWORD PTR [eax+1432], edx

; 1302 : 	LogAdd(lMsg.Get(443), lpMsg->GuildName, lpMsg->Score);

  00034	8b 45 08	 mov	 eax, DWORD PTR _lpMsg$[ebp]
  00037	8b 48 0c	 mov	 ecx, DWORD PTR [eax+12]
  0003a	51		 push	 ecx
  0003b	8b 55 08	 mov	 edx, DWORD PTR _lpMsg$[ebp]
  0003e	83 c2 03	 add	 edx, 3
  00041	52		 push	 edx
  00042	68 bb 01 00 00	 push	 443			; 000001bbH
  00047	b9 00 00 00 00	 mov	 ecx, OFFSET ?lMsg@@3VCMsg@@A ; lMsg
  0004c	ff 15 00 00 00
	00		 call	 DWORD PTR __imp_?Get@CMsg@@QAEPADH@Z
  00052	50		 push	 eax
  00053	ff 15 00 00 00
	00		 call	 DWORD PTR ?LogAdd@@3P6AXPADZZA ; LogAdd
  00059	83 c4 0c	 add	 esp, 12			; 0000000cH
$LN1@GDGuildSco:

; 1303 : }

  0005c	5f		 pop	 edi
  0005d	5e		 pop	 esi
  0005e	5b		 pop	 ebx
  0005f	8b e5		 mov	 esp, ebp
  00061	5d		 pop	 ebp
  00062	c3		 ret	 0
?GDGuildScoreUpdateRecv@@YAXPAUSDHP_GUILDSCOREUPDATE@@@Z ENDP ; GDGuildScoreUpdateRecv
_TEXT	ENDS
; Function compile flags: /Odtp /ZI
; File C:\Mu Online\Mu-GS-Webzen-MC-10093\GameServer\EDSProtocol.cpp
;	COMDAT ?DGGuildMasterListRecv@@YAXPAE@Z
_TEXT	SEGMENT
$T1 = -116						; size = 4
$T2 = -112						; size = 4
_n$3 = -44						; size = 4
_szMasterName$ = -40					; size = 11
_szGuildName$ = -28					; size = 9
_lOfs$ = -16						; size = 4
_lpList$ = -12						; size = 4
_lpCount$ = -8						; size = 4
__$ArrayPad$ = -4					; size = 4
_lpData$ = 8						; size = 4
?DGGuildMasterListRecv@@YAXPAE@Z PROC			; DGGuildMasterListRecv, COMDAT

; 1213 : {

  00000	55		 push	 ebp
  00001	8b ec		 mov	 ebp, esp
  00003	83 ec 74	 sub	 esp, 116		; 00000074H
  00006	a1 00 00 00 00	 mov	 eax, DWORD PTR ___security_cookie
  0000b	33 c5		 xor	 eax, ebp
  0000d	89 45 fc	 mov	 DWORD PTR __$ArrayPad$[ebp], eax
  00010	53		 push	 ebx
  00011	56		 push	 esi
  00012	57		 push	 edi

; 1214 : 	LPSDHP_GUILDALL_COUNT	lpCount;
; 1215 : 	LPSDHP_GUILDALL			lpList;
; 1216 : 	int						lOfs=sizeof(SDHP_GUILDALL_COUNT);

  00013	c7 45 f0 58 00
	00 00		 mov	 DWORD PTR _lOfs$[ebp], 88 ; 00000058H

; 1217 : 
; 1218 : 	char szGuildName[MAX_GUILDNAMESTRING+1];
; 1219 : 	char szMasterName[MAX_IDSTRING+1];
; 1220 : 
; 1221 : 	memset(szMasterName, 0, MAX_IDSTRING+1);

  0001a	6a 0b		 push	 11			; 0000000bH
  0001c	6a 00		 push	 0
  0001e	8d 45 d8	 lea	 eax, DWORD PTR _szMasterName$[ebp]
  00021	50		 push	 eax
  00022	e8 00 00 00 00	 call	 _memset
  00027	83 c4 0c	 add	 esp, 12			; 0000000cH

; 1222 : 	memset(szGuildName, 0, MAX_GUILDNAMESTRING+1);

  0002a	6a 09		 push	 9
  0002c	6a 00		 push	 0
  0002e	8d 45 e4	 lea	 eax, DWORD PTR _szGuildName$[ebp]
  00031	50		 push	 eax
  00032	e8 00 00 00 00	 call	 _memset
  00037	83 c4 0c	 add	 esp, 12			; 0000000cH

; 1223 : 
; 1224 : 	lpCount = (LPSDHP_GUILDALL_COUNT)lpData;

  0003a	8b 45 08	 mov	 eax, DWORD PTR _lpData$[ebp]
  0003d	89 45 f8	 mov	 DWORD PTR _lpCount$[ebp], eax

; 1225 : 
; 1226 : 	memcpy(szGuildName, lpCount->GuildName, MAX_GUILDNAMESTRING);

  00040	6a 08		 push	 8
  00042	8b 45 f8	 mov	 eax, DWORD PTR _lpCount$[ebp]
  00045	83 c0 08	 add	 eax, 8
  00048	50		 push	 eax
  00049	8d 4d e4	 lea	 ecx, DWORD PTR _szGuildName$[ebp]
  0004c	51		 push	 ecx
  0004d	e8 00 00 00 00	 call	 _memcpy
  00052	83 c4 0c	 add	 esp, 12			; 0000000cH

; 1227 : #ifdef GUILD_REWORK
; 1228 : 	memcpy(szMasterName, lpCount->Master, MAX_IDSTRING);	// #BUGFIX_20040615_01

  00055	6a 0a		 push	 10			; 0000000aH
  00057	8b 45 f8	 mov	 eax, DWORD PTR _lpCount$[ebp]
  0005a	83 c0 11	 add	 eax, 17			; 00000011H
  0005d	50		 push	 eax
  0005e	8d 4d d8	 lea	 ecx, DWORD PTR _szMasterName$[ebp]
  00061	51		 push	 ecx
  00062	e8 00 00 00 00	 call	 _memcpy
  00067	83 c4 0c	 add	 esp, 12			; 0000000cH

; 1229 : #endif
; 1230 : 
; 1231 : 	szGuildName[MAX_GUILDNAMESTRING] = '\0';

  0006a	b8 01 00 00 00	 mov	 eax, 1
  0006f	c1 e0 03	 shl	 eax, 3
  00072	89 45 90	 mov	 DWORD PTR $T2[ebp], eax
  00075	83 7d 90 09	 cmp	 DWORD PTR $T2[ebp], 9
  00079	73 02		 jae	 SHORT $LN9@DGGuildMas
  0007b	eb 05		 jmp	 SHORT $LN10@DGGuildMas
$LN9@DGGuildMas:
  0007d	e8 00 00 00 00	 call	 ___report_rangecheckfailure
$LN10@DGGuildMas:
  00082	8b 4d 90	 mov	 ecx, DWORD PTR $T2[ebp]
  00085	c6 44 0d e4 00	 mov	 BYTE PTR _szGuildName$[ebp+ecx], 0

; 1232 : 	szMasterName[MAX_IDSTRING] = '\0';

  0008a	b8 01 00 00 00	 mov	 eax, 1
  0008f	6b c8 0a	 imul	 ecx, eax, 10
  00092	89 4d 8c	 mov	 DWORD PTR $T1[ebp], ecx
  00095	83 7d 8c 0b	 cmp	 DWORD PTR $T1[ebp], 11	; 0000000bH
  00099	73 02		 jae	 SHORT $LN11@DGGuildMas
  0009b	eb 05		 jmp	 SHORT $LN12@DGGuildMas
$LN11@DGGuildMas:
  0009d	e8 00 00 00 00	 call	 ___report_rangecheckfailure
$LN12@DGGuildMas:
  000a2	8b 55 8c	 mov	 edx, DWORD PTR $T1[ebp]
  000a5	c6 44 15 d8 00	 mov	 BYTE PTR _szMasterName$[ebp+edx], 0

; 1233 : 
; 1234 : 	if( strlen(szGuildName) < 1 ) return;

  000aa	8d 45 e4	 lea	 eax, DWORD PTR _szGuildName$[ebp]
  000ad	50		 push	 eax
  000ae	e8 00 00 00 00	 call	 _strlen
  000b3	83 c4 04	 add	 esp, 4
  000b6	83 f8 01	 cmp	 eax, 1
  000b9	73 05		 jae	 SHORT $LN5@DGGuildMas
  000bb	e9 a6 00 00 00	 jmp	 $LN8@DGGuildMas
$LN5@DGGuildMas:

; 1235 : 	if( lpCount->Count < 1 ) return;

  000c0	8b 45 f8	 mov	 eax, DWORD PTR _lpCount$[ebp]
  000c3	0f b6 48 55	 movzx	 ecx, BYTE PTR [eax+85]
  000c7	83 f9 01	 cmp	 ecx, 1
  000ca	7d 05		 jge	 SHORT $LN6@DGGuildMas
  000cc	e9 95 00 00 00	 jmp	 $LN8@DGGuildMas
$LN6@DGGuildMas:

; 1236 : 
; 1237 : #ifdef GUILD_REWORK
; 1238 : 	Guild.AddGuild(lpCount->Number, szGuildName, lpCount->Mark, szMasterName, lpCount->score);

  000d1	8b 45 f8	 mov	 eax, DWORD PTR _lpCount$[ebp]
  000d4	8b 48 3c	 mov	 ecx, DWORD PTR [eax+60]
  000d7	51		 push	 ecx
  000d8	8d 55 d8	 lea	 edx, DWORD PTR _szMasterName$[ebp]
  000db	52		 push	 edx
  000dc	8b 45 f8	 mov	 eax, DWORD PTR _lpCount$[ebp]
  000df	83 c0 1c	 add	 eax, 28			; 0000001cH
  000e2	50		 push	 eax
  000e3	8d 4d e4	 lea	 ecx, DWORD PTR _szGuildName$[ebp]
  000e6	51		 push	 ecx
  000e7	8b 55 f8	 mov	 edx, DWORD PTR _lpCount$[ebp]
  000ea	8b 42 04	 mov	 eax, DWORD PTR [edx+4]
  000ed	50		 push	 eax
  000ee	b9 00 00 00 00	 mov	 ecx, OFFSET ?Guild@@3VCGuildClass@@A ; Guild
  000f3	e8 00 00 00 00	 call	 ?AddGuild@CGuildClass@@QAEPAU_GUILD_INFO_STRUCT@@HPADPAE0H@Z ; CGuildClass::AddGuild

; 1239 : #endif
; 1240 : 	
; 1241 : #ifdef ADD_NEW_GUILD_02_20040922
; 1242 : 	Guild.SetGuildType( szGuildName, lpCount->btGuildType );
; 1243 : #endif
; 1244 : 
; 1245 : #ifdef ADD_NEW_UNION_01_20041006
; 1246 : 	LPGUILD_INFO lpGuild = Guild.SearchGuild_Number( lpCount->Number );
; 1247 : 	if( lpGuild != NULL )
; 1248 : 	{
; 1249 : 		lpGuild->iGuildUnion = lpCount->iGuildUnion;
; 1250 : 		lpGuild->iGuildRival = lpCount->iGuildRival;
; 1251 : 		
; 1252 : 		memcpy( lpGuild->szGuildRivalName, lpCount->szGuildRivalName, MAX_GUILDNAMESTRING );
; 1253 : 	}
; 1254 : #endif
; 1255 : 
; 1256 : 	for( int n=0; n<lpCount->Count; n++)

  000f8	c7 45 d4 00 00
	00 00		 mov	 DWORD PTR _n$3[ebp], 0
  000ff	eb 09		 jmp	 SHORT $LN4@DGGuildMas
$LN2@DGGuildMas:
  00101	8b 45 d4	 mov	 eax, DWORD PTR _n$3[ebp]
  00104	83 c0 01	 add	 eax, 1
  00107	89 45 d4	 mov	 DWORD PTR _n$3[ebp], eax
$LN4@DGGuildMas:
  0010a	8b 45 f8	 mov	 eax, DWORD PTR _lpCount$[ebp]
  0010d	0f b6 48 55	 movzx	 ecx, BYTE PTR [eax+85]
  00111	39 4d d4	 cmp	 DWORD PTR _n$3[ebp], ecx
  00114	7d 50		 jge	 SHORT $LN8@DGGuildMas

; 1257 : 	{
; 1258 : 		lpList = (LPSDHP_GUILDALL)(lpData+lOfs);

  00116	8b 45 08	 mov	 eax, DWORD PTR _lpData$[ebp]
  00119	03 45 f0	 add	 eax, DWORD PTR _lOfs$[ebp]
  0011c	89 45 f4	 mov	 DWORD PTR _lpList$[ebp], eax

; 1259 : 		memcpy( szMasterName, lpList->MemberID, MAX_IDSTRING);

  0011f	6a 0a		 push	 10			; 0000000aH
  00121	8b 45 f4	 mov	 eax, DWORD PTR _lpList$[ebp]
  00124	50		 push	 eax
  00125	8d 4d d8	 lea	 ecx, DWORD PTR _szMasterName$[ebp]
  00128	51		 push	 ecx
  00129	e8 00 00 00 00	 call	 _memcpy
  0012e	83 c4 0c	 add	 esp, 12			; 0000000cH

; 1260 : #ifdef GUILD_REWORK
; 1261 : 
; 1262 : #ifdef ADD_NEW_GUILD_01_20040913
; 1263 : 		if( Guild.AddMember(szGuildName, szMasterName, -1, (int)lpCount->Count, lpList->btGuildStatus, lpList->pServer) == NULL ) 
; 1264 : #else
; 1265 : 		if( Guild.AddMember(szGuildName, szMasterName, -1, (int)lpCount->Count, lpList->pServer) == NULL ) 

  00131	8b 45 f4	 mov	 eax, DWORD PTR _lpList$[ebp]
  00134	0f bf 48 0c	 movsx	 ecx, WORD PTR [eax+12]
  00138	51		 push	 ecx
  00139	8b 55 f8	 mov	 edx, DWORD PTR _lpCount$[ebp]
  0013c	0f b6 42 55	 movzx	 eax, BYTE PTR [edx+85]
  00140	50		 push	 eax
  00141	6a ff		 push	 -1
  00143	8d 4d d8	 lea	 ecx, DWORD PTR _szMasterName$[ebp]
  00146	51		 push	 ecx
  00147	8d 55 e4	 lea	 edx, DWORD PTR _szGuildName$[ebp]
  0014a	52		 push	 edx
  0014b	b9 00 00 00 00	 mov	 ecx, OFFSET ?Guild@@3VCGuildClass@@A ; Guild
  00150	e8 00 00 00 00	 call	 ?AddMember@CGuildClass@@QAEPAU_GUILD_INFO_STRUCT@@PAD0HHH@Z ; CGuildClass::AddMember
  00155	85 c0		 test	 eax, eax
  00157	75 02		 jne	 SHORT $LN7@DGGuildMas

; 1266 : #endif
; 1267 : 		{
; 1268 : 			// 추가할 수 없다면 종료한다.
; 1269 : 			return;

  00159	eb 0b		 jmp	 SHORT $LN8@DGGuildMas
$LN7@DGGuildMas:

; 1270 : 		}
; 1271 : #else
; 1272 : 		Guild.AddMember(szGuildName, szMasterName, -1, (int)lpCount->Count, lpList->pServer);
; 1273 : #endif
; 1274 : 		lOfs+= sizeof( SDHP_GUILDALL );

  0015b	8b 45 f0	 mov	 eax, DWORD PTR _lOfs$[ebp]
  0015e	83 c0 0e	 add	 eax, 14			; 0000000eH
  00161	89 45 f0	 mov	 DWORD PTR _lOfs$[ebp], eax

; 1275 : 		//LogAdd("마스터 접속 리스트 갱신 : %s",lpList->MemberID);
; 1276 : 	}

  00164	eb 9b		 jmp	 SHORT $LN2@DGGuildMas
$LN8@DGGuildMas:

; 1277 : }

  00166	5f		 pop	 edi
  00167	5e		 pop	 esi
  00168	5b		 pop	 ebx
  00169	8b 4d fc	 mov	 ecx, DWORD PTR __$ArrayPad$[ebp]
  0016c	33 cd		 xor	 ecx, ebp
  0016e	e8 00 00 00 00	 call	 @__security_check_cookie@4
  00173	8b e5		 mov	 esp, ebp
  00175	5d		 pop	 ebp
  00176	c3		 ret	 0
?DGGuildMasterListRecv@@YAXPAE@Z ENDP			; DGGuildMasterListRecv
_TEXT	ENDS
; Function compile flags: /Odtp /ZI
; File C:\Mu Online\Mu-GS-Webzen-MC-10093\GameServer\EDSProtocol.cpp
;	COMDAT ?DGGuildList@@YAXPAUSDHP_GUILDCREATED@@@Z
_TEXT	SEGMENT
_szTemp$ = -260						; size = 256
__$ArrayPad$ = -4					; size = 4
_lpMsg$ = 8						; size = 4
?DGGuildList@@YAXPAUSDHP_GUILDCREATED@@@Z PROC		; DGGuildList, COMDAT

; 1386 : {

  00000	55		 push	 ebp
  00001	8b ec		 mov	 ebp, esp
  00003	81 ec 44 01 00
	00		 sub	 esp, 324		; 00000144H
  00009	a1 00 00 00 00	 mov	 eax, DWORD PTR ___security_cookie
  0000e	33 c5		 xor	 eax, ebp
  00010	89 45 fc	 mov	 DWORD PTR __$ArrayPad$[ebp], eax
  00013	53		 push	 ebx
  00014	56		 push	 esi
  00015	57		 push	 edi

; 1387 : 	char szTemp[256];
; 1388 : 
; 1389 : 	Guild.AddGuild(lpMsg->Number, lpMsg->GuildName, lpMsg->Mark, lpMsg->Master, lpMsg->score);

  00016	8b 45 08	 mov	 eax, DWORD PTR _lpMsg$[ebp]
  00019	8b 48 3c	 mov	 ecx, DWORD PTR [eax+60]
  0001c	51		 push	 ecx
  0001d	8b 55 08	 mov	 edx, DWORD PTR _lpMsg$[ebp]
  00020	83 c2 0f	 add	 edx, 15			; 0000000fH
  00023	52		 push	 edx
  00024	8b 45 08	 mov	 eax, DWORD PTR _lpMsg$[ebp]
  00027	83 c0 1a	 add	 eax, 26			; 0000001aH
  0002a	50		 push	 eax
  0002b	8b 4d 08	 mov	 ecx, DWORD PTR _lpMsg$[ebp]
  0002e	83 c1 06	 add	 ecx, 6
  00031	51		 push	 ecx
  00032	8b 55 08	 mov	 edx, DWORD PTR _lpMsg$[ebp]
  00035	0f b7 42 04	 movzx	 eax, WORD PTR [edx+4]
  00039	50		 push	 eax
  0003a	b9 00 00 00 00	 mov	 ecx, OFFSET ?Guild@@3VCGuildClass@@A ; Guild
  0003f	e8 00 00 00 00	 call	 ?AddGuild@CGuildClass@@QAEPAU_GUILD_INFO_STRUCT@@HPADPAE0H@Z ; CGuildClass::AddGuild

; 1390 : 
; 1391 : 	if( GuildListhDlg )

  00044	83 3d 00 00 00
	00 00		 cmp	 DWORD PTR ?GuildListhDlg@@3PAUHWND__@@A, 0 ; GuildListhDlg
  0004b	74 69		 je	 SHORT $LN1@DGGuildLis

; 1392 : 	{
; 1393 : 		SendMessage(GuildListhPrs, PBM_SETPOS, gGuildListCount, 0);

  0004d	6a 00		 push	 0
  0004f	a1 00 00 00 00	 mov	 eax, DWORD PTR ?gGuildListCount@@3HA ; gGuildListCount
  00054	50		 push	 eax
  00055	68 02 04 00 00	 push	 1026			; 00000402H
  0005a	8b 0d 00 00 00
	00		 mov	 ecx, DWORD PTR ?GuildListhPrs@@3PAUHWND__@@A ; GuildListhPrs
  00060	51		 push	 ecx
  00061	ff 15 00 00 00
	00		 call	 DWORD PTR __imp__SendMessageA@16

; 1394 : 		gGuildListCount++;	

  00067	a1 00 00 00 00	 mov	 eax, DWORD PTR ?gGuildListCount@@3HA ; gGuildListCount
  0006c	83 c0 01	 add	 eax, 1
  0006f	a3 00 00 00 00	 mov	 DWORD PTR ?gGuildListCount@@3HA, eax ; gGuildListCount

; 1395 : 		wsprintf(szTemp, "%8s [%d / %d]", lpMsg->GuildName, gGuildListCount, gGuildListTotal);

  00074	a1 00 00 00 00	 mov	 eax, DWORD PTR ?gGuildListTotal@@3HA ; gGuildListTotal
  00079	50		 push	 eax
  0007a	8b 0d 00 00 00
	00		 mov	 ecx, DWORD PTR ?gGuildListCount@@3HA ; gGuildListCount
  00080	51		 push	 ecx
  00081	8b 55 08	 mov	 edx, DWORD PTR _lpMsg$[ebp]
  00084	83 c2 06	 add	 edx, 6
  00087	52		 push	 edx
  00088	68 00 00 00 00	 push	 OFFSET ??_C@_0O@BNCDNIJM@?$CF8s?5?$FL?$CFd?5?1?5?$CFd?$FN@
  0008d	8d 85 fc fe ff
	ff		 lea	 eax, DWORD PTR _szTemp$[ebp]
  00093	50		 push	 eax
  00094	ff 15 00 00 00
	00		 call	 DWORD PTR __imp__wsprintfA
  0009a	83 c4 14	 add	 esp, 20			; 00000014H

; 1396 : 		SetDlgItemText(GuildListhDlg,IDC_LIST_STATE, szTemp);

  0009d	8d 85 fc fe ff
	ff		 lea	 eax, DWORD PTR _szTemp$[ebp]
  000a3	50		 push	 eax
  000a4	68 e9 03 00 00	 push	 1001			; 000003e9H
  000a9	8b 0d 00 00 00
	00		 mov	 ecx, DWORD PTR ?GuildListhDlg@@3PAUHWND__@@A ; GuildListhDlg
  000af	51		 push	 ecx
  000b0	ff 15 00 00 00
	00		 call	 DWORD PTR __imp__SetDlgItemTextA@12
$LN1@DGGuildLis:

; 1397 : 	}
; 1398 : }

  000b6	5f		 pop	 edi
  000b7	5e		 pop	 esi
  000b8	5b		 pop	 ebx
  000b9	8b 4d fc	 mov	 ecx, DWORD PTR __$ArrayPad$[ebp]
  000bc	33 cd		 xor	 ecx, ebp
  000be	e8 00 00 00 00	 call	 @__security_check_cookie@4
  000c3	8b e5		 mov	 esp, ebp
  000c5	5d		 pop	 ebp
  000c6	c3		 ret	 0
?DGGuildList@@YAXPAUSDHP_GUILDCREATED@@@Z ENDP		; DGGuildList
_TEXT	ENDS
; Function compile flags: /Odtp /ZI
; File C:\Mu Online\Mu-GS-Webzen-MC-10093\GameServer\EDSProtocol.cpp
;	COMDAT ?GDGuildDestroyRecv@@YAXPAUSDHP_GUILDDESTROY_RESULT@@@Z
_TEXT	SEGMENT
$T1 = -108						; size = 4
$T2 = -104						; size = 4
_n$3 = -36						; size = 4
_szGuildName$ = -32					; size = 9
_szMaster$ = -20					; size = 11
_aIndex$ = -8						; size = 4
__$ArrayPad$ = -4					; size = 4
_lpMsg$ = 8						; size = 4
?GDGuildDestroyRecv@@YAXPAUSDHP_GUILDDESTROY_RESULT@@@Z PROC ; GDGuildDestroyRecv, COMDAT

; 515  : 	{

  00000	55		 push	 ebp
  00001	8b ec		 mov	 ebp, esp
  00003	83 ec 6c	 sub	 esp, 108		; 0000006cH
  00006	a1 00 00 00 00	 mov	 eax, DWORD PTR ___security_cookie
  0000b	33 c5		 xor	 eax, ebp
  0000d	89 45 fc	 mov	 DWORD PTR __$ArrayPad$[ebp], eax
  00010	53		 push	 ebx
  00011	56		 push	 esi
  00012	57		 push	 edi

; 516  : 		int aIndex = -1;

  00013	c7 45 f8 ff ff
	ff ff		 mov	 DWORD PTR _aIndex$[ebp], -1

; 517  : 		char szMaster[MAX_IDSTRING+1];
; 518  : 		char szGuildName[MAX_GUILDNAMESTRING+1];
; 519  : 
; 520  : 		szMaster[MAX_IDSTRING] = '\0';

  0001a	b8 01 00 00 00	 mov	 eax, 1
  0001f	6b c8 0a	 imul	 ecx, eax, 10
  00022	89 4d 98	 mov	 DWORD PTR $T2[ebp], ecx
  00025	83 7d 98 0b	 cmp	 DWORD PTR $T2[ebp], 11	; 0000000bH
  00029	73 02		 jae	 SHORT $LN16@GDGuildDes
  0002b	eb 05		 jmp	 SHORT $LN17@GDGuildDes
$LN16@GDGuildDes:
  0002d	e8 00 00 00 00	 call	 ___report_rangecheckfailure
$LN17@GDGuildDes:
  00032	8b 55 98	 mov	 edx, DWORD PTR $T2[ebp]
  00035	c6 44 15 ec 00	 mov	 BYTE PTR _szMaster$[ebp+edx], 0

; 521  : 		szGuildName[MAX_GUILDNAMESTRING]='\0';

  0003a	b8 01 00 00 00	 mov	 eax, 1
  0003f	c1 e0 03	 shl	 eax, 3
  00042	89 45 94	 mov	 DWORD PTR $T1[ebp], eax
  00045	83 7d 94 09	 cmp	 DWORD PTR $T1[ebp], 9
  00049	73 02		 jae	 SHORT $LN18@GDGuildDes
  0004b	eb 05		 jmp	 SHORT $LN19@GDGuildDes
$LN18@GDGuildDes:
  0004d	e8 00 00 00 00	 call	 ___report_rangecheckfailure
$LN19@GDGuildDes:
  00052	8b 4d 94	 mov	 ecx, DWORD PTR $T1[ebp]
  00055	c6 44 0d e0 00	 mov	 BYTE PTR _szGuildName$[ebp+ecx], 0

; 522  : 
; 523  : 		memcpy(szMaster, lpMsg->Master, MAX_IDSTRING);

  0005a	6a 0a		 push	 10			; 0000000aH
  0005c	8b 45 08	 mov	 eax, DWORD PTR _lpMsg$[ebp]
  0005f	83 c0 10	 add	 eax, 16			; 00000010H
  00062	50		 push	 eax
  00063	8d 4d ec	 lea	 ecx, DWORD PTR _szMaster$[ebp]
  00066	51		 push	 ecx
  00067	e8 00 00 00 00	 call	 _memcpy
  0006c	83 c4 0c	 add	 esp, 12			; 0000000cH

; 524  : 		memcpy(szGuildName, lpMsg->GuildName, MAX_GUILDNAMESTRING);

  0006f	6a 08		 push	 8
  00071	8b 45 08	 mov	 eax, DWORD PTR _lpMsg$[ebp]
  00074	83 c0 07	 add	 eax, 7
  00077	50		 push	 eax
  00078	8d 4d e0	 lea	 ecx, DWORD PTR _szGuildName$[ebp]
  0007b	51		 push	 ecx
  0007c	e8 00 00 00 00	 call	 _memcpy
  00081	83 c4 0c	 add	 esp, 12			; 0000000cH

; 525  : 
; 526  : 		if( lpMsg->Flag == 0x01 )	// 우리 서버의 사용자야?

  00084	8b 45 08	 mov	 eax, DWORD PTR _lpMsg$[ebp]
  00087	0f b6 48 04	 movzx	 ecx, BYTE PTR [eax+4]
  0008b	83 f9 01	 cmp	 ecx, 1
  0008e	0f 85 ab 00 00
	00		 jne	 $LN5@GDGuildDes

; 527  : 		{
; 528  : 			aIndex = MAKEWORD(lpMsg->NumberL, lpMsg->NumberH);

  00094	8b 45 08	 mov	 eax, DWORD PTR _lpMsg$[ebp]
  00097	0f b6 48 06	 movzx	 ecx, BYTE PTR [eax+6]
  0009b	81 e1 ff 00 00
	00		 and	 ecx, 255		; 000000ffH
  000a1	0f b6 d1	 movzx	 edx, cl
  000a4	8b 45 08	 mov	 eax, DWORD PTR _lpMsg$[ebp]
  000a7	0f b6 48 05	 movzx	 ecx, BYTE PTR [eax+5]
  000ab	81 e1 ff 00 00
	00		 and	 ecx, 255		; 000000ffH
  000b1	0f b6 c1	 movzx	 eax, cl
  000b4	c1 e0 08	 shl	 eax, 8
  000b7	0b d0		 or	 edx, eax
  000b9	0f b7 ca	 movzx	 ecx, dx
  000bc	89 4d f8	 mov	 DWORD PTR _aIndex$[ebp], ecx

; 529  : 			if( gObjIsConnected(aIndex) == TRUE ) 

  000bf	8b 45 f8	 mov	 eax, DWORD PTR _aIndex$[ebp]
  000c2	50		 push	 eax
  000c3	e8 00 00 00 00	 call	 ?gObjIsConnected@@YAHH@Z ; gObjIsConnected
  000c8	83 c4 04	 add	 esp, 4
  000cb	83 f8 01	 cmp	 eax, 1
  000ce	75 6f		 jne	 SHORT $LN5@GDGuildDes

; 530  : 			{
; 531  : 				if( szMaster[0] == gObj[aIndex].Name[0] )

  000d0	b8 01 00 00 00	 mov	 eax, 1
  000d5	6b c8 00	 imul	 ecx, eax, 0
  000d8	0f be 54 0d ec	 movsx	 edx, BYTE PTR _szMaster$[ebp+ecx]
  000dd	69 45 f8 a0 1b
	00 00		 imul	 eax, DWORD PTR _aIndex$[ebp], 7072
  000e4	03 05 00 00 00
	00		 add	 eax, DWORD PTR ?gObj@@3PAVOBJECTSTRUCT@@A ; gObj
  000ea	b9 01 00 00 00	 mov	 ecx, 1
  000ef	6b c9 00	 imul	 ecx, ecx, 0
  000f2	0f be 44 08 73	 movsx	 eax, BYTE PTR [eax+ecx+115]
  000f7	3b d0		 cmp	 edx, eax
  000f9	75 44		 jne	 SHORT $LN5@GDGuildDes

; 532  : 				{
; 533  : 					if( strcmp(szMaster, gObj[aIndex].Name ) == 0 ) 

  000fb	69 45 f8 a0 1b
	00 00		 imul	 eax, DWORD PTR _aIndex$[ebp], 7072
  00102	8b 0d 00 00 00
	00		 mov	 ecx, DWORD PTR ?gObj@@3PAVOBJECTSTRUCT@@A ; gObj
  00108	8d 54 01 73	 lea	 edx, DWORD PTR [ecx+eax+115]
  0010c	52		 push	 edx
  0010d	8d 45 ec	 lea	 eax, DWORD PTR _szMaster$[ebp]
  00110	50		 push	 eax
  00111	e8 00 00 00 00	 call	 _strcmp
  00116	83 c4 08	 add	 esp, 8
  00119	85 c0		 test	 eax, eax
  0011b	75 22		 jne	 SHORT $LN5@GDGuildDes

; 534  : 					{
; 535  : 						GCResultSend(aIndex, 0x53, lpMsg->Result);

  0011d	8b 45 08	 mov	 eax, DWORD PTR _lpMsg$[ebp]
  00120	0f b6 48 03	 movzx	 ecx, BYTE PTR [eax+3]
  00124	51		 push	 ecx
  00125	6a 53		 push	 83			; 00000053H
  00127	8b 55 f8	 mov	 edx, DWORD PTR _aIndex$[ebp]
  0012a	52		 push	 edx
  0012b	e8 00 00 00 00	 call	 ?GCResultSend@@YAXHEE@Z	; GCResultSend
  00130	83 c4 0c	 add	 esp, 12			; 0000000cH

; 536  : 
; 537  : 	#ifdef ADD_NEW_UNION_01_20041006
; 538  : 						if( lpMsg->Result == 0x01 || lpMsg->Result == 0x04 )
; 539  : 	#endif	
; 540  : 
; 541  : 	#ifdef GUILD_VIEWPORT_MODIFY
; 542  : 						GCGuildViewportDelNow(aIndex, 1);
; 543  : 	#else
; 544  : 						GCGuildViewportDelNow(aIndex);

  00133	8b 45 f8	 mov	 eax, DWORD PTR _aIndex$[ebp]
  00136	50		 push	 eax
  00137	e8 00 00 00 00	 call	 ?GCGuildViewportDelNow@@YAXH@Z ; GCGuildViewportDelNow
  0013c	83 c4 04	 add	 esp, 4
$LN5@GDGuildDes:

; 545  : 	#endif
; 546  : 						//gObjGuildWarEndSend(&gObj[aIndex], 0x05, 0x04);
; 547  : 					}
; 548  : 				}
; 549  : 			}
; 550  : 		}
; 551  : 		if( lpMsg->Result == 0x01 || lpMsg->Result == 0x04)

  0013f	8b 45 08	 mov	 eax, DWORD PTR _lpMsg$[ebp]
  00142	0f b6 48 03	 movzx	 ecx, BYTE PTR [eax+3]
  00146	83 f9 01	 cmp	 ecx, 1
  00149	74 10		 je	 SHORT $LN10@GDGuildDes
  0014b	8b 45 08	 mov	 eax, DWORD PTR _lpMsg$[ebp]
  0014e	0f b6 48 03	 movzx	 ecx, BYTE PTR [eax+3]
  00152	83 f9 04	 cmp	 ecx, 4
  00155	0f 85 97 01 00
	00		 jne	 $LN15@GDGuildDes
$LN10@GDGuildDes:

; 552  : 		{
; 553  : 
; 554  : 	#ifdef ADD_NEW_UNION_01_20041006
; 555  : 			LPGUILD_INFO lpGuildInfo  = Guild.SearchGuild(szGuildName);
; 556  : 	#endif
; 557  : 
; 558  : 			for( int n=0; n<MAX_OBJECT; n++)

  0015b	c7 45 dc 00 00
	00 00		 mov	 DWORD PTR _n$3[ebp], 0
  00162	eb 09		 jmp	 SHORT $LN4@GDGuildDes
$LN2@GDGuildDes:
  00164	8b 45 dc	 mov	 eax, DWORD PTR _n$3[ebp]
  00167	83 c0 01	 add	 eax, 1
  0016a	89 45 dc	 mov	 DWORD PTR _n$3[ebp], eax
$LN4@GDGuildDes:
  0016d	81 7d dc e8 1c
	00 00		 cmp	 DWORD PTR _n$3[ebp], 7400 ; 00001ce8H
  00174	0f 8d 44 01 00
	00		 jge	 $LN3@GDGuildDes

; 559  : 			{
; 560  : 				if( gObj[n].Connected > 2 )

  0017a	69 45 dc a0 1b
	00 00		 imul	 eax, DWORD PTR _n$3[ebp], 7072
  00181	8b 0d 00 00 00
	00		 mov	 ecx, DWORD PTR ?gObj@@3PAVOBJECTSTRUCT@@A ; gObj
  00187	83 7c 01 04 02	 cmp	 DWORD PTR [ecx+eax+4], 2
  0018c	0f 8e 27 01 00
	00		 jle	 $LN11@GDGuildDes

; 561  : 				{
; 562  : 					if( gObj[n].GuildNumber > 0 )

  00192	69 45 dc a0 1b
	00 00		 imul	 eax, DWORD PTR _n$3[ebp], 7072
  00199	8b 0d 00 00 00
	00		 mov	 ecx, DWORD PTR ?gObj@@3PAVOBJECTSTRUCT@@A ; gObj
  0019f	83 bc 01 90 02
	00 00 00	 cmp	 DWORD PTR [ecx+eax+656], 0
  001a7	0f 8e 0c 01 00
	00		 jle	 $LN11@GDGuildDes

; 563  : 					{					
; 564  : 						if( gObj[n].lpGuild->Name[0] == szGuildName[0] &&

  001ad	69 45 dc a0 1b
	00 00		 imul	 eax, DWORD PTR _n$3[ebp], 7072
  001b4	8b 0d 00 00 00
	00		 mov	 ecx, DWORD PTR ?gObj@@3PAVOBJECTSTRUCT@@A ; gObj
  001ba	8b 94 01 94 02
	00 00		 mov	 edx, DWORD PTR [ecx+eax+660]
  001c1	b8 01 00 00 00	 mov	 eax, 1
  001c6	6b c8 00	 imul	 ecx, eax, 0
  001c9	0f be 54 0a 04	 movsx	 edx, BYTE PTR [edx+ecx+4]
  001ce	b8 01 00 00 00	 mov	 eax, 1
  001d3	6b c8 00	 imul	 ecx, eax, 0
  001d6	0f be 44 0d e0	 movsx	 eax, BYTE PTR _szGuildName$[ebp+ecx]
  001db	3b d0		 cmp	 edx, eax
  001dd	0f 85 d6 00 00
	00		 jne	 $LN11@GDGuildDes
  001e3	69 45 dc a0 1b
	00 00		 imul	 eax, DWORD PTR _n$3[ebp], 7072
  001ea	8b 0d 00 00 00
	00		 mov	 ecx, DWORD PTR ?gObj@@3PAVOBJECTSTRUCT@@A ; gObj
  001f0	8b 94 01 94 02
	00 00		 mov	 edx, DWORD PTR [ecx+eax+660]
  001f7	b8 01 00 00 00	 mov	 eax, 1
  001fc	c1 e0 00	 shl	 eax, 0
  001ff	0f be 4c 02 04	 movsx	 ecx, BYTE PTR [edx+eax+4]
  00204	ba 01 00 00 00	 mov	 edx, 1
  00209	c1 e2 00	 shl	 edx, 0
  0020c	0f be 44 15 e0	 movsx	 eax, BYTE PTR _szGuildName$[ebp+edx]
  00211	3b c8		 cmp	 ecx, eax
  00213	0f 85 a0 00 00
	00		 jne	 $LN11@GDGuildDes

; 565  : 							gObj[n].lpGuild->Name[1] == szGuildName[1])
; 566  : 						{
; 567  : 							if( strcmp(gObj[n].lpGuild->Name, szGuildName ) == 0 )

  00219	8d 45 e0	 lea	 eax, DWORD PTR _szGuildName$[ebp]
  0021c	50		 push	 eax
  0021d	69 4d dc a0 1b
	00 00		 imul	 ecx, DWORD PTR _n$3[ebp], 7072
  00224	8b 15 00 00 00
	00		 mov	 edx, DWORD PTR ?gObj@@3PAVOBJECTSTRUCT@@A ; gObj
  0022a	8b 84 0a 94 02
	00 00		 mov	 eax, DWORD PTR [edx+ecx+660]
  00231	83 c0 04	 add	 eax, 4
  00234	50		 push	 eax
  00235	e8 00 00 00 00	 call	 _strcmp
  0023a	83 c4 08	 add	 esp, 8
  0023d	85 c0		 test	 eax, eax
  0023f	75 78		 jne	 SHORT $LN11@GDGuildDes

; 568  : 							{
; 569  : 								gObj[n].lpGuild     = NULL;

  00241	69 45 dc a0 1b
	00 00		 imul	 eax, DWORD PTR _n$3[ebp], 7072
  00248	8b 0d 00 00 00
	00		 mov	 ecx, DWORD PTR ?gObj@@3PAVOBJECTSTRUCT@@A ; gObj
  0024e	c7 84 01 94 02
	00 00 00 00 00
	00		 mov	 DWORD PTR [ecx+eax+660], 0

; 570  : 								gObj[n].GuildNumber = 0;

  00259	69 45 dc a0 1b
	00 00		 imul	 eax, DWORD PTR _n$3[ebp], 7072
  00260	8b 0d 00 00 00
	00		 mov	 ecx, DWORD PTR ?gObj@@3PAVOBJECTSTRUCT@@A ; gObj
  00266	c7 84 01 90 02
	00 00 00 00 00
	00		 mov	 DWORD PTR [ecx+eax+656], 0

; 571  : 
; 572  : 	#ifdef ADD_NEW_GUILD_01_20040913
; 573  : 								gObj[n].GuildStatus = G_NONE;
; 574  : 	#endif
; 575  : 
; 576  : 	#ifdef ADD_NEW_UNION_01_20041006
; 577  : 								gObj[n].iGuildUnionTimeStamp = 0;
; 578  : 	#endif
; 579  : 								
; 580  : 								GCResultSend(n, 0x53, 0x01);

  00271	6a 01		 push	 1
  00273	6a 53		 push	 83			; 00000053H
  00275	8b 45 dc	 mov	 eax, DWORD PTR _n$3[ebp]
  00278	50		 push	 eax
  00279	e8 00 00 00 00	 call	 ?GCResultSend@@YAXHEE@Z	; GCResultSend
  0027e	83 c4 0c	 add	 esp, 12			; 0000000cH

; 581  : 
; 582  : 	#ifdef GUILD_VIEWPORT_MODIFY
; 583  : 								GCGuildViewportDelNow(n, 0);
; 584  : 	#else
; 585  : 								GCGuildViewportDelNow(n);

  00281	8b 45 dc	 mov	 eax, DWORD PTR _n$3[ebp]
  00284	50		 push	 eax
  00285	e8 00 00 00 00	 call	 ?GCGuildViewportDelNow@@YAXH@Z ; GCGuildViewportDelNow
  0028a	83 c4 04	 add	 esp, 4

; 586  : 	#endif
; 587  : 								LogAdd(lMsg.Get(434), gObj[n].Name);

  0028d	69 45 dc a0 1b
	00 00		 imul	 eax, DWORD PTR _n$3[ebp], 7072
  00294	8b 0d 00 00 00
	00		 mov	 ecx, DWORD PTR ?gObj@@3PAVOBJECTSTRUCT@@A ; gObj
  0029a	8d 54 01 73	 lea	 edx, DWORD PTR [ecx+eax+115]
  0029e	52		 push	 edx
  0029f	68 b2 01 00 00	 push	 434			; 000001b2H
  002a4	b9 00 00 00 00	 mov	 ecx, OFFSET ?lMsg@@3VCMsg@@A ; lMsg
  002a9	ff 15 00 00 00
	00		 call	 DWORD PTR __imp_?Get@CMsg@@QAEPADH@Z
  002af	50		 push	 eax
  002b0	ff 15 00 00 00
	00		 call	 DWORD PTR ?LogAdd@@3P6AXPADZZA ; LogAdd
  002b6	83 c4 08	 add	 esp, 8
$LN11@GDGuildDes:

; 588  : 							}
; 589  : 						}
; 590  : 					}
; 591  : 				}
; 592  : 			}

  002b9	e9 a6 fe ff ff	 jmp	 $LN2@GDGuildDes
$LN3@GDGuildDes:

; 593  : 
; 594  : 	#ifdef ADD_NEW_UNION_01_20041006
; 595  : 			UnionManager.DelUnion( lpGuildInfo->Number );
; 596  : 	#endif
; 597  : 			Guild.DeleteGuild(szGuildName, szMaster);

  002be	8d 45 ec	 lea	 eax, DWORD PTR _szMaster$[ebp]
  002c1	50		 push	 eax
  002c2	8d 4d e0	 lea	 ecx, DWORD PTR _szGuildName$[ebp]
  002c5	51		 push	 ecx
  002c6	b9 00 00 00 00	 mov	 ecx, OFFSET ?Guild@@3VCGuildClass@@A ; Guild
  002cb	e8 00 00 00 00	 call	 ?DeleteGuild@CGuildClass@@QAEHPAD0@Z ; CGuildClass::DeleteGuild

; 598  : 			LogAdd(lMsg.Get(435), szGuildName, szMaster);

  002d0	8d 45 ec	 lea	 eax, DWORD PTR _szMaster$[ebp]
  002d3	50		 push	 eax
  002d4	8d 4d e0	 lea	 ecx, DWORD PTR _szGuildName$[ebp]
  002d7	51		 push	 ecx
  002d8	68 b3 01 00 00	 push	 435			; 000001b3H
  002dd	b9 00 00 00 00	 mov	 ecx, OFFSET ?lMsg@@3VCMsg@@A ; lMsg
  002e2	ff 15 00 00 00
	00		 call	 DWORD PTR __imp_?Get@CMsg@@QAEPADH@Z
  002e8	50		 push	 eax
  002e9	ff 15 00 00 00
	00		 call	 DWORD PTR ?LogAdd@@3P6AXPADZZA ; LogAdd
  002ef	83 c4 0c	 add	 esp, 12			; 0000000cH
$LN15@GDGuildDes:

; 599  : 		}
; 600  : 	}

  002f2	5f		 pop	 edi
  002f3	5e		 pop	 esi
  002f4	5b		 pop	 ebx
  002f5	8b 4d fc	 mov	 ecx, DWORD PTR __$ArrayPad$[ebp]
  002f8	33 cd		 xor	 ecx, ebp
  002fa	e8 00 00 00 00	 call	 @__security_check_cookie@4
  002ff	8b e5		 mov	 esp, ebp
  00301	5d		 pop	 ebp
  00302	c3		 ret	 0
?GDGuildDestroyRecv@@YAXPAUSDHP_GUILDDESTROY_RESULT@@@Z ENDP ; GDGuildDestroyRecv
_TEXT	ENDS
; Function compile flags: /Odtp /ZI
; File C:\Mu Online\Mu-GS-Webzen-MC-10093\GameServer\EDSProtocol.cpp
;	COMDAT ?DGGuildMemberInfo@@YAXPAUSDHP_GUILDMEMBER_INFO@@@Z
_TEXT	SEGMENT
$T1 = -752						; size = 4
$T2 = -748						; size = 4
_pGUCount$3 = -616					; size = 5
_pGVCount$4 = -608					; size = 5
_n$5 = -600						; size = 4
_GuildUserOfs$ = -596					; size = 4
_GuildInfoOfs$ = -592					; size = 4
_szName$ = -588						; size = 11
_szGuildName$ = -576					; size = 9
_pMsg$ = -564						; size = 42
_pGVUMsg$ = -520					; size = 4
_GuildInfoBuf$ = -516					; size = 256
_GuildUserBuf$ = -260					; size = 256
__$ArrayPad$ = -4					; size = 4
_lpMsg$ = 8						; size = 4
?DGGuildMemberInfo@@YAXPAUSDHP_GUILDMEMBER_INFO@@@Z PROC ; DGGuildMemberInfo, COMDAT

; 980  : {

  00000	55		 push	 ebp
  00001	8b ec		 mov	 ebp, esp
  00003	81 ec f0 02 00
	00		 sub	 esp, 752		; 000002f0H
  00009	a1 00 00 00 00	 mov	 eax, DWORD PTR ___security_cookie
  0000e	33 c5		 xor	 eax, ebp
  00010	89 45 fc	 mov	 DWORD PTR __$ArrayPad$[ebp], eax
  00013	53		 push	 ebx
  00014	56		 push	 esi
  00015	57		 push	 edi

; 981  : 	BYTE GuildUserBuf[256] = {0,};

  00016	68 00 01 00 00	 push	 256			; 00000100H
  0001b	6a 00		 push	 0
  0001d	8d 85 fc fe ff
	ff		 lea	 eax, DWORD PTR _GuildUserBuf$[ebp]
  00023	50		 push	 eax
  00024	e8 00 00 00 00	 call	 _memset
  00029	83 c4 0c	 add	 esp, 12			; 0000000cH

; 982  : 	BYTE GuildInfoBuf[256] = {0,};

  0002c	68 00 01 00 00	 push	 256			; 00000100H
  00031	6a 00		 push	 0
  00033	8d 85 fc fd ff
	ff		 lea	 eax, DWORD PTR _GuildInfoBuf$[ebp]
  00039	50		 push	 eax
  0003a	e8 00 00 00 00	 call	 _memset
  0003f	83 c4 0c	 add	 esp, 12			; 0000000cH

; 983  : 	
; 984  : #ifdef MODIFY_GUILD_VIEWPORT_01_20040701
; 985  : 	PMSG_SIMPLE_GUILDVIEWPORT pMsg;
; 986  : #else
; 987  : 	PMSG_GUILDVIEWPORT_USER pGVUMsg;
; 988  : 	PMSG_GUILDVIEWPORT	pMsg;
; 989  : #endif
; 990  : 	
; 991  : 	char szGuildName[MAX_GUILDNAMESTRING+1];
; 992  : 	char szName[MAX_IDSTRING+1];
; 993  : 	
; 994  : 	szGuildName[MAX_GUILDNAMESTRING] = '\0';

  00042	b8 01 00 00 00	 mov	 eax, 1
  00047	c1 e0 03	 shl	 eax, 3
  0004a	89 85 14 fd ff
	ff		 mov	 DWORD PTR $T2[ebp], eax
  00050	83 bd 14 fd ff
	ff 09		 cmp	 DWORD PTR $T2[ebp], 9
  00057	73 02		 jae	 SHORT $LN13@DGGuildMem
  00059	eb 05		 jmp	 SHORT $LN14@DGGuildMem
$LN13@DGGuildMem:
  0005b	e8 00 00 00 00	 call	 ___report_rangecheckfailure
$LN14@DGGuildMem:
  00060	8b 8d 14 fd ff
	ff		 mov	 ecx, DWORD PTR $T2[ebp]
  00066	c6 84 0d c0 fd
	ff ff 00	 mov	 BYTE PTR _szGuildName$[ebp+ecx], 0

; 995  : 	szName[MAX_IDSTRING] = '\0';

  0006e	b8 01 00 00 00	 mov	 eax, 1
  00073	6b c8 0a	 imul	 ecx, eax, 10
  00076	89 8d 10 fd ff
	ff		 mov	 DWORD PTR $T1[ebp], ecx
  0007c	83 bd 10 fd ff
	ff 0b		 cmp	 DWORD PTR $T1[ebp], 11	; 0000000bH
  00083	73 02		 jae	 SHORT $LN15@DGGuildMem
  00085	eb 05		 jmp	 SHORT $LN16@DGGuildMem
$LN15@DGGuildMem:
  00087	e8 00 00 00 00	 call	 ___report_rangecheckfailure
$LN16@DGGuildMem:
  0008c	8b 95 10 fd ff
	ff		 mov	 edx, DWORD PTR $T1[ebp]
  00092	c6 84 15 b4 fd
	ff ff 00	 mov	 BYTE PTR _szName$[ebp+edx], 0

; 996  : 	
; 997  : 	memcpy( szGuildName, lpMsg->GuildName, MAX_GUILDNAMESTRING);

  0009a	6a 08		 push	 8
  0009c	8b 45 08	 mov	 eax, DWORD PTR _lpMsg$[ebp]
  0009f	83 c0 03	 add	 eax, 3
  000a2	50		 push	 eax
  000a3	8d 8d c0 fd ff
	ff		 lea	 ecx, DWORD PTR _szGuildName$[ebp]
  000a9	51		 push	 ecx
  000aa	e8 00 00 00 00	 call	 _memcpy
  000af	83 c4 0c	 add	 esp, 12			; 0000000cH

; 998  : 	memcpy( szName     , lpMsg->MemberID, MAX_IDSTRING);

  000b2	6a 0a		 push	 10			; 0000000aH
  000b4	8b 45 08	 mov	 eax, DWORD PTR _lpMsg$[ebp]
  000b7	83 c0 0c	 add	 eax, 12			; 0000000cH
  000ba	50		 push	 eax
  000bb	8d 8d b4 fd ff
	ff		 lea	 ecx, DWORD PTR _szName$[ebp]
  000c1	51		 push	 ecx
  000c2	e8 00 00 00 00	 call	 _memcpy
  000c7	83 c4 0c	 add	 esp, 12			; 0000000cH

; 999  : 
; 1000 : 	int GuildInfoOfs = sizeof( PMSG_GUILDVIEWPORT_COUNT );

  000ca	c7 85 b0 fd ff
	ff 05 00 00 00	 mov	 DWORD PTR _GuildInfoOfs$[ebp], 5

; 1001 : 	int GuildUserOfs = sizeof( PMSG_GUILDVIEWPORT_USERCOUNT );		

  000d4	c7 85 ac fd ff
	ff 05 00 00 00	 mov	 DWORD PTR _GuildUserOfs$[ebp], 5

; 1002 : 	
; 1003 : 	for( int n=ALLOC_USEROBJECTSTART; n<MAX_OBJECT; n++)

  000de	c7 85 a8 fd ff
	ff 00 19 00 00	 mov	 DWORD PTR _n$5[ebp], 6400 ; 00001900H
  000e8	eb 0f		 jmp	 SHORT $LN4@DGGuildMem
$LN2@DGGuildMem:
  000ea	8b 85 a8 fd ff
	ff		 mov	 eax, DWORD PTR _n$5[ebp]
  000f0	83 c0 01	 add	 eax, 1
  000f3	89 85 a8 fd ff
	ff		 mov	 DWORD PTR _n$5[ebp], eax
$LN4@DGGuildMem:
  000f9	81 bd a8 fd ff
	ff e8 1c 00 00	 cmp	 DWORD PTR _n$5[ebp], 7400 ; 00001ce8H
  00103	0f 8d f0 04 00
	00		 jge	 $LN3@DGGuildMem

; 1004 : 	{
; 1005 : 		if( gObj[n].Connected > 2 )

  00109	69 85 a8 fd ff
	ff a0 1b 00 00	 imul	 eax, DWORD PTR _n$5[ebp], 7072
  00113	8b 0d 00 00 00
	00		 mov	 ecx, DWORD PTR ?gObj@@3PAVOBJECTSTRUCT@@A ; gObj
  00119	83 7c 01 04 02	 cmp	 DWORD PTR [ecx+eax+4], 2
  0011e	0f 8e d0 04 00
	00		 jle	 $LN5@DGGuildMem

; 1006 : 		{
; 1007 : 			if( gObj[n].Name[0] == lpMsg->MemberID[0] )

  00124	69 85 a8 fd ff
	ff a0 1b 00 00	 imul	 eax, DWORD PTR _n$5[ebp], 7072
  0012e	03 05 00 00 00
	00		 add	 eax, DWORD PTR ?gObj@@3PAVOBJECTSTRUCT@@A ; gObj
  00134	b9 01 00 00 00	 mov	 ecx, 1
  00139	6b d1 00	 imul	 edx, ecx, 0
  0013c	0f be 44 10 73	 movsx	 eax, BYTE PTR [eax+edx+115]
  00141	b9 01 00 00 00	 mov	 ecx, 1
  00146	6b d1 00	 imul	 edx, ecx, 0
  00149	8b 4d 08	 mov	 ecx, DWORD PTR _lpMsg$[ebp]
  0014c	0f be 54 11 0c	 movsx	 edx, BYTE PTR [ecx+edx+12]
  00151	3b c2		 cmp	 eax, edx
  00153	0f 85 9b 04 00
	00		 jne	 $LN5@DGGuildMem

; 1008 : 			{
; 1009 : 				if( strcmp(lpMsg->MemberID, gObj[n].Name ) == 0 )

  00159	69 85 a8 fd ff
	ff a0 1b 00 00	 imul	 eax, DWORD PTR _n$5[ebp], 7072
  00163	8b 0d 00 00 00
	00		 mov	 ecx, DWORD PTR ?gObj@@3PAVOBJECTSTRUCT@@A ; gObj
  00169	8d 54 01 73	 lea	 edx, DWORD PTR [ecx+eax+115]
  0016d	52		 push	 edx
  0016e	8b 45 08	 mov	 eax, DWORD PTR _lpMsg$[ebp]
  00171	83 c0 0c	 add	 eax, 12			; 0000000cH
  00174	50		 push	 eax
  00175	e8 00 00 00 00	 call	 _strcmp
  0017a	83 c4 08	 add	 esp, 8
  0017d	85 c0		 test	 eax, eax
  0017f	0f 85 6f 04 00
	00		 jne	 $LN5@DGGuildMem

; 1010 : 				{
; 1011 : 					
; 1012 : #ifdef CASTLE_MAIN_SCHEDULER_20041111	// 공성전 시 공수의 관계를 뷰포트에 보여준다.
; 1013 : 
; 1014 : #ifdef MODIFY_OLD_BUFF_EFFECT_SYSTEM_20071004
; 1015 : //					gObjClearBuffEffect( &gObj[n], CLEAR_TYPE_CASTLESIEGE );
; 1016 : #else
; 1017 : 					gObj[n].m_ViewSkillState						&= ~(STATE_JOIN_SIDE_DEFEND | STATE_JOIN_SIDE_ATTACK);
; 1018 : 
; 1019 : 	#ifdef MODIFY_CASTLESIEGE_IDENTIFICATION_20051012
; 1020 : 					DEL_VIEWSKILLSTATE( gObj[n].m_ViewSkillState, STATE_JOIN_SIDE_ATTACK_2);
; 1021 : 					DEL_VIEWSKILLSTATE( gObj[n].m_ViewSkillState, STATE_JOIN_SIDE_ATTACK_3);
; 1022 : 	#endif
; 1023 : #endif // MODIFY_OLD_BUFF_EFFECT_SYSTEM_20071004
; 1024 : 
; 1025 : 					// 읽어온 길드명으로 공성전 시 공/수 중 어느쪽인지에 대한 정보를 얻어온다.
; 1026 : 					szGuildName[MAX_GUILDNAMESTRING] = '\0';
; 1027 : 					g_CastleSiege.GetCsJoinSide(szGuildName, gObj[n].m_btCsJoinSide, gObj[n].m_bCsGuildInvolved);
; 1028 : 					g_CastleSiege.NotifySelfCsJoinSide (n);
; 1029 : #endif
; 1030 : 					strcpy(gObj[n].GuildName, szGuildName);

  00185	8d 85 c0 fd ff
	ff		 lea	 eax, DWORD PTR _szGuildName$[ebp]
  0018b	50		 push	 eax
  0018c	69 8d a8 fd ff
	ff a0 1b 00 00	 imul	 ecx, DWORD PTR _n$5[ebp], 7072
  00196	8b 15 00 00 00
	00		 mov	 edx, DWORD PTR ?gObj@@3PAVOBJECTSTRUCT@@A ; gObj
  0019c	8d 84 0a 98 02
	00 00		 lea	 eax, DWORD PTR [edx+ecx+664]
  001a3	50		 push	 eax
  001a4	e8 00 00 00 00	 call	 _strcpy
  001a9	83 c4 08	 add	 esp, 8

; 1031 : 					gObj[n].lpGuild = Guild.SearchGuild(gObj[n].GuildName);

  001ac	69 85 a8 fd ff
	ff a0 1b 00 00	 imul	 eax, DWORD PTR _n$5[ebp], 7072
  001b6	8b 0d 00 00 00
	00		 mov	 ecx, DWORD PTR ?gObj@@3PAVOBJECTSTRUCT@@A ; gObj
  001bc	8d 94 01 98 02
	00 00		 lea	 edx, DWORD PTR [ecx+eax+664]
  001c3	52		 push	 edx
  001c4	b9 00 00 00 00	 mov	 ecx, OFFSET ?Guild@@3VCGuildClass@@A ; Guild
  001c9	e8 00 00 00 00	 call	 ?SearchGuild@CGuildClass@@QAEPAU_GUILD_INFO_STRUCT@@PAD@Z ; CGuildClass::SearchGuild
  001ce	69 8d a8 fd ff
	ff a0 1b 00 00	 imul	 ecx, DWORD PTR _n$5[ebp], 7072
  001d8	8b 15 00 00 00
	00		 mov	 edx, DWORD PTR ?gObj@@3PAVOBJECTSTRUCT@@A ; gObj
  001de	89 84 0a 94 02
	00 00		 mov	 DWORD PTR [edx+ecx+660], eax

; 1032 : 
; 1033 : 					if( gObj[n].lpGuild != NULL ) 

  001e5	69 85 a8 fd ff
	ff a0 1b 00 00	 imul	 eax, DWORD PTR _n$5[ebp], 7072
  001ef	8b 0d 00 00 00
	00		 mov	 ecx, DWORD PTR ?gObj@@3PAVOBJECTSTRUCT@@A ; gObj
  001f5	83 bc 01 94 02
	00 00 00	 cmp	 DWORD PTR [ecx+eax+660], 0
  001fd	0f 84 d5 03 00
	00		 je	 $LN8@DGGuildMem

; 1034 : 					{
; 1035 : 
; 1036 : #ifdef ADD_NEW_GUILD_01_20040913
; 1037 : 						gObj[n].GuildStatus = lpMsg->btGuildStatus;					
; 1038 : #endif
; 1039 : 						gObj[n].GuildNumber = gObj[n].lpGuild->Number;

  00203	69 85 a8 fd ff
	ff a0 1b 00 00	 imul	 eax, DWORD PTR _n$5[ebp], 7072
  0020d	8b 0d 00 00 00
	00		 mov	 ecx, DWORD PTR ?gObj@@3PAVOBJECTSTRUCT@@A ; gObj
  00213	8b 94 01 94 02
	00 00		 mov	 edx, DWORD PTR [ecx+eax+660]
  0021a	69 85 a8 fd ff
	ff a0 1b 00 00	 imul	 eax, DWORD PTR _n$5[ebp], 7072
  00224	8b 0d 00 00 00
	00		 mov	 ecx, DWORD PTR ?gObj@@3PAVOBJECTSTRUCT@@A ; gObj
  0022a	8b 12		 mov	 edx, DWORD PTR [edx]
  0022c	89 94 01 90 02
	00 00		 mov	 DWORD PTR [ecx+eax+656], edx

; 1040 : 						Guild.ConnectUser(gObj[n].lpGuild, lpMsg->GuildName, gObj[n].Name, n, lpMsg->pServer);

  00233	8b 45 08	 mov	 eax, DWORD PTR _lpMsg$[ebp]
  00236	0f bf 48 1a	 movsx	 ecx, WORD PTR [eax+26]
  0023a	51		 push	 ecx
  0023b	8b 95 a8 fd ff
	ff		 mov	 edx, DWORD PTR _n$5[ebp]
  00241	52		 push	 edx
  00242	69 85 a8 fd ff
	ff a0 1b 00 00	 imul	 eax, DWORD PTR _n$5[ebp], 7072
  0024c	8b 0d 00 00 00
	00		 mov	 ecx, DWORD PTR ?gObj@@3PAVOBJECTSTRUCT@@A ; gObj
  00252	8d 54 01 73	 lea	 edx, DWORD PTR [ecx+eax+115]
  00256	52		 push	 edx
  00257	8b 45 08	 mov	 eax, DWORD PTR _lpMsg$[ebp]
  0025a	83 c0 03	 add	 eax, 3
  0025d	50		 push	 eax
  0025e	69 8d a8 fd ff
	ff a0 1b 00 00	 imul	 ecx, DWORD PTR _n$5[ebp], 7072
  00268	8b 15 00 00 00
	00		 mov	 edx, DWORD PTR ?gObj@@3PAVOBJECTSTRUCT@@A ; gObj
  0026e	8b 84 0a 94 02
	00 00		 mov	 eax, DWORD PTR [edx+ecx+660]
  00275	50		 push	 eax
  00276	b9 00 00 00 00	 mov	 ecx, OFFSET ?Guild@@3VCGuildClass@@A ; Guild
  0027b	e8 00 00 00 00	 call	 ?ConnectUser@CGuildClass@@QAEHPAU_GUILD_INFO_STRUCT@@PAD1HH@Z ; CGuildClass::ConnectUser

; 1041 : 						
; 1042 : #ifdef UNICODE_MODE_20050718
; 1043 : 						gObj[n].lpGuild->Notice[MAX_GUILDNOTICE-2] = '\0';
; 1044 : 						gObj[n].lpGuild->Notice[MAX_GUILDNOTICE-1] = '\0';
; 1045 : 						if( wcslen((WCHAR*)gObj[n].lpGuild->Notice) > 0 )// 길드의 공지가 있다면..
; 1046 : #else
; 1047 : 						if( strlen(gObj[n].lpGuild->Notice) > 0 )// 길드의 공지가 있다면..

  00280	69 85 a8 fd ff
	ff a0 1b 00 00	 imul	 eax, DWORD PTR _n$5[ebp], 7072
  0028a	8b 0d 00 00 00
	00		 mov	 ecx, DWORD PTR ?gObj@@3PAVOBJECTSTRUCT@@A ; gObj
  00290	8b 94 01 94 02
	00 00		 mov	 edx, DWORD PTR [ecx+eax+660]
  00297	81 c2 9c 05 00
	00		 add	 edx, 1436		; 0000059cH
  0029d	52		 push	 edx
  0029e	e8 00 00 00 00	 call	 _strlen
  002a3	83 c4 04	 add	 esp, 4
  002a6	85 c0		 test	 eax, eax
  002a8	76 2e		 jbe	 SHORT $LN10@DGGuildMem

; 1048 : #endif
; 1049 : 						{
; 1050 : #ifdef APPLY_TESTSERVER1
; 1051 : 							if( gGuildNoticeStringCheck(gObj[n].lpGuild->Notice) )
; 1052 : 							{
; 1053 : #ifdef UNICODE_MODE_20050718
; 1054 : 								PMSG_NOTICE	pNotice;
; 1055 : 								TNotice::MakeNoticeMsgUnicode( &pNotice, 2, gObj[n].lpGuild->Notice, MAX_GUILDNOTICE);
; 1056 : 								DataSend(n, (LPBYTE)&pNotice, pNotice.h.size);
; 1057 : #else
; 1058 : 								GCServerMsgStringSend(gObj[n].lpGuild->Notice, n, 2);							
; 1059 : #endif
; 1060 : 							}						
; 1061 : #else
; 1062 : #ifdef UNICODE_MODE_20050718
; 1063 : 							PMSG_NOTICE	pNotice;
; 1064 : 							TNotice::MakeNoticeMsgUnicode( &pNotice, 2, gObj[n].lpGuild->Notice, MAX_GUILDNOTICE);
; 1065 : 							DataSend(n, (LPBYTE)&pNotice, pNotice.h.size);
; 1066 : #else
; 1067 : 							GCServerMsgStringSend(gObj[n].lpGuild->Notice, n, 2);

  002aa	6a 02		 push	 2
  002ac	8b 85 a8 fd ff
	ff		 mov	 eax, DWORD PTR _n$5[ebp]
  002b2	50		 push	 eax
  002b3	69 8d a8 fd ff
	ff a0 1b 00 00	 imul	 ecx, DWORD PTR _n$5[ebp], 7072
  002bd	8b 15 00 00 00
	00		 mov	 edx, DWORD PTR ?gObj@@3PAVOBJECTSTRUCT@@A ; gObj
  002c3	8b 84 0a 94 02
	00 00		 mov	 eax, DWORD PTR [edx+ecx+660]
  002ca	05 9c 05 00 00	 add	 eax, 1436		; 0000059cH
  002cf	50		 push	 eax
  002d0	e8 00 00 00 00	 call	 ?GCServerMsgStringSend@@YAXPADHE@Z ; GCServerMsgStringSend
  002d5	83 c4 0c	 add	 esp, 12			; 0000000cH
$LN10@DGGuildMem:

; 1068 : #endif
; 1069 : #endif
; 1070 : 						}
; 1071 : 				
; 1072 : #ifdef ADD_NEW_GUILD_01_20040913
; 1073 : 						LogAddTD("[U.System][Guild Status][Info] Guild : %s / [%s][%s] / %d", szGuildName, gObj[n].AccountID, szName, gObj[n].GuildStatus );
; 1074 : 						LogAddTD(lMsg.Get(440), gObj[n].AccountID, szName, szGuildName);
; 1075 : #else
; 1076 : 						LogAddTD("[U.System][Guild Status][Info] Guild : %s / [%s][%s]", szGuildName, gObj[n].AccountID, szName );

  002d8	8d 85 b4 fd ff
	ff		 lea	 eax, DWORD PTR _szName$[ebp]
  002de	50		 push	 eax
  002df	69 8d a8 fd ff
	ff a0 1b 00 00	 imul	 ecx, DWORD PTR _n$5[ebp], 7072
  002e9	8b 15 00 00 00
	00		 mov	 edx, DWORD PTR ?gObj@@3PAVOBJECTSTRUCT@@A ; gObj
  002ef	8d 44 0a 68	 lea	 eax, DWORD PTR [edx+ecx+104]
  002f3	50		 push	 eax
  002f4	8d 8d c0 fd ff
	ff		 lea	 ecx, DWORD PTR _szGuildName$[ebp]
  002fa	51		 push	 ecx
  002fb	68 00 00 00 00	 push	 OFFSET ??_C@_0DF@BOBMAPKN@?$FLU?4System?$FN?$FLGuild?5Status?$FN?$FLInfo?$FN?5@
  00300	ff 15 00 00 00
	00		 call	 DWORD PTR ?LogAddTD@@3P6AXPADZZA ; LogAddTD
  00306	83 c4 10	 add	 esp, 16			; 00000010H

; 1077 : 						LogAddTD(lMsg.Get(440), gObj[n].AccountID, szName, szGuildName);

  00309	8d 85 c0 fd ff
	ff		 lea	 eax, DWORD PTR _szGuildName$[ebp]
  0030f	50		 push	 eax
  00310	8d 8d b4 fd ff
	ff		 lea	 ecx, DWORD PTR _szName$[ebp]
  00316	51		 push	 ecx
  00317	69 95 a8 fd ff
	ff a0 1b 00 00	 imul	 edx, DWORD PTR _n$5[ebp], 7072
  00321	a1 00 00 00 00	 mov	 eax, DWORD PTR ?gObj@@3PAVOBJECTSTRUCT@@A ; gObj
  00326	8d 4c 10 68	 lea	 ecx, DWORD PTR [eax+edx+104]
  0032a	51		 push	 ecx
  0032b	68 b8 01 00 00	 push	 440			; 000001b8H
  00330	b9 00 00 00 00	 mov	 ecx, OFFSET ?lMsg@@3VCMsg@@A ; lMsg
  00335	ff 15 00 00 00
	00		 call	 DWORD PTR __imp_?Get@CMsg@@QAEPADH@Z
  0033b	50		 push	 eax
  0033c	ff 15 00 00 00
	00		 call	 DWORD PTR ?LogAddTD@@3P6AXPADZZA ; LogAddTD
  00342	83 c4 10	 add	 esp, 16			; 00000010H

; 1078 : #endif
; 1079 : 
; 1080 : #ifdef MODIFY_GUILD_VIEWPORT_01_20040701
; 1081 : 						
; 1082 : 	#ifdef MODIFY_GUILD_VIEWPORT_02_20040830
; 1083 : 						pMsg.GuildNumber= gObj[n].GuildNumber;
; 1084 : 	#else
; 1085 : 						pMsg.GNumberH	= HIBYTE(gObj[n].GuildNumber);
; 1086 : 						pMsg.GNumberL	= LOBYTE(gObj[n].GuildNumber);
; 1087 : 	#endif
; 1088 : 						pMsg.NumberH	= HIBYTE(n)&0x7F;
; 1089 : 						pMsg.NumberL	= LOBYTE(n);
; 1090 : 
; 1091 : 						if(!strcmp(gObj[n].lpGuild->Names[0], gObj[n].Name))
; 1092 : 						{	// 길드 마스터 이면
; 1093 : 							pMsg.NumberH |= 0x80;
; 1094 : 						}
; 1095 : 	
; 1096 : 						
; 1097 : 	#ifdef ADD_NEW_GUILD_01_20040913
; 1098 : 						// 길드의 직책을 보내준다.!
; 1099 : 						pMsg.btGuildStatus = gObj[n].GuildStatus;
; 1100 : 	#endif
; 1101 : 
; 1102 : 	#ifdef ADD_NEW_GUILD_02_20040922
; 1103 : 						if( gObj[n].lpGuild )
; 1104 : 							pMsg.btGuildType = gObj[n].lpGuild->btGuildType;
; 1105 : 						else
; 1106 : 							pMsg.btGuildType = G_TYPE_NONE;
; 1107 : 	#endif
; 1108 : 
; 1109 : 	#ifdef UPDATE_CHECK_CASTLE_OWNERMEMBER_20090217
; 1110 : 						if (g_CastleSiegeSync.CheckCastleOwnerMember(gObj[n].m_Index) == TRUE ||
; 1111 : 							g_CastleSiegeSync.CheckCastleOwnerUnionMember(gObj[n].m_Index) == TRUE)
; 1112 : 						{
; 1113 : 							pMsg.btCastleOwner = 0x01;
; 1114 : 						}
; 1115 : 						else
; 1116 : 						{
; 1117 : 							pMsg.btCastleOwner = 0x00;
; 1118 : 						}						
; 1119 : 	#endif	// UPDATE_CHECK_CASTLE_OWNERMEMBER_20090217
; 1120 : 
; 1121 : 						memcpy(GuildInfoBuf+GuildInfoOfs, &pMsg, sizeof(pMsg));
; 1122 : 						GuildInfoOfs += sizeof( pMsg );
; 1123 : 
; 1124 : 						PMSG_SIMPLE_GUILDVIEWPORT_COUNT pGVCount;
; 1125 : 						
; 1126 : 						pGVCount.h.c		= PMHC_WORD;
; 1127 : 						pGVCount.h.headcode = 0x65;
; 1128 : 						pGVCount.h.sizeH	= HIBYTE( GuildInfoOfs );
; 1129 : 						pGVCount.h.sizeL	= LOBYTE( GuildInfoOfs );
; 1130 : 						pGVCount.Count		= 1;
; 1131 : 						memcpy(GuildInfoBuf, &pGVCount, sizeof(pGVCount));
; 1132 : 						DataSend(n, (LPBYTE)GuildInfoBuf, GuildInfoOfs);
; 1133 : 						
; 1134 : #else //MODIFY_GUILD_VIEWPORT_01_20040701
; 1135 : 						pMsg.NumberH = HIBYTE(gObj[n].GuildNumber);

  00345	69 85 a8 fd ff
	ff a0 1b 00 00	 imul	 eax, DWORD PTR _n$5[ebp], 7072
  0034f	8b 0d 00 00 00
	00		 mov	 ecx, DWORD PTR ?gObj@@3PAVOBJECTSTRUCT@@A ; gObj
  00355	8b 94 01 90 02
	00 00		 mov	 edx, DWORD PTR [ecx+eax+656]
  0035c	c1 ea 08	 shr	 edx, 8
  0035f	81 e2 ff 00 00
	00		 and	 edx, 255		; 000000ffH
  00365	88 95 cc fd ff
	ff		 mov	 BYTE PTR _pMsg$[ebp], dl

; 1136 : 						pMsg.NumberL = LOBYTE(gObj[n].GuildNumber);

  0036b	69 85 a8 fd ff
	ff a0 1b 00 00	 imul	 eax, DWORD PTR _n$5[ebp], 7072
  00375	8b 0d 00 00 00
	00		 mov	 ecx, DWORD PTR ?gObj@@3PAVOBJECTSTRUCT@@A ; gObj
  0037b	8b 94 01 90 02
	00 00		 mov	 edx, DWORD PTR [ecx+eax+656]
  00382	81 e2 ff 00 00
	00		 and	 edx, 255		; 000000ffH
  00388	88 95 cd fd ff
	ff		 mov	 BYTE PTR _pMsg$[ebp+1], dl

; 1137 : 						strcpy(pMsg.GuildName, lpMsg->GuildName);

  0038e	8b 45 08	 mov	 eax, DWORD PTR _lpMsg$[ebp]
  00391	83 c0 03	 add	 eax, 3
  00394	50		 push	 eax
  00395	8d 8d ce fd ff
	ff		 lea	 ecx, DWORD PTR _pMsg$[ebp+2]
  0039b	51		 push	 ecx
  0039c	e8 00 00 00 00	 call	 _strcpy
  003a1	83 c4 08	 add	 esp, 8

; 1138 : 						memcpy(pMsg.Mark, gObj[n].lpGuild->Mark, 32);

  003a4	6a 20		 push	 32			; 00000020H
  003a6	69 85 a8 fd ff
	ff a0 1b 00 00	 imul	 eax, DWORD PTR _n$5[ebp], 7072
  003b0	8b 0d 00 00 00
	00		 mov	 ecx, DWORD PTR ?gObj@@3PAVOBJECTSTRUCT@@A ; gObj
  003b6	8b 94 01 94 02
	00 00		 mov	 edx, DWORD PTR [ecx+eax+660]
  003bd	83 c2 0d	 add	 edx, 13			; 0000000dH
  003c0	52		 push	 edx
  003c1	8d 85 d6 fd ff
	ff		 lea	 eax, DWORD PTR _pMsg$[ebp+10]
  003c7	50		 push	 eax
  003c8	e8 00 00 00 00	 call	 _memcpy
  003cd	83 c4 0c	 add	 esp, 12			; 0000000cH

; 1139 : 						memcpy(GuildInfoBuf+GuildInfoOfs, &pMsg, sizeof(pMsg));

  003d0	6a 2a		 push	 42			; 0000002aH
  003d2	8d 85 cc fd ff
	ff		 lea	 eax, DWORD PTR _pMsg$[ebp]
  003d8	50		 push	 eax
  003d9	8b 8d b0 fd ff
	ff		 mov	 ecx, DWORD PTR _GuildInfoOfs$[ebp]
  003df	8d 94 0d fc fd
	ff ff		 lea	 edx, DWORD PTR _GuildInfoBuf$[ebp+ecx]
  003e6	52		 push	 edx
  003e7	e8 00 00 00 00	 call	 _memcpy
  003ec	83 c4 0c	 add	 esp, 12			; 0000000cH

; 1140 : 						GuildInfoOfs += sizeof( pMsg );

  003ef	8b 85 b0 fd ff
	ff		 mov	 eax, DWORD PTR _GuildInfoOfs$[ebp]
  003f5	83 c0 2a	 add	 eax, 42			; 0000002aH
  003f8	89 85 b0 fd ff
	ff		 mov	 DWORD PTR _GuildInfoOfs$[ebp], eax

; 1141 : 						
; 1142 : 	#ifdef GUILD_VIEWPORT_MODIFY
; 1143 : 						pGVUMsg.NumberH = HIBYTE(n)&0x7F;
; 1144 : 						pGVUMsg.NumberL = LOBYTE(n);
; 1145 : 
; 1146 : 						if(!strcmp(gObj[n].lpGuild->Names[0], gObj[n].Name))
; 1147 : 						{	// 길드 마스터 이면
; 1148 : 							pGVUMsg.NumberH |= 0x80;
; 1149 : 						}
; 1150 : 	#else
; 1151 : 						pGVUMsg.NumberH = HIBYTE(n);

  003fe	8b 85 a8 fd ff
	ff		 mov	 eax, DWORD PTR _n$5[ebp]
  00404	c1 e8 08	 shr	 eax, 8
  00407	25 ff 00 00 00	 and	 eax, 255		; 000000ffH
  0040c	88 85 f8 fd ff
	ff		 mov	 BYTE PTR _pGVUMsg$[ebp], al

; 1152 : 						pGVUMsg.NumberL = LOBYTE(n);

  00412	8b 85 a8 fd ff
	ff		 mov	 eax, DWORD PTR _n$5[ebp]
  00418	25 ff 00 00 00	 and	 eax, 255		; 000000ffH
  0041d	88 85 f9 fd ff
	ff		 mov	 BYTE PTR _pGVUMsg$[ebp+1], al

; 1153 : 	#endif
; 1154 : 						
; 1155 : 						pGVUMsg.GNumberH = HIBYTE(gObj[n].GuildNumber);

  00423	69 85 a8 fd ff
	ff a0 1b 00 00	 imul	 eax, DWORD PTR _n$5[ebp], 7072
  0042d	8b 0d 00 00 00
	00		 mov	 ecx, DWORD PTR ?gObj@@3PAVOBJECTSTRUCT@@A ; gObj
  00433	8b 94 01 90 02
	00 00		 mov	 edx, DWORD PTR [ecx+eax+656]
  0043a	c1 ea 08	 shr	 edx, 8
  0043d	81 e2 ff 00 00
	00		 and	 edx, 255		; 000000ffH
  00443	88 95 fa fd ff
	ff		 mov	 BYTE PTR _pGVUMsg$[ebp+2], dl

; 1156 : 						pGVUMsg.GNumberL = LOBYTE(gObj[n].GuildNumber);

  00449	69 85 a8 fd ff
	ff a0 1b 00 00	 imul	 eax, DWORD PTR _n$5[ebp], 7072
  00453	8b 0d 00 00 00
	00		 mov	 ecx, DWORD PTR ?gObj@@3PAVOBJECTSTRUCT@@A ; gObj
  00459	8b 94 01 90 02
	00 00		 mov	 edx, DWORD PTR [ecx+eax+656]
  00460	81 e2 ff 00 00
	00		 and	 edx, 255		; 000000ffH
  00466	88 95 fb fd ff
	ff		 mov	 BYTE PTR _pGVUMsg$[ebp+3], dl

; 1157 : 						memcpy(GuildUserBuf+GuildUserOfs, &pGVUMsg, sizeof(pGVUMsg));

  0046c	6a 04		 push	 4
  0046e	8d 85 f8 fd ff
	ff		 lea	 eax, DWORD PTR _pGVUMsg$[ebp]
  00474	50		 push	 eax
  00475	8b 8d ac fd ff
	ff		 mov	 ecx, DWORD PTR _GuildUserOfs$[ebp]
  0047b	8d 94 0d fc fe
	ff ff		 lea	 edx, DWORD PTR _GuildUserBuf$[ebp+ecx]
  00482	52		 push	 edx
  00483	e8 00 00 00 00	 call	 _memcpy
  00488	83 c4 0c	 add	 esp, 12			; 0000000cH

; 1158 : 						GuildUserOfs += sizeof(pGVUMsg);

  0048b	8b 85 ac fd ff
	ff		 mov	 eax, DWORD PTR _GuildUserOfs$[ebp]
  00491	83 c0 04	 add	 eax, 4
  00494	89 85 ac fd ff
	ff		 mov	 DWORD PTR _GuildUserOfs$[ebp], eax

; 1159 : 
; 1160 : 						PMSG_GUILDVIEWPORT_COUNT pGVCount;
; 1161 : 						
; 1162 : 						pGVCount.h.c		= PMHC_WORD;

  0049a	c6 85 a0 fd ff
	ff c2		 mov	 BYTE PTR _pGVCount$4[ebp], 194 ; 000000c2H

; 1163 : 						pGVCount.h.headcode = 0x5A;

  004a1	c6 85 a3 fd ff
	ff 5a		 mov	 BYTE PTR _pGVCount$4[ebp+3], 90 ; 0000005aH

; 1164 : 						pGVCount.h.sizeH	= HIBYTE( GuildInfoOfs );

  004a8	8b 85 b0 fd ff
	ff		 mov	 eax, DWORD PTR _GuildInfoOfs$[ebp]
  004ae	c1 e8 08	 shr	 eax, 8
  004b1	25 ff 00 00 00	 and	 eax, 255		; 000000ffH
  004b6	88 85 a1 fd ff
	ff		 mov	 BYTE PTR _pGVCount$4[ebp+1], al

; 1165 : 						pGVCount.h.sizeL	= LOBYTE( GuildInfoOfs );

  004bc	8b 85 b0 fd ff
	ff		 mov	 eax, DWORD PTR _GuildInfoOfs$[ebp]
  004c2	25 ff 00 00 00	 and	 eax, 255		; 000000ffH
  004c7	88 85 a2 fd ff
	ff		 mov	 BYTE PTR _pGVCount$4[ebp+2], al

; 1166 : 						pGVCount.Count		= 1;

  004cd	c6 85 a4 fd ff
	ff 01		 mov	 BYTE PTR _pGVCount$4[ebp+4], 1

; 1167 : 						memcpy(GuildInfoBuf, &pGVCount, sizeof(pGVCount));

  004d4	6a 05		 push	 5
  004d6	8d 85 a0 fd ff
	ff		 lea	 eax, DWORD PTR _pGVCount$4[ebp]
  004dc	50		 push	 eax
  004dd	8d 8d fc fd ff
	ff		 lea	 ecx, DWORD PTR _GuildInfoBuf$[ebp]
  004e3	51		 push	 ecx
  004e4	e8 00 00 00 00	 call	 _memcpy
  004e9	83 c4 0c	 add	 esp, 12			; 0000000cH

; 1168 : 						DataSend(n, (LPBYTE)GuildInfoBuf, GuildInfoOfs);

  004ec	8b 85 b0 fd ff
	ff		 mov	 eax, DWORD PTR _GuildInfoOfs$[ebp]
  004f2	50		 push	 eax
  004f3	8d 8d fc fd ff
	ff		 lea	 ecx, DWORD PTR _GuildInfoBuf$[ebp]
  004f9	51		 push	 ecx
  004fa	8b 95 a8 fd ff
	ff		 mov	 edx, DWORD PTR _n$5[ebp]
  00500	52		 push	 edx
  00501	e8 00 00 00 00	 call	 ?DataSend@@YAHHPAEK@Z	; DataSend
  00506	83 c4 0c	 add	 esp, 12			; 0000000cH

; 1169 : 
; 1170 : 						PMSG_GUILDVIEWPORT_USERCOUNT pGUCount;
; 1171 : 						pGUCount.h.c		= PMHC_WORD;

  00509	c6 85 98 fd ff
	ff c2		 mov	 BYTE PTR _pGUCount$3[ebp], 194 ; 000000c2H

; 1172 : 						pGUCount.h.headcode = 0x5B;

  00510	c6 85 9b fd ff
	ff 5b		 mov	 BYTE PTR _pGUCount$3[ebp+3], 91 ; 0000005bH

; 1173 : 						pGUCount.h.sizeH	= HIBYTE( GuildUserOfs );

  00517	8b 85 ac fd ff
	ff		 mov	 eax, DWORD PTR _GuildUserOfs$[ebp]
  0051d	c1 e8 08	 shr	 eax, 8
  00520	25 ff 00 00 00	 and	 eax, 255		; 000000ffH
  00525	88 85 99 fd ff
	ff		 mov	 BYTE PTR _pGUCount$3[ebp+1], al

; 1174 : 						pGUCount.h.sizeL	= LOBYTE( GuildUserOfs );

  0052b	8b 85 ac fd ff
	ff		 mov	 eax, DWORD PTR _GuildUserOfs$[ebp]
  00531	25 ff 00 00 00	 and	 eax, 255		; 000000ffH
  00536	88 85 9a fd ff
	ff		 mov	 BYTE PTR _pGUCount$3[ebp+2], al

; 1175 : 						pGUCount.Count		= 1;

  0053c	c6 85 9c fd ff
	ff 01		 mov	 BYTE PTR _pGUCount$3[ebp+4], 1

; 1176 : 						memcpy(GuildUserBuf, &pGUCount, sizeof(pGUCount));

  00543	6a 05		 push	 5
  00545	8d 85 98 fd ff
	ff		 lea	 eax, DWORD PTR _pGUCount$3[ebp]
  0054b	50		 push	 eax
  0054c	8d 8d fc fe ff
	ff		 lea	 ecx, DWORD PTR _GuildUserBuf$[ebp]
  00552	51		 push	 ecx
  00553	e8 00 00 00 00	 call	 _memcpy
  00558	83 c4 0c	 add	 esp, 12			; 0000000cH

; 1177 : 						DataSend(n, (LPBYTE)GuildUserBuf, GuildUserOfs);

  0055b	8b 85 ac fd ff
	ff		 mov	 eax, DWORD PTR _GuildUserOfs$[ebp]
  00561	50		 push	 eax
  00562	8d 8d fc fe ff
	ff		 lea	 ecx, DWORD PTR _GuildUserBuf$[ebp]
  00568	51		 push	 ecx
  00569	8b 95 a8 fd ff
	ff		 mov	 edx, DWORD PTR _n$5[ebp]
  0056f	52		 push	 edx
  00570	e8 00 00 00 00	 call	 ?DataSend@@YAHHPAEK@Z	; DataSend
  00575	83 c4 0c	 add	 esp, 12			; 0000000cH

; 1178 : 						
; 1179 : #endif	//MODIFY_GUILD_VIEWPORT_01_20040701
; 1180 : 						
; 1181 : 						// 전쟁 중 이었다면..
; 1182 : 						if( gObj[n].lpGuild->WarState )

  00578	69 85 a8 fd ff
	ff a0 1b 00 00	 imul	 eax, DWORD PTR _n$5[ebp], 7072
  00582	8b 0d 00 00 00
	00		 mov	 ecx, DWORD PTR ?gObj@@3PAVOBJECTSTRUCT@@A ; gObj
  00588	8b 94 01 94 02
	00 00		 mov	 edx, DWORD PTR [ecx+eax+660]
  0058f	0f b6 82 91 05
	00 00		 movzx	 eax, BYTE PTR [edx+1425]
  00596	85 c0		 test	 eax, eax
  00598	74 3c		 je	 SHORT $LN11@DGGuildMem

; 1183 : 						{	
; 1184 : 							GCGuildWarScore(n);

  0059a	8b 85 a8 fd ff
	ff		 mov	 eax, DWORD PTR _n$5[ebp]
  005a0	50		 push	 eax
  005a1	e8 00 00 00 00	 call	 ?GCGuildWarScore@@YAXH@Z ; GCGuildWarScore
  005a6	83 c4 04	 add	 esp, 4

; 1185 : 							GCGuildWarDeclare(n, gObj[n].lpGuild->TargetGuildName);

  005a9	69 85 a8 fd ff
	ff a0 1b 00 00	 imul	 eax, DWORD PTR _n$5[ebp], 7072
  005b3	8b 0d 00 00 00
	00		 mov	 ecx, DWORD PTR ?gObj@@3PAVOBJECTSTRUCT@@A ; gObj
  005b9	8b 94 01 94 02
	00 00		 mov	 edx, DWORD PTR [ecx+eax+660]
  005c0	81 c2 e0 04 00
	00		 add	 edx, 1248		; 000004e0H
  005c6	52		 push	 edx
  005c7	8b 85 a8 fd ff
	ff		 mov	 eax, DWORD PTR _n$5[ebp]
  005cd	50		 push	 eax
  005ce	e8 00 00 00 00	 call	 ?GCGuildWarDeclare@@YAXHPAD@Z ; GCGuildWarDeclare
  005d3	83 c4 08	 add	 esp, 8
$LN11@DGGuildMem:

; 1186 : 						}
; 1187 : 					}

  005d6	eb 1a		 jmp	 SHORT $LN9@DGGuildMem
$LN8@DGGuildMem:

; 1188 : 					else
; 1189 : 					{
; 1190 : #ifdef CASTLE_MAIN_SCHEDULER_20041111	// 읽어온 길드명으로 공성전 시 공/수 중 어느쪽인지에 대한 정보를 얻어온다.
; 1191 : 						gObj[n].m_btCsJoinSide		= CS_SIEGESIDE_NONE;
; 1192 : 						gObj[n].m_bCsGuildInvolved	= 0;
; 1193 : #endif
; 1194 : 						LogAddTD(lMsg.Get(441));

  005d8	68 b9 01 00 00	 push	 441			; 000001b9H
  005dd	b9 00 00 00 00	 mov	 ecx, OFFSET ?lMsg@@3VCMsg@@A ; lMsg
  005e2	ff 15 00 00 00
	00		 call	 DWORD PTR __imp_?Get@CMsg@@QAEPADH@Z
  005e8	50		 push	 eax
  005e9	ff 15 00 00 00
	00		 call	 DWORD PTR ?LogAddTD@@3P6AXPADZZA ; LogAddTD
  005ef	83 c4 04	 add	 esp, 4
$LN9@DGGuildMem:

; 1195 : 					}
; 1196 : 					return;

  005f2	eb 25		 jmp	 SHORT $LN12@DGGuildMem
$LN5@DGGuildMem:

; 1197 : 				}
; 1198 : 			}
; 1199 : 		}
; 1200 : 	}

  005f4	e9 f1 fa ff ff	 jmp	 $LN2@DGGuildMem
$LN3@DGGuildMem:

; 1201 : 
; 1202 : 	// 길드 멤버의 접속 상태를 세팅한다.
; 1203 : 	Guild.SetServer(szGuildName, szName, lpMsg->pServer);

  005f9	8b 45 08	 mov	 eax, DWORD PTR _lpMsg$[ebp]
  005fc	0f bf 48 1a	 movsx	 ecx, WORD PTR [eax+26]
  00600	51		 push	 ecx
  00601	8d 95 b4 fd ff
	ff		 lea	 edx, DWORD PTR _szName$[ebp]
  00607	52		 push	 edx
  00608	8d 85 c0 fd ff
	ff		 lea	 eax, DWORD PTR _szGuildName$[ebp]
  0060e	50		 push	 eax
  0060f	b9 00 00 00 00	 mov	 ecx, OFFSET ?Guild@@3VCGuildClass@@A ; Guild
  00614	e8 00 00 00 00	 call	 ?SetServer@CGuildClass@@QAEHPAD0H@Z ; CGuildClass::SetServer
$LN12@DGGuildMem:

; 1204 : }

  00619	5f		 pop	 edi
  0061a	5e		 pop	 esi
  0061b	5b		 pop	 ebx
  0061c	8b 4d fc	 mov	 ecx, DWORD PTR __$ArrayPad$[ebp]
  0061f	33 cd		 xor	 ecx, ebp
  00621	e8 00 00 00 00	 call	 @__security_check_cookie@4
  00626	8b e5		 mov	 esp, ebp
  00628	5d		 pop	 ebp
  00629	c3		 ret	 0
?DGGuildMemberInfo@@YAXPAUSDHP_GUILDMEMBER_INFO@@@Z ENDP ; DGGuildMemberInfo
_TEXT	ENDS
; Function compile flags: /Odtp /ZI
; File C:\Mu Online\Mu-GS-Webzen-MC-10093\GameServer\EDSProtocol.cpp
;	COMDAT ?GDGuildCreateRecv@@YAXPAUSDHP_GUILDCREATE_RESULT@@@Z
_TEXT	SEGMENT
$T1 = -116						; size = 4
$T2 = -112						; size = 4
_pMsg$3 = -44						; size = 4
_szGuildName$ = -40					; size = 9
_szMaster$ = -28					; size = 11
_lpNode$ = -16						; size = 4
_pMsg$ = -12						; size = 4
_aIndex$ = -8						; size = 4
__$ArrayPad$ = -4					; size = 4
_lpMsg$ = 8						; size = 4
?GDGuildCreateRecv@@YAXPAUSDHP_GUILDCREATE_RESULT@@@Z PROC ; GDGuildCreateRecv, COMDAT

; 389  : {

  00000	55		 push	 ebp
  00001	8b ec		 mov	 ebp, esp
  00003	83 ec 74	 sub	 esp, 116		; 00000074H
  00006	a1 00 00 00 00	 mov	 eax, DWORD PTR ___security_cookie
  0000b	33 c5		 xor	 eax, ebp
  0000d	89 45 fc	 mov	 DWORD PTR __$ArrayPad$[ebp], eax
  00010	53		 push	 ebx
  00011	56		 push	 esi
  00012	57		 push	 edi

; 390  : 	int aIndex=-1;

  00013	c7 45 f8 ff ff
	ff ff		 mov	 DWORD PTR _aIndex$[ebp], -1

; 391  : 	PMSG_GUILDCREATED_RESULT	pMsg;
; 392  : 	LPGUILD_INFO lpNode;
; 393  : 
; 394  : 	char szMaster[MAX_IDSTRING+1];
; 395  : 	char szGuildName[MAX_GUILDNAMESTRING+1];
; 396  : 
; 397  : 	szMaster[MAX_IDSTRING] = '\0';

  0001a	b8 01 00 00 00	 mov	 eax, 1
  0001f	6b c8 0a	 imul	 ecx, eax, 10
  00022	89 4d 90	 mov	 DWORD PTR $T2[ebp], ecx
  00025	83 7d 90 0b	 cmp	 DWORD PTR $T2[ebp], 11	; 0000000bH
  00029	73 02		 jae	 SHORT $LN11@GDGuildCre
  0002b	eb 05		 jmp	 SHORT $LN12@GDGuildCre
$LN11@GDGuildCre:
  0002d	e8 00 00 00 00	 call	 ___report_rangecheckfailure
$LN12@GDGuildCre:
  00032	8b 55 90	 mov	 edx, DWORD PTR $T2[ebp]
  00035	c6 44 15 e4 00	 mov	 BYTE PTR _szMaster$[ebp+edx], 0

; 398  : 	szGuildName[MAX_GUILDNAMESTRING]='\0';

  0003a	b8 01 00 00 00	 mov	 eax, 1
  0003f	c1 e0 03	 shl	 eax, 3
  00042	89 45 8c	 mov	 DWORD PTR $T1[ebp], eax
  00045	83 7d 8c 09	 cmp	 DWORD PTR $T1[ebp], 9
  00049	73 02		 jae	 SHORT $LN13@GDGuildCre
  0004b	eb 05		 jmp	 SHORT $LN14@GDGuildCre
$LN13@GDGuildCre:
  0004d	e8 00 00 00 00	 call	 ___report_rangecheckfailure
$LN14@GDGuildCre:
  00052	8b 4d 8c	 mov	 ecx, DWORD PTR $T1[ebp]
  00055	c6 44 0d d8 00	 mov	 BYTE PTR _szGuildName$[ebp+ecx], 0

; 399  : 
; 400  : 	memcpy(szMaster, lpMsg->Master, MAX_IDSTRING);

  0005a	6a 0a		 push	 10			; 0000000aH
  0005c	8b 45 08	 mov	 eax, DWORD PTR _lpMsg$[ebp]
  0005f	83 c0 0e	 add	 eax, 14			; 0000000eH
  00062	50		 push	 eax
  00063	8d 4d e4	 lea	 ecx, DWORD PTR _szMaster$[ebp]
  00066	51		 push	 ecx
  00067	e8 00 00 00 00	 call	 _memcpy
  0006c	83 c4 0c	 add	 esp, 12			; 0000000cH

; 401  : 	memcpy(szGuildName, lpMsg->GuildName, MAX_GUILDNAMESTRING);

  0006f	6a 08		 push	 8
  00071	8b 45 08	 mov	 eax, DWORD PTR _lpMsg$[ebp]
  00074	83 c0 19	 add	 eax, 25			; 00000019H
  00077	50		 push	 eax
  00078	8d 4d d8	 lea	 ecx, DWORD PTR _szGuildName$[ebp]
  0007b	51		 push	 ecx
  0007c	e8 00 00 00 00	 call	 _memcpy
  00081	83 c4 0c	 add	 esp, 12			; 0000000cH

; 402  : 
; 403  : 	
; 404  : 	if( lpMsg->Result == 0x00 )

  00084	8b 45 08	 mov	 eax, DWORD PTR _lpMsg$[ebp]
  00087	0f b6 48 03	 movzx	 ecx, BYTE PTR [eax+3]
  0008b	85 c9		 test	 ecx, ecx
  0008d	0f 85 c4 00 00
	00		 jne	 $LN2@GDGuildCre

; 405  : 	{
; 406  : 		aIndex = MAKEWORD(lpMsg->NumberL, lpMsg->NumberH);

  00093	8b 45 08	 mov	 eax, DWORD PTR _lpMsg$[ebp]
  00096	0f b6 48 0d	 movzx	 ecx, BYTE PTR [eax+13]
  0009a	81 e1 ff 00 00
	00		 and	 ecx, 255		; 000000ffH
  000a0	0f b6 d1	 movzx	 edx, cl
  000a3	8b 45 08	 mov	 eax, DWORD PTR _lpMsg$[ebp]
  000a6	0f b6 48 0c	 movzx	 ecx, BYTE PTR [eax+12]
  000aa	81 e1 ff 00 00
	00		 and	 ecx, 255		; 000000ffH
  000b0	0f b6 c1	 movzx	 eax, cl
  000b3	c1 e0 08	 shl	 eax, 8
  000b6	0b d0		 or	 edx, eax
  000b8	0f b7 ca	 movzx	 ecx, dx
  000bb	89 4d f8	 mov	 DWORD PTR _aIndex$[ebp], ecx

; 407  : 		PMSG_GUILDCREATED_RESULT	pMsg;
; 408  : 		
; 409  : 		PHeadSetB((LPBYTE)&pMsg, 0x56, sizeof( pMsg ));

  000be	6a 04		 push	 4
  000c0	6a 56		 push	 86			; 00000056H
  000c2	8d 45 d4	 lea	 eax, DWORD PTR _pMsg$3[ebp]
  000c5	50		 push	 eax
  000c6	e8 00 00 00 00	 call	 ?PHeadSetB@@YAXPAEEH@Z	; PHeadSetB
  000cb	83 c4 0c	 add	 esp, 12			; 0000000cH

; 410  : 
; 411  : 		pMsg.Result		= 0x00;

  000ce	c6 45 d7 00	 mov	 BYTE PTR _pMsg$3[ebp+3], 0

; 412  : 
; 413  : #ifdef ADD_NEW_GUILD_02_20040922
; 414  : 		pMsg.btGuildType = lpMsg->btGuildType;
; 415  : #endif
; 416  : 
; 417  : 		DataSend(aIndex, (LPBYTE)&pMsg, pMsg.h.size);

  000d2	0f b6 45 d5	 movzx	 eax, BYTE PTR _pMsg$3[ebp+1]
  000d6	50		 push	 eax
  000d7	8d 4d d4	 lea	 ecx, DWORD PTR _pMsg$3[ebp]
  000da	51		 push	 ecx
  000db	8b 55 f8	 mov	 edx, DWORD PTR _aIndex$[ebp]
  000de	52		 push	 edx
  000df	e8 00 00 00 00	 call	 ?DataSend@@YAHHPAEK@Z	; DataSend
  000e4	83 c4 0c	 add	 esp, 12			; 0000000cH

; 418  : 		if( gObj[aIndex].m_IfState.use && gObj[aIndex].m_IfState.type == I_GUILDCREATE )

  000e7	69 45 f8 a0 1b
	00 00		 imul	 eax, DWORD PTR _aIndex$[ebp], 7072
  000ee	8b 0d 00 00 00
	00		 mov	 ecx, DWORD PTR ?gObj@@3PAVOBJECTSTRUCT@@A ; gObj
  000f4	8a 94 01 56 0c
	00 00		 mov	 dl, BYTE PTR [ecx+eax+3158]
  000fb	80 e2 03	 and	 dl, 3
  000fe	0f b6 c2	 movzx	 eax, dl
  00101	85 c0		 test	 eax, eax
  00103	74 4d		 je	 SHORT $LN3@GDGuildCre
  00105	69 45 f8 a0 1b
	00 00		 imul	 eax, DWORD PTR _aIndex$[ebp], 7072
  0010c	8b 0d 00 00 00
	00		 mov	 ecx, DWORD PTR ?gObj@@3PAVOBJECTSTRUCT@@A ; gObj
  00112	8a 94 01 56 0c
	00 00		 mov	 dl, BYTE PTR [ecx+eax+3158]
  00119	c0 ea 04	 shr	 dl, 4
  0011c	80 e2 0f	 and	 dl, 15			; 0000000fH
  0011f	0f b6 c2	 movzx	 eax, dl
  00122	83 f8 05	 cmp	 eax, 5
  00125	75 2b		 jne	 SHORT $LN3@GDGuildCre

; 419  : 		{
; 420  : 			gObj[aIndex].m_IfState.use    = 0;

  00127	69 45 f8 a0 1b
	00 00		 imul	 eax, DWORD PTR _aIndex$[ebp], 7072
  0012e	8b 0d 00 00 00
	00		 mov	 ecx, DWORD PTR ?gObj@@3PAVOBJECTSTRUCT@@A ; gObj
  00134	8a 94 01 56 0c
	00 00		 mov	 dl, BYTE PTR [ecx+eax+3158]
  0013b	80 e2 fc	 and	 dl, 252			; 000000fcH
  0013e	69 45 f8 a0 1b
	00 00		 imul	 eax, DWORD PTR _aIndex$[ebp], 7072
  00145	8b 0d 00 00 00
	00		 mov	 ecx, DWORD PTR ?gObj@@3PAVOBJECTSTRUCT@@A ; gObj
  0014b	88 94 01 56 0c
	00 00		 mov	 BYTE PTR [ecx+eax+3158], dl
$LN3@GDGuildCre:

; 421  : 		}
; 422  : 		return;

  00152	e9 82 01 00 00	 jmp	 $LN10@GDGuildCre
$LN2@GDGuildCre:

; 423  : 	}
; 424  : 
; 425  : 		
; 426  : 	if( lpMsg->Flag == 0x01 )	// 우리 서버의 사용자야?

  00157	8b 45 08	 mov	 eax, DWORD PTR _lpMsg$[ebp]
  0015a	0f b6 48 04	 movzx	 ecx, BYTE PTR [eax+4]
  0015e	83 f9 01	 cmp	 ecx, 1
  00161	0f 85 b3 00 00
	00		 jne	 $LN4@GDGuildCre

; 427  : 	{
; 428  : 		aIndex = MAKEWORD(lpMsg->NumberL, lpMsg->NumberH);

  00167	8b 45 08	 mov	 eax, DWORD PTR _lpMsg$[ebp]
  0016a	0f b6 48 0d	 movzx	 ecx, BYTE PTR [eax+13]
  0016e	81 e1 ff 00 00
	00		 and	 ecx, 255		; 000000ffH
  00174	0f b6 d1	 movzx	 edx, cl
  00177	8b 45 08	 mov	 eax, DWORD PTR _lpMsg$[ebp]
  0017a	0f b6 48 0c	 movzx	 ecx, BYTE PTR [eax+12]
  0017e	81 e1 ff 00 00
	00		 and	 ecx, 255		; 000000ffH
  00184	0f b6 c1	 movzx	 eax, cl
  00187	c1 e0 08	 shl	 eax, 8
  0018a	0b d0		 or	 edx, eax
  0018c	0f b7 ca	 movzx	 ecx, dx
  0018f	89 4d f8	 mov	 DWORD PTR _aIndex$[ebp], ecx

; 429  : 		if( gObjIsConnected(aIndex) == TRUE ) 

  00192	8b 45 f8	 mov	 eax, DWORD PTR _aIndex$[ebp]
  00195	50		 push	 eax
  00196	e8 00 00 00 00	 call	 ?gObjIsConnected@@YAHH@Z ; gObjIsConnected
  0019b	83 c4 04	 add	 esp, 4
  0019e	83 f8 01	 cmp	 eax, 1
  001a1	75 77		 jne	 SHORT $LN4@GDGuildCre

; 430  : 		{
; 431  : 			if( szMaster[0] == gObj[aIndex].Name[0] )

  001a3	b8 01 00 00 00	 mov	 eax, 1
  001a8	6b c8 00	 imul	 ecx, eax, 0
  001ab	0f be 54 0d e4	 movsx	 edx, BYTE PTR _szMaster$[ebp+ecx]
  001b0	69 45 f8 a0 1b
	00 00		 imul	 eax, DWORD PTR _aIndex$[ebp], 7072
  001b7	03 05 00 00 00
	00		 add	 eax, DWORD PTR ?gObj@@3PAVOBJECTSTRUCT@@A ; gObj
  001bd	b9 01 00 00 00	 mov	 ecx, 1
  001c2	6b c9 00	 imul	 ecx, ecx, 0
  001c5	0f be 44 08 73	 movsx	 eax, BYTE PTR [eax+ecx+115]
  001ca	3b d0		 cmp	 edx, eax
  001cc	75 4c		 jne	 SHORT $LN4@GDGuildCre

; 432  : 			{
; 433  : 				if( strcmp(szMaster, gObj[aIndex].Name ) == 0 ) 

  001ce	69 45 f8 a0 1b
	00 00		 imul	 eax, DWORD PTR _aIndex$[ebp], 7072
  001d5	8b 0d 00 00 00
	00		 mov	 ecx, DWORD PTR ?gObj@@3PAVOBJECTSTRUCT@@A ; gObj
  001db	8d 54 01 73	 lea	 edx, DWORD PTR [ecx+eax+115]
  001df	52		 push	 edx
  001e0	8d 45 e4	 lea	 eax, DWORD PTR _szMaster$[ebp]
  001e3	50		 push	 eax
  001e4	e8 00 00 00 00	 call	 _strcmp
  001e9	83 c4 08	 add	 esp, 8
  001ec	85 c0		 test	 eax, eax
  001ee	75 2a		 jne	 SHORT $LN4@GDGuildCre

; 434  : 				{
; 435  : 					pMsg.h.c		= PMHC_BYTE;

  001f0	c6 45 f4 c1	 mov	 BYTE PTR _pMsg$[ebp], 193 ; 000000c1H

; 436  : 					pMsg.h.headcode	= 0x56;

  001f4	c6 45 f6 56	 mov	 BYTE PTR _pMsg$[ebp+2], 86 ; 00000056H

; 437  : 					pMsg.h.size		= sizeof( pMsg );

  001f8	c6 45 f5 04	 mov	 BYTE PTR _pMsg$[ebp+1], 4

; 438  : 					pMsg.Result		= lpMsg->Result;

  001fc	8b 45 08	 mov	 eax, DWORD PTR _lpMsg$[ebp]
  001ff	8a 48 03	 mov	 cl, BYTE PTR [eax+3]
  00202	88 4d f7	 mov	 BYTE PTR _pMsg$[ebp+3], cl

; 439  : 					
; 440  : #ifdef ADD_NEW_GUILD_02_20040922
; 441  : 					pMsg.btGuildType = lpMsg->btGuildType;
; 442  : #endif
; 443  : 					
; 444  : 					DataSend(aIndex, (LPBYTE)&pMsg, pMsg.h.size);

  00205	0f b6 45 f5	 movzx	 eax, BYTE PTR _pMsg$[ebp+1]
  00209	50		 push	 eax
  0020a	8d 4d f4	 lea	 ecx, DWORD PTR _pMsg$[ebp]
  0020d	51		 push	 ecx
  0020e	8b 55 f8	 mov	 edx, DWORD PTR _aIndex$[ebp]
  00211	52		 push	 edx
  00212	e8 00 00 00 00	 call	 ?DataSend@@YAHHPAEK@Z	; DataSend
  00217	83 c4 0c	 add	 esp, 12			; 0000000cH
$LN4@GDGuildCre:

; 445  : 				}
; 446  : 			}
; 447  : 		}
; 448  : 	}
; 449  : 	if( lpMsg->Result == 0x01 )

  0021a	8b 45 08	 mov	 eax, DWORD PTR _lpMsg$[ebp]
  0021d	0f b6 48 03	 movzx	 ecx, BYTE PTR [eax+3]
  00221	83 f9 01	 cmp	 ecx, 1
  00224	0f 85 af 00 00
	00		 jne	 $LN10@GDGuildCre

; 450  : 	{	
; 451  : 		lpNode = Guild.AddGuild(lpMsg->GuildNumber, szGuildName, lpMsg->Mark, szMaster, 0);

  0022a	6a 00		 push	 0
  0022c	8d 45 e4	 lea	 eax, DWORD PTR _szMaster$[ebp]
  0022f	50		 push	 eax
  00230	8b 4d 08	 mov	 ecx, DWORD PTR _lpMsg$[ebp]
  00233	83 c1 22	 add	 ecx, 34			; 00000022H
  00236	51		 push	 ecx
  00237	8d 55 d8	 lea	 edx, DWORD PTR _szGuildName$[ebp]
  0023a	52		 push	 edx
  0023b	8b 45 08	 mov	 eax, DWORD PTR _lpMsg$[ebp]
  0023e	8b 48 08	 mov	 ecx, DWORD PTR [eax+8]
  00241	51		 push	 ecx
  00242	b9 00 00 00 00	 mov	 ecx, OFFSET ?Guild@@3VCGuildClass@@A ; Guild
  00247	e8 00 00 00 00	 call	 ?AddGuild@CGuildClass@@QAEPAU_GUILD_INFO_STRUCT@@HPADPAE0H@Z ; CGuildClass::AddGuild
  0024c	89 45 f0	 mov	 DWORD PTR _lpNode$[ebp], eax

; 452  : 
; 453  : 		if( aIndex >= 0 && lpNode )

  0024f	83 7d f8 00	 cmp	 DWORD PTR _aIndex$[ebp], 0
  00253	0f 8c 80 00 00
	00		 jl	 $LN10@GDGuildCre
  00259	83 7d f0 00	 cmp	 DWORD PTR _lpNode$[ebp], 0
  0025d	74 7a		 je	 SHORT $LN10@GDGuildCre

; 454  : 		{
; 455  : 			gObj[aIndex].lpGuild     = lpNode;

  0025f	69 45 f8 a0 1b
	00 00		 imul	 eax, DWORD PTR _aIndex$[ebp], 7072
  00266	8b 0d 00 00 00
	00		 mov	 ecx, DWORD PTR ?gObj@@3PAVOBJECTSTRUCT@@A ; gObj
  0026c	8b 55 f0	 mov	 edx, DWORD PTR _lpNode$[ebp]
  0026f	89 94 01 94 02
	00 00		 mov	 DWORD PTR [ecx+eax+660], edx

; 456  : 
; 457  : #ifdef ADD_NEW_GUILD_01_20040913
; 458  : 			// 왜 1 이었을까..;
; 459  : 			gObj[aIndex].GuildNumber = lpMsg->GuildNumber;
; 460  : 			gObj[aIndex].GuildStatus = G_MASTER;
; 461  : #else
; 462  : 			gObj[aIndex].GuildNumber = 1;

  00276	69 45 f8 a0 1b
	00 00		 imul	 eax, DWORD PTR _aIndex$[ebp], 7072
  0027d	8b 0d 00 00 00
	00		 mov	 ecx, DWORD PTR ?gObj@@3PAVOBJECTSTRUCT@@A ; gObj
  00283	c7 84 01 90 02
	00 00 01 00 00
	00		 mov	 DWORD PTR [ecx+eax+656], 1

; 463  : #endif
; 464  : 
; 465  : #ifdef ADD_NEW_UNION_01_20041006
; 466  : 			lpNode->iGuildRival		 = G_RELATIONSHIP_NONE;
; 467  : 			lpNode->iGuildUnion		 = G_RELATIONSHIP_NONE;
; 468  : 			lpNode->iTimeStamp		 = 0;
; 469  : 			gObj[aIndex].iGuildUnionTimeStamp = 0;
; 470  : 			
; 471  : 			LogAddTD("[U.System] Guild is Created - Guild : %s / [%s][%s]", szGuildName, gObj[aIndex].AccountID, gObj[aIndex].Name );
; 472  : #endif
; 473  : 
; 474  : 			LogAdd(lMsg.Get(433),lpNode->WarState, lpNode->WarDeclareState, szGuildName);

  0028e	8d 45 d8	 lea	 eax, DWORD PTR _szGuildName$[ebp]
  00291	50		 push	 eax
  00292	8b 4d f0	 mov	 ecx, DWORD PTR _lpNode$[ebp]
  00295	0f b6 91 90 05
	00 00		 movzx	 edx, BYTE PTR [ecx+1424]
  0029c	52		 push	 edx
  0029d	8b 45 f0	 mov	 eax, DWORD PTR _lpNode$[ebp]
  002a0	0f b6 88 91 05
	00 00		 movzx	 ecx, BYTE PTR [eax+1425]
  002a7	51		 push	 ecx
  002a8	68 b1 01 00 00	 push	 433			; 000001b1H
  002ad	b9 00 00 00 00	 mov	 ecx, OFFSET ?lMsg@@3VCMsg@@A ; lMsg
  002b2	ff 15 00 00 00
	00		 call	 DWORD PTR __imp_?Get@CMsg@@QAEPADH@Z
  002b8	50		 push	 eax
  002b9	ff 15 00 00 00
	00		 call	 DWORD PTR ?LogAdd@@3P6AXPADZZA ; LogAdd
  002bf	83 c4 10	 add	 esp, 16			; 00000010H

; 475  : 
; 476  : #ifdef GUILD_VIEWPORT_MODIFY
; 477  : 			GCGuildViewportNowPaint(aIndex, szGuildName, lpMsg->Mark, 1);
; 478  : #else
; 479  : 			GCGuildViewportNowPaint(aIndex, szGuildName, lpMsg->Mark);

  002c2	8b 45 08	 mov	 eax, DWORD PTR _lpMsg$[ebp]
  002c5	83 c0 22	 add	 eax, 34			; 00000022H
  002c8	50		 push	 eax
  002c9	8d 4d d8	 lea	 ecx, DWORD PTR _szGuildName$[ebp]
  002cc	51		 push	 ecx
  002cd	8b 55 f8	 mov	 edx, DWORD PTR _aIndex$[ebp]
  002d0	52		 push	 edx
  002d1	e8 00 00 00 00	 call	 ?GCGuildViewportNowPaint@@YAXHPADPAE@Z ; GCGuildViewportNowPaint
  002d6	83 c4 0c	 add	 esp, 12			; 0000000cH
$LN10@GDGuildCre:

; 480  : #endif
; 481  : 		}
; 482  : 	}
; 483  : 	
; 484  : 	
; 485  : 
; 486  : 	//LogAdd("길드 리스트 받음 : GuildNumber:%d GuildName:%s Master:%s", lpMsg->GuildNumber, szGuildName, szMaster);
; 487  : }

  002d9	5f		 pop	 edi
  002da	5e		 pop	 esi
  002db	5b		 pop	 ebx
  002dc	8b 4d fc	 mov	 ecx, DWORD PTR __$ArrayPad$[ebp]
  002df	33 cd		 xor	 ecx, ebp
  002e1	e8 00 00 00 00	 call	 @__security_check_cookie@4
  002e6	8b e5		 mov	 esp, ebp
  002e8	5d		 pop	 ebp
  002e9	c3		 ret	 0
?GDGuildCreateRecv@@YAXPAUSDHP_GUILDCREATE_RESULT@@@Z ENDP ; GDGuildCreateRecv
_TEXT	ENDS
; Function compile flags: /Odtp /ZI
; File C:\Mu Online\Mu-GS-Webzen-MC-10093\GameServer\EDSProtocol.cpp
;	COMDAT ?GDGuildMemberAddResult@@YAXPAUSDHP_GUILDMEMBERADD_RESULT@@@Z
_TEXT	SEGMENT
$T1 = -112						; size = 4
$T2 = -108						; size = 4
_szGuildName$ = -40					; size = 9
_szMember$ = -28					; size = 11
_HereUserIndex$ = -16					; size = 4
_aIndex$ = -12						; size = 4
_lpNode$ = -8						; size = 4
__$ArrayPad$ = -4					; size = 4
_lpMsg$ = 8						; size = 4
?GDGuildMemberAddResult@@YAXPAUSDHP_GUILDMEMBERADD_RESULT@@@Z PROC ; GDGuildMemberAddResult, COMDAT

; 728  : {

  00000	55		 push	 ebp
  00001	8b ec		 mov	 ebp, esp
  00003	83 ec 70	 sub	 esp, 112		; 00000070H
  00006	a1 00 00 00 00	 mov	 eax, DWORD PTR ___security_cookie
  0000b	33 c5		 xor	 eax, ebp
  0000d	89 45 fc	 mov	 DWORD PTR __$ArrayPad$[ebp], eax
  00010	53		 push	 ebx
  00011	56		 push	 esi
  00012	57		 push	 edi

; 729  : 	LPGUILD_INFO	lpNode;
; 730  : 	int				aIndex = -1;

  00013	c7 45 f4 ff ff
	ff ff		 mov	 DWORD PTR _aIndex$[ebp], -1

; 731  : 	int				HereUserIndex=-1;

  0001a	c7 45 f0 ff ff
	ff ff		 mov	 DWORD PTR _HereUserIndex$[ebp], -1

; 732  : 	
; 733  : 	char szMember[MAX_IDSTRING+1];
; 734  : 	char szGuildName[MAX_GUILDNAMESTRING+1];
; 735  : 
; 736  : 	szMember[MAX_IDSTRING] = '\0';

  00021	b8 01 00 00 00	 mov	 eax, 1
  00026	6b c8 0a	 imul	 ecx, eax, 10
  00029	89 4d 94	 mov	 DWORD PTR $T2[ebp], ecx
  0002c	83 7d 94 0b	 cmp	 DWORD PTR $T2[ebp], 11	; 0000000bH
  00030	73 02		 jae	 SHORT $LN8@GDGuildMem
  00032	eb 05		 jmp	 SHORT $LN9@GDGuildMem
$LN8@GDGuildMem:
  00034	e8 00 00 00 00	 call	 ___report_rangecheckfailure
$LN9@GDGuildMem:
  00039	8b 55 94	 mov	 edx, DWORD PTR $T2[ebp]
  0003c	c6 44 15 e4 00	 mov	 BYTE PTR _szMember$[ebp+edx], 0

; 737  : 	szGuildName[MAX_GUILDNAMESTRING]='\0';

  00041	b8 01 00 00 00	 mov	 eax, 1
  00046	c1 e0 03	 shl	 eax, 3
  00049	89 45 90	 mov	 DWORD PTR $T1[ebp], eax
  0004c	83 7d 90 09	 cmp	 DWORD PTR $T1[ebp], 9
  00050	73 02		 jae	 SHORT $LN10@GDGuildMem
  00052	eb 05		 jmp	 SHORT $LN11@GDGuildMem
$LN10@GDGuildMem:
  00054	e8 00 00 00 00	 call	 ___report_rangecheckfailure
$LN11@GDGuildMem:
  00059	8b 4d 90	 mov	 ecx, DWORD PTR $T1[ebp]
  0005c	c6 44 0d d8 00	 mov	 BYTE PTR _szGuildName$[ebp+ecx], 0

; 738  : 
; 739  : 	memcpy(szMember, lpMsg->MemberID, MAX_IDSTRING);

  00061	6a 0a		 push	 10			; 0000000aH
  00063	8b 45 08	 mov	 eax, DWORD PTR _lpMsg$[ebp]
  00066	83 c0 10	 add	 eax, 16			; 00000010H
  00069	50		 push	 eax
  0006a	8d 4d e4	 lea	 ecx, DWORD PTR _szMember$[ebp]
  0006d	51		 push	 ecx
  0006e	e8 00 00 00 00	 call	 _memcpy
  00073	83 c4 0c	 add	 esp, 12			; 0000000cH

; 740  : 	memcpy(szGuildName, lpMsg->GuildName, MAX_GUILDNAMESTRING);

  00076	6a 08		 push	 8
  00078	8b 45 08	 mov	 eax, DWORD PTR _lpMsg$[ebp]
  0007b	83 c0 07	 add	 eax, 7
  0007e	50		 push	 eax
  0007f	8d 4d d8	 lea	 ecx, DWORD PTR _szGuildName$[ebp]
  00082	51		 push	 ecx
  00083	e8 00 00 00 00	 call	 _memcpy
  00088	83 c4 0c	 add	 esp, 12			; 0000000cH

; 741  : 
; 742  : 	if( lpMsg->Flag == 0x01 )	// 우리 서버의 사용자야?

  0008b	8b 45 08	 mov	 eax, DWORD PTR _lpMsg$[ebp]
  0008e	0f b6 48 04	 movzx	 ecx, BYTE PTR [eax+4]
  00092	83 f9 01	 cmp	 ecx, 1
  00095	75 7a		 jne	 SHORT $LN2@GDGuildMem

; 743  : 	{
; 744  : 		aIndex = MAKEWORD(lpMsg->NumberL, lpMsg->NumberH);

  00097	8b 45 08	 mov	 eax, DWORD PTR _lpMsg$[ebp]
  0009a	0f b6 48 06	 movzx	 ecx, BYTE PTR [eax+6]
  0009e	81 e1 ff 00 00
	00		 and	 ecx, 255		; 000000ffH
  000a4	0f b6 d1	 movzx	 edx, cl
  000a7	8b 45 08	 mov	 eax, DWORD PTR _lpMsg$[ebp]
  000aa	0f b6 48 05	 movzx	 ecx, BYTE PTR [eax+5]
  000ae	81 e1 ff 00 00
	00		 and	 ecx, 255		; 000000ffH
  000b4	0f b6 c1	 movzx	 eax, cl
  000b7	c1 e0 08	 shl	 eax, 8
  000ba	0b d0		 or	 edx, eax
  000bc	0f b7 ca	 movzx	 ecx, dx
  000bf	89 4d f4	 mov	 DWORD PTR _aIndex$[ebp], ecx

; 745  : 		if( gObjIsConnected(aIndex) == TRUE ) 

  000c2	8b 45 f4	 mov	 eax, DWORD PTR _aIndex$[ebp]
  000c5	50		 push	 eax
  000c6	e8 00 00 00 00	 call	 ?gObjIsConnected@@YAHH@Z ; gObjIsConnected
  000cb	83 c4 04	 add	 esp, 4
  000ce	83 f8 01	 cmp	 eax, 1
  000d1	75 3e		 jne	 SHORT $LN2@GDGuildMem

; 746  : 		{
; 747  : 			if( strcmp(szMember, gObj[aIndex].Name ) == 0 ) 

  000d3	69 45 f4 a0 1b
	00 00		 imul	 eax, DWORD PTR _aIndex$[ebp], 7072
  000da	8b 0d 00 00 00
	00		 mov	 ecx, DWORD PTR ?gObj@@3PAVOBJECTSTRUCT@@A ; gObj
  000e0	8d 54 01 73	 lea	 edx, DWORD PTR [ecx+eax+115]
  000e4	52		 push	 edx
  000e5	8d 45 e4	 lea	 eax, DWORD PTR _szMember$[ebp]
  000e8	50		 push	 eax
  000e9	e8 00 00 00 00	 call	 _strcmp
  000ee	83 c4 08	 add	 esp, 8
  000f1	85 c0		 test	 eax, eax
  000f3	75 1c		 jne	 SHORT $LN2@GDGuildMem

; 748  : 			{
; 749  : 				GCResultSend(aIndex, 0x51, lpMsg->Result);

  000f5	8b 45 08	 mov	 eax, DWORD PTR _lpMsg$[ebp]
  000f8	0f b6 48 03	 movzx	 ecx, BYTE PTR [eax+3]
  000fc	51		 push	 ecx
  000fd	6a 51		 push	 81			; 00000051H
  000ff	8b 55 f4	 mov	 edx, DWORD PTR _aIndex$[ebp]
  00102	52		 push	 edx
  00103	e8 00 00 00 00	 call	 ?GCResultSend@@YAXHEE@Z	; GCResultSend
  00108	83 c4 0c	 add	 esp, 12			; 0000000cH

; 750  : 				HereUserIndex = aIndex;				

  0010b	8b 45 f4	 mov	 eax, DWORD PTR _aIndex$[ebp]
  0010e	89 45 f0	 mov	 DWORD PTR _HereUserIndex$[ebp], eax
$LN2@GDGuildMem:

; 751  : 			}			
; 752  : 		}
; 753  : 	}
; 754  : 	if( lpMsg->Result == 0x01 )

  00111	8b 45 08	 mov	 eax, DWORD PTR _lpMsg$[ebp]
  00114	0f b6 48 03	 movzx	 ecx, BYTE PTR [eax+3]
  00118	83 f9 01	 cmp	 ecx, 1
  0011b	0f 85 86 00 00
	00		 jne	 $LN7@GDGuildMem

; 755  : 	{		
; 756  : 
; 757  : #ifdef ADD_NEW_GUILD_01_20040913
; 758  : 		lpNode = Guild.AddMember(szGuildName, szMember, HereUserIndex, -1, G_PERSON, lpMsg->pServer);
; 759  : #else
; 760  : 		lpNode = Guild.AddMember(szGuildName, szMember, HereUserIndex, -1, lpMsg->pServer);

  00121	8b 45 08	 mov	 eax, DWORD PTR _lpMsg$[ebp]
  00124	0f bf 48 1c	 movsx	 ecx, WORD PTR [eax+28]
  00128	51		 push	 ecx
  00129	6a ff		 push	 -1
  0012b	8b 55 f0	 mov	 edx, DWORD PTR _HereUserIndex$[ebp]
  0012e	52		 push	 edx
  0012f	8d 45 e4	 lea	 eax, DWORD PTR _szMember$[ebp]
  00132	50		 push	 eax
  00133	8d 4d d8	 lea	 ecx, DWORD PTR _szGuildName$[ebp]
  00136	51		 push	 ecx
  00137	b9 00 00 00 00	 mov	 ecx, OFFSET ?Guild@@3VCGuildClass@@A ; Guild
  0013c	e8 00 00 00 00	 call	 ?AddMember@CGuildClass@@QAEPAU_GUILD_INFO_STRUCT@@PAD0HHH@Z ; CGuildClass::AddMember
  00141	89 45 f8	 mov	 DWORD PTR _lpNode$[ebp], eax

; 761  : #endif
; 762  : 		
; 763  : 		if( aIndex >= 0 && lpNode )

  00144	83 7d f4 00	 cmp	 DWORD PTR _aIndex$[ebp], 0
  00148	7c 5d		 jl	 SHORT $LN7@GDGuildMem
  0014a	83 7d f8 00	 cmp	 DWORD PTR _lpNode$[ebp], 0
  0014e	74 57		 je	 SHORT $LN7@GDGuildMem

; 764  : 		{
; 765  : 			gObj[aIndex].lpGuild     = lpNode;

  00150	69 45 f4 a0 1b
	00 00		 imul	 eax, DWORD PTR _aIndex$[ebp], 7072
  00157	8b 0d 00 00 00
	00		 mov	 ecx, DWORD PTR ?gObj@@3PAVOBJECTSTRUCT@@A ; gObj
  0015d	8b 55 f8	 mov	 edx, DWORD PTR _lpNode$[ebp]
  00160	89 94 01 94 02
	00 00		 mov	 DWORD PTR [ecx+eax+660], edx

; 766  : 			
; 767  : #ifdef ADD_NEW_GUILD_01_20040913
; 768  : 			// 첫 가입때는 G_PERSON
; 769  : 			gObj[aIndex].GuildStatus = G_PERSON; // 길드 직책 및 상태	
; 770  : 			gObj[aIndex].GuildNumber = lpNode->Number;
; 771  : #else
; 772  : 			gObj[aIndex].GuildNumber = 1;

  00167	69 45 f4 a0 1b
	00 00		 imul	 eax, DWORD PTR _aIndex$[ebp], 7072
  0016e	8b 0d 00 00 00
	00		 mov	 ecx, DWORD PTR ?gObj@@3PAVOBJECTSTRUCT@@A ; gObj
  00174	c7 84 01 90 02
	00 00 01 00 00
	00		 mov	 DWORD PTR [ecx+eax+656], 1

; 773  : #endif
; 774  : 
; 775  : #ifdef ADD_NEW_UNION_01_20041006
; 776  : 			gObj[aIndex].iGuildUnionTimeStamp = 0;
; 777  : #endif
; 778  : 			
; 779  : #ifdef GUILD_VIEWPORT_MODIFY
; 780  : 			GCGuildViewportNowPaint(aIndex, szGuildName, gObj[aIndex].lpGuild->Mark, 0);
; 781  : #else
; 782  : 			GCGuildViewportNowPaint(aIndex, szGuildName, gObj[aIndex].lpGuild->Mark);

  0017f	69 45 f4 a0 1b
	00 00		 imul	 eax, DWORD PTR _aIndex$[ebp], 7072
  00186	8b 0d 00 00 00
	00		 mov	 ecx, DWORD PTR ?gObj@@3PAVOBJECTSTRUCT@@A ; gObj
  0018c	8b 94 01 94 02
	00 00		 mov	 edx, DWORD PTR [ecx+eax+660]
  00193	83 c2 0d	 add	 edx, 13			; 0000000dH
  00196	52		 push	 edx
  00197	8d 45 d8	 lea	 eax, DWORD PTR _szGuildName$[ebp]
  0019a	50		 push	 eax
  0019b	8b 4d f4	 mov	 ecx, DWORD PTR _aIndex$[ebp]
  0019e	51		 push	 ecx
  0019f	e8 00 00 00 00	 call	 ?GCGuildViewportNowPaint@@YAXHPADPAE@Z ; GCGuildViewportNowPaint
  001a4	83 c4 0c	 add	 esp, 12			; 0000000cH
$LN7@GDGuildMem:

; 783  : #endif
; 784  : 
; 785  : #ifdef MODIFY_CASTLESIEGE_STATENOTIFY_JOINGUILD_BUGFIX
; 786  : #ifdef GAMESERVER_TO_CASTLESIEGESERVER
; 787  : 			// 공성시작전 공성선포 기간에 공성길드를 가입한 경우 공성참여자로 설정한다.
; 788  : 			if (gObj[aIndex].MapNumber == MAP_INDEX_CASTLESIEGE)
; 789  : 			{
; 790  : 				INT nState = g_CastleSiege.GetCastleState();
; 791  : 				switch (nState)
; 792  : 				{
; 793  : 					case CASTLESIEGE_STATE_NOTIFY:
; 794  : 					case CASTLESIEGE_STATE_READYSIEGE:
; 795  : 						{
; 796  : 							szGuildName[MAX_GUILDNAMESTRING] = '\0';
; 797  : 							g_CastleSiege.GetCsJoinSide(szGuildName, gObj[aIndex].m_btCsJoinSide, gObj[aIndex].m_bCsGuildInvolved);
; 798  : 							g_CastleSiege.NotifySelfCsJoinSide(aIndex);
; 799  : 						}
; 800  : 						break;
; 801  : 				}
; 802  : 			}
; 803  : #endif // GAMESERVER_TO_CASTLESIEGESERVER
; 804  : #endif // MODIFY_CASTLESIEGE_STATENOTIFY_JOINGUILD_BUGFIX
; 805  : 
; 806  : #ifdef ADD_NEWPVP_PKFIELD
; 807  : 			{
; 808  : 				// 길드원가입시 같은 화면내에 있는 길드원을 위해 뷰포트를 갱신한다.
; 809  : 				// 클라이언트에서 같은 길드원으로 인식하기위한 처리
; 810  : 				LPOBJECTSTRUCT lpObj = &gObj[aIndex];
; 811  : 				LPOBJECTSTRUCT lpTargetObj = NULL;
; 812  : 
; 813  : 				// 뷰포트 상에서 나를 보고있는 사람들을 찾는다.
; 814  : 				// 나를 보고있는 길드원 뷰포트를 갱신한다.
; 815  : 				INT	tObjNum	= -1;
; 816  : 				for( int i=0; i<MAX_MONVIEWPORTOBJECT; i++)
; 817  : 				{
; 818  : 					tObjNum = lpObj->VpPlayer2[i].number;
; 819  : 					if (tObjNum < 0)
; 820  : 						continue;
; 821  : 
; 822  : 					lpTargetObj = &gObj[tObjNum];
; 823  : 					if(lpTargetObj->Type == OBJTYPE_CHARACTER && gObjIsConnected(lpTargetObj->m_Index))
; 824  : 					{
; 825  : 						if (lpTargetObj->lpGuild && lpObj->lpGuild->Number == lpTargetObj->lpGuild->Number)
; 826  : 						{
; 827  : 							gObjClearViewport(lpTargetObj);
; 828  : 							gObjViewportListCreate(lpTargetObj->m_Index);
; 829  : 							gObjViewportListProtocolCreate(lpTargetObj);
; 830  : 						}
; 831  : 					}
; 832  : 				}
; 833  : 				gObjClearViewport(lpObj);
; 834  : 				gObjViewportListCreate(lpObj->m_Index);
; 835  : 				gObjViewportListProtocolCreate(lpObj);
; 836  : 			}
; 837  : #endif // ADD_NEWPVP_PKFIELD
; 838  : 		}
; 839  : 	}
; 840  : }

  001a7	5f		 pop	 edi
  001a8	5e		 pop	 esi
  001a9	5b		 pop	 ebx
  001aa	8b 4d fc	 mov	 ecx, DWORD PTR __$ArrayPad$[ebp]
  001ad	33 cd		 xor	 ecx, ebp
  001af	e8 00 00 00 00	 call	 @__security_check_cookie@4
  001b4	8b e5		 mov	 esp, ebp
  001b6	5d		 pop	 ebp
  001b7	c3		 ret	 0
?GDGuildMemberAddResult@@YAXPAUSDHP_GUILDMEMBERADD_RESULT@@@Z ENDP ; GDGuildMemberAddResult
_TEXT	ENDS
; Function compile flags: /Odtp /ZI
; File C:\Mu Online\Mu-GS-Webzen-MC-10093\GameServer\EDSProtocol.cpp
;	COMDAT ?GDGuildMemberDelResult@@YAXPAUSDHP_GUILDMEMBERDEL_RESULT@@@Z
_TEXT	SEGMENT
$T1 = -108						; size = 4
$T2 = -104						; size = 4
_n$3 = -36						; size = 4
_szGuildName$ = -32					; size = 9
_szMember$ = -20					; size = 11
_aIndex$ = -8						; size = 4
__$ArrayPad$ = -4					; size = 4
_lpMsg$ = 8						; size = 4
?GDGuildMemberDelResult@@YAXPAUSDHP_GUILDMEMBERDEL_RESULT@@@Z PROC ; GDGuildMemberDelResult, COMDAT

; 865  : {

  00000	55		 push	 ebp
  00001	8b ec		 mov	 ebp, esp
  00003	83 ec 6c	 sub	 esp, 108		; 0000006cH
  00006	a1 00 00 00 00	 mov	 eax, DWORD PTR ___security_cookie
  0000b	33 c5		 xor	 eax, ebp
  0000d	89 45 fc	 mov	 DWORD PTR __$ArrayPad$[ebp], eax
  00010	53		 push	 ebx
  00011	56		 push	 esi
  00012	57		 push	 edi

; 866  : 	int aIndex = -1;

  00013	c7 45 f8 ff ff
	ff ff		 mov	 DWORD PTR _aIndex$[ebp], -1

; 867  : 	char szMember[MAX_IDSTRING+1];
; 868  : 	char szGuildName[MAX_GUILDNAMESTRING+1];
; 869  : 
; 870  : 	szMember[MAX_IDSTRING] = '\0';

  0001a	b8 01 00 00 00	 mov	 eax, 1
  0001f	6b c8 0a	 imul	 ecx, eax, 10
  00022	89 4d 98	 mov	 DWORD PTR $T2[ebp], ecx
  00025	83 7d 98 0b	 cmp	 DWORD PTR $T2[ebp], 11	; 0000000bH
  00029	73 02		 jae	 SHORT $LN18@GDGuildMem
  0002b	eb 05		 jmp	 SHORT $LN19@GDGuildMem
$LN18@GDGuildMem:
  0002d	e8 00 00 00 00	 call	 ___report_rangecheckfailure
$LN19@GDGuildMem:
  00032	8b 55 98	 mov	 edx, DWORD PTR $T2[ebp]
  00035	c6 44 15 ec 00	 mov	 BYTE PTR _szMember$[ebp+edx], 0

; 871  : 	szGuildName[MAX_GUILDNAMESTRING]='\0';

  0003a	b8 01 00 00 00	 mov	 eax, 1
  0003f	c1 e0 03	 shl	 eax, 3
  00042	89 45 94	 mov	 DWORD PTR $T1[ebp], eax
  00045	83 7d 94 09	 cmp	 DWORD PTR $T1[ebp], 9
  00049	73 02		 jae	 SHORT $LN20@GDGuildMem
  0004b	eb 05		 jmp	 SHORT $LN21@GDGuildMem
$LN20@GDGuildMem:
  0004d	e8 00 00 00 00	 call	 ___report_rangecheckfailure
$LN21@GDGuildMem:
  00052	8b 4d 94	 mov	 ecx, DWORD PTR $T1[ebp]
  00055	c6 44 0d e0 00	 mov	 BYTE PTR _szGuildName$[ebp+ecx], 0

; 872  : 
; 873  : 	memcpy(szMember, lpMsg->MemberID, MAX_IDSTRING);

  0005a	6a 0a		 push	 10			; 0000000aH
  0005c	8b 45 08	 mov	 eax, DWORD PTR _lpMsg$[ebp]
  0005f	83 c0 10	 add	 eax, 16			; 00000010H
  00062	50		 push	 eax
  00063	8d 4d ec	 lea	 ecx, DWORD PTR _szMember$[ebp]
  00066	51		 push	 ecx
  00067	e8 00 00 00 00	 call	 _memcpy
  0006c	83 c4 0c	 add	 esp, 12			; 0000000cH

; 874  : 	memcpy(szGuildName, lpMsg->GuildName, MAX_GUILDNAMESTRING);

  0006f	6a 08		 push	 8
  00071	8b 45 08	 mov	 eax, DWORD PTR _lpMsg$[ebp]
  00074	83 c0 07	 add	 eax, 7
  00077	50		 push	 eax
  00078	8d 4d e0	 lea	 ecx, DWORD PTR _szGuildName$[ebp]
  0007b	51		 push	 ecx
  0007c	e8 00 00 00 00	 call	 _memcpy
  00081	83 c4 0c	 add	 esp, 12			; 0000000cH

; 875  : 	
; 876  : 	if( lpMsg->Flag == 0x01 )	// 우리 서버의 사용자야?

  00084	8b 45 08	 mov	 eax, DWORD PTR _lpMsg$[ebp]
  00087	0f b6 48 04	 movzx	 ecx, BYTE PTR [eax+4]
  0008b	83 f9 01	 cmp	 ecx, 1
  0008e	0f 85 e0 00 00
	00		 jne	 $LN4@GDGuildMem

; 877  : 	{
; 878  : 		aIndex = MAKEWORD(lpMsg->NumberL, lpMsg->NumberH);

  00094	8b 45 08	 mov	 eax, DWORD PTR _lpMsg$[ebp]
  00097	0f b6 48 06	 movzx	 ecx, BYTE PTR [eax+6]
  0009b	81 e1 ff 00 00
	00		 and	 ecx, 255		; 000000ffH
  000a1	0f b6 d1	 movzx	 edx, cl
  000a4	8b 45 08	 mov	 eax, DWORD PTR _lpMsg$[ebp]
  000a7	0f b6 48 05	 movzx	 ecx, BYTE PTR [eax+5]
  000ab	81 e1 ff 00 00
	00		 and	 ecx, 255		; 000000ffH
  000b1	0f b6 c1	 movzx	 eax, cl
  000b4	c1 e0 08	 shl	 eax, 8
  000b7	0b d0		 or	 edx, eax
  000b9	0f b7 ca	 movzx	 ecx, dx
  000bc	89 4d f8	 mov	 DWORD PTR _aIndex$[ebp], ecx

; 879  : 		if( gObjIsConnected(aIndex) == TRUE ) 

  000bf	8b 45 f8	 mov	 eax, DWORD PTR _aIndex$[ebp]
  000c2	50		 push	 eax
  000c3	e8 00 00 00 00	 call	 ?gObjIsConnected@@YAHH@Z ; gObjIsConnected
  000c8	83 c4 04	 add	 esp, 4
  000cb	83 f8 01	 cmp	 eax, 1
  000ce	75 78		 jne	 SHORT $LN5@GDGuildMem

; 880  : 		{
; 881  : 			if( strcmp(szMember, gObj[aIndex].Name ) == 0 ) 

  000d0	69 45 f8 a0 1b
	00 00		 imul	 eax, DWORD PTR _aIndex$[ebp], 7072
  000d7	8b 0d 00 00 00
	00		 mov	 ecx, DWORD PTR ?gObj@@3PAVOBJECTSTRUCT@@A ; gObj
  000dd	8d 54 01 73	 lea	 edx, DWORD PTR [ecx+eax+115]
  000e1	52		 push	 edx
  000e2	8d 45 ec	 lea	 eax, DWORD PTR _szMember$[ebp]
  000e5	50		 push	 eax
  000e6	e8 00 00 00 00	 call	 _strcmp
  000eb	83 c4 08	 add	 esp, 8
  000ee	85 c0		 test	 eax, eax
  000f0	75 44		 jne	 SHORT $LN7@GDGuildMem

; 882  : 			{
; 883  : 				GCResultSend(aIndex, 0x53, lpMsg->Result);

  000f2	8b 45 08	 mov	 eax, DWORD PTR _lpMsg$[ebp]
  000f5	0f b6 48 03	 movzx	 ecx, BYTE PTR [eax+3]
  000f9	51		 push	 ecx
  000fa	6a 53		 push	 83			; 00000053H
  000fc	8b 55 f8	 mov	 edx, DWORD PTR _aIndex$[ebp]
  000ff	52		 push	 edx
  00100	e8 00 00 00 00	 call	 ?GCResultSend@@YAXHEE@Z	; GCResultSend
  00105	83 c4 0c	 add	 esp, 12			; 0000000cH

; 884  : 				LogAdd(lMsg.Get(436), gObj[aIndex].Name);

  00108	69 45 f8 a0 1b
	00 00		 imul	 eax, DWORD PTR _aIndex$[ebp], 7072
  0010f	8b 0d 00 00 00
	00		 mov	 ecx, DWORD PTR ?gObj@@3PAVOBJECTSTRUCT@@A ; gObj
  00115	8d 54 01 73	 lea	 edx, DWORD PTR [ecx+eax+115]
  00119	52		 push	 edx
  0011a	68 b4 01 00 00	 push	 436			; 000001b4H
  0011f	b9 00 00 00 00	 mov	 ecx, OFFSET ?lMsg@@3VCMsg@@A ; lMsg
  00124	ff 15 00 00 00
	00		 call	 DWORD PTR __imp_?Get@CMsg@@QAEPADH@Z
  0012a	50		 push	 eax
  0012b	ff 15 00 00 00
	00		 call	 DWORD PTR ?LogAdd@@3P6AXPADZZA ; LogAdd
  00131	83 c4 08	 add	 esp, 8

; 885  : 			}

  00134	eb 10		 jmp	 SHORT $LN8@GDGuildMem
$LN7@GDGuildMem:

; 886  : 			else GCResultSend(aIndex, 0x53, 0x05);			// "길드원을 탈퇴시켰습니다."

  00136	6a 05		 push	 5
  00138	6a 53		 push	 83			; 00000053H
  0013a	8b 45 f8	 mov	 eax, DWORD PTR _aIndex$[ebp]
  0013d	50		 push	 eax
  0013e	e8 00 00 00 00	 call	 ?GCResultSend@@YAXHEE@Z	; GCResultSend
  00143	83 c4 0c	 add	 esp, 12			; 0000000cH
$LN8@GDGuildMem:

; 887  : 		}

  00146	eb 2c		 jmp	 SHORT $LN4@GDGuildMem
$LN5@GDGuildMem:

; 888  : 		else {
; 889  : 			LogAdd(lMsg.Get(437), gObj[aIndex].Name);

  00148	69 45 f8 a0 1b
	00 00		 imul	 eax, DWORD PTR _aIndex$[ebp], 7072
  0014f	8b 0d 00 00 00
	00		 mov	 ecx, DWORD PTR ?gObj@@3PAVOBJECTSTRUCT@@A ; gObj
  00155	8d 54 01 73	 lea	 edx, DWORD PTR [ecx+eax+115]
  00159	52		 push	 edx
  0015a	68 b5 01 00 00	 push	 437			; 000001b5H
  0015f	b9 00 00 00 00	 mov	 ecx, OFFSET ?lMsg@@3VCMsg@@A ; lMsg
  00164	ff 15 00 00 00
	00		 call	 DWORD PTR __imp_?Get@CMsg@@QAEPADH@Z
  0016a	50		 push	 eax
  0016b	ff 15 00 00 00
	00		 call	 DWORD PTR ?LogAdd@@3P6AXPADZZA ; LogAdd
  00171	83 c4 08	 add	 esp, 8
$LN4@GDGuildMem:

; 890  : 		}
; 891  : 	}
; 892  : 	if( lpMsg->Result == 0x01 )

  00174	8b 45 08	 mov	 eax, DWORD PTR _lpMsg$[ebp]
  00177	0f b6 48 03	 movzx	 ecx, BYTE PTR [eax+3]
  0017b	83 f9 01	 cmp	 ecx, 1
  0017e	0f 85 64 01 00
	00		 jne	 $LN9@GDGuildMem

; 893  : 	{	
; 894  : 		int n=0;

  00184	c7 45 dc 00 00
	00 00		 mov	 DWORD PTR _n$3[ebp], 0
$LN2@GDGuildMem:

; 895  : 		
; 896  : 		while(1)

  0018b	b8 01 00 00 00	 mov	 eax, 1
  00190	85 c0		 test	 eax, eax
  00192	0f 84 3c 01 00
	00		 je	 $LN3@GDGuildMem

; 897  : 		{
; 898  : 			if( gObj[n].Connected > 2 )

  00198	69 45 dc a0 1b
	00 00		 imul	 eax, DWORD PTR _n$3[ebp], 7072
  0019f	8b 0d 00 00 00
	00		 mov	 ecx, DWORD PTR ?gObj@@3PAVOBJECTSTRUCT@@A ; gObj
  001a5	83 7c 01 04 02	 cmp	 DWORD PTR [ecx+eax+4], 2
  001aa	0f 8e 09 01 00
	00		 jle	 $LN11@GDGuildMem

; 899  : 			{
; 900  : 				if( gObj[n].GuildNumber > 0 )

  001b0	69 45 dc a0 1b
	00 00		 imul	 eax, DWORD PTR _n$3[ebp], 7072
  001b7	8b 0d 00 00 00
	00		 mov	 ecx, DWORD PTR ?gObj@@3PAVOBJECTSTRUCT@@A ; gObj
  001bd	83 bc 01 90 02
	00 00 00	 cmp	 DWORD PTR [ecx+eax+656], 0
  001c5	0f 8e ee 00 00
	00		 jle	 $LN11@GDGuildMem

; 901  : 				{					
; 902  : 					if( gObj[n].Name[0] == szMember[0] &&

  001cb	69 45 dc a0 1b
	00 00		 imul	 eax, DWORD PTR _n$3[ebp], 7072
  001d2	03 05 00 00 00
	00		 add	 eax, DWORD PTR ?gObj@@3PAVOBJECTSTRUCT@@A ; gObj
  001d8	b9 01 00 00 00	 mov	 ecx, 1
  001dd	6b d1 00	 imul	 edx, ecx, 0
  001e0	0f be 44 10 73	 movsx	 eax, BYTE PTR [eax+edx+115]
  001e5	b9 01 00 00 00	 mov	 ecx, 1
  001ea	6b d1 00	 imul	 edx, ecx, 0
  001ed	0f be 4c 15 ec	 movsx	 ecx, BYTE PTR _szMember$[ebp+edx]
  001f2	3b c1		 cmp	 eax, ecx
  001f4	0f 85 bf 00 00
	00		 jne	 $LN11@GDGuildMem
  001fa	69 45 dc a0 1b
	00 00		 imul	 eax, DWORD PTR _n$3[ebp], 7072
  00201	03 05 00 00 00
	00		 add	 eax, DWORD PTR ?gObj@@3PAVOBJECTSTRUCT@@A ; gObj
  00207	b9 01 00 00 00	 mov	 ecx, 1
  0020c	c1 e1 00	 shl	 ecx, 0
  0020f	0f be 54 08 73	 movsx	 edx, BYTE PTR [eax+ecx+115]
  00214	b8 01 00 00 00	 mov	 eax, 1
  00219	c1 e0 00	 shl	 eax, 0
  0021c	0f be 4c 05 ec	 movsx	 ecx, BYTE PTR _szMember$[ebp+eax]
  00221	3b d1		 cmp	 edx, ecx
  00223	0f 85 90 00 00
	00		 jne	 $LN11@GDGuildMem

; 903  : 						gObj[n].Name[1] == szMember[1])
; 904  : 					{
; 905  : 						if( strcmp(gObj[n].Name, szMember) == 0 )

  00229	8d 45 ec	 lea	 eax, DWORD PTR _szMember$[ebp]
  0022c	50		 push	 eax
  0022d	69 4d dc a0 1b
	00 00		 imul	 ecx, DWORD PTR _n$3[ebp], 7072
  00234	8b 15 00 00 00
	00		 mov	 edx, DWORD PTR ?gObj@@3PAVOBJECTSTRUCT@@A ; gObj
  0023a	8d 44 0a 73	 lea	 eax, DWORD PTR [edx+ecx+115]
  0023e	50		 push	 eax
  0023f	e8 00 00 00 00	 call	 _strcmp
  00244	83 c4 08	 add	 esp, 8
  00247	85 c0		 test	 eax, eax
  00249	75 6e		 jne	 SHORT $LN11@GDGuildMem

; 906  : 						{
; 907  : #ifdef GUILD_VIEWPORT_MODIFY
; 908  : 							GCGuildViewportDelNow(n, 0);
; 909  : #else
; 910  : 							GCGuildViewportDelNow(n);

  0024b	8b 45 dc	 mov	 eax, DWORD PTR _n$3[ebp]
  0024e	50		 push	 eax
  0024f	e8 00 00 00 00	 call	 ?GCGuildViewportDelNow@@YAXH@Z ; GCGuildViewportDelNow
  00254	83 c4 04	 add	 esp, 4

; 911  : #endif
; 912  : 							gObj[n].lpGuild     = NULL;

  00257	69 45 dc a0 1b
	00 00		 imul	 eax, DWORD PTR _n$3[ebp], 7072
  0025e	8b 0d 00 00 00
	00		 mov	 ecx, DWORD PTR ?gObj@@3PAVOBJECTSTRUCT@@A ; gObj
  00264	c7 84 01 94 02
	00 00 00 00 00
	00		 mov	 DWORD PTR [ecx+eax+660], 0

; 913  : 							gObj[n].GuildNumber = 0;

  0026f	69 45 dc a0 1b
	00 00		 imul	 eax, DWORD PTR _n$3[ebp], 7072
  00276	8b 0d 00 00 00
	00		 mov	 ecx, DWORD PTR ?gObj@@3PAVOBJECTSTRUCT@@A ; gObj
  0027c	c7 84 01 90 02
	00 00 00 00 00
	00		 mov	 DWORD PTR [ecx+eax+656], 0

; 914  : 
; 915  : #ifdef ADD_NEW_GUILD_01_20040913
; 916  : 							gObj[n].GuildStatus = G_NONE; // 길드 직책 및 상태	
; 917  : #endif
; 918  : 
; 919  : #ifdef ADD_NEW_UNION_01_20041006
; 920  : 							gObjNotifyUpdateUnionV1(&gObj[n]);
; 921  : #endif
; 922  : 							LogAdd(lMsg.Get(438),aIndex, gObj[n].Name);

  00287	69 45 dc a0 1b
	00 00		 imul	 eax, DWORD PTR _n$3[ebp], 7072
  0028e	8b 0d 00 00 00
	00		 mov	 ecx, DWORD PTR ?gObj@@3PAVOBJECTSTRUCT@@A ; gObj
  00294	8d 54 01 73	 lea	 edx, DWORD PTR [ecx+eax+115]
  00298	52		 push	 edx
  00299	8b 45 f8	 mov	 eax, DWORD PTR _aIndex$[ebp]
  0029c	50		 push	 eax
  0029d	68 b6 01 00 00	 push	 438			; 000001b6H
  002a2	b9 00 00 00 00	 mov	 ecx, OFFSET ?lMsg@@3VCMsg@@A ; lMsg
  002a7	ff 15 00 00 00
	00		 call	 DWORD PTR __imp_?Get@CMsg@@QAEPADH@Z
  002ad	50		 push	 eax
  002ae	ff 15 00 00 00
	00		 call	 DWORD PTR ?LogAdd@@3P6AXPADZZA ; LogAdd
  002b4	83 c4 0c	 add	 esp, 12			; 0000000cH

; 923  : 							break;

  002b7	eb 1b		 jmp	 SHORT $LN3@GDGuildMem
$LN11@GDGuildMem:

; 924  : 						}
; 925  : 					}
; 926  : 				}
; 927  : 			}
; 928  : 			if( n < MAX_OBJECT-1 ) n++;

  002b9	81 7d dc e7 1c
	00 00		 cmp	 DWORD PTR _n$3[ebp], 7399 ; 00001ce7H
  002c0	7d 0b		 jge	 SHORT $LN15@GDGuildMem
  002c2	8b 45 dc	 mov	 eax, DWORD PTR _n$3[ebp]
  002c5	83 c0 01	 add	 eax, 1
  002c8	89 45 dc	 mov	 DWORD PTR _n$3[ebp], eax
  002cb	eb 02		 jmp	 SHORT $LN16@GDGuildMem
$LN15@GDGuildMem:

; 929  : 			else break;

  002cd	eb 05		 jmp	 SHORT $LN3@GDGuildMem
$LN16@GDGuildMem:

; 930  : 		}

  002cf	e9 b7 fe ff ff	 jmp	 $LN2@GDGuildMem
$LN3@GDGuildMem:

; 931  : 		Guild.DelMember(szGuildName, szMember);

  002d4	8d 45 ec	 lea	 eax, DWORD PTR _szMember$[ebp]
  002d7	50		 push	 eax
  002d8	8d 4d e0	 lea	 ecx, DWORD PTR _szGuildName$[ebp]
  002db	51		 push	 ecx
  002dc	b9 00 00 00 00	 mov	 ecx, OFFSET ?Guild@@3VCGuildClass@@A ; Guild
  002e1	e8 00 00 00 00	 call	 ?DelMember@CGuildClass@@QAEHPAD0@Z ; CGuildClass::DelMember

; 932  : 	}

  002e6	eb 26		 jmp	 SHORT $LN17@GDGuildMem
$LN9@GDGuildMem:

; 933  : 	else
; 934  : 	{
; 935  : 		LogAdd(lMsg.Get(439), szGuildName, lpMsg->Result);

  002e8	8b 45 08	 mov	 eax, DWORD PTR _lpMsg$[ebp]
  002eb	0f b6 48 03	 movzx	 ecx, BYTE PTR [eax+3]
  002ef	51		 push	 ecx
  002f0	8d 55 e0	 lea	 edx, DWORD PTR _szGuildName$[ebp]
  002f3	52		 push	 edx
  002f4	68 b7 01 00 00	 push	 439			; 000001b7H
  002f9	b9 00 00 00 00	 mov	 ecx, OFFSET ?lMsg@@3VCMsg@@A ; lMsg
  002fe	ff 15 00 00 00
	00		 call	 DWORD PTR __imp_?Get@CMsg@@QAEPADH@Z
  00304	50		 push	 eax
  00305	ff 15 00 00 00
	00		 call	 DWORD PTR ?LogAdd@@3P6AXPADZZA ; LogAdd
  0030b	83 c4 0c	 add	 esp, 12			; 0000000cH
$LN17@GDGuildMem:

; 936  : 	}
; 937  : }

  0030e	5f		 pop	 edi
  0030f	5e		 pop	 esi
  00310	5b		 pop	 ebx
  00311	8b 4d fc	 mov	 ecx, DWORD PTR __$ArrayPad$[ebp]
  00314	33 cd		 xor	 ecx, ebp
  00316	e8 00 00 00 00	 call	 @__security_check_cookie@4
  0031b	8b e5		 mov	 esp, ebp
  0031d	5d		 pop	 ebp
  0031e	c3		 ret	 0
?GDGuildMemberDelResult@@YAXPAUSDHP_GUILDMEMBERDEL_RESULT@@@Z ENDP ; GDGuildMemberDelResult
_TEXT	ENDS
; Function compile flags: /Odtp /ZI
; File C:\Mu Online\Mu-GS-Webzen-MC-10093\GameServer\EDSProtocol.cpp
;	COMDAT ?GDGuildNoticeSave@@YAXPAD0@Z
_TEXT	SEGMENT
_len$ = -80						; size = 4
_pMsg$ = -76						; size = 72
__$ArrayPad$ = -4					; size = 4
_guild_name$ = 8					; size = 4
_guild_notice$ = 12					; size = 4
?GDGuildNoticeSave@@YAXPAD0@Z PROC			; GDGuildNoticeSave, COMDAT

; 1307 : {

  00000	55		 push	 ebp
  00001	8b ec		 mov	 ebp, esp
  00003	81 ec 90 00 00
	00		 sub	 esp, 144		; 00000090H
  00009	a1 00 00 00 00	 mov	 eax, DWORD PTR ___security_cookie
  0000e	33 c5		 xor	 eax, ebp
  00010	89 45 fc	 mov	 DWORD PTR __$ArrayPad$[ebp], eax
  00013	53		 push	 ebx
  00014	56		 push	 esi
  00015	57		 push	 edi

; 1308 : 	SDHP_GUILDNOTICE	pMsg;
; 1309 : 	int len;
; 1310 : 	len = strlen( guild_notice );

  00016	8b 45 0c	 mov	 eax, DWORD PTR _guild_notice$[ebp]
  00019	50		 push	 eax
  0001a	e8 00 00 00 00	 call	 _strlen
  0001f	83 c4 04	 add	 esp, 4
  00022	89 45 b0	 mov	 DWORD PTR _len$[ebp], eax

; 1311 : #ifdef APPLY_TESTSERVER1	
; 1312 : 	if( len < 1 )
; 1313 : 	{
; 1314 : 		guild_notice[0] = ' ';
; 1315 : 		guild_notice[1] = 0;		
; 1316 : 	}
; 1317 : #else
; 1318 : 	if( len < 1 ) return;

  00025	83 7d b0 01	 cmp	 DWORD PTR _len$[ebp], 1
  00029	7d 02		 jge	 SHORT $LN2@GDGuildNot
  0002b	eb 53		 jmp	 SHORT $LN1@GDGuildNot
$LN2@GDGuildNot:

; 1319 : #endif
; 1320 : 	
; 1321 : 	if( len > MAX_CHAT-2 ) return;	

  0002d	83 7d b0 3a	 cmp	 DWORD PTR _len$[ebp], 58 ; 0000003aH
  00031	7e 02		 jle	 SHORT $LN3@GDGuildNot
  00033	eb 4b		 jmp	 SHORT $LN1@GDGuildNot
$LN3@GDGuildNot:

; 1322 : 	
; 1323 : 	pMsg.h.c		= PMHC_BYTE;

  00035	c6 45 b4 c1	 mov	 BYTE PTR _pMsg$[ebp], 193 ; 000000c1H

; 1324 : 	pMsg.h.headcode	= 0x38;

  00039	c6 45 b6 38	 mov	 BYTE PTR _pMsg$[ebp+2], 56 ; 00000038H

; 1325 : 	pMsg.h.size		= sizeof( pMsg );

  0003d	c6 45 b5 48	 mov	 BYTE PTR _pMsg$[ebp+1], 72 ; 00000048H

; 1326 : 	strcpy(pMsg.GuildName, guild_name);

  00041	8b 45 08	 mov	 eax, DWORD PTR _guild_name$[ebp]
  00044	50		 push	 eax
  00045	8d 4d b7	 lea	 ecx, DWORD PTR _pMsg$[ebp+3]
  00048	51		 push	 ecx
  00049	e8 00 00 00 00	 call	 _strcpy
  0004e	83 c4 08	 add	 esp, 8

; 1327 : 
; 1328 : 	SQLSyntexCheckConvert(guild_notice);

  00051	8b 45 0c	 mov	 eax, DWORD PTR _guild_notice$[ebp]
  00054	50		 push	 eax
  00055	e8 00 00 00 00	 call	 ?SQLSyntexCheckConvert@@YAHPAD@Z ; SQLSyntexCheckConvert
  0005a	83 c4 04	 add	 esp, 4

; 1329 : 
; 1330 : #ifdef UNICODE_MODE_20050718
; 1331 : 	memcpy(pMsg.szGuildNotice, guild_notice, MAX_GUILDNOTICE-4);
; 1332 : #else
; 1333 : 	strcpy(pMsg.szGuildNotice, guild_notice);

  0005d	8b 45 0c	 mov	 eax, DWORD PTR _guild_notice$[ebp]
  00060	50		 push	 eax
  00061	8d 4d c0	 lea	 ecx, DWORD PTR _pMsg$[ebp+12]
  00064	51		 push	 ecx
  00065	e8 00 00 00 00	 call	 _strcpy
  0006a	83 c4 08	 add	 esp, 8

; 1334 : #endif
; 1335 : 	wsExDbCli.DataSend((char*)&pMsg, pMsg.h.size);

  0006d	0f b6 45 b5	 movzx	 eax, BYTE PTR _pMsg$[ebp+1]
  00071	50		 push	 eax
  00072	8d 4d b4	 lea	 ecx, DWORD PTR _pMsg$[ebp]
  00075	51		 push	 ecx
  00076	b9 00 00 00 00	 mov	 ecx, OFFSET ?wsExDbCli@@3VwsJoinServerCli@@A ; wsExDbCli
  0007b	e8 00 00 00 00	 call	 ?DataSend@wsJoinServerCli@@QAEHPADH@Z ; wsJoinServerCli::DataSend
$LN1@GDGuildNot:

; 1336 : }

  00080	5f		 pop	 edi
  00081	5e		 pop	 esi
  00082	5b		 pop	 ebx
  00083	8b 4d fc	 mov	 ecx, DWORD PTR __$ArrayPad$[ebp]
  00086	33 cd		 xor	 ecx, ebp
  00088	e8 00 00 00 00	 call	 @__security_check_cookie@4
  0008d	8b e5		 mov	 esp, ebp
  0008f	5d		 pop	 ebp
  00090	c3		 ret	 0
?GDGuildNoticeSave@@YAXPAD0@Z ENDP			; GDGuildNoticeSave
_TEXT	ENDS
; Function compile flags: /Odtp /ZI
; File C:\Mu Online\Mu-GS-Webzen-MC-10093\GameServer\EDSProtocol.cpp
;	COMDAT ?DGGuildScoreUpdate@@YAXPADH@Z
_TEXT	SEGMENT
_pMsg$ = -20						; size = 16
__$ArrayPad$ = -4					; size = 4
_guildname$ = 8						; size = 4
_score$ = 12						; size = 4
?DGGuildScoreUpdate@@YAXPADH@Z PROC			; DGGuildScoreUpdate, COMDAT

; 1281 : {

  00000	55		 push	 ebp
  00001	8b ec		 mov	 ebp, esp
  00003	83 ec 54	 sub	 esp, 84			; 00000054H
  00006	a1 00 00 00 00	 mov	 eax, DWORD PTR ___security_cookie
  0000b	33 c5		 xor	 eax, ebp
  0000d	89 45 fc	 mov	 DWORD PTR __$ArrayPad$[ebp], eax
  00010	53		 push	 ebx
  00011	56		 push	 esi
  00012	57		 push	 edi

; 1282 : 	SDHP_GUILDSCOREUPDATE	pMsg;
; 1283 : 
; 1284 : 	pMsg.h.set((LPBYTE)&pMsg, 0x37, sizeof( pMsg ));

  00013	6a 10		 push	 16			; 00000010H
  00015	6a 37		 push	 55			; 00000037H
  00017	8d 45 ec	 lea	 eax, DWORD PTR _pMsg$[ebp]
  0001a	50		 push	 eax
  0001b	8d 4d ec	 lea	 ecx, DWORD PTR _pMsg$[ebp]
  0001e	e8 00 00 00 00	 call	 ?set@PBMSG_HEAD@@QAEXPAEEE@Z ; PBMSG_HEAD::set

; 1285 : 
; 1286 : 	pMsg.Score		= score;

  00023	8b 45 0c	 mov	 eax, DWORD PTR _score$[ebp]
  00026	89 45 f8	 mov	 DWORD PTR _pMsg$[ebp+12], eax

; 1287 : 	strcpy(pMsg.GuildName, guildname);

  00029	8b 45 08	 mov	 eax, DWORD PTR _guildname$[ebp]
  0002c	50		 push	 eax
  0002d	8d 4d ef	 lea	 ecx, DWORD PTR _pMsg$[ebp+3]
  00030	51		 push	 ecx
  00031	e8 00 00 00 00	 call	 _strcpy
  00036	83 c4 08	 add	 esp, 8

; 1288 : 	
; 1289 : 	wsExDbCli.DataSend((char*)&pMsg, pMsg.h.size);

  00039	0f b6 45 ed	 movzx	 eax, BYTE PTR _pMsg$[ebp+1]
  0003d	50		 push	 eax
  0003e	8d 4d ec	 lea	 ecx, DWORD PTR _pMsg$[ebp]
  00041	51		 push	 ecx
  00042	b9 00 00 00 00	 mov	 ecx, OFFSET ?wsExDbCli@@3VwsJoinServerCli@@A ; wsExDbCli
  00047	e8 00 00 00 00	 call	 ?DataSend@wsJoinServerCli@@QAEHPADH@Z ; wsJoinServerCli::DataSend

; 1290 : 	LogAdd(lMsg.Get(442), guildname, score);

  0004c	8b 45 0c	 mov	 eax, DWORD PTR _score$[ebp]
  0004f	50		 push	 eax
  00050	8b 4d 08	 mov	 ecx, DWORD PTR _guildname$[ebp]
  00053	51		 push	 ecx
  00054	68 ba 01 00 00	 push	 442			; 000001baH
  00059	b9 00 00 00 00	 mov	 ecx, OFFSET ?lMsg@@3VCMsg@@A ; lMsg
  0005e	ff 15 00 00 00
	00		 call	 DWORD PTR __imp_?Get@CMsg@@QAEPADH@Z
  00064	50		 push	 eax
  00065	ff 15 00 00 00
	00		 call	 DWORD PTR ?LogAdd@@3P6AXPADZZA ; LogAdd
  0006b	83 c4 0c	 add	 esp, 12			; 0000000cH

; 1291 : }

  0006e	5f		 pop	 edi
  0006f	5e		 pop	 esi
  00070	5b		 pop	 ebx
  00071	8b 4d fc	 mov	 ecx, DWORD PTR __$ArrayPad$[ebp]
  00074	33 cd		 xor	 ecx, ebp
  00076	e8 00 00 00 00	 call	 @__security_check_cookie@4
  0007b	8b e5		 mov	 esp, ebp
  0007d	5d		 pop	 ebp
  0007e	c3		 ret	 0
?DGGuildScoreUpdate@@YAXPADH@Z ENDP			; DGGuildScoreUpdate
_TEXT	ENDS
; Function compile flags: /Odtp /ZI
; File C:\Mu Online\Mu-GS-Webzen-MC-10093\GameServer\EDSProtocol.cpp
;	COMDAT ?GDGuildUpdate@@YAXPAD0PAEHE@Z
_TEXT	SEGMENT
_pMsg$ = -68						; size = 64
__$ArrayPad$ = -4					; size = 4
_Name$ = 8						; size = 4
_Master$ = 12						; size = 4
_Mark$ = 16						; size = 4
_score$ = 20						; size = 4
_count$ = 24						; size = 1
?GDGuildUpdate@@YAXPAD0PAEHE@Z PROC			; GDGuildUpdate, COMDAT

; 943  : {

  00000	55		 push	 ebp
  00001	8b ec		 mov	 ebp, esp
  00003	81 ec 84 00 00
	00		 sub	 esp, 132		; 00000084H
  00009	a1 00 00 00 00	 mov	 eax, DWORD PTR ___security_cookie
  0000e	33 c5		 xor	 eax, ebp
  00010	89 45 fc	 mov	 DWORD PTR __$ArrayPad$[ebp], eax
  00013	53		 push	 ebx
  00014	56		 push	 esi
  00015	57		 push	 edi

; 944  : 	SDHP_GUILDUPDATE	pMsg;
; 945  : 
; 946  : 	pMsg.h.c			= PMHC_BYTE;

  00016	c6 45 bc c1	 mov	 BYTE PTR _pMsg$[ebp], 193 ; 000000c1H

; 947  : 	pMsg.h.headcode		= 0x34;

  0001a	c6 45 be 34	 mov	 BYTE PTR _pMsg$[ebp+2], 52 ; 00000034H

; 948  : 	pMsg.h.size			= sizeof(pMsg);

  0001e	c6 45 bd 40	 mov	 BYTE PTR _pMsg$[ebp+1], 64 ; 00000040H

; 949  : 
; 950  : 	memcpy(pMsg.GuildName,  Name, MAX_GUILDNAMESTRING);

  00022	6a 08		 push	 8
  00024	8b 45 08	 mov	 eax, DWORD PTR _Name$[ebp]
  00027	50		 push	 eax
  00028	8d 4d bf	 lea	 ecx, DWORD PTR _pMsg$[ebp+3]
  0002b	51		 push	 ecx
  0002c	e8 00 00 00 00	 call	 _memcpy
  00031	83 c4 0c	 add	 esp, 12			; 0000000cH

; 951  : 	memcpy(pMsg.Mark,		Mark, 32);

  00034	6a 20		 push	 32			; 00000020H
  00036	8b 45 10	 mov	 eax, DWORD PTR _Mark$[ebp]
  00039	50		 push	 eax
  0003a	8d 4d d3	 lea	 ecx, DWORD PTR _pMsg$[ebp+23]
  0003d	51		 push	 ecx
  0003e	e8 00 00 00 00	 call	 _memcpy
  00043	83 c4 0c	 add	 esp, 12			; 0000000cH

; 952  : 	memcpy(pMsg.Master,   Master, MAX_IDSTRING);

  00046	6a 0a		 push	 10			; 0000000aH
  00048	8b 45 0c	 mov	 eax, DWORD PTR _Master$[ebp]
  0004b	50		 push	 eax
  0004c	8d 4d c8	 lea	 ecx, DWORD PTR _pMsg$[ebp+12]
  0004f	51		 push	 ecx
  00050	e8 00 00 00 00	 call	 _memcpy
  00055	83 c4 0c	 add	 esp, 12			; 0000000cH

; 953  : 	
; 954  : 	pMsg.Score = score;

  00058	8b 45 14	 mov	 eax, DWORD PTR _score$[ebp]
  0005b	89 45 f4	 mov	 DWORD PTR _pMsg$[ebp+56], eax

; 955  : 	pMsg.Count = count;

  0005e	8a 45 18	 mov	 al, BYTE PTR _count$[ebp]
  00061	88 45 f8	 mov	 BYTE PTR _pMsg$[ebp+60], al

; 956  : 	
; 957  : 	wsExDbCli.DataSend((char*)&pMsg, pMsg.h.size);

  00064	0f b6 45 bd	 movzx	 eax, BYTE PTR _pMsg$[ebp+1]
  00068	50		 push	 eax
  00069	8d 4d bc	 lea	 ecx, DWORD PTR _pMsg$[ebp]
  0006c	51		 push	 ecx
  0006d	b9 00 00 00 00	 mov	 ecx, OFFSET ?wsExDbCli@@3VwsJoinServerCli@@A ; wsExDbCli
  00072	e8 00 00 00 00	 call	 ?DataSend@wsJoinServerCli@@QAEHPADH@Z ; wsJoinServerCli::DataSend

; 958  : }

  00077	5f		 pop	 edi
  00078	5e		 pop	 esi
  00079	5b		 pop	 ebx
  0007a	8b 4d fc	 mov	 ecx, DWORD PTR __$ArrayPad$[ebp]
  0007d	33 cd		 xor	 ecx, ebp
  0007f	e8 00 00 00 00	 call	 @__security_check_cookie@4
  00084	8b e5		 mov	 esp, ebp
  00086	5d		 pop	 ebp
  00087	c3		 ret	 0
?GDGuildUpdate@@YAXPAD0PAEHE@Z ENDP			; GDGuildUpdate
_TEXT	ENDS
; Function compile flags: /Odtp /ZI
; File C:\Mu Online\Mu-GS-Webzen-MC-10093\GameServer\EDSProtocol.cpp
;	COMDAT ?GDGuildMemberDel@@YAXHPAD0@Z
_TEXT	SEGMENT
_pMsg$ = -28						; size = 23
__$ArrayPad$ = -4					; size = 4
_aIndex$ = 8						; size = 4
_Name$ = 12						; size = 4
_MemberId$ = 16						; size = 4
?GDGuildMemberDel@@YAXHPAD0@Z PROC			; GDGuildMemberDel, COMDAT

; 846  : {

  00000	55		 push	 ebp
  00001	8b ec		 mov	 ebp, esp
  00003	83 ec 5c	 sub	 esp, 92			; 0000005cH
  00006	a1 00 00 00 00	 mov	 eax, DWORD PTR ___security_cookie
  0000b	33 c5		 xor	 eax, ebp
  0000d	89 45 fc	 mov	 DWORD PTR __$ArrayPad$[ebp], eax
  00010	53		 push	 ebx
  00011	56		 push	 esi
  00012	57		 push	 edi

; 847  : 	SDHP_GUILDMEMBERDEL	pMsg;
; 848  : 
; 849  : 	pMsg.h.c			= PMHC_BYTE;

  00013	c6 45 e4 c1	 mov	 BYTE PTR _pMsg$[ebp], 193 ; 000000c1H

; 850  : 	pMsg.h.headcode		= 0x33;

  00017	c6 45 e6 33	 mov	 BYTE PTR _pMsg$[ebp+2], 51 ; 00000033H

; 851  : 	pMsg.h.size			= sizeof(pMsg);

  0001b	c6 45 e5 17	 mov	 BYTE PTR _pMsg$[ebp+1], 23 ; 00000017H

; 852  : 	pMsg.NumberH		= HIBYTE( aIndex );

  0001f	8b 45 08	 mov	 eax, DWORD PTR _aIndex$[ebp]
  00022	c1 e8 08	 shr	 eax, 8
  00025	25 ff 00 00 00	 and	 eax, 255		; 000000ffH
  0002a	88 45 e7	 mov	 BYTE PTR _pMsg$[ebp+3], al

; 853  : 	pMsg.NumberL		= LOBYTE( aIndex );

  0002d	8b 45 08	 mov	 eax, DWORD PTR _aIndex$[ebp]
  00030	25 ff 00 00 00	 and	 eax, 255		; 000000ffH
  00035	88 45 e8	 mov	 BYTE PTR _pMsg$[ebp+4], al

; 854  : 
; 855  : 	memcpy(pMsg.MemberID, MemberId, MAX_IDSTRING);

  00038	6a 0a		 push	 10			; 0000000aH
  0003a	8b 45 10	 mov	 eax, DWORD PTR _MemberId$[ebp]
  0003d	50		 push	 eax
  0003e	8d 4d f1	 lea	 ecx, DWORD PTR _pMsg$[ebp+13]
  00041	51		 push	 ecx
  00042	e8 00 00 00 00	 call	 _memcpy
  00047	83 c4 0c	 add	 esp, 12			; 0000000cH

; 856  : 	memcpy(pMsg.GuildName,Name, MAX_GUILDNAMESTRING);

  0004a	6a 08		 push	 8
  0004c	8b 45 0c	 mov	 eax, DWORD PTR _Name$[ebp]
  0004f	50		 push	 eax
  00050	8d 4d e9	 lea	 ecx, DWORD PTR _pMsg$[ebp+5]
  00053	51		 push	 ecx
  00054	e8 00 00 00 00	 call	 _memcpy
  00059	83 c4 0c	 add	 esp, 12			; 0000000cH

; 857  : 
; 858  : 	wsExDbCli.DataSend((char*)&pMsg, pMsg.h.size);

  0005c	0f b6 45 e5	 movzx	 eax, BYTE PTR _pMsg$[ebp+1]
  00060	50		 push	 eax
  00061	8d 4d e4	 lea	 ecx, DWORD PTR _pMsg$[ebp]
  00064	51		 push	 ecx
  00065	b9 00 00 00 00	 mov	 ecx, OFFSET ?wsExDbCli@@3VwsJoinServerCli@@A ; wsExDbCli
  0006a	e8 00 00 00 00	 call	 ?DataSend@wsJoinServerCli@@QAEHPADH@Z ; wsJoinServerCli::DataSend

; 859  : }

  0006f	5f		 pop	 edi
  00070	5e		 pop	 esi
  00071	5b		 pop	 ebx
  00072	8b 4d fc	 mov	 ecx, DWORD PTR __$ArrayPad$[ebp]
  00075	33 cd		 xor	 ecx, ebp
  00077	e8 00 00 00 00	 call	 @__security_check_cookie@4
  0007c	8b e5		 mov	 esp, ebp
  0007e	5d		 pop	 ebp
  0007f	c3		 ret	 0
?GDGuildMemberDel@@YAXHPAD0@Z ENDP			; GDGuildMemberDel
_TEXT	ENDS
; Function compile flags: /Odtp /ZI
; File C:\Mu Online\Mu-GS-Webzen-MC-10093\GameServer\EDSProtocol.cpp
;	COMDAT ?GDGuildMemberAdd@@YAXHPAD0@Z
_TEXT	SEGMENT
_pMsg$ = -32						; size = 25
__$ArrayPad$ = -4					; size = 4
_aIndex$ = 8						; size = 4
_Name$ = 12						; size = 4
_MemberId$ = 16						; size = 4
?GDGuildMemberAdd@@YAXHPAD0@Z PROC			; GDGuildMemberAdd, COMDAT

; 705  : {

  00000	55		 push	 ebp
  00001	8b ec		 mov	 ebp, esp
  00003	83 ec 60	 sub	 esp, 96			; 00000060H
  00006	a1 00 00 00 00	 mov	 eax, DWORD PTR ___security_cookie
  0000b	33 c5		 xor	 eax, ebp
  0000d	89 45 fc	 mov	 DWORD PTR __$ArrayPad$[ebp], eax
  00010	53		 push	 ebx
  00011	56		 push	 esi
  00012	57		 push	 edi

; 706  : 	SDHP_GUILDMEMBERADD	pMsg;
; 707  : 
; 708  : 	pMsg.h.c			= PMHC_BYTE;

  00013	c6 45 e0 c1	 mov	 BYTE PTR _pMsg$[ebp], 193 ; 000000c1H

; 709  : 	pMsg.h.headcode		= 0x32;

  00017	c6 45 e2 32	 mov	 BYTE PTR _pMsg$[ebp+2], 50 ; 00000032H

; 710  : 	pMsg.h.size			= sizeof(pMsg);

  0001b	c6 45 e1 19	 mov	 BYTE PTR _pMsg$[ebp+1], 25 ; 00000019H

; 711  : 
; 712  : 	pMsg.NumberH		= HIBYTE( aIndex );

  0001f	8b 45 08	 mov	 eax, DWORD PTR _aIndex$[ebp]
  00022	c1 e8 08	 shr	 eax, 8
  00025	25 ff 00 00 00	 and	 eax, 255		; 000000ffH
  0002a	88 45 f7	 mov	 BYTE PTR _pMsg$[ebp+23], al

; 713  : 	pMsg.NumberL		= LOBYTE( aIndex );

  0002d	8b 45 08	 mov	 eax, DWORD PTR _aIndex$[ebp]
  00030	25 ff 00 00 00	 and	 eax, 255		; 000000ffH
  00035	88 45 f8	 mov	 BYTE PTR _pMsg$[ebp+24], al

; 714  : 
; 715  : 	pMsg.MemberID[MAX_IDSTRING] = '\0';

  00038	b8 01 00 00 00	 mov	 eax, 1
  0003d	6b c8 0a	 imul	 ecx, eax, 10
  00040	c6 44 0d ec 00	 mov	 BYTE PTR _pMsg$[ebp+ecx+12], 0

; 716  : 	pMsg.GuildName[MAX_GUILDNAMESTRING] = '\0';

  00045	b8 01 00 00 00	 mov	 eax, 1
  0004a	c1 e0 03	 shl	 eax, 3
  0004d	c6 44 05 e3 00	 mov	 BYTE PTR _pMsg$[ebp+eax+3], 0

; 717  : 
; 718  : 	memcpy(pMsg.MemberID, MemberId, MAX_IDSTRING);

  00052	6a 0a		 push	 10			; 0000000aH
  00054	8b 45 10	 mov	 eax, DWORD PTR _MemberId$[ebp]
  00057	50		 push	 eax
  00058	8d 4d ec	 lea	 ecx, DWORD PTR _pMsg$[ebp+12]
  0005b	51		 push	 ecx
  0005c	e8 00 00 00 00	 call	 _memcpy
  00061	83 c4 0c	 add	 esp, 12			; 0000000cH

; 719  : 	memcpy(pMsg.GuildName,    Name, MAX_GUILDNAMESTRING);

  00064	6a 08		 push	 8
  00066	8b 45 0c	 mov	 eax, DWORD PTR _Name$[ebp]
  00069	50		 push	 eax
  0006a	8d 4d e3	 lea	 ecx, DWORD PTR _pMsg$[ebp+3]
  0006d	51		 push	 ecx
  0006e	e8 00 00 00 00	 call	 _memcpy
  00073	83 c4 0c	 add	 esp, 12			; 0000000cH

; 720  : 
; 721  : 	wsExDbCli.DataSend((char*)&pMsg, pMsg.h.size);

  00076	0f b6 45 e1	 movzx	 eax, BYTE PTR _pMsg$[ebp+1]
  0007a	50		 push	 eax
  0007b	8d 4d e0	 lea	 ecx, DWORD PTR _pMsg$[ebp]
  0007e	51		 push	 ecx
  0007f	b9 00 00 00 00	 mov	 ecx, OFFSET ?wsExDbCli@@3VwsJoinServerCli@@A ; wsExDbCli
  00084	e8 00 00 00 00	 call	 ?DataSend@wsJoinServerCli@@QAEHPADH@Z ; wsJoinServerCli::DataSend

; 722  : }

  00089	5f		 pop	 edi
  0008a	5e		 pop	 esi
  0008b	5b		 pop	 ebx
  0008c	8b 4d fc	 mov	 ecx, DWORD PTR __$ArrayPad$[ebp]
  0008f	33 cd		 xor	 ecx, ebp
  00091	e8 00 00 00 00	 call	 @__security_check_cookie@4
  00096	8b e5		 mov	 esp, ebp
  00098	5d		 pop	 ebp
  00099	c3		 ret	 0
?GDGuildMemberAdd@@YAXHPAD0@Z ENDP			; GDGuildMemberAdd
_TEXT	ENDS
; Function compile flags: /Odtp /ZI
; File C:\Mu Online\Mu-GS-Webzen-MC-10093\GameServer\EDSProtocol.cpp
;	COMDAT ?GDGuildDestroySend@@YAXHPAD0@Z
_TEXT	SEGMENT
_pMsg$ = -28						; size = 23
__$ArrayPad$ = -4					; size = 4
_aIndex$ = 8						; size = 4
_Name$ = 12						; size = 4
_Master$ = 16						; size = 4
?GDGuildDestroySend@@YAXHPAD0@Z PROC			; GDGuildDestroySend, COMDAT

; 493  : {

  00000	55		 push	 ebp
  00001	8b ec		 mov	 ebp, esp
  00003	83 ec 5c	 sub	 esp, 92			; 0000005cH
  00006	a1 00 00 00 00	 mov	 eax, DWORD PTR ___security_cookie
  0000b	33 c5		 xor	 eax, ebp
  0000d	89 45 fc	 mov	 DWORD PTR __$ArrayPad$[ebp], eax
  00010	53		 push	 ebx
  00011	56		 push	 esi
  00012	57		 push	 edi

; 494  : 	SDHP_GUILDDESTROY	pMsg;
; 495  : 
; 496  : 	pMsg.h.c			= PMHC_BYTE;

  00013	c6 45 e4 c1	 mov	 BYTE PTR _pMsg$[ebp], 193 ; 000000c1H

; 497  : 	pMsg.h.headcode		= 0x31;

  00017	c6 45 e6 31	 mov	 BYTE PTR _pMsg$[ebp+2], 49 ; 00000031H

; 498  : 	pMsg.h.size			= sizeof(pMsg);

  0001b	c6 45 e5 17	 mov	 BYTE PTR _pMsg$[ebp+1], 23 ; 00000017H

; 499  : 	pMsg.NumberH		= HIBYTE(aIndex);

  0001f	8b 45 08	 mov	 eax, DWORD PTR _aIndex$[ebp]
  00022	c1 e8 08	 shr	 eax, 8
  00025	25 ff 00 00 00	 and	 eax, 255		; 000000ffH
  0002a	88 45 e7	 mov	 BYTE PTR _pMsg$[ebp+3], al

; 500  : 	pMsg.NumberL		= LOBYTE(aIndex);

  0002d	8b 45 08	 mov	 eax, DWORD PTR _aIndex$[ebp]
  00030	25 ff 00 00 00	 and	 eax, 255		; 000000ffH
  00035	88 45 e8	 mov	 BYTE PTR _pMsg$[ebp+4], al

; 501  : 
; 502  : 	memcpy(pMsg.Master,    Master, MAX_IDSTRING);

  00038	6a 0a		 push	 10			; 0000000aH
  0003a	8b 45 10	 mov	 eax, DWORD PTR _Master$[ebp]
  0003d	50		 push	 eax
  0003e	8d 4d f1	 lea	 ecx, DWORD PTR _pMsg$[ebp+13]
  00041	51		 push	 ecx
  00042	e8 00 00 00 00	 call	 _memcpy
  00047	83 c4 0c	 add	 esp, 12			; 0000000cH

; 503  : 	memcpy(pMsg.GuildName, Name  , MAX_GUILDNAMESTRING);

  0004a	6a 08		 push	 8
  0004c	8b 45 0c	 mov	 eax, DWORD PTR _Name$[ebp]
  0004f	50		 push	 eax
  00050	8d 4d e9	 lea	 ecx, DWORD PTR _pMsg$[ebp+5]
  00053	51		 push	 ecx
  00054	e8 00 00 00 00	 call	 _memcpy
  00059	83 c4 0c	 add	 esp, 12			; 0000000cH

; 504  : 
; 505  : 	wsExDbCli.DataSend((char*)&pMsg, pMsg.h.size);

  0005c	0f b6 45 e5	 movzx	 eax, BYTE PTR _pMsg$[ebp+1]
  00060	50		 push	 eax
  00061	8d 4d e4	 lea	 ecx, DWORD PTR _pMsg$[ebp]
  00064	51		 push	 ecx
  00065	b9 00 00 00 00	 mov	 ecx, OFFSET ?wsExDbCli@@3VwsJoinServerCli@@A ; wsExDbCli
  0006a	e8 00 00 00 00	 call	 ?DataSend@wsJoinServerCli@@QAEHPADH@Z ; wsJoinServerCli::DataSend

; 506  : }

  0006f	5f		 pop	 edi
  00070	5e		 pop	 esi
  00071	5b		 pop	 ebx
  00072	8b 4d fc	 mov	 ecx, DWORD PTR __$ArrayPad$[ebp]
  00075	33 cd		 xor	 ecx, ebp
  00077	e8 00 00 00 00	 call	 @__security_check_cookie@4
  0007c	8b e5		 mov	 esp, ebp
  0007e	5d		 pop	 ebp
  0007f	c3		 ret	 0
?GDGuildDestroySend@@YAXHPAD0@Z ENDP			; GDGuildDestroySend
_TEXT	ENDS
; Function compile flags: /Odtp /ZI
; File C:\Mu Online\Mu-GS-Webzen-MC-10093\GameServer\EDSProtocol.cpp
;	COMDAT ?GDGuildCreateSend@@YAXHPAD0PAE@Z
_TEXT	SEGMENT
_pMsg$ = -64						; size = 58
__$ArrayPad$ = -4					; size = 4
_aIndex$ = 8						; size = 4
_Name$ = 12						; size = 4
_Master$ = 16						; size = 4
_Mark$ = 20						; size = 4
?GDGuildCreateSend@@YAXHPAD0PAE@Z PROC			; GDGuildCreateSend, COMDAT

; 358  : {

  00000	55		 push	 ebp
  00001	8b ec		 mov	 ebp, esp
  00003	81 ec 80 00 00
	00		 sub	 esp, 128		; 00000080H
  00009	a1 00 00 00 00	 mov	 eax, DWORD PTR ___security_cookie
  0000e	33 c5		 xor	 eax, ebp
  00010	89 45 fc	 mov	 DWORD PTR __$ArrayPad$[ebp], eax
  00013	53		 push	 ebx
  00014	56		 push	 esi
  00015	57		 push	 edi

; 359  : 	SDHP_GUILDCREATE pMsg;
; 360  : 
; 361  : 	pMsg.h.c			= PMHC_BYTE;

  00016	c6 45 c0 c1	 mov	 BYTE PTR _pMsg$[ebp], 193 ; 000000c1H

; 362  : 	pMsg.h.headcode		= 0x30;

  0001a	c6 45 c2 30	 mov	 BYTE PTR _pMsg$[ebp+2], 48 ; 00000030H

; 363  : 	pMsg.h.size			= sizeof(pMsg);

  0001e	c6 45 c1 3a	 mov	 BYTE PTR _pMsg$[ebp+1], 58 ; 0000003aH

; 364  : 
; 365  : 	memcpy(pMsg.Mark, Mark, 32);

  00022	6a 20		 push	 32			; 00000020H
  00024	8b 45 14	 mov	 eax, DWORD PTR _Mark$[ebp]
  00027	50		 push	 eax
  00028	8d 4d d7	 lea	 ecx, DWORD PTR _pMsg$[ebp+23]
  0002b	51		 push	 ecx
  0002c	e8 00 00 00 00	 call	 _memcpy
  00031	83 c4 0c	 add	 esp, 12			; 0000000cH

; 366  : 	
; 367  : 	pMsg.Master[MAX_IDSTRING] = '\0';

  00034	b8 01 00 00 00	 mov	 eax, 1
  00039	6b c8 0a	 imul	 ecx, eax, 10
  0003c	c6 44 0d cc 00	 mov	 BYTE PTR _pMsg$[ebp+ecx+12], 0

; 368  : 	pMsg.GuildName[MAX_GUILDNAMESTRING] = '\0';

  00041	b8 01 00 00 00	 mov	 eax, 1
  00046	c1 e0 03	 shl	 eax, 3
  00049	c6 44 05 c3 00	 mov	 BYTE PTR _pMsg$[ebp+eax+3], 0

; 369  : 	memcpy(pMsg.Master, Master, MAX_IDSTRING);

  0004e	6a 0a		 push	 10			; 0000000aH
  00050	8b 45 10	 mov	 eax, DWORD PTR _Master$[ebp]
  00053	50		 push	 eax
  00054	8d 4d cc	 lea	 ecx, DWORD PTR _pMsg$[ebp+12]
  00057	51		 push	 ecx
  00058	e8 00 00 00 00	 call	 _memcpy
  0005d	83 c4 0c	 add	 esp, 12			; 0000000cH

; 370  : 	memcpy(pMsg.GuildName, Name, MAX_GUILDNAMESTRING);

  00060	6a 08		 push	 8
  00062	8b 45 0c	 mov	 eax, DWORD PTR _Name$[ebp]
  00065	50		 push	 eax
  00066	8d 4d c3	 lea	 ecx, DWORD PTR _pMsg$[ebp+3]
  00069	51		 push	 ecx
  0006a	e8 00 00 00 00	 call	 _memcpy
  0006f	83 c4 0c	 add	 esp, 12			; 0000000cH

; 371  : 
; 372  : 	pMsg.NumberH = HIBYTE(aIndex);

  00072	8b 45 08	 mov	 eax, DWORD PTR _aIndex$[ebp]
  00075	c1 e8 08	 shr	 eax, 8
  00078	25 ff 00 00 00	 and	 eax, 255		; 000000ffH
  0007d	88 45 f7	 mov	 BYTE PTR _pMsg$[ebp+55], al

; 373  : 	pMsg.NumberL = LOBYTE(aIndex);

  00080	8b 45 08	 mov	 eax, DWORD PTR _aIndex$[ebp]
  00083	25 ff 00 00 00	 and	 eax, 255		; 000000ffH
  00088	88 45 f8	 mov	 BYTE PTR _pMsg$[ebp+56], al

; 374  : 
; 375  : #ifdef ADD_NEW_GUILD_02_20040922
; 376  : 	pMsg.btGuildType = iGuildType;
; 377  : #elif GAME_VERSION >= G_V_99B
; 378  : 	pMsg.btGuildType = 0;

  0008b	c6 45 f9 00	 mov	 BYTE PTR _pMsg$[ebp+57], 0

; 379  : #endif
; 380  : 
; 381  : 	wsExDbCli.DataSend((char*)&pMsg, pMsg.h.size);

  0008f	0f b6 45 c1	 movzx	 eax, BYTE PTR _pMsg$[ebp+1]
  00093	50		 push	 eax
  00094	8d 4d c0	 lea	 ecx, DWORD PTR _pMsg$[ebp]
  00097	51		 push	 ecx
  00098	b9 00 00 00 00	 mov	 ecx, OFFSET ?wsExDbCli@@3VwsJoinServerCli@@A ; wsExDbCli
  0009d	e8 00 00 00 00	 call	 ?DataSend@wsJoinServerCli@@QAEHPADH@Z ; wsJoinServerCli::DataSend

; 382  : }

  000a2	5f		 pop	 edi
  000a3	5e		 pop	 esi
  000a4	5b		 pop	 ebx
  000a5	8b 4d fc	 mov	 ecx, DWORD PTR __$ArrayPad$[ebp]
  000a8	33 cd		 xor	 ecx, ebp
  000aa	e8 00 00 00 00	 call	 @__security_check_cookie@4
  000af	8b e5		 mov	 esp, ebp
  000b1	5d		 pop	 ebp
  000b2	c3		 ret	 0
?GDGuildCreateSend@@YAXHPAD0PAE@Z ENDP			; GDGuildCreateSend
_TEXT	ENDS
; Function compile flags: /Odtp /ZI
; File C:\Mu Online\Mu-GS-Webzen-MC-10093\GameServer\EDSProtocol.cpp
;	COMDAT ?DGGuildMemberInfoRequest@@YAXH@Z
_TEXT	SEGMENT
_pMsg$ = -20						; size = 15
__$ArrayPad$ = -4					; size = 4
_aIndex$ = 8						; size = 4
?DGGuildMemberInfoRequest@@YAXH@Z PROC			; DGGuildMemberInfoRequest, COMDAT

; 966  : {

  00000	55		 push	 ebp
  00001	8b ec		 mov	 ebp, esp
  00003	83 ec 54	 sub	 esp, 84			; 00000054H
  00006	a1 00 00 00 00	 mov	 eax, DWORD PTR ___security_cookie
  0000b	33 c5		 xor	 eax, ebp
  0000d	89 45 fc	 mov	 DWORD PTR __$ArrayPad$[ebp], eax
  00010	53		 push	 ebx
  00011	56		 push	 esi
  00012	57		 push	 edi

; 967  : 	SDHP_GUILDMEMBER_INFO_REQUEST pMsg;
; 968  : 
; 969  : 
; 970  : 	pMsg.h.set((LPBYTE)&pMsg, 0x35, sizeof(pMsg));

  00013	6a 0f		 push	 15			; 0000000fH
  00015	6a 35		 push	 53			; 00000035H
  00017	8d 45 ec	 lea	 eax, DWORD PTR _pMsg$[ebp]
  0001a	50		 push	 eax
  0001b	8d 4d ec	 lea	 ecx, DWORD PTR _pMsg$[ebp]
  0001e	e8 00 00 00 00	 call	 ?set@PBMSG_HEAD@@QAEXPAEEE@Z ; PBMSG_HEAD::set

; 971  : 	pMsg.NumberH = HIBYTE(aIndex);

  00023	8b 45 08	 mov	 eax, DWORD PTR _aIndex$[ebp]
  00026	c1 e8 08	 shr	 eax, 8
  00029	25 ff 00 00 00	 and	 eax, 255		; 000000ffH
  0002e	88 45 ef	 mov	 BYTE PTR _pMsg$[ebp+3], al

; 972  : 	pMsg.NumberL = LOBYTE(aIndex);

  00031	8b 45 08	 mov	 eax, DWORD PTR _aIndex$[ebp]
  00034	25 ff 00 00 00	 and	 eax, 255		; 000000ffH
  00039	88 45 f0	 mov	 BYTE PTR _pMsg$[ebp+4], al

; 973  : 	memcpy(pMsg.MemberID, gObj[aIndex].Name, MAX_IDSTRING);

  0003c	6a 0a		 push	 10			; 0000000aH
  0003e	69 45 08 a0 1b
	00 00		 imul	 eax, DWORD PTR _aIndex$[ebp], 7072
  00045	8b 0d 00 00 00
	00		 mov	 ecx, DWORD PTR ?gObj@@3PAVOBJECTSTRUCT@@A ; gObj
  0004b	8d 54 01 73	 lea	 edx, DWORD PTR [ecx+eax+115]
  0004f	52		 push	 edx
  00050	8d 45 f1	 lea	 eax, DWORD PTR _pMsg$[ebp+5]
  00053	50		 push	 eax
  00054	e8 00 00 00 00	 call	 _memcpy
  00059	83 c4 0c	 add	 esp, 12			; 0000000cH

; 974  : 
; 975  : 	wsExDbCli.DataSend((char*)&pMsg, pMsg.h.size);

  0005c	0f b6 45 ed	 movzx	 eax, BYTE PTR _pMsg$[ebp+1]
  00060	50		 push	 eax
  00061	8d 4d ec	 lea	 ecx, DWORD PTR _pMsg$[ebp]
  00064	51		 push	 ecx
  00065	b9 00 00 00 00	 mov	 ecx, OFFSET ?wsExDbCli@@3VwsJoinServerCli@@A ; wsExDbCli
  0006a	e8 00 00 00 00	 call	 ?DataSend@wsJoinServerCli@@QAEHPADH@Z ; wsJoinServerCli::DataSend

; 976  : }

  0006f	5f		 pop	 edi
  00070	5e		 pop	 esi
  00071	5b		 pop	 ebx
  00072	8b 4d fc	 mov	 ecx, DWORD PTR __$ArrayPad$[ebp]
  00075	33 cd		 xor	 ecx, ebp
  00077	e8 00 00 00 00	 call	 @__security_check_cookie@4
  0007c	8b e5		 mov	 esp, ebp
  0007e	5d		 pop	 ebp
  0007f	c3		 ret	 0
?DGGuildMemberInfoRequest@@YAXH@Z ENDP			; DGGuildMemberInfoRequest
_TEXT	ENDS
; Function compile flags: /Odtp /ZI
; File C:\Mu Online\Mu-GS-Webzen-MC-10093\GameServer\EDSProtocol.cpp
;	COMDAT ?DGGuildListRequest@@YAXXZ
_TEXT	SEGMENT
_pMsg$ = -4						; size = 3
?DGGuildListRequest@@YAXXZ PROC				; DGGuildListRequest, COMDAT

; 1377 : {

  00000	55		 push	 ebp
  00001	8b ec		 mov	 ebp, esp
  00003	83 ec 44	 sub	 esp, 68			; 00000044H
  00006	53		 push	 ebx
  00007	56		 push	 esi
  00008	57		 push	 edi

; 1378 : 	SDHP_GUILDLISTREQUEST	pMsg;
; 1379 : 
; 1380 : 	pMsg.h.set((LPBYTE)&pMsg, 0x40, sizeof(pMsg));

  00009	6a 03		 push	 3
  0000b	6a 40		 push	 64			; 00000040H
  0000d	8d 45 fc	 lea	 eax, DWORD PTR _pMsg$[ebp]
  00010	50		 push	 eax
  00011	8d 4d fc	 lea	 ecx, DWORD PTR _pMsg$[ebp]
  00014	e8 00 00 00 00	 call	 ?set@PBMSG_HEAD@@QAEXPAEEE@Z ; PBMSG_HEAD::set

; 1381 : 	wsExDbCli.DataSend((char*)&pMsg, pMsg.h.size);

  00019	0f b6 45 fd	 movzx	 eax, BYTE PTR _pMsg$[ebp+1]
  0001d	50		 push	 eax
  0001e	8d 4d fc	 lea	 ecx, DWORD PTR _pMsg$[ebp]
  00021	51		 push	 ecx
  00022	b9 00 00 00 00	 mov	 ecx, OFFSET ?wsExDbCli@@3VwsJoinServerCli@@A ; wsExDbCli
  00027	e8 00 00 00 00	 call	 ?DataSend@wsJoinServerCli@@QAEHPADH@Z ; wsJoinServerCli::DataSend

; 1382 : }

  0002c	5f		 pop	 edi
  0002d	5e		 pop	 esi
  0002e	5b		 pop	 ebx
  0002f	8b e5		 mov	 esp, ebp
  00031	5d		 pop	 ebp
  00032	c3		 ret	 0
?DGGuildListRequest@@YAXXZ ENDP				; DGGuildListRequest
_TEXT	ENDS
; Function compile flags: /Odtp /ZI
; File C:\Mu Online\Mu-GS-Webzen-MC-10093\GameServer\EDSProtocol.cpp
;	COMDAT ?MngFriendMemoSend@@YAXPAUPMSG_JG_MEMO_SEND@@@Z
_TEXT	SEGMENT
_bsize$ = -1104						; size = 4
_pMsg$ = -1100						; size = 1084
_Name$ = -16						; size = 11
__$ArrayPad$ = -4					; size = 4
_lpMsg$ = 8						; size = 4
?MngFriendMemoSend@@YAXPAUPMSG_JG_MEMO_SEND@@@Z PROC	; MngFriendMemoSend, COMDAT

; 2862 : {

  00000	55		 push	 ebp
  00001	8b ec		 mov	 ebp, esp
  00003	81 ec 10 05 00
	00		 sub	 esp, 1296		; 00000510H
  00009	a1 00 00 00 00	 mov	 eax, DWORD PTR ___security_cookie
  0000e	33 c5		 xor	 eax, ebp
  00010	89 45 fc	 mov	 DWORD PTR __$ArrayPad$[ebp], eax
  00013	53		 push	 ebx
  00014	56		 push	 esi
  00015	57		 push	 edi

; 2863 : 	char_ID		Name(lpMsg->Name);

  00016	8b 45 08	 mov	 eax, DWORD PTR _lpMsg$[ebp]
  00019	83 c0 04	 add	 eax, 4
  0001c	50		 push	 eax
  0001d	8d 4d f0	 lea	 ecx, DWORD PTR _Name$[ebp]
  00020	e8 00 00 00 00	 call	 ??0char_ID@@QAE@PAD@Z	; char_ID::char_ID

; 2864 : 	
; 2865 : 	if( lpMsg->MemoSize < 0 || lpMsg->MemoSize > MAX_MEMO )

  00025	8b 45 08	 mov	 eax, DWORD PTR _lpMsg$[ebp]
  00028	0f bf 48 38	 movsx	 ecx, WORD PTR [eax+56]
  0002c	85 c9		 test	 ecx, ecx
  0002e	7c 0f		 jl	 SHORT $LN3@MngFriendM
  00030	8b 45 08	 mov	 eax, DWORD PTR _lpMsg$[ebp]
  00033	0f bf 48 38	 movsx	 ecx, WORD PTR [eax+56]
  00037	81 f9 e8 03 00
	00		 cmp	 ecx, 1000		; 000003e8H
  0003d	7e 05		 jle	 SHORT $LN2@MngFriendM
$LN3@MngFriendM:

; 2866 : 	{	// 메모 크기가 맞지 않다
; 2867 : //		FHP_FRIEND_MEMO_SEND_RESULT pResult;
; 2868 : //		pResult.Number = aIndex;
; 2869 : //		pResult.Result = 0x00;
; 2870 : //		pResult.WindowGuid = lpMsg->WindowGuid;
; 2871 : //		memcpy(pResult.Name, gObj[aIndex].Name, MAX_IDSTRING);
; 2872 : //		FriendMemoSendResult((LPFHP_FRIEND_MEMO_SEND_RESULT)&pResult);
; 2873 : 		return;

  0003f	e9 1c 01 00 00	 jmp	 $LN1@MngFriendM
$LN2@MngFriendM:

; 2874 : 	}
; 2875 : 
; 2876 : 	if( Name.GetLength() < 1 )

  00044	8d 4d f0	 lea	 ecx, DWORD PTR _Name$[ebp]
  00047	e8 00 00 00 00	 call	 ?GetLength@char_ID@@QAEHXZ ; char_ID::GetLength
  0004c	83 f8 01	 cmp	 eax, 1
  0004f	7d 05		 jge	 SHORT $LN4@MngFriendM

; 2877 : 	{	// 대상 이름이 없다		
; 2878 : 		return;

  00051	e9 0a 01 00 00	 jmp	 $LN1@MngFriendM
$LN4@MngFriendM:

; 2879 : 	}
; 2880 : 	
; 2881 : 	FHP_FRIEND_MEMO_SEND	pMsg;
; 2882 : 	int						bsize = lpMsg->MemoSize+sizeof(pMsg)-MAX_MEMO;

  00056	8b 45 08	 mov	 eax, DWORD PTR _lpMsg$[ebp]
  00059	0f bf 48 38	 movsx	 ecx, WORD PTR [eax+56]
  0005d	83 c1 54	 add	 ecx, 84			; 00000054H
  00060	89 8d b0 fb ff
	ff		 mov	 DWORD PTR _bsize$[ebp], ecx

; 2883 : 	
; 2884 : 	pMsg.h.set((LPBYTE)&pMsg, 0x70, bsize);

  00066	8b 85 b0 fb ff
	ff		 mov	 eax, DWORD PTR _bsize$[ebp]
  0006c	50		 push	 eax
  0006d	6a 70		 push	 112			; 00000070H
  0006f	8d 8d b4 fb ff
	ff		 lea	 ecx, DWORD PTR _pMsg$[ebp]
  00075	51		 push	 ecx
  00076	8d 8d b4 fb ff
	ff		 lea	 ecx, DWORD PTR _pMsg$[ebp]
  0007c	e8 00 00 00 00	 call	 ?set@PWMSG_HEAD@@QAEXPAEEH@Z ; PWMSG_HEAD::set

; 2885 : 
; 2886 : 	pMsg.WindowGuid = 0;

  00081	c7 85 bc fb ff
	ff 00 00 00 00	 mov	 DWORD PTR _pMsg$[ebp+8], 0

; 2887 : 	pMsg.MemoSize	= lpMsg->MemoSize;

  0008b	8b 45 08	 mov	 eax, DWORD PTR _lpMsg$[ebp]
  0008e	66 8b 48 38	 mov	 cx, WORD PTR [eax+56]
  00092	66 89 8d f6 fb
	ff ff		 mov	 WORD PTR _pMsg$[ebp+66], cx

; 2888 : 	pMsg.Number		= -1;

  00099	83 c8 ff	 or	 eax, -1
  0009c	66 89 85 b8 fb
	ff ff		 mov	 WORD PTR _pMsg$[ebp+4], ax

; 2889 : 	pMsg.Dir		= 0;

  000a3	c6 85 f4 fb ff
	ff 00		 mov	 BYTE PTR _pMsg$[ebp+64], 0

; 2890 : 	pMsg.Action		= 0;

  000aa	c6 85 f5 fb ff
	ff 00		 mov	 BYTE PTR _pMsg$[ebp+65], 0

; 2891 : 
; 2892 : 	memcpy(pMsg.Subject,	lpMsg->Subject,		MAX_MEMO_SUBJECT);

  000b1	6a 20		 push	 32			; 00000020H
  000b3	8b 45 08	 mov	 eax, DWORD PTR _lpMsg$[ebp]
  000b6	83 c0 18	 add	 eax, 24			; 00000018H
  000b9	50		 push	 eax
  000ba	8d 8d d4 fb ff
	ff		 lea	 ecx, DWORD PTR _pMsg$[ebp+32]
  000c0	51		 push	 ecx
  000c1	e8 00 00 00 00	 call	 _memcpy
  000c6	83 c4 0c	 add	 esp, 12			; 0000000cH

; 2893 : 	memcpy(pMsg.Name,		lpMsg->Name,		MAX_IDSTRING);

  000c9	6a 0a		 push	 10			; 0000000aH
  000cb	8b 45 08	 mov	 eax, DWORD PTR _lpMsg$[ebp]
  000ce	83 c0 04	 add	 eax, 4
  000d1	50		 push	 eax
  000d2	8d 8d c0 fb ff
	ff		 lea	 ecx, DWORD PTR _pMsg$[ebp+12]
  000d8	51		 push	 ecx
  000d9	e8 00 00 00 00	 call	 _memcpy
  000de	83 c4 0c	 add	 esp, 12			; 0000000cH

; 2894 : 
; 2895 : #ifdef ITEM_INDEX_EXTEND_20050706
; 2896 : 	memset(pMsg.Photo,0,MAX_PREVIEWCHARSET+9);
; 2897 : #else
; 2898 : 	#ifdef DARKLORD_WORK
; 2899 : 	memset(pMsg.Photo,0,MAX_PREVIEWCHARSET+4);

  000e1	6a 0d		 push	 13			; 0000000dH
  000e3	6a 00		 push	 0
  000e5	8d 85 f8 fb ff
	ff		 lea	 eax, DWORD PTR _pMsg$[ebp+68]
  000eb	50		 push	 eax
  000ec	e8 00 00 00 00	 call	 _memset
  000f1	83 c4 0c	 add	 esp, 12			; 0000000cH

; 2900 : 	#else
; 2901 : 	memset(pMsg.Photo,0,MAX_PREVIEWCHARSET+3);
; 2902 : 	#endif
; 2903 : #endif
; 2904 : 
; 2905 : 	memcpy(pMsg.ToName,		lpMsg->TargetName,			MAX_IDSTRING);

  000f4	6a 0a		 push	 10			; 0000000aH
  000f6	8b 45 08	 mov	 eax, DWORD PTR _lpMsg$[ebp]
  000f9	83 c0 0e	 add	 eax, 14			; 0000000eH
  000fc	50		 push	 eax
  000fd	8d 8d ca fb ff
	ff		 lea	 ecx, DWORD PTR _pMsg$[ebp+22]
  00103	51		 push	 ecx
  00104	e8 00 00 00 00	 call	 _memcpy
  00109	83 c4 0c	 add	 esp, 12			; 0000000cH

; 2906 : 	memcpy(pMsg.Memo,		lpMsg->Memo,			lpMsg->MemoSize);

  0010c	8b 45 08	 mov	 eax, DWORD PTR _lpMsg$[ebp]
  0010f	0f bf 48 38	 movsx	 ecx, WORD PTR [eax+56]
  00113	51		 push	 ecx
  00114	8b 55 08	 mov	 edx, DWORD PTR _lpMsg$[ebp]
  00117	83 c2 3a	 add	 edx, 58			; 0000003aH
  0011a	52		 push	 edx
  0011b	8d 85 05 fc ff
	ff		 lea	 eax, DWORD PTR _pMsg$[ebp+81]
  00121	50		 push	 eax
  00122	e8 00 00 00 00	 call	 _memcpy
  00127	83 c4 0c	 add	 esp, 12			; 0000000cH

; 2907 : 	
; 2908 : 	wsExDbCli.DataSend((char*)&pMsg, bsize);

  0012a	8b 85 b0 fb ff
	ff		 mov	 eax, DWORD PTR _bsize$[ebp]
  00130	50		 push	 eax
  00131	8d 8d b4 fb ff
	ff		 lea	 ecx, DWORD PTR _pMsg$[ebp]
  00137	51		 push	 ecx
  00138	b9 00 00 00 00	 mov	 ecx, OFFSET ?wsExDbCli@@3VwsJoinServerCli@@A ; wsExDbCli
  0013d	e8 00 00 00 00	 call	 ?DataSend@wsJoinServerCli@@QAEHPADH@Z ; wsJoinServerCli::DataSend

; 2909 : 		
; 2910 : 	LogAdd("JoinServer mail send %s (Size:%d)", Name.GetBuffer(), bsize);

  00142	8b 85 b0 fb ff
	ff		 mov	 eax, DWORD PTR _bsize$[ebp]
  00148	50		 push	 eax
  00149	8d 4d f0	 lea	 ecx, DWORD PTR _Name$[ebp]
  0014c	e8 00 00 00 00	 call	 ?GetBuffer@char_ID@@QAEPADXZ ; char_ID::GetBuffer
  00151	50		 push	 eax
  00152	68 00 00 00 00	 push	 OFFSET ??_C@_0CC@MFFMGDDE@JoinServer?5mail?5send?5?$CFs?5?$CISize?3?$CF@
  00157	ff 15 00 00 00
	00		 call	 DWORD PTR ?LogAdd@@3P6AXPADZZA ; LogAdd
  0015d	83 c4 0c	 add	 esp, 12			; 0000000cH
$LN1@MngFriendM:

; 2911 : }

  00160	5f		 pop	 edi
  00161	5e		 pop	 esi
  00162	5b		 pop	 ebx
  00163	8b 4d fc	 mov	 ecx, DWORD PTR __$ArrayPad$[ebp]
  00166	33 cd		 xor	 ecx, ebp
  00168	e8 00 00 00 00	 call	 @__security_check_cookie@4
  0016d	8b e5		 mov	 esp, ebp
  0016f	5d		 pop	 ebp
  00170	c3		 ret	 0
?MngFriendMemoSend@@YAXPAUPMSG_JG_MEMO_SEND@@@Z ENDP	; MngFriendMemoSend
_TEXT	ENDS
; Function compile flags: /Odtp /ZI
; File C:\Mu Online\Mu-GS-Webzen-MC-10093\GameServer\EDSProtocol.cpp
;	COMDAT ?GDCharClose@@YAXHPAD0@Z
_TEXT	SEGMENT
_pMsg$ = -28						; size = 22
__$ArrayPad$ = -4					; size = 4
_type$ = 8						; size = 4
_GuildName$ = 12					; size = 4
_Name$ = 16						; size = 4
?GDCharClose@@YAXHPAD0@Z PROC				; GDCharClose, COMDAT

; 280  : {

  00000	55		 push	 ebp
  00001	8b ec		 mov	 ebp, esp
  00003	83 ec 5c	 sub	 esp, 92			; 0000005cH
  00006	a1 00 00 00 00	 mov	 eax, DWORD PTR ___security_cookie
  0000b	33 c5		 xor	 eax, ebp
  0000d	89 45 fc	 mov	 DWORD PTR __$ArrayPad$[ebp], eax
  00010	53		 push	 ebx
  00011	56		 push	 esi
  00012	57		 push	 edi

; 281  : 	SDHP_USERCLOSE	pMsg;
; 282  : 
; 283  : 	pMsg.h.c		= PMHC_BYTE;

  00013	c6 45 e4 c1	 mov	 BYTE PTR _pMsg$[ebp], 193 ; 000000c1H

; 284  : 	pMsg.h.size		= sizeof(pMsg);

  00017	c6 45 e5 16	 mov	 BYTE PTR _pMsg$[ebp+1], 22 ; 00000016H

; 285  : 	pMsg.h.headcode = 0x02;

  0001b	c6 45 e6 02	 mov	 BYTE PTR _pMsg$[ebp+2], 2

; 286  : 
; 287  : #ifdef __FRIEND_WORK__
; 288  : 	//#BUGFIX_20040218_01
; 289  : 	pMsg.Type		= type;

  0001f	8a 45 08	 mov	 al, BYTE PTR _type$[ebp]
  00022	88 45 f9	 mov	 BYTE PTR _pMsg$[ebp+21], al

; 290  : #endif
; 291  : 
; 292  : 	//#BUGFIX_20040218_01
; 293  : 	
; 294  : 	memcpy( pMsg.CharName, Name, MAX_IDSTRING);

  00025	6a 0a		 push	 10			; 0000000aH
  00027	8b 45 10	 mov	 eax, DWORD PTR _Name$[ebp]
  0002a	50		 push	 eax
  0002b	8d 4d e7	 lea	 ecx, DWORD PTR _pMsg$[ebp+3]
  0002e	51		 push	 ecx
  0002f	e8 00 00 00 00	 call	 _memcpy
  00034	83 c4 0c	 add	 esp, 12			; 0000000cH

; 295  : 	
; 296  : 	memset( pMsg.GuildName, 0, MAX_GUILDNAMESTRING);	

  00037	6a 08		 push	 8
  00039	6a 00		 push	 0
  0003b	8d 45 f1	 lea	 eax, DWORD PTR _pMsg$[ebp+13]
  0003e	50		 push	 eax
  0003f	e8 00 00 00 00	 call	 _memset
  00044	83 c4 0c	 add	 esp, 12			; 0000000cH

; 297  : 	if( GuildName!=NULL )

  00047	83 7d 0c 00	 cmp	 DWORD PTR _GuildName$[ebp], 0
  0004b	74 12		 je	 SHORT $LN2@GDCharClos

; 298  : 		memcpy( pMsg.GuildName, GuildName, MAX_GUILDNAMESTRING);	

  0004d	6a 08		 push	 8
  0004f	8b 45 0c	 mov	 eax, DWORD PTR _GuildName$[ebp]
  00052	50		 push	 eax
  00053	8d 4d f1	 lea	 ecx, DWORD PTR _pMsg$[ebp+13]
  00056	51		 push	 ecx
  00057	e8 00 00 00 00	 call	 _memcpy
  0005c	83 c4 0c	 add	 esp, 12			; 0000000cH
$LN2@GDCharClos:

; 299  : 	
; 300  : 	//#BUGFIX_20040203_01
; 301  : 	wsExDbCli.DataSend((char*)&pMsg, pMsg.h.size);

  0005f	0f b6 45 e5	 movzx	 eax, BYTE PTR _pMsg$[ebp+1]
  00063	50		 push	 eax
  00064	8d 4d e4	 lea	 ecx, DWORD PTR _pMsg$[ebp]
  00067	51		 push	 ecx
  00068	b9 00 00 00 00	 mov	 ecx, OFFSET ?wsExDbCli@@3VwsJoinServerCli@@A ; wsExDbCli
