; Listing generated by Microsoft (R) Optimizing Compiler Version 19.27.29111.0 

	TITLE	C:\Mu Online\Mu-GS-Webzen-MC-10093\GameServer\EledoradoEvent.cpp
	.686P
	.XMM
	include listing.inc
	.model	flat

INCLUDELIB LIBCMT
INCLUDELIB OLDNAMES

PUBLIC	?__empty_global_delete@@YAXPAX@Z		; __empty_global_delete
PUBLIC	?__empty_global_delete@@YAXPAXI@Z		; __empty_global_delete
PUBLIC	??0CEledoradoEvent@@QAE@XZ			; CEledoradoEvent::CEledoradoEvent
PUBLIC	??1CEledoradoEvent@@UAE@XZ			; CEledoradoEvent::~CEledoradoEvent
PUBLIC	?Init@CEledoradoEvent@@QAEXXZ			; CEledoradoEvent::Init
PUBLIC	?SetEventState@CEledoradoEvent@@QAEXH@Z		; CEledoradoEvent::SetEventState
PUBLIC	?Run@CEledoradoEvent@@QAEXXZ			; CEledoradoEvent::Run
PUBLIC	?RegenGoldGoblen@CEledoradoEvent@@QAEXXZ	; CEledoradoEvent::RegenGoldGoblen
PUBLIC	?RegenTitan@CEledoradoEvent@@QAEXXZ		; CEledoradoEvent::RegenTitan
PUBLIC	?RegenGoldDercon@CEledoradoEvent@@QAEXXZ	; CEledoradoEvent::RegenGoldDercon
PUBLIC	?RegenDevilLizardKing@CEledoradoEvent@@QAEXXZ	; CEledoradoEvent::RegenDevilLizardKing
PUBLIC	?RegenKantur@CEledoradoEvent@@QAEXXZ		; CEledoradoEvent::RegenKantur
PUBLIC	?CheckGoldDercon@CEledoradoEvent@@QAEXH@Z	; CEledoradoEvent::CheckGoldDercon
PUBLIC	?SetMenualStart@CEledoradoEvent@@QAEXH@Z	; CEledoradoEvent::SetMenualStart
PUBLIC	?Start_Menual@CEledoradoEvent@@QAEXXZ		; CEledoradoEvent::Start_Menual
PUBLIC	?End_Menual@CEledoradoEvent@@QAEXXZ		; CEledoradoEvent::End_Menual
PUBLIC	??_GCEledoradoEvent@@UAEPAXI@Z			; CEledoradoEvent::`scalar deleting destructor'
PUBLIC	??_7CEledoradoEvent@@6B@			; CEledoradoEvent::`vftable'
PUBLIC	?gEledoradoEvent@@3VCEledoradoEvent@@A		; gEledoradoEvent
PUBLIC	??_C@_0BM@CBOPIOL@Make?5GoldGoblen?5?3?5?$CFd?0?5?$CFd?0?$CFd@ ; `string'
PUBLIC	??_C@_0BM@BOFIHGJ@Make?5GoldTaitan?5?3?5?$CFd?0?5?$CFd?0?$CFd@ ; `string'
PUBLIC	??_C@_0BM@ENHJDIJM@Make?5GoldDercon?5?3?5?$CFd?0?5?$CFd?0?$CFd@ ; `string'
PUBLIC	??_C@_03DMLAHEJO@?$KB?Y?5@			; `string'
PUBLIC	??_C@_03PGMJMGNM@?5?$KB?Y@			; `string'
PUBLIC	??_C@_0BP@HMGNFLDB@Make?5GoldLizarKing?5?3?5?$CFd?0?5?$CFd?0?$CFd@ ; `string'
PUBLIC	??_C@_0BO@HFHPKCLG@Make?5GoldTantarus?5?3?5?$CFd?0?5?$CFd?0?$CFd@ ; `string'
PUBLIC	??_C@_0DF@GIAPPI@?$KB?$NL?$KB?$NM?$FLEvent?5Management?$FN?5?$FLStart?$FN?5@ ; `string'
PUBLIC	??_R4CEledoradoEvent@@6B@			; CEledoradoEvent::`RTTI Complete Object Locator'
PUBLIC	??_R0?AVCEledoradoEvent@@@8			; CEledoradoEvent `RTTI Type Descriptor'
PUBLIC	??_R3CEledoradoEvent@@8				; CEledoradoEvent::`RTTI Class Hierarchy Descriptor'
PUBLIC	??_R2CEledoradoEvent@@8				; CEledoradoEvent::`RTTI Base Class Array'
PUBLIC	??_R1A@?0A@EA@CEledoradoEvent@@8		; CEledoradoEvent::`RTTI Base Class Descriptor at (0,-1,0,64)'
EXTRN	??3@YAXPAXI@Z:PROC				; operator delete
EXTRN	_atexit:PROC
EXTRN	_strcat:PROC
EXTRN	_strcpy:PROC
EXTRN	__imp__GetTickCount@0:PROC
EXTRN	_rand:PROC
EXTRN	__localtime64:PROC
EXTRN	__time64:PROC
EXTRN	__imp_?Get@CMsg@@QAEPADH@Z:PROC
EXTRN	?GCMapEventStateSend@@YAXHEE@Z:PROC		; GCMapEventStateSend
EXTRN	?GetBoxPosition@CMonsterSetBase@@QAEHHHHHHAAF0@Z:PROC ; CMonsterSetBase::GetBoxPosition
EXTRN	??_ECEledoradoEvent@@UAEPAXI@Z:PROC		; CEledoradoEvent::`vector deleting destructor'
EXTRN	@__security_check_cookie@4:PROC
EXTRN	??_7type_info@@6B@:QWORD			; type_info::`vftable'
EXTRN	?LogAddTD@@3P6AXPADZZA:DWORD			; LogAddTD
EXTRN	?gObj@@3PAVOBJECTSTRUCT@@A:DWORD		; gObj
EXTRN	?lMsg@@3VCMsg@@A:BYTE				; lMsg
EXTRN	?gEledoradoGoldGoblenRegenTime@@3KA:DWORD	; gEledoradoGoldGoblenRegenTime
EXTRN	?gEledoradoTitanRegenTime@@3KA:DWORD		; gEledoradoTitanRegenTime
EXTRN	?gEledoradoGoldDerconRegenTime@@3KA:DWORD	; gEledoradoGoldDerconRegenTime
EXTRN	?gEledoradoDevilLizardKingRegenTime@@3KA:DWORD	; gEledoradoDevilLizardKingRegenTime
EXTRN	?gEledoradoDevilTantarosRegenTime@@3KA:DWORD	; gEledoradoDevilTantarosRegenTime
EXTRN	?gMSetBase@@3VCMonsterSetBase@@A:BYTE		; gMSetBase
EXTRN	___security_cookie:DWORD
EXTRN	__fltused:DWORD
_BSS	SEGMENT
?gEledoradoEvent@@3VCEledoradoEvent@@A DB 050H DUP (?)	; gEledoradoEvent
_BSS	ENDS
CRT$XCU	SEGMENT
?gEledoradoEvent$initializer$@@3P6AXXZA DD FLAT:??__EgEledoradoEvent@@YAXXZ ; gEledoradoEvent$initializer$
CRT$XCU	ENDS
;	COMDAT ??_R1A@?0A@EA@CEledoradoEvent@@8
rdata$r	SEGMENT
??_R1A@?0A@EA@CEledoradoEvent@@8 DD FLAT:??_R0?AVCEledoradoEvent@@@8 ; CEledoradoEvent::`RTTI Base Class Descriptor at (0,-1,0,64)'
	DD	00H
	DD	00H
	DD	0ffffffffH
	DD	00H
	DD	040H
	DD	FLAT:??_R3CEledoradoEvent@@8
rdata$r	ENDS
;	COMDAT ??_R2CEledoradoEvent@@8
rdata$r	SEGMENT
??_R2CEledoradoEvent@@8 DD FLAT:??_R1A@?0A@EA@CEledoradoEvent@@8 ; CEledoradoEvent::`RTTI Base Class Array'
rdata$r	ENDS
;	COMDAT ??_R3CEledoradoEvent@@8
rdata$r	SEGMENT
??_R3CEledoradoEvent@@8 DD 00H				; CEledoradoEvent::`RTTI Class Hierarchy Descriptor'
	DD	00H
	DD	01H
	DD	FLAT:??_R2CEledoradoEvent@@8
rdata$r	ENDS
;	COMDAT ??_R0?AVCEledoradoEvent@@@8
data$r	SEGMENT
??_R0?AVCEledoradoEvent@@@8 DD FLAT:??_7type_info@@6B@	; CEledoradoEvent `RTTI Type Descriptor'
	DD	00H
	DB	'.?AVCEledoradoEvent@@', 00H
data$r	ENDS
;	COMDAT ??_R4CEledoradoEvent@@6B@
rdata$r	SEGMENT
??_R4CEledoradoEvent@@6B@ DD 00H			; CEledoradoEvent::`RTTI Complete Object Locator'
	DD	00H
	DD	00H
	DD	FLAT:??_R0?AVCEledoradoEvent@@@8
	DD	FLAT:??_R3CEledoradoEvent@@8
rdata$r	ENDS
;	COMDAT ??_C@_0DF@GIAPPI@?$KB?$NL?$KB?$NM?$FLEvent?5Management?$FN?5?$FLStart?$FN?5@
CONST	SEGMENT
??_C@_0DF@GIAPPI@?$KB?$NL?$KB?$NM?$FLEvent?5Management?$FN?5?$FLStart?$FN?5@ DB 0a1H
	DB	0dbH, 0a1H, 0dcH, '[Event Management] [Start] EledoradoEvent E'
	DB	'vent!', 00H					; `string'
CONST	ENDS
;	COMDAT ??_C@_0BO@HFHPKCLG@Make?5GoldTantarus?5?3?5?$CFd?0?5?$CFd?0?$CFd@
CONST	SEGMENT
??_C@_0BO@HFHPKCLG@Make?5GoldTantarus?5?3?5?$CFd?0?5?$CFd?0?$CFd@ DB 'Mak'
	DB	'e GoldTantarus : %d, %d,%d', 00H		; `string'
CONST	ENDS
;	COMDAT ??_C@_0BP@HMGNFLDB@Make?5GoldLizarKing?5?3?5?$CFd?0?5?$CFd?0?$CFd@
CONST	SEGMENT
??_C@_0BP@HMGNFLDB@Make?5GoldLizarKing?5?3?5?$CFd?0?5?$CFd?0?$CFd@ DB 'Ma'
	DB	'ke GoldLizarKing : %d, %d,%d', 00H		; `string'
CONST	ENDS
;	COMDAT ??_C@_03PGMJMGNM@?5?$KB?Y@
CONST	SEGMENT
??_C@_03PGMJMGNM@?5?$KB?Y@ DB ' ', 0a1H, 0d9H, 00H	; `string'
CONST	ENDS
;	COMDAT ??_C@_03DMLAHEJO@?$KB?Y?5@
CONST	SEGMENT
??_C@_03DMLAHEJO@?$KB?Y?5@ DB 0a1H, 0d9H, ' ', 00H	; `string'
CONST	ENDS
;	COMDAT ??_C@_0BM@ENHJDIJM@Make?5GoldDercon?5?3?5?$CFd?0?5?$CFd?0?$CFd@
CONST	SEGMENT
??_C@_0BM@ENHJDIJM@Make?5GoldDercon?5?3?5?$CFd?0?5?$CFd?0?$CFd@ DB 'Make '
	DB	'GoldDercon : %d, %d,%d', 00H		; `string'
CONST	ENDS
;	COMDAT ??_C@_0BM@BOFIHGJ@Make?5GoldTaitan?5?3?5?$CFd?0?5?$CFd?0?$CFd@
CONST	SEGMENT
??_C@_0BM@BOFIHGJ@Make?5GoldTaitan?5?3?5?$CFd?0?5?$CFd?0?$CFd@ DB 'Make G'
	DB	'oldTaitan : %d, %d,%d', 00H			; `string'
CONST	ENDS
;	COMDAT ??_C@_0BM@CBOPIOL@Make?5GoldGoblen?5?3?5?$CFd?0?5?$CFd?0?$CFd@
CONST	SEGMENT
??_C@_0BM@CBOPIOL@Make?5GoldGoblen?5?3?5?$CFd?0?5?$CFd?0?$CFd@ DB 'Make G'
	DB	'oldGoblen : %d, %d,%d', 00H			; `string'
CONST	ENDS
;	COMDAT ??_7CEledoradoEvent@@6B@
CONST	SEGMENT
??_7CEledoradoEvent@@6B@ DD FLAT:??_R4CEledoradoEvent@@6B@ ; CEledoradoEvent::`vftable'
	DD	FLAT:??_ECEledoradoEvent@@UAEPAXI@Z
CONST	ENDS
; Function compile flags: /Odtp /ZI
;	COMDAT ??__FgEledoradoEvent@@YAXXZ
text$yd	SEGMENT
??__FgEledoradoEvent@@YAXXZ PROC			; `dynamic atexit destructor for 'gEledoradoEvent'', COMDAT
  00000	55		 push	 ebp
  00001	8b ec		 mov	 ebp, esp
  00003	83 ec 40	 sub	 esp, 64			; 00000040H
  00006	53		 push	 ebx
  00007	56		 push	 esi
  00008	57		 push	 edi
  00009	b9 00 00 00 00	 mov	 ecx, OFFSET ?gEledoradoEvent@@3VCEledoradoEvent@@A ; gEledoradoEvent
  0000e	e8 00 00 00 00	 call	 ??1CEledoradoEvent@@UAE@XZ ; CEledoradoEvent::~CEledoradoEvent
  00013	5f		 pop	 edi
  00014	5e		 pop	 esi
  00015	5b		 pop	 ebx
  00016	8b e5		 mov	 esp, ebp
  00018	5d		 pop	 ebp
  00019	c3		 ret	 0
??__FgEledoradoEvent@@YAXXZ ENDP			; `dynamic atexit destructor for 'gEledoradoEvent''
text$yd	ENDS
; Function compile flags: /Odtp /ZI
; File C:\Mu Online\Mu-GS-Webzen-MC-10093\GameServer\EledoradoEvent.cpp
;	COMDAT ??__EgEledoradoEvent@@YAXXZ
text$di	SEGMENT
??__EgEledoradoEvent@@YAXXZ PROC			; `dynamic initializer for 'gEledoradoEvent'', COMDAT

; 21   : CEledoradoEvent gEledoradoEvent;

  00000	55		 push	 ebp
  00001	8b ec		 mov	 ebp, esp
  00003	83 ec 40	 sub	 esp, 64			; 00000040H
  00006	53		 push	 ebx
  00007	56		 push	 esi
  00008	57		 push	 edi
  00009	b9 00 00 00 00	 mov	 ecx, OFFSET ?gEledoradoEvent@@3VCEledoradoEvent@@A ; gEledoradoEvent
  0000e	e8 00 00 00 00	 call	 ??0CEledoradoEvent@@QAE@XZ ; CEledoradoEvent::CEledoradoEvent
  00013	68 00 00 00 00	 push	 OFFSET ??__FgEledoradoEvent@@YAXXZ ; `dynamic atexit destructor for 'gEledoradoEvent''
  00018	e8 00 00 00 00	 call	 _atexit
  0001d	83 c4 04	 add	 esp, 4
  00020	5f		 pop	 edi
  00021	5e		 pop	 esi
  00022	5b		 pop	 ebx
  00023	8b e5		 mov	 esp, ebp
  00025	5d		 pop	 ebp
  00026	c3		 ret	 0
??__EgEledoradoEvent@@YAXXZ ENDP			; `dynamic initializer for 'gEledoradoEvent''
text$di	ENDS
; Function compile flags: /Odtp /ZI
;	COMDAT ??_GCEledoradoEvent@@UAEPAXI@Z
_TEXT	SEGMENT
_this$ = -4						; size = 4
___flags$ = 8						; size = 4
??_GCEledoradoEvent@@UAEPAXI@Z PROC			; CEledoradoEvent::`scalar deleting destructor', COMDAT
; _this$ = ecx
  00000	55		 push	 ebp
  00001	8b ec		 mov	 ebp, esp
  00003	83 ec 44	 sub	 esp, 68			; 00000044H
  00006	53		 push	 ebx
  00007	56		 push	 esi
  00008	57		 push	 edi
  00009	89 4d fc	 mov	 DWORD PTR _this$[ebp], ecx
  0000c	8b 4d fc	 mov	 ecx, DWORD PTR _this$[ebp]
  0000f	e8 00 00 00 00	 call	 ??1CEledoradoEvent@@UAE@XZ ; CEledoradoEvent::~CEledoradoEvent
  00014	8b 45 08	 mov	 eax, DWORD PTR ___flags$[ebp]
  00017	83 e0 01	 and	 eax, 1
  0001a	74 0e		 je	 SHORT $LN2@scalar
  0001c	6a 50		 push	 80			; 00000050H
  0001e	8b 45 fc	 mov	 eax, DWORD PTR _this$[ebp]
  00021	50		 push	 eax
  00022	e8 00 00 00 00	 call	 ??3@YAXPAXI@Z		; operator delete
  00027	83 c4 08	 add	 esp, 8
$LN2@scalar:
  0002a	8b 45 fc	 mov	 eax, DWORD PTR _this$[ebp]
  0002d	5f		 pop	 edi
  0002e	5e		 pop	 esi
  0002f	5b		 pop	 ebx
  00030	8b e5		 mov	 esp, ebp
  00032	5d		 pop	 ebp
  00033	c2 04 00	 ret	 4
??_GCEledoradoEvent@@UAEPAXI@Z ENDP			; CEledoradoEvent::`scalar deleting destructor'
_TEXT	ENDS
; Function compile flags: /Odtp /ZI
; File C:\Mu Online\Mu-GS-Webzen-MC-10093\GameServer\EledoradoEvent.cpp
;	COMDAT ?End_Menual@CEledoradoEvent@@QAEXXZ
_TEXT	SEGMENT
_this$ = -4						; size = 4
?End_Menual@CEledoradoEvent@@QAEXXZ PROC		; CEledoradoEvent::End_Menual, COMDAT
; _this$ = ecx

; 664  : {

  00000	55		 push	 ebp
  00001	8b ec		 mov	 ebp, esp
  00003	83 ec 44	 sub	 esp, 68			; 00000044H
  00006	53		 push	 ebx
  00007	56		 push	 esi
  00008	57		 push	 edi
  00009	89 4d fc	 mov	 DWORD PTR _this$[ebp], ecx

; 665  : 	SetMenualStart(FALSE);

  0000c	6a 00		 push	 0
  0000e	8b 4d fc	 mov	 ecx, DWORD PTR _this$[ebp]
  00011	e8 00 00 00 00	 call	 ?SetMenualStart@CEledoradoEvent@@QAEXH@Z ; CEledoradoEvent::SetMenualStart

; 666  : }

  00016	5f		 pop	 edi
  00017	5e		 pop	 esi
  00018	5b		 pop	 ebx
  00019	8b e5		 mov	 esp, ebp
  0001b	5d		 pop	 ebp
  0001c	c3		 ret	 0
?End_Menual@CEledoradoEvent@@QAEXXZ ENDP		; CEledoradoEvent::End_Menual
_TEXT	ENDS
; Function compile flags: /Odtp /ZI
; File C:\Mu Online\Mu-GS-Webzen-MC-10093\GameServer\EledoradoEvent.cpp
;	COMDAT ?Start_Menual@CEledoradoEvent@@QAEXXZ
_TEXT	SEGMENT
_TickCount$ = -8					; size = 4
_this$ = -4						; size = 4
?Start_Menual@CEledoradoEvent@@QAEXXZ PROC		; CEledoradoEvent::Start_Menual, COMDAT
; _this$ = ecx

; 620  : {

  00000	55		 push	 ebp
  00001	8b ec		 mov	 ebp, esp
  00003	83 ec 48	 sub	 esp, 72			; 00000048H
  00006	53		 push	 ebx
  00007	56		 push	 esi
  00008	57		 push	 edi
  00009	89 4d fc	 mov	 DWORD PTR _this$[ebp], ecx

; 621  : 	SetMenualStart(TRUE);

  0000c	6a 01		 push	 1
  0000e	8b 4d fc	 mov	 ecx, DWORD PTR _this$[ebp]
  00011	e8 00 00 00 00	 call	 ?SetMenualStart@CEledoradoEvent@@QAEXH@Z ; CEledoradoEvent::SetMenualStart

; 622  : 
; 623  : 	LogAddTD("○●[Event Management] [Start] EledoradoEvent Event!");

  00016	68 00 00 00 00	 push	 OFFSET ??_C@_0DF@GIAPPI@?$KB?$NL?$KB?$NM?$FLEvent?5Management?$FN?5?$FLStart?$FN?5@
  0001b	ff 15 00 00 00
	00		 call	 DWORD PTR ?LogAddTD@@3P6AXPADZZA ; LogAddTD
  00021	83 c4 04	 add	 esp, 4

; 624  : 
; 625  : 	DWORD TickCount = GetTickCount();

  00024	ff 15 00 00 00
	00		 call	 DWORD PTR __imp__GetTickCount@0
  0002a	89 45 f8	 mov	 DWORD PTR _TickCount$[ebp], eax

; 626  : 	GoldGoblenEventStartTime = TickCount;

  0002d	8b 45 fc	 mov	 eax, DWORD PTR _this$[ebp]
  00030	8b 4d f8	 mov	 ecx, DWORD PTR _TickCount$[ebp]
  00033	89 48 08	 mov	 DWORD PTR [eax+8], ecx

; 627  : 	RegenGoldGoblen();

  00036	8b 4d fc	 mov	 ecx, DWORD PTR _this$[ebp]
  00039	e8 00 00 00 00	 call	 ?RegenGoldGoblen@CEledoradoEvent@@QAEXXZ ; CEledoradoEvent::RegenGoldGoblen

; 628  : 	TitanEventStartTime = TickCount;

  0003e	8b 45 fc	 mov	 eax, DWORD PTR _this$[ebp]
  00041	8b 4d f8	 mov	 ecx, DWORD PTR _TickCount$[ebp]
  00044	89 48 0c	 mov	 DWORD PTR [eax+12], ecx

; 629  : 	RegenTitan();

  00047	8b 4d fc	 mov	 ecx, DWORD PTR _this$[ebp]
  0004a	e8 00 00 00 00	 call	 ?RegenTitan@CEledoradoEvent@@QAEXXZ ; CEledoradoEvent::RegenTitan

; 630  : 	GoldDerconEventStartTime = TickCount;

  0004f	8b 45 fc	 mov	 eax, DWORD PTR _this$[ebp]
  00052	8b 4d f8	 mov	 ecx, DWORD PTR _TickCount$[ebp]
  00055	89 48 10	 mov	 DWORD PTR [eax+16], ecx

; 631  : 	RegenGoldDercon();

  00058	8b 4d fc	 mov	 ecx, DWORD PTR _this$[ebp]
  0005b	e8 00 00 00 00	 call	 ?RegenGoldDercon@CEledoradoEvent@@QAEXXZ ; CEledoradoEvent::RegenGoldDercon

; 632  : 	DevilLizardKingEventStartTime = TickCount;

  00060	8b 45 fc	 mov	 eax, DWORD PTR _this$[ebp]
  00063	8b 4d f8	 mov	 ecx, DWORD PTR _TickCount$[ebp]
  00066	89 48 14	 mov	 DWORD PTR [eax+20], ecx

; 633  : 	RegenDevilLizardKing();

  00069	8b 4d fc	 mov	 ecx, DWORD PTR _this$[ebp]
  0006c	e8 00 00 00 00	 call	 ?RegenDevilLizardKing@CEledoradoEvent@@QAEXXZ ; CEledoradoEvent::RegenDevilLizardKing

; 634  : 	KanturEventStartTime = TickCount;

  00071	8b 45 fc	 mov	 eax, DWORD PTR _this$[ebp]
  00074	8b 4d f8	 mov	 ecx, DWORD PTR _TickCount$[ebp]
  00077	89 48 18	 mov	 DWORD PTR [eax+24], ecx

; 635  : 	RegenKantur();

  0007a	8b 4d fc	 mov	 ecx, DWORD PTR _this$[ebp]
  0007d	e8 00 00 00 00	 call	 ?RegenKantur@CEledoradoEvent@@QAEXXZ ; CEledoradoEvent::RegenKantur

; 636  : 
; 637  : #ifdef ADD_GOLDEN_EVENT_RENEWAL_20090311
; 638  : 	GoldenRabbitEventStartTime = TickCount;
; 639  : 	RegenGoldenRabbit();
; 640  : 	GoldenDarkKnightEventStartTime = TickCount;
; 641  : 	RegenGoldenDarkKnight();
; 642  : 	GoldenDevilEventStartTime = TickCount;
; 643  : 	RegenGoldenDevil();
; 644  : 	GoldenStoneMonsterEventStartTime = TickCount;
; 645  : 	RegenGoldenStoneMonster();
; 646  : 	GoldenCrustEventStartTime = TickCount;
; 647  : 	RegenGoldenCrust();
; 648  : 	GoldenSatirosEventStartTime = TickCount;
; 649  : 	RegenGoldenSatiros();
; 650  : 	GoldenTwintailEventStartTime = TickCount;
; 651  : 	RegenGoldenTwintail();
; 652  : 	GoldenIronKnightEventStartTime = TickCount;
; 653  : 	RegenGoldenIronKnight();
; 654  : 	GoldenNeipinEventStartTime = TickCount;
; 655  : 	RegenGoldenNeipin();
; 656  : 	GoldenGreatDragonEventStartTime = TickCount;
; 657  : 	RegenGoldenGreatDragon();
; 658  : #endif	
; 659  : 	
; 660  : }

  00082	5f		 pop	 edi
  00083	5e		 pop	 esi
  00084	5b		 pop	 ebx
  00085	8b e5		 mov	 esp, ebp
  00087	5d		 pop	 ebp
  00088	c3		 ret	 0
?Start_Menual@CEledoradoEvent@@QAEXXZ ENDP		; CEledoradoEvent::Start_Menual
_TEXT	ENDS
; Function compile flags: /Odtp /ZI
; File C:\Mu Online\Mu-GS-Webzen-MC-10093\GameServer\EledoradoEvent.h
;	COMDAT ?SetMenualStart@CEledoradoEvent@@QAEXH@Z
_TEXT	SEGMENT
_this$ = -4						; size = 4
_bMenualStart$ = 8					; size = 4
?SetMenualStart@CEledoradoEvent@@QAEXH@Z PROC		; CEledoradoEvent::SetMenualStart, COMDAT
; _this$ = ecx

; 82   : 	void	SetMenualStart (BOOL bMenualStart)	{	m_bMenualStart = bMenualStart;	}

  00000	55		 push	 ebp
  00001	8b ec		 mov	 ebp, esp
  00003	83 ec 44	 sub	 esp, 68			; 00000044H
  00006	53		 push	 ebx
  00007	56		 push	 esi
  00008	57		 push	 edi
  00009	89 4d fc	 mov	 DWORD PTR _this$[ebp], ecx
  0000c	8b 45 fc	 mov	 eax, DWORD PTR _this$[ebp]
  0000f	8b 4d 08	 mov	 ecx, DWORD PTR _bMenualStart$[ebp]
  00012	89 48 40	 mov	 DWORD PTR [eax+64], ecx
  00015	5f		 pop	 edi
  00016	5e		 pop	 esi
  00017	5b		 pop	 ebx
  00018	8b e5		 mov	 esp, ebp
  0001a	5d		 pop	 ebp
  0001b	c2 04 00	 ret	 4
?SetMenualStart@CEledoradoEvent@@QAEXH@Z ENDP		; CEledoradoEvent::SetMenualStart
_TEXT	ENDS
; Function compile flags: /Odtp /ZI
; File C:\Mu Online\Mu-GS-Webzen-MC-10093\GameServer\EledoradoEvent.cpp
;	COMDAT ?CheckGoldDercon@CEledoradoEvent@@QAEXH@Z
_TEXT	SEGMENT
_i$1 = -16						; size = 4
_EventClearMapNumber$ = -12				; size = 4
_EventOn$ = -8						; size = 4
_this$ = -4						; size = 4
_MapNumber$ = 8						; size = 4
?CheckGoldDercon@CEledoradoEvent@@QAEXH@Z PROC		; CEledoradoEvent::CheckGoldDercon, COMDAT
; _this$ = ecx

; 578  : {

  00000	55		 push	 ebp
  00001	8b ec		 mov	 ebp, esp
  00003	83 ec 50	 sub	 esp, 80			; 00000050H
  00006	53		 push	 ebx
  00007	56		 push	 esi
  00008	57		 push	 edi
  00009	89 4d fc	 mov	 DWORD PTR _this$[ebp], ecx

; 579  : 	if( !EventState )

  0000c	8b 45 fc	 mov	 eax, DWORD PTR _this$[ebp]
  0000f	83 78 04 00	 cmp	 DWORD PTR [eax+4], 0
  00013	75 05		 jne	 SHORT $LN5@CheckGoldD

; 580  : 		return;

  00015	e9 98 00 00 00	 jmp	 $LN1@CheckGoldD
$LN5@CheckGoldD:

; 581  : 
; 582  : 	BOOL EventOn = FALSE;

  0001a	c7 45 f8 00 00
	00 00		 mov	 DWORD PTR _EventOn$[ebp], 0

; 583  : 	int  EventClearMapNumber = -1;

  00021	c7 45 f4 ff ff
	ff ff		 mov	 DWORD PTR _EventClearMapNumber$[ebp], -1

; 584  : 
; 585  : 	for( int i = 0; i < 3; i++ )

  00028	c7 45 f0 00 00
	00 00		 mov	 DWORD PTR _i$1[ebp], 0
  0002f	eb 09		 jmp	 SHORT $LN4@CheckGoldD
$LN2@CheckGoldD:
  00031	8b 45 f0	 mov	 eax, DWORD PTR _i$1[ebp]
  00034	83 c0 01	 add	 eax, 1
  00037	89 45 f0	 mov	 DWORD PTR _i$1[ebp], eax
$LN4@CheckGoldD:
  0003a	83 7d f0 03	 cmp	 DWORD PTR _i$1[ebp], 3
  0003e	7d 34		 jge	 SHORT $LN3@CheckGoldD

; 586  : 	{ 
; 587  : 		if( m_BossGoldDerconMapNumber[i] != -1  )

  00040	8b 45 f0	 mov	 eax, DWORD PTR _i$1[ebp]
  00043	8b 4d fc	 mov	 ecx, DWORD PTR _this$[ebp]
  00046	83 7c 81 44 ff	 cmp	 DWORD PTR [ecx+eax*4+68], -1
  0004b	74 25		 je	 SHORT $LN6@CheckGoldD

; 588  : 		{
; 589  : 			if( m_BossGoldDerconMapNumber[i] == MapNumber )

  0004d	8b 45 f0	 mov	 eax, DWORD PTR _i$1[ebp]
  00050	8b 4d fc	 mov	 ecx, DWORD PTR _this$[ebp]
  00053	8b 54 81 44	 mov	 edx, DWORD PTR [ecx+eax*4+68]
  00057	3b 55 08	 cmp	 edx, DWORD PTR _MapNumber$[ebp]
  0005a	75 09		 jne	 SHORT $LN7@CheckGoldD

; 590  : 			{
; 591  : 				EventOn = TRUE;

  0005c	c7 45 f8 01 00
	00 00		 mov	 DWORD PTR _EventOn$[ebp], 1

; 592  : 			}		

  00063	eb 0d		 jmp	 SHORT $LN6@CheckGoldD
$LN7@CheckGoldD:

; 593  : 			else
; 594  : 			{
; 595  : 				EventClearMapNumber = m_BossGoldDerconMapNumber[i];

  00065	8b 45 f0	 mov	 eax, DWORD PTR _i$1[ebp]
  00068	8b 4d fc	 mov	 ecx, DWORD PTR _this$[ebp]
  0006b	8b 54 81 44	 mov	 edx, DWORD PTR [ecx+eax*4+68]
  0006f	89 55 f4	 mov	 DWORD PTR _EventClearMapNumber$[ebp], edx
$LN6@CheckGoldD:

; 596  : 			}
; 597  : 		}
; 598  : 	}

  00072	eb bd		 jmp	 SHORT $LN2@CheckGoldD
$LN3@CheckGoldD:

; 599  : 
; 600  : 	if( EventClearMapNumber != -1 )

  00074	83 7d f4 ff	 cmp	 DWORD PTR _EventClearMapNumber$[ebp], -1
  00078	74 10		 je	 SHORT $LN9@CheckGoldD

; 601  : 	{
; 602  : 		GCMapEventStateSend(EventClearMapNumber, 0, 3);

  0007a	6a 03		 push	 3
  0007c	6a 00		 push	 0
  0007e	8b 45 f4	 mov	 eax, DWORD PTR _EventClearMapNumber$[ebp]
  00081	50		 push	 eax
  00082	e8 00 00 00 00	 call	 ?GCMapEventStateSend@@YAXHEE@Z ; GCMapEventStateSend
  00087	83 c4 0c	 add	 esp, 12			; 0000000cH
$LN9@CheckGoldD:

; 603  : 	}
; 604  : 
; 605  : 	if( EventOn )

  0008a	83 7d f8 00	 cmp	 DWORD PTR _EventOn$[ebp], 0
  0008e	74 12		 je	 SHORT $LN10@CheckGoldD

; 606  : 	{
; 607  : 		GCMapEventStateSend(MapNumber, 1, 3);

  00090	6a 03		 push	 3
  00092	6a 01		 push	 1
  00094	8b 45 08	 mov	 eax, DWORD PTR _MapNumber$[ebp]
  00097	50		 push	 eax
  00098	e8 00 00 00 00	 call	 ?GCMapEventStateSend@@YAXHEE@Z ; GCMapEventStateSend
  0009d	83 c4 0c	 add	 esp, 12			; 0000000cH

; 608  : 	}

  000a0	eb 10		 jmp	 SHORT $LN1@CheckGoldD
$LN10@CheckGoldD:

; 609  : 	else
; 610  : 	{
; 611  : 		GCMapEventStateSend(MapNumber, 0, 3);

  000a2	6a 03		 push	 3
  000a4	6a 00		 push	 0
  000a6	8b 45 08	 mov	 eax, DWORD PTR _MapNumber$[ebp]
  000a9	50		 push	 eax
  000aa	e8 00 00 00 00	 call	 ?GCMapEventStateSend@@YAXHEE@Z ; GCMapEventStateSend
  000af	83 c4 0c	 add	 esp, 12			; 0000000cH
$LN1@CheckGoldD:

; 612  : 	}
; 613  : }

  000b2	5f		 pop	 edi
  000b3	5e		 pop	 esi
  000b4	5b		 pop	 ebx
  000b5	8b e5		 mov	 esp, ebp
  000b7	5d		 pop	 ebp
  000b8	c2 04 00	 ret	 4
?CheckGoldDercon@CEledoradoEvent@@QAEXH@Z ENDP		; CEledoradoEvent::CheckGoldDercon
_TEXT	ENDS
; Function compile flags: /Odtp /ZI
; File C:\Mu Online\Mu-GS-Webzen-MC-10093\GameServer\EledoradoEvent.cpp
;	COMDAT ?RegenKantur@CEledoradoEvent@@QAEXXZ
_TEXT	SEGMENT
_MapNumber$ = -12					; size = 4
_n$ = -8						; size = 4
_this$ = -4						; size = 4
?RegenKantur@CEledoradoEvent@@QAEXXZ PROC		; CEledoradoEvent::RegenKantur, COMDAT
; _this$ = ecx

; 504  : {

  00000	55		 push	 ebp
  00001	8b ec		 mov	 ebp, esp
  00003	83 ec 4c	 sub	 esp, 76			; 0000004cH
  00006	53		 push	 ebx
  00007	56		 push	 esi
  00008	57		 push	 edi
  00009	89 4d fc	 mov	 DWORD PTR _this$[ebp], ecx

; 505  : 	int n  = 0;

  0000c	c7 45 f8 00 00
	00 00		 mov	 DWORD PTR _n$[ebp], 0

; 506  : 	int MapNumber;
; 507  : 
; 508  : 	if(m_BossKanturMapNumber == -1)

  00013	8b 45 fc	 mov	 eax, DWORD PTR _this$[ebp]
  00016	83 78 34 ff	 cmp	 DWORD PTR [eax+52], -1
  0001a	75 0a		 jne	 SHORT $LN7@RegenKantu

; 509  : 		m_BossKanturMapNumber = MAP_INDEX_TARKAN;

  0001c	8b 45 fc	 mov	 eax, DWORD PTR _this$[ebp]
  0001f	c7 40 34 08 00
	00 00		 mov	 DWORD PTR [eax+52], 8
$LN7@RegenKantu:

; 510  : 
; 511  : 	for( n=0; n<MAX_MONSTER; n++)

  00026	c7 45 f8 00 00
	00 00		 mov	 DWORD PTR _n$[ebp], 0
  0002d	eb 09		 jmp	 SHORT $LN4@RegenKantu
$LN2@RegenKantu:
  0002f	8b 45 f8	 mov	 eax, DWORD PTR _n$[ebp]
  00032	83 c0 01	 add	 eax, 1
  00035	89 45 f8	 mov	 DWORD PTR _n$[ebp], eax
$LN4@RegenKantu:
  00038	81 7d f8 a8 16
	00 00		 cmp	 DWORD PTR _n$[ebp], 5800 ; 000016a8H
  0003f	0f 8d d7 04 00
	00		 jge	 $LN3@RegenKantu

; 512  : 	{		
; 513  : 		if( gObj[n].Class == 82 )

  00045	69 45 f8 a0 1b
	00 00		 imul	 eax, DWORD PTR _n$[ebp], 7072
  0004c	8b 0d 00 00 00
	00		 mov	 ecx, DWORD PTR ?gObj@@3PAVOBJECTSTRUCT@@A ; gObj
  00052	0f b7 94 01 9c
	00 00 00	 movzx	 edx, WORD PTR [ecx+eax+156]
  0005a	83 fa 52	 cmp	 edx, 82			; 00000052H
  0005d	0f 85 b4 02 00
	00		 jne	 $LN8@RegenKantu

; 514  : 		{	// 칸투르 1
; 515  : 			gObj[n].Live	= 1;

  00063	69 45 f8 a0 1b
	00 00		 imul	 eax, DWORD PTR _n$[ebp], 7072
  0006a	8b 0d 00 00 00
	00		 mov	 ecx, DWORD PTR ?gObj@@3PAVOBJECTSTRUCT@@A ; gObj
  00070	c6 44 01 66 01	 mov	 BYTE PTR [ecx+eax+102], 1

; 516  : 			
; 517  : 			MapNumber = MAP_INDEX_TARKAN;

  00075	c7 45 f4 08 00
	00 00		 mov	 DWORD PTR _MapNumber$[ebp], 8

; 518  : 
; 519  : 			gObj[n].MapNumber = MapNumber;

  0007c	69 45 f8 a0 1b
	00 00		 imul	 eax, DWORD PTR _n$[ebp], 7072
  00083	8b 0d 00 00 00
	00		 mov	 ecx, DWORD PTR ?gObj@@3PAVOBJECTSTRUCT@@A ; gObj
  00089	8a 55 f4	 mov	 dl, BYTE PTR _MapNumber$[ebp]
  0008c	88 94 01 09 01
	00 00		 mov	 BYTE PTR [ecx+eax+265], dl
$LN5@RegenKantu:

; 520  : 			while(!gMSetBase.GetBoxPosition(MapNumber, 50, 50, 200, 200, gObj[n].X,gObj[n].Y)){}

  00093	69 45 f8 a0 1b
	00 00		 imul	 eax, DWORD PTR _n$[ebp], 7072
  0009a	8b 0d 00 00 00
	00		 mov	 ecx, DWORD PTR ?gObj@@3PAVOBJECTSTRUCT@@A ; gObj
  000a0	8d 94 01 06 01
	00 00		 lea	 edx, DWORD PTR [ecx+eax+262]
  000a7	52		 push	 edx
  000a8	69 45 f8 a0 1b
	00 00		 imul	 eax, DWORD PTR _n$[ebp], 7072
  000af	8b 0d 00 00 00
	00		 mov	 ecx, DWORD PTR ?gObj@@3PAVOBJECTSTRUCT@@A ; gObj
  000b5	8d 94 01 04 01
	00 00		 lea	 edx, DWORD PTR [ecx+eax+260]
  000bc	52		 push	 edx
  000bd	68 c8 00 00 00	 push	 200			; 000000c8H
  000c2	68 c8 00 00 00	 push	 200			; 000000c8H
  000c7	6a 32		 push	 50			; 00000032H
  000c9	6a 32		 push	 50			; 00000032H
  000cb	8b 45 f4	 mov	 eax, DWORD PTR _MapNumber$[ebp]
  000ce	50		 push	 eax
  000cf	b9 00 00 00 00	 mov	 ecx, OFFSET ?gMSetBase@@3VCMonsterSetBase@@A ; gMSetBase
  000d4	e8 00 00 00 00	 call	 ?GetBoxPosition@CMonsterSetBase@@QAEHHHHHHAAF0@Z ; CMonsterSetBase::GetBoxPosition
  000d9	85 c0		 test	 eax, eax
  000db	75 02		 jne	 SHORT $LN6@RegenKantu
  000dd	eb b4		 jmp	 SHORT $LN5@RegenKantu
$LN6@RegenKantu:

; 521  : 
; 522  : 			m_BossKanturMapNumber = gObj[n].MapNumber;		// 

  000df	69 45 f8 a0 1b
	00 00		 imul	 eax, DWORD PTR _n$[ebp], 7072
  000e6	8b 0d 00 00 00
	00		 mov	 ecx, DWORD PTR ?gObj@@3PAVOBJECTSTRUCT@@A ; gObj
  000ec	0f b6 94 01 09
	01 00 00	 movzx	 edx, BYTE PTR [ecx+eax+265]
  000f4	8b 45 fc	 mov	 eax, DWORD PTR _this$[ebp]
  000f7	89 50 34	 mov	 DWORD PTR [eax+52], edx

; 523  : 			m_BossKanturMapX = gObj[n].X;

  000fa	69 45 f8 a0 1b
	00 00		 imul	 eax, DWORD PTR _n$[ebp], 7072
  00101	8b 0d 00 00 00
	00		 mov	 ecx, DWORD PTR ?gObj@@3PAVOBJECTSTRUCT@@A ; gObj
  00107	0f bf 94 01 04
	01 00 00	 movsx	 edx, WORD PTR [ecx+eax+260]
  0010f	8b 45 fc	 mov	 eax, DWORD PTR _this$[ebp]
  00112	89 50 38	 mov	 DWORD PTR [eax+56], edx

; 524  : 			m_BossKanturMapY = gObj[n].Y;

  00115	69 45 f8 a0 1b
	00 00		 imul	 eax, DWORD PTR _n$[ebp], 7072
  0011c	8b 0d 00 00 00
	00		 mov	 ecx, DWORD PTR ?gObj@@3PAVOBJECTSTRUCT@@A ; gObj
  00122	0f bf 94 01 06
	01 00 00	 movsx	 edx, WORD PTR [ecx+eax+262]
  0012a	8b 45 fc	 mov	 eax, DWORD PTR _this$[ebp]
  0012d	89 50 3c	 mov	 DWORD PTR [eax+60], edx

; 525  : 
; 526  : 			gObj[n].Life = gObj[n].MaxLife;

  00130	69 45 f8 a0 1b
	00 00		 imul	 eax, DWORD PTR _n$[ebp], 7072
  00137	69 4d f8 a0 1b
	00 00		 imul	 ecx, DWORD PTR _n$[ebp], 7072
  0013e	8b 15 00 00 00
	00		 mov	 edx, DWORD PTR ?gObj@@3PAVOBJECTSTRUCT@@A ; gObj
  00144	8b 35 00 00 00
	00		 mov	 esi, DWORD PTR ?gObj@@3PAVOBJECTSTRUCT@@A ; gObj
  0014a	8b 84 06 c0 00
	00 00		 mov	 eax, DWORD PTR [esi+eax+192]
  00151	89 84 0a bc 00
	00 00		 mov	 DWORD PTR [edx+ecx+188], eax

; 527  : 			gObj[n].TX = gObj[n].X;

  00158	69 45 f8 a0 1b
	00 00		 imul	 eax, DWORD PTR _n$[ebp], 7072
  0015f	69 4d f8 a0 1b
	00 00		 imul	 ecx, DWORD PTR _n$[ebp], 7072
  00166	8b 15 00 00 00
	00		 mov	 edx, DWORD PTR ?gObj@@3PAVOBJECTSTRUCT@@A ; gObj
  0016c	8b 35 00 00 00
	00		 mov	 esi, DWORD PTR ?gObj@@3PAVOBJECTSTRUCT@@A ; gObj
  00172	66 8b 84 06 04
	01 00 00	 mov	 ax, WORD PTR [esi+eax+260]
  0017a	66 89 84 0a 20
	01 00 00	 mov	 WORD PTR [edx+ecx+288], ax

; 528  : 			gObj[n].TY = gObj[n].Y;

  00182	69 45 f8 a0 1b
	00 00		 imul	 eax, DWORD PTR _n$[ebp], 7072
  00189	69 4d f8 a0 1b
	00 00		 imul	 ecx, DWORD PTR _n$[ebp], 7072
  00190	8b 15 00 00 00
	00		 mov	 edx, DWORD PTR ?gObj@@3PAVOBJECTSTRUCT@@A ; gObj
  00196	8b 35 00 00 00
	00		 mov	 esi, DWORD PTR ?gObj@@3PAVOBJECTSTRUCT@@A ; gObj
  0019c	66 8b 84 06 06
	01 00 00	 mov	 ax, WORD PTR [esi+eax+262]
  001a4	66 89 84 0a 22
	01 00 00	 mov	 WORD PTR [edx+ecx+290], ax

; 529  : 			gObj[n].MTX = gObj[n].X;

  001ac	69 45 f8 a0 1b
	00 00		 imul	 eax, DWORD PTR _n$[ebp], 7072
  001b3	69 4d f8 a0 1b
	00 00		 imul	 ecx, DWORD PTR _n$[ebp], 7072
  001ba	8b 15 00 00 00
	00		 mov	 edx, DWORD PTR ?gObj@@3PAVOBJECTSTRUCT@@A ; gObj
  001c0	8b 35 00 00 00
	00		 mov	 esi, DWORD PTR ?gObj@@3PAVOBJECTSTRUCT@@A ; gObj
  001c6	66 8b 84 06 04
	01 00 00	 mov	 ax, WORD PTR [esi+eax+260]
  001ce	66 89 84 0a 24
	01 00 00	 mov	 WORD PTR [edx+ecx+292], ax

; 530  : 			gObj[n].MTY = gObj[n].Y;

  001d6	69 45 f8 a0 1b
	00 00		 imul	 eax, DWORD PTR _n$[ebp], 7072
  001dd	69 4d f8 a0 1b
	00 00		 imul	 ecx, DWORD PTR _n$[ebp], 7072
  001e4	8b 15 00 00 00
	00		 mov	 edx, DWORD PTR ?gObj@@3PAVOBJECTSTRUCT@@A ; gObj
  001ea	8b 35 00 00 00
	00		 mov	 esi, DWORD PTR ?gObj@@3PAVOBJECTSTRUCT@@A ; gObj
  001f0	66 8b 84 06 06
	01 00 00	 mov	 ax, WORD PTR [esi+eax+262]
  001f8	66 89 84 0a 26
	01 00 00	 mov	 WORD PTR [edx+ecx+294], ax

; 531  : 			gObj[n].StartX = (BYTE)gObj[n].X;

  00200	69 45 f8 a0 1b
	00 00		 imul	 eax, DWORD PTR _n$[ebp], 7072
  00207	69 4d f8 a0 1b
	00 00		 imul	 ecx, DWORD PTR _n$[ebp], 7072
  0020e	8b 15 00 00 00
	00		 mov	 edx, DWORD PTR ?gObj@@3PAVOBJECTSTRUCT@@A ; gObj
  00214	8b 35 00 00 00
	00		 mov	 esi, DWORD PTR ?gObj@@3PAVOBJECTSTRUCT@@A ; gObj
  0021a	8a 84 06 04 01
	00 00		 mov	 al, BYTE PTR [esi+eax+260]
  00221	88 84 0a 1a 01
	00 00		 mov	 BYTE PTR [edx+ecx+282], al

; 532  : 			gObj[n].StartY = (BYTE)gObj[n].Y;

  00228	69 45 f8 a0 1b
	00 00		 imul	 eax, DWORD PTR _n$[ebp], 7072
  0022f	69 4d f8 a0 1b
	00 00		 imul	 ecx, DWORD PTR _n$[ebp], 7072
  00236	8b 15 00 00 00
	00		 mov	 edx, DWORD PTR ?gObj@@3PAVOBJECTSTRUCT@@A ; gObj
  0023c	8b 35 00 00 00
	00		 mov	 esi, DWORD PTR ?gObj@@3PAVOBJECTSTRUCT@@A ; gObj
  00242	8a 84 06 06 01
	00 00		 mov	 al, BYTE PTR [esi+eax+262]
  00249	88 84 0a 1b 01
	00 00		 mov	 BYTE PTR [edx+ecx+283], al

; 533  : 
; 534  : #ifdef MODIFY_OLD_BUFF_EFFECT_SYSTEM_20071004
; 535  : 			gObjClearBuffEffect( &gObj[n], CLEAR_TYPE_DIEREGEN );
; 536  : #else
; 537  : 			gObj[n].m_PoisonBeattackCount	= 0;

  00250	69 45 f8 a0 1b
	00 00		 imul	 eax, DWORD PTR _n$[ebp], 7072
  00257	8b 0d 00 00 00
	00		 mov	 ecx, DWORD PTR ?gObj@@3PAVOBJECTSTRUCT@@A ; gObj
  0025d	c6 84 01 18 1a
	00 00 00	 mov	 BYTE PTR [ecx+eax+6680], 0

; 538  : 			gObj[n].m_ColdBeattackCount		= 0;

  00265	69 45 f8 a0 1b
	00 00		 imul	 eax, DWORD PTR _n$[ebp], 7072
  0026c	8b 0d 00 00 00
	00		 mov	 ecx, DWORD PTR ?gObj@@3PAVOBJECTSTRUCT@@A ; gObj
  00272	c6 84 01 19 1a
	00 00 00	 mov	 BYTE PTR [ecx+eax+6681], 0

; 539  : #endif // MODIFY_OLD_BUFF_EFFECT_SYSTEM_20071004
; 540  : 			gObj[n].m_ViewState				= 0;

  0027a	69 45 f8 a0 1b
	00 00		 imul	 eax, DWORD PTR _n$[ebp], 7072
  00281	8b 0d 00 00 00
	00		 mov	 ecx, DWORD PTR ?gObj@@3PAVOBJECTSTRUCT@@A ; gObj
  00287	c6 84 01 be 01
	00 00 00	 mov	 BYTE PTR [ecx+eax+446], 0

; 541  : 			gObj[n].Teleport				= 0;

  0028f	69 45 f8 a0 1b
	00 00		 imul	 eax, DWORD PTR _n$[ebp], 7072
  00296	8b 0d 00 00 00
	00		 mov	 ecx, DWORD PTR ?gObj@@3PAVOBJECTSTRUCT@@A ; gObj
  0029c	c6 84 01 fc 01
	00 00 00	 mov	 BYTE PTR [ecx+eax+508], 0

; 542  : 
; 543  : 			gObj[n].m_State	= OBJST_CREATE;

  002a4	69 45 f8 a0 1b
	00 00		 imul	 eax, DWORD PTR _n$[ebp], 7072
  002ab	8b 0d 00 00 00
	00		 mov	 ecx, DWORD PTR ?gObj@@3PAVOBJECTSTRUCT@@A ; gObj
  002b1	c7 84 01 b8 01
	00 00 01 00 00
	00		 mov	 DWORD PTR [ecx+eax+440], 1

; 544  : 			gObj[n].PathCount = 0;			

  002bc	69 45 f8 a0 1b
	00 00		 imul	 eax, DWORD PTR _n$[ebp], 7072
  002c3	8b 0d 00 00 00
	00		 mov	 ecx, DWORD PTR ?gObj@@3PAVOBJECTSTRUCT@@A ; gObj
  002c9	c7 84 01 28 01
	00 00 00 00 00
	00		 mov	 DWORD PTR [ecx+eax+296], 0

; 545  : 
; 546  : 			LogAddTD("Make GoldTantarus : %d, %d,%d", MapNumber, gObj[n].X, gObj[n].Y);

  002d4	69 45 f8 a0 1b
	00 00		 imul	 eax, DWORD PTR _n$[ebp], 7072
  002db	8b 0d 00 00 00
	00		 mov	 ecx, DWORD PTR ?gObj@@3PAVOBJECTSTRUCT@@A ; gObj
  002e1	0f bf 94 01 06
	01 00 00	 movsx	 edx, WORD PTR [ecx+eax+262]
  002e9	52		 push	 edx
  002ea	69 45 f8 a0 1b
	00 00		 imul	 eax, DWORD PTR _n$[ebp], 7072
  002f1	8b 0d 00 00 00
	00		 mov	 ecx, DWORD PTR ?gObj@@3PAVOBJECTSTRUCT@@A ; gObj
  002f7	0f bf 94 01 04
	01 00 00	 movsx	 edx, WORD PTR [ecx+eax+260]
  002ff	52		 push	 edx
  00300	8b 45 f4	 mov	 eax, DWORD PTR _MapNumber$[ebp]
  00303	50		 push	 eax
  00304	68 00 00 00 00	 push	 OFFSET ??_C@_0BO@HFHPKCLG@Make?5GoldTantarus?5?3?5?$CFd?0?5?$CFd?0?$CFd@
  00309	ff 15 00 00 00
	00		 call	 DWORD PTR ?LogAddTD@@3P6AXPADZZA ; LogAddTD
  0030f	83 c4 10	 add	 esp, 16			; 00000010H

; 547  : #if TESTSERVER == 1
; 548  : #ifndef FOR_ONAIR
; 549  : 			char msg[255];
; 550  : 			wsprintf(msg,"황금 탄탈로스 : %d, %d,%d", MapNumber, gObj[n].X, gObj[n].Y);
; 551  : 			AllSendServerMsg(msg);
; 552  : #endif
; 553  : #endif
; 554  : 		}

  00312	e9 00 02 00 00	 jmp	 $LN10@RegenKantu
$LN8@RegenKantu:

; 555  : 		else if( gObj[n].Class == 83 )

  00317	69 45 f8 a0 1b
	00 00		 imul	 eax, DWORD PTR _n$[ebp], 7072
  0031e	8b 0d 00 00 00
	00		 mov	 ecx, DWORD PTR ?gObj@@3PAVOBJECTSTRUCT@@A ; gObj
  00324	0f b7 94 01 9c
	00 00 00	 movzx	 edx, WORD PTR [ecx+eax+156]
  0032c	83 fa 53	 cmp	 edx, 83			; 00000053H
  0032f	0f 85 e2 01 00
	00		 jne	 $LN10@RegenKantu

; 556  : 		{	// 칸투르 2
; 557  : 			gObj[n].Live	= 1;

  00335	69 45 f8 a0 1b
	00 00		 imul	 eax, DWORD PTR _n$[ebp], 7072
  0033c	8b 0d 00 00 00
	00		 mov	 ecx, DWORD PTR ?gObj@@3PAVOBJECTSTRUCT@@A ; gObj
  00342	c6 44 01 66 01	 mov	 BYTE PTR [ecx+eax+102], 1

; 558  : 
; 559  : 			MapNumber = m_BossKanturMapNumber;

  00347	8b 45 fc	 mov	 eax, DWORD PTR _this$[ebp]
  0034a	8b 48 34	 mov	 ecx, DWORD PTR [eax+52]
  0034d	89 4d f4	 mov	 DWORD PTR _MapNumber$[ebp], ecx

; 560  : 			gObj[n].MapNumber = MapNumber;

  00350	69 45 f8 a0 1b
	00 00		 imul	 eax, DWORD PTR _n$[ebp], 7072
  00357	8b 0d 00 00 00
	00		 mov	 ecx, DWORD PTR ?gObj@@3PAVOBJECTSTRUCT@@A ; gObj
  0035d	8a 55 f4	 mov	 dl, BYTE PTR _MapNumber$[ebp]
  00360	88 94 01 09 01
	00 00		 mov	 BYTE PTR [ecx+eax+265], dl

; 561  : 			gMSetBase.GetBoxPosition(MapNumber, m_BossKanturMapX-10, m_BossKanturMapY-10, m_BossKanturMapX+10, m_BossKanturMapY+10, gObj[n].X,gObj[n].Y);

  00367	69 45 f8 a0 1b
	00 00		 imul	 eax, DWORD PTR _n$[ebp], 7072
  0036e	8b 0d 00 00 00
	00		 mov	 ecx, DWORD PTR ?gObj@@3PAVOBJECTSTRUCT@@A ; gObj
  00374	8d 94 01 06 01
	00 00		 lea	 edx, DWORD PTR [ecx+eax+262]
  0037b	52		 push	 edx
  0037c	69 45 f8 a0 1b
	00 00		 imul	 eax, DWORD PTR _n$[ebp], 7072
  00383	8b 0d 00 00 00
	00		 mov	 ecx, DWORD PTR ?gObj@@3PAVOBJECTSTRUCT@@A ; gObj
  00389	8d 94 01 04 01
	00 00		 lea	 edx, DWORD PTR [ecx+eax+260]
  00390	52		 push	 edx
  00391	8b 45 fc	 mov	 eax, DWORD PTR _this$[ebp]
  00394	8b 48 3c	 mov	 ecx, DWORD PTR [eax+60]
  00397	83 c1 0a	 add	 ecx, 10			; 0000000aH
  0039a	51		 push	 ecx
  0039b	8b 55 fc	 mov	 edx, DWORD PTR _this$[ebp]
  0039e	8b 42 38	 mov	 eax, DWORD PTR [edx+56]
  003a1	83 c0 0a	 add	 eax, 10			; 0000000aH
  003a4	50		 push	 eax
  003a5	8b 4d fc	 mov	 ecx, DWORD PTR _this$[ebp]
  003a8	8b 51 3c	 mov	 edx, DWORD PTR [ecx+60]
  003ab	83 ea 0a	 sub	 edx, 10			; 0000000aH
  003ae	52		 push	 edx
  003af	8b 45 fc	 mov	 eax, DWORD PTR _this$[ebp]
  003b2	8b 48 38	 mov	 ecx, DWORD PTR [eax+56]
  003b5	83 e9 0a	 sub	 ecx, 10			; 0000000aH
  003b8	51		 push	 ecx
  003b9	8b 55 f4	 mov	 edx, DWORD PTR _MapNumber$[ebp]
  003bc	52		 push	 edx
  003bd	b9 00 00 00 00	 mov	 ecx, OFFSET ?gMSetBase@@3VCMonsterSetBase@@A ; gMSetBase
  003c2	e8 00 00 00 00	 call	 ?GetBoxPosition@CMonsterSetBase@@QAEHHHHHHAAF0@Z ; CMonsterSetBase::GetBoxPosition

; 562  : 
; 563  : 			gObj[n].Life = gObj[n].MaxLife;

  003c7	69 45 f8 a0 1b
	00 00		 imul	 eax, DWORD PTR _n$[ebp], 7072
  003ce	69 4d f8 a0 1b
	00 00		 imul	 ecx, DWORD PTR _n$[ebp], 7072
  003d5	8b 15 00 00 00
	00		 mov	 edx, DWORD PTR ?gObj@@3PAVOBJECTSTRUCT@@A ; gObj
  003db	8b 35 00 00 00
	00		 mov	 esi, DWORD PTR ?gObj@@3PAVOBJECTSTRUCT@@A ; gObj
  003e1	8b 84 06 c0 00
	00 00		 mov	 eax, DWORD PTR [esi+eax+192]
  003e8	89 84 0a bc 00
	00 00		 mov	 DWORD PTR [edx+ecx+188], eax

; 564  : 			gObj[n].TX = gObj[n].X;

  003ef	69 45 f8 a0 1b
	00 00		 imul	 eax, DWORD PTR _n$[ebp], 7072
  003f6	69 4d f8 a0 1b
	00 00		 imul	 ecx, DWORD PTR _n$[ebp], 7072
  003fd	8b 15 00 00 00
	00		 mov	 edx, DWORD PTR ?gObj@@3PAVOBJECTSTRUCT@@A ; gObj
  00403	8b 35 00 00 00
	00		 mov	 esi, DWORD PTR ?gObj@@3PAVOBJECTSTRUCT@@A ; gObj
  00409	66 8b 84 06 04
	01 00 00	 mov	 ax, WORD PTR [esi+eax+260]
  00411	66 89 84 0a 20
	01 00 00	 mov	 WORD PTR [edx+ecx+288], ax

; 565  : 			gObj[n].TY = gObj[n].Y;

  00419	69 45 f8 a0 1b
	00 00		 imul	 eax, DWORD PTR _n$[ebp], 7072
  00420	69 4d f8 a0 1b
	00 00		 imul	 ecx, DWORD PTR _n$[ebp], 7072
  00427	8b 15 00 00 00
	00		 mov	 edx, DWORD PTR ?gObj@@3PAVOBJECTSTRUCT@@A ; gObj
  0042d	8b 35 00 00 00
	00		 mov	 esi, DWORD PTR ?gObj@@3PAVOBJECTSTRUCT@@A ; gObj
  00433	66 8b 84 06 06
	01 00 00	 mov	 ax, WORD PTR [esi+eax+262]
  0043b	66 89 84 0a 22
	01 00 00	 mov	 WORD PTR [edx+ecx+290], ax

; 566  : 			gObj[n].MTX = gObj[n].X;

  00443	69 45 f8 a0 1b
	00 00		 imul	 eax, DWORD PTR _n$[ebp], 7072
  0044a	69 4d f8 a0 1b
	00 00		 imul	 ecx, DWORD PTR _n$[ebp], 7072
  00451	8b 15 00 00 00
	00		 mov	 edx, DWORD PTR ?gObj@@3PAVOBJECTSTRUCT@@A ; gObj
  00457	8b 35 00 00 00
	00		 mov	 esi, DWORD PTR ?gObj@@3PAVOBJECTSTRUCT@@A ; gObj
  0045d	66 8b 84 06 04
	01 00 00	 mov	 ax, WORD PTR [esi+eax+260]
  00465	66 89 84 0a 24
	01 00 00	 mov	 WORD PTR [edx+ecx+292], ax

; 567  : 			gObj[n].MTY = gObj[n].Y;

  0046d	69 45 f8 a0 1b
	00 00		 imul	 eax, DWORD PTR _n$[ebp], 7072
  00474	69 4d f8 a0 1b
	00 00		 imul	 ecx, DWORD PTR _n$[ebp], 7072
  0047b	8b 15 00 00 00
	00		 mov	 edx, DWORD PTR ?gObj@@3PAVOBJECTSTRUCT@@A ; gObj
  00481	8b 35 00 00 00
	00		 mov	 esi, DWORD PTR ?gObj@@3PAVOBJECTSTRUCT@@A ; gObj
  00487	66 8b 84 06 06
	01 00 00	 mov	 ax, WORD PTR [esi+eax+262]
  0048f	66 89 84 0a 26
	01 00 00	 mov	 WORD PTR [edx+ecx+294], ax

; 568  : 			gObj[n].StartX = (BYTE)gObj[n].X;

  00497	69 45 f8 a0 1b
	00 00		 imul	 eax, DWORD PTR _n$[ebp], 7072
  0049e	69 4d f8 a0 1b
	00 00		 imul	 ecx, DWORD PTR _n$[ebp], 7072
  004a5	8b 15 00 00 00
	00		 mov	 edx, DWORD PTR ?gObj@@3PAVOBJECTSTRUCT@@A ; gObj
  004ab	8b 35 00 00 00
	00		 mov	 esi, DWORD PTR ?gObj@@3PAVOBJECTSTRUCT@@A ; gObj
  004b1	8a 84 06 04 01
	00 00		 mov	 al, BYTE PTR [esi+eax+260]
  004b8	88 84 0a 1a 01
	00 00		 mov	 BYTE PTR [edx+ecx+282], al

; 569  : 			gObj[n].StartY = (BYTE)gObj[n].Y;

  004bf	69 45 f8 a0 1b
	00 00		 imul	 eax, DWORD PTR _n$[ebp], 7072
  004c6	69 4d f8 a0 1b
	00 00		 imul	 ecx, DWORD PTR _n$[ebp], 7072
  004cd	8b 15 00 00 00
	00		 mov	 edx, DWORD PTR ?gObj@@3PAVOBJECTSTRUCT@@A ; gObj
  004d3	8b 35 00 00 00
	00		 mov	 esi, DWORD PTR ?gObj@@3PAVOBJECTSTRUCT@@A ; gObj
  004d9	8a 84 06 06 01
	00 00		 mov	 al, BYTE PTR [esi+eax+262]
  004e0	88 84 0a 1b 01
	00 00		 mov	 BYTE PTR [edx+ecx+283], al

; 570  : 
; 571  : 			gObj[n].m_State	= OBJST_CREATE;

  004e7	69 45 f8 a0 1b
	00 00		 imul	 eax, DWORD PTR _n$[ebp], 7072
  004ee	8b 0d 00 00 00
	00		 mov	 ecx, DWORD PTR ?gObj@@3PAVOBJECTSTRUCT@@A ; gObj
  004f4	c7 84 01 b8 01
	00 00 01 00 00
	00		 mov	 DWORD PTR [ecx+eax+440], 1

; 572  : 			gObj[n].PathCount = 0;			

  004ff	69 45 f8 a0 1b
	00 00		 imul	 eax, DWORD PTR _n$[ebp], 7072
  00506	8b 0d 00 00 00
	00		 mov	 ecx, DWORD PTR ?gObj@@3PAVOBJECTSTRUCT@@A ; gObj
  0050c	c7 84 01 28 01
	00 00 00 00 00
	00		 mov	 DWORD PTR [ecx+eax+296], 0
$LN10@RegenKantu:

; 573  : 		}
; 574  : 	}

  00517	e9 13 fb ff ff	 jmp	 $LN2@RegenKantu
$LN3@RegenKantu:

; 575  : }

  0051c	5f		 pop	 edi
  0051d	5e		 pop	 esi
  0051e	5b		 pop	 ebx
  0051f	8b e5		 mov	 esp, ebp
  00521	5d		 pop	 ebp
  00522	c3		 ret	 0
?RegenKantur@CEledoradoEvent@@QAEXXZ ENDP		; CEledoradoEvent::RegenKantur
_TEXT	ENDS
; Function compile flags: /Odtp /ZI
; File C:\Mu Online\Mu-GS-Webzen-MC-10093\GameServer\EledoradoEvent.cpp
;	COMDAT ?RegenDevilLizardKing@CEledoradoEvent@@QAEXXZ
_TEXT	SEGMENT
_MapNumber$ = -12					; size = 4
_n$ = -8						; size = 4
_this$ = -4						; size = 4
?RegenDevilLizardKing@CEledoradoEvent@@QAEXXZ PROC	; CEledoradoEvent::RegenDevilLizardKing, COMDAT
; _this$ = ecx

; 438  : {

  00000	55		 push	 ebp
  00001	8b ec		 mov	 ebp, esp
  00003	83 ec 4c	 sub	 esp, 76			; 0000004cH
  00006	53		 push	 ebx
  00007	56		 push	 esi
  00008	57		 push	 edi
  00009	89 4d fc	 mov	 DWORD PTR _this$[ebp], ecx

; 439  : 	int n  = 0;

  0000c	c7 45 f8 00 00
	00 00		 mov	 DWORD PTR _n$[ebp], 0

; 440  : 	int MapNumber;
; 441  : 
; 442  : 	if(m_BossDevilLizardKingMapNumber == -1)

  00013	8b 45 fc	 mov	 eax, DWORD PTR _this$[ebp]
  00016	83 78 28 ff	 cmp	 DWORD PTR [eax+40], -1
  0001a	75 0a		 jne	 SHORT $LN7@RegenDevil

; 443  : 		m_BossDevilLizardKingMapNumber = MAP_INDEX_ATHLANSE;

  0001c	8b 45 fc	 mov	 eax, DWORD PTR _this$[ebp]
  0001f	c7 40 28 07 00
	00 00		 mov	 DWORD PTR [eax+40], 7
$LN7@RegenDevil:

; 444  : 
; 445  : 	for( n=0; n<MAX_MONSTER; n++)

  00026	c7 45 f8 00 00
	00 00		 mov	 DWORD PTR _n$[ebp], 0
  0002d	eb 09		 jmp	 SHORT $LN4@RegenDevil
$LN2@RegenDevil:
  0002f	8b 45 f8	 mov	 eax, DWORD PTR _n$[ebp]
  00032	83 c0 01	 add	 eax, 1
  00035	89 45 f8	 mov	 DWORD PTR _n$[ebp], eax
$LN4@RegenDevil:
  00038	81 7d f8 a8 16
	00 00		 cmp	 DWORD PTR _n$[ebp], 5800 ; 000016a8H
  0003f	0f 8d 83 04 00
	00		 jge	 $LN3@RegenDevil

; 446  : 	{		
; 447  : 		if( gObj[n].Class == 80 )

  00045	69 45 f8 a0 1b
	00 00		 imul	 eax, DWORD PTR _n$[ebp], 7072
  0004c	8b 0d 00 00 00
	00		 mov	 ecx, DWORD PTR ?gObj@@3PAVOBJECTSTRUCT@@A ; gObj
  00052	0f b7 94 01 9c
	00 00 00	 movzx	 edx, WORD PTR [ecx+eax+156]
  0005a	83 fa 50	 cmp	 edx, 80			; 00000050H
  0005d	0f 85 60 02 00
	00		 jne	 $LN8@RegenDevil

; 448  : 		{	// 데블 리자드킹
; 449  : 			gObj[n].Live	= 1;

  00063	69 45 f8 a0 1b
	00 00		 imul	 eax, DWORD PTR _n$[ebp], 7072
  0006a	8b 0d 00 00 00
	00		 mov	 ecx, DWORD PTR ?gObj@@3PAVOBJECTSTRUCT@@A ; gObj
  00070	c6 44 01 66 01	 mov	 BYTE PTR [ecx+eax+102], 1

; 450  : 			
; 451  : 			MapNumber = MAP_INDEX_ATHLANSE;

  00075	c7 45 f4 07 00
	00 00		 mov	 DWORD PTR _MapNumber$[ebp], 7

; 452  : 
; 453  : 			gObj[n].MapNumber = MapNumber;

  0007c	69 45 f8 a0 1b
	00 00		 imul	 eax, DWORD PTR _n$[ebp], 7072
  00083	8b 0d 00 00 00
	00		 mov	 ecx, DWORD PTR ?gObj@@3PAVOBJECTSTRUCT@@A ; gObj
  00089	8a 55 f4	 mov	 dl, BYTE PTR _MapNumber$[ebp]
  0008c	88 94 01 09 01
	00 00		 mov	 BYTE PTR [ecx+eax+265], dl
$LN5@RegenDevil:

; 454  : 			while(!gMSetBase.GetBoxPosition(MapNumber, 50, 50, 200, 200, gObj[n].X,gObj[n].Y)){}

  00093	69 45 f8 a0 1b
	00 00		 imul	 eax, DWORD PTR _n$[ebp], 7072
  0009a	8b 0d 00 00 00
	00		 mov	 ecx, DWORD PTR ?gObj@@3PAVOBJECTSTRUCT@@A ; gObj
  000a0	8d 94 01 06 01
	00 00		 lea	 edx, DWORD PTR [ecx+eax+262]
  000a7	52		 push	 edx
  000a8	69 45 f8 a0 1b
	00 00		 imul	 eax, DWORD PTR _n$[ebp], 7072
  000af	8b 0d 00 00 00
	00		 mov	 ecx, DWORD PTR ?gObj@@3PAVOBJECTSTRUCT@@A ; gObj
  000b5	8d 94 01 04 01
	00 00		 lea	 edx, DWORD PTR [ecx+eax+260]
  000bc	52		 push	 edx
  000bd	68 c8 00 00 00	 push	 200			; 000000c8H
  000c2	68 c8 00 00 00	 push	 200			; 000000c8H
  000c7	6a 32		 push	 50			; 00000032H
  000c9	6a 32		 push	 50			; 00000032H
  000cb	8b 45 f4	 mov	 eax, DWORD PTR _MapNumber$[ebp]
  000ce	50		 push	 eax
  000cf	b9 00 00 00 00	 mov	 ecx, OFFSET ?gMSetBase@@3VCMonsterSetBase@@A ; gMSetBase
  000d4	e8 00 00 00 00	 call	 ?GetBoxPosition@CMonsterSetBase@@QAEHHHHHHAAF0@Z ; CMonsterSetBase::GetBoxPosition
  000d9	85 c0		 test	 eax, eax
  000db	75 02		 jne	 SHORT $LN6@RegenDevil
  000dd	eb b4		 jmp	 SHORT $LN5@RegenDevil
$LN6@RegenDevil:

; 455  : 
; 456  : 			m_BossDevilLizardKingMapNumber = gObj[n].MapNumber;		// 

  000df	69 45 f8 a0 1b
	00 00		 imul	 eax, DWORD PTR _n$[ebp], 7072
  000e6	8b 0d 00 00 00
	00		 mov	 ecx, DWORD PTR ?gObj@@3PAVOBJECTSTRUCT@@A ; gObj
  000ec	0f b6 94 01 09
	01 00 00	 movzx	 edx, BYTE PTR [ecx+eax+265]
  000f4	8b 45 fc	 mov	 eax, DWORD PTR _this$[ebp]
  000f7	89 50 28	 mov	 DWORD PTR [eax+40], edx

; 457  : 			m_BossDevilLizardKingMapX = gObj[n].X;

  000fa	69 45 f8 a0 1b
	00 00		 imul	 eax, DWORD PTR _n$[ebp], 7072
  00101	8b 0d 00 00 00
	00		 mov	 ecx, DWORD PTR ?gObj@@3PAVOBJECTSTRUCT@@A ; gObj
  00107	0f bf 94 01 04
	01 00 00	 movsx	 edx, WORD PTR [ecx+eax+260]
  0010f	8b 45 fc	 mov	 eax, DWORD PTR _this$[ebp]
  00112	89 50 2c	 mov	 DWORD PTR [eax+44], edx

; 458  : 			m_BossDevilLizardKingMapY = gObj[n].Y;

  00115	69 45 f8 a0 1b
	00 00		 imul	 eax, DWORD PTR _n$[ebp], 7072
  0011c	8b 0d 00 00 00
	00		 mov	 ecx, DWORD PTR ?gObj@@3PAVOBJECTSTRUCT@@A ; gObj
  00122	0f bf 94 01 06
	01 00 00	 movsx	 edx, WORD PTR [ecx+eax+262]
  0012a	8b 45 fc	 mov	 eax, DWORD PTR _this$[ebp]
  0012d	89 50 30	 mov	 DWORD PTR [eax+48], edx

; 459  : 
; 460  : 			gObj[n].Life = gObj[n].MaxLife;			

  00130	69 45 f8 a0 1b
	00 00		 imul	 eax, DWORD PTR _n$[ebp], 7072
  00137	69 4d f8 a0 1b
	00 00		 imul	 ecx, DWORD PTR _n$[ebp], 7072
  0013e	8b 15 00 00 00
	00		 mov	 edx, DWORD PTR ?gObj@@3PAVOBJECTSTRUCT@@A ; gObj
  00144	8b 35 00 00 00
	00		 mov	 esi, DWORD PTR ?gObj@@3PAVOBJECTSTRUCT@@A ; gObj
  0014a	8b 84 06 c0 00
	00 00		 mov	 eax, DWORD PTR [esi+eax+192]
  00151	89 84 0a bc 00
	00 00		 mov	 DWORD PTR [edx+ecx+188], eax

; 461  : 			gObj[n].TX = gObj[n].X;

  00158	69 45 f8 a0 1b
	00 00		 imul	 eax, DWORD PTR _n$[ebp], 7072
  0015f	69 4d f8 a0 1b
	00 00		 imul	 ecx, DWORD PTR _n$[ebp], 7072
  00166	8b 15 00 00 00
	00		 mov	 edx, DWORD PTR ?gObj@@3PAVOBJECTSTRUCT@@A ; gObj
  0016c	8b 35 00 00 00
	00		 mov	 esi, DWORD PTR ?gObj@@3PAVOBJECTSTRUCT@@A ; gObj
  00172	66 8b 84 06 04
	01 00 00	 mov	 ax, WORD PTR [esi+eax+260]
  0017a	66 89 84 0a 20
	01 00 00	 mov	 WORD PTR [edx+ecx+288], ax

; 462  : 			gObj[n].TY = gObj[n].Y;

  00182	69 45 f8 a0 1b
	00 00		 imul	 eax, DWORD PTR _n$[ebp], 7072
  00189	69 4d f8 a0 1b
	00 00		 imul	 ecx, DWORD PTR _n$[ebp], 7072
  00190	8b 15 00 00 00
	00		 mov	 edx, DWORD PTR ?gObj@@3PAVOBJECTSTRUCT@@A ; gObj
  00196	8b 35 00 00 00
	00		 mov	 esi, DWORD PTR ?gObj@@3PAVOBJECTSTRUCT@@A ; gObj
  0019c	66 8b 84 06 06
	01 00 00	 mov	 ax, WORD PTR [esi+eax+262]
  001a4	66 89 84 0a 22
	01 00 00	 mov	 WORD PTR [edx+ecx+290], ax

; 463  : 			gObj[n].MTX = gObj[n].X;

  001ac	69 45 f8 a0 1b
	00 00		 imul	 eax, DWORD PTR _n$[ebp], 7072
  001b3	69 4d f8 a0 1b
	00 00		 imul	 ecx, DWORD PTR _n$[ebp], 7072
  001ba	8b 15 00 00 00
	00		 mov	 edx, DWORD PTR ?gObj@@3PAVOBJECTSTRUCT@@A ; gObj
  001c0	8b 35 00 00 00
	00		 mov	 esi, DWORD PTR ?gObj@@3PAVOBJECTSTRUCT@@A ; gObj
  001c6	66 8b 84 06 04
	01 00 00	 mov	 ax, WORD PTR [esi+eax+260]
  001ce	66 89 84 0a 24
	01 00 00	 mov	 WORD PTR [edx+ecx+292], ax

; 464  : 			gObj[n].MTY = gObj[n].Y;

  001d6	69 45 f8 a0 1b
	00 00		 imul	 eax, DWORD PTR _n$[ebp], 7072
  001dd	69 4d f8 a0 1b
	00 00		 imul	 ecx, DWORD PTR _n$[ebp], 7072
  001e4	8b 15 00 00 00
	00		 mov	 edx, DWORD PTR ?gObj@@3PAVOBJECTSTRUCT@@A ; gObj
  001ea	8b 35 00 00 00
	00		 mov	 esi, DWORD PTR ?gObj@@3PAVOBJECTSTRUCT@@A ; gObj
  001f0	66 8b 84 06 06
	01 00 00	 mov	 ax, WORD PTR [esi+eax+262]
  001f8	66 89 84 0a 26
	01 00 00	 mov	 WORD PTR [edx+ecx+294], ax

; 465  : 			gObj[n].StartX = (BYTE)gObj[n].X;

  00200	69 45 f8 a0 1b
	00 00		 imul	 eax, DWORD PTR _n$[ebp], 7072
  00207	69 4d f8 a0 1b
	00 00		 imul	 ecx, DWORD PTR _n$[ebp], 7072
  0020e	8b 15 00 00 00
	00		 mov	 edx, DWORD PTR ?gObj@@3PAVOBJECTSTRUCT@@A ; gObj
  00214	8b 35 00 00 00
	00		 mov	 esi, DWORD PTR ?gObj@@3PAVOBJECTSTRUCT@@A ; gObj
  0021a	8a 84 06 04 01
	00 00		 mov	 al, BYTE PTR [esi+eax+260]
  00221	88 84 0a 1a 01
	00 00		 mov	 BYTE PTR [edx+ecx+282], al

; 466  : 			gObj[n].StartY = (BYTE)gObj[n].Y;

  00228	69 45 f8 a0 1b
	00 00		 imul	 eax, DWORD PTR _n$[ebp], 7072
  0022f	69 4d f8 a0 1b
	00 00		 imul	 ecx, DWORD PTR _n$[ebp], 7072
  00236	8b 15 00 00 00
	00		 mov	 edx, DWORD PTR ?gObj@@3PAVOBJECTSTRUCT@@A ; gObj
  0023c	8b 35 00 00 00
	00		 mov	 esi, DWORD PTR ?gObj@@3PAVOBJECTSTRUCT@@A ; gObj
  00242	8a 84 06 06 01
	00 00		 mov	 al, BYTE PTR [esi+eax+262]
  00249	88 84 0a 1b 01
	00 00		 mov	 BYTE PTR [edx+ecx+283], al

; 467  : 
; 468  : 			gObj[n].m_State	= OBJST_CREATE;

  00250	69 45 f8 a0 1b
	00 00		 imul	 eax, DWORD PTR _n$[ebp], 7072
  00257	8b 0d 00 00 00
	00		 mov	 ecx, DWORD PTR ?gObj@@3PAVOBJECTSTRUCT@@A ; gObj
  0025d	c7 84 01 b8 01
	00 00 01 00 00
	00		 mov	 DWORD PTR [ecx+eax+440], 1

; 469  : 			gObj[n].PathCount = 0;			

  00268	69 45 f8 a0 1b
	00 00		 imul	 eax, DWORD PTR _n$[ebp], 7072
  0026f	8b 0d 00 00 00
	00		 mov	 ecx, DWORD PTR ?gObj@@3PAVOBJECTSTRUCT@@A ; gObj
  00275	c7 84 01 28 01
	00 00 00 00 00
	00		 mov	 DWORD PTR [ecx+eax+296], 0

; 470  : 
; 471  : 			LogAddTD("Make GoldLizarKing : %d, %d,%d", MapNumber, gObj[n].X, gObj[n].Y);

  00280	69 45 f8 a0 1b
	00 00		 imul	 eax, DWORD PTR _n$[ebp], 7072
  00287	8b 0d 00 00 00
	00		 mov	 ecx, DWORD PTR ?gObj@@3PAVOBJECTSTRUCT@@A ; gObj
  0028d	0f bf 94 01 06
	01 00 00	 movsx	 edx, WORD PTR [ecx+eax+262]
  00295	52		 push	 edx
  00296	69 45 f8 a0 1b
	00 00		 imul	 eax, DWORD PTR _n$[ebp], 7072
  0029d	8b 0d 00 00 00
	00		 mov	 ecx, DWORD PTR ?gObj@@3PAVOBJECTSTRUCT@@A ; gObj
  002a3	0f bf 94 01 04
	01 00 00	 movsx	 edx, WORD PTR [ecx+eax+260]
  002ab	52		 push	 edx
  002ac	8b 45 f4	 mov	 eax, DWORD PTR _MapNumber$[ebp]
  002af	50		 push	 eax
  002b0	68 00 00 00 00	 push	 OFFSET ??_C@_0BP@HMGNFLDB@Make?5GoldLizarKing?5?3?5?$CFd?0?5?$CFd?0?$CFd@
  002b5	ff 15 00 00 00
	00		 call	 DWORD PTR ?LogAddTD@@3P6AXPADZZA ; LogAddTD
  002bb	83 c4 10	 add	 esp, 16			; 00000010H

; 472  : 
; 473  : #if TESTSERVER == 1
; 474  : #ifndef FOR_ONAIR
; 475  : 			char msg[255];
; 476  : 			wsprintf(msg,"데블 리자드킹 : %d, %d,%d", MapNumber, gObj[n].X, gObj[n].Y);
; 477  : 			AllSendServerMsg(msg);
; 478  : #endif
; 479  : #endif
; 480  : 		}

  002be	e9 00 02 00 00	 jmp	 $LN10@RegenDevil
$LN8@RegenDevil:

; 481  : 		else if( gObj[n].Class == 81 )

  002c3	69 45 f8 a0 1b
	00 00		 imul	 eax, DWORD PTR _n$[ebp], 7072
  002ca	8b 0d 00 00 00
	00		 mov	 ecx, DWORD PTR ?gObj@@3PAVOBJECTSTRUCT@@A ; gObj
  002d0	0f b7 94 01 9c
	00 00 00	 movzx	 edx, WORD PTR [ecx+eax+156]
  002d8	83 fa 51	 cmp	 edx, 81			; 00000051H
  002db	0f 85 e2 01 00
	00		 jne	 $LN10@RegenDevil

; 482  : 		{	// 이블 베파르
; 483  : 			gObj[n].Live	= 1;

  002e1	69 45 f8 a0 1b
	00 00		 imul	 eax, DWORD PTR _n$[ebp], 7072
  002e8	8b 0d 00 00 00
	00		 mov	 ecx, DWORD PTR ?gObj@@3PAVOBJECTSTRUCT@@A ; gObj
  002ee	c6 44 01 66 01	 mov	 BYTE PTR [ecx+eax+102], 1

; 484  : 
; 485  : 			MapNumber = m_BossDevilLizardKingMapNumber;

  002f3	8b 45 fc	 mov	 eax, DWORD PTR _this$[ebp]
  002f6	8b 48 28	 mov	 ecx, DWORD PTR [eax+40]
  002f9	89 4d f4	 mov	 DWORD PTR _MapNumber$[ebp], ecx

; 486  : 			gObj[n].MapNumber = MapNumber;

  002fc	69 45 f8 a0 1b
	00 00		 imul	 eax, DWORD PTR _n$[ebp], 7072
  00303	8b 0d 00 00 00
	00		 mov	 ecx, DWORD PTR ?gObj@@3PAVOBJECTSTRUCT@@A ; gObj
  00309	8a 55 f4	 mov	 dl, BYTE PTR _MapNumber$[ebp]
  0030c	88 94 01 09 01
	00 00		 mov	 BYTE PTR [ecx+eax+265], dl

; 487  : 			gMSetBase.GetBoxPosition(MapNumber, m_BossDevilLizardKingMapX-4, m_BossDevilLizardKingMapY-4, m_BossDevilLizardKingMapX+4, m_BossDevilLizardKingMapY+4, gObj[n].X,gObj[n].Y);

  00313	69 45 f8 a0 1b
	00 00		 imul	 eax, DWORD PTR _n$[ebp], 7072
  0031a	8b 0d 00 00 00
	00		 mov	 ecx, DWORD PTR ?gObj@@3PAVOBJECTSTRUCT@@A ; gObj
  00320	8d 94 01 06 01
	00 00		 lea	 edx, DWORD PTR [ecx+eax+262]
  00327	52		 push	 edx
  00328	69 45 f8 a0 1b
	00 00		 imul	 eax, DWORD PTR _n$[ebp], 7072
  0032f	8b 0d 00 00 00
	00		 mov	 ecx, DWORD PTR ?gObj@@3PAVOBJECTSTRUCT@@A ; gObj
  00335	8d 94 01 04 01
	00 00		 lea	 edx, DWORD PTR [ecx+eax+260]
  0033c	52		 push	 edx
  0033d	8b 45 fc	 mov	 eax, DWORD PTR _this$[ebp]
  00340	8b 48 30	 mov	 ecx, DWORD PTR [eax+48]
  00343	83 c1 04	 add	 ecx, 4
  00346	51		 push	 ecx
  00347	8b 55 fc	 mov	 edx, DWORD PTR _this$[ebp]
  0034a	8b 42 2c	 mov	 eax, DWORD PTR [edx+44]
  0034d	83 c0 04	 add	 eax, 4
  00350	50		 push	 eax
  00351	8b 4d fc	 mov	 ecx, DWORD PTR _this$[ebp]
  00354	8b 51 30	 mov	 edx, DWORD PTR [ecx+48]
  00357	83 ea 04	 sub	 edx, 4
  0035a	52		 push	 edx
  0035b	8b 45 fc	 mov	 eax, DWORD PTR _this$[ebp]
  0035e	8b 48 2c	 mov	 ecx, DWORD PTR [eax+44]
  00361	83 e9 04	 sub	 ecx, 4
  00364	51		 push	 ecx
  00365	8b 55 f4	 mov	 edx, DWORD PTR _MapNumber$[ebp]
  00368	52		 push	 edx
  00369	b9 00 00 00 00	 mov	 ecx, OFFSET ?gMSetBase@@3VCMonsterSetBase@@A ; gMSetBase
  0036e	e8 00 00 00 00	 call	 ?GetBoxPosition@CMonsterSetBase@@QAEHHHHHHAAF0@Z ; CMonsterSetBase::GetBoxPosition

; 488  : 
; 489  : 			gObj[n].Life = gObj[n].MaxLife;

  00373	69 45 f8 a0 1b
	00 00		 imul	 eax, DWORD PTR _n$[ebp], 7072
  0037a	69 4d f8 a0 1b
	00 00		 imul	 ecx, DWORD PTR _n$[ebp], 7072
  00381	8b 15 00 00 00
	00		 mov	 edx, DWORD PTR ?gObj@@3PAVOBJECTSTRUCT@@A ; gObj
  00387	8b 35 00 00 00
	00		 mov	 esi, DWORD PTR ?gObj@@3PAVOBJECTSTRUCT@@A ; gObj
  0038d	8b 84 06 c0 00
	00 00		 mov	 eax, DWORD PTR [esi+eax+192]
  00394	89 84 0a bc 00
	00 00		 mov	 DWORD PTR [edx+ecx+188], eax

; 490  : 			gObj[n].TX = gObj[n].X;

  0039b	69 45 f8 a0 1b
	00 00		 imul	 eax, DWORD PTR _n$[ebp], 7072
  003a2	69 4d f8 a0 1b
	00 00		 imul	 ecx, DWORD PTR _n$[ebp], 7072
  003a9	8b 15 00 00 00
	00		 mov	 edx, DWORD PTR ?gObj@@3PAVOBJECTSTRUCT@@A ; gObj
  003af	8b 35 00 00 00
	00		 mov	 esi, DWORD PTR ?gObj@@3PAVOBJECTSTRUCT@@A ; gObj
  003b5	66 8b 84 06 04
	01 00 00	 mov	 ax, WORD PTR [esi+eax+260]
  003bd	66 89 84 0a 20
	01 00 00	 mov	 WORD PTR [edx+ecx+288], ax

; 491  : 			gObj[n].TY = gObj[n].Y;

  003c5	69 45 f8 a0 1b
	00 00		 imul	 eax, DWORD PTR _n$[ebp], 7072
  003cc	69 4d f8 a0 1b
	00 00		 imul	 ecx, DWORD PTR _n$[ebp], 7072
  003d3	8b 15 00 00 00
	00		 mov	 edx, DWORD PTR ?gObj@@3PAVOBJECTSTRUCT@@A ; gObj
  003d9	8b 35 00 00 00
	00		 mov	 esi, DWORD PTR ?gObj@@3PAVOBJECTSTRUCT@@A ; gObj
  003df	66 8b 84 06 06
	01 00 00	 mov	 ax, WORD PTR [esi+eax+262]
  003e7	66 89 84 0a 22
	01 00 00	 mov	 WORD PTR [edx+ecx+290], ax

; 492  : 			gObj[n].MTX = gObj[n].X;

  003ef	69 45 f8 a0 1b
	00 00		 imul	 eax, DWORD PTR _n$[ebp], 7072
  003f6	69 4d f8 a0 1b
	00 00		 imul	 ecx, DWORD PTR _n$[ebp], 7072
  003fd	8b 15 00 00 00
	00		 mov	 edx, DWORD PTR ?gObj@@3PAVOBJECTSTRUCT@@A ; gObj
  00403	8b 35 00 00 00
	00		 mov	 esi, DWORD PTR ?gObj@@3PAVOBJECTSTRUCT@@A ; gObj
  00409	66 8b 84 06 04
	01 00 00	 mov	 ax, WORD PTR [esi+eax+260]
  00411	66 89 84 0a 24
	01 00 00	 mov	 WORD PTR [edx+ecx+292], ax

; 493  : 			gObj[n].MTY = gObj[n].Y;

  00419	69 45 f8 a0 1b
	00 00		 imul	 eax, DWORD PTR _n$[ebp], 7072
  00420	69 4d f8 a0 1b
	00 00		 imul	 ecx, DWORD PTR _n$[ebp], 7072
  00427	8b 15 00 00 00
	00		 mov	 edx, DWORD PTR ?gObj@@3PAVOBJECTSTRUCT@@A ; gObj
  0042d	8b 35 00 00 00
	00		 mov	 esi, DWORD PTR ?gObj@@3PAVOBJECTSTRUCT@@A ; gObj
  00433	66 8b 84 06 06
	01 00 00	 mov	 ax, WORD PTR [esi+eax+262]
  0043b	66 89 84 0a 26
	01 00 00	 mov	 WORD PTR [edx+ecx+294], ax

; 494  : 			gObj[n].StartX = (BYTE)gObj[n].X;

  00443	69 45 f8 a0 1b
	00 00		 imul	 eax, DWORD PTR _n$[ebp], 7072
  0044a	69 4d f8 a0 1b
	00 00		 imul	 ecx, DWORD PTR _n$[ebp], 7072
  00451	8b 15 00 00 00
	00		 mov	 edx, DWORD PTR ?gObj@@3PAVOBJECTSTRUCT@@A ; gObj
  00457	8b 35 00 00 00
	00		 mov	 esi, DWORD PTR ?gObj@@3PAVOBJECTSTRUCT@@A ; gObj
  0045d	8a 84 06 04 01
	00 00		 mov	 al, BYTE PTR [esi+eax+260]
  00464	88 84 0a 1a 01
	00 00		 mov	 BYTE PTR [edx+ecx+282], al

; 495  : 			gObj[n].StartY = (BYTE)gObj[n].Y;

  0046b	69 45 f8 a0 1b
	00 00		 imul	 eax, DWORD PTR _n$[ebp], 7072
  00472	69 4d f8 a0 1b
	00 00		 imul	 ecx, DWORD PTR _n$[ebp], 7072
  00479	8b 15 00 00 00
	00		 mov	 edx, DWORD PTR ?gObj@@3PAVOBJECTSTRUCT@@A ; gObj
  0047f	8b 35 00 00 00
	00		 mov	 esi, DWORD PTR ?gObj@@3PAVOBJECTSTRUCT@@A ; gObj
  00485	8a 84 06 06 01
	00 00		 mov	 al, BYTE PTR [esi+eax+262]
  0048c	88 84 0a 1b 01
	00 00		 mov	 BYTE PTR [edx+ecx+283], al

; 496  : 
; 497  : 			gObj[n].m_State	= OBJST_CREATE;

  00493	69 45 f8 a0 1b
	00 00		 imul	 eax, DWORD PTR _n$[ebp], 7072
  0049a	8b 0d 00 00 00
	00		 mov	 ecx, DWORD PTR ?gObj@@3PAVOBJECTSTRUCT@@A ; gObj
  004a0	c7 84 01 b8 01
	00 00 01 00 00
	00		 mov	 DWORD PTR [ecx+eax+440], 1

; 498  : 			gObj[n].PathCount = 0;			

  004ab	69 45 f8 a0 1b
	00 00		 imul	 eax, DWORD PTR _n$[ebp], 7072
  004b2	8b 0d 00 00 00
	00		 mov	 ecx, DWORD PTR ?gObj@@3PAVOBJECTSTRUCT@@A ; gObj
  004b8	c7 84 01 28 01
	00 00 00 00 00
	00		 mov	 DWORD PTR [ecx+eax+296], 0
$LN10@RegenDevil:

; 499  : 		}
; 500  : 	}

  004c3	e9 67 fb ff ff	 jmp	 $LN2@RegenDevil
$LN3@RegenDevil:

; 501  : }

  004c8	5f		 pop	 edi
  004c9	5e		 pop	 esi
  004ca	5b		 pop	 ebx
  004cb	8b e5		 mov	 esp, ebp
  004cd	5d		 pop	 ebp
  004ce	c3		 ret	 0
?RegenDevilLizardKing@CEledoradoEvent@@QAEXXZ ENDP	; CEledoradoEvent::RegenDevilLizardKing
_TEXT	ENDS
; Function compile flags: /Odtp /ZI
; File C:\Mu Online\Mu-GS-Webzen-MC-10093\GameServer\EledoradoEvent.cpp
;	COMDAT ?RegenGoldDercon@CEledoradoEvent@@QAEXXZ
_TEXT	SEGMENT
tv193 = -360						; size = 4
_szTemp$1 = -292					; size = 256
_count$ = -36						; size = 4
_SelMap$ = -32						; size = 4
_Map$ = -28						; size = 12
_MapNumber$ = -16					; size = 4
_n$ = -12						; size = 4
_this$ = -8						; size = 4
__$ArrayPad$ = -4					; size = 4
?RegenGoldDercon@CEledoradoEvent@@QAEXXZ PROC		; CEledoradoEvent::RegenGoldDercon, COMDAT
; _this$ = ecx

; 341  : {

  00000	55		 push	 ebp
  00001	8b ec		 mov	 ebp, esp
  00003	81 ec 68 01 00
	00		 sub	 esp, 360		; 00000168H
  00009	a1 00 00 00 00	 mov	 eax, DWORD PTR ___security_cookie
  0000e	33 c5		 xor	 eax, ebp
  00010	89 45 fc	 mov	 DWORD PTR __$ArrayPad$[ebp], eax
  00013	53		 push	 ebx
  00014	56		 push	 esi
  00015	57		 push	 edi
  00016	89 4d f8	 mov	 DWORD PTR _this$[ebp], ecx

; 342  : 	int n  = 0;

  00019	c7 45 f4 00 00
	00 00		 mov	 DWORD PTR _n$[ebp], 0

; 343  : 	int MapNumber = -1;

  00020	c7 45 f0 ff ff
	ff ff		 mov	 DWORD PTR _MapNumber$[ebp], -1

; 344  : 
; 345  : #ifdef ADD_GOLDEN_EVENT_RENEWAL_20090311
; 346  : 	int Map[2] = {MAP_INDEX_RORENCIA, MAP_INDEX_LOSTTOWER};
; 347  : #else
; 348  : 	int Map[3] = {MAP_INDEX_RORENCIA, MAP_INDEX_NORIA, MAP_INDEX_DEVIAS};

  00027	c7 45 e4 00 00
	00 00		 mov	 DWORD PTR _Map$[ebp], 0
  0002e	c7 45 e8 03 00
	00 00		 mov	 DWORD PTR _Map$[ebp+4], 3
  00035	c7 45 ec 02 00
	00 00		 mov	 DWORD PTR _Map$[ebp+8], 2

; 349  : #endif // ADD_GOLDEN_EVENT_RENEWAL_20090311
; 350  : 	int	SelMap = -1;

  0003c	c7 45 e0 ff ff
	ff ff		 mov	 DWORD PTR _SelMap$[ebp], -1

; 351  : 
; 352  : 	int count = 0;	

  00043	c7 45 dc 00 00
	00 00		 mov	 DWORD PTR _count$[ebp], 0

; 353  : 
; 354  : 
; 355  : 	CheckGoldDercon(MapNumber);

  0004a	8b 45 f0	 mov	 eax, DWORD PTR _MapNumber$[ebp]
  0004d	50		 push	 eax
  0004e	8b 4d f8	 mov	 ecx, DWORD PTR _this$[ebp]
  00051	e8 00 00 00 00	 call	 ?CheckGoldDercon@CEledoradoEvent@@QAEXH@Z ; CEledoradoEvent::CheckGoldDercon

; 356  : 
; 357  : 	for( n=0; n<MAX_MONSTER; n++)

  00056	c7 45 f4 00 00
	00 00		 mov	 DWORD PTR _n$[ebp], 0
  0005d	eb 09		 jmp	 SHORT $LN4@RegenGoldD
$LN2@RegenGoldD:
  0005f	8b 45 f4	 mov	 eax, DWORD PTR _n$[ebp]
  00062	83 c0 01	 add	 eax, 1
  00065	89 45 f4	 mov	 DWORD PTR _n$[ebp], eax
$LN4@RegenGoldD:
  00068	81 7d f4 a8 16
	00 00		 cmp	 DWORD PTR _n$[ebp], 5800 ; 000016a8H
  0006f	0f 8d 57 03 00
	00		 jge	 $LN3@RegenGoldD

; 358  : 	{		
; 359  : 		if( gObj[n].Class == 79 )

  00075	69 45 f4 a0 1b
	00 00		 imul	 eax, DWORD PTR _n$[ebp], 7072
  0007c	8b 0d 00 00 00
	00		 mov	 ecx, DWORD PTR ?gObj@@3PAVOBJECTSTRUCT@@A ; gObj
  00082	0f b7 94 01 9c
	00 00 00	 movzx	 edx, WORD PTR [ecx+eax+156]
  0008a	83 fa 4f	 cmp	 edx, 79			; 0000004fH
  0008d	0f 85 34 03 00
	00		 jne	 $LN9@RegenGoldD

; 360  : 		{	// 골드 데르콘
; 361  : 			gObj[n].Live	= 1;						

  00093	69 45 f4 a0 1b
	00 00		 imul	 eax, DWORD PTR _n$[ebp], 7072
  0009a	8b 0d 00 00 00
	00		 mov	 ecx, DWORD PTR ?gObj@@3PAVOBJECTSTRUCT@@A ; gObj
  000a0	c6 44 01 66 01	 mov	 BYTE PTR [ecx+eax+102], 1

; 362  : 
; 363  : 			if(SelMap == -1 )

  000a5	83 7d e0 ff	 cmp	 DWORD PTR _SelMap$[ebp], -1
  000a9	75 16		 jne	 SHORT $LN10@RegenGoldD

; 364  : 			{				
; 365  : #ifdef ADD_GOLDEN_EVENT_RENEWAL_20090311
; 366  : 				MapNumber = Map[rand()%2];
; 367  : #else
; 368  : 				MapNumber = Map[rand()%3];				

  000ab	e8 00 00 00 00	 call	 _rand
  000b0	99		 cdq
  000b1	b9 03 00 00 00	 mov	 ecx, 3
  000b6	f7 f9		 idiv	 ecx
  000b8	8b 54 95 e4	 mov	 edx, DWORD PTR _Map$[ebp+edx*4]
  000bc	89 55 f0	 mov	 DWORD PTR _MapNumber$[ebp], edx

; 369  : #endif
; 370  : 			}

  000bf	eb 06		 jmp	 SHORT $LN11@RegenGoldD
$LN10@RegenGoldD:

; 371  : 			else
; 372  : 			{
; 373  : 				MapNumber = SelMap;

  000c1	8b 45 e0	 mov	 eax, DWORD PTR _SelMap$[ebp]
  000c4	89 45 f0	 mov	 DWORD PTR _MapNumber$[ebp], eax
$LN11@RegenGoldD:

; 374  : 			}
; 375  : 
; 376  : 			gObj[n].MapNumber = MapNumber;

  000c7	69 45 f4 a0 1b
	00 00		 imul	 eax, DWORD PTR _n$[ebp], 7072
  000ce	8b 0d 00 00 00
	00		 mov	 ecx, DWORD PTR ?gObj@@3PAVOBJECTSTRUCT@@A ; gObj
  000d4	8a 55 f0	 mov	 dl, BYTE PTR _MapNumber$[ebp]
  000d7	88 94 01 09 01
	00 00		 mov	 BYTE PTR [ecx+eax+265], dl
$LN5@RegenGoldD:

; 377  : 			while(!gMSetBase.GetBoxPosition(MapNumber, 80, 80, 170, 170, gObj[n].X,gObj[n].Y)){}

  000de	69 45 f4 a0 1b
	00 00		 imul	 eax, DWORD PTR _n$[ebp], 7072
  000e5	8b 0d 00 00 00
	00		 mov	 ecx, DWORD PTR ?gObj@@3PAVOBJECTSTRUCT@@A ; gObj
  000eb	8d 94 01 06 01
	00 00		 lea	 edx, DWORD PTR [ecx+eax+262]
  000f2	52		 push	 edx
  000f3	69 45 f4 a0 1b
	00 00		 imul	 eax, DWORD PTR _n$[ebp], 7072
  000fa	8b 0d 00 00 00
	00		 mov	 ecx, DWORD PTR ?gObj@@3PAVOBJECTSTRUCT@@A ; gObj
  00100	8d 94 01 04 01
	00 00		 lea	 edx, DWORD PTR [ecx+eax+260]
  00107	52		 push	 edx
  00108	68 aa 00 00 00	 push	 170			; 000000aaH
  0010d	68 aa 00 00 00	 push	 170			; 000000aaH
  00112	6a 50		 push	 80			; 00000050H
  00114	6a 50		 push	 80			; 00000050H
  00116	8b 45 f0	 mov	 eax, DWORD PTR _MapNumber$[ebp]
  00119	50		 push	 eax
  0011a	b9 00 00 00 00	 mov	 ecx, OFFSET ?gMSetBase@@3VCMonsterSetBase@@A ; gMSetBase
  0011f	e8 00 00 00 00	 call	 ?GetBoxPosition@CMonsterSetBase@@QAEHHHHHHAAF0@Z ; CMonsterSetBase::GetBoxPosition
  00124	85 c0		 test	 eax, eax
  00126	75 02		 jne	 SHORT $LN6@RegenGoldD
  00128	eb b4		 jmp	 SHORT $LN5@RegenGoldD
$LN6@RegenGoldD:

; 378  : 			
; 379  : 			gObj[n].Life = gObj[n].MaxLife;

  0012a	69 45 f4 a0 1b
	00 00		 imul	 eax, DWORD PTR _n$[ebp], 7072
  00131	69 4d f4 a0 1b
	00 00		 imul	 ecx, DWORD PTR _n$[ebp], 7072
  00138	8b 15 00 00 00
	00		 mov	 edx, DWORD PTR ?gObj@@3PAVOBJECTSTRUCT@@A ; gObj
  0013e	8b 35 00 00 00
	00		 mov	 esi, DWORD PTR ?gObj@@3PAVOBJECTSTRUCT@@A ; gObj
  00144	8b 84 06 c0 00
	00 00		 mov	 eax, DWORD PTR [esi+eax+192]
  0014b	89 84 0a bc 00
	00 00		 mov	 DWORD PTR [edx+ecx+188], eax

; 380  : 			gObj[n].TX = gObj[n].X;

  00152	69 45 f4 a0 1b
	00 00		 imul	 eax, DWORD PTR _n$[ebp], 7072
  00159	69 4d f4 a0 1b
	00 00		 imul	 ecx, DWORD PTR _n$[ebp], 7072
  00160	8b 15 00 00 00
	00		 mov	 edx, DWORD PTR ?gObj@@3PAVOBJECTSTRUCT@@A ; gObj
  00166	8b 35 00 00 00
	00		 mov	 esi, DWORD PTR ?gObj@@3PAVOBJECTSTRUCT@@A ; gObj
  0016c	66 8b 84 06 04
	01 00 00	 mov	 ax, WORD PTR [esi+eax+260]
  00174	66 89 84 0a 20
	01 00 00	 mov	 WORD PTR [edx+ecx+288], ax

; 381  : 			gObj[n].TY = gObj[n].Y;

  0017c	69 45 f4 a0 1b
	00 00		 imul	 eax, DWORD PTR _n$[ebp], 7072
  00183	69 4d f4 a0 1b
	00 00		 imul	 ecx, DWORD PTR _n$[ebp], 7072
  0018a	8b 15 00 00 00
	00		 mov	 edx, DWORD PTR ?gObj@@3PAVOBJECTSTRUCT@@A ; gObj
  00190	8b 35 00 00 00
	00		 mov	 esi, DWORD PTR ?gObj@@3PAVOBJECTSTRUCT@@A ; gObj
  00196	66 8b 84 06 06
	01 00 00	 mov	 ax, WORD PTR [esi+eax+262]
  0019e	66 89 84 0a 22
	01 00 00	 mov	 WORD PTR [edx+ecx+290], ax

; 382  : 			gObj[n].MTX = gObj[n].X;

  001a6	69 45 f4 a0 1b
	00 00		 imul	 eax, DWORD PTR _n$[ebp], 7072
  001ad	69 4d f4 a0 1b
	00 00		 imul	 ecx, DWORD PTR _n$[ebp], 7072
  001b4	8b 15 00 00 00
	00		 mov	 edx, DWORD PTR ?gObj@@3PAVOBJECTSTRUCT@@A ; gObj
  001ba	8b 35 00 00 00
	00		 mov	 esi, DWORD PTR ?gObj@@3PAVOBJECTSTRUCT@@A ; gObj
  001c0	66 8b 84 06 04
	01 00 00	 mov	 ax, WORD PTR [esi+eax+260]
  001c8	66 89 84 0a 24
	01 00 00	 mov	 WORD PTR [edx+ecx+292], ax

; 383  : 			gObj[n].MTY = gObj[n].Y;

  001d0	69 45 f4 a0 1b
	00 00		 imul	 eax, DWORD PTR _n$[ebp], 7072
  001d7	69 4d f4 a0 1b
	00 00		 imul	 ecx, DWORD PTR _n$[ebp], 7072
  001de	8b 15 00 00 00
	00		 mov	 edx, DWORD PTR ?gObj@@3PAVOBJECTSTRUCT@@A ; gObj
  001e4	8b 35 00 00 00
	00		 mov	 esi, DWORD PTR ?gObj@@3PAVOBJECTSTRUCT@@A ; gObj
  001ea	66 8b 84 06 06
	01 00 00	 mov	 ax, WORD PTR [esi+eax+262]
  001f2	66 89 84 0a 26
	01 00 00	 mov	 WORD PTR [edx+ecx+294], ax

; 384  : 			gObj[n].StartX = (BYTE)gObj[n].X;

  001fa	69 45 f4 a0 1b
	00 00		 imul	 eax, DWORD PTR _n$[ebp], 7072
  00201	69 4d f4 a0 1b
	00 00		 imul	 ecx, DWORD PTR _n$[ebp], 7072
  00208	8b 15 00 00 00
	00		 mov	 edx, DWORD PTR ?gObj@@3PAVOBJECTSTRUCT@@A ; gObj
  0020e	8b 35 00 00 00
	00		 mov	 esi, DWORD PTR ?gObj@@3PAVOBJECTSTRUCT@@A ; gObj
  00214	8a 84 06 04 01
	00 00		 mov	 al, BYTE PTR [esi+eax+260]
  0021b	88 84 0a 1a 01
	00 00		 mov	 BYTE PTR [edx+ecx+282], al

; 385  : 			gObj[n].StartY = (BYTE)gObj[n].Y;

  00222	69 45 f4 a0 1b
	00 00		 imul	 eax, DWORD PTR _n$[ebp], 7072
  00229	69 4d f4 a0 1b
	00 00		 imul	 ecx, DWORD PTR _n$[ebp], 7072
  00230	8b 15 00 00 00
	00		 mov	 edx, DWORD PTR ?gObj@@3PAVOBJECTSTRUCT@@A ; gObj
  00236	8b 35 00 00 00
	00		 mov	 esi, DWORD PTR ?gObj@@3PAVOBJECTSTRUCT@@A ; gObj
  0023c	8a 84 06 06 01
	00 00		 mov	 al, BYTE PTR [esi+eax+262]
  00243	88 84 0a 1b 01
	00 00		 mov	 BYTE PTR [edx+ecx+283], al

; 386  : 
; 387  : 			gObj[n].m_State	= OBJST_CREATE;

  0024a	69 45 f4 a0 1b
	00 00		 imul	 eax, DWORD PTR _n$[ebp], 7072
  00251	8b 0d 00 00 00
	00		 mov	 ecx, DWORD PTR ?gObj@@3PAVOBJECTSTRUCT@@A ; gObj
  00257	c7 84 01 b8 01
	00 00 01 00 00
	00		 mov	 DWORD PTR [ecx+eax+440], 1

; 388  : 			gObj[n].PathCount = 0;			

  00262	69 45 f4 a0 1b
	00 00		 imul	 eax, DWORD PTR _n$[ebp], 7072
  00269	8b 0d 00 00 00
	00		 mov	 ecx, DWORD PTR ?gObj@@3PAVOBJECTSTRUCT@@A ; gObj
  0026f	c7 84 01 28 01
	00 00 00 00 00
	00		 mov	 DWORD PTR [ecx+eax+296], 0

; 389  : 
; 390  : 			LogAddTD("Make GoldDercon : %d, %d,%d", MapNumber, gObj[n].X, gObj[n].Y);

  0027a	69 45 f4 a0 1b
	00 00		 imul	 eax, DWORD PTR _n$[ebp], 7072
  00281	8b 0d 00 00 00
	00		 mov	 ecx, DWORD PTR ?gObj@@3PAVOBJECTSTRUCT@@A ; gObj
  00287	0f bf 94 01 06
	01 00 00	 movsx	 edx, WORD PTR [ecx+eax+262]
  0028f	52		 push	 edx
  00290	69 45 f4 a0 1b
	00 00		 imul	 eax, DWORD PTR _n$[ebp], 7072
  00297	8b 0d 00 00 00
	00		 mov	 ecx, DWORD PTR ?gObj@@3PAVOBJECTSTRUCT@@A ; gObj
  0029d	0f bf 94 01 04
	01 00 00	 movsx	 edx, WORD PTR [ecx+eax+260]
  002a5	52		 push	 edx
  002a6	8b 45 f0	 mov	 eax, DWORD PTR _MapNumber$[ebp]
  002a9	50		 push	 eax
  002aa	68 00 00 00 00	 push	 OFFSET ??_C@_0BM@ENHJDIJM@Make?5GoldDercon?5?3?5?$CFd?0?5?$CFd?0?$CFd@
  002af	ff 15 00 00 00
	00		 call	 DWORD PTR ?LogAddTD@@3P6AXPADZZA ; LogAddTD
  002b5	83 c4 10	 add	 esp, 16			; 00000010H

; 391  : 
; 392  : 			if( SelMap == -1 )

  002b8	83 7d e0 ff	 cmp	 DWORD PTR _SelMap$[ebp], -1
  002bc	0f 85 d2 00 00
	00		 jne	 $LN12@RegenGoldD

; 393  : 			{		
; 394  : 				char szTemp[256];
; 395  : #ifdef FOR_JAPAN
; 396  : 				strcpy(szTemp, " ");
; 397  : #else
; 398  : 				strcpy(szTemp, "☆ ");

  002c2	68 00 00 00 00	 push	 OFFSET ??_C@_03DMLAHEJO@?$KB?Y?5@
  002c7	8d 85 dc fe ff
	ff		 lea	 eax, DWORD PTR _szTemp$1[ebp]
  002cd	50		 push	 eax
  002ce	e8 00 00 00 00	 call	 _strcpy
  002d3	83 c4 08	 add	 esp, 8

; 399  : #endif
; 400  : 
; 401  : 				switch( MapNumber )

  002d6	8b 45 f0	 mov	 eax, DWORD PTR _MapNumber$[ebp]
  002d9	89 85 98 fe ff
	ff		 mov	 DWORD PTR tv193[ebp], eax
  002df	83 bd 98 fe ff
	ff 00		 cmp	 DWORD PTR tv193[ebp], 0
  002e6	74 14		 je	 SHORT $LN13@RegenGoldD
  002e8	83 bd 98 fe ff
	ff 02		 cmp	 DWORD PTR tv193[ebp], 2
  002ef	74 2d		 je	 SHORT $LN14@RegenGoldD
  002f1	83 bd 98 fe ff
	ff 03		 cmp	 DWORD PTR tv193[ebp], 3
  002f8	74 46		 je	 SHORT $LN15@RegenGoldD
  002fa	eb 64		 jmp	 SHORT $LN7@RegenGoldD
$LN13@RegenGoldD:

; 402  : 				{
; 403  : 				case 0 : strcat(szTemp, lMsg.Get(2000)); break;

  002fc	68 d0 07 00 00	 push	 2000			; 000007d0H
  00301	b9 00 00 00 00	 mov	 ecx, OFFSET ?lMsg@@3VCMsg@@A ; lMsg
  00306	ff 15 00 00 00
	00		 call	 DWORD PTR __imp_?Get@CMsg@@QAEPADH@Z
  0030c	50		 push	 eax
  0030d	8d 85 dc fe ff
	ff		 lea	 eax, DWORD PTR _szTemp$1[ebp]
  00313	50		 push	 eax
  00314	e8 00 00 00 00	 call	 _strcat
  00319	83 c4 08	 add	 esp, 8
  0031c	eb 42		 jmp	 SHORT $LN7@RegenGoldD
$LN14@RegenGoldD:

; 404  : 				case 2 : strcat(szTemp, lMsg.Get(2002)); break;

  0031e	68 d2 07 00 00	 push	 2002			; 000007d2H
  00323	b9 00 00 00 00	 mov	 ecx, OFFSET ?lMsg@@3VCMsg@@A ; lMsg
  00328	ff 15 00 00 00
	00		 call	 DWORD PTR __imp_?Get@CMsg@@QAEPADH@Z
  0032e	50		 push	 eax
  0032f	8d 85 dc fe ff
	ff		 lea	 eax, DWORD PTR _szTemp$1[ebp]
  00335	50		 push	 eax
  00336	e8 00 00 00 00	 call	 _strcat
  0033b	83 c4 08	 add	 esp, 8
  0033e	eb 20		 jmp	 SHORT $LN7@RegenGoldD
$LN15@RegenGoldD:

; 405  : 				case 3 : strcat(szTemp, lMsg.Get(2003)); break;

  00340	68 d3 07 00 00	 push	 2003			; 000007d3H
  00345	b9 00 00 00 00	 mov	 ecx, OFFSET ?lMsg@@3VCMsg@@A ; lMsg
  0034a	ff 15 00 00 00
	00		 call	 DWORD PTR __imp_?Get@CMsg@@QAEPADH@Z
  00350	50		 push	 eax
  00351	8d 85 dc fe ff
	ff		 lea	 eax, DWORD PTR _szTemp$1[ebp]
  00357	50		 push	 eax
  00358	e8 00 00 00 00	 call	 _strcat
  0035d	83 c4 08	 add	 esp, 8
$LN7@RegenGoldD:

; 406  : 				}
; 407  : 				
; 408  : 				strcat(szTemp, lMsg.Get(1158));

  00360	68 86 04 00 00	 push	 1158			; 00000486H
  00365	b9 00 00 00 00	 mov	 ecx, OFFSET ?lMsg@@3VCMsg@@A ; lMsg
  0036a	ff 15 00 00 00
	00		 call	 DWORD PTR __imp_?Get@CMsg@@QAEPADH@Z
  00370	50		 push	 eax
  00371	8d 85 dc fe ff
	ff		 lea	 eax, DWORD PTR _szTemp$1[ebp]
  00377	50		 push	 eax
  00378	e8 00 00 00 00	 call	 _strcat
  0037d	83 c4 08	 add	 esp, 8

; 409  : 
; 410  : 				//strcat(szTemp, " 황금데르콘 습격");
; 411  : #ifndef FOR_JAPAN
; 412  : 				strcat(szTemp, " ☆");

  00380	68 00 00 00 00	 push	 OFFSET ??_C@_03PGMJMGNM@?5?$KB?Y@
  00385	8d 85 dc fe ff
	ff		 lea	 eax, DWORD PTR _szTemp$1[ebp]
  0038b	50		 push	 eax
  0038c	e8 00 00 00 00	 call	 _strcat
  00391	83 c4 08	 add	 esp, 8
$LN12@RegenGoldD:

; 413  : #endif
; 414  : //				AllSendServerMsg(szTemp);
; 415  : 			}
; 416  : 
; 417  : 			m_BossGoldDerconMapNumber[count] = MapNumber;

  00394	8b 45 dc	 mov	 eax, DWORD PTR _count$[ebp]
  00397	8b 4d f8	 mov	 ecx, DWORD PTR _this$[ebp]
  0039a	8b 55 f0	 mov	 edx, DWORD PTR _MapNumber$[ebp]
  0039d	89 54 81 44	 mov	 DWORD PTR [ecx+eax*4+68], edx

; 418  : 			gObj[n].m_BossGoldDerconMapNumber = count;

  003a1	69 45 f4 a0 1b
	00 00		 imul	 eax, DWORD PTR _n$[ebp], 7072
  003a8	8b 0d 00 00 00
	00		 mov	 ecx, DWORD PTR ?gObj@@3PAVOBJECTSTRUCT@@A ; gObj
  003ae	8a 55 dc	 mov	 dl, BYTE PTR _count$[ebp]
  003b1	88 94 01 e7 0e
	00 00		 mov	 BYTE PTR [ecx+eax+3815], dl

; 419  : 			count++;		

  003b8	8b 45 dc	 mov	 eax, DWORD PTR _count$[ebp]
  003bb	83 c0 01	 add	 eax, 1
  003be	89 45 dc	 mov	 DWORD PTR _count$[ebp], eax

; 420  : 
; 421  : 			SelMap = MapNumber;

  003c1	8b 45 f0	 mov	 eax, DWORD PTR _MapNumber$[ebp]
  003c4	89 45 e0	 mov	 DWORD PTR _SelMap$[ebp], eax
$LN9@RegenGoldD:

; 422  : 
; 423  : #if TESTSERVER == 1
; 424  : #ifndef FOR_ONAIR
; 425  : 			char msg[255];
; 426  : 			wsprintf(msg,"골드 데르콘 : %d, %d,%d", MapNumber, gObj[n].X, gObj[n].Y);
; 427  : 			AllSendServerMsg(msg);
; 428  : #endif
; 429  : #endif
; 430  : 
; 431  : 		}
; 432  : 	}

  003c7	e9 93 fc ff ff	 jmp	 $LN2@RegenGoldD
$LN3@RegenGoldD:

; 433  : 
; 434  : 	CheckGoldDercon(MapNumber);

  003cc	8b 45 f0	 mov	 eax, DWORD PTR _MapNumber$[ebp]
  003cf	50		 push	 eax
  003d0	8b 4d f8	 mov	 ecx, DWORD PTR _this$[ebp]
  003d3	e8 00 00 00 00	 call	 ?CheckGoldDercon@CEledoradoEvent@@QAEXH@Z ; CEledoradoEvent::CheckGoldDercon

; 435  : }

  003d8	5f		 pop	 edi
  003d9	5e		 pop	 esi
  003da	5b		 pop	 ebx
  003db	8b 4d fc	 mov	 ecx, DWORD PTR __$ArrayPad$[ebp]
  003de	33 cd		 xor	 ecx, ebp
  003e0	e8 00 00 00 00	 call	 @__security_check_cookie@4
  003e5	8b e5		 mov	 esp, ebp
  003e7	5d		 pop	 ebp
  003e8	c3		 ret	 0
?RegenGoldDercon@CEledoradoEvent@@QAEXXZ ENDP		; CEledoradoEvent::RegenGoldDercon
_TEXT	ENDS
; Function compile flags: /Odtp /ZI
; File C:\Mu Online\Mu-GS-Webzen-MC-10093\GameServer\EledoradoEvent.cpp
;	COMDAT ?RegenTitan@CEledoradoEvent@@QAEXXZ
_TEXT	SEGMENT
_MapNumber$ = -12					; size = 4
_n$ = -8						; size = 4
_this$ = -4						; size = 4
?RegenTitan@CEledoradoEvent@@QAEXXZ PROC		; CEledoradoEvent::RegenTitan, COMDAT
; _this$ = ecx

; 273  : {

  00000	55		 push	 ebp
  00001	8b ec		 mov	 ebp, esp
  00003	83 ec 4c	 sub	 esp, 76			; 0000004cH
  00006	53		 push	 ebx
  00007	56		 push	 esi
  00008	57		 push	 edi
  00009	89 4d fc	 mov	 DWORD PTR _this$[ebp], ecx

; 274  : 	int n  = 0;

  0000c	c7 45 f8 00 00
	00 00		 mov	 DWORD PTR _n$[ebp], 0

; 275  : 	int MapNumber;
; 276  : 
; 277  : 	if(m_BossTitanMapNumber == -1)

  00013	8b 45 fc	 mov	 eax, DWORD PTR _this$[ebp]
  00016	83 78 1c ff	 cmp	 DWORD PTR [eax+28], -1
  0001a	75 0a		 jne	 SHORT $LN7@RegenTitan

; 278  : 		m_BossTitanMapNumber = MAP_INDEX_DEVIAS;

  0001c	8b 45 fc	 mov	 eax, DWORD PTR _this$[ebp]
  0001f	c7 40 1c 02 00
	00 00		 mov	 DWORD PTR [eax+28], 2
$LN7@RegenTitan:

; 279  : 
; 280  : 	for( n=0; n<MAX_MONSTER; n++)

  00026	c7 45 f8 00 00
	00 00		 mov	 DWORD PTR _n$[ebp], 0
  0002d	eb 09		 jmp	 SHORT $LN4@RegenTitan
$LN2@RegenTitan:
  0002f	8b 45 f8	 mov	 eax, DWORD PTR _n$[ebp]
  00032	83 c0 01	 add	 eax, 1
  00035	89 45 f8	 mov	 DWORD PTR _n$[ebp], eax
$LN4@RegenTitan:
  00038	81 7d f8 a8 16
	00 00		 cmp	 DWORD PTR _n$[ebp], 5800 ; 000016a8H
  0003f	0f 8d 83 04 00
	00		 jge	 $LN3@RegenTitan

; 281  : 	{		
; 282  : 		if( gObj[n].Class == 53 )

  00045	69 45 f8 a0 1b
	00 00		 imul	 eax, DWORD PTR _n$[ebp], 7072
  0004c	8b 0d 00 00 00
	00		 mov	 ecx, DWORD PTR ?gObj@@3PAVOBJECTSTRUCT@@A ; gObj
  00052	0f b7 94 01 9c
	00 00 00	 movzx	 edx, WORD PTR [ecx+eax+156]
  0005a	83 fa 35	 cmp	 edx, 53			; 00000035H
  0005d	0f 85 60 02 00
	00		 jne	 $LN8@RegenTitan

; 283  : 		{	// 타이탄
; 284  : 			gObj[n].Live	= 1;

  00063	69 45 f8 a0 1b
	00 00		 imul	 eax, DWORD PTR _n$[ebp], 7072
  0006a	8b 0d 00 00 00
	00		 mov	 ecx, DWORD PTR ?gObj@@3PAVOBJECTSTRUCT@@A ; gObj
  00070	c6 44 01 66 01	 mov	 BYTE PTR [ecx+eax+102], 1

; 285  : 			
; 286  : 			MapNumber = MAP_INDEX_DEVIAS;

  00075	c7 45 f4 02 00
	00 00		 mov	 DWORD PTR _MapNumber$[ebp], 2

; 287  : 
; 288  : 			gObj[n].MapNumber = MapNumber;

  0007c	69 45 f8 a0 1b
	00 00		 imul	 eax, DWORD PTR _n$[ebp], 7072
  00083	8b 0d 00 00 00
	00		 mov	 ecx, DWORD PTR ?gObj@@3PAVOBJECTSTRUCT@@A ; gObj
  00089	8a 55 f4	 mov	 dl, BYTE PTR _MapNumber$[ebp]
  0008c	88 94 01 09 01
	00 00		 mov	 BYTE PTR [ecx+eax+265], dl
$LN5@RegenTitan:

; 289  : 			while(!gMSetBase.GetBoxPosition(MapNumber, 50, 50, 200, 200, gObj[n].X,gObj[n].Y)){}

  00093	69 45 f8 a0 1b
	00 00		 imul	 eax, DWORD PTR _n$[ebp], 7072
  0009a	8b 0d 00 00 00
	00		 mov	 ecx, DWORD PTR ?gObj@@3PAVOBJECTSTRUCT@@A ; gObj
  000a0	8d 94 01 06 01
	00 00		 lea	 edx, DWORD PTR [ecx+eax+262]
  000a7	52		 push	 edx
  000a8	69 45 f8 a0 1b
	00 00		 imul	 eax, DWORD PTR _n$[ebp], 7072
  000af	8b 0d 00 00 00
	00		 mov	 ecx, DWORD PTR ?gObj@@3PAVOBJECTSTRUCT@@A ; gObj
  000b5	8d 94 01 04 01
	00 00		 lea	 edx, DWORD PTR [ecx+eax+260]
  000bc	52		 push	 edx
  000bd	68 c8 00 00 00	 push	 200			; 000000c8H
  000c2	68 c8 00 00 00	 push	 200			; 000000c8H
  000c7	6a 32		 push	 50			; 00000032H
  000c9	6a 32		 push	 50			; 00000032H
  000cb	8b 45 f4	 mov	 eax, DWORD PTR _MapNumber$[ebp]
  000ce	50		 push	 eax
  000cf	b9 00 00 00 00	 mov	 ecx, OFFSET ?gMSetBase@@3VCMonsterSetBase@@A ; gMSetBase
  000d4	e8 00 00 00 00	 call	 ?GetBoxPosition@CMonsterSetBase@@QAEHHHHHHAAF0@Z ; CMonsterSetBase::GetBoxPosition
  000d9	85 c0		 test	 eax, eax
  000db	75 02		 jne	 SHORT $LN6@RegenTitan
  000dd	eb b4		 jmp	 SHORT $LN5@RegenTitan
$LN6@RegenTitan:

; 290  : 
; 291  : 			m_BossTitanMapNumber = gObj[n].MapNumber;		// 

  000df	69 45 f8 a0 1b
	00 00		 imul	 eax, DWORD PTR _n$[ebp], 7072
  000e6	8b 0d 00 00 00
	00		 mov	 ecx, DWORD PTR ?gObj@@3PAVOBJECTSTRUCT@@A ; gObj
  000ec	0f b6 94 01 09
	01 00 00	 movzx	 edx, BYTE PTR [ecx+eax+265]
  000f4	8b 45 fc	 mov	 eax, DWORD PTR _this$[ebp]
  000f7	89 50 1c	 mov	 DWORD PTR [eax+28], edx

; 292  : 			m_BossTitanMapX = gObj[n].X;

  000fa	69 45 f8 a0 1b
	00 00		 imul	 eax, DWORD PTR _n$[ebp], 7072
  00101	8b 0d 00 00 00
	00		 mov	 ecx, DWORD PTR ?gObj@@3PAVOBJECTSTRUCT@@A ; gObj
  00107	0f bf 94 01 04
	01 00 00	 movsx	 edx, WORD PTR [ecx+eax+260]
  0010f	8b 45 fc	 mov	 eax, DWORD PTR _this$[ebp]
  00112	89 50 20	 mov	 DWORD PTR [eax+32], edx

; 293  : 			m_BossTitanMapY = gObj[n].Y;

  00115	69 45 f8 a0 1b
	00 00		 imul	 eax, DWORD PTR _n$[ebp], 7072
  0011c	8b 0d 00 00 00
	00		 mov	 ecx, DWORD PTR ?gObj@@3PAVOBJECTSTRUCT@@A ; gObj
  00122	0f bf 94 01 06
	01 00 00	 movsx	 edx, WORD PTR [ecx+eax+262]
  0012a	8b 45 fc	 mov	 eax, DWORD PTR _this$[ebp]
  0012d	89 50 24	 mov	 DWORD PTR [eax+36], edx

; 294  : 
; 295  : 			
; 296  : 			gObj[n].Life = gObj[n].MaxLife;

  00130	69 45 f8 a0 1b
	00 00		 imul	 eax, DWORD PTR _n$[ebp], 7072
  00137	69 4d f8 a0 1b
	00 00		 imul	 ecx, DWORD PTR _n$[ebp], 7072
  0013e	8b 15 00 00 00
	00		 mov	 edx, DWORD PTR ?gObj@@3PAVOBJECTSTRUCT@@A ; gObj
  00144	8b 35 00 00 00
	00		 mov	 esi, DWORD PTR ?gObj@@3PAVOBJECTSTRUCT@@A ; gObj
  0014a	8b 84 06 c0 00
	00 00		 mov	 eax, DWORD PTR [esi+eax+192]
  00151	89 84 0a bc 00
	00 00		 mov	 DWORD PTR [edx+ecx+188], eax

; 297  : 			gObj[n].TX = gObj[n].X;

  00158	69 45 f8 a0 1b
	00 00		 imul	 eax, DWORD PTR _n$[ebp], 7072
  0015f	69 4d f8 a0 1b
	00 00		 imul	 ecx, DWORD PTR _n$[ebp], 7072
  00166	8b 15 00 00 00
	00		 mov	 edx, DWORD PTR ?gObj@@3PAVOBJECTSTRUCT@@A ; gObj
  0016c	8b 35 00 00 00
	00		 mov	 esi, DWORD PTR ?gObj@@3PAVOBJECTSTRUCT@@A ; gObj
  00172	66 8b 84 06 04
	01 00 00	 mov	 ax, WORD PTR [esi+eax+260]
  0017a	66 89 84 0a 20
	01 00 00	 mov	 WORD PTR [edx+ecx+288], ax

; 298  : 			gObj[n].TY = gObj[n].Y;

  00182	69 45 f8 a0 1b
	00 00		 imul	 eax, DWORD PTR _n$[ebp], 7072
  00189	69 4d f8 a0 1b
	00 00		 imul	 ecx, DWORD PTR _n$[ebp], 7072
  00190	8b 15 00 00 00
	00		 mov	 edx, DWORD PTR ?gObj@@3PAVOBJECTSTRUCT@@A ; gObj
  00196	8b 35 00 00 00
	00		 mov	 esi, DWORD PTR ?gObj@@3PAVOBJECTSTRUCT@@A ; gObj
  0019c	66 8b 84 06 06
	01 00 00	 mov	 ax, WORD PTR [esi+eax+262]
  001a4	66 89 84 0a 22
	01 00 00	 mov	 WORD PTR [edx+ecx+290], ax

; 299  : 			gObj[n].MTX = gObj[n].X;

  001ac	69 45 f8 a0 1b
	00 00		 imul	 eax, DWORD PTR _n$[ebp], 7072
  001b3	69 4d f8 a0 1b
	00 00		 imul	 ecx, DWORD PTR _n$[ebp], 7072
  001ba	8b 15 00 00 00
	00		 mov	 edx, DWORD PTR ?gObj@@3PAVOBJECTSTRUCT@@A ; gObj
  001c0	8b 35 00 00 00
	00		 mov	 esi, DWORD PTR ?gObj@@3PAVOBJECTSTRUCT@@A ; gObj
  001c6	66 8b 84 06 04
	01 00 00	 mov	 ax, WORD PTR [esi+eax+260]
  001ce	66 89 84 0a 24
	01 00 00	 mov	 WORD PTR [edx+ecx+292], ax

; 300  : 			gObj[n].MTY = gObj[n].Y;

  001d6	69 45 f8 a0 1b
	00 00		 imul	 eax, DWORD PTR _n$[ebp], 7072
  001dd	69 4d f8 a0 1b
	00 00		 imul	 ecx, DWORD PTR _n$[ebp], 7072
  001e4	8b 15 00 00 00
	00		 mov	 edx, DWORD PTR ?gObj@@3PAVOBJECTSTRUCT@@A ; gObj
  001ea	8b 35 00 00 00
	00		 mov	 esi, DWORD PTR ?gObj@@3PAVOBJECTSTRUCT@@A ; gObj
  001f0	66 8b 84 06 06
	01 00 00	 mov	 ax, WORD PTR [esi+eax+262]
  001f8	66 89 84 0a 26
	01 00 00	 mov	 WORD PTR [edx+ecx+294], ax

; 301  : 			gObj[n].StartX = (BYTE)gObj[n].X;

  00200	69 45 f8 a0 1b
	00 00		 imul	 eax, DWORD PTR _n$[ebp], 7072
  00207	69 4d f8 a0 1b
	00 00		 imul	 ecx, DWORD PTR _n$[ebp], 7072
  0020e	8b 15 00 00 00
	00		 mov	 edx, DWORD PTR ?gObj@@3PAVOBJECTSTRUCT@@A ; gObj
  00214	8b 35 00 00 00
	00		 mov	 esi, DWORD PTR ?gObj@@3PAVOBJECTSTRUCT@@A ; gObj
  0021a	8a 84 06 04 01
	00 00		 mov	 al, BYTE PTR [esi+eax+260]
  00221	88 84 0a 1a 01
	00 00		 mov	 BYTE PTR [edx+ecx+282], al

; 302  : 			gObj[n].StartY = (BYTE)gObj[n].Y;

  00228	69 45 f8 a0 1b
	00 00		 imul	 eax, DWORD PTR _n$[ebp], 7072
  0022f	69 4d f8 a0 1b
	00 00		 imul	 ecx, DWORD PTR _n$[ebp], 7072
  00236	8b 15 00 00 00
	00		 mov	 edx, DWORD PTR ?gObj@@3PAVOBJECTSTRUCT@@A ; gObj
  0023c	8b 35 00 00 00
	00		 mov	 esi, DWORD PTR ?gObj@@3PAVOBJECTSTRUCT@@A ; gObj
  00242	8a 84 06 06 01
	00 00		 mov	 al, BYTE PTR [esi+eax+262]
  00249	88 84 0a 1b 01
	00 00		 mov	 BYTE PTR [edx+ecx+283], al

; 303  : 
; 304  : 			gObj[n].m_State	= OBJST_CREATE;

  00250	69 45 f8 a0 1b
	00 00		 imul	 eax, DWORD PTR _n$[ebp], 7072
  00257	8b 0d 00 00 00
	00		 mov	 ecx, DWORD PTR ?gObj@@3PAVOBJECTSTRUCT@@A ; gObj
  0025d	c7 84 01 b8 01
	00 00 01 00 00
	00		 mov	 DWORD PTR [ecx+eax+440], 1

; 305  : 			gObj[n].PathCount = 0;			

  00268	69 45 f8 a0 1b
	00 00		 imul	 eax, DWORD PTR _n$[ebp], 7072
  0026f	8b 0d 00 00 00
	00		 mov	 ecx, DWORD PTR ?gObj@@3PAVOBJECTSTRUCT@@A ; gObj
  00275	c7 84 01 28 01
	00 00 00 00 00
	00		 mov	 DWORD PTR [ecx+eax+296], 0

; 306  : 
; 307  : 			LogAddTD("Make GoldTaitan : %d, %d,%d", MapNumber, gObj[n].X, gObj[n].Y);

  00280	69 45 f8 a0 1b
	00 00		 imul	 eax, DWORD PTR _n$[ebp], 7072
  00287	8b 0d 00 00 00
	00		 mov	 ecx, DWORD PTR ?gObj@@3PAVOBJECTSTRUCT@@A ; gObj
  0028d	0f bf 94 01 06
	01 00 00	 movsx	 edx, WORD PTR [ecx+eax+262]
  00295	52		 push	 edx
  00296	69 45 f8 a0 1b
	00 00		 imul	 eax, DWORD PTR _n$[ebp], 7072
  0029d	8b 0d 00 00 00
	00		 mov	 ecx, DWORD PTR ?gObj@@3PAVOBJECTSTRUCT@@A ; gObj
  002a3	0f bf 94 01 04
	01 00 00	 movsx	 edx, WORD PTR [ecx+eax+260]
  002ab	52		 push	 edx
  002ac	8b 45 f4	 mov	 eax, DWORD PTR _MapNumber$[ebp]
  002af	50		 push	 eax
  002b0	68 00 00 00 00	 push	 OFFSET ??_C@_0BM@BOFIHGJ@Make?5GoldTaitan?5?3?5?$CFd?0?5?$CFd?0?$CFd@
  002b5	ff 15 00 00 00
	00		 call	 DWORD PTR ?LogAddTD@@3P6AXPADZZA ; LogAddTD
  002bb	83 c4 10	 add	 esp, 16			; 00000010H

; 308  : 
; 309  : #if TESTSERVER == 1
; 310  : #ifndef FOR_ONAIR
; 311  : 			char msg[255];
; 312  : 			wsprintf(msg,"타이탄 : %d, %d,%d", MapNumber, gObj[n].X, gObj[n].Y);
; 313  : 			AllSendServerMsg(msg);
; 314  : #endif
; 315  : #endif
; 316  : 
; 317  : 		}

  002be	e9 00 02 00 00	 jmp	 $LN10@RegenTitan
$LN8@RegenTitan:

; 318  : 		else if( gObj[n].Class == 54 )

  002c3	69 45 f8 a0 1b
	00 00		 imul	 eax, DWORD PTR _n$[ebp], 7072
  002ca	8b 0d 00 00 00
	00		 mov	 ecx, DWORD PTR ?gObj@@3PAVOBJECTSTRUCT@@A ; gObj
  002d0	0f b7 94 01 9c
	00 00 00	 movzx	 edx, WORD PTR [ecx+eax+156]
  002d8	83 fa 36	 cmp	 edx, 54			; 00000036H
  002db	0f 85 e2 01 00
	00		 jne	 $LN10@RegenTitan

; 319  : 		{	// 솔저
; 320  : 			gObj[n].Live	= 1;

  002e1	69 45 f8 a0 1b
	00 00		 imul	 eax, DWORD PTR _n$[ebp], 7072
  002e8	8b 0d 00 00 00
	00		 mov	 ecx, DWORD PTR ?gObj@@3PAVOBJECTSTRUCT@@A ; gObj
  002ee	c6 44 01 66 01	 mov	 BYTE PTR [ecx+eax+102], 1

; 321  : 
; 322  : 			MapNumber = m_BossTitanMapNumber;

  002f3	8b 45 fc	 mov	 eax, DWORD PTR _this$[ebp]
  002f6	8b 48 1c	 mov	 ecx, DWORD PTR [eax+28]
  002f9	89 4d f4	 mov	 DWORD PTR _MapNumber$[ebp], ecx

; 323  : 			gObj[n].MapNumber = MapNumber;

  002fc	69 45 f8 a0 1b
	00 00		 imul	 eax, DWORD PTR _n$[ebp], 7072
  00303	8b 0d 00 00 00
	00		 mov	 ecx, DWORD PTR ?gObj@@3PAVOBJECTSTRUCT@@A ; gObj
  00309	8a 55 f4	 mov	 dl, BYTE PTR _MapNumber$[ebp]
  0030c	88 94 01 09 01
	00 00		 mov	 BYTE PTR [ecx+eax+265], dl

; 324  : 			gMSetBase.GetBoxPosition(MapNumber, m_BossTitanMapX-4, m_BossTitanMapY-4, m_BossTitanMapX+4, m_BossTitanMapY+4, gObj[n].X,gObj[n].Y);

  00313	69 45 f8 a0 1b
	00 00		 imul	 eax, DWORD PTR _n$[ebp], 7072
  0031a	8b 0d 00 00 00
	00		 mov	 ecx, DWORD PTR ?gObj@@3PAVOBJECTSTRUCT@@A ; gObj
  00320	8d 94 01 06 01
	00 00		 lea	 edx, DWORD PTR [ecx+eax+262]
  00327	52		 push	 edx
  00328	69 45 f8 a0 1b
	00 00		 imul	 eax, DWORD PTR _n$[ebp], 7072
  0032f	8b 0d 00 00 00
	00		 mov	 ecx, DWORD PTR ?gObj@@3PAVOBJECTSTRUCT@@A ; gObj
  00335	8d 94 01 04 01
	00 00		 lea	 edx, DWORD PTR [ecx+eax+260]
  0033c	52		 push	 edx
  0033d	8b 45 fc	 mov	 eax, DWORD PTR _this$[ebp]
  00340	8b 48 24	 mov	 ecx, DWORD PTR [eax+36]
  00343	83 c1 04	 add	 ecx, 4
  00346	51		 push	 ecx
  00347	8b 55 fc	 mov	 edx, DWORD PTR _this$[ebp]
  0034a	8b 42 20	 mov	 eax, DWORD PTR [edx+32]
  0034d	83 c0 04	 add	 eax, 4
  00350	50		 push	 eax
  00351	8b 4d fc	 mov	 ecx, DWORD PTR _this$[ebp]
  00354	8b 51 24	 mov	 edx, DWORD PTR [ecx+36]
  00357	83 ea 04	 sub	 edx, 4
  0035a	52		 push	 edx
  0035b	8b 45 fc	 mov	 eax, DWORD PTR _this$[ebp]
  0035e	8b 48 20	 mov	 ecx, DWORD PTR [eax+32]
  00361	83 e9 04	 sub	 ecx, 4
  00364	51		 push	 ecx
  00365	8b 55 f4	 mov	 edx, DWORD PTR _MapNumber$[ebp]
  00368	52		 push	 edx
  00369	b9 00 00 00 00	 mov	 ecx, OFFSET ?gMSetBase@@3VCMonsterSetBase@@A ; gMSetBase
  0036e	e8 00 00 00 00	 call	 ?GetBoxPosition@CMonsterSetBase@@QAEHHHHHHAAF0@Z ; CMonsterSetBase::GetBoxPosition

; 325  : 
; 326  : 			gObj[n].Life = gObj[n].MaxLife;

  00373	69 45 f8 a0 1b
	00 00		 imul	 eax, DWORD PTR _n$[ebp], 7072
  0037a	69 4d f8 a0 1b
	00 00		 imul	 ecx, DWORD PTR _n$[ebp], 7072
  00381	8b 15 00 00 00
	00		 mov	 edx, DWORD PTR ?gObj@@3PAVOBJECTSTRUCT@@A ; gObj
  00387	8b 35 00 00 00
	00		 mov	 esi, DWORD PTR ?gObj@@3PAVOBJECTSTRUCT@@A ; gObj
  0038d	8b 84 06 c0 00
	00 00		 mov	 eax, DWORD PTR [esi+eax+192]
  00394	89 84 0a bc 00
	00 00		 mov	 DWORD PTR [edx+ecx+188], eax

; 327  : 			gObj[n].TX = gObj[n].X;

  0039b	69 45 f8 a0 1b
	00 00		 imul	 eax, DWORD PTR _n$[ebp], 7072
  003a2	69 4d f8 a0 1b
	00 00		 imul	 ecx, DWORD PTR _n$[ebp], 7072
  003a9	8b 15 00 00 00
	00		 mov	 edx, DWORD PTR ?gObj@@3PAVOBJECTSTRUCT@@A ; gObj
  003af	8b 35 00 00 00
	00		 mov	 esi, DWORD PTR ?gObj@@3PAVOBJECTSTRUCT@@A ; gObj
  003b5	66 8b 84 06 04
	01 00 00	 mov	 ax, WORD PTR [esi+eax+260]
  003bd	66 89 84 0a 20
	01 00 00	 mov	 WORD PTR [edx+ecx+288], ax

; 328  : 			gObj[n].TY = gObj[n].Y;

  003c5	69 45 f8 a0 1b
	00 00		 imul	 eax, DWORD PTR _n$[ebp], 7072
  003cc	69 4d f8 a0 1b
	00 00		 imul	 ecx, DWORD PTR _n$[ebp], 7072
  003d3	8b 15 00 00 00
	00		 mov	 edx, DWORD PTR ?gObj@@3PAVOBJECTSTRUCT@@A ; gObj
  003d9	8b 35 00 00 00
	00		 mov	 esi, DWORD PTR ?gObj@@3PAVOBJECTSTRUCT@@A ; gObj
  003df	66 8b 84 06 06
	01 00 00	 mov	 ax, WORD PTR [esi+eax+262]
  003e7	66 89 84 0a 22
	01 00 00	 mov	 WORD PTR [edx+ecx+290], ax

; 329  : 			gObj[n].MTX = gObj[n].X;

  003ef	69 45 f8 a0 1b
	00 00		 imul	 eax, DWORD PTR _n$[ebp], 7072
  003f6	69 4d f8 a0 1b
	00 00		 imul	 ecx, DWORD PTR _n$[ebp], 7072
  003fd	8b 15 00 00 00
	00		 mov	 edx, DWORD PTR ?gObj@@3PAVOBJECTSTRUCT@@A ; gObj
  00403	8b 35 00 00 00
	00		 mov	 esi, DWORD PTR ?gObj@@3PAVOBJECTSTRUCT@@A ; gObj
  00409	66 8b 84 06 04
	01 00 00	 mov	 ax, WORD PTR [esi+eax+260]
  00411	66 89 84 0a 24
	01 00 00	 mov	 WORD PTR [edx+ecx+292], ax

; 330  : 			gObj[n].MTY = gObj[n].Y;

  00419	69 45 f8 a0 1b
	00 00		 imul	 eax, DWORD PTR _n$[ebp], 7072
  00420	69 4d f8 a0 1b
	00 00		 imul	 ecx, DWORD PTR _n$[ebp], 7072
  00427	8b 15 00 00 00
	00		 mov	 edx, DWORD PTR ?gObj@@3PAVOBJECTSTRUCT@@A ; gObj
  0042d	8b 35 00 00 00
	00		 mov	 esi, DWORD PTR ?gObj@@3PAVOBJECTSTRUCT@@A ; gObj
  00433	66 8b 84 06 06
	01 00 00	 mov	 ax, WORD PTR [esi+eax+262]
  0043b	66 89 84 0a 26
	01 00 00	 mov	 WORD PTR [edx+ecx+294], ax

; 331  : 			gObj[n].StartX = (BYTE)gObj[n].X;

  00443	69 45 f8 a0 1b
	00 00		 imul	 eax, DWORD PTR _n$[ebp], 7072
  0044a	69 4d f8 a0 1b
	00 00		 imul	 ecx, DWORD PTR _n$[ebp], 7072
  00451	8b 15 00 00 00
	00		 mov	 edx, DWORD PTR ?gObj@@3PAVOBJECTSTRUCT@@A ; gObj
  00457	8b 35 00 00 00
	00		 mov	 esi, DWORD PTR ?gObj@@3PAVOBJECTSTRUCT@@A ; gObj
  0045d	8a 84 06 04 01
	00 00		 mov	 al, BYTE PTR [esi+eax+260]
  00464	88 84 0a 1a 01
	00 00		 mov	 BYTE PTR [edx+ecx+282], al

; 332  : 			gObj[n].StartY = (BYTE)gObj[n].Y;

  0046b	69 45 f8 a0 1b
	00 00		 imul	 eax, DWORD PTR _n$[ebp], 7072
  00472	69 4d f8 a0 1b
	00 00		 imul	 ecx, DWORD PTR _n$[ebp], 7072
  00479	8b 15 00 00 00
	00		 mov	 edx, DWORD PTR ?gObj@@3PAVOBJECTSTRUCT@@A ; gObj
  0047f	8b 35 00 00 00
	00		 mov	 esi, DWORD PTR ?gObj@@3PAVOBJECTSTRUCT@@A ; gObj
  00485	8a 84 06 06 01
	00 00		 mov	 al, BYTE PTR [esi+eax+262]
  0048c	88 84 0a 1b 01
	00 00		 mov	 BYTE PTR [edx+ecx+283], al

; 333  : 
; 334  : 			gObj[n].m_State	= OBJST_CREATE;

  00493	69 45 f8 a0 1b
	00 00		 imul	 eax, DWORD PTR _n$[ebp], 7072
  0049a	8b 0d 00 00 00
	00		 mov	 ecx, DWORD PTR ?gObj@@3PAVOBJECTSTRUCT@@A ; gObj
  004a0	c7 84 01 b8 01
	00 00 01 00 00
	00		 mov	 DWORD PTR [ecx+eax+440], 1

; 335  : 			gObj[n].PathCount = 0;			

  004ab	69 45 f8 a0 1b
	00 00		 imul	 eax, DWORD PTR _n$[ebp], 7072
  004b2	8b 0d 00 00 00
	00		 mov	 ecx, DWORD PTR ?gObj@@3PAVOBJECTSTRUCT@@A ; gObj
  004b8	c7 84 01 28 01
	00 00 00 00 00
	00		 mov	 DWORD PTR [ecx+eax+296], 0
$LN10@RegenTitan:

; 336  : 		}
; 337  : 	}

  004c3	e9 67 fb ff ff	 jmp	 $LN2@RegenTitan
$LN3@RegenTitan:

; 338  : }

  004c8	5f		 pop	 edi
  004c9	5e		 pop	 esi
  004ca	5b		 pop	 ebx
  004cb	8b e5		 mov	 esp, ebp
  004cd	5d		 pop	 ebp
  004ce	c3		 ret	 0
?RegenTitan@CEledoradoEvent@@QAEXXZ ENDP		; CEledoradoEvent::RegenTitan
_TEXT	ENDS
; Function compile flags: /Odtp /ZI
; File C:\Mu Online\Mu-GS-Webzen-MC-10093\GameServer\EledoradoEvent.cpp
;	COMDAT ?RegenGoldGoblen@CEledoradoEvent@@QAEXXZ
_TEXT	SEGMENT
_Map$ = -20						; size = 8
_MapNumber$ = -12					; size = 4
_n$ = -8						; size = 4
_this$ = -4						; size = 4
?RegenGoldGoblen@CEledoradoEvent@@QAEXXZ PROC		; CEledoradoEvent::RegenGoldGoblen, COMDAT
; _this$ = ecx

; 225  : {

  00000	55		 push	 ebp
  00001	8b ec		 mov	 ebp, esp
  00003	83 ec 54	 sub	 esp, 84			; 00000054H
  00006	53		 push	 ebx
  00007	56		 push	 esi
  00008	57		 push	 edi
  00009	89 4d fc	 mov	 DWORD PTR _this$[ebp], ecx

; 226  : 	int n  = 0;

  0000c	c7 45 f8 00 00
	00 00		 mov	 DWORD PTR _n$[ebp], 0

; 227  : 	int MapNumber;
; 228  : 
; 229  : #ifndef ADD_GOLDEN_EVENT_RENEWAL_20090311
; 230  : 	int Map[2] = {MAP_INDEX_RORENCIA, MAP_INDEX_NORIA};

  00013	c7 45 ec 00 00
	00 00		 mov	 DWORD PTR _Map$[ebp], 0
  0001a	c7 45 f0 03 00
	00 00		 mov	 DWORD PTR _Map$[ebp+4], 3

; 231  : #endif// ADD_GOLDEN_EVENT_RENEWAL_20090311
; 232  : 
; 233  : 	for( n=0; n<MAX_MONSTER; n++)

  00021	c7 45 f8 00 00
	00 00		 mov	 DWORD PTR _n$[ebp], 0
  00028	eb 09		 jmp	 SHORT $LN4@RegenGoldG
$LN2@RegenGoldG:
  0002a	8b 45 f8	 mov	 eax, DWORD PTR _n$[ebp]
  0002d	83 c0 01	 add	 eax, 1
  00030	89 45 f8	 mov	 DWORD PTR _n$[ebp], eax
$LN4@RegenGoldG:
  00033	81 7d f8 a8 16
	00 00		 cmp	 DWORD PTR _n$[ebp], 5800 ; 000016a8H
  0003a	0f 8d 3e 02 00
	00		 jge	 $LN3@RegenGoldG

; 234  : 	{		
; 235  : 		if( gObj[n].Class == 78 )

  00040	69 45 f8 a0 1b
	00 00		 imul	 eax, DWORD PTR _n$[ebp], 7072
  00047	8b 0d 00 00 00
	00		 mov	 ecx, DWORD PTR ?gObj@@3PAVOBJECTSTRUCT@@A ; gObj
  0004d	0f b7 94 01 9c
	00 00 00	 movzx	 edx, WORD PTR [ecx+eax+156]
  00055	83 fa 4e	 cmp	 edx, 78			; 0000004eH
  00058	0f 85 1b 02 00
	00		 jne	 $LN7@RegenGoldG

; 236  : 		{	// 황금 고블린
; 237  : 			gObj[n].Live	= 1;

  0005e	69 45 f8 a0 1b
	00 00		 imul	 eax, DWORD PTR _n$[ebp], 7072
  00065	8b 0d 00 00 00
	00		 mov	 ecx, DWORD PTR ?gObj@@3PAVOBJECTSTRUCT@@A ; gObj
  0006b	c6 44 01 66 01	 mov	 BYTE PTR [ecx+eax+102], 1

; 238  : 			
; 239  : #ifdef ADD_GOLDEN_EVENT_RENEWAL_20090311
; 240  : 			MapNumber = MAP_INDEX_NORIA;
; 241  : #else
; 242  : 			MapNumber = Map[rand()%2];

  00070	e8 00 00 00 00	 call	 _rand
  00075	25 01 00 00 80	 and	 eax, -2147483647	; 80000001H
  0007a	79 05		 jns	 SHORT $LN9@RegenGoldG
  0007c	48		 dec	 eax
  0007d	83 c8 fe	 or	 eax, -2			; fffffffeH
  00080	40		 inc	 eax
$LN9@RegenGoldG:
  00081	8b 44 85 ec	 mov	 eax, DWORD PTR _Map$[ebp+eax*4]
  00085	89 45 f4	 mov	 DWORD PTR _MapNumber$[ebp], eax

; 243  : #endif
; 244  : 
; 245  : 			gObj[n].MapNumber = MapNumber;

  00088	69 45 f8 a0 1b
	00 00		 imul	 eax, DWORD PTR _n$[ebp], 7072
  0008f	8b 0d 00 00 00
	00		 mov	 ecx, DWORD PTR ?gObj@@3PAVOBJECTSTRUCT@@A ; gObj
  00095	8a 55 f4	 mov	 dl, BYTE PTR _MapNumber$[ebp]
  00098	88 94 01 09 01
	00 00		 mov	 BYTE PTR [ecx+eax+265], dl
$LN5@RegenGoldG:

; 246  : 			while(!gMSetBase.GetBoxPosition(MapNumber, 50, 50, 200, 200, gObj[n].X,gObj[n].Y)){}

  0009f	69 45 f8 a0 1b
	00 00		 imul	 eax, DWORD PTR _n$[ebp], 7072
  000a6	8b 0d 00 00 00
	00		 mov	 ecx, DWORD PTR ?gObj@@3PAVOBJECTSTRUCT@@A ; gObj
  000ac	8d 94 01 06 01
	00 00		 lea	 edx, DWORD PTR [ecx+eax+262]
  000b3	52		 push	 edx
  000b4	69 45 f8 a0 1b
	00 00		 imul	 eax, DWORD PTR _n$[ebp], 7072
  000bb	8b 0d 00 00 00
	00		 mov	 ecx, DWORD PTR ?gObj@@3PAVOBJECTSTRUCT@@A ; gObj
  000c1	8d 94 01 04 01
	00 00		 lea	 edx, DWORD PTR [ecx+eax+260]
  000c8	52		 push	 edx
  000c9	68 c8 00 00 00	 push	 200			; 000000c8H
  000ce	68 c8 00 00 00	 push	 200			; 000000c8H
  000d3	6a 32		 push	 50			; 00000032H
  000d5	6a 32		 push	 50			; 00000032H
  000d7	8b 45 f4	 mov	 eax, DWORD PTR _MapNumber$[ebp]
  000da	50		 push	 eax
  000db	b9 00 00 00 00	 mov	 ecx, OFFSET ?gMSetBase@@3VCMonsterSetBase@@A ; gMSetBase
  000e0	e8 00 00 00 00	 call	 ?GetBoxPosition@CMonsterSetBase@@QAEHHHHHHAAF0@Z ; CMonsterSetBase::GetBoxPosition
  000e5	85 c0		 test	 eax, eax
  000e7	75 02		 jne	 SHORT $LN6@RegenGoldG
  000e9	eb b4		 jmp	 SHORT $LN5@RegenGoldG
$LN6@RegenGoldG:

; 247  : 			
; 248  : 			gObj[n].Life = gObj[n].MaxLife;

  000eb	69 45 f8 a0 1b
	00 00		 imul	 eax, DWORD PTR _n$[ebp], 7072
  000f2	69 4d f8 a0 1b
	00 00		 imul	 ecx, DWORD PTR _n$[ebp], 7072
  000f9	8b 15 00 00 00
	00		 mov	 edx, DWORD PTR ?gObj@@3PAVOBJECTSTRUCT@@A ; gObj
  000ff	8b 35 00 00 00
	00		 mov	 esi, DWORD PTR ?gObj@@3PAVOBJECTSTRUCT@@A ; gObj
  00105	8b 84 06 c0 00
	00 00		 mov	 eax, DWORD PTR [esi+eax+192]
  0010c	89 84 0a bc 00
	00 00		 mov	 DWORD PTR [edx+ecx+188], eax

; 249  : 			gObj[n].TX = gObj[n].X;

  00113	69 45 f8 a0 1b
	00 00		 imul	 eax, DWORD PTR _n$[ebp], 7072
  0011a	69 4d f8 a0 1b
	00 00		 imul	 ecx, DWORD PTR _n$[ebp], 7072
  00121	8b 15 00 00 00
	00		 mov	 edx, DWORD PTR ?gObj@@3PAVOBJECTSTRUCT@@A ; gObj
  00127	8b 35 00 00 00
	00		 mov	 esi, DWORD PTR ?gObj@@3PAVOBJECTSTRUCT@@A ; gObj
  0012d	66 8b 84 06 04
	01 00 00	 mov	 ax, WORD PTR [esi+eax+260]
  00135	66 89 84 0a 20
	01 00 00	 mov	 WORD PTR [edx+ecx+288], ax

; 250  : 			gObj[n].TY = gObj[n].Y;

  0013d	69 45 f8 a0 1b
	00 00		 imul	 eax, DWORD PTR _n$[ebp], 7072
  00144	69 4d f8 a0 1b
	00 00		 imul	 ecx, DWORD PTR _n$[ebp], 7072
  0014b	8b 15 00 00 00
	00		 mov	 edx, DWORD PTR ?gObj@@3PAVOBJECTSTRUCT@@A ; gObj
  00151	8b 35 00 00 00
	00		 mov	 esi, DWORD PTR ?gObj@@3PAVOBJECTSTRUCT@@A ; gObj
  00157	66 8b 84 06 06
	01 00 00	 mov	 ax, WORD PTR [esi+eax+262]
  0015f	66 89 84 0a 22
	01 00 00	 mov	 WORD PTR [edx+ecx+290], ax

; 251  : 			gObj[n].MTX = gObj[n].X;

  00167	69 45 f8 a0 1b
	00 00		 imul	 eax, DWORD PTR _n$[ebp], 7072
  0016e	69 4d f8 a0 1b
	00 00		 imul	 ecx, DWORD PTR _n$[ebp], 7072
  00175	8b 15 00 00 00
	00		 mov	 edx, DWORD PTR ?gObj@@3PAVOBJECTSTRUCT@@A ; gObj
  0017b	8b 35 00 00 00
	00		 mov	 esi, DWORD PTR ?gObj@@3PAVOBJECTSTRUCT@@A ; gObj
  00181	66 8b 84 06 04
	01 00 00	 mov	 ax, WORD PTR [esi+eax+260]
  00189	66 89 84 0a 24
	01 00 00	 mov	 WORD PTR [edx+ecx+292], ax

; 252  : 			gObj[n].MTY = gObj[n].Y;

  00191	69 45 f8 a0 1b
	00 00		 imul	 eax, DWORD PTR _n$[ebp], 7072
  00198	69 4d f8 a0 1b
	00 00		 imul	 ecx, DWORD PTR _n$[ebp], 7072
  0019f	8b 15 00 00 00
	00		 mov	 edx, DWORD PTR ?gObj@@3PAVOBJECTSTRUCT@@A ; gObj
  001a5	8b 35 00 00 00
	00		 mov	 esi, DWORD PTR ?gObj@@3PAVOBJECTSTRUCT@@A ; gObj
  001ab	66 8b 84 06 06
	01 00 00	 mov	 ax, WORD PTR [esi+eax+262]
  001b3	66 89 84 0a 26
	01 00 00	 mov	 WORD PTR [edx+ecx+294], ax

; 253  : 			gObj[n].StartX = (BYTE)gObj[n].X;

  001bb	69 45 f8 a0 1b
	00 00		 imul	 eax, DWORD PTR _n$[ebp], 7072
  001c2	69 4d f8 a0 1b
	00 00		 imul	 ecx, DWORD PTR _n$[ebp], 7072
  001c9	8b 15 00 00 00
	00		 mov	 edx, DWORD PTR ?gObj@@3PAVOBJECTSTRUCT@@A ; gObj
  001cf	8b 35 00 00 00
	00		 mov	 esi, DWORD PTR ?gObj@@3PAVOBJECTSTRUCT@@A ; gObj
  001d5	8a 84 06 04 01
	00 00		 mov	 al, BYTE PTR [esi+eax+260]
  001dc	88 84 0a 1a 01
	00 00		 mov	 BYTE PTR [edx+ecx+282], al

; 254  : 			gObj[n].StartY = (BYTE)gObj[n].Y;

  001e3	69 45 f8 a0 1b
	00 00		 imul	 eax, DWORD PTR _n$[ebp], 7072
  001ea	69 4d f8 a0 1b
	00 00		 imul	 ecx, DWORD PTR _n$[ebp], 7072
  001f1	8b 15 00 00 00
	00		 mov	 edx, DWORD PTR ?gObj@@3PAVOBJECTSTRUCT@@A ; gObj
  001f7	8b 35 00 00 00
	00		 mov	 esi, DWORD PTR ?gObj@@3PAVOBJECTSTRUCT@@A ; gObj
  001fd	8a 84 06 06 01
	00 00		 mov	 al, BYTE PTR [esi+eax+262]
  00204	88 84 0a 1b 01
	00 00		 mov	 BYTE PTR [edx+ecx+283], al

; 255  : 
; 256  : 			gObj[n].m_State	= OBJST_CREATE;

  0020b	69 45 f8 a0 1b
	00 00		 imul	 eax, DWORD PTR _n$[ebp], 7072
  00212	8b 0d 00 00 00
	00		 mov	 ecx, DWORD PTR ?gObj@@3PAVOBJECTSTRUCT@@A ; gObj
  00218	c7 84 01 b8 01
	00 00 01 00 00
	00		 mov	 DWORD PTR [ecx+eax+440], 1

; 257  : 			gObj[n].PathCount = 0;			

  00223	69 45 f8 a0 1b
	00 00		 imul	 eax, DWORD PTR _n$[ebp], 7072
  0022a	8b 0d 00 00 00
	00		 mov	 ecx, DWORD PTR ?gObj@@3PAVOBJECTSTRUCT@@A ; gObj
  00230	c7 84 01 28 01
	00 00 00 00 00
	00		 mov	 DWORD PTR [ecx+eax+296], 0

; 258  : 
; 259  : #if TESTSERVER == 1
; 260  : #ifndef FOR_ONAIR
; 261  : 			char msg[255];
; 262  : 			wsprintf(msg,"황금 고블린 : %d, %d,%d", MapNumber, gObj[n].X, gObj[n].Y);
; 263  : 			AllSendServerMsg(msg);
; 264  : #endif
; 265  : #endif
; 266  : 
; 267  : 			LogAddTD("Make GoldGoblen : %d, %d,%d", MapNumber, gObj[n].X, gObj[n].Y);

  0023b	69 45 f8 a0 1b
	00 00		 imul	 eax, DWORD PTR _n$[ebp], 7072
  00242	8b 0d 00 00 00
	00		 mov	 ecx, DWORD PTR ?gObj@@3PAVOBJECTSTRUCT@@A ; gObj
  00248	0f bf 94 01 06
	01 00 00	 movsx	 edx, WORD PTR [ecx+eax+262]
  00250	52		 push	 edx
  00251	69 45 f8 a0 1b
	00 00		 imul	 eax, DWORD PTR _n$[ebp], 7072
  00258	8b 0d 00 00 00
	00		 mov	 ecx, DWORD PTR ?gObj@@3PAVOBJECTSTRUCT@@A ; gObj
  0025e	0f bf 94 01 04
	01 00 00	 movsx	 edx, WORD PTR [ecx+eax+260]
  00266	52		 push	 edx
  00267	8b 45 f4	 mov	 eax, DWORD PTR _MapNumber$[ebp]
  0026a	50		 push	 eax
  0026b	68 00 00 00 00	 push	 OFFSET ??_C@_0BM@CBOPIOL@Make?5GoldGoblen?5?3?5?$CFd?0?5?$CFd?0?$CFd@
  00270	ff 15 00 00 00
	00		 call	 DWORD PTR ?LogAddTD@@3P6AXPADZZA ; LogAddTD
  00276	83 c4 10	 add	 esp, 16			; 00000010H
$LN7@RegenGoldG:

; 268  : 		}
; 269  : 	}

  00279	e9 ac fd ff ff	 jmp	 $LN2@RegenGoldG
$LN3@RegenGoldG:

; 270  : }

  0027e	5f		 pop	 edi
  0027f	5e		 pop	 esi
  00280	5b		 pop	 ebx
  00281	8b e5		 mov	 esp, ebp
  00283	5d		 pop	 ebp
  00284	c3		 ret	 0
?RegenGoldGoblen@CEledoradoEvent@@QAEXXZ ENDP		; CEledoradoEvent::RegenGoldGoblen
_TEXT	ENDS
; Function compile flags: /Odtp /ZI
; File C:\Mu Online\Mu-GS-Webzen-MC-10093\GameServer\EledoradoEvent.cpp
;	COMDAT ?Run@CEledoradoEvent@@QAEXXZ
_TEXT	SEGMENT
_TickCount$1 = -24					; size = 4
_TickCount$2 = -20					; size = 4
_ltime$3 = -16						; size = 8
_today$4 = -8						; size = 4
_this$ = -4						; size = 4
?Run@CEledoradoEvent@@QAEXXZ PROC			; CEledoradoEvent::Run, COMDAT
; _this$ = ecx

; 67   : {

  00000	55		 push	 ebp
  00001	8b ec		 mov	 ebp, esp
  00003	83 ec 58	 sub	 esp, 88			; 00000058H
  00006	53		 push	 ebx
  00007	56		 push	 esi
  00008	57		 push	 edi
  00009	89 4d fc	 mov	 DWORD PTR _this$[ebp], ecx

; 68   : 
; 69   : #ifdef EVENT_MANAGEMENT_20040711
; 70   : 	if (m_bMenualStart)

  0000c	8b 45 fc	 mov	 eax, DWORD PTR _this$[ebp]
  0000f	83 78 40 00	 cmp	 DWORD PTR [eax+64], 0
  00013	74 05		 je	 SHORT $LN2@Run

; 71   : 		return;

  00015	e9 7c 01 00 00	 jmp	 $LN1@Run
$LN2@Run:

; 72   : #endif
; 73   : 	
; 74   : 	if( !EventState )

  0001a	8b 45 fc	 mov	 eax, DWORD PTR _this$[ebp]
  0001d	83 78 04 00	 cmp	 DWORD PTR [eax+4], 0
  00021	75 05		 jne	 SHORT $LN3@Run

; 75   : 		return;

  00023	e9 6e 01 00 00	 jmp	 $LN1@Run
$LN3@Run:

; 76   : 
; 77   : 	if( GoldGoblenEventStartTime == 0 )

  00028	8b 45 fc	 mov	 eax, DWORD PTR _this$[ebp]
  0002b	83 78 08 00	 cmp	 DWORD PTR [eax+8], 0
  0002f	0f 85 90 00 00
	00		 jne	 $LN4@Run

; 78   : 	{	// 매시간 30분대에 실행되게 한다
; 79   : 		struct tm *today;
; 80   : 		time_t ltime;
; 81   : 		
; 82   : 		time( &ltime );

  00035	8d 45 f0	 lea	 eax, DWORD PTR _ltime$3[ebp]
  00038	50		 push	 eax
  00039	e8 00 00 00 00	 call	 _time
  0003e	83 c4 04	 add	 esp, 4

; 83   : 		today = localtime( &ltime );

  00041	8d 45 f0	 lea	 eax, DWORD PTR _ltime$3[ebp]
  00044	50		 push	 eax
  00045	e8 00 00 00 00	 call	 _localtime
  0004a	83 c4 04	 add	 esp, 4
  0004d	89 45 f8	 mov	 DWORD PTR _today$4[ebp], eax

; 84   : 
; 85   : #if TESTSERVER == 0
; 86   : 		if( today->tm_min >= 30 && today->tm_min <= 35 )

  00050	8b 45 f8	 mov	 eax, DWORD PTR _today$4[ebp]
  00053	83 78 04 1e	 cmp	 DWORD PTR [eax+4], 30	; 0000001eH
  00057	7c 67		 jl	 SHORT $LN6@Run
  00059	8b 45 f8	 mov	 eax, DWORD PTR _today$4[ebp]
  0005c	83 78 04 23	 cmp	 DWORD PTR [eax+4], 35	; 00000023H
  00060	7f 5e		 jg	 SHORT $LN6@Run

; 87   : #endif
; 88   : 		{
; 89   : 			DWORD TickCount = GetTickCount();

  00062	ff 15 00 00 00
	00		 call	 DWORD PTR __imp__GetTickCount@0
  00068	89 45 ec	 mov	 DWORD PTR _TickCount$2[ebp], eax

; 90   : 			GoldGoblenEventStartTime = TickCount;

  0006b	8b 45 fc	 mov	 eax, DWORD PTR _this$[ebp]
  0006e	8b 4d ec	 mov	 ecx, DWORD PTR _TickCount$2[ebp]
  00071	89 48 08	 mov	 DWORD PTR [eax+8], ecx

; 91   : 			RegenGoldGoblen();

  00074	8b 4d fc	 mov	 ecx, DWORD PTR _this$[ebp]
  00077	e8 00 00 00 00	 call	 ?RegenGoldGoblen@CEledoradoEvent@@QAEXXZ ; CEledoradoEvent::RegenGoldGoblen

; 92   : 			TitanEventStartTime = TickCount;

  0007c	8b 45 fc	 mov	 eax, DWORD PTR _this$[ebp]
  0007f	8b 4d ec	 mov	 ecx, DWORD PTR _TickCount$2[ebp]
  00082	89 48 0c	 mov	 DWORD PTR [eax+12], ecx

; 93   : 			RegenTitan();

  00085	8b 4d fc	 mov	 ecx, DWORD PTR _this$[ebp]
  00088	e8 00 00 00 00	 call	 ?RegenTitan@CEledoradoEvent@@QAEXXZ ; CEledoradoEvent::RegenTitan

; 94   : 			GoldDerconEventStartTime = TickCount;

  0008d	8b 45 fc	 mov	 eax, DWORD PTR _this$[ebp]
  00090	8b 4d ec	 mov	 ecx, DWORD PTR _TickCount$2[ebp]
  00093	89 48 10	 mov	 DWORD PTR [eax+16], ecx

; 95   : 			RegenGoldDercon();

  00096	8b 4d fc	 mov	 ecx, DWORD PTR _this$[ebp]
  00099	e8 00 00 00 00	 call	 ?RegenGoldDercon@CEledoradoEvent@@QAEXXZ ; CEledoradoEvent::RegenGoldDercon

; 96   : 			DevilLizardKingEventStartTime = TickCount;

  0009e	8b 45 fc	 mov	 eax, DWORD PTR _this$[ebp]
  000a1	8b 4d ec	 mov	 ecx, DWORD PTR _TickCount$2[ebp]
  000a4	89 48 14	 mov	 DWORD PTR [eax+20], ecx

; 97   : 			RegenDevilLizardKing();

  000a7	8b 4d fc	 mov	 ecx, DWORD PTR _this$[ebp]
  000aa	e8 00 00 00 00	 call	 ?RegenDevilLizardKing@CEledoradoEvent@@QAEXXZ ; CEledoradoEvent::RegenDevilLizardKing

; 98   : 			KanturEventStartTime = TickCount;

  000af	8b 45 fc	 mov	 eax, DWORD PTR _this$[ebp]
  000b2	8b 4d ec	 mov	 ecx, DWORD PTR _TickCount$2[ebp]
  000b5	89 48 18	 mov	 DWORD PTR [eax+24], ecx

; 99   : 			RegenKantur();

  000b8	8b 4d fc	 mov	 ecx, DWORD PTR _this$[ebp]
  000bb	e8 00 00 00 00	 call	 ?RegenKantur@CEledoradoEvent@@QAEXXZ ; CEledoradoEvent::RegenKantur
$LN6@Run:

; 100  : #ifdef ADD_GOLDEN_EVENT_RENEWAL_20090311
; 101  : 			GoldenRabbitEventStartTime = TickCount;
; 102  : 			RegenGoldenRabbit();
; 103  : 			GoldenDarkKnightEventStartTime = TickCount;
; 104  : 			RegenGoldenDarkKnight();
; 105  : 			GoldenDevilEventStartTime = TickCount;
; 106  : 			RegenGoldenDevil();
; 107  : 			GoldenStoneMonsterEventStartTime = TickCount;
; 108  : 			RegenGoldenStoneMonster();
; 109  : 			GoldenCrustEventStartTime = TickCount;
; 110  : 			RegenGoldenCrust();
; 111  : 			GoldenSatirosEventStartTime = TickCount;
; 112  : 			RegenGoldenSatiros();
; 113  : 			GoldenTwintailEventStartTime = TickCount;
; 114  : 			RegenGoldenTwintail();
; 115  : 			GoldenIronKnightEventStartTime = TickCount;
; 116  : 			RegenGoldenIronKnight();
; 117  : 			GoldenNeipinEventStartTime = TickCount;
; 118  : 			RegenGoldenNeipin();
; 119  : 			GoldenGreatDragonEventStartTime = TickCount;
; 120  : 			RegenGoldenGreatDragon();
; 121  : #endif //ADD_GOLDEN_EVENT_RENEWAL_20090311
; 122  : 		}
; 123  : 	}

  000c0	e9 d1 00 00 00	 jmp	 $LN1@Run
$LN4@Run:

; 124  : 	else
; 125  : 	{
; 126  : 		DWORD TickCount = GetTickCount();

  000c5	ff 15 00 00 00
	00		 call	 DWORD PTR __imp__GetTickCount@0
  000cb	89 45 e8	 mov	 DWORD PTR _TickCount$1[ebp], eax

; 127  : 
; 128  : 		if( TickCount - GoldGoblenEventStartTime > (1000*60)*gEledoradoGoldGoblenRegenTime )

  000ce	8b 45 fc	 mov	 eax, DWORD PTR _this$[ebp]
  000d1	8b 4d e8	 mov	 ecx, DWORD PTR _TickCount$1[ebp]
  000d4	2b 48 08	 sub	 ecx, DWORD PTR [eax+8]
  000d7	69 15 00 00 00
	00 60 ea 00 00	 imul	 edx, DWORD PTR ?gEledoradoGoldGoblenRegenTime@@3KA, 60000 ; gEledoradoGoldGoblenRegenTime
  000e1	3b ca		 cmp	 ecx, edx
  000e3	76 11		 jbe	 SHORT $LN7@Run

; 129  : 		{
; 130  : 			GoldGoblenEventStartTime = TickCount;

  000e5	8b 45 fc	 mov	 eax, DWORD PTR _this$[ebp]
  000e8	8b 4d e8	 mov	 ecx, DWORD PTR _TickCount$1[ebp]
  000eb	89 48 08	 mov	 DWORD PTR [eax+8], ecx

; 131  : 			RegenGoldGoblen();

  000ee	8b 4d fc	 mov	 ecx, DWORD PTR _this$[ebp]
  000f1	e8 00 00 00 00	 call	 ?RegenGoldGoblen@CEledoradoEvent@@QAEXXZ ; CEledoradoEvent::RegenGoldGoblen
$LN7@Run:

; 132  : 		}
; 133  : 
; 134  : 		if( TickCount - TitanEventStartTime > (1000*60)*gEledoradoTitanRegenTime )

  000f6	8b 45 fc	 mov	 eax, DWORD PTR _this$[ebp]
  000f9	8b 4d e8	 mov	 ecx, DWORD PTR _TickCount$1[ebp]
  000fc	2b 48 0c	 sub	 ecx, DWORD PTR [eax+12]
  000ff	69 15 00 00 00
	00 60 ea 00 00	 imul	 edx, DWORD PTR ?gEledoradoTitanRegenTime@@3KA, 60000 ; gEledoradoTitanRegenTime
  00109	3b ca		 cmp	 ecx, edx
  0010b	76 11		 jbe	 SHORT $LN8@Run

; 135  : 		{
; 136  : 			TitanEventStartTime = TickCount;

  0010d	8b 45 fc	 mov	 eax, DWORD PTR _this$[ebp]
  00110	8b 4d e8	 mov	 ecx, DWORD PTR _TickCount$1[ebp]
  00113	89 48 0c	 mov	 DWORD PTR [eax+12], ecx

; 137  : 			RegenTitan();

  00116	8b 4d fc	 mov	 ecx, DWORD PTR _this$[ebp]
  00119	e8 00 00 00 00	 call	 ?RegenTitan@CEledoradoEvent@@QAEXXZ ; CEledoradoEvent::RegenTitan
$LN8@Run:

; 138  : 		}
; 139  : 
; 140  : 		if( TickCount - GoldDerconEventStartTime > (1000*60)*gEledoradoGoldDerconRegenTime )

  0011e	8b 45 fc	 mov	 eax, DWORD PTR _this$[ebp]
  00121	8b 4d e8	 mov	 ecx, DWORD PTR _TickCount$1[ebp]
  00124	2b 48 10	 sub	 ecx, DWORD PTR [eax+16]
  00127	69 15 00 00 00
	00 60 ea 00 00	 imul	 edx, DWORD PTR ?gEledoradoGoldDerconRegenTime@@3KA, 60000 ; gEledoradoGoldDerconRegenTime
  00131	3b ca		 cmp	 ecx, edx
  00133	76 11		 jbe	 SHORT $LN9@Run

; 141  : 		{
; 142  : 			GoldDerconEventStartTime = TickCount;

  00135	8b 45 fc	 mov	 eax, DWORD PTR _this$[ebp]
  00138	8b 4d e8	 mov	 ecx, DWORD PTR _TickCount$1[ebp]
  0013b	89 48 10	 mov	 DWORD PTR [eax+16], ecx

; 143  : 			RegenGoldDercon();

  0013e	8b 4d fc	 mov	 ecx, DWORD PTR _this$[ebp]
  00141	e8 00 00 00 00	 call	 ?RegenGoldDercon@CEledoradoEvent@@QAEXXZ ; CEledoradoEvent::RegenGoldDercon
$LN9@Run:

; 144  : 		}
; 145  : 
; 146  : 		if( TickCount - DevilLizardKingEventStartTime > (1000*60)*gEledoradoDevilLizardKingRegenTime)

  00146	8b 45 fc	 mov	 eax, DWORD PTR _this$[ebp]
  00149	8b 4d e8	 mov	 ecx, DWORD PTR _TickCount$1[ebp]
  0014c	2b 48 14	 sub	 ecx, DWORD PTR [eax+20]
  0014f	69 15 00 00 00
	00 60 ea 00 00	 imul	 edx, DWORD PTR ?gEledoradoDevilLizardKingRegenTime@@3KA, 60000 ; gEledoradoDevilLizardKingRegenTime
  00159	3b ca		 cmp	 ecx, edx
  0015b	76 11		 jbe	 SHORT $LN10@Run

; 147  : 		{
; 148  : 			DevilLizardKingEventStartTime = TickCount;

  0015d	8b 45 fc	 mov	 eax, DWORD PTR _this$[ebp]
  00160	8b 4d e8	 mov	 ecx, DWORD PTR _TickCount$1[ebp]
  00163	89 48 14	 mov	 DWORD PTR [eax+20], ecx

; 149  : 			RegenDevilLizardKing();

  00166	8b 4d fc	 mov	 ecx, DWORD PTR _this$[ebp]
  00169	e8 00 00 00 00	 call	 ?RegenDevilLizardKing@CEledoradoEvent@@QAEXXZ ; CEledoradoEvent::RegenDevilLizardKing
$LN10@Run:

; 150  : 		}
; 151  : 
; 152  : 		if( TickCount - KanturEventStartTime > (1000*60)*gEledoradoDevilTantarosRegenTime )

  0016e	8b 45 fc	 mov	 eax, DWORD PTR _this$[ebp]
  00171	8b 4d e8	 mov	 ecx, DWORD PTR _TickCount$1[ebp]
  00174	2b 48 18	 sub	 ecx, DWORD PTR [eax+24]
  00177	69 15 00 00 00
	00 60 ea 00 00	 imul	 edx, DWORD PTR ?gEledoradoDevilTantarosRegenTime@@3KA, 60000 ; gEledoradoDevilTantarosRegenTime
  00181	3b ca		 cmp	 ecx, edx
  00183	76 11		 jbe	 SHORT $LN1@Run

; 153  : 		{
; 154  : 			KanturEventStartTime = TickCount;

  00185	8b 45 fc	 mov	 eax, DWORD PTR _this$[ebp]
  00188	8b 4d e8	 mov	 ecx, DWORD PTR _TickCount$1[ebp]
  0018b	89 48 18	 mov	 DWORD PTR [eax+24], ecx

; 155  : 			RegenKantur();

  0018e	8b 4d fc	 mov	 ecx, DWORD PTR _this$[ebp]
  00191	e8 00 00 00 00	 call	 ?RegenKantur@CEledoradoEvent@@QAEXXZ ; CEledoradoEvent::RegenKantur
$LN1@Run:

; 156  : 		}
; 157  : 
; 158  : #ifdef ADD_GOLDEN_EVENT_RENEWAL_20090311
; 159  : 		if( TickCount - GoldenRabbitEventStartTime > (1000*60) * gGoldenRabbitRegenTime)
; 160  : 		{
; 161  : 			GoldenRabbitEventStartTime = TickCount;
; 162  : 			RegenGoldenRabbit();
; 163  : 		}
; 164  : 		
; 165  : 		if( TickCount - GoldenDarkKnightEventStartTime > (1000 * 60) * gGoldenDarknightRegenTime )
; 166  : 		{
; 167  : 			GoldenDarkKnightEventStartTime = TickCount;
; 168  : 			RegenGoldenDarkKnight();
; 169  : 		}
; 170  : 		
; 171  : 		if( TickCount - GoldenDevilEventStartTime > (1000 * 60) * gGoldenRabbitRegenTime)
; 172  : 		{
; 173  : 			GoldenDevilEventStartTime = TickCount;
; 174  : 			RegenGoldenDevil();
; 175  : 		}
; 176  : 		
; 177  : 		if( TickCount - GoldenStoneMonsterEventStartTime > (1000 * 60) * gGoldenStoneMonsterRegenTIme)
; 178  : 		{
; 179  : 			GoldenStoneMonsterEventStartTime = TickCount;
; 180  : 			RegenGoldenStoneMonster();
; 181  : 		}
; 182  : 		
; 183  : 		if( TickCount - GoldenCrustEventStartTime > (1000 * 60) * gGoldenCrustEventRegenTime)
; 184  : 		{
; 185  : 			GoldenCrustEventStartTime = TickCount;
; 186  : 			RegenGoldenCrust();
; 187  : 		}
; 188  : 		
; 189  : 		if( TickCount - GoldenSatirosEventStartTime > (1000 * 60) * gGoldenSatirosRegenTime)
; 190  : 		{
; 191  : 			GoldenSatirosEventStartTime = TickCount;
; 192  : 			RegenGoldenSatiros();
; 193  : 		}
; 194  : 		
; 195  : 		if( TickCount - GoldenTwintailEventStartTime > (1000 * 60) * gGoldenTwintailRegenTime)
; 196  : 		{
; 197  : 			GoldenTwintailEventStartTime = TickCount;
; 198  : 			RegenGoldenTwintail();
; 199  : 		}
; 200  : 		
; 201  : 		if( TickCount - GoldenIronKnightEventStartTime > (1000 * 60) * gGoldenIronKnightRegenTime)
; 202  : 		{
; 203  : 			GoldenIronKnightEventStartTime = TickCount;
; 204  : 			RegenGoldenIronKnight();
; 205  : 		}
; 206  : 		
; 207  : 		if( TickCount - GoldenNeipinEventStartTime > (1000 * 60) * gGoldenNeipinRegenTime)
; 208  : 		{
; 209  : 			GoldenNeipinEventStartTime = TickCount;
; 210  : 			RegenGoldenNeipin();
; 211  : 		}
; 212  : 		
; 213  : 		if( TickCount - GoldenGreatDragonEventStartTime > (1000 * 60) * gGoldenGreatDragonRegenTime)
; 214  : 		{
; 215  : 			GoldenGreatDragonEventStartTime = TickCount;
; 216  : 			RegenGoldenGreatDragon();
; 217  : 		}
; 218  : 		
; 219  : 		
; 220  : #endif
; 221  : 	}
; 222  : }

  00196	5f		 pop	 edi
  00197	5e		 pop	 esi
  00198	5b		 pop	 ebx
  00199	8b e5		 mov	 esp, ebp
  0019b	5d		 pop	 ebp
  0019c	c3		 ret	 0
?Run@CEledoradoEvent@@QAEXXZ ENDP			; CEledoradoEvent::Run
_TEXT	ENDS
; Function compile flags: /Odtp /ZI
; File C:\Mu Online\Mu-GS-Webzen-MC-10093\GameServer\EledoradoEvent.cpp
;	COMDAT ?SetEventState@CEledoradoEvent@@QAEXH@Z
_TEXT	SEGMENT
_this$ = -4						; size = 4
_State$ = 8						; size = 4
?SetEventState@CEledoradoEvent@@QAEXH@Z PROC		; CEledoradoEvent::SetEventState, COMDAT
; _this$ = ecx

; 62   : {

  00000	55		 push	 ebp
  00001	8b ec		 mov	 ebp, esp
  00003	83 ec 44	 sub	 esp, 68			; 00000044H
  00006	53		 push	 ebx
  00007	56		 push	 esi
  00008	57		 push	 edi
  00009	89 4d fc	 mov	 DWORD PTR _this$[ebp], ecx

; 63   : 	EventState = State;

  0000c	8b 45 fc	 mov	 eax, DWORD PTR _this$[ebp]
  0000f	8b 4d 08	 mov	 ecx, DWORD PTR _State$[ebp]
  00012	89 48 04	 mov	 DWORD PTR [eax+4], ecx

; 64   : }

  00015	5f		 pop	 edi
  00016	5e		 pop	 esi
  00017	5b		 pop	 ebx
  00018	8b e5		 mov	 esp, ebp
  0001a	5d		 pop	 ebp
  0001b	c2 04 00	 ret	 4
?SetEventState@CEledoradoEvent@@QAEXH@Z ENDP		; CEledoradoEvent::SetEventState
_TEXT	ENDS
; Function compile flags: /Odtp /ZI
; File C:\Mu Online\Mu-GS-Webzen-MC-10093\GameServer\EledoradoEvent.cpp
;	COMDAT ?Init@CEledoradoEvent@@QAEXXZ
_TEXT	SEGMENT
_this$ = -4						; size = 4
?Init@CEledoradoEvent@@QAEXXZ PROC			; CEledoradoEvent::Init, COMDAT
; _this$ = ecx

; 58   : {

  00000	55		 push	 ebp
  00001	8b ec		 mov	 ebp, esp
  00003	83 ec 44	 sub	 esp, 68			; 00000044H
  00006	53		 push	 ebx
  00007	56		 push	 esi
  00008	57		 push	 edi
  00009	89 4d fc	 mov	 DWORD PTR _this$[ebp], ecx

; 59   : }

  0000c	5f		 pop	 edi
  0000d	5e		 pop	 esi
  0000e	5b		 pop	 ebx
  0000f	8b e5		 mov	 esp, ebp
  00011	5d		 pop	 ebp
  00012	c3		 ret	 0
?Init@CEledoradoEvent@@QAEXXZ ENDP			; CEledoradoEvent::Init
_TEXT	ENDS
; Function compile flags: /Odtp /ZI
; File C:\Mu Online\Mu-GS-Webzen-MC-10093\GameServer\EledoradoEvent.cpp
;	COMDAT ??1CEledoradoEvent@@UAE@XZ
_TEXT	SEGMENT
_this$ = -4						; size = 4
??1CEledoradoEvent@@UAE@XZ PROC				; CEledoradoEvent::~CEledoradoEvent, COMDAT
; _this$ = ecx

; 53   : {

  00000	55		 push	 ebp
  00001	8b ec		 mov	 ebp, esp
  00003	83 ec 44	 sub	 esp, 68			; 00000044H
  00006	53		 push	 ebx
  00007	56		 push	 esi
  00008	57		 push	 edi
  00009	89 4d fc	 mov	 DWORD PTR _this$[ebp], ecx
  0000c	8b 45 fc	 mov	 eax, DWORD PTR _this$[ebp]
  0000f	c7 00 00 00 00
	00		 mov	 DWORD PTR [eax], OFFSET ??_7CEledoradoEvent@@6B@

; 54   : 
; 55   : }

  00015	5f		 pop	 edi
  00016	5e		 pop	 esi
  00017	5b		 pop	 ebx
  00018	8b e5		 mov	 esp, ebp
  0001a	5d		 pop	 ebp
  0001b	c3		 ret	 0
??1CEledoradoEvent@@UAE@XZ ENDP				; CEledoradoEvent::~CEledoradoEvent
_TEXT	ENDS
; Function compile flags: /Odtp /ZI
; File C:\Mu Online\Mu-GS-Webzen-MC-10093\GameServer\EledoradoEvent.cpp
;	COMDAT ??0CEledoradoEvent@@QAE@XZ
_TEXT	SEGMENT
_this$ = -4						; size = 4
??0CEledoradoEvent@@QAE@XZ PROC				; CEledoradoEvent::CEledoradoEvent, COMDAT
; _this$ = ecx

; 24   : {

  00000	55		 push	 ebp
  00001	8b ec		 mov	 ebp, esp
  00003	83 ec 44	 sub	 esp, 68			; 00000044H
  00006	53		 push	 ebx
  00007	56		 push	 esi
  00008	57		 push	 edi
  00009	89 4d fc	 mov	 DWORD PTR _this$[ebp], ecx
  0000c	8b 45 fc	 mov	 eax, DWORD PTR _this$[ebp]
  0000f	c7 00 00 00 00
	00		 mov	 DWORD PTR [eax], OFFSET ??_7CEledoradoEvent@@6B@

; 25   : 	GoldGoblenEventStartTime = 0;

  00015	8b 45 fc	 mov	 eax, DWORD PTR _this$[ebp]
  00018	c7 40 08 00 00
	00 00		 mov	 DWORD PTR [eax+8], 0

; 26   : 	TitanEventStartTime = 0;

  0001f	8b 45 fc	 mov	 eax, DWORD PTR _this$[ebp]
  00022	c7 40 0c 00 00
	00 00		 mov	 DWORD PTR [eax+12], 0

; 27   : 	GoldDerconEventStartTime = 0;

  00029	8b 45 fc	 mov	 eax, DWORD PTR _this$[ebp]
  0002c	c7 40 10 00 00
	00 00		 mov	 DWORD PTR [eax+16], 0

; 28   : 	DevilLizardKingEventStartTime = 0;

  00033	8b 45 fc	 mov	 eax, DWORD PTR _this$[ebp]
  00036	c7 40 14 00 00
	00 00		 mov	 DWORD PTR [eax+20], 0

; 29   : 	KanturEventStartTime = 0;

  0003d	8b 45 fc	 mov	 eax, DWORD PTR _this$[ebp]
  00040	c7 40 18 00 00
	00 00		 mov	 DWORD PTR [eax+24], 0

; 30   : 	
; 31   : #ifdef ADD_GOLDEN_EVENT_RENEWAL_20090311
; 32   : 	GoldenRabbitEventStartTime = 0;
; 33   : 	GoldenDarkKnightEventStartTime = 0;
; 34   : 	GoldenDevilEventStartTime = 0;
; 35   : 	GoldenStoneMonsterEventStartTime = 0;
; 36   : 	GoldenCrustEventStartTime = 0;
; 37   : 	GoldenSatirosEventStartTime = 0;
; 38   : 	GoldenTwintailEventStartTime = 0;
; 39   : 	GoldenIronKnightEventStartTime = 0;
; 40   : 	GoldenNeipinEventStartTime = 0;
; 41   : 	GoldenGreatDragonEventStartTime = 0;
; 42   : #endif
; 43   : 	m_BossGoldDerconMapNumber[0] = -1;

  00047	b8 04 00 00 00	 mov	 eax, 4
  0004c	6b c8 00	 imul	 ecx, eax, 0
  0004f	8b 55 fc	 mov	 edx, DWORD PTR _this$[ebp]
  00052	c7 44 0a 44 ff
	ff ff ff	 mov	 DWORD PTR [edx+ecx+68], -1

; 44   : 	m_BossGoldDerconMapNumber[1] = -1;

  0005a	b8 04 00 00 00	 mov	 eax, 4
  0005f	c1 e0 00	 shl	 eax, 0
  00062	8b 4d fc	 mov	 ecx, DWORD PTR _this$[ebp]
  00065	c7 44 01 44 ff
	ff ff ff	 mov	 DWORD PTR [ecx+eax+68], -1

; 45   : 	m_BossGoldDerconMapNumber[2] = -1;

  0006d	b8 04 00 00 00	 mov	 eax, 4
  00072	d1 e0		 shl	 eax, 1
  00074	8b 4d fc	 mov	 ecx, DWORD PTR _this$[ebp]
  00077	c7 44 01 44 ff
	ff ff ff	 mov	 DWORD PTR [ecx+eax+68], -1

; 46   : 
; 47   : 	m_BossTitanMapNumber = -1;

  0007f	8b 45 fc	 mov	 eax, DWORD PTR _this$[ebp]
  00082	c7 40 1c ff ff
	ff ff		 mov	 DWORD PTR [eax+28], -1

; 48   : 	m_BossDevilLizardKingMapNumber = -1;

  00089	8b 45 fc	 mov	 eax, DWORD PTR _this$[ebp]
  0008c	c7 40 28 ff ff
	ff ff		 mov	 DWORD PTR [eax+40], -1

; 49   : 	m_BossKanturMapNumber = -1;

  00093	8b 45 fc	 mov	 eax, DWORD PTR _this$[ebp]
  00096	c7 40 34 ff ff
	ff ff		 mov	 DWORD PTR [eax+52], -1

; 50   : }

  0009d	8b 45 fc	 mov	 eax, DWORD PTR _this$[ebp]
  000a0	5f		 pop	 edi
  000a1	5e		 pop	 esi
  000a2	5b		 pop	 ebx
  000a3	8b e5		 mov	 esp, ebp
  000a5	5d		 pop	 ebp
  000a6	c3		 ret	 0
??0CEledoradoEvent@@QAE@XZ ENDP				; CEledoradoEvent::CEledoradoEvent
_TEXT	ENDS
; Function compile flags: /Odtp /ZI
; File C:\Program Files (x86)\Windows Kits\10\Include\10.0.18362.0\ucrt\time.h
;	COMDAT _time
_TEXT	SEGMENT
__Time$ = 8						; size = 4
_time	PROC						; COMDAT

; 535  :         {

  00000	55		 push	 ebp
  00001	8b ec		 mov	 ebp, esp
  00003	83 ec 40	 sub	 esp, 64			; 00000040H
  00006	53		 push	 ebx
  00007	56		 push	 esi
  00008	57		 push	 edi

; 536  :             return _time64(_Time);

  00009	8b 45 08	 mov	 eax, DWORD PTR __Time$[ebp]
  0000c	50		 push	 eax
  0000d	e8 00 00 00 00	 call	 __time64
  00012	83 c4 04	 add	 esp, 4

; 537  :         }

  00015	5f		 pop	 edi
  00016	5e		 pop	 esi
  00017	5b		 pop	 ebx
  00018	8b e5		 mov	 esp, ebp
  0001a	5d		 pop	 ebp
  0001b	c3		 ret	 0
_time	ENDP
_TEXT	ENDS
; Function compile flags: /Odtp /ZI
; File C:\Program Files (x86)\Windows Kits\10\Include\10.0.18362.0\ucrt\time.h
;	COMDAT _localtime
_TEXT	SEGMENT
__Time$ = 8						; size = 4
_localtime PROC						; COMDAT

; 509  :         {

  00000	55		 push	 ebp
  00001	8b ec		 mov	 ebp, esp
  00003	83 ec 40	 sub	 esp, 64			; 00000040H
  00006	53		 push	 ebx
  00007	56		 push	 esi
  00008	57		 push	 edi

; 510  :             #pragma warning(push)
; 511  :             #pragma warning(disable: 4996)
; 512  :             return _localtime64(_Time);

  00009	8b 45 08	 mov	 eax, DWORD PTR __Time$[ebp]
  0000c	50		 push	 eax
  0000d	e8 00 00 00 00	 call	 __localtime64
  00012	83 c4 04	 add	 esp, 4

; 513  :             #pragma warning(pop)
; 514  :         }

  00015	5f		 pop	 edi
  00016	5e		 pop	 esi
  00017	5b		 pop	 ebx
  00018	8b e5		 mov	 esp, ebp
  0001a	5d		 pop	 ebp
  0001b	c3		 ret	 0
_localtime ENDP
_TEXT	ENDS
; Function compile flags: /Odtp /ZI
; File C:\Mu Online\Mu-GS-Webzen-MC-10093\GameServer\EledoradoEvent.cpp
;	COMDAT ?__empty_global_delete@@YAXPAXI@Z
_TEXT	SEGMENT
___formal$ = 8						; size = 4
___formal$ = 12						; size = 4
?__empty_global_delete@@YAXPAXI@Z PROC			; __empty_global_delete, COMDAT

  00000	55		 push	 ebp
  00001	8b ec		 mov	 ebp, esp
  00003	83 ec 40	 sub	 esp, 64			; 00000040H
  00006	53		 push	 ebx
  00007	56		 push	 esi
  00008	57		 push	 edi
  00009	5f		 pop	 edi
  0000a	5e		 pop	 esi
  0000b	5b		 pop	 ebx
  0000c	8b e5		 mov	 esp, ebp
  0000e	5d		 pop	 ebp
  0000f	c3		 ret	 0
?__empty_global_delete@@YAXPAXI@Z ENDP			; __empty_global_delete
_TEXT	ENDS
; Function compile flags: /Odtp /ZI
; File C:\Mu Online\Mu-GS-Webzen-MC-10093\GameServer\EledoradoEvent.cpp
;	COMDAT ?__empty_global_delete@@YAXPAX@Z
_TEXT	SEGMENT
___formal$ = 8						; size = 4
?__empty_global_delete@@YAXPAX@Z PROC			; __empty_global_delete, COMDAT

  00000	55		 push	 ebp
  00001	8b ec		 mov	 ebp, esp
  00003	83 ec 40	 sub	 esp, 64			; 00000040H
  00006	53		 push	 ebx
  00007	56		 push	 esi
  00008	57		 push	 edi
  00009	5f		 pop	 edi
  0000a	5e		 pop	 esi
  0000b	5b		 pop	 ebx
  0000c	8b e5		 mov	 esp, ebp
  0000e	5d		 pop	 ebp
  0000f	c3		 ret	 0
?__empty_global_delete@@YAXPAX@Z ENDP			; __empty_global_delete
_TEXT	ENDS
END
