; Listing generated by Microsoft (R) Optimizing Compiler Version 19.27.29111.0 

	TITLE	C:\Mu Online\Mu-GS-Webzen-MC-10093\GameServer\EngagePVP.cpp
	.686P
	.XMM
	include listing.inc
	.model	flat

INCLUDELIB LIBCMT
INCLUDELIB OLDNAMES

PUBLIC	?__empty_global_delete@@YAXPAX@Z		; __empty_global_delete
PUBLIC	?__empty_global_delete@@YAXPAXI@Z		; __empty_global_delete
PUBLIC	??2@YAPAXIPAX@Z					; operator new
PUBLIC	??0exception@std@@QAE@QBDH@Z			; std::exception::exception
PUBLIC	??0exception@std@@QAE@ABV01@@Z			; std::exception::exception
PUBLIC	??1exception@std@@UAE@XZ			; std::exception::~exception
PUBLIC	?what@exception@std@@UBEPBDXZ			; std::exception::what
PUBLIC	??_Gexception@std@@UAEPAXI@Z			; std::exception::`scalar deleting destructor'
PUBLIC	??0bad_alloc@std@@AAE@QBD@Z			; std::bad_alloc::bad_alloc
PUBLIC	??1bad_alloc@std@@UAE@XZ			; std::bad_alloc::~bad_alloc
PUBLIC	??0bad_alloc@std@@QAE@ABV01@@Z			; std::bad_alloc::bad_alloc
PUBLIC	??_Gbad_alloc@std@@UAEPAXI@Z			; std::bad_alloc::`scalar deleting destructor'
PUBLIC	??0bad_array_new_length@std@@QAE@XZ		; std::bad_array_new_length::bad_array_new_length
PUBLIC	??1bad_array_new_length@std@@UAE@XZ		; std::bad_array_new_length::~bad_array_new_length
PUBLIC	??0bad_array_new_length@std@@QAE@ABV01@@Z	; std::bad_array_new_length::bad_array_new_length
PUBLIC	??_Gbad_array_new_length@std@@UAEPAXI@Z		; std::bad_array_new_length::`scalar deleting destructor'
PUBLIC	?_Throw_bad_array_new_length@std@@YAXXZ		; std::_Throw_bad_array_new_length
PUBLIC	?max@?$numeric_limits@H@std@@SAHXZ		; std::numeric_limits<int>::max
PUBLIC	?_Allocate@_Default_allocate_traits@std@@SAPAXI@Z ; std::_Default_allocate_traits::_Allocate
PUBLIC	?_Adjust_manually_vector_aligned@std@@YAXAAPAXAAI@Z ; std::_Adjust_manually_vector_aligned
PUBLIC	?_Orphan_all@_Container_base0@std@@QAEXXZ	; std::_Container_base0::_Orphan_all
PUBLIC	?_Adopt@_Iterator_base0@std@@QAEXPBX@Z		; std::_Iterator_base0::_Adopt
PUBLIC	??0_Fake_proxy_ptr_impl@std@@QAE@ABU_Fake_allocator@1@ABU_Container_base0@1@@Z ; std::_Fake_proxy_ptr_impl::_Fake_proxy_ptr_impl
PUBLIC	?_Release@_Fake_proxy_ptr_impl@std@@QAEXXZ	; std::_Fake_proxy_ptr_impl::_Release
PUBLIC	??0CEngagePVP@@QAE@XZ				; CEngagePVP::CEngagePVP
PUBLIC	??1CEngagePVP@@QAE@XZ				; CEngagePVP::~CEngagePVP
PUBLIC	?Load@CEngagePVP@@QAEXPBD@Z			; CEngagePVP::Load
PUBLIC	?Run@CEngagePVP@@QAEXXZ				; CEngagePVP::Run
PUBLIC	?ProcessUserRequest@CEngagePVP@@QAEXPAVOBJECTSTRUCT@@@Z ; CEngagePVP::ProcessUserRequest
PUBLIC	?DeleteUser@CEngagePVP@@QAEXH@Z			; CEngagePVP::DeleteUser
PUBLIC	?Clear@CEngagePVP@@AAEXXZ			; CEngagePVP::Clear
PUBLIC	?ClearUser@CEngagePVP@@AAEXH@Z			; CEngagePVP::ClearUser
PUBLIC	?ProcessClosed@CEngagePVP@@AAEXXZ		; CEngagePVP::ProcessClosed
PUBLIC	?ProcessRunning@CEngagePVP@@AAEXXZ		; CEngagePVP::ProcessRunning
PUBLIC	?ProcessFinish@CEngagePVP@@AAEXXZ		; CEngagePVP::ProcessFinish
PUBLIC	??0?$allocator@U?$_List_node@HPAX@std@@@std@@QAE@XZ ; std::allocator<std::_List_node<int,void *> >::allocator<std::_List_node<int,void *> >
PUBLIC	?deallocate@?$allocator@U?$_List_node@HPAX@std@@@std@@QAEXQAU?$_List_node@HPAX@2@I@Z ; std::allocator<std::_List_node<int,void *> >::deallocate
PUBLIC	?allocate@?$allocator@U?$_List_node@HPAX@std@@@std@@QAEPAU?$_List_node@HPAX@2@I@Z ; std::allocator<std::_List_node<int,void *> >::allocate
PUBLIC	?deallocate@?$_Default_allocator_traits@V?$allocator@U?$_List_node@HPAX@std@@@std@@@std@@SAXAAV?$allocator@U?$_List_node@HPAX@std@@@2@QAU?$_List_node@HPAX@2@I@Z ; std::_Default_allocator_traits<std::allocator<std::_List_node<int,void *> > >::deallocate
PUBLIC	?max_size@?$_Default_allocator_traits@V?$allocator@U?$_List_node@HPAX@std@@@std@@@std@@SAIABV?$allocator@U?$_List_node@HPAX@std@@@2@@Z ; std::_Default_allocator_traits<std::allocator<std::_List_node<int,void *> > >::max_size
PUBLIC	??0?$list@HV?$allocator@H@std@@@std@@QAE@XZ	; std::list<int,std::allocator<int> >::list<int,std::allocator<int> >
PUBLIC	??1?$list@HV?$allocator@H@std@@@std@@QAE@XZ	; std::list<int,std::allocator<int> >::~list<int,std::allocator<int> >
PUBLIC	?begin@?$list@HV?$allocator@H@std@@@std@@QAE?AV?$_List_iterator@V?$_List_val@U?$_List_simple_types@H@std@@@std@@@2@XZ ; std::list<int,std::allocator<int> >::begin
PUBLIC	?end@?$list@HV?$allocator@H@std@@@std@@QAE?AV?$_List_iterator@V?$_List_val@U?$_List_simple_types@H@std@@@std@@@2@XZ ; std::list<int,std::allocator<int> >::end
PUBLIC	?_Make_iter@?$list@HV?$allocator@H@std@@@std@@QBE?AV?$_List_iterator@V?$_List_val@U?$_List_simple_types@H@std@@@std@@@2@PAU?$_List_node@HPAX@2@@Z ; std::list<int,std::allocator<int> >::_Make_iter
PUBLIC	?size@?$list@HV?$allocator@H@std@@@std@@QBEIXZ	; std::list<int,std::allocator<int> >::size
PUBLIC	?max_size@?$list@HV?$allocator@H@std@@@std@@QBEIXZ ; std::list<int,std::allocator<int> >::max_size
PUBLIC	?push_back@?$list@HV?$allocator@H@std@@@std@@QAEXABH@Z ; std::list<int,std::allocator<int> >::push_back
PUBLIC	?erase@?$list@HV?$allocator@H@std@@@std@@QAE?AV?$_List_iterator@V?$_List_val@U?$_List_simple_types@H@std@@@std@@@2@V?$_List_const_iterator@V?$_List_val@U?$_List_simple_types@H@std@@@std@@@2@@Z ; std::list<int,std::allocator<int> >::erase
PUBLIC	?clear@?$list@HV?$allocator@H@std@@@std@@QAEXXZ	; std::list<int,std::allocator<int> >::clear
PUBLIC	?_Tidy@?$list@HV?$allocator@H@std@@@std@@AAEXXZ	; std::list<int,std::allocator<int> >::_Tidy
PUBLIC	?_Alloc_sentinel_and_proxy@?$list@HV?$allocator@H@std@@@std@@AAEXXZ ; std::list<int,std::allocator<int> >::_Alloc_sentinel_and_proxy
PUBLIC	?_Getal@?$list@HV?$allocator@H@std@@@std@@AAEAAV?$allocator@U?$_List_node@HPAX@std@@@2@XZ ; std::list<int,std::allocator<int> >::_Getal
PUBLIC	?_Getal@?$list@HV?$allocator@H@std@@@std@@ABEABV?$allocator@U?$_List_node@HPAX@std@@@2@XZ ; std::list<int,std::allocator<int> >::_Getal
PUBLIC	??0?$_List_val@U?$_List_simple_types@H@std@@@std@@QAE@XZ ; std::_List_val<std::_List_simple_types<int> >::_List_val<std::_List_simple_types<int> >
PUBLIC	?_Orphan_ptr2@?$_List_val@U?$_List_simple_types@H@std@@@std@@QAEXPAU?$_List_node@HPAX@2@@Z ; std::_List_val<std::_List_simple_types<int> >::_Orphan_ptr2
PUBLIC	?_Orphan_non_end@?$_List_val@U?$_List_simple_types@H@std@@@std@@QAEXXZ ; std::_List_val<std::_List_simple_types<int> >::_Orphan_non_end
PUBLIC	?_Unlinknode@?$_List_val@U?$_List_simple_types@H@std@@@std@@QAEPAU?$_List_node@HPAX@2@PAU32@@Z ; std::_List_val<std::_List_simple_types<int> >::_Unlinknode
PUBLIC	?_Get_first@?$_Compressed_pair@V?$allocator@U?$_List_node@HPAX@std@@@std@@V?$_List_val@U?$_List_simple_types@H@std@@@2@$00@std@@QAEAAV?$allocator@U?$_List_node@HPAX@std@@@2@XZ ; std::_Compressed_pair<std::allocator<std::_List_node<int,void *> >,std::_List_val<std::_List_simple_types<int> >,1>::_Get_first
PUBLIC	?_Get_first@?$_Compressed_pair@V?$allocator@U?$_List_node@HPAX@std@@@std@@V?$_List_val@U?$_List_simple_types@H@std@@@2@$00@std@@QBEABV?$allocator@U?$_List_node@HPAX@std@@@2@XZ ; std::_Compressed_pair<std::allocator<std::_List_node<int,void *> >,std::_List_val<std::_List_simple_types<int> >,1>::_Get_first
PUBLIC	??0?$allocator@U?$_List_node@UREWARD_ITEM@@PAX@std@@@std@@QAE@XZ ; std::allocator<std::_List_node<REWARD_ITEM,void *> >::allocator<std::_List_node<REWARD_ITEM,void *> >
PUBLIC	?deallocate@?$allocator@U?$_List_node@UREWARD_ITEM@@PAX@std@@@std@@QAEXQAU?$_List_node@UREWARD_ITEM@@PAX@2@I@Z ; std::allocator<std::_List_node<REWARD_ITEM,void *> >::deallocate
PUBLIC	?allocate@?$allocator@U?$_List_node@UREWARD_ITEM@@PAX@std@@@std@@QAEPAU?$_List_node@UREWARD_ITEM@@PAX@2@I@Z ; std::allocator<std::_List_node<REWARD_ITEM,void *> >::allocate
PUBLIC	?deallocate@?$_Default_allocator_traits@V?$allocator@U?$_List_node@UREWARD_ITEM@@PAX@std@@@std@@@std@@SAXAAV?$allocator@U?$_List_node@UREWARD_ITEM@@PAX@std@@@2@QAU?$_List_node@UREWARD_ITEM@@PAX@2@I@Z ; std::_Default_allocator_traits<std::allocator<std::_List_node<REWARD_ITEM,void *> > >::deallocate
PUBLIC	?max_size@?$_Default_allocator_traits@V?$allocator@U?$_List_node@UREWARD_ITEM@@PAX@std@@@std@@@std@@SAIABV?$allocator@U?$_List_node@UREWARD_ITEM@@PAX@std@@@2@@Z ; std::_Default_allocator_traits<std::allocator<std::_List_node<REWARD_ITEM,void *> > >::max_size
PUBLIC	??0?$list@UREWARD_ITEM@@V?$allocator@UREWARD_ITEM@@@std@@@std@@QAE@XZ ; std::list<REWARD_ITEM,std::allocator<REWARD_ITEM> >::list<REWARD_ITEM,std::allocator<REWARD_ITEM> >
PUBLIC	??1?$list@UREWARD_ITEM@@V?$allocator@UREWARD_ITEM@@@std@@@std@@QAE@XZ ; std::list<REWARD_ITEM,std::allocator<REWARD_ITEM> >::~list<REWARD_ITEM,std::allocator<REWARD_ITEM> >
PUBLIC	?begin@?$list@UREWARD_ITEM@@V?$allocator@UREWARD_ITEM@@@std@@@std@@QAE?AV?$_List_iterator@V?$_List_val@U?$_List_simple_types@UREWARD_ITEM@@@std@@@std@@@2@XZ ; std::list<REWARD_ITEM,std::allocator<REWARD_ITEM> >::begin
PUBLIC	?end@?$list@UREWARD_ITEM@@V?$allocator@UREWARD_ITEM@@@std@@@std@@QAE?AV?$_List_iterator@V?$_List_val@U?$_List_simple_types@UREWARD_ITEM@@@std@@@std@@@2@XZ ; std::list<REWARD_ITEM,std::allocator<REWARD_ITEM> >::end
PUBLIC	?max_size@?$list@UREWARD_ITEM@@V?$allocator@UREWARD_ITEM@@@std@@@std@@QBEIXZ ; std::list<REWARD_ITEM,std::allocator<REWARD_ITEM> >::max_size
PUBLIC	?push_back@?$list@UREWARD_ITEM@@V?$allocator@UREWARD_ITEM@@@std@@@std@@QAEXABUREWARD_ITEM@@@Z ; std::list<REWARD_ITEM,std::allocator<REWARD_ITEM> >::push_back
PUBLIC	?clear@?$list@UREWARD_ITEM@@V?$allocator@UREWARD_ITEM@@@std@@@std@@QAEXXZ ; std::list<REWARD_ITEM,std::allocator<REWARD_ITEM> >::clear
PUBLIC	?_Tidy@?$list@UREWARD_ITEM@@V?$allocator@UREWARD_ITEM@@@std@@@std@@AAEXXZ ; std::list<REWARD_ITEM,std::allocator<REWARD_ITEM> >::_Tidy
PUBLIC	?_Alloc_sentinel_and_proxy@?$list@UREWARD_ITEM@@V?$allocator@UREWARD_ITEM@@@std@@@std@@AAEXXZ ; std::list<REWARD_ITEM,std::allocator<REWARD_ITEM> >::_Alloc_sentinel_and_proxy
PUBLIC	?_Getal@?$list@UREWARD_ITEM@@V?$allocator@UREWARD_ITEM@@@std@@@std@@AAEAAV?$allocator@U?$_List_node@UREWARD_ITEM@@PAX@std@@@2@XZ ; std::list<REWARD_ITEM,std::allocator<REWARD_ITEM> >::_Getal
PUBLIC	?_Getal@?$list@UREWARD_ITEM@@V?$allocator@UREWARD_ITEM@@@std@@@std@@ABEABV?$allocator@U?$_List_node@UREWARD_ITEM@@PAX@std@@@2@XZ ; std::list<REWARD_ITEM,std::allocator<REWARD_ITEM> >::_Getal
PUBLIC	??0?$_List_val@U?$_List_simple_types@UREWARD_ITEM@@@std@@@std@@QAE@XZ ; std::_List_val<std::_List_simple_types<REWARD_ITEM> >::_List_val<std::_List_simple_types<REWARD_ITEM> >
PUBLIC	?_Orphan_non_end@?$_List_val@U?$_List_simple_types@UREWARD_ITEM@@@std@@@std@@QAEXXZ ; std::_List_val<std::_List_simple_types<REWARD_ITEM> >::_Orphan_non_end
PUBLIC	?_Get_first@?$_Compressed_pair@V?$allocator@U?$_List_node@UREWARD_ITEM@@PAX@std@@@std@@V?$_List_val@U?$_List_simple_types@UREWARD_ITEM@@@std@@@2@$00@std@@QAEAAV?$allocator@U?$_List_node@UREWARD_ITEM@@PAX@std@@@2@XZ ; std::_Compressed_pair<std::allocator<std::_List_node<REWARD_ITEM,void *> >,std::_List_val<std::_List_simple_types<REWARD_ITEM> >,1>::_Get_first
PUBLIC	?_Get_first@?$_Compressed_pair@V?$allocator@U?$_List_node@UREWARD_ITEM@@PAX@std@@@std@@V?$_List_val@U?$_List_simple_types@UREWARD_ITEM@@@std@@@2@$00@std@@QBEABV?$allocator@U?$_List_node@UREWARD_ITEM@@PAX@std@@@2@XZ ; std::_Compressed_pair<std::allocator<std::_List_node<REWARD_ITEM,void *> >,std::_List_val<std::_List_simple_types<REWARD_ITEM> >,1>::_Get_first
PUBLIC	??0?$allocator@U?$_List_node@UEVENT_TIME@@PAX@std@@@std@@QAE@XZ ; std::allocator<std::_List_node<EVENT_TIME,void *> >::allocator<std::_List_node<EVENT_TIME,void *> >
PUBLIC	?deallocate@?$allocator@U?$_List_node@UEVENT_TIME@@PAX@std@@@std@@QAEXQAU?$_List_node@UEVENT_TIME@@PAX@2@I@Z ; std::allocator<std::_List_node<EVENT_TIME,void *> >::deallocate
PUBLIC	?allocate@?$allocator@U?$_List_node@UEVENT_TIME@@PAX@std@@@std@@QAEPAU?$_List_node@UEVENT_TIME@@PAX@2@I@Z ; std::allocator<std::_List_node<EVENT_TIME,void *> >::allocate
PUBLIC	?deallocate@?$_Default_allocator_traits@V?$allocator@U?$_List_node@UEVENT_TIME@@PAX@std@@@std@@@std@@SAXAAV?$allocator@U?$_List_node@UEVENT_TIME@@PAX@std@@@2@QAU?$_List_node@UEVENT_TIME@@PAX@2@I@Z ; std::_Default_allocator_traits<std::allocator<std::_List_node<EVENT_TIME,void *> > >::deallocate
PUBLIC	?max_size@?$_Default_allocator_traits@V?$allocator@U?$_List_node@UEVENT_TIME@@PAX@std@@@std@@@std@@SAIABV?$allocator@U?$_List_node@UEVENT_TIME@@PAX@std@@@2@@Z ; std::_Default_allocator_traits<std::allocator<std::_List_node<EVENT_TIME,void *> > >::max_size
PUBLIC	??0?$list@UEVENT_TIME@@V?$allocator@UEVENT_TIME@@@std@@@std@@QAE@XZ ; std::list<EVENT_TIME,std::allocator<EVENT_TIME> >::list<EVENT_TIME,std::allocator<EVENT_TIME> >
PUBLIC	??1?$list@UEVENT_TIME@@V?$allocator@UEVENT_TIME@@@std@@@std@@QAE@XZ ; std::list<EVENT_TIME,std::allocator<EVENT_TIME> >::~list<EVENT_TIME,std::allocator<EVENT_TIME> >
PUBLIC	?begin@?$list@UEVENT_TIME@@V?$allocator@UEVENT_TIME@@@std@@@std@@QAE?AV?$_List_iterator@V?$_List_val@U?$_List_simple_types@UEVENT_TIME@@@std@@@std@@@2@XZ ; std::list<EVENT_TIME,std::allocator<EVENT_TIME> >::begin
PUBLIC	?end@?$list@UEVENT_TIME@@V?$allocator@UEVENT_TIME@@@std@@@std@@QAE?AV?$_List_iterator@V?$_List_val@U?$_List_simple_types@UEVENT_TIME@@@std@@@std@@@2@XZ ; std::list<EVENT_TIME,std::allocator<EVENT_TIME> >::end
PUBLIC	?max_size@?$list@UEVENT_TIME@@V?$allocator@UEVENT_TIME@@@std@@@std@@QBEIXZ ; std::list<EVENT_TIME,std::allocator<EVENT_TIME> >::max_size
PUBLIC	?push_back@?$list@UEVENT_TIME@@V?$allocator@UEVENT_TIME@@@std@@@std@@QAEXABUEVENT_TIME@@@Z ; std::list<EVENT_TIME,std::allocator<EVENT_TIME> >::push_back
PUBLIC	?clear@?$list@UEVENT_TIME@@V?$allocator@UEVENT_TIME@@@std@@@std@@QAEXXZ ; std::list<EVENT_TIME,std::allocator<EVENT_TIME> >::clear
PUBLIC	?_Tidy@?$list@UEVENT_TIME@@V?$allocator@UEVENT_TIME@@@std@@@std@@AAEXXZ ; std::list<EVENT_TIME,std::allocator<EVENT_TIME> >::_Tidy
PUBLIC	?_Alloc_sentinel_and_proxy@?$list@UEVENT_TIME@@V?$allocator@UEVENT_TIME@@@std@@@std@@AAEXXZ ; std::list<EVENT_TIME,std::allocator<EVENT_TIME> >::_Alloc_sentinel_and_proxy
PUBLIC	?_Getal@?$list@UEVENT_TIME@@V?$allocator@UEVENT_TIME@@@std@@@std@@AAEAAV?$allocator@U?$_List_node@UEVENT_TIME@@PAX@std@@@2@XZ ; std::list<EVENT_TIME,std::allocator<EVENT_TIME> >::_Getal
PUBLIC	?_Getal@?$list@UEVENT_TIME@@V?$allocator@UEVENT_TIME@@@std@@@std@@ABEABV?$allocator@U?$_List_node@UEVENT_TIME@@PAX@std@@@2@XZ ; std::list<EVENT_TIME,std::allocator<EVENT_TIME> >::_Getal
PUBLIC	??0?$_List_val@U?$_List_simple_types@UEVENT_TIME@@@std@@@std@@QAE@XZ ; std::_List_val<std::_List_simple_types<EVENT_TIME> >::_List_val<std::_List_simple_types<EVENT_TIME> >
PUBLIC	?_Orphan_non_end@?$_List_val@U?$_List_simple_types@UEVENT_TIME@@@std@@@std@@QAEXXZ ; std::_List_val<std::_List_simple_types<EVENT_TIME> >::_Orphan_non_end
PUBLIC	?_Get_first@?$_Compressed_pair@V?$allocator@U?$_List_node@UEVENT_TIME@@PAX@std@@@std@@V?$_List_val@U?$_List_simple_types@UEVENT_TIME@@@std@@@2@$00@std@@QAEAAV?$allocator@U?$_List_node@UEVENT_TIME@@PAX@std@@@2@XZ ; std::_Compressed_pair<std::allocator<std::_List_node<EVENT_TIME,void *> >,std::_List_val<std::_List_simple_types<EVENT_TIME> >,1>::_Get_first
PUBLIC	?_Get_first@?$_Compressed_pair@V?$allocator@U?$_List_node@UEVENT_TIME@@PAX@std@@@std@@V?$_List_val@U?$_List_simple_types@UEVENT_TIME@@@std@@@2@$00@std@@QBEABV?$allocator@U?$_List_node@UEVENT_TIME@@PAX@std@@@2@XZ ; std::_Compressed_pair<std::allocator<std::_List_node<EVENT_TIME,void *> >,std::_List_val<std::_List_simple_types<EVENT_TIME> >,1>::_Get_first
PUBLIC	??$min@I@std@@YAABIABI0@Z			; std::min<unsigned int>
PUBLIC	??$_Deallocate@$07$0A@@std@@YAXPAXI@Z		; std::_Deallocate<8,0>
PUBLIC	??$_Allocate@$07U_Default_allocate_traits@std@@$0A@@std@@YAPAXI@Z ; std::_Allocate<8,std::_Default_allocate_traits,0>
PUBLIC	??$_Allocate_manually_vector_aligned@U_Default_allocate_traits@std@@@std@@YAPAXI@Z ; std::_Allocate_manually_vector_aligned<std::_Default_allocate_traits>
PUBLIC	??0?$_List_unchecked_const_iterator@V?$_List_val@U?$_List_simple_types@H@std@@@std@@U_Iterator_base0@2@@std@@QAE@PAU?$_List_node@HPAX@1@PBV?$_List_val@U?$_List_simple_types@H@std@@@1@@Z ; std::_List_unchecked_const_iterator<std::_List_val<std::_List_simple_types<int> >,std::_Iterator_base0>::_List_unchecked_const_iterator<std::_List_val<std::_List_simple_types<int> >,std::_Iterator_base0>
PUBLIC	??D?$_List_const_iterator@V?$_List_val@U?$_List_simple_types@H@std@@@std@@@std@@QBEABHXZ ; std::_List_const_iterator<std::_List_val<std::_List_simple_types<int> > >::operator*
PUBLIC	??E?$_List_const_iterator@V?$_List_val@U?$_List_simple_types@H@std@@@std@@@std@@QAEAAV01@XZ ; std::_List_const_iterator<std::_List_val<std::_List_simple_types<int> > >::operator++
PUBLIC	??8?$_List_const_iterator@V?$_List_val@U?$_List_simple_types@H@std@@@std@@@std@@QBE_NABV01@@Z ; std::_List_const_iterator<std::_List_val<std::_List_simple_types<int> > >::operator==
PUBLIC	??9?$_List_const_iterator@V?$_List_val@U?$_List_simple_types@H@std@@@std@@@std@@QBE_NABV01@@Z ; std::_List_const_iterator<std::_List_val<std::_List_simple_types<int> > >::operator!=
PUBLIC	??0?$_List_const_iterator@V?$_List_val@U?$_List_simple_types@H@std@@@std@@@std@@QAE@PAU?$_List_node@HPAX@1@PBV?$_List_val@U?$_List_simple_types@H@std@@@1@@Z ; std::_List_const_iterator<std::_List_val<std::_List_simple_types<int> > >::_List_const_iterator<std::_List_val<std::_List_simple_types<int> > >
PUBLIC	??D?$_List_iterator@V?$_List_val@U?$_List_simple_types@H@std@@@std@@@std@@QBEAAHXZ ; std::_List_iterator<std::_List_val<std::_List_simple_types<int> > >::operator*
PUBLIC	??E?$_List_iterator@V?$_List_val@U?$_List_simple_types@H@std@@@std@@@std@@QAEAAV01@XZ ; std::_List_iterator<std::_List_val<std::_List_simple_types<int> > >::operator++
PUBLIC	??0?$_List_iterator@V?$_List_val@U?$_List_simple_types@H@std@@@std@@@std@@QAE@PAU?$_List_node@HPAX@1@PBV?$_List_val@U?$_List_simple_types@H@std@@@1@@Z ; std::_List_iterator<std::_List_val<std::_List_simple_types<int> > >::_List_iterator<std::_List_val<std::_List_simple_types<int> > >
PUBLIC	??0?$_List_unchecked_const_iterator@V?$_List_val@U?$_List_simple_types@UEVENT_TIME@@@std@@@std@@U_Iterator_base0@2@@std@@QAE@PAU?$_List_node@UEVENT_TIME@@PAX@1@PBV?$_List_val@U?$_List_simple_types@UEVENT_TIME@@@std@@@1@@Z ; std::_List_unchecked_const_iterator<std::_List_val<std::_List_simple_types<EVENT_TIME> >,std::_Iterator_base0>::_List_unchecked_const_iterator<std::_List_val<std::_List_simple_types<EVENT_TIME> >,std::_Iterator_base0>
PUBLIC	??D?$_List_const_iterator@V?$_List_val@U?$_List_simple_types@UEVENT_TIME@@@std@@@std@@@std@@QBEABUEVENT_TIME@@XZ ; std::_List_const_iterator<std::_List_val<std::_List_simple_types<EVENT_TIME> > >::operator*
PUBLIC	??E?$_List_const_iterator@V?$_List_val@U?$_List_simple_types@UEVENT_TIME@@@std@@@std@@@std@@QAEAAV01@XZ ; std::_List_const_iterator<std::_List_val<std::_List_simple_types<EVENT_TIME> > >::operator++
PUBLIC	??8?$_List_const_iterator@V?$_List_val@U?$_List_simple_types@UEVENT_TIME@@@std@@@std@@@std@@QBE_NABV01@@Z ; std::_List_const_iterator<std::_List_val<std::_List_simple_types<EVENT_TIME> > >::operator==
PUBLIC	??9?$_List_const_iterator@V?$_List_val@U?$_List_simple_types@UEVENT_TIME@@@std@@@std@@@std@@QBE_NABV01@@Z ; std::_List_const_iterator<std::_List_val<std::_List_simple_types<EVENT_TIME> > >::operator!=
PUBLIC	??0?$_List_const_iterator@V?$_List_val@U?$_List_simple_types@UEVENT_TIME@@@std@@@std@@@std@@QAE@PAU?$_List_node@UEVENT_TIME@@PAX@1@PBV?$_List_val@U?$_List_simple_types@UEVENT_TIME@@@std@@@1@@Z ; std::_List_const_iterator<std::_List_val<std::_List_simple_types<EVENT_TIME> > >::_List_const_iterator<std::_List_val<std::_List_simple_types<EVENT_TIME> > >
PUBLIC	??D?$_List_iterator@V?$_List_val@U?$_List_simple_types@UEVENT_TIME@@@std@@@std@@@std@@QBEAAUEVENT_TIME@@XZ ; std::_List_iterator<std::_List_val<std::_List_simple_types<EVENT_TIME> > >::operator*
PUBLIC	??E?$_List_iterator@V?$_List_val@U?$_List_simple_types@UEVENT_TIME@@@std@@@std@@@std@@QAEAAV01@XZ ; std::_List_iterator<std::_List_val<std::_List_simple_types<EVENT_TIME> > >::operator++
PUBLIC	??0?$_List_iterator@V?$_List_val@U?$_List_simple_types@UEVENT_TIME@@@std@@@std@@@std@@QAE@PAU?$_List_node@UEVENT_TIME@@PAX@1@PBV?$_List_val@U?$_List_simple_types@UEVENT_TIME@@@std@@@1@@Z ; std::_List_iterator<std::_List_val<std::_List_simple_types<EVENT_TIME> > >::_List_iterator<std::_List_val<std::_List_simple_types<EVENT_TIME> > >
PUBLIC	??0?$_List_unchecked_const_iterator@V?$_List_val@U?$_List_simple_types@UREWARD_ITEM@@@std@@@std@@U_Iterator_base0@2@@std@@QAE@PAU?$_List_node@UREWARD_ITEM@@PAX@1@PBV?$_List_val@U?$_List_simple_types@UREWARD_ITEM@@@std@@@1@@Z ; std::_List_unchecked_const_iterator<std::_List_val<std::_List_simple_types<REWARD_ITEM> >,std::_Iterator_base0>::_List_unchecked_const_iterator<std::_List_val<std::_List_simple_types<REWARD_ITEM> >,std::_Iterator_base0>
PUBLIC	??D?$_List_const_iterator@V?$_List_val@U?$_List_simple_types@UREWARD_ITEM@@@std@@@std@@@std@@QBEABUREWARD_ITEM@@XZ ; std::_List_const_iterator<std::_List_val<std::_List_simple_types<REWARD_ITEM> > >::operator*
PUBLIC	??E?$_List_const_iterator@V?$_List_val@U?$_List_simple_types@UREWARD_ITEM@@@std@@@std@@@std@@QAEAAV01@XZ ; std::_List_const_iterator<std::_List_val<std::_List_simple_types<REWARD_ITEM> > >::operator++
PUBLIC	??8?$_List_const_iterator@V?$_List_val@U?$_List_simple_types@UREWARD_ITEM@@@std@@@std@@@std@@QBE_NABV01@@Z ; std::_List_const_iterator<std::_List_val<std::_List_simple_types<REWARD_ITEM> > >::operator==
PUBLIC	??9?$_List_const_iterator@V?$_List_val@U?$_List_simple_types@UREWARD_ITEM@@@std@@@std@@@std@@QBE_NABV01@@Z ; std::_List_const_iterator<std::_List_val<std::_List_simple_types<REWARD_ITEM> > >::operator!=
PUBLIC	??0?$_List_const_iterator@V?$_List_val@U?$_List_simple_types@UREWARD_ITEM@@@std@@@std@@@std@@QAE@PAU?$_List_node@UREWARD_ITEM@@PAX@1@PBV?$_List_val@U?$_List_simple_types@UREWARD_ITEM@@@std@@@1@@Z ; std::_List_const_iterator<std::_List_val<std::_List_simple_types<REWARD_ITEM> > >::_List_const_iterator<std::_List_val<std::_List_simple_types<REWARD_ITEM> > >
PUBLIC	??D?$_List_iterator@V?$_List_val@U?$_List_simple_types@UREWARD_ITEM@@@std@@@std@@@std@@QBEAAUREWARD_ITEM@@XZ ; std::_List_iterator<std::_List_val<std::_List_simple_types<REWARD_ITEM> > >::operator*
PUBLIC	??E?$_List_iterator@V?$_List_val@U?$_List_simple_types@UREWARD_ITEM@@@std@@@std@@@std@@QAEAAV01@XZ ; std::_List_iterator<std::_List_val<std::_List_simple_types<REWARD_ITEM> > >::operator++
PUBLIC	??0?$_List_iterator@V?$_List_val@U?$_List_simple_types@UREWARD_ITEM@@@std@@@std@@@std@@QAE@PAU?$_List_node@UREWARD_ITEM@@PAX@1@PBV?$_List_val@U?$_List_simple_types@UREWARD_ITEM@@@std@@@1@@Z ; std::_List_iterator<std::_List_val<std::_List_simple_types<REWARD_ITEM> > >::_List_iterator<std::_List_val<std::_List_simple_types<REWARD_ITEM> > >
PUBLIC	??$_Free_non_head@V?$allocator@U?$_List_node@UEVENT_TIME@@PAX@std@@@std@@@?$_List_node@UEVENT_TIME@@PAX@std@@SAXAAV?$allocator@U?$_List_node@UEVENT_TIME@@PAX@std@@@1@PAU01@@Z ; std::_List_node<EVENT_TIME,void *>::_Free_non_head<std::allocator<std::_List_node<EVENT_TIME,void *> > >
PUBLIC	??$_Emplace@ABUEVENT_TIME@@@?$list@UEVENT_TIME@@V?$allocator@UEVENT_TIME@@@std@@@std@@QAEPAU?$_List_node@UEVENT_TIME@@PAX@1@QAU21@ABUEVENT_TIME@@@Z ; std::list<EVENT_TIME,std::allocator<EVENT_TIME> >::_Emplace<EVENT_TIME const &>
PUBLIC	??$addressof@V?$_List_val@U?$_List_simple_types@UEVENT_TIME@@@std@@@std@@@std@@YAPAV?$_List_val@U?$_List_simple_types@UEVENT_TIME@@@std@@@0@AAV10@@Z ; std::addressof<std::_List_val<std::_List_simple_types<EVENT_TIME> > >
PUBLIC	??$?0$$V@?$_Compressed_pair@V?$allocator@U?$_List_node@UEVENT_TIME@@PAX@std@@@std@@V?$_List_val@U?$_List_simple_types@UEVENT_TIME@@@std@@@2@$00@std@@QAE@U_Zero_then_variadic_args_t@1@@Z ; std::_Compressed_pair<std::allocator<std::_List_node<EVENT_TIME,void *> >,std::_List_val<std::_List_simple_types<EVENT_TIME> >,1>::_Compressed_pair<std::allocator<std::_List_node<EVENT_TIME,void *> >,std::_List_val<std::_List_simple_types<EVENT_TIME> >,1><>
PUBLIC	??$_Free_non_head@V?$allocator@U?$_List_node@UREWARD_ITEM@@PAX@std@@@std@@@?$_List_node@UREWARD_ITEM@@PAX@std@@SAXAAV?$allocator@U?$_List_node@UREWARD_ITEM@@PAX@std@@@1@PAU01@@Z ; std::_List_node<REWARD_ITEM,void *>::_Free_non_head<std::allocator<std::_List_node<REWARD_ITEM,void *> > >
PUBLIC	??$_Emplace@ABUREWARD_ITEM@@@?$list@UREWARD_ITEM@@V?$allocator@UREWARD_ITEM@@@std@@@std@@QAEPAU?$_List_node@UREWARD_ITEM@@PAX@1@QAU21@ABUREWARD_ITEM@@@Z ; std::list<REWARD_ITEM,std::allocator<REWARD_ITEM> >::_Emplace<REWARD_ITEM const &>
PUBLIC	??$addressof@V?$_List_val@U?$_List_simple_types@UREWARD_ITEM@@@std@@@std@@@std@@YAPAV?$_List_val@U?$_List_simple_types@UREWARD_ITEM@@@std@@@0@AAV10@@Z ; std::addressof<std::_List_val<std::_List_simple_types<REWARD_ITEM> > >
PUBLIC	??$?0$$V@?$_Compressed_pair@V?$allocator@U?$_List_node@UREWARD_ITEM@@PAX@std@@@std@@V?$_List_val@U?$_List_simple_types@UREWARD_ITEM@@@std@@@2@$00@std@@QAE@U_Zero_then_variadic_args_t@1@@Z ; std::_Compressed_pair<std::allocator<std::_List_node<REWARD_ITEM,void *> >,std::_List_val<std::_List_simple_types<REWARD_ITEM> >,1>::_Compressed_pair<std::allocator<std::_List_node<REWARD_ITEM,void *> >,std::_List_val<std::_List_simple_types<REWARD_ITEM> >,1><>
PUBLIC	??$_Free_non_head@V?$allocator@U?$_List_node@HPAX@std@@@std@@@?$_List_node@HPAX@std@@SAXAAV?$allocator@U?$_List_node@HPAX@std@@@1@PAU01@@Z ; std::_List_node<int,void *>::_Free_non_head<std::allocator<std::_List_node<int,void *> > >
PUBLIC	??$_Freenode@V?$allocator@U?$_List_node@HPAX@std@@@std@@@?$_List_node@HPAX@std@@SAXAAV?$allocator@U?$_List_node@HPAX@std@@@1@PAU01@@Z ; std::_List_node<int,void *>::_Freenode<std::allocator<std::_List_node<int,void *> > >
PUBLIC	??$_Emplace@ABH@?$list@HV?$allocator@H@std@@@std@@QAEPAU?$_List_node@HPAX@1@QAU21@ABH@Z ; std::list<int,std::allocator<int> >::_Emplace<int const &>
PUBLIC	??$addressof@V?$_List_val@U?$_List_simple_types@H@std@@@std@@@std@@YAPAV?$_List_val@U?$_List_simple_types@H@std@@@0@AAV10@@Z ; std::addressof<std::_List_val<std::_List_simple_types<int> > >
PUBLIC	??$?0$$V@?$_Compressed_pair@V?$allocator@U?$_List_node@HPAX@std@@@std@@V?$_List_val@U?$_List_simple_types@H@std@@@2@$00@std@@QAE@U_Zero_then_variadic_args_t@1@@Z ; std::_Compressed_pair<std::allocator<std::_List_node<int,void *> >,std::_List_val<std::_List_simple_types<int> >,1>::_Compressed_pair<std::allocator<std::_List_node<int,void *> >,std::_List_val<std::_List_simple_types<int> >,1><>
PUBLIC	??$_Construct_in_place@PAU?$_List_node@UEVENT_TIME@@PAX@std@@AAPAU12@@std@@YAXAAPAU?$_List_node@UEVENT_TIME@@PAX@0@0@Z ; std::_Construct_in_place<std::_List_node<EVENT_TIME,void *> *,std::_List_node<EVENT_TIME,void *> * &>
PUBLIC	??$_Freenode0@V?$allocator@U?$_List_node@UEVENT_TIME@@PAX@std@@@std@@@?$_List_node@UEVENT_TIME@@PAX@std@@SAXAAV?$allocator@U?$_List_node@UEVENT_TIME@@PAX@std@@@1@PAU01@@Z ; std::_List_node<EVENT_TIME,void *>::_Freenode0<std::allocator<std::_List_node<EVENT_TIME,void *> > >
PUBLIC	??$_Construct_in_place@PAU?$_List_node@UREWARD_ITEM@@PAX@std@@AAPAU12@@std@@YAXAAPAU?$_List_node@UREWARD_ITEM@@PAX@0@0@Z ; std::_Construct_in_place<std::_List_node<REWARD_ITEM,void *> *,std::_List_node<REWARD_ITEM,void *> * &>
PUBLIC	??$_Freenode0@V?$allocator@U?$_List_node@UREWARD_ITEM@@PAX@std@@@std@@@?$_List_node@UREWARD_ITEM@@PAX@std@@SAXAAV?$allocator@U?$_List_node@UREWARD_ITEM@@PAX@std@@@1@PAU01@@Z ; std::_List_node<REWARD_ITEM,void *>::_Freenode0<std::allocator<std::_List_node<REWARD_ITEM,void *> > >
PUBLIC	??$_Construct_in_place@PAU?$_List_node@HPAX@std@@AAPAU12@@std@@YAXAAPAU?$_List_node@HPAX@0@0@Z ; std::_Construct_in_place<std::_List_node<int,void *> *,std::_List_node<int,void *> * &>
PUBLIC	??$_Freenode0@V?$allocator@U?$_List_node@HPAX@std@@@std@@@?$_List_node@HPAX@std@@SAXAAV?$allocator@U?$_List_node@HPAX@std@@@1@PAU01@@Z ; std::_List_node<int,void *>::_Freenode0<std::allocator<std::_List_node<int,void *> > >
PUBLIC	??$addressof@$$CBV?$_List_val@U?$_List_simple_types@H@std@@@std@@@std@@YAPBV?$_List_val@U?$_List_simple_types@H@std@@@0@ABV10@@Z ; std::addressof<std::_List_val<std::_List_simple_types<int> > const >
PUBLIC	??$_Get_size_of_n@$0BA@@std@@YAII@Z		; std::_Get_size_of_n<16>
PUBLIC	??$_Get_size_of_n@$0CA@@std@@YAII@Z		; std::_Get_size_of_n<32>
PUBLIC	??$_Get_size_of_n@$0M@@std@@YAII@Z		; std::_Get_size_of_n<12>
PUBLIC	??$_Freenode@V?$allocator@U?$_List_node@UEVENT_TIME@@PAX@std@@@std@@@?$_List_node@UEVENT_TIME@@PAX@std@@SAXAAV?$allocator@U?$_List_node@UEVENT_TIME@@PAX@std@@@1@PAU01@@Z ; std::_List_node<EVENT_TIME,void *>::_Freenode<std::allocator<std::_List_node<EVENT_TIME,void *> > >
PUBLIC	??0?$_Alloc_construct_ptr@V?$allocator@U?$_List_node@UEVENT_TIME@@PAX@std@@@std@@@std@@QAE@AAV?$allocator@U?$_List_node@UEVENT_TIME@@PAX@std@@@1@@Z ; std::_Alloc_construct_ptr<std::allocator<std::_List_node<EVENT_TIME,void *> > >::_Alloc_construct_ptr<std::allocator<std::_List_node<EVENT_TIME,void *> > >
PUBLIC	?_Allocate@?$_Alloc_construct_ptr@V?$allocator@U?$_List_node@UEVENT_TIME@@PAX@std@@@std@@@std@@QAEXXZ ; std::_Alloc_construct_ptr<std::allocator<std::_List_node<EVENT_TIME,void *> > >::_Allocate
PUBLIC	??1?$_Alloc_construct_ptr@V?$allocator@U?$_List_node@UEVENT_TIME@@PAX@std@@@std@@@std@@QAE@XZ ; std::_Alloc_construct_ptr<std::allocator<std::_List_node<EVENT_TIME,void *> > >::~_Alloc_construct_ptr<std::allocator<std::_List_node<EVENT_TIME,void *> > >
PUBLIC	??1?$_List_node_emplace_op2@V?$allocator@U?$_List_node@UEVENT_TIME@@PAX@std@@@std@@@std@@QAE@XZ ; std::_List_node_emplace_op2<std::allocator<std::_List_node<EVENT_TIME,void *> > >::~_List_node_emplace_op2<std::allocator<std::_List_node<EVENT_TIME,void *> > >
PUBLIC	?_Transfer_before@?$_List_node_emplace_op2@V?$allocator@U?$_List_node@UEVENT_TIME@@PAX@std@@@std@@@std@@QAEPAU?$_List_node@UEVENT_TIME@@PAX@2@QAU32@@Z ; std::_List_node_emplace_op2<std::allocator<std::_List_node<EVENT_TIME,void *> > >::_Transfer_before
PUBLIC	??$forward@ABUEVENT_TIME@@@std@@YAABUEVENT_TIME@@ABU1@@Z ; std::forward<EVENT_TIME const &>
PUBLIC	??$?0ABUEVENT_TIME@@@?$_List_node_emplace_op2@V?$allocator@U?$_List_node@UEVENT_TIME@@PAX@std@@@std@@@std@@QAE@AAV?$allocator@U?$_List_node@UEVENT_TIME@@PAX@std@@@1@ABUEVENT_TIME@@@Z ; std::_List_node_emplace_op2<std::allocator<std::_List_node<EVENT_TIME,void *> > >::_List_node_emplace_op2<std::allocator<std::_List_node<EVENT_TIME,void *> > ><EVENT_TIME const &>
PUBLIC	??$_Freenode@V?$allocator@U?$_List_node@UREWARD_ITEM@@PAX@std@@@std@@@?$_List_node@UREWARD_ITEM@@PAX@std@@SAXAAV?$allocator@U?$_List_node@UREWARD_ITEM@@PAX@std@@@1@PAU01@@Z ; std::_List_node<REWARD_ITEM,void *>::_Freenode<std::allocator<std::_List_node<REWARD_ITEM,void *> > >
PUBLIC	??0?$_Alloc_construct_ptr@V?$allocator@U?$_List_node@UREWARD_ITEM@@PAX@std@@@std@@@std@@QAE@AAV?$allocator@U?$_List_node@UREWARD_ITEM@@PAX@std@@@1@@Z ; std::_Alloc_construct_ptr<std::allocator<std::_List_node<REWARD_ITEM,void *> > >::_Alloc_construct_ptr<std::allocator<std::_List_node<REWARD_ITEM,void *> > >
PUBLIC	?_Allocate@?$_Alloc_construct_ptr@V?$allocator@U?$_List_node@UREWARD_ITEM@@PAX@std@@@std@@@std@@QAEXXZ ; std::_Alloc_construct_ptr<std::allocator<std::_List_node<REWARD_ITEM,void *> > >::_Allocate
PUBLIC	??1?$_Alloc_construct_ptr@V?$allocator@U?$_List_node@UREWARD_ITEM@@PAX@std@@@std@@@std@@QAE@XZ ; std::_Alloc_construct_ptr<std::allocator<std::_List_node<REWARD_ITEM,void *> > >::~_Alloc_construct_ptr<std::allocator<std::_List_node<REWARD_ITEM,void *> > >
PUBLIC	??1?$_List_node_emplace_op2@V?$allocator@U?$_List_node@UREWARD_ITEM@@PAX@std@@@std@@@std@@QAE@XZ ; std::_List_node_emplace_op2<std::allocator<std::_List_node<REWARD_ITEM,void *> > >::~_List_node_emplace_op2<std::allocator<std::_List_node<REWARD_ITEM,void *> > >
PUBLIC	?_Transfer_before@?$_List_node_emplace_op2@V?$allocator@U?$_List_node@UREWARD_ITEM@@PAX@std@@@std@@@std@@QAEPAU?$_List_node@UREWARD_ITEM@@PAX@2@QAU32@@Z ; std::_List_node_emplace_op2<std::allocator<std::_List_node<REWARD_ITEM,void *> > >::_Transfer_before
PUBLIC	??$forward@ABUREWARD_ITEM@@@std@@YAABUREWARD_ITEM@@ABU1@@Z ; std::forward<REWARD_ITEM const &>
PUBLIC	??$?0ABUREWARD_ITEM@@@?$_List_node_emplace_op2@V?$allocator@U?$_List_node@UREWARD_ITEM@@PAX@std@@@std@@@std@@QAE@AAV?$allocator@U?$_List_node@UREWARD_ITEM@@PAX@std@@@1@ABUREWARD_ITEM@@@Z ; std::_List_node_emplace_op2<std::allocator<std::_List_node<REWARD_ITEM,void *> > >::_List_node_emplace_op2<std::allocator<std::_List_node<REWARD_ITEM,void *> > ><REWARD_ITEM const &>
PUBLIC	??$addressof@H@std@@YAPAHAAH@Z			; std::addressof<int>
PUBLIC	??$destroy@H@?$_Default_allocator_traits@V?$allocator@U?$_List_node@HPAX@std@@@std@@@std@@SAXAAV?$allocator@U?$_List_node@HPAX@std@@@1@QAH@Z ; std::_Default_allocator_traits<std::allocator<std::_List_node<int,void *> > >::destroy<int>
PUBLIC	??0?$_Alloc_construct_ptr@V?$allocator@U?$_List_node@HPAX@std@@@std@@@std@@QAE@AAV?$allocator@U?$_List_node@HPAX@std@@@1@@Z ; std::_Alloc_construct_ptr<std::allocator<std::_List_node<int,void *> > >::_Alloc_construct_ptr<std::allocator<std::_List_node<int,void *> > >
PUBLIC	?_Allocate@?$_Alloc_construct_ptr@V?$allocator@U?$_List_node@HPAX@std@@@std@@@std@@QAEXXZ ; std::_Alloc_construct_ptr<std::allocator<std::_List_node<int,void *> > >::_Allocate
PUBLIC	??1?$_Alloc_construct_ptr@V?$allocator@U?$_List_node@HPAX@std@@@std@@@std@@QAE@XZ ; std::_Alloc_construct_ptr<std::allocator<std::_List_node<int,void *> > >::~_Alloc_construct_ptr<std::allocator<std::_List_node<int,void *> > >
PUBLIC	??1?$_List_node_emplace_op2@V?$allocator@U?$_List_node@HPAX@std@@@std@@@std@@QAE@XZ ; std::_List_node_emplace_op2<std::allocator<std::_List_node<int,void *> > >::~_List_node_emplace_op2<std::allocator<std::_List_node<int,void *> > >
PUBLIC	?_Transfer_before@?$_List_node_emplace_op2@V?$allocator@U?$_List_node@HPAX@std@@@std@@@std@@QAEPAU?$_List_node@HPAX@2@QAU32@@Z ; std::_List_node_emplace_op2<std::allocator<std::_List_node<int,void *> > >::_Transfer_before
PUBLIC	??$forward@ABH@std@@YAABHABH@Z			; std::forward<int const &>
PUBLIC	??$?0ABH@?$_List_node_emplace_op2@V?$allocator@U?$_List_node@HPAX@std@@@std@@@std@@QAE@AAV?$allocator@U?$_List_node@HPAX@std@@@1@ABH@Z ; std::_List_node_emplace_op2<std::allocator<std::_List_node<int,void *> > >::_List_node_emplace_op2<std::allocator<std::_List_node<int,void *> > ><int const &>
PUBLIC	??$addressof@PAU?$_List_node@UEVENT_TIME@@PAX@std@@@std@@YAPAPAU?$_List_node@UEVENT_TIME@@PAX@0@AAPAU10@@Z ; std::addressof<std::_List_node<EVENT_TIME,void *> *>
PUBLIC	??$forward@AAPAU?$_List_node@UEVENT_TIME@@PAX@std@@@std@@YAAAPAU?$_List_node@UEVENT_TIME@@PAX@0@AAPAU10@@Z ; std::forward<std::_List_node<EVENT_TIME,void *> * &>
PUBLIC	??$_Destroy_in_place@PAU?$_List_node@UEVENT_TIME@@PAX@std@@@std@@YAXAAPAU?$_List_node@UEVENT_TIME@@PAX@0@@Z ; std::_Destroy_in_place<std::_List_node<EVENT_TIME,void *> *>
PUBLIC	??$addressof@PAU?$_List_node@UREWARD_ITEM@@PAX@std@@@std@@YAPAPAU?$_List_node@UREWARD_ITEM@@PAX@0@AAPAU10@@Z ; std::addressof<std::_List_node<REWARD_ITEM,void *> *>
PUBLIC	??$forward@AAPAU?$_List_node@UREWARD_ITEM@@PAX@std@@@std@@YAAAPAU?$_List_node@UREWARD_ITEM@@PAX@0@AAPAU10@@Z ; std::forward<std::_List_node<REWARD_ITEM,void *> * &>
PUBLIC	??$_Destroy_in_place@PAU?$_List_node@UREWARD_ITEM@@PAX@std@@@std@@YAXAAPAU?$_List_node@UREWARD_ITEM@@PAX@0@@Z ; std::_Destroy_in_place<std::_List_node<REWARD_ITEM,void *> *>
PUBLIC	??$addressof@PAU?$_List_node@HPAX@std@@@std@@YAPAPAU?$_List_node@HPAX@0@AAPAU10@@Z ; std::addressof<std::_List_node<int,void *> *>
PUBLIC	??$forward@AAPAU?$_List_node@HPAX@std@@@std@@YAAAPAU?$_List_node@HPAX@0@AAPAU10@@Z ; std::forward<std::_List_node<int,void *> * &>
PUBLIC	??$_Destroy_in_place@PAU?$_List_node@HPAX@std@@@std@@YAXAAPAU?$_List_node@HPAX@0@@Z ; std::_Destroy_in_place<std::_List_node<int,void *> *>
PUBLIC	??$_Construct_in_place@PAU?$_List_node@HPAX@std@@ABQAU12@@std@@YAXAAPAU?$_List_node@HPAX@0@ABQAU10@@Z ; std::_Construct_in_place<std::_List_node<int,void *> *,std::_List_node<int,void *> * const &>
PUBLIC	??$_Construct_in_place@PAU?$_List_node@UREWARD_ITEM@@PAX@std@@ABQAU12@@std@@YAXAAPAU?$_List_node@UREWARD_ITEM@@PAX@0@ABQAU10@@Z ; std::_Construct_in_place<std::_List_node<REWARD_ITEM,void *> *,std::_List_node<REWARD_ITEM,void *> * const &>
PUBLIC	??$addressof@UREWARD_ITEM@@@std@@YAPAUREWARD_ITEM@@AAU1@@Z ; std::addressof<REWARD_ITEM>
PUBLIC	??$destroy@UREWARD_ITEM@@@?$_Default_allocator_traits@V?$allocator@U?$_List_node@UREWARD_ITEM@@PAX@std@@@std@@@std@@SAXAAV?$allocator@U?$_List_node@UREWARD_ITEM@@PAX@std@@@1@QAUREWARD_ITEM@@@Z ; std::_Default_allocator_traits<std::allocator<std::_List_node<REWARD_ITEM,void *> > >::destroy<REWARD_ITEM>
PUBLIC	??$_Construct_in_place@PAU?$_List_node@UEVENT_TIME@@PAX@std@@ABQAU12@@std@@YAXAAPAU?$_List_node@UEVENT_TIME@@PAX@0@ABQAU10@@Z ; std::_Construct_in_place<std::_List_node<EVENT_TIME,void *> *,std::_List_node<EVENT_TIME,void *> * const &>
PUBLIC	??$addressof@UEVENT_TIME@@@std@@YAPAUEVENT_TIME@@AAU1@@Z ; std::addressof<EVENT_TIME>
PUBLIC	??$destroy@UEVENT_TIME@@@?$_Default_allocator_traits@V?$allocator@U?$_List_node@UEVENT_TIME@@PAX@std@@@std@@@std@@SAXAAV?$allocator@U?$_List_node@UEVENT_TIME@@PAX@std@@@1@QAUEVENT_TIME@@@Z ; std::_Default_allocator_traits<std::allocator<std::_List_node<EVENT_TIME,void *> > >::destroy<EVENT_TIME>
PUBLIC	??$construct@UEVENT_TIME@@ABU1@@?$_Default_allocator_traits@V?$allocator@U?$_List_node@UEVENT_TIME@@PAX@std@@@std@@@std@@SAXAAV?$allocator@U?$_List_node@UEVENT_TIME@@PAX@std@@@1@QAUEVENT_TIME@@ABU3@@Z ; std::_Default_allocator_traits<std::allocator<std::_List_node<EVENT_TIME,void *> > >::construct<EVENT_TIME,EVENT_TIME const &>
PUBLIC	??$construct@UREWARD_ITEM@@ABU1@@?$_Default_allocator_traits@V?$allocator@U?$_List_node@UREWARD_ITEM@@PAX@std@@@std@@@std@@SAXAAV?$allocator@U?$_List_node@UREWARD_ITEM@@PAX@std@@@1@QAUREWARD_ITEM@@ABU3@@Z ; std::_Default_allocator_traits<std::allocator<std::_List_node<REWARD_ITEM,void *> > >::construct<REWARD_ITEM,REWARD_ITEM const &>
PUBLIC	??$construct@HABH@?$_Default_allocator_traits@V?$allocator@U?$_List_node@HPAX@std@@@std@@@std@@SAXAAV?$allocator@U?$_List_node@HPAX@std@@@1@QAHABH@Z ; std::_Default_allocator_traits<std::allocator<std::_List_node<int,void *> > >::construct<int,int const &>
PUBLIC	??$forward@ABQAU?$_List_node@HPAX@std@@@std@@YAABQAU?$_List_node@HPAX@0@ABQAU10@@Z ; std::forward<std::_List_node<int,void *> * const &>
PUBLIC	??$forward@ABQAU?$_List_node@UREWARD_ITEM@@PAX@std@@@std@@YAABQAU?$_List_node@UREWARD_ITEM@@PAX@0@ABQAU10@@Z ; std::forward<std::_List_node<REWARD_ITEM,void *> * const &>
PUBLIC	??$forward@ABQAU?$_List_node@UEVENT_TIME@@PAX@std@@@std@@YAABQAU?$_List_node@UEVENT_TIME@@PAX@0@ABQAU10@@Z ; std::forward<std::_List_node<EVENT_TIME,void *> * const &>
PUBLIC	??_7exception@std@@6B@				; std::exception::`vftable'
PUBLIC	??_C@_0BC@EOODALEL@Unknown?5exception@		; `string'
PUBLIC	??_7bad_alloc@std@@6B@				; std::bad_alloc::`vftable'
PUBLIC	??_7bad_array_new_length@std@@6B@		; std::bad_array_new_length::`vftable'
PUBLIC	??_C@_0BF@KINCDENJ@bad?5array?5new?5length@	; `string'
PUBLIC	__TI3?AVbad_array_new_length@std@@
PUBLIC	__CTA3?AVbad_array_new_length@std@@
PUBLIC	??_R0?AVbad_array_new_length@std@@@8		; std::bad_array_new_length `RTTI Type Descriptor'
PUBLIC	__CT??_R0?AVbad_array_new_length@std@@@8??0bad_array_new_length@std@@QAE@ABV01@@Z12
PUBLIC	??_R0?AVbad_alloc@std@@@8			; std::bad_alloc `RTTI Type Descriptor'
PUBLIC	__CT??_R0?AVbad_alloc@std@@@8??0bad_alloc@std@@QAE@ABV01@@Z12
PUBLIC	??_R0?AVexception@std@@@8			; std::exception `RTTI Type Descriptor'
PUBLIC	__CT??_R0?AVexception@std@@@8??0exception@std@@QAE@ABV01@@Z12
PUBLIC	??_C@_00CNPNBAHC@@				; `string'
PUBLIC	?g_PvpEvent@@3VCEngagePVP@@A			; g_PvpEvent
PUBLIC	??_R4exception@std@@6B@				; std::exception::`RTTI Complete Object Locator'
PUBLIC	??_R3exception@std@@8				; std::exception::`RTTI Class Hierarchy Descriptor'
PUBLIC	??_R2exception@std@@8				; std::exception::`RTTI Base Class Array'
PUBLIC	??_R1A@?0A@EA@exception@std@@8			; std::exception::`RTTI Base Class Descriptor at (0,-1,0,64)'
PUBLIC	??_R4bad_alloc@std@@6B@				; std::bad_alloc::`RTTI Complete Object Locator'
PUBLIC	??_R3bad_alloc@std@@8				; std::bad_alloc::`RTTI Class Hierarchy Descriptor'
PUBLIC	??_R2bad_alloc@std@@8				; std::bad_alloc::`RTTI Base Class Array'
PUBLIC	??_R1A@?0A@EA@bad_alloc@std@@8			; std::bad_alloc::`RTTI Base Class Descriptor at (0,-1,0,64)'
PUBLIC	??_R4bad_array_new_length@std@@6B@		; std::bad_array_new_length::`RTTI Complete Object Locator'
PUBLIC	??_R3bad_array_new_length@std@@8		; std::bad_array_new_length::`RTTI Class Hierarchy Descriptor'
PUBLIC	??_R2bad_array_new_length@std@@8		; std::bad_array_new_length::`RTTI Base Class Array'
PUBLIC	??_R1A@?0A@EA@bad_array_new_length@std@@8	; std::bad_array_new_length::`RTTI Base Class Descriptor at (0,-1,0,64)'
PUBLIC	??_C@_0CE@DKMGGMNL@?$FLPVP?5Event?$FN?5Registrado?5en?5el?5ev@ ; `string'
PUBLIC	??_C@_0DB@KKDKFAML@?$FLPVP?5System?$FN?5?9?5File?5load?5error?5@ ; `string'
PUBLIC	??_C@_01KDCPPGHE@r@				; `string'
PUBLIC	??_C@_0CG@FELFEBKG@?$FLPVP?5System?$FN?5Info?5file?5Load?5Fai@ ; `string'
PUBLIC	??_C@_03JBJLGPFL@end@				; `string'
PUBLIC	__TI2PAD
PUBLIC	__CTA2PAD
PUBLIC	??_R0PAD@8					; char * `RTTI Type Descriptor'
PUBLIC	__CT??_R0PAD@84
PUBLIC	??_R0PAX@8					; void * `RTTI Type Descriptor'
PUBLIC	__CT??_R0PAX@84
PUBLIC	??_C@_0BH@PDAGGAGG@Item?5type?5out?5of?5range@	; `string'
PUBLIC	??_C@_0BI@FJIGPCBB@Item?5index?5out?5of?5range@	; `string'
PUBLIC	??_C@_0BL@MNBPNGAL@?$FLPVP?5System?$FN?5?$CFs?5file?5load?$CB@ ; `string'
PUBLIC	??_C@_0BL@HDPCIDGI@?$FLPVP?5System?$FN?5Event?5Enabled@ ; `string'
PUBLIC	??_C@_0BM@OKBKMMIF@?$FLPVP?5System?$FN?5Event?5Disabled@ ; `string'
PUBLIC	??_C@_0DK@IJLLDIOM@?$FLPVP?5System?$FN?5?9?5Loading?5Exceptio@ ; `string'
PUBLIC	??_C@_0BF@BJNKEBMD@?4?4?2data?2PVPEvent?4cfg@	; `string'
PUBLIC	??_C@_0BJ@HNNMMGEC@?$FLPVP?5System?$FN?5Event?5Start@ ; `string'
PUBLIC	??_C@_0CN@FJOHLNMO@?$FLPVP?5Event?$FN?5Inicio?5el?5evento?$CB?5?9@ ; `string'
PUBLIC	??_C@_0CN@LEEAJCJL@?$FLPVP?5Event?$FN?5Faltan?5?$CFd?5minutos?5p@ ; `string'
PUBLIC	??_C@_0CO@CBGOEHLE@?$FLPVP?5Event?$FN?5Faltan?5?$CFd?5segundos?5@ ; `string'
PUBLIC	??_C@_0DH@NHBJFALI@?$FLPVP?5Event?$FN?5El?5ganador?5del?5even@ ; `string'
PUBLIC	??_C@_0BN@FFOEKPGN@?$FLPVP?5Event?$FN?5No?5hubo?5ganador?$CB@ ; `string'
PUBLIC	??_C@_0DD@OCPAALGN@?$FLPVP?5Event?$FN?5Se?5termino?5el?5tiemp@ ; `string'
PUBLIC	??_C@_0BO@BLGPGPMM@?$FLPVP?5Event?$FN?5quedan?5?$CFd?5minutos@ ; `string'
PUBLIC	??_C@_0BP@NIIDFAII@?$FLPVP?5Event?$FN?5quedan?5?$CFd?5segundos@ ; `string'
PUBLIC	??_C@_05KHGEPAAH@?1fire@			; `string'
PUBLIC	??_C@_0CP@OIEOHOKH@?$FLPVP?5Event?$FN?5La?5arena?5se?5cerrara@ ; `string'
PUBLIC	??_C@_0O@NKNMEGII@list?5too?5long@		; `string'
PUBLIC	__real@00000000
PUBLIC	__real@41f80000
EXTRN	??_L@YGXPAXIIP6EX0@Z1@Z:PROC			; `eh vector constructor iterator'
EXTRN	??_M@YGXPAXIIP6EX0@Z@Z:PROC			; `eh vector destructor iterator'
EXTRN	??2@YAPAXI@Z:PROC				; operator new
EXTRN	??3@YAXPAXI@Z:PROC				; operator delete
EXTRN	_atexit:PROC
EXTRN	___report_rangecheckfailure:PROC
EXTRN	__invalid_parameter_noinfo_noreturn:PROC
EXTRN	_isalpha:PROC
EXTRN	_isdigit:PROC
EXTRN	_isspace:PROC
EXTRN	_isalnum:PROC
EXTRN	_strcmp:PROC
EXTRN	__imp__InitializeCriticalSection@4:PROC
EXTRN	__imp__EnterCriticalSection@4:PROC
EXTRN	__imp__LeaveCriticalSection@4:PROC
EXTRN	__imp__DeleteCriticalSection@4:PROC
EXTRN	__imp__GetTickCount@0:PROC
EXTRN	_fclose:PROC
EXTRN	_fgetc:PROC
EXTRN	_fopen:PROC
EXTRN	_getc:PROC
EXTRN	_ungetc:PROC
EXTRN	_rand:PROC
EXTRN	_atof:PROC
EXTRN	__localtime64:PROC
EXTRN	__time64:PROC
EXTRN	?MsgBox@@YAXPADZZ:PROC				; MsgBox
EXTRN	?_Xlength_error@std@@YAXPBD@Z:PROC		; std::_Xlength_error
EXTRN	___std_exception_copy:PROC
EXTRN	___std_exception_destroy:PROC
EXTRN	??_Eexception@std@@UAEPAXI@Z:PROC		; std::exception::`vector deleting destructor'
EXTRN	??_Ebad_alloc@std@@UAEPAXI@Z:PROC		; std::bad_alloc::`vector deleting destructor'
EXTRN	??_Ebad_array_new_length@std@@UAEPAXI@Z:PROC	; std::bad_array_new_length::`vector deleting destructor'
EXTRN	?ItemGetNumberMake@@YAHHH@Z:PROC		; ItemGetNumberMake
EXTRN	?gObjIsConnected@@YAHH@Z:PROC			; gObjIsConnected
EXTRN	?gObjMoveGate@@YAHHH@Z:PROC			; gObjMoveGate
EXTRN	??0TNotice@@QAE@E@Z:PROC			; TNotice::TNotice
EXTRN	?SendToUser@TNotice@@QAAXHPADZZ:PROC		; TNotice::SendToUser
EXTRN	?SendToAllUser@TNotice@@QAAXPADZZ:PROC		; TNotice::SendToAllUser
EXTRN	?ManagementProc@CGMMng@@QAEHPAVOBJECTSTRUCT@@PADH@Z:PROC ; CGMMng::ManagementProc
EXTRN	?ItemSerialCreateSend@@YAXHEEEHEEEEEHEEH@Z:PROC	; ItemSerialCreateSend
EXTRN	?MakeItemNumber@@YAHHH@Z:PROC			; MakeItemNumber
EXTRN	@__security_check_cookie@4:PROC
EXTRN	__CxxThrowException@8:PROC
EXTRN	___CxxFrameHandler3:PROC
EXTRN	__ftoui3:PROC
EXTRN	??_7type_info@@6B@:QWORD			; type_info::`vftable'
EXTRN	?LogAdd@@3P6AXPADZZA:DWORD			; LogAdd
EXTRN	?ItemAttribute@@3PAUITEM_ATTRIBUTE@@A:BYTE	; ItemAttribute
EXTRN	?gObj@@3PAVOBJECTSTRUCT@@A:DWORD		; gObj
EXTRN	?cManager@@3VCGMMng@@A:BYTE			; cManager
EXTRN	___security_cookie:DWORD
EXTRN	__fltused:DWORD
_BSS	SEGMENT
?g_PvpEvent@@3VCEngagePVP@@A DB 078H DUP (?)		; g_PvpEvent
?SMDFile@@3PAU_iobuf@@A DD 01H DUP (?)			; SMDFile
?TokenNumber@@3MA DD 01H DUP (?)			; TokenNumber
?TokenString@@3PADA DB 064H DUP (?)			; TokenString
?CurrentToken@@3W4SMDToken@@A DD 01H DUP (?)		; CurrentToken
?g_iChaosCastle_MonsterItems@@3PAY111HA DD 018H DUP (?)	; g_iChaosCastle_MonsterItems
_BSS	ENDS
CRT$XCU	SEGMENT
?g_iChaosCastle_MonsterItems$initializer$@@3P6AXXZA DD FLAT:??__Eg_iChaosCastle_MonsterItems@@YAXXZ ; g_iChaosCastle_MonsterItems$initializer$
CRT$XCU	ENDS
;	COMDAT __real@41f80000
CONST	SEGMENT
__real@41f80000 DD 041f80000r			; 31
CONST	ENDS
;	COMDAT __real@00000000
CONST	SEGMENT
__real@00000000 DD 000000000r			; 0
CONST	ENDS
;	COMDAT ??_C@_0O@NKNMEGII@list?5too?5long@
CONST	SEGMENT
??_C@_0O@NKNMEGII@list?5too?5long@ DB 'list too long', 00H ; `string'
CONST	ENDS
;	COMDAT ??_C@_0CP@OIEOHOKH@?$FLPVP?5Event?$FN?5La?5arena?5se?5cerrara@
CONST	SEGMENT
??_C@_0CP@OIEOHOKH@?$FLPVP?5Event?$FN?5La?5arena?5se?5cerrara@ DB '[PVP E'
	DB	'vent] La arena se cerrara en %d segundos', 00H ; `string'
CONST	ENDS
;	COMDAT ??_C@_05KHGEPAAH@?1fire@
CONST	SEGMENT
??_C@_05KHGEPAAH@?1fire@ DB '/fire', 00H		; `string'
CONST	ENDS
;	COMDAT ??_C@_0BP@NIIDFAII@?$FLPVP?5Event?$FN?5quedan?5?$CFd?5segundos@
CONST	SEGMENT
??_C@_0BP@NIIDFAII@?$FLPVP?5Event?$FN?5quedan?5?$CFd?5segundos@ DB '[PVP '
	DB	'Event] quedan %d segundos', 00H		; `string'
CONST	ENDS
;	COMDAT ??_C@_0BO@BLGPGPMM@?$FLPVP?5Event?$FN?5quedan?5?$CFd?5minutos@
CONST	SEGMENT
??_C@_0BO@BLGPGPMM@?$FLPVP?5Event?$FN?5quedan?5?$CFd?5minutos@ DB '[PVP E'
	DB	'vent] quedan %d minutos', 00H		; `string'
CONST	ENDS
;	COMDAT ??_C@_0DD@OCPAALGN@?$FLPVP?5Event?$FN?5Se?5termino?5el?5tiemp@
CONST	SEGMENT
??_C@_0DD@OCPAALGN@?$FLPVP?5Event?$FN?5Se?5termino?5el?5tiemp@ DB '[PVP E'
	DB	'vent] Se termino el tiempo, no hubo ganador!', 00H ; `string'
CONST	ENDS
;	COMDAT ??_C@_0BN@FFOEKPGN@?$FLPVP?5Event?$FN?5No?5hubo?5ganador?$CB@
CONST	SEGMENT
??_C@_0BN@FFOEKPGN@?$FLPVP?5Event?$FN?5No?5hubo?5ganador?$CB@ DB '[PVP Ev'
	DB	'ent] No hubo ganador!', 00H			; `string'
CONST	ENDS
;	COMDAT ??_C@_0DH@NHBJFALI@?$FLPVP?5Event?$FN?5El?5ganador?5del?5even@
CONST	SEGMENT
??_C@_0DH@NHBJFALI@?$FLPVP?5Event?$FN?5El?5ganador?5del?5even@ DB '[PVP E'
	DB	'vent] El ganador del evento es %s - Felicidades!', 00H ; `string'
CONST	ENDS
;	COMDAT ??_C@_0CO@CBGOEHLE@?$FLPVP?5Event?$FN?5Faltan?5?$CFd?5segundos?5@
CONST	SEGMENT
??_C@_0CO@CBGOEHLE@?$FLPVP?5Event?$FN?5Faltan?5?$CFd?5segundos?5@ DB '[PV'
	DB	'P Event] Faltan %d segundos para el inicio', 00H ; `string'
CONST	ENDS
;	COMDAT ??_C@_0CN@LEEAJCJL@?$FLPVP?5Event?$FN?5Faltan?5?$CFd?5minutos?5p@
CONST	SEGMENT
??_C@_0CN@LEEAJCJL@?$FLPVP?5Event?$FN?5Faltan?5?$CFd?5minutos?5p@ DB '[PV'
	DB	'P Event] Faltan %d minutos para el inicio', 00H ; `string'
CONST	ENDS
;	COMDAT ??_C@_0CN@FJOHLNMO@?$FLPVP?5Event?$FN?5Inicio?5el?5evento?$CB?5?9@
CONST	SEGMENT
??_C@_0CN@FJOHLNMO@?$FLPVP?5Event?$FN?5Inicio?5el?5evento?$CB?5?9@ DB '[P'
	DB	'VP Event] Inicio el evento! - %d jugadores', 00H ; `string'
CONST	ENDS
;	COMDAT ??_C@_0BJ@HNNMMGEC@?$FLPVP?5System?$FN?5Event?5Start@
CONST	SEGMENT
??_C@_0BJ@HNNMMGEC@?$FLPVP?5System?$FN?5Event?5Start@ DB '[PVP System] Ev'
	DB	'ent Start', 00H				; `string'
CONST	ENDS
;	COMDAT ??_C@_0BF@BJNKEBMD@?4?4?2data?2PVPEvent?4cfg@
CONST	SEGMENT
??_C@_0BF@BJNKEBMD@?4?4?2data?2PVPEvent?4cfg@ DB '..\data\PVPEvent.cfg', 00H ; `string'
CONST	ENDS
;	COMDAT ??_C@_0DK@IJLLDIOM@?$FLPVP?5System?$FN?5?9?5Loading?5Exceptio@
CONST	SEGMENT
??_C@_0DK@IJLLDIOM@?$FLPVP?5System?$FN?5?9?5Loading?5Exceptio@ DB '[PVP S'
	DB	'ystem] - Loading Exception Error (%s) - (%s) File. ', 00H ; `string'
CONST	ENDS
;	COMDAT ??_C@_0BM@OKBKMMIF@?$FLPVP?5System?$FN?5Event?5Disabled@
CONST	SEGMENT
??_C@_0BM@OKBKMMIF@?$FLPVP?5System?$FN?5Event?5Disabled@ DB '[PVP System]'
	DB	' Event Disabled', 00H			; `string'
CONST	ENDS
;	COMDAT ??_C@_0BL@HDPCIDGI@?$FLPVP?5System?$FN?5Event?5Enabled@
CONST	SEGMENT
??_C@_0BL@HDPCIDGI@?$FLPVP?5System?$FN?5Event?5Enabled@ DB '[PVP System] '
	DB	'Event Enabled', 00H				; `string'
CONST	ENDS
;	COMDAT ??_C@_0BL@MNBPNGAL@?$FLPVP?5System?$FN?5?$CFs?5file?5load?$CB@
CONST	SEGMENT
??_C@_0BL@MNBPNGAL@?$FLPVP?5System?$FN?5?$CFs?5file?5load?$CB@ DB '[PVP S'
	DB	'ystem] %s file load!', 00H			; `string'
CONST	ENDS
;	COMDAT ??_C@_0BI@FJIGPCBB@Item?5index?5out?5of?5range@
CONST	SEGMENT
??_C@_0BI@FJIGPCBB@Item?5index?5out?5of?5range@ DB 'Item index out of ran'
	DB	'ge', 00H					; `string'
CONST	ENDS
;	COMDAT ??_C@_0BH@PDAGGAGG@Item?5type?5out?5of?5range@
CONST	SEGMENT
??_C@_0BH@PDAGGAGG@Item?5type?5out?5of?5range@ DB 'Item type out of range'
	DB	00H						; `string'
CONST	ENDS
;	COMDAT __CT??_R0PAX@84
xdata$x	SEGMENT
__CT??_R0PAX@84 DD 01H
	DD	FLAT:??_R0PAX@8
	DD	00H
	DD	0ffffffffH
	ORG $+4
	DD	04H
	DD	00H
xdata$x	ENDS
;	COMDAT ??_R0PAX@8
data$r	SEGMENT
??_R0PAX@8 DD	FLAT:??_7type_info@@6B@			; void * `RTTI Type Descriptor'
	DD	00H
	DB	'.PAX', 00H
data$r	ENDS
;	COMDAT __CT??_R0PAD@84
xdata$x	SEGMENT
__CT??_R0PAD@84 DD 01H
	DD	FLAT:??_R0PAD@8
	DD	00H
	DD	0ffffffffH
	ORG $+4
	DD	04H
	DD	00H
xdata$x	ENDS
;	COMDAT ??_R0PAD@8
data$r	SEGMENT
??_R0PAD@8 DD	FLAT:??_7type_info@@6B@			; char * `RTTI Type Descriptor'
	DD	00H
	DB	'.PAD', 00H
data$r	ENDS
;	COMDAT __CTA2PAD
xdata$x	SEGMENT
__CTA2PAD DD	02H
	DD	FLAT:__CT??_R0PAD@84
	DD	FLAT:__CT??_R0PAX@84
xdata$x	ENDS
;	COMDAT __TI2PAD
xdata$x	SEGMENT
__TI2PAD DD	00H
	DD	00H
	DD	00H
	DD	FLAT:__CTA2PAD
xdata$x	ENDS
;	COMDAT ??_C@_03JBJLGPFL@end@
CONST	SEGMENT
??_C@_03JBJLGPFL@end@ DB 'end', 00H			; `string'
CONST	ENDS
;	COMDAT ??_C@_0CG@FELFEBKG@?$FLPVP?5System?$FN?5Info?5file?5Load?5Fai@
CONST	SEGMENT
??_C@_0CG@FELFEBKG@?$FLPVP?5System?$FN?5Info?5file?5Load?5Fai@ DB '[PVP S'
	DB	'ystem] Info file Load Fail [%s]', 00H	; `string'
CONST	ENDS
;	COMDAT ??_C@_01KDCPPGHE@r@
CONST	SEGMENT
??_C@_01KDCPPGHE@r@ DB 'r', 00H				; `string'
CONST	ENDS
;	COMDAT ??_C@_0DB@KKDKFAML@?$FLPVP?5System?$FN?5?9?5File?5load?5error?5@
CONST	SEGMENT
??_C@_0DB@KKDKFAML@?$FLPVP?5System?$FN?5?9?5File?5load?5error?5@ DB '[PVP'
	DB	' System] - File load error : File Name Error', 00H ; `string'
CONST	ENDS
;	COMDAT ??_C@_0CE@DKMGGMNL@?$FLPVP?5Event?$FN?5Registrado?5en?5el?5ev@
CONST	SEGMENT
??_C@_0CE@DKMGGMNL@?$FLPVP?5Event?$FN?5Registrado?5en?5el?5ev@ DB '[PVP E'
	DB	'vent] Registrado en el evento', 00H		; `string'
CONST	ENDS
;	COMDAT ??_R1A@?0A@EA@bad_array_new_length@std@@8
rdata$r	SEGMENT
??_R1A@?0A@EA@bad_array_new_length@std@@8 DD FLAT:??_R0?AVbad_array_new_length@std@@@8 ; std::bad_array_new_length::`RTTI Base Class Descriptor at (0,-1,0,64)'
	DD	02H
	DD	00H
	DD	0ffffffffH
	DD	00H
	DD	040H
	DD	FLAT:??_R3bad_array_new_length@std@@8
rdata$r	ENDS
;	COMDAT ??_R2bad_array_new_length@std@@8
rdata$r	SEGMENT
??_R2bad_array_new_length@std@@8 DD FLAT:??_R1A@?0A@EA@bad_array_new_length@std@@8 ; std::bad_array_new_length::`RTTI Base Class Array'
	DD	FLAT:??_R1A@?0A@EA@bad_alloc@std@@8
	DD	FLAT:??_R1A@?0A@EA@exception@std@@8
rdata$r	ENDS
;	COMDAT ??_R3bad_array_new_length@std@@8
rdata$r	SEGMENT
??_R3bad_array_new_length@std@@8 DD 00H			; std::bad_array_new_length::`RTTI Class Hierarchy Descriptor'
	DD	00H
	DD	03H
	DD	FLAT:??_R2bad_array_new_length@std@@8
rdata$r	ENDS
;	COMDAT ??_R4bad_array_new_length@std@@6B@
rdata$r	SEGMENT
??_R4bad_array_new_length@std@@6B@ DD 00H		; std::bad_array_new_length::`RTTI Complete Object Locator'
	DD	00H
	DD	00H
	DD	FLAT:??_R0?AVbad_array_new_length@std@@@8
	DD	FLAT:??_R3bad_array_new_length@std@@8
rdata$r	ENDS
;	COMDAT ??_R1A@?0A@EA@bad_alloc@std@@8
rdata$r	SEGMENT
??_R1A@?0A@EA@bad_alloc@std@@8 DD FLAT:??_R0?AVbad_alloc@std@@@8 ; std::bad_alloc::`RTTI Base Class Descriptor at (0,-1,0,64)'
	DD	01H
	DD	00H
	DD	0ffffffffH
	DD	00H
	DD	040H
	DD	FLAT:??_R3bad_alloc@std@@8
rdata$r	ENDS
;	COMDAT ??_R2bad_alloc@std@@8
rdata$r	SEGMENT
??_R2bad_alloc@std@@8 DD FLAT:??_R1A@?0A@EA@bad_alloc@std@@8 ; std::bad_alloc::`RTTI Base Class Array'
	DD	FLAT:??_R1A@?0A@EA@exception@std@@8
rdata$r	ENDS
;	COMDAT ??_R3bad_alloc@std@@8
rdata$r	SEGMENT
??_R3bad_alloc@std@@8 DD 00H				; std::bad_alloc::`RTTI Class Hierarchy Descriptor'
	DD	00H
	DD	02H
	DD	FLAT:??_R2bad_alloc@std@@8
rdata$r	ENDS
;	COMDAT ??_R4bad_alloc@std@@6B@
rdata$r	SEGMENT
??_R4bad_alloc@std@@6B@ DD 00H				; std::bad_alloc::`RTTI Complete Object Locator'
	DD	00H
	DD	00H
	DD	FLAT:??_R0?AVbad_alloc@std@@@8
	DD	FLAT:??_R3bad_alloc@std@@8
rdata$r	ENDS
;	COMDAT ??_R1A@?0A@EA@exception@std@@8
rdata$r	SEGMENT
??_R1A@?0A@EA@exception@std@@8 DD FLAT:??_R0?AVexception@std@@@8 ; std::exception::`RTTI Base Class Descriptor at (0,-1,0,64)'
	DD	00H
	DD	00H
	DD	0ffffffffH
	DD	00H
	DD	040H
	DD	FLAT:??_R3exception@std@@8
rdata$r	ENDS
;	COMDAT ??_R2exception@std@@8
rdata$r	SEGMENT
??_R2exception@std@@8 DD FLAT:??_R1A@?0A@EA@exception@std@@8 ; std::exception::`RTTI Base Class Array'
rdata$r	ENDS
;	COMDAT ??_R3exception@std@@8
rdata$r	SEGMENT
??_R3exception@std@@8 DD 00H				; std::exception::`RTTI Class Hierarchy Descriptor'
	DD	00H
	DD	01H
	DD	FLAT:??_R2exception@std@@8
rdata$r	ENDS
;	COMDAT ??_R4exception@std@@6B@
rdata$r	SEGMENT
??_R4exception@std@@6B@ DD 00H				; std::exception::`RTTI Complete Object Locator'
	DD	00H
	DD	00H
	DD	FLAT:??_R0?AVexception@std@@@8
	DD	FLAT:??_R3exception@std@@8
rdata$r	ENDS
;	COMDAT ??_C@_00CNPNBAHC@@
CONST	SEGMENT
??_C@_00CNPNBAHC@@ DB 00H				; `string'
CONST	ENDS
;	COMDAT __CT??_R0?AVexception@std@@@8??0exception@std@@QAE@ABV01@@Z12
xdata$x	SEGMENT
__CT??_R0?AVexception@std@@@8??0exception@std@@QAE@ABV01@@Z12 DD 00H
	DD	FLAT:??_R0?AVexception@std@@@8
	DD	00H
	DD	0ffffffffH
	ORG $+4
	DD	0cH
	DD	FLAT:??0exception@std@@QAE@ABV01@@Z
xdata$x	ENDS
;	COMDAT ??_R0?AVexception@std@@@8
data$r	SEGMENT
??_R0?AVexception@std@@@8 DD FLAT:??_7type_info@@6B@	; std::exception `RTTI Type Descriptor'
	DD	00H
	DB	'.?AVexception@std@@', 00H
data$r	ENDS
;	COMDAT __CT??_R0?AVbad_alloc@std@@@8??0bad_alloc@std@@QAE@ABV01@@Z12
xdata$x	SEGMENT
__CT??_R0?AVbad_alloc@std@@@8??0bad_alloc@std@@QAE@ABV01@@Z12 DD 010H
	DD	FLAT:??_R0?AVbad_alloc@std@@@8
	DD	00H
	DD	0ffffffffH
	ORG $+4
	DD	0cH
	DD	FLAT:??0bad_alloc@std@@QAE@ABV01@@Z
xdata$x	ENDS
;	COMDAT ??_R0?AVbad_alloc@std@@@8
data$r	SEGMENT
??_R0?AVbad_alloc@std@@@8 DD FLAT:??_7type_info@@6B@	; std::bad_alloc `RTTI Type Descriptor'
	DD	00H
	DB	'.?AVbad_alloc@std@@', 00H
data$r	ENDS
;	COMDAT __CT??_R0?AVbad_array_new_length@std@@@8??0bad_array_new_length@std@@QAE@ABV01@@Z12
xdata$x	SEGMENT
__CT??_R0?AVbad_array_new_length@std@@@8??0bad_array_new_length@std@@QAE@ABV01@@Z12 DD 00H
	DD	FLAT:??_R0?AVbad_array_new_length@std@@@8
	DD	00H
	DD	0ffffffffH
	ORG $+4
	DD	0cH
	DD	FLAT:??0bad_array_new_length@std@@QAE@ABV01@@Z
xdata$x	ENDS
;	COMDAT ??_R0?AVbad_array_new_length@std@@@8
data$r	SEGMENT
??_R0?AVbad_array_new_length@std@@@8 DD FLAT:??_7type_info@@6B@ ; std::bad_array_new_length `RTTI Type Descriptor'
	DD	00H
	DB	'.?AVbad_array_new_length@std@@', 00H
data$r	ENDS
;	COMDAT __CTA3?AVbad_array_new_length@std@@
xdata$x	SEGMENT
__CTA3?AVbad_array_new_length@std@@ DD 03H
	DD	FLAT:__CT??_R0?AVbad_array_new_length@std@@@8??0bad_array_new_length@std@@QAE@ABV01@@Z12
	DD	FLAT:__CT??_R0?AVbad_alloc@std@@@8??0bad_alloc@std@@QAE@ABV01@@Z12
	DD	FLAT:__CT??_R0?AVexception@std@@@8??0exception@std@@QAE@ABV01@@Z12
xdata$x	ENDS
;	COMDAT __TI3?AVbad_array_new_length@std@@
xdata$x	SEGMENT
__TI3?AVbad_array_new_length@std@@ DD 00H
	DD	FLAT:??1bad_array_new_length@std@@UAE@XZ
	DD	00H
	DD	FLAT:__CTA3?AVbad_array_new_length@std@@
xdata$x	ENDS
;	COMDAT ??_C@_0BF@KINCDENJ@bad?5array?5new?5length@
CONST	SEGMENT
??_C@_0BF@KINCDENJ@bad?5array?5new?5length@ DB 'bad array new length', 00H ; `string'
CONST	ENDS
;	COMDAT ??_7bad_array_new_length@std@@6B@
CONST	SEGMENT
??_7bad_array_new_length@std@@6B@ DD FLAT:??_R4bad_array_new_length@std@@6B@ ; std::bad_array_new_length::`vftable'
	DD	FLAT:??_Ebad_array_new_length@std@@UAEPAXI@Z
	DD	FLAT:?what@exception@std@@UBEPBDXZ
CONST	ENDS
;	COMDAT ??_7bad_alloc@std@@6B@
CONST	SEGMENT
??_7bad_alloc@std@@6B@ DD FLAT:??_R4bad_alloc@std@@6B@	; std::bad_alloc::`vftable'
	DD	FLAT:??_Ebad_alloc@std@@UAEPAXI@Z
	DD	FLAT:?what@exception@std@@UBEPBDXZ
CONST	ENDS
;	COMDAT ??_C@_0BC@EOODALEL@Unknown?5exception@
CONST	SEGMENT
??_C@_0BC@EOODALEL@Unknown?5exception@ DB 'Unknown exception', 00H ; `string'
CONST	ENDS
;	COMDAT ??_7exception@std@@6B@
CONST	SEGMENT
??_7exception@std@@6B@ DD FLAT:??_R4exception@std@@6B@	; std::exception::`vftable'
	DD	FLAT:??_Eexception@std@@UAEPAXI@Z
	DD	FLAT:?what@exception@std@@UBEPBDXZ
CONST	ENDS
;	COMDAT xdata$x
xdata$x	SEGMENT
__unwindtable$??$?0ABH@?$_List_node_emplace_op2@V?$allocator@U?$_List_node@HPAX@std@@@std@@@std@@QAE@AAV?$allocator@U?$_List_node@HPAX@std@@@1@ABH@Z DD 0ffffffffH
	DD	FLAT:__unwindfunclet$??$?0ABH@?$_List_node_emplace_op2@V?$allocator@U?$_List_node@HPAX@std@@@std@@@std@@QAE@AAV?$allocator@U?$_List_node@HPAX@std@@@1@ABH@Z$0
__ehfuncinfo$??$?0ABH@?$_List_node_emplace_op2@V?$allocator@U?$_List_node@HPAX@std@@@std@@@std@@QAE@AAV?$allocator@U?$_List_node@HPAX@std@@@1@ABH@Z DD 019930522H
	DD	01H
	DD	FLAT:__unwindtable$??$?0ABH@?$_List_node_emplace_op2@V?$allocator@U?$_List_node@HPAX@std@@@std@@@std@@QAE@AAV?$allocator@U?$_List_node@HPAX@std@@@1@ABH@Z
	DD	2 DUP(00H)
	DD	2 DUP(00H)
	DD	00H
	DD	01H
xdata$x	ENDS
;	COMDAT xdata$x
xdata$x	SEGMENT
__ehfuncinfo$??1?$_List_node_emplace_op2@V?$allocator@U?$_List_node@HPAX@std@@@std@@@std@@QAE@XZ DD 019930522H
	DD	00H
	DD	00H
	DD	2 DUP(00H)
	DD	2 DUP(00H)
	DD	00H
	DD	05H
xdata$x	ENDS
;	COMDAT xdata$x
xdata$x	SEGMENT
__ehfuncinfo$??1?$_Alloc_construct_ptr@V?$allocator@U?$_List_node@HPAX@std@@@std@@@std@@QAE@XZ DD 019930522H
	DD	00H
	DD	00H
	DD	2 DUP(00H)
	DD	2 DUP(00H)
	DD	00H
	DD	05H
xdata$x	ENDS
;	COMDAT xdata$x
xdata$x	SEGMENT
__unwindtable$??$?0ABUREWARD_ITEM@@@?$_List_node_emplace_op2@V?$allocator@U?$_List_node@UREWARD_ITEM@@PAX@std@@@std@@@std@@QAE@AAV?$allocator@U?$_List_node@UREWARD_ITEM@@PAX@std@@@1@ABUREWARD_ITEM@@@Z DD 0ffffffffH
	DD	FLAT:__unwindfunclet$??$?0ABUREWARD_ITEM@@@?$_List_node_emplace_op2@V?$allocator@U?$_List_node@UREWARD_ITEM@@PAX@std@@@std@@@std@@QAE@AAV?$allocator@U?$_List_node@UREWARD_ITEM@@PAX@std@@@1@ABUREWARD_ITEM@@@Z$0
__ehfuncinfo$??$?0ABUREWARD_ITEM@@@?$_List_node_emplace_op2@V?$allocator@U?$_List_node@UREWARD_ITEM@@PAX@std@@@std@@@std@@QAE@AAV?$allocator@U?$_List_node@UREWARD_ITEM@@PAX@std@@@1@ABUREWARD_ITEM@@@Z DD 019930522H
	DD	01H
	DD	FLAT:__unwindtable$??$?0ABUREWARD_ITEM@@@?$_List_node_emplace_op2@V?$allocator@U?$_List_node@UREWARD_ITEM@@PAX@std@@@std@@@std@@QAE@AAV?$allocator@U?$_List_node@UREWARD_ITEM@@PAX@std@@@1@ABUREWARD_ITEM@@@Z
	DD	2 DUP(00H)
	DD	2 DUP(00H)
	DD	00H
	DD	01H
xdata$x	ENDS
;	COMDAT xdata$x
xdata$x	SEGMENT
__ehfuncinfo$??1?$_List_node_emplace_op2@V?$allocator@U?$_List_node@UREWARD_ITEM@@PAX@std@@@std@@@std@@QAE@XZ DD 019930522H
	DD	00H
	DD	00H
	DD	2 DUP(00H)
	DD	2 DUP(00H)
	DD	00H
	DD	05H
xdata$x	ENDS
;	COMDAT xdata$x
xdata$x	SEGMENT
__ehfuncinfo$??1?$_Alloc_construct_ptr@V?$allocator@U?$_List_node@UREWARD_ITEM@@PAX@std@@@std@@@std@@QAE@XZ DD 019930522H
	DD	00H
	DD	00H
	DD	2 DUP(00H)
	DD	2 DUP(00H)
	DD	00H
	DD	05H
xdata$x	ENDS
;	COMDAT xdata$x
xdata$x	SEGMENT
__ehfuncinfo$??$_Freenode@V?$allocator@U?$_List_node@UREWARD_ITEM@@PAX@std@@@std@@@?$_List_node@UREWARD_ITEM@@PAX@std@@SAXAAV?$allocator@U?$_List_node@UREWARD_ITEM@@PAX@std@@@1@PAU01@@Z DD 019930522H
	DD	00H
	DD	00H
	DD	2 DUP(00H)
	DD	2 DUP(00H)
	DD	00H
	DD	05H
xdata$x	ENDS
;	COMDAT xdata$x
xdata$x	SEGMENT
__unwindtable$??$?0ABUEVENT_TIME@@@?$_List_node_emplace_op2@V?$allocator@U?$_List_node@UEVENT_TIME@@PAX@std@@@std@@@std@@QAE@AAV?$allocator@U?$_List_node@UEVENT_TIME@@PAX@std@@@1@ABUEVENT_TIME@@@Z DD 0ffffffffH
	DD	FLAT:__unwindfunclet$??$?0ABUEVENT_TIME@@@?$_List_node_emplace_op2@V?$allocator@U?$_List_node@UEVENT_TIME@@PAX@std@@@std@@@std@@QAE@AAV?$allocator@U?$_List_node@UEVENT_TIME@@PAX@std@@@1@ABUEVENT_TIME@@@Z$0
__ehfuncinfo$??$?0ABUEVENT_TIME@@@?$_List_node_emplace_op2@V?$allocator@U?$_List_node@UEVENT_TIME@@PAX@std@@@std@@@std@@QAE@AAV?$allocator@U?$_List_node@UEVENT_TIME@@PAX@std@@@1@ABUEVENT_TIME@@@Z DD 019930522H
	DD	01H
	DD	FLAT:__unwindtable$??$?0ABUEVENT_TIME@@@?$_List_node_emplace_op2@V?$allocator@U?$_List_node@UEVENT_TIME@@PAX@std@@@std@@@std@@QAE@AAV?$allocator@U?$_List_node@UEVENT_TIME@@PAX@std@@@1@ABUEVENT_TIME@@@Z
	DD	2 DUP(00H)
	DD	2 DUP(00H)
	DD	00H
	DD	01H
xdata$x	ENDS
;	COMDAT xdata$x
xdata$x	SEGMENT
__ehfuncinfo$??1?$_List_node_emplace_op2@V?$allocator@U?$_List_node@UEVENT_TIME@@PAX@std@@@std@@@std@@QAE@XZ DD 019930522H
	DD	00H
	DD	00H
	DD	2 DUP(00H)
	DD	2 DUP(00H)
	DD	00H
	DD	05H
xdata$x	ENDS
;	COMDAT xdata$x
xdata$x	SEGMENT
__ehfuncinfo$??1?$_Alloc_construct_ptr@V?$allocator@U?$_List_node@UEVENT_TIME@@PAX@std@@@std@@@std@@QAE@XZ DD 019930522H
	DD	00H
	DD	00H
	DD	2 DUP(00H)
	DD	2 DUP(00H)
	DD	00H
	DD	05H
xdata$x	ENDS
;	COMDAT xdata$x
xdata$x	SEGMENT
__ehfuncinfo$??$_Freenode@V?$allocator@U?$_List_node@UEVENT_TIME@@PAX@std@@@std@@@?$_List_node@UEVENT_TIME@@PAX@std@@SAXAAV?$allocator@U?$_List_node@UEVENT_TIME@@PAX@std@@@1@PAU01@@Z DD 019930522H
	DD	00H
	DD	00H
	DD	2 DUP(00H)
	DD	2 DUP(00H)
	DD	00H
	DD	05H
xdata$x	ENDS
;	COMDAT xdata$x
xdata$x	SEGMENT
__ehfuncinfo$??$_Freenode0@V?$allocator@U?$_List_node@HPAX@std@@@std@@@?$_List_node@HPAX@std@@SAXAAV?$allocator@U?$_List_node@HPAX@std@@@1@PAU01@@Z DD 019930522H
	DD	00H
	DD	00H
	DD	2 DUP(00H)
	DD	2 DUP(00H)
	DD	00H
	DD	05H
xdata$x	ENDS
;	COMDAT xdata$x
xdata$x	SEGMENT
__ehfuncinfo$??$_Freenode0@V?$allocator@U?$_List_node@UREWARD_ITEM@@PAX@std@@@std@@@?$_List_node@UREWARD_ITEM@@PAX@std@@SAXAAV?$allocator@U?$_List_node@UREWARD_ITEM@@PAX@std@@@1@PAU01@@Z DD 019930522H
	DD	00H
	DD	00H
	DD	2 DUP(00H)
	DD	2 DUP(00H)
	DD	00H
	DD	05H
xdata$x	ENDS
;	COMDAT xdata$x
xdata$x	SEGMENT
__ehfuncinfo$??$_Freenode0@V?$allocator@U?$_List_node@UEVENT_TIME@@PAX@std@@@std@@@?$_List_node@UEVENT_TIME@@PAX@std@@SAXAAV?$allocator@U?$_List_node@UEVENT_TIME@@PAX@std@@@1@PAU01@@Z DD 019930522H
	DD	00H
	DD	00H
	DD	2 DUP(00H)
	DD	2 DUP(00H)
	DD	00H
	DD	05H
xdata$x	ENDS
;	COMDAT xdata$x
xdata$x	SEGMENT
__ehfuncinfo$??$_Freenode@V?$allocator@U?$_List_node@HPAX@std@@@std@@@?$_List_node@HPAX@std@@SAXAAV?$allocator@U?$_List_node@HPAX@std@@@1@PAU01@@Z DD 019930522H
	DD	00H
	DD	00H
	DD	2 DUP(00H)
	DD	2 DUP(00H)
	DD	00H
	DD	05H
xdata$x	ENDS
;	COMDAT xdata$x
xdata$x	SEGMENT
__ehfuncinfo$??$_Deallocate@$07$0A@@std@@YAXPAXI@Z DD 019930522H
	DD	00H
	DD	00H
	DD	2 DUP(00H)
	DD	2 DUP(00H)
	DD	00H
	DD	05H
xdata$x	ENDS
;	COMDAT xdata$x
xdata$x	SEGMENT
__catchsym$?Load@CEngagePVP@@QAEXPBD@Z$2 DD 01H
	DD	FLAT:??_R0PAD@8
	DD	0ffffffb0H
	DD	FLAT:__catch$?Load@CEngagePVP@@QAEXPBD@Z$0
__unwindtable$?Load@CEngagePVP@@QAEXPBD@Z DD 0ffffffffH
	DD	00H
	DD	0ffffffffH
	DD	00H
__tryblocktable$?Load@CEngagePVP@@QAEXPBD@Z DD 00H
	DD	00H
	DD	01H
	DD	01H
	DD	FLAT:__catchsym$?Load@CEngagePVP@@QAEXPBD@Z$2
__ehfuncinfo$?Load@CEngagePVP@@QAEXPBD@Z DD 019930522H
	DD	02H
	DD	FLAT:__unwindtable$?Load@CEngagePVP@@QAEXPBD@Z
	DD	01H
	DD	FLAT:__tryblocktable$?Load@CEngagePVP@@QAEXPBD@Z
	DD	2 DUP(00H)
	DD	00H
	DD	01H
xdata$x	ENDS
;	COMDAT xdata$x
xdata$x	SEGMENT
__ehfuncinfo$??1CEngagePVP@@QAE@XZ DD 019930522H
	DD	00H
	DD	00H
	DD	2 DUP(00H)
	DD	2 DUP(00H)
	DD	00H
	DD	05H
xdata$x	ENDS
;	COMDAT xdata$x
xdata$x	SEGMENT
__unwindtable$??0CEngagePVP@@QAE@XZ DD 0ffffffffH
	DD	FLAT:__unwindfunclet$??0CEngagePVP@@QAE@XZ$0
	DD	00H
	DD	FLAT:__unwindfunclet$??0CEngagePVP@@QAE@XZ$1
	DD	01H
	DD	FLAT:__unwindfunclet$??0CEngagePVP@@QAE@XZ$2
__ehfuncinfo$??0CEngagePVP@@QAE@XZ DD 019930522H
	DD	03H
	DD	FLAT:__unwindtable$??0CEngagePVP@@QAE@XZ
	DD	2 DUP(00H)
	DD	2 DUP(00H)
	DD	00H
	DD	01H
xdata$x	ENDS
CRT$XCU	SEGMENT
?g_PvpEvent$initializer$@@3P6AXXZA DD FLAT:??__Eg_PvpEvent@@YAXXZ ; g_PvpEvent$initializer$
CRT$XCU	ENDS
; Function compile flags: /Odtp /ZI
; File C:\Program Files (x86)\Microsoft Visual Studio\2019\Community\VC\Tools\MSVC\14.27.29110\include\type_traits
;	COMDAT ??$forward@ABQAU?$_List_node@UEVENT_TIME@@PAX@std@@@std@@YAABQAU?$_List_node@UEVENT_TIME@@PAX@0@ABQAU10@@Z
_TEXT	SEGMENT
__Arg$ = 8						; size = 4
??$forward@ABQAU?$_List_node@UEVENT_TIME@@PAX@std@@@std@@YAABQAU?$_List_node@UEVENT_TIME@@PAX@0@ABQAU10@@Z PROC ; std::forward<std::_List_node<EVENT_TIME,void *> * const &>, COMDAT

; 1454 :     remove_reference_t<_Ty>& _Arg) noexcept { // forward an lvalue as either an lvalue or an rvalue

  00000	55		 push	 ebp
  00001	8b ec		 mov	 ebp, esp
  00003	83 ec 40	 sub	 esp, 64			; 00000040H
  00006	53		 push	 ebx
  00007	56		 push	 esi
  00008	57		 push	 edi

; 1455 :     return static_cast<_Ty&&>(_Arg);

  00009	8b 45 08	 mov	 eax, DWORD PTR __Arg$[ebp]

; 1456 : }

  0000c	5f		 pop	 edi
  0000d	5e		 pop	 esi
  0000e	5b		 pop	 ebx
  0000f	8b e5		 mov	 esp, ebp
  00011	5d		 pop	 ebp
  00012	c3		 ret	 0
??$forward@ABQAU?$_List_node@UEVENT_TIME@@PAX@std@@@std@@YAABQAU?$_List_node@UEVENT_TIME@@PAX@0@ABQAU10@@Z ENDP ; std::forward<std::_List_node<EVENT_TIME,void *> * const &>
_TEXT	ENDS
; Function compile flags: /Odtp /ZI
; File C:\Program Files (x86)\Microsoft Visual Studio\2019\Community\VC\Tools\MSVC\14.27.29110\include\type_traits
;	COMDAT ??$forward@ABQAU?$_List_node@UREWARD_ITEM@@PAX@std@@@std@@YAABQAU?$_List_node@UREWARD_ITEM@@PAX@0@ABQAU10@@Z
_TEXT	SEGMENT
__Arg$ = 8						; size = 4
??$forward@ABQAU?$_List_node@UREWARD_ITEM@@PAX@std@@@std@@YAABQAU?$_List_node@UREWARD_ITEM@@PAX@0@ABQAU10@@Z PROC ; std::forward<std::_List_node<REWARD_ITEM,void *> * const &>, COMDAT

; 1454 :     remove_reference_t<_Ty>& _Arg) noexcept { // forward an lvalue as either an lvalue or an rvalue

  00000	55		 push	 ebp
  00001	8b ec		 mov	 ebp, esp
  00003	83 ec 40	 sub	 esp, 64			; 00000040H
  00006	53		 push	 ebx
  00007	56		 push	 esi
  00008	57		 push	 edi

; 1455 :     return static_cast<_Ty&&>(_Arg);

  00009	8b 45 08	 mov	 eax, DWORD PTR __Arg$[ebp]

; 1456 : }

  0000c	5f		 pop	 edi
  0000d	5e		 pop	 esi
  0000e	5b		 pop	 ebx
  0000f	8b e5		 mov	 esp, ebp
  00011	5d		 pop	 ebp
  00012	c3		 ret	 0
??$forward@ABQAU?$_List_node@UREWARD_ITEM@@PAX@std@@@std@@YAABQAU?$_List_node@UREWARD_ITEM@@PAX@0@ABQAU10@@Z ENDP ; std::forward<std::_List_node<REWARD_ITEM,void *> * const &>
_TEXT	ENDS
; Function compile flags: /Odtp /ZI
; File C:\Program Files (x86)\Microsoft Visual Studio\2019\Community\VC\Tools\MSVC\14.27.29110\include\type_traits
;	COMDAT ??$forward@ABQAU?$_List_node@HPAX@std@@@std@@YAABQAU?$_List_node@HPAX@0@ABQAU10@@Z
_TEXT	SEGMENT
__Arg$ = 8						; size = 4
??$forward@ABQAU?$_List_node@HPAX@std@@@std@@YAABQAU?$_List_node@HPAX@0@ABQAU10@@Z PROC ; std::forward<std::_List_node<int,void *> * const &>, COMDAT

; 1454 :     remove_reference_t<_Ty>& _Arg) noexcept { // forward an lvalue as either an lvalue or an rvalue

  00000	55		 push	 ebp
  00001	8b ec		 mov	 ebp, esp
  00003	83 ec 40	 sub	 esp, 64			; 00000040H
  00006	53		 push	 ebx
  00007	56		 push	 esi
  00008	57		 push	 edi

; 1455 :     return static_cast<_Ty&&>(_Arg);

  00009	8b 45 08	 mov	 eax, DWORD PTR __Arg$[ebp]

; 1456 : }

  0000c	5f		 pop	 edi
  0000d	5e		 pop	 esi
  0000e	5b		 pop	 ebx
  0000f	8b e5		 mov	 esp, ebp
  00011	5d		 pop	 ebp
  00012	c3		 ret	 0
??$forward@ABQAU?$_List_node@HPAX@std@@@std@@YAABQAU?$_List_node@HPAX@0@ABQAU10@@Z ENDP ; std::forward<std::_List_node<int,void *> * const &>
_TEXT	ENDS
; Function compile flags: /Odtp /ZI
; File C:\Program Files (x86)\Microsoft Visual Studio\2019\Community\VC\Tools\MSVC\14.27.29110\include\xmemory
;	COMDAT ??$construct@HABH@?$_Default_allocator_traits@V?$allocator@U?$_List_node@HPAX@std@@@std@@@std@@SAXAAV?$allocator@U?$_List_node@HPAX@std@@@1@QAHABH@Z
_TEXT	SEGMENT
$T1 = -68						; size = 4
___formal$ = 8						; size = 4
__Ptr$ = 12						; size = 4
_<_Args_0>$ = 16					; size = 4
??$construct@HABH@?$_Default_allocator_traits@V?$allocator@U?$_List_node@HPAX@std@@@std@@@std@@SAXAAV?$allocator@U?$_List_node@HPAX@std@@@1@QAHABH@Z PROC ; std::_Default_allocator_traits<std::allocator<std::_List_node<int,void *> > >::construct<int,int const &>, COMDAT

; 693  :     static void construct(_Alloc&, _Objty* const _Ptr, _Types&&... _Args) {

  00000	55		 push	 ebp
  00001	8b ec		 mov	 ebp, esp
  00003	83 ec 44	 sub	 esp, 68			; 00000044H
  00006	53		 push	 ebx
  00007	56		 push	 esi
  00008	57		 push	 edi

; 694  :         ::new (const_cast<void*>(static_cast<const volatile void*>(_Ptr))) _Objty(_STD forward<_Types>(_Args)...);

  00009	8b 45 0c	 mov	 eax, DWORD PTR __Ptr$[ebp]
  0000c	50		 push	 eax
  0000d	6a 04		 push	 4
  0000f	e8 00 00 00 00	 call	 ??2@YAPAXIPAX@Z		; operator new
  00014	83 c4 08	 add	 esp, 8
  00017	89 45 bc	 mov	 DWORD PTR $T1[ebp], eax
  0001a	8b 4d 10	 mov	 ecx, DWORD PTR _<_Args_0>$[ebp]
  0001d	51		 push	 ecx
  0001e	e8 00 00 00 00	 call	 ??$forward@ABH@std@@YAABHABH@Z ; std::forward<int const &>
  00023	83 c4 04	 add	 esp, 4
  00026	8b 55 bc	 mov	 edx, DWORD PTR $T1[ebp]
  00029	8b 00		 mov	 eax, DWORD PTR [eax]
  0002b	89 02		 mov	 DWORD PTR [edx], eax

; 695  :     }

  0002d	5f		 pop	 edi
  0002e	5e		 pop	 esi
  0002f	5b		 pop	 ebx
  00030	8b e5		 mov	 esp, ebp
  00032	5d		 pop	 ebp
  00033	c3		 ret	 0
??$construct@HABH@?$_Default_allocator_traits@V?$allocator@U?$_List_node@HPAX@std@@@std@@@std@@SAXAAV?$allocator@U?$_List_node@HPAX@std@@@1@QAHABH@Z ENDP ; std::_Default_allocator_traits<std::allocator<std::_List_node<int,void *> > >::construct<int,int const &>
_TEXT	ENDS
; Function compile flags: /Odtp /ZI
; File C:\Program Files (x86)\Microsoft Visual Studio\2019\Community\VC\Tools\MSVC\14.27.29110\include\xmemory
;	COMDAT ??$construct@UREWARD_ITEM@@ABU1@@?$_Default_allocator_traits@V?$allocator@U?$_List_node@UREWARD_ITEM@@PAX@std@@@std@@@std@@SAXAAV?$allocator@U?$_List_node@UREWARD_ITEM@@PAX@std@@@1@QAUREWARD_ITEM@@ABU3@@Z
_TEXT	SEGMENT
$T1 = -68						; size = 4
___formal$ = 8						; size = 4
__Ptr$ = 12						; size = 4
_<_Args_0>$ = 16					; size = 4
??$construct@UREWARD_ITEM@@ABU1@@?$_Default_allocator_traits@V?$allocator@U?$_List_node@UREWARD_ITEM@@PAX@std@@@std@@@std@@SAXAAV?$allocator@U?$_List_node@UREWARD_ITEM@@PAX@std@@@1@QAUREWARD_ITEM@@ABU3@@Z PROC ; std::_Default_allocator_traits<std::allocator<std::_List_node<REWARD_ITEM,void *> > >::construct<REWARD_ITEM,REWARD_ITEM const &>, COMDAT

; 693  :     static void construct(_Alloc&, _Objty* const _Ptr, _Types&&... _Args) {

  00000	55		 push	 ebp
  00001	8b ec		 mov	 ebp, esp
  00003	83 ec 44	 sub	 esp, 68			; 00000044H
  00006	53		 push	 ebx
  00007	56		 push	 esi
  00008	57		 push	 edi

; 694  :         ::new (const_cast<void*>(static_cast<const volatile void*>(_Ptr))) _Objty(_STD forward<_Types>(_Args)...);

  00009	8b 45 0c	 mov	 eax, DWORD PTR __Ptr$[ebp]
  0000c	50		 push	 eax
  0000d	6a 18		 push	 24			; 00000018H
  0000f	e8 00 00 00 00	 call	 ??2@YAPAXIPAX@Z		; operator new
  00014	83 c4 08	 add	 esp, 8
  00017	89 45 bc	 mov	 DWORD PTR $T1[ebp], eax
  0001a	8b 4d 10	 mov	 ecx, DWORD PTR _<_Args_0>$[ebp]
  0001d	51		 push	 ecx
  0001e	e8 00 00 00 00	 call	 ??$forward@ABUREWARD_ITEM@@@std@@YAABUREWARD_ITEM@@ABU1@@Z ; std::forward<REWARD_ITEM const &>
  00023	83 c4 04	 add	 esp, 4
  00026	8b 55 bc	 mov	 edx, DWORD PTR $T1[ebp]
  00029	8b 08		 mov	 ecx, DWORD PTR [eax]
  0002b	89 0a		 mov	 DWORD PTR [edx], ecx
  0002d	8b 48 04	 mov	 ecx, DWORD PTR [eax+4]
  00030	89 4a 04	 mov	 DWORD PTR [edx+4], ecx
  00033	8b 48 08	 mov	 ecx, DWORD PTR [eax+8]
  00036	89 4a 08	 mov	 DWORD PTR [edx+8], ecx
  00039	8b 48 0c	 mov	 ecx, DWORD PTR [eax+12]
  0003c	89 4a 0c	 mov	 DWORD PTR [edx+12], ecx
  0003f	8b 48 10	 mov	 ecx, DWORD PTR [eax+16]
  00042	89 4a 10	 mov	 DWORD PTR [edx+16], ecx
  00045	8b 40 14	 mov	 eax, DWORD PTR [eax+20]
  00048	89 42 14	 mov	 DWORD PTR [edx+20], eax

; 695  :     }

  0004b	5f		 pop	 edi
  0004c	5e		 pop	 esi
  0004d	5b		 pop	 ebx
  0004e	8b e5		 mov	 esp, ebp
  00050	5d		 pop	 ebp
  00051	c3		 ret	 0
??$construct@UREWARD_ITEM@@ABU1@@?$_Default_allocator_traits@V?$allocator@U?$_List_node@UREWARD_ITEM@@PAX@std@@@std@@@std@@SAXAAV?$allocator@U?$_List_node@UREWARD_ITEM@@PAX@std@@@1@QAUREWARD_ITEM@@ABU3@@Z ENDP ; std::_Default_allocator_traits<std::allocator<std::_List_node<REWARD_ITEM,void *> > >::construct<REWARD_ITEM,REWARD_ITEM const &>
_TEXT	ENDS
; Function compile flags: /Odtp /ZI
; File C:\Program Files (x86)\Microsoft Visual Studio\2019\Community\VC\Tools\MSVC\14.27.29110\include\xmemory
;	COMDAT ??$construct@UEVENT_TIME@@ABU1@@?$_Default_allocator_traits@V?$allocator@U?$_List_node@UEVENT_TIME@@PAX@std@@@std@@@std@@SAXAAV?$allocator@U?$_List_node@UEVENT_TIME@@PAX@std@@@1@QAUEVENT_TIME@@ABU3@@Z
_TEXT	SEGMENT
$T1 = -68						; size = 4
___formal$ = 8						; size = 4
__Ptr$ = 12						; size = 4
_<_Args_0>$ = 16					; size = 4
??$construct@UEVENT_TIME@@ABU1@@?$_Default_allocator_traits@V?$allocator@U?$_List_node@UEVENT_TIME@@PAX@std@@@std@@@std@@SAXAAV?$allocator@U?$_List_node@UEVENT_TIME@@PAX@std@@@1@QAUEVENT_TIME@@ABU3@@Z PROC ; std::_Default_allocator_traits<std::allocator<std::_List_node<EVENT_TIME,void *> > >::construct<EVENT_TIME,EVENT_TIME const &>, COMDAT

; 693  :     static void construct(_Alloc&, _Objty* const _Ptr, _Types&&... _Args) {

  00000	55		 push	 ebp
  00001	8b ec		 mov	 ebp, esp
  00003	83 ec 44	 sub	 esp, 68			; 00000044H
  00006	53		 push	 ebx
  00007	56		 push	 esi
  00008	57		 push	 edi

; 694  :         ::new (const_cast<void*>(static_cast<const volatile void*>(_Ptr))) _Objty(_STD forward<_Types>(_Args)...);

  00009	8b 45 0c	 mov	 eax, DWORD PTR __Ptr$[ebp]
  0000c	50		 push	 eax
  0000d	6a 08		 push	 8
  0000f	e8 00 00 00 00	 call	 ??2@YAPAXIPAX@Z		; operator new
  00014	83 c4 08	 add	 esp, 8
  00017	89 45 bc	 mov	 DWORD PTR $T1[ebp], eax
  0001a	8b 4d 10	 mov	 ecx, DWORD PTR _<_Args_0>$[ebp]
  0001d	51		 push	 ecx
  0001e	e8 00 00 00 00	 call	 ??$forward@ABUEVENT_TIME@@@std@@YAABUEVENT_TIME@@ABU1@@Z ; std::forward<EVENT_TIME const &>
  00023	83 c4 04	 add	 esp, 4
  00026	8b 10		 mov	 edx, DWORD PTR [eax]
  00028	8b 40 04	 mov	 eax, DWORD PTR [eax+4]
  0002b	8b 4d bc	 mov	 ecx, DWORD PTR $T1[ebp]
  0002e	89 11		 mov	 DWORD PTR [ecx], edx
  00030	89 41 04	 mov	 DWORD PTR [ecx+4], eax

; 695  :     }

  00033	5f		 pop	 edi
  00034	5e		 pop	 esi
  00035	5b		 pop	 ebx
  00036	8b e5		 mov	 esp, ebp
  00038	5d		 pop	 ebp
  00039	c3		 ret	 0
??$construct@UEVENT_TIME@@ABU1@@?$_Default_allocator_traits@V?$allocator@U?$_List_node@UEVENT_TIME@@PAX@std@@@std@@@std@@SAXAAV?$allocator@U?$_List_node@UEVENT_TIME@@PAX@std@@@1@QAUEVENT_TIME@@ABU3@@Z ENDP ; std::_Default_allocator_traits<std::allocator<std::_List_node<EVENT_TIME,void *> > >::construct<EVENT_TIME,EVENT_TIME const &>
_TEXT	ENDS
; Function compile flags: /Odtp /ZI
; File C:\Program Files (x86)\Microsoft Visual Studio\2019\Community\VC\Tools\MSVC\14.27.29110\include\xmemory
;	COMDAT ??$destroy@UEVENT_TIME@@@?$_Default_allocator_traits@V?$allocator@U?$_List_node@UEVENT_TIME@@PAX@std@@@std@@@std@@SAXAAV?$allocator@U?$_List_node@UEVENT_TIME@@PAX@std@@@1@QAUEVENT_TIME@@@Z
_TEXT	SEGMENT
___formal$ = 8						; size = 4
__Ptr$ = 12						; size = 4
??$destroy@UEVENT_TIME@@@?$_Default_allocator_traits@V?$allocator@U?$_List_node@UEVENT_TIME@@PAX@std@@@std@@@std@@SAXAAV?$allocator@U?$_List_node@UEVENT_TIME@@PAX@std@@@1@QAUEVENT_TIME@@@Z PROC ; std::_Default_allocator_traits<std::allocator<std::_List_node<EVENT_TIME,void *> > >::destroy<EVENT_TIME>, COMDAT

; 698  :     static void destroy(_Alloc&, _Uty* const _Ptr) {

  00000	55		 push	 ebp
  00001	8b ec		 mov	 ebp, esp
  00003	83 ec 40	 sub	 esp, 64			; 00000040H
  00006	53		 push	 ebx
  00007	56		 push	 esi
  00008	57		 push	 edi

; 699  :         _Ptr->~_Uty();
; 700  :     }

  00009	5f		 pop	 edi
  0000a	5e		 pop	 esi
  0000b	5b		 pop	 ebx
  0000c	8b e5		 mov	 esp, ebp
  0000e	5d		 pop	 ebp
  0000f	c3		 ret	 0
??$destroy@UEVENT_TIME@@@?$_Default_allocator_traits@V?$allocator@U?$_List_node@UEVENT_TIME@@PAX@std@@@std@@@std@@SAXAAV?$allocator@U?$_List_node@UEVENT_TIME@@PAX@std@@@1@QAUEVENT_TIME@@@Z ENDP ; std::_Default_allocator_traits<std::allocator<std::_List_node<EVENT_TIME,void *> > >::destroy<EVENT_TIME>
_TEXT	ENDS
; Function compile flags: /Odtp /ZI
; File C:\Program Files (x86)\Microsoft Visual Studio\2019\Community\VC\Tools\MSVC\14.27.29110\include\xstddef
;	COMDAT ??$addressof@UEVENT_TIME@@@std@@YAPAUEVENT_TIME@@AAU1@@Z
_TEXT	SEGMENT
__Val$ = 8						; size = 4
??$addressof@UEVENT_TIME@@@std@@YAPAUEVENT_TIME@@AAU1@@Z PROC ; std::addressof<EVENT_TIME>, COMDAT

; 274  : _NODISCARD constexpr _Ty* addressof(_Ty& _Val) noexcept {

  00000	55		 push	 ebp
  00001	8b ec		 mov	 ebp, esp
  00003	83 ec 40	 sub	 esp, 64			; 00000040H
  00006	53		 push	 ebx
  00007	56		 push	 esi
  00008	57		 push	 edi

; 275  :     return __builtin_addressof(_Val);

  00009	8b 45 08	 mov	 eax, DWORD PTR __Val$[ebp]

; 276  : }

  0000c	5f		 pop	 edi
  0000d	5e		 pop	 esi
  0000e	5b		 pop	 ebx
  0000f	8b e5		 mov	 esp, ebp
  00011	5d		 pop	 ebp
  00012	c3		 ret	 0
??$addressof@UEVENT_TIME@@@std@@YAPAUEVENT_TIME@@AAU1@@Z ENDP ; std::addressof<EVENT_TIME>
_TEXT	ENDS
; Function compile flags: /Odtp /ZI
; File C:\Program Files (x86)\Microsoft Visual Studio\2019\Community\VC\Tools\MSVC\14.27.29110\include\xmemory
;	COMDAT ??$_Construct_in_place@PAU?$_List_node@UEVENT_TIME@@PAX@std@@ABQAU12@@std@@YAXAAPAU?$_List_node@UEVENT_TIME@@PAX@0@ABQAU10@@Z
_TEXT	SEGMENT
$T1 = -68						; size = 4
__Obj$ = 8						; size = 4
_<_Args_0>$ = 12					; size = 4
??$_Construct_in_place@PAU?$_List_node@UEVENT_TIME@@PAX@std@@ABQAU12@@std@@YAXAAPAU?$_List_node@UEVENT_TIME@@PAX@0@ABQAU10@@Z PROC ; std::_Construct_in_place<std::_List_node<EVENT_TIME,void *> *,std::_List_node<EVENT_TIME,void *> * const &>, COMDAT

; 228  : void _Construct_in_place(_Ty& _Obj, _Types&&... _Args) noexcept(is_nothrow_constructible_v<_Ty, _Types...>) {

  00000	55		 push	 ebp
  00001	8b ec		 mov	 ebp, esp
  00003	83 ec 44	 sub	 esp, 68			; 00000044H
  00006	53		 push	 ebx
  00007	56		 push	 esi
  00008	57		 push	 edi

; 229  :     ::new (const_cast<void*>(static_cast<const volatile void*>(_STD addressof(_Obj))))

  00009	8b 45 08	 mov	 eax, DWORD PTR __Obj$[ebp]
  0000c	50		 push	 eax
  0000d	e8 00 00 00 00	 call	 ??$addressof@PAU?$_List_node@UEVENT_TIME@@PAX@std@@@std@@YAPAPAU?$_List_node@UEVENT_TIME@@PAX@0@AAPAU10@@Z ; std::addressof<std::_List_node<EVENT_TIME,void *> *>
  00012	83 c4 04	 add	 esp, 4
  00015	50		 push	 eax
  00016	6a 04		 push	 4
  00018	e8 00 00 00 00	 call	 ??2@YAPAXIPAX@Z		; operator new
  0001d	83 c4 08	 add	 esp, 8
  00020	89 45 bc	 mov	 DWORD PTR $T1[ebp], eax
  00023	8b 4d 0c	 mov	 ecx, DWORD PTR _<_Args_0>$[ebp]
  00026	51		 push	 ecx
  00027	e8 00 00 00 00	 call	 ??$forward@ABQAU?$_List_node@UEVENT_TIME@@PAX@std@@@std@@YAABQAU?$_List_node@UEVENT_TIME@@PAX@0@ABQAU10@@Z ; std::forward<std::_List_node<EVENT_TIME,void *> * const &>
  0002c	83 c4 04	 add	 esp, 4
  0002f	8b 55 bc	 mov	 edx, DWORD PTR $T1[ebp]
  00032	8b 00		 mov	 eax, DWORD PTR [eax]
  00034	89 02		 mov	 DWORD PTR [edx], eax

; 230  :         _Ty(_STD forward<_Types>(_Args)...);
; 231  : }

  00036	5f		 pop	 edi
  00037	5e		 pop	 esi
  00038	5b		 pop	 ebx
  00039	8b e5		 mov	 esp, ebp
  0003b	5d		 pop	 ebp
  0003c	c3		 ret	 0
??$_Construct_in_place@PAU?$_List_node@UEVENT_TIME@@PAX@std@@ABQAU12@@std@@YAXAAPAU?$_List_node@UEVENT_TIME@@PAX@0@ABQAU10@@Z ENDP ; std::_Construct_in_place<std::_List_node<EVENT_TIME,void *> *,std::_List_node<EVENT_TIME,void *> * const &>
_TEXT	ENDS
; Function compile flags: /Odtp /ZI
; File C:\Program Files (x86)\Microsoft Visual Studio\2019\Community\VC\Tools\MSVC\14.27.29110\include\xmemory
;	COMDAT ??$destroy@UREWARD_ITEM@@@?$_Default_allocator_traits@V?$allocator@U?$_List_node@UREWARD_ITEM@@PAX@std@@@std@@@std@@SAXAAV?$allocator@U?$_List_node@UREWARD_ITEM@@PAX@std@@@1@QAUREWARD_ITEM@@@Z
_TEXT	SEGMENT
___formal$ = 8						; size = 4
__Ptr$ = 12						; size = 4
??$destroy@UREWARD_ITEM@@@?$_Default_allocator_traits@V?$allocator@U?$_List_node@UREWARD_ITEM@@PAX@std@@@std@@@std@@SAXAAV?$allocator@U?$_List_node@UREWARD_ITEM@@PAX@std@@@1@QAUREWARD_ITEM@@@Z PROC ; std::_Default_allocator_traits<std::allocator<std::_List_node<REWARD_ITEM,void *> > >::destroy<REWARD_ITEM>, COMDAT

; 698  :     static void destroy(_Alloc&, _Uty* const _Ptr) {

  00000	55		 push	 ebp
  00001	8b ec		 mov	 ebp, esp
  00003	83 ec 40	 sub	 esp, 64			; 00000040H
  00006	53		 push	 ebx
  00007	56		 push	 esi
  00008	57		 push	 edi

; 699  :         _Ptr->~_Uty();
; 700  :     }

  00009	5f		 pop	 edi
  0000a	5e		 pop	 esi
  0000b	5b		 pop	 ebx
  0000c	8b e5		 mov	 esp, ebp
  0000e	5d		 pop	 ebp
  0000f	c3		 ret	 0
??$destroy@UREWARD_ITEM@@@?$_Default_allocator_traits@V?$allocator@U?$_List_node@UREWARD_ITEM@@PAX@std@@@std@@@std@@SAXAAV?$allocator@U?$_List_node@UREWARD_ITEM@@PAX@std@@@1@QAUREWARD_ITEM@@@Z ENDP ; std::_Default_allocator_traits<std::allocator<std::_List_node<REWARD_ITEM,void *> > >::destroy<REWARD_ITEM>
_TEXT	ENDS
; Function compile flags: /Odtp /ZI
; File C:\Program Files (x86)\Microsoft Visual Studio\2019\Community\VC\Tools\MSVC\14.27.29110\include\xstddef
;	COMDAT ??$addressof@UREWARD_ITEM@@@std@@YAPAUREWARD_ITEM@@AAU1@@Z
_TEXT	SEGMENT
__Val$ = 8						; size = 4
??$addressof@UREWARD_ITEM@@@std@@YAPAUREWARD_ITEM@@AAU1@@Z PROC ; std::addressof<REWARD_ITEM>, COMDAT

; 274  : _NODISCARD constexpr _Ty* addressof(_Ty& _Val) noexcept {

  00000	55		 push	 ebp
  00001	8b ec		 mov	 ebp, esp
  00003	83 ec 40	 sub	 esp, 64			; 00000040H
  00006	53		 push	 ebx
  00007	56		 push	 esi
  00008	57		 push	 edi

; 275  :     return __builtin_addressof(_Val);

  00009	8b 45 08	 mov	 eax, DWORD PTR __Val$[ebp]

; 276  : }

  0000c	5f		 pop	 edi
  0000d	5e		 pop	 esi
  0000e	5b		 pop	 ebx
  0000f	8b e5		 mov	 esp, ebp
  00011	5d		 pop	 ebp
  00012	c3		 ret	 0
??$addressof@UREWARD_ITEM@@@std@@YAPAUREWARD_ITEM@@AAU1@@Z ENDP ; std::addressof<REWARD_ITEM>
_TEXT	ENDS
; Function compile flags: /Odtp /ZI
; File C:\Program Files (x86)\Microsoft Visual Studio\2019\Community\VC\Tools\MSVC\14.27.29110\include\xmemory
;	COMDAT ??$_Construct_in_place@PAU?$_List_node@UREWARD_ITEM@@PAX@std@@ABQAU12@@std@@YAXAAPAU?$_List_node@UREWARD_ITEM@@PAX@0@ABQAU10@@Z
_TEXT	SEGMENT
$T1 = -68						; size = 4
__Obj$ = 8						; size = 4
_<_Args_0>$ = 12					; size = 4
??$_Construct_in_place@PAU?$_List_node@UREWARD_ITEM@@PAX@std@@ABQAU12@@std@@YAXAAPAU?$_List_node@UREWARD_ITEM@@PAX@0@ABQAU10@@Z PROC ; std::_Construct_in_place<std::_List_node<REWARD_ITEM,void *> *,std::_List_node<REWARD_ITEM,void *> * const &>, COMDAT

; 228  : void _Construct_in_place(_Ty& _Obj, _Types&&... _Args) noexcept(is_nothrow_constructible_v<_Ty, _Types...>) {

  00000	55		 push	 ebp
  00001	8b ec		 mov	 ebp, esp
  00003	83 ec 44	 sub	 esp, 68			; 00000044H
  00006	53		 push	 ebx
  00007	56		 push	 esi
  00008	57		 push	 edi

; 229  :     ::new (const_cast<void*>(static_cast<const volatile void*>(_STD addressof(_Obj))))

  00009	8b 45 08	 mov	 eax, DWORD PTR __Obj$[ebp]
  0000c	50		 push	 eax
  0000d	e8 00 00 00 00	 call	 ??$addressof@PAU?$_List_node@UREWARD_ITEM@@PAX@std@@@std@@YAPAPAU?$_List_node@UREWARD_ITEM@@PAX@0@AAPAU10@@Z ; std::addressof<std::_List_node<REWARD_ITEM,void *> *>
  00012	83 c4 04	 add	 esp, 4
  00015	50		 push	 eax
  00016	6a 04		 push	 4
  00018	e8 00 00 00 00	 call	 ??2@YAPAXIPAX@Z		; operator new
  0001d	83 c4 08	 add	 esp, 8
  00020	89 45 bc	 mov	 DWORD PTR $T1[ebp], eax
  00023	8b 4d 0c	 mov	 ecx, DWORD PTR _<_Args_0>$[ebp]
  00026	51		 push	 ecx
  00027	e8 00 00 00 00	 call	 ??$forward@ABQAU?$_List_node@UREWARD_ITEM@@PAX@std@@@std@@YAABQAU?$_List_node@UREWARD_ITEM@@PAX@0@ABQAU10@@Z ; std::forward<std::_List_node<REWARD_ITEM,void *> * const &>
  0002c	83 c4 04	 add	 esp, 4
  0002f	8b 55 bc	 mov	 edx, DWORD PTR $T1[ebp]
  00032	8b 00		 mov	 eax, DWORD PTR [eax]
  00034	89 02		 mov	 DWORD PTR [edx], eax

; 230  :         _Ty(_STD forward<_Types>(_Args)...);
; 231  : }

  00036	5f		 pop	 edi
  00037	5e		 pop	 esi
  00038	5b		 pop	 ebx
  00039	8b e5		 mov	 esp, ebp
  0003b	5d		 pop	 ebp
  0003c	c3		 ret	 0
??$_Construct_in_place@PAU?$_List_node@UREWARD_ITEM@@PAX@std@@ABQAU12@@std@@YAXAAPAU?$_List_node@UREWARD_ITEM@@PAX@0@ABQAU10@@Z ENDP ; std::_Construct_in_place<std::_List_node<REWARD_ITEM,void *> *,std::_List_node<REWARD_ITEM,void *> * const &>
_TEXT	ENDS
; Function compile flags: /Odtp /ZI
; File C:\Program Files (x86)\Microsoft Visual Studio\2019\Community\VC\Tools\MSVC\14.27.29110\include\xmemory
;	COMDAT ??$_Construct_in_place@PAU?$_List_node@HPAX@std@@ABQAU12@@std@@YAXAAPAU?$_List_node@HPAX@0@ABQAU10@@Z
_TEXT	SEGMENT
$T1 = -68						; size = 4
__Obj$ = 8						; size = 4
_<_Args_0>$ = 12					; size = 4
??$_Construct_in_place@PAU?$_List_node@HPAX@std@@ABQAU12@@std@@YAXAAPAU?$_List_node@HPAX@0@ABQAU10@@Z PROC ; std::_Construct_in_place<std::_List_node<int,void *> *,std::_List_node<int,void *> * const &>, COMDAT

; 228  : void _Construct_in_place(_Ty& _Obj, _Types&&... _Args) noexcept(is_nothrow_constructible_v<_Ty, _Types...>) {

  00000	55		 push	 ebp
  00001	8b ec		 mov	 ebp, esp
  00003	83 ec 44	 sub	 esp, 68			; 00000044H
  00006	53		 push	 ebx
  00007	56		 push	 esi
  00008	57		 push	 edi

; 229  :     ::new (const_cast<void*>(static_cast<const volatile void*>(_STD addressof(_Obj))))

  00009	8b 45 08	 mov	 eax, DWORD PTR __Obj$[ebp]
  0000c	50		 push	 eax
  0000d	e8 00 00 00 00	 call	 ??$addressof@PAU?$_List_node@HPAX@std@@@std@@YAPAPAU?$_List_node@HPAX@0@AAPAU10@@Z ; std::addressof<std::_List_node<int,void *> *>
  00012	83 c4 04	 add	 esp, 4
  00015	50		 push	 eax
  00016	6a 04		 push	 4
  00018	e8 00 00 00 00	 call	 ??2@YAPAXIPAX@Z		; operator new
  0001d	83 c4 08	 add	 esp, 8
  00020	89 45 bc	 mov	 DWORD PTR $T1[ebp], eax
  00023	8b 4d 0c	 mov	 ecx, DWORD PTR _<_Args_0>$[ebp]
  00026	51		 push	 ecx
  00027	e8 00 00 00 00	 call	 ??$forward@ABQAU?$_List_node@HPAX@std@@@std@@YAABQAU?$_List_node@HPAX@0@ABQAU10@@Z ; std::forward<std::_List_node<int,void *> * const &>
  0002c	83 c4 04	 add	 esp, 4
  0002f	8b 55 bc	 mov	 edx, DWORD PTR $T1[ebp]
  00032	8b 00		 mov	 eax, DWORD PTR [eax]
  00034	89 02		 mov	 DWORD PTR [edx], eax

; 230  :         _Ty(_STD forward<_Types>(_Args)...);
; 231  : }

  00036	5f		 pop	 edi
  00037	5e		 pop	 esi
  00038	5b		 pop	 ebx
  00039	8b e5		 mov	 esp, ebp
  0003b	5d		 pop	 ebp
  0003c	c3		 ret	 0
??$_Construct_in_place@PAU?$_List_node@HPAX@std@@ABQAU12@@std@@YAXAAPAU?$_List_node@HPAX@0@ABQAU10@@Z ENDP ; std::_Construct_in_place<std::_List_node<int,void *> *,std::_List_node<int,void *> * const &>
_TEXT	ENDS
; Function compile flags: /Odtp /ZI
; File C:\Program Files (x86)\Microsoft Visual Studio\2019\Community\VC\Tools\MSVC\14.27.29110\include\xmemory
;	COMDAT ??$_Destroy_in_place@PAU?$_List_node@HPAX@std@@@std@@YAXAAPAU?$_List_node@HPAX@0@@Z
_TEXT	SEGMENT
__Obj$ = 8						; size = 4
??$_Destroy_in_place@PAU?$_List_node@HPAX@std@@@std@@YAXAAPAU?$_List_node@HPAX@0@@Z PROC ; std::_Destroy_in_place<std::_List_node<int,void *> *>, COMDAT

; 267  : void _Destroy_in_place(_Ty& _Obj) noexcept {

  00000	55		 push	 ebp
  00001	8b ec		 mov	 ebp, esp
  00003	83 ec 40	 sub	 esp, 64			; 00000040H
  00006	53		 push	 ebx
  00007	56		 push	 esi
  00008	57		 push	 edi

; 268  :     _Obj.~_Ty();
; 269  : }

  00009	5f		 pop	 edi
  0000a	5e		 pop	 esi
  0000b	5b		 pop	 ebx
  0000c	8b e5		 mov	 esp, ebp
  0000e	5d		 pop	 ebp
  0000f	c3		 ret	 0
??$_Destroy_in_place@PAU?$_List_node@HPAX@std@@@std@@YAXAAPAU?$_List_node@HPAX@0@@Z ENDP ; std::_Destroy_in_place<std::_List_node<int,void *> *>
_TEXT	ENDS
; Function compile flags: /Odtp /ZI
; File C:\Program Files (x86)\Microsoft Visual Studio\2019\Community\VC\Tools\MSVC\14.27.29110\include\type_traits
;	COMDAT ??$forward@AAPAU?$_List_node@HPAX@std@@@std@@YAAAPAU?$_List_node@HPAX@0@AAPAU10@@Z
_TEXT	SEGMENT
__Arg$ = 8						; size = 4
??$forward@AAPAU?$_List_node@HPAX@std@@@std@@YAAAPAU?$_List_node@HPAX@0@AAPAU10@@Z PROC ; std::forward<std::_List_node<int,void *> * &>, COMDAT

; 1454 :     remove_reference_t<_Ty>& _Arg) noexcept { // forward an lvalue as either an lvalue or an rvalue

  00000	55		 push	 ebp
  00001	8b ec		 mov	 ebp, esp
  00003	83 ec 40	 sub	 esp, 64			; 00000040H
  00006	53		 push	 ebx
  00007	56		 push	 esi
  00008	57		 push	 edi

; 1455 :     return static_cast<_Ty&&>(_Arg);

  00009	8b 45 08	 mov	 eax, DWORD PTR __Arg$[ebp]

; 1456 : }

  0000c	5f		 pop	 edi
  0000d	5e		 pop	 esi
  0000e	5b		 pop	 ebx
  0000f	8b e5		 mov	 esp, ebp
  00011	5d		 pop	 ebp
  00012	c3		 ret	 0
??$forward@AAPAU?$_List_node@HPAX@std@@@std@@YAAAPAU?$_List_node@HPAX@0@AAPAU10@@Z ENDP ; std::forward<std::_List_node<int,void *> * &>
_TEXT	ENDS
; Function compile flags: /Odtp /ZI
; File C:\Program Files (x86)\Microsoft Visual Studio\2019\Community\VC\Tools\MSVC\14.27.29110\include\xstddef
;	COMDAT ??$addressof@PAU?$_List_node@HPAX@std@@@std@@YAPAPAU?$_List_node@HPAX@0@AAPAU10@@Z
_TEXT	SEGMENT
__Val$ = 8						; size = 4
??$addressof@PAU?$_List_node@HPAX@std@@@std@@YAPAPAU?$_List_node@HPAX@0@AAPAU10@@Z PROC ; std::addressof<std::_List_node<int,void *> *>, COMDAT

; 274  : _NODISCARD constexpr _Ty* addressof(_Ty& _Val) noexcept {

  00000	55		 push	 ebp
  00001	8b ec		 mov	 ebp, esp
  00003	83 ec 40	 sub	 esp, 64			; 00000040H
  00006	53		 push	 ebx
  00007	56		 push	 esi
  00008	57		 push	 edi

; 275  :     return __builtin_addressof(_Val);

  00009	8b 45 08	 mov	 eax, DWORD PTR __Val$[ebp]

; 276  : }

  0000c	5f		 pop	 edi
  0000d	5e		 pop	 esi
  0000e	5b		 pop	 ebx
  0000f	8b e5		 mov	 esp, ebp
  00011	5d		 pop	 ebp
  00012	c3		 ret	 0
??$addressof@PAU?$_List_node@HPAX@std@@@std@@YAPAPAU?$_List_node@HPAX@0@AAPAU10@@Z ENDP ; std::addressof<std::_List_node<int,void *> *>
_TEXT	ENDS
; Function compile flags: /Odtp /ZI
; File C:\Program Files (x86)\Microsoft Visual Studio\2019\Community\VC\Tools\MSVC\14.27.29110\include\xmemory
;	COMDAT ??$_Destroy_in_place@PAU?$_List_node@UREWARD_ITEM@@PAX@std@@@std@@YAXAAPAU?$_List_node@UREWARD_ITEM@@PAX@0@@Z
_TEXT	SEGMENT
__Obj$ = 8						; size = 4
??$_Destroy_in_place@PAU?$_List_node@UREWARD_ITEM@@PAX@std@@@std@@YAXAAPAU?$_List_node@UREWARD_ITEM@@PAX@0@@Z PROC ; std::_Destroy_in_place<std::_List_node<REWARD_ITEM,void *> *>, COMDAT

; 267  : void _Destroy_in_place(_Ty& _Obj) noexcept {

  00000	55		 push	 ebp
  00001	8b ec		 mov	 ebp, esp
  00003	83 ec 40	 sub	 esp, 64			; 00000040H
  00006	53		 push	 ebx
  00007	56		 push	 esi
  00008	57		 push	 edi

; 268  :     _Obj.~_Ty();
; 269  : }

  00009	5f		 pop	 edi
  0000a	5e		 pop	 esi
  0000b	5b		 pop	 ebx
  0000c	8b e5		 mov	 esp, ebp
  0000e	5d		 pop	 ebp
  0000f	c3		 ret	 0
??$_Destroy_in_place@PAU?$_List_node@UREWARD_ITEM@@PAX@std@@@std@@YAXAAPAU?$_List_node@UREWARD_ITEM@@PAX@0@@Z ENDP ; std::_Destroy_in_place<std::_List_node<REWARD_ITEM,void *> *>
_TEXT	ENDS
; Function compile flags: /Odtp /ZI
; File C:\Program Files (x86)\Microsoft Visual Studio\2019\Community\VC\Tools\MSVC\14.27.29110\include\type_traits
;	COMDAT ??$forward@AAPAU?$_List_node@UREWARD_ITEM@@PAX@std@@@std@@YAAAPAU?$_List_node@UREWARD_ITEM@@PAX@0@AAPAU10@@Z
_TEXT	SEGMENT
__Arg$ = 8						; size = 4
??$forward@AAPAU?$_List_node@UREWARD_ITEM@@PAX@std@@@std@@YAAAPAU?$_List_node@UREWARD_ITEM@@PAX@0@AAPAU10@@Z PROC ; std::forward<std::_List_node<REWARD_ITEM,void *> * &>, COMDAT

; 1454 :     remove_reference_t<_Ty>& _Arg) noexcept { // forward an lvalue as either an lvalue or an rvalue

  00000	55		 push	 ebp
  00001	8b ec		 mov	 ebp, esp
  00003	83 ec 40	 sub	 esp, 64			; 00000040H
  00006	53		 push	 ebx
  00007	56		 push	 esi
  00008	57		 push	 edi

; 1455 :     return static_cast<_Ty&&>(_Arg);

  00009	8b 45 08	 mov	 eax, DWORD PTR __Arg$[ebp]

; 1456 : }

  0000c	5f		 pop	 edi
  0000d	5e		 pop	 esi
  0000e	5b		 pop	 ebx
  0000f	8b e5		 mov	 esp, ebp
  00011	5d		 pop	 ebp
  00012	c3		 ret	 0
??$forward@AAPAU?$_List_node@UREWARD_ITEM@@PAX@std@@@std@@YAAAPAU?$_List_node@UREWARD_ITEM@@PAX@0@AAPAU10@@Z ENDP ; std::forward<std::_List_node<REWARD_ITEM,void *> * &>
_TEXT	ENDS
; Function compile flags: /Odtp /ZI
; File C:\Program Files (x86)\Microsoft Visual Studio\2019\Community\VC\Tools\MSVC\14.27.29110\include\xstddef
;	COMDAT ??$addressof@PAU?$_List_node@UREWARD_ITEM@@PAX@std@@@std@@YAPAPAU?$_List_node@UREWARD_ITEM@@PAX@0@AAPAU10@@Z
_TEXT	SEGMENT
__Val$ = 8						; size = 4
??$addressof@PAU?$_List_node@UREWARD_ITEM@@PAX@std@@@std@@YAPAPAU?$_List_node@UREWARD_ITEM@@PAX@0@AAPAU10@@Z PROC ; std::addressof<std::_List_node<REWARD_ITEM,void *> *>, COMDAT

; 274  : _NODISCARD constexpr _Ty* addressof(_Ty& _Val) noexcept {

  00000	55		 push	 ebp
  00001	8b ec		 mov	 ebp, esp
  00003	83 ec 40	 sub	 esp, 64			; 00000040H
  00006	53		 push	 ebx
  00007	56		 push	 esi
  00008	57		 push	 edi

; 275  :     return __builtin_addressof(_Val);

  00009	8b 45 08	 mov	 eax, DWORD PTR __Val$[ebp]

; 276  : }

  0000c	5f		 pop	 edi
  0000d	5e		 pop	 esi
  0000e	5b		 pop	 ebx
  0000f	8b e5		 mov	 esp, ebp
  00011	5d		 pop	 ebp
  00012	c3		 ret	 0
??$addressof@PAU?$_List_node@UREWARD_ITEM@@PAX@std@@@std@@YAPAPAU?$_List_node@UREWARD_ITEM@@PAX@0@AAPAU10@@Z ENDP ; std::addressof<std::_List_node<REWARD_ITEM,void *> *>
_TEXT	ENDS
; Function compile flags: /Odtp /ZI
; File C:\Program Files (x86)\Microsoft Visual Studio\2019\Community\VC\Tools\MSVC\14.27.29110\include\xmemory
;	COMDAT ??$_Destroy_in_place@PAU?$_List_node@UEVENT_TIME@@PAX@std@@@std@@YAXAAPAU?$_List_node@UEVENT_TIME@@PAX@0@@Z
_TEXT	SEGMENT
__Obj$ = 8						; size = 4
??$_Destroy_in_place@PAU?$_List_node@UEVENT_TIME@@PAX@std@@@std@@YAXAAPAU?$_List_node@UEVENT_TIME@@PAX@0@@Z PROC ; std::_Destroy_in_place<std::_List_node<EVENT_TIME,void *> *>, COMDAT

; 267  : void _Destroy_in_place(_Ty& _Obj) noexcept {

  00000	55		 push	 ebp
  00001	8b ec		 mov	 ebp, esp
  00003	83 ec 40	 sub	 esp, 64			; 00000040H
  00006	53		 push	 ebx
  00007	56		 push	 esi
  00008	57		 push	 edi

; 268  :     _Obj.~_Ty();
; 269  : }

  00009	5f		 pop	 edi
  0000a	5e		 pop	 esi
  0000b	5b		 pop	 ebx
  0000c	8b e5		 mov	 esp, ebp
  0000e	5d		 pop	 ebp
  0000f	c3		 ret	 0
??$_Destroy_in_place@PAU?$_List_node@UEVENT_TIME@@PAX@std@@@std@@YAXAAPAU?$_List_node@UEVENT_TIME@@PAX@0@@Z ENDP ; std::_Destroy_in_place<std::_List_node<EVENT_TIME,void *> *>
_TEXT	ENDS
; Function compile flags: /Odtp /ZI
; File C:\Program Files (x86)\Microsoft Visual Studio\2019\Community\VC\Tools\MSVC\14.27.29110\include\type_traits
;	COMDAT ??$forward@AAPAU?$_List_node@UEVENT_TIME@@PAX@std@@@std@@YAAAPAU?$_List_node@UEVENT_TIME@@PAX@0@AAPAU10@@Z
_TEXT	SEGMENT
__Arg$ = 8						; size = 4
??$forward@AAPAU?$_List_node@UEVENT_TIME@@PAX@std@@@std@@YAAAPAU?$_List_node@UEVENT_TIME@@PAX@0@AAPAU10@@Z PROC ; std::forward<std::_List_node<EVENT_TIME,void *> * &>, COMDAT

; 1454 :     remove_reference_t<_Ty>& _Arg) noexcept { // forward an lvalue as either an lvalue or an rvalue

  00000	55		 push	 ebp
  00001	8b ec		 mov	 ebp, esp
  00003	83 ec 40	 sub	 esp, 64			; 00000040H
  00006	53		 push	 ebx
  00007	56		 push	 esi
  00008	57		 push	 edi

; 1455 :     return static_cast<_Ty&&>(_Arg);

  00009	8b 45 08	 mov	 eax, DWORD PTR __Arg$[ebp]

; 1456 : }

  0000c	5f		 pop	 edi
  0000d	5e		 pop	 esi
  0000e	5b		 pop	 ebx
  0000f	8b e5		 mov	 esp, ebp
  00011	5d		 pop	 ebp
  00012	c3		 ret	 0
??$forward@AAPAU?$_List_node@UEVENT_TIME@@PAX@std@@@std@@YAAAPAU?$_List_node@UEVENT_TIME@@PAX@0@AAPAU10@@Z ENDP ; std::forward<std::_List_node<EVENT_TIME,void *> * &>
_TEXT	ENDS
; Function compile flags: /Odtp /ZI
; File C:\Program Files (x86)\Microsoft Visual Studio\2019\Community\VC\Tools\MSVC\14.27.29110\include\xstddef
;	COMDAT ??$addressof@PAU?$_List_node@UEVENT_TIME@@PAX@std@@@std@@YAPAPAU?$_List_node@UEVENT_TIME@@PAX@0@AAPAU10@@Z
_TEXT	SEGMENT
__Val$ = 8						; size = 4
??$addressof@PAU?$_List_node@UEVENT_TIME@@PAX@std@@@std@@YAPAPAU?$_List_node@UEVENT_TIME@@PAX@0@AAPAU10@@Z PROC ; std::addressof<std::_List_node<EVENT_TIME,void *> *>, COMDAT

; 274  : _NODISCARD constexpr _Ty* addressof(_Ty& _Val) noexcept {

  00000	55		 push	 ebp
  00001	8b ec		 mov	 ebp, esp
  00003	83 ec 40	 sub	 esp, 64			; 00000040H
  00006	53		 push	 ebx
  00007	56		 push	 esi
  00008	57		 push	 edi

; 275  :     return __builtin_addressof(_Val);

  00009	8b 45 08	 mov	 eax, DWORD PTR __Val$[ebp]

; 276  : }

  0000c	5f		 pop	 edi
  0000d	5e		 pop	 esi
  0000e	5b		 pop	 ebx
  0000f	8b e5		 mov	 esp, ebp
  00011	5d		 pop	 ebp
  00012	c3		 ret	 0
??$addressof@PAU?$_List_node@UEVENT_TIME@@PAX@std@@@std@@YAPAPAU?$_List_node@UEVENT_TIME@@PAX@0@AAPAU10@@Z ENDP ; std::addressof<std::_List_node<EVENT_TIME,void *> *>
_TEXT	ENDS
; Function compile flags: /Odtp /ZI
; File C:\Program Files (x86)\Microsoft Visual Studio\2019\Community\VC\Tools\MSVC\14.27.29110\include\list
;	COMDAT ??$?0ABH@?$_List_node_emplace_op2@V?$allocator@U?$_List_node@HPAX@std@@@std@@@std@@QAE@AAV?$allocator@U?$_List_node@HPAX@std@@@1@ABH@Z
_TEXT	SEGMENT
_this$ = -16						; size = 4
__$EHRec$ = -12						; size = 12
__Al_$ = 8						; size = 4
_<_Vals_0>$ = 12					; size = 4
??$?0ABH@?$_List_node_emplace_op2@V?$allocator@U?$_List_node@HPAX@std@@@std@@@std@@QAE@AAV?$allocator@U?$_List_node@HPAX@std@@@1@ABH@Z PROC ; std::_List_node_emplace_op2<std::allocator<std::_List_node<int,void *> > >::_List_node_emplace_op2<std::allocator<std::_List_node<int,void *> > ><int const &>, COMDAT
; _this$ = ecx

; 585  :     explicit _List_node_emplace_op2(_Alnode& _Al_, _Valtys&&... _Vals) : _Alloc_construct_ptr<_Alnode>(_Al_) {

  00000	55		 push	 ebp
  00001	8b ec		 mov	 ebp, esp
  00003	6a ff		 push	 -1
  00005	68 00 00 00 00	 push	 __ehhandler$??$?0ABH@?$_List_node_emplace_op2@V?$allocator@U?$_List_node@HPAX@std@@@std@@@std@@QAE@AAV?$allocator@U?$_List_node@HPAX@std@@@1@ABH@Z
  0000a	64 a1 00 00 00
	00		 mov	 eax, DWORD PTR fs:0
  00010	50		 push	 eax
  00011	83 ec 44	 sub	 esp, 68			; 00000044H
  00014	53		 push	 ebx
  00015	56		 push	 esi
  00016	57		 push	 edi
  00017	a1 00 00 00 00	 mov	 eax, DWORD PTR ___security_cookie
  0001c	33 c5		 xor	 eax, ebp
  0001e	50		 push	 eax
  0001f	8d 45 f4	 lea	 eax, DWORD PTR __$EHRec$[ebp]
  00022	64 a3 00 00 00
	00		 mov	 DWORD PTR fs:0, eax
  00028	89 4d f0	 mov	 DWORD PTR _this$[ebp], ecx
  0002b	8b 45 08	 mov	 eax, DWORD PTR __Al_$[ebp]
  0002e	50		 push	 eax
  0002f	8b 4d f0	 mov	 ecx, DWORD PTR _this$[ebp]
  00032	e8 00 00 00 00	 call	 ??0?$_Alloc_construct_ptr@V?$allocator@U?$_List_node@HPAX@std@@@std@@@std@@QAE@AAV?$allocator@U?$_List_node@HPAX@std@@@1@@Z ; std::_Alloc_construct_ptr<std::allocator<std::_List_node<int,void *> > >::_Alloc_construct_ptr<std::allocator<std::_List_node<int,void *> > >
  00037	c7 45 fc 00 00
	00 00		 mov	 DWORD PTR __$EHRec$[ebp+8], 0

; 586  :         this->_Allocate();

  0003e	8b 4d f0	 mov	 ecx, DWORD PTR _this$[ebp]
  00041	e8 00 00 00 00	 call	 ?_Allocate@?$_Alloc_construct_ptr@V?$allocator@U?$_List_node@HPAX@std@@@std@@@std@@QAEXXZ ; std::_Alloc_construct_ptr<std::allocator<std::_List_node<int,void *> > >::_Allocate

; 587  :         _Alnode_traits::construct(this->_Al, _STD addressof(this->_Ptr->_Myval), _STD forward<_Valtys>(_Vals)...);

  00046	8b 45 0c	 mov	 eax, DWORD PTR _<_Vals_0>$[ebp]
  00049	50		 push	 eax
  0004a	e8 00 00 00 00	 call	 ??$forward@ABH@std@@YAABHABH@Z ; std::forward<int const &>
  0004f	83 c4 04	 add	 esp, 4
  00052	50		 push	 eax
  00053	8b 4d f0	 mov	 ecx, DWORD PTR _this$[ebp]
  00056	8b 51 04	 mov	 edx, DWORD PTR [ecx+4]
  00059	83 c2 08	 add	 edx, 8
  0005c	52		 push	 edx
  0005d	e8 00 00 00 00	 call	 ??$addressof@H@std@@YAPAHAAH@Z ; std::addressof<int>
  00062	83 c4 04	 add	 esp, 4
  00065	50		 push	 eax
  00066	8b 45 f0	 mov	 eax, DWORD PTR _this$[ebp]
  00069	8b 08		 mov	 ecx, DWORD PTR [eax]
  0006b	51		 push	 ecx
  0006c	e8 00 00 00 00	 call	 ??$construct@HABH@?$_Default_allocator_traits@V?$allocator@U?$_List_node@HPAX@std@@@std@@@std@@SAXAAV?$allocator@U?$_List_node@HPAX@std@@@1@QAHABH@Z ; std::_Default_allocator_traits<std::allocator<std::_List_node<int,void *> > >::construct<int,int const &>
  00071	83 c4 0c	 add	 esp, 12			; 0000000cH

; 588  :     }

  00074	c7 45 fc ff ff
	ff ff		 mov	 DWORD PTR __$EHRec$[ebp+8], -1
  0007b	8b 45 f0	 mov	 eax, DWORD PTR _this$[ebp]
  0007e	8b 4d f4	 mov	 ecx, DWORD PTR __$EHRec$[ebp]
  00081	64 89 0d 00 00
	00 00		 mov	 DWORD PTR fs:0, ecx
  00088	59		 pop	 ecx
  00089	5f		 pop	 edi
  0008a	5e		 pop	 esi
  0008b	5b		 pop	 ebx
  0008c	8b e5		 mov	 esp, ebp
  0008e	5d		 pop	 ebp
  0008f	c2 08 00	 ret	 8
_TEXT	ENDS
;	COMDAT text$x
text$x	SEGMENT
__unwindfunclet$??$?0ABH@?$_List_node_emplace_op2@V?$allocator@U?$_List_node@HPAX@std@@@std@@@std@@QAE@AAV?$allocator@U?$_List_node@HPAX@std@@@1@ABH@Z$0:
  00000	8b 4d f0	 mov	 ecx, DWORD PTR _this$[ebp]
  00003	e9 00 00 00 00	 jmp	 ??1?$_Alloc_construct_ptr@V?$allocator@U?$_List_node@HPAX@std@@@std@@@std@@QAE@XZ ; std::_Alloc_construct_ptr<std::allocator<std::_List_node<int,void *> > >::~_Alloc_construct_ptr<std::allocator<std::_List_node<int,void *> > >
  00008	cc		 int	 3
  00009	cc		 int	 3
  0000a	cc		 int	 3
  0000b	cc		 int	 3
  0000c	cc		 int	 3
__ehhandler$??$?0ABH@?$_List_node_emplace_op2@V?$allocator@U?$_List_node@HPAX@std@@@std@@@std@@QAE@AAV?$allocator@U?$_List_node@HPAX@std@@@1@ABH@Z:
  0000d	90		 npad	 1
  0000e	90		 npad	 1
  0000f	8b 54 24 08	 mov	 edx, DWORD PTR [esp+8]
  00013	8d 42 0c	 lea	 eax, DWORD PTR [edx+12]
  00016	8b 4a ac	 mov	 ecx, DWORD PTR [edx-84]
  00019	33 c8		 xor	 ecx, eax
  0001b	e8 00 00 00 00	 call	 @__security_check_cookie@4
  00020	b8 00 00 00 00	 mov	 eax, OFFSET __ehfuncinfo$??$?0ABH@?$_List_node_emplace_op2@V?$allocator@U?$_List_node@HPAX@std@@@std@@@std@@QAE@AAV?$allocator@U?$_List_node@HPAX@std@@@1@ABH@Z
  00025	e9 00 00 00 00	 jmp	 ___CxxFrameHandler3
text$x	ENDS
??$?0ABH@?$_List_node_emplace_op2@V?$allocator@U?$_List_node@HPAX@std@@@std@@@std@@QAE@AAV?$allocator@U?$_List_node@HPAX@std@@@1@ABH@Z ENDP ; std::_List_node_emplace_op2<std::allocator<std::_List_node<int,void *> > >::_List_node_emplace_op2<std::allocator<std::_List_node<int,void *> > ><int const &>
; Function compile flags: /Odtp /ZI
; File C:\Program Files (x86)\Microsoft Visual Studio\2019\Community\VC\Tools\MSVC\14.27.29110\include\type_traits
;	COMDAT ??$forward@ABH@std@@YAABHABH@Z
_TEXT	SEGMENT
__Arg$ = 8						; size = 4
??$forward@ABH@std@@YAABHABH@Z PROC			; std::forward<int const &>, COMDAT

; 1454 :     remove_reference_t<_Ty>& _Arg) noexcept { // forward an lvalue as either an lvalue or an rvalue

  00000	55		 push	 ebp
  00001	8b ec		 mov	 ebp, esp
  00003	83 ec 40	 sub	 esp, 64			; 00000040H
  00006	53		 push	 ebx
  00007	56		 push	 esi
  00008	57		 push	 edi

; 1455 :     return static_cast<_Ty&&>(_Arg);

  00009	8b 45 08	 mov	 eax, DWORD PTR __Arg$[ebp]

; 1456 : }

  0000c	5f		 pop	 edi
  0000d	5e		 pop	 esi
  0000e	5b		 pop	 ebx
  0000f	8b e5		 mov	 esp, ebp
  00011	5d		 pop	 ebp
  00012	c3		 ret	 0
??$forward@ABH@std@@YAABHABH@Z ENDP			; std::forward<int const &>
_TEXT	ENDS
; Function compile flags: /Odtp /ZI
; File C:\Program Files (x86)\Microsoft Visual Studio\2019\Community\VC\Tools\MSVC\14.27.29110\include\list
;	COMDAT ?_Transfer_before@?$_List_node_emplace_op2@V?$allocator@U?$_List_node@HPAX@std@@@std@@@std@@QAEPAU?$_List_node@HPAX@2@QAU32@@Z
_TEXT	SEGMENT
__Result$ = -12						; size = 4
__Insert_after$ = -8					; size = 4
_this$ = -4						; size = 4
__Insert_before$ = 8					; size = 4
?_Transfer_before@?$_List_node_emplace_op2@V?$allocator@U?$_List_node@HPAX@std@@@std@@@std@@QAEPAU?$_List_node@HPAX@2@QAU32@@Z PROC ; std::_List_node_emplace_op2<std::allocator<std::_List_node<int,void *> > >::_Transfer_before, COMDAT
; _this$ = ecx

; 599  :     pointer _Transfer_before(const pointer _Insert_before) noexcept {

  00000	55		 push	 ebp
  00001	8b ec		 mov	 ebp, esp
  00003	83 ec 4c	 sub	 esp, 76			; 0000004cH
  00006	53		 push	 ebx
  00007	56		 push	 esi
  00008	57		 push	 edi
  00009	89 4d fc	 mov	 DWORD PTR _this$[ebp], ecx

; 600  :         const pointer _Insert_after = _Insert_before->_Prev;

  0000c	8b 45 08	 mov	 eax, DWORD PTR __Insert_before$[ebp]
  0000f	8b 48 04	 mov	 ecx, DWORD PTR [eax+4]
  00012	89 4d f8	 mov	 DWORD PTR __Insert_after$[ebp], ecx

; 601  :         _Construct_in_place(this->_Ptr->_Next, _Insert_before);

  00015	8d 45 08	 lea	 eax, DWORD PTR __Insert_before$[ebp]
  00018	50		 push	 eax
  00019	8b 4d fc	 mov	 ecx, DWORD PTR _this$[ebp]
  0001c	8b 51 04	 mov	 edx, DWORD PTR [ecx+4]
  0001f	52		 push	 edx
  00020	e8 00 00 00 00	 call	 ??$_Construct_in_place@PAU?$_List_node@HPAX@std@@ABQAU12@@std@@YAXAAPAU?$_List_node@HPAX@0@ABQAU10@@Z ; std::_Construct_in_place<std::_List_node<int,void *> *,std::_List_node<int,void *> * const &>
  00025	83 c4 08	 add	 esp, 8

; 602  :         _Construct_in_place(this->_Ptr->_Prev, _Insert_after);

  00028	8d 45 f8	 lea	 eax, DWORD PTR __Insert_after$[ebp]
  0002b	50		 push	 eax
  0002c	8b 4d fc	 mov	 ecx, DWORD PTR _this$[ebp]
  0002f	8b 51 04	 mov	 edx, DWORD PTR [ecx+4]
  00032	83 c2 04	 add	 edx, 4
  00035	52		 push	 edx
  00036	e8 00 00 00 00	 call	 ??$_Construct_in_place@PAU?$_List_node@HPAX@std@@ABQAU12@@std@@YAXAAPAU?$_List_node@HPAX@0@ABQAU10@@Z ; std::_Construct_in_place<std::_List_node<int,void *> *,std::_List_node<int,void *> * const &>
  0003b	83 c4 08	 add	 esp, 8

; 603  :         const auto _Result    = this->_Ptr;

  0003e	8b 45 fc	 mov	 eax, DWORD PTR _this$[ebp]
  00041	8b 48 04	 mov	 ecx, DWORD PTR [eax+4]
  00044	89 4d f4	 mov	 DWORD PTR __Result$[ebp], ecx

; 604  :         this->_Ptr            = pointer{};

  00047	8b 45 fc	 mov	 eax, DWORD PTR _this$[ebp]
  0004a	c7 40 04 00 00
	00 00		 mov	 DWORD PTR [eax+4], 0

; 605  :         _Insert_before->_Prev = _Result;

  00051	8b 45 08	 mov	 eax, DWORD PTR __Insert_before$[ebp]
  00054	8b 4d f4	 mov	 ecx, DWORD PTR __Result$[ebp]
  00057	89 48 04	 mov	 DWORD PTR [eax+4], ecx

; 606  :         _Insert_after->_Next  = _Result;

  0005a	8b 45 f8	 mov	 eax, DWORD PTR __Insert_after$[ebp]
  0005d	8b 4d f4	 mov	 ecx, DWORD PTR __Result$[ebp]
  00060	89 08		 mov	 DWORD PTR [eax], ecx

; 607  :         return _Result;

  00062	8b 45 f4	 mov	 eax, DWORD PTR __Result$[ebp]

; 608  :     }

  00065	5f		 pop	 edi
  00066	5e		 pop	 esi
  00067	5b		 pop	 ebx
  00068	8b e5		 mov	 esp, ebp
  0006a	5d		 pop	 ebp
  0006b	c2 04 00	 ret	 4
?_Transfer_before@?$_List_node_emplace_op2@V?$allocator@U?$_List_node@HPAX@std@@@std@@@std@@QAEPAU?$_List_node@HPAX@2@QAU32@@Z ENDP ; std::_List_node_emplace_op2<std::allocator<std::_List_node<int,void *> > >::_Transfer_before
_TEXT	ENDS
; Function compile flags: /Odtp /ZI
; File C:\Program Files (x86)\Microsoft Visual Studio\2019\Community\VC\Tools\MSVC\14.27.29110\include\list
;	COMDAT ??1?$_List_node_emplace_op2@V?$allocator@U?$_List_node@HPAX@std@@@std@@@std@@QAE@XZ
_TEXT	SEGMENT
_this$ = -16						; size = 4
__$EHRec$ = -12						; size = 12
??1?$_List_node_emplace_op2@V?$allocator@U?$_List_node@HPAX@std@@@std@@@std@@QAE@XZ PROC ; std::_List_node_emplace_op2<std::allocator<std::_List_node<int,void *> > >::~_List_node_emplace_op2<std::allocator<std::_List_node<int,void *> > >, COMDAT
; _this$ = ecx

; 590  :     ~_List_node_emplace_op2() {

  00000	55		 push	 ebp
  00001	8b ec		 mov	 ebp, esp
  00003	6a ff		 push	 -1
  00005	68 00 00 00 00	 push	 __ehhandler$??1?$_List_node_emplace_op2@V?$allocator@U?$_List_node@HPAX@std@@@std@@@std@@QAE@XZ
  0000a	64 a1 00 00 00
	00		 mov	 eax, DWORD PTR fs:0
  00010	50		 push	 eax
  00011	83 ec 44	 sub	 esp, 68			; 00000044H
  00014	53		 push	 ebx
  00015	56		 push	 esi
  00016	57		 push	 edi
  00017	a1 00 00 00 00	 mov	 eax, DWORD PTR ___security_cookie
  0001c	33 c5		 xor	 eax, ebp
  0001e	50		 push	 eax
  0001f	8d 45 f4	 lea	 eax, DWORD PTR __$EHRec$[ebp]
  00022	64 a3 00 00 00
	00		 mov	 DWORD PTR fs:0, eax
  00028	89 4d f0	 mov	 DWORD PTR _this$[ebp], ecx

; 591  :         if (this->_Ptr != pointer{}) {

  0002b	8b 45 f0	 mov	 eax, DWORD PTR _this$[ebp]
  0002e	83 78 04 00	 cmp	 DWORD PTR [eax+4], 0
  00032	74 21		 je	 SHORT $LN1@List_node_

; 592  :             _Alnode_traits::destroy(this->_Al, _STD addressof(this->_Ptr->_Myval));

  00034	8b 45 f0	 mov	 eax, DWORD PTR _this$[ebp]
  00037	8b 48 04	 mov	 ecx, DWORD PTR [eax+4]
  0003a	83 c1 08	 add	 ecx, 8
  0003d	51		 push	 ecx
  0003e	e8 00 00 00 00	 call	 ??$addressof@H@std@@YAPAHAAH@Z ; std::addressof<int>
  00043	83 c4 04	 add	 esp, 4
  00046	50		 push	 eax
  00047	8b 55 f0	 mov	 edx, DWORD PTR _this$[ebp]
  0004a	8b 02		 mov	 eax, DWORD PTR [edx]
  0004c	50		 push	 eax
  0004d	e8 00 00 00 00	 call	 ??$destroy@H@?$_Default_allocator_traits@V?$allocator@U?$_List_node@HPAX@std@@@std@@@std@@SAXAAV?$allocator@U?$_List_node@HPAX@std@@@1@QAH@Z ; std::_Default_allocator_traits<std::allocator<std::_List_node<int,void *> > >::destroy<int>
  00052	83 c4 08	 add	 esp, 8
$LN1@List_node_:

; 593  :         }
; 594  :     }

  00055	8b 4d f0	 mov	 ecx, DWORD PTR _this$[ebp]
  00058	e8 00 00 00 00	 call	 ??1?$_Alloc_construct_ptr@V?$allocator@U?$_List_node@HPAX@std@@@std@@@std@@QAE@XZ ; std::_Alloc_construct_ptr<std::allocator<std::_List_node<int,void *> > >::~_Alloc_construct_ptr<std::allocator<std::_List_node<int,void *> > >
  0005d	8b 4d f4	 mov	 ecx, DWORD PTR __$EHRec$[ebp]
  00060	64 89 0d 00 00
	00 00		 mov	 DWORD PTR fs:0, ecx
  00067	59		 pop	 ecx
  00068	5f		 pop	 edi
  00069	5e		 pop	 esi
  0006a	5b		 pop	 ebx
  0006b	8b e5		 mov	 esp, ebp
  0006d	5d		 pop	 ebp
  0006e	c3		 ret	 0
  0006f	cc		 int	 3
  00070	cc		 int	 3
  00071	cc		 int	 3
  00072	cc		 int	 3
  00073	cc		 int	 3
_TEXT	ENDS
;	COMDAT text$x
text$x	SEGMENT
__ehhandler$??1?$_List_node_emplace_op2@V?$allocator@U?$_List_node@HPAX@std@@@std@@@std@@QAE@XZ:
  00000	90		 npad	 1
  00001	90		 npad	 1
  00002	8b 54 24 08	 mov	 edx, DWORD PTR [esp+8]
  00006	8d 42 0c	 lea	 eax, DWORD PTR [edx+12]
  00009	8b 4a ac	 mov	 ecx, DWORD PTR [edx-84]
  0000c	33 c8		 xor	 ecx, eax
  0000e	e8 00 00 00 00	 call	 @__security_check_cookie@4
  00013	b8 00 00 00 00	 mov	 eax, OFFSET __ehfuncinfo$??1?$_List_node_emplace_op2@V?$allocator@U?$_List_node@HPAX@std@@@std@@@std@@QAE@XZ
  00018	e9 00 00 00 00	 jmp	 ___CxxFrameHandler3
text$x	ENDS
??1?$_List_node_emplace_op2@V?$allocator@U?$_List_node@HPAX@std@@@std@@@std@@QAE@XZ ENDP ; std::_List_node_emplace_op2<std::allocator<std::_List_node<int,void *> > >::~_List_node_emplace_op2<std::allocator<std::_List_node<int,void *> > >
; Function compile flags: /Odtp /ZI
; File C:\Program Files (x86)\Microsoft Visual Studio\2019\Community\VC\Tools\MSVC\14.27.29110\include\xmemory
;	COMDAT ??1?$_Alloc_construct_ptr@V?$allocator@U?$_List_node@HPAX@std@@@std@@@std@@QAE@XZ
_TEXT	SEGMENT
_this$ = -16						; size = 4
__$EHRec$ = -12						; size = 12
??1?$_Alloc_construct_ptr@V?$allocator@U?$_List_node@HPAX@std@@@std@@@std@@QAE@XZ PROC ; std::_Alloc_construct_ptr<std::allocator<std::_List_node<int,void *> > >::~_Alloc_construct_ptr<std::allocator<std::_List_node<int,void *> > >, COMDAT
; _this$ = ecx

; 1051 :     ~_Alloc_construct_ptr() { // if this instance is engaged, deallocate storage

  00000	55		 push	 ebp
  00001	8b ec		 mov	 ebp, esp
  00003	6a ff		 push	 -1
  00005	68 00 00 00 00	 push	 __ehhandler$??1?$_Alloc_construct_ptr@V?$allocator@U?$_List_node@HPAX@std@@@std@@@std@@QAE@XZ
  0000a	64 a1 00 00 00
	00		 mov	 eax, DWORD PTR fs:0
  00010	50		 push	 eax
  00011	83 ec 44	 sub	 esp, 68			; 00000044H
  00014	53		 push	 ebx
  00015	56		 push	 esi
  00016	57		 push	 edi
  00017	a1 00 00 00 00	 mov	 eax, DWORD PTR ___security_cookie
  0001c	33 c5		 xor	 eax, ebp
  0001e	50		 push	 eax
  0001f	8d 45 f4	 lea	 eax, DWORD PTR __$EHRec$[ebp]
  00022	64 a3 00 00 00
	00		 mov	 DWORD PTR fs:0, eax
  00028	89 4d f0	 mov	 DWORD PTR _this$[ebp], ecx

; 1052 :         if (_Ptr) {

  0002b	8b 45 f0	 mov	 eax, DWORD PTR _this$[ebp]
  0002e	83 78 04 00	 cmp	 DWORD PTR [eax+4], 0
  00032	74 13		 je	 SHORT $LN3@Alloc_cons

; 1053 :             _Al.deallocate(_Ptr, 1);

  00034	6a 01		 push	 1
  00036	8b 45 f0	 mov	 eax, DWORD PTR _this$[ebp]
  00039	8b 48 04	 mov	 ecx, DWORD PTR [eax+4]
  0003c	51		 push	 ecx
  0003d	8b 55 f0	 mov	 edx, DWORD PTR _this$[ebp]
  00040	8b 0a		 mov	 ecx, DWORD PTR [edx]
  00042	e8 00 00 00 00	 call	 ?deallocate@?$allocator@U?$_List_node@HPAX@std@@@std@@QAEXQAU?$_List_node@HPAX@2@I@Z ; std::allocator<std::_List_node<int,void *> >::deallocate
$LN3@Alloc_cons:

; 1054 :         }
; 1055 :     }

  00047	8b 4d f4	 mov	 ecx, DWORD PTR __$EHRec$[ebp]
  0004a	64 89 0d 00 00
	00 00		 mov	 DWORD PTR fs:0, ecx
  00051	59		 pop	 ecx
  00052	5f		 pop	 edi
  00053	5e		 pop	 esi
  00054	5b		 pop	 ebx
  00055	8b e5		 mov	 esp, ebp
  00057	5d		 pop	 ebp
  00058	c3		 ret	 0
  00059	cc		 int	 3
  0005a	cc		 int	 3
  0005b	cc		 int	 3
  0005c	cc		 int	 3
  0005d	cc		 int	 3
_TEXT	ENDS
;	COMDAT text$x
text$x	SEGMENT
__ehhandler$??1?$_Alloc_construct_ptr@V?$allocator@U?$_List_node@HPAX@std@@@std@@@std@@QAE@XZ:
  00000	90		 npad	 1
  00001	90		 npad	 1
  00002	8b 54 24 08	 mov	 edx, DWORD PTR [esp+8]
  00006	8d 42 0c	 lea	 eax, DWORD PTR [edx+12]
  00009	8b 4a ac	 mov	 ecx, DWORD PTR [edx-84]
  0000c	33 c8		 xor	 ecx, eax
  0000e	e8 00 00 00 00	 call	 @__security_check_cookie@4
  00013	b8 00 00 00 00	 mov	 eax, OFFSET __ehfuncinfo$??1?$_Alloc_construct_ptr@V?$allocator@U?$_List_node@HPAX@std@@@std@@@std@@QAE@XZ
  00018	e9 00 00 00 00	 jmp	 ___CxxFrameHandler3
text$x	ENDS
??1?$_Alloc_construct_ptr@V?$allocator@U?$_List_node@HPAX@std@@@std@@@std@@QAE@XZ ENDP ; std::_Alloc_construct_ptr<std::allocator<std::_List_node<int,void *> > >::~_Alloc_construct_ptr<std::allocator<std::_List_node<int,void *> > >
; Function compile flags: /Odtp /ZI
; File C:\Program Files (x86)\Microsoft Visual Studio\2019\Community\VC\Tools\MSVC\14.27.29110\include\xmemory
;	COMDAT ?_Allocate@?$_Alloc_construct_ptr@V?$allocator@U?$_List_node@HPAX@std@@@std@@@std@@QAEXXZ
_TEXT	SEGMENT
_this$ = -4						; size = 4
?_Allocate@?$_Alloc_construct_ptr@V?$allocator@U?$_List_node@HPAX@std@@@std@@@std@@QAEXXZ PROC ; std::_Alloc_construct_ptr<std::allocator<std::_List_node<int,void *> > >::_Allocate, COMDAT
; _this$ = ecx

; 1046 :     void _Allocate() { // disengage *this, then allocate a new memory block

  00000	55		 push	 ebp
  00001	8b ec		 mov	 ebp, esp
  00003	83 ec 44	 sub	 esp, 68			; 00000044H
  00006	53		 push	 ebx
  00007	56		 push	 esi
  00008	57		 push	 edi
  00009	89 4d fc	 mov	 DWORD PTR _this$[ebp], ecx

; 1047 :         _Ptr = nullptr; // if allocate throws, prevents double-free

  0000c	8b 45 fc	 mov	 eax, DWORD PTR _this$[ebp]
  0000f	c7 40 04 00 00
	00 00		 mov	 DWORD PTR [eax+4], 0

; 1048 :         _Ptr = _Al.allocate(1);

  00016	6a 01		 push	 1
  00018	8b 45 fc	 mov	 eax, DWORD PTR _this$[ebp]
  0001b	8b 08		 mov	 ecx, DWORD PTR [eax]
  0001d	e8 00 00 00 00	 call	 ?allocate@?$allocator@U?$_List_node@HPAX@std@@@std@@QAEPAU?$_List_node@HPAX@2@I@Z ; std::allocator<std::_List_node<int,void *> >::allocate
  00022	8b 4d fc	 mov	 ecx, DWORD PTR _this$[ebp]
  00025	89 41 04	 mov	 DWORD PTR [ecx+4], eax

; 1049 :     }

  00028	5f		 pop	 edi
  00029	5e		 pop	 esi
  0002a	5b		 pop	 ebx
  0002b	8b e5		 mov	 esp, ebp
  0002d	5d		 pop	 ebp
  0002e	c3		 ret	 0
?_Allocate@?$_Alloc_construct_ptr@V?$allocator@U?$_List_node@HPAX@std@@@std@@@std@@QAEXXZ ENDP ; std::_Alloc_construct_ptr<std::allocator<std::_List_node<int,void *> > >::_Allocate
_TEXT	ENDS
; Function compile flags: /Odtp /ZI
; File C:\Program Files (x86)\Microsoft Visual Studio\2019\Community\VC\Tools\MSVC\14.27.29110\include\xmemory
;	COMDAT ??0?$_Alloc_construct_ptr@V?$allocator@U?$_List_node@HPAX@std@@@std@@@std@@QAE@AAV?$allocator@U?$_List_node@HPAX@std@@@1@@Z
_TEXT	SEGMENT
_this$ = -4						; size = 4
__Al_$ = 8						; size = 4
??0?$_Alloc_construct_ptr@V?$allocator@U?$_List_node@HPAX@std@@@std@@@std@@QAE@AAV?$allocator@U?$_List_node@HPAX@std@@@1@@Z PROC ; std::_Alloc_construct_ptr<std::allocator<std::_List_node<int,void *> > >::_Alloc_construct_ptr<std::allocator<std::_List_node<int,void *> > >, COMDAT
; _this$ = ecx

; 1040 :     explicit _Alloc_construct_ptr(_Alloc& _Al_) : _Al(_Al_), _Ptr(nullptr) {}

  00000	55		 push	 ebp
  00001	8b ec		 mov	 ebp, esp
  00003	83 ec 44	 sub	 esp, 68			; 00000044H
  00006	53		 push	 ebx
  00007	56		 push	 esi
  00008	57		 push	 edi
  00009	89 4d fc	 mov	 DWORD PTR _this$[ebp], ecx
  0000c	8b 45 fc	 mov	 eax, DWORD PTR _this$[ebp]
  0000f	8b 4d 08	 mov	 ecx, DWORD PTR __Al_$[ebp]
  00012	89 08		 mov	 DWORD PTR [eax], ecx
  00014	8b 45 fc	 mov	 eax, DWORD PTR _this$[ebp]
  00017	c7 40 04 00 00
	00 00		 mov	 DWORD PTR [eax+4], 0
  0001e	8b 45 fc	 mov	 eax, DWORD PTR _this$[ebp]
  00021	5f		 pop	 edi
  00022	5e		 pop	 esi
  00023	5b		 pop	 ebx
  00024	8b e5		 mov	 esp, ebp
  00026	5d		 pop	 ebp
  00027	c2 04 00	 ret	 4
??0?$_Alloc_construct_ptr@V?$allocator@U?$_List_node@HPAX@std@@@std@@@std@@QAE@AAV?$allocator@U?$_List_node@HPAX@std@@@1@@Z ENDP ; std::_Alloc_construct_ptr<std::allocator<std::_List_node<int,void *> > >::_Alloc_construct_ptr<std::allocator<std::_List_node<int,void *> > >
_TEXT	ENDS
; Function compile flags: /Odtp /ZI
; File C:\Program Files (x86)\Microsoft Visual Studio\2019\Community\VC\Tools\MSVC\14.27.29110\include\xmemory
;	COMDAT ??$destroy@H@?$_Default_allocator_traits@V?$allocator@U?$_List_node@HPAX@std@@@std@@@std@@SAXAAV?$allocator@U?$_List_node@HPAX@std@@@1@QAH@Z
_TEXT	SEGMENT
___formal$ = 8						; size = 4
__Ptr$ = 12						; size = 4
??$destroy@H@?$_Default_allocator_traits@V?$allocator@U?$_List_node@HPAX@std@@@std@@@std@@SAXAAV?$allocator@U?$_List_node@HPAX@std@@@1@QAH@Z PROC ; std::_Default_allocator_traits<std::allocator<std::_List_node<int,void *> > >::destroy<int>, COMDAT

; 698  :     static void destroy(_Alloc&, _Uty* const _Ptr) {

  00000	55		 push	 ebp
  00001	8b ec		 mov	 ebp, esp
  00003	83 ec 40	 sub	 esp, 64			; 00000040H
  00006	53		 push	 ebx
  00007	56		 push	 esi
  00008	57		 push	 edi

; 699  :         _Ptr->~_Uty();
; 700  :     }

  00009	5f		 pop	 edi
  0000a	5e		 pop	 esi
  0000b	5b		 pop	 ebx
  0000c	8b e5		 mov	 esp, ebp
  0000e	5d		 pop	 ebp
  0000f	c3		 ret	 0
??$destroy@H@?$_Default_allocator_traits@V?$allocator@U?$_List_node@HPAX@std@@@std@@@std@@SAXAAV?$allocator@U?$_List_node@HPAX@std@@@1@QAH@Z ENDP ; std::_Default_allocator_traits<std::allocator<std::_List_node<int,void *> > >::destroy<int>
_TEXT	ENDS
; Function compile flags: /Odtp /ZI
; File C:\Program Files (x86)\Microsoft Visual Studio\2019\Community\VC\Tools\MSVC\14.27.29110\include\xstddef
;	COMDAT ??$addressof@H@std@@YAPAHAAH@Z
_TEXT	SEGMENT
__Val$ = 8						; size = 4
??$addressof@H@std@@YAPAHAAH@Z PROC			; std::addressof<int>, COMDAT

; 274  : _NODISCARD constexpr _Ty* addressof(_Ty& _Val) noexcept {

  00000	55		 push	 ebp
  00001	8b ec		 mov	 ebp, esp
  00003	83 ec 40	 sub	 esp, 64			; 00000040H
  00006	53		 push	 ebx
  00007	56		 push	 esi
  00008	57		 push	 edi

; 275  :     return __builtin_addressof(_Val);

  00009	8b 45 08	 mov	 eax, DWORD PTR __Val$[ebp]

; 276  : }

  0000c	5f		 pop	 edi
  0000d	5e		 pop	 esi
  0000e	5b		 pop	 ebx
  0000f	8b e5		 mov	 esp, ebp
  00011	5d		 pop	 ebp
  00012	c3		 ret	 0
??$addressof@H@std@@YAPAHAAH@Z ENDP			; std::addressof<int>
_TEXT	ENDS
; Function compile flags: /Odtp /ZI
; File C:\Program Files (x86)\Microsoft Visual Studio\2019\Community\VC\Tools\MSVC\14.27.29110\include\list
;	COMDAT ??$?0ABUREWARD_ITEM@@@?$_List_node_emplace_op2@V?$allocator@U?$_List_node@UREWARD_ITEM@@PAX@std@@@std@@@std@@QAE@AAV?$allocator@U?$_List_node@UREWARD_ITEM@@PAX@std@@@1@ABUREWARD_ITEM@@@Z
_TEXT	SEGMENT
_this$ = -16						; size = 4
__$EHRec$ = -12						; size = 12
__Al_$ = 8						; size = 4
_<_Vals_0>$ = 12					; size = 4
??$?0ABUREWARD_ITEM@@@?$_List_node_emplace_op2@V?$allocator@U?$_List_node@UREWARD_ITEM@@PAX@std@@@std@@@std@@QAE@AAV?$allocator@U?$_List_node@UREWARD_ITEM@@PAX@std@@@1@ABUREWARD_ITEM@@@Z PROC ; std::_List_node_emplace_op2<std::allocator<std::_List_node<REWARD_ITEM,void *> > >::_List_node_emplace_op2<std::allocator<std::_List_node<REWARD_ITEM,void *> > ><REWARD_ITEM const &>, COMDAT
; _this$ = ecx

; 585  :     explicit _List_node_emplace_op2(_Alnode& _Al_, _Valtys&&... _Vals) : _Alloc_construct_ptr<_Alnode>(_Al_) {

  00000	55		 push	 ebp
  00001	8b ec		 mov	 ebp, esp
  00003	6a ff		 push	 -1
  00005	68 00 00 00 00	 push	 __ehhandler$??$?0ABUREWARD_ITEM@@@?$_List_node_emplace_op2@V?$allocator@U?$_List_node@UREWARD_ITEM@@PAX@std@@@std@@@std@@QAE@AAV?$allocator@U?$_List_node@UREWARD_ITEM@@PAX@std@@@1@ABUREWARD_ITEM@@@Z
  0000a	64 a1 00 00 00
	00		 mov	 eax, DWORD PTR fs:0
  00010	50		 push	 eax
  00011	83 ec 44	 sub	 esp, 68			; 00000044H
  00014	53		 push	 ebx
  00015	56		 push	 esi
  00016	57		 push	 edi
  00017	a1 00 00 00 00	 mov	 eax, DWORD PTR ___security_cookie
  0001c	33 c5		 xor	 eax, ebp
  0001e	50		 push	 eax
  0001f	8d 45 f4	 lea	 eax, DWORD PTR __$EHRec$[ebp]
  00022	64 a3 00 00 00
	00		 mov	 DWORD PTR fs:0, eax
  00028	89 4d f0	 mov	 DWORD PTR _this$[ebp], ecx
  0002b	8b 45 08	 mov	 eax, DWORD PTR __Al_$[ebp]
  0002e	50		 push	 eax
  0002f	8b 4d f0	 mov	 ecx, DWORD PTR _this$[ebp]
  00032	e8 00 00 00 00	 call	 ??0?$_Alloc_construct_ptr@V?$allocator@U?$_List_node@UREWARD_ITEM@@PAX@std@@@std@@@std@@QAE@AAV?$allocator@U?$_List_node@UREWARD_ITEM@@PAX@std@@@1@@Z ; std::_Alloc_construct_ptr<std::allocator<std::_List_node<REWARD_ITEM,void *> > >::_Alloc_construct_ptr<std::allocator<std::_List_node<REWARD_ITEM,void *> > >
  00037	c7 45 fc 00 00
	00 00		 mov	 DWORD PTR __$EHRec$[ebp+8], 0

; 586  :         this->_Allocate();

  0003e	8b 4d f0	 mov	 ecx, DWORD PTR _this$[ebp]
  00041	e8 00 00 00 00	 call	 ?_Allocate@?$_Alloc_construct_ptr@V?$allocator@U?$_List_node@UREWARD_ITEM@@PAX@std@@@std@@@std@@QAEXXZ ; std::_Alloc_construct_ptr<std::allocator<std::_List_node<REWARD_ITEM,void *> > >::_Allocate

; 587  :         _Alnode_traits::construct(this->_Al, _STD addressof(this->_Ptr->_Myval), _STD forward<_Valtys>(_Vals)...);

  00046	8b 45 0c	 mov	 eax, DWORD PTR _<_Vals_0>$[ebp]
  00049	50		 push	 eax
  0004a	e8 00 00 00 00	 call	 ??$forward@ABUREWARD_ITEM@@@std@@YAABUREWARD_ITEM@@ABU1@@Z ; std::forward<REWARD_ITEM const &>
  0004f	83 c4 04	 add	 esp, 4
  00052	50		 push	 eax
  00053	8b 4d f0	 mov	 ecx, DWORD PTR _this$[ebp]
  00056	8b 51 04	 mov	 edx, DWORD PTR [ecx+4]
  00059	83 c2 08	 add	 edx, 8
  0005c	52		 push	 edx
  0005d	e8 00 00 00 00	 call	 ??$addressof@UREWARD_ITEM@@@std@@YAPAUREWARD_ITEM@@AAU1@@Z ; std::addressof<REWARD_ITEM>
  00062	83 c4 04	 add	 esp, 4
  00065	50		 push	 eax
  00066	8b 45 f0	 mov	 eax, DWORD PTR _this$[ebp]
  00069	8b 08		 mov	 ecx, DWORD PTR [eax]
  0006b	51		 push	 ecx
  0006c	e8 00 00 00 00	 call	 ??$construct@UREWARD_ITEM@@ABU1@@?$_Default_allocator_traits@V?$allocator@U?$_List_node@UREWARD_ITEM@@PAX@std@@@std@@@std@@SAXAAV?$allocator@U?$_List_node@UREWARD_ITEM@@PAX@std@@@1@QAUREWARD_ITEM@@ABU3@@Z ; std::_Default_allocator_traits<std::allocator<std::_List_node<REWARD_ITEM,void *> > >::construct<REWARD_ITEM,REWARD_ITEM const &>
  00071	83 c4 0c	 add	 esp, 12			; 0000000cH

; 588  :     }

  00074	c7 45 fc ff ff
	ff ff		 mov	 DWORD PTR __$EHRec$[ebp+8], -1
  0007b	8b 45 f0	 mov	 eax, DWORD PTR _this$[ebp]
  0007e	8b 4d f4	 mov	 ecx, DWORD PTR __$EHRec$[ebp]
  00081	64 89 0d 00 00
	00 00		 mov	 DWORD PTR fs:0, ecx
  00088	59		 pop	 ecx
  00089	5f		 pop	 edi
  0008a	5e		 pop	 esi
  0008b	5b		 pop	 ebx
  0008c	8b e5		 mov	 esp, ebp
  0008e	5d		 pop	 ebp
  0008f	c2 08 00	 ret	 8
_TEXT	ENDS
;	COMDAT text$x
text$x	SEGMENT
__unwindfunclet$??$?0ABUREWARD_ITEM@@@?$_List_node_emplace_op2@V?$allocator@U?$_List_node@UREWARD_ITEM@@PAX@std@@@std@@@std@@QAE@AAV?$allocator@U?$_List_node@UREWARD_ITEM@@PAX@std@@@1@ABUREWARD_ITEM@@@Z$0:
  00000	8b 4d f0	 mov	 ecx, DWORD PTR _this$[ebp]
  00003	e9 00 00 00 00	 jmp	 ??1?$_Alloc_construct_ptr@V?$allocator@U?$_List_node@UREWARD_ITEM@@PAX@std@@@std@@@std@@QAE@XZ ; std::_Alloc_construct_ptr<std::allocator<std::_List_node<REWARD_ITEM,void *> > >::~_Alloc_construct_ptr<std::allocator<std::_List_node<REWARD_ITEM,void *> > >
  00008	cc		 int	 3
  00009	cc		 int	 3
  0000a	cc		 int	 3
  0000b	cc		 int	 3
  0000c	cc		 int	 3
__ehhandler$??$?0ABUREWARD_ITEM@@@?$_List_node_emplace_op2@V?$allocator@U?$_List_node@UREWARD_ITEM@@PAX@std@@@std@@@std@@QAE@AAV?$allocator@U?$_List_node@UREWARD_ITEM@@PAX@std@@@1@ABUREWARD_ITEM@@@Z:
  0000d	90		 npad	 1
  0000e	90		 npad	 1
  0000f	8b 54 24 08	 mov	 edx, DWORD PTR [esp+8]
  00013	8d 42 0c	 lea	 eax, DWORD PTR [edx+12]
  00016	8b 4a ac	 mov	 ecx, DWORD PTR [edx-84]
  00019	33 c8		 xor	 ecx, eax
  0001b	e8 00 00 00 00	 call	 @__security_check_cookie@4
  00020	b8 00 00 00 00	 mov	 eax, OFFSET __ehfuncinfo$??$?0ABUREWARD_ITEM@@@?$_List_node_emplace_op2@V?$allocator@U?$_List_node@UREWARD_ITEM@@PAX@std@@@std@@@std@@QAE@AAV?$allocator@U?$_List_node@UREWARD_ITEM@@PAX@std@@@1@ABUREWARD_ITEM@@@Z
  00025	e9 00 00 00 00	 jmp	 ___CxxFrameHandler3
text$x	ENDS
??$?0ABUREWARD_ITEM@@@?$_List_node_emplace_op2@V?$allocator@U?$_List_node@UREWARD_ITEM@@PAX@std@@@std@@@std@@QAE@AAV?$allocator@U?$_List_node@UREWARD_ITEM@@PAX@std@@@1@ABUREWARD_ITEM@@@Z ENDP ; std::_List_node_emplace_op2<std::allocator<std::_List_node<REWARD_ITEM,void *> > >::_List_node_emplace_op2<std::allocator<std::_List_node<REWARD_ITEM,void *> > ><REWARD_ITEM const &>
; Function compile flags: /Odtp /ZI
; File C:\Program Files (x86)\Microsoft Visual Studio\2019\Community\VC\Tools\MSVC\14.27.29110\include\type_traits
;	COMDAT ??$forward@ABUREWARD_ITEM@@@std@@YAABUREWARD_ITEM@@ABU1@@Z
_TEXT	SEGMENT
__Arg$ = 8						; size = 4
??$forward@ABUREWARD_ITEM@@@std@@YAABUREWARD_ITEM@@ABU1@@Z PROC ; std::forward<REWARD_ITEM const &>, COMDAT

; 1454 :     remove_reference_t<_Ty>& _Arg) noexcept { // forward an lvalue as either an lvalue or an rvalue

  00000	55		 push	 ebp
  00001	8b ec		 mov	 ebp, esp
  00003	83 ec 40	 sub	 esp, 64			; 00000040H
  00006	53		 push	 ebx
  00007	56		 push	 esi
  00008	57		 push	 edi

; 1455 :     return static_cast<_Ty&&>(_Arg);

  00009	8b 45 08	 mov	 eax, DWORD PTR __Arg$[ebp]

; 1456 : }

  0000c	5f		 pop	 edi
  0000d	5e		 pop	 esi
  0000e	5b		 pop	 ebx
  0000f	8b e5		 mov	 esp, ebp
  00011	5d		 pop	 ebp
  00012	c3		 ret	 0
??$forward@ABUREWARD_ITEM@@@std@@YAABUREWARD_ITEM@@ABU1@@Z ENDP ; std::forward<REWARD_ITEM const &>
_TEXT	ENDS
; Function compile flags: /Odtp /ZI
; File C:\Program Files (x86)\Microsoft Visual Studio\2019\Community\VC\Tools\MSVC\14.27.29110\include\list
;	COMDAT ?_Transfer_before@?$_List_node_emplace_op2@V?$allocator@U?$_List_node@UREWARD_ITEM@@PAX@std@@@std@@@std@@QAEPAU?$_List_node@UREWARD_ITEM@@PAX@2@QAU32@@Z
_TEXT	SEGMENT
__Result$ = -12						; size = 4
__Insert_after$ = -8					; size = 4
_this$ = -4						; size = 4
__Insert_before$ = 8					; size = 4
?_Transfer_before@?$_List_node_emplace_op2@V?$allocator@U?$_List_node@UREWARD_ITEM@@PAX@std@@@std@@@std@@QAEPAU?$_List_node@UREWARD_ITEM@@PAX@2@QAU32@@Z PROC ; std::_List_node_emplace_op2<std::allocator<std::_List_node<REWARD_ITEM,void *> > >::_Transfer_before, COMDAT
; _this$ = ecx

; 599  :     pointer _Transfer_before(const pointer _Insert_before) noexcept {

  00000	55		 push	 ebp
  00001	8b ec		 mov	 ebp, esp
  00003	83 ec 4c	 sub	 esp, 76			; 0000004cH
  00006	53		 push	 ebx
  00007	56		 push	 esi
  00008	57		 push	 edi
  00009	89 4d fc	 mov	 DWORD PTR _this$[ebp], ecx

; 600  :         const pointer _Insert_after = _Insert_before->_Prev;

  0000c	8b 45 08	 mov	 eax, DWORD PTR __Insert_before$[ebp]
  0000f	8b 48 04	 mov	 ecx, DWORD PTR [eax+4]
  00012	89 4d f8	 mov	 DWORD PTR __Insert_after$[ebp], ecx

; 601  :         _Construct_in_place(this->_Ptr->_Next, _Insert_before);

  00015	8d 45 08	 lea	 eax, DWORD PTR __Insert_before$[ebp]
  00018	50		 push	 eax
  00019	8b 4d fc	 mov	 ecx, DWORD PTR _this$[ebp]
  0001c	8b 51 04	 mov	 edx, DWORD PTR [ecx+4]
  0001f	52		 push	 edx
  00020	e8 00 00 00 00	 call	 ??$_Construct_in_place@PAU?$_List_node@UREWARD_ITEM@@PAX@std@@ABQAU12@@std@@YAXAAPAU?$_List_node@UREWARD_ITEM@@PAX@0@ABQAU10@@Z ; std::_Construct_in_place<std::_List_node<REWARD_ITEM,void *> *,std::_List_node<REWARD_ITEM,void *> * const &>
  00025	83 c4 08	 add	 esp, 8

; 602  :         _Construct_in_place(this->_Ptr->_Prev, _Insert_after);

  00028	8d 45 f8	 lea	 eax, DWORD PTR __Insert_after$[ebp]
  0002b	50		 push	 eax
  0002c	8b 4d fc	 mov	 ecx, DWORD PTR _this$[ebp]
  0002f	8b 51 04	 mov	 edx, DWORD PTR [ecx+4]
  00032	83 c2 04	 add	 edx, 4
  00035	52		 push	 edx
  00036	e8 00 00 00 00	 call	 ??$_Construct_in_place@PAU?$_List_node@UREWARD_ITEM@@PAX@std@@ABQAU12@@std@@YAXAAPAU?$_List_node@UREWARD_ITEM@@PAX@0@ABQAU10@@Z ; std::_Construct_in_place<std::_List_node<REWARD_ITEM,void *> *,std::_List_node<REWARD_ITEM,void *> * const &>
  0003b	83 c4 08	 add	 esp, 8

; 603  :         const auto _Result    = this->_Ptr;

  0003e	8b 45 fc	 mov	 eax, DWORD PTR _this$[ebp]
  00041	8b 48 04	 mov	 ecx, DWORD PTR [eax+4]
  00044	89 4d f4	 mov	 DWORD PTR __Result$[ebp], ecx

; 604  :         this->_Ptr            = pointer{};

  00047	8b 45 fc	 mov	 eax, DWORD PTR _this$[ebp]
  0004a	c7 40 04 00 00
	00 00		 mov	 DWORD PTR [eax+4], 0

; 605  :         _Insert_before->_Prev = _Result;

  00051	8b 45 08	 mov	 eax, DWORD PTR __Insert_before$[ebp]
  00054	8b 4d f4	 mov	 ecx, DWORD PTR __Result$[ebp]
  00057	89 48 04	 mov	 DWORD PTR [eax+4], ecx

; 606  :         _Insert_after->_Next  = _Result;

  0005a	8b 45 f8	 mov	 eax, DWORD PTR __Insert_after$[ebp]
  0005d	8b 4d f4	 mov	 ecx, DWORD PTR __Result$[ebp]
  00060	89 08		 mov	 DWORD PTR [eax], ecx

; 607  :         return _Result;

  00062	8b 45 f4	 mov	 eax, DWORD PTR __Result$[ebp]

; 608  :     }

  00065	5f		 pop	 edi
  00066	5e		 pop	 esi
  00067	5b		 pop	 ebx
  00068	8b e5		 mov	 esp, ebp
  0006a	5d		 pop	 ebp
  0006b	c2 04 00	 ret	 4
?_Transfer_before@?$_List_node_emplace_op2@V?$allocator@U?$_List_node@UREWARD_ITEM@@PAX@std@@@std@@@std@@QAEPAU?$_List_node@UREWARD_ITEM@@PAX@2@QAU32@@Z ENDP ; std::_List_node_emplace_op2<std::allocator<std::_List_node<REWARD_ITEM,void *> > >::_Transfer_before
_TEXT	ENDS
; Function compile flags: /Odtp /ZI
; File C:\Program Files (x86)\Microsoft Visual Studio\2019\Community\VC\Tools\MSVC\14.27.29110\include\list
;	COMDAT ??1?$_List_node_emplace_op2@V?$allocator@U?$_List_node@UREWARD_ITEM@@PAX@std@@@std@@@std@@QAE@XZ
_TEXT	SEGMENT
_this$ = -16						; size = 4
__$EHRec$ = -12						; size = 12
??1?$_List_node_emplace_op2@V?$allocator@U?$_List_node@UREWARD_ITEM@@PAX@std@@@std@@@std@@QAE@XZ PROC ; std::_List_node_emplace_op2<std::allocator<std::_List_node<REWARD_ITEM,void *> > >::~_List_node_emplace_op2<std::allocator<std::_List_node<REWARD_ITEM,void *> > >, COMDAT
; _this$ = ecx

; 590  :     ~_List_node_emplace_op2() {

  00000	55		 push	 ebp
  00001	8b ec		 mov	 ebp, esp
  00003	6a ff		 push	 -1
  00005	68 00 00 00 00	 push	 __ehhandler$??1?$_List_node_emplace_op2@V?$allocator@U?$_List_node@UREWARD_ITEM@@PAX@std@@@std@@@std@@QAE@XZ
  0000a	64 a1 00 00 00
	00		 mov	 eax, DWORD PTR fs:0
  00010	50		 push	 eax
  00011	83 ec 44	 sub	 esp, 68			; 00000044H
  00014	53		 push	 ebx
  00015	56		 push	 esi
  00016	57		 push	 edi
  00017	a1 00 00 00 00	 mov	 eax, DWORD PTR ___security_cookie
  0001c	33 c5		 xor	 eax, ebp
  0001e	50		 push	 eax
  0001f	8d 45 f4	 lea	 eax, DWORD PTR __$EHRec$[ebp]
  00022	64 a3 00 00 00
	00		 mov	 DWORD PTR fs:0, eax
  00028	89 4d f0	 mov	 DWORD PTR _this$[ebp], ecx

; 591  :         if (this->_Ptr != pointer{}) {

  0002b	8b 45 f0	 mov	 eax, DWORD PTR _this$[ebp]
  0002e	83 78 04 00	 cmp	 DWORD PTR [eax+4], 0
  00032	74 21		 je	 SHORT $LN1@List_node_

; 592  :             _Alnode_traits::destroy(this->_Al, _STD addressof(this->_Ptr->_Myval));

  00034	8b 45 f0	 mov	 eax, DWORD PTR _this$[ebp]
  00037	8b 48 04	 mov	 ecx, DWORD PTR [eax+4]
  0003a	83 c1 08	 add	 ecx, 8
  0003d	51		 push	 ecx
  0003e	e8 00 00 00 00	 call	 ??$addressof@UREWARD_ITEM@@@std@@YAPAUREWARD_ITEM@@AAU1@@Z ; std::addressof<REWARD_ITEM>
  00043	83 c4 04	 add	 esp, 4
  00046	50		 push	 eax
  00047	8b 55 f0	 mov	 edx, DWORD PTR _this$[ebp]
  0004a	8b 02		 mov	 eax, DWORD PTR [edx]
  0004c	50		 push	 eax
  0004d	e8 00 00 00 00	 call	 ??$destroy@UREWARD_ITEM@@@?$_Default_allocator_traits@V?$allocator@U?$_List_node@UREWARD_ITEM@@PAX@std@@@std@@@std@@SAXAAV?$allocator@U?$_List_node@UREWARD_ITEM@@PAX@std@@@1@QAUREWARD_ITEM@@@Z ; std::_Default_allocator_traits<std::allocator<std::_List_node<REWARD_ITEM,void *> > >::destroy<REWARD_ITEM>
  00052	83 c4 08	 add	 esp, 8
$LN1@List_node_:

; 593  :         }
; 594  :     }

  00055	8b 4d f0	 mov	 ecx, DWORD PTR _this$[ebp]
  00058	e8 00 00 00 00	 call	 ??1?$_Alloc_construct_ptr@V?$allocator@U?$_List_node@UREWARD_ITEM@@PAX@std@@@std@@@std@@QAE@XZ ; std::_Alloc_construct_ptr<std::allocator<std::_List_node<REWARD_ITEM,void *> > >::~_Alloc_construct_ptr<std::allocator<std::_List_node<REWARD_ITEM,void *> > >
  0005d	8b 4d f4	 mov	 ecx, DWORD PTR __$EHRec$[ebp]
  00060	64 89 0d 00 00
	00 00		 mov	 DWORD PTR fs:0, ecx
  00067	59		 pop	 ecx
  00068	5f		 pop	 edi
  00069	5e		 pop	 esi
  0006a	5b		 pop	 ebx
  0006b	8b e5		 mov	 esp, ebp
  0006d	5d		 pop	 ebp
  0006e	c3		 ret	 0
  0006f	cc		 int	 3
  00070	cc		 int	 3
  00071	cc		 int	 3
  00072	cc		 int	 3
  00073	cc		 int	 3
_TEXT	ENDS
;	COMDAT text$x
text$x	SEGMENT
__ehhandler$??1?$_List_node_emplace_op2@V?$allocator@U?$_List_node@UREWARD_ITEM@@PAX@std@@@std@@@std@@QAE@XZ:
  00000	90		 npad	 1
  00001	90		 npad	 1
  00002	8b 54 24 08	 mov	 edx, DWORD PTR [esp+8]
  00006	8d 42 0c	 lea	 eax, DWORD PTR [edx+12]
  00009	8b 4a ac	 mov	 ecx, DWORD PTR [edx-84]
  0000c	33 c8		 xor	 ecx, eax
  0000e	e8 00 00 00 00	 call	 @__security_check_cookie@4
  00013	b8 00 00 00 00	 mov	 eax, OFFSET __ehfuncinfo$??1?$_List_node_emplace_op2@V?$allocator@U?$_List_node@UREWARD_ITEM@@PAX@std@@@std@@@std@@QAE@XZ
  00018	e9 00 00 00 00	 jmp	 ___CxxFrameHandler3
text$x	ENDS
??1?$_List_node_emplace_op2@V?$allocator@U?$_List_node@UREWARD_ITEM@@PAX@std@@@std@@@std@@QAE@XZ ENDP ; std::_List_node_emplace_op2<std::allocator<std::_List_node<REWARD_ITEM,void *> > >::~_List_node_emplace_op2<std::allocator<std::_List_node<REWARD_ITEM,void *> > >
; Function compile flags: /Odtp /ZI
; File C:\Program Files (x86)\Microsoft Visual Studio\2019\Community\VC\Tools\MSVC\14.27.29110\include\xmemory
;	COMDAT ??1?$_Alloc_construct_ptr@V?$allocator@U?$_List_node@UREWARD_ITEM@@PAX@std@@@std@@@std@@QAE@XZ
_TEXT	SEGMENT
_this$ = -16						; size = 4
__$EHRec$ = -12						; size = 12
??1?$_Alloc_construct_ptr@V?$allocator@U?$_List_node@UREWARD_ITEM@@PAX@std@@@std@@@std@@QAE@XZ PROC ; std::_Alloc_construct_ptr<std::allocator<std::_List_node<REWARD_ITEM,void *> > >::~_Alloc_construct_ptr<std::allocator<std::_List_node<REWARD_ITEM,void *> > >, COMDAT
; _this$ = ecx

; 1051 :     ~_Alloc_construct_ptr() { // if this instance is engaged, deallocate storage

  00000	55		 push	 ebp
  00001	8b ec		 mov	 ebp, esp
  00003	6a ff		 push	 -1
  00005	68 00 00 00 00	 push	 __ehhandler$??1?$_Alloc_construct_ptr@V?$allocator@U?$_List_node@UREWARD_ITEM@@PAX@std@@@std@@@std@@QAE@XZ
  0000a	64 a1 00 00 00
	00		 mov	 eax, DWORD PTR fs:0
  00010	50		 push	 eax
  00011	83 ec 44	 sub	 esp, 68			; 00000044H
  00014	53		 push	 ebx
  00015	56		 push	 esi
  00016	57		 push	 edi
  00017	a1 00 00 00 00	 mov	 eax, DWORD PTR ___security_cookie
  0001c	33 c5		 xor	 eax, ebp
  0001e	50		 push	 eax
  0001f	8d 45 f4	 lea	 eax, DWORD PTR __$EHRec$[ebp]
  00022	64 a3 00 00 00
	00		 mov	 DWORD PTR fs:0, eax
  00028	89 4d f0	 mov	 DWORD PTR _this$[ebp], ecx

; 1052 :         if (_Ptr) {

  0002b	8b 45 f0	 mov	 eax, DWORD PTR _this$[ebp]
  0002e	83 78 04 00	 cmp	 DWORD PTR [eax+4], 0
  00032	74 13		 je	 SHORT $LN3@Alloc_cons

; 1053 :             _Al.deallocate(_Ptr, 1);

  00034	6a 01		 push	 1
  00036	8b 45 f0	 mov	 eax, DWORD PTR _this$[ebp]
  00039	8b 48 04	 mov	 ecx, DWORD PTR [eax+4]
  0003c	51		 push	 ecx
  0003d	8b 55 f0	 mov	 edx, DWORD PTR _this$[ebp]
  00040	8b 0a		 mov	 ecx, DWORD PTR [edx]
  00042	e8 00 00 00 00	 call	 ?deallocate@?$allocator@U?$_List_node@UREWARD_ITEM@@PAX@std@@@std@@QAEXQAU?$_List_node@UREWARD_ITEM@@PAX@2@I@Z ; std::allocator<std::_List_node<REWARD_ITEM,void *> >::deallocate
$LN3@Alloc_cons:

; 1054 :         }
; 1055 :     }

  00047	8b 4d f4	 mov	 ecx, DWORD PTR __$EHRec$[ebp]
  0004a	64 89 0d 00 00
	00 00		 mov	 DWORD PTR fs:0, ecx
  00051	59		 pop	 ecx
  00052	5f		 pop	 edi
  00053	5e		 pop	 esi
  00054	5b		 pop	 ebx
  00055	8b e5		 mov	 esp, ebp
  00057	5d		 pop	 ebp
  00058	c3		 ret	 0
  00059	cc		 int	 3
  0005a	cc		 int	 3
  0005b	cc		 int	 3
  0005c	cc		 int	 3
  0005d	cc		 int	 3
_TEXT	ENDS
;	COMDAT text$x
text$x	SEGMENT
__ehhandler$??1?$_Alloc_construct_ptr@V?$allocator@U?$_List_node@UREWARD_ITEM@@PAX@std@@@std@@@std@@QAE@XZ:
  00000	90		 npad	 1
  00001	90		 npad	 1
  00002	8b 54 24 08	 mov	 edx, DWORD PTR [esp+8]
  00006	8d 42 0c	 lea	 eax, DWORD PTR [edx+12]
  00009	8b 4a ac	 mov	 ecx, DWORD PTR [edx-84]
  0000c	33 c8		 xor	 ecx, eax
  0000e	e8 00 00 00 00	 call	 @__security_check_cookie@4
  00013	b8 00 00 00 00	 mov	 eax, OFFSET __ehfuncinfo$??1?$_Alloc_construct_ptr@V?$allocator@U?$_List_node@UREWARD_ITEM@@PAX@std@@@std@@@std@@QAE@XZ
  00018	e9 00 00 00 00	 jmp	 ___CxxFrameHandler3
text$x	ENDS
??1?$_Alloc_construct_ptr@V?$allocator@U?$_List_node@UREWARD_ITEM@@PAX@std@@@std@@@std@@QAE@XZ ENDP ; std::_Alloc_construct_ptr<std::allocator<std::_List_node<REWARD_ITEM,void *> > >::~_Alloc_construct_ptr<std::allocator<std::_List_node<REWARD_ITEM,void *> > >
; Function compile flags: /Odtp /ZI
; File C:\Program Files (x86)\Microsoft Visual Studio\2019\Community\VC\Tools\MSVC\14.27.29110\include\xmemory
;	COMDAT ?_Allocate@?$_Alloc_construct_ptr@V?$allocator@U?$_List_node@UREWARD_ITEM@@PAX@std@@@std@@@std@@QAEXXZ
_TEXT	SEGMENT
_this$ = -4						; size = 4
?_Allocate@?$_Alloc_construct_ptr@V?$allocator@U?$_List_node@UREWARD_ITEM@@PAX@std@@@std@@@std@@QAEXXZ PROC ; std::_Alloc_construct_ptr<std::allocator<std::_List_node<REWARD_ITEM,void *> > >::_Allocate, COMDAT
; _this$ = ecx

; 1046 :     void _Allocate() { // disengage *this, then allocate a new memory block

  00000	55		 push	 ebp
  00001	8b ec		 mov	 ebp, esp
  00003	83 ec 44	 sub	 esp, 68			; 00000044H
  00006	53		 push	 ebx
  00007	56		 push	 esi
  00008	57		 push	 edi
  00009	89 4d fc	 mov	 DWORD PTR _this$[ebp], ecx

; 1047 :         _Ptr = nullptr; // if allocate throws, prevents double-free

  0000c	8b 45 fc	 mov	 eax, DWORD PTR _this$[ebp]
  0000f	c7 40 04 00 00
	00 00		 mov	 DWORD PTR [eax+4], 0

; 1048 :         _Ptr = _Al.allocate(1);

  00016	6a 01		 push	 1
  00018	8b 45 fc	 mov	 eax, DWORD PTR _this$[ebp]
  0001b	8b 08		 mov	 ecx, DWORD PTR [eax]
  0001d	e8 00 00 00 00	 call	 ?allocate@?$allocator@U?$_List_node@UREWARD_ITEM@@PAX@std@@@std@@QAEPAU?$_List_node@UREWARD_ITEM@@PAX@2@I@Z ; std::allocator<std::_List_node<REWARD_ITEM,void *> >::allocate
  00022	8b 4d fc	 mov	 ecx, DWORD PTR _this$[ebp]
  00025	89 41 04	 mov	 DWORD PTR [ecx+4], eax

; 1049 :     }

  00028	5f		 pop	 edi
  00029	5e		 pop	 esi
  0002a	5b		 pop	 ebx
  0002b	8b e5		 mov	 esp, ebp
  0002d	5d		 pop	 ebp
  0002e	c3		 ret	 0
?_Allocate@?$_Alloc_construct_ptr@V?$allocator@U?$_List_node@UREWARD_ITEM@@PAX@std@@@std@@@std@@QAEXXZ ENDP ; std::_Alloc_construct_ptr<std::allocator<std::_List_node<REWARD_ITEM,void *> > >::_Allocate
_TEXT	ENDS
; Function compile flags: /Odtp /ZI
; File C:\Program Files (x86)\Microsoft Visual Studio\2019\Community\VC\Tools\MSVC\14.27.29110\include\xmemory
;	COMDAT ??0?$_Alloc_construct_ptr@V?$allocator@U?$_List_node@UREWARD_ITEM@@PAX@std@@@std@@@std@@QAE@AAV?$allocator@U?$_List_node@UREWARD_ITEM@@PAX@std@@@1@@Z
_TEXT	SEGMENT
_this$ = -4						; size = 4
__Al_$ = 8						; size = 4
??0?$_Alloc_construct_ptr@V?$allocator@U?$_List_node@UREWARD_ITEM@@PAX@std@@@std@@@std@@QAE@AAV?$allocator@U?$_List_node@UREWARD_ITEM@@PAX@std@@@1@@Z PROC ; std::_Alloc_construct_ptr<std::allocator<std::_List_node<REWARD_ITEM,void *> > >::_Alloc_construct_ptr<std::allocator<std::_List_node<REWARD_ITEM,void *> > >, COMDAT
; _this$ = ecx

; 1040 :     explicit _Alloc_construct_ptr(_Alloc& _Al_) : _Al(_Al_), _Ptr(nullptr) {}

  00000	55		 push	 ebp
  00001	8b ec		 mov	 ebp, esp
  00003	83 ec 44	 sub	 esp, 68			; 00000044H
  00006	53		 push	 ebx
  00007	56		 push	 esi
  00008	57		 push	 edi
  00009	89 4d fc	 mov	 DWORD PTR _this$[ebp], ecx
  0000c	8b 45 fc	 mov	 eax, DWORD PTR _this$[ebp]
  0000f	8b 4d 08	 mov	 ecx, DWORD PTR __Al_$[ebp]
  00012	89 08		 mov	 DWORD PTR [eax], ecx
  00014	8b 45 fc	 mov	 eax, DWORD PTR _this$[ebp]
  00017	c7 40 04 00 00
	00 00		 mov	 DWORD PTR [eax+4], 0
  0001e	8b 45 fc	 mov	 eax, DWORD PTR _this$[ebp]
  00021	5f		 pop	 edi
  00022	5e		 pop	 esi
  00023	5b		 pop	 ebx
  00024	8b e5		 mov	 esp, ebp
  00026	5d		 pop	 ebp
  00027	c2 04 00	 ret	 4
??0?$_Alloc_construct_ptr@V?$allocator@U?$_List_node@UREWARD_ITEM@@PAX@std@@@std@@@std@@QAE@AAV?$allocator@U?$_List_node@UREWARD_ITEM@@PAX@std@@@1@@Z ENDP ; std::_Alloc_construct_ptr<std::allocator<std::_List_node<REWARD_ITEM,void *> > >::_Alloc_construct_ptr<std::allocator<std::_List_node<REWARD_ITEM,void *> > >
_TEXT	ENDS
; Function compile flags: /Odtp /ZI
; File C:\Program Files (x86)\Microsoft Visual Studio\2019\Community\VC\Tools\MSVC\14.27.29110\include\list
;	COMDAT ??$_Freenode@V?$allocator@U?$_List_node@UREWARD_ITEM@@PAX@std@@@std@@@?$_List_node@UREWARD_ITEM@@PAX@std@@SAXAAV?$allocator@U?$_List_node@UREWARD_ITEM@@PAX@std@@@1@PAU01@@Z
_TEXT	SEGMENT
__$EHRec$ = -12						; size = 12
__Al$ = 8						; size = 4
__Ptr$ = 12						; size = 4
??$_Freenode@V?$allocator@U?$_List_node@UREWARD_ITEM@@PAX@std@@@std@@@?$_List_node@UREWARD_ITEM@@PAX@std@@SAXAAV?$allocator@U?$_List_node@UREWARD_ITEM@@PAX@std@@@1@PAU01@@Z PROC ; std::_List_node<REWARD_ITEM,void *>::_Freenode<std::allocator<std::_List_node<REWARD_ITEM,void *> > >, COMDAT

; 316  :     static void _Freenode(_Alnode& _Al, _Nodeptr _Ptr) noexcept { // destroy all members in _Ptr and deallocate with _Al

  00000	55		 push	 ebp
  00001	8b ec		 mov	 ebp, esp
  00003	6a ff		 push	 -1
  00005	68 00 00 00 00	 push	 __ehhandler$??$_Freenode@V?$allocator@U?$_List_node@UREWARD_ITEM@@PAX@std@@@std@@@?$_List_node@UREWARD_ITEM@@PAX@std@@SAXAAV?$allocator@U?$_List_node@UREWARD_ITEM@@PAX@std@@@1@PAU01@@Z
  0000a	64 a1 00 00 00
	00		 mov	 eax, DWORD PTR fs:0
  00010	50		 push	 eax
  00011	83 ec 40	 sub	 esp, 64			; 00000040H
  00014	53		 push	 ebx
  00015	56		 push	 esi
  00016	57		 push	 edi
  00017	a1 00 00 00 00	 mov	 eax, DWORD PTR ___security_cookie
  0001c	33 c5		 xor	 eax, ebp
  0001e	50		 push	 eax
  0001f	8d 45 f4	 lea	 eax, DWORD PTR __$EHRec$[ebp]
  00022	64 a3 00 00 00
	00		 mov	 DWORD PTR fs:0, eax

; 317  :         allocator_traits<_Alnode>::destroy(_Al, _STD addressof(_Ptr->_Myval));

  00028	8b 45 0c	 mov	 eax, DWORD PTR __Ptr$[ebp]
  0002b	83 c0 08	 add	 eax, 8
  0002e	50		 push	 eax
  0002f	e8 00 00 00 00	 call	 ??$addressof@UREWARD_ITEM@@@std@@YAPAUREWARD_ITEM@@AAU1@@Z ; std::addressof<REWARD_ITEM>
  00034	83 c4 04	 add	 esp, 4
  00037	50		 push	 eax
  00038	8b 4d 08	 mov	 ecx, DWORD PTR __Al$[ebp]
  0003b	51		 push	 ecx
  0003c	e8 00 00 00 00	 call	 ??$destroy@UREWARD_ITEM@@@?$_Default_allocator_traits@V?$allocator@U?$_List_node@UREWARD_ITEM@@PAX@std@@@std@@@std@@SAXAAV?$allocator@U?$_List_node@UREWARD_ITEM@@PAX@std@@@1@QAUREWARD_ITEM@@@Z ; std::_Default_allocator_traits<std::allocator<std::_List_node<REWARD_ITEM,void *> > >::destroy<REWARD_ITEM>
  00041	83 c4 08	 add	 esp, 8

; 318  :         _Freenode0(_Al, _Ptr);

  00044	8b 45 0c	 mov	 eax, DWORD PTR __Ptr$[ebp]
  00047	50		 push	 eax
  00048	8b 4d 08	 mov	 ecx, DWORD PTR __Al$[ebp]
  0004b	51		 push	 ecx
  0004c	e8 00 00 00 00	 call	 ??$_Freenode0@V?$allocator@U?$_List_node@UREWARD_ITEM@@PAX@std@@@std@@@?$_List_node@UREWARD_ITEM@@PAX@std@@SAXAAV?$allocator@U?$_List_node@UREWARD_ITEM@@PAX@std@@@1@PAU01@@Z ; std::_List_node<REWARD_ITEM,void *>::_Freenode0<std::allocator<std::_List_node<REWARD_ITEM,void *> > >
  00051	83 c4 08	 add	 esp, 8

; 319  :     }

  00054	8b 4d f4	 mov	 ecx, DWORD PTR __$EHRec$[ebp]
  00057	64 89 0d 00 00
	00 00		 mov	 DWORD PTR fs:0, ecx
  0005e	59		 pop	 ecx
  0005f	5f		 pop	 edi
  00060	5e		 pop	 esi
  00061	5b		 pop	 ebx
  00062	8b e5		 mov	 esp, ebp
  00064	5d		 pop	 ebp
  00065	c3		 ret	 0
  00066	cc		 int	 3
  00067	cc		 int	 3
  00068	cc		 int	 3
  00069	cc		 int	 3
  0006a	cc		 int	 3
_TEXT	ENDS
;	COMDAT text$x
text$x	SEGMENT
__ehhandler$??$_Freenode@V?$allocator@U?$_List_node@UREWARD_ITEM@@PAX@std@@@std@@@?$_List_node@UREWARD_ITEM@@PAX@std@@SAXAAV?$allocator@U?$_List_node@UREWARD_ITEM@@PAX@std@@@1@PAU01@@Z:
  00000	90		 npad	 1
  00001	90		 npad	 1
  00002	8b 54 24 08	 mov	 edx, DWORD PTR [esp+8]
  00006	8d 42 0c	 lea	 eax, DWORD PTR [edx+12]
  00009	8b 4a b0	 mov	 ecx, DWORD PTR [edx-80]
  0000c	33 c8		 xor	 ecx, eax
  0000e	e8 00 00 00 00	 call	 @__security_check_cookie@4
  00013	b8 00 00 00 00	 mov	 eax, OFFSET __ehfuncinfo$??$_Freenode@V?$allocator@U?$_List_node@UREWARD_ITEM@@PAX@std@@@std@@@?$_List_node@UREWARD_ITEM@@PAX@std@@SAXAAV?$allocator@U?$_List_node@UREWARD_ITEM@@PAX@std@@@1@PAU01@@Z
  00018	e9 00 00 00 00	 jmp	 ___CxxFrameHandler3
text$x	ENDS
??$_Freenode@V?$allocator@U?$_List_node@UREWARD_ITEM@@PAX@std@@@std@@@?$_List_node@UREWARD_ITEM@@PAX@std@@SAXAAV?$allocator@U?$_List_node@UREWARD_ITEM@@PAX@std@@@1@PAU01@@Z ENDP ; std::_List_node<REWARD_ITEM,void *>::_Freenode<std::allocator<std::_List_node<REWARD_ITEM,void *> > >
; Function compile flags: /Odtp /ZI
; File C:\Program Files (x86)\Microsoft Visual Studio\2019\Community\VC\Tools\MSVC\14.27.29110\include\list
;	COMDAT ??$?0ABUEVENT_TIME@@@?$_List_node_emplace_op2@V?$allocator@U?$_List_node@UEVENT_TIME@@PAX@std@@@std@@@std@@QAE@AAV?$allocator@U?$_List_node@UEVENT_TIME@@PAX@std@@@1@ABUEVENT_TIME@@@Z
_TEXT	SEGMENT
_this$ = -16						; size = 4
__$EHRec$ = -12						; size = 12
__Al_$ = 8						; size = 4
_<_Vals_0>$ = 12					; size = 4
??$?0ABUEVENT_TIME@@@?$_List_node_emplace_op2@V?$allocator@U?$_List_node@UEVENT_TIME@@PAX@std@@@std@@@std@@QAE@AAV?$allocator@U?$_List_node@UEVENT_TIME@@PAX@std@@@1@ABUEVENT_TIME@@@Z PROC ; std::_List_node_emplace_op2<std::allocator<std::_List_node<EVENT_TIME,void *> > >::_List_node_emplace_op2<std::allocator<std::_List_node<EVENT_TIME,void *> > ><EVENT_TIME const &>, COMDAT
; _this$ = ecx

; 585  :     explicit _List_node_emplace_op2(_Alnode& _Al_, _Valtys&&... _Vals) : _Alloc_construct_ptr<_Alnode>(_Al_) {

  00000	55		 push	 ebp
  00001	8b ec		 mov	 ebp, esp
  00003	6a ff		 push	 -1
  00005	68 00 00 00 00	 push	 __ehhandler$??$?0ABUEVENT_TIME@@@?$_List_node_emplace_op2@V?$allocator@U?$_List_node@UEVENT_TIME@@PAX@std@@@std@@@std@@QAE@AAV?$allocator@U?$_List_node@UEVENT_TIME@@PAX@std@@@1@ABUEVENT_TIME@@@Z
  0000a	64 a1 00 00 00
	00		 mov	 eax, DWORD PTR fs:0
  00010	50		 push	 eax
  00011	83 ec 44	 sub	 esp, 68			; 00000044H
  00014	53		 push	 ebx
  00015	56		 push	 esi
  00016	57		 push	 edi
  00017	a1 00 00 00 00	 mov	 eax, DWORD PTR ___security_cookie
  0001c	33 c5		 xor	 eax, ebp
  0001e	50		 push	 eax
  0001f	8d 45 f4	 lea	 eax, DWORD PTR __$EHRec$[ebp]
  00022	64 a3 00 00 00
	00		 mov	 DWORD PTR fs:0, eax
  00028	89 4d f0	 mov	 DWORD PTR _this$[ebp], ecx
  0002b	8b 45 08	 mov	 eax, DWORD PTR __Al_$[ebp]
  0002e	50		 push	 eax
  0002f	8b 4d f0	 mov	 ecx, DWORD PTR _this$[ebp]
  00032	e8 00 00 00 00	 call	 ??0?$_Alloc_construct_ptr@V?$allocator@U?$_List_node@UEVENT_TIME@@PAX@std@@@std@@@std@@QAE@AAV?$allocator@U?$_List_node@UEVENT_TIME@@PAX@std@@@1@@Z ; std::_Alloc_construct_ptr<std::allocator<std::_List_node<EVENT_TIME,void *> > >::_Alloc_construct_ptr<std::allocator<std::_List_node<EVENT_TIME,void *> > >
  00037	c7 45 fc 00 00
	00 00		 mov	 DWORD PTR __$EHRec$[ebp+8], 0

; 586  :         this->_Allocate();

  0003e	8b 4d f0	 mov	 ecx, DWORD PTR _this$[ebp]
  00041	e8 00 00 00 00	 call	 ?_Allocate@?$_Alloc_construct_ptr@V?$allocator@U?$_List_node@UEVENT_TIME@@PAX@std@@@std@@@std@@QAEXXZ ; std::_Alloc_construct_ptr<std::allocator<std::_List_node<EVENT_TIME,void *> > >::_Allocate

; 587  :         _Alnode_traits::construct(this->_Al, _STD addressof(this->_Ptr->_Myval), _STD forward<_Valtys>(_Vals)...);

  00046	8b 45 0c	 mov	 eax, DWORD PTR _<_Vals_0>$[ebp]
  00049	50		 push	 eax
  0004a	e8 00 00 00 00	 call	 ??$forward@ABUEVENT_TIME@@@std@@YAABUEVENT_TIME@@ABU1@@Z ; std::forward<EVENT_TIME const &>
  0004f	83 c4 04	 add	 esp, 4
  00052	50		 push	 eax
  00053	8b 4d f0	 mov	 ecx, DWORD PTR _this$[ebp]
  00056	8b 51 04	 mov	 edx, DWORD PTR [ecx+4]
  00059	83 c2 08	 add	 edx, 8
  0005c	52		 push	 edx
  0005d	e8 00 00 00 00	 call	 ??$addressof@UEVENT_TIME@@@std@@YAPAUEVENT_TIME@@AAU1@@Z ; std::addressof<EVENT_TIME>
  00062	83 c4 04	 add	 esp, 4
  00065	50		 push	 eax
  00066	8b 45 f0	 mov	 eax, DWORD PTR _this$[ebp]
  00069	8b 08		 mov	 ecx, DWORD PTR [eax]
  0006b	51		 push	 ecx
  0006c	e8 00 00 00 00	 call	 ??$construct@UEVENT_TIME@@ABU1@@?$_Default_allocator_traits@V?$allocator@U?$_List_node@UEVENT_TIME@@PAX@std@@@std@@@std@@SAXAAV?$allocator@U?$_List_node@UEVENT_TIME@@PAX@std@@@1@QAUEVENT_TIME@@ABU3@@Z ; std::_Default_allocator_traits<std::allocator<std::_List_node<EVENT_TIME,void *> > >::construct<EVENT_TIME,EVENT_TIME const &>
  00071	83 c4 0c	 add	 esp, 12			; 0000000cH

; 588  :     }

  00074	c7 45 fc ff ff
	ff ff		 mov	 DWORD PTR __$EHRec$[ebp+8], -1
  0007b	8b 45 f0	 mov	 eax, DWORD PTR _this$[ebp]
  0007e	8b 4d f4	 mov	 ecx, DWORD PTR __$EHRec$[ebp]
  00081	64 89 0d 00 00
	00 00		 mov	 DWORD PTR fs:0, ecx
  00088	59		 pop	 ecx
  00089	5f		 pop	 edi
  0008a	5e		 pop	 esi
  0008b	5b		 pop	 ebx
  0008c	8b e5		 mov	 esp, ebp
  0008e	5d		 pop	 ebp
  0008f	c2 08 00	 ret	 8
_TEXT	ENDS
;	COMDAT text$x
text$x	SEGMENT
__unwindfunclet$??$?0ABUEVENT_TIME@@@?$_List_node_emplace_op2@V?$allocator@U?$_List_node@UEVENT_TIME@@PAX@std@@@std@@@std@@QAE@AAV?$allocator@U?$_List_node@UEVENT_TIME@@PAX@std@@@1@ABUEVENT_TIME@@@Z$0:
  00000	8b 4d f0	 mov	 ecx, DWORD PTR _this$[ebp]
  00003	e9 00 00 00 00	 jmp	 ??1?$_Alloc_construct_ptr@V?$allocator@U?$_List_node@UEVENT_TIME@@PAX@std@@@std@@@std@@QAE@XZ ; std::_Alloc_construct_ptr<std::allocator<std::_List_node<EVENT_TIME,void *> > >::~_Alloc_construct_ptr<std::allocator<std::_List_node<EVENT_TIME,void *> > >
  00008	cc		 int	 3
  00009	cc		 int	 3
  0000a	cc		 int	 3
  0000b	cc		 int	 3
  0000c	cc		 int	 3
__ehhandler$??$?0ABUEVENT_TIME@@@?$_List_node_emplace_op2@V?$allocator@U?$_List_node@UEVENT_TIME@@PAX@std@@@std@@@std@@QAE@AAV?$allocator@U?$_List_node@UEVENT_TIME@@PAX@std@@@1@ABUEVENT_TIME@@@Z:
  0000d	90		 npad	 1
  0000e	90		 npad	 1
  0000f	8b 54 24 08	 mov	 edx, DWORD PTR [esp+8]
  00013	8d 42 0c	 lea	 eax, DWORD PTR [edx+12]
  00016	8b 4a ac	 mov	 ecx, DWORD PTR [edx-84]
  00019	33 c8		 xor	 ecx, eax
  0001b	e8 00 00 00 00	 call	 @__security_check_cookie@4
  00020	b8 00 00 00 00	 mov	 eax, OFFSET __ehfuncinfo$??$?0ABUEVENT_TIME@@@?$_List_node_emplace_op2@V?$allocator@U?$_List_node@UEVENT_TIME@@PAX@std@@@std@@@std@@QAE@AAV?$allocator@U?$_List_node@UEVENT_TIME@@PAX@std@@@1@ABUEVENT_TIME@@@Z
  00025	e9 00 00 00 00	 jmp	 ___CxxFrameHandler3
text$x	ENDS
??$?0ABUEVENT_TIME@@@?$_List_node_emplace_op2@V?$allocator@U?$_List_node@UEVENT_TIME@@PAX@std@@@std@@@std@@QAE@AAV?$allocator@U?$_List_node@UEVENT_TIME@@PAX@std@@@1@ABUEVENT_TIME@@@Z ENDP ; std::_List_node_emplace_op2<std::allocator<std::_List_node<EVENT_TIME,void *> > >::_List_node_emplace_op2<std::allocator<std::_List_node<EVENT_TIME,void *> > ><EVENT_TIME const &>
; Function compile flags: /Odtp /ZI
; File C:\Program Files (x86)\Microsoft Visual Studio\2019\Community\VC\Tools\MSVC\14.27.29110\include\type_traits
;	COMDAT ??$forward@ABUEVENT_TIME@@@std@@YAABUEVENT_TIME@@ABU1@@Z
_TEXT	SEGMENT
__Arg$ = 8						; size = 4
??$forward@ABUEVENT_TIME@@@std@@YAABUEVENT_TIME@@ABU1@@Z PROC ; std::forward<EVENT_TIME const &>, COMDAT

; 1454 :     remove_reference_t<_Ty>& _Arg) noexcept { // forward an lvalue as either an lvalue or an rvalue

  00000	55		 push	 ebp
  00001	8b ec		 mov	 ebp, esp
  00003	83 ec 40	 sub	 esp, 64			; 00000040H
  00006	53		 push	 ebx
  00007	56		 push	 esi
  00008	57		 push	 edi

; 1455 :     return static_cast<_Ty&&>(_Arg);

  00009	8b 45 08	 mov	 eax, DWORD PTR __Arg$[ebp]

; 1456 : }

  0000c	5f		 pop	 edi
  0000d	5e		 pop	 esi
  0000e	5b		 pop	 ebx
  0000f	8b e5		 mov	 esp, ebp
  00011	5d		 pop	 ebp
  00012	c3		 ret	 0
??$forward@ABUEVENT_TIME@@@std@@YAABUEVENT_TIME@@ABU1@@Z ENDP ; std::forward<EVENT_TIME const &>
_TEXT	ENDS
; Function compile flags: /Odtp /ZI
; File C:\Program Files (x86)\Microsoft Visual Studio\2019\Community\VC\Tools\MSVC\14.27.29110\include\list
;	COMDAT ?_Transfer_before@?$_List_node_emplace_op2@V?$allocator@U?$_List_node@UEVENT_TIME@@PAX@std@@@std@@@std@@QAEPAU?$_List_node@UEVENT_TIME@@PAX@2@QAU32@@Z
_TEXT	SEGMENT
__Result$ = -12						; size = 4
__Insert_after$ = -8					; size = 4
_this$ = -4						; size = 4
__Insert_before$ = 8					; size = 4
?_Transfer_before@?$_List_node_emplace_op2@V?$allocator@U?$_List_node@UEVENT_TIME@@PAX@std@@@std@@@std@@QAEPAU?$_List_node@UEVENT_TIME@@PAX@2@QAU32@@Z PROC ; std::_List_node_emplace_op2<std::allocator<std::_List_node<EVENT_TIME,void *> > >::_Transfer_before, COMDAT
; _this$ = ecx

; 599  :     pointer _Transfer_before(const pointer _Insert_before) noexcept {

  00000	55		 push	 ebp
  00001	8b ec		 mov	 ebp, esp
  00003	83 ec 4c	 sub	 esp, 76			; 0000004cH
  00006	53		 push	 ebx
  00007	56		 push	 esi
  00008	57		 push	 edi
  00009	89 4d fc	 mov	 DWORD PTR _this$[ebp], ecx

; 600  :         const pointer _Insert_after = _Insert_before->_Prev;

  0000c	8b 45 08	 mov	 eax, DWORD PTR __Insert_before$[ebp]
  0000f	8b 48 04	 mov	 ecx, DWORD PTR [eax+4]
  00012	89 4d f8	 mov	 DWORD PTR __Insert_after$[ebp], ecx

; 601  :         _Construct_in_place(this->_Ptr->_Next, _Insert_before);

  00015	8d 45 08	 lea	 eax, DWORD PTR __Insert_before$[ebp]
  00018	50		 push	 eax
  00019	8b 4d fc	 mov	 ecx, DWORD PTR _this$[ebp]
  0001c	8b 51 04	 mov	 edx, DWORD PTR [ecx+4]
  0001f	52		 push	 edx
  00020	e8 00 00 00 00	 call	 ??$_Construct_in_place@PAU?$_List_node@UEVENT_TIME@@PAX@std@@ABQAU12@@std@@YAXAAPAU?$_List_node@UEVENT_TIME@@PAX@0@ABQAU10@@Z ; std::_Construct_in_place<std::_List_node<EVENT_TIME,void *> *,std::_List_node<EVENT_TIME,void *> * const &>
  00025	83 c4 08	 add	 esp, 8

; 602  :         _Construct_in_place(this->_Ptr->_Prev, _Insert_after);

  00028	8d 45 f8	 lea	 eax, DWORD PTR __Insert_after$[ebp]
  0002b	50		 push	 eax
  0002c	8b 4d fc	 mov	 ecx, DWORD PTR _this$[ebp]
  0002f	8b 51 04	 mov	 edx, DWORD PTR [ecx+4]
  00032	83 c2 04	 add	 edx, 4
  00035	52		 push	 edx
  00036	e8 00 00 00 00	 call	 ??$_Construct_in_place@PAU?$_List_node@UEVENT_TIME@@PAX@std@@ABQAU12@@std@@YAXAAPAU?$_List_node@UEVENT_TIME@@PAX@0@ABQAU10@@Z ; std::_Construct_in_place<std::_List_node<EVENT_TIME,void *> *,std::_List_node<EVENT_TIME,void *> * const &>
  0003b	83 c4 08	 add	 esp, 8

; 603  :         const auto _Result    = this->_Ptr;

  0003e	8b 45 fc	 mov	 eax, DWORD PTR _this$[ebp]
  00041	8b 48 04	 mov	 ecx, DWORD PTR [eax+4]
  00044	89 4d f4	 mov	 DWORD PTR __Result$[ebp], ecx

; 604  :         this->_Ptr            = pointer{};

  00047	8b 45 fc	 mov	 eax, DWORD PTR _this$[ebp]
  0004a	c7 40 04 00 00
	00 00		 mov	 DWORD PTR [eax+4], 0

; 605  :         _Insert_before->_Prev = _Result;

  00051	8b 45 08	 mov	 eax, DWORD PTR __Insert_before$[ebp]
  00054	8b 4d f4	 mov	 ecx, DWORD PTR __Result$[ebp]
  00057	89 48 04	 mov	 DWORD PTR [eax+4], ecx

; 606  :         _Insert_after->_Next  = _Result;

  0005a	8b 45 f8	 mov	 eax, DWORD PTR __Insert_after$[ebp]
  0005d	8b 4d f4	 mov	 ecx, DWORD PTR __Result$[ebp]
  00060	89 08		 mov	 DWORD PTR [eax], ecx

; 607  :         return _Result;

  00062	8b 45 f4	 mov	 eax, DWORD PTR __Result$[ebp]

; 608  :     }

  00065	5f		 pop	 edi
  00066	5e		 pop	 esi
  00067	5b		 pop	 ebx
  00068	8b e5		 mov	 esp, ebp
  0006a	5d		 pop	 ebp
  0006b	c2 04 00	 ret	 4
?_Transfer_before@?$_List_node_emplace_op2@V?$allocator@U?$_List_node@UEVENT_TIME@@PAX@std@@@std@@@std@@QAEPAU?$_List_node@UEVENT_TIME@@PAX@2@QAU32@@Z ENDP ; std::_List_node_emplace_op2<std::allocator<std::_List_node<EVENT_TIME,void *> > >::_Transfer_before
_TEXT	ENDS
; Function compile flags: /Odtp /ZI
; File C:\Program Files (x86)\Microsoft Visual Studio\2019\Community\VC\Tools\MSVC\14.27.29110\include\list
;	COMDAT ??1?$_List_node_emplace_op2@V?$allocator@U?$_List_node@UEVENT_TIME@@PAX@std@@@std@@@std@@QAE@XZ
_TEXT	SEGMENT
_this$ = -16						; size = 4
__$EHRec$ = -12						; size = 12
??1?$_List_node_emplace_op2@V?$allocator@U?$_List_node@UEVENT_TIME@@PAX@std@@@std@@@std@@QAE@XZ PROC ; std::_List_node_emplace_op2<std::allocator<std::_List_node<EVENT_TIME,void *> > >::~_List_node_emplace_op2<std::allocator<std::_List_node<EVENT_TIME,void *> > >, COMDAT
; _this$ = ecx

; 590  :     ~_List_node_emplace_op2() {

  00000	55		 push	 ebp
  00001	8b ec		 mov	 ebp, esp
  00003	6a ff		 push	 -1
  00005	68 00 00 00 00	 push	 __ehhandler$??1?$_List_node_emplace_op2@V?$allocator@U?$_List_node@UEVENT_TIME@@PAX@std@@@std@@@std@@QAE@XZ
  0000a	64 a1 00 00 00
	00		 mov	 eax, DWORD PTR fs:0
  00010	50		 push	 eax
  00011	83 ec 44	 sub	 esp, 68			; 00000044H
  00014	53		 push	 ebx
  00015	56		 push	 esi
  00016	57		 push	 edi
  00017	a1 00 00 00 00	 mov	 eax, DWORD PTR ___security_cookie
  0001c	33 c5		 xor	 eax, ebp
  0001e	50		 push	 eax
  0001f	8d 45 f4	 lea	 eax, DWORD PTR __$EHRec$[ebp]
  00022	64 a3 00 00 00
	00		 mov	 DWORD PTR fs:0, eax
  00028	89 4d f0	 mov	 DWORD PTR _this$[ebp], ecx

; 591  :         if (this->_Ptr != pointer{}) {

  0002b	8b 45 f0	 mov	 eax, DWORD PTR _this$[ebp]
  0002e	83 78 04 00	 cmp	 DWORD PTR [eax+4], 0
  00032	74 21		 je	 SHORT $LN1@List_node_

; 592  :             _Alnode_traits::destroy(this->_Al, _STD addressof(this->_Ptr->_Myval));

  00034	8b 45 f0	 mov	 eax, DWORD PTR _this$[ebp]
  00037	8b 48 04	 mov	 ecx, DWORD PTR [eax+4]
  0003a	83 c1 08	 add	 ecx, 8
  0003d	51		 push	 ecx
  0003e	e8 00 00 00 00	 call	 ??$addressof@UEVENT_TIME@@@std@@YAPAUEVENT_TIME@@AAU1@@Z ; std::addressof<EVENT_TIME>
  00043	83 c4 04	 add	 esp, 4
  00046	50		 push	 eax
  00047	8b 55 f0	 mov	 edx, DWORD PTR _this$[ebp]
  0004a	8b 02		 mov	 eax, DWORD PTR [edx]
  0004c	50		 push	 eax
  0004d	e8 00 00 00 00	 call	 ??$destroy@UEVENT_TIME@@@?$_Default_allocator_traits@V?$allocator@U?$_List_node@UEVENT_TIME@@PAX@std@@@std@@@std@@SAXAAV?$allocator@U?$_List_node@UEVENT_TIME@@PAX@std@@@1@QAUEVENT_TIME@@@Z ; std::_Default_allocator_traits<std::allocator<std::_List_node<EVENT_TIME,void *> > >::destroy<EVENT_TIME>
  00052	83 c4 08	 add	 esp, 8
$LN1@List_node_:

; 593  :         }
; 594  :     }

  00055	8b 4d f0	 mov	 ecx, DWORD PTR _this$[ebp]
  00058	e8 00 00 00 00	 call	 ??1?$_Alloc_construct_ptr@V?$allocator@U?$_List_node@UEVENT_TIME@@PAX@std@@@std@@@std@@QAE@XZ ; std::_Alloc_construct_ptr<std::allocator<std::_List_node<EVENT_TIME,void *> > >::~_Alloc_construct_ptr<std::allocator<std::_List_node<EVENT_TIME,void *> > >
  0005d	8b 4d f4	 mov	 ecx, DWORD PTR __$EHRec$[ebp]
  00060	64 89 0d 00 00
	00 00		 mov	 DWORD PTR fs:0, ecx
  00067	59		 pop	 ecx
  00068	5f		 pop	 edi
  00069	5e		 pop	 esi
  0006a	5b		 pop	 ebx
  0006b	8b e5		 mov	 esp, ebp
  0006d	5d		 pop	 ebp
  0006e	c3		 ret	 0
  0006f	cc		 int	 3
  00070	cc		 int	 3
  00071	cc		 int	 3
  00072	cc		 int	 3
  00073	cc		 int	 3
_TEXT	ENDS
;	COMDAT text$x
text$x	SEGMENT
__ehhandler$??1?$_List_node_emplace_op2@V?$allocator@U?$_List_node@UEVENT_TIME@@PAX@std@@@std@@@std@@QAE@XZ:
  00000	90		 npad	 1
  00001	90		 npad	 1
  00002	8b 54 24 08	 mov	 edx, DWORD PTR [esp+8]
  00006	8d 42 0c	 lea	 eax, DWORD PTR [edx+12]
  00009	8b 4a ac	 mov	 ecx, DWORD PTR [edx-84]
  0000c	33 c8		 xor	 ecx, eax
  0000e	e8 00 00 00 00	 call	 @__security_check_cookie@4
  00013	b8 00 00 00 00	 mov	 eax, OFFSET __ehfuncinfo$??1?$_List_node_emplace_op2@V?$allocator@U?$_List_node@UEVENT_TIME@@PAX@std@@@std@@@std@@QAE@XZ
  00018	e9 00 00 00 00	 jmp	 ___CxxFrameHandler3
text$x	ENDS
??1?$_List_node_emplace_op2@V?$allocator@U?$_List_node@UEVENT_TIME@@PAX@std@@@std@@@std@@QAE@XZ ENDP ; std::_List_node_emplace_op2<std::allocator<std::_List_node<EVENT_TIME,void *> > >::~_List_node_emplace_op2<std::allocator<std::_List_node<EVENT_TIME,void *> > >
; Function compile flags: /Odtp /ZI
; File C:\Program Files (x86)\Microsoft Visual Studio\2019\Community\VC\Tools\MSVC\14.27.29110\include\xmemory
;	COMDAT ??1?$_Alloc_construct_ptr@V?$allocator@U?$_List_node@UEVENT_TIME@@PAX@std@@@std@@@std@@QAE@XZ
_TEXT	SEGMENT
_this$ = -16						; size = 4
__$EHRec$ = -12						; size = 12
??1?$_Alloc_construct_ptr@V?$allocator@U?$_List_node@UEVENT_TIME@@PAX@std@@@std@@@std@@QAE@XZ PROC ; std::_Alloc_construct_ptr<std::allocator<std::_List_node<EVENT_TIME,void *> > >::~_Alloc_construct_ptr<std::allocator<std::_List_node<EVENT_TIME,void *> > >, COMDAT
; _this$ = ecx

; 1051 :     ~_Alloc_construct_ptr() { // if this instance is engaged, deallocate storage

  00000	55		 push	 ebp
  00001	8b ec		 mov	 ebp, esp
  00003	6a ff		 push	 -1
  00005	68 00 00 00 00	 push	 __ehhandler$??1?$_Alloc_construct_ptr@V?$allocator@U?$_List_node@UEVENT_TIME@@PAX@std@@@std@@@std@@QAE@XZ
  0000a	64 a1 00 00 00
	00		 mov	 eax, DWORD PTR fs:0
  00010	50		 push	 eax
  00011	83 ec 44	 sub	 esp, 68			; 00000044H
  00014	53		 push	 ebx
  00015	56		 push	 esi
  00016	57		 push	 edi
  00017	a1 00 00 00 00	 mov	 eax, DWORD PTR ___security_cookie
  0001c	33 c5		 xor	 eax, ebp
  0001e	50		 push	 eax
  0001f	8d 45 f4	 lea	 eax, DWORD PTR __$EHRec$[ebp]
  00022	64 a3 00 00 00
	00		 mov	 DWORD PTR fs:0, eax
  00028	89 4d f0	 mov	 DWORD PTR _this$[ebp], ecx

; 1052 :         if (_Ptr) {

  0002b	8b 45 f0	 mov	 eax, DWORD PTR _this$[ebp]
  0002e	83 78 04 00	 cmp	 DWORD PTR [eax+4], 0
  00032	74 13		 je	 SHORT $LN3@Alloc_cons

; 1053 :             _Al.deallocate(_Ptr, 1);

  00034	6a 01		 push	 1
  00036	8b 45 f0	 mov	 eax, DWORD PTR _this$[ebp]
  00039	8b 48 04	 mov	 ecx, DWORD PTR [eax+4]
  0003c	51		 push	 ecx
  0003d	8b 55 f0	 mov	 edx, DWORD PTR _this$[ebp]
  00040	8b 0a		 mov	 ecx, DWORD PTR [edx]
  00042	e8 00 00 00 00	 call	 ?deallocate@?$allocator@U?$_List_node@UEVENT_TIME@@PAX@std@@@std@@QAEXQAU?$_List_node@UEVENT_TIME@@PAX@2@I@Z ; std::allocator<std::_List_node<EVENT_TIME,void *> >::deallocate
$LN3@Alloc_cons:

; 1054 :         }
; 1055 :     }

  00047	8b 4d f4	 mov	 ecx, DWORD PTR __$EHRec$[ebp]
  0004a	64 89 0d 00 00
	00 00		 mov	 DWORD PTR fs:0, ecx
  00051	59		 pop	 ecx
  00052	5f		 pop	 edi
  00053	5e		 pop	 esi
  00054	5b		 pop	 ebx
  00055	8b e5		 mov	 esp, ebp
  00057	5d		 pop	 ebp
  00058	c3		 ret	 0
  00059	cc		 int	 3
  0005a	cc		 int	 3
  0005b	cc		 int	 3
  0005c	cc		 int	 3
  0005d	cc		 int	 3
_TEXT	ENDS
;	COMDAT text$x
text$x	SEGMENT
__ehhandler$??1?$_Alloc_construct_ptr@V?$allocator@U?$_List_node@UEVENT_TIME@@PAX@std@@@std@@@std@@QAE@XZ:
  00000	90		 npad	 1
  00001	90		 npad	 1
  00002	8b 54 24 08	 mov	 edx, DWORD PTR [esp+8]
  00006	8d 42 0c	 lea	 eax, DWORD PTR [edx+12]
  00009	8b 4a ac	 mov	 ecx, DWORD PTR [edx-84]
  0000c	33 c8		 xor	 ecx, eax
  0000e	e8 00 00 00 00	 call	 @__security_check_cookie@4
  00013	b8 00 00 00 00	 mov	 eax, OFFSET __ehfuncinfo$??1?$_Alloc_construct_ptr@V?$allocator@U?$_List_node@UEVENT_TIME@@PAX@std@@@std@@@std@@QAE@XZ
  00018	e9 00 00 00 00	 jmp	 ___CxxFrameHandler3
text$x	ENDS
??1?$_Alloc_construct_ptr@V?$allocator@U?$_List_node@UEVENT_TIME@@PAX@std@@@std@@@std@@QAE@XZ ENDP ; std::_Alloc_construct_ptr<std::allocator<std::_List_node<EVENT_TIME,void *> > >::~_Alloc_construct_ptr<std::allocator<std::_List_node<EVENT_TIME,void *> > >
; Function compile flags: /Odtp /ZI
; File C:\Program Files (x86)\Microsoft Visual Studio\2019\Community\VC\Tools\MSVC\14.27.29110\include\xmemory
;	COMDAT ?_Allocate@?$_Alloc_construct_ptr@V?$allocator@U?$_List_node@UEVENT_TIME@@PAX@std@@@std@@@std@@QAEXXZ
_TEXT	SEGMENT
_this$ = -4						; size = 4
?_Allocate@?$_Alloc_construct_ptr@V?$allocator@U?$_List_node@UEVENT_TIME@@PAX@std@@@std@@@std@@QAEXXZ PROC ; std::_Alloc_construct_ptr<std::allocator<std::_List_node<EVENT_TIME,void *> > >::_Allocate, COMDAT
; _this$ = ecx

; 1046 :     void _Allocate() { // disengage *this, then allocate a new memory block

  00000	55		 push	 ebp
  00001	8b ec		 mov	 ebp, esp
  00003	83 ec 44	 sub	 esp, 68			; 00000044H
  00006	53		 push	 ebx
  00007	56		 push	 esi
  00008	57		 push	 edi
  00009	89 4d fc	 mov	 DWORD PTR _this$[ebp], ecx

; 1047 :         _Ptr = nullptr; // if allocate throws, prevents double-free

  0000c	8b 45 fc	 mov	 eax, DWORD PTR _this$[ebp]
  0000f	c7 40 04 00 00
	00 00		 mov	 DWORD PTR [eax+4], 0

; 1048 :         _Ptr = _Al.allocate(1);

  00016	6a 01		 push	 1
  00018	8b 45 fc	 mov	 eax, DWORD PTR _this$[ebp]
  0001b	8b 08		 mov	 ecx, DWORD PTR [eax]
  0001d	e8 00 00 00 00	 call	 ?allocate@?$allocator@U?$_List_node@UEVENT_TIME@@PAX@std@@@std@@QAEPAU?$_List_node@UEVENT_TIME@@PAX@2@I@Z ; std::allocator<std::_List_node<EVENT_TIME,void *> >::allocate
  00022	8b 4d fc	 mov	 ecx, DWORD PTR _this$[ebp]
  00025	89 41 04	 mov	 DWORD PTR [ecx+4], eax

; 1049 :     }

  00028	5f		 pop	 edi
  00029	5e		 pop	 esi
  0002a	5b		 pop	 ebx
  0002b	8b e5		 mov	 esp, ebp
  0002d	5d		 pop	 ebp
  0002e	c3		 ret	 0
?_Allocate@?$_Alloc_construct_ptr@V?$allocator@U?$_List_node@UEVENT_TIME@@PAX@std@@@std@@@std@@QAEXXZ ENDP ; std::_Alloc_construct_ptr<std::allocator<std::_List_node<EVENT_TIME,void *> > >::_Allocate
_TEXT	ENDS
; Function compile flags: /Odtp /ZI
; File C:\Program Files (x86)\Microsoft Visual Studio\2019\Community\VC\Tools\MSVC\14.27.29110\include\xmemory
;	COMDAT ??0?$_Alloc_construct_ptr@V?$allocator@U?$_List_node@UEVENT_TIME@@PAX@std@@@std@@@std@@QAE@AAV?$allocator@U?$_List_node@UEVENT_TIME@@PAX@std@@@1@@Z
_TEXT	SEGMENT
_this$ = -4						; size = 4
__Al_$ = 8						; size = 4
??0?$_Alloc_construct_ptr@V?$allocator@U?$_List_node@UEVENT_TIME@@PAX@std@@@std@@@std@@QAE@AAV?$allocator@U?$_List_node@UEVENT_TIME@@PAX@std@@@1@@Z PROC ; std::_Alloc_construct_ptr<std::allocator<std::_List_node<EVENT_TIME,void *> > >::_Alloc_construct_ptr<std::allocator<std::_List_node<EVENT_TIME,void *> > >, COMDAT
; _this$ = ecx

; 1040 :     explicit _Alloc_construct_ptr(_Alloc& _Al_) : _Al(_Al_), _Ptr(nullptr) {}

  00000	55		 push	 ebp
  00001	8b ec		 mov	 ebp, esp
  00003	83 ec 44	 sub	 esp, 68			; 00000044H
  00006	53		 push	 ebx
  00007	56		 push	 esi
  00008	57		 push	 edi
  00009	89 4d fc	 mov	 DWORD PTR _this$[ebp], ecx
  0000c	8b 45 fc	 mov	 eax, DWORD PTR _this$[ebp]
  0000f	8b 4d 08	 mov	 ecx, DWORD PTR __Al_$[ebp]
  00012	89 08		 mov	 DWORD PTR [eax], ecx
  00014	8b 45 fc	 mov	 eax, DWORD PTR _this$[ebp]
  00017	c7 40 04 00 00
	00 00		 mov	 DWORD PTR [eax+4], 0
  0001e	8b 45 fc	 mov	 eax, DWORD PTR _this$[ebp]
  00021	5f		 pop	 edi
  00022	5e		 pop	 esi
  00023	5b		 pop	 ebx
  00024	8b e5		 mov	 esp, ebp
  00026	5d		 pop	 ebp
  00027	c2 04 00	 ret	 4
??0?$_Alloc_construct_ptr@V?$allocator@U?$_List_node@UEVENT_TIME@@PAX@std@@@std@@@std@@QAE@AAV?$allocator@U?$_List_node@UEVENT_TIME@@PAX@std@@@1@@Z ENDP ; std::_Alloc_construct_ptr<std::allocator<std::_List_node<EVENT_TIME,void *> > >::_Alloc_construct_ptr<std::allocator<std::_List_node<EVENT_TIME,void *> > >
_TEXT	ENDS
; Function compile flags: /Odtp /ZI
; File C:\Program Files (x86)\Microsoft Visual Studio\2019\Community\VC\Tools\MSVC\14.27.29110\include\list
;	COMDAT ??$_Freenode@V?$allocator@U?$_List_node@UEVENT_TIME@@PAX@std@@@std@@@?$_List_node@UEVENT_TIME@@PAX@std@@SAXAAV?$allocator@U?$_List_node@UEVENT_TIME@@PAX@std@@@1@PAU01@@Z
_TEXT	SEGMENT
__$EHRec$ = -12						; size = 12
__Al$ = 8						; size = 4
__Ptr$ = 12						; size = 4
??$_Freenode@V?$allocator@U?$_List_node@UEVENT_TIME@@PAX@std@@@std@@@?$_List_node@UEVENT_TIME@@PAX@std@@SAXAAV?$allocator@U?$_List_node@UEVENT_TIME@@PAX@std@@@1@PAU01@@Z PROC ; std::_List_node<EVENT_TIME,void *>::_Freenode<std::allocator<std::_List_node<EVENT_TIME,void *> > >, COMDAT

; 316  :     static void _Freenode(_Alnode& _Al, _Nodeptr _Ptr) noexcept { // destroy all members in _Ptr and deallocate with _Al

  00000	55		 push	 ebp
  00001	8b ec		 mov	 ebp, esp
  00003	6a ff		 push	 -1
  00005	68 00 00 00 00	 push	 __ehhandler$??$_Freenode@V?$allocator@U?$_List_node@UEVENT_TIME@@PAX@std@@@std@@@?$_List_node@UEVENT_TIME@@PAX@std@@SAXAAV?$allocator@U?$_List_node@UEVENT_TIME@@PAX@std@@@1@PAU01@@Z
  0000a	64 a1 00 00 00
	00		 mov	 eax, DWORD PTR fs:0
  00010	50		 push	 eax
  00011	83 ec 40	 sub	 esp, 64			; 00000040H
  00014	53		 push	 ebx
  00015	56		 push	 esi
  00016	57		 push	 edi
  00017	a1 00 00 00 00	 mov	 eax, DWORD PTR ___security_cookie
  0001c	33 c5		 xor	 eax, ebp
  0001e	50		 push	 eax
  0001f	8d 45 f4	 lea	 eax, DWORD PTR __$EHRec$[ebp]
  00022	64 a3 00 00 00
	00		 mov	 DWORD PTR fs:0, eax

; 317  :         allocator_traits<_Alnode>::destroy(_Al, _STD addressof(_Ptr->_Myval));

  00028	8b 45 0c	 mov	 eax, DWORD PTR __Ptr$[ebp]
  0002b	83 c0 08	 add	 eax, 8
  0002e	50		 push	 eax
  0002f	e8 00 00 00 00	 call	 ??$addressof@UEVENT_TIME@@@std@@YAPAUEVENT_TIME@@AAU1@@Z ; std::addressof<EVENT_TIME>
  00034	83 c4 04	 add	 esp, 4
  00037	50		 push	 eax
  00038	8b 4d 08	 mov	 ecx, DWORD PTR __Al$[ebp]
  0003b	51		 push	 ecx
  0003c	e8 00 00 00 00	 call	 ??$destroy@UEVENT_TIME@@@?$_Default_allocator_traits@V?$allocator@U?$_List_node@UEVENT_TIME@@PAX@std@@@std@@@std@@SAXAAV?$allocator@U?$_List_node@UEVENT_TIME@@PAX@std@@@1@QAUEVENT_TIME@@@Z ; std::_Default_allocator_traits<std::allocator<std::_List_node<EVENT_TIME,void *> > >::destroy<EVENT_TIME>
  00041	83 c4 08	 add	 esp, 8

; 318  :         _Freenode0(_Al, _Ptr);

  00044	8b 45 0c	 mov	 eax, DWORD PTR __Ptr$[ebp]
  00047	50		 push	 eax
  00048	8b 4d 08	 mov	 ecx, DWORD PTR __Al$[ebp]
  0004b	51		 push	 ecx
  0004c	e8 00 00 00 00	 call	 ??$_Freenode0@V?$allocator@U?$_List_node@UEVENT_TIME@@PAX@std@@@std@@@?$_List_node@UEVENT_TIME@@PAX@std@@SAXAAV?$allocator@U?$_List_node@UEVENT_TIME@@PAX@std@@@1@PAU01@@Z ; std::_List_node<EVENT_TIME,void *>::_Freenode0<std::allocator<std::_List_node<EVENT_TIME,void *> > >
  00051	83 c4 08	 add	 esp, 8

; 319  :     }

  00054	8b 4d f4	 mov	 ecx, DWORD PTR __$EHRec$[ebp]
  00057	64 89 0d 00 00
	00 00		 mov	 DWORD PTR fs:0, ecx
  0005e	59		 pop	 ecx
  0005f	5f		 pop	 edi
  00060	5e		 pop	 esi
  00061	5b		 pop	 ebx
  00062	8b e5		 mov	 esp, ebp
  00064	5d		 pop	 ebp
  00065	c3		 ret	 0
  00066	cc		 int	 3
  00067	cc		 int	 3
  00068	cc		 int	 3
  00069	cc		 int	 3
  0006a	cc		 int	 3
_TEXT	ENDS
;	COMDAT text$x
text$x	SEGMENT
__ehhandler$??$_Freenode@V?$allocator@U?$_List_node@UEVENT_TIME@@PAX@std@@@std@@@?$_List_node@UEVENT_TIME@@PAX@std@@SAXAAV?$allocator@U?$_List_node@UEVENT_TIME@@PAX@std@@@1@PAU01@@Z:
  00000	90		 npad	 1
  00001	90		 npad	 1
  00002	8b 54 24 08	 mov	 edx, DWORD PTR [esp+8]
  00006	8d 42 0c	 lea	 eax, DWORD PTR [edx+12]
  00009	8b 4a b0	 mov	 ecx, DWORD PTR [edx-80]
  0000c	33 c8		 xor	 ecx, eax
  0000e	e8 00 00 00 00	 call	 @__security_check_cookie@4
  00013	b8 00 00 00 00	 mov	 eax, OFFSET __ehfuncinfo$??$_Freenode@V?$allocator@U?$_List_node@UEVENT_TIME@@PAX@std@@@std@@@?$_List_node@UEVENT_TIME@@PAX@std@@SAXAAV?$allocator@U?$_List_node@UEVENT_TIME@@PAX@std@@@1@PAU01@@Z
  00018	e9 00 00 00 00	 jmp	 ___CxxFrameHandler3
text$x	ENDS
??$_Freenode@V?$allocator@U?$_List_node@UEVENT_TIME@@PAX@std@@@std@@@?$_List_node@UEVENT_TIME@@PAX@std@@SAXAAV?$allocator@U?$_List_node@UEVENT_TIME@@PAX@std@@@1@PAU01@@Z ENDP ; std::_List_node<EVENT_TIME,void *>::_Freenode<std::allocator<std::_List_node<EVENT_TIME,void *> > >
; Function compile flags: /Odtp /ZI
; File C:\Program Files (x86)\Microsoft Visual Studio\2019\Community\VC\Tools\MSVC\14.27.29110\include\xmemory
;	COMDAT ??$_Get_size_of_n@$0M@@std@@YAII@Z
_TEXT	SEGMENT
__Max_possible$1 = -8					; size = 4
__Overflow_is_possible$ = -1				; size = 1
__Count$ = 8						; size = 4
??$_Get_size_of_n@$0M@@std@@YAII@Z PROC			; std::_Get_size_of_n<12>, COMDAT

; 55   : _NODISCARD constexpr size_t _Get_size_of_n(const size_t _Count) {

  00000	55		 push	 ebp
  00001	8b ec		 mov	 ebp, esp
  00003	83 ec 48	 sub	 esp, 72			; 00000048H
  00006	53		 push	 ebx
  00007	56		 push	 esi
  00008	57		 push	 edi

; 56   :     constexpr bool _Overflow_is_possible = _Ty_size > 1;

  00009	c6 45 ff 01	 mov	 BYTE PTR __Overflow_is_possible$[ebp], 1

; 57   : 
; 58   :     if _CONSTEXPR_IF (_Overflow_is_possible) {
; 59   :         constexpr size_t _Max_possible = static_cast<size_t>(-1) / _Ty_size;

  0000d	c7 45 f8 55 55
	55 15		 mov	 DWORD PTR __Max_possible$1[ebp], 357913941 ; 15555555H

; 60   :         if (_Count > _Max_possible) {

  00014	81 7d 08 55 55
	55 15		 cmp	 DWORD PTR __Count$[ebp], 357913941 ; 15555555H
  0001b	76 05		 jbe	 SHORT $LN2@Get_size_o

; 61   :             _Throw_bad_array_new_length(); // multiply overflow

  0001d	e8 00 00 00 00	 call	 ?_Throw_bad_array_new_length@std@@YAXXZ ; std::_Throw_bad_array_new_length
$LN2@Get_size_o:

; 62   :         }
; 63   :     }
; 64   : 
; 65   :     return _Count * _Ty_size;

  00022	6b 45 08 0c	 imul	 eax, DWORD PTR __Count$[ebp], 12
$LN3@Get_size_o:

; 66   : }

  00026	5f		 pop	 edi
  00027	5e		 pop	 esi
  00028	5b		 pop	 ebx
  00029	8b e5		 mov	 esp, ebp
  0002b	5d		 pop	 ebp
  0002c	c3		 ret	 0
??$_Get_size_of_n@$0M@@std@@YAII@Z ENDP			; std::_Get_size_of_n<12>
_TEXT	ENDS
; Function compile flags: /Odtp /ZI
; File C:\Program Files (x86)\Microsoft Visual Studio\2019\Community\VC\Tools\MSVC\14.27.29110\include\xmemory
;	COMDAT ??$_Get_size_of_n@$0CA@@std@@YAII@Z
_TEXT	SEGMENT
__Max_possible$1 = -8					; size = 4
__Overflow_is_possible$ = -1				; size = 1
__Count$ = 8						; size = 4
??$_Get_size_of_n@$0CA@@std@@YAII@Z PROC		; std::_Get_size_of_n<32>, COMDAT

; 55   : _NODISCARD constexpr size_t _Get_size_of_n(const size_t _Count) {

  00000	55		 push	 ebp
  00001	8b ec		 mov	 ebp, esp
  00003	83 ec 48	 sub	 esp, 72			; 00000048H
  00006	53		 push	 ebx
  00007	56		 push	 esi
  00008	57		 push	 edi

; 56   :     constexpr bool _Overflow_is_possible = _Ty_size > 1;

  00009	c6 45 ff 01	 mov	 BYTE PTR __Overflow_is_possible$[ebp], 1

; 57   : 
; 58   :     if _CONSTEXPR_IF (_Overflow_is_possible) {
; 59   :         constexpr size_t _Max_possible = static_cast<size_t>(-1) / _Ty_size;

  0000d	c7 45 f8 ff ff
	ff 07		 mov	 DWORD PTR __Max_possible$1[ebp], 134217727 ; 07ffffffH

; 60   :         if (_Count > _Max_possible) {

  00014	81 7d 08 ff ff
	ff 07		 cmp	 DWORD PTR __Count$[ebp], 134217727 ; 07ffffffH
  0001b	76 05		 jbe	 SHORT $LN2@Get_size_o

; 61   :             _Throw_bad_array_new_length(); // multiply overflow

  0001d	e8 00 00 00 00	 call	 ?_Throw_bad_array_new_length@std@@YAXXZ ; std::_Throw_bad_array_new_length
$LN2@Get_size_o:

; 62   :         }
; 63   :     }
; 64   : 
; 65   :     return _Count * _Ty_size;

  00022	8b 45 08	 mov	 eax, DWORD PTR __Count$[ebp]
  00025	c1 e0 05	 shl	 eax, 5
$LN3@Get_size_o:

; 66   : }

  00028	5f		 pop	 edi
  00029	5e		 pop	 esi
  0002a	5b		 pop	 ebx
  0002b	8b e5		 mov	 esp, ebp
  0002d	5d		 pop	 ebp
  0002e	c3		 ret	 0
??$_Get_size_of_n@$0CA@@std@@YAII@Z ENDP		; std::_Get_size_of_n<32>
_TEXT	ENDS
; Function compile flags: /Odtp /ZI
; File C:\Program Files (x86)\Microsoft Visual Studio\2019\Community\VC\Tools\MSVC\14.27.29110\include\xmemory
;	COMDAT ??$_Get_size_of_n@$0BA@@std@@YAII@Z
_TEXT	SEGMENT
__Max_possible$1 = -8					; size = 4
__Overflow_is_possible$ = -1				; size = 1
__Count$ = 8						; size = 4
??$_Get_size_of_n@$0BA@@std@@YAII@Z PROC		; std::_Get_size_of_n<16>, COMDAT

; 55   : _NODISCARD constexpr size_t _Get_size_of_n(const size_t _Count) {

  00000	55		 push	 ebp
  00001	8b ec		 mov	 ebp, esp
  00003	83 ec 48	 sub	 esp, 72			; 00000048H
  00006	53		 push	 ebx
  00007	56		 push	 esi
  00008	57		 push	 edi

; 56   :     constexpr bool _Overflow_is_possible = _Ty_size > 1;

  00009	c6 45 ff 01	 mov	 BYTE PTR __Overflow_is_possible$[ebp], 1

; 57   : 
; 58   :     if _CONSTEXPR_IF (_Overflow_is_possible) {
; 59   :         constexpr size_t _Max_possible = static_cast<size_t>(-1) / _Ty_size;

  0000d	c7 45 f8 ff ff
	ff 0f		 mov	 DWORD PTR __Max_possible$1[ebp], 268435455 ; 0fffffffH

; 60   :         if (_Count > _Max_possible) {

  00014	81 7d 08 ff ff
	ff 0f		 cmp	 DWORD PTR __Count$[ebp], 268435455 ; 0fffffffH
  0001b	76 05		 jbe	 SHORT $LN2@Get_size_o

; 61   :             _Throw_bad_array_new_length(); // multiply overflow

  0001d	e8 00 00 00 00	 call	 ?_Throw_bad_array_new_length@std@@YAXXZ ; std::_Throw_bad_array_new_length
$LN2@Get_size_o:

; 62   :         }
; 63   :     }
; 64   : 
; 65   :     return _Count * _Ty_size;

  00022	8b 45 08	 mov	 eax, DWORD PTR __Count$[ebp]
  00025	c1 e0 04	 shl	 eax, 4
$LN3@Get_size_o:

; 66   : }

  00028	5f		 pop	 edi
  00029	5e		 pop	 esi
  0002a	5b		 pop	 ebx
  0002b	8b e5		 mov	 esp, ebp
  0002d	5d		 pop	 ebp
  0002e	c3		 ret	 0
??$_Get_size_of_n@$0BA@@std@@YAII@Z ENDP		; std::_Get_size_of_n<16>
_TEXT	ENDS
; Function compile flags: /Odtp /ZI
; File C:\Program Files (x86)\Microsoft Visual Studio\2019\Community\VC\Tools\MSVC\14.27.29110\include\xstddef
;	COMDAT ??$addressof@$$CBV?$_List_val@U?$_List_simple_types@H@std@@@std@@@std@@YAPBV?$_List_val@U?$_List_simple_types@H@std@@@0@ABV10@@Z
_TEXT	SEGMENT
__Val$ = 8						; size = 4
??$addressof@$$CBV?$_List_val@U?$_List_simple_types@H@std@@@std@@@std@@YAPBV?$_List_val@U?$_List_simple_types@H@std@@@0@ABV10@@Z PROC ; std::addressof<std::_List_val<std::_List_simple_types<int> > const >, COMDAT

; 274  : _NODISCARD constexpr _Ty* addressof(_Ty& _Val) noexcept {

  00000	55		 push	 ebp
  00001	8b ec		 mov	 ebp, esp
  00003	83 ec 40	 sub	 esp, 64			; 00000040H
  00006	53		 push	 ebx
  00007	56		 push	 esi
  00008	57		 push	 edi

; 275  :     return __builtin_addressof(_Val);

  00009	8b 45 08	 mov	 eax, DWORD PTR __Val$[ebp]

; 276  : }

  0000c	5f		 pop	 edi
  0000d	5e		 pop	 esi
  0000e	5b		 pop	 ebx
  0000f	8b e5		 mov	 esp, ebp
  00011	5d		 pop	 ebp
  00012	c3		 ret	 0
??$addressof@$$CBV?$_List_val@U?$_List_simple_types@H@std@@@std@@@std@@YAPBV?$_List_val@U?$_List_simple_types@H@std@@@0@ABV10@@Z ENDP ; std::addressof<std::_List_val<std::_List_simple_types<int> > const >
_TEXT	ENDS
; Function compile flags: /Odtp /ZI
; File C:\Program Files (x86)\Microsoft Visual Studio\2019\Community\VC\Tools\MSVC\14.27.29110\include\list
;	COMDAT ??$_Freenode0@V?$allocator@U?$_List_node@HPAX@std@@@std@@@?$_List_node@HPAX@std@@SAXAAV?$allocator@U?$_List_node@HPAX@std@@@1@PAU01@@Z
_TEXT	SEGMENT
__$EHRec$ = -12						; size = 12
__Al$ = 8						; size = 4
__Ptr$ = 12						; size = 4
??$_Freenode0@V?$allocator@U?$_List_node@HPAX@std@@@std@@@?$_List_node@HPAX@std@@SAXAAV?$allocator@U?$_List_node@HPAX@std@@@1@PAU01@@Z PROC ; std::_List_node<int,void *>::_Freenode0<std::allocator<std::_List_node<int,void *> > >, COMDAT

; 307  :     static void _Freenode0(_Alnode& _Al, _Nodeptr _Ptr) noexcept {

  00000	55		 push	 ebp
  00001	8b ec		 mov	 ebp, esp
  00003	6a ff		 push	 -1
  00005	68 00 00 00 00	 push	 __ehhandler$??$_Freenode0@V?$allocator@U?$_List_node@HPAX@std@@@std@@@?$_List_node@HPAX@std@@SAXAAV?$allocator@U?$_List_node@HPAX@std@@@1@PAU01@@Z
  0000a	64 a1 00 00 00
	00		 mov	 eax, DWORD PTR fs:0
  00010	50		 push	 eax
  00011	83 ec 40	 sub	 esp, 64			; 00000040H
  00014	53		 push	 ebx
  00015	56		 push	 esi
  00016	57		 push	 edi
  00017	a1 00 00 00 00	 mov	 eax, DWORD PTR ___security_cookie
  0001c	33 c5		 xor	 eax, ebp
  0001e	50		 push	 eax
  0001f	8d 45 f4	 lea	 eax, DWORD PTR __$EHRec$[ebp]
  00022	64 a3 00 00 00
	00		 mov	 DWORD PTR fs:0, eax

; 308  :         // destroy pointer members in _Ptr and deallocate with _Al
; 309  :         static_assert(is_same_v<typename _Alnode::value_type, _List_node>, "Bad _Freenode0 call");
; 310  :         _Destroy_in_place(_Ptr->_Next);

  00028	8b 45 0c	 mov	 eax, DWORD PTR __Ptr$[ebp]
  0002b	50		 push	 eax
  0002c	e8 00 00 00 00	 call	 ??$_Destroy_in_place@PAU?$_List_node@HPAX@std@@@std@@YAXAAPAU?$_List_node@HPAX@0@@Z ; std::_Destroy_in_place<std::_List_node<int,void *> *>
  00031	83 c4 04	 add	 esp, 4

; 311  :         _Destroy_in_place(_Ptr->_Prev);

  00034	8b 45 0c	 mov	 eax, DWORD PTR __Ptr$[ebp]
  00037	83 c0 04	 add	 eax, 4
  0003a	50		 push	 eax
  0003b	e8 00 00 00 00	 call	 ??$_Destroy_in_place@PAU?$_List_node@HPAX@std@@@std@@YAXAAPAU?$_List_node@HPAX@0@@Z ; std::_Destroy_in_place<std::_List_node<int,void *> *>
  00040	83 c4 04	 add	 esp, 4

; 312  :         allocator_traits<_Alnode>::deallocate(_Al, _Ptr, 1);

  00043	6a 01		 push	 1
  00045	8b 45 0c	 mov	 eax, DWORD PTR __Ptr$[ebp]
  00048	50		 push	 eax
  00049	8b 4d 08	 mov	 ecx, DWORD PTR __Al$[ebp]
  0004c	51		 push	 ecx
  0004d	e8 00 00 00 00	 call	 ?deallocate@?$_Default_allocator_traits@V?$allocator@U?$_List_node@HPAX@std@@@std@@@std@@SAXAAV?$allocator@U?$_List_node@HPAX@std@@@2@QAU?$_List_node@HPAX@2@I@Z ; std::_Default_allocator_traits<std::allocator<std::_List_node<int,void *> > >::deallocate
  00052	83 c4 0c	 add	 esp, 12			; 0000000cH

; 313  :     }

  00055	8b 4d f4	 mov	 ecx, DWORD PTR __$EHRec$[ebp]
  00058	64 89 0d 00 00
	00 00		 mov	 DWORD PTR fs:0, ecx
  0005f	59		 pop	 ecx
  00060	5f		 pop	 edi
  00061	5e		 pop	 esi
  00062	5b		 pop	 ebx
  00063	8b e5		 mov	 esp, ebp
  00065	5d		 pop	 ebp
  00066	c3		 ret	 0
  00067	cc		 int	 3
  00068	cc		 int	 3
  00069	cc		 int	 3
  0006a	cc		 int	 3
  0006b	cc		 int	 3
_TEXT	ENDS
;	COMDAT text$x
text$x	SEGMENT
__ehhandler$??$_Freenode0@V?$allocator@U?$_List_node@HPAX@std@@@std@@@?$_List_node@HPAX@std@@SAXAAV?$allocator@U?$_List_node@HPAX@std@@@1@PAU01@@Z:
  00000	90		 npad	 1
  00001	90		 npad	 1
  00002	8b 54 24 08	 mov	 edx, DWORD PTR [esp+8]
  00006	8d 42 0c	 lea	 eax, DWORD PTR [edx+12]
  00009	8b 4a b0	 mov	 ecx, DWORD PTR [edx-80]
  0000c	33 c8		 xor	 ecx, eax
  0000e	e8 00 00 00 00	 call	 @__security_check_cookie@4
  00013	b8 00 00 00 00	 mov	 eax, OFFSET __ehfuncinfo$??$_Freenode0@V?$allocator@U?$_List_node@HPAX@std@@@std@@@?$_List_node@HPAX@std@@SAXAAV?$allocator@U?$_List_node@HPAX@std@@@1@PAU01@@Z
  00018	e9 00 00 00 00	 jmp	 ___CxxFrameHandler3
text$x	ENDS
??$_Freenode0@V?$allocator@U?$_List_node@HPAX@std@@@std@@@?$_List_node@HPAX@std@@SAXAAV?$allocator@U?$_List_node@HPAX@std@@@1@PAU01@@Z ENDP ; std::_List_node<int,void *>::_Freenode0<std::allocator<std::_List_node<int,void *> > >
; Function compile flags: /Odtp /ZI
; File C:\Program Files (x86)\Microsoft Visual Studio\2019\Community\VC\Tools\MSVC\14.27.29110\include\xmemory
;	COMDAT ??$_Construct_in_place@PAU?$_List_node@HPAX@std@@AAPAU12@@std@@YAXAAPAU?$_List_node@HPAX@0@0@Z
_TEXT	SEGMENT
$T1 = -68						; size = 4
__Obj$ = 8						; size = 4
_<_Args_0>$ = 12					; size = 4
??$_Construct_in_place@PAU?$_List_node@HPAX@std@@AAPAU12@@std@@YAXAAPAU?$_List_node@HPAX@0@0@Z PROC ; std::_Construct_in_place<std::_List_node<int,void *> *,std::_List_node<int,void *> * &>, COMDAT

; 228  : void _Construct_in_place(_Ty& _Obj, _Types&&... _Args) noexcept(is_nothrow_constructible_v<_Ty, _Types...>) {

  00000	55		 push	 ebp
  00001	8b ec		 mov	 ebp, esp
  00003	83 ec 44	 sub	 esp, 68			; 00000044H
  00006	53		 push	 ebx
  00007	56		 push	 esi
  00008	57		 push	 edi

; 229  :     ::new (const_cast<void*>(static_cast<const volatile void*>(_STD addressof(_Obj))))

  00009	8b 45 08	 mov	 eax, DWORD PTR __Obj$[ebp]
  0000c	50		 push	 eax
  0000d	e8 00 00 00 00	 call	 ??$addressof@PAU?$_List_node@HPAX@std@@@std@@YAPAPAU?$_List_node@HPAX@0@AAPAU10@@Z ; std::addressof<std::_List_node<int,void *> *>
  00012	83 c4 04	 add	 esp, 4
  00015	50		 push	 eax
  00016	6a 04		 push	 4
  00018	e8 00 00 00 00	 call	 ??2@YAPAXIPAX@Z		; operator new
  0001d	83 c4 08	 add	 esp, 8
  00020	89 45 bc	 mov	 DWORD PTR $T1[ebp], eax
  00023	8b 4d 0c	 mov	 ecx, DWORD PTR _<_Args_0>$[ebp]
  00026	51		 push	 ecx
  00027	e8 00 00 00 00	 call	 ??$forward@AAPAU?$_List_node@HPAX@std@@@std@@YAAAPAU?$_List_node@HPAX@0@AAPAU10@@Z ; std::forward<std::_List_node<int,void *> * &>
  0002c	83 c4 04	 add	 esp, 4
  0002f	8b 55 bc	 mov	 edx, DWORD PTR $T1[ebp]
  00032	8b 00		 mov	 eax, DWORD PTR [eax]
  00034	89 02		 mov	 DWORD PTR [edx], eax

; 230  :         _Ty(_STD forward<_Types>(_Args)...);
; 231  : }

  00036	5f		 pop	 edi
  00037	5e		 pop	 esi
  00038	5b		 pop	 ebx
  00039	8b e5		 mov	 esp, ebp
  0003b	5d		 pop	 ebp
  0003c	c3		 ret	 0
??$_Construct_in_place@PAU?$_List_node@HPAX@std@@AAPAU12@@std@@YAXAAPAU?$_List_node@HPAX@0@0@Z ENDP ; std::_Construct_in_place<std::_List_node<int,void *> *,std::_List_node<int,void *> * &>
_TEXT	ENDS
; Function compile flags: /Odtp /ZI
; File C:\Program Files (x86)\Microsoft Visual Studio\2019\Community\VC\Tools\MSVC\14.27.29110\include\list
;	COMDAT ??$_Freenode0@V?$allocator@U?$_List_node@UREWARD_ITEM@@PAX@std@@@std@@@?$_List_node@UREWARD_ITEM@@PAX@std@@SAXAAV?$allocator@U?$_List_node@UREWARD_ITEM@@PAX@std@@@1@PAU01@@Z
_TEXT	SEGMENT
__$EHRec$ = -12						; size = 12
__Al$ = 8						; size = 4
__Ptr$ = 12						; size = 4
??$_Freenode0@V?$allocator@U?$_List_node@UREWARD_ITEM@@PAX@std@@@std@@@?$_List_node@UREWARD_ITEM@@PAX@std@@SAXAAV?$allocator@U?$_List_node@UREWARD_ITEM@@PAX@std@@@1@PAU01@@Z PROC ; std::_List_node<REWARD_ITEM,void *>::_Freenode0<std::allocator<std::_List_node<REWARD_ITEM,void *> > >, COMDAT

; 307  :     static void _Freenode0(_Alnode& _Al, _Nodeptr _Ptr) noexcept {

  00000	55		 push	 ebp
  00001	8b ec		 mov	 ebp, esp
  00003	6a ff		 push	 -1
  00005	68 00 00 00 00	 push	 __ehhandler$??$_Freenode0@V?$allocator@U?$_List_node@UREWARD_ITEM@@PAX@std@@@std@@@?$_List_node@UREWARD_ITEM@@PAX@std@@SAXAAV?$allocator@U?$_List_node@UREWARD_ITEM@@PAX@std@@@1@PAU01@@Z
  0000a	64 a1 00 00 00
	00		 mov	 eax, DWORD PTR fs:0
  00010	50		 push	 eax
  00011	83 ec 40	 sub	 esp, 64			; 00000040H
  00014	53		 push	 ebx
  00015	56		 push	 esi
  00016	57		 push	 edi
  00017	a1 00 00 00 00	 mov	 eax, DWORD PTR ___security_cookie
  0001c	33 c5		 xor	 eax, ebp
  0001e	50		 push	 eax
  0001f	8d 45 f4	 lea	 eax, DWORD PTR __$EHRec$[ebp]
  00022	64 a3 00 00 00
	00		 mov	 DWORD PTR fs:0, eax

; 308  :         // destroy pointer members in _Ptr and deallocate with _Al
; 309  :         static_assert(is_same_v<typename _Alnode::value_type, _List_node>, "Bad _Freenode0 call");
; 310  :         _Destroy_in_place(_Ptr->_Next);

  00028	8b 45 0c	 mov	 eax, DWORD PTR __Ptr$[ebp]
  0002b	50		 push	 eax
  0002c	e8 00 00 00 00	 call	 ??$_Destroy_in_place@PAU?$_List_node@UREWARD_ITEM@@PAX@std@@@std@@YAXAAPAU?$_List_node@UREWARD_ITEM@@PAX@0@@Z ; std::_Destroy_in_place<std::_List_node<REWARD_ITEM,void *> *>
  00031	83 c4 04	 add	 esp, 4

; 311  :         _Destroy_in_place(_Ptr->_Prev);

  00034	8b 45 0c	 mov	 eax, DWORD PTR __Ptr$[ebp]
  00037	83 c0 04	 add	 eax, 4
  0003a	50		 push	 eax
  0003b	e8 00 00 00 00	 call	 ??$_Destroy_in_place@PAU?$_List_node@UREWARD_ITEM@@PAX@std@@@std@@YAXAAPAU?$_List_node@UREWARD_ITEM@@PAX@0@@Z ; std::_Destroy_in_place<std::_List_node<REWARD_ITEM,void *> *>
  00040	83 c4 04	 add	 esp, 4

; 312  :         allocator_traits<_Alnode>::deallocate(_Al, _Ptr, 1);

  00043	6a 01		 push	 1
  00045	8b 45 0c	 mov	 eax, DWORD PTR __Ptr$[ebp]
  00048	50		 push	 eax
  00049	8b 4d 08	 mov	 ecx, DWORD PTR __Al$[ebp]
  0004c	51		 push	 ecx
  0004d	e8 00 00 00 00	 call	 ?deallocate@?$_Default_allocator_traits@V?$allocator@U?$_List_node@UREWARD_ITEM@@PAX@std@@@std@@@std@@SAXAAV?$allocator@U?$_List_node@UREWARD_ITEM@@PAX@std@@@2@QAU?$_List_node@UREWARD_ITEM@@PAX@2@I@Z ; std::_Default_allocator_traits<std::allocator<std::_List_node<REWARD_ITEM,void *> > >::deallocate
  00052	83 c4 0c	 add	 esp, 12			; 0000000cH

; 313  :     }

  00055	8b 4d f4	 mov	 ecx, DWORD PTR __$EHRec$[ebp]
  00058	64 89 0d 00 00
	00 00		 mov	 DWORD PTR fs:0, ecx
  0005f	59		 pop	 ecx
  00060	5f		 pop	 edi
  00061	5e		 pop	 esi
  00062	5b		 pop	 ebx
  00063	8b e5		 mov	 esp, ebp
  00065	5d		 pop	 ebp
  00066	c3		 ret	 0
  00067	cc		 int	 3
  00068	cc		 int	 3
  00069	cc		 int	 3
  0006a	cc		 int	 3
  0006b	cc		 int	 3
_TEXT	ENDS
;	COMDAT text$x
text$x	SEGMENT
__ehhandler$??$_Freenode0@V?$allocator@U?$_List_node@UREWARD_ITEM@@PAX@std@@@std@@@?$_List_node@UREWARD_ITEM@@PAX@std@@SAXAAV?$allocator@U?$_List_node@UREWARD_ITEM@@PAX@std@@@1@PAU01@@Z:
  00000	90		 npad	 1
  00001	90		 npad	 1
  00002	8b 54 24 08	 mov	 edx, DWORD PTR [esp+8]
  00006	8d 42 0c	 lea	 eax, DWORD PTR [edx+12]
  00009	8b 4a b0	 mov	 ecx, DWORD PTR [edx-80]
  0000c	33 c8		 xor	 ecx, eax
  0000e	e8 00 00 00 00	 call	 @__security_check_cookie@4
  00013	b8 00 00 00 00	 mov	 eax, OFFSET __ehfuncinfo$??$_Freenode0@V?$allocator@U?$_List_node@UREWARD_ITEM@@PAX@std@@@std@@@?$_List_node@UREWARD_ITEM@@PAX@std@@SAXAAV?$allocator@U?$_List_node@UREWARD_ITEM@@PAX@std@@@1@PAU01@@Z
  00018	e9 00 00 00 00	 jmp	 ___CxxFrameHandler3
text$x	ENDS
??$_Freenode0@V?$allocator@U?$_List_node@UREWARD_ITEM@@PAX@std@@@std@@@?$_List_node@UREWARD_ITEM@@PAX@std@@SAXAAV?$allocator@U?$_List_node@UREWARD_ITEM@@PAX@std@@@1@PAU01@@Z ENDP ; std::_List_node<REWARD_ITEM,void *>::_Freenode0<std::allocator<std::_List_node<REWARD_ITEM,void *> > >
; Function compile flags: /Odtp /ZI
; File C:\Program Files (x86)\Microsoft Visual Studio\2019\Community\VC\Tools\MSVC\14.27.29110\include\xmemory
;	COMDAT ??$_Construct_in_place@PAU?$_List_node@UREWARD_ITEM@@PAX@std@@AAPAU12@@std@@YAXAAPAU?$_List_node@UREWARD_ITEM@@PAX@0@0@Z
_TEXT	SEGMENT
$T1 = -68						; size = 4
__Obj$ = 8						; size = 4
_<_Args_0>$ = 12					; size = 4
??$_Construct_in_place@PAU?$_List_node@UREWARD_ITEM@@PAX@std@@AAPAU12@@std@@YAXAAPAU?$_List_node@UREWARD_ITEM@@PAX@0@0@Z PROC ; std::_Construct_in_place<std::_List_node<REWARD_ITEM,void *> *,std::_List_node<REWARD_ITEM,void *> * &>, COMDAT

; 228  : void _Construct_in_place(_Ty& _Obj, _Types&&... _Args) noexcept(is_nothrow_constructible_v<_Ty, _Types...>) {

  00000	55		 push	 ebp
  00001	8b ec		 mov	 ebp, esp
  00003	83 ec 44	 sub	 esp, 68			; 00000044H
  00006	53		 push	 ebx
  00007	56		 push	 esi
  00008	57		 push	 edi

; 229  :     ::new (const_cast<void*>(static_cast<const volatile void*>(_STD addressof(_Obj))))

  00009	8b 45 08	 mov	 eax, DWORD PTR __Obj$[ebp]
  0000c	50		 push	 eax
  0000d	e8 00 00 00 00	 call	 ??$addressof@PAU?$_List_node@UREWARD_ITEM@@PAX@std@@@std@@YAPAPAU?$_List_node@UREWARD_ITEM@@PAX@0@AAPAU10@@Z ; std::addressof<std::_List_node<REWARD_ITEM,void *> *>
  00012	83 c4 04	 add	 esp, 4
  00015	50		 push	 eax
  00016	6a 04		 push	 4
  00018	e8 00 00 00 00	 call	 ??2@YAPAXIPAX@Z		; operator new
  0001d	83 c4 08	 add	 esp, 8
  00020	89 45 bc	 mov	 DWORD PTR $T1[ebp], eax
  00023	8b 4d 0c	 mov	 ecx, DWORD PTR _<_Args_0>$[ebp]
  00026	51		 push	 ecx
  00027	e8 00 00 00 00	 call	 ??$forward@AAPAU?$_List_node@UREWARD_ITEM@@PAX@std@@@std@@YAAAPAU?$_List_node@UREWARD_ITEM@@PAX@0@AAPAU10@@Z ; std::forward<std::_List_node<REWARD_ITEM,void *> * &>
  0002c	83 c4 04	 add	 esp, 4
  0002f	8b 55 bc	 mov	 edx, DWORD PTR $T1[ebp]
  00032	8b 00		 mov	 eax, DWORD PTR [eax]
  00034	89 02		 mov	 DWORD PTR [edx], eax

; 230  :         _Ty(_STD forward<_Types>(_Args)...);
; 231  : }

  00036	5f		 pop	 edi
  00037	5e		 pop	 esi
  00038	5b		 pop	 ebx
  00039	8b e5		 mov	 esp, ebp
  0003b	5d		 pop	 ebp
  0003c	c3		 ret	 0
??$_Construct_in_place@PAU?$_List_node@UREWARD_ITEM@@PAX@std@@AAPAU12@@std@@YAXAAPAU?$_List_node@UREWARD_ITEM@@PAX@0@0@Z ENDP ; std::_Construct_in_place<std::_List_node<REWARD_ITEM,void *> *,std::_List_node<REWARD_ITEM,void *> * &>
_TEXT	ENDS
; Function compile flags: /Odtp /ZI
; File C:\Program Files (x86)\Microsoft Visual Studio\2019\Community\VC\Tools\MSVC\14.27.29110\include\list
;	COMDAT ??$_Freenode0@V?$allocator@U?$_List_node@UEVENT_TIME@@PAX@std@@@std@@@?$_List_node@UEVENT_TIME@@PAX@std@@SAXAAV?$allocator@U?$_List_node@UEVENT_TIME@@PAX@std@@@1@PAU01@@Z
_TEXT	SEGMENT
__$EHRec$ = -12						; size = 12
__Al$ = 8						; size = 4
__Ptr$ = 12						; size = 4
??$_Freenode0@V?$allocator@U?$_List_node@UEVENT_TIME@@PAX@std@@@std@@@?$_List_node@UEVENT_TIME@@PAX@std@@SAXAAV?$allocator@U?$_List_node@UEVENT_TIME@@PAX@std@@@1@PAU01@@Z PROC ; std::_List_node<EVENT_TIME,void *>::_Freenode0<std::allocator<std::_List_node<EVENT_TIME,void *> > >, COMDAT

; 307  :     static void _Freenode0(_Alnode& _Al, _Nodeptr _Ptr) noexcept {

  00000	55		 push	 ebp
  00001	8b ec		 mov	 ebp, esp
  00003	6a ff		 push	 -1
  00005	68 00 00 00 00	 push	 __ehhandler$??$_Freenode0@V?$allocator@U?$_List_node@UEVENT_TIME@@PAX@std@@@std@@@?$_List_node@UEVENT_TIME@@PAX@std@@SAXAAV?$allocator@U?$_List_node@UEVENT_TIME@@PAX@std@@@1@PAU01@@Z
  0000a	64 a1 00 00 00
	00		 mov	 eax, DWORD PTR fs:0
  00010	50		 push	 eax
  00011	83 ec 40	 sub	 esp, 64			; 00000040H
  00014	53		 push	 ebx
  00015	56		 push	 esi
  00016	57		 push	 edi
  00017	a1 00 00 00 00	 mov	 eax, DWORD PTR ___security_cookie
  0001c	33 c5		 xor	 eax, ebp
  0001e	50		 push	 eax
  0001f	8d 45 f4	 lea	 eax, DWORD PTR __$EHRec$[ebp]
  00022	64 a3 00 00 00
	00		 mov	 DWORD PTR fs:0, eax

; 308  :         // destroy pointer members in _Ptr and deallocate with _Al
; 309  :         static_assert(is_same_v<typename _Alnode::value_type, _List_node>, "Bad _Freenode0 call");
; 310  :         _Destroy_in_place(_Ptr->_Next);

  00028	8b 45 0c	 mov	 eax, DWORD PTR __Ptr$[ebp]
  0002b	50		 push	 eax
  0002c	e8 00 00 00 00	 call	 ??$_Destroy_in_place@PAU?$_List_node@UEVENT_TIME@@PAX@std@@@std@@YAXAAPAU?$_List_node@UEVENT_TIME@@PAX@0@@Z ; std::_Destroy_in_place<std::_List_node<EVENT_TIME,void *> *>
  00031	83 c4 04	 add	 esp, 4

; 311  :         _Destroy_in_place(_Ptr->_Prev);

  00034	8b 45 0c	 mov	 eax, DWORD PTR __Ptr$[ebp]
  00037	83 c0 04	 add	 eax, 4
  0003a	50		 push	 eax
  0003b	e8 00 00 00 00	 call	 ??$_Destroy_in_place@PAU?$_List_node@UEVENT_TIME@@PAX@std@@@std@@YAXAAPAU?$_List_node@UEVENT_TIME@@PAX@0@@Z ; std::_Destroy_in_place<std::_List_node<EVENT_TIME,void *> *>
  00040	83 c4 04	 add	 esp, 4

; 312  :         allocator_traits<_Alnode>::deallocate(_Al, _Ptr, 1);

  00043	6a 01		 push	 1
  00045	8b 45 0c	 mov	 eax, DWORD PTR __Ptr$[ebp]
  00048	50		 push	 eax
  00049	8b 4d 08	 mov	 ecx, DWORD PTR __Al$[ebp]
  0004c	51		 push	 ecx
  0004d	e8 00 00 00 00	 call	 ?deallocate@?$_Default_allocator_traits@V?$allocator@U?$_List_node@UEVENT_TIME@@PAX@std@@@std@@@std@@SAXAAV?$allocator@U?$_List_node@UEVENT_TIME@@PAX@std@@@2@QAU?$_List_node@UEVENT_TIME@@PAX@2@I@Z ; std::_Default_allocator_traits<std::allocator<std::_List_node<EVENT_TIME,void *> > >::deallocate
  00052	83 c4 0c	 add	 esp, 12			; 0000000cH

; 313  :     }

  00055	8b 4d f4	 mov	 ecx, DWORD PTR __$EHRec$[ebp]
  00058	64 89 0d 00 00
	00 00		 mov	 DWORD PTR fs:0, ecx
  0005f	59		 pop	 ecx
  00060	5f		 pop	 edi
  00061	5e		 pop	 esi
  00062	5b		 pop	 ebx
  00063	8b e5		 mov	 esp, ebp
  00065	5d		 pop	 ebp
  00066	c3		 ret	 0
  00067	cc		 int	 3
  00068	cc		 int	 3
  00069	cc		 int	 3
  0006a	cc		 int	 3
  0006b	cc		 int	 3
_TEXT	ENDS
;	COMDAT text$x
text$x	SEGMENT
__ehhandler$??$_Freenode0@V?$allocator@U?$_List_node@UEVENT_TIME@@PAX@std@@@std@@@?$_List_node@UEVENT_TIME@@PAX@std@@SAXAAV?$allocator@U?$_List_node@UEVENT_TIME@@PAX@std@@@1@PAU01@@Z:
  00000	90		 npad	 1
  00001	90		 npad	 1
  00002	8b 54 24 08	 mov	 edx, DWORD PTR [esp+8]
  00006	8d 42 0c	 lea	 eax, DWORD PTR [edx+12]
  00009	8b 4a b0	 mov	 ecx, DWORD PTR [edx-80]
  0000c	33 c8		 xor	 ecx, eax
  0000e	e8 00 00 00 00	 call	 @__security_check_cookie@4
  00013	b8 00 00 00 00	 mov	 eax, OFFSET __ehfuncinfo$??$_Freenode0@V?$allocator@U?$_List_node@UEVENT_TIME@@PAX@std@@@std@@@?$_List_node@UEVENT_TIME@@PAX@std@@SAXAAV?$allocator@U?$_List_node@UEVENT_TIME@@PAX@std@@@1@PAU01@@Z
  00018	e9 00 00 00 00	 jmp	 ___CxxFrameHandler3
text$x	ENDS
??$_Freenode0@V?$allocator@U?$_List_node@UEVENT_TIME@@PAX@std@@@std@@@?$_List_node@UEVENT_TIME@@PAX@std@@SAXAAV?$allocator@U?$_List_node@UEVENT_TIME@@PAX@std@@@1@PAU01@@Z ENDP ; std::_List_node<EVENT_TIME,void *>::_Freenode0<std::allocator<std::_List_node<EVENT_TIME,void *> > >
; Function compile flags: /Odtp /ZI
; File C:\Program Files (x86)\Microsoft Visual Studio\2019\Community\VC\Tools\MSVC\14.27.29110\include\xmemory
;	COMDAT ??$_Construct_in_place@PAU?$_List_node@UEVENT_TIME@@PAX@std@@AAPAU12@@std@@YAXAAPAU?$_List_node@UEVENT_TIME@@PAX@0@0@Z
_TEXT	SEGMENT
$T1 = -68						; size = 4
__Obj$ = 8						; size = 4
_<_Args_0>$ = 12					; size = 4
??$_Construct_in_place@PAU?$_List_node@UEVENT_TIME@@PAX@std@@AAPAU12@@std@@YAXAAPAU?$_List_node@UEVENT_TIME@@PAX@0@0@Z PROC ; std::_Construct_in_place<std::_List_node<EVENT_TIME,void *> *,std::_List_node<EVENT_TIME,void *> * &>, COMDAT

; 228  : void _Construct_in_place(_Ty& _Obj, _Types&&... _Args) noexcept(is_nothrow_constructible_v<_Ty, _Types...>) {

  00000	55		 push	 ebp
  00001	8b ec		 mov	 ebp, esp
  00003	83 ec 44	 sub	 esp, 68			; 00000044H
  00006	53		 push	 ebx
  00007	56		 push	 esi
  00008	57		 push	 edi

; 229  :     ::new (const_cast<void*>(static_cast<const volatile void*>(_STD addressof(_Obj))))

  00009	8b 45 08	 mov	 eax, DWORD PTR __Obj$[ebp]
  0000c	50		 push	 eax
  0000d	e8 00 00 00 00	 call	 ??$addressof@PAU?$_List_node@UEVENT_TIME@@PAX@std@@@std@@YAPAPAU?$_List_node@UEVENT_TIME@@PAX@0@AAPAU10@@Z ; std::addressof<std::_List_node<EVENT_TIME,void *> *>
  00012	83 c4 04	 add	 esp, 4
  00015	50		 push	 eax
  00016	6a 04		 push	 4
  00018	e8 00 00 00 00	 call	 ??2@YAPAXIPAX@Z		; operator new
  0001d	83 c4 08	 add	 esp, 8
  00020	89 45 bc	 mov	 DWORD PTR $T1[ebp], eax
  00023	8b 4d 0c	 mov	 ecx, DWORD PTR _<_Args_0>$[ebp]
  00026	51		 push	 ecx
  00027	e8 00 00 00 00	 call	 ??$forward@AAPAU?$_List_node@UEVENT_TIME@@PAX@std@@@std@@YAAAPAU?$_List_node@UEVENT_TIME@@PAX@0@AAPAU10@@Z ; std::forward<std::_List_node<EVENT_TIME,void *> * &>
  0002c	83 c4 04	 add	 esp, 4
  0002f	8b 55 bc	 mov	 edx, DWORD PTR $T1[ebp]
  00032	8b 00		 mov	 eax, DWORD PTR [eax]
  00034	89 02		 mov	 DWORD PTR [edx], eax

; 230  :         _Ty(_STD forward<_Types>(_Args)...);
; 231  : }

  00036	5f		 pop	 edi
  00037	5e		 pop	 esi
  00038	5b		 pop	 ebx
  00039	8b e5		 mov	 esp, ebp
  0003b	5d		 pop	 ebp
  0003c	c3		 ret	 0
??$_Construct_in_place@PAU?$_List_node@UEVENT_TIME@@PAX@std@@AAPAU12@@std@@YAXAAPAU?$_List_node@UEVENT_TIME@@PAX@0@0@Z ENDP ; std::_Construct_in_place<std::_List_node<EVENT_TIME,void *> *,std::_List_node<EVENT_TIME,void *> * &>
_TEXT	ENDS
; Function compile flags: /Odtp /ZI
; File C:\Program Files (x86)\Microsoft Visual Studio\2019\Community\VC\Tools\MSVC\14.27.29110\include\xmemory
;	COMDAT ??$?0$$V@?$_Compressed_pair@V?$allocator@U?$_List_node@HPAX@std@@@std@@V?$_List_val@U?$_List_simple_types@H@std@@@2@$00@std@@QAE@U_Zero_then_variadic_args_t@1@@Z
_TEXT	SEGMENT
_this$ = -4						; size = 4
___formal$ = 8						; size = 1
??$?0$$V@?$_Compressed_pair@V?$allocator@U?$_List_node@HPAX@std@@@std@@V?$_List_val@U?$_List_simple_types@H@std@@@2@$00@std@@QAE@U_Zero_then_variadic_args_t@1@@Z PROC ; std::_Compressed_pair<std::allocator<std::_List_node<int,void *> >,std::_List_val<std::_List_simple_types<int> >,1>::_Compressed_pair<std::allocator<std::_List_node<int,void *> >,std::_List_val<std::_List_simple_types<int> >,1><>, COMDAT
; _this$ = ecx

; 1336 :         : _Ty1(), _Myval2(_STD forward<_Other2>(_Val2)...) {}

  00000	55		 push	 ebp
  00001	8b ec		 mov	 ebp, esp
  00003	83 ec 44	 sub	 esp, 68			; 00000044H
  00006	53		 push	 ebx
  00007	56		 push	 esi
  00008	57		 push	 edi
  00009	89 4d fc	 mov	 DWORD PTR _this$[ebp], ecx
  0000c	8b 4d fc	 mov	 ecx, DWORD PTR _this$[ebp]
  0000f	e8 00 00 00 00	 call	 ??0?$allocator@U?$_List_node@HPAX@std@@@std@@QAE@XZ ; std::allocator<std::_List_node<int,void *> >::allocator<std::_List_node<int,void *> >
  00014	8b 4d fc	 mov	 ecx, DWORD PTR _this$[ebp]
  00017	e8 00 00 00 00	 call	 ??0?$_List_val@U?$_List_simple_types@H@std@@@std@@QAE@XZ ; std::_List_val<std::_List_simple_types<int> >::_List_val<std::_List_simple_types<int> >
  0001c	8b 45 fc	 mov	 eax, DWORD PTR _this$[ebp]
  0001f	5f		 pop	 edi
  00020	5e		 pop	 esi
  00021	5b		 pop	 ebx
  00022	8b e5		 mov	 esp, ebp
  00024	5d		 pop	 ebp
  00025	c2 04 00	 ret	 4
??$?0$$V@?$_Compressed_pair@V?$allocator@U?$_List_node@HPAX@std@@@std@@V?$_List_val@U?$_List_simple_types@H@std@@@2@$00@std@@QAE@U_Zero_then_variadic_args_t@1@@Z ENDP ; std::_Compressed_pair<std::allocator<std::_List_node<int,void *> >,std::_List_val<std::_List_simple_types<int> >,1>::_Compressed_pair<std::allocator<std::_List_node<int,void *> >,std::_List_val<std::_List_simple_types<int> >,1><>
_TEXT	ENDS
; Function compile flags: /Odtp /ZI
; File C:\Program Files (x86)\Microsoft Visual Studio\2019\Community\VC\Tools\MSVC\14.27.29110\include\xstddef
;	COMDAT ??$addressof@V?$_List_val@U?$_List_simple_types@H@std@@@std@@@std@@YAPAV?$_List_val@U?$_List_simple_types@H@std@@@0@AAV10@@Z
_TEXT	SEGMENT
__Val$ = 8						; size = 4
??$addressof@V?$_List_val@U?$_List_simple_types@H@std@@@std@@@std@@YAPAV?$_List_val@U?$_List_simple_types@H@std@@@0@AAV10@@Z PROC ; std::addressof<std::_List_val<std::_List_simple_types<int> > >, COMDAT

; 274  : _NODISCARD constexpr _Ty* addressof(_Ty& _Val) noexcept {

  00000	55		 push	 ebp
  00001	8b ec		 mov	 ebp, esp
  00003	83 ec 40	 sub	 esp, 64			; 00000040H
  00006	53		 push	 ebx
  00007	56		 push	 esi
  00008	57		 push	 edi

; 275  :     return __builtin_addressof(_Val);

  00009	8b 45 08	 mov	 eax, DWORD PTR __Val$[ebp]

; 276  : }

  0000c	5f		 pop	 edi
  0000d	5e		 pop	 esi
  0000e	5b		 pop	 ebx
  0000f	8b e5		 mov	 esp, ebp
  00011	5d		 pop	 ebp
  00012	c3		 ret	 0
??$addressof@V?$_List_val@U?$_List_simple_types@H@std@@@std@@@std@@YAPAV?$_List_val@U?$_List_simple_types@H@std@@@0@AAV10@@Z ENDP ; std::addressof<std::_List_val<std::_List_simple_types<int> > >
_TEXT	ENDS
; Function compile flags: /Odtp /ZI
; File C:\Program Files (x86)\Microsoft Visual Studio\2019\Community\VC\Tools\MSVC\14.27.29110\include\list
;	COMDAT ??$_Emplace@ABH@?$list@HV?$allocator@H@std@@@std@@QAEPAU?$_List_node@HPAX@1@QAU21@ABH@Z
_TEXT	SEGMENT
tv82 = -92						; size = 4
tv80 = -88						; size = 4
$T1 = -84						; size = 4
__Op$ = -16						; size = 8
__Mysize$ = -8						; size = 4
_this$ = -4						; size = 4
__Where$ = 8						; size = 4
_<_Val_0>$ = 12						; size = 4
??$_Emplace@ABH@?$list@HV?$allocator@H@std@@@std@@QAEPAU?$_List_node@HPAX@1@QAU21@ABH@Z PROC ; std::list<int,std::allocator<int> >::_Emplace<int const &>, COMDAT
; _this$ = ecx

; 1012 :     _Nodeptr _Emplace(const _Nodeptr _Where, _Valty&&... _Val) { // insert element at _Where

  00000	55		 push	 ebp
  00001	8b ec		 mov	 ebp, esp
  00003	83 ec 5c	 sub	 esp, 92			; 0000005cH
  00006	53		 push	 ebx
  00007	56		 push	 esi
  00008	57		 push	 edi
  00009	89 4d fc	 mov	 DWORD PTR _this$[ebp], ecx

; 1013 :         size_type& _Mysize = _Mypair._Myval2._Mysize;

  0000c	8b 45 fc	 mov	 eax, DWORD PTR _this$[ebp]
  0000f	83 c0 04	 add	 eax, 4
  00012	89 45 f8	 mov	 DWORD PTR __Mysize$[ebp], eax

; 1014 :         if (_Mysize == max_size()) {

  00015	8b 4d fc	 mov	 ecx, DWORD PTR _this$[ebp]
  00018	e8 00 00 00 00	 call	 ?max_size@?$list@HV?$allocator@H@std@@@std@@QBEIXZ ; std::list<int,std::allocator<int> >::max_size
  0001d	8b 4d f8	 mov	 ecx, DWORD PTR __Mysize$[ebp]
  00020	39 01		 cmp	 DWORD PTR [ecx], eax
  00022	75 0a		 jne	 SHORT $LN2@Emplace

; 1015 :             _Xlength_error("list too long");

  00024	68 00 00 00 00	 push	 OFFSET ??_C@_0O@NKNMEGII@list?5too?5long@
  00029	e8 00 00 00 00	 call	 ?_Xlength_error@std@@YAXPBD@Z ; std::_Xlength_error
$LN2@Emplace:

; 1016 :         }
; 1017 : 
; 1018 :         _List_node_emplace_op2<_Alnode> _Op{_Getal(), _STD forward<_Valty>(_Val)...};

  0002e	8b 4d fc	 mov	 ecx, DWORD PTR _this$[ebp]
  00031	e8 00 00 00 00	 call	 ?_Getal@?$list@HV?$allocator@H@std@@@std@@AAEAAV?$allocator@U?$_List_node@HPAX@std@@@2@XZ ; std::list<int,std::allocator<int> >::_Getal
  00036	89 45 a8	 mov	 DWORD PTR tv80[ebp], eax
  00039	8b 45 0c	 mov	 eax, DWORD PTR _<_Val_0>$[ebp]
  0003c	50		 push	 eax
  0003d	e8 00 00 00 00	 call	 ??$forward@ABH@std@@YAABHABH@Z ; std::forward<int const &>
  00042	83 c4 04	 add	 esp, 4
  00045	89 45 a4	 mov	 DWORD PTR tv82[ebp], eax
  00048	8b 4d a4	 mov	 ecx, DWORD PTR tv82[ebp]
  0004b	51		 push	 ecx
  0004c	8b 55 a8	 mov	 edx, DWORD PTR tv80[ebp]
  0004f	52		 push	 edx
  00050	8d 4d f0	 lea	 ecx, DWORD PTR __Op$[ebp]
  00053	e8 00 00 00 00	 call	 ??$?0ABH@?$_List_node_emplace_op2@V?$allocator@U?$_List_node@HPAX@std@@@std@@@std@@QAE@AAV?$allocator@U?$_List_node@HPAX@std@@@1@ABH@Z ; std::_List_node_emplace_op2<std::allocator<std::_List_node<int,void *> > >::_List_node_emplace_op2<std::allocator<std::_List_node<int,void *> > ><int const &>

; 1019 :         ++_Mysize;

  00058	8b 45 f8	 mov	 eax, DWORD PTR __Mysize$[ebp]
  0005b	8b 08		 mov	 ecx, DWORD PTR [eax]
  0005d	83 c1 01	 add	 ecx, 1
  00060	8b 55 f8	 mov	 edx, DWORD PTR __Mysize$[ebp]
  00063	89 0a		 mov	 DWORD PTR [edx], ecx

; 1020 :         return _Op._Transfer_before(_Where);

  00065	8b 45 08	 mov	 eax, DWORD PTR __Where$[ebp]
  00068	50		 push	 eax
  00069	8d 4d f0	 lea	 ecx, DWORD PTR __Op$[ebp]
  0006c	e8 00 00 00 00	 call	 ?_Transfer_before@?$_List_node_emplace_op2@V?$allocator@U?$_List_node@HPAX@std@@@std@@@std@@QAEPAU?$_List_node@HPAX@2@QAU32@@Z ; std::_List_node_emplace_op2<std::allocator<std::_List_node<int,void *> > >::_Transfer_before
  00071	89 45 ac	 mov	 DWORD PTR $T1[ebp], eax
  00074	8d 4d f0	 lea	 ecx, DWORD PTR __Op$[ebp]
  00077	e8 00 00 00 00	 call	 ??1?$_List_node_emplace_op2@V?$allocator@U?$_List_node@HPAX@std@@@std@@@std@@QAE@XZ ; std::_List_node_emplace_op2<std::allocator<std::_List_node<int,void *> > >::~_List_node_emplace_op2<std::allocator<std::_List_node<int,void *> > >
  0007c	8b 45 ac	 mov	 eax, DWORD PTR $T1[ebp]
$LN3@Emplace:

; 1021 :     }

  0007f	5f		 pop	 edi
  00080	5e		 pop	 esi
  00081	5b		 pop	 ebx
  00082	8b e5		 mov	 esp, ebp
  00084	5d		 pop	 ebp
  00085	c2 08 00	 ret	 8
??$_Emplace@ABH@?$list@HV?$allocator@H@std@@@std@@QAEPAU?$_List_node@HPAX@1@QAU21@ABH@Z ENDP ; std::list<int,std::allocator<int> >::_Emplace<int const &>
_TEXT	ENDS
; Function compile flags: /Odtp /ZI
; File C:\Program Files (x86)\Microsoft Visual Studio\2019\Community\VC\Tools\MSVC\14.27.29110\include\list
;	COMDAT ??$_Freenode@V?$allocator@U?$_List_node@HPAX@std@@@std@@@?$_List_node@HPAX@std@@SAXAAV?$allocator@U?$_List_node@HPAX@std@@@1@PAU01@@Z
_TEXT	SEGMENT
__$EHRec$ = -12						; size = 12
__Al$ = 8						; size = 4
__Ptr$ = 12						; size = 4
??$_Freenode@V?$allocator@U?$_List_node@HPAX@std@@@std@@@?$_List_node@HPAX@std@@SAXAAV?$allocator@U?$_List_node@HPAX@std@@@1@PAU01@@Z PROC ; std::_List_node<int,void *>::_Freenode<std::allocator<std::_List_node<int,void *> > >, COMDAT

; 316  :     static void _Freenode(_Alnode& _Al, _Nodeptr _Ptr) noexcept { // destroy all members in _Ptr and deallocate with _Al

  00000	55		 push	 ebp
  00001	8b ec		 mov	 ebp, esp
  00003	6a ff		 push	 -1
  00005	68 00 00 00 00	 push	 __ehhandler$??$_Freenode@V?$allocator@U?$_List_node@HPAX@std@@@std@@@?$_List_node@HPAX@std@@SAXAAV?$allocator@U?$_List_node@HPAX@std@@@1@PAU01@@Z
  0000a	64 a1 00 00 00
	00		 mov	 eax, DWORD PTR fs:0
  00010	50		 push	 eax
  00011	83 ec 40	 sub	 esp, 64			; 00000040H
  00014	53		 push	 ebx
  00015	56		 push	 esi
  00016	57		 push	 edi
  00017	a1 00 00 00 00	 mov	 eax, DWORD PTR ___security_cookie
  0001c	33 c5		 xor	 eax, ebp
  0001e	50		 push	 eax
  0001f	8d 45 f4	 lea	 eax, DWORD PTR __$EHRec$[ebp]
  00022	64 a3 00 00 00
	00		 mov	 DWORD PTR fs:0, eax

; 317  :         allocator_traits<_Alnode>::destroy(_Al, _STD addressof(_Ptr->_Myval));

  00028	8b 45 0c	 mov	 eax, DWORD PTR __Ptr$[ebp]
  0002b	83 c0 08	 add	 eax, 8
  0002e	50		 push	 eax
  0002f	e8 00 00 00 00	 call	 ??$addressof@H@std@@YAPAHAAH@Z ; std::addressof<int>
  00034	83 c4 04	 add	 esp, 4
  00037	50		 push	 eax
  00038	8b 4d 08	 mov	 ecx, DWORD PTR __Al$[ebp]
  0003b	51		 push	 ecx
  0003c	e8 00 00 00 00	 call	 ??$destroy@H@?$_Default_allocator_traits@V?$allocator@U?$_List_node@HPAX@std@@@std@@@std@@SAXAAV?$allocator@U?$_List_node@HPAX@std@@@1@QAH@Z ; std::_Default_allocator_traits<std::allocator<std::_List_node<int,void *> > >::destroy<int>
  00041	83 c4 08	 add	 esp, 8

; 318  :         _Freenode0(_Al, _Ptr);

  00044	8b 45 0c	 mov	 eax, DWORD PTR __Ptr$[ebp]
  00047	50		 push	 eax
  00048	8b 4d 08	 mov	 ecx, DWORD PTR __Al$[ebp]
  0004b	51		 push	 ecx
  0004c	e8 00 00 00 00	 call	 ??$_Freenode0@V?$allocator@U?$_List_node@HPAX@std@@@std@@@?$_List_node@HPAX@std@@SAXAAV?$allocator@U?$_List_node@HPAX@std@@@1@PAU01@@Z ; std::_List_node<int,void *>::_Freenode0<std::allocator<std::_List_node<int,void *> > >
  00051	83 c4 08	 add	 esp, 8

; 319  :     }

  00054	8b 4d f4	 mov	 ecx, DWORD PTR __$EHRec$[ebp]
  00057	64 89 0d 00 00
	00 00		 mov	 DWORD PTR fs:0, ecx
  0005e	59		 pop	 ecx
  0005f	5f		 pop	 edi
  00060	5e		 pop	 esi
  00061	5b		 pop	 ebx
  00062	8b e5		 mov	 esp, ebp
  00064	5d		 pop	 ebp
  00065	c3		 ret	 0
  00066	cc		 int	 3
  00067	cc		 int	 3
  00068	cc		 int	 3
  00069	cc		 int	 3
  0006a	cc		 int	 3
_TEXT	ENDS
;	COMDAT text$x
text$x	SEGMENT
__ehhandler$??$_Freenode@V?$allocator@U?$_List_node@HPAX@std@@@std@@@?$_List_node@HPAX@std@@SAXAAV?$allocator@U?$_List_node@HPAX@std@@@1@PAU01@@Z:
  00000	90		 npad	 1
  00001	90		 npad	 1
  00002	8b 54 24 08	 mov	 edx, DWORD PTR [esp+8]
  00006	8d 42 0c	 lea	 eax, DWORD PTR [edx+12]
  00009	8b 4a b0	 mov	 ecx, DWORD PTR [edx-80]
  0000c	33 c8		 xor	 ecx, eax
  0000e	e8 00 00 00 00	 call	 @__security_check_cookie@4
  00013	b8 00 00 00 00	 mov	 eax, OFFSET __ehfuncinfo$??$_Freenode@V?$allocator@U?$_List_node@HPAX@std@@@std@@@?$_List_node@HPAX@std@@SAXAAV?$allocator@U?$_List_node@HPAX@std@@@1@PAU01@@Z
  00018	e9 00 00 00 00	 jmp	 ___CxxFrameHandler3
text$x	ENDS
??$_Freenode@V?$allocator@U?$_List_node@HPAX@std@@@std@@@?$_List_node@HPAX@std@@SAXAAV?$allocator@U?$_List_node@HPAX@std@@@1@PAU01@@Z ENDP ; std::_List_node<int,void *>::_Freenode<std::allocator<std::_List_node<int,void *> > >
; Function compile flags: /Odtp /ZI
; File C:\Program Files (x86)\Microsoft Visual Studio\2019\Community\VC\Tools\MSVC\14.27.29110\include\list
;	COMDAT ??$_Free_non_head@V?$allocator@U?$_List_node@HPAX@std@@@std@@@?$_List_node@HPAX@std@@SAXAAV?$allocator@U?$_List_node@HPAX@std@@@1@PAU01@@Z
_TEXT	SEGMENT
__Pnext$1 = -8						; size = 4
__Pnode$ = -4						; size = 4
__Al$ = 8						; size = 4
__Head$ = 12						; size = 4
??$_Free_non_head@V?$allocator@U?$_List_node@HPAX@std@@@std@@@?$_List_node@HPAX@std@@SAXAAV?$allocator@U?$_List_node@HPAX@std@@@1@PAU01@@Z PROC ; std::_List_node<int,void *>::_Free_non_head<std::allocator<std::_List_node<int,void *> > >, COMDAT

; 323  :         _Alnode& _Al, _Nodeptr _Head) noexcept { // free a list starting at _First and terminated at nullptr

  00000	55		 push	 ebp
  00001	8b ec		 mov	 ebp, esp
  00003	83 ec 48	 sub	 esp, 72			; 00000048H
  00006	53		 push	 ebx
  00007	56		 push	 esi
  00008	57		 push	 edi

; 324  :         _Head->_Prev->_Next = nullptr;

  00009	8b 45 0c	 mov	 eax, DWORD PTR __Head$[ebp]
  0000c	8b 48 04	 mov	 ecx, DWORD PTR [eax+4]
  0000f	c7 01 00 00 00
	00		 mov	 DWORD PTR [ecx], 0

; 325  : 
; 326  :         auto _Pnode = _Head->_Next;

  00015	8b 45 0c	 mov	 eax, DWORD PTR __Head$[ebp]
  00018	8b 08		 mov	 ecx, DWORD PTR [eax]
  0001a	89 4d fc	 mov	 DWORD PTR __Pnode$[ebp], ecx

; 327  :         for (_Nodeptr _Pnext; _Pnode; _Pnode = _Pnext) {

  0001d	eb 06		 jmp	 SHORT $LN4@Free_non_h
$LN2@Free_non_h:
  0001f	8b 45 f8	 mov	 eax, DWORD PTR __Pnext$1[ebp]
  00022	89 45 fc	 mov	 DWORD PTR __Pnode$[ebp], eax
$LN4@Free_non_h:
  00025	83 7d fc 00	 cmp	 DWORD PTR __Pnode$[ebp], 0
  00029	74 1a		 je	 SHORT $LN5@Free_non_h

; 328  :             _Pnext = _Pnode->_Next;

  0002b	8b 45 fc	 mov	 eax, DWORD PTR __Pnode$[ebp]
  0002e	8b 08		 mov	 ecx, DWORD PTR [eax]
  00030	89 4d f8	 mov	 DWORD PTR __Pnext$1[ebp], ecx

; 329  :             _Freenode(_Al, _Pnode);

  00033	8b 45 fc	 mov	 eax, DWORD PTR __Pnode$[ebp]
  00036	50		 push	 eax
  00037	8b 4d 08	 mov	 ecx, DWORD PTR __Al$[ebp]
  0003a	51		 push	 ecx
  0003b	e8 00 00 00 00	 call	 ??$_Freenode@V?$allocator@U?$_List_node@HPAX@std@@@std@@@?$_List_node@HPAX@std@@SAXAAV?$allocator@U?$_List_node@HPAX@std@@@1@PAU01@@Z ; std::_List_node<int,void *>::_Freenode<std::allocator<std::_List_node<int,void *> > >
  00040	83 c4 08	 add	 esp, 8

; 330  :         }

  00043	eb da		 jmp	 SHORT $LN2@Free_non_h
$LN5@Free_non_h:

; 331  :     }

  00045	5f		 pop	 edi
  00046	5e		 pop	 esi
  00047	5b		 pop	 ebx
  00048	8b e5		 mov	 esp, ebp
  0004a	5d		 pop	 ebp
  0004b	c3		 ret	 0
??$_Free_non_head@V?$allocator@U?$_List_node@HPAX@std@@@std@@@?$_List_node@HPAX@std@@SAXAAV?$allocator@U?$_List_node@HPAX@std@@@1@PAU01@@Z ENDP ; std::_List_node<int,void *>::_Free_non_head<std::allocator<std::_List_node<int,void *> > >
_TEXT	ENDS
; Function compile flags: /Odtp /ZI
; File C:\Program Files (x86)\Microsoft Visual Studio\2019\Community\VC\Tools\MSVC\14.27.29110\include\xmemory
;	COMDAT ??$?0$$V@?$_Compressed_pair@V?$allocator@U?$_List_node@UREWARD_ITEM@@PAX@std@@@std@@V?$_List_val@U?$_List_simple_types@UREWARD_ITEM@@@std@@@2@$00@std@@QAE@U_Zero_then_variadic_args_t@1@@Z
_TEXT	SEGMENT
_this$ = -4						; size = 4
___formal$ = 8						; size = 1
??$?0$$V@?$_Compressed_pair@V?$allocator@U?$_List_node@UREWARD_ITEM@@PAX@std@@@std@@V?$_List_val@U?$_List_simple_types@UREWARD_ITEM@@@std@@@2@$00@std@@QAE@U_Zero_then_variadic_args_t@1@@Z PROC ; std::_Compressed_pair<std::allocator<std::_List_node<REWARD_ITEM,void *> >,std::_List_val<std::_List_simple_types<REWARD_ITEM> >,1>::_Compressed_pair<std::allocator<std::_List_node<REWARD_ITEM,void *> >,std::_List_val<std::_List_simple_types<REWARD_ITEM> >,1><>, COMDAT
; _this$ = ecx

; 1336 :         : _Ty1(), _Myval2(_STD forward<_Other2>(_Val2)...) {}

  00000	55		 push	 ebp
  00001	8b ec		 mov	 ebp, esp
  00003	83 ec 44	 sub	 esp, 68			; 00000044H
  00006	53		 push	 ebx
  00007	56		 push	 esi
  00008	57		 push	 edi
  00009	89 4d fc	 mov	 DWORD PTR _this$[ebp], ecx
  0000c	8b 4d fc	 mov	 ecx, DWORD PTR _this$[ebp]
  0000f	e8 00 00 00 00	 call	 ??0?$allocator@U?$_List_node@UREWARD_ITEM@@PAX@std@@@std@@QAE@XZ ; std::allocator<std::_List_node<REWARD_ITEM,void *> >::allocator<std::_List_node<REWARD_ITEM,void *> >
  00014	8b 4d fc	 mov	 ecx, DWORD PTR _this$[ebp]
  00017	e8 00 00 00 00	 call	 ??0?$_List_val@U?$_List_simple_types@UREWARD_ITEM@@@std@@@std@@QAE@XZ ; std::_List_val<std::_List_simple_types<REWARD_ITEM> >::_List_val<std::_List_simple_types<REWARD_ITEM> >
  0001c	8b 45 fc	 mov	 eax, DWORD PTR _this$[ebp]
  0001f	5f		 pop	 edi
  00020	5e		 pop	 esi
  00021	5b		 pop	 ebx
  00022	8b e5		 mov	 esp, ebp
  00024	5d		 pop	 ebp
  00025	c2 04 00	 ret	 4
??$?0$$V@?$_Compressed_pair@V?$allocator@U?$_List_node@UREWARD_ITEM@@PAX@std@@@std@@V?$_List_val@U?$_List_simple_types@UREWARD_ITEM@@@std@@@2@$00@std@@QAE@U_Zero_then_variadic_args_t@1@@Z ENDP ; std::_Compressed_pair<std::allocator<std::_List_node<REWARD_ITEM,void *> >,std::_List_val<std::_List_simple_types<REWARD_ITEM> >,1>::_Compressed_pair<std::allocator<std::_List_node<REWARD_ITEM,void *> >,std::_List_val<std::_List_simple_types<REWARD_ITEM> >,1><>
_TEXT	ENDS
; Function compile flags: /Odtp /ZI
; File C:\Program Files (x86)\Microsoft Visual Studio\2019\Community\VC\Tools\MSVC\14.27.29110\include\xstddef
;	COMDAT ??$addressof@V?$_List_val@U?$_List_simple_types@UREWARD_ITEM@@@std@@@std@@@std@@YAPAV?$_List_val@U?$_List_simple_types@UREWARD_ITEM@@@std@@@0@AAV10@@Z
_TEXT	SEGMENT
__Val$ = 8						; size = 4
??$addressof@V?$_List_val@U?$_List_simple_types@UREWARD_ITEM@@@std@@@std@@@std@@YAPAV?$_List_val@U?$_List_simple_types@UREWARD_ITEM@@@std@@@0@AAV10@@Z PROC ; std::addressof<std::_List_val<std::_List_simple_types<REWARD_ITEM> > >, COMDAT

; 274  : _NODISCARD constexpr _Ty* addressof(_Ty& _Val) noexcept {

  00000	55		 push	 ebp
  00001	8b ec		 mov	 ebp, esp
  00003	83 ec 40	 sub	 esp, 64			; 00000040H
  00006	53		 push	 ebx
  00007	56		 push	 esi
  00008	57		 push	 edi

; 275  :     return __builtin_addressof(_Val);

  00009	8b 45 08	 mov	 eax, DWORD PTR __Val$[ebp]

; 276  : }

  0000c	5f		 pop	 edi
  0000d	5e		 pop	 esi
  0000e	5b		 pop	 ebx
  0000f	8b e5		 mov	 esp, ebp
  00011	5d		 pop	 ebp
  00012	c3		 ret	 0
??$addressof@V?$_List_val@U?$_List_simple_types@UREWARD_ITEM@@@std@@@std@@@std@@YAPAV?$_List_val@U?$_List_simple_types@UREWARD_ITEM@@@std@@@0@AAV10@@Z ENDP ; std::addressof<std::_List_val<std::_List_simple_types<REWARD_ITEM> > >
_TEXT	ENDS
; Function compile flags: /Odtp /ZI
; File C:\Program Files (x86)\Microsoft Visual Studio\2019\Community\VC\Tools\MSVC\14.27.29110\include\list
;	COMDAT ??$_Emplace@ABUREWARD_ITEM@@@?$list@UREWARD_ITEM@@V?$allocator@UREWARD_ITEM@@@std@@@std@@QAEPAU?$_List_node@UREWARD_ITEM@@PAX@1@QAU21@ABUREWARD_ITEM@@@Z
_TEXT	SEGMENT
tv82 = -92						; size = 4
tv80 = -88						; size = 4
$T1 = -84						; size = 4
__Op$ = -16						; size = 8
__Mysize$ = -8						; size = 4
_this$ = -4						; size = 4
__Where$ = 8						; size = 4
_<_Val_0>$ = 12						; size = 4
??$_Emplace@ABUREWARD_ITEM@@@?$list@UREWARD_ITEM@@V?$allocator@UREWARD_ITEM@@@std@@@std@@QAEPAU?$_List_node@UREWARD_ITEM@@PAX@1@QAU21@ABUREWARD_ITEM@@@Z PROC ; std::list<REWARD_ITEM,std::allocator<REWARD_ITEM> >::_Emplace<REWARD_ITEM const &>, COMDAT
; _this$ = ecx

; 1012 :     _Nodeptr _Emplace(const _Nodeptr _Where, _Valty&&... _Val) { // insert element at _Where

  00000	55		 push	 ebp
  00001	8b ec		 mov	 ebp, esp
  00003	83 ec 5c	 sub	 esp, 92			; 0000005cH
  00006	53		 push	 ebx
  00007	56		 push	 esi
  00008	57		 push	 edi
  00009	89 4d fc	 mov	 DWORD PTR _this$[ebp], ecx

; 1013 :         size_type& _Mysize = _Mypair._Myval2._Mysize;

  0000c	8b 45 fc	 mov	 eax, DWORD PTR _this$[ebp]
  0000f	83 c0 04	 add	 eax, 4
  00012	89 45 f8	 mov	 DWORD PTR __Mysize$[ebp], eax

; 1014 :         if (_Mysize == max_size()) {

  00015	8b 4d fc	 mov	 ecx, DWORD PTR _this$[ebp]
  00018	e8 00 00 00 00	 call	 ?max_size@?$list@UREWARD_ITEM@@V?$allocator@UREWARD_ITEM@@@std@@@std@@QBEIXZ ; std::list<REWARD_ITEM,std::allocator<REWARD_ITEM> >::max_size
  0001d	8b 4d f8	 mov	 ecx, DWORD PTR __Mysize$[ebp]
  00020	39 01		 cmp	 DWORD PTR [ecx], eax
  00022	75 0a		 jne	 SHORT $LN2@Emplace

; 1015 :             _Xlength_error("list too long");

  00024	68 00 00 00 00	 push	 OFFSET ??_C@_0O@NKNMEGII@list?5too?5long@
  00029	e8 00 00 00 00	 call	 ?_Xlength_error@std@@YAXPBD@Z ; std::_Xlength_error
$LN2@Emplace:

; 1016 :         }
; 1017 : 
; 1018 :         _List_node_emplace_op2<_Alnode> _Op{_Getal(), _STD forward<_Valty>(_Val)...};

  0002e	8b 4d fc	 mov	 ecx, DWORD PTR _this$[ebp]
  00031	e8 00 00 00 00	 call	 ?_Getal@?$list@UREWARD_ITEM@@V?$allocator@UREWARD_ITEM@@@std@@@std@@AAEAAV?$allocator@U?$_List_node@UREWARD_ITEM@@PAX@std@@@2@XZ ; std::list<REWARD_ITEM,std::allocator<REWARD_ITEM> >::_Getal
  00036	89 45 a8	 mov	 DWORD PTR tv80[ebp], eax
  00039	8b 45 0c	 mov	 eax, DWORD PTR _<_Val_0>$[ebp]
  0003c	50		 push	 eax
  0003d	e8 00 00 00 00	 call	 ??$forward@ABUREWARD_ITEM@@@std@@YAABUREWARD_ITEM@@ABU1@@Z ; std::forward<REWARD_ITEM const &>
  00042	83 c4 04	 add	 esp, 4
  00045	89 45 a4	 mov	 DWORD PTR tv82[ebp], eax
  00048	8b 4d a4	 mov	 ecx, DWORD PTR tv82[ebp]
  0004b	51		 push	 ecx
  0004c	8b 55 a8	 mov	 edx, DWORD PTR tv80[ebp]
  0004f	52		 push	 edx
  00050	8d 4d f0	 lea	 ecx, DWORD PTR __Op$[ebp]
  00053	e8 00 00 00 00	 call	 ??$?0ABUREWARD_ITEM@@@?$_List_node_emplace_op2@V?$allocator@U?$_List_node@UREWARD_ITEM@@PAX@std@@@std@@@std@@QAE@AAV?$allocator@U?$_List_node@UREWARD_ITEM@@PAX@std@@@1@ABUREWARD_ITEM@@@Z ; std::_List_node_emplace_op2<std::allocator<std::_List_node<REWARD_ITEM,void *> > >::_List_node_emplace_op2<std::allocator<std::_List_node<REWARD_ITEM,void *> > ><REWARD_ITEM const &>

; 1019 :         ++_Mysize;

  00058	8b 45 f8	 mov	 eax, DWORD PTR __Mysize$[ebp]
  0005b	8b 08		 mov	 ecx, DWORD PTR [eax]
  0005d	83 c1 01	 add	 ecx, 1
  00060	8b 55 f8	 mov	 edx, DWORD PTR __Mysize$[ebp]
  00063	89 0a		 mov	 DWORD PTR [edx], ecx

; 1020 :         return _Op._Transfer_before(_Where);

  00065	8b 45 08	 mov	 eax, DWORD PTR __Where$[ebp]
  00068	50		 push	 eax
  00069	8d 4d f0	 lea	 ecx, DWORD PTR __Op$[ebp]
  0006c	e8 00 00 00 00	 call	 ?_Transfer_before@?$_List_node_emplace_op2@V?$allocator@U?$_List_node@UREWARD_ITEM@@PAX@std@@@std@@@std@@QAEPAU?$_List_node@UREWARD_ITEM@@PAX@2@QAU32@@Z ; std::_List_node_emplace_op2<std::allocator<std::_List_node<REWARD_ITEM,void *> > >::_Transfer_before
  00071	89 45 ac	 mov	 DWORD PTR $T1[ebp], eax
  00074	8d 4d f0	 lea	 ecx, DWORD PTR __Op$[ebp]
  00077	e8 00 00 00 00	 call	 ??1?$_List_node_emplace_op2@V?$allocator@U?$_List_node@UREWARD_ITEM@@PAX@std@@@std@@@std@@QAE@XZ ; std::_List_node_emplace_op2<std::allocator<std::_List_node<REWARD_ITEM,void *> > >::~_List_node_emplace_op2<std::allocator<std::_List_node<REWARD_ITEM,void *> > >
  0007c	8b 45 ac	 mov	 eax, DWORD PTR $T1[ebp]
$LN3@Emplace:

; 1021 :     }

  0007f	5f		 pop	 edi
  00080	5e		 pop	 esi
  00081	5b		 pop	 ebx
  00082	8b e5		 mov	 esp, ebp
  00084	5d		 pop	 ebp
  00085	c2 08 00	 ret	 8
??$_Emplace@ABUREWARD_ITEM@@@?$list@UREWARD_ITEM@@V?$allocator@UREWARD_ITEM@@@std@@@std@@QAEPAU?$_List_node@UREWARD_ITEM@@PAX@1@QAU21@ABUREWARD_ITEM@@@Z ENDP ; std::list<REWARD_ITEM,std::allocator<REWARD_ITEM> >::_Emplace<REWARD_ITEM const &>
_TEXT	ENDS
; Function compile flags: /Odtp /ZI
; File C:\Program Files (x86)\Microsoft Visual Studio\2019\Community\VC\Tools\MSVC\14.27.29110\include\list
;	COMDAT ??$_Free_non_head@V?$allocator@U?$_List_node@UREWARD_ITEM@@PAX@std@@@std@@@?$_List_node@UREWARD_ITEM@@PAX@std@@SAXAAV?$allocator@U?$_List_node@UREWARD_ITEM@@PAX@std@@@1@PAU01@@Z
_TEXT	SEGMENT
__Pnext$1 = -8						; size = 4
__Pnode$ = -4						; size = 4
__Al$ = 8						; size = 4
__Head$ = 12						; size = 4
??$_Free_non_head@V?$allocator@U?$_List_node@UREWARD_ITEM@@PAX@std@@@std@@@?$_List_node@UREWARD_ITEM@@PAX@std@@SAXAAV?$allocator@U?$_List_node@UREWARD_ITEM@@PAX@std@@@1@PAU01@@Z PROC ; std::_List_node<REWARD_ITEM,void *>::_Free_non_head<std::allocator<std::_List_node<REWARD_ITEM,void *> > >, COMDAT

; 323  :         _Alnode& _Al, _Nodeptr _Head) noexcept { // free a list starting at _First and terminated at nullptr

  00000	55		 push	 ebp
  00001	8b ec		 mov	 ebp, esp
  00003	83 ec 48	 sub	 esp, 72			; 00000048H
  00006	53		 push	 ebx
  00007	56		 push	 esi
  00008	57		 push	 edi

; 324  :         _Head->_Prev->_Next = nullptr;

  00009	8b 45 0c	 mov	 eax, DWORD PTR __Head$[ebp]
  0000c	8b 48 04	 mov	 ecx, DWORD PTR [eax+4]
  0000f	c7 01 00 00 00
	00		 mov	 DWORD PTR [ecx], 0

; 325  : 
; 326  :         auto _Pnode = _Head->_Next;

  00015	8b 45 0c	 mov	 eax, DWORD PTR __Head$[ebp]
  00018	8b 08		 mov	 ecx, DWORD PTR [eax]
  0001a	89 4d fc	 mov	 DWORD PTR __Pnode$[ebp], ecx

; 327  :         for (_Nodeptr _Pnext; _Pnode; _Pnode = _Pnext) {

  0001d	eb 06		 jmp	 SHORT $LN4@Free_non_h
$LN2@Free_non_h:
  0001f	8b 45 f8	 mov	 eax, DWORD PTR __Pnext$1[ebp]
  00022	89 45 fc	 mov	 DWORD PTR __Pnode$[ebp], eax
$LN4@Free_non_h:
  00025	83 7d fc 00	 cmp	 DWORD PTR __Pnode$[ebp], 0
  00029	74 1a		 je	 SHORT $LN5@Free_non_h

; 328  :             _Pnext = _Pnode->_Next;

  0002b	8b 45 fc	 mov	 eax, DWORD PTR __Pnode$[ebp]
  0002e	8b 08		 mov	 ecx, DWORD PTR [eax]
  00030	89 4d f8	 mov	 DWORD PTR __Pnext$1[ebp], ecx

; 329  :             _Freenode(_Al, _Pnode);

  00033	8b 45 fc	 mov	 eax, DWORD PTR __Pnode$[ebp]
  00036	50		 push	 eax
  00037	8b 4d 08	 mov	 ecx, DWORD PTR __Al$[ebp]
  0003a	51		 push	 ecx
  0003b	e8 00 00 00 00	 call	 ??$_Freenode@V?$allocator@U?$_List_node@UREWARD_ITEM@@PAX@std@@@std@@@?$_List_node@UREWARD_ITEM@@PAX@std@@SAXAAV?$allocator@U?$_List_node@UREWARD_ITEM@@PAX@std@@@1@PAU01@@Z ; std::_List_node<REWARD_ITEM,void *>::_Freenode<std::allocator<std::_List_node<REWARD_ITEM,void *> > >
  00040	83 c4 08	 add	 esp, 8

; 330  :         }

  00043	eb da		 jmp	 SHORT $LN2@Free_non_h
$LN5@Free_non_h:

; 331  :     }

  00045	5f		 pop	 edi
  00046	5e		 pop	 esi
  00047	5b		 pop	 ebx
  00048	8b e5		 mov	 esp, ebp
  0004a	5d		 pop	 ebp
  0004b	c3		 ret	 0
??$_Free_non_head@V?$allocator@U?$_List_node@UREWARD_ITEM@@PAX@std@@@std@@@?$_List_node@UREWARD_ITEM@@PAX@std@@SAXAAV?$allocator@U?$_List_node@UREWARD_ITEM@@PAX@std@@@1@PAU01@@Z ENDP ; std::_List_node<REWARD_ITEM,void *>::_Free_non_head<std::allocator<std::_List_node<REWARD_ITEM,void *> > >
_TEXT	ENDS
; Function compile flags: /Odtp /ZI
; File C:\Program Files (x86)\Microsoft Visual Studio\2019\Community\VC\Tools\MSVC\14.27.29110\include\xmemory
;	COMDAT ??$?0$$V@?$_Compressed_pair@V?$allocator@U?$_List_node@UEVENT_TIME@@PAX@std@@@std@@V?$_List_val@U?$_List_simple_types@UEVENT_TIME@@@std@@@2@$00@std@@QAE@U_Zero_then_variadic_args_t@1@@Z
_TEXT	SEGMENT
_this$ = -4						; size = 4
___formal$ = 8						; size = 1
??$?0$$V@?$_Compressed_pair@V?$allocator@U?$_List_node@UEVENT_TIME@@PAX@std@@@std@@V?$_List_val@U?$_List_simple_types@UEVENT_TIME@@@std@@@2@$00@std@@QAE@U_Zero_then_variadic_args_t@1@@Z PROC ; std::_Compressed_pair<std::allocator<std::_List_node<EVENT_TIME,void *> >,std::_List_val<std::_List_simple_types<EVENT_TIME> >,1>::_Compressed_pair<std::allocator<std::_List_node<EVENT_TIME,void *> >,std::_List_val<std::_List_simple_types<EVENT_TIME> >,1><>, COMDAT
; _this$ = ecx

; 1336 :         : _Ty1(), _Myval2(_STD forward<_Other2>(_Val2)...) {}

  00000	55		 push	 ebp
  00001	8b ec		 mov	 ebp, esp
  00003	83 ec 44	 sub	 esp, 68			; 00000044H
  00006	53		 push	 ebx
  00007	56		 push	 esi
  00008	57		 push	 edi
  00009	89 4d fc	 mov	 DWORD PTR _this$[ebp], ecx
  0000c	8b 4d fc	 mov	 ecx, DWORD PTR _this$[ebp]
  0000f	e8 00 00 00 00	 call	 ??0?$allocator@U?$_List_node@UEVENT_TIME@@PAX@std@@@std@@QAE@XZ ; std::allocator<std::_List_node<EVENT_TIME,void *> >::allocator<std::_List_node<EVENT_TIME,void *> >
  00014	8b 4d fc	 mov	 ecx, DWORD PTR _this$[ebp]
  00017	e8 00 00 00 00	 call	 ??0?$_List_val@U?$_List_simple_types@UEVENT_TIME@@@std@@@std@@QAE@XZ ; std::_List_val<std::_List_simple_types<EVENT_TIME> >::_List_val<std::_List_simple_types<EVENT_TIME> >
  0001c	8b 45 fc	 mov	 eax, DWORD PTR _this$[ebp]
  0001f	5f		 pop	 edi
  00020	5e		 pop	 esi
  00021	5b		 pop	 ebx
  00022	8b e5		 mov	 esp, ebp
  00024	5d		 pop	 ebp
  00025	c2 04 00	 ret	 4
??$?0$$V@?$_Compressed_pair@V?$allocator@U?$_List_node@UEVENT_TIME@@PAX@std@@@std@@V?$_List_val@U?$_List_simple_types@UEVENT_TIME@@@std@@@2@$00@std@@QAE@U_Zero_then_variadic_args_t@1@@Z ENDP ; std::_Compressed_pair<std::allocator<std::_List_node<EVENT_TIME,void *> >,std::_List_val<std::_List_simple_types<EVENT_TIME> >,1>::_Compressed_pair<std::allocator<std::_List_node<EVENT_TIME,void *> >,std::_List_val<std::_List_simple_types<EVENT_TIME> >,1><>
_TEXT	ENDS
; Function compile flags: /Odtp /ZI
; File C:\Program Files (x86)\Microsoft Visual Studio\2019\Community\VC\Tools\MSVC\14.27.29110\include\xstddef
;	COMDAT ??$addressof@V?$_List_val@U?$_List_simple_types@UEVENT_TIME@@@std@@@std@@@std@@YAPAV?$_List_val@U?$_List_simple_types@UEVENT_TIME@@@std@@@0@AAV10@@Z
_TEXT	SEGMENT
__Val$ = 8						; size = 4
??$addressof@V?$_List_val@U?$_List_simple_types@UEVENT_TIME@@@std@@@std@@@std@@YAPAV?$_List_val@U?$_List_simple_types@UEVENT_TIME@@@std@@@0@AAV10@@Z PROC ; std::addressof<std::_List_val<std::_List_simple_types<EVENT_TIME> > >, COMDAT

; 274  : _NODISCARD constexpr _Ty* addressof(_Ty& _Val) noexcept {

  00000	55		 push	 ebp
  00001	8b ec		 mov	 ebp, esp
  00003	83 ec 40	 sub	 esp, 64			; 00000040H
  00006	53		 push	 ebx
  00007	56		 push	 esi
  00008	57		 push	 edi

; 275  :     return __builtin_addressof(_Val);

  00009	8b 45 08	 mov	 eax, DWORD PTR __Val$[ebp]

; 276  : }

  0000c	5f		 pop	 edi
  0000d	5e		 pop	 esi
  0000e	5b		 pop	 ebx
  0000f	8b e5		 mov	 esp, ebp
  00011	5d		 pop	 ebp
  00012	c3		 ret	 0
??$addressof@V?$_List_val@U?$_List_simple_types@UEVENT_TIME@@@std@@@std@@@std@@YAPAV?$_List_val@U?$_List_simple_types@UEVENT_TIME@@@std@@@0@AAV10@@Z ENDP ; std::addressof<std::_List_val<std::_List_simple_types<EVENT_TIME> > >
_TEXT	ENDS
; Function compile flags: /Odtp /ZI
; File C:\Program Files (x86)\Microsoft Visual Studio\2019\Community\VC\Tools\MSVC\14.27.29110\include\list
;	COMDAT ??$_Emplace@ABUEVENT_TIME@@@?$list@UEVENT_TIME@@V?$allocator@UEVENT_TIME@@@std@@@std@@QAEPAU?$_List_node@UEVENT_TIME@@PAX@1@QAU21@ABUEVENT_TIME@@@Z
_TEXT	SEGMENT
tv82 = -92						; size = 4
tv80 = -88						; size = 4
$T1 = -84						; size = 4
__Op$ = -16						; size = 8
__Mysize$ = -8						; size = 4
_this$ = -4						; size = 4
__Where$ = 8						; size = 4
_<_Val_0>$ = 12						; size = 4
??$_Emplace@ABUEVENT_TIME@@@?$list@UEVENT_TIME@@V?$allocator@UEVENT_TIME@@@std@@@std@@QAEPAU?$_List_node@UEVENT_TIME@@PAX@1@QAU21@ABUEVENT_TIME@@@Z PROC ; std::list<EVENT_TIME,std::allocator<EVENT_TIME> >::_Emplace<EVENT_TIME const &>, COMDAT
; _this$ = ecx

; 1012 :     _Nodeptr _Emplace(const _Nodeptr _Where, _Valty&&... _Val) { // insert element at _Where

  00000	55		 push	 ebp
  00001	8b ec		 mov	 ebp, esp
  00003	83 ec 5c	 sub	 esp, 92			; 0000005cH
  00006	53		 push	 ebx
  00007	56		 push	 esi
  00008	57		 push	 edi
  00009	89 4d fc	 mov	 DWORD PTR _this$[ebp], ecx

; 1013 :         size_type& _Mysize = _Mypair._Myval2._Mysize;

  0000c	8b 45 fc	 mov	 eax, DWORD PTR _this$[ebp]
  0000f	83 c0 04	 add	 eax, 4
  00012	89 45 f8	 mov	 DWORD PTR __Mysize$[ebp], eax

; 1014 :         if (_Mysize == max_size()) {

  00015	8b 4d fc	 mov	 ecx, DWORD PTR _this$[ebp]
  00018	e8 00 00 00 00	 call	 ?max_size@?$list@UEVENT_TIME@@V?$allocator@UEVENT_TIME@@@std@@@std@@QBEIXZ ; std::list<EVENT_TIME,std::allocator<EVENT_TIME> >::max_size
  0001d	8b 4d f8	 mov	 ecx, DWORD PTR __Mysize$[ebp]
  00020	39 01		 cmp	 DWORD PTR [ecx], eax
  00022	75 0a		 jne	 SHORT $LN2@Emplace

; 1015 :             _Xlength_error("list too long");

  00024	68 00 00 00 00	 push	 OFFSET ??_C@_0O@NKNMEGII@list?5too?5long@
  00029	e8 00 00 00 00	 call	 ?_Xlength_error@std@@YAXPBD@Z ; std::_Xlength_error
$LN2@Emplace:

; 1016 :         }
; 1017 : 
; 1018 :         _List_node_emplace_op2<_Alnode> _Op{_Getal(), _STD forward<_Valty>(_Val)...};

  0002e	8b 4d fc	 mov	 ecx, DWORD PTR _this$[ebp]
  00031	e8 00 00 00 00	 call	 ?_Getal@?$list@UEVENT_TIME@@V?$allocator@UEVENT_TIME@@@std@@@std@@AAEAAV?$allocator@U?$_List_node@UEVENT_TIME@@PAX@std@@@2@XZ ; std::list<EVENT_TIME,std::allocator<EVENT_TIME> >::_Getal
  00036	89 45 a8	 mov	 DWORD PTR tv80[ebp], eax
  00039	8b 45 0c	 mov	 eax, DWORD PTR _<_Val_0>$[ebp]
  0003c	50		 push	 eax
  0003d	e8 00 00 00 00	 call	 ??$forward@ABUEVENT_TIME@@@std@@YAABUEVENT_TIME@@ABU1@@Z ; std::forward<EVENT_TIME const &>
  00042	83 c4 04	 add	 esp, 4
  00045	89 45 a4	 mov	 DWORD PTR tv82[ebp], eax
  00048	8b 4d a4	 mov	 ecx, DWORD PTR tv82[ebp]
  0004b	51		 push	 ecx
  0004c	8b 55 a8	 mov	 edx, DWORD PTR tv80[ebp]
  0004f	52		 push	 edx
  00050	8d 4d f0	 lea	 ecx, DWORD PTR __Op$[ebp]
  00053	e8 00 00 00 00	 call	 ??$?0ABUEVENT_TIME@@@?$_List_node_emplace_op2@V?$allocator@U?$_List_node@UEVENT_TIME@@PAX@std@@@std@@@std@@QAE@AAV?$allocator@U?$_List_node@UEVENT_TIME@@PAX@std@@@1@ABUEVENT_TIME@@@Z ; std::_List_node_emplace_op2<std::allocator<std::_List_node<EVENT_TIME,void *> > >::_List_node_emplace_op2<std::allocator<std::_List_node<EVENT_TIME,void *> > ><EVENT_TIME const &>

; 1019 :         ++_Mysize;

  00058	8b 45 f8	 mov	 eax, DWORD PTR __Mysize$[ebp]
  0005b	8b 08		 mov	 ecx, DWORD PTR [eax]
  0005d	83 c1 01	 add	 ecx, 1
  00060	8b 55 f8	 mov	 edx, DWORD PTR __Mysize$[ebp]
  00063	89 0a		 mov	 DWORD PTR [edx], ecx

; 1020 :         return _Op._Transfer_before(_Where);

  00065	8b 45 08	 mov	 eax, DWORD PTR __Where$[ebp]
  00068	50		 push	 eax
  00069	8d 4d f0	 lea	 ecx, DWORD PTR __Op$[ebp]
  0006c	e8 00 00 00 00	 call	 ?_Transfer_before@?$_List_node_emplace_op2@V?$allocator@U?$_List_node@UEVENT_TIME@@PAX@std@@@std@@@std@@QAEPAU?$_List_node@UEVENT_TIME@@PAX@2@QAU32@@Z ; std::_List_node_emplace_op2<std::allocator<std::_List_node<EVENT_TIME,void *> > >::_Transfer_before
  00071	89 45 ac	 mov	 DWORD PTR $T1[ebp], eax
  00074	8d 4d f0	 lea	 ecx, DWORD PTR __Op$[ebp]
  00077	e8 00 00 00 00	 call	 ??1?$_List_node_emplace_op2@V?$allocator@U?$_List_node@UEVENT_TIME@@PAX@std@@@std@@@std@@QAE@XZ ; std::_List_node_emplace_op2<std::allocator<std::_List_node<EVENT_TIME,void *> > >::~_List_node_emplace_op2<std::allocator<std::_List_node<EVENT_TIME,void *> > >
  0007c	8b 45 ac	 mov	 eax, DWORD PTR $T1[ebp]
$LN3@Emplace:

; 1021 :     }

  0007f	5f		 pop	 edi
  00080	5e		 pop	 esi
  00081	5b		 pop	 ebx
  00082	8b e5		 mov	 esp, ebp
  00084	5d		 pop	 ebp
  00085	c2 08 00	 ret	 8
??$_Emplace@ABUEVENT_TIME@@@?$list@UEVENT_TIME@@V?$allocator@UEVENT_TIME@@@std@@@std@@QAEPAU?$_List_node@UEVENT_TIME@@PAX@1@QAU21@ABUEVENT_TIME@@@Z ENDP ; std::list<EVENT_TIME,std::allocator<EVENT_TIME> >::_Emplace<EVENT_TIME const &>
_TEXT	ENDS
; Function compile flags: /Odtp /ZI
; File C:\Program Files (x86)\Microsoft Visual Studio\2019\Community\VC\Tools\MSVC\14.27.29110\include\list
;	COMDAT ??$_Free_non_head@V?$allocator@U?$_List_node@UEVENT_TIME@@PAX@std@@@std@@@?$_List_node@UEVENT_TIME@@PAX@std@@SAXAAV?$allocator@U?$_List_node@UEVENT_TIME@@PAX@std@@@1@PAU01@@Z
_TEXT	SEGMENT
__Pnext$1 = -8						; size = 4
__Pnode$ = -4						; size = 4
__Al$ = 8						; size = 4
__Head$ = 12						; size = 4
??$_Free_non_head@V?$allocator@U?$_List_node@UEVENT_TIME@@PAX@std@@@std@@@?$_List_node@UEVENT_TIME@@PAX@std@@SAXAAV?$allocator@U?$_List_node@UEVENT_TIME@@PAX@std@@@1@PAU01@@Z PROC ; std::_List_node<EVENT_TIME,void *>::_Free_non_head<std::allocator<std::_List_node<EVENT_TIME,void *> > >, COMDAT

; 323  :         _Alnode& _Al, _Nodeptr _Head) noexcept { // free a list starting at _First and terminated at nullptr

  00000	55		 push	 ebp
  00001	8b ec		 mov	 ebp, esp
  00003	83 ec 48	 sub	 esp, 72			; 00000048H
  00006	53		 push	 ebx
  00007	56		 push	 esi
  00008	57		 push	 edi

; 324  :         _Head->_Prev->_Next = nullptr;

  00009	8b 45 0c	 mov	 eax, DWORD PTR __Head$[ebp]
  0000c	8b 48 04	 mov	 ecx, DWORD PTR [eax+4]
  0000f	c7 01 00 00 00
	00		 mov	 DWORD PTR [ecx], 0

; 325  : 
; 326  :         auto _Pnode = _Head->_Next;

  00015	8b 45 0c	 mov	 eax, DWORD PTR __Head$[ebp]
  00018	8b 08		 mov	 ecx, DWORD PTR [eax]
  0001a	89 4d fc	 mov	 DWORD PTR __Pnode$[ebp], ecx

; 327  :         for (_Nodeptr _Pnext; _Pnode; _Pnode = _Pnext) {

  0001d	eb 06		 jmp	 SHORT $LN4@Free_non_h
$LN2@Free_non_h:
  0001f	8b 45 f8	 mov	 eax, DWORD PTR __Pnext$1[ebp]
  00022	89 45 fc	 mov	 DWORD PTR __Pnode$[ebp], eax
$LN4@Free_non_h:
  00025	83 7d fc 00	 cmp	 DWORD PTR __Pnode$[ebp], 0
  00029	74 1a		 je	 SHORT $LN5@Free_non_h

; 328  :             _Pnext = _Pnode->_Next;

  0002b	8b 45 fc	 mov	 eax, DWORD PTR __Pnode$[ebp]
  0002e	8b 08		 mov	 ecx, DWORD PTR [eax]
  00030	89 4d f8	 mov	 DWORD PTR __Pnext$1[ebp], ecx

; 329  :             _Freenode(_Al, _Pnode);

  00033	8b 45 fc	 mov	 eax, DWORD PTR __Pnode$[ebp]
  00036	50		 push	 eax
  00037	8b 4d 08	 mov	 ecx, DWORD PTR __Al$[ebp]
  0003a	51		 push	 ecx
  0003b	e8 00 00 00 00	 call	 ??$_Freenode@V?$allocator@U?$_List_node@UEVENT_TIME@@PAX@std@@@std@@@?$_List_node@UEVENT_TIME@@PAX@std@@SAXAAV?$allocator@U?$_List_node@UEVENT_TIME@@PAX@std@@@1@PAU01@@Z ; std::_List_node<EVENT_TIME,void *>::_Freenode<std::allocator<std::_List_node<EVENT_TIME,void *> > >
  00040	83 c4 08	 add	 esp, 8

; 330  :         }

  00043	eb da		 jmp	 SHORT $LN2@Free_non_h
$LN5@Free_non_h:

; 331  :     }

  00045	5f		 pop	 edi
  00046	5e		 pop	 esi
  00047	5b		 pop	 ebx
  00048	8b e5		 mov	 esp, ebp
  0004a	5d		 pop	 ebp
  0004b	c3		 ret	 0
??$_Free_non_head@V?$allocator@U?$_List_node@UEVENT_TIME@@PAX@std@@@std@@@?$_List_node@UEVENT_TIME@@PAX@std@@SAXAAV?$allocator@U?$_List_node@UEVENT_TIME@@PAX@std@@@1@PAU01@@Z ENDP ; std::_List_node<EVENT_TIME,void *>::_Free_non_head<std::allocator<std::_List_node<EVENT_TIME,void *> > >
_TEXT	ENDS
; Function compile flags: /Odtp /ZI
;	COMDAT ??0?$_List_iterator@V?$_List_val@U?$_List_simple_types@UREWARD_ITEM@@@std@@@std@@@std@@QAE@PAU?$_List_node@UREWARD_ITEM@@PAX@1@PBV?$_List_val@U?$_List_simple_types@UREWARD_ITEM@@@std@@@1@@Z
_TEXT	SEGMENT
_this$ = -4						; size = 4
___param0$ = 8						; size = 4
___param1$ = 12						; size = 4
??0?$_List_iterator@V?$_List_val@U?$_List_simple_types@UREWARD_ITEM@@@std@@@std@@@std@@QAE@PAU?$_List_node@UREWARD_ITEM@@PAX@1@PBV?$_List_val@U?$_List_simple_types@UREWARD_ITEM@@@std@@@1@@Z PROC ; std::_List_iterator<std::_List_val<std::_List_simple_types<REWARD_ITEM> > >::_List_iterator<std::_List_val<std::_List_simple_types<REWARD_ITEM> > >, COMDAT
; _this$ = ecx
  00000	55		 push	 ebp
  00001	8b ec		 mov	 ebp, esp
  00003	83 ec 44	 sub	 esp, 68			; 00000044H
  00006	53		 push	 ebx
  00007	56		 push	 esi
  00008	57		 push	 edi
  00009	89 4d fc	 mov	 DWORD PTR _this$[ebp], ecx
  0000c	8b 45 0c	 mov	 eax, DWORD PTR ___param1$[ebp]
  0000f	50		 push	 eax
  00010	8b 4d 08	 mov	 ecx, DWORD PTR ___param0$[ebp]
  00013	51		 push	 ecx
  00014	8b 4d fc	 mov	 ecx, DWORD PTR _this$[ebp]
  00017	e8 00 00 00 00	 call	 ??0?$_List_const_iterator@V?$_List_val@U?$_List_simple_types@UREWARD_ITEM@@@std@@@std@@@std@@QAE@PAU?$_List_node@UREWARD_ITEM@@PAX@1@PBV?$_List_val@U?$_List_simple_types@UREWARD_ITEM@@@std@@@1@@Z
  0001c	8b 45 fc	 mov	 eax, DWORD PTR _this$[ebp]
  0001f	5f		 pop	 edi
  00020	5e		 pop	 esi
  00021	5b		 pop	 ebx
  00022	8b e5		 mov	 esp, ebp
  00024	5d		 pop	 ebp
  00025	c2 08 00	 ret	 8
??0?$_List_iterator@V?$_List_val@U?$_List_simple_types@UREWARD_ITEM@@@std@@@std@@@std@@QAE@PAU?$_List_node@UREWARD_ITEM@@PAX@1@PBV?$_List_val@U?$_List_simple_types@UREWARD_ITEM@@@std@@@1@@Z ENDP ; std::_List_iterator<std::_List_val<std::_List_simple_types<REWARD_ITEM> > >::_List_iterator<std::_List_val<std::_List_simple_types<REWARD_ITEM> > >
_TEXT	ENDS
; Function compile flags: /Odtp /ZI
; File C:\Program Files (x86)\Microsoft Visual Studio\2019\Community\VC\Tools\MSVC\14.27.29110\include\list
;	COMDAT ??E?$_List_iterator@V?$_List_val@U?$_List_simple_types@UREWARD_ITEM@@@std@@@std@@@std@@QAEAAV01@XZ
_TEXT	SEGMENT
_this$ = -4						; size = 4
??E?$_List_iterator@V?$_List_val@U?$_List_simple_types@UREWARD_ITEM@@@std@@@std@@@std@@QAEAAV01@XZ PROC ; std::_List_iterator<std::_List_val<std::_List_simple_types<REWARD_ITEM> > >::operator++, COMDAT
; _this$ = ecx

; 246  :     _List_iterator& operator++() {

  00000	55		 push	 ebp
  00001	8b ec		 mov	 ebp, esp
  00003	83 ec 44	 sub	 esp, 68			; 00000044H
  00006	53		 push	 ebx
  00007	56		 push	 esi
  00008	57		 push	 edi
  00009	89 4d fc	 mov	 DWORD PTR _this$[ebp], ecx

; 247  :         _Mybase::operator++();

  0000c	8b 4d fc	 mov	 ecx, DWORD PTR _this$[ebp]
  0000f	e8 00 00 00 00	 call	 ??E?$_List_const_iterator@V?$_List_val@U?$_List_simple_types@UREWARD_ITEM@@@std@@@std@@@std@@QAEAAV01@XZ ; std::_List_const_iterator<std::_List_val<std::_List_simple_types<REWARD_ITEM> > >::operator++

; 248  :         return *this;

  00014	8b 45 fc	 mov	 eax, DWORD PTR _this$[ebp]

; 249  :     }

  00017	5f		 pop	 edi
  00018	5e		 pop	 esi
  00019	5b		 pop	 ebx
  0001a	8b e5		 mov	 esp, ebp
  0001c	5d		 pop	 ebp
  0001d	c3		 ret	 0
??E?$_List_iterator@V?$_List_val@U?$_List_simple_types@UREWARD_ITEM@@@std@@@std@@@std@@QAEAAV01@XZ ENDP ; std::_List_iterator<std::_List_val<std::_List_simple_types<REWARD_ITEM> > >::operator++
_TEXT	ENDS
; Function compile flags: /Odtp /ZI
; File C:\Program Files (x86)\Microsoft Visual Studio\2019\Community\VC\Tools\MSVC\14.27.29110\include\list
;	COMDAT ??D?$_List_iterator@V?$_List_val@U?$_List_simple_types@UREWARD_ITEM@@@std@@@std@@@std@@QBEAAUREWARD_ITEM@@XZ
_TEXT	SEGMENT
_this$ = -4						; size = 4
??D?$_List_iterator@V?$_List_val@U?$_List_simple_types@UREWARD_ITEM@@@std@@@std@@@std@@QBEAAUREWARD_ITEM@@XZ PROC ; std::_List_iterator<std::_List_val<std::_List_simple_types<REWARD_ITEM> > >::operator*, COMDAT
; _this$ = ecx

; 238  :     _NODISCARD reference operator*() const {

  00000	55		 push	 ebp
  00001	8b ec		 mov	 ebp, esp
  00003	83 ec 44	 sub	 esp, 68			; 00000044H
  00006	53		 push	 ebx
  00007	56		 push	 esi
  00008	57		 push	 edi
  00009	89 4d fc	 mov	 DWORD PTR _this$[ebp], ecx

; 239  :         return const_cast<reference>(_Mybase::operator*());

  0000c	8b 4d fc	 mov	 ecx, DWORD PTR _this$[ebp]
  0000f	e8 00 00 00 00	 call	 ??D?$_List_const_iterator@V?$_List_val@U?$_List_simple_types@UREWARD_ITEM@@@std@@@std@@@std@@QBEABUREWARD_ITEM@@XZ ; std::_List_const_iterator<std::_List_val<std::_List_simple_types<REWARD_ITEM> > >::operator*

; 240  :     }

  00014	5f		 pop	 edi
  00015	5e		 pop	 esi
  00016	5b		 pop	 ebx
  00017	8b e5		 mov	 esp, ebp
  00019	5d		 pop	 ebp
  0001a	c3		 ret	 0
??D?$_List_iterator@V?$_List_val@U?$_List_simple_types@UREWARD_ITEM@@@std@@@std@@@std@@QBEAAUREWARD_ITEM@@XZ ENDP ; std::_List_iterator<std::_List_val<std::_List_simple_types<REWARD_ITEM> > >::operator*
_TEXT	ENDS
; Function compile flags: /Odtp /ZI
;	COMDAT ??0?$_List_const_iterator@V?$_List_val@U?$_List_simple_types@UREWARD_ITEM@@@std@@@std@@@std@@QAE@PAU?$_List_node@UREWARD_ITEM@@PAX@1@PBV?$_List_val@U?$_List_simple_types@UREWARD_ITEM@@@std@@@1@@Z
_TEXT	SEGMENT
_this$ = -4						; size = 4
___param0$ = 8						; size = 4
___param1$ = 12						; size = 4
??0?$_List_const_iterator@V?$_List_val@U?$_List_simple_types@UREWARD_ITEM@@@std@@@std@@@std@@QAE@PAU?$_List_node@UREWARD_ITEM@@PAX@1@PBV?$_List_val@U?$_List_simple_types@UREWARD_ITEM@@@std@@@1@@Z PROC ; std::_List_const_iterator<std::_List_val<std::_List_simple_types<REWARD_ITEM> > >::_List_const_iterator<std::_List_val<std::_List_simple_types<REWARD_ITEM> > >, COMDAT
; _this$ = ecx
  00000	55		 push	 ebp
  00001	8b ec		 mov	 ebp, esp
  00003	83 ec 44	 sub	 esp, 68			; 00000044H
  00006	53		 push	 ebx
  00007	56		 push	 esi
  00008	57		 push	 edi
  00009	89 4d fc	 mov	 DWORD PTR _this$[ebp], ecx
  0000c	8b 45 0c	 mov	 eax, DWORD PTR ___param1$[ebp]
  0000f	50		 push	 eax
  00010	8b 4d 08	 mov	 ecx, DWORD PTR ___param0$[ebp]
  00013	51		 push	 ecx
  00014	8b 4d fc	 mov	 ecx, DWORD PTR _this$[ebp]
  00017	e8 00 00 00 00	 call	 ??0?$_List_unchecked_const_iterator@V?$_List_val@U?$_List_simple_types@UREWARD_ITEM@@@std@@@std@@U_Iterator_base0@2@@std@@QAE@PAU?$_List_node@UREWARD_ITEM@@PAX@1@PBV?$_List_val@U?$_List_simple_types@UREWARD_ITEM@@@std@@@1@@Z ; std::_List_unchecked_const_iterator<std::_List_val<std::_List_simple_types<REWARD_ITEM> >,std::_Iterator_base0>::_List_unchecked_const_iterator<std::_List_val<std::_List_simple_types<REWARD_ITEM> >,std::_Iterator_base0>
  0001c	8b 45 fc	 mov	 eax, DWORD PTR _this$[ebp]
  0001f	5f		 pop	 edi
  00020	5e		 pop	 esi
  00021	5b		 pop	 ebx
  00022	8b e5		 mov	 esp, ebp
  00024	5d		 pop	 ebp
  00025	c2 08 00	 ret	 8
??0?$_List_const_iterator@V?$_List_val@U?$_List_simple_types@UREWARD_ITEM@@@std@@@std@@@std@@QAE@PAU?$_List_node@UREWARD_ITEM@@PAX@1@PBV?$_List_val@U?$_List_simple_types@UREWARD_ITEM@@@std@@@1@@Z ENDP ; std::_List_const_iterator<std::_List_val<std::_List_simple_types<REWARD_ITEM> > >::_List_const_iterator<std::_List_val<std::_List_simple_types<REWARD_ITEM> > >
_TEXT	ENDS
; Function compile flags: /Odtp /ZI
; File C:\Program Files (x86)\Microsoft Visual Studio\2019\Community\VC\Tools\MSVC\14.27.29110\include\list
;	COMDAT ??9?$_List_const_iterator@V?$_List_val@U?$_List_simple_types@UREWARD_ITEM@@@std@@@std@@@std@@QBE_NABV01@@Z
_TEXT	SEGMENT
tv69 = -72						; size = 4
_this$ = -4						; size = 4
__Right$ = 8						; size = 4
??9?$_List_const_iterator@V?$_List_val@U?$_List_simple_types@UREWARD_ITEM@@@std@@@std@@@std@@QBE_NABV01@@Z PROC ; std::_List_const_iterator<std::_List_val<std::_List_simple_types<REWARD_ITEM> > >::operator!=, COMDAT
; _this$ = ecx

; 202  :     _NODISCARD bool operator!=(const _List_const_iterator& _Right) const {

  00000	55		 push	 ebp
  00001	8b ec		 mov	 ebp, esp
  00003	83 ec 48	 sub	 esp, 72			; 00000048H
  00006	53		 push	 ebx
  00007	56		 push	 esi
  00008	57		 push	 edi
  00009	89 4d fc	 mov	 DWORD PTR _this$[ebp], ecx

; 203  :         return !(*this == _Right);

  0000c	8b 45 08	 mov	 eax, DWORD PTR __Right$[ebp]
  0000f	50		 push	 eax
  00010	8b 4d fc	 mov	 ecx, DWORD PTR _this$[ebp]
  00013	e8 00 00 00 00	 call	 ??8?$_List_const_iterator@V?$_List_val@U?$_List_simple_types@UREWARD_ITEM@@@std@@@std@@@std@@QBE_NABV01@@Z ; std::_List_const_iterator<std::_List_val<std::_List_simple_types<REWARD_ITEM> > >::operator==
  00018	0f b6 c8	 movzx	 ecx, al
  0001b	85 c9		 test	 ecx, ecx
  0001d	75 09		 jne	 SHORT $LN3@operator
  0001f	c7 45 b8 01 00
	00 00		 mov	 DWORD PTR tv69[ebp], 1
  00026	eb 07		 jmp	 SHORT $LN4@operator
$LN3@operator:
  00028	c7 45 b8 00 00
	00 00		 mov	 DWORD PTR tv69[ebp], 0
$LN4@operator:
  0002f	8a 45 b8	 mov	 al, BYTE PTR tv69[ebp]

; 204  :     }

  00032	5f		 pop	 edi
  00033	5e		 pop	 esi
  00034	5b		 pop	 ebx
  00035	8b e5		 mov	 esp, ebp
  00037	5d		 pop	 ebp
  00038	c2 04 00	 ret	 4
??9?$_List_const_iterator@V?$_List_val@U?$_List_simple_types@UREWARD_ITEM@@@std@@@std@@@std@@QBE_NABV01@@Z ENDP ; std::_List_const_iterator<std::_List_val<std::_List_simple_types<REWARD_ITEM> > >::operator!=
_TEXT	ENDS
; Function compile flags: /Odtp /ZI
; File C:\Program Files (x86)\Microsoft Visual Studio\2019\Community\VC\Tools\MSVC\14.27.29110\include\list
;	COMDAT ??8?$_List_const_iterator@V?$_List_val@U?$_List_simple_types@UREWARD_ITEM@@@std@@@std@@@std@@QBE_NABV01@@Z
_TEXT	SEGMENT
tv75 = -72						; size = 4
_this$ = -4						; size = 4
__Right$ = 8						; size = 4
??8?$_List_const_iterator@V?$_List_val@U?$_List_simple_types@UREWARD_ITEM@@@std@@@std@@@std@@QBE_NABV01@@Z PROC ; std::_List_const_iterator<std::_List_val<std::_List_simple_types<REWARD_ITEM> > >::operator==, COMDAT
; _this$ = ecx

; 194  :     _NODISCARD bool operator==(const _List_const_iterator& _Right) const {

  00000	55		 push	 ebp
  00001	8b ec		 mov	 ebp, esp
  00003	83 ec 48	 sub	 esp, 72			; 00000048H
  00006	53		 push	 ebx
  00007	56		 push	 esi
  00008	57		 push	 edi
  00009	89 4d fc	 mov	 DWORD PTR _this$[ebp], ecx

; 195  : #if _ITERATOR_DEBUG_LEVEL == 2
; 196  :         _STL_VERIFY(this->_Getcont() == _Right._Getcont(), "list iterators incompatible");
; 197  : #endif // _ITERATOR_DEBUG_LEVEL == 2
; 198  : 
; 199  :         return this->_Ptr == _Right._Ptr;

  0000c	8b 45 fc	 mov	 eax, DWORD PTR _this$[ebp]
  0000f	8b 4d 08	 mov	 ecx, DWORD PTR __Right$[ebp]
  00012	8b 10		 mov	 edx, DWORD PTR [eax]
  00014	3b 11		 cmp	 edx, DWORD PTR [ecx]
  00016	75 09		 jne	 SHORT $LN3@operator
  00018	c7 45 b8 01 00
	00 00		 mov	 DWORD PTR tv75[ebp], 1
  0001f	eb 07		 jmp	 SHORT $LN4@operator
$LN3@operator:
  00021	c7 45 b8 00 00
	00 00		 mov	 DWORD PTR tv75[ebp], 0
$LN4@operator:
  00028	8a 45 b8	 mov	 al, BYTE PTR tv75[ebp]

; 200  :     }

  0002b	5f		 pop	 edi
  0002c	5e		 pop	 esi
  0002d	5b		 pop	 ebx
  0002e	8b e5		 mov	 esp, ebp
  00030	5d		 pop	 ebp
  00031	c2 04 00	 ret	 4
??8?$_List_const_iterator@V?$_List_val@U?$_List_simple_types@UREWARD_ITEM@@@std@@@std@@@std@@QBE_NABV01@@Z ENDP ; std::_List_const_iterator<std::_List_val<std::_List_simple_types<REWARD_ITEM> > >::operator==
_TEXT	ENDS
; Function compile flags: /Odtp /ZI
; File C:\Program Files (x86)\Microsoft Visual Studio\2019\Community\VC\Tools\MSVC\14.27.29110\include\list
;	COMDAT ??E?$_List_const_iterator@V?$_List_val@U?$_List_simple_types@UREWARD_ITEM@@@std@@@std@@@std@@QAEAAV01@XZ
_TEXT	SEGMENT
_this$ = -4						; size = 4
??E?$_List_const_iterator@V?$_List_val@U?$_List_simple_types@UREWARD_ITEM@@@std@@@std@@@std@@QAEAAV01@XZ PROC ; std::_List_const_iterator<std::_List_val<std::_List_simple_types<REWARD_ITEM> > >::operator++, COMDAT
; _this$ = ecx

; 159  :     _List_const_iterator& operator++() {

  00000	55		 push	 ebp
  00001	8b ec		 mov	 ebp, esp
  00003	83 ec 44	 sub	 esp, 68			; 00000044H
  00006	53		 push	 ebx
  00007	56		 push	 esi
  00008	57		 push	 edi
  00009	89 4d fc	 mov	 DWORD PTR _this$[ebp], ecx

; 160  : #if _ITERATOR_DEBUG_LEVEL == 2
; 161  :         const auto _Mycont = static_cast<const _Mylist*>(this->_Getcont());
; 162  :         _STL_ASSERT(_Mycont, "cannot increment value-initialized list iterator");
; 163  :         _STL_VERIFY(this->_Ptr != _Mycont->_Myhead, "cannot increment end list iterator");
; 164  : #endif // _ITERATOR_DEBUG_LEVEL == 2
; 165  : 
; 166  :         this->_Ptr = this->_Ptr->_Next;

  0000c	8b 45 fc	 mov	 eax, DWORD PTR _this$[ebp]
  0000f	8b 08		 mov	 ecx, DWORD PTR [eax]
  00011	8b 55 fc	 mov	 edx, DWORD PTR _this$[ebp]
  00014	8b 01		 mov	 eax, DWORD PTR [ecx]
  00016	89 02		 mov	 DWORD PTR [edx], eax

; 167  :         return *this;

  00018	8b 45 fc	 mov	 eax, DWORD PTR _this$[ebp]

; 168  :     }

  0001b	5f		 pop	 edi
  0001c	5e		 pop	 esi
  0001d	5b		 pop	 ebx
  0001e	8b e5		 mov	 esp, ebp
  00020	5d		 pop	 ebp
  00021	c3		 ret	 0
??E?$_List_const_iterator@V?$_List_val@U?$_List_simple_types@UREWARD_ITEM@@@std@@@std@@@std@@QAEAAV01@XZ ENDP ; std::_List_const_iterator<std::_List_val<std::_List_simple_types<REWARD_ITEM> > >::operator++
_TEXT	ENDS
; Function compile flags: /Odtp /ZI
; File C:\Program Files (x86)\Microsoft Visual Studio\2019\Community\VC\Tools\MSVC\14.27.29110\include\list
;	COMDAT ??D?$_List_const_iterator@V?$_List_val@U?$_List_simple_types@UREWARD_ITEM@@@std@@@std@@@std@@QBEABUREWARD_ITEM@@XZ
_TEXT	SEGMENT
_this$ = -4						; size = 4
??D?$_List_const_iterator@V?$_List_val@U?$_List_simple_types@UREWARD_ITEM@@@std@@@std@@@std@@QBEABUREWARD_ITEM@@XZ PROC ; std::_List_const_iterator<std::_List_val<std::_List_simple_types<REWARD_ITEM> > >::operator*, COMDAT
; _this$ = ecx

; 145  :     _NODISCARD reference operator*() const {

