; Listing generated by Microsoft (R) Optimizing Compiler Version 19.27.29111.0 

	TITLE	C:\Mu Online\Mu-GS-Webzen-MC-10093\GameServer\Gamemain.cpp
	.686P
	.XMM
	include listing.inc
	.model	flat

INCLUDELIB LIBCMT
INCLUDELIB OLDNAMES

PUBLIC	?JoinServerPort@@3HA				; JoinServerPort
PUBLIC	?GameServerPort@@3HA				; GameServerPort
PUBLIC	?DataServerPort@@3HA				; DataServerPort
PUBLIC	?JoinServerConnected@@3HA			; JoinServerConnected
PUBLIC	?DataServerConnected@@3HA			; DataServerConnected
PUBLIC	?gConnectBonus@@3HA				; gConnectBonus
PUBLIC	?gConnectBonusTime@@3HA				; gConnectBonusTime
PUBLIC	?gConnectBonusCashPoints@@3HA			; gConnectBonusCashPoints
PUBLIC	?DataServerPort2@@3HA				; DataServerPort2
PUBLIC	?ExDbPort@@3HA					; ExDbPort
PUBLIC	?DevilSquareEventConnect@@3HA			; DevilSquareEventConnect
PUBLIC	?IsDevilSquareEventConnected@@3HA		; IsDevilSquareEventConnected
PUBLIC	?EventChipServerConnect@@3HA			; EventChipServerConnect
PUBLIC	?IsEventChipServerConnected@@3HA		; IsEventChipServerConnected
PUBLIC	?gGameServerCode@@3FA				; gGameServerCode
PUBLIC	?SpeedHackPlayerBlock@@3HA			; SpeedHackPlayerBlock
PUBLIC	?bCanTrade@@3HA					; bCanTrade
PUBLIC	?bCanChaosBox@@3HA				; bCanChaosBox
PUBLIC	?gChaosEvent@@3HA				; gChaosEvent
PUBLIC	?bCanConnectMember@@3HA				; bCanConnectMember
PUBLIC	?bCanWarehouseLock@@3HA				; bCanWarehouseLock
PUBLIC	?gPkTime@@3HA					; gPkTime
PUBLIC	?gEvent1@@3HA					; gEvent1
PUBLIC	?gMerryXMasNpcEvent@@3HA			; gMerryXMasNpcEvent
PUBLIC	?gHappyNewYearNpcEvent@@3HA			; gHappyNewYearNpcEvent
PUBLIC	?gEvent1ItemDropTodayCount@@3HA			; gEvent1ItemDropTodayCount
PUBLIC	?gEvent1ItemDropTodayMax@@3HA			; gEvent1ItemDropTodayMax
PUBLIC	?gEvent1ItemDropTodayPercent@@3HA		; gEvent1ItemDropTodayPercent
PUBLIC	?dwgCheckSum@@3PAKA				; dwgCheckSum
PUBLIC	?MapC@@3PAVMapClass@@A				; MapC
PUBLIC	?gLevelExperience@@3PAKA			; gLevelExperience
PUBLIC	?gItemNumberCount@@3KA				; gItemNumberCount
PUBLIC	?szClientVersion@@3PADA				; szClientVersion
PUBLIC	?szServerName@@3PADA				; szServerName
PUBLIC	?szGameServerExeSerial@@3PADA			; szGameServerExeSerial
PUBLIC	?gLootingTime@@3HA				; gLootingTime
PUBLIC	?gPkItemDrop@@3HA				; gPkItemDrop
PUBLIC	?gItemDropPer@@3HA				; gItemDropPer
PUBLIC	?gCharacterDeleteMinLevel@@3HA			; gCharacterDeleteMinLevel
PUBLIC	?gCreateCharacter@@3HA				; gCreateCharacter
PUBLIC	?gGuildCreate@@3HA				; gGuildCreate
PUBLIC	?gGuildDestroy@@3HA				; gGuildDestroy
PUBLIC	?gGuildCreateLevel@@3HA				; gGuildCreateLevel
PUBLIC	?g_bCastleGuildDestoyLimit@@3HA			; g_bCastleGuildDestoyLimit
PUBLIC	?gItemSerialCheck@@3HA				; gItemSerialCheck
PUBLIC	?gAddExperience@@3MA				; gAddExperience
PUBLIC	?gAttackEventRegenTime@@3KA			; gAttackEventRegenTime
PUBLIC	?gLanguage@@3HA					; gLanguage
PUBLIC	?gNonPK@@3HA					; gNonPK
PUBLIC	?gYear@@3HA					; gYear
PUBLIC	?gAddZen@@3MA					; gAddZen
PUBLIC	?gPkLimitFree@@3HA				; gPkLimitFree
PUBLIC	?gXMasEvent@@3HA				; gXMasEvent
PUBLIC	?g_XMasEvent_StarOfXMasDropRate@@3HA		; g_XMasEvent_StarOfXMasDropRate
PUBLIC	?g_XMasEvent_ItemDropRateForStarOfXMas@@3HA	; g_XMasEvent_ItemDropRateForStarOfXMas
PUBLIC	?gFireCrackerEvent@@3HA				; gFireCrackerEvent
PUBLIC	?gFireCrackerDropRate@@3HA			; gFireCrackerDropRate
PUBLIC	?g_ItemDropRateForgFireCracker@@3HA		; g_ItemDropRateForgFireCracker
PUBLIC	?gOnlyFireCrackerEffectUse@@3HA			; gOnlyFireCrackerEffectUse
PUBLIC	?gHeartOfLoveEvent@@3HA				; gHeartOfLoveEvent
PUBLIC	?gHeartOfLoveDropRate@@3HA			; gHeartOfLoveDropRate
PUBLIC	?g_ItemDropRateForgHeartOfLove@@3HA		; g_ItemDropRateForgHeartOfLove
PUBLIC	?gMedalEvent@@3HA				; gMedalEvent
PUBLIC	?gGoldMedalDropRate@@3HA			; gGoldMedalDropRate
PUBLIC	?gSilverMedalDropRate@@3HA			; gSilverMedalDropRate
PUBLIC	?g_ItemDropRateForGoldMedal@@3HA		; g_ItemDropRateForGoldMedal
PUBLIC	?g_ItemDropRateForSilverMedal@@3HA		; g_ItemDropRateForSilverMedal
PUBLIC	?gEventChipEvent@@3HA				; gEventChipEvent
PUBLIC	?gBoxOfGoldDropRate@@3HA			; gBoxOfGoldDropRate
PUBLIC	?g_ItemDropRateForBoxOfGold@@3HA		; g_ItemDropRateForBoxOfGold
PUBLIC	?g_EventChipDropRateForBoxOfGold@@3HA		; g_EventChipDropRateForBoxOfGold
PUBLIC	?gApplyHeroSystem@@3HA				; gApplyHeroSystem
PUBLIC	?gSpeedHackPenalty@@3HA				; gSpeedHackPenalty
PUBLIC	?gDevilSquareEvent@@3HA				; gDevilSquareEvent
PUBLIC	?gEyesOfDevilSquareDropRate@@3HA		; gEyesOfDevilSquareDropRate
PUBLIC	?gKeyOfDevilSquareDropRate@@3HA			; gKeyOfDevilSquareDropRate
PUBLIC	?gDQChaosSuccessRateLevel1@@3HA			; gDQChaosSuccessRateLevel1
PUBLIC	?gDQChaosSuccessRateLevel2@@3HA			; gDQChaosSuccessRateLevel2
PUBLIC	?gDQChaosSuccessRateLevel3@@3HA			; gDQChaosSuccessRateLevel3
PUBLIC	?gDQChaosSuccessRateLevel4@@3HA			; gDQChaosSuccessRateLevel4
PUBLIC	?g_bBloodCastle@@3HA				; g_bBloodCastle
PUBLIC	?g_iBloodCastle_StartHour@@3HA			; g_iBloodCastle_StartHour
PUBLIC	?g_bStoneItemDrop@@3HA				; g_bStoneItemDrop
PUBLIC	?g_iStoneDropRate@@3HA				; g_iStoneDropRate
PUBLIC	?g_iAngelKingsPaperDropRate@@3HA		; g_iAngelKingsPaperDropRate
PUBLIC	?g_iBloodBoneDropRate@@3HA			; g_iBloodBoneDropRate
PUBLIC	?g_bChaosCastle@@3HA				; g_bChaosCastle
PUBLIC	?g_bDoRingEvent@@3HA				; g_bDoRingEvent
PUBLIC	?g_iRingOrcKillGiftRate@@3HA			; g_iRingOrcKillGiftRate
PUBLIC	?g_iRingDropGiftRate@@3HA			; g_iRingDropGiftRate
PUBLIC	?g_bEventManagerOn@@3HA				; g_bEventManagerOn
PUBLIC	?g_iKundunMarkDropRate@@3HA			; g_iKundunMarkDropRate
PUBLIC	?g_iDarkLordHeartDropRate@@3HA			; g_iDarkLordHeartDropRate
PUBLIC	?g_iDarkLordHeartOffEventRate@@3HA		; g_iDarkLordHeartOffEventRate
PUBLIC	?gZenDurationTime@@3HA				; gZenDurationTime
PUBLIC	?gDevilSquareEventServerIp@@3PADA		; gDevilSquareEventServerIp
PUBLIC	?gEventChipServerIp@@3PADA			; gEventChipServerIp
PUBLIC	?gHackLogServerIp@@3PADA			; gHackLogServerIp
PUBLIC	?gAttackSpeedTimeLimit@@3KA			; gAttackSpeedTimeLimit
PUBLIC	?bIsIgnorePacketSpeedHackDetect@@3HA		; bIsIgnorePacketSpeedHackDetect
PUBLIC	?gHackCheckCount@@3KA				; gHackCheckCount
PUBLIC	?gDecTimePerAttackSpeed@@3MA			; gDecTimePerAttackSpeed
PUBLIC	?gMinimumAttackSpeedTime@@3HA			; gMinimumAttackSpeedTime
PUBLIC	?gDetectedHackKickCount@@3HA			; gDetectedHackKickCount
PUBLIC	?gIsKickDetecHackCountLimit@@3HA		; gIsKickDetecHackCountLimit
PUBLIC	?gQuestNPCTeleportTime@@3HA			; gQuestNPCTeleportTime
PUBLIC	?gEnableBattleSoccer@@3HA			; gEnableBattleSoccer
PUBLIC	?gEnableEventNPCTalk@@3HA			; gEnableEventNPCTalk
PUBLIC	?gIsItemDropRingOfTransform@@3HA		; gIsItemDropRingOfTransform
PUBLIC	?gItemDropRingOfTransform@@3HA			; gItemDropRingOfTransform
PUBLIC	?gEnableServerDivision@@3HA			; gEnableServerDivision
PUBLIC	?gIsEledoradoEvent@@3HA				; gIsEledoradoEvent
PUBLIC	?gEledoradoGoldGoblenRegenTime@@3KA		; gEledoradoGoldGoblenRegenTime
PUBLIC	?gEledoradoTitanRegenTime@@3KA			; gEledoradoTitanRegenTime
PUBLIC	?gEledoradoGoldDerconRegenTime@@3KA		; gEledoradoGoldDerconRegenTime
PUBLIC	?gEledoradoDevilLizardKingRegenTime@@3KA	; gEledoradoDevilLizardKingRegenTime
PUBLIC	?gEledoradoDevilTantarosRegenTime@@3KA		; gEledoradoDevilTantarosRegenTime
PUBLIC	?gEledoradoGoldGoblenItemDropRate@@3HA		; gEledoradoGoldGoblenItemDropRate
PUBLIC	?gEledoradoTitanItemDropRate@@3HA		; gEledoradoTitanItemDropRate
PUBLIC	?gEledoradoGoldDerconItemDropRate@@3HA		; gEledoradoGoldDerconItemDropRate
PUBLIC	?gEledoradoDevilLizardKingItemDropRate@@3HA	; gEledoradoDevilLizardKingItemDropRate
PUBLIC	?gEledoradoDevilTantarosItemDropRate@@3HA	; gEledoradoDevilTantarosItemDropRate
PUBLIC	?gEledoradoGoldGoblenExItemDropRate@@3HA	; gEledoradoGoldGoblenExItemDropRate
PUBLIC	?gEledoradoTitanExItemDropRate@@3HA		; gEledoradoTitanExItemDropRate
PUBLIC	?gEledoradoGoldDerconExItemDropRate@@3HA	; gEledoradoGoldDerconExItemDropRate
PUBLIC	?gEledoradoDevilLizardKingExItemDropRate@@3HA	; gEledoradoDevilLizardKingExItemDropRate
PUBLIC	?gEledoradoDevilTantarosExItemDropRate@@3HA	; gEledoradoDevilTantarosExItemDropRate
PUBLIC	?gWriteChatLog@@3HA				; gWriteChatLog
PUBLIC	?gDisconnectHackUser@@3HA			; gDisconnectHackUser
PUBLIC	?gWriteSkillLog@@3HA				; gWriteSkillLog
PUBLIC	?gUseNPGGChecksum@@3HA				; gUseNPGGChecksum
PUBLIC	?gDoPShopOpen@@3HA				; gDoPShopOpen
PUBLIC	?gEnableCheckPenetrationSkill@@3HA		; gEnableCheckPenetrationSkill
PUBLIC	?giKundunRefillHPSec@@3HA			; giKundunRefillHPSec
PUBLIC	?giKundunRefillHP@@3HA				; giKundunRefillHP
PUBLIC	?giKundunRefillHPTime@@3HA			; giKundunRefillHPTime
PUBLIC	?gIsDropDarkLordItem@@3HA			; gIsDropDarkLordItem
PUBLIC	?gSleeveOfLordDropRate@@3HA			; gSleeveOfLordDropRate
PUBLIC	?gSleeveOfLordDropLevel@@3HA			; gSleeveOfLordDropLevel
PUBLIC	?gSoulOfDarkHorseDropRate@@3HA			; gSoulOfDarkHorseDropRate
PUBLIC	?gSoulOfDarkHorseropLevel@@3HA			; gSoulOfDarkHorseropLevel
PUBLIC	?gSoulOfDarkSpiritDropRate@@3HA			; gSoulOfDarkSpiritDropRate
PUBLIC	?gSoulOfDarkSpiritDropLevel@@3HA		; gSoulOfDarkSpiritDropLevel
PUBLIC	?gDarkSpiritAddExperience@@3MA			; gDarkSpiritAddExperience
PUBLIC	?g_iSkillDistanceCheck@@3HA			; g_iSkillDistanceCheck
PUBLIC	?g_iSkillDistanceCheckTemp@@3HA			; g_iSkillDistanceCheckTemp
PUBLIC	?g_iSkillDistanceKick@@3HA			; g_iSkillDistanceKick
PUBLIC	?g_iSkillDistanceKickCount@@3HA			; g_iSkillDistanceKickCount
PUBLIC	?g_iSkillDiatanceKickCheckTime@@3HA		; g_iSkillDiatanceKickCheckTime
PUBLIC	?g_ShadowPahtomMaxLevel@@3HA			; g_ShadowPahtomMaxLevel
PUBLIC	?g_bCheckSpeedHack@@3HA				; g_bCheckSpeedHack
PUBLIC	?g_szMapName@@3PAY0CA@DA			; g_szMapName
PUBLIC	?szGameServerVersion@@3PADA			; szGameServerVersion
PUBLIC	??_C@_07GPEENMPM@1?400?492@			; `string'
PUBLIC	?GameServerCreated@@3HA				; GameServerCreated
PUBLIC	?DragonEvent@@3PAVCDragonEvent@@A		; DragonEvent
PUBLIC	?AttackEvent@@3PAVCAttackEvent@@A		; AttackEvent
PUBLIC	?LuckboxItemBag@@3PAVCItemBag@@A		; LuckboxItemBag
PUBLIC	?Mon55@@3PAVCItemBag@@A				; Mon55
PUBLIC	?Mon53@@3PAVCItemBag@@A				; Mon53
PUBLIC	?StarOfXMasItemBag@@3PAVCItemBagEx@@A		; StarOfXMasItemBag
PUBLIC	?FireCrackerItemBag@@3PAVCItemBag@@A		; FireCrackerItemBag
PUBLIC	?HeartOfLoveItemBag@@3PAVCItemBag@@A		; HeartOfLoveItemBag
PUBLIC	?GoldMedalItemBag@@3PAVCItemBag@@A		; GoldMedalItemBag
PUBLIC	?SilverMedalItemBag@@3PAVCItemBag@@A		; SilverMedalItemBag
PUBLIC	?EventChipItemBag@@3PAVCItemBag@@A		; EventChipItemBag
PUBLIC	?GoldGoblenItemBag@@3PAVCItemBag@@A		; GoldGoblenItemBag
PUBLIC	?TitanItemBag@@3PAVCItemBag@@A			; TitanItemBag
PUBLIC	?GoldDerconItemBag@@3PAVCItemBag@@A		; GoldDerconItemBag
PUBLIC	?DevilLizardKingItemBag@@3PAVCItemBag@@A	; DevilLizardKingItemBag
PUBLIC	?KanturItemBag@@3PAVCItemBag@@A			; KanturItemBag
PUBLIC	?RingEventItemBag@@3PAVCItemBag@@A		; RingEventItemBag
PUBLIC	?FriendShipItemBag@@3PAVCItemBag@@A		; FriendShipItemBag
PUBLIC	?DarkLordHeartItemBag@@3PAVCItemBag@@A		; DarkLordHeartItemBag
PUBLIC	?KundunEventItemBag@@3PAVCItemBagEx@@A		; KundunEventItemBag
PUBLIC	?szKorItemTextFileName@@3PADA			; szKorItemTextFileName
PUBLIC	?szKorSkillTextFileName@@3PADA			; szKorSkillTextFileName
PUBLIC	?szItemTextFileName@@3PADA			; szItemTextFileName
PUBLIC	?szSkillTextFileName@@3PADA			; szSkillTextFileName
PUBLIC	?szQuestTextFileName@@3PADA			; szQuestTextFileName
PUBLIC	?szMoveReqFileName@@3PADA			; szMoveReqFileName
PUBLIC	?szCommonlocIniFileName@@3PADA			; szCommonlocIniFileName
PUBLIC	?connectserverip@@3PADA				; connectserverip
PUBLIC	?connectserverport@@3HA				; connectserverport
PUBLIC	?gMonsterHp@@3HA				; gMonsterHp
PUBLIC	?gCountryName@@3PADA				; gCountryName
PUBLIC	?gChaosEventServerIp@@3PADA			; gChaosEventServerIp
PUBLIC	?gStalkProtocolId@@3PADA			; gStalkProtocolId
PUBLIC	?gStalkProtocol@@3HA				; gStalkProtocol
PUBLIC	?gConnectBonusCredits@@3HA			; gConnectBonusCredits
PUBLIC	?gConnectBonusZen@@3HA				; gConnectBonusZen
PUBLIC	?gConnectHackIPBlockTime@@3HA			; gConnectHackIPBlockTime
PUBLIC	?gConnectIntervalTime@@3HA			; gConnectIntervalTime
PUBLIC	?gConnectRenewBlockTime@@3HA			; gConnectRenewBlockTime
PUBLIC	?GSInfoSendFlag@@3HA				; GSInfoSendFlag
_BSS	SEGMENT
?JoinServerPort@@3HA DD 01H DUP (?)			; JoinServerPort
?GameServerPort@@3HA DD 01H DUP (?)			; GameServerPort
?DataServerPort@@3HA DD 01H DUP (?)			; DataServerPort
?JoinServerConnected@@3HA DD 01H DUP (?)		; JoinServerConnected
?DataServerConnected@@3HA DD 01H DUP (?)		; DataServerConnected
?gConnectBonus@@3HA DD 01H DUP (?)			; gConnectBonus
?gConnectBonusTime@@3HA DD 01H DUP (?)			; gConnectBonusTime
?gConnectBonusCashPoints@@3HA DD 01H DUP (?)		; gConnectBonusCashPoints
?DataServerPort2@@3HA DD 01H DUP (?)			; DataServerPort2
?ExDbPort@@3HA DD 01H DUP (?)				; ExDbPort
?DevilSquareEventConnect@@3HA DD 01H DUP (?)		; DevilSquareEventConnect
?IsDevilSquareEventConnected@@3HA DD 01H DUP (?)	; IsDevilSquareEventConnected
?EventChipServerConnect@@3HA DD 01H DUP (?)		; EventChipServerConnect
?IsEventChipServerConnected@@3HA DD 01H DUP (?)		; IsEventChipServerConnected
?gGameServerCode@@3FA DW 01H DUP (?)			; gGameServerCode
	ALIGN	4

?SpeedHackPlayerBlock@@3HA DD 01H DUP (?)		; SpeedHackPlayerBlock
?gChaosEvent@@3HA DD 01H DUP (?)			; gChaosEvent
?bCanConnectMember@@3HA DD 01H DUP (?)			; bCanConnectMember
?gPkTime@@3HA DD 01H DUP (?)				; gPkTime
?gEvent1@@3HA DD 01H DUP (?)				; gEvent1
?gMerryXMasNpcEvent@@3HA DD 01H DUP (?)			; gMerryXMasNpcEvent
?gHappyNewYearNpcEvent@@3HA DD 01H DUP (?)		; gHappyNewYearNpcEvent
?gEvent1ItemDropTodayCount@@3HA DD 01H DUP (?)		; gEvent1ItemDropTodayCount
?dwgCheckSum@@3PAKA DD 0400H DUP (?)			; dwgCheckSum
?MapC@@3PAVMapClass@@A DD 01H DUP (?)			; MapC
?gLevelExperience@@3PAKA DD 0191H DUP (?)		; gLevelExperience
?gItemNumberCount@@3KA DD 01H DUP (?)			; gItemNumberCount
?szServerName@@3PADA DB 033H DUP (?)			; szServerName
	ALIGN	4

?szGameServerExeSerial@@3PADA DB 015H DUP (?)		; szGameServerExeSerial
	ALIGN	4

?g_bCastleGuildDestoyLimit@@3HA DD 01H DUP (?)		; g_bCastleGuildDestoyLimit
?gAttackEventRegenTime@@3KA DD 01H DUP (?)		; gAttackEventRegenTime
?gLanguage@@3HA DD 01H DUP (?)				; gLanguage
?gNonPK@@3HA DD	01H DUP (?)				; gNonPK
?gYear@@3HA DD	01H DUP (?)				; gYear
?gPkLimitFree@@3HA DD 01H DUP (?)			; gPkLimitFree
?gXMasEvent@@3HA DD 01H DUP (?)				; gXMasEvent
?gFireCrackerEvent@@3HA DD 01H DUP (?)			; gFireCrackerEvent
?gOnlyFireCrackerEffectUse@@3HA DD 01H DUP (?)		; gOnlyFireCrackerEffectUse
?gHeartOfLoveEvent@@3HA DD 01H DUP (?)			; gHeartOfLoveEvent
?gMedalEvent@@3HA DD 01H DUP (?)			; gMedalEvent
?gEventChipEvent@@3HA DD 01H DUP (?)			; gEventChipEvent
?gApplyHeroSystem@@3HA DD 01H DUP (?)			; gApplyHeroSystem
?gSpeedHackPenalty@@3HA DD 01H DUP (?)			; gSpeedHackPenalty
?gDevilSquareEvent@@3HA DD 01H DUP (?)			; gDevilSquareEvent
?g_bStoneItemDrop@@3HA DD 01H DUP (?)			; g_bStoneItemDrop
?g_bDoRingEvent@@3HA DD 01H DUP (?)			; g_bDoRingEvent
?g_iRingOrcKillGiftRate@@3HA DD 01H DUP (?)		; g_iRingOrcKillGiftRate
?g_iRingDropGiftRate@@3HA DD 01H DUP (?)		; g_iRingDropGiftRate
?g_bEventManagerOn@@3HA DD 01H DUP (?)			; g_bEventManagerOn
?g_iKundunMarkDropRate@@3HA DD 01H DUP (?)		; g_iKundunMarkDropRate
?g_iDarkLordHeartDropRate@@3HA DD 01H DUP (?)		; g_iDarkLordHeartDropRate
?g_iDarkLordHeartOffEventRate@@3HA DD 01H DUP (?)	; g_iDarkLordHeartOffEventRate
?gDevilSquareEventServerIp@@3PADA DB 014H DUP (?)	; gDevilSquareEventServerIp
?gEventChipServerIp@@3PADA DB 014H DUP (?)		; gEventChipServerIp
?gHackLogServerIp@@3PADA DB 014H DUP (?)		; gHackLogServerIp
?bIsIgnorePacketSpeedHackDetect@@3HA DD 01H DUP (?)	; bIsIgnorePacketSpeedHackDetect
?gIsKickDetecHackCountLimit@@3HA DD 01H DUP (?)		; gIsKickDetecHackCountLimit
?gEnableEventNPCTalk@@3HA DD 01H DUP (?)		; gEnableEventNPCTalk
?gIsItemDropRingOfTransform@@3HA DD 01H DUP (?)		; gIsItemDropRingOfTransform
?gEnableServerDivision@@3HA DD 01H DUP (?)		; gEnableServerDivision
?gIsEledoradoEvent@@3HA DD 01H DUP (?)			; gIsEledoradoEvent
?gEledoradoGoldGoblenItemDropRate@@3HA DD 01H DUP (?)	; gEledoradoGoldGoblenItemDropRate
?gEledoradoTitanItemDropRate@@3HA DD 01H DUP (?)	; gEledoradoTitanItemDropRate
?gEledoradoGoldDerconItemDropRate@@3HA DD 01H DUP (?)	; gEledoradoGoldDerconItemDropRate
?gEledoradoDevilLizardKingItemDropRate@@3HA DD 01H DUP (?) ; gEledoradoDevilLizardKingItemDropRate
?gEledoradoDevilTantarosItemDropRate@@3HA DD 01H DUP (?) ; gEledoradoDevilTantarosItemDropRate
?gEledoradoGoldGoblenExItemDropRate@@3HA DD 01H DUP (?)	; gEledoradoGoldGoblenExItemDropRate
?gEledoradoTitanExItemDropRate@@3HA DD 01H DUP (?)	; gEledoradoTitanExItemDropRate
?gEledoradoGoldDerconExItemDropRate@@3HA DD 01H DUP (?)	; gEledoradoGoldDerconExItemDropRate
?gEledoradoDevilLizardKingExItemDropRate@@3HA DD 01H DUP (?) ; gEledoradoDevilLizardKingExItemDropRate
?gEledoradoDevilTantarosExItemDropRate@@3HA DD 01H DUP (?) ; gEledoradoDevilTantarosExItemDropRate
?gWriteChatLog@@3HA DD 01H DUP (?)			; gWriteChatLog
?gDisconnectHackUser@@3HA DD 01H DUP (?)		; gDisconnectHackUser
?gWriteSkillLog@@3HA DD 01H DUP (?)			; gWriteSkillLog
?gUseNPGGChecksum@@3HA DD 01H DUP (?)			; gUseNPGGChecksum
?gDoPShopOpen@@3HA DD 01H DUP (?)			; gDoPShopOpen
?giKundunRefillHPSec@@3HA DD 01H DUP (?)		; giKundunRefillHPSec
?giKundunRefillHP@@3HA DD 01H DUP (?)			; giKundunRefillHP
?giKundunRefillHPTime@@3HA DD 01H DUP (?)		; giKundunRefillHPTime
?gIsDropDarkLordItem@@3HA DD 01H DUP (?)		; gIsDropDarkLordItem
?gSleeveOfLordDropRate@@3HA DD 01H DUP (?)		; gSleeveOfLordDropRate
?gSleeveOfLordDropLevel@@3HA DD 01H DUP (?)		; gSleeveOfLordDropLevel
?gSoulOfDarkHorseDropRate@@3HA DD 01H DUP (?)		; gSoulOfDarkHorseDropRate
?gSoulOfDarkHorseropLevel@@3HA DD 01H DUP (?)		; gSoulOfDarkHorseropLevel
?gSoulOfDarkSpiritDropRate@@3HA DD 01H DUP (?)		; gSoulOfDarkSpiritDropRate
?gSoulOfDarkSpiritDropLevel@@3HA DD 01H DUP (?)		; gSoulOfDarkSpiritDropLevel
?gDarkSpiritAddExperience@@3MA DD 01H DUP (?)		; gDarkSpiritAddExperience
?g_iSkillDistanceCheck@@3HA DD 01H DUP (?)		; g_iSkillDistanceCheck
?g_iSkillDistanceCheckTemp@@3HA DD 01H DUP (?)		; g_iSkillDistanceCheckTemp
?g_iSkillDistanceKick@@3HA DD 01H DUP (?)		; g_iSkillDistanceKick
?g_iSkillDistanceKickCount@@3HA DD 01H DUP (?)		; g_iSkillDistanceKickCount
?g_iSkillDiatanceKickCheckTime@@3HA DD 01H DUP (?)	; g_iSkillDiatanceKickCheckTime
?GameServerCreated@@3HA DD 01H DUP (?)			; GameServerCreated
?DragonEvent@@3PAVCDragonEvent@@A DD 01H DUP (?)	; DragonEvent
?AttackEvent@@3PAVCAttackEvent@@A DD 01H DUP (?)	; AttackEvent
?LuckboxItemBag@@3PAVCItemBag@@A DD 01H DUP (?)		; LuckboxItemBag
?Mon55@@3PAVCItemBag@@A DD 01H DUP (?)			; Mon55
?Mon53@@3PAVCItemBag@@A DD 01H DUP (?)			; Mon53
?StarOfXMasItemBag@@3PAVCItemBagEx@@A DD 01H DUP (?)	; StarOfXMasItemBag
?FireCrackerItemBag@@3PAVCItemBag@@A DD 01H DUP (?)	; FireCrackerItemBag
?HeartOfLoveItemBag@@3PAVCItemBag@@A DD 01H DUP (?)	; HeartOfLoveItemBag
?GoldMedalItemBag@@3PAVCItemBag@@A DD 01H DUP (?)	; GoldMedalItemBag
?SilverMedalItemBag@@3PAVCItemBag@@A DD 01H DUP (?)	; SilverMedalItemBag
?EventChipItemBag@@3PAVCItemBag@@A DD 01H DUP (?)	; EventChipItemBag
?GoldGoblenItemBag@@3PAVCItemBag@@A DD 01H DUP (?)	; GoldGoblenItemBag
?TitanItemBag@@3PAVCItemBag@@A DD 01H DUP (?)		; TitanItemBag
?GoldDerconItemBag@@3PAVCItemBag@@A DD 01H DUP (?)	; GoldDerconItemBag
?DevilLizardKingItemBag@@3PAVCItemBag@@A DD 01H DUP (?)	; DevilLizardKingItemBag
?KanturItemBag@@3PAVCItemBag@@A DD 01H DUP (?)		; KanturItemBag
?RingEventItemBag@@3PAVCItemBag@@A DD 01H DUP (?)	; RingEventItemBag
?FriendShipItemBag@@3PAVCItemBag@@A DD 01H DUP (?)	; FriendShipItemBag
?DarkLordHeartItemBag@@3PAVCItemBag@@A DD 01H DUP (?)	; DarkLordHeartItemBag
?KundunEventItemBag@@3PAVCItemBagEx@@A DD 01H DUP (?)	; KundunEventItemBag
?szKorItemTextFileName@@3PADA DB 0100H DUP (?)		; szKorItemTextFileName
?szKorSkillTextFileName@@3PADA DB 0100H DUP (?)		; szKorSkillTextFileName
?szItemTextFileName@@3PADA DB 0100H DUP (?)		; szItemTextFileName
?szSkillTextFileName@@3PADA DB 0100H DUP (?)		; szSkillTextFileName
?szQuestTextFileName@@3PADA DB 0100H DUP (?)		; szQuestTextFileName
?szMoveReqFileName@@3PADA DB 0ffH DUP (?)		; szMoveReqFileName
	ALIGN	4

?szCommonlocIniFileName@@3PADA DB 0100H DUP (?)		; szCommonlocIniFileName
?connectserverip@@3PADA DB 014H DUP (?)			; connectserverip
?connectserverport@@3HA DD 01H DUP (?)			; connectserverport
?gMonsterHp@@3HA DD 01H DUP (?)				; gMonsterHp
?gChaosEventServerIp@@3PADA DB 014H DUP (?)		; gChaosEventServerIp
?gStalkProtocolId@@3PADA DB 0bH DUP (?)			; gStalkProtocolId
	ALIGN	4

?gStalkProtocol@@3HA DD 01H DUP (?)			; gStalkProtocol
?gConnectBonusCredits@@3HA DD 01H DUP (?)		; gConnectBonusCredits
?gConnectBonusZen@@3HA DD 01H DUP (?)			; gConnectBonusZen
?gConnectHackIPBlockTime@@3HA DD 01H DUP (?)		; gConnectHackIPBlockTime
?gConnectIntervalTime@@3HA DD 01H DUP (?)		; gConnectIntervalTime
?gConnectRenewBlockTime@@3HA DD 01H DUP (?)		; gConnectRenewBlockTime
?GSInfoSendFlag@@3HA DD 01H DUP (?)			; GSInfoSendFlag
_BSS	ENDS
;	COMDAT ??_C@_07GPEENMPM@1?400?492@
CONST	SEGMENT
??_C@_07GPEENMPM@1?400?492@ DB '1.00.92', 00H		; `string'
CONST	ENDS
_DATA	SEGMENT
?bCanTrade@@3HA DD 01H					; bCanTrade
?bCanChaosBox@@3HA DD 01H				; bCanChaosBox
?bCanWarehouseLock@@3HA DD 01H				; bCanWarehouseLock
?gEvent1ItemDropTodayMax@@3HA DD 01H			; gEvent1ItemDropTodayMax
?gEvent1ItemDropTodayPercent@@3HA DD 0989680H		; gEvent1ItemDropTodayPercent
?szClientVersion@@3PADA DB 030H				; szClientVersion
	DB	030H
	DB	030H
	DB	030H
	DB	030H
	ORG $+3
?gLootingTime@@3HA DD 03H				; gLootingTime
?gPkItemDrop@@3HA DD 01H				; gPkItemDrop
?gItemDropPer@@3HA DD 0aH				; gItemDropPer
?gCharacterDeleteMinLevel@@3HA DD 028H			; gCharacterDeleteMinLevel
?gCreateCharacter@@3HA DD 01H				; gCreateCharacter
?gGuildCreate@@3HA DD 01H				; gGuildCreate
?gGuildDestroy@@3HA DD 01H				; gGuildDestroy
?gGuildCreateLevel@@3HA DD 064H				; gGuildCreateLevel
?gItemSerialCheck@@3HA DD 01H				; gItemSerialCheck
?gAddExperience@@3MA DD 03f800000r		; 1	; gAddExperience
?gAddZen@@3MA DD 03f800000r			; 1	; gAddZen
?g_XMasEvent_StarOfXMasDropRate@@3HA DD 01388H		; g_XMasEvent_StarOfXMasDropRate
?g_XMasEvent_ItemDropRateForStarOfXMas@@3HA DD 02H	; g_XMasEvent_ItemDropRateForStarOfXMas
?gFireCrackerDropRate@@3HA DD 01388H			; gFireCrackerDropRate
?g_ItemDropRateForgFireCracker@@3HA DD 02H		; g_ItemDropRateForgFireCracker
?gHeartOfLoveDropRate@@3HA DD 01388H			; gHeartOfLoveDropRate
?g_ItemDropRateForgHeartOfLove@@3HA DD 02H		; g_ItemDropRateForgHeartOfLove
?gGoldMedalDropRate@@3HA DD 02H				; gGoldMedalDropRate
?gSilverMedalDropRate@@3HA DD 02H			; gSilverMedalDropRate
?g_ItemDropRateForGoldMedal@@3HA DD 02H			; g_ItemDropRateForGoldMedal
?g_ItemDropRateForSilverMedal@@3HA DD 02H		; g_ItemDropRateForSilverMedal
?gBoxOfGoldDropRate@@3HA DD 02H				; gBoxOfGoldDropRate
?g_ItemDropRateForBoxOfGold@@3HA DD 02H			; g_ItemDropRateForBoxOfGold
?g_EventChipDropRateForBoxOfGold@@3HA DD 032H		; g_EventChipDropRateForBoxOfGold
?gEyesOfDevilSquareDropRate@@3HA DD 02H			; gEyesOfDevilSquareDropRate
?gKeyOfDevilSquareDropRate@@3HA DD 03H			; gKeyOfDevilSquareDropRate
?gDQChaosSuccessRateLevel1@@3HA DD 028H			; gDQChaosSuccessRateLevel1
?gDQChaosSuccessRateLevel2@@3HA DD 028H			; gDQChaosSuccessRateLevel2
?gDQChaosSuccessRateLevel3@@3HA DD 01eH			; gDQChaosSuccessRateLevel3
?gDQChaosSuccessRateLevel4@@3HA DD 01eH			; gDQChaosSuccessRateLevel4
?g_bBloodCastle@@3HA DD 01H				; g_bBloodCastle
?g_iBloodCastle_StartHour@@3HA DD 01H			; g_iBloodCastle_StartHour
?g_iStoneDropRate@@3HA DD 032H				; g_iStoneDropRate
?g_iAngelKingsPaperDropRate@@3HA DD 0aH			; g_iAngelKingsPaperDropRate
?g_iBloodBoneDropRate@@3HA DD 014H			; g_iBloodBoneDropRate
?g_bChaosCastle@@3HA DD 01H				; g_bChaosCastle
?gZenDurationTime@@3HA DD 01eH				; gZenDurationTime
?gAttackSpeedTimeLimit@@3KA DD 01f4H			; gAttackSpeedTimeLimit
?gHackCheckCount@@3KA DD 05H				; gHackCheckCount
?gDecTimePerAttackSpeed@@3MA DD 040aa8f5cr	; 5.33	; gDecTimePerAttackSpeed
?gMinimumAttackSpeedTime@@3HA DD 0c8H			; gMinimumAttackSpeedTime
?gDetectedHackKickCount@@3HA DD 0aH			; gDetectedHackKickCount
?gQuestNPCTeleportTime@@3HA DD 03cH			; gQuestNPCTeleportTime
?gEnableBattleSoccer@@3HA DD 01H			; gEnableBattleSoccer
?gItemDropRingOfTransform@@3HA DD 01H			; gItemDropRingOfTransform
?gEledoradoGoldGoblenRegenTime@@3KA DD 03cH		; gEledoradoGoldGoblenRegenTime
?gEledoradoTitanRegenTime@@3KA DD 03cH			; gEledoradoTitanRegenTime
?gEledoradoGoldDerconRegenTime@@3KA DD 0f0H		; gEledoradoGoldDerconRegenTime
?gEledoradoDevilLizardKingRegenTime@@3KA DD 078H	; gEledoradoDevilLizardKingRegenTime
?gEledoradoDevilTantarosRegenTime@@3KA DD 078H		; gEledoradoDevilTantarosRegenTime
?gEnableCheckPenetrationSkill@@3HA DD 01H		; gEnableCheckPenetrationSkill
?g_ShadowPahtomMaxLevel@@3HA DD 0dcH			; g_ShadowPahtomMaxLevel
?g_bCheckSpeedHack@@3HA DD 01H				; g_bCheckSpeedHack
?g_szMapName@@3PAY0CA@DA DB 0b7H, 0ceH, 0b7H, 0a3H, 0bdH, 0c3H, 0beH, 0c6H
	DB	00H						; g_szMapName
	ORG $+23
	DB	0b4H, 0f8H, 0c0H, 0fcH, 00H
	ORG $+27
	DB	0b5H, 0a5H, 0baH, 0f1H, 0beH, 0c6H, 0bdH, 0baH, 00H
	ORG $+23
	DB	0b3H, 0ebH, 0b8H, 0aeH, 0beH, 0c6H, 00H
	ORG $+25
	DB	0b7H, 0ceH, 0bdH, 0baH, 0c6H, 0aeH, ' ', 0c5H, 0b8H, 0bfH
	DB	0f6H, 00H
	ORG $+20
	DB	0b7H, 0ceH, 0bdH, 0baH, 0c6H, 0aeH, ' ', 0c5H, 0b8H, 0bfH
	DB	0f6H, 00H
	ORG $+20
	DB	0b0H, 0e6H, 0b1H, 0e2H, 0c0H, 0e5H, 00H
	ORG $+25
	DB	0beH, 0c6H, 0c6H, 0b2H, 0b6H, 0f5H, 0bdH, 0baH, 00H
	ORG $+23
	DB	0c5H, 0b8H, 0b8H, 0a3H, 0c4H, 0adH, 00H
	ORG $+25
	DB	0b5H, 0a5H, 0baH, 0f4H, 0bdH, 0baH, 0c4H, 0f9H, 0beH, 0eeH
	DB	00H
	ORG $+21
	DB	0c0H, 0ccH, 0c4H, 0abH, 0b7H, 0e7H, 0bdH, 0baH, 00H
	ORG $+23
	DB	0baH, 0edH, 0b7H, 0afH, 0b5H, 0e5H, 0c4H, 0b3H, 0bdH, 0bdH
	DB	'1', 00H
	ORG $+20
	DB	0baH, 0edH, 0b7H, 0afH, 0b5H, 0e5H, 0c4H, 0b3H, 0bdH, 0bdH
	DB	'2', 00H
	ORG $+20
	DB	0baH, 0edH, 0b7H, 0afH, 0b5H, 0e5H, 0c4H, 0b3H, 0bdH, 0bdH
	DB	'3', 00H
	ORG $+20
	DB	0baH, 0edH, 0b7H, 0afH, 0b5H, 0e5H, 0c4H, 0b3H, 0bdH, 0bdH
	DB	'4', 00H
	ORG $+20
	DB	0baH, 0edH, 0b7H, 0afH, 0b5H, 0e5H, 0c4H, 0b3H, 0bdH, 0bdH
	DB	'5', 00H
	ORG $+20
	DB	0baH, 0edH, 0b7H, 0afH, 0b5H, 0e5H, 0c4H, 0b3H, 0bdH, 0bdH
	DB	'6', 00H
	ORG $+20
	ORG $+416
?szGameServerVersion@@3PADA DD FLAT:??_C@_07GPEENMPM@1?400?492@ ; szGameServerVersion
?gCountryName@@3PADA DB 'Kor', 00H			; gCountryName
	ORG $+16
_DATA	ENDS
PUBLIC	?__empty_global_delete@@YAXPAX@Z		; __empty_global_delete
PUBLIC	?__empty_global_delete@@YAXPAXI@Z		; __empty_global_delete
PUBLIC	?_Alloc_proxy@_Container_base0@std@@QAEXABU_Fake_allocator@2@@Z ; std::_Container_base0::_Alloc_proxy
PUBLIC	?_Adopt@_Iterator_base0@std@@QAEXPBX@Z		; std::_Iterator_base0::_Adopt
PUBLIC	?assign@?$_Narrow_char_traits@DH@std@@SAXAADABD@Z ; std::_Narrow_char_traits<char,int>::assign
PUBLIC	??0?$allocator@D@std@@QAE@XZ			; std::allocator<char>::allocator<char>
PUBLIC	??0?$_String_val@U?$_Simple_types@D@std@@@std@@QAE@XZ ; std::_String_val<std::_Simple_types<char> >::_String_val<std::_Simple_types<char> >
PUBLIC	??0_Bxty@?$_String_val@U?$_Simple_types@D@std@@@std@@QAE@XZ ; std::_String_val<std::_Simple_types<char> >::_Bxty::_Bxty
PUBLIC	??0?$basic_string@DU?$char_traits@D@std@@V?$allocator@D@2@@std@@QAE@XZ ; std::basic_string<char,std::char_traits<char>,std::allocator<char> >::basic_string<char,std::char_traits<char>,std::allocator<char> >
PUBLIC	?_Tidy_init@?$basic_string@DU?$char_traits@D@std@@V?$allocator@D@2@@std@@AAEXXZ ; std::basic_string<char,std::char_traits<char>,std::allocator<char> >::_Tidy_init
PUBLIC	?set@PBMSG_HEAD@@QAEXPAEEE@Z			; PBMSG_HEAD::set
PUBLIC	??R?$less@H@std@@QBE_NABH0@Z			; std::less<int>::operator()
PUBLIC	?Size@CTerrainManager@@QAE?BHXZ			; CTerrainManager::Size
PUBLIC	?GetTerrainName@CTerrainManager@@QAEPADH@Z	; CTerrainManager::GetTerrainName
PUBLIC	?CheckTerrain@CTerrainManager@@QAE_NH@Z		; CTerrainManager::CheckTerrain
PUBLIC	?end@?$_Tree@V?$_Tmap_traits@HU_TERRAIN_INFO@@U?$less@H@std@@V?$allocator@U?$pair@$$CBHU_TERRAIN_INFO@@@std@@@3@$0A@@std@@@std@@QAE?AV?$_Tree_iterator@V?$_Tree_val@U?$_Tree_simple_types@U?$pair@$$CBHU_TERRAIN_INFO@@@std@@@std@@@std@@@2@XZ ; std::_Tree<std::_Tmap_traits<int,_TERRAIN_INFO,std::less<int>,std::allocator<std::pair<int const ,_TERRAIN_INFO> >,0> >::end
PUBLIC	?find@?$_Tree@V?$_Tmap_traits@HU_TERRAIN_INFO@@U?$less@H@std@@V?$allocator@U?$pair@$$CBHU_TERRAIN_INFO@@@std@@@3@$0A@@std@@@std@@QAE?AV?$_Tree_iterator@V?$_Tree_val@U?$_Tree_simple_types@U?$pair@$$CBHU_TERRAIN_INFO@@@std@@@std@@@std@@@2@ABH@Z ; std::_Tree<std::_Tmap_traits<int,_TERRAIN_INFO,std::less<int>,std::allocator<std::pair<int const ,_TERRAIN_INFO> >,0> >::find
PUBLIC	?_Getcomp@?$_Tree@V?$_Tmap_traits@HU_TERRAIN_INFO@@U?$less@H@std@@V?$allocator@U?$pair@$$CBHU_TERRAIN_INFO@@@std@@@3@$0A@@std@@@std@@IBEABU?$less@H@2@XZ ; std::_Tree<std::_Tmap_traits<int,_TERRAIN_INFO,std::less<int>,std::allocator<std::pair<int const ,_TERRAIN_INFO> >,0> >::_Getcomp
PUBLIC	?_Get_scary@?$_Tree@V?$_Tmap_traits@HU_TERRAIN_INFO@@U?$less@H@std@@V?$allocator@U?$pair@$$CBHU_TERRAIN_INFO@@@std@@@3@$0A@@std@@@std@@IAEPAV?$_Tree_val@U?$_Tree_simple_types@U?$pair@$$CBHU_TERRAIN_INFO@@@std@@@std@@@2@XZ ; std::_Tree<std::_Tmap_traits<int,_TERRAIN_INFO,std::less<int>,std::allocator<std::pair<int const ,_TERRAIN_INFO> >,0> >::_Get_scary
PUBLIC	?_Get_scary@?$_Tree@V?$_Tmap_traits@HU_TERRAIN_INFO@@U?$less@H@std@@V?$allocator@U?$pair@$$CBHU_TERRAIN_INFO@@@std@@@3@$0A@@std@@@std@@IBEPBV?$_Tree_val@U?$_Tree_simple_types@U?$pair@$$CBHU_TERRAIN_INFO@@@std@@@std@@@2@XZ ; std::_Tree<std::_Tmap_traits<int,_TERRAIN_INFO,std::less<int>,std::allocator<std::pair<int const ,_TERRAIN_INFO> >,0> >::_Get_scary
PUBLIC	?_Get_first@?$_Compressed_pair@U?$less@H@std@@V?$_Compressed_pair@V?$allocator@U?$_Tree_node@U?$pair@$$CBHU_TERRAIN_INFO@@@std@@PAX@std@@@std@@V?$_Tree_val@U?$_Tree_simple_types@U?$pair@$$CBHU_TERRAIN_INFO@@@std@@@std@@@2@$00@2@$00@std@@QBEABU?$less@H@2@XZ ; std::_Compressed_pair<std::less<int>,std::_Compressed_pair<std::allocator<std::_Tree_node<std::pair<int const ,_TERRAIN_INFO>,void *> >,std::_Tree_val<std::_Tree_simple_types<std::pair<int const ,_TERRAIN_INFO> > >,1>,1>::_Get_first
PUBLIC	??0?$_Tree_unchecked_const_iterator@V?$_Tree_val@U?$_Tree_simple_types@U?$pair@$$CBHU_TERRAIN_INFO@@@std@@@std@@@std@@U_Iterator_base0@2@@std@@QAE@PAU?$_Tree_node@U?$pair@$$CBHU_TERRAIN_INFO@@@std@@PAX@1@PBV?$_Tree_val@U?$_Tree_simple_types@U?$pair@$$CBHU_TERRAIN_INFO@@@std@@@std@@@1@@Z ; std::_Tree_unchecked_const_iterator<std::_Tree_val<std::_Tree_simple_types<std::pair<int const ,_TERRAIN_INFO> > >,std::_Iterator_base0>::_Tree_unchecked_const_iterator<std::_Tree_val<std::_Tree_simple_types<std::pair<int const ,_TERRAIN_INFO> > >,std::_Iterator_base0>
PUBLIC	??D?$_Tree_const_iterator@V?$_Tree_val@U?$_Tree_simple_types@U?$pair@$$CBHU_TERRAIN_INFO@@@std@@@std@@@std@@@std@@QBEABU?$pair@$$CBHU_TERRAIN_INFO@@@1@XZ ; std::_Tree_const_iterator<std::_Tree_val<std::_Tree_simple_types<std::pair<int const ,_TERRAIN_INFO> > > >::operator*
PUBLIC	??8?$_Tree_const_iterator@V?$_Tree_val@U?$_Tree_simple_types@U?$pair@$$CBHU_TERRAIN_INFO@@@std@@@std@@@std@@@std@@QBE_NABV01@@Z ; std::_Tree_const_iterator<std::_Tree_val<std::_Tree_simple_types<std::pair<int const ,_TERRAIN_INFO> > > >::operator==
PUBLIC	??0?$_Tree_const_iterator@V?$_Tree_val@U?$_Tree_simple_types@U?$pair@$$CBHU_TERRAIN_INFO@@@std@@@std@@@std@@@std@@QAE@PAU?$_Tree_node@U?$pair@$$CBHU_TERRAIN_INFO@@@std@@PAX@1@PBV?$_Tree_val@U?$_Tree_simple_types@U?$pair@$$CBHU_TERRAIN_INFO@@@std@@@std@@@1@@Z ; std::_Tree_const_iterator<std::_Tree_val<std::_Tree_simple_types<std::pair<int const ,_TERRAIN_INFO> > > >::_Tree_const_iterator<std::_Tree_val<std::_Tree_simple_types<std::pair<int const ,_TERRAIN_INFO> > > >
PUBLIC	??D?$_Tree_iterator@V?$_Tree_val@U?$_Tree_simple_types@U?$pair@$$CBHU_TERRAIN_INFO@@@std@@@std@@@std@@@std@@QBEAAU?$pair@$$CBHU_TERRAIN_INFO@@@1@XZ ; std::_Tree_iterator<std::_Tree_val<std::_Tree_simple_types<std::pair<int const ,_TERRAIN_INFO> > > >::operator*
PUBLIC	??C?$_Tree_iterator@V?$_Tree_val@U?$_Tree_simple_types@U?$pair@$$CBHU_TERRAIN_INFO@@@std@@@std@@@std@@@std@@QBEPAU?$pair@$$CBHU_TERRAIN_INFO@@@1@XZ ; std::_Tree_iterator<std::_Tree_val<std::_Tree_simple_types<std::pair<int const ,_TERRAIN_INFO> > > >::operator->
PUBLIC	??0?$_Tree_iterator@V?$_Tree_val@U?$_Tree_simple_types@U?$pair@$$CBHU_TERRAIN_INFO@@@std@@@std@@@std@@@std@@QAE@PAU?$_Tree_node@U?$pair@$$CBHU_TERRAIN_INFO@@@std@@PAX@1@PBV?$_Tree_val@U?$_Tree_simple_types@U?$pair@$$CBHU_TERRAIN_INFO@@@std@@@std@@@1@@Z ; std::_Tree_iterator<std::_Tree_val<std::_Tree_simple_types<std::pair<int const ,_TERRAIN_INFO> > > >::_Tree_iterator<std::_Tree_val<std::_Tree_simple_types<std::pair<int const ,_TERRAIN_INFO> > > >
PUBLIC	??0_CDBCon@@QAE@XZ				; _CDBCon::_CDBCon
PUBLIC	??0CSettings@@QAE@XZ				; CSettings::CSettings
PUBLIC	?pointer_to@?$pointer_traits@PAU?$pair@$$CBHU_TERRAIN_INFO@@@std@@@std@@SAPAU?$pair@$$CBHU_TERRAIN_INFO@@@2@AAU32@@Z ; std::pointer_traits<std::pair<int const ,_TERRAIN_INFO> *>::pointer_to
PUBLIC	??$_Find@H@?$_Tree@V?$_Tmap_traits@HU_TERRAIN_INFO@@U?$less@H@std@@V?$allocator@U?$pair@$$CBHU_TERRAIN_INFO@@@std@@@3@$0A@@std@@@std@@ABEPAU?$_Tree_node@U?$pair@$$CBHU_TERRAIN_INFO@@@std@@PAX@1@ABH@Z ; std::_Tree<std::_Tmap_traits<int,_TERRAIN_INFO,std::less<int>,std::allocator<std::pair<int const ,_TERRAIN_INFO> >,0> >::_Find<int>
PUBLIC	??$?0$$V@?$_Compressed_pair@V?$allocator@D@std@@V?$_String_val@U?$_Simple_types@D@std@@@2@$00@std@@QAE@U_Zero_then_variadic_args_t@1@@Z ; std::_Compressed_pair<std::allocator<char>,std::_String_val<std::_Simple_types<char> >,1>::_Compressed_pair<std::allocator<char>,std::_String_val<std::_Simple_types<char> >,1><>
PUBLIC	??$addressof@U?$pair@$$CBHU_TERRAIN_INFO@@@std@@@std@@YAPAU?$pair@$$CBHU_TERRAIN_INFO@@@0@AAU10@@Z ; std::addressof<std::pair<int const ,_TERRAIN_INFO> >
PUBLIC	??$addressof@V?$_Tree_val@U?$_Tree_simple_types@U?$pair@$$CBHU_TERRAIN_INFO@@@std@@@std@@@std@@@std@@YAPAV?$_Tree_val@U?$_Tree_simple_types@U?$pair@$$CBHU_TERRAIN_INFO@@@std@@@std@@@0@AAV10@@Z ; std::addressof<std::_Tree_val<std::_Tree_simple_types<std::pair<int const ,_TERRAIN_INFO> > > >
PUBLIC	??$_Find_lower_bound@H@?$_Tree@V?$_Tmap_traits@HU_TERRAIN_INFO@@U?$less@H@std@@V?$allocator@U?$pair@$$CBHU_TERRAIN_INFO@@@std@@@3@$0A@@std@@@std@@IBE?AU?$_Tree_find_result@PAU?$_Tree_node@U?$pair@$$CBHU_TERRAIN_INFO@@@std@@PAX@std@@@1@ABH@Z ; std::_Tree<std::_Tmap_traits<int,_TERRAIN_INFO,std::less<int>,std::allocator<std::pair<int const ,_TERRAIN_INFO> >,0> >::_Find_lower_bound<int>
PUBLIC	??$_Lower_bound_duplicate@H@?$_Tree@V?$_Tmap_traits@HU_TERRAIN_INFO@@U?$less@H@std@@V?$allocator@U?$pair@$$CBHU_TERRAIN_INFO@@@std@@@3@$0A@@std@@@std@@IBE_NQAU?$_Tree_node@U?$pair@$$CBHU_TERRAIN_INFO@@@std@@PAX@1@ABH@Z ; std::_Tree<std::_Tmap_traits<int,_TERRAIN_INFO,std::less<int>,std::allocator<std::pair<int const ,_TERRAIN_INFO> >,0> >::_Lower_bound_duplicate<int>
PUBLIC	??$addressof@$$CBV?$_Tree_val@U?$_Tree_simple_types@U?$pair@$$CBHU_TERRAIN_INFO@@@std@@@std@@@std@@@std@@YAPBV?$_Tree_val@U?$_Tree_simple_types@U?$pair@$$CBHU_TERRAIN_INFO@@@std@@@std@@@0@ABV10@@Z ; std::addressof<std::_Tree_val<std::_Tree_simple_types<std::pair<int const ,_TERRAIN_INFO> > > const >
PUBLIC	??$_Kfn@$$CBHU_TERRAIN_INFO@@@?$_Tmap_traits@HU_TERRAIN_INFO@@U?$less@H@std@@V?$allocator@U?$pair@$$CBHU_TERRAIN_INFO@@@std@@@3@$0A@@std@@SAABHABU?$pair@$$CBHU_TERRAIN_INFO@@@1@@Z ; std::_Tmap_traits<int,_TERRAIN_INFO,std::less<int>,std::allocator<std::pair<int const ,_TERRAIN_INFO> >,0>::_Kfn<int const ,_TERRAIN_INFO>
PUBLIC	??_EMapClass@@UAEPAXI@Z				; MapClass::`vector deleting destructor'
PUBLIC	?gSetDate@@YAXXZ				; gSetDate
PUBLIC	?GameMainInit@@YAXPAUHWND__@@@Z			; GameMainInit
PUBLIC	?GameMainFree@@YAXXZ				; GameMainFree
PUBLIC	?GameMainServerCreate@@YAHKK@Z			; GameMainServerCreate
PUBLIC	?GMJoinServerConnect@@YAHPADK@Z			; GMJoinServerConnect
PUBLIC	?GMRankingServerConnect@@YAHPADK@Z		; GMRankingServerConnect
PUBLIC	?GMEventChipServerConnect@@YAHPADK@Z		; GMEventChipServerConnect
PUBLIC	?GMServerMsgProc@@YAXIJ@Z			; GMServerMsgProc
PUBLIC	?GMClientMsgProc@@YAXIJ@Z			; GMClientMsgProc
PUBLIC	?GMDataClientMsgProc@@YAXIJ@Z			; GMDataClientMsgProc
PUBLIC	?GMJoinClientMsgProc@@YAXIJ@Z			; GMJoinClientMsgProc
PUBLIC	?ExDataServerConnect@@YAHPADK@Z			; ExDataServerConnect
PUBLIC	?ExDataClientMsgProc@@YAXIJ@Z			; ExDataClientMsgProc
PUBLIC	?GMRankingClientMsgProc@@YAXIJ@Z		; GMRankingClientMsgProc
PUBLIC	?GMEventChipClientMsgProc@@YAXIJ@Z		; GMEventChipClientMsgProc
PUBLIC	?GameMonsterAllCloseAndReLoad@@YAXXZ		; GameMonsterAllCloseAndReLoad
PUBLIC	?GMDataServerConnect@@YAHPADK@Z			; GMDataServerConnect
PUBLIC	?GameServerInfoSend@@YAXXZ			; GameServerInfoSend
PUBLIC	?ReadCommonServerInfo@@YAXXZ			; ReadCommonServerInfo
PUBLIC	?gJoomin15Check@@YAHPAD@Z			; gJoomin15Check
PUBLIC	?gJoominCheck@@YAHPADH@Z			; gJoominCheck
PUBLIC	?GetWarehouseUsedHowMuch@@YAHHH@Z		; GetWarehouseUsedHowMuch
PUBLIC	?GameServerInfoSendStop@@YAXXZ			; GameServerInfoSendStop
PUBLIC	?GameServerInfoSendStart@@YAXXZ			; GameServerInfoSendStart
PUBLIC	?ReadGameEtcInfo@@YAXW4MU_ETC_TYPE@@@Z		; ReadGameEtcInfo
PUBLIC	?ReadEventInfo@@YAXW4MU_EVENT_TYPE@@@Z		; ReadEventInfo
PUBLIC	?GameMonsterAllAdd@@YAXXZ			; GameMonsterAllAdd
PUBLIC	?ReadServerInfo@@YAXXZ				; ReadServerInfo
PUBLIC	?CheckSumFileLoad@@YAXPAD@Z			; CheckSumFileLoad
PUBLIC	?LoadItemBag@@YAXXZ				; LoadItemBag
PUBLIC	?SetMapName@@YAXXZ				; SetMapName
PUBLIC	?GraphPaint@@YAXPAUHWND__@@@Z			; GraphPaint
PUBLIC	??_C@_00CNPNBAHC@@				; `string'
PUBLIC	?gLCount@@3PAVCLoginCount@@A			; gLCount
PUBLIC	?lMsg@@3VCMsg@@A				; lMsg
PUBLIC	?wsGServer@@3VCwsGameServer@@A			; wsGServer
PUBLIC	?wsJServerCli@@3VwsJoinServerCli@@A		; wsJServerCli
PUBLIC	?wsDataCli@@3VwsJoinServerCli@@A		; wsDataCli
PUBLIC	?wsExDbCli@@3VwsJoinServerCli@@A		; wsExDbCli
PUBLIC	?wsRServerCli@@3VwsJoinServerCli@@A		; wsRServerCli
PUBLIC	?wsEvenChipServerCli@@3VwsJoinServerCli@@A	; wsEvenChipServerCli
PUBLIC	?gDirPath@@3VCDirPath@@A			; gDirPath
PUBLIC	?gMAttr@@3VCMonsterAttr@@A			; gMAttr
PUBLIC	?gMSetBase@@3VCMonsterSetBase@@A		; gMSetBase
PUBLIC	?DCInfo@@3Vclassdef@@A				; DCInfo
PUBLIC	?WhisperCash@@3VCWhisperCash@@A			; WhisperCash
PUBLIC	?gParty@@3VPartyClass@@A			; gParty
PUBLIC	?gDbSave@@3VCDbSave@@A				; gDbSave
PUBLIC	?gUdpSoc@@3VWzUdp@@A				; gUdpSoc
PUBLIC	?gUdpSocCE@@3VWzUdp@@A				; gUdpSocCE
PUBLIC	?gUdpSocCER@@3VWzUdp@@A				; gUdpSocCER
PUBLIC	?gUdpSocCRank@@3VWzUdp@@A			; gUdpSocCRank
PUBLIC	?gUdpSocCRankR@@3VWzUdp@@A			; gUdpSocCRankR
PUBLIC	?Guild@@3VCGuildClass@@A			; Guild
PUBLIC	?gNSerialCheck@@3PAVNSerialCheck@@A		; gNSerialCheck
PUBLIC	?g_SimpleModulusCS@@3VCSimpleModulus@@A		; g_SimpleModulusCS
PUBLIC	?g_SimpleModulusSC@@3VCSimpleModulus@@A		; g_SimpleModulusSC
PUBLIC	??_C@_08NAJBNDME@?4?4?2Data?2@			; `string'
PUBLIC	??_C@_0BA@FPGHNLAN@CDragonEvent?5?$CFs@		; `string'
PUBLIC	??_C@_0P@CNKMNCA@AttackEvent?5?$CFs@		; `string'
PUBLIC	??_C@_0BL@CIFNLNKN@?4?4?2data?2TerrainManager?4cfg@ ; `string'
PUBLIC	??_C@_07KGMMFLDN@Warning@			; `string'
PUBLIC	??_C@_0BO@HAAAHLCH@?$LM?$KN?$LJ?v?$LK?P?G?R?$MA?L?5?$LA?$KB?$LE?I?G?Q?5?$LM?$KN?$LJ?v?$MA?T?$LE?O?$LE?Y?4@ ; `string'
PUBLIC	??_C@_0BI@FNDPBPBE@UDP?5Socket?5create?5error@	; `string'
PUBLIC	??_C@_0CK@CPDKBBDI@?A?V?$MA?G?$CB?$CB?5?D?$LD?$LI?$KP?E?M?5?$LF?$KF?$MA?L?E?M?$LI?$KG?5?$MA?z?$MA?e?G?O?A?v@ ; `string'
PUBLIC	??_C@_0BD@KDLMHCKD@MonsterSetBase?4txt@		; `string'
PUBLIC	??_C@_0M@NDKJFFPF@Monster?4txt@			; `string'
PUBLIC	??_C@_08PGLGOOHM@gate?4txt@			; `string'
PUBLIC	??_C@_0N@BLBGLKFK@terrain1?4att@		; `string'
PUBLIC	??_C@_0N@JNICMIPE@terrain2?4att@		; `string'
PUBLIC	??_C@_0N@FGNOBLFB@terrain3?4att@		; `string'
PUBLIC	??_C@_0N@ELNLCLOJ@terrain4?4att@		; `string'
PUBLIC	??_C@_0N@IAIHPIEM@terrain5?4att@		; `string'
PUBLIC	??_C@_0N@GBDIKOC@terrain6?4att@			; `string'
PUBLIC	??_C@_0N@MNEPFJEH@terrain7?4att@		; `string'
PUBLIC	??_C@_0N@DMBJOLJC@terrain8?4att@		; `string'
PUBLIC	??_C@_0N@PHEFDIDH@terrain9?4att@		; `string'
PUBLIC	??_C@_0O@EEEOBJHM@terrain10?4att@		; `string'
PUBLIC	??_C@_0O@IPBCMKNJ@terrain11?4att@		; `string'
PUBLIC	??_C@_0O@JIGLIHH@terrain12?4att@		; `string'
PUBLIC	??_C@_0O@GDEBEILE@terrain19?4att@		; `string'
PUBLIC	??_C@_0O@CFGLJCFC@terrain25?4att@		; `string'
PUBLIC	??_C@_0L@DPAHEMHE@Iplist?4dat@			; `string'
PUBLIC	??_C@_0BC@FGIEIEFL@ConnectMember?4txt@		; `string'
PUBLIC	??_C@_0BC@IPOGIFJE@PkClearSystem?4cfg@		; `string'
PUBLIC	??_C@_0BA@NJMOGOCM@ResetSystem?4cfg@		; `string'
PUBLIC	??_C@_0BF@MNGCMCAL@BuffHelperSystem?4cfg@	; `string'
PUBLIC	??_C@_0CA@GPEDJDDH@RankingServer?5Connect?5IP?5?$FL?5?$CFs?5?$FN@ ; `string'
PUBLIC	??_C@_0BM@JEEOGNJB@EventChip?5Connect?5IP?5?$FL?5?$CFs?5?$FN@ ; `string'
PUBLIC	??_C@_0BD@MBDGLECM@ExDB?5Server?5Online@	; `string'
PUBLIC	??_C@_0CO@DFBFHLJO@Error?9L1?5?3?5Friend?5Server?5Down?5?$CI@ ; `string'
PUBLIC	??_C@_0BG@KBGGHHPK@?4?2data?2Serverinfo?4dat@	; `string'
PUBLIC	??_C@_0BO@CFKIHFKN@ServerInfo?4dat?5file?5not?5found@ ; `string'
PUBLIC	??_C@_0L@FFDIDHBB@ServerName@			; `string'
PUBLIC	??_C@_0P@EMJDPFDH@GameServerInfo@		; `string'
PUBLIC	??_C@_0L@ECKGLPBM@ServerCode@			; `string'
PUBLIC	??_C@_0BC@GLFLPKEG@ConnectMemberLoad@		; `string'
PUBLIC	??_C@_0BB@IGLHFEOF@commonserver?4cfg@		; `string'
PUBLIC	??_C@_0CC@JCDJGIAD@?$FLcommonserver?4cfg?$FN?5file?5not?5fou@ ; `string'
PUBLIC	??_C@_0BB@JIONBNI@CalCharacter?4cfg@		; `string'
PUBLIC	??_C@_01GBGANLPD@0@				; `string'
PUBLIC	??_C@_08BENDAOKD@Language@			; `string'
PUBLIC	??_C@_0O@GAFBBPE@StalkProtocol@			; `string'
PUBLIC	??_C@_0BA@GELKBKKC@StalkProtocolId@		; `string'
PUBLIC	??_C@_0BK@KJGDFNAO@Stalk?5Protocol?5ID?5?$DN?5?8?$CFs?8?5@ ; `string'
PUBLIC	??_C@_08LPAIHJCB@Dec1?4dat@			; `string'
PUBLIC	??_C@_0BI@KPIPBJFI@Dec1?4dat?5file?5not?5found@	; `string'
PUBLIC	??_C@_08HDINADJK@Enc2?4dat@			; `string'
PUBLIC	??_C@_0BI@CDOIIEIH@Enc2?4dat?5file?5not?5found@	; `string'
PUBLIC	??_C@_0BD@FJCONAOJ@lang?2main?2item?4txt@	; `string'
PUBLIC	??_C@_0BE@FDAOHAFF@lang?2main?2skill?4txt@	; `string'
PUBLIC	??_C@_0BG@GBCNIGCF@lang?2main?2movereq?4txt@	; `string'
PUBLIC	??_C@_0BA@MNCIMNEB@message_kor?4wtf@		; `string'
PUBLIC	??_C@_0BH@LNBPGCH@lang?2kor?2item?$CIkor?$CJ?4txt@ ; `string'
PUBLIC	??_C@_0BI@FIPAPIED@lang?2kor?2skill?$CIkor?$CJ?4txt@ ; `string'
PUBLIC	??_C@_0BI@KHGIHCPL@lang?2kor?2Quest?$CIKor?$CJ?4txt@ ; `string'
PUBLIC	??_C@_0BG@LDHDEAON@lang?2kor?2CheckSum?4dat@	; `string'
PUBLIC	??_C@_0BH@CGAJGJIE@lang?2kor?2commonloc?4cfg@	; `string'
PUBLIC	??_C@_05MEMFONJC@NonPK@				; `string'
PUBLIC	??_C@_0O@GCDDIMLO@NON?9PK?5Server@		; `string'
PUBLIC	??_C@_0M@DKICACGN@PkLimitFree@			; `string'
PUBLIC	??_C@_0BF@KFCGLLGL@PK?5Limit?5Free?5Server@	; `string'
PUBLIC	??_C@_0BA@CNMOEHOP@message_eng?4wtf@		; `string'
PUBLIC	??_C@_0BH@DIKKKEAA@lang?2eng?2item?$CIeng?$CJ?4txt@ ; `string'
PUBLIC	??_C@_0BI@PBKOEFKA@lang?2eng?2skill?$CIeng?$CJ?4txt@ ; `string'
PUBLIC	??_C@_0BI@IMMHENLL@lang?2eng?2Quest?$CIeng?$CJ?4txt@ ; `string'
PUBLIC	??_C@_0BG@CLNKAICO@lang?2eng?2CheckSum?4dat@	; `string'
PUBLIC	??_C@_0BH@CEPMFDMG@lang?2eng?2commonloc?4cfg@	; `string'
PUBLIC	??_C@_03BKIEJDKG@Eng@				; `string'
PUBLIC	??_C@_0BA@OEAAODBI@message_jpn?4wtf@		; `string'
PUBLIC	??_C@_0BH@GGMLMGEG@lang?2jpn?2item?$CIjpn?$CJ?4txt@ ; `string'
PUBLIC	??_C@_0BI@MHBJLADJ@lang?2jpn?2skill?$CIjpn?$CJ?4txt@ ; `string'
PUBLIC	??_C@_0BI@LKHALICC@lang?2jpn?2Quest?$CIjpn?$CJ?4txt@ ; `string'
PUBLIC	??_C@_0BG@FNIPOEKB@lang?2jpn?2CheckSum?4dat@	; `string'
PUBLIC	??_C@_0BH@FJINJIJL@lang?2jpn?2commonloc?4cfg@	; `string'
PUBLIC	??_C@_03IFJNLGMD@Jpn@				; `string'
PUBLIC	??_C@_0BA@BADGDLNP@message_chs?4wtf@		; `string'
PUBLIC	??_C@_0BH@IFBABFEE@lang?2chs?2item?$CIchs?$CJ?4txt@ ; `string'
PUBLIC	??_C@_0BI@CALDIEFE@lang?2chs?2skill?$CIchs?$CJ?4txt@ ; `string'
PUBLIC	??_C@_0BI@FNNKIMEP@lang?2chs?2Quest?$CIchs?$CJ?4txt@ ; `string'
PUBLIC	??_C@_0BG@BBGBCMOO@lang?2chs?2CheckSum?4dat@	; `string'
PUBLIC	??_C@_0BH@LPKCCKFC@lang?2chs?2commonloc?4cfg@	; `string'
PUBLIC	??_C@_03BFMMGHJN@Chs@				; `string'
PUBLIC	??_C@_0BA@FBJNGHMD@message_tai?4wtf@		; `string'
PUBLIC	??_C@_0BH@CNPPLEEE@lang?2tai?2item?$CItai?$CJ?4txt@ ; `string'
PUBLIC	??_C@_0BI@LAPBJNMP@lang?2tai?2skill?$CItai?$CJ?4txt@ ; `string'
PUBLIC	??_C@_0BI@MNJIJFNE@lang?2tai?2Quest?$CItai?$CJ?4txt@ ; `string'
PUBLIC	??_C@_0BG@NILECFFP@lang?2tai?2CheckSum?4dat@	; `string'
PUBLIC	??_C@_0BH@DANHMEB@lang?2tai?2commonloc?4cfg@	; `string'
PUBLIC	??_C@_03GHPOMJOP@Tai@				; `string'
PUBLIC	??_C@_0BA@CIFGKAHN@message_tha?4wtf@		; `string'
PUBLIC	??_C@_0BH@BDPKPKJK@lang?2tha?2item?$CItha?$CJ?4txt@ ; `string'
PUBLIC	??_C@_0BI@ICECJPPA@lang?2tha?2skill?$CItha?$CJ?4txt@ ; `string'
PUBLIC	??_C@_0BI@PPCLJHOL@lang?2tha?2Quest?$CItha?$CJ?4txt@ ; `string'
PUBLIC	??_C@_0BG@MKEGOHAG@lang?2tha?2CheckSum?4dat@	; `string'
PUBLIC	??_C@_0BH@BBKIGHND@lang?2tha?2commonloc?4cfg@	; `string'
PUBLIC	??_C@_03KAPGHIGI@Tha@				; `string'
PUBLIC	??_C@_0BH@ELPPJFKD@lang?2main?2CheckSum?4dat@	; `string'
PUBLIC	??_C@_0BI@LHJFIJMG@lang?2main?2commonloc?4cfg@	; `string'
PUBLIC	??_C@_0P@NPIOLEMH@skillSpear?4hit@		; `string'
PUBLIC	??_C@_0P@POAMAGDJ@skillElect?4hit@		; `string'
PUBLIC	??_C@_0BM@FIJENIG@lang?2main?2itemsetoption?4txt@ ; `string'
PUBLIC	??_C@_0BK@BHDBGJAM@lang?2main?2itemsettype?4txt@ ; `string'
PUBLIC	??_C@_0O@MOJICEJC@MoveLevel?4txt@		; `string'
PUBLIC	??_C@_0BE@BKEFEABF@lang?2main?2quest?4txt@	; `string'
PUBLIC	??_C@_0BB@FBDFNIJB@ClientExeVersion@		; `string'
PUBLIC	??_C@_01LFCBOECM@?4@				; `string'
PUBLIC	??_C@_01HIHLOKLC@1@				; `string'
PUBLIC	??_C@_0BA@JHAHNEJ@ClientExeSerial@		; `string'
PUBLIC	??_C@_0BA@DIAOPFNP@CreateCharacter@		; `string'
PUBLIC	??_C@_02PMJKFNFC@40@				; `string'
PUBLIC	??_C@_0BI@ONKCMGBI@CharacterDeleteMinLevel@	; `string'
PUBLIC	??_C@_0BA@IJNIFGCF@NumberOfMaxUser@		; `string'
PUBLIC	??_C@_0CM@HGFFPJNE@?$FLOption?5Reload?$FN?5?$KB?Z?$KB?Z?$KB?Z?5MaxUser?5@ ; `string'
PUBLIC	??_C@_0M@CGJDJOAO@GuildCreate@			; `string'
PUBLIC	??_C@_0N@OEKMPEAB@GuildDestroy@			; `string'
PUBLIC	??_C@_03GNABGMEE@100@				; `string'
PUBLIC	??_C@_0BB@DOGMENHB@GuildCreateLevel@		; `string'
PUBLIC	??_C@_0BN@IDOOLGAL@CastleOwnerGuildDestroyLimit@ ; `string'
PUBLIC	??_C@_0BF@KDFHAHG@SpeedHackPlayerBlock@		; `string'
PUBLIC	??_C@_0BH@OBAKKGCF@ConnectHackIPBlockTime@	; `string'
PUBLIC	??_C@_0BE@NKDMJEHP@ConnectIntervalTime@		; `string'
PUBLIC	??_C@_0BG@PFNCNMEF@ConnectRenewBlockTime@	; `string'
PUBLIC	??_C@_0BA@PFGDHKCH@ItemSerialCheck@		; `string'
PUBLIC	??_C@_0O@LBPJGHMN@AddExperience@		; `string'
PUBLIC	??_C@_06GOOKGCKJ@AddZen@			; `string'
PUBLIC	??_C@_05IOPOMLGK@Trade@				; `string'
PUBLIC	??_C@_08CIGOAAJ@ChaosBox@			; `string'
PUBLIC	??_C@_0L@KKFEELGG@ChaosEvent@			; `string'
PUBLIC	??_C@_0P@LCMOAIFH@210?4181?489?4241@		; `string'
PUBLIC	??_C@_0BB@LFFJPGMP@ChaosEventServer@		; `string'
PUBLIC	??_C@_0BH@HMHMODEL@?$FLOption?$FN?5ChaosBox?5?$DN?5?$CFd@ ; `string'
PUBLIC	??_C@_0BJ@BDPEJKAD@?$FLOption?$FN?5ChaosEvent?5?$DN?5?$CFd@ ; `string'
PUBLIC	??_C@_0BP@BODHCMPI@?$FLOption?$FN?5ChaosEventServer?5?$DN?5?$CFs@ ; `string'
PUBLIC	??_C@_0CD@DBODMHPC@?$FLOption?$FN?5AttackEventRegenTime?5?$DN@ ; `string'
PUBLIC	??_C@_06PKBKOIPG@PKTIME@			; `string'
PUBLIC	??_C@_09LNOLFHKA@MonsterHp@			; `string'
PUBLIC	??_C@_01EKENIIDA@3@				; `string'
PUBLIC	??_C@_0M@CNCIMJOC@LootingTime@			; `string'
PUBLIC	??_C@_0CE@CGDCLGCF@?$FLOption?$FN?5Auto?5Looting?5Time?5Set?5@ ; `string'
PUBLIC	??_C@_0L@LNKCFJOF@PKItemDrop@			; `string'
PUBLIC	??_C@_02PKFBJPLJ@10@				; `string'
PUBLIC	??_C@_0M@LDLBHBAP@ItemDropPer@			; `string'
PUBLIC	??_C@_0BA@LODEADPK@ZenDurationTime@		; `string'
PUBLIC	??_C@_0BB@OMEMPADG@ItemDurationTime@		; `string'
PUBLIC	??_C@_0P@MCKGBBMK@EventChipEvent@		; `string'
PUBLIC	??_C@_0BC@FNNFHNFE@BoxOfGoldDropRate@		; `string'
PUBLIC	??_C@_0BJ@GLDGDDON@ItemDropRateForBoxOfGold@	; `string'
PUBLIC	??_C@_0BO@DEAIHFPL@EventChipDropRateForBoxOfGold@ ; `string'
PUBLIC	??_C@_0BF@EDGAONAD@AttackSpeedTimeLimit@	; `string'
PUBLIC	??_C@_0BJ@KEAABHOA@IsIgnorePacketHackDetect@	; `string'
PUBLIC	??_C@_0P@FNJLIJMF@HackCheckCount@		; `string'
PUBLIC	??_C@_0BH@CLHIGLBH@MinimumAttackSpeedTime@	; `string'
PUBLIC	??_C@_0BG@GBBHJJPD@DetectedHackKickCount@	; `string'
PUBLIC	??_C@_0BK@JCJPKDIP@IsKickDetecHackCountLimit@	; `string'
PUBLIC	??_C@_0BK@JABOLCNK@IsItemDropRingOfTransform@	; `string'
PUBLIC	??_C@_0BI@IMCEGONI@ItemDropRingOfTransform@	; `string'
PUBLIC	??_C@_0N@OGIIBFAP@WriteChatLog@			; `string'
PUBLIC	??_C@_0BD@OBHCBKDC@DisconnectHackUser@		; `string'
PUBLIC	??_C@_0BA@OAOAELOO@UseNPGGChecksum@		; `string'
PUBLIC	??_C@_04MCLHNJOA@5?433@				; `string'
PUBLIC	??_C@_0BG@MPJHCBCJ@DecTimePerAttackSpeed@	; `string'
PUBLIC	??_C@_0BB@MCFEHCJF@SpeedHackPenalty@		; `string'
PUBLIC	??_C@_0BJ@IOEIMNCB@DQChaosSuccessRateLevel1@	; `string'
PUBLIC	??_C@_0BJ@KFGFJOOC@DQChaosSuccessRateLevel2@	; `string'
PUBLIC	??_C@_0BJ@LMHOKPKD@DQChaosSuccessRateLevel3@	; `string'
PUBLIC	??_C@_0BJ@PDDPDJGE@DQChaosSuccessRateLevel4@	; `string'
PUBLIC	??_C@_0O@DJJFJNIL@WriteSkillLog@		; `string'
PUBLIC	??_C@_0BF@HDFDIILJ@QuestNPCTeleportTime@	; `string'
PUBLIC	??_C@_0BC@BADILJEE@KundunRefillHPSec@		; `string'
PUBLIC	??_C@_0P@CHMHAEOB@KundunRefillHP@		; `string'
PUBLIC	??_C@_0BD@JLEDGMHA@KundunRefillHPTime@		; `string'
PUBLIC	??_C@_0BG@LKNKPNDE@ShadowPhantomMaxLevel@	; `string'
PUBLIC	??_C@_02MFEOMNPG@IP@				; `string'
PUBLIC	??_C@_0BC@IKLEIAKB@ConnectServerInfo@		; `string'
PUBLIC	??_C@_04HDFGONMM@PORT@				; `string'
PUBLIC	??_C@_0BI@KCKMEMOI@DevilSquareEventConnect@	; `string'
PUBLIC	??_C@_0BH@DJHELGEN@DevilSquareEventServer@	; `string'
PUBLIC	??_C@_0BH@FIEEIIMF@EventChipServerConnect@	; `string'
PUBLIC	??_C@_0P@PKCHKPDI@192?4168?410?4150@		; `string'
PUBLIC	??_C@_0BC@FMIEAAIA@EventChipServerIp@		; `string'
PUBLIC	??_C@_0BA@CEGABCOE@ApplyHeroSystem@		; `string'
PUBLIC	??_C@_0BD@FPCMGBCA@EnableBattleSoccer@		; `string'
PUBLIC	??_C@_0BD@NKHABGBC@EnableEventNPCTalk@		; `string'
PUBLIC	??_C@_0BF@PDBLMKBC@EnableServerDivision@	; `string'
PUBLIC	??_C@_09NPFFCDOK@10?41?42?469@			; `string'
PUBLIC	??_C@_0O@KKNNPAMK@HackLogServer@		; `string'
PUBLIC	??_C@_0BM@CEPJPHJK@EnableCheckPenetrationSkill@	; `string'
PUBLIC	??_C@_0P@CECKIAHO@CheckSpeedHack@		; `string'
PUBLIC	??_C@_05LFHGFJK@?$CFs_?$CFd@			; `string'
PUBLIC	??_C@_0BG@OEMBKLAL@User?5Object?5Size?5?$DN?5?$CFd@ ; `string'
PUBLIC	??_C@_0BA@MDPIHCPH@?$CFs?5?$FL?$CFu?$FN?$FL?$CFu?$FN?$FL?$CFu?$FN@ ; `string'
PUBLIC	??_C@_0BB@IPFJJFBE@PersonalShopOpen@		; `string'
PUBLIC	??_C@_0BD@EINABCJP@SkillDistanceCheck@		; `string'
PUBLIC	??_C@_0BH@KNOFMFOO@SkillDistanceCheckTemp@	; `string'
PUBLIC	??_C@_0BC@PMNMLGGJ@SkillDistanceKick@		; `string'
PUBLIC	??_C@_0BH@FHPEPELH@SkillDistanceKickCount@	; `string'
PUBLIC	??_C@_0BL@OPACNGLO@SkillDistanceKickCheckTime@	; `string'
PUBLIC	??_C@_0BA@PCIIIHII@OnlineBonus?4ini@		; `string'
PUBLIC	??_C@_0M@DGOLEIPN@BonusSystem@			; `string'
PUBLIC	??_C@_05JKBOBFBJ@Bonus@				; `string'
PUBLIC	??_C@_09CAFPCKBI@BonusTime@			; `string'
PUBLIC	??_C@_09JEDNLJFC@BonusCash@			; `string'
PUBLIC	??_C@_0BF@BJNKEBMD@?4?4?2data?2PVPEvent?4cfg@	; `string'
PUBLIC	??_C@_0BI@NOFODAGC@?4?4?2data?2ArrowSystem?4cfg@ ; `string'
PUBLIC	??_C@_0BK@PPGGKBGC@?4?4?2data?2BalanceSystem?4ini@ ; `string'
PUBLIC	??_C@_02JDPG@rb@				; `string'
PUBLIC	??_C@_0BC@JAIHNJEB@?$CFs?5file?5not?5found@	; `string'
PUBLIC	??_C@_0M@GNOCDNGL@CItemBag?5?$CFs@		; `string'
PUBLIC	??_C@_0BB@DBBPHKAA@eventitembag?4txt@		; `string'
PUBLIC	??_C@_0BC@OBJPANO@eventitembag2?4txt@		; `string'
PUBLIC	??_C@_0BC@MFEFCDHL@eventitembag3?4txt@		; `string'
PUBLIC	??_C@_0BC@NIEABDMD@eventitembag4?4txt@		; `string'
PUBLIC	??_C@_0BC@BDBMMAGG@eventitembag5?4txt@		; `string'
PUBLIC	??_C@_0BC@JFIILCMI@eventitembag6?4txt@		; `string'
PUBLIC	??_C@_0BC@FONEGBGN@eventitembag7?4txt@		; `string'
PUBLIC	??_C@_0BC@KPICNDLI@eventitembag8?4txt@		; `string'
PUBLIC	??_C@_0BC@GENOAABN@eventitembag9?4txt@		; `string'
PUBLIC	??_C@_0BD@BDGNLCBB@eventitembag10?4txt@		; `string'
PUBLIC	??_C@_0BD@NIDBGBLE@eventitembag11?4txt@		; `string'
PUBLIC	??_C@_0BD@FOKFBDBK@eventitembag12?4txt@		; `string'
PUBLIC	??_C@_0BD@JFPJMALP@eventitembag13?4txt@		; `string'
PUBLIC	??_C@_0BD@IIPMPAAH@eventitembag14?4txt@		; `string'
PUBLIC	??_C@_0BD@EDKACDKC@eventitembag15?4txt@		; `string'
PUBLIC	??_C@_0BD@OGIICKJ@eventitembag17?4txt@		; `string'
PUBLIC	??_C@_0BA@JLLODMHA@DevilSquare?4dat@		; `string'
PUBLIC	??_C@_0BB@PNANPJHI@DevilSquareEvent@		; `string'
PUBLIC	??_C@_0BK@NJHGKMMN@EyesOfDevilSquareDropRate@	; `string'
PUBLIC	??_C@_0BJ@DHGJEDK@KeyOfDevilSquareDropRate@	; `string'
PUBLIC	??_C@_0BA@CJKIMMIB@BloodCastle?4dat@		; `string'
PUBLIC	??_C@_0BB@DHAFCNAC@BloodCastleEvent@		; `string'
PUBLIC	??_C@_0BF@DLNBCIAJ@BloodCastleStartHour@	; `string'
PUBLIC	??_C@_0BI@KPDDGOOE@AngelKingsPaperDropRate@	; `string'
PUBLIC	??_C@_0BC@NGLLHLOE@BloodBoneDropRate@		; `string'
PUBLIC	??_C@_0O@PBCFFJJH@StoneDropRate@		; `string'
PUBLIC	??_C@_0BD@KIIHPPEC@IsDropDarkLordItem@		; `string'
PUBLIC	??_C@_0BF@CIEOPDEB@SleeveOfLordDropRate@	; `string'
PUBLIC	??_C@_0BG@KOOOBGPO@SleeveOfLordDropLevel@	; `string'
PUBLIC	??_C@_0BI@LEJIBFOD@SoulOfDarkHorseDropRate@	; `string'
PUBLIC	??_C@_0BI@POMKNKAO@SoulOfDarkHorseropLevel@	; `string'
PUBLIC	??_C@_0BJ@NMMKDJPD@SoulOfDarkSpiritDropRate@	; `string'
PUBLIC	??_C@_0BK@ILHFEAJE@SoulOfDarkSpiritDropLevel@	; `string'
PUBLIC	??_C@_0BI@CNLFMLJF@DarkSpiritAddExperience@	; `string'
PUBLIC	??_C@_0BF@LANDNGMH@AttackEventRegenTime@	; `string'
PUBLIC	??_C@_0BB@OEKAOOOA@IsEledoradoEvent@		; `string'
PUBLIC	??_C@_0BN@GMFOFBJF@EledoradoGoldGoblenRegenTime@ ; `string'
PUBLIC	??_C@_0BI@KJLIHAFL@EledoradoTitanRegenTime@	; `string'
PUBLIC	??_C@_0BN@IJGMJJEJ@EledoradoGoldDerconRegenTime@ ; `string'
PUBLIC	??_C@_0CC@KCJCENFB@EledoradoDevilLizardKingRegenTi@ ; `string'
PUBLIC	??_C@_0CA@PDCIOFIF@EledoradoDevilTantarosRegenTime@ ; `string'
PUBLIC	??_C@_0CA@HENEMHED@EledoradoGoldGoblenItemDropRate@ ; `string'
PUBLIC	??_C@_0BL@CKBDCOGC@EledoradoTitanItemDropRate@	; `string'
PUBLIC	??_C@_0CA@DLLDAHDE@EledoradoGoldDerconItemDropRate@ ; `string'
PUBLIC	??_C@_0CF@JGNHCKNH@EledoradoDevilLizardKingItemDro@ ; `string'
PUBLIC	??_C@_0CD@FBDNNLBJ@EledoradoDevilTantarosItemDropR@ ; `string'
PUBLIC	??_C@_0CC@FBLILEOL@EledoradoGoldGoblenExItemDropRa@ ; `string'
PUBLIC	??_C@_0BN@EPBKFBD@EledoradoTitanExItemDropRate@	; `string'
PUBLIC	??_C@_0CC@KKKCNGAN@EledoradoGoldDerconExItemDropRa@ ; `string'
PUBLIC	??_C@_0CH@JKCOIHDD@EledoradoDevilLizardKingExItemD@ ; `string'
PUBLIC	??_C@_0CF@FONHIJD@EledoradoDevilTantarosExItemDro@ ; `string'
PUBLIC	??_C@_0BA@PGIAALHL@RingAttackEvent@		; `string'
PUBLIC	??_C@_05CLDMBJBA@10000@				; `string'
PUBLIC	??_C@_0BE@PAGFJHNK@RingOrcKillGiftRate@		; `string'
PUBLIC	??_C@_0BB@NMFCKOP@RingDropGiftRate@		; `string'
PUBLIC	??_C@_0BE@BHMFOLMK@RingAttackEvent?4dat@	; `string'
PUBLIC	??_C@_06OIEHOIFM@EVENT1@			; `string'
PUBLIC	??_C@_0BH@LPINNCM@Event1ItemDropTodayMax@	; `string'
PUBLIC	??_C@_08KDEPFNAG@10000000@			; `string'
PUBLIC	??_C@_0BL@ENBIHHCD@Event1ItemDropTodayPercent@	; `string'
PUBLIC	??_C@_0BB@PMGPGCOG@FireCrackerEvent@		; `string'
PUBLIC	??_C@_0BE@KPFNOKLC@FireCrackerDropRate@		; `string'
PUBLIC	??_C@_0BL@EHKPPMMG@ItemDropRateForFireCracker@	; `string'
PUBLIC	??_C@_0BJ@GHAOAAJB@OnlyFireCrackerEffectUse@	; `string'
PUBLIC	??_C@_0L@MDFHFAIK@MedalEvent@			; `string'
PUBLIC	??_C@_0BC@CFKHOCLM@GoldMedalDropRate@		; `string'
PUBLIC	??_C@_0BE@OPKEGEPJ@SilverMedalDropRate@		; `string'
PUBLIC	??_C@_0BJ@HJDOLNNF@ItemDropRateForGoldMedal@	; `string'
PUBLIC	??_C@_0BL@DECCHFKM@ItemDropRateForSilverMedal@	; `string'
PUBLIC	??_C@_09HEEPAMKP@XMasEvent@			; `string'
PUBLIC	??_C@_0BN@EDHJHEEJ@XMasEvent_StarOfXMasDropRate@ ; `string'
PUBLIC	??_C@_0CE@BHNJHAEB@XMasEvent_ItemDropRateForStarOf@ ; `string'
PUBLIC	??_C@_0BB@CGEJHOOF@HeartOfLoveEvent@		; `string'
PUBLIC	??_C@_0BE@JJGBIMJB@HeartOfLoveDropRate@		; `string'
PUBLIC	??_C@_0BL@CMBFLADP@ItemDropRateForHeartOfLove@	; `string'
PUBLIC	??_C@_0BE@MPGFIFAO@HappyNewYearTalkNpc@		; `string'
PUBLIC	??_C@_0BB@HOHJFGOC@MerryXMasTalkNpc@		; `string'
PUBLIC	??_C@_0BA@LOKHGJIA@ChaosCastle?4dat@		; `string'
PUBLIC	??_C@_0BB@EAJFBCDB@ChaosCastleEvent@		; `string'
PUBLIC	??_C@_0BD@BFEFAHKC@KundunMarkDropRate@		; `string'
PUBLIC	??_C@_0P@JCOIPJAE@EventManagerOn@		; `string'
PUBLIC	??_C@_0BE@KJOHMGFA@EventManagement?4dat@	; `string'
PUBLIC	??_C@_0BG@GAOBCKDF@DarkLordHeartDropRate@	; `string'
PUBLIC	??_C@_0BK@HAJPAMCO@DarkLoadHeartOffEventRate@	; `string'
PUBLIC	__real@3f4ccccd
PUBLIC	__real@3fb999999999999a
PUBLIC	__real@3fd999999999999a
PUBLIC	__real@41200000
PUBLIC	__xmm@41f00000000000000000000000000000
EXTRN	??_L@YGXPAXIIP6EX0@Z1@Z:PROC			; `eh vector constructor iterator'
EXTRN	??_M@YGXPAXIIP6EX0@Z@Z:PROC			; `eh vector destructor iterator'
EXTRN	??2@YAPAXI@Z:PROC				; operator new
EXTRN	??3@YAXPAXI@Z:PROC				; operator delete
EXTRN	??_U@YAPAXI@Z:PROC				; operator new[]
EXTRN	??_V@YAXPAXI@Z:PROC				; operator delete[]
EXTRN	_atexit:PROC
EXTRN	_memcpy:PROC
EXTRN	_memset:PROC
EXTRN	_strcpy:PROC
EXTRN	_strtok:PROC
EXTRN	__imp__GetPrivateProfileIntA@16:PROC
EXTRN	__imp__GetPrivateProfileStringA@24:PROC
EXTRN	__imp__CreateSolidBrush@4:PROC
EXTRN	__imp__DeleteObject@4:PROC
EXTRN	__imp__wsprintfA:PROC
EXTRN	__imp__SendMessageA@16:PROC
EXTRN	__imp__GetDC@4:PROC
EXTRN	__imp__ReleaseDC@8:PROC
EXTRN	__imp__SetWindowTextA@8:PROC
EXTRN	__imp__MessageBoxA@16:PROC
EXTRN	__imp__FillRect@12:PROC
EXTRN	_fclose:PROC
EXTRN	_fopen:PROC
EXTRN	_fread:PROC
EXTRN	_srand:PROC
EXTRN	_atof:PROC
EXTRN	_atoi:PROC
EXTRN	__localtime64:PROC
EXTRN	__time64:PROC
EXTRN	?LogInit@@YAXH@Z:PROC				; LogInit
EXTRN	?LogClose@@YAXXZ:PROC				; LogClose
EXTRN	?MsgBox@@YAXPADZZ:PROC				; MsgBox
EXTRN	__imp_??0CMsg@@QAE@XZ:PROC
EXTRN	__imp_??1CMsg@@QAE@XZ:PROC
EXTRN	__imp_?LoadWTF@CMsg@@QAEXPAD@Z:PROC
EXTRN	__imp_?Get@CMsg@@QAEPADH@Z:PROC
EXTRN	?OpenItemScript@@YAHPAD@Z:PROC			; OpenItemScript
EXTRN	?CreateSocket@MyWinsockBase@@QAEHPAUHWND__@@@Z:PROC ; MyWinsockBase::CreateSocket
EXTRN	?Close@MyWinsockBase@@QAEHXZ:PROC		; MyWinsockBase::Close
EXTRN	?DataRecv@CwsGameServer@@QAEHI@Z:PROC		; CwsGameServer::DataRecv
EXTRN	?FDWRITE_MsgDataSend@CwsGameServer@@QAEHI@Z:PROC ; CwsGameServer::FDWRITE_MsgDataSend
EXTRN	??0CwsGameServer@@QAE@XZ:PROC			; CwsGameServer::CwsGameServer
EXTRN	??1CwsGameServer@@UAE@XZ:PROC			; CwsGameServer::~CwsGameServer
EXTRN	?DataSend@@YAHHPAEK@Z:PROC			; DataSend
EXTRN	??0CGuildClass@@QAE@XZ:PROC			; CGuildClass::CGuildClass
EXTRN	??1CGuildClass@@UAE@XZ:PROC			; CGuildClass::~CGuildClass
EXTRN	??0CLoginCount@@QAE@XZ:PROC			; CLoginCount::CLoginCount
EXTRN	??1CLoginCount@@QAE@XZ:PROC			; CLoginCount::~CLoginCount
EXTRN	?Get@CLoginCount@@QAEHXZ:PROC			; CLoginCount::Get
EXTRN	?Load@CEngagePVP@@QAEXPBD@Z:PROC		; CEngagePVP::Load
EXTRN	?gObjInit@@YAXXZ:PROC				; gObjInit
EXTRN	?gObjEnd@@YAXXZ:PROC				; gObjEnd
EXTRN	?gObjAddMonster@@YAFH@Z:PROC			; gObjAddMonster
EXTRN	?gObjDel@@YAFH@Z:PROC				; gObjDel
EXTRN	?gObjGetSocket@@YAHI@Z:PROC			; gObjGetSocket
EXTRN	?gObjIsConnectedGP@@YAHH@Z:PROC			; gObjIsConnectedGP
EXTRN	?gObjSetMonster@@YAHHH@Z:PROC			; gObjSetMonster
EXTRN	?gObjSetPosMonster@@YAHHH@Z:PROC		; gObjSetPosMonster
EXTRN	?GCTeleportSend@@YAXPAVOBJECTSTRUCT@@EEEEE@Z:PROC ; GCTeleportSend
EXTRN	?Initialize@CManager@@QAE_NXZ:PROC		; CManager::Initialize
EXTRN	?Load@CGlobalConfig@@QAEXPBD0@Z:PROC		; CGlobalConfig::Load
EXTRN	?Load@CPostSystem@@QAEXPBD@Z:PROC		; CPostSystem::Load
EXTRN	?Load@CPkClearSystem@@QAEHPAD@Z:PROC		; CPkClearSystem::Load
EXTRN	?ClearPkClearNPCData@CPkClearSystem@@QAEXXZ:PROC ; CPkClearSystem::ClearPkClearNPCData
EXTRN	?Load@CResetSystem@@QAEHPAD@Z:PROC		; CResetSystem::Load
EXTRN	?ClearResetNPCData@CResetSystem@@QAEXXZ:PROC	; CResetSystem::ClearResetNPCData
EXTRN	?Load@CBuffHelper@@QAEHPAD@Z:PROC		; CBuffHelper::Load
EXTRN	?ClearNPCData@CBuffHelper@@QAEXXZ:PROC		; CBuffHelper::ClearNPCData
EXTRN	?Load@CTerrainManager@@QAEXPBD@Z:PROC		; CTerrainManager::Load
EXTRN	?Load@CArrowSystem@@QAEXPBD@Z:PROC		; CArrowSystem::Load
EXTRN	?Load@cBalanceSystem@@QAEXPAD@Z:PROC		; cBalanceSystem::Load
EXTRN	?_loading@CDynamicExperience@@QAEXXZ:PROC	; CDynamicExperience::_loading
EXTRN	?Loading@CSettings@@QAE_NXZ:PROC		; CSettings::Loading
EXTRN	?YDTeamTopOnline@@YAXXZ:PROC			; YDTeamTopOnline
EXTRN	?MakeItemNumber@@YAHHH@Z:PROC			; MakeItemNumber
EXTRN	?IsFile@@YAHPAD@Z:PROC				; IsFile
EXTRN	??0classdef@@QAE@XZ:PROC			; classdef::classdef
EXTRN	??1classdef@@UAE@XZ:PROC			; classdef::~classdef
EXTRN	?Init@classdef@@QAEXXZ:PROC			; classdef::Init
EXTRN	?SetProtocolCore@wsJoinServerCli@@QAEHP6AXEPAEH@Z@Z:PROC ; wsJoinServerCli::SetProtocolCore
EXTRN	?FDWRITE_MsgDataSend@wsJoinServerCli@@QAEHXZ:PROC ; wsJoinServerCli::FDWRITE_MsgDataSend
EXTRN	?DataRecv@wsJoinServerCli@@QAEHXZ:PROC		; wsJoinServerCli::DataRecv
EXTRN	?Connect@wsJoinServerCli@@QAEHPADGK@Z:PROC	; wsJoinServerCli::Connect
EXTRN	??0wsJoinServerCli@@QAE@XZ:PROC			; wsJoinServerCli::wsJoinServerCli
EXTRN	??1wsJoinServerCli@@UAE@XZ:PROC			; wsJoinServerCli::~wsJoinServerCli
EXTRN	?GJServerLogin@@YAXXZ:PROC			; GJServerLogin
EXTRN	?SProtocolCore@@YAXEPAEH@Z:PROC			; SProtocolCore
EXTRN	?DataServerProtocolCore@@YAXEPAEH@Z:PROC	; DataServerProtocolCore
EXTRN	?DataServerLogin@@YAXH@Z:PROC			; DataServerLogin
EXTRN	?GDGameServerInfoSave@@YAXXZ:PROC		; GDGameServerInfoSave
EXTRN	?Load@CBalancer@@QAE_NXZ:PROC			; CBalancer::Load
EXTRN	?LoadConfig@cOffExp@@QAEXXZ:PROC		; cOffExp::LoadConfig
EXTRN	?ExDataServerProtocolCore@@YAXEPAEH@Z:PROC	; ExDataServerProtocolCore
EXTRN	?ExDataServerLogin@@YAXXZ:PROC			; ExDataServerLogin
EXTRN	?LoadMapAttr@MapClass@@QAEXPADH@Z:PROC		; MapClass::LoadMapAttr
EXTRN	?ItemInit@MapClass@@QAEXXZ:PROC			; MapClass::ItemInit
EXTRN	??0MapClass@@QAE@XZ:PROC			; MapClass::MapClass
EXTRN	??1MapClass@@UAE@XZ:PROC			; MapClass::~MapClass
EXTRN	?ShopDataLoad@@YAHXZ:PROC			; ShopDataLoad
EXTRN	?LoadAttr@CMonsterAttr@@QAEXPAD@Z:PROC		; CMonsterAttr::LoadAttr
EXTRN	??0CMonsterAttr@@QAE@XZ:PROC			; CMonsterAttr::CMonsterAttr
EXTRN	??1CMonsterAttr@@UAE@XZ:PROC			; CMonsterAttr::~CMonsterAttr
EXTRN	?LoadSetBase@CMonsterSetBase@@QAEXPAD@Z:PROC	; CMonsterSetBase::LoadSetBase
EXTRN	??0CMonsterSetBase@@QAE@XZ:PROC			; CMonsterSetBase::CMonsterSetBase
EXTRN	??1CMonsterSetBase@@UAE@XZ:PROC			; CMonsterSetBase::~CMonsterSetBase
EXTRN	??0CWhisperCash@@QAE@XZ:PROC			; CWhisperCash::CWhisperCash
EXTRN	??1CWhisperCash@@UAE@XZ:PROC			; CWhisperCash::~CWhisperCash
EXTRN	?LogSkillList@CMagicDamage@@QAEXPAD@Z:PROC	; CMagicDamage::LogSkillList
EXTRN	?Load@CGate@@QAEXPAD@Z:PROC			; CGate::Load
EXTRN	??0PartyClass@@QAE@XZ:PROC			; PartyClass::PartyClass
EXTRN	??1PartyClass@@UAE@XZ:PROC			; PartyClass::~PartyClass
EXTRN	?Load@CAcceptIp@@QAEXPAD@Z:PROC			; CAcceptIp::Load
EXTRN	??0CDbSave@@QAE@XZ:PROC				; CDbSave::CDbSave
EXTRN	??1CDbSave@@UAE@XZ:PROC				; CDbSave::~CDbSave
EXTRN	?Begin@CDbSave@@QAEHXZ:PROC			; CDbSave::Begin
EXTRN	?End@CDbSave@@QAEXXZ:PROC			; CDbSave::End
EXTRN	??0WzUdp@@QAE@XZ:PROC				; WzUdp::WzUdp
EXTRN	??1WzUdp@@UAE@XZ:PROC				; WzUdp::~WzUdp
EXTRN	?CreateSocket@WzUdp@@QAEHXZ:PROC		; WzUdp::CreateSocket
EXTRN	?Run@WzUdp@@QAEHXZ:PROC				; WzUdp::Run
EXTRN	?SendData@WzUdp@@QAEHPAEK@Z:PROC		; WzUdp::SendData
EXTRN	?SendSet@WzUdp@@QAEHPADH@Z:PROC			; WzUdp::SendSet
EXTRN	?RecvSet@WzUdp@@QAEHH@Z:PROC			; WzUdp::RecvSet
EXTRN	?SetProtocolCore@WzUdp@@QAEHP6AXEPAEH@Z@Z:PROC	; WzUdp::SetProtocolCore
EXTRN	??0CDragonEvent@@QAE@XZ:PROC			; CDragonEvent::CDragonEvent
EXTRN	??0CItemBag@@QAE@XZ:PROC			; CItemBag::CItemBag
EXTRN	?Init@CItemBag@@QAEXPAD@Z:PROC			; CItemBag::Init
EXTRN	??0CDirPath@@QAE@XZ:PROC			; CDirPath::CDirPath
EXTRN	??1CDirPath@@UAE@XZ:PROC			; CDirPath::~CDirPath
EXTRN	?SetFirstPath@CDirPath@@QAEXPAD@Z:PROC		; CDirPath::SetFirstPath
EXTRN	?GetNewPath@CDirPath@@QAEPADPAD@Z:PROC		; CDirPath::GetNewPath
EXTRN	?Init@CGMMng@@QAEXXZ:PROC			; CGMMng::Init
EXTRN	?Load@CConMember@@QAEXPAD@Z:PROC		; CConMember::Load
EXTRN	?ReadyLicense@@YAXXZ:PROC			; ReadyLicense
EXTRN	?ChaosEventProtocolCore@@YAXEPAEH@Z:PROC	; ChaosEventProtocolCore
EXTRN	??0CAttackEvent@@QAE@XZ:PROC			; CAttackEvent::CAttackEvent
EXTRN	??0CSimpleModulus@@QAE@XZ:PROC			; CSimpleModulus::CSimpleModulus
EXTRN	??1CSimpleModulus@@UAE@XZ:PROC			; CSimpleModulus::~CSimpleModulus
EXTRN	?LoadEncryptionKey@CSimpleModulus@@QAEHPAD@Z:PROC ; CSimpleModulus::LoadEncryptionKey
EXTRN	?LoadDecryptionKey@CSimpleModulus@@QAEHPAD@Z:PROC ; CSimpleModulus::LoadDecryptionKey
EXTRN	??0NSerialCheck@@QAE@XZ:PROC			; NSerialCheck::NSerialCheck
EXTRN	??1NSerialCheck@@UAE@XZ:PROC			; NSerialCheck::~NSerialCheck
EXTRN	?Init@CDevilSquare@@QAEXXZ:PROC			; CDevilSquare::Init
EXTRN	?Load@CDevilSquare@@QAEXPAD@Z:PROC		; CDevilSquare::Load
EXTRN	?SetClose@CDevilSquare@@QAEXXZ:PROC		; CDevilSquare::SetClose
EXTRN	?DevilSquareEventProtocolCore@@YAXEPAEH@Z:PROC	; DevilSquareEventProtocolCore
EXTRN	?InitBattleSoccer@@YAXXZ:PROC			; InitBattleSoccer
EXTRN	?ClearBattleSoccer@@YAXXZ:PROC			; ClearBattleSoccer
EXTRN	?Init@CBloodCastle@@QAEX_N@Z:PROC		; CBloodCastle::Init
EXTRN	?Load@CBloodCastle@@QAEXPAD@Z:PROC		; CBloodCastle::Load
EXTRN	?LoadItemDropRate@CBloodCastle@@QAEXXZ:PROC	; CBloodCastle::LoadItemDropRate
EXTRN	?Init@CChaosCastle@@QAEX_N@Z:PROC		; CChaosCastle::Init
EXTRN	?Load@CChaosCastle@@QAEXPAD@Z:PROC		; CChaosCastle::Load
EXTRN	?Init@CMonsterItemMng@@QAEXXZ:PROC		; CMonsterItemMng::Init
EXTRN	?EventChipEventProtocolCore@@YAXEPAEH@Z:PROC	; EventChipEventProtocolCore
EXTRN	?Init@CEledoradoEvent@@QAEXXZ:PROC		; CEledoradoEvent::Init
EXTRN	?SetEventState@CEledoradoEvent@@QAEXH@Z:PROC	; CEledoradoEvent::SetEventState
EXTRN	?LoadQuestInfo@CQuestInfo@@QAEHPAD@Z:PROC	; CQuestInfo::LoadQuestInfo
EXTRN	?SendSet@CSendHackLog@@QAEXPADH@Z:PROC		; CSendHackLog::SendSet
EXTRN	?Init@CPacketCheckSum@@QAEXXZ:PROC		; CPacketCheckSum::Init
EXTRN	??0CItemBagEx@@QAE@XZ:PROC			; CItemBagEx::CItemBagEx
EXTRN	?Init@CItemBagEx@@QAEXPAD@Z:PROC		; CItemBagEx::Init
EXTRN	?LoadTypeInfo@CSetItemOption@@QAEHPAD@Z:PROC	; CSetItemOption::LoadTypeInfo
EXTRN	?LoadOptionInfo@CSetItemOption@@QAEHPAD@Z:PROC	; CSetItemOption::LoadOptionInfo
EXTRN	?Load@CMoveCommand@@QAEHPAD@Z:PROC		; CMoveCommand::Load
EXTRN	?LoadMoveLevel@CMoveCommand@@QAEHPAD@Z:PROC	; CMoveCommand::LoadMoveLevel
EXTRN	?Load@CSkillHitBox@@QAEHPAD@Z:PROC		; CSkillHitBox::Load
EXTRN	?EnableEvent@CRingAttackEvent@@QAEXH@Z:PROC	; CRingAttackEvent::EnableEvent
EXTRN	?Load@CRingAttackEvent@@UAEHPAD@Z:PROC		; CRingAttackEvent::Load
EXTRN	?Init@CEventManagement@@QAEXH@Z:PROC		; CEventManagement::Init
EXTRN	?Load@CEventManagement@@QAE_NPAD@Z:PROC		; CEventManagement::Load
EXTRN	?RegEvent@CEventManagement@@QAEXHPAX@Z:PROC	; CEventManagement::RegEvent
EXTRN	@__security_check_cookie@4:PROC
EXTRN	___CxxFrameHandler3:PROC
EXTRN	__ftoui3:PROC
EXTRN	_memset:PROC
EXTRN	?LogAdd@@3P6AXPADZZA:DWORD			; LogAdd
EXTRN	?LogAddC@@3P6AXEPADZZA:DWORD			; LogAddC
EXTRN	?LogAddTD@@3P6AXPADZZA:DWORD			; LogAddTD
EXTRN	?g_PvpEvent@@3VCEngagePVP@@A:BYTE		; g_PvpEvent
EXTRN	?gObj@@3PAVOBJECTSTRUCT@@A:DWORD		; gObj
EXTRN	?gServerMaxUser@@3HA:DWORD			; gServerMaxUser
EXTRN	?gObjTotalUser@@3HA:DWORD			; gObjTotalUser
EXTRN	?Manager@@3VCManager@@A:BYTE			; Manager
EXTRN	?g_GlobalConfig@@3VCGlobalConfig@@A:BYTE	; g_GlobalConfig
EXTRN	?g_PostSystem@@3VCPostSystem@@A:BYTE		; g_PostSystem
EXTRN	?g_PkClearSystem@@3VCPkClearSystem@@A:BYTE	; g_PkClearSystem
EXTRN	?g_ResetSystem@@3VCResetSystem@@A:BYTE		; g_ResetSystem
EXTRN	?g_BuffHelper@@3VCBuffHelper@@A:BYTE		; g_BuffHelper
EXTRN	?g_TerrainManager@@3VCTerrainManager@@A:BYTE	; g_TerrainManager
EXTRN	?g_ArrowSystem@@3VCArrowSystem@@A:BYTE		; g_ArrowSystem
EXTRN	?gBalanceSystem@@3VcBalanceSystem@@A:BYTE	; gBalanceSystem
EXTRN	?_dynamic_experience@@3VCDynamicExperience@@A:BYTE ; _dynamic_experience
EXTRN	?gSettings@@3PAVCSettings@@A:DWORD		; gSettings
EXTRN	?Balancer@@3VCBalancer@@A:BYTE			; Balancer
EXTRN	?OffExp@@3VcOffExp@@A:BYTE			; OffExp
EXTRN	?MagicDamageC@@3VCMagicDamage@@A:BYTE		; MagicDamageC
EXTRN	?gGateC@@3VCGate@@A:BYTE			; gGateC
EXTRN	?ghWnd@@3PAUHWND__@@A:DWORD			; ghWnd
EXTRN	?acceptIP@@3VCAcceptIp@@A:BYTE			; acceptIP
EXTRN	?cManager@@3VCGMMng@@A:BYTE			; cManager
EXTRN	?ConMember@@3VCConMember@@A:BYTE		; ConMember
EXTRN	?g_DevilSquare@@3VCDevilSquare@@A:BYTE		; g_DevilSquare
EXTRN	?g_BloodCastle@@3VCBloodCastle@@A:BYTE		; g_BloodCastle
EXTRN	?g_ChaosCastle@@3VCChaosCastle@@A:BYTE		; g_ChaosCastle
EXTRN	?g_MonsterItemMng@@3VCMonsterItemMng@@A:BYTE	; g_MonsterItemMng
EXTRN	?gEledoradoEvent@@3VCEledoradoEvent@@A:BYTE	; gEledoradoEvent
EXTRN	?g_QuestInfo@@3VCQuestInfo@@A:BYTE		; g_QuestInfo
EXTRN	?gSendHackLog@@3VCSendHackLog@@A:BYTE		; gSendHackLog
EXTRN	?gPacketCheckSum@@3VCPacketCheckSum@@A:BYTE	; gPacketCheckSum
EXTRN	?gSetItemOption@@3VCSetItemOption@@A:BYTE	; gSetItemOption
EXTRN	?gMoveCommand@@3VCMoveCommand@@A:BYTE		; gMoveCommand
EXTRN	?SkillSpearHitBox@@3VCSkillHitBox@@A:BYTE	; SkillSpearHitBox
EXTRN	?SkillElectricSparkHitBox@@3VCSkillHitBox@@A:BYTE ; SkillElectricSparkHitBox
EXTRN	?g_RingAttackEvent@@3VCRingAttackEvent@@A:BYTE	; g_RingAttackEvent
EXTRN	?g_EventManager@@3VCEventManagement@@A:BYTE	; g_EventManager
EXTRN	?gCurPaintPlayer@@3HA:DWORD			; gCurPaintPlayer
EXTRN	?gObjMonCount@@3HA:DWORD			; gObjMonCount
EXTRN	?gDisconnect@@3HA:DWORD				; gDisconnect
EXTRN	___security_cookie:DWORD
EXTRN	__fltused:DWORD
_BSS	SEGMENT
?gLCount@@3PAVCLoginCount@@A DD 06H DUP (?)		; gLCount
?lMsg@@3VCMsg@@A DB 020058H DUP (?)			; lMsg
?g_iChaosCastle_MonsterItems@@3PAY111HA DD 018H DUP (?)	; g_iChaosCastle_MonsterItems
?wsGServer@@3VCwsGameServer@@A DB 030H DUP (?)		; wsGServer
?wsJServerCli@@3VwsJoinServerCli@@A DB 0190028H DUP (?)	; wsJServerCli
?wsDataCli@@3VwsJoinServerCli@@A DB 0190034H DUP (?)	; wsDataCli
?wsExDbCli@@3VwsJoinServerCli@@A DB 0190034H DUP (?)	; wsExDbCli
?wsRServerCli@@3VwsJoinServerCli@@A DB 0190034H DUP (?)	; wsRServerCli
?wsEvenChipServerCli@@3VwsJoinServerCli@@A DB 0190034H DUP (?) ; wsEvenChipServerCli
?gDirPath@@3VCDirPath@@A DB 020cH DUP (?)		; gDirPath
?gMAttr@@3VCMonsterAttr@@A DB 0f804H DUP (?)		; gMAttr
?gMSetBase@@3VCMonsterSetBase@@A DB 010fe8H DUP (?)	; gMSetBase
?DCInfo@@3Vclassdef@@A DB 02ee8H DUP (?)		; DCInfo
?WhisperCash@@3VCWhisperCash@@A DB 038H DUP (?)		; WhisperCash
?gParty@@3VPartyClass@@A DB 056c88H DUP (?)		; gParty
?gDbSave@@3VCDbSave@@A DB 02cH DUP (?)			; gDbSave
?gUdpSoc@@3VWzUdp@@A DB 0860H DUP (?)			; gUdpSoc
?gUdpSocCE@@3VWzUdp@@A DB 0860H DUP (?)			; gUdpSocCE
?gUdpSocCER@@3VWzUdp@@A DB 0860H DUP (?)		; gUdpSocCER
?gUdpSocCRank@@3VWzUdp@@A DB 0860H DUP (?)		; gUdpSocCRank
?gUdpSocCRankR@@3VWzUdp@@A DB 0860H DUP (?)		; gUdpSocCRankR
?Guild@@3VCGuildClass@@A DB 014H DUP (?)		; Guild
	ALIGN	8

?gNSerialCheck@@3PAVNSerialCheck@@A DQ 01ce8H DUP (?)	; gNSerialCheck
?g_SimpleModulusCS@@3VCSimpleModulus@@A DB 044H DUP (?)	; g_SimpleModulusCS
?g_SimpleModulusSC@@3VCSimpleModulus@@A DB 044H DUP (?)	; g_SimpleModulusSC
_BSS	ENDS
CRT$XCU	SEGMENT
?g_iChaosCastle_MonsterItems$initializer$@@3P6AXXZA DD FLAT:??__Eg_iChaosCastle_MonsterItems@@YAXXZ ; g_iChaosCastle_MonsterItems$initializer$
CRT$XCU	ENDS
;	COMDAT __xmm@41f00000000000000000000000000000
CONST	SEGMENT
__xmm@41f00000000000000000000000000000 DB 00H, 00H, 00H, 00H, 00H, 00H, 00H
	DB	00H, 00H, 00H, 00H, 00H, 00H, 00H, 0f0H, 'A'
CONST	ENDS
;	COMDAT __real@41200000
CONST	SEGMENT
__real@41200000 DD 041200000r			; 10
CONST	ENDS
;	COMDAT __real@3fd999999999999a
CONST	SEGMENT
__real@3fd999999999999a DQ 03fd999999999999ar	; 0.4
CONST	ENDS
;	COMDAT __real@3fb999999999999a
CONST	SEGMENT
__real@3fb999999999999a DQ 03fb999999999999ar	; 0.1
CONST	ENDS
;	COMDAT __real@3f4ccccd
CONST	SEGMENT
__real@3f4ccccd DD 03f4ccccdr			; 0.8
CONST	ENDS
;	COMDAT ??_C@_0BK@HAJPAMCO@DarkLoadHeartOffEventRate@
CONST	SEGMENT
??_C@_0BK@HAJPAMCO@DarkLoadHeartOffEventRate@ DB 'DarkLoadHeartOffEventRa'
	DB	'te', 00H					; `string'
CONST	ENDS
;	COMDAT ??_C@_0BG@GAOBCKDF@DarkLordHeartDropRate@
CONST	SEGMENT
??_C@_0BG@GAOBCKDF@DarkLordHeartDropRate@ DB 'DarkLordHeartDropRate', 00H ; `string'
CONST	ENDS
;	COMDAT ??_C@_0BE@KJOHMGFA@EventManagement?4dat@
CONST	SEGMENT
??_C@_0BE@KJOHMGFA@EventManagement?4dat@ DB 'EventManagement.dat', 00H ; `string'
CONST	ENDS
;	COMDAT ??_C@_0P@JCOIPJAE@EventManagerOn@
CONST	SEGMENT
??_C@_0P@JCOIPJAE@EventManagerOn@ DB 'EventManagerOn', 00H ; `string'
CONST	ENDS
;	COMDAT ??_C@_0BD@BFEFAHKC@KundunMarkDropRate@
CONST	SEGMENT
??_C@_0BD@BFEFAHKC@KundunMarkDropRate@ DB 'KundunMarkDropRate', 00H ; `string'
CONST	ENDS
;	COMDAT ??_C@_0BB@EAJFBCDB@ChaosCastleEvent@
CONST	SEGMENT
??_C@_0BB@EAJFBCDB@ChaosCastleEvent@ DB 'ChaosCastleEvent', 00H ; `string'
CONST	ENDS
;	COMDAT ??_C@_0BA@LOKHGJIA@ChaosCastle?4dat@
CONST	SEGMENT
??_C@_0BA@LOKHGJIA@ChaosCastle?4dat@ DB 'ChaosCastle.dat', 00H ; `string'
CONST	ENDS
;	COMDAT ??_C@_0BB@HOHJFGOC@MerryXMasTalkNpc@
CONST	SEGMENT
??_C@_0BB@HOHJFGOC@MerryXMasTalkNpc@ DB 'MerryXMasTalkNpc', 00H ; `string'
CONST	ENDS
;	COMDAT ??_C@_0BE@MPGFIFAO@HappyNewYearTalkNpc@
CONST	SEGMENT
??_C@_0BE@MPGFIFAO@HappyNewYearTalkNpc@ DB 'HappyNewYearTalkNpc', 00H ; `string'
CONST	ENDS
;	COMDAT ??_C@_0BL@CMBFLADP@ItemDropRateForHeartOfLove@
CONST	SEGMENT
??_C@_0BL@CMBFLADP@ItemDropRateForHeartOfLove@ DB 'ItemDropRateForHeartOf'
	DB	'Love', 00H					; `string'
CONST	ENDS
;	COMDAT ??_C@_0BE@JJGBIMJB@HeartOfLoveDropRate@
CONST	SEGMENT
??_C@_0BE@JJGBIMJB@HeartOfLoveDropRate@ DB 'HeartOfLoveDropRate', 00H ; `string'
CONST	ENDS
;	COMDAT ??_C@_0BB@CGEJHOOF@HeartOfLoveEvent@
CONST	SEGMENT
??_C@_0BB@CGEJHOOF@HeartOfLoveEvent@ DB 'HeartOfLoveEvent', 00H ; `string'
CONST	ENDS
;	COMDAT ??_C@_0CE@BHNJHAEB@XMasEvent_ItemDropRateForStarOf@
CONST	SEGMENT
??_C@_0CE@BHNJHAEB@XMasEvent_ItemDropRateForStarOf@ DB 'XMasEvent_ItemDro'
	DB	'pRateForStarOfXMas', 00H			; `string'
CONST	ENDS
;	COMDAT ??_C@_0BN@EDHJHEEJ@XMasEvent_StarOfXMasDropRate@
CONST	SEGMENT
??_C@_0BN@EDHJHEEJ@XMasEvent_StarOfXMasDropRate@ DB 'XMasEvent_StarOfXMas'
	DB	'DropRate', 00H				; `string'
CONST	ENDS
;	COMDAT ??_C@_09HEEPAMKP@XMasEvent@
CONST	SEGMENT
??_C@_09HEEPAMKP@XMasEvent@ DB 'XMasEvent', 00H		; `string'
CONST	ENDS
;	COMDAT ??_C@_0BL@DECCHFKM@ItemDropRateForSilverMedal@
CONST	SEGMENT
??_C@_0BL@DECCHFKM@ItemDropRateForSilverMedal@ DB 'ItemDropRateForSilverM'
	DB	'edal', 00H					; `string'
CONST	ENDS
;	COMDAT ??_C@_0BJ@HJDOLNNF@ItemDropRateForGoldMedal@
CONST	SEGMENT
??_C@_0BJ@HJDOLNNF@ItemDropRateForGoldMedal@ DB 'ItemDropRateForGoldMedal'
	DB	00H						; `string'
CONST	ENDS
;	COMDAT ??_C@_0BE@OPKEGEPJ@SilverMedalDropRate@
CONST	SEGMENT
??_C@_0BE@OPKEGEPJ@SilverMedalDropRate@ DB 'SilverMedalDropRate', 00H ; `string'
CONST	ENDS
;	COMDAT ??_C@_0BC@CFKHOCLM@GoldMedalDropRate@
CONST	SEGMENT
??_C@_0BC@CFKHOCLM@GoldMedalDropRate@ DB 'GoldMedalDropRate', 00H ; `string'
CONST	ENDS
;	COMDAT ??_C@_0L@MDFHFAIK@MedalEvent@
CONST	SEGMENT
??_C@_0L@MDFHFAIK@MedalEvent@ DB 'MedalEvent', 00H	; `string'
CONST	ENDS
;	COMDAT ??_C@_0BJ@GHAOAAJB@OnlyFireCrackerEffectUse@
CONST	SEGMENT
??_C@_0BJ@GHAOAAJB@OnlyFireCrackerEffectUse@ DB 'OnlyFireCrackerEffectUse'
	DB	00H						; `string'
CONST	ENDS
;	COMDAT ??_C@_0BL@EHKPPMMG@ItemDropRateForFireCracker@
CONST	SEGMENT
??_C@_0BL@EHKPPMMG@ItemDropRateForFireCracker@ DB 'ItemDropRateForFireCra'
	DB	'cker', 00H					; `string'
CONST	ENDS
;	COMDAT ??_C@_0BE@KPFNOKLC@FireCrackerDropRate@
CONST	SEGMENT
??_C@_0BE@KPFNOKLC@FireCrackerDropRate@ DB 'FireCrackerDropRate', 00H ; `string'
CONST	ENDS
;	COMDAT ??_C@_0BB@PMGPGCOG@FireCrackerEvent@
CONST	SEGMENT
??_C@_0BB@PMGPGCOG@FireCrackerEvent@ DB 'FireCrackerEvent', 00H ; `string'
CONST	ENDS
;	COMDAT ??_C@_0BL@ENBIHHCD@Event1ItemDropTodayPercent@
CONST	SEGMENT
??_C@_0BL@ENBIHHCD@Event1ItemDropTodayPercent@ DB 'Event1ItemDropTodayPer'
	DB	'cent', 00H					; `string'
CONST	ENDS
;	COMDAT ??_C@_08KDEPFNAG@10000000@
CONST	SEGMENT
??_C@_08KDEPFNAG@10000000@ DB '10000000', 00H		; `string'
CONST	ENDS
;	COMDAT ??_C@_0BH@LPINNCM@Event1ItemDropTodayMax@
CONST	SEGMENT
??_C@_0BH@LPINNCM@Event1ItemDropTodayMax@ DB 'Event1ItemDropTodayMax', 00H ; `string'
CONST	ENDS
;	COMDAT ??_C@_06OIEHOIFM@EVENT1@
CONST	SEGMENT
??_C@_06OIEHOIFM@EVENT1@ DB 'EVENT1', 00H		; `string'
CONST	ENDS
;	COMDAT ??_C@_0BE@BHMFOLMK@RingAttackEvent?4dat@
CONST	SEGMENT
??_C@_0BE@BHMFOLMK@RingAttackEvent?4dat@ DB 'RingAttackEvent.dat', 00H ; `string'
CONST	ENDS
;	COMDAT ??_C@_0BB@NMFCKOP@RingDropGiftRate@
CONST	SEGMENT
??_C@_0BB@NMFCKOP@RingDropGiftRate@ DB 'RingDropGiftRate', 00H ; `string'
CONST	ENDS
;	COMDAT ??_C@_0BE@PAGFJHNK@RingOrcKillGiftRate@
CONST	SEGMENT
??_C@_0BE@PAGFJHNK@RingOrcKillGiftRate@ DB 'RingOrcKillGiftRate', 00H ; `string'
CONST	ENDS
;	COMDAT ??_C@_05CLDMBJBA@10000@
CONST	SEGMENT
??_C@_05CLDMBJBA@10000@ DB '10000', 00H			; `string'
CONST	ENDS
;	COMDAT ??_C@_0BA@PGIAALHL@RingAttackEvent@
CONST	SEGMENT
??_C@_0BA@PGIAALHL@RingAttackEvent@ DB 'RingAttackEvent', 00H ; `string'
CONST	ENDS
;	COMDAT ??_C@_0CF@FONHIJD@EledoradoDevilTantarosExItemDro@
CONST	SEGMENT
??_C@_0CF@FONHIJD@EledoradoDevilTantarosExItemDro@ DB 'EledoradoDevilTant'
	DB	'arosExItemDropRate', 00H			; `string'
CONST	ENDS
;	COMDAT ??_C@_0CH@JKCOIHDD@EledoradoDevilLizardKingExItemD@
CONST	SEGMENT
??_C@_0CH@JKCOIHDD@EledoradoDevilLizardKingExItemD@ DB 'EledoradoDevilLiz'
	DB	'ardKingExItemDropRate', 00H			; `string'
CONST	ENDS
;	COMDAT ??_C@_0CC@KKKCNGAN@EledoradoGoldDerconExItemDropRa@
CONST	SEGMENT
??_C@_0CC@KKKCNGAN@EledoradoGoldDerconExItemDropRa@ DB 'EledoradoGoldDerc'
	DB	'onExItemDropRate', 00H			; `string'
CONST	ENDS
;	COMDAT ??_C@_0BN@EPBKFBD@EledoradoTitanExItemDropRate@
CONST	SEGMENT
??_C@_0BN@EPBKFBD@EledoradoTitanExItemDropRate@ DB 'EledoradoTitanExItemD'
	DB	'ropRate', 00H				; `string'
CONST	ENDS
;	COMDAT ??_C@_0CC@FBLILEOL@EledoradoGoldGoblenExItemDropRa@
CONST	SEGMENT
??_C@_0CC@FBLILEOL@EledoradoGoldGoblenExItemDropRa@ DB 'EledoradoGoldGobl'
	DB	'enExItemDropRate', 00H			; `string'
CONST	ENDS
;	COMDAT ??_C@_0CD@FBDNNLBJ@EledoradoDevilTantarosItemDropR@
CONST	SEGMENT
??_C@_0CD@FBDNNLBJ@EledoradoDevilTantarosItemDropR@ DB 'EledoradoDevilTan'
	DB	'tarosItemDropRate', 00H			; `string'
CONST	ENDS
;	COMDAT ??_C@_0CF@JGNHCKNH@EledoradoDevilLizardKingItemDro@
CONST	SEGMENT
??_C@_0CF@JGNHCKNH@EledoradoDevilLizardKingItemDro@ DB 'EledoradoDevilLiz'
	DB	'ardKingItemDropRate', 00H			; `string'
CONST	ENDS
;	COMDAT ??_C@_0CA@DLLDAHDE@EledoradoGoldDerconItemDropRate@
CONST	SEGMENT
??_C@_0CA@DLLDAHDE@EledoradoGoldDerconItemDropRate@ DB 'EledoradoGoldDerc'
	DB	'onItemDropRate', 00H			; `string'
CONST	ENDS
;	COMDAT ??_C@_0BL@CKBDCOGC@EledoradoTitanItemDropRate@
CONST	SEGMENT
??_C@_0BL@CKBDCOGC@EledoradoTitanItemDropRate@ DB 'EledoradoTitanItemDrop'
	DB	'Rate', 00H					; `string'
CONST	ENDS
;	COMDAT ??_C@_0CA@HENEMHED@EledoradoGoldGoblenItemDropRate@
CONST	SEGMENT
??_C@_0CA@HENEMHED@EledoradoGoldGoblenItemDropRate@ DB 'EledoradoGoldGobl'
	DB	'enItemDropRate', 00H			; `string'
CONST	ENDS
;	COMDAT ??_C@_0CA@PDCIOFIF@EledoradoDevilTantarosRegenTime@
CONST	SEGMENT
??_C@_0CA@PDCIOFIF@EledoradoDevilTantarosRegenTime@ DB 'EledoradoDevilTan'
	DB	'tarosRegenTime', 00H			; `string'
CONST	ENDS
;	COMDAT ??_C@_0CC@KCJCENFB@EledoradoDevilLizardKingRegenTi@
CONST	SEGMENT
??_C@_0CC@KCJCENFB@EledoradoDevilLizardKingRegenTi@ DB 'EledoradoDevilLiz'
	DB	'ardKingRegenTime', 00H			; `string'
CONST	ENDS
;	COMDAT ??_C@_0BN@IJGMJJEJ@EledoradoGoldDerconRegenTime@
CONST	SEGMENT
??_C@_0BN@IJGMJJEJ@EledoradoGoldDerconRegenTime@ DB 'EledoradoGoldDerconR'
	DB	'egenTime', 00H				; `string'
CONST	ENDS
;	COMDAT ??_C@_0BI@KJLIHAFL@EledoradoTitanRegenTime@
CONST	SEGMENT
??_C@_0BI@KJLIHAFL@EledoradoTitanRegenTime@ DB 'EledoradoTitanRegenTime', 00H ; `string'
CONST	ENDS
;	COMDAT ??_C@_0BN@GMFOFBJF@EledoradoGoldGoblenRegenTime@
CONST	SEGMENT
??_C@_0BN@GMFOFBJF@EledoradoGoldGoblenRegenTime@ DB 'EledoradoGoldGoblenR'
	DB	'egenTime', 00H				; `string'
CONST	ENDS
;	COMDAT ??_C@_0BB@OEKAOOOA@IsEledoradoEvent@
CONST	SEGMENT
??_C@_0BB@OEKAOOOA@IsEledoradoEvent@ DB 'IsEledoradoEvent', 00H ; `string'
CONST	ENDS
;	COMDAT ??_C@_0BF@LANDNGMH@AttackEventRegenTime@
CONST	SEGMENT
??_C@_0BF@LANDNGMH@AttackEventRegenTime@ DB 'AttackEventRegenTime', 00H ; `string'
CONST	ENDS
;	COMDAT ??_C@_0BI@CNLFMLJF@DarkSpiritAddExperience@
CONST	SEGMENT
??_C@_0BI@CNLFMLJF@DarkSpiritAddExperience@ DB 'DarkSpiritAddExperience', 00H ; `string'
CONST	ENDS
;	COMDAT ??_C@_0BK@ILHFEAJE@SoulOfDarkSpiritDropLevel@
CONST	SEGMENT
??_C@_0BK@ILHFEAJE@SoulOfDarkSpiritDropLevel@ DB 'SoulOfDarkSpiritDropLev'
	DB	'el', 00H					; `string'
CONST	ENDS
;	COMDAT ??_C@_0BJ@NMMKDJPD@SoulOfDarkSpiritDropRate@
CONST	SEGMENT
??_C@_0BJ@NMMKDJPD@SoulOfDarkSpiritDropRate@ DB 'SoulOfDarkSpiritDropRate'
	DB	00H						; `string'
CONST	ENDS
;	COMDAT ??_C@_0BI@POMKNKAO@SoulOfDarkHorseropLevel@
CONST	SEGMENT
??_C@_0BI@POMKNKAO@SoulOfDarkHorseropLevel@ DB 'SoulOfDarkHorseropLevel', 00H ; `string'
CONST	ENDS
;	COMDAT ??_C@_0BI@LEJIBFOD@SoulOfDarkHorseDropRate@
CONST	SEGMENT
??_C@_0BI@LEJIBFOD@SoulOfDarkHorseDropRate@ DB 'SoulOfDarkHorseDropRate', 00H ; `string'
CONST	ENDS
;	COMDAT ??_C@_0BG@KOOOBGPO@SleeveOfLordDropLevel@
CONST	SEGMENT
??_C@_0BG@KOOOBGPO@SleeveOfLordDropLevel@ DB 'SleeveOfLordDropLevel', 00H ; `string'
CONST	ENDS
;	COMDAT ??_C@_0BF@CIEOPDEB@SleeveOfLordDropRate@
CONST	SEGMENT
??_C@_0BF@CIEOPDEB@SleeveOfLordDropRate@ DB 'SleeveOfLordDropRate', 00H ; `string'
CONST	ENDS
;	COMDAT ??_C@_0BD@KIIHPPEC@IsDropDarkLordItem@
CONST	SEGMENT
??_C@_0BD@KIIHPPEC@IsDropDarkLordItem@ DB 'IsDropDarkLordItem', 00H ; `string'
CONST	ENDS
;	COMDAT ??_C@_0O@PBCFFJJH@StoneDropRate@
CONST	SEGMENT
??_C@_0O@PBCFFJJH@StoneDropRate@ DB 'StoneDropRate', 00H ; `string'
CONST	ENDS
;	COMDAT ??_C@_0BC@NGLLHLOE@BloodBoneDropRate@
CONST	SEGMENT
??_C@_0BC@NGLLHLOE@BloodBoneDropRate@ DB 'BloodBoneDropRate', 00H ; `string'
CONST	ENDS
;	COMDAT ??_C@_0BI@KPDDGOOE@AngelKingsPaperDropRate@
CONST	SEGMENT
??_C@_0BI@KPDDGOOE@AngelKingsPaperDropRate@ DB 'AngelKingsPaperDropRate', 00H ; `string'
CONST	ENDS
;	COMDAT ??_C@_0BF@DLNBCIAJ@BloodCastleStartHour@
CONST	SEGMENT
??_C@_0BF@DLNBCIAJ@BloodCastleStartHour@ DB 'BloodCastleStartHour', 00H ; `string'
CONST	ENDS
;	COMDAT ??_C@_0BB@DHAFCNAC@BloodCastleEvent@
CONST	SEGMENT
??_C@_0BB@DHAFCNAC@BloodCastleEvent@ DB 'BloodCastleEvent', 00H ; `string'
CONST	ENDS
;	COMDAT ??_C@_0BA@CJKIMMIB@BloodCastle?4dat@
CONST	SEGMENT
??_C@_0BA@CJKIMMIB@BloodCastle?4dat@ DB 'BloodCastle.dat', 00H ; `string'
CONST	ENDS
;	COMDAT ??_C@_0BJ@DHGJEDK@KeyOfDevilSquareDropRate@
CONST	SEGMENT
??_C@_0BJ@DHGJEDK@KeyOfDevilSquareDropRate@ DB 'KeyOfDevilSquareDropRate', 00H ; `string'
CONST	ENDS
;	COMDAT ??_C@_0BK@NJHGKMMN@EyesOfDevilSquareDropRate@
CONST	SEGMENT
??_C@_0BK@NJHGKMMN@EyesOfDevilSquareDropRate@ DB 'EyesOfDevilSquareDropRa'
	DB	'te', 00H					; `string'
CONST	ENDS
;	COMDAT ??_C@_0BB@PNANPJHI@DevilSquareEvent@
CONST	SEGMENT
??_C@_0BB@PNANPJHI@DevilSquareEvent@ DB 'DevilSquareEvent', 00H ; `string'
CONST	ENDS
;	COMDAT ??_C@_0BA@JLLODMHA@DevilSquare?4dat@
CONST	SEGMENT
??_C@_0BA@JLLODMHA@DevilSquare?4dat@ DB 'DevilSquare.dat', 00H ; `string'
CONST	ENDS
;	COMDAT ??_C@_0BD@OGIICKJ@eventitembag17?4txt@
CONST	SEGMENT
??_C@_0BD@OGIICKJ@eventitembag17?4txt@ DB 'eventitembag17.txt', 00H ; `string'
CONST	ENDS
;	COMDAT ??_C@_0BD@EDKACDKC@eventitembag15?4txt@
CONST	SEGMENT
??_C@_0BD@EDKACDKC@eventitembag15?4txt@ DB 'eventitembag15.txt', 00H ; `string'
CONST	ENDS
;	COMDAT ??_C@_0BD@IIPMPAAH@eventitembag14?4txt@
CONST	SEGMENT
??_C@_0BD@IIPMPAAH@eventitembag14?4txt@ DB 'eventitembag14.txt', 00H ; `string'
CONST	ENDS
;	COMDAT ??_C@_0BD@JFPJMALP@eventitembag13?4txt@
CONST	SEGMENT
??_C@_0BD@JFPJMALP@eventitembag13?4txt@ DB 'eventitembag13.txt', 00H ; `string'
CONST	ENDS
;	COMDAT ??_C@_0BD@FOKFBDBK@eventitembag12?4txt@
CONST	SEGMENT
??_C@_0BD@FOKFBDBK@eventitembag12?4txt@ DB 'eventitembag12.txt', 00H ; `string'
CONST	ENDS
;	COMDAT ??_C@_0BD@NIDBGBLE@eventitembag11?4txt@
CONST	SEGMENT
??_C@_0BD@NIDBGBLE@eventitembag11?4txt@ DB 'eventitembag11.txt', 00H ; `string'
CONST	ENDS
;	COMDAT ??_C@_0BD@BDGNLCBB@eventitembag10?4txt@
CONST	SEGMENT
??_C@_0BD@BDGNLCBB@eventitembag10?4txt@ DB 'eventitembag10.txt', 00H ; `string'
CONST	ENDS
;	COMDAT ??_C@_0BC@GENOAABN@eventitembag9?4txt@
CONST	SEGMENT
??_C@_0BC@GENOAABN@eventitembag9?4txt@ DB 'eventitembag9.txt', 00H ; `string'
CONST	ENDS
;	COMDAT ??_C@_0BC@KPICNDLI@eventitembag8?4txt@
CONST	SEGMENT
??_C@_0BC@KPICNDLI@eventitembag8?4txt@ DB 'eventitembag8.txt', 00H ; `string'
CONST	ENDS
;	COMDAT ??_C@_0BC@FONEGBGN@eventitembag7?4txt@
CONST	SEGMENT
??_C@_0BC@FONEGBGN@eventitembag7?4txt@ DB 'eventitembag7.txt', 00H ; `string'
CONST	ENDS
;	COMDAT ??_C@_0BC@JFIILCMI@eventitembag6?4txt@
CONST	SEGMENT
??_C@_0BC@JFIILCMI@eventitembag6?4txt@ DB 'eventitembag6.txt', 00H ; `string'
CONST	ENDS
;	COMDAT ??_C@_0BC@BDBMMAGG@eventitembag5?4txt@
CONST	SEGMENT
??_C@_0BC@BDBMMAGG@eventitembag5?4txt@ DB 'eventitembag5.txt', 00H ; `string'
CONST	ENDS
;	COMDAT ??_C@_0BC@NIEABDMD@eventitembag4?4txt@
CONST	SEGMENT
??_C@_0BC@NIEABDMD@eventitembag4?4txt@ DB 'eventitembag4.txt', 00H ; `string'
CONST	ENDS
;	COMDAT ??_C@_0BC@MFEFCDHL@eventitembag3?4txt@
CONST	SEGMENT
??_C@_0BC@MFEFCDHL@eventitembag3?4txt@ DB 'eventitembag3.txt', 00H ; `string'
CONST	ENDS
;	COMDAT ??_C@_0BC@OBJPANO@eventitembag2?4txt@
CONST	SEGMENT
??_C@_0BC@OBJPANO@eventitembag2?4txt@ DB 'eventitembag2.txt', 00H ; `string'
CONST	ENDS
;	COMDAT ??_C@_0BB@DBBPHKAA@eventitembag?4txt@
CONST	SEGMENT
??_C@_0BB@DBBPHKAA@eventitembag?4txt@ DB 'eventitembag.txt', 00H ; `string'
CONST	ENDS
;	COMDAT ??_C@_0M@GNOCDNGL@CItemBag?5?$CFs@
CONST	SEGMENT
??_C@_0M@GNOCDNGL@CItemBag?5?$CFs@ DB 'CItemBag %s', 00H ; `string'
CONST	ENDS
;	COMDAT ??_C@_0BC@JAIHNJEB@?$CFs?5file?5not?5found@
CONST	SEGMENT
??_C@_0BC@JAIHNJEB@?$CFs?5file?5not?5found@ DB '%s file not found', 00H ; `string'
CONST	ENDS
;	COMDAT ??_C@_02JDPG@rb@
CONST	SEGMENT
??_C@_02JDPG@rb@ DB 'rb', 00H				; `string'
CONST	ENDS
;	COMDAT ??_C@_0BK@PPGGKBGC@?4?4?2data?2BalanceSystem?4ini@
CONST	SEGMENT
??_C@_0BK@PPGGKBGC@?4?4?2data?2BalanceSystem?4ini@ DB '..\data\BalanceSys'
	DB	'tem.ini', 00H				; `string'
CONST	ENDS
;	COMDAT ??_C@_0BI@NOFODAGC@?4?4?2data?2ArrowSystem?4cfg@
CONST	SEGMENT
??_C@_0BI@NOFODAGC@?4?4?2data?2ArrowSystem?4cfg@ DB '..\data\ArrowSystem.'
	DB	'cfg', 00H					; `string'
CONST	ENDS
;	COMDAT ??_C@_0BF@BJNKEBMD@?4?4?2data?2PVPEvent?4cfg@
CONST	SEGMENT
??_C@_0BF@BJNKEBMD@?4?4?2data?2PVPEvent?4cfg@ DB '..\data\PVPEvent.cfg', 00H ; `string'
CONST	ENDS
;	COMDAT ??_C@_09JEDNLJFC@BonusCash@
CONST	SEGMENT
??_C@_09JEDNLJFC@BonusCash@ DB 'BonusCash', 00H		; `string'
CONST	ENDS
;	COMDAT ??_C@_09CAFPCKBI@BonusTime@
CONST	SEGMENT
??_C@_09CAFPCKBI@BonusTime@ DB 'BonusTime', 00H		; `string'
CONST	ENDS
;	COMDAT ??_C@_05JKBOBFBJ@Bonus@
CONST	SEGMENT
??_C@_05JKBOBFBJ@Bonus@ DB 'Bonus', 00H			; `string'
CONST	ENDS
;	COMDAT ??_C@_0M@DGOLEIPN@BonusSystem@
CONST	SEGMENT
??_C@_0M@DGOLEIPN@BonusSystem@ DB 'BonusSystem', 00H	; `string'
CONST	ENDS
;	COMDAT ??_C@_0BA@PCIIIHII@OnlineBonus?4ini@
CONST	SEGMENT
??_C@_0BA@PCIIIHII@OnlineBonus?4ini@ DB 'OnlineBonus.ini', 00H ; `string'
CONST	ENDS
;	COMDAT ??_C@_0BL@OPACNGLO@SkillDistanceKickCheckTime@
CONST	SEGMENT
??_C@_0BL@OPACNGLO@SkillDistanceKickCheckTime@ DB 'SkillDistanceKickCheck'
	DB	'Time', 00H					; `string'
CONST	ENDS
;	COMDAT ??_C@_0BH@FHPEPELH@SkillDistanceKickCount@
CONST	SEGMENT
??_C@_0BH@FHPEPELH@SkillDistanceKickCount@ DB 'SkillDistanceKickCount', 00H ; `string'
CONST	ENDS
;	COMDAT ??_C@_0BC@PMNMLGGJ@SkillDistanceKick@
CONST	SEGMENT
??_C@_0BC@PMNMLGGJ@SkillDistanceKick@ DB 'SkillDistanceKick', 00H ; `string'
CONST	ENDS
;	COMDAT ??_C@_0BH@KNOFMFOO@SkillDistanceCheckTemp@
CONST	SEGMENT
??_C@_0BH@KNOFMFOO@SkillDistanceCheckTemp@ DB 'SkillDistanceCheckTemp', 00H ; `string'
CONST	ENDS
;	COMDAT ??_C@_0BD@EINABCJP@SkillDistanceCheck@
CONST	SEGMENT
??_C@_0BD@EINABCJP@SkillDistanceCheck@ DB 'SkillDistanceCheck', 00H ; `string'
CONST	ENDS
;	COMDAT ??_C@_0BB@IPFJJFBE@PersonalShopOpen@
CONST	SEGMENT
??_C@_0BB@IPFJJFBE@PersonalShopOpen@ DB 'PersonalShopOpen', 00H ; `string'
CONST	ENDS
;	COMDAT ??_C@_0BA@MDPIHCPH@?$CFs?5?$FL?$CFu?$FN?$FL?$CFu?$FN?$FL?$CFu?$FN@
CONST	SEGMENT
??_C@_0BA@MDPIHCPH@?$CFs?5?$FL?$CFu?$FN?$FL?$CFu?$FN?$FL?$CFu?$FN@ DB '%s'
	DB	' [%u][%u][%u]', 00H				; `string'
CONST	ENDS
;	COMDAT ??_C@_0BG@OEMBKLAL@User?5Object?5Size?5?$DN?5?$CFd@
CONST	SEGMENT
??_C@_0BG@OEMBKLAL@User?5Object?5Size?5?$DN?5?$CFd@ DB 'User Object Size '
	DB	'= %d', 00H					; `string'
CONST	ENDS
;	COMDAT ??_C@_05LFHGFJK@?$CFs_?$CFd@
CONST	SEGMENT
??_C@_05LFHGFJK@?$CFs_?$CFd@ DB '%s_%d', 00H		; `string'
CONST	ENDS
;	COMDAT ??_C@_0P@CECKIAHO@CheckSpeedHack@
CONST	SEGMENT
??_C@_0P@CECKIAHO@CheckSpeedHack@ DB 'CheckSpeedHack', 00H ; `string'
CONST	ENDS
;	COMDAT ??_C@_0BM@CEPJPHJK@EnableCheckPenetrationSkill@
CONST	SEGMENT
??_C@_0BM@CEPJPHJK@EnableCheckPenetrationSkill@ DB 'EnableCheckPenetratio'
	DB	'nSkill', 00H				; `string'
CONST	ENDS
;	COMDAT ??_C@_0O@KKNNPAMK@HackLogServer@
CONST	SEGMENT
??_C@_0O@KKNNPAMK@HackLogServer@ DB 'HackLogServer', 00H ; `string'
CONST	ENDS
;	COMDAT ??_C@_09NPFFCDOK@10?41?42?469@
CONST	SEGMENT
??_C@_09NPFFCDOK@10?41?42?469@ DB '10.1.2.69', 00H	; `string'
CONST	ENDS
;	COMDAT ??_C@_0BF@PDBLMKBC@EnableServerDivision@
CONST	SEGMENT
??_C@_0BF@PDBLMKBC@EnableServerDivision@ DB 'EnableServerDivision', 00H ; `string'
CONST	ENDS
;	COMDAT ??_C@_0BD@NKHABGBC@EnableEventNPCTalk@
CONST	SEGMENT
??_C@_0BD@NKHABGBC@EnableEventNPCTalk@ DB 'EnableEventNPCTalk', 00H ; `string'
CONST	ENDS
;	COMDAT ??_C@_0BD@FPCMGBCA@EnableBattleSoccer@
CONST	SEGMENT
??_C@_0BD@FPCMGBCA@EnableBattleSoccer@ DB 'EnableBattleSoccer', 00H ; `string'
CONST	ENDS
;	COMDAT ??_C@_0BA@CEGABCOE@ApplyHeroSystem@
CONST	SEGMENT
??_C@_0BA@CEGABCOE@ApplyHeroSystem@ DB 'ApplyHeroSystem', 00H ; `string'
CONST	ENDS
;	COMDAT ??_C@_0BC@FMIEAAIA@EventChipServerIp@
CONST	SEGMENT
??_C@_0BC@FMIEAAIA@EventChipServerIp@ DB 'EventChipServerIp', 00H ; `string'
CONST	ENDS
;	COMDAT ??_C@_0P@PKCHKPDI@192?4168?410?4150@
CONST	SEGMENT
??_C@_0P@PKCHKPDI@192?4168?410?4150@ DB '192.168.10.150', 00H ; `string'
CONST	ENDS
;	COMDAT ??_C@_0BH@FIEEIIMF@EventChipServerConnect@
CONST	SEGMENT
??_C@_0BH@FIEEIIMF@EventChipServerConnect@ DB 'EventChipServerConnect', 00H ; `string'
CONST	ENDS
;	COMDAT ??_C@_0BH@DJHELGEN@DevilSquareEventServer@
CONST	SEGMENT
??_C@_0BH@DJHELGEN@DevilSquareEventServer@ DB 'DevilSquareEventServer', 00H ; `string'
CONST	ENDS
;	COMDAT ??_C@_0BI@KCKMEMOI@DevilSquareEventConnect@
CONST	SEGMENT
??_C@_0BI@KCKMEMOI@DevilSquareEventConnect@ DB 'DevilSquareEventConnect', 00H ; `string'
CONST	ENDS
;	COMDAT ??_C@_04HDFGONMM@PORT@
CONST	SEGMENT
??_C@_04HDFGONMM@PORT@ DB 'PORT', 00H			; `string'
CONST	ENDS
;	COMDAT ??_C@_0BC@IKLEIAKB@ConnectServerInfo@
CONST	SEGMENT
??_C@_0BC@IKLEIAKB@ConnectServerInfo@ DB 'ConnectServerInfo', 00H ; `string'
CONST	ENDS
;	COMDAT ??_C@_02MFEOMNPG@IP@
CONST	SEGMENT
??_C@_02MFEOMNPG@IP@ DB 'IP', 00H			; `string'
CONST	ENDS
;	COMDAT ??_C@_0BG@LKNKPNDE@ShadowPhantomMaxLevel@
CONST	SEGMENT
??_C@_0BG@LKNKPNDE@ShadowPhantomMaxLevel@ DB 'ShadowPhantomMaxLevel', 00H ; `string'
CONST	ENDS
;	COMDAT ??_C@_0BD@JLEDGMHA@KundunRefillHPTime@
CONST	SEGMENT
??_C@_0BD@JLEDGMHA@KundunRefillHPTime@ DB 'KundunRefillHPTime', 00H ; `string'
CONST	ENDS
;	COMDAT ??_C@_0P@CHMHAEOB@KundunRefillHP@
CONST	SEGMENT
??_C@_0P@CHMHAEOB@KundunRefillHP@ DB 'KundunRefillHP', 00H ; `string'
CONST	ENDS
;	COMDAT ??_C@_0BC@BADILJEE@KundunRefillHPSec@
CONST	SEGMENT
??_C@_0BC@BADILJEE@KundunRefillHPSec@ DB 'KundunRefillHPSec', 00H ; `string'
CONST	ENDS
;	COMDAT ??_C@_0BF@HDFDIILJ@QuestNPCTeleportTime@
CONST	SEGMENT
??_C@_0BF@HDFDIILJ@QuestNPCTeleportTime@ DB 'QuestNPCTeleportTime', 00H ; `string'
CONST	ENDS
;	COMDAT ??_C@_0O@DJJFJNIL@WriteSkillLog@
CONST	SEGMENT
??_C@_0O@DJJFJNIL@WriteSkillLog@ DB 'WriteSkillLog', 00H ; `string'
CONST	ENDS
;	COMDAT ??_C@_0BJ@PDDPDJGE@DQChaosSuccessRateLevel4@
CONST	SEGMENT
??_C@_0BJ@PDDPDJGE@DQChaosSuccessRateLevel4@ DB 'DQChaosSuccessRateLevel4'
	DB	00H						; `string'
CONST	ENDS
;	COMDAT ??_C@_0BJ@LMHOKPKD@DQChaosSuccessRateLevel3@
CONST	SEGMENT
??_C@_0BJ@LMHOKPKD@DQChaosSuccessRateLevel3@ DB 'DQChaosSuccessRateLevel3'
	DB	00H						; `string'
CONST	ENDS
;	COMDAT ??_C@_0BJ@KFGFJOOC@DQChaosSuccessRateLevel2@
CONST	SEGMENT
??_C@_0BJ@KFGFJOOC@DQChaosSuccessRateLevel2@ DB 'DQChaosSuccessRateLevel2'
	DB	00H						; `string'
CONST	ENDS
;	COMDAT ??_C@_0BJ@IOEIMNCB@DQChaosSuccessRateLevel1@
CONST	SEGMENT
??_C@_0BJ@IOEIMNCB@DQChaosSuccessRateLevel1@ DB 'DQChaosSuccessRateLevel1'
	DB	00H						; `string'
CONST	ENDS
;	COMDAT ??_C@_0BB@MCFEHCJF@SpeedHackPenalty@
CONST	SEGMENT
??_C@_0BB@MCFEHCJF@SpeedHackPenalty@ DB 'SpeedHackPenalty', 00H ; `string'
CONST	ENDS
;	COMDAT ??_C@_0BG@MPJHCBCJ@DecTimePerAttackSpeed@
CONST	SEGMENT
??_C@_0BG@MPJHCBCJ@DecTimePerAttackSpeed@ DB 'DecTimePerAttackSpeed', 00H ; `string'
CONST	ENDS
;	COMDAT ??_C@_04MCLHNJOA@5?433@
CONST	SEGMENT
??_C@_04MCLHNJOA@5?433@ DB '5.33', 00H			; `string'
CONST	ENDS
;	COMDAT ??_C@_0BA@OAOAELOO@UseNPGGChecksum@
CONST	SEGMENT
??_C@_0BA@OAOAELOO@UseNPGGChecksum@ DB 'UseNPGGChecksum', 00H ; `string'
CONST	ENDS
;	COMDAT ??_C@_0BD@OBHCBKDC@DisconnectHackUser@
CONST	SEGMENT
??_C@_0BD@OBHCBKDC@DisconnectHackUser@ DB 'DisconnectHackUser', 00H ; `string'
CONST	ENDS
;	COMDAT ??_C@_0N@OGIIBFAP@WriteChatLog@
CONST	SEGMENT
??_C@_0N@OGIIBFAP@WriteChatLog@ DB 'WriteChatLog', 00H	; `string'
CONST	ENDS
;	COMDAT ??_C@_0BI@IMCEGONI@ItemDropRingOfTransform@
CONST	SEGMENT
??_C@_0BI@IMCEGONI@ItemDropRingOfTransform@ DB 'ItemDropRingOfTransform', 00H ; `string'
CONST	ENDS
;	COMDAT ??_C@_0BK@JABOLCNK@IsItemDropRingOfTransform@
CONST	SEGMENT
??_C@_0BK@JABOLCNK@IsItemDropRingOfTransform@ DB 'IsItemDropRingOfTransfo'
	DB	'rm', 00H					; `string'
CONST	ENDS
;	COMDAT ??_C@_0BK@JCJPKDIP@IsKickDetecHackCountLimit@
CONST	SEGMENT
??_C@_0BK@JCJPKDIP@IsKickDetecHackCountLimit@ DB 'IsKickDetecHackCountLim'
	DB	'it', 00H					; `string'
CONST	ENDS
;	COMDAT ??_C@_0BG@GBBHJJPD@DetectedHackKickCount@
CONST	SEGMENT
??_C@_0BG@GBBHJJPD@DetectedHackKickCount@ DB 'DetectedHackKickCount', 00H ; `string'
CONST	ENDS
;	COMDAT ??_C@_0BH@CLHIGLBH@MinimumAttackSpeedTime@
CONST	SEGMENT
??_C@_0BH@CLHIGLBH@MinimumAttackSpeedTime@ DB 'MinimumAttackSpeedTime', 00H ; `string'
CONST	ENDS
;	COMDAT ??_C@_0P@FNJLIJMF@HackCheckCount@
CONST	SEGMENT
??_C@_0P@FNJLIJMF@HackCheckCount@ DB 'HackCheckCount', 00H ; `string'
CONST	ENDS
;	COMDAT ??_C@_0BJ@KEAABHOA@IsIgnorePacketHackDetect@
CONST	SEGMENT
??_C@_0BJ@KEAABHOA@IsIgnorePacketHackDetect@ DB 'IsIgnorePacketHackDetect'
	DB	00H						; `string'
CONST	ENDS
;	COMDAT ??_C@_0BF@EDGAONAD@AttackSpeedTimeLimit@
CONST	SEGMENT
??_C@_0BF@EDGAONAD@AttackSpeedTimeLimit@ DB 'AttackSpeedTimeLimit', 00H ; `string'
CONST	ENDS
;	COMDAT ??_C@_0BO@DEAIHFPL@EventChipDropRateForBoxOfGold@
CONST	SEGMENT
??_C@_0BO@DEAIHFPL@EventChipDropRateForBoxOfGold@ DB 'EventChipDropRateFo'
	DB	'rBoxOfGold', 00H				; `string'
CONST	ENDS
;	COMDAT ??_C@_0BJ@GLDGDDON@ItemDropRateForBoxOfGold@
CONST	SEGMENT
??_C@_0BJ@GLDGDDON@ItemDropRateForBoxOfGold@ DB 'ItemDropRateForBoxOfGold'
	DB	00H						; `string'
CONST	ENDS
;	COMDAT ??_C@_0BC@FNNFHNFE@BoxOfGoldDropRate@
CONST	SEGMENT
??_C@_0BC@FNNFHNFE@BoxOfGoldDropRate@ DB 'BoxOfGoldDropRate', 00H ; `string'
CONST	ENDS
;	COMDAT ??_C@_0P@MCKGBBMK@EventChipEvent@
CONST	SEGMENT
??_C@_0P@MCKGBBMK@EventChipEvent@ DB 'EventChipEvent', 00H ; `string'
CONST	ENDS
;	COMDAT ??_C@_0BB@OMEMPADG@ItemDurationTime@
CONST	SEGMENT
??_C@_0BB@OMEMPADG@ItemDurationTime@ DB 'ItemDurationTime', 00H ; `string'
CONST	ENDS
;	COMDAT ??_C@_0BA@LODEADPK@ZenDurationTime@
CONST	SEGMENT
??_C@_0BA@LODEADPK@ZenDurationTime@ DB 'ZenDurationTime', 00H ; `string'
CONST	ENDS
;	COMDAT ??_C@_0M@LDLBHBAP@ItemDropPer@
CONST	SEGMENT
??_C@_0M@LDLBHBAP@ItemDropPer@ DB 'ItemDropPer', 00H	; `string'
CONST	ENDS
;	COMDAT ??_C@_02PKFBJPLJ@10@
CONST	SEGMENT
??_C@_02PKFBJPLJ@10@ DB '10', 00H			; `string'
CONST	ENDS
;	COMDAT ??_C@_0L@LNKCFJOF@PKItemDrop@
CONST	SEGMENT
??_C@_0L@LNKCFJOF@PKItemDrop@ DB 'PKItemDrop', 00H	; `string'
CONST	ENDS
;	COMDAT ??_C@_0CE@CGDCLGCF@?$FLOption?$FN?5Auto?5Looting?5Time?5Set?5@
CONST	SEGMENT
??_C@_0CE@CGDCLGCF@?$FLOption?$FN?5Auto?5Looting?5Time?5Set?5@ DB '[Optio'
	DB	'n] Auto Looting Time Set : %d', 00H		; `string'
CONST	ENDS
;	COMDAT ??_C@_0M@CNCIMJOC@LootingTime@
CONST	SEGMENT
??_C@_0M@CNCIMJOC@LootingTime@ DB 'LootingTime', 00H	; `string'
CONST	ENDS
;	COMDAT ??_C@_01EKENIIDA@3@
CONST	SEGMENT
??_C@_01EKENIIDA@3@ DB '3', 00H				; `string'
CONST	ENDS
;	COMDAT ??_C@_09LNOLFHKA@MonsterHp@
CONST	SEGMENT
??_C@_09LNOLFHKA@MonsterHp@ DB 'MonsterHp', 00H		; `string'
CONST	ENDS
;	COMDAT ??_C@_06PKBKOIPG@PKTIME@
CONST	SEGMENT
??_C@_06PKBKOIPG@PKTIME@ DB 'PKTIME', 00H		; `string'
CONST	ENDS
;	COMDAT ??_C@_0CD@DBODMHPC@?$FLOption?$FN?5AttackEventRegenTime?5?$DN@
CONST	SEGMENT
??_C@_0CD@DBODMHPC@?$FLOption?$FN?5AttackEventRegenTime?5?$DN@ DB '[Optio'
	DB	'n] AttackEventRegenTime = %d', 00H		; `string'
CONST	ENDS
;	COMDAT ??_C@_0BP@BODHCMPI@?$FLOption?$FN?5ChaosEventServer?5?$DN?5?$CFs@
CONST	SEGMENT
??_C@_0BP@BODHCMPI@?$FLOption?$FN?5ChaosEventServer?5?$DN?5?$CFs@ DB '[Op'
	DB	'tion] ChaosEventServer = %s', 00H		; `string'
CONST	ENDS
;	COMDAT ??_C@_0BJ@BDPEJKAD@?$FLOption?$FN?5ChaosEvent?5?$DN?5?$CFd@
CONST	SEGMENT
??_C@_0BJ@BDPEJKAD@?$FLOption?$FN?5ChaosEvent?5?$DN?5?$CFd@ DB '[Option] '
	DB	'ChaosEvent = %d', 00H			; `string'
CONST	ENDS
;	COMDAT ??_C@_0BH@HMHMODEL@?$FLOption?$FN?5ChaosBox?5?$DN?5?$CFd@
CONST	SEGMENT
??_C@_0BH@HMHMODEL@?$FLOption?$FN?5ChaosBox?5?$DN?5?$CFd@ DB '[Option] Ch'
	DB	'aosBox = %d', 00H				; `string'
CONST	ENDS
;	COMDAT ??_C@_0BB@LFFJPGMP@ChaosEventServer@
CONST	SEGMENT
??_C@_0BB@LFFJPGMP@ChaosEventServer@ DB 'ChaosEventServer', 00H ; `string'
CONST	ENDS
;	COMDAT ??_C@_0P@LCMOAIFH@210?4181?489?4241@
CONST	SEGMENT
??_C@_0P@LCMOAIFH@210?4181?489?4241@ DB '210.181.89.241', 00H ; `string'
CONST	ENDS
;	COMDAT ??_C@_0L@KKFEELGG@ChaosEvent@
CONST	SEGMENT
??_C@_0L@KKFEELGG@ChaosEvent@ DB 'ChaosEvent', 00H	; `string'
CONST	ENDS
;	COMDAT ??_C@_08CIGOAAJ@ChaosBox@
CONST	SEGMENT
??_C@_08CIGOAAJ@ChaosBox@ DB 'ChaosBox', 00H		; `string'
CONST	ENDS
;	COMDAT ??_C@_05IOPOMLGK@Trade@
CONST	SEGMENT
??_C@_05IOPOMLGK@Trade@ DB 'Trade', 00H			; `string'
CONST	ENDS
;	COMDAT ??_C@_06GOOKGCKJ@AddZen@
CONST	SEGMENT
??_C@_06GOOKGCKJ@AddZen@ DB 'AddZen', 00H		; `string'
CONST	ENDS
;	COMDAT ??_C@_0O@LBPJGHMN@AddExperience@
CONST	SEGMENT
??_C@_0O@LBPJGHMN@AddExperience@ DB 'AddExperience', 00H ; `string'
CONST	ENDS
;	COMDAT ??_C@_0BA@PFGDHKCH@ItemSerialCheck@
CONST	SEGMENT
??_C@_0BA@PFGDHKCH@ItemSerialCheck@ DB 'ItemSerialCheck', 00H ; `string'
CONST	ENDS
;	COMDAT ??_C@_0BG@PFNCNMEF@ConnectRenewBlockTime@
CONST	SEGMENT
??_C@_0BG@PFNCNMEF@ConnectRenewBlockTime@ DB 'ConnectRenewBlockTime', 00H ; `string'
CONST	ENDS
;	COMDAT ??_C@_0BE@NKDMJEHP@ConnectIntervalTime@
CONST	SEGMENT
??_C@_0BE@NKDMJEHP@ConnectIntervalTime@ DB 'ConnectIntervalTime', 00H ; `string'
CONST	ENDS
;	COMDAT ??_C@_0BH@OBAKKGCF@ConnectHackIPBlockTime@
CONST	SEGMENT
??_C@_0BH@OBAKKGCF@ConnectHackIPBlockTime@ DB 'ConnectHackIPBlockTime', 00H ; `string'
CONST	ENDS
;	COMDAT ??_C@_0BF@KDFHAHG@SpeedHackPlayerBlock@
CONST	SEGMENT
??_C@_0BF@KDFHAHG@SpeedHackPlayerBlock@ DB 'SpeedHackPlayerBlock', 00H ; `string'
CONST	ENDS
;	COMDAT ??_C@_0BN@IDOOLGAL@CastleOwnerGuildDestroyLimit@
CONST	SEGMENT
??_C@_0BN@IDOOLGAL@CastleOwnerGuildDestroyLimit@ DB 'CastleOwnerGuildDest'
	DB	'royLimit', 00H				; `string'
CONST	ENDS
;	COMDAT ??_C@_0BB@DOGMENHB@GuildCreateLevel@
CONST	SEGMENT
??_C@_0BB@DOGMENHB@GuildCreateLevel@ DB 'GuildCreateLevel', 00H ; `string'
CONST	ENDS
;	COMDAT ??_C@_03GNABGMEE@100@
CONST	SEGMENT
??_C@_03GNABGMEE@100@ DB '100', 00H			; `string'
CONST	ENDS
;	COMDAT ??_C@_0N@OEKMPEAB@GuildDestroy@
CONST	SEGMENT
??_C@_0N@OEKMPEAB@GuildDestroy@ DB 'GuildDestroy', 00H	; `string'
CONST	ENDS
;	COMDAT ??_C@_0M@CGJDJOAO@GuildCreate@
CONST	SEGMENT
??_C@_0M@CGJDJOAO@GuildCreate@ DB 'GuildCreate', 00H	; `string'
CONST	ENDS
;	COMDAT ??_C@_0CM@HGFFPJNE@?$FLOption?5Reload?$FN?5?$KB?Z?$KB?Z?$KB?Z?5MaxUser?5@
CONST	SEGMENT
??_C@_0CM@HGFFPJNE@?$FLOption?5Reload?$FN?5?$KB?Z?$KB?Z?$KB?Z?5MaxUser?5@ DB '['
	DB	'Option Reload] ', 0a1H, 0daH, 0a1H, 0daH, 0a1H, 0daH, ' MaxUs'
	DB	'er ', 0a1H, 0d9H, 0a1H, 0d9H, 0a1H, 0d9H, '  : %d', 00H ; `string'
CONST	ENDS
;	COMDAT ??_C@_0BA@IJNIFGCF@NumberOfMaxUser@
CONST	SEGMENT
??_C@_0BA@IJNIFGCF@NumberOfMaxUser@ DB 'NumberOfMaxUser', 00H ; `string'
CONST	ENDS
;	COMDAT ??_C@_0BI@ONKCMGBI@CharacterDeleteMinLevel@
CONST	SEGMENT
??_C@_0BI@ONKCMGBI@CharacterDeleteMinLevel@ DB 'CharacterDeleteMinLevel', 00H ; `string'
CONST	ENDS
;	COMDAT ??_C@_02PMJKFNFC@40@
CONST	SEGMENT
??_C@_02PMJKFNFC@40@ DB '40', 00H			; `string'
CONST	ENDS
;	COMDAT ??_C@_0BA@DIAOPFNP@CreateCharacter@
CONST	SEGMENT
??_C@_0BA@DIAOPFNP@CreateCharacter@ DB 'CreateCharacter', 00H ; `string'
CONST	ENDS
;	COMDAT ??_C@_0BA@JHAHNEJ@ClientExeSerial@
CONST	SEGMENT
??_C@_0BA@JHAHNEJ@ClientExeSerial@ DB 'ClientExeSerial', 00H ; `string'
CONST	ENDS
;	COMDAT ??_C@_01HIHLOKLC@1@
CONST	SEGMENT
??_C@_01HIHLOKLC@1@ DB '1', 00H				; `string'
CONST	ENDS
;	COMDAT ??_C@_01LFCBOECM@?4@
CONST	SEGMENT
??_C@_01LFCBOECM@?4@ DB '.', 00H			; `string'
CONST	ENDS
;	COMDAT ??_C@_0BB@FBDFNIJB@ClientExeVersion@
CONST	SEGMENT
??_C@_0BB@FBDFNIJB@ClientExeVersion@ DB 'ClientExeVersion', 00H ; `string'
CONST	ENDS
;	COMDAT ??_C@_0BE@BKEFEABF@lang?2main?2quest?4txt@
CONST	SEGMENT
??_C@_0BE@BKEFEABF@lang?2main?2quest?4txt@ DB 'lang\main\quest.txt', 00H ; `string'
CONST	ENDS
;	COMDAT ??_C@_0O@MOJICEJC@MoveLevel?4txt@
CONST	SEGMENT
??_C@_0O@MOJICEJC@MoveLevel?4txt@ DB 'MoveLevel.txt', 00H ; `string'
CONST	ENDS
;	COMDAT ??_C@_0BK@BHDBGJAM@lang?2main?2itemsettype?4txt@
CONST	SEGMENT
??_C@_0BK@BHDBGJAM@lang?2main?2itemsettype?4txt@ DB 'lang\main\itemsettyp'
	DB	'e.txt', 00H					; `string'
CONST	ENDS
;	COMDAT ??_C@_0BM@FIJENIG@lang?2main?2itemsetoption?4txt@
CONST	SEGMENT
??_C@_0BM@FIJENIG@lang?2main?2itemsetoption?4txt@ DB 'lang\main\itemsetop'
	DB	'tion.txt', 00H				; `string'
CONST	ENDS
;	COMDAT ??_C@_0P@POAMAGDJ@skillElect?4hit@
CONST	SEGMENT
??_C@_0P@POAMAGDJ@skillElect?4hit@ DB 'skillElect.hit', 00H ; `string'
CONST	ENDS
;	COMDAT ??_C@_0P@NPIOLEMH@skillSpear?4hit@
CONST	SEGMENT
??_C@_0P@NPIOLEMH@skillSpear?4hit@ DB 'skillSpear.hit', 00H ; `string'
CONST	ENDS
;	COMDAT ??_C@_0BI@LHJFIJMG@lang?2main?2commonloc?4cfg@
CONST	SEGMENT
??_C@_0BI@LHJFIJMG@lang?2main?2commonloc?4cfg@ DB 'lang\main\commonloc.cf'
	DB	'g', 00H					; `string'
CONST	ENDS
;	COMDAT ??_C@_0BH@ELPPJFKD@lang?2main?2CheckSum?4dat@
CONST	SEGMENT
??_C@_0BH@ELPPJFKD@lang?2main?2CheckSum?4dat@ DB 'lang\main\CheckSum.dat', 00H ; `string'
CONST	ENDS
;	COMDAT ??_C@_03KAPGHIGI@Tha@
CONST	SEGMENT
??_C@_03KAPGHIGI@Tha@ DB 'Tha', 00H			; `string'
CONST	ENDS
;	COMDAT ??_C@_0BH@BBKIGHND@lang?2tha?2commonloc?4cfg@
CONST	SEGMENT
??_C@_0BH@BBKIGHND@lang?2tha?2commonloc?4cfg@ DB 'lang\tha\commonloc.cfg', 00H ; `string'
CONST	ENDS
;	COMDAT ??_C@_0BG@MKEGOHAG@lang?2tha?2CheckSum?4dat@
CONST	SEGMENT
??_C@_0BG@MKEGOHAG@lang?2tha?2CheckSum?4dat@ DB 'lang\tha\CheckSum.dat', 00H ; `string'
CONST	ENDS
;	COMDAT ??_C@_0BI@PPCLJHOL@lang?2tha?2Quest?$CItha?$CJ?4txt@
CONST	SEGMENT
??_C@_0BI@PPCLJHOL@lang?2tha?2Quest?$CItha?$CJ?4txt@ DB 'lang\tha\Quest(t'
	DB	'ha).txt', 00H				; `string'
CONST	ENDS
;	COMDAT ??_C@_0BI@ICECJPPA@lang?2tha?2skill?$CItha?$CJ?4txt@
CONST	SEGMENT
??_C@_0BI@ICECJPPA@lang?2tha?2skill?$CItha?$CJ?4txt@ DB 'lang\tha\skill(t'
	DB	'ha).txt', 00H				; `string'
CONST	ENDS
;	COMDAT ??_C@_0BH@BDPKPKJK@lang?2tha?2item?$CItha?$CJ?4txt@
CONST	SEGMENT
??_C@_0BH@BDPKPKJK@lang?2tha?2item?$CItha?$CJ?4txt@ DB 'lang\tha\item(tha'
	DB	').txt', 00H					; `string'
CONST	ENDS
;	COMDAT ??_C@_0BA@CIFGKAHN@message_tha?4wtf@
CONST	SEGMENT
??_C@_0BA@CIFGKAHN@message_tha?4wtf@ DB 'message_tha.wtf', 00H ; `string'
CONST	ENDS
;	COMDAT ??_C@_03GHPOMJOP@Tai@
CONST	SEGMENT
??_C@_03GHPOMJOP@Tai@ DB 'Tai', 00H			; `string'
CONST	ENDS
;	COMDAT ??_C@_0BH@DANHMEB@lang?2tai?2commonloc?4cfg@
CONST	SEGMENT
??_C@_0BH@DANHMEB@lang?2tai?2commonloc?4cfg@ DB 'lang\tai\commonloc.cfg', 00H ; `string'
CONST	ENDS
;	COMDAT ??_C@_0BG@NILECFFP@lang?2tai?2CheckSum?4dat@
CONST	SEGMENT
??_C@_0BG@NILECFFP@lang?2tai?2CheckSum?4dat@ DB 'lang\tai\CheckSum.dat', 00H ; `string'
CONST	ENDS
;	COMDAT ??_C@_0BI@MNJIJFNE@lang?2tai?2Quest?$CItai?$CJ?4txt@
CONST	SEGMENT
??_C@_0BI@MNJIJFNE@lang?2tai?2Quest?$CItai?$CJ?4txt@ DB 'lang\tai\Quest(t'
	DB	'ai).txt', 00H				; `string'
CONST	ENDS
;	COMDAT ??_C@_0BI@LAPBJNMP@lang?2tai?2skill?$CItai?$CJ?4txt@
CONST	SEGMENT
??_C@_0BI@LAPBJNMP@lang?2tai?2skill?$CItai?$CJ?4txt@ DB 'lang\tai\skill(t'
	DB	'ai).txt', 00H				; `string'
CONST	ENDS
;	COMDAT ??_C@_0BH@CNPPLEEE@lang?2tai?2item?$CItai?$CJ?4txt@
CONST	SEGMENT
??_C@_0BH@CNPPLEEE@lang?2tai?2item?$CItai?$CJ?4txt@ DB 'lang\tai\item(tai'
	DB	').txt', 00H					; `string'
CONST	ENDS
;	COMDAT ??_C@_0BA@FBJNGHMD@message_tai?4wtf@
CONST	SEGMENT
??_C@_0BA@FBJNGHMD@message_tai?4wtf@ DB 'message_tai.wtf', 00H ; `string'
CONST	ENDS
;	COMDAT ??_C@_03BFMMGHJN@Chs@
CONST	SEGMENT
??_C@_03BFMMGHJN@Chs@ DB 'Chs', 00H			; `string'
CONST	ENDS
;	COMDAT ??_C@_0BH@LPKCCKFC@lang?2chs?2commonloc?4cfg@
CONST	SEGMENT
??_C@_0BH@LPKCCKFC@lang?2chs?2commonloc?4cfg@ DB 'lang\chs\commonloc.cfg', 00H ; `string'
CONST	ENDS
;	COMDAT ??_C@_0BG@BBGBCMOO@lang?2chs?2CheckSum?4dat@
CONST	SEGMENT
??_C@_0BG@BBGBCMOO@lang?2chs?2CheckSum?4dat@ DB 'lang\chs\CheckSum.dat', 00H ; `string'
CONST	ENDS
;	COMDAT ??_C@_0BI@FNNKIMEP@lang?2chs?2Quest?$CIchs?$CJ?4txt@
CONST	SEGMENT
??_C@_0BI@FNNKIMEP@lang?2chs?2Quest?$CIchs?$CJ?4txt@ DB 'lang\chs\Quest(c'
	DB	'hs).txt', 00H				; `string'
CONST	ENDS
;	COMDAT ??_C@_0BI@CALDIEFE@lang?2chs?2skill?$CIchs?$CJ?4txt@
CONST	SEGMENT
??_C@_0BI@CALDIEFE@lang?2chs?2skill?$CIchs?$CJ?4txt@ DB 'lang\chs\skill(c'
	DB	'hs).txt', 00H				; `string'
CONST	ENDS
;	COMDAT ??_C@_0BH@IFBABFEE@lang?2chs?2item?$CIchs?$CJ?4txt@
CONST	SEGMENT
??_C@_0BH@IFBABFEE@lang?2chs?2item?$CIchs?$CJ?4txt@ DB 'lang\chs\item(chs'
	DB	').txt', 00H					; `string'
CONST	ENDS
;	COMDAT ??_C@_0BA@BADGDLNP@message_chs?4wtf@
CONST	SEGMENT
??_C@_0BA@BADGDLNP@message_chs?4wtf@ DB 'message_chs.wtf', 00H ; `string'
CONST	ENDS
;	COMDAT ??_C@_03IFJNLGMD@Jpn@
CONST	SEGMENT
??_C@_03IFJNLGMD@Jpn@ DB 'Jpn', 00H			; `string'
CONST	ENDS
;	COMDAT ??_C@_0BH@FJINJIJL@lang?2jpn?2commonloc?4cfg@
CONST	SEGMENT
??_C@_0BH@FJINJIJL@lang?2jpn?2commonloc?4cfg@ DB 'lang\jpn\commonloc.cfg', 00H ; `string'
CONST	ENDS
;	COMDAT ??_C@_0BG@FNIPOEKB@lang?2jpn?2CheckSum?4dat@
CONST	SEGMENT
??_C@_0BG@FNIPOEKB@lang?2jpn?2CheckSum?4dat@ DB 'lang\jpn\CheckSum.dat', 00H ; `string'
CONST	ENDS
;	COMDAT ??_C@_0BI@LKHALICC@lang?2jpn?2Quest?$CIjpn?$CJ?4txt@
CONST	SEGMENT
??_C@_0BI@LKHALICC@lang?2jpn?2Quest?$CIjpn?$CJ?4txt@ DB 'lang\jpn\Quest(j'
	DB	'pn).txt', 00H				; `string'
CONST	ENDS
;	COMDAT ??_C@_0BI@MHBJLADJ@lang?2jpn?2skill?$CIjpn?$CJ?4txt@
CONST	SEGMENT
??_C@_0BI@MHBJLADJ@lang?2jpn?2skill?$CIjpn?$CJ?4txt@ DB 'lang\jpn\skill(j'
	DB	'pn).txt', 00H				; `string'
CONST	ENDS
;	COMDAT ??_C@_0BH@GGMLMGEG@lang?2jpn?2item?$CIjpn?$CJ?4txt@
CONST	SEGMENT
??_C@_0BH@GGMLMGEG@lang?2jpn?2item?$CIjpn?$CJ?4txt@ DB 'lang\jpn\item(jpn'
	DB	').txt', 00H					; `string'
CONST	ENDS
;	COMDAT ??_C@_0BA@OEAAODBI@message_jpn?4wtf@
CONST	SEGMENT
??_C@_0BA@OEAAODBI@message_jpn?4wtf@ DB 'message_jpn.wtf', 00H ; `string'
CONST	ENDS
;	COMDAT ??_C@_03BKIEJDKG@Eng@
CONST	SEGMENT
??_C@_03BKIEJDKG@Eng@ DB 'Eng', 00H			; `string'
CONST	ENDS
;	COMDAT ??_C@_0BH@CEPMFDMG@lang?2eng?2commonloc?4cfg@
CONST	SEGMENT
??_C@_0BH@CEPMFDMG@lang?2eng?2commonloc?4cfg@ DB 'lang\eng\commonloc.cfg', 00H ; `string'
CONST	ENDS
;	COMDAT ??_C@_0BG@CLNKAICO@lang?2eng?2CheckSum?4dat@
CONST	SEGMENT
??_C@_0BG@CLNKAICO@lang?2eng?2CheckSum?4dat@ DB 'lang\eng\CheckSum.dat', 00H ; `string'
CONST	ENDS
;	COMDAT ??_C@_0BI@IMMHENLL@lang?2eng?2Quest?$CIeng?$CJ?4txt@
CONST	SEGMENT
??_C@_0BI@IMMHENLL@lang?2eng?2Quest?$CIeng?$CJ?4txt@ DB 'lang\eng\Quest(e'
	DB	'ng).txt', 00H				; `string'
CONST	ENDS
;	COMDAT ??_C@_0BI@PBKOEFKA@lang?2eng?2skill?$CIeng?$CJ?4txt@
CONST	SEGMENT
??_C@_0BI@PBKOEFKA@lang?2eng?2skill?$CIeng?$CJ?4txt@ DB 'lang\eng\skill(e'
	DB	'ng).txt', 00H				; `string'
CONST	ENDS
;	COMDAT ??_C@_0BH@DIKKKEAA@lang?2eng?2item?$CIeng?$CJ?4txt@
CONST	SEGMENT
??_C@_0BH@DIKKKEAA@lang?2eng?2item?$CIeng?$CJ?4txt@ DB 'lang\eng\item(eng'
	DB	').txt', 00H					; `string'
CONST	ENDS
;	COMDAT ??_C@_0BA@CNMOEHOP@message_eng?4wtf@
CONST	SEGMENT
??_C@_0BA@CNMOEHOP@message_eng?4wtf@ DB 'message_eng.wtf', 00H ; `string'
CONST	ENDS
;	COMDAT ??_C@_0BF@KFCGLLGL@PK?5Limit?5Free?5Server@
CONST	SEGMENT
??_C@_0BF@KFCGLLGL@PK?5Limit?5Free?5Server@ DB 'PK Limit Free Server', 00H ; `string'
CONST	ENDS
;	COMDAT ??_C@_0M@DKICACGN@PkLimitFree@
CONST	SEGMENT
??_C@_0M@DKICACGN@PkLimitFree@ DB 'PkLimitFree', 00H	; `string'
CONST	ENDS
;	COMDAT ??_C@_0O@GCDDIMLO@NON?9PK?5Server@
CONST	SEGMENT
??_C@_0O@GCDDIMLO@NON?9PK?5Server@ DB 'NON-PK Server', 00H ; `string'
CONST	ENDS
;	COMDAT ??_C@_05MEMFONJC@NonPK@
CONST	SEGMENT
??_C@_05MEMFONJC@NonPK@ DB 'NonPK', 00H			; `string'
CONST	ENDS
;	COMDAT ??_C@_0BH@CGAJGJIE@lang?2kor?2commonloc?4cfg@
CONST	SEGMENT
??_C@_0BH@CGAJGJIE@lang?2kor?2commonloc?4cfg@ DB 'lang\kor\commonloc.cfg', 00H ; `string'
CONST	ENDS
;	COMDAT ??_C@_0BG@LDHDEAON@lang?2kor?2CheckSum?4dat@
CONST	SEGMENT
??_C@_0BG@LDHDEAON@lang?2kor?2CheckSum?4dat@ DB 'lang\kor\CheckSum.dat', 00H ; `string'
CONST	ENDS
;	COMDAT ??_C@_0BI@KHGIHCPL@lang?2kor?2Quest?$CIKor?$CJ?4txt@
CONST	SEGMENT
??_C@_0BI@KHGIHCPL@lang?2kor?2Quest?$CIKor?$CJ?4txt@ DB 'lang\kor\Quest(K'
	DB	'or).txt', 00H				; `string'
CONST	ENDS
;	COMDAT ??_C@_0BI@FIPAPIED@lang?2kor?2skill?$CIkor?$CJ?4txt@
CONST	SEGMENT
??_C@_0BI@FIPAPIED@lang?2kor?2skill?$CIkor?$CJ?4txt@ DB 'lang\kor\skill(k'
	DB	'or).txt', 00H				; `string'
CONST	ENDS
;	COMDAT ??_C@_0BH@LNBPGCH@lang?2kor?2item?$CIkor?$CJ?4txt@
CONST	SEGMENT
??_C@_0BH@LNBPGCH@lang?2kor?2item?$CIkor?$CJ?4txt@ DB 'lang\kor\item(kor)'
	DB	'.txt', 00H					; `string'
CONST	ENDS
;	COMDAT ??_C@_0BA@MNCIMNEB@message_kor?4wtf@
CONST	SEGMENT
??_C@_0BA@MNCIMNEB@message_kor?4wtf@ DB 'message_kor.wtf', 00H ; `string'
CONST	ENDS
;	COMDAT ??_C@_0BG@GBCNIGCF@lang?2main?2movereq?4txt@
CONST	SEGMENT
??_C@_0BG@GBCNIGCF@lang?2main?2movereq?4txt@ DB 'lang\main\movereq.txt', 00H ; `string'
CONST	ENDS
;	COMDAT ??_C@_0BE@FDAOHAFF@lang?2main?2skill?4txt@
CONST	SEGMENT
??_C@_0BE@FDAOHAFF@lang?2main?2skill?4txt@ DB 'lang\main\skill.txt', 00H ; `string'
CONST	ENDS
;	COMDAT ??_C@_0BD@FJCONAOJ@lang?2main?2item?4txt@
CONST	SEGMENT
??_C@_0BD@FJCONAOJ@lang?2main?2item?4txt@ DB 'lang\main\item.txt', 00H ; `string'
CONST	ENDS
;	COMDAT ??_C@_0BI@CDOIIEIH@Enc2?4dat?5file?5not?5found@
CONST	SEGMENT
??_C@_0BI@CDOIIEIH@Enc2?4dat?5file?5not?5found@ DB 'Enc2.dat file not fou'
	DB	'nd', 00H					; `string'
CONST	ENDS
;	COMDAT ??_C@_08HDINADJK@Enc2?4dat@
CONST	SEGMENT
??_C@_08HDINADJK@Enc2?4dat@ DB 'Enc2.dat', 00H		; `string'
CONST	ENDS
;	COMDAT ??_C@_0BI@KPIPBJFI@Dec1?4dat?5file?5not?5found@
CONST	SEGMENT
??_C@_0BI@KPIPBJFI@Dec1?4dat?5file?5not?5found@ DB 'Dec1.dat file not fou'
	DB	'nd', 00H					; `string'
CONST	ENDS
;	COMDAT ??_C@_08LPAIHJCB@Dec1?4dat@
CONST	SEGMENT
??_C@_08LPAIHJCB@Dec1?4dat@ DB 'Dec1.dat', 00H		; `string'
CONST	ENDS
;	COMDAT ??_C@_0BK@KJGDFNAO@Stalk?5Protocol?5ID?5?$DN?5?8?$CFs?8?5@
CONST	SEGMENT
??_C@_0BK@KJGDFNAO@Stalk?5Protocol?5ID?5?$DN?5?8?$CFs?8?5@ DB 'Stalk Prot'
	DB	'ocol ID = ''%s'' ', 00H			; `string'
CONST	ENDS
;	COMDAT ??_C@_0BA@GELKBKKC@StalkProtocolId@
CONST	SEGMENT
??_C@_0BA@GELKBKKC@StalkProtocolId@ DB 'StalkProtocolId', 00H ; `string'
CONST	ENDS
;	COMDAT ??_C@_0O@GAFBBPE@StalkProtocol@
CONST	SEGMENT
??_C@_0O@GAFBBPE@StalkProtocol@ DB 'StalkProtocol', 00H	; `string'
CONST	ENDS
;	COMDAT ??_C@_08BENDAOKD@Language@
CONST	SEGMENT
??_C@_08BENDAOKD@Language@ DB 'Language', 00H		; `string'
CONST	ENDS
;	COMDAT ??_C@_01GBGANLPD@0@
CONST	SEGMENT
??_C@_01GBGANLPD@0@ DB '0', 00H				; `string'
CONST	ENDS
;	COMDAT ??_C@_0BB@JIONBNI@CalCharacter?4cfg@
CONST	SEGMENT
??_C@_0BB@JIONBNI@CalCharacter?4cfg@ DB 'CalCharacter.cfg', 00H ; `string'
CONST	ENDS
;	COMDAT ??_C@_0CC@JCDJGIAD@?$FLcommonserver?4cfg?$FN?5file?5not?5fou@
CONST	SEGMENT
??_C@_0CC@JCDJGIAD@?$FLcommonserver?4cfg?$FN?5file?5not?5fou@ DB '[common'
	DB	'server.cfg] file not found', 00H		; `string'
CONST	ENDS
;	COMDAT ??_C@_0BB@IGLHFEOF@commonserver?4cfg@
CONST	SEGMENT
??_C@_0BB@IGLHFEOF@commonserver?4cfg@ DB 'commonserver.cfg', 00H ; `string'
CONST	ENDS
;	COMDAT ??_C@_0BC@GLFLPKEG@ConnectMemberLoad@
CONST	SEGMENT
??_C@_0BC@GLFLPKEG@ConnectMemberLoad@ DB 'ConnectMemberLoad', 00H ; `string'
CONST	ENDS
;	COMDAT ??_C@_0L@ECKGLPBM@ServerCode@
CONST	SEGMENT
??_C@_0L@ECKGLPBM@ServerCode@ DB 'ServerCode', 00H	; `string'
CONST	ENDS
;	COMDAT ??_C@_0P@EMJDPFDH@GameServerInfo@
CONST	SEGMENT
??_C@_0P@EMJDPFDH@GameServerInfo@ DB 'GameServerInfo', 00H ; `string'
CONST	ENDS
;	COMDAT ??_C@_0L@FFDIDHBB@ServerName@
CONST	SEGMENT
??_C@_0L@FFDIDHBB@ServerName@ DB 'ServerName', 00H	; `string'
CONST	ENDS
;	COMDAT ??_C@_0BO@CFKIHFKN@ServerInfo?4dat?5file?5not?5found@
CONST	SEGMENT
??_C@_0BO@CFKIHFKN@ServerInfo?4dat?5file?5not?5found@ DB 'ServerInfo.dat '
	DB	'file not found', 00H			; `string'
CONST	ENDS
;	COMDAT ??_C@_0BG@KBGGHHPK@?4?2data?2Serverinfo?4dat@
CONST	SEGMENT
??_C@_0BG@KBGGHHPK@?4?2data?2Serverinfo?4dat@ DB '.\data\Serverinfo.dat', 00H ; `string'
CONST	ENDS
;	COMDAT ??_C@_0CO@DFBFHLJO@Error?9L1?5?3?5Friend?5Server?5Down?5?$CI@
CONST	SEGMENT
??_C@_0CO@DFBFHLJO@Error?9L1?5?3?5Friend?5Server?5Down?5?$CI@ DB 'Error-L'
	DB	'1 : Friend Server Down (State Send Ok)', 00H ; `string'
CONST	ENDS
;	COMDAT ??_C@_0BD@MBDGLECM@ExDB?5Server?5Online@
CONST	SEGMENT
??_C@_0BD@MBDGLECM@ExDB?5Server?5Online@ DB 'ExDB Server Online', 00H ; `string'
CONST	ENDS
;	COMDAT ??_C@_0BM@JEEOGNJB@EventChip?5Connect?5IP?5?$FL?5?$CFs?5?$FN@
CONST	SEGMENT
??_C@_0BM@JEEOGNJB@EventChip?5Connect?5IP?5?$FL?5?$CFs?5?$FN@ DB 'EventCh'
	DB	'ip Connect IP [ %s ]', 00H			; `string'
CONST	ENDS
;	COMDAT ??_C@_0CA@GPEDJDDH@RankingServer?5Connect?5IP?5?$FL?5?$CFs?5?$FN@
CONST	SEGMENT
??_C@_0CA@GPEDJDDH@RankingServer?5Connect?5IP?5?$FL?5?$CFs?5?$FN@ DB 'Ran'
	DB	'kingServer Connect IP [ %s ]', 00H		; `string'
CONST	ENDS
;	COMDAT ??_C@_0BF@MNGCMCAL@BuffHelperSystem?4cfg@
CONST	SEGMENT
??_C@_0BF@MNGCMCAL@BuffHelperSystem?4cfg@ DB 'BuffHelperSystem.cfg', 00H ; `string'
CONST	ENDS
;	COMDAT ??_C@_0BA@NJMOGOCM@ResetSystem?4cfg@
CONST	SEGMENT
??_C@_0BA@NJMOGOCM@ResetSystem?4cfg@ DB 'ResetSystem.cfg', 00H ; `string'
CONST	ENDS
;	COMDAT ??_C@_0BC@IPOGIFJE@PkClearSystem?4cfg@
CONST	SEGMENT
??_C@_0BC@IPOGIFJE@PkClearSystem?4cfg@ DB 'PkClearSystem.cfg', 00H ; `string'
CONST	ENDS
;	COMDAT ??_C@_0BC@FGIEIEFL@ConnectMember?4txt@
CONST	SEGMENT
??_C@_0BC@FGIEIEFL@ConnectMember?4txt@ DB 'ConnectMember.txt', 00H ; `string'
CONST	ENDS
;	COMDAT ??_C@_0L@DPAHEMHE@Iplist?4dat@
CONST	SEGMENT
??_C@_0L@DPAHEMHE@Iplist?4dat@ DB 'Iplist.dat', 00H	; `string'
CONST	ENDS
;	COMDAT ??_C@_0O@CFGLJCFC@terrain25?4att@
CONST	SEGMENT
??_C@_0O@CFGLJCFC@terrain25?4att@ DB 'terrain25.att', 00H ; `string'
CONST	ENDS
;	COMDAT ??_C@_0O@GDEBEILE@terrain19?4att@
CONST	SEGMENT
??_C@_0O@GDEBEILE@terrain19?4att@ DB 'terrain19.att', 00H ; `string'
CONST	ENDS
;	COMDAT ??_C@_0O@JIGLIHH@terrain12?4att@
CONST	SEGMENT
??_C@_0O@JIGLIHH@terrain12?4att@ DB 'terrain12.att', 00H ; `string'
CONST	ENDS
;	COMDAT ??_C@_0O@IPBCMKNJ@terrain11?4att@
CONST	SEGMENT
??_C@_0O@IPBCMKNJ@terrain11?4att@ DB 'terrain11.att', 00H ; `string'
CONST	ENDS
;	COMDAT ??_C@_0O@EEEOBJHM@terrain10?4att@
CONST	SEGMENT
??_C@_0O@EEEOBJHM@terrain10?4att@ DB 'terrain10.att', 00H ; `string'
CONST	ENDS
;	COMDAT ??_C@_0N@PHEFDIDH@terrain9?4att@
CONST	SEGMENT
??_C@_0N@PHEFDIDH@terrain9?4att@ DB 'terrain9.att', 00H	; `string'
CONST	ENDS
;	COMDAT ??_C@_0N@DMBJOLJC@terrain8?4att@
CONST	SEGMENT
??_C@_0N@DMBJOLJC@terrain8?4att@ DB 'terrain8.att', 00H	; `string'
CONST	ENDS
;	COMDAT ??_C@_0N@MNEPFJEH@terrain7?4att@
CONST	SEGMENT
??_C@_0N@MNEPFJEH@terrain7?4att@ DB 'terrain7.att', 00H	; `string'
CONST	ENDS
;	COMDAT ??_C@_0N@GBDIKOC@terrain6?4att@
CONST	SEGMENT
??_C@_0N@GBDIKOC@terrain6?4att@ DB 'terrain6.att', 00H	; `string'
CONST	ENDS
;	COMDAT ??_C@_0N@IAIHPIEM@terrain5?4att@
CONST	SEGMENT
??_C@_0N@IAIHPIEM@terrain5?4att@ DB 'terrain5.att', 00H	; `string'
CONST	ENDS
;	COMDAT ??_C@_0N@ELNLCLOJ@terrain4?4att@
CONST	SEGMENT
??_C@_0N@ELNLCLOJ@terrain4?4att@ DB 'terrain4.att', 00H	; `string'
CONST	ENDS
;	COMDAT ??_C@_0N@FGNOBLFB@terrain3?4att@
CONST	SEGMENT
??_C@_0N@FGNOBLFB@terrain3?4att@ DB 'terrain3.att', 00H	; `string'
CONST	ENDS
;	COMDAT ??_C@_0N@JNICMIPE@terrain2?4att@
CONST	SEGMENT
??_C@_0N@JNICMIPE@terrain2?4att@ DB 'terrain2.att', 00H	; `string'
CONST	ENDS
;	COMDAT ??_C@_0N@BLBGLKFK@terrain1?4att@
CONST	SEGMENT
??_C@_0N@BLBGLKFK@terrain1?4att@ DB 'terrain1.att', 00H	; `string'
CONST	ENDS
;	COMDAT ??_C@_08PGLGOOHM@gate?4txt@
CONST	SEGMENT
??_C@_08PGLGOOHM@gate?4txt@ DB 'gate.txt', 00H		; `string'
CONST	ENDS
;	COMDAT ??_C@_0M@NDKJFFPF@Monster?4txt@
CONST	SEGMENT
??_C@_0M@NDKJFFPF@Monster?4txt@ DB 'Monster.txt', 00H	; `string'
CONST	ENDS
;	COMDAT ??_C@_0BD@KDLMHCKD@MonsterSetBase?4txt@
CONST	SEGMENT
??_C@_0BD@KDLMHCKD@MonsterSetBase?4txt@ DB 'MonsterSetBase.txt', 00H ; `string'
CONST	ENDS
;	COMDAT ??_C@_0CK@CPDKBBDI@?A?V?$MA?G?$CB?$CB?5?D?$LD?$LI?$KP?E?M?5?$LF?$KF?$MA?L?E?M?$LI?$KG?5?$MA?z?$MA?e?G?O?A?v@
CONST	SEGMENT
??_C@_0CK@CPDKBBDI@?A?V?$MA?G?$CB?$CB?5?D?$LD?$LI?$KP?E?M?5?$LF?$KF?$MA?L?E?M?$LI?$KG?5?$MA?z?$MA?e?G?O?A?v@ DB 0c1H
	DB	0d6H, 0c0H, 0c7H, '!! ', 0c4H, 0b3H, 0b8H, 0afH, 0c5H, 0cdH, ' '
	DB	0b5H, 0a5H, 0c0H, 0ccH, 0c5H, 0cdH, 0b8H, 0a6H, ' ', 0c0H, 0faH
	DB	0c0H, 0e5H, 0c7H, 0cfH, 0c1H, 0f6H, ' ', 0beH, 0caH, 0bdH, 0c0H
	DB	0b4H, 0cfH, 0b4H, 0d9H, '.', 00H		; `string'
CONST	ENDS
;	COMDAT ??_C@_0BI@FNDPBPBE@UDP?5Socket?5create?5error@
CONST	SEGMENT
??_C@_0BI@FNDPBPBE@UDP?5Socket?5create?5error@ DB 'UDP Socket create erro'
	DB	'r', 00H					; `string'
CONST	ENDS
;	COMDAT ??_C@_0BO@HAAAHLCH@?$LM?$KN?$LJ?v?$LK?P?G?R?$MA?L?5?$LA?$KB?$LE?I?G?Q?5?$LM?$KN?$LJ?v?$MA?T?$LE?O?$LE?Y?4@
CONST	SEGMENT
??_C@_0BO@HAAAHLCH@?$LM?$KN?$LJ?v?$LK?P?G?R?$MA?L?5?$LA?$KB?$LE?I?G?Q?5?$LM?$KN?$LJ?v?$MA?T?$LE?O?$LE?Y?4@ DB 0bcH
	DB	0adH, 0b9H, 0f6H, 0baH, 0d0H, 0c7H, 0d2H, 0c0H, 0ccH, ' ', 0b0H
	DB	0a1H, 0b4H, 0c9H, 0c7H, 0d1H, ' ', 0bcH, 0adH, 0b9H, 0f6H, 0c0H
	DB	0d4H, 0b4H, 0cfH, 0b4H, 0d9H, '.', 00H	; `string'
CONST	ENDS
;	COMDAT ??_C@_07KGMMFLDN@Warning@
CONST	SEGMENT
??_C@_07KGMMFLDN@Warning@ DB 'Warning', 00H		; `string'
CONST	ENDS
;	COMDAT ??_C@_0BL@CIFNLNKN@?4?4?2data?2TerrainManager?4cfg@
CONST	SEGMENT
??_C@_0BL@CIFNLNKN@?4?4?2data?2TerrainManager?4cfg@ DB '..\data\TerrainMa'
	DB	'nager.cfg', 00H				; `string'
CONST	ENDS
;	COMDAT ??_C@_0P@CNKMNCA@AttackEvent?5?$CFs@
CONST	SEGMENT
??_C@_0P@CNKMNCA@AttackEvent?5?$CFs@ DB 'AttackEvent %s', 00H ; `string'
CONST	ENDS
;	COMDAT ??_C@_0BA@FPGHNLAN@CDragonEvent?5?$CFs@
CONST	SEGMENT
??_C@_0BA@FPGHNLAN@CDragonEvent?5?$CFs@ DB 'CDragonEvent %s', 00H ; `string'
CONST	ENDS
;	COMDAT ??_C@_08NAJBNDME@?4?4?2Data?2@
CONST	SEGMENT
??_C@_08NAJBNDME@?4?4?2Data?2@ DB '..\Data\', 00H	; `string'
CONST	ENDS
;	COMDAT ??_C@_00CNPNBAHC@@
CONST	SEGMENT
??_C@_00CNPNBAHC@@ DB 00H				; `string'
CONST	ENDS
;	COMDAT xdata$x
xdata$x	SEGMENT
__ehfuncinfo$?LoadItemBag@@YAXXZ DD 019930522H
	DD	011H
	DD	FLAT:__unwindtable$?LoadItemBag@@YAXXZ
	DD	2 DUP(00H)
	DD	2 DUP(00H)
	DD	00H
	DD	01H
__unwindtable$?LoadItemBag@@YAXXZ DD 0ffffffffH
	DD	FLAT:__unwindfunclet$?LoadItemBag@@YAXXZ$0
	DD	0ffffffffH
	DD	FLAT:__unwindfunclet$?LoadItemBag@@YAXXZ$1
	DD	0ffffffffH
	DD	FLAT:__unwindfunclet$?LoadItemBag@@YAXXZ$2
	DD	0ffffffffH
	DD	FLAT:__unwindfunclet$?LoadItemBag@@YAXXZ$3
	DD	0ffffffffH
	DD	FLAT:__unwindfunclet$?LoadItemBag@@YAXXZ$4
	DD	0ffffffffH
	DD	FLAT:__unwindfunclet$?LoadItemBag@@YAXXZ$5
	DD	0ffffffffH
	DD	FLAT:__unwindfunclet$?LoadItemBag@@YAXXZ$6
	DD	0ffffffffH
	DD	FLAT:__unwindfunclet$?LoadItemBag@@YAXXZ$7
	DD	0ffffffffH
	DD	FLAT:__unwindfunclet$?LoadItemBag@@YAXXZ$8
	DD	0ffffffffH
	DD	FLAT:__unwindfunclet$?LoadItemBag@@YAXXZ$9
	DD	0ffffffffH
	DD	FLAT:__unwindfunclet$?LoadItemBag@@YAXXZ$10
	DD	0ffffffffH
	DD	FLAT:__unwindfunclet$?LoadItemBag@@YAXXZ$11
	DD	0ffffffffH
	DD	FLAT:__unwindfunclet$?LoadItemBag@@YAXXZ$12
	DD	0ffffffffH
	DD	FLAT:__unwindfunclet$?LoadItemBag@@YAXXZ$13
	DD	0ffffffffH
	DD	FLAT:__unwindfunclet$?LoadItemBag@@YAXXZ$14
	DD	0ffffffffH
	DD	FLAT:__unwindfunclet$?LoadItemBag@@YAXXZ$15
	DD	0ffffffffH
	DD	FLAT:__unwindfunclet$?LoadItemBag@@YAXXZ$16
xdata$x	ENDS
;	COMDAT xdata$x
xdata$x	SEGMENT
__unwindtable$?GameMainInit@@YAXPAUHWND__@@@Z DD 0ffffffffH
	DD	FLAT:__unwindfunclet$?GameMainInit@@YAXPAUHWND__@@@Z$0
	DD	0ffffffffH
	DD	FLAT:__unwindfunclet$?GameMainInit@@YAXPAUHWND__@@@Z$1
	DD	0ffffffffH
	DD	FLAT:__unwindfunclet$?GameMainInit@@YAXPAUHWND__@@@Z$2
__ehfuncinfo$?GameMainInit@@YAXPAUHWND__@@@Z DD 019930522H
	DD	03H
	DD	FLAT:__unwindtable$?GameMainInit@@YAXPAUHWND__@@@Z
	DD	2 DUP(00H)
	DD	2 DUP(00H)
	DD	00H
	DD	01H
xdata$x	ENDS
;	COMDAT xdata$x
xdata$x	SEGMENT
__ehfuncinfo$??_EMapClass@@UAEPAXI@Z DD 019930522H
	DD	00H
	DD	00H
	DD	2 DUP(00H)
	DD	2 DUP(00H)
	DD	00H
	DD	05H
xdata$x	ENDS
;	COMDAT xdata$x
xdata$x	SEGMENT
__ehfuncinfo$??0?$basic_string@DU?$char_traits@D@std@@V?$allocator@D@2@@std@@QAE@XZ DD 019930522H
	DD	00H
	DD	00H
	DD	2 DUP(00H)
	DD	2 DUP(00H)
	DD	00H
	DD	05H
xdata$x	ENDS
CRT$XCU	SEGMENT
?wsGServer$initializer$@@3P6AXXZA DD FLAT:??__EwsGServer@@YAXXZ ; wsGServer$initializer$
CRT$XCU	ENDS
CRT$XCU	SEGMENT
?wsJServerCli$initializer$@@3P6AXXZA DD FLAT:??__EwsJServerCli@@YAXXZ ; wsJServerCli$initializer$
CRT$XCU	ENDS
CRT$XCU	SEGMENT
?wsDataCli$initializer$@@3P6AXXZA DD FLAT:??__EwsDataCli@@YAXXZ ; wsDataCli$initializer$
CRT$XCU	ENDS
CRT$XCU	SEGMENT
?wsExDbCli$initializer$@@3P6AXXZA DD FLAT:??__EwsExDbCli@@YAXXZ ; wsExDbCli$initializer$
CRT$XCU	ENDS
CRT$XCU	SEGMENT
?wsRServerCli$initializer$@@3P6AXXZA DD FLAT:??__EwsRServerCli@@YAXXZ ; wsRServerCli$initializer$
CRT$XCU	ENDS
CRT$XCU	SEGMENT
?wsEvenChipServerCli$initializer$@@3P6AXXZA DD FLAT:??__EwsEvenChipServerCli@@YAXXZ ; wsEvenChipServerCli$initializer$
CRT$XCU	ENDS
CRT$XCU	SEGMENT
?gDirPath$initializer$@@3P6AXXZA DD FLAT:??__EgDirPath@@YAXXZ ; gDirPath$initializer$
CRT$XCU	ENDS
CRT$XCU	SEGMENT
?gMAttr$initializer$@@3P6AXXZA DD FLAT:??__EgMAttr@@YAXXZ ; gMAttr$initializer$
CRT$XCU	ENDS
CRT$XCU	SEGMENT
?gMSetBase$initializer$@@3P6AXXZA DD FLAT:??__EgMSetBase@@YAXXZ ; gMSetBase$initializer$
CRT$XCU	ENDS
CRT$XCU	SEGMENT
?DCInfo$initializer$@@3P6AXXZA DD FLAT:??__EDCInfo@@YAXXZ ; DCInfo$initializer$
CRT$XCU	ENDS
CRT$XCU	SEGMENT
?WhisperCash$initializer$@@3P6AXXZA DD FLAT:??__EWhisperCash@@YAXXZ ; WhisperCash$initializer$
CRT$XCU	ENDS
CRT$XCU	SEGMENT
?gParty$initializer$@@3P6AXXZA DD FLAT:??__EgParty@@YAXXZ ; gParty$initializer$
CRT$XCU	ENDS
CRT$XCU	SEGMENT
?gDbSave$initializer$@@3P6AXXZA DD FLAT:??__EgDbSave@@YAXXZ ; gDbSave$initializer$
CRT$XCU	ENDS
CRT$XCU	SEGMENT
?gUdpSoc$initializer$@@3P6AXXZA DD FLAT:??__EgUdpSoc@@YAXXZ ; gUdpSoc$initializer$
CRT$XCU	ENDS
CRT$XCU	SEGMENT
?gUdpSocCE$initializer$@@3P6AXXZA DD FLAT:??__EgUdpSocCE@@YAXXZ ; gUdpSocCE$initializer$
CRT$XCU	ENDS
CRT$XCU	SEGMENT
?gUdpSocCER$initializer$@@3P6AXXZA DD FLAT:??__EgUdpSocCER@@YAXXZ ; gUdpSocCER$initializer$
CRT$XCU	ENDS
CRT$XCU	SEGMENT
?gUdpSocCRank$initializer$@@3P6AXXZA DD FLAT:??__EgUdpSocCRank@@YAXXZ ; gUdpSocCRank$initializer$
CRT$XCU	ENDS
CRT$XCU	SEGMENT
?gUdpSocCRankR$initializer$@@3P6AXXZA DD FLAT:??__EgUdpSocCRankR@@YAXXZ ; gUdpSocCRankR$initializer$
CRT$XCU	ENDS
CRT$XCU	SEGMENT
?Guild$initializer$@@3P6AXXZA DD FLAT:??__EGuild@@YAXXZ	; Guild$initializer$
CRT$XCU	ENDS
CRT$XCU	SEGMENT
?lMsg$initializer$@@3P6AXXZA DD FLAT:??__ElMsg@@YAXXZ	; lMsg$initializer$
CRT$XCU	ENDS
CRT$XCU	SEGMENT
?gNSerialCheck$initializer$@@3P6AXXZA DD FLAT:??__EgNSerialCheck@@YAXXZ ; gNSerialCheck$initializer$
CRT$XCU	ENDS
CRT$XCU	SEGMENT
?gLCount$initializer$@@3P6AXXZA DD FLAT:??__EgLCount@@YAXXZ ; gLCount$initializer$
CRT$XCU	ENDS
CRT$XCU	SEGMENT
?g_SimpleModulusCS$initializer$@@3P6AXXZA DD FLAT:??__Eg_SimpleModulusCS@@YAXXZ ; g_SimpleModulusCS$initializer$
CRT$XCU	ENDS
CRT$XCU	SEGMENT
?g_SimpleModulusSC$initializer$@@3P6AXXZA DD FLAT:??__Eg_SimpleModulusSC@@YAXXZ ; g_SimpleModulusSC$initializer$
CRT$XCU	ENDS
; Function compile flags: /Odtp /ZI
; File C:\Mu Online\Mu-GS-Webzen-MC-10093\GameServer\Gamemain.cpp
;	COMDAT ?GraphPaint@@YAXPAUHWND__@@@Z
_TEXT	SEGMENT
_i$1 = -88						; size = 4
_n$2 = -84						; size = 4
_colBrush$ = -80					; size = 16
_val$ = -64						; size = 40
_rect$ = -24						; size = 16
_hdc$ = -8						; size = 4
__$ArrayPad$ = -4					; size = 4
_hWnd$ = 8						; size = 4
?GraphPaint@@YAXPAUHWND__@@@Z PROC			; GraphPaint, COMDAT

; 1983 : {

  00000	55		 push	 ebp
  00001	8b ec		 mov	 ebp, esp
  00003	81 ec 98 00 00
	00		 sub	 esp, 152		; 00000098H
  00009	a1 00 00 00 00	 mov	 eax, DWORD PTR ___security_cookie
  0000e	33 c5		 xor	 eax, ebp
  00010	89 45 fc	 mov	 DWORD PTR __$ArrayPad$[ebp], eax
  00013	53		 push	 ebx
  00014	56		 push	 esi
  00015	57		 push	 edi

; 1984 : 	HDC hdc = GetDC(hWnd);

  00016	8b 45 08	 mov	 eax, DWORD PTR _hWnd$[ebp]
  00019	50		 push	 eax
  0001a	ff 15 00 00 00
	00		 call	 DWORD PTR __imp__GetDC@4
  00020	89 45 f8	 mov	 DWORD PTR _hdc$[ebp], eax

; 1985 : 	RECT rect;
; 1986 : 	int  val[10];
; 1987 : 	HBRUSH colBrush[4];
; 1988 : 
; 1989 : 	colBrush[0] = (HBRUSH)CreateSolidBrush(RGB(100,100,100));

  00023	68 64 64 64 00	 push	 6579300			; 00646464H
  00028	ff 15 00 00 00
	00		 call	 DWORD PTR __imp__CreateSolidBrush@4
  0002e	b9 04 00 00 00	 mov	 ecx, 4
  00033	6b d1 00	 imul	 edx, ecx, 0
  00036	89 44 15 b0	 mov	 DWORD PTR _colBrush$[ebp+edx], eax

; 1990 : 	colBrush[1] = (HBRUSH)CreateSolidBrush(RGB(200,100,100));

  0003a	68 c8 64 64 00	 push	 6579400			; 006464c8H
  0003f	ff 15 00 00 00
	00		 call	 DWORD PTR __imp__CreateSolidBrush@4
  00045	b9 04 00 00 00	 mov	 ecx, 4
  0004a	c1 e1 00	 shl	 ecx, 0
  0004d	89 44 0d b0	 mov	 DWORD PTR _colBrush$[ebp+ecx], eax

; 1991 : 	colBrush[2] = (HBRUSH)CreateSolidBrush(RGB(200,200,200));

  00051	68 c8 c8 c8 00	 push	 13158600		; 00c8c8c8H
  00056	ff 15 00 00 00
	00		 call	 DWORD PTR __imp__CreateSolidBrush@4
  0005c	b9 04 00 00 00	 mov	 ecx, 4
  00061	d1 e1		 shl	 ecx, 1
  00063	89 44 0d b0	 mov	 DWORD PTR _colBrush$[ebp+ecx], eax

; 1992 : 	colBrush[3] = (HBRUSH)CreateSolidBrush(RGB(200,200,100));

  00067	68 c8 c8 64 00	 push	 6605000			; 0064c8c8H
  0006c	ff 15 00 00 00
	00		 call	 DWORD PTR __imp__CreateSolidBrush@4
  00072	b9 04 00 00 00	 mov	 ecx, 4
  00077	6b d1 03	 imul	 edx, ecx, 3
  0007a	89 44 15 b0	 mov	 DWORD PTR _colBrush$[ebp+edx], eax

; 1993 :  
; 1994 : 	// Class,Str,Dex,Vit,Energy,Life,Mana,LevelLife,LevelMana,VitalityToLife,EnergyToMana 
; 1995 : 	for( int n=0; n<4; n++)

  0007e	c7 45 ac 00 00
	00 00		 mov	 DWORD PTR _n$2[ebp], 0
  00085	eb 09		 jmp	 SHORT $LN4@GraphPaint
$LN2@GraphPaint:
  00087	8b 45 ac	 mov	 eax, DWORD PTR _n$2[ebp]
  0008a	83 c0 01	 add	 eax, 1
  0008d	89 45 ac	 mov	 DWORD PTR _n$2[ebp], eax
$LN4@GraphPaint:
  00090	83 7d ac 04	 cmp	 DWORD PTR _n$2[ebp], 4
  00094	0f 8d 9b 01 00
	00		 jge	 $LN3@GraphPaint

; 1996 : 	{
; 1997 : 		val[0] = DCInfo.DefClass[n].Strength;

  0009a	69 45 ac 60 09
	00 00		 imul	 eax, DWORD PTR _n$2[ebp], 2400
  000a1	0f b7 88 08 00
	00 00		 movzx	 ecx, WORD PTR ?DCInfo@@3Vclassdef@@A[eax+8]
  000a8	ba 04 00 00 00	 mov	 edx, 4
  000ad	6b c2 00	 imul	 eax, edx, 0
  000b0	89 4c 05 c0	 mov	 DWORD PTR _val$[ebp+eax], ecx

; 1998 : 		val[1] = DCInfo.DefClass[n].Dexterity;

  000b4	69 45 ac 60 09
	00 00		 imul	 eax, DWORD PTR _n$2[ebp], 2400
  000bb	0f b7 88 0a 00
	00 00		 movzx	 ecx, WORD PTR ?DCInfo@@3Vclassdef@@A[eax+10]
  000c2	ba 04 00 00 00	 mov	 edx, 4
  000c7	c1 e2 00	 shl	 edx, 0
  000ca	89 4c 15 c0	 mov	 DWORD PTR _val$[ebp+edx], ecx

; 1999 : 		val[2] = DCInfo.DefClass[n].Vitality;

  000ce	69 45 ac 60 09
	00 00		 imul	 eax, DWORD PTR _n$2[ebp], 2400
  000d5	0f b7 88 0c 00
	00 00		 movzx	 ecx, WORD PTR ?DCInfo@@3Vclassdef@@A[eax+12]
  000dc	ba 04 00 00 00	 mov	 edx, 4
  000e1	d1 e2		 shl	 edx, 1
  000e3	89 4c 15 c0	 mov	 DWORD PTR _val$[ebp+edx], ecx

; 2000 : 		val[3] = DCInfo.DefClass[n].Energy;

  000e7	69 45 ac 60 09
	00 00		 imul	 eax, DWORD PTR _n$2[ebp], 2400
  000ee	0f b7 88 0e 00
	00 00		 movzx	 ecx, WORD PTR ?DCInfo@@3Vclassdef@@A[eax+14]
  000f5	ba 04 00 00 00	 mov	 edx, 4
  000fa	6b c2 03	 imul	 eax, edx, 3
  000fd	89 4c 05 c0	 mov	 DWORD PTR _val$[ebp+eax], ecx

; 2001 : 		val[4] = (int)(DCInfo.DefClass[n].Life);

  00101	69 45 ac 60 09
	00 00		 imul	 eax, DWORD PTR _n$2[ebp], 2400
  00108	f3 0f 2c 88 14
	00 00 00	 cvttss2si ecx, DWORD PTR ?DCInfo@@3Vclassdef@@A[eax+20]
  00110	ba 04 00 00 00	 mov	 edx, 4
  00115	c1 e2 02	 shl	 edx, 2
  00118	89 4c 15 c0	 mov	 DWORD PTR _val$[ebp+edx], ecx

; 2002 : 		val[5] = (int)(DCInfo.DefClass[n].Mana);

  0011c	69 45 ac 60 09
	00 00		 imul	 eax, DWORD PTR _n$2[ebp], 2400
  00123	f3 0f 2c 88 20
	00 00 00	 cvttss2si ecx, DWORD PTR ?DCInfo@@3Vclassdef@@A[eax+32]
  0012b	ba 04 00 00 00	 mov	 edx, 4
  00130	6b c2 05	 imul	 eax, edx, 5
  00133	89 4c 05 c0	 mov	 DWORD PTR _val$[ebp+eax], ecx

; 2003 : 		val[6] = (int)(DCInfo.DefClass[n].LevelLife*10);

  00137	69 45 ac 60 09
	00 00		 imul	 eax, DWORD PTR _n$2[ebp], 2400
  0013e	f3 0f 10 80 10
	00 00 00	 movss	 xmm0, DWORD PTR ?DCInfo@@3Vclassdef@@A[eax+16]
  00146	f3 0f 59 05 00
	00 00 00	 mulss	 xmm0, DWORD PTR __real@41200000
  0014e	f3 0f 2c c8	 cvttss2si ecx, xmm0
  00152	ba 04 00 00 00	 mov	 edx, 4
  00157	6b c2 06	 imul	 eax, edx, 6
  0015a	89 4c 05 c0	 mov	 DWORD PTR _val$[ebp+eax], ecx

; 2004 : 		val[7] = (int)(DCInfo.DefClass[n].LevelMana*10);

  0015e	69 45 ac 60 09
	00 00		 imul	 eax, DWORD PTR _n$2[ebp], 2400
  00165	f3 0f 10 80 1c
	00 00 00	 movss	 xmm0, DWORD PTR ?DCInfo@@3Vclassdef@@A[eax+28]
  0016d	f3 0f 59 05 00
	00 00 00	 mulss	 xmm0, DWORD PTR __real@41200000
  00175	f3 0f 2c c8	 cvttss2si ecx, xmm0
  00179	ba 04 00 00 00	 mov	 edx, 4
  0017e	6b c2 07	 imul	 eax, edx, 7
  00181	89 4c 05 c0	 mov	 DWORD PTR _val$[ebp+eax], ecx

; 2005 : 		val[8] = (int)(DCInfo.DefClass[n].VitalityToLife*10);

  00185	69 45 ac 60 09
	00 00		 imul	 eax, DWORD PTR _n$2[ebp], 2400
  0018c	f3 0f 10 80 28
	00 00 00	 movss	 xmm0, DWORD PTR ?DCInfo@@3Vclassdef@@A[eax+40]
  00194	f3 0f 59 05 00
	00 00 00	 mulss	 xmm0, DWORD PTR __real@41200000
  0019c	f3 0f 2c c8	 cvttss2si ecx, xmm0
  001a0	ba 04 00 00 00	 mov	 edx, 4
  001a5	c1 e2 03	 shl	 edx, 3
  001a8	89 4c 15 c0	 mov	 DWORD PTR _val$[ebp+edx], ecx

; 2006 : 		val[9] = (int)(DCInfo.DefClass[n].EnergyToMana*10);

  001ac	69 45 ac 60 09
	00 00		 imul	 eax, DWORD PTR _n$2[ebp], 2400
  001b3	f3 0f 10 80 2c
	00 00 00	 movss	 xmm0, DWORD PTR ?DCInfo@@3Vclassdef@@A[eax+44]
  001bb	f3 0f 59 05 00
	00 00 00	 mulss	 xmm0, DWORD PTR __real@41200000
  001c3	f3 0f 2c c8	 cvttss2si ecx, xmm0
  001c7	ba 04 00 00 00	 mov	 edx, 4
  001cc	6b c2 09	 imul	 eax, edx, 9
  001cf	89 4c 05 c0	 mov	 DWORD PTR _val$[ebp+eax], ecx

; 2007 : 
; 2008 : 		for( int i=0; i<10; i++)

  001d3	c7 45 a8 00 00
	00 00		 mov	 DWORD PTR _i$1[ebp], 0
  001da	eb 09		 jmp	 SHORT $LN7@GraphPaint
$LN5@GraphPaint:
  001dc	8b 45 a8	 mov	 eax, DWORD PTR _i$1[ebp]
  001df	83 c0 01	 add	 eax, 1
  001e2	89 45 a8	 mov	 DWORD PTR _i$1[ebp], eax
$LN7@GraphPaint:
  001e5	83 7d a8 0a	 cmp	 DWORD PTR _i$1[ebp], 10	; 0000000aH
  001e9	7d 45		 jge	 SHORT $LN6@GraphPaint

; 2009 : 		{
; 2010 : 			rect.left = 0+(i*45)+(n*10);

  001eb	6b 45 a8 2d	 imul	 eax, DWORD PTR _i$1[ebp], 45
  001ef	6b 4d ac 0a	 imul	 ecx, DWORD PTR _n$2[ebp], 10
  001f3	03 c1		 add	 eax, ecx
  001f5	89 45 e8	 mov	 DWORD PTR _rect$[ebp], eax

; 2011 : 			rect.right = 10+(i*45)+(n*10);

  001f8	6b 45 a8 2d	 imul	 eax, DWORD PTR _i$1[ebp], 45
  001fc	6b 4d ac 0a	 imul	 ecx, DWORD PTR _n$2[ebp], 10
  00200	8d 54 08 0a	 lea	 edx, DWORD PTR [eax+ecx+10]
  00204	89 55 f0	 mov	 DWORD PTR _rect$[ebp+8], edx

; 2012 : 			rect.top  = 0;

  00207	c7 45 ec 00 00
	00 00		 mov	 DWORD PTR _rect$[ebp+4], 0

; 2013 : 			rect.bottom = val[i];

  0020e	8b 45 a8	 mov	 eax, DWORD PTR _i$1[ebp]
  00211	8b 4c 85 c0	 mov	 ecx, DWORD PTR _val$[ebp+eax*4]
  00215	89 4d f4	 mov	 DWORD PTR _rect$[ebp+12], ecx

; 2014 : 			FillRect(hdc, &rect, (HBRUSH)colBrush[n]);

  00218	8b 45 ac	 mov	 eax, DWORD PTR _n$2[ebp]
  0021b	8b 4c 85 b0	 mov	 ecx, DWORD PTR _colBrush$[ebp+eax*4]
  0021f	51		 push	 ecx
  00220	8d 55 e8	 lea	 edx, DWORD PTR _rect$[ebp]
  00223	52		 push	 edx
  00224	8b 45 f8	 mov	 eax, DWORD PTR _hdc$[ebp]
  00227	50		 push	 eax
  00228	ff 15 00 00 00
	00		 call	 DWORD PTR __imp__FillRect@12

; 2015 : 		}

  0022e	eb ac		 jmp	 SHORT $LN5@GraphPaint
$LN6@GraphPaint:

; 2016 : 	}

  00230	e9 52 fe ff ff	 jmp	 $LN2@GraphPaint
$LN3@GraphPaint:

; 2017 : 	ReleaseDC(hWnd, hdc);

  00235	8b 45 f8	 mov	 eax, DWORD PTR _hdc$[ebp]
  00238	50		 push	 eax
  00239	8b 4d 08	 mov	 ecx, DWORD PTR _hWnd$[ebp]
  0023c	51		 push	 ecx
  0023d	ff 15 00 00 00
	00		 call	 DWORD PTR __imp__ReleaseDC@8

; 2018 : 
; 2019 : 	DeleteObject(colBrush[0]);

  00243	b8 04 00 00 00	 mov	 eax, 4
  00248	6b c8 00	 imul	 ecx, eax, 0
  0024b	8b 54 0d b0	 mov	 edx, DWORD PTR _colBrush$[ebp+ecx]
  0024f	52		 push	 edx
  00250	ff 15 00 00 00
	00		 call	 DWORD PTR __imp__DeleteObject@4

; 2020 : 	DeleteObject(colBrush[1]);

  00256	b8 04 00 00 00	 mov	 eax, 4
  0025b	c1 e0 00	 shl	 eax, 0
  0025e	8b 4c 05 b0	 mov	 ecx, DWORD PTR _colBrush$[ebp+eax]
  00262	51		 push	 ecx
  00263	ff 15 00 00 00
	00		 call	 DWORD PTR __imp__DeleteObject@4

; 2021 : 	DeleteObject(colBrush[2]);

  00269	b8 04 00 00 00	 mov	 eax, 4
  0026e	d1 e0		 shl	 eax, 1
  00270	8b 4c 05 b0	 mov	 ecx, DWORD PTR _colBrush$[ebp+eax]
  00274	51		 push	 ecx
  00275	ff 15 00 00 00
	00		 call	 DWORD PTR __imp__DeleteObject@4

; 2022 : 	DeleteObject(colBrush[3]);

  0027b	b8 04 00 00 00	 mov	 eax, 4
  00280	6b c8 03	 imul	 ecx, eax, 3
  00283	8b 54 0d b0	 mov	 edx, DWORD PTR _colBrush$[ebp+ecx]
  00287	52		 push	 edx
  00288	ff 15 00 00 00
	00		 call	 DWORD PTR __imp__DeleteObject@4

; 2023 : }

  0028e	5f		 pop	 edi
  0028f	5e		 pop	 esi
  00290	5b		 pop	 ebx
  00291	8b 4d fc	 mov	 ecx, DWORD PTR __$ArrayPad$[ebp]
  00294	33 cd		 xor	 ecx, ebp
  00296	e8 00 00 00 00	 call	 @__security_check_cookie@4
  0029b	8b e5		 mov	 esp, ebp
  0029d	5d		 pop	 ebp
  0029e	c3		 ret	 0
?GraphPaint@@YAXPAUHWND__@@@Z ENDP			; GraphPaint
_TEXT	ENDS
; Function compile flags: /Odtp /ZI
; File C:\Mu Online\Mu-GS-Webzen-MC-10093\GameServer\Gamemain.cpp
;	COMDAT ?SetMapName@@YAXXZ
_TEXT	SEGMENT
?SetMapName@@YAXXZ PROC					; SetMapName, COMDAT

; 5908 : {

  00000	55		 push	 ebp
  00001	8b ec		 mov	 ebp, esp
  00003	83 ec 40	 sub	 esp, 64			; 00000040H
  00006	53		 push	 ebx
  00007	56		 push	 esi
  00008	57		 push	 edi

; 5909 : 	/*strcpy(g_TerrainManager.GetMapName(MAP_INDEX_RORENCIA), lMsg.Get(2000));
; 5910 : 	strcpy(g_TerrainManager.GetMapName(MAP_INDEX_DUNGEON], lMsg.Get(2001));
; 5911 : 	strcpy(gMapName[MAP_INDEX_DEVIAS], lMsg.Get(2002));
; 5912 : 	strcpy(gMapName[MAP_INDEX_NORIA], lMsg.Get(2003));
; 5913 : 	strcpy(gMapName[MAP_INDEX_LOSTTOWER], lMsg.Get(2004));
; 5914 : 	strcpy(gMapName[MAP_INDEX_RESERVED], "Reserved");
; 5915 : 	strcpy(gMapName[MAP_INDEX_BATTLESOCCER], lMsg.Get(2006));
; 5916 : 	strcpy(gMapName[MAP_INDEX_ATHLANSE], lMsg.Get(2005));
; 5917 : 	strcpy(gMapName[MAP_INDEX_TARKAN], lMsg.Get(2008));
; 5918 : 	strcpy(gMapName[MAP_INDEX_DEVILSQUARE], lMsg.Get(2009));
; 5919 : 	strcpy(gMapName[MAP_INDEX_ICARUS], lMsg.Get(2013));
; 5920 : 	strcpy(gMapName[MAP_INDEX_BLOODCASTLE1], lMsg.Get(2014));
; 5921 : 	strcat(gMapName[MAP_INDEX_BLOODCASTLE1], "1");
; 5922 : 	strcpy(gMapName[MAP_INDEX_BLOODCASTLE2], lMsg.Get(2014));
; 5923 : 	strcat(gMapName[MAP_INDEX_BLOODCASTLE2], "2");
; 5924 : 	strcpy(gMapName[MAP_INDEX_BLOODCASTLE3], lMsg.Get(2014));
; 5925 : 	strcat(gMapName[MAP_INDEX_BLOODCASTLE3], "3");
; 5926 : 	strcpy(gMapName[MAP_INDEX_BLOODCASTLE4], lMsg.Get(2014));
; 5927 : 	strcat(gMapName[MAP_INDEX_BLOODCASTLE4], "4");
; 5928 : 	strcpy(gMapName[MAP_INDEX_BLOODCASTLE5], lMsg.Get(2014));
; 5929 : 	strcat(gMapName[MAP_INDEX_BLOODCASTLE5], "5");
; 5930 : 	strcpy(gMapName[MAP_INDEX_BLOODCASTLE6], lMsg.Get(2014));
; 5931 : 	strcat(gMapName[MAP_INDEX_BLOODCASTLE6], "6");*/
; 5932 : #ifdef DEVILSQUARE_EXTEND_20050221		//   ? !!!  ()
; 5933 : #endif
; 5934 : }

  00009	5f		 pop	 edi
  0000a	5e		 pop	 esi
  0000b	5b		 pop	 ebx
  0000c	8b e5		 mov	 esp, ebp
  0000e	5d		 pop	 ebp
  0000f	c3		 ret	 0
?SetMapName@@YAXXZ ENDP					; SetMapName
_TEXT	ENDS
; Function compile flags: /Odtp /ZI
; File C:\Mu Online\Mu-GS-Webzen-MC-10093\GameServer\Gamemain.cpp
;	COMDAT ?LoadItemBag@@YAXXZ
_TEXT	SEGMENT
tv611 = -284						; size = 4
tv567 = -284						; size = 4
tv552 = -284						; size = 4
tv540 = -284						; size = 4
tv525 = -284						; size = 4
tv513 = -284						; size = 4
tv498 = -284						; size = 4
tv486 = -284						; size = 4
tv471 = -284						; size = 4
tv459 = -284						; size = 4
tv444 = -284						; size = 4
tv432 = -284						; size = 4
tv417 = -284						; size = 4
tv373 = -284						; size = 4
tv358 = -284						; size = 4
tv346 = -284						; size = 4
tv331 = -284						; size = 4
tv319 = -284						; size = 4
tv304 = -284						; size = 4
tv292 = -284						; size = 4
tv277 = -284						; size = 4
tv265 = -284						; size = 4
tv250 = -284						; size = 4
tv238 = -284						; size = 4
tv223 = -284						; size = 4
tv211 = -284						; size = 4
tv196 = -284						; size = 4
tv184 = -284						; size = 4
tv169 = -284						; size = 4
tv157 = -284						; size = 4
tv142 = -284						; size = 4
tv130 = -284						; size = 4
tv83 = -284						; size = 4
tv71 = -284						; size = 4
$T2 = -280						; size = 4
$T3 = -276						; size = 4
$T4 = -272						; size = 4
$T5 = -268						; size = 4
$T6 = -264						; size = 4
$T7 = -260						; size = 4
$T8 = -256						; size = 4
$T9 = -252						; size = 4
$T10 = -248						; size = 4
$T11 = -244						; size = 4
$T12 = -240						; size = 4
$T13 = -236						; size = 4
$T14 = -232						; size = 4
$T15 = -228						; size = 4
$T16 = -224						; size = 4
$T17 = -220						; size = 4
$T18 = -216						; size = 4
$T19 = -212						; size = 4
$T20 = -208						; size = 4
$T21 = -204						; size = 4
$T22 = -200						; size = 4
$T23 = -196						; size = 4
$T24 = -192						; size = 4
$T25 = -188						; size = 4
$T26 = -184						; size = 4
$T27 = -180						; size = 4
$T28 = -176						; size = 4
$T29 = -172						; size = 4
$T30 = -168						; size = 4
$T31 = -164						; size = 4
$T32 = -160						; size = 4
$T33 = -156						; size = 4
$T34 = -152						; size = 4
$T35 = -148						; size = 4
$T36 = -144						; size = 4
$T37 = -140						; size = 4
$T38 = -136						; size = 4
$T39 = -132						; size = 4
$T40 = -128						; size = 4
$T41 = -124						; size = 4
$T42 = -120						; size = 4
$T43 = -116						; size = 4
$T44 = -112						; size = 4
$T45 = -108						; size = 4
$T46 = -104						; size = 4
$T47 = -100						; size = 4
$T48 = -96						; size = 4
$T49 = -92						; size = 4
$T50 = -88						; size = 4
$T51 = -84						; size = 4
$T52 = -80						; size = 4
__$EHRec$ = -12						; size = 12
?LoadItemBag@@YAXXZ PROC				; LoadItemBag, COMDAT

; 4846 : {

  00000	55		 push	 ebp
  00001	8b ec		 mov	 ebp, esp
  00003	6a ff		 push	 -1
  00005	68 00 00 00 00	 push	 __ehhandler$?LoadItemBag@@YAXXZ
  0000a	64 a1 00 00 00
	00		 mov	 eax, DWORD PTR fs:0
  00010	50		 push	 eax
  00011	81 ec 10 01 00
	00		 sub	 esp, 272		; 00000110H
  00017	53		 push	 ebx
  00018	56		 push	 esi
  00019	57		 push	 edi
  0001a	a1 00 00 00 00	 mov	 eax, DWORD PTR ___security_cookie
  0001f	33 c5		 xor	 eax, ebp
  00021	50		 push	 eax
  00022	8d 45 f4	 lea	 eax, DWORD PTR __$EHRec$[ebp]
  00025	64 a3 00 00 00
	00		 mov	 DWORD PTR fs:0, eax

; 4847 : 	if( LuckboxItemBag ){delete LuckboxItemBag;}

  0002b	83 3d 00 00 00
	00 00		 cmp	 DWORD PTR ?LuckboxItemBag@@3PAVCItemBag@@A, 0 ; LuckboxItemBag
  00032	74 2e		 je	 SHORT $LN2@LoadItemBa
  00034	a1 00 00 00 00	 mov	 eax, DWORD PTR ?LuckboxItemBag@@3PAVCItemBag@@A ; LuckboxItemBag
  00039	89 45 b0	 mov	 DWORD PTR $T52[ebp], eax
  0003c	83 7d b0 00	 cmp	 DWORD PTR $T52[ebp], 0
  00040	74 16		 je	 SHORT $LN37@LoadItemBa
  00042	6a 01		 push	 1
  00044	8b 4d b0	 mov	 ecx, DWORD PTR $T52[ebp]
  00047	8b 11		 mov	 edx, DWORD PTR [ecx]
  00049	8b 4d b0	 mov	 ecx, DWORD PTR $T52[ebp]
  0004c	8b 02		 mov	 eax, DWORD PTR [edx]
  0004e	ff d0		 call	 eax
  00050	89 85 e4 fe ff
	ff		 mov	 DWORD PTR tv71[ebp], eax
  00056	eb 0a		 jmp	 SHORT $LN2@LoadItemBa
$LN37@LoadItemBa:
  00058	c7 85 e4 fe ff
	ff 00 00 00 00	 mov	 DWORD PTR tv71[ebp], 0
$LN2@LoadItemBa:

; 4848 : 
; 4849 : 	LuckboxItemBag = new CItemBag;

  00062	68 94 03 00 00	 push	 916			; 00000394H
  00067	e8 00 00 00 00	 call	 ??2@YAPAXI@Z		; operator new
  0006c	83 c4 04	 add	 esp, 4
  0006f	89 45 a8	 mov	 DWORD PTR $T50[ebp], eax
  00072	c7 45 fc 00 00
	00 00		 mov	 DWORD PTR __$EHRec$[ebp+8], 0
  00079	83 7d a8 00	 cmp	 DWORD PTR $T50[ebp], 0
  0007d	74 10		 je	 SHORT $LN39@LoadItemBa
  0007f	8b 4d a8	 mov	 ecx, DWORD PTR $T50[ebp]
  00082	e8 00 00 00 00	 call	 ??0CItemBag@@QAE@XZ	; CItemBag::CItemBag
  00087	89 85 e4 fe ff
	ff		 mov	 DWORD PTR tv83[ebp], eax
  0008d	eb 0a		 jmp	 SHORT $LN40@LoadItemBa
$LN39@LoadItemBa:
  0008f	c7 85 e4 fe ff
	ff 00 00 00 00	 mov	 DWORD PTR tv83[ebp], 0
$LN40@LoadItemBa:
  00099	8b 85 e4 fe ff
	ff		 mov	 eax, DWORD PTR tv83[ebp]
  0009f	89 45 ac	 mov	 DWORD PTR $T51[ebp], eax
  000a2	c7 45 fc ff ff
	ff ff		 mov	 DWORD PTR __$EHRec$[ebp+8], -1
  000a9	8b 4d ac	 mov	 ecx, DWORD PTR $T51[ebp]
  000ac	89 0d 00 00 00
	00		 mov	 DWORD PTR ?LuckboxItemBag@@3PAVCItemBag@@A, ecx ; LuckboxItemBag

; 4850 : 	if( LuckboxItemBag == NULL )

  000b2	83 3d 00 00 00
	00 00		 cmp	 DWORD PTR ?LuckboxItemBag@@3PAVCItemBag@@A, 0 ; LuckboxItemBag
  000b9	75 20		 jne	 SHORT $LN3@LoadItemBa

; 4851 : 	{
; 4852 : 		MsgBox("CItemBag %s", lMsg.Get(110));

  000bb	6a 6e		 push	 110			; 0000006eH
  000bd	b9 00 00 00 00	 mov	 ecx, OFFSET ?lMsg@@3VCMsg@@A ; lMsg
  000c2	ff 15 00 00 00
	00		 call	 DWORD PTR __imp_?Get@CMsg@@QAEPADH@Z
  000c8	50		 push	 eax
  000c9	68 00 00 00 00	 push	 OFFSET ??_C@_0M@GNOCDNGL@CItemBag?5?$CFs@
  000ce	e8 00 00 00 00	 call	 ?MsgBox@@YAXPADZZ	; MsgBox
  000d3	83 c4 08	 add	 esp, 8

; 4853 : 		return;

  000d6	e9 60 0d 00 00	 jmp	 $LN1@LoadItemBa
$LN3@LoadItemBa:

; 4854 : 	}
; 4855 : 
; 4856 : #ifdef SCRIPT_DECODE_WORK
; 4857 : 	LuckboxItemBag->Init("eventitembag.cwz");
; 4858 : #else
; 4859 : 	LuckboxItemBag->Init("eventitembag.txt");

  000db	68 00 00 00 00	 push	 OFFSET ??_C@_0BB@DBBPHKAA@eventitembag?4txt@
  000e0	8b 0d 00 00 00
	00		 mov	 ecx, DWORD PTR ?LuckboxItemBag@@3PAVCItemBag@@A ; LuckboxItemBag
  000e6	e8 00 00 00 00	 call	 ?Init@CItemBag@@QAEXPAD@Z ; CItemBag::Init

; 4860 : #endif
; 4861 : 
; 4862 : 	if( Mon55 ){delete Mon55;}

  000eb	83 3d 00 00 00
	00 00		 cmp	 DWORD PTR ?Mon55@@3PAVCItemBag@@A, 0 ; Mon55
  000f2	74 2e		 je	 SHORT $LN4@LoadItemBa
  000f4	a1 00 00 00 00	 mov	 eax, DWORD PTR ?Mon55@@3PAVCItemBag@@A ; Mon55
  000f9	89 45 a4	 mov	 DWORD PTR $T49[ebp], eax
  000fc	83 7d a4 00	 cmp	 DWORD PTR $T49[ebp], 0
  00100	74 16		 je	 SHORT $LN41@LoadItemBa
  00102	6a 01		 push	 1
  00104	8b 4d a4	 mov	 ecx, DWORD PTR $T49[ebp]
  00107	8b 11		 mov	 edx, DWORD PTR [ecx]
  00109	8b 4d a4	 mov	 ecx, DWORD PTR $T49[ebp]
  0010c	8b 02		 mov	 eax, DWORD PTR [edx]
  0010e	ff d0		 call	 eax
  00110	89 85 e4 fe ff
	ff		 mov	 DWORD PTR tv130[ebp], eax
  00116	eb 0a		 jmp	 SHORT $LN4@LoadItemBa
$LN41@LoadItemBa:
  00118	c7 85 e4 fe ff
	ff 00 00 00 00	 mov	 DWORD PTR tv130[ebp], 0
$LN4@LoadItemBa:

; 4863 : 	Mon55			= new CItemBag;

  00122	68 94 03 00 00	 push	 916			; 00000394H
  00127	e8 00 00 00 00	 call	 ??2@YAPAXI@Z		; operator new
  0012c	83 c4 04	 add	 esp, 4
  0012f	89 45 9c	 mov	 DWORD PTR $T47[ebp], eax
  00132	c7 45 fc 01 00
	00 00		 mov	 DWORD PTR __$EHRec$[ebp+8], 1
  00139	83 7d 9c 00	 cmp	 DWORD PTR $T47[ebp], 0
  0013d	74 10		 je	 SHORT $LN43@LoadItemBa
  0013f	8b 4d 9c	 mov	 ecx, DWORD PTR $T47[ebp]
  00142	e8 00 00 00 00	 call	 ??0CItemBag@@QAE@XZ	; CItemBag::CItemBag
  00147	89 85 e4 fe ff
	ff		 mov	 DWORD PTR tv142[ebp], eax
  0014d	eb 0a		 jmp	 SHORT $LN44@LoadItemBa
$LN43@LoadItemBa:
  0014f	c7 85 e4 fe ff
	ff 00 00 00 00	 mov	 DWORD PTR tv142[ebp], 0
$LN44@LoadItemBa:
  00159	8b 85 e4 fe ff
	ff		 mov	 eax, DWORD PTR tv142[ebp]
  0015f	89 45 a0	 mov	 DWORD PTR $T48[ebp], eax
  00162	c7 45 fc ff ff
	ff ff		 mov	 DWORD PTR __$EHRec$[ebp+8], -1
  00169	8b 4d a0	 mov	 ecx, DWORD PTR $T48[ebp]
  0016c	89 0d 00 00 00
	00		 mov	 DWORD PTR ?Mon55@@3PAVCItemBag@@A, ecx ; Mon55

; 4864 : 	if( Mon55 == NULL )

  00172	83 3d 00 00 00
	00 00		 cmp	 DWORD PTR ?Mon55@@3PAVCItemBag@@A, 0 ; Mon55
  00179	75 20		 jne	 SHORT $LN5@LoadItemBa

; 4865 : 	{
; 4866 : 		MsgBox("CItemBag %s", lMsg.Get(110));

  0017b	6a 6e		 push	 110			; 0000006eH
  0017d	b9 00 00 00 00	 mov	 ecx, OFFSET ?lMsg@@3VCMsg@@A ; lMsg
  00182	ff 15 00 00 00
	00		 call	 DWORD PTR __imp_?Get@CMsg@@QAEPADH@Z
  00188	50		 push	 eax
  00189	68 00 00 00 00	 push	 OFFSET ??_C@_0M@GNOCDNGL@CItemBag?5?$CFs@
  0018e	e8 00 00 00 00	 call	 ?MsgBox@@YAXPADZZ	; MsgBox
  00193	83 c4 08	 add	 esp, 8

; 4867 : 		return;

  00196	e9 a0 0c 00 00	 jmp	 $LN1@LoadItemBa
$LN5@LoadItemBa:

; 4868 : 	}
; 4869 : 
; 4870 : #ifdef SCRIPT_DECODE_WORK
; 4871 : 	Mon55->Init("eventitembag2.cwz");
; 4872 : #else
; 4873 : 	Mon55->Init("eventitembag2.txt");

  0019b	68 00 00 00 00	 push	 OFFSET ??_C@_0BC@OBJPANO@eventitembag2?4txt@
  001a0	8b 0d 00 00 00
	00		 mov	 ecx, DWORD PTR ?Mon55@@3PAVCItemBag@@A ; Mon55
  001a6	e8 00 00 00 00	 call	 ?Init@CItemBag@@QAEXPAD@Z ; CItemBag::Init

; 4874 : #endif
; 4875 : 
; 4876 : 	if( Mon53 ){delete Mon53;}

  001ab	83 3d 00 00 00
	00 00		 cmp	 DWORD PTR ?Mon53@@3PAVCItemBag@@A, 0 ; Mon53
  001b2	74 2e		 je	 SHORT $LN6@LoadItemBa
  001b4	a1 00 00 00 00	 mov	 eax, DWORD PTR ?Mon53@@3PAVCItemBag@@A ; Mon53
  001b9	89 45 98	 mov	 DWORD PTR $T46[ebp], eax
  001bc	83 7d 98 00	 cmp	 DWORD PTR $T46[ebp], 0
  001c0	74 16		 je	 SHORT $LN45@LoadItemBa
  001c2	6a 01		 push	 1
  001c4	8b 4d 98	 mov	 ecx, DWORD PTR $T46[ebp]
  001c7	8b 11		 mov	 edx, DWORD PTR [ecx]
  001c9	8b 4d 98	 mov	 ecx, DWORD PTR $T46[ebp]
  001cc	8b 02		 mov	 eax, DWORD PTR [edx]
  001ce	ff d0		 call	 eax
  001d0	89 85 e4 fe ff
	ff		 mov	 DWORD PTR tv157[ebp], eax
  001d6	eb 0a		 jmp	 SHORT $LN6@LoadItemBa
$LN45@LoadItemBa:
  001d8	c7 85 e4 fe ff
	ff 00 00 00 00	 mov	 DWORD PTR tv157[ebp], 0
$LN6@LoadItemBa:

; 4877 : 	Mon53			= new CItemBag;

  001e2	68 94 03 00 00	 push	 916			; 00000394H
  001e7	e8 00 00 00 00	 call	 ??2@YAPAXI@Z		; operator new
  001ec	83 c4 04	 add	 esp, 4
  001ef	89 45 90	 mov	 DWORD PTR $T44[ebp], eax
  001f2	c7 45 fc 02 00
	00 00		 mov	 DWORD PTR __$EHRec$[ebp+8], 2
  001f9	83 7d 90 00	 cmp	 DWORD PTR $T44[ebp], 0
  001fd	74 10		 je	 SHORT $LN47@LoadItemBa
  001ff	8b 4d 90	 mov	 ecx, DWORD PTR $T44[ebp]
  00202	e8 00 00 00 00	 call	 ??0CItemBag@@QAE@XZ	; CItemBag::CItemBag
  00207	89 85 e4 fe ff
	ff		 mov	 DWORD PTR tv169[ebp], eax
  0020d	eb 0a		 jmp	 SHORT $LN48@LoadItemBa
$LN47@LoadItemBa:
  0020f	c7 85 e4 fe ff
	ff 00 00 00 00	 mov	 DWORD PTR tv169[ebp], 0
$LN48@LoadItemBa:
  00219	8b 85 e4 fe ff
	ff		 mov	 eax, DWORD PTR tv169[ebp]
  0021f	89 45 94	 mov	 DWORD PTR $T45[ebp], eax
  00222	c7 45 fc ff ff
	ff ff		 mov	 DWORD PTR __$EHRec$[ebp+8], -1
  00229	8b 4d 94	 mov	 ecx, DWORD PTR $T45[ebp]
  0022c	89 0d 00 00 00
	00		 mov	 DWORD PTR ?Mon53@@3PAVCItemBag@@A, ecx ; Mon53

; 4878 : 	if( Mon53 == NULL )

  00232	83 3d 00 00 00
	00 00		 cmp	 DWORD PTR ?Mon53@@3PAVCItemBag@@A, 0 ; Mon53
  00239	75 20		 jne	 SHORT $LN7@LoadItemBa

; 4879 : 	{
; 4880 : 		MsgBox("CItemBag %s", lMsg.Get(110));

  0023b	6a 6e		 push	 110			; 0000006eH
  0023d	b9 00 00 00 00	 mov	 ecx, OFFSET ?lMsg@@3VCMsg@@A ; lMsg
  00242	ff 15 00 00 00
	00		 call	 DWORD PTR __imp_?Get@CMsg@@QAEPADH@Z
  00248	50		 push	 eax
  00249	68 00 00 00 00	 push	 OFFSET ??_C@_0M@GNOCDNGL@CItemBag?5?$CFs@
  0024e	e8 00 00 00 00	 call	 ?MsgBox@@YAXPADZZ	; MsgBox
  00253	83 c4 08	 add	 esp, 8

; 4881 : 		return;

  00256	e9 e0 0b 00 00	 jmp	 $LN1@LoadItemBa
$LN7@LoadItemBa:

; 4882 : 	}
; 4883 : 
; 4884 : #ifdef SCRIPT_DECODE_WORK
; 4885 : 	Mon53->Init("eventitembag3.cwz");
; 4886 : #else
; 4887 : 	Mon53->Init("eventitembag3.txt");

  0025b	68 00 00 00 00	 push	 OFFSET ??_C@_0BC@MFEFCDHL@eventitembag3?4txt@
  00260	8b 0d 00 00 00
	00		 mov	 ecx, DWORD PTR ?Mon53@@3PAVCItemBag@@A ; Mon53
  00266	e8 00 00 00 00	 call	 ?Init@CItemBag@@QAEXPAD@Z ; CItemBag::Init

; 4888 : #endif
; 4889 : 
; 4890 : 	//     
; 4891 : 	if( StarOfXMasItemBag ){delete StarOfXMasItemBag;}

  0026b	83 3d 00 00 00
	00 00		 cmp	 DWORD PTR ?StarOfXMasItemBag@@3PAVCItemBagEx@@A, 0 ; StarOfXMasItemBag
  00272	74 2e		 je	 SHORT $LN8@LoadItemBa
  00274	a1 00 00 00 00	 mov	 eax, DWORD PTR ?StarOfXMasItemBag@@3PAVCItemBagEx@@A ; StarOfXMasItemBag
  00279	89 45 8c	 mov	 DWORD PTR $T43[ebp], eax
  0027c	83 7d 8c 00	 cmp	 DWORD PTR $T43[ebp], 0
  00280	74 16		 je	 SHORT $LN49@LoadItemBa
  00282	6a 01		 push	 1
  00284	8b 4d 8c	 mov	 ecx, DWORD PTR $T43[ebp]
  00287	8b 11		 mov	 edx, DWORD PTR [ecx]
  00289	8b 4d 8c	 mov	 ecx, DWORD PTR $T43[ebp]
  0028c	8b 02		 mov	 eax, DWORD PTR [edx]
  0028e	ff d0		 call	 eax
  00290	89 85 e4 fe ff
	ff		 mov	 DWORD PTR tv184[ebp], eax
  00296	eb 0a		 jmp	 SHORT $LN8@LoadItemBa
$LN49@LoadItemBa:
  00298	c7 85 e4 fe ff
	ff 00 00 00 00	 mov	 DWORD PTR tv184[ebp], 0
$LN8@LoadItemBa:

; 4892 : 
; 4893 : #ifdef EVENT_ITEMBAG_UPGRADE
; 4894 : 	StarOfXMasItemBag = new CItemBagEx;

  002a2	68 d8 05 00 00	 push	 1496			; 000005d8H
  002a7	e8 00 00 00 00	 call	 ??2@YAPAXI@Z		; operator new
  002ac	83 c4 04	 add	 esp, 4
  002af	89 45 84	 mov	 DWORD PTR $T41[ebp], eax
  002b2	c7 45 fc 03 00
	00 00		 mov	 DWORD PTR __$EHRec$[ebp+8], 3
  002b9	83 7d 84 00	 cmp	 DWORD PTR $T41[ebp], 0
  002bd	74 10		 je	 SHORT $LN51@LoadItemBa
  002bf	8b 4d 84	 mov	 ecx, DWORD PTR $T41[ebp]
  002c2	e8 00 00 00 00	 call	 ??0CItemBagEx@@QAE@XZ	; CItemBagEx::CItemBagEx
  002c7	89 85 e4 fe ff
	ff		 mov	 DWORD PTR tv196[ebp], eax
  002cd	eb 0a		 jmp	 SHORT $LN52@LoadItemBa
$LN51@LoadItemBa:
  002cf	c7 85 e4 fe ff
	ff 00 00 00 00	 mov	 DWORD PTR tv196[ebp], 0
$LN52@LoadItemBa:
  002d9	8b 85 e4 fe ff
	ff		 mov	 eax, DWORD PTR tv196[ebp]
  002df	89 45 88	 mov	 DWORD PTR $T42[ebp], eax
  002e2	c7 45 fc ff ff
	ff ff		 mov	 DWORD PTR __$EHRec$[ebp+8], -1
  002e9	8b 4d 88	 mov	 ecx, DWORD PTR $T42[ebp]
  002ec	89 0d 00 00 00
	00		 mov	 DWORD PTR ?StarOfXMasItemBag@@3PAVCItemBagEx@@A, ecx ; StarOfXMasItemBag

; 4895 : #else
; 4896 : 	StarOfXMasItemBag = new CItemBag;
; 4897 : #endif
; 4898 : 	
; 4899 : 	if( StarOfXMasItemBag == NULL )

  002f2	83 3d 00 00 00
	00 00		 cmp	 DWORD PTR ?StarOfXMasItemBag@@3PAVCItemBagEx@@A, 0 ; StarOfXMasItemBag
  002f9	75 20		 jne	 SHORT $LN9@LoadItemBa

; 4900 : 	{
; 4901 : 		MsgBox("CItemBag %s", lMsg.Get(110));

  002fb	6a 6e		 push	 110			; 0000006eH
  002fd	b9 00 00 00 00	 mov	 ecx, OFFSET ?lMsg@@3VCMsg@@A ; lMsg
  00302	ff 15 00 00 00
	00		 call	 DWORD PTR __imp_?Get@CMsg@@QAEPADH@Z
  00308	50		 push	 eax
  00309	68 00 00 00 00	 push	 OFFSET ??_C@_0M@GNOCDNGL@CItemBag?5?$CFs@
  0030e	e8 00 00 00 00	 call	 ?MsgBox@@YAXPADZZ	; MsgBox
  00313	83 c4 08	 add	 esp, 8

; 4902 : 		return;

  00316	e9 20 0b 00 00	 jmp	 $LN1@LoadItemBa
$LN9@LoadItemBa:

; 4903 : 	}
; 4904 : 
; 4905 : #ifdef SCRIPT_DECODE_WORK
; 4906 : 	StarOfXMasItemBag->Init("eventitembag4.cwz");
; 4907 : #else
; 4908 : 	StarOfXMasItemBag->Init("eventitembag4.txt");

  0031b	68 00 00 00 00	 push	 OFFSET ??_C@_0BC@NIEABDMD@eventitembag4?4txt@
  00320	8b 0d 00 00 00
	00		 mov	 ecx, DWORD PTR ?StarOfXMasItemBag@@3PAVCItemBagEx@@A ; StarOfXMasItemBag
  00326	e8 00 00 00 00	 call	 ?Init@CItemBagEx@@QAEXPAD@Z ; CItemBagEx::Init

; 4909 : #endif
; 4910 : 
; 4911 : 	//    
; 4912 : 	if( FireCrackerItemBag ){delete FireCrackerItemBag;}

  0032b	83 3d 00 00 00
	00 00		 cmp	 DWORD PTR ?FireCrackerItemBag@@3PAVCItemBag@@A, 0 ; FireCrackerItemBag
  00332	74 2e		 je	 SHORT $LN10@LoadItemBa
  00334	a1 00 00 00 00	 mov	 eax, DWORD PTR ?FireCrackerItemBag@@3PAVCItemBag@@A ; FireCrackerItemBag
  00339	89 45 80	 mov	 DWORD PTR $T40[ebp], eax
  0033c	83 7d 80 00	 cmp	 DWORD PTR $T40[ebp], 0
  00340	74 16		 je	 SHORT $LN53@LoadItemBa
  00342	6a 01		 push	 1
  00344	8b 4d 80	 mov	 ecx, DWORD PTR $T40[ebp]
  00347	8b 11		 mov	 edx, DWORD PTR [ecx]
  00349	8b 4d 80	 mov	 ecx, DWORD PTR $T40[ebp]
  0034c	8b 02		 mov	 eax, DWORD PTR [edx]
  0034e	ff d0		 call	 eax
  00350	89 85 e4 fe ff
	ff		 mov	 DWORD PTR tv211[ebp], eax
  00356	eb 0a		 jmp	 SHORT $LN10@LoadItemBa
$LN53@LoadItemBa:
  00358	c7 85 e4 fe ff
	ff 00 00 00 00	 mov	 DWORD PTR tv211[ebp], 0
$LN10@LoadItemBa:

; 4913 : 	FireCrackerItemBag = new CItemBag;

  00362	68 94 03 00 00	 push	 916			; 00000394H
  00367	e8 00 00 00 00	 call	 ??2@YAPAXI@Z		; operator new
  0036c	83 c4 04	 add	 esp, 4
  0036f	89 85 78 ff ff
	ff		 mov	 DWORD PTR $T38[ebp], eax
  00375	c7 45 fc 04 00
	00 00		 mov	 DWORD PTR __$EHRec$[ebp+8], 4
  0037c	83 bd 78 ff ff
	ff 00		 cmp	 DWORD PTR $T38[ebp], 0
  00383	74 13		 je	 SHORT $LN55@LoadItemBa
  00385	8b 8d 78 ff ff
	ff		 mov	 ecx, DWORD PTR $T38[ebp]
  0038b	e8 00 00 00 00	 call	 ??0CItemBag@@QAE@XZ	; CItemBag::CItemBag
  00390	89 85 e4 fe ff
	ff		 mov	 DWORD PTR tv223[ebp], eax
  00396	eb 0a		 jmp	 SHORT $LN56@LoadItemBa
$LN55@LoadItemBa:
  00398	c7 85 e4 fe ff
	ff 00 00 00 00	 mov	 DWORD PTR tv223[ebp], 0
$LN56@LoadItemBa:
  003a2	8b 85 e4 fe ff
	ff		 mov	 eax, DWORD PTR tv223[ebp]
  003a8	89 85 7c ff ff
	ff		 mov	 DWORD PTR $T39[ebp], eax
  003ae	c7 45 fc ff ff
	ff ff		 mov	 DWORD PTR __$EHRec$[ebp+8], -1
  003b5	8b 8d 7c ff ff
	ff		 mov	 ecx, DWORD PTR $T39[ebp]
  003bb	89 0d 00 00 00
	00		 mov	 DWORD PTR ?FireCrackerItemBag@@3PAVCItemBag@@A, ecx ; FireCrackerItemBag

; 4914 : 	if( FireCrackerItemBag == NULL )

  003c1	83 3d 00 00 00
	00 00		 cmp	 DWORD PTR ?FireCrackerItemBag@@3PAVCItemBag@@A, 0 ; FireCrackerItemBag
  003c8	75 20		 jne	 SHORT $LN11@LoadItemBa

; 4915 : 	{
; 4916 : 		MsgBox("CItemBag %s", lMsg.Get(110));

  003ca	6a 6e		 push	 110			; 0000006eH
  003cc	b9 00 00 00 00	 mov	 ecx, OFFSET ?lMsg@@3VCMsg@@A ; lMsg
  003d1	ff 15 00 00 00
	00		 call	 DWORD PTR __imp_?Get@CMsg@@QAEPADH@Z
  003d7	50		 push	 eax
  003d8	68 00 00 00 00	 push	 OFFSET ??_C@_0M@GNOCDNGL@CItemBag?5?$CFs@
  003dd	e8 00 00 00 00	 call	 ?MsgBox@@YAXPADZZ	; MsgBox
  003e2	83 c4 08	 add	 esp, 8

; 4917 : 		return;

  003e5	e9 51 0a 00 00	 jmp	 $LN1@LoadItemBa
$LN11@LoadItemBa:

; 4918 : 	}
; 4919 : 
; 4920 : #ifdef SCRIPT_DECODE_WORK
; 4921 : 	FireCrackerItemBag->Init("eventitembag5.cwz");
; 4922 : #else
; 4923 : 	FireCrackerItemBag->Init("eventitembag5.txt");

  003ea	68 00 00 00 00	 push	 OFFSET ??_C@_0BC@BDBMMAGG@eventitembag5?4txt@
  003ef	8b 0d 00 00 00
	00		 mov	 ecx, DWORD PTR ?FireCrackerItemBag@@3PAVCItemBag@@A ; FireCrackerItemBag
  003f5	e8 00 00 00 00	 call	 ?Init@CItemBag@@QAEXPAD@Z ; CItemBag::Init

; 4924 : #endif
; 4925 : 
; 4926 : 	//    
; 4927 : 	if( HeartOfLoveItemBag ){delete HeartOfLoveItemBag;}

  003fa	83 3d 00 00 00
	00 00		 cmp	 DWORD PTR ?HeartOfLoveItemBag@@3PAVCItemBag@@A, 0 ; HeartOfLoveItemBag
  00401	74 3a		 je	 SHORT $LN12@LoadItemBa
  00403	a1 00 00 00 00	 mov	 eax, DWORD PTR ?HeartOfLoveItemBag@@3PAVCItemBag@@A ; HeartOfLoveItemBag
  00408	89 85 74 ff ff
	ff		 mov	 DWORD PTR $T37[ebp], eax
  0040e	83 bd 74 ff ff
	ff 00		 cmp	 DWORD PTR $T37[ebp], 0
  00415	74 1c		 je	 SHORT $LN57@LoadItemBa
  00417	6a 01		 push	 1
  00419	8b 8d 74 ff ff
	ff		 mov	 ecx, DWORD PTR $T37[ebp]
  0041f	8b 11		 mov	 edx, DWORD PTR [ecx]
  00421	8b 8d 74 ff ff
	ff		 mov	 ecx, DWORD PTR $T37[ebp]
  00427	8b 02		 mov	 eax, DWORD PTR [edx]
  00429	ff d0		 call	 eax
  0042b	89 85 e4 fe ff
	ff		 mov	 DWORD PTR tv238[ebp], eax
  00431	eb 0a		 jmp	 SHORT $LN12@LoadItemBa
$LN57@LoadItemBa:
  00433	c7 85 e4 fe ff
	ff 00 00 00 00	 mov	 DWORD PTR tv238[ebp], 0
$LN12@LoadItemBa:

; 4928 : 	HeartOfLoveItemBag = new CItemBag;

  0043d	68 94 03 00 00	 push	 916			; 00000394H
  00442	e8 00 00 00 00	 call	 ??2@YAPAXI@Z		; operator new
  00447	83 c4 04	 add	 esp, 4
  0044a	89 85 6c ff ff
	ff		 mov	 DWORD PTR $T35[ebp], eax
  00450	c7 45 fc 05 00
	00 00		 mov	 DWORD PTR __$EHRec$[ebp+8], 5
  00457	83 bd 6c ff ff
	ff 00		 cmp	 DWORD PTR $T35[ebp], 0
  0045e	74 13		 je	 SHORT $LN59@LoadItemBa
  00460	8b 8d 6c ff ff
	ff		 mov	 ecx, DWORD PTR $T35[ebp]
  00466	e8 00 00 00 00	 call	 ??0CItemBag@@QAE@XZ	; CItemBag::CItemBag
  0046b	89 85 e4 fe ff
	ff		 mov	 DWORD PTR tv250[ebp], eax
  00471	eb 0a		 jmp	 SHORT $LN60@LoadItemBa
$LN59@LoadItemBa:
  00473	c7 85 e4 fe ff
	ff 00 00 00 00	 mov	 DWORD PTR tv250[ebp], 0
$LN60@LoadItemBa:
  0047d	8b 85 e4 fe ff
	ff		 mov	 eax, DWORD PTR tv250[ebp]
  00483	89 85 70 ff ff
	ff		 mov	 DWORD PTR $T36[ebp], eax
  00489	c7 45 fc ff ff
	ff ff		 mov	 DWORD PTR __$EHRec$[ebp+8], -1
  00490	8b 8d 70 ff ff
	ff		 mov	 ecx, DWORD PTR $T36[ebp]
  00496	89 0d 00 00 00
	00		 mov	 DWORD PTR ?HeartOfLoveItemBag@@3PAVCItemBag@@A, ecx ; HeartOfLoveItemBag

; 4929 : 	if( HeartOfLoveItemBag == NULL )

  0049c	83 3d 00 00 00
	00 00		 cmp	 DWORD PTR ?HeartOfLoveItemBag@@3PAVCItemBag@@A, 0 ; HeartOfLoveItemBag
  004a3	75 20		 jne	 SHORT $LN13@LoadItemBa

; 4930 : 	{
; 4931 : 		MsgBox("CItemBag %s", lMsg.Get(110));

  004a5	6a 6e		 push	 110			; 0000006eH
  004a7	b9 00 00 00 00	 mov	 ecx, OFFSET ?lMsg@@3VCMsg@@A ; lMsg
  004ac	ff 15 00 00 00
	00		 call	 DWORD PTR __imp_?Get@CMsg@@QAEPADH@Z
  004b2	50		 push	 eax
  004b3	68 00 00 00 00	 push	 OFFSET ??_C@_0M@GNOCDNGL@CItemBag?5?$CFs@
  004b8	e8 00 00 00 00	 call	 ?MsgBox@@YAXPADZZ	; MsgBox
  004bd	83 c4 08	 add	 esp, 8

; 4932 : 		return;

  004c0	e9 76 09 00 00	 jmp	 $LN1@LoadItemBa
$LN13@LoadItemBa:

; 4933 : 	}
; 4934 : 
; 4935 : #ifdef SCRIPT_DECODE_WORK
; 4936 : 	HeartOfLoveItemBag->Init("eventitembag5.cwz");
; 4937 : #else
; 4938 : 	HeartOfLoveItemBag->Init("eventitembag5.txt");

  004c5	68 00 00 00 00	 push	 OFFSET ??_C@_0BC@BDBMMAGG@eventitembag5?4txt@
  004ca	8b 0d 00 00 00
	00		 mov	 ecx, DWORD PTR ?HeartOfLoveItemBag@@3PAVCItemBag@@A ; HeartOfLoveItemBag
  004d0	e8 00 00 00 00	 call	 ?Init@CItemBag@@QAEXPAD@Z ; CItemBag::Init

; 4939 : #endif
; 4940 : 
; 4941 : 	//    
; 4942 : 	if( GoldMedalItemBag ){delete GoldMedalItemBag;}

  004d5	83 3d 00 00 00
	00 00		 cmp	 DWORD PTR ?GoldMedalItemBag@@3PAVCItemBag@@A, 0 ; GoldMedalItemBag
  004dc	74 3a		 je	 SHORT $LN14@LoadItemBa
  004de	a1 00 00 00 00	 mov	 eax, DWORD PTR ?GoldMedalItemBag@@3PAVCItemBag@@A ; GoldMedalItemBag
  004e3	89 85 68 ff ff
	ff		 mov	 DWORD PTR $T34[ebp], eax
  004e9	83 bd 68 ff ff
	ff 00		 cmp	 DWORD PTR $T34[ebp], 0
  004f0	74 1c		 je	 SHORT $LN61@LoadItemBa
  004f2	6a 01		 push	 1
  004f4	8b 8d 68 ff ff
	ff		 mov	 ecx, DWORD PTR $T34[ebp]
  004fa	8b 11		 mov	 edx, DWORD PTR [ecx]
  004fc	8b 8d 68 ff ff
	ff		 mov	 ecx, DWORD PTR $T34[ebp]
  00502	8b 02		 mov	 eax, DWORD PTR [edx]
  00504	ff d0		 call	 eax
  00506	89 85 e4 fe ff
	ff		 mov	 DWORD PTR tv265[ebp], eax
  0050c	eb 0a		 jmp	 SHORT $LN14@LoadItemBa
$LN61@LoadItemBa:
  0050e	c7 85 e4 fe ff
	ff 00 00 00 00	 mov	 DWORD PTR tv265[ebp], 0
$LN14@LoadItemBa:

; 4943 : 	GoldMedalItemBag = new CItemBag;

  00518	68 94 03 00 00	 push	 916			; 00000394H
  0051d	e8 00 00 00 00	 call	 ??2@YAPAXI@Z		; operator new
  00522	83 c4 04	 add	 esp, 4
  00525	89 85 60 ff ff
	ff		 mov	 DWORD PTR $T32[ebp], eax
  0052b	c7 45 fc 06 00
	00 00		 mov	 DWORD PTR __$EHRec$[ebp+8], 6
  00532	83 bd 60 ff ff
	ff 00		 cmp	 DWORD PTR $T32[ebp], 0
  00539	74 13		 je	 SHORT $LN63@LoadItemBa
  0053b	8b 8d 60 ff ff
	ff		 mov	 ecx, DWORD PTR $T32[ebp]
  00541	e8 00 00 00 00	 call	 ??0CItemBag@@QAE@XZ	; CItemBag::CItemBag
  00546	89 85 e4 fe ff
	ff		 mov	 DWORD PTR tv277[ebp], eax
  0054c	eb 0a		 jmp	 SHORT $LN64@LoadItemBa
$LN63@LoadItemBa:
  0054e	c7 85 e4 fe ff
	ff 00 00 00 00	 mov	 DWORD PTR tv277[ebp], 0
$LN64@LoadItemBa:
  00558	8b 85 e4 fe ff
	ff		 mov	 eax, DWORD PTR tv277[ebp]
  0055e	89 85 64 ff ff
	ff		 mov	 DWORD PTR $T33[ebp], eax
  00564	c7 45 fc ff ff
	ff ff		 mov	 DWORD PTR __$EHRec$[ebp+8], -1
  0056b	8b 8d 64 ff ff
	ff		 mov	 ecx, DWORD PTR $T33[ebp]
  00571	89 0d 00 00 00
	00		 mov	 DWORD PTR ?GoldMedalItemBag@@3PAVCItemBag@@A, ecx ; GoldMedalItemBag

; 4944 : 	if( GoldMedalItemBag == NULL )

  00577	83 3d 00 00 00
	00 00		 cmp	 DWORD PTR ?GoldMedalItemBag@@3PAVCItemBag@@A, 0 ; GoldMedalItemBag
  0057e	75 20		 jne	 SHORT $LN15@LoadItemBa

; 4945 : 	{
; 4946 : 		MsgBox("CItemBag %s", lMsg.Get(110));

  00580	6a 6e		 push	 110			; 0000006eH
  00582	b9 00 00 00 00	 mov	 ecx, OFFSET ?lMsg@@3VCMsg@@A ; lMsg
  00587	ff 15 00 00 00
	00		 call	 DWORD PTR __imp_?Get@CMsg@@QAEPADH@Z
  0058d	50		 push	 eax
  0058e	68 00 00 00 00	 push	 OFFSET ??_C@_0M@GNOCDNGL@CItemBag?5?$CFs@
  00593	e8 00 00 00 00	 call	 ?MsgBox@@YAXPADZZ	; MsgBox
  00598	83 c4 08	 add	 esp, 8

; 4947 : 		return;

  0059b	e9 9b 08 00 00	 jmp	 $LN1@LoadItemBa
$LN15@LoadItemBa:

; 4948 : 	}
; 4949 : 
; 4950 : #ifdef SCRIPT_DECODE_WORK
; 4951 : 	GoldMedalItemBag->Init("eventitembag6.cwz");
; 4952 : #else
; 4953 : 	GoldMedalItemBag->Init("eventitembag6.txt");

  005a0	68 00 00 00 00	 push	 OFFSET ??_C@_0BC@JFIILCMI@eventitembag6?4txt@
  005a5	8b 0d 00 00 00
	00		 mov	 ecx, DWORD PTR ?GoldMedalItemBag@@3PAVCItemBag@@A ; GoldMedalItemBag
  005ab	e8 00 00 00 00	 call	 ?Init@CItemBag@@QAEXPAD@Z ; CItemBag::Init

; 4954 : #endif
; 4955 : 
; 4956 : 	//    
; 4957 : 	if( SilverMedalItemBag ){delete SilverMedalItemBag;}

  005b0	83 3d 00 00 00
	00 00		 cmp	 DWORD PTR ?SilverMedalItemBag@@3PAVCItemBag@@A, 0 ; SilverMedalItemBag
  005b7	74 3a		 je	 SHORT $LN16@LoadItemBa
  005b9	a1 00 00 00 00	 mov	 eax, DWORD PTR ?SilverMedalItemBag@@3PAVCItemBag@@A ; SilverMedalItemBag
  005be	89 85 5c ff ff
	ff		 mov	 DWORD PTR $T31[ebp], eax
  005c4	83 bd 5c ff ff
	ff 00		 cmp	 DWORD PTR $T31[ebp], 0
  005cb	74 1c		 je	 SHORT $LN65@LoadItemBa
  005cd	6a 01		 push	 1
  005cf	8b 8d 5c ff ff
	ff		 mov	 ecx, DWORD PTR $T31[ebp]
  005d5	8b 11		 mov	 edx, DWORD PTR [ecx]
  005d7	8b 8d 5c ff ff
	ff		 mov	 ecx, DWORD PTR $T31[ebp]
  005dd	8b 02		 mov	 eax, DWORD PTR [edx]
  005df	ff d0		 call	 eax
  005e1	89 85 e4 fe ff
	ff		 mov	 DWORD PTR tv292[ebp], eax
  005e7	eb 0a		 jmp	 SHORT $LN16@LoadItemBa
$LN65@LoadItemBa:
  005e9	c7 85 e4 fe ff
	ff 00 00 00 00	 mov	 DWORD PTR tv292[ebp], 0
$LN16@LoadItemBa:

; 4958 : 	SilverMedalItemBag = new CItemBag;

  005f3	68 94 03 00 00	 push	 916			; 00000394H
  005f8	e8 00 00 00 00	 call	 ??2@YAPAXI@Z		; operator new
  005fd	83 c4 04	 add	 esp, 4
  00600	89 85 54 ff ff
	ff		 mov	 DWORD PTR $T29[ebp], eax
  00606	c7 45 fc 07 00
	00 00		 mov	 DWORD PTR __$EHRec$[ebp+8], 7
  0060d	83 bd 54 ff ff
	ff 00		 cmp	 DWORD PTR $T29[ebp], 0
  00614	74 13		 je	 SHORT $LN67@LoadItemBa
  00616	8b 8d 54 ff ff
	ff		 mov	 ecx, DWORD PTR $T29[ebp]
  0061c	e8 00 00 00 00	 call	 ??0CItemBag@@QAE@XZ	; CItemBag::CItemBag
  00621	89 85 e4 fe ff
	ff		 mov	 DWORD PTR tv304[ebp], eax
  00627	eb 0a		 jmp	 SHORT $LN68@LoadItemBa
$LN67@LoadItemBa:
  00629	c7 85 e4 fe ff
	ff 00 00 00 00	 mov	 DWORD PTR tv304[ebp], 0
$LN68@LoadItemBa:
  00633	8b 85 e4 fe ff
	ff		 mov	 eax, DWORD PTR tv304[ebp]
  00639	89 85 58 ff ff
	ff		 mov	 DWORD PTR $T30[ebp], eax
  0063f	c7 45 fc ff ff
	ff ff		 mov	 DWORD PTR __$EHRec$[ebp+8], -1
  00646	8b 8d 58 ff ff
	ff		 mov	 ecx, DWORD PTR $T30[ebp]
  0064c	89 0d 00 00 00
	00		 mov	 DWORD PTR ?SilverMedalItemBag@@3PAVCItemBag@@A, ecx ; SilverMedalItemBag

; 4959 : 	if( SilverMedalItemBag == NULL )

  00652	83 3d 00 00 00
	00 00		 cmp	 DWORD PTR ?SilverMedalItemBag@@3PAVCItemBag@@A, 0 ; SilverMedalItemBag
  00659	75 20		 jne	 SHORT $LN17@LoadItemBa

; 4960 : 	{
; 4961 : 		MsgBox("CItemBag %s", lMsg.Get(110));

  0065b	6a 6e		 push	 110			; 0000006eH
  0065d	b9 00 00 00 00	 mov	 ecx, OFFSET ?lMsg@@3VCMsg@@A ; lMsg
  00662	ff 15 00 00 00
	00		 call	 DWORD PTR __imp_?Get@CMsg@@QAEPADH@Z
  00668	50		 push	 eax
  00669	68 00 00 00 00	 push	 OFFSET ??_C@_0M@GNOCDNGL@CItemBag?5?$CFs@
  0066e	e8 00 00 00 00	 call	 ?MsgBox@@YAXPADZZ	; MsgBox
  00673	83 c4 08	 add	 esp, 8

; 4962 : 		return;

  00676	e9 c0 07 00 00	 jmp	 $LN1@LoadItemBa
$LN17@LoadItemBa:

; 4963 : 	}
; 4964 : 
; 4965 : #ifdef SCRIPT_DECODE_WORK
; 4966 : 	SilverMedalItemBag->Init("eventitembag7.cwz");	
; 4967 : #else
; 4968 : 	SilverMedalItemBag->Init("eventitembag7.txt");	

  0067b	68 00 00 00 00	 push	 OFFSET ??_C@_0BC@FONEGBGN@eventitembag7?4txt@
  00680	8b 0d 00 00 00
	00		 mov	 ecx, DWORD PTR ?SilverMedalItemBag@@3PAVCItemBag@@A ; SilverMedalItemBag
  00686	e8 00 00 00 00	 call	 ?Init@CItemBag@@QAEXPAD@Z ; CItemBag::Init

; 4969 : #endif
; 4970 : 
; 4971 : 	if( GoldGoblenItemBag ){delete GoldGoblenItemBag;}

  0068b	83 3d 00 00 00
	00 00		 cmp	 DWORD PTR ?GoldGoblenItemBag@@3PAVCItemBag@@A, 0 ; GoldGoblenItemBag
  00692	74 3a		 je	 SHORT $LN18@LoadItemBa
  00694	a1 00 00 00 00	 mov	 eax, DWORD PTR ?GoldGoblenItemBag@@3PAVCItemBag@@A ; GoldGoblenItemBag
  00699	89 85 50 ff ff
	ff		 mov	 DWORD PTR $T28[ebp], eax
  0069f	83 bd 50 ff ff
	ff 00		 cmp	 DWORD PTR $T28[ebp], 0
  006a6	74 1c		 je	 SHORT $LN69@LoadItemBa
  006a8	6a 01		 push	 1
  006aa	8b 8d 50 ff ff
	ff		 mov	 ecx, DWORD PTR $T28[ebp]
  006b0	8b 11		 mov	 edx, DWORD PTR [ecx]
  006b2	8b 8d 50 ff ff
	ff		 mov	 ecx, DWORD PTR $T28[ebp]
  006b8	8b 02		 mov	 eax, DWORD PTR [edx]
  006ba	ff d0		 call	 eax
  006bc	89 85 e4 fe ff
	ff		 mov	 DWORD PTR tv319[ebp], eax
  006c2	eb 0a		 jmp	 SHORT $LN18@LoadItemBa
$LN69@LoadItemBa:
  006c4	c7 85 e4 fe ff
	ff 00 00 00 00	 mov	 DWORD PTR tv319[ebp], 0
$LN18@LoadItemBa:

; 4972 : #ifdef MODIFY_KUNDUN_EVENTBAG_RENEWAL_2009_02_04
; 4973 : 	GoldGoblenItemBag = new CProbabilityItemBag;
; 4974 : #else // MODIFY_KUNDUN_EVENTBAG_RENEWAL_2009_02_04
; 4975 : 	GoldGoblenItemBag = new CItemBag;

  006ce	68 94 03 00 00	 push	 916			; 00000394H
  006d3	e8 00 00 00 00	 call	 ??2@YAPAXI@Z		; operator new
  006d8	83 c4 04	 add	 esp, 4
  006db	89 85 48 ff ff
	ff		 mov	 DWORD PTR $T26[ebp], eax
  006e1	c7 45 fc 08 00
	00 00		 mov	 DWORD PTR __$EHRec$[ebp+8], 8
  006e8	83 bd 48 ff ff
	ff 00		 cmp	 DWORD PTR $T26[ebp], 0
  006ef	74 13		 je	 SHORT $LN71@LoadItemBa
  006f1	8b 8d 48 ff ff
	ff		 mov	 ecx, DWORD PTR $T26[ebp]
  006f7	e8 00 00 00 00	 call	 ??0CItemBag@@QAE@XZ	; CItemBag::CItemBag
  006fc	89 85 e4 fe ff
	ff		 mov	 DWORD PTR tv331[ebp], eax
  00702	eb 0a		 jmp	 SHORT $LN72@LoadItemBa
$LN71@LoadItemBa:
  00704	c7 85 e4 fe ff
	ff 00 00 00 00	 mov	 DWORD PTR tv331[ebp], 0
$LN72@LoadItemBa:
  0070e	8b 85 e4 fe ff
	ff		 mov	 eax, DWORD PTR tv331[ebp]
  00714	89 85 4c ff ff
	ff		 mov	 DWORD PTR $T27[ebp], eax
  0071a	c7 45 fc ff ff
	ff ff		 mov	 DWORD PTR __$EHRec$[ebp+8], -1
  00721	8b 8d 4c ff ff
	ff		 mov	 ecx, DWORD PTR $T27[ebp]
  00727	89 0d 00 00 00
	00		 mov	 DWORD PTR ?GoldGoblenItemBag@@3PAVCItemBag@@A, ecx ; GoldGoblenItemBag

; 4976 : #endif // MODIFY_KUNDUN_EVENTBAG_RENEWAL_2009_02_04
; 4977 : 	if( GoldGoblenItemBag == NULL )

  0072d	83 3d 00 00 00
	00 00		 cmp	 DWORD PTR ?GoldGoblenItemBag@@3PAVCItemBag@@A, 0 ; GoldGoblenItemBag
  00734	75 20		 jne	 SHORT $LN19@LoadItemBa

; 4978 : 	{
; 4979 : 		MsgBox("CItemBag %s", lMsg.Get(110));

  00736	6a 6e		 push	 110			; 0000006eH
  00738	b9 00 00 00 00	 mov	 ecx, OFFSET ?lMsg@@3VCMsg@@A ; lMsg
  0073d	ff 15 00 00 00
	00		 call	 DWORD PTR __imp_?Get@CMsg@@QAEPADH@Z
  00743	50		 push	 eax
  00744	68 00 00 00 00	 push	 OFFSET ??_C@_0M@GNOCDNGL@CItemBag?5?$CFs@
  00749	e8 00 00 00 00	 call	 ?MsgBox@@YAXPADZZ	; MsgBox
  0074e	83 c4 08	 add	 esp, 8

; 4980 : 		return;

  00751	e9 e5 06 00 00	 jmp	 $LN1@LoadItemBa
$LN19@LoadItemBa:

; 4981 : 	}
; 4982 : 
; 4983 : #ifdef SCRIPT_DECODE_WORK
; 4984 : #ifdef MODIFY_KUNDUN_EVENTBAG_RENEWAL_2009_02_04
; 4985 : 	GoldGoblenItemBag->ProbabilityItemBagInit("eventitembag8.cwz");	
; 4986 : #else
; 4987 : 		GoldGoblenItemBag->Init("eventitembag8.cwz");	
; 4988 : #endif //MODIFY_KUNDUN_EVENTBAG_RENEWAL_2009_02_04
; 4989 : 
; 4990 : #else
; 4991 : #ifdef MODIFY_KUNDUN_EVENTBAG_RENEWAL_2009_02_04
; 4992 : 	GoldGoblenItemBag->ProbabilityItemBagInit("eventitembag8.txt");	
; 4993 : #else
; 4994 : 	GoldGoblenItemBag->Init("eventitembag8.txt");	

  00756	68 00 00 00 00	 push	 OFFSET ??_C@_0BC@KPICNDLI@eventitembag8?4txt@
  0075b	8b 0d 00 00 00
	00		 mov	 ecx, DWORD PTR ?GoldGoblenItemBag@@3PAVCItemBag@@A ; GoldGoblenItemBag
  00761	e8 00 00 00 00	 call	 ?Init@CItemBag@@QAEXPAD@Z ; CItemBag::Init

; 4995 : #endif //MODIFY_KUNDUN_EVENTBAG_RENEWAL_2009_02_04
; 4996 : 
; 4997 : #endif
; 4998 : 
; 4999 : 	if( TitanItemBag ){delete TitanItemBag;}

  00766	83 3d 00 00 00
	00 00		 cmp	 DWORD PTR ?TitanItemBag@@3PAVCItemBag@@A, 0 ; TitanItemBag
  0076d	74 3a		 je	 SHORT $LN20@LoadItemBa
  0076f	a1 00 00 00 00	 mov	 eax, DWORD PTR ?TitanItemBag@@3PAVCItemBag@@A ; TitanItemBag
  00774	89 85 44 ff ff
	ff		 mov	 DWORD PTR $T25[ebp], eax
  0077a	83 bd 44 ff ff
	ff 00		 cmp	 DWORD PTR $T25[ebp], 0
  00781	74 1c		 je	 SHORT $LN73@LoadItemBa
  00783	6a 01		 push	 1
  00785	8b 8d 44 ff ff
	ff		 mov	 ecx, DWORD PTR $T25[ebp]
  0078b	8b 11		 mov	 edx, DWORD PTR [ecx]
  0078d	8b 8d 44 ff ff
	ff		 mov	 ecx, DWORD PTR $T25[ebp]
  00793	8b 02		 mov	 eax, DWORD PTR [edx]
  00795	ff d0		 call	 eax
  00797	89 85 e4 fe ff
	ff		 mov	 DWORD PTR tv346[ebp], eax
  0079d	eb 0a		 jmp	 SHORT $LN20@LoadItemBa
$LN73@LoadItemBa:
  0079f	c7 85 e4 fe ff
	ff 00 00 00 00	 mov	 DWORD PTR tv346[ebp], 0
$LN20@LoadItemBa:

; 5000 : #ifdef MODIFY_KUNDUN_EVENTBAG_RENEWAL_2009_02_04
; 5001 : 	TitanItemBag = new CProbabilityItemBag;
; 5002 : #else
; 5003 : 	TitanItemBag = new CItemBag;

  007a9	68 94 03 00 00	 push	 916			; 00000394H
  007ae	e8 00 00 00 00	 call	 ??2@YAPAXI@Z		; operator new
  007b3	83 c4 04	 add	 esp, 4
  007b6	89 85 3c ff ff
	ff		 mov	 DWORD PTR $T23[ebp], eax
  007bc	c7 45 fc 09 00
	00 00		 mov	 DWORD PTR __$EHRec$[ebp+8], 9
  007c3	83 bd 3c ff ff
	ff 00		 cmp	 DWORD PTR $T23[ebp], 0
  007ca	74 13		 je	 SHORT $LN75@LoadItemBa
  007cc	8b 8d 3c ff ff
	ff		 mov	 ecx, DWORD PTR $T23[ebp]
  007d2	e8 00 00 00 00	 call	 ??0CItemBag@@QAE@XZ	; CItemBag::CItemBag
  007d7	89 85 e4 fe ff
	ff		 mov	 DWORD PTR tv358[ebp], eax
  007dd	eb 0a		 jmp	 SHORT $LN76@LoadItemBa
$LN75@LoadItemBa:
  007df	c7 85 e4 fe ff
	ff 00 00 00 00	 mov	 DWORD PTR tv358[ebp], 0
$LN76@LoadItemBa:
  007e9	8b 85 e4 fe ff
	ff		 mov	 eax, DWORD PTR tv358[ebp]
  007ef	89 85 40 ff ff
	ff		 mov	 DWORD PTR $T24[ebp], eax
  007f5	c7 45 fc ff ff
	ff ff		 mov	 DWORD PTR __$EHRec$[ebp+8], -1
  007fc	8b 8d 40 ff ff
	ff		 mov	 ecx, DWORD PTR $T24[ebp]
  00802	89 0d 00 00 00
	00		 mov	 DWORD PTR ?TitanItemBag@@3PAVCItemBag@@A, ecx ; TitanItemBag

; 5004 : #endif
; 5005 : 	if( TitanItemBag == NULL )

  00808	83 3d 00 00 00
	00 00		 cmp	 DWORD PTR ?TitanItemBag@@3PAVCItemBag@@A, 0 ; TitanItemBag
  0080f	75 20		 jne	 SHORT $LN21@LoadItemBa

; 5006 : 	{
; 5007 : 		MsgBox("CItemBag %s", lMsg.Get(110));

  00811	6a 6e		 push	 110			; 0000006eH
  00813	b9 00 00 00 00	 mov	 ecx, OFFSET ?lMsg@@3VCMsg@@A ; lMsg
  00818	ff 15 00 00 00
	00		 call	 DWORD PTR __imp_?Get@CMsg@@QAEPADH@Z
  0081e	50		 push	 eax
  0081f	68 00 00 00 00	 push	 OFFSET ??_C@_0M@GNOCDNGL@CItemBag?5?$CFs@
  00824	e8 00 00 00 00	 call	 ?MsgBox@@YAXPADZZ	; MsgBox
  00829	83 c4 08	 add	 esp, 8

; 5008 : 		return;

  0082c	e9 0a 06 00 00	 jmp	 $LN1@LoadItemBa
$LN21@LoadItemBa:

; 5009 : 	}
; 5010 : 
; 5011 : #ifdef SCRIPT_DECODE_WORK
; 5012 : #ifdef MODIFY_KUNDUN_EVENTBAG_RENEWAL_2009_02_04
; 5013 : 	TitanItemBag->ProbabilityItemBagInit("eventitembag9.cwz");	
; 5014 : #else
; 5015 : 	TitanItemBag->Init("eventitembag9.cwz");	
; 5016 : #endif //MODIFY_KUNDUN_EVENTBAG_RENEWAL_2009_02_04
; 5017 : #else
; 5018 : #ifdef MODIFY_KUNDUN_EVENTBAG_RENEWAL_2009_02_04
; 5019 : 	TitanItemBag->ProbabilityItemBagInit("eventitembag9.txt");	
; 5020 : #else
; 5021 : 	TitanItemBag->Init("eventitembag9.txt");	

  00831	68 00 00 00 00	 push	 OFFSET ??_C@_0BC@GENOAABN@eventitembag9?4txt@
  00836	8b 0d 00 00 00
	00		 mov	 ecx, DWORD PTR ?TitanItemBag@@3PAVCItemBag@@A ; TitanItemBag
  0083c	e8 00 00 00 00	 call	 ?Init@CItemBag@@QAEXPAD@Z ; CItemBag::Init

; 5022 : #endif //MODIFY_KUNDUN_EVENTBAG_RENEWAL_2009_02_04
; 5023 : #endif
; 5024 : 
; 5025 : 	if( GoldDerconItemBag ){delete GoldDerconItemBag;}

  00841	83 3d 00 00 00
	00 00		 cmp	 DWORD PTR ?GoldDerconItemBag@@3PAVCItemBag@@A, 0 ; GoldDerconItemBag
  00848	74 3a		 je	 SHORT $LN22@LoadItemBa
  0084a	a1 00 00 00 00	 mov	 eax, DWORD PTR ?GoldDerconItemBag@@3PAVCItemBag@@A ; GoldDerconItemBag
  0084f	89 85 38 ff ff
	ff		 mov	 DWORD PTR $T22[ebp], eax
  00855	83 bd 38 ff ff
	ff 00		 cmp	 DWORD PTR $T22[ebp], 0
  0085c	74 1c		 je	 SHORT $LN77@LoadItemBa
  0085e	6a 01		 push	 1
  00860	8b 8d 38 ff ff
	ff		 mov	 ecx, DWORD PTR $T22[ebp]
  00866	8b 11		 mov	 edx, DWORD PTR [ecx]
  00868	8b 8d 38 ff ff
	ff		 mov	 ecx, DWORD PTR $T22[ebp]
  0086e	8b 02		 mov	 eax, DWORD PTR [edx]
  00870	ff d0		 call	 eax
  00872	89 85 e4 fe ff
	ff		 mov	 DWORD PTR tv373[ebp], eax
  00878	eb 0a		 jmp	 SHORT $LN22@LoadItemBa
$LN77@LoadItemBa:
  0087a	c7 85 e4 fe ff
	ff 00 00 00 00	 mov	 DWORD PTR tv373[ebp], 0
$LN22@LoadItemBa:

; 5026 : #ifdef MODIFY_KUNDUN_EVENTBAG_RENEWAL_2009_02_04
; 5027 : 	GoldDerconItemBag = new CProbabilityItemBag;
; 5028 : #else
; 5029 : 	GoldDerconItemBag = new CItemBag;

  00884	68 94 03 00 00	 push	 916			; 00000394H
  00889	e8 00 00 00 00	 call	 ??2@YAPAXI@Z		; operator new
  0088e	83 c4 04	 add	 esp, 4
  00891	89 85 30 ff ff
	ff		 mov	 DWORD PTR $T20[ebp], eax
  00897	c7 45 fc 0a 00
	00 00		 mov	 DWORD PTR __$EHRec$[ebp+8], 10 ; 0000000aH
  0089e	83 bd 30 ff ff
	ff 00		 cmp	 DWORD PTR $T20[ebp], 0
  008a5	74 13		 je	 SHORT $LN79@LoadItemBa
  008a7	8b 8d 30 ff ff
	ff		 mov	 ecx, DWORD PTR $T20[ebp]
  008ad	e8 00 00 00 00	 call	 ??0CItemBag@@QAE@XZ	; CItemBag::CItemBag
  008b2	89 85 e4 fe ff
	ff		 mov	 DWORD PTR tv417[ebp], eax
  008b8	eb 0a		 jmp	 SHORT $LN80@LoadItemBa
$LN79@LoadItemBa:
  008ba	c7 85 e4 fe ff
	ff 00 00 00 00	 mov	 DWORD PTR tv417[ebp], 0
$LN80@LoadItemBa:
  008c4	8b 85 e4 fe ff
	ff		 mov	 eax, DWORD PTR tv417[ebp]
  008ca	89 85 34 ff ff
	ff		 mov	 DWORD PTR $T21[ebp], eax
  008d0	c7 45 fc ff ff
	ff ff		 mov	 DWORD PTR __$EHRec$[ebp+8], -1
  008d7	8b 8d 34 ff ff
	ff		 mov	 ecx, DWORD PTR $T21[ebp]
  008dd	89 0d 00 00 00
	00		 mov	 DWORD PTR ?GoldDerconItemBag@@3PAVCItemBag@@A, ecx ; GoldDerconItemBag

; 5030 : #endif
; 5031 : 	if( GoldDerconItemBag == NULL )

  008e3	83 3d 00 00 00
	00 00		 cmp	 DWORD PTR ?GoldDerconItemBag@@3PAVCItemBag@@A, 0 ; GoldDerconItemBag
  008ea	75 20		 jne	 SHORT $LN23@LoadItemBa

; 5032 : 	{
; 5033 : 		MsgBox("CItemBag %s", lMsg.Get(110));

  008ec	6a 6e		 push	 110			; 0000006eH
  008ee	b9 00 00 00 00	 mov	 ecx, OFFSET ?lMsg@@3VCMsg@@A ; lMsg
  008f3	ff 15 00 00 00
	00		 call	 DWORD PTR __imp_?Get@CMsg@@QAEPADH@Z
  008f9	50		 push	 eax
  008fa	68 00 00 00 00	 push	 OFFSET ??_C@_0M@GNOCDNGL@CItemBag?5?$CFs@
  008ff	e8 00 00 00 00	 call	 ?MsgBox@@YAXPADZZ	; MsgBox
  00904	83 c4 08	 add	 esp, 8

; 5034 : 		return;

  00907	e9 2f 05 00 00	 jmp	 $LN1@LoadItemBa
$LN23@LoadItemBa:

; 5035 : 	}
; 5036 : 
; 5037 : #ifdef SCRIPT_DECODE_WORK
; 5038 : #ifdef MODIFY_KUNDUN_EVENTBAG_RENEWAL_2009_02_04
; 5039 : 	GoldDerconItemBag->ProbabilityItemBagInit("eventitembag10.cwz");
; 5040 : #else
; 5041 : 	GoldDerconItemBag->Init("eventitembag10.cwz");
; 5042 : #endif //MODIFY_KUNDUN_EVENTBAG_RENEWAL_2009_02_04
; 5043 : 
; 5044 : #else
; 5045 : #ifdef MODIFY_KUNDUN_EVENTBAG_RENEWAL_2009_02_04
; 5046 : 	GoldDerconItemBag->ProbabilityItemBagInit("eventitembag10.txt");
; 5047 : #else
; 5048 : 	GoldDerconItemBag->Init("eventitembag10.txt");

  0090c	68 00 00 00 00	 push	 OFFSET ??_C@_0BD@BDGNLCBB@eventitembag10?4txt@
  00911	8b 0d 00 00 00
	00		 mov	 ecx, DWORD PTR ?GoldDerconItemBag@@3PAVCItemBag@@A ; GoldDerconItemBag
  00917	e8 00 00 00 00	 call	 ?Init@CItemBag@@QAEXPAD@Z ; CItemBag::Init

; 5049 : #endif //MODIFY_KUNDUN_EVENTBAG_RENEWAL_2009_02_04
; 5050 : #endif
; 5051 : 
; 5052 : 	if( DevilLizardKingItemBag ){delete DevilLizardKingItemBag;}

  0091c	83 3d 00 00 00
	00 00		 cmp	 DWORD PTR ?DevilLizardKingItemBag@@3PAVCItemBag@@A, 0 ; DevilLizardKingItemBag
  00923	74 3a		 je	 SHORT $LN24@LoadItemBa
  00925	a1 00 00 00 00	 mov	 eax, DWORD PTR ?DevilLizardKingItemBag@@3PAVCItemBag@@A ; DevilLizardKingItemBag
  0092a	89 85 2c ff ff
	ff		 mov	 DWORD PTR $T19[ebp], eax
  00930	83 bd 2c ff ff
	ff 00		 cmp	 DWORD PTR $T19[ebp], 0
  00937	74 1c		 je	 SHORT $LN81@LoadItemBa
  00939	6a 01		 push	 1
  0093b	8b 8d 2c ff ff
	ff		 mov	 ecx, DWORD PTR $T19[ebp]
  00941	8b 11		 mov	 edx, DWORD PTR [ecx]
  00943	8b 8d 2c ff ff
	ff		 mov	 ecx, DWORD PTR $T19[ebp]
  00949	8b 02		 mov	 eax, DWORD PTR [edx]
  0094b	ff d0		 call	 eax
  0094d	89 85 e4 fe ff
	ff		 mov	 DWORD PTR tv432[ebp], eax
  00953	eb 0a		 jmp	 SHORT $LN24@LoadItemBa
$LN81@LoadItemBa:
  00955	c7 85 e4 fe ff
	ff 00 00 00 00	 mov	 DWORD PTR tv432[ebp], 0
$LN24@LoadItemBa:

; 5053 : #ifdef MODIFY_KUNDUN_EVENTBAG_RENEWAL_2009_02_04
; 5054 : 	DevilLizardKingItemBag = new CProbabilityItemBag;
; 5055 : #else
; 5056 : 	DevilLizardKingItemBag = new CItemBag;

  0095f	68 94 03 00 00	 push	 916			; 00000394H
  00964	e8 00 00 00 00	 call	 ??2@YAPAXI@Z		; operator new
  00969	83 c4 04	 add	 esp, 4
  0096c	89 85 24 ff ff
	ff		 mov	 DWORD PTR $T17[ebp], eax
  00972	c7 45 fc 0b 00
	00 00		 mov	 DWORD PTR __$EHRec$[ebp+8], 11 ; 0000000bH
  00979	83 bd 24 ff ff
	ff 00		 cmp	 DWORD PTR $T17[ebp], 0
  00980	74 13		 je	 SHORT $LN83@LoadItemBa
  00982	8b 8d 24 ff ff
	ff		 mov	 ecx, DWORD PTR $T17[ebp]
  00988	e8 00 00 00 00	 call	 ??0CItemBag@@QAE@XZ	; CItemBag::CItemBag
  0098d	89 85 e4 fe ff
	ff		 mov	 DWORD PTR tv444[ebp], eax
  00993	eb 0a		 jmp	 SHORT $LN84@LoadItemBa
$LN83@LoadItemBa:
  00995	c7 85 e4 fe ff
	ff 00 00 00 00	 mov	 DWORD PTR tv444[ebp], 0
$LN84@LoadItemBa:
  0099f	8b 85 e4 fe ff
	ff		 mov	 eax, DWORD PTR tv444[ebp]
  009a5	89 85 28 ff ff
	ff		 mov	 DWORD PTR $T18[ebp], eax
  009ab	c7 45 fc ff ff
	ff ff		 mov	 DWORD PTR __$EHRec$[ebp+8], -1
  009b2	8b 8d 28 ff ff
	ff		 mov	 ecx, DWORD PTR $T18[ebp]
  009b8	89 0d 00 00 00
	00		 mov	 DWORD PTR ?DevilLizardKingItemBag@@3PAVCItemBag@@A, ecx ; DevilLizardKingItemBag

; 5057 : #endif
; 5058 : 	if( DevilLizardKingItemBag == NULL )

  009be	83 3d 00 00 00
	00 00		 cmp	 DWORD PTR ?DevilLizardKingItemBag@@3PAVCItemBag@@A, 0 ; DevilLizardKingItemBag
  009c5	75 20		 jne	 SHORT $LN25@LoadItemBa

; 5059 : 	{
; 5060 : 		MsgBox("CItemBag %s", lMsg.Get(110));

  009c7	6a 6e		 push	 110			; 0000006eH
  009c9	b9 00 00 00 00	 mov	 ecx, OFFSET ?lMsg@@3VCMsg@@A ; lMsg
  009ce	ff 15 00 00 00
	00		 call	 DWORD PTR __imp_?Get@CMsg@@QAEPADH@Z
  009d4	50		 push	 eax
  009d5	68 00 00 00 00	 push	 OFFSET ??_C@_0M@GNOCDNGL@CItemBag?5?$CFs@
  009da	e8 00 00 00 00	 call	 ?MsgBox@@YAXPADZZ	; MsgBox
  009df	83 c4 08	 add	 esp, 8

; 5061 : 		return;

  009e2	e9 54 04 00 00	 jmp	 $LN1@LoadItemBa
$LN25@LoadItemBa:

; 5062 : 	}
; 5063 : 
; 5064 : #ifdef SCRIPT_DECODE_WORK
; 5065 : #ifdef MODIFY_KUNDUN_EVENTBAG_RENEWAL_2009_02_04
; 5066 : 	DevilLizardKingItemBag->ProbabilityItemBagInit("eventitembag11.cwz");
; 5067 : #else
; 5068 : 	DevilLizardKingItemBag->Init("eventitembag11.cwz");
; 5069 : #endif //MODIFY_KUNDUN_EVENTBAG_RENEWAL_2009_02_04
; 5070 : #else
; 5071 : #ifdef MODIFY_KUNDUN_EVENTBAG_RENEWAL_2009_02_04
; 5072 : 	DevilLizardKingItemBag->ProbabilityItemBagInit("eventitembag11.txt");
; 5073 : #else
; 5074 : 	DevilLizardKingItemBag->Init("eventitembag11.txt");

  009e7	68 00 00 00 00	 push	 OFFSET ??_C@_0BD@NIDBGBLE@eventitembag11?4txt@
  009ec	8b 0d 00 00 00
	00		 mov	 ecx, DWORD PTR ?DevilLizardKingItemBag@@3PAVCItemBag@@A ; DevilLizardKingItemBag
  009f2	e8 00 00 00 00	 call	 ?Init@CItemBag@@QAEXPAD@Z ; CItemBag::Init

; 5075 : #endif //MODIFY_KUNDUN_EVENTBAG_RENEWAL_2009_02_04
; 5076 : #endif
; 5077 : 
; 5078 : 	if( KanturItemBag ){delete KanturItemBag;}

  009f7	83 3d 00 00 00
	00 00		 cmp	 DWORD PTR ?KanturItemBag@@3PAVCItemBag@@A, 0 ; KanturItemBag
  009fe	74 3a		 je	 SHORT $LN26@LoadItemBa
  00a00	a1 00 00 00 00	 mov	 eax, DWORD PTR ?KanturItemBag@@3PAVCItemBag@@A ; KanturItemBag
  00a05	89 85 20 ff ff
	ff		 mov	 DWORD PTR $T16[ebp], eax
  00a0b	83 bd 20 ff ff
	ff 00		 cmp	 DWORD PTR $T16[ebp], 0
  00a12	74 1c		 je	 SHORT $LN85@LoadItemBa
  00a14	6a 01		 push	 1
  00a16	8b 8d 20 ff ff
	ff		 mov	 ecx, DWORD PTR $T16[ebp]
  00a1c	8b 11		 mov	 edx, DWORD PTR [ecx]
  00a1e	8b 8d 20 ff ff
	ff		 mov	 ecx, DWORD PTR $T16[ebp]
  00a24	8b 02		 mov	 eax, DWORD PTR [edx]
  00a26	ff d0		 call	 eax
  00a28	89 85 e4 fe ff
	ff		 mov	 DWORD PTR tv459[ebp], eax
  00a2e	eb 0a		 jmp	 SHORT $LN26@LoadItemBa
$LN85@LoadItemBa:
  00a30	c7 85 e4 fe ff
	ff 00 00 00 00	 mov	 DWORD PTR tv459[ebp], 0
$LN26@LoadItemBa:

; 5079 : #ifdef MODIFY_KUNDUN_EVENTBAG_RENEWAL_2009_02_04
; 5080 : 	KanturItemBag = new CProbabilityItemBag;
; 5081 : #else
; 5082 : 	KanturItemBag = new CItemBag;

  00a3a	68 94 03 00 00	 push	 916			; 00000394H
  00a3f	e8 00 00 00 00	 call	 ??2@YAPAXI@Z		; operator new
  00a44	83 c4 04	 add	 esp, 4
  00a47	89 85 18 ff ff
	ff		 mov	 DWORD PTR $T14[ebp], eax
  00a4d	c7 45 fc 0c 00
	00 00		 mov	 DWORD PTR __$EHRec$[ebp+8], 12 ; 0000000cH
  00a54	83 bd 18 ff ff
	ff 00		 cmp	 DWORD PTR $T14[ebp], 0
  00a5b	74 13		 je	 SHORT $LN87@LoadItemBa
  00a5d	8b 8d 18 ff ff
	ff		 mov	 ecx, DWORD PTR $T14[ebp]
  00a63	e8 00 00 00 00	 call	 ??0CItemBag@@QAE@XZ	; CItemBag::CItemBag
  00a68	89 85 e4 fe ff
	ff		 mov	 DWORD PTR tv471[ebp], eax
  00a6e	eb 0a		 jmp	 SHORT $LN88@LoadItemBa
$LN87@LoadItemBa:
  00a70	c7 85 e4 fe ff
	ff 00 00 00 00	 mov	 DWORD PTR tv471[ebp], 0
$LN88@LoadItemBa:
  00a7a	8b 85 e4 fe ff
	ff		 mov	 eax, DWORD PTR tv471[ebp]
  00a80	89 85 1c ff ff
	ff		 mov	 DWORD PTR $T15[ebp], eax
  00a86	c7 45 fc ff ff
	ff ff		 mov	 DWORD PTR __$EHRec$[ebp+8], -1
  00a8d	8b 8d 1c ff ff
	ff		 mov	 ecx, DWORD PTR $T15[ebp]
  00a93	89 0d 00 00 00
	00		 mov	 DWORD PTR ?KanturItemBag@@3PAVCItemBag@@A, ecx ; KanturItemBag

; 5083 : #endif
; 5084 : 	if( KanturItemBag == NULL )

  00a99	83 3d 00 00 00
	00 00		 cmp	 DWORD PTR ?KanturItemBag@@3PAVCItemBag@@A, 0 ; KanturItemBag
  00aa0	75 20		 jne	 SHORT $LN27@LoadItemBa

; 5085 : 	{
; 5086 : 		MsgBox("CItemBag %s", lMsg.Get(110));

  00aa2	6a 6e		 push	 110			; 0000006eH
  00aa4	b9 00 00 00 00	 mov	 ecx, OFFSET ?lMsg@@3VCMsg@@A ; lMsg
  00aa9	ff 15 00 00 00
	00		 call	 DWORD PTR __imp_?Get@CMsg@@QAEPADH@Z
  00aaf	50		 push	 eax
  00ab0	68 00 00 00 00	 push	 OFFSET ??_C@_0M@GNOCDNGL@CItemBag?5?$CFs@
  00ab5	e8 00 00 00 00	 call	 ?MsgBox@@YAXPADZZ	; MsgBox
  00aba	83 c4 08	 add	 esp, 8

; 5087 : 		return;

  00abd	e9 79 03 00 00	 jmp	 $LN1@LoadItemBa
$LN27@LoadItemBa:

; 5088 : 	}
; 5089 : 
; 5090 : #ifdef SCRIPT_DECODE_WORK
; 5091 : #ifdef MODIFY_KUNDUN_EVENTBAG_RENEWAL_2009_02_04
; 5092 : 	KanturItemBag->ProbabilityItemBagInit("eventitembag12.cwz");
; 5093 : #else
; 5094 : 	KanturItemBag->Init("eventitembag12.cwz");
; 5095 : #endif //MODIFY_KUNDUN_EVENTBAG_RENEWAL_2009_02_04
; 5096 : 
; 5097 : #else
; 5098 : #ifdef MODIFY_KUNDUN_EVENTBAG_RENEWAL_2009_02_04
; 5099 : 	KanturItemBag->ProbabilityItemBagInit("eventitembag12.txt");
; 5100 : #else
; 5101 : 	KanturItemBag->Init("eventitembag12.txt");

  00ac2	68 00 00 00 00	 push	 OFFSET ??_C@_0BD@FOKFBDBK@eventitembag12?4txt@
  00ac7	8b 0d 00 00 00
	00		 mov	 ecx, DWORD PTR ?KanturItemBag@@3PAVCItemBag@@A ; KanturItemBag
  00acd	e8 00 00 00 00	 call	 ?Init@CItemBag@@QAEXPAD@Z ; CItemBag::Init

; 5102 : #endif //MODIFY_KUNDUN_EVENTBAG_RENEWAL_2009_02_04
; 5103 : #endif
; 5104 : 
; 5105 : 
; 5106 : #ifdef RING_EVENT_ITEMBOX_20031124
; 5107 : 	if( RingEventItemBag ){delete RingEventItemBag;}		//    

  00ad2	83 3d 00 00 00
	00 00		 cmp	 DWORD PTR ?RingEventItemBag@@3PAVCItemBag@@A, 0 ; RingEventItemBag
  00ad9	74 3a		 je	 SHORT $LN28@LoadItemBa
  00adb	a1 00 00 00 00	 mov	 eax, DWORD PTR ?RingEventItemBag@@3PAVCItemBag@@A ; RingEventItemBag
  00ae0	89 85 14 ff ff
	ff		 mov	 DWORD PTR $T13[ebp], eax
  00ae6	83 bd 14 ff ff
	ff 00		 cmp	 DWORD PTR $T13[ebp], 0
  00aed	74 1c		 je	 SHORT $LN89@LoadItemBa
  00aef	6a 01		 push	 1
  00af1	8b 8d 14 ff ff
	ff		 mov	 ecx, DWORD PTR $T13[ebp]
  00af7	8b 11		 mov	 edx, DWORD PTR [ecx]
  00af9	8b 8d 14 ff ff
	ff		 mov	 ecx, DWORD PTR $T13[ebp]
  00aff	8b 02		 mov	 eax, DWORD PTR [edx]
  00b01	ff d0		 call	 eax
  00b03	89 85 e4 fe ff
	ff		 mov	 DWORD PTR tv486[ebp], eax
  00b09	eb 0a		 jmp	 SHORT $LN28@LoadItemBa
$LN89@LoadItemBa:
  00b0b	c7 85 e4 fe ff
	ff 00 00 00 00	 mov	 DWORD PTR tv486[ebp], 0
$LN28@LoadItemBa:

; 5108 : 	RingEventItemBag = new CItemBag;

  00b15	68 94 03 00 00	 push	 916			; 00000394H
  00b1a	e8 00 00 00 00	 call	 ??2@YAPAXI@Z		; operator new
  00b1f	83 c4 04	 add	 esp, 4
  00b22	89 85 0c ff ff
	ff		 mov	 DWORD PTR $T11[ebp], eax
  00b28	c7 45 fc 0d 00
	00 00		 mov	 DWORD PTR __$EHRec$[ebp+8], 13 ; 0000000dH
  00b2f	83 bd 0c ff ff
	ff 00		 cmp	 DWORD PTR $T11[ebp], 0
  00b36	74 13		 je	 SHORT $LN91@LoadItemBa
  00b38	8b 8d 0c ff ff
	ff		 mov	 ecx, DWORD PTR $T11[ebp]
  00b3e	e8 00 00 00 00	 call	 ??0CItemBag@@QAE@XZ	; CItemBag::CItemBag
  00b43	89 85 e4 fe ff
	ff		 mov	 DWORD PTR tv498[ebp], eax
  00b49	eb 0a		 jmp	 SHORT $LN92@LoadItemBa
$LN91@LoadItemBa:
  00b4b	c7 85 e4 fe ff
	ff 00 00 00 00	 mov	 DWORD PTR tv498[ebp], 0
$LN92@LoadItemBa:
  00b55	8b 85 e4 fe ff
	ff		 mov	 eax, DWORD PTR tv498[ebp]
  00b5b	89 85 10 ff ff
	ff		 mov	 DWORD PTR $T12[ebp], eax
  00b61	c7 45 fc ff ff
	ff ff		 mov	 DWORD PTR __$EHRec$[ebp+8], -1
  00b68	8b 8d 10 ff ff
	ff		 mov	 ecx, DWORD PTR $T12[ebp]
  00b6e	89 0d 00 00 00
	00		 mov	 DWORD PTR ?RingEventItemBag@@3PAVCItemBag@@A, ecx ; RingEventItemBag

; 5109 : 	if( RingEventItemBag == NULL )

  00b74	83 3d 00 00 00
	00 00		 cmp	 DWORD PTR ?RingEventItemBag@@3PAVCItemBag@@A, 0 ; RingEventItemBag
  00b7b	75 20		 jne	 SHORT $LN29@LoadItemBa

; 5110 : 	{
; 5111 : 		MsgBox("CItemBag %s", lMsg.Get(110));

  00b7d	6a 6e		 push	 110			; 0000006eH
  00b7f	b9 00 00 00 00	 mov	 ecx, OFFSET ?lMsg@@3VCMsg@@A ; lMsg
  00b84	ff 15 00 00 00
	00		 call	 DWORD PTR __imp_?Get@CMsg@@QAEPADH@Z
  00b8a	50		 push	 eax
  00b8b	68 00 00 00 00	 push	 OFFSET ??_C@_0M@GNOCDNGL@CItemBag?5?$CFs@
  00b90	e8 00 00 00 00	 call	 ?MsgBox@@YAXPADZZ	; MsgBox
  00b95	83 c4 08	 add	 esp, 8

; 5112 : 		return;

  00b98	e9 9e 02 00 00	 jmp	 $LN1@LoadItemBa
$LN29@LoadItemBa:

; 5113 : 	}
; 5114 : 
; 5115 : 	#ifdef SCRIPT_DECODE_WORK
; 5116 : 		RingEventItemBag->Init("eventitembag13.cwz");
; 5117 : 	#else
; 5118 : 		RingEventItemBag->Init("eventitembag13.txt");

  00b9d	68 00 00 00 00	 push	 OFFSET ??_C@_0BD@JFPJMALP@eventitembag13?4txt@
  00ba2	8b 0d 00 00 00
	00		 mov	 ecx, DWORD PTR ?RingEventItemBag@@3PAVCItemBag@@A ; RingEventItemBag
  00ba8	e8 00 00 00 00	 call	 ?Init@CItemBag@@QAEXPAD@Z ; CItemBag::Init

; 5119 : 	#endif
; 5120 : #endif
; 5121 : 
; 5122 : 
; 5123 : #ifdef FRIENDSHIP_EVENT_RING_BOX_20040211		//   -  
; 5124 : 	if( FriendShipItemBag ){delete FriendShipItemBag;}

  00bad	83 3d 00 00 00
	00 00		 cmp	 DWORD PTR ?FriendShipItemBag@@3PAVCItemBag@@A, 0 ; FriendShipItemBag
  00bb4	74 3a		 je	 SHORT $LN30@LoadItemBa
  00bb6	a1 00 00 00 00	 mov	 eax, DWORD PTR ?FriendShipItemBag@@3PAVCItemBag@@A ; FriendShipItemBag
  00bbb	89 85 08 ff ff
	ff		 mov	 DWORD PTR $T10[ebp], eax
  00bc1	83 bd 08 ff ff
	ff 00		 cmp	 DWORD PTR $T10[ebp], 0
  00bc8	74 1c		 je	 SHORT $LN93@LoadItemBa
  00bca	6a 01		 push	 1
  00bcc	8b 8d 08 ff ff
	ff		 mov	 ecx, DWORD PTR $T10[ebp]
  00bd2	8b 11		 mov	 edx, DWORD PTR [ecx]
  00bd4	8b 8d 08 ff ff
	ff		 mov	 ecx, DWORD PTR $T10[ebp]
  00bda	8b 02		 mov	 eax, DWORD PTR [edx]
  00bdc	ff d0		 call	 eax
  00bde	89 85 e4 fe ff
	ff		 mov	 DWORD PTR tv513[ebp], eax
  00be4	eb 0a		 jmp	 SHORT $LN30@LoadItemBa
$LN93@LoadItemBa:
  00be6	c7 85 e4 fe ff
	ff 00 00 00 00	 mov	 DWORD PTR tv513[ebp], 0
$LN30@LoadItemBa:

; 5125 : 	FriendShipItemBag = new CItemBag;

  00bf0	68 94 03 00 00	 push	 916			; 00000394H
  00bf5	e8 00 00 00 00	 call	 ??2@YAPAXI@Z		; operator new
  00bfa	83 c4 04	 add	 esp, 4
  00bfd	89 85 00 ff ff
	ff		 mov	 DWORD PTR $T8[ebp], eax
  00c03	c7 45 fc 0e 00
	00 00		 mov	 DWORD PTR __$EHRec$[ebp+8], 14 ; 0000000eH
  00c0a	83 bd 00 ff ff
	ff 00		 cmp	 DWORD PTR $T8[ebp], 0
  00c11	74 13		 je	 SHORT $LN95@LoadItemBa
  00c13	8b 8d 00 ff ff
	ff		 mov	 ecx, DWORD PTR $T8[ebp]
  00c19	e8 00 00 00 00	 call	 ??0CItemBag@@QAE@XZ	; CItemBag::CItemBag
  00c1e	89 85 e4 fe ff
	ff		 mov	 DWORD PTR tv525[ebp], eax
  00c24	eb 0a		 jmp	 SHORT $LN96@LoadItemBa
$LN95@LoadItemBa:
  00c26	c7 85 e4 fe ff
	ff 00 00 00 00	 mov	 DWORD PTR tv525[ebp], 0
$LN96@LoadItemBa:
  00c30	8b 85 e4 fe ff
	ff		 mov	 eax, DWORD PTR tv525[ebp]
  00c36	89 85 04 ff ff
	ff		 mov	 DWORD PTR $T9[ebp], eax
  00c3c	c7 45 fc ff ff
	ff ff		 mov	 DWORD PTR __$EHRec$[ebp+8], -1
  00c43	8b 8d 04 ff ff
	ff		 mov	 ecx, DWORD PTR $T9[ebp]
  00c49	89 0d 00 00 00
	00		 mov	 DWORD PTR ?FriendShipItemBag@@3PAVCItemBag@@A, ecx ; FriendShipItemBag

; 5126 : 	if( FriendShipItemBag == NULL )

  00c4f	83 3d 00 00 00
	00 00		 cmp	 DWORD PTR ?FriendShipItemBag@@3PAVCItemBag@@A, 0 ; FriendShipItemBag
  00c56	75 20		 jne	 SHORT $LN31@LoadItemBa

; 5127 : 	{
; 5128 : 		MsgBox("CItemBag %s", lMsg.Get(110));

  00c58	6a 6e		 push	 110			; 0000006eH
  00c5a	b9 00 00 00 00	 mov	 ecx, OFFSET ?lMsg@@3VCMsg@@A ; lMsg
  00c5f	ff 15 00 00 00
	00		 call	 DWORD PTR __imp_?Get@CMsg@@QAEPADH@Z
  00c65	50		 push	 eax
  00c66	68 00 00 00 00	 push	 OFFSET ??_C@_0M@GNOCDNGL@CItemBag?5?$CFs@
  00c6b	e8 00 00 00 00	 call	 ?MsgBox@@YAXPADZZ	; MsgBox
  00c70	83 c4 08	 add	 esp, 8

; 5129 : 		return;

  00c73	e9 c3 01 00 00	 jmp	 $LN1@LoadItemBa
$LN31@LoadItemBa:

; 5130 : 	}
; 5131 : 
; 5132 : 	#ifdef SCRIPT_DECODE_WORK
; 5133 : 		FriendShipItemBag->Init("eventitembag14.cwz");
; 5134 : 	#else
; 5135 : 		FriendShipItemBag->Init("eventitembag14.txt");

  00c78	68 00 00 00 00	 push	 OFFSET ??_C@_0BD@IIPMPAAH@eventitembag14?4txt@
  00c7d	8b 0d 00 00 00
	00		 mov	 ecx, DWORD PTR ?FriendShipItemBag@@3PAVCItemBag@@A ; FriendShipItemBag
  00c83	e8 00 00 00 00	 call	 ?Init@CItemBag@@QAEXPAD@Z ; CItemBag::Init

; 5136 : 	#endif
; 5137 : #endif
; 5138 : 
; 5139 : 
; 5140 : #ifdef DARK_LORD_HEART_EVENT_20040810
; 5141 : 	if( DarkLordHeartItemBag ){delete DarkLordHeartItemBag;}

  00c88	83 3d 00 00 00
	00 00		 cmp	 DWORD PTR ?DarkLordHeartItemBag@@3PAVCItemBag@@A, 0 ; DarkLordHeartItemBag
  00c8f	74 3a		 je	 SHORT $LN32@LoadItemBa
  00c91	a1 00 00 00 00	 mov	 eax, DWORD PTR ?DarkLordHeartItemBag@@3PAVCItemBag@@A ; DarkLordHeartItemBag
  00c96	89 85 fc fe ff
	ff		 mov	 DWORD PTR $T7[ebp], eax
  00c9c	83 bd fc fe ff
	ff 00		 cmp	 DWORD PTR $T7[ebp], 0
  00ca3	74 1c		 je	 SHORT $LN97@LoadItemBa
  00ca5	6a 01		 push	 1
  00ca7	8b 8d fc fe ff
	ff		 mov	 ecx, DWORD PTR $T7[ebp]
  00cad	8b 11		 mov	 edx, DWORD PTR [ecx]
  00caf	8b 8d fc fe ff
	ff		 mov	 ecx, DWORD PTR $T7[ebp]
  00cb5	8b 02		 mov	 eax, DWORD PTR [edx]
  00cb7	ff d0		 call	 eax
  00cb9	89 85 e4 fe ff
	ff		 mov	 DWORD PTR tv540[ebp], eax
  00cbf	eb 0a		 jmp	 SHORT $LN32@LoadItemBa
$LN97@LoadItemBa:
  00cc1	c7 85 e4 fe ff
	ff 00 00 00 00	 mov	 DWORD PTR tv540[ebp], 0
$LN32@LoadItemBa:

; 5142 : 	DarkLordHeartItemBag = new CItemBag;

  00ccb	68 94 03 00 00	 push	 916			; 00000394H
  00cd0	e8 00 00 00 00	 call	 ??2@YAPAXI@Z		; operator new
  00cd5	83 c4 04	 add	 esp, 4
  00cd8	89 85 f4 fe ff
	ff		 mov	 DWORD PTR $T5[ebp], eax
  00cde	c7 45 fc 0f 00
	00 00		 mov	 DWORD PTR __$EHRec$[ebp+8], 15 ; 0000000fH
  00ce5	83 bd f4 fe ff
	ff 00		 cmp	 DWORD PTR $T5[ebp], 0
  00cec	74 13		 je	 SHORT $LN99@LoadItemBa
  00cee	8b 8d f4 fe ff
	ff		 mov	 ecx, DWORD PTR $T5[ebp]
  00cf4	e8 00 00 00 00	 call	 ??0CItemBag@@QAE@XZ	; CItemBag::CItemBag
  00cf9	89 85 e4 fe ff
	ff		 mov	 DWORD PTR tv552[ebp], eax
  00cff	eb 0a		 jmp	 SHORT $LN100@LoadItemBa
$LN99@LoadItemBa:
  00d01	c7 85 e4 fe ff
	ff 00 00 00 00	 mov	 DWORD PTR tv552[ebp], 0
$LN100@LoadItemBa:
  00d0b	8b 85 e4 fe ff
	ff		 mov	 eax, DWORD PTR tv552[ebp]
  00d11	89 85 f8 fe ff
	ff		 mov	 DWORD PTR $T6[ebp], eax
  00d17	c7 45 fc ff ff
	ff ff		 mov	 DWORD PTR __$EHRec$[ebp+8], -1
  00d1e	8b 8d f8 fe ff
	ff		 mov	 ecx, DWORD PTR $T6[ebp]
  00d24	89 0d 00 00 00
	00		 mov	 DWORD PTR ?DarkLordHeartItemBag@@3PAVCItemBag@@A, ecx ; DarkLordHeartItemBag

; 5143 : 	if( DarkLordHeartItemBag == NULL )

  00d2a	83 3d 00 00 00
	00 00		 cmp	 DWORD PTR ?DarkLordHeartItemBag@@3PAVCItemBag@@A, 0 ; DarkLordHeartItemBag
  00d31	75 20		 jne	 SHORT $LN33@LoadItemBa

; 5144 : 	{
; 5145 : 		MsgBox("CItemBag %s", lMsg.Get(110));

  00d33	6a 6e		 push	 110			; 0000006eH
  00d35	b9 00 00 00 00	 mov	 ecx, OFFSET ?lMsg@@3VCMsg@@A ; lMsg
  00d3a	ff 15 00 00 00
	00		 call	 DWORD PTR __imp_?Get@CMsg@@QAEPADH@Z
  00d40	50		 push	 eax
  00d41	68 00 00 00 00	 push	 OFFSET ??_C@_0M@GNOCDNGL@CItemBag?5?$CFs@
  00d46	e8 00 00 00 00	 call	 ?MsgBox@@YAXPADZZ	; MsgBox
  00d4b	83 c4 08	 add	 esp, 8

; 5146 : 		return;

  00d4e	e9 e8 00 00 00	 jmp	 $LN1@LoadItemBa
$LN33@LoadItemBa:

; 5147 : 	}
; 5148 : 
; 5149 : 	#ifdef SCRIPT_DECODE_WORK
; 5150 : 		DarkLordHeartItemBag->Init("eventitembag15.cwz");
; 5151 : 	#else
; 5152 : 		DarkLordHeartItemBag->Init("eventitembag15.txt");

  00d53	68 00 00 00 00	 push	 OFFSET ??_C@_0BD@EDKACDKC@eventitembag15?4txt@
  00d58	8b 0d 00 00 00
	00		 mov	 ecx, DWORD PTR ?DarkLordHeartItemBag@@3PAVCItemBag@@A ; DarkLordHeartItemBag
  00d5e	e8 00 00 00 00	 call	 ?Init@CItemBag@@QAEXPAD@Z ; CItemBag::Init

; 5153 : 	#endif
; 5154 : #endif
; 5155 : 
; 5156 : 
; 5157 : #ifdef MODIFY_KUNDUN_REWARD_01_20040915
; 5158 : 	if( KundunEventItemBag ){delete KundunEventItemBag;}

  00d63	83 3d 00 00 00
	00 00		 cmp	 DWORD PTR ?KundunEventItemBag@@3PAVCItemBagEx@@A, 0 ; KundunEventItemBag
  00d6a	74 3a		 je	 SHORT $LN34@LoadItemBa
  00d6c	a1 00 00 00 00	 mov	 eax, DWORD PTR ?KundunEventItemBag@@3PAVCItemBagEx@@A ; KundunEventItemBag
  00d71	89 85 f0 fe ff
	ff		 mov	 DWORD PTR $T4[ebp], eax
  00d77	83 bd f0 fe ff
	ff 00		 cmp	 DWORD PTR $T4[ebp], 0
  00d7e	74 1c		 je	 SHORT $LN101@LoadItemBa
  00d80	6a 01		 push	 1
  00d82	8b 8d f0 fe ff
	ff		 mov	 ecx, DWORD PTR $T4[ebp]
  00d88	8b 11		 mov	 edx, DWORD PTR [ecx]
  00d8a	8b 8d f0 fe ff
	ff		 mov	 ecx, DWORD PTR $T4[ebp]
  00d90	8b 02		 mov	 eax, DWORD PTR [edx]
  00d92	ff d0		 call	 eax
  00d94	89 85 e4 fe ff
	ff		 mov	 DWORD PTR tv567[ebp], eax
  00d9a	eb 0a		 jmp	 SHORT $LN34@LoadItemBa
$LN101@LoadItemBa:
  00d9c	c7 85 e4 fe ff
	ff 00 00 00 00	 mov	 DWORD PTR tv567[ebp], 0
$LN34@LoadItemBa:

; 5159 : 	KundunEventItemBag = new CItemBagEx;

  00da6	68 d8 05 00 00	 push	 1496			; 000005d8H
  00dab	e8 00 00 00 00	 call	 ??2@YAPAXI@Z		; operator new
  00db0	83 c4 04	 add	 esp, 4
  00db3	89 85 e8 fe ff
	ff		 mov	 DWORD PTR $T2[ebp], eax
  00db9	c7 45 fc 10 00
	00 00		 mov	 DWORD PTR __$EHRec$[ebp+8], 16 ; 00000010H
  00dc0	83 bd e8 fe ff
	ff 00		 cmp	 DWORD PTR $T2[ebp], 0
  00dc7	74 13		 je	 SHORT $LN103@LoadItemBa
  00dc9	8b 8d e8 fe ff
	ff		 mov	 ecx, DWORD PTR $T2[ebp]
  00dcf	e8 00 00 00 00	 call	 ??0CItemBagEx@@QAE@XZ	; CItemBagEx::CItemBagEx
  00dd4	89 85 e4 fe ff
	ff		 mov	 DWORD PTR tv611[ebp], eax
  00dda	eb 0a		 jmp	 SHORT $LN104@LoadItemBa
$LN103@LoadItemBa:
  00ddc	c7 85 e4 fe ff
	ff 00 00 00 00	 mov	 DWORD PTR tv611[ebp], 0
$LN104@LoadItemBa:
  00de6	8b 85 e4 fe ff
	ff		 mov	 eax, DWORD PTR tv611[ebp]
  00dec	89 85 ec fe ff
	ff		 mov	 DWORD PTR $T3[ebp], eax
  00df2	c7 45 fc ff ff
	ff ff		 mov	 DWORD PTR __$EHRec$[ebp+8], -1
  00df9	8b 8d ec fe ff
	ff		 mov	 ecx, DWORD PTR $T3[ebp]
  00dff	89 0d 00 00 00
	00		 mov	 DWORD PTR ?KundunEventItemBag@@3PAVCItemBagEx@@A, ecx ; KundunEventItemBag

; 5160 : 	if( KundunEventItemBag == NULL )

  00e05	83 3d 00 00 00
	00 00		 cmp	 DWORD PTR ?KundunEventItemBag@@3PAVCItemBagEx@@A, 0 ; KundunEventItemBag
  00e0c	75 1d		 jne	 SHORT $LN35@LoadItemBa

; 5161 : 	{
; 5162 : 		MsgBox("CItemBag %s", lMsg.Get(110));

  00e0e	6a 6e		 push	 110			; 0000006eH
  00e10	b9 00 00 00 00	 mov	 ecx, OFFSET ?lMsg@@3VCMsg@@A ; lMsg
  00e15	ff 15 00 00 00
	00		 call	 DWORD PTR __imp_?Get@CMsg@@QAEPADH@Z
  00e1b	50		 push	 eax
  00e1c	68 00 00 00 00	 push	 OFFSET ??_C@_0M@GNOCDNGL@CItemBag?5?$CFs@
  00e21	e8 00 00 00 00	 call	 ?MsgBox@@YAXPADZZ	; MsgBox
  00e26	83 c4 08	 add	 esp, 8

; 5163 : 		return;

  00e29	eb 10		 jmp	 SHORT $LN1@LoadItemBa
$LN35@LoadItemBa:

; 5164 : 	}
; 5165 : 
; 5166 : 	#ifdef SCRIPT_DECODE_WORK
; 5167 : 		KundunEventItemBag->Init("eventitembag17.cwz");
; 5168 : 	#else
; 5169 : 		KundunEventItemBag->Init("eventitembag17.txt");

  00e2b	68 00 00 00 00	 push	 OFFSET ??_C@_0BD@OGIICKJ@eventitembag17?4txt@
  00e30	8b 0d 00 00 00
	00		 mov	 ecx, DWORD PTR ?KundunEventItemBag@@3PAVCItemBagEx@@A ; KundunEventItemBag
  00e36	e8 00 00 00 00	 call	 ?Init@CItemBagEx@@QAEXPAD@Z ; CItemBagEx::Init
$LN1@LoadItemBa:

; 5170 : 	#endif
; 5171 : #endif
; 5172 : 
; 5173 : #ifdef ADD_NEW_CASTLE_HUNTZONE_REWARD_01_20050303
; 5174 : 	if( CastleHuntZoneBossItemBag ){delete CastleHuntZoneBossItemBag;}
; 5175 : 	CastleHuntZoneBossItemBag = new CItemBagEx;
; 5176 : 	if( CastleHuntZoneBossItemBag == NULL )
; 5177 : 	{
; 5178 : 		MsgBox("CItemBag %s", lMsg.Get(110));
; 5179 : 		return;
; 5180 : 	}
; 5181 : 
; 5182 : 	#ifdef SCRIPT_DECODE_WORK
; 5183 : 		CastleHuntZoneBossItemBag->Init("eventitembag18.cwz");
; 5184 : 	#else
; 5185 : 		CastleHuntZoneBossItemBag->Init("eventitembag18.txt");
; 5186 : 	#endif
; 5187 : #endif
; 5188 : 
; 5189 : #ifdef CASTLE_SPECIAL_ITEMMIX_20050425
; 5190 : 	if( CastleItemMixItemBag ){delete CastleItemMixItemBag;}
; 5191 : 	CastleItemMixItemBag = new CItemBagEx;
; 5192 : 	if( CastleItemMixItemBag == NULL )
; 5193 : 	{
; 5194 : 		MsgBox("CItemBag %s", lMsg.Get(110));
; 5195 : 		return;
; 5196 : 	}
; 5197 : 
; 5198 : 	#ifdef SCRIPT_DECODE_WORK
; 5199 : 		CastleItemMixItemBag->Init("eventitembag19.cwz");
; 5200 : 	#else
; 5201 : 		CastleItemMixItemBag->Init("eventitembag19.txt");
; 5202 : 	#endif
; 5203 : #endif
; 5204 : 
; 5205 : #ifdef HIDDEN_TREASUREBOX_EVENT_20050804
; 5206 : 	if( HiddenTreasureBoxItemBag ){delete HiddenTreasureBoxItemBag;}
; 5207 : 	HiddenTreasureBoxItemBag = new CItemBagEx;
; 5208 : 	if( HiddenTreasureBoxItemBag == NULL )
; 5209 : 	{
; 5210 : 		MsgBox("CItemBag %s", lMsg.Get(110));
; 5211 : 		return;
; 5212 : 	}
; 5213 : 
; 5214 : 	#ifdef SCRIPT_DECODE_WORK
; 5215 : 		HiddenTreasureBoxItemBag->Init("eventitembag20.cwz");
; 5216 : 	#else
; 5217 : 		HiddenTreasureBoxItemBag->Init("eventitembag20.txt");
; 5218 : 	#endif
; 5219 : #endif
; 5220 : 		
; 5221 : #ifdef MU_CHN_THANKS_COOKIE_EVENT_20040908 
; 5222 : 	ChnThanksCookieEvent = new CItemBagEx;
; 5223 : 
; 5224 : 	if( ChnThanksCookieEvent == NULL )
; 5225 : 	{
; 5226 : 		MsgBox("CItemBag %s", lMsg.Get(110));
; 5227 : 		return;
; 5228 : 	}
; 5229 : 
; 5230 : 	ChnThanksCookieEvent->Init("eventitembag16.txt");
; 5231 : #endif
; 5232 : 
; 5233 : #ifdef CHRISTMAS_RIBBONBOX_EVENT_20051212
; 5234 : 	//  
; 5235 : 	if( RedRibbonBoxEventItemBag )			
; 5236 : 		delete RedRibbonBoxEventItemBag;
; 5237 : 
; 5238 : 	RedRibbonBoxEventItemBag	= new CItemBagEx;			
; 5239 : 	if( RedRibbonBoxEventItemBag == NULL )
; 5240 : 	{
; 5241 : 		MsgBox( "CItemBag %s", lMsg.Get(110) );
; 5242 : 		return;
; 5243 : 	}
; 5244 : 	#ifdef SCRIPT_DECODE_WORK
; 5245 : 		RedRibbonBoxEventItemBag->Init("eventitembag21.cwz");
; 5246 : 	#else
; 5247 : 		RedRibbonBoxEventItemBag->Init("eventitembag21.txt");
; 5248 : 	#endif
; 5249 : 		
; 5250 : 	//  
; 5251 : 	if( GreenRibbonBoxEventItemBag )	
; 5252 : 		delete GreenRibbonBoxEventItemBag;
; 5253 : 
; 5254 : 	GreenRibbonBoxEventItemBag = new CItemBagEx;
; 5255 : 	if( GreenRibbonBoxEventItemBag == NULL )
; 5256 : 	{
; 5257 : 		MsgBox( "CItemBag %s", lMsg.Get(110) );
; 5258 : 		return;
; 5259 : 	}
; 5260 : 	#ifdef SCRIPT_DECODE_WORK
; 5261 : 		GreenRibbonBoxEventItemBag->Init("eventitembag22.cwz");
; 5262 : 	#else
; 5263 : 		GreenRibbonBoxEventItemBag->Init("eventitembag22.txt");
; 5264 : 	#endif
; 5265 : 
; 5266 : 
; 5267 : 	// 
; 5268 : 	if( BlueRibbonBoxEventItemBag )	
; 5269 : 		delete BlueRibbonBoxEventItemBag;
; 5270 : 
; 5271 : 	BlueRibbonBoxEventItemBag	= new CItemBagEx;		
; 5272 : 	if( BlueRibbonBoxEventItemBag == NULL )
; 5273 : 	{
; 5274 : 		MsgBox( "CItemBag %s", lMsg.Get(110) );
; 5275 : 		return;
; 5276 : 	}
; 5277 : 	#ifdef SCRIPT_DECODE_WORK
; 5278 : 		BlueRibbonBoxEventItemBag->Init("eventitembag23.cwz");
; 5279 : 	#else
; 5280 : 		BlueRibbonBoxEventItemBag->Init("eventitembag23.txt");
; 5281 : 	#endif
; 5282 : 
; 5283 : #endif // #ifdef CHRISTMAS_RIBBONBOX_EVENT_20051212
; 5284 : 
; 5285 : #ifdef VALENTINES_DAY_BOX_EVENT_20060124	//   
; 5286 : 	//   
; 5287 : 	if( PinkChocolateBoxEventItemBag )			
; 5288 : 		delete PinkChocolateBoxEventItemBag;
; 5289 : 
; 5290 : 	PinkChocolateBoxEventItemBag	= new CItemBagEx;			
; 5291 : 	if( PinkChocolateBoxEventItemBag == NULL )
; 5292 : 	{
; 5293 : 		MsgBox( "CItemBag %s", lMsg.Get(110) );
; 5294 : 		return;
; 5295 : 	}
; 5296 : 	#ifdef SCRIPT_DECODE_WORK
; 5297 : 		PinkChocolateBoxEventItemBag->Init("eventitembag24.cwz");
; 5298 : 	#else
; 5299 : 		PinkChocolateBoxEventItemBag->Init("eventitembag24.txt");
; 5300 : 	#endif
; 5301 : 		
; 5302 : 	//  
; 5303 : 	if( RedChocolateBoxEventItemBag )	
; 5304 : 		delete RedChocolateBoxEventItemBag;
; 5305 : 
; 5306 : 	RedChocolateBoxEventItemBag = new CItemBagEx;
; 5307 : 	if( RedChocolateBoxEventItemBag == NULL )
; 5308 : 	{
; 5309 : 		MsgBox( "CItemBag %s", lMsg.Get(110) );
; 5310 : 		return;
; 5311 : 	}
; 5312 : 	#ifdef SCRIPT_DECODE_WORK
; 5313 : 		RedChocolateBoxEventItemBag->Init("eventitembag25.cwz");
; 5314 : 	#else
; 5315 : 		RedChocolateBoxEventItemBag->Init("eventitembag25.txt");
; 5316 : 	#endif
; 5317 : 
; 5318 : 
; 5319 : 	// 
; 5320 : 	if( BlueChocolateBoxEventItemBag )	
; 5321 : 		delete BlueChocolateBoxEventItemBag;
; 5322 : 
; 5323 : 	BlueChocolateBoxEventItemBag	= new CItemBagEx;		
; 5324 : 	if( BlueChocolateBoxEventItemBag == NULL )
; 5325 : 	{
; 5326 : 		MsgBox( "CItemBag %s", lMsg.Get(110) );
; 5327 : 		return;
; 5328 : 	}
; 5329 : 	#ifdef SCRIPT_DECODE_WORK
; 5330 : 		BlueChocolateBoxEventItemBag->Init("eventitembag26.cwz");
; 5331 : 	#else
; 5332 : 		BlueChocolateBoxEventItemBag->Init("eventitembag26.txt");
; 5333 : 	#endif
; 5334 : 		
; 5335 : #endif // #ifdef VALENTINES_DAY_BOX_EVENT_20060124
; 5336 : 
; 5337 : #ifdef WHITEDAY_CANDY_BOX_EVENT_20060222	//   
; 5338 : 	//   
; 5339 : 	if( LightPurpleCandyBoxEventItemBag )			
; 5340 : 		delete LightPurpleCandyBoxEventItemBag;
; 5341 : 
; 5342 : 	LightPurpleCandyBoxEventItemBag	= new CItemBagEx;			
; 5343 : 	if( LightPurpleCandyBoxEventItemBag == NULL )
; 5344 : 	{
; 5345 : 		MsgBox( "CItemBag %s", lMsg.Get(110) );
; 5346 : 		return;
; 5347 : 	}
; 5348 : 	#ifdef SCRIPT_DECODE_WORK
; 5349 : 		LightPurpleCandyBoxEventItemBag->Init("eventitembag27.cwz");
; 5350 : 	#else
; 5351 : 		LightPurpleCandyBoxEventItemBag->Init("eventitembag27.txt");
; 5352 : 	#endif
; 5353 : 		
; 5354 : 	//  
; 5355 : 	if( VermilionCandyBoxEventItemBag )	
; 5356 : 		delete VermilionCandyBoxEventItemBag;
; 5357 : 
; 5358 : 	VermilionCandyBoxEventItemBag = new CItemBagEx;
; 5359 : 	if( VermilionCandyBoxEventItemBag == NULL )
; 5360 : 	{
; 5361 : 		MsgBox( "CItemBag %s", lMsg.Get(110) );
; 5362 : 		return;
; 5363 : 	}
; 5364 : 	#ifdef SCRIPT_DECODE_WORK
; 5365 : 		VermilionCandyBoxEventItemBag->Init("eventitembag28.cwz");
; 5366 : 	#else
; 5367 : 		VermilionCandyBoxEventItemBag->Init("eventitembag28.txt");
; 5368 : 	#endif
; 5369 : 
; 5370 : 
; 5371 : 	// 
; 5372 : 	if( DeepBlueCandyBoxEventItemBag )	
; 5373 : 		delete DeepBlueCandyBoxEventItemBag;
; 5374 : 
; 5375 : 	DeepBlueCandyBoxEventItemBag	= new CItemBagEx;		
; 5376 : 	if( DeepBlueCandyBoxEventItemBag == NULL )
; 5377 : 	{
; 5378 : 		MsgBox( "CItemBag %s", lMsg.Get(110) );
; 5379 : 		return;
; 5380 : 	}
; 5381 : 	#ifdef SCRIPT_DECODE_WORK
; 5382 : 		DeepBlueCandyBoxEventItemBag->Init("eventitembag29.cwz");
; 5383 : 	#else
; 5384 : 		DeepBlueCandyBoxEventItemBag->Init("eventitembag29.txt");
; 5385 : 	#endif
; 5386 : 		
; 5387 : #endif // #ifdef WHITEDAY_CANDY_BOX_EVENT_20060222
; 5388 : 
; 5389 : #ifdef ADD_CRYWOLF_MONSTER_ITEMDROP_20060404	//   (eventitembag30.txt) 	
; 5390 : 	if( CrywolfDarkElfItemBag )	
; 5391 : 		delete CrywolfDarkElfItemBag;
; 5392 : 
; 5393 : 	CrywolfDarkElfItemBag	= new CItemBagEx;		
; 5394 : 	if( CrywolfDarkElfItemBag == NULL )
; 5395 : 	{
; 5396 : 		MsgBox( "CItemBag %s", lMsg.Get(110) );
; 5397 : 		return;
; 5398 : 	}
; 5399 : 	#ifdef SCRIPT_DECODE_WORK
; 5400 : 		CrywolfDarkElfItemBag->Init("eventitembag30.cwz");
; 5401 : 	#else
; 5402 : 		CrywolfDarkElfItemBag->Init("eventitembag30.txt");
; 5403 : 	#endif
; 5404 : #endif	// #ifdef ADD_CRYWOLF_MONSTER_ITEMDROP_20060404
; 5405 : 
; 5406 : #ifdef ADD_CRYWOLF_MONSTER_ITEMDROP_20060404		//   (eventitembag31.txt) 
; 5407 : 	if( CrywolfBossMonsterItemBag )	
; 5408 : 		delete CrywolfBossMonsterItemBag;
; 5409 : 
; 5410 : 	CrywolfBossMonsterItemBag	= new CItemBagEx;		
; 5411 : 	if( CrywolfBossMonsterItemBag == NULL )
; 5412 : 	{
; 5413 : 		MsgBox( "CItemBag %s", lMsg.Get(110) );
; 5414 : 		return;
; 5415 : 	}
; 5416 : 	#ifdef SCRIPT_DECODE_WORK
; 5417 : 		CrywolfBossMonsterItemBag->Init("eventitembag31.cwz");
; 5418 : 	#else
; 5419 : 		CrywolfBossMonsterItemBag->Init("eventitembag31.txt");
; 5420 : 	#endif
; 5421 : #endif	// #ifdef ADD_CRYWOLF_MONSTER_ITEMDROP_20060404
; 5422 : 
; 5423 : #ifdef KANTURU_MONSTER_ITEMDROP_20060807		//    (eventitembag32.txt, eventitembag33.txt) 
; 5424 : 	//  
; 5425 : 	if( KanturuMayaHandItemBag )	
; 5426 : 		delete KanturuMayaHandItemBag;
; 5427 : 
; 5428 : 	KanturuMayaHandItemBag	= new CItemBagEx;		
; 5429 : 	if( KanturuMayaHandItemBag == NULL )
; 5430 : 	{
; 5431 : 		MsgBox( "CItemBag %s", lMsg.Get(110) );
; 5432 : 		return;
; 5433 : 	}
; 5434 : 	#ifdef SCRIPT_DECODE_WORK
; 5435 : 		KanturuMayaHandItemBag->Init("eventitembag32.cwz");
; 5436 : 	#else
; 5437 : 		KanturuMayaHandItemBag->Init("eventitembag32.txt");
; 5438 : 	#endif
; 5439 : 
; 5440 : 	// 
; 5441 : 	if( KanturuNightmareItemBag )	
; 5442 : 		delete KanturuNightmareItemBag;
; 5443 : 
; 5444 : 	KanturuNightmareItemBag	= new CItemBagEx;		
; 5445 : 	if( KanturuNightmareItemBag == NULL )
; 5446 : 	{
; 5447 : 		MsgBox( "CItemBag %s", lMsg.Get(110) );
; 5448 : 		return;
; 5449 : 	}
; 5450 : 	#ifdef SCRIPT_DECODE_WORK
; 5451 : 		KanturuNightmareItemBag->Init("eventitembag33.cwz");
; 5452 : 	#else
; 5453 : 		KanturuNightmareItemBag->Init("eventitembag33.txt");
; 5454 : 	#endif
; 5455 : #endif	// #ifdef KANTURU_MONSTER_ITEMDROP_20060807
; 5456 : 
; 5457 : #ifdef HALLOWINDAY_JACK_O_LANTERN_EVENT_20061017
; 5458 : 	if( HallowinDayEventItemBag )
; 5459 : 	{
; 5460 : 		delete HallowinDayEventItemBag;
; 5461 : 	}
; 5462 : 
; 5463 : 	HallowinDayEventItemBag = new CItemBagEx;
; 5464 : 	if( HallowinDayEventItemBag == NULL )
; 5465 : 	{
; 5466 : 		MsgBox( "CItemBag %s", lMsg.Get(110) );
; 5467 : 		return;
; 5468 : 	}
; 5469 : 	#ifdef SCRIPT_DECODE_WORK
; 5470 : 		HallowinDayEventItemBag->Init("eventitembag34.cwz");
; 5471 : 	#else
; 5472 : 		HallowinDayEventItemBag->Init("eventitembag34.txt");
; 5473 : 	#endif
; 5474 : #endif // HALLOWINDAY_JACK_O_LANTERN_EVENT_20061017
; 5475 : 
; 5476 : #ifdef UPDATE_LOWLEVEL_SUPPORT_RING_20070119	// , ( )  /
; 5477 : 	if( RingOfHeroEventItemBag ){delete RingOfHeroEventItemBag;}
; 5478 : 	RingOfHeroEventItemBag = new CItemBag;
; 5479 : 	if( RingOfHeroEventItemBag == NULL )
; 5480 : 	{
; 5481 : 		MsgBox("CItemBag %s", lMsg.Get(110));
; 5482 : 		return;
; 5483 : 	}
; 5484 : 
; 5485 : 	#ifdef SCRIPT_DECODE_WORK
; 5486 : 		RingOfHeroEventItemBag->Init("eventitembag35.cwz");
; 5487 : 	#else
; 5488 : 		RingOfHeroEventItemBag->Init("eventitembag35.txt");
; 5489 : 	#endif
; 5490 : #endif	// UPDATE_LOWLEVEL_SUPPORT_RING_20070119
; 5491 : 
; 5492 : #ifdef PCBANG_COUPON_EVENT_20060124
; 5493 : 	if( PCBangEventNPCItemBag )
; 5494 : 		delete PCBangEventNPCItemBag;
; 5495 : 
; 5496 : 	PCBangEventNPCItemBag = new CItemBagEx;
; 5497 : 	if( PCBangEventNPCItemBag == NULL )
; 5498 : 	{
; 5499 : 		MsgBox( "CItemBag %s", lMsg.Get( 110 ) );
; 5500 : 		return;
; 5501 : 	}
; 5502 : 
; 5503 : 	#ifdef SCRIPT_DECODE_WORK
; 5504 : 		PCBangEventNPCItemBag->Init( "eventitembag36.cwz" );
; 5505 : 	#else
; 5506 : 		PCBangEventNPCItemBag->Init( "eventitembag36.txt" );
; 5507 : 	#endif		
; 5508 : #endif
; 5509 : 
; 5510 : #ifdef UPDATE_NEWYEAR_LUCKYBAG_MONSTER_20070131				//   
; 5511 : 	if( NewYearLuckyBagItemBag ){delete NewYearLuckyBagItemBag;}
; 5512 : 	NewYearLuckyBagItemBag = new CProbabilityItemBag;
; 5513 : 	if( NewYearLuckyBagItemBag == NULL )
; 5514 : 	{
; 5515 : 		MsgBox("CItemBag %s", lMsg.Get(110));
; 5516 : 		return;
; 5517 : 	}
; 5518 : 
; 5519 : 	//#ifdef SCRIPT_DECODE_WORK
; 5520 : 	//	NewYearLuckyBagItemBag->Init("eventitembag37.cwz");
; 5521 : 	//#else
; 5522 : 		NewYearLuckyBagItemBag->ProbabilityItemBagInit("eventitembag37.txt");
; 5523 : 	//#endif
; 5524 : #endif
; 5525 : 
; 5526 : #ifdef UPDATE_GM_FUNCTION_20070228							// GM     
; 5527 : 		if( GMPresentBoxItemBag ) { delete GMPresentBoxItemBag; }
; 5528 : 		GMPresentBoxItemBag	= new CProbabilityItemBag;
; 5529 : 		if( GMPresentBoxItemBag == NULL )
; 5530 : 		{
; 5531 : 			MsgBox("CItemBag %s", lMsg.Get(110));
; 5532 : 			return;
; 5533 : 		}
; 5534 : 
; 5535 : 		GMPresentBoxItemBag->ProbabilityItemBagInit("eventitembag41.txt");
; 5536 : #endif
; 5537 : 
; 5538 : #ifdef PCBANG_POINT_SYSTEM_20070206						//     
; 5539 : 	if( BoxOfGreenChaosItemBag )
; 5540 : 		delete BoxOfGreenChaosItemBag;
; 5541 : 
; 5542 : 	BoxOfGreenChaosItemBag = new CProbabilityItemBag;
; 5543 : 	if( BoxOfGreenChaosItemBag == NULL )
; 5544 : 	{
; 5545 : 		MsgBox( "CItemBag %s", lMsg.Get( 110 ) );
; 5546 : 		return;
; 5547 : 	}
; 5548 : 
; 5549 : 	#ifdef SCRIPT_DECODE_WORK
; 5550 : 		BoxOfGreenChaosItemBag->ProbabilityItemBagInit( "eventitembag38.cwz" );
; 5551 : 	#else
; 5552 : 		BoxOfGreenChaosItemBag->ProbabilityItemBagInit( "eventitembag38.txt" );
; 5553 : 	#endif
; 5554 : 
; 5555 : 	//  
; 5556 : 	if( BoxOfRedChaosItemBag )
; 5557 : 		delete BoxOfRedChaosItemBag;
; 5558 : 
; 5559 : 	BoxOfRedChaosItemBag = new CProbabilityItemBag;
; 5560 : 	if( BoxOfRedChaosItemBag == NULL )
; 5561 : 	{
; 5562 : 		MsgBox( "CItemBag %s", lMsg.Get( 110 ) );
; 5563 : 		return;
; 5564 : 	}
; 5565 : 
; 5566 : 	#ifdef SCRIPT_DECODE_WORK
; 5567 : 		BoxOfRedChaosItemBag->ProbabilityItemBagInit( "eventitembag39.cwz" );
; 5568 : 	#else
; 5569 : 		BoxOfRedChaosItemBag->ProbabilityItemBagInit( "eventitembag39.txt" );
; 5570 : 	#endif
; 5571 : 
; 5572 : 	//  
; 5573 : 	if( BoxOfPurpleChaosItemBag )
; 5574 : 		delete BoxOfPurpleChaosItemBag;
; 5575 : 
; 5576 : 	BoxOfPurpleChaosItemBag = new CProbabilityItemBag;
; 5577 : 	if( BoxOfPurpleChaosItemBag == NULL )
; 5578 : 	{
; 5579 : 		MsgBox( "CItemBag %s", lMsg.Get( 110 ) );
; 5580 : 		return;
; 5581 : 	}
; 5582 : 
; 5583 : 	#ifdef SCRIPT_DECODE_WORK
; 5584 : 		BoxOfPurpleChaosItemBag->ProbabilityItemBagInit( "eventitembag40.cwz" );
; 5585 : 	#else
; 5586 : 		BoxOfPurpleChaosItemBag->ProbabilityItemBagInit( "eventitembag40.txt" );
; 5587 : 	#endif		
; 5588 : #endif	// PCBANG_POINT_SYSTEM_20070206
; 5589 : 
; 5590 : #ifdef UPDATE_NPC_REO_NEW_EVENTITEMBACK_20080408
; 5591 : 		if( ItemGiveReoEventItemBag ) { delete ItemGiveReoEventItemBag; }
; 5592 : 		ItemGiveReoEventItemBag	= new CProbabilityItemBag;
; 5593 : 		if( ItemGiveReoEventItemBag == NULL )
; 5594 : 		{
; 5595 : 			MsgBox("CItemBag %s", lMsg.Get(110));
; 5596 : 			return;
; 5597 : 		}
; 5598 : 		
; 5599 : 		ItemGiveReoEventItemBag->ProbabilityItemBagInit("eventitembag45.txt");
; 5600 : #else	// UPDATE_NPC_REO_NEW_EVENTITEMBACK_20080408		
; 5601 : #ifdef WHITEANGEL_GET_ITEM_EVENT_20060822
; 5602 : 	if( ItemGiveEventItemBag )
; 5603 : 		delete ItemGiveEventItemBag;
; 5604 : 
; 5605 : 	ItemGiveEventItemBag = new CItemBagEx;
; 5606 : 	if( ItemGiveEventItemBag == NULL )
; 5607 : 	{
; 5608 : 		MsgBox( "CItemBag %s", lMsg.Get( 110 ) );
; 5609 : 		return;
; 5610 : 	}
; 5611 : 
; 5612 : 	#ifdef SCRIPT_DECODE_WORK
; 5613 : 		ItemGiveEventItemBag->Init( "eventitembag45.cwz" );
; 5614 : 	#else
; 5615 : 		ItemGiveEventItemBag->Init( "eventitembag45.txt" );
; 5616 : 	#endif		
; 5617 : #endif	// WHITEANGEL_GET_ITEM_EVENT_20060822
; 5618 : #endif	// UPDATE_NPC_REO_NEW_EVENTITEMBACK_20080408
; 5619 : 
; 5620 : #ifdef ADD_RAKLION_20080408
; 5621 : 		// eventitembag52.txt 
; 5622 : 		if( pRaklionSelupanItemBag )
; 5623 : 			delete pRaklionSelupanItemBag;
; 5624 : 		
; 5625 : 		pRaklionSelupanItemBag = new CProbabilityItemBag;
; 5626 : 		if( pRaklionSelupanItemBag == NULL )
; 5627 : 		{
; 5628 : 			MsgBox( "CProbabilityItemBag %s", lMsg.Get( 110 ) );
; 5629 : 			return;
; 5630 : 		}
; 5631 : 		
; 5632 : 		pRaklionSelupanItemBag->ProbabilityItemBagInit( "eventitembag52.txt" );
; 5633 : #endif // ADD_RAKLION_20080408
; 5634 : 
; 5635 : #ifdef ADD_GAMBLING_20090120
; 5636 : 		// eventitembag59.txt 
; 5637 : 		if( pGamblingSystemItemBag )
; 5638 : 			delete pGamblingSystemItemBag;
; 5639 : 		
; 5640 : 		pGamblingSystemItemBag = new CGamblingItemBag;
; 5641 : 		if( pGamblingSystemItemBag == NULL )
; 5642 : 		{
; 5643 : 			MsgBox( "CGamblingItemBag %s", lMsg.Get( 110 ) );
; 5644 : 			return;
; 5645 : 		}
; 5646 : 		
; 5647 : 		pGamblingSystemItemBag->GamblingItemBagInit( "eventitembag59.txt" );
; 5648 : #endif // ADD_GAMBLING_20090120
; 5649 : 
; 5650 : #ifdef ADD_SUMMER_FIRECRACKER_MONSTER_EVENT_20090610	//    
; 5651 : 		if( FireCrackerMonsterEventItemBag )
; 5652 : 			delete FireCrackerMonsterEventItemBag;
; 5653 : 		
; 5654 : 		FireCrackerMonsterEventItemBag = new CProbabilityItemBag;
; 5655 : 		if( FireCrackerMonsterEventItemBag == NULL )
; 5656 : 		{
; 5657 : 			MsgBox( "CProbabilityItemBag %s", lMsg.Get( 110 ) );
; 5658 : 			return;
; 5659 : 		}
; 5660 : 		
; 5661 : 	#ifdef SCRIPT_DECODE_WORK
; 5662 : 		#ifdef MODIFY_FIRECRACKER_EVENTITEMBAG_NUMBER_CHANGE_20090930
; 5663 : 		FireCrackerMonsterEventItemBag->ProbabilityItemBagInit( "eventitembag64.cwz" );
; 5664 : 		#else // MODIFY_FIRECRACKER_EVENTITEMBAG_NUMBER_CHANGE_20090930
; 5665 : 		FireCrackerMonsterEventItemBag->ProbabilityItemBagInit( "eventitembag61.cwz" );
; 5666 : 		#endif // MODIFY_FIRECRACKER_EVENTITEMBAG_NUMBER_CHANGE_20090930
; 5667 : 	#else
; 5668 : 		#ifdef MODIFY_FIRECRACKER_EVENTITEMBAG_NUMBER_CHANGE_20090930
; 5669 : 		FireCrackerMonsterEventItemBag->ProbabilityItemBagInit( "eventitembag64.txt" );
; 5670 : 		#else // MODIFY_FIRECRACKER_EVENTITEMBAG_NUMBER_CHANGE_20090930
; 5671 : 		FireCrackerMonsterEventItemBag->ProbabilityItemBagInit( "eventitembag61.txt" );
; 5672 : 		#endif // MODIFY_FIRECRACKER_EVENTITEMBAG_NUMBER_CHANGE_20090930
; 5673 : 	#endif	
; 5674 : #endif // ADD_SUMMER_FIRECRACKER_MONSTER_EVENT_20090610
; 5675 : 
; 5676 : #ifdef UPDATE_LUCKY_COIN_EVENT_20081029					//     
; 5677 : 		// eventitembag56.txt 
; 5678 : 		if( pLuckyCoinEventItemBag10 )
; 5679 : 			delete pLuckyCoinEventItemBag10;
; 5680 : 		
; 5681 : 		pLuckyCoinEventItemBag10 = new CProbabilityItemBag;
; 5682 : 		if( pLuckyCoinEventItemBag10 == NULL )
; 5683 : 		{
; 5684 : 			MsgBox( "CProbabilityItemBag %s", lMsg.Get( 110 ) );
; 5685 : 			return;
; 5686 : 		}
; 5687 : 		
; 5688 : 		pLuckyCoinEventItemBag10->ProbabilityItemBagInit( "eventitembag56.txt" );
; 5689 : 
; 5690 : 		// eventitembag57.txt 
; 5691 : 		if( pLuckyCoinEventItemBag20 )
; 5692 : 			delete pLuckyCoinEventItemBag20;
; 5693 : 		
; 5694 : 		pLuckyCoinEventItemBag20 = new CProbabilityItemBag;
; 5695 : 		if( pLuckyCoinEventItemBag20 == NULL )
; 5696 : 		{
; 5697 : 			MsgBox( "CProbabilityItemBag %s", lMsg.Get( 110 ) );
; 5698 : 			return;
; 5699 : 		}
; 5700 : 		
; 5701 : 		pLuckyCoinEventItemBag20->ProbabilityItemBagInit( "eventitembag57.txt" );
; 5702 : 
; 5703 : 		// eventitembag58.txt 
; 5704 : 		if( pLuckyCoinEventItemBag30 )
; 5705 : 			delete pLuckyCoinEventItemBag30;
; 5706 : 		
; 5707 : 		pLuckyCoinEventItemBag30 = new CProbabilityItemBag;
; 5708 : 		if( pLuckyCoinEventItemBag30 == NULL )
; 5709 : 		{
; 5710 : 			MsgBox( "CProbabilityItemBag %s", lMsg.Get( 110 ) );
; 5711 : 			return;
; 5712 : 		}
; 5713 : 		
; 5714 : 		pLuckyCoinEventItemBag30->ProbabilityItemBagInit( "eventitembag58.txt" );
; 5715 : #endif	// UPDATE_LUCKY_COIN_EVENT_20081029
; 5716 : 
; 5717 : #ifdef ADD_EVENT_MAP_ILLUSION_TEMPLE_20070328	//      
; 5718 : 		if( IllusionTempleGhostItemBagA ) { delete IllusionTempleGhostItemBagA; }
; 5719 : 		IllusionTempleGhostItemBagA	= new CProbabilityItemBag;
; 5720 : 		if( IllusionTempleGhostItemBagA == NULL )
; 5721 : 		{
; 5722 : 			MsgBox("CItemBag %s", lMsg.Get(110));
; 5723 : 			return;
; 5724 : 		}
; 5725 : 		IllusionTempleGhostItemBagA->ProbabilityItemBagInit("eventitembag42.txt");
; 5726 : 		
; 5727 : 		if( IllusionTempleGhostItemBagB ) { delete IllusionTempleGhostItemBagB; }
; 5728 : 		IllusionTempleGhostItemBagB	= new CProbabilityItemBag;
; 5729 : 		if( IllusionTempleGhostItemBagB == NULL )
; 5730 : 		{
; 5731 : 			MsgBox("CItemBag %s", lMsg.Get(110));
; 5732 : 			return;
; 5733 : 		}
; 5734 : 		IllusionTempleGhostItemBagB->ProbabilityItemBagInit("eventitembag43.txt");
; 5735 : 
; 5736 : 		if( IllusionTempleGhostItemBagC ) { delete IllusionTempleGhostItemBagC; }
; 5737 : 		IllusionTempleGhostItemBagC	= new CProbabilityItemBag;
; 5738 : 		if( IllusionTempleGhostItemBagC == NULL )
; 5739 : 		{
; 5740 : 			MsgBox("CItemBag %s", lMsg.Get(110));
; 5741 : 			return;
; 5742 : 		}
; 5743 : 		IllusionTempleGhostItemBagC->ProbabilityItemBagInit("eventitembag44.txt");
; 5744 : #endif	// ADD_EVENT_MAP_ILLUSION_TEMPLE_20070328
; 5745 : 
; 5746 : #ifdef CHUSEOK_MONSTER_EVENT_20070823	// eventitembag46.txt
; 5747 : 	if( ChuseokMonsterEventItemBag )
; 5748 : 		delete ChuseokMonsterEventItemBag;
; 5749 : 
; 5750 : 	ChuseokMonsterEventItemBag = new CProbabilityItemBag;
; 5751 : 	if( ChuseokMonsterEventItemBag == NULL )
; 5752 : 	{
; 5753 : 		MsgBox( "CProbabilityItemBag %s", lMsg.Get( 110 ) );
; 5754 : 		return;
; 5755 : 	}
; 5756 : 
; 5757 : 	#ifdef SCRIPT_DECODE_WORK
; 5758 : 		ChuseokMonsterEventItemBag->ProbabilityItemBagInit( "eventitembag46.cwz" );
; 5759 : 	#else
; 5760 : 		ChuseokMonsterEventItemBag->ProbabilityItemBagInit( "eventitembag46.txt" );
; 5761 : 	#endif	
; 5762 : #endif	// CHUSEOK_MONSTER_EVENT_20070823
; 5763 : 
; 5764 : #ifdef ADD_ITEM_GIVE_NPC_ALAN_20070823	// eventitembag47.txt
; 5765 : 	if( NpcAlanEventItemBag )
; 5766 : 		delete NpcAlanEventItemBag;
; 5767 : 
; 5768 : 	NpcAlanEventItemBag = new CProbabilityItemBag;
; 5769 : 	if( NpcAlanEventItemBag == NULL )
; 5770 : 	{
; 5771 : 		MsgBox( "CProbabilityItemBag %s", lMsg.Get( 110 ) );
; 5772 : 		return;
; 5773 : 	}
; 5774 : 
; 5775 : 	#ifdef SCRIPT_DECODE_WORK
; 5776 : 		NpcAlanEventItemBag->ProbabilityItemBagInit( "eventitembag47.cwz" );
; 5777 : 	#else
; 5778 : 		NpcAlanEventItemBag->ProbabilityItemBagInit( "eventitembag47.txt" );
; 5779 : 	#endif		
; 5780 : #endif	// ADD_ITEM_GIVE_NPC_ALAN_20070823
; 5781 : 
; 5782 : #ifdef ADD_EVENT_CHERRYBLOSSOM_20080312
; 5783 : 		{
; 5784 : 			//eventitembag48.txt
; 5785 : 			if (pCherryBlossomEventItemBag)
; 5786 : 				delete pCherryBlossomEventItemBag;
; 5787 : 			
; 5788 : 			pCherryBlossomEventItemBag = new CProbabilityItemBag;
; 5789 : 			if (pCherryBlossomEventItemBag == NULL)
; 5790 : 			{
; 5791 : 				MsgBox("CProbabilityItemBag %s", lMsg.Get( 110 ));
; 5792 : 				return;
; 5793 : 			}
; 5794 : 			
; 5795 : #ifdef SCRIPT_DECODE_WORK
; 5796 : 			pCherryBlossomEventItemBag->ProbabilityItemBagInit( "eventitembag48.cwz" );
; 5797 : #else
; 5798 : 			pCherryBlossomEventItemBag->ProbabilityItemBagInit( "eventitembag48.txt" );
; 5799 : #endif
; 5800 : 			
; 5801 : 			
; 5802 : 			//eventitembag49.txt
; 5803 : 			if (pCherryBlossomEventItemBagA)
; 5804 : 				delete pCherryBlossomEventItemBagA;
; 5805 : 			
; 5806 : 			pCherryBlossomEventItemBagA = new CProbabilityItemBag;
; 5807 : 			if (pCherryBlossomEventItemBagA == NULL)
; 5808 : 			{
; 5809 : 				MsgBox("CProbabilityItemBag-A %s", lMsg.Get( 110 ));
; 5810 : 				return;
; 5811 : 			}
; 5812 : 			
; 5813 : #ifdef SCRIPT_DECODE_WORK
; 5814 : 			pCherryBlossomEventItemBagA->ProbabilityItemBagInit( "eventitembag49.cwz" );
; 5815 : #else
; 5816 : 			pCherryBlossomEventItemBagA->ProbabilityItemBagInit( "eventitembag49.txt" );
; 5817 : #endif
; 5818 : 			
; 5819 : 			//eventitembag50.txt
; 5820 : 			if (pCherryBlossomEventItemBagB)
; 5821 : 				delete pCherryBlossomEventItemBagB;
; 5822 : 			
; 5823 : 			pCherryBlossomEventItemBagB = new CProbabilityItemBag;
; 5824 : 			if (pCherryBlossomEventItemBagB == NULL)
; 5825 : 			{
; 5826 : 				MsgBox("CProbabilityItemBag-B %s", lMsg.Get( 110 ));
; 5827 : 				return;
; 5828 : 			}
; 5829 : 			
; 5830 : #ifdef SCRIPT_DECODE_WORK
; 5831 : 			pCherryBlossomEventItemBagB->ProbabilityItemBagInit( "eventitembag50.cwz" );
; 5832 : #else
; 5833 : 			pCherryBlossomEventItemBagB->ProbabilityItemBagInit( "eventitembag50.txt" );
; 5834 : #endif
; 5835 : 			
; 5836 : 			//eventitembag51.txt
; 5837 : 			if (pCherryBlossomEventItemBagC)
; 5838 : 				delete pCherryBlossomEventItemBagC;
; 5839 : 			
; 5840 : 			pCherryBlossomEventItemBagC = new CProbabilityItemBag;
; 5841 : 			if (pCherryBlossomEventItemBagC == NULL)
; 5842 : 			{
; 5843 : 				MsgBox("CProbabilityItemBag-C %s", lMsg.Get( 110 ));
; 5844 : 				return;
; 5845 : 			}
; 5846 : 			
; 5847 : #ifdef SCRIPT_DECODE_WORK
; 5848 : 			pCherryBlossomEventItemBagC->ProbabilityItemBagInit( "eventitembag51.cwz" );
; 5849 : #else
; 5850 : 			pCherryBlossomEventItemBagC->ProbabilityItemBagInit( "eventitembag51.txt" );
; 5851 : #endif
; 5852 : 		}
; 5853 : #endif // ADD_EVENT_CHERRYBLOSSOM_20080312		
; 5854 : 
; 5855 : 
; 5856 : #ifdef ADD_GIFTITEM_XMASEVENT_20081030
; 5857 : 		{
; 5858 : 			
; 5859 : 			if(pSantaNpcEventItem)
; 5860 : 				delete pSantaNpcEventItem;
; 5861 : 			
; 5862 : 			pSantaNpcEventItem = new CProbabilityItemBag;
; 5863 : 			if(pSantaNpcEventItem == NULL) {
; 5864 : 				MsgBox("CProbabilityItemBag %s", lMsg.Get( 110 ));
; 5865 : 				return;
; 5866 : 			}
; 5867 : 			
; 5868 : #ifdef SCRIPT_DECODE_WORK
; 5869 : 			pSantaNpcEventItem->ProbabilityItemBagInit("eventitembag53.cwz");
; 5870 : #else
; 5871 : 			pSantaNpcEventItem->ProbabilityItemBagInit("eventitembag53.txt");
; 5872 : #endif //SCRIPT_DECODE_WORK
; 5873 : 			
; 5874 : 			if(pSantaNpcEventItem100)
; 5875 : 				delete pSantaNpcEventItem100;
; 5876 : 			
; 5877 : 			pSantaNpcEventItem100 = new CProbabilityItemBag;
; 5878 : 			if(pSantaNpcEventItem100 == NULL) {
; 5879 : 				MsgBox("CProbabilityItemBag100 %s", lMsg.Get( 110 ));
; 5880 : 				return;
; 5881 : 			}
; 5882 : #ifdef SCRPIPT_DECODE_WORK
; 5883 : 			pSantaNpcEventItem100->ProbabilityItemBagInit("eventitembag54.cwz");
; 5884 : #else 
; 5885 : 			pSantaNpcEventItem100->ProbabilityItemBagInit("eventitembag54.txt");
; 5886 : #endif //SCRPIPT_DECODE_WORK
; 5887 : 			
; 5888 : 			if(pSantaNpcEventItem1000)
; 5889 : 				delete pSantaNpcEventItem1000;
; 5890 : 			
; 5891 : 			pSantaNpcEventItem1000 = new CProbabilityItemBag;
; 5892 : 			if(pSantaNpcEventItem1000 == NULL) {
; 5893 : 				MsgBox("CProbabilityItemBag1000 %s", lMsg.Get( 110 ));
; 5894 : 				return;
; 5895 : 			}
; 5896 : #ifdef SCRIPT_DECODE_WORK
; 5897 : 			pSantaNpcEventItem1000->ProbabilityItemBagInit("eventitembag55.cwz");
; 5898 : #else 
; 5899 : 			pSantaNpcEventItem1000->ProbabilityItemBagInit("eventitembag55.txt");
; 5900 : #endif //SCRIPT_DECODE_WORK
; 5901 : 			
; 5902 : 		}
; 5903 : #endif //ADD_GIFTITEM_XMASEVENT_20081030
; 5904 : }

  00e3b	8b 4d f4	 mov	 ecx, DWORD PTR __$EHRec$[ebp]
  00e3e	64 89 0d 00 00
	00 00		 mov	 DWORD PTR fs:0, ecx
  00e45	59		 pop	 ecx
  00e46	5f		 pop	 edi
  00e47	5e		 pop	 esi
  00e48	5b		 pop	 ebx
  00e49	8b e5		 mov	 esp, ebp
  00e4b	5d		 pop	 ebp
  00e4c	c3		 ret	 0
_TEXT	ENDS
;	COMDAT text$x
text$x	SEGMENT
__unwindfunclet$?LoadItemBag@@YAXXZ$0:
  00000	68 94 03 00 00	 push	 916			; 00000394H
  00005	8b 45 a8	 mov	 eax, DWORD PTR $T50[ebp]
  00008	50		 push	 eax
  00009	e8 00 00 00 00	 call	 ??3@YAXPAXI@Z		; operator delete
  0000e	83 c4 08	 add	 esp, 8
  00011	c3		 ret	 0
__unwindfunclet$?LoadItemBag@@YAXXZ$1:
  00012	68 94 03 00 00	 push	 916			; 00000394H
  00017	8b 45 9c	 mov	 eax, DWORD PTR $T47[ebp]
  0001a	50		 push	 eax
  0001b	e8 00 00 00 00	 call	 ??3@YAXPAXI@Z		; operator delete
  00020	83 c4 08	 add	 esp, 8
  00023	c3		 ret	 0
__unwindfunclet$?LoadItemBag@@YAXXZ$2:
  00024	68 94 03 00 00	 push	 916			; 00000394H
  00029	8b 45 90	 mov	 eax, DWORD PTR $T44[ebp]
  0002c	50		 push	 eax
  0002d	e8 00 00 00 00	 call	 ??3@YAXPAXI@Z		; operator delete
  00032	83 c4 08	 add	 esp, 8
  00035	c3		 ret	 0
__unwindfunclet$?LoadItemBag@@YAXXZ$3:
  00036	68 d8 05 00 00	 push	 1496			; 000005d8H
  0003b	8b 45 84	 mov	 eax, DWORD PTR $T41[ebp]
  0003e	50		 push	 eax
  0003f	e8 00 00 00 00	 call	 ??3@YAXPAXI@Z		; operator delete
  00044	83 c4 08	 add	 esp, 8
  00047	c3		 ret	 0
__unwindfunclet$?LoadItemBag@@YAXXZ$4:
  00048	68 94 03 00 00	 push	 916			; 00000394H
  0004d	8b 85 78 ff ff
	ff		 mov	 eax, DWORD PTR $T38[ebp]
  00053	50		 push	 eax
  00054	e8 00 00 00 00	 call	 ??3@YAXPAXI@Z		; operator delete
  00059	83 c4 08	 add	 esp, 8
  0005c	c3		 ret	 0
__unwindfunclet$?LoadItemBag@@YAXXZ$5:
  0005d	68 94 03 00 00	 push	 916			; 00000394H
  00062	8b 85 6c ff ff
	ff		 mov	 eax, DWORD PTR $T35[ebp]
  00068	50		 push	 eax
  00069	e8 00 00 00 00	 call	 ??3@YAXPAXI@Z		; operator delete
  0006e	83 c4 08	 add	 esp, 8
  00071	c3		 ret	 0
__unwindfunclet$?LoadItemBag@@YAXXZ$6:
  00072	68 94 03 00 00	 push	 916			; 00000394H
  00077	8b 85 60 ff ff
	ff		 mov	 eax, DWORD PTR $T32[ebp]
  0007d	50		 push	 eax
  0007e	e8 00 00 00 00	 call	 ??3@YAXPAXI@Z		; operator delete
  00083	83 c4 08	 add	 esp, 8
  00086	c3		 ret	 0
__unwindfunclet$?LoadItemBag@@YAXXZ$7:
  00087	68 94 03 00 00	 push	 916			; 00000394H
  0008c	8b 85 54 ff ff
	ff		 mov	 eax, DWORD PTR $T29[ebp]
  00092	50		 push	 eax
  00093	e8 00 00 00 00	 call	 ??3@YAXPAXI@Z		; operator delete
  00098	83 c4 08	 add	 esp, 8
  0009b	c3		 ret	 0
__unwindfunclet$?LoadItemBag@@YAXXZ$8:
  0009c	68 94 03 00 00	 push	 916			; 00000394H
  000a1	8b 85 48 ff ff
	ff		 mov	 eax, DWORD PTR $T26[ebp]
  000a7	50		 push	 eax
  000a8	e8 00 00 00 00	 call	 ??3@YAXPAXI@Z		; operator delete
  000ad	83 c4 08	 add	 esp, 8
  000b0	c3		 ret	 0
__unwindfunclet$?LoadItemBag@@YAXXZ$9:
  000b1	68 94 03 00 00	 push	 916			; 00000394H
  000b6	8b 85 3c ff ff
	ff		 mov	 eax, DWORD PTR $T23[ebp]
  000bc	50		 push	 eax
  000bd	e8 00 00 00 00	 call	 ??3@YAXPAXI@Z		; operator delete
  000c2	83 c4 08	 add	 esp, 8
  000c5	c3		 ret	 0
__unwindfunclet$?LoadItemBag@@YAXXZ$10:
  000c6	68 94 03 00 00	 push	 916			; 00000394H
  000cb	8b 85 30 ff ff
	ff		 mov	 eax, DWORD PTR $T20[ebp]
  000d1	50		 push	 eax
  000d2	e8 00 00 00 00	 call	 ??3@YAXPAXI@Z		; operator delete
  000d7	83 c4 08	 add	 esp, 8
  000da	c3		 ret	 0
__unwindfunclet$?LoadItemBag@@YAXXZ$11:
  000db	68 94 03 00 00	 push	 916			; 00000394H
  000e0	8b 85 24 ff ff
	ff		 mov	 eax, DWORD PTR $T17[ebp]
  000e6	50		 push	 eax
  000e7	e8 00 00 00 00	 call	 ??3@YAXPAXI@Z		; operator delete
  000ec	83 c4 08	 add	 esp, 8
  000ef	c3		 ret	 0
__unwindfunclet$?LoadItemBag@@YAXXZ$12:
  000f0	68 94 03 00 00	 push	 916			; 00000394H
  000f5	8b 85 18 ff ff
	ff		 mov	 eax, DWORD PTR $T14[ebp]
  000fb	50		 push	 eax
  000fc	e8 00 00 00 00	 call	 ??3@YAXPAXI@Z		; operator delete
  00101	83 c4 08	 add	 esp, 8
  00104	c3		 ret	 0
__unwindfunclet$?LoadItemBag@@YAXXZ$13:
  00105	68 94 03 00 00	 push	 916			; 00000394H
  0010a	8b 85 0c ff ff
	ff		 mov	 eax, DWORD PTR $T11[ebp]
  00110	50		 push	 eax
  00111	e8 00 00 00 00	 call	 ??3@YAXPAXI@Z		; operator delete
  00116	83 c4 08	 add	 esp, 8
  00119	c3		 ret	 0
__unwindfunclet$?LoadItemBag@@YAXXZ$14:
  0011a	68 94 03 00 00	 push	 916			; 00000394H
  0011f	8b 85 00 ff ff
	ff		 mov	 eax, DWORD PTR $T8[ebp]
  00125	50		 push	 eax
  00126	e8 00 00 00 00	 call	 ??3@YAXPAXI@Z		; operator delete
  0012b	83 c4 08	 add	 esp, 8
  0012e	c3		 ret	 0
__unwindfunclet$?LoadItemBag@@YAXXZ$15:
  0012f	68 94 03 00 00	 push	 916			; 00000394H
  00134	8b 85 f4 fe ff
	ff		 mov	 eax, DWORD PTR $T5[ebp]
  0013a	50		 push	 eax
  0013b	e8 00 00 00 00	 call	 ??3@YAXPAXI@Z		; operator delete
  00140	83 c4 08	 add	 esp, 8
  00143	c3		 ret	 0
__unwindfunclet$?LoadItemBag@@YAXXZ$16:
  00144	68 d8 05 00 00	 push	 1496			; 000005d8H
  00149	8b 85 e8 fe ff
	ff		 mov	 eax, DWORD PTR $T2[ebp]
  0014f	50		 push	 eax
  00150	e8 00 00 00 00	 call	 ??3@YAXPAXI@Z		; operator delete
  00155	83 c4 08	 add	 esp, 8
  00158	c3		 ret	 0
  00159	cc		 int	 3
  0015a	cc		 int	 3
  0015b	cc		 int	 3
  0015c	cc		 int	 3
  0015d	cc		 int	 3
__ehhandler$?LoadItemBag@@YAXXZ:
  0015e	90		 npad	 1
  0015f	90		 npad	 1
  00160	8b 54 24 08	 mov	 edx, DWORD PTR [esp+8]
  00164	8d 42 0c	 lea	 eax, DWORD PTR [edx+12]
  00167	8b 8a e0 fe ff
	ff		 mov	 ecx, DWORD PTR [edx-288]
  0016d	33 c8		 xor	 ecx, eax
  0016f	e8 00 00 00 00	 call	 @__security_check_cookie@4
  00174	b8 00 00 00 00	 mov	 eax, OFFSET __ehfuncinfo$?LoadItemBag@@YAXXZ
  00179	e9 00 00 00 00	 jmp	 ___CxxFrameHandler3
text$x	ENDS
?LoadItemBag@@YAXXZ ENDP				; LoadItemBag
; Function compile flags: /Odtp /ZI
; File C:\Mu Online\Mu-GS-Webzen-MC-10093\GameServer\Gamemain.cpp
;	COMDAT ?CheckSumFileLoad@@YAXPAD@Z
_TEXT	SEGMENT
_fp$ = -4						; size = 4
_name$ = 8						; size = 4
?CheckSumFileLoad@@YAXPAD@Z PROC			; CheckSumFileLoad, COMDAT

; 4824 : {

  00000	55		 push	 ebp
  00001	8b ec		 mov	 ebp, esp
  00003	83 ec 44	 sub	 esp, 68			; 00000044H
  00006	53		 push	 ebx
  00007	56		 push	 esi
  00008	57		 push	 edi

; 4825 : #ifdef AUTH_GAMESERVER
; 4826 : 	gGameServerAuth.RequestData(FILE_CHECKSUM);
; 4827 : 	int DataBufferSize = gGameServerAuth.GetDataBufferSize();
; 4828 : 	char* DataBuffer = gGameServerAuth.GetDataBuffer();	
; 4829 : 	memcpy((char*)dwgCheckSum, DataBuffer, DataBufferSize);
; 4830 : #else
; 4831 : 	FILE * fp;
; 4832 : 
; 4833 : 	fp = fopen(name, "rb");

  00009	68 00 00 00 00	 push	 OFFSET ??_C@_02JDPG@rb@
  0000e	8b 45 08	 mov	 eax, DWORD PTR _name$[ebp]
  00011	50		 push	 eax
  00012	e8 00 00 00 00	 call	 _fopen
  00017	83 c4 08	 add	 esp, 8
  0001a	89 45 fc	 mov	 DWORD PTR _fp$[ebp], eax

; 4834 : 	if( fp == NULL )

  0001d	83 7d fc 00	 cmp	 DWORD PTR _fp$[ebp], 0
  00021	75 13		 jne	 SHORT $LN2@CheckSumFi

; 4835 : 	{
; 4836 : 		MsgBox("%s file not found", name);

  00023	8b 45 08	 mov	 eax, DWORD PTR _name$[ebp]
  00026	50		 push	 eax
  00027	68 00 00 00 00	 push	 OFFSET ??_C@_0BC@JAIHNJEB@?$CFs?5file?5not?5found@
  0002c	e8 00 00 00 00	 call	 ?MsgBox@@YAXPADZZ	; MsgBox
  00031	83 c4 08	 add	 esp, 8

; 4837 : 		return;

  00034	eb 24		 jmp	 SHORT $LN1@CheckSumFi
$LN2@CheckSumFi:

; 4838 : 	}
; 4839 : 	fread( dwgCheckSum, 1024 * sizeof ( DWORD), 1, fp);

  00036	8b 45 fc	 mov	 eax, DWORD PTR _fp$[ebp]
  00039	50		 push	 eax
  0003a	6a 01		 push	 1
  0003c	68 00 10 00 00	 push	 4096			; 00001000H
  00041	68 00 00 00 00	 push	 OFFSET ?dwgCheckSum@@3PAKA ; dwgCheckSum
  00046	e8 00 00 00 00	 call	 _fread
  0004b	83 c4 10	 add	 esp, 16			; 00000010H

; 4840 : 	fclose(fp);

  0004e	8b 45 fc	 mov	 eax, DWORD PTR _fp$[ebp]
  00051	50		 push	 eax
  00052	e8 00 00 00 00	 call	 _fclose
  00057	83 c4 04	 add	 esp, 4
$LN1@CheckSumFi:

; 4841 : #endif
; 4842 : }

  0005a	5f		 pop	 edi
  0005b	5e		 pop	 esi
  0005c	5b		 pop	 ebx
  0005d	8b e5		 mov	 esp, ebp
  0005f	5d		 pop	 ebp
  00060	c3		 ret	 0
?CheckSumFileLoad@@YAXPAD@Z ENDP			; CheckSumFileLoad
_TEXT	ENDS
; Function compile flags: /Odtp /ZI
; File C:\Mu Online\Mu-GS-Webzen-MC-10093\GameServer\Gamemain.cpp
;	COMDAT ?ReadServerInfo@@YAXXZ
_TEXT	SEGMENT
?ReadServerInfo@@YAXXZ PROC				; ReadServerInfo, COMDAT

; 2684 : {

  00000	55		 push	 ebp
  00001	8b ec		 mov	 ebp, esp
  00003	83 ec 40	 sub	 esp, 64			; 00000040H
  00006	53		 push	 ebx
  00007	56		 push	 esi
  00008	57		 push	 edi

; 2685 : 	if( IsFile(".\\data\\Serverinfo.dat") == FALSE )

  00009	68 00 00 00 00	 push	 OFFSET ??_C@_0BG@KBGGHHPK@?4?2data?2Serverinfo?4dat@
  0000e	e8 00 00 00 00	 call	 ?IsFile@@YAHPAD@Z	; IsFile
  00013	83 c4 04	 add	 esp, 4
  00016	85 c0		 test	 eax, eax
  00018	75 0d		 jne	 SHORT $LN2@ReadServer

; 2686 : 	{
; 2687 : 		MsgBox("ServerInfo.dat file not found");

  0001a	68 00 00 00 00	 push	 OFFSET ??_C@_0BO@CFKIHFKN@ServerInfo?4dat?5file?5not?5found@
  0001f	e8 00 00 00 00	 call	 ?MsgBox@@YAXPADZZ	; MsgBox
  00024	83 c4 04	 add	 esp, 4
$LN2@ReadServer:

; 2688 : 	}
; 2689 : 	GetPrivateProfileString("GameServerInfo", "ServerName", "", szServerName, 50, ".\\data\\Serverinfo.dat");

  00027	68 00 00 00 00	 push	 OFFSET ??_C@_0BG@KBGGHHPK@?4?2data?2Serverinfo?4dat@
  0002c	6a 32		 push	 50			; 00000032H
  0002e	68 00 00 00 00	 push	 OFFSET ?szServerName@@3PADA ; szServerName
  00033	68 00 00 00 00	 push	 OFFSET ??_C@_00CNPNBAHC@@
  00038	68 00 00 00 00	 push	 OFFSET ??_C@_0L@FFDIDHBB@ServerName@
  0003d	68 00 00 00 00	 push	 OFFSET ??_C@_0P@EMJDPFDH@GameServerInfo@
  00042	ff 15 00 00 00
	00		 call	 DWORD PTR __imp__GetPrivateProfileStringA@24

; 2690 : 	gGameServerCode = GetPrivateProfileInt("GameServerInfo", "ServerCode", 0, ".\\data\\Serverinfo.dat");

  00048	68 00 00 00 00	 push	 OFFSET ??_C@_0BG@KBGGHHPK@?4?2data?2Serverinfo?4dat@
  0004d	6a 00		 push	 0
  0004f	68 00 00 00 00	 push	 OFFSET ??_C@_0L@ECKGLPBM@ServerCode@
  00054	68 00 00 00 00	 push	 OFFSET ??_C@_0P@EMJDPFDH@GameServerInfo@
  00059	ff 15 00 00 00
	00		 call	 DWORD PTR __imp__GetPrivateProfileIntA@16
  0005f	66 a3 00 00 00
	00		 mov	 WORD PTR ?gGameServerCode@@3FA, ax ; gGameServerCode

; 2691 : 	bCanConnectMember = GetPrivateProfileInt("GameServerInfo", "ConnectMemberLoad", 0, ".\\data\\Serverinfo.dat");

  00065	68 00 00 00 00	 push	 OFFSET ??_C@_0BG@KBGGHHPK@?4?2data?2Serverinfo?4dat@
  0006a	6a 00		 push	 0
  0006c	68 00 00 00 00	 push	 OFFSET ??_C@_0BC@GLFLPKEG@ConnectMemberLoad@
  00071	68 00 00 00 00	 push	 OFFSET ??_C@_0P@EMJDPFDH@GameServerInfo@
  00076	ff 15 00 00 00
	00		 call	 DWORD PTR __imp__GetPrivateProfileIntA@16
  0007c	a3 00 00 00 00	 mov	 DWORD PTR ?bCanConnectMember@@3HA, eax ; bCanConnectMember

; 2692 : 
; 2693 : #ifdef UPDATE_CHANGE_CHARACTERNAME_20080410	//   
; 2694 : 	g_bChangeCharacterName	= GetPrivateProfileInt("GameServerInfo", "ChangeCharacterName", 0, ".\\data\\Serverinfo.dat");
; 2695 : #endif	// UPDATE_CHANGE_CHARACTERNAME_20080410
; 2696 : }

  00081	5f		 pop	 edi
  00082	5e		 pop	 esi
  00083	5b		 pop	 ebx
  00084	8b e5		 mov	 esp, ebp
  00086	5d		 pop	 ebp
  00087	c3		 ret	 0
?ReadServerInfo@@YAXXZ ENDP				; ReadServerInfo
_TEXT	ENDS
; Function compile flags: /Odtp /ZI
; File C:\Mu Online\Mu-GS-Webzen-MC-10093\GameServer\Gamemain.cpp
;	COMDAT ?GameMonsterAllAdd@@YAXXZ
_TEXT	SEGMENT
tv161 = -80						; size = 4
tv131 = -80						; size = 4
tv81 = -80						; size = 4
tv162 = -76						; size = 4
tv132 = -76						; size = 4
tv82 = -76						; size = 4
_n$1 = -8						; size = 4
_result$ = -4						; size = 4
?GameMonsterAllAdd@@YAXXZ PROC				; GameMonsterAllAdd, COMDAT

; 2027 : {

  00000	55		 push	 ebp
  00001	8b ec		 mov	 ebp, esp
  00003	83 ec 50	 sub	 esp, 80			; 00000050H
  00006	53		 push	 ebx
  00007	56		 push	 esi
  00008	57		 push	 edi

; 2028 : 	int result;
; 2029 : 
; 2030 : 	gCurPaintPlayer = 0;

  00009	c7 05 00 00 00
	00 00 00 00 00	 mov	 DWORD PTR ?gCurPaintPlayer@@3HA, 0 ; gCurPaintPlayer

; 2031 : 	for( int n=0; n<gMSetBase.m_Count; n++)

  00013	c7 45 f8 00 00
	00 00		 mov	 DWORD PTR _n$1[ebp], 0
  0001a	eb 09		 jmp	 SHORT $LN4@GameMonste
$LN2@GameMonste:
  0001c	8b 45 f8	 mov	 eax, DWORD PTR _n$1[ebp]
  0001f	83 c0 01	 add	 eax, 1
  00022	89 45 f8	 mov	 DWORD PTR _n$1[ebp], eax
$LN4@GameMonste:
  00025	8b 45 f8	 mov	 eax, DWORD PTR _n$1[ebp]
  00028	3b 05 e4 0f 01
	00		 cmp	 eax, DWORD PTR ?gMSetBase@@3VCMonsterSetBase@@A+69604
  0002e	0f 8d b9 01 00
	00		 jge	 $LN3@GameMonste

; 2032 : 	{
; 2033 : #ifdef FOR_BLOODCASTLE
; 2034 : 		
; 2035 : #ifdef DEVILSQUARE_EXTEND_20050221		//    
; 2036 : 		if( CHECK_DEVILSQUARE(gMSetBase.m_Mp[n].m_MapNumber) )
; 2037 : #else
; 2038 : 		if (gMSetBase.m_Mp[n].m_MapNumber == 9 )	//    .

  00034	6b 45 f8 0c	 imul	 eax, DWORD PTR _n$1[ebp], 12
  00038	0f b6 88 08 00
	00 00		 movzx	 ecx, BYTE PTR ?gMSetBase@@3VCMonsterSetBase@@A[eax+8]
  0003f	83 f9 09	 cmp	 ecx, 9
  00042	75 02		 jne	 SHORT $LN5@GameMonste

; 2039 : #endif
; 2040 : 			continue;

  00044	eb d6		 jmp	 SHORT $LN2@GameMonste
$LN5@GameMonste:

; 2041 : 
; 2042 : 		if (CHECK_BLOODCASTLE(gMSetBase.m_Mp[n].m_MapNumber))	//   . (  )

  00046	6b 45 f8 0c	 imul	 eax, DWORD PTR _n$1[ebp], 12
  0004a	0f b6 88 08 00
	00 00		 movzx	 ecx, BYTE PTR ?gMSetBase@@3VCMonsterSetBase@@A[eax+8]
  00051	83 f9 0b	 cmp	 ecx, 11			; 0000000bH
  00054	7d 09		 jge	 SHORT $LN18@GameMonste
  00056	c7 45 b4 00 00
	00 00		 mov	 DWORD PTR tv82[ebp], 0
  0005d	eb 26		 jmp	 SHORT $LN19@GameMonste
$LN18@GameMonste:
  0005f	6b 55 f8 0c	 imul	 edx, DWORD PTR _n$1[ebp], 12
  00063	0f b6 82 08 00
	00 00		 movzx	 eax, BYTE PTR ?gMSetBase@@3VCMonsterSetBase@@A[edx+8]
  0006a	83 f8 11	 cmp	 eax, 17			; 00000011H
  0006d	7e 09		 jle	 SHORT $LN16@GameMonste
  0006f	c7 45 b0 00 00
	00 00		 mov	 DWORD PTR tv81[ebp], 0
  00076	eb 07		 jmp	 SHORT $LN17@GameMonste
$LN16@GameMonste:
  00078	c7 45 b0 01 00
	00 00		 mov	 DWORD PTR tv81[ebp], 1
$LN17@GameMonste:
  0007f	8b 4d b0	 mov	 ecx, DWORD PTR tv81[ebp]
  00082	89 4d b4	 mov	 DWORD PTR tv82[ebp], ecx
$LN19@GameMonste:
  00085	83 7d b4 00	 cmp	 DWORD PTR tv82[ebp], 0
  00089	74 18		 je	 SHORT $LN6@GameMonste

; 2043 : 		{
; 2044 : 			if (gMSetBase.m_Mp[n].m_Type != 232)

  0008b	6b 45 f8 0c	 imul	 eax, DWORD PTR _n$1[ebp], 12
  0008f	0f b7 88 06 00
	00 00		 movzx	 ecx, WORD PTR ?gMSetBase@@3VCMonsterSetBase@@A[eax+6]
  00096	81 f9 e8 00 00
	00		 cmp	 ecx, 232		; 000000e8H
  0009c	74 05		 je	 SHORT $LN6@GameMonste

; 2045 : 				continue;

  0009e	e9 79 ff ff ff	 jmp	 $LN2@GameMonste
$LN6@GameMonste:

; 2046 : 		}
; 2047 : 
; 2048 : #ifdef CHAOSCASTLE_SYSTEM_20040408					//      
; 2049 : 		if (CHECK_CHAOSCASTLE(gMSetBase.m_Mp[n].m_MapNumber))	//   .

  000a3	6b 45 f8 0c	 imul	 eax, DWORD PTR _n$1[ebp], 12
  000a7	0f b6 88 08 00
	00 00		 movzx	 ecx, BYTE PTR ?gMSetBase@@3VCMonsterSetBase@@A[eax+8]
  000ae	83 f9 12	 cmp	 ecx, 18			; 00000012H
  000b1	7d 09		 jge	 SHORT $LN22@GameMonste
  000b3	c7 45 b4 00 00
	00 00		 mov	 DWORD PTR tv132[ebp], 0
  000ba	eb 26		 jmp	 SHORT $LN23@GameMonste
$LN22@GameMonste:
  000bc	6b 55 f8 0c	 imul	 edx, DWORD PTR _n$1[ebp], 12
  000c0	0f b6 82 08 00
	00 00		 movzx	 eax, BYTE PTR ?gMSetBase@@3VCMonsterSetBase@@A[edx+8]
  000c7	83 f8 17	 cmp	 eax, 23			; 00000017H
  000ca	7e 09		 jle	 SHORT $LN20@GameMonste
  000cc	c7 45 b0 00 00
	00 00		 mov	 DWORD PTR tv131[ebp], 0
  000d3	eb 07		 jmp	 SHORT $LN21@GameMonste
$LN20@GameMonste:
  000d5	c7 45 b0 01 00
	00 00		 mov	 DWORD PTR tv131[ebp], 1
$LN21@GameMonste:
  000dc	8b 4d b0	 mov	 ecx, DWORD PTR tv131[ebp]
  000df	89 4d b4	 mov	 DWORD PTR tv132[ebp], ecx
$LN23@GameMonste:
  000e2	83 7d b4 00	 cmp	 DWORD PTR tv132[ebp], 0
  000e6	74 05		 je	 SHORT $LN8@GameMonste

; 2050 : 		{
; 2051 : 			continue;

  000e8	e9 2f ff ff ff	 jmp	 $LN2@GameMonste
$LN8@GameMonste:

; 2052 : 		}
; 2053 : #endif
; 2054 : 
; 2055 : #ifdef ADD_EVENT_MAP_ILLUSION_TEMPLE_20070328		//     
; 2056 : 		if (CHECK_ILLUSION_TEMPLE(gMSetBase.m_Mp[n].m_MapNumber))
; 2057 : 		{
; 2058 : 			//    
; 2059 : 			if (gMSetBase.m_Mp[n].m_Type != NPC_LEADER_OF_ALLIED_FORCE		//  
; 2060 : 				&& gMSetBase.m_Mp[n].m_Type != NPC_ELDER_OF_ILLUSION)		//  
; 2061 : 			{
; 2062 : 				if(gMSetBase.m_Mp[n].m_Type == NPC_ILLUSION_HOLY_RELICS_STATUE		// NPC
; 2063 : 					|| gMSetBase.m_Mp[n].m_Type == NPC_HOLY_RELICS_BOX_ALLIED
; 2064 : 					|| gMSetBase.m_Mp[n].m_Type == NPC_HOLY_RELICS_BOX_ILLUSION)
; 2065 : 				{
; 2066 : 					g_IllusionTempleEvent.AddNpcPosNum(gMSetBase.m_Mp[n].m_MapNumber, gMSetBase.m_Mp[n].m_Type, n);
; 2067 : 				}
; 2068 : 				else if(gMSetBase.m_Mp[n].m_Type >= MON_GHOST_OF_ILLUSION_BROTHERHOOD_A1	 // Monster
; 2069 : 					|| gMSetBase.m_Mp[n].m_Type <= MON_GHOST_OF_ILLUSION_BROTHERHOOD_C6)
; 2070 : 				{
; 2071 : 					g_IllusionTempleEvent.AddMonsterPosNum(gMSetBase.m_Mp[n].m_MapNumber, gMSetBase.m_Mp[n].m_Type, n);
; 2072 : 				}
; 2073 : 
; 2074 : 				
; 2075 : 				continue;
; 2076 : 			}
; 2077 : 		}
; 2078 : #endif
; 2079 : 		
; 2080 : #ifdef MAP_SERVER_ADD_MONSTER_20041216		//   , NPC  (     .)
; 2081 : 		result = gObjAddMonster(gMSetBase.m_Mp[n].m_MapNumber);

  000ed	6b 45 f8 0c	 imul	 eax, DWORD PTR _n$1[ebp], 12
  000f1	0f b6 88 08 00
	00 00		 movzx	 ecx, BYTE PTR ?gMSetBase@@3VCMonsterSetBase@@A[eax+8]
  000f8	51		 push	 ecx
  000f9	e8 00 00 00 00	 call	 ?gObjAddMonster@@YAFH@Z	; gObjAddMonster
  000fe	83 c4 04	 add	 esp, 4
  00101	0f bf d0	 movsx	 edx, ax
  00104	89 55 fc	 mov	 DWORD PTR _result$[ebp], edx

; 2082 : #else
; 2083 : 		result = gObjAdd();
; 2084 : #endif
; 2085 : 	
; 2086 : 		if( result >= 0 )

  00107	83 7d fc 00	 cmp	 DWORD PTR _result$[ebp], 0
  0010b	0f 8c d7 00 00
	00		 jl	 $LN9@GameMonste

; 2087 : 		{
; 2088 : 			gObjSetPosMonster(result, n);

  00111	8b 45 f8	 mov	 eax, DWORD PTR _n$1[ebp]
  00114	50		 push	 eax
  00115	8b 4d fc	 mov	 ecx, DWORD PTR _result$[ebp]
  00118	51		 push	 ecx
  00119	e8 00 00 00 00	 call	 ?gObjSetPosMonster@@YAHHH@Z ; gObjSetPosMonster
  0011e	83 c4 08	 add	 esp, 8

; 2089 : 			gObjSetMonster(result, gMSetBase.m_Mp[n].m_Type);

  00121	6b 45 f8 0c	 imul	 eax, DWORD PTR _n$1[ebp], 12
  00125	0f b7 88 06 00
	00 00		 movzx	 ecx, WORD PTR ?gMSetBase@@3VCMonsterSetBase@@A[eax+6]
  0012c	51		 push	 ecx
  0012d	8b 55 fc	 mov	 edx, DWORD PTR _result$[ebp]
  00130	52		 push	 edx
  00131	e8 00 00 00 00	 call	 ?gObjSetMonster@@YAHHH@Z ; gObjSetMonster
  00136	83 c4 08	 add	 esp, 8

; 2090 : 			gCurPaintPlayer++;

  00139	a1 00 00 00 00	 mov	 eax, DWORD PTR ?gCurPaintPlayer@@3HA ; gCurPaintPlayer
  0013e	83 c0 01	 add	 eax, 1
  00141	a3 00 00 00 00	 mov	 DWORD PTR ?gCurPaintPlayer@@3HA, eax ; gCurPaintPlayer

; 2091 : 
; 2092 : 			//        .
; 2093 : 			if (CHECK_BLOODCASTLE(gObj[result].MapNumber) && (gObj[result].Class == 232)) {

  00146	69 45 fc a0 1b
	00 00		 imul	 eax, DWORD PTR _result$[ebp], 7072
  0014d	8b 0d 00 00 00
	00		 mov	 ecx, DWORD PTR ?gObj@@3PAVOBJECTSTRUCT@@A ; gObj
  00153	0f b6 94 01 09
	01 00 00	 movzx	 edx, BYTE PTR [ecx+eax+265]
  0015b	83 fa 0b	 cmp	 edx, 11			; 0000000bH
  0015e	7d 09		 jge	 SHORT $LN26@GameMonste
  00160	c7 45 b4 00 00
	00 00		 mov	 DWORD PTR tv162[ebp], 0
  00167	eb 30		 jmp	 SHORT $LN27@GameMonste
$LN26@GameMonste:
  00169	69 45 fc a0 1b
	00 00		 imul	 eax, DWORD PTR _result$[ebp], 7072
  00170	8b 0d 00 00 00
	00		 mov	 ecx, DWORD PTR ?gObj@@3PAVOBJECTSTRUCT@@A ; gObj
  00176	0f b6 94 01 09
	01 00 00	 movzx	 edx, BYTE PTR [ecx+eax+265]
  0017e	83 fa 11	 cmp	 edx, 17			; 00000011H
  00181	7e 09		 jle	 SHORT $LN24@GameMonste
  00183	c7 45 b0 00 00
	00 00		 mov	 DWORD PTR tv161[ebp], 0
  0018a	eb 07		 jmp	 SHORT $LN25@GameMonste
$LN24@GameMonste:
  0018c	c7 45 b0 01 00
	00 00		 mov	 DWORD PTR tv161[ebp], 1
$LN25@GameMonste:
  00193	8b 45 b0	 mov	 eax, DWORD PTR tv161[ebp]
  00196	89 45 b4	 mov	 DWORD PTR tv162[ebp], eax
$LN27@GameMonste:
  00199	83 7d b4 00	 cmp	 DWORD PTR tv162[ebp], 0
  0019d	74 49		 je	 SHORT $LN9@GameMonste
  0019f	69 45 fc a0 1b
	00 00		 imul	 eax, DWORD PTR _result$[ebp], 7072
  001a6	8b 0d 00 00 00
	00		 mov	 ecx, DWORD PTR ?gObj@@3PAVOBJECTSTRUCT@@A ; gObj
  001ac	0f b7 94 01 9c
	00 00 00	 movzx	 edx, WORD PTR [ecx+eax+156]
  001b4	81 fa e8 00 00
	00		 cmp	 edx, 232		; 000000e8H
  001ba	75 2c		 jne	 SHORT $LN9@GameMonste

; 2094 : #ifdef ADD_BLOODCASTLE_FOR_MASTER_LEVEL_20071010	//    
; 2095 : 				gObj[result].m_cBloodCastleIndex = g_BloodCastle.GetBridgeIndexByMapNum( gObj[result].MapNumber );
; 2096 : #else
; 2097 : 				gObj[result].m_cBloodCastleIndex = gObj[result].MapNumber - MAP_INDEX_BLOODCASTLE1;

  001bc	69 45 fc a0 1b
	00 00		 imul	 eax, DWORD PTR _result$[ebp], 7072
  001c3	8b 0d 00 00 00
	00		 mov	 ecx, DWORD PTR ?gObj@@3PAVOBJECTSTRUCT@@A ; gObj
  001c9	0f b6 94 01 09
	01 00 00	 movzx	 edx, BYTE PTR [ecx+eax+265]
  001d1	83 ea 0b	 sub	 edx, 11			; 0000000bH
  001d4	69 45 fc a0 1b
	00 00		 imul	 eax, DWORD PTR _result$[ebp], 7072
  001db	8b 0d 00 00 00
	00		 mov	 ecx, DWORD PTR ?gObj@@3PAVOBJECTSTRUCT@@A ; gObj
  001e1	88 94 01 d2 0c
	00 00		 mov	 BYTE PTR [ecx+eax+3282], dl
$LN9@GameMonste:

; 2098 : #endif
; 2099 : 			}
; 2100 : 
; 2101 : #ifdef CASTLE_MAIN_SCHEDULER_20041111				//   .
; 2102 : 			if (gObj[result].Class == 216) {
; 2103 : 				g_CastleSiege.SetCrownIndex (result);
; 2104 : 			}
; 2105 : #endif
; 2106 : 
; 2107 : #ifdef CRYWOLF_NPC_WORK_20050912
; 2108 : 			
; 2109 : 			if( CHECK_CRYWOLF_FIRSTZONE(gObj[result].MapNumber) 
; 2110 : 				&& gObj[result].Type == OBJTYPE_NPC 
; 2111 : 			  )
; 2112 : 			{
; 2113 : #ifdef THIRD_CHANGEUP_SYSTEM_20070507	// 3 NPC  NPC .
; 2114 : 				if( gObj[result].Class == 406		//  
; 2115 : 					|| gObj[result].Class == 407	//  
; 2116 : 					)
; 2117 : 				{
; 2118 : 					// .
; 2119 : 				}
; 2120 : 				else
; 2121 : #endif				
; 2122 : 				//   NPC .	- , 
; 2123 : 				if( CHECK_CRYWOLF_SPECIAL_NPC( gObj[result].Class ) )
; 2124 : 				{
; 2125 : 					g_Crywolf.m_ObjSpecialNPC.AddObj( result );
; 2126 : 				}
; 2127 : 				//   NPC .	
; 2128 : 				else
; 2129 : 				{
; 2130 : 					g_Crywolf.m_ObjCommonNPC.AddObj( result );
; 2131 : 				}
; 2132 : 			}
; 2133 : #endif
; 2134 : 
; 2135 : #ifdef CRYWOLF_MONSTER_WORK_20050914
; 2136 : 			if( CHECK_CRYWOLF_FIRSTZONE(gObj[result].MapNumber) 
; 2137 : 				&& gObj[result].Type == OBJTYPE_MONSTER
; 2138 : 			  )
; 2139 : 			{
; 2140 : 				//   MONSTER .
; 2141 : 				g_Crywolf.m_ObjCommonMonster.AddObj( result );
; 2142 : 			}
; 2143 : #endif
; 2144 : 			
; 2145 : 		}
; 2146 : 
; 2147 : #else
; 2148 : #ifdef DEVILSQUARE_EXTEND_20050221		//    
; 2149 : 		if( !CHECK_DEVILSQUARE(gMSetBase.m_Mp[n].m_MapNumber) )
; 2150 : #else
; 2151 : 		if( gMSetBase.m_Mp[n].m_MapNumber != 9 )	//     ??
; 2152 : #endif
; 2153 : 		{
; 2154 : 			result = gObjAdd();
; 2155 : 		
; 2156 : 			if( result >= 0 )
; 2157 : 			{
; 2158 : 				gObjSetPosMonster(result, n);
; 2159 : 				gObjSetMonster(result, gMSetBase.m_Mp[n].m_Type);
; 2160 : 				gCurPaintPlayer++;
; 2161 : 			}
; 2162 : 		}
; 2163 : #endif
; 2164 : 	}

  001e8	e9 2f fe ff ff	 jmp	 $LN2@GameMonste
$LN3@GameMonste:

; 2165 : 
; 2166 : #ifdef ADD_NEW_MONSTER_SYSTEM_02_20050725
; 2167 : 	//       .
; 2168 : //	TMonsterAIGroup::InitAll();
; 2169 : #endif // ADD_NEW_MONSTER_SYSTEM_02_20050725
; 2170 : 
; 2171 : 
; 2172 : 	
; 2173 : #ifdef GAMESERVER_TO_CASTLESIEGESERVER	//    , , ,   .
; 2174 : 	gDevilSquareEvent	= FALSE;
; 2175 : 	g_bChaosCastle		= FALSE;
; 2176 : #ifdef ADD_RAKLION_20080408
; 2177 : 	g_bRaklionEvent		= FALSE;
; 2178 : #endif // ADD_RAKLION_20080408
; 2179 : #endif	
; 2180 : 	
; 2181 : #if TESTSERVER == 1		//    &     
; 2182 : //	g_bChaosCastle		= TRUE;
; 2183 : #endif
; 2184 : 
; 2185 : 	g_DevilSquare.Init();

  001ed	b9 00 00 00 00	 mov	 ecx, OFFSET ?g_DevilSquare@@3VCDevilSquare@@A ; g_DevilSquare
  001f2	e8 00 00 00 00	 call	 ?Init@CDevilSquare@@QAEXXZ ; CDevilSquare::Init

; 2186 : 
; 2187 : #ifdef FOR_BLOODCASTLE
; 2188 : 	g_BloodCastle.LoadItemDropRate();

  001f7	b9 00 00 00 00	 mov	 ecx, OFFSET ?g_BloodCastle@@3VCBloodCastle@@A ; g_BloodCastle
  001fc	e8 00 00 00 00	 call	 ?LoadItemDropRate@CBloodCastle@@QAEXXZ ; CBloodCastle::LoadItemDropRate

; 2189 : 
; 2190 : #ifdef GAMESERVER_TO_CASTLESIEGESERVER	//    , , ,   .
; 2191 : 	g_bBloodCastle		= FALSE;
; 2192 : #endif	
; 2193 : 	
; 2194 : 	if(g_bBloodCastle) {

  00201	83 3d 00 00 00
	00 00		 cmp	 DWORD PTR ?g_bBloodCastle@@3HA, 0 ; g_bBloodCastle
  00208	74 0e		 je	 SHORT $LN11@GameMonste

; 2195 : 		g_BloodCastle.Init();

  0020a	6a 01		 push	 1
  0020c	b9 00 00 00 00	 mov	 ecx, OFFSET ?g_BloodCastle@@3VCBloodCastle@@A ; g_BloodCastle
  00211	e8 00 00 00 00	 call	 ?Init@CBloodCastle@@QAEX_N@Z ; CBloodCastle::Init

; 2196 : 	}

  00216	eb 0c		 jmp	 SHORT $LN12@GameMonste
$LN11@GameMonste:

; 2197 : 	else {
; 2198 : 		g_BloodCastle.Init(false);

  00218	6a 00		 push	 0
  0021a	b9 00 00 00 00	 mov	 ecx, OFFSET ?g_BloodCastle@@3VCBloodCastle@@A ; g_BloodCastle
  0021f	e8 00 00 00 00	 call	 ?Init@CBloodCastle@@QAEX_N@Z ; CBloodCastle::Init
$LN12@GameMonste:

; 2199 : 	}
; 2200 : #endif
; 2201 : 
; 2202 : #ifdef CHAOSCASTLE_SYSTEM_20040408
; 2203 : //	g_ChaosCastle.LoadItemDropRate();
; 2204 : 
; 2205 : 	if(g_bChaosCastle) {

  00224	83 3d 00 00 00
	00 00		 cmp	 DWORD PTR ?g_bChaosCastle@@3HA, 0 ; g_bChaosCastle
  0022b	74 0e		 je	 SHORT $LN13@GameMonste

; 2206 : 		g_ChaosCastle.Init();

  0022d	6a 01		 push	 1
  0022f	b9 00 00 00 00	 mov	 ecx, OFFSET ?g_ChaosCastle@@3VCChaosCastle@@A ; g_ChaosCastle
  00234	e8 00 00 00 00	 call	 ?Init@CChaosCastle@@QAEX_N@Z ; CChaosCastle::Init

; 2207 : 	}

  00239	eb 0c		 jmp	 SHORT $LN14@GameMonste
$LN13@GameMonste:

; 2208 : 	else {
; 2209 : 		g_ChaosCastle.Init(false);

  0023b	6a 00		 push	 0
  0023d	b9 00 00 00 00	 mov	 ecx, OFFSET ?g_ChaosCastle@@3VCChaosCastle@@A ; g_ChaosCastle
  00242	e8 00 00 00 00	 call	 ?Init@CChaosCastle@@QAEX_N@Z ; CChaosCastle::Init
$LN14@GameMonste:

; 2210 : 	}
; 2211 : #endif
; 2212 : 
; 2213 : #ifdef GAMESERVER_TO_CASTLESIEGESERVER	//   
; 2214 : #ifdef ADD_EVENT_MAP_ILLUSION_TEMPLE_20070328
; 2215 : 	g_bIllusionTampleEvent	= FALSE;
; 2216 : #endif
; 2217 : #endif
; 2218 : 	
; 2219 : #ifdef ADD_EVENT_MAP_ILLUSION_TEMPLE_20070328	//   
; 2220 : 	if(g_bIllusionTampleEvent)
; 2221 : 	{
; 2222 : 		g_IllusionTempleEvent.IllusionTempleEventInit();
; 2223 : 	}
; 2224 : #endif
; 2225 : 
; 2226 : 	g_PkClearSystem.Load(gDirPath.GetNewPath("PkClearSystem.cfg"));

  00247	68 00 00 00 00	 push	 OFFSET ??_C@_0BC@IPOGIFJE@PkClearSystem?4cfg@
  0024c	b9 00 00 00 00	 mov	 ecx, OFFSET ?gDirPath@@3VCDirPath@@A ; gDirPath
  00251	e8 00 00 00 00	 call	 ?GetNewPath@CDirPath@@QAEPADPAD@Z ; CDirPath::GetNewPath
  00256	50		 push	 eax
  00257	b9 00 00 00 00	 mov	 ecx, OFFSET ?g_PkClearSystem@@3VCPkClearSystem@@A ; g_PkClearSystem
  0025c	e8 00 00 00 00	 call	 ?Load@CPkClearSystem@@QAEHPAD@Z ; CPkClearSystem::Load

; 2227 : 	g_ResetSystem.Load(gDirPath.GetNewPath("ResetSystem.cfg"));

  00261	68 00 00 00 00	 push	 OFFSET ??_C@_0BA@NJMOGOCM@ResetSystem?4cfg@
  00266	b9 00 00 00 00	 mov	 ecx, OFFSET ?gDirPath@@3VCDirPath@@A ; gDirPath
  0026b	e8 00 00 00 00	 call	 ?GetNewPath@CDirPath@@QAEPADPAD@Z ; CDirPath::GetNewPath
  00270	50		 push	 eax
  00271	b9 00 00 00 00	 mov	 ecx, OFFSET ?g_ResetSystem@@3VCResetSystem@@A ; g_ResetSystem
  00276	e8 00 00 00 00	 call	 ?Load@CResetSystem@@QAEHPAD@Z ; CResetSystem::Load

; 2228 : 	g_BuffHelper.Load(gDirPath.GetNewPath("BuffHelperSystem.cfg"));

  0027b	68 00 00 00 00	 push	 OFFSET ??_C@_0BF@MNGCMCAL@BuffHelperSystem?4cfg@
  00280	b9 00 00 00 00	 mov	 ecx, OFFSET ?gDirPath@@3VCDirPath@@A ; gDirPath
  00285	e8 00 00 00 00	 call	 ?GetNewPath@CDirPath@@QAEPADPAD@Z ; CDirPath::GetNewPath
  0028a	50		 push	 eax
  0028b	b9 00 00 00 00	 mov	 ecx, OFFSET ?g_BuffHelper@@3VCBuffHelper@@A ; g_BuffHelper
  00290	e8 00 00 00 00	 call	 ?Load@CBuffHelper@@QAEHPAD@Z ; CBuffHelper::Load

; 2229 : 
; 2230 : #if 0
; 2231 : 	CreateThread(NULL, 0, CNewsSystem::Process, NULL, 0, NULL);
; 2232 : #endif
; 2233 : }

  00295	5f		 pop	 edi
  00296	5e		 pop	 esi
  00297	5b		 pop	 ebx
  00298	8b e5		 mov	 esp, ebp
  0029a	5d		 pop	 ebp
  0029b	c3		 ret	 0
?GameMonsterAllAdd@@YAXXZ ENDP				; GameMonsterAllAdd
_TEXT	ENDS
; Function compile flags: /Odtp /ZI
;	COMDAT ??__Fg_SimpleModulusSC@@YAXXZ
text$yd	SEGMENT
??__Fg_SimpleModulusSC@@YAXXZ PROC			; `dynamic atexit destructor for 'g_SimpleModulusSC'', COMDAT
  00000	55		 push	 ebp
  00001	8b ec		 mov	 ebp, esp
  00003	83 ec 40	 sub	 esp, 64			; 00000040H
  00006	53		 push	 ebx
  00007	56		 push	 esi
  00008	57		 push	 edi
  00009	b9 00 00 00 00	 mov	 ecx, OFFSET ?g_SimpleModulusSC@@3VCSimpleModulus@@A ; g_SimpleModulusSC
  0000e	e8 00 00 00 00	 call	 ??1CSimpleModulus@@UAE@XZ ; CSimpleModulus::~CSimpleModulus
  00013	5f		 pop	 edi
  00014	5e		 pop	 esi
  00015	5b		 pop	 ebx
  00016	8b e5		 mov	 esp, ebp
  00018	5d		 pop	 ebp
  00019	c3		 ret	 0
??__Fg_SimpleModulusSC@@YAXXZ ENDP			; `dynamic atexit destructor for 'g_SimpleModulusSC''
text$yd	ENDS
; Function compile flags: /Odtp /ZI
; File C:\Mu Online\Mu-GS-Webzen-MC-10093\GameServer\Gamemain.cpp
;	COMDAT ??__Eg_SimpleModulusSC@@YAXXZ
text$di	SEGMENT
??__Eg_SimpleModulusSC@@YAXXZ PROC			; `dynamic initializer for 'g_SimpleModulusSC'', COMDAT

; 1246 : CSimpleModulus g_SimpleModulusSC;

  00000	55		 push	 ebp
  00001	8b ec		 mov	 ebp, esp
  00003	83 ec 40	 sub	 esp, 64			; 00000040H
  00006	53		 push	 ebx
  00007	56		 push	 esi
  00008	57		 push	 edi
  00009	b9 00 00 00 00	 mov	 ecx, OFFSET ?g_SimpleModulusSC@@3VCSimpleModulus@@A ; g_SimpleModulusSC
  0000e	e8 00 00 00 00	 call	 ??0CSimpleModulus@@QAE@XZ ; CSimpleModulus::CSimpleModulus
  00013	68 00 00 00 00	 push	 OFFSET ??__Fg_SimpleModulusSC@@YAXXZ ; `dynamic atexit destructor for 'g_SimpleModulusSC''
  00018	e8 00 00 00 00	 call	 _atexit
  0001d	83 c4 04	 add	 esp, 4
  00020	5f		 pop	 edi
  00021	5e		 pop	 esi
  00022	5b		 pop	 ebx
  00023	8b e5		 mov	 esp, ebp
  00025	5d		 pop	 ebp
  00026	c3		 ret	 0
??__Eg_SimpleModulusSC@@YAXXZ ENDP			; `dynamic initializer for 'g_SimpleModulusSC''
text$di	ENDS
; Function compile flags: /Odtp /ZI
;	COMDAT ??__Fg_SimpleModulusCS@@YAXXZ
text$yd	SEGMENT
??__Fg_SimpleModulusCS@@YAXXZ PROC			; `dynamic atexit destructor for 'g_SimpleModulusCS'', COMDAT
  00000	55		 push	 ebp
  00001	8b ec		 mov	 ebp, esp
  00003	83 ec 40	 sub	 esp, 64			; 00000040H
  00006	53		 push	 ebx
  00007	56		 push	 esi
  00008	57		 push	 edi
  00009	b9 00 00 00 00	 mov	 ecx, OFFSET ?g_SimpleModulusCS@@3VCSimpleModulus@@A ; g_SimpleModulusCS
  0000e	e8 00 00 00 00	 call	 ??1CSimpleModulus@@UAE@XZ ; CSimpleModulus::~CSimpleModulus
  00013	5f		 pop	 edi
  00014	5e		 pop	 esi
  00015	5b		 pop	 ebx
  00016	8b e5		 mov	 esp, ebp
  00018	5d		 pop	 ebp
  00019	c3		 ret	 0
??__Fg_SimpleModulusCS@@YAXXZ ENDP			; `dynamic atexit destructor for 'g_SimpleModulusCS''
text$yd	ENDS
; Function compile flags: /Odtp /ZI
; File C:\Mu Online\Mu-GS-Webzen-MC-10093\GameServer\Gamemain.cpp
;	COMDAT ??__Eg_SimpleModulusCS@@YAXXZ
text$di	SEGMENT
??__Eg_SimpleModulusCS@@YAXXZ PROC			; `dynamic initializer for 'g_SimpleModulusCS'', COMDAT

; 1245 : CSimpleModulus g_SimpleModulusCS;

  00000	55		 push	 ebp
  00001	8b ec		 mov	 ebp, esp
  00003	83 ec 40	 sub	 esp, 64			; 00000040H
  00006	53		 push	 ebx
  00007	56		 push	 esi
  00008	57		 push	 edi
  00009	b9 00 00 00 00	 mov	 ecx, OFFSET ?g_SimpleModulusCS@@3VCSimpleModulus@@A ; g_SimpleModulusCS
  0000e	e8 00 00 00 00	 call	 ??0CSimpleModulus@@QAE@XZ ; CSimpleModulus::CSimpleModulus
  00013	68 00 00 00 00	 push	 OFFSET ??__Fg_SimpleModulusCS@@YAXXZ ; `dynamic atexit destructor for 'g_SimpleModulusCS''
  00018	e8 00 00 00 00	 call	 _atexit
  0001d	83 c4 04	 add	 esp, 4
  00020	5f		 pop	 edi
  00021	5e		 pop	 esi
  00022	5b		 pop	 ebx
  00023	8b e5		 mov	 esp, ebp
  00025	5d		 pop	 ebp
  00026	c3		 ret	 0
??__Eg_SimpleModulusCS@@YAXXZ ENDP			; `dynamic initializer for 'g_SimpleModulusCS''
text$di	ENDS
; Function compile flags: /Odtp /ZI
;	COMDAT ??__FgLCount@@YAXXZ
text$yd	SEGMENT
??__FgLCount@@YAXXZ PROC				; `dynamic atexit destructor for 'gLCount'', COMDAT
  00000	55		 push	 ebp
  00001	8b ec		 mov	 ebp, esp
  00003	83 ec 40	 sub	 esp, 64			; 00000040H
  00006	53		 push	 ebx
  00007	56		 push	 esi
  00008	57		 push	 edi
  00009	68 00 00 00 00	 push	 OFFSET ??1CLoginCount@@QAE@XZ ; CLoginCount::~CLoginCount
  0000e	6a 06		 push	 6
  00010	6a 04		 push	 4
  00012	68 00 00 00 00	 push	 OFFSET ?gLCount@@3PAVCLoginCount@@A ; gLCount
  00017	e8 00 00 00 00	 call	 ??_M@YGXPAXIIP6EX0@Z@Z
  0001c	5f		 pop	 edi
  0001d	5e		 pop	 esi
  0001e	5b		 pop	 ebx
  0001f	8b e5		 mov	 esp, ebp
  00021	5d		 pop	 ebp
  00022	c3		 ret	 0
??__FgLCount@@YAXXZ ENDP				; `dynamic atexit destructor for 'gLCount''
text$yd	ENDS
; Function compile flags: /Odtp /ZI
; File C:\Mu Online\Mu-GS-Webzen-MC-10093\GameServer\Gamemain.cpp
;	COMDAT ??__EgLCount@@YAXXZ
text$di	SEGMENT
??__EgLCount@@YAXXZ PROC				; `dynamic initializer for 'gLCount'', COMDAT

; 557  : CLoginCount	    gLCount[MAX_LOGIN_COUNT];

  00000	55		 push	 ebp
  00001	8b ec		 mov	 ebp, esp
  00003	83 ec 40	 sub	 esp, 64			; 00000040H
  00006	53		 push	 ebx
  00007	56		 push	 esi
  00008	57		 push	 edi
  00009	68 00 00 00 00	 push	 OFFSET ??1CLoginCount@@QAE@XZ ; CLoginCount::~CLoginCount
  0000e	68 00 00 00 00	 push	 OFFSET ??0CLoginCount@@QAE@XZ ; CLoginCount::CLoginCount
  00013	6a 06		 push	 6
  00015	6a 04		 push	 4
  00017	68 00 00 00 00	 push	 OFFSET ?gLCount@@3PAVCLoginCount@@A ; gLCount
  0001c	e8 00 00 00 00	 call	 ??_L@YGXPAXIIP6EX0@Z1@Z
  00021	68 00 00 00 00	 push	 OFFSET ??__FgLCount@@YAXXZ ; `dynamic atexit destructor for 'gLCount''
  00026	e8 00 00 00 00	 call	 _atexit
  0002b	83 c4 04	 add	 esp, 4
  0002e	5f		 pop	 edi
  0002f	5e		 pop	 esi
  00030	5b		 pop	 ebx
  00031	8b e5		 mov	 esp, ebp
  00033	5d		 pop	 ebp
  00034	c3		 ret	 0
??__EgLCount@@YAXXZ ENDP				; `dynamic initializer for 'gLCount''
text$di	ENDS
; Function compile flags: /Odtp /ZI
;	COMDAT ??__FgNSerialCheck@@YAXXZ
text$yd	SEGMENT
??__FgNSerialCheck@@YAXXZ PROC				; `dynamic atexit destructor for 'gNSerialCheck'', COMDAT
  00000	55		 push	 ebp
  00001	8b ec		 mov	 ebp, esp
  00003	83 ec 40	 sub	 esp, 64			; 00000040H
  00006	53		 push	 ebx
  00007	56		 push	 esi
  00008	57		 push	 edi
  00009	68 00 00 00 00	 push	 OFFSET ??1NSerialCheck@@UAE@XZ ; NSerialCheck::~NSerialCheck
  0000e	68 e8 1c 00 00	 push	 7400			; 00001ce8H
  00013	6a 08		 push	 8
  00015	68 00 00 00 00	 push	 OFFSET ?gNSerialCheck@@3PAVNSerialCheck@@A ; gNSerialCheck
  0001a	e8 00 00 00 00	 call	 ??_M@YGXPAXIIP6EX0@Z@Z
  0001f	5f		 pop	 edi
  00020	5e		 pop	 esi
  00021	5b		 pop	 ebx
  00022	8b e5		 mov	 esp, ebp
  00024	5d		 pop	 ebp
  00025	c3		 ret	 0
??__FgNSerialCheck@@YAXXZ ENDP				; `dynamic atexit destructor for 'gNSerialCheck''
text$yd	ENDS
; Function compile flags: /Odtp /ZI
; File C:\Mu Online\Mu-GS-Webzen-MC-10093\GameServer\Gamemain.cpp
;	COMDAT ??__EgNSerialCheck@@YAXXZ
text$di	SEGMENT
??__EgNSerialCheck@@YAXXZ PROC				; `dynamic initializer for 'gNSerialCheck'', COMDAT

; 554  : NSerialCheck	gNSerialCheck[MAX_OBJECT]; 

  00000	55		 push	 ebp
  00001	8b ec		 mov	 ebp, esp
  00003	83 ec 40	 sub	 esp, 64			; 00000040H
  00006	53		 push	 ebx
  00007	56		 push	 esi
  00008	57		 push	 edi
  00009	68 00 00 00 00	 push	 OFFSET ??1NSerialCheck@@UAE@XZ ; NSerialCheck::~NSerialCheck
  0000e	68 00 00 00 00	 push	 OFFSET ??0NSerialCheck@@QAE@XZ ; NSerialCheck::NSerialCheck
  00013	68 e8 1c 00 00	 push	 7400			; 00001ce8H
  00018	6a 08		 push	 8
  0001a	68 00 00 00 00	 push	 OFFSET ?gNSerialCheck@@3PAVNSerialCheck@@A ; gNSerialCheck
  0001f	e8 00 00 00 00	 call	 ??_L@YGXPAXIIP6EX0@Z1@Z
  00024	68 00 00 00 00	 push	 OFFSET ??__FgNSerialCheck@@YAXXZ ; `dynamic atexit destructor for 'gNSerialCheck''
  00029	e8 00 00 00 00	 call	 _atexit
  0002e	83 c4 04	 add	 esp, 4
  00031	5f		 pop	 edi
  00032	5e		 pop	 esi
  00033	5b		 pop	 ebx
  00034	8b e5		 mov	 esp, ebp
  00036	5d		 pop	 ebp
  00037	c3		 ret	 0
??__EgNSerialCheck@@YAXXZ ENDP				; `dynamic initializer for 'gNSerialCheck''
text$di	ENDS
; Function compile flags: /Odtp /ZI
;	COMDAT ??__FlMsg@@YAXXZ
text$yd	SEGMENT
??__FlMsg@@YAXXZ PROC					; `dynamic atexit destructor for 'lMsg'', COMDAT
  00000	55		 push	 ebp
  00001	8b ec		 mov	 ebp, esp
  00003	83 ec 40	 sub	 esp, 64			; 00000040H
  00006	53		 push	 ebx
  00007	56		 push	 esi
  00008	57		 push	 edi
  00009	b9 00 00 00 00	 mov	 ecx, OFFSET ?lMsg@@3VCMsg@@A ; lMsg
  0000e	ff 15 00 00 00
	00		 call	 DWORD PTR __imp_??1CMsg@@QAE@XZ
  00014	5f		 pop	 edi
  00015	5e		 pop	 esi
  00016	5b		 pop	 ebx
  00017	8b e5		 mov	 esp, ebp
  00019	5d		 pop	 ebp
  0001a	c3		 ret	 0
??__FlMsg@@YAXXZ ENDP					; `dynamic atexit destructor for 'lMsg''
text$yd	ENDS
; Function compile flags: /Odtp /ZI
; File C:\Mu Online\Mu-GS-Webzen-MC-10093\GameServer\Gamemain.cpp
;	COMDAT ??__ElMsg@@YAXXZ
text$di	SEGMENT
??__ElMsg@@YAXXZ PROC					; `dynamic initializer for 'lMsg'', COMDAT

; 552  : CMsg			lMsg;	//  

  00000	55		 push	 ebp
  00001	8b ec		 mov	 ebp, esp
  00003	83 ec 40	 sub	 esp, 64			; 00000040H
  00006	53		 push	 ebx
  00007	56		 push	 esi
  00008	57		 push	 edi
  00009	b9 00 00 00 00	 mov	 ecx, OFFSET ?lMsg@@3VCMsg@@A ; lMsg
  0000e	ff 15 00 00 00
	00		 call	 DWORD PTR __imp_??0CMsg@@QAE@XZ
  00014	68 00 00 00 00	 push	 OFFSET ??__FlMsg@@YAXXZ	; `dynamic atexit destructor for 'lMsg''
  00019	e8 00 00 00 00	 call	 _atexit
  0001e	83 c4 04	 add	 esp, 4
  00021	5f		 pop	 edi
  00022	5e		 pop	 esi
  00023	5b		 pop	 ebx
  00024	8b e5		 mov	 esp, ebp
  00026	5d		 pop	 ebp
  00027	c3		 ret	 0
??__ElMsg@@YAXXZ ENDP					; `dynamic initializer for 'lMsg''
text$di	ENDS
; Function compile flags: /Odtp /ZI
;	COMDAT ??__FGuild@@YAXXZ
text$yd	SEGMENT
??__FGuild@@YAXXZ PROC					; `dynamic atexit destructor for 'Guild'', COMDAT
  00000	55		 push	 ebp
  00001	8b ec		 mov	 ebp, esp
  00003	83 ec 40	 sub	 esp, 64			; 00000040H
  00006	53		 push	 ebx
  00007	56		 push	 esi
  00008	57		 push	 edi
  00009	b9 00 00 00 00	 mov	 ecx, OFFSET ?Guild@@3VCGuildClass@@A ; Guild
  0000e	e8 00 00 00 00	 call	 ??1CGuildClass@@UAE@XZ	; CGuildClass::~CGuildClass
  00013	5f		 pop	 edi
  00014	5e		 pop	 esi
  00015	5b		 pop	 ebx
  00016	8b e5		 mov	 esp, ebp
  00018	5d		 pop	 ebp
  00019	c3		 ret	 0
??__FGuild@@YAXXZ ENDP					; `dynamic atexit destructor for 'Guild''
text$yd	ENDS
; Function compile flags: /Odtp /ZI
; File C:\Mu Online\Mu-GS-Webzen-MC-10093\GameServer\Gamemain.cpp
;	COMDAT ??__EGuild@@YAXXZ
text$di	SEGMENT
??__EGuild@@YAXXZ PROC					; `dynamic initializer for 'Guild'', COMDAT

; 373  : CGuildClass		Guild;

  00000	55		 push	 ebp
  00001	8b ec		 mov	 ebp, esp
  00003	83 ec 40	 sub	 esp, 64			; 00000040H
  00006	53		 push	 ebx
  00007	56		 push	 esi
  00008	57		 push	 edi
  00009	b9 00 00 00 00	 mov	 ecx, OFFSET ?Guild@@3VCGuildClass@@A ; Guild
  0000e	e8 00 00 00 00	 call	 ??0CGuildClass@@QAE@XZ	; CGuildClass::CGuildClass
  00013	68 00 00 00 00	 push	 OFFSET ??__FGuild@@YAXXZ ; `dynamic atexit destructor for 'Guild''
  00018	e8 00 00 00 00	 call	 _atexit
  0001d	83 c4 04	 add	 esp, 4
  00020	5f		 pop	 edi
  00021	5e		 pop	 esi
  00022	5b		 pop	 ebx
  00023	8b e5		 mov	 esp, ebp
  00025	5d		 pop	 ebp
  00026	c3		 ret	 0
??__EGuild@@YAXXZ ENDP					; `dynamic initializer for 'Guild''
text$di	ENDS
; Function compile flags: /Odtp /ZI
;	COMDAT ??__FgUdpSocCRankR@@YAXXZ
text$yd	SEGMENT
??__FgUdpSocCRankR@@YAXXZ PROC				; `dynamic atexit destructor for 'gUdpSocCRankR'', COMDAT
  00000	55		 push	 ebp
  00001	8b ec		 mov	 ebp, esp
  00003	83 ec 40	 sub	 esp, 64			; 00000040H
  00006	53		 push	 ebx
  00007	56		 push	 esi
  00008	57		 push	 edi
  00009	b9 00 00 00 00	 mov	 ecx, OFFSET ?gUdpSocCRankR@@3VWzUdp@@A ; gUdpSocCRankR
  0000e	e8 00 00 00 00	 call	 ??1WzUdp@@UAE@XZ	; WzUdp::~WzUdp
  00013	5f		 pop	 edi
  00014	5e		 pop	 esi
  00015	5b		 pop	 ebx
  00016	8b e5		 mov	 esp, ebp
  00018	5d		 pop	 ebp
  00019	c3		 ret	 0
??__FgUdpSocCRankR@@YAXXZ ENDP				; `dynamic atexit destructor for 'gUdpSocCRankR''
text$yd	ENDS
; Function compile flags: /Odtp /ZI
; File C:\Mu Online\Mu-GS-Webzen-MC-10093\GameServer\Gamemain.cpp
;	COMDAT ??__EgUdpSocCRankR@@YAXXZ
text$di	SEGMENT
??__EgUdpSocCRankR@@YAXXZ PROC				; `dynamic initializer for 'gUdpSocCRankR'', COMDAT

; 370  : WzUdp			gUdpSocCRankR;		// Rank ServerRecv

  00000	55		 push	 ebp
  00001	8b ec		 mov	 ebp, esp
  00003	83 ec 40	 sub	 esp, 64			; 00000040H
  00006	53		 push	 ebx
  00007	56		 push	 esi
  00008	57		 push	 edi
  00009	b9 00 00 00 00	 mov	 ecx, OFFSET ?gUdpSocCRankR@@3VWzUdp@@A ; gUdpSocCRankR
  0000e	e8 00 00 00 00	 call	 ??0WzUdp@@QAE@XZ	; WzUdp::WzUdp
  00013	68 00 00 00 00	 push	 OFFSET ??__FgUdpSocCRankR@@YAXXZ ; `dynamic atexit destructor for 'gUdpSocCRankR''
  00018	e8 00 00 00 00	 call	 _atexit
  0001d	83 c4 04	 add	 esp, 4
  00020	5f		 pop	 edi
  00021	5e		 pop	 esi
  00022	5b		 pop	 ebx
  00023	8b e5		 mov	 esp, ebp
  00025	5d		 pop	 ebp
  00026	c3		 ret	 0
??__EgUdpSocCRankR@@YAXXZ ENDP				; `dynamic initializer for 'gUdpSocCRankR''
text$di	ENDS
; Function compile flags: /Odtp /ZI
;	COMDAT ??__FgUdpSocCRank@@YAXXZ
text$yd	SEGMENT
??__FgUdpSocCRank@@YAXXZ PROC				; `dynamic atexit destructor for 'gUdpSocCRank'', COMDAT
  00000	55		 push	 ebp
  00001	8b ec		 mov	 ebp, esp
  00003	83 ec 40	 sub	 esp, 64			; 00000040H
  00006	53		 push	 ebx
  00007	56		 push	 esi
  00008	57		 push	 edi
  00009	b9 00 00 00 00	 mov	 ecx, OFFSET ?gUdpSocCRank@@3VWzUdp@@A ; gUdpSocCRank
  0000e	e8 00 00 00 00	 call	 ??1WzUdp@@UAE@XZ	; WzUdp::~WzUdp
  00013	5f		 pop	 edi
  00014	5e		 pop	 esi
  00015	5b		 pop	 ebx
  00016	8b e5		 mov	 esp, ebp
  00018	5d		 pop	 ebp
  00019	c3		 ret	 0
??__FgUdpSocCRank@@YAXXZ ENDP				; `dynamic atexit destructor for 'gUdpSocCRank''
text$yd	ENDS
; Function compile flags: /Odtp /ZI
; File C:\Mu Online\Mu-GS-Webzen-MC-10093\GameServer\Gamemain.cpp
;	COMDAT ??__EgUdpSocCRank@@YAXXZ
text$di	SEGMENT
??__EgUdpSocCRank@@YAXXZ PROC				; `dynamic initializer for 'gUdpSocCRank'', COMDAT

; 369  : WzUdp			gUdpSocCRank;		// Rank Server

  00000	55		 push	 ebp
  00001	8b ec		 mov	 ebp, esp
  00003	83 ec 40	 sub	 esp, 64			; 00000040H
  00006	53		 push	 ebx
  00007	56		 push	 esi
  00008	57		 push	 edi
  00009	b9 00 00 00 00	 mov	 ecx, OFFSET ?gUdpSocCRank@@3VWzUdp@@A ; gUdpSocCRank
  0000e	e8 00 00 00 00	 call	 ??0WzUdp@@QAE@XZ	; WzUdp::WzUdp
  00013	68 00 00 00 00	 push	 OFFSET ??__FgUdpSocCRank@@YAXXZ ; `dynamic atexit destructor for 'gUdpSocCRank''
  00018	e8 00 00 00 00	 call	 _atexit
  0001d	83 c4 04	 add	 esp, 4
  00020	5f		 pop	 edi
  00021	5e		 pop	 esi
  00022	5b		 pop	 ebx
  00023	8b e5		 mov	 esp, ebp
  00025	5d		 pop	 ebp
  00026	c3		 ret	 0
??__EgUdpSocCRank@@YAXXZ ENDP				; `dynamic initializer for 'gUdpSocCRank''
text$di	ENDS
; Function compile flags: /Odtp /ZI
;	COMDAT ??__FgUdpSocCER@@YAXXZ
text$yd	SEGMENT
??__FgUdpSocCER@@YAXXZ PROC				; `dynamic atexit destructor for 'gUdpSocCER'', COMDAT
  00000	55		 push	 ebp
  00001	8b ec		 mov	 ebp, esp
  00003	83 ec 40	 sub	 esp, 64			; 00000040H
  00006	53		 push	 ebx
  00007	56		 push	 esi
  00008	57		 push	 edi
  00009	b9 00 00 00 00	 mov	 ecx, OFFSET ?gUdpSocCER@@3VWzUdp@@A ; gUdpSocCER
  0000e	e8 00 00 00 00	 call	 ??1WzUdp@@UAE@XZ	; WzUdp::~WzUdp
  00013	5f		 pop	 edi
  00014	5e		 pop	 esi
  00015	5b		 pop	 ebx
  00016	8b e5		 mov	 esp, ebp
  00018	5d		 pop	 ebp
  00019	c3		 ret	 0
??__FgUdpSocCER@@YAXXZ ENDP				; `dynamic atexit destructor for 'gUdpSocCER''
text$yd	ENDS
; Function compile flags: /Odtp /ZI
; File C:\Mu Online\Mu-GS-Webzen-MC-10093\GameServer\Gamemain.cpp
;	COMDAT ??__EgUdpSocCER@@YAXXZ
text$di	SEGMENT
??__EgUdpSocCER@@YAXXZ PROC				; `dynamic initializer for 'gUdpSocCER'', COMDAT

; 367  : WzUdp			gUdpSocCER;		// Chaos Event Recv

  00000	55		 push	 ebp
  00001	8b ec		 mov	 ebp, esp
  00003	83 ec 40	 sub	 esp, 64			; 00000040H
  00006	53		 push	 ebx
  00007	56		 push	 esi
  00008	57		 push	 edi
  00009	b9 00 00 00 00	 mov	 ecx, OFFSET ?gUdpSocCER@@3VWzUdp@@A ; gUdpSocCER
  0000e	e8 00 00 00 00	 call	 ??0WzUdp@@QAE@XZ	; WzUdp::WzUdp
  00013	68 00 00 00 00	 push	 OFFSET ??__FgUdpSocCER@@YAXXZ ; `dynamic atexit destructor for 'gUdpSocCER''
  00018	e8 00 00 00 00	 call	 _atexit
  0001d	83 c4 04	 add	 esp, 4
  00020	5f		 pop	 edi
  00021	5e		 pop	 esi
  00022	5b		 pop	 ebx
  00023	8b e5		 mov	 esp, ebp
  00025	5d		 pop	 ebp
  00026	c3		 ret	 0
??__EgUdpSocCER@@YAXXZ ENDP				; `dynamic initializer for 'gUdpSocCER''
text$di	ENDS
; Function compile flags: /Odtp /ZI
;	COMDAT ??__FgUdpSocCE@@YAXXZ
text$yd	SEGMENT
??__FgUdpSocCE@@YAXXZ PROC				; `dynamic atexit destructor for 'gUdpSocCE'', COMDAT
  00000	55		 push	 ebp
  00001	8b ec		 mov	 ebp, esp
  00003	83 ec 40	 sub	 esp, 64			; 00000040H
  00006	53		 push	 ebx
  00007	56		 push	 esi
  00008	57		 push	 edi
  00009	b9 00 00 00 00	 mov	 ecx, OFFSET ?gUdpSocCE@@3VWzUdp@@A ; gUdpSocCE
  0000e	e8 00 00 00 00	 call	 ??1WzUdp@@UAE@XZ	; WzUdp::~WzUdp
  00013	5f		 pop	 edi
  00014	5e		 pop	 esi
  00015	5b		 pop	 ebx
  00016	8b e5		 mov	 esp, ebp
  00018	5d		 pop	 ebp
  00019	c3		 ret	 0
??__FgUdpSocCE@@YAXXZ ENDP				; `dynamic atexit destructor for 'gUdpSocCE''
text$yd	ENDS
; Function compile flags: /Odtp /ZI
; File C:\Mu Online\Mu-GS-Webzen-MC-10093\GameServer\Gamemain.cpp
;	COMDAT ??__EgUdpSocCE@@YAXXZ
text$di	SEGMENT
??__EgUdpSocCE@@YAXXZ PROC				; `dynamic initializer for 'gUdpSocCE'', COMDAT

; 366  : WzUdp			gUdpSocCE;		// Chaos Event 

  00000	55		 push	 ebp
  00001	8b ec		 mov	 ebp, esp
  00003	83 ec 40	 sub	 esp, 64			; 00000040H
  00006	53		 push	 ebx
  00007	56		 push	 esi
  00008	57		 push	 edi
  00009	b9 00 00 00 00	 mov	 ecx, OFFSET ?gUdpSocCE@@3VWzUdp@@A ; gUdpSocCE
  0000e	e8 00 00 00 00	 call	 ??0WzUdp@@QAE@XZ	; WzUdp::WzUdp
  00013	68 00 00 00 00	 push	 OFFSET ??__FgUdpSocCE@@YAXXZ ; `dynamic atexit destructor for 'gUdpSocCE''
  00018	e8 00 00 00 00	 call	 _atexit
  0001d	83 c4 04	 add	 esp, 4
  00020	5f		 pop	 edi
  00021	5e		 pop	 esi
  00022	5b		 pop	 ebx
  00023	8b e5		 mov	 esp, ebp
  00025	5d		 pop	 ebp
  00026	c3		 ret	 0
??__EgUdpSocCE@@YAXXZ ENDP				; `dynamic initializer for 'gUdpSocCE''
text$di	ENDS
; Function compile flags: /Odtp /ZI
;	COMDAT ??__FgUdpSoc@@YAXXZ
text$yd	SEGMENT
??__FgUdpSoc@@YAXXZ PROC				; `dynamic atexit destructor for 'gUdpSoc'', COMDAT
  00000	55		 push	 ebp
  00001	8b ec		 mov	 ebp, esp
  00003	83 ec 40	 sub	 esp, 64			; 00000040H
  00006	53		 push	 ebx
  00007	56		 push	 esi
  00008	57		 push	 edi
  00009	b9 00 00 00 00	 mov	 ecx, OFFSET ?gUdpSoc@@3VWzUdp@@A ; gUdpSoc
  0000e	e8 00 00 00 00	 call	 ??1WzUdp@@UAE@XZ	; WzUdp::~WzUdp
  00013	5f		 pop	 edi
  00014	5e		 pop	 esi
  00015	5b		 pop	 ebx
  00016	8b e5		 mov	 esp, ebp
  00018	5d		 pop	 ebp
  00019	c3		 ret	 0
??__FgUdpSoc@@YAXXZ ENDP				; `dynamic atexit destructor for 'gUdpSoc''
text$yd	ENDS
; Function compile flags: /Odtp /ZI
; File C:\Mu Online\Mu-GS-Webzen-MC-10093\GameServer\Gamemain.cpp
;	COMDAT ??__EgUdpSoc@@YAXXZ
text$di	SEGMENT
??__EgUdpSoc@@YAXXZ PROC				; `dynamic initializer for 'gUdpSoc'', COMDAT

; 364  : WzUdp			gUdpSoc;

  00000	55		 push	 ebp
  00001	8b ec		 mov	 ebp, esp
  00003	83 ec 40	 sub	 esp, 64			; 00000040H
  00006	53		 push	 ebx
  00007	56		 push	 esi
  00008	57		 push	 edi
  00009	b9 00 00 00 00	 mov	 ecx, OFFSET ?gUdpSoc@@3VWzUdp@@A ; gUdpSoc
  0000e	e8 00 00 00 00	 call	 ??0WzUdp@@QAE@XZ	; WzUdp::WzUdp
  00013	68 00 00 00 00	 push	 OFFSET ??__FgUdpSoc@@YAXXZ ; `dynamic atexit destructor for 'gUdpSoc''
  00018	e8 00 00 00 00	 call	 _atexit
  0001d	83 c4 04	 add	 esp, 4
  00020	5f		 pop	 edi
  00021	5e		 pop	 esi
  00022	5b		 pop	 ebx
  00023	8b e5		 mov	 esp, ebp
  00025	5d		 pop	 ebp
  00026	c3		 ret	 0
??__EgUdpSoc@@YAXXZ ENDP				; `dynamic initializer for 'gUdpSoc''
text$di	ENDS
; Function compile flags: /Odtp /ZI
;	COMDAT ??__FgDbSave@@YAXXZ
text$yd	SEGMENT
??__FgDbSave@@YAXXZ PROC				; `dynamic atexit destructor for 'gDbSave'', COMDAT
  00000	55		 push	 ebp
  00001	8b ec		 mov	 ebp, esp
  00003	83 ec 40	 sub	 esp, 64			; 00000040H
  00006	53		 push	 ebx
  00007	56		 push	 esi
  00008	57		 push	 edi
  00009	b9 00 00 00 00	 mov	 ecx, OFFSET ?gDbSave@@3VCDbSave@@A ; gDbSave
  0000e	e8 00 00 00 00	 call	 ??1CDbSave@@UAE@XZ	; CDbSave::~CDbSave
  00013	5f		 pop	 edi
  00014	5e		 pop	 esi
  00015	5b		 pop	 ebx
  00016	8b e5		 mov	 esp, ebp
  00018	5d		 pop	 ebp
  00019	c3		 ret	 0
??__FgDbSave@@YAXXZ ENDP				; `dynamic atexit destructor for 'gDbSave''
text$yd	ENDS
; Function compile flags: /Odtp /ZI
; File C:\Mu Online\Mu-GS-Webzen-MC-10093\GameServer\Gamemain.cpp
;	COMDAT ??__EgDbSave@@YAXXZ
text$di	SEGMENT
??__EgDbSave@@YAXXZ PROC				; `dynamic initializer for 'gDbSave'', COMDAT

; 363  : CDbSave			gDbSave;

  00000	55		 push	 ebp
  00001	8b ec		 mov	 ebp, esp
  00003	83 ec 40	 sub	 esp, 64			; 00000040H
  00006	53		 push	 ebx
  00007	56		 push	 esi
  00008	57		 push	 edi
  00009	b9 00 00 00 00	 mov	 ecx, OFFSET ?gDbSave@@3VCDbSave@@A ; gDbSave
  0000e	e8 00 00 00 00	 call	 ??0CDbSave@@QAE@XZ	; CDbSave::CDbSave
  00013	68 00 00 00 00	 push	 OFFSET ??__FgDbSave@@YAXXZ ; `dynamic atexit destructor for 'gDbSave''
  00018	e8 00 00 00 00	 call	 _atexit
  0001d	83 c4 04	 add	 esp, 4
  00020	5f		 pop	 edi
  00021	5e		 pop	 esi
  00022	5b		 pop	 ebx
  00023	8b e5		 mov	 esp, ebp
  00025	5d		 pop	 ebp
  00026	c3		 ret	 0
??__EgDbSave@@YAXXZ ENDP				; `dynamic initializer for 'gDbSave''
text$di	ENDS
; Function compile flags: /Odtp /ZI
;	COMDAT ??__FgParty@@YAXXZ
text$yd	SEGMENT
??__FgParty@@YAXXZ PROC					; `dynamic atexit destructor for 'gParty'', COMDAT
  00000	55		 push	 ebp
  00001	8b ec		 mov	 ebp, esp
  00003	83 ec 40	 sub	 esp, 64			; 00000040H
  00006	53		 push	 ebx
  00007	56		 push	 esi
  00008	57		 push	 edi
  00009	b9 00 00 00 00	 mov	 ecx, OFFSET ?gParty@@3VPartyClass@@A ; gParty
  0000e	e8 00 00 00 00	 call	 ??1PartyClass@@UAE@XZ	; PartyClass::~PartyClass
  00013	5f		 pop	 edi
  00014	5e		 pop	 esi
  00015	5b		 pop	 ebx
  00016	8b e5		 mov	 esp, ebp
  00018	5d		 pop	 ebp
  00019	c3		 ret	 0
??__FgParty@@YAXXZ ENDP					; `dynamic atexit destructor for 'gParty''
text$yd	ENDS
; Function compile flags: /Odtp /ZI
; File C:\Mu Online\Mu-GS-Webzen-MC-10093\GameServer\Gamemain.cpp
;	COMDAT ??__EgParty@@YAXXZ
text$di	SEGMENT
??__EgParty@@YAXXZ PROC					; `dynamic initializer for 'gParty'', COMDAT

; 362  : PartyClass		gParty;

  00000	55		 push	 ebp
  00001	8b ec		 mov	 ebp, esp
  00003	83 ec 40	 sub	 esp, 64			; 00000040H
  00006	53		 push	 ebx
  00007	56		 push	 esi
  00008	57		 push	 edi
  00009	b9 00 00 00 00	 mov	 ecx, OFFSET ?gParty@@3VPartyClass@@A ; gParty
  0000e	e8 00 00 00 00	 call	 ??0PartyClass@@QAE@XZ	; PartyClass::PartyClass
  00013	68 00 00 00 00	 push	 OFFSET ??__FgParty@@YAXXZ ; `dynamic atexit destructor for 'gParty''
  00018	e8 00 00 00 00	 call	 _atexit
  0001d	83 c4 04	 add	 esp, 4
  00020	5f		 pop	 edi
  00021	5e		 pop	 esi
  00022	5b		 pop	 ebx
  00023	8b e5		 mov	 esp, ebp
  00025	5d		 pop	 ebp
  00026	c3		 ret	 0
??__EgParty@@YAXXZ ENDP					; `dynamic initializer for 'gParty''
text$di	ENDS
; Function compile flags: /Odtp /ZI
;	COMDAT ??__FWhisperCash@@YAXXZ
text$yd	SEGMENT
??__FWhisperCash@@YAXXZ PROC				; `dynamic atexit destructor for 'WhisperCash'', COMDAT
  00000	55		 push	 ebp
  00001	8b ec		 mov	 ebp, esp
  00003	83 ec 40	 sub	 esp, 64			; 00000040H
  00006	53		 push	 ebx
  00007	56		 push	 esi
  00008	57		 push	 edi
  00009	b9 00 00 00 00	 mov	 ecx, OFFSET ?WhisperCash@@3VCWhisperCash@@A ; WhisperCash
  0000e	e8 00 00 00 00	 call	 ??1CWhisperCash@@UAE@XZ	; CWhisperCash::~CWhisperCash
  00013	5f		 pop	 edi
  00014	5e		 pop	 esi
  00015	5b		 pop	 ebx
  00016	8b e5		 mov	 esp, ebp
  00018	5d		 pop	 ebp
  00019	c3		 ret	 0
??__FWhisperCash@@YAXXZ ENDP				; `dynamic atexit destructor for 'WhisperCash''
text$yd	ENDS
; Function compile flags: /Odtp /ZI
; File C:\Mu Online\Mu-GS-Webzen-MC-10093\GameServer\Gamemain.cpp
;	COMDAT ??__EWhisperCash@@YAXXZ
text$di	SEGMENT
??__EWhisperCash@@YAXXZ PROC				; `dynamic initializer for 'WhisperCash'', COMDAT

; 361  : CWhisperCash	WhisperCash;

  00000	55		 push	 ebp
  00001	8b ec		 mov	 ebp, esp
  00003	83 ec 40	 sub	 esp, 64			; 00000040H
  00006	53		 push	 ebx
  00007	56		 push	 esi
  00008	57		 push	 edi
  00009	b9 00 00 00 00	 mov	 ecx, OFFSET ?WhisperCash@@3VCWhisperCash@@A ; WhisperCash
  0000e	e8 00 00 00 00	 call	 ??0CWhisperCash@@QAE@XZ	; CWhisperCash::CWhisperCash
  00013	68 00 00 00 00	 push	 OFFSET ??__FWhisperCash@@YAXXZ ; `dynamic atexit destructor for 'WhisperCash''
  00018	e8 00 00 00 00	 call	 _atexit
  0001d	83 c4 04	 add	 esp, 4
  00020	5f		 pop	 edi
  00021	5e		 pop	 esi
  00022	5b		 pop	 ebx
  00023	8b e5		 mov	 esp, ebp
  00025	5d		 pop	 ebp
  00026	c3		 ret	 0
??__EWhisperCash@@YAXXZ ENDP				; `dynamic initializer for 'WhisperCash''
text$di	ENDS
; Function compile flags: /Odtp /ZI
;	COMDAT ??__FDCInfo@@YAXXZ
text$yd	SEGMENT
??__FDCInfo@@YAXXZ PROC					; `dynamic atexit destructor for 'DCInfo'', COMDAT
  00000	55		 push	 ebp
  00001	8b ec		 mov	 ebp, esp
  00003	83 ec 40	 sub	 esp, 64			; 00000040H
  00006	53		 push	 ebx
  00007	56		 push	 esi
  00008	57		 push	 edi
  00009	b9 00 00 00 00	 mov	 ecx, OFFSET ?DCInfo@@3Vclassdef@@A ; DCInfo
  0000e	e8 00 00 00 00	 call	 ??1classdef@@UAE@XZ	; classdef::~classdef
  00013	5f		 pop	 edi
  00014	5e		 pop	 esi
  00015	5b		 pop	 ebx
  00016	8b e5		 mov	 esp, ebp
  00018	5d		 pop	 ebp
  00019	c3		 ret	 0
??__FDCInfo@@YAXXZ ENDP					; `dynamic atexit destructor for 'DCInfo''
text$yd	ENDS
; Function compile flags: /Odtp /ZI
; File C:\Mu Online\Mu-GS-Webzen-MC-10093\GameServer\Gamemain.cpp
;	COMDAT ??__EDCInfo@@YAXXZ
text$di	SEGMENT
??__EDCInfo@@YAXXZ PROC					; `dynamic initializer for 'DCInfo'', COMDAT

; 360  : classdef		DCInfo;

  00000	55		 push	 ebp
  00001	8b ec		 mov	 ebp, esp
  00003	83 ec 40	 sub	 esp, 64			; 00000040H
  00006	53		 push	 ebx
  00007	56		 push	 esi
  00008	57		 push	 edi
  00009	b9 00 00 00 00	 mov	 ecx, OFFSET ?DCInfo@@3Vclassdef@@A ; DCInfo
  0000e	e8 00 00 00 00	 call	 ??0classdef@@QAE@XZ	; classdef::classdef
  00013	68 00 00 00 00	 push	 OFFSET ??__FDCInfo@@YAXXZ ; `dynamic atexit destructor for 'DCInfo''
  00018	e8 00 00 00 00	 call	 _atexit
  0001d	83 c4 04	 add	 esp, 4
  00020	5f		 pop	 edi
  00021	5e		 pop	 esi
  00022	5b		 pop	 ebx
  00023	8b e5		 mov	 esp, ebp
  00025	5d		 pop	 ebp
  00026	c3		 ret	 0
??__EDCInfo@@YAXXZ ENDP					; `dynamic initializer for 'DCInfo''
text$di	ENDS
; Function compile flags: /Odtp /ZI
;	COMDAT ??__FgMSetBase@@YAXXZ
text$yd	SEGMENT
??__FgMSetBase@@YAXXZ PROC				; `dynamic atexit destructor for 'gMSetBase'', COMDAT
  00000	55		 push	 ebp
  00001	8b ec		 mov	 ebp, esp
  00003	83 ec 40	 sub	 esp, 64			; 00000040H
  00006	53		 push	 ebx
  00007	56		 push	 esi
  00008	57		 push	 edi
  00009	b9 00 00 00 00	 mov	 ecx, OFFSET ?gMSetBase@@3VCMonsterSetBase@@A ; gMSetBase
  0000e	e8 00 00 00 00	 call	 ??1CMonsterSetBase@@UAE@XZ ; CMonsterSetBase::~CMonsterSetBase
  00013	5f		 pop	 edi
  00014	5e		 pop	 esi
  00015	5b		 pop	 ebx
  00016	8b e5		 mov	 esp, ebp
  00018	5d		 pop	 ebp
  00019	c3		 ret	 0
??__FgMSetBase@@YAXXZ ENDP				; `dynamic atexit destructor for 'gMSetBase''
text$yd	ENDS
; Function compile flags: /Odtp /ZI
; File C:\Mu Online\Mu-GS-Webzen-MC-10093\GameServer\Gamemain.cpp
;	COMDAT ??__EgMSetBase@@YAXXZ
text$di	SEGMENT
??__EgMSetBase@@YAXXZ PROC				; `dynamic initializer for 'gMSetBase'', COMDAT

; 359  : CMonsterSetBase	gMSetBase;

  00000	55		 push	 ebp
  00001	8b ec		 mov	 ebp, esp
  00003	83 ec 40	 sub	 esp, 64			; 00000040H
  00006	53		 push	 ebx
  00007	56		 push	 esi
  00008	57		 push	 edi
  00009	b9 00 00 00 00	 mov	 ecx, OFFSET ?gMSetBase@@3VCMonsterSetBase@@A ; gMSetBase
  0000e	e8 00 00 00 00	 call	 ??0CMonsterSetBase@@QAE@XZ ; CMonsterSetBase::CMonsterSetBase
  00013	68 00 00 00 00	 push	 OFFSET ??__FgMSetBase@@YAXXZ ; `dynamic atexit destructor for 'gMSetBase''
  00018	e8 00 00 00 00	 call	 _atexit
  0001d	83 c4 04	 add	 esp, 4
  00020	5f		 pop	 edi
  00021	5e		 pop	 esi
  00022	5b		 pop	 ebx
  00023	8b e5		 mov	 esp, ebp
  00025	5d		 pop	 ebp
  00026	c3		 ret	 0
??__EgMSetBase@@YAXXZ ENDP				; `dynamic initializer for 'gMSetBase''
text$di	ENDS
; Function compile flags: /Odtp /ZI
;	COMDAT ??__FgMAttr@@YAXXZ
text$yd	SEGMENT
??__FgMAttr@@YAXXZ PROC					; `dynamic atexit destructor for 'gMAttr'', COMDAT
  00000	55		 push	 ebp
  00001	8b ec		 mov	 ebp, esp
  00003	83 ec 40	 sub	 esp, 64			; 00000040H
  00006	53		 push	 ebx
  00007	56		 push	 esi
  00008	57		 push	 edi
  00009	b9 00 00 00 00	 mov	 ecx, OFFSET ?gMAttr@@3VCMonsterAttr@@A ; gMAttr
  0000e	e8 00 00 00 00	 call	 ??1CMonsterAttr@@UAE@XZ	; CMonsterAttr::~CMonsterAttr
  00013	5f		 pop	 edi
  00014	5e		 pop	 esi
  00015	5b		 pop	 ebx
  00016	8b e5		 mov	 esp, ebp
  00018	5d		 pop	 ebp
  00019	c3		 ret	 0
??__FgMAttr@@YAXXZ ENDP					; `dynamic atexit destructor for 'gMAttr''
text$yd	ENDS
; Function compile flags: /Odtp /ZI
; File C:\Mu Online\Mu-GS-Webzen-MC-10093\GameServer\Gamemain.cpp
;	COMDAT ??__EgMAttr@@YAXXZ
text$di	SEGMENT
??__EgMAttr@@YAXXZ PROC					; `dynamic initializer for 'gMAttr'', COMDAT

; 358  : CMonsterAttr	gMAttr;

  00000	55		 push	 ebp
  00001	8b ec		 mov	 ebp, esp
  00003	83 ec 40	 sub	 esp, 64			; 00000040H
  00006	53		 push	 ebx
  00007	56		 push	 esi
  00008	57		 push	 edi
  00009	b9 00 00 00 00	 mov	 ecx, OFFSET ?gMAttr@@3VCMonsterAttr@@A ; gMAttr
  0000e	e8 00 00 00 00	 call	 ??0CMonsterAttr@@QAE@XZ	; CMonsterAttr::CMonsterAttr
  00013	68 00 00 00 00	 push	 OFFSET ??__FgMAttr@@YAXXZ ; `dynamic atexit destructor for 'gMAttr''
  00018	e8 00 00 00 00	 call	 _atexit
  0001d	83 c4 04	 add	 esp, 4
  00020	5f		 pop	 edi
  00021	5e		 pop	 esi
  00022	5b		 pop	 ebx
  00023	8b e5		 mov	 esp, ebp
  00025	5d		 pop	 ebp
  00026	c3		 ret	 0
??__EgMAttr@@YAXXZ ENDP					; `dynamic initializer for 'gMAttr''
text$di	ENDS
; Function compile flags: /Odtp /ZI
;	COMDAT ??__FgDirPath@@YAXXZ
text$yd	SEGMENT
??__FgDirPath@@YAXXZ PROC				; `dynamic atexit destructor for 'gDirPath'', COMDAT
  00000	55		 push	 ebp
  00001	8b ec		 mov	 ebp, esp
  00003	83 ec 40	 sub	 esp, 64			; 00000040H
  00006	53		 push	 ebx
  00007	56		 push	 esi
  00008	57		 push	 edi
  00009	b9 00 00 00 00	 mov	 ecx, OFFSET ?gDirPath@@3VCDirPath@@A ; gDirPath
  0000e	e8 00 00 00 00	 call	 ??1CDirPath@@UAE@XZ	; CDirPath::~CDirPath
  00013	5f		 pop	 edi
  00014	5e		 pop	 esi
  00015	5b		 pop	 ebx
  00016	8b e5		 mov	 esp, ebp
  00018	5d		 pop	 ebp
  00019	c3		 ret	 0
??__FgDirPath@@YAXXZ ENDP				; `dynamic atexit destructor for 'gDirPath''
text$yd	ENDS
; Function compile flags: /Odtp /ZI
; File C:\Mu Online\Mu-GS-Webzen-MC-10093\GameServer\Gamemain.cpp
;	COMDAT ??__EgDirPath@@YAXXZ
text$di	SEGMENT
??__EgDirPath@@YAXXZ PROC				; `dynamic initializer for 'gDirPath'', COMDAT

; 356  : CDirPath		gDirPath;

  00000	55		 push	 ebp
  00001	8b ec		 mov	 ebp, esp
  00003	83 ec 40	 sub	 esp, 64			; 00000040H
  00006	53		 push	 ebx
  00007	56		 push	 esi
  00008	57		 push	 edi
  00009	b9 00 00 00 00	 mov	 ecx, OFFSET ?gDirPath@@3VCDirPath@@A ; gDirPath
  0000e	e8 00 00 00 00	 call	 ??0CDirPath@@QAE@XZ	; CDirPath::CDirPath
  00013	68 00 00 00 00	 push	 OFFSET ??__FgDirPath@@YAXXZ ; `dynamic atexit destructor for 'gDirPath''
  00018	e8 00 00 00 00	 call	 _atexit
  0001d	83 c4 04	 add	 esp, 4
  00020	5f		 pop	 edi
  00021	5e		 pop	 esi
  00022	5b		 pop	 ebx
  00023	8b e5		 mov	 esp, ebp
  00025	5d		 pop	 ebp
  00026	c3		 ret	 0
??__EgDirPath@@YAXXZ ENDP				; `dynamic initializer for 'gDirPath''
text$di	ENDS
; Function compile flags: /Odtp /ZI
;	COMDAT ??__FwsEvenChipServerCli@@YAXXZ
text$yd	SEGMENT
??__FwsEvenChipServerCli@@YAXXZ PROC			; `dynamic atexit destructor for 'wsEvenChipServerCli'', COMDAT
  00000	55		 push	 ebp
  00001	8b ec		 mov	 ebp, esp
  00003	83 ec 40	 sub	 esp, 64			; 00000040H
  00006	53		 push	 ebx
  00007	56		 push	 esi
  00008	57		 push	 edi
  00009	b9 00 00 00 00	 mov	 ecx, OFFSET ?wsEvenChipServerCli@@3VwsJoinServerCli@@A ; wsEvenChipServerCli
  0000e	e8 00 00 00 00	 call	 ??1wsJoinServerCli@@UAE@XZ ; wsJoinServerCli::~wsJoinServerCli
  00013	5f		 pop	 edi
  00014	5e		 pop	 esi
  00015	5b		 pop	 ebx
  00016	8b e5		 mov	 esp, ebp
  00018	5d		 pop	 ebp
  00019	c3		 ret	 0
??__FwsEvenChipServerCli@@YAXXZ ENDP			; `dynamic atexit destructor for 'wsEvenChipServerCli''
text$yd	ENDS
; Function compile flags: /Odtp /ZI
; File C:\Mu Online\Mu-GS-Webzen-MC-10093\GameServer\Gamemain.cpp
;	COMDAT ??__EwsEvenChipServerCli@@YAXXZ
text$di	SEGMENT
??__EwsEvenChipServerCli@@YAXXZ PROC			; `dynamic initializer for 'wsEvenChipServerCli'', COMDAT

; 354  : wsJoinServerCli wsEvenChipServerCli;	//    

  00000	55		 push	 ebp
  00001	8b ec		 mov	 ebp, esp
  00003	83 ec 40	 sub	 esp, 64			; 00000040H
  00006	53		 push	 ebx
  00007	56		 push	 esi
  00008	57		 push	 edi
  00009	b9 00 00 00 00	 mov	 ecx, OFFSET ?wsEvenChipServerCli@@3VwsJoinServerCli@@A ; wsEvenChipServerCli
  0000e	e8 00 00 00 00	 call	 ??0wsJoinServerCli@@QAE@XZ ; wsJoinServerCli::wsJoinServerCli
  00013	68 00 00 00 00	 push	 OFFSET ??__FwsEvenChipServerCli@@YAXXZ ; `dynamic atexit destructor for 'wsEvenChipServerCli''
  00018	e8 00 00 00 00	 call	 _atexit
  0001d	83 c4 04	 add	 esp, 4
  00020	5f		 pop	 edi
  00021	5e		 pop	 esi
  00022	5b		 pop	 ebx
  00023	8b e5		 mov	 esp, ebp
  00025	5d		 pop	 ebp
  00026	c3		 ret	 0
??__EwsEvenChipServerCli@@YAXXZ ENDP			; `dynamic initializer for 'wsEvenChipServerCli''
text$di	ENDS
; Function compile flags: /Odtp /ZI
;	COMDAT ??__FwsRServerCli@@YAXXZ
text$yd	SEGMENT
??__FwsRServerCli@@YAXXZ PROC				; `dynamic atexit destructor for 'wsRServerCli'', COMDAT
  00000	55		 push	 ebp
  00001	8b ec		 mov	 ebp, esp
  00003	83 ec 40	 sub	 esp, 64			; 00000040H
  00006	53		 push	 ebx
  00007	56		 push	 esi
  00008	57		 push	 edi
  00009	b9 00 00 00 00	 mov	 ecx, OFFSET ?wsRServerCli@@3VwsJoinServerCli@@A ; wsRServerCli
  0000e	e8 00 00 00 00	 call	 ??1wsJoinServerCli@@UAE@XZ ; wsJoinServerCli::~wsJoinServerCli
  00013	5f		 pop	 edi
  00014	5e		 pop	 esi
  00015	5b		 pop	 ebx
  00016	8b e5		 mov	 esp, ebp
  00018	5d		 pop	 ebp
  00019	c3		 ret	 0
??__FwsRServerCli@@YAXXZ ENDP				; `dynamic atexit destructor for 'wsRServerCli''
text$yd	ENDS
; Function compile flags: /Odtp /ZI
; File C:\Mu Online\Mu-GS-Webzen-MC-10093\GameServer\Gamemain.cpp
;	COMDAT ??__EwsRServerCli@@YAXXZ
text$di	SEGMENT
??__EwsRServerCli@@YAXXZ PROC				; `dynamic initializer for 'wsRServerCli'', COMDAT

; 352  : wsJoinServerCli wsRServerCli;			//  

  00000	55		 push	 ebp
  00001	8b ec		 mov	 ebp, esp
  00003	83 ec 40	 sub	 esp, 64			; 00000040H
  00006	53		 push	 ebx
  00007	56		 push	 esi
  00008	57		 push	 edi
  00009	b9 00 00 00 00	 mov	 ecx, OFFSET ?wsRServerCli@@3VwsJoinServerCli@@A ; wsRServerCli
  0000e	e8 00 00 00 00	 call	 ??0wsJoinServerCli@@QAE@XZ ; wsJoinServerCli::wsJoinServerCli
  00013	68 00 00 00 00	 push	 OFFSET ??__FwsRServerCli@@YAXXZ ; `dynamic atexit destructor for 'wsRServerCli''
  00018	e8 00 00 00 00	 call	 _atexit
  0001d	83 c4 04	 add	 esp, 4
  00020	5f		 pop	 edi
  00021	5e		 pop	 esi
  00022	5b		 pop	 ebx
  00023	8b e5		 mov	 esp, ebp
  00025	5d		 pop	 ebp
  00026	c3		 ret	 0
??__EwsRServerCli@@YAXXZ ENDP				; `dynamic initializer for 'wsRServerCli''
text$di	ENDS
; Function compile flags: /Odtp /ZI
;	COMDAT ??__FwsExDbCli@@YAXXZ
text$yd	SEGMENT
??__FwsExDbCli@@YAXXZ PROC				; `dynamic atexit destructor for 'wsExDbCli'', COMDAT
  00000	55		 push	 ebp
  00001	8b ec		 mov	 ebp, esp
  00003	83 ec 40	 sub	 esp, 64			; 00000040H
  00006	53		 push	 ebx
  00007	56		 push	 esi
  00008	57		 push	 edi
  00009	b9 00 00 00 00	 mov	 ecx, OFFSET ?wsExDbCli@@3VwsJoinServerCli@@A ; wsExDbCli
  0000e	e8 00 00 00 00	 call	 ??1wsJoinServerCli@@UAE@XZ ; wsJoinServerCli::~wsJoinServerCli
  00013	5f		 pop	 edi
  00014	5e		 pop	 esi
  00015	5b		 pop	 ebx
  00016	8b e5		 mov	 esp, ebp
  00018	5d		 pop	 ebp
  00019	c3		 ret	 0
??__FwsExDbCli@@YAXXZ ENDP				; `dynamic atexit destructor for 'wsExDbCli''
text$yd	ENDS
; Function compile flags: /Odtp /ZI
; File C:\Mu Online\Mu-GS-Webzen-MC-10093\GameServer\Gamemain.cpp
;	COMDAT ??__EwsExDbCli@@YAXXZ
text$di	SEGMENT
??__EwsExDbCli@@YAXXZ PROC				; `dynamic initializer for 'wsExDbCli'', COMDAT

; 347  : wsJoinServerCli wsExDbCli;

  00000	55		 push	 ebp
  00001	8b ec		 mov	 ebp, esp
  00003	83 ec 40	 sub	 esp, 64			; 00000040H
  00006	53		 push	 ebx
  00007	56		 push	 esi
  00008	57		 push	 edi
  00009	b9 00 00 00 00	 mov	 ecx, OFFSET ?wsExDbCli@@3VwsJoinServerCli@@A ; wsExDbCli
  0000e	e8 00 00 00 00	 call	 ??0wsJoinServerCli@@QAE@XZ ; wsJoinServerCli::wsJoinServerCli
  00013	68 00 00 00 00	 push	 OFFSET ??__FwsExDbCli@@YAXXZ ; `dynamic atexit destructor for 'wsExDbCli''
  00018	e8 00 00 00 00	 call	 _atexit
  0001d	83 c4 04	 add	 esp, 4
  00020	5f		 pop	 edi
  00021	5e		 pop	 esi
  00022	5b		 pop	 ebx
  00023	8b e5		 mov	 esp, ebp
  00025	5d		 pop	 ebp
  00026	c3		 ret	 0
??__EwsExDbCli@@YAXXZ ENDP				; `dynamic initializer for 'wsExDbCli''
text$di	ENDS
; Function compile flags: /Odtp /ZI
;	COMDAT ??__FwsDataCli@@YAXXZ
text$yd	SEGMENT
??__FwsDataCli@@YAXXZ PROC				; `dynamic atexit destructor for 'wsDataCli'', COMDAT
  00000	55		 push	 ebp
  00001	8b ec		 mov	 ebp, esp
  00003	83 ec 40	 sub	 esp, 64			; 00000040H
  00006	53		 push	 ebx
  00007	56		 push	 esi
  00008	57		 push	 edi
  00009	b9 00 00 00 00	 mov	 ecx, OFFSET ?wsDataCli@@3VwsJoinServerCli@@A ; wsDataCli
  0000e	e8 00 00 00 00	 call	 ??1wsJoinServerCli@@UAE@XZ ; wsJoinServerCli::~wsJoinServerCli
  00013	5f		 pop	 edi
  00014	5e		 pop	 esi
  00015	5b		 pop	 ebx
  00016	8b e5		 mov	 esp, ebp
  00018	5d		 pop	 ebp
  00019	c3		 ret	 0
??__FwsDataCli@@YAXXZ ENDP				; `dynamic atexit destructor for 'wsDataCli''
text$yd	ENDS
; Function compile flags: /Odtp /ZI
; File C:\Mu Online\Mu-GS-Webzen-MC-10093\GameServer\Gamemain.cpp
;	COMDAT ??__EwsDataCli@@YAXXZ
text$di	SEGMENT
??__EwsDataCli@@YAXXZ PROC				; `dynamic initializer for 'wsDataCli'', COMDAT

; 323  : wsJoinServerCli wsDataCli;

  00000	55		 push	 ebp
  00001	8b ec		 mov	 ebp, esp
  00003	83 ec 40	 sub	 esp, 64			; 00000040H
  00006	53		 push	 ebx
  00007	56		 push	 esi
  00008	57		 push	 edi
  00009	b9 00 00 00 00	 mov	 ecx, OFFSET ?wsDataCli@@3VwsJoinServerCli@@A ; wsDataCli
  0000e	e8 00 00 00 00	 call	 ??0wsJoinServerCli@@QAE@XZ ; wsJoinServerCli::wsJoinServerCli
  00013	68 00 00 00 00	 push	 OFFSET ??__FwsDataCli@@YAXXZ ; `dynamic atexit destructor for 'wsDataCli''
  00018	e8 00 00 00 00	 call	 _atexit
  0001d	83 c4 04	 add	 esp, 4
  00020	5f		 pop	 edi
  00021	5e		 pop	 esi
  00022	5b		 pop	 ebx
  00023	8b e5		 mov	 esp, ebp
  00025	5d		 pop	 ebp
  00026	c3		 ret	 0
??__EwsDataCli@@YAXXZ ENDP				; `dynamic initializer for 'wsDataCli''
text$di	ENDS
; Function compile flags: /Odtp /ZI
;	COMDAT ??__FwsJServerCli@@YAXXZ
text$yd	SEGMENT
??__FwsJServerCli@@YAXXZ PROC				; `dynamic atexit destructor for 'wsJServerCli'', COMDAT
  00000	55		 push	 ebp
  00001	8b ec		 mov	 ebp, esp
  00003	83 ec 40	 sub	 esp, 64			; 00000040H
  00006	53		 push	 ebx
  00007	56		 push	 esi
  00008	57		 push	 edi
  00009	b9 00 00 00 00	 mov	 ecx, OFFSET ?wsJServerCli@@3VwsJoinServerCli@@A ; wsJServerCli
  0000e	e8 00 00 00 00	 call	 ??1wsJoinServerCli@@UAE@XZ ; wsJoinServerCli::~wsJoinServerCli
  00013	5f		 pop	 edi
  00014	5e		 pop	 esi
  00015	5b		 pop	 ebx
  00016	8b e5		 mov	 esp, ebp
  00018	5d		 pop	 ebp
  00019	c3		 ret	 0
??__FwsJServerCli@@YAXXZ ENDP				; `dynamic atexit destructor for 'wsJServerCli''
text$yd	ENDS
; Function compile flags: /Odtp /ZI
; File C:\Mu Online\Mu-GS-Webzen-MC-10093\GameServer\Gamemain.cpp
;	COMDAT ??__EwsJServerCli@@YAXXZ
text$di	SEGMENT
??__EwsJServerCli@@YAXXZ PROC				; `dynamic initializer for 'wsJServerCli'', COMDAT

; 322  : wsJoinServerCli wsJServerCli;

  00000	55		 push	 ebp
  00001	8b ec		 mov	 ebp, esp
  00003	83 ec 40	 sub	 esp, 64			; 00000040H
  00006	53		 push	 ebx
  00007	56		 push	 esi
  00008	57		 push	 edi
  00009	b9 00 00 00 00	 mov	 ecx, OFFSET ?wsJServerCli@@3VwsJoinServerCli@@A ; wsJServerCli
  0000e	e8 00 00 00 00	 call	 ??0wsJoinServerCli@@QAE@XZ ; wsJoinServerCli::wsJoinServerCli
  00013	68 00 00 00 00	 push	 OFFSET ??__FwsJServerCli@@YAXXZ ; `dynamic atexit destructor for 'wsJServerCli''
  00018	e8 00 00 00 00	 call	 _atexit
  0001d	83 c4 04	 add	 esp, 4
  00020	5f		 pop	 edi
  00021	5e		 pop	 esi
  00022	5b		 pop	 ebx
  00023	8b e5		 mov	 esp, ebp
  00025	5d		 pop	 ebp
  00026	c3		 ret	 0
??__EwsJServerCli@@YAXXZ ENDP				; `dynamic initializer for 'wsJServerCli''
text$di	ENDS
; Function compile flags: /Odtp /ZI
;	COMDAT ??__FwsGServer@@YAXXZ
text$yd	SEGMENT
??__FwsGServer@@YAXXZ PROC				; `dynamic atexit destructor for 'wsGServer'', COMDAT
  00000	55		 push	 ebp
  00001	8b ec		 mov	 ebp, esp
  00003	83 ec 40	 sub	 esp, 64			; 00000040H
  00006	53		 push	 ebx
  00007	56		 push	 esi
  00008	57		 push	 edi
  00009	b9 00 00 00 00	 mov	 ecx, OFFSET ?wsGServer@@3VCwsGameServer@@A ; wsGServer
  0000e	e8 00 00 00 00	 call	 ??1CwsGameServer@@UAE@XZ ; CwsGameServer::~CwsGameServer
  00013	5f		 pop	 edi
  00014	5e		 pop	 esi
  00015	5b		 pop	 ebx
  00016	8b e5		 mov	 esp, ebp
  00018	5d		 pop	 ebp
  00019	c3		 ret	 0
??__FwsGServer@@YAXXZ ENDP				; `dynamic atexit destructor for 'wsGServer''
text$yd	ENDS
; Function compile flags: /Odtp /ZI
; File C:\Mu Online\Mu-GS-Webzen-MC-10093\GameServer\Gamemain.cpp
;	COMDAT ??__EwsGServer@@YAXXZ
text$di	SEGMENT
??__EwsGServer@@YAXXZ PROC				; `dynamic initializer for 'wsGServer'', COMDAT

; 321  : CwsGameServer	wsGServer;

  00000	55		 push	 ebp
  00001	8b ec		 mov	 ebp, esp
  00003	83 ec 40	 sub	 esp, 64			; 00000040H
  00006	53		 push	 ebx
  00007	56		 push	 esi
  00008	57		 push	 edi
  00009	b9 00 00 00 00	 mov	 ecx, OFFSET ?wsGServer@@3VCwsGameServer@@A ; wsGServer
  0000e	e8 00 00 00 00	 call	 ??0CwsGameServer@@QAE@XZ ; CwsGameServer::CwsGameServer
  00013	68 00 00 00 00	 push	 OFFSET ??__FwsGServer@@YAXXZ ; `dynamic atexit destructor for 'wsGServer''
  00018	e8 00 00 00 00	 call	 _atexit
  0001d	83 c4 04	 add	 esp, 4
  00020	5f		 pop	 edi
  00021	5e		 pop	 esi
  00022	5b		 pop	 ebx
  00023	8b e5		 mov	 esp, ebp
  00025	5d		 pop	 ebp
  00026	c3		 ret	 0
??__EwsGServer@@YAXXZ ENDP				; `dynamic initializer for 'wsGServer''
text$di	ENDS
; Function compile flags: /Odtp /ZI
; File C:\Mu Online\Mu-GS-Webzen-MC-10093\GameServer\ChaosCastle.h
;	COMDAT ??__Eg_iChaosCastle_MonsterItems@@YAXXZ
text$di	SEGMENT
??__Eg_iChaosCastle_MonsterItems@@YAXXZ PROC		; `dynamic initializer for 'g_iChaosCastle_MonsterItems'', COMDAT

; 359  : };

  00000	55		 push	 ebp
  00001	8b ec		 mov	 ebp, esp
  00003	83 ec 40	 sub	 esp, 64			; 00000040H
  00006	53		 push	 ebx
  00007	56		 push	 esi
  00008	57		 push	 edi

; 337  : 	MAKE_ITEMNUM(14, 13),		1,								// 1  - 

  00009	6a 0d		 push	 13			; 0000000dH
  0000b	6a 0e		 push	 14			; 0000000eH
  0000d	e8 00 00 00 00	 call	 ?MakeItemNumber@@YAHHH@Z ; MakeItemNumber
  00012	83 c4 08	 add	 esp, 8
  00015	a3 00 00 00 00	 mov	 DWORD PTR ?g_iChaosCastle_MonsterItems@@3PAY111HA, eax
  0001a	c7 05 04 00 00
	00 01 00 00 00	 mov	 DWORD PTR ?g_iChaosCastle_MonsterItems@@3PAY111HA+4, 1

; 338  : 	MAKE_ITEMNUM(14, 14),		2,								// 1  - 

  00024	6a 0e		 push	 14			; 0000000eH
  00026	6a 0e		 push	 14			; 0000000eH
  00028	e8 00 00 00 00	 call	 ?MakeItemNumber@@YAHHH@Z ; MakeItemNumber
  0002d	83 c4 08	 add	 esp, 8
  00030	a3 08 00 00 00	 mov	 DWORD PTR ?g_iChaosCastle_MonsterItems@@3PAY111HA+8, eax
  00035	c7 05 0c 00 00
	00 02 00 00 00	 mov	 DWORD PTR ?g_iChaosCastle_MonsterItems@@3PAY111HA+12, 2

; 339  : 	
; 340  : 	MAKE_ITEMNUM(14, 13),		1,								// 2  - 

  0003f	6a 0d		 push	 13			; 0000000dH
  00041	6a 0e		 push	 14			; 0000000eH
  00043	e8 00 00 00 00	 call	 ?MakeItemNumber@@YAHHH@Z ; MakeItemNumber
  00048	83 c4 08	 add	 esp, 8
  0004b	a3 10 00 00 00	 mov	 DWORD PTR ?g_iChaosCastle_MonsterItems@@3PAY111HA+16, eax
  00050	c7 05 14 00 00
	00 01 00 00 00	 mov	 DWORD PTR ?g_iChaosCastle_MonsterItems@@3PAY111HA+20, 1

; 341  : 	MAKE_ITEMNUM(14, 14),		3,								// 2  - 

  0005a	6a 0e		 push	 14			; 0000000eH
  0005c	6a 0e		 push	 14			; 0000000eH
  0005e	e8 00 00 00 00	 call	 ?MakeItemNumber@@YAHHH@Z ; MakeItemNumber
  00063	83 c4 08	 add	 esp, 8
  00066	a3 18 00 00 00	 mov	 DWORD PTR ?g_iChaosCastle_MonsterItems@@3PAY111HA+24, eax
  0006b	c7 05 1c 00 00
	00 03 00 00 00	 mov	 DWORD PTR ?g_iChaosCastle_MonsterItems@@3PAY111HA+28, 3

; 342  : 	
; 343  : 	MAKE_ITEMNUM(14, 13),		1,								// 3  - 

  00075	6a 0d		 push	 13			; 0000000dH
  00077	6a 0e		 push	 14			; 0000000eH
  00079	e8 00 00 00 00	 call	 ?MakeItemNumber@@YAHHH@Z ; MakeItemNumber
  0007e	83 c4 08	 add	 esp, 8
  00081	a3 20 00 00 00	 mov	 DWORD PTR ?g_iChaosCastle_MonsterItems@@3PAY111HA+32, eax
  00086	c7 05 24 00 00
	00 01 00 00 00	 mov	 DWORD PTR ?g_iChaosCastle_MonsterItems@@3PAY111HA+36, 1

; 344  : 	MAKE_ITEMNUM(14, 14),		3,								// 3  - 

  00090	6a 0e		 push	 14			; 0000000eH
  00092	6a 0e		 push	 14			; 0000000eH
  00094	e8 00 00 00 00	 call	 ?MakeItemNumber@@YAHHH@Z ; MakeItemNumber
  00099	83 c4 08	 add	 esp, 8
  0009c	a3 28 00 00 00	 mov	 DWORD PTR ?g_iChaosCastle_MonsterItems@@3PAY111HA+40, eax
  000a1	c7 05 2c 00 00
	00 03 00 00 00	 mov	 DWORD PTR ?g_iChaosCastle_MonsterItems@@3PAY111HA+44, 3

; 345  : 	
; 346  : 	MAKE_ITEMNUM(14, 13),		2,								// 4  - 

  000ab	6a 0d		 push	 13			; 0000000dH
  000ad	6a 0e		 push	 14			; 0000000eH
  000af	e8 00 00 00 00	 call	 ?MakeItemNumber@@YAHHH@Z ; MakeItemNumber
  000b4	83 c4 08	 add	 esp, 8
  000b7	a3 30 00 00 00	 mov	 DWORD PTR ?g_iChaosCastle_MonsterItems@@3PAY111HA+48, eax
  000bc	c7 05 34 00 00
	00 02 00 00 00	 mov	 DWORD PTR ?g_iChaosCastle_MonsterItems@@3PAY111HA+52, 2

; 347  : 	MAKE_ITEMNUM(14, 14),		2,								// 4  - 

  000c6	6a 0e		 push	 14			; 0000000eH
  000c8	6a 0e		 push	 14			; 0000000eH
  000ca	e8 00 00 00 00	 call	 ?MakeItemNumber@@YAHHH@Z ; MakeItemNumber
  000cf	83 c4 08	 add	 esp, 8
  000d2	a3 38 00 00 00	 mov	 DWORD PTR ?g_iChaosCastle_MonsterItems@@3PAY111HA+56, eax
  000d7	c7 05 3c 00 00
	00 02 00 00 00	 mov	 DWORD PTR ?g_iChaosCastle_MonsterItems@@3PAY111HA+60, 2

; 348  : 	
; 349  : 	MAKE_ITEMNUM(14, 13),		2,								// 5  - 

  000e1	6a 0d		 push	 13			; 0000000dH
  000e3	6a 0e		 push	 14			; 0000000eH
  000e5	e8 00 00 00 00	 call	 ?MakeItemNumber@@YAHHH@Z ; MakeItemNumber
  000ea	83 c4 08	 add	 esp, 8
  000ed	a3 40 00 00 00	 mov	 DWORD PTR ?g_iChaosCastle_MonsterItems@@3PAY111HA+64, eax
  000f2	c7 05 44 00 00
	00 02 00 00 00	 mov	 DWORD PTR ?g_iChaosCastle_MonsterItems@@3PAY111HA+68, 2

; 350  : 	MAKE_ITEMNUM(14, 14),		3,								// 5  - 

  000fc	6a 0e		 push	 14			; 0000000eH
  000fe	6a 0e		 push	 14			; 0000000eH
  00100	e8 00 00 00 00	 call	 ?MakeItemNumber@@YAHHH@Z ; MakeItemNumber
  00105	83 c4 08	 add	 esp, 8
  00108	a3 48 00 00 00	 mov	 DWORD PTR ?g_iChaosCastle_MonsterItems@@3PAY111HA+72, eax
  0010d	c7 05 4c 00 00
	00 03 00 00 00	 mov	 DWORD PTR ?g_iChaosCastle_MonsterItems@@3PAY111HA+76, 3

; 351  : 	
; 352  : 	MAKE_ITEMNUM(14, 13),		2,								// 6  - 

  00117	6a 0d		 push	 13			; 0000000dH
  00119	6a 0e		 push	 14			; 0000000eH
  0011b	e8 00 00 00 00	 call	 ?MakeItemNumber@@YAHHH@Z ; MakeItemNumber
  00120	83 c4 08	 add	 esp, 8
  00123	a3 50 00 00 00	 mov	 DWORD PTR ?g_iChaosCastle_MonsterItems@@3PAY111HA+80, eax
  00128	c7 05 54 00 00
	00 02 00 00 00	 mov	 DWORD PTR ?g_iChaosCastle_MonsterItems@@3PAY111HA+84, 2

; 353  : 	MAKE_ITEMNUM(14, 14),		3,								// 6  - 

  00132	6a 0e		 push	 14			; 0000000eH
  00134	6a 0e		 push	 14			; 0000000eH
  00136	e8 00 00 00 00	 call	 ?MakeItemNumber@@YAHHH@Z ; MakeItemNumber
  0013b	83 c4 08	 add	 esp, 8
  0013e	a3 58 00 00 00	 mov	 DWORD PTR ?g_iChaosCastle_MonsterItems@@3PAY111HA+88, eax
  00143	c7 05 5c 00 00
	00 03 00 00 00	 mov	 DWORD PTR ?g_iChaosCastle_MonsterItems@@3PAY111HA+92, 3
  0014d	5f		 pop	 edi
  0014e	5e		 pop	 esi
  0014f	5b		 pop	 ebx
  00150	8b e5		 mov	 esp, ebp
  00152	5d		 pop	 ebp
  00153	c3		 ret	 0
??__Eg_iChaosCastle_MonsterItems@@YAXXZ ENDP		; `dynamic initializer for 'g_iChaosCastle_MonsterItems''
text$di	ENDS
; Function compile flags: /Odtp /ZI
; File C:\Mu Online\Mu-GS-Webzen-MC-10093\GameServer\Gamemain.cpp
;	COMDAT ?ReadEventInfo@@YAXW4MU_EVENT_TYPE@@@Z
_TEXT	SEGMENT
tv64 = -648						; size = 4
_szTemp$1 = -516					; size = 256
_szTemp$ = -260						; size = 256
__$ArrayPad$ = -4					; size = 4
_eEventType$ = 8					; size = 4
?ReadEventInfo@@YAXW4MU_EVENT_TYPE@@@Z PROC		; ReadEventInfo, COMDAT

; 5961 : {

  00000	55		 push	 ebp
  00001	8b ec		 mov	 ebp, esp
  00003	81 ec 88 02 00
	00		 sub	 esp, 648		; 00000288H
  00009	a1 00 00 00 00	 mov	 eax, DWORD PTR ___security_cookie
  0000e	33 c5		 xor	 eax, ebp
  00010	89 45 fc	 mov	 DWORD PTR __$ArrayPad$[ebp], eax
  00013	53		 push	 ebx
  00014	56		 push	 esi
  00015	57		 push	 edi

; 5962 : 	char szTemp[256];	
; 5963 : 
; 5964 : 	switch(eEventType) {

  00016	8b 45 08	 mov	 eax, DWORD PTR _eEventType$[ebp]
  00019	89 85 78 fd ff
	ff		 mov	 DWORD PTR tv64[ebp], eax
  0001f	83 bd 78 fd ff
	ff 0d		 cmp	 DWORD PTR tv64[ebp], 13	; 0000000dH
  00026	0f 87 4b 15 00
	00		 ja	 $LN22@ReadEventI
  0002c	8b 8d 78 fd ff
	ff		 mov	 ecx, DWORD PTR tv64[ebp]
  00032	ff 24 8d 00 00
	00 00		 jmp	 DWORD PTR $LN24@ReadEventI[ecx*4]
$LN4@ReadEventI:

; 5965 : 
; 5966 : 	case MU_EVENT_ALL :					//    
; 5967 : 		{
; 5968 : 			// 1 .  
; 5969 : 			g_DevilSquare.Load(gDirPath.GetNewPath("DevilSquare.dat"));

  00039	68 00 00 00 00	 push	 OFFSET ??_C@_0BA@JLLODMHA@DevilSquare?4dat@
  0003e	b9 00 00 00 00	 mov	 ecx, OFFSET ?gDirPath@@3VCDirPath@@A ; gDirPath
  00043	e8 00 00 00 00	 call	 ?GetNewPath@CDirPath@@QAEPADPAD@Z ; CDirPath::GetNewPath
  00048	50		 push	 eax
  00049	b9 00 00 00 00	 mov	 ecx, OFFSET ?g_DevilSquare@@3VCDevilSquare@@A ; g_DevilSquare
  0004e	e8 00 00 00 00	 call	 ?Load@CDevilSquare@@QAEXPAD@Z ; CDevilSquare::Load

; 5970 : 			gDevilSquareEvent			= GetPrivateProfileInt("GameServerInfo", "DevilSquareEvent", 0, gDirPath.GetNewPath("commonserver.cfg"));

  00053	68 00 00 00 00	 push	 OFFSET ??_C@_0BB@IGLHFEOF@commonserver?4cfg@
  00058	b9 00 00 00 00	 mov	 ecx, OFFSET ?gDirPath@@3VCDirPath@@A ; gDirPath
  0005d	e8 00 00 00 00	 call	 ?GetNewPath@CDirPath@@QAEPADPAD@Z ; CDirPath::GetNewPath
  00062	50		 push	 eax
  00063	6a 00		 push	 0
  00065	68 00 00 00 00	 push	 OFFSET ??_C@_0BB@PNANPJHI@DevilSquareEvent@
  0006a	68 00 00 00 00	 push	 OFFSET ??_C@_0P@EMJDPFDH@GameServerInfo@
  0006f	ff 15 00 00 00
	00		 call	 DWORD PTR __imp__GetPrivateProfileIntA@16
  00075	a3 00 00 00 00	 mov	 DWORD PTR ?gDevilSquareEvent@@3HA, eax ; gDevilSquareEvent

; 5971 : 			gEyesOfDevilSquareDropRate	= GetPrivateProfileInt("GameServerInfo", "EyesOfDevilSquareDropRate", 2, gDirPath.GetNewPath("commonserver.cfg"));

  0007a	68 00 00 00 00	 push	 OFFSET ??_C@_0BB@IGLHFEOF@commonserver?4cfg@
  0007f	b9 00 00 00 00	 mov	 ecx, OFFSET ?gDirPath@@3VCDirPath@@A ; gDirPath
  00084	e8 00 00 00 00	 call	 ?GetNewPath@CDirPath@@QAEPADPAD@Z ; CDirPath::GetNewPath
  00089	50		 push	 eax
  0008a	6a 02		 push	 2
  0008c	68 00 00 00 00	 push	 OFFSET ??_C@_0BK@NJHGKMMN@EyesOfDevilSquareDropRate@
  00091	68 00 00 00 00	 push	 OFFSET ??_C@_0P@EMJDPFDH@GameServerInfo@
  00096	ff 15 00 00 00
	00		 call	 DWORD PTR __imp__GetPrivateProfileIntA@16
  0009c	a3 00 00 00 00	 mov	 DWORD PTR ?gEyesOfDevilSquareDropRate@@3HA, eax ; gEyesOfDevilSquareDropRate

; 5972 : 			gKeyOfDevilSquareDropRate	= GetPrivateProfileInt("GameServerInfo", "KeyOfDevilSquareDropRate", 2, gDirPath.GetNewPath("commonserver.cfg"));	   

  000a1	68 00 00 00 00	 push	 OFFSET ??_C@_0BB@IGLHFEOF@commonserver?4cfg@
  000a6	b9 00 00 00 00	 mov	 ecx, OFFSET ?gDirPath@@3VCDirPath@@A ; gDirPath
  000ab	e8 00 00 00 00	 call	 ?GetNewPath@CDirPath@@QAEPADPAD@Z ; CDirPath::GetNewPath
  000b0	50		 push	 eax
  000b1	6a 02		 push	 2
  000b3	68 00 00 00 00	 push	 OFFSET ??_C@_0BJ@DHGJEDK@KeyOfDevilSquareDropRate@
  000b8	68 00 00 00 00	 push	 OFFSET ??_C@_0P@EMJDPFDH@GameServerInfo@
  000bd	ff 15 00 00 00
	00		 call	 DWORD PTR __imp__GetPrivateProfileIntA@16
  000c3	a3 00 00 00 00	 mov	 DWORD PTR ?gKeyOfDevilSquareDropRate@@3HA, eax ; gKeyOfDevilSquareDropRate

; 5973 : 			
; 5974 : 			// 2 . 
; 5975 : #ifdef FOR_BLOODCASTLE
; 5976 : 			g_BloodCastle.Load(gDirPath.GetNewPath("BloodCastle.dat"));

  000c8	68 00 00 00 00	 push	 OFFSET ??_C@_0BA@CJKIMMIB@BloodCastle?4dat@
  000cd	b9 00 00 00 00	 mov	 ecx, OFFSET ?gDirPath@@3VCDirPath@@A ; gDirPath
  000d2	e8 00 00 00 00	 call	 ?GetNewPath@CDirPath@@QAEPADPAD@Z ; CDirPath::GetNewPath
  000d7	50		 push	 eax
  000d8	b9 00 00 00 00	 mov	 ecx, OFFSET ?g_BloodCastle@@3VCBloodCastle@@A ; g_BloodCastle
  000dd	e8 00 00 00 00	 call	 ?Load@CBloodCastle@@QAEXPAD@Z ; CBloodCastle::Load

; 5977 : 			g_bBloodCastle				= GetPrivateProfileInt("GameServerInfo", "BloodCastleEvent", 0, gDirPath.GetNewPath("commonserver.cfg"));

  000e2	68 00 00 00 00	 push	 OFFSET ??_C@_0BB@IGLHFEOF@commonserver?4cfg@
  000e7	b9 00 00 00 00	 mov	 ecx, OFFSET ?gDirPath@@3VCDirPath@@A ; gDirPath
  000ec	e8 00 00 00 00	 call	 ?GetNewPath@CDirPath@@QAEPADPAD@Z ; CDirPath::GetNewPath
  000f1	50		 push	 eax
  000f2	6a 00		 push	 0
  000f4	68 00 00 00 00	 push	 OFFSET ??_C@_0BB@DHAFCNAC@BloodCastleEvent@
  000f9	68 00 00 00 00	 push	 OFFSET ??_C@_0P@EMJDPFDH@GameServerInfo@
  000fe	ff 15 00 00 00
	00		 call	 DWORD PTR __imp__GetPrivateProfileIntA@16
  00104	a3 00 00 00 00	 mov	 DWORD PTR ?g_bBloodCastle@@3HA, eax ; g_bBloodCastle

; 5978 : 			g_iBloodCastle_StartHour	= GetPrivateProfileInt("GameServerInfo", "BloodCastleStartHour", 1, gDirPath.GetNewPath("commonserver.cfg"));

  00109	68 00 00 00 00	 push	 OFFSET ??_C@_0BB@IGLHFEOF@commonserver?4cfg@
  0010e	b9 00 00 00 00	 mov	 ecx, OFFSET ?gDirPath@@3VCDirPath@@A ; gDirPath
  00113	e8 00 00 00 00	 call	 ?GetNewPath@CDirPath@@QAEPADPAD@Z ; CDirPath::GetNewPath
  00118	50		 push	 eax
  00119	6a 01		 push	 1
  0011b	68 00 00 00 00	 push	 OFFSET ??_C@_0BF@DLNBCIAJ@BloodCastleStartHour@
  00120	68 00 00 00 00	 push	 OFFSET ??_C@_0P@EMJDPFDH@GameServerInfo@
  00125	ff 15 00 00 00
	00		 call	 DWORD PTR __imp__GetPrivateProfileIntA@16
  0012b	a3 00 00 00 00	 mov	 DWORD PTR ?g_iBloodCastle_StartHour@@3HA, eax ; g_iBloodCastle_StartHour

; 5979 : 			g_iAngelKingsPaperDropRate	= GetPrivateProfileInt("GameServerInfo", "AngelKingsPaperDropRate", 0, gDirPath.GetNewPath("commonserver.cfg"));

  00130	68 00 00 00 00	 push	 OFFSET ??_C@_0BB@IGLHFEOF@commonserver?4cfg@
  00135	b9 00 00 00 00	 mov	 ecx, OFFSET ?gDirPath@@3VCDirPath@@A ; gDirPath
  0013a	e8 00 00 00 00	 call	 ?GetNewPath@CDirPath@@QAEPADPAD@Z ; CDirPath::GetNewPath
  0013f	50		 push	 eax
  00140	6a 00		 push	 0
  00142	68 00 00 00 00	 push	 OFFSET ??_C@_0BI@KPDDGOOE@AngelKingsPaperDropRate@
  00147	68 00 00 00 00	 push	 OFFSET ??_C@_0P@EMJDPFDH@GameServerInfo@
  0014c	ff 15 00 00 00
	00		 call	 DWORD PTR __imp__GetPrivateProfileIntA@16
  00152	a3 00 00 00 00	 mov	 DWORD PTR ?g_iAngelKingsPaperDropRate@@3HA, eax ; g_iAngelKingsPaperDropRate

; 5980 : 			g_iBloodBoneDropRate		= GetPrivateProfileInt("GameServerInfo", "BloodBoneDropRate", 0, gDirPath.GetNewPath("commonserver.cfg"));

  00157	68 00 00 00 00	 push	 OFFSET ??_C@_0BB@IGLHFEOF@commonserver?4cfg@
  0015c	b9 00 00 00 00	 mov	 ecx, OFFSET ?gDirPath@@3VCDirPath@@A ; gDirPath
  00161	e8 00 00 00 00	 call	 ?GetNewPath@CDirPath@@QAEPADPAD@Z ; CDirPath::GetNewPath
  00166	50		 push	 eax
  00167	6a 00		 push	 0
  00169	68 00 00 00 00	 push	 OFFSET ??_C@_0BC@NGLLHLOE@BloodBoneDropRate@
  0016e	68 00 00 00 00	 push	 OFFSET ??_C@_0P@EMJDPFDH@GameServerInfo@
  00173	ff 15 00 00 00
	00		 call	 DWORD PTR __imp__GetPrivateProfileIntA@16
  00179	a3 00 00 00 00	 mov	 DWORD PTR ?g_iBloodBoneDropRate@@3HA, eax ; g_iBloodBoneDropRate

; 5981 : 			g_iStoneDropRate			= GetPrivateProfileInt("GameServerInfo", "StoneDropRate", 0, gDirPath.GetNewPath("commonserver.cfg"));

  0017e	68 00 00 00 00	 push	 OFFSET ??_C@_0BB@IGLHFEOF@commonserver?4cfg@
  00183	b9 00 00 00 00	 mov	 ecx, OFFSET ?gDirPath@@3VCDirPath@@A ; gDirPath
  00188	e8 00 00 00 00	 call	 ?GetNewPath@CDirPath@@QAEPADPAD@Z ; CDirPath::GetNewPath
  0018d	50		 push	 eax
  0018e	6a 00		 push	 0
  00190	68 00 00 00 00	 push	 OFFSET ??_C@_0O@PBCFFJJH@StoneDropRate@
  00195	68 00 00 00 00	 push	 OFFSET ??_C@_0P@EMJDPFDH@GameServerInfo@
  0019a	ff 15 00 00 00
	00		 call	 DWORD PTR __imp__GetPrivateProfileIntA@16
  001a0	a3 00 00 00 00	 mov	 DWORD PTR ?g_iStoneDropRate@@3HA, eax ; g_iStoneDropRate

; 5982 : 
; 5983 : #ifdef UPDATE_BLOODECASTLE_SCADULE_20070702
; 5984 : 			g_iBloodCastle_odd_Even_Hour= GetPrivateProfileInt("GameServerInfo", "BloodCastleOddEvenHour", 0, gDirPath.GetNewPath("commonserver.cfg"));
; 5985 : #endif
; 5986 : 
; 5987 : #endif
; 5988 : 
; 5989 : #ifdef DARKLORD_WORK
; 5990 : 			gIsDropDarkLordItem	= GetPrivateProfileInt("GameServerInfo", "IsDropDarkLordItem", 0, gDirPath.GetNewPath("commonserver.cfg"));

  001a5	68 00 00 00 00	 push	 OFFSET ??_C@_0BB@IGLHFEOF@commonserver?4cfg@
  001aa	b9 00 00 00 00	 mov	 ecx, OFFSET ?gDirPath@@3VCDirPath@@A ; gDirPath
  001af	e8 00 00 00 00	 call	 ?GetNewPath@CDirPath@@QAEPADPAD@Z ; CDirPath::GetNewPath
  001b4	50		 push	 eax
  001b5	6a 00		 push	 0
  001b7	68 00 00 00 00	 push	 OFFSET ??_C@_0BD@KIIHPPEC@IsDropDarkLordItem@
  001bc	68 00 00 00 00	 push	 OFFSET ??_C@_0P@EMJDPFDH@GameServerInfo@
  001c1	ff 15 00 00 00
	00		 call	 DWORD PTR __imp__GetPrivateProfileIntA@16
  001c7	a3 00 00 00 00	 mov	 DWORD PTR ?gIsDropDarkLordItem@@3HA, eax ; gIsDropDarkLordItem

; 5991 : 			gSleeveOfLordDropRate	= GetPrivateProfileInt("GameServerInfo", "SleeveOfLordDropRate", 10, gDirPath.GetNewPath("commonserver.cfg"));

  001cc	68 00 00 00 00	 push	 OFFSET ??_C@_0BB@IGLHFEOF@commonserver?4cfg@
  001d1	b9 00 00 00 00	 mov	 ecx, OFFSET ?gDirPath@@3VCDirPath@@A ; gDirPath
  001d6	e8 00 00 00 00	 call	 ?GetNewPath@CDirPath@@QAEPADPAD@Z ; CDirPath::GetNewPath
  001db	50		 push	 eax
  001dc	6a 0a		 push	 10			; 0000000aH
  001de	68 00 00 00 00	 push	 OFFSET ??_C@_0BF@CIEOPDEB@SleeveOfLordDropRate@
  001e3	68 00 00 00 00	 push	 OFFSET ??_C@_0P@EMJDPFDH@GameServerInfo@
  001e8	ff 15 00 00 00
	00		 call	 DWORD PTR __imp__GetPrivateProfileIntA@16
  001ee	a3 00 00 00 00	 mov	 DWORD PTR ?gSleeveOfLordDropRate@@3HA, eax ; gSleeveOfLordDropRate

; 5992 : 			gSleeveOfLordDropLevel	= GetPrivateProfileInt("GameServerInfo", "SleeveOfLordDropLevel", 86, gDirPath.GetNewPath("commonserver.cfg"));

  001f3	68 00 00 00 00	 push	 OFFSET ??_C@_0BB@IGLHFEOF@commonserver?4cfg@
  001f8	b9 00 00 00 00	 mov	 ecx, OFFSET ?gDirPath@@3VCDirPath@@A ; gDirPath
  001fd	e8 00 00 00 00	 call	 ?GetNewPath@CDirPath@@QAEPADPAD@Z ; CDirPath::GetNewPath
  00202	50		 push	 eax
  00203	6a 56		 push	 86			; 00000056H
  00205	68 00 00 00 00	 push	 OFFSET ??_C@_0BG@KOOOBGPO@SleeveOfLordDropLevel@
  0020a	68 00 00 00 00	 push	 OFFSET ??_C@_0P@EMJDPFDH@GameServerInfo@
  0020f	ff 15 00 00 00
	00		 call	 DWORD PTR __imp__GetPrivateProfileIntA@16
  00215	a3 00 00 00 00	 mov	 DWORD PTR ?gSleeveOfLordDropLevel@@3HA, eax ; gSleeveOfLordDropLevel

; 5993 : 			gSoulOfDarkHorseDropRate	= GetPrivateProfileInt("GameServerInfo", "SoulOfDarkHorseDropRate", 10, gDirPath.GetNewPath("commonserver.cfg"));

  0021a	68 00 00 00 00	 push	 OFFSET ??_C@_0BB@IGLHFEOF@commonserver?4cfg@
  0021f	b9 00 00 00 00	 mov	 ecx, OFFSET ?gDirPath@@3VCDirPath@@A ; gDirPath
  00224	e8 00 00 00 00	 call	 ?GetNewPath@CDirPath@@QAEPADPAD@Z ; CDirPath::GetNewPath
  00229	50		 push	 eax
  0022a	6a 0a		 push	 10			; 0000000aH
  0022c	68 00 00 00 00	 push	 OFFSET ??_C@_0BI@LEJIBFOD@SoulOfDarkHorseDropRate@
  00231	68 00 00 00 00	 push	 OFFSET ??_C@_0P@EMJDPFDH@GameServerInfo@
  00236	ff 15 00 00 00
	00		 call	 DWORD PTR __imp__GetPrivateProfileIntA@16
  0023c	a3 00 00 00 00	 mov	 DWORD PTR ?gSoulOfDarkHorseDropRate@@3HA, eax ; gSoulOfDarkHorseDropRate

; 5994 : 			gSoulOfDarkHorseropLevel	= GetPrivateProfileInt("GameServerInfo", "SoulOfDarkHorseropLevel", 125, gDirPath.GetNewPath("commonserver.cfg"));g_iAngelKingsPaperDropRate	= GetPrivateProfileInt("GameServerInfo", "AngelKingsPaperDropRate", 0, gDirPath.GetNewPath("commonserver.cfg"));

  00241	68 00 00 00 00	 push	 OFFSET ??_C@_0BB@IGLHFEOF@commonserver?4cfg@
  00246	b9 00 00 00 00	 mov	 ecx, OFFSET ?gDirPath@@3VCDirPath@@A ; gDirPath
  0024b	e8 00 00 00 00	 call	 ?GetNewPath@CDirPath@@QAEPADPAD@Z ; CDirPath::GetNewPath
  00250	50		 push	 eax
  00251	6a 7d		 push	 125			; 0000007dH
  00253	68 00 00 00 00	 push	 OFFSET ??_C@_0BI@POMKNKAO@SoulOfDarkHorseropLevel@
  00258	68 00 00 00 00	 push	 OFFSET ??_C@_0P@EMJDPFDH@GameServerInfo@
  0025d	ff 15 00 00 00
	00		 call	 DWORD PTR __imp__GetPrivateProfileIntA@16
  00263	a3 00 00 00 00	 mov	 DWORD PTR ?gSoulOfDarkHorseropLevel@@3HA, eax ; gSoulOfDarkHorseropLevel
  00268	68 00 00 00 00	 push	 OFFSET ??_C@_0BB@IGLHFEOF@commonserver?4cfg@
  0026d	b9 00 00 00 00	 mov	 ecx, OFFSET ?gDirPath@@3VCDirPath@@A ; gDirPath
  00272	e8 00 00 00 00	 call	 ?GetNewPath@CDirPath@@QAEPADPAD@Z ; CDirPath::GetNewPath
  00277	50		 push	 eax
  00278	6a 00		 push	 0
  0027a	68 00 00 00 00	 push	 OFFSET ??_C@_0BI@KPDDGOOE@AngelKingsPaperDropRate@
  0027f	68 00 00 00 00	 push	 OFFSET ??_C@_0P@EMJDPFDH@GameServerInfo@
  00284	ff 15 00 00 00
	00		 call	 DWORD PTR __imp__GetPrivateProfileIntA@16
  0028a	a3 00 00 00 00	 mov	 DWORD PTR ?g_iAngelKingsPaperDropRate@@3HA, eax ; g_iAngelKingsPaperDropRate

; 5995 : 			gSoulOfDarkSpiritDropRate	= GetPrivateProfileInt("GameServerInfo", "SoulOfDarkSpiritDropRate", 10, gDirPath.GetNewPath("commonserver.cfg"));

  0028f	68 00 00 00 00	 push	 OFFSET ??_C@_0BB@IGLHFEOF@commonserver?4cfg@
  00294	b9 00 00 00 00	 mov	 ecx, OFFSET ?gDirPath@@3VCDirPath@@A ; gDirPath
  00299	e8 00 00 00 00	 call	 ?GetNewPath@CDirPath@@QAEPADPAD@Z ; CDirPath::GetNewPath
  0029e	50		 push	 eax
  0029f	6a 0a		 push	 10			; 0000000aH
  002a1	68 00 00 00 00	 push	 OFFSET ??_C@_0BJ@NMMKDJPD@SoulOfDarkSpiritDropRate@
  002a6	68 00 00 00 00	 push	 OFFSET ??_C@_0P@EMJDPFDH@GameServerInfo@
  002ab	ff 15 00 00 00
	00		 call	 DWORD PTR __imp__GetPrivateProfileIntA@16
  002b1	a3 00 00 00 00	 mov	 DWORD PTR ?gSoulOfDarkSpiritDropRate@@3HA, eax ; gSoulOfDarkSpiritDropRate

; 5996 : 			gSoulOfDarkSpiritDropLevel	= GetPrivateProfileInt("GameServerInfo", "SoulOfDarkSpiritDropLevel", 96, gDirPath.GetNewPath("commonserver.cfg"));	

  002b6	68 00 00 00 00	 push	 OFFSET ??_C@_0BB@IGLHFEOF@commonserver?4cfg@
  002bb	b9 00 00 00 00	 mov	 ecx, OFFSET ?gDirPath@@3VCDirPath@@A ; gDirPath
  002c0	e8 00 00 00 00	 call	 ?GetNewPath@CDirPath@@QAEPADPAD@Z ; CDirPath::GetNewPath
  002c5	50		 push	 eax
  002c6	6a 60		 push	 96			; 00000060H
  002c8	68 00 00 00 00	 push	 OFFSET ??_C@_0BK@ILHFEAJE@SoulOfDarkSpiritDropLevel@
  002cd	68 00 00 00 00	 push	 OFFSET ??_C@_0P@EMJDPFDH@GameServerInfo@
  002d2	ff 15 00 00 00
	00		 call	 DWORD PTR __imp__GetPrivateProfileIntA@16
  002d8	a3 00 00 00 00	 mov	 DWORD PTR ?gSoulOfDarkSpiritDropLevel@@3HA, eax ; gSoulOfDarkSpiritDropLevel

; 5997 : 
; 5998 : 			GetPrivateProfileString("GameServerInfo", "DarkSpiritAddExperience", "1", szTemp, 5, gDirPath.GetNewPath("commonserver.cfg"));

  002dd	68 00 00 00 00	 push	 OFFSET ??_C@_0BB@IGLHFEOF@commonserver?4cfg@
  002e2	b9 00 00 00 00	 mov	 ecx, OFFSET ?gDirPath@@3VCDirPath@@A ; gDirPath
  002e7	e8 00 00 00 00	 call	 ?GetNewPath@CDirPath@@QAEPADPAD@Z ; CDirPath::GetNewPath
  002ec	50		 push	 eax
  002ed	6a 05		 push	 5
  002ef	8d 85 fc fe ff
	ff		 lea	 eax, DWORD PTR _szTemp$[ebp]
  002f5	50		 push	 eax
  002f6	68 00 00 00 00	 push	 OFFSET ??_C@_01HIHLOKLC@1@
  002fb	68 00 00 00 00	 push	 OFFSET ??_C@_0BI@CNLFMLJF@DarkSpiritAddExperience@
  00300	68 00 00 00 00	 push	 OFFSET ??_C@_0P@EMJDPFDH@GameServerInfo@
  00305	ff 15 00 00 00
	00		 call	 DWORD PTR __imp__GetPrivateProfileStringA@24

; 5999 : 			gDarkSpiritAddExperience = (float)atof(szTemp);

  0030b	8d 85 fc fe ff
	ff		 lea	 eax, DWORD PTR _szTemp$[ebp]
  00311	50		 push	 eax
  00312	e8 00 00 00 00	 call	 _atof
  00317	83 c4 04	 add	 esp, 4
  0031a	d9 1d 00 00 00
	00		 fstp	 DWORD PTR ?gDarkSpiritAddExperience@@3MA ; gDarkSpiritAddExperience

; 6000 : #endif
; 6001 : 
; 6002 : #ifdef ADD_NEW_GEM_OF_DEFEND_FOR_CS_01_20050301
; 6003 : 			//  
; 6004 : 			gIsDropGemOfDefend  = GetPrivateProfileInt("GameServerInfo", "IsDropGemOfDefend", 0, gDirPath.GetNewPath("commonserver.cfg"));
; 6005 : 			//    (10000 )
; 6006 : 			gGemOfDefendDropRate = GetPrivateProfileInt("GameServerInfo", "GemOfDefendDropRate", 5, gDirPath.GetNewPath("commonserver.cfg"));
; 6007 : 			//    
; 6008 : 			gGemOfDefendDropLevel = GetPrivateProfileInt("GameServerInfo", "GemOfDefendDropLevel", 75, gDirPath.GetNewPath("commonserver.cfg"));;		
; 6009 : #endif
; 6010 : 
; 6011 : #ifdef ADD_NEW_CASTLE_HUNTZONE_REWARD_02_20050314
; 6012 : 			//    
; 6013 : 			gIsDropSetItemInCastleHuntZone  = GetPrivateProfileInt("GameServerInfo", "IsDropSetItemInCastleHuntZone", 0, gDirPath.GetNewPath("commonserver.cfg"));
; 6014 : 			//     (10000 )
; 6015 : 			gSetItemInCastleHuntZoneDropRate = GetPrivateProfileInt("GameServerInfo", "SetItemInCastleHuntZoneDropRate", 1, gDirPath.GetNewPath("commonserver.cfg"));
; 6016 : 			//      
; 6017 : 			gSetItemInCastleHuntZoneDropLevel = GetPrivateProfileInt("GameServerInfo", "SetItemInCastleHuntZoneDropLevel", 75, gDirPath.GetNewPath("commonserver.cfg"));;		
; 6018 : #endif
; 6019 : 
; 6020 : #ifdef FOR_NEW_TESTSERVER
; 6021 : 	gTestServer	= GetPrivateProfileInt("GameServerInfo", "TestServer", 0, gDirPath.GetNewPath("commonserver.cfg"));	
; 6022 : #endif
; 6023 : 
; 6024 : 			// 3 .  
; 6025 : 			gAttackEventRegenTime = GetPrivateProfileInt("GameServerInfo", "AttackEventRegenTime", 10, gDirPath.GetNewPath("commonserver.cfg"));

  00320	68 00 00 00 00	 push	 OFFSET ??_C@_0BB@IGLHFEOF@commonserver?4cfg@
  00325	b9 00 00 00 00	 mov	 ecx, OFFSET ?gDirPath@@3VCDirPath@@A ; gDirPath
  0032a	e8 00 00 00 00	 call	 ?GetNewPath@CDirPath@@QAEPADPAD@Z ; CDirPath::GetNewPath
  0032f	50		 push	 eax
  00330	6a 0a		 push	 10			; 0000000aH
  00332	68 00 00 00 00	 push	 OFFSET ??_C@_0BF@LANDNGMH@AttackEventRegenTime@
  00337	68 00 00 00 00	 push	 OFFSET ??_C@_0P@EMJDPFDH@GameServerInfo@
  0033c	ff 15 00 00 00
	00		 call	 DWORD PTR __imp__GetPrivateProfileIntA@16
  00342	a3 00 00 00 00	 mov	 DWORD PTR ?gAttackEventRegenTime@@3KA, eax ; gAttackEventRegenTime

; 6026 : 
; 6027 : 			// 4 .  
; 6028 : 			gIsEledoradoEvent				= GetPrivateProfileInt("GameServerInfo", "IsEledoradoEvent", 0, gDirPath.GetNewPath("commonserver.cfg"));	

  00347	68 00 00 00 00	 push	 OFFSET ??_C@_0BB@IGLHFEOF@commonserver?4cfg@
  0034c	b9 00 00 00 00	 mov	 ecx, OFFSET ?gDirPath@@3VCDirPath@@A ; gDirPath
  00351	e8 00 00 00 00	 call	 ?GetNewPath@CDirPath@@QAEPADPAD@Z ; CDirPath::GetNewPath
  00356	50		 push	 eax
  00357	6a 00		 push	 0
  00359	68 00 00 00 00	 push	 OFFSET ??_C@_0BB@OEKAOOOA@IsEledoradoEvent@
  0035e	68 00 00 00 00	 push	 OFFSET ??_C@_0P@EMJDPFDH@GameServerInfo@
  00363	ff 15 00 00 00
	00		 call	 DWORD PTR __imp__GetPrivateProfileIntA@16
  00369	a3 00 00 00 00	 mov	 DWORD PTR ?gIsEledoradoEvent@@3HA, eax ; gIsEledoradoEvent

; 6029 : 			gEledoradoGoldGoblenRegenTime	= GetPrivateProfileInt("GameServerInfo", "EledoradoGoldGoblenRegenTime", 60*3, gDirPath.GetNewPath("commonserver.cfg"));	

  0036e	68 00 00 00 00	 push	 OFFSET ??_C@_0BB@IGLHFEOF@commonserver?4cfg@
  00373	b9 00 00 00 00	 mov	 ecx, OFFSET ?gDirPath@@3VCDirPath@@A ; gDirPath
  00378	e8 00 00 00 00	 call	 ?GetNewPath@CDirPath@@QAEPADPAD@Z ; CDirPath::GetNewPath
  0037d	50		 push	 eax
  0037e	68 b4 00 00 00	 push	 180			; 000000b4H
  00383	68 00 00 00 00	 push	 OFFSET ??_C@_0BN@GMFOFBJF@EledoradoGoldGoblenRegenTime@
  00388	68 00 00 00 00	 push	 OFFSET ??_C@_0P@EMJDPFDH@GameServerInfo@
  0038d	ff 15 00 00 00
	00		 call	 DWORD PTR __imp__GetPrivateProfileIntA@16
  00393	a3 00 00 00 00	 mov	 DWORD PTR ?gEledoradoGoldGoblenRegenTime@@3KA, eax ; gEledoradoGoldGoblenRegenTime

; 6030 : 			gEledoradoTitanRegenTime		= GetPrivateProfileInt("GameServerInfo", "EledoradoTitanRegenTime", 60*3, gDirPath.GetNewPath("commonserver.cfg"));	

  00398	68 00 00 00 00	 push	 OFFSET ??_C@_0BB@IGLHFEOF@commonserver?4cfg@
  0039d	b9 00 00 00 00	 mov	 ecx, OFFSET ?gDirPath@@3VCDirPath@@A ; gDirPath
  003a2	e8 00 00 00 00	 call	 ?GetNewPath@CDirPath@@QAEPADPAD@Z ; CDirPath::GetNewPath
  003a7	50		 push	 eax
  003a8	68 b4 00 00 00	 push	 180			; 000000b4H
  003ad	68 00 00 00 00	 push	 OFFSET ??_C@_0BI@KJLIHAFL@EledoradoTitanRegenTime@
  003b2	68 00 00 00 00	 push	 OFFSET ??_C@_0P@EMJDPFDH@GameServerInfo@
  003b7	ff 15 00 00 00
	00		 call	 DWORD PTR __imp__GetPrivateProfileIntA@16
  003bd	a3 00 00 00 00	 mov	 DWORD PTR ?gEledoradoTitanRegenTime@@3KA, eax ; gEledoradoTitanRegenTime

; 6031 : 			gEledoradoGoldDerconRegenTime	= GetPrivateProfileInt("GameServerInfo", "EledoradoGoldDerconRegenTime", 240*3, gDirPath.GetNewPath("commonserver.cfg"));	

  003c2	68 00 00 00 00	 push	 OFFSET ??_C@_0BB@IGLHFEOF@commonserver?4cfg@
  003c7	b9 00 00 00 00	 mov	 ecx, OFFSET ?gDirPath@@3VCDirPath@@A ; gDirPath
  003cc	e8 00 00 00 00	 call	 ?GetNewPath@CDirPath@@QAEPADPAD@Z ; CDirPath::GetNewPath
  003d1	50		 push	 eax
  003d2	68 d0 02 00 00	 push	 720			; 000002d0H
  003d7	68 00 00 00 00	 push	 OFFSET ??_C@_0BN@IJGMJJEJ@EledoradoGoldDerconRegenTime@
  003dc	68 00 00 00 00	 push	 OFFSET ??_C@_0P@EMJDPFDH@GameServerInfo@
  003e1	ff 15 00 00 00
	00		 call	 DWORD PTR __imp__GetPrivateProfileIntA@16
  003e7	a3 00 00 00 00	 mov	 DWORD PTR ?gEledoradoGoldDerconRegenTime@@3KA, eax ; gEledoradoGoldDerconRegenTime

; 6032 : 			gEledoradoDevilLizardKingRegenTime	= GetPrivateProfileInt("GameServerInfo", "EledoradoDevilLizardKingRegenTime", 120*3, gDirPath.GetNewPath("commonserver.cfg"));	

  003ec	68 00 00 00 00	 push	 OFFSET ??_C@_0BB@IGLHFEOF@commonserver?4cfg@
  003f1	b9 00 00 00 00	 mov	 ecx, OFFSET ?gDirPath@@3VCDirPath@@A ; gDirPath
  003f6	e8 00 00 00 00	 call	 ?GetNewPath@CDirPath@@QAEPADPAD@Z ; CDirPath::GetNewPath
  003fb	50		 push	 eax
  003fc	68 68 01 00 00	 push	 360			; 00000168H
  00401	68 00 00 00 00	 push	 OFFSET ??_C@_0CC@KCJCENFB@EledoradoDevilLizardKingRegenTi@
  00406	68 00 00 00 00	 push	 OFFSET ??_C@_0P@EMJDPFDH@GameServerInfo@
  0040b	ff 15 00 00 00
	00		 call	 DWORD PTR __imp__GetPrivateProfileIntA@16
  00411	a3 00 00 00 00	 mov	 DWORD PTR ?gEledoradoDevilLizardKingRegenTime@@3KA, eax ; gEledoradoDevilLizardKingRegenTime

; 6033 : 			gEledoradoDevilTantarosRegenTime	= GetPrivateProfileInt("GameServerInfo", "EledoradoDevilTantarosRegenTime", 120*3, gDirPath.GetNewPath("commonserver.cfg"));	

  00416	68 00 00 00 00	 push	 OFFSET ??_C@_0BB@IGLHFEOF@commonserver?4cfg@
  0041b	b9 00 00 00 00	 mov	 ecx, OFFSET ?gDirPath@@3VCDirPath@@A ; gDirPath
  00420	e8 00 00 00 00	 call	 ?GetNewPath@CDirPath@@QAEPADPAD@Z ; CDirPath::GetNewPath
  00425	50		 push	 eax
  00426	68 68 01 00 00	 push	 360			; 00000168H
  0042b	68 00 00 00 00	 push	 OFFSET ??_C@_0CA@PDCIOFIF@EledoradoDevilTantarosRegenTime@
  00430	68 00 00 00 00	 push	 OFFSET ??_C@_0P@EMJDPFDH@GameServerInfo@
  00435	ff 15 00 00 00
	00		 call	 DWORD PTR __imp__GetPrivateProfileIntA@16
  0043b	a3 00 00 00 00	 mov	 DWORD PTR ?gEledoradoDevilTantarosRegenTime@@3KA, eax ; gEledoradoDevilTantarosRegenTime

; 6034 : 			gEledoradoGoldGoblenItemDropRate	= GetPrivateProfileInt("GameServerInfo", "EledoradoGoldGoblenItemDropRate", 10, gDirPath.GetNewPath("commonserver.cfg"));	

  00440	68 00 00 00 00	 push	 OFFSET ??_C@_0BB@IGLHFEOF@commonserver?4cfg@
  00445	b9 00 00 00 00	 mov	 ecx, OFFSET ?gDirPath@@3VCDirPath@@A ; gDirPath
  0044a	e8 00 00 00 00	 call	 ?GetNewPath@CDirPath@@QAEPADPAD@Z ; CDirPath::GetNewPath
  0044f	50		 push	 eax
  00450	6a 0a		 push	 10			; 0000000aH
  00452	68 00 00 00 00	 push	 OFFSET ??_C@_0CA@HENEMHED@EledoradoGoldGoblenItemDropRate@
  00457	68 00 00 00 00	 push	 OFFSET ??_C@_0P@EMJDPFDH@GameServerInfo@
  0045c	ff 15 00 00 00
	00		 call	 DWORD PTR __imp__GetPrivateProfileIntA@16
  00462	a3 00 00 00 00	 mov	 DWORD PTR ?gEledoradoGoldGoblenItemDropRate@@3HA, eax ; gEledoradoGoldGoblenItemDropRate

; 6035 : 			gEledoradoTitanItemDropRate			= GetPrivateProfileInt("GameServerInfo", "EledoradoTitanItemDropRate", 10, gDirPath.GetNewPath("commonserver.cfg"));	

  00467	68 00 00 00 00	 push	 OFFSET ??_C@_0BB@IGLHFEOF@commonserver?4cfg@
  0046c	b9 00 00 00 00	 mov	 ecx, OFFSET ?gDirPath@@3VCDirPath@@A ; gDirPath
  00471	e8 00 00 00 00	 call	 ?GetNewPath@CDirPath@@QAEPADPAD@Z ; CDirPath::GetNewPath
  00476	50		 push	 eax
  00477	6a 0a		 push	 10			; 0000000aH
  00479	68 00 00 00 00	 push	 OFFSET ??_C@_0BL@CKBDCOGC@EledoradoTitanItemDropRate@
  0047e	68 00 00 00 00	 push	 OFFSET ??_C@_0P@EMJDPFDH@GameServerInfo@
  00483	ff 15 00 00 00
	00		 call	 DWORD PTR __imp__GetPrivateProfileIntA@16
  00489	a3 00 00 00 00	 mov	 DWORD PTR ?gEledoradoTitanItemDropRate@@3HA, eax ; gEledoradoTitanItemDropRate

; 6036 : 			gEledoradoGoldDerconItemDropRate	= GetPrivateProfileInt("GameServerInfo", "EledoradoGoldDerconItemDropRate", 10, gDirPath.GetNewPath("commonserver.cfg"));	

  0048e	68 00 00 00 00	 push	 OFFSET ??_C@_0BB@IGLHFEOF@commonserver?4cfg@
  00493	b9 00 00 00 00	 mov	 ecx, OFFSET ?gDirPath@@3VCDirPath@@A ; gDirPath
  00498	e8 00 00 00 00	 call	 ?GetNewPath@CDirPath@@QAEPADPAD@Z ; CDirPath::GetNewPath
  0049d	50		 push	 eax
  0049e	6a 0a		 push	 10			; 0000000aH
  004a0	68 00 00 00 00	 push	 OFFSET ??_C@_0CA@DLLDAHDE@EledoradoGoldDerconItemDropRate@
  004a5	68 00 00 00 00	 push	 OFFSET ??_C@_0P@EMJDPFDH@GameServerInfo@
  004aa	ff 15 00 00 00
	00		 call	 DWORD PTR __imp__GetPrivateProfileIntA@16
  004b0	a3 00 00 00 00	 mov	 DWORD PTR ?gEledoradoGoldDerconItemDropRate@@3HA, eax ; gEledoradoGoldDerconItemDropRate

; 6037 : 			gEledoradoDevilLizardKingItemDropRate	= GetPrivateProfileInt("GameServerInfo", "EledoradoDevilLizardKingItemDropRate", 10, gDirPath.GetNewPath("commonserver.cfg"));	

  004b5	68 00 00 00 00	 push	 OFFSET ??_C@_0BB@IGLHFEOF@commonserver?4cfg@
  004ba	b9 00 00 00 00	 mov	 ecx, OFFSET ?gDirPath@@3VCDirPath@@A ; gDirPath
  004bf	e8 00 00 00 00	 call	 ?GetNewPath@CDirPath@@QAEPADPAD@Z ; CDirPath::GetNewPath
  004c4	50		 push	 eax
  004c5	6a 0a		 push	 10			; 0000000aH
  004c7	68 00 00 00 00	 push	 OFFSET ??_C@_0CF@JGNHCKNH@EledoradoDevilLizardKingItemDro@
  004cc	68 00 00 00 00	 push	 OFFSET ??_C@_0P@EMJDPFDH@GameServerInfo@
  004d1	ff 15 00 00 00
	00		 call	 DWORD PTR __imp__GetPrivateProfileIntA@16
  004d7	a3 00 00 00 00	 mov	 DWORD PTR ?gEledoradoDevilLizardKingItemDropRate@@3HA, eax ; gEledoradoDevilLizardKingItemDropRate

; 6038 : 			gEledoradoDevilTantarosItemDropRate		= GetPrivateProfileInt("GameServerInfo", "EledoradoDevilTantarosItemDropRate", 10, gDirPath.GetNewPath("commonserver.cfg"));	

  004dc	68 00 00 00 00	 push	 OFFSET ??_C@_0BB@IGLHFEOF@commonserver?4cfg@
  004e1	b9 00 00 00 00	 mov	 ecx, OFFSET ?gDirPath@@3VCDirPath@@A ; gDirPath
  004e6	e8 00 00 00 00	 call	 ?GetNewPath@CDirPath@@QAEPADPAD@Z ; CDirPath::GetNewPath
  004eb	50		 push	 eax
  004ec	6a 0a		 push	 10			; 0000000aH
  004ee	68 00 00 00 00	 push	 OFFSET ??_C@_0CD@FBDNNLBJ@EledoradoDevilTantarosItemDropR@
  004f3	68 00 00 00 00	 push	 OFFSET ??_C@_0P@EMJDPFDH@GameServerInfo@
  004f8	ff 15 00 00 00
	00		 call	 DWORD PTR __imp__GetPrivateProfileIntA@16
  004fe	a3 00 00 00 00	 mov	 DWORD PTR ?gEledoradoDevilTantarosItemDropRate@@3HA, eax ; gEledoradoDevilTantarosItemDropRate

; 6039 : 			gEledoradoGoldGoblenExItemDropRate		= GetPrivateProfileInt("GameServerInfo", "EledoradoGoldGoblenExItemDropRate", 10, gDirPath.GetNewPath("commonserver.cfg"));	

  00503	68 00 00 00 00	 push	 OFFSET ??_C@_0BB@IGLHFEOF@commonserver?4cfg@
  00508	b9 00 00 00 00	 mov	 ecx, OFFSET ?gDirPath@@3VCDirPath@@A ; gDirPath
  0050d	e8 00 00 00 00	 call	 ?GetNewPath@CDirPath@@QAEPADPAD@Z ; CDirPath::GetNewPath
  00512	50		 push	 eax
  00513	6a 0a		 push	 10			; 0000000aH
  00515	68 00 00 00 00	 push	 OFFSET ??_C@_0CC@FBLILEOL@EledoradoGoldGoblenExItemDropRa@
  0051a	68 00 00 00 00	 push	 OFFSET ??_C@_0P@EMJDPFDH@GameServerInfo@
  0051f	ff 15 00 00 00
	00		 call	 DWORD PTR __imp__GetPrivateProfileIntA@16
  00525	a3 00 00 00 00	 mov	 DWORD PTR ?gEledoradoGoldGoblenExItemDropRate@@3HA, eax ; gEledoradoGoldGoblenExItemDropRate

; 6040 : 			gEledoradoTitanExItemDropRate			= GetPrivateProfileInt("GameServerInfo", "EledoradoTitanExItemDropRate", 10, gDirPath.GetNewPath("commonserver.cfg"));	

  0052a	68 00 00 00 00	 push	 OFFSET ??_C@_0BB@IGLHFEOF@commonserver?4cfg@
  0052f	b9 00 00 00 00	 mov	 ecx, OFFSET ?gDirPath@@3VCDirPath@@A ; gDirPath
  00534	e8 00 00 00 00	 call	 ?GetNewPath@CDirPath@@QAEPADPAD@Z ; CDirPath::GetNewPath
  00539	50		 push	 eax
  0053a	6a 0a		 push	 10			; 0000000aH
  0053c	68 00 00 00 00	 push	 OFFSET ??_C@_0BN@EPBKFBD@EledoradoTitanExItemDropRate@
  00541	68 00 00 00 00	 push	 OFFSET ??_C@_0P@EMJDPFDH@GameServerInfo@
  00546	ff 15 00 00 00
	00		 call	 DWORD PTR __imp__GetPrivateProfileIntA@16
  0054c	a3 00 00 00 00	 mov	 DWORD PTR ?gEledoradoTitanExItemDropRate@@3HA, eax ; gEledoradoTitanExItemDropRate

; 6041 : 			gEledoradoGoldDerconExItemDropRate		= GetPrivateProfileInt("GameServerInfo", "EledoradoGoldDerconExItemDropRate", 10, gDirPath.GetNewPath("commonserver.cfg"));	

  00551	68 00 00 00 00	 push	 OFFSET ??_C@_0BB@IGLHFEOF@commonserver?4cfg@
  00556	b9 00 00 00 00	 mov	 ecx, OFFSET ?gDirPath@@3VCDirPath@@A ; gDirPath
  0055b	e8 00 00 00 00	 call	 ?GetNewPath@CDirPath@@QAEPADPAD@Z ; CDirPath::GetNewPath
  00560	50		 push	 eax
  00561	6a 0a		 push	 10			; 0000000aH
  00563	68 00 00 00 00	 push	 OFFSET ??_C@_0CC@KKKCNGAN@EledoradoGoldDerconExItemDropRa@
  00568	68 00 00 00 00	 push	 OFFSET ??_C@_0P@EMJDPFDH@GameServerInfo@
  0056d	ff 15 00 00 00
	00		 call	 DWORD PTR __imp__GetPrivateProfileIntA@16
  00573	a3 00 00 00 00	 mov	 DWORD PTR ?gEledoradoGoldDerconExItemDropRate@@3HA, eax ; gEledoradoGoldDerconExItemDropRate

; 6042 : 			gEledoradoDevilLizardKingExItemDropRate = GetPrivateProfileInt("GameServerInfo", "EledoradoDevilLizardKingExItemDropRate", 10, gDirPath.GetNewPath("commonserver.cfg"));	

  00578	68 00 00 00 00	 push	 OFFSET ??_C@_0BB@IGLHFEOF@commonserver?4cfg@
  0057d	b9 00 00 00 00	 mov	 ecx, OFFSET ?gDirPath@@3VCDirPath@@A ; gDirPath
  00582	e8 00 00 00 00	 call	 ?GetNewPath@CDirPath@@QAEPADPAD@Z ; CDirPath::GetNewPath
  00587	50		 push	 eax
  00588	6a 0a		 push	 10			; 0000000aH
  0058a	68 00 00 00 00	 push	 OFFSET ??_C@_0CH@JKCOIHDD@EledoradoDevilLizardKingExItemD@
  0058f	68 00 00 00 00	 push	 OFFSET ??_C@_0P@EMJDPFDH@GameServerInfo@
  00594	ff 15 00 00 00
	00		 call	 DWORD PTR __imp__GetPrivateProfileIntA@16
  0059a	a3 00 00 00 00	 mov	 DWORD PTR ?gEledoradoDevilLizardKingExItemDropRate@@3HA, eax ; gEledoradoDevilLizardKingExItemDropRate

; 6043 : 			gEledoradoDevilTantarosExItemDropRate	= GetPrivateProfileInt("GameServerInfo", "EledoradoDevilTantarosExItemDropRate", 10, gDirPath.GetNewPath("commonserver.cfg"));

  0059f	68 00 00 00 00	 push	 OFFSET ??_C@_0BB@IGLHFEOF@commonserver?4cfg@
  005a4	b9 00 00 00 00	 mov	 ecx, OFFSET ?gDirPath@@3VCDirPath@@A ; gDirPath
  005a9	e8 00 00 00 00	 call	 ?GetNewPath@CDirPath@@QAEPADPAD@Z ; CDirPath::GetNewPath
  005ae	50		 push	 eax
  005af	6a 0a		 push	 10			; 0000000aH
  005b1	68 00 00 00 00	 push	 OFFSET ??_C@_0CF@FONHIJD@EledoradoDevilTantarosExItemDro@
  005b6	68 00 00 00 00	 push	 OFFSET ??_C@_0P@EMJDPFDH@GameServerInfo@
  005bb	ff 15 00 00 00
	00		 call	 DWORD PTR __imp__GetPrivateProfileIntA@16
  005c1	a3 00 00 00 00	 mov	 DWORD PTR ?gEledoradoDevilTantarosExItemDropRate@@3HA, eax ; gEledoradoDevilTantarosExItemDropRate

; 6044 : 
; 6045 : #ifdef ADD_GOLDEN_EVENT_RENEWAL_20090311
; 6046 : 			gGoldenRabbitRegenTime = GetPrivateProfileInt("GameServerInfo", "EledoradoGoldenRabbitRegenTime", 60*3, gDirPath.GetNewPath("commonserver.cfg"));	
; 6047 : 			gGoldenDarknightRegenTime = GetPrivateProfileInt("GameServerInfo", "EledoradoGoldenDarkKnightRegenTime", 60*3, gDirPath.GetNewPath("commonserver.cfg"));	
; 6048 : 			gGoldenDevilRegenTime  = GetPrivateProfileInt("GameServerInfo", "EledoradoGoldenDevilRegenTime", 60*3, gDirPath.GetNewPath("commonserver.cfg"));
; 6049 : 			
; 6050 : 			gGoldenStoneMonsterRegenTIme = GetPrivateProfileInt("GameServerInfo", "EledoradoGoldenMonsterRegenTime", 60*3, gDirPath.GetNewPath("commonserver.cfg"));
; 6051 : 			gGoldenCrustEventRegenTime = GetPrivateProfileInt("GameServerInfo", "EledoradoGoldenCrustRegenTime", 60*3, gDirPath.GetNewPath("commonserver.cfg"));
; 6052 : 			gGoldenSatirosRegenTime = GetPrivateProfileInt("GameServerInfo", "EledoradoGoldenSatirosRegenTime", 60*3, gDirPath.GetNewPath("commonserver.cfg"));
; 6053 : 			gGoldenTwintailRegenTime = GetPrivateProfileInt("GameServerInfo", "EledoradoGoldenTwintailRegenTime", 60*3, gDirPath.GetNewPath("commonserver.cfg"));
; 6054 : 			gGoldenIronKnightRegenTime = GetPrivateProfileInt("GameServerInfo", "EledoradoGoldenIronKnightRegenTime", 60*3, gDirPath.GetNewPath("commonserver.cfg"));
; 6055 : 			gGoldenNeipinRegenTime = GetPrivateProfileInt("GameServerInfo", "EledoradoGoldenNeipinRegenTime", 60*3, gDirPath.GetNewPath("commonserver.cfg"));
; 6056 : 			gGoldenGreatDragonRegenTime = GetPrivateProfileInt("GameServerInfo", "EledoradoGoldenGreatDragonRegenTime", 60*3, gDirPath.GetNewPath("commonserver.cfg"));
; 6057 : #endif
; 6058 : 
; 6059 : #ifdef MODIFY_ELDORADO_EVENT_OPTION_LOAD_SEQUEANCE_20070821
; 6060 : 			//    
; 6061 : 			gEledoradoEvent.SetEventState(gIsEledoradoEvent);
; 6062 : 			gEledoradoEvent.Init();
; 6063 : #endif // MODIFY_ELDORADO_EVENT_OPTION_LOAD_SEQUEANCE_20070821
; 6064 : 
; 6065 : 			// 5 .  
; 6066 : #ifdef MONSTER_HERD_SYSTEM_20031120
; 6067 : 			//     .
; 6068 : 			GetPrivateProfileString("GameServerInfo", "RingAttackEvent", "0", szTemp, 5, gDirPath.GetNewPath("commonserver.cfg"));

  005c6	68 00 00 00 00	 push	 OFFSET ??_C@_0BB@IGLHFEOF@commonserver?4cfg@
  005cb	b9 00 00 00 00	 mov	 ecx, OFFSET ?gDirPath@@3VCDirPath@@A ; gDirPath
  005d0	e8 00 00 00 00	 call	 ?GetNewPath@CDirPath@@QAEPADPAD@Z ; CDirPath::GetNewPath
  005d5	50		 push	 eax
  005d6	6a 05		 push	 5
  005d8	8d 85 fc fe ff
	ff		 lea	 eax, DWORD PTR _szTemp$[ebp]
  005de	50		 push	 eax
  005df	68 00 00 00 00	 push	 OFFSET ??_C@_01GBGANLPD@0@
  005e4	68 00 00 00 00	 push	 OFFSET ??_C@_0BA@PGIAALHL@RingAttackEvent@
  005e9	68 00 00 00 00	 push	 OFFSET ??_C@_0P@EMJDPFDH@GameServerInfo@
  005ee	ff 15 00 00 00
	00		 call	 DWORD PTR __imp__GetPrivateProfileStringA@24

; 6069 : 			g_bDoRingEvent				= atoi(szTemp);

  005f4	8d 85 fc fe ff
	ff		 lea	 eax, DWORD PTR _szTemp$[ebp]
  005fa	50		 push	 eax
  005fb	e8 00 00 00 00	 call	 _atoi
  00600	83 c4 04	 add	 esp, 4
  00603	a3 00 00 00 00	 mov	 DWORD PTR ?g_bDoRingEvent@@3HA, eax ; g_bDoRingEvent

; 6070 : 			//       (1/n)
; 6071 : 			GetPrivateProfileString("GameServerInfo", "RingOrcKillGiftRate", "10000", szTemp, 10, gDirPath.GetNewPath("commonserver.cfg"));

  00608	68 00 00 00 00	 push	 OFFSET ??_C@_0BB@IGLHFEOF@commonserver?4cfg@
  0060d	b9 00 00 00 00	 mov	 ecx, OFFSET ?gDirPath@@3VCDirPath@@A ; gDirPath
  00612	e8 00 00 00 00	 call	 ?GetNewPath@CDirPath@@QAEPADPAD@Z ; CDirPath::GetNewPath
  00617	50		 push	 eax
  00618	6a 0a		 push	 10			; 0000000aH
  0061a	8d 85 fc fe ff
	ff		 lea	 eax, DWORD PTR _szTemp$[ebp]
  00620	50		 push	 eax
  00621	68 00 00 00 00	 push	 OFFSET ??_C@_05CLDMBJBA@10000@
  00626	68 00 00 00 00	 push	 OFFSET ??_C@_0BE@PAGFJHNK@RingOrcKillGiftRate@
  0062b	68 00 00 00 00	 push	 OFFSET ??_C@_0P@EMJDPFDH@GameServerInfo@
  00630	ff 15 00 00 00
	00		 call	 DWORD PTR __imp__GetPrivateProfileStringA@24

; 6072 : 			g_iRingOrcKillGiftRate		= atoi(szTemp);

  00636	8d 85 fc fe ff
	ff		 lea	 eax, DWORD PTR _szTemp$[ebp]
  0063c	50		 push	 eax
  0063d	e8 00 00 00 00	 call	 _atoi
  00642	83 c4 04	 add	 esp, 4
  00645	a3 00 00 00 00	 mov	 DWORD PTR ?g_iRingOrcKillGiftRate@@3HA, eax ; g_iRingOrcKillGiftRate

; 6073 : 			//       (1/n)
; 6074 : 			GetPrivateProfileString("GameServerInfo", "RingDropGiftRate", "10000", szTemp, 10, gDirPath.GetNewPath("commonserver.cfg"));

  0064a	68 00 00 00 00	 push	 OFFSET ??_C@_0BB@IGLHFEOF@commonserver?4cfg@
  0064f	b9 00 00 00 00	 mov	 ecx, OFFSET ?gDirPath@@3VCDirPath@@A ; gDirPath
  00654	e8 00 00 00 00	 call	 ?GetNewPath@CDirPath@@QAEPADPAD@Z ; CDirPath::GetNewPath
  00659	50		 push	 eax
  0065a	6a 0a		 push	 10			; 0000000aH
  0065c	8d 85 fc fe ff
	ff		 lea	 eax, DWORD PTR _szTemp$[ebp]
  00662	50		 push	 eax
  00663	68 00 00 00 00	 push	 OFFSET ??_C@_05CLDMBJBA@10000@
  00668	68 00 00 00 00	 push	 OFFSET ??_C@_0BB@NMFCKOP@RingDropGiftRate@
  0066d	68 00 00 00 00	 push	 OFFSET ??_C@_0P@EMJDPFDH@GameServerInfo@
  00672	ff 15 00 00 00
	00		 call	 DWORD PTR __imp__GetPrivateProfileStringA@24

; 6075 : 			g_iRingDropGiftRate			= atoi(szTemp);

  00678	8d 85 fc fe ff
	ff		 lea	 eax, DWORD PTR _szTemp$[ebp]
  0067e	50		 push	 eax
  0067f	e8 00 00 00 00	 call	 _atoi
  00684	83 c4 04	 add	 esp, 4
  00687	a3 00 00 00 00	 mov	 DWORD PTR ?g_iRingDropGiftRate@@3HA, eax ; g_iRingDropGiftRate

; 6076 : 			g_RingAttackEvent.Load(gDirPath.GetNewPath("RingAttackEvent.dat"));

  0068c	68 00 00 00 00	 push	 OFFSET ??_C@_0BE@BHMFOLMK@RingAttackEvent?4dat@
  00691	b9 00 00 00 00	 mov	 ecx, OFFSET ?gDirPath@@3VCDirPath@@A ; gDirPath
  00696	e8 00 00 00 00	 call	 ?GetNewPath@CDirPath@@QAEPADPAD@Z ; CDirPath::GetNewPath
  0069b	50		 push	 eax
  0069c	b9 00 00 00 00	 mov	 ecx, OFFSET ?g_RingAttackEvent@@3VCRingAttackEvent@@A ; g_RingAttackEvent
  006a1	e8 00 00 00 00	 call	 ?Load@CRingAttackEvent@@UAEHPAD@Z ; CRingAttackEvent::Load

; 6077 : #ifdef GAMESERVER_TO_CASTLESIEGESERVER	//    , , ,   .
; 6078 : 			g_bDoRingEvent				= FALSE;
; 6079 : #endif	
; 6080 : 			g_RingAttackEvent.EnableEvent (g_bDoRingEvent);

  006a6	a1 00 00 00 00	 mov	 eax, DWORD PTR ?g_bDoRingEvent@@3HA ; g_bDoRingEvent
  006ab	50		 push	 eax
  006ac	b9 00 00 00 00	 mov	 ecx, OFFSET ?g_RingAttackEvent@@3VCRingAttackEvent@@A ; g_RingAttackEvent
  006b1	e8 00 00 00 00	 call	 ?EnableEvent@CRingAttackEvent@@QAEXH@Z ; CRingAttackEvent::EnableEvent

; 6081 : #endif
; 6082 : 
; 6083 : #ifdef ADD_ITEM_ATTACK_XMASEVENT_20081014
; 6084 : 			g_bDoXMasEvent				= GetPrivateProfileInt("GameServerInfo", "XMasAttackEvent", 0, gDirPath.GetNewPath("commonserver.cfg"));
; 6085 : 			g_nXMasDropRate				= GetPrivateProfileInt("GameServerInfo", "XMasAttackEvent_DropRate", XMASDROPRATE_ITEM, gDirPath.GetNewPath("commonserver.cfg"));
; 6086 : 			g_nXMasDropZen				= GetPrivateProfileInt("GameServerInfo", "XMasAttackEvent_DropZen", XMASDROP_ZEN, gDirPath.GetNewPath("commonserver.cfg"));
; 6087 : 			g_XMasAttackEvent.Load(gDirPath.GetNewPath("XMasAttackEvent.dat"));
; 6088 : 			g_XMasAttackEvent.EnableEvent(g_bDoXMasEvent);
; 6089 : #endif // ADD_ITEM_ATTACK_XMASEVENT_20081014
; 6090 : 
; 6091 : #ifdef ADD_XMASEVENT_LUCKNUMBER
; 6092 : 			g_nXMasLuckNumber1st		= GetPrivateProfileInt("GameServerInfo", "XMasEvent_LuckNumber1st", XMASEVENT_LUCKNUMBER1ST, gDirPath.GetNewPath("commonserver.cfg"));
; 6093 : 			g_nXMasLuckNumber2nd		= GetPrivateProfileInt("GameServerInfo", "XMasEvent_LuckNumber2nd", XMASEVENT_LUCKNUMBER2ND, gDirPath.GetNewPath("commonserver.cfg"));
; 6094 : #endif // ADD_XMASEVENT_LUCKNUMBER
; 6095 : 
; 6096 : #ifdef CASTLEDEEP_EVENT_20050413
; 6097 : 			GetPrivateProfileString("GameServerInfo", "CastleDeepEvent", "0", szTemp, 5, gDirPath.GetNewPath("commonserver.cfg"));
; 6098 : 			g_bDoCastleDeepEvent		= atoi(szTemp);
; 6099 : 			g_CastleDeepEvent.Load(gDirPath.GetNewPath("CastleDeepEvent.dat"));
; 6100 : 			g_CastleDeepEvent.EnableEvent(g_bDoCastleDeepEvent);
; 6101 : #endif	// #ifdef CASTLEDEEP_EVENT_20050413
; 6102 : 
; 6103 : 			// 6 .  () 
; 6104 : 
; 6105 : 			// # REMOVE_LOVELOVE_EVENT_COUPLING_WITH_JOINSERVER_20060319
; 6106 : 			// #        (apple)
; 6107 : 			//		-    0x30, 0x31  
; 6108 : 			//		-     DB  .
; 6109 : 			//		-       .
; 6110 : 			GetPrivateProfileString("GameServerInfo", "EVENT1", "0", szTemp, 5, gDirPath.GetNewPath("commonserver.cfg"));	

  006b6	68 00 00 00 00	 push	 OFFSET ??_C@_0BB@IGLHFEOF@commonserver?4cfg@
  006bb	b9 00 00 00 00	 mov	 ecx, OFFSET ?gDirPath@@3VCDirPath@@A ; gDirPath
  006c0	e8 00 00 00 00	 call	 ?GetNewPath@CDirPath@@QAEPADPAD@Z ; CDirPath::GetNewPath
  006c5	50		 push	 eax
  006c6	6a 05		 push	 5
  006c8	8d 85 fc fe ff
	ff		 lea	 eax, DWORD PTR _szTemp$[ebp]
  006ce	50		 push	 eax
  006cf	68 00 00 00 00	 push	 OFFSET ??_C@_01GBGANLPD@0@
  006d4	68 00 00 00 00	 push	 OFFSET ??_C@_06OIEHOIFM@EVENT1@
  006d9	68 00 00 00 00	 push	 OFFSET ??_C@_0P@EMJDPFDH@GameServerInfo@
  006de	ff 15 00 00 00
	00		 call	 DWORD PTR __imp__GetPrivateProfileStringA@24

; 6111 : 			gEvent1						= atoi(szTemp);

  006e4	8d 85 fc fe ff
	ff		 lea	 eax, DWORD PTR _szTemp$[ebp]
  006ea	50		 push	 eax
  006eb	e8 00 00 00 00	 call	 _atoi
  006f0	83 c4 04	 add	 esp, 4
  006f3	a3 00 00 00 00	 mov	 DWORD PTR ?gEvent1@@3HA, eax ; gEvent1

; 6112 : 			GetPrivateProfileString("GameServerInfo", "Event1ItemDropTodayMax", "1", szTemp, 5, gDirPath.GetNewPath("commonserver.cfg"));	

  006f8	68 00 00 00 00	 push	 OFFSET ??_C@_0BB@IGLHFEOF@commonserver?4cfg@
  006fd	b9 00 00 00 00	 mov	 ecx, OFFSET ?gDirPath@@3VCDirPath@@A ; gDirPath
  00702	e8 00 00 00 00	 call	 ?GetNewPath@CDirPath@@QAEPADPAD@Z ; CDirPath::GetNewPath
  00707	50		 push	 eax
  00708	6a 05		 push	 5
  0070a	8d 85 fc fe ff
	ff		 lea	 eax, DWORD PTR _szTemp$[ebp]
  00710	50		 push	 eax
  00711	68 00 00 00 00	 push	 OFFSET ??_C@_01HIHLOKLC@1@
  00716	68 00 00 00 00	 push	 OFFSET ??_C@_0BH@LPINNCM@Event1ItemDropTodayMax@
  0071b	68 00 00 00 00	 push	 OFFSET ??_C@_0P@EMJDPFDH@GameServerInfo@
  00720	ff 15 00 00 00
	00		 call	 DWORD PTR __imp__GetPrivateProfileStringA@24

; 6113 : 			gEvent1ItemDropTodayCount	= 0;

  00726	c7 05 00 00 00
	00 00 00 00 00	 mov	 DWORD PTR ?gEvent1ItemDropTodayCount@@3HA, 0 ; gEvent1ItemDropTodayCount

; 6114 : 			gEvent1ItemDropTodayMax		= atoi(szTemp);

  00730	8d 85 fc fe ff
	ff		 lea	 eax, DWORD PTR _szTemp$[ebp]
  00736	50		 push	 eax
  00737	e8 00 00 00 00	 call	 _atoi
  0073c	83 c4 04	 add	 esp, 4
  0073f	a3 00 00 00 00	 mov	 DWORD PTR ?gEvent1ItemDropTodayMax@@3HA, eax ; gEvent1ItemDropTodayMax

; 6115 : 			GetPrivateProfileString("GameServerInfo", "Event1ItemDropTodayPercent", "10000000", szTemp, 5, gDirPath.GetNewPath("commonserver.cfg"));	

  00744	68 00 00 00 00	 push	 OFFSET ??_C@_0BB@IGLHFEOF@commonserver?4cfg@
  00749	b9 00 00 00 00	 mov	 ecx, OFFSET ?gDirPath@@3VCDirPath@@A ; gDirPath
  0074e	e8 00 00 00 00	 call	 ?GetNewPath@CDirPath@@QAEPADPAD@Z ; CDirPath::GetNewPath
  00753	50		 push	 eax
  00754	6a 05		 push	 5
  00756	8d 85 fc fe ff
	ff		 lea	 eax, DWORD PTR _szTemp$[ebp]
  0075c	50		 push	 eax
  0075d	68 00 00 00 00	 push	 OFFSET ??_C@_08KDEPFNAG@10000000@
  00762	68 00 00 00 00	 push	 OFFSET ??_C@_0BL@ENBIHHCD@Event1ItemDropTodayPercent@
  00767	68 00 00 00 00	 push	 OFFSET ??_C@_0P@EMJDPFDH@GameServerInfo@
  0076c	ff 15 00 00 00
	00		 call	 DWORD PTR __imp__GetPrivateProfileStringA@24

; 6116 : 			gEvent1ItemDropTodayPercent = atoi(szTemp);

  00772	8d 85 fc fe ff
	ff		 lea	 eax, DWORD PTR _szTemp$[ebp]
  00778	50		 push	 eax
  00779	e8 00 00 00 00	 call	 _atoi
  0077e	83 c4 04	 add	 esp, 4
  00781	a3 00 00 00 00	 mov	 DWORD PTR ?gEvent1ItemDropTodayPercent@@3HA, eax ; gEvent1ItemDropTodayPercent

; 6117 : 
; 6118 : 			// 7 .  
; 6119 : 			gFireCrackerEvent			= GetPrivateProfileInt("GameServerInfo", "FireCrackerEvent", 0, gDirPath.GetNewPath("commonserver.cfg"));

  00786	68 00 00 00 00	 push	 OFFSET ??_C@_0BB@IGLHFEOF@commonserver?4cfg@
  0078b	b9 00 00 00 00	 mov	 ecx, OFFSET ?gDirPath@@3VCDirPath@@A ; gDirPath
  00790	e8 00 00 00 00	 call	 ?GetNewPath@CDirPath@@QAEPADPAD@Z ; CDirPath::GetNewPath
  00795	50		 push	 eax
  00796	6a 00		 push	 0
  00798	68 00 00 00 00	 push	 OFFSET ??_C@_0BB@PMGPGCOG@FireCrackerEvent@
  0079d	68 00 00 00 00	 push	 OFFSET ??_C@_0P@EMJDPFDH@GameServerInfo@
  007a2	ff 15 00 00 00
	00		 call	 DWORD PTR __imp__GetPrivateProfileIntA@16
  007a8	a3 00 00 00 00	 mov	 DWORD PTR ?gFireCrackerEvent@@3HA, eax ; gFireCrackerEvent

; 6120 : 			gFireCrackerDropRate		= GetPrivateProfileInt("GameServerInfo", "FireCrackerDropRate", 5000, gDirPath.GetNewPath("commonserver.cfg"));

  007ad	68 00 00 00 00	 push	 OFFSET ??_C@_0BB@IGLHFEOF@commonserver?4cfg@
  007b2	b9 00 00 00 00	 mov	 ecx, OFFSET ?gDirPath@@3VCDirPath@@A ; gDirPath
  007b7	e8 00 00 00 00	 call	 ?GetNewPath@CDirPath@@QAEPADPAD@Z ; CDirPath::GetNewPath
  007bc	50		 push	 eax
  007bd	68 88 13 00 00	 push	 5000			; 00001388H
  007c2	68 00 00 00 00	 push	 OFFSET ??_C@_0BE@KPFNOKLC@FireCrackerDropRate@
  007c7	68 00 00 00 00	 push	 OFFSET ??_C@_0P@EMJDPFDH@GameServerInfo@
  007cc	ff 15 00 00 00
	00		 call	 DWORD PTR __imp__GetPrivateProfileIntA@16
  007d2	a3 00 00 00 00	 mov	 DWORD PTR ?gFireCrackerDropRate@@3HA, eax ; gFireCrackerDropRate

; 6121 : 			g_ItemDropRateForgFireCracker	= GetPrivateProfileInt("GameServerInfo", "ItemDropRateForFireCracker", 2, gDirPath.GetNewPath("commonserver.cfg"));

  007d7	68 00 00 00 00	 push	 OFFSET ??_C@_0BB@IGLHFEOF@commonserver?4cfg@
  007dc	b9 00 00 00 00	 mov	 ecx, OFFSET ?gDirPath@@3VCDirPath@@A ; gDirPath
  007e1	e8 00 00 00 00	 call	 ?GetNewPath@CDirPath@@QAEPADPAD@Z ; CDirPath::GetNewPath
  007e6	50		 push	 eax
  007e7	6a 02		 push	 2
  007e9	68 00 00 00 00	 push	 OFFSET ??_C@_0BL@EHKPPMMG@ItemDropRateForFireCracker@
  007ee	68 00 00 00 00	 push	 OFFSET ??_C@_0P@EMJDPFDH@GameServerInfo@
  007f3	ff 15 00 00 00
	00		 call	 DWORD PTR __imp__GetPrivateProfileIntA@16
  007f9	a3 00 00 00 00	 mov	 DWORD PTR ?g_ItemDropRateForgFireCracker@@3HA, eax ; g_ItemDropRateForgFireCracker

; 6122 : 			gOnlyFireCrackerEffectUse	= GetPrivateProfileInt("GameServerInfo", "OnlyFireCrackerEffectUse", 0, gDirPath.GetNewPath("commonserver.cfg"));

  007fe	68 00 00 00 00	 push	 OFFSET ??_C@_0BB@IGLHFEOF@commonserver?4cfg@
  00803	b9 00 00 00 00	 mov	 ecx, OFFSET ?gDirPath@@3VCDirPath@@A ; gDirPath
  00808	e8 00 00 00 00	 call	 ?GetNewPath@CDirPath@@QAEPADPAD@Z ; CDirPath::GetNewPath
  0080d	50		 push	 eax
  0080e	6a 00		 push	 0
  00810	68 00 00 00 00	 push	 OFFSET ??_C@_0BJ@GHAOAAJB@OnlyFireCrackerEffectUse@
  00815	68 00 00 00 00	 push	 OFFSET ??_C@_0P@EMJDPFDH@GameServerInfo@
  0081a	ff 15 00 00 00
	00		 call	 DWORD PTR __imp__GetPrivateProfileIntA@16
  00820	a3 00 00 00 00	 mov	 DWORD PTR ?gOnlyFireCrackerEffectUse@@3HA, eax ; gOnlyFireCrackerEffectUse

; 6123 : 
; 6124 : 			// 8 .  
; 6125 : 			gMedalEvent					= GetPrivateProfileInt("GameServerInfo", "MedalEvent", 0, gDirPath.GetNewPath("commonserver.cfg"));

  00825	68 00 00 00 00	 push	 OFFSET ??_C@_0BB@IGLHFEOF@commonserver?4cfg@
  0082a	b9 00 00 00 00	 mov	 ecx, OFFSET ?gDirPath@@3VCDirPath@@A ; gDirPath
  0082f	e8 00 00 00 00	 call	 ?GetNewPath@CDirPath@@QAEPADPAD@Z ; CDirPath::GetNewPath
  00834	50		 push	 eax
  00835	6a 00		 push	 0
  00837	68 00 00 00 00	 push	 OFFSET ??_C@_0L@MDFHFAIK@MedalEvent@
  0083c	68 00 00 00 00	 push	 OFFSET ??_C@_0P@EMJDPFDH@GameServerInfo@
  00841	ff 15 00 00 00
	00		 call	 DWORD PTR __imp__GetPrivateProfileIntA@16
  00847	a3 00 00 00 00	 mov	 DWORD PTR ?gMedalEvent@@3HA, eax ; gMedalEvent

; 6126 : 			gGoldMedalDropRate			= GetPrivateProfileInt("GameServerInfo", "GoldMedalDropRate", 2, gDirPath.GetNewPath("commonserver.cfg"));						//   

  0084c	68 00 00 00 00	 push	 OFFSET ??_C@_0BB@IGLHFEOF@commonserver?4cfg@
  00851	b9 00 00 00 00	 mov	 ecx, OFFSET ?gDirPath@@3VCDirPath@@A ; gDirPath
  00856	e8 00 00 00 00	 call	 ?GetNewPath@CDirPath@@QAEPADPAD@Z ; CDirPath::GetNewPath
  0085b	50		 push	 eax
  0085c	6a 02		 push	 2
  0085e	68 00 00 00 00	 push	 OFFSET ??_C@_0BC@CFKHOCLM@GoldMedalDropRate@
  00863	68 00 00 00 00	 push	 OFFSET ??_C@_0P@EMJDPFDH@GameServerInfo@
  00868	ff 15 00 00 00
	00		 call	 DWORD PTR __imp__GetPrivateProfileIntA@16
  0086e	a3 00 00 00 00	 mov	 DWORD PTR ?gGoldMedalDropRate@@3HA, eax ; gGoldMedalDropRate

; 6127 : 			gSilverMedalDropRate		= GetPrivateProfileInt("GameServerInfo", "SilverMedalDropRate", 2, gDirPath.GetNewPath("commonserver.cfg"));					//   

  00873	68 00 00 00 00	 push	 OFFSET ??_C@_0BB@IGLHFEOF@commonserver?4cfg@
  00878	b9 00 00 00 00	 mov	 ecx, OFFSET ?gDirPath@@3VCDirPath@@A ; gDirPath
  0087d	e8 00 00 00 00	 call	 ?GetNewPath@CDirPath@@QAEPADPAD@Z ; CDirPath::GetNewPath
  00882	50		 push	 eax
  00883	6a 02		 push	 2
  00885	68 00 00 00 00	 push	 OFFSET ??_C@_0BE@OPKEGEPJ@SilverMedalDropRate@
  0088a	68 00 00 00 00	 push	 OFFSET ??_C@_0P@EMJDPFDH@GameServerInfo@
  0088f	ff 15 00 00 00
	00		 call	 DWORD PTR __imp__GetPrivateProfileIntA@16
  00895	a3 00 00 00 00	 mov	 DWORD PTR ?gSilverMedalDropRate@@3HA, eax ; gSilverMedalDropRate

; 6128 : 			g_ItemDropRateForGoldMedal	= GetPrivateProfileInt("GameServerInfo", "ItemDropRateForGoldMedal", 2, gDirPath.GetNewPath("commonserver.cfg"));		//    

  0089a	68 00 00 00 00	 push	 OFFSET ??_C@_0BB@IGLHFEOF@commonserver?4cfg@
  0089f	b9 00 00 00 00	 mov	 ecx, OFFSET ?gDirPath@@3VCDirPath@@A ; gDirPath
  008a4	e8 00 00 00 00	 call	 ?GetNewPath@CDirPath@@QAEPADPAD@Z ; CDirPath::GetNewPath
  008a9	50		 push	 eax
  008aa	6a 02		 push	 2
  008ac	68 00 00 00 00	 push	 OFFSET ??_C@_0BJ@HJDOLNNF@ItemDropRateForGoldMedal@
  008b1	68 00 00 00 00	 push	 OFFSET ??_C@_0P@EMJDPFDH@GameServerInfo@
  008b6	ff 15 00 00 00
	00		 call	 DWORD PTR __imp__GetPrivateProfileIntA@16
  008bc	a3 00 00 00 00	 mov	 DWORD PTR ?g_ItemDropRateForGoldMedal@@3HA, eax ; g_ItemDropRateForGoldMedal

; 6129 : 			g_ItemDropRateForSilverMedal	= GetPrivateProfileInt("GameServerInfo", "ItemDropRateForSilverMedal", 2, gDirPath.GetNewPath("commonserver.cfg"));	//    

  008c1	68 00 00 00 00	 push	 OFFSET ??_C@_0BB@IGLHFEOF@commonserver?4cfg@
  008c6	b9 00 00 00 00	 mov	 ecx, OFFSET ?gDirPath@@3VCDirPath@@A ; gDirPath
  008cb	e8 00 00 00 00	 call	 ?GetNewPath@CDirPath@@QAEPADPAD@Z ; CDirPath::GetNewPath
  008d0	50		 push	 eax
  008d1	6a 02		 push	 2
  008d3	68 00 00 00 00	 push	 OFFSET ??_C@_0BL@DECCHFKM@ItemDropRateForSilverMedal@
  008d8	68 00 00 00 00	 push	 OFFSET ??_C@_0P@EMJDPFDH@GameServerInfo@
  008dd	ff 15 00 00 00
	00		 call	 DWORD PTR __imp__GetPrivateProfileIntA@16
  008e3	a3 00 00 00 00	 mov	 DWORD PTR ?g_ItemDropRateForSilverMedal@@3HA, eax ; g_ItemDropRateForSilverMedal

; 6130 : 
; 6131 : 			// 9 .  
; 6132 : 			gXMasEvent					= GetPrivateProfileInt("GameServerInfo", "XMasEvent", 0, gDirPath.GetNewPath("commonserver.cfg"));

  008e8	68 00 00 00 00	 push	 OFFSET ??_C@_0BB@IGLHFEOF@commonserver?4cfg@
  008ed	b9 00 00 00 00	 mov	 ecx, OFFSET ?gDirPath@@3VCDirPath@@A ; gDirPath
  008f2	e8 00 00 00 00	 call	 ?GetNewPath@CDirPath@@QAEPADPAD@Z ; CDirPath::GetNewPath
  008f7	50		 push	 eax
  008f8	6a 00		 push	 0
  008fa	68 00 00 00 00	 push	 OFFSET ??_C@_09HEEPAMKP@XMasEvent@
  008ff	68 00 00 00 00	 push	 OFFSET ??_C@_0P@EMJDPFDH@GameServerInfo@
  00904	ff 15 00 00 00
	00		 call	 DWORD PTR __imp__GetPrivateProfileIntA@16
  0090a	a3 00 00 00 00	 mov	 DWORD PTR ?gXMasEvent@@3HA, eax ; gXMasEvent

; 6133 : 			g_XMasEvent_StarOfXMasDropRate	= GetPrivateProfileInt("GameServerInfo", "XMasEvent_StarOfXMasDropRate", 5000, gDirPath.GetNewPath("commonserver.cfg"));

  0090f	68 00 00 00 00	 push	 OFFSET ??_C@_0BB@IGLHFEOF@commonserver?4cfg@
  00914	b9 00 00 00 00	 mov	 ecx, OFFSET ?gDirPath@@3VCDirPath@@A ; gDirPath
  00919	e8 00 00 00 00	 call	 ?GetNewPath@CDirPath@@QAEPADPAD@Z ; CDirPath::GetNewPath
  0091e	50		 push	 eax
  0091f	68 88 13 00 00	 push	 5000			; 00001388H
  00924	68 00 00 00 00	 push	 OFFSET ??_C@_0BN@EDHJHEEJ@XMasEvent_StarOfXMasDropRate@
  00929	68 00 00 00 00	 push	 OFFSET ??_C@_0P@EMJDPFDH@GameServerInfo@
  0092e	ff 15 00 00 00
	00		 call	 DWORD PTR __imp__GetPrivateProfileIntA@16
  00934	a3 00 00 00 00	 mov	 DWORD PTR ?g_XMasEvent_StarOfXMasDropRate@@3HA, eax ; g_XMasEvent_StarOfXMasDropRate

; 6134 : 			g_XMasEvent_ItemDropRateForStarOfXMas	= GetPrivateProfileInt("GameServerInfo", "XMasEvent_ItemDropRateForStarOfXMas", 2, gDirPath.GetNewPath("commonserver.cfg"));

  00939	68 00 00 00 00	 push	 OFFSET ??_C@_0BB@IGLHFEOF@commonserver?4cfg@
  0093e	b9 00 00 00 00	 mov	 ecx, OFFSET ?gDirPath@@3VCDirPath@@A ; gDirPath
  00943	e8 00 00 00 00	 call	 ?GetNewPath@CDirPath@@QAEPADPAD@Z ; CDirPath::GetNewPath
  00948	50		 push	 eax
  00949	6a 02		 push	 2
  0094b	68 00 00 00 00	 push	 OFFSET ??_C@_0CE@BHNJHAEB@XMasEvent_ItemDropRateForStarOf@
  00950	68 00 00 00 00	 push	 OFFSET ??_C@_0P@EMJDPFDH@GameServerInfo@
  00955	ff 15 00 00 00
	00		 call	 DWORD PTR __imp__GetPrivateProfileIntA@16
  0095b	a3 00 00 00 00	 mov	 DWORD PTR ?g_XMasEvent_ItemDropRateForStarOfXMas@@3HA, eax ; g_XMasEvent_ItemDropRateForStarOfXMas

; 6135 : 
; 6136 : 			// 10 .  
; 6137 : 			gHeartOfLoveEvent			= GetPrivateProfileInt("GameServerInfo", "HeartOfLoveEvent", 0, gDirPath.GetNewPath("commonserver.cfg"));

  00960	68 00 00 00 00	 push	 OFFSET ??_C@_0BB@IGLHFEOF@commonserver?4cfg@
  00965	b9 00 00 00 00	 mov	 ecx, OFFSET ?gDirPath@@3VCDirPath@@A ; gDirPath
  0096a	e8 00 00 00 00	 call	 ?GetNewPath@CDirPath@@QAEPADPAD@Z ; CDirPath::GetNewPath
  0096f	50		 push	 eax
  00970	6a 00		 push	 0
  00972	68 00 00 00 00	 push	 OFFSET ??_C@_0BB@CGEJHOOF@HeartOfLoveEvent@
  00977	68 00 00 00 00	 push	 OFFSET ??_C@_0P@EMJDPFDH@GameServerInfo@
  0097c	ff 15 00 00 00
	00		 call	 DWORD PTR __imp__GetPrivateProfileIntA@16
  00982	a3 00 00 00 00	 mov	 DWORD PTR ?gHeartOfLoveEvent@@3HA, eax ; gHeartOfLoveEvent

; 6138 : 			gHeartOfLoveDropRate		= GetPrivateProfileInt("GameServerInfo", "HeartOfLoveDropRate", 5000, gDirPath.GetNewPath("commonserver.cfg"));

  00987	68 00 00 00 00	 push	 OFFSET ??_C@_0BB@IGLHFEOF@commonserver?4cfg@
  0098c	b9 00 00 00 00	 mov	 ecx, OFFSET ?gDirPath@@3VCDirPath@@A ; gDirPath
  00991	e8 00 00 00 00	 call	 ?GetNewPath@CDirPath@@QAEPADPAD@Z ; CDirPath::GetNewPath
  00996	50		 push	 eax
  00997	68 88 13 00 00	 push	 5000			; 00001388H
  0099c	68 00 00 00 00	 push	 OFFSET ??_C@_0BE@JJGBIMJB@HeartOfLoveDropRate@
  009a1	68 00 00 00 00	 push	 OFFSET ??_C@_0P@EMJDPFDH@GameServerInfo@
  009a6	ff 15 00 00 00
	00		 call	 DWORD PTR __imp__GetPrivateProfileIntA@16
  009ac	a3 00 00 00 00	 mov	 DWORD PTR ?gHeartOfLoveDropRate@@3HA, eax ; gHeartOfLoveDropRate

; 6139 : 			g_ItemDropRateForgHeartOfLove	= GetPrivateProfileInt("GameServerInfo", "ItemDropRateForHeartOfLove", 2, gDirPath.GetNewPath("commonserver.cfg"));

  009b1	68 00 00 00 00	 push	 OFFSET ??_C@_0BB@IGLHFEOF@commonserver?4cfg@
  009b6	b9 00 00 00 00	 mov	 ecx, OFFSET ?gDirPath@@3VCDirPath@@A ; gDirPath
  009bb	e8 00 00 00 00	 call	 ?GetNewPath@CDirPath@@QAEPADPAD@Z ; CDirPath::GetNewPath
  009c0	50		 push	 eax
  009c1	6a 02		 push	 2
  009c3	68 00 00 00 00	 push	 OFFSET ??_C@_0BL@CMBFLADP@ItemDropRateForHeartOfLove@
  009c8	68 00 00 00 00	 push	 OFFSET ??_C@_0P@EMJDPFDH@GameServerInfo@
  009cd	ff 15 00 00 00
	00		 call	 DWORD PTR __imp__GetPrivateProfileIntA@16
  009d3	a3 00 00 00 00	 mov	 DWORD PTR ?g_ItemDropRateForgHeartOfLove@@3HA, eax ; g_ItemDropRateForgHeartOfLove

; 6140 : 
; 6141 : 			// 11 . NPC 
; 6142 : 			GetPrivateProfileString("GameServerInfo", "HappyNewYearTalkNpc", "0", szTemp, 5, gDirPath.GetNewPath("commonserver.cfg"));	

  009d8	68 00 00 00 00	 push	 OFFSET ??_C@_0BB@IGLHFEOF@commonserver?4cfg@
  009dd	b9 00 00 00 00	 mov	 ecx, OFFSET ?gDirPath@@3VCDirPath@@A ; gDirPath
  009e2	e8 00 00 00 00	 call	 ?GetNewPath@CDirPath@@QAEPADPAD@Z ; CDirPath::GetNewPath
  009e7	50		 push	 eax
  009e8	6a 05		 push	 5
  009ea	8d 85 fc fe ff
	ff		 lea	 eax, DWORD PTR _szTemp$[ebp]
  009f0	50		 push	 eax
  009f1	68 00 00 00 00	 push	 OFFSET ??_C@_01GBGANLPD@0@
  009f6	68 00 00 00 00	 push	 OFFSET ??_C@_0BE@MPGFIFAO@HappyNewYearTalkNpc@
  009fb	68 00 00 00 00	 push	 OFFSET ??_C@_0P@EMJDPFDH@GameServerInfo@
  00a00	ff 15 00 00 00
	00		 call	 DWORD PTR __imp__GetPrivateProfileStringA@24

; 6143 : 			gHappyNewYearNpcEvent		= atoi(szTemp);

  00a06	8d 85 fc fe ff
	ff		 lea	 eax, DWORD PTR _szTemp$[ebp]
  00a0c	50		 push	 eax
  00a0d	e8 00 00 00 00	 call	 _atoi
  00a12	83 c4 04	 add	 esp, 4
  00a15	a3 00 00 00 00	 mov	 DWORD PTR ?gHappyNewYearNpcEvent@@3HA, eax ; gHappyNewYearNpcEvent

; 6144 : 			if( gHappyNewYearNpcEvent )	LogAddTD(lMsg.Get(573));	// []   NPC  

  00a1a	83 3d 00 00 00
	00 00		 cmp	 DWORD PTR ?gHappyNewYearNpcEvent@@3HA, 0 ; gHappyNewYearNpcEvent
  00a21	74 1a		 je	 SHORT $LN5@ReadEventI
  00a23	68 3d 02 00 00	 push	 573			; 0000023dH
  00a28	b9 00 00 00 00	 mov	 ecx, OFFSET ?lMsg@@3VCMsg@@A ; lMsg
  00a2d	ff 15 00 00 00
	00		 call	 DWORD PTR __imp_?Get@CMsg@@QAEPADH@Z
  00a33	50		 push	 eax
  00a34	ff 15 00 00 00
	00		 call	 DWORD PTR ?LogAddTD@@3P6AXPADZZA ; LogAddTD
  00a3a	83 c4 04	 add	 esp, 4
$LN5@ReadEventI:

; 6145 : 
; 6146 : 			// 12 . NPC 
; 6147 : 			GetPrivateProfileString("GameServerInfo", "MerryXMasTalkNpc", "0", szTemp, 5, gDirPath.GetNewPath("commonserver.cfg"));	

  00a3d	68 00 00 00 00	 push	 OFFSET ??_C@_0BB@IGLHFEOF@commonserver?4cfg@
  00a42	b9 00 00 00 00	 mov	 ecx, OFFSET ?gDirPath@@3VCDirPath@@A ; gDirPath
  00a47	e8 00 00 00 00	 call	 ?GetNewPath@CDirPath@@QAEPADPAD@Z ; CDirPath::GetNewPath
  00a4c	50		 push	 eax
  00a4d	6a 05		 push	 5
  00a4f	8d 85 fc fe ff
	ff		 lea	 eax, DWORD PTR _szTemp$[ebp]
  00a55	50		 push	 eax
  00a56	68 00 00 00 00	 push	 OFFSET ??_C@_01GBGANLPD@0@
  00a5b	68 00 00 00 00	 push	 OFFSET ??_C@_0BB@HOHJFGOC@MerryXMasTalkNpc@
  00a60	68 00 00 00 00	 push	 OFFSET ??_C@_0P@EMJDPFDH@GameServerInfo@
  00a65	ff 15 00 00 00
	00		 call	 DWORD PTR __imp__GetPrivateProfileStringA@24

; 6148 : 			gMerryXMasNpcEvent			= atoi(szTemp);

  00a6b	8d 85 fc fe ff
	ff		 lea	 eax, DWORD PTR _szTemp$[ebp]
  00a71	50		 push	 eax
  00a72	e8 00 00 00 00	 call	 _atoi
  00a77	83 c4 04	 add	 esp, 4
  00a7a	a3 00 00 00 00	 mov	 DWORD PTR ?gMerryXMasNpcEvent@@3HA, eax ; gMerryXMasNpcEvent

; 6149 : 			if( gMerryXMasNpcEvent )	LogAddTD(lMsg.Get(572));	// []  NPC  

  00a7f	83 3d 00 00 00
	00 00		 cmp	 DWORD PTR ?gMerryXMasNpcEvent@@3HA, 0 ; gMerryXMasNpcEvent
  00a86	74 1a		 je	 SHORT $LN6@ReadEventI
  00a88	68 3c 02 00 00	 push	 572			; 0000023cH
  00a8d	b9 00 00 00 00	 mov	 ecx, OFFSET ?lMsg@@3VCMsg@@A ; lMsg
  00a92	ff 15 00 00 00
	00		 call	 DWORD PTR __imp_?Get@CMsg@@QAEPADH@Z
  00a98	50		 push	 eax
  00a99	ff 15 00 00 00
	00		 call	 DWORD PTR ?LogAddTD@@3P6AXPADZZA ; LogAddTD
  00a9f	83 c4 04	 add	 esp, 4
$LN6@ReadEventI:

; 6150 : 
; 6151 : #ifdef CHAOSCASTLE_SYSTEM_20040408 
; 6152 : 			// 13 .  
; 6153 : 			g_ChaosCastle.Load(gDirPath.GetNewPath("ChaosCastle.dat"));

  00aa2	68 00 00 00 00	 push	 OFFSET ??_C@_0BA@LOKHGJIA@ChaosCastle?4dat@
  00aa7	b9 00 00 00 00	 mov	 ecx, OFFSET ?gDirPath@@3VCDirPath@@A ; gDirPath
  00aac	e8 00 00 00 00	 call	 ?GetNewPath@CDirPath@@QAEPADPAD@Z ; CDirPath::GetNewPath
  00ab1	50		 push	 eax
  00ab2	b9 00 00 00 00	 mov	 ecx, OFFSET ?g_ChaosCastle@@3VCChaosCastle@@A ; g_ChaosCastle
  00ab7	e8 00 00 00 00	 call	 ?Load@CChaosCastle@@QAEXPAD@Z ; CChaosCastle::Load

; 6154 : 			g_bChaosCastle				= GetPrivateProfileInt("GameServerInfo", "ChaosCastleEvent", 0, gDirPath.GetNewPath("commonserver.cfg"));

  00abc	68 00 00 00 00	 push	 OFFSET ??_C@_0BB@IGLHFEOF@commonserver?4cfg@
  00ac1	b9 00 00 00 00	 mov	 ecx, OFFSET ?gDirPath@@3VCDirPath@@A ; gDirPath
  00ac6	e8 00 00 00 00	 call	 ?GetNewPath@CDirPath@@QAEPADPAD@Z ; CDirPath::GetNewPath
  00acb	50		 push	 eax
  00acc	6a 00		 push	 0
  00ace	68 00 00 00 00	 push	 OFFSET ??_C@_0BB@EAJFBCDB@ChaosCastleEvent@
  00ad3	68 00 00 00 00	 push	 OFFSET ??_C@_0P@EMJDPFDH@GameServerInfo@
  00ad8	ff 15 00 00 00
	00		 call	 DWORD PTR __imp__GetPrivateProfileIntA@16
  00ade	a3 00 00 00 00	 mov	 DWORD PTR ?g_bChaosCastle@@3HA, eax ; g_bChaosCastle

; 6155 : #endif
; 6156 : 
; 6157 : #ifdef ADD_NEW_MAP_KALIMA_20040518									//    .
; 6158 : 			// 14 .  - 
; 6159 : 			g_iKundunMarkDropRate		= GetPrivateProfileInt("GameServerInfo", "KundunMarkDropRate", 0, gDirPath.GetNewPath("commonserver.cfg"));

  00ae3	68 00 00 00 00	 push	 OFFSET ??_C@_0BB@IGLHFEOF@commonserver?4cfg@
  00ae8	b9 00 00 00 00	 mov	 ecx, OFFSET ?gDirPath@@3VCDirPath@@A ; gDirPath
  00aed	e8 00 00 00 00	 call	 ?GetNewPath@CDirPath@@QAEPADPAD@Z ; CDirPath::GetNewPath
  00af2	50		 push	 eax
  00af3	6a 00		 push	 0
  00af5	68 00 00 00 00	 push	 OFFSET ??_C@_0BD@BFEFAHKC@KundunMarkDropRate@
  00afa	68 00 00 00 00	 push	 OFFSET ??_C@_0P@EMJDPFDH@GameServerInfo@
  00aff	ff 15 00 00 00
	00		 call	 DWORD PTR __imp__GetPrivateProfileIntA@16
  00b05	a3 00 00 00 00	 mov	 DWORD PTR ?g_iKundunMarkDropRate@@3HA, eax ; g_iKundunMarkDropRate

; 6160 : #endif
; 6161 : 
; 6162 : #ifdef HIDDEN_TREASUREBOX_EVENT_20050804							//    
; 6163 : 			// 15 .   
; 6164 : 			g_iMysteriousBeadDropRate1 = GetPrivateProfileInt("GameServerInfo", "MysteriouseBeadDropRate1", 0, gDirPath.GetNewPath("commonserver.cfg"));
; 6165 : 			g_iMysteriousBeadDropRate2 = GetPrivateProfileInt("GameServerInfo", "MysteriouseBeadDropRate2", 0, gDirPath.GetNewPath("commonserver.cfg"));
; 6166 : 			g_iHiddenTreasureBoxOfflineRate = GetPrivateProfileInt("GameServerInfo", "HiddenTreasureBoxOfflineRate", 0, gDirPath.GetNewPath("commonserver.cfg"));
; 6167 : #endif
; 6168 : 
; 6169 : #ifdef EVENT_MANAGEMENT_20040711
; 6170 : 			// 16 .    
; 6171 : 			GetPrivateProfileString("GameServerInfo", "EventManagerOn", "0", szTemp, 5, gDirPath.GetNewPath("commonserver.cfg"));

  00b0a	68 00 00 00 00	 push	 OFFSET ??_C@_0BB@IGLHFEOF@commonserver?4cfg@
  00b0f	b9 00 00 00 00	 mov	 ecx, OFFSET ?gDirPath@@3VCDirPath@@A ; gDirPath
  00b14	e8 00 00 00 00	 call	 ?GetNewPath@CDirPath@@QAEPADPAD@Z ; CDirPath::GetNewPath
  00b19	50		 push	 eax
  00b1a	6a 05		 push	 5
  00b1c	8d 85 fc fe ff
	ff		 lea	 eax, DWORD PTR _szTemp$[ebp]
  00b22	50		 push	 eax
  00b23	68 00 00 00 00	 push	 OFFSET ??_C@_01GBGANLPD@0@
  00b28	68 00 00 00 00	 push	 OFFSET ??_C@_0P@JCOIPJAE@EventManagerOn@
  00b2d	68 00 00 00 00	 push	 OFFSET ??_C@_0P@EMJDPFDH@GameServerInfo@
  00b32	ff 15 00 00 00
	00		 call	 DWORD PTR __imp__GetPrivateProfileStringA@24

; 6172 : 			g_bEventManagerOn				= (BOOL)atoi(szTemp);

  00b38	8d 85 fc fe ff
	ff		 lea	 eax, DWORD PTR _szTemp$[ebp]
  00b3e	50		 push	 eax
  00b3f	e8 00 00 00 00	 call	 _atoi
  00b44	83 c4 04	 add	 esp, 4
  00b47	a3 00 00 00 00	 mov	 DWORD PTR ?g_bEventManagerOn@@3HA, eax ; g_bEventManagerOn

; 6173 : 
; 6174 : 			g_EventManager.Load(gDirPath.GetNewPath("EventManagement.dat"));

  00b4c	68 00 00 00 00	 push	 OFFSET ??_C@_0BE@KJOHMGFA@EventManagement?4dat@
  00b51	b9 00 00 00 00	 mov	 ecx, OFFSET ?gDirPath@@3VCDirPath@@A ; gDirPath
  00b56	e8 00 00 00 00	 call	 ?GetNewPath@CDirPath@@QAEPADPAD@Z ; CDirPath::GetNewPath
  00b5b	50		 push	 eax
  00b5c	b9 00 00 00 00	 mov	 ecx, OFFSET ?g_EventManager@@3VCEventManagement@@A ; g_EventManager
  00b61	e8 00 00 00 00	 call	 ?Load@CEventManagement@@QAE_NPAD@Z ; CEventManagement::Load

; 6175 : 
; 6176 : 			g_EventManager.RegEvent (CEventManagement::EVENT_ID_DRAGONHERD,		(LPVOID) DragonEvent);

  00b66	a1 00 00 00 00	 mov	 eax, DWORD PTR ?DragonEvent@@3PAVCDragonEvent@@A ; DragonEvent
  00b6b	50		 push	 eax
  00b6c	6a 00		 push	 0
  00b6e	b9 00 00 00 00	 mov	 ecx, OFFSET ?g_EventManager@@3VCEventManagement@@A ; g_EventManager
  00b73	e8 00 00 00 00	 call	 ?RegEvent@CEventManagement@@QAEXHPAX@Z ; CEventManagement::RegEvent

; 6177 : 			g_EventManager.RegEvent (CEventManagement::EVENT_ID_UNDERTROOP,		(LPVOID) AttackEvent);

  00b78	a1 00 00 00 00	 mov	 eax, DWORD PTR ?AttackEvent@@3PAVCAttackEvent@@A ; AttackEvent
  00b7d	50		 push	 eax
  00b7e	6a 01		 push	 1
  00b80	b9 00 00 00 00	 mov	 ecx, OFFSET ?g_EventManager@@3VCEventManagement@@A ; g_EventManager
  00b85	e8 00 00 00 00	 call	 ?RegEvent@CEventManagement@@QAEXHPAX@Z ; CEventManagement::RegEvent

; 6178 : 			g_EventManager.RegEvent (CEventManagement::EVENT_ID_ELDORADO,		(LPVOID) &gEledoradoEvent);

  00b8a	68 00 00 00 00	 push	 OFFSET ?gEledoradoEvent@@3VCEledoradoEvent@@A ; gEledoradoEvent
  00b8f	6a 02		 push	 2
  00b91	b9 00 00 00 00	 mov	 ecx, OFFSET ?g_EventManager@@3VCEventManagement@@A ; g_EventManager
  00b96	e8 00 00 00 00	 call	 ?RegEvent@CEventManagement@@QAEXHPAX@Z ; CEventManagement::RegEvent

; 6179 : #ifdef MONSTER_HERD_SYSTEM_20031120
; 6180 : 			g_EventManager.RegEvent (CEventManagement::EVENT_ID_WHITEMAGE,		(LPVOID) &g_RingAttackEvent);

  00b9b	68 00 00 00 00	 push	 OFFSET ?g_RingAttackEvent@@3VCRingAttackEvent@@A ; g_RingAttackEvent
  00ba0	6a 03		 push	 3
  00ba2	b9 00 00 00 00	 mov	 ecx, OFFSET ?g_EventManager@@3VCEventManagement@@A ; g_EventManager
  00ba7	e8 00 00 00 00	 call	 ?RegEvent@CEventManagement@@QAEXHPAX@Z ; CEventManagement::RegEvent

; 6181 : #endif
; 6182 : #ifdef ADD_ITEM_ATTACK_XMASEVENT_20081014
; 6183 : 			g_EventManager.RegEvent (CEventManagement::EVENT_ID_SANTACLAUS,		(LPVOID) &g_XMasAttackEvent);
; 6184 : #endif // ADD_ITEM_ATTACK_XMASEVENT_20081014
; 6185 : 
; 6186 : 			g_EventManager.Init(g_bEventManagerOn);

  00bac	a1 00 00 00 00	 mov	 eax, DWORD PTR ?g_bEventManagerOn@@3HA ; g_bEventManagerOn
  00bb1	50		 push	 eax
  00bb2	b9 00 00 00 00	 mov	 ecx, OFFSET ?g_EventManager@@3VCEventManagement@@A ; g_EventManager
  00bb7	e8 00 00 00 00	 call	 ?Init@CEventManagement@@QAEXH@Z ; CEventManagement::Init

; 6187 : #endif
; 6188 : 
; 6189 : #ifdef HAPPY_POUCH
; 6190 : 			// apple20050204
; 6191 : 			// 17 . ,   
; 6192 : 			gHappyPouchRedDropRate	= GetPrivateProfileInt("GameServerInfo", "HappyPouchRedDropRate", 0, gDirPath.GetNewPath("commonserver.cfg"));							
; 6193 : 			gHappyPouchBlueDropRate	= GetPrivateProfileInt("GameServerInfo", "HappyPouchBlueDropRate", 0, gDirPath.GetNewPath("commonserver.cfg"));							
; 6194 : #endif
; 6195 : 	
; 6196 : 			// 18.   
; 6197 : #ifdef DARK_LORD_HEART_EVENT_20040810						//      .
; 6198 : 			g_iDarkLordHeartDropRate		= GetPrivateProfileInt("GameServerInfo", "DarkLordHeartDropRate", 0, gDirPath.GetNewPath("commonserver.cfg"));

  00bbc	68 00 00 00 00	 push	 OFFSET ??_C@_0BB@IGLHFEOF@commonserver?4cfg@
  00bc1	b9 00 00 00 00	 mov	 ecx, OFFSET ?gDirPath@@3VCDirPath@@A ; gDirPath
  00bc6	e8 00 00 00 00	 call	 ?GetNewPath@CDirPath@@QAEPADPAD@Z ; CDirPath::GetNewPath
  00bcb	50		 push	 eax
  00bcc	6a 00		 push	 0
  00bce	68 00 00 00 00	 push	 OFFSET ??_C@_0BG@GAOBCKDF@DarkLordHeartDropRate@
  00bd3	68 00 00 00 00	 push	 OFFSET ??_C@_0P@EMJDPFDH@GameServerInfo@
  00bd8	ff 15 00 00 00
	00		 call	 DWORD PTR __imp__GetPrivateProfileIntA@16
  00bde	a3 00 00 00 00	 mov	 DWORD PTR ?g_iDarkLordHeartDropRate@@3HA, eax ; g_iDarkLordHeartDropRate

; 6199 : 			g_iDarkLordHeartOffEventRate	= GetPrivateProfileInt("GameServerInfo", "DarkLoadHeartOffEventRate", 0, gDirPath.GetNewPath("commonserver.cfg"));

  00be3	68 00 00 00 00	 push	 OFFSET ??_C@_0BB@IGLHFEOF@commonserver?4cfg@
  00be8	b9 00 00 00 00	 mov	 ecx, OFFSET ?gDirPath@@3VCDirPath@@A ; gDirPath
  00bed	e8 00 00 00 00	 call	 ?GetNewPath@CDirPath@@QAEPADPAD@Z ; CDirPath::GetNewPath
  00bf2	50		 push	 eax
  00bf3	6a 00		 push	 0
  00bf5	68 00 00 00 00	 push	 OFFSET ??_C@_0BK@HAJPAMCO@DarkLoadHeartOffEventRate@
  00bfa	68 00 00 00 00	 push	 OFFSET ??_C@_0P@EMJDPFDH@GameServerInfo@
  00bff	ff 15 00 00 00
	00		 call	 DWORD PTR __imp__GetPrivateProfileIntA@16
  00c05	a3 00 00 00 00	 mov	 DWORD PTR ?g_iDarkLordHeartOffEventRate@@3HA, eax ; g_iDarkLordHeartOffEventRate

; 6200 : #endif		
; 6201 : 			// 19.   
; 6202 : #ifdef CHRISTMAS_RIBBONBOX_EVENT_20051212
; 6203 : 			g_bRibbonBoxEvent					= GetPrivateProfileInt( "GameServerInfo", "RibbonBoxEvent", 0, gDirPath.GetNewPath("commonserver.cfg"));
; 6204 : 
; 6205 : 			g_iRedRibbonBoxDropLevelMin			= GetPrivateProfileInt( "GameServerInfo", "RedRibbonBoxDropLv_Min", 0, gDirPath.GetNewPath("commonserver.cfg"));
; 6206 : 			g_iRedRibbonBoxDropLevelMax			= GetPrivateProfileInt( "GameServerInfo", "RedRibbonBoxDropLv_Max", 0, gDirPath.GetNewPath("commonserver.cfg"));	
; 6207 : 			g_iRedRibbonBoxDropRate				= GetPrivateProfileInt( "GameServerInfo", "RedRibbonBoxDropRate", 0, gDirPath.GetNewPath("commonserver.cfg"));
; 6208 : 			g_iRedRibbonBoxDropZenRate			= GetPrivateProfileInt( "GameServerInfo", "RedRibbonBoxDropZenRate", 0, gDirPath.GetNewPath("commonserver.cfg"));
; 6209 : 			g_iRedRibbonBoxDropZen				= GetPrivateProfileInt( "GameServerInfo", "RedRibbonBoxDropZen", 0, gDirPath.GetNewPath("commonserver.cfg"));
; 6210 : 
; 6211 : 			g_iGreenRibbonBoxDropLevelMin		= GetPrivateProfileInt( "GameServerInfo", "GreenRibbonBoxDropLv_Min", 0, gDirPath.GetNewPath("commonserver.cfg"));
; 6212 : 			g_iGreenRibbonBoxDropLevelMax		= GetPrivateProfileInt( "GameServerInfo", "GreenRibbonBoxDropLv_Max", 0, gDirPath.GetNewPath("commonserver.cfg"));
; 6213 : 			g_iGreenRibbonBoxDropRate			= GetPrivateProfileInt( "GameServerInfo", "GreenRibbonBoxDropRate", 0, gDirPath.GetNewPath("commonserver.cfg"));
; 6214 : 			g_iGreenRibbonBoxDropZenRate		= GetPrivateProfileInt( "GameServerInfo", "GreenRibbonBoxDropZenRate", 0, gDirPath.GetNewPath("commonserver.cfg"));
; 6215 : 			g_iGreenRibbonBoxDropZen			= GetPrivateProfileInt( "GameServerInfo", "GreenRibbonBoxDropZen", 0, gDirPath.GetNewPath("commonserver.cfg"));
; 6216 : 
; 6217 : 			g_iBlueRibbonBoxDropLevelMin		= GetPrivateProfileInt( "GameServerInfo", "BlueRibbonBoxDropLv_Min", 0, gDirPath.GetNewPath("commonserver.cfg"));		
; 6218 : 			g_iBlueRibbonBoxDropLevelMax		= GetPrivateProfileInt( "GameServerInfo", "BlueRibbonBoxDropLv_Max", 0, gDirPath.GetNewPath("commonserver.cfg"));
; 6219 : 			g_iBlueRibbonBoxDropRate			= GetPrivateProfileInt( "GameServerInfo", "BlueRibbonBoxDropRate", 0, gDirPath.GetNewPath("commonserver.cfg"));
; 6220 : 			g_iBlueRibbonBoxDropZenRate			= GetPrivateProfileInt( "GameServerInfo", "BlueRibbonBoxDropZenRate", 0, gDirPath.GetNewPath("commonserver.cfg"));
; 6221 : 			g_iBlueRibbonBoxDropZen				= GetPrivateProfileInt( "GameServerInfo", "BlueRibbonBoxDropZen", 0, gDirPath.GetNewPath("commonserver.cfg"));
; 6222 : #endif //#ifdef CHRISTMAS_RIBBONBOX_EVENT_20051212
; 6223 : 			
; 6224 : 		// 20.   ( RKFKA )
; 6225 : #ifdef VALENTINES_DAY_BOX_EVENT_20060124
; 6226 : 			g_bChocolateBoxEvent				= GetPrivateProfileInt( "GameServerInfo", "ChocolateEvent", 0, gDirPath.GetNewPath("commonserver.cfg"));
; 6227 : 
; 6228 : 			g_iPinkChocolateBoxDropLevelMin		= GetPrivateProfileInt( "GameServerInfo", "PinkChocolateBoxDropLv_Min", 0, gDirPath.GetNewPath("commonserver.cfg"));
; 6229 : 			g_iPinkChocolateBoxDropLevelMax		= GetPrivateProfileInt( "GameServerInfo", "PinkChocolateBoxDropLv_Max", 0, gDirPath.GetNewPath("commonserver.cfg"));	
; 6230 : 			g_iPinkChocolateBoxDropRate			= GetPrivateProfileInt( "GameServerInfo", "PinkChocolateBoxDropRate", 0, gDirPath.GetNewPath("commonserver.cfg"));
; 6231 : 			g_iPinkChocolateBoxDropZenRate		= GetPrivateProfileInt( "GameServerInfo", "PinkChocolateBoxDropZenRate", 0, gDirPath.GetNewPath("commonserver.cfg"));
; 6232 : 			g_iPinkChocolateBoxDropZen			= GetPrivateProfileInt( "GameServerInfo", "PinkChocolateBoxDropZen", 0, gDirPath.GetNewPath("commonserver.cfg"));
; 6233 : 
; 6234 : 			g_iRedChocolateBoxDropLevelMin		= GetPrivateProfileInt( "GameServerInfo", "RedChocolateBoxDropLv_Min", 0, gDirPath.GetNewPath("commonserver.cfg"));
; 6235 : 			g_iRedChocolateBoxDropLevelMax		= GetPrivateProfileInt( "GameServerInfo", "RedChocolateBoxDropLv_Max", 0, gDirPath.GetNewPath("commonserver.cfg"));
; 6236 : 			g_iRedChocolateBoxDropRate			= GetPrivateProfileInt( "GameServerInfo", "RedChocolateBoxDropRate", 0, gDirPath.GetNewPath("commonserver.cfg"));
; 6237 : 			g_iRedChocolateBoxDropZenRate		= GetPrivateProfileInt( "GameServerInfo", "RedChocolateBoxDropZenRate", 0, gDirPath.GetNewPath("commonserver.cfg"));
; 6238 : 			g_iRedChocolateBoxDropZen			= GetPrivateProfileInt( "GameServerInfo", "RedChocolateBoxDropZen", 0, gDirPath.GetNewPath("commonserver.cfg"));
; 6239 : 
; 6240 : 			g_iBlueChocolateBoxDropLevelMin		= GetPrivateProfileInt( "GameServerInfo", "BlueChocolateBoxDropLv_Min", 0, gDirPath.GetNewPath("commonserver.cfg"));		
; 6241 : 			g_iBlueChocolateBoxDropLevelMax		= GetPrivateProfileInt( "GameServerInfo", "BlueChocolateBoxDropLv_Max", 0, gDirPath.GetNewPath("commonserver.cfg"));
; 6242 : 			g_iBlueChocolateBoxDropRate			= GetPrivateProfileInt( "GameServerInfo", "BlueChocolateBoxDropRate", 0, gDirPath.GetNewPath("commonserver.cfg"));
; 6243 : 			g_iBlueChocolateBoxDropZenRate		= GetPrivateProfileInt( "GameServerInfo", "BlueChocolateBoxDropZenRate", 0, gDirPath.GetNewPath("commonserver.cfg"));
; 6244 : 			g_iBlueChocolateBoxDropZen			= GetPrivateProfileInt( "GameServerInfo", "BlueChocolateBoxDropZen", 0, gDirPath.GetNewPath("commonserver.cfg"));
; 6245 : #endif //#ifdef VALENTINES_DAY_BOX_EVENT_20060124
; 6246 : 
; 6247 : 		// 21.   ( RKFKA )
; 6248 : #ifdef WHITEDAY_CANDY_BOX_EVENT_20060222
; 6249 : 			g_bCandyBoxEvent					= GetPrivateProfileInt( "GameServerInfo", "CandyBoxEvent", 0, gDirPath.GetNewPath("commonserver.cfg"));
; 6250 : 
; 6251 : 			g_iLightPurpleCandyBoxDropLevelMin	= GetPrivateProfileInt( "GameServerInfo", "LightPurpleCandyBoxDropLv_Min", 0, gDirPath.GetNewPath("commonserver.cfg"));
; 6252 : 			g_iLightPurpleCandyBoxDropLevelMax	= GetPrivateProfileInt( "GameServerInfo", "LightPurpleCandyBoxDropLv_Max", 0, gDirPath.GetNewPath("commonserver.cfg"));	
; 6253 : 			g_iLightPurpleCandyBoxDropRate		= GetPrivateProfileInt( "GameServerInfo", "LightPurpleCandyBoxDropRate", 0, gDirPath.GetNewPath("commonserver.cfg"));
; 6254 : 			g_iLightPurpleCandyBoxDropZenRate	= GetPrivateProfileInt( "GameServerInfo", "LightPurpleCandyBoxDropZenRate", 0, gDirPath.GetNewPath("commonserver.cfg"));
; 6255 : 			g_iLightPurpleCandyBoxDropZen		= GetPrivateProfileInt( "GameServerInfo", "LightPurpleCandyBoxDropZen", 0, gDirPath.GetNewPath("commonserver.cfg"));
; 6256 : 
; 6257 : 			g_iVermilionCandyBoxDropLevelMin	= GetPrivateProfileInt( "GameServerInfo", "VermilionCandyBoxDropLv_Min", 0, gDirPath.GetNewPath("commonserver.cfg"));
; 6258 : 			g_iVermilionCandyBoxDropLevelMax	= GetPrivateProfileInt( "GameServerInfo", "VermilionCandyBoxDropLv_Max", 0, gDirPath.GetNewPath("commonserver.cfg"));
; 6259 : 			g_iVermilionCandyBoxDropRate		= GetPrivateProfileInt( "GameServerInfo", "VermilionCandyBoxDropRate", 0, gDirPath.GetNewPath("commonserver.cfg"));
; 6260 : 			g_iVermilionCandyBoxDropZenRate		= GetPrivateProfileInt( "GameServerInfo", "VermilionCandyBoxDropZenRate", 0, gDirPath.GetNewPath("commonserver.cfg"));
; 6261 : 			g_iVermilionCandyBoxDropZen			= GetPrivateProfileInt( "GameServerInfo", "VermilionCandyBoxDropZen", 0, gDirPath.GetNewPath("commonserver.cfg"));
; 6262 : 
; 6263 : 			g_iDeepBlueCandyBoxDropLevelMin		= GetPrivateProfileInt( "GameServerInfo", "DeepBlueCandyBoxDropLv_Min", 0, gDirPath.GetNewPath("commonserver.cfg"));		
; 6264 : 			g_iDeepBlueCandyBoxDropLevelMax		= GetPrivateProfileInt( "GameServerInfo", "DeepBlueCandyBoxDropLv_Max", 0, gDirPath.GetNewPath("commonserver.cfg"));
; 6265 : 			g_iDeepBlueCandyBoxDropRate			= GetPrivateProfileInt( "GameServerInfo", "DeepBlueCandyBoxDropRate", 0, gDirPath.GetNewPath("commonserver.cfg"));
; 6266 : 			g_iDeepBlueCandyBoxDropZenRate		= GetPrivateProfileInt( "GameServerInfo", "DeepBlueCandyBoxDropZenRate", 0, gDirPath.GetNewPath("commonserver.cfg"));
; 6267 : 			g_iDeepBlueCandyBoxDropZen			= GetPrivateProfileInt( "GameServerInfo", "DeepBlueCandyBoxDropZen", 0, gDirPath.GetNewPath("commonserver.cfg"));
; 6268 : #endif //#ifdef WHITEDAY_CANDY_BOX_EVENT_20060222
; 6269 : 			
; 6270 : 		}
; 6271 : 		break;

  00c0a	e9 68 09 00 00	 jmp	 $LN2@ReadEventI
$LN7@ReadEventI:

; 6272 : 
; 6273 : 	case MU_EVENT_DEVILSQUARE :			// 
; 6274 : 		{
; 6275 : 			g_DevilSquare.Load(gDirPath.GetNewPath("DevilSquare.dat"));

  00c0f	68 00 00 00 00	 push	 OFFSET ??_C@_0BA@JLLODMHA@DevilSquare?4dat@
  00c14	b9 00 00 00 00	 mov	 ecx, OFFSET ?gDirPath@@3VCDirPath@@A ; gDirPath
  00c19	e8 00 00 00 00	 call	 ?GetNewPath@CDirPath@@QAEPADPAD@Z ; CDirPath::GetNewPath
  00c1e	50		 push	 eax
  00c1f	b9 00 00 00 00	 mov	 ecx, OFFSET ?g_DevilSquare@@3VCDevilSquare@@A ; g_DevilSquare
  00c24	e8 00 00 00 00	 call	 ?Load@CDevilSquare@@QAEXPAD@Z ; CDevilSquare::Load

; 6276 : 			gDevilSquareEvent			= GetPrivateProfileInt("GameServerInfo", "DevilSquareEvent", 0, gDirPath.GetNewPath("commonserver.cfg"));

  00c29	68 00 00 00 00	 push	 OFFSET ??_C@_0BB@IGLHFEOF@commonserver?4cfg@
  00c2e	b9 00 00 00 00	 mov	 ecx, OFFSET ?gDirPath@@3VCDirPath@@A ; gDirPath
  00c33	e8 00 00 00 00	 call	 ?GetNewPath@CDirPath@@QAEPADPAD@Z ; CDirPath::GetNewPath
  00c38	50		 push	 eax
  00c39	6a 00		 push	 0
  00c3b	68 00 00 00 00	 push	 OFFSET ??_C@_0BB@PNANPJHI@DevilSquareEvent@
  00c40	68 00 00 00 00	 push	 OFFSET ??_C@_0P@EMJDPFDH@GameServerInfo@
  00c45	ff 15 00 00 00
	00		 call	 DWORD PTR __imp__GetPrivateProfileIntA@16
  00c4b	a3 00 00 00 00	 mov	 DWORD PTR ?gDevilSquareEvent@@3HA, eax ; gDevilSquareEvent

; 6277 : 			gEyesOfDevilSquareDropRate	= GetPrivateProfileInt("GameServerInfo", "EyesOfDevilSquareDropRate", 2, gDirPath.GetNewPath("commonserver.cfg"));

  00c50	68 00 00 00 00	 push	 OFFSET ??_C@_0BB@IGLHFEOF@commonserver?4cfg@
  00c55	b9 00 00 00 00	 mov	 ecx, OFFSET ?gDirPath@@3VCDirPath@@A ; gDirPath
  00c5a	e8 00 00 00 00	 call	 ?GetNewPath@CDirPath@@QAEPADPAD@Z ; CDirPath::GetNewPath
  00c5f	50		 push	 eax
  00c60	6a 02		 push	 2
  00c62	68 00 00 00 00	 push	 OFFSET ??_C@_0BK@NJHGKMMN@EyesOfDevilSquareDropRate@
  00c67	68 00 00 00 00	 push	 OFFSET ??_C@_0P@EMJDPFDH@GameServerInfo@
  00c6c	ff 15 00 00 00
	00		 call	 DWORD PTR __imp__GetPrivateProfileIntA@16
  00c72	a3 00 00 00 00	 mov	 DWORD PTR ?gEyesOfDevilSquareDropRate@@3HA, eax ; gEyesOfDevilSquareDropRate

; 6278 : 			gKeyOfDevilSquareDropRate	= GetPrivateProfileInt("GameServerInfo", "KeyOfDevilSquareDropRate", 2, gDirPath.GetNewPath("commonserver.cfg"));	   

  00c77	68 00 00 00 00	 push	 OFFSET ??_C@_0BB@IGLHFEOF@commonserver?4cfg@
  00c7c	b9 00 00 00 00	 mov	 ecx, OFFSET ?gDirPath@@3VCDirPath@@A ; gDirPath
  00c81	e8 00 00 00 00	 call	 ?GetNewPath@CDirPath@@QAEPADPAD@Z ; CDirPath::GetNewPath
  00c86	50		 push	 eax
  00c87	6a 02		 push	 2
  00c89	68 00 00 00 00	 push	 OFFSET ??_C@_0BJ@DHGJEDK@KeyOfDevilSquareDropRate@
  00c8e	68 00 00 00 00	 push	 OFFSET ??_C@_0P@EMJDPFDH@GameServerInfo@
  00c93	ff 15 00 00 00
	00		 call	 DWORD PTR __imp__GetPrivateProfileIntA@16
  00c99	a3 00 00 00 00	 mov	 DWORD PTR ?gKeyOfDevilSquareDropRate@@3HA, eax ; gKeyOfDevilSquareDropRate

; 6279 : 		}
; 6280 : 		break;

  00c9e	e9 d4 08 00 00	 jmp	 $LN2@ReadEventI
$LN8@ReadEventI:

; 6281 : 	case MU_EVENT_BLOODCASTLE :			// 
; 6282 : 		{
; 6283 : #ifdef FOR_BLOODCASTLE
; 6284 : 			g_BloodCastle.Load(gDirPath.GetNewPath("BloodCastle.dat"));

  00ca3	68 00 00 00 00	 push	 OFFSET ??_C@_0BA@CJKIMMIB@BloodCastle?4dat@
  00ca8	b9 00 00 00 00	 mov	 ecx, OFFSET ?gDirPath@@3VCDirPath@@A ; gDirPath
  00cad	e8 00 00 00 00	 call	 ?GetNewPath@CDirPath@@QAEPADPAD@Z ; CDirPath::GetNewPath
  00cb2	50		 push	 eax
  00cb3	b9 00 00 00 00	 mov	 ecx, OFFSET ?g_BloodCastle@@3VCBloodCastle@@A ; g_BloodCastle
  00cb8	e8 00 00 00 00	 call	 ?Load@CBloodCastle@@QAEXPAD@Z ; CBloodCastle::Load

; 6285 : 			g_bBloodCastle				= GetPrivateProfileInt("GameServerInfo", "BloodCastleEvent", 0, gDirPath.GetNewPath("commonserver.cfg"));

  00cbd	68 00 00 00 00	 push	 OFFSET ??_C@_0BB@IGLHFEOF@commonserver?4cfg@
  00cc2	b9 00 00 00 00	 mov	 ecx, OFFSET ?gDirPath@@3VCDirPath@@A ; gDirPath
  00cc7	e8 00 00 00 00	 call	 ?GetNewPath@CDirPath@@QAEPADPAD@Z ; CDirPath::GetNewPath
  00ccc	50		 push	 eax
  00ccd	6a 00		 push	 0
  00ccf	68 00 00 00 00	 push	 OFFSET ??_C@_0BB@DHAFCNAC@BloodCastleEvent@
  00cd4	68 00 00 00 00	 push	 OFFSET ??_C@_0P@EMJDPFDH@GameServerInfo@
  00cd9	ff 15 00 00 00
	00		 call	 DWORD PTR __imp__GetPrivateProfileIntA@16
  00cdf	a3 00 00 00 00	 mov	 DWORD PTR ?g_bBloodCastle@@3HA, eax ; g_bBloodCastle

; 6286 : 			g_iBloodCastle_StartHour	= GetPrivateProfileInt("GameServerInfo", "BloodCastleStartHour", 1, gDirPath.GetNewPath("commonserver.cfg"));

  00ce4	68 00 00 00 00	 push	 OFFSET ??_C@_0BB@IGLHFEOF@commonserver?4cfg@
  00ce9	b9 00 00 00 00	 mov	 ecx, OFFSET ?gDirPath@@3VCDirPath@@A ; gDirPath
  00cee	e8 00 00 00 00	 call	 ?GetNewPath@CDirPath@@QAEPADPAD@Z ; CDirPath::GetNewPath
  00cf3	50		 push	 eax
  00cf4	6a 01		 push	 1
  00cf6	68 00 00 00 00	 push	 OFFSET ??_C@_0BF@DLNBCIAJ@BloodCastleStartHour@
  00cfb	68 00 00 00 00	 push	 OFFSET ??_C@_0P@EMJDPFDH@GameServerInfo@
  00d00	ff 15 00 00 00
	00		 call	 DWORD PTR __imp__GetPrivateProfileIntA@16
  00d06	a3 00 00 00 00	 mov	 DWORD PTR ?g_iBloodCastle_StartHour@@3HA, eax ; g_iBloodCastle_StartHour

; 6287 : 			g_iAngelKingsPaperDropRate	= GetPrivateProfileInt("GameServerInfo", "AngelKingsPaperDropRate", 0, gDirPath.GetNewPath("commonserver.cfg"));

  00d0b	68 00 00 00 00	 push	 OFFSET ??_C@_0BB@IGLHFEOF@commonserver?4cfg@
  00d10	b9 00 00 00 00	 mov	 ecx, OFFSET ?gDirPath@@3VCDirPath@@A ; gDirPath
  00d15	e8 00 00 00 00	 call	 ?GetNewPath@CDirPath@@QAEPADPAD@Z ; CDirPath::GetNewPath
  00d1a	50		 push	 eax
  00d1b	6a 00		 push	 0
  00d1d	68 00 00 00 00	 push	 OFFSET ??_C@_0BI@KPDDGOOE@AngelKingsPaperDropRate@
  00d22	68 00 00 00 00	 push	 OFFSET ??_C@_0P@EMJDPFDH@GameServerInfo@
  00d27	ff 15 00 00 00
	00		 call	 DWORD PTR __imp__GetPrivateProfileIntA@16
  00d2d	a3 00 00 00 00	 mov	 DWORD PTR ?g_iAngelKingsPaperDropRate@@3HA, eax ; g_iAngelKingsPaperDropRate

; 6288 : 			g_iBloodBoneDropRate		= GetPrivateProfileInt("GameServerInfo", "BloodBoneDropRate", 0, gDirPath.GetNewPath("commonserver.cfg"));

  00d32	68 00 00 00 00	 push	 OFFSET ??_C@_0BB@IGLHFEOF@commonserver?4cfg@
  00d37	b9 00 00 00 00	 mov	 ecx, OFFSET ?gDirPath@@3VCDirPath@@A ; gDirPath
  00d3c	e8 00 00 00 00	 call	 ?GetNewPath@CDirPath@@QAEPADPAD@Z ; CDirPath::GetNewPath
  00d41	50		 push	 eax
  00d42	6a 00		 push	 0
  00d44	68 00 00 00 00	 push	 OFFSET ??_C@_0BC@NGLLHLOE@BloodBoneDropRate@
  00d49	68 00 00 00 00	 push	 OFFSET ??_C@_0P@EMJDPFDH@GameServerInfo@
  00d4e	ff 15 00 00 00
	00		 call	 DWORD PTR __imp__GetPrivateProfileIntA@16
  00d54	a3 00 00 00 00	 mov	 DWORD PTR ?g_iBloodBoneDropRate@@3HA, eax ; g_iBloodBoneDropRate

; 6289 : 			g_iStoneDropRate			= GetPrivateProfileInt("GameServerInfo", "StoneDropRate", 0, gDirPath.GetNewPath("commonserver.cfg"));

  00d59	68 00 00 00 00	 push	 OFFSET ??_C@_0BB@IGLHFEOF@commonserver?4cfg@
  00d5e	b9 00 00 00 00	 mov	 ecx, OFFSET ?gDirPath@@3VCDirPath@@A ; gDirPath
  00d63	e8 00 00 00 00	 call	 ?GetNewPath@CDirPath@@QAEPADPAD@Z ; CDirPath::GetNewPath
  00d68	50		 push	 eax
  00d69	6a 00		 push	 0
  00d6b	68 00 00 00 00	 push	 OFFSET ??_C@_0O@PBCFFJJH@StoneDropRate@
  00d70	68 00 00 00 00	 push	 OFFSET ??_C@_0P@EMJDPFDH@GameServerInfo@
  00d75	ff 15 00 00 00
	00		 call	 DWORD PTR __imp__GetPrivateProfileIntA@16
  00d7b	a3 00 00 00 00	 mov	 DWORD PTR ?g_iStoneDropRate@@3HA, eax ; g_iStoneDropRate

; 6290 : 
; 6291 : #ifdef UPDATE_BLOODECASTLE_SCADULE_20070702
; 6292 : 			g_iBloodCastle_odd_Even_Hour= GetPrivateProfileInt("GameServerInfo", "BloodCastleOddEvenHour", 0, gDirPath.GetNewPath("commonserver.cfg"));
; 6293 : #endif
; 6294 : 
; 6295 : #endif
; 6296 : 		}
; 6297 : 		break;

  00d80	e9 f2 07 00 00	 jmp	 $LN2@ReadEventI
$LN9@ReadEventI:

; 6298 : 	case MU_EVENT_ATTACKEVENTTROOP :	//  
; 6299 : 		{
; 6300 : 			gAttackEventRegenTime		= GetPrivateProfileInt("GameServerInfo", "AttackEventRegenTime", 10, gDirPath.GetNewPath("commonserver.cfg"));

  00d85	68 00 00 00 00	 push	 OFFSET ??_C@_0BB@IGLHFEOF@commonserver?4cfg@
  00d8a	b9 00 00 00 00	 mov	 ecx, OFFSET ?gDirPath@@3VCDirPath@@A ; gDirPath
  00d8f	e8 00 00 00 00	 call	 ?GetNewPath@CDirPath@@QAEPADPAD@Z ; CDirPath::GetNewPath
  00d94	50		 push	 eax
  00d95	6a 0a		 push	 10			; 0000000aH
  00d97	68 00 00 00 00	 push	 OFFSET ??_C@_0BF@LANDNGMH@AttackEventRegenTime@
  00d9c	68 00 00 00 00	 push	 OFFSET ??_C@_0P@EMJDPFDH@GameServerInfo@
  00da1	ff 15 00 00 00
	00		 call	 DWORD PTR __imp__GetPrivateProfileIntA@16
  00da7	a3 00 00 00 00	 mov	 DWORD PTR ?gAttackEventRegenTime@@3KA, eax ; gAttackEventRegenTime

; 6301 : 		}
; 6302 : 		break;

  00dac	e9 c6 07 00 00	 jmp	 $LN2@ReadEventI
$LN10@ReadEventI:

; 6303 : 	case MU_EVENT_GOLDENTROOP :			//  
; 6304 : 		{
; 6305 : 			gIsEledoradoEvent				= GetPrivateProfileInt("GameServerInfo", "IsEledoradoEvent", 0, gDirPath.GetNewPath("commonserver.cfg"));	

  00db1	68 00 00 00 00	 push	 OFFSET ??_C@_0BB@IGLHFEOF@commonserver?4cfg@
  00db6	b9 00 00 00 00	 mov	 ecx, OFFSET ?gDirPath@@3VCDirPath@@A ; gDirPath
  00dbb	e8 00 00 00 00	 call	 ?GetNewPath@CDirPath@@QAEPADPAD@Z ; CDirPath::GetNewPath
  00dc0	50		 push	 eax
  00dc1	6a 00		 push	 0
  00dc3	68 00 00 00 00	 push	 OFFSET ??_C@_0BB@OEKAOOOA@IsEledoradoEvent@
  00dc8	68 00 00 00 00	 push	 OFFSET ??_C@_0P@EMJDPFDH@GameServerInfo@
  00dcd	ff 15 00 00 00
	00		 call	 DWORD PTR __imp__GetPrivateProfileIntA@16
  00dd3	a3 00 00 00 00	 mov	 DWORD PTR ?gIsEledoradoEvent@@3HA, eax ; gIsEledoradoEvent

; 6306 : 			gEledoradoGoldGoblenRegenTime	= GetPrivateProfileInt("GameServerInfo", "EledoradoGoldGoblenRegenTime", 60*3, gDirPath.GetNewPath("commonserver.cfg"));	

  00dd8	68 00 00 00 00	 push	 OFFSET ??_C@_0BB@IGLHFEOF@commonserver?4cfg@
  00ddd	b9 00 00 00 00	 mov	 ecx, OFFSET ?gDirPath@@3VCDirPath@@A ; gDirPath
  00de2	e8 00 00 00 00	 call	 ?GetNewPath@CDirPath@@QAEPADPAD@Z ; CDirPath::GetNewPath
  00de7	50		 push	 eax
  00de8	68 b4 00 00 00	 push	 180			; 000000b4H
  00ded	68 00 00 00 00	 push	 OFFSET ??_C@_0BN@GMFOFBJF@EledoradoGoldGoblenRegenTime@
  00df2	68 00 00 00 00	 push	 OFFSET ??_C@_0P@EMJDPFDH@GameServerInfo@
  00df7	ff 15 00 00 00
	00		 call	 DWORD PTR __imp__GetPrivateProfileIntA@16
  00dfd	a3 00 00 00 00	 mov	 DWORD PTR ?gEledoradoGoldGoblenRegenTime@@3KA, eax ; gEledoradoGoldGoblenRegenTime

; 6307 : 			gEledoradoTitanRegenTime		= GetPrivateProfileInt("GameServerInfo", "EledoradoTitanRegenTime", 60*3, gDirPath.GetNewPath("commonserver.cfg"));	

  00e02	68 00 00 00 00	 push	 OFFSET ??_C@_0BB@IGLHFEOF@commonserver?4cfg@
  00e07	b9 00 00 00 00	 mov	 ecx, OFFSET ?gDirPath@@3VCDirPath@@A ; gDirPath
  00e0c	e8 00 00 00 00	 call	 ?GetNewPath@CDirPath@@QAEPADPAD@Z ; CDirPath::GetNewPath
  00e11	50		 push	 eax
  00e12	68 b4 00 00 00	 push	 180			; 000000b4H
  00e17	68 00 00 00 00	 push	 OFFSET ??_C@_0BI@KJLIHAFL@EledoradoTitanRegenTime@
  00e1c	68 00 00 00 00	 push	 OFFSET ??_C@_0P@EMJDPFDH@GameServerInfo@
  00e21	ff 15 00 00 00
	00		 call	 DWORD PTR __imp__GetPrivateProfileIntA@16
  00e27	a3 00 00 00 00	 mov	 DWORD PTR ?gEledoradoTitanRegenTime@@3KA, eax ; gEledoradoTitanRegenTime

; 6308 : 			gEledoradoGoldDerconRegenTime	= GetPrivateProfileInt("GameServerInfo", "EledoradoGoldDerconRegenTime", 240*3, gDirPath.GetNewPath("commonserver.cfg"));	

  00e2c	68 00 00 00 00	 push	 OFFSET ??_C@_0BB@IGLHFEOF@commonserver?4cfg@
  00e31	b9 00 00 00 00	 mov	 ecx, OFFSET ?gDirPath@@3VCDirPath@@A ; gDirPath
  00e36	e8 00 00 00 00	 call	 ?GetNewPath@CDirPath@@QAEPADPAD@Z ; CDirPath::GetNewPath
  00e3b	50		 push	 eax
  00e3c	68 d0 02 00 00	 push	 720			; 000002d0H
  00e41	68 00 00 00 00	 push	 OFFSET ??_C@_0BN@IJGMJJEJ@EledoradoGoldDerconRegenTime@
  00e46	68 00 00 00 00	 push	 OFFSET ??_C@_0P@EMJDPFDH@GameServerInfo@
  00e4b	ff 15 00 00 00
	00		 call	 DWORD PTR __imp__GetPrivateProfileIntA@16
  00e51	a3 00 00 00 00	 mov	 DWORD PTR ?gEledoradoGoldDerconRegenTime@@3KA, eax ; gEledoradoGoldDerconRegenTime

; 6309 : 			gEledoradoDevilLizardKingRegenTime	= GetPrivateProfileInt("GameServerInfo", "EledoradoDevilLizardKingRegenTime", 120*3, gDirPath.GetNewPath("commonserver.cfg"));	

  00e56	68 00 00 00 00	 push	 OFFSET ??_C@_0BB@IGLHFEOF@commonserver?4cfg@
  00e5b	b9 00 00 00 00	 mov	 ecx, OFFSET ?gDirPath@@3VCDirPath@@A ; gDirPath
  00e60	e8 00 00 00 00	 call	 ?GetNewPath@CDirPath@@QAEPADPAD@Z ; CDirPath::GetNewPath
  00e65	50		 push	 eax
  00e66	68 68 01 00 00	 push	 360			; 00000168H
  00e6b	68 00 00 00 00	 push	 OFFSET ??_C@_0CC@KCJCENFB@EledoradoDevilLizardKingRegenTi@
  00e70	68 00 00 00 00	 push	 OFFSET ??_C@_0P@EMJDPFDH@GameServerInfo@
  00e75	ff 15 00 00 00
	00		 call	 DWORD PTR __imp__GetPrivateProfileIntA@16
  00e7b	a3 00 00 00 00	 mov	 DWORD PTR ?gEledoradoDevilLizardKingRegenTime@@3KA, eax ; gEledoradoDevilLizardKingRegenTime

; 6310 : 			gEledoradoDevilTantarosRegenTime	= GetPrivateProfileInt("GameServerInfo", "EledoradoDevilTantarosRegenTime", 120*3, gDirPath.GetNewPath("commonserver.cfg"));	

  00e80	68 00 00 00 00	 push	 OFFSET ??_C@_0BB@IGLHFEOF@commonserver?4cfg@
  00e85	b9 00 00 00 00	 mov	 ecx, OFFSET ?gDirPath@@3VCDirPath@@A ; gDirPath
  00e8a	e8 00 00 00 00	 call	 ?GetNewPath@CDirPath@@QAEPADPAD@Z ; CDirPath::GetNewPath
  00e8f	50		 push	 eax
  00e90	68 68 01 00 00	 push	 360			; 00000168H
  00e95	68 00 00 00 00	 push	 OFFSET ??_C@_0CA@PDCIOFIF@EledoradoDevilTantarosRegenTime@
  00e9a	68 00 00 00 00	 push	 OFFSET ??_C@_0P@EMJDPFDH@GameServerInfo@
  00e9f	ff 15 00 00 00
	00		 call	 DWORD PTR __imp__GetPrivateProfileIntA@16
  00ea5	a3 00 00 00 00	 mov	 DWORD PTR ?gEledoradoDevilTantarosRegenTime@@3KA, eax ; gEledoradoDevilTantarosRegenTime

; 6311 : 			gEledoradoGoldGoblenItemDropRate	= GetPrivateProfileInt("GameServerInfo", "EledoradoGoldGoblenItemDropRate", 10, gDirPath.GetNewPath("commonserver.cfg"));	

  00eaa	68 00 00 00 00	 push	 OFFSET ??_C@_0BB@IGLHFEOF@commonserver?4cfg@
  00eaf	b9 00 00 00 00	 mov	 ecx, OFFSET ?gDirPath@@3VCDirPath@@A ; gDirPath
  00eb4	e8 00 00 00 00	 call	 ?GetNewPath@CDirPath@@QAEPADPAD@Z ; CDirPath::GetNewPath
  00eb9	50		 push	 eax
  00eba	6a 0a		 push	 10			; 0000000aH
  00ebc	68 00 00 00 00	 push	 OFFSET ??_C@_0CA@HENEMHED@EledoradoGoldGoblenItemDropRate@
  00ec1	68 00 00 00 00	 push	 OFFSET ??_C@_0P@EMJDPFDH@GameServerInfo@
  00ec6	ff 15 00 00 00
	00		 call	 DWORD PTR __imp__GetPrivateProfileIntA@16
  00ecc	a3 00 00 00 00	 mov	 DWORD PTR ?gEledoradoGoldGoblenItemDropRate@@3HA, eax ; gEledoradoGoldGoblenItemDropRate

; 6312 : 			gEledoradoTitanItemDropRate			= GetPrivateProfileInt("GameServerInfo", "EledoradoTitanItemDropRate", 10, gDirPath.GetNewPath("commonserver.cfg"));	

  00ed1	68 00 00 00 00	 push	 OFFSET ??_C@_0BB@IGLHFEOF@commonserver?4cfg@
  00ed6	b9 00 00 00 00	 mov	 ecx, OFFSET ?gDirPath@@3VCDirPath@@A ; gDirPath
  00edb	e8 00 00 00 00	 call	 ?GetNewPath@CDirPath@@QAEPADPAD@Z ; CDirPath::GetNewPath
  00ee0	50		 push	 eax
  00ee1	6a 0a		 push	 10			; 0000000aH
  00ee3	68 00 00 00 00	 push	 OFFSET ??_C@_0BL@CKBDCOGC@EledoradoTitanItemDropRate@
  00ee8	68 00 00 00 00	 push	 OFFSET ??_C@_0P@EMJDPFDH@GameServerInfo@
  00eed	ff 15 00 00 00
	00		 call	 DWORD PTR __imp__GetPrivateProfileIntA@16
  00ef3	a3 00 00 00 00	 mov	 DWORD PTR ?gEledoradoTitanItemDropRate@@3HA, eax ; gEledoradoTitanItemDropRate

; 6313 : 			gEledoradoGoldDerconItemDropRate	= GetPrivateProfileInt("GameServerInfo", "EledoradoGoldDerconItemDropRate", 10, gDirPath.GetNewPath("commonserver.cfg"));	

  00ef8	68 00 00 00 00	 push	 OFFSET ??_C@_0BB@IGLHFEOF@commonserver?4cfg@
  00efd	b9 00 00 00 00	 mov	 ecx, OFFSET ?gDirPath@@3VCDirPath@@A ; gDirPath
  00f02	e8 00 00 00 00	 call	 ?GetNewPath@CDirPath@@QAEPADPAD@Z ; CDirPath::GetNewPath
  00f07	50		 push	 eax
  00f08	6a 0a		 push	 10			; 0000000aH
  00f0a	68 00 00 00 00	 push	 OFFSET ??_C@_0CA@DLLDAHDE@EledoradoGoldDerconItemDropRate@
  00f0f	68 00 00 00 00	 push	 OFFSET ??_C@_0P@EMJDPFDH@GameServerInfo@
  00f14	ff 15 00 00 00
	00		 call	 DWORD PTR __imp__GetPrivateProfileIntA@16
  00f1a	a3 00 00 00 00	 mov	 DWORD PTR ?gEledoradoGoldDerconItemDropRate@@3HA, eax ; gEledoradoGoldDerconItemDropRate

; 6314 : 			gEledoradoDevilLizardKingItemDropRate	= GetPrivateProfileInt("GameServerInfo", "EledoradoDevilLizardKingItemDropRate", 10, gDirPath.GetNewPath("commonserver.cfg"));	

  00f1f	68 00 00 00 00	 push	 OFFSET ??_C@_0BB@IGLHFEOF@commonserver?4cfg@
  00f24	b9 00 00 00 00	 mov	 ecx, OFFSET ?gDirPath@@3VCDirPath@@A ; gDirPath
  00f29	e8 00 00 00 00	 call	 ?GetNewPath@CDirPath@@QAEPADPAD@Z ; CDirPath::GetNewPath
  00f2e	50		 push	 eax
  00f2f	6a 0a		 push	 10			; 0000000aH
  00f31	68 00 00 00 00	 push	 OFFSET ??_C@_0CF@JGNHCKNH@EledoradoDevilLizardKingItemDro@
  00f36	68 00 00 00 00	 push	 OFFSET ??_C@_0P@EMJDPFDH@GameServerInfo@
  00f3b	ff 15 00 00 00
	00		 call	 DWORD PTR __imp__GetPrivateProfileIntA@16
  00f41	a3 00 00 00 00	 mov	 DWORD PTR ?gEledoradoDevilLizardKingItemDropRate@@3HA, eax ; gEledoradoDevilLizardKingItemDropRate

; 6315 : 			gEledoradoDevilTantarosItemDropRate		= GetPrivateProfileInt("GameServerInfo", "EledoradoDevilTantarosItemDropRate", 10, gDirPath.GetNewPath("commonserver.cfg"));	

  00f46	68 00 00 00 00	 push	 OFFSET ??_C@_0BB@IGLHFEOF@commonserver?4cfg@
  00f4b	b9 00 00 00 00	 mov	 ecx, OFFSET ?gDirPath@@3VCDirPath@@A ; gDirPath
  00f50	e8 00 00 00 00	 call	 ?GetNewPath@CDirPath@@QAEPADPAD@Z ; CDirPath::GetNewPath
  00f55	50		 push	 eax
  00f56	6a 0a		 push	 10			; 0000000aH
  00f58	68 00 00 00 00	 push	 OFFSET ??_C@_0CD@FBDNNLBJ@EledoradoDevilTantarosItemDropR@
  00f5d	68 00 00 00 00	 push	 OFFSET ??_C@_0P@EMJDPFDH@GameServerInfo@
  00f62	ff 15 00 00 00
	00		 call	 DWORD PTR __imp__GetPrivateProfileIntA@16
  00f68	a3 00 00 00 00	 mov	 DWORD PTR ?gEledoradoDevilTantarosItemDropRate@@3HA, eax ; gEledoradoDevilTantarosItemDropRate

; 6316 : 			gEledoradoGoldGoblenExItemDropRate		= GetPrivateProfileInt("GameServerInfo", "EledoradoGoldGoblenExItemDropRate", 10, gDirPath.GetNewPath("commonserver.cfg"));	

  00f6d	68 00 00 00 00	 push	 OFFSET ??_C@_0BB@IGLHFEOF@commonserver?4cfg@
  00f72	b9 00 00 00 00	 mov	 ecx, OFFSET ?gDirPath@@3VCDirPath@@A ; gDirPath
  00f77	e8 00 00 00 00	 call	 ?GetNewPath@CDirPath@@QAEPADPAD@Z ; CDirPath::GetNewPath
  00f7c	50		 push	 eax
  00f7d	6a 0a		 push	 10			; 0000000aH
  00f7f	68 00 00 00 00	 push	 OFFSET ??_C@_0CC@FBLILEOL@EledoradoGoldGoblenExItemDropRa@
  00f84	68 00 00 00 00	 push	 OFFSET ??_C@_0P@EMJDPFDH@GameServerInfo@
  00f89	ff 15 00 00 00
	00		 call	 DWORD PTR __imp__GetPrivateProfileIntA@16
  00f8f	a3 00 00 00 00	 mov	 DWORD PTR ?gEledoradoGoldGoblenExItemDropRate@@3HA, eax ; gEledoradoGoldGoblenExItemDropRate

; 6317 : 			gEledoradoTitanExItemDropRate			= GetPrivateProfileInt("GameServerInfo", "EledoradoTitanExItemDropRate", 10, gDirPath.GetNewPath("commonserver.cfg"));	

  00f94	68 00 00 00 00	 push	 OFFSET ??_C@_0BB@IGLHFEOF@commonserver?4cfg@
  00f99	b9 00 00 00 00	 mov	 ecx, OFFSET ?gDirPath@@3VCDirPath@@A ; gDirPath
  00f9e	e8 00 00 00 00	 call	 ?GetNewPath@CDirPath@@QAEPADPAD@Z ; CDirPath::GetNewPath
  00fa3	50		 push	 eax
  00fa4	6a 0a		 push	 10			; 0000000aH
  00fa6	68 00 00 00 00	 push	 OFFSET ??_C@_0BN@EPBKFBD@EledoradoTitanExItemDropRate@
  00fab	68 00 00 00 00	 push	 OFFSET ??_C@_0P@EMJDPFDH@GameServerInfo@
  00fb0	ff 15 00 00 00
	00		 call	 DWORD PTR __imp__GetPrivateProfileIntA@16
  00fb6	a3 00 00 00 00	 mov	 DWORD PTR ?gEledoradoTitanExItemDropRate@@3HA, eax ; gEledoradoTitanExItemDropRate

; 6318 : 			gEledoradoGoldDerconExItemDropRate		= GetPrivateProfileInt("GameServerInfo", "EledoradoGoldDerconExItemDropRate", 10, gDirPath.GetNewPath("commonserver.cfg"));	

  00fbb	68 00 00 00 00	 push	 OFFSET ??_C@_0BB@IGLHFEOF@commonserver?4cfg@
  00fc0	b9 00 00 00 00	 mov	 ecx, OFFSET ?gDirPath@@3VCDirPath@@A ; gDirPath
  00fc5	e8 00 00 00 00	 call	 ?GetNewPath@CDirPath@@QAEPADPAD@Z ; CDirPath::GetNewPath
  00fca	50		 push	 eax
  00fcb	6a 0a		 push	 10			; 0000000aH
  00fcd	68 00 00 00 00	 push	 OFFSET ??_C@_0CC@KKKCNGAN@EledoradoGoldDerconExItemDropRa@
  00fd2	68 00 00 00 00	 push	 OFFSET ??_C@_0P@EMJDPFDH@GameServerInfo@
  00fd7	ff 15 00 00 00
	00		 call	 DWORD PTR __imp__GetPrivateProfileIntA@16
  00fdd	a3 00 00 00 00	 mov	 DWORD PTR ?gEledoradoGoldDerconExItemDropRate@@3HA, eax ; gEledoradoGoldDerconExItemDropRate

; 6319 : 			gEledoradoDevilLizardKingExItemDropRate	= GetPrivateProfileInt("GameServerInfo", "EledoradoDevilLizardKingExItemDropRate", 10, gDirPath.GetNewPath("commonserver.cfg"));	

  00fe2	68 00 00 00 00	 push	 OFFSET ??_C@_0BB@IGLHFEOF@commonserver?4cfg@
  00fe7	b9 00 00 00 00	 mov	 ecx, OFFSET ?gDirPath@@3VCDirPath@@A ; gDirPath
  00fec	e8 00 00 00 00	 call	 ?GetNewPath@CDirPath@@QAEPADPAD@Z ; CDirPath::GetNewPath
  00ff1	50		 push	 eax
  00ff2	6a 0a		 push	 10			; 0000000aH
  00ff4	68 00 00 00 00	 push	 OFFSET ??_C@_0CH@JKCOIHDD@EledoradoDevilLizardKingExItemD@
  00ff9	68 00 00 00 00	 push	 OFFSET ??_C@_0P@EMJDPFDH@GameServerInfo@
  00ffe	ff 15 00 00 00
	00		 call	 DWORD PTR __imp__GetPrivateProfileIntA@16
  01004	a3 00 00 00 00	 mov	 DWORD PTR ?gEledoradoDevilLizardKingExItemDropRate@@3HA, eax ; gEledoradoDevilLizardKingExItemDropRate

; 6320 : 			gEledoradoDevilTantarosExItemDropRate	= GetPrivateProfileInt("GameServerInfo", "EledoradoDevilTantarosExItemDropRate", 10, gDirPath.GetNewPath("commonserver.cfg"));

  01009	68 00 00 00 00	 push	 OFFSET ??_C@_0BB@IGLHFEOF@commonserver?4cfg@
  0100e	b9 00 00 00 00	 mov	 ecx, OFFSET ?gDirPath@@3VCDirPath@@A ; gDirPath
  01013	e8 00 00 00 00	 call	 ?GetNewPath@CDirPath@@QAEPADPAD@Z ; CDirPath::GetNewPath
  01018	50		 push	 eax
  01019	6a 0a		 push	 10			; 0000000aH
  0101b	68 00 00 00 00	 push	 OFFSET ??_C@_0CF@FONHIJD@EledoradoDevilTantarosExItemDro@
  01020	68 00 00 00 00	 push	 OFFSET ??_C@_0P@EMJDPFDH@GameServerInfo@
  01025	ff 15 00 00 00
	00		 call	 DWORD PTR __imp__GetPrivateProfileIntA@16
  0102b	a3 00 00 00 00	 mov	 DWORD PTR ?gEledoradoDevilTantarosExItemDropRate@@3HA, eax ; gEledoradoDevilTantarosExItemDropRate

; 6321 : 		}
; 6322 : 		break;

  01030	e9 42 05 00 00	 jmp	 $LN2@ReadEventI
$LN11@ReadEventI:

; 6323 : 	case MU_EVENT_WHITEMAGETROOP :		//  
; 6324 : 		{
; 6325 : #ifdef MONSTER_HERD_SYSTEM_20031120
; 6326 : 			char szTemp[256];	
; 6327 : 			//     .
; 6328 : 			GetPrivateProfileString("GameServerInfo", "RingAttackEvent", "0", szTemp, 5, gDirPath.GetNewPath("commonserver.cfg"));

  01035	68 00 00 00 00	 push	 OFFSET ??_C@_0BB@IGLHFEOF@commonserver?4cfg@
  0103a	b9 00 00 00 00	 mov	 ecx, OFFSET ?gDirPath@@3VCDirPath@@A ; gDirPath
  0103f	e8 00 00 00 00	 call	 ?GetNewPath@CDirPath@@QAEPADPAD@Z ; CDirPath::GetNewPath
  01044	50		 push	 eax
  01045	6a 05		 push	 5
  01047	8d 85 fc fd ff
	ff		 lea	 eax, DWORD PTR _szTemp$1[ebp]
  0104d	50		 push	 eax
  0104e	68 00 00 00 00	 push	 OFFSET ??_C@_01GBGANLPD@0@
  01053	68 00 00 00 00	 push	 OFFSET ??_C@_0BA@PGIAALHL@RingAttackEvent@
  01058	68 00 00 00 00	 push	 OFFSET ??_C@_0P@EMJDPFDH@GameServerInfo@
  0105d	ff 15 00 00 00
	00		 call	 DWORD PTR __imp__GetPrivateProfileStringA@24

; 6329 : 			g_bDoRingEvent					= atoi(szTemp);

  01063	8d 85 fc fd ff
	ff		 lea	 eax, DWORD PTR _szTemp$1[ebp]
  01069	50		 push	 eax
  0106a	e8 00 00 00 00	 call	 _atoi
  0106f	83 c4 04	 add	 esp, 4
  01072	a3 00 00 00 00	 mov	 DWORD PTR ?g_bDoRingEvent@@3HA, eax ; g_bDoRingEvent

; 6330 : 			//       (1/n)
; 6331 : 			GetPrivateProfileString("GameServerInfo", "RingOrcKillGiftRate", "10000", szTemp, 10, gDirPath.GetNewPath("commonserver.cfg"));

  01077	68 00 00 00 00	 push	 OFFSET ??_C@_0BB@IGLHFEOF@commonserver?4cfg@
  0107c	b9 00 00 00 00	 mov	 ecx, OFFSET ?gDirPath@@3VCDirPath@@A ; gDirPath
  01081	e8 00 00 00 00	 call	 ?GetNewPath@CDirPath@@QAEPADPAD@Z ; CDirPath::GetNewPath
  01086	50		 push	 eax
  01087	6a 0a		 push	 10			; 0000000aH
  01089	8d 85 fc fd ff
	ff		 lea	 eax, DWORD PTR _szTemp$1[ebp]
  0108f	50		 push	 eax
  01090	68 00 00 00 00	 push	 OFFSET ??_C@_05CLDMBJBA@10000@
  01095	68 00 00 00 00	 push	 OFFSET ??_C@_0BE@PAGFJHNK@RingOrcKillGiftRate@
  0109a	68 00 00 00 00	 push	 OFFSET ??_C@_0P@EMJDPFDH@GameServerInfo@
  0109f	ff 15 00 00 00
	00		 call	 DWORD PTR __imp__GetPrivateProfileStringA@24

; 6332 : 			g_iRingOrcKillGiftRate			= atoi(szTemp);

  010a5	8d 85 fc fd ff
	ff		 lea	 eax, DWORD PTR _szTemp$1[ebp]
  010ab	50		 push	 eax
  010ac	e8 00 00 00 00	 call	 _atoi
  010b1	83 c4 04	 add	 esp, 4
  010b4	a3 00 00 00 00	 mov	 DWORD PTR ?g_iRingOrcKillGiftRate@@3HA, eax ; g_iRingOrcKillGiftRate

; 6333 : 			//       (1/n)
; 6334 : 			GetPrivateProfileString("GameServerInfo", "RingDropGiftRate", "10000", szTemp, 10, gDirPath.GetNewPath("commonserver.cfg"));

  010b9	68 00 00 00 00	 push	 OFFSET ??_C@_0BB@IGLHFEOF@commonserver?4cfg@
  010be	b9 00 00 00 00	 mov	 ecx, OFFSET ?gDirPath@@3VCDirPath@@A ; gDirPath
  010c3	e8 00 00 00 00	 call	 ?GetNewPath@CDirPath@@QAEPADPAD@Z ; CDirPath::GetNewPath
  010c8	50		 push	 eax
  010c9	6a 0a		 push	 10			; 0000000aH
  010cb	8d 85 fc fd ff
	ff		 lea	 eax, DWORD PTR _szTemp$1[ebp]
  010d1	50		 push	 eax
  010d2	68 00 00 00 00	 push	 OFFSET ??_C@_05CLDMBJBA@10000@
  010d7	68 00 00 00 00	 push	 OFFSET ??_C@_0BB@NMFCKOP@RingDropGiftRate@
  010dc	68 00 00 00 00	 push	 OFFSET ??_C@_0P@EMJDPFDH@GameServerInfo@
  010e1	ff 15 00 00 00
	00		 call	 DWORD PTR __imp__GetPrivateProfileStringA@24

; 6335 : 			g_iRingDropGiftRate				= atoi(szTemp);

  010e7	8d 85 fc fd ff
	ff		 lea	 eax, DWORD PTR _szTemp$1[ebp]
  010ed	50		 push	 eax
  010ee	e8 00 00 00 00	 call	 _atoi
  010f3	83 c4 04	 add	 esp, 4
  010f6	a3 00 00 00 00	 mov	 DWORD PTR ?g_iRingDropGiftRate@@3HA, eax ; g_iRingDropGiftRate

; 6336 : 			g_RingAttackEvent.Load(gDirPath.GetNewPath("RingAttackEvent.dat"));

  010fb	68 00 00 00 00	 push	 OFFSET ??_C@_0BE@BHMFOLMK@RingAttackEvent?4dat@
  01100	b9 00 00 00 00	 mov	 ecx, OFFSET ?gDirPath@@3VCDirPath@@A ; gDirPath
  01105	e8 00 00 00 00	 call	 ?GetNewPath@CDirPath@@QAEPADPAD@Z ; CDirPath::GetNewPath
  0110a	50		 push	 eax
  0110b	b9 00 00 00 00	 mov	 ecx, OFFSET ?g_RingAttackEvent@@3VCRingAttackEvent@@A ; g_RingAttackEvent
  01110	e8 00 00 00 00	 call	 ?Load@CRingAttackEvent@@UAEHPAD@Z ; CRingAttackEvent::Load

; 6337 : #ifdef GAMESERVER_TO_CASTLESIEGESERVER	//    , , ,   .
; 6338 : 			g_bDoRingEvent					= FALSE;
; 6339 : #endif	
; 6340 : 			g_RingAttackEvent.EnableEvent (g_bDoRingEvent);

  01115	a1 00 00 00 00	 mov	 eax, DWORD PTR ?g_bDoRingEvent@@3HA ; g_bDoRingEvent
  0111a	50		 push	 eax
  0111b	b9 00 00 00 00	 mov	 ecx, OFFSET ?g_RingAttackEvent@@3VCRingAttackEvent@@A ; g_RingAttackEvent
  01120	e8 00 00 00 00	 call	 ?EnableEvent@CRingAttackEvent@@QAEXH@Z ; CRingAttackEvent::EnableEvent

; 6341 : #endif
; 6342 : 		}
; 6343 : 		break;

  01125	e9 4d 04 00 00	 jmp	 $LN2@ReadEventI
$LN12@ReadEventI:

; 6344 : 	case MU_EVENT_LOVEPANGPANG :		//   (    (14,12) )
; 6345 : 		{
; 6346 : 			GetPrivateProfileString("GameServerInfo", "EVENT1", "0", szTemp, 5, gDirPath.GetNewPath("commonserver.cfg"));	

  0112a	68 00 00 00 00	 push	 OFFSET ??_C@_0BB@IGLHFEOF@commonserver?4cfg@
  0112f	b9 00 00 00 00	 mov	 ecx, OFFSET ?gDirPath@@3VCDirPath@@A ; gDirPath
  01134	e8 00 00 00 00	 call	 ?GetNewPath@CDirPath@@QAEPADPAD@Z ; CDirPath::GetNewPath
  01139	50		 push	 eax
  0113a	6a 05		 push	 5
  0113c	8d 85 fc fe ff
	ff		 lea	 eax, DWORD PTR _szTemp$[ebp]
  01142	50		 push	 eax
  01143	68 00 00 00 00	 push	 OFFSET ??_C@_01GBGANLPD@0@
  01148	68 00 00 00 00	 push	 OFFSET ??_C@_06OIEHOIFM@EVENT1@
  0114d	68 00 00 00 00	 push	 OFFSET ??_C@_0P@EMJDPFDH@GameServerInfo@
  01152	ff 15 00 00 00
	00		 call	 DWORD PTR __imp__GetPrivateProfileStringA@24

; 6347 : 			gEvent1							= atoi(szTemp);

  01158	8d 85 fc fe ff
	ff		 lea	 eax, DWORD PTR _szTemp$[ebp]
  0115e	50		 push	 eax
  0115f	e8 00 00 00 00	 call	 _atoi
  01164	83 c4 04	 add	 esp, 4
  01167	a3 00 00 00 00	 mov	 DWORD PTR ?gEvent1@@3HA, eax ; gEvent1

; 6348 : 			GetPrivateProfileString("GameServerInfo", "Event1ItemDropTodayMax", "1", szTemp, 5, gDirPath.GetNewPath("commonserver.cfg"));	

  0116c	68 00 00 00 00	 push	 OFFSET ??_C@_0BB@IGLHFEOF@commonserver?4cfg@
  01171	b9 00 00 00 00	 mov	 ecx, OFFSET ?gDirPath@@3VCDirPath@@A ; gDirPath
  01176	e8 00 00 00 00	 call	 ?GetNewPath@CDirPath@@QAEPADPAD@Z ; CDirPath::GetNewPath
  0117b	50		 push	 eax
  0117c	6a 05		 push	 5
  0117e	8d 85 fc fe ff
	ff		 lea	 eax, DWORD PTR _szTemp$[ebp]
  01184	50		 push	 eax
  01185	68 00 00 00 00	 push	 OFFSET ??_C@_01HIHLOKLC@1@
  0118a	68 00 00 00 00	 push	 OFFSET ??_C@_0BH@LPINNCM@Event1ItemDropTodayMax@
  0118f	68 00 00 00 00	 push	 OFFSET ??_C@_0P@EMJDPFDH@GameServerInfo@
  01194	ff 15 00 00 00
	00		 call	 DWORD PTR __imp__GetPrivateProfileStringA@24

; 6349 : 			gEvent1ItemDropTodayCount		= 0;

  0119a	c7 05 00 00 00
	00 00 00 00 00	 mov	 DWORD PTR ?gEvent1ItemDropTodayCount@@3HA, 0 ; gEvent1ItemDropTodayCount

; 6350 : 			gEvent1ItemDropTodayMax			= atoi(szTemp);

  011a4	8d 85 fc fe ff
	ff		 lea	 eax, DWORD PTR _szTemp$[ebp]
  011aa	50		 push	 eax
  011ab	e8 00 00 00 00	 call	 _atoi
  011b0	83 c4 04	 add	 esp, 4
  011b3	a3 00 00 00 00	 mov	 DWORD PTR ?gEvent1ItemDropTodayMax@@3HA, eax ; gEvent1ItemDropTodayMax

; 6351 : 			GetPrivateProfileString("GameServerInfo", "Event1ItemDropTodayPercent", "10000000", szTemp, 5, gDirPath.GetNewPath("commonserver.cfg"));	

  011b8	68 00 00 00 00	 push	 OFFSET ??_C@_0BB@IGLHFEOF@commonserver?4cfg@
  011bd	b9 00 00 00 00	 mov	 ecx, OFFSET ?gDirPath@@3VCDirPath@@A ; gDirPath
  011c2	e8 00 00 00 00	 call	 ?GetNewPath@CDirPath@@QAEPADPAD@Z ; CDirPath::GetNewPath
  011c7	50		 push	 eax
  011c8	6a 05		 push	 5
  011ca	8d 85 fc fe ff
	ff		 lea	 eax, DWORD PTR _szTemp$[ebp]
  011d0	50		 push	 eax
  011d1	68 00 00 00 00	 push	 OFFSET ??_C@_08KDEPFNAG@10000000@
  011d6	68 00 00 00 00	 push	 OFFSET ??_C@_0BL@ENBIHHCD@Event1ItemDropTodayPercent@
  011db	68 00 00 00 00	 push	 OFFSET ??_C@_0P@EMJDPFDH@GameServerInfo@
  011e0	ff 15 00 00 00
	00		 call	 DWORD PTR __imp__GetPrivateProfileStringA@24

; 6352 : 			gEvent1ItemDropTodayPercent		= atoi(szTemp);

  011e6	8d 85 fc fe ff
	ff		 lea	 eax, DWORD PTR _szTemp$[ebp]
  011ec	50		 push	 eax
  011ed	e8 00 00 00 00	 call	 _atoi
  011f2	83 c4 04	 add	 esp, 4
  011f5	a3 00 00 00 00	 mov	 DWORD PTR ?gEvent1ItemDropTodayPercent@@3HA, eax ; gEvent1ItemDropTodayPercent

; 6353 : 		}
; 6354 : 		break;

  011fa	e9 78 03 00 00	 jmp	 $LN2@ReadEventI
$LN13@ReadEventI:

; 6355 : 	case MU_EVENT_FIRECRACKER :			//   (    (14,11)  ->    )
; 6356 : 		{
; 6357 : 			gFireCrackerEvent				= GetPrivateProfileInt("GameServerInfo", "FireCrackerEvent", 0, gDirPath.GetNewPath("commonserver.cfg"));

  011ff	68 00 00 00 00	 push	 OFFSET ??_C@_0BB@IGLHFEOF@commonserver?4cfg@
  01204	b9 00 00 00 00	 mov	 ecx, OFFSET ?gDirPath@@3VCDirPath@@A ; gDirPath
  01209	e8 00 00 00 00	 call	 ?GetNewPath@CDirPath@@QAEPADPAD@Z ; CDirPath::GetNewPath
  0120e	50		 push	 eax
  0120f	6a 00		 push	 0
  01211	68 00 00 00 00	 push	 OFFSET ??_C@_0BB@PMGPGCOG@FireCrackerEvent@
  01216	68 00 00 00 00	 push	 OFFSET ??_C@_0P@EMJDPFDH@GameServerInfo@
  0121b	ff 15 00 00 00
	00		 call	 DWORD PTR __imp__GetPrivateProfileIntA@16
  01221	a3 00 00 00 00	 mov	 DWORD PTR ?gFireCrackerEvent@@3HA, eax ; gFireCrackerEvent

; 6358 : 			gFireCrackerDropRate			= GetPrivateProfileInt("GameServerInfo", "FireCrackerDropRate", 5000, gDirPath.GetNewPath("commonserver.cfg"));

  01226	68 00 00 00 00	 push	 OFFSET ??_C@_0BB@IGLHFEOF@commonserver?4cfg@
  0122b	b9 00 00 00 00	 mov	 ecx, OFFSET ?gDirPath@@3VCDirPath@@A ; gDirPath
  01230	e8 00 00 00 00	 call	 ?GetNewPath@CDirPath@@QAEPADPAD@Z ; CDirPath::GetNewPath
  01235	50		 push	 eax
  01236	68 88 13 00 00	 push	 5000			; 00001388H
  0123b	68 00 00 00 00	 push	 OFFSET ??_C@_0BE@KPFNOKLC@FireCrackerDropRate@
  01240	68 00 00 00 00	 push	 OFFSET ??_C@_0P@EMJDPFDH@GameServerInfo@
  01245	ff 15 00 00 00
	00		 call	 DWORD PTR __imp__GetPrivateProfileIntA@16
  0124b	a3 00 00 00 00	 mov	 DWORD PTR ?gFireCrackerDropRate@@3HA, eax ; gFireCrackerDropRate

; 6359 : 			g_ItemDropRateForgFireCracker	= GetPrivateProfileInt("GameServerInfo", "ItemDropRateForFireCracker", 2, gDirPath.GetNewPath("commonserver.cfg"));

  01250	68 00 00 00 00	 push	 OFFSET ??_C@_0BB@IGLHFEOF@commonserver?4cfg@
  01255	b9 00 00 00 00	 mov	 ecx, OFFSET ?gDirPath@@3VCDirPath@@A ; gDirPath
  0125a	e8 00 00 00 00	 call	 ?GetNewPath@CDirPath@@QAEPADPAD@Z ; CDirPath::GetNewPath
  0125f	50		 push	 eax
  01260	6a 02		 push	 2
  01262	68 00 00 00 00	 push	 OFFSET ??_C@_0BL@EHKPPMMG@ItemDropRateForFireCracker@
  01267	68 00 00 00 00	 push	 OFFSET ??_C@_0P@EMJDPFDH@GameServerInfo@
  0126c	ff 15 00 00 00
	00		 call	 DWORD PTR __imp__GetPrivateProfileIntA@16
  01272	a3 00 00 00 00	 mov	 DWORD PTR ?g_ItemDropRateForgFireCracker@@3HA, eax ; g_ItemDropRateForgFireCracker

; 6360 : 			gOnlyFireCrackerEffectUse		= GetPrivateProfileInt("GameServerInfo", "OnlyFireCrackerEffectUse", 0, gDirPath.GetNewPath("commonserver.cfg"));

  01277	68 00 00 00 00	 push	 OFFSET ??_C@_0BB@IGLHFEOF@commonserver?4cfg@
  0127c	b9 00 00 00 00	 mov	 ecx, OFFSET ?gDirPath@@3VCDirPath@@A ; gDirPath
  01281	e8 00 00 00 00	 call	 ?GetNewPath@CDirPath@@QAEPADPAD@Z ; CDirPath::GetNewPath
  01286	50		 push	 eax
  01287	6a 00		 push	 0
  01289	68 00 00 00 00	 push	 OFFSET ??_C@_0BJ@GHAOAAJB@OnlyFireCrackerEffectUse@
  0128e	68 00 00 00 00	 push	 OFFSET ??_C@_0P@EMJDPFDH@GameServerInfo@
  01293	ff 15 00 00 00
	00		 call	 DWORD PTR __imp__GetPrivateProfileIntA@16
  01299	a3 00 00 00 00	 mov	 DWORD PTR ?gOnlyFireCrackerEffectUse@@3HA, eax ; gOnlyFireCrackerEffectUse

; 6361 : 		}
; 6362 : 		break;

  0129e	e9 d4 02 00 00	 jmp	 $LN2@ReadEventI
$LN14@ReadEventI:

; 6363 : 	case MU_EVENT_MEDALION :			//   (    ,   .)
; 6364 : 		{
; 6365 : 			gMedalEvent						= GetPrivateProfileInt("GameServerInfo", "MedalEvent", 0, gDirPath.GetNewPath("commonserver.cfg"));

  012a3	68 00 00 00 00	 push	 OFFSET ??_C@_0BB@IGLHFEOF@commonserver?4cfg@
  012a8	b9 00 00 00 00	 mov	 ecx, OFFSET ?gDirPath@@3VCDirPath@@A ; gDirPath
  012ad	e8 00 00 00 00	 call	 ?GetNewPath@CDirPath@@QAEPADPAD@Z ; CDirPath::GetNewPath
  012b2	50		 push	 eax
  012b3	6a 00		 push	 0
  012b5	68 00 00 00 00	 push	 OFFSET ??_C@_0L@MDFHFAIK@MedalEvent@
  012ba	68 00 00 00 00	 push	 OFFSET ??_C@_0P@EMJDPFDH@GameServerInfo@
  012bf	ff 15 00 00 00
	00		 call	 DWORD PTR __imp__GetPrivateProfileIntA@16
  012c5	a3 00 00 00 00	 mov	 DWORD PTR ?gMedalEvent@@3HA, eax ; gMedalEvent

; 6366 : 			gGoldMedalDropRate				= GetPrivateProfileInt("GameServerInfo", "GoldMedalDropRate", 2, gDirPath.GetNewPath("commonserver.cfg"));						//   

  012ca	68 00 00 00 00	 push	 OFFSET ??_C@_0BB@IGLHFEOF@commonserver?4cfg@
  012cf	b9 00 00 00 00	 mov	 ecx, OFFSET ?gDirPath@@3VCDirPath@@A ; gDirPath
  012d4	e8 00 00 00 00	 call	 ?GetNewPath@CDirPath@@QAEPADPAD@Z ; CDirPath::GetNewPath
  012d9	50		 push	 eax
  012da	6a 02		 push	 2
  012dc	68 00 00 00 00	 push	 OFFSET ??_C@_0BC@CFKHOCLM@GoldMedalDropRate@
  012e1	68 00 00 00 00	 push	 OFFSET ??_C@_0P@EMJDPFDH@GameServerInfo@
  012e6	ff 15 00 00 00
	00		 call	 DWORD PTR __imp__GetPrivateProfileIntA@16
  012ec	a3 00 00 00 00	 mov	 DWORD PTR ?gGoldMedalDropRate@@3HA, eax ; gGoldMedalDropRate

; 6367 : 			gSilverMedalDropRate			= GetPrivateProfileInt("GameServerInfo", "SilverMedalDropRate", 2, gDirPath.GetNewPath("commonserver.cfg"));					//   

  012f1	68 00 00 00 00	 push	 OFFSET ??_C@_0BB@IGLHFEOF@commonserver?4cfg@
  012f6	b9 00 00 00 00	 mov	 ecx, OFFSET ?gDirPath@@3VCDirPath@@A ; gDirPath
  012fb	e8 00 00 00 00	 call	 ?GetNewPath@CDirPath@@QAEPADPAD@Z ; CDirPath::GetNewPath
  01300	50		 push	 eax
  01301	6a 02		 push	 2
  01303	68 00 00 00 00	 push	 OFFSET ??_C@_0BE@OPKEGEPJ@SilverMedalDropRate@
  01308	68 00 00 00 00	 push	 OFFSET ??_C@_0P@EMJDPFDH@GameServerInfo@
  0130d	ff 15 00 00 00
	00		 call	 DWORD PTR __imp__GetPrivateProfileIntA@16
  01313	a3 00 00 00 00	 mov	 DWORD PTR ?gSilverMedalDropRate@@3HA, eax ; gSilverMedalDropRate

; 6368 : 			g_ItemDropRateForGoldMedal		= GetPrivateProfileInt("GameServerInfo", "ItemDropRateForGoldMedal", 2, gDirPath.GetNewPath("commonserver.cfg"));		//    

  01318	68 00 00 00 00	 push	 OFFSET ??_C@_0BB@IGLHFEOF@commonserver?4cfg@
  0131d	b9 00 00 00 00	 mov	 ecx, OFFSET ?gDirPath@@3VCDirPath@@A ; gDirPath
  01322	e8 00 00 00 00	 call	 ?GetNewPath@CDirPath@@QAEPADPAD@Z ; CDirPath::GetNewPath
  01327	50		 push	 eax
  01328	6a 02		 push	 2
  0132a	68 00 00 00 00	 push	 OFFSET ??_C@_0BJ@HJDOLNNF@ItemDropRateForGoldMedal@
  0132f	68 00 00 00 00	 push	 OFFSET ??_C@_0P@EMJDPFDH@GameServerInfo@
  01334	ff 15 00 00 00
	00		 call	 DWORD PTR __imp__GetPrivateProfileIntA@16
  0133a	a3 00 00 00 00	 mov	 DWORD PTR ?g_ItemDropRateForGoldMedal@@3HA, eax ; g_ItemDropRateForGoldMedal

; 6369 : 			g_ItemDropRateForSilverMedal	= GetPrivateProfileInt("GameServerInfo", "ItemDropRateForSilverMedal", 2, gDirPath.GetNewPath("commonserver.cfg"));	//    

  0133f	68 00 00 00 00	 push	 OFFSET ??_C@_0BB@IGLHFEOF@commonserver?4cfg@
  01344	b9 00 00 00 00	 mov	 ecx, OFFSET ?gDirPath@@3VCDirPath@@A ; gDirPath
  01349	e8 00 00 00 00	 call	 ?GetNewPath@CDirPath@@QAEPADPAD@Z ; CDirPath::GetNewPath
  0134e	50		 push	 eax
  0134f	6a 02		 push	 2
  01351	68 00 00 00 00	 push	 OFFSET ??_C@_0BL@DECCHFKM@ItemDropRateForSilverMedal@
  01356	68 00 00 00 00	 push	 OFFSET ??_C@_0P@EMJDPFDH@GameServerInfo@
  0135b	ff 15 00 00 00
	00		 call	 DWORD PTR __imp__GetPrivateProfileIntA@16
  01361	a3 00 00 00 00	 mov	 DWORD PTR ?g_ItemDropRateForSilverMedal@@3HA, eax ; g_ItemDropRateForSilverMedal

; 6370 : 		}
; 6371 : 		break;

  01366	e9 0c 02 00 00	 jmp	 $LN2@ReadEventI
$LN15@ReadEventI:

; 6372 : 	case MU_EVENT_XMASSTAR :			//   (  )
; 6373 : 		{
; 6374 : 			gXMasEvent						= GetPrivateProfileInt("GameServerInfo", "XMasEvent", 0, gDirPath.GetNewPath("commonserver.cfg"));

  0136b	68 00 00 00 00	 push	 OFFSET ??_C@_0BB@IGLHFEOF@commonserver?4cfg@
  01370	b9 00 00 00 00	 mov	 ecx, OFFSET ?gDirPath@@3VCDirPath@@A ; gDirPath
  01375	e8 00 00 00 00	 call	 ?GetNewPath@CDirPath@@QAEPADPAD@Z ; CDirPath::GetNewPath
  0137a	50		 push	 eax
  0137b	6a 00		 push	 0
  0137d	68 00 00 00 00	 push	 OFFSET ??_C@_09HEEPAMKP@XMasEvent@
  01382	68 00 00 00 00	 push	 OFFSET ??_C@_0P@EMJDPFDH@GameServerInfo@
  01387	ff 15 00 00 00
	00		 call	 DWORD PTR __imp__GetPrivateProfileIntA@16
  0138d	a3 00 00 00 00	 mov	 DWORD PTR ?gXMasEvent@@3HA, eax ; gXMasEvent

; 6375 : 			g_XMasEvent_StarOfXMasDropRate	= GetPrivateProfileInt("GameServerInfo", "XMasEvent_StarOfXMasDropRate", 5000, gDirPath.GetNewPath("commonserver.cfg"));

  01392	68 00 00 00 00	 push	 OFFSET ??_C@_0BB@IGLHFEOF@commonserver?4cfg@
  01397	b9 00 00 00 00	 mov	 ecx, OFFSET ?gDirPath@@3VCDirPath@@A ; gDirPath
  0139c	e8 00 00 00 00	 call	 ?GetNewPath@CDirPath@@QAEPADPAD@Z ; CDirPath::GetNewPath
  013a1	50		 push	 eax
  013a2	68 88 13 00 00	 push	 5000			; 00001388H
  013a7	68 00 00 00 00	 push	 OFFSET ??_C@_0BN@EDHJHEEJ@XMasEvent_StarOfXMasDropRate@
  013ac	68 00 00 00 00	 push	 OFFSET ??_C@_0P@EMJDPFDH@GameServerInfo@
  013b1	ff 15 00 00 00
	00		 call	 DWORD PTR __imp__GetPrivateProfileIntA@16
  013b7	a3 00 00 00 00	 mov	 DWORD PTR ?g_XMasEvent_StarOfXMasDropRate@@3HA, eax ; g_XMasEvent_StarOfXMasDropRate

; 6376 : 			g_XMasEvent_ItemDropRateForStarOfXMas	= GetPrivateProfileInt("GameServerInfo", "XMasEvent_ItemDropRateForStarOfXMas", 2, gDirPath.GetNewPath("commonserver.cfg"));

  013bc	68 00 00 00 00	 push	 OFFSET ??_C@_0BB@IGLHFEOF@commonserver?4cfg@
  013c1	b9 00 00 00 00	 mov	 ecx, OFFSET ?gDirPath@@3VCDirPath@@A ; gDirPath
  013c6	e8 00 00 00 00	 call	 ?GetNewPath@CDirPath@@QAEPADPAD@Z ; CDirPath::GetNewPath
  013cb	50		 push	 eax
  013cc	6a 02		 push	 2
  013ce	68 00 00 00 00	 push	 OFFSET ??_C@_0CE@BHNJHAEB@XMasEvent_ItemDropRateForStarOf@
  013d3	68 00 00 00 00	 push	 OFFSET ??_C@_0P@EMJDPFDH@GameServerInfo@
  013d8	ff 15 00 00 00
	00		 call	 DWORD PTR __imp__GetPrivateProfileIntA@16
  013de	a3 00 00 00 00	 mov	 DWORD PTR ?g_XMasEvent_ItemDropRateForStarOfXMas@@3HA, eax ; g_XMasEvent_ItemDropRateForStarOfXMas

; 6377 : 		}
; 6378 : 		break;

  013e3	e9 8f 01 00 00	 jmp	 $LN2@ReadEventI
$LN16@ReadEventI:

; 6379 : 	case MU_EVENT_HEARTOFLOVE :			//   (  )
; 6380 : 		{
; 6381 : 			gHeartOfLoveEvent				= GetPrivateProfileInt("GameServerInfo", "HeartOfLoveEvent", 0, gDirPath.GetNewPath("commonserver.cfg"));

  013e8	68 00 00 00 00	 push	 OFFSET ??_C@_0BB@IGLHFEOF@commonserver?4cfg@
  013ed	b9 00 00 00 00	 mov	 ecx, OFFSET ?gDirPath@@3VCDirPath@@A ; gDirPath
  013f2	e8 00 00 00 00	 call	 ?GetNewPath@CDirPath@@QAEPADPAD@Z ; CDirPath::GetNewPath
  013f7	50		 push	 eax
  013f8	6a 00		 push	 0
  013fa	68 00 00 00 00	 push	 OFFSET ??_C@_0BB@CGEJHOOF@HeartOfLoveEvent@
  013ff	68 00 00 00 00	 push	 OFFSET ??_C@_0P@EMJDPFDH@GameServerInfo@
  01404	ff 15 00 00 00
	00		 call	 DWORD PTR __imp__GetPrivateProfileIntA@16
  0140a	a3 00 00 00 00	 mov	 DWORD PTR ?gHeartOfLoveEvent@@3HA, eax ; gHeartOfLoveEvent

; 6382 : 			gHeartOfLoveDropRate			= GetPrivateProfileInt("GameServerInfo", "HeartOfLoveDropRate", 5000, gDirPath.GetNewPath("commonserver.cfg"));

  0140f	68 00 00 00 00	 push	 OFFSET ??_C@_0BB@IGLHFEOF@commonserver?4cfg@
  01414	b9 00 00 00 00	 mov	 ecx, OFFSET ?gDirPath@@3VCDirPath@@A ; gDirPath
  01419	e8 00 00 00 00	 call	 ?GetNewPath@CDirPath@@QAEPADPAD@Z ; CDirPath::GetNewPath
  0141e	50		 push	 eax
  0141f	68 88 13 00 00	 push	 5000			; 00001388H
  01424	68 00 00 00 00	 push	 OFFSET ??_C@_0BE@JJGBIMJB@HeartOfLoveDropRate@
  01429	68 00 00 00 00	 push	 OFFSET ??_C@_0P@EMJDPFDH@GameServerInfo@
  0142e	ff 15 00 00 00
	00		 call	 DWORD PTR __imp__GetPrivateProfileIntA@16
  01434	a3 00 00 00 00	 mov	 DWORD PTR ?gHeartOfLoveDropRate@@3HA, eax ; gHeartOfLoveDropRate

; 6383 : 			g_ItemDropRateForgHeartOfLove	= GetPrivateProfileInt("GameServerInfo", "ItemDropRateForHeartOfLove", 2, gDirPath.GetNewPath("commonserver.cfg"));

  01439	68 00 00 00 00	 push	 OFFSET ??_C@_0BB@IGLHFEOF@commonserver?4cfg@
  0143e	b9 00 00 00 00	 mov	 ecx, OFFSET ?gDirPath@@3VCDirPath@@A ; gDirPath
  01443	e8 00 00 00 00	 call	 ?GetNewPath@CDirPath@@QAEPADPAD@Z ; CDirPath::GetNewPath
  01448	50		 push	 eax
  01449	6a 02		 push	 2
  0144b	68 00 00 00 00	 push	 OFFSET ??_C@_0BL@CMBFLADP@ItemDropRateForHeartOfLove@
  01450	68 00 00 00 00	 push	 OFFSET ??_C@_0P@EMJDPFDH@GameServerInfo@
  01455	ff 15 00 00 00
	00		 call	 DWORD PTR __imp__GetPrivateProfileIntA@16
  0145b	a3 00 00 00 00	 mov	 DWORD PTR ?g_ItemDropRateForgHeartOfLove@@3HA, eax ; g_ItemDropRateForgHeartOfLove

; 6384 : 		}
; 6385 : 		break;

  01460	e9 12 01 00 00	 jmp	 $LN2@ReadEventI
$LN17@ReadEventI:

; 6386 : 	case MU_EVENT_SAY_HAPPYNEWYEAR :	// NPC  .
; 6387 : 		{
; 6388 : 			GetPrivateProfileString("GameServerInfo", "HappyNewYearTalkNpc", "0", szTemp, 5, gDirPath.GetNewPath("commonserver.cfg"));	

  01465	68 00 00 00 00	 push	 OFFSET ??_C@_0BB@IGLHFEOF@commonserver?4cfg@
  0146a	b9 00 00 00 00	 mov	 ecx, OFFSET ?gDirPath@@3VCDirPath@@A ; gDirPath
  0146f	e8 00 00 00 00	 call	 ?GetNewPath@CDirPath@@QAEPADPAD@Z ; CDirPath::GetNewPath
  01474	50		 push	 eax
  01475	6a 05		 push	 5
  01477	8d 85 fc fe ff
	ff		 lea	 eax, DWORD PTR _szTemp$[ebp]
  0147d	50		 push	 eax
  0147e	68 00 00 00 00	 push	 OFFSET ??_C@_01GBGANLPD@0@
  01483	68 00 00 00 00	 push	 OFFSET ??_C@_0BE@MPGFIFAO@HappyNewYearTalkNpc@
  01488	68 00 00 00 00	 push	 OFFSET ??_C@_0P@EMJDPFDH@GameServerInfo@
  0148d	ff 15 00 00 00
	00		 call	 DWORD PTR __imp__GetPrivateProfileStringA@24

; 6389 : 			gHappyNewYearNpcEvent			= atoi(szTemp);

  01493	8d 85 fc fe ff
	ff		 lea	 eax, DWORD PTR _szTemp$[ebp]
  01499	50		 push	 eax
  0149a	e8 00 00 00 00	 call	 _atoi
  0149f	83 c4 04	 add	 esp, 4
  014a2	a3 00 00 00 00	 mov	 DWORD PTR ?gHappyNewYearNpcEvent@@3HA, eax ; gHappyNewYearNpcEvent

; 6390 : 			if( gHappyNewYearNpcEvent )	LogAddTD(lMsg.Get(573));	// []   NPC  

  014a7	83 3d 00 00 00
	00 00		 cmp	 DWORD PTR ?gHappyNewYearNpcEvent@@3HA, 0 ; gHappyNewYearNpcEvent
  014ae	74 1a		 je	 SHORT $LN18@ReadEventI
  014b0	68 3d 02 00 00	 push	 573			; 0000023dH
  014b5	b9 00 00 00 00	 mov	 ecx, OFFSET ?lMsg@@3VCMsg@@A ; lMsg
  014ba	ff 15 00 00 00
	00		 call	 DWORD PTR __imp_?Get@CMsg@@QAEPADH@Z
  014c0	50		 push	 eax
  014c1	ff 15 00 00 00
	00		 call	 DWORD PTR ?LogAddTD@@3P6AXPADZZA ; LogAddTD
  014c7	83 c4 04	 add	 esp, 4
$LN18@ReadEventI:

; 6391 : 		}
; 6392 : 		break;

  014ca	e9 a8 00 00 00	 jmp	 $LN2@ReadEventI
$LN19@ReadEventI:

; 6393 : 	case MU_EVENT_SAY_MERRYXMAS :		// NPC   .
; 6394 : 		{
; 6395 : 			GetPrivateProfileString("GameServerInfo", "MerryXMasTalkNpc", "0", szTemp, 5, gDirPath.GetNewPath("commonserver.cfg"));	

  014cf	68 00 00 00 00	 push	 OFFSET ??_C@_0BB@IGLHFEOF@commonserver?4cfg@
  014d4	b9 00 00 00 00	 mov	 ecx, OFFSET ?gDirPath@@3VCDirPath@@A ; gDirPath
  014d9	e8 00 00 00 00	 call	 ?GetNewPath@CDirPath@@QAEPADPAD@Z ; CDirPath::GetNewPath
  014de	50		 push	 eax
  014df	6a 05		 push	 5
  014e1	8d 85 fc fe ff
	ff		 lea	 eax, DWORD PTR _szTemp$[ebp]
  014e7	50		 push	 eax
  014e8	68 00 00 00 00	 push	 OFFSET ??_C@_01GBGANLPD@0@
  014ed	68 00 00 00 00	 push	 OFFSET ??_C@_0BB@HOHJFGOC@MerryXMasTalkNpc@
  014f2	68 00 00 00 00	 push	 OFFSET ??_C@_0P@EMJDPFDH@GameServerInfo@
  014f7	ff 15 00 00 00
	00		 call	 DWORD PTR __imp__GetPrivateProfileStringA@24

; 6396 : 			gMerryXMasNpcEvent				= atoi(szTemp);

  014fd	8d 85 fc fe ff
	ff		 lea	 eax, DWORD PTR _szTemp$[ebp]
  01503	50		 push	 eax
  01504	e8 00 00 00 00	 call	 _atoi
  01509	83 c4 04	 add	 esp, 4
  0150c	a3 00 00 00 00	 mov	 DWORD PTR ?gMerryXMasNpcEvent@@3HA, eax ; gMerryXMasNpcEvent

; 6397 : 			if( gMerryXMasNpcEvent )	LogAddTD(lMsg.Get(572));	// []  NPC  

  01511	83 3d 00 00 00
	00 00		 cmp	 DWORD PTR ?gMerryXMasNpcEvent@@3HA, 0 ; gMerryXMasNpcEvent
  01518	74 1a		 je	 SHORT $LN20@ReadEventI
  0151a	68 3c 02 00 00	 push	 572			; 0000023cH
  0151f	b9 00 00 00 00	 mov	 ecx, OFFSET ?lMsg@@3VCMsg@@A ; lMsg
  01524	ff 15 00 00 00
	00		 call	 DWORD PTR __imp_?Get@CMsg@@QAEPADH@Z
  0152a	50		 push	 eax
  0152b	ff 15 00 00 00
	00		 call	 DWORD PTR ?LogAddTD@@3P6AXPADZZA ; LogAddTD
  01531	83 c4 04	 add	 esp, 4
$LN20@ReadEventI:

; 6398 : 		}
; 6399 : 		break;

  01534	eb 41		 jmp	 SHORT $LN2@ReadEventI
$LN21@ReadEventI:

; 6400 : #ifdef CHAOSCASTLE_SYSTEM_20040408 
; 6401 : 	case MU_EVENT_CHAOSCASTLE :			//  
; 6402 : 		{
; 6403 : 			g_ChaosCastle.Load(gDirPath.GetNewPath("ChaosCastle.dat"));

  01536	68 00 00 00 00	 push	 OFFSET ??_C@_0BA@LOKHGJIA@ChaosCastle?4dat@
  0153b	b9 00 00 00 00	 mov	 ecx, OFFSET ?gDirPath@@3VCDirPath@@A ; gDirPath
  01540	e8 00 00 00 00	 call	 ?GetNewPath@CDirPath@@QAEPADPAD@Z ; CDirPath::GetNewPath
  01545	50		 push	 eax
  01546	b9 00 00 00 00	 mov	 ecx, OFFSET ?g_ChaosCastle@@3VCChaosCastle@@A ; g_ChaosCastle
  0154b	e8 00 00 00 00	 call	 ?Load@CChaosCastle@@QAEXPAD@Z ; CChaosCastle::Load

; 6404 : 			g_bChaosCastle				= GetPrivateProfileInt("GameServerInfo", "ChaosCastleEvent", 0, gDirPath.GetNewPath("commonserver.cfg"));

  01550	68 00 00 00 00	 push	 OFFSET ??_C@_0BB@IGLHFEOF@commonserver?4cfg@
  01555	b9 00 00 00 00	 mov	 ecx, OFFSET ?gDirPath@@3VCDirPath@@A ; gDirPath
  0155a	e8 00 00 00 00	 call	 ?GetNewPath@CDirPath@@QAEPADPAD@Z ; CDirPath::GetNewPath
  0155f	50		 push	 eax
  01560	6a 00		 push	 0
  01562	68 00 00 00 00	 push	 OFFSET ??_C@_0BB@EAJFBCDB@ChaosCastleEvent@
  01567	68 00 00 00 00	 push	 OFFSET ??_C@_0P@EMJDPFDH@GameServerInfo@
  0156c	ff 15 00 00 00
	00		 call	 DWORD PTR __imp__GetPrivateProfileIntA@16
  01572	a3 00 00 00 00	 mov	 DWORD PTR ?g_bChaosCastle@@3HA, eax ; g_bChaosCastle
$LN22@ReadEventI:
$LN2@ReadEventI:

; 6405 : 		}
; 6406 : 		break;
; 6407 : #endif
; 6408 : #ifdef CHRISTMAS_RIBBONBOX_EVENT_20051212
; 6409 : 	case MU_EVENT_CHRISTMAS_RIBBONBOX:	//   . (  ,,   )
; 6410 : 		{
; 6411 : 			g_bRibbonBoxEvent					= GetPrivateProfileInt( "GameServerInfo", "RibbonBoxEvent", 0, gDirPath.GetNewPath("commonserver.cfg"));
; 6412 : 
; 6413 : 			g_iRedRibbonBoxDropLevelMin			= GetPrivateProfileInt( "GameServerInfo", "RedRibbonBoxDropLv_Min", 0, gDirPath.GetNewPath("commonserver.cfg"));
; 6414 : 			g_iRedRibbonBoxDropLevelMax			= GetPrivateProfileInt( "GameServerInfo", "RedRibbonBoxDropLv_Max", 0, gDirPath.GetNewPath("commonserver.cfg"));	
; 6415 : 			g_iRedRibbonBoxDropRate				= GetPrivateProfileInt( "GameServerInfo", "RedRibbonBoxDropRate", 0, gDirPath.GetNewPath("commonserver.cfg"));
; 6416 : 			g_iRedRibbonBoxDropZenRate			= GetPrivateProfileInt( "GameServerInfo", "RedRibbonBoxDropZenRate", 0, gDirPath.GetNewPath("commonserver.cfg"));
; 6417 : 			g_iRedRibbonBoxDropZen				= GetPrivateProfileInt( "GameServerInfo", "RedRibbonBoxDropZen", 0, gDirPath.GetNewPath("commonserver.cfg"));
; 6418 : 
; 6419 : 			g_iGreenRibbonBoxDropLevelMin		= GetPrivateProfileInt( "GameServerInfo", "GreenRibbonBoxDropLv_Min", 0, gDirPath.GetNewPath("commonserver.cfg"));
; 6420 : 			g_iGreenRibbonBoxDropLevelMax		= GetPrivateProfileInt( "GameServerInfo", "GreenRibbonBoxDropLv_Max", 0, gDirPath.GetNewPath("commonserver.cfg"));
; 6421 : 			g_iGreenRibbonBoxDropRate			= GetPrivateProfileInt( "GameServerInfo", "GreenRibbonBoxDropRate", 0, gDirPath.GetNewPath("commonserver.cfg"));
; 6422 : 			g_iGreenRibbonBoxDropZenRate		= GetPrivateProfileInt( "GameServerInfo", "GreenRibbonBoxDropZenRate", 0, gDirPath.GetNewPath("commonserver.cfg"));
; 6423 : 			g_iGreenRibbonBoxDropZen			= GetPrivateProfileInt( "GameServerInfo", "GreenRibbonBoxDropZen", 0, gDirPath.GetNewPath("commonserver.cfg"));
; 6424 : 
; 6425 : 			g_iBlueRibbonBoxDropLevelMin		= GetPrivateProfileInt( "GameServerInfo", "BlueRibbonBoxDropLv_Min", 0, gDirPath.GetNewPath("commonserver.cfg"));		
; 6426 : 			g_iBlueRibbonBoxDropLevelMax		= GetPrivateProfileInt( "GameServerInfo", "BlueRibbonBoxDropLv_Max", 0, gDirPath.GetNewPath("commonserver.cfg"));
; 6427 : 			g_iBlueRibbonBoxDropRate			= GetPrivateProfileInt( "GameServerInfo", "BlueRibbonBoxDropRate", 0, gDirPath.GetNewPath("commonserver.cfg"));
; 6428 : 			g_iBlueRibbonBoxDropZenRate			= GetPrivateProfileInt( "GameServerInfo", "BlueRibbonBoxDropZenRate", 0, gDirPath.GetNewPath("commonserver.cfg"));
; 6429 : 			g_iBlueRibbonBoxDropZen				= GetPrivateProfileInt( "GameServerInfo", "BlueRibbonBoxDropZen", 0, gDirPath.GetNewPath("commonserver.cfg"));
; 6430 : 		}
; 6431 : 		break;
; 6432 : #endif //#ifdef CHRISTMAS_RIBBONBOX_EVENT_20051212	
; 6433 : 		
; 6434 : #ifdef VALENTINES_DAY_BOX_EVENT_20060124
; 6435 : 	case MU_EVENT_VALENTINESDAY_CHOCOLATEBOX:	//   (  ,,   )
; 6436 : 		{
; 6437 : 			g_bChocolateBoxEvent				= GetPrivateProfileInt( "GameServerInfo", "ChocolateEvent", 0, gDirPath.GetNewPath("commonserver.cfg"));
; 6438 : 
; 6439 : 			g_iPinkChocolateBoxDropLevelMin		= GetPrivateProfileInt( "GameServerInfo", "PinkChocolateBoxDropLv_Min", 0, gDirPath.GetNewPath("commonserver.cfg"));
; 6440 : 			g_iPinkChocolateBoxDropLevelMax		= GetPrivateProfileInt( "GameServerInfo", "PinkChocolateBoxDropLv_Max", 0, gDirPath.GetNewPath("commonserver.cfg"));	
; 6441 : 			g_iPinkChocolateBoxDropRate			= GetPrivateProfileInt( "GameServerInfo", "PinkChocolateBoxDropRate", 0, gDirPath.GetNewPath("commonserver.cfg"));
; 6442 : 			g_iPinkChocolateBoxDropZenRate		= GetPrivateProfileInt( "GameServerInfo", "PinkChocolateBoxDropZenRate", 0, gDirPath.GetNewPath("commonserver.cfg"));
; 6443 : 			g_iPinkChocolateBoxDropZen			= GetPrivateProfileInt( "GameServerInfo", "PinkChocolateBoxDropZen", 0, gDirPath.GetNewPath("commonserver.cfg"));
; 6444 : 
; 6445 : 			g_iRedChocolateBoxDropLevelMin		= GetPrivateProfileInt( "GameServerInfo", "RedChocolateBoxDropLv_Min", 0, gDirPath.GetNewPath("commonserver.cfg"));
; 6446 : 			g_iRedChocolateBoxDropLevelMax		= GetPrivateProfileInt( "GameServerInfo", "RedChocolateBoxDropLv_Max", 0, gDirPath.GetNewPath("commonserver.cfg"));
; 6447 : 			g_iRedChocolateBoxDropRate			= GetPrivateProfileInt( "GameServerInfo", "RedChocolateBoxDropRate", 0, gDirPath.GetNewPath("commonserver.cfg"));
; 6448 : 			g_iRedChocolateBoxDropZenRate		= GetPrivateProfileInt( "GameServerInfo", "RedChocolateBoxDropZenRate", 0, gDirPath.GetNewPath("commonserver.cfg"));
; 6449 : 			g_iRedChocolateBoxDropZen			= GetPrivateProfileInt( "GameServerInfo", "RedChocolateBoxDropZen", 0, gDirPath.GetNewPath("commonserver.cfg"));
; 6450 : 
; 6451 : 			g_iBlueChocolateBoxDropLevelMin		= GetPrivateProfileInt( "GameServerInfo", "BlueChocolateBoxDropLv_Min", 0, gDirPath.GetNewPath("commonserver.cfg"));		
; 6452 : 			g_iBlueChocolateBoxDropLevelMax		= GetPrivateProfileInt( "GameServerInfo", "BlueChocolateBoxDropLv_Max", 0, gDirPath.GetNewPath("commonserver.cfg"));
; 6453 : 			g_iBlueChocolateBoxDropRate			= GetPrivateProfileInt( "GameServerInfo", "BlueChocolateBoxDropRate", 0, gDirPath.GetNewPath("commonserver.cfg"));
; 6454 : 			g_iBlueChocolateBoxDropZenRate		= GetPrivateProfileInt( "GameServerInfo", "BlueChocolateBoxDropZenRate", 0, gDirPath.GetNewPath("commonserver.cfg"));
; 6455 : 			g_iBlueChocolateBoxDropZen			= GetPrivateProfileInt( "GameServerInfo", "BlueChocolateBoxDropZen", 0, gDirPath.GetNewPath("commonserver.cfg"));
; 6456 : 		}
; 6457 : 		break;
; 6458 : #endif //#ifdef VALENTINES_DAY_BOX_EVENT_20060124
; 6459 : 
; 6460 : #ifdef WHITEDAY_CANDY_BOX_EVENT_20060222
; 6461 : 	case MU_EVENT_WHITEDAY_CANDYBOX:	//   (  ,,   )
; 6462 : 		{
; 6463 : 			g_bCandyBoxEvent					= GetPrivateProfileInt( "GameServerInfo", "CandyBoxEvent", 0, gDirPath.GetNewPath("commonserver.cfg"));
; 6464 : 
; 6465 : 			g_iLightPurpleCandyBoxDropLevelMin	= GetPrivateProfileInt( "GameServerInfo", "LightPurpleCandyBoxDropLv_Min", 0, gDirPath.GetNewPath("commonserver.cfg"));
; 6466 : 			g_iLightPurpleCandyBoxDropLevelMax	= GetPrivateProfileInt( "GameServerInfo", "LightPurpleCandyBoxDropLv_Max", 0, gDirPath.GetNewPath("commonserver.cfg"));	
; 6467 : 			g_iLightPurpleCandyBoxDropRate		= GetPrivateProfileInt( "GameServerInfo", "LightPurpleCandyBoxDropRate", 0, gDirPath.GetNewPath("commonserver.cfg"));
; 6468 : 			g_iLightPurpleCandyBoxDropZenRate	= GetPrivateProfileInt( "GameServerInfo", "LightPurpleCandyBoxDropZenRate", 0, gDirPath.GetNewPath("commonserver.cfg"));
; 6469 : 			g_iLightPurpleCandyBoxDropZen		= GetPrivateProfileInt( "GameServerInfo", "LightPurpleCandyBoxDropZen", 0, gDirPath.GetNewPath("commonserver.cfg"));
; 6470 : 
; 6471 : 			g_iVermilionCandyBoxDropLevelMin	= GetPrivateProfileInt( "GameServerInfo", "VermilionCandyBoxDropLv_Min", 0, gDirPath.GetNewPath("commonserver.cfg"));
; 6472 : 			g_iVermilionCandyBoxDropLevelMax	= GetPrivateProfileInt( "GameServerInfo", "VermilionCandyBoxDropLv_Max", 0, gDirPath.GetNewPath("commonserver.cfg"));
; 6473 : 			g_iVermilionCandyBoxDropRate		= GetPrivateProfileInt( "GameServerInfo", "VermilionCandyBoxDropRate", 0, gDirPath.GetNewPath("commonserver.cfg"));
; 6474 : 			g_iVermilionCandyBoxDropZenRate		= GetPrivateProfileInt( "GameServerInfo", "VermilionCandyBoxDropZenRate", 0, gDirPath.GetNewPath("commonserver.cfg"));
; 6475 : 			g_iVermilionCandyBoxDropZen			= GetPrivateProfileInt( "GameServerInfo", "VermilionCandyBoxDropZen", 0, gDirPath.GetNewPath("commonserver.cfg"));
; 6476 : 
; 6477 : 			g_iDeepBlueCandyBoxDropLevelMin		= GetPrivateProfileInt( "GameServerInfo", "DeepBlueCandyBoxDropLv_Min", 0, gDirPath.GetNewPath("commonserver.cfg"));		
; 6478 : 			g_iDeepBlueCandyBoxDropLevelMax		= GetPrivateProfileInt( "GameServerInfo", "DeepBlueCandyBoxDropLv_Max", 0, gDirPath.GetNewPath("commonserver.cfg"));
; 6479 : 			g_iDeepBlueCandyBoxDropRate			= GetPrivateProfileInt( "GameServerInfo", "DeepBlueCandyBoxDropRate", 0, gDirPath.GetNewPath("commonserver.cfg"));
; 6480 : 			g_iDeepBlueCandyBoxDropZenRate		= GetPrivateProfileInt( "GameServerInfo", "DeepBlueCandyBoxDropZenRate", 0, gDirPath.GetNewPath("commonserver.cfg"));
; 6481 : 			g_iDeepBlueCandyBoxDropZen			= GetPrivateProfileInt( "GameServerInfo", "DeepBlueCandyBoxDropZen", 0, gDirPath.GetNewPath("commonserver.cfg"));
; 6482 : 		}
; 6483 : 		break;
; 6484 : #endif //#ifdef WHITEDAY_CANDY_BOX_EVENT_20060222
; 6485 : 		
; 6486 : 	default:
; 6487 : 		{
; 6488 : 		}
; 6489 : 		break;
; 6490 : 	}
; 6491 : }

  01577	5f		 pop	 edi
  01578	5e		 pop	 esi
  01579	5b		 pop	 ebx
  0157a	8b 4d fc	 mov	 ecx, DWORD PTR __$ArrayPad$[ebp]
  0157d	33 cd		 xor	 ecx, ebp
  0157f	e8 00 00 00 00	 call	 @__security_check_cookie@4
  01584	8b e5		 mov	 esp, ebp
  01586	5d		 pop	 ebp
  01587	c3		 ret	 0
$LN24@ReadEventI:
  01588	00 00 00 00	 DD	 $LN4@ReadEventI
  0158c	00 00 00 00	 DD	 $LN7@ReadEventI
  01590	00 00 00 00	 DD	 $LN8@ReadEventI
  01594	00 00 00 00	 DD	 $LN9@ReadEventI
  01598	00 00 00 00	 DD	 $LN10@ReadEventI
  0159c	00 00 00 00	 DD	 $LN11@ReadEventI
  015a0	00 00 00 00	 DD	 $LN12@ReadEventI
  015a4	00 00 00 00	 DD	 $LN13@ReadEventI
  015a8	00 00 00 00	 DD	 $LN14@ReadEventI
  015ac	00 00 00 00	 DD	 $LN15@ReadEventI
  015b0	00 00 00 00	 DD	 $LN16@ReadEventI
  015b4	00 00 00 00	 DD	 $LN17@ReadEventI
  015b8	00 00 00 00	 DD	 $LN19@ReadEventI
  015bc	00 00 00 00	 DD	 $LN21@ReadEventI
?ReadEventInfo@@YAXW4MU_EVENT_TYPE@@@Z ENDP		; ReadEventInfo
_TEXT	ENDS
; Function compile flags: /Odtp /ZI
; File C:\Mu Online\Mu-GS-Webzen-MC-10093\GameServer\Gamemain.cpp
;	COMDAT ?ReadGameEtcInfo@@YAXW4MU_ETC_TYPE@@@Z
_TEXT	SEGMENT
tv64 = -328						; size = 4
_szTemp$ = -260						; size = 256
__$ArrayPad$ = -4					; size = 4
_eGameEtcType$ = 8					; size = 4
?ReadGameEtcInfo@@YAXW4MU_ETC_TYPE@@@Z PROC		; ReadGameEtcInfo, COMDAT

; 6499 : {

  00000	55		 push	 ebp
  00001	8b ec		 mov	 ebp, esp
  00003	81 ec 48 01 00
	00		 sub	 esp, 328		; 00000148H
  00009	a1 00 00 00 00	 mov	 eax, DWORD PTR ___security_cookie
  0000e	33 c5		 xor	 eax, ebp
  00010	89 45 fc	 mov	 DWORD PTR __$ArrayPad$[ebp], eax
  00013	53		 push	 ebx
  00014	56		 push	 esi
  00015	57		 push	 edi

; 6500 : 	char szTemp[256];	
; 6501 : 
; 6502 : 	switch (eGameEtcType) {

  00016	8b 45 08	 mov	 eax, DWORD PTR _eGameEtcType$[ebp]
  00019	89 85 b8 fe ff
	ff		 mov	 DWORD PTR tv64[ebp], eax
  0001f	83 bd b8 fe ff
	ff 09		 cmp	 DWORD PTR tv64[ebp], 9
  00026	0f 87 84 07 00
	00		 ja	 $LN1@ReadGameEt
  0002c	8b 8d b8 fe ff
	ff		 mov	 ecx, DWORD PTR tv64[ebp]
  00032	ff 24 8d 00 00
	00 00		 jmp	 DWORD PTR $LN15@ReadGameEt[ecx*4]
$LN4@ReadGameEt:

; 6503 : 	case MU_ETC_ALL :					//     
; 6504 : 		{
; 6505 : 			// 1 .   ON/OFF
; 6506 : 			GetPrivateProfileString("GameServerInfo", "CreateCharacter", "1", szTemp, 5, gDirPath.GetNewPath("commonserver.cfg"));

  00039	68 00 00 00 00	 push	 OFFSET ??_C@_0BB@IGLHFEOF@commonserver?4cfg@
  0003e	b9 00 00 00 00	 mov	 ecx, OFFSET ?gDirPath@@3VCDirPath@@A ; gDirPath
  00043	e8 00 00 00 00	 call	 ?GetNewPath@CDirPath@@QAEPADPAD@Z ; CDirPath::GetNewPath
  00048	50		 push	 eax
  00049	6a 05		 push	 5
  0004b	8d 85 fc fe ff
	ff		 lea	 eax, DWORD PTR _szTemp$[ebp]
  00051	50		 push	 eax
  00052	68 00 00 00 00	 push	 OFFSET ??_C@_01HIHLOKLC@1@
  00057	68 00 00 00 00	 push	 OFFSET ??_C@_0BA@DIAOPFNP@CreateCharacter@
  0005c	68 00 00 00 00	 push	 OFFSET ??_C@_0P@EMJDPFDH@GameServerInfo@
  00061	ff 15 00 00 00
	00		 call	 DWORD PTR __imp__GetPrivateProfileStringA@24

; 6507 : 			gCreateCharacter = atoi(szTemp);

  00067	8d 85 fc fe ff
	ff		 lea	 eax, DWORD PTR _szTemp$[ebp]
  0006d	50		 push	 eax
  0006e	e8 00 00 00 00	 call	 _atoi
  00073	83 c4 04	 add	 esp, 4
  00076	a3 00 00 00 00	 mov	 DWORD PTR ?gCreateCharacter@@3HA, eax ; gCreateCharacter

; 6508 : 
; 6509 : 			// 2 .  , , 
; 6510 : 			GetPrivateProfileString("GameServerInfo", "GuildCreate", "1", szTemp, 5, gDirPath.GetNewPath("commonserver.cfg"));

  0007b	68 00 00 00 00	 push	 OFFSET ??_C@_0BB@IGLHFEOF@commonserver?4cfg@
  00080	b9 00 00 00 00	 mov	 ecx, OFFSET ?gDirPath@@3VCDirPath@@A ; gDirPath
  00085	e8 00 00 00 00	 call	 ?GetNewPath@CDirPath@@QAEPADPAD@Z ; CDirPath::GetNewPath
  0008a	50		 push	 eax
  0008b	6a 05		 push	 5
  0008d	8d 85 fc fe ff
	ff		 lea	 eax, DWORD PTR _szTemp$[ebp]
  00093	50		 push	 eax
  00094	68 00 00 00 00	 push	 OFFSET ??_C@_01HIHLOKLC@1@
  00099	68 00 00 00 00	 push	 OFFSET ??_C@_0M@CGJDJOAO@GuildCreate@
  0009e	68 00 00 00 00	 push	 OFFSET ??_C@_0P@EMJDPFDH@GameServerInfo@
  000a3	ff 15 00 00 00
	00		 call	 DWORD PTR __imp__GetPrivateProfileStringA@24

; 6511 : 			gGuildCreate = atoi(szTemp);

  000a9	8d 85 fc fe ff
	ff		 lea	 eax, DWORD PTR _szTemp$[ebp]
  000af	50		 push	 eax
  000b0	e8 00 00 00 00	 call	 _atoi
  000b5	83 c4 04	 add	 esp, 4
  000b8	a3 00 00 00 00	 mov	 DWORD PTR ?gGuildCreate@@3HA, eax ; gGuildCreate

; 6512 : 			LogAdd(lMsg.Get(569), gGuildCreate);

  000bd	a1 00 00 00 00	 mov	 eax, DWORD PTR ?gGuildCreate@@3HA ; gGuildCreate
  000c2	50		 push	 eax
  000c3	68 39 02 00 00	 push	 569			; 00000239H
  000c8	b9 00 00 00 00	 mov	 ecx, OFFSET ?lMsg@@3VCMsg@@A ; lMsg
  000cd	ff 15 00 00 00
	00		 call	 DWORD PTR __imp_?Get@CMsg@@QAEPADH@Z
  000d3	50		 push	 eax
  000d4	ff 15 00 00 00
	00		 call	 DWORD PTR ?LogAdd@@3P6AXPADZZA ; LogAdd
  000da	83 c4 08	 add	 esp, 8

; 6513 : 			GetPrivateProfileString("GameServerInfo", "GuildDestroy", "1", szTemp, 5, gDirPath.GetNewPath("commonserver.cfg"));

  000dd	68 00 00 00 00	 push	 OFFSET ??_C@_0BB@IGLHFEOF@commonserver?4cfg@
  000e2	b9 00 00 00 00	 mov	 ecx, OFFSET ?gDirPath@@3VCDirPath@@A ; gDirPath
  000e7	e8 00 00 00 00	 call	 ?GetNewPath@CDirPath@@QAEPADPAD@Z ; CDirPath::GetNewPath
  000ec	50		 push	 eax
  000ed	6a 05		 push	 5
  000ef	8d 85 fc fe ff
	ff		 lea	 eax, DWORD PTR _szTemp$[ebp]
  000f5	50		 push	 eax
  000f6	68 00 00 00 00	 push	 OFFSET ??_C@_01HIHLOKLC@1@
  000fb	68 00 00 00 00	 push	 OFFSET ??_C@_0N@OEKMPEAB@GuildDestroy@
  00100	68 00 00 00 00	 push	 OFFSET ??_C@_0P@EMJDPFDH@GameServerInfo@
  00105	ff 15 00 00 00
	00		 call	 DWORD PTR __imp__GetPrivateProfileStringA@24

; 6514 : 			gGuildDestroy = atoi(szTemp);

  0010b	8d 85 fc fe ff
	ff		 lea	 eax, DWORD PTR _szTemp$[ebp]
  00111	50		 push	 eax
  00112	e8 00 00 00 00	 call	 _atoi
  00117	83 c4 04	 add	 esp, 4
  0011a	a3 00 00 00 00	 mov	 DWORD PTR ?gGuildDestroy@@3HA, eax ; gGuildDestroy

; 6515 : 			LogAdd(lMsg.Get(570), gGuildDestroy);		// "   %d"

  0011f	a1 00 00 00 00	 mov	 eax, DWORD PTR ?gGuildDestroy@@3HA ; gGuildDestroy
  00124	50		 push	 eax
  00125	68 3a 02 00 00	 push	 570			; 0000023aH
  0012a	b9 00 00 00 00	 mov	 ecx, OFFSET ?lMsg@@3VCMsg@@A ; lMsg
  0012f	ff 15 00 00 00
	00		 call	 DWORD PTR __imp_?Get@CMsg@@QAEPADH@Z
  00135	50		 push	 eax
  00136	ff 15 00 00 00
	00		 call	 DWORD PTR ?LogAdd@@3P6AXPADZZA ; LogAdd
  0013c	83 c4 08	 add	 esp, 8

; 6516 : 			GetPrivateProfileString("GameServerInfo", "GuildCreateLevel", "100", szTemp, 5, gDirPath.GetNewPath("commonserver.cfg"));

  0013f	68 00 00 00 00	 push	 OFFSET ??_C@_0BB@IGLHFEOF@commonserver?4cfg@
  00144	b9 00 00 00 00	 mov	 ecx, OFFSET ?gDirPath@@3VCDirPath@@A ; gDirPath
  00149	e8 00 00 00 00	 call	 ?GetNewPath@CDirPath@@QAEPADPAD@Z ; CDirPath::GetNewPath
  0014e	50		 push	 eax
  0014f	6a 05		 push	 5
  00151	8d 85 fc fe ff
	ff		 lea	 eax, DWORD PTR _szTemp$[ebp]
  00157	50		 push	 eax
  00158	68 00 00 00 00	 push	 OFFSET ??_C@_03GNABGMEE@100@
  0015d	68 00 00 00 00	 push	 OFFSET ??_C@_0BB@DOGMENHB@GuildCreateLevel@
  00162	68 00 00 00 00	 push	 OFFSET ??_C@_0P@EMJDPFDH@GameServerInfo@
  00167	ff 15 00 00 00
	00		 call	 DWORD PTR __imp__GetPrivateProfileStringA@24

; 6517 : 			gGuildCreateLevel = atoi(szTemp);

  0016d	8d 85 fc fe ff
	ff		 lea	 eax, DWORD PTR _szTemp$[ebp]
  00173	50		 push	 eax
  00174	e8 00 00 00 00	 call	 _atoi
  00179	83 c4 04	 add	 esp, 4
  0017c	a3 00 00 00 00	 mov	 DWORD PTR ?gGuildCreateLevel@@3HA, eax ; gGuildCreateLevel

; 6518 : 			LogAdd(lMsg.Get(571), gGuildCreateLevel);	//    %d

  00181	a1 00 00 00 00	 mov	 eax, DWORD PTR ?gGuildCreateLevel@@3HA ; gGuildCreateLevel
  00186	50		 push	 eax
  00187	68 3b 02 00 00	 push	 571			; 0000023bH
  0018c	b9 00 00 00 00	 mov	 ecx, OFFSET ?lMsg@@3VCMsg@@A ; lMsg
  00191	ff 15 00 00 00
	00		 call	 DWORD PTR __imp_?Get@CMsg@@QAEPADH@Z
  00197	50		 push	 eax
  00198	ff 15 00 00 00
	00		 call	 DWORD PTR ?LogAdd@@3P6AXPADZZA ; LogAdd
  0019e	83 c4 08	 add	 esp, 8

; 6519 : #ifdef MODIFY_CASTLE_OWNER_GUILD_DESTROY_LIMIT_20060418
; 6520 : 			//   
; 6521 : 			g_bCastleGuildDestoyLimit	= GetPrivateProfileInt( "GameServerInfo", "CastleOwnerGuildDestroyLimit", 1, gDirPath.GetNewPath("commonserver.cfg"));

  001a1	68 00 00 00 00	 push	 OFFSET ??_C@_0BB@IGLHFEOF@commonserver?4cfg@
  001a6	b9 00 00 00 00	 mov	 ecx, OFFSET ?gDirPath@@3VCDirPath@@A ; gDirPath
  001ab	e8 00 00 00 00	 call	 ?GetNewPath@CDirPath@@QAEPADPAD@Z ; CDirPath::GetNewPath
  001b0	50		 push	 eax
  001b1	6a 01		 push	 1
  001b3	68 00 00 00 00	 push	 OFFSET ??_C@_0BN@IDOOLGAL@CastleOwnerGuildDestroyLimit@
  001b8	68 00 00 00 00	 push	 OFFSET ??_C@_0P@EMJDPFDH@GameServerInfo@
  001bd	ff 15 00 00 00
	00		 call	 DWORD PTR __imp__GetPrivateProfileIntA@16
  001c3	a3 00 00 00 00	 mov	 DWORD PTR ?g_bCastleGuildDestoyLimit@@3HA, eax ; g_bCastleGuildDestoyLimit

; 6522 : #endif
; 6523 : 			
; 6524 : 			// 3 .    ON/OFF
; 6525 : 			GetPrivateProfileString("GameServerInfo", "Trade", "1", szTemp, 5, gDirPath.GetNewPath("commonserver.cfg"));

  001c8	68 00 00 00 00	 push	 OFFSET ??_C@_0BB@IGLHFEOF@commonserver?4cfg@
  001cd	b9 00 00 00 00	 mov	 ecx, OFFSET ?gDirPath@@3VCDirPath@@A ; gDirPath
  001d2	e8 00 00 00 00	 call	 ?GetNewPath@CDirPath@@QAEPADPAD@Z ; CDirPath::GetNewPath
  001d7	50		 push	 eax
  001d8	6a 05		 push	 5
  001da	8d 85 fc fe ff
	ff		 lea	 eax, DWORD PTR _szTemp$[ebp]
  001e0	50		 push	 eax
  001e1	68 00 00 00 00	 push	 OFFSET ??_C@_01HIHLOKLC@1@
  001e6	68 00 00 00 00	 push	 OFFSET ??_C@_05IOPOMLGK@Trade@
  001eb	68 00 00 00 00	 push	 OFFSET ??_C@_0P@EMJDPFDH@GameServerInfo@
  001f0	ff 15 00 00 00
	00		 call	 DWORD PTR __imp__GetPrivateProfileStringA@24

; 6526 : 			bCanTrade				= atoi(szTemp);

  001f6	8d 85 fc fe ff
	ff		 lea	 eax, DWORD PTR _szTemp$[ebp]
  001fc	50		 push	 eax
  001fd	e8 00 00 00 00	 call	 _atoi
  00202	83 c4 04	 add	 esp, 4
  00205	a3 00 00 00 00	 mov	 DWORD PTR ?bCanTrade@@3HA, eax ; bCanTrade

; 6527 : 
; 6528 : 			// 4 .    ON/OFF
; 6529 : 			bCanChaosBox = GetPrivateProfileInt("GameServerInfo", "ChaosBox", 0, gDirPath.GetNewPath("commonserver.cfg"));

  0020a	68 00 00 00 00	 push	 OFFSET ??_C@_0BB@IGLHFEOF@commonserver?4cfg@
  0020f	b9 00 00 00 00	 mov	 ecx, OFFSET ?gDirPath@@3VCDirPath@@A ; gDirPath
  00214	e8 00 00 00 00	 call	 ?GetNewPath@CDirPath@@QAEPADPAD@Z ; CDirPath::GetNewPath
  00219	50		 push	 eax
  0021a	6a 00		 push	 0
  0021c	68 00 00 00 00	 push	 OFFSET ??_C@_08CIGOAAJ@ChaosBox@
  00221	68 00 00 00 00	 push	 OFFSET ??_C@_0P@EMJDPFDH@GameServerInfo@
  00226	ff 15 00 00 00
	00		 call	 DWORD PTR __imp__GetPrivateProfileIntA@16
  0022c	a3 00 00 00 00	 mov	 DWORD PTR ?bCanChaosBox@@3HA, eax ; bCanChaosBox

; 6530 : 
; 6531 : 			// 5 . PK    ON/OFF
; 6532 : 			GetPrivateProfileString("GameServerInfo", "PKItemDrop", "1", szTemp, 5, gDirPath.GetNewPath("commonserver.cfg"));	

  00231	68 00 00 00 00	 push	 OFFSET ??_C@_0BB@IGLHFEOF@commonserver?4cfg@
  00236	b9 00 00 00 00	 mov	 ecx, OFFSET ?gDirPath@@3VCDirPath@@A ; gDirPath
  0023b	e8 00 00 00 00	 call	 ?GetNewPath@CDirPath@@QAEPADPAD@Z ; CDirPath::GetNewPath
  00240	50		 push	 eax
  00241	6a 05		 push	 5
  00243	8d 85 fc fe ff
	ff		 lea	 eax, DWORD PTR _szTemp$[ebp]
  00249	50		 push	 eax
  0024a	68 00 00 00 00	 push	 OFFSET ??_C@_01HIHLOKLC@1@
  0024f	68 00 00 00 00	 push	 OFFSET ??_C@_0L@LNKCFJOF@PKItemDrop@
  00254	68 00 00 00 00	 push	 OFFSET ??_C@_0P@EMJDPFDH@GameServerInfo@
  00259	ff 15 00 00 00
	00		 call	 DWORD PTR __imp__GetPrivateProfileStringA@24

; 6533 : 			gPkItemDrop  = atoi(szTemp);

  0025f	8d 85 fc fe ff
	ff		 lea	 eax, DWORD PTR _szTemp$[ebp]
  00265	50		 push	 eax
  00266	e8 00 00 00 00	 call	 _atoi
  0026b	83 c4 04	 add	 esp, 4
  0026e	a3 00 00 00 00	 mov	 DWORD PTR ?gPkItemDrop@@3HA, eax ; gPkItemDrop

; 6534 : 
; 6535 : 			// 6 .   
; 6536 : 			GetPrivateProfileString("GameServerInfo", "ItemDropPer", "10", szTemp, 5, gDirPath.GetNewPath("commonserver.cfg"));	

  00273	68 00 00 00 00	 push	 OFFSET ??_C@_0BB@IGLHFEOF@commonserver?4cfg@
  00278	b9 00 00 00 00	 mov	 ecx, OFFSET ?gDirPath@@3VCDirPath@@A ; gDirPath
  0027d	e8 00 00 00 00	 call	 ?GetNewPath@CDirPath@@QAEPADPAD@Z ; CDirPath::GetNewPath
  00282	50		 push	 eax
  00283	6a 05		 push	 5
  00285	8d 85 fc fe ff
	ff		 lea	 eax, DWORD PTR _szTemp$[ebp]
  0028b	50		 push	 eax
  0028c	68 00 00 00 00	 push	 OFFSET ??_C@_02PKFBJPLJ@10@
  00291	68 00 00 00 00	 push	 OFFSET ??_C@_0M@LDLBHBAP@ItemDropPer@
  00296	68 00 00 00 00	 push	 OFFSET ??_C@_0P@EMJDPFDH@GameServerInfo@
  0029b	ff 15 00 00 00
	00		 call	 DWORD PTR __imp__GetPrivateProfileStringA@24

; 6537 : 			gItemDropPer = atoi(szTemp);

  002a1	8d 85 fc fe ff
	ff		 lea	 eax, DWORD PTR _szTemp$[ebp]
  002a7	50		 push	 eax
  002a8	e8 00 00 00 00	 call	 _atoi
  002ad	83 c4 04	 add	 esp, 4
  002b0	a3 00 00 00 00	 mov	 DWORD PTR ?gItemDropPer@@3HA, eax ; gItemDropPer

; 6538 : 
; 6539 : 			// 7 .   
; 6540 : #ifdef PERSONAL_SHOP_20040113			
; 6541 : 			gDoPShopOpen = GetPrivateProfileInt("GameServerInfo", "PersonalShopOpen", 0, gDirPath.GetNewPath("commonserver.cfg"));

  002b5	68 00 00 00 00	 push	 OFFSET ??_C@_0BB@IGLHFEOF@commonserver?4cfg@
  002ba	b9 00 00 00 00	 mov	 ecx, OFFSET ?gDirPath@@3VCDirPath@@A ; gDirPath
  002bf	e8 00 00 00 00	 call	 ?GetNewPath@CDirPath@@QAEPADPAD@Z ; CDirPath::GetNewPath
  002c4	50		 push	 eax
  002c5	6a 00		 push	 0
  002c7	68 00 00 00 00	 push	 OFFSET ??_C@_0BB@IPFJJFBE@PersonalShopOpen@
  002cc	68 00 00 00 00	 push	 OFFSET ??_C@_0P@EMJDPFDH@GameServerInfo@
  002d1	ff 15 00 00 00
	00		 call	 DWORD PTR __imp__GetPrivateProfileIntA@16
  002d7	a3 00 00 00 00	 mov	 DWORD PTR ?gDoPShopOpen@@3HA, eax ; gDoPShopOpen

; 6542 : #endif
; 6543 : 
; 6544 : 			// 8 .   
; 6545 : 			gAttackSpeedTimeLimit = GetPrivateProfileInt("GameServerInfo", "AttackSpeedTimeLimit", 800, gDirPath.GetNewPath("commonserver.cfg"));

  002dc	68 00 00 00 00	 push	 OFFSET ??_C@_0BB@IGLHFEOF@commonserver?4cfg@
  002e1	b9 00 00 00 00	 mov	 ecx, OFFSET ?gDirPath@@3VCDirPath@@A ; gDirPath
  002e6	e8 00 00 00 00	 call	 ?GetNewPath@CDirPath@@QAEPADPAD@Z ; CDirPath::GetNewPath
  002eb	50		 push	 eax
  002ec	68 20 03 00 00	 push	 800			; 00000320H
  002f1	68 00 00 00 00	 push	 OFFSET ??_C@_0BF@EDGAONAD@AttackSpeedTimeLimit@
  002f6	68 00 00 00 00	 push	 OFFSET ??_C@_0P@EMJDPFDH@GameServerInfo@
  002fb	ff 15 00 00 00
	00		 call	 DWORD PTR __imp__GetPrivateProfileIntA@16
  00301	a3 00 00 00 00	 mov	 DWORD PTR ?gAttackSpeedTimeLimit@@3KA, eax ; gAttackSpeedTimeLimit

; 6546 : 			bIsIgnorePacketSpeedHackDetect = GetPrivateProfileInt("GameServerInfo", "IsIgnorePacketHackDetect", 0, gDirPath.GetNewPath("commonserver.cfg"));		

  00306	68 00 00 00 00	 push	 OFFSET ??_C@_0BB@IGLHFEOF@commonserver?4cfg@
  0030b	b9 00 00 00 00	 mov	 ecx, OFFSET ?gDirPath@@3VCDirPath@@A ; gDirPath
  00310	e8 00 00 00 00	 call	 ?GetNewPath@CDirPath@@QAEPADPAD@Z ; CDirPath::GetNewPath
  00315	50		 push	 eax
  00316	6a 00		 push	 0
  00318	68 00 00 00 00	 push	 OFFSET ??_C@_0BJ@KEAABHOA@IsIgnorePacketHackDetect@
  0031d	68 00 00 00 00	 push	 OFFSET ??_C@_0P@EMJDPFDH@GameServerInfo@
  00322	ff 15 00 00 00
	00		 call	 DWORD PTR __imp__GetPrivateProfileIntA@16
  00328	a3 00 00 00 00	 mov	 DWORD PTR ?bIsIgnorePacketSpeedHackDetect@@3HA, eax ; bIsIgnorePacketSpeedHackDetect

; 6547 : 			gHackCheckCount = GetPrivateProfileInt("GameServerInfo", "HackCheckCount", 5.5, gDirPath.GetNewPath("commonserver.cfg"));	

  0032d	68 00 00 00 00	 push	 OFFSET ??_C@_0BB@IGLHFEOF@commonserver?4cfg@
  00332	b9 00 00 00 00	 mov	 ecx, OFFSET ?gDirPath@@3VCDirPath@@A ; gDirPath
  00337	e8 00 00 00 00	 call	 ?GetNewPath@CDirPath@@QAEPADPAD@Z ; CDirPath::GetNewPath
  0033c	50		 push	 eax
  0033d	6a 05		 push	 5
  0033f	68 00 00 00 00	 push	 OFFSET ??_C@_0P@FNJLIJMF@HackCheckCount@
  00344	68 00 00 00 00	 push	 OFFSET ??_C@_0P@EMJDPFDH@GameServerInfo@
  00349	ff 15 00 00 00
	00		 call	 DWORD PTR __imp__GetPrivateProfileIntA@16
  0034f	a3 00 00 00 00	 mov	 DWORD PTR ?gHackCheckCount@@3KA, eax ; gHackCheckCount

; 6548 : 			gMinimumAttackSpeedTime = GetPrivateProfileInt("GameServerInfo", "MinimumAttackSpeedTime", 200, gDirPath.GetNewPath("commonserver.cfg"));	

  00354	68 00 00 00 00	 push	 OFFSET ??_C@_0BB@IGLHFEOF@commonserver?4cfg@
  00359	b9 00 00 00 00	 mov	 ecx, OFFSET ?gDirPath@@3VCDirPath@@A ; gDirPath
  0035e	e8 00 00 00 00	 call	 ?GetNewPath@CDirPath@@QAEPADPAD@Z ; CDirPath::GetNewPath
  00363	50		 push	 eax
  00364	68 c8 00 00 00	 push	 200			; 000000c8H
  00369	68 00 00 00 00	 push	 OFFSET ??_C@_0BH@CLHIGLBH@MinimumAttackSpeedTime@
  0036e	68 00 00 00 00	 push	 OFFSET ??_C@_0P@EMJDPFDH@GameServerInfo@
  00373	ff 15 00 00 00
	00		 call	 DWORD PTR __imp__GetPrivateProfileIntA@16
  00379	a3 00 00 00 00	 mov	 DWORD PTR ?gMinimumAttackSpeedTime@@3HA, eax ; gMinimumAttackSpeedTime

; 6549 : 			gDetectedHackKickCount = GetPrivateProfileInt("GameServerInfo", "DetectedHackKickCount", 10, gDirPath.GetNewPath("commonserver.cfg"));	

  0037e	68 00 00 00 00	 push	 OFFSET ??_C@_0BB@IGLHFEOF@commonserver?4cfg@
  00383	b9 00 00 00 00	 mov	 ecx, OFFSET ?gDirPath@@3VCDirPath@@A ; gDirPath
  00388	e8 00 00 00 00	 call	 ?GetNewPath@CDirPath@@QAEPADPAD@Z ; CDirPath::GetNewPath
  0038d	50		 push	 eax
  0038e	6a 0a		 push	 10			; 0000000aH
  00390	68 00 00 00 00	 push	 OFFSET ??_C@_0BG@GBBHJJPD@DetectedHackKickCount@
  00395	68 00 00 00 00	 push	 OFFSET ??_C@_0P@EMJDPFDH@GameServerInfo@
  0039a	ff 15 00 00 00
	00		 call	 DWORD PTR __imp__GetPrivateProfileIntA@16
  003a0	a3 00 00 00 00	 mov	 DWORD PTR ?gDetectedHackKickCount@@3HA, eax ; gDetectedHackKickCount

; 6550 : 			gIsKickDetecHackCountLimit = GetPrivateProfileInt("GameServerInfo", "IsKickDetecHackCountLimit", 0, gDirPath.GetNewPath("commonserver.cfg"));	

  003a5	68 00 00 00 00	 push	 OFFSET ??_C@_0BB@IGLHFEOF@commonserver?4cfg@
  003aa	b9 00 00 00 00	 mov	 ecx, OFFSET ?gDirPath@@3VCDirPath@@A ; gDirPath
  003af	e8 00 00 00 00	 call	 ?GetNewPath@CDirPath@@QAEPADPAD@Z ; CDirPath::GetNewPath
  003b4	50		 push	 eax
  003b5	6a 00		 push	 0
  003b7	68 00 00 00 00	 push	 OFFSET ??_C@_0BK@JCJPKDIP@IsKickDetecHackCountLimit@
  003bc	68 00 00 00 00	 push	 OFFSET ??_C@_0P@EMJDPFDH@GameServerInfo@
  003c1	ff 15 00 00 00
	00		 call	 DWORD PTR __imp__GetPrivateProfileIntA@16
  003c7	a3 00 00 00 00	 mov	 DWORD PTR ?gIsKickDetecHackCountLimit@@3HA, eax ; gIsKickDetecHackCountLimit

; 6551 : #ifdef CHINA_HACKUSER_KICK_SYSTEM
; 6552 : 	ChinaHackLogFile.Output("[HLS] AttackSpeedTimeLimit = %d", gAttackSpeedTimeLimit);
; 6553 : 	ChinaHackLogFile.Output("[HLS] IsIgnorePacketHackDetect = %d", bIsIgnorePacketSpeedHackDetect);
; 6554 : 	ChinaHackLogFile.Output("[HLS] HackCheckCount = %d", gHackCheckCount);
; 6555 : 	ChinaHackLogFile.Output("[HLS] MinimumAttackSpeedTime = %d", gMinimumAttackSpeedTime);
; 6556 : 	ChinaHackLogFile.Output("[HLS] DetectedHackKickCount = %d", gDetectedHackKickCount);
; 6557 : 	ChinaHackLogFile.Output("[HLS] IsKickDetecHackCountLimit = %d", gIsKickDetecHackCountLimit);
; 6558 : 
; 6559 : 	ChinaHackLogFile.Output("[HLS] NotAttackAreaKickCount = %d", gNotAttackAreaKickCount);
; 6560 : 	ChinaHackLogFile.Output("[HLS] IsKickNotAttackAreaCountLimit = %d", gIsKickNotAttackAreaCountLimit);
; 6561 : 
; 6562 : 	ChinaHackLogFile.Output("[HLS] BlockHackUserCharacter = %d", gBlockHackUserCharacter);
; 6563 : 	ChinaHackLogFile.Output("[HLS] BlockHackUserAccount = %d", gBlockHackUserAccount);
; 6564 : #endif
; 6565 : 		}
; 6566 : 		break;

  003cc	e9 df 03 00 00	 jmp	 $LN1@ReadGameEt
$LN5@ReadGameEt:

; 6567 : 	case MU_ETC_CREATECHARACTER :		//  
; 6568 : 		{
; 6569 : 			GetPrivateProfileString("GameServerInfo", "CreateCharacter", "1", szTemp, 5, gDirPath.GetNewPath("commonserver.cfg"));

  003d1	68 00 00 00 00	 push	 OFFSET ??_C@_0BB@IGLHFEOF@commonserver?4cfg@
  003d6	b9 00 00 00 00	 mov	 ecx, OFFSET ?gDirPath@@3VCDirPath@@A ; gDirPath
  003db	e8 00 00 00 00	 call	 ?GetNewPath@CDirPath@@QAEPADPAD@Z ; CDirPath::GetNewPath
  003e0	50		 push	 eax
  003e1	6a 05		 push	 5
  003e3	8d 85 fc fe ff
	ff		 lea	 eax, DWORD PTR _szTemp$[ebp]
  003e9	50		 push	 eax
  003ea	68 00 00 00 00	 push	 OFFSET ??_C@_01HIHLOKLC@1@
  003ef	68 00 00 00 00	 push	 OFFSET ??_C@_0BA@DIAOPFNP@CreateCharacter@
  003f4	68 00 00 00 00	 push	 OFFSET ??_C@_0P@EMJDPFDH@GameServerInfo@
  003f9	ff 15 00 00 00
	00		 call	 DWORD PTR __imp__GetPrivateProfileStringA@24

; 6570 : 			gCreateCharacter = atoi(szTemp);

  003ff	8d 85 fc fe ff
	ff		 lea	 eax, DWORD PTR _szTemp$[ebp]
  00405	50		 push	 eax
  00406	e8 00 00 00 00	 call	 _atoi
  0040b	83 c4 04	 add	 esp, 4
  0040e	a3 00 00 00 00	 mov	 DWORD PTR ?gCreateCharacter@@3HA, eax ; gCreateCharacter

; 6571 : 		}
; 6572 : 		break;

  00413	e9 98 03 00 00	 jmp	 $LN1@ReadGameEt
$LN6@ReadGameEt:

; 6573 : 	case MU_ETC_GUILD :					//  
; 6574 : 		{
; 6575 : 			GetPrivateProfileString("GameServerInfo", "GuildCreate", "1", szTemp, 5, gDirPath.GetNewPath("commonserver.cfg"));

  00418	68 00 00 00 00	 push	 OFFSET ??_C@_0BB@IGLHFEOF@commonserver?4cfg@
  0041d	b9 00 00 00 00	 mov	 ecx, OFFSET ?gDirPath@@3VCDirPath@@A ; gDirPath
  00422	e8 00 00 00 00	 call	 ?GetNewPath@CDirPath@@QAEPADPAD@Z ; CDirPath::GetNewPath
  00427	50		 push	 eax
  00428	6a 05		 push	 5
  0042a	8d 85 fc fe ff
	ff		 lea	 eax, DWORD PTR _szTemp$[ebp]
  00430	50		 push	 eax
  00431	68 00 00 00 00	 push	 OFFSET ??_C@_01HIHLOKLC@1@
  00436	68 00 00 00 00	 push	 OFFSET ??_C@_0M@CGJDJOAO@GuildCreate@
  0043b	68 00 00 00 00	 push	 OFFSET ??_C@_0P@EMJDPFDH@GameServerInfo@
  00440	ff 15 00 00 00
	00		 call	 DWORD PTR __imp__GetPrivateProfileStringA@24

; 6576 : 			gGuildCreate = atoi(szTemp);

  00446	8d 85 fc fe ff
	ff		 lea	 eax, DWORD PTR _szTemp$[ebp]
  0044c	50		 push	 eax
  0044d	e8 00 00 00 00	 call	 _atoi
  00452	83 c4 04	 add	 esp, 4
  00455	a3 00 00 00 00	 mov	 DWORD PTR ?gGuildCreate@@3HA, eax ; gGuildCreate

; 6577 : 			LogAdd(lMsg.Get(569), gGuildCreate);

  0045a	a1 00 00 00 00	 mov	 eax, DWORD PTR ?gGuildCreate@@3HA ; gGuildCreate
  0045f	50		 push	 eax
  00460	68 39 02 00 00	 push	 569			; 00000239H
  00465	b9 00 00 00 00	 mov	 ecx, OFFSET ?lMsg@@3VCMsg@@A ; lMsg
  0046a	ff 15 00 00 00
	00		 call	 DWORD PTR __imp_?Get@CMsg@@QAEPADH@Z
  00470	50		 push	 eax
  00471	ff 15 00 00 00
	00		 call	 DWORD PTR ?LogAdd@@3P6AXPADZZA ; LogAdd
  00477	83 c4 08	 add	 esp, 8

; 6578 : 			GetPrivateProfileString("GameServerInfo", "GuildDestroy", "1", szTemp, 5, gDirPath.GetNewPath("commonserver.cfg"));

  0047a	68 00 00 00 00	 push	 OFFSET ??_C@_0BB@IGLHFEOF@commonserver?4cfg@
  0047f	b9 00 00 00 00	 mov	 ecx, OFFSET ?gDirPath@@3VCDirPath@@A ; gDirPath
  00484	e8 00 00 00 00	 call	 ?GetNewPath@CDirPath@@QAEPADPAD@Z ; CDirPath::GetNewPath
  00489	50		 push	 eax
  0048a	6a 05		 push	 5
  0048c	8d 85 fc fe ff
	ff		 lea	 eax, DWORD PTR _szTemp$[ebp]
  00492	50		 push	 eax
  00493	68 00 00 00 00	 push	 OFFSET ??_C@_01HIHLOKLC@1@
  00498	68 00 00 00 00	 push	 OFFSET ??_C@_0N@OEKMPEAB@GuildDestroy@
  0049d	68 00 00 00 00	 push	 OFFSET ??_C@_0P@EMJDPFDH@GameServerInfo@
  004a2	ff 15 00 00 00
	00		 call	 DWORD PTR __imp__GetPrivateProfileStringA@24

; 6579 : 			gGuildDestroy = atoi(szTemp);

  004a8	8d 85 fc fe ff
	ff		 lea	 eax, DWORD PTR _szTemp$[ebp]
  004ae	50		 push	 eax
  004af	e8 00 00 00 00	 call	 _atoi
  004b4	83 c4 04	 add	 esp, 4
  004b7	a3 00 00 00 00	 mov	 DWORD PTR ?gGuildDestroy@@3HA, eax ; gGuildDestroy

; 6580 : 			LogAdd(lMsg.Get(570), gGuildDestroy);		// "   %d"

  004bc	a1 00 00 00 00	 mov	 eax, DWORD PTR ?gGuildDestroy@@3HA ; gGuildDestroy
  004c1	50		 push	 eax
  004c2	68 3a 02 00 00	 push	 570			; 0000023aH
  004c7	b9 00 00 00 00	 mov	 ecx, OFFSET ?lMsg@@3VCMsg@@A ; lMsg
  004cc	ff 15 00 00 00
	00		 call	 DWORD PTR __imp_?Get@CMsg@@QAEPADH@Z
  004d2	50		 push	 eax
  004d3	ff 15 00 00 00
	00		 call	 DWORD PTR ?LogAdd@@3P6AXPADZZA ; LogAdd
  004d9	83 c4 08	 add	 esp, 8

; 6581 : 			GetPrivateProfileString("GameServerInfo", "GuildCreateLevel", "100", szTemp, 5, gDirPath.GetNewPath("commonserver.cfg"));

  004dc	68 00 00 00 00	 push	 OFFSET ??_C@_0BB@IGLHFEOF@commonserver?4cfg@
  004e1	b9 00 00 00 00	 mov	 ecx, OFFSET ?gDirPath@@3VCDirPath@@A ; gDirPath
  004e6	e8 00 00 00 00	 call	 ?GetNewPath@CDirPath@@QAEPADPAD@Z ; CDirPath::GetNewPath
  004eb	50		 push	 eax
  004ec	6a 05		 push	 5
  004ee	8d 85 fc fe ff
	ff		 lea	 eax, DWORD PTR _szTemp$[ebp]
  004f4	50		 push	 eax
  004f5	68 00 00 00 00	 push	 OFFSET ??_C@_03GNABGMEE@100@
  004fa	68 00 00 00 00	 push	 OFFSET ??_C@_0BB@DOGMENHB@GuildCreateLevel@
  004ff	68 00 00 00 00	 push	 OFFSET ??_C@_0P@EMJDPFDH@GameServerInfo@
  00504	ff 15 00 00 00
	00		 call	 DWORD PTR __imp__GetPrivateProfileStringA@24

; 6582 : 			gGuildCreateLevel = atoi(szTemp);

  0050a	8d 85 fc fe ff
	ff		 lea	 eax, DWORD PTR _szTemp$[ebp]
  00510	50		 push	 eax
  00511	e8 00 00 00 00	 call	 _atoi
  00516	83 c4 04	 add	 esp, 4
  00519	a3 00 00 00 00	 mov	 DWORD PTR ?gGuildCreateLevel@@3HA, eax ; gGuildCreateLevel

; 6583 : 			LogAdd(lMsg.Get(571), gGuildCreateLevel);	//    %d

  0051e	a1 00 00 00 00	 mov	 eax, DWORD PTR ?gGuildCreateLevel@@3HA ; gGuildCreateLevel
  00523	50		 push	 eax
  00524	68 3b 02 00 00	 push	 571			; 0000023bH
  00529	b9 00 00 00 00	 mov	 ecx, OFFSET ?lMsg@@3VCMsg@@A ; lMsg
  0052e	ff 15 00 00 00
	00		 call	 DWORD PTR __imp_?Get@CMsg@@QAEPADH@Z
  00534	50		 push	 eax
  00535	ff 15 00 00 00
	00		 call	 DWORD PTR ?LogAdd@@3P6AXPADZZA ; LogAdd
  0053b	83 c4 08	 add	 esp, 8

; 6584 : 
; 6585 : #ifdef MODIFY_CASTLE_OWNER_GUILD_DESTROY_LIMIT_20060418
; 6586 : 			//   
; 6587 : 			g_bCastleGuildDestoyLimit	= GetPrivateProfileInt( "GameServerInfo", "CastleOwnerGuildDestroyLimit", 1, gDirPath.GetNewPath("commonserver.cfg"));

  0053e	68 00 00 00 00	 push	 OFFSET ??_C@_0BB@IGLHFEOF@commonserver?4cfg@
  00543	b9 00 00 00 00	 mov	 ecx, OFFSET ?gDirPath@@3VCDirPath@@A ; gDirPath
  00548	e8 00 00 00 00	 call	 ?GetNewPath@CDirPath@@QAEPADPAD@Z ; CDirPath::GetNewPath
  0054d	50		 push	 eax
  0054e	6a 01		 push	 1
  00550	68 00 00 00 00	 push	 OFFSET ??_C@_0BN@IDOOLGAL@CastleOwnerGuildDestroyLimit@
  00555	68 00 00 00 00	 push	 OFFSET ??_C@_0P@EMJDPFDH@GameServerInfo@
  0055a	ff 15 00 00 00
	00		 call	 DWORD PTR __imp__GetPrivateProfileIntA@16
  00560	a3 00 00 00 00	 mov	 DWORD PTR ?g_bCastleGuildDestoyLimit@@3HA, eax ; g_bCastleGuildDestoyLimit

; 6588 : #endif
; 6589 : 		}
; 6590 : 		break;

  00565	e9 46 02 00 00	 jmp	 $LN1@ReadGameEt
$LN7@ReadGameEt:

; 6591 : 	case MU_ETC_TRADE :					// 
; 6592 : 		{
; 6593 : 			GetPrivateProfileString("GameServerInfo", "Trade", "1", szTemp, 5, gDirPath.GetNewPath("commonserver.cfg"));

  0056a	68 00 00 00 00	 push	 OFFSET ??_C@_0BB@IGLHFEOF@commonserver?4cfg@
  0056f	b9 00 00 00 00	 mov	 ecx, OFFSET ?gDirPath@@3VCDirPath@@A ; gDirPath
  00574	e8 00 00 00 00	 call	 ?GetNewPath@CDirPath@@QAEPADPAD@Z ; CDirPath::GetNewPath
  00579	50		 push	 eax
  0057a	6a 05		 push	 5
  0057c	8d 85 fc fe ff
	ff		 lea	 eax, DWORD PTR _szTemp$[ebp]
  00582	50		 push	 eax
  00583	68 00 00 00 00	 push	 OFFSET ??_C@_01HIHLOKLC@1@
  00588	68 00 00 00 00	 push	 OFFSET ??_C@_05IOPOMLGK@Trade@
  0058d	68 00 00 00 00	 push	 OFFSET ??_C@_0P@EMJDPFDH@GameServerInfo@
  00592	ff 15 00 00 00
	00		 call	 DWORD PTR __imp__GetPrivateProfileStringA@24

; 6594 : 			bCanTrade				= atoi(szTemp);

  00598	8d 85 fc fe ff
	ff		 lea	 eax, DWORD PTR _szTemp$[ebp]
  0059e	50		 push	 eax
  0059f	e8 00 00 00 00	 call	 _atoi
  005a4	83 c4 04	 add	 esp, 4
  005a7	a3 00 00 00 00	 mov	 DWORD PTR ?bCanTrade@@3HA, eax ; bCanTrade

; 6595 : 		}
; 6596 : 		break;

  005ac	e9 ff 01 00 00	 jmp	 $LN1@ReadGameEt
$LN8@ReadGameEt:

; 6597 : 	case MU_ETC_USECHAOSBOX :			//  
; 6598 : 		{
; 6599 : 			bCanChaosBox = GetPrivateProfileInt("GameServerInfo", "ChaosBox", 0, gDirPath.GetNewPath("commonserver.cfg"));

  005b1	68 00 00 00 00	 push	 OFFSET ??_C@_0BB@IGLHFEOF@commonserver?4cfg@
  005b6	b9 00 00 00 00	 mov	 ecx, OFFSET ?gDirPath@@3VCDirPath@@A ; gDirPath
  005bb	e8 00 00 00 00	 call	 ?GetNewPath@CDirPath@@QAEPADPAD@Z ; CDirPath::GetNewPath
  005c0	50		 push	 eax
  005c1	6a 00		 push	 0
  005c3	68 00 00 00 00	 push	 OFFSET ??_C@_08CIGOAAJ@ChaosBox@
  005c8	68 00 00 00 00	 push	 OFFSET ??_C@_0P@EMJDPFDH@GameServerInfo@
  005cd	ff 15 00 00 00
	00		 call	 DWORD PTR __imp__GetPrivateProfileIntA@16
  005d3	a3 00 00 00 00	 mov	 DWORD PTR ?bCanChaosBox@@3HA, eax ; bCanChaosBox

; 6600 : 		}
; 6601 : 		break;

  005d8	e9 d3 01 00 00	 jmp	 $LN1@ReadGameEt
$LN9@ReadGameEt:

; 6602 : 	case MU_ETC_PERSONALSHOP :			// 
; 6603 : 		{
; 6604 : #ifdef PERSONAL_SHOP_20040113			
; 6605 : 			gDoPShopOpen = GetPrivateProfileInt("GameServerInfo", "PersonalShopOpen", 0, gDirPath.GetNewPath("commonserver.cfg"));

  005dd	68 00 00 00 00	 push	 OFFSET ??_C@_0BB@IGLHFEOF@commonserver?4cfg@
  005e2	b9 00 00 00 00	 mov	 ecx, OFFSET ?gDirPath@@3VCDirPath@@A ; gDirPath
  005e7	e8 00 00 00 00	 call	 ?GetNewPath@CDirPath@@QAEPADPAD@Z ; CDirPath::GetNewPath
  005ec	50		 push	 eax
  005ed	6a 00		 push	 0
  005ef	68 00 00 00 00	 push	 OFFSET ??_C@_0BB@IPFJJFBE@PersonalShopOpen@
  005f4	68 00 00 00 00	 push	 OFFSET ??_C@_0P@EMJDPFDH@GameServerInfo@
  005f9	ff 15 00 00 00
	00		 call	 DWORD PTR __imp__GetPrivateProfileIntA@16
  005ff	a3 00 00 00 00	 mov	 DWORD PTR ?gDoPShopOpen@@3HA, eax ; gDoPShopOpen

; 6606 : #endif
; 6607 : 		}
; 6608 : 		break;

  00604	e9 a7 01 00 00	 jmp	 $LN1@ReadGameEt
$LN10@ReadGameEt:

; 6609 : 	case MU_ETC_PKITEMDROP :			// PK  
; 6610 : 		{
; 6611 : 			GetPrivateProfileString("GameServerInfo", "PKItemDrop", "1", szTemp, 5, gDirPath.GetNewPath("commonserver.cfg"));	

  00609	68 00 00 00 00	 push	 OFFSET ??_C@_0BB@IGLHFEOF@commonserver?4cfg@
  0060e	b9 00 00 00 00	 mov	 ecx, OFFSET ?gDirPath@@3VCDirPath@@A ; gDirPath
  00613	e8 00 00 00 00	 call	 ?GetNewPath@CDirPath@@QAEPADPAD@Z ; CDirPath::GetNewPath
  00618	50		 push	 eax
  00619	6a 05		 push	 5
  0061b	8d 85 fc fe ff
	ff		 lea	 eax, DWORD PTR _szTemp$[ebp]
  00621	50		 push	 eax
  00622	68 00 00 00 00	 push	 OFFSET ??_C@_01HIHLOKLC@1@
  00627	68 00 00 00 00	 push	 OFFSET ??_C@_0L@LNKCFJOF@PKItemDrop@
  0062c	68 00 00 00 00	 push	 OFFSET ??_C@_0P@EMJDPFDH@GameServerInfo@
  00631	ff 15 00 00 00
	00		 call	 DWORD PTR __imp__GetPrivateProfileStringA@24

; 6612 : 			gPkItemDrop  = atoi(szTemp);

  00637	8d 85 fc fe ff
	ff		 lea	 eax, DWORD PTR _szTemp$[ebp]
  0063d	50		 push	 eax
  0063e	e8 00 00 00 00	 call	 _atoi
  00643	83 c4 04	 add	 esp, 4
  00646	a3 00 00 00 00	 mov	 DWORD PTR ?gPkItemDrop@@3HA, eax ; gPkItemDrop

; 6613 : 		}
; 6614 : 		break;

  0064b	e9 60 01 00 00	 jmp	 $LN1@ReadGameEt
$LN11@ReadGameEt:

; 6615 : 	case MU_ETC_ITEMDROPRATE :			//  
; 6616 : 		{
; 6617 : 			GetPrivateProfileString("GameServerInfo", "ItemDropPer", "10", szTemp, 5, gDirPath.GetNewPath("commonserver.cfg"));	

  00650	68 00 00 00 00	 push	 OFFSET ??_C@_0BB@IGLHFEOF@commonserver?4cfg@
  00655	b9 00 00 00 00	 mov	 ecx, OFFSET ?gDirPath@@3VCDirPath@@A ; gDirPath
  0065a	e8 00 00 00 00	 call	 ?GetNewPath@CDirPath@@QAEPADPAD@Z ; CDirPath::GetNewPath
  0065f	50		 push	 eax
  00660	6a 05		 push	 5
  00662	8d 85 fc fe ff
	ff		 lea	 eax, DWORD PTR _szTemp$[ebp]
  00668	50		 push	 eax
  00669	68 00 00 00 00	 push	 OFFSET ??_C@_02PKFBJPLJ@10@
  0066e	68 00 00 00 00	 push	 OFFSET ??_C@_0M@LDLBHBAP@ItemDropPer@
  00673	68 00 00 00 00	 push	 OFFSET ??_C@_0P@EMJDPFDH@GameServerInfo@
  00678	ff 15 00 00 00
	00		 call	 DWORD PTR __imp__GetPrivateProfileStringA@24

; 6618 : 			gItemDropPer = atoi(szTemp);

  0067e	8d 85 fc fe ff
	ff		 lea	 eax, DWORD PTR _szTemp$[ebp]
  00684	50		 push	 eax
  00685	e8 00 00 00 00	 call	 _atoi
  0068a	83 c4 04	 add	 esp, 4
  0068d	a3 00 00 00 00	 mov	 DWORD PTR ?gItemDropPer@@3HA, eax ; gItemDropPer

; 6619 : 		}
; 6620 : 		break;

  00692	e9 19 01 00 00	 jmp	 $LN1@ReadGameEt
$LN12@ReadGameEt:

; 6621 : 	case MU_ETC_SPEEDHACK :				// 
; 6622 : 		{
; 6623 : 			gAttackSpeedTimeLimit = GetPrivateProfileInt("GameServerInfo", "AttackSpeedTimeLimit", 800, gDirPath.GetNewPath("commonserver.cfg"));

  00697	68 00 00 00 00	 push	 OFFSET ??_C@_0BB@IGLHFEOF@commonserver?4cfg@
  0069c	b9 00 00 00 00	 mov	 ecx, OFFSET ?gDirPath@@3VCDirPath@@A ; gDirPath
  006a1	e8 00 00 00 00	 call	 ?GetNewPath@CDirPath@@QAEPADPAD@Z ; CDirPath::GetNewPath
  006a6	50		 push	 eax
  006a7	68 20 03 00 00	 push	 800			; 00000320H
  006ac	68 00 00 00 00	 push	 OFFSET ??_C@_0BF@EDGAONAD@AttackSpeedTimeLimit@
  006b1	68 00 00 00 00	 push	 OFFSET ??_C@_0P@EMJDPFDH@GameServerInfo@
  006b6	ff 15 00 00 00
	00		 call	 DWORD PTR __imp__GetPrivateProfileIntA@16
  006bc	a3 00 00 00 00	 mov	 DWORD PTR ?gAttackSpeedTimeLimit@@3KA, eax ; gAttackSpeedTimeLimit

; 6624 : 			bIsIgnorePacketSpeedHackDetect = GetPrivateProfileInt("GameServerInfo", "IsIgnorePacketHackDetect", 0, gDirPath.GetNewPath("commonserver.cfg"));		

  006c1	68 00 00 00 00	 push	 OFFSET ??_C@_0BB@IGLHFEOF@commonserver?4cfg@
  006c6	b9 00 00 00 00	 mov	 ecx, OFFSET ?gDirPath@@3VCDirPath@@A ; gDirPath
  006cb	e8 00 00 00 00	 call	 ?GetNewPath@CDirPath@@QAEPADPAD@Z ; CDirPath::GetNewPath
  006d0	50		 push	 eax
  006d1	6a 00		 push	 0
  006d3	68 00 00 00 00	 push	 OFFSET ??_C@_0BJ@KEAABHOA@IsIgnorePacketHackDetect@
  006d8	68 00 00 00 00	 push	 OFFSET ??_C@_0P@EMJDPFDH@GameServerInfo@
  006dd	ff 15 00 00 00
	00		 call	 DWORD PTR __imp__GetPrivateProfileIntA@16
  006e3	a3 00 00 00 00	 mov	 DWORD PTR ?bIsIgnorePacketSpeedHackDetect@@3HA, eax ; bIsIgnorePacketSpeedHackDetect

; 6625 : 			gHackCheckCount = GetPrivateProfileInt("GameServerInfo", "HackCheckCount", 5.5, gDirPath.GetNewPath("commonserver.cfg"));	

  006e8	68 00 00 00 00	 push	 OFFSET ??_C@_0BB@IGLHFEOF@commonserver?4cfg@
  006ed	b9 00 00 00 00	 mov	 ecx, OFFSET ?gDirPath@@3VCDirPath@@A ; gDirPath
  006f2	e8 00 00 00 00	 call	 ?GetNewPath@CDirPath@@QAEPADPAD@Z ; CDirPath::GetNewPath
  006f7	50		 push	 eax
  006f8	6a 05		 push	 5
  006fa	68 00 00 00 00	 push	 OFFSET ??_C@_0P@FNJLIJMF@HackCheckCount@
  006ff	68 00 00 00 00	 push	 OFFSET ??_C@_0P@EMJDPFDH@GameServerInfo@
  00704	ff 15 00 00 00
	00		 call	 DWORD PTR __imp__GetPrivateProfileIntA@16
  0070a	a3 00 00 00 00	 mov	 DWORD PTR ?gHackCheckCount@@3KA, eax ; gHackCheckCount

; 6626 : 			gMinimumAttackSpeedTime = GetPrivateProfileInt("GameServerInfo", "MinimumAttackSpeedTime", 200, gDirPath.GetNewPath("commonserver.cfg"));	

  0070f	68 00 00 00 00	 push	 OFFSET ??_C@_0BB@IGLHFEOF@commonserver?4cfg@
  00714	b9 00 00 00 00	 mov	 ecx, OFFSET ?gDirPath@@3VCDirPath@@A ; gDirPath
  00719	e8 00 00 00 00	 call	 ?GetNewPath@CDirPath@@QAEPADPAD@Z ; CDirPath::GetNewPath
  0071e	50		 push	 eax
  0071f	68 c8 00 00 00	 push	 200			; 000000c8H
  00724	68 00 00 00 00	 push	 OFFSET ??_C@_0BH@CLHIGLBH@MinimumAttackSpeedTime@
  00729	68 00 00 00 00	 push	 OFFSET ??_C@_0P@EMJDPFDH@GameServerInfo@
  0072e	ff 15 00 00 00
	00		 call	 DWORD PTR __imp__GetPrivateProfileIntA@16
  00734	a3 00 00 00 00	 mov	 DWORD PTR ?gMinimumAttackSpeedTime@@3HA, eax ; gMinimumAttackSpeedTime

; 6627 : 			gDetectedHackKickCount = GetPrivateProfileInt("GameServerInfo", "DetectedHackKickCount", 10, gDirPath.GetNewPath("commonserver.cfg"));	

  00739	68 00 00 00 00	 push	 OFFSET ??_C@_0BB@IGLHFEOF@commonserver?4cfg@
  0073e	b9 00 00 00 00	 mov	 ecx, OFFSET ?gDirPath@@3VCDirPath@@A ; gDirPath
  00743	e8 00 00 00 00	 call	 ?GetNewPath@CDirPath@@QAEPADPAD@Z ; CDirPath::GetNewPath
  00748	50		 push	 eax
  00749	6a 0a		 push	 10			; 0000000aH
  0074b	68 00 00 00 00	 push	 OFFSET ??_C@_0BG@GBBHJJPD@DetectedHackKickCount@
  00750	68 00 00 00 00	 push	 OFFSET ??_C@_0P@EMJDPFDH@GameServerInfo@
  00755	ff 15 00 00 00
	00		 call	 DWORD PTR __imp__GetPrivateProfileIntA@16
  0075b	a3 00 00 00 00	 mov	 DWORD PTR ?gDetectedHackKickCount@@3HA, eax ; gDetectedHackKickCount

; 6628 : 			gIsKickDetecHackCountLimit = GetPrivateProfileInt("GameServerInfo", "IsKickDetecHackCountLimit", 0, gDirPath.GetNewPath("commonserver.cfg"));	

  00760	68 00 00 00 00	 push	 OFFSET ??_C@_0BB@IGLHFEOF@commonserver?4cfg@
  00765	b9 00 00 00 00	 mov	 ecx, OFFSET ?gDirPath@@3VCDirPath@@A ; gDirPath
  0076a	e8 00 00 00 00	 call	 ?GetNewPath@CDirPath@@QAEPADPAD@Z ; CDirPath::GetNewPath
  0076f	50		 push	 eax
  00770	6a 00		 push	 0
  00772	68 00 00 00 00	 push	 OFFSET ??_C@_0BK@JCJPKDIP@IsKickDetecHackCountLimit@
  00777	68 00 00 00 00	 push	 OFFSET ??_C@_0P@EMJDPFDH@GameServerInfo@
  0077c	ff 15 00 00 00
	00		 call	 DWORD PTR __imp__GetPrivateProfileIntA@16
  00782	a3 00 00 00 00	 mov	 DWORD PTR ?gIsKickDetecHackCountLimit@@3HA, eax ; gIsKickDetecHackCountLimit

; 6629 : 
; 6630 : #ifdef CHINA_HACKUSER_KICK_SYSTEM
; 6631 : 	ChinaHackLogFile.Output("[HLS] AttackSpeedTimeLimit = %d", gAttackSpeedTimeLimit);
; 6632 : 	ChinaHackLogFile.Output("[HLS] IsIgnorePacketHackDetect = %d", bIsIgnorePacketSpeedHackDetect);
; 6633 : 	ChinaHackLogFile.Output("[HLS] HackCheckCount = %d", gHackCheckCount);
; 6634 : 	ChinaHackLogFile.Output("[HLS] MinimumAttackSpeedTime = %d", gMinimumAttackSpeedTime);
; 6635 : 	ChinaHackLogFile.Output("[HLS] DetectedHackKickCount = %d", gDetectedHackKickCount);
; 6636 : 	ChinaHackLogFile.Output("[HLS] IsKickDetecHackCountLimit = %d", gIsKickDetecHackCountLimit);
; 6637 : 
; 6638 : 	ChinaHackLogFile.Output("[HLS] NotAttackAreaKickCount = %d", gNotAttackAreaKickCount);
; 6639 : 	ChinaHackLogFile.Output("[HLS] IsKickNotAttackAreaCountLimit = %d", gIsKickNotAttackAreaCountLimit);
; 6640 : 
; 6641 : 	ChinaHackLogFile.Output("[HLS] BlockHackUserCharacter = %d", gBlockHackUserCharacter);
; 6642 : 	ChinaHackLogFile.Output("[HLS] BlockHackUserAccount = %d", gBlockHackUserAccount);
; 6643 : #endif
; 6644 : 		}
; 6645 : 		break;

  00787	eb 27		 jmp	 SHORT $LN1@ReadGameEt
$LN13@ReadGameEt:

; 6646 : 	case MU_ETC_GAMEGUARD :				//   
; 6647 : 		{
; 6648 : 			gUseNPGGChecksum = GetPrivateProfileInt("GameServerInfo", "UseNPGGChecksum", 0, gDirPath.GetNewPath("commonserver.cfg"));

  00789	68 00 00 00 00	 push	 OFFSET ??_C@_0BB@IGLHFEOF@commonserver?4cfg@
  0078e	b9 00 00 00 00	 mov	 ecx, OFFSET ?gDirPath@@3VCDirPath@@A ; gDirPath
  00793	e8 00 00 00 00	 call	 ?GetNewPath@CDirPath@@QAEPADPAD@Z ; CDirPath::GetNewPath
  00798	50		 push	 eax
  00799	6a 00		 push	 0
  0079b	68 00 00 00 00	 push	 OFFSET ??_C@_0BA@OAOAELOO@UseNPGGChecksum@
  007a0	68 00 00 00 00	 push	 OFFSET ??_C@_0P@EMJDPFDH@GameServerInfo@
  007a5	ff 15 00 00 00
	00		 call	 DWORD PTR __imp__GetPrivateProfileIntA@16
  007ab	a3 00 00 00 00	 mov	 DWORD PTR ?gUseNPGGChecksum@@3HA, eax ; gUseNPGGChecksum
$LN1@ReadGameEt:

; 6649 : 		}
; 6650 : 		break;
; 6651 : 	}
; 6652 : 
; 6653 : }

  007b0	5f		 pop	 edi
  007b1	5e		 pop	 esi
  007b2	5b		 pop	 ebx
  007b3	8b 4d fc	 mov	 ecx, DWORD PTR __$ArrayPad$[ebp]
  007b6	33 cd		 xor	 ecx, ebp
  007b8	e8 00 00 00 00	 call	 @__security_check_cookie@4
  007bd	8b e5		 mov	 esp, ebp
  007bf	5d		 pop	 ebp
  007c0	c3		 ret	 0
  007c1	0f 1f 00	 npad	 3
$LN15@ReadGameEt:
  007c4	00 00 00 00	 DD	 $LN4@ReadGameEt
  007c8	00 00 00 00	 DD	 $LN5@ReadGameEt
  007cc	00 00 00 00	 DD	 $LN6@ReadGameEt
  007d0	00 00 00 00	 DD	 $LN7@ReadGameEt
  007d4	00 00 00 00	 DD	 $LN8@ReadGameEt
  007d8	00 00 00 00	 DD	 $LN9@ReadGameEt
  007dc	00 00 00 00	 DD	 $LN10@ReadGameEt
  007e0	00 00 00 00	 DD	 $LN11@ReadGameEt
  007e4	00 00 00 00	 DD	 $LN12@ReadGameEt
  007e8	00 00 00 00	 DD	 $LN13@ReadGameEt
?ReadGameEtcInfo@@YAXW4MU_ETC_TYPE@@@Z ENDP		; ReadGameEtcInfo
_TEXT	ENDS
; Function compile flags: /Odtp /ZI
; File C:\Mu Online\Mu-GS-Webzen-MC-10093\GameServer\Gamemain.cpp
;	COMDAT ?GameServerInfoSendStart@@YAXXZ
_TEXT	SEGMENT
?GameServerInfoSendStart@@YAXXZ PROC			; GameServerInfoSendStart, COMDAT

; 4572 : {

  00000	55		 push	 ebp
  00001	8b ec		 mov	 ebp, esp
  00003	83 ec 40	 sub	 esp, 64			; 00000040H
  00006	53		 push	 ebx
  00007	56		 push	 esi
  00008	57		 push	 edi

; 4573 : 	GSInfoSendFlag = 1;

  00009	c7 05 00 00 00
	00 01 00 00 00	 mov	 DWORD PTR ?GSInfoSendFlag@@3HA, 1 ; GSInfoSendFlag

; 4574 : }

  00013	5f		 pop	 edi
  00014	5e		 pop	 esi
  00015	5b		 pop	 ebx
  00016	8b e5		 mov	 esp, ebp
  00018	5d		 pop	 ebp
  00019	c3		 ret	 0
?GameServerInfoSendStart@@YAXXZ ENDP			; GameServerInfoSendStart
_TEXT	ENDS
; Function compile flags: /Odtp /ZI
; File C:\Mu Online\Mu-GS-Webzen-MC-10093\GameServer\Gamemain.cpp
;	COMDAT ?GameServerInfoSendStop@@YAXXZ
_TEXT	SEGMENT
?GameServerInfoSendStop@@YAXXZ PROC			; GameServerInfoSendStop, COMDAT

; 4567 : {

  00000	55		 push	 ebp
  00001	8b ec		 mov	 ebp, esp
  00003	83 ec 40	 sub	 esp, 64			; 00000040H
  00006	53		 push	 ebx
  00007	56		 push	 esi
  00008	57		 push	 edi

; 4568 : 	GSInfoSendFlag = 0;	

  00009	c7 05 00 00 00
	00 00 00 00 00	 mov	 DWORD PTR ?GSInfoSendFlag@@3HA, 0 ; GSInfoSendFlag

; 4569 : }

  00013	5f		 pop	 edi
  00014	5e		 pop	 esi
  00015	5b		 pop	 ebx
  00016	8b e5		 mov	 esp, ebp
  00018	5d		 pop	 ebp
  00019	c3		 ret	 0
?GameServerInfoSendStop@@YAXXZ ENDP			; GameServerInfoSendStop
_TEXT	ENDS
; Function compile flags: /Odtp /ZI
; File C:\Mu Online\Mu-GS-Webzen-MC-10093\GameServer\Gamemain.cpp
;	COMDAT ?GetWarehouseUsedHowMuch@@YAHHH@Z
_TEXT	SEGMENT
_rZen$ = -4						; size = 4
_UserLevel$ = 8						; size = 4
_IsLock$ = 12						; size = 4
?GetWarehouseUsedHowMuch@@YAHHH@Z PROC			; GetWarehouseUsedHowMuch, COMDAT

; 1947 : {

  00000	55		 push	 ebp
  00001	8b ec		 mov	 ebp, esp
  00003	83 ec 44	 sub	 esp, 68			; 00000044H
  00006	53		 push	 ebx
  00007	56		 push	 esi
  00008	57		 push	 edi

; 1948 : 	int  rZen=0;

  00009	c7 45 fc 00 00
	00 00		 mov	 DWORD PTR _rZen$[ebp], 0

; 1949 : 
; 1950 : #ifdef MASTER_LEVEL_UP_SYSTEM_20070912		//  -   
; 1951 : 	int iTotalLevel = UserLevel + UserMasterLevel;
; 1952 : 	rZen = iTotalLevel * iTotalLevel * 0.1 * 0.4 ;
; 1953 : #else
; 1954 : 	rZen = UserLevel*UserLevel*0.1*0.4;

  00010	8b 45 08	 mov	 eax, DWORD PTR _UserLevel$[ebp]
  00013	0f af 45 08	 imul	 eax, DWORD PTR _UserLevel$[ebp]
  00017	f2 0f 2a c0	 cvtsi2sd xmm0, eax
  0001b	f2 0f 59 05 00
	00 00 00	 mulsd	 xmm0, QWORD PTR __real@3fb999999999999a
  00023	f2 0f 59 05 00
	00 00 00	 mulsd	 xmm0, QWORD PTR __real@3fd999999999999a
  0002b	f2 0f 2c c8	 cvttsd2si ecx, xmm0
  0002f	89 4d fc	 mov	 DWORD PTR _rZen$[ebp], ecx

; 1955 : #endif
; 1956 : 
; 1957 : 	if( bCanWarehouseLock == TRUE )

  00032	83 3d 00 00 00
	00 01		 cmp	 DWORD PTR ?bCanWarehouseLock@@3HA, 1 ; bCanWarehouseLock
  00039	75 12		 jne	 SHORT $LN3@GetWarehou

; 1958 : 	{
; 1959 : 		if( IsLock )

  0003b	83 7d 0c 00	 cmp	 DWORD PTR _IsLock$[ebp], 0
  0003f	74 0c		 je	 SHORT $LN3@GetWarehou

; 1960 : 		{	//    level*2  
; 1961 : 			rZen += UserLevel*2;

  00041	8b 45 08	 mov	 eax, DWORD PTR _UserLevel$[ebp]
  00044	8b 4d fc	 mov	 ecx, DWORD PTR _rZen$[ebp]
  00047	8d 14 41	 lea	 edx, DWORD PTR [ecx+eax*2]
  0004a	89 55 fc	 mov	 DWORD PTR _rZen$[ebp], edx
$LN3@GetWarehou:

; 1962 : 		}
; 1963 : 	}
; 1964 : 
; 1965 : 	if( rZen < 1 ) rZen = 1;

  0004d	83 7d fc 01	 cmp	 DWORD PTR _rZen$[ebp], 1
  00051	7d 07		 jge	 SHORT $LN4@GetWarehou
  00053	c7 45 fc 01 00
	00 00		 mov	 DWORD PTR _rZen$[ebp], 1
$LN4@GetWarehou:

; 1966 : 
; 1967 : 	if( rZen >= 1000 )

  0005a	81 7d fc e8 03
	00 00		 cmp	 DWORD PTR _rZen$[ebp], 1000 ; 000003e8H
  00061	7c 13		 jl	 SHORT $LN5@GetWarehou

; 1968 : 	{
; 1969 : 		rZen = rZen/100*100;

  00063	8b 45 fc	 mov	 eax, DWORD PTR _rZen$[ebp]
  00066	99		 cdq
  00067	b9 64 00 00 00	 mov	 ecx, 100		; 00000064H
  0006c	f7 f9		 idiv	 ecx
  0006e	6b d0 64	 imul	 edx, eax, 100
  00071	89 55 fc	 mov	 DWORD PTR _rZen$[ebp], edx

; 1970 : 	}

  00074	eb 17		 jmp	 SHORT $LN7@GetWarehou
$LN5@GetWarehou:

; 1971 : 	else if( rZen >= 100 )

  00076	83 7d fc 64	 cmp	 DWORD PTR _rZen$[ebp], 100 ; 00000064H
  0007a	7c 11		 jl	 SHORT $LN7@GetWarehou

; 1972 : 	{
; 1973 : 		rZen = rZen/10*10;

  0007c	8b 45 fc	 mov	 eax, DWORD PTR _rZen$[ebp]
  0007f	99		 cdq
  00080	b9 0a 00 00 00	 mov	 ecx, 10			; 0000000aH
  00085	f7 f9		 idiv	 ecx
  00087	6b d0 0a	 imul	 edx, eax, 10
  0008a	89 55 fc	 mov	 DWORD PTR _rZen$[ebp], edx
$LN7@GetWarehou:

; 1974 : 	}
; 1975 : 
; 1976 : 	if( rZen == 0 )

  0008d	83 7d fc 00	 cmp	 DWORD PTR _rZen$[ebp], 0
  00091	75 07		 jne	 SHORT $LN8@GetWarehou

; 1977 : 		rZen = 1;

  00093	c7 45 fc 01 00
	00 00		 mov	 DWORD PTR _rZen$[ebp], 1
$LN8@GetWarehou:

; 1978 : 	
; 1979 : 	return rZen;

  0009a	8b 45 fc	 mov	 eax, DWORD PTR _rZen$[ebp]

; 1980 : }

  0009d	5f		 pop	 edi
  0009e	5e		 pop	 esi
  0009f	5b		 pop	 ebx
  000a0	8b e5		 mov	 esp, ebp
  000a2	5d		 pop	 ebp
  000a3	c3		 ret	 0
?GetWarehouseUsedHowMuch@@YAHHH@Z ENDP			; GetWarehouseUsedHowMuch
_TEXT	ENDS
; Function compile flags: /Odtp /ZI
; File C:\Mu Online\Mu-GS-Webzen-MC-10093\GameServer\Gamemain.cpp
;	COMDAT ?gJoominCheck@@YAHPADH@Z
_TEXT	SEGMENT
_szTyear$ = -8						; size = 3
_tyear$ = -4						; size = 4
_szJN$ = 8						; size = 4
_iLimitAge$ = 12					; size = 4
?gJoominCheck@@YAHPADH@Z PROC				; gJoominCheck, COMDAT

; 1485 : {

  00000	55		 push	 ebp
  00001	8b ec		 mov	 ebp, esp
  00003	83 ec 48	 sub	 esp, 72			; 00000048H
  00006	53		 push	 ebx
  00007	56		 push	 esi
  00008	57		 push	 edi

; 1486 : 	if (iLimitAge < 0)

  00009	83 7d 0c 00	 cmp	 DWORD PTR _iLimitAge$[ebp], 0
  0000d	7d 07		 jge	 SHORT $LN2@gJoominChe

; 1487 : 		return TRUE;

  0000f	b8 01 00 00 00	 mov	 eax, 1
  00014	eb 7e		 jmp	 SHORT $LN1@gJoominChe
$LN2@gJoominChe:

; 1488 : 
; 1489 : 	int  tyear=1900;

  00016	c7 45 fc 6c 07
	00 00		 mov	 DWORD PTR _tyear$[ebp], 1900 ; 0000076cH

; 1490 : 	char szTyear[3]="";

  0001d	a0 00 00 00 00	 mov	 al, BYTE PTR ??_C@_00CNPNBAHC@@
  00022	88 45 f8	 mov	 BYTE PTR _szTyear$[ebp], al
  00025	33 c0		 xor	 eax, eax
  00027	66 89 45 f9	 mov	 WORD PTR _szTyear$[ebp+1], ax

; 1491 : 
; 1492 : 	if( szJN[6] == '3' || szJN[6] == '4' )

  0002b	b8 01 00 00 00	 mov	 eax, 1
  00030	6b c8 06	 imul	 ecx, eax, 6
  00033	8b 55 08	 mov	 edx, DWORD PTR _szJN$[ebp]
  00036	0f be 04 0a	 movsx	 eax, BYTE PTR [edx+ecx]
  0003a	83 f8 33	 cmp	 eax, 51			; 00000033H
  0003d	74 14		 je	 SHORT $LN4@gJoominChe
  0003f	b8 01 00 00 00	 mov	 eax, 1
  00044	6b c8 06	 imul	 ecx, eax, 6
  00047	8b 55 08	 mov	 edx, DWORD PTR _szJN$[ebp]
  0004a	0f be 04 0a	 movsx	 eax, BYTE PTR [edx+ecx]
  0004e	83 f8 34	 cmp	 eax, 52			; 00000034H
  00051	75 07		 jne	 SHORT $LN3@gJoominChe
$LN4@gJoominChe:

; 1493 : 		tyear = 2000;

  00053	c7 45 fc d0 07
	00 00		 mov	 DWORD PTR _tyear$[ebp], 2000 ; 000007d0H
$LN3@gJoominChe:

; 1494 : 	
; 1495 : 	memcpy(szTyear, szJN, 2);

  0005a	6a 02		 push	 2
  0005c	8b 45 08	 mov	 eax, DWORD PTR _szJN$[ebp]
  0005f	50		 push	 eax
  00060	8d 4d f8	 lea	 ecx, DWORD PTR _szTyear$[ebp]
  00063	51		 push	 ecx
  00064	e8 00 00 00 00	 call	 _memcpy
  00069	83 c4 0c	 add	 esp, 12			; 0000000cH

; 1496 : 	tyear += atoi(szTyear);

  0006c	8d 45 f8	 lea	 eax, DWORD PTR _szTyear$[ebp]
  0006f	50		 push	 eax
  00070	e8 00 00 00 00	 call	 _atoi
  00075	83 c4 04	 add	 esp, 4
  00078	03 45 fc	 add	 eax, DWORD PTR _tyear$[ebp]
  0007b	89 45 fc	 mov	 DWORD PTR _tyear$[ebp], eax

; 1497 : 	
; 1498 : 	if( (gYear-iLimitAge) < tyear )

  0007e	a1 00 00 00 00	 mov	 eax, DWORD PTR ?gYear@@3HA ; gYear
  00083	2b 45 0c	 sub	 eax, DWORD PTR _iLimitAge$[ebp]
  00086	3b 45 fc	 cmp	 eax, DWORD PTR _tyear$[ebp]
  00089	7d 04		 jge	 SHORT $LN5@gJoominChe

; 1499 : 	{
; 1500 : 		return FALSE;

  0008b	33 c0		 xor	 eax, eax
  0008d	eb 05		 jmp	 SHORT $LN1@gJoominChe
$LN5@gJoominChe:

; 1501 : 	}
; 1502 : 	return TRUE;

  0008f	b8 01 00 00 00	 mov	 eax, 1
$LN1@gJoominChe:

; 1503 : }

  00094	5f		 pop	 edi
  00095	5e		 pop	 esi
  00096	5b		 pop	 ebx
  00097	8b e5		 mov	 esp, ebp
  00099	5d		 pop	 ebp
  0009a	c3		 ret	 0
?gJoominCheck@@YAHPADH@Z ENDP				; gJoominCheck
_TEXT	ENDS
; Function compile flags: /Odtp /ZI
; File C:\Mu Online\Mu-GS-Webzen-MC-10093\GameServer\Gamemain.cpp
;	COMDAT ?gJoomin15Check@@YAHPAD@Z
_TEXT	SEGMENT
_szTyear$ = -8						; size = 3
_tyear$ = -4						; size = 4
_szJN$ = 8						; size = 4
?gJoomin15Check@@YAHPAD@Z PROC				; gJoomin15Check, COMDAT

; 1464 : {

  00000	55		 push	 ebp
  00001	8b ec		 mov	 ebp, esp
  00003	83 ec 48	 sub	 esp, 72			; 00000048H
  00006	53		 push	 ebx
  00007	56		 push	 esi
  00008	57		 push	 edi

; 1465 : 	int  tyear=1900;

  00009	c7 45 fc 6c 07
	00 00		 mov	 DWORD PTR _tyear$[ebp], 1900 ; 0000076cH

; 1466 : 	char szTyear[3]="";

  00010	a0 00 00 00 00	 mov	 al, BYTE PTR ??_C@_00CNPNBAHC@@
  00015	88 45 f8	 mov	 BYTE PTR _szTyear$[ebp], al
  00018	33 c0		 xor	 eax, eax
  0001a	66 89 45 f9	 mov	 WORD PTR _szTyear$[ebp+1], ax

; 1467 : 
; 1468 : 	if( szJN[6] == '3' || szJN[6] == '4' )

  0001e	b8 01 00 00 00	 mov	 eax, 1
  00023	6b c8 06	 imul	 ecx, eax, 6
  00026	8b 55 08	 mov	 edx, DWORD PTR _szJN$[ebp]
  00029	0f be 04 0a	 movsx	 eax, BYTE PTR [edx+ecx]
  0002d	83 f8 33	 cmp	 eax, 51			; 00000033H
  00030	74 14		 je	 SHORT $LN3@gJoomin15C
  00032	b8 01 00 00 00	 mov	 eax, 1
  00037	6b c8 06	 imul	 ecx, eax, 6
  0003a	8b 55 08	 mov	 edx, DWORD PTR _szJN$[ebp]
  0003d	0f be 04 0a	 movsx	 eax, BYTE PTR [edx+ecx]
  00041	83 f8 34	 cmp	 eax, 52			; 00000034H
  00044	75 07		 jne	 SHORT $LN2@gJoomin15C
$LN3@gJoomin15C:

; 1469 : 		tyear = 2000;

  00046	c7 45 fc d0 07
	00 00		 mov	 DWORD PTR _tyear$[ebp], 2000 ; 000007d0H
$LN2@gJoomin15C:

; 1470 : 	
; 1471 : 	memcpy(szTyear, szJN, 2);

  0004d	6a 02		 push	 2
  0004f	8b 45 08	 mov	 eax, DWORD PTR _szJN$[ebp]
  00052	50		 push	 eax
  00053	8d 4d f8	 lea	 ecx, DWORD PTR _szTyear$[ebp]
  00056	51		 push	 ecx
  00057	e8 00 00 00 00	 call	 _memcpy
  0005c	83 c4 0c	 add	 esp, 12			; 0000000cH

; 1472 : 	tyear += atoi(szTyear);

  0005f	8d 45 f8	 lea	 eax, DWORD PTR _szTyear$[ebp]
  00062	50		 push	 eax
  00063	e8 00 00 00 00	 call	 _atoi
  00068	83 c4 04	 add	 esp, 4
  0006b	03 45 fc	 add	 eax, DWORD PTR _tyear$[ebp]
  0006e	89 45 fc	 mov	 DWORD PTR _tyear$[ebp], eax

; 1473 : 	
; 1474 : 	if( (gYear-15) < tyear )

  00071	a1 00 00 00 00	 mov	 eax, DWORD PTR ?gYear@@3HA ; gYear
  00076	83 e8 0f	 sub	 eax, 15			; 0000000fH
  00079	3b 45 fc	 cmp	 eax, DWORD PTR _tyear$[ebp]
  0007c	7d 04		 jge	 SHORT $LN4@gJoomin15C

; 1475 : 	{
; 1476 : 		return FALSE;

  0007e	33 c0		 xor	 eax, eax
  00080	eb 05		 jmp	 SHORT $LN1@gJoomin15C
$LN4@gJoomin15C:

; 1477 : 	}
; 1478 : 	return TRUE;

  00082	b8 01 00 00 00	 mov	 eax, 1
$LN1@gJoomin15C:

; 1479 : }

  00087	5f		 pop	 edi
  00088	5e		 pop	 esi
  00089	5b		 pop	 ebx
  0008a	8b e5		 mov	 esp, ebp
  0008c	5d		 pop	 ebp
  0008d	c3		 ret	 0
?gJoomin15Check@@YAHPAD@Z ENDP				; gJoomin15Check
_TEXT	ENDS
; Function compile flags: /Odtp /ZI
; File C:\Mu Online\Mu-GS-Webzen-MC-10093\GameServer\Gamemain.cpp
;	COMDAT ?ReadCommonServerInfo@@YAXXZ
_TEXT	SEGMENT
tv1673 = -1512						; size = 4
tv169 = -1512						; size = 4
$T1 = -1508						; size = 4
_szDiplayGSInfo$ = -1312				; size = 512
_tmpServerType$ = -800					; size = 4
_tmpSzGameServerVersion$ = -796				; size = 15
_iMaxUser$ = -780					; size = 4
_szlMsgName$ = -776					; size = 256
_cvstr$ = -520						; size = 4
_szCheckSum$ = -516					; size = 255
_szTemp$ = -260						; size = 256
__$ArrayPad$ = -4					; size = 4
?ReadCommonServerInfo@@YAXXZ PROC			; ReadCommonServerInfo, COMDAT

; 2712 : {

  00000	55		 push	 ebp
  00001	8b ec		 mov	 ebp, esp
  00003	81 ec e8 05 00
	00		 sub	 esp, 1512		; 000005e8H
  00009	a1 00 00 00 00	 mov	 eax, DWORD PTR ___security_cookie
  0000e	33 c5		 xor	 eax, ebp
  00010	89 45 fc	 mov	 DWORD PTR __$ArrayPad$[ebp], eax
  00013	53		 push	 ebx
  00014	56		 push	 esi
  00015	57		 push	 edi

; 2713 : 	char	szTemp[256];	
; 2714 : 	char    szCheckSum[255];
; 2715 : 
; 2716 : 	char *	cvstr;
; 2717 : 
; 2718 : 	ReadServerInfo();

  00016	e8 00 00 00 00	 call	 ?ReadServerInfo@@YAXXZ	; ReadServerInfo

; 2719 : 
; 2720 : #ifdef AUTH_GAMESERVER	
; 2721 : 	int DataBufferSize;
; 2722 : 	char* DataBuffer;
; 2723 : 	gGameServerAuth.RequestData(FILE_GATE);
; 2724 : 	DataBufferSize = gGameServerAuth.GetDataBufferSize();
; 2725 : 	DataBuffer = gGameServerAuth.GetDataBuffer();
; 2726 : 	gGateC.Load(DataBuffer, DataBufferSize);						//   
; 2727 : #else
; 2728 : 	#ifdef SCRIPT_DECODE_WORK
; 2729 : 		gGateC.LoadDecode(gDirPath.GetNewPath("gate.cwz"));
; 2730 : 	#else
; 2731 : 		gGateC.Load(gDirPath.GetNewPath("gate.txt"));

  0001b	68 00 00 00 00	 push	 OFFSET ??_C@_08PGLGOOHM@gate?4txt@
  00020	b9 00 00 00 00	 mov	 ecx, OFFSET ?gDirPath@@3VCDirPath@@A ; gDirPath
  00025	e8 00 00 00 00	 call	 ?GetNewPath@CDirPath@@QAEPADPAD@Z ; CDirPath::GetNewPath
  0002a	50		 push	 eax
  0002b	b9 00 00 00 00	 mov	 ecx, OFFSET ?gGateC@@3VCGate@@A ; gGateC
  00030	e8 00 00 00 00	 call	 ?Load@CGate@@QAEXPAD@Z	; CGate::Load

; 2732 : 	#endif
; 2733 : #endif
; 2734 : 
; 2735 : 	if( IsFile(gDirPath.GetNewPath("commonserver.cfg")) == FALSE )

  00035	68 00 00 00 00	 push	 OFFSET ??_C@_0BB@IGLHFEOF@commonserver?4cfg@
  0003a	b9 00 00 00 00	 mov	 ecx, OFFSET ?gDirPath@@3VCDirPath@@A ; gDirPath
  0003f	e8 00 00 00 00	 call	 ?GetNewPath@CDirPath@@QAEPADPAD@Z ; CDirPath::GetNewPath
  00044	50		 push	 eax
  00045	e8 00 00 00 00	 call	 ?IsFile@@YAHPAD@Z	; IsFile
  0004a	83 c4 04	 add	 esp, 4
  0004d	85 c0		 test	 eax, eax
  0004f	75 0d		 jne	 SHORT $LN4@ReadCommon

; 2736 : 	{
; 2737 : 		MsgBox("[commonserver.cfg] file not found");

  00051	68 00 00 00 00	 push	 OFFSET ??_C@_0CC@JCDJGIAD@?$FLcommonserver?4cfg?$FN?5file?5not?5fou@
  00056	e8 00 00 00 00	 call	 ?MsgBox@@YAXPADZZ	; MsgBox
  0005b	83 c4 04	 add	 esp, 4
$LN4@ReadCommon:

; 2738 : 	}
; 2739 : 
; 2740 : 	g_GlobalConfig.Load(gDirPath.GetNewPath("commonserver.cfg"),gDirPath.GetNewPath("CalCharacter.cfg"));

  0005e	68 00 00 00 00	 push	 OFFSET ??_C@_0BB@JIONBNI@CalCharacter?4cfg@
  00063	b9 00 00 00 00	 mov	 ecx, OFFSET ?gDirPath@@3VCDirPath@@A ; gDirPath
  00068	e8 00 00 00 00	 call	 ?GetNewPath@CDirPath@@QAEPADPAD@Z ; CDirPath::GetNewPath
  0006d	50		 push	 eax
  0006e	68 00 00 00 00	 push	 OFFSET ??_C@_0BB@IGLHFEOF@commonserver?4cfg@
  00073	b9 00 00 00 00	 mov	 ecx, OFFSET ?gDirPath@@3VCDirPath@@A ; gDirPath
  00078	e8 00 00 00 00	 call	 ?GetNewPath@CDirPath@@QAEPADPAD@Z ; CDirPath::GetNewPath
  0007d	50		 push	 eax
  0007e	b9 00 00 00 00	 mov	 ecx, OFFSET ?g_GlobalConfig@@3VCGlobalConfig@@A ; g_GlobalConfig
  00083	e8 00 00 00 00	 call	 ?Load@CGlobalConfig@@QAEXPBD0@Z ; CGlobalConfig::Load

; 2741 : 	g_PostSystem.Load(gDirPath.GetNewPath("commonserver.cfg"));

  00088	68 00 00 00 00	 push	 OFFSET ??_C@_0BB@IGLHFEOF@commonserver?4cfg@
  0008d	b9 00 00 00 00	 mov	 ecx, OFFSET ?gDirPath@@3VCDirPath@@A ; gDirPath
  00092	e8 00 00 00 00	 call	 ?GetNewPath@CDirPath@@QAEPADPAD@Z ; CDirPath::GetNewPath
  00097	50		 push	 eax
  00098	b9 00 00 00 00	 mov	 ecx, OFFSET ?g_PostSystem@@3VCPostSystem@@A ; g_PostSystem
  0009d	e8 00 00 00 00	 call	 ?Load@CPostSystem@@QAEXPBD@Z ; CPostSystem::Load

; 2742 : 
; 2743 : 	GetPrivateProfileString("GameServerInfo", "Language", "0", szTemp, 5, gDirPath.GetNewPath("commonserver.cfg"));

  000a2	68 00 00 00 00	 push	 OFFSET ??_C@_0BB@IGLHFEOF@commonserver?4cfg@
  000a7	b9 00 00 00 00	 mov	 ecx, OFFSET ?gDirPath@@3VCDirPath@@A ; gDirPath
  000ac	e8 00 00 00 00	 call	 ?GetNewPath@CDirPath@@QAEPADPAD@Z ; CDirPath::GetNewPath
  000b1	50		 push	 eax
  000b2	6a 05		 push	 5
  000b4	8d 85 fc fe ff
	ff		 lea	 eax, DWORD PTR _szTemp$[ebp]
  000ba	50		 push	 eax
  000bb	68 00 00 00 00	 push	 OFFSET ??_C@_01GBGANLPD@0@
  000c0	68 00 00 00 00	 push	 OFFSET ??_C@_08BENDAOKD@Language@
  000c5	68 00 00 00 00	 push	 OFFSET ??_C@_0P@EMJDPFDH@GameServerInfo@
  000ca	ff 15 00 00 00
	00		 call	 DWORD PTR __imp__GetPrivateProfileStringA@24

; 2744 : 	gLanguage	= atoi(szTemp);

  000d0	8d 85 fc fe ff
	ff		 lea	 eax, DWORD PTR _szTemp$[ebp]
  000d6	50		 push	 eax
  000d7	e8 00 00 00 00	 call	 _atoi
  000dc	83 c4 04	 add	 esp, 4
  000df	a3 00 00 00 00	 mov	 DWORD PTR ?gLanguage@@3HA, eax ; gLanguage

; 2745 : 
; 2746 : 	
; 2747 : 	gStalkProtocol = GetPrivateProfileInt("GameServerInfo", "StalkProtocol", 0, gDirPath.GetNewPath("commonserver.cfg"));

  000e4	68 00 00 00 00	 push	 OFFSET ??_C@_0BB@IGLHFEOF@commonserver?4cfg@
  000e9	b9 00 00 00 00	 mov	 ecx, OFFSET ?gDirPath@@3VCDirPath@@A ; gDirPath
  000ee	e8 00 00 00 00	 call	 ?GetNewPath@CDirPath@@QAEPADPAD@Z ; CDirPath::GetNewPath
  000f3	50		 push	 eax
  000f4	6a 00		 push	 0
  000f6	68 00 00 00 00	 push	 OFFSET ??_C@_0O@GAFBBPE@StalkProtocol@
  000fb	68 00 00 00 00	 push	 OFFSET ??_C@_0P@EMJDPFDH@GameServerInfo@
  00100	ff 15 00 00 00
	00		 call	 DWORD PTR __imp__GetPrivateProfileIntA@16
  00106	a3 00 00 00 00	 mov	 DWORD PTR ?gStalkProtocol@@3HA, eax ; gStalkProtocol

; 2748 : 	GetPrivateProfileString("GameServerInfo", "StalkProtocolId", "0", gStalkProtocolId, MAX_IDSTRING, gDirPath.GetNewPath("commonserver.cfg"));

  0010b	68 00 00 00 00	 push	 OFFSET ??_C@_0BB@IGLHFEOF@commonserver?4cfg@
  00110	b9 00 00 00 00	 mov	 ecx, OFFSET ?gDirPath@@3VCDirPath@@A ; gDirPath
  00115	e8 00 00 00 00	 call	 ?GetNewPath@CDirPath@@QAEPADPAD@Z ; CDirPath::GetNewPath
  0011a	50		 push	 eax
  0011b	6a 0a		 push	 10			; 0000000aH
  0011d	68 00 00 00 00	 push	 OFFSET ?gStalkProtocolId@@3PADA ; gStalkProtocolId
  00122	68 00 00 00 00	 push	 OFFSET ??_C@_01GBGANLPD@0@
  00127	68 00 00 00 00	 push	 OFFSET ??_C@_0BA@GELKBKKC@StalkProtocolId@
  0012c	68 00 00 00 00	 push	 OFFSET ??_C@_0P@EMJDPFDH@GameServerInfo@
  00131	ff 15 00 00 00
	00		 call	 DWORD PTR __imp__GetPrivateProfileStringA@24

; 2749 : 	if( gStalkProtocol )

  00137	83 3d 00 00 00
	00 00		 cmp	 DWORD PTR ?gStalkProtocol@@3HA, 0 ; gStalkProtocol
  0013e	74 13		 je	 SHORT $LN5@ReadCommon

; 2750 : 	{
; 2751 : 		LogAdd("Stalk Protocol ID = '%s' ", gStalkProtocolId);

  00140	68 00 00 00 00	 push	 OFFSET ?gStalkProtocolId@@3PADA ; gStalkProtocolId
  00145	68 00 00 00 00	 push	 OFFSET ??_C@_0BK@KJGDFNAO@Stalk?5Protocol?5ID?5?$DN?5?8?$CFs?8?5@
  0014a	ff 15 00 00 00
	00		 call	 DWORD PTR ?LogAdd@@3P6AXPADZZA ; LogAdd
  00150	83 c4 08	 add	 esp, 8
$LN5@ReadCommon:

; 2752 : 	}
; 2753 : 
; 2754 : 	char szlMsgName[256];
; 2755 : 
; 2756 : 	if( g_SimpleModulusCS.LoadDecryptionKey(gDirPath.GetNewPath("Dec1.dat")) == FALSE )

  00153	68 00 00 00 00	 push	 OFFSET ??_C@_08LPAIHJCB@Dec1?4dat@
  00158	b9 00 00 00 00	 mov	 ecx, OFFSET ?gDirPath@@3VCDirPath@@A ; gDirPath
  0015d	e8 00 00 00 00	 call	 ?GetNewPath@CDirPath@@QAEPADPAD@Z ; CDirPath::GetNewPath
  00162	50		 push	 eax
  00163	b9 00 00 00 00	 mov	 ecx, OFFSET ?g_SimpleModulusCS@@3VCSimpleModulus@@A ; g_SimpleModulusCS
  00168	e8 00 00 00 00	 call	 ?LoadDecryptionKey@CSimpleModulus@@QAEHPAD@Z ; CSimpleModulus::LoadDecryptionKey
  0016d	85 c0		 test	 eax, eax
  0016f	75 0d		 jne	 SHORT $LN6@ReadCommon

; 2757 : 	{
; 2758 : 		MsgBox("Dec1.dat file not found");

  00171	68 00 00 00 00	 push	 OFFSET ??_C@_0BI@KPIPBJFI@Dec1?4dat?5file?5not?5found@
  00176	e8 00 00 00 00	 call	 ?MsgBox@@YAXPADZZ	; MsgBox
  0017b	83 c4 04	 add	 esp, 4
$LN6@ReadCommon:

; 2759 : 	}
; 2760 : 	if( g_SimpleModulusSC.LoadEncryptionKey(gDirPath.GetNewPath("Enc2.dat")) == FALSE )

  0017e	68 00 00 00 00	 push	 OFFSET ??_C@_08HDINADJK@Enc2?4dat@
  00183	b9 00 00 00 00	 mov	 ecx, OFFSET ?gDirPath@@3VCDirPath@@A ; gDirPath
  00188	e8 00 00 00 00	 call	 ?GetNewPath@CDirPath@@QAEPADPAD@Z ; CDirPath::GetNewPath
  0018d	50		 push	 eax
  0018e	b9 00 00 00 00	 mov	 ecx, OFFSET ?g_SimpleModulusSC@@3VCSimpleModulus@@A ; g_SimpleModulusSC
  00193	e8 00 00 00 00	 call	 ?LoadEncryptionKey@CSimpleModulus@@QAEHPAD@Z ; CSimpleModulus::LoadEncryptionKey
  00198	85 c0		 test	 eax, eax
  0019a	75 0d		 jne	 SHORT $LN7@ReadCommon

; 2761 : 	{
; 2762 : 		MsgBox("Enc2.dat file not found");

  0019c	68 00 00 00 00	 push	 OFFSET ??_C@_0BI@CDOIIEIH@Enc2?4dat?5file?5not?5found@
  001a1	e8 00 00 00 00	 call	 ?MsgBox@@YAXPADZZ	; MsgBox
  001a6	83 c4 04	 add	 esp, 4
$LN7@ReadCommon:

; 2763 : 	}
; 2764 : 
; 2765 : #ifdef SCRIPT_DECODE_WORK
; 2766 : 	strcpy(szKorItemTextFileName, gDirPath.GetNewPath("lang\\kor\\item(kor).cwz"));
; 2767 : 	strcpy(szKorSkillTextFileName, gDirPath.GetNewPath("lang\\kor\\skill(kor).cwz"));
; 2768 : #else
; 2769 : 	strcpy(szKorItemTextFileName, gDirPath.GetNewPath("lang\\main\\item.txt"));

  001a9	68 00 00 00 00	 push	 OFFSET ??_C@_0BD@FJCONAOJ@lang?2main?2item?4txt@
  001ae	b9 00 00 00 00	 mov	 ecx, OFFSET ?gDirPath@@3VCDirPath@@A ; gDirPath
  001b3	e8 00 00 00 00	 call	 ?GetNewPath@CDirPath@@QAEPADPAD@Z ; CDirPath::GetNewPath
  001b8	50		 push	 eax
  001b9	68 00 00 00 00	 push	 OFFSET ?szKorItemTextFileName@@3PADA ; szKorItemTextFileName
  001be	e8 00 00 00 00	 call	 _strcpy
  001c3	83 c4 08	 add	 esp, 8

; 2770 : 	strcpy(szKorSkillTextFileName, gDirPath.GetNewPath("lang\\main\\skill.txt"));

  001c6	68 00 00 00 00	 push	 OFFSET ??_C@_0BE@FDAOHAFF@lang?2main?2skill?4txt@
  001cb	b9 00 00 00 00	 mov	 ecx, OFFSET ?gDirPath@@3VCDirPath@@A ; gDirPath
  001d0	e8 00 00 00 00	 call	 ?GetNewPath@CDirPath@@QAEPADPAD@Z ; CDirPath::GetNewPath
  001d5	50		 push	 eax
  001d6	68 00 00 00 00	 push	 OFFSET ?szKorSkillTextFileName@@3PADA ; szKorSkillTextFileName
  001db	e8 00 00 00 00	 call	 _strcpy
  001e0	83 c4 08	 add	 esp, 8

; 2771 : #endif
; 2772 : 
; 2773 : 	strcpy(szMoveReqFileName, gDirPath.GetNewPath("lang\\main\\movereq.txt"));

  001e3	68 00 00 00 00	 push	 OFFSET ??_C@_0BG@GBCNIGCF@lang?2main?2movereq?4txt@
  001e8	b9 00 00 00 00	 mov	 ecx, OFFSET ?gDirPath@@3VCDirPath@@A ; gDirPath
  001ed	e8 00 00 00 00	 call	 ?GetNewPath@CDirPath@@QAEPADPAD@Z ; CDirPath::GetNewPath
  001f2	50		 push	 eax
  001f3	68 00 00 00 00	 push	 OFFSET ?szMoveReqFileName@@3PADA ; szMoveReqFileName
  001f8	e8 00 00 00 00	 call	 _strcpy
  001fd	83 c4 08	 add	 esp, 8

; 2774 : 
; 2775 : 	switch( gLanguage ) 

  00200	a1 00 00 00 00	 mov	 eax, DWORD PTR ?gLanguage@@3HA ; gLanguage
  00205	89 85 18 fa ff
	ff		 mov	 DWORD PTR tv169[ebp], eax
  0020b	83 bd 18 fa ff
	ff 05		 cmp	 DWORD PTR tv169[ebp], 5
  00212	0f 87 10 07 00
	00		 ja	 $LN2@ReadCommon
  00218	8b 8d 18 fa ff
	ff		 mov	 ecx, DWORD PTR tv169[ebp]
  0021e	ff 24 8d 00 00
	00 00		 jmp	 DWORD PTR $LN41@ReadCommon[ecx*4]
$LN8@ReadCommon:

; 2776 : 	{
; 2777 : 	case 0 : //  
; 2778 : 		strcpy(szlMsgName, gDirPath.GetNewPath("message_kor.wtf"));		

  00225	68 00 00 00 00	 push	 OFFSET ??_C@_0BA@MNCIMNEB@message_kor?4wtf@
  0022a	b9 00 00 00 00	 mov	 ecx, OFFSET ?gDirPath@@3VCDirPath@@A ; gDirPath
  0022f	e8 00 00 00 00	 call	 ?GetNewPath@CDirPath@@QAEPADPAD@Z ; CDirPath::GetNewPath
  00234	50		 push	 eax
  00235	8d 85 f8 fc ff
	ff		 lea	 eax, DWORD PTR _szlMsgName$[ebp]
  0023b	50		 push	 eax
  0023c	e8 00 00 00 00	 call	 _strcpy
  00241	83 c4 08	 add	 esp, 8

; 2779 : 
; 2780 : #ifdef SCRIPT_DECODE_WORK
; 2781 : 		strcpy(szItemTextFileName, gDirPath.GetNewPath("lang\\kor\\item(kor).cwz"));
; 2782 : 		strcpy(szSkillTextFileName, gDirPath.GetNewPath("lang\\kor\\skill(kor).cwz"));
; 2783 : 		strcpy(szQuestTextFileName, gDirPath.GetNewPath("lang\\kor\\Quest(Kor).cwz"));		
; 2784 : #else
; 2785 : 		strcpy(szItemTextFileName, gDirPath.GetNewPath("lang\\kor\\item(kor).txt"));

  00244	68 00 00 00 00	 push	 OFFSET ??_C@_0BH@LNBPGCH@lang?2kor?2item?$CIkor?$CJ?4txt@
  00249	b9 00 00 00 00	 mov	 ecx, OFFSET ?gDirPath@@3VCDirPath@@A ; gDirPath
  0024e	e8 00 00 00 00	 call	 ?GetNewPath@CDirPath@@QAEPADPAD@Z ; CDirPath::GetNewPath
  00253	50		 push	 eax
  00254	68 00 00 00 00	 push	 OFFSET ?szItemTextFileName@@3PADA ; szItemTextFileName
  00259	e8 00 00 00 00	 call	 _strcpy
  0025e	83 c4 08	 add	 esp, 8

; 2786 : 		strcpy(szSkillTextFileName, gDirPath.GetNewPath("lang\\kor\\skill(kor).txt"));

  00261	68 00 00 00 00	 push	 OFFSET ??_C@_0BI@FIPAPIED@lang?2kor?2skill?$CIkor?$CJ?4txt@
  00266	b9 00 00 00 00	 mov	 ecx, OFFSET ?gDirPath@@3VCDirPath@@A ; gDirPath
  0026b	e8 00 00 00 00	 call	 ?GetNewPath@CDirPath@@QAEPADPAD@Z ; CDirPath::GetNewPath
  00270	50		 push	 eax
  00271	68 00 00 00 00	 push	 OFFSET ?szSkillTextFileName@@3PADA ; szSkillTextFileName
  00276	e8 00 00 00 00	 call	 _strcpy
  0027b	83 c4 08	 add	 esp, 8

; 2787 : 		strcpy(szQuestTextFileName, gDirPath.GetNewPath("lang\\kor\\Quest(Kor).txt"));		

  0027e	68 00 00 00 00	 push	 OFFSET ??_C@_0BI@KHGIHCPL@lang?2kor?2Quest?$CIKor?$CJ?4txt@
  00283	b9 00 00 00 00	 mov	 ecx, OFFSET ?gDirPath@@3VCDirPath@@A ; gDirPath
  00288	e8 00 00 00 00	 call	 ?GetNewPath@CDirPath@@QAEPADPAD@Z ; CDirPath::GetNewPath
  0028d	50		 push	 eax
  0028e	68 00 00 00 00	 push	 OFFSET ?szQuestTextFileName@@3PADA ; szQuestTextFileName
  00293	e8 00 00 00 00	 call	 _strcpy
  00298	83 c4 08	 add	 esp, 8

; 2788 : #endif
; 2789 : 		strcpy(szCheckSum, gDirPath.GetNewPath("lang\\kor\\CheckSum.dat"));

  0029b	68 00 00 00 00	 push	 OFFSET ??_C@_0BG@LDHDEAON@lang?2kor?2CheckSum?4dat@
  002a0	b9 00 00 00 00	 mov	 ecx, OFFSET ?gDirPath@@3VCDirPath@@A ; gDirPath
  002a5	e8 00 00 00 00	 call	 ?GetNewPath@CDirPath@@QAEPADPAD@Z ; CDirPath::GetNewPath
  002aa	50		 push	 eax
  002ab	8d 85 fc fd ff
	ff		 lea	 eax, DWORD PTR _szCheckSum$[ebp]
  002b1	50		 push	 eax
  002b2	e8 00 00 00 00	 call	 _strcpy
  002b7	83 c4 08	 add	 esp, 8

; 2790 : 
; 2791 : 		//strcpy(szMoveReqFileName, gDirPath.GetNewPath("lang\\kor\\movereq(Kor).txt"));
; 2792 : 
; 2793 : #ifdef MULTI_CHECKSUM
; 2794 : 		g_MultiChecksum.SetFilePath(gDirPath.GetNewPath("lang\\kor"));
; 2795 : #endif
; 2796 : 
; 2797 : 		strcpy(szCommonlocIniFileName, gDirPath.GetNewPath("lang\\kor\\commonloc.cfg"));

  002ba	68 00 00 00 00	 push	 OFFSET ??_C@_0BH@CGAJGJIE@lang?2kor?2commonloc?4cfg@
  002bf	b9 00 00 00 00	 mov	 ecx, OFFSET ?gDirPath@@3VCDirPath@@A ; gDirPath
  002c4	e8 00 00 00 00	 call	 ?GetNewPath@CDirPath@@QAEPADPAD@Z ; CDirPath::GetNewPath
  002c9	50		 push	 eax
  002ca	68 00 00 00 00	 push	 OFFSET ?szCommonlocIniFileName@@3PADA ; szCommonlocIniFileName
  002cf	e8 00 00 00 00	 call	 _strcpy
  002d4	83 c4 08	 add	 esp, 8

; 2798 : 
; 2799 : 
; 2800 : 
; 2801 : 		gNonPK = GetPrivateProfileInt("GameServerInfo", "NonPK", 0, ".\\data\\Serverinfo.dat");

  002d7	68 00 00 00 00	 push	 OFFSET ??_C@_0BG@KBGGHHPK@?4?2data?2Serverinfo?4dat@
  002dc	6a 00		 push	 0
  002de	68 00 00 00 00	 push	 OFFSET ??_C@_05MEMFONJC@NonPK@
  002e3	68 00 00 00 00	 push	 OFFSET ??_C@_0P@EMJDPFDH@GameServerInfo@
  002e8	ff 15 00 00 00
	00		 call	 DWORD PTR __imp__GetPrivateProfileIntA@16
  002ee	a3 00 00 00 00	 mov	 DWORD PTR ?gNonPK@@3HA, eax ; gNonPK

; 2802 : 		if( gNonPK ) LogAdd("NON-PK Server");

  002f3	83 3d 00 00 00
	00 00		 cmp	 DWORD PTR ?gNonPK@@3HA, 0 ; gNonPK
  002fa	74 0e		 je	 SHORT $LN9@ReadCommon
  002fc	68 00 00 00 00	 push	 OFFSET ??_C@_0O@GCDDIMLO@NON?9PK?5Server@
  00301	ff 15 00 00 00
	00		 call	 DWORD PTR ?LogAdd@@3P6AXPADZZA ; LogAdd
  00307	83 c4 04	 add	 esp, 4
$LN9@ReadCommon:

; 2803 : 		
; 2804 : #ifdef ADD_PK_LIMIT_FREE_OPTION_20050324
; 2805 : 		gPkLimitFree = GetPrivateProfileInt("GameServerInfo", "PkLimitFree", 0, ".\\data\\Serverinfo.dat");

  0030a	68 00 00 00 00	 push	 OFFSET ??_C@_0BG@KBGGHHPK@?4?2data?2Serverinfo?4dat@
  0030f	6a 00		 push	 0
  00311	68 00 00 00 00	 push	 OFFSET ??_C@_0M@DKICACGN@PkLimitFree@
  00316	68 00 00 00 00	 push	 OFFSET ??_C@_0P@EMJDPFDH@GameServerInfo@
  0031b	ff 15 00 00 00
	00		 call	 DWORD PTR __imp__GetPrivateProfileIntA@16
  00321	a3 00 00 00 00	 mov	 DWORD PTR ?gPkLimitFree@@3HA, eax ; gPkLimitFree

; 2806 : 		if( gPkLimitFree ) LogAdd("PK Limit Free Server");

  00326	83 3d 00 00 00
	00 00		 cmp	 DWORD PTR ?gPkLimitFree@@3HA, 0 ; gPkLimitFree
  0032d	74 0e		 je	 SHORT $LN10@ReadCommon
  0032f	68 00 00 00 00	 push	 OFFSET ??_C@_0BF@KFCGLLGL@PK?5Limit?5Free?5Server@
  00334	ff 15 00 00 00
	00		 call	 DWORD PTR ?LogAdd@@3P6AXPADZZA ; LogAdd
  0033a	83 c4 04	 add	 esp, 4
$LN10@ReadCommon:

; 2807 : #endif
; 2808 : 
; 2809 : #ifdef ADD_NEWSERVER_20081113
; 2810 : 		g_bNewServer = GetPrivateProfileInt("GameServerInfo", "NewServer", 0, ".\\data\\Serverinfo.dat");
; 2811 : 		if( g_bNewServer ) LogAdd("New Server");
; 2812 : #endif // ADD_NEWSERVER_20081113
; 2813 : 
; 2814 : #ifdef ADD_NEWSERVER_EVENTOFF_20081114
; 2815 : 		g_bEventOff = GetPrivateProfileInt("GameServerInfo", "EventOff", 0, ".\\data\\Serverinfo.dat");
; 2816 : 		if( g_bEventOff ) LogAdd("EventOff");
; 2817 : #endif // ADD_NEWSERVER_EVENTOFF_20081114
; 2818 : 		break;

  0033d	e9 e6 05 00 00	 jmp	 $LN2@ReadCommon
$LN11@ReadCommon:

; 2819 : 
; 2820 : 	case 1 : //  
; 2821 : 		strcpy(szlMsgName, gDirPath.GetNewPath("message_eng.wtf"));

  00342	68 00 00 00 00	 push	 OFFSET ??_C@_0BA@CNMOEHOP@message_eng?4wtf@
  00347	b9 00 00 00 00	 mov	 ecx, OFFSET ?gDirPath@@3VCDirPath@@A ; gDirPath
  0034c	e8 00 00 00 00	 call	 ?GetNewPath@CDirPath@@QAEPADPAD@Z ; CDirPath::GetNewPath
  00351	50		 push	 eax
  00352	8d 85 f8 fc ff
	ff		 lea	 eax, DWORD PTR _szlMsgName$[ebp]
  00358	50		 push	 eax
  00359	e8 00 00 00 00	 call	 _strcpy
  0035e	83 c4 08	 add	 esp, 8

; 2822 : 
; 2823 : #ifdef SCRIPT_DECODE_WORK
; 2824 : 		strcpy(szItemTextFileName, gDirPath.GetNewPath("lang\\eng\\item(eng).cwz"));
; 2825 : 		strcpy(szSkillTextFileName, gDirPath.GetNewPath("lang\\eng\\skill(eng).cwz"));
; 2826 : 		strcpy(szQuestTextFileName, gDirPath.GetNewPath("lang\\eng\\Quest(eng).cwz"));
; 2827 : #else
; 2828 : 		strcpy(szItemTextFileName, gDirPath.GetNewPath("lang\\eng\\item(eng).txt"));

  00361	68 00 00 00 00	 push	 OFFSET ??_C@_0BH@DIKKKEAA@lang?2eng?2item?$CIeng?$CJ?4txt@
  00366	b9 00 00 00 00	 mov	 ecx, OFFSET ?gDirPath@@3VCDirPath@@A ; gDirPath
  0036b	e8 00 00 00 00	 call	 ?GetNewPath@CDirPath@@QAEPADPAD@Z ; CDirPath::GetNewPath
  00370	50		 push	 eax
  00371	68 00 00 00 00	 push	 OFFSET ?szItemTextFileName@@3PADA ; szItemTextFileName
  00376	e8 00 00 00 00	 call	 _strcpy
  0037b	83 c4 08	 add	 esp, 8

; 2829 : 		strcpy(szSkillTextFileName, gDirPath.GetNewPath("lang\\eng\\skill(eng).txt"));

  0037e	68 00 00 00 00	 push	 OFFSET ??_C@_0BI@PBKOEFKA@lang?2eng?2skill?$CIeng?$CJ?4txt@
  00383	b9 00 00 00 00	 mov	 ecx, OFFSET ?gDirPath@@3VCDirPath@@A ; gDirPath
  00388	e8 00 00 00 00	 call	 ?GetNewPath@CDirPath@@QAEPADPAD@Z ; CDirPath::GetNewPath
  0038d	50		 push	 eax
  0038e	68 00 00 00 00	 push	 OFFSET ?szSkillTextFileName@@3PADA ; szSkillTextFileName
  00393	e8 00 00 00 00	 call	 _strcpy
  00398	83 c4 08	 add	 esp, 8

; 2830 : 		strcpy(szQuestTextFileName, gDirPath.GetNewPath("lang\\eng\\Quest(eng).txt"));

  0039b	68 00 00 00 00	 push	 OFFSET ??_C@_0BI@IMMHENLL@lang?2eng?2Quest?$CIeng?$CJ?4txt@
  003a0	b9 00 00 00 00	 mov	 ecx, OFFSET ?gDirPath@@3VCDirPath@@A ; gDirPath
  003a5	e8 00 00 00 00	 call	 ?GetNewPath@CDirPath@@QAEPADPAD@Z ; CDirPath::GetNewPath
  003aa	50		 push	 eax
  003ab	68 00 00 00 00	 push	 OFFSET ?szQuestTextFileName@@3PADA ; szQuestTextFileName
  003b0	e8 00 00 00 00	 call	 _strcpy
  003b5	83 c4 08	 add	 esp, 8

; 2831 : #endif
; 2832 : 
; 2833 : 		//strcpy(szMoveReqFileName, gDirPath.GetNewPath("lang\\eng\\movereq(Eng).txt"));
; 2834 : 
; 2835 : 		strcpy(szCheckSum, gDirPath.GetNewPath("lang\\eng\\CheckSum.dat"));

  003b8	68 00 00 00 00	 push	 OFFSET ??_C@_0BG@CLNKAICO@lang?2eng?2CheckSum?4dat@
  003bd	b9 00 00 00 00	 mov	 ecx, OFFSET ?gDirPath@@3VCDirPath@@A ; gDirPath
  003c2	e8 00 00 00 00	 call	 ?GetNewPath@CDirPath@@QAEPADPAD@Z ; CDirPath::GetNewPath
  003c7	50		 push	 eax
  003c8	8d 85 fc fd ff
	ff		 lea	 eax, DWORD PTR _szCheckSum$[ebp]
  003ce	50		 push	 eax
  003cf	e8 00 00 00 00	 call	 _strcpy
  003d4	83 c4 08	 add	 esp, 8

; 2836 : 
; 2837 : #ifdef MULTI_CHECKSUM
; 2838 : 		g_MultiChecksum.SetFilePath(gDirPath.GetNewPath("lang\\eng"));
; 2839 : #endif
; 2840 : 
; 2841 : 		strcpy(szCommonlocIniFileName, gDirPath.GetNewPath("lang\\eng\\commonloc.cfg"));

  003d7	68 00 00 00 00	 push	 OFFSET ??_C@_0BH@CEPMFDMG@lang?2eng?2commonloc?4cfg@
  003dc	b9 00 00 00 00	 mov	 ecx, OFFSET ?gDirPath@@3VCDirPath@@A ; gDirPath
  003e1	e8 00 00 00 00	 call	 ?GetNewPath@CDirPath@@QAEPADPAD@Z ; CDirPath::GetNewPath
  003e6	50		 push	 eax
  003e7	68 00 00 00 00	 push	 OFFSET ?szCommonlocIniFileName@@3PADA ; szCommonlocIniFileName
  003ec	e8 00 00 00 00	 call	 _strcpy
  003f1	83 c4 08	 add	 esp, 8

; 2842 : 
; 2843 : 		
; 2844 : 		strcpy(gCountryName, "Eng");

  003f4	68 00 00 00 00	 push	 OFFSET ??_C@_03BKIEJDKG@Eng@
  003f9	68 00 00 00 00	 push	 OFFSET ?gCountryName@@3PADA ; gCountryName
  003fe	e8 00 00 00 00	 call	 _strcpy
  00403	83 c4 08	 add	 esp, 8

; 2845 : 
; 2846 : 		gNonPK = GetPrivateProfileInt("GameServerInfo", "NonPK", 0, ".\\data\\Serverinfo.dat");

  00406	68 00 00 00 00	 push	 OFFSET ??_C@_0BG@KBGGHHPK@?4?2data?2Serverinfo?4dat@
  0040b	6a 00		 push	 0
  0040d	68 00 00 00 00	 push	 OFFSET ??_C@_05MEMFONJC@NonPK@
  00412	68 00 00 00 00	 push	 OFFSET ??_C@_0P@EMJDPFDH@GameServerInfo@
  00417	ff 15 00 00 00
	00		 call	 DWORD PTR __imp__GetPrivateProfileIntA@16
  0041d	a3 00 00 00 00	 mov	 DWORD PTR ?gNonPK@@3HA, eax ; gNonPK

; 2847 : 		if( gNonPK ) LogAdd("NON-PK Server");

  00422	83 3d 00 00 00
	00 00		 cmp	 DWORD PTR ?gNonPK@@3HA, 0 ; gNonPK
  00429	74 0e		 je	 SHORT $LN12@ReadCommon
  0042b	68 00 00 00 00	 push	 OFFSET ??_C@_0O@GCDDIMLO@NON?9PK?5Server@
  00430	ff 15 00 00 00
	00		 call	 DWORD PTR ?LogAdd@@3P6AXPADZZA ; LogAdd
  00436	83 c4 04	 add	 esp, 4
$LN12@ReadCommon:

; 2848 : 
; 2849 : #ifdef ADD_PK_LIMIT_FREE_OPTION_20050324
; 2850 : 		gPkLimitFree = GetPrivateProfileInt("GameServerInfo", "PkLimitFree", 0, ".\\data\\Serverinfo.dat");

  00439	68 00 00 00 00	 push	 OFFSET ??_C@_0BG@KBGGHHPK@?4?2data?2Serverinfo?4dat@
  0043e	6a 00		 push	 0
  00440	68 00 00 00 00	 push	 OFFSET ??_C@_0M@DKICACGN@PkLimitFree@
  00445	68 00 00 00 00	 push	 OFFSET ??_C@_0P@EMJDPFDH@GameServerInfo@
  0044a	ff 15 00 00 00
	00		 call	 DWORD PTR __imp__GetPrivateProfileIntA@16
  00450	a3 00 00 00 00	 mov	 DWORD PTR ?gPkLimitFree@@3HA, eax ; gPkLimitFree

; 2851 : 		if( gPkLimitFree ) LogAdd("PK Limit Free Server");

  00455	83 3d 00 00 00
	00 00		 cmp	 DWORD PTR ?gPkLimitFree@@3HA, 0 ; gPkLimitFree
  0045c	74 0e		 je	 SHORT $LN13@ReadCommon
  0045e	68 00 00 00 00	 push	 OFFSET ??_C@_0BF@KFCGLLGL@PK?5Limit?5Free?5Server@
  00463	ff 15 00 00 00
	00		 call	 DWORD PTR ?LogAdd@@3P6AXPADZZA ; LogAdd
  00469	83 c4 04	 add	 esp, 4
$LN13@ReadCommon:

; 2852 : #endif
; 2853 : 
; 2854 : #ifdef ADD_NEWSERVER_20081113
; 2855 : 		g_bNewServer = GetPrivateProfileInt("GameServerInfo", "NewServer", 0, ".\\data\\Serverinfo.dat");
; 2856 : 		if( g_bNewServer ) LogAdd("New Server");
; 2857 : #endif // ADD_NEWSERVER_20081113
; 2858 : 
; 2859 : #ifdef ADD_NEWSERVER_EVENTOFF_20081114
; 2860 : 		g_bEventOff = GetPrivateProfileInt("GameServerInfo", "EventOff", 0, ".\\data\\Serverinfo.dat");
; 2861 : 		if( g_bEventOff ) LogAdd("EventOff");
; 2862 : #endif // ADD_NEWSERVER_EVENTOFF_20081114
; 2863 : 		break;

  0046c	e9 b7 04 00 00	 jmp	 $LN2@ReadCommon
$LN14@ReadCommon:

; 2864 : 
; 2865 : 	case 2 : //  
; 2866 : 		strcpy(szlMsgName, gDirPath.GetNewPath("message_jpn.wtf"));

  00471	68 00 00 00 00	 push	 OFFSET ??_C@_0BA@OEAAODBI@message_jpn?4wtf@
  00476	b9 00 00 00 00	 mov	 ecx, OFFSET ?gDirPath@@3VCDirPath@@A ; gDirPath
  0047b	e8 00 00 00 00	 call	 ?GetNewPath@CDirPath@@QAEPADPAD@Z ; CDirPath::GetNewPath
  00480	50		 push	 eax
  00481	8d 85 f8 fc ff
	ff		 lea	 eax, DWORD PTR _szlMsgName$[ebp]
  00487	50		 push	 eax
  00488	e8 00 00 00 00	 call	 _strcpy
  0048d	83 c4 08	 add	 esp, 8

; 2867 : 
; 2868 : #ifdef SCRIPT_DECODE_WORK
; 2869 : 		strcpy(szItemTextFileName, gDirPath.GetNewPath("lang\\jpn\\item(jpn).cwz"));
; 2870 : 		strcpy(szSkillTextFileName, gDirPath.GetNewPath("lang\\jpn\\skill(jpn).cwz"));
; 2871 : 		strcpy(szQuestTextFileName, gDirPath.GetNewPath("lang\\jpn\\Quest(jpn).cwz"));
; 2872 : #else
; 2873 : 		strcpy(szItemTextFileName, gDirPath.GetNewPath("lang\\jpn\\item(jpn).txt"));

  00490	68 00 00 00 00	 push	 OFFSET ??_C@_0BH@GGMLMGEG@lang?2jpn?2item?$CIjpn?$CJ?4txt@
  00495	b9 00 00 00 00	 mov	 ecx, OFFSET ?gDirPath@@3VCDirPath@@A ; gDirPath
  0049a	e8 00 00 00 00	 call	 ?GetNewPath@CDirPath@@QAEPADPAD@Z ; CDirPath::GetNewPath
  0049f	50		 push	 eax
  004a0	68 00 00 00 00	 push	 OFFSET ?szItemTextFileName@@3PADA ; szItemTextFileName
  004a5	e8 00 00 00 00	 call	 _strcpy
  004aa	83 c4 08	 add	 esp, 8

; 2874 : 		strcpy(szSkillTextFileName, gDirPath.GetNewPath("lang\\jpn\\skill(jpn).txt"));

  004ad	68 00 00 00 00	 push	 OFFSET ??_C@_0BI@MHBJLADJ@lang?2jpn?2skill?$CIjpn?$CJ?4txt@
  004b2	b9 00 00 00 00	 mov	 ecx, OFFSET ?gDirPath@@3VCDirPath@@A ; gDirPath
  004b7	e8 00 00 00 00	 call	 ?GetNewPath@CDirPath@@QAEPADPAD@Z ; CDirPath::GetNewPath
  004bc	50		 push	 eax
  004bd	68 00 00 00 00	 push	 OFFSET ?szSkillTextFileName@@3PADA ; szSkillTextFileName
  004c2	e8 00 00 00 00	 call	 _strcpy
  004c7	83 c4 08	 add	 esp, 8

; 2875 : 		strcpy(szQuestTextFileName, gDirPath.GetNewPath("lang\\jpn\\Quest(jpn).txt"));		

  004ca	68 00 00 00 00	 push	 OFFSET ??_C@_0BI@LKHALICC@lang?2jpn?2Quest?$CIjpn?$CJ?4txt@
  004cf	b9 00 00 00 00	 mov	 ecx, OFFSET ?gDirPath@@3VCDirPath@@A ; gDirPath
  004d4	e8 00 00 00 00	 call	 ?GetNewPath@CDirPath@@QAEPADPAD@Z ; CDirPath::GetNewPath
  004d9	50		 push	 eax
  004da	68 00 00 00 00	 push	 OFFSET ?szQuestTextFileName@@3PADA ; szQuestTextFileName
  004df	e8 00 00 00 00	 call	 _strcpy
  004e4	83 c4 08	 add	 esp, 8

; 2876 : #endif
; 2877 : 		//strcpy(szMoveReqFileName, gDirPath.GetNewPath("lang\\jpn\\movereq(jpn).txt"));
; 2878 : 		strcpy(szCheckSum, gDirPath.GetNewPath("lang\\jpn\\CheckSum.dat"));

  004e7	68 00 00 00 00	 push	 OFFSET ??_C@_0BG@FNIPOEKB@lang?2jpn?2CheckSum?4dat@
  004ec	b9 00 00 00 00	 mov	 ecx, OFFSET ?gDirPath@@3VCDirPath@@A ; gDirPath
  004f1	e8 00 00 00 00	 call	 ?GetNewPath@CDirPath@@QAEPADPAD@Z ; CDirPath::GetNewPath
  004f6	50		 push	 eax
  004f7	8d 85 fc fd ff
	ff		 lea	 eax, DWORD PTR _szCheckSum$[ebp]
  004fd	50		 push	 eax
  004fe	e8 00 00 00 00	 call	 _strcpy
  00503	83 c4 08	 add	 esp, 8

; 2879 : 
; 2880 : #ifdef MULTI_CHECKSUM
; 2881 : 		g_MultiChecksum.SetFilePath(gDirPath.GetNewPath("lang\\jpn"));
; 2882 : #endif
; 2883 : 
; 2884 : 		strcpy(szCommonlocIniFileName, gDirPath.GetNewPath("lang\\jpn\\commonloc.cfg"));

  00506	68 00 00 00 00	 push	 OFFSET ??_C@_0BH@FJINJIJL@lang?2jpn?2commonloc?4cfg@
  0050b	b9 00 00 00 00	 mov	 ecx, OFFSET ?gDirPath@@3VCDirPath@@A ; gDirPath
  00510	e8 00 00 00 00	 call	 ?GetNewPath@CDirPath@@QAEPADPAD@Z ; CDirPath::GetNewPath
  00515	50		 push	 eax
  00516	68 00 00 00 00	 push	 OFFSET ?szCommonlocIniFileName@@3PADA ; szCommonlocIniFileName
  0051b	e8 00 00 00 00	 call	 _strcpy
  00520	83 c4 08	 add	 esp, 8

; 2885 : 		
; 2886 : 		strcpy(gCountryName, "Jpn");

  00523	68 00 00 00 00	 push	 OFFSET ??_C@_03IFJNLGMD@Jpn@
  00528	68 00 00 00 00	 push	 OFFSET ?gCountryName@@3PADA ; gCountryName
  0052d	e8 00 00 00 00	 call	 _strcpy
  00532	83 c4 08	 add	 esp, 8

; 2887 : 
; 2888 : 		gNonPK = GetPrivateProfileInt("GameServerInfo", "NonPK", 0, ".\\data\\Serverinfo.dat");

  00535	68 00 00 00 00	 push	 OFFSET ??_C@_0BG@KBGGHHPK@?4?2data?2Serverinfo?4dat@
  0053a	6a 00		 push	 0
  0053c	68 00 00 00 00	 push	 OFFSET ??_C@_05MEMFONJC@NonPK@
  00541	68 00 00 00 00	 push	 OFFSET ??_C@_0P@EMJDPFDH@GameServerInfo@
  00546	ff 15 00 00 00
	00		 call	 DWORD PTR __imp__GetPrivateProfileIntA@16
  0054c	a3 00 00 00 00	 mov	 DWORD PTR ?gNonPK@@3HA, eax ; gNonPK

; 2889 : 		if( gNonPK ) LogAdd("NON-PK Server");

  00551	83 3d 00 00 00
	00 00		 cmp	 DWORD PTR ?gNonPK@@3HA, 0 ; gNonPK
  00558	74 0e		 je	 SHORT $LN15@ReadCommon
  0055a	68 00 00 00 00	 push	 OFFSET ??_C@_0O@GCDDIMLO@NON?9PK?5Server@
  0055f	ff 15 00 00 00
	00		 call	 DWORD PTR ?LogAdd@@3P6AXPADZZA ; LogAdd
  00565	83 c4 04	 add	 esp, 4
$LN15@ReadCommon:

; 2890 : 
; 2891 : #ifdef ADD_PK_LIMIT_FREE_OPTION_20050324
; 2892 : 		gPkLimitFree = GetPrivateProfileInt("GameServerInfo", "PkLimitFree", 0, ".\\data\\Serverinfo.dat");

  00568	68 00 00 00 00	 push	 OFFSET ??_C@_0BG@KBGGHHPK@?4?2data?2Serverinfo?4dat@
  0056d	6a 00		 push	 0
  0056f	68 00 00 00 00	 push	 OFFSET ??_C@_0M@DKICACGN@PkLimitFree@
  00574	68 00 00 00 00	 push	 OFFSET ??_C@_0P@EMJDPFDH@GameServerInfo@
  00579	ff 15 00 00 00
	00		 call	 DWORD PTR __imp__GetPrivateProfileIntA@16
  0057f	a3 00 00 00 00	 mov	 DWORD PTR ?gPkLimitFree@@3HA, eax ; gPkLimitFree

; 2893 : 		if( gPkLimitFree ) LogAdd("PK Limit Free Server");

  00584	83 3d 00 00 00
	00 00		 cmp	 DWORD PTR ?gPkLimitFree@@3HA, 0 ; gPkLimitFree
  0058b	74 0e		 je	 SHORT $LN16@ReadCommon
  0058d	68 00 00 00 00	 push	 OFFSET ??_C@_0BF@KFCGLLGL@PK?5Limit?5Free?5Server@
  00592	ff 15 00 00 00
	00		 call	 DWORD PTR ?LogAdd@@3P6AXPADZZA ; LogAdd
  00598	83 c4 04	 add	 esp, 4
$LN16@ReadCommon:

; 2894 : #endif
; 2895 : 
; 2896 : #ifdef ADD_NEWSERVER_20081113
; 2897 : 		g_bNewServer = GetPrivateProfileInt("GameServerInfo", "NewServer", 0, ".\\data\\Serverinfo.dat");
; 2898 : 		if( g_bNewServer ) LogAdd("New Server");
; 2899 : #endif // ADD_NEWSERVER_20081113
; 2900 : 
; 2901 : #ifdef ADD_NEWSERVER_EVENTOFF_20081114
; 2902 : 		g_bEventOff = GetPrivateProfileInt("GameServerInfo", "EventOff", 0, ".\\data\\Serverinfo.dat");
; 2903 : 		if( g_bEventOff ) LogAdd("EventOff");
; 2904 : #endif // ADD_NEWSERVER_EVENTOFF_20081114
; 2905 : 		break;

  0059b	e9 88 03 00 00	 jmp	 $LN2@ReadCommon
$LN17@ReadCommon:

; 2906 : 
; 2907 : 	case 3 : //  
; 2908 : 		strcpy(szlMsgName, gDirPath.GetNewPath("message_chs.wtf"));

  005a0	68 00 00 00 00	 push	 OFFSET ??_C@_0BA@BADGDLNP@message_chs?4wtf@
  005a5	b9 00 00 00 00	 mov	 ecx, OFFSET ?gDirPath@@3VCDirPath@@A ; gDirPath
  005aa	e8 00 00 00 00	 call	 ?GetNewPath@CDirPath@@QAEPADPAD@Z ; CDirPath::GetNewPath
  005af	50		 push	 eax
  005b0	8d 85 f8 fc ff
	ff		 lea	 eax, DWORD PTR _szlMsgName$[ebp]
  005b6	50		 push	 eax
  005b7	e8 00 00 00 00	 call	 _strcpy
  005bc	83 c4 08	 add	 esp, 8

; 2909 : 
; 2910 : #ifdef SCRIPT_DECODE_WORK
; 2911 : 		strcpy(szItemTextFileName, gDirPath.GetNewPath("lang\\chs\\item(chs).cwz"));
; 2912 : 		strcpy(szSkillTextFileName, gDirPath.GetNewPath("lang\\chs\\skill(chs).cwz"));
; 2913 : 		strcpy(szQuestTextFileName, gDirPath.GetNewPath("lang\\chs\\Quest(chs).cwz"));
; 2914 : #else
; 2915 : 		strcpy(szItemTextFileName, gDirPath.GetNewPath("lang\\chs\\item(chs).txt"));

  005bf	68 00 00 00 00	 push	 OFFSET ??_C@_0BH@IFBABFEE@lang?2chs?2item?$CIchs?$CJ?4txt@
  005c4	b9 00 00 00 00	 mov	 ecx, OFFSET ?gDirPath@@3VCDirPath@@A ; gDirPath
  005c9	e8 00 00 00 00	 call	 ?GetNewPath@CDirPath@@QAEPADPAD@Z ; CDirPath::GetNewPath
  005ce	50		 push	 eax
  005cf	68 00 00 00 00	 push	 OFFSET ?szItemTextFileName@@3PADA ; szItemTextFileName
  005d4	e8 00 00 00 00	 call	 _strcpy
  005d9	83 c4 08	 add	 esp, 8

; 2916 : 		strcpy(szSkillTextFileName, gDirPath.GetNewPath("lang\\chs\\skill(chs).txt"));

  005dc	68 00 00 00 00	 push	 OFFSET ??_C@_0BI@CALDIEFE@lang?2chs?2skill?$CIchs?$CJ?4txt@
  005e1	b9 00 00 00 00	 mov	 ecx, OFFSET ?gDirPath@@3VCDirPath@@A ; gDirPath
  005e6	e8 00 00 00 00	 call	 ?GetNewPath@CDirPath@@QAEPADPAD@Z ; CDirPath::GetNewPath
  005eb	50		 push	 eax
  005ec	68 00 00 00 00	 push	 OFFSET ?szSkillTextFileName@@3PADA ; szSkillTextFileName
  005f1	e8 00 00 00 00	 call	 _strcpy
  005f6	83 c4 08	 add	 esp, 8

; 2917 : 		strcpy(szQuestTextFileName, gDirPath.GetNewPath("lang\\chs\\Quest(chs).txt"));

  005f9	68 00 00 00 00	 push	 OFFSET ??_C@_0BI@FNNKIMEP@lang?2chs?2Quest?$CIchs?$CJ?4txt@
  005fe	b9 00 00 00 00	 mov	 ecx, OFFSET ?gDirPath@@3VCDirPath@@A ; gDirPath
  00603	e8 00 00 00 00	 call	 ?GetNewPath@CDirPath@@QAEPADPAD@Z ; CDirPath::GetNewPath
  00608	50		 push	 eax
  00609	68 00 00 00 00	 push	 OFFSET ?szQuestTextFileName@@3PADA ; szQuestTextFileName
  0060e	e8 00 00 00 00	 call	 _strcpy
  00613	83 c4 08	 add	 esp, 8

; 2918 : #endif
; 2919 : 
; 2920 : 		//strcpy(szMoveReqFileName, gDirPath.GetNewPath("lang\\chs\\movereq(chs).txt"));
; 2921 : 		strcpy(szCheckSum, gDirPath.GetNewPath("lang\\chs\\CheckSum.dat"));

  00616	68 00 00 00 00	 push	 OFFSET ??_C@_0BG@BBGBCMOO@lang?2chs?2CheckSum?4dat@
  0061b	b9 00 00 00 00	 mov	 ecx, OFFSET ?gDirPath@@3VCDirPath@@A ; gDirPath
  00620	e8 00 00 00 00	 call	 ?GetNewPath@CDirPath@@QAEPADPAD@Z ; CDirPath::GetNewPath
  00625	50		 push	 eax
  00626	8d 85 fc fd ff
	ff		 lea	 eax, DWORD PTR _szCheckSum$[ebp]
  0062c	50		 push	 eax
  0062d	e8 00 00 00 00	 call	 _strcpy
  00632	83 c4 08	 add	 esp, 8

; 2922 : 
; 2923 : #ifdef MULTI_CHECKSUM
; 2924 : 		g_MultiChecksum.SetFilePath(gDirPath.GetNewPath("lang\\chs"));
; 2925 : #endif
; 2926 : 
; 2927 : 		strcpy(szCommonlocIniFileName, gDirPath.GetNewPath("lang\\chs\\commonloc.cfg"));

  00635	68 00 00 00 00	 push	 OFFSET ??_C@_0BH@LPKCCKFC@lang?2chs?2commonloc?4cfg@
  0063a	b9 00 00 00 00	 mov	 ecx, OFFSET ?gDirPath@@3VCDirPath@@A ; gDirPath
  0063f	e8 00 00 00 00	 call	 ?GetNewPath@CDirPath@@QAEPADPAD@Z ; CDirPath::GetNewPath
  00644	50		 push	 eax
  00645	68 00 00 00 00	 push	 OFFSET ?szCommonlocIniFileName@@3PADA ; szCommonlocIniFileName
  0064a	e8 00 00 00 00	 call	 _strcpy
  0064f	83 c4 08	 add	 esp, 8

; 2928 : 		
; 2929 : 		strcpy(gCountryName, "Chs");

  00652	68 00 00 00 00	 push	 OFFSET ??_C@_03BFMMGHJN@Chs@
  00657	68 00 00 00 00	 push	 OFFSET ?gCountryName@@3PADA ; gCountryName
  0065c	e8 00 00 00 00	 call	 _strcpy
  00661	83 c4 08	 add	 esp, 8

; 2930 : 
; 2931 : 		gNonPK = GetPrivateProfileInt("GameServerInfo", "NonPK", 0, ".\\data\\Serverinfo.dat");

  00664	68 00 00 00 00	 push	 OFFSET ??_C@_0BG@KBGGHHPK@?4?2data?2Serverinfo?4dat@
  00669	6a 00		 push	 0
  0066b	68 00 00 00 00	 push	 OFFSET ??_C@_05MEMFONJC@NonPK@
  00670	68 00 00 00 00	 push	 OFFSET ??_C@_0P@EMJDPFDH@GameServerInfo@
  00675	ff 15 00 00 00
	00		 call	 DWORD PTR __imp__GetPrivateProfileIntA@16
  0067b	a3 00 00 00 00	 mov	 DWORD PTR ?gNonPK@@3HA, eax ; gNonPK

; 2932 : 		if( gNonPK ) LogAdd("NON-PK Server");

  00680	83 3d 00 00 00
	00 00		 cmp	 DWORD PTR ?gNonPK@@3HA, 0 ; gNonPK
  00687	74 0e		 je	 SHORT $LN18@ReadCommon
  00689	68 00 00 00 00	 push	 OFFSET ??_C@_0O@GCDDIMLO@NON?9PK?5Server@
  0068e	ff 15 00 00 00
	00		 call	 DWORD PTR ?LogAdd@@3P6AXPADZZA ; LogAdd
  00694	83 c4 04	 add	 esp, 4
$LN18@ReadCommon:

; 2933 : 
; 2934 : #ifdef ADD_PK_LIMIT_FREE_OPTION_20050324
; 2935 : 		gPkLimitFree = GetPrivateProfileInt("GameServerInfo", "PkLimitFree", 0, ".\\data\\Serverinfo.dat");

  00697	68 00 00 00 00	 push	 OFFSET ??_C@_0BG@KBGGHHPK@?4?2data?2Serverinfo?4dat@
  0069c	6a 00		 push	 0
  0069e	68 00 00 00 00	 push	 OFFSET ??_C@_0M@DKICACGN@PkLimitFree@
  006a3	68 00 00 00 00	 push	 OFFSET ??_C@_0P@EMJDPFDH@GameServerInfo@
  006a8	ff 15 00 00 00
	00		 call	 DWORD PTR __imp__GetPrivateProfileIntA@16
  006ae	a3 00 00 00 00	 mov	 DWORD PTR ?gPkLimitFree@@3HA, eax ; gPkLimitFree

; 2936 : 		if( gPkLimitFree ) LogAdd("PK Limit Free Server");

  006b3	83 3d 00 00 00
	00 00		 cmp	 DWORD PTR ?gPkLimitFree@@3HA, 0 ; gPkLimitFree
  006ba	74 0e		 je	 SHORT $LN19@ReadCommon
  006bc	68 00 00 00 00	 push	 OFFSET ??_C@_0BF@KFCGLLGL@PK?5Limit?5Free?5Server@
  006c1	ff 15 00 00 00
	00		 call	 DWORD PTR ?LogAdd@@3P6AXPADZZA ; LogAdd
  006c7	83 c4 04	 add	 esp, 4
$LN19@ReadCommon:

; 2937 : #endif
; 2938 : 
; 2939 : #ifdef ADD_NEWSERVER_20081113
; 2940 : 		g_bNewServer = GetPrivateProfileInt("GameServerInfo", "NewServer", 0, ".\\data\\Serverinfo.dat");
; 2941 : 		if( g_bNewServer ) LogAdd("New Server");
; 2942 : #endif // ADD_NEWSERVER_20081113
; 2943 : 
; 2944 : #ifdef ADD_NEWSERVER_EVENTOFF_20081114
; 2945 : 		g_bEventOff = GetPrivateProfileInt("GameServerInfo", "EventOff", 0, ".\\data\\Serverinfo.dat");
; 2946 : 		if( g_bEventOff ) LogAdd("EventOff");
; 2947 : #endif // ADD_NEWSERVER_EVENTOFF_20081114
; 2948 : 		break;

  006ca	e9 59 02 00 00	 jmp	 $LN2@ReadCommon
$LN20@ReadCommon:

; 2949 : 
; 2950 : 	case 4 : //  
; 2951 : 		strcpy(szlMsgName, gDirPath.GetNewPath("message_tai.wtf"));

  006cf	68 00 00 00 00	 push	 OFFSET ??_C@_0BA@FBJNGHMD@message_tai?4wtf@
  006d4	b9 00 00 00 00	 mov	 ecx, OFFSET ?gDirPath@@3VCDirPath@@A ; gDirPath
  006d9	e8 00 00 00 00	 call	 ?GetNewPath@CDirPath@@QAEPADPAD@Z ; CDirPath::GetNewPath
  006de	50		 push	 eax
  006df	8d 85 f8 fc ff
	ff		 lea	 eax, DWORD PTR _szlMsgName$[ebp]
  006e5	50		 push	 eax
  006e6	e8 00 00 00 00	 call	 _strcpy
  006eb	83 c4 08	 add	 esp, 8

; 2952 : 
; 2953 : #ifdef SCRIPT_DECODE_WORK
; 2954 : 		strcpy(szItemTextFileName, gDirPath.GetNewPath("lang\\tai\\item(tai).cwz"));
; 2955 : 		strcpy(szSkillTextFileName, gDirPath.GetNewPath("lang\\tai\\skill(tai).cwz"));
; 2956 : 		strcpy(szQuestTextFileName, gDirPath.GetNewPath("lang\\tai\\Quest(tai).cwz"));
; 2957 : #else
; 2958 : 		strcpy(szItemTextFileName, gDirPath.GetNewPath("lang\\tai\\item(tai).txt"));

  006ee	68 00 00 00 00	 push	 OFFSET ??_C@_0BH@CNPPLEEE@lang?2tai?2item?$CItai?$CJ?4txt@
  006f3	b9 00 00 00 00	 mov	 ecx, OFFSET ?gDirPath@@3VCDirPath@@A ; gDirPath
  006f8	e8 00 00 00 00	 call	 ?GetNewPath@CDirPath@@QAEPADPAD@Z ; CDirPath::GetNewPath
  006fd	50		 push	 eax
  006fe	68 00 00 00 00	 push	 OFFSET ?szItemTextFileName@@3PADA ; szItemTextFileName
  00703	e8 00 00 00 00	 call	 _strcpy
  00708	83 c4 08	 add	 esp, 8

; 2959 : 		strcpy(szSkillTextFileName, gDirPath.GetNewPath("lang\\tai\\skill(tai).txt"));

  0070b	68 00 00 00 00	 push	 OFFSET ??_C@_0BI@LAPBJNMP@lang?2tai?2skill?$CItai?$CJ?4txt@
  00710	b9 00 00 00 00	 mov	 ecx, OFFSET ?gDirPath@@3VCDirPath@@A ; gDirPath
  00715	e8 00 00 00 00	 call	 ?GetNewPath@CDirPath@@QAEPADPAD@Z ; CDirPath::GetNewPath
  0071a	50		 push	 eax
  0071b	68 00 00 00 00	 push	 OFFSET ?szSkillTextFileName@@3PADA ; szSkillTextFileName
  00720	e8 00 00 00 00	 call	 _strcpy
  00725	83 c4 08	 add	 esp, 8

; 2960 : 		strcpy(szQuestTextFileName, gDirPath.GetNewPath("lang\\tai\\Quest(tai).txt"));

  00728	68 00 00 00 00	 push	 OFFSET ??_C@_0BI@MNJIJFNE@lang?2tai?2Quest?$CItai?$CJ?4txt@
  0072d	b9 00 00 00 00	 mov	 ecx, OFFSET ?gDirPath@@3VCDirPath@@A ; gDirPath
  00732	e8 00 00 00 00	 call	 ?GetNewPath@CDirPath@@QAEPADPAD@Z ; CDirPath::GetNewPath
  00737	50		 push	 eax
  00738	68 00 00 00 00	 push	 OFFSET ?szQuestTextFileName@@3PADA ; szQuestTextFileName
  0073d	e8 00 00 00 00	 call	 _strcpy
  00742	83 c4 08	 add	 esp, 8

; 2961 : #endif
; 2962 : 
; 2963 : 		//strcpy(szMoveReqFileName, gDirPath.GetNewPath("lang\\tai\\movereq(tai).txt"));
; 2964 : 		strcpy(szCheckSum, gDirPath.GetNewPath("lang\\tai\\CheckSum.dat"));

  00745	68 00 00 00 00	 push	 OFFSET ??_C@_0BG@NILECFFP@lang?2tai?2CheckSum?4dat@
  0074a	b9 00 00 00 00	 mov	 ecx, OFFSET ?gDirPath@@3VCDirPath@@A ; gDirPath
  0074f	e8 00 00 00 00	 call	 ?GetNewPath@CDirPath@@QAEPADPAD@Z ; CDirPath::GetNewPath
  00754	50		 push	 eax
  00755	8d 85 fc fd ff
	ff		 lea	 eax, DWORD PTR _szCheckSum$[ebp]
  0075b	50		 push	 eax
  0075c	e8 00 00 00 00	 call	 _strcpy
  00761	83 c4 08	 add	 esp, 8

; 2965 : 
; 2966 : #ifdef MULTI_CHECKSUM
; 2967 : 		g_MultiChecksum.SetFilePath(gDirPath.GetNewPath("lang\\tai"));
; 2968 : #endif
; 2969 : 
; 2970 : 		strcpy(szCommonlocIniFileName, gDirPath.GetNewPath("lang\\tai\\commonloc.cfg"));		

  00764	68 00 00 00 00	 push	 OFFSET ??_C@_0BH@DANHMEB@lang?2tai?2commonloc?4cfg@
  00769	b9 00 00 00 00	 mov	 ecx, OFFSET ?gDirPath@@3VCDirPath@@A ; gDirPath
  0076e	e8 00 00 00 00	 call	 ?GetNewPath@CDirPath@@QAEPADPAD@Z ; CDirPath::GetNewPath
  00773	50		 push	 eax
  00774	68 00 00 00 00	 push	 OFFSET ?szCommonlocIniFileName@@3PADA ; szCommonlocIniFileName
  00779	e8 00 00 00 00	 call	 _strcpy
  0077e	83 c4 08	 add	 esp, 8

; 2971 : 		strcpy(gCountryName, "Tai");

  00781	68 00 00 00 00	 push	 OFFSET ??_C@_03GHPOMJOP@Tai@
  00786	68 00 00 00 00	 push	 OFFSET ?gCountryName@@3PADA ; gCountryName
  0078b	e8 00 00 00 00	 call	 _strcpy
  00790	83 c4 08	 add	 esp, 8

; 2972 : 
; 2973 : 		gNonPK = GetPrivateProfileInt("GameServerInfo", "NonPK", 0, ".\\data\\Serverinfo.dat");

  00793	68 00 00 00 00	 push	 OFFSET ??_C@_0BG@KBGGHHPK@?4?2data?2Serverinfo?4dat@
  00798	6a 00		 push	 0
  0079a	68 00 00 00 00	 push	 OFFSET ??_C@_05MEMFONJC@NonPK@
  0079f	68 00 00 00 00	 push	 OFFSET ??_C@_0P@EMJDPFDH@GameServerInfo@
  007a4	ff 15 00 00 00
	00		 call	 DWORD PTR __imp__GetPrivateProfileIntA@16
  007aa	a3 00 00 00 00	 mov	 DWORD PTR ?gNonPK@@3HA, eax ; gNonPK

; 2974 : 		if( gNonPK ) LogAdd("NON-PK Server");

  007af	83 3d 00 00 00
	00 00		 cmp	 DWORD PTR ?gNonPK@@3HA, 0 ; gNonPK
  007b6	74 0e		 je	 SHORT $LN21@ReadCommon
  007b8	68 00 00 00 00	 push	 OFFSET ??_C@_0O@GCDDIMLO@NON?9PK?5Server@
  007bd	ff 15 00 00 00
	00		 call	 DWORD PTR ?LogAdd@@3P6AXPADZZA ; LogAdd
  007c3	83 c4 04	 add	 esp, 4
$LN21@ReadCommon:

; 2975 : 
; 2976 : #ifdef ADD_PK_LIMIT_FREE_OPTION_20050324
; 2977 : 		gPkLimitFree = GetPrivateProfileInt("GameServerInfo", "PkLimitFree", 0, ".\\data\\Serverinfo.dat");

  007c6	68 00 00 00 00	 push	 OFFSET ??_C@_0BG@KBGGHHPK@?4?2data?2Serverinfo?4dat@
  007cb	6a 00		 push	 0
  007cd	68 00 00 00 00	 push	 OFFSET ??_C@_0M@DKICACGN@PkLimitFree@
  007d2	68 00 00 00 00	 push	 OFFSET ??_C@_0P@EMJDPFDH@GameServerInfo@
  007d7	ff 15 00 00 00
	00		 call	 DWORD PTR __imp__GetPrivateProfileIntA@16
  007dd	a3 00 00 00 00	 mov	 DWORD PTR ?gPkLimitFree@@3HA, eax ; gPkLimitFree

; 2978 : 		if( gPkLimitFree ) LogAdd("PK Limit Free Server");

  007e2	83 3d 00 00 00
	00 00		 cmp	 DWORD PTR ?gPkLimitFree@@3HA, 0 ; gPkLimitFree
  007e9	74 0e		 je	 SHORT $LN22@ReadCommon
  007eb	68 00 00 00 00	 push	 OFFSET ??_C@_0BF@KFCGLLGL@PK?5Limit?5Free?5Server@
  007f0	ff 15 00 00 00
	00		 call	 DWORD PTR ?LogAdd@@3P6AXPADZZA ; LogAdd
  007f6	83 c4 04	 add	 esp, 4
$LN22@ReadCommon:

; 2979 : #endif
; 2980 : 
; 2981 : #ifdef ADD_NEWSERVER_20081113
; 2982 : 		g_bNewServer = GetPrivateProfileInt("GameServerInfo", "NewServer", 0, ".\\data\\Serverinfo.dat");
; 2983 : 		if( g_bNewServer ) LogAdd("New Server");
; 2984 : #endif // ADD_NEWSERVER_20081113
; 2985 : 
; 2986 : #ifdef ADD_NEWSERVER_EVENTOFF_20081114
; 2987 : 		g_bEventOff = GetPrivateProfileInt("GameServerInfo", "EventOff", 0, ".\\data\\Serverinfo.dat");
; 2988 : 		if( g_bEventOff ) LogAdd("EventOff");
; 2989 : #endif // ADD_NEWSERVER_EVENTOFF_20081114
; 2990 : 		break;

  007f9	e9 2a 01 00 00	 jmp	 $LN2@ReadCommon
$LN23@ReadCommon:

; 2991 : 
; 2992 : 	case 5 : //  
; 2993 : 		strcpy(szlMsgName, gDirPath.GetNewPath("message_tha.wtf"));

  007fe	68 00 00 00 00	 push	 OFFSET ??_C@_0BA@CIFGKAHN@message_tha?4wtf@
  00803	b9 00 00 00 00	 mov	 ecx, OFFSET ?gDirPath@@3VCDirPath@@A ; gDirPath
  00808	e8 00 00 00 00	 call	 ?GetNewPath@CDirPath@@QAEPADPAD@Z ; CDirPath::GetNewPath
  0080d	50		 push	 eax
  0080e	8d 85 f8 fc ff
	ff		 lea	 eax, DWORD PTR _szlMsgName$[ebp]
  00814	50		 push	 eax
  00815	e8 00 00 00 00	 call	 _strcpy
  0081a	83 c4 08	 add	 esp, 8

; 2994 : 
; 2995 : #ifdef SCRIPT_DECODE_WORK
; 2996 : 		strcpy(szItemTextFileName, gDirPath.GetNewPath("lang\\tha\\item(tha).cwz"));
; 2997 : 		strcpy(szSkillTextFileName, gDirPath.GetNewPath("lang\\tha\\skill(tha).cwz"));
; 2998 : 		strcpy(szQuestTextFileName, gDirPath.GetNewPath("lang\\tha\\Quest(tha).cwz"));
; 2999 : #else
; 3000 : 		strcpy(szItemTextFileName, gDirPath.GetNewPath("lang\\tha\\item(tha).txt"));

  0081d	68 00 00 00 00	 push	 OFFSET ??_C@_0BH@BDPKPKJK@lang?2tha?2item?$CItha?$CJ?4txt@
  00822	b9 00 00 00 00	 mov	 ecx, OFFSET ?gDirPath@@3VCDirPath@@A ; gDirPath
  00827	e8 00 00 00 00	 call	 ?GetNewPath@CDirPath@@QAEPADPAD@Z ; CDirPath::GetNewPath
  0082c	50		 push	 eax
  0082d	68 00 00 00 00	 push	 OFFSET ?szItemTextFileName@@3PADA ; szItemTextFileName
  00832	e8 00 00 00 00	 call	 _strcpy
  00837	83 c4 08	 add	 esp, 8

; 3001 : 		strcpy(szSkillTextFileName, gDirPath.GetNewPath("lang\\tha\\skill(tha).txt"));

  0083a	68 00 00 00 00	 push	 OFFSET ??_C@_0BI@ICECJPPA@lang?2tha?2skill?$CItha?$CJ?4txt@
  0083f	b9 00 00 00 00	 mov	 ecx, OFFSET ?gDirPath@@3VCDirPath@@A ; gDirPath
  00844	e8 00 00 00 00	 call	 ?GetNewPath@CDirPath@@QAEPADPAD@Z ; CDirPath::GetNewPath
  00849	50		 push	 eax
  0084a	68 00 00 00 00	 push	 OFFSET ?szSkillTextFileName@@3PADA ; szSkillTextFileName
  0084f	e8 00 00 00 00	 call	 _strcpy
  00854	83 c4 08	 add	 esp, 8

; 3002 : 		strcpy(szQuestTextFileName, gDirPath.GetNewPath("lang\\tha\\Quest(tha).txt"));

  00857	68 00 00 00 00	 push	 OFFSET ??_C@_0BI@PPCLJHOL@lang?2tha?2Quest?$CItha?$CJ?4txt@
  0085c	b9 00 00 00 00	 mov	 ecx, OFFSET ?gDirPath@@3VCDirPath@@A ; gDirPath
  00861	e8 00 00 00 00	 call	 ?GetNewPath@CDirPath@@QAEPADPAD@Z ; CDirPath::GetNewPath
  00866	50		 push	 eax
  00867	68 00 00 00 00	 push	 OFFSET ?szQuestTextFileName@@3PADA ; szQuestTextFileName
  0086c	e8 00 00 00 00	 call	 _strcpy
  00871	83 c4 08	 add	 esp, 8

; 3003 : #endif
; 3004 : 
; 3005 : 		//strcpy(szMoveReqFileName, gDirPath.GetNewPath("lang\\tha\\movereq(tha).txt"));
; 3006 : 		strcpy(szCheckSum, gDirPath.GetNewPath("lang\\tha\\CheckSum.dat"));

  00874	68 00 00 00 00	 push	 OFFSET ??_C@_0BG@MKEGOHAG@lang?2tha?2CheckSum?4dat@
  00879	b9 00 00 00 00	 mov	 ecx, OFFSET ?gDirPath@@3VCDirPath@@A ; gDirPath
  0087e	e8 00 00 00 00	 call	 ?GetNewPath@CDirPath@@QAEPADPAD@Z ; CDirPath::GetNewPath
  00883	50		 push	 eax
  00884	8d 85 fc fd ff
	ff		 lea	 eax, DWORD PTR _szCheckSum$[ebp]
  0088a	50		 push	 eax
  0088b	e8 00 00 00 00	 call	 _strcpy
  00890	83 c4 08	 add	 esp, 8

; 3007 : 
; 3008 : #ifdef MULTI_CHECKSUM
; 3009 : 		g_MultiChecksum.SetFilePath(gDirPath.GetNewPath("lang\\tha"));
; 3010 : #endif
; 3011 : 
; 3012 : 		strcpy(szCommonlocIniFileName, gDirPath.GetNewPath("lang\\tha\\commonloc.cfg"));		

  00893	68 00 00 00 00	 push	 OFFSET ??_C@_0BH@BBKIGHND@lang?2tha?2commonloc?4cfg@
  00898	b9 00 00 00 00	 mov	 ecx, OFFSET ?gDirPath@@3VCDirPath@@A ; gDirPath
  0089d	e8 00 00 00 00	 call	 ?GetNewPath@CDirPath@@QAEPADPAD@Z ; CDirPath::GetNewPath
  008a2	50		 push	 eax
  008a3	68 00 00 00 00	 push	 OFFSET ?szCommonlocIniFileName@@3PADA ; szCommonlocIniFileName
  008a8	e8 00 00 00 00	 call	 _strcpy
  008ad	83 c4 08	 add	 esp, 8

; 3013 : 		strcpy(gCountryName, "Tha");

  008b0	68 00 00 00 00	 push	 OFFSET ??_C@_03KAPGHIGI@Tha@
  008b5	68 00 00 00 00	 push	 OFFSET ?gCountryName@@3PADA ; gCountryName
  008ba	e8 00 00 00 00	 call	 _strcpy
  008bf	83 c4 08	 add	 esp, 8

; 3014 : 		
; 3015 : 		gNonPK = GetPrivateProfileInt("GameServerInfo", "NonPK", 0, ".\\data\\Serverinfo.dat");

  008c2	68 00 00 00 00	 push	 OFFSET ??_C@_0BG@KBGGHHPK@?4?2data?2Serverinfo?4dat@
  008c7	6a 00		 push	 0
  008c9	68 00 00 00 00	 push	 OFFSET ??_C@_05MEMFONJC@NonPK@
  008ce	68 00 00 00 00	 push	 OFFSET ??_C@_0P@EMJDPFDH@GameServerInfo@
  008d3	ff 15 00 00 00
	00		 call	 DWORD PTR __imp__GetPrivateProfileIntA@16
  008d9	a3 00 00 00 00	 mov	 DWORD PTR ?gNonPK@@3HA, eax ; gNonPK

; 3016 : 		if( gNonPK ) LogAdd("NON-PK Server");

  008de	83 3d 00 00 00
	00 00		 cmp	 DWORD PTR ?gNonPK@@3HA, 0 ; gNonPK
  008e5	74 0e		 je	 SHORT $LN24@ReadCommon
  008e7	68 00 00 00 00	 push	 OFFSET ??_C@_0O@GCDDIMLO@NON?9PK?5Server@
  008ec	ff 15 00 00 00
	00		 call	 DWORD PTR ?LogAdd@@3P6AXPADZZA ; LogAdd
  008f2	83 c4 04	 add	 esp, 4
$LN24@ReadCommon:

; 3017 : 		
; 3018 : #ifdef ADD_PK_LIMIT_FREE_OPTION_20050324
; 3019 : 		gPkLimitFree = GetPrivateProfileInt("GameServerInfo", "PkLimitFree", 0, ".\\data\\Serverinfo.dat");

  008f5	68 00 00 00 00	 push	 OFFSET ??_C@_0BG@KBGGHHPK@?4?2data?2Serverinfo?4dat@
  008fa	6a 00		 push	 0
  008fc	68 00 00 00 00	 push	 OFFSET ??_C@_0M@DKICACGN@PkLimitFree@
  00901	68 00 00 00 00	 push	 OFFSET ??_C@_0P@EMJDPFDH@GameServerInfo@
  00906	ff 15 00 00 00
	00		 call	 DWORD PTR __imp__GetPrivateProfileIntA@16
  0090c	a3 00 00 00 00	 mov	 DWORD PTR ?gPkLimitFree@@3HA, eax ; gPkLimitFree

; 3020 : 		if( gPkLimitFree ) LogAdd("PK Limit Free Server");

  00911	83 3d 00 00 00
	00 00		 cmp	 DWORD PTR ?gPkLimitFree@@3HA, 0 ; gPkLimitFree
  00918	74 0e		 je	 SHORT $LN25@ReadCommon
  0091a	68 00 00 00 00	 push	 OFFSET ??_C@_0BF@KFCGLLGL@PK?5Limit?5Free?5Server@
  0091f	ff 15 00 00 00
	00		 call	 DWORD PTR ?LogAdd@@3P6AXPADZZA ; LogAdd
  00925	83 c4 04	 add	 esp, 4
$LN25@ReadCommon:
$LN2@ReadCommon:

; 3021 : #endif
; 3022 : 
; 3023 : #ifdef ADD_NEWSERVER_20081113
; 3024 : 		g_bNewServer = GetPrivateProfileInt("GameServerInfo", "NewServer", 0, ".\\data\\Serverinfo.dat");
; 3025 : 		if( g_bNewServer ) LogAdd("New Server");
; 3026 : #endif // ADD_NEWSERVER_20081113
; 3027 : 
; 3028 : #ifdef ADD_NEWSERVER_EVENTOFF_20081114
; 3029 : 		g_bEventOff = GetPrivateProfileInt("GameServerInfo", "EventOff", 0, ".\\data\\Serverinfo.dat");
; 3030 : 		if( g_bEventOff ) LogAdd("EventOff");
; 3031 : #endif // ADD_NEWSERVER_EVENTOFF_20081114
; 3032 : 		break;
; 3033 : 	
; 3034 : #ifdef FOR_PHILIPPINE		
; 3035 : 	case 6 : //  
; 3036 : 		strcpy(szlMsgName, gDirPath.GetNewPath("message_phi.wtf"));
; 3037 : 
; 3038 : #ifdef SCRIPT_DECODE_WORK
; 3039 : 		strcpy(szItemTextFileName, gDirPath.GetNewPath("lang\\phi\\item(phi).cwz"));
; 3040 : 		strcpy(szSkillTextFileName, gDirPath.GetNewPath("lang\\phi\\skill(phi).cwz"));
; 3041 : 		strcpy(szQuestTextFileName, gDirPath.GetNewPath("lang\\phi\\Quest(phi).cwz"));
; 3042 : #else
; 3043 : 		strcpy(szItemTextFileName, gDirPath.GetNewPath("lang\\phi\\item(phi).txt"));
; 3044 : 		strcpy(szSkillTextFileName, gDirPath.GetNewPath("lang\\phi\\skill(phi).txt"));
; 3045 : 		strcpy(szQuestTextFileName, gDirPath.GetNewPath("lang\\phi\\Quest(phi).txt"));
; 3046 : #endif
; 3047 : 
; 3048 : 		//strcpy(szMoveReqFileName, gDirPath.GetNewPath("lang\\phi\\movereq(phi).txt"));
; 3049 : 		strcpy(szCheckSum, gDirPath.GetNewPath("lang\\phi\\CheckSum.dat"));
; 3050 : 
; 3051 : #ifdef MULTI_CHECKSUM
; 3052 : 		g_MultiChecksum.SetFilePath(gDirPath.GetNewPath("lang\\phi"));
; 3053 : #endif
; 3054 : 
; 3055 : 		strcpy(szCommonlocIniFileName, gDirPath.GetNewPath("lang\\phi\\commonloc.cfg"));		
; 3056 : 		strcpy(gCountryName, "Phi");
; 3057 : 		
; 3058 : 		gNonPK = GetPrivateProfileInt("GameServerInfo", "NonPK", 0, ".\\data\\Serverinfo.dat");
; 3059 : 		if( gNonPK ) LogAdd("NON-PK Server");
; 3060 : 		
; 3061 : #ifdef ADD_PK_LIMIT_FREE_OPTION_20050324
; 3062 : 		gPkLimitFree = GetPrivateProfileInt("GameServerInfo", "PkLimitFree", 0, ".\\data\\Serverinfo.dat");
; 3063 : 		if( gPkLimitFree ) LogAdd("PK Limit Free Server");
; 3064 : #endif
; 3065 : 
; 3066 : #ifdef ADD_NEWSERVER_20081113
; 3067 : 		g_bNewServer = GetPrivateProfileInt("GameServerInfo", "NewServer", 0, ".\\data\\Serverinfo.dat");
; 3068 : 		if( g_bNewServer ) LogAdd("New Server");
; 3069 : #endif // ADD_NEWSERVER_20081113
; 3070 : 
; 3071 : #ifdef ADD_NEWSERVER_EVENTOFF_20081114
; 3072 : 		g_bEventOff = GetPrivateProfileInt("GameServerInfo", "EventOff", 0, ".\\data\\Serverinfo.dat");
; 3073 : 		if( g_bEventOff ) LogAdd("EventOff");
; 3074 : #endif // ADD_NEWSERVER_EVENTOFF_20081114
; 3075 : 		break;
; 3076 : #endif
; 3077 : 
; 3078 : #ifdef FOR_VIETNAM		// 
; 3079 : 	case 7 :
; 3080 : 		strcpy(szlMsgName, gDirPath.GetNewPath("message_vtm.wtf"));
; 3081 : 
; 3082 : #ifdef SCRIPT_DECODE_WORK
; 3083 : 		strcpy(szItemTextFileName, gDirPath.GetNewPath("lang\\vtm\\item(vtm).cwz"));
; 3084 : 		strcpy(szSkillTextFileName, gDirPath.GetNewPath("lang\\vtm\\skill(vtm).cwz"));
; 3085 : 		strcpy(szQuestTextFileName, gDirPath.GetNewPath("lang\\vtm\\Quest(vtm).cwz"));
; 3086 : #else
; 3087 : 		strcpy(szItemTextFileName, gDirPath.GetNewPath("lang\\vtm\\item(vtm).txt"));
; 3088 : 		strcpy(szSkillTextFileName, gDirPath.GetNewPath("lang\\vtm\\skill(vtm).txt"));
; 3089 : 		strcpy(szQuestTextFileName, gDirPath.GetNewPath("lang\\vtm\\Quest(vtm).txt"));
; 3090 : #endif
; 3091 : 
; 3092 : 		//strcpy(szMoveReqFileName, gDirPath.GetNewPath("lang\\vtm\\movereq(vtm).txt"));
; 3093 : 		strcpy(szCheckSum, gDirPath.GetNewPath("lang\\vtm\\CheckSum.dat"));
; 3094 : 
; 3095 : #ifdef MULTI_CHECKSUM
; 3096 : 		g_MultiChecksum.SetFilePath(gDirPath.GetNewPath("lang\\vtm"));
; 3097 : #endif
; 3098 : 
; 3099 : 		strcpy(szCommonlocIniFileName, gDirPath.GetNewPath("lang\\vtm\\commonloc.cfg"));		
; 3100 : 		strcpy(gCountryName, "Vtm");
; 3101 : 		
; 3102 : 		gNonPK = GetPrivateProfileInt("GameServerInfo", "NonPK", 0, ".\\data\\Serverinfo.dat");
; 3103 : 		if( gNonPK ) LogAdd("NON-PK Server");
; 3104 : 		
; 3105 : #ifdef ADD_PK_LIMIT_FREE_OPTION_20050324
; 3106 : 		gPkLimitFree = GetPrivateProfileInt("GameServerInfo", "PkLimitFree", 0, ".\\data\\Serverinfo.dat");
; 3107 : 		if( gPkLimitFree ) LogAdd("PK Limit Free Server");
; 3108 : #endif
; 3109 : 
; 3110 : #ifdef ADD_NEWSERVER_20081113
; 3111 : 		g_bNewServer = GetPrivateProfileInt("GameServerInfo", "NewServer", 0, ".\\data\\Serverinfo.dat");
; 3112 : 		if( g_bNewServer ) LogAdd("New Server");
; 3113 : #endif // ADD_NEWSERVER_20081113
; 3114 : 
; 3115 : #ifdef ADD_NEWSERVER_EVENTOFF_20081114
; 3116 : 		g_bEventOff = GetPrivateProfileInt("GameServerInfo", "EventOff", 0, ".\\data\\Serverinfo.dat");
; 3117 : 		if( g_bEventOff ) LogAdd("EventOff");
; 3118 : #endif // ADD_NEWSERVER_EVENTOFF_20081114
; 3119 : 		break;
; 3120 : #endif
; 3121 : 
; 3122 : #ifdef FOR_USA		// 
; 3123 : 	case 8 :
; 3124 : 		strcpy(szlMsgName, gDirPath.GetNewPath("message_usa.wtf"));
; 3125 : 
; 3126 : #ifdef SCRIPT_DECODE_WORK
; 3127 : 		strcpy(szItemTextFileName, gDirPath.GetNewPath("lang\\usa\\item(usa).cwz"));
; 3128 : 		strcpy(szSkillTextFileName, gDirPath.GetNewPath("lang\\usa\\skill(usa).cwz"));
; 3129 : 		strcpy(szQuestTextFileName, gDirPath.GetNewPath("lang\\usa\\Quest(usa).cwz"));
; 3130 : #else
; 3131 : 		strcpy(szItemTextFileName, gDirPath.GetNewPath("lang\\usa\\item(usa).txt"));
; 3132 : 		strcpy(szSkillTextFileName, gDirPath.GetNewPath("lang\\usa\\skill(usa).txt"));
; 3133 : 		strcpy(szQuestTextFileName, gDirPath.GetNewPath("lang\\usa\\Quest(usa).txt"));
; 3134 : #endif
; 3135 : 
; 3136 : 		//strcpy(szMoveReqFileName, gDirPath.GetNewPath("lang\\usa\\movereq(usa).txt"));
; 3137 : 		strcpy(szCheckSum, gDirPath.GetNewPath("lang\\usa\\CheckSum.dat"));
; 3138 : 
; 3139 : #ifdef MULTI_CHECKSUM
; 3140 : 		g_MultiChecksum.SetFilePath(gDirPath.GetNewPath("lang\\usa"));
; 3141 : #endif
; 3142 : 
; 3143 : 		strcpy(szCommonlocIniFileName, gDirPath.GetNewPath("lang\\usa\\commonloc.cfg"));		
; 3144 : 		strcpy(gCountryName, "usa");
; 3145 : 		
; 3146 : 		gNonPK = GetPrivateProfileInt("GameServerInfo", "NonPK", 0, ".\\data\\Serverinfo.dat");
; 3147 : 		if( gNonPK ) LogAdd("NON-PK Server");
; 3148 : 		
; 3149 : #ifdef ADD_PK_LIMIT_FREE_OPTION_20050324
; 3150 : 		gPkLimitFree = GetPrivateProfileInt("GameServerInfo", "PkLimitFree", 0, ".\\data\\Serverinfo.dat");
; 3151 : 		if( gPkLimitFree ) LogAdd("PK Limit Free Server");
; 3152 : #endif
; 3153 : 
; 3154 : #ifdef ADD_NEWSERVER_20081113
; 3155 : 		g_bNewServer = GetPrivateProfileInt("GameServerInfo", "NewServer", 0, ".\\data\\Serverinfo.dat");
; 3156 : 		if( g_bNewServer ) LogAdd("New Server");
; 3157 : #endif // ADD_NEWSERVER_20081113
; 3158 : 
; 3159 : #ifdef ADD_NEWSERVER_EVENTOFF_20081114
; 3160 : 		g_bEventOff = GetPrivateProfileInt("GameServerInfo", "EventOff", 0, ".\\data\\Serverinfo.dat");
; 3161 : 		if( g_bEventOff ) LogAdd("EventOff");
; 3162 : #endif // ADD_NEWSERVER_EVENTOFF_20081114
; 3163 : 		break;
; 3164 : #endif // FOR_USA
; 3165 : 
; 3166 : 	}	
; 3167 : 
; 3168 : #ifdef MULTI_CHECKSUM
; 3169 : 	g_MultiChecksum.SetFilePath(gDirPath.GetNewPath("lang\\main"));
; 3170 : #endif
; 3171 : 
; 3172 : 	strcpy(szCheckSum, gDirPath.GetNewPath("lang\\main\\CheckSum.dat"));

  00928	68 00 00 00 00	 push	 OFFSET ??_C@_0BH@ELPPJFKD@lang?2main?2CheckSum?4dat@
  0092d	b9 00 00 00 00	 mov	 ecx, OFFSET ?gDirPath@@3VCDirPath@@A ; gDirPath
  00932	e8 00 00 00 00	 call	 ?GetNewPath@CDirPath@@QAEPADPAD@Z ; CDirPath::GetNewPath
  00937	50		 push	 eax
  00938	8d 85 fc fd ff
	ff		 lea	 eax, DWORD PTR _szCheckSum$[ebp]
  0093e	50		 push	 eax
  0093f	e8 00 00 00 00	 call	 _strcpy
  00944	83 c4 08	 add	 esp, 8

; 3173 : 	strcpy(szCommonlocIniFileName, gDirPath.GetNewPath("lang\\main\\commonloc.cfg"));

  00947	68 00 00 00 00	 push	 OFFSET ??_C@_0BI@LHJFIJMG@lang?2main?2commonloc?4cfg@
  0094c	b9 00 00 00 00	 mov	 ecx, OFFSET ?gDirPath@@3VCDirPath@@A ; gDirPath
  00951	e8 00 00 00 00	 call	 ?GetNewPath@CDirPath@@QAEPADPAD@Z ; CDirPath::GetNewPath
  00956	50		 push	 eax
  00957	68 00 00 00 00	 push	 OFFSET ?szCommonlocIniFileName@@3PADA ; szCommonlocIniFileName
  0095c	e8 00 00 00 00	 call	 _strcpy
  00961	83 c4 08	 add	 esp, 8

; 3174 : 
; 3175 : 	CheckSumFileLoad(szCheckSum);

  00964	8d 85 fc fd ff
	ff		 lea	 eax, DWORD PTR _szCheckSum$[ebp]
  0096a	50		 push	 eax
  0096b	e8 00 00 00 00	 call	 ?CheckSumFileLoad@@YAXPAD@Z ; CheckSumFileLoad
  00970	83 c4 04	 add	 esp, 4

; 3176 : 
; 3177 : #ifdef CHANGE_CHAOSCASTLE_SET_ITEM_DROP
; 3178 : 	if( !gChaosCastleSetItemDrop.Load(gDirPath.GetNewPath("CCSetItemDropRate.txt")) )
; 3179 : 	{
; 3180 : 		MsgBox("CCSetItemDropRate.txt Load Fail");
; 3181 : 	}
; 3182 : #endif
; 3183 : 
; 3184 : 
; 3185 : #ifdef NPROTECT_GAME_GAURD_FOR_SERVER_VERSION_10_20050411
; 3186 : 	int bret = LoadAuthTable(gDirPath.GetNewPath("CSAuth.tab"));
; 3187 : 	if( bret != 8 )
; 3188 : 	{
; 3189 : 		MsgBox("CSAuth File Load Fail");
; 3190 : 	}
; 3191 : 
; 3192 : 	#ifdef NPROTECT_GAME_GAURD_FOR_SERVER_VERSION_15_20050411
; 3193 : 	bret = LoadAuthIndex(gDirPath.GetNewPath("CSAuth.idx"));
; 3194 : 	if( bret != 1 )
; 3195 : 	{
; 3196 : 		MsgBox("CSAuth.idx File Load Fail");
; 3197 : 	}	
; 3198 : 	#endif // NPROTECT_GAME_GAURD_FOR_SERVER_VERSION_15_20050411
; 3199 : #endif // NPROTECT_GAME_GAURD_FOR_SERVER_VERSION_10_20050411
; 3200 : 
; 3201 : #ifdef NPROTECT_GAME_GAURD_FOR_SERVER_VERSION_20_20050411
; 3202 : 	DWORD dwGGErrCode;
; 3203 : 
; 3204 : 	//          
; 3205 : //	dwGGErrCode = InitGameguardAuth(FP_DLL_GAME_GAURD_AUTHENTICATION, MAX_USER);
; 3206 : 	dwGGErrCode = InitGameguardAuth("", MAX_USER);
; 3207 : 	if(dwGGErrCode != ERROR_SUCCESS)
; 3208 : 	{
; 3209 : 		MsgBox("Failed initialization of GameGaurd !!! , Error: %d", dwGGErrCode);
; 3210 : 		return;
; 3211 : 	}
; 3212 : 
; 3213 : #endif // NPROTECT_GAME_GAURD_FOR_SERVER_VERSION_20_20050411
; 3214 : 
; 3215 : #ifdef NPROTECT_GAME_GAURD_FOR_SERVER_VERSION_25_20060123
; 3216 : 	DWORD dwGGErrCode;
; 3217 : 
; 3218 : 	//          
; 3219 : 	// M    .
; 3220 : #ifdef MODIFY_GAMEGUARD_AUTH_MAX_USER_20060517
; 3221 : 	dwGGErrCode = InitGameguardAuth25( gDirPath.GetNewPath(""), 10, false, NPLOG_ERROR | NPLOG_DEBUG );
; 3222 : #else
; 3223 : 	dwGGErrCode = InitGameguardAuth25( gDirPath.GetNewPath(""), MAX_USER_FOR_GAMEGUARD_AUTH, false, NPLOG_ERROR);
; 3224 : #endif
; 3225 : 	if(dwGGErrCode != ERROR_SUCCESS)
; 3226 : 	{
; 3227 : 		MsgBox("Failed initialization of GameGaurd !!! , Error: %d", dwGGErrCode);
; 3228 : 		return;
; 3229 : 	}
; 3230 : 
; 3231 : 	LogAddTD("[GameGuard][Init] - GameGuard 2.5 Version Loaded.");
; 3232 : 	char szGameGuardModuleInfo[256];
; 3233 : 	ModuleInfo25( szGameGuardModuleInfo, 256);
; 3234 : 	LogAddTD("[GameGuard][Module Info] - %s", szGameGuardModuleInfo);
; 3235 : #endif
; 3236 : 
; 3237 : #ifdef MULTI_CHECKSUM
; 3238 : 	g_MultiChecksum.LoadFile();
; 3239 : #endif
; 3240 : 
; 3241 : 	lMsg.LoadWTF(szlMsgName);

  00973	8d 85 f8 fc ff
	ff		 lea	 eax, DWORD PTR _szlMsgName$[ebp]
  00979	50		 push	 eax
  0097a	b9 00 00 00 00	 mov	 ecx, OFFSET ?lMsg@@3VCMsg@@A ; lMsg
  0097f	ff 15 00 00 00
	00		 call	 DWORD PTR __imp_?LoadWTF@CMsg@@QAEXPAD@Z

; 3242 : 
; 3243 : 	SetMapName();

  00985	e8 00 00 00 00	 call	 ?SetMapName@@YAXXZ	; SetMapName

; 3244 : 
; 3245 : #ifdef AUTH_GAMESERVER		
; 3246 : 	gGameServerAuth.RequestData(FILE_ITEM);
; 3247 : 	DataBufferSize = gGameServerAuth.GetDataBufferSize();
; 3248 : 	DataBuffer = gGameServerAuth.GetDataBuffer();
; 3249 : 	OpenItemScript(DataBuffer, DataBufferSize);
; 3250 : #else
; 3251 : 	#ifdef SCRIPT_DECODE_WORK
; 3252 : 		if( OpenItemScriptDecode(szKorItemTextFileName) == FALSE )	
; 3253 : 			MsgBox(lMsg.Get(419));
; 3254 : 	#else
; 3255 : 		//     
; 3256 : 		if( OpenItemScript(szKorItemTextFileName) == FALSE )	

  0098a	68 00 00 00 00	 push	 OFFSET ?szKorItemTextFileName@@3PADA ; szKorItemTextFileName
  0098f	e8 00 00 00 00	 call	 ?OpenItemScript@@YAHPAD@Z ; OpenItemScript
  00994	83 c4 04	 add	 esp, 4
  00997	85 c0		 test	 eax, eax
  00999	75 19		 jne	 SHORT $LN26@ReadCommon

; 3257 : 			MsgBox(lMsg.Get(419));

  0099b	68 a3 01 00 00	 push	 419			; 000001a3H
  009a0	b9 00 00 00 00	 mov	 ecx, OFFSET ?lMsg@@3VCMsg@@A ; lMsg
  009a5	ff 15 00 00 00
	00		 call	 DWORD PTR __imp_?Get@CMsg@@QAEPADH@Z
  009ab	50		 push	 eax
  009ac	e8 00 00 00 00	 call	 ?MsgBox@@YAXPADZZ	; MsgBox
  009b1	83 c4 04	 add	 esp, 4
$LN26@ReadCommon:

; 3258 : 	#endif
; 3259 : #endif
; 3260 : 
; 3261 : #if 0
; 3262 : #ifdef AUTH_GAMESERVER		
; 3263 : 	if( gLanguage != 0 )
; 3264 : 	{
; 3265 : 		gGameServerAuth.RequestData(FILE_ITEMLOCAL);
; 3266 : 		DataBufferSize = gGameServerAuth.GetDataBufferSize();
; 3267 : 		DataBuffer = gGameServerAuth.GetDataBuffer();
; 3268 : 		OpenItemNameScript(DataBuffer, DataBufferSize);
; 3269 : 	}
; 3270 : #else
; 3271 : 	#ifdef SCRIPT_DECODE_WORK
; 3272 : 		if( gLanguage != 0 )
; 3273 : 		{	//       
; 3274 : 			if( OpenItemNameScriptDecode(szItemTextFileName) == FALSE )
; 3275 : 				MsgBox(lMsg.Get(419));
; 3276 : 		}
; 3277 : 	#else
; 3278 : 		if( gLanguage != 0 )
; 3279 : 		{	//       
; 3280 : 			if( OpenItemNameScript(szItemTextFileName) == FALSE )
; 3281 : 				MsgBox(lMsg.Get(419));
; 3282 : 		}
; 3283 : 	#endif
; 3284 : #endif
; 3285 : #endif
; 3286 : 
; 3287 : #ifdef AUTH_GAMESERVER		
; 3288 : 	gGameServerAuth.RequestData(FILE_SKILL);
; 3289 : 	DataBufferSize = gGameServerAuth.GetDataBufferSize();
; 3290 : 	DataBuffer = gGameServerAuth.GetDataBuffer();
; 3291 : 	MagicDamageC.LogSkillList(DataBuffer, DataBufferSize);
; 3292 : 
; 3293 : #if 0
; 3294 : 	if( gLanguage != 0 )
; 3295 : 	{	//       
; 3296 : 		gGameServerAuth.RequestData(FILE_SKILLLOCAL);
; 3297 : 		DataBufferSize = gGameServerAuth.GetDataBufferSize();
; 3298 : 		DataBuffer = gGameServerAuth.GetDataBuffer();
; 3299 : 		MagicDamageC.LogSkillNameList(DataBuffer, DataBufferSize);		
; 3300 : 	}
; 3301 : #endif
; 3302 : #else
; 3303 : 	#ifdef SCRIPT_DECODE_WORK
; 3304 : 		// Skill.txt 
; 3305 : 		MagicDamageC.LogSkillListDecode(szKorSkillTextFileName);
; 3306 : 		//MagicDamageC.LogSkillList(szSkillTextFileName);	
; 3307 : #if 0
; 3308 : 		if( gLanguage != 0 )
; 3309 : 
; 3310 : 		{	//       
; 3311 : 			MagicDamageC.LogSkillNameListDecode(szSkillTextFileName);
; 3312 : 		}
; 3313 : #endif
; 3314 : 	#else
; 3315 : 		// Skill.txt 
; 3316 : 		MagicDamageC.LogSkillList(szKorSkillTextFileName);

  009b4	68 00 00 00 00	 push	 OFFSET ?szKorSkillTextFileName@@3PADA ; szKorSkillTextFileName
  009b9	b9 00 00 00 00	 mov	 ecx, OFFSET ?MagicDamageC@@3VCMagicDamage@@A ; MagicDamageC
  009be	e8 00 00 00 00	 call	 ?LogSkillList@CMagicDamage@@QAEXPAD@Z ; CMagicDamage::LogSkillList

; 3317 : 		//MagicDamageC.LogSkillList(szSkillTextFileName);	
; 3318 : #if 0
; 3319 : 		if( gLanguage != 0 )
; 3320 : 		
; 3321 : 		{	//       
; 3322 : 			MagicDamageC.LogSkillNameList(szSkillTextFileName);
; 3323 : 		}
; 3324 : #endif
; 3325 : 	#endif
; 3326 : #endif
; 3327 : 
; 3328 : #ifdef CHINA_HACKUSER_KICK_SYSTEM		
; 3329 : 		ChinaHackUserKick.Init();
; 3330 : #endif
; 3331 : 
; 3332 : #ifdef DARKLORD_WORK
; 3333 : 		SkillSpearHitBox.Load(gDirPath.GetNewPath("skillSpear.hit"));

  009c3	68 00 00 00 00	 push	 OFFSET ??_C@_0P@NPIOLEMH@skillSpear?4hit@
  009c8	b9 00 00 00 00	 mov	 ecx, OFFSET ?gDirPath@@3VCDirPath@@A ; gDirPath
  009cd	e8 00 00 00 00	 call	 ?GetNewPath@CDirPath@@QAEPADPAD@Z ; CDirPath::GetNewPath
  009d2	50		 push	 eax
  009d3	b9 00 00 00 00	 mov	 ecx, OFFSET ?SkillSpearHitBox@@3VCSkillHitBox@@A ; SkillSpearHitBox
  009d8	e8 00 00 00 00	 call	 ?Load@CSkillHitBox@@QAEHPAD@Z ; CSkillHitBox::Load

; 3334 : 		SkillElectricSparkHitBox.Load(gDirPath.GetNewPath("skillElect.hit"));

  009dd	68 00 00 00 00	 push	 OFFSET ??_C@_0P@POAMAGDJ@skillElect?4hit@
  009e2	b9 00 00 00 00	 mov	 ecx, OFFSET ?gDirPath@@3VCDirPath@@A ; gDirPath
  009e7	e8 00 00 00 00	 call	 ?GetNewPath@CDirPath@@QAEPADPAD@Z ; CDirPath::GetNewPath
  009ec	50		 push	 eax
  009ed	b9 00 00 00 00	 mov	 ecx, OFFSET ?SkillElectricSparkHitBox@@3VCSkillHitBox@@A ; SkillElectricSparkHitBox
  009f2	e8 00 00 00 00	 call	 ?Load@CSkillHitBox@@QAEHPAD@Z ; CSkillHitBox::Load

; 3335 : #endif
; 3336 : 		
; 3337 : #ifdef WORLD_TOURNAMENT_EVENT_SETTING
; 3338 : 		gWTEventItemList.Load(gDirPath.GetNewPath("wt_ItemList.txt"));
; 3339 : #endif
; 3340 : 
; 3341 : #ifdef FOR_CASTLE_TESTSERVER
; 3342 : 		g_CastleEventItemList.Load( gDirPath.GetNewPath("CastleEvent_ItemList.txt") );
; 3343 : #endif
; 3344 : 
; 3345 : #ifdef AUTH_GAMESERVER
; 3346 : 	gGameServerAuth.RequestData(FILE_SETITEMOPTION);
; 3347 : 	DataBufferSize = gGameServerAuth.GetDataBufferSize();
; 3348 : 	DataBuffer = gGameServerAuth.GetDataBuffer();	
; 3349 : 	gSetItemOption.LoadOptionInfo(DataBuffer, DataBufferSize);
; 3350 : 
; 3351 : 	gGameServerAuth.RequestData(FILE_SETITEMTYPE);
; 3352 : 	DataBufferSize = gGameServerAuth.GetDataBufferSize();
; 3353 : 	DataBuffer = gGameServerAuth.GetDataBuffer();
; 3354 : 	gSetItemOption.LoadTypeInfo(DataBuffer, DataBufferSize);
; 3355 : #elif GAME_VERSION >= G_V_99B
; 3356 : 	gSetItemOption.LoadOptionInfo(gDirPath.GetNewPath("lang\\main\\itemsetoption.txt"));

  009f7	68 00 00 00 00	 push	 OFFSET ??_C@_0BM@FIJENIG@lang?2main?2itemsetoption?4txt@
  009fc	b9 00 00 00 00	 mov	 ecx, OFFSET ?gDirPath@@3VCDirPath@@A ; gDirPath
  00a01	e8 00 00 00 00	 call	 ?GetNewPath@CDirPath@@QAEPADPAD@Z ; CDirPath::GetNewPath
  00a06	50		 push	 eax
  00a07	b9 00 00 00 00	 mov	 ecx, OFFSET ?gSetItemOption@@3VCSetItemOption@@A ; gSetItemOption
  00a0c	e8 00 00 00 00	 call	 ?LoadOptionInfo@CSetItemOption@@QAEHPAD@Z ; CSetItemOption::LoadOptionInfo

; 3357 : 	gSetItemOption.LoadTypeInfo(gDirPath.GetNewPath("lang\\main\\itemsettype.txt"));

  00a11	68 00 00 00 00	 push	 OFFSET ??_C@_0BK@BHDBGJAM@lang?2main?2itemsettype?4txt@
  00a16	b9 00 00 00 00	 mov	 ecx, OFFSET ?gDirPath@@3VCDirPath@@A ; gDirPath
  00a1b	e8 00 00 00 00	 call	 ?GetNewPath@CDirPath@@QAEPADPAD@Z ; CDirPath::GetNewPath
  00a20	50		 push	 eax
  00a21	b9 00 00 00 00	 mov	 ecx, OFFSET ?gSetItemOption@@3VCSetItemOption@@A ; gSetItemOption
  00a26	e8 00 00 00 00	 call	 ?LoadTypeInfo@CSetItemOption@@QAEHPAD@Z ; CSetItemOption::LoadTypeInfo

; 3358 : #endif
; 3359 : 
; 3360 : #ifdef ADD_MACRO_FOR_SETITEM_20060424
; 3361 : 	gSetItemMacro.Load(gDirPath.GetNewPath("SetMacro_ItemList.txt"));
; 3362 : #endif
; 3363 : 
; 3364 : #ifdef ADD_JEWEL_OF_HARMONY_SYSTEM_20060530
; 3365 : 		g_kJewelOfHarmonySystem.LoadScript( gDirPath.GetNewPath("JewelOfHarmonyOption.txt"));
; 3366 : 		g_kJewelOfHarmonySystem.LoadScriptOfSmelt( gDirPath.GetNewPath("JewelOfHarmonySmelt.txt"));
; 3367 : #endif // ADD_JEWEL_OF_HARMONY_SYSTEM_20060530
; 3368 : 
; 3369 : #ifdef ADD_380ITEM_NEWOPTION_20060711
; 3370 : 		g_kItemSystemFor380.Load380ItemOptionInfo( gDirPath.GetNewPath("ItemAddOption.txt"));
; 3371 : #endif // ADD_380ITEM_NEWOPTION_20060711
; 3372 : 
; 3373 : #ifdef ITEM_ADD_OPTION_20061019
; 3374 : 		g_ItemAddOption.Load( gDirPath.GetNewPath("ItemAddOption.txt"));
; 3375 : #endif // ITEM_ADD_OPTION_20061019
; 3376 : 
; 3377 : #ifdef MASTER_LEVEL_SKILL_SYSTEM_20071122	// MasterSkillTree.txt Load
; 3378 : 		g_MasterSkillSystem.Load( gDirPath.GetNewPath( "MasterSkillTree.txt" ) );
; 3379 : #endif
; 3380 : 
; 3381 : #ifdef ADD_ITEM_SOCKET_OPTION_SYSTEM_20080415
; 3382 : 		g_SocketOptionSystem.LoadOptionScript( gDirPath.GetNewPath( "socketitem.txt" ) );
; 3383 : #endif // ADD_ITEM_SOCKET_OPTION_SYSTEM_20080415
; 3384 : 
; 3385 : #ifdef ADD_MOVE_COMMAND_SCRIPT
; 3386 : 
; 3387 : #ifdef AUTH_GAMESERVER
; 3388 : 	gGameServerAuth.RequestData(FILE_MOVEREQ);
; 3389 : 	DataBufferSize = gGameServerAuth.GetDataBufferSize();
; 3390 : 	DataBuffer = gGameServerAuth.GetDataBuffer();	
; 3391 : 	gMoveCommand.Load(DataBuffer, DataBufferSize);
; 3392 : #else
; 3393 : 	gMoveCommand.Load(szMoveReqFileName);

  00a2b	68 00 00 00 00	 push	 OFFSET ?szMoveReqFileName@@3PADA ; szMoveReqFileName
  00a30	b9 00 00 00 00	 mov	 ecx, OFFSET ?gMoveCommand@@3VCMoveCommand@@A ; gMoveCommand
  00a35	e8 00 00 00 00	 call	 ?Load@CMoveCommand@@QAEHPAD@Z ; CMoveCommand::Load

; 3394 : #endif
; 3395 : #endif
; 3396 : 
; 3397 : #ifdef DARKLORD_WORK
; 3398 : 	gMoveCommand.LoadMoveLevel(gDirPath.GetNewPath("MoveLevel.txt"));

  00a3a	68 00 00 00 00	 push	 OFFSET ??_C@_0O@MOJICEJC@MoveLevel?4txt@
  00a3f	b9 00 00 00 00	 mov	 ecx, OFFSET ?gDirPath@@3VCDirPath@@A ; gDirPath
  00a44	e8 00 00 00 00	 call	 ?GetNewPath@CDirPath@@QAEPADPAD@Z ; CDirPath::GetNewPath
  00a49	50		 push	 eax
  00a4a	b9 00 00 00 00	 mov	 ecx, OFFSET ?gMoveCommand@@3VCMoveCommand@@A ; gMoveCommand
  00a4f	e8 00 00 00 00	 call	 ?LoadMoveLevel@CMoveCommand@@QAEHPAD@Z ; CMoveCommand::LoadMoveLevel

; 3399 : #endif
; 3400 : 	
; 3401 : 	ConMember.Load(gDirPath.GetNewPath("ConnectMember.txt"));

  00a54	68 00 00 00 00	 push	 OFFSET ??_C@_0BC@FGIEIEFL@ConnectMember?4txt@
  00a59	b9 00 00 00 00	 mov	 ecx, OFFSET ?gDirPath@@3VCDirPath@@A ; gDirPath
  00a5e	e8 00 00 00 00	 call	 ?GetNewPath@CDirPath@@QAEPADPAD@Z ; CDirPath::GetNewPath
  00a63	50		 push	 eax
  00a64	b9 00 00 00 00	 mov	 ecx, OFFSET ?ConMember@@3VCConMember@@A ; ConMember
  00a69	e8 00 00 00 00	 call	 ?Load@CConMember@@QAEXPAD@Z ; CConMember::Load

; 3402 : 
; 3403 : 	strcpy(szQuestTextFileName, gDirPath.GetNewPath("lang\\main\\quest.txt"));

  00a6e	68 00 00 00 00	 push	 OFFSET ??_C@_0BE@BKEFEABF@lang?2main?2quest?4txt@
  00a73	b9 00 00 00 00	 mov	 ecx, OFFSET ?gDirPath@@3VCDirPath@@A ; gDirPath
  00a78	e8 00 00 00 00	 call	 ?GetNewPath@CDirPath@@QAEPADPAD@Z ; CDirPath::GetNewPath
  00a7d	50		 push	 eax
  00a7e	68 00 00 00 00	 push	 OFFSET ?szQuestTextFileName@@3PADA ; szQuestTextFileName
  00a83	e8 00 00 00 00	 call	 _strcpy
  00a88	83 c4 08	 add	 esp, 8

; 3404 : 
; 3405 : #ifdef AUTH_GAMESERVER
; 3406 : 	gGameServerAuth.RequestData(FILE_QUEST);
; 3407 : 	DataBufferSize = gGameServerAuth.GetDataBufferSize();
; 3408 : 	DataBuffer = gGameServerAuth.GetDataBuffer();	
; 3409 : 	g_QuestInfo.LoadQuestInfo(DataBuffer, DataBufferSize);
; 3410 : #else
; 3411 : 	#ifdef SCRIPT_DECODE_WORK
; 3412 : 		g_QuestInfo.LoadQuestInfoDecode(szQuestTextFileName);
; 3413 : 	#elif defined(NEW_SKILL_FORSKYLAND)
; 3414 : 		g_QuestInfo.LoadQuestInfo(szQuestTextFileName);

  00a8b	68 00 00 00 00	 push	 OFFSET ?szQuestTextFileName@@3PADA ; szQuestTextFileName
  00a90	b9 00 00 00 00	 mov	 ecx, OFFSET ?g_QuestInfo@@3VCQuestInfo@@A ; g_QuestInfo
  00a95	e8 00 00 00 00	 call	 ?LoadQuestInfo@CQuestInfo@@QAEHPAD@Z ; CQuestInfo::LoadQuestInfo

; 3415 : 	#endif
; 3416 : #endif
; 3417 : 
; 3418 : 	//GetPrivateProfileString("GameServerInfo", "ItemFile", "item(Kor).txt", szItemTextFileName, 20, gDirPath.GetNewPath("commonserver.cfg"));
; 3419 : 	//GetPrivateProfileString("GameServerInfo", "SkillFile", "skill(Kor).txt", szSkillTextFileName, 20, gDirPath.GetNewPath("commonserver.cfg"));
; 3420 : 	
; 3421 : 	//ItemFile
; 3422 : 
; 3423 : #ifdef AUTH_GAMESERVER	
; 3424 : 		//     
; 3425 : 	//    		
; 3426 : 	gGameServerAuth.GetClientVersion(szTemp, szGameServerExeSerial);
; 3427 : 	cvstr				= strtok(szTemp, ".");
; 3428 : 	szClientVersion[0]	= *cvstr;
; 3429 : 	
; 3430 : 	cvstr				= strtok(NULL, ".");
; 3431 : 	szClientVersion[1]	= *(cvstr);
; 3432 : 	szClientVersion[2]	= *(cvstr+1);
; 3433 : 
; 3434 : 	cvstr				= strtok(NULL, ".");
; 3435 : 	szClientVersion[3]	= *(cvstr);
; 3436 : 	szClientVersion[4]	= *(cvstr+1);
; 3437 : #else
; 3438 : 	//    
; 3439 : 	GetPrivateProfileString("GameServerInfo", "ClientExeVersion", "", szTemp, 8, szCommonlocIniFileName);

  00a9a	68 00 00 00 00	 push	 OFFSET ?szCommonlocIniFileName@@3PADA ; szCommonlocIniFileName
  00a9f	6a 08		 push	 8
  00aa1	8d 85 fc fe ff
	ff		 lea	 eax, DWORD PTR _szTemp$[ebp]
  00aa7	50		 push	 eax
  00aa8	68 00 00 00 00	 push	 OFFSET ??_C@_00CNPNBAHC@@
  00aad	68 00 00 00 00	 push	 OFFSET ??_C@_0BB@FBDFNIJB@ClientExeVersion@
  00ab2	68 00 00 00 00	 push	 OFFSET ??_C@_0P@EMJDPFDH@GameServerInfo@
  00ab7	ff 15 00 00 00
	00		 call	 DWORD PTR __imp__GetPrivateProfileStringA@24

; 3440 : 		
; 3441 : 	cvstr				= strtok(szTemp, ".");

  00abd	68 00 00 00 00	 push	 OFFSET ??_C@_01LFCBOECM@?4@
  00ac2	8d 85 fc fe ff
	ff		 lea	 eax, DWORD PTR _szTemp$[ebp]
  00ac8	50		 push	 eax
  00ac9	e8 00 00 00 00	 call	 _strtok
  00ace	83 c4 08	 add	 esp, 8
  00ad1	89 85 f8 fd ff
	ff		 mov	 DWORD PTR _cvstr$[ebp], eax

; 3442 : 	szClientVersion[0]	= *cvstr;

  00ad7	b8 01 00 00 00	 mov	 eax, 1
  00adc	6b c8 00	 imul	 ecx, eax, 0
  00adf	8b 95 f8 fd ff
	ff		 mov	 edx, DWORD PTR _cvstr$[ebp]
  00ae5	8a 02		 mov	 al, BYTE PTR [edx]
  00ae7	88 81 00 00 00
	00		 mov	 BYTE PTR ?szClientVersion@@3PADA[ecx], al

; 3443 : 	
; 3444 : 	cvstr				= strtok(NULL, ".");

  00aed	68 00 00 00 00	 push	 OFFSET ??_C@_01LFCBOECM@?4@
  00af2	6a 00		 push	 0
  00af4	e8 00 00 00 00	 call	 _strtok
  00af9	83 c4 08	 add	 esp, 8
  00afc	89 85 f8 fd ff
	ff		 mov	 DWORD PTR _cvstr$[ebp], eax

; 3445 : 	szClientVersion[1]	= *(cvstr);

  00b02	b8 01 00 00 00	 mov	 eax, 1
  00b07	c1 e0 00	 shl	 eax, 0
  00b0a	8b 8d f8 fd ff
	ff		 mov	 ecx, DWORD PTR _cvstr$[ebp]
  00b10	8a 11		 mov	 dl, BYTE PTR [ecx]
  00b12	88 90 00 00 00
	00		 mov	 BYTE PTR ?szClientVersion@@3PADA[eax], dl

; 3446 : 	szClientVersion[2]	= *(cvstr+1);

  00b18	b8 01 00 00 00	 mov	 eax, 1
  00b1d	d1 e0		 shl	 eax, 1
  00b1f	8b 8d f8 fd ff
	ff		 mov	 ecx, DWORD PTR _cvstr$[ebp]
  00b25	8a 51 01	 mov	 dl, BYTE PTR [ecx+1]
  00b28	88 90 00 00 00
	00		 mov	 BYTE PTR ?szClientVersion@@3PADA[eax], dl

; 3447 : 
; 3448 : 	cvstr				= strtok(NULL, ".");

  00b2e	68 00 00 00 00	 push	 OFFSET ??_C@_01LFCBOECM@?4@
  00b33	6a 00		 push	 0
  00b35	e8 00 00 00 00	 call	 _strtok
  00b3a	83 c4 08	 add	 esp, 8
  00b3d	89 85 f8 fd ff
	ff		 mov	 DWORD PTR _cvstr$[ebp], eax

; 3449 : 	szClientVersion[3]	= *(cvstr);

  00b43	b8 01 00 00 00	 mov	 eax, 1
  00b48	6b c8 03	 imul	 ecx, eax, 3
  00b4b	8b 95 f8 fd ff
	ff		 mov	 edx, DWORD PTR _cvstr$[ebp]
  00b51	8a 02		 mov	 al, BYTE PTR [edx]
  00b53	88 81 00 00 00
	00		 mov	 BYTE PTR ?szClientVersion@@3PADA[ecx], al

; 3450 : 	szClientVersion[4]	= *(cvstr+1);

  00b59	b8 01 00 00 00	 mov	 eax, 1
  00b5e	c1 e0 02	 shl	 eax, 2
  00b61	8b 8d f8 fd ff
	ff		 mov	 ecx, DWORD PTR _cvstr$[ebp]
  00b67	8a 51 01	 mov	 dl, BYTE PTR [ecx+1]
  00b6a	88 90 00 00 00
	00		 mov	 BYTE PTR ?szClientVersion@@3PADA[eax], dl

; 3451 : 
; 3452 : 	memset(szGameServerExeSerial, 0, 20);

  00b70	6a 14		 push	 20			; 00000014H
  00b72	6a 00		 push	 0
  00b74	68 00 00 00 00	 push	 OFFSET ?szGameServerExeSerial@@3PADA ; szGameServerExeSerial
  00b79	e8 00 00 00 00	 call	 _memset
  00b7e	83 c4 0c	 add	 esp, 12			; 0000000cH

; 3453 : 	GetPrivateProfileString("GameServerInfo", "ClientExeSerial", "1", szGameServerExeSerial, 20, szCommonlocIniFileName);

  00b81	68 00 00 00 00	 push	 OFFSET ?szCommonlocIniFileName@@3PADA ; szCommonlocIniFileName
  00b86	6a 14		 push	 20			; 00000014H
  00b88	68 00 00 00 00	 push	 OFFSET ?szGameServerExeSerial@@3PADA ; szGameServerExeSerial
  00b8d	68 00 00 00 00	 push	 OFFSET ??_C@_01HIHLOKLC@1@
  00b92	68 00 00 00 00	 push	 OFFSET ??_C@_0BA@JHAHNEJ@ClientExeSerial@
  00b97	68 00 00 00 00	 push	 OFFSET ??_C@_0P@EMJDPFDH@GameServerInfo@
  00b9c	ff 15 00 00 00
	00		 call	 DWORD PTR __imp__GetPrivateProfileStringA@24

; 3454 : 
; 3455 : #endif
; 3456 : 
; 3457 : 
; 3458 : #ifdef ADD_NEW_MONSTER_SYSTEM_01_20050714
; 3459 : //    .gDirPath.GetNewPath("MoveLevel.txt")
; 3460 : TMonsterSkillElement::LoadData( gDirPath.GetNewPath("MonsterSkillElement.txt") );
; 3461 : TMonsterSkillUnit::LoadData( gDirPath.GetNewPath("MonsterSkillUnit.txt") );
; 3462 : TMonsterSkillManager::LoadData( gDirPath.GetNewPath("MonsterSkill.txt") );
; 3463 : #endif
; 3464 : 
; 3465 : #ifdef ADD_NEW_MONSTER_SYSTEM_02_20050725
; 3466 : 
; 3467 : //  AI  .
; 3468 : 
; 3469 : TMonsterAIElement::LoadData( gDirPath.GetNewPath("MonsterAIElement.txt") );
; 3470 : TMonsterAIAutomata::LoadData( gDirPath.GetNewPath("MonsterAutomata.txt") );
; 3471 : TMonsterAIUnit::LoadData( gDirPath.GetNewPath("MonsterAIUnit.txt") );
; 3472 : TMonsterAIRule::LoadData( gDirPath.GetNewPath("MonsterAIRule.txt") );
; 3473 : TMonsterAIGroup::LoadData( gDirPath.GetNewPath("MonsterAIGroup.txt") );
; 3474 : 
; 3475 : #endif // ADD_NEW_MONSTER_SYSTEM_02_20050725
; 3476 : 
; 3477 : #ifdef CRYWOLF_ONLY_PATCH_20050413
; 3478 : 
; 3479 : g_Crywolf.LoadData( gDirPath.GetNewPath("Crywolf.dat") );
; 3480 : 
; 3481 : #endif // CRYWOLF_ONLY_PATCH_20050413
; 3482 : 
; 3483 : #ifdef ADD_SKILL_ADDITION_INFO_CLASS_20060407
; 3484 : 	g_SkillAdditionInfo.Load( "SkillAdditionInfo.dat" );
; 3485 : #endif
; 3486 : 	
; 3487 : #ifdef ADD_KANTURU_20060627
; 3488 : 	g_Kanturu.LoadData( gDirPath.GetNewPath( "Kanturu.dat" ) );
; 3489 : 	g_KanturuMonsterMng.LoadData( gDirPath.GetNewPath( "KanturuMonsterSetBase.txt" ) );
; 3490 : #endif
; 3491 : 
; 3492 : #ifdef PCBANG_POINT_SYSTEM_20070206	// GameMain -> LoadData()
; 3493 : 	g_PCBangPointSystem.LoadData( gDirPath.GetNewPath( "PCBangPointItemOpt.txt" ) );	
; 3494 : #endif
; 3495 : 
; 3496 : #ifdef ADD_RAKLION_20080408
; 3497 : 	g_Raklion.LoadData( gDirPath.GetNewPath( "Raklion.dat" ) );
; 3498 : #endif // ADD_RAKLION_20080408
; 3499 : 
; 3500 : 	GetPrivateProfileString("GameServerInfo", "CreateCharacter", "1", szTemp, 5, gDirPath.GetNewPath("commonserver.cfg"));

  00ba2	68 00 00 00 00	 push	 OFFSET ??_C@_0BB@IGLHFEOF@commonserver?4cfg@
  00ba7	b9 00 00 00 00	 mov	 ecx, OFFSET ?gDirPath@@3VCDirPath@@A ; gDirPath
  00bac	e8 00 00 00 00	 call	 ?GetNewPath@CDirPath@@QAEPADPAD@Z ; CDirPath::GetNewPath
  00bb1	50		 push	 eax
  00bb2	6a 05		 push	 5
  00bb4	8d 85 fc fe ff
	ff		 lea	 eax, DWORD PTR _szTemp$[ebp]
  00bba	50		 push	 eax
  00bbb	68 00 00 00 00	 push	 OFFSET ??_C@_01HIHLOKLC@1@
  00bc0	68 00 00 00 00	 push	 OFFSET ??_C@_0BA@DIAOPFNP@CreateCharacter@
  00bc5	68 00 00 00 00	 push	 OFFSET ??_C@_0P@EMJDPFDH@GameServerInfo@
  00bca	ff 15 00 00 00
	00		 call	 DWORD PTR __imp__GetPrivateProfileStringA@24

; 3501 : 	gCreateCharacter = atoi(szTemp);

  00bd0	8d 85 fc fe ff
	ff		 lea	 eax, DWORD PTR _szTemp$[ebp]
  00bd6	50		 push	 eax
  00bd7	e8 00 00 00 00	 call	 _atoi
  00bdc	83 c4 04	 add	 esp, 4
  00bdf	a3 00 00 00 00	 mov	 DWORD PTR ?gCreateCharacter@@3HA, eax ; gCreateCharacter

; 3502 : 	
; 3503 : 	GetPrivateProfileString("GameServerInfo", "CharacterDeleteMinLevel", "40", szTemp, 5, gDirPath.GetNewPath("commonserver.cfg"));

  00be4	68 00 00 00 00	 push	 OFFSET ??_C@_0BB@IGLHFEOF@commonserver?4cfg@
  00be9	b9 00 00 00 00	 mov	 ecx, OFFSET ?gDirPath@@3VCDirPath@@A ; gDirPath
  00bee	e8 00 00 00 00	 call	 ?GetNewPath@CDirPath@@QAEPADPAD@Z ; CDirPath::GetNewPath
  00bf3	50		 push	 eax
  00bf4	6a 05		 push	 5
  00bf6	8d 85 fc fe ff
	ff		 lea	 eax, DWORD PTR _szTemp$[ebp]
  00bfc	50		 push	 eax
  00bfd	68 00 00 00 00	 push	 OFFSET ??_C@_02PMJKFNFC@40@
  00c02	68 00 00 00 00	 push	 OFFSET ??_C@_0BI@ONKCMGBI@CharacterDeleteMinLevel@
  00c07	68 00 00 00 00	 push	 OFFSET ??_C@_0P@EMJDPFDH@GameServerInfo@
  00c0c	ff 15 00 00 00
	00		 call	 DWORD PTR __imp__GetPrivateProfileStringA@24

; 3504 : 	gCharacterDeleteMinLevel = atoi(szTemp);

  00c12	8d 85 fc fe ff
	ff		 lea	 eax, DWORD PTR _szTemp$[ebp]
  00c18	50		 push	 eax
  00c19	e8 00 00 00 00	 call	 _atoi
  00c1e	83 c4 04	 add	 esp, 4
  00c21	a3 00 00 00 00	 mov	 DWORD PTR ?gCharacterDeleteMinLevel@@3HA, eax ; gCharacterDeleteMinLevel

; 3505 : 
; 3506 : #ifdef MUTE_EVENT_MESSAGE
; 3507 : 	INT iMuteOption = GetPrivateProfileInt("GameServerInfo", "MuteServerMessage", 0, gDirPath.GetNewPath("commonserver.cfg"));	
; 3508 : 
; 3509 : 	if( iMuteOption )
; 3510 : 		g_bMuteServerMessage = true;
; 3511 : 	else
; 3512 : 		g_bMuteServerMessage = false;
; 3513 : #endif
; 3514 : 	
; 3515 : #ifdef ADD_CONTROL_MAXUSER_20050420
; 3516 : 
; 3517 : #ifdef GAMESERVER_TO_CASTLESIEGESERVER
; 3518 : 	INT iMaxUser = GetPrivateProfileInt("GameServerInfo", "NumberOfCastleSiegeMaxUser", MAX_USER, gDirPath.GetNewPath("commonserver.cfg"));	
; 3519 : #else
; 3520 : 	INT iMaxUser = GetPrivateProfileInt("GameServerInfo", "NumberOfMaxUser", 500, gDirPath.GetNewPath("commonserver.cfg"));	

  00c26	68 00 00 00 00	 push	 OFFSET ??_C@_0BB@IGLHFEOF@commonserver?4cfg@
  00c2b	b9 00 00 00 00	 mov	 ecx, OFFSET ?gDirPath@@3VCDirPath@@A ; gDirPath
  00c30	e8 00 00 00 00	 call	 ?GetNewPath@CDirPath@@QAEPADPAD@Z ; CDirPath::GetNewPath
  00c35	50		 push	 eax
  00c36	68 f4 01 00 00	 push	 500			; 000001f4H
  00c3b	68 00 00 00 00	 push	 OFFSET ??_C@_0BA@IJNIFGCF@NumberOfMaxUser@
  00c40	68 00 00 00 00	 push	 OFFSET ??_C@_0P@EMJDPFDH@GameServerInfo@
  00c45	ff 15 00 00 00
	00		 call	 DWORD PTR __imp__GetPrivateProfileIntA@16
  00c4b	89 85 f4 fc ff
	ff		 mov	 DWORD PTR _iMaxUser$[ebp], eax

; 3521 : #endif
; 3522 : 
; 3523 : 	if( iMaxUser>=0 && iMaxUser<=MAX_USER )

  00c51	83 bd f4 fc ff
	ff 00		 cmp	 DWORD PTR _iMaxUser$[ebp], 0
  00c58	7c 2b		 jl	 SHORT $LN27@ReadCommon
  00c5a	81 bd f4 fc ff
	ff e8 03 00 00	 cmp	 DWORD PTR _iMaxUser$[ebp], 1000 ; 000003e8H
  00c64	7f 1f		 jg	 SHORT $LN27@ReadCommon

; 3524 : 	{
; 3525 : 		gServerMaxUser = iMaxUser;

  00c66	8b 85 f4 fc ff
	ff		 mov	 eax, DWORD PTR _iMaxUser$[ebp]
  00c6c	a3 00 00 00 00	 mov	 DWORD PTR ?gServerMaxUser@@3HA, eax ; gServerMaxUser

; 3526 : 		LogAddTD( "[Option Reload]  MaxUser   : %d", gServerMaxUser );	

  00c71	a1 00 00 00 00	 mov	 eax, DWORD PTR ?gServerMaxUser@@3HA ; gServerMaxUser
  00c76	50		 push	 eax
  00c77	68 00 00 00 00	 push	 OFFSET ??_C@_0CM@HGFFPJNE@?$FLOption?5Reload?$FN?5?$KB?Z?$KB?Z?$KB?Z?5MaxUser?5@
  00c7c	ff 15 00 00 00
	00		 call	 DWORD PTR ?LogAddTD@@3P6AXPADZZA ; LogAddTD
  00c82	83 c4 08	 add	 esp, 8
$LN27@ReadCommon:

; 3527 : 	}
; 3528 : 
; 3529 : 
; 3530 : #endif
; 3531 : 	
; 3532 : #ifdef ADD_SERVERGROUP_CHATTING_FOR_GUILD_UNION_01_20050706
; 3533 : 	g_iServerGroupGuildChatting = GetPrivateProfileInt("GameServerInfo", "ServerGroupGuildChatting", 0, gDirPath.GetNewPath("commonserver.cfg"));	
; 3534 : 	g_iServerGroupUnionChatting = GetPrivateProfileInt("GameServerInfo", "ServerGroupUnionChatting", 0, gDirPath.GetNewPath("commonserver.cfg"));	
; 3535 : #endif
; 3536 : 
; 3537 : 	//  
; 3538 : 	GetPrivateProfileString("GameServerInfo", "GuildCreate", "1", szTemp, 5, gDirPath.GetNewPath("commonserver.cfg"));

  00c85	68 00 00 00 00	 push	 OFFSET ??_C@_0BB@IGLHFEOF@commonserver?4cfg@
  00c8a	b9 00 00 00 00	 mov	 ecx, OFFSET ?gDirPath@@3VCDirPath@@A ; gDirPath
  00c8f	e8 00 00 00 00	 call	 ?GetNewPath@CDirPath@@QAEPADPAD@Z ; CDirPath::GetNewPath
  00c94	50		 push	 eax
  00c95	6a 05		 push	 5
  00c97	8d 85 fc fe ff
	ff		 lea	 eax, DWORD PTR _szTemp$[ebp]
  00c9d	50		 push	 eax
  00c9e	68 00 00 00 00	 push	 OFFSET ??_C@_01HIHLOKLC@1@
  00ca3	68 00 00 00 00	 push	 OFFSET ??_C@_0M@CGJDJOAO@GuildCreate@
  00ca8	68 00 00 00 00	 push	 OFFSET ??_C@_0P@EMJDPFDH@GameServerInfo@
  00cad	ff 15 00 00 00
	00		 call	 DWORD PTR __imp__GetPrivateProfileStringA@24

; 3539 : 	gGuildCreate = atoi(szTemp);

  00cb3	8d 85 fc fe ff
	ff		 lea	 eax, DWORD PTR _szTemp$[ebp]
  00cb9	50		 push	 eax
  00cba	e8 00 00 00 00	 call	 _atoi
  00cbf	83 c4 04	 add	 esp, 4
  00cc2	a3 00 00 00 00	 mov	 DWORD PTR ?gGuildCreate@@3HA, eax ; gGuildCreate

; 3540 : 	LogAdd(lMsg.Get(569), gGuildCreate);

  00cc7	a1 00 00 00 00	 mov	 eax, DWORD PTR ?gGuildCreate@@3HA ; gGuildCreate
  00ccc	50		 push	 eax
  00ccd	68 39 02 00 00	 push	 569			; 00000239H
  00cd2	b9 00 00 00 00	 mov	 ecx, OFFSET ?lMsg@@3VCMsg@@A ; lMsg
  00cd7	ff 15 00 00 00
	00		 call	 DWORD PTR __imp_?Get@CMsg@@QAEPADH@Z
  00cdd	50		 push	 eax
  00cde	ff 15 00 00 00
	00		 call	 DWORD PTR ?LogAdd@@3P6AXPADZZA ; LogAdd
  00ce4	83 c4 08	 add	 esp, 8

; 3541 : 
; 3542 : 
; 3543 : 	GetPrivateProfileString("GameServerInfo", "GuildDestroy", "1", szTemp, 5, gDirPath.GetNewPath("commonserver.cfg"));

  00ce7	68 00 00 00 00	 push	 OFFSET ??_C@_0BB@IGLHFEOF@commonserver?4cfg@
  00cec	b9 00 00 00 00	 mov	 ecx, OFFSET ?gDirPath@@3VCDirPath@@A ; gDirPath
  00cf1	e8 00 00 00 00	 call	 ?GetNewPath@CDirPath@@QAEPADPAD@Z ; CDirPath::GetNewPath
  00cf6	50		 push	 eax
  00cf7	6a 05		 push	 5
  00cf9	8d 85 fc fe ff
	ff		 lea	 eax, DWORD PTR _szTemp$[ebp]
  00cff	50		 push	 eax
  00d00	68 00 00 00 00	 push	 OFFSET ??_C@_01HIHLOKLC@1@
  00d05	68 00 00 00 00	 push	 OFFSET ??_C@_0N@OEKMPEAB@GuildDestroy@
  00d0a	68 00 00 00 00	 push	 OFFSET ??_C@_0P@EMJDPFDH@GameServerInfo@
  00d0f	ff 15 00 00 00
	00		 call	 DWORD PTR __imp__GetPrivateProfileStringA@24

; 3544 : 	gGuildDestroy = atoi(szTemp);

  00d15	8d 85 fc fe ff
	ff		 lea	 eax, DWORD PTR _szTemp$[ebp]
  00d1b	50		 push	 eax
  00d1c	e8 00 00 00 00	 call	 _atoi
  00d21	83 c4 04	 add	 esp, 4
  00d24	a3 00 00 00 00	 mov	 DWORD PTR ?gGuildDestroy@@3HA, eax ; gGuildDestroy

; 3545 : 	LogAdd(lMsg.Get(570), gGuildDestroy);	// "   %d"

  00d29	a1 00 00 00 00	 mov	 eax, DWORD PTR ?gGuildDestroy@@3HA ; gGuildDestroy
  00d2e	50		 push	 eax
  00d2f	68 3a 02 00 00	 push	 570			; 0000023aH
  00d34	b9 00 00 00 00	 mov	 ecx, OFFSET ?lMsg@@3VCMsg@@A ; lMsg
  00d39	ff 15 00 00 00
	00		 call	 DWORD PTR __imp_?Get@CMsg@@QAEPADH@Z
  00d3f	50		 push	 eax
  00d40	ff 15 00 00 00
	00		 call	 DWORD PTR ?LogAdd@@3P6AXPADZZA ; LogAdd
  00d46	83 c4 08	 add	 esp, 8

; 3546 : 
; 3547 : 
; 3548 : 	GetPrivateProfileString("GameServerInfo", "GuildCreateLevel", "100", szTemp, 5, gDirPath.GetNewPath("commonserver.cfg"));

  00d49	68 00 00 00 00	 push	 OFFSET ??_C@_0BB@IGLHFEOF@commonserver?4cfg@
  00d4e	b9 00 00 00 00	 mov	 ecx, OFFSET ?gDirPath@@3VCDirPath@@A ; gDirPath
  00d53	e8 00 00 00 00	 call	 ?GetNewPath@CDirPath@@QAEPADPAD@Z ; CDirPath::GetNewPath
  00d58	50		 push	 eax
  00d59	6a 05		 push	 5
  00d5b	8d 85 fc fe ff
	ff		 lea	 eax, DWORD PTR _szTemp$[ebp]
  00d61	50		 push	 eax
  00d62	68 00 00 00 00	 push	 OFFSET ??_C@_03GNABGMEE@100@
  00d67	68 00 00 00 00	 push	 OFFSET ??_C@_0BB@DOGMENHB@GuildCreateLevel@
  00d6c	68 00 00 00 00	 push	 OFFSET ??_C@_0P@EMJDPFDH@GameServerInfo@
  00d71	ff 15 00 00 00
	00		 call	 DWORD PTR __imp__GetPrivateProfileStringA@24

; 3549 : 	gGuildCreateLevel = atoi(szTemp);

  00d77	8d 85 fc fe ff
	ff		 lea	 eax, DWORD PTR _szTemp$[ebp]
  00d7d	50		 push	 eax
  00d7e	e8 00 00 00 00	 call	 _atoi
  00d83	83 c4 04	 add	 esp, 4
  00d86	a3 00 00 00 00	 mov	 DWORD PTR ?gGuildCreateLevel@@3HA, eax ; gGuildCreateLevel

; 3550 : 	LogAdd(lMsg.Get(571), gGuildCreateLevel);	//    %d

  00d8b	a1 00 00 00 00	 mov	 eax, DWORD PTR ?gGuildCreateLevel@@3HA ; gGuildCreateLevel
  00d90	50		 push	 eax
  00d91	68 3b 02 00 00	 push	 571			; 0000023bH
  00d96	b9 00 00 00 00	 mov	 ecx, OFFSET ?lMsg@@3VCMsg@@A ; lMsg
  00d9b	ff 15 00 00 00
	00		 call	 DWORD PTR __imp_?Get@CMsg@@QAEPADH@Z
  00da1	50		 push	 eax
  00da2	ff 15 00 00 00
	00		 call	 DWORD PTR ?LogAdd@@3P6AXPADZZA ; LogAdd
  00da8	83 c4 08	 add	 esp, 8

; 3551 : 
; 3552 : #ifdef MODIFY_CASTLE_OWNER_GUILD_DESTROY_LIMIT_20060418
; 3553 : 	//   
; 3554 : 	g_bCastleGuildDestoyLimit	= GetPrivateProfileInt( "GameServerInfo", "CastleOwnerGuildDestroyLimit", 1, gDirPath.GetNewPath("commonserver.cfg"));

  00dab	68 00 00 00 00	 push	 OFFSET ??_C@_0BB@IGLHFEOF@commonserver?4cfg@
  00db0	b9 00 00 00 00	 mov	 ecx, OFFSET ?gDirPath@@3VCDirPath@@A ; gDirPath
  00db5	e8 00 00 00 00	 call	 ?GetNewPath@CDirPath@@QAEPADPAD@Z ; CDirPath::GetNewPath
  00dba	50		 push	 eax
  00dbb	6a 01		 push	 1
  00dbd	68 00 00 00 00	 push	 OFFSET ??_C@_0BN@IDOOLGAL@CastleOwnerGuildDestroyLimit@
  00dc2	68 00 00 00 00	 push	 OFFSET ??_C@_0P@EMJDPFDH@GameServerInfo@
  00dc7	ff 15 00 00 00
	00		 call	 DWORD PTR __imp__GetPrivateProfileIntA@16
  00dcd	a3 00 00 00 00	 mov	 DWORD PTR ?g_bCastleGuildDestoyLimit@@3HA, eax ; g_bCastleGuildDestoyLimit

; 3555 : #endif
; 3556 : 
; 3557 : 	//    ?
; 3558 : 	GetPrivateProfileString("GameServerInfo", "SpeedHackPlayerBlock", "0", szTemp, 5, gDirPath.GetNewPath("commonserver.cfg"));

  00dd2	68 00 00 00 00	 push	 OFFSET ??_C@_0BB@IGLHFEOF@commonserver?4cfg@
  00dd7	b9 00 00 00 00	 mov	 ecx, OFFSET ?gDirPath@@3VCDirPath@@A ; gDirPath
  00ddc	e8 00 00 00 00	 call	 ?GetNewPath@CDirPath@@QAEPADPAD@Z ; CDirPath::GetNewPath
  00de1	50		 push	 eax
  00de2	6a 05		 push	 5
  00de4	8d 85 fc fe ff
	ff		 lea	 eax, DWORD PTR _szTemp$[ebp]
  00dea	50		 push	 eax
  00deb	68 00 00 00 00	 push	 OFFSET ??_C@_01GBGANLPD@0@
  00df0	68 00 00 00 00	 push	 OFFSET ??_C@_0BF@KDFHAHG@SpeedHackPlayerBlock@
  00df5	68 00 00 00 00	 push	 OFFSET ??_C@_0P@EMJDPFDH@GameServerInfo@
  00dfa	ff 15 00 00 00
	00		 call	 DWORD PTR __imp__GetPrivateProfileStringA@24

; 3559 : 	SpeedHackPlayerBlock	= atoi(szTemp);

  00e00	8d 85 fc fe ff
	ff		 lea	 eax, DWORD PTR _szTemp$[ebp]
  00e06	50		 push	 eax
  00e07	e8 00 00 00 00	 call	 _atoi
  00e0c	83 c4 04	 add	 esp, 4
  00e0f	a3 00 00 00 00	 mov	 DWORD PTR ?SpeedHackPlayerBlock@@3HA, eax ; SpeedHackPlayerBlock

; 3560 : 
; 3561 : #ifdef MODIFY_CONNNECT_HACK_ATTACK_20090409
; 3562 : 	GetPrivateProfileString("GameServerInfo", "ConnectHackIPBlockTime", "0", szTemp, 5, gDirPath.GetNewPath("commonserver.cfg"));

  00e14	68 00 00 00 00	 push	 OFFSET ??_C@_0BB@IGLHFEOF@commonserver?4cfg@
  00e19	b9 00 00 00 00	 mov	 ecx, OFFSET ?gDirPath@@3VCDirPath@@A ; gDirPath
  00e1e	e8 00 00 00 00	 call	 ?GetNewPath@CDirPath@@QAEPADPAD@Z ; CDirPath::GetNewPath
  00e23	50		 push	 eax
  00e24	6a 05		 push	 5
  00e26	8d 85 fc fe ff
	ff		 lea	 eax, DWORD PTR _szTemp$[ebp]
  00e2c	50		 push	 eax
  00e2d	68 00 00 00 00	 push	 OFFSET ??_C@_01GBGANLPD@0@
  00e32	68 00 00 00 00	 push	 OFFSET ??_C@_0BH@OBAKKGCF@ConnectHackIPBlockTime@
  00e37	68 00 00 00 00	 push	 OFFSET ??_C@_0P@EMJDPFDH@GameServerInfo@
  00e3c	ff 15 00 00 00
	00		 call	 DWORD PTR __imp__GetPrivateProfileStringA@24

; 3563 : 	gConnectHackIPBlockTime	= atoi(szTemp);

  00e42	8d 85 fc fe ff
	ff		 lea	 eax, DWORD PTR _szTemp$[ebp]
  00e48	50		 push	 eax
  00e49	e8 00 00 00 00	 call	 _atoi
  00e4e	83 c4 04	 add	 esp, 4
  00e51	a3 00 00 00 00	 mov	 DWORD PTR ?gConnectHackIPBlockTime@@3HA, eax ; gConnectHackIPBlockTime

; 3564 : 	
; 3565 : 	GetPrivateProfileString("GameServerInfo", "ConnectIntervalTime", "0", szTemp, 5, gDirPath.GetNewPath("commonserver.cfg"));

  00e56	68 00 00 00 00	 push	 OFFSET ??_C@_0BB@IGLHFEOF@commonserver?4cfg@
  00e5b	b9 00 00 00 00	 mov	 ecx, OFFSET ?gDirPath@@3VCDirPath@@A ; gDirPath
  00e60	e8 00 00 00 00	 call	 ?GetNewPath@CDirPath@@QAEPADPAD@Z ; CDirPath::GetNewPath
  00e65	50		 push	 eax
  00e66	6a 05		 push	 5
  00e68	8d 85 fc fe ff
	ff		 lea	 eax, DWORD PTR _szTemp$[ebp]
  00e6e	50		 push	 eax
  00e6f	68 00 00 00 00	 push	 OFFSET ??_C@_01GBGANLPD@0@
  00e74	68 00 00 00 00	 push	 OFFSET ??_C@_0BE@NKDMJEHP@ConnectIntervalTime@
  00e79	68 00 00 00 00	 push	 OFFSET ??_C@_0P@EMJDPFDH@GameServerInfo@
  00e7e	ff 15 00 00 00
	00		 call	 DWORD PTR __imp__GetPrivateProfileStringA@24

; 3566 : 	gConnectIntervalTime	= atoi(szTemp);

  00e84	8d 85 fc fe ff
	ff		 lea	 eax, DWORD PTR _szTemp$[ebp]
  00e8a	50		 push	 eax
  00e8b	e8 00 00 00 00	 call	 _atoi
  00e90	83 c4 04	 add	 esp, 4
  00e93	a3 00 00 00 00	 mov	 DWORD PTR ?gConnectIntervalTime@@3HA, eax ; gConnectIntervalTime

; 3567 : 	
; 3568 : 	GetPrivateProfileString("GameServerInfo", "ConnectRenewBlockTime", "0", szTemp, 5, gDirPath.GetNewPath("commonserver.cfg"));

  00e98	68 00 00 00 00	 push	 OFFSET ??_C@_0BB@IGLHFEOF@commonserver?4cfg@
  00e9d	b9 00 00 00 00	 mov	 ecx, OFFSET ?gDirPath@@3VCDirPath@@A ; gDirPath
  00ea2	e8 00 00 00 00	 call	 ?GetNewPath@CDirPath@@QAEPADPAD@Z ; CDirPath::GetNewPath
  00ea7	50		 push	 eax
  00ea8	6a 05		 push	 5
  00eaa	8d 85 fc fe ff
	ff		 lea	 eax, DWORD PTR _szTemp$[ebp]
  00eb0	50		 push	 eax
  00eb1	68 00 00 00 00	 push	 OFFSET ??_C@_01GBGANLPD@0@
  00eb6	68 00 00 00 00	 push	 OFFSET ??_C@_0BG@PFNCNMEF@ConnectRenewBlockTime@
  00ebb	68 00 00 00 00	 push	 OFFSET ??_C@_0P@EMJDPFDH@GameServerInfo@
  00ec0	ff 15 00 00 00
	00		 call	 DWORD PTR __imp__GetPrivateProfileStringA@24

; 3569 : 	gConnectRenewBlockTime	= atoi(szTemp);

  00ec6	8d 85 fc fe ff
	ff		 lea	 eax, DWORD PTR _szTemp$[ebp]
  00ecc	50		 push	 eax
  00ecd	e8 00 00 00 00	 call	 _atoi
  00ed2	83 c4 04	 add	 esp, 4
  00ed5	a3 00 00 00 00	 mov	 DWORD PTR ?gConnectRenewBlockTime@@3HA, eax ; gConnectRenewBlockTime

; 3570 : #endif	//MODIFY_CONNNECT_HACK_ATTACK_20090409
; 3571 : 
; 3572 : 	GetPrivateProfileString("GameServerInfo", "ItemSerialCheck", "1", szTemp, 5, gDirPath.GetNewPath("commonserver.cfg"));

  00eda	68 00 00 00 00	 push	 OFFSET ??_C@_0BB@IGLHFEOF@commonserver?4cfg@
  00edf	b9 00 00 00 00	 mov	 ecx, OFFSET ?gDirPath@@3VCDirPath@@A ; gDirPath
  00ee4	e8 00 00 00 00	 call	 ?GetNewPath@CDirPath@@QAEPADPAD@Z ; CDirPath::GetNewPath
  00ee9	50		 push	 eax
  00eea	6a 05		 push	 5
  00eec	8d 85 fc fe ff
	ff		 lea	 eax, DWORD PTR _szTemp$[ebp]
  00ef2	50		 push	 eax
  00ef3	68 00 00 00 00	 push	 OFFSET ??_C@_01HIHLOKLC@1@
  00ef8	68 00 00 00 00	 push	 OFFSET ??_C@_0BA@PFGDHKCH@ItemSerialCheck@
  00efd	68 00 00 00 00	 push	 OFFSET ??_C@_0P@EMJDPFDH@GameServerInfo@
  00f02	ff 15 00 00 00
	00		 call	 DWORD PTR __imp__GetPrivateProfileStringA@24

; 3573 : 	gItemSerialCheck = atoi(szTemp);

  00f08	8d 85 fc fe ff
	ff		 lea	 eax, DWORD PTR _szTemp$[ebp]
  00f0e	50		 push	 eax
  00f0f	e8 00 00 00 00	 call	 _atoi
  00f14	83 c4 04	 add	 esp, 4
  00f17	a3 00 00 00 00	 mov	 DWORD PTR ?gItemSerialCheck@@3HA, eax ; gItemSerialCheck

; 3574 : 	
; 3575 : 	GetPrivateProfileString("GameServerInfo", "AddExperience", "1", szTemp, 5, gDirPath.GetNewPath("commonserver.cfg"));

  00f1c	68 00 00 00 00	 push	 OFFSET ??_C@_0BB@IGLHFEOF@commonserver?4cfg@
  00f21	b9 00 00 00 00	 mov	 ecx, OFFSET ?gDirPath@@3VCDirPath@@A ; gDirPath
  00f26	e8 00 00 00 00	 call	 ?GetNewPath@CDirPath@@QAEPADPAD@Z ; CDirPath::GetNewPath
  00f2b	50		 push	 eax
  00f2c	6a 05		 push	 5
  00f2e	8d 85 fc fe ff
	ff		 lea	 eax, DWORD PTR _szTemp$[ebp]
  00f34	50		 push	 eax
  00f35	68 00 00 00 00	 push	 OFFSET ??_C@_01HIHLOKLC@1@
  00f3a	68 00 00 00 00	 push	 OFFSET ??_C@_0O@LBPJGHMN@AddExperience@
  00f3f	68 00 00 00 00	 push	 OFFSET ??_C@_0P@EMJDPFDH@GameServerInfo@
  00f44	ff 15 00 00 00
	00		 call	 DWORD PTR __imp__GetPrivateProfileStringA@24

; 3576 : 	gAddExperience = (float)atof(szTemp);

  00f4a	8d 85 fc fe ff
	ff		 lea	 eax, DWORD PTR _szTemp$[ebp]
  00f50	50		 push	 eax
  00f51	e8 00 00 00 00	 call	 _atof
  00f56	83 c4 04	 add	 esp, 4
  00f59	d9 1d 00 00 00
	00		 fstp	 DWORD PTR ?gAddExperience@@3MA ; gAddExperience

; 3577 : 
; 3578 : #ifdef ADD_ZEN_OPTION_20070903	// commonserver 
; 3579 : 	GetPrivateProfileString( "GameServerInfo", "AddZen", "1", szTemp, 5, gDirPath.GetNewPath( "commonserver.cfg" ) );

  00f5f	68 00 00 00 00	 push	 OFFSET ??_C@_0BB@IGLHFEOF@commonserver?4cfg@
  00f64	b9 00 00 00 00	 mov	 ecx, OFFSET ?gDirPath@@3VCDirPath@@A ; gDirPath
  00f69	e8 00 00 00 00	 call	 ?GetNewPath@CDirPath@@QAEPADPAD@Z ; CDirPath::GetNewPath
  00f6e	50		 push	 eax
  00f6f	6a 05		 push	 5
  00f71	8d 85 fc fe ff
	ff		 lea	 eax, DWORD PTR _szTemp$[ebp]
  00f77	50		 push	 eax
  00f78	68 00 00 00 00	 push	 OFFSET ??_C@_01HIHLOKLC@1@
  00f7d	68 00 00 00 00	 push	 OFFSET ??_C@_06GOOKGCKJ@AddZen@
  00f82	68 00 00 00 00	 push	 OFFSET ??_C@_0P@EMJDPFDH@GameServerInfo@
  00f87	ff 15 00 00 00
	00		 call	 DWORD PTR __imp__GetPrivateProfileStringA@24

; 3580 : 	gAddZen = ( float )atof( szTemp );

  00f8d	8d 85 fc fe ff
	ff		 lea	 eax, DWORD PTR _szTemp$[ebp]
  00f93	50		 push	 eax
  00f94	e8 00 00 00 00	 call	 _atof
  00f99	83 c4 04	 add	 esp, 4
  00f9c	d9 1d 00 00 00
	00		 fstp	 DWORD PTR ?gAddZen@@3MA	; gAddZen

; 3581 : #endif
; 3582 : 
; 3583 : 	//    .
; 3584 : 	GetPrivateProfileString("GameServerInfo", "Trade", "1", szTemp, 5, gDirPath.GetNewPath("commonserver.cfg"));

  00fa2	68 00 00 00 00	 push	 OFFSET ??_C@_0BB@IGLHFEOF@commonserver?4cfg@
  00fa7	b9 00 00 00 00	 mov	 ecx, OFFSET ?gDirPath@@3VCDirPath@@A ; gDirPath
  00fac	e8 00 00 00 00	 call	 ?GetNewPath@CDirPath@@QAEPADPAD@Z ; CDirPath::GetNewPath
  00fb1	50		 push	 eax
  00fb2	6a 05		 push	 5
  00fb4	8d 85 fc fe ff
	ff		 lea	 eax, DWORD PTR _szTemp$[ebp]
  00fba	50		 push	 eax
  00fbb	68 00 00 00 00	 push	 OFFSET ??_C@_01HIHLOKLC@1@
  00fc0	68 00 00 00 00	 push	 OFFSET ??_C@_05IOPOMLGK@Trade@
  00fc5	68 00 00 00 00	 push	 OFFSET ??_C@_0P@EMJDPFDH@GameServerInfo@
  00fca	ff 15 00 00 00
	00		 call	 DWORD PTR __imp__GetPrivateProfileStringA@24

; 3585 : 	bCanTrade				= atoi(szTemp);

  00fd0	8d 85 fc fe ff
	ff		 lea	 eax, DWORD PTR _szTemp$[ebp]
  00fd6	50		 push	 eax
  00fd7	e8 00 00 00 00	 call	 _atoi
  00fdc	83 c4 04	 add	 esp, 4
  00fdf	a3 00 00 00 00	 mov	 DWORD PTR ?bCanTrade@@3HA, eax ; bCanTrade

; 3586 : 	
; 3587 : 	if( bCanTrade ) 

  00fe4	83 3d 00 00 00
	00 00		 cmp	 DWORD PTR ?bCanTrade@@3HA, 0 ; bCanTrade
  00feb	74 1c		 je	 SHORT $LN28@ReadCommon

; 3588 : 		LogAddTD(lMsg.Get(407));

  00fed	68 97 01 00 00	 push	 407			; 00000197H
  00ff2	b9 00 00 00 00	 mov	 ecx, OFFSET ?lMsg@@3VCMsg@@A ; lMsg
  00ff7	ff 15 00 00 00
	00		 call	 DWORD PTR __imp_?Get@CMsg@@QAEPADH@Z
  00ffd	50		 push	 eax
  00ffe	ff 15 00 00 00
	00		 call	 DWORD PTR ?LogAddTD@@3P6AXPADZZA ; LogAddTD
  01004	83 c4 04	 add	 esp, 4
  01007	eb 1a		 jmp	 SHORT $LN29@ReadCommon
$LN28@ReadCommon:

; 3589 : 	else LogAddTD(lMsg.Get(408));

  01009	68 98 01 00 00	 push	 408			; 00000198H
  0100e	b9 00 00 00 00	 mov	 ecx, OFFSET ?lMsg@@3VCMsg@@A ; lMsg
  01013	ff 15 00 00 00
	00		 call	 DWORD PTR __imp_?Get@CMsg@@QAEPADH@Z
  01019	50		 push	 eax
  0101a	ff 15 00 00 00
	00		 call	 DWORD PTR ?LogAddTD@@3P6AXPADZZA ; LogAddTD
  01020	83 c4 04	 add	 esp, 4
$LN29@ReadCommon:

; 3590 : 
; 3591 : 
; 3592 : 	bCanChaosBox = GetPrivateProfileInt("GameServerInfo", "ChaosBox", 0, gDirPath.GetNewPath("commonserver.cfg"));

  01023	68 00 00 00 00	 push	 OFFSET ??_C@_0BB@IGLHFEOF@commonserver?4cfg@
  01028	b9 00 00 00 00	 mov	 ecx, OFFSET ?gDirPath@@3VCDirPath@@A ; gDirPath
  0102d	e8 00 00 00 00	 call	 ?GetNewPath@CDirPath@@QAEPADPAD@Z ; CDirPath::GetNewPath
  01032	50		 push	 eax
  01033	6a 00		 push	 0
  01035	68 00 00 00 00	 push	 OFFSET ??_C@_08CIGOAAJ@ChaosBox@
  0103a	68 00 00 00 00	 push	 OFFSET ??_C@_0P@EMJDPFDH@GameServerInfo@
  0103f	ff 15 00 00 00
	00		 call	 DWORD PTR __imp__GetPrivateProfileIntA@16
  01045	a3 00 00 00 00	 mov	 DWORD PTR ?bCanChaosBox@@3HA, eax ; bCanChaosBox

; 3593 : 	gChaosEvent  = GetPrivateProfileInt("GameServerInfo", "ChaosEvent", 0, gDirPath.GetNewPath("commonserver.cfg"));

  0104a	68 00 00 00 00	 push	 OFFSET ??_C@_0BB@IGLHFEOF@commonserver?4cfg@
  0104f	b9 00 00 00 00	 mov	 ecx, OFFSET ?gDirPath@@3VCDirPath@@A ; gDirPath
  01054	e8 00 00 00 00	 call	 ?GetNewPath@CDirPath@@QAEPADPAD@Z ; CDirPath::GetNewPath
  01059	50		 push	 eax
  0105a	6a 00		 push	 0
  0105c	68 00 00 00 00	 push	 OFFSET ??_C@_0L@KKFEELGG@ChaosEvent@
  01061	68 00 00 00 00	 push	 OFFSET ??_C@_0P@EMJDPFDH@GameServerInfo@
  01066	ff 15 00 00 00
	00		 call	 DWORD PTR __imp__GetPrivateProfileIntA@16
  0106c	a3 00 00 00 00	 mov	 DWORD PTR ?gChaosEvent@@3HA, eax ; gChaosEvent

; 3594 : 	
; 3595 : 	GetPrivateProfileString("GameServerInfo", "ChaosEventServer", "210.181.89.241", gChaosEventServerIp, 20, gDirPath.GetNewPath("commonserver.cfg"));

  01071	68 00 00 00 00	 push	 OFFSET ??_C@_0BB@IGLHFEOF@commonserver?4cfg@
  01076	b9 00 00 00 00	 mov	 ecx, OFFSET ?gDirPath@@3VCDirPath@@A ; gDirPath
  0107b	e8 00 00 00 00	 call	 ?GetNewPath@CDirPath@@QAEPADPAD@Z ; CDirPath::GetNewPath
  01080	50		 push	 eax
  01081	6a 14		 push	 20			; 00000014H
  01083	68 00 00 00 00	 push	 OFFSET ?gChaosEventServerIp@@3PADA ; gChaosEventServerIp
  01088	68 00 00 00 00	 push	 OFFSET ??_C@_0P@LCMOAIFH@210?4181?489?4241@
  0108d	68 00 00 00 00	 push	 OFFSET ??_C@_0BB@LFFJPGMP@ChaosEventServer@
  01092	68 00 00 00 00	 push	 OFFSET ??_C@_0P@EMJDPFDH@GameServerInfo@
  01097	ff 15 00 00 00
	00		 call	 DWORD PTR __imp__GetPrivateProfileStringA@24

; 3596 : 
; 3597 : 	LogAdd("[Option] ChaosBox = %d", bCanChaosBox);

  0109d	a1 00 00 00 00	 mov	 eax, DWORD PTR ?bCanChaosBox@@3HA ; bCanChaosBox
  010a2	50		 push	 eax
  010a3	68 00 00 00 00	 push	 OFFSET ??_C@_0BH@HMHMODEL@?$FLOption?$FN?5ChaosBox?5?$DN?5?$CFd@
  010a8	ff 15 00 00 00
	00		 call	 DWORD PTR ?LogAdd@@3P6AXPADZZA ; LogAdd
  010ae	83 c4 08	 add	 esp, 8

; 3598 : 	LogAdd("[Option] ChaosEvent = %d", gChaosEvent);

  010b1	a1 00 00 00 00	 mov	 eax, DWORD PTR ?gChaosEvent@@3HA ; gChaosEvent
  010b6	50		 push	 eax
  010b7	68 00 00 00 00	 push	 OFFSET ??_C@_0BJ@BDPEJKAD@?$FLOption?$FN?5ChaosEvent?5?$DN?5?$CFd@
  010bc	ff 15 00 00 00
	00		 call	 DWORD PTR ?LogAdd@@3P6AXPADZZA ; LogAdd
  010c2	83 c4 08	 add	 esp, 8

; 3599 : 	LogAdd("[Option] ChaosEventServer = %s", gChaosEventServerIp);

  010c5	68 00 00 00 00	 push	 OFFSET ?gChaosEventServerIp@@3PADA ; gChaosEventServerIp
  010ca	68 00 00 00 00	 push	 OFFSET ??_C@_0BP@BODHCMPI@?$FLOption?$FN?5ChaosEventServer?5?$DN?5?$CFs@
  010cf	ff 15 00 00 00
	00		 call	 DWORD PTR ?LogAdd@@3P6AXPADZZA ; LogAdd
  010d5	83 c4 08	 add	 esp, 8

; 3600 : 	LogAdd("[Option] AttackEventRegenTime = %d", gAttackEventRegenTime);

  010d8	a1 00 00 00 00	 mov	 eax, DWORD PTR ?gAttackEventRegenTime@@3KA ; gAttackEventRegenTime
  010dd	50		 push	 eax
  010de	68 00 00 00 00	 push	 OFFSET ??_C@_0CD@DBODMHPC@?$FLOption?$FN?5AttackEventRegenTime?5?$DN@
  010e3	ff 15 00 00 00
	00		 call	 DWORD PTR ?LogAdd@@3P6AXPADZZA ; LogAdd
  010e9	83 c4 08	 add	 esp, 8

; 3601 : 
; 3602 : 	//   Tick () 1 1  2 2 
; 3603 : 	GetPrivateProfileString("GameServerInfo", "PKTIME", "1", szTemp, 5, gDirPath.GetNewPath("commonserver.cfg"));	

  010ec	68 00 00 00 00	 push	 OFFSET ??_C@_0BB@IGLHFEOF@commonserver?4cfg@
  010f1	b9 00 00 00 00	 mov	 ecx, OFFSET ?gDirPath@@3VCDirPath@@A ; gDirPath
  010f6	e8 00 00 00 00	 call	 ?GetNewPath@CDirPath@@QAEPADPAD@Z ; CDirPath::GetNewPath
  010fb	50		 push	 eax
  010fc	6a 05		 push	 5
  010fe	8d 85 fc fe ff
	ff		 lea	 eax, DWORD PTR _szTemp$[ebp]
  01104	50		 push	 eax
  01105	68 00 00 00 00	 push	 OFFSET ??_C@_01HIHLOKLC@1@
  0110a	68 00 00 00 00	 push	 OFFSET ??_C@_06PKBKOIPG@PKTIME@
  0110f	68 00 00 00 00	 push	 OFFSET ??_C@_0P@EMJDPFDH@GameServerInfo@
  01114	ff 15 00 00 00
	00		 call	 DWORD PTR __imp__GetPrivateProfileStringA@24

; 3604 : 	gPkTime					= atoi(szTemp);

  0111a	8d 85 fc fe ff
	ff		 lea	 eax, DWORD PTR _szTemp$[ebp]
  01120	50		 push	 eax
  01121	e8 00 00 00 00	 call	 _atoi
  01126	83 c4 04	 add	 esp, 4
  01129	a3 00 00 00 00	 mov	 DWORD PTR ?gPkTime@@3HA, eax ; gPkTime

; 3605 : 	if( gPkTime )

  0112e	83 3d 00 00 00
	00 00		 cmp	 DWORD PTR ?gPkTime@@3HA, 0 ; gPkTime
  01135	74 20		 je	 SHORT $LN30@ReadCommon

; 3606 : 		LogAddTD(lMsg.Get(409), gPkTime);

  01137	a1 00 00 00 00	 mov	 eax, DWORD PTR ?gPkTime@@3HA ; gPkTime
  0113c	50		 push	 eax
  0113d	68 99 01 00 00	 push	 409			; 00000199H
  01142	b9 00 00 00 00	 mov	 ecx, OFFSET ?lMsg@@3VCMsg@@A ; lMsg
  01147	ff 15 00 00 00
	00		 call	 DWORD PTR __imp_?Get@CMsg@@QAEPADH@Z
  0114d	50		 push	 eax
  0114e	ff 15 00 00 00
	00		 call	 DWORD PTR ?LogAddTD@@3P6AXPADZZA ; LogAddTD
  01154	83 c4 08	 add	 esp, 8
$LN30@ReadCommon:

; 3607 : 
; 3608 : 	GetPrivateProfileString("GameServerInfo", "MonsterHp", "0", szTemp, 5, gDirPath.GetNewPath("commonserver.cfg"));	

  01157	68 00 00 00 00	 push	 OFFSET ??_C@_0BB@IGLHFEOF@commonserver?4cfg@
  0115c	b9 00 00 00 00	 mov	 ecx, OFFSET ?gDirPath@@3VCDirPath@@A ; gDirPath
  01161	e8 00 00 00 00	 call	 ?GetNewPath@CDirPath@@QAEPADPAD@Z ; CDirPath::GetNewPath
  01166	50		 push	 eax
  01167	6a 05		 push	 5
  01169	8d 85 fc fe ff
	ff		 lea	 eax, DWORD PTR _szTemp$[ebp]
  0116f	50		 push	 eax
  01170	68 00 00 00 00	 push	 OFFSET ??_C@_01GBGANLPD@0@
  01175	68 00 00 00 00	 push	 OFFSET ??_C@_09LNOLFHKA@MonsterHp@
  0117a	68 00 00 00 00	 push	 OFFSET ??_C@_0P@EMJDPFDH@GameServerInfo@
  0117f	ff 15 00 00 00
	00		 call	 DWORD PTR __imp__GetPrivateProfileStringA@24

; 3609 : 	gMonsterHp				= atoi(szTemp);

  01185	8d 85 fc fe ff
	ff		 lea	 eax, DWORD PTR _szTemp$[ebp]
  0118b	50		 push	 eax
  0118c	e8 00 00 00 00	 call	 _atoi
  01191	83 c4 04	 add	 esp, 4
  01194	a3 00 00 00 00	 mov	 DWORD PTR ?gMonsterHp@@3HA, eax ; gMonsterHp

; 3610 : 	if( gMonsterHp )

  01199	83 3d 00 00 00
	00 00		 cmp	 DWORD PTR ?gMonsterHp@@3HA, 0 ; gMonsterHp
  011a0	74 20		 je	 SHORT $LN31@ReadCommon

; 3611 : 		LogAddTD(lMsg.Get(410), gMonsterHp);

  011a2	a1 00 00 00 00	 mov	 eax, DWORD PTR ?gMonsterHp@@3HA ; gMonsterHp
  011a7	50		 push	 eax
  011a8	68 9a 01 00 00	 push	 410			; 0000019aH
  011ad	b9 00 00 00 00	 mov	 ecx, OFFSET ?lMsg@@3VCMsg@@A ; lMsg
  011b2	ff 15 00 00 00
	00		 call	 DWORD PTR __imp_?Get@CMsg@@QAEPADH@Z
  011b8	50		 push	 eax
  011b9	ff 15 00 00 00
	00		 call	 DWORD PTR ?LogAddTD@@3P6AXPADZZA ; LogAddTD
  011bf	83 c4 08	 add	 esp, 8
$LN31@ReadCommon:

; 3612 : 
; 3613 : 	GetPrivateProfileString("GameServerInfo", "LootingTime", "3", szTemp, 5, szCommonlocIniFileName);	

  011c2	68 00 00 00 00	 push	 OFFSET ?szCommonlocIniFileName@@3PADA ; szCommonlocIniFileName
  011c7	6a 05		 push	 5
  011c9	8d 85 fc fe ff
	ff		 lea	 eax, DWORD PTR _szTemp$[ebp]
  011cf	50		 push	 eax
  011d0	68 00 00 00 00	 push	 OFFSET ??_C@_01EKENIIDA@3@
  011d5	68 00 00 00 00	 push	 OFFSET ??_C@_0M@CNCIMJOC@LootingTime@
  011da	68 00 00 00 00	 push	 OFFSET ??_C@_0P@EMJDPFDH@GameServerInfo@
  011df	ff 15 00 00 00
	00		 call	 DWORD PTR __imp__GetPrivateProfileStringA@24

; 3614 : 	gLootingTime = atoi(szTemp);

  011e5	8d 85 fc fe ff
	ff		 lea	 eax, DWORD PTR _szTemp$[ebp]
  011eb	50		 push	 eax
  011ec	e8 00 00 00 00	 call	 _atoi
  011f1	83 c4 04	 add	 esp, 4
  011f4	a3 00 00 00 00	 mov	 DWORD PTR ?gLootingTime@@3HA, eax ; gLootingTime

; 3615 : 	if( gLootingTime )

  011f9	83 3d 00 00 00
	00 00		 cmp	 DWORD PTR ?gLootingTime@@3HA, 0 ; gLootingTime
  01200	74 14		 je	 SHORT $LN32@ReadCommon

; 3616 : 		LogAddTD("[Option] Auto Looting Time Set : %d", gLootingTime);

  01202	a1 00 00 00 00	 mov	 eax, DWORD PTR ?gLootingTime@@3HA ; gLootingTime
  01207	50		 push	 eax
  01208	68 00 00 00 00	 push	 OFFSET ??_C@_0CE@CGDCLGCF@?$FLOption?$FN?5Auto?5Looting?5Time?5Set?5@
  0120d	ff 15 00 00 00
	00		 call	 DWORD PTR ?LogAddTD@@3P6AXPADZZA ; LogAddTD
  01213	83 c4 08	 add	 esp, 8
$LN32@ReadCommon:

; 3617 : 
; 3618 : 	GetPrivateProfileString("GameServerInfo", "PKItemDrop", "1", szTemp, 5, gDirPath.GetNewPath("commonserver.cfg"));	

  01216	68 00 00 00 00	 push	 OFFSET ??_C@_0BB@IGLHFEOF@commonserver?4cfg@
  0121b	b9 00 00 00 00	 mov	 ecx, OFFSET ?gDirPath@@3VCDirPath@@A ; gDirPath
  01220	e8 00 00 00 00	 call	 ?GetNewPath@CDirPath@@QAEPADPAD@Z ; CDirPath::GetNewPath
  01225	50		 push	 eax
  01226	6a 05		 push	 5
  01228	8d 85 fc fe ff
	ff		 lea	 eax, DWORD PTR _szTemp$[ebp]
  0122e	50		 push	 eax
  0122f	68 00 00 00 00	 push	 OFFSET ??_C@_01HIHLOKLC@1@
  01234	68 00 00 00 00	 push	 OFFSET ??_C@_0L@LNKCFJOF@PKItemDrop@
  01239	68 00 00 00 00	 push	 OFFSET ??_C@_0P@EMJDPFDH@GameServerInfo@
  0123e	ff 15 00 00 00
	00		 call	 DWORD PTR __imp__GetPrivateProfileStringA@24

; 3619 : 	gPkItemDrop  = atoi(szTemp);

  01244	8d 85 fc fe ff
	ff		 lea	 eax, DWORD PTR _szTemp$[ebp]
  0124a	50		 push	 eax
  0124b	e8 00 00 00 00	 call	 _atoi
  01250	83 c4 04	 add	 esp, 4
  01253	a3 00 00 00 00	 mov	 DWORD PTR ?gPkItemDrop@@3HA, eax ; gPkItemDrop

; 3620 : 	
; 3621 : 	if( gPkItemDrop )

  01258	83 3d 00 00 00
	00 00		 cmp	 DWORD PTR ?gPkItemDrop@@3HA, 0 ; gPkItemDrop
  0125f	74 1c		 je	 SHORT $LN33@ReadCommon

; 3622 : 		LogAddTD(lMsg.Get(411));

  01261	68 9b 01 00 00	 push	 411			; 0000019bH
  01266	b9 00 00 00 00	 mov	 ecx, OFFSET ?lMsg@@3VCMsg@@A ; lMsg
  0126b	ff 15 00 00 00
	00		 call	 DWORD PTR __imp_?Get@CMsg@@QAEPADH@Z
  01271	50		 push	 eax
  01272	ff 15 00 00 00
	00		 call	 DWORD PTR ?LogAddTD@@3P6AXPADZZA ; LogAddTD
  01278	83 c4 04	 add	 esp, 4
  0127b	eb 1a		 jmp	 SHORT $LN34@ReadCommon
$LN33@ReadCommon:

; 3623 : 	else LogAddTD(lMsg.Get(412));

  0127d	68 9c 01 00 00	 push	 412			; 0000019cH
  01282	b9 00 00 00 00	 mov	 ecx, OFFSET ?lMsg@@3VCMsg@@A ; lMsg
  01287	ff 15 00 00 00
	00		 call	 DWORD PTR __imp_?Get@CMsg@@QAEPADH@Z
  0128d	50		 push	 eax
  0128e	ff 15 00 00 00
	00		 call	 DWORD PTR ?LogAddTD@@3P6AXPADZZA ; LogAddTD
  01294	83 c4 04	 add	 esp, 4
$LN34@ReadCommon:

; 3624 : 
; 3625 : 	GetPrivateProfileString("GameServerInfo", "ItemDropPer", "10", szTemp, 5, gDirPath.GetNewPath("commonserver.cfg"));	

  01297	68 00 00 00 00	 push	 OFFSET ??_C@_0BB@IGLHFEOF@commonserver?4cfg@
  0129c	b9 00 00 00 00	 mov	 ecx, OFFSET ?gDirPath@@3VCDirPath@@A ; gDirPath
  012a1	e8 00 00 00 00	 call	 ?GetNewPath@CDirPath@@QAEPADPAD@Z ; CDirPath::GetNewPath
  012a6	50		 push	 eax
  012a7	6a 05		 push	 5
  012a9	8d 85 fc fe ff
	ff		 lea	 eax, DWORD PTR _szTemp$[ebp]
  012af	50		 push	 eax
  012b0	68 00 00 00 00	 push	 OFFSET ??_C@_02PKFBJPLJ@10@
  012b5	68 00 00 00 00	 push	 OFFSET ??_C@_0M@LDLBHBAP@ItemDropPer@
  012ba	68 00 00 00 00	 push	 OFFSET ??_C@_0P@EMJDPFDH@GameServerInfo@
  012bf	ff 15 00 00 00
	00		 call	 DWORD PTR __imp__GetPrivateProfileStringA@24

; 3626 : 	gItemDropPer = atoi(szTemp);

  012c5	8d 85 fc fe ff
	ff		 lea	 eax, DWORD PTR _szTemp$[ebp]
  012cb	50		 push	 eax
  012cc	e8 00 00 00 00	 call	 _atoi
  012d1	83 c4 04	 add	 esp, 4
  012d4	a3 00 00 00 00	 mov	 DWORD PTR ?gItemDropPer@@3HA, eax ; gItemDropPer

; 3627 : 	LogAddTD(lMsg.Get(413), gItemDropPer);

  012d9	a1 00 00 00 00	 mov	 eax, DWORD PTR ?gItemDropPer@@3HA ; gItemDropPer
  012de	50		 push	 eax
  012df	68 9d 01 00 00	 push	 413			; 0000019dH
  012e4	b9 00 00 00 00	 mov	 ecx, OFFSET ?lMsg@@3VCMsg@@A ; lMsg
  012e9	ff 15 00 00 00
	00		 call	 DWORD PTR __imp_?Get@CMsg@@QAEPADH@Z
  012ef	50		 push	 eax
  012f0	ff 15 00 00 00
	00		 call	 DWORD PTR ?LogAddTD@@3P6AXPADZZA ; LogAddTD
  012f6	83 c4 08	 add	 esp, 8

; 3628 : 
; 3629 : 	//    
; 3630 : 	gZenDurationTime = GetPrivateProfileInt("GameServerInfo", "ZenDurationTime", 30, gDirPath.GetNewPath("commonserver.cfg"));	

  012f9	68 00 00 00 00	 push	 OFFSET ??_C@_0BB@IGLHFEOF@commonserver?4cfg@
  012fe	b9 00 00 00 00	 mov	 ecx, OFFSET ?gDirPath@@3VCDirPath@@A ; gDirPath
  01303	e8 00 00 00 00	 call	 ?GetNewPath@CDirPath@@QAEPADPAD@Z ; CDirPath::GetNewPath
  01308	50		 push	 eax
  01309	6a 1e		 push	 30			; 0000001eH
  0130b	68 00 00 00 00	 push	 OFFSET ??_C@_0BA@LODEADPK@ZenDurationTime@
  01310	68 00 00 00 00	 push	 OFFSET ??_C@_0P@EMJDPFDH@GameServerInfo@
  01315	ff 15 00 00 00
	00		 call	 DWORD PTR __imp__GetPrivateProfileIntA@16
  0131b	a3 00 00 00 00	 mov	 DWORD PTR ?gZenDurationTime@@3HA, eax ; gZenDurationTime

; 3631 : 	gLootingTime = GetPrivateProfileInt("GameServerInfo", "ItemDurationTime", 30, gDirPath.GetNewPath("commonserver.cfg"));	

  01320	68 00 00 00 00	 push	 OFFSET ??_C@_0BB@IGLHFEOF@commonserver?4cfg@
  01325	b9 00 00 00 00	 mov	 ecx, OFFSET ?gDirPath@@3VCDirPath@@A ; gDirPath
  0132a	e8 00 00 00 00	 call	 ?GetNewPath@CDirPath@@QAEPADPAD@Z ; CDirPath::GetNewPath
  0132f	50		 push	 eax
  01330	6a 1e		 push	 30			; 0000001eH
  01332	68 00 00 00 00	 push	 OFFSET ??_C@_0BB@OMEMPADG@ItemDurationTime@
  01337	68 00 00 00 00	 push	 OFFSET ??_C@_0P@EMJDPFDH@GameServerInfo@
  0133c	ff 15 00 00 00
	00		 call	 DWORD PTR __imp__GetPrivateProfileIntA@16
  01342	a3 00 00 00 00	 mov	 DWORD PTR ?gLootingTime@@3HA, eax ; gLootingTime

; 3632 : 
; 3633 : 	//    
; 3634 : 	gEventChipEvent = GetPrivateProfileInt("GameServerInfo", "EventChipEvent", 0, gDirPath.GetNewPath("commonserver.cfg"));

  01347	68 00 00 00 00	 push	 OFFSET ??_C@_0BB@IGLHFEOF@commonserver?4cfg@
  0134c	b9 00 00 00 00	 mov	 ecx, OFFSET ?gDirPath@@3VCDirPath@@A ; gDirPath
  01351	e8 00 00 00 00	 call	 ?GetNewPath@CDirPath@@QAEPADPAD@Z ; CDirPath::GetNewPath
  01356	50		 push	 eax
  01357	6a 00		 push	 0
  01359	68 00 00 00 00	 push	 OFFSET ??_C@_0P@MCKGBBMK@EventChipEvent@
  0135e	68 00 00 00 00	 push	 OFFSET ??_C@_0P@EMJDPFDH@GameServerInfo@
  01363	ff 15 00 00 00
	00		 call	 DWORD PTR __imp__GetPrivateProfileIntA@16
  01369	a3 00 00 00 00	 mov	 DWORD PTR ?gEventChipEvent@@3HA, eax ; gEventChipEvent

; 3635 : 	gBoxOfGoldDropRate = GetPrivateProfileInt("GameServerInfo", "BoxOfGoldDropRate", 2, gDirPath.GetNewPath("commonserver.cfg"));

  0136e	68 00 00 00 00	 push	 OFFSET ??_C@_0BB@IGLHFEOF@commonserver?4cfg@
  01373	b9 00 00 00 00	 mov	 ecx, OFFSET ?gDirPath@@3VCDirPath@@A ; gDirPath
  01378	e8 00 00 00 00	 call	 ?GetNewPath@CDirPath@@QAEPADPAD@Z ; CDirPath::GetNewPath
  0137d	50		 push	 eax
  0137e	6a 02		 push	 2
  01380	68 00 00 00 00	 push	 OFFSET ??_C@_0BC@FNNFHNFE@BoxOfGoldDropRate@
  01385	68 00 00 00 00	 push	 OFFSET ??_C@_0P@EMJDPFDH@GameServerInfo@
  0138a	ff 15 00 00 00
	00		 call	 DWORD PTR __imp__GetPrivateProfileIntA@16
  01390	a3 00 00 00 00	 mov	 DWORD PTR ?gBoxOfGoldDropRate@@3HA, eax ; gBoxOfGoldDropRate

; 3636 : 	g_ItemDropRateForBoxOfGold = GetPrivateProfileInt("GameServerInfo", "ItemDropRateForBoxOfGold", 2, gDirPath.GetNewPath("commonserver.cfg"));

  01395	68 00 00 00 00	 push	 OFFSET ??_C@_0BB@IGLHFEOF@commonserver?4cfg@
  0139a	b9 00 00 00 00	 mov	 ecx, OFFSET ?gDirPath@@3VCDirPath@@A ; gDirPath
  0139f	e8 00 00 00 00	 call	 ?GetNewPath@CDirPath@@QAEPADPAD@Z ; CDirPath::GetNewPath
  013a4	50		 push	 eax
  013a5	6a 02		 push	 2
  013a7	68 00 00 00 00	 push	 OFFSET ??_C@_0BJ@GLDGDDON@ItemDropRateForBoxOfGold@
  013ac	68 00 00 00 00	 push	 OFFSET ??_C@_0P@EMJDPFDH@GameServerInfo@
  013b1	ff 15 00 00 00
	00		 call	 DWORD PTR __imp__GetPrivateProfileIntA@16
  013b7	a3 00 00 00 00	 mov	 DWORD PTR ?g_ItemDropRateForBoxOfGold@@3HA, eax ; g_ItemDropRateForBoxOfGold

; 3637 : 	g_EventChipDropRateForBoxOfGold = GetPrivateProfileInt("GameServerInfo", "EventChipDropRateForBoxOfGold", 2, gDirPath.GetNewPath("commonserver.cfg"));	

  013bc	68 00 00 00 00	 push	 OFFSET ??_C@_0BB@IGLHFEOF@commonserver?4cfg@
  013c1	b9 00 00 00 00	 mov	 ecx, OFFSET ?gDirPath@@3VCDirPath@@A ; gDirPath
  013c6	e8 00 00 00 00	 call	 ?GetNewPath@CDirPath@@QAEPADPAD@Z ; CDirPath::GetNewPath
  013cb	50		 push	 eax
  013cc	6a 02		 push	 2
  013ce	68 00 00 00 00	 push	 OFFSET ??_C@_0BO@DEAIHFPL@EventChipDropRateForBoxOfGold@
  013d3	68 00 00 00 00	 push	 OFFSET ??_C@_0P@EMJDPFDH@GameServerInfo@
  013d8	ff 15 00 00 00
	00		 call	 DWORD PTR __imp__GetPrivateProfileIntA@16
  013de	a3 00 00 00 00	 mov	 DWORD PTR ?g_EventChipDropRateForBoxOfGold@@3HA, eax ; g_EventChipDropRateForBoxOfGold

; 3638 : 
; 3639 : #ifdef GAMESERVER_TO_CASTLESIEGESERVER	//    , , ,   .
; 3640 : 	gDevilSquareEvent	= 0;
; 3641 : #endif
; 3642 : 
; 3643 : 	if( !gDevilSquareEvent )

  013e3	83 3d 00 00 00
	00 00		 cmp	 DWORD PTR ?gDevilSquareEvent@@3HA, 0 ; gDevilSquareEvent
  013ea	75 0a		 jne	 SHORT $LN35@ReadCommon

; 3644 : 	{	//    ,  
; 3645 : 		g_DevilSquare.SetClose();

  013ec	b9 00 00 00 00	 mov	 ecx, OFFSET ?g_DevilSquare@@3VCDevilSquare@@A ; g_DevilSquare
  013f1	e8 00 00 00 00	 call	 ?SetClose@CDevilSquare@@QAEXXZ ; CDevilSquare::SetClose
$LN35@ReadCommon:

; 3646 : 	}
; 3647 : 
; 3648 : 	//     
; 3649 : 	gAttackSpeedTimeLimit = GetPrivateProfileInt("GameServerInfo", "AttackSpeedTimeLimit", 800, gDirPath.GetNewPath("commonserver.cfg"));

  013f6	68 00 00 00 00	 push	 OFFSET ??_C@_0BB@IGLHFEOF@commonserver?4cfg@
  013fb	b9 00 00 00 00	 mov	 ecx, OFFSET ?gDirPath@@3VCDirPath@@A ; gDirPath
  01400	e8 00 00 00 00	 call	 ?GetNewPath@CDirPath@@QAEPADPAD@Z ; CDirPath::GetNewPath
  01405	50		 push	 eax
  01406	68 20 03 00 00	 push	 800			; 00000320H
  0140b	68 00 00 00 00	 push	 OFFSET ??_C@_0BF@EDGAONAD@AttackSpeedTimeLimit@
  01410	68 00 00 00 00	 push	 OFFSET ??_C@_0P@EMJDPFDH@GameServerInfo@
  01415	ff 15 00 00 00
	00		 call	 DWORD PTR __imp__GetPrivateProfileIntA@16
  0141b	a3 00 00 00 00	 mov	 DWORD PTR ?gAttackSpeedTimeLimit@@3KA, eax ; gAttackSpeedTimeLimit

; 3650 : 	bIsIgnorePacketSpeedHackDetect = GetPrivateProfileInt("GameServerInfo", "IsIgnorePacketHackDetect", 0, gDirPath.GetNewPath("commonserver.cfg"));		

  01420	68 00 00 00 00	 push	 OFFSET ??_C@_0BB@IGLHFEOF@commonserver?4cfg@
  01425	b9 00 00 00 00	 mov	 ecx, OFFSET ?gDirPath@@3VCDirPath@@A ; gDirPath
  0142a	e8 00 00 00 00	 call	 ?GetNewPath@CDirPath@@QAEPADPAD@Z ; CDirPath::GetNewPath
  0142f	50		 push	 eax
  01430	6a 00		 push	 0
  01432	68 00 00 00 00	 push	 OFFSET ??_C@_0BJ@KEAABHOA@IsIgnorePacketHackDetect@
  01437	68 00 00 00 00	 push	 OFFSET ??_C@_0P@EMJDPFDH@GameServerInfo@
  0143c	ff 15 00 00 00
	00		 call	 DWORD PTR __imp__GetPrivateProfileIntA@16
  01442	a3 00 00 00 00	 mov	 DWORD PTR ?bIsIgnorePacketSpeedHackDetect@@3HA, eax ; bIsIgnorePacketSpeedHackDetect

; 3651 : 	gHackCheckCount = GetPrivateProfileInt("GameServerInfo", "HackCheckCount", 5.5, gDirPath.GetNewPath("commonserver.cfg"));	

  01447	68 00 00 00 00	 push	 OFFSET ??_C@_0BB@IGLHFEOF@commonserver?4cfg@
  0144c	b9 00 00 00 00	 mov	 ecx, OFFSET ?gDirPath@@3VCDirPath@@A ; gDirPath
  01451	e8 00 00 00 00	 call	 ?GetNewPath@CDirPath@@QAEPADPAD@Z ; CDirPath::GetNewPath
  01456	50		 push	 eax
  01457	6a 05		 push	 5
  01459	68 00 00 00 00	 push	 OFFSET ??_C@_0P@FNJLIJMF@HackCheckCount@
  0145e	68 00 00 00 00	 push	 OFFSET ??_C@_0P@EMJDPFDH@GameServerInfo@
  01463	ff 15 00 00 00
	00		 call	 DWORD PTR __imp__GetPrivateProfileIntA@16
  01469	a3 00 00 00 00	 mov	 DWORD PTR ?gHackCheckCount@@3KA, eax ; gHackCheckCount

; 3652 : 	gMinimumAttackSpeedTime = GetPrivateProfileInt("GameServerInfo", "MinimumAttackSpeedTime", 200, gDirPath.GetNewPath("commonserver.cfg"));	

  0146e	68 00 00 00 00	 push	 OFFSET ??_C@_0BB@IGLHFEOF@commonserver?4cfg@
  01473	b9 00 00 00 00	 mov	 ecx, OFFSET ?gDirPath@@3VCDirPath@@A ; gDirPath
  01478	e8 00 00 00 00	 call	 ?GetNewPath@CDirPath@@QAEPADPAD@Z ; CDirPath::GetNewPath
  0147d	50		 push	 eax
  0147e	68 c8 00 00 00	 push	 200			; 000000c8H
  01483	68 00 00 00 00	 push	 OFFSET ??_C@_0BH@CLHIGLBH@MinimumAttackSpeedTime@
  01488	68 00 00 00 00	 push	 OFFSET ??_C@_0P@EMJDPFDH@GameServerInfo@
  0148d	ff 15 00 00 00
	00		 call	 DWORD PTR __imp__GetPrivateProfileIntA@16
  01493	a3 00 00 00 00	 mov	 DWORD PTR ?gMinimumAttackSpeedTime@@3HA, eax ; gMinimumAttackSpeedTime

; 3653 : 
; 3654 : 	gDetectedHackKickCount = GetPrivateProfileInt("GameServerInfo", "DetectedHackKickCount", 10, gDirPath.GetNewPath("commonserver.cfg"));	

  01498	68 00 00 00 00	 push	 OFFSET ??_C@_0BB@IGLHFEOF@commonserver?4cfg@
  0149d	b9 00 00 00 00	 mov	 ecx, OFFSET ?gDirPath@@3VCDirPath@@A ; gDirPath
  014a2	e8 00 00 00 00	 call	 ?GetNewPath@CDirPath@@QAEPADPAD@Z ; CDirPath::GetNewPath
  014a7	50		 push	 eax
  014a8	6a 0a		 push	 10			; 0000000aH
  014aa	68 00 00 00 00	 push	 OFFSET ??_C@_0BG@GBBHJJPD@DetectedHackKickCount@
  014af	68 00 00 00 00	 push	 OFFSET ??_C@_0P@EMJDPFDH@GameServerInfo@
  014b4	ff 15 00 00 00
	00		 call	 DWORD PTR __imp__GetPrivateProfileIntA@16
  014ba	a3 00 00 00 00	 mov	 DWORD PTR ?gDetectedHackKickCount@@3HA, eax ; gDetectedHackKickCount

; 3655 : 	gIsKickDetecHackCountLimit = GetPrivateProfileInt("GameServerInfo", "IsKickDetecHackCountLimit", 0, gDirPath.GetNewPath("commonserver.cfg"));	

  014bf	68 00 00 00 00	 push	 OFFSET ??_C@_0BB@IGLHFEOF@commonserver?4cfg@
  014c4	b9 00 00 00 00	 mov	 ecx, OFFSET ?gDirPath@@3VCDirPath@@A ; gDirPath
  014c9	e8 00 00 00 00	 call	 ?GetNewPath@CDirPath@@QAEPADPAD@Z ; CDirPath::GetNewPath
  014ce	50		 push	 eax
  014cf	6a 00		 push	 0
  014d1	68 00 00 00 00	 push	 OFFSET ??_C@_0BK@JCJPKDIP@IsKickDetecHackCountLimit@
  014d6	68 00 00 00 00	 push	 OFFSET ??_C@_0P@EMJDPFDH@GameServerInfo@
  014db	ff 15 00 00 00
	00		 call	 DWORD PTR __imp__GetPrivateProfileIntA@16
  014e1	a3 00 00 00 00	 mov	 DWORD PTR ?gIsKickDetecHackCountLimit@@3HA, eax ; gIsKickDetecHackCountLimit

; 3656 : 
; 3657 : #ifdef CHECK_ATTACK_AREA
; 3658 : 	gNotAttackAreaKickCount = GetPrivateProfileInt("GameServerInfo", "NotAttackAreaKickCount", 0, gDirPath.GetNewPath("commonserver.cfg"));	
; 3659 : 	gIsKickNotAttackAreaCountLimit = GetPrivateProfileInt("GameServerInfo", "IsKickNotAttackAreaCountLimit", 0, gDirPath.GetNewPath("commonserver.cfg"));	
; 3660 : #endif
; 3661 : 
; 3662 : #ifdef CHINA_HACKUSER_KICK_SYSTEM
; 3663 : 	gBlockHackUserCharacter = GetPrivateProfileInt("GameServerInfo", "BlockHackUserCharacter", 0, gDirPath.GetNewPath("commonserver.cfg"));	
; 3664 : 	gBlockHackUserAccount = GetPrivateProfileInt("GameServerInfo", "BlockHackUserAccount", 0, gDirPath.GetNewPath("commonserver.cfg"));	
; 3665 : #endif
; 3666 : 	
; 3667 : #ifdef CHINA_HACKUSER_KICK_SYSTEM
; 3668 : 	ChinaHackLogFile.Output("[HLS] AttackSpeedTimeLimit = %d", gAttackSpeedTimeLimit);
; 3669 : 	ChinaHackLogFile.Output("[HLS] IsIgnorePacketHackDetect = %d", bIsIgnorePacketSpeedHackDetect);
; 3670 : 	ChinaHackLogFile.Output("[HLS] HackCheckCount = %d", gHackCheckCount);
; 3671 : 	ChinaHackLogFile.Output("[HLS] MinimumAttackSpeedTime = %d", gMinimumAttackSpeedTime);
; 3672 : 	ChinaHackLogFile.Output("[HLS] DetectedHackKickCount = %d", gDetectedHackKickCount);
; 3673 : 	ChinaHackLogFile.Output("[HLS] IsKickDetecHackCountLimit = %d", gIsKickDetecHackCountLimit);
; 3674 : 
; 3675 : 	ChinaHackLogFile.Output("[HLS] NotAttackAreaKickCount = %d", gNotAttackAreaKickCount);
; 3676 : 	ChinaHackLogFile.Output("[HLS] IsKickNotAttackAreaCountLimit = %d", gIsKickNotAttackAreaCountLimit);
; 3677 : 
; 3678 : 	ChinaHackLogFile.Output("[HLS] BlockHackUserCharacter = %d", gBlockHackUserCharacter);
; 3679 : 	ChinaHackLogFile.Output("[HLS] BlockHackUserAccount = %d", gBlockHackUserAccount);
; 3680 : #endif
; 3681 : 
; 3682 : 	//  
; 3683 : #ifdef FOR_JAPAN
; 3684 : 	gTamaJJangEvent = GetPrivateProfileInt("GameServerInfo", "TamaJJangEvent", 0, gDirPath.GetNewPath("commonserver.cfg"));	
; 3685 : 	gTamaJJangKeepTime = GetPrivateProfileInt("GameServerInfo", "TamaJJangKeepTime", 0, gDirPath.GetNewPath("commonserver.cfg"));	
; 3686 : 
; 3687 : 	gTamaJJangDisappearTime = GetPrivateProfileInt("GameServerInfo", "TamaJJangDisappearTime", 1800, gDirPath.GetNewPath("commonserver.cfg"));	
; 3688 : 	gTamaJJangDisappearTimeRandomRange = GetPrivateProfileInt("GameServerInfo", "TamaJJangDisappearTimeRandomRange", 1800, gDirPath.GetNewPath("commonserver.cfg"));	
; 3689 : 
; 3690 : 	gTamaJJangTime = 10;
; 3691 : #endif	
; 3692 : 
; 3693 : #ifdef ITEMDROP_RINGOFTRANSFORM
; 3694 : 	gIsItemDropRingOfTransform = GetPrivateProfileInt("GameServerInfo", "IsItemDropRingOfTransform", 0, gDirPath.GetNewPath("commonserver.cfg"));	

  014e6	68 00 00 00 00	 push	 OFFSET ??_C@_0BB@IGLHFEOF@commonserver?4cfg@
  014eb	b9 00 00 00 00	 mov	 ecx, OFFSET ?gDirPath@@3VCDirPath@@A ; gDirPath
  014f0	e8 00 00 00 00	 call	 ?GetNewPath@CDirPath@@QAEPADPAD@Z ; CDirPath::GetNewPath
  014f5	50		 push	 eax
  014f6	6a 00		 push	 0
  014f8	68 00 00 00 00	 push	 OFFSET ??_C@_0BK@JABOLCNK@IsItemDropRingOfTransform@
  014fd	68 00 00 00 00	 push	 OFFSET ??_C@_0P@EMJDPFDH@GameServerInfo@
  01502	ff 15 00 00 00
	00		 call	 DWORD PTR __imp__GetPrivateProfileIntA@16
  01508	a3 00 00 00 00	 mov	 DWORD PTR ?gIsItemDropRingOfTransform@@3HA, eax ; gIsItemDropRingOfTransform

; 3695 : 	gItemDropRingOfTransform = GetPrivateProfileInt("GameServerInfo", "ItemDropRingOfTransform", 1, gDirPath.GetNewPath("commonserver.cfg"));	

  0150d	68 00 00 00 00	 push	 OFFSET ??_C@_0BB@IGLHFEOF@commonserver?4cfg@
  01512	b9 00 00 00 00	 mov	 ecx, OFFSET ?gDirPath@@3VCDirPath@@A ; gDirPath
  01517	e8 00 00 00 00	 call	 ?GetNewPath@CDirPath@@QAEPADPAD@Z ; CDirPath::GetNewPath
  0151c	50		 push	 eax
  0151d	6a 01		 push	 1
  0151f	68 00 00 00 00	 push	 OFFSET ??_C@_0BI@IMCEGONI@ItemDropRingOfTransform@
  01524	68 00 00 00 00	 push	 OFFSET ??_C@_0P@EMJDPFDH@GameServerInfo@
  01529	ff 15 00 00 00
	00		 call	 DWORD PTR __imp__GetPrivateProfileIntA@16
  0152f	a3 00 00 00 00	 mov	 DWORD PTR ?gItemDropRingOfTransform@@3HA, eax ; gItemDropRingOfTransform

; 3696 : #endif
; 3697 : 
; 3698 : 	//   ?
; 3699 : 	gWriteChatLog = GetPrivateProfileInt("GameServerInfo", "WriteChatLog", 0, gDirPath.GetNewPath("commonserver.cfg"));

  01534	68 00 00 00 00	 push	 OFFSET ??_C@_0BB@IGLHFEOF@commonserver?4cfg@
  01539	b9 00 00 00 00	 mov	 ecx, OFFSET ?gDirPath@@3VCDirPath@@A ; gDirPath
  0153e	e8 00 00 00 00	 call	 ?GetNewPath@CDirPath@@QAEPADPAD@Z ; CDirPath::GetNewPath
  01543	50		 push	 eax
  01544	6a 00		 push	 0
  01546	68 00 00 00 00	 push	 OFFSET ??_C@_0N@OGIIBFAP@WriteChatLog@
  0154b	68 00 00 00 00	 push	 OFFSET ??_C@_0P@EMJDPFDH@GameServerInfo@
  01550	ff 15 00 00 00
	00		 call	 DWORD PTR __imp__GetPrivateProfileIntA@16
  01556	a3 00 00 00 00	 mov	 DWORD PTR ?gWriteChatLog@@3HA, eax ; gWriteChatLog

; 3700 : 
; 3701 : 	gDisconnectHackUser = GetPrivateProfileInt("GameServerInfo", "DisconnectHackUser", 0, gDirPath.GetNewPath("commonserver.cfg"));

  0155b	68 00 00 00 00	 push	 OFFSET ??_C@_0BB@IGLHFEOF@commonserver?4cfg@
  01560	b9 00 00 00 00	 mov	 ecx, OFFSET ?gDirPath@@3VCDirPath@@A ; gDirPath
  01565	e8 00 00 00 00	 call	 ?GetNewPath@CDirPath@@QAEPADPAD@Z ; CDirPath::GetNewPath
  0156a	50		 push	 eax
  0156b	6a 00		 push	 0
  0156d	68 00 00 00 00	 push	 OFFSET ??_C@_0BD@OBHCBKDC@DisconnectHackUser@
  01572	68 00 00 00 00	 push	 OFFSET ??_C@_0P@EMJDPFDH@GameServerInfo@
  01577	ff 15 00 00 00
	00		 call	 DWORD PTR __imp__GetPrivateProfileIntA@16
  0157d	a3 00 00 00 00	 mov	 DWORD PTR ?gDisconnectHackUser@@3HA, eax ; gDisconnectHackUser

; 3702 : 
; 3703 : 	gUseNPGGChecksum = GetPrivateProfileInt("GameServerInfo", "UseNPGGChecksum", 0, gDirPath.GetNewPath("commonserver.cfg"));

  01582	68 00 00 00 00	 push	 OFFSET ??_C@_0BB@IGLHFEOF@commonserver?4cfg@
  01587	b9 00 00 00 00	 mov	 ecx, OFFSET ?gDirPath@@3VCDirPath@@A ; gDirPath
  0158c	e8 00 00 00 00	 call	 ?GetNewPath@CDirPath@@QAEPADPAD@Z ; CDirPath::GetNewPath
  01591	50		 push	 eax
  01592	6a 00		 push	 0
  01594	68 00 00 00 00	 push	 OFFSET ??_C@_0BA@OAOAELOO@UseNPGGChecksum@
  01599	68 00 00 00 00	 push	 OFFSET ??_C@_0P@EMJDPFDH@GameServerInfo@
  0159e	ff 15 00 00 00
	00		 call	 DWORD PTR __imp__GetPrivateProfileIntA@16
  015a4	a3 00 00 00 00	 mov	 DWORD PTR ?gUseNPGGChecksum@@3HA, eax ; gUseNPGGChecksum

; 3704 : 
; 3705 : 	
; 3706 : 
; 3707 : 	GetPrivateProfileString("GameServerInfo", "DecTimePerAttackSpeed", "5.33", szTemp, 5, gDirPath.GetNewPath("commonserver.cfg"));	

  015a9	68 00 00 00 00	 push	 OFFSET ??_C@_0BB@IGLHFEOF@commonserver?4cfg@
  015ae	b9 00 00 00 00	 mov	 ecx, OFFSET ?gDirPath@@3VCDirPath@@A ; gDirPath
  015b3	e8 00 00 00 00	 call	 ?GetNewPath@CDirPath@@QAEPADPAD@Z ; CDirPath::GetNewPath
  015b8	50		 push	 eax
  015b9	6a 05		 push	 5
  015bb	8d 85 fc fe ff
	ff		 lea	 eax, DWORD PTR _szTemp$[ebp]
  015c1	50		 push	 eax
  015c2	68 00 00 00 00	 push	 OFFSET ??_C@_04MCLHNJOA@5?433@
  015c7	68 00 00 00 00	 push	 OFFSET ??_C@_0BG@MPJHCBCJ@DecTimePerAttackSpeed@
  015cc	68 00 00 00 00	 push	 OFFSET ??_C@_0P@EMJDPFDH@GameServerInfo@
  015d1	ff 15 00 00 00
	00		 call	 DWORD PTR __imp__GetPrivateProfileStringA@24

; 3708 : 	gDecTimePerAttackSpeed = atof(szTemp);

  015d7	8d 85 fc fe ff
	ff		 lea	 eax, DWORD PTR _szTemp$[ebp]
  015dd	50		 push	 eax
  015de	e8 00 00 00 00	 call	 _atof
  015e3	83 c4 04	 add	 esp, 4
  015e6	d9 1d 00 00 00
	00		 fstp	 DWORD PTR ?gDecTimePerAttackSpeed@@3MA ; gDecTimePerAttackSpeed

; 3709 : 
; 3710 : 	//     
; 3711 : 	gSpeedHackPenalty = GetPrivateProfileInt("GameServerInfo", "SpeedHackPenalty", 0, gDirPath.GetNewPath("commonserver.cfg"));	

  015ec	68 00 00 00 00	 push	 OFFSET ??_C@_0BB@IGLHFEOF@commonserver?4cfg@
  015f1	b9 00 00 00 00	 mov	 ecx, OFFSET ?gDirPath@@3VCDirPath@@A ; gDirPath
  015f6	e8 00 00 00 00	 call	 ?GetNewPath@CDirPath@@QAEPADPAD@Z ; CDirPath::GetNewPath
  015fb	50		 push	 eax
  015fc	6a 00		 push	 0
  015fe	68 00 00 00 00	 push	 OFFSET ??_C@_0BB@MCFEHCJF@SpeedHackPenalty@
  01603	68 00 00 00 00	 push	 OFFSET ??_C@_0P@EMJDPFDH@GameServerInfo@
  01608	ff 15 00 00 00
	00		 call	 DWORD PTR __imp__GetPrivateProfileIntA@16
  0160e	a3 00 00 00 00	 mov	 DWORD PTR ?gSpeedHackPenalty@@3HA, eax ; gSpeedHackPenalty

; 3712 : 
; 3713 : 
; 3714 : 	//   
; 3715 : #ifdef DEVILSQUARE_EXTEND_20050221		//   
; 3716 : 	gDQChaosSuccessRateLevel1 = GetPrivateProfileInt("GameServerInfo", "DQChaosSuccessRateLevel1", 75, gDirPath.GetNewPath("commonserver.cfg"));
; 3717 : 	gDQChaosSuccessRateLevel2 = GetPrivateProfileInt("GameServerInfo", "DQChaosSuccessRateLevel2", 70, gDirPath.GetNewPath("commonserver.cfg"));
; 3718 : 	gDQChaosSuccessRateLevel3 = GetPrivateProfileInt("GameServerInfo", "DQChaosSuccessRateLevel3", 65, gDirPath.GetNewPath("commonserver.cfg"));
; 3719 : 	gDQChaosSuccessRateLevel4 = GetPrivateProfileInt("GameServerInfo", "DQChaosSuccessRateLevel4", 60, gDirPath.GetNewPath("commonserver.cfg"));
; 3720 : 	gDQChaosSuccessRateLevel5 = GetPrivateProfileInt("GameServerInfo", "DQChaosSuccessRateLevel5", 55, gDirPath.GetNewPath("commonserver.cfg"));
; 3721 : 	gDQChaosSuccessRateLevel6 = GetPrivateProfileInt("GameServerInfo", "DQChaosSuccessRateLevel6", 50, gDirPath.GetNewPath("commonserver.cfg"));
; 3722 : #ifdef ADD_DEVILSQURE_FOR_MASTER_LEVEL_20071010		// 7    
; 3723 : 	gDQChaosSuccessRateLevel7 = GetPrivateProfileInt("GameServerInfo", "DQChaosSuccessRateLevel7", 45, gDirPath.GetNewPath("commonserver.cfg"));
; 3724 : #endif
; 3725 : #else
; 3726 : 	gDQChaosSuccessRateLevel1 = GetPrivateProfileInt("GameServerInfo", "DQChaosSuccessRateLevel1", 80, gDirPath.GetNewPath("commonserver.cfg"));	

  01613	68 00 00 00 00	 push	 OFFSET ??_C@_0BB@IGLHFEOF@commonserver?4cfg@
  01618	b9 00 00 00 00	 mov	 ecx, OFFSET ?gDirPath@@3VCDirPath@@A ; gDirPath
  0161d	e8 00 00 00 00	 call	 ?GetNewPath@CDirPath@@QAEPADPAD@Z ; CDirPath::GetNewPath
  01622	50		 push	 eax
  01623	6a 50		 push	 80			; 00000050H
  01625	68 00 00 00 00	 push	 OFFSET ??_C@_0BJ@IOEIMNCB@DQChaosSuccessRateLevel1@
  0162a	68 00 00 00 00	 push	 OFFSET ??_C@_0P@EMJDPFDH@GameServerInfo@
  0162f	ff 15 00 00 00
	00		 call	 DWORD PTR __imp__GetPrivateProfileIntA@16
  01635	a3 00 00 00 00	 mov	 DWORD PTR ?gDQChaosSuccessRateLevel1@@3HA, eax ; gDQChaosSuccessRateLevel1

; 3727 : 	gDQChaosSuccessRateLevel2 = GetPrivateProfileInt("GameServerInfo", "DQChaosSuccessRateLevel2", 75, gDirPath.GetNewPath("commonserver.cfg"));	

  0163a	68 00 00 00 00	 push	 OFFSET ??_C@_0BB@IGLHFEOF@commonserver?4cfg@
  0163f	b9 00 00 00 00	 mov	 ecx, OFFSET ?gDirPath@@3VCDirPath@@A ; gDirPath
  01644	e8 00 00 00 00	 call	 ?GetNewPath@CDirPath@@QAEPADPAD@Z ; CDirPath::GetNewPath
  01649	50		 push	 eax
  0164a	6a 4b		 push	 75			; 0000004bH
  0164c	68 00 00 00 00	 push	 OFFSET ??_C@_0BJ@KFGFJOOC@DQChaosSuccessRateLevel2@
  01651	68 00 00 00 00	 push	 OFFSET ??_C@_0P@EMJDPFDH@GameServerInfo@
  01656	ff 15 00 00 00
	00		 call	 DWORD PTR __imp__GetPrivateProfileIntA@16
  0165c	a3 00 00 00 00	 mov	 DWORD PTR ?gDQChaosSuccessRateLevel2@@3HA, eax ; gDQChaosSuccessRateLevel2

; 3728 : 	gDQChaosSuccessRateLevel3 = GetPrivateProfileInt("GameServerInfo", "DQChaosSuccessRateLevel3", 70, gDirPath.GetNewPath("commonserver.cfg"));	

  01661	68 00 00 00 00	 push	 OFFSET ??_C@_0BB@IGLHFEOF@commonserver?4cfg@
  01666	b9 00 00 00 00	 mov	 ecx, OFFSET ?gDirPath@@3VCDirPath@@A ; gDirPath
  0166b	e8 00 00 00 00	 call	 ?GetNewPath@CDirPath@@QAEPADPAD@Z ; CDirPath::GetNewPath
  01670	50		 push	 eax
  01671	6a 46		 push	 70			; 00000046H
  01673	68 00 00 00 00	 push	 OFFSET ??_C@_0BJ@LMHOKPKD@DQChaosSuccessRateLevel3@
  01678	68 00 00 00 00	 push	 OFFSET ??_C@_0P@EMJDPFDH@GameServerInfo@
  0167d	ff 15 00 00 00
	00		 call	 DWORD PTR __imp__GetPrivateProfileIntA@16
  01683	a3 00 00 00 00	 mov	 DWORD PTR ?gDQChaosSuccessRateLevel3@@3HA, eax ; gDQChaosSuccessRateLevel3

; 3729 : 	gDQChaosSuccessRateLevel4 = GetPrivateProfileInt("GameServerInfo", "DQChaosSuccessRateLevel4", 60, gDirPath.GetNewPath("commonserver.cfg"));

  01688	68 00 00 00 00	 push	 OFFSET ??_C@_0BB@IGLHFEOF@commonserver?4cfg@
  0168d	b9 00 00 00 00	 mov	 ecx, OFFSET ?gDirPath@@3VCDirPath@@A ; gDirPath
  01692	e8 00 00 00 00	 call	 ?GetNewPath@CDirPath@@QAEPADPAD@Z ; CDirPath::GetNewPath
  01697	50		 push	 eax
  01698	6a 3c		 push	 60			; 0000003cH
  0169a	68 00 00 00 00	 push	 OFFSET ??_C@_0BJ@PDDPDJGE@DQChaosSuccessRateLevel4@
  0169f	68 00 00 00 00	 push	 OFFSET ??_C@_0P@EMJDPFDH@GameServerInfo@
  016a4	ff 15 00 00 00
	00		 call	 DWORD PTR __imp__GetPrivateProfileIntA@16
  016aa	a3 00 00 00 00	 mov	 DWORD PTR ?gDQChaosSuccessRateLevel4@@3HA, eax ; gDQChaosSuccessRateLevel4

; 3730 : #endif
; 3731 : 
; 3732 : 	gWriteSkillLog = GetPrivateProfileInt("GameServerInfo", "WriteSkillLog", 0, gDirPath.GetNewPath("commonserver.cfg"));

  016af	68 00 00 00 00	 push	 OFFSET ??_C@_0BB@IGLHFEOF@commonserver?4cfg@
  016b4	b9 00 00 00 00	 mov	 ecx, OFFSET ?gDirPath@@3VCDirPath@@A ; gDirPath
  016b9	e8 00 00 00 00	 call	 ?GetNewPath@CDirPath@@QAEPADPAD@Z ; CDirPath::GetNewPath
  016be	50		 push	 eax
  016bf	6a 00		 push	 0
  016c1	68 00 00 00 00	 push	 OFFSET ??_C@_0O@DJJFJNIL@WriteSkillLog@
  016c6	68 00 00 00 00	 push	 OFFSET ??_C@_0P@EMJDPFDH@GameServerInfo@
  016cb	ff 15 00 00 00
	00		 call	 DWORD PTR __imp__GetPrivateProfileIntA@16
  016d1	a3 00 00 00 00	 mov	 DWORD PTR ?gWriteSkillLog@@3HA, eax ; gWriteSkillLog

; 3733 : 
; 3734 : 	gQuestNPCTeleportTime = GetPrivateProfileInt("GameServerInfo", "QuestNPCTeleportTime", 900, gDirPath.GetNewPath("commonserver.cfg"));

  016d6	68 00 00 00 00	 push	 OFFSET ??_C@_0BB@IGLHFEOF@commonserver?4cfg@
  016db	b9 00 00 00 00	 mov	 ecx, OFFSET ?gDirPath@@3VCDirPath@@A ; gDirPath
  016e0	e8 00 00 00 00	 call	 ?GetNewPath@CDirPath@@QAEPADPAD@Z ; CDirPath::GetNewPath
  016e5	50		 push	 eax
  016e6	68 84 03 00 00	 push	 900			; 00000384H
  016eb	68 00 00 00 00	 push	 OFFSET ??_C@_0BF@HDFDIILJ@QuestNPCTeleportTime@
  016f0	68 00 00 00 00	 push	 OFFSET ??_C@_0P@EMJDPFDH@GameServerInfo@
  016f5	ff 15 00 00 00
	00		 call	 DWORD PTR __imp__GetPrivateProfileIntA@16
  016fb	a3 00 00 00 00	 mov	 DWORD PTR ?gQuestNPCTeleportTime@@3HA, eax ; gQuestNPCTeleportTime

; 3735 : 
; 3736 : #ifdef JAPAN_1ST_ANIVERSARY_BOX_20040531
; 3737 : 	g_iJapan1StAnivItemDropRate = GetPrivateProfileInt("GameServerInfo", "Japan1StAnivItemDropRate", 0, gDirPath.GetNewPath("commonserver.cfg"));
; 3738 : #endif
; 3739 : 
; 3740 : #ifdef MU_CASTLESIEGE_CS_MARKS_20041214						//   
; 3741 : 	g_iMarkOfTheLord			= GetPrivateProfileInt("GameServerInfo", "MarkOfTheLord", 0, gDirPath.GetNewPath("commonserver.cfg"));
; 3742 : #endif
; 3743 : 	
; 3744 : #ifndef EVENT_OPTION_RELOAD_20040305
; 3745 : 	// 1 .  
; 3746 : 	g_DevilSquare.Load(gDirPath.GetNewPath("DevilSquare.dat"));
; 3747 : 	gDevilSquareEvent			= GetPrivateProfileInt("GameServerInfo", "DevilSquareEvent", 0, gDirPath.GetNewPath("commonserver.cfg"));
; 3748 : 	gEyesOfDevilSquareDropRate	= GetPrivateProfileInt("GameServerInfo", "EyesOfDevilSquareDropRate", 2, gDirPath.GetNewPath("commonserver.cfg"));
; 3749 : 	gKeyOfDevilSquareDropRate	= GetPrivateProfileInt("GameServerInfo", "KeyOfDevilSquareDropRate", 2, gDirPath.GetNewPath("commonserver.cfg"));	   
; 3750 : 	
; 3751 : 	// 2 . 
; 3752 : #ifdef FOR_BLOODCASTLE
; 3753 : 	g_BloodCastle.Load(gDirPath.GetNewPath("BloodCastle.dat"));
; 3754 : 	g_bBloodCastle				= GetPrivateProfileInt("GameServerInfo", "BloodCastleEvent", 0, gDirPath.GetNewPath("commonserver.cfg"));
; 3755 : 	g_iBloodCastle_StartHour	= GetPrivateProfileInt("GameServerInfo", "BloodCastleStartHour", 1, gDirPath.GetNewPath("commonserver.cfg"));
; 3756 : 	g_iAngelKingsPaperDropRate	= GetPrivateProfileInt("GameServerInfo", "AngelKingsPaperDropRate", 0, gDirPath.GetNewPath("commonserver.cfg"));
; 3757 : 	g_iBloodBoneDropRate		= GetPrivateProfileInt("GameServerInfo", "BloodBoneDropRate", 0, gDirPath.GetNewPath("commonserver.cfg"));
; 3758 : 	g_iStoneDropRate			= GetPrivateProfileInt("GameServerInfo", "StoneDropRate", 0, gDirPath.GetNewPath("commonserver.cfg"));
; 3759 : 
; 3760 : #ifdef UPDATE_BLOODECASTLE_SCADULE_20070702
; 3761 : 			g_iBloodCastle_odd_Even_Hour= GetPrivateProfileInt("GameServerInfo", "BloodCastleOddEvenHour", 0, gDirPath.GetNewPath("commonserver.cfg"));
; 3762 : #endif
; 3763 : 
; 3764 : #endif
; 3765 : 
; 3766 : #ifdef DARKLORD_WORK
; 3767 : 	gIsDropDarkLordItem	= GetPrivateProfileInt("GameServerInfo", "IsDropDarkLordItem", 0, gDirPath.GetNewPath("commonserver.cfg"));
; 3768 : 	gSleeveOfLordDropRate	= GetPrivateProfileInt("GameServerInfo", "SleeveOfLordDropRate", 10, gDirPath.GetNewPath("commonserver.cfg"));
; 3769 : 	gSleeveOfLordDropLevel	= GetPrivateProfileInt("GameServerInfo", "SleeveOfLordDropLevel", 86, gDirPath.GetNewPath("commonserver.cfg"));
; 3770 : 	gSoulOfDarkHorseDropRate	= GetPrivateProfileInt("GameServerInfo", "SoulOfDarkHorseDropRate", 10, gDirPath.GetNewPath("commonserver.cfg"));
; 3771 : 	gSoulOfDarkHorseropLevel	= GetPrivateProfileInt("GameServerInfo", "SoulOfDarkHorseropLevel", 125, gDirPath.GetNewPath("commonserver.cfg"));g_iAngelKingsPaperDropRate	= GetPrivateProfileInt("GameServerInfo", "AngelKingsPaperDropRate", 0, gDirPath.GetNewPath("commonserver.cfg"));
; 3772 : 	gSoulOfDarkSpiritDropRate	= GetPrivateProfileInt("GameServerInfo", "SoulOfDarkSpiritDropRate", 10, gDirPath.GetNewPath("commonserver.cfg"));
; 3773 : 	gSoulOfDarkSpiritDropLevel	= GetPrivateProfileInt("GameServerInfo", "SoulOfDarkSpiritDropLevel", 96, gDirPath.GetNewPath("commonserver.cfg"));	
; 3774 : 
; 3775 : 	GetPrivateProfileString("GameServerInfo", "DarkSpiritAddExperience", "1", szTemp, 5, gDirPath.GetNewPath("commonserver.cfg"));
; 3776 : 	gDarkSpiritAddExperience = (float)atof(szTemp);
; 3777 : #endif
; 3778 : 
; 3779 : #ifdef ADD_NEW_GEM_OF_DEFEND_FOR_CS_01_20050301
; 3780 : 	//  
; 3781 : 	gIsDropGemOfDefend  = GetPrivateProfileInt("GameServerInfo", "IsDropGemOfDefend", 0, gDirPath.GetNewPath("commonserver.cfg"));
; 3782 : 	//    (10000 )
; 3783 : 	gGemOfDefendDropRate = GetPrivateProfileInt("GameServerInfo", "GemOfDefendDropRate", 5, gDirPath.GetNewPath("commonserver.cfg"));
; 3784 : 	//    
; 3785 : 	gGemOfDefendDropLevel = GetPrivateProfileInt("GameServerInfo", "GemOfDefendDropLevel", 75, gDirPath.GetNewPath("commonserver.cfg"));;		
; 3786 : #endif
; 3787 : 
; 3788 : #ifdef ADD_NEW_CASTLE_HUNTZONE_REWARD_02_20050314
; 3789 : 	//    
; 3790 : 	gIsDropSetItemInCastleHuntZone  = GetPrivateProfileInt("GameServerInfo", "IsDropSetItemInCastleHuntZone", 0, gDirPath.GetNewPath("commonserver.cfg"));
; 3791 : 	//     (10000 )
; 3792 : 	gSetItemInCastleHuntZoneDropRate = GetPrivateProfileInt("GameServerInfo", "SetItemInCastleHuntZoneDropRate", 1, gDirPath.GetNewPath("commonserver.cfg"));
; 3793 : 	//      
; 3794 : 	gSetItemInCastleHuntZoneDropLevel = GetPrivateProfileInt("GameServerInfo", "SetItemInCastleHuntZoneDropLevel", 75, gDirPath.GetNewPath("commonserver.cfg"));;		
; 3795 : #endif
; 3796 : 
; 3797 : #ifdef FOR_NEW_TESTSERVER
; 3798 : 	gTestServer	= GetPrivateProfileInt("GameServerInfo", "TestServer", 0, gDirPath.GetNewPath("commonserver.cfg"));	
; 3799 : #endif
; 3800 : 
; 3801 : 	// 3 .  
; 3802 : 	gAttackEventRegenTime = GetPrivateProfileInt("GameServerInfo", "AttackEventRegenTime", 10, gDirPath.GetNewPath("commonserver.cfg"));
; 3803 : 
; 3804 : 	// 4 .  
; 3805 : 	gIsEledoradoEvent				= GetPrivateProfileInt("GameServerInfo", "IsEledoradoEvent", 0, gDirPath.GetNewPath("commonserver.cfg"));	
; 3806 : 	gEledoradoGoldGoblenRegenTime	= GetPrivateProfileInt("GameServerInfo", "EledoradoGoldGoblenRegenTime", 60*3, gDirPath.GetNewPath("commonserver.cfg"));	
; 3807 : 	gEledoradoTitanRegenTime		= GetPrivateProfileInt("GameServerInfo", "EledoradoTitanRegenTime", 60*3, gDirPath.GetNewPath("commonserver.cfg"));	
; 3808 : 	gEledoradoGoldDerconRegenTime	= GetPrivateProfileInt("GameServerInfo", "EledoradoGoldDerconRegenTime", 240*3, gDirPath.GetNewPath("commonserver.cfg"));	
; 3809 : 	gEledoradoDevilLizardKingRegenTime	= GetPrivateProfileInt("GameServerInfo", "EledoradoDevilLizardKingRegenTime", 120*3, gDirPath.GetNewPath("commonserver.cfg"));	
; 3810 : 	gEledoradoDevilTantarosRegenTime	= GetPrivateProfileInt("GameServerInfo", "EledoradoDevilTantarosRegenTime", 120*3, gDirPath.GetNewPath("commonserver.cfg"));	
; 3811 : 	gEledoradoGoldGoblenItemDropRate	= GetPrivateProfileInt("GameServerInfo", "EledoradoGoldGoblenItemDropRate", 10, gDirPath.GetNewPath("commonserver.cfg"));	
; 3812 : 	gEledoradoTitanItemDropRate			= GetPrivateProfileInt("GameServerInfo", "EledoradoTitanItemDropRate", 10, gDirPath.GetNewPath("commonserver.cfg"));	
; 3813 : 	gEledoradoGoldDerconItemDropRate	= GetPrivateProfileInt("GameServerInfo", "EledoradoGoldDerconItemDropRate", 10, gDirPath.GetNewPath("commonserver.cfg"));	
; 3814 : 	gEledoradoDevilLizardKingItemDropRate	= GetPrivateProfileInt("GameServerInfo", "EledoradoDevilLizardKingItemDropRate", 10, gDirPath.GetNewPath("commonserver.cfg"));	
; 3815 : 	gEledoradoDevilTantarosItemDropRate		= GetPrivateProfileInt("GameServerInfo", "EledoradoDevilTantarosItemDropRate", 10, gDirPath.GetNewPath("commonserver.cfg"));	
; 3816 : 	gEledoradoGoldGoblenExItemDropRate		= GetPrivateProfileInt("GameServerInfo", "EledoradoGoldGoblenExItemDropRate", 10, gDirPath.GetNewPath("commonserver.cfg"));	
; 3817 : 	gEledoradoTitanExItemDropRate			= GetPrivateProfileInt("GameServerInfo", "EledoradoTitanExItemDropRate", 10, gDirPath.GetNewPath("commonserver.cfg"));	
; 3818 : 	gEledoradoGoldDerconExItemDropRate		= GetPrivateProfileInt("GameServerInfo", "EledoradoGoldDerconExItemDropRate", 10, gDirPath.GetNewPath("commonserver.cfg"));	
; 3819 : 	gEledoradoDevilLizardKingExItemDropRate = GetPrivateProfileInt("GameServerInfo", "EledoradoDevilLizardKingExItemDropRate", 10, gDirPath.GetNewPath("commonserver.cfg"));	
; 3820 : 	gEledoradoDevilTantarosExItemDropRate	= GetPrivateProfileInt("GameServerInfo", "EledoradoDevilTantarosExItemDropRate", 10, gDirPath.GetNewPath("commonserver.cfg"));
; 3821 : 
; 3822 : #ifdef ADD_GOLDEN_EVENT_RENEWAL_20090311
; 3823 : 	gGoldenRabbitRegenTime = GetPrivateProfileInt("GameServerInfo", "EledoradoGoldenRabbitRegenTime", 60*3, gDirPath.GetNewPath("commonserver.cfg"));	
; 3824 : 	gGoldenDarknightRegenTime = GetPrivateProfileInt("GameServerInfo", "EledoradoGoldenDarkKnightRegenTime", 60*3, gDirPath.GetNewPath("commonserver.cfg"));	
; 3825 : 	gGoldenDevilRegenTime  = GetPrivateProfileInt("GameServerInfo", "EledoradoGoldenDevilRegenTime", 60*3, gDirPath.GetNewPath("commonserver.cfg"));
; 3826 : 	
; 3827 : 	gGoldenStoneMonsterRegenTIme = GetPrivateProfileInt("GameServerInfo", "EledoradoGoldenMonsterRegenTime", 60*3, gDirPath.GetNewPath("commonserver.cfg"));
; 3828 : 	gGoldenCrustEventRegenTime = GetPrivateProfileInt("GameServerInfo", "EledoradoGoldenCrustRegenTime", 60*3, gDirPath.GetNewPath("commonserver.cfg"));
; 3829 : 	gGoldenSatirosRegenTime = GetPrivateProfileInt("GameServerInfo", "EledoradoGoldenSatirosRegenTime", 60*3, gDirPath.GetNewPath("commonserver.cfg"));
; 3830 : 	gGoldenTwintailRegenTime = GetPrivateProfileInt("GameServerInfo", "EledoradoGoldenTwintailRegenTime", 60*3, gDirPath.GetNewPath("commonserver.cfg"));
; 3831 : 	gGoldenIronKnightRegenTime = GetPrivateProfileInt("GameServerInfo", "EledoradoGoldenIronKnightRegenTime", 60*3, gDirPath.GetNewPath("commonserver.cfg"));
; 3832 : 	gGoldenNeipinRegenTime = GetPrivateProfileInt("GameServerInfo", "EledoradoGoldenNeipinRegenTime", 60*3, gDirPath.GetNewPath("commonserver.cfg"));
; 3833 : 	gGoldenGreatDragonRegenTime = GetPrivateProfileInt("GameServerInfo", "EledoradoGoldenGreatDragonRegenTime", 60*3, gDirPath.GetNewPath("commonserver.cfg"));
; 3834 : #endif
; 3835 : 
; 3836 : 	// 5 .  
; 3837 : #ifdef MONSTER_HERD_SYSTEM_20031120
; 3838 : 	//     .
; 3839 : 	GetPrivateProfileString("GameServerInfo", "RingAttackEvent", "0", szTemp, 5, gDirPath.GetNewPath("commonserver.cfg"));
; 3840 : 	g_bDoRingEvent				= atoi(szTemp);
; 3841 : 	//       (1/n)
; 3842 : 	GetPrivateProfileString("GameServerInfo", "RingOrcKillGiftRate", "10000", szTemp, 10, gDirPath.GetNewPath("commonserver.cfg"));
; 3843 : 	g_iRingOrcKillGiftRate		= atoi(szTemp);
; 3844 : 	//       (1/n)
; 3845 : 	GetPrivateProfileString("GameServerInfo", "RingDropGiftRate", "10000", szTemp, 10, gDirPath.GetNewPath("commonserver.cfg"));
; 3846 : 	g_iRingDropGiftRate			= atoi(szTemp);
; 3847 : 	g_RingAttackEvent.Load(gDirPath.GetNewPath("RingAttackEvent.dat"));
; 3848 : #ifdef GAMESERVER_TO_CASTLESIEGESERVER	//    , , ,   .
; 3849 : 	g_bDoRingEvent				= FALSE;
; 3850 : #endif	
; 3851 : 	g_RingAttackEvent.EnableEvent (g_bDoRingEvent);
; 3852 : #endif
; 3853 : 
; 3854 : #ifdef ADD_ITEM_ATTACK_XMASEVENT_20081014
; 3855 : 	g_bDoXMasEvent				= GetPrivateProfileInt("GameServerInfo", "XMasAttackEvent", 0, gDirPath.GetNewPath("commonserver.cfg"));
; 3856 : 	g_nXMasDropRate				= GetPrivateProfileInt("GameServerInfo", "XMasAttackEvent_DropRate", XMASDROPRATE_ITEM, gDirPath.GetNewPath("commonserver.cfg"));
; 3857 : 	g_nXMasDropZen				= GetPrivateProfileInt("GameServerInfo", "XMasAttackEvent_DropZen", XMASDROP_ZEN, gDirPath.GetNewPath("commonserver.cfg"));
; 3858 : 	g_XMasAttackEvent.Load(gDirPath.GetNewPath("XMasAttackEvent.dat"));
; 3859 : 	g_XMasAttackEvent.EnableEvent(g_bDoXMasEvent)
; 3860 : #endif // ADD_ITEM_ATTACK_XMASEVENT_20081014
; 3861 : 
; 3862 : #ifdef ADD_XMASEVENT_LUCKNUMBER
; 3863 : 	g_nXMasLuckNumber1st		= GetPrivateProfileInt("GameServerInfo", "XMasEvent_LuckNumber1st", XMASEVENT_LUCKNUMBER1ST, gDirPath.GetNewPath("commonserver.cfg"));
; 3864 : 	g_nXMasLuckNumber2nd		= GetPrivateProfileInt("GameServerInfo", "XMasEvent_LuckNumber2nd", XMASEVENT_LUCKNUMBER2ND, gDirPath.GetNewPath("commonserver.cfg"));
; 3865 : #endif // ADD_XMASEVENT_LUCKNUMBER
; 3866 : 
; 3867 : #ifdef CASTLEDEEP_EVENT_20050413
; 3868 : 	GetPrivateProfileString("GameServerInfo", "CastleDeepEvent", "0", szTemp, 5, gDirPath.GetNewPath("commonserver.cfg"));
; 3869 : 	g_bDoCastleDeepEvent		= atoi(szTemp);
; 3870 : 	g_CastleDeepEvent.Load(gDirPath.GetNewPath("CastleDeepEvent.dat"));
; 3871 : 	g_CastleDeepEvent.EnableEvent(g_bDoCastleDeepEvent);
; 3872 : #endif	// #ifdef CASTLEDEEP_EVENT_20050413
; 3873 : 
; 3874 : 	// 6 .  () 
; 3875 : 
; 3876 : 	// # REMOVE_LOVELOVE_EVENT_COUPLING_WITH_JOINSERVER_20060319
; 3877 : 	// #        (apple)
; 3878 : 	//		-    0x30, 0x31  
; 3879 : 	//		-     DB  .
; 3880 : 	//		-       .
; 3881 : 	GetPrivateProfileString("GameServerInfo", "EVENT1", "0", szTemp, 5, gDirPath.GetNewPath("commonserver.cfg"));	
; 3882 : 	gEvent1						= atoi(szTemp);
; 3883 : 	GetPrivateProfileString("GameServerInfo", "Event1ItemDropTodayMax", "1", szTemp, 5, gDirPath.GetNewPath("commonserver.cfg"));	
; 3884 : 	gEvent1ItemDropTodayCount	= 0;
; 3885 : 	gEvent1ItemDropTodayMax		= atoi(szTemp);
; 3886 : 	GetPrivateProfileString("GameServerInfo", "Event1ItemDropTodayPercent", "10000000", szTemp, 5, gDirPath.GetNewPath("commonserver.cfg"));	
; 3887 : 	gEvent1ItemDropTodayPercent = atoi(szTemp);
; 3888 : 
; 3889 : 	// 7 .  
; 3890 : 	gFireCrackerEvent			= GetPrivateProfileInt("GameServerInfo", "FireCrackerEvent", 0, gDirPath.GetNewPath("commonserver.cfg"));
; 3891 : 	gFireCrackerDropRate		= GetPrivateProfileInt("GameServerInfo", "FireCrackerDropRate", 5000, gDirPath.GetNewPath("commonserver.cfg"));
; 3892 : 	g_ItemDropRateForgFireCracker	= GetPrivateProfileInt("GameServerInfo", "ItemDropRateForFireCracker", 2, gDirPath.GetNewPath("commonserver.cfg"));
; 3893 : 	gOnlyFireCrackerEffectUse	= GetPrivateProfileInt("GameServerInfo", "OnlyFireCrackerEffectUse", 0, gDirPath.GetNewPath("commonserver.cfg"));
; 3894 : 
; 3895 : 	// 8 .  
; 3896 : 	gMedalEvent					= GetPrivateProfileInt("GameServerInfo", "MedalEvent", 0, gDirPath.GetNewPath("commonserver.cfg"));
; 3897 : 	gGoldMedalDropRate			= GetPrivateProfileInt("GameServerInfo", "GoldMedalDropRate", 2, gDirPath.GetNewPath("commonserver.cfg"));						//   
; 3898 : 	gSilverMedalDropRate		= GetPrivateProfileInt("GameServerInfo", "SilverMedalDropRate", 2, gDirPath.GetNewPath("commonserver.cfg"));					//   
; 3899 : 	g_ItemDropRateForGoldMedal	= GetPrivateProfileInt("GameServerInfo", "ItemDropRateForGoldMedal", 2, gDirPath.GetNewPath("commonserver.cfg"));		//    
; 3900 : 	g_ItemDropRateForSilverMedal	= GetPrivateProfileInt("GameServerInfo", "ItemDropRateForSilverMedal", 2, gDirPath.GetNewPath("commonserver.cfg"));	//    
; 3901 : 
; 3902 : 	// 9 .  
; 3903 : 	gXMasEvent					= GetPrivateProfileInt("GameServerInfo", "XMasEvent", 0, gDirPath.GetNewPath("commonserver.cfg"));
; 3904 : 	g_XMasEvent_StarOfXMasDropRate	= GetPrivateProfileInt("GameServerInfo", "XMasEvent_StarOfXMasDropRate", 5000, gDirPath.GetNewPath("commonserver.cfg"));
; 3905 : 	g_XMasEvent_ItemDropRateForStarOfXMas	= GetPrivateProfileInt("GameServerInfo", "XMasEvent_ItemDropRateForStarOfXMas", 2, gDirPath.GetNewPath("commonserver.cfg"));
; 3906 : 
; 3907 : 	// 10 .  
; 3908 : 	gHeartOfLoveEvent			= GetPrivateProfileInt("GameServerInfo", "HeartOfLoveEvent", 0, gDirPath.GetNewPath("commonserver.cfg"));
; 3909 : 	gHeartOfLoveDropRate		= GetPrivateProfileInt("GameServerInfo", "HeartOfLoveDropRate", 5000, gDirPath.GetNewPath("commonserver.cfg"));
; 3910 : 	g_ItemDropRateForgHeartOfLove	= GetPrivateProfileInt("GameServerInfo", "ItemDropRateForHeartOfLove", 2, gDirPath.GetNewPath("commonserver.cfg"));
; 3911 : 
; 3912 : 	// 11 . NPC 
; 3913 : 	GetPrivateProfileString("GameServerInfo", "HappyNewYearTalkNpc", "0", szTemp, 5, gDirPath.GetNewPath("commonserver.cfg"));	
; 3914 : 	gHappyNewYearNpcEvent		= atoi(szTemp);
; 3915 : 	if( gHappyNewYearNpcEvent )	LogAddTD(lMsg.Get(573));	// []   NPC  
; 3916 : 
; 3917 : 	// 12 . NPC 
; 3918 : 	GetPrivateProfileString("GameServerInfo", "MerryXMasTalkNpc", "0", szTemp, 5, gDirPath.GetNewPath("commonserver.cfg"));	
; 3919 : 	gMerryXMasNpcEvent			= atoi(szTemp);
; 3920 : 	if( gMerryXMasNpcEvent )	LogAddTD(lMsg.Get(572));	// []  NPC  
; 3921 : 
; 3922 : #ifdef CHAOSCASTLE_SYSTEM_20040408 
; 3923 : 	// 13 .  
; 3924 : 	g_ChaosCastle.Load(gDirPath.GetNewPath("ChaosCastle.dat"));
; 3925 : 	g_bChaosCastle				= GetPrivateProfileInt("GameServerInfo", "ChaosCastleEvent", 0, gDirPath.GetNewPath("commonserver.cfg"));
; 3926 : #endif
; 3927 : 
; 3928 : #ifdef ADD_NEW_MAP_KALIMA_20040518							//    .
; 3929 : 	// 14 .  - 
; 3930 : 	g_iKundunMarkDropRate= GetPrivateProfileInt("GameServerInfo", "KundunMarkDropRate", 0, gDirPath.GetNewPath("commonserver.cfg"));
; 3931 : #endif
; 3932 : 
; 3933 : #ifdef HIDDEN_TREASUREBOX_EVENT_20050804					//    
; 3934 : 	// 15 .   
; 3935 : 	g_iMysteriousBeadDropRate1 = GetPrivateProfileInt("GameServerInfo", "MysteriouseBeadDropRate1", 0, gDirPath.GetNewPath("commonserver.cfg"));
; 3936 : 	g_iMysteriousBeadDropRate2 = GetPrivateProfileInt("GameServerInfo", "MysteriouseBeadDropRate2", 0, gDirPath.GetNewPath("commonserver.cfg"));
; 3937 : 	g_iHiddenTreasureBoxOfflineRate = GetPrivateProfileInt("GameServerInfo", "HiddenTreasureBoxOfflineRate", 0, gDirPath.GetNewPath("commonserver.cfg"));
; 3938 : #endif
; 3939 : 
; 3940 : #ifdef EVENT_MANAGEMENT_20040711
; 3941 : 	// 16 .    
; 3942 : 	GetPrivateProfileString("GameServerInfo", "EventManagerOn", "0", szTemp, 5, gDirPath.GetNewPath("commonserver.cfg"));
; 3943 : 	g_bEventManagerOn			= atoi(szTemp);
; 3944 : 
; 3945 : 	g_EventManager.Load(gDirPath.GetNewPath("EventManagement.dat"));
; 3946 : 
; 3947 : 	g_EventManager.RegEvent (CEventManagement::EVENT_ID_DRAGONHERD,		(LPVOID) DragonEvent);
; 3948 : 	g_EventManager.RegEvent (CEventManagement::EVENT_ID_UNDERTROOP,		(LPVOID) AttackEvent);
; 3949 : 	g_EventManager.RegEvent (CEventManagement::EVENT_ID_ELDORADO,		(LPVOID) &gEledoradoEvent);
; 3950 : 	g_EventManager.RegEvent (CEventManagement::EVENT_ID_WHITEMAGE,		(LPVOID) &g_RingAttackEvent);
; 3951 : #ifdef ADD_ITEM_ATTACK_XMASEVENT_20081014
; 3952 : 	g_EventManager.RegEvent (CEventManagement::EVENT_ID_SANTACLAUS,		(LPVOID) &g_XMasAttackEvent);
; 3953 : #endif // ADD_ITEM_ATTACK_XMASEVENT_20081014
; 3954 : 
; 3955 : 	g_EventManager.Init(g_bEventManagerOn);
; 3956 : #endif
; 3957 : 
; 3958 : #ifdef HAPPY_POUCH
; 3959 : 	// apple20050204
; 3960 : 	// 17 . ,   
; 3961 : 	gHappyPouchRedDropRate	= GetPrivateProfileInt("GameServerInfo", "HappyPouchRedDropRate", 0, gDirPath.GetNewPath("commonserver.cfg"));							
; 3962 : 	gHappyPouchBlueDropRate	= GetPrivateProfileInt("GameServerInfo", "HappyPouchBlueDropRate", 0, gDirPath.GetNewPath("commonserver.cfg"));							
; 3963 : #endif
; 3964 : 
; 3965 : 	// 18.   
; 3966 : #ifdef DARK_LORD_HEART_EVENT_20040810						//      .
; 3967 : 	g_iDarkLordHeartDropRate		= GetPrivateProfileInt("GameServerInfo", "DarkLordHeartDropRate", 0, gDirPath.GetNewPath("commonserver.cfg"));
; 3968 : 	g_iDarkLordHeartOffEventRate	= GetPrivateProfileInt("GameServerInfo", "DarkLoadHeartOffEventRate", 0, gDirPath.GetNewPath("commonserver.cfg"));
; 3969 : #endif
; 3970 : 
; 3971 : #endif
; 3972 : 
; 3973 : 	// 19.   
; 3974 : #ifdef MU_CHN_OFFLINE_GIFT_EVENT_20040908
; 3975 : 	gbChnOfflineGiftEvent			= GetPrivateProfileInt("GameServerInfo", "ChnOfflineGiftEvent", 0, gDirPath.GetNewPath("commonserver.cfg"));
; 3976 : 	giChnOfflineGiftEventDropRate	= GetPrivateProfileInt("GameServerInfo", "ChnOfflineGiftEventDropRate", 0, gDirPath.GetNewPath("commonserver.cfg"));
; 3977 : #endif
; 3978 : 
; 3979 : 	// 20.   ( RKFKA )
; 3980 : #ifdef CHRISTMAS_RIBBONBOX_EVENT_20051212
; 3981 : 	g_bRibbonBoxEvent					= GetPrivateProfileInt( "GameServerInfo", "RibbonBoxEvent", 0, gDirPath.GetNewPath("commonserver.cfg"));
; 3982 : 
; 3983 : 	g_iRedRibbonBoxDropLevelMin			= GetPrivateProfileInt( "GameServerInfo", "RedRibbonBoxDropLv_Min", 0, gDirPath.GetNewPath("commonserver.cfg"));
; 3984 : 	g_iRedRibbonBoxDropLevelMax			= GetPrivateProfileInt( "GameServerInfo", "RedRibbonBoxDropLv_Max", 0, gDirPath.GetNewPath("commonserver.cfg"));	
; 3985 : 	g_iRedRibbonBoxDropRate				= GetPrivateProfileInt( "GameServerInfo", "RedRibbonBoxDropRate", 0, gDirPath.GetNewPath("commonserver.cfg"));
; 3986 : 	g_iRedRibbonBoxDropZenRate			= GetPrivateProfileInt( "GameServerInfo", "RedRibbonBoxDropZenRate", 0, gDirPath.GetNewPath("commonserver.cfg"));
; 3987 : 	g_iRedRibbonBoxDropZen				= GetPrivateProfileInt( "GameServerInfo", "RedRibbonBoxDropZen", 0, gDirPath.GetNewPath("commonserver.cfg"));
; 3988 : 
; 3989 : 	g_iGreenRibbonBoxDropLevelMin		= GetPrivateProfileInt( "GameServerInfo", "GreenRibbonBoxDropLv_Min", 0, gDirPath.GetNewPath("commonserver.cfg"));
; 3990 : 	g_iGreenRibbonBoxDropLevelMax		= GetPrivateProfileInt( "GameServerInfo", "GreenRibbonBoxDropLv_Max", 0, gDirPath.GetNewPath("commonserver.cfg"));
; 3991 : 	g_iGreenRibbonBoxDropRate			= GetPrivateProfileInt( "GameServerInfo", "GreenRibbonBoxDropRate", 0, gDirPath.GetNewPath("commonserver.cfg"));
; 3992 : 	g_iGreenRibbonBoxDropZenRate		= GetPrivateProfileInt( "GameServerInfo", "GreenRibbonBoxDropZenRate", 0, gDirPath.GetNewPath("commonserver.cfg"));
; 3993 : 	g_iGreenRibbonBoxDropZen			= GetPrivateProfileInt( "GameServerInfo", "GreenRibbonBoxDropZen", 0, gDirPath.GetNewPath("commonserver.cfg"));
; 3994 : 
; 3995 : 	g_iBlueRibbonBoxDropLevelMin		= GetPrivateProfileInt( "GameServerInfo", "BlueRibbonBoxDropLv_Min", 0, gDirPath.GetNewPath("commonserver.cfg"));		
; 3996 : 	g_iBlueRibbonBoxDropLevelMax		= GetPrivateProfileInt( "GameServerInfo", "BlueRibbonBoxDropLv_Max", 0, gDirPath.GetNewPath("commonserver.cfg"));
; 3997 : 	g_iBlueRibbonBoxDropRate			= GetPrivateProfileInt( "GameServerInfo", "BlueRibbonBoxDropRate", 0, gDirPath.GetNewPath("commonserver.cfg"));
; 3998 : 	g_iBlueRibbonBoxDropZenRate			= GetPrivateProfileInt( "GameServerInfo", "BlueRibbonBoxDropZenRate", 0, gDirPath.GetNewPath("commonserver.cfg"));
; 3999 : 	g_iBlueRibbonBoxDropZen				= GetPrivateProfileInt( "GameServerInfo", "BlueRibbonBoxDropZen", 0, gDirPath.GetNewPath("commonserver.cfg"));
; 4000 : #endif //#ifdef CHRISTMAS_RIBBONBOX_EVENT_20051212
; 4001 : 
; 4002 : 	// 21.   ( RKFKA )
; 4003 : #ifdef VALENTINES_DAY_BOX_EVENT_20060124
; 4004 : 	g_bChocolateBoxEvent				= GetPrivateProfileInt( "GameServerInfo", "ChocolateEvent", 0, gDirPath.GetNewPath("commonserver.cfg"));
; 4005 : 
; 4006 : 	g_iPinkChocolateBoxDropLevelMin		= GetPrivateProfileInt( "GameServerInfo", "PinkChocolateBoxDropLv_Min", 0, gDirPath.GetNewPath("commonserver.cfg"));
; 4007 : 	g_iPinkChocolateBoxDropLevelMax		= GetPrivateProfileInt( "GameServerInfo", "PinkChocolateBoxDropLv_Max", 0, gDirPath.GetNewPath("commonserver.cfg"));	
; 4008 : 	g_iPinkChocolateBoxDropRate			= GetPrivateProfileInt( "GameServerInfo", "PinkChocolateBoxDropRate", 0, gDirPath.GetNewPath("commonserver.cfg"));
; 4009 : 	g_iPinkChocolateBoxDropZenRate		= GetPrivateProfileInt( "GameServerInfo", "PinkChocolateBoxDropZenRate", 0, gDirPath.GetNewPath("commonserver.cfg"));
; 4010 : 	g_iPinkChocolateBoxDropZen			= GetPrivateProfileInt( "GameServerInfo", "PinkChocolateBoxDropZen", 0, gDirPath.GetNewPath("commonserver.cfg"));
; 4011 : 
; 4012 : 	g_iRedChocolateBoxDropLevelMin		= GetPrivateProfileInt( "GameServerInfo", "RedChocolateBoxDropLv_Min", 0, gDirPath.GetNewPath("commonserver.cfg"));
; 4013 : 	g_iRedChocolateBoxDropLevelMax		= GetPrivateProfileInt( "GameServerInfo", "RedChocolateBoxDropLv_Max", 0, gDirPath.GetNewPath("commonserver.cfg"));
; 4014 : 	g_iRedChocolateBoxDropRate			= GetPrivateProfileInt( "GameServerInfo", "RedChocolateBoxDropRate", 0, gDirPath.GetNewPath("commonserver.cfg"));
; 4015 : 	g_iRedChocolateBoxDropZenRate		= GetPrivateProfileInt( "GameServerInfo", "RedChocolateBoxDropZenRate", 0, gDirPath.GetNewPath("commonserver.cfg"));
; 4016 : 	g_iRedChocolateBoxDropZen			= GetPrivateProfileInt( "GameServerInfo", "RedChocolateBoxDropZen", 0, gDirPath.GetNewPath("commonserver.cfg"));
; 4017 : 
; 4018 : 	g_iBlueChocolateBoxDropLevelMin		= GetPrivateProfileInt( "GameServerInfo", "BlueChocolateBoxDropLv_Min", 0, gDirPath.GetNewPath("commonserver.cfg"));		
; 4019 : 	g_iBlueChocolateBoxDropLevelMax		= GetPrivateProfileInt( "GameServerInfo", "BlueChocolateBoxDropLv_Max", 0, gDirPath.GetNewPath("commonserver.cfg"));
; 4020 : 	g_iBlueChocolateBoxDropRate			= GetPrivateProfileInt( "GameServerInfo", "BlueChocolateBoxDropRate", 0, gDirPath.GetNewPath("commonserver.cfg"));
; 4021 : 	g_iBlueChocolateBoxDropZenRate		= GetPrivateProfileInt( "GameServerInfo", "BlueChocolateBoxDropZenRate", 0, gDirPath.GetNewPath("commonserver.cfg"));
; 4022 : 	g_iBlueChocolateBoxDropZen			= GetPrivateProfileInt( "GameServerInfo", "BlueChocolateBoxDropZen", 0, gDirPath.GetNewPath("commonserver.cfg"));
; 4023 : #endif //#ifdef VALENTINES_DAY_BOX_EVENT_20060124
; 4024 : 
; 4025 : 	// 22.   ( RKFKA )
; 4026 : #ifdef WHITEDAY_CANDY_BOX_EVENT_20060222
; 4027 : 	g_bCandyBoxEvent					= GetPrivateProfileInt( "GameServerInfo", "CandyBoxEvent", 0, gDirPath.GetNewPath("commonserver.cfg"));
; 4028 : 
; 4029 : 	g_iLightPurpleCandyBoxDropLevelMin	= GetPrivateProfileInt( "GameServerInfo", "LightPurpleCandyBoxDropLv_Min", 0, gDirPath.GetNewPath("commonserver.cfg"));
; 4030 : 	g_iLightPurpleCandyBoxDropLevelMax	= GetPrivateProfileInt( "GameServerInfo", "LightPurpleCandyBoxDropLv_Max", 0, gDirPath.GetNewPath("commonserver.cfg"));	
; 4031 : 	g_iLightPurpleCandyBoxDropRate		= GetPrivateProfileInt( "GameServerInfo", "LightPurpleCandyBoxDropRate", 0, gDirPath.GetNewPath("commonserver.cfg"));
; 4032 : 	g_iLightPurpleCandyBoxDropZenRate	= GetPrivateProfileInt( "GameServerInfo", "LightPurpleCandyBoxDropZenRate", 0, gDirPath.GetNewPath("commonserver.cfg"));
; 4033 : 	g_iLightPurpleCandyBoxDropZen		= GetPrivateProfileInt( "GameServerInfo", "LightPurpleCandyBoxDropZen", 0, gDirPath.GetNewPath("commonserver.cfg"));
; 4034 : 
; 4035 : 	g_iVermilionCandyBoxDropLevelMin	= GetPrivateProfileInt( "GameServerInfo", "VermilionCandyBoxDropLv_Min", 0, gDirPath.GetNewPath("commonserver.cfg"));
; 4036 : 	g_iVermilionCandyBoxDropLevelMax	= GetPrivateProfileInt( "GameServerInfo", "VermilionCandyBoxDropLv_Max", 0, gDirPath.GetNewPath("commonserver.cfg"));
; 4037 : 	g_iVermilionCandyBoxDropRate		= GetPrivateProfileInt( "GameServerInfo", "VermilionCandyBoxDropRate", 0, gDirPath.GetNewPath("commonserver.cfg"));
; 4038 : 	g_iVermilionCandyBoxDropZenRate		= GetPrivateProfileInt( "GameServerInfo", "VermilionCandyBoxDropZenRate", 0, gDirPath.GetNewPath("commonserver.cfg"));
; 4039 : 	g_iVermilionCandyBoxDropZen			= GetPrivateProfileInt( "GameServerInfo", "VermilionCandyBoxDropZen", 0, gDirPath.GetNewPath("commonserver.cfg"));
; 4040 : 
; 4041 : 	g_iDeepBlueCandyBoxDropLevelMin		= GetPrivateProfileInt( "GameServerInfo", "DeepBlueCandyBoxDropLv_Min", 0, gDirPath.GetNewPath("commonserver.cfg"));		
; 4042 : 	g_iDeepBlueCandyBoxDropLevelMax		= GetPrivateProfileInt( "GameServerInfo", "DeepBlueCandyBoxDropLv_Max", 0, gDirPath.GetNewPath("commonserver.cfg"));
; 4043 : 	g_iDeepBlueCandyBoxDropRate			= GetPrivateProfileInt( "GameServerInfo", "DeepBlueCandyBoxDropRate", 0, gDirPath.GetNewPath("commonserver.cfg"));
; 4044 : 	g_iDeepBlueCandyBoxDropZenRate		= GetPrivateProfileInt( "GameServerInfo", "DeepBlueCandyBoxDropZenRate", 0, gDirPath.GetNewPath("commonserver.cfg"));
; 4045 : 	g_iDeepBlueCandyBoxDropZen			= GetPrivateProfileInt( "GameServerInfo", "DeepBlueCandyBoxDropZen", 0, gDirPath.GetNewPath("commonserver.cfg"));
; 4046 : #endif //#ifdef WHITEDAY_CANDY_BOX_EVENT_20060222
; 4047 : 	
; 4048 : #ifdef ADD_KUNDUN_CONTROL_20040923
; 4049 : 	giKundunRefillHPSec				= GetPrivateProfileInt("GameServerInfo", "KundunRefillHPSec", 500, gDirPath.GetNewPath("commonserver.cfg"));							

  01700	68 00 00 00 00	 push	 OFFSET ??_C@_0BB@IGLHFEOF@commonserver?4cfg@
  01705	b9 00 00 00 00	 mov	 ecx, OFFSET ?gDirPath@@3VCDirPath@@A ; gDirPath
  0170a	e8 00 00 00 00	 call	 ?GetNewPath@CDirPath@@QAEPADPAD@Z ; CDirPath::GetNewPath
  0170f	50		 push	 eax
  01710	68 f4 01 00 00	 push	 500			; 000001f4H
  01715	68 00 00 00 00	 push	 OFFSET ??_C@_0BC@BADILJEE@KundunRefillHPSec@
  0171a	68 00 00 00 00	 push	 OFFSET ??_C@_0P@EMJDPFDH@GameServerInfo@
  0171f	ff 15 00 00 00
	00		 call	 DWORD PTR __imp__GetPrivateProfileIntA@16
  01725	a3 00 00 00 00	 mov	 DWORD PTR ?giKundunRefillHPSec@@3HA, eax ; giKundunRefillHPSec

; 4050 : 	giKundunRefillHP				= GetPrivateProfileInt("GameServerInfo", "KundunRefillHP", 10000, gDirPath.GetNewPath("commonserver.cfg"));								

  0172a	68 00 00 00 00	 push	 OFFSET ??_C@_0BB@IGLHFEOF@commonserver?4cfg@
  0172f	b9 00 00 00 00	 mov	 ecx, OFFSET ?gDirPath@@3VCDirPath@@A ; gDirPath
  01734	e8 00 00 00 00	 call	 ?GetNewPath@CDirPath@@QAEPADPAD@Z ; CDirPath::GetNewPath
  01739	50		 push	 eax
  0173a	68 10 27 00 00	 push	 10000			; 00002710H
  0173f	68 00 00 00 00	 push	 OFFSET ??_C@_0P@CHMHAEOB@KundunRefillHP@
  01744	68 00 00 00 00	 push	 OFFSET ??_C@_0P@EMJDPFDH@GameServerInfo@
  01749	ff 15 00 00 00
	00		 call	 DWORD PTR __imp__GetPrivateProfileIntA@16
  0174f	a3 00 00 00 00	 mov	 DWORD PTR ?giKundunRefillHP@@3HA, eax ; giKundunRefillHP

; 4051 : 	giKundunRefillHPTime			= GetPrivateProfileInt("GameServerInfo", "KundunRefillHPTime", 600, gDirPath.GetNewPath("commonserver.cfg"));								

  01754	68 00 00 00 00	 push	 OFFSET ??_C@_0BB@IGLHFEOF@commonserver?4cfg@
  01759	b9 00 00 00 00	 mov	 ecx, OFFSET ?gDirPath@@3VCDirPath@@A ; gDirPath
  0175e	e8 00 00 00 00	 call	 ?GetNewPath@CDirPath@@QAEPADPAD@Z ; CDirPath::GetNewPath
  01763	50		 push	 eax
  01764	68 58 02 00 00	 push	 600			; 00000258H
  01769	68 00 00 00 00	 push	 OFFSET ??_C@_0BD@JLEDGMHA@KundunRefillHPTime@
  0176e	68 00 00 00 00	 push	 OFFSET ??_C@_0P@EMJDPFDH@GameServerInfo@
  01773	ff 15 00 00 00
	00		 call	 DWORD PTR __imp__GetPrivateProfileIntA@16
  01779	a3 00 00 00 00	 mov	 DWORD PTR ?giKundunRefillHPTime@@3HA, eax ; giKundunRefillHPTime

; 4052 : #endif
; 4053 : 
; 4054 : #ifdef EXTEND_LOG_SYSTEM_20060202
; 4055 : 	giKundunHPLogSaveTime			= GetPrivateProfileInt("GameServerInfo", "KundunHPLogSaveTime", 120, gDirPath.GetNewPath("commonserver.cfg"));
; 4056 : #endif
; 4057 : 
; 4058 : #ifdef ADD_ITEM_FENRIR_01_20051110
; 4059 : 	g_bFenrirStuffItemDrop			= GetPrivateProfileInt("GameServerInfo", "FenrirStuffItemDrop", 0, gDirPath.GetNewPath("commonserver.cfg"));
; 4060 : 
; 4061 : 	g_iFenrirStuff_01_DropLv_Min	= GetPrivateProfileInt("GameServerInfo", "FenrirStuff_01_DropLv_Min",	0, gDirPath.GetNewPath("commonserver.cfg"));
; 4062 : 	g_iFenrirStuff_01_DropLv_Max	= GetPrivateProfileInt("GameServerInfo", "FenrirStuff_01_DropLv_Max",	0, gDirPath.GetNewPath("commonserver.cfg"));
; 4063 : 	g_iFenrirStuff_01_DropMap		= GetPrivateProfileInt("GameServerInfo", "FenrirStuff_01_DropMap",		0, gDirPath.GetNewPath("commonserver.cfg"));
; 4064 : 	g_iFenrirStuff_01_DropRate		= GetPrivateProfileInt("GameServerInfo", "FenrirStuff_01_DropRate",		0, gDirPath.GetNewPath("commonserver.cfg"));
; 4065 : 
; 4066 : 	g_iFenrirStuff_02_DropLv_Min	= GetPrivateProfileInt("GameServerInfo", "FenrirStuff_02_DropLv_Min",	0, gDirPath.GetNewPath("commonserver.cfg"));
; 4067 : 	g_iFenrirStuff_02_DropLv_Max	= GetPrivateProfileInt("GameServerInfo", "FenrirStuff_02_DropLv_Max",	0, gDirPath.GetNewPath("commonserver.cfg"));
; 4068 : 	g_iFenrirStuff_02_DropMap		= GetPrivateProfileInt("GameServerInfo", "FenrirStuff_02_DropMap",		0, gDirPath.GetNewPath("commonserver.cfg"));
; 4069 : 	g_iFenrirStuff_02_DropRate		= GetPrivateProfileInt("GameServerInfo", "FenrirStuff_02_DropRate",		0, gDirPath.GetNewPath("commonserver.cfg"));
; 4070 : 
; 4071 : 	g_iFenrirStuff_03_DropLv_Min	= GetPrivateProfileInt("GameServerInfo", "FenrirStuff_03_DropLv_Min",	0, gDirPath.GetNewPath("commonserver.cfg"));
; 4072 : 	g_iFenrirStuff_03_DropLv_Max	= GetPrivateProfileInt("GameServerInfo", "FenrirStuff_03_DropLv_Max",	0, gDirPath.GetNewPath("commonserver.cfg"));
; 4073 : 	g_iFenrirStuff_03_DropMap		= GetPrivateProfileInt("GameServerInfo", "FenrirStuff_03_DropMap",		0, gDirPath.GetNewPath("commonserver.cfg"));
; 4074 : 	g_iFenrirStuff_03_DropRate		= GetPrivateProfileInt("GameServerInfo", "FenrirStuff_03_DropRate",		0, gDirPath.GetNewPath("commonserver.cfg"));
; 4075 : 
; 4076 : 	g_iFenrirRepairRate				= GetPrivateProfileInt("GameServerInfo", "FenrirRepairRate", 4000, gDirPath.GetNewPath("commonserver.cfg"));
; 4077 : 	
; 4078 : 	g_iFenrirDefaultMaxDurSmall		= GetPrivateProfileInt("GameServerInfo", "FenrirDefaultMaxDurSmall", 200, gDirPath.GetNewPath("commonserver.cfg"));
; 4079 : 	g_iFenrirElfMaxDurSmall			= GetPrivateProfileInt("GameServerInfo", "FenrirElfMaxDurSmall", 160, gDirPath.GetNewPath("commonserver.cfg"));
; 4080 : 
; 4081 : 	g_iFenrir_01Level_MixRate		= GetPrivateProfileInt("GameServerInfo", "Fenrir_01Level_MixRate", 70, gDirPath.GetNewPath("commonserver.cfg"));
; 4082 : 	g_iFenrir_02Level_MixRate		= GetPrivateProfileInt("GameServerInfo", "Fenrir_02Level_MixRate", 50, gDirPath.GetNewPath("commonserver.cfg"));
; 4083 : 	g_iFenrir_03Level_MixRate		= GetPrivateProfileInt("GameServerInfo", "Fenrir_03Level_MixRate", 30, gDirPath.GetNewPath("commonserver.cfg"));
; 4084 : #endif // ADD_ITEM_FENRIR_01_20051110
; 4085 : 
; 4086 : #ifdef ADD_CRYWOLF_MONSTER_ITEMDROP_20060404
; 4087 : 	g_bCrywolfMonsterDarkElfItemDrop		= GetPrivateProfileInt( "GameServerInfo", "CrywolfMonsterDarkElfItemDrop", 0, gDirPath.GetNewPath( "commonserver.cfg" ) );
; 4088 : 	g_iCrywolfMonsterDarkElfItemDropRate	= GetPrivateProfileInt( "GameServerInfo", "CrywolfMonsterDarkElfItemDropRate", 0, gDirPath.GetNewPath( "commonserver.cfg" ) );
; 4089 : 	g_iCrywolfMonsterDarkElfDropZenRate		= GetPrivateProfileInt( "GameServerInfo", "CrywolfMonsterDarkElfDropZenRate", 0, gDirPath.GetNewPath( "commonserver.cfg" ) );
; 4090 : 	g_iCrywolfMonsterDarkElfDropZen			= GetPrivateProfileInt( "GameServerInfo", "CrywolfMonsterDarkElfDropZen", 0, gDirPath.GetNewPath( "commonserver.cfg" ) );
; 4091 : #endif
; 4092 : 
; 4093 : #ifdef ADD_CRYWOLF_MONSTER_ITEMDROP_20060404
; 4094 : 	g_bCrywolfBossMonsterItemDrop			= GetPrivateProfileInt( "GameServerInfo", "CrywolfBossMonsterItemDrop", 0, gDirPath.GetNewPath( "commonserver.cfg" ) );
; 4095 : 	g_iCrywolfBossMonsterItemDropRate		= GetPrivateProfileInt( "GameServerInfo", "CrywolfBossMonsterItemDropRate", 0, gDirPath.GetNewPath( "commonserver.cfg" ) );
; 4096 : 	g_iCrywolfBossMonsterDropZenRate		= GetPrivateProfileInt( "GameServerInfo", "CrywolfBossMonsterDropZenRate", 0, gDirPath.GetNewPath( "commonserver.cfg" ) );
; 4097 : 	g_iCrywolfBossMonsterDropZen			= GetPrivateProfileInt( "GameServerInfo", "CrywolfBossMonsterDropZen", 0, gDirPath.GetNewPath( "commonserver.cfg" ) );
; 4098 : #endif
; 4099 : 
; 4100 : #ifdef MU_CRYWOLF_BENEFIT_20051215
; 4101 : 	g_iCrywolfApplyMvpBenefit 			= GetPrivateProfileInt("GameServerInfo", "CrywolfApplyMvpBenefit",			0,		gDirPath.GetNewPath("commonserver.cfg"));
; 4102 : 	
; 4103 : 	int	iCrywolfPlusChaosRateBenefit	= GetPrivateProfileInt("GameServerInfo", "CrywolfPlusChaosRateBenefit",		0,		gDirPath.GetNewPath("commonserver.cfg"));
; 4104 : 	int iCrywolfMonHPRateBenefit 		= GetPrivateProfileInt("GameServerInfo", "CrywolfMonHPRateBenefit",			100,	gDirPath.GetNewPath("commonserver.cfg"));
; 4105 : 
; 4106 : #ifdef MODIFY_CRYWOLF_BENEFIT_01_20060315
; 4107 : 	int iCrywolfKundunHPRefillState		= GetPrivateProfileInt("GameServerInfo", "CrywolfKundunHPRefillBenefit",	1,		gDirPath.GetNewPath("commonserver.cfg"));
; 4108 : 	g_CrywolfSync.SetKundunHPRefillState( iCrywolfKundunHPRefillState );
; 4109 : #endif // MODIFY_CRYWOLF_BENEFIT_01_20060315
; 4110 : 
; 4111 : 	g_CrywolfSync.SetPlusChaosRate( iCrywolfPlusChaosRateBenefit );
; 4112 : 	g_CrywolfSync.SetMonHPBenefitRate( iCrywolfMonHPRateBenefit );
; 4113 : 
; 4114 : #endif // MU_CRYWOLF_BENEFIT_20051215
; 4115 : 
; 4116 : #ifdef MU_CRYWOLF_PENALTY_20051215
; 4117 : 	g_iCrywolfApplyMvpPenalty 			= GetPrivateProfileInt("GameServerInfo", "CrywolfApplyMvpPenalty",			0,		gDirPath.GetNewPath("commonserver.cfg"));
; 4118 : 
; 4119 : 	int	iCrwyolfGemDropPenaltyRate 		= GetPrivateProfileInt("GameServerInfo", "CrwyolfGemDropPenaltyRate",		100,	gDirPath.GetNewPath("commonserver.cfg"));
; 4120 : 	int	iCrwyolfGettingExpPenaltyRate	= GetPrivateProfileInt("GameServerInfo", "CrwyolfGettingExpPenaltyRate",	100,	gDirPath.GetNewPath("commonserver.cfg"));
; 4121 : 
; 4122 : 	g_CrywolfSync.SetGemDropPenaltiyRate( iCrwyolfGemDropPenaltyRate );
; 4123 : 	g_CrywolfSync.SetGettingExpPenaltyRate( iCrwyolfGettingExpPenaltyRate );
; 4124 : 
; 4125 : #endif // MU_CRYWOLF_PENALTY_20051215
; 4126 : 
; 4127 : #ifdef ADD_KANTURU_20060627
; 4128 : 	int iKanturuEnableValue 			= GetPrivateProfileInt( "GameServerInfo", "KanturuEvent", 0, gDirPath.GetNewPath( "commonserver.cfg" ) );
; 4129 : 	g_Kanturu.SetKanturuEnable( iKanturuEnableValue );
; 4130 : #endif
; 4131 : 	
; 4132 : #ifdef MODIFY_KANTURU_MAPNUMBER_CHECK_20060807
; 4133 : 	g_iBlockKanturuMapEnter		= GetPrivateProfileInt("GameServerInfo", "BlockKanturuMapEnter",		0,		gDirPath.GetNewPath("commonserver.cfg"));
; 4134 : 	g_iBlockCastleSiegeMapEnter	= GetPrivateProfileInt("GameServerInfo", "BlockCastleSiegeMapEnter",	0,		gDirPath.GetNewPath("commonserver.cfg"));
; 4135 : #endif // MODIFY_KANTURU_MAPNUMBER_CHECK_20060807
; 4136 : 
; 4137 : #ifdef KANTURU_MONSTER_ITEMDROP_20060807
; 4138 : 	g_bKanturuMayaHandItemDrop			= GetPrivateProfileInt( "GameServerInfo", "KanturuMayaHandItemDrop", 0, gDirPath.GetNewPath( "commonserver.cfg" ) );
; 4139 : 	g_iKanturuMayaHandItemDropRate		= GetPrivateProfileInt( "GameServerInfo", "KanturuMayaHandItemDropRate", 0, gDirPath.GetNewPath( "commonserver.cfg" ) );
; 4140 : 	g_iKanturuMayaHandDropZenRate		= GetPrivateProfileInt( "GameServerInfo", "KanturuMayaHandDropZenRate", 0, gDirPath.GetNewPath( "commonserver.cfg" ) );
; 4141 : 	g_iKanturuMayaHandDropZen			= GetPrivateProfileInt( "GameServerInfo", "KanturuMayaHandDropZen", 0, gDirPath.GetNewPath( "commonserver.cfg" ) );
; 4142 : 
; 4143 : 	g_bKanturuNightmareItemDrop			= GetPrivateProfileInt( "GameServerInfo", "KanturuNightmareItemDrop", 0, gDirPath.GetNewPath( "commonserver.cfg" ) );
; 4144 : 	g_iKanturuNightmareItemDropRate		= GetPrivateProfileInt( "GameServerInfo", "KanturuNightmareItemDropRate", 0, gDirPath.GetNewPath( "commonserver.cfg" ) );
; 4145 : 	g_iKanturuNightmareDropZenRate		= GetPrivateProfileInt( "GameServerInfo", "KanturuNightmareDropZenRate", 0, gDirPath.GetNewPath( "commonserver.cfg" ) );
; 4146 : 	g_iKanturuNightmareDropZen			= GetPrivateProfileInt( "GameServerInfo", "KanturuNightmareDropZen", 0, gDirPath.GetNewPath( "commonserver.cfg" ) );
; 4147 : #endif	// #ifdef KANTURU_MONSTER_ITEMDROP_20060807
; 4148 : 
; 4149 : #ifdef KANTURU_SPECIAL_ITEMDROP_20060808
; 4150 : 	g_bKanturuSpecialItemDropOn			= GetPrivateProfileInt( "GameServerInfo", "KanturuSpecialItemDropOn", 0, gDirPath.GetNewPath( "commonserver.cfg" ) );
; 4151 : 	g_iKanturuMoonStoneDropRate			= GetPrivateProfileInt( "GameServerInfo", "KanturuMoonStoneDropRate", 0, gDirPath.GetNewPath( "commonserver.cfg" ) );
; 4152 : 	g_iKanturuJewelOfHarmonyDropRate	= GetPrivateProfileInt( "GameServerInfo", "KanturuJewelOfHarmonyDropRate", 0, gDirPath.GetNewPath( "commonserver.cfg" ) );
; 4153 : #endif
; 4154 : 
; 4155 : #ifdef ADD_GAMBLING_20090120
; 4156 : 	g_bGamblingSystem					= GetPrivateProfileInt( "GameServerInfo", "GamblingSystem", 0, gDirPath.GetNewPath( "commonserver.cfg" ) );
; 4157 : 	g_iGamblingValue					= GetPrivateProfileInt( "GameServerInfo", "GamblingValue", 0, gDirPath.GetNewPath( "commonserver.cfg" ) );
; 4158 : 	g_iGamblingShopTime					= GetPrivateProfileInt( "GameServerInfo", "GamblingShopTime", 0, gDirPath.GetNewPath( "commonserver.cfg" ) );
; 4159 : #endif // ADD_GAMBLING_20090120
; 4160 : 
; 4161 : #ifdef ADD_RAKLION_20080408
; 4162 : 	int iRaklionEnableValue 			= GetPrivateProfileInt( "GameServerInfo", "RaklionEvent", 0, gDirPath.GetNewPath( "commonserver.cfg" ) );
; 4163 : 	g_Raklion.SetRaklionBossEnable( iRaklionEnableValue );
; 4164 : 	
; 4165 : 	g_bRaklionSelupanItemDrop			= GetPrivateProfileInt( "GameServerInfo", "RaklionSelupanItemDrop", 0, gDirPath.GetNewPath( "commonserver.cfg" ) );
; 4166 : 	g_iRaklionSelupanItemDropRate		= GetPrivateProfileInt( "GameServerInfo", "RaklionSelupanItemDropRate", 0, gDirPath.GetNewPath( "commonserver.cfg" ) );
; 4167 : 	g_iRaklionSelupanDropZenRate		= GetPrivateProfileInt( "GameServerInfo", "RaklionSelupanDropZenRate", 0, gDirPath.GetNewPath( "commonserver.cfg" ) );
; 4168 : 	g_iRaklionSelupanDropZen			= GetPrivateProfileInt( "GameServerInfo", "RaklionSelupanDropZen", 0, gDirPath.GetNewPath( "commonserver.cfg" ) );
; 4169 : 	
; 4170 : 	g_bBlockRaklionMapEnter				= GetPrivateProfileInt( "GameServerInfo", "BlockRaklionMapEnter", 0, gDirPath.GetNewPath( "commonserver.cfg" ) );
; 4171 : #endif // ADD_RAKLION_20080408
; 4172 : 
; 4173 : #ifdef HALLOWINDAY_JACK_O_LANTERN_EVENT_20061017
; 4174 : 	g_bHallowinDayEventOn						= GetPrivateProfileInt( "GameServerInfo", "HallowinEventOn",						0,	gDirPath.GetNewPath( "commonserver.cfg" ) );
; 4175 : 	g_iHallowinDayEventItemDropRate				= GetPrivateProfileInt( "GameServerInfo", "HallowinEventPumpkinOfLuckDropRate",		100,gDirPath.GetNewPath( "commonserver.cfg" ) );
; 4176 : 	g_iHallowinDayEventJOLBlessDropRate			= GetPrivateProfileInt( "GameServerInfo", "HallowinEventJOLBlessDropRate",			10,	gDirPath.GetNewPath( "commonserver.cfg" ) );
; 4177 : 	g_iHallowinDayEventJOLAngerDropRaTe			= GetPrivateProfileInt( "GameServerInfo", "HallowinEventJOLAngerDropRate",			15,	gDirPath.GetNewPath( "commonserver.cfg" ) );
; 4178 : 	g_iHallowinDayEventJOLScreamDropRate		= GetPrivateProfileInt( "GameServerInfo", "HallowinEventJOLScreamDropRate",			15,	gDirPath.GetNewPath( "commonserver.cfg" ) );
; 4179 : 	g_iHallowinDayEventJOLFoodDropRate			= GetPrivateProfileInt( "GameServerInfo", "HallowinEventJOLFoodDropRate",			30,	gDirPath.GetNewPath( "commonserver.cfg" ) );
; 4180 : 	g_iHallowinDayEventJOLDrinkDropRate			= GetPrivateProfileInt( "GameServerInfo", "HallowinEventJOLDrinkDropRate",			25,	gDirPath.GetNewPath( "commonserver.cfg" ) );
; 4181 : 	g_iHallowinDayEventJOLPolymorphRingDropRate	= GetPrivateProfileInt( "GameServerInfo", "HallowinEventJOLPolymorphRingDropRate",	5,	gDirPath.GetNewPath( "commonserver.cfg" ) );
; 4182 : #endif //HALLOWINDAY_JACK_O_LANTERN_EVENT_20061017
; 4183 : 
; 4184 : #ifdef CHRISTMAS_SANTA_POLYMORPH_RING_20061117
; 4185 : 	g_bSantaPolymorphRingDropOn					= GetPrivateProfileInt( "GameServerInfo", "SantaPolymorphRingDropOn",				0,	gDirPath.GetNewPath( "commonserver.cfg" ) );
; 4186 : 	g_iSantaPolymorphRingDropRate				= GetPrivateProfileInt( "GameServerInfo", "SantaPolymorphRingDropRate",				10,	gDirPath.GetNewPath( "commonserver.cfg" ) );
; 4187 : #endif // CHRISTMAS_SANTA_POLYMORPH_RING_20061117
; 4188 : 
; 4189 : #ifdef UPDATE_NEWYEAR_LUCKYBAG_MONSTER_20070131
; 4190 : 	g_bNewYearLuckyBagMonsterEventOn			= GetPrivateProfileInt( "GameServerInfo", "NewYearLuckyBagMonsterEventOn",		0,	gDirPath.GetNewPath( "commonserver.cfg" ) );
; 4191 : #endif
; 4192 : 
; 4193 : #ifdef ADD_EVENT_MAP_ILLUSION_TEMPLE_20070328	//    
; 4194 : 	g_IllusionTempleEvent.LoadIllusionTempleEventInfo();
; 4195 : #endif
; 4196 : 
; 4197 : #ifdef ADD_THIRD_WING_20070525	//   
; 4198 :  	g_iCondorFlameDropRate		= GetPrivateProfileInt( "GameServerInfo", "CondorFlameDropRate", 10, gDirPath.GetNewPath( "commonserver.cfg" ) );
; 4199 : #endif
; 4200 : 
; 4201 : #ifdef ADD_EVENT_CHERRYBLOSSOM_20080312
; 4202 : 	g_bCherryBlossomEventOn						= GetPrivateProfileInt( "GameServerInfo", "CherryBlossomEventOn",					1,		gDirPath.GetNewPath( "commonserver.cfg" ) );
; 4203 : 	g_bCherryBlossomEventItemDropRate			= GetPrivateProfileInt( "GameServerInfo", "CherryBlossomEventItemDropRate",			8000,	gDirPath.GetNewPath( "commonserver.cfg" ) );
; 4204 : #endif // ADD_EVENT_CHERRYBLOSSOM_20080312
; 4205 : 
; 4206 : #ifdef UPDATE_LUCKY_COIN_EVENT_20081029							//    
; 4207 : 	g_bLuckyCoinEventOn		= GetPrivateProfileInt( "GameServerInfo", "LuckyCoinEventOn",			0,		gDirPath.GetNewPath( "commonserver.cfg" ) );
; 4208 : 	g_iLuckyCoinDropRate	= GetPrivateProfileInt( "GameServerInfo", "LuckyCoinDropRate",			1000,	gDirPath.GetNewPath( "commonserver.cfg" ) );
; 4209 : #endif	// UPDATE_LUCKY_COIN_EVENT_20081029
; 4210 : 
; 4211 : #ifdef MASTER_LEVEL_UP_SYSTEM_20070912	//   
; 4212 : 	g_MasterLevelSystem.LoadData();
; 4213 : #endif
; 4214 : 
; 4215 : #ifdef ADD_NEWPVP_PKFIELD
; 4216 : 	g_NewPVP.LoadData();
; 4217 : #endif // ADD_NEWPVP_PKFIELD
; 4218 : 
; 4219 : #ifdef UPDATE_MASTER_LEVEL_EVENTMAP_TICKET_METERIAL_DROPRATE_20080123
; 4220 : 	gML_OldScrollDropRate			= GetPrivateProfileInt( "GameServerInfo", "ML_OldScrollDropRate",			0,	gDirPath.GetNewPath( "commonserver.cfg" ) );			
; 4221 : 	gML_CovenantOfIllusionDropRate	= GetPrivateProfileInt( "GameServerInfo", "ML_CovenantOfIllusionDropRate",	0,	gDirPath.GetNewPath( "commonserver.cfg" ) );	
; 4222 : 	gML_AngelKingsPaperDropRate		= GetPrivateProfileInt( "GameServerInfo", "ML_AngelKingsPaperDropRate",		0,	gDirPath.GetNewPath( "commonserver.cfg" ) );	
; 4223 : 	gML_BloodBoneDropRate			= GetPrivateProfileInt( "GameServerInfo", "ML_BloodBoneDropRate",			0,	gDirPath.GetNewPath( "commonserver.cfg" ) );			
; 4224 : 	gML_EyesOfDevilSquareDropRate	= GetPrivateProfileInt( "GameServerInfo", "ML_EyesOfDevilSquareDropRate ",	0,	gDirPath.GetNewPath( "commonserver.cfg" ) );	
; 4225 : 	gML_KeyOfDevilSquareDropRate	= GetPrivateProfileInt( "GameServerInfo", "ML_KeyOfDevilSquareDropRate ",	0,	gDirPath.GetNewPath( "commonserver.cfg" ) );	
; 4226 : #endif	// UPDATE_MASTER_LEVEL_EVENTMAP_TICKET_METERIAL_DROPRATE_20080123
; 4227 : 
; 4228 : #ifdef UPDATE_SHADOW_PHANTOM_MAX_LAVEL_LOAD_SCRIPT_20080220
; 4229 : 	g_ShadowPahtomMaxLevel			= GetPrivateProfileInt( "GameServerInfo", "ShadowPhantomMaxLevel",		220,	gDirPath.GetNewPath( "commonserver.cfg" ) );	

  0177e	68 00 00 00 00	 push	 OFFSET ??_C@_0BB@IGLHFEOF@commonserver?4cfg@
  01783	b9 00 00 00 00	 mov	 ecx, OFFSET ?gDirPath@@3VCDirPath@@A ; gDirPath
  01788	e8 00 00 00 00	 call	 ?GetNewPath@CDirPath@@QAEPADPAD@Z ; CDirPath::GetNewPath
  0178d	50		 push	 eax
  0178e	68 dc 00 00 00	 push	 220			; 000000dcH
  01793	68 00 00 00 00	 push	 OFFSET ??_C@_0BG@LKNKPNDE@ShadowPhantomMaxLevel@
  01798	68 00 00 00 00	 push	 OFFSET ??_C@_0P@EMJDPFDH@GameServerInfo@
  0179d	ff 15 00 00 00
	00		 call	 DWORD PTR __imp__GetPrivateProfileIntA@16
  017a3	a3 00 00 00 00	 mov	 DWORD PTR ?g_ShadowPahtomMaxLevel@@3HA, eax ; g_ShadowPahtomMaxLevel

; 4230 : #endif	// UPDATE_SHADOW_PHANTOM_MAX_LAVEL_LOAD_SCRIPT_20080220
; 4231 : 
; 4232 : 	//   
; 4233 : 	GetPrivateProfileString("ConnectServerInfo", "IP", "", connectserverip, 20, szCommonlocIniFileName);

  017a8	68 00 00 00 00	 push	 OFFSET ?szCommonlocIniFileName@@3PADA ; szCommonlocIniFileName
  017ad	6a 14		 push	 20			; 00000014H
  017af	68 00 00 00 00	 push	 OFFSET ?connectserverip@@3PADA ; connectserverip
  017b4	68 00 00 00 00	 push	 OFFSET ??_C@_00CNPNBAHC@@
  017b9	68 00 00 00 00	 push	 OFFSET ??_C@_02MFEOMNPG@IP@
  017be	68 00 00 00 00	 push	 OFFSET ??_C@_0BC@IKLEIAKB@ConnectServerInfo@
  017c3	ff 15 00 00 00
	00		 call	 DWORD PTR __imp__GetPrivateProfileStringA@24

; 4234 : 	GetPrivateProfileString("ConnectServerInfo", "PORT", "", szTemp, 10, szCommonlocIniFileName);

  017c9	68 00 00 00 00	 push	 OFFSET ?szCommonlocIniFileName@@3PADA ; szCommonlocIniFileName
  017ce	6a 0a		 push	 10			; 0000000aH
  017d0	8d 85 fc fe ff
	ff		 lea	 eax, DWORD PTR _szTemp$[ebp]
  017d6	50		 push	 eax
  017d7	68 00 00 00 00	 push	 OFFSET ??_C@_00CNPNBAHC@@
  017dc	68 00 00 00 00	 push	 OFFSET ??_C@_04HDFGONMM@PORT@
  017e1	68 00 00 00 00	 push	 OFFSET ??_C@_0BC@IKLEIAKB@ConnectServerInfo@
  017e6	ff 15 00 00 00
	00		 call	 DWORD PTR __imp__GetPrivateProfileStringA@24

; 4235 : 	connectserverport = atoi(szTemp);

  017ec	8d 85 fc fe ff
	ff		 lea	 eax, DWORD PTR _szTemp$[ebp]
  017f2	50		 push	 eax
  017f3	e8 00 00 00 00	 call	 _atoi
  017f8	83 c4 04	 add	 esp, 4
  017fb	a3 00 00 00 00	 mov	 DWORD PTR ?connectserverport@@3HA, eax ; connectserverport

; 4236 : 	LogAddTD(lMsg.Get(414), connectserverip, connectserverport);

  01800	a1 00 00 00 00	 mov	 eax, DWORD PTR ?connectserverport@@3HA ; connectserverport
  01805	50		 push	 eax
  01806	68 00 00 00 00	 push	 OFFSET ?connectserverip@@3PADA ; connectserverip
  0180b	68 9e 01 00 00	 push	 414			; 0000019eH
  01810	b9 00 00 00 00	 mov	 ecx, OFFSET ?lMsg@@3VCMsg@@A ; lMsg
  01815	ff 15 00 00 00
	00		 call	 DWORD PTR __imp_?Get@CMsg@@QAEPADH@Z
  0181b	50		 push	 eax
  0181c	ff 15 00 00 00
	00		 call	 DWORD PTR ?LogAddTD@@3P6AXPADZZA ; LogAddTD
  01822	83 c4 0c	 add	 esp, 12			; 0000000cH

; 4237 : 
; 4238 : #ifdef GAMESERVER_INFO_TCP_20031203
; 4239 : 	GetPrivateProfileString("ConnectServerInfo", "PORT_TCP", "", szTemp, 10, szCommonlocIniFileName);
; 4240 : 	connectserverport_tcp = atoi(szTemp);
; 4241 : 
; 4242 : 	//       
; 4243 : 	GetPrivateProfileString("ConnectServerInfo", "CONNTYPE", "0", szTemp, 10, szCommonlocIniFileName);
; 4244 : 	g_ConServerInfoSendType = atoi(szTemp);
; 4245 : 
; 4246 : 	if (g_ConServerInfoSendType!= 0 &&
; 4247 : 		g_ConServerInfoSendType!= 1
; 4248 : 		)
; 4249 : 	{
; 4250 : 		//   UDP / TCP      UDP
; 4251 : 		g_ConServerInfoSendType = 0;
; 4252 : 	}
; 4253 : #endif
; 4254 : 
; 4255 : 	gUdpSoc.SendSet(connectserverip, connectserverport);

  01825	a1 00 00 00 00	 mov	 eax, DWORD PTR ?connectserverport@@3HA ; connectserverport
  0182a	50		 push	 eax
  0182b	68 00 00 00 00	 push	 OFFSET ?connectserverip@@3PADA ; connectserverip
  01830	b9 00 00 00 00	 mov	 ecx, OFFSET ?gUdpSoc@@3VWzUdp@@A ; gUdpSoc
  01835	e8 00 00 00 00	 call	 ?SendSet@WzUdp@@QAEHPADH@Z ; WzUdp::SendSet

; 4256 : 	gUdpSocCE.SendSet(gChaosEventServerIp, 60005);

  0183a	68 65 ea 00 00	 push	 60005			; 0000ea65H
  0183f	68 00 00 00 00	 push	 OFFSET ?gChaosEventServerIp@@3PADA ; gChaosEventServerIp
  01844	b9 00 00 00 00	 mov	 ecx, OFFSET ?gUdpSocCE@@3VWzUdp@@A ; gUdpSocCE
  01849	e8 00 00 00 00	 call	 ?SendSet@WzUdp@@QAEHPADH@Z ; WzUdp::SendSet

; 4257 : 
; 4258 : #ifdef GAMESERVER_INFO_TO_CSS_20040317
; 4259 : 	//    .
; 4260 : 	g_bSendGSInfoToCSS  = GetPrivateProfileInt("GameServerInfo", "GSInfoSendToCSS", 0, gDirPath.GetNewPath("commonserver.cfg"));
; 4261 : 	if (g_bSendGSInfoToCSS) {
; 4262 : 		//     .
; 4263 : 		GSINFO_INITCSLIST();
; 4264 : 	}
; 4265 : #endif	
; 4266 : 
; 4267 : 	DevilSquareEventConnect = GetPrivateProfileInt("GameServerInfo", "DevilSquareEventConnect", 1, gDirPath.GetNewPath("commonserver.cfg"));

  0184e	68 00 00 00 00	 push	 OFFSET ??_C@_0BB@IGLHFEOF@commonserver?4cfg@
  01853	b9 00 00 00 00	 mov	 ecx, OFFSET ?gDirPath@@3VCDirPath@@A ; gDirPath
  01858	e8 00 00 00 00	 call	 ?GetNewPath@CDirPath@@QAEPADPAD@Z ; CDirPath::GetNewPath
  0185d	50		 push	 eax
  0185e	6a 01		 push	 1
  01860	68 00 00 00 00	 push	 OFFSET ??_C@_0BI@KCKMEMOI@DevilSquareEventConnect@
  01865	68 00 00 00 00	 push	 OFFSET ??_C@_0P@EMJDPFDH@GameServerInfo@
  0186a	ff 15 00 00 00
	00		 call	 DWORD PTR __imp__GetPrivateProfileIntA@16
  01870	a3 00 00 00 00	 mov	 DWORD PTR ?DevilSquareEventConnect@@3HA, eax ; DevilSquareEventConnect

; 4268 : 	GetPrivateProfileString("GameServerInfo", "DevilSquareEventServer", "210.181.89.241", gDevilSquareEventServerIp, 20, gDirPath.GetNewPath("commonserver.cfg"));

  01875	68 00 00 00 00	 push	 OFFSET ??_C@_0BB@IGLHFEOF@commonserver?4cfg@
  0187a	b9 00 00 00 00	 mov	 ecx, OFFSET ?gDirPath@@3VCDirPath@@A ; gDirPath
  0187f	e8 00 00 00 00	 call	 ?GetNewPath@CDirPath@@QAEPADPAD@Z ; CDirPath::GetNewPath
  01884	50		 push	 eax
  01885	6a 14		 push	 20			; 00000014H
  01887	68 00 00 00 00	 push	 OFFSET ?gDevilSquareEventServerIp@@3PADA ; gDevilSquareEventServerIp
  0188c	68 00 00 00 00	 push	 OFFSET ??_C@_0P@LCMOAIFH@210?4181?489?4241@
  01891	68 00 00 00 00	 push	 OFFSET ??_C@_0BH@DJHELGEN@DevilSquareEventServer@
  01896	68 00 00 00 00	 push	 OFFSET ??_C@_0P@EMJDPFDH@GameServerInfo@
  0189b	ff 15 00 00 00
	00		 call	 DWORD PTR __imp__GetPrivateProfileStringA@24

; 4269 : 
; 4270 : 	EventChipServerConnect = GetPrivateProfileInt("GameServerInfo", "EventChipServerConnect", 0, gDirPath.GetNewPath("commonserver.cfg"));

  018a1	68 00 00 00 00	 push	 OFFSET ??_C@_0BB@IGLHFEOF@commonserver?4cfg@
  018a6	b9 00 00 00 00	 mov	 ecx, OFFSET ?gDirPath@@3VCDirPath@@A ; gDirPath
  018ab	e8 00 00 00 00	 call	 ?GetNewPath@CDirPath@@QAEPADPAD@Z ; CDirPath::GetNewPath
  018b0	50		 push	 eax
  018b1	6a 00		 push	 0
  018b3	68 00 00 00 00	 push	 OFFSET ??_C@_0BH@FIEEIIMF@EventChipServerConnect@
  018b8	68 00 00 00 00	 push	 OFFSET ??_C@_0P@EMJDPFDH@GameServerInfo@
  018bd	ff 15 00 00 00
	00		 call	 DWORD PTR __imp__GetPrivateProfileIntA@16
  018c3	a3 00 00 00 00	 mov	 DWORD PTR ?EventChipServerConnect@@3HA, eax ; EventChipServerConnect

; 4271 : 	GetPrivateProfileString("GameServerInfo", "EventChipServerIp", "192.168.10.150", gEventChipServerIp, 20, gDirPath.GetNewPath("commonserver.cfg"));

  018c8	68 00 00 00 00	 push	 OFFSET ??_C@_0BB@IGLHFEOF@commonserver?4cfg@
  018cd	b9 00 00 00 00	 mov	 ecx, OFFSET ?gDirPath@@3VCDirPath@@A ; gDirPath
  018d2	e8 00 00 00 00	 call	 ?GetNewPath@CDirPath@@QAEPADPAD@Z ; CDirPath::GetNewPath
  018d7	50		 push	 eax
  018d8	6a 14		 push	 20			; 00000014H
  018da	68 00 00 00 00	 push	 OFFSET ?gEventChipServerIp@@3PADA ; gEventChipServerIp
  018df	68 00 00 00 00	 push	 OFFSET ??_C@_0P@PKCHKPDI@192?4168?410?4150@
  018e4	68 00 00 00 00	 push	 OFFSET ??_C@_0BC@FMIEAAIA@EventChipServerIp@
  018e9	68 00 00 00 00	 push	 OFFSET ??_C@_0P@EMJDPFDH@GameServerInfo@
  018ee	ff 15 00 00 00
	00		 call	 DWORD PTR __imp__GetPrivateProfileStringA@24

; 4272 : 
; 4273 : 	//      ?
; 4274 : 	gApplyHeroSystem = GetPrivateProfileInt("GameServerInfo", "ApplyHeroSystem", 0, gDirPath.GetNewPath("commonserver.cfg"));	

  018f4	68 00 00 00 00	 push	 OFFSET ??_C@_0BB@IGLHFEOF@commonserver?4cfg@
  018f9	b9 00 00 00 00	 mov	 ecx, OFFSET ?gDirPath@@3VCDirPath@@A ; gDirPath
  018fe	e8 00 00 00 00	 call	 ?GetNewPath@CDirPath@@QAEPADPAD@Z ; CDirPath::GetNewPath
  01903	50		 push	 eax
  01904	6a 00		 push	 0
  01906	68 00 00 00 00	 push	 OFFSET ??_C@_0BA@CEGABCOE@ApplyHeroSystem@
  0190b	68 00 00 00 00	 push	 OFFSET ??_C@_0P@EMJDPFDH@GameServerInfo@
  01910	ff 15 00 00 00
	00		 call	 DWORD PTR __imp__GetPrivateProfileIntA@16
  01916	a3 00 00 00 00	 mov	 DWORD PTR ?gApplyHeroSystem@@3HA, eax ; gApplyHeroSystem

; 4275 : 
; 4276 : 	//   ?
; 4277 : 	gEnableBattleSoccer = GetPrivateProfileInt("GameServerInfo", "EnableBattleSoccer", 1, gDirPath.GetNewPath("commonserver.cfg"));	

  0191b	68 00 00 00 00	 push	 OFFSET ??_C@_0BB@IGLHFEOF@commonserver?4cfg@
  01920	b9 00 00 00 00	 mov	 ecx, OFFSET ?gDirPath@@3VCDirPath@@A ; gDirPath
  01925	e8 00 00 00 00	 call	 ?GetNewPath@CDirPath@@QAEPADPAD@Z ; CDirPath::GetNewPath
  0192a	50		 push	 eax
  0192b	6a 01		 push	 1
  0192d	68 00 00 00 00	 push	 OFFSET ??_C@_0BD@FPCMGBCA@EnableBattleSoccer@
  01932	68 00 00 00 00	 push	 OFFSET ??_C@_0P@EMJDPFDH@GameServerInfo@
  01937	ff 15 00 00 00
	00		 call	 DWORD PTR __imp__GetPrivateProfileIntA@16
  0193d	a3 00 00 00 00	 mov	 DWORD PTR ?gEnableBattleSoccer@@3HA, eax ; gEnableBattleSoccer

; 4278 : 
; 4279 : 	//  NPC  ?
; 4280 : 	gEnableEventNPCTalk = GetPrivateProfileInt("GameServerInfo", "EnableEventNPCTalk", 0, gDirPath.GetNewPath("commonserver.cfg"));	

  01942	68 00 00 00 00	 push	 OFFSET ??_C@_0BB@IGLHFEOF@commonserver?4cfg@
  01947	b9 00 00 00 00	 mov	 ecx, OFFSET ?gDirPath@@3VCDirPath@@A ; gDirPath
  0194c	e8 00 00 00 00	 call	 ?GetNewPath@CDirPath@@QAEPADPAD@Z ; CDirPath::GetNewPath
  01951	50		 push	 eax
  01952	6a 00		 push	 0
  01954	68 00 00 00 00	 push	 OFFSET ??_C@_0BD@NKHABGBC@EnableEventNPCTalk@
  01959	68 00 00 00 00	 push	 OFFSET ??_C@_0P@EMJDPFDH@GameServerInfo@
  0195e	ff 15 00 00 00
	00		 call	 DWORD PTR __imp__GetPrivateProfileIntA@16
  01964	a3 00 00 00 00	 mov	 DWORD PTR ?gEnableEventNPCTalk@@3HA, eax ; gEnableEventNPCTalk

; 4281 : 
; 4282 : 	gEnableServerDivision = GetPrivateProfileInt("GameServerInfo", "EnableServerDivision", 0, gDirPath.GetNewPath("commonserver.cfg"));		

  01969	68 00 00 00 00	 push	 OFFSET ??_C@_0BB@IGLHFEOF@commonserver?4cfg@
  0196e	b9 00 00 00 00	 mov	 ecx, OFFSET ?gDirPath@@3VCDirPath@@A ; gDirPath
  01973	e8 00 00 00 00	 call	 ?GetNewPath@CDirPath@@QAEPADPAD@Z ; CDirPath::GetNewPath
  01978	50		 push	 eax
  01979	6a 00		 push	 0
  0197b	68 00 00 00 00	 push	 OFFSET ??_C@_0BF@PDBLMKBC@EnableServerDivision@
  01980	68 00 00 00 00	 push	 OFFSET ??_C@_0P@EMJDPFDH@GameServerInfo@
  01985	ff 15 00 00 00
	00		 call	 DWORD PTR __imp__GetPrivateProfileIntA@16
  0198b	a3 00 00 00 00	 mov	 DWORD PTR ?gEnableServerDivision@@3HA, eax ; gEnableServerDivision

; 4283 : 
; 4284 : #ifdef MODIFY_JAPAN_MONSTER_VALUE
; 4285 : 	gMonsterHPAdjust = GetPrivateProfileInt("GameServerInfo", "MonsterHPAdjust", 100, gDirPath.GetNewPath("commonserver.cfg"));
; 4286 : #endif	
; 4287 : 	//gUdpSocCRank.SendSet(gDevilSquareEventServerIp, 44455);		
; 4288 : 
; 4289 : 	cManager.Init();

  01990	b9 00 00 00 00	 mov	 ecx, OFFSET ?cManager@@3VCGMMng@@A ; cManager
  01995	e8 00 00 00 00	 call	 ?Init@CGMMng@@QAEXXZ	; CGMMng::Init

; 4290 : 
; 4291 : #ifdef HACK_LOG
; 4292 : 	//   
; 4293 : 	GetPrivateProfileString("GameServerInfo", "HackLogServer", "10.1.2.69", gHackLogServerIp, 20, gDirPath.GetNewPath("commonserver.cfg"));	

  0199a	68 00 00 00 00	 push	 OFFSET ??_C@_0BB@IGLHFEOF@commonserver?4cfg@
  0199f	b9 00 00 00 00	 mov	 ecx, OFFSET ?gDirPath@@3VCDirPath@@A ; gDirPath
  019a4	e8 00 00 00 00	 call	 ?GetNewPath@CDirPath@@QAEPADPAD@Z ; CDirPath::GetNewPath
  019a9	50		 push	 eax
  019aa	6a 14		 push	 20			; 00000014H
  019ac	68 00 00 00 00	 push	 OFFSET ?gHackLogServerIp@@3PADA ; gHackLogServerIp
  019b1	68 00 00 00 00	 push	 OFFSET ??_C@_09NPFFCDOK@10?41?42?469@
  019b6	68 00 00 00 00	 push	 OFFSET ??_C@_0O@KKNNPAMK@HackLogServer@
  019bb	68 00 00 00 00	 push	 OFFSET ??_C@_0P@EMJDPFDH@GameServerInfo@
  019c0	ff 15 00 00 00
	00		 call	 DWORD PTR __imp__GetPrivateProfileStringA@24

; 4294 : 	gSendHackLog.SendSet(gHackLogServerIp, 60005);		// HackLog

  019c6	68 65 ea 00 00	 push	 60005			; 0000ea65H
  019cb	68 00 00 00 00	 push	 OFFSET ?gHackLogServerIp@@3PADA ; gHackLogServerIp
  019d0	b9 00 00 00 00	 mov	 ecx, OFFSET ?gSendHackLog@@3VCSendHackLog@@A ; gSendHackLog
  019d5	e8 00 00 00 00	 call	 ?SendSet@CSendHackLog@@QAEXPADH@Z ; CSendHackLog::SendSet

; 4295 : #endif
; 4296 : 
; 4297 : 
; 4298 : #ifdef CHECK_PENETRATION_SKILL
; 4299 : 	gEnableCheckPenetrationSkill = GetPrivateProfileInt("GameServerInfo", "EnableCheckPenetrationSkill", 1, gDirPath.GetNewPath("commonserver.cfg"));

  019da	68 00 00 00 00	 push	 OFFSET ??_C@_0BB@IGLHFEOF@commonserver?4cfg@
  019df	b9 00 00 00 00	 mov	 ecx, OFFSET ?gDirPath@@3VCDirPath@@A ; gDirPath
  019e4	e8 00 00 00 00	 call	 ?GetNewPath@CDirPath@@QAEPADPAD@Z ; CDirPath::GetNewPath
  019e9	50		 push	 eax
  019ea	6a 01		 push	 1
  019ec	68 00 00 00 00	 push	 OFFSET ??_C@_0BM@CEPJPHJK@EnableCheckPenetrationSkill@
  019f1	68 00 00 00 00	 push	 OFFSET ??_C@_0P@EMJDPFDH@GameServerInfo@
  019f6	ff 15 00 00 00
	00		 call	 DWORD PTR __imp__GetPrivateProfileIntA@16
  019fc	a3 00 00 00 00	 mov	 DWORD PTR ?gEnableCheckPenetrationSkill@@3HA, eax ; gEnableCheckPenetrationSkill

; 4300 : #endif
; 4301 : 
; 4302 : #ifdef ADD_SHIELD_POINT_01_20060403
; 4303 : 	g_ShieldSystemOn				= GetPrivateProfileInt("GameServerInfo",	"ShieldSystemOn",			0,		gDirPath.GetNewPath("commonserver.cfg"));
; 4304 : 	g_iDamageDevideToSDRate			= GetPrivateProfileInt("GameServerInfo",	"DamageDevideToSD",			90,		gDirPath.GetNewPath("commonserver.cfg"));
; 4305 : 	g_iDamageDevideToHPRate			= GetPrivateProfileInt("GameServerInfo",	"DamageDevideToHP",			10,		gDirPath.GetNewPath("commonserver.cfg"));
; 4306 : 	// CODEREVIEW_SHIELD : Float   SuccessAttackRateOption
; 4307 : 	// CODEREVIEW_SHIELD : PreFix 
; 4308 : 	g_fSuccessAttackRateOption		= GetPrivateProfileInt("GameServerInfo",	"SuccessAttackRateOption",	20000,	gDirPath.GetNewPath("commonserver.cfg")) / 10000;
; 4309 : 	g_iSDChargingOption				= GetPrivateProfileInt("GameServerInfo",	"SDChargingOption",			1,		gDirPath.GetNewPath("commonserver.cfg"));
; 4310 : 	g_iConstNumberOfShieldPoint		= GetPrivateProfileInt("GameServerInfo",	"ConstNumberOfShieldPoint", 20,		gDirPath.GetNewPath("commonserver.cfg"));
; 4311 : 
; 4312 : 	g_ShieldAutoRefillOn			= GetPrivateProfileInt("GameServerInfo",	"ShieldAutoRefillOn",		0,		gDirPath.GetNewPath("commonserver.cfg"));
; 4313 : 	g_ShieldAutoRefillOnSafeZone	= GetPrivateProfileInt("GameServerInfo",	"ShieldAutoRefilOnSafeZone",1,		gDirPath.GetNewPath("commonserver.cfg"));
; 4314 : 	g_PKLevelIncreaseOff			= GetPrivateProfileInt("GameServerInfo",	"PKLevelIncreaseOff",		0,		gDirPath.GetNewPath("commonserver.cfg"));
; 4315 : 
; 4316 : 	// CODEREVIEW_SHIELD3 :    
; 4317 : 	g_CompoundPotionDropOn				= GetPrivateProfileInt("GameServerInfo",	"CompoundPotionDropOn",			0,		gDirPath.GetNewPath("commonserver.cfg"));
; 4318 : 	g_iCompoundPotionLv1DropRate		= GetPrivateProfileInt("GameServerInfo",	"CompoundPotionLv1DropRate",	100,	gDirPath.GetNewPath("commonserver.cfg"));
; 4319 : 	g_iCompoundPotionLv2DropRate		= GetPrivateProfileInt("GameServerInfo",	"CompoundPotionLv2DropRate",	80,		gDirPath.GetNewPath("commonserver.cfg"));
; 4320 : 	g_iCompoundPotionLv3DropRate		= GetPrivateProfileInt("GameServerInfo",	"CompoundPotionLv3DropRate",	50,		gDirPath.GetNewPath("commonserver.cfg"));
; 4321 : 	g_iCompoundPotionLv1DropLevel		= GetPrivateProfileInt("GameServerInfo",	"CompoundPotionLv1DropLevel",	68,		gDirPath.GetNewPath("commonserver.cfg"));
; 4322 : 	g_iCompoundPotionLv2DropLevel		= GetPrivateProfileInt("GameServerInfo",	"CompoundPotionLv2DropLevel",	96,		gDirPath.GetNewPath("commonserver.cfg"));
; 4323 : 	g_iCompoundPotionLv3DropLevel		= GetPrivateProfileInt("GameServerInfo",	"CompoundPotionLv3DropLevel",	118,	gDirPath.GetNewPath("commonserver.cfg"));
; 4324 : 
; 4325 : 	#ifdef UPDATE_SHIELD_OPTION_20060427
; 4326 : 	g_bShieldComboMissOptionOn			= GetPrivateProfileInt("GameServerInfo",	"ShieldComboMissOptionOn",			0,			gDirPath.GetNewPath("commonserver.cfg"));	// PvP       1 :  , 0 :  
; 4327 : 	g_iShieldPotionLv1MixSuccessRate	= GetPrivateProfileInt("GameServerInfo",	"ShieldPotionLv1MixSuccessRate",	50,			gDirPath.GetNewPath("commonserver.cfg"));	//  SD   
; 4328 : 	g_iShieldPotionLv1MixMoney			= GetPrivateProfileInt("GameServerInfo",	"ShieldPotionLv1MixMoney",			100000,		gDirPath.GetNewPath("commonserver.cfg"));	//  SD   
; 4329 : 	g_iShieldPotionLv2MixSuccessRate	= GetPrivateProfileInt("GameServerInfo",	"ShieldPotionLv2MixSuccessRate",	30,			gDirPath.GetNewPath("commonserver.cfg"));	//  SD   
; 4330 : 	g_iShieldPotionLv2MixMoney			= GetPrivateProfileInt("GameServerInfo",	"ShieldPotionLv2MixMoney",			500000,		gDirPath.GetNewPath("commonserver.cfg"));	//  SD   
; 4331 : 	g_iShieldPotionLv3MixSuccessRate	= GetPrivateProfileInt("GameServerInfo",	"ShieldPotionLv3MixSuccessRate",	30,			gDirPath.GetNewPath("commonserver.cfg"));	//  SD   
; 4332 : 	g_iShieldPotionLv3MixMoney			= GetPrivateProfileInt("GameServerInfo",	"ShieldPotionLv3MixMoney",			1000000,	gDirPath.GetNewPath("commonserver.cfg"));	//  SD   
; 4333 : 	#endif // UPDATE_SHIELD_OPTION_20060427
; 4334 : 
; 4335 : 	#ifdef UPDATE_SHIELD_CALCULATE_GAGE_20060428
; 4336 : 	g_iShieldGageConstA					= GetPrivateProfileInt("GameServerInfo",	"ShieldGageConstA",					12,			gDirPath.GetNewPath("commonserver.cfg"));	//     1
; 4337 : 	g_iShieldGageConstB					= GetPrivateProfileInt("GameServerInfo",	"ShieldGageConstB",					30,			gDirPath.GetNewPath("commonserver.cfg"));	//     2
; 4338 : 	#endif // UPDATE_SHIELD_CALCULATE_GAGE_20060428
; 4339 : 
; 4340 : #endif // ADD_SHIELD_POINT_01_20060403
; 4341 : 
; 4342 : 	g_bCheckSpeedHack					= GetPrivateProfileInt("GameServerInfo",	"CheckSpeedHack",					1,			gDirPath.GetNewPath("commonserver.cfg"));

  01a01	68 00 00 00 00	 push	 OFFSET ??_C@_0BB@IGLHFEOF@commonserver?4cfg@
  01a06	b9 00 00 00 00	 mov	 ecx, OFFSET ?gDirPath@@3VCDirPath@@A ; gDirPath
  01a0b	e8 00 00 00 00	 call	 ?GetNewPath@CDirPath@@QAEPADPAD@Z ; CDirPath::GetNewPath
  01a10	50		 push	 eax
  01a11	6a 01		 push	 1
  01a13	68 00 00 00 00	 push	 OFFSET ??_C@_0P@CECKIAHO@CheckSpeedHack@
  01a18	68 00 00 00 00	 push	 OFFSET ??_C@_0P@EMJDPFDH@GameServerInfo@
  01a1d	ff 15 00 00 00
	00		 call	 DWORD PTR __imp__GetPrivateProfileIntA@16
  01a23	a3 00 00 00 00	 mov	 DWORD PTR ?g_bCheckSpeedHack@@3HA, eax ; g_bCheckSpeedHack

; 4343 : 
; 4344 : #ifdef UPDATE_TITLEBAR_VERSION_INFO_120071004
; 4345 : 	char tmpSzGameServerVersion[15];
; 4346 : 	int tmpServerType = 0;

  01a28	c7 85 e0 fc ff
	ff 00 00 00 00	 mov	 DWORD PTR _tmpServerType$[ebp], 0

; 4347 : 
; 4348 : #ifdef AUTH_GAMESERVER
; 4349 : 	tmpServerType = gServerType;
; 4350 : #endif
; 4351 : 
; 4352 : 	wsprintf(tmpSzGameServerVersion, "%s_%d",GAMESEVER_VERSION, tmpServerType);

  01a32	8b 85 e0 fc ff
	ff		 mov	 eax, DWORD PTR _tmpServerType$[ebp]
  01a38	50		 push	 eax
  01a39	68 00 00 00 00	 push	 OFFSET ??_C@_07GPEENMPM@1?400?492@
  01a3e	68 00 00 00 00	 push	 OFFSET ??_C@_05LFHGFJK@?$CFs_?$CFd@
  01a43	8d 8d e4 fc ff
	ff		 lea	 ecx, DWORD PTR _tmpSzGameServerVersion$[ebp]
  01a49	51		 push	 ecx
  01a4a	ff 15 00 00 00
	00		 call	 DWORD PTR __imp__wsprintfA
  01a50	83 c4 10	 add	 esp, 16			; 00000010H

; 4353 : 
; 4354 : 	#if (TESTSERVER == 1)
; 4355 : 		wsprintf(szTemp, lMsg.Get(415), tmpSzGameServerVersion, szServerName, 
; 4356 : 				 szClientVersion[0], szClientVersion[1], szClientVersion[2], 
; 4357 : 				 szClientVersion[3], szClientVersion[4],
; 4358 : 				 szGameServerExeSerial, gCountryName);
; 4359 : 		//MsgBox(lMsg.Get(417));
; 4360 : 	#else 
; 4361 : 		wsprintf(szTemp, lMsg.Get(416), tmpSzGameServerVersion, szServerName, 

  01a53	68 00 00 00 00	 push	 OFFSET ?gCountryName@@3PADA ; gCountryName
  01a58	68 00 00 00 00	 push	 OFFSET ?szGameServerExeSerial@@3PADA ; szGameServerExeSerial
  01a5d	b8 01 00 00 00	 mov	 eax, 1
  01a62	c1 e0 02	 shl	 eax, 2
  01a65	0f be 88 00 00
	00 00		 movsx	 ecx, BYTE PTR ?szClientVersion@@3PADA[eax]
  01a6c	51		 push	 ecx
  01a6d	ba 01 00 00 00	 mov	 edx, 1
  01a72	6b c2 03	 imul	 eax, edx, 3
  01a75	0f be 88 00 00
	00 00		 movsx	 ecx, BYTE PTR ?szClientVersion@@3PADA[eax]
  01a7c	51		 push	 ecx
  01a7d	ba 01 00 00 00	 mov	 edx, 1
  01a82	d1 e2		 shl	 edx, 1
  01a84	0f be 82 00 00
	00 00		 movsx	 eax, BYTE PTR ?szClientVersion@@3PADA[edx]
  01a8b	50		 push	 eax
  01a8c	b9 01 00 00 00	 mov	 ecx, 1
  01a91	c1 e1 00	 shl	 ecx, 0
  01a94	0f be 91 00 00
	00 00		 movsx	 edx, BYTE PTR ?szClientVersion@@3PADA[ecx]
  01a9b	52		 push	 edx
  01a9c	b8 01 00 00 00	 mov	 eax, 1
  01aa1	6b c8 00	 imul	 ecx, eax, 0
  01aa4	0f be 91 00 00
	00 00		 movsx	 edx, BYTE PTR ?szClientVersion@@3PADA[ecx]
  01aab	52		 push	 edx
  01aac	68 00 00 00 00	 push	 OFFSET ?szServerName@@3PADA ; szServerName
  01ab1	8d 85 e4 fc ff
	ff		 lea	 eax, DWORD PTR _tmpSzGameServerVersion$[ebp]
  01ab7	50		 push	 eax
  01ab8	68 a0 01 00 00	 push	 416			; 000001a0H
  01abd	b9 00 00 00 00	 mov	 ecx, OFFSET ?lMsg@@3VCMsg@@A ; lMsg
  01ac2	ff 15 00 00 00
	00		 call	 DWORD PTR __imp_?Get@CMsg@@QAEPADH@Z
  01ac8	50		 push	 eax
  01ac9	8d 8d fc fe ff
	ff		 lea	 ecx, DWORD PTR _szTemp$[ebp]
  01acf	51		 push	 ecx
  01ad0	ff 15 00 00 00
	00		 call	 DWORD PTR __imp__wsprintfA
  01ad6	83 c4 2c	 add	 esp, 44			; 0000002cH

; 4362 : 				 szClientVersion[0], szClientVersion[1], szClientVersion[2], 
; 4363 : 				 szClientVersion[3], szClientVersion[4],
; 4364 : 				 szGameServerExeSerial, gCountryName);
; 4365 : 	#endif	
; 4366 : #else	// UPDATE_TITLEBAR_VERSION_INFO_120071004
; 4367 : 	#if (TESTSERVER == 1)
; 4368 : 		wsprintf(szTemp, lMsg.Get(415), GAMESEVER_VERSION, szServerName, 
; 4369 : 				 szClientVersion[0], szClientVersion[1], szClientVersion[2], 
; 4370 : 				 szClientVersion[3], szClientVersion[4],
; 4371 : 				 szGameServerExeSerial, gCountryName);
; 4372 : 		MsgBox(lMsg.Get(417));
; 4373 : 	#else 
; 4374 : 		wsprintf(szTemp, lMsg.Get(416), GAMESEVER_VERSION, szServerName, 
; 4375 : 				 szClientVersion[0], szClientVersion[1], szClientVersion[2], 
; 4376 : 				 szClientVersion[3], szClientVersion[4],
; 4377 : 				 szGameServerExeSerial, gCountryName);
; 4378 : 	#endif
; 4379 : #endif	// UPDATE_TITLEBAR_VERSION_INFO_120071004
; 4380 : 	LogAdd("User Object Size = %d", sizeof( OBJECTSTRUCT ) );

  01ad9	68 a0 1b 00 00	 push	 7072			; 00001ba0H
  01ade	68 00 00 00 00	 push	 OFFSET ??_C@_0BG@OEMBKLAL@User?5Object?5Size?5?$DN?5?$CFd@
  01ae3	ff 15 00 00 00
	00		 call	 DWORD PTR ?LogAdd@@3P6AXPADZZA ; LogAdd
  01ae9	83 c4 08	 add	 esp, 8

; 4381 : 	
; 4382 : #ifdef GAMESERVER_TO_CASTLESIEGESERVER
; 4383 : 	strcat(szTemp, "[CastleSiege]");
; 4384 : #endif
; 4385 : 
; 4386 : #ifdef ADD_DISPLAY_CHECKSUM_INFO_20041127
; 4387 : 	char szDiplayGSInfo[512] = {0,};

  01aec	68 00 02 00 00	 push	 512			; 00000200H
  01af1	6a 00		 push	 0
  01af3	8d 85 e0 fa ff
	ff		 lea	 eax, DWORD PTR _szDiplayGSInfo$[ebp]
  01af9	50		 push	 eax
  01afa	e8 00 00 00 00	 call	 _memset
  01aff	83 c4 0c	 add	 esp, 12			; 0000000cH

; 4388 : 	wsprintf( szDiplayGSInfo, "%s [%u][%u][%u]", szTemp, dwgCheckSum[1]%1000, dwgCheckSum[17]%1000, dwgCheckSum[1004]%1000 );

  01b02	b8 04 00 00 00	 mov	 eax, 4
  01b07	69 c8 ec 03 00
	00		 imul	 ecx, eax, 1004
  01b0d	8b 81 00 00 00
	00		 mov	 eax, DWORD PTR ?dwgCheckSum@@3PAKA[ecx]
  01b13	33 d2		 xor	 edx, edx
  01b15	b9 e8 03 00 00	 mov	 ecx, 1000		; 000003e8H
  01b1a	f7 f1		 div	 ecx
  01b1c	52		 push	 edx
  01b1d	ba 04 00 00 00	 mov	 edx, 4
  01b22	6b c2 11	 imul	 eax, edx, 17
  01b25	8b 80 00 00 00
	00		 mov	 eax, DWORD PTR ?dwgCheckSum@@3PAKA[eax]
  01b2b	33 d2		 xor	 edx, edx
  01b2d	b9 e8 03 00 00	 mov	 ecx, 1000		; 000003e8H
  01b32	f7 f1		 div	 ecx
  01b34	52		 push	 edx
  01b35	ba 04 00 00 00	 mov	 edx, 4
  01b3a	c1 e2 00	 shl	 edx, 0
  01b3d	8b 82 00 00 00
	00		 mov	 eax, DWORD PTR ?dwgCheckSum@@3PAKA[edx]
  01b43	33 d2		 xor	 edx, edx
  01b45	b9 e8 03 00 00	 mov	 ecx, 1000		; 000003e8H
  01b4a	f7 f1		 div	 ecx
  01b4c	52		 push	 edx
  01b4d	8d 95 fc fe ff
	ff		 lea	 edx, DWORD PTR _szTemp$[ebp]
  01b53	52		 push	 edx
  01b54	68 00 00 00 00	 push	 OFFSET ??_C@_0BA@MDPIHCPH@?$CFs?5?$FL?$CFu?$FN?$FL?$CFu?$FN?$FL?$CFu?$FN@
  01b59	8d 85 e0 fa ff
	ff		 lea	 eax, DWORD PTR _szDiplayGSInfo$[ebp]
  01b5f	50		 push	 eax
  01b60	ff 15 00 00 00
	00		 call	 DWORD PTR __imp__wsprintfA
  01b66	83 c4 18	 add	 esp, 24			; 00000018H

; 4389 : 	SetWindowText(ghWnd, szDiplayGSInfo);

  01b69	8d 85 e0 fa ff
	ff		 lea	 eax, DWORD PTR _szDiplayGSInfo$[ebp]
  01b6f	50		 push	 eax
  01b70	8b 0d 00 00 00
	00		 mov	 ecx, DWORD PTR ?ghWnd@@3PAUHWND__@@A ; ghWnd
  01b76	51		 push	 ecx
  01b77	ff 15 00 00 00
	00		 call	 DWORD PTR __imp__SetWindowTextA@8

; 4390 : #else
; 4391 : 	SetWindowText(ghWnd, szTemp);
; 4392 : #endif
; 4393 : 
; 4394 : 	LoadItemBag();

  01b7d	e8 00 00 00 00	 call	 ?LoadItemBag@@YAXXZ	; LoadItemBag

; 4395 : 
; 4396 : #ifdef HAPPY_CAT
; 4397 : 	g_GameEvent.LoadItem(gDirPath.GetNewPath("EVENT_ITEM"));
; 4398 : #endif	
; 4399 : 
; 4400 : #ifndef MODIFY_ELDORADO_EVENT_OPTION_LOAD_SEQUEANCE_20070821
; 4401 : 	//    
; 4402 : 	gEledoradoEvent.SetEventState(gIsEledoradoEvent);

  01b82	a1 00 00 00 00	 mov	 eax, DWORD PTR ?gIsEledoradoEvent@@3HA ; gIsEledoradoEvent
  01b87	50		 push	 eax
  01b88	b9 00 00 00 00	 mov	 ecx, OFFSET ?gEledoradoEvent@@3VCEledoradoEvent@@A ; gEledoradoEvent
  01b8d	e8 00 00 00 00	 call	 ?SetEventState@CEledoradoEvent@@QAEXH@Z ; CEledoradoEvent::SetEventState

; 4403 : 	gEledoradoEvent.Init();

  01b92	b9 00 00 00 00	 mov	 ecx, OFFSET ?gEledoradoEvent@@3VCEledoradoEvent@@A ; gEledoradoEvent
  01b97	e8 00 00 00 00	 call	 ?Init@CEledoradoEvent@@QAEXXZ ; CEledoradoEvent::Init

; 4404 : #endif // MODIFY_ELDORADO_EVENT_OPTION_LOAD_SEQUEANCE_20070821
; 4405 : 	
; 4406 : 	gPacketCheckSum.Init();

  01b9c	b9 00 00 00 00	 mov	 ecx, OFFSET ?gPacketCheckSum@@3VCPacketCheckSum@@A ; gPacketCheckSum
  01ba1	e8 00 00 00 00	 call	 ?Init@CPacketCheckSum@@QAEXXZ ; CPacketCheckSum::Init

; 4407 : 
; 4408 : #ifdef PERSONAL_SHOP_20040113 
; 4409 : 	gDoPShopOpen = GetPrivateProfileInt("GameServerInfo", "PersonalShopOpen", 0, gDirPath.GetNewPath("commonserver.cfg"));

  01ba6	68 00 00 00 00	 push	 OFFSET ??_C@_0BB@IGLHFEOF@commonserver?4cfg@
  01bab	b9 00 00 00 00	 mov	 ecx, OFFSET ?gDirPath@@3VCDirPath@@A ; gDirPath
  01bb0	e8 00 00 00 00	 call	 ?GetNewPath@CDirPath@@QAEPADPAD@Z ; CDirPath::GetNewPath
  01bb5	50		 push	 eax
  01bb6	6a 00		 push	 0
  01bb8	68 00 00 00 00	 push	 OFFSET ??_C@_0BB@IPFJJFBE@PersonalShopOpen@
  01bbd	68 00 00 00 00	 push	 OFFSET ??_C@_0P@EMJDPFDH@GameServerInfo@
  01bc2	ff 15 00 00 00
	00		 call	 DWORD PTR __imp__GetPrivateProfileIntA@16
  01bc8	a3 00 00 00 00	 mov	 DWORD PTR ?gDoPShopOpen@@3HA, eax ; gDoPShopOpen

; 4410 : #endif
; 4411 : 
; 4412 : #ifdef EVENT_FRIENDSHIP_20040204
; 4413 : 	//    -   
; 4414 : 	FILE * hFile = fopen(gDirPath.GetNewPath("RingEventItem_JpnText.txt"), "r");
; 4415 : 	if (hFile != NULL) {
; 4416 : 
; 4417 : 		for (INT i = 0 ; i < MAX_ITEM_OF_FRIENDSHIP_EVENT ; i++) {
; 4418 : 			INT iResult = fscanf(hFile, "%s\n", g_sz2ANV_GIFT_NAME[i]);
; 4419 : 			if (iResult == EOF)
; 4420 : 				break;
; 4421 : 		}
; 4422 : 		g_bRingEventItemTextLoad = TRUE;
; 4423 : 	}
; 4424 : 	else {
; 4425 : 		g_bRingEventItemTextLoad = FALSE;
; 4426 : 	}
; 4427 : #endif // EVENT_FRIENDSHIP_20040204
; 4428 : 
; 4429 : #ifdef CHN_PLAYTIME_LIMIT_SYSTEM_20050818	// > .   , ,  
; 4430 : 	g_bChnPlayTimeLimitOn = GetPrivateProfileInt("GameServerInfo", "ChnPlayTimeLimitOn", 0, gDirPath.GetNewPath("commonserver.cfg"));
; 4431 : 	g_iChnPlayTimeLimitLevel1Exp = GetPrivateProfileInt("GameServerInfo", "ChnPlayTimeLimitLevel1Exp", 50, gDirPath.GetNewPath("commonserver.cfg"));
; 4432 : 	g_iChnPlayTimeLimitLevel1ItemDrop = GetPrivateProfileInt("GameServerInfo", "ChnPlayTimeLimitLevel1ItemDrop", 50, gDirPath.GetNewPath("commonserver.cfg"));
; 4433 : 	g_iChnPlayTimeLimitLevel2Exp = GetPrivateProfileInt("GameServerInfo", "ChnPlayTimeLimitLevel2Exp", 0, gDirPath.GetNewPath("commonserver.cfg"));
; 4434 : 	g_iChnPlayTimeLimitLevel2ItemDrop = GetPrivateProfileInt("GameServerInfo", "ChnPlayTimeLimitLevel2ItemDrop", 0, gDirPath.GetNewPath("commonserver.cfg"));
; 4435 : #endif
; 4436 : 
; 4437 : #ifdef VTM_PLAYTIME_LIMIT_SYSTEM_20060626
; 4438 : 	g_bVtmPlayTimeLimitOn				= GetPrivateProfileInt("GameServerInfo", "VtmPlayTimeLimitOn",					0,		gDirPath.GetNewPath("commonserver.cfg"));
; 4439 : 	g_iVtmPlayTimeLimitNoticeTime		= GetPrivateProfileInt("GameServerInfo", "VtmPlayTimeLimitNoticeTime",			60,		gDirPath.GetNewPath("commonserver.cfg"));	
; 4440 : 
; 4441 : 	g_iVtmPlayTimeLimitLevel1Exp		= GetPrivateProfileInt("GameServerInfo", "VtmPlayTimeLimitLevel1Exp",			50,		gDirPath.GetNewPath("commonserver.cfg"));
; 4442 : 	g_iVtmPlayTimeLimitLevel1Time		= GetPrivateProfileInt("GameServerInfo", "VtmPlayTimeLimitLevel1Time",			180,	gDirPath.GetNewPath("commonserver.cfg"));	
; 4443 : 	g_iVtmPlayTimeLimitLevel1NoticeTime	= GetPrivateProfileInt("GameServerInfo", "VtmPlayTimeLimitLevel1NoticeTime",	30,		gDirPath.GetNewPath("commonserver.cfg"));
; 4444 : 	g_iVtmPlayTimeLimitLevel1ItemDrop	= GetPrivateProfileInt("GameServerInfo", "VtmPlayTimeLimitLevel1ItemDrop",		50,		gDirPath.GetNewPath("commonserver.cfg"));
; 4445 : 
; 4446 : 	g_iVtmPlayTimeLimitLevel2Exp		= GetPrivateProfileInt("GameServerInfo", "VtmPlayTimeLimitLevel2Exp",			0,		gDirPath.GetNewPath("commonserver.cfg"));
; 4447 : 	g_iVtmPlayTimeLimitLevel2Time		= GetPrivateProfileInt("GameServerInfo", "VtmPlayTimeLimitLevel2Time",			300,	gDirPath.GetNewPath("commonserver.cfg"));		
; 4448 : 	g_iVtmPlayTimeLimitLevel2NoticeTime = GetPrivateProfileInt("GameServerInfo", "VtmPlayTimeLimitLevel2NoticeTime",	15,		gDirPath.GetNewPath("commonserver.cfg"));		
; 4449 : 	g_iVtmPlayTimeLimitLevel2ItemDrop	= GetPrivateProfileInt("GameServerInfo", "VtmPlayTimeLimitLevel2ItemDrop",		0,		gDirPath.GetNewPath("commonserver.cfg"));
; 4450 : #endif
; 4451 : 
; 4452 : #ifdef EVENT_OPTION_RELOAD_20040305				
; 4453 : 	ReadEventInfo(MU_EVENT_ALL);		//      

  01bcd	6a 00		 push	 0
  01bcf	e8 00 00 00 00	 call	 ?ReadEventInfo@@YAXW4MU_EVENT_TYPE@@@Z ; ReadEventInfo
  01bd4	83 c4 04	 add	 esp, 4

; 4454 : #endif
; 4455 : 
; 4456 : #ifdef CHARACTER_AUTO_RECUPERATION_SYSTEM_20050614
; 4457 : 	g_iUseCharacterAutoRecuperationSystem = GetPrivateProfileInt("GameServerInfo", "UseCharacterAutoRecuperationSystem", 0, gDirPath.GetNewPath("commonserver.cfg"));
; 4458 : 	g_iCharacterRecuperationMaxLevel = GetPrivateProfileInt("GameServerInfo", "CharacterRecuperationMaxLevel", 100, gDirPath.GetNewPath("commonserver.cfg"));
; 4459 : 
; 4460 : #endif
; 4461 : 
; 4462 : #ifdef MAKE_ITEM_STOP
; 4463 : 	//  ''    
; 4464 : 	g_iMakeStop = GetPrivateProfileInt("GameServerInfo", "MacroMakeStop", 0, gDirPath.GetNewPath("commonserver.cfg"));
; 4465 : #endif
; 4466 : 
; 4467 : #ifdef MODIFY_SKILL_CHECK_DISTANCE_20060413
; 4468 : 	g_iSkillDistanceCheck 			= GetPrivateProfileInt("GameServerInfo", "SkillDistanceCheck",			0,		gDirPath.GetNewPath("commonserver.cfg"));

  01bd7	68 00 00 00 00	 push	 OFFSET ??_C@_0BB@IGLHFEOF@commonserver?4cfg@
  01bdc	b9 00 00 00 00	 mov	 ecx, OFFSET ?gDirPath@@3VCDirPath@@A ; gDirPath
  01be1	e8 00 00 00 00	 call	 ?GetNewPath@CDirPath@@QAEPADPAD@Z ; CDirPath::GetNewPath
  01be6	50		 push	 eax
  01be7	6a 00		 push	 0
  01be9	68 00 00 00 00	 push	 OFFSET ??_C@_0BD@EINABCJP@SkillDistanceCheck@
  01bee	68 00 00 00 00	 push	 OFFSET ??_C@_0P@EMJDPFDH@GameServerInfo@
  01bf3	ff 15 00 00 00
	00		 call	 DWORD PTR __imp__GetPrivateProfileIntA@16
  01bf9	a3 00 00 00 00	 mov	 DWORD PTR ?g_iSkillDistanceCheck@@3HA, eax ; g_iSkillDistanceCheck

; 4469 : 	g_iSkillDistanceCheckTemp		= GetPrivateProfileInt("GameServerInfo", "SkillDistanceCheckTemp",		2,		gDirPath.GetNewPath("commonserver.cfg"));

  01bfe	68 00 00 00 00	 push	 OFFSET ??_C@_0BB@IGLHFEOF@commonserver?4cfg@
  01c03	b9 00 00 00 00	 mov	 ecx, OFFSET ?gDirPath@@3VCDirPath@@A ; gDirPath
  01c08	e8 00 00 00 00	 call	 ?GetNewPath@CDirPath@@QAEPADPAD@Z ; CDirPath::GetNewPath
  01c0d	50		 push	 eax
  01c0e	6a 02		 push	 2
  01c10	68 00 00 00 00	 push	 OFFSET ??_C@_0BH@KNOFMFOO@SkillDistanceCheckTemp@
  01c15	68 00 00 00 00	 push	 OFFSET ??_C@_0P@EMJDPFDH@GameServerInfo@
  01c1a	ff 15 00 00 00
	00		 call	 DWORD PTR __imp__GetPrivateProfileIntA@16
  01c20	a3 00 00 00 00	 mov	 DWORD PTR ?g_iSkillDistanceCheckTemp@@3HA, eax ; g_iSkillDistanceCheckTemp

; 4470 : 	#ifdef MODIFY_SKILL_CHECK_DISTANCE_UPDATE_20060417
; 4471 : 		g_iSkillDistanceKick 			= GetPrivateProfileInt("GameServerInfo", "SkillDistanceKick",			0,		gDirPath.GetNewPath("commonserver.cfg"));

  01c25	68 00 00 00 00	 push	 OFFSET ??_C@_0BB@IGLHFEOF@commonserver?4cfg@
  01c2a	b9 00 00 00 00	 mov	 ecx, OFFSET ?gDirPath@@3VCDirPath@@A ; gDirPath
  01c2f	e8 00 00 00 00	 call	 ?GetNewPath@CDirPath@@QAEPADPAD@Z ; CDirPath::GetNewPath
  01c34	50		 push	 eax
  01c35	6a 00		 push	 0
  01c37	68 00 00 00 00	 push	 OFFSET ??_C@_0BC@PMNMLGGJ@SkillDistanceKick@
  01c3c	68 00 00 00 00	 push	 OFFSET ??_C@_0P@EMJDPFDH@GameServerInfo@
  01c41	ff 15 00 00 00
	00		 call	 DWORD PTR __imp__GetPrivateProfileIntA@16
  01c47	a3 00 00 00 00	 mov	 DWORD PTR ?g_iSkillDistanceKick@@3HA, eax ; g_iSkillDistanceKick

; 4472 : 		g_iSkillDistanceKickCount		= GetPrivateProfileInt("GameServerInfo", "SkillDistanceKickCount",		5,		gDirPath.GetNewPath("commonserver.cfg"));

  01c4c	68 00 00 00 00	 push	 OFFSET ??_C@_0BB@IGLHFEOF@commonserver?4cfg@
  01c51	b9 00 00 00 00	 mov	 ecx, OFFSET ?gDirPath@@3VCDirPath@@A ; gDirPath
  01c56	e8 00 00 00 00	 call	 ?GetNewPath@CDirPath@@QAEPADPAD@Z ; CDirPath::GetNewPath
  01c5b	50		 push	 eax
  01c5c	6a 05		 push	 5
  01c5e	68 00 00 00 00	 push	 OFFSET ??_C@_0BH@FHPEPELH@SkillDistanceKickCount@
  01c63	68 00 00 00 00	 push	 OFFSET ??_C@_0P@EMJDPFDH@GameServerInfo@
  01c68	ff 15 00 00 00
	00		 call	 DWORD PTR __imp__GetPrivateProfileIntA@16
  01c6e	a3 00 00 00 00	 mov	 DWORD PTR ?g_iSkillDistanceKickCount@@3HA, eax ; g_iSkillDistanceKickCount

; 4473 : 	#endif	//MODIFY_SKILL_CHECK_DISTANCE_UPDATE_20060417	
; 4474 : 	#ifdef MODIFY_SKILL_CHECK_DISTANCE_UPDATE_02_20060421
; 4475 : 		g_iSkillDiatanceKickCheckTime   = GetPrivateProfileInt("GameServerInfo", "SkillDistanceKickCheckTime",	10,		gDirPath.GetNewPath("commonserver.cfg"));

  01c73	68 00 00 00 00	 push	 OFFSET ??_C@_0BB@IGLHFEOF@commonserver?4cfg@
  01c78	b9 00 00 00 00	 mov	 ecx, OFFSET ?gDirPath@@3VCDirPath@@A ; gDirPath
  01c7d	e8 00 00 00 00	 call	 ?GetNewPath@CDirPath@@QAEPADPAD@Z ; CDirPath::GetNewPath
  01c82	50		 push	 eax
  01c83	6a 0a		 push	 10			; 0000000aH
  01c85	68 00 00 00 00	 push	 OFFSET ??_C@_0BL@OPACNGLO@SkillDistanceKickCheckTime@
  01c8a	68 00 00 00 00	 push	 OFFSET ??_C@_0P@EMJDPFDH@GameServerInfo@
  01c8f	ff 15 00 00 00
	00		 call	 DWORD PTR __imp__GetPrivateProfileIntA@16
  01c95	a3 00 00 00 00	 mov	 DWORD PTR ?g_iSkillDiatanceKickCheckTime@@3HA, eax ; g_iSkillDiatanceKickCheckTime

; 4476 : 	#endif
; 4477 : #endif // MODIFY_SKILL_CHECK_DISTANCE_20060413
; 4478 : 
; 4479 : #ifdef ADD_PARTIALY_CHARGE_CASH_SHOP_20070117
; 4480 : 	g_CashShop.CashShopOptioNReload();
; 4481 : #endif // ADD_PARTIALY_CHARGE_CASH_SHOP_20070117
; 4482 : 
; 4483 : #ifdef ADD_PARTIALY_CHARGE_PERIOD_SYSTEM_20070205
; 4484 : 	g_CashItemPeriodSystem.Initialize();
; 4485 : #endif // ADD_PARTIALY_CHARGE_PERIOD_SYSTEM_20070205
; 4486 : 	
; 4487 : #ifdef ADD_HACKING_TOOL_BLOCK_20090311
; 4488 : 	g_HackToolBlock.Initialize();
; 4489 : #endif // ADD_HACKING_TOOL_BLOCK_20090311
; 4490 : 
; 4491 : #ifdef ADD_PCS_LOTTERY_SYSTEM_20070117
; 4492 : 	#ifdef MODIFY_EXPEND_CHAOSCARD_SYSTEM_20080326
; 4493 : 	g_EventItemBagExMng.AddEventItemBagEx( "ChaosCard", gDirPath.GetNewPath("ChaosCardProbability.txt") );
; 4494 : 	g_EventItemBagExMng.AddEventItemBagEx( "ChaosCardMini", gDirPath.GetNewPath("ChaosCardProbability1.txt") );
; 4495 : 	g_EventItemBagExMng.AddEventItemBagEx( "ChaosCardGold", gDirPath.GetNewPath("ChaosCardProbability2.txt") );
; 4496 : 	g_EventItemBagExMng.AddEventItemBagEx( "ChaosCardRare", gDirPath.GetNewPath("ChaosCardProbability3.txt") );
; 4497 : 	#else
; 4498 : 	g_CashLotterySystem.Load( gDirPath.GetNewPath("ChaosCardProbability.txt") );
; 4499 : 	#endif // MODIFY_EXPEND_CHAOSCARD_SYSTEM_20080326
; 4500 : 
; 4501 : #if TESTSERVER == 1
; 4502 : //	g_CashLotterySystem.SimulationLotterySystem();
; 4503 : #endif
; 4504 : #endif // ADD_PCS_LOTTERY_SYSTEM_20070117
; 4505 : 	
; 4506 : #ifdef MODIFY_BUFF_SYSTEM_EXTENTION_20070917
; 4507 : 	g_BuffScript.Load( gDirPath.GetNewPath( "BuffEffect.txt" ) );
; 4508 : #endif // MODIFY_BUFF_SYSTEM_EXTENTION_20070917
; 4509 : 
; 4510 : #ifdef COUPON_EVENT_ITEMLIST_20081022
; 4511 : 	g_CouponEventItemLIst.Load( gDirPath.GetNewPath( "EventItemList.txt" ) );
; 4512 : #endif //COUPON_EVENT_ITEMLIST_20081022
; 4513 : 
; 4514 : #ifdef ADD_MAPMOVE_PROTOCOL_20090327
; 4515 : 	g_bUseMapMoveCheckSum 			= GetPrivateProfileInt("GameServerInfo", "UseMapMoveCheckSum",			0,		gDirPath.GetNewPath("commonserver.cfg"));
; 4516 : #endif // ADD_MAPMOVE_PROTOCOL_20090327
; 4517 : 
; 4518 : #ifdef ADD_NEWSERVER_EVENTOFF_20081114
; 4519 : 	RenderCommonServerInfo();
; 4520 : #endif // ADD_NEWSERVER_EVENTOFF_20081114
; 4521 : 
; 4522 : 	g_PkClearSystem.Load(gDirPath.GetNewPath("PkClearSystem.cfg"));

  01c9a	68 00 00 00 00	 push	 OFFSET ??_C@_0BC@IPOGIFJE@PkClearSystem?4cfg@
  01c9f	b9 00 00 00 00	 mov	 ecx, OFFSET ?gDirPath@@3VCDirPath@@A ; gDirPath
  01ca4	e8 00 00 00 00	 call	 ?GetNewPath@CDirPath@@QAEPADPAD@Z ; CDirPath::GetNewPath
  01ca9	50		 push	 eax
  01caa	b9 00 00 00 00	 mov	 ecx, OFFSET ?g_PkClearSystem@@3VCPkClearSystem@@A ; g_PkClearSystem
  01caf	e8 00 00 00 00	 call	 ?Load@CPkClearSystem@@QAEHPAD@Z ; CPkClearSystem::Load

; 4523 : 	g_ResetSystem.Load( gDirPath.GetNewPath("ResetSystem.cfg"));

  01cb4	68 00 00 00 00	 push	 OFFSET ??_C@_0BA@NJMOGOCM@ResetSystem?4cfg@
  01cb9	b9 00 00 00 00	 mov	 ecx, OFFSET ?gDirPath@@3VCDirPath@@A ; gDirPath
  01cbe	e8 00 00 00 00	 call	 ?GetNewPath@CDirPath@@QAEPADPAD@Z ; CDirPath::GetNewPath
  01cc3	50		 push	 eax
  01cc4	b9 00 00 00 00	 mov	 ecx, OFFSET ?g_ResetSystem@@3VCResetSystem@@A ; g_ResetSystem
  01cc9	e8 00 00 00 00	 call	 ?Load@CResetSystem@@QAEHPAD@Z ; CResetSystem::Load

; 4524 : 	g_BuffHelper.Load(gDirPath.GetNewPath("BuffHelperSystem.cfg"));

  01cce	68 00 00 00 00	 push	 OFFSET ??_C@_0BF@MNGCMCAL@BuffHelperSystem?4cfg@
  01cd3	b9 00 00 00 00	 mov	 ecx, OFFSET ?gDirPath@@3VCDirPath@@A ; gDirPath
  01cd8	e8 00 00 00 00	 call	 ?GetNewPath@CDirPath@@QAEPADPAD@Z ; CDirPath::GetNewPath
  01cdd	50		 push	 eax
  01cde	b9 00 00 00 00	 mov	 ecx, OFFSET ?g_BuffHelper@@3VCBuffHelper@@A ; g_BuffHelper
  01ce3	e8 00 00 00 00	 call	 ?Load@CBuffHelper@@QAEHPAD@Z ; CBuffHelper::Load

; 4525 : 
; 4526 : 	gConnectBonus = GetPrivateProfileInt("Bonus","BonusSystem",1,gDirPath.GetNewPath("OnlineBonus.ini"));

  01ce8	68 00 00 00 00	 push	 OFFSET ??_C@_0BA@PCIIIHII@OnlineBonus?4ini@
  01ced	b9 00 00 00 00	 mov	 ecx, OFFSET ?gDirPath@@3VCDirPath@@A ; gDirPath
  01cf2	e8 00 00 00 00	 call	 ?GetNewPath@CDirPath@@QAEPADPAD@Z ; CDirPath::GetNewPath
  01cf7	50		 push	 eax
  01cf8	6a 01		 push	 1
  01cfa	68 00 00 00 00	 push	 OFFSET ??_C@_0M@DGOLEIPN@BonusSystem@
  01cff	68 00 00 00 00	 push	 OFFSET ??_C@_05JKBOBFBJ@Bonus@
  01d04	ff 15 00 00 00
	00		 call	 DWORD PTR __imp__GetPrivateProfileIntA@16
  01d0a	a3 00 00 00 00	 mov	 DWORD PTR ?gConnectBonus@@3HA, eax ; gConnectBonus

; 4527 : 	gConnectBonusTime = GetPrivateProfileInt("Bonus", "BonusTime", 1, gDirPath.GetNewPath("OnlineBonus.ini"));

  01d0f	68 00 00 00 00	 push	 OFFSET ??_C@_0BA@PCIIIHII@OnlineBonus?4ini@
  01d14	b9 00 00 00 00	 mov	 ecx, OFFSET ?gDirPath@@3VCDirPath@@A ; gDirPath
  01d19	e8 00 00 00 00	 call	 ?GetNewPath@CDirPath@@QAEPADPAD@Z ; CDirPath::GetNewPath
  01d1e	50		 push	 eax
  01d1f	6a 01		 push	 1
  01d21	68 00 00 00 00	 push	 OFFSET ??_C@_09CAFPCKBI@BonusTime@
  01d26	68 00 00 00 00	 push	 OFFSET ??_C@_05JKBOBFBJ@Bonus@
  01d2b	ff 15 00 00 00
	00		 call	 DWORD PTR __imp__GetPrivateProfileIntA@16
  01d31	a3 00 00 00 00	 mov	 DWORD PTR ?gConnectBonusTime@@3HA, eax ; gConnectBonusTime

; 4528 : 	if (gConnectBonusTime <= 0)

  01d36	83 3d 00 00 00
	00 00		 cmp	 DWORD PTR ?gConnectBonusTime@@3HA, 0 ; gConnectBonusTime
  01d3d	7f 16		 jg	 SHORT $LN36@ReadCommon

; 4529 : 	{
; 4530 : 		gConnectBonusTime = 60;

  01d3f	c7 05 00 00 00
	00 3c 00 00 00	 mov	 DWORD PTR ?gConnectBonusTime@@3HA, 60 ; gConnectBonusTime, 0000003cH

; 4531 : 		gConnectBonus = 0;

  01d49	c7 05 00 00 00
	00 00 00 00 00	 mov	 DWORD PTR ?gConnectBonus@@3HA, 0 ; gConnectBonus

; 4532 : 	}

  01d53	eb 0c		 jmp	 SHORT $LN37@ReadCommon
$LN36@ReadCommon:

; 4533 : 	else
; 4534 : 	{
; 4535 : 		gConnectBonusTime = gConnectBonusTime * 60;

  01d55	6b 05 00 00 00
	00 3c		 imul	 eax, DWORD PTR ?gConnectBonusTime@@3HA, 60 ; gConnectBonusTime
  01d5c	a3 00 00 00 00	 mov	 DWORD PTR ?gConnectBonusTime@@3HA, eax ; gConnectBonusTime
$LN37@ReadCommon:

; 4536 : 	}
; 4537 : 	gConnectBonusCashPoints = GetPrivateProfileInt("Bonus", "BonusCash", 0, gDirPath.GetNewPath("OnlineBonus.ini"));

  01d61	68 00 00 00 00	 push	 OFFSET ??_C@_0BA@PCIIIHII@OnlineBonus?4ini@
  01d66	b9 00 00 00 00	 mov	 ecx, OFFSET ?gDirPath@@3VCDirPath@@A ; gDirPath
  01d6b	e8 00 00 00 00	 call	 ?GetNewPath@CDirPath@@QAEPADPAD@Z ; CDirPath::GetNewPath
  01d70	50		 push	 eax
  01d71	6a 00		 push	 0
  01d73	68 00 00 00 00	 push	 OFFSET ??_C@_09JEDNLJFC@BonusCash@
  01d78	68 00 00 00 00	 push	 OFFSET ??_C@_05JKBOBFBJ@Bonus@
  01d7d	ff 15 00 00 00
	00		 call	 DWORD PTR __imp__GetPrivateProfileIntA@16
  01d83	a3 00 00 00 00	 mov	 DWORD PTR ?gConnectBonusCashPoints@@3HA, eax ; gConnectBonusCashPoints

; 4538 : 
; 4539 : 
; 4540 : 	g_PvpEvent.Load();

  01d88	68 00 00 00 00	 push	 OFFSET ??_C@_0BF@BJNKEBMD@?4?4?2data?2PVPEvent?4cfg@
  01d8d	b9 00 00 00 00	 mov	 ecx, OFFSET ?g_PvpEvent@@3VCEngagePVP@@A ; g_PvpEvent
  01d92	e8 00 00 00 00	 call	 ?Load@CEngagePVP@@QAEXPBD@Z ; CEngagePVP::Load

; 4541 : 
; 4542 : 	//g_VIPSystem.LoadVIP();
; 4543 : 
; 4544 : 	g_ArrowSystem.Load();

  01d97	68 00 00 00 00	 push	 OFFSET ??_C@_0BI@NOFODAGC@?4?4?2data?2ArrowSystem?4cfg@
  01d9c	b9 00 00 00 00	 mov	 ecx, OFFSET ?g_ArrowSystem@@3VCArrowSystem@@A ; g_ArrowSystem
  01da1	e8 00 00 00 00	 call	 ?Load@CArrowSystem@@QAEXPBD@Z ; CArrowSystem::Load

; 4545 : 
; 4546 : #ifdef __HAPPYHOUR_H__
; 4547 : 	g_HappyHour.Load();
; 4548 : #endif
; 4549 : 
; 4550 : 	gBalanceSystem.Load(gDirPath.GetNewPath(BALANCESYSTEM_DIR));

  01da6	68 00 00 00 00	 push	 OFFSET ??_C@_0BK@PPGGKBGC@?4?4?2data?2BalanceSystem?4ini@
  01dab	b9 00 00 00 00	 mov	 ecx, OFFSET ?gDirPath@@3VCDirPath@@A ; gDirPath
  01db0	e8 00 00 00 00	 call	 ?GetNewPath@CDirPath@@QAEPADPAD@Z ; CDirPath::GetNewPath
  01db5	50		 push	 eax
  01db6	b9 00 00 00 00	 mov	 ecx, OFFSET ?gBalanceSystem@@3VcBalanceSystem@@A ; gBalanceSystem
  01dbb	e8 00 00 00 00	 call	 ?Load@cBalanceSystem@@QAEXPAD@Z ; cBalanceSystem::Load

; 4551 : 	gSettings = new CSettings; gSettings->Loading(); _dynamic_experience._loading();

  01dc0	68 94 00 00 00	 push	 148			; 00000094H
  01dc5	e8 00 00 00 00	 call	 ??2@YAPAXI@Z		; operator new
  01dca	83 c4 04	 add	 esp, 4
  01dcd	89 85 1c fa ff
	ff		 mov	 DWORD PTR $T1[ebp], eax
  01dd3	83 bd 1c fa ff
	ff 00		 cmp	 DWORD PTR $T1[ebp], 0
  01dda	74 13		 je	 SHORT $LN39@ReadCommon
  01ddc	8b 8d 1c fa ff
	ff		 mov	 ecx, DWORD PTR $T1[ebp]
  01de2	e8 00 00 00 00	 call	 ??0CSettings@@QAE@XZ
  01de7	89 85 18 fa ff
	ff		 mov	 DWORD PTR tv1673[ebp], eax
  01ded	eb 0a		 jmp	 SHORT $LN40@ReadCommon
$LN39@ReadCommon:
  01def	c7 85 18 fa ff
	ff 00 00 00 00	 mov	 DWORD PTR tv1673[ebp], 0
$LN40@ReadCommon:
  01df9	8b 85 18 fa ff
	ff		 mov	 eax, DWORD PTR tv1673[ebp]
  01dff	a3 00 00 00 00	 mov	 DWORD PTR ?gSettings@@3PAVCSettings@@A, eax ; gSettings
  01e04	8b 0d 00 00 00
	00		 mov	 ecx, DWORD PTR ?gSettings@@3PAVCSettings@@A ; gSettings
  01e0a	e8 00 00 00 00	 call	 ?Loading@CSettings@@QAE_NXZ ; CSettings::Loading
  01e0f	b9 00 00 00 00	 mov	 ecx, OFFSET ?_dynamic_experience@@3VCDynamicExperience@@A ; _dynamic_experience
  01e14	e8 00 00 00 00	 call	 ?_loading@CDynamicExperience@@QAEXXZ ; CDynamicExperience::_loading

; 4552 : 	Balancer.Load();

  01e19	b9 00 00 00 00	 mov	 ecx, OFFSET ?Balancer@@3VCBalancer@@A ; Balancer
  01e1e	e8 00 00 00 00	 call	 ?Load@CBalancer@@QAE_NXZ ; CBalancer::Load

; 4553 : 	Manager.Initialize();

  01e23	b9 00 00 00 00	 mov	 ecx, OFFSET ?Manager@@3VCManager@@A ; Manager
  01e28	e8 00 00 00 00	 call	 ?Initialize@CManager@@QAE_NXZ ; CManager::Initialize

; 4554 : 	//DevGamesX 01/05/2018 - OffExp
; 4555 : 	OffExp.LoadConfig();

  01e2d	b9 00 00 00 00	 mov	 ecx, OFFSET ?OffExp@@3VcOffExp@@A ; OffExp
  01e32	e8 00 00 00 00	 call	 ?LoadConfig@cOffExp@@QAEXXZ ; cOffExp::LoadConfig

; 4556 : 	YDTeamTopOnline();

  01e37	e8 00 00 00 00	 call	 ?YDTeamTopOnline@@YAXXZ	; YDTeamTopOnline

; 4557 : 	//s_PickUp.LoadFile(gDirPath.GetNewPath("..\\data\\PickupSystem.txt"));
; 4558 : 
; 4559 : }

  01e3c	5f		 pop	 edi
  01e3d	5e		 pop	 esi
  01e3e	5b		 pop	 ebx
  01e3f	8b 4d fc	 mov	 ecx, DWORD PTR __$ArrayPad$[ebp]
  01e42	33 cd		 xor	 ecx, ebp
  01e44	e8 00 00 00 00	 call	 @__security_check_cookie@4
  01e49	8b e5		 mov	 esp, ebp
  01e4b	5d		 pop	 ebp
  01e4c	c3		 ret	 0
  01e4d	0f 1f 00	 npad	 3
$LN41@ReadCommon:
  01e50	00 00 00 00	 DD	 $LN8@ReadCommon
  01e54	00 00 00 00	 DD	 $LN11@ReadCommon
  01e58	00 00 00 00	 DD	 $LN14@ReadCommon
  01e5c	00 00 00 00	 DD	 $LN17@ReadCommon
  01e60	00 00 00 00	 DD	 $LN20@ReadCommon
  01e64	00 00 00 00	 DD	 $LN23@ReadCommon
?ReadCommonServerInfo@@YAXXZ ENDP			; ReadCommonServerInfo
_TEXT	ENDS
; Function compile flags: /Odtp /ZI
; File C:\Mu Online\Mu-GS-Webzen-MC-10093\GameServer\Gamemain.cpp
;	COMDAT ?GameServerInfoSend@@YAXXZ
_TEXT	SEGMENT
_pMsg$ = -20						; size = 16
__$ArrayPad$ = -4					; size = 4
?GameServerInfoSend@@YAXXZ PROC				; GameServerInfoSend, COMDAT

; 4754 : {

  00000	55		 push	 ebp
  00001	8b ec		 mov	 ebp, esp
  00003	83 ec 54	 sub	 esp, 84			; 00000054H
  00006	a1 00 00 00 00	 mov	 eax, DWORD PTR ___security_cookie
  0000b	33 c5		 xor	 eax, ebp
  0000d	89 45 fc	 mov	 DWORD PTR __$ArrayPad$[ebp], eax
  00010	53		 push	 ebx
  00011	56		 push	 esi
  00012	57		 push	 edi

; 4755 : 	if( gDisconnect == 1 ) return;

  00013	83 3d 00 00 00
	00 01		 cmp	 DWORD PTR ?gDisconnect@@3HA, 1 ; gDisconnect
  0001a	75 05		 jne	 SHORT $LN2@GameServer
  0001c	e9 cd 00 00 00	 jmp	 $LN1@GameServer
$LN2@GameServer:

; 4756 : #ifndef GUILD_REWORK
; 4757 : 	if( GSInfoSendFlag == 0 ) return;
; 4758 : #endif
; 4759 : 
; 4760 : 	PMSG_SERVERINFO pMsg;
; 4761 : 
; 4762 : 	pMsg.h.c			= PMHC_BYTE;

  00021	c6 45 ec c1	 mov	 BYTE PTR _pMsg$[ebp], 193 ; 000000c1H

; 4763 : 	pMsg.h.headcode		= 0x01;

  00025	c6 45 ee 01	 mov	 BYTE PTR _pMsg$[ebp+2], 1

; 4764 : 	pMsg.h.size			= sizeof( pMsg );

  00029	c6 45 ed 10	 mov	 BYTE PTR _pMsg$[ebp+1], 16 ; 00000010H

; 4765 : 
; 4766 : 	if( gObjTotalUser == 0 ) pMsg.Percent = 0;

  0002d	83 3d 00 00 00
	00 00		 cmp	 DWORD PTR ?gObjTotalUser@@3HA, 0 ; gObjTotalUser
  00034	75 06		 jne	 SHORT $LN3@GameServer
  00036	c6 45 f2 00	 mov	 BYTE PTR _pMsg$[ebp+6], 0
  0003a	eb 11		 jmp	 SHORT $LN4@GameServer
$LN3@GameServer:

; 4767 : 	else pMsg.Percent =	gObjTotalUser*100/gServerMaxUser;

  0003c	6b 05 00 00 00
	00 64		 imul	 eax, DWORD PTR ?gObjTotalUser@@3HA, 100 ; gObjTotalUser
  00043	99		 cdq
  00044	f7 3d 00 00 00
	00		 idiv	 DWORD PTR ?gServerMaxUser@@3HA ; gServerMaxUser
  0004a	88 45 f2	 mov	 BYTE PTR _pMsg$[ebp+6], al
$LN4@GameServer:

; 4768 : 
; 4769 : 	
; 4770 : 	pMsg.ServerCode		= gGameServerCode;

  0004d	66 a1 00 00 00
	00		 mov	 ax, WORD PTR ?gGameServerCode@@3FA ; gGameServerCode
  00053	66 89 45 f0	 mov	 WORD PTR _pMsg$[ebp+4], ax

; 4771 : 	pMsg.UserCount		= gObjTotalUser;

  00057	66 a1 00 00 00
	00		 mov	 ax, WORD PTR ?gObjTotalUser@@3HA
  0005d	66 89 45 f4	 mov	 WORD PTR _pMsg$[ebp+8], ax

; 4772 : 
; 4773 : #ifdef UPDATE_UNIFICATIONBILL_20090203
; 4774 : 	pMsg.AccountCount	= gLCount[BILL_TYPE_PERSONAL_AMOUNT].Get() + gLCount[BILL_TYPE_PERSONAL_QUANTITY].Get() + gLCount[BILL_TYPE_COLLOR].Get();

  00061	b9 04 00 00 00	 mov	 ecx, 4
  00066	c1 e1 00	 shl	 ecx, 0
  00069	81 c1 00 00 00
	00		 add	 ecx, OFFSET ?gLCount@@3PAVCLoginCount@@A ; gLCount
  0006f	e8 00 00 00 00	 call	 ?Get@CLoginCount@@QAEHXZ ; CLoginCount::Get
  00074	8b f0		 mov	 esi, eax
  00076	b9 04 00 00 00	 mov	 ecx, 4
  0007b	c1 e1 02	 shl	 ecx, 2
  0007e	81 c1 00 00 00
	00		 add	 ecx, OFFSET ?gLCount@@3PAVCLoginCount@@A ; gLCount
  00084	e8 00 00 00 00	 call	 ?Get@CLoginCount@@QAEHXZ ; CLoginCount::Get
  00089	03 f0		 add	 esi, eax
  0008b	b8 04 00 00 00	 mov	 eax, 4
  00090	6b c8 05	 imul	 ecx, eax, 5
  00093	81 c1 00 00 00
	00		 add	 ecx, OFFSET ?gLCount@@3PAVCLoginCount@@A ; gLCount
  00099	e8 00 00 00 00	 call	 ?Get@CLoginCount@@QAEHXZ ; CLoginCount::Get
  0009e	03 f0		 add	 esi, eax
  000a0	66 89 75 f6	 mov	 WORD PTR _pMsg$[ebp+10], si

; 4775 : 	pMsg.PCbangCount	= gLCount[BILL_TYPE_PCBANG_AMOUNT].Get() + gLCount[BILL_TYPE_PCBANG_QUANTITY].Get();

  000a4	b9 04 00 00 00	 mov	 ecx, 4
  000a9	d1 e1		 shl	 ecx, 1
  000ab	81 c1 00 00 00
	00		 add	 ecx, OFFSET ?gLCount@@3PAVCLoginCount@@A ; gLCount
  000b1	e8 00 00 00 00	 call	 ?Get@CLoginCount@@QAEHXZ ; CLoginCount::Get
  000b6	8b f0		 mov	 esi, eax
  000b8	b8 04 00 00 00	 mov	 eax, 4
  000bd	6b c8 03	 imul	 ecx, eax, 3
  000c0	81 c1 00 00 00
	00		 add	 ecx, OFFSET ?gLCount@@3PAVCLoginCount@@A ; gLCount
  000c6	e8 00 00 00 00	 call	 ?Get@CLoginCount@@QAEHXZ ; CLoginCount::Get
  000cb	03 f0		 add	 esi, eax
  000cd	66 89 75 f8	 mov	 WORD PTR _pMsg$[ebp+12], si

; 4776 : #else	// UPDATE_UNIFICATIONBILL_20090203
; 4777 : 	pMsg.AccountCount	= gLCount[CERTIFYTYPE_ACCOUNT].Get();
; 4778 : 	pMsg.PCbangCount	= gLCount[CERTIFYTYPE_IP].Get();
; 4779 : #endif	// UPDATE_UNIFICATIONBILL_20090203
; 4780 : 
; 4781 : 	pMsg.MaxUserCount	= gServerMaxUser;

  000d1	66 a1 00 00 00
	00		 mov	 ax, WORD PTR ?gServerMaxUser@@3HA
  000d7	66 89 45 fa	 mov	 WORD PTR _pMsg$[ebp+14], ax

; 4782 : 
; 4783 : 	gUdpSoc.SendData((LPBYTE)&pMsg, pMsg.h.size);

  000db	0f b6 45 ed	 movzx	 eax, BYTE PTR _pMsg$[ebp+1]
  000df	50		 push	 eax
  000e0	8d 4d ec	 lea	 ecx, DWORD PTR _pMsg$[ebp]
  000e3	51		 push	 ecx
  000e4	b9 00 00 00 00	 mov	 ecx, OFFSET ?gUdpSoc@@3VWzUdp@@A ; gUdpSoc
  000e9	e8 00 00 00 00	 call	 ?SendData@WzUdp@@QAEHPAEK@Z ; WzUdp::SendData
$LN1@GameServer:

; 4784 : }

  000ee	5f		 pop	 edi
  000ef	5e		 pop	 esi
  000f0	5b		 pop	 ebx
  000f1	8b 4d fc	 mov	 ecx, DWORD PTR __$ArrayPad$[ebp]
  000f4	33 cd		 xor	 ecx, ebp
  000f6	e8 00 00 00 00	 call	 @__security_check_cookie@4
  000fb	8b e5		 mov	 esp, ebp
  000fd	5d		 pop	 ebp
  000fe	c3		 ret	 0
?GameServerInfoSend@@YAXXZ ENDP				; GameServerInfoSend
_TEXT	ENDS
; Function compile flags: /Odtp /ZI
; File C:\Mu Online\Mu-GS-Webzen-MC-10093\GameServer\Gamemain.cpp
;	COMDAT ?GMDataServerConnect@@YAHPADK@Z
_TEXT	SEGMENT
_result$ = -4						; size = 4
_ConnectServer$ = 8					; size = 4
_wMsg$ = 12						; size = 4
?GMDataServerConnect@@YAHPADK@Z PROC			; GMDataServerConnect, COMDAT

; 2390 : {

  00000	55		 push	 ebp
  00001	8b ec		 mov	 ebp, esp
  00003	83 ec 44	 sub	 esp, 68			; 00000044H
  00006	53		 push	 ebx
  00007	56		 push	 esi
  00008	57		 push	 edi

; 2391 : 	BOOL result;
; 2392 : 
; 2393 : 	wsDataCli.SetProtocolCore(DataServerProtocolCore);

  00009	68 00 00 00 00	 push	 OFFSET ?DataServerProtocolCore@@YAXEPAEH@Z ; DataServerProtocolCore
  0000e	b9 00 00 00 00	 mov	 ecx, OFFSET ?wsDataCli@@3VwsJoinServerCli@@A ; wsDataCli
  00013	e8 00 00 00 00	 call	 ?SetProtocolCore@wsJoinServerCli@@QAEHP6AXEPAEH@Z@Z ; wsJoinServerCli::SetProtocolCore

; 2394 : 	result = wsDataCli.Connect(ConnectServer, DataServerPort, wMsg);

  00018	8b 45 0c	 mov	 eax, DWORD PTR _wMsg$[ebp]
  0001b	50		 push	 eax
  0001c	0f b7 0d 00 00
	00 00		 movzx	 ecx, WORD PTR ?DataServerPort@@3HA
  00023	51		 push	 ecx
  00024	8b 55 08	 mov	 edx, DWORD PTR _ConnectServer$[ebp]
  00027	52		 push	 edx
  00028	b9 00 00 00 00	 mov	 ecx, OFFSET ?wsDataCli@@3VwsJoinServerCli@@A ; wsDataCli
  0002d	e8 00 00 00 00	 call	 ?Connect@wsJoinServerCli@@QAEHPADGK@Z ; wsJoinServerCli::Connect
  00032	89 45 fc	 mov	 DWORD PTR _result$[ebp], eax

; 2395 : 	if( result == FALSE ) 

  00035	83 7d fc 00	 cmp	 DWORD PTR _result$[ebp], 0
  00039	75 28		 jne	 SHORT $LN2@GMDataServ

; 2396 : 	{
; 2397 : 		LogAdd(lMsg.Get(403), ConnectServer, DataServerPort);

  0003b	a1 00 00 00 00	 mov	 eax, DWORD PTR ?DataServerPort@@3HA ; DataServerPort
  00040	50		 push	 eax
  00041	8b 4d 08	 mov	 ecx, DWORD PTR _ConnectServer$[ebp]
  00044	51		 push	 ecx
  00045	68 93 01 00 00	 push	 403			; 00000193H
  0004a	b9 00 00 00 00	 mov	 ecx, OFFSET ?lMsg@@3VCMsg@@A ; lMsg
  0004f	ff 15 00 00 00
	00		 call	 DWORD PTR __imp_?Get@CMsg@@QAEPADH@Z
  00055	50		 push	 eax
  00056	ff 15 00 00 00
	00		 call	 DWORD PTR ?LogAdd@@3P6AXPADZZA ; LogAdd
  0005c	83 c4 0c	 add	 esp, 12			; 0000000cH

; 2398 : 		return FALSE;

  0005f	33 c0		 xor	 eax, eax
  00061	eb 33		 jmp	 SHORT $LN1@GMDataServ
$LN2@GMDataServ:

; 2399 : 	}
; 2400 : 	
; 2401 : 	DataServerLogin(0);

  00063	6a 00		 push	 0
  00065	e8 00 00 00 00	 call	 ?DataServerLogin@@YAXH@Z ; DataServerLogin
  0006a	83 c4 04	 add	 esp, 4

; 2402 : 
; 2403 : 	LogAdd(lMsg.Get(402), ConnectServer, DataServerPort);

  0006d	a1 00 00 00 00	 mov	 eax, DWORD PTR ?DataServerPort@@3HA ; DataServerPort
  00072	50		 push	 eax
  00073	8b 4d 08	 mov	 ecx, DWORD PTR _ConnectServer$[ebp]
  00076	51		 push	 ecx
  00077	68 92 01 00 00	 push	 402			; 00000192H
  0007c	b9 00 00 00 00	 mov	 ecx, OFFSET ?lMsg@@3VCMsg@@A ; lMsg
  00081	ff 15 00 00 00
	00		 call	 DWORD PTR __imp_?Get@CMsg@@QAEPADH@Z
  00087	50		 push	 eax
  00088	ff 15 00 00 00
	00		 call	 DWORD PTR ?LogAdd@@3P6AXPADZZA ; LogAdd
  0008e	83 c4 0c	 add	 esp, 12			; 0000000cH

; 2404 : 	return TRUE;

  00091	b8 01 00 00 00	 mov	 eax, 1
$LN1@GMDataServ:

; 2405 : }

  00096	5f		 pop	 edi
  00097	5e		 pop	 esi
  00098	5b		 pop	 ebx
  00099	8b e5		 mov	 esp, ebp
  0009b	5d		 pop	 ebp
  0009c	c3		 ret	 0
?GMDataServerConnect@@YAHPADK@Z ENDP			; GMDataServerConnect
_TEXT	ENDS
; Function compile flags: /Odtp /ZI
; File C:\Mu Online\Mu-GS-Webzen-MC-10093\GameServer\Gamemain.cpp
;	COMDAT ?GameMonsterAllCloseAndReLoad@@YAXXZ
_TEXT	SEGMENT
_n$1 = -4						; size = 4
?GameMonsterAllCloseAndReLoad@@YAXXZ PROC		; GameMonsterAllCloseAndReLoad, COMDAT

; 2237 : {

  00000	55		 push	 ebp
  00001	8b ec		 mov	 ebp, esp
  00003	83 ec 44	 sub	 esp, 68			; 00000044H
  00006	53		 push	 ebx
  00007	56		 push	 esi
  00008	57		 push	 edi

; 2238 : 	g_PkClearSystem.ClearPkClearNPCData();

  00009	b9 00 00 00 00	 mov	 ecx, OFFSET ?g_PkClearSystem@@3VCPkClearSystem@@A ; g_PkClearSystem
  0000e	e8 00 00 00 00	 call	 ?ClearPkClearNPCData@CPkClearSystem@@QAEXXZ ; CPkClearSystem::ClearPkClearNPCData

; 2239 : 	g_ResetSystem.ClearResetNPCData();

  00013	b9 00 00 00 00	 mov	 ecx, OFFSET ?g_ResetSystem@@3VCResetSystem@@A ; g_ResetSystem
  00018	e8 00 00 00 00	 call	 ?ClearResetNPCData@CResetSystem@@QAEXXZ ; CResetSystem::ClearResetNPCData

; 2240 : 	g_BuffHelper.ClearNPCData();

  0001d	b9 00 00 00 00	 mov	 ecx, OFFSET ?g_BuffHelper@@3VCBuffHelper@@A ; g_BuffHelper
  00022	e8 00 00 00 00	 call	 ?ClearNPCData@CBuffHelper@@QAEXXZ ; CBuffHelper::ClearNPCData

; 2241 : 
; 2242 : 	for( int n=0; n<MAX_MONSTER; n++)

  00027	c7 45 fc 00 00
	00 00		 mov	 DWORD PTR _n$1[ebp], 0
  0002e	eb 09		 jmp	 SHORT $LN4@GameMonste
$LN2@GameMonste:
  00030	8b 45 fc	 mov	 eax, DWORD PTR _n$1[ebp]
  00033	83 c0 01	 add	 eax, 1
  00036	89 45 fc	 mov	 DWORD PTR _n$1[ebp], eax
$LN4@GameMonste:
  00039	81 7d fc a8 16
	00 00		 cmp	 DWORD PTR _n$1[ebp], 5800 ; 000016a8H
  00040	7d 3c		 jge	 SHORT $LN3@GameMonste

; 2243 : 	{
; 2244 : 		if( gObj[n].Type == OBJTYPE_MONSTER || gObj[n].Type == OBJTYPE_NPC )

  00042	69 45 fc a0 1b
	00 00		 imul	 eax, DWORD PTR _n$1[ebp], 7072
  00049	8b 0d 00 00 00
	00		 mov	 ecx, DWORD PTR ?gObj@@3PAVOBJECTSTRUCT@@A ; gObj
  0004f	0f b7 54 01 64	 movzx	 edx, WORD PTR [ecx+eax+100]
  00054	83 fa 02	 cmp	 edx, 2
  00057	74 17		 je	 SHORT $LN6@GameMonste
  00059	69 45 fc a0 1b
	00 00		 imul	 eax, DWORD PTR _n$1[ebp], 7072
  00060	8b 0d 00 00 00
	00		 mov	 ecx, DWORD PTR ?gObj@@3PAVOBJECTSTRUCT@@A ; gObj
  00066	0f b7 54 01 64	 movzx	 edx, WORD PTR [ecx+eax+100]
  0006b	83 fa 03	 cmp	 edx, 3
  0006e	75 0c		 jne	 SHORT $LN5@GameMonste
$LN6@GameMonste:

; 2245 : 		{
; 2246 : #ifdef ADD_KANTURU_20060627		//       .
; 2247 : 			if( gObj[n].MapNumber == MAP_INDEX_KANTURU_BOSS )
; 2248 : 				continue;
; 2249 : 
; 2250 : #endif
; 2251 : 
; 2252 : #ifdef CASTLE_MAIN_SCHEDULER_20041111	//       .
; 2253 : 			if (gObj[n].m_btCsNpcType != CS_NPC_TYPE_NONE)
; 2254 : 				continue;
; 2255 : #endif
; 2256 : 
; 2257 : #ifdef ADD_NEW_MONSTER_SYSTEM_02_20050725
; 2258 : 			if ( gObj[n].m_iCurrentAI )
; 2259 : 			{
; 2260 : 				gObj[n].Live = 0;
; 2261 : 				gObjViewportListProtocolDestroy(&gObj[n]);
; 2262 : 				gObjViewportClose(&gObj[n]);
; 2263 : 			}
; 2264 : #endif
; 2265 : 			gObjDel(n);

  00070	8b 45 fc	 mov	 eax, DWORD PTR _n$1[ebp]
  00073	50		 push	 eax
  00074	e8 00 00 00 00	 call	 ?gObjDel@@YAFH@Z	; gObjDel
  00079	83 c4 04	 add	 esp, 4
$LN5@GameMonste:

; 2266 : 		}
; 2267 : 	
; 2268 : 	}

  0007c	eb b2		 jmp	 SHORT $LN2@GameMonste
$LN3@GameMonste:

; 2269 : 
; 2270 : #ifdef CRYWOLF_NPC_WORK_20050912
; 2271 : 	//   NPC  
; 2272 : 	g_Crywolf.m_ObjCommonNPC.Reset();
; 2273 : 	g_Crywolf.m_ObjSpecialNPC.Reset();
; 2274 : #endif
; 2275 : 
; 2276 : #ifdef CRYWOLF_MONSTER_WORK_20050914
; 2277 : 	//     
; 2278 : 	g_Crywolf.m_ObjCommonMonster.Reset();
; 2279 : 	g_Crywolf.m_ObjSpecialMonster.Reset();
; 2280 : #endif
; 2281 : 
; 2282 : #ifdef AUTH_GAMESERVER
; 2283 : 	int DataBufferSize;
; 2284 : 	char* DataBuffer;
; 2285 : 	
; 2286 : 	gGameServerAuth.RequestData(FILE_MONSTER);
; 2287 : 	DataBufferSize = gGameServerAuth.GetDataBufferSize();
; 2288 : 	DataBuffer = gGameServerAuth.GetDataBuffer();
; 2289 : 	gMAttr.LoadAttr(DataBuffer, DataBufferSize);						//   	
; 2290 : 
; 2291 : 	gGameServerAuth.RequestData(FILE_MONSTERSETBASE);
; 2292 : 	DataBufferSize = gGameServerAuth.GetDataBufferSize();
; 2293 : 	DataBuffer = gGameServerAuth.GetDataBuffer();
; 2294 : 	gMSetBase.LoadSetBase(DataBuffer, DataBufferSize);	//   
; 2295 : #else
; 2296 : 	#ifdef SCRIPT_DECODE_WORK	
; 2297 : 		gMAttr.LoadAttrDecode(gDirPath.GetNewPath("Monster.cwz"));
; 2298 : 		gMSetBase.LoadSetBaseDecode(gDirPath.GetNewPath("MonsterSetBase.cwz"));
; 2299 : 	#else
; 2300 : 		gMAttr.LoadAttr(gDirPath.GetNewPath("Monster.txt"));

  0007e	68 00 00 00 00	 push	 OFFSET ??_C@_0M@NDKJFFPF@Monster?4txt@
  00083	b9 00 00 00 00	 mov	 ecx, OFFSET ?gDirPath@@3VCDirPath@@A ; gDirPath
  00088	e8 00 00 00 00	 call	 ?GetNewPath@CDirPath@@QAEPADPAD@Z ; CDirPath::GetNewPath
  0008d	50		 push	 eax
  0008e	b9 00 00 00 00	 mov	 ecx, OFFSET ?gMAttr@@3VCMonsterAttr@@A ; gMAttr
  00093	e8 00 00 00 00	 call	 ?LoadAttr@CMonsterAttr@@QAEXPAD@Z ; CMonsterAttr::LoadAttr

; 2301 : 		gMSetBase.LoadSetBase(gDirPath.GetNewPath("MonsterSetBase.txt"));

  00098	68 00 00 00 00	 push	 OFFSET ??_C@_0BD@KDLMHCKD@MonsterSetBase?4txt@
  0009d	b9 00 00 00 00	 mov	 ecx, OFFSET ?gDirPath@@3VCDirPath@@A ; gDirPath
  000a2	e8 00 00 00 00	 call	 ?GetNewPath@CDirPath@@QAEPADPAD@Z ; CDirPath::GetNewPath
  000a7	50		 push	 eax
  000a8	b9 00 00 00 00	 mov	 ecx, OFFSET ?gMSetBase@@3VCMonsterSetBase@@A ; gMSetBase
  000ad	e8 00 00 00 00	 call	 ?LoadSetBase@CMonsterSetBase@@QAEXPAD@Z ; CMonsterSetBase::LoadSetBase

; 2302 : 	#endif
; 2303 : #endif
; 2304 : 
; 2305 : #ifdef ADD_EVENT_MAP_ILLUSION_TEMPLE_20070328	// NPC,   
; 2306 : 		g_IllusionTempleEvent.ResetPosNum();
; 2307 : #endif
; 2308 : 
; 2309 : 	//     
; 2310 : 	g_MonsterItemMng.Init();

  000b2	b9 00 00 00 00	 mov	 ecx, OFFSET ?g_MonsterItemMng@@3VCMonsterItemMng@@A ; g_MonsterItemMng
  000b7	e8 00 00 00 00	 call	 ?Init@CMonsterItemMng@@QAEXXZ ; CMonsterItemMng::Init

; 2311 : 	
; 2312 : 	gObjMonCount	= 0; 

  000bc	c7 05 00 00 00
	00 00 00 00 00	 mov	 DWORD PTR ?gObjMonCount@@3HA, 0 ; gObjMonCount

; 2313 : 	GameMonsterAllAdd();

  000c6	e8 00 00 00 00	 call	 ?GameMonsterAllAdd@@YAXXZ ; GameMonsterAllAdd

; 2314 : 
; 2315 : #ifdef MODIFY_SELUPAN_REGEN_MONSTER_RELOADING_BUGFIX_20090128
; 2316 : 	g_Raklion.SetState( RAKLION_STATE_END );
; 2317 : #endif // MODIFY_SELUPAN_REGEN_MONSTER_RELOADING_BUGFIX_20090128
; 2318 : }

  000cb	5f		 pop	 edi
  000cc	5e		 pop	 esi
  000cd	5b		 pop	 ebx
  000ce	8b e5		 mov	 esp, ebp
  000d0	5d		 pop	 ebp
  000d1	c3		 ret	 0
?GameMonsterAllCloseAndReLoad@@YAXXZ ENDP		; GameMonsterAllCloseAndReLoad
_TEXT	ENDS
; Function compile flags: /Odtp /ZI
; File C:\Mu Online\Mu-GS-Webzen-MC-10093\GameServer\Gamemain.cpp
;	COMDAT ?GMEventChipClientMsgProc@@YAXIJ@Z
_TEXT	SEGMENT
tv67 = -68						; size = 4
_wParam$ = 8						; size = 4
_lParam$ = 12						; size = 4
?GMEventChipClientMsgProc@@YAXIJ@Z PROC			; GMEventChipClientMsgProc, COMDAT

; 2583 : {

  00000	55		 push	 ebp
  00001	8b ec		 mov	 ebp, esp
  00003	83 ec 44	 sub	 esp, 68			; 00000044H
  00006	53		 push	 ebx
  00007	56		 push	 esi
  00008	57		 push	 edi

; 2584 : 	switch( WSAGETSELECTEVENT( lParam ) )

  00009	8b 45 0c	 mov	 eax, DWORD PTR _lParam$[ebp]
  0000c	25 ff ff 00 00	 and	 eax, 65535		; 0000ffffH
  00011	0f b7 c8	 movzx	 ecx, ax
  00014	89 4d bc	 mov	 DWORD PTR tv67[ebp], ecx
  00017	83 7d bc 01	 cmp	 DWORD PTR tv67[ebp], 1
  0001b	74 0e		 je	 SHORT $LN4@GMEventChi
  0001d	83 7d bc 02	 cmp	 DWORD PTR tv67[ebp], 2
  00021	74 14		 je	 SHORT $LN5@GMEventChi
  00023	83 7d bc 20	 cmp	 DWORD PTR tv67[ebp], 32	; 00000020H
  00027	74 1a		 je	 SHORT $LN6@GMEventChi
  00029	eb 22		 jmp	 SHORT $LN1@GMEventChi
$LN4@GMEventChi:

; 2585 : 	{
; 2586 : 	case FD_READ :
; 2587 : 		wsEvenChipServerCli.DataRecv();

  0002b	b9 00 00 00 00	 mov	 ecx, OFFSET ?wsEvenChipServerCli@@3VwsJoinServerCli@@A ; wsEvenChipServerCli
  00030	e8 00 00 00 00	 call	 ?DataRecv@wsJoinServerCli@@QAEHXZ ; wsJoinServerCli::DataRecv

; 2588 : 		break;

  00035	eb 16		 jmp	 SHORT $LN1@GMEventChi
$LN5@GMEventChi:

; 2589 : 	case FD_WRITE :
; 2590 : 		wsEvenChipServerCli.FDWRITE_MsgDataSend();

  00037	b9 00 00 00 00	 mov	 ecx, OFFSET ?wsEvenChipServerCli@@3VwsJoinServerCli@@A ; wsEvenChipServerCli
  0003c	e8 00 00 00 00	 call	 ?FDWRITE_MsgDataSend@wsJoinServerCli@@QAEHXZ ; wsJoinServerCli::FDWRITE_MsgDataSend

; 2591 : 		break;

  00041	eb 0a		 jmp	 SHORT $LN1@GMEventChi
$LN6@GMEventChi:

; 2592 : 	case FD_CLOSE :
; 2593 : 		IsEventChipServerConnected = 0;		

  00043	c7 05 00 00 00
	00 00 00 00 00	 mov	 DWORD PTR ?IsEventChipServerConnected@@3HA, 0 ; IsEventChipServerConnected
$LN1@GMEventChi:

; 2594 : 		//SendMessage(ghWnd, WM_CLOSE, 0,0);
; 2595 : 		break;
; 2596 : 	}
; 2597 : }

  0004d	5f		 pop	 edi
  0004e	5e		 pop	 esi
  0004f	5b		 pop	 ebx
  00050	8b e5		 mov	 esp, ebp
  00052	5d		 pop	 ebp
  00053	c3		 ret	 0
?GMEventChipClientMsgProc@@YAXIJ@Z ENDP			; GMEventChipClientMsgProc
_TEXT	ENDS
; Function compile flags: /Odtp /ZI
; File C:\Mu Online\Mu-GS-Webzen-MC-10093\GameServer\Gamemain.cpp
;	COMDAT ?GMRankingClientMsgProc@@YAXIJ@Z
_TEXT	SEGMENT
tv67 = -68						; size = 4
_wParam$ = 8						; size = 4
_lParam$ = 12						; size = 4
?GMRankingClientMsgProc@@YAXIJ@Z PROC			; GMRankingClientMsgProc, COMDAT

; 2564 : {

  00000	55		 push	 ebp
  00001	8b ec		 mov	 ebp, esp
  00003	83 ec 44	 sub	 esp, 68			; 00000044H
  00006	53		 push	 ebx
  00007	56		 push	 esi
  00008	57		 push	 edi

; 2565 : 	switch( WSAGETSELECTEVENT( lParam ) )

  00009	8b 45 0c	 mov	 eax, DWORD PTR _lParam$[ebp]
  0000c	25 ff ff 00 00	 and	 eax, 65535		; 0000ffffH
  00011	0f b7 c8	 movzx	 ecx, ax
  00014	89 4d bc	 mov	 DWORD PTR tv67[ebp], ecx
  00017	83 7d bc 01	 cmp	 DWORD PTR tv67[ebp], 1
  0001b	74 0e		 je	 SHORT $LN4@GMRankingC
  0001d	83 7d bc 02	 cmp	 DWORD PTR tv67[ebp], 2
  00021	74 14		 je	 SHORT $LN5@GMRankingC
  00023	83 7d bc 20	 cmp	 DWORD PTR tv67[ebp], 32	; 00000020H
  00027	74 1a		 je	 SHORT $LN6@GMRankingC
  00029	eb 22		 jmp	 SHORT $LN1@GMRankingC
$LN4@GMRankingC:

; 2566 : 	{
; 2567 : 	case FD_READ :
; 2568 : 		wsRServerCli.DataRecv();

  0002b	b9 00 00 00 00	 mov	 ecx, OFFSET ?wsRServerCli@@3VwsJoinServerCli@@A ; wsRServerCli
  00030	e8 00 00 00 00	 call	 ?DataRecv@wsJoinServerCli@@QAEHXZ ; wsJoinServerCli::DataRecv

; 2569 : 		break;

  00035	eb 16		 jmp	 SHORT $LN1@GMRankingC
$LN5@GMRankingC:

; 2570 : 	case FD_WRITE :
; 2571 : 		wsRServerCli.FDWRITE_MsgDataSend();

  00037	b9 00 00 00 00	 mov	 ecx, OFFSET ?wsRServerCli@@3VwsJoinServerCli@@A ; wsRServerCli
  0003c	e8 00 00 00 00	 call	 ?FDWRITE_MsgDataSend@wsJoinServerCli@@QAEHXZ ; wsJoinServerCli::FDWRITE_MsgDataSend

; 2572 : 		break;

  00041	eb 0a		 jmp	 SHORT $LN1@GMRankingC
$LN6@GMRankingC:

; 2573 : 	case FD_CLOSE :
; 2574 : 		IsDevilSquareEventConnected = 0;		

  00043	c7 05 00 00 00
	00 00 00 00 00	 mov	 DWORD PTR ?IsDevilSquareEventConnected@@3HA, 0 ; IsDevilSquareEventConnected
$LN1@GMRankingC:

; 2575 : 		//SendMessage(ghWnd, WM_CLOSE, 0,0);
; 2576 : 		break;
; 2577 : 	}
; 2578 : }

  0004d	5f		 pop	 edi
  0004e	5e		 pop	 esi
  0004f	5b		 pop	 ebx
  00050	8b e5		 mov	 esp, ebp
  00052	5d		 pop	 ebp
  00053	c3		 ret	 0
?GMRankingClientMsgProc@@YAXIJ@Z ENDP			; GMRankingClientMsgProc
_TEXT	ENDS
; Function compile flags: /Odtp /ZI
; File C:\Mu Online\Mu-GS-Webzen-MC-10093\GameServer\Gamemain.cpp
;	COMDAT ?ExDataClientMsgProc@@YAXIJ@Z
_TEXT	SEGMENT
tv67 = -92						; size = 4
_pMsg$1 = -24						; size = 14
_n$2 = -8						; size = 4
__$ArrayPad$ = -4					; size = 4
_wParam$ = 8						; size = 4
_lParam$ = 12						; size = 4
?ExDataClientMsgProc@@YAXIJ@Z PROC			; ExDataClientMsgProc, COMDAT

; 2625 : {

  00000	55		 push	 ebp
  00001	8b ec		 mov	 ebp, esp
  00003	83 ec 5c	 sub	 esp, 92			; 0000005cH
  00006	a1 00 00 00 00	 mov	 eax, DWORD PTR ___security_cookie
  0000b	33 c5		 xor	 eax, ebp
  0000d	89 45 fc	 mov	 DWORD PTR __$ArrayPad$[ebp], eax
  00010	53		 push	 ebx
  00011	56		 push	 esi
  00012	57		 push	 edi

; 2626 : 	switch( WSAGETSELECTEVENT( lParam ) )

  00013	8b 45 0c	 mov	 eax, DWORD PTR _lParam$[ebp]
  00016	25 ff ff 00 00	 and	 eax, 65535		; 0000ffffH
  0001b	0f b7 c8	 movzx	 ecx, ax
  0001e	89 4d a4	 mov	 DWORD PTR tv67[ebp], ecx
  00021	83 7d a4 01	 cmp	 DWORD PTR tv67[ebp], 1
  00025	74 11		 je	 SHORT $LN7@ExDataClie
  00027	83 7d a4 02	 cmp	 DWORD PTR tv67[ebp], 2
  0002b	74 1a		 je	 SHORT $LN8@ExDataClie
  0002d	83 7d a4 20	 cmp	 DWORD PTR tv67[ebp], 32	; 00000020H
  00031	74 23		 je	 SHORT $LN9@ExDataClie
  00033	e9 ce 00 00 00	 jmp	 $LN1@ExDataClie
$LN7@ExDataClie:

; 2627 : 	{
; 2628 : 	case FD_READ :
; 2629 : 		wsExDbCli.DataRecv();

  00038	b9 00 00 00 00	 mov	 ecx, OFFSET ?wsExDbCli@@3VwsJoinServerCli@@A ; wsExDbCli
  0003d	e8 00 00 00 00	 call	 ?DataRecv@wsJoinServerCli@@QAEHXZ ; wsJoinServerCli::DataRecv

; 2630 : 		break;

  00042	e9 bf 00 00 00	 jmp	 $LN1@ExDataClie
$LN8@ExDataClie:

; 2631 : 	case FD_WRITE :
; 2632 : 		wsExDbCli.FDWRITE_MsgDataSend();

  00047	b9 00 00 00 00	 mov	 ecx, OFFSET ?wsExDbCli@@3VwsJoinServerCli@@A ; wsExDbCli
  0004c	e8 00 00 00 00	 call	 ?FDWRITE_MsgDataSend@wsJoinServerCli@@QAEHXZ ; wsJoinServerCli::FDWRITE_MsgDataSend

; 2633 : 		break;

  00051	e9 b0 00 00 00	 jmp	 $LN1@ExDataClie
$LN9@ExDataClie:

; 2634 : 	case FD_CLOSE :
; 2635 : 		LogAddC(LOGC_RED,lMsg.Get(406));

  00056	68 96 01 00 00	 push	 406			; 00000196H
  0005b	b9 00 00 00 00	 mov	 ecx, OFFSET ?lMsg@@3VCMsg@@A ; lMsg
  00060	ff 15 00 00 00
	00		 call	 DWORD PTR __imp_?Get@CMsg@@QAEPADH@Z
  00066	50		 push	 eax
  00067	6a 02		 push	 2
  00069	ff 15 00 00 00
	00		 call	 DWORD PTR ?LogAddC@@3P6AXEPADZZA ; LogAddC
  0006f	83 c4 08	 add	 esp, 8

; 2636 : 		wsExDbCli.Close();

  00072	b9 04 00 00 00	 mov	 ecx, OFFSET ?wsExDbCli@@3VwsJoinServerCli@@A+4
  00077	e8 00 00 00 00	 call	 ?Close@MyWinsockBase@@QAEHXZ ; MyWinsockBase::Close

; 2637 : 
; 2638 : #ifdef __FRIEND_WORK__
; 2639 : 		// DxDB ..     .
; 2640 : 		for( int n=0; n<MAX_OBJECT; n++)

  0007c	c7 45 f8 00 00
	00 00		 mov	 DWORD PTR _n$2[ebp], 0
  00083	eb 09		 jmp	 SHORT $LN6@ExDataClie
$LN4@ExDataClie:
  00085	8b 45 f8	 mov	 eax, DWORD PTR _n$2[ebp]
  00088	83 c0 01	 add	 eax, 1
  0008b	89 45 f8	 mov	 DWORD PTR _n$2[ebp], eax
$LN6@ExDataClie:
  0008e	81 7d f8 e8 1c
	00 00		 cmp	 DWORD PTR _n$2[ebp], 7400 ; 00001ce8H
  00095	7d 51		 jge	 SHORT $LN5@ExDataClie

; 2641 : 		{
; 2642 : 			if( gObjIsConnectedGP(n)==TRUE)

  00097	8b 45 f8	 mov	 eax, DWORD PTR _n$2[ebp]
  0009a	50		 push	 eax
  0009b	e8 00 00 00 00	 call	 ?gObjIsConnectedGP@@YAHH@Z ; gObjIsConnectedGP
  000a0	83 c4 04	 add	 esp, 4
  000a3	83 f8 01	 cmp	 eax, 1
  000a6	75 3e		 jne	 SHORT $LN10@ExDataClie

; 2643 : 			{
; 2644 : 				PMSG_FRIEND_STATE pMsg;
; 2645 : 				
; 2646 : 				pMsg.h.set((LPBYTE)&pMsg, 0xC4, sizeof(pMsg));

  000a8	6a 0e		 push	 14			; 0000000eH
  000aa	68 c4 00 00 00	 push	 196			; 000000c4H
  000af	8d 45 e8	 lea	 eax, DWORD PTR _pMsg$1[ebp]
  000b2	50		 push	 eax
  000b3	8d 4d e8	 lea	 ecx, DWORD PTR _pMsg$1[ebp]
  000b6	e8 00 00 00 00	 call	 ?set@PBMSG_HEAD@@QAEXPAEEE@Z ; PBMSG_HEAD::set

; 2647 : 				pMsg.State = 252;

  000bb	c6 45 f5 fc	 mov	 BYTE PTR _pMsg$1[ebp+13], 252 ; 000000fcH

; 2648 : 				
; 2649 : 				DataSend(n, (LPBYTE)&pMsg, sizeof(pMsg));

  000bf	6a 0e		 push	 14			; 0000000eH
  000c1	8d 45 e8	 lea	 eax, DWORD PTR _pMsg$1[ebp]
  000c4	50		 push	 eax
  000c5	8b 4d f8	 mov	 ecx, DWORD PTR _n$2[ebp]
  000c8	51		 push	 ecx
  000c9	e8 00 00 00 00	 call	 ?DataSend@@YAHHPAEK@Z	; DataSend
  000ce	83 c4 0c	 add	 esp, 12			; 0000000cH

; 2650 : 
; 2651 : 				gObj[n].m_FriendServerOnline = FRIENDSERVER_OFFLINE;

  000d1	69 45 f8 a0 1b
	00 00		 imul	 eax, DWORD PTR _n$2[ebp], 7072
  000d8	8b 0d 00 00 00
	00		 mov	 ecx, DWORD PTR ?gObj@@3PAVOBJECTSTRUCT@@A ; gObj
  000de	c6 84 01 cc 01
	00 00 01	 mov	 BYTE PTR [ecx+eax+460], 1
$LN10@ExDataClie:

; 2652 : 			}
; 2653 : 		}

  000e6	eb 9d		 jmp	 SHORT $LN4@ExDataClie
$LN5@ExDataClie:

; 2654 : 		LogAddTD("Error-L1 : Friend Server Down (State Send Ok)");

  000e8	68 00 00 00 00	 push	 OFFSET ??_C@_0CO@DFBFHLJO@Error?9L1?5?3?5Friend?5Server?5Down?5?$CI@
  000ed	ff 15 00 00 00
	00		 call	 DWORD PTR ?LogAddTD@@3P6AXPADZZA ; LogAddTD
  000f3	83 c4 04	 add	 esp, 4

; 2655 : 		LogAddC(LOGC_RED, "Error-L1 : Friend Server Down (State Send Ok)");

  000f6	68 00 00 00 00	 push	 OFFSET ??_C@_0CO@DFBFHLJO@Error?9L1?5?3?5Friend?5Server?5Down?5?$CI@
  000fb	6a 02		 push	 2
  000fd	ff 15 00 00 00
	00		 call	 DWORD PTR ?LogAddC@@3P6AXEPADZZA ; LogAddC
  00103	83 c4 08	 add	 esp, 8
$LN1@ExDataClie:

; 2656 : #endif
; 2657 : 		break;
; 2658 : 	}
; 2659 : }

  00106	5f		 pop	 edi
  00107	5e		 pop	 esi
  00108	5b		 pop	 ebx
  00109	8b 4d fc	 mov	 ecx, DWORD PTR __$ArrayPad$[ebp]
  0010c	33 cd		 xor	 ecx, ebp
  0010e	e8 00 00 00 00	 call	 @__security_check_cookie@4
  00113	8b e5		 mov	 esp, ebp
  00115	5d		 pop	 ebp
  00116	c3		 ret	 0
?ExDataClientMsgProc@@YAXIJ@Z ENDP			; ExDataClientMsgProc
_TEXT	ENDS
; Function compile flags: /Odtp /ZI
; File C:\Mu Online\Mu-GS-Webzen-MC-10093\GameServer\Gamemain.cpp
;	COMDAT ?ExDataServerConnect@@YAHPADK@Z
_TEXT	SEGMENT
_result$ = -4						; size = 4
_ConnectServer$ = 8					; size = 4
_wMsg$ = 12						; size = 4
?ExDataServerConnect@@YAHPADK@Z PROC			; ExDataServerConnect, COMDAT

; 2412 : {

  00000	55		 push	 ebp
  00001	8b ec		 mov	 ebp, esp
  00003	83 ec 44	 sub	 esp, 68			; 00000044H
  00006	53		 push	 ebx
  00007	56		 push	 esi
  00008	57		 push	 edi

; 2413 : 	BOOL result;
; 2414 : 	wsExDbCli.SetProtocolCore(ExDataServerProtocolCore);

  00009	68 00 00 00 00	 push	 OFFSET ?ExDataServerProtocolCore@@YAXEPAEH@Z ; ExDataServerProtocolCore
  0000e	b9 00 00 00 00	 mov	 ecx, OFFSET ?wsExDbCli@@3VwsJoinServerCli@@A ; wsExDbCli
  00013	e8 00 00 00 00	 call	 ?SetProtocolCore@wsJoinServerCli@@QAEHP6AXEPAEH@Z@Z ; wsJoinServerCli::SetProtocolCore

; 2415 : #ifdef ADD_GAMESERVER_PARAMETER_20050728
; 2416 : 	result = wsExDbCli.Connect(ConnectServer, ExDbPort, wMsg);

  00018	8b 45 0c	 mov	 eax, DWORD PTR _wMsg$[ebp]
  0001b	50		 push	 eax
  0001c	0f b7 0d 00 00
	00 00		 movzx	 ecx, WORD PTR ?ExDbPort@@3HA
  00023	51		 push	 ecx
  00024	8b 55 08	 mov	 edx, DWORD PTR _ConnectServer$[ebp]
  00027	52		 push	 edx
  00028	b9 00 00 00 00	 mov	 ecx, OFFSET ?wsExDbCli@@3VwsJoinServerCli@@A ; wsExDbCli
  0002d	e8 00 00 00 00	 call	 ?Connect@wsJoinServerCli@@QAEHPADGK@Z ; wsJoinServerCli::Connect
  00032	89 45 fc	 mov	 DWORD PTR _result$[ebp], eax

; 2417 : #else
; 2418 : 	result = wsExDbCli.Connect(ConnectServer, 55906, wMsg);
; 2419 : #endif
; 2420 : 	if( result == FALSE ) 

  00035	83 7d fc 00	 cmp	 DWORD PTR _result$[ebp], 0
  00039	75 28		 jne	 SHORT $LN2@ExDataServ

; 2421 : 	{
; 2422 : #ifdef ADD_GAMESERVER_PARAMETER_20050728
; 2423 : 		LogAdd(lMsg.Get(403), ConnectServer, ExDbPort);

  0003b	a1 00 00 00 00	 mov	 eax, DWORD PTR ?ExDbPort@@3HA ; ExDbPort
  00040	50		 push	 eax
  00041	8b 4d 08	 mov	 ecx, DWORD PTR _ConnectServer$[ebp]
  00044	51		 push	 ecx
  00045	68 93 01 00 00	 push	 403			; 00000193H
  0004a	b9 00 00 00 00	 mov	 ecx, OFFSET ?lMsg@@3VCMsg@@A ; lMsg
  0004f	ff 15 00 00 00
	00		 call	 DWORD PTR __imp_?Get@CMsg@@QAEPADH@Z
  00055	50		 push	 eax
  00056	ff 15 00 00 00
	00		 call	 DWORD PTR ?LogAdd@@3P6AXPADZZA ; LogAdd
  0005c	83 c4 0c	 add	 esp, 12			; 0000000cH

; 2424 : #else
; 2425 : 		LogAdd(lMsg.Get(403), ConnectServer, 55906);
; 2426 : #endif
; 2427 : 		return FALSE;

  0005f	33 c0		 xor	 eax, eax
  00061	eb 1a		 jmp	 SHORT $LN1@ExDataServ
$LN2@ExDataServ:

; 2428 : 	}
; 2429 : 	
; 2430 : 	ExDataServerLogin();

  00063	e8 00 00 00 00	 call	 ?ExDataServerLogin@@YAXXZ ; ExDataServerLogin

; 2431 : 
; 2432 : 	LogAddC(LOGC_RED, "ExDB Server Online");

  00068	68 00 00 00 00	 push	 OFFSET ??_C@_0BD@MBDGLECM@ExDB?5Server?5Online@
  0006d	6a 02		 push	 2
  0006f	ff 15 00 00 00
	00		 call	 DWORD PTR ?LogAddC@@3P6AXEPADZZA ; LogAddC
  00075	83 c4 08	 add	 esp, 8

; 2433 : 	//LogAdd(lMsg.Get(402), ConnectServer, DataServerPort);
; 2434 : 	return TRUE;

  00078	b8 01 00 00 00	 mov	 eax, 1
$LN1@ExDataServ:

; 2435 : }

  0007d	5f		 pop	 edi
  0007e	5e		 pop	 esi
  0007f	5b		 pop	 ebx
  00080	8b e5		 mov	 esp, ebp
  00082	5d		 pop	 ebp
  00083	c3		 ret	 0
?ExDataServerConnect@@YAHPADK@Z ENDP			; ExDataServerConnect
_TEXT	ENDS
; Function compile flags: /Odtp /ZI
; File C:\Mu Online\Mu-GS-Webzen-MC-10093\GameServer\Gamemain.cpp
;	COMDAT ?GMJoinClientMsgProc@@YAXIJ@Z
_TEXT	SEGMENT
tv67 = -68						; size = 4
_wParam$ = 8						; size = 4
_lParam$ = 12						; size = 4
?GMJoinClientMsgProc@@YAXIJ@Z PROC			; GMJoinClientMsgProc, COMDAT

; 2542 : {

  00000	55		 push	 ebp
  00001	8b ec		 mov	 ebp, esp
  00003	83 ec 44	 sub	 esp, 68			; 00000044H
  00006	53		 push	 ebx
  00007	56		 push	 esi
  00008	57		 push	 edi

; 2543 : 	switch( WSAGETSELECTEVENT( lParam ) )

  00009	8b 45 0c	 mov	 eax, DWORD PTR _lParam$[ebp]
  0000c	25 ff ff 00 00	 and	 eax, 65535		; 0000ffffH
  00011	0f b7 c8	 movzx	 ecx, ax
  00014	89 4d bc	 mov	 DWORD PTR tv67[ebp], ecx
  00017	83 7d bc 01	 cmp	 DWORD PTR tv67[ebp], 1
  0001b	74 0e		 je	 SHORT $LN4@GMJoinClie
  0001d	83 7d bc 02	 cmp	 DWORD PTR tv67[ebp], 2
  00021	74 14		 je	 SHORT $LN5@GMJoinClie
  00023	83 7d bc 20	 cmp	 DWORD PTR tv67[ebp], 32	; 00000020H
  00027	74 1a		 je	 SHORT $LN6@GMJoinClie
  00029	eb 46		 jmp	 SHORT $LN1@GMJoinClie
$LN4@GMJoinClie:

; 2544 : 	{
; 2545 : 	case FD_READ :
; 2546 : 		wsJServerCli.DataRecv();

  0002b	b9 00 00 00 00	 mov	 ecx, OFFSET ?wsJServerCli@@3VwsJoinServerCli@@A ; wsJServerCli
  00030	e8 00 00 00 00	 call	 ?DataRecv@wsJoinServerCli@@QAEHXZ ; wsJoinServerCli::DataRecv

; 2547 : 		break;

  00035	eb 3a		 jmp	 SHORT $LN1@GMJoinClie
$LN5@GMJoinClie:

; 2548 : 	case FD_WRITE :
; 2549 : 		wsJServerCli.FDWRITE_MsgDataSend();

  00037	b9 00 00 00 00	 mov	 ecx, OFFSET ?wsJServerCli@@3VwsJoinServerCli@@A ; wsJServerCli
  0003c	e8 00 00 00 00	 call	 ?FDWRITE_MsgDataSend@wsJoinServerCli@@QAEHXZ ; wsJoinServerCli::FDWRITE_MsgDataSend

; 2550 : 		break;

  00041	eb 2e		 jmp	 SHORT $LN1@GMJoinClie
$LN6@GMJoinClie:

; 2551 : 	case FD_CLOSE :
; 2552 : 		LogAddC(LOGC_RED, lMsg.Get(405));

  00043	68 95 01 00 00	 push	 405			; 00000195H
  00048	b9 00 00 00 00	 mov	 ecx, OFFSET ?lMsg@@3VCMsg@@A ; lMsg
  0004d	ff 15 00 00 00
	00		 call	 DWORD PTR __imp_?Get@CMsg@@QAEPADH@Z
  00053	50		 push	 eax
  00054	6a 02		 push	 2
  00056	ff 15 00 00 00
	00		 call	 DWORD PTR ?LogAddC@@3P6AXEPADZZA ; LogAddC
  0005c	83 c4 08	 add	 esp, 8

; 2553 : #ifdef MODIFY_AUTHSERVER_CLOSE_20041207
; 2554 : 		gbAuthServerClosed	= TRUE;
; 2555 : #endif
; 2556 : 		SendMessage(ghWnd, WM_CLOSE, 0,0);		

  0005f	6a 00		 push	 0
  00061	6a 00		 push	 0
  00063	6a 10		 push	 16			; 00000010H
  00065	a1 00 00 00 00	 mov	 eax, DWORD PTR ?ghWnd@@3PAUHWND__@@A ; ghWnd
  0006a	50		 push	 eax
  0006b	ff 15 00 00 00
	00		 call	 DWORD PTR __imp__SendMessageA@16
$LN1@GMJoinClie:

; 2557 : 		break;
; 2558 : 	}
; 2559 : }

  00071	5f		 pop	 edi
  00072	5e		 pop	 esi
  00073	5b		 pop	 ebx
  00074	8b e5		 mov	 esp, ebp
  00076	5d		 pop	 ebp
  00077	c3		 ret	 0
?GMJoinClientMsgProc@@YAXIJ@Z ENDP			; GMJoinClientMsgProc
_TEXT	ENDS
; Function compile flags: /Odtp /ZI
; File C:\Mu Online\Mu-GS-Webzen-MC-10093\GameServer\Gamemain.cpp
;	COMDAT ?GMDataClientMsgProc@@YAXIJ@Z
_TEXT	SEGMENT
tv67 = -68						; size = 4
_wParam$ = 8						; size = 4
_lParam$ = 12						; size = 4
?GMDataClientMsgProc@@YAXIJ@Z PROC			; GMDataClientMsgProc, COMDAT

; 2666 : {

  00000	55		 push	 ebp
  00001	8b ec		 mov	 ebp, esp
  00003	83 ec 44	 sub	 esp, 68			; 00000044H
  00006	53		 push	 ebx
  00007	56		 push	 esi
  00008	57		 push	 edi

; 2667 : 	switch( WSAGETSELECTEVENT( lParam ) )

  00009	8b 45 0c	 mov	 eax, DWORD PTR _lParam$[ebp]
  0000c	25 ff ff 00 00	 and	 eax, 65535		; 0000ffffH
  00011	0f b7 c8	 movzx	 ecx, ax
  00014	89 4d bc	 mov	 DWORD PTR tv67[ebp], ecx
  00017	83 7d bc 01	 cmp	 DWORD PTR tv67[ebp], 1
  0001b	74 0e		 je	 SHORT $LN4@GMDataClie
  0001d	83 7d bc 02	 cmp	 DWORD PTR tv67[ebp], 2
  00021	74 14		 je	 SHORT $LN5@GMDataClie
  00023	83 7d bc 20	 cmp	 DWORD PTR tv67[ebp], 32	; 00000020H
  00027	74 1a		 je	 SHORT $LN6@GMDataClie
  00029	eb 34		 jmp	 SHORT $LN1@GMDataClie
$LN4@GMDataClie:

; 2668 : 	{
; 2669 : 	case FD_READ :
; 2670 : 		wsDataCli.DataRecv();

  0002b	b9 00 00 00 00	 mov	 ecx, OFFSET ?wsDataCli@@3VwsJoinServerCli@@A ; wsDataCli
  00030	e8 00 00 00 00	 call	 ?DataRecv@wsJoinServerCli@@QAEHXZ ; wsJoinServerCli::DataRecv

; 2671 : 		break;

  00035	eb 28		 jmp	 SHORT $LN1@GMDataClie
$LN5@GMDataClie:

; 2672 : 	case FD_WRITE :
; 2673 : 		wsDataCli.FDWRITE_MsgDataSend();

  00037	b9 00 00 00 00	 mov	 ecx, OFFSET ?wsDataCli@@3VwsJoinServerCli@@A ; wsDataCli
  0003c	e8 00 00 00 00	 call	 ?FDWRITE_MsgDataSend@wsJoinServerCli@@QAEHXZ ; wsJoinServerCli::FDWRITE_MsgDataSend

; 2674 : 		break;

  00041	eb 1c		 jmp	 SHORT $LN1@GMDataClie
$LN6@GMDataClie:

; 2675 : 	case FD_CLOSE :
; 2676 : 		LogAddC(LOGC_RED,lMsg.Get(406));

  00043	68 96 01 00 00	 push	 406			; 00000196H
  00048	b9 00 00 00 00	 mov	 ecx, OFFSET ?lMsg@@3VCMsg@@A ; lMsg
  0004d	ff 15 00 00 00
	00		 call	 DWORD PTR __imp_?Get@CMsg@@QAEPADH@Z
  00053	50		 push	 eax
  00054	6a 02		 push	 2
  00056	ff 15 00 00 00
	00		 call	 DWORD PTR ?LogAddC@@3P6AXEPADZZA ; LogAddC
  0005c	83 c4 08	 add	 esp, 8
$LN1@GMDataClie:

; 2677 : 		//SendMessage(ghWnd, WM_CLOSE, 0,0);
; 2678 : 		break;
; 2679 : 	}
; 2680 : }

  0005f	5f		 pop	 edi
  00060	5e		 pop	 esi
  00061	5b		 pop	 ebx
  00062	8b e5		 mov	 esp, ebp
  00064	5d		 pop	 ebp
  00065	c3		 ret	 0
?GMDataClientMsgProc@@YAXIJ@Z ENDP			; GMDataClientMsgProc
_TEXT	ENDS
; Function compile flags: /Odtp /ZI
; File C:\Mu Online\Mu-GS-Webzen-MC-10093\GameServer\Gamemain.cpp
;	COMDAT ?GMClientMsgProc@@YAXIJ@Z
_TEXT	SEGMENT
tv67 = -80						; size = 4
_index$1 = -12						; size = 4
_lp$ = -8						; size = 4
_wp$ = -4						; size = 4
_wParam$ = 8						; size = 4
_lParam$ = 12						; size = 4
?GMClientMsgProc@@YAXIJ@Z PROC				; GMClientMsgProc, COMDAT

; 2512 : {	

  00000	55		 push	 ebp
  00001	8b ec		 mov	 ebp, esp
  00003	83 ec 50	 sub	 esp, 80			; 00000050H
  00006	53		 push	 ebx
  00007	56		 push	 esi
  00008	57		 push	 edi

; 2513 : 	WPARAM wp=wParam;

  00009	8b 45 08	 mov	 eax, DWORD PTR _wParam$[ebp]
  0000c	89 45 fc	 mov	 DWORD PTR _wp$[ebp], eax

; 2514 : 	LPARAM lp=lParam;

  0000f	8b 45 0c	 mov	 eax, DWORD PTR _lParam$[ebp]
  00012	89 45 f8	 mov	 DWORD PTR _lp$[ebp], eax

; 2515 : 
; 2516 : 	switch( WSAGETSELECTEVENT( lParam ) )

  00015	8b 45 0c	 mov	 eax, DWORD PTR _lParam$[ebp]
  00018	25 ff ff 00 00	 and	 eax, 65535		; 0000ffffH
  0001d	0f b7 c8	 movzx	 ecx, ax
  00020	89 4d b0	 mov	 DWORD PTR tv67[ebp], ecx
  00023	83 7d b0 01	 cmp	 DWORD PTR tv67[ebp], 1
  00027	74 0e		 je	 SHORT $LN4@GMClientMs
  00029	83 7d b0 02	 cmp	 DWORD PTR tv67[ebp], 2
  0002d	74 18		 je	 SHORT $LN5@GMClientMs
  0002f	83 7d b0 20	 cmp	 DWORD PTR tv67[ebp], 32	; 00000020H
  00033	74 22		 je	 SHORT $LN6@GMClientMs
  00035	eb 2f		 jmp	 SHORT $LN1@GMClientMs
$LN4@GMClientMs:

; 2517 : 	{
; 2518 : 	case FD_READ :
; 2519 : 		wsGServer.DataRecv(wParam);

  00037	8b 45 08	 mov	 eax, DWORD PTR _wParam$[ebp]
  0003a	50		 push	 eax
  0003b	b9 00 00 00 00	 mov	 ecx, OFFSET ?wsGServer@@3VCwsGameServer@@A ; wsGServer
  00040	e8 00 00 00 00	 call	 ?DataRecv@CwsGameServer@@QAEHI@Z ; CwsGameServer::DataRecv

; 2520 : 		break;

  00045	eb 1f		 jmp	 SHORT $LN1@GMClientMs
$LN5@GMClientMs:

; 2521 : 	case FD_WRITE :
; 2522 : 		wsGServer.FDWRITE_MsgDataSend((SOCKET)wParam);

  00047	8b 45 08	 mov	 eax, DWORD PTR _wParam$[ebp]
  0004a	50		 push	 eax
  0004b	b9 00 00 00 00	 mov	 ecx, OFFSET ?wsGServer@@3VCwsGameServer@@A ; wsGServer
  00050	e8 00 00 00 00	 call	 ?FDWRITE_MsgDataSend@CwsGameServer@@QAEHI@Z ; CwsGameServer::FDWRITE_MsgDataSend

; 2523 : 		break;

  00055	eb 0f		 jmp	 SHORT $LN1@GMClientMs
$LN6@GMClientMs:

; 2524 : 	case FD_CLOSE :
; 2525 : 		{
; 2526 : 			//int index = wsGServer.GetSocketIndex((SOCKET)wParam);
; 2527 : 			int index = gObjGetSocket( wParam );

  00057	8b 45 08	 mov	 eax, DWORD PTR _wParam$[ebp]
  0005a	50		 push	 eax
  0005b	e8 00 00 00 00	 call	 ?gObjGetSocket@@YAHI@Z	; gObjGetSocket
  00060	83 c4 04	 add	 esp, 4
  00063	89 45 f4	 mov	 DWORD PTR _index$1[ebp], eax
$LN1@GMClientMs:

; 2528 : 			if( index >= 0 ) 
; 2529 : 			{
; 2530 : 				//wsGServer.Close(gObj[index].m_socket);
; 2531 : 				//gObjDel((short)index);
; 2532 : 				//CloseClient ( index );
; 2533 : 			}
; 2534 : 		}
; 2535 : 		break;
; 2536 : 	}
; 2537 : }

  00066	5f		 pop	 edi
  00067	5e		 pop	 esi
  00068	5b		 pop	 ebx
  00069	8b e5		 mov	 esp, ebp
  0006b	5d		 pop	 ebp
  0006c	c3		 ret	 0
?GMClientMsgProc@@YAXIJ@Z ENDP				; GMClientMsgProc
_TEXT	ENDS
; Function compile flags: /Odtp /ZI
; File C:\Mu Online\Mu-GS-Webzen-MC-10093\GameServer\Gamemain.cpp
;	COMDAT ?GMServerMsgProc@@YAXIJ@Z
_TEXT	SEGMENT
tv67 = -68						; size = 4
_wParam$ = 8						; size = 4
_lParam$ = 12						; size = 4
?GMServerMsgProc@@YAXIJ@Z PROC				; GMServerMsgProc, COMDAT

; 2481 : {

  00000	55		 push	 ebp
  00001	8b ec		 mov	 ebp, esp
  00003	83 ec 44	 sub	 esp, 68			; 00000044H
  00006	53		 push	 ebx
  00007	56		 push	 esi
  00008	57		 push	 edi

; 2482 : //	SOCKET cSocket;
; 2483 : //	IN_ADDR cInAddr;
; 2484 : 
; 2485 : 	switch( WSAGETSELECTEVENT( lParam ) )

  00009	8b 45 0c	 mov	 eax, DWORD PTR _lParam$[ebp]
  0000c	25 ff ff 00 00	 and	 eax, 65535		; 0000ffffH
  00011	0f b7 c8	 movzx	 ecx, ax
  00014	89 4d bc	 mov	 DWORD PTR tv67[ebp], ecx

; 2486 : 	{
; 2487 : 	case FD_ACCEPT :
; 2488 : 		/*//LogAdd("SFD_ACCEPT MESSAGE");
; 2489 : 		if( wsGServer.AcceptSocket(cSocket, cInAddr) == TRUE )
; 2490 : 		{
; 2491 : 			int addnumber = gObjAdd(cSocket, inet_ntoa(cInAddr));
; 2492 : 			if( addnumber >= 0 ) 
; 2493 : 			{
; 2494 : 				SCPJoinResultSend( addnumber, 0x01);
; 2495 : 			}
; 2496 : 			else 
; 2497 : 			{//   ..
; 2498 : 				wsGServer.Close(cSocket);
; 2499 : 			}
; 2500 : 		}
; 2501 : 		else {
; 2502 : 			return;
; 2503 : 		}
; 2504 : 		*/
; 2505 : 		break;
; 2506 : 	}
; 2507 : }

  00017	5f		 pop	 edi
  00018	5e		 pop	 esi
  00019	5b		 pop	 ebx
  0001a	8b e5		 mov	 esp, ebp
  0001c	5d		 pop	 ebp
  0001d	c3		 ret	 0
?GMServerMsgProc@@YAXIJ@Z ENDP				; GMServerMsgProc
_TEXT	ENDS
; Function compile flags: /Odtp /ZI
; File C:\Mu Online\Mu-GS-Webzen-MC-10093\GameServer\Gamemain.cpp
;	COMDAT ?GMEventChipServerConnect@@YAHPADK@Z
_TEXT	SEGMENT
_result$ = -4						; size = 4
_ServerIP$ = 8						; size = 4
_wMsg$ = 12						; size = 4
?GMEventChipServerConnect@@YAHPADK@Z PROC		; GMEventChipServerConnect, COMDAT

; 2374 : {

  00000	55		 push	 ebp
  00001	8b ec		 mov	 ebp, esp
  00003	83 ec 44	 sub	 esp, 68			; 00000044H
  00006	53		 push	 ebx
  00007	56		 push	 esi
  00008	57		 push	 edi

; 2375 : 	BOOL  result;
; 2376 : 	
; 2377 : 	wsEvenChipServerCli.SetProtocolCore( EventChipEventProtocolCore );

  00009	68 00 00 00 00	 push	 OFFSET ?EventChipEventProtocolCore@@YAXEPAEH@Z ; EventChipEventProtocolCore
  0000e	b9 00 00 00 00	 mov	 ecx, OFFSET ?wsEvenChipServerCli@@3VwsJoinServerCli@@A ; wsEvenChipServerCli
  00013	e8 00 00 00 00	 call	 ?SetProtocolCore@wsJoinServerCli@@QAEHP6AXEPAEH@Z@Z ; wsJoinServerCli::SetProtocolCore

; 2378 : 	result = wsEvenChipServerCli.Connect(ServerIP, 44456, wMsg);

  00018	8b 45 0c	 mov	 eax, DWORD PTR _wMsg$[ebp]
  0001b	50		 push	 eax
  0001c	68 a8 ad 00 00	 push	 44456			; 0000ada8H
  00021	8b 4d 08	 mov	 ecx, DWORD PTR _ServerIP$[ebp]
  00024	51		 push	 ecx
  00025	b9 00 00 00 00	 mov	 ecx, OFFSET ?wsEvenChipServerCli@@3VwsJoinServerCli@@A ; wsEvenChipServerCli
  0002a	e8 00 00 00 00	 call	 ?Connect@wsJoinServerCli@@QAEHPADGK@Z ; wsJoinServerCli::Connect
  0002f	89 45 fc	 mov	 DWORD PTR _result$[ebp], eax

; 2379 : 	
; 2380 : 	if( result == FALSE ) return FALSE;	

  00032	83 7d fc 00	 cmp	 DWORD PTR _result$[ebp], 0
  00036	75 04		 jne	 SHORT $LN2@GMEventChi
  00038	33 c0		 xor	 eax, eax
  0003a	eb 17		 jmp	 SHORT $LN1@GMEventChi
$LN2@GMEventChi:

; 2381 : 	
; 2382 : 	LogAdd("EventChip Connect IP [ %s ]", ServerIP);

  0003c	8b 45 08	 mov	 eax, DWORD PTR _ServerIP$[ebp]
  0003f	50		 push	 eax
  00040	68 00 00 00 00	 push	 OFFSET ??_C@_0BM@JEEOGNJB@EventChip?5Connect?5IP?5?$FL?5?$CFs?5?$FN@
  00045	ff 15 00 00 00
	00		 call	 DWORD PTR ?LogAdd@@3P6AXPADZZA ; LogAdd
  0004b	83 c4 08	 add	 esp, 8

; 2383 : 	return TRUE;

  0004e	b8 01 00 00 00	 mov	 eax, 1
$LN1@GMEventChi:

; 2384 : }

  00053	5f		 pop	 edi
  00054	5e		 pop	 esi
  00055	5b		 pop	 ebx
  00056	8b e5		 mov	 esp, ebp
  00058	5d		 pop	 ebp
  00059	c3		 ret	 0
?GMEventChipServerConnect@@YAHPADK@Z ENDP		; GMEventChipServerConnect
_TEXT	ENDS
; Function compile flags: /Odtp /ZI
; File C:\Mu Online\Mu-GS-Webzen-MC-10093\GameServer\Gamemain.cpp
;	COMDAT ?GMRankingServerConnect@@YAHPADK@Z
_TEXT	SEGMENT
_result$ = -4						; size = 4
_RankingServer$ = 8					; size = 4
_wMsg$ = 12						; size = 4
?GMRankingServerConnect@@YAHPADK@Z PROC			; GMRankingServerConnect, COMDAT

; 2360 : {

  00000	55		 push	 ebp
  00001	8b ec		 mov	 ebp, esp
  00003	83 ec 44	 sub	 esp, 68			; 00000044H
  00006	53		 push	 ebx
  00007	56		 push	 esi
  00008	57		 push	 edi

; 2361 : 	BOOL  result;
; 2362 : 	
; 2363 : 	wsRServerCli.SetProtocolCore( DevilSquareEventProtocolCore );

  00009	68 00 00 00 00	 push	 OFFSET ?DevilSquareEventProtocolCore@@YAXEPAEH@Z ; DevilSquareEventProtocolCore
  0000e	b9 00 00 00 00	 mov	 ecx, OFFSET ?wsRServerCli@@3VwsJoinServerCli@@A ; wsRServerCli
  00013	e8 00 00 00 00	 call	 ?SetProtocolCore@wsJoinServerCli@@QAEHP6AXEPAEH@Z@Z ; wsJoinServerCli::SetProtocolCore

; 2364 : 	result = wsRServerCli.Connect(RankingServer, 44455, wMsg);

  00018	8b 45 0c	 mov	 eax, DWORD PTR _wMsg$[ebp]
  0001b	50		 push	 eax
  0001c	68 a7 ad 00 00	 push	 44455			; 0000ada7H
  00021	8b 4d 08	 mov	 ecx, DWORD PTR _RankingServer$[ebp]
  00024	51		 push	 ecx
  00025	b9 00 00 00 00	 mov	 ecx, OFFSET ?wsRServerCli@@3VwsJoinServerCli@@A ; wsRServerCli
  0002a	e8 00 00 00 00	 call	 ?Connect@wsJoinServerCli@@QAEHPADGK@Z ; wsJoinServerCli::Connect
  0002f	89 45 fc	 mov	 DWORD PTR _result$[ebp], eax

; 2365 : 	//result = wsRServerCli.Connect(RankingServer, 60001, wMsg);
; 2366 : 	if( result == FALSE ) return FALSE;	

  00032	83 7d fc 00	 cmp	 DWORD PTR _result$[ebp], 0
  00036	75 04		 jne	 SHORT $LN2@GMRankingS
  00038	33 c0		 xor	 eax, eax
  0003a	eb 17		 jmp	 SHORT $LN1@GMRankingS
$LN2@GMRankingS:

; 2367 : 	
; 2368 : 	LogAdd("RankingServer Connect IP [ %s ]", RankingServer);

  0003c	8b 45 08	 mov	 eax, DWORD PTR _RankingServer$[ebp]
  0003f	50		 push	 eax
  00040	68 00 00 00 00	 push	 OFFSET ??_C@_0CA@GPEDJDDH@RankingServer?5Connect?5IP?5?$FL?5?$CFs?5?$FN@
  00045	ff 15 00 00 00
	00		 call	 DWORD PTR ?LogAdd@@3P6AXPADZZA ; LogAdd
  0004b	83 c4 08	 add	 esp, 8

; 2369 : 	return TRUE;

  0004e	b8 01 00 00 00	 mov	 eax, 1
$LN1@GMRankingS:

; 2370 : }

  00053	5f		 pop	 edi
  00054	5e		 pop	 esi
  00055	5b		 pop	 ebx
  00056	8b e5		 mov	 esp, ebp
  00058	5d		 pop	 ebp
  00059	c3		 ret	 0
?GMRankingServerConnect@@YAHPADK@Z ENDP			; GMRankingServerConnect
_TEXT	ENDS
; Function compile flags: /Odtp /ZI
; File C:\Mu Online\Mu-GS-Webzen-MC-10093\GameServer\Gamemain.cpp
;	COMDAT ?GMJoinServerConnect@@YAHPADK@Z
_TEXT	SEGMENT
_result$ = -4						; size = 4
_ConnectServer$ = 8					; size = 4
_wMsg$ = 12						; size = 4
?GMJoinServerConnect@@YAHPADK@Z PROC			; GMJoinServerConnect, COMDAT

; 2346 : {

  00000	55		 push	 ebp
  00001	8b ec		 mov	 ebp, esp
  00003	83 ec 44	 sub	 esp, 68			; 00000044H
  00006	53		 push	 ebx
  00007	56		 push	 esi
  00008	57		 push	 edi

; 2347 : 	BOOL  result;
; 2348 : 	
; 2349 : 	wsJServerCli.SetProtocolCore( SProtocolCore );

  00009	68 00 00 00 00	 push	 OFFSET ?SProtocolCore@@YAXEPAEH@Z ; SProtocolCore
  0000e	b9 00 00 00 00	 mov	 ecx, OFFSET ?wsJServerCli@@3VwsJoinServerCli@@A ; wsJServerCli
  00013	e8 00 00 00 00	 call	 ?SetProtocolCore@wsJoinServerCli@@QAEHP6AXEPAEH@Z@Z ; wsJoinServerCli::SetProtocolCore

; 2350 : 	result = wsJServerCli.Connect(ConnectServer, JoinServerPort, wMsg);

  00018	8b 45 0c	 mov	 eax, DWORD PTR _wMsg$[ebp]
  0001b	50		 push	 eax
  0001c	0f b7 0d 00 00
	00 00		 movzx	 ecx, WORD PTR ?JoinServerPort@@3HA
  00023	51		 push	 ecx
  00024	8b 55 08	 mov	 edx, DWORD PTR _ConnectServer$[ebp]
  00027	52		 push	 edx
  00028	b9 00 00 00 00	 mov	 ecx, OFFSET ?wsJServerCli@@3VwsJoinServerCli@@A ; wsJServerCli
  0002d	e8 00 00 00 00	 call	 ?Connect@wsJoinServerCli@@QAEHPADGK@Z ; wsJoinServerCli::Connect
  00032	89 45 fc	 mov	 DWORD PTR _result$[ebp], eax

; 2351 : 	if( result == FALSE ) return FALSE;

  00035	83 7d fc 00	 cmp	 DWORD PTR _result$[ebp], 0
  00039	75 04		 jne	 SHORT $LN2@GMJoinServ
  0003b	33 c0		 xor	 eax, eax
  0003d	eb 28		 jmp	 SHORT $LN1@GMJoinServ
$LN2@GMJoinServ:

; 2352 : 	
; 2353 : 	GJServerLogin(); //    .

  0003f	e8 00 00 00 00	 call	 ?GJServerLogin@@YAXXZ	; GJServerLogin

; 2354 : 	LogAdd(lMsg.Get(401), ConnectServer);

  00044	8b 45 08	 mov	 eax, DWORD PTR _ConnectServer$[ebp]
  00047	50		 push	 eax
  00048	68 91 01 00 00	 push	 401			; 00000191H
  0004d	b9 00 00 00 00	 mov	 ecx, OFFSET ?lMsg@@3VCMsg@@A ; lMsg
  00052	ff 15 00 00 00
	00		 call	 DWORD PTR __imp_?Get@CMsg@@QAEPADH@Z
  00058	50		 push	 eax
  00059	ff 15 00 00 00
	00		 call	 DWORD PTR ?LogAdd@@3P6AXPADZZA ; LogAdd
  0005f	83 c4 08	 add	 esp, 8

; 2355 : 	return TRUE;

  00062	b8 01 00 00 00	 mov	 eax, 1
$LN1@GMJoinServ:

; 2356 : }

  00067	5f		 pop	 edi
  00068	5e		 pop	 esi
  00069	5b		 pop	 ebx
  0006a	8b e5		 mov	 esp, ebp
  0006c	5d		 pop	 ebp
  0006d	c3		 ret	 0
?GMJoinServerConnect@@YAHPADK@Z ENDP			; GMJoinServerConnect
_TEXT	ENDS
; Function compile flags: /Odtp /ZI
; File C:\Mu Online\Mu-GS-Webzen-MC-10093\GameServer\Gamemain.cpp
;	COMDAT ?GameMainServerCreate@@YAHKK@Z
_TEXT	SEGMENT
_sMsg$ = 8						; size = 4
_cMsg$ = 12						; size = 4
?GameMainServerCreate@@YAHKK@Z PROC			; GameMainServerCreate, COMDAT

; 2472 : {	

  00000	55		 push	 ebp
  00001	8b ec		 mov	 ebp, esp
  00003	83 ec 40	 sub	 esp, 64			; 00000040H
  00006	53		 push	 ebx
  00007	56		 push	 esi
  00008	57		 push	 edi

; 2473 : 	gDbSave.Begin();

  00009	b9 00 00 00 00	 mov	 ecx, OFFSET ?gDbSave@@3VCDbSave@@A ; gDbSave
  0000e	e8 00 00 00 00	 call	 ?Begin@CDbSave@@QAEHXZ	; CDbSave::Begin

; 2474 : 	LogAdd(lMsg.Get(404),GameServerPort);

  00013	a1 00 00 00 00	 mov	 eax, DWORD PTR ?GameServerPort@@3HA ; GameServerPort
  00018	50		 push	 eax
  00019	68 94 01 00 00	 push	 404			; 00000194H
  0001e	b9 00 00 00 00	 mov	 ecx, OFFSET ?lMsg@@3VCMsg@@A ; lMsg
  00023	ff 15 00 00 00
	00		 call	 DWORD PTR __imp_?Get@CMsg@@QAEPADH@Z
  00029	50		 push	 eax
  0002a	ff 15 00 00 00
	00		 call	 DWORD PTR ?LogAdd@@3P6AXPADZZA ; LogAdd
  00030	83 c4 08	 add	 esp, 8

; 2475 : 	return TRUE;

  00033	b8 01 00 00 00	 mov	 eax, 1

; 2476 : }

  00038	5f		 pop	 edi
  00039	5e		 pop	 esi
  0003a	5b		 pop	 ebx
  0003b	8b e5		 mov	 esp, ebp
  0003d	5d		 pop	 ebp
  0003e	c3		 ret	 0
?GameMainServerCreate@@YAHKK@Z ENDP			; GameMainServerCreate
_TEXT	ENDS
; Function compile flags: /Odtp /ZI
; File C:\Mu Online\Mu-GS-Webzen-MC-10093\GameServer\Gamemain.cpp
;	COMDAT ?GameMainFree@@YAXXZ
_TEXT	SEGMENT
?GameMainFree@@YAXXZ PROC				; GameMainFree, COMDAT

; 2324 : {		

  00000	55		 push	 ebp
  00001	8b ec		 mov	 ebp, esp
  00003	83 ec 40	 sub	 esp, 64			; 00000040H
  00006	53		 push	 ebx
  00007	56		 push	 esi
  00008	57		 push	 edi

; 2325 : 	gDbSave.End();

  00009	b9 00 00 00 00	 mov	 ecx, OFFSET ?gDbSave@@3VCDbSave@@A ; gDbSave
  0000e	e8 00 00 00 00	 call	 ?End@CDbSave@@QAEXXZ	; CDbSave::End

; 2326 : 	GDGameServerInfoSave();

  00013	e8 00 00 00 00	 call	 ?GDGameServerInfoSave@@YAXXZ ; GDGameServerInfoSave

; 2327 : 	gObjEnd();

  00018	e8 00 00 00 00	 call	 ?gObjEnd@@YAXXZ		; gObjEnd

; 2328 : 
; 2329 : 	ClearBattleSoccer();	

  0001d	e8 00 00 00 00	 call	 ?ClearBattleSoccer@@YAXXZ ; ClearBattleSoccer

; 2330 : 	LogClose();

  00022	e8 00 00 00 00	 call	 ?LogClose@@YAXXZ	; LogClose

; 2331 : 	
; 2332 : #ifdef NPROTECT_GAME_GAURD_FOR_SERVER_VERSION_20_20050411
; 2333 : 	//    
; 2334 : 	CleanupGameguardAuth();
; 2335 : #endif // NPROTECT_GAME_GAURD_FOR_SERVER_VERSION_20_20050411
; 2336 : 
; 2337 : #ifdef NPROTECT_GAME_GAURD_FOR_SERVER_VERSION_25_20060123
; 2338 : 	//    
; 2339 : 	CleanupGameguardAuth25();
; 2340 : #endif
; 2341 : }

  00027	5f		 pop	 edi
  00028	5e		 pop	 esi
  00029	5b		 pop	 ebx
  0002a	8b e5		 mov	 esp, ebp
  0002c	5d		 pop	 ebp
  0002d	c3		 ret	 0
?GameMainFree@@YAXXZ ENDP				; GameMainFree
_TEXT	ENDS
; Function compile flags: /Odtp /ZI
; File C:\Mu Online\Mu-GS-Webzen-MC-10093\GameServer\Gamemain.cpp
;	COMDAT ?GameMainInit@@YAXPAUHWND__@@@Z
_TEXT	SEGMENT
tv827 = -644						; size = 8
tv823 = -636						; size = 4
tv180 = -636						; size = 4
tv131 = -636						; size = 4
tv82 = -636						; size = 4
$T2 = -632						; size = 4
$T3 = -628						; size = 4
$T4 = -624						; size = 4
$T5 = -620						; size = 4
$T6 = -616						; size = 4
$T7 = -612						; size = 4
$T8 = -608						; size = 4
_MapAttrName$ = -476					; size = 450
_LevelOver_N$ = -24					; size = 4
_n$ = -20						; size = 4
__$ArrayPad$ = -16					; size = 4
__$EHRec$ = -12						; size = 12
_hWnd$ = 8						; size = 4
?GameMainInit@@YAXPAUHWND__@@@Z PROC			; GameMainInit, COMDAT

; 1511 : {	

  00000	55		 push	 ebp
  00001	8b ec		 mov	 ebp, esp
  00003	6a ff		 push	 -1
  00005	68 00 00 00 00	 push	 __ehhandler$?GameMainInit@@YAXPAUHWND__@@@Z
  0000a	64 a1 00 00 00
	00		 mov	 eax, DWORD PTR fs:0
  00010	50		 push	 eax
  00011	81 ec 78 02 00
	00		 sub	 esp, 632		; 00000278H
  00017	a1 00 00 00 00	 mov	 eax, DWORD PTR ___security_cookie
  0001c	33 c5		 xor	 eax, ebp
  0001e	89 45 f0	 mov	 DWORD PTR __$ArrayPad$[ebp], eax
  00021	53		 push	 ebx
  00022	56		 push	 esi
  00023	57		 push	 edi
  00024	50		 push	 eax
  00025	8d 45 f4	 lea	 eax, DWORD PTR __$EHRec$[ebp]
  00028	64 a3 00 00 00
	00		 mov	 DWORD PTR fs:0, eax

; 1512 : 	int n;
; 1513 : 
; 1514 : 	srand( (unsigned)time( NULL ) );

  0002e	6a 00		 push	 0
  00030	e8 00 00 00 00	 call	 _time
  00035	83 c4 04	 add	 esp, 4
  00038	50		 push	 eax
  00039	e8 00 00 00 00	 call	 _srand
  0003e	83 c4 04	 add	 esp, 4

; 1515 : 
; 1516 : 	ReadServerInfo();

  00041	e8 00 00 00 00	 call	 ?ReadServerInfo@@YAXXZ	; ReadServerInfo

; 1517 : 	LogInit(LOG_PRINT);		// Log   

  00046	6a 01		 push	 1
  00048	e8 00 00 00 00	 call	 ?LogInit@@YAXH@Z	; LogInit
  0004d	83 c4 04	 add	 esp, 4

; 1518 : 	gSetDate();				//   

  00050	e8 00 00 00 00	 call	 ?gSetDate@@YAXXZ	; gSetDate

; 1519 : 
; 1520 : 	#if LICENCIA == 1
; 1521 : 	ReadyLicense();

  00055	e8 00 00 00 00	 call	 ?ReadyLicense@@YAXXZ	; ReadyLicense

; 1522 :     #endif
; 1523 : 
; 1524 : 	gDirPath.SetFirstPath("..\\Data\\");

  0005a	68 00 00 00 00	 push	 OFFSET ??_C@_08NAJBNDME@?4?4?2Data?2@
  0005f	b9 00 00 00 00	 mov	 ecx, OFFSET ?gDirPath@@3VCDirPath@@A ; gDirPath
  00064	e8 00 00 00 00	 call	 ?SetFirstPath@CDirPath@@QAEXPAD@Z ; CDirPath::SetFirstPath

; 1525 : 
; 1526 : #ifdef AUTH_GAMESERVER
; 1527 : 	gServerType = GetPrivateProfileInt("GameServerInfo", "ServerType", 0, gDirPath.GetNewPath("commonserver.cfg"));
; 1528 : 	gPartition = GetPrivateProfileInt("GameServerInfo", "Partition", 0, gDirPath.GetNewPath("commonserver.cfg"));
; 1529 : 	gLanguage = GetPrivateProfileInt("GameServerInfo", "Language", 0, gDirPath.GetNewPath("commonserver.cfg"));	
; 1530 : 
; 1531 : #ifdef FOR_CHINA
; 1532 : 	int iWzFsGateIndex = GetPrivateProfileInt("GameServerInfo", "FsGateIndex", 0, gDirPath.GetNewPath("commonserver.cfg"));
; 1533 : 	gServerType |= (iWzFsGateIndex<<16);
; 1534 : #endif
; 1535 : #endif
; 1536 : 
; 1537 : #ifdef FOR_NEW_TESTSERVER
; 1538 : 	//   T .
; 1539 : 	int nLen = strlen(GAMESEVER_VERSION);
; 1540 : 	GAMESEVER_VERSION[nLen] = 'T';
; 1541 : #endif // FOR_NEW_TESTSERVER
; 1542 : 	
; 1543 : #ifdef FOR_NEW_LIVESEVER
; 1544 : 	//   N .
; 1545 : 	int nLen = strlen(GAMESEVER_VERSION);
; 1546 : 	GAMESEVER_VERSION[nLen] = 'N';
; 1547 : #endif	// FOR_NEW_LIVESEVER
; 1548 : 
; 1549 : #ifdef AUTH_GAMESERVER					//   
; 1550 : 	gGameServerAuth.Init();
; 1551 : 	gGameServerAuth.SetInfo(gLanguage, gPartition, 0, GAMESEVER_VERSION, szServerName, gServerType, GameServerAuthCallBackFunc);		
; 1552 : 	gGameServerAuth.GetKey(szAuthKey, 0, 5);
; 1553 : #endif
; 1554 : 	
; 1555 : #ifdef TEST_LOADING_STEP_20060211
; 1556 : 	MsgBox("#1    ");
; 1557 : #endif
; 1558 : 
; 1559 : #ifdef EVENT_MANAGEMENT_20040711
; 1560 : 	DragonEvent = new CDragonEvent;

  00069	6a 14		 push	 20			; 00000014H
  0006b	e8 00 00 00 00	 call	 ??2@YAPAXI@Z		; operator new
  00070	83 c4 04	 add	 esp, 4
  00073	89 85 9c fd ff
	ff		 mov	 DWORD PTR $T7[ebp], eax
  00079	c7 45 fc 00 00
	00 00		 mov	 DWORD PTR __$EHRec$[ebp+8], 0
  00080	83 bd 9c fd ff
	ff 00		 cmp	 DWORD PTR $T7[ebp], 0
  00087	74 13		 je	 SHORT $LN22@GameMainIn
  00089	8b 8d 9c fd ff
	ff		 mov	 ecx, DWORD PTR $T7[ebp]
  0008f	e8 00 00 00 00	 call	 ??0CDragonEvent@@QAE@XZ	; CDragonEvent::CDragonEvent
  00094	89 85 84 fd ff
	ff		 mov	 DWORD PTR tv82[ebp], eax
  0009a	eb 0a		 jmp	 SHORT $LN23@GameMainIn
$LN22@GameMainIn:
  0009c	c7 85 84 fd ff
	ff 00 00 00 00	 mov	 DWORD PTR tv82[ebp], 0
$LN23@GameMainIn:
  000a6	8b 85 84 fd ff
	ff		 mov	 eax, DWORD PTR tv82[ebp]
  000ac	89 85 a0 fd ff
	ff		 mov	 DWORD PTR $T8[ebp], eax
  000b2	c7 45 fc ff ff
	ff ff		 mov	 DWORD PTR __$EHRec$[ebp+8], -1
  000b9	8b 8d a0 fd ff
	ff		 mov	 ecx, DWORD PTR $T8[ebp]
  000bf	89 0d 00 00 00
	00		 mov	 DWORD PTR ?DragonEvent@@3PAVCDragonEvent@@A, ecx ; DragonEvent

; 1561 : 	if( DragonEvent == NULL )

  000c5	83 3d 00 00 00
	00 00		 cmp	 DWORD PTR ?DragonEvent@@3PAVCDragonEvent@@A, 0 ; DragonEvent
  000cc	75 20		 jne	 SHORT $LN8@GameMainIn

; 1562 : 	{
; 1563 : 		MsgBox("CDragonEvent %s", lMsg.Get(110));

  000ce	6a 6e		 push	 110			; 0000006eH
  000d0	b9 00 00 00 00	 mov	 ecx, OFFSET ?lMsg@@3VCMsg@@A ; lMsg
  000d5	ff 15 00 00 00
	00		 call	 DWORD PTR __imp_?Get@CMsg@@QAEPADH@Z
  000db	50		 push	 eax
  000dc	68 00 00 00 00	 push	 OFFSET ??_C@_0BA@FPGHNLAN@CDragonEvent?5?$CFs@
  000e1	e8 00 00 00 00	 call	 ?MsgBox@@YAXPADZZ	; MsgBox
  000e6	83 c4 08	 add	 esp, 8

; 1564 : 		return;

  000e9	e9 0b 0b 00 00	 jmp	 $LN1@GameMainIn
$LN8@GameMainIn:

; 1565 : 	}
; 1566 : 
; 1567 : 	AttackEvent = new CAttackEvent;

  000ee	6a 2c		 push	 44			; 0000002cH
  000f0	e8 00 00 00 00	 call	 ??2@YAPAXI@Z		; operator new
  000f5	83 c4 04	 add	 esp, 4
  000f8	89 85 94 fd ff
	ff		 mov	 DWORD PTR $T5[ebp], eax
  000fe	c7 45 fc 01 00
	00 00		 mov	 DWORD PTR __$EHRec$[ebp+8], 1
  00105	83 bd 94 fd ff
	ff 00		 cmp	 DWORD PTR $T5[ebp], 0
  0010c	74 13		 je	 SHORT $LN24@GameMainIn
  0010e	8b 8d 94 fd ff
	ff		 mov	 ecx, DWORD PTR $T5[ebp]
  00114	e8 00 00 00 00	 call	 ??0CAttackEvent@@QAE@XZ	; CAttackEvent::CAttackEvent
  00119	89 85 84 fd ff
	ff		 mov	 DWORD PTR tv131[ebp], eax
  0011f	eb 0a		 jmp	 SHORT $LN25@GameMainIn
$LN24@GameMainIn:
  00121	c7 85 84 fd ff
	ff 00 00 00 00	 mov	 DWORD PTR tv131[ebp], 0
$LN25@GameMainIn:
  0012b	8b 85 84 fd ff
	ff		 mov	 eax, DWORD PTR tv131[ebp]
  00131	89 85 98 fd ff
	ff		 mov	 DWORD PTR $T6[ebp], eax
  00137	c7 45 fc ff ff
	ff ff		 mov	 DWORD PTR __$EHRec$[ebp+8], -1
  0013e	8b 8d 98 fd ff
	ff		 mov	 ecx, DWORD PTR $T6[ebp]
  00144	89 0d 00 00 00
	00		 mov	 DWORD PTR ?AttackEvent@@3PAVCAttackEvent@@A, ecx ; AttackEvent

; 1568 : 	if( AttackEvent == NULL )

  0014a	83 3d 00 00 00
	00 00		 cmp	 DWORD PTR ?AttackEvent@@3PAVCAttackEvent@@A, 0 ; AttackEvent
  00151	75 20		 jne	 SHORT $LN9@GameMainIn

; 1569 : 	{
; 1570 : 		MsgBox("AttackEvent %s", lMsg.Get(110));

  00153	6a 6e		 push	 110			; 0000006eH
  00155	b9 00 00 00 00	 mov	 ecx, OFFSET ?lMsg@@3VCMsg@@A ; lMsg
  0015a	ff 15 00 00 00
	00		 call	 DWORD PTR __imp_?Get@CMsg@@QAEPADH@Z
  00160	50		 push	 eax
  00161	68 00 00 00 00	 push	 OFFSET ??_C@_0P@CNKMNCA@AttackEvent?5?$CFs@
  00166	e8 00 00 00 00	 call	 ?MsgBox@@YAXPADZZ	; MsgBox
  0016b	83 c4 08	 add	 esp, 8

; 1571 : 		return;

  0016e	e9 86 0a 00 00	 jmp	 $LN1@GameMainIn
$LN9@GameMainIn:

; 1572 : 	}
; 1573 : #endif
; 1574 : 
; 1575 : 	gObjInit();

  00173	e8 00 00 00 00	 call	 ?gObjInit@@YAXXZ	; gObjInit

; 1576 : 
; 1577 : 	if(g_TerrainManager.Size() < 1)

  00178	b9 00 00 00 00	 mov	 ecx, OFFSET ?g_TerrainManager@@3VCTerrainManager@@A ; g_TerrainManager
  0017d	e8 00 00 00 00	 call	 ?Size@CTerrainManager@@QAE?BHXZ ; CTerrainManager::Size
  00182	83 f8 01	 cmp	 eax, 1
  00185	7d 0f		 jge	 SHORT $LN10@GameMainIn

; 1578 : 		g_TerrainManager.Load();

  00187	68 00 00 00 00	 push	 OFFSET ??_C@_0BL@CIFNLNKN@?4?4?2data?2TerrainManager?4cfg@
  0018c	b9 00 00 00 00	 mov	 ecx, OFFSET ?g_TerrainManager@@3VCTerrainManager@@A ; g_TerrainManager
  00191	e8 00 00 00 00	 call	 ?Load@CTerrainManager@@QAEXPBD@Z ; CTerrainManager::Load
$LN10@GameMainIn:

; 1579 : 
; 1580 : 	MapC = new MapClass[g_TerrainManager.Size()];

  00196	b9 00 00 00 00	 mov	 ecx, OFFSET ?g_TerrainManager@@3VCTerrainManager@@A ; g_TerrainManager
  0019b	e8 00 00 00 00	 call	 ?Size@CTerrainManager@@QAE?BHXZ ; CTerrainManager::Size
  001a0	89 85 90 fd ff
	ff		 mov	 DWORD PTR $T4[ebp], eax
  001a6	33 c9		 xor	 ecx, ecx
  001a8	8b 85 90 fd ff
	ff		 mov	 eax, DWORD PTR $T4[ebp]
  001ae	ba 8c 04 05 00	 mov	 edx, 328844		; 0005048cH
  001b3	f7 e2		 mul	 edx
  001b5	0f 90 c1	 seto	 cl
  001b8	f7 d9		 neg	 ecx
  001ba	0b c8		 or	 ecx, eax
  001bc	33 c0		 xor	 eax, eax
  001be	83 c1 04	 add	 ecx, 4
  001c1	0f 92 c0	 setb	 al
  001c4	f7 d8		 neg	 eax
  001c6	0b c1		 or	 eax, ecx
  001c8	50		 push	 eax
  001c9	e8 00 00 00 00	 call	 ??_U@YAPAXI@Z		; operator new[]
  001ce	83 c4 04	 add	 esp, 4
  001d1	89 85 88 fd ff
	ff		 mov	 DWORD PTR $T2[ebp], eax
  001d7	c7 45 fc 02 00
	00 00		 mov	 DWORD PTR __$EHRec$[ebp+8], 2
  001de	83 bd 88 fd ff
	ff 00		 cmp	 DWORD PTR $T2[ebp], 0
  001e5	74 44		 je	 SHORT $LN26@GameMainIn
  001e7	8b 8d 88 fd ff
	ff		 mov	 ecx, DWORD PTR $T2[ebp]
  001ed	8b 95 90 fd ff
	ff		 mov	 edx, DWORD PTR $T4[ebp]
  001f3	89 11		 mov	 DWORD PTR [ecx], edx
  001f5	68 00 00 00 00	 push	 OFFSET ??1MapClass@@UAE@XZ ; MapClass::~MapClass
  001fa	68 00 00 00 00	 push	 OFFSET ??0MapClass@@QAE@XZ ; MapClass::MapClass
  001ff	8b 85 90 fd ff
	ff		 mov	 eax, DWORD PTR $T4[ebp]
  00205	50		 push	 eax
  00206	68 8c 04 05 00	 push	 328844			; 0005048cH
  0020b	8b 8d 88 fd ff
	ff		 mov	 ecx, DWORD PTR $T2[ebp]
  00211	83 c1 04	 add	 ecx, 4
  00214	51		 push	 ecx
  00215	e8 00 00 00 00	 call	 ??_L@YGXPAXIIP6EX0@Z1@Z
  0021a	8b 95 88 fd ff
	ff		 mov	 edx, DWORD PTR $T2[ebp]
  00220	83 c2 04	 add	 edx, 4
  00223	89 95 84 fd ff
	ff		 mov	 DWORD PTR tv180[ebp], edx
  00229	eb 0a		 jmp	 SHORT $LN27@GameMainIn
$LN26@GameMainIn:
  0022b	c7 85 84 fd ff
	ff 00 00 00 00	 mov	 DWORD PTR tv180[ebp], 0
$LN27@GameMainIn:
  00235	8b 85 84 fd ff
	ff		 mov	 eax, DWORD PTR tv180[ebp]
  0023b	89 85 8c fd ff
	ff		 mov	 DWORD PTR $T3[ebp], eax
  00241	c7 45 fc ff ff
	ff ff		 mov	 DWORD PTR __$EHRec$[ebp+8], -1
  00248	8b 8d 8c fd ff
	ff		 mov	 ecx, DWORD PTR $T3[ebp]
  0024e	89 0d 00 00 00
	00		 mov	 DWORD PTR ?MapC@@3PAVMapClass@@A, ecx ; MapC

; 1581 : 
; 1582 : 	//     
; 1583 : 	for( n=0; n<g_TerrainManager.Size(); n++)

  00254	c7 45 ec 00 00
	00 00		 mov	 DWORD PTR _n$[ebp], 0
  0025b	eb 09		 jmp	 SHORT $LN4@GameMainIn
$LN2@GameMainIn:
  0025d	8b 45 ec	 mov	 eax, DWORD PTR _n$[ebp]
  00260	83 c0 01	 add	 eax, 1
  00263	89 45 ec	 mov	 DWORD PTR _n$[ebp], eax
$LN4@GameMainIn:
  00266	b9 00 00 00 00	 mov	 ecx, OFFSET ?g_TerrainManager@@3VCTerrainManager@@A ; g_TerrainManager
  0026b	e8 00 00 00 00	 call	 ?Size@CTerrainManager@@QAE?BHXZ ; CTerrainManager::Size
  00270	39 45 ec	 cmp	 DWORD PTR _n$[ebp], eax
  00273	7d 5a		 jge	 SHORT $LN3@GameMainIn

; 1584 : 	{
; 1585 : 		MapC[n].ItemInit();

  00275	69 4d ec 8c 04
	05 00		 imul	 ecx, DWORD PTR _n$[ebp], 328844
  0027c	03 0d 00 00 00
	00		 add	 ecx, DWORD PTR ?MapC@@3PAVMapClass@@A ; MapC
  00282	e8 00 00 00 00	 call	 ?ItemInit@MapClass@@QAEXXZ ; MapClass::ItemInit

; 1586 : 
; 1587 : 		if(g_TerrainManager.CheckTerrain(n) == true)

  00287	8b 45 ec	 mov	 eax, DWORD PTR _n$[ebp]
  0028a	50		 push	 eax
  0028b	b9 00 00 00 00	 mov	 ecx, OFFSET ?g_TerrainManager@@3VCTerrainManager@@A ; g_TerrainManager
  00290	e8 00 00 00 00	 call	 ?CheckTerrain@CTerrainManager@@QAE_NH@Z ; CTerrainManager::CheckTerrain
  00295	0f b6 c8	 movzx	 ecx, al
  00298	83 f9 01	 cmp	 ecx, 1
  0029b	75 30		 jne	 SHORT $LN11@GameMainIn

; 1588 : 			MapC[n].LoadMapAttr(gDirPath.GetNewPath(g_TerrainManager.GetTerrainName(n)), n);

  0029d	8b 45 ec	 mov	 eax, DWORD PTR _n$[ebp]
  002a0	50		 push	 eax
  002a1	8b 4d ec	 mov	 ecx, DWORD PTR _n$[ebp]
  002a4	51		 push	 ecx
  002a5	b9 00 00 00 00	 mov	 ecx, OFFSET ?g_TerrainManager@@3VCTerrainManager@@A ; g_TerrainManager
  002aa	e8 00 00 00 00	 call	 ?GetTerrainName@CTerrainManager@@QAEPADH@Z ; CTerrainManager::GetTerrainName
  002af	50		 push	 eax
  002b0	b9 00 00 00 00	 mov	 ecx, OFFSET ?gDirPath@@3VCDirPath@@A ; gDirPath
  002b5	e8 00 00 00 00	 call	 ?GetNewPath@CDirPath@@QAEPADPAD@Z ; CDirPath::GetNewPath
  002ba	50		 push	 eax
  002bb	69 4d ec 8c 04
	05 00		 imul	 ecx, DWORD PTR _n$[ebp], 328844
  002c2	03 0d 00 00 00
	00		 add	 ecx, DWORD PTR ?MapC@@3PAVMapClass@@A ; MapC
  002c8	e8 00 00 00 00	 call	 ?LoadMapAttr@MapClass@@QAEXPADH@Z ; MapClass::LoadMapAttr
$LN11@GameMainIn:

; 1589 : 	}

  002cd	eb 8e		 jmp	 SHORT $LN2@GameMainIn
$LN3@GameMainIn:

; 1590 : 		
; 1591 : 	ReadCommonServerInfo();

  002cf	e8 00 00 00 00	 call	 ?ReadCommonServerInfo@@YAXXZ ; ReadCommonServerInfo

; 1592 : 
; 1593 : #ifdef TEST_LOADING_STEP_20060211
; 1594 : 	MsgBox("#2 ReadCommonServerInfo ");
; 1595 : #endif
; 1596 : 
; 1597 : #ifdef MAP_SERVER_WORK_20041030			//   
; 1598 : 	g_MapServerManager.LoadData(gDirPath.GetNewPath("MapServerInfo.dat"));
; 1599 : #endif
; 1600 : 	
; 1601 : #ifdef CASTLE_MAIN_SCHEDULER_20041111	//    
; 1602 : #ifdef MAP_SERVER_WORK_20041030
; 1603 : 	if (g_CastleSiege.Ready(g_MapServerManager.GetMapSvrGroup()) == TRUE) {
; 1604 : 		if (g_CastleSiege.LoadData(gDirPath.GetNewPath("MuCastleData.dat"))) {
; 1605 : 			g_CastleSiege.LoadPreFixData(gDirPath.GetNewPath("commonserver.cfg"));
; 1606 : 			g_CastleSiege.SetDataLoadState(CASTLESIEGE_DATALOAD_2);		// DB    .
; 1607 : 		}
; 1608 : 	}
; 1609 : #endif
; 1610 : #endif
; 1611 : 
; 1612 : #ifdef TEST_LOADING_STEP_20060211
; 1613 : 	MsgBox("#3    ");
; 1614 : #endif
; 1615 : 
; 1616 : #ifdef AUTH_GAMESERVER	
; 1617 : 	gGameServerAuth.GetKey(szAuthKey, 10, 5);
; 1618 : #endif
; 1619 : 
; 1620 : 	if( gEnableServerDivision )

  002d4	83 3d 00 00 00
	00 00		 cmp	 DWORD PTR ?gEnableServerDivision@@3HA, 0 ; gEnableServerDivision
  002db	74 14		 je	 SHORT $LN12@GameMainIn

; 1621 : 	{
; 1622 : 		MessageBox(NULL, "  .", "Warning", MB_OK);

  002dd	6a 00		 push	 0
  002df	68 00 00 00 00	 push	 OFFSET ??_C@_07KGMMFLDN@Warning@
  002e4	68 00 00 00 00	 push	 OFFSET ??_C@_0BO@HAAAHLCH@?$LM?$KN?$LJ?v?$LK?P?G?R?$MA?L?5?$LA?$KB?$LE?I?G?Q?5?$LM?$KN?$LJ?v?$MA?T?$LE?O?$LE?Y?4@
  002e9	6a 00		 push	 0
  002eb	ff 15 00 00 00
	00		 call	 DWORD PTR __imp__MessageBoxA@16
$LN12@GameMainIn:

; 1623 : 	}
; 1624 : 
; 1625 : #ifdef MODIFY_MIX_SYSTEM_20070518
; 1626 : 	if( gUdpSoc.CreateSocket() == FALSE ){ MsgBox("UDP Socket create error"); return; }

  002f1	b9 00 00 00 00	 mov	 ecx, OFFSET ?gUdpSoc@@3VWzUdp@@A ; gUdpSoc
  002f6	e8 00 00 00 00	 call	 ?CreateSocket@WzUdp@@QAEHXZ ; WzUdp::CreateSocket
  002fb	85 c0		 test	 eax, eax
  002fd	75 12		 jne	 SHORT $LN13@GameMainIn
  002ff	68 00 00 00 00	 push	 OFFSET ??_C@_0BI@FNDPBPBE@UDP?5Socket?5create?5error@
  00304	e8 00 00 00 00	 call	 ?MsgBox@@YAXPADZZ	; MsgBox
  00309	83 c4 04	 add	 esp, 4
  0030c	e9 e8 08 00 00	 jmp	 $LN1@GameMainIn
$LN13@GameMainIn:

; 1627 : 	if( gUdpSocCER.CreateSocket() == FALSE ){ MsgBox("UDP Socket create error"); return; }

  00311	b9 00 00 00 00	 mov	 ecx, OFFSET ?gUdpSocCER@@3VWzUdp@@A ; gUdpSocCER
  00316	e8 00 00 00 00	 call	 ?CreateSocket@WzUdp@@QAEHXZ ; WzUdp::CreateSocket
  0031b	85 c0		 test	 eax, eax
  0031d	75 12		 jne	 SHORT $LN14@GameMainIn
  0031f	68 00 00 00 00	 push	 OFFSET ??_C@_0BI@FNDPBPBE@UDP?5Socket?5create?5error@
  00324	e8 00 00 00 00	 call	 ?MsgBox@@YAXPADZZ	; MsgBox
  00329	83 c4 04	 add	 esp, 4
  0032c	e9 c8 08 00 00	 jmp	 $LN1@GameMainIn
$LN14@GameMainIn:

; 1628 : 	gUdpSocCER.RecvSet(g_GlobalConfig.m_iUDPPort);

  00331	a1 ec 00 00 00	 mov	 eax, DWORD PTR ?g_GlobalConfig@@3VCGlobalConfig@@A+236
  00336	50		 push	 eax
  00337	b9 00 00 00 00	 mov	 ecx, OFFSET ?gUdpSocCER@@3VWzUdp@@A ; gUdpSocCER
  0033c	e8 00 00 00 00	 call	 ?RecvSet@WzUdp@@QAEHH@Z	; WzUdp::RecvSet

; 1629 : 	gUdpSocCER.Run();

  00341	b9 00 00 00 00	 mov	 ecx, OFFSET ?gUdpSocCER@@3VWzUdp@@A ; gUdpSocCER
  00346	e8 00 00 00 00	 call	 ?Run@WzUdp@@QAEHXZ	; WzUdp::Run

; 1630 : 	
; 1631 : 	if( gUdpSocCE.CreateSocket() == FALSE ){ MsgBox("UDP Socket create error"); return; }

  0034b	b9 00 00 00 00	 mov	 ecx, OFFSET ?gUdpSocCE@@3VWzUdp@@A ; gUdpSocCE
  00350	e8 00 00 00 00	 call	 ?CreateSocket@WzUdp@@QAEHXZ ; WzUdp::CreateSocket
  00355	85 c0		 test	 eax, eax
  00357	75 12		 jne	 SHORT $LN15@GameMainIn
  00359	68 00 00 00 00	 push	 OFFSET ??_C@_0BI@FNDPBPBE@UDP?5Socket?5create?5error@
  0035e	e8 00 00 00 00	 call	 ?MsgBox@@YAXPADZZ	; MsgBox
  00363	83 c4 04	 add	 esp, 4
  00366	e9 8e 08 00 00	 jmp	 $LN1@GameMainIn
$LN15@GameMainIn:

; 1632 : 
; 1633 : 	gUdpSocCER.SetProtocolCore(ChaosEventProtocolCore);

  0036b	68 00 00 00 00	 push	 OFFSET ?ChaosEventProtocolCore@@YAXEPAEH@Z ; ChaosEventProtocolCore
  00370	b9 00 00 00 00	 mov	 ecx, OFFSET ?gUdpSocCER@@3VWzUdp@@A ; gUdpSocCER
  00375	e8 00 00 00 00	 call	 ?SetProtocolCore@WzUdp@@QAEHP6AXEPAEH@Z@Z ; WzUdp::SetProtocolCore

; 1634 : 	gUdpSocCE.SetProtocolCore(ChaosEventProtocolCore);

  0037a	68 00 00 00 00	 push	 OFFSET ?ChaosEventProtocolCore@@YAXEPAEH@Z ; ChaosEventProtocolCore
  0037f	b9 00 00 00 00	 mov	 ecx, OFFSET ?gUdpSocCE@@3VWzUdp@@A ; gUdpSocCE
  00384	e8 00 00 00 00	 call	 ?SetProtocolCore@WzUdp@@QAEHP6AXEPAEH@Z@Z ; WzUdp::SetProtocolCore

; 1635 : #endif
; 1636 : 
; 1637 : 	// Ranking Server
; 1638 : 	//if( gUdpSocCRank.CreateSocket() == FALSE ){ MsgBox("UDP Socket create error"); return; }
; 1639 : 	//if( gUdpSocCRankR.CreateSocket() == FALSE ){ MsgBox("UDP Socket create error"); return; }
; 1640 : 
; 1641 : 	//gUdpSocCRankR.RecvSet(44455);
; 1642 : 	//gUdpSocCRankR.Run();
; 1643 : 	//gUdpSocCRankR.SetProtocolCore(DevilSquareEventProtocolCore);
; 1644 : 	
; 1645 : 	if( !SPEEDHACK_CHECK ) MsgBox(lMsg.Get(210));

  00389	33 c0		 xor	 eax, eax
  0038b	74 19		 je	 SHORT $LN16@GameMainIn
  0038d	68 d2 00 00 00	 push	 210			; 000000d2H
  00392	b9 00 00 00 00	 mov	 ecx, OFFSET ?lMsg@@3VCMsg@@A ; lMsg
  00397	ff 15 00 00 00
	00		 call	 DWORD PTR __imp_?Get@CMsg@@QAEPADH@Z
  0039d	50		 push	 eax
  0039e	e8 00 00 00 00	 call	 ?MsgBox@@YAXPADZZ	; MsgBox
  003a3	83 c4 04	 add	 esp, 4
$LN16@GameMainIn:

; 1646 : 
; 1647 : 	#if (LOCALCONNECT == 1 )  
; 1648 : 		MsgBox(lMsg.Get(418));
; 1649 : 	#endif
; 1650 : 	if( DATANOSAVE == 1 )

  003a6	33 c0		 xor	 eax, eax
  003a8	74 0d		 je	 SHORT $LN17@GameMainIn

; 1651 : 	{
; 1652 : 		MsgBox("!!    .");

  003aa	68 00 00 00 00	 push	 OFFSET ??_C@_0CK@CPDKBBDI@?A?V?$MA?G?$CB?$CB?5?D?$LD?$LI?$KP?E?M?5?$LF?$KF?$MA?L?E?M?$LI?$KG?5?$MA?z?$MA?e?G?O?A?v@
  003af	e8 00 00 00 00	 call	 ?MsgBox@@YAXPADZZ	; MsgBox
  003b4	83 c4 04	 add	 esp, 4
$LN17@GameMainIn:

; 1653 : 	}
; 1654 : #ifdef FOR_ONAIR
; 1655 : 	MsgBox("!!   ");
; 1656 : #endif
; 1657 : 
; 1658 : 	InitBattleSoccer();

  003b7	e8 00 00 00 00	 call	 ?InitBattleSoccer@@YAXXZ ; InitBattleSoccer

; 1659 : 
; 1660 : #ifdef AUTH_GAMESERVER
; 1661 : 	int DataBufferSize;
; 1662 : 	char* DataBuffer;
; 1663 : 
; 1664 : 	gGameServerAuth.RequestData(FILE_MONSTER);
; 1665 : 	DataBufferSize = gGameServerAuth.GetDataBufferSize();
; 1666 : 	DataBuffer = gGameServerAuth.GetDataBuffer();
; 1667 : 	gMAttr.LoadAttr(DataBuffer, DataBufferSize);						//   	
; 1668 : 
; 1669 : 	gGameServerAuth.RequestData(FILE_MONSTERSETBASE);
; 1670 : 	DataBufferSize = gGameServerAuth.GetDataBufferSize();
; 1671 : 	DataBuffer = gGameServerAuth.GetDataBuffer();
; 1672 : 	gMSetBase.LoadSetBase(DataBuffer, DataBufferSize);	//   
; 1673 : #else
; 1674 : 	#ifdef SCRIPT_DECODE_WORK
; 1675 : 		gMSetBase.LoadSetBaseDecode(gDirPath.GetNewPath("MonsterSetBase.cwz"));	//   
; 1676 : 		gMAttr.LoadAttrDecode(gDirPath.GetNewPath("Monster.cwz"));				//   
; 1677 : 		gGateC.LoadDecode(gDirPath.GetNewPath("gate.cwz"));						//   
; 1678 : 	#else	
; 1679 : 		gMSetBase.LoadSetBase(gDirPath.GetNewPath("MonsterSetBase.txt"));	//   

  003bc	68 00 00 00 00	 push	 OFFSET ??_C@_0BD@KDLMHCKD@MonsterSetBase?4txt@
  003c1	b9 00 00 00 00	 mov	 ecx, OFFSET ?gDirPath@@3VCDirPath@@A ; gDirPath
  003c6	e8 00 00 00 00	 call	 ?GetNewPath@CDirPath@@QAEPADPAD@Z ; CDirPath::GetNewPath
  003cb	50		 push	 eax
  003cc	b9 00 00 00 00	 mov	 ecx, OFFSET ?gMSetBase@@3VCMonsterSetBase@@A ; gMSetBase
  003d1	e8 00 00 00 00	 call	 ?LoadSetBase@CMonsterSetBase@@QAEXPAD@Z ; CMonsterSetBase::LoadSetBase

; 1680 : 		gMAttr.LoadAttr(gDirPath.GetNewPath("Monster.txt"));				//   

  003d6	68 00 00 00 00	 push	 OFFSET ??_C@_0M@NDKJFFPF@Monster?4txt@
  003db	b9 00 00 00 00	 mov	 ecx, OFFSET ?gDirPath@@3VCDirPath@@A ; gDirPath
  003e0	e8 00 00 00 00	 call	 ?GetNewPath@CDirPath@@QAEPADPAD@Z ; CDirPath::GetNewPath
  003e5	50		 push	 eax
  003e6	b9 00 00 00 00	 mov	 ecx, OFFSET ?gMAttr@@3VCMonsterAttr@@A ; gMAttr
  003eb	e8 00 00 00 00	 call	 ?LoadAttr@CMonsterAttr@@QAEXPAD@Z ; CMonsterAttr::LoadAttr

; 1681 : 		gGateC.Load(gDirPath.GetNewPath("gate.txt"));						//   

  003f0	68 00 00 00 00	 push	 OFFSET ??_C@_08PGLGOOHM@gate?4txt@
  003f5	b9 00 00 00 00	 mov	 ecx, OFFSET ?gDirPath@@3VCDirPath@@A ; gDirPath
  003fa	e8 00 00 00 00	 call	 ?GetNewPath@CDirPath@@QAEPADPAD@Z ; CDirPath::GetNewPath
  003ff	50		 push	 eax
  00400	b9 00 00 00 00	 mov	 ecx, OFFSET ?gGateC@@3VCGate@@A ; gGateC
  00405	e8 00 00 00 00	 call	 ?Load@CGate@@QAEXPAD@Z	; CGate::Load

; 1682 : 	#endif
; 1683 : #endif
; 1684 : 
; 1685 : 
; 1686 : 	//     
; 1687 : 	g_MonsterItemMng.Init();	

  0040a	b9 00 00 00 00	 mov	 ecx, OFFSET ?g_MonsterItemMng@@3VCMonsterItemMng@@A ; g_MonsterItemMng
  0040f	e8 00 00 00 00	 call	 ?Init@CMonsterItemMng@@QAEXXZ ; CMonsterItemMng::Init

; 1688 : 
; 1689 : #ifdef HAPPY_POUCH //happycat@20050201
; 1690 : 	g_GameEvent.Init();
; 1691 : #endif
; 1692 : 	
; 1693 : 	//    
; 1694 : 	gLevelExperience[0] = 0;	

  00414	b8 04 00 00 00	 mov	 eax, 4
  00419	6b c8 00	 imul	 ecx, eax, 0
  0041c	c7 81 00 00 00
	00 00 00 00 00	 mov	 DWORD PTR ?gLevelExperience@@3PAKA[ecx], 0

; 1695 : 	int LevelOver_N=1;

  00426	c7 45 e8 01 00
	00 00		 mov	 DWORD PTR _LevelOver_N$[ebp], 1

; 1696 : #ifdef HERO_SYSTEM_MODIFY
; 1697 : 	for( n=1; n<MAX_LEVEL+1; n++)
; 1698 : #else
; 1699 : 	for( n=1; n<MAX_LEVEL+1; n++)

  0042d	c7 45 ec 01 00
	00 00		 mov	 DWORD PTR _n$[ebp], 1
  00434	eb 09		 jmp	 SHORT $LN7@GameMainIn
$LN5@GameMainIn:
  00436	8b 45 ec	 mov	 eax, DWORD PTR _n$[ebp]
  00439	83 c0 01	 add	 eax, 1
  0043c	89 45 ec	 mov	 DWORD PTR _n$[ebp], eax
$LN7@GameMainIn:
  0043f	81 7d ec 91 01
	00 00		 cmp	 DWORD PTR _n$[ebp], 401	; 00000191H
  00446	0f 8d d8 00 00
	00		 jge	 $LN6@GameMainIn

; 1700 : #endif
; 1701 : 	{
; 1702 : 		gLevelExperience[n] = (9+n)*n*n*10;

  0044c	8b 45 ec	 mov	 eax, DWORD PTR _n$[ebp]
  0044f	83 c0 09	 add	 eax, 9
  00452	0f af 45 ec	 imul	 eax, DWORD PTR _n$[ebp]
  00456	0f af 45 ec	 imul	 eax, DWORD PTR _n$[ebp]
  0045a	6b c8 0a	 imul	 ecx, eax, 10
  0045d	8b 55 ec	 mov	 edx, DWORD PTR _n$[ebp]
  00460	89 0c 95 00 00
	00 00		 mov	 DWORD PTR ?gLevelExperience@@3PAKA[edx*4], ecx

; 1703 : 		if(n > 400)

  00467	81 7d ec 90 01
	00 00		 cmp	 DWORD PTR _n$[ebp], 400	; 00000190H
  0046e	7e 75		 jle	 SHORT $LN18@GameMainIn

; 1704 : 		{
; 1705 : 			gLevelExperience[n] += (9+LevelOver_N)*LevelOver_N*LevelOver_N*0.8f;

  00470	8b 45 e8	 mov	 eax, DWORD PTR _LevelOver_N$[ebp]
  00473	83 c0 09	 add	 eax, 9
  00476	0f af 45 e8	 imul	 eax, DWORD PTR _LevelOver_N$[ebp]
  0047a	0f af 45 e8	 imul	 eax, DWORD PTR _LevelOver_N$[ebp]
  0047e	f3 0f 2a c0	 cvtsi2ss xmm0, eax
  00482	f3 0f 59 05 00
	00 00 00	 mulss	 xmm0, DWORD PTR __real@3f4ccccd
  0048a	8b 4d ec	 mov	 ecx, DWORD PTR _n$[ebp]
  0048d	8b 14 8d 00 00
	00 00		 mov	 edx, DWORD PTR ?gLevelExperience@@3PAKA[ecx*4]
  00494	89 95 84 fd ff
	ff		 mov	 DWORD PTR tv823[ebp], edx
  0049a	f2 0f 2a 8d 84
	fd ff ff	 cvtsi2sd xmm1, DWORD PTR tv823[ebp]
  004a2	8b 85 84 fd ff
	ff		 mov	 eax, DWORD PTR tv823[ebp]
  004a8	c1 e8 1f	 shr	 eax, 31			; 0000001fH
  004ab	f2 0f 58 0c c5
	00 00 00 00	 addsd	 xmm1, QWORD PTR __xmm@41f00000000000000000000000000000[eax*8]
  004b4	f2 0f 11 8d 7c
	fd ff ff	 movsd	 QWORD PTR tv827[ebp], xmm1
  004bc	f2 0f 5a 8d 7c
	fd ff ff	 cvtsd2ss xmm1, QWORD PTR tv827[ebp]
  004c4	f3 0f 58 c8	 addss	 xmm1, xmm0
  004c8	0f 28 c1	 movaps	 xmm0, xmm1
  004cb	e8 00 00 00 00	 call	 __ftoui3
  004d0	8b 4d ec	 mov	 ecx, DWORD PTR _n$[ebp]
  004d3	89 04 8d 00 00
	00 00		 mov	 DWORD PTR ?gLevelExperience@@3PAKA[ecx*4], eax

; 1706 : 			LevelOver_N++;

  004da	8b 45 e8	 mov	 eax, DWORD PTR _LevelOver_N$[ebp]
  004dd	83 c0 01	 add	 eax, 1
  004e0	89 45 e8	 mov	 DWORD PTR _LevelOver_N$[ebp], eax

; 1707 : 		}

  004e3	eb 3a		 jmp	 SHORT $LN20@GameMainIn
$LN18@GameMainIn:

; 1708 : 		else if( n > 255 )

  004e5	81 7d ec ff 00
	00 00		 cmp	 DWORD PTR _n$[ebp], 255	; 000000ffH
  004ec	7e 31		 jle	 SHORT $LN20@GameMainIn

; 1709 : 		{
; 1710 : 			gLevelExperience[n] += (9+LevelOver_N)*LevelOver_N*LevelOver_N*1000;

  004ee	8b 45 e8	 mov	 eax, DWORD PTR _LevelOver_N$[ebp]
  004f1	83 c0 09	 add	 eax, 9
  004f4	0f af 45 e8	 imul	 eax, DWORD PTR _LevelOver_N$[ebp]
  004f8	0f af 45 e8	 imul	 eax, DWORD PTR _LevelOver_N$[ebp]
  004fc	69 c8 e8 03 00
	00		 imul	 ecx, eax, 1000
  00502	8b 55 ec	 mov	 edx, DWORD PTR _n$[ebp]
  00505	03 0c 95 00 00
	00 00		 add	 ecx, DWORD PTR ?gLevelExperience@@3PAKA[edx*4]
  0050c	8b 45 ec	 mov	 eax, DWORD PTR _n$[ebp]
  0050f	89 0c 85 00 00
	00 00		 mov	 DWORD PTR ?gLevelExperience@@3PAKA[eax*4], ecx

; 1711 : 			LevelOver_N++;

  00516	8b 45 e8	 mov	 eax, DWORD PTR _LevelOver_N$[ebp]
  00519	83 c0 01	 add	 eax, 1
  0051c	89 45 e8	 mov	 DWORD PTR _LevelOver_N$[ebp], eax
$LN20@GameMainIn:

; 1712 : 		}		
; 1713 : //		LogAdd("%d\t%u", n, gLevelExperience[n]);
; 1714 : //		LogAdd("%3d\t%u\t%u", n, gLevelExperience[n], gLevelExperience[n]-gLevelExperience[n-1]);
; 1715 : 	}

  0051f	e9 12 ff ff ff	 jmp	 $LN5@GameMainIn
$LN6@GameMainIn:

; 1716 : 
; 1717 : #ifdef MASTER_LEVEL_UP_SYSTEM_20070912		//    
; 1718 : 	g_MasterLevelSystem.SetMasterLevelExpTlb();	
; 1719 : #endif
; 1720 : 
; 1721 : 	//   
; 1722 : 	char MapAttrName[MAX_MAP][15] = {

  00524	a1 00 00 00 00	 mov	 eax, DWORD PTR ??_C@_0N@BLBGLKFK@terrain1?4att@
  00529	89 85 24 fe ff
	ff		 mov	 DWORD PTR _MapAttrName$[ebp], eax
  0052f	8b 0d 04 00 00
	00		 mov	 ecx, DWORD PTR ??_C@_0N@BLBGLKFK@terrain1?4att@+4
  00535	89 8d 28 fe ff
	ff		 mov	 DWORD PTR _MapAttrName$[ebp+4], ecx
  0053b	8b 15 08 00 00
	00		 mov	 edx, DWORD PTR ??_C@_0N@BLBGLKFK@terrain1?4att@+8
  00541	89 95 2c fe ff
	ff		 mov	 DWORD PTR _MapAttrName$[ebp+8], edx
  00547	a0 0c 00 00 00	 mov	 al, BYTE PTR ??_C@_0N@BLBGLKFK@terrain1?4att@+12
  0054c	88 85 30 fe ff
	ff		 mov	 BYTE PTR _MapAttrName$[ebp+12], al
  00552	33 c0		 xor	 eax, eax
  00554	66 89 85 31 fe
	ff ff		 mov	 WORD PTR _MapAttrName$[ebp+13], ax
  0055b	a1 00 00 00 00	 mov	 eax, DWORD PTR ??_C@_0N@JNICMIPE@terrain2?4att@
  00560	89 85 33 fe ff
	ff		 mov	 DWORD PTR _MapAttrName$[ebp+15], eax
  00566	8b 0d 04 00 00
	00		 mov	 ecx, DWORD PTR ??_C@_0N@JNICMIPE@terrain2?4att@+4
  0056c	89 8d 37 fe ff
	ff		 mov	 DWORD PTR _MapAttrName$[ebp+19], ecx
  00572	8b 15 08 00 00
	00		 mov	 edx, DWORD PTR ??_C@_0N@JNICMIPE@terrain2?4att@+8
  00578	89 95 3b fe ff
	ff		 mov	 DWORD PTR _MapAttrName$[ebp+23], edx
  0057e	a0 0c 00 00 00	 mov	 al, BYTE PTR ??_C@_0N@JNICMIPE@terrain2?4att@+12
  00583	88 85 3f fe ff
	ff		 mov	 BYTE PTR _MapAttrName$[ebp+27], al
  00589	33 c0		 xor	 eax, eax
  0058b	66 89 85 40 fe
	ff ff		 mov	 WORD PTR _MapAttrName$[ebp+28], ax
  00592	a1 00 00 00 00	 mov	 eax, DWORD PTR ??_C@_0N@FGNOBLFB@terrain3?4att@
  00597	89 85 42 fe ff
	ff		 mov	 DWORD PTR _MapAttrName$[ebp+30], eax
  0059d	8b 0d 04 00 00
	00		 mov	 ecx, DWORD PTR ??_C@_0N@FGNOBLFB@terrain3?4att@+4
  005a3	89 8d 46 fe ff
	ff		 mov	 DWORD PTR _MapAttrName$[ebp+34], ecx
  005a9	8b 15 08 00 00
	00		 mov	 edx, DWORD PTR ??_C@_0N@FGNOBLFB@terrain3?4att@+8
  005af	89 95 4a fe ff
	ff		 mov	 DWORD PTR _MapAttrName$[ebp+38], edx
  005b5	a0 0c 00 00 00	 mov	 al, BYTE PTR ??_C@_0N@FGNOBLFB@terrain3?4att@+12
  005ba	88 85 4e fe ff
	ff		 mov	 BYTE PTR _MapAttrName$[ebp+42], al
  005c0	33 c0		 xor	 eax, eax
  005c2	66 89 85 4f fe
	ff ff		 mov	 WORD PTR _MapAttrName$[ebp+43], ax
  005c9	a1 00 00 00 00	 mov	 eax, DWORD PTR ??_C@_0N@ELNLCLOJ@terrain4?4att@
  005ce	89 85 51 fe ff
	ff		 mov	 DWORD PTR _MapAttrName$[ebp+45], eax
  005d4	8b 0d 04 00 00
	00		 mov	 ecx, DWORD PTR ??_C@_0N@ELNLCLOJ@terrain4?4att@+4
  005da	89 8d 55 fe ff
	ff		 mov	 DWORD PTR _MapAttrName$[ebp+49], ecx
  005e0	8b 15 08 00 00
	00		 mov	 edx, DWORD PTR ??_C@_0N@ELNLCLOJ@terrain4?4att@+8
  005e6	89 95 59 fe ff
	ff		 mov	 DWORD PTR _MapAttrName$[ebp+53], edx
  005ec	a0 0c 00 00 00	 mov	 al, BYTE PTR ??_C@_0N@ELNLCLOJ@terrain4?4att@+12
  005f1	88 85 5d fe ff
	ff		 mov	 BYTE PTR _MapAttrName$[ebp+57], al
  005f7	33 c0		 xor	 eax, eax
  005f9	66 89 85 5e fe
	ff ff		 mov	 WORD PTR _MapAttrName$[ebp+58], ax
  00600	a1 00 00 00 00	 mov	 eax, DWORD PTR ??_C@_0N@IAIHPIEM@terrain5?4att@
  00605	89 85 60 fe ff
	ff		 mov	 DWORD PTR _MapAttrName$[ebp+60], eax
  0060b	8b 0d 04 00 00
	00		 mov	 ecx, DWORD PTR ??_C@_0N@IAIHPIEM@terrain5?4att@+4
  00611	89 8d 64 fe ff
	ff		 mov	 DWORD PTR _MapAttrName$[ebp+64], ecx
  00617	8b 15 08 00 00
	00		 mov	 edx, DWORD PTR ??_C@_0N@IAIHPIEM@terrain5?4att@+8
  0061d	89 95 68 fe ff
	ff		 mov	 DWORD PTR _MapAttrName$[ebp+68], edx
  00623	a0 0c 00 00 00	 mov	 al, BYTE PTR ??_C@_0N@IAIHPIEM@terrain5?4att@+12
  00628	88 85 6c fe ff
	ff		 mov	 BYTE PTR _MapAttrName$[ebp+72], al
  0062e	33 c0		 xor	 eax, eax
  00630	66 89 85 6d fe
	ff ff		 mov	 WORD PTR _MapAttrName$[ebp+73], ax
  00637	a1 00 00 00 00	 mov	 eax, DWORD PTR ??_C@_0N@GBDIKOC@terrain6?4att@
  0063c	89 85 6f fe ff
	ff		 mov	 DWORD PTR _MapAttrName$[ebp+75], eax
  00642	8b 0d 04 00 00
	00		 mov	 ecx, DWORD PTR ??_C@_0N@GBDIKOC@terrain6?4att@+4
  00648	89 8d 73 fe ff
	ff		 mov	 DWORD PTR _MapAttrName$[ebp+79], ecx
  0064e	8b 15 08 00 00
	00		 mov	 edx, DWORD PTR ??_C@_0N@GBDIKOC@terrain6?4att@+8
  00654	89 95 77 fe ff
	ff		 mov	 DWORD PTR _MapAttrName$[ebp+83], edx
  0065a	a0 0c 00 00 00	 mov	 al, BYTE PTR ??_C@_0N@GBDIKOC@terrain6?4att@+12
  0065f	88 85 7b fe ff
	ff		 mov	 BYTE PTR _MapAttrName$[ebp+87], al
  00665	33 c0		 xor	 eax, eax
  00667	66 89 85 7c fe
	ff ff		 mov	 WORD PTR _MapAttrName$[ebp+88], ax
  0066e	a1 00 00 00 00	 mov	 eax, DWORD PTR ??_C@_0N@MNEPFJEH@terrain7?4att@
  00673	89 85 7e fe ff
	ff		 mov	 DWORD PTR _MapAttrName$[ebp+90], eax
  00679	8b 0d 04 00 00
	00		 mov	 ecx, DWORD PTR ??_C@_0N@MNEPFJEH@terrain7?4att@+4
  0067f	89 8d 82 fe ff
	ff		 mov	 DWORD PTR _MapAttrName$[ebp+94], ecx
  00685	8b 15 08 00 00
	00		 mov	 edx, DWORD PTR ??_C@_0N@MNEPFJEH@terrain7?4att@+8
  0068b	89 95 86 fe ff
	ff		 mov	 DWORD PTR _MapAttrName$[ebp+98], edx
  00691	a0 0c 00 00 00	 mov	 al, BYTE PTR ??_C@_0N@MNEPFJEH@terrain7?4att@+12
  00696	88 85 8a fe ff
	ff		 mov	 BYTE PTR _MapAttrName$[ebp+102], al
  0069c	33 c0		 xor	 eax, eax
  0069e	66 89 85 8b fe
	ff ff		 mov	 WORD PTR _MapAttrName$[ebp+103], ax
  006a5	a1 00 00 00 00	 mov	 eax, DWORD PTR ??_C@_0N@DMBJOLJC@terrain8?4att@
  006aa	89 85 8d fe ff
	ff		 mov	 DWORD PTR _MapAttrName$[ebp+105], eax
  006b0	8b 0d 04 00 00
	00		 mov	 ecx, DWORD PTR ??_C@_0N@DMBJOLJC@terrain8?4att@+4
  006b6	89 8d 91 fe ff
	ff		 mov	 DWORD PTR _MapAttrName$[ebp+109], ecx
  006bc	8b 15 08 00 00
	00		 mov	 edx, DWORD PTR ??_C@_0N@DMBJOLJC@terrain8?4att@+8
  006c2	89 95 95 fe ff
	ff		 mov	 DWORD PTR _MapAttrName$[ebp+113], edx
  006c8	a0 0c 00 00 00	 mov	 al, BYTE PTR ??_C@_0N@DMBJOLJC@terrain8?4att@+12
  006cd	88 85 99 fe ff
	ff		 mov	 BYTE PTR _MapAttrName$[ebp+117], al
  006d3	33 c0		 xor	 eax, eax
  006d5	66 89 85 9a fe
	ff ff		 mov	 WORD PTR _MapAttrName$[ebp+118], ax
  006dc	a1 00 00 00 00	 mov	 eax, DWORD PTR ??_C@_0N@PHEFDIDH@terrain9?4att@
  006e1	89 85 9c fe ff
	ff		 mov	 DWORD PTR _MapAttrName$[ebp+120], eax
  006e7	8b 0d 04 00 00
	00		 mov	 ecx, DWORD PTR ??_C@_0N@PHEFDIDH@terrain9?4att@+4
  006ed	89 8d a0 fe ff
	ff		 mov	 DWORD PTR _MapAttrName$[ebp+124], ecx
  006f3	8b 15 08 00 00
	00		 mov	 edx, DWORD PTR ??_C@_0N@PHEFDIDH@terrain9?4att@+8
  006f9	89 95 a4 fe ff
	ff		 mov	 DWORD PTR _MapAttrName$[ebp+128], edx
  006ff	a0 0c 00 00 00	 mov	 al, BYTE PTR ??_C@_0N@PHEFDIDH@terrain9?4att@+12
  00704	88 85 a8 fe ff
	ff		 mov	 BYTE PTR _MapAttrName$[ebp+132], al
  0070a	33 c0		 xor	 eax, eax
  0070c	66 89 85 a9 fe
	ff ff		 mov	 WORD PTR _MapAttrName$[ebp+133], ax
  00713	a1 00 00 00 00	 mov	 eax, DWORD PTR ??_C@_0O@EEEOBJHM@terrain10?4att@
  00718	89 85 ab fe ff
	ff		 mov	 DWORD PTR _MapAttrName$[ebp+135], eax
  0071e	8b 0d 04 00 00
	00		 mov	 ecx, DWORD PTR ??_C@_0O@EEEOBJHM@terrain10?4att@+4
  00724	89 8d af fe ff
	ff		 mov	 DWORD PTR _MapAttrName$[ebp+139], ecx
  0072a	8b 15 08 00 00
	00		 mov	 edx, DWORD PTR ??_C@_0O@EEEOBJHM@terrain10?4att@+8
  00730	89 95 b3 fe ff
	ff		 mov	 DWORD PTR _MapAttrName$[ebp+143], edx
  00736	66 a1 0c 00 00
	00		 mov	 ax, WORD PTR ??_C@_0O@EEEOBJHM@terrain10?4att@+12
  0073c	66 89 85 b7 fe
	ff ff		 mov	 WORD PTR _MapAttrName$[ebp+147], ax
  00743	33 c0		 xor	 eax, eax
  00745	88 85 b9 fe ff
	ff		 mov	 BYTE PTR _MapAttrName$[ebp+149], al
  0074b	a1 00 00 00 00	 mov	 eax, DWORD PTR ??_C@_0O@IPBCMKNJ@terrain11?4att@
  00750	89 85 ba fe ff
	ff		 mov	 DWORD PTR _MapAttrName$[ebp+150], eax
  00756	8b 0d 04 00 00
	00		 mov	 ecx, DWORD PTR ??_C@_0O@IPBCMKNJ@terrain11?4att@+4
  0075c	89 8d be fe ff
	ff		 mov	 DWORD PTR _MapAttrName$[ebp+154], ecx
  00762	8b 15 08 00 00
	00		 mov	 edx, DWORD PTR ??_C@_0O@IPBCMKNJ@terrain11?4att@+8
  00768	89 95 c2 fe ff
	ff		 mov	 DWORD PTR _MapAttrName$[ebp+158], edx
  0076e	66 a1 0c 00 00
	00		 mov	 ax, WORD PTR ??_C@_0O@IPBCMKNJ@terrain11?4att@+12
  00774	66 89 85 c6 fe
	ff ff		 mov	 WORD PTR _MapAttrName$[ebp+162], ax
  0077b	33 c0		 xor	 eax, eax
  0077d	88 85 c8 fe ff
	ff		 mov	 BYTE PTR _MapAttrName$[ebp+164], al
  00783	a1 00 00 00 00	 mov	 eax, DWORD PTR ??_C@_0O@JIGLIHH@terrain12?4att@
  00788	89 85 c9 fe ff
	ff		 mov	 DWORD PTR _MapAttrName$[ebp+165], eax
  0078e	8b 0d 04 00 00
	00		 mov	 ecx, DWORD PTR ??_C@_0O@JIGLIHH@terrain12?4att@+4
  00794	89 8d cd fe ff
	ff		 mov	 DWORD PTR _MapAttrName$[ebp+169], ecx
  0079a	8b 15 08 00 00
	00		 mov	 edx, DWORD PTR ??_C@_0O@JIGLIHH@terrain12?4att@+8
  007a0	89 95 d1 fe ff
	ff		 mov	 DWORD PTR _MapAttrName$[ebp+173], edx
  007a6	66 a1 0c 00 00
	00		 mov	 ax, WORD PTR ??_C@_0O@JIGLIHH@terrain12?4att@+12
  007ac	66 89 85 d5 fe
	ff ff		 mov	 WORD PTR _MapAttrName$[ebp+177], ax
  007b3	33 c0		 xor	 eax, eax
  007b5	88 85 d7 fe ff
	ff		 mov	 BYTE PTR _MapAttrName$[ebp+179], al
  007bb	a1 00 00 00 00	 mov	 eax, DWORD PTR ??_C@_0O@JIGLIHH@terrain12?4att@
  007c0	89 85 d8 fe ff
	ff		 mov	 DWORD PTR _MapAttrName$[ebp+180], eax
  007c6	8b 0d 04 00 00
	00		 mov	 ecx, DWORD PTR ??_C@_0O@JIGLIHH@terrain12?4att@+4
  007cc	89 8d dc fe ff
	ff		 mov	 DWORD PTR _MapAttrName$[ebp+184], ecx
  007d2	8b 15 08 00 00
	00		 mov	 edx, DWORD PTR ??_C@_0O@JIGLIHH@terrain12?4att@+8
  007d8	89 95 e0 fe ff
	ff		 mov	 DWORD PTR _MapAttrName$[ebp+188], edx
  007de	66 a1 0c 00 00
	00		 mov	 ax, WORD PTR ??_C@_0O@JIGLIHH@terrain12?4att@+12
  007e4	66 89 85 e4 fe
	ff ff		 mov	 WORD PTR _MapAttrName$[ebp+192], ax
  007eb	33 c0		 xor	 eax, eax
  007ed	88 85 e6 fe ff
	ff		 mov	 BYTE PTR _MapAttrName$[ebp+194], al
  007f3	a1 00 00 00 00	 mov	 eax, DWORD PTR ??_C@_0O@JIGLIHH@terrain12?4att@
  007f8	89 85 e7 fe ff
	ff		 mov	 DWORD PTR _MapAttrName$[ebp+195], eax
  007fe	8b 0d 04 00 00
	00		 mov	 ecx, DWORD PTR ??_C@_0O@JIGLIHH@terrain12?4att@+4
  00804	89 8d eb fe ff
	ff		 mov	 DWORD PTR _MapAttrName$[ebp+199], ecx
  0080a	8b 15 08 00 00
	00		 mov	 edx, DWORD PTR ??_C@_0O@JIGLIHH@terrain12?4att@+8
  00810	89 95 ef fe ff
	ff		 mov	 DWORD PTR _MapAttrName$[ebp+203], edx
  00816	66 a1 0c 00 00
	00		 mov	 ax, WORD PTR ??_C@_0O@JIGLIHH@terrain12?4att@+12
  0081c	66 89 85 f3 fe
	ff ff		 mov	 WORD PTR _MapAttrName$[ebp+207], ax
  00823	33 c0		 xor	 eax, eax
  00825	88 85 f5 fe ff
	ff		 mov	 BYTE PTR _MapAttrName$[ebp+209], al
  0082b	a1 00 00 00 00	 mov	 eax, DWORD PTR ??_C@_0O@JIGLIHH@terrain12?4att@
  00830	89 85 f6 fe ff
	ff		 mov	 DWORD PTR _MapAttrName$[ebp+210], eax
  00836	8b 0d 04 00 00
	00		 mov	 ecx, DWORD PTR ??_C@_0O@JIGLIHH@terrain12?4att@+4
  0083c	89 8d fa fe ff
	ff		 mov	 DWORD PTR _MapAttrName$[ebp+214], ecx
  00842	8b 15 08 00 00
	00		 mov	 edx, DWORD PTR ??_C@_0O@JIGLIHH@terrain12?4att@+8
  00848	89 95 fe fe ff
	ff		 mov	 DWORD PTR _MapAttrName$[ebp+218], edx
  0084e	66 a1 0c 00 00
	00		 mov	 ax, WORD PTR ??_C@_0O@JIGLIHH@terrain12?4att@+12
  00854	66 89 85 02 ff
	ff ff		 mov	 WORD PTR _MapAttrName$[ebp+222], ax
  0085b	33 c0		 xor	 eax, eax
  0085d	88 85 04 ff ff
	ff		 mov	 BYTE PTR _MapAttrName$[ebp+224], al
  00863	a1 00 00 00 00	 mov	 eax, DWORD PTR ??_C@_0O@JIGLIHH@terrain12?4att@
  00868	89 85 05 ff ff
	ff		 mov	 DWORD PTR _MapAttrName$[ebp+225], eax
  0086e	8b 0d 04 00 00
	00		 mov	 ecx, DWORD PTR ??_C@_0O@JIGLIHH@terrain12?4att@+4
  00874	89 8d 09 ff ff
	ff		 mov	 DWORD PTR _MapAttrName$[ebp+229], ecx
  0087a	8b 15 08 00 00
	00		 mov	 edx, DWORD PTR ??_C@_0O@JIGLIHH@terrain12?4att@+8
  00880	89 95 0d ff ff
	ff		 mov	 DWORD PTR _MapAttrName$[ebp+233], edx
  00886	66 a1 0c 00 00
	00		 mov	 ax, WORD PTR ??_C@_0O@JIGLIHH@terrain12?4att@+12
  0088c	66 89 85 11 ff
	ff ff		 mov	 WORD PTR _MapAttrName$[ebp+237], ax
  00893	33 c0		 xor	 eax, eax
  00895	88 85 13 ff ff
	ff		 mov	 BYTE PTR _MapAttrName$[ebp+239], al
  0089b	a1 00 00 00 00	 mov	 eax, DWORD PTR ??_C@_0O@JIGLIHH@terrain12?4att@
  008a0	89 85 14 ff ff
	ff		 mov	 DWORD PTR _MapAttrName$[ebp+240], eax
  008a6	8b 0d 04 00 00
	00		 mov	 ecx, DWORD PTR ??_C@_0O@JIGLIHH@terrain12?4att@+4
  008ac	89 8d 18 ff ff
	ff		 mov	 DWORD PTR _MapAttrName$[ebp+244], ecx
  008b2	8b 15 08 00 00
	00		 mov	 edx, DWORD PTR ??_C@_0O@JIGLIHH@terrain12?4att@+8
  008b8	89 95 1c ff ff
	ff		 mov	 DWORD PTR _MapAttrName$[ebp+248], edx
  008be	66 a1 0c 00 00
	00		 mov	 ax, WORD PTR ??_C@_0O@JIGLIHH@terrain12?4att@+12
  008c4	66 89 85 20 ff
	ff ff		 mov	 WORD PTR _MapAttrName$[ebp+252], ax
  008cb	33 c0		 xor	 eax, eax
  008cd	88 85 22 ff ff
	ff		 mov	 BYTE PTR _MapAttrName$[ebp+254], al
  008d3	a1 00 00 00 00	 mov	 eax, DWORD PTR ??_C@_0O@JIGLIHH@terrain12?4att@
  008d8	89 85 23 ff ff
	ff		 mov	 DWORD PTR _MapAttrName$[ebp+255], eax
  008de	8b 0d 04 00 00
	00		 mov	 ecx, DWORD PTR ??_C@_0O@JIGLIHH@terrain12?4att@+4
  008e4	89 8d 27 ff ff
	ff		 mov	 DWORD PTR _MapAttrName$[ebp+259], ecx
  008ea	8b 15 08 00 00
	00		 mov	 edx, DWORD PTR ??_C@_0O@JIGLIHH@terrain12?4att@+8
  008f0	89 95 2b ff ff
	ff		 mov	 DWORD PTR _MapAttrName$[ebp+263], edx
  008f6	66 a1 0c 00 00
	00		 mov	 ax, WORD PTR ??_C@_0O@JIGLIHH@terrain12?4att@+12
  008fc	66 89 85 2f ff
	ff ff		 mov	 WORD PTR _MapAttrName$[ebp+267], ax
  00903	33 c0		 xor	 eax, eax
  00905	88 85 31 ff ff
	ff		 mov	 BYTE PTR _MapAttrName$[ebp+269], al
  0090b	a1 00 00 00 00	 mov	 eax, DWORD PTR ??_C@_0O@GDEBEILE@terrain19?4att@
  00910	89 85 32 ff ff
	ff		 mov	 DWORD PTR _MapAttrName$[ebp+270], eax
  00916	8b 0d 04 00 00
	00		 mov	 ecx, DWORD PTR ??_C@_0O@GDEBEILE@terrain19?4att@+4
  0091c	89 8d 36 ff ff
	ff		 mov	 DWORD PTR _MapAttrName$[ebp+274], ecx
  00922	8b 15 08 00 00
	00		 mov	 edx, DWORD PTR ??_C@_0O@GDEBEILE@terrain19?4att@+8
  00928	89 95 3a ff ff
	ff		 mov	 DWORD PTR _MapAttrName$[ebp+278], edx
  0092e	66 a1 0c 00 00
	00		 mov	 ax, WORD PTR ??_C@_0O@GDEBEILE@terrain19?4att@+12
  00934	66 89 85 3e ff
	ff ff		 mov	 WORD PTR _MapAttrName$[ebp+282], ax
  0093b	33 c0		 xor	 eax, eax
  0093d	88 85 40 ff ff
	ff		 mov	 BYTE PTR _MapAttrName$[ebp+284], al
  00943	a1 00 00 00 00	 mov	 eax, DWORD PTR ??_C@_0O@GDEBEILE@terrain19?4att@
  00948	89 85 41 ff ff
	ff		 mov	 DWORD PTR _MapAttrName$[ebp+285], eax
  0094e	8b 0d 04 00 00
	00		 mov	 ecx, DWORD PTR ??_C@_0O@GDEBEILE@terrain19?4att@+4
  00954	89 8d 45 ff ff
	ff		 mov	 DWORD PTR _MapAttrName$[ebp+289], ecx
  0095a	8b 15 08 00 00
	00		 mov	 edx, DWORD PTR ??_C@_0O@GDEBEILE@terrain19?4att@+8
  00960	89 95 49 ff ff
	ff		 mov	 DWORD PTR _MapAttrName$[ebp+293], edx
  00966	66 a1 0c 00 00
	00		 mov	 ax, WORD PTR ??_C@_0O@GDEBEILE@terrain19?4att@+12
  0096c	66 89 85 4d ff
	ff ff		 mov	 WORD PTR _MapAttrName$[ebp+297], ax
  00973	33 c0		 xor	 eax, eax
  00975	88 85 4f ff ff
	ff		 mov	 BYTE PTR _MapAttrName$[ebp+299], al
  0097b	a1 00 00 00 00	 mov	 eax, DWORD PTR ??_C@_0O@GDEBEILE@terrain19?4att@
  00980	89 85 50 ff ff
	ff		 mov	 DWORD PTR _MapAttrName$[ebp+300], eax
  00986	8b 0d 04 00 00
	00		 mov	 ecx, DWORD PTR ??_C@_0O@GDEBEILE@terrain19?4att@+4
  0098c	89 8d 54 ff ff
	ff		 mov	 DWORD PTR _MapAttrName$[ebp+304], ecx
  00992	8b 15 08 00 00
	00		 mov	 edx, DWORD PTR ??_C@_0O@GDEBEILE@terrain19?4att@+8
  00998	89 95 58 ff ff
	ff		 mov	 DWORD PTR _MapAttrName$[ebp+308], edx
  0099e	66 a1 0c 00 00
	00		 mov	 ax, WORD PTR ??_C@_0O@GDEBEILE@terrain19?4att@+12
  009a4	66 89 85 5c ff
	ff ff		 mov	 WORD PTR _MapAttrName$[ebp+312], ax
  009ab	33 c0		 xor	 eax, eax
  009ad	88 85 5e ff ff
	ff		 mov	 BYTE PTR _MapAttrName$[ebp+314], al
  009b3	a1 00 00 00 00	 mov	 eax, DWORD PTR ??_C@_0O@GDEBEILE@terrain19?4att@
  009b8	89 85 5f ff ff
	ff		 mov	 DWORD PTR _MapAttrName$[ebp+315], eax
  009be	8b 0d 04 00 00
	00		 mov	 ecx, DWORD PTR ??_C@_0O@GDEBEILE@terrain19?4att@+4
  009c4	89 8d 63 ff ff
	ff		 mov	 DWORD PTR _MapAttrName$[ebp+319], ecx
  009ca	8b 15 08 00 00
	00		 mov	 edx, DWORD PTR ??_C@_0O@GDEBEILE@terrain19?4att@+8
  009d0	89 95 67 ff ff
	ff		 mov	 DWORD PTR _MapAttrName$[ebp+323], edx
  009d6	66 a1 0c 00 00
	00		 mov	 ax, WORD PTR ??_C@_0O@GDEBEILE@terrain19?4att@+12
  009dc	66 89 85 6b ff
	ff ff		 mov	 WORD PTR _MapAttrName$[ebp+327], ax
  009e3	33 c0		 xor	 eax, eax
  009e5	88 85 6d ff ff
	ff		 mov	 BYTE PTR _MapAttrName$[ebp+329], al
  009eb	a1 00 00 00 00	 mov	 eax, DWORD PTR ??_C@_0O@GDEBEILE@terrain19?4att@
  009f0	89 85 6e ff ff
	ff		 mov	 DWORD PTR _MapAttrName$[ebp+330], eax
  009f6	8b 0d 04 00 00
	00		 mov	 ecx, DWORD PTR ??_C@_0O@GDEBEILE@terrain19?4att@+4
  009fc	89 8d 72 ff ff
	ff		 mov	 DWORD PTR _MapAttrName$[ebp+334], ecx
  00a02	8b 15 08 00 00
	00		 mov	 edx, DWORD PTR ??_C@_0O@GDEBEILE@terrain19?4att@+8
  00a08	89 95 76 ff ff
	ff		 mov	 DWORD PTR _MapAttrName$[ebp+338], edx
  00a0e	66 a1 0c 00 00
	00		 mov	 ax, WORD PTR ??_C@_0O@GDEBEILE@terrain19?4att@+12
  00a14	66 89 85 7a ff
	ff ff		 mov	 WORD PTR _MapAttrName$[ebp+342], ax
  00a1b	33 c0		 xor	 eax, eax
  00a1d	88 85 7c ff ff
	ff		 mov	 BYTE PTR _MapAttrName$[ebp+344], al
  00a23	a1 00 00 00 00	 mov	 eax, DWORD PTR ??_C@_0O@GDEBEILE@terrain19?4att@
  00a28	89 85 7d ff ff
	ff		 mov	 DWORD PTR _MapAttrName$[ebp+345], eax
  00a2e	8b 0d 04 00 00
	00		 mov	 ecx, DWORD PTR ??_C@_0O@GDEBEILE@terrain19?4att@+4
  00a34	89 4d 81	 mov	 DWORD PTR _MapAttrName$[ebp+349], ecx
  00a37	8b 15 08 00 00
	00		 mov	 edx, DWORD PTR ??_C@_0O@GDEBEILE@terrain19?4att@+8
  00a3d	89 55 85	 mov	 DWORD PTR _MapAttrName$[ebp+353], edx
  00a40	66 a1 0c 00 00
	00		 mov	 ax, WORD PTR ??_C@_0O@GDEBEILE@terrain19?4att@+12
  00a46	66 89 45 89	 mov	 WORD PTR _MapAttrName$[ebp+357], ax
  00a4a	33 c0		 xor	 eax, eax
  00a4c	88 45 8b	 mov	 BYTE PTR _MapAttrName$[ebp+359], al
  00a4f	a1 00 00 00 00	 mov	 eax, DWORD PTR ??_C@_0O@CFGLJCFC@terrain25?4att@
  00a54	89 45 8c	 mov	 DWORD PTR _MapAttrName$[ebp+360], eax
  00a57	8b 0d 04 00 00
	00		 mov	 ecx, DWORD PTR ??_C@_0O@CFGLJCFC@terrain25?4att@+4
  00a5d	89 4d 90	 mov	 DWORD PTR _MapAttrName$[ebp+364], ecx
  00a60	8b 15 08 00 00
	00		 mov	 edx, DWORD PTR ??_C@_0O@CFGLJCFC@terrain25?4att@+8
  00a66	89 55 94	 mov	 DWORD PTR _MapAttrName$[ebp+368], edx
  00a69	66 a1 0c 00 00
	00		 mov	 ax, WORD PTR ??_C@_0O@CFGLJCFC@terrain25?4att@+12
  00a6f	66 89 45 98	 mov	 WORD PTR _MapAttrName$[ebp+372], ax
  00a73	33 c0		 xor	 eax, eax
  00a75	88 45 9a	 mov	 BYTE PTR _MapAttrName$[ebp+374], al
  00a78	a1 00 00 00 00	 mov	 eax, DWORD PTR ??_C@_0O@CFGLJCFC@terrain25?4att@
  00a7d	89 45 9b	 mov	 DWORD PTR _MapAttrName$[ebp+375], eax
  00a80	8b 0d 04 00 00
	00		 mov	 ecx, DWORD PTR ??_C@_0O@CFGLJCFC@terrain25?4att@+4
  00a86	89 4d 9f	 mov	 DWORD PTR _MapAttrName$[ebp+379], ecx
  00a89	8b 15 08 00 00
	00		 mov	 edx, DWORD PTR ??_C@_0O@CFGLJCFC@terrain25?4att@+8
  00a8f	89 55 a3	 mov	 DWORD PTR _MapAttrName$[ebp+383], edx
  00a92	66 a1 0c 00 00
	00		 mov	 ax, WORD PTR ??_C@_0O@CFGLJCFC@terrain25?4att@+12
  00a98	66 89 45 a7	 mov	 WORD PTR _MapAttrName$[ebp+387], ax
  00a9c	33 c0		 xor	 eax, eax
  00a9e	88 45 a9	 mov	 BYTE PTR _MapAttrName$[ebp+389], al
  00aa1	a1 00 00 00 00	 mov	 eax, DWORD PTR ??_C@_0O@CFGLJCFC@terrain25?4att@
  00aa6	89 45 aa	 mov	 DWORD PTR _MapAttrName$[ebp+390], eax
  00aa9	8b 0d 04 00 00
	00		 mov	 ecx, DWORD PTR ??_C@_0O@CFGLJCFC@terrain25?4att@+4
  00aaf	89 4d ae	 mov	 DWORD PTR _MapAttrName$[ebp+394], ecx
  00ab2	8b 15 08 00 00
	00		 mov	 edx, DWORD PTR ??_C@_0O@CFGLJCFC@terrain25?4att@+8
  00ab8	89 55 b2	 mov	 DWORD PTR _MapAttrName$[ebp+398], edx
  00abb	66 a1 0c 00 00
	00		 mov	 ax, WORD PTR ??_C@_0O@CFGLJCFC@terrain25?4att@+12
  00ac1	66 89 45 b6	 mov	 WORD PTR _MapAttrName$[ebp+402], ax
  00ac5	33 c0		 xor	 eax, eax
  00ac7	88 45 b8	 mov	 BYTE PTR _MapAttrName$[ebp+404], al
  00aca	a1 00 00 00 00	 mov	 eax, DWORD PTR ??_C@_0O@CFGLJCFC@terrain25?4att@
  00acf	89 45 b9	 mov	 DWORD PTR _MapAttrName$[ebp+405], eax
  00ad2	8b 0d 04 00 00
	00		 mov	 ecx, DWORD PTR ??_C@_0O@CFGLJCFC@terrain25?4att@+4
  00ad8	89 4d bd	 mov	 DWORD PTR _MapAttrName$[ebp+409], ecx
  00adb	8b 15 08 00 00
	00		 mov	 edx, DWORD PTR ??_C@_0O@CFGLJCFC@terrain25?4att@+8
  00ae1	89 55 c1	 mov	 DWORD PTR _MapAttrName$[ebp+413], edx
  00ae4	66 a1 0c 00 00
	00		 mov	 ax, WORD PTR ??_C@_0O@CFGLJCFC@terrain25?4att@+12
  00aea	66 89 45 c5	 mov	 WORD PTR _MapAttrName$[ebp+417], ax
  00aee	33 c0		 xor	 eax, eax
  00af0	88 45 c7	 mov	 BYTE PTR _MapAttrName$[ebp+419], al
  00af3	a1 00 00 00 00	 mov	 eax, DWORD PTR ??_C@_0O@CFGLJCFC@terrain25?4att@
  00af8	89 45 c8	 mov	 DWORD PTR _MapAttrName$[ebp+420], eax
  00afb	8b 0d 04 00 00
	00		 mov	 ecx, DWORD PTR ??_C@_0O@CFGLJCFC@terrain25?4att@+4
  00b01	89 4d cc	 mov	 DWORD PTR _MapAttrName$[ebp+424], ecx
  00b04	8b 15 08 00 00
	00		 mov	 edx, DWORD PTR ??_C@_0O@CFGLJCFC@terrain25?4att@+8
  00b0a	89 55 d0	 mov	 DWORD PTR _MapAttrName$[ebp+428], edx
  00b0d	66 a1 0c 00 00
	00		 mov	 ax, WORD PTR ??_C@_0O@CFGLJCFC@terrain25?4att@+12
  00b13	66 89 45 d4	 mov	 WORD PTR _MapAttrName$[ebp+432], ax
  00b17	33 c0		 xor	 eax, eax
  00b19	88 45 d6	 mov	 BYTE PTR _MapAttrName$[ebp+434], al
  00b1c	a1 00 00 00 00	 mov	 eax, DWORD PTR ??_C@_0O@CFGLJCFC@terrain25?4att@
  00b21	89 45 d7	 mov	 DWORD PTR _MapAttrName$[ebp+435], eax
  00b24	8b 0d 04 00 00
	00		 mov	 ecx, DWORD PTR ??_C@_0O@CFGLJCFC@terrain25?4att@+4
  00b2a	89 4d db	 mov	 DWORD PTR _MapAttrName$[ebp+439], ecx
  00b2d	8b 15 08 00 00
	00		 mov	 edx, DWORD PTR ??_C@_0O@CFGLJCFC@terrain25?4att@+8
  00b33	89 55 df	 mov	 DWORD PTR _MapAttrName$[ebp+443], edx
  00b36	66 a1 0c 00 00
	00		 mov	 ax, WORD PTR ??_C@_0O@CFGLJCFC@terrain25?4att@+12
  00b3c	66 89 45 e3	 mov	 WORD PTR _MapAttrName$[ebp+447], ax
  00b40	33 c0		 xor	 eax, eax
  00b42	88 45 e5	 mov	 BYTE PTR _MapAttrName$[ebp+449], al

; 1723 : 		"terrain1.att",		// 
; 1724 : 		"terrain2.att",		//  
; 1725 : 		"terrain3.att",		// 
; 1726 : 		"terrain4.att",		// 
; 1727 : 		"terrain5.att",		//  
; 1728 : 		"terrain6.att",		// 
; 1729 : 		"terrain7.att",		// 
; 1730 : 		"terrain8.att",		// 
; 1731 : 		"terrain9.att",		// 
; 1732 : 		"terrain10.att",	// 
; 1733 : #ifdef FOR_BLOODCASTLE
; 1734 : 		"terrain11.att",	// .
; 1735 : 		"terrain12.att",	// 1
; 1736 : 		"terrain12.att",	// 2
; 1737 : 		"terrain12.att",	// 3
; 1738 : 		"terrain12.att",	// 4
; 1739 : 		"terrain12.att",	// 5
; 1740 : 		"terrain12.att",	// 6
; 1741 : #endif
; 1742 : #ifdef BLOODCASTLE_EXTEND_20040314
; 1743 : 		"terrain12.att",	// 7
; 1744 : #endif
; 1745 : #ifdef CHAOSCASTLE_SYSTEM_20040408
; 1746 : 		"terrain19.att",	//  1
; 1747 : 		"terrain19.att",	//  2
; 1748 : 		"terrain19.att",	//  3
; 1749 : 		"terrain19.att",	//  4
; 1750 : 		"terrain19.att",	//  5
; 1751 : 		"terrain19.att",	//  6
; 1752 : #endif
; 1753 : #ifdef ADD_NEW_MAP_KALIMA_20040518
; 1754 : 		"terrain25.att",	//  1
; 1755 : 		"terrain25.att",	//  2
; 1756 : 		"terrain25.att",	//  3
; 1757 : 		"terrain25.att",	//  4
; 1758 : 		"terrain25.att",	//  5
; 1759 : 		"terrain25.att",	//  6
; 1760 : #endif
; 1761 : #ifdef ADD_NEW_MAP_CASTLE_20041115
; 1762 : 		"terrain31.att",	//  
; 1763 : #endif
; 1764 : #ifdef ADD_NEW_MAP_CASTLE_HUNTZONE_20041115
; 1765 : 		"terrain32.att",	//   
; 1766 : #endif
; 1767 : #ifdef DEVILSQUARE_EXTEND_20050221			//  
; 1768 : 		"terrain33.att",	//   
; 1769 : #endif
; 1770 : #ifdef ADD_NEW_MAP_AIDA_20050617
; 1771 : 		"terrain34.att",	//  
; 1772 : #endif
; 1773 : #ifdef	ADD_NEW_MAP_CRYWOLF_FIRSTZONE_20050414 
; 1774 : 		"terrain35.att",	//  1
; 1775 : #endif
; 1776 : #ifdef	ADD_NEW_MAP_CRYWOLF_SECONDZONE_20050414 
; 1777 : 		"terrain36.att",	//  2
; 1778 : #endif
; 1779 : #ifdef HIDDEN_KALIMA_20050706
; 1780 : 		"terrain37.att",	//  
; 1781 : #endif
; 1782 : #ifdef ADD_NEW_MAP_KANTURU_COMMON_20060523
; 1783 : 		"terrain38.att",	//  1 
; 1784 : 		"terrain39.att",	//  2 		
; 1785 : #endif
; 1786 : #ifdef ADD_NEW_MAP_KANTURU_BOSS_20060627
; 1787 : 		"terrain40.att",	//   		
; 1788 : #endif
; 1789 : #ifdef UPDATE_GM_FUNCTION_20070228
; 1790 : 		"terrain41.att",	// GM  
; 1791 : #endif
; 1792 : #ifdef THIRD_CHANGEUP_SYSTEM_20070507	// 3  (att) 
; 1793 : 		"terrain42.att",	// 3   
; 1794 : 		"terrain43.att",	// 3   
; 1795 : #endif		
; 1796 : #ifdef ADD_EVENT_MAP_ILLUSION_TEMPLE_20070328
; 1797 : 		"terrain46.att",	// 
; 1798 : 		"terrain46.att",	// 
; 1799 : 		"terrain46.att",	// 1
; 1800 : 		"terrain46.att",	// 2
; 1801 : 		"terrain46.att",	// 3
; 1802 : 		"terrain46.att",	// 4
; 1803 : 		"terrain46.att",	// 5
; 1804 : 		"terrain46.att",	// 6
; 1805 : #endif
; 1806 : #ifdef ADD_SEASON_3_NEW_MAP_20070910
; 1807 : 		"terrain52.att",	//  3  
; 1808 : #endif
; 1809 : #ifdef ADD_BLOODCASTLE_FOR_MASTER_LEVEL_20071010
; 1810 : 		"terrain12.att",	// 8
; 1811 : #endif
; 1812 : #ifdef ADD_CHAOSCASTLE_FOR_MASTER_LEVEL_20071010
; 1813 : 		"terrain19.att",	//  7
; 1814 : #endif
; 1815 : #ifdef UPDATE_NEWMAP_SWAMP_OF_CALMNESS_20080108
; 1816 : 		"terrain57.att",	// !
; 1817 : 		"terrain57.att",	// !
; 1818 : 		"terrain57.att",	// 
; 1819 : #endif
; 1820 : #ifdef ADD_RAKLION_20080408
; 1821 : 		"terrain58.att",	//  
; 1822 : 		"terrain59.att",	//  
; 1823 : #endif // ADD_RAKLION_20080408
; 1824 : 
; 1825 : #ifdef UPDATE_XMASEVENT_MAP_20080930
; 1826 : 		"terrain62.att",	//   
; 1827 : 		"terrain62.att",	//   
; 1828 : 		"terrain62.att",	//   
; 1829 : 		"terrain62.att",	//   
; 1830 : #endif // UPDATE_XMASEVENT_MAP_20080930	
; 1831 : #ifdef ADD_NEWPVP_PKFIELD
; 1832 : 		"terrain63.att",	// 
; 1833 : 		"terrain64.att",	// 
; 1834 : #endif // ADD_NEWPVP_PKFIELD
; 1835 : 	};
; 1836 : 
; 1837 : #ifdef CRYWOLF_MAP_SETTING_20050915
; 1838 : 	g_Crywolf.LoadCrywolfMapAttr( gDirPath.GetNewPath("terrain35_PEACE.att"), CRYWOLF_OCCUPATION_STATE_PEACE );
; 1839 : 	g_Crywolf.LoadCrywolfMapAttr( gDirPath.GetNewPath("terrain35_OCCUPIED.att"), CRYWOLF_OCCUPATION_STATE_OCCUPIED );
; 1840 : 	g_Crywolf.LoadCrywolfMapAttr( gDirPath.GetNewPath("terrain35_WAR.att"), CRYWOLF_OCCUPATION_STATE_WAR );
; 1841 : #endif
; 1842 : 
; 1843 : #ifdef ADD_KANTURU_20060627
; 1844 : 	g_Kanturu.LoadKanturuMapAttr( gDirPath.GetNewPath( "terrain40_CLOSE.att" ), KANTURU_MAP_TOWEROFREFINEMENT_CLOSE );
; 1845 : 	g_Kanturu.LoadKanturuMapAttr( gDirPath.GetNewPath( "terrain40_OPEN.att" ), KANTURU_MAP_TOWEROFREFINEMENT_OPEN );
; 1846 : #endif
; 1847 : 
; 1848 : 	DCInfo.Init();	

  00b45	b9 00 00 00 00	 mov	 ecx, OFFSET ?DCInfo@@3Vclassdef@@A ; DCInfo
  00b4a	e8 00 00 00 00	 call	 ?Init@classdef@@QAEXXZ	; classdef::Init

; 1849 : 	ShopDataLoad();	

  00b4f	e8 00 00 00 00	 call	 ?ShopDataLoad@@YAHXZ	; ShopDataLoad

; 1850 : 	wsGServer.CreateSocket(hWnd);		// ???  

  00b54	8b 45 08	 mov	 eax, DWORD PTR _hWnd$[ebp]
  00b57	50		 push	 eax
  00b58	b9 04 00 00 00	 mov	 ecx, OFFSET ?wsGServer@@3VCwsGameServer@@A+4
  00b5d	e8 00 00 00 00	 call	 ?CreateSocket@MyWinsockBase@@QAEHPAUHWND__@@@Z ; MyWinsockBase::CreateSocket

; 1851 : 	wsJServerCli.CreateSocket(hWnd);

  00b62	8b 45 08	 mov	 eax, DWORD PTR _hWnd$[ebp]
  00b65	50		 push	 eax
  00b66	b9 04 00 00 00	 mov	 ecx, OFFSET ?wsJServerCli@@3VwsJoinServerCli@@A+4
  00b6b	e8 00 00 00 00	 call	 ?CreateSocket@MyWinsockBase@@QAEHPAUHWND__@@@Z ; MyWinsockBase::CreateSocket

; 1852 : 	wsDataCli.CreateSocket(hWnd);

  00b70	8b 45 08	 mov	 eax, DWORD PTR _hWnd$[ebp]
  00b73	50		 push	 eax
  00b74	b9 04 00 00 00	 mov	 ecx, OFFSET ?wsDataCli@@3VwsJoinServerCli@@A+4
  00b79	e8 00 00 00 00	 call	 ?CreateSocket@MyWinsockBase@@QAEHPAUHWND__@@@Z ; MyWinsockBase::CreateSocket

; 1853 : 
; 1854 : #ifdef AUTH_GAMESERVER	
; 1855 : 	gGameServerAuth.GetKey(szAuthKey, 5, 5);
; 1856 : #endif
; 1857 : 
; 1858 : #ifdef GAMESERVER_INFO_TCP_20031203
; 1859 : 	wsConnectServerCli.CreateSocket(hWnd);
; 1860 : #endif
; 1861 : 
; 1862 : 
; 1863 : 	//#ifdef _NEW_EXDB_
; 1864 : 	//##EXDB##
; 1865 : 	//wsExDbCli.CreateSocket(hWnd);
; 1866 : 	//##EXDB##
; 1867 : 	//#endif
; 1868 : 
; 1869 : #ifdef TEST_LOADING_STEP_20060211
; 1870 : 	MsgBox("#4    ");
; 1871 : #endif
; 1872 : 
; 1873 : 	//   
; 1874 : 	wsRServerCli.CreateSocket(hWnd);

  00b7e	8b 45 08	 mov	 eax, DWORD PTR _hWnd$[ebp]
  00b81	50		 push	 eax
  00b82	b9 04 00 00 00	 mov	 ecx, OFFSET ?wsRServerCli@@3VwsJoinServerCli@@A+4
  00b87	e8 00 00 00 00	 call	 ?CreateSocket@MyWinsockBase@@QAEHPAUHWND__@@@Z ; MyWinsockBase::CreateSocket

; 1875 : 
; 1876 : #ifdef TEST_LOADING_STEP_20060211
; 1877 : 	MsgBox("#5   ");
; 1878 : #endif	
; 1879 : 
; 1880 : 	//  
; 1881 : 	wsEvenChipServerCli.CreateSocket(hWnd);

  00b8c	8b 45 08	 mov	 eax, DWORD PTR _hWnd$[ebp]
  00b8f	50		 push	 eax
  00b90	b9 04 00 00 00	 mov	 ecx, OFFSET ?wsEvenChipServerCli@@3VwsJoinServerCli@@A+4
  00b95	e8 00 00 00 00	 call	 ?CreateSocket@MyWinsockBase@@QAEHPAUHWND__@@@Z ; MyWinsockBase::CreateSocket

; 1882 : 
; 1883 : #ifdef TEST_LOADING_STEP_20060211
; 1884 : 	MsgBox("#6  ");
; 1885 : #endif
; 1886 : 	
; 1887 : 	GameServerInfoSend();		//    

  00b9a	e8 00 00 00 00	 call	 ?GameServerInfoSend@@YAXXZ ; GameServerInfoSend

; 1888 : #ifdef GAMESERVER_INFO_EXTENDED_20040625	
; 1889 : 	GameServerExtInfoSend();	//     
; 1890 : #endif
; 1891 : 
; 1892 : 	GameMonsterAllAdd();

  00b9f	e8 00 00 00 00	 call	 ?GameMonsterAllAdd@@YAXXZ ; GameMonsterAllAdd

; 1893 : 	acceptIP.Load(gDirPath.GetNewPath("Iplist.dat"));

  00ba4	68 00 00 00 00	 push	 OFFSET ??_C@_0L@DPAHEMHE@Iplist?4dat@
  00ba9	b9 00 00 00 00	 mov	 ecx, OFFSET ?gDirPath@@3VCDirPath@@A ; gDirPath
  00bae	e8 00 00 00 00	 call	 ?GetNewPath@CDirPath@@QAEPADPAD@Z ; CDirPath::GetNewPath
  00bb3	50		 push	 eax
  00bb4	b9 00 00 00 00	 mov	 ecx, OFFSET ?acceptIP@@3VCAcceptIp@@A ; acceptIP
  00bb9	e8 00 00 00 00	 call	 ?Load@CAcceptIp@@QAEXPAD@Z ; CAcceptIp::Load

; 1894 : 	ConMember.Load(gDirPath.GetNewPath("ConnectMember.txt"));	

  00bbe	68 00 00 00 00	 push	 OFFSET ??_C@_0BC@FGIEIEFL@ConnectMember?4txt@
  00bc3	b9 00 00 00 00	 mov	 ecx, OFFSET ?gDirPath@@3VCDirPath@@A ; gDirPath
  00bc8	e8 00 00 00 00	 call	 ?GetNewPath@CDirPath@@QAEPADPAD@Z ; CDirPath::GetNewPath
  00bcd	50		 push	 eax
  00bce	b9 00 00 00 00	 mov	 ecx, OFFSET ?ConMember@@3VCConMember@@A ; ConMember
  00bd3	e8 00 00 00 00	 call	 ?Load@CConMember@@QAEXPAD@Z ; CConMember::Load

; 1895 : 
; 1896 : #ifndef EVENT_MANAGEMENT_20040711
; 1897 : 	DragonEvent = new CDragonEvent;
; 1898 : 	if( DragonEvent == NULL )
; 1899 : 	{
; 1900 : 		MsgBox("CDragonEvent %s", lMsg.Get(110));
; 1901 : 		return;
; 1902 : 	}
; 1903 : 
; 1904 : 	AttackEvent = new CAttackEvent;
; 1905 : 	if( AttackEvent == NULL )
; 1906 : 	{
; 1907 : 		MsgBox("AttackEvent %s", lMsg.Get(110));
; 1908 : 		return;
; 1909 : 	}
; 1910 : #endif
; 1911 : 	
; 1912 : 	GCTeleportSend(&gObj[0], 1, 1, 1, 2, 3);		// ???  

  00bd8	6a 03		 push	 3
  00bda	6a 02		 push	 2
  00bdc	6a 01		 push	 1
  00bde	6a 01		 push	 1
  00be0	6a 01		 push	 1
  00be2	b8 a0 1b 00 00	 mov	 eax, 7072		; 00001ba0H
  00be7	6b c8 00	 imul	 ecx, eax, 0
  00bea	03 0d 00 00 00
	00		 add	 ecx, DWORD PTR ?gObj@@3PAVOBJECTSTRUCT@@A ; gObj
  00bf0	51		 push	 ecx
  00bf1	e8 00 00 00 00	 call	 ?GCTeleportSend@@YAXPAVOBJECTSTRUCT@@EEEEE@Z ; GCTeleportSend
  00bf6	83 c4 18	 add	 esp, 24			; 00000018H
$LN1@GameMainIn:

; 1913 : 
; 1914 : #ifdef AUTH_GAMESERVER	
; 1915 : 	gGameServerAuth.GetKey(szAuthKey, 15, 5);
; 1916 : #endif
; 1917 : 
; 1918 : #ifndef GAMESERVER_TO_CASTLESIEGESERVER
; 1919 : #ifdef ADD_RAKLION_20080408
; 1920 : 	g_Raklion.SetState( RAKLION_STATE_END );
; 1921 : #endif // ADD_RAKLION_20080408
; 1922 : #endif // GAMESERVER_TO_CASTLESIEGESERVER
; 1923 : 
; 1924 : #ifdef MODIFY_LUA_SCRIPT_20090430
; 1925 : 	g_MuLua.DoFile(gDirPath.GetNewPath("Lua_Test.lua"));
; 1926 : 
; 1927 : 	/////////   .    ///////
; 1928 : 	//----------------->
; 1929 : 	int result = 0;
; 1930 : 	lua_State *L = g_MuLua.GetLua();
; 1931 : 	g_Generic_Call(L, "LuaBindReturn", ">i", &result);
; 1932 : 	
; 1933 : 	TRACE_LOG("\n result %d",result);	
; 1934 : 	//<-----------------
; 1935 : #endif
; 1936 : 
; 1937 : }

  00bf9	8b 4d f4	 mov	 ecx, DWORD PTR __$EHRec$[ebp]
  00bfc	64 89 0d 00 00
	00 00		 mov	 DWORD PTR fs:0, ecx
  00c03	59		 pop	 ecx
  00c04	5f		 pop	 edi
  00c05	5e		 pop	 esi
  00c06	5b		 pop	 ebx
  00c07	8b 4d f0	 mov	 ecx, DWORD PTR __$ArrayPad$[ebp]
  00c0a	33 cd		 xor	 ecx, ebp
  00c0c	e8 00 00 00 00	 call	 @__security_check_cookie@4
  00c11	8b e5		 mov	 esp, ebp
  00c13	5d		 pop	 ebp
  00c14	c3		 ret	 0
_TEXT	ENDS
;	COMDAT text$x
text$x	SEGMENT
__unwindfunclet$?GameMainInit@@YAXPAUHWND__@@@Z$0:
  00000	6a 14		 push	 20			; 00000014H
  00002	8b 85 9c fd ff
	ff		 mov	 eax, DWORD PTR $T7[ebp]
  00008	50		 push	 eax
  00009	e8 00 00 00 00	 call	 ??3@YAXPAXI@Z		; operator delete
  0000e	83 c4 08	 add	 esp, 8
  00011	c3		 ret	 0
__unwindfunclet$?GameMainInit@@YAXPAUHWND__@@@Z$1:
  00012	6a 2c		 push	 44			; 0000002cH
  00014	8b 85 94 fd ff
	ff		 mov	 eax, DWORD PTR $T5[ebp]
  0001a	50		 push	 eax
  0001b	e8 00 00 00 00	 call	 ??3@YAXPAXI@Z		; operator delete
  00020	83 c4 08	 add	 esp, 8
  00023	c3		 ret	 0
__unwindfunclet$?GameMainInit@@YAXPAUHWND__@@@Z$2:
  00024	33 db		 xor	 ebx, ebx
  00026	8b 85 90 fd ff
	ff		 mov	 eax, DWORD PTR $T4[ebp]
  0002c	b9 8c 04 05 00	 mov	 ecx, 328844		; 0005048cH
  00031	f7 e1		 mul	 ecx
  00033	0f 90 c3	 seto	 bl
  00036	f7 db		 neg	 ebx
  00038	0b d8		 or	 ebx, eax
  0003a	33 c0		 xor	 eax, eax
  0003c	83 c3 04	 add	 ebx, 4
  0003f	0f 92 c0	 setb	 al
  00042	f7 d8		 neg	 eax
  00044	0b c3		 or	 eax, ebx
  00046	50		 push	 eax
  00047	8b 85 88 fd ff
	ff		 mov	 eax, DWORD PTR $T2[ebp]
  0004d	50		 push	 eax
  0004e	e8 00 00 00 00	 call	 ??_V@YAXPAXI@Z		; operator delete[]
  00053	83 c4 08	 add	 esp, 8
  00056	c3		 ret	 0
  00057	cc		 int	 3
  00058	cc		 int	 3
  00059	cc		 int	 3
  0005a	cc		 int	 3
  0005b	cc		 int	 3
__ehhandler$?GameMainInit@@YAXPAUHWND__@@@Z:
  0005c	90		 npad	 1
  0005d	90		 npad	 1
  0005e	8b 54 24 08	 mov	 edx, DWORD PTR [esp+8]
  00062	8d 42 0c	 lea	 eax, DWORD PTR [edx+12]
  00065	8b 8a 78 fd ff
	ff		 mov	 ecx, DWORD PTR [edx-648]
  0006b	33 c8		 xor	 ecx, eax
  0006d	e8 00 00 00 00	 call	 @__security_check_cookie@4
  00072	8b 4a fc	 mov	 ecx, DWORD PTR [edx-4]
  00075	33 c8		 xor	 ecx, eax
  00077	e8 00 00 00 00	 call	 @__security_check_cookie@4
  0007c	b8 00 00 00 00	 mov	 eax, OFFSET __ehfuncinfo$?GameMainInit@@YAXPAUHWND__@@@Z
  00081	e9 00 00 00 00	 jmp	 ___CxxFrameHandler3
text$x	ENDS
?GameMainInit@@YAXPAUHWND__@@@Z ENDP			; GameMainInit
; Function compile flags: /Odtp /ZI
; File C:\Mu Online\Mu-GS-Webzen-MC-10093\GameServer\Gamemain.cpp
;	COMDAT ?gSetDate@@YAXXZ
_TEXT	SEGMENT
_ltime$ = -12						; size = 8
_today$ = -4						; size = 4
?gSetDate@@YAXXZ PROC					; gSetDate, COMDAT

; 1452 : {

  00000	55		 push	 ebp
  00001	8b ec		 mov	 ebp, esp
  00003	83 ec 4c	 sub	 esp, 76			; 0000004cH
  00006	53		 push	 ebx
  00007	56		 push	 esi
  00008	57		 push	 edi

; 1453 : 	struct tm *today;
; 1454 : 	time_t ltime;
; 1455 : 	
; 1456 : 	time( &ltime );

  00009	8d 45 f4	 lea	 eax, DWORD PTR _ltime$[ebp]
  0000c	50		 push	 eax
  0000d	e8 00 00 00 00	 call	 _time
  00012	83 c4 04	 add	 esp, 4

; 1457 : 	today = localtime( &ltime );

  00015	8d 45 f4	 lea	 eax, DWORD PTR _ltime$[ebp]
  00018	50		 push	 eax
  00019	e8 00 00 00 00	 call	 _localtime
  0001e	83 c4 04	 add	 esp, 4
  00021	89 45 fc	 mov	 DWORD PTR _today$[ebp], eax

; 1458 : 	
; 1459 : 	today->tm_year += 1900;

  00024	8b 45 fc	 mov	 eax, DWORD PTR _today$[ebp]
  00027	8b 48 14	 mov	 ecx, DWORD PTR [eax+20]
  0002a	81 c1 6c 07 00
	00		 add	 ecx, 1900		; 0000076cH
  00030	8b 55 fc	 mov	 edx, DWORD PTR _today$[ebp]
  00033	89 4a 14	 mov	 DWORD PTR [edx+20], ecx

; 1460 : 	gYear = today->tm_year;

  00036	8b 45 fc	 mov	 eax, DWORD PTR _today$[ebp]
  00039	8b 48 14	 mov	 ecx, DWORD PTR [eax+20]
  0003c	89 0d 00 00 00
	00		 mov	 DWORD PTR ?gYear@@3HA, ecx ; gYear

; 1461 : }

  00042	5f		 pop	 edi
  00043	5e		 pop	 esi
  00044	5b		 pop	 ebx
  00045	8b e5		 mov	 esp, ebp
  00047	5d		 pop	 ebp
  00048	c3		 ret	 0
?gSetDate@@YAXXZ ENDP					; gSetDate
_TEXT	ENDS
; Function compile flags: /Odtp /ZI
;	COMDAT ??_EMapClass@@UAEPAXI@Z
_TEXT	SEGMENT
_this$ = -16						; size = 4
__$EHRec$ = -12						; size = 12
___flags$ = 8						; size = 4
??_EMapClass@@UAEPAXI@Z PROC				; MapClass::`vector deleting destructor', COMDAT
; _this$ = ecx
  00000	55		 push	 ebp
  00001	8b ec		 mov	 ebp, esp
  00003	6a ff		 push	 -1
  00005	68 00 00 00 00	 push	 __ehhandler$??_EMapClass@@UAEPAXI@Z
  0000a	64 a1 00 00 00
	00		 mov	 eax, DWORD PTR fs:0
  00010	50		 push	 eax
  00011	83 ec 44	 sub	 esp, 68			; 00000044H
  00014	53		 push	 ebx
  00015	56		 push	 esi
  00016	57		 push	 edi
  00017	a1 00 00 00 00	 mov	 eax, DWORD PTR ___security_cookie
  0001c	33 c5		 xor	 eax, ebp
  0001e	50		 push	 eax
  0001f	8d 45 f4	 lea	 eax, DWORD PTR __$EHRec$[ebp]
  00022	64 a3 00 00 00
	00		 mov	 DWORD PTR fs:0, eax
  00028	89 4d f0	 mov	 DWORD PTR _this$[ebp], ecx
  0002b	8b 45 08	 mov	 eax, DWORD PTR ___flags$[ebp]
  0002e	83 e0 02	 and	 eax, 2
  00031	74 47		 je	 SHORT $LN2@vector
  00033	68 00 00 00 00	 push	 OFFSET ??1MapClass@@UAE@XZ ; MapClass::~MapClass
  00038	8b 45 f0	 mov	 eax, DWORD PTR _this$[ebp]
  0003b	8b 48 fc	 mov	 ecx, DWORD PTR [eax-4]
  0003e	51		 push	 ecx
  0003f	68 8c 04 05 00	 push	 328844			; 0005048cH
  00044	8b 55 f0	 mov	 edx, DWORD PTR _this$[ebp]
  00047	52		 push	 edx
  00048	e8 00 00 00 00	 call	 ??_M@YGXPAXIIP6EX0@Z@Z
  0004d	8b 45 08	 mov	 eax, DWORD PTR ___flags$[ebp]
  00050	83 e0 01	 and	 eax, 1
  00053	74 1d		 je	 SHORT $LN3@vector
  00055	8b 45 f0	 mov	 eax, DWORD PTR _this$[ebp]
  00058	69 48 fc 8c 04
	05 00		 imul	 ecx, DWORD PTR [eax-4], 328844
  0005f	83 c1 04	 add	 ecx, 4
  00062	51		 push	 ecx
  00063	8b 55 f0	 mov	 edx, DWORD PTR _this$[ebp]
  00066	83 ea 04	 sub	 edx, 4
  00069	52		 push	 edx
  0006a	e8 00 00 00 00	 call	 ??_V@YAXPAXI@Z		; operator delete[]
  0006f	83 c4 08	 add	 esp, 8
$LN3@vector:
  00072	8b 45 f0	 mov	 eax, DWORD PTR _this$[ebp]
  00075	83 e8 04	 sub	 eax, 4
  00078	eb 24		 jmp	 SHORT $LN5@vector
$LN2@vector:
  0007a	8b 4d f0	 mov	 ecx, DWORD PTR _this$[ebp]
  0007d	e8 00 00 00 00	 call	 ??1MapClass@@UAE@XZ	; MapClass::~MapClass
  00082	8b 45 08	 mov	 eax, DWORD PTR ___flags$[ebp]
  00085	83 e0 01	 and	 eax, 1
  00088	74 11		 je	 SHORT $LN4@vector
  0008a	68 8c 04 05 00	 push	 328844			; 0005048cH
  0008f	8b 45 f0	 mov	 eax, DWORD PTR _this$[ebp]
  00092	50		 push	 eax
  00093	e8 00 00 00 00	 call	 ??3@YAXPAXI@Z		; operator delete
  00098	83 c4 08	 add	 esp, 8
$LN4@vector:
  0009b	8b 45 f0	 mov	 eax, DWORD PTR _this$[ebp]
$LN5@vector:
  0009e	8b 4d f4	 mov	 ecx, DWORD PTR __$EHRec$[ebp]
  000a1	64 89 0d 00 00
	00 00		 mov	 DWORD PTR fs:0, ecx
  000a8	59		 pop	 ecx
  000a9	5f		 pop	 edi
  000aa	5e		 pop	 esi
  000ab	5b		 pop	 ebx
  000ac	8b e5		 mov	 esp, ebp
  000ae	5d		 pop	 ebp
  000af	c2 04 00	 ret	 4
  000b2	cc		 int	 3
  000b3	cc		 int	 3
  000b4	cc		 int	 3
  000b5	cc		 int	 3
  000b6	cc		 int	 3
_TEXT	ENDS
;	COMDAT text$x
text$x	SEGMENT
__ehhandler$??_EMapClass@@UAEPAXI@Z:
  00000	90		 npad	 1
  00001	90		 npad	 1
  00002	8b 54 24 08	 mov	 edx, DWORD PTR [esp+8]
  00006	8d 42 0c	 lea	 eax, DWORD PTR [edx+12]
  00009	8b 4a ac	 mov	 ecx, DWORD PTR [edx-84]
  0000c	33 c8		 xor	 ecx, eax
  0000e	e8 00 00 00 00	 call	 @__security_check_cookie@4
  00013	b8 00 00 00 00	 mov	 eax, OFFSET __ehfuncinfo$??_EMapClass@@UAEPAXI@Z
  00018	e9 00 00 00 00	 jmp	 ___CxxFrameHandler3
text$x	ENDS
??_EMapClass@@UAEPAXI@Z ENDP				; MapClass::`vector deleting destructor'
; Function compile flags: /Odtp /ZI
; File C:\Program Files (x86)\Microsoft Visual Studio\2019\Community\VC\Tools\MSVC\14.27.29110\include\map
;	COMDAT ??$_Kfn@$$CBHU_TERRAIN_INFO@@@?$_Tmap_traits@HU_TERRAIN_INFO@@U?$less@H@std@@V?$allocator@U?$pair@$$CBHU_TERRAIN_INFO@@@std@@@3@$0A@@std@@SAABHABU?$pair@$$CBHU_TERRAIN_INFO@@@1@@Z
_TEXT	SEGMENT
__Val$ = 8						; size = 4
??$_Kfn@$$CBHU_TERRAIN_INFO@@@?$_Tmap_traits@HU_TERRAIN_INFO@@U?$less@H@std@@V?$allocator@U?$pair@$$CBHU_TERRAIN_INFO@@@std@@@3@$0A@@std@@SAABHABU?$pair@$$CBHU_TERRAIN_INFO@@@1@@Z PROC ; std::_Tmap_traits<int,_TERRAIN_INFO,std::less<int>,std::allocator<std::pair<int const ,_TERRAIN_INFO> >,0>::_Kfn<int const ,_TERRAIN_INFO>, COMDAT

; 68   :     static const _Kty& _Kfn(const pair<_Ty1, _Ty2>& _Val) { // extract key from element value

  00000	55		 push	 ebp
  00001	8b ec		 mov	 ebp, esp
  00003	83 ec 40	 sub	 esp, 64			; 00000040H
  00006	53		 push	 ebx
  00007	56		 push	 esi
  00008	57		 push	 edi

; 69   :         return _Val.first;

  00009	8b 45 08	 mov	 eax, DWORD PTR __Val$[ebp]

; 70   :     }

  0000c	5f		 pop	 edi
  0000d	5e		 pop	 esi
  0000e	5b		 pop	 ebx
  0000f	8b e5		 mov	 esp, ebp
  00011	5d		 pop	 ebp
  00012	c3		 ret	 0
??$_Kfn@$$CBHU_TERRAIN_INFO@@@?$_Tmap_traits@HU_TERRAIN_INFO@@U?$less@H@std@@V?$allocator@U?$pair@$$CBHU_TERRAIN_INFO@@@std@@@3@$0A@@std@@SAABHABU?$pair@$$CBHU_TERRAIN_INFO@@@1@@Z ENDP ; std::_Tmap_traits<int,_TERRAIN_INFO,std::less<int>,std::allocator<std::pair<int const ,_TERRAIN_INFO> >,0>::_Kfn<int const ,_TERRAIN_INFO>
_TEXT	ENDS
; Function compile flags: /Odtp /ZI
; File C:\Program Files (x86)\Microsoft Visual Studio\2019\Community\VC\Tools\MSVC\14.27.29110\include\xstddef
;	COMDAT ??$addressof@$$CBV?$_Tree_val@U?$_Tree_simple_types@U?$pair@$$CBHU_TERRAIN_INFO@@@std@@@std@@@std@@@std@@YAPBV?$_Tree_val@U?$_Tree_simple_types@U?$pair@$$CBHU_TERRAIN_INFO@@@std@@@std@@@0@ABV10@@Z
_TEXT	SEGMENT
__Val$ = 8						; size = 4
??$addressof@$$CBV?$_Tree_val@U?$_Tree_simple_types@U?$pair@$$CBHU_TERRAIN_INFO@@@std@@@std@@@std@@@std@@YAPBV?$_Tree_val@U?$_Tree_simple_types@U?$pair@$$CBHU_TERRAIN_INFO@@@std@@@std@@@0@ABV10@@Z PROC ; std::addressof<std::_Tree_val<std::_Tree_simple_types<std::pair<int const ,_TERRAIN_INFO> > > const >, COMDAT

; 274  : _NODISCARD constexpr _Ty* addressof(_Ty& _Val) noexcept {

  00000	55		 push	 ebp
  00001	8b ec		 mov	 ebp, esp
  00003	83 ec 40	 sub	 esp, 64			; 00000040H
  00006	53		 push	 ebx
  00007	56		 push	 esi
  00008	57		 push	 edi

; 275  :     return __builtin_addressof(_Val);

  00009	8b 45 08	 mov	 eax, DWORD PTR __Val$[ebp]

; 276  : }

  0000c	5f		 pop	 edi
  0000d	5e		 pop	 esi
  0000e	5b		 pop	 ebx
  0000f	8b e5		 mov	 esp, ebp
  00011	5d		 pop	 ebp
  00012	c3		 ret	 0
??$addressof@$$CBV?$_Tree_val@U?$_Tree_simple_types@U?$pair@$$CBHU_TERRAIN_INFO@@@std@@@std@@@std@@@std@@YAPBV?$_Tree_val@U?$_Tree_simple_types@U?$pair@$$CBHU_TERRAIN_INFO@@@std@@@std@@@0@ABV10@@Z ENDP ; std::addressof<std::_Tree_val<std::_Tree_simple_types<std::pair<int const ,_TERRAIN_INFO> > > const >
_TEXT	ENDS
; Function compile flags: /Odtp /ZI
; File C:\Program Files (x86)\Microsoft Visual Studio\2019\Community\VC\Tools\MSVC\14.27.29110\include\xtree
;	COMDAT ??$_Lower_bound_duplicate@H@?$_Tree@V?$_Tmap_traits@HU_TERRAIN_INFO@@U?$less@H@std@@V?$allocator@U?$pair@$$CBHU_TERRAIN_INFO@@@std@@@3@$0A@@std@@@std@@IBE_NQAU?$_Tree_node@U?$pair@$$CBHU_TERRAIN_INFO@@@std@@PAX@1@ABH@Z
_TEXT	SEGMENT
tv78 = -72						; size = 4
_this$ = -4						; size = 4
__Bound$ = 8						; size = 4
__Keyval$ = 12						; size = 4
??$_Lower_bound_duplicate@H@?$_Tree@V?$_Tmap_traits@HU_TERRAIN_INFO@@U?$less@H@std@@V?$allocator@U?$pair@$$CBHU_TERRAIN_INFO@@@std@@@3@$0A@@std@@@std@@IBE_NQAU?$_Tree_node@U?$pair@$$CBHU_TERRAIN_INFO@@@std@@PAX@1@ABH@Z PROC ; std::_Tree<std::_Tmap_traits<int,_TERRAIN_INFO,std::less<int>,std::allocator<std::pair<int const ,_TERRAIN_INFO> >,0> >::_Lower_bound_duplicate<int>, COMDAT
; _this$ = ecx

; 1694 :     bool _Lower_bound_duplicate(const _Nodeptr _Bound, const _Keyty& _Keyval) const {

  00000	55		 push	 ebp
  00001	8b ec		 mov	 ebp, esp
  00003	83 ec 48	 sub	 esp, 72			; 00000048H
  00006	53		 push	 ebx
  00007	56		 push	 esi
  00008	57		 push	 edi
  00009	89 4d fc	 mov	 DWORD PTR _this$[ebp], ecx

; 1695 :         return !_Bound->_Isnil && !_DEBUG_LT_PRED(_Getcomp(), _Keyval, _Traits::_Kfn(_Bound->_Myval));

  0000c	8b 45 08	 mov	 eax, DWORD PTR __Bound$[ebp]
  0000f	0f be 48 0d	 movsx	 ecx, BYTE PTR [eax+13]
  00013	85 c9		 test	 ecx, ecx
  00015	75 33		 jne	 SHORT $LN3@Lower_boun
  00017	8b 55 08	 mov	 edx, DWORD PTR __Bound$[ebp]
  0001a	83 c2 10	 add	 edx, 16			; 00000010H
  0001d	52		 push	 edx
  0001e	e8 00 00 00 00	 call	 ??$_Kfn@$$CBHU_TERRAIN_INFO@@@?$_Tmap_traits@HU_TERRAIN_INFO@@U?$less@H@std@@V?$allocator@U?$pair@$$CBHU_TERRAIN_INFO@@@std@@@3@$0A@@std@@SAABHABU?$pair@$$CBHU_TERRAIN_INFO@@@1@@Z ; std::_Tmap_traits<int,_TERRAIN_INFO,std::less<int>,std::allocator<std::pair<int const ,_TERRAIN_INFO> >,0>::_Kfn<int const ,_TERRAIN_INFO>
  00023	83 c4 04	 add	 esp, 4
  00026	50		 push	 eax
  00027	8b 45 0c	 mov	 eax, DWORD PTR __Keyval$[ebp]
  0002a	50		 push	 eax
  0002b	8b 4d fc	 mov	 ecx, DWORD PTR _this$[ebp]
  0002e	e8 00 00 00 00	 call	 ?_Getcomp@?$_Tree@V?$_Tmap_traits@HU_TERRAIN_INFO@@U?$less@H@std@@V?$allocator@U?$pair@$$CBHU_TERRAIN_INFO@@@std@@@3@$0A@@std@@@std@@IBEABU?$less@H@2@XZ ; std::_Tree<std::_Tmap_traits<int,_TERRAIN_INFO,std::less<int>,std::allocator<std::pair<int const ,_TERRAIN_INFO> >,0> >::_Getcomp
  00033	8b c8		 mov	 ecx, eax
  00035	e8 00 00 00 00	 call	 ??R?$less@H@std@@QBE_NABH0@Z ; std::less<int>::operator()
  0003a	0f b6 c8	 movzx	 ecx, al
  0003d	85 c9		 test	 ecx, ecx
  0003f	75 09		 jne	 SHORT $LN3@Lower_boun
  00041	c7 45 b8 01 00
	00 00		 mov	 DWORD PTR tv78[ebp], 1
  00048	eb 07		 jmp	 SHORT $LN4@Lower_boun
$LN3@Lower_boun:
  0004a	c7 45 b8 00 00
	00 00		 mov	 DWORD PTR tv78[ebp], 0
$LN4@Lower_boun:
  00051	8a 45 b8	 mov	 al, BYTE PTR tv78[ebp]

; 1696 :     }

  00054	5f		 pop	 edi
  00055	5e		 pop	 esi
  00056	5b		 pop	 ebx
  00057	8b e5		 mov	 esp, ebp
  00059	5d		 pop	 ebp
  0005a	c2 08 00	 ret	 8
??$_Lower_bound_duplicate@H@?$_Tree@V?$_Tmap_traits@HU_TERRAIN_INFO@@U?$less@H@std@@V?$allocator@U?$pair@$$CBHU_TERRAIN_INFO@@@std@@@3@$0A@@std@@@std@@IBE_NQAU?$_Tree_node@U?$pair@$$CBHU_TERRAIN_INFO@@@std@@PAX@1@ABH@Z ENDP ; std::_Tree<std::_Tmap_traits<int,_TERRAIN_INFO,std::less<int>,std::allocator<std::pair<int const ,_TERRAIN_INFO> >,0> >::_Lower_bound_duplicate<int>
_TEXT	ENDS
; Function compile flags: /Odtp /ZI
; File C:\Program Files (x86)\Microsoft Visual Studio\2019\Community\VC\Tools\MSVC\14.27.29110\include\xtree
;	COMDAT ??$_Find_lower_bound@H@?$_Tree@V?$_Tmap_traits@HU_TERRAIN_INFO@@U?$less@H@std@@V?$allocator@U?$pair@$$CBHU_TERRAIN_INFO@@@std@@@3@$0A@@std@@@std@@IBE?AU?$_Tree_find_result@PAU?$_Tree_node@U?$pair@$$CBHU_TERRAIN_INFO@@@std@@PAX@std@@@1@ABH@Z
_TEXT	SEGMENT
__Trynode$ = -24					; size = 4
__Result$ = -20						; size = 12
__Scary$ = -8						; size = 4
_this$ = -4						; size = 4
___$ReturnUdt$ = 8					; size = 4
__Keyval$ = 12						; size = 4
??$_Find_lower_bound@H@?$_Tree@V?$_Tmap_traits@HU_TERRAIN_INFO@@U?$less@H@std@@V?$allocator@U?$pair@$$CBHU_TERRAIN_INFO@@@std@@@3@$0A@@std@@@std@@IBE?AU?$_Tree_find_result@PAU?$_Tree_node@U?$pair@$$CBHU_TERRAIN_INFO@@@std@@PAX@std@@@1@ABH@Z PROC ; std::_Tree<std::_Tmap_traits<int,_TERRAIN_INFO,std::less<int>,std::allocator<std::pair<int const ,_TERRAIN_INFO> >,0> >::_Find_lower_bound<int>, COMDAT
; _this$ = ecx

; 1699 :     _Tree_find_result<_Nodeptr> _Find_lower_bound(const _Keyty& _Keyval) const {

  00000	55		 push	 ebp
  00001	8b ec		 mov	 ebp, esp
  00003	83 ec 58	 sub	 esp, 88			; 00000058H
  00006	53		 push	 ebx
  00007	56		 push	 esi
  00008	57		 push	 edi
  00009	89 4d fc	 mov	 DWORD PTR _this$[ebp], ecx

; 1700 :         const auto _Scary = _Get_scary();

  0000c	8b 4d fc	 mov	 ecx, DWORD PTR _this$[ebp]
  0000f	e8 00 00 00 00	 call	 ?_Get_scary@?$_Tree@V?$_Tmap_traits@HU_TERRAIN_INFO@@U?$less@H@std@@V?$allocator@U?$pair@$$CBHU_TERRAIN_INFO@@@std@@@3@$0A@@std@@@std@@IBEPBV?$_Tree_val@U?$_Tree_simple_types@U?$pair@$$CBHU_TERRAIN_INFO@@@std@@@std@@@2@XZ ; std::_Tree<std::_Tmap_traits<int,_TERRAIN_INFO,std::less<int>,std::allocator<std::pair<int const ,_TERRAIN_INFO> >,0> >::_Get_scary
  00014	89 45 f8	 mov	 DWORD PTR __Scary$[ebp], eax

; 1701 :         _Tree_find_result<_Nodeptr> _Result{{_Scary->_Myhead->_Parent, _Tree_child::_Right}, _Scary->_Myhead};

  00017	8b 45 f8	 mov	 eax, DWORD PTR __Scary$[ebp]
  0001a	8b 08		 mov	 ecx, DWORD PTR [eax]
  0001c	8b 51 04	 mov	 edx, DWORD PTR [ecx+4]
  0001f	89 55 ec	 mov	 DWORD PTR __Result$[ebp], edx
  00022	c7 45 f0 00 00
	00 00		 mov	 DWORD PTR __Result$[ebp+4], 0
  00029	8b 45 f8	 mov	 eax, DWORD PTR __Scary$[ebp]
  0002c	8b 08		 mov	 ecx, DWORD PTR [eax]
  0002e	89 4d f4	 mov	 DWORD PTR __Result$[ebp+8], ecx

; 1702 :         _Nodeptr _Trynode = _Result._Location._Parent;

  00031	8b 45 ec	 mov	 eax, DWORD PTR __Result$[ebp]
  00034	89 45 e8	 mov	 DWORD PTR __Trynode$[ebp], eax
$LN2@Find_lower:

; 1703 :         while (!_Trynode->_Isnil) {

  00037	8b 45 e8	 mov	 eax, DWORD PTR __Trynode$[ebp]
  0003a	0f be 48 0d	 movsx	 ecx, BYTE PTR [eax+13]
  0003e	85 c9		 test	 ecx, ecx
  00040	75 59		 jne	 SHORT $LN3@Find_lower

; 1704 :             _Result._Location._Parent = _Trynode;

  00042	8b 45 e8	 mov	 eax, DWORD PTR __Trynode$[ebp]
  00045	89 45 ec	 mov	 DWORD PTR __Result$[ebp], eax

; 1705 :             if (_DEBUG_LT_PRED(_Getcomp(), _Traits::_Kfn(_Trynode->_Myval), _Keyval)) {

  00048	8b 45 0c	 mov	 eax, DWORD PTR __Keyval$[ebp]
  0004b	50		 push	 eax
  0004c	8b 4d e8	 mov	 ecx, DWORD PTR __Trynode$[ebp]
  0004f	83 c1 10	 add	 ecx, 16			; 00000010H
  00052	51		 push	 ecx
  00053	e8 00 00 00 00	 call	 ??$_Kfn@$$CBHU_TERRAIN_INFO@@@?$_Tmap_traits@HU_TERRAIN_INFO@@U?$less@H@std@@V?$allocator@U?$pair@$$CBHU_TERRAIN_INFO@@@std@@@3@$0A@@std@@SAABHABU?$pair@$$CBHU_TERRAIN_INFO@@@1@@Z ; std::_Tmap_traits<int,_TERRAIN_INFO,std::less<int>,std::allocator<std::pair<int const ,_TERRAIN_INFO> >,0>::_Kfn<int const ,_TERRAIN_INFO>
  00058	83 c4 04	 add	 esp, 4
  0005b	50		 push	 eax
  0005c	8b 4d fc	 mov	 ecx, DWORD PTR _this$[ebp]
  0005f	e8 00 00 00 00	 call	 ?_Getcomp@?$_Tree@V?$_Tmap_traits@HU_TERRAIN_INFO@@U?$less@H@std@@V?$allocator@U?$pair@$$CBHU_TERRAIN_INFO@@@std@@@3@$0A@@std@@@std@@IBEABU?$less@H@2@XZ ; std::_Tree<std::_Tmap_traits<int,_TERRAIN_INFO,std::less<int>,std::allocator<std::pair<int const ,_TERRAIN_INFO> >,0> >::_Getcomp
  00064	8b c8		 mov	 ecx, eax
  00066	e8 00 00 00 00	 call	 ??R?$less@H@std@@QBE_NABH0@Z ; std::less<int>::operator()
  0006b	0f b6 d0	 movzx	 edx, al
  0006e	85 d2		 test	 edx, edx
  00070	74 12		 je	 SHORT $LN4@Find_lower

; 1706 :                 _Result._Location._Child = _Tree_child::_Right;

  00072	c7 45 f0 00 00
	00 00		 mov	 DWORD PTR __Result$[ebp+4], 0

; 1707 :                 _Trynode                 = _Trynode->_Right;

  00079	8b 45 e8	 mov	 eax, DWORD PTR __Trynode$[ebp]
  0007c	8b 48 08	 mov	 ecx, DWORD PTR [eax+8]
  0007f	89 4d e8	 mov	 DWORD PTR __Trynode$[ebp], ecx

; 1708 :             } else {

  00082	eb 15		 jmp	 SHORT $LN5@Find_lower
$LN4@Find_lower:

; 1709 :                 _Result._Location._Child = _Tree_child::_Left;

  00084	c7 45 f0 01 00
	00 00		 mov	 DWORD PTR __Result$[ebp+4], 1

; 1710 :                 _Result._Bound           = _Trynode;

  0008b	8b 45 e8	 mov	 eax, DWORD PTR __Trynode$[ebp]
  0008e	89 45 f4	 mov	 DWORD PTR __Result$[ebp+8], eax

; 1711 :                 _Trynode                 = _Trynode->_Left;

  00091	8b 45 e8	 mov	 eax, DWORD PTR __Trynode$[ebp]
  00094	8b 08		 mov	 ecx, DWORD PTR [eax]
  00096	89 4d e8	 mov	 DWORD PTR __Trynode$[ebp], ecx
$LN5@Find_lower:

; 1712 :             }
; 1713 :         }

  00099	eb 9c		 jmp	 SHORT $LN2@Find_lower
$LN3@Find_lower:

; 1714 : 
; 1715 :         return _Result;

  0009b	8b 45 08	 mov	 eax, DWORD PTR ___$ReturnUdt$[ebp]
  0009e	8b 4d ec	 mov	 ecx, DWORD PTR __Result$[ebp]
  000a1	89 08		 mov	 DWORD PTR [eax], ecx
  000a3	8b 55 f0	 mov	 edx, DWORD PTR __Result$[ebp+4]
  000a6	89 50 04	 mov	 DWORD PTR [eax+4], edx
  000a9	8b 4d f4	 mov	 ecx, DWORD PTR __Result$[ebp+8]
  000ac	89 48 08	 mov	 DWORD PTR [eax+8], ecx
  000af	8b 45 08	 mov	 eax, DWORD PTR ___$ReturnUdt$[ebp]

; 1716 :     }

  000b2	5f		 pop	 edi
  000b3	5e		 pop	 esi
  000b4	5b		 pop	 ebx
  000b5	8b e5		 mov	 esp, ebp
  000b7	5d		 pop	 ebp
  000b8	c2 08 00	 ret	 8
??$_Find_lower_bound@H@?$_Tree@V?$_Tmap_traits@HU_TERRAIN_INFO@@U?$less@H@std@@V?$allocator@U?$pair@$$CBHU_TERRAIN_INFO@@@std@@@3@$0A@@std@@@std@@IBE?AU?$_Tree_find_result@PAU?$_Tree_node@U?$pair@$$CBHU_TERRAIN_INFO@@@std@@PAX@std@@@1@ABH@Z ENDP ; std::_Tree<std::_Tmap_traits<int,_TERRAIN_INFO,std::less<int>,std::allocator<std::pair<int const ,_TERRAIN_INFO> >,0> >::_Find_lower_bound<int>
_TEXT	ENDS
; Function compile flags: /Odtp /ZI
; File C:\Program Files (x86)\Microsoft Visual Studio\2019\Community\VC\Tools\MSVC\14.27.29110\include\xstddef
;	COMDAT ??$addressof@V?$_Tree_val@U?$_Tree_simple_types@U?$pair@$$CBHU_TERRAIN_INFO@@@std@@@std@@@std@@@std@@YAPAV?$_Tree_val@U?$_Tree_simple_types@U?$pair@$$CBHU_TERRAIN_INFO@@@std@@@std@@@0@AAV10@@Z
_TEXT	SEGMENT
__Val$ = 8						; size = 4
??$addressof@V?$_Tree_val@U?$_Tree_simple_types@U?$pair@$$CBHU_TERRAIN_INFO@@@std@@@std@@@std@@@std@@YAPAV?$_Tree_val@U?$_Tree_simple_types@U?$pair@$$CBHU_TERRAIN_INFO@@@std@@@std@@@0@AAV10@@Z PROC ; std::addressof<std::_Tree_val<std::_Tree_simple_types<std::pair<int const ,_TERRAIN_INFO> > > >, COMDAT

; 274  : _NODISCARD constexpr _Ty* addressof(_Ty& _Val) noexcept {

  00000	55		 push	 ebp
  00001	8b ec		 mov	 ebp, esp
  00003	83 ec 40	 sub	 esp, 64			; 00000040H
  00006	53		 push	 ebx
  00007	56		 push	 esi
  00008	57		 push	 edi

; 275  :     return __builtin_addressof(_Val);

  00009	8b 45 08	 mov	 eax, DWORD PTR __Val$[ebp]

; 276  : }

  0000c	5f		 pop	 edi
  0000d	5e		 pop	 esi
  0000e	5b		 pop	 ebx
  0000f	8b e5		 mov	 esp, ebp
  00011	5d		 pop	 ebp
  00012	c3		 ret	 0
??$addressof@V?$_Tree_val@U?$_Tree_simple_types@U?$pair@$$CBHU_TERRAIN_INFO@@@std@@@std@@@std@@@std@@YAPAV?$_Tree_val@U?$_Tree_simple_types@U?$pair@$$CBHU_TERRAIN_INFO@@@std@@@std@@@0@AAV10@@Z ENDP ; std::addressof<std::_Tree_val<std::_Tree_simple_types<std::pair<int const ,_TERRAIN_INFO> > > >
_TEXT	ENDS
; Function compile flags: /Odtp /ZI
; File C:\Program Files (x86)\Microsoft Visual Studio\2019\Community\VC\Tools\MSVC\14.27.29110\include\xstddef
;	COMDAT ??$addressof@U?$pair@$$CBHU_TERRAIN_INFO@@@std@@@std@@YAPAU?$pair@$$CBHU_TERRAIN_INFO@@@0@AAU10@@Z
_TEXT	SEGMENT
__Val$ = 8						; size = 4
??$addressof@U?$pair@$$CBHU_TERRAIN_INFO@@@std@@@std@@YAPAU?$pair@$$CBHU_TERRAIN_INFO@@@0@AAU10@@Z PROC ; std::addressof<std::pair<int const ,_TERRAIN_INFO> >, COMDAT

; 274  : _NODISCARD constexpr _Ty* addressof(_Ty& _Val) noexcept {

  00000	55		 push	 ebp
  00001	8b ec		 mov	 ebp, esp
  00003	83 ec 40	 sub	 esp, 64			; 00000040H
  00006	53		 push	 ebx
  00007	56		 push	 esi
  00008	57		 push	 edi

; 275  :     return __builtin_addressof(_Val);

  00009	8b 45 08	 mov	 eax, DWORD PTR __Val$[ebp]

; 276  : }

  0000c	5f		 pop	 edi
  0000d	5e		 pop	 esi
  0000e	5b		 pop	 ebx
  0000f	8b e5		 mov	 esp, ebp
  00011	5d		 pop	 ebp
  00012	c3		 ret	 0
??$addressof@U?$pair@$$CBHU_TERRAIN_INFO@@@std@@@std@@YAPAU?$pair@$$CBHU_TERRAIN_INFO@@@0@AAU10@@Z ENDP ; std::addressof<std::pair<int const ,_TERRAIN_INFO> >
_TEXT	ENDS
; Function compile flags: /Odtp /ZI
; File C:\Program Files (x86)\Microsoft Visual Studio\2019\Community\VC\Tools\MSVC\14.27.29110\include\xmemory
;	COMDAT ??$?0$$V@?$_Compressed_pair@V?$allocator@D@std@@V?$_String_val@U?$_Simple_types@D@std@@@2@$00@std@@QAE@U_Zero_then_variadic_args_t@1@@Z
_TEXT	SEGMENT
_this$ = -4						; size = 4
___formal$ = 8						; size = 1
??$?0$$V@?$_Compressed_pair@V?$allocator@D@std@@V?$_String_val@U?$_Simple_types@D@std@@@2@$00@std@@QAE@U_Zero_then_variadic_args_t@1@@Z PROC ; std::_Compressed_pair<std::allocator<char>,std::_String_val<std::_Simple_types<char> >,1>::_Compressed_pair<std::allocator<char>,std::_String_val<std::_Simple_types<char> >,1><>, COMDAT
; _this$ = ecx

; 1336 :         : _Ty1(), _Myval2(_STD forward<_Other2>(_Val2)...) {}

  00000	55		 push	 ebp
  00001	8b ec		 mov	 ebp, esp
  00003	83 ec 44	 sub	 esp, 68			; 00000044H
  00006	53		 push	 ebx
  00007	56		 push	 esi
  00008	57		 push	 edi
  00009	89 4d fc	 mov	 DWORD PTR _this$[ebp], ecx
  0000c	8b 4d fc	 mov	 ecx, DWORD PTR _this$[ebp]
  0000f	e8 00 00 00 00	 call	 ??0?$allocator@D@std@@QAE@XZ ; std::allocator<char>::allocator<char>
  00014	8b 4d fc	 mov	 ecx, DWORD PTR _this$[ebp]
  00017	e8 00 00 00 00	 call	 ??0?$_String_val@U?$_Simple_types@D@std@@@std@@QAE@XZ ; std::_String_val<std::_Simple_types<char> >::_String_val<std::_Simple_types<char> >
  0001c	8b 45 fc	 mov	 eax, DWORD PTR _this$[ebp]
  0001f	5f		 pop	 edi
  00020	5e		 pop	 esi
  00021	5b		 pop	 ebx
  00022	8b e5		 mov	 esp, ebp
  00024	5d		 pop	 ebp
  00025	c2 04 00	 ret	 4
??$?0$$V@?$_Compressed_pair@V?$allocator@D@std@@V?$_String_val@U?$_Simple_types@D@std@@@2@$00@std@@QAE@U_Zero_then_variadic_args_t@1@@Z ENDP ; std::_Compressed_pair<std::allocator<char>,std::_String_val<std::_Simple_types<char> >,1>::_Compressed_pair<std::allocator<char>,std::_String_val<std::_Simple_types<char> >,1><>
_TEXT	ENDS
; Function compile flags: /Odtp /ZI
; File C:\Program Files (x86)\Microsoft Visual Studio\2019\Community\VC\Tools\MSVC\14.27.29110\include\xtree
;	COMDAT ??$_Find@H@?$_Tree@V?$_Tmap_traits@HU_TERRAIN_INFO@@U?$less@H@std@@V?$allocator@U?$pair@$$CBHU_TERRAIN_INFO@@@std@@@3@$0A@@std@@@std@@ABEPAU?$_Tree_node@U?$pair@$$CBHU_TERRAIN_INFO@@@std@@PAX@1@ABH@Z
_TEXT	SEGMENT
__Loc$ = -16						; size = 12
_this$ = -4						; size = 4
__Keyval$ = 8						; size = 4
??$_Find@H@?$_Tree@V?$_Tmap_traits@HU_TERRAIN_INFO@@U?$less@H@std@@V?$allocator@U?$pair@$$CBHU_TERRAIN_INFO@@@std@@@3@$0A@@std@@@std@@ABEPAU?$_Tree_node@U?$pair@$$CBHU_TERRAIN_INFO@@@std@@PAX@1@ABH@Z PROC ; std::_Tree<std::_Tmap_traits<int,_TERRAIN_INFO,std::less<int>,std::allocator<std::pair<int const ,_TERRAIN_INFO> >,0> >::_Find<int>, COMDAT
; _this$ = ecx

; 1457 :     _NODISCARD _Nodeptr _Find(const _Other& _Keyval) const {

  00000	55		 push	 ebp
  00001	8b ec		 mov	 ebp, esp
  00003	83 ec 50	 sub	 esp, 80			; 00000050H
  00006	53		 push	 ebx
  00007	56		 push	 esi
  00008	57		 push	 edi
  00009	89 4d fc	 mov	 DWORD PTR _this$[ebp], ecx

; 1458 :         const _Tree_find_result<_Nodeptr> _Loc = _Find_lower_bound(_Keyval);

  0000c	8b 45 08	 mov	 eax, DWORD PTR __Keyval$[ebp]
  0000f	50		 push	 eax
  00010	8d 4d f0	 lea	 ecx, DWORD PTR __Loc$[ebp]
  00013	51		 push	 ecx
  00014	8b 4d fc	 mov	 ecx, DWORD PTR _this$[ebp]
  00017	e8 00 00 00 00	 call	 ??$_Find_lower_bound@H@?$_Tree@V?$_Tmap_traits@HU_TERRAIN_INFO@@U?$less@H@std@@V?$allocator@U?$pair@$$CBHU_TERRAIN_INFO@@@std@@@3@$0A@@std@@@std@@IBE?AU?$_Tree_find_result@PAU?$_Tree_node@U?$pair@$$CBHU_TERRAIN_INFO@@@std@@PAX@std@@@1@ABH@Z ; std::_Tree<std::_Tmap_traits<int,_TERRAIN_INFO,std::less<int>,std::allocator<std::pair<int const ,_TERRAIN_INFO> >,0> >::_Find_lower_bound<int>

; 1459 :         if (_Lower_bound_duplicate(_Loc._Bound, _Keyval)) {

  0001c	8b 45 08	 mov	 eax, DWORD PTR __Keyval$[ebp]
  0001f	50		 push	 eax
  00020	8b 4d f8	 mov	 ecx, DWORD PTR __Loc$[ebp+8]
  00023	51		 push	 ecx
  00024	8b 4d fc	 mov	 ecx, DWORD PTR _this$[ebp]
  00027	e8 00 00 00 00	 call	 ??$_Lower_bound_duplicate@H@?$_Tree@V?$_Tmap_traits@HU_TERRAIN_INFO@@U?$less@H@std@@V?$allocator@U?$pair@$$CBHU_TERRAIN_INFO@@@std@@@3@$0A@@std@@@std@@IBE_NQAU?$_Tree_node@U?$pair@$$CBHU_TERRAIN_INFO@@@std@@PAX@1@ABH@Z ; std::_Tree<std::_Tmap_traits<int,_TERRAIN_INFO,std::less<int>,std::allocator<std::pair<int const ,_TERRAIN_INFO> >,0> >::_Lower_bound_duplicate<int>
  0002c	0f b6 d0	 movzx	 edx, al
  0002f	85 d2		 test	 edx, edx
  00031	74 05		 je	 SHORT $LN2@Find

; 1460 :             return _Loc._Bound;

  00033	8b 45 f8	 mov	 eax, DWORD PTR __Loc$[ebp+8]
  00036	eb 0a		 jmp	 SHORT $LN1@Find
$LN2@Find:

; 1461 :         }
; 1462 : 
; 1463 :         return _Get_scary()->_Myhead;

  00038	8b 4d fc	 mov	 ecx, DWORD PTR _this$[ebp]
  0003b	e8 00 00 00 00	 call	 ?_Get_scary@?$_Tree@V?$_Tmap_traits@HU_TERRAIN_INFO@@U?$less@H@std@@V?$allocator@U?$pair@$$CBHU_TERRAIN_INFO@@@std@@@3@$0A@@std@@@std@@IBEPBV?$_Tree_val@U?$_Tree_simple_types@U?$pair@$$CBHU_TERRAIN_INFO@@@std@@@std@@@2@XZ ; std::_Tree<std::_Tmap_traits<int,_TERRAIN_INFO,std::less<int>,std::allocator<std::pair<int const ,_TERRAIN_INFO> >,0> >::_Get_scary
  00040	8b 00		 mov	 eax, DWORD PTR [eax]
$LN1@Find:

; 1464 :     }

  00042	5f		 pop	 edi
  00043	5e		 pop	 esi
  00044	5b		 pop	 ebx
  00045	8b e5		 mov	 esp, ebp
  00047	5d		 pop	 ebp
  00048	c2 04 00	 ret	 4
??$_Find@H@?$_Tree@V?$_Tmap_traits@HU_TERRAIN_INFO@@U?$less@H@std@@V?$allocator@U?$pair@$$CBHU_TERRAIN_INFO@@@std@@@3@$0A@@std@@@std@@ABEPAU?$_Tree_node@U?$pair@$$CBHU_TERRAIN_INFO@@@std@@PAX@1@ABH@Z ENDP ; std::_Tree<std::_Tmap_traits<int,_TERRAIN_INFO,std::less<int>,std::allocator<std::pair<int const ,_TERRAIN_INFO> >,0> >::_Find<int>
_TEXT	ENDS
; Function compile flags: /Odtp /ZI
; File C:\Program Files (x86)\Microsoft Visual Studio\2019\Community\VC\Tools\MSVC\14.27.29110\include\xutility
;	COMDAT ?pointer_to@?$pointer_traits@PAU?$pair@$$CBHU_TERRAIN_INFO@@@std@@@std@@SAPAU?$pair@$$CBHU_TERRAIN_INFO@@@2@AAU32@@Z
_TEXT	SEGMENT
__Val$ = 8						; size = 4
?pointer_to@?$pointer_traits@PAU?$pair@$$CBHU_TERRAIN_INFO@@@std@@@std@@SAPAU?$pair@$$CBHU_TERRAIN_INFO@@@2@AAU32@@Z PROC ; std::pointer_traits<std::pair<int const ,_TERRAIN_INFO> *>::pointer_to, COMDAT

; 146  :     _NODISCARD static _CONSTEXPR20 pointer pointer_to(_Reftype _Val) noexcept {

  00000	55		 push	 ebp
  00001	8b ec		 mov	 ebp, esp
  00003	83 ec 40	 sub	 esp, 64			; 00000040H
  00006	53		 push	 ebx
  00007	56		 push	 esi
  00008	57		 push	 edi

; 147  :         return _STD addressof(_Val);

  00009	8b 45 08	 mov	 eax, DWORD PTR __Val$[ebp]
  0000c	50		 push	 eax
  0000d	e8 00 00 00 00	 call	 ??$addressof@U?$pair@$$CBHU_TERRAIN_INFO@@@std@@@std@@YAPAU?$pair@$$CBHU_TERRAIN_INFO@@@0@AAU10@@Z ; std::addressof<std::pair<int const ,_TERRAIN_INFO> >
  00012	83 c4 04	 add	 esp, 4

; 148  :     }

  00015	5f		 pop	 edi
  00016	5e		 pop	 esi
  00017	5b		 pop	 ebx
  00018	8b e5		 mov	 esp, ebp
  0001a	5d		 pop	 ebp
  0001b	c3		 ret	 0
?pointer_to@?$pointer_traits@PAU?$pair@$$CBHU_TERRAIN_INFO@@@std@@@std@@SAPAU?$pair@$$CBHU_TERRAIN_INFO@@@2@AAU32@@Z ENDP ; std::pointer_traits<std::pair<int const ,_TERRAIN_INFO> *>::pointer_to
_TEXT	ENDS
; Function compile flags: /Odtp /ZI
;	COMDAT ??0CSettings@@QAE@XZ
_TEXT	SEGMENT
_this$ = -4						; size = 4
??0CSettings@@QAE@XZ PROC				; CSettings::CSettings, COMDAT
; _this$ = ecx
  00000	55		 push	 ebp
  00001	8b ec		 mov	 ebp, esp
  00003	83 ec 44	 sub	 esp, 68			; 00000044H
  00006	53		 push	 ebx
  00007	56		 push	 esi
  00008	57		 push	 edi
  00009	89 4d fc	 mov	 DWORD PTR _this$[ebp], ecx
  0000c	8b 4d fc	 mov	 ecx, DWORD PTR _this$[ebp]
  0000f	83 c1 30	 add	 ecx, 48			; 00000030H
  00012	e8 00 00 00 00	 call	 ??0_CDBCon@@QAE@XZ
  00017	8b 45 fc	 mov	 eax, DWORD PTR _this$[ebp]
  0001a	5f		 pop	 edi
  0001b	5e		 pop	 esi
  0001c	5b		 pop	 ebx
  0001d	8b e5		 mov	 esp, ebp
  0001f	5d		 pop	 ebp
  00020	c3		 ret	 0
??0CSettings@@QAE@XZ ENDP				; CSettings::CSettings
_TEXT	ENDS
; Function compile flags: /Odtp /ZI
;	COMDAT ??0_CDBCon@@QAE@XZ
_TEXT	SEGMENT
_this$ = -4						; size = 4
??0_CDBCon@@QAE@XZ PROC					; _CDBCon::_CDBCon, COMDAT
; _this$ = ecx
  00000	55		 push	 ebp
  00001	8b ec		 mov	 ebp, esp
  00003	83 ec 44	 sub	 esp, 68			; 00000044H
  00006	53		 push	 ebx
  00007	56		 push	 esi
  00008	57		 push	 edi
  00009	89 4d fc	 mov	 DWORD PTR _this$[ebp], ecx
  0000c	8b 4d fc	 mov	 ecx, DWORD PTR _this$[ebp]
  0000f	e8 00 00 00 00	 call	 ??0?$basic_string@DU?$char_traits@D@std@@V?$allocator@D@2@@std@@QAE@XZ ; std::basic_string<char,std::char_traits<char>,std::allocator<char> >::basic_string<char,std::char_traits<char>,std::allocator<char> >
  00014	8b 4d fc	 mov	 ecx, DWORD PTR _this$[ebp]
  00017	83 c1 18	 add	 ecx, 24			; 00000018H
  0001a	e8 00 00 00 00	 call	 ??0?$basic_string@DU?$char_traits@D@std@@V?$allocator@D@2@@std@@QAE@XZ ; std::basic_string<char,std::char_traits<char>,std::allocator<char> >::basic_string<char,std::char_traits<char>,std::allocator<char> >
  0001f	8b 4d fc	 mov	 ecx, DWORD PTR _this$[ebp]
  00022	83 c1 30	 add	 ecx, 48			; 00000030H
  00025	e8 00 00 00 00	 call	 ??0?$basic_string@DU?$char_traits@D@std@@V?$allocator@D@2@@std@@QAE@XZ ; std::basic_string<char,std::char_traits<char>,std::allocator<char> >::basic_string<char,std::char_traits<char>,std::allocator<char> >
  0002a	8b 4d fc	 mov	 ecx, DWORD PTR _this$[ebp]
  0002d	83 c1 48	 add	 ecx, 72			; 00000048H
  00030	e8 00 00 00 00	 call	 ??0?$basic_string@DU?$char_traits@D@std@@V?$allocator@D@2@@std@@QAE@XZ ; std::basic_string<char,std::char_traits<char>,std::allocator<char> >::basic_string<char,std::char_traits<char>,std::allocator<char> >
  00035	8b 45 fc	 mov	 eax, DWORD PTR _this$[ebp]
  00038	5f		 pop	 edi
  00039	5e		 pop	 esi
  0003a	5b		 pop	 ebx
  0003b	8b e5		 mov	 esp, ebp
  0003d	5d		 pop	 ebp
  0003e	c3		 ret	 0
??0_CDBCon@@QAE@XZ ENDP					; _CDBCon::_CDBCon
_TEXT	ENDS
; Function compile flags: /Odtp /ZI
;	COMDAT ??0?$_Tree_iterator@V?$_Tree_val@U?$_Tree_simple_types@U?$pair@$$CBHU_TERRAIN_INFO@@@std@@@std@@@std@@@std@@QAE@PAU?$_Tree_node@U?$pair@$$CBHU_TERRAIN_INFO@@@std@@PAX@1@PBV?$_Tree_val@U?$_Tree_simple_types@U?$pair@$$CBHU_TERRAIN_INFO@@@std@@@std@@@1@@Z
_TEXT	SEGMENT
_this$ = -4						; size = 4
___param0$ = 8						; size = 4
___param1$ = 12						; size = 4
??0?$_Tree_iterator@V?$_Tree_val@U?$_Tree_simple_types@U?$pair@$$CBHU_TERRAIN_INFO@@@std@@@std@@@std@@@std@@QAE@PAU?$_Tree_node@U?$pair@$$CBHU_TERRAIN_INFO@@@std@@PAX@1@PBV?$_Tree_val@U?$_Tree_simple_types@U?$pair@$$CBHU_TERRAIN_INFO@@@std@@@std@@@1@@Z PROC ; std::_Tree_iterator<std::_Tree_val<std::_Tree_simple_types<std::pair<int const ,_TERRAIN_INFO> > > >::_Tree_iterator<std::_Tree_val<std::_Tree_simple_types<std::pair<int const ,_TERRAIN_INFO> > > >, COMDAT
; _this$ = ecx
  00000	55		 push	 ebp
  00001	8b ec		 mov	 ebp, esp
  00003	83 ec 44	 sub	 esp, 68			; 00000044H
  00006	53		 push	 ebx
  00007	56		 push	 esi
  00008	57		 push	 edi
  00009	89 4d fc	 mov	 DWORD PTR _this$[ebp], ecx
  0000c	8b 45 0c	 mov	 eax, DWORD PTR ___param1$[ebp]
  0000f	50		 push	 eax
  00010	8b 4d 08	 mov	 ecx, DWORD PTR ___param0$[ebp]
  00013	51		 push	 ecx
  00014	8b 4d fc	 mov	 ecx, DWORD PTR _this$[ebp]
  00017	e8 00 00 00 00	 call	 ??0?$_Tree_const_iterator@V?$_Tree_val@U?$_Tree_simple_types@U?$pair@$$CBHU_TERRAIN_INFO@@@std@@@std@@@std@@@std@@QAE@PAU?$_Tree_node@U?$pair@$$CBHU_TERRAIN_INFO@@@std@@PAX@1@PBV?$_Tree_val@U?$_Tree_simple_types@U?$pair@$$CBHU_TERRAIN_INFO@@@std@@@std@@@1@@Z
  0001c	8b 45 fc	 mov	 eax, DWORD PTR _this$[ebp]
  0001f	5f		 pop	 edi
  00020	5e		 pop	 esi
  00021	5b		 pop	 ebx
  00022	8b e5		 mov	 esp, ebp
  00024	5d		 pop	 ebp
  00025	c2 08 00	 ret	 8
??0?$_Tree_iterator@V?$_Tree_val@U?$_Tree_simple_types@U?$pair@$$CBHU_TERRAIN_INFO@@@std@@@std@@@std@@@std@@QAE@PAU?$_Tree_node@U?$pair@$$CBHU_TERRAIN_INFO@@@std@@PAX@1@PBV?$_Tree_val@U?$_Tree_simple_types@U?$pair@$$CBHU_TERRAIN_INFO@@@std@@@std@@@1@@Z ENDP ; std::_Tree_iterator<std::_Tree_val<std::_Tree_simple_types<std::pair<int const ,_TERRAIN_INFO> > > >::_Tree_iterator<std::_Tree_val<std::_Tree_simple_types<std::pair<int const ,_TERRAIN_INFO> > > >
_TEXT	ENDS
; Function compile flags: /Odtp /ZI
; File C:\Program Files (x86)\Microsoft Visual Studio\2019\Community\VC\Tools\MSVC\14.27.29110\include\xtree
;	COMDAT ??C?$_Tree_iterator@V?$_Tree_val@U?$_Tree_simple_types@U?$pair@$$CBHU_TERRAIN_INFO@@@std@@@std@@@std@@@std@@QBEPAU?$pair@$$CBHU_TERRAIN_INFO@@@1@XZ
_TEXT	SEGMENT
_this$ = -4						; size = 4
??C?$_Tree_iterator@V?$_Tree_val@U?$_Tree_simple_types@U?$pair@$$CBHU_TERRAIN_INFO@@@std@@@std@@@std@@@std@@QBEPAU?$pair@$$CBHU_TERRAIN_INFO@@@1@XZ PROC ; std::_Tree_iterator<std::_Tree_val<std::_Tree_simple_types<std::pair<int const ,_TERRAIN_INFO> > > >::operator->, COMDAT
; _this$ = ecx

; 276  :     _NODISCARD pointer operator->() const {

  00000	55		 push	 ebp
  00001	8b ec		 mov	 ebp, esp
  00003	83 ec 44	 sub	 esp, 68			; 00000044H
  00006	53		 push	 ebx
  00007	56		 push	 esi
  00008	57		 push	 edi
  00009	89 4d fc	 mov	 DWORD PTR _this$[ebp], ecx

; 277  :         return pointer_traits<pointer>::pointer_to(**this);

  0000c	8b 4d fc	 mov	 ecx, DWORD PTR _this$[ebp]
  0000f	e8 00 00 00 00	 call	 ??D?$_Tree_iterator@V?$_Tree_val@U?$_Tree_simple_types@U?$pair@$$CBHU_TERRAIN_INFO@@@std@@@std@@@std@@@std@@QBEAAU?$pair@$$CBHU_TERRAIN_INFO@@@1@XZ ; std::_Tree_iterator<std::_Tree_val<std::_Tree_simple_types<std::pair<int const ,_TERRAIN_INFO> > > >::operator*
  00014	50		 push	 eax
  00015	e8 00 00 00 00	 call	 ?pointer_to@?$pointer_traits@PAU?$pair@$$CBHU_TERRAIN_INFO@@@std@@@std@@SAPAU?$pair@$$CBHU_TERRAIN_INFO@@@2@AAU32@@Z ; std::pointer_traits<std::pair<int const ,_TERRAIN_INFO> *>::pointer_to
  0001a	83 c4 04	 add	 esp, 4

; 278  :     }

  0001d	5f		 pop	 edi
  0001e	5e		 pop	 esi
  0001f	5b		 pop	 ebx
  00020	8b e5		 mov	 esp, ebp
  00022	5d		 pop	 ebp
  00023	c3		 ret	 0
??C?$_Tree_iterator@V?$_Tree_val@U?$_Tree_simple_types@U?$pair@$$CBHU_TERRAIN_INFO@@@std@@@std@@@std@@@std@@QBEPAU?$pair@$$CBHU_TERRAIN_INFO@@@1@XZ ENDP ; std::_Tree_iterator<std::_Tree_val<std::_Tree_simple_types<std::pair<int const ,_TERRAIN_INFO> > > >::operator->
_TEXT	ENDS
; Function compile flags: /Odtp /ZI
; File C:\Program Files (x86)\Microsoft Visual Studio\2019\Community\VC\Tools\MSVC\14.27.29110\include\xtree
;	COMDAT ??D?$_Tree_iterator@V?$_Tree_val@U?$_Tree_simple_types@U?$pair@$$CBHU_TERRAIN_INFO@@@std@@@std@@@std@@@std@@QBEAAU?$pair@$$CBHU_TERRAIN_INFO@@@1@XZ
_TEXT	SEGMENT
_this$ = -4						; size = 4
??D?$_Tree_iterator@V?$_Tree_val@U?$_Tree_simple_types@U?$pair@$$CBHU_TERRAIN_INFO@@@std@@@std@@@std@@@std@@QBEAAU?$pair@$$CBHU_TERRAIN_INFO@@@1@XZ PROC ; std::_Tree_iterator<std::_Tree_val<std::_Tree_simple_types<std::pair<int const ,_TERRAIN_INFO> > > >::operator*, COMDAT
; _this$ = ecx

; 272  :     _NODISCARD reference operator*() const {

  00000	55		 push	 ebp
  00001	8b ec		 mov	 ebp, esp
  00003	83 ec 44	 sub	 esp, 68			; 00000044H
  00006	53		 push	 ebx
  00007	56		 push	 esi
  00008	57		 push	 edi
  00009	89 4d fc	 mov	 DWORD PTR _this$[ebp], ecx

; 273  :         return const_cast<reference>(_Mybase::operator*());

  0000c	8b 4d fc	 mov	 ecx, DWORD PTR _this$[ebp]
  0000f	e8 00 00 00 00	 call	 ??D?$_Tree_const_iterator@V?$_Tree_val@U?$_Tree_simple_types@U?$pair@$$CBHU_TERRAIN_INFO@@@std@@@std@@@std@@@std@@QBEABU?$pair@$$CBHU_TERRAIN_INFO@@@1@XZ ; std::_Tree_const_iterator<std::_Tree_val<std::_Tree_simple_types<std::pair<int const ,_TERRAIN_INFO> > > >::operator*

; 274  :     }

  00014	5f		 pop	 edi
  00015	5e		 pop	 esi
  00016	5b		 pop	 ebx
  00017	8b e5		 mov	 esp, ebp
  00019	5d		 pop	 ebp
  0001a	c3		 ret	 0
??D?$_Tree_iterator@V?$_Tree_val@U?$_Tree_simple_types@U?$pair@$$CBHU_TERRAIN_INFO@@@std@@@std@@@std@@@std@@QBEAAU?$pair@$$CBHU_TERRAIN_INFO@@@1@XZ ENDP ; std::_Tree_iterator<std::_Tree_val<std::_Tree_simple_types<std::pair<int const ,_TERRAIN_INFO> > > >::operator*
_TEXT	ENDS
; Function compile flags: /Odtp /ZI
;	COMDAT ??0?$_Tree_const_iterator@V?$_Tree_val@U?$_Tree_simple_types@U?$pair@$$CBHU_TERRAIN_INFO@@@std@@@std@@@std@@@std@@QAE@PAU?$_Tree_node@U?$pair@$$CBHU_TERRAIN_INFO@@@std@@PAX@1@PBV?$_Tree_val@U?$_Tree_simple_types@U?$pair@$$CBHU_TERRAIN_INFO@@@std@@@std@@@1@@Z
_TEXT	SEGMENT
_this$ = -4						; size = 4
___param0$ = 8						; size = 4
___param1$ = 12						; size = 4
??0?$_Tree_const_iterator@V?$_Tree_val@U?$_Tree_simple_types@U?$pair@$$CBHU_TERRAIN_INFO@@@std@@@std@@@std@@@std@@QAE@PAU?$_Tree_node@U?$pair@$$CBHU_TERRAIN_INFO@@@std@@PAX@1@PBV?$_Tree_val@U?$_Tree_simple_types@U?$pair@$$CBHU_TERRAIN_INFO@@@std@@@std@@@1@@Z PROC ; std::_Tree_const_iterator<std::_Tree_val<std::_Tree_simple_types<std::pair<int const ,_TERRAIN_INFO> > > >::_Tree_const_iterator<std::_Tree_val<std::_Tree_simple_types<std::pair<int const ,_TERRAIN_INFO> > > >, COMDAT
; _this$ = ecx
  00000	55		 push	 ebp
  00001	8b ec		 mov	 ebp, esp
  00003	83 ec 44	 sub	 esp, 68			; 00000044H
  00006	53		 push	 ebx
  00007	56		 push	 esi
  00008	57		 push	 edi
  00009	89 4d fc	 mov	 DWORD PTR _this$[ebp], ecx
  0000c	8b 45 0c	 mov	 eax, DWORD PTR ___param1$[ebp]
  0000f	50		 push	 eax
  00010	8b 4d 08	 mov	 ecx, DWORD PTR ___param0$[ebp]
  00013	51		 push	 ecx
  00014	8b 4d fc	 mov	 ecx, DWORD PTR _this$[ebp]
  00017	e8 00 00 00 00	 call	 ??0?$_Tree_unchecked_const_iterator@V?$_Tree_val@U?$_Tree_simple_types@U?$pair@$$CBHU_TERRAIN_INFO@@@std@@@std@@@std@@U_Iterator_base0@2@@std@@QAE@PAU?$_Tree_node@U?$pair@$$CBHU_TERRAIN_INFO@@@std@@PAX@1@PBV?$_Tree_val@U?$_Tree_simple_types@U?$pair@$$CBHU_TERRAIN_INFO@@@std@@@std@@@1@@Z ; std::_Tree_unchecked_const_iterator<std::_Tree_val<std::_Tree_simple_types<std::pair<int const ,_TERRAIN_INFO> > >,std::_Iterator_base0>::_Tree_unchecked_const_iterator<std::_Tree_val<std::_Tree_simple_types<std::pair<int const ,_TERRAIN_INFO> > >,std::_Iterator_base0>
  0001c	8b 45 fc	 mov	 eax, DWORD PTR _this$[ebp]
  0001f	5f		 pop	 edi
  00020	5e		 pop	 esi
  00021	5b		 pop	 ebx
  00022	8b e5		 mov	 esp, ebp
  00024	5d		 pop	 ebp
  00025	c2 08 00	 ret	 8
??0?$_Tree_const_iterator@V?$_Tree_val@U?$_Tree_simple_types@U?$pair@$$CBHU_TERRAIN_INFO@@@std@@@std@@@std@@@std@@QAE@PAU?$_Tree_node@U?$pair@$$CBHU_TERRAIN_INFO@@@std@@PAX@1@PBV?$_Tree_val@U?$_Tree_simple_types@U?$pair@$$CBHU_TERRAIN_INFO@@@std@@@std@@@1@@Z ENDP ; std::_Tree_const_iterator<std::_Tree_val<std::_Tree_simple_types<std::pair<int const ,_TERRAIN_INFO> > > >::_Tree_const_iterator<std::_Tree_val<std::_Tree_simple_types<std::pair<int const ,_TERRAIN_INFO> > > >
_TEXT	ENDS
; Function compile flags: /Odtp /ZI
; File C:\Program Files (x86)\Microsoft Visual Studio\2019\Community\VC\Tools\MSVC\14.27.29110\include\xtree
;	COMDAT ??8?$_Tree_const_iterator@V?$_Tree_val@U?$_Tree_simple_types@U?$pair@$$CBHU_TERRAIN_INFO@@@std@@@std@@@std@@@std@@QBE_NABV01@@Z
_TEXT	SEGMENT
tv75 = -72						; size = 4
_this$ = -4						; size = 4
__Right$ = 8						; size = 4
??8?$_Tree_const_iterator@V?$_Tree_val@U?$_Tree_simple_types@U?$pair@$$CBHU_TERRAIN_INFO@@@std@@@std@@@std@@@std@@QBE_NABV01@@Z PROC ; std::_Tree_const_iterator<std::_Tree_val<std::_Tree_simple_types<std::pair<int const ,_TERRAIN_INFO> > > >::operator==, COMDAT
; _this$ = ecx

; 227  :     _NODISCARD bool operator==(const _Tree_const_iterator& _Right) const {

  00000	55		 push	 ebp
  00001	8b ec		 mov	 ebp, esp
  00003	83 ec 48	 sub	 esp, 72			; 00000048H
  00006	53		 push	 ebx
  00007	56		 push	 esi
  00008	57		 push	 edi
  00009	89 4d fc	 mov	 DWORD PTR _this$[ebp], ecx

; 228  : #if _ITERATOR_DEBUG_LEVEL == 2
; 229  :         _STL_VERIFY(this->_Getcont() == _Right._Getcont(), "map/set iterators incompatible");
; 230  : #endif // _ITERATOR_DEBUG_LEVEL == 2
; 231  : 
; 232  :         return this->_Ptr == _Right._Ptr;

  0000c	8b 45 fc	 mov	 eax, DWORD PTR _this$[ebp]
  0000f	8b 4d 08	 mov	 ecx, DWORD PTR __Right$[ebp]
  00012	8b 10		 mov	 edx, DWORD PTR [eax]
  00014	3b 11		 cmp	 edx, DWORD PTR [ecx]
  00016	75 09		 jne	 SHORT $LN3@operator
  00018	c7 45 b8 01 00
	00 00		 mov	 DWORD PTR tv75[ebp], 1
  0001f	eb 07		 jmp	 SHORT $LN4@operator
$LN3@operator:
  00021	c7 45 b8 00 00
	00 00		 mov	 DWORD PTR tv75[ebp], 0
$LN4@operator:
  00028	8a 45 b8	 mov	 al, BYTE PTR tv75[ebp]

; 233  :     }

  0002b	5f		 pop	 edi
  0002c	5e		 pop	 esi
  0002d	5b		 pop	 ebx
  0002e	8b e5		 mov	 esp, ebp
  00030	5d		 pop	 ebp
  00031	c2 04 00	 ret	 4
??8?$_Tree_const_iterator@V?$_Tree_val@U?$_Tree_simple_types@U?$pair@$$CBHU_TERRAIN_INFO@@@std@@@std@@@std@@@std@@QBE_NABV01@@Z ENDP ; std::_Tree_const_iterator<std::_Tree_val<std::_Tree_simple_types<std::pair<int const ,_TERRAIN_INFO> > > >::operator==
_TEXT	ENDS
; Function compile flags: /Odtp /ZI
; File C:\Program Files (x86)\Microsoft Visual Studio\2019\Community\VC\Tools\MSVC\14.27.29110\include\xtree
;	COMDAT ??D?$_Tree_const_iterator@V?$_Tree_val@U?$_Tree_simple_types@U?$pair@$$CBHU_TERRAIN_INFO@@@std@@@std@@@std@@@std@@QBEABU?$pair@$$CBHU_TERRAIN_INFO@@@1@XZ
_TEXT	SEGMENT
_this$ = -4						; size = 4
??D?$_Tree_const_iterator@V?$_Tree_val@U?$_Tree_simple_types@U?$pair@$$CBHU_TERRAIN_INFO@@@std@@@std@@@std@@@std@@QBEABU?$pair@$$CBHU_TERRAIN_INFO@@@1@XZ PROC ; std::_Tree_const_iterator<std::_Tree_val<std::_Tree_simple_types<std::pair<int const ,_TERRAIN_INFO> > > >::operator*, COMDAT
; _this$ = ecx

; 178  :     _NODISCARD reference operator*() const {

  00000	55		 push	 ebp
  00001	8b ec		 mov	 ebp, esp
  00003	83 ec 44	 sub	 esp, 68			; 00000044H
  00006	53		 push	 ebx
  00007	56		 push	 esi
  00008	57		 push	 edi
  00009	89 4d fc	 mov	 DWORD PTR _this$[ebp], ecx

; 179  : #if _ITERATOR_DEBUG_LEVEL == 2
; 180  :         const auto _Mycont = static_cast<const _Mytree*>(this->_Getcont());
; 181  :         _STL_ASSERT(_Mycont, "cannot dereference value-initialized map/set iterator");
; 182  :         _STL_VERIFY(this->_Ptr != _Mycont->_Myhead, "cannot dereference end map/set iterator");
; 183  : #endif // _ITERATOR_DEBUG_LEVEL == 2
; 184  : 
; 185  :         return this->_Ptr->_Myval;

  0000c	8b 45 fc	 mov	 eax, DWORD PTR _this$[ebp]
  0000f	8b 00		 mov	 eax, DWORD PTR [eax]
  00011	83 c0 10	 add	 eax, 16			; 00000010H

; 186  :     }

  00014	5f		 pop	 edi
  00015	5e		 pop	 esi
  00016	5b		 pop	 ebx
  00017	8b e5		 mov	 esp, ebp
  00019	5d		 pop	 ebp
  0001a	c3		 ret	 0
??D?$_Tree_const_iterator@V?$_Tree_val@U?$_Tree_simple_types@U?$pair@$$CBHU_TERRAIN_INFO@@@std@@@std@@@std@@@std@@QBEABU?$pair@$$CBHU_TERRAIN_INFO@@@1@XZ ENDP ; std::_Tree_const_iterator<std::_Tree_val<std::_Tree_simple_types<std::pair<int const ,_TERRAIN_INFO> > > >::operator*
_TEXT	ENDS
; Function compile flags: /Odtp /ZI
; File C:\Program Files (x86)\Microsoft Visual Studio\2019\Community\VC\Tools\MSVC\14.27.29110\include\xtree
;	COMDAT ??0?$_Tree_unchecked_const_iterator@V?$_Tree_val@U?$_Tree_simple_types@U?$pair@$$CBHU_TERRAIN_INFO@@@std@@@std@@@std@@U_Iterator_base0@2@@std@@QAE@PAU?$_Tree_node@U?$pair@$$CBHU_TERRAIN_INFO@@@std@@PAX@1@PBV?$_Tree_val@U?$_Tree_simple_types@U?$pair@$$CBHU_TERRAIN_INFO@@@std@@@std@@@1@@Z
_TEXT	SEGMENT
_this$ = -4						; size = 4
__Pnode$ = 8						; size = 4
__Plist$ = 12						; size = 4
??0?$_Tree_unchecked_const_iterator@V?$_Tree_val@U?$_Tree_simple_types@U?$pair@$$CBHU_TERRAIN_INFO@@@std@@@std@@@std@@U_Iterator_base0@2@@std@@QAE@PAU?$_Tree_node@U?$pair@$$CBHU_TERRAIN_INFO@@@std@@PAX@1@PBV?$_Tree_val@U?$_Tree_simple_types@U?$pair@$$CBHU_TERRAIN_INFO@@@std@@@std@@@1@@Z PROC ; std::_Tree_unchecked_const_iterator<std::_Tree_val<std::_Tree_simple_types<std::pair<int const ,_TERRAIN_INFO> > >,std::_Iterator_base0>::_Tree_unchecked_const_iterator<std::_Tree_val<std::_Tree_simple_types<std::pair<int const ,_TERRAIN_INFO> > >,std::_Iterator_base0>, COMDAT
; _this$ = ecx

; 39   :     _Tree_unchecked_const_iterator(_Nodeptr _Pnode, const _Mytree* _Plist) noexcept : _Ptr(_Pnode) {

  00000	55		 push	 ebp
  00001	8b ec		 mov	 ebp, esp
  00003	83 ec 44	 sub	 esp, 68			; 00000044H
  00006	53		 push	 ebx
  00007	56		 push	 esi
  00008	57		 push	 edi
  00009	89 4d fc	 mov	 DWORD PTR _this$[ebp], ecx
  0000c	8b 45 fc	 mov	 eax, DWORD PTR _this$[ebp]
  0000f	8b 4d 08	 mov	 ecx, DWORD PTR __Pnode$[ebp]
  00012	89 08		 mov	 DWORD PTR [eax], ecx

; 40   :         this->_Adopt(_Plist);

  00014	8b 45 0c	 mov	 eax, DWORD PTR __Plist$[ebp]
  00017	50		 push	 eax
  00018	8b 4d fc	 mov	 ecx, DWORD PTR _this$[ebp]
  0001b	e8 00 00 00 00	 call	 ?_Adopt@_Iterator_base0@std@@QAEXPBX@Z ; std::_Iterator_base0::_Adopt

; 41   :     }

  00020	8b 45 fc	 mov	 eax, DWORD PTR _this$[ebp]
  00023	5f		 pop	 edi
  00024	5e		 pop	 esi
  00025	5b		 pop	 ebx
  00026	8b e5		 mov	 esp, ebp
  00028	5d		 pop	 ebp
  00029	c2 08 00	 ret	 8
??0?$_Tree_unchecked_const_iterator@V?$_Tree_val@U?$_Tree_simple_types@U?$pair@$$CBHU_TERRAIN_INFO@@@std@@@std@@@std@@U_Iterator_base0@2@@std@@QAE@PAU?$_Tree_node@U?$pair@$$CBHU_TERRAIN_INFO@@@std@@PAX@1@PBV?$_Tree_val@U?$_Tree_simple_types@U?$pair@$$CBHU_TERRAIN_INFO@@@std@@@std@@@1@@Z ENDP ; std::_Tree_unchecked_const_iterator<std::_Tree_val<std::_Tree_simple_types<std::pair<int const ,_TERRAIN_INFO> > >,std::_Iterator_base0>::_Tree_unchecked_const_iterator<std::_Tree_val<std::_Tree_simple_types<std::pair<int const ,_TERRAIN_INFO> > >,std::_Iterator_base0>
_TEXT	ENDS
; Function compile flags: /Odtp /ZI
; File C:\Program Files (x86)\Microsoft Visual Studio\2019\Community\VC\Tools\MSVC\14.27.29110\include\xmemory
;	COMDAT ?_Get_first@?$_Compressed_pair@U?$less@H@std@@V?$_Compressed_pair@V?$allocator@U?$_Tree_node@U?$pair@$$CBHU_TERRAIN_INFO@@@std@@PAX@std@@@std@@V?$_Tree_val@U?$_Tree_simple_types@U?$pair@$$CBHU_TERRAIN_INFO@@@std@@@std@@@2@$00@2@$00@std@@QBEABU?$less@H@2@XZ
_TEXT	SEGMENT
_this$ = -4						; size = 4
?_Get_first@?$_Compressed_pair@U?$less@H@std@@V?$_Compressed_pair@V?$allocator@U?$_Tree_node@U?$pair@$$CBHU_TERRAIN_INFO@@@std@@PAX@std@@@std@@V?$_Tree_val@U?$_Tree_simple_types@U?$pair@$$CBHU_TERRAIN_INFO@@@std@@@std@@@2@$00@2@$00@std@@QBEABU?$less@H@2@XZ PROC ; std::_Compressed_pair<std::less<int>,std::_Compressed_pair<std::allocator<std::_Tree_node<std::pair<int const ,_TERRAIN_INFO>,void *> >,std::_Tree_val<std::_Tree_simple_types<std::pair<int const ,_TERRAIN_INFO> > >,1>,1>::_Get_first, COMDAT
; _this$ = ecx

; 1347 :     constexpr const _Ty1& _Get_first() const noexcept {

  00000	55		 push	 ebp
  00001	8b ec		 mov	 ebp, esp
  00003	83 ec 44	 sub	 esp, 68			; 00000044H
  00006	53		 push	 ebx
  00007	56		 push	 esi
  00008	57		 push	 edi
  00009	89 4d fc	 mov	 DWORD PTR _this$[ebp], ecx

; 1348 :         return *this;

  0000c	8b 45 fc	 mov	 eax, DWORD PTR _this$[ebp]

; 1349 :     }

  0000f	5f		 pop	 edi
  00010	5e		 pop	 esi
  00011	5b		 pop	 ebx
  00012	8b e5		 mov	 esp, ebp
  00014	5d		 pop	 ebp
  00015	c3		 ret	 0
?_Get_first@?$_Compressed_pair@U?$less@H@std@@V?$_Compressed_pair@V?$allocator@U?$_Tree_node@U?$pair@$$CBHU_TERRAIN_INFO@@@std@@PAX@std@@@std@@V?$_Tree_val@U?$_Tree_simple_types@U?$pair@$$CBHU_TERRAIN_INFO@@@std@@@std@@@2@$00@2@$00@std@@QBEABU?$less@H@2@XZ ENDP ; std::_Compressed_pair<std::less<int>,std::_Compressed_pair<std::allocator<std::_Tree_node<std::pair<int const ,_TERRAIN_INFO>,void *> >,std::_Tree_val<std::_Tree_simple_types<std::pair<int const ,_TERRAIN_INFO> > >,1>,1>::_Get_first
_TEXT	ENDS
; Function compile flags: /Odtp /ZI
; File C:\Program Files (x86)\Microsoft Visual Studio\2019\Community\VC\Tools\MSVC\14.27.29110\include\xtree
;	COMDAT ?_Get_scary@?$_Tree@V?$_Tmap_traits@HU_TERRAIN_INFO@@U?$less@H@std@@V?$allocator@U?$pair@$$CBHU_TERRAIN_INFO@@@std@@@3@$0A@@std@@@std@@IBEPBV?$_Tree_val@U?$_Tree_simple_types@U?$pair@$$CBHU_TERRAIN_INFO@@@std@@@std@@@2@XZ
_TEXT	SEGMENT
_this$ = -4						; size = 4
?_Get_scary@?$_Tree@V?$_Tmap_traits@HU_TERRAIN_INFO@@U?$less@H@std@@V?$allocator@U?$pair@$$CBHU_TERRAIN_INFO@@@std@@@3@$0A@@std@@@std@@IBEPBV?$_Tree_val@U?$_Tree_simple_types@U?$pair@$$CBHU_TERRAIN_INFO@@@std@@@std@@@2@XZ PROC ; std::_Tree<std::_Tmap_traits<int,_TERRAIN_INFO,std::less<int>,std::allocator<std::pair<int const ,_TERRAIN_INFO> >,0> >::_Get_scary, COMDAT
; _this$ = ecx

; 2050 :     const _Scary_val* _Get_scary() const noexcept {

  00000	55		 push	 ebp
  00001	8b ec		 mov	 ebp, esp
  00003	83 ec 44	 sub	 esp, 68			; 00000044H
  00006	53		 push	 ebx
  00007	56		 push	 esi
  00008	57		 push	 edi
  00009	89 4d fc	 mov	 DWORD PTR _this$[ebp], ecx

; 2051 :         return _STD addressof(_Mypair._Myval2._Myval2);

  0000c	8b 45 fc	 mov	 eax, DWORD PTR _this$[ebp]
  0000f	50		 push	 eax
  00010	e8 00 00 00 00	 call	 ??$addressof@$$CBV?$_Tree_val@U?$_Tree_simple_types@U?$pair@$$CBHU_TERRAIN_INFO@@@std@@@std@@@std@@@std@@YAPBV?$_Tree_val@U?$_Tree_simple_types@U?$pair@$$CBHU_TERRAIN_INFO@@@std@@@std@@@0@ABV10@@Z ; std::addressof<std::_Tree_val<std::_Tree_simple_types<std::pair<int const ,_TERRAIN_INFO> > > const >
  00015	83 c4 04	 add	 esp, 4

; 2052 :     }

  00018	5f		 pop	 edi
  00019	5e		 pop	 esi
  0001a	5b		 pop	 ebx
  0001b	8b e5		 mov	 esp, ebp
  0001d	5d		 pop	 ebp
  0001e	c3		 ret	 0
?_Get_scary@?$_Tree@V?$_Tmap_traits@HU_TERRAIN_INFO@@U?$less@H@std@@V?$allocator@U?$pair@$$CBHU_TERRAIN_INFO@@@std@@@3@$0A@@std@@@std@@IBEPBV?$_Tree_val@U?$_Tree_simple_types@U?$pair@$$CBHU_TERRAIN_INFO@@@std@@@std@@@2@XZ ENDP ; std::_Tree<std::_Tmap_traits<int,_TERRAIN_INFO,std::less<int>,std::allocator<std::pair<int const ,_TERRAIN_INFO> >,0> >::_Get_scary
_TEXT	ENDS
; Function compile flags: /Odtp /ZI
; File C:\Program Files (x86)\Microsoft Visual Studio\2019\Community\VC\Tools\MSVC\14.27.29110\include\xtree
;	COMDAT ?_Get_scary@?$_Tree@V?$_Tmap_traits@HU_TERRAIN_INFO@@U?$less@H@std@@V?$allocator@U?$pair@$$CBHU_TERRAIN_INFO@@@std@@@3@$0A@@std@@@std@@IAEPAV?$_Tree_val@U?$_Tree_simple_types@U?$pair@$$CBHU_TERRAIN_INFO@@@std@@@std@@@2@XZ
_TEXT	SEGMENT
_this$ = -4						; size = 4
?_Get_scary@?$_Tree@V?$_Tmap_traits@HU_TERRAIN_INFO@@U?$less@H@std@@V?$allocator@U?$pair@$$CBHU_TERRAIN_INFO@@@std@@@3@$0A@@std@@@std@@IAEPAV?$_Tree_val@U?$_Tree_simple_types@U?$pair@$$CBHU_TERRAIN_INFO@@@std@@@std@@@2@XZ PROC ; std::_Tree<std::_Tmap_traits<int,_TERRAIN_INFO,std::less<int>,std::allocator<std::pair<int const ,_TERRAIN_INFO> >,0> >::_Get_scary, COMDAT
; _this$ = ecx

; 2046 :     _Scary_val* _Get_scary() noexcept {

  00000	55		 push	 ebp
  00001	8b ec		 mov	 ebp, esp
  00003	83 ec 44	 sub	 esp, 68			; 00000044H
  00006	53		 push	 ebx
  00007	56		 push	 esi
  00008	57		 push	 edi
  00009	89 4d fc	 mov	 DWORD PTR _this$[ebp], ecx

; 2047 :         return _STD addressof(_Mypair._Myval2._Myval2);

  0000c	8b 45 fc	 mov	 eax, DWORD PTR _this$[ebp]
  0000f	50		 push	 eax
  00010	e8 00 00 00 00	 call	 ??$addressof@V?$_Tree_val@U?$_Tree_simple_types@U?$pair@$$CBHU_TERRAIN_INFO@@@std@@@std@@@std@@@std@@YAPAV?$_Tree_val@U?$_Tree_simple_types@U?$pair@$$CBHU_TERRAIN_INFO@@@std@@@std@@@0@AAV10@@Z ; std::addressof<std::_Tree_val<std::_Tree_simple_types<std::pair<int const ,_TERRAIN_INFO> > > >
  00015	83 c4 04	 add	 esp, 4

; 2048 :     }

  00018	5f		 pop	 edi
  00019	5e		 pop	 esi
  0001a	5b		 pop	 ebx
  0001b	8b e5		 mov	 esp, ebp
  0001d	5d		 pop	 ebp
  0001e	c3		 ret	 0
?_Get_scary@?$_Tree@V?$_Tmap_traits@HU_TERRAIN_INFO@@U?$less@H@std@@V?$allocator@U?$pair@$$CBHU_TERRAIN_INFO@@@std@@@3@$0A@@std@@@std@@IAEPAV?$_Tree_val@U?$_Tree_simple_types@U?$pair@$$CBHU_TERRAIN_INFO@@@std@@@std@@@2@XZ ENDP ; std::_Tree<std::_Tmap_traits<int,_TERRAIN_INFO,std::less<int>,std::allocator<std::pair<int const ,_TERRAIN_INFO> >,0> >::_Get_scary
_TEXT	ENDS
; Function compile flags: /Odtp /ZI
; File C:\Program Files (x86)\Microsoft Visual Studio\2019\Community\VC\Tools\MSVC\14.27.29110\include\xtree
;	COMDAT ?_Getcomp@?$_Tree@V?$_Tmap_traits@HU_TERRAIN_INFO@@U?$less@H@std@@V?$allocator@U?$pair@$$CBHU_TERRAIN_INFO@@@std@@@3@$0A@@std@@@std@@IBEABU?$less@H@2@XZ
_TEXT	SEGMENT
_this$ = -4						; size = 4
?_Getcomp@?$_Tree@V?$_Tmap_traits@HU_TERRAIN_INFO@@U?$less@H@std@@V?$allocator@U?$pair@$$CBHU_TERRAIN_INFO@@@std@@@3@$0A@@std@@@std@@IBEABU?$less@H@2@XZ PROC ; std::_Tree<std::_Tmap_traits<int,_TERRAIN_INFO,std::less<int>,std::allocator<std::pair<int const ,_TERRAIN_INFO> >,0> >::_Getcomp, COMDAT
; _this$ = ecx

; 2034 :     const key_compare& _Getcomp() const noexcept {

  00000	55		 push	 ebp
  00001	8b ec		 mov	 ebp, esp
  00003	83 ec 44	 sub	 esp, 68			; 00000044H
  00006	53		 push	 ebx
  00007	56		 push	 esi
  00008	57		 push	 edi
  00009	89 4d fc	 mov	 DWORD PTR _this$[ebp], ecx

; 2035 :         return _Mypair._Get_first();

  0000c	8b 4d fc	 mov	 ecx, DWORD PTR _this$[ebp]
  0000f	e8 00 00 00 00	 call	 ?_Get_first@?$_Compressed_pair@U?$less@H@std@@V?$_Compressed_pair@V?$allocator@U?$_Tree_node@U?$pair@$$CBHU_TERRAIN_INFO@@@std@@PAX@std@@@std@@V?$_Tree_val@U?$_Tree_simple_types@U?$pair@$$CBHU_TERRAIN_INFO@@@std@@@std@@@2@$00@2@$00@std@@QBEABU?$less@H@2@XZ ; std::_Compressed_pair<std::less<int>,std::_Compressed_pair<std::allocator<std::_Tree_node<std::pair<int const ,_TERRAIN_INFO>,void *> >,std::_Tree_val<std::_Tree_simple_types<std::pair<int const ,_TERRAIN_INFO> > >,1>,1>::_Get_first

; 2036 :     }

  00014	5f		 pop	 edi
  00015	5e		 pop	 esi
  00016	5b		 pop	 ebx
  00017	8b e5		 mov	 esp, ebp
  00019	5d		 pop	 ebp
  0001a	c3		 ret	 0
?_Getcomp@?$_Tree@V?$_Tmap_traits@HU_TERRAIN_INFO@@U?$less@H@std@@V?$allocator@U?$pair@$$CBHU_TERRAIN_INFO@@@std@@@3@$0A@@std@@@std@@IBEABU?$less@H@2@XZ ENDP ; std::_Tree<std::_Tmap_traits<int,_TERRAIN_INFO,std::less<int>,std::allocator<std::pair<int const ,_TERRAIN_INFO> >,0> >::_Getcomp
_TEXT	ENDS
; Function compile flags: /Odtp /ZI
; File C:\Program Files (x86)\Microsoft Visual Studio\2019\Community\VC\Tools\MSVC\14.27.29110\include\xtree
;	COMDAT ?find@?$_Tree@V?$_Tmap_traits@HU_TERRAIN_INFO@@U?$less@H@std@@V?$allocator@U?$pair@$$CBHU_TERRAIN_INFO@@@std@@@3@$0A@@std@@@std@@QAE?AV?$_Tree_iterator@V?$_Tree_val@U?$_Tree_simple_types@U?$pair@$$CBHU_TERRAIN_INFO@@@std@@@std@@@std@@@2@ABH@Z
_TEXT	SEGMENT
_this$ = -4						; size = 4
___$ReturnUdt$ = 8					; size = 4
__Keyval$ = 12						; size = 4
?find@?$_Tree@V?$_Tmap_traits@HU_TERRAIN_INFO@@U?$less@H@std@@V?$allocator@U?$pair@$$CBHU_TERRAIN_INFO@@@std@@@3@$0A@@std@@@std@@QAE?AV?$_Tree_iterator@V?$_Tree_val@U?$_Tree_simple_types@U?$pair@$$CBHU_TERRAIN_INFO@@@std@@@std@@@std@@@2@ABH@Z PROC ; std::_Tree<std::_Tmap_traits<int,_TERRAIN_INFO,std::less<int>,std::allocator<std::pair<int const ,_TERRAIN_INFO> >,0> >::find, COMDAT
; _this$ = ecx

; 1467 :     _NODISCARD iterator find(const key_type& _Keyval) {

  00000	55		 push	 ebp
  00001	8b ec		 mov	 ebp, esp
  00003	83 ec 44	 sub	 esp, 68			; 00000044H
  00006	53		 push	 ebx
  00007	56		 push	 esi
  00008	57		 push	 edi
  00009	89 4d fc	 mov	 DWORD PTR _this$[ebp], ecx

; 1468 :         return iterator(_Find(_Keyval), _Get_scary());

  0000c	8b 4d fc	 mov	 ecx, DWORD PTR _this$[ebp]
  0000f	e8 00 00 00 00	 call	 ?_Get_scary@?$_Tree@V?$_Tmap_traits@HU_TERRAIN_INFO@@U?$less@H@std@@V?$allocator@U?$pair@$$CBHU_TERRAIN_INFO@@@std@@@3@$0A@@std@@@std@@IAEPAV?$_Tree_val@U?$_Tree_simple_types@U?$pair@$$CBHU_TERRAIN_INFO@@@std@@@std@@@2@XZ ; std::_Tree<std::_Tmap_traits<int,_TERRAIN_INFO,std::less<int>,std::allocator<std::pair<int const ,_TERRAIN_INFO> >,0> >::_Get_scary
  00014	50		 push	 eax
  00015	8b 45 0c	 mov	 eax, DWORD PTR __Keyval$[ebp]
  00018	50		 push	 eax
  00019	8b 4d fc	 mov	 ecx, DWORD PTR _this$[ebp]
  0001c	e8 00 00 00 00	 call	 ??$_Find@H@?$_Tree@V?$_Tmap_traits@HU_TERRAIN_INFO@@U?$less@H@std@@V?$allocator@U?$pair@$$CBHU_TERRAIN_INFO@@@std@@@3@$0A@@std@@@std@@ABEPAU?$_Tree_node@U?$pair@$$CBHU_TERRAIN_INFO@@@std@@PAX@1@ABH@Z ; std::_Tree<std::_Tmap_traits<int,_TERRAIN_INFO,std::less<int>,std::allocator<std::pair<int const ,_TERRAIN_INFO> >,0> >::_Find<int>
  00021	50		 push	 eax
  00022	8b 4d 08	 mov	 ecx, DWORD PTR ___$ReturnUdt$[ebp]
  00025	e8 00 00 00 00	 call	 ??0?$_Tree_iterator@V?$_Tree_val@U?$_Tree_simple_types@U?$pair@$$CBHU_TERRAIN_INFO@@@std@@@std@@@std@@@std@@QAE@PAU?$_Tree_node@U?$pair@$$CBHU_TERRAIN_INFO@@@std@@PAX@1@PBV?$_Tree_val@U?$_Tree_simple_types@U?$pair@$$CBHU_TERRAIN_INFO@@@std@@@std@@@1@@Z
  0002a	8b 45 08	 mov	 eax, DWORD PTR ___$ReturnUdt$[ebp]

; 1469 :     }

  0002d	5f		 pop	 edi
  0002e	5e		 pop	 esi
  0002f	5b		 pop	 ebx
  00030	8b e5		 mov	 esp, ebp
  00032	5d		 pop	 ebp
  00033	c2 08 00	 ret	 8
?find@?$_Tree@V?$_Tmap_traits@HU_TERRAIN_INFO@@U?$less@H@std@@V?$allocator@U?$pair@$$CBHU_TERRAIN_INFO@@@std@@@3@$0A@@std@@@std@@QAE?AV?$_Tree_iterator@V?$_Tree_val@U?$_Tree_simple_types@U?$pair@$$CBHU_TERRAIN_INFO@@@std@@@std@@@std@@@2@ABH@Z ENDP ; std::_Tree<std::_Tmap_traits<int,_TERRAIN_INFO,std::less<int>,std::allocator<std::pair<int const ,_TERRAIN_INFO> >,0> >::find
_TEXT	ENDS
; Function compile flags: /Odtp /ZI
; File C:\Program Files (x86)\Microsoft Visual Studio\2019\Community\VC\Tools\MSVC\14.27.29110\include\xtree
;	COMDAT ?end@?$_Tree@V?$_Tmap_traits@HU_TERRAIN_INFO@@U?$less@H@std@@V?$allocator@U?$pair@$$CBHU_TERRAIN_INFO@@@std@@@3@$0A@@std@@@std@@QAE?AV?$_Tree_iterator@V?$_Tree_val@U?$_Tree_simple_types@U?$pair@$$CBHU_TERRAIN_INFO@@@std@@@std@@@std@@@2@XZ
_TEXT	SEGMENT
__Scary$ = -8						; size = 4
_this$ = -4						; size = 4
___$ReturnUdt$ = 8					; size = 4
?end@?$_Tree@V?$_Tmap_traits@HU_TERRAIN_INFO@@U?$less@H@std@@V?$allocator@U?$pair@$$CBHU_TERRAIN_INFO@@@std@@@3@$0A@@std@@@std@@QAE?AV?$_Tree_iterator@V?$_Tree_val@U?$_Tree_simple_types@U?$pair@$$CBHU_TERRAIN_INFO@@@std@@@std@@@std@@@2@XZ PROC ; std::_Tree<std::_Tmap_traits<int,_TERRAIN_INFO,std::less<int>,std::allocator<std::pair<int const ,_TERRAIN_INFO> >,0> >::end, COMDAT
; _this$ = ecx

; 1248 :     _NODISCARD iterator end() noexcept {

  00000	55		 push	 ebp
  00001	8b ec		 mov	 ebp, esp
  00003	83 ec 48	 sub	 esp, 72			; 00000048H
  00006	53		 push	 ebx
  00007	56		 push	 esi
  00008	57		 push	 edi
  00009	89 4d fc	 mov	 DWORD PTR _this$[ebp], ecx

; 1249 :         const auto _Scary = _Get_scary();

  0000c	8b 4d fc	 mov	 ecx, DWORD PTR _this$[ebp]
  0000f	e8 00 00 00 00	 call	 ?_Get_scary@?$_Tree@V?$_Tmap_traits@HU_TERRAIN_INFO@@U?$less@H@std@@V?$allocator@U?$pair@$$CBHU_TERRAIN_INFO@@@std@@@3@$0A@@std@@@std@@IAEPAV?$_Tree_val@U?$_Tree_simple_types@U?$pair@$$CBHU_TERRAIN_INFO@@@std@@@std@@@2@XZ ; std::_Tree<std::_Tmap_traits<int,_TERRAIN_INFO,std::less<int>,std::allocator<std::pair<int const ,_TERRAIN_INFO> >,0> >::_Get_scary
  00014	89 45 f8	 mov	 DWORD PTR __Scary$[ebp], eax

; 1250 :         return iterator(_Scary->_Myhead, _Scary);

  00017	8b 45 f8	 mov	 eax, DWORD PTR __Scary$[ebp]
  0001a	50		 push	 eax
  0001b	8b 4d f8	 mov	 ecx, DWORD PTR __Scary$[ebp]
  0001e	8b 11		 mov	 edx, DWORD PTR [ecx]
  00020	52		 push	 edx
  00021	8b 4d 08	 mov	 ecx, DWORD PTR ___$ReturnUdt$[ebp]
  00024	e8 00 00 00 00	 call	 ??0?$_Tree_iterator@V?$_Tree_val@U?$_Tree_simple_types@U?$pair@$$CBHU_TERRAIN_INFO@@@std@@@std@@@std@@@std@@QAE@PAU?$_Tree_node@U?$pair@$$CBHU_TERRAIN_INFO@@@std@@PAX@1@PBV?$_Tree_val@U?$_Tree_simple_types@U?$pair@$$CBHU_TERRAIN_INFO@@@std@@@std@@@1@@Z
  00029	8b 45 08	 mov	 eax, DWORD PTR ___$ReturnUdt$[ebp]

; 1251 :     }

  0002c	5f		 pop	 edi
  0002d	5e		 pop	 esi
  0002e	5b		 pop	 ebx
  0002f	8b e5		 mov	 esp, ebp
  00031	5d		 pop	 ebp
  00032	c2 04 00	 ret	 4
?end@?$_Tree@V?$_Tmap_traits@HU_TERRAIN_INFO@@U?$less@H@std@@V?$allocator@U?$pair@$$CBHU_TERRAIN_INFO@@@std@@@3@$0A@@std@@@std@@QAE?AV?$_Tree_iterator@V?$_Tree_val@U?$_Tree_simple_types@U?$pair@$$CBHU_TERRAIN_INFO@@@std@@@std@@@std@@@2@XZ ENDP ; std::_Tree<std::_Tmap_traits<int,_TERRAIN_INFO,std::less<int>,std::allocator<std::pair<int const ,_TERRAIN_INFO> >,0> >::end
_TEXT	ENDS
; Function compile flags: /Odtp /ZI
; File C:\Mu Online\Mu-GS-Webzen-MC-10093\GameServer\TerrainManager.h
;	COMDAT ?CheckTerrain@CTerrainManager@@QAE_NH@Z
_TEXT	SEGMENT
_this$ = -4						; size = 4
_MapNumber$ = 8						; size = 4
?CheckTerrain@CTerrainManager@@QAE_NH@Z PROC		; CTerrainManager::CheckTerrain, COMDAT
; _this$ = ecx

; 57   : 	{

  00000	55		 push	 ebp
  00001	8b ec		 mov	 ebp, esp
  00003	83 ec 44	 sub	 esp, 68			; 00000044H
  00006	53		 push	 ebx
  00007	56		 push	 esi
  00008	57		 push	 edi
  00009	89 4d fc	 mov	 DWORD PTR _this$[ebp], ecx

; 58   : 		return this->m_bMapCheck[MapNumber];

  0000c	8b 45 fc	 mov	 eax, DWORD PTR _this$[ebp]
  0000f	8b 48 0c	 mov	 ecx, DWORD PTR [eax+12]
  00012	8b 55 08	 mov	 edx, DWORD PTR _MapNumber$[ebp]
  00015	8a 04 11	 mov	 al, BYTE PTR [ecx+edx]

; 59   : 	}

  00018	5f		 pop	 edi
  00019	5e		 pop	 esi
  0001a	5b		 pop	 ebx
  0001b	8b e5		 mov	 esp, ebp
  0001d	5d		 pop	 ebp
  0001e	c2 04 00	 ret	 4
?CheckTerrain@CTerrainManager@@QAE_NH@Z ENDP		; CTerrainManager::CheckTerrain
_TEXT	ENDS
; Function compile flags: /Odtp /ZI
; File C:\Mu Online\Mu-GS-Webzen-MC-10093\GameServer\TerrainManager.h
;	COMDAT ?GetTerrainName@CTerrainManager@@QAEPADH@Z
_TEXT	SEGMENT
$T1 = -76						; size = 4
_it$ = -8						; size = 4
_this$ = -4						; size = 4
_MapNumber$ = 8						; size = 4
?GetTerrainName@CTerrainManager@@QAEPADH@Z PROC		; CTerrainManager::GetTerrainName, COMDAT
; _this$ = ecx

; 37   : 	{

  00000	55		 push	 ebp
  00001	8b ec		 mov	 ebp, esp
  00003	83 ec 4c	 sub	 esp, 76			; 0000004cH
  00006	53		 push	 ebx
  00007	56		 push	 esi
  00008	57		 push	 edi
  00009	89 4d fc	 mov	 DWORD PTR _this$[ebp], ecx

; 38   : 		std::map<int, _TERRAIN_INFO>::iterator it = this->m_mTerrainMap.find(MapNumber);

  0000c	8d 45 08	 lea	 eax, DWORD PTR _MapNumber$[ebp]
  0000f	50		 push	 eax
  00010	8d 4d f8	 lea	 ecx, DWORD PTR _it$[ebp]
  00013	51		 push	 ecx
  00014	8b 4d fc	 mov	 ecx, DWORD PTR _this$[ebp]
  00017	e8 00 00 00 00	 call	 ?find@?$_Tree@V?$_Tmap_traits@HU_TERRAIN_INFO@@U?$less@H@std@@V?$allocator@U?$pair@$$CBHU_TERRAIN_INFO@@@std@@@3@$0A@@std@@@std@@QAE?AV?$_Tree_iterator@V?$_Tree_val@U?$_Tree_simple_types@U?$pair@$$CBHU_TERRAIN_INFO@@@std@@@std@@@std@@@2@ABH@Z ; std::_Tree<std::_Tmap_traits<int,_TERRAIN_INFO,std::less<int>,std::allocator<std::pair<int const ,_TERRAIN_INFO> >,0> >::find

; 39   : 
; 40   : 		if(it == this->m_mTerrainMap.end())

  0001c	8d 45 b4	 lea	 eax, DWORD PTR $T1[ebp]
  0001f	50		 push	 eax
  00020	8b 4d fc	 mov	 ecx, DWORD PTR _this$[ebp]
  00023	e8 00 00 00 00	 call	 ?end@?$_Tree@V?$_Tmap_traits@HU_TERRAIN_INFO@@U?$less@H@std@@V?$allocator@U?$pair@$$CBHU_TERRAIN_INFO@@@std@@@3@$0A@@std@@@std@@QAE?AV?$_Tree_iterator@V?$_Tree_val@U?$_Tree_simple_types@U?$pair@$$CBHU_TERRAIN_INFO@@@std@@@std@@@std@@@2@XZ ; std::_Tree<std::_Tmap_traits<int,_TERRAIN_INFO,std::less<int>,std::allocator<std::pair<int const ,_TERRAIN_INFO> >,0> >::end
  00028	50		 push	 eax
  00029	8d 4d f8	 lea	 ecx, DWORD PTR _it$[ebp]
  0002c	e8 00 00 00 00	 call	 ??8?$_Tree_const_iterator@V?$_Tree_val@U?$_Tree_simple_types@U?$pair@$$CBHU_TERRAIN_INFO@@@std@@@std@@@std@@@std@@QBE_NABV01@@Z ; std::_Tree_const_iterator<std::_Tree_val<std::_Tree_simple_types<std::pair<int const ,_TERRAIN_INFO> > > >::operator==
  00031	0f b6 c8	 movzx	 ecx, al
  00034	85 c9		 test	 ecx, ecx
  00036	74 04		 je	 SHORT $LN2@GetTerrain

; 41   : 			return NULL;

  00038	33 c0		 xor	 eax, eax
  0003a	eb 0b		 jmp	 SHORT $LN1@GetTerrain
$LN2@GetTerrain:

; 42   : 
; 43   : 		return it->second.szTerrainName;

  0003c	8d 4d f8	 lea	 ecx, DWORD PTR _it$[ebp]
  0003f	e8 00 00 00 00	 call	 ??C?$_Tree_iterator@V?$_Tree_val@U?$_Tree_simple_types@U?$pair@$$CBHU_TERRAIN_INFO@@@std@@@std@@@std@@@std@@QBEPAU?$pair@$$CBHU_TERRAIN_INFO@@@1@XZ ; std::_Tree_iterator<std::_Tree_val<std::_Tree_simple_types<std::pair<int const ,_TERRAIN_INFO> > > >::operator->
  00044	83 c0 0c	 add	 eax, 12			; 0000000cH
$LN1@GetTerrain:

; 44   : 	}

  00047	5f		 pop	 edi
  00048	5e		 pop	 esi
  00049	5b		 pop	 ebx
  0004a	8b e5		 mov	 esp, ebp
  0004c	5d		 pop	 ebp
  0004d	c2 04 00	 ret	 4
?GetTerrainName@CTerrainManager@@QAEPADH@Z ENDP		; CTerrainManager::GetTerrainName
_TEXT	ENDS
; Function compile flags: /Odtp /ZI
; File C:\Mu Online\Mu-GS-Webzen-MC-10093\GameServer\TerrainManager.h
;	COMDAT ?Size@CTerrainManager@@QAE?BHXZ
_TEXT	SEGMENT
_this$ = -4						; size = 4
?Size@CTerrainManager@@QAE?BHXZ PROC			; CTerrainManager::Size, COMDAT
; _this$ = ecx

; 22   : 	{

  00000	55		 push	 ebp
  00001	8b ec		 mov	 ebp, esp
  00003	83 ec 44	 sub	 esp, 68			; 00000044H
  00006	53		 push	 ebx
  00007	56		 push	 esi
  00008	57		 push	 edi
  00009	89 4d fc	 mov	 DWORD PTR _this$[ebp], ecx

; 23   : 		return m_iSize;

  0000c	8b 45 fc	 mov	 eax, DWORD PTR _this$[ebp]
  0000f	8b 40 08	 mov	 eax, DWORD PTR [eax+8]

; 24   : 	}

  00012	5f		 pop	 edi
  00013	5e		 pop	 esi
  00014	5b		 pop	 ebx
  00015	8b e5		 mov	 esp, ebp
  00017	5d		 pop	 ebp
  00018	c3		 ret	 0
?Size@CTerrainManager@@QAE?BHXZ ENDP			; CTerrainManager::Size
_TEXT	ENDS
; Function compile flags: /Odtp /ZI
; File C:\Program Files (x86)\Microsoft Visual Studio\2019\Community\VC\Tools\MSVC\14.27.29110\include\xstddef
;	COMDAT ??R?$less@H@std@@QBE_NABH0@Z
_TEXT	SEGMENT
tv65 = -72						; size = 4
_this$ = -4						; size = 4
__Left$ = 8						; size = 4
__Right$ = 12						; size = 4
??R?$less@H@std@@QBE_NABH0@Z PROC			; std::less<int>::operator(), COMDAT
; _this$ = ecx

; 126  :     constexpr bool operator()(const _Ty& _Left, const _Ty& _Right) const {

  00000	55		 push	 ebp
  00001	8b ec		 mov	 ebp, esp
  00003	83 ec 48	 sub	 esp, 72			; 00000048H
  00006	53		 push	 ebx
  00007	56		 push	 esi
  00008	57		 push	 edi
  00009	89 4d fc	 mov	 DWORD PTR _this$[ebp], ecx

; 127  :         return _Left < _Right;

  0000c	8b 45 08	 mov	 eax, DWORD PTR __Left$[ebp]
  0000f	8b 4d 0c	 mov	 ecx, DWORD PTR __Right$[ebp]
  00012	8b 10		 mov	 edx, DWORD PTR [eax]
  00014	3b 11		 cmp	 edx, DWORD PTR [ecx]
  00016	7d 09		 jge	 SHORT $LN3@operator
  00018	c7 45 b8 01 00
	00 00		 mov	 DWORD PTR tv65[ebp], 1
  0001f	eb 07		 jmp	 SHORT $LN4@operator
$LN3@operator:
  00021	c7 45 b8 00 00
	00 00		 mov	 DWORD PTR tv65[ebp], 0
$LN4@operator:
  00028	8a 45 b8	 mov	 al, BYTE PTR tv65[ebp]

; 128  :     }

  0002b	5f		 pop	 edi
  0002c	5e		 pop	 esi
  0002d	5b		 pop	 ebx
  0002e	8b e5		 mov	 esp, ebp
  00030	5d		 pop	 ebp
  00031	c2 08 00	 ret	 8
??R?$less@H@std@@QBE_NABH0@Z ENDP			; std::less<int>::operator()
_TEXT	ENDS
; Function compile flags: /Odtp /ZI
; File C:\Mu Online\Mu-GS-Webzen-MC-10093\Include\ProDef.h
;	COMDAT ?set@PBMSG_HEAD@@QAEXPAEEE@Z
_TEXT	SEGMENT
_this$ = -4						; size = 4
_lpBuf$ = 8						; size = 4
_head$ = 12						; size = 1
_size$ = 16						; size = 1
?set@PBMSG_HEAD@@QAEXPAEEE@Z PROC			; PBMSG_HEAD::set, COMDAT
; _this$ = ecx

; 25   : 	{

  00000	55		 push	 ebp
  00001	8b ec		 mov	 ebp, esp
  00003	83 ec 44	 sub	 esp, 68			; 00000044H
  00006	53		 push	 ebx
  00007	56		 push	 esi
  00008	57		 push	 edi
  00009	89 4d fc	 mov	 DWORD PTR _this$[ebp], ecx

; 26   : 		lpBuf[0] = PMHC_BYTE;

  0000c	b8 01 00 00 00	 mov	 eax, 1
  00011	6b c8 00	 imul	 ecx, eax, 0
  00014	8b 55 08	 mov	 edx, DWORD PTR _lpBuf$[ebp]
  00017	c6 04 0a c1	 mov	 BYTE PTR [edx+ecx], 193	; 000000c1H

; 27   : 		lpBuf[1] = size;

  0001b	b8 01 00 00 00	 mov	 eax, 1
  00020	c1 e0 00	 shl	 eax, 0
  00023	8b 4d 08	 mov	 ecx, DWORD PTR _lpBuf$[ebp]
  00026	8a 55 10	 mov	 dl, BYTE PTR _size$[ebp]
  00029	88 14 01	 mov	 BYTE PTR [ecx+eax], dl

; 28   : 		lpBuf[2] = head;

  0002c	b8 01 00 00 00	 mov	 eax, 1
  00031	d1 e0		 shl	 eax, 1
  00033	8b 4d 08	 mov	 ecx, DWORD PTR _lpBuf$[ebp]
  00036	8a 55 0c	 mov	 dl, BYTE PTR _head$[ebp]
  00039	88 14 01	 mov	 BYTE PTR [ecx+eax], dl

; 29   : 	}

  0003c	5f		 pop	 edi
  0003d	5e		 pop	 esi
  0003e	5b		 pop	 ebx
  0003f	8b e5		 mov	 esp, ebp
  00041	5d		 pop	 ebp
  00042	c2 0c 00	 ret	 12			; 0000000cH
?set@PBMSG_HEAD@@QAEXPAEEE@Z ENDP			; PBMSG_HEAD::set
_TEXT	ENDS
; Function compile flags: /Odtp /ZI
; File C:\Program Files (x86)\Microsoft Visual Studio\2019\Community\VC\Tools\MSVC\14.27.29110\include\xstring
;	COMDAT ?_Tidy_init@?$basic_string@DU?$char_traits@D@std@@V?$allocator@D@2@@std@@AAEXXZ
_TEXT	SEGMENT
$T1 = -69						; size = 1
_this$ = -4						; size = 4
?_Tidy_init@?$basic_string@DU?$char_traits@D@std@@V?$allocator@D@2@@std@@AAEXXZ PROC ; std::basic_string<char,std::char_traits<char>,std::allocator<char> >::_Tidy_init, COMDAT
; _this$ = ecx

; 4292 :     void _Tidy_init() noexcept { // initialize basic_string data members

  00000	55		 push	 ebp
  00001	8b ec		 mov	 ebp, esp
  00003	83 ec 48	 sub	 esp, 72			; 00000048H
  00006	53		 push	 ebx
  00007	56		 push	 esi
  00008	57		 push	 edi
  00009	89 4d fc	 mov	 DWORD PTR _this$[ebp], ecx

; 4293 :         _Mypair._Myval2._Mysize = 0;

  0000c	8b 45 fc	 mov	 eax, DWORD PTR _this$[ebp]
  0000f	c7 40 10 00 00
	00 00		 mov	 DWORD PTR [eax+16], 0

; 4294 :         _Mypair._Myval2._Myres  = _BUF_SIZE - 1;

  00016	8b 45 fc	 mov	 eax, DWORD PTR _this$[ebp]
  00019	c7 40 14 0f 00
	00 00		 mov	 DWORD PTR [eax+20], 15	; 0000000fH

; 4295 :         // the _Traits::assign is last so the codegen doesn't think the char write can alias this
; 4296 :         _Traits::assign(_Mypair._Myval2._Bx._Buf[0], _Elem());

  00020	c6 45 bb 00	 mov	 BYTE PTR $T1[ebp], 0
  00024	8d 45 bb	 lea	 eax, DWORD PTR $T1[ebp]
  00027	50		 push	 eax
  00028	b9 01 00 00 00	 mov	 ecx, 1
  0002d	6b d1 00	 imul	 edx, ecx, 0
  00030	03 55 fc	 add	 edx, DWORD PTR _this$[ebp]
  00033	52		 push	 edx
  00034	e8 00 00 00 00	 call	 ?assign@?$_Narrow_char_traits@DH@std@@SAXAADABD@Z ; std::_Narrow_char_traits<char,int>::assign
  00039	83 c4 08	 add	 esp, 8

; 4297 :     }

  0003c	5f		 pop	 edi
  0003d	5e		 pop	 esi
  0003e	5b		 pop	 ebx
  0003f	8b e5		 mov	 esp, ebp
  00041	5d		 pop	 ebp
  00042	c3		 ret	 0
?_Tidy_init@?$basic_string@DU?$char_traits@D@std@@V?$allocator@D@2@@std@@AAEXXZ ENDP ; std::basic_string<char,std::char_traits<char>,std::allocator<char> >::_Tidy_init
_TEXT	ENDS
; Function compile flags: /Odtp /ZI
; File C:\Program Files (x86)\Microsoft Visual Studio\2019\Community\VC\Tools\MSVC\14.27.29110\include\xstring
;	COMDAT ??0?$basic_string@DU?$char_traits@D@std@@V?$allocator@D@2@@std@@QAE@XZ
_TEXT	SEGMENT
$T2 = -82						; size = 1
$T3 = -81						; size = 1
_this$ = -16						; size = 4
__$EHRec$ = -12						; size = 12
??0?$basic_string@DU?$char_traits@D@std@@V?$allocator@D@2@@std@@QAE@XZ PROC ; std::basic_string<char,std::char_traits<char>,std::allocator<char> >::basic_string<char,std::char_traits<char>,std::allocator<char> >, COMDAT
; _this$ = ecx

; 2287 :     basic_string() noexcept(is_nothrow_default_constructible_v<_Alty>) : _Mypair(_Zero_then_variadic_args_t{}) {

  00000	55		 push	 ebp
  00001	8b ec		 mov	 ebp, esp
  00003	6a ff		 push	 -1
  00005	68 00 00 00 00	 push	 __ehhandler$??0?$basic_string@DU?$char_traits@D@std@@V?$allocator@D@2@@std@@QAE@XZ
  0000a	64 a1 00 00 00
	00		 mov	 eax, DWORD PTR fs:0
  00010	50		 push	 eax
  00011	83 ec 48	 sub	 esp, 72			; 00000048H
  00014	53		 push	 ebx
  00015	56		 push	 esi
  00016	57		 push	 edi
  00017	a1 00 00 00 00	 mov	 eax, DWORD PTR ___security_cookie
  0001c	33 c5		 xor	 eax, ebp
  0001e	50		 push	 eax
  0001f	8d 45 f4	 lea	 eax, DWORD PTR __$EHRec$[ebp]
  00022	64 a3 00 00 00
	00		 mov	 DWORD PTR fs:0, eax
  00028	89 4d f0	 mov	 DWORD PTR _this$[ebp], ecx
  0002b	0f b6 45 af	 movzx	 eax, BYTE PTR $T3[ebp]
  0002f	50		 push	 eax
  00030	8b 4d f0	 mov	 ecx, DWORD PTR _this$[ebp]
  00033	e8 00 00 00 00	 call	 ??$?0$$V@?$_Compressed_pair@V?$allocator@D@std@@V?$_String_val@U?$_Simple_types@D@std@@@2@$00@std@@QAE@U_Zero_then_variadic_args_t@1@@Z ; std::_Compressed_pair<std::allocator<char>,std::_String_val<std::_Simple_types<char> >,1>::_Compressed_pair<std::allocator<char>,std::_String_val<std::_Simple_types<char> >,1><>

; 2288 :         _Mypair._Myval2._Alloc_proxy(_GET_PROXY_ALLOCATOR(_Alty, _Getal()));

  00038	8d 45 ae	 lea	 eax, DWORD PTR $T2[ebp]
  0003b	50		 push	 eax
  0003c	8b 4d f0	 mov	 ecx, DWORD PTR _this$[ebp]
  0003f	e8 00 00 00 00	 call	 ?_Alloc_proxy@_Container_base0@std@@QAEXABU_Fake_allocator@2@@Z ; std::_Container_base0::_Alloc_proxy

; 2289 :         _Tidy_init();

  00044	8b 4d f0	 mov	 ecx, DWORD PTR _this$[ebp]
  00047	e8 00 00 00 00	 call	 ?_Tidy_init@?$basic_string@DU?$char_traits@D@std@@V?$allocator@D@2@@std@@AAEXXZ ; std::basic_string<char,std::char_traits<char>,std::allocator<char> >::_Tidy_init

; 2290 :     }

  0004c	8b 45 f0	 mov	 eax, DWORD PTR _this$[ebp]
  0004f	8b 4d f4	 mov	 ecx, DWORD PTR __$EHRec$[ebp]
  00052	64 89 0d 00 00
	00 00		 mov	 DWORD PTR fs:0, ecx
  00059	59		 pop	 ecx
  0005a	5f		 pop	 edi
  0005b	5e		 pop	 esi
  0005c	5b		 pop	 ebx
  0005d	8b e5		 mov	 esp, ebp
  0005f	5d		 pop	 ebp
  00060	c3		 ret	 0
  00061	cc		 int	 3
  00062	cc		 int	 3
  00063	cc		 int	 3
  00064	cc		 int	 3
  00065	cc		 int	 3
_TEXT	ENDS
;	COMDAT text$x
text$x	SEGMENT
__ehhandler$??0?$basic_string@DU?$char_traits@D@std@@V?$allocator@D@2@@std@@QAE@XZ:
  00000	90		 npad	 1
  00001	90		 npad	 1
  00002	8b 54 24 08	 mov	 edx, DWORD PTR [esp+8]
  00006	8d 42 0c	 lea	 eax, DWORD PTR [edx+12]
  00009	8b 4a a8	 mov	 ecx, DWORD PTR [edx-88]
  0000c	33 c8		 xor	 ecx, eax
  0000e	e8 00 00 00 00	 call	 @__security_check_cookie@4
  00013	b8 00 00 00 00	 mov	 eax, OFFSET __ehfuncinfo$??0?$basic_string@DU?$char_traits@D@std@@V?$allocator@D@2@@std@@QAE@XZ
  00018	e9 00 00 00 00	 jmp	 ___CxxFrameHandler3
text$x	ENDS
??0?$basic_string@DU?$char_traits@D@std@@V?$allocator@D@2@@std@@QAE@XZ ENDP ; std::basic_string<char,std::char_traits<char>,std::allocator<char> >::basic_string<char,std::char_traits<char>,std::allocator<char> >
; Function compile flags: /Odtp /ZI
; File C:\Program Files (x86)\Microsoft Visual Studio\2019\Community\VC\Tools\MSVC\14.27.29110\include\xstring
;	COMDAT ??0_Bxty@?$_String_val@U?$_Simple_types@D@std@@@std@@QAE@XZ
_TEXT	SEGMENT
_this$ = -4						; size = 4
??0_Bxty@?$_String_val@U?$_Simple_types@D@std@@@std@@QAE@XZ PROC ; std::_String_val<std::_Simple_types<char> >::_Bxty::_Bxty, COMDAT
; _this$ = ecx

; 2178 :         _Bxty() {} // user-provided, for fancy pointers

  00000	55		 push	 ebp
  00001	8b ec		 mov	 ebp, esp
  00003	83 ec 44	 sub	 esp, 68			; 00000044H
  00006	53		 push	 ebx
  00007	56		 push	 esi
  00008	57		 push	 edi
  00009	89 4d fc	 mov	 DWORD PTR _this$[ebp], ecx
  0000c	8b 45 fc	 mov	 eax, DWORD PTR _this$[ebp]
  0000f	5f		 pop	 edi
  00010	5e		 pop	 esi
  00011	5b		 pop	 ebx
  00012	8b e5		 mov	 esp, ebp
  00014	5d		 pop	 ebp
  00015	c3		 ret	 0
??0_Bxty@?$_String_val@U?$_Simple_types@D@std@@@std@@QAE@XZ ENDP ; std::_String_val<std::_Simple_types<char> >::_Bxty::_Bxty
_TEXT	ENDS
; Function compile flags: /Odtp /ZI
; File C:\Program Files (x86)\Microsoft Visual Studio\2019\Community\VC\Tools\MSVC\14.27.29110\include\xstring
;	COMDAT ??0?$_String_val@U?$_Simple_types@D@std@@@std@@QAE@XZ
_TEXT	SEGMENT
_this$ = -4						; size = 4
??0?$_String_val@U?$_Simple_types@D@std@@@std@@QAE@XZ PROC ; std::_String_val<std::_Simple_types<char> >::_String_val<std::_Simple_types<char> >, COMDAT
; _this$ = ecx

; 2124 :     _String_val() : _Bx(), _Mysize(0), _Myres(0) {}

  00000	55		 push	 ebp
  00001	8b ec		 mov	 ebp, esp
  00003	83 ec 44	 sub	 esp, 68			; 00000044H
  00006	53		 push	 ebx
  00007	56		 push	 esi
  00008	57		 push	 edi
  00009	89 4d fc	 mov	 DWORD PTR _this$[ebp], ecx
  0000c	8b 4d fc	 mov	 ecx, DWORD PTR _this$[ebp]
  0000f	e8 00 00 00 00	 call	 ??0_Bxty@?$_String_val@U?$_Simple_types@D@std@@@std@@QAE@XZ ; std::_String_val<std::_Simple_types<char> >::_Bxty::_Bxty
  00014	8b 45 fc	 mov	 eax, DWORD PTR _this$[ebp]
  00017	c7 40 10 00 00
	00 00		 mov	 DWORD PTR [eax+16], 0
  0001e	8b 45 fc	 mov	 eax, DWORD PTR _this$[ebp]
  00021	c7 40 14 00 00
	00 00		 mov	 DWORD PTR [eax+20], 0
  00028	8b 45 fc	 mov	 eax, DWORD PTR _this$[ebp]
  0002b	5f		 pop	 edi
  0002c	5e		 pop	 esi
  0002d	5b		 pop	 ebx
  0002e	8b e5		 mov	 esp, ebp
  00030	5d		 pop	 ebp
  00031	c3		 ret	 0
??0?$_String_val@U?$_Simple_types@D@std@@@std@@QAE@XZ ENDP ; std::_String_val<std::_Simple_types<char> >::_String_val<std::_Simple_types<char> >
_TEXT	ENDS
; Function compile flags: /Odtp /ZI
; File C:\Program Files (x86)\Microsoft Visual Studio\2019\Community\VC\Tools\MSVC\14.27.29110\include\xmemory
;	COMDAT ??0?$allocator@D@std@@QAE@XZ
_TEXT	SEGMENT
_this$ = -4						; size = 4
??0?$allocator@D@std@@QAE@XZ PROC			; std::allocator<char>::allocator<char>, COMDAT
; _this$ = ecx

; 795  :     constexpr allocator() noexcept {}

  00000	55		 push	 ebp
  00001	8b ec		 mov	 ebp, esp
  00003	83 ec 44	 sub	 esp, 68			; 00000044H
  00006	53		 push	 ebx
  00007	56		 push	 esi
  00008	57		 push	 edi
  00009	89 4d fc	 mov	 DWORD PTR _this$[ebp], ecx
  0000c	8b 45 fc	 mov	 eax, DWORD PTR _this$[ebp]
  0000f	5f		 pop	 edi
  00010	5e		 pop	 esi
  00011	5b		 pop	 ebx
  00012	8b e5		 mov	 esp, ebp
  00014	5d		 pop	 ebp
  00015	c3		 ret	 0
??0?$allocator@D@std@@QAE@XZ ENDP			; std::allocator<char>::allocator<char>
_TEXT	ENDS
; Function compile flags: /Odtp /ZI
; File C:\Program Files (x86)\Microsoft Visual Studio\2019\Community\VC\Tools\MSVC\14.27.29110\include\xstring
;	COMDAT ?assign@?$_Narrow_char_traits@DH@std@@SAXAADABD@Z
_TEXT	SEGMENT
__Left$ = 8						; size = 4
__Right$ = 12						; size = 4
?assign@?$_Narrow_char_traits@DH@std@@SAXAADABD@Z PROC	; std::_Narrow_char_traits<char,int>::assign, COMDAT

; 372  :     static _CONSTEXPR17 void assign(_Elem& _Left, const _Elem& _Right) noexcept {

  00000	55		 push	 ebp
  00001	8b ec		 mov	 ebp, esp
  00003	83 ec 40	 sub	 esp, 64			; 00000040H
  00006	53		 push	 ebx
  00007	56		 push	 esi
  00008	57		 push	 edi

; 373  :         _Left = _Right;

  00009	8b 45 08	 mov	 eax, DWORD PTR __Left$[ebp]
  0000c	8b 4d 0c	 mov	 ecx, DWORD PTR __Right$[ebp]
  0000f	8a 11		 mov	 dl, BYTE PTR [ecx]
  00011	88 10		 mov	 BYTE PTR [eax], dl

; 374  :     }

  00013	5f		 pop	 edi
  00014	5e		 pop	 esi
  00015	5b		 pop	 ebx
  00016	8b e5		 mov	 esp, ebp
  00018	5d		 pop	 ebp
  00019	c3		 ret	 0
?assign@?$_Narrow_char_traits@DH@std@@SAXAADABD@Z ENDP	; std::_Narrow_char_traits<char,int>::assign
_TEXT	ENDS
; Function compile flags: /Odtp /ZI
; File C:\Program Files (x86)\Microsoft Visual Studio\2019\Community\VC\Tools\MSVC\14.27.29110\include\xmemory
;	COMDAT ?_Adopt@_Iterator_base0@std@@QAEXPBX@Z
_TEXT	SEGMENT
_this$ = -4						; size = 4
___formal$ = 8						; size = 4
?_Adopt@_Iterator_base0@std@@QAEXPBX@Z PROC		; std::_Iterator_base0::_Adopt, COMDAT
; _this$ = ecx

; 1072 :     void _Adopt(const void*) noexcept {}

  00000	55		 push	 ebp
  00001	8b ec		 mov	 ebp, esp
  00003	83 ec 44	 sub	 esp, 68			; 00000044H
  00006	53		 push	 ebx
  00007	56		 push	 esi
  00008	57		 push	 edi
  00009	89 4d fc	 mov	 DWORD PTR _this$[ebp], ecx
  0000c	5f		 pop	 edi
  0000d	5e		 pop	 esi
  0000e	5b		 pop	 ebx
  0000f	8b e5		 mov	 esp, ebp
  00011	5d		 pop	 ebp
  00012	c2 04 00	 ret	 4
?_Adopt@_Iterator_base0@std@@QAEXPBX@Z ENDP		; std::_Iterator_base0::_Adopt
_TEXT	ENDS
; Function compile flags: /Odtp /ZI
; File C:\Program Files (x86)\Microsoft Visual Studio\2019\Community\VC\Tools\MSVC\14.27.29110\include\xmemory
;	COMDAT ?_Alloc_proxy@_Container_base0@std@@QAEXABU_Fake_allocator@2@@Z
_TEXT	SEGMENT
_this$ = -4						; size = 4
___formal$ = 8						; size = 4
?_Alloc_proxy@_Container_base0@std@@QAEXABU_Fake_allocator@2@@Z PROC ; std::_Container_base0::_Alloc_proxy, COMDAT
; _this$ = ecx

; 1067 :     void _Alloc_proxy(const _Fake_allocator&) noexcept {}

  00000	55		 push	 ebp
  00001	8b ec		 mov	 ebp, esp
  00003	83 ec 44	 sub	 esp, 68			; 00000044H
  00006	53		 push	 ebx
  00007	56		 push	 esi
  00008	57		 push	 edi
  00009	89 4d fc	 mov	 DWORD PTR _this$[ebp], ecx
  0000c	5f		 pop	 edi
  0000d	5e		 pop	 esi
  0000e	5b		 pop	 ebx
  0000f	8b e5		 mov	 esp, ebp
  00011	5d		 pop	 ebp
  00012	c2 04 00	 ret	 4
?_Alloc_proxy@_Container_base0@std@@QAEXABU_Fake_allocator@2@@Z ENDP ; std::_Container_base0::_Alloc_proxy
_TEXT	ENDS
; Function compile flags: /Odtp /ZI
; File C:\Program Files (x86)\Windows Kits\10\Include\10.0.18362.0\ucrt\time.h
;	COMDAT _time
_TEXT	SEGMENT
__Time$ = 8						; size = 4
_time	PROC						; COMDAT

; 535  :         {

  00000	55		 push	 ebp
  00001	8b ec		 mov	 ebp, esp
  00003	83 ec 40	 sub	 esp, 64			; 00000040H
  00006	53		 push	 ebx
  00007	56		 push	 esi
  00008	57		 push	 edi

; 536  :             return _time64(_Time);

  00009	8b 45 08	 mov	 eax, DWORD PTR __Time$[ebp]
  0000c	50		 push	 eax
  0000d	e8 00 00 00 00	 call	 __time64
  00012	83 c4 04	 add	 esp, 4

; 537  :         }

  00015	5f		 pop	 edi
  00016	5e		 pop	 esi
  00017	5b		 pop	 ebx
  00018	8b e5		 mov	 esp, ebp
  0001a	5d		 pop	 ebp
  0001b	c3		 ret	 0
_time	ENDP
_TEXT	ENDS
; Function compile flags: /Odtp /ZI
; File C:\Program Files (x86)\Windows Kits\10\Include\10.0.18362.0\ucrt\time.h
;	COMDAT _localtime
_TEXT	SEGMENT
__Time$ = 8						; size = 4
_localtime PROC						; COMDAT

; 509  :         {

  00000	55		 push	 ebp
  00001	8b ec		 mov	 ebp, esp
  00003	83 ec 40	 sub	 esp, 64			; 00000040H
  00006	53		 push	 ebx
  00007	56		 push	 esi
  00008	57		 push	 edi

; 510  :             #pragma warning(push)
; 511  :             #pragma warning(disable: 4996)
; 512  :             return _localtime64(_Time);

  00009	8b 45 08	 mov	 eax, DWORD PTR __Time$[ebp]
  0000c	50		 push	 eax
  0000d	e8 00 00 00 00	 call	 __localtime64
  00012	83 c4 04	 add	 esp, 4

; 513  :             #pragma warning(pop)
; 514  :         }

  00015	5f		 pop	 edi
  00016	5e		 pop	 esi
  00017	5b		 pop	 ebx
  00018	8b e5		 mov	 esp, ebp
  0001a	5d		 pop	 ebp
  0001b	c3		 ret	 0
_localtime ENDP
_TEXT	ENDS
; Function compile flags: /Odtp /ZI
; File C:\Mu Online\Mu-GS-Webzen-MC-10093\GameServer\Gamemain.cpp
;	COMDAT ?__empty_global_delete@@YAXPAXI@Z
_TEXT	SEGMENT
___formal$ = 8						; size = 4
___formal$ = 12						; size = 4
?__empty_global_delete@@YAXPAXI@Z PROC			; __empty_global_delete, COMDAT

  00000	55		 push	 ebp
  00001	8b ec		 mov	 ebp, esp
  00003	83 ec 40	 sub	 esp, 64			; 00000040H
  00006	53		 push	 ebx
  00007	56		 push	 esi
  00008	57		 push	 edi
  00009	5f		 pop	 edi
  0000a	5e		 pop	 esi
  0000b	5b		 pop	 ebx
  0000c	8b e5		 mov	 esp, ebp
  0000e	5d		 pop	 ebp
  0000f	c3		 ret	 0
?__empty_global_delete@@YAXPAXI@Z ENDP			; __empty_global_delete
_TEXT	ENDS
; Function compile flags: /Odtp /ZI
; File C:\Mu Online\Mu-GS-Webzen-MC-10093\GameServer\Gamemain.cpp
;	COMDAT ?__empty_global_delete@@YAXPAX@Z
_TEXT	SEGMENT
___formal$ = 8						; size = 4
?__empty_global_delete@@YAXPAX@Z PROC			; __empty_global_delete, COMDAT

  00000	55		 push	 ebp
  00001	8b ec		 mov	 ebp, esp
  00003	83 ec 40	 sub	 esp, 64			; 00000040H
  00006	53		 push	 ebx
  00007	56		 push	 esi
  00008	57		 push	 edi
  00009	5f		 pop	 edi
  0000a	5e		 pop	 esi
  0000b	5b		 pop	 ebx
  0000c	8b e5		 mov	 esp, ebp
  0000e	5d		 pop	 ebp
  0000f	c3		 ret	 0
?__empty_global_delete@@YAXPAX@Z ENDP			; __empty_global_delete
_TEXT	ENDS
END
