; Listing generated by Microsoft (R) Optimizing Compiler Version 19.27.29111.0 

	TITLE	C:\Mu Online\Mu-GS-Webzen-MC-10093\GameServer\Gamemain.cpp
	.686P
	.XMM
	include listing.inc
	.model	flat

INCLUDELIB LIBCMT
INCLUDELIB OLDNAMES

PUBLIC	?JoinServerPort@@3HA				; JoinServerPort
PUBLIC	?GameServerPort@@3HA				; GameServerPort
PUBLIC	?DataServerPort@@3HA				; DataServerPort
PUBLIC	?JoinServerConnected@@3HA			; JoinServerConnected
PUBLIC	?DataServerConnected@@3HA			; DataServerConnected
PUBLIC	?gConnectBonus@@3HA				; gConnectBonus
PUBLIC	?gConnectBonusTime@@3HA				; gConnectBonusTime
PUBLIC	?gConnectBonusCashPoints@@3HA			; gConnectBonusCashPoints
PUBLIC	?DataServerPort2@@3HA				; DataServerPort2
PUBLIC	?ExDbPort@@3HA					; ExDbPort
PUBLIC	?DevilSquareEventConnect@@3HA			; DevilSquareEventConnect
PUBLIC	?IsDevilSquareEventConnected@@3HA		; IsDevilSquareEventConnected
PUBLIC	?EventChipServerConnect@@3HA			; EventChipServerConnect
PUBLIC	?IsEventChipServerConnected@@3HA		; IsEventChipServerConnected
PUBLIC	?gGameServerCode@@3FA				; gGameServerCode
PUBLIC	?SpeedHackPlayerBlock@@3HA			; SpeedHackPlayerBlock
PUBLIC	?bCanTrade@@3HA					; bCanTrade
PUBLIC	?bCanChaosBox@@3HA				; bCanChaosBox
PUBLIC	?gChaosEvent@@3HA				; gChaosEvent
PUBLIC	?bCanConnectMember@@3HA				; bCanConnectMember
PUBLIC	?bCanWarehouseLock@@3HA				; bCanWarehouseLock
PUBLIC	?gPkTime@@3HA					; gPkTime
PUBLIC	?gEvent1@@3HA					; gEvent1
PUBLIC	?gMerryXMasNpcEvent@@3HA			; gMerryXMasNpcEvent
PUBLIC	?gHappyNewYearNpcEvent@@3HA			; gHappyNewYearNpcEvent
PUBLIC	?gEvent1ItemDropTodayCount@@3HA			; gEvent1ItemDropTodayCount
PUBLIC	?gEvent1ItemDropTodayMax@@3HA			; gEvent1ItemDropTodayMax
PUBLIC	?gEvent1ItemDropTodayPercent@@3HA		; gEvent1ItemDropTodayPercent
PUBLIC	?dwgCheckSum@@3PAKA				; dwgCheckSum
PUBLIC	?MapC@@3PAVMapClass@@A				; MapC
PUBLIC	?gLevelExperience@@3PAKA			; gLevelExperience
PUBLIC	?gItemNumberCount@@3KA				; gItemNumberCount
PUBLIC	?szClientVersion@@3PADA				; szClientVersion
PUBLIC	?szServerName@@3PADA				; szServerName
PUBLIC	?szGameServerExeSerial@@3PADA			; szGameServerExeSerial
PUBLIC	?gLootingTime@@3HA				; gLootingTime
PUBLIC	?gPkItemDrop@@3HA				; gPkItemDrop
PUBLIC	?gItemDropPer@@3HA				; gItemDropPer
PUBLIC	?gCharacterDeleteMinLevel@@3HA			; gCharacterDeleteMinLevel
PUBLIC	?gCreateCharacter@@3HA				; gCreateCharacter
PUBLIC	?gGuildCreate@@3HA				; gGuildCreate
PUBLIC	?gGuildDestroy@@3HA				; gGuildDestroy
PUBLIC	?gGuildCreateLevel@@3HA				; gGuildCreateLevel
PUBLIC	?g_bCastleGuildDestoyLimit@@3HA			; g_bCastleGuildDestoyLimit
PUBLIC	?gItemSerialCheck@@3HA				; gItemSerialCheck
PUBLIC	?gAddExperience@@3MA				; gAddExperience
PUBLIC	?gAttackEventRegenTime@@3KA			; gAttackEventRegenTime
PUBLIC	?gLanguage@@3HA					; gLanguage
PUBLIC	?gNonPK@@3HA					; gNonPK
PUBLIC	?gYear@@3HA					; gYear
PUBLIC	?gAddZen@@3MA					; gAddZen
PUBLIC	?gPkLimitFree@@3HA				; gPkLimitFree
PUBLIC	?gXMasEvent@@3HA				; gXMasEvent
PUBLIC	?g_XMasEvent_StarOfXMasDropRate@@3HA		; g_XMasEvent_StarOfXMasDropRate
PUBLIC	?g_XMasEvent_ItemDropRateForStarOfXMas@@3HA	; g_XMasEvent_ItemDropRateForStarOfXMas
PUBLIC	?gFireCrackerEvent@@3HA				; gFireCrackerEvent
PUBLIC	?gFireCrackerDropRate@@3HA			; gFireCrackerDropRate
PUBLIC	?g_ItemDropRateForgFireCracker@@3HA		; g_ItemDropRateForgFireCracker
PUBLIC	?gOnlyFireCrackerEffectUse@@3HA			; gOnlyFireCrackerEffectUse
PUBLIC	?gHeartOfLoveEvent@@3HA				; gHeartOfLoveEvent
PUBLIC	?gHeartOfLoveDropRate@@3HA			; gHeartOfLoveDropRate
PUBLIC	?g_ItemDropRateForgHeartOfLove@@3HA		; g_ItemDropRateForgHeartOfLove
PUBLIC	?gMedalEvent@@3HA				; gMedalEvent
PUBLIC	?gGoldMedalDropRate@@3HA			; gGoldMedalDropRate
PUBLIC	?gSilverMedalDropRate@@3HA			; gSilverMedalDropRate
PUBLIC	?g_ItemDropRateForGoldMedal@@3HA		; g_ItemDropRateForGoldMedal
PUBLIC	?g_ItemDropRateForSilverMedal@@3HA		; g_ItemDropRateForSilverMedal
PUBLIC	?gEventChipEvent@@3HA				; gEventChipEvent
PUBLIC	?gBoxOfGoldDropRate@@3HA			; gBoxOfGoldDropRate
PUBLIC	?g_ItemDropRateForBoxOfGold@@3HA		; g_ItemDropRateForBoxOfGold
PUBLIC	?g_EventChipDropRateForBoxOfGold@@3HA		; g_EventChipDropRateForBoxOfGold
PUBLIC	?gApplyHeroSystem@@3HA				; gApplyHeroSystem
PUBLIC	?gSpeedHackPenalty@@3HA				; gSpeedHackPenalty
PUBLIC	?gDevilSquareEvent@@3HA				; gDevilSquareEvent
PUBLIC	?gEyesOfDevilSquareDropRate@@3HA		; gEyesOfDevilSquareDropRate
PUBLIC	?gKeyOfDevilSquareDropRate@@3HA			; gKeyOfDevilSquareDropRate
PUBLIC	?gDQChaosSuccessRateLevel1@@3HA			; gDQChaosSuccessRateLevel1
PUBLIC	?gDQChaosSuccessRateLevel2@@3HA			; gDQChaosSuccessRateLevel2
PUBLIC	?gDQChaosSuccessRateLevel3@@3HA			; gDQChaosSuccessRateLevel3
PUBLIC	?gDQChaosSuccessRateLevel4@@3HA			; gDQChaosSuccessRateLevel4
PUBLIC	?g_bBloodCastle@@3HA				; g_bBloodCastle
PUBLIC	?g_iBloodCastle_StartHour@@3HA			; g_iBloodCastle_StartHour
PUBLIC	?g_bStoneItemDrop@@3HA				; g_bStoneItemDrop
PUBLIC	?g_iStoneDropRate@@3HA				; g_iStoneDropRate
PUBLIC	?g_iAngelKingsPaperDropRate@@3HA		; g_iAngelKingsPaperDropRate
PUBLIC	?g_iBloodBoneDropRate@@3HA			; g_iBloodBoneDropRate
PUBLIC	?g_bChaosCastle@@3HA				; g_bChaosCastle
PUBLIC	?g_bDoRingEvent@@3HA				; g_bDoRingEvent
PUBLIC	?g_iRingOrcKillGiftRate@@3HA			; g_iRingOrcKillGiftRate
PUBLIC	?g_iRingDropGiftRate@@3HA			; g_iRingDropGiftRate
PUBLIC	?g_bEventManagerOn@@3HA				; g_bEventManagerOn
PUBLIC	?g_iKundunMarkDropRate@@3HA			; g_iKundunMarkDropRate
PUBLIC	?g_iDarkLordHeartDropRate@@3HA			; g_iDarkLordHeartDropRate
PUBLIC	?g_iDarkLordHeartOffEventRate@@3HA		; g_iDarkLordHeartOffEventRate
PUBLIC	?gZenDurationTime@@3HA				; gZenDurationTime
PUBLIC	?gDevilSquareEventServerIp@@3PADA		; gDevilSquareEventServerIp
PUBLIC	?gEventChipServerIp@@3PADA			; gEventChipServerIp
PUBLIC	?gHackLogServerIp@@3PADA			; gHackLogServerIp
PUBLIC	?gAttackSpeedTimeLimit@@3KA			; gAttackSpeedTimeLimit
PUBLIC	?bIsIgnorePacketSpeedHackDetect@@3HA		; bIsIgnorePacketSpeedHackDetect
PUBLIC	?gHackCheckCount@@3KA				; gHackCheckCount
PUBLIC	?gDecTimePerAttackSpeed@@3MA			; gDecTimePerAttackSpeed
PUBLIC	?gMinimumAttackSpeedTime@@3HA			; gMinimumAttackSpeedTime
PUBLIC	?gDetectedHackKickCount@@3HA			; gDetectedHackKickCount
PUBLIC	?gIsKickDetecHackCountLimit@@3HA		; gIsKickDetecHackCountLimit
PUBLIC	?gQuestNPCTeleportTime@@3HA			; gQuestNPCTeleportTime
PUBLIC	?gEnableBattleSoccer@@3HA			; gEnableBattleSoccer
PUBLIC	?gEnableEventNPCTalk@@3HA			; gEnableEventNPCTalk
PUBLIC	?gIsItemDropRingOfTransform@@3HA		; gIsItemDropRingOfTransform
PUBLIC	?gItemDropRingOfTransform@@3HA			; gItemDropRingOfTransform
PUBLIC	?gEnableServerDivision@@3HA			; gEnableServerDivision
PUBLIC	?gIsEledoradoEvent@@3HA				; gIsEledoradoEvent
PUBLIC	?gEledoradoGoldGoblenRegenTime@@3KA		; gEledoradoGoldGoblenRegenTime
PUBLIC	?gEledoradoTitanRegenTime@@3KA			; gEledoradoTitanRegenTime
PUBLIC	?gEledoradoGoldDerconRegenTime@@3KA		; gEledoradoGoldDerconRegenTime
PUBLIC	?gEledoradoDevilLizardKingRegenTime@@3KA	; gEledoradoDevilLizardKingRegenTime
PUBLIC	?gEledoradoDevilTantarosRegenTime@@3KA		; gEledoradoDevilTantarosRegenTime
PUBLIC	?gEledoradoGoldGoblenItemDropRate@@3HA		; gEledoradoGoldGoblenItemDropRate
PUBLIC	?gEledoradoTitanItemDropRate@@3HA		; gEledoradoTitanItemDropRate
PUBLIC	?gEledoradoGoldDerconItemDropRate@@3HA		; gEledoradoGoldDerconItemDropRate
PUBLIC	?gEledoradoDevilLizardKingItemDropRate@@3HA	; gEledoradoDevilLizardKingItemDropRate
PUBLIC	?gEledoradoDevilTantarosItemDropRate@@3HA	; gEledoradoDevilTantarosItemDropRate
PUBLIC	?gEledoradoGoldGoblenExItemDropRate@@3HA	; gEledoradoGoldGoblenExItemDropRate
PUBLIC	?gEledoradoTitanExItemDropRate@@3HA		; gEledoradoTitanExItemDropRate
PUBLIC	?gEledoradoGoldDerconExItemDropRate@@3HA	; gEledoradoGoldDerconExItemDropRate
PUBLIC	?gEledoradoDevilLizardKingExItemDropRate@@3HA	; gEledoradoDevilLizardKingExItemDropRate
PUBLIC	?gEledoradoDevilTantarosExItemDropRate@@3HA	; gEledoradoDevilTantarosExItemDropRate
PUBLIC	?gWriteChatLog@@3HA				; gWriteChatLog
PUBLIC	?gDisconnectHackUser@@3HA			; gDisconnectHackUser
PUBLIC	?gWriteSkillLog@@3HA				; gWriteSkillLog
PUBLIC	?gUseNPGGChecksum@@3HA				; gUseNPGGChecksum
PUBLIC	?gDoPShopOpen@@3HA				; gDoPShopOpen
PUBLIC	?gEnableCheckPenetrationSkill@@3HA		; gEnableCheckPenetrationSkill
PUBLIC	?giKundunRefillHPSec@@3HA			; giKundunRefillHPSec
PUBLIC	?giKundunRefillHP@@3HA				; giKundunRefillHP
PUBLIC	?giKundunRefillHPTime@@3HA			; giKundunRefillHPTime
PUBLIC	?gIsDropDarkLordItem@@3HA			; gIsDropDarkLordItem
PUBLIC	?gSleeveOfLordDropRate@@3HA			; gSleeveOfLordDropRate
PUBLIC	?gSleeveOfLordDropLevel@@3HA			; gSleeveOfLordDropLevel
PUBLIC	?gSoulOfDarkHorseDropRate@@3HA			; gSoulOfDarkHorseDropRate
PUBLIC	?gSoulOfDarkHorseropLevel@@3HA			; gSoulOfDarkHorseropLevel
PUBLIC	?gSoulOfDarkSpiritDropRate@@3HA			; gSoulOfDarkSpiritDropRate
PUBLIC	?gSoulOfDarkSpiritDropLevel@@3HA		; gSoulOfDarkSpiritDropLevel
PUBLIC	?gDarkSpiritAddExperience@@3MA			; gDarkSpiritAddExperience
PUBLIC	?g_iSkillDistanceCheck@@3HA			; g_iSkillDistanceCheck
PUBLIC	?g_iSkillDistanceCheckTemp@@3HA			; g_iSkillDistanceCheckTemp
PUBLIC	?g_iSkillDistanceKick@@3HA			; g_iSkillDistanceKick
PUBLIC	?g_iSkillDistanceKickCount@@3HA			; g_iSkillDistanceKickCount
PUBLIC	?g_iSkillDiatanceKickCheckTime@@3HA		; g_iSkillDiatanceKickCheckTime
PUBLIC	?g_ShadowPahtomMaxLevel@@3HA			; g_ShadowPahtomMaxLevel
PUBLIC	?g_bCheckSpeedHack@@3HA				; g_bCheckSpeedHack
PUBLIC	?g_szMapName@@3PAY0CA@DA			; g_szMapName
PUBLIC	?szGameServerVersion@@3PADA			; szGameServerVersion
PUBLIC	??_C@_07GPEENMPM@1?400?492@			; `string'
PUBLIC	?GameServerCreated@@3HA				; GameServerCreated
PUBLIC	?DragonEvent@@3PAVCDragonEvent@@A		; DragonEvent
PUBLIC	?AttackEvent@@3PAVCAttackEvent@@A		; AttackEvent
PUBLIC	?LuckboxItemBag@@3PAVCItemBag@@A		; LuckboxItemBag
PUBLIC	?Mon55@@3PAVCItemBag@@A				; Mon55
PUBLIC	?Mon53@@3PAVCItemBag@@A				; Mon53
PUBLIC	?StarOfXMasItemBag@@3PAVCItemBagEx@@A		; StarOfXMasItemBag
PUBLIC	?FireCrackerItemBag@@3PAVCItemBag@@A		; FireCrackerItemBag
PUBLIC	?HeartOfLoveItemBag@@3PAVCItemBag@@A		; HeartOfLoveItemBag
PUBLIC	?GoldMedalItemBag@@3PAVCItemBag@@A		; GoldMedalItemBag
PUBLIC	?SilverMedalItemBag@@3PAVCItemBag@@A		; SilverMedalItemBag
PUBLIC	?EventChipItemBag@@3PAVCItemBag@@A		; EventChipItemBag
PUBLIC	?GoldGoblenItemBag@@3PAVCItemBag@@A		; GoldGoblenItemBag
PUBLIC	?TitanItemBag@@3PAVCItemBag@@A			; TitanItemBag
PUBLIC	?GoldDerconItemBag@@3PAVCItemBag@@A		; GoldDerconItemBag
PUBLIC	?DevilLizardKingItemBag@@3PAVCItemBag@@A	; DevilLizardKingItemBag
PUBLIC	?KanturItemBag@@3PAVCItemBag@@A			; KanturItemBag
PUBLIC	?RingEventItemBag@@3PAVCItemBag@@A		; RingEventItemBag
PUBLIC	?FriendShipItemBag@@3PAVCItemBag@@A		; FriendShipItemBag
PUBLIC	?DarkLordHeartItemBag@@3PAVCItemBag@@A		; DarkLordHeartItemBag
PUBLIC	?KundunEventItemBag@@3PAVCItemBagEx@@A		; KundunEventItemBag
PUBLIC	?szKorItemTextFileName@@3PADA			; szKorItemTextFileName
PUBLIC	?szKorSkillTextFileName@@3PADA			; szKorSkillTextFileName
PUBLIC	?szItemTextFileName@@3PADA			; szItemTextFileName
PUBLIC	?szSkillTextFileName@@3PADA			; szSkillTextFileName
PUBLIC	?szQuestTextFileName@@3PADA			; szQuestTextFileName
PUBLIC	?szMoveReqFileName@@3PADA			; szMoveReqFileName
PUBLIC	?szCommonlocIniFileName@@3PADA			; szCommonlocIniFileName
PUBLIC	?connectserverip@@3PADA				; connectserverip
PUBLIC	?connectserverport@@3HA				; connectserverport
PUBLIC	?gMonsterHp@@3HA				; gMonsterHp
PUBLIC	?gCountryName@@3PADA				; gCountryName
PUBLIC	?gChaosEventServerIp@@3PADA			; gChaosEventServerIp
PUBLIC	?gStalkProtocolId@@3PADA			; gStalkProtocolId
PUBLIC	?gStalkProtocol@@3HA				; gStalkProtocol
PUBLIC	?gConnectBonusCredits@@3HA			; gConnectBonusCredits
PUBLIC	?gConnectBonusZen@@3HA				; gConnectBonusZen
PUBLIC	?gConnectHackIPBlockTime@@3HA			; gConnectHackIPBlockTime
PUBLIC	?gConnectIntervalTime@@3HA			; gConnectIntervalTime
PUBLIC	?gConnectRenewBlockTime@@3HA			; gConnectRenewBlockTime
PUBLIC	?GSInfoSendFlag@@3HA				; GSInfoSendFlag
_BSS	SEGMENT
?JoinServerPort@@3HA DD 01H DUP (?)			; JoinServerPort
?GameServerPort@@3HA DD 01H DUP (?)			; GameServerPort
?DataServerPort@@3HA DD 01H DUP (?)			; DataServerPort
?JoinServerConnected@@3HA DD 01H DUP (?)		; JoinServerConnected
?DataServerConnected@@3HA DD 01H DUP (?)		; DataServerConnected
?gConnectBonus@@3HA DD 01H DUP (?)			; gConnectBonus
?gConnectBonusTime@@3HA DD 01H DUP (?)			; gConnectBonusTime
?gConnectBonusCashPoints@@3HA DD 01H DUP (?)		; gConnectBonusCashPoints
?DataServerPort2@@3HA DD 01H DUP (?)			; DataServerPort2
?ExDbPort@@3HA DD 01H DUP (?)				; ExDbPort
?DevilSquareEventConnect@@3HA DD 01H DUP (?)		; DevilSquareEventConnect
?IsDevilSquareEventConnected@@3HA DD 01H DUP (?)	; IsDevilSquareEventConnected
?EventChipServerConnect@@3HA DD 01H DUP (?)		; EventChipServerConnect
?IsEventChipServerConnected@@3HA DD 01H DUP (?)		; IsEventChipServerConnected
?gGameServerCode@@3FA DW 01H DUP (?)			; gGameServerCode
	ALIGN	4

?SpeedHackPlayerBlock@@3HA DD 01H DUP (?)		; SpeedHackPlayerBlock
?gChaosEvent@@3HA DD 01H DUP (?)			; gChaosEvent
?bCanConnectMember@@3HA DD 01H DUP (?)			; bCanConnectMember
?gPkTime@@3HA DD 01H DUP (?)				; gPkTime
?gEvent1@@3HA DD 01H DUP (?)				; gEvent1
?gMerryXMasNpcEvent@@3HA DD 01H DUP (?)			; gMerryXMasNpcEvent
?gHappyNewYearNpcEvent@@3HA DD 01H DUP (?)		; gHappyNewYearNpcEvent
?gEvent1ItemDropTodayCount@@3HA DD 01H DUP (?)		; gEvent1ItemDropTodayCount
?dwgCheckSum@@3PAKA DD 0400H DUP (?)			; dwgCheckSum
?MapC@@3PAVMapClass@@A DD 01H DUP (?)			; MapC
?gLevelExperience@@3PAKA DD 0191H DUP (?)		; gLevelExperience
?gItemNumberCount@@3KA DD 01H DUP (?)			; gItemNumberCount
?szServerName@@3PADA DB 033H DUP (?)			; szServerName
	ALIGN	4

?szGameServerExeSerial@@3PADA DB 015H DUP (?)		; szGameServerExeSerial
	ALIGN	4

?g_bCastleGuildDestoyLimit@@3HA DD 01H DUP (?)		; g_bCastleGuildDestoyLimit
?gAttackEventRegenTime@@3KA DD 01H DUP (?)		; gAttackEventRegenTime
?gLanguage@@3HA DD 01H DUP (?)				; gLanguage
?gNonPK@@3HA DD	01H DUP (?)				; gNonPK
?gYear@@3HA DD	01H DUP (?)				; gYear
?gPkLimitFree@@3HA DD 01H DUP (?)			; gPkLimitFree
?gXMasEvent@@3HA DD 01H DUP (?)				; gXMasEvent
?gFireCrackerEvent@@3HA DD 01H DUP (?)			; gFireCrackerEvent
?gOnlyFireCrackerEffectUse@@3HA DD 01H DUP (?)		; gOnlyFireCrackerEffectUse
?gHeartOfLoveEvent@@3HA DD 01H DUP (?)			; gHeartOfLoveEvent
?gMedalEvent@@3HA DD 01H DUP (?)			; gMedalEvent
?gEventChipEvent@@3HA DD 01H DUP (?)			; gEventChipEvent
?gApplyHeroSystem@@3HA DD 01H DUP (?)			; gApplyHeroSystem
?gSpeedHackPenalty@@3HA DD 01H DUP (?)			; gSpeedHackPenalty
?gDevilSquareEvent@@3HA DD 01H DUP (?)			; gDevilSquareEvent
?g_bStoneItemDrop@@3HA DD 01H DUP (?)			; g_bStoneItemDrop
?g_bDoRingEvent@@3HA DD 01H DUP (?)			; g_bDoRingEvent
?g_iRingOrcKillGiftRate@@3HA DD 01H DUP (?)		; g_iRingOrcKillGiftRate
?g_iRingDropGiftRate@@3HA DD 01H DUP (?)		; g_iRingDropGiftRate
?g_bEventManagerOn@@3HA DD 01H DUP (?)			; g_bEventManagerOn
?g_iKundunMarkDropRate@@3HA DD 01H DUP (?)		; g_iKundunMarkDropRate
?g_iDarkLordHeartDropRate@@3HA DD 01H DUP (?)		; g_iDarkLordHeartDropRate
?g_iDarkLordHeartOffEventRate@@3HA DD 01H DUP (?)	; g_iDarkLordHeartOffEventRate
?gDevilSquareEventServerIp@@3PADA DB 014H DUP (?)	; gDevilSquareEventServerIp
?gEventChipServerIp@@3PADA DB 014H DUP (?)		; gEventChipServerIp
?gHackLogServerIp@@3PADA DB 014H DUP (?)		; gHackLogServerIp
?bIsIgnorePacketSpeedHackDetect@@3HA DD 01H DUP (?)	; bIsIgnorePacketSpeedHackDetect
?gIsKickDetecHackCountLimit@@3HA DD 01H DUP (?)		; gIsKickDetecHackCountLimit
?gEnableEventNPCTalk@@3HA DD 01H DUP (?)		; gEnableEventNPCTalk
?gIsItemDropRingOfTransform@@3HA DD 01H DUP (?)		; gIsItemDropRingOfTransform
?gEnableServerDivision@@3HA DD 01H DUP (?)		; gEnableServerDivision
?gIsEledoradoEvent@@3HA DD 01H DUP (?)			; gIsEledoradoEvent
?gEledoradoGoldGoblenItemDropRate@@3HA DD 01H DUP (?)	; gEledoradoGoldGoblenItemDropRate
?gEledoradoTitanItemDropRate@@3HA DD 01H DUP (?)	; gEledoradoTitanItemDropRate
?gEledoradoGoldDerconItemDropRate@@3HA DD 01H DUP (?)	; gEledoradoGoldDerconItemDropRate
?gEledoradoDevilLizardKingItemDropRate@@3HA DD 01H DUP (?) ; gEledoradoDevilLizardKingItemDropRate
?gEledoradoDevilTantarosItemDropRate@@3HA DD 01H DUP (?) ; gEledoradoDevilTantarosItemDropRate
?gEledoradoGoldGoblenExItemDropRate@@3HA DD 01H DUP (?)	; gEledoradoGoldGoblenExItemDropRate
?gEledoradoTitanExItemDropRate@@3HA DD 01H DUP (?)	; gEledoradoTitanExItemDropRate
?gEledoradoGoldDerconExItemDropRate@@3HA DD 01H DUP (?)	; gEledoradoGoldDerconExItemDropRate
?gEledoradoDevilLizardKingExItemDropRate@@3HA DD 01H DUP (?) ; gEledoradoDevilLizardKingExItemDropRate
?gEledoradoDevilTantarosExItemDropRate@@3HA DD 01H DUP (?) ; gEledoradoDevilTantarosExItemDropRate
?gWriteChatLog@@3HA DD 01H DUP (?)			; gWriteChatLog
?gDisconnectHackUser@@3HA DD 01H DUP (?)		; gDisconnectHackUser
?gWriteSkillLog@@3HA DD 01H DUP (?)			; gWriteSkillLog
?gUseNPGGChecksum@@3HA DD 01H DUP (?)			; gUseNPGGChecksum
?gDoPShopOpen@@3HA DD 01H DUP (?)			; gDoPShopOpen
?giKundunRefillHPSec@@3HA DD 01H DUP (?)		; giKundunRefillHPSec
?giKundunRefillHP@@3HA DD 01H DUP (?)			; giKundunRefillHP
?giKundunRefillHPTime@@3HA DD 01H DUP (?)		; giKundunRefillHPTime
?gIsDropDarkLordItem@@3HA DD 01H DUP (?)		; gIsDropDarkLordItem
?gSleeveOfLordDropRate@@3HA DD 01H DUP (?)		; gSleeveOfLordDropRate
?gSleeveOfLordDropLevel@@3HA DD 01H DUP (?)		; gSleeveOfLordDropLevel
?gSoulOfDarkHorseDropRate@@3HA DD 01H DUP (?)		; gSoulOfDarkHorseDropRate
?gSoulOfDarkHorseropLevel@@3HA DD 01H DUP (?)		; gSoulOfDarkHorseropLevel
?gSoulOfDarkSpiritDropRate@@3HA DD 01H DUP (?)		; gSoulOfDarkSpiritDropRate
?gSoulOfDarkSpiritDropLevel@@3HA DD 01H DUP (?)		; gSoulOfDarkSpiritDropLevel
?gDarkSpiritAddExperience@@3MA DD 01H DUP (?)		; gDarkSpiritAddExperience
?g_iSkillDistanceCheck@@3HA DD 01H DUP (?)		; g_iSkillDistanceCheck
?g_iSkillDistanceCheckTemp@@3HA DD 01H DUP (?)		; g_iSkillDistanceCheckTemp
?g_iSkillDistanceKick@@3HA DD 01H DUP (?)		; g_iSkillDistanceKick
?g_iSkillDistanceKickCount@@3HA DD 01H DUP (?)		; g_iSkillDistanceKickCount
?g_iSkillDiatanceKickCheckTime@@3HA DD 01H DUP (?)	; g_iSkillDiatanceKickCheckTime
?GameServerCreated@@3HA DD 01H DUP (?)			; GameServerCreated
?DragonEvent@@3PAVCDragonEvent@@A DD 01H DUP (?)	; DragonEvent
?AttackEvent@@3PAVCAttackEvent@@A DD 01H DUP (?)	; AttackEvent
?LuckboxItemBag@@3PAVCItemBag@@A DD 01H DUP (?)		; LuckboxItemBag
?Mon55@@3PAVCItemBag@@A DD 01H DUP (?)			; Mon55
?Mon53@@3PAVCItemBag@@A DD 01H DUP (?)			; Mon53
?StarOfXMasItemBag@@3PAVCItemBagEx@@A DD 01H DUP (?)	; StarOfXMasItemBag
?FireCrackerItemBag@@3PAVCItemBag@@A DD 01H DUP (?)	; FireCrackerItemBag
?HeartOfLoveItemBag@@3PAVCItemBag@@A DD 01H DUP (?)	; HeartOfLoveItemBag
?GoldMedalItemBag@@3PAVCItemBag@@A DD 01H DUP (?)	; GoldMedalItemBag
?SilverMedalItemBag@@3PAVCItemBag@@A DD 01H DUP (?)	; SilverMedalItemBag
?EventChipItemBag@@3PAVCItemBag@@A DD 01H DUP (?)	; EventChipItemBag
?GoldGoblenItemBag@@3PAVCItemBag@@A DD 01H DUP (?)	; GoldGoblenItemBag
?TitanItemBag@@3PAVCItemBag@@A DD 01H DUP (?)		; TitanItemBag
?GoldDerconItemBag@@3PAVCItemBag@@A DD 01H DUP (?)	; GoldDerconItemBag
?DevilLizardKingItemBag@@3PAVCItemBag@@A DD 01H DUP (?)	; DevilLizardKingItemBag
?KanturItemBag@@3PAVCItemBag@@A DD 01H DUP (?)		; KanturItemBag
?RingEventItemBag@@3PAVCItemBag@@A DD 01H DUP (?)	; RingEventItemBag
?FriendShipItemBag@@3PAVCItemBag@@A DD 01H DUP (?)	; FriendShipItemBag
?DarkLordHeartItemBag@@3PAVCItemBag@@A DD 01H DUP (?)	; DarkLordHeartItemBag
?KundunEventItemBag@@3PAVCItemBagEx@@A DD 01H DUP (?)	; KundunEventItemBag
?szKorItemTextFileName@@3PADA DB 0100H DUP (?)		; szKorItemTextFileName
?szKorSkillTextFileName@@3PADA DB 0100H DUP (?)		; szKorSkillTextFileName
?szItemTextFileName@@3PADA DB 0100H DUP (?)		; szItemTextFileName
?szSkillTextFileName@@3PADA DB 0100H DUP (?)		; szSkillTextFileName
?szQuestTextFileName@@3PADA DB 0100H DUP (?)		; szQuestTextFileName
?szMoveReqFileName@@3PADA DB 0ffH DUP (?)		; szMoveReqFileName
	ALIGN	4

?szCommonlocIniFileName@@3PADA DB 0100H DUP (?)		; szCommonlocIniFileName
?connectserverip@@3PADA DB 014H DUP (?)			; connectserverip
?connectserverport@@3HA DD 01H DUP (?)			; connectserverport
?gMonsterHp@@3HA DD 01H DUP (?)				; gMonsterHp
?gChaosEventServerIp@@3PADA DB 014H DUP (?)		; gChaosEventServerIp
?gStalkProtocolId@@3PADA DB 0bH DUP (?)			; gStalkProtocolId
	ALIGN	4

?gStalkProtocol@@3HA DD 01H DUP (?)			; gStalkProtocol
?gConnectBonusCredits@@3HA DD 01H DUP (?)		; gConnectBonusCredits
?gConnectBonusZen@@3HA DD 01H DUP (?)			; gConnectBonusZen
?gConnectHackIPBlockTime@@3HA DD 01H DUP (?)		; gConnectHackIPBlockTime
?gConnectIntervalTime@@3HA DD 01H DUP (?)		; gConnectIntervalTime
?gConnectRenewBlockTime@@3HA DD 01H DUP (?)		; gConnectRenewBlockTime
?GSInfoSendFlag@@3HA DD 01H DUP (?)			; GSInfoSendFlag
_BSS	ENDS
;	COMDAT ??_C@_07GPEENMPM@1?400?492@
CONST	SEGMENT
??_C@_07GPEENMPM@1?400?492@ DB '1.00.92', 00H		; `string'
CONST	ENDS
_DATA	SEGMENT
?bCanTrade@@3HA DD 01H					; bCanTrade
?bCanChaosBox@@3HA DD 01H				; bCanChaosBox
?bCanWarehouseLock@@3HA DD 01H				; bCanWarehouseLock
?gEvent1ItemDropTodayMax@@3HA DD 01H			; gEvent1ItemDropTodayMax
?gEvent1ItemDropTodayPercent@@3HA DD 0989680H		; gEvent1ItemDropTodayPercent
?szClientVersion@@3PADA DB 030H				; szClientVersion
	DB	030H
	DB	030H
	DB	030H
	DB	030H
	ORG $+3
?gLootingTime@@3HA DD 03H				; gLootingTime
?gPkItemDrop@@3HA DD 01H				; gPkItemDrop
?gItemDropPer@@3HA DD 0aH				; gItemDropPer
?gCharacterDeleteMinLevel@@3HA DD 028H			; gCharacterDeleteMinLevel
?gCreateCharacter@@3HA DD 01H				; gCreateCharacter
?gGuildCreate@@3HA DD 01H				; gGuildCreate
?gGuildDestroy@@3HA DD 01H				; gGuildDestroy
?gGuildCreateLevel@@3HA DD 064H				; gGuildCreateLevel
?gItemSerialCheck@@3HA DD 01H				; gItemSerialCheck
?gAddExperience@@3MA DD 03f800000r		; 1	; gAddExperience
?gAddZen@@3MA DD 03f800000r			; 1	; gAddZen
?g_XMasEvent_StarOfXMasDropRate@@3HA DD 01388H		; g_XMasEvent_StarOfXMasDropRate
?g_XMasEvent_ItemDropRateForStarOfXMas@@3HA DD 02H	; g_XMasEvent_ItemDropRateForStarOfXMas
?gFireCrackerDropRate@@3HA DD 01388H			; gFireCrackerDropRate
?g_ItemDropRateForgFireCracker@@3HA DD 02H		; g_ItemDropRateForgFireCracker
?gHeartOfLoveDropRate@@3HA DD 01388H			; gHeartOfLoveDropRate
?g_ItemDropRateForgHeartOfLove@@3HA DD 02H		; g_ItemDropRateForgHeartOfLove
?gGoldMedalDropRate@@3HA DD 02H				; gGoldMedalDropRate
?gSilverMedalDropRate@@3HA DD 02H			; gSilverMedalDropRate
?g_ItemDropRateForGoldMedal@@3HA DD 02H			; g_ItemDropRateForGoldMedal
?g_ItemDropRateForSilverMedal@@3HA DD 02H		; g_ItemDropRateForSilverMedal
?gBoxOfGoldDropRate@@3HA DD 02H				; gBoxOfGoldDropRate
?g_ItemDropRateForBoxOfGold@@3HA DD 02H			; g_ItemDropRateForBoxOfGold
?g_EventChipDropRateForBoxOfGold@@3HA DD 032H		; g_EventChipDropRateForBoxOfGold
?gEyesOfDevilSquareDropRate@@3HA DD 02H			; gEyesOfDevilSquareDropRate
?gKeyOfDevilSquareDropRate@@3HA DD 03H			; gKeyOfDevilSquareDropRate
?gDQChaosSuccessRateLevel1@@3HA DD 028H			; gDQChaosSuccessRateLevel1
?gDQChaosSuccessRateLevel2@@3HA DD 028H			; gDQChaosSuccessRateLevel2
?gDQChaosSuccessRateLevel3@@3HA DD 01eH			; gDQChaosSuccessRateLevel3
?gDQChaosSuccessRateLevel4@@3HA DD 01eH			; gDQChaosSuccessRateLevel4
?g_bBloodCastle@@3HA DD 01H				; g_bBloodCastle
?g_iBloodCastle_StartHour@@3HA DD 01H			; g_iBloodCastle_StartHour
?g_iStoneDropRate@@3HA DD 032H				; g_iStoneDropRate
?g_iAngelKingsPaperDropRate@@3HA DD 0aH			; g_iAngelKingsPaperDropRate
?g_iBloodBoneDropRate@@3HA DD 014H			; g_iBloodBoneDropRate
?g_bChaosCastle@@3HA DD 01H				; g_bChaosCastle
?gZenDurationTime@@3HA DD 01eH				; gZenDurationTime
?gAttackSpeedTimeLimit@@3KA DD 01f4H			; gAttackSpeedTimeLimit
?gHackCheckCount@@3KA DD 05H				; gHackCheckCount
?gDecTimePerAttackSpeed@@3MA DD 040aa8f5cr	; 5.33	; gDecTimePerAttackSpeed
?gMinimumAttackSpeedTime@@3HA DD 0c8H			; gMinimumAttackSpeedTime
?gDetectedHackKickCount@@3HA DD 0aH			; gDetectedHackKickCount
?gQuestNPCTeleportTime@@3HA DD 03cH			; gQuestNPCTeleportTime
?gEnableBattleSoccer@@3HA DD 01H			; gEnableBattleSoccer
?gItemDropRingOfTransform@@3HA DD 01H			; gItemDropRingOfTransform
?gEledoradoGoldGoblenRegenTime@@3KA DD 03cH		; gEledoradoGoldGoblenRegenTime
?gEledoradoTitanRegenTime@@3KA DD 03cH			; gEledoradoTitanRegenTime
?gEledoradoGoldDerconRegenTime@@3KA DD 0f0H		; gEledoradoGoldDerconRegenTime
?gEledoradoDevilLizardKingRegenTime@@3KA DD 078H	; gEledoradoDevilLizardKingRegenTime
?gEledoradoDevilTantarosRegenTime@@3KA DD 078H		; gEledoradoDevilTantarosRegenTime
?gEnableCheckPenetrationSkill@@3HA DD 01H		; gEnableCheckPenetrationSkill
?g_ShadowPahtomMaxLevel@@3HA DD 0dcH			; g_ShadowPahtomMaxLevel
?g_bCheckSpeedHack@@3HA DD 01H				; g_bCheckSpeedHack
?g_szMapName@@3PAY0CA@DA DB 0b7H, 0ceH, 0b7H, 0a3H, 0bdH, 0c3H, 0beH, 0c6H
	DB	00H						; g_szMapName
	ORG $+23
	DB	0b4H, 0f8H, 0c0H, 0fcH, 00H
	ORG $+27
	DB	0b5H, 0a5H, 0baH, 0f1H, 0beH, 0c6H, 0bdH, 0baH, 00H
	ORG $+23
	DB	0b3H, 0ebH, 0b8H, 0aeH, 0beH, 0c6H, 00H
	ORG $+25
	DB	0b7H, 0ceH, 0bdH, 0baH, 0c6H, 0aeH, ' ', 0c5H, 0b8H, 0bfH
	DB	0f6H, 00H
	ORG $+20
	DB	0b7H, 0ceH, 0bdH, 0baH, 0c6H, 0aeH, ' ', 0c5H, 0b8H, 0bfH
	DB	0f6H, 00H
	ORG $+20
	DB	0b0H, 0e6H, 0b1H, 0e2H, 0c0H, 0e5H, 00H
	ORG $+25
	DB	0beH, 0c6H, 0c6H, 0b2H, 0b6H, 0f5H, 0bdH, 0baH, 00H
	ORG $+23
	DB	0c5H, 0b8H, 0b8H, 0a3H, 0c4H, 0adH, 00H
	ORG $+25
	DB	0b5H, 0a5H, 0baH, 0f4H, 0bdH, 0baH, 0c4H, 0f9H, 0beH, 0eeH
	DB	00H
	ORG $+21
	DB	0c0H, 0ccH, 0c4H, 0abH, 0b7H, 0e7H, 0bdH, 0baH, 00H
	ORG $+23
	DB	0baH, 0edH, 0b7H, 0afH, 0b5H, 0e5H, 0c4H, 0b3H, 0bdH, 0bdH
	DB	'1', 00H
	ORG $+20
	DB	0baH, 0edH, 0b7H, 0afH, 0b5H, 0e5H, 0c4H, 0b3H, 0bdH, 0bdH
	DB	'2', 00H
	ORG $+20
	DB	0baH, 0edH, 0b7H, 0afH, 0b5H, 0e5H, 0c4H, 0b3H, 0bdH, 0bdH
	DB	'3', 00H
	ORG $+20
	DB	0baH, 0edH, 0b7H, 0afH, 0b5H, 0e5H, 0c4H, 0b3H, 0bdH, 0bdH
	DB	'4', 00H
	ORG $+20
	DB	0baH, 0edH, 0b7H, 0afH, 0b5H, 0e5H, 0c4H, 0b3H, 0bdH, 0bdH
	DB	'5', 00H
	ORG $+20
	DB	0baH, 0edH, 0b7H, 0afH, 0b5H, 0e5H, 0c4H, 0b3H, 0bdH, 0bdH
	DB	'6', 00H
	ORG $+20
	ORG $+416
?szGameServerVersion@@3PADA DD FLAT:??_C@_07GPEENMPM@1?400?492@ ; szGameServerVersion
?gCountryName@@3PADA DB 'Kor', 00H			; gCountryName
	ORG $+16
_DATA	ENDS
PUBLIC	?__empty_global_delete@@YAXPAX@Z		; __empty_global_delete
PUBLIC	?__empty_global_delete@@YAXPAXI@Z		; __empty_global_delete
PUBLIC	?_Alloc_proxy@_Container_base0@std@@QAEXABU_Fake_allocator@2@@Z ; std::_Container_base0::_Alloc_proxy
PUBLIC	?_Adopt@_Iterator_base0@std@@QAEXPBX@Z		; std::_Iterator_base0::_Adopt
PUBLIC	?assign@?$_Narrow_char_traits@DH@std@@SAXAADABD@Z ; std::_Narrow_char_traits<char,int>::assign
PUBLIC	??0?$allocator@D@std@@QAE@XZ			; std::allocator<char>::allocator<char>
PUBLIC	??0?$_String_val@U?$_Simple_types@D@std@@@std@@QAE@XZ ; std::_String_val<std::_Simple_types<char> >::_String_val<std::_Simple_types<char> >
PUBLIC	??0_Bxty@?$_String_val@U?$_Simple_types@D@std@@@std@@QAE@XZ ; std::_String_val<std::_Simple_types<char> >::_Bxty::_Bxty
PUBLIC	??0?$basic_string@DU?$char_traits@D@std@@V?$allocator@D@2@@std@@QAE@XZ ; std::basic_string<char,std::char_traits<char>,std::allocator<char> >::basic_string<char,std::char_traits<char>,std::allocator<char> >
PUBLIC	?_Tidy_init@?$basic_string@DU?$char_traits@D@std@@V?$allocator@D@2@@std@@AAEXXZ ; std::basic_string<char,std::char_traits<char>,std::allocator<char> >::_Tidy_init
PUBLIC	?set@PBMSG_HEAD@@QAEXPAEEE@Z			; PBMSG_HEAD::set
PUBLIC	??R?$less@H@std@@QBE_NABH0@Z			; std::less<int>::operator()
PUBLIC	?Size@CTerrainManager@@QAE?BHXZ			; CTerrainManager::Size
PUBLIC	?GetTerrainName@CTerrainManager@@QAEPADH@Z	; CTerrainManager::GetTerrainName
PUBLIC	?CheckTerrain@CTerrainManager@@QAE_NH@Z		; CTerrainManager::CheckTerrain
PUBLIC	?end@?$_Tree@V?$_Tmap_traits@HU_TERRAIN_INFO@@U?$less@H@std@@V?$allocator@U?$pair@$$CBHU_TERRAIN_INFO@@@std@@@3@$0A@@std@@@std@@QAE?AV?$_Tree_iterator@V?$_Tree_val@U?$_Tree_simple_types@U?$pair@$$CBHU_TERRAIN_INFO@@@std@@@std@@@std@@@2@XZ ; std::_Tree<std::_Tmap_traits<int,_TERRAIN_INFO,std::less<int>,std::allocator<std::pair<int const ,_TERRAIN_INFO> >,0> >::end
PUBLIC	?find@?$_Tree@V?$_Tmap_traits@HU_TERRAIN_INFO@@U?$less@H@std@@V?$allocator@U?$pair@$$CBHU_TERRAIN_INFO@@@std@@@3@$0A@@std@@@std@@QAE?AV?$_Tree_iterator@V?$_Tree_val@U?$_Tree_simple_types@U?$pair@$$CBHU_TERRAIN_INFO@@@std@@@std@@@std@@@2@ABH@Z ; std::_Tree<std::_Tmap_traits<int,_TERRAIN_INFO,std::less<int>,std::allocator<std::pair<int const ,_TERRAIN_INFO> >,0> >::find
PUBLIC	?_Getcomp@?$_Tree@V?$_Tmap_traits@HU_TERRAIN_INFO@@U?$less@H@std@@V?$allocator@U?$pair@$$CBHU_TERRAIN_INFO@@@std@@@3@$0A@@std@@@std@@IBEABU?$less@H@2@XZ ; std::_Tree<std::_Tmap_traits<int,_TERRAIN_INFO,std::less<int>,std::allocator<std::pair<int const ,_TERRAIN_INFO> >,0> >::_Getcomp
PUBLIC	?_Get_scary@?$_Tree@V?$_Tmap_traits@HU_TERRAIN_INFO@@U?$less@H@std@@V?$allocator@U?$pair@$$CBHU_TERRAIN_INFO@@@std@@@3@$0A@@std@@@std@@IAEPAV?$_Tree_val@U?$_Tree_simple_types@U?$pair@$$CBHU_TERRAIN_INFO@@@std@@@std@@@2@XZ ; std::_Tree<std::_Tmap_traits<int,_TERRAIN_INFO,std::less<int>,std::allocator<std::pair<int const ,_TERRAIN_INFO> >,0> >::_Get_scary
PUBLIC	?_Get_scary@?$_Tree@V?$_Tmap_traits@HU_TERRAIN_INFO@@U?$less@H@std@@V?$allocator@U?$pair@$$CBHU_TERRAIN_INFO@@@std@@@3@$0A@@std@@@std@@IBEPBV?$_Tree_val@U?$_Tree_simple_types@U?$pair@$$CBHU_TERRAIN_INFO@@@std@@@std@@@2@XZ ; std::_Tree<std::_Tmap_traits<int,_TERRAIN_INFO,std::less<int>,std::allocator<std::pair<int const ,_TERRAIN_INFO> >,0> >::_Get_scary
PUBLIC	?_Get_first@?$_Compressed_pair@U?$less@H@std@@V?$_Compressed_pair@V?$allocator@U?$_Tree_node@U?$pair@$$CBHU_TERRAIN_INFO@@@std@@PAX@std@@@std@@V?$_Tree_val@U?$_Tree_simple_types@U?$pair@$$CBHU_TERRAIN_INFO@@@std@@@std@@@2@$00@2@$00@std@@QBEABU?$less@H@2@XZ ; std::_Compressed_pair<std::less<int>,std::_Compressed_pair<std::allocator<std::_Tree_node<std::pair<int const ,_TERRAIN_INFO>,void *> >,std::_Tree_val<std::_Tree_simple_types<std::pair<int const ,_TERRAIN_INFO> > >,1>,1>::_Get_first
PUBLIC	??0?$_Tree_unchecked_const_iterator@V?$_Tree_val@U?$_Tree_simple_types@U?$pair@$$CBHU_TERRAIN_INFO@@@std@@@std@@@std@@U_Iterator_base0@2@@std@@QAE@PAU?$_Tree_node@U?$pair@$$CBHU_TERRAIN_INFO@@@std@@PAX@1@PBV?$_Tree_val@U?$_Tree_simple_types@U?$pair@$$CBHU_TERRAIN_INFO@@@std@@@std@@@1@@Z ; std::_Tree_unchecked_const_iterator<std::_Tree_val<std::_Tree_simple_types<std::pair<int const ,_TERRAIN_INFO> > >,std::_Iterator_base0>::_Tree_unchecked_const_iterator<std::_Tree_val<std::_Tree_simple_types<std::pair<int const ,_TERRAIN_INFO> > >,std::_Iterator_base0>
PUBLIC	??D?$_Tree_const_iterator@V?$_Tree_val@U?$_Tree_simple_types@U?$pair@$$CBHU_TERRAIN_INFO@@@std@@@std@@@std@@@std@@QBEABU?$pair@$$CBHU_TERRAIN_INFO@@@1@XZ ; std::_Tree_const_iterator<std::_Tree_val<std::_Tree_simple_types<std::pair<int const ,_TERRAIN_INFO> > > >::operator*
PUBLIC	??8?$_Tree_const_iterator@V?$_Tree_val@U?$_Tree_simple_types@U?$pair@$$CBHU_TERRAIN_INFO@@@std@@@std@@@std@@@std@@QBE_NABV01@@Z ; std::_Tree_const_iterator<std::_Tree_val<std::_Tree_simple_types<std::pair<int const ,_TERRAIN_INFO> > > >::operator==
PUBLIC	??0?$_Tree_const_iterator@V?$_Tree_val@U?$_Tree_simple_types@U?$pair@$$CBHU_TERRAIN_INFO@@@std@@@std@@@std@@@std@@QAE@PAU?$_Tree_node@U?$pair@$$CBHU_TERRAIN_INFO@@@std@@PAX@1@PBV?$_Tree_val@U?$_Tree_simple_types@U?$pair@$$CBHU_TERRAIN_INFO@@@std@@@std@@@1@@Z ; std::_Tree_const_iterator<std::_Tree_val<std::_Tree_simple_types<std::pair<int const ,_TERRAIN_INFO> > > >::_Tree_const_iterator<std::_Tree_val<std::_Tree_simple_types<std::pair<int const ,_TERRAIN_INFO> > > >
PUBLIC	??D?$_Tree_iterator@V?$_Tree_val@U?$_Tree_simple_types@U?$pair@$$CBHU_TERRAIN_INFO@@@std@@@std@@@std@@@std@@QBEAAU?$pair@$$CBHU_TERRAIN_INFO@@@1@XZ ; std::_Tree_iterator<std::_Tree_val<std::_Tree_simple_types<std::pair<int const ,_TERRAIN_INFO> > > >::operator*
PUBLIC	??C?$_Tree_iterator@V?$_Tree_val@U?$_Tree_simple_types@U?$pair@$$CBHU_TERRAIN_INFO@@@std@@@std@@@std@@@std@@QBEPAU?$pair@$$CBHU_TERRAIN_INFO@@@1@XZ ; std::_Tree_iterator<std::_Tree_val<std::_Tree_simple_types<std::pair<int const ,_TERRAIN_INFO> > > >::operator->
PUBLIC	??0?$_Tree_iterator@V?$_Tree_val@U?$_Tree_simple_types@U?$pair@$$CBHU_TERRAIN_INFO@@@std@@@std@@@std@@@std@@QAE@PAU?$_Tree_node@U?$pair@$$CBHU_TERRAIN_INFO@@@std@@PAX@1@PBV?$_Tree_val@U?$_Tree_simple_types@U?$pair@$$CBHU_TERRAIN_INFO@@@std@@@std@@@1@@Z ; std::_Tree_iterator<std::_Tree_val<std::_Tree_simple_types<std::pair<int const ,_TERRAIN_INFO> > > >::_Tree_iterator<std::_Tree_val<std::_Tree_simple_types<std::pair<int const ,_TERRAIN_INFO> > > >
PUBLIC	??0_CDBCon@@QAE@XZ				; _CDBCon::_CDBCon
PUBLIC	??0CSettings@@QAE@XZ				; CSettings::CSettings
PUBLIC	?pointer_to@?$pointer_traits@PAU?$pair@$$CBHU_TERRAIN_INFO@@@std@@@std@@SAPAU?$pair@$$CBHU_TERRAIN_INFO@@@2@AAU32@@Z ; std::pointer_traits<std::pair<int const ,_TERRAIN_INFO> *>::pointer_to
PUBLIC	??$_Find@H@?$_Tree@V?$_Tmap_traits@HU_TERRAIN_INFO@@U?$less@H@std@@V?$allocator@U?$pair@$$CBHU_TERRAIN_INFO@@@std@@@3@$0A@@std@@@std@@ABEPAU?$_Tree_node@U?$pair@$$CBHU_TERRAIN_INFO@@@std@@PAX@1@ABH@Z ; std::_Tree<std::_Tmap_traits<int,_TERRAIN_INFO,std::less<int>,std::allocator<std::pair<int const ,_TERRAIN_INFO> >,0> >::_Find<int>
PUBLIC	??$?0$$V@?$_Compressed_pair@V?$allocator@D@std@@V?$_String_val@U?$_Simple_types@D@std@@@2@$00@std@@QAE@U_Zero_then_variadic_args_t@1@@Z ; std::_Compressed_pair<std::allocator<char>,std::_String_val<std::_Simple_types<char> >,1>::_Compressed_pair<std::allocator<char>,std::_String_val<std::_Simple_types<char> >,1><>
PUBLIC	??$addressof@U?$pair@$$CBHU_TERRAIN_INFO@@@std@@@std@@YAPAU?$pair@$$CBHU_TERRAIN_INFO@@@0@AAU10@@Z ; std::addressof<std::pair<int const ,_TERRAIN_INFO> >
PUBLIC	??$addressof@V?$_Tree_val@U?$_Tree_simple_types@U?$pair@$$CBHU_TERRAIN_INFO@@@std@@@std@@@std@@@std@@YAPAV?$_Tree_val@U?$_Tree_simple_types@U?$pair@$$CBHU_TERRAIN_INFO@@@std@@@std@@@0@AAV10@@Z ; std::addressof<std::_Tree_val<std::_Tree_simple_types<std::pair<int const ,_TERRAIN_INFO> > > >
PUBLIC	??$_Find_lower_bound@H@?$_Tree@V?$_Tmap_traits@HU_TERRAIN_INFO@@U?$less@H@std@@V?$allocator@U?$pair@$$CBHU_TERRAIN_INFO@@@std@@@3@$0A@@std@@@std@@IBE?AU?$_Tree_find_result@PAU?$_Tree_node@U?$pair@$$CBHU_TERRAIN_INFO@@@std@@PAX@std@@@1@ABH@Z ; std::_Tree<std::_Tmap_traits<int,_TERRAIN_INFO,std::less<int>,std::allocator<std::pair<int const ,_TERRAIN_INFO> >,0> >::_Find_lower_bound<int>
PUBLIC	??$_Lower_bound_duplicate@H@?$_Tree@V?$_Tmap_traits@HU_TERRAIN_INFO@@U?$less@H@std@@V?$allocator@U?$pair@$$CBHU_TERRAIN_INFO@@@std@@@3@$0A@@std@@@std@@IBE_NQAU?$_Tree_node@U?$pair@$$CBHU_TERRAIN_INFO@@@std@@PAX@1@ABH@Z ; std::_Tree<std::_Tmap_traits<int,_TERRAIN_INFO,std::less<int>,std::allocator<std::pair<int const ,_TERRAIN_INFO> >,0> >::_Lower_bound_duplicate<int>
PUBLIC	??$addressof@$$CBV?$_Tree_val@U?$_Tree_simple_types@U?$pair@$$CBHU_TERRAIN_INFO@@@std@@@std@@@std@@@std@@YAPBV?$_Tree_val@U?$_Tree_simple_types@U?$pair@$$CBHU_TERRAIN_INFO@@@std@@@std@@@0@ABV10@@Z ; std::addressof<std::_Tree_val<std::_Tree_simple_types<std::pair<int const ,_TERRAIN_INFO> > > const >
PUBLIC	??$_Kfn@$$CBHU_TERRAIN_INFO@@@?$_Tmap_traits@HU_TERRAIN_INFO@@U?$less@H@std@@V?$allocator@U?$pair@$$CBHU_TERRAIN_INFO@@@std@@@3@$0A@@std@@SAABHABU?$pair@$$CBHU_TERRAIN_INFO@@@1@@Z ; std::_Tmap_traits<int,_TERRAIN_INFO,std::less<int>,std::allocator<std::pair<int const ,_TERRAIN_INFO> >,0>::_Kfn<int const ,_TERRAIN_INFO>
PUBLIC	??_EMapClass@@UAEPAXI@Z				; MapClass::`vector deleting destructor'
PUBLIC	?gSetDate@@YAXXZ				; gSetDate
PUBLIC	?GameMainInit@@YAXPAUHWND__@@@Z			; GameMainInit
PUBLIC	?GameMainFree@@YAXXZ				; GameMainFree
PUBLIC	?GameMainServerCreate@@YAHKK@Z			; GameMainServerCreate
PUBLIC	?GMJoinServerConnect@@YAHPADK@Z			; GMJoinServerConnect
PUBLIC	?GMRankingServerConnect@@YAHPADK@Z		; GMRankingServerConnect
PUBLIC	?GMEventChipServerConnect@@YAHPADK@Z		; GMEventChipServerConnect
PUBLIC	?GMServerMsgProc@@YAXIJ@Z			; GMServerMsgProc
PUBLIC	?GMClientMsgProc@@YAXIJ@Z			; GMClientMsgProc
PUBLIC	?GMDataClientMsgProc@@YAXIJ@Z			; GMDataClientMsgProc
PUBLIC	?GMJoinClientMsgProc@@YAXIJ@Z			; GMJoinClientMsgProc
PUBLIC	?ExDataServerConnect@@YAHPADK@Z			; ExDataServerConnect
PUBLIC	?ExDataClientMsgProc@@YAXIJ@Z			; ExDataClientMsgProc
PUBLIC	?GMRankingClientMsgProc@@YAXIJ@Z		; GMRankingClientMsgProc
PUBLIC	?GMEventChipClientMsgProc@@YAXIJ@Z		; GMEventChipClientMsgProc
PUBLIC	?GameMonsterAllCloseAndReLoad@@YAXXZ		; GameMonsterAllCloseAndReLoad
PUBLIC	?GMDataServerConnect@@YAHPADK@Z			; GMDataServerConnect
PUBLIC	?GameServerInfoSend@@YAXXZ			; GameServerInfoSend
PUBLIC	?ReadCommonServerInfo@@YAXXZ			; ReadCommonServerInfo
PUBLIC	?gJoomin15Check@@YAHPAD@Z			; gJoomin15Check
PUBLIC	?gJoominCheck@@YAHPADH@Z			; gJoominCheck
PUBLIC	?GetWarehouseUsedHowMuch@@YAHHH@Z		; GetWarehouseUsedHowMuch
PUBLIC	?GameServerInfoSendStop@@YAXXZ			; GameServerInfoSendStop
PUBLIC	?GameServerInfoSendStart@@YAXXZ			; GameServerInfoSendStart
PUBLIC	?ReadGameEtcInfo@@YAXW4MU_ETC_TYPE@@@Z		; ReadGameEtcInfo
PUBLIC	?ReadEventInfo@@YAXW4MU_EVENT_TYPE@@@Z		; ReadEventInfo
PUBLIC	?GameMonsterAllAdd@@YAXXZ			; GameMonsterAllAdd
PUBLIC	?ReadServerInfo@@YAXXZ				; ReadServerInfo
PUBLIC	?CheckSumFileLoad@@YAXPAD@Z			; CheckSumFileLoad
PUBLIC	?LoadItemBag@@YAXXZ				; LoadItemBag
PUBLIC	?SetMapName@@YAXXZ				; SetMapName
PUBLIC	?GraphPaint@@YAXPAUHWND__@@@Z			; GraphPaint
PUBLIC	??_C@_00CNPNBAHC@@				; `string'
PUBLIC	?gLCount@@3PAVCLoginCount@@A			; gLCount
PUBLIC	?lMsg@@3VCMsg@@A				; lMsg
PUBLIC	?wsGServer@@3VCwsGameServer@@A			; wsGServer
PUBLIC	?wsJServerCli@@3VwsJoinServerCli@@A		; wsJServerCli
PUBLIC	?wsDataCli@@3VwsJoinServerCli@@A		; wsDataCli
PUBLIC	?wsExDbCli@@3VwsJoinServerCli@@A		; wsExDbCli
PUBLIC	?wsRServerCli@@3VwsJoinServerCli@@A		; wsRServerCli
PUBLIC	?wsEvenChipServerCli@@3VwsJoinServerCli@@A	; wsEvenChipServerCli
PUBLIC	?gDirPath@@3VCDirPath@@A			; gDirPath
PUBLIC	?gMAttr@@3VCMonsterAttr@@A			; gMAttr
PUBLIC	?gMSetBase@@3VCMonsterSetBase@@A		; gMSetBase
PUBLIC	?DCInfo@@3Vclassdef@@A				; DCInfo
PUBLIC	?WhisperCash@@3VCWhisperCash@@A			; WhisperCash
PUBLIC	?gParty@@3VPartyClass@@A			; gParty
PUBLIC	?gDbSave@@3VCDbSave@@A				; gDbSave
PUBLIC	?gUdpSoc@@3VWzUdp@@A				; gUdpSoc
PUBLIC	?gUdpSocCE@@3VWzUdp@@A				; gUdpSocCE
PUBLIC	?gUdpSocCER@@3VWzUdp@@A				; gUdpSocCER
PUBLIC	?gUdpSocCRank@@3VWzUdp@@A			; gUdpSocCRank
PUBLIC	?gUdpSocCRankR@@3VWzUdp@@A			; gUdpSocCRankR
PUBLIC	?Guild@@3VCGuildClass@@A			; Guild
PUBLIC	?gNSerialCheck@@3PAVNSerialCheck@@A		; gNSerialCheck
PUBLIC	?g_SimpleModulusCS@@3VCSimpleModulus@@A		; g_SimpleModulusCS
PUBLIC	?g_SimpleModulusSC@@3VCSimpleModulus@@A		; g_SimpleModulusSC
PUBLIC	??_C@_08NAJBNDME@?4?4?2Data?2@			; `string'
PUBLIC	??_C@_0BA@FPGHNLAN@CDragonEvent?5?$CFs@		; `string'
PUBLIC	??_C@_0P@CNKMNCA@AttackEvent?5?$CFs@		; `string'
PUBLIC	??_C@_0BL@CIFNLNKN@?4?4?2data?2TerrainManager?4cfg@ ; `string'
PUBLIC	??_C@_07KGMMFLDN@Warning@			; `string'
PUBLIC	??_C@_0BO@HAAAHLCH@?$LM?$KN?$LJ?v?$LK?P?G?R?$MA?L?5?$LA?$KB?$LE?I?G?Q?5?$LM?$KN?$LJ?v?$MA?T?$LE?O?$LE?Y?4@ ; `string'
PUBLIC	??_C@_0BI@FNDPBPBE@UDP?5Socket?5create?5error@	; `string'
PUBLIC	??_C@_0CK@CPDKBBDI@?A?V?$MA?G?$CB?$CB?5?D?$LD?$LI?$KP?E?M?5?$LF?$KF?$MA?L?E?M?$LI?$KG?5?$MA?z?$MA?e?G?O?A?v@ ; `string'
PUBLIC	??_C@_0BD@KDLMHCKD@MonsterSetBase?4txt@		; `string'
PUBLIC	??_C@_0M@NDKJFFPF@Monster?4txt@			; `string'
PUBLIC	??_C@_08PGLGOOHM@gate?4txt@			; `string'
PUBLIC	??_C@_0N@BLBGLKFK@terrain1?4att@		; `string'
PUBLIC	??_C@_0N@JNICMIPE@terrain2?4att@		; `string'
PUBLIC	??_C@_0N@FGNOBLFB@terrain3?4att@		; `string'
PUBLIC	??_C@_0N@ELNLCLOJ@terrain4?4att@		; `string'
PUBLIC	??_C@_0N@IAIHPIEM@terrain5?4att@		; `string'
PUBLIC	??_C@_0N@GBDIKOC@terrain6?4att@			; `string'
PUBLIC	??_C@_0N@MNEPFJEH@terrain7?4att@		; `string'
PUBLIC	??_C@_0N@DMBJOLJC@terrain8?4att@		; `string'
PUBLIC	??_C@_0N@PHEFDIDH@terrain9?4att@		; `string'
PUBLIC	??_C@_0O@EEEOBJHM@terrain10?4att@		; `string'
PUBLIC	??_C@_0O@IPBCMKNJ@terrain11?4att@		; `string'
PUBLIC	??_C@_0O@JIGLIHH@terrain12?4att@		; `string'
PUBLIC	??_C@_0O@GDEBEILE@terrain19?4att@		; `string'
PUBLIC	??_C@_0O@CFGLJCFC@terrain25?4att@		; `string'
PUBLIC	??_C@_0L@DPAHEMHE@Iplist?4dat@			; `string'
PUBLIC	??_C@_0BC@FGIEIEFL@ConnectMember?4txt@		; `string'
PUBLIC	??_C@_0BC@IPOGIFJE@PkClearSystem?4cfg@		; `string'
PUBLIC	??_C@_0BA@NJMOGOCM@ResetSystem?4cfg@		; `string'
PUBLIC	??_C@_0BF@MNGCMCAL@BuffHelperSystem?4cfg@	; `string'
PUBLIC	??_C@_0CA@GPEDJDDH@RankingServer?5Connect?5IP?5?$FL?5?$CFs?5?$FN@ ; `string'
PUBLIC	??_C@_0BM@JEEOGNJB@EventChip?5Connect?5IP?5?$FL?5?$CFs?5?$FN@ ; `string'
PUBLIC	??_C@_0BD@MBDGLECM@ExDB?5Server?5Online@	; `string'
PUBLIC	??_C@_0CO@DFBFHLJO@Error?9L1?5?3?5Friend?5Server?5Down?5?$CI@ ; `string'
PUBLIC	??_C@_0BG@KBGGHHPK@?4?2data?2Serverinfo?4dat@	; `string'
PUBLIC	??_C@_0BO@CFKIHFKN@ServerInfo?4dat?5file?5not?5found@ ; `string'
PUBLIC	??_C@_0L@FFDIDHBB@ServerName@			; `string'
PUBLIC	??_C@_0P@EMJDPFDH@GameServerInfo@		; `string'
PUBLIC	??_C@_0L@ECKGLPBM@ServerCode@			; `string'
PUBLIC	??_C@_0BC@GLFLPKEG@ConnectMemberLoad@		; `string'
PUBLIC	??_C@_0BB@IGLHFEOF@commonserver?4cfg@		; `string'
PUBLIC	??_C@_0CC@JCDJGIAD@?$FLcommonserver?4cfg?$FN?5file?5not?5fou@ ; `string'
PUBLIC	??_C@_0BB@JIONBNI@CalCharacter?4cfg@		; `string'
PUBLIC	??_C@_01GBGANLPD@0@				; `string'
PUBLIC	??_C@_08BENDAOKD@Language@			; `string'
PUBLIC	??_C@_0O@GAFBBPE@StalkProtocol@			; `string'
PUBLIC	??_C@_0BA@GELKBKKC@StalkProtocolId@		; `string'
PUBLIC	??_C@_0BK@KJGDFNAO@Stalk?5Protocol?5ID?5?$DN?5?8?$CFs?8?5@ ; `string'
PUBLIC	??_C@_08LPAIHJCB@Dec1?4dat@			; `string'
PUBLIC	??_C@_0BI@KPIPBJFI@Dec1?4dat?5file?5not?5found@	; `string'
PUBLIC	??_C@_08HDINADJK@Enc2?4dat@			; `string'
PUBLIC	??_C@_0BI@CDOIIEIH@Enc2?4dat?5file?5not?5found@	; `string'
PUBLIC	??_C@_0BD@FJCONAOJ@lang?2main?2item?4txt@	; `string'
PUBLIC	??_C@_0BE@FDAOHAFF@lang?2main?2skill?4txt@	; `string'
PUBLIC	??_C@_0BG@GBCNIGCF@lang?2main?2movereq?4txt@	; `string'
PUBLIC	??_C@_0BA@MNCIMNEB@message_kor?4wtf@		; `string'
PUBLIC	??_C@_0BH@LNBPGCH@lang?2kor?2item?$CIkor?$CJ?4txt@ ; `string'
PUBLIC	??_C@_0BI@FIPAPIED@lang?2kor?2skill?$CIkor?$CJ?4txt@ ; `string'
PUBLIC	??_C@_0BI@KHGIHCPL@lang?2kor?2Quest?$CIKor?$CJ?4txt@ ; `string'
PUBLIC	??_C@_0BG@LDHDEAON@lang?2kor?2CheckSum?4dat@	; `string'
PUBLIC	??_C@_0BH@CGAJGJIE@lang?2kor?2commonloc?4cfg@	; `string'
PUBLIC	??_C@_05MEMFONJC@NonPK@				; `string'
PUBLIC	??_C@_0O@GCDDIMLO@NON?9PK?5Server@		; `string'
PUBLIC	??_C@_0M@DKICACGN@PkLimitFree@			; `string'
PUBLIC	??_C@_0BF@KFCGLLGL@PK?5Limit?5Free?5Server@	; `string'
PUBLIC	??_C@_0BA@CNMOEHOP@message_eng?4wtf@		; `string'
PUBLIC	??_C@_0BH@DIKKKEAA@lang?2eng?2item?$CIeng?$CJ?4txt@ ; `string'
PUBLIC	??_C@_0BI@PBKOEFKA@lang?2eng?2skill?$CIeng?$CJ?4txt@ ; `string'
PUBLIC	??_C@_0BI@IMMHENLL@lang?2eng?2Quest?$CIeng?$CJ?4txt@ ; `string'
PUBLIC	??_C@_0BG@CLNKAICO@lang?2eng?2CheckSum?4dat@	; `string'
PUBLIC	??_C@_0BH@CEPMFDMG@lang?2eng?2commonloc?4cfg@	; `string'
PUBLIC	??_C@_03BKIEJDKG@Eng@				; `string'
PUBLIC	??_C@_0BA@OEAAODBI@message_jpn?4wtf@		; `string'
PUBLIC	??_C@_0BH@GGMLMGEG@lang?2jpn?2item?$CIjpn?$CJ?4txt@ ; `string'
PUBLIC	??_C@_0BI@MHBJLADJ@lang?2jpn?2skill?$CIjpn?$CJ?4txt@ ; `string'
PUBLIC	??_C@_0BI@LKHALICC@lang?2jpn?2Quest?$CIjpn?$CJ?4txt@ ; `string'
PUBLIC	??_C@_0BG@FNIPOEKB@lang?2jpn?2CheckSum?4dat@	; `string'
PUBLIC	??_C@_0BH@FJINJIJL@lang?2jpn?2commonloc?4cfg@	; `string'
PUBLIC	??_C@_03IFJNLGMD@Jpn@				; `string'
PUBLIC	??_C@_0BA@BADGDLNP@message_chs?4wtf@		; `string'
PUBLIC	??_C@_0BH@IFBABFEE@lang?2chs?2item?$CIchs?$CJ?4txt@ ; `string'
PUBLIC	??_C@_0BI@CALDIEFE@lang?2chs?2skill?$CIchs?$CJ?4txt@ ; `string'
PUBLIC	??_C@_0BI@FNNKIMEP@lang?2chs?2Quest?$CIchs?$CJ?4txt@ ; `string'
PUBLIC	??_C@_0BG@BBGBCMOO@lang?2chs?2CheckSum?4dat@	; `string'
PUBLIC	??_C@_0BH@LPKCCKFC@lang?2chs?2commonloc?4cfg@	; `string'
PUBLIC	??_C@_03BFMMGHJN@Chs@				; `string'
PUBLIC	??_C@_0BA@FBJNGHMD@message_tai?4wtf@		; `string'
PUBLIC	??_C@_0BH@CNPPLEEE@lang?2tai?2item?$CItai?$CJ?4txt@ ; `string'
PUBLIC	??_C@_0BI@LAPBJNMP@lang?2tai?2skill?$CItai?$CJ?4txt@ ; `string'
PUBLIC	??_C@_0BI@MNJIJFNE@lang?2tai?2Quest?$CItai?$CJ?4txt@ ; `string'
PUBLIC	??_C@_0BG@NILECFFP@lang?2tai?2CheckSum?4dat@	; `string'
PUBLIC	??_C@_0BH@DANHMEB@lang?2tai?2commonloc?4cfg@	; `string'
PUBLIC	??_C@_03GHPOMJOP@Tai@				; `string'
PUBLIC	??_C@_0BA@CIFGKAHN@message_tha?4wtf@		; `string'
PUBLIC	??_C@_0BH@BDPKPKJK@lang?2tha?2item?$CItha?$CJ?4txt@ ; `string'
PUBLIC	??_C@_0BI@ICECJPPA@lang?2tha?2skill?$CItha?$CJ?4txt@ ; `string'
PUBLIC	??_C@_0BI@PPCLJHOL@lang?2tha?2Quest?$CItha?$CJ?4txt@ ; `string'
PUBLIC	??_C@_0BG@MKEGOHAG@lang?2tha?2CheckSum?4dat@	; `string'
PUBLIC	??_C@_0BH@BBKIGHND@lang?2tha?2commonloc?4cfg@	; `string'
PUBLIC	??_C@_03KAPGHIGI@Tha@				; `string'
PUBLIC	??_C@_0BH@ELPPJFKD@lang?2main?2CheckSum?4dat@	; `string'
PUBLIC	??_C@_0BI@LHJFIJMG@lang?2main?2commonloc?4cfg@	; `string'
PUBLIC	??_C@_0P@NPIOLEMH@skillSpear?4hit@		; `string'
PUBLIC	??_C@_0P@POAMAGDJ@skillElect?4hit@		; `string'
PUBLIC	??_C@_0BM@FIJENIG@lang?2main?2itemsetoption?4txt@ ; `string'
PUBLIC	??_C@_0BK@BHDBGJAM@lang?2main?2itemsettype?4txt@ ; `string'
PUBLIC	??_C@_0O@MOJICEJC@MoveLevel?4txt@		; `string'
PUBLIC	??_C@_0BE@BKEFEABF@lang?2main?2quest?4txt@	; `string'
PUBLIC	??_C@_0BB@FBDFNIJB@ClientExeVersion@		; `string'
PUBLIC	??_C@_01LFCBOECM@?4@				; `string'
PUBLIC	??_C@_01HIHLOKLC@1@				; `string'
PUBLIC	??_C@_0BA@JHAHNEJ@ClientExeSerial@		; `string'
PUBLIC	??_C@_0BA@DIAOPFNP@CreateCharacter@		; `string'
PUBLIC	??_C@_02PMJKFNFC@40@				; `string'
PUBLIC	??_C@_0BI@ONKCMGBI@CharacterDeleteMinLevel@	; `string'
PUBLIC	??_C@_0BA@IJNIFGCF@NumberOfMaxUser@		; `string'
PUBLIC	??_C@_0CM@HGFFPJNE@?$FLOption?5Reload?$FN?5?$KB?Z?$KB?Z?$KB?Z?5MaxUser?5@ ; `string'
PUBLIC	??_C@_0M@CGJDJOAO@GuildCreate@			; `string'
PUBLIC	??_C@_0N@OEKMPEAB@GuildDestroy@			; `string'
PUBLIC	??_C@_03GNABGMEE@100@				; `string'
PUBLIC	??_C@_0BB@DOGMENHB@GuildCreateLevel@		; `string'
PUBLIC	??_C@_0BN@IDOOLGAL@CastleOwnerGuildDestroyLimit@ ; `string'
PUBLIC	??_C@_0BF@KDFHAHG@SpeedHackPlayerBlock@		; `string'
PUBLIC	??_C@_0BH@OBAKKGCF@ConnectHackIPBlockTime@	; `string'
PUBLIC	??_C@_0BE@NKDMJEHP@ConnectIntervalTime@		; `string'
PUBLIC	??_C@_0BG@PFNCNMEF@ConnectRenewBlockTime@	; `string'
PUBLIC	??_C@_0BA@PFGDHKCH@ItemSerialCheck@		; `string'
PUBLIC	??_C@_0O@LBPJGHMN@AddExperience@		; `string'
PUBLIC	??_C@_06GOOKGCKJ@AddZen@			; `string'
PUBLIC	??_C@_05IOPOMLGK@Trade@				; `string'
PUBLIC	??_C@_08CIGOAAJ@ChaosBox@			; `string'
PUBLIC	??_C@_0L@KKFEELGG@ChaosEvent@			; `string'
PUBLIC	??_C@_0P@LCMOAIFH@210?4181?489?4241@		; `string'
PUBLIC	??_C@_0BB@LFFJPGMP@ChaosEventServer@		; `string'
PUBLIC	??_C@_0BH@HMHMODEL@?$FLOption?$FN?5ChaosBox?5?$DN?5?$CFd@ ; `string'
PUBLIC	??_C@_0BJ@BDPEJKAD@?$FLOption?$FN?5ChaosEvent?5?$DN?5?$CFd@ ; `string'
PUBLIC	??_C@_0BP@BODHCMPI@?$FLOption?$FN?5ChaosEventServer?5?$DN?5?$CFs@ ; `string'
PUBLIC	??_C@_0CD@DBODMHPC@?$FLOption?$FN?5AttackEventRegenTime?5?$DN@ ; `string'
PUBLIC	??_C@_06PKBKOIPG@PKTIME@			; `string'
PUBLIC	??_C@_09LNOLFHKA@MonsterHp@			; `string'
PUBLIC	??_C@_01EKENIIDA@3@				; `string'
PUBLIC	??_C@_0M@CNCIMJOC@LootingTime@			; `string'
PUBLIC	??_C@_0CE@CGDCLGCF@?$FLOption?$FN?5Auto?5Looting?5Time?5Set?5@ ; `string'
PUBLIC	??_C@_0L@LNKCFJOF@PKItemDrop@			; `string'
PUBLIC	??_C@_02PKFBJPLJ@10@				; `string'
PUBLIC	??_C@_0M@LDLBHBAP@ItemDropPer@			; `string'
PUBLIC	??_C@_0BA@LODEADPK@ZenDurationTime@		; `string'
PUBLIC	??_C@_0BB@OMEMPADG@ItemDurationTime@		; `string'
PUBLIC	??_C@_0P@MCKGBBMK@EventChipEvent@		; `string'
PUBLIC	??_C@_0BC@FNNFHNFE@BoxOfGoldDropRate@		; `string'
PUBLIC	??_C@_0BJ@GLDGDDON@ItemDropRateForBoxOfGold@	; `string'
PUBLIC	??_C@_0BO@DEAIHFPL@EventChipDropRateForBoxOfGold@ ; `string'
PUBLIC	??_C@_0BF@EDGAONAD@AttackSpeedTimeLimit@	; `string'
PUBLIC	??_C@_0BJ@KEAABHOA@IsIgnorePacketHackDetect@	; `string'
PUBLIC	??_C@_0P@FNJLIJMF@HackCheckCount@		; `string'
PUBLIC	??_C@_0BH@CLHIGLBH@MinimumAttackSpeedTime@	; `string'
PUBLIC	??_C@_0BG@GBBHJJPD@DetectedHackKickCount@	; `string'
PUBLIC	??_C@_0BK@JCJPKDIP@IsKickDetecHackCountLimit@	; `string'
PUBLIC	??_C@_0BK@JABOLCNK@IsItemDropRingOfTransform@	; `string'
PUBLIC	??_C@_0BI@IMCEGONI@ItemDropRingOfTransform@	; `string'
PUBLIC	??_C@_0N@OGIIBFAP@WriteChatLog@			; `string'
PUBLIC	??_C@_0BD@OBHCBKDC@DisconnectHackUser@		; `string'
PUBLIC	??_C@_0BA@OAOAELOO@UseNPGGChecksum@		; `string'
PUBLIC	??_C@_04MCLHNJOA@5?433@				; `string'
PUBLIC	??_C@_0BG@MPJHCBCJ@DecTimePerAttackSpeed@	; `string'
PUBLIC	??_C@_0BB@MCFEHCJF@SpeedHackPenalty@		; `string'
PUBLIC	??_C@_0BJ@IOEIMNCB@DQChaosSuccessRateLevel1@	; `string'
PUBLIC	??_C@_0BJ@KFGFJOOC@DQChaosSuccessRateLevel2@	; `string'
PUBLIC	??_C@_0BJ@LMHOKPKD@DQChaosSuccessRateLevel3@	; `string'
PUBLIC	??_C@_0BJ@PDDPDJGE@DQChaosSuccessRateLevel4@	; `string'
PUBLIC	??_C@_0O@DJJFJNIL@WriteSkillLog@		; `string'
PUBLIC	??_C@_0BF@HDFDIILJ@QuestNPCTeleportTime@	; `string'
PUBLIC	??_C@_0BC@BADILJEE@KundunRefillHPSec@		; `string'
PUBLIC	??_C@_0P@CHMHAEOB@KundunRefillHP@		; `string'
PUBLIC	??_C@_0BD@JLEDGMHA@KundunRefillHPTime@		; `string'
PUBLIC	??_C@_0BG@LKNKPNDE@ShadowPhantomMaxLevel@	; `string'
PUBLIC	??_C@_02MFEOMNPG@IP@				; `string'
PUBLIC	??_C@_0BC@IKLEIAKB@ConnectServerInfo@		; `string'
PUBLIC	??_C@_04HDFGONMM@PORT@				; `string'
PUBLIC	??_C@_0BI@KCKMEMOI@DevilSquareEventConnect@	; `string'
PUBLIC	??_C@_0BH@DJHELGEN@DevilSquareEventServer@	; `string'
PUBLIC	??_C@_0BH@FIEEIIMF@EventChipServerConnect@	; `string'
PUBLIC	??_C@_0P@PKCHKPDI@192?4168?410?4150@		; `string'
PUBLIC	??_C@_0BC@FMIEAAIA@EventChipServerIp@		; `string'
PUBLIC	??_C@_0BA@CEGABCOE@ApplyHeroSystem@		; `string'
PUBLIC	??_C@_0BD@FPCMGBCA@EnableBattleSoccer@		; `string'
PUBLIC	??_C@_0BD@NKHABGBC@EnableEventNPCTalk@		; `string'
PUBLIC	??_C@_0BF@PDBLMKBC@EnableServerDivision@	; `string'
PUBLIC	??_C@_09NPFFCDOK@10?41?42?469@			; `string'
PUBLIC	??_C@_0O@KKNNPAMK@HackLogServer@		; `string'
PUBLIC	??_C@_0BM@CEPJPHJK@EnableCheckPenetrationSkill@	; `string'
PUBLIC	??_C@_0P@CECKIAHO@CheckSpeedHack@		; `string'
PUBLIC	??_C@_05LFHGFJK@?$CFs_?$CFd@			; `string'
PUBLIC	??_C@_0BG@OEMBKLAL@User?5Object?5Size?5?$DN?5?$CFd@ ; `string'
PUBLIC	??_C@_0BA@MDPIHCPH@?$CFs?5?$FL?$CFu?$FN?$FL?$CFu?$FN?$FL?$CFu?$FN@ ; `string'
PUBLIC	??_C@_0BB@IPFJJFBE@PersonalShopOpen@		; `string'
PUBLIC	??_C@_0BD@EINABCJP@SkillDistanceCheck@		; `string'
PUBLIC	??_C@_0BH@KNOFMFOO@SkillDistanceCheckTemp@	; `string'
PUBLIC	??_C@_0BC@PMNMLGGJ@SkillDistanceKick@		; `string'
PUBLIC	??_C@_0BH@FHPEPELH@SkillDistanceKickCount@	; `string'
PUBLIC	??_C@_0BL@OPACNGLO@SkillDistanceKickCheckTime@	; `string'
PUBLIC	??_C@_0BA@PCIIIHII@OnlineBonus?4ini@		; `string'
PUBLIC	??_C@_0M@DGOLEIPN@BonusSystem@			; `string'
PUBLIC	??_C@_05JKBOBFBJ@Bonus@				; `string'
PUBLIC	??_C@_09CAFPCKBI@BonusTime@			; `string'
PUBLIC	??_C@_09JEDNLJFC@BonusCash@			; `string'
PUBLIC	??_C@_0BF@BJNKEBMD@?4?4?2data?2PVPEvent?4cfg@	; `string'
PUBLIC	??_C@_0BI@NOFODAGC@?4?4?2data?2ArrowSystem?4cfg@ ; `string'
PUBLIC	??_C@_0BK@PPGGKBGC@?4?4?2data?2BalanceSystem?4ini@ ; `string'
PUBLIC	??_C@_02JDPG@rb@				; `string'
PUBLIC	??_C@_0BC@JAIHNJEB@?$CFs?5file?5not?5found@	; `string'
PUBLIC	??_C@_0M@GNOCDNGL@CItemBag?5?$CFs@		; `string'
PUBLIC	??_C@_0BB@DBBPHKAA@eventitembag?4txt@		; `string'
PUBLIC	??_C@_0BC@OBJPANO@eventitembag2?4txt@		; `string'
PUBLIC	??_C@_0BC@MFEFCDHL@eventitembag3?4txt@		; `string'
PUBLIC	??_C@_0BC@NIEABDMD@eventitembag4?4txt@		; `string'
PUBLIC	??_C@_0BC@BDBMMAGG@eventitembag5?4txt@		; `string'
PUBLIC	??_C@_0BC@JFIILCMI@eventitembag6?4txt@		; `string'
PUBLIC	??_C@_0BC@FONEGBGN@eventitembag7?4txt@		; `string'
PUBLIC	??_C@_0BC@KPICNDLI@eventitembag8?4txt@		; `string'
PUBLIC	??_C@_0BC@GENOAABN@eventitembag9?4txt@		; `string'
PUBLIC	??_C@_0BD@BDGNLCBB@eventitembag10?4txt@		; `string'
PUBLIC	??_C@_0BD@NIDBGBLE@eventitembag11?4txt@		; `string'
PUBLIC	??_C@_0BD@FOKFBDBK@eventitembag12?4txt@		; `string'
PUBLIC	??_C@_0BD@JFPJMALP@eventitembag13?4txt@		; `string'
PUBLIC	??_C@_0BD@IIPMPAAH@eventitembag14?4txt@		; `string'
PUBLIC	??_C@_0BD@EDKACDKC@eventitembag15?4txt@		; `string'
PUBLIC	??_C@_0BD@OGIICKJ@eventitembag17?4txt@		; `string'
PUBLIC	??_C@_0BA@JLLODMHA@DevilSquare?4dat@		; `string'
PUBLIC	??_C@_0BB@PNANPJHI@DevilSquareEvent@		; `string'
PUBLIC	??_C@_0BK@NJHGKMMN@EyesOfDevilSquareDropRate@	; `string'
PUBLIC	??_C@_0BJ@DHGJEDK@KeyOfDevilSquareDropRate@	; `string'
PUBLIC	??_C@_0BA@CJKIMMIB@BloodCastle?4dat@		; `string'
PUBLIC	??_C@_0BB@DHAFCNAC@BloodCastleEvent@		; `string'
PUBLIC	??_C@_0BF@DLNBCIAJ@BloodCastleStartHour@	; `string'
PUBLIC	??_C@_0BI@KPDDGOOE@AngelKingsPaperDropRate@	; `string'
PUBLIC	??_C@_0BC@NGLLHLOE@BloodBoneDropRate@		; `string'
PUBLIC	??_C@_0O@PBCFFJJH@StoneDropRate@		; `string'
PUBLIC	??_C@_0BD@KIIHPPEC@IsDropDarkLordItem@		; `string'
PUBLIC	??_C@_0BF@CIEOPDEB@SleeveOfLordDropRate@	; `string'
PUBLIC	??_C@_0BG@KOOOBGPO@SleeveOfLordDropLevel@	; `string'
PUBLIC	??_C@_0BI@LEJIBFOD@SoulOfDarkHorseDropRate@	; `string'
PUBLIC	??_C@_0BI@POMKNKAO@SoulOfDarkHorseropLevel@	; `string'
PUBLIC	??_C@_0BJ@NMMKDJPD@SoulOfDarkSpiritDropRate@	; `string'
PUBLIC	??_C@_0BK@ILHFEAJE@SoulOfDarkSpiritDropLevel@	; `string'
PUBLIC	??_C@_0BI@CNLFMLJF@DarkSpiritAddExperience@	; `string'
PUBLIC	??_C@_0BF@LANDNGMH@AttackEventRegenTime@	; `string'
PUBLIC	??_C@_0BB@OEKAOOOA@IsEledoradoEvent@		; `string'
PUBLIC	??_C@_0BN@GMFOFBJF@EledoradoGoldGoblenRegenTime@ ; `string'
PUBLIC	??_C@_0BI@KJLIHAFL@EledoradoTitanRegenTime@	; `string'
PUBLIC	??_C@_0BN@IJGMJJEJ@EledoradoGoldDerconRegenTime@ ; `string'
PUBLIC	??_C@_0CC@KCJCENFB@EledoradoDevilLizardKingRegenTi@ ; `string'
PUBLIC	??_C@_0CA@PDCIOFIF@EledoradoDevilTantarosRegenTime@ ; `string'
PUBLIC	??_C@_0CA@HENEMHED@EledoradoGoldGoblenItemDropRate@ ; `string'
PUBLIC	??_C@_0BL@CKBDCOGC@EledoradoTitanItemDropRate@	; `string'
PUBLIC	??_C@_0CA@DLLDAHDE@EledoradoGoldDerconItemDropRate@ ; `string'
PUBLIC	??_C@_0CF@JGNHCKNH@EledoradoDevilLizardKingItemDro@ ; `string'
PUBLIC	??_C@_0CD@FBDNNLBJ@EledoradoDevilTantarosItemDropR@ ; `string'
PUBLIC	??_C@_0CC@FBLILEOL@EledoradoGoldGoblenExItemDropRa@ ; `string'
PUBLIC	??_C@_0BN@EPBKFBD@EledoradoTitanExItemDropRate@	; `string'
PUBLIC	??_C@_0CC@KKKCNGAN@EledoradoGoldDerconExItemDropRa@ ; `string'
PUBLIC	??_C@_0CH@JKCOIHDD@EledoradoDevilLizardKingExItemD@ ; `string'
PUBLIC	??_C@_0CF@FONHIJD@EledoradoDevilTantarosExItemDro@ ; `string'
PUBLIC	??_C@_0BA@PGIAALHL@RingAttackEvent@		; `string'
PUBLIC	??_C@_05CLDMBJBA@10000@				; `string'
PUBLIC	??_C@_0BE@PAGFJHNK@RingOrcKillGiftRate@		; `string'
PUBLIC	??_C@_0BB@NMFCKOP@RingDropGiftRate@		; `string'
PUBLIC	??_C@_0BE@BHMFOLMK@RingAttackEvent?4dat@	; `string'
PUBLIC	??_C@_06OIEHOIFM@EVENT1@			; `string'
PUBLIC	??_C@_0BH@LPINNCM@Event1ItemDropTodayMax@	; `string'
PUBLIC	??_C@_08KDEPFNAG@10000000@			; `string'
PUBLIC	??_C@_0BL@ENBIHHCD@Event1ItemDropTodayPercent@	; `string'
PUBLIC	??_C@_0BB@PMGPGCOG@FireCrackerEvent@		; `string'
PUBLIC	??_C@_0BE@KPFNOKLC@FireCrackerDropRate@		; `string'
PUBLIC	??_C@_0BL@EHKPPMMG@ItemDropRateForFireCracker@	; `string'
PUBLIC	??_C@_0BJ@GHAOAAJB@OnlyFireCrackerEffectUse@	; `string'
PUBLIC	??_C@_0L@MDFHFAIK@MedalEvent@			; `string'
PUBLIC	??_C@_0BC@CFKHOCLM@GoldMedalDropRate@		; `string'
PUBLIC	??_C@_0BE@OPKEGEPJ@SilverMedalDropRate@		; `string'
PUBLIC	??_C@_0BJ@HJDOLNNF@ItemDropRateForGoldMedal@	; `string'
PUBLIC	??_C@_0BL@DECCHFKM@ItemDropRateForSilverMedal@	; `string'
PUBLIC	??_C@_09HEEPAMKP@XMasEvent@			; `string'
PUBLIC	??_C@_0BN@EDHJHEEJ@XMasEvent_StarOfXMasDropRate@ ; `string'
PUBLIC	??_C@_0CE@BHNJHAEB@XMasEvent_ItemDropRateForStarOf@ ; `string'
PUBLIC	??_C@_0BB@CGEJHOOF@HeartOfLoveEvent@		; `string'
PUBLIC	??_C@_0BE@JJGBIMJB@HeartOfLoveDropRate@		; `string'
PUBLIC	??_C@_0BL@CMBFLADP@ItemDropRateForHeartOfLove@	; `string'
PUBLIC	??_C@_0BE@MPGFIFAO@HappyNewYearTalkNpc@		; `string'
PUBLIC	??_C@_0BB@HOHJFGOC@MerryXMasTalkNpc@		; `string'
PUBLIC	??_C@_0BA@LOKHGJIA@ChaosCastle?4dat@		; `string'
PUBLIC	??_C@_0BB@EAJFBCDB@ChaosCastleEvent@		; `string'
PUBLIC	??_C@_0BD@BFEFAHKC@KundunMarkDropRate@		; `string'
PUBLIC	??_C@_0P@JCOIPJAE@EventManagerOn@		; `string'
PUBLIC	??_C@_0BE@KJOHMGFA@EventManagement?4dat@	; `string'
PUBLIC	??_C@_0BG@GAOBCKDF@DarkLordHeartDropRate@	; `string'
PUBLIC	??_C@_0BK@HAJPAMCO@DarkLoadHeartOffEventRate@	; `string'
PUBLIC	__real@3f4ccccd
PUBLIC	__real@3fb999999999999a
PUBLIC	__real@3fd999999999999a
PUBLIC	__real@41200000
PUBLIC	__xmm@41f00000000000000000000000000000
EXTRN	??_L@YGXPAXIIP6EX0@Z1@Z:PROC			; `eh vector constructor iterator'
EXTRN	??_M@YGXPAXIIP6EX0@Z@Z:PROC			; `eh vector destructor iterator'
EXTRN	??2@YAPAXI@Z:PROC				; operator new
EXTRN	??3@YAXPAXI@Z:PROC				; operator delete
EXTRN	??_U@YAPAXI@Z:PROC				; operator new[]
EXTRN	??_V@YAXPAXI@Z:PROC				; operator delete[]
EXTRN	_atexit:PROC
EXTRN	_memcpy:PROC
EXTRN	_memset:PROC
EXTRN	_strcpy:PROC
EXTRN	_strtok:PROC
EXTRN	__imp__GetPrivateProfileIntA@16:PROC
EXTRN	__imp__GetPrivateProfileStringA@24:PROC
EXTRN	__imp__CreateSolidBrush@4:PROC
EXTRN	__imp__DeleteObject@4:PROC
EXTRN	__imp__wsprintfA:PROC
EXTRN	__imp__SendMessageA@16:PROC
EXTRN	__imp__GetDC@4:PROC
EXTRN	__imp__ReleaseDC@8:PROC
EXTRN	__imp__SetWindowTextA@8:PROC
EXTRN	__imp__MessageBoxA@16:PROC
EXTRN	__imp__FillRect@12:PROC
EXTRN	_fclose:PROC
EXTRN	_fopen:PROC
EXTRN	_fread:PROC
EXTRN	_srand:PROC
EXTRN	_atof:PROC
EXTRN	_atoi:PROC
EXTRN	__localtime64:PROC
EXTRN	__time64:PROC
EXTRN	?LogInit@@YAXH@Z:PROC				; LogInit
EXTRN	?LogClose@@YAXXZ:PROC				; LogClose
EXTRN	?MsgBox@@YAXPADZZ:PROC				; MsgBox
EXTRN	__imp_??0CMsg@@QAE@XZ:PROC
EXTRN	__imp_??1CMsg@@QAE@XZ:PROC
EXTRN	__imp_?LoadWTF@CMsg@@QAEXPAD@Z:PROC
EXTRN	__imp_?Get@CMsg@@QAEPADH@Z:PROC
EXTRN	?OpenItemScript@@YAHPAD@Z:PROC			; OpenItemScript
EXTRN	?CreateSocket@MyWinsockBase@@QAEHPAUHWND__@@@Z:PROC ; MyWinsockBase::CreateSocket
EXTRN	?Close@MyWinsockBase@@QAEHXZ:PROC		; MyWinsockBase::Close
EXTRN	?DataRecv@CwsGameServer@@QAEHI@Z:PROC		; CwsGameServer::DataRecv
EXTRN	?FDWRITE_MsgDataSend@CwsGameServer@@QAEHI@Z:PROC ; CwsGameServer::FDWRITE_MsgDataSend
EXTRN	??0CwsGameServer@@QAE@XZ:PROC			; CwsGameServer::CwsGameServer
EXTRN	??1CwsGameServer@@UAE@XZ:PROC			; CwsGameServer::~CwsGameServer
EXTRN	?DataSend@@YAHHPAEK@Z:PROC			; DataSend
EXTRN	??0CGuildClass@@QAE@XZ:PROC			; CGuildClass::CGuildClass
EXTRN	??1CGuildClass@@UAE@XZ:PROC			; CGuildClass::~CGuildClass
EXTRN	??0CLoginCount@@QAE@XZ:PROC			; CLoginCount::CLoginCount
EXTRN	??1CLoginCount@@QAE@XZ:PROC			; CLoginCount::~CLoginCount
EXTRN	?Get@CLoginCount@@QAEHXZ:PROC			; CLoginCount::Get
EXTRN	?Load@CEngagePVP@@QAEXPBD@Z:PROC		; CEngagePVP::Load
EXTRN	?gObjInit@@YAXXZ:PROC				; gObjInit
EXTRN	?gObjEnd@@YAXXZ:PROC				; gObjEnd
EXTRN	?gObjAddMonster@@YAFH@Z:PROC			; gObjAddMonster
EXTRN	?gObjDel@@YAFH@Z:PROC				; gObjDel
EXTRN	?gObjGetSocket@@YAHI@Z:PROC			; gObjGetSocket
EXTRN	?gObjIsConnectedGP@@YAHH@Z:PROC			; gObjIsConnectedGP
EXTRN	?gObjSetMonster@@YAHHH@Z:PROC			; gObjSetMonster
EXTRN	?gObjSetPosMonster@@YAHHH@Z:PROC		; gObjSetPosMonster
EXTRN	?GCTeleportSend@@YAXPAVOBJECTSTRUCT@@EEEEE@Z:PROC ; GCTeleportSend
EXTRN	?Initialize@CManager@@QAE_NXZ:PROC		; CManager::Initialize
EXTRN	?Load@CGlobalConfig@@QAEXPBD0@Z:PROC		; CGlobalConfig::Load
EXTRN	?Load@CPostSystem@@QAEXPBD@Z:PROC		; CPostSystem::Load
EXTRN	?Load@CPkClearSystem@@QAEHPAD@Z:PROC		; CPkClearSystem::Load
EXTRN	?ClearPkClearNPCData@CPkClearSystem@@QAEXXZ:PROC ; CPkClearSystem::ClearPkClearNPCData
EXTRN	?Load@CResetSystem@@QAEHPAD@Z:PROC		; CResetSystem::Load
EXTRN	?ClearResetNPCData@CResetSystem@@QAEXXZ:PROC	; CResetSystem::ClearResetNPCData
EXTRN	?Load@CBuffHelper@@QAEHPAD@Z:PROC		; CBuffHelper::Load
EXTRN	?ClearNPCData@CBuffHelper@@QAEXXZ:PROC		; CBuffHelper::ClearNPCData
EXTRN	?Load@CTerrainManager@@QAEXPBD@Z:PROC		; CTerrainManager::Load
EXTRN	?Load@CArrowSystem@@QAEXPBD@Z:PROC		; CArrowSystem::Load
EXTRN	?Load@cBalanceSystem@@QAEXPAD@Z:PROC		; cBalanceSystem::Load
EXTRN	?_loading@CDynamicExperience@@QAEXXZ:PROC	; CDynamicExperience::_loading
EXTRN	?Loading@CSettings@@QAE_NXZ:PROC		; CSettings::Loading
EXTRN	?YDTeamTopOnline@@YAXXZ:PROC			; YDTeamTopOnline
EXTRN	?MakeItemNumber@@YAHHH@Z:PROC			; MakeItemNumber
EXTRN	?IsFile@@YAHPAD@Z:PROC				; IsFile
EXTRN	??0classdef@@QAE@XZ:PROC			; classdef::classdef
EXTRN	??1classdef@@UAE@XZ:PROC			; classdef::~classdef
EXTRN	?Init@classdef@@QAEXXZ:PROC			; classdef::Init
EXTRN	?SetProtocolCore@wsJoinServerCli@@QAEHP6AXEPAEH@Z@Z:PROC ; wsJoinServerCli::SetProtocolCore
EXTRN	?FDWRITE_MsgDataSend@wsJoinServerCli@@QAEHXZ:PROC ; wsJoinServerCli::FDWRITE_MsgDataSend
EXTRN	?DataRecv@wsJoinServerCli@@QAEHXZ:PROC		; wsJoinServerCli::DataRecv
EXTRN	?Connect@wsJoinServerCli@@QAEHPADGK@Z:PROC	; wsJoinServerCli::Connect
EXTRN	??0wsJoinServerCli@@QAE@XZ:PROC			; wsJoinServerCli::wsJoinServerCli
EXTRN	??1wsJoinServerCli@@UAE@XZ:PROC			; wsJoinServerCli::~wsJoinServerCli
EXTRN	?GJServerLogin@@YAXXZ:PROC			; GJServerLogin
EXTRN	?SProtocolCore@@YAXEPAEH@Z:PROC			; SProtocolCore
EXTRN	?DataServerProtocolCore@@YAXEPAEH@Z:PROC	; DataServerProtocolCore
EXTRN	?DataServerLogin@@YAXH@Z:PROC			; DataServerLogin
EXTRN	?GDGameServerInfoSave@@YAXXZ:PROC		; GDGameServerInfoSave
EXTRN	?Load@CBalancer@@QAE_NXZ:PROC			; CBalancer::Load
EXTRN	?LoadConfig@cOffExp@@QAEXXZ:PROC		; cOffExp::LoadConfig
EXTRN	?ExDataServerProtocolCore@@YAXEPAEH@Z:PROC	; ExDataServerProtocolCore
EXTRN	?ExDataServerLogin@@YAXXZ:PROC			; ExDataServerLogin
EXTRN	?LoadMapAttr@MapClass@@QAEXPADH@Z:PROC		; MapClass::LoadMapAttr
EXTRN	?ItemInit@MapClass@@QAEXXZ:PROC			; MapClass::ItemInit
EXTRN	??0MapClass@@QAE@XZ:PROC			; MapClass::MapClass
EXTRN	??1MapClass@@UAE@XZ:PROC			; MapClass::~MapClass
EXTRN	?ShopDataLoad@@YAHXZ:PROC			; ShopDataLoad
EXTRN	?LoadAttr@CMonsterAttr@@QAEXPAD@Z:PROC		; CMonsterAttr::LoadAttr
EXTRN	??0CMonsterAttr@@QAE@XZ:PROC			; CMonsterAttr::CMonsterAttr
EXTRN	??1CMonsterAttr@@UAE@XZ:PROC			; CMonsterAttr::~CMonsterAttr
EXTRN	?LoadSetBase@CMonsterSetBase@@QAEXPAD@Z:PROC	; CMonsterSetBase::LoadSetBase
EXTRN	??0CMonsterSetBase@@QAE@XZ:PROC			; CMonsterSetBase::CMonsterSetBase
EXTRN	??1CMonsterSetBase@@UAE@XZ:PROC			; CMonsterSetBase::~CMonsterSetBase
EXTRN	??0CWhisperCash@@QAE@XZ:PROC			; CWhisperCash::CWhisperCash
EXTRN	??1CWhisperCash@@UAE@XZ:PROC			; CWhisperCash::~CWhisperCash
EXTRN	?LogSkillList@CMagicDamage@@QAEXPAD@Z:PROC	; CMagicDamage::LogSkillList
EXTRN	?Load@CGate@@QAEXPAD@Z:PROC			; CGate::Load
EXTRN	??0PartyClass@@QAE@XZ:PROC			; PartyClass::PartyClass
EXTRN	??1PartyClass@@UAE@XZ:PROC			; PartyClass::~PartyClass
EXTRN	?Load@CAcceptIp@@QAEXPAD@Z:PROC			; CAcceptIp::Load
EXTRN	??0CDbSave@@QAE@XZ:PROC				; CDbSave::CDbSave
EXTRN	??1CDbSave@@UAE@XZ:PROC				; CDbSave::~CDbSave
EXTRN	?Begin@CDbSave@@QAEHXZ:PROC			; CDbSave::Begin
EXTRN	?End@CDbSave@@QAEXXZ:PROC			; CDbSave::End
EXTRN	??0WzUdp@@QAE@XZ:PROC				; WzUdp::WzUdp
EXTRN	??1WzUdp@@UAE@XZ:PROC				; WzUdp::~WzUdp
EXTRN	?CreateSocket@WzUdp@@QAEHXZ:PROC		; WzUdp::CreateSocket
EXTRN	?Run@WzUdp@@QAEHXZ:PROC				; WzUdp::Run
EXTRN	?SendData@WzUdp@@QAEHPAEK@Z:PROC		; WzUdp::SendData
EXTRN	?SendSet@WzUdp@@QAEHPADH@Z:PROC			; WzUdp::SendSet
EXTRN	?RecvSet@WzUdp@@QAEHH@Z:PROC			; WzUdp::RecvSet
EXTRN	?SetProtocolCore@WzUdp@@QAEHP6AXEPAEH@Z@Z:PROC	; WzUdp::SetProtocolCore
EXTRN	??0CDragonEvent@@QAE@XZ:PROC			; CDragonEvent::CDragonEvent
EXTRN	??0CItemBag@@QAE@XZ:PROC			; CItemBag::CItemBag
EXTRN	?Init@CItemBag@@QAEXPAD@Z:PROC			; CItemBag::Init
EXTRN	??0CDirPath@@QAE@XZ:PROC			; CDirPath::CDirPath
EXTRN	??1CDirPath@@UAE@XZ:PROC			; CDirPath::~CDirPath
EXTRN	?SetFirstPath@CDirPath@@QAEXPAD@Z:PROC		; CDirPath::SetFirstPath
EXTRN	?GetNewPath@CDirPath@@QAEPADPAD@Z:PROC		; CDirPath::GetNewPath
EXTRN	?Init@CGMMng@@QAEXXZ:PROC			; CGMMng::Init
EXTRN	?Load@CConMember@@QAEXPAD@Z:PROC		; CConMember::Load
EXTRN	?ReadyLicense@@YAXXZ:PROC			; ReadyLicense
EXTRN	?ChaosEventProtocolCore@@YAXEPAEH@Z:PROC	; ChaosEventProtocolCore
EXTRN	??0CAttackEvent@@QAE@XZ:PROC			; CAttackEvent::CAttackEvent
EXTRN	??0CSimpleModulus@@QAE@XZ:PROC			; CSimpleModulus::CSimpleModulus
EXTRN	??1CSimpleModulus@@UAE@XZ:PROC			; CSimpleModulus::~CSimpleModulus
EXTRN	?LoadEncryptionKey@CSimpleModulus@@QAEHPAD@Z:PROC ; CSimpleModulus::LoadEncryptionKey
EXTRN	?LoadDecryptionKey@CSimpleModulus@@QAEHPAD@Z:PROC ; CSimpleModulus::LoadDecryptionKey
EXTRN	??0NSerialCheck@@QAE@XZ:PROC			; NSerialCheck::NSerialCheck
EXTRN	??1NSerialCheck@@UAE@XZ:PROC			; NSerialCheck::~NSerialCheck
EXTRN	?Init@CDevilSquare@@QAEXXZ:PROC			; CDevilSquare::Init
EXTRN	?Load@CDevilSquare@@QAEXPAD@Z:PROC		; CDevilSquare::Load
EXTRN	?SetClose@CDevilSquare@@QAEXXZ:PROC		; CDevilSquare::SetClose
EXTRN	?DevilSquareEventProtocolCore@@YAXEPAEH@Z:PROC	; DevilSquareEventProtocolCore
EXTRN	?InitBattleSoccer@@YAXXZ:PROC			; InitBattleSoccer
EXTRN	?ClearBattleSoccer@@YAXXZ:PROC			; ClearBattleSoccer
EXTRN	?Init@CBloodCastle@@QAEX_N@Z:PROC		; CBloodCastle::Init
EXTRN	?Load@CBloodCastle@@QAEXPAD@Z:PROC		; CBloodCastle::Load
EXTRN	?LoadItemDropRate@CBloodCastle@@QAEXXZ:PROC	; CBloodCastle::LoadItemDropRate
EXTRN	?Init@CChaosCastle@@QAEX_N@Z:PROC		; CChaosCastle::Init
EXTRN	?Load@CChaosCastle@@QAEXPAD@Z:PROC		; CChaosCastle::Load
EXTRN	?Init@CMonsterItemMng@@QAEXXZ:PROC		; CMonsterItemMng::Init
EXTRN	?EventChipEventProtocolCore@@YAXEPAEH@Z:PROC	; EventChipEventProtocolCore
EXTRN	?Init@CEledoradoEvent@@QAEXXZ:PROC		; CEledoradoEvent::Init
EXTRN	?SetEventState@CEledoradoEvent@@QAEXH@Z:PROC	; CEledoradoEvent::SetEventState
EXTRN	?LoadQuestInfo@CQuestInfo@@QAEHPAD@Z:PROC	; CQuestInfo::LoadQuestInfo
EXTRN	?SendSet@CSendHackLog@@QAEXPADH@Z:PROC		; CSendHackLog::SendSet
EXTRN	?Init@CPacketCheckSum@@QAEXXZ:PROC		; CPacketCheckSum::Init
EXTRN	??0CItemBagEx@@QAE@XZ:PROC			; CItemBagEx::CItemBagEx
EXTRN	?Init@CItemBagEx@@QAEXPAD@Z:PROC		; CItemBagEx::Init
EXTRN	?LoadTypeInfo@CSetItemOption@@QAEHPAD@Z:PROC	; CSetItemOption::LoadTypeInfo
EXTRN	?LoadOptionInfo@CSetItemOption@@QAEHPAD@Z:PROC	; CSetItemOption::LoadOptionInfo
EXTRN	?Load@CMoveCommand@@QAEHPAD@Z:PROC		; CMoveCommand::Load
EXTRN	?LoadMoveLevel@CMoveCommand@@QAEHPAD@Z:PROC	; CMoveCommand::LoadMoveLevel
EXTRN	?Load@CSkillHitBox@@QAEHPAD@Z:PROC		; CSkillHitBox::Load
EXTRN	?EnableEvent@CRingAttackEvent@@QAEXH@Z:PROC	; CRingAttackEvent::EnableEvent
EXTRN	?Load@CRingAttackEvent@@UAEHPAD@Z:PROC		; CRingAttackEvent::Load
EXTRN	?Init@CEventManagement@@QAEXH@Z:PROC		; CEventManagement::Init
EXTRN	?Load@CEventManagement@@QAE_NPAD@Z:PROC		; CEventManagement::Load
EXTRN	?RegEvent@CEventManagement@@QAEXHPAX@Z:PROC	; CEventManagement::RegEvent
EXTRN	@__security_check_cookie@4:PROC
EXTRN	___CxxFrameHandler3:PROC
EXTRN	__ftoui3:PROC
EXTRN	_memset:PROC
EXTRN	?LogAdd@@3P6AXPADZZA:DWORD			; LogAdd
EXTRN	?LogAddC@@3P6AXEPADZZA:DWORD			; LogAddC
EXTRN	?LogAddTD@@3P6AXPADZZA:DWORD			; LogAddTD
EXTRN	?g_PvpEvent@@3VCEngagePVP@@A:BYTE		; g_PvpEvent
EXTRN	?gObj@@3PAVOBJECTSTRUCT@@A:DWORD		; gObj
EXTRN	?gServerMaxUser@@3HA:DWORD			; gServerMaxUser
EXTRN	?gObjTotalUser@@3HA:DWORD			; gObjTotalUser
EXTRN	?Manager@@3VCManager@@A:BYTE			; Manager
EXTRN	?g_GlobalConfig@@3VCGlobalConfig@@A:BYTE	; g_GlobalConfig
EXTRN	?g_PostSystem@@3VCPostSystem@@A:BYTE		; g_PostSystem
EXTRN	?g_PkClearSystem@@3VCPkClearSystem@@A:BYTE	; g_PkClearSystem
EXTRN	?g_ResetSystem@@3VCResetSystem@@A:BYTE		; g_ResetSystem
EXTRN	?g_BuffHelper@@3VCBuffHelper@@A:BYTE		; g_BuffHelper
EXTRN	?g_TerrainManager@@3VCTerrainManager@@A:BYTE	; g_TerrainManager
EXTRN	?g_ArrowSystem@@3VCArrowSystem@@A:BYTE		; g_ArrowSystem
EXTRN	?gBalanceSystem@@3VcBalanceSystem@@A:BYTE	; gBalanceSystem
EXTRN	?_dynamic_experience@@3VCDynamicExperience@@A:BYTE ; _dynamic_experience
EXTRN	?gSettings@@3PAVCSettings@@A:DWORD		; gSettings
EXTRN	?Balancer@@3VCBalancer@@A:BYTE			; Balancer
EXTRN	?OffExp@@3VcOffExp@@A:BYTE			; OffExp
EXTRN	?MagicDamageC@@3VCMagicDamage@@A:BYTE		; MagicDamageC
EXTRN	?gGateC@@3VCGate@@A:BYTE			; gGateC
EXTRN	?ghWnd@@3PAUHWND__@@A:DWORD			; ghWnd
EXTRN	?acceptIP@@3VCAcceptIp@@A:BYTE			; acceptIP
EXTRN	?cManager@@3VCGMMng@@A:BYTE			; cManager
EXTRN	?ConMember@@3VCConMember@@A:BYTE		; ConMember
EXTRN	?g_DevilSquare@@3VCDevilSquare@@A:BYTE		; g_DevilSquare
EXTRN	?g_BloodCastle@@3VCBloodCastle@@A:BYTE		; g_BloodCastle
EXTRN	?g_ChaosCastle@@3VCChaosCastle@@A:BYTE		; g_ChaosCastle
EXTRN	?g_MonsterItemMng@@3VCMonsterItemMng@@A:BYTE	; g_MonsterItemMng
EXTRN	?gEledoradoEvent@@3VCEledoradoEvent@@A:BYTE	; gEledoradoEvent
EXTRN	?g_QuestInfo@@3VCQuestInfo@@A:BYTE		; g_QuestInfo
EXTRN	?gSendHackLog@@3VCSendHackLog@@A:BYTE		; gSendHackLog
EXTRN	?gPacketCheckSum@@3VCPacketCheckSum@@A:BYTE	; gPacketCheckSum
EXTRN	?gSetItemOption@@3VCSetItemOption@@A:BYTE	; gSetItemOption
EXTRN	?gMoveCommand@@3VCMoveCommand@@A:BYTE		; gMoveCommand
EXTRN	?SkillSpearHitBox@@3VCSkillHitBox@@A:BYTE	; SkillSpearHitBox
EXTRN	?SkillElectricSparkHitBox@@3VCSkillHitBox@@A:BYTE ; SkillElectricSparkHitBox
EXTRN	?g_RingAttackEvent@@3VCRingAttackEvent@@A:BYTE	; g_RingAttackEvent
EXTRN	?g_EventManager@@3VCEventManagement@@A:BYTE	; g_EventManager
EXTRN	?gCurPaintPlayer@@3HA:DWORD			; gCurPaintPlayer
EXTRN	?gObjMonCount@@3HA:DWORD			; gObjMonCount
EXTRN	?gDisconnect@@3HA:DWORD				; gDisconnect
EXTRN	___security_cookie:DWORD
EXTRN	__fltused:DWORD
_BSS	SEGMENT
?gLCount@@3PAVCLoginCount@@A DD 06H DUP (?)		; gLCount
?lMsg@@3VCMsg@@A DB 020058H DUP (?)			; lMsg
?g_iChaosCastle_MonsterItems@@3PAY111HA DD 018H DUP (?)	; g_iChaosCastle_MonsterItems
?wsGServer@@3VCwsGameServer@@A DB 030H DUP (?)		; wsGServer
?wsJServerCli@@3VwsJoinServerCli@@A DB 0190028H DUP (?)	; wsJServerCli
?wsDataCli@@3VwsJoinServerCli@@A DB 0190034H DUP (?)	; wsDataCli
?wsExDbCli@@3VwsJoinServerCli@@A DB 0190034H DUP (?)	; wsExDbCli
?wsRServerCli@@3VwsJoinServerCli@@A DB 0190034H DUP (?)	; wsRServerCli
?wsEvenChipServerCli@@3VwsJoinServerCli@@A DB 0190034H DUP (?) ; wsEvenChipServerCli
?gDirPath@@3VCDirPath@@A DB 020cH DUP (?)		; gDirPath
?gMAttr@@3VCMonsterAttr@@A DB 0f804H DUP (?)		; gMAttr
?gMSetBase@@3VCMonsterSetBase@@A DB 010fe8H DUP (?)	; gMSetBase
?DCInfo@@3Vclassdef@@A DB 02ee8H DUP (?)		; DCInfo
?WhisperCash@@3VCWhisperCash@@A DB 038H DUP (?)		; WhisperCash
?gParty@@3VPartyClass@@A DB 056c88H DUP (?)		; gParty
?gDbSave@@3VCDbSave@@A DB 02cH DUP (?)			; gDbSave
?gUdpSoc@@3VWzUdp@@A DB 0860H DUP (?)			; gUdpSoc
?gUdpSocCE@@3VWzUdp@@A DB 0860H DUP (?)			; gUdpSocCE
?gUdpSocCER@@3VWzUdp@@A DB 0860H DUP (?)		; gUdpSocCER
?gUdpSocCRank@@3VWzUdp@@A DB 0860H DUP (?)		; gUdpSocCRank
?gUdpSocCRankR@@3VWzUdp@@A DB 0860H DUP (?)		; gUdpSocCRankR
?Guild@@3VCGuildClass@@A DB 014H DUP (?)		; Guild
	ALIGN	8

?gNSerialCheck@@3PAVNSerialCheck@@A DQ 01ce8H DUP (?)	; gNSerialCheck
?g_SimpleModulusCS@@3VCSimpleModulus@@A DB 044H DUP (?)	; g_SimpleModulusCS
?g_SimpleModulusSC@@3VCSimpleModulus@@A DB 044H DUP (?)	; g_SimpleModulusSC
_BSS	ENDS
CRT$XCU	SEGMENT
?g_iChaosCastle_MonsterItems$initializer$@@3P6AXXZA DD FLAT:??__Eg_iChaosCastle_MonsterItems@@YAXXZ ; g_iChaosCastle_MonsterItems$initializer$
CRT$XCU	ENDS
;	COMDAT __xmm@41f00000000000000000000000000000
CONST	SEGMENT
__xmm@41f00000000000000000000000000000 DB 00H, 00H, 00H, 00H, 00H, 00H, 00H
	DB	00H, 00H, 00H, 00H, 00H, 00H, 00H, 0f0H, 'A'
CONST	ENDS
;	COMDAT __real@41200000
CONST	SEGMENT
__real@41200000 DD 041200000r			; 10
CONST	ENDS
;	COMDAT __real@3fd999999999999a
CONST	SEGMENT
__real@3fd999999999999a DQ 03fd999999999999ar	; 0.4
CONST	ENDS
;	COMDAT __real@3fb999999999999a
CONST	SEGMENT
__real@3fb999999999999a DQ 03fb999999999999ar	; 0.1
CONST	ENDS
;	COMDAT __real@3f4ccccd
CONST	SEGMENT
__real@3f4ccccd DD 03f4ccccdr			; 0.8
CONST	ENDS
;	COMDAT ??_C@_0BK@HAJPAMCO@DarkLoadHeartOffEventRate@
CONST	SEGMENT
??_C@_0BK@HAJPAMCO@DarkLoadHeartOffEventRate@ DB 'DarkLoadHeartOffEventRa'
	DB	'te', 00H					; `string'
CONST	ENDS
;	COMDAT ??_C@_0BG@GAOBCKDF@DarkLordHeartDropRate@
CONST	SEGMENT
??_C@_0BG@GAOBCKDF@DarkLordHeartDropRate@ DB 'DarkLordHeartDropRate', 00H ; `string'
CONST	ENDS
;	COMDAT ??_C@_0BE@KJOHMGFA@EventManagement?4dat@
CONST	SEGMENT
??_C@_0BE@KJOHMGFA@EventManagement?4dat@ DB 'EventManagement.dat', 00H ; `string'
CONST	ENDS
;	COMDAT ??_C@_0P@JCOIPJAE@EventManagerOn@
CONST	SEGMENT
??_C@_0P@JCOIPJAE@EventManagerOn@ DB 'EventManagerOn', 00H ; `string'
CONST	ENDS
;	COMDAT ??_C@_0BD@BFEFAHKC@KundunMarkDropRate@
CONST	SEGMENT
??_C@_0BD@BFEFAHKC@KundunMarkDropRate@ DB 'KundunMarkDropRate', 00H ; `string'
CONST	ENDS
;	COMDAT ??_C@_0BB@EAJFBCDB@ChaosCastleEvent@
CONST	SEGMENT
??_C@_0BB@EAJFBCDB@ChaosCastleEvent@ DB 'ChaosCastleEvent', 00H ; `string'
CONST	ENDS
;	COMDAT ??_C@_0BA@LOKHGJIA@ChaosCastle?4dat@
CONST	SEGMENT
??_C@_0BA@LOKHGJIA@ChaosCastle?4dat@ DB 'ChaosCastle.dat', 00H ; `string'
CONST	ENDS
;	COMDAT ??_C@_0BB@HOHJFGOC@MerryXMasTalkNpc@
CONST	SEGMENT
??_C@_0BB@HOHJFGOC@MerryXMasTalkNpc@ DB 'MerryXMasTalkNpc', 00H ; `string'
CONST	ENDS
;	COMDAT ??_C@_0BE@MPGFIFAO@HappyNewYearTalkNpc@
CONST	SEGMENT
??_C@_0BE@MPGFIFAO@HappyNewYearTalkNpc@ DB 'HappyNewYearTalkNpc', 00H ; `string'
CONST	ENDS
;	COMDAT ??_C@_0BL@CMBFLADP@ItemDropRateForHeartOfLove@
CONST	SEGMENT
??_C@_0BL@CMBFLADP@ItemDropRateForHeartOfLove@ DB 'ItemDropRateForHeartOf'
	DB	'Love', 00H					; `string'
CONST	ENDS
;	COMDAT ??_C@_0BE@JJGBIMJB@HeartOfLoveDropRate@
CONST	SEGMENT
??_C@_0BE@JJGBIMJB@HeartOfLoveDropRate@ DB 'HeartOfLoveDropRate', 00H ; `string'
CONST	ENDS
;	COMDAT ??_C@_0BB@CGEJHOOF@HeartOfLoveEvent@
CONST	SEGMENT
??_C@_0BB@CGEJHOOF@HeartOfLoveEvent@ DB 'HeartOfLoveEvent', 00H ; `string'
CONST	ENDS
;	COMDAT ??_C@_0CE@BHNJHAEB@XMasEvent_ItemDropRateForStarOf@
CONST	SEGMENT
??_C@_0CE@BHNJHAEB@XMasEvent_ItemDropRateForStarOf@ DB 'XMasEvent_ItemDro'
	DB	'pRateForStarOfXMas', 00H			; `string'
CONST	ENDS
;	COMDAT ??_C@_0BN@EDHJHEEJ@XMasEvent_StarOfXMasDropRate@
CONST	SEGMENT
??_C@_0BN@EDHJHEEJ@XMasEvent_StarOfXMasDropRate@ DB 'XMasEvent_StarOfXMas'
	DB	'DropRate', 00H				; `string'
CONST	ENDS
;	COMDAT ??_C@_09HEEPAMKP@XMasEvent@
CONST	SEGMENT
??_C@_09HEEPAMKP@XMasEvent@ DB 'XMasEvent', 00H		; `string'
CONST	ENDS
;	COMDAT ??_C@_0BL@DECCHFKM@ItemDropRateForSilverMedal@
CONST	SEGMENT
??_C@_0BL@DECCHFKM@ItemDropRateForSilverMedal@ DB 'ItemDropRateForSilverM'
	DB	'edal', 00H					; `string'
CONST	ENDS
;	COMDAT ??_C@_0BJ@HJDOLNNF@ItemDropRateForGoldMedal@
CONST	SEGMENT
??_C@_0BJ@HJDOLNNF@ItemDropRateForGoldMedal@ DB 'ItemDropRateForGoldMedal'
	DB	00H						; `string'
CONST	ENDS
;	COMDAT ??_C@_0BE@OPKEGEPJ@SilverMedalDropRate@
CONST	SEGMENT
??_C@_0BE@OPKEGEPJ@SilverMedalDropRate@ DB 'SilverMedalDropRate', 00H ; `string'
CONST	ENDS
;	COMDAT ??_C@_0BC@CFKHOCLM@GoldMedalDropRate@
CONST	SEGMENT
??_C@_0BC@CFKHOCLM@GoldMedalDropRate@ DB 'GoldMedalDropRate', 00H ; `string'
CONST	ENDS
;	COMDAT ??_C@_0L@MDFHFAIK@MedalEvent@
CONST	SEGMENT
??_C@_0L@MDFHFAIK@MedalEvent@ DB 'MedalEvent', 00H	; `string'
CONST	ENDS
;	COMDAT ??_C@_0BJ@GHAOAAJB@OnlyFireCrackerEffectUse@
CONST	SEGMENT
??_C@_0BJ@GHAOAAJB@OnlyFireCrackerEffectUse@ DB 'OnlyFireCrackerEffectUse'
	DB	00H						; `string'
CONST	ENDS
;	COMDAT ??_C@_0BL@EHKPPMMG@ItemDropRateForFireCracker@
CONST	SEGMENT
??_C@_0BL@EHKPPMMG@ItemDropRateForFireCracker@ DB 'ItemDropRateForFireCra'
	DB	'cker', 00H					; `string'
CONST	ENDS
;	COMDAT ??_C@_0BE@KPFNOKLC@FireCrackerDropRate@
CONST	SEGMENT
??_C@_0BE@KPFNOKLC@FireCrackerDropRate@ DB 'FireCrackerDropRate', 00H ; `string'
CONST	ENDS
;	COMDAT ??_C@_0BB@PMGPGCOG@FireCrackerEvent@
CONST	SEGMENT
??_C@_0BB@PMGPGCOG@FireCrackerEvent@ DB 'FireCrackerEvent', 00H ; `string'
CONST	ENDS
;	COMDAT ??_C@_0BL@ENBIHHCD@Event1ItemDropTodayPercent@
CONST	SEGMENT
??_C@_0BL@ENBIHHCD@Event1ItemDropTodayPercent@ DB 'Event1ItemDropTodayPer'
	DB	'cent', 00H					; `string'
CONST	ENDS
;	COMDAT ??_C@_08KDEPFNAG@10000000@
CONST	SEGMENT
??_C@_08KDEPFNAG@10000000@ DB '10000000', 00H		; `string'
CONST	ENDS
;	COMDAT ??_C@_0BH@LPINNCM@Event1ItemDropTodayMax@
CONST	SEGMENT
??_C@_0BH@LPINNCM@Event1ItemDropTodayMax@ DB 'Event1ItemDropTodayMax', 00H ; `string'
CONST	ENDS
;	COMDAT ??_C@_06OIEHOIFM@EVENT1@
CONST	SEGMENT
??_C@_06OIEHOIFM@EVENT1@ DB 'EVENT1', 00H		; `string'
CONST	ENDS
;	COMDAT ??_C@_0BE@BHMFOLMK@RingAttackEvent?4dat@
CONST	SEGMENT
??_C@_0BE@BHMFOLMK@RingAttackEvent?4dat@ DB 'RingAttackEvent.dat', 00H ; `string'
CONST	ENDS
;	COMDAT ??_C@_0BB@NMFCKOP@RingDropGiftRate@
CONST	SEGMENT
??_C@_0BB@NMFCKOP@RingDropGiftRate@ DB 'RingDropGiftRate', 00H ; `string'
CONST	ENDS
;	COMDAT ??_C@_0BE@PAGFJHNK@RingOrcKillGiftRate@
CONST	SEGMENT
??_C@_0BE@PAGFJHNK@RingOrcKillGiftRate@ DB 'RingOrcKillGiftRate', 00H ; `string'
CONST	ENDS
;	COMDAT ??_C@_05CLDMBJBA@10000@
CONST	SEGMENT
??_C@_05CLDMBJBA@10000@ DB '10000', 00H			; `string'
CONST	ENDS
;	COMDAT ??_C@_0BA@PGIAALHL@RingAttackEvent@
CONST	SEGMENT
??_C@_0BA@PGIAALHL@RingAttackEvent@ DB 'RingAttackEvent', 00H ; `string'
CONST	ENDS
;	COMDAT ??_C@_0CF@FONHIJD@EledoradoDevilTantarosExItemDro@
CONST	SEGMENT
??_C@_0CF@FONHIJD@EledoradoDevilTantarosExItemDro@ DB 'EledoradoDevilTant'
	DB	'arosExItemDropRate', 00H			; `string'
CONST	ENDS
;	COMDAT ??_C@_0CH@JKCOIHDD@EledoradoDevilLizardKingExItemD@
CONST	SEGMENT
??_C@_0CH@JKCOIHDD@EledoradoDevilLizardKingExItemD@ DB 'EledoradoDevilLiz'
	DB	'ardKingExItemDropRate', 00H			; `string'
CONST	ENDS
;	COMDAT ??_C@_0CC@KKKCNGAN@EledoradoGoldDerconExItemDropRa@
CONST	SEGMENT
??_C@_0CC@KKKCNGAN@EledoradoGoldDerconExItemDropRa@ DB 'EledoradoGoldDerc'
	DB	'onExItemDropRate', 00H			; `string'
CONST	ENDS
;	COMDAT ??_C@_0BN@EPBKFBD@EledoradoTitanExItemDropRate@
CONST	SEGMENT
??_C@_0BN@EPBKFBD@EledoradoTitanExItemDropRate@ DB 'EledoradoTitanExItemD'
	DB	'ropRate', 00H				; `string'
CONST	ENDS
;	COMDAT ??_C@_0CC@FBLILEOL@EledoradoGoldGoblenExItemDropRa@
CONST	SEGMENT
??_C@_0CC@FBLILEOL@EledoradoGoldGoblenExItemDropRa@ DB 'EledoradoGoldGobl'
	DB	'enExItemDropRate', 00H			; `string'
CONST	ENDS
;	COMDAT ??_C@_0CD@FBDNNLBJ@EledoradoDevilTantarosItemDropR@
CONST	SEGMENT
??_C@_0CD@FBDNNLBJ@EledoradoDevilTantarosItemDropR@ DB 'EledoradoDevilTan'
	DB	'tarosItemDropRate', 00H			; `string'
CONST	ENDS
;	COMDAT ??_C@_0CF@JGNHCKNH@EledoradoDevilLizardKingItemDro@
CONST	SEGMENT
??_C@_0CF@JGNHCKNH@EledoradoDevilLizardKingItemDro@ DB 'EledoradoDevilLiz'
	DB	'ardKingItemDropRate', 00H			; `string'
CONST	ENDS
;	COMDAT ??_C@_0CA@DLLDAHDE@EledoradoGoldDerconItemDropRate@
CONST	SEGMENT
??_C@_0CA@DLLDAHDE@EledoradoGoldDerconItemDropRate@ DB 'EledoradoGoldDerc'
	DB	'onItemDropRate', 00H			; `string'
CONST	ENDS
;	COMDAT ??_C@_0BL@CKBDCOGC@EledoradoTitanItemDropRate@
CONST	SEGMENT
??_C@_0BL@CKBDCOGC@EledoradoTitanItemDropRate@ DB 'EledoradoTitanItemDrop'
	DB	'Rate', 00H					; `string'
CONST	ENDS
;	COMDAT ??_C@_0CA@HENEMHED@EledoradoGoldGoblenItemDropRate@
CONST	SEGMENT
??_C@_0CA@HENEMHED@EledoradoGoldGoblenItemDropRate@ DB 'EledoradoGoldGobl'
	DB	'enItemDropRate', 00H			; `string'
CONST	ENDS
;	COMDAT ??_C@_0CA@PDCIOFIF@EledoradoDevilTantarosRegenTime@
CONST	SEGMENT
??_C@_0CA@PDCIOFIF@EledoradoDevilTantarosRegenTime@ DB 'EledoradoDevilTan'
	DB	'tarosRegenTime', 00H			; `string'
CONST	ENDS
;	COMDAT ??_C@_0CC@KCJCENFB@EledoradoDevilLizardKingRegenTi@
CONST	SEGMENT
??_C@_0CC@KCJCENFB@EledoradoDevilLizardKingRegenTi@ DB 'EledoradoDevilLiz'
	DB	'ardKingRegenTime', 00H			; `string'
CONST	ENDS
;	COMDAT ??_C@_0BN@IJGMJJEJ@EledoradoGoldDerconRegenTime@
CONST	SEGMENT
??_C@_0BN@IJGMJJEJ@EledoradoGoldDerconRegenTime@ DB 'EledoradoGoldDerconR'
	DB	'egenTime', 00H				; `string'
CONST	ENDS
;	COMDAT ??_C@_0BI@KJLIHAFL@EledoradoTitanRegenTime@
CONST	SEGMENT
??_C@_0BI@KJLIHAFL@EledoradoTitanRegenTime@ DB 'EledoradoTitanRegenTime', 00H ; `string'
CONST	ENDS
;	COMDAT ??_C@_0BN@GMFOFBJF@EledoradoGoldGoblenRegenTime@
CONST	SEGMENT
??_C@_0BN@GMFOFBJF@EledoradoGoldGoblenRegenTime@ DB 'EledoradoGoldGoblenR'
	DB	'egenTime', 00H				; `string'
CONST	ENDS
;	COMDAT ??_C@_0BB@OEKAOOOA@IsEledoradoEvent@
CONST	SEGMENT
??_C@_0BB@OEKAOOOA@IsEledoradoEvent@ DB 'IsEledoradoEvent', 00H ; `string'
CONST	ENDS
;	COMDAT ??_C@_0BF@LANDNGMH@AttackEventRegenTime@
CONST	SEGMENT
??_C@_0BF@LANDNGMH@AttackEventRegenTime@ DB 'AttackEventRegenTime', 00H ; `string'
CONST	ENDS
;	COMDAT ??_C@_0BI@CNLFMLJF@DarkSpiritAddExperience@
CONST	SEGMENT
??_C@_0BI@CNLFMLJF@DarkSpiritAddExperience@ DB 'DarkSpiritAddExperience', 00H ; `string'
CONST	ENDS
;	COMDAT ??_C@_0BK@ILHFEAJE@SoulOfDarkSpiritDropLevel@
CONST	SEGMENT
??_C@_0BK@ILHFEAJE@SoulOfDarkSpiritDropLevel@ DB 'SoulOfDarkSpiritDropLev'
	DB	'el', 00H					; `string'
CONST	ENDS
;	COMDAT ??_C@_0BJ@NMMKDJPD@SoulOfDarkSpiritDropRate@
CONST	SEGMENT
??_C@_0BJ@NMMKDJPD@SoulOfDarkSpiritDropRate@ DB 'SoulOfDarkSpiritDropRate'
	DB	00H						; `string'
CONST	ENDS
;	COMDAT ??_C@_0BI@POMKNKAO@SoulOfDarkHorseropLevel@
CONST	SEGMENT
??_C@_0BI@POMKNKAO@SoulOfDarkHorseropLevel@ DB 'SoulOfDarkHorseropLevel', 00H ; `string'
CONST	ENDS
;	COMDAT ??_C@_0BI@LEJIBFOD@SoulOfDarkHorseDropRate@
CONST	SEGMENT
??_C@_0BI@LEJIBFOD@SoulOfDarkHorseDropRate@ DB 'SoulOfDarkHorseDropRate', 00H ; `string'
CONST	ENDS
;	COMDAT ??_C@_0BG@KOOOBGPO@SleeveOfLordDropLevel@
CONST	SEGMENT
??_C@_0BG@KOOOBGPO@SleeveOfLordDropLevel@ DB 'SleeveOfLordDropLevel', 00H ; `string'
CONST	ENDS
;	COMDAT ??_C@_0BF@CIEOPDEB@SleeveOfLordDropRate@
CONST	SEGMENT
??_C@_0BF@CIEOPDEB@SleeveOfLordDropRate@ DB 'SleeveOfLordDropRate', 00H ; `string'
CONST	ENDS
;	COMDAT ??_C@_0BD@KIIHPPEC@IsDropDarkLordItem@
CONST	SEGMENT
??_C@_0BD@KIIHPPEC@IsDropDarkLordItem@ DB 'IsDropDarkLordItem', 00H ; `string'
CONST	ENDS
;	COMDAT ??_C@_0O@PBCFFJJH@StoneDropRate@
CONST	SEGMENT
??_C@_0O@PBCFFJJH@StoneDropRate@ DB 'StoneDropRate', 00H ; `string'
CONST	ENDS
;	COMDAT ??_C@_0BC@NGLLHLOE@BloodBoneDropRate@
CONST	SEGMENT
??_C@_0BC@NGLLHLOE@BloodBoneDropRate@ DB 'BloodBoneDropRate', 00H ; `string'
CONST	ENDS
;	COMDAT ??_C@_0BI@KPDDGOOE@AngelKingsPaperDropRate@
CONST	SEGMENT
??_C@_0BI@KPDDGOOE@AngelKingsPaperDropRate@ DB 'AngelKingsPaperDropRate', 00H ; `string'
CONST	ENDS
;	COMDAT ??_C@_0BF@DLNBCIAJ@BloodCastleStartHour@
CONST	SEGMENT
??_C@_0BF@DLNBCIAJ@BloodCastleStartHour@ DB 'BloodCastleStartHour', 00H ; `string'
CONST	ENDS
;	COMDAT ??_C@_0BB@DHAFCNAC@BloodCastleEvent@
CONST	SEGMENT
??_C@_0BB@DHAFCNAC@BloodCastleEvent@ DB 'BloodCastleEvent', 00H ; `string'
CONST	ENDS
;	COMDAT ??_C@_0BA@CJKIMMIB@BloodCastle?4dat@
CONST	SEGMENT
??_C@_0BA@CJKIMMIB@BloodCastle?4dat@ DB 'BloodCastle.dat', 00H ; `string'
CONST	ENDS
;	COMDAT ??_C@_0BJ@DHGJEDK@KeyOfDevilSquareDropRate@
CONST	SEGMENT
??_C@_0BJ@DHGJEDK@KeyOfDevilSquareDropRate@ DB 'KeyOfDevilSquareDropRate', 00H ; `string'
CONST	ENDS
;	COMDAT ??_C@_0BK@NJHGKMMN@EyesOfDevilSquareDropRate@
CONST	SEGMENT
??_C@_0BK@NJHGKMMN@EyesOfDevilSquareDropRate@ DB 'EyesOfDevilSquareDropRa'
	DB	'te', 00H					; `string'
CONST	ENDS
;	COMDAT ??_C@_0BB@PNANPJHI@DevilSquareEvent@
CONST	SEGMENT
??_C@_0BB@PNANPJHI@DevilSquareEvent@ DB 'DevilSquareEvent', 00H ; `string'
CONST	ENDS
;	COMDAT ??_C@_0BA@JLLODMHA@DevilSquare?4dat@
CONST	SEGMENT
??_C@_0BA@JLLODMHA@DevilSquare?4dat@ DB 'DevilSquare.dat', 00H ; `string'
CONST	ENDS
;	COMDAT ??_C@_0BD@OGIICKJ@eventitembag17?4txt@
CONST	SEGMENT
??_C@_0BD@OGIICKJ@eventitembag17?4txt@ DB 'eventitembag17.txt', 00H ; `string'
CONST	ENDS
;	COMDAT ??_C@_0BD@EDKACDKC@eventitembag15?4txt@
CONST	SEGMENT
??_C@_0BD@EDKACDKC@eventitembag15?4txt@ DB 'eventitembag15.txt', 00H ; `string'
CONST	ENDS
;	COMDAT ??_C@_0BD@IIPMPAAH@eventitembag14?4txt@
CONST	SEGMENT
??_C@_0BD@IIPMPAAH@eventitembag14?4txt@ DB 'eventitembag14.txt', 00H ; `string'
CONST	ENDS
;	COMDAT ??_C@_0BD@JFPJMALP@eventitembag13?4txt@
CONST	SEGMENT
??_C@_0BD@JFPJMALP@eventitembag13?4txt@ DB 'eventitembag13.txt', 00H ; `string'
CONST	ENDS
;	COMDAT ??_C@_0BD@FOKFBDBK@eventitembag12?4txt@
CONST	SEGMENT
??_C@_0BD@FOKFBDBK@eventitembag12?4txt@ DB 'eventitembag12.txt', 00H ; `string'
CONST	ENDS
;	COMDAT ??_C@_0BD@NIDBGBLE@eventitembag11?4txt@
CONST	SEGMENT
??_C@_0BD@NIDBGBLE@eventitembag11?4txt@ DB 'eventitembag11.txt', 00H ; `string'
CONST	ENDS
;	COMDAT ??_C@_0BD@BDGNLCBB@eventitembag10?4txt@
CONST	SEGMENT
??_C@_0BD@BDGNLCBB@eventitembag10?4txt@ DB 'eventitembag10.txt', 00H ; `string'
CONST	ENDS
;	COMDAT ??_C@_0BC@GENOAABN@eventitembag9?4txt@
CONST	SEGMENT
??_C@_0BC@GENOAABN@eventitembag9?4txt@ DB 'eventitembag9.txt', 00H ; `string'
CONST	ENDS
;	COMDAT ??_C@_0BC@KPICNDLI@eventitembag8?4txt@
CONST	SEGMENT
??_C@_0BC@KPICNDLI@eventitembag8?4txt@ DB 'eventitembag8.txt', 00H ; `string'
CONST	ENDS
;	COMDAT ??_C@_0BC@FONEGBGN@eventitembag7?4txt@
CONST	SEGMENT
??_C@_0BC@FONEGBGN@eventitembag7?4txt@ DB 'eventitembag7.txt', 00H ; `string'
CONST	ENDS
;	COMDAT ??_C@_0BC@JFIILCMI@eventitembag6?4txt@
CONST	SEGMENT
??_C@_0BC@JFIILCMI@eventitembag6?4txt@ DB 'eventitembag6.txt', 00H ; `string'
CONST	ENDS
;	COMDAT ??_C@_0BC@BDBMMAGG@eventitembag5?4txt@
CONST	SEGMENT
??_C@_0BC@BDBMMAGG@eventitembag5?4txt@ DB 'eventitembag5.txt', 00H ; `string'
CONST	ENDS
;	COMDAT ??_C@_0BC@NIEABDMD@eventitembag4?4txt@
CONST	SEGMENT
??_C@_0BC@NIEABDMD@eventitembag4?4txt@ DB 'eventitembag4.txt', 00H ; `string'
CONST	ENDS
;	COMDAT ??_C@_0BC@MFEFCDHL@eventitembag3?4txt@
CONST	SEGMENT
??_C@_0BC@MFEFCDHL@eventitembag3?4txt@ DB 'eventitembag3.txt', 00H ; `string'
CONST	ENDS
;	COMDAT ??_C@_0BC@OBJPANO@eventitembag2?4txt@
CONST	SEGMENT
??_C@_0BC@OBJPANO@eventitembag2?4txt@ DB 'eventitembag2.txt', 00H ; `string'
CONST	ENDS
;	COMDAT ??_C@_0BB@DBBPHKAA@eventitembag?4txt@
CONST	SEGMENT
??_C@_0BB@DBBPHKAA@eventitembag?4txt@ DB 'eventitembag.txt', 00H ; `string'
CONST	ENDS
;	COMDAT ??_C@_0M@GNOCDNGL@CItemBag?5?$CFs@
CONST	SEGMENT
??_C@_0M@GNOCDNGL@CItemBag?5?$CFs@ DB 'CItemBag %s', 00H ; `string'
CONST	ENDS
;	COMDAT ??_C@_0BC@JAIHNJEB@?$CFs?5file?5not?5found@
CONST	SEGMENT
??_C@_0BC@JAIHNJEB@?$CFs?5file?5not?5found@ DB '%s file not found', 00H ; `string'
CONST	ENDS
;	COMDAT ??_C@_02JDPG@rb@
CONST	SEGMENT
??_C@_02JDPG@rb@ DB 'rb', 00H				; `string'
CONST	ENDS
;	COMDAT ??_C@_0BK@PPGGKBGC@?4?4?2data?2BalanceSystem?4ini@
CONST	SEGMENT
??_C@_0BK@PPGGKBGC@?4?4?2data?2BalanceSystem?4ini@ DB '..\data\BalanceSys'
	DB	'tem.ini', 00H				; `string'
CONST	ENDS
;	COMDAT ??_C@_0BI@NOFODAGC@?4?4?2data?2ArrowSystem?4cfg@
CONST	SEGMENT
??_C@_0BI@NOFODAGC@?4?4?2data?2ArrowSystem?4cfg@ DB '..\data\ArrowSystem.'
	DB	'cfg', 00H					; `string'
CONST	ENDS
;	COMDAT ??_C@_0BF@BJNKEBMD@?4?4?2data?2PVPEvent?4cfg@
CONST	SEGMENT
??_C@_0BF@BJNKEBMD@?4?4?2data?2PVPEvent?4cfg@ DB '..\data\PVPEvent.cfg', 00H ; `string'
CONST	ENDS
;	COMDAT ??_C@_09JEDNLJFC@BonusCash@
CONST	SEGMENT
??_C@_09JEDNLJFC@BonusCash@ DB 'BonusCash', 00H		; `string'
CONST	ENDS
;	COMDAT ??_C@_09CAFPCKBI@BonusTime@
CONST	SEGMENT
??_C@_09CAFPCKBI@BonusTime@ DB 'BonusTime', 00H		; `string'
CONST	ENDS
;	COMDAT ??_C@_05JKBOBFBJ@Bonus@
CONST	SEGMENT
??_C@_05JKBOBFBJ@Bonus@ DB 'Bonus', 00H			; `string'
CONST	ENDS
;	COMDAT ??_C@_0M@DGOLEIPN@BonusSystem@
CONST	SEGMENT
??_C@_0M@DGOLEIPN@BonusSystem@ DB 'BonusSystem', 00H	; `string'
CONST	ENDS
;	COMDAT ??_C@_0BA@PCIIIHII@OnlineBonus?4ini@
CONST	SEGMENT
??_C@_0BA@PCIIIHII@OnlineBonus?4ini@ DB 'OnlineBonus.ini', 00H ; `string'
CONST	ENDS
;	COMDAT ??_C@_0BL@OPACNGLO@SkillDistanceKickCheckTime@
CONST	SEGMENT
??_C@_0BL@OPACNGLO@SkillDistanceKickCheckTime@ DB 'SkillDistanceKickCheck'
	DB	'Time', 00H					; `string'
CONST	ENDS
;	COMDAT ??_C@_0BH@FHPEPELH@SkillDistanceKickCount@
CONST	SEGMENT
??_C@_0BH@FHPEPELH@SkillDistanceKickCount@ DB 'SkillDistanceKickCount', 00H ; `string'
CONST	ENDS
;	COMDAT ??_C@_0BC@PMNMLGGJ@SkillDistanceKick@
CONST	SEGMENT
??_C@_0BC@PMNMLGGJ@SkillDistanceKick@ DB 'SkillDistanceKick', 00H ; `string'
CONST	ENDS
;	COMDAT ??_C@_0BH@KNOFMFOO@SkillDistanceCheckTemp@
CONST	SEGMENT
??_C@_0BH@KNOFMFOO@SkillDistanceCheckTemp@ DB 'SkillDistanceCheckTemp', 00H ; `string'
CONST	ENDS
;	COMDAT ??_C@_0BD@EINABCJP@SkillDistanceCheck@
CONST	SEGMENT
??_C@_0BD@EINABCJP@SkillDistanceCheck@ DB 'SkillDistanceCheck', 00H ; `string'
CONST	ENDS
;	COMDAT ??_C@_0BB@IPFJJFBE@PersonalShopOpen@
CONST	SEGMENT
??_C@_0BB@IPFJJFBE@PersonalShopOpen@ DB 'PersonalShopOpen', 00H ; `string'
CONST	ENDS
;	COMDAT ??_C@_0BA@MDPIHCPH@?$CFs?5?$FL?$CFu?$FN?$FL?$CFu?$FN?$FL?$CFu?$FN@
CONST	SEGMENT
??_C@_0BA@MDPIHCPH@?$CFs?5?$FL?$CFu?$FN?$FL?$CFu?$FN?$FL?$CFu?$FN@ DB '%s'
	DB	' [%u][%u][%u]', 00H				; `string'
CONST	ENDS
;	COMDAT ??_C@_0BG@OEMBKLAL@User?5Object?5Size?5?$DN?5?$CFd@
CONST	SEGMENT
??_C@_0BG@OEMBKLAL@User?5Object?5Size?5?$DN?5?$CFd@ DB 'User Object Size '
	DB	'= %d', 00H					; `string'
CONST	ENDS
;	COMDAT ??_C@_05LFHGFJK@?$CFs_?$CFd@
CONST	SEGMENT
??_C@_05LFHGFJK@?$CFs_?$CFd@ DB '%s_%d', 00H		; `string'
CONST	ENDS
;	COMDAT ??_C@_0P@CECKIAHO@CheckSpeedHack@
CONST	SEGMENT
??_C@_0P@CECKIAHO@CheckSpeedHack@ DB 'CheckSpeedHack', 00H ; `string'
CONST	ENDS
;	COMDAT ??_C@_0BM@CEPJPHJK@EnableCheckPenetrationSkill@
CONST	SEGMENT
??_C@_0BM@CEPJPHJK@EnableCheckPenetrationSkill@ DB 'EnableCheckPenetratio'
	DB	'nSkill', 00H				; `string'
CONST	ENDS
;	COMDAT ??_C@_0O@KKNNPAMK@HackLogServer@
CONST	SEGMENT
??_C@_0O@KKNNPAMK@HackLogServer@ DB 'HackLogServer', 00H ; `string'
CONST	ENDS
;	COMDAT ??_C@_09NPFFCDOK@10?41?42?469@
CONST	SEGMENT
??_C@_09NPFFCDOK@10?41?42?469@ DB '10.1.2.69', 00H	; `string'
CONST	ENDS
;	COMDAT ??_C@_0BF@PDBLMKBC@EnableServerDivision@
CONST	SEGMENT
??_C@_0BF@PDBLMKBC@EnableServerDivision@ DB 'EnableServerDivision', 00H ; `string'
CONST	ENDS
;	COMDAT ??_C@_0BD@NKHABGBC@EnableEventNPCTalk@
CONST	SEGMENT
??_C@_0BD@NKHABGBC@EnableEventNPCTalk@ DB 'EnableEventNPCTalk', 00H ; `string'
CONST	ENDS
;	COMDAT ??_C@_0BD@FPCMGBCA@EnableBattleSoccer@
CONST	SEGMENT
??_C@_0BD@FPCMGBCA@EnableBattleSoccer@ DB 'EnableBattleSoccer', 00H ; `string'
CONST	ENDS
;	COMDAT ??_C@_0BA@CEGABCOE@ApplyHeroSystem@
CONST	SEGMENT
??_C@_0BA@CEGABCOE@ApplyHeroSystem@ DB 'ApplyHeroSystem', 00H ; `string'
CONST	ENDS
;	COMDAT ??_C@_0BC@FMIEAAIA@EventChipServerIp@
CONST	SEGMENT
??_C@_0BC@FMIEAAIA@EventChipServerIp@ DB 'EventChipServerIp', 00H ; `string'
CONST	ENDS
;	COMDAT ??_C@_0P@PKCHKPDI@192?4168?410?4150@
CONST	SEGMENT
??_C@_0P@PKCHKPDI@192?4168?410?4150@ DB '192.168.10.150', 00H ; `string'
CONST	ENDS
;	COMDAT ??_C@_0BH@FIEEIIMF@EventChipServerConnect@
CONST	SEGMENT
??_C@_0BH@FIEEIIMF@EventChipServerConnect@ DB 'EventChipServerConnect', 00H ; `string'
CONST	ENDS
;	COMDAT ??_C@_0BH@DJHELGEN@DevilSquareEventServer@
CONST	SEGMENT
??_C@_0BH@DJHELGEN@DevilSquareEventServer@ DB 'DevilSquareEventServer', 00H ; `string'
CONST	ENDS
;	COMDAT ??_C@_0BI@KCKMEMOI@DevilSquareEventConnect@
CONST	SEGMENT
??_C@_0BI@KCKMEMOI@DevilSquareEventConnect@ DB 'DevilSquareEventConnect', 00H ; `string'
CONST	ENDS
;	COMDAT ??_C@_04HDFGONMM@PORT@
CONST	SEGMENT
??_C@_04HDFGONMM@PORT@ DB 'PORT', 00H			; `string'
CONST	ENDS
;	COMDAT ??_C@_0BC@IKLEIAKB@ConnectServerInfo@
CONST	SEGMENT
??_C@_0BC@IKLEIAKB@ConnectServerInfo@ DB 'ConnectServerInfo', 00H ; `string'
CONST	ENDS
;	COMDAT ??_C@_02MFEOMNPG@IP@
CONST	SEGMENT
??_C@_02MFEOMNPG@IP@ DB 'IP', 00H			; `string'
CONST	ENDS
;	COMDAT ??_C@_0BG@LKNKPNDE@ShadowPhantomMaxLevel@
CONST	SEGMENT
??_C@_0BG@LKNKPNDE@ShadowPhantomMaxLevel@ DB 'ShadowPhantomMaxLevel', 00H ; `string'
CONST	ENDS
;	COMDAT ??_C@_0BD@JLEDGMHA@KundunRefillHPTime@
CONST	SEGMENT
??_C@_0BD@JLEDGMHA@KundunRefillHPTime@ DB 'KundunRefillHPTime', 00H ; `string'
CONST	ENDS
;	COMDAT ??_C@_0P@CHMHAEOB@KundunRefillHP@
CONST	SEGMENT
??_C@_0P@CHMHAEOB@KundunRefillHP@ DB 'KundunRefillHP', 00H ; `string'
CONST	ENDS
;	COMDAT ??_C@_0BC@BADILJEE@KundunRefillHPSec@
CONST	SEGMENT
??_C@_0BC@BADILJEE@KundunRefillHPSec@ DB 'KundunRefillHPSec', 00H ; `string'
CONST	ENDS
;	COMDAT ??_C@_0BF@HDFDIILJ@QuestNPCTeleportTime@
CONST	SEGMENT
??_C@_0BF@HDFDIILJ@QuestNPCTeleportTime@ DB 'QuestNPCTeleportTime', 00H ; `string'
CONST	ENDS
;	COMDAT ??_C@_0O@DJJFJNIL@WriteSkillLog@
CONST	SEGMENT
??_C@_0O@DJJFJNIL@WriteSkillLog@ DB 'WriteSkillLog', 00H ; `string'
CONST	ENDS
;	COMDAT ??_C@_0BJ@PDDPDJGE@DQChaosSuccessRateLevel4@
CONST	SEGMENT
??_C@_0BJ@PDDPDJGE@DQChaosSuccessRateLevel4@ DB 'DQChaosSuccessRateLevel4'
	DB	00H						; `string'
CONST	ENDS
;	COMDAT ??_C@_0BJ@LMHOKPKD@DQChaosSuccessRateLevel3@
CONST	SEGMENT
??_C@_0BJ@LMHOKPKD@DQChaosSuccessRateLevel3@ DB 'DQChaosSuccessRateLevel3'
	DB	00H						; `string'
CONST	ENDS
;	COMDAT ??_C@_0BJ@KFGFJOOC@DQChaosSuccessRateLevel2@
CONST	SEGMENT
??_C@_0BJ@KFGFJOOC@DQChaosSuccessRateLevel2@ DB 'DQChaosSuccessRateLevel2'
	DB	00H						; `string'
CONST	ENDS
;	COMDAT ??_C@_0BJ@IOEIMNCB@DQChaosSuccessRateLevel1@
CONST	SEGMENT
??_C@_0BJ@IOEIMNCB@DQChaosSuccessRateLevel1@ DB 'DQChaosSuccessRateLevel1'
	DB	00H						; `string'
CONST	ENDS
;	COMDAT ??_C@_0BB@MCFEHCJF@SpeedHackPenalty@
CONST	SEGMENT
??_C@_0BB@MCFEHCJF@SpeedHackPenalty@ DB 'SpeedHackPenalty', 00H ; `string'
CONST	ENDS
;	COMDAT ??_C@_0BG@MPJHCBCJ@DecTimePerAttackSpeed@
CONST	SEGMENT
??_C@_0BG@MPJHCBCJ@DecTimePerAttackSpeed@ DB 'DecTimePerAttackSpeed', 00H ; `string'
CONST	ENDS
;	COMDAT ??_C@_04MCLHNJOA@5?433@
CONST	SEGMENT
??_C@_04MCLHNJOA@5?433@ DB '5.33', 00H			; `string'
CONST	ENDS
;	COMDAT ??_C@_0BA@OAOAELOO@UseNPGGChecksum@
CONST	SEGMENT
??_C@_0BA@OAOAELOO@UseNPGGChecksum@ DB 'UseNPGGChecksum', 00H ; `string'
CONST	ENDS
;	COMDAT ??_C@_0BD@OBHCBKDC@DisconnectHackUser@
CONST	SEGMENT
??_C@_0BD@OBHCBKDC@DisconnectHackUser@ DB 'DisconnectHackUser', 00H ; `string'
CONST	ENDS
;	COMDAT ??_C@_0N@OGIIBFAP@WriteChatLog@
CONST	SEGMENT
??_C@_0N@OGIIBFAP@WriteChatLog@ DB 'WriteChatLog', 00H	; `string'
CONST	ENDS
;	COMDAT ??_C@_0BI@IMCEGONI@ItemDropRingOfTransform@
CONST	SEGMENT
??_C@_0BI@IMCEGONI@ItemDropRingOfTransform@ DB 'ItemDropRingOfTransform', 00H ; `string'
CONST	ENDS
;	COMDAT ??_C@_0BK@JABOLCNK@IsItemDropRingOfTransform@
CONST	SEGMENT
??_C@_0BK@JABOLCNK@IsItemDropRingOfTransform@ DB 'IsItemDropRingOfTransfo'
	DB	'rm', 00H					; `string'
CONST	ENDS
;	COMDAT ??_C@_0BK@JCJPKDIP@IsKickDetecHackCountLimit@
CONST	SEGMENT
??_C@_0BK@JCJPKDIP@IsKickDetecHackCountLimit@ DB 'IsKickDetecHackCountLim'
	DB	'it', 00H					; `string'
CONST	ENDS
;	COMDAT ??_C@_0BG@GBBHJJPD@DetectedHackKickCount@
CONST	SEGMENT
??_C@_0BG@GBBHJJPD@DetectedHackKickCount@ DB 'DetectedHackKickCount', 00H ; `string'
CONST	ENDS
;	COMDAT ??_C@_0BH@CLHIGLBH@MinimumAttackSpeedTime@
CONST	SEGMENT
??_C@_0BH@CLHIGLBH@MinimumAttackSpeedTime@ DB 'MinimumAttackSpeedTime', 00H ; `string'
CONST	ENDS
;	COMDAT ??_C@_0P@FNJLIJMF@HackCheckCount@
CONST	SEGMENT
??_C@_0P@FNJLIJMF@HackCheckCount@ DB 'HackCheckCount', 00H ; `string'
CONST	ENDS
;	COMDAT ??_C@_0BJ@KEAABHOA@IsIgnorePacketHackDetect@
CONST	SEGMENT
??_C@_0BJ@KEAABHOA@IsIgnorePacketHackDetect@ DB 'IsIgnorePacketHackDetect'
	DB	00H						; `string'
CONST	ENDS
;	COMDAT ??_C@_0BF@EDGAONAD@AttackSpeedTimeLimit@
CONST	SEGMENT
??_C@_0BF@EDGAONAD@AttackSpeedTimeLimit@ DB 'AttackSpeedTimeLimit', 00H ; `string'
CONST	ENDS
;	COMDAT ??_C@_0BO@DEAIHFPL@EventChipDropRateForBoxOfGold@
CONST	SEGMENT
??_C@_0BO@DEAIHFPL@EventChipDropRateForBoxOfGold@ DB 'EventChipDropRateFo'
	DB	'rBoxOfGold', 00H				; `string'
CONST	ENDS
;	COMDAT ??_C@_0BJ@GLDGDDON@ItemDropRateForBoxOfGold@
CONST	SEGMENT
??_C@_0BJ@GLDGDDON@ItemDropRateForBoxOfGold@ DB 'ItemDropRateForBoxOfGold'
	DB	00H						; `string'
CONST	ENDS
;	COMDAT ??_C@_0BC@FNNFHNFE@BoxOfGoldDropRate@
CONST	SEGMENT
??_C@_0BC@FNNFHNFE@BoxOfGoldDropRate@ DB 'BoxOfGoldDropRate', 00H ; `string'
CONST	ENDS
;	COMDAT ??_C@_0P@MCKGBBMK@EventChipEvent@
CONST	SEGMENT
??_C@_0P@MCKGBBMK@EventChipEvent@ DB 'EventChipEvent', 00H ; `string'
CONST	ENDS
;	COMDAT ??_C@_0BB@OMEMPADG@ItemDurationTime@
CONST	SEGMENT
??_C@_0BB@OMEMPADG@ItemDurationTime@ DB 'ItemDurationTime', 00H ; `string'
CONST	ENDS
;	COMDAT ??_C@_0BA@LODEADPK@ZenDurationTime@
CONST	SEGMENT
??_C@_0BA@LODEADPK@ZenDurationTime@ DB 'ZenDurationTime', 00H ; `string'
CONST	ENDS
;	COMDAT ??_C@_0M@LDLBHBAP@ItemDropPer@
CONST	SEGMENT
??_C@_0M@LDLBHBAP@ItemDropPer@ DB 'ItemDropPer', 00H	; `string'
CONST	ENDS
;	COMDAT ??_C@_02PKFBJPLJ@10@
CONST	SEGMENT
??_C@_02PKFBJPLJ@10@ DB '10', 00H			; `string'
CONST	ENDS
;	COMDAT ??_C@_0L@LNKCFJOF@PKItemDrop@
CONST	SEGMENT
??_C@_0L@LNKCFJOF@PKItemDrop@ DB 'PKItemDrop', 00H	; `string'
CONST	ENDS
;	COMDAT ??_C@_0CE@CGDCLGCF@?$FLOption?$FN?5Auto?5Looting?5Time?5Set?5@
CONST	SEGMENT
??_C@_0CE@CGDCLGCF@?$FLOption?$FN?5Auto?5Looting?5Time?5Set?5@ DB '[Optio'
	DB	'n] Auto Looting Time Set : %d', 00H		; `string'
CONST	ENDS
;	COMDAT ??_C@_0M@CNCIMJOC@LootingTime@
CONST	SEGMENT
??_C@_0M@CNCIMJOC@LootingTime@ DB 'LootingTime', 00H	; `string'
CONST	ENDS
;	COMDAT ??_C@_01EKENIIDA@3@
CONST	SEGMENT
??_C@_01EKENIIDA@3@ DB '3', 00H				; `string'
CONST	ENDS
;	COMDAT ??_C@_09LNOLFHKA@MonsterHp@
CONST	SEGMENT
??_C@_09LNOLFHKA@MonsterHp@ DB 'MonsterHp', 00H		; `string'
CONST	ENDS
;	COMDAT ??_C@_06PKBKOIPG@PKTIME@
CONST	SEGMENT
??_C@_06PKBKOIPG@PKTIME@ DB 'PKTIME', 00H		; `string'
CONST	ENDS
;	COMDAT ??_C@_0CD@DBODMHPC@?$FLOption?$FN?5AttackEventRegenTime?5?$DN@
CONST	SEGMENT
??_C@_0CD@DBODMHPC@?$FLOption?$FN?5AttackEventRegenTime?5?$DN@ DB '[Optio'
	DB	'n] AttackEventRegenTime = %d', 00H		; `string'
CONST	ENDS
;	COMDAT ??_C@_0BP@BODHCMPI@?$FLOption?$FN?5ChaosEventServer?5?$DN?5?$CFs@
CONST	SEGMENT
??_C@_0BP@BODHCMPI@?$FLOption?$FN?5ChaosEventServer?5?$DN?5?$CFs@ DB '[Op'
	DB	'tion] ChaosEventServer = %s', 00H		; `string'
CONST	ENDS
;	COMDAT ??_C@_0BJ@BDPEJKAD@?$FLOption?$FN?5ChaosEvent?5?$DN?5?$CFd@
CONST	SEGMENT
??_C@_0BJ@BDPEJKAD@?$FLOption?$FN?5ChaosEvent?5?$DN?5?$CFd@ DB '[Option] '
	DB	'ChaosEvent = %d', 00H			; `string'
CONST	ENDS
;	COMDAT ??_C@_0BH@HMHMODEL@?$FLOption?$FN?5ChaosBox?5?$DN?5?$CFd@
CONST	SEGMENT
??_C@_0BH@HMHMODEL@?$FLOption?$FN?5ChaosBox?5?$DN?5?$CFd@ DB '[Option] Ch'
	DB	'aosBox = %d', 00H				; `string'
CONST	ENDS
;	COMDAT ??_C@_0BB@LFFJPGMP@ChaosEventServer@
CONST	SEGMENT
??_C@_0BB@LFFJPGMP@ChaosEventServer@ DB 'ChaosEventServer', 00H ; `string'
CONST	ENDS
;	COMDAT ??_C@_0P@LCMOAIFH@210?4181?489?4241@
CONST	SEGMENT
??_C@_0P@LCMOAIFH@210?4181?489?4241@ DB '210.181.89.241', 00H ; `string'
CONST	ENDS
;	COMDAT ??_C@_0L@KKFEELGG@ChaosEvent@
CONST	SEGMENT
??_C@_0L@KKFEELGG@ChaosEvent@ DB 'ChaosEvent', 00H	; `string'
CONST	ENDS
;	COMDAT ??_C@_08CIGOAAJ@ChaosBox@
CONST	SEGMENT
??_C@_08CIGOAAJ@ChaosBox@ DB 'ChaosBox', 00H		; `string'
CONST	ENDS
;	COMDAT ??_C@_05IOPOMLGK@Trade@
CONST	SEGMENT
??_C@_05IOPOMLGK@Trade@ DB 'Trade', 00H			; `string'
CONST	ENDS
;	COMDAT ??_C@_06GOOKGCKJ@AddZen@
CONST	SEGMENT
??_C@_06GOOKGCKJ@AddZen@ DB 'AddZen', 00H		; `string'
CONST	ENDS
;	COMDAT ??_C@_0O@LBPJGHMN@AddExperience@
CONST	SEGMENT
??_C@_0O@LBPJGHMN@AddExperience@ DB 'AddExperience', 00H ; `string'
CONST	ENDS
;	COMDAT ??_C@_0BA@PFGDHKCH@ItemSerialCheck@
CONST	SEGMENT
??_C@_0BA@PFGDHKCH@ItemSerialCheck@ DB 'ItemSerialCheck', 00H ; `string'
CONST	ENDS
;	COMDAT ??_C@_0BG@PFNCNMEF@ConnectRenewBlockTime@
CONST	SEGMENT
??_C@_0BG@PFNCNMEF@ConnectRenewBlockTime@ DB 'ConnectRenewBlockTime', 00H ; `string'
CONST	ENDS
;	COMDAT ??_C@_0BE@NKDMJEHP@ConnectIntervalTime@
CONST	SEGMENT
??_C@_0BE@NKDMJEHP@ConnectIntervalTime@ DB 'ConnectIntervalTime', 00H ; `string'
CONST	ENDS
;	COMDAT ??_C@_0BH@OBAKKGCF@ConnectHackIPBlockTime@
CONST	SEGMENT
??_C@_0BH@OBAKKGCF@ConnectHackIPBlockTime@ DB 'ConnectHackIPBlockTime', 00H ; `string'
CONST	ENDS
;	COMDAT ??_C@_0BF@KDFHAHG@SpeedHackPlayerBlock@
CONST	SEGMENT
??_C@_0BF@KDFHAHG@SpeedHackPlayerBlock@ DB 'SpeedHackPlayerBlock', 00H ; `string'
CONST	ENDS
;	COMDAT ??_C@_0BN@IDOOLGAL@CastleOwnerGuildDestroyLimit@
CONST	SEGMENT
??_C@_0BN@IDOOLGAL@CastleOwnerGuildDestroyLimit@ DB 'CastleOwnerGuildDest'
	DB	'royLimit', 00H				; `string'
CONST	ENDS
;	COMDAT ??_C@_0BB@DOGMENHB@GuildCreateLevel@
CONST	SEGMENT
??_C@_0BB@DOGMENHB@GuildCreateLevel@ DB 'GuildCreateLevel', 00H ; `string'
CONST	ENDS
;	COMDAT ??_C@_03GNABGMEE@100@
CONST	SEGMENT
??_C@_03GNABGMEE@100@ DB '100', 00H			; `string'
CONST	ENDS
;	COMDAT ??_C@_0N@OEKMPEAB@GuildDestroy@
CONST	SEGMENT
??_C@_0N@OEKMPEAB@GuildDestroy@ DB 'GuildDestroy', 00H	; `string'
CONST	ENDS
;	COMDAT ??_C@_0M@CGJDJOAO@GuildCreate@
CONST	SEGMENT
??_C@_0M@CGJDJOAO@GuildCreate@ DB 'GuildCreate', 00H	; `string'
CONST	ENDS
;	COMDAT ??_C@_0CM@HGFFPJNE@?$FLOption?5Reload?$FN?5?$KB?Z?$KB?Z?$KB?Z?5MaxUser?5@
CONST	SEGMENT
??_C@_0CM@HGFFPJNE@?$FLOption?5Reload?$FN?5?$KB?Z?$KB?Z?$KB?Z?5MaxUser?5@ DB '['
	DB	'Option Reload] ', 0a1H, 0daH, 0a1H, 0daH, 0a1H, 0daH, ' MaxUs'
	DB	'er ', 0a1H, 0d9H, 0a1H, 0d9H, 0a1H, 0d9H, '  : %d', 00H ; `string'
CONST	ENDS
;	COMDAT ??_C@_0BA@IJNIFGCF@NumberOfMaxUser@
CONST	SEGMENT
??_C@_0BA@IJNIFGCF@NumberOfMaxUser@ DB 'NumberOfMaxUser', 00H ; `string'
CONST	ENDS
;	COMDAT ??_C@_0BI@ONKCMGBI@CharacterDeleteMinLevel@
CONST	SEGMENT
??_C@_0BI@ONKCMGBI@CharacterDeleteMinLevel@ DB 'CharacterDeleteMinLevel', 00H ; `string'
CONST	ENDS
;	COMDAT ??_C@_02PMJKFNFC@40@
CONST	SEGMENT
??_C@_02PMJKFNFC@40@ DB '40', 00H			; `string'
CONST	ENDS
;	COMDAT ??_C@_0BA@DIAOPFNP@CreateCharacter@
CONST	SEGMENT
??_C@_0BA@DIAOPFNP@CreateCharacter@ DB 'CreateCharacter', 00H ; `string'
CONST	ENDS
;	COMDAT ??_C@_0BA@JHAHNEJ@ClientExeSerial@
CONST	SEGMENT
??_C@_0BA@JHAHNEJ@ClientExeSerial@ DB 'ClientExeSerial', 00H ; `string'
CONST	ENDS
;	COMDAT ??_C@_01HIHLOKLC@1@
CONST	SEGMENT
??_C@_01HIHLOKLC@1@ DB '1', 00H				; `string'
CONST	ENDS
;	COMDAT ??_C@_01LFCBOECM@?4@
CONST	SEGMENT
??_C@_01LFCBOECM@?4@ DB '.', 00H			; `string'
CONST	ENDS
;	COMDAT ??_C@_0BB@FBDFNIJB@ClientExeVersion@
CONST	SEGMENT
??_C@_0BB@FBDFNIJB@ClientExeVersion@ DB 'ClientExeVersion', 00H ; `string'
CONST	ENDS
;	COMDAT ??_C@_0BE@BKEFEABF@lang?2main?2quest?4txt@
CONST	SEGMENT
??_C@_0BE@BKEFEABF@lang?2main?2quest?4txt@ DB 'lang\main\quest.txt', 00H ; `string'
CONST	ENDS
;	COMDAT ??_C@_0O@MOJICEJC@MoveLevel?4txt@
CONST	SEGMENT
??_C@_0O@MOJICEJC@MoveLevel?4txt@ DB 'MoveLevel.txt', 00H ; `string'
CONST	ENDS
;	COMDAT ??_C@_0BK@BHDBGJAM@lang?2main?2itemsettype?4txt@
CONST	SEGMENT
??_C@_0BK@BHDBGJAM@lang?2main?2itemsettype?4txt@ DB 'lang\main\itemsettyp'
	DB	'e.txt', 00H					; `string'
CONST	ENDS
;	COMDAT ??_C@_0BM@FIJENIG@lang?2main?2itemsetoption?4txt@
CONST	SEGMENT
??_C@_0BM@FIJENIG@lang?2main?2itemsetoption?4txt@ DB 'lang\main\itemsetop'
	DB	'tion.txt', 00H				; `string'
CONST	ENDS
;	COMDAT ??_C@_0P@POAMAGDJ@skillElect?4hit@
CONST	SEGMENT
??_C@_0P@POAMAGDJ@skillElect?4hit@ DB 'skillElect.hit', 00H ; `string'
CONST	ENDS
;	COMDAT ??_C@_0P@NPIOLEMH@skillSpear?4hit@
CONST	SEGMENT
??_C@_0P@NPIOLEMH@skillSpear?4hit@ DB 'skillSpear.hit', 00H ; `string'
CONST	ENDS
;	COMDAT ??_C@_0BI@LHJFIJMG@lang?2main?2commonloc?4cfg@
CONST	SEGMENT
??_C@_0BI@LHJFIJMG@lang?2main?2commonloc?4cfg@ DB 'lang\main\commonloc.cf'
	DB	'g', 00H					; `string'
CONST	ENDS
;	COMDAT ??_C@_0BH@ELPPJFKD@lang?2main?2CheckSum?4dat@
CONST	SEGMENT
??_C@_0BH@ELPPJFKD@lang?2main?2CheckSum?4dat@ DB 'lang\main\CheckSum.dat', 00H ; `string'
CONST	ENDS
;	COMDAT ??_C@_03KAPGHIGI@Tha@
CONST	SEGMENT
??_C@_03KAPGHIGI@Tha@ DB 'Tha', 00H			; `string'
CONST	ENDS
;	COMDAT ??_C@_0BH@BBKIGHND@lang?2tha?2commonloc?4cfg@
CONST	SEGMENT
??_C@_0BH@BBKIGHND@lang?2tha?2commonloc?4cfg@ DB 'lang\tha\commonloc.cfg', 00H ; `string'
CONST	ENDS
;	COMDAT ??_C@_0BG@MKEGOHAG@lang?2tha?2CheckSum?4dat@
CONST	SEGMENT
??_C@_0BG@MKEGOHAG@lang?2tha?2CheckSum?4dat@ DB 'lang\tha\CheckSum.dat', 00H ; `string'
CONST	ENDS
;	COMDAT ??_C@_0BI@PPCLJHOL@lang?2tha?2Quest?$CItha?$CJ?4txt@
CONST	SEGMENT
??_C@_0BI@PPCLJHOL@lang?2tha?2Quest?$CItha?$CJ?4txt@ DB 'lang\tha\Quest(t'
	DB	'ha).txt', 00H				; `string'
CONST	ENDS
;	COMDAT ??_C@_0BI@ICECJPPA@lang?2tha?2skill?$CItha?$CJ?4txt@
CONST	SEGMENT
??_C@_0BI@ICECJPPA@lang?2tha?2skill?$CItha?$CJ?4txt@ DB 'lang\tha\skill(t'
	DB	'ha).txt', 00H				; `string'
CONST	ENDS
;	COMDAT ??_C@_0BH@BDPKPKJK@lang?2tha?2item?$CItha?$CJ?4txt@
CONST	SEGMENT
??_C@_0BH@BDPKPKJK@lang?2tha?2item?$CItha?$CJ?4txt@ DB 'lang\tha\item(tha'
	DB	').txt', 00H					; `string'
CONST	ENDS
;	COMDAT ??_C@_0BA@CIFGKAHN@message_tha?4wtf@
CONST	SEGMENT
??_C@_0BA@CIFGKAHN@message_tha?4wtf@ DB 'message_tha.wtf', 00H ; `string'
CONST	ENDS
;	COMDAT ??_C@_03GHPOMJOP@Tai@
CONST	SEGMENT
??_C@_03GHPOMJOP@Tai@ DB 'Tai', 00H			; `string'
CONST	ENDS
;	COMDAT ??_C@_0BH@DANHMEB@lang?2tai?2commonloc?4cfg@
CONST	SEGMENT
??_C@_0BH@DANHMEB@lang?2tai?2commonloc?4cfg@ DB 'lang\tai\commonloc.cfg', 00H ; `string'
CONST	ENDS
;	COMDAT ??_C@_0BG@NILECFFP@lang?2tai?2CheckSum?4dat@
CONST	SEGMENT
??_C@_0BG@NILECFFP@lang?2tai?2CheckSum?4dat@ DB 'lang\tai\CheckSum.dat', 00H ; `string'
CONST	ENDS
;	COMDAT ??_C@_0BI@MNJIJFNE@lang?2tai?2Quest?$CItai?$CJ?4txt@
CONST	SEGMENT
??_C@_0BI@MNJIJFNE@lang?2tai?2Quest?$CItai?$CJ?4txt@ DB 'lang\tai\Quest(t'
	DB	'ai).txt', 00H				; `string'
CONST	ENDS
;	COMDAT ??_C@_0BI@LAPBJNMP@lang?2tai?2skill?$CItai?$CJ?4txt@
CONST	SEGMENT
??_C@_0BI@LAPBJNMP@lang?2tai?2skill?$CItai?$CJ?4txt@ DB 'lang\tai\skill(t'
	DB	'ai).txt', 00H				; `string'
CONST	ENDS
;	COMDAT ??_C@_0BH@CNPPLEEE@lang?2tai?2item?$CItai?$CJ?4txt@
CONST	SEGMENT
??_C@_0BH@CNPPLEEE@lang?2tai?2item?$CItai?$CJ?4txt@ DB 'lang\tai\item(tai'
	DB	').txt', 00H					; `string'
CONST	ENDS
;	COMDAT ??_C@_0BA@FBJNGHMD@message_tai?4wtf@
CONST	SEGMENT
??_C@_0BA@FBJNGHMD@message_tai?4wtf@ DB 'message_tai.wtf', 00H ; `string'
CONST	ENDS
;	COMDAT ??_C@_03BFMMGHJN@Chs@
CONST	SEGMENT
??_C@_03BFMMGHJN@Chs@ DB 'Chs', 00H			; `string'
CONST	ENDS
;	COMDAT ??_C@_0BH@LPKCCKFC@lang?2chs?2commonloc?4cfg@
CONST	SEGMENT
??_C@_0BH@LPKCCKFC@lang?2chs?2commonloc?4cfg@ DB 'lang\chs\commonloc.cfg', 00H ; `string'
CONST	ENDS
;	COMDAT ??_C@_0BG@BBGBCMOO@lang?2chs?2CheckSum?4dat@
CONST	SEGMENT
??_C@_0BG@BBGBCMOO@lang?2chs?2CheckSum?4dat@ DB 'lang\chs\CheckSum.dat', 00H ; `string'
CONST	ENDS
;	COMDAT ??_C@_0BI@FNNKIMEP@lang?2chs?2Quest?$CIchs?$CJ?4txt@
CONST	SEGMENT
??_C@_0BI@FNNKIMEP@lang?2chs?2Quest?$CIchs?$CJ?4txt@ DB 'lang\chs\Quest(c'
	DB	'hs).txt', 00H				; `string'
CONST	ENDS
;	COMDAT ??_C@_0BI@CALDIEFE@lang?2chs?2skill?$CIchs?$CJ?4txt@
CONST	SEGMENT
??_C@_0BI@CALDIEFE@lang?2chs?2skill?$CIchs?$CJ?4txt@ DB 'lang\chs\skill(c'
	DB	'hs).txt', 00H				; `string'
CONST	ENDS
;	COMDAT ??_C@_0BH@IFBABFEE@lang?2chs?2item?$CIchs?$CJ?4txt@
CONST	SEGMENT
??_C@_0BH@IFBABFEE@lang?2chs?2item?$CIchs?$CJ?4txt@ DB 'lang\chs\item(chs'
	DB	').txt', 00H					; `string'
CONST	ENDS
;	COMDAT ??_C@_0BA@BADGDLNP@message_chs?4wtf@
CONST	SEGMENT
??_C@_0BA@BADGDLNP@message_chs?4wtf@ DB 'message_chs.wtf', 00H ; `string'
CONST	ENDS
;	COMDAT ??_C@_03IFJNLGMD@Jpn@
CONST	SEGMENT
??_C@_03IFJNLGMD@Jpn@ DB 'Jpn', 00H			; `string'
CONST	ENDS
;	COMDAT ??_C@_0BH@FJINJIJL@lang?2jpn?2commonloc?4cfg@
CONST	SEGMENT
??_C@_0BH@FJINJIJL@lang?2jpn?2commonloc?4cfg@ DB 'lang\jpn\commonloc.cfg', 00H ; `string'
CONST	ENDS
;	COMDAT ??_C@_0BG@FNIPOEKB@lang?2jpn?2CheckSum?4dat@
CONST	SEGMENT
??_C@_0BG@FNIPOEKB@lang?2jpn?2CheckSum?4dat@ DB 'lang\jpn\CheckSum.dat', 00H ; `string'
CONST	ENDS
;	COMDAT ??_C@_0BI@LKHALICC@lang?2jpn?2Quest?$CIjpn?$CJ?4txt@
CONST	SEGMENT
??_C@_0BI@LKHALICC@lang?2jpn?2Quest?$CIjpn?$CJ?4txt@ DB 'lang\jpn\Quest(j'
	DB	'pn).txt', 00H				; `string'
CONST	ENDS
;	COMDAT ??_C@_0BI@MHBJLADJ@lang?2jpn?2skill?$CIjpn?$CJ?4txt@
CONST	SEGMENT
??_C@_0BI@MHBJLADJ@lang?2jpn?2skill?$CIjpn?$CJ?4txt@ DB 'lang\jpn\skill(j'
	DB	'pn).txt', 00H				; `string'
CONST	ENDS
;	COMDAT ??_C@_0BH@GGMLMGEG@lang?2jpn?2item?$CIjpn?$CJ?4txt@
CONST	SEGMENT
??_C@_0BH@GGMLMGEG@lang?2jpn?2item?$CIjpn?$CJ?4txt@ DB 'lang\jpn\item(jpn'
	DB	').txt', 00H					; `string'
CONST	ENDS
;	COMDAT ??_C@_0BA@OEAAODBI@message_jpn?4wtf@
CONST	SEGMENT
??_C@_0BA@OEAAODBI@message_jpn?4wtf@ DB 'message_jpn.wtf', 00H ; `string'
CONST	ENDS
;	COMDAT ??_C@_03BKIEJDKG@Eng@
CONST	SEGMENT
??_C@_03BKIEJDKG@Eng@ DB 'Eng', 00H			; `string'
CONST	ENDS
;	COMDAT ??_C@_0BH@CEPMFDMG@lang?2eng?2commonloc?4cfg@
CONST	SEGMENT
??_C@_0BH@CEPMFDMG@lang?2eng?2commonloc?4cfg@ DB 'lang\eng\commonloc.cfg', 00H ; `string'
CONST	ENDS
;	COMDAT ??_C@_0BG@CLNKAICO@lang?2eng?2CheckSum?4dat@
CONST	SEGMENT
??_C@_0BG@CLNKAICO@lang?2eng?2CheckSum?4dat@ DB 'lang\eng\CheckSum.dat', 00H ; `string'
CONST	ENDS
;	COMDAT ??_C@_0BI@IMMHENLL@lang?2eng?2Quest?$CIeng?$CJ?4txt@
CONST	SEGMENT
??_C@_0BI@IMMHENLL@lang?2eng?2Quest?$CIeng?$CJ?4txt@ DB 'lang\eng\Quest(e'
	DB	'ng).txt', 00H				; `string'
CONST	ENDS
;	COMDAT ??_C@_0BI@PBKOEFKA@lang?2eng?2skill?$CIeng?$CJ?4txt@
CONST	SEGMENT
??_C@_0BI@PBKOEFKA@lang?2eng?2skill?$CIeng?$CJ?4txt@ DB 'lang\eng\skill(e'
	DB	'ng).txt', 00H				; `string'
CONST	ENDS
;	COMDAT ??_C@_0BH@DIKKKEAA@lang?2eng?2item?$CIeng?$CJ?4txt@
CONST	SEGMENT
??_C@_0BH@DIKKKEAA@lang?2eng?2item?$CIeng?$CJ?4txt@ DB 'lang\eng\item(eng'
	DB	').txt', 00H					; `string'
CONST	ENDS
;	COMDAT ??_C@_0BA@CNMOEHOP@message_eng?4wtf@
CONST	SEGMENT
??_C@_0BA@CNMOEHOP@message_eng?4wtf@ DB 'message_eng.wtf', 00H ; `string'
CONST	ENDS
;	COMDAT ??_C@_0BF@KFCGLLGL@PK?5Limit?5Free?5Server@
CONST	SEGMENT
??_C@_0BF@KFCGLLGL@PK?5Limit?5Free?5Server@ DB 'PK Limit Free Server', 00H ; `string'
CONST	ENDS
;	COMDAT ??_C@_0M@DKICACGN@PkLimitFree@
CONST	SEGMENT
??_C@_0M@DKICACGN@PkLimitFree@ DB 'PkLimitFree', 00H	; `string'
CONST	ENDS
;	COMDAT ??_C@_0O@GCDDIMLO@NON?9PK?5Server@
CONST	SEGMENT
??_C@_0O@GCDDIMLO@NON?9PK?5Server@ DB 'NON-PK Server', 00H ; `string'
CONST	ENDS
;	COMDAT ??_C@_05MEMFONJC@NonPK@
CONST	SEGMENT
??_C@_05MEMFONJC@NonPK@ DB 'NonPK', 00H			; `string'
CONST	ENDS
;	COMDAT ??_C@_0BH@CGAJGJIE@lang?2kor?2commonloc?4cfg@
CONST	SEGMENT
??_C@_0BH@CGAJGJIE@lang?2kor?2commonloc?4cfg@ DB 'lang\kor\commonloc.cfg', 00H ; `string'
CONST	ENDS
;	COMDAT ??_C@_0BG@LDHDEAON@lang?2kor?2CheckSum?4dat@
CONST	SEGMENT
??_C@_0BG@LDHDEAON@lang?2kor?2CheckSum?4dat@ DB 'lang\kor\CheckSum.dat', 00H ; `string'
CONST	ENDS
;	COMDAT ??_C@_0BI@KHGIHCPL@lang?2kor?2Quest?$CIKor?$CJ?4txt@
CONST	SEGMENT
??_C@_0BI@KHGIHCPL@lang?2kor?2Quest?$CIKor?$CJ?4txt@ DB 'lang\kor\Quest(K'
	DB	'or).txt', 00H				; `string'
CONST	ENDS
;	COMDAT ??_C@_0BI@FIPAPIED@lang?2kor?2skill?$CIkor?$CJ?4txt@
CONST	SEGMENT
??_C@_0BI@FIPAPIED@lang?2kor?2skill?$CIkor?$CJ?4txt@ DB 'lang\kor\skill(k'
	DB	'or).txt', 00H				; `string'
CONST	ENDS
;	COMDAT ??_C@_0BH@LNBPGCH@lang?2kor?2item?$CIkor?$CJ?4txt@
CONST	SEGMENT
??_C@_0BH@LNBPGCH@lang?2kor?2item?$CIkor?$CJ?4txt@ DB 'lang\kor\item(kor)'
	DB	'.txt', 00H					; `string'
CONST	ENDS
;	COMDAT ??_C@_0BA@MNCIMNEB@message_kor?4wtf@
CONST	SEGMENT
??_C@_0BA@MNCIMNEB@message_kor?4wtf@ DB 'message_kor.wtf', 00H ; `string'
CONST	ENDS
;	COMDAT ??_C@_0BG@GBCNIGCF@lang?2main?2movereq?4txt@
CONST	SEGMENT
??_C@_0BG@GBCNIGCF@lang?2main?2movereq?4txt@ DB 'lang\main\movereq.txt', 00H ; `string'
CONST	ENDS
;	COMDAT ??_C@_0BE@FDAOHAFF@lang?2main?2skill?4txt@
CONST	SEGMENT
??_C@_0BE@FDAOHAFF@lang?2main?2skill?4txt@ DB 'lang\main\skill.txt', 00H ; `string'
CONST	ENDS
;	COMDAT ??_C@_0BD@FJCONAOJ@lang?2main?2item?4txt@
CONST	SEGMENT
??_C@_0BD@FJCONAOJ@lang?2main?2item?4txt@ DB 'lang\main\item.txt', 00H ; `string'
CONST	ENDS
;	COMDAT ??_C@_0BI@CDOIIEIH@Enc2?4dat?5file?5not?5found@
CONST	SEGMENT
??_C@_0BI@CDOIIEIH@Enc2?4dat?5file?5not?5found@ DB 'Enc2.dat file not fou'
	DB	'nd', 00H					; `string'
CONST	ENDS
;	COMDAT ??_C@_08HDINADJK@Enc2?4dat@
CONST	SEGMENT
??_C@_08HDINADJK@Enc2?4dat@ DB 'Enc2.dat', 00H		; `string'
CONST	ENDS
;	COMDAT ??_C@_0BI@KPIPBJFI@Dec1?4dat?5file?5not?5found@
CONST	SEGMENT
??_C@_0BI@KPIPBJFI@Dec1?4dat?5file?5not?5found@ DB 'Dec1.dat file not fou'
	DB	'nd', 00H					; `string'
CONST	ENDS
;	COMDAT ??_C@_08LPAIHJCB@Dec1?4dat@
CONST	SEGMENT
??_C@_08LPAIHJCB@Dec1?4dat@ DB 'Dec1.dat', 00H		; `string'
CONST	ENDS
;	COMDAT ??_C@_0BK@KJGDFNAO@Stalk?5Protocol?5ID?5?$DN?5?8?$CFs?8?5@
CONST	SEGMENT
??_C@_0BK@KJGDFNAO@Stalk?5Protocol?5ID?5?$DN?5?8?$CFs?8?5@ DB 'Stalk Prot'
	DB	'ocol ID = ''%s'' ', 00H			; `string'
CONST	ENDS
;	COMDAT ??_C@_0BA@GELKBKKC@StalkProtocolId@
CONST	SEGMENT
??_C@_0BA@GELKBKKC@StalkProtocolId@ DB 'StalkProtocolId', 00H ; `string'
CONST	ENDS
;	COMDAT ??_C@_0O@GAFBBPE@StalkProtocol@
CONST	SEGMENT
??_C@_0O@GAFBBPE@StalkProtocol@ DB 'StalkProtocol', 00H	; `string'
CONST	ENDS
;	COMDAT ??_C@_08BENDAOKD@Language@
CONST	SEGMENT
??_C@_08BENDAOKD@Language@ DB 'Language', 00H		; `string'
CONST	ENDS
;	COMDAT ??_C@_01GBGANLPD@0@
CONST	SEGMENT
??_C@_01GBGANLPD@0@ DB '0', 00H				; `string'
CONST	ENDS
;	COMDAT ??_C@_0BB@JIONBNI@CalCharacter?4cfg@
CONST	SEGMENT
??_C@_0BB@JIONBNI@CalCharacter?4cfg@ DB 'CalCharacter.cfg', 00H ; `string'
CONST	ENDS
;	COMDAT ??_C@_0CC@JCDJGIAD@?$FLcommonserver?4cfg?$FN?5file?5not?5fou@
CONST	SEGMENT
??_C@_0CC@JCDJGIAD@?$FLcommonserver?4cfg?$FN?5file?5not?5fou@ DB '[common'
	DB	'server.cfg] file not found', 00H		; `string'
CONST	ENDS
;	COMDAT ??_C@_0BB@IGLHFEOF@commonserver?4cfg@
CONST	SEGMENT
??_C@_0BB@IGLHFEOF@commonserver?4cfg@ DB 'commonserver.cfg', 00H ; `string'
CONST	ENDS
;	COMDAT ??_C@_0BC@GLFLPKEG@ConnectMemberLoad@
CONST	SEGMENT
??_C@_0BC@GLFLPKEG@ConnectMemberLoad@ DB 'ConnectMemberLoad', 00H ; `string'
CONST	ENDS
;	COMDAT ??_C@_0L@ECKGLPBM@ServerCode@
CONST	SEGMENT
??_C@_0L@ECKGLPBM@ServerCode@ DB 'ServerCode', 00H	; `string'
CONST	ENDS
;	COMDAT ??_C@_0P@EMJDPFDH@GameServerInfo@
CONST	SEGMENT
??_C@_0P@EMJDPFDH@GameServerInfo@ DB 'GameServerInfo', 00H ; `string'
CONST	ENDS
;	COMDAT ??_C@_0L@FFDIDHBB@ServerName@
CONST	SEGMENT
??_C@_0L@FFDIDHBB@ServerName@ DB 'ServerName', 00H	; `string'
CONST	ENDS
;	COMDAT ??_C@_0BO@CFKIHFKN@ServerInfo?4dat?5file?5not?5found@
CONST	SEGMENT
??_C@_0BO@CFKIHFKN@ServerInfo?4dat?5file?5not?5found@ DB 'ServerInfo.dat '
	DB	'file not found', 00H			; `string'
CONST	ENDS
;	COMDAT ??_C@_0BG@KBGGHHPK@?4?2data?2Serverinfo?4dat@
CONST	SEGMENT
??_C@_0BG@KBGGHHPK@?4?2data?2Serverinfo?4dat@ DB '.\data\Serverinfo.dat', 00H ; `string'
CONST	ENDS
;	COMDAT ??_C@_0CO@DFBFHLJO@Error?9L1?5?3?5Friend?5Server?5Down?5?$CI@
CONST	SEGMENT
??_C@_0CO@DFBFHLJO@Error?9L1?5?3?5Friend?5Server?5Down?5?$CI@ DB 'Error-L'
	DB	'1 : Friend Server Down (State Send Ok)', 00H ; `string'
CONST	ENDS
;	COMDAT ??_C@_0BD@MBDGLECM@ExDB?5Server?5Online@
CONST	SEGMENT
??_C@_0BD@MBDGLECM@ExDB?5Server?5Online@ DB 'ExDB Server Online', 00H ; `string'
CONST	ENDS
;	COMDAT ??_C@_0BM@JEEOGNJB@EventChip?5Connect?5IP?5?$FL?5?$CFs?5?$FN@
CONST	SEGMENT
??_C@_0BM@JEEOGNJB@EventChip?5Connect?5IP?5?$FL?5?$CFs?5?$FN@ DB 'EventCh'
	DB	'ip Connect IP [ %s ]', 00H			; `string'
CONST	ENDS
;	COMDAT ??_C@_0CA@GPEDJDDH@RankingServer?5Connect?5IP?5?$FL?5?$CFs?5?$FN@
CONST	SEGMENT
??_C@_0CA@GPEDJDDH@RankingServer?5Connect?5IP?5?$FL?5?$CFs?5?$FN@ DB 'Ran'
	DB	'kingServer Connect IP [ %s ]', 00H		; `string'
CONST	ENDS
;	COMDAT ??_C@_0BF@MNGCMCAL@BuffHelperSystem?4cfg@
CONST	SEGMENT
??_C@_0BF@MNGCMCAL@BuffHelperSystem?4cfg@ DB 'BuffHelperSystem.cfg', 00H ; `string'
CONST	ENDS
;	COMDAT ??_C@_0BA@NJMOGOCM@ResetSystem?4cfg@
CONST	SEGMENT
??_C@_0BA@NJMOGOCM@ResetSystem?4cfg@ DB 'ResetSystem.cfg', 00H ; `string'
CONST	ENDS
;	COMDAT ??_C@_0BC@IPOGIFJE@PkClearSystem?4cfg@
CONST	SEGMENT
??_C@_0BC@IPOGIFJE@PkClearSystem?4cfg@ DB 'PkClearSystem.cfg', 00H ; `string'
CONST	ENDS
;	COMDAT ??_C@_0BC@FGIEIEFL@ConnectMember?4txt@
CONST	SEGMENT
??_C@_0BC@FGIEIEFL@ConnectMember?4txt@ DB 'ConnectMember.txt', 00H ; `string'
CONST	ENDS
;	COMDAT ??_C@_0L@DPAHEMHE@Iplist?4dat@
CONST	SEGMENT
??_C@_0L@DPAHEMHE@Iplist?4dat@ DB 'Iplist.dat', 00H	; `string'
CONST	ENDS
;	COMDAT ??_C@_0O@CFGLJCFC@terrain25?4att@
CONST	SEGMENT
??_C@_0O@CFGLJCFC@terrain25?4att@ DB 'terrain25.att', 00H ; `string'
CONST	ENDS
;	COMDAT ??_C@_0O@GDEBEILE@terrain19?4att@
CONST	SEGMENT
??_C@_0O@GDEBEILE@terrain19?4att@ DB 'terrain19.att', 00H ; `string'
CONST	ENDS
;	COMDAT ??_C@_0O@JIGLIHH@terrain12?4att@
CONST	SEGMENT
??_C@_0O@JIGLIHH@terrain12?4att@ DB 'terrain12.att', 00H ; `string'
CONST	ENDS
;	COMDAT ??_C@_0O@IPBCMKNJ@terrain11?4att@
CONST	SEGMENT
??_C@_0O@IPBCMKNJ@terrain11?4att@ DB 'terrain11.att', 00H ; `string'
CONST	ENDS
;	COMDAT ??_C@_0O@EEEOBJHM@terrain10?4att@
CONST	SEGMENT
??_C@_0O@EEEOBJHM@terrain10?4att@ DB 'terrain10.att', 00H ; `string'
CONST	ENDS
;	COMDAT ??_C@_0N@PHEFDIDH@terrain9?4att@
CONST	SEGMENT
??_C@_0N@PHEFDIDH@terrain9?4att@ DB 'terrain9.att', 00H	; `string'
CONST	ENDS
;	COMDAT ??_C@_0N@DMBJOLJC@terrain8?4att@
CONST	SEGMENT
??_C@_0N@DMBJOLJC@terrain8?4att@ DB 'terrain8.att', 00H	; `string'
CONST	ENDS
;	COMDAT ??_C@_0N@MNEPFJEH@terrain7?4att@
CONST	SEGMENT
??_C@_0N@MNEPFJEH@terrain7?4att@ DB 'terrain7.att', 00H	; `string'
CONST	ENDS
;	COMDAT ??_C@_0N@GBDIKOC@terrain6?4att@
CONST	SEGMENT
??_C@_0N@GBDIKOC@terrain6?4att@ DB 'terrain6.att', 00H	; `string'
CONST	ENDS
;	COMDAT ??_C@_0N@IAIHPIEM@terrain5?4att@
CONST	SEGMENT
??_C@_0N@IAIHPIEM@terrain5?4att@ DB 'terrain5.att', 00H	; `string'
CONST	ENDS
;	COMDAT ??_C@_0N@ELNLCLOJ@terrain4?4att@
CONST	SEGMENT
??_C@_0N@ELNLCLOJ@terrain4?4att@ DB 'terrain4.att', 00H	; `string'
CONST	ENDS
;	COMDAT ??_C@_0N@FGNOBLFB@terrain3?4att@
CONST	SEGMENT
??_C@_0N@FGNOBLFB@terrain3?4att@ DB 'terrain3.att', 00H	; `string'
CONST	ENDS
;	COMDAT ??_C@_0N@JNICMIPE@terrain2?4att@
CONST	SEGMENT
??_C@_0N@JNICMIPE@terrain2?4att@ DB 'terrain2.att', 00H	; `string'
CONST	ENDS
;	COMDAT ??_C@_0N@BLBGLKFK@terrain1?4att@
CONST	SEGMENT
??_C@_0N@BLBGLKFK@terrain1?4att@ DB 'terrain1.att', 00H	; `string'
CONST	ENDS
;	COMDAT ??_C@_08PGLGOOHM@gate?4txt@
CONST	SEGMENT
??_C@_08PGLGOOHM@gate?4txt@ DB 'gate.txt', 00H		; `string'
CONST	ENDS
;	COMDAT ??_C@_0M@NDKJFFPF@Monster?4txt@
CONST	SEGMENT
??_C@_0M@NDKJFFPF@Monster?4txt@ DB 'Monster.txt', 00H	; `string'
CONST	ENDS
;	COMDAT ??_C@_0BD@KDLMHCKD@MonsterSetBase?4txt@
CONST	SEGMENT
??_C@_0BD@KDLMHCKD@MonsterSetBase?4txt@ DB 'MonsterSetBase.txt', 00H ; `string'
CONST	ENDS
;	COMDAT ??_C@_0CK@CPDKBBDI@?A?V?$MA?G?$CB?$CB?5?D?$LD?$LI?$KP?E?M?5?$LF?$KF?$MA?L?E?M?$LI?$KG?5?$MA?z?$MA?e?G?O?A?v@
CONST	SEGMENT
??_C@_0CK@CPDKBBDI@?A?V?$MA?G?$CB?$CB?5?D?$LD?$LI?$KP?E?M?5?$LF?$KF?$MA?L?E?M?$LI?$KG?5?$MA?z?$MA?e?G?O?A?v@ DB 0c1H
	DB	0d6H, 0c0H, 0c7H, '!! ', 0c4H, 0b3H, 0b8H, 0afH, 0c5H, 0cdH, ' '
	DB	0b5H, 0a5H, 0c0H, 0ccH, 0c5H, 0cdH, 0b8H, 0a6H, ' ', 0c0H, 0faH
	DB	0c0H, 0e5H, 0c7H, 0cfH, 0c1H, 0f6H, ' ', 0beH, 0caH, 0bdH, 0c0H
	DB	0b4H, 0cfH, 0b4H, 0d9H, '.', 00H		; `string'
CONST	ENDS
;	COMDAT ??_C@_0BI@FNDPBPBE@UDP?5Socket?5create?5error@
CONST	SEGMENT
??_C@_0BI@FNDPBPBE@UDP?5Socket?5create?5error@ DB 'UDP Socket create erro'
	DB	'r', 00H					; `string'
CONST	ENDS
;	COMDAT ??_C@_0BO@HAAAHLCH@?$LM?$KN?$LJ?v?$LK?P?G?R?$MA?L?5?$LA?$KB?$LE?I?G?Q?5?$LM?$KN?$LJ?v?$MA?T?$LE?O?$LE?Y?4@
CONST	SEGMENT
??_C@_0BO@HAAAHLCH@?$LM?$KN?$LJ?v?$LK?P?G?R?$MA?L?5?$LA?$KB?$LE?I?G?Q?5?$LM?$KN?$LJ?v?$MA?T?$LE?O?$LE?Y?4@ DB 0bcH
	DB	0adH, 0b9H, 0f6H, 0baH, 0d0H, 0c7H, 0d2H, 0c0H, 0ccH, ' ', 0b0H
	DB	0a1H, 0b4H, 0c9H, 0c7H, 0d1H, ' ', 0bcH, 0adH, 0b9H, 0f6H, 0c0H
	DB	0d4H, 0b4H, 0cfH, 0b4H, 0d9H, '.', 00H	; `string'
CONST	ENDS
;	COMDAT ??_C@_07KGMMFLDN@Warning@
CONST	SEGMENT
??_C@_07KGMMFLDN@Warning@ DB 'Warning', 00H		; `string'
CONST	ENDS
;	COMDAT ??_C@_0BL@CIFNLNKN@?4?4?2data?2TerrainManager?4cfg@
CONST	SEGMENT
??_C@_0BL@CIFNLNKN@?4?4?2data?2TerrainManager?4cfg@ DB '..\data\TerrainMa'
	DB	'nager.cfg', 00H				; `string'
CONST	ENDS
;	COMDAT ??_C@_0P@CNKMNCA@AttackEvent?5?$CFs@
CONST	SEGMENT
??_C@_0P@CNKMNCA@AttackEvent?5?$CFs@ DB 'AttackEvent %s', 00H ; `string'
CONST	ENDS
;	COMDAT ??_C@_0BA@FPGHNLAN@CDragonEvent?5?$CFs@
CONST	SEGMENT
??_C@_0BA@FPGHNLAN@CDragonEvent?5?$CFs@ DB 'CDragonEvent %s', 00H ; `string'
CONST	ENDS
;	COMDAT ??_C@_08NAJBNDME@?4?4?2Data?2@
CONST	SEGMENT
??_C@_08NAJBNDME@?4?4?2Data?2@ DB '..\Data\', 00H	; `string'
CONST	ENDS
;	COMDAT ??_C@_00CNPNBAHC@@
CONST	SEGMENT
??_C@_00CNPNBAHC@@ DB 00H				; `string'
CONST	ENDS
;	COMDAT xdata$x
xdata$x	SEGMENT
__ehfuncinfo$?LoadItemBag@@YAXXZ DD 019930522H
	DD	011H
	DD	FLAT:__unwindtable$?LoadItemBag@@YAXXZ
	DD	2 DUP(00H)
	DD	2 DUP(00H)
	DD	00H
	DD	01H
__unwindtable$?LoadItemBag@@YAXXZ DD 0ffffffffH
	DD	FLAT:__unwindfunclet$?LoadItemBag@@YAXXZ$0
	DD	0ffffffffH
	DD	FLAT:__unwindfunclet$?LoadItemBag@@YAXXZ$1
	DD	0ffffffffH
	DD	FLAT:__unwindfunclet$?LoadItemBag@@YAXXZ$2
	DD	0ffffffffH
	DD	FLAT:__unwindfunclet$?LoadItemBag@@YAXXZ$3
	DD	0ffffffffH
	DD	FLAT:__unwindfunclet$?LoadItemBag@@YAXXZ$4
	DD	0ffffffffH
	DD	FLAT:__unwindfunclet$?LoadItemBag@@YAXXZ$5
	DD	0ffffffffH
	DD	FLAT:__unwindfunclet$?LoadItemBag@@YAXXZ$6
	DD	0ffffffffH
	DD	FLAT:__unwindfunclet$?LoadItemBag@@YAXXZ$7
	DD	0ffffffffH
	DD	FLAT:__unwindfunclet$?LoadItemBag@@YAXXZ$8
	DD	0ffffffffH
	DD	FLAT:__unwindfunclet$?LoadItemBag@@YAXXZ$9
	DD	0ffffffffH
	DD	FLAT:__unwindfunclet$?LoadItemBag@@YAXXZ$10
	DD	0ffffffffH
	DD	FLAT:__unwindfunclet$?LoadItemBag@@YAXXZ$11
	DD	0ffffffffH
	DD	FLAT:__unwindfunclet$?LoadItemBag@@YAXXZ$12
	DD	0ffffffffH
	DD	FLAT:__unwindfunclet$?LoadItemBag@@YAXXZ$13
	DD	0ffffffffH
	DD	FLAT:__unwindfunclet$?LoadItemBag@@YAXXZ$14
	DD	0ffffffffH
	DD	FLAT:__unwindfunclet$?LoadItemBag@@YAXXZ$15
	DD	0ffffffffH
	DD	FLAT:__unwindfunclet$?LoadItemBag@@YAXXZ$16
xdata$x	ENDS
;	COMDAT xdata$x
xdata$x	SEGMENT
__unwindtable$?GameMainInit@@YAXPAUHWND__@@@Z DD 0ffffffffH
	DD	FLAT:__unwindfunclet$?GameMainInit@@YAXPAUHWND__@@@Z$0
	DD	0ffffffffH
	DD	FLAT:__unwindfunclet$?GameMainInit@@YAXPAUHWND__@@@Z$1
	DD	0ffffffffH
	DD	FLAT:__unwindfunclet$?GameMainInit@@YAXPAUHWND__@@@Z$2
__ehfuncinfo$?GameMainInit@@YAXPAUHWND__@@@Z DD 019930522H
	DD	03H
	DD	FLAT:__unwindtable$?GameMainInit@@YAXPAUHWND__@@@Z
	DD	2 DUP(00H)
	DD	2 DUP(00H)
	DD	00H
	DD	01H
xdata$x	ENDS
;	COMDAT xdata$x
xdata$x	SEGMENT
__ehfuncinfo$??_EMapClass@@UAEPAXI@Z DD 019930522H
	DD	00H
	DD	00H
	DD	2 DUP(00H)
	DD	2 DUP(00H)
	DD	00H
	DD	05H
xdata$x	ENDS
;	COMDAT xdata$x
xdata$x	SEGMENT
__ehfuncinfo$??0?$basic_string@DU?$char_traits@D@std@@V?$allocator@D@2@@std@@QAE@XZ DD 019930522H
	DD	00H
	DD	00H
	DD	2 DUP(00H)
	DD	2 DUP(00H)
	DD	00H
	DD	05H
xdata$x	ENDS
CRT$XCU	SEGMENT
?wsGServer$initializer$@@3P6AXXZA DD FLAT:??__EwsGServer@@YAXXZ ; wsGServer$initializer$
CRT$XCU	ENDS
CRT$XCU	SEGMENT
?wsJServerCli$initializer$@@3P6AXXZA DD FLAT:??__EwsJServerCli@@YAXXZ ; wsJServerCli$initializer$
CRT$XCU	ENDS
CRT$XCU	SEGMENT
?wsDataCli$initializer$@@3P6AXXZA DD FLAT:??__EwsDataCli@@YAXXZ ; wsDataCli$initializer$
CRT$XCU	ENDS
CRT$XCU	SEGMENT
?wsExDbCli$initializer$@@3P6AXXZA DD FLAT:??__EwsExDbCli@@YAXXZ ; wsExDbCli$initializer$
CRT$XCU	ENDS
CRT$XCU	SEGMENT
?wsRServerCli$initializer$@@3P6AXXZA DD FLAT:??__EwsRServerCli@@YAXXZ ; wsRServerCli$initializer$
CRT$XCU	ENDS
CRT$XCU	SEGMENT
?wsEvenChipServerCli$initializer$@@3P6AXXZA DD FLAT:??__EwsEvenChipServerCli@@YAXXZ ; wsEvenChipServerCli$initializer$
CRT$XCU	ENDS
CRT$XCU	SEGMENT
?gDirPath$initializer$@@3P6AXXZA DD FLAT:??__EgDirPath@@YAXXZ ; gDirPath$initializer$
CRT$XCU	ENDS
CRT$XCU	SEGMENT
?gMAttr$initializer$@@3P6AXXZA DD FLAT:??__EgMAttr@@YAXXZ ; gMAttr$initializer$
CRT$XCU	ENDS
CRT$XCU	SEGMENT
?gMSetBase$initializer$@@3P6AXXZA DD FLAT:??__EgMSetBase@@YAXXZ ; gMSetBase$initializer$
CRT$XCU	ENDS
CRT$XCU	SEGMENT
?DCInfo$initializer$@@3P6AXXZA DD FLAT:??__EDCInfo@@YAXXZ ; DCInfo$initializer$
CRT$XCU	ENDS
CRT$XCU	SEGMENT
?WhisperCash$initializer$@@3P6AXXZA DD FLAT:??__EWhisperCash@@YAXXZ ; WhisperCash$initializer$
CRT$XCU	ENDS
CRT$XCU	SEGMENT
?gParty$initializer$@@3P6AXXZA DD FLAT:??__EgParty@@YAXXZ ; gParty$initializer$
CRT$XCU	ENDS
CRT$XCU	SEGMENT
?gDbSave$initializer$@@3P6AXXZA DD FLAT:??__EgDbSave@@YAXXZ ; gDbSave$initializer$
CRT$XCU	ENDS
CRT$XCU	SEGMENT
?gUdpSoc$initializer$@@3P6AXXZA DD FLAT:??__EgUdpSoc@@YAXXZ ; gUdpSoc$initializer$
CRT$XCU	ENDS
CRT$XCU	SEGMENT
?gUdpSocCE$initializer$@@3P6AXXZA DD FLAT:??__EgUdpSocCE@@YAXXZ ; gUdpSocCE$initializer$
CRT$XCU	ENDS
CRT$XCU	SEGMENT
?gUdpSocCER$initializer$@@3P6AXXZA DD FLAT:??__EgUdpSocCER@@YAXXZ ; gUdpSocCER$initializer$
CRT$XCU	ENDS
CRT$XCU	SEGMENT
?gUdpSocCRank$initializer$@@3P6AXXZA DD FLAT:??__EgUdpSocCRank@@YAXXZ ; gUdpSocCRank$initializer$
CRT$XCU	ENDS
CRT$XCU	SEGMENT
?gUdpSocCRankR$initializer$@@3P6AXXZA DD FLAT:??__EgUdpSocCRankR@@YAXXZ ; gUdpSocCRankR$initializer$
CRT$XCU	ENDS
CRT$XCU	SEGMENT
?Guild$initializer$@@3P6AXXZA DD FLAT:??__EGuild@@YAXXZ	; Guild$initializer$
CRT$XCU	ENDS
CRT$XCU	SEGMENT
?lMsg$initializer$@@3P6AXXZA DD FLAT:??__ElMsg@@YAXXZ	; lMsg$initializer$
CRT$XCU	ENDS
CRT$XCU	SEGMENT
?gNSerialCheck$initializer$@@3P6AXXZA DD FLAT:??__EgNSerialCheck@@YAXXZ ; gNSerialCheck$initializer$
CRT$XCU	ENDS
CRT$XCU	SEGMENT
?gLCount$initializer$@@3P6AXXZA DD FLAT:??__EgLCount@@YAXXZ ; gLCount$initializer$
CRT$XCU	ENDS
CRT$XCU	SEGMENT
?g_SimpleModulusCS$initializer$@@3P6AXXZA DD FLAT:??__Eg_SimpleModulusCS@@YAXXZ ; g_SimpleModulusCS$initializer$
CRT$XCU	ENDS
CRT$XCU	SEGMENT
?g_SimpleModulusSC$initializer$@@3P6AXXZA DD FLAT:??__Eg_SimpleModulusSC@@YAXXZ ; g_SimpleModulusSC$initializer$
CRT$XCU	ENDS
; Function compile flags: /Odtp /ZI
; File C:\Mu Online\Mu-GS-Webzen-MC-10093\GameServer\Gamemain.cpp
;	COMDAT ?GraphPaint@@YAXPAUHWND__@@@Z
_TEXT	SEGMENT
_i$1 = -88						; size = 4
_n$2 = -84						; size = 4
_colBrush$ = -80					; size = 16
_val$ = -64						; size = 40
_rect$ = -24						; size = 16
_hdc$ = -8						; size = 4
__$ArrayPad$ = -4					; size = 4
_hWnd$ = 8						; size = 4
?GraphPaint@@YAXPAUHWND__@@@Z PROC			; GraphPaint, COMDAT

; 1983 : {

  00000	55		 push	 ebp
  00001	8b ec		 mov	 ebp, esp
  00003	81 ec 98 00 00
	00		 sub	 esp, 152		; 00000098H
  00009	a1 00 00 00 00	 mov	 eax, DWORD PTR ___security_cookie
  0000e	33 c5		 xor	 eax, ebp
  00010	89 45 fc	 mov	 DWORD PTR __$ArrayPad$[ebp], eax
  00013	53		 push	 ebx
  00014	56		 push	 esi
  00015	57		 push	 edi

; 1984 : 	HDC hdc = GetDC(hWnd);

  00016	8b 45 08	 mov	 eax, DWORD PTR _hWnd$[ebp]
  00019	50		 push	 eax
  0001a	ff 15 00 00 00
	00		 call	 DWORD PTR __imp__GetDC@4
  00020	89 45 f8	 mov	 DWORD PTR _hdc$[ebp], eax

; 1985 : 	RECT rect;
; 1986 : 	int  val[10];
; 1987 : 	HBRUSH colBrush[4];
; 1988 : 
; 1989 : 	colBrush[0] = (HBRUSH)CreateSolidBrush(RGB(100,100,100));

  00023	68 64 64 64 00	 push	 6579300			; 00646464H
  00028	ff 15 00 00 00
	00		 call	 DWORD PTR __imp__CreateSolidBrush@4
  0002e	b9 04 00 00 00	 mov	 ecx, 4
  00033	6b d1 00	 imul	 edx, ecx, 0
  00036	89 44 15 b0	 mov	 DWORD PTR _colBrush$[ebp+edx], eax

; 1990 : 	colBrush[1] = (HBRUSH)CreateSolidBrush(RGB(200,100,100));

  0003a	68 c8 64 64 00	 push	 6579400			; 006464c8H
  0003f	ff 15 00 00 00
	00		 call	 DWORD PTR __imp__CreateSolidBrush@4
  00045	b9 04 00 00 00	 mov	 ecx, 4
  0004a	c1 e1 00	 shl	 ecx, 0
  0004d	89 44 0d b0	 mov	 DWORD PTR _colBrush$[ebp+ecx], eax

; 1991 : 	colBrush[2] = (HBRUSH)CreateSolidBrush(RGB(200,200,200));

  00051	68 c8 c8 c8 00	 push	 13158600		; 00c8c8c8H
  00056	ff 15 00 00 00
	00		 call	 DWORD PTR __imp__CreateSolidBrush@4
  0005c	b9 04 00 00 00	 mov	 ecx, 4
  00061	d1 e1		 shl	 ecx, 1
  00063	89 44 0d b0	 mov	 DWORD PTR _colBrush$[ebp+ecx], eax

; 1992 : 	colBrush[3] = (HBRUSH)CreateSolidBrush(RGB(200,200,100));

  00067	68 c8 c8 64 00	 push	 6605000			; 0064c8c8H
  0006c	ff 15 00 00 00
	00		 call	 DWORD PTR __imp__CreateSolidBrush@4
  00072	b9 04 00 00 00	 mov	 ecx, 4
  00077	6b d1 03	 imul	 edx, ecx, 3
  0007a	89 44 15 b0	 mov	 DWORD PTR _colBrush$[ebp+edx], eax

; 1993 :  
; 1994 : 	// Class,Str,Dex,Vit,Energy,Life,Mana,LevelLife,LevelMana,VitalityToLife,EnergyToMana 
; 1995 : 	for( int n=0; n<4; n++)

  0007e	c7 45 ac 00 00
	00 00		 mov	 DWORD PTR _n$2[ebp], 0
  00085	eb 09		 jmp	 SHORT $LN4@GraphPaint
$LN2@GraphPaint:
  00087	8b 45 ac	 mov	 eax, DWORD PTR _n$2[ebp]
  0008a	83 c0 01	 add	 eax, 1
  0008d	89 45 ac	 mov	 DWORD PTR _n$2[ebp], eax
$LN4@GraphPaint:
  00090	83 7d ac 04	 cmp	 DWORD PTR _n$2[ebp], 4
  00094	0f 8d 9b 01 00
	00		 jge	 $LN3@GraphPaint

; 1996 : 	{
; 1997 : 		val[0] = DCInfo.DefClass[n].Strength;

  0009a	69 45 ac 60 09
	00 00		 imul	 eax, DWORD PTR _n$2[ebp], 2400
  000a1	0f b7 88 08 00
	00 00		 movzx	 ecx, WORD PTR ?DCInfo@@3Vclassdef@@A[eax+8]
  000a8	ba 04 00 00 00	 mov	 edx, 4
  000ad	6b c2 00	 imul	 eax, edx, 0
  000b0	89 4c 05 c0	 mov	 DWORD PTR _val$[ebp+eax], ecx

; 1998 : 		val[1] = DCInfo.DefClass[n].Dexterity;

  000b4	69 45 ac 60 09
	00 00		 imul	 eax, DWORD PTR _n$2[ebp], 2400
  000bb	0f b7 88 0a 00
	00 00		 movzx	 ecx, WORD PTR ?DCInfo@@3Vclassdef@@A[eax+10]
  000c2	ba 04 00 00 00	 mov	 edx, 4
  000c7	c1 e2 00	 shl	 edx, 0
  000ca	89 4c 15 c0	 mov	 DWORD PTR _val$[ebp+edx], ecx

; 1999 : 		val[2] = DCInfo.DefClass[n].Vitality;

  000ce	69 45 ac 60 09
	00 00		 imul	 eax, DWORD PTR _n$2[ebp], 2400
  000d5	0f b7 88 0c 00
	00 00		 movzx	 ecx, WORD PTR ?DCInfo@@3Vclassdef@@A[eax+12]
  000dc	ba 04 00 00 00	 mov	 edx, 4
  000e1	d1 e2		 shl	 edx, 1
  000e3	89 4c 15 c0	 mov	 DWORD PTR _val$[ebp+edx], ecx

; 2000 : 		val[3] = DCInfo.DefClass[n].Energy;

  000e7	69 45 ac 60 09
	00 00		 imul	 eax, DWORD PTR _n$2[ebp], 2400
  000ee	0f b7 88 0e 00
	00 00		 movzx	 ecx, WORD PTR ?DCInfo@@3Vclassdef@@A[eax+14]
  000f5	ba 04 00 00 00	 mov	 edx, 4
  000fa	6b c2 03	 imul	 eax, edx, 3
  000fd	89 4c 05 c0	 mov	 DWORD PTR _val$[ebp+eax], ecx

; 2001 : 		val[4] = (int)(DCInfo.DefClass[n].Life);

  00101	69 45 ac 60 09
	00 00		 imul	 eax, DWORD PTR _n$2[ebp], 2400
  00108	f3 0f 2c 88 14
	00 00 00	 cvttss2si ecx, DWORD PTR ?DCInfo@@3Vclassdef@@A[eax+20]
  00110	ba 04 00 00 00	 mov	 edx, 4
  00115	c1 e2 02	 shl	 edx, 2
  00118	89 4c 15 c0	 mov	 DWORD PTR _val$[ebp+edx], ecx

; 2002 : 		val[5] = (int)(DCInfo.DefClass[n].Mana);

  0011c	69 45 ac 60 09
	00 00		 imul	 eax, DWORD PTR _n$2[ebp], 2400
  00123	f3 0f 2c 88 20
	00 00 00	 cvttss2si ecx, DWORD PTR ?DCInfo@@3Vclassdef@@A[eax+32]
  0012b	ba 04 00 00 00	 mov	 edx, 4
  00130	6b c2 05	 imul	 eax, edx, 5
  00133	89 4c 05 c0	 mov	 DWORD PTR _val$[ebp+eax], ecx

; 2003 : 		val[6] = (int)(DCInfo.DefClass[n].LevelLife*10);

  00137	69 45 ac 60 09
	00 00		 imul	 eax, DWORD PTR _n$2[ebp], 2400
  0013e	f3 0f 10 80 10
	00 00 00	 movss	 xmm0, DWORD PTR ?DCInfo@@3Vclassdef@@A[eax+16]
  00146	f3 0f 59 05 00
	00 00 00	 mulss	 xmm0, DWORD PTR __real@41200000
  0014e	f3 0f 2c c8	 cvttss2si ecx, xmm0
  00152	ba 04 00 00 00	 mov	 edx, 4
  00157	6b c2 06	 imul	 eax, edx, 6
  0015a	89 4c 05 c0	 mov	 DWORD PTR _val$[ebp+eax], ecx

; 2004 : 		val[7] = (int)(DCInfo.DefClass[n].LevelMana*10);

  0015e	69 45 ac 60 09
	00 00		 imul	 eax, DWORD PTR _n$2[ebp], 2400
  00165	f3 0f 10 80 1c
	00 00 00	 movss	 xmm0, DWORD PTR ?DCInfo@@3Vclassdef@@A[eax+28]
  0016d	f3 0f 59 05 00
	00 00 00	 mulss	 xmm0, DWORD PTR __real@41200000
  00175	f3 0f 2c c8	 cvttss2si ecx, xmm0
  00179	ba 04 00 00 00	 mov	 edx, 4
  0017e	6b c2 07	 imul	 eax, edx, 7
  00181	89 4c 05 c0	 mov	 DWORD PTR _val$[ebp+eax], ecx

; 2005 : 		val[8] = (int)(DCInfo.DefClass[n].VitalityToLife*10);

  00185	69 45 ac 60 09
	00 00		 imul	 eax, DWORD PTR _n$2[ebp], 2400
  0018c	f3 0f 10 80 28
	00 00 00	 movss	 xmm0, DWORD PTR ?DCInfo@@3Vclassdef@@A[eax+40]
  00194	f3 0f 59 05 00
	00 00 00	 mulss	 xmm0, DWORD PTR __real@41200000
  0019c	f3 0f 2c c8	 cvttss2si ecx, xmm0
  001a0	ba 04 00 00 00	 mov	 edx, 4
  001a5	c1 e2 03	 shl	 edx, 3
  001a8	89 4c 15 c0	 mov	 DWORD PTR _val$[ebp+edx], ecx

; 2006 : 		val[9] = (int)(DCInfo.DefClass[n].EnergyToMana*10);

  001ac	69 45 ac 60 09
	00 00		 imul	 eax, DWORD PTR _n$2[ebp], 2400
  001b3	f3 0f 10 80 2c
	00 00 00	 movss	 xmm0, DWORD PTR ?DCInfo@@3Vclassdef@@A[eax+44]
  001bb	f3 0f 59 05 00
	00 00 00	 mulss	 xmm0, DWORD PTR __real@41200000
  001c3	f3 0f 2c c8	 cvttss2si ecx, xmm0
  001c7	ba 04 00 00 00	 mov	 edx, 4
  001cc	6b c2 09	 imul	 eax, edx, 9
  001cf	89 4c 05 c0	 mov	 DWORD PTR _val$[ebp+eax], ecx

; 2007 : 
; 2008 : 		for( int i=0; i<10; i++)

  001d3	c7 45 a8 00 00
	00 00		 mov	 DWORD PTR _i$1[ebp], 0
  001da	eb 09		 jmp	 SHORT $LN7@GraphPaint
$LN5@GraphPaint:
  001dc	8b 45 a8	 mov	 eax, DWORD PTR _i$1[ebp]
  001df	83 c0 01	 add	 eax, 1
  001e2	89 45 a8	 mov	 DWORD PTR _i$1[ebp], eax
$LN7@GraphPaint:
  001e5	83 7d a8 0a	 cmp	 DWORD PTR _i$1[ebp], 10	; 0000000aH
  001e9	7d 45		 jge	 SHORT $LN6@GraphPaint

; 2009 : 		{
; 2010 : 			rect.left = 0+(i*45)+(n*10);

  001eb	6b 45 a8 2d	 imul	 eax, DWORD PTR _i$1[ebp], 45
  001ef	6b 4d ac 0a	 imul	 ecx, DWORD PTR _n$2[ebp], 10
  001f3	03 c1		 add	 eax, ecx
  001f5	89 45 e8	 mov	 DWORD PTR _rect$[ebp], eax

; 2011 : 			rect.right = 10+(i*45)+(n*10);

  001f8	6b 45 a8 2d	 imul	 eax, DWORD PTR _i$1[ebp], 45
  001fc	6b 4d ac 0a	 imul	 ecx, DWORD PTR _n$2[ebp], 10
  00200	8d 54 08 0a	 lea	 edx, DWORD PTR [eax+ecx+10]
  00204	89 55 f0	 mov	 DWORD PTR _rect$[ebp+8], edx

; 2012 : 			rect.top  = 0;

  00207	c7 45 ec 00 00
	00 00		 mov	 DWORD PTR _rect$[ebp+4], 0

; 2013 : 			rect.bottom = val[i];

  0020e	8b 45 a8	 mov	 eax, DWORD PTR _i$1[ebp]
  00211	8b 4c 85 c0	 mov	 ecx, DWORD PTR _val$[ebp+eax*4]
  00215	89 4d f4	 mov	 DWORD PTR _rect$[ebp+12], ecx

; 2014 : 			FillRect(hdc, &rect, (HBRUSH)colBrush[n]);

  00218	8b 45 ac	 mov	 eax, DWORD PTR _n$2[ebp]
  0021b	8b 4c 85 b0	 mov	 ecx, DWORD PTR _colBrush$[ebp+eax*4]
  0021f	51		 push	 ecx
  00220	8d 55 e8	 lea	 edx, DWORD PTR _rect$[ebp]
  00223	52		 push	 edx
  00224	8b 45 f8	 mov	 eax, DWORD PTR _hdc$[ebp]
  00227	50		 push	 eax
  00228	ff 15 00 00 00
	00		 call	 DWORD PTR __imp__FillRect@12

; 2015 : 		}

  0022e	eb ac		 jmp	 SHORT $LN5@GraphPaint
$LN6@GraphPaint:

; 2016 : 	}

  00230	e9 52 fe ff ff	 jmp	 $LN2@GraphPaint
$LN3@GraphPaint:

; 2017 : 	ReleaseDC(hWnd, hdc);

  00235	8b 45 f8	 mov	 eax, DWORD PTR _hdc$[ebp]
  00238	50		 push	 eax
  00239	8b 4d 08	 mov	 ecx, DWORD PTR _hWnd$[ebp]
  0023c	51		 push	 ecx
  0023d	ff 15 00 00 00
	00		 call	 DWORD PTR __imp__ReleaseDC@8

; 2018 : 
; 2019 : 	DeleteObject(colBrush[0]);

  00243	b8 04 00 00 00	 mov	 eax, 4
  00248	6b c8 00	 imul	 ecx, eax, 0
  0024b	8b 54 0d b0	 mov	 edx, DWORD PTR _colBrush$[ebp+ecx]
  0024f	52		 push	 edx
  00250	ff 15 00 00 00
	00		 call	 DWORD PTR __imp__DeleteObject@4

; 2020 : 	DeleteObject(colBrush[1]);

  00256	b8 04 00 00 00	 mov	 eax, 4
  0025b	c1 e0 00	 shl	 eax, 0
  0025e	8b 4c 05 b0	 mov	 ecx, DWORD PTR _colBrush$[ebp+eax]
  00262	51		 push	 ecx
  00263	ff 15 00 00 00
	00		 call	 DWORD PTR __imp__DeleteObject@4

; 2021 : 	DeleteObject(colBrush[2]);

  00269	b8 04 00 00 00	 mov	 eax, 4
  0026e	d1 e0		 shl	 eax, 1
  00270	8b 4c 05 b0	 mov	 ecx, DWORD PTR _colBrush$[ebp+eax]
  00274	51		 push	 ecx
  00275	ff 15 00 00 00
	00		 call	 DWORD PTR __imp__DeleteObject@4

; 2022 : 	DeleteObject(colBrush[3]);

  0027b	b8 04 00 00 00	 mov	 eax, 4
  00280	6b c8 03	 imul	 ecx, eax, 3
  00283	8b 54 0d b0	 mov	 edx, DWORD PTR _colBrush$[ebp+ecx]
  00287	52		 push	 edx
  00288	ff 15 00 00 00
	00		 call	 DWORD PTR __imp__DeleteObject@4

; 2023 : }

  0028e	5f		 pop	 edi
  0028f	5e		 pop	 esi
  00290	5b		 pop	 ebx
  00291	8b 4d fc	 mov	 ecx, DWORD PTR __$ArrayPad$[ebp]
  00294	33 cd		 xor	 ecx, ebp
  00296	e8 00 00 00 00	 call	 @__security_check_cookie@4
  0029b	8b e5		 mov	 esp, ebp
  0029d	5d		 pop	 ebp
  0029e	c3		 ret	 0
?GraphPaint@@YAXPAUHWND__@@@Z ENDP			; GraphPaint
_TEXT	ENDS
; Function compile flags: /Odtp /ZI
; File C:\Mu Online\Mu-GS-Webzen-MC-10093\GameServer\Gamemain.cpp
;	COMDAT ?SetMapName@@YAXXZ
_TEXT	SEGMENT
?SetMapName@@YAXXZ PROC					; SetMapName, COMDAT

; 5908 : {

  00000	55		 push	 ebp
  00001	8b ec		 mov	 ebp, esp
  00003	83 ec 40	 sub	 esp, 64			; 00000040H
  00006	53		 push	 ebx
  00007	56		 push	 esi
  00008	57		 push	 edi

; 5909 : 	/*strcpy(g_TerrainManager.GetMapName(MAP_INDEX_RORENCIA), lMsg.Get(2000));
; 5910 : 	strcpy(g_TerrainManager.GetMapName(MAP_INDEX_DUNGEON], lMsg.Get(2001));
; 5911 : 	strcpy(gMapName[MAP_INDEX_DEVIAS], lMsg.Get(2002));
; 5912 : 	strcpy(gMapName[MAP_INDEX_NORIA], lMsg.Get(2003));
; 5913 : 	strcpy(gMapName[MAP_INDEX_LOSTTOWER], lMsg.Get(2004));
; 5914 : 	strcpy(gMapName[MAP_INDEX_RESERVED], "Reserved");
; 5915 : 	strcpy(gMapName[MAP_INDEX_BATTLESOCCER], lMsg.Get(2006));
; 5916 : 	strcpy(gMapName[MAP_INDEX_ATHLANSE], lMsg.Get(2005));
; 5917 : 	strcpy(gMapName[MAP_INDEX_TARKAN], lMsg.Get(2008));
; 5918 : 	strcpy(gMapName[MAP_INDEX_DEVILSQUARE], lMsg.Get(2009));
; 5919 : 	strcpy(gMapName[MAP_INDEX_ICARUS], lMsg.Get(2013));
; 5920 : 	strcpy(gMapName[MAP_INDEX_BLOODCASTLE1], lMsg.Get(2014));
; 5921 : 	strcat(gMapName[MAP_INDEX_BLOODCASTLE1], "1");
; 5922 : 	strcpy(gMapName[MAP_INDEX_BLOODCASTLE2], lMsg.Get(2014));
; 5923 : 	strcat(gMapName[MAP_INDEX_BLOODCASTLE2], "2");
; 5924 : 	strcpy(gMapName[MAP_INDEX_BLOODCASTLE3], lMsg.Get(2014));
; 5925 : 	strcat(gMapName[MAP_INDEX_BLOODCASTLE3], "3");
; 5926 : 	strcpy(gMapName[MAP_INDEX_BLOODCASTLE4], lMsg.Get(2014));
; 5927 : 	strcat(gMapName[MAP_INDEX_BLOODCASTLE4], "4");
; 5928 : 	strcpy(gMapName[MAP_INDEX_BLOODCASTLE5], lMsg.Get(2014));
; 5929 : 	strcat(gMapName[MAP_INDEX_BLOODCASTLE5], "5");
; 5930 : 	strcpy(gMapName[MAP_INDEX_BLOODCASTLE6], lMsg.Get(2014));
; 5931 : 	strcat(gMapName[MAP_INDEX_BLOODCASTLE6], "6");*/
; 5932 : #ifdef DEVILSQUARE_EXTEND_20050221		//   ? !!!  ()
; 5933 : #endif
; 5934 : }

  00009	5f		 pop	 edi
  0000a	5e		 pop	 esi
  0000b	5b		 pop	 ebx
  0000c	8b e5		 mov	 esp, ebp
  0000e	5d		 pop	 ebp
  0000f	c3		 ret	 0
?SetMapName@@YAXXZ ENDP					; SetMapName
_TEXT	ENDS
; Function compile flags: /Odtp /ZI
; File C:\Mu Online\Mu-GS-Webzen-MC-10093\GameServer\Gamemain.cpp
;	COMDAT ?LoadItemBag@@YAXXZ
_TEXT	SEGMENT
tv611 = -284						; size = 4
tv567 = -284						; size = 4
tv552 = -284						; size = 4
tv540 = -284						; size = 4
tv525 = -284						; size = 4
tv513 = -284						; size = 4
tv498 = -284						; size = 4
tv486 = -284						; size = 4
tv471 = -284						; size = 4
tv459 = -284						; size = 4
tv444 = -284						; size = 4
tv432 = -284						; size = 4
tv417 = -284						; size = 4
tv373 = -284						; size = 4
tv358 = -284						; size = 4
tv346 = -284						; size = 4
tv331 = -284						; size = 4
tv319 = -284						; size = 4
tv304 = -284						; size = 4
tv292 = -284						; size = 4
tv277 = -284						; size = 4
tv265 = -284						; size = 4
tv250 = -284						; size = 4
tv238 = -284						; size = 4
tv223 = -284						; size = 4
tv211 = -284						; size = 4
tv196 = -284						; size = 4
tv184 = -284						; size = 4
tv169 = -284						; size = 4
tv157 = -284						; size = 4
tv142 = -284						; size = 4
tv130 = -284						; size = 4
tv83 = -284						; size = 4
tv71 = -284						; size = 4
$T2 = -280						; size = 4
$T3 = -276						; size = 4
$T4 = -272						; size = 4
$T5 = -268						; size = 4
$T6 = -264						; size = 4
$T7 = -260						; size = 4
$T8 = -256						; size = 4
$T9 = -252						; size = 4
$T10 = -248						; size = 4
$T11 = -244						; size = 4
$T12 = -240						; size = 4
$T13 = -236						; size = 4
$T14 = -232						; size = 4
$T15 = -228						; size = 4
$T16 = -224						; size = 4
$T17 = -220						; size = 4
$T18 = -216						; size = 4
$T19 = -212						; size = 4
$T20 = -208						; size = 4
$T21 = -204						; size = 4
$T22 = -200						; size = 4
$T23 = -196						; size = 4
$T24 = -192						; size = 4
$T25 = -188						; size = 4
$T26 = -184						; size = 4
$T27 = -180						; size = 4
$T28 = -176						; size = 4
$T29 = -172						; size = 4
$T30 = -168						; size = 4
$T31 = -164						; size = 4
$T32 = -160						; size = 4
$T33 = -156						; size = 4
$T34 = -152						; size = 4
$T35 = -148						; size = 4
$T36 = -144						; size = 4
$T37 = -140						; size = 4
$T38 = -136						; size = 4
$T39 = -132						; size = 4
$T40 = -128						; size = 4
$T41 = -124						; size = 4
$T42 = -120						; size = 4
$T43 = -116						; size = 4
$T44 = -112						; size = 4
$T45 = -108						; size = 4
$T46 = -104						; size = 4
$T47 = -100						; size = 4
$T48 = -96						; size = 4
$T49 = -92						; size = 4
$T50 = -88						; size = 4
$T51 = -84						; size = 4
$T52 = -80						; size = 4
__$EHRec$ = -12						; size = 12
?LoadItemBag@@YAXXZ PROC				; LoadItemBag, COMDAT

; 4846 : {

  00000	55		 push	 ebp
  00001	8b ec		 mov	 ebp, esp
  00003	6a ff		 push	 -1
  00005	68 00 00 00 00	 push	 __ehhandler$?LoadItemBag@@YAXXZ
  0000a	64 a1 00 00 00
	00		 mov	 eax, DWORD PTR fs:0
  00010	50		 push	 eax
  00011	81 ec 10 01 00
	00		 sub	 esp, 272		; 00000110H
  00017	53		 push	 ebx
  00018	56		 push	 esi
  00019	57		 push	 edi
  0001a	a1 00 00 00 00	 mov	 eax, DWORD PTR ___security_cookie
  0001f	33 c5		 xor	 eax, ebp
  00021	50		 push	 eax
  00022	8d 45 f4	 lea	 eax, DWORD PTR __$EHRec$[ebp]
  00025	64 a3 00 00 00
	00		 mov	 DWORD PTR fs:0, eax

; 4847 : 	if( LuckboxItemBag ){delete LuckboxItemBag;}

  0002b	83 3d 00 00 00
	00 00		 cmp	 DWORD PTR ?LuckboxItemBag@@3PAVCItemBag@@A, 0 ; LuckboxItemBag
  00032	74 2e		 je	 SHORT $LN2@LoadItemBa
  00034	a1 00 00 00 00	 mov	 eax, DWORD PTR ?LuckboxItemBag@@3PAVCItemBag@@A ; LuckboxItemBag
  00039	89 45 b0	 mov	 DWORD PTR $T52[ebp], eax
  0003c	83 7d b0 00	 cmp	 DWORD PTR $T52[ebp], 0
  00040	74 16		 je	 SHORT $LN37@LoadItemBa
  00042	6a 01		 push	 1
  00044	8b 4d b0	 mov	 ecx, DWORD PTR $T52[ebp]
  00047	8b 11		 mov	 edx, DWORD PTR [ecx]
  00049	8b 4d b0	 mov	 ecx, DWORD PTR $T52[ebp]
  0004c	8b 02		 mov	 eax, DWORD PTR [edx]
  0004e	ff d0		 call	 eax
  00050	89 85 e4 fe ff
	ff		 mov	 DWORD PTR tv71[ebp], eax
  00056	eb 0a		 jmp	 SHORT $LN2@LoadItemBa
$LN37@LoadItemBa:
  00058	c7 85 e4 fe ff
	ff 00 00 00 00	 mov	 DWORD PTR tv71[ebp], 0
$LN2@LoadItemBa:

; 4848 : 
; 4849 : 	LuckboxItemBag = new CItemBag;

  00062	68 94 03 00 00	 push	 916			; 00000394H
  00067	e8 00 00 00 00	 call	 ??2@YAPAXI@Z		; operator new
  0006c	83 c4 04	 add	 esp, 4
  0006f	89 45 a8	 mov	 DWORD PTR $T50[ebp], eax
  00072	c7 45 fc 00 00
	00 00		 mov	 DWORD PTR __$EHRec$[ebp+8], 0
  00079	83 7d a8 00	 cmp	 DWORD PTR $T50[ebp], 0
  0007d	74 10		 je	 SHORT $LN39@LoadItemBa
  0007f	8b 4d a8	 mov	 ecx, DWORD PTR $T50[ebp]
  00082	e8 00 00 00 00	 call	 ??0CItemBag@@QAE@XZ	; CItemBag::CItemBag
  00087	89 85 e4 fe ff
	ff		 mov	 DWORD PTR tv83[ebp], eax
  0008d	eb 0a		 jmp	 SHORT $LN40@LoadItemBa
$LN39@LoadItemBa:
  0008f	c7 85 e4 fe ff
	ff 00 00 00 00	 mov	 DWORD PTR tv83[ebp], 0
$LN40@LoadItemBa:
  00099	8b 85 e4 fe ff
	ff		 mov	 eax, DWORD PTR tv83[ebp]
  0009f	89 45 ac	 mov	 DWORD PTR $T51[ebp], eax
  000a2	c7 45 fc ff ff
	ff ff		 mov	 DWORD PTR __$EHRec$[ebp+8], -1
  000a9	8b 4d ac	 mov	 ecx, DWORD PTR $T51[ebp]
  000ac	89 0d 00 00 00
	00		 mov	 DWORD PTR ?LuckboxItemBag@@3PAVCItemBag@@A, ecx ; LuckboxItemBag

; 4850 : 	if( LuckboxItemBag == NULL )

  000b2	83 3d 00 00 00
	00 00		 cmp	 DWORD PTR ?LuckboxItemBag@@3PAVCItemBag@@A, 0 ; LuckboxItemBag
  000b9	75 20		 jne	 SHORT $LN3@LoadItemBa

; 4851 : 	{
; 4852 : 		MsgBox("CItemBag %s", lMsg.Get(110));

  000bb	6a 6e		 push	 110			; 0000006eH
  000bd	b9 00 00 00 00	 mov	 ecx, OFFSET ?lMsg@@3VCMsg@@A ; lMsg
  000c2	ff 15 00 00 00
	00		 call	 DWORD PTR __imp_?Get@CMsg@@QAEPADH@Z
  000c8	50		 push	 eax
  000c9	68 00 00 00 00	 push	 OFFSET ??_C@_0M@GNOCDNGL@CItemBag?5?$CFs@
  000ce	e8 00 00 00 00	 call	 ?MsgBox@@YAXPADZZ	; MsgBox
  000d3	83 c4 08	 add	 esp, 8

; 4853 : 		return;

  000d6	e9 60 0d 00 00	 jmp	 $LN1@LoadItemBa
$LN3@LoadItemBa:

; 4854 : 	}
; 4855 : 
; 4856 : #ifdef SCRIPT_DECODE_WORK
; 4857 : 	LuckboxItemBag->Init("eventitembag.cwz");
; 4858 : #else
; 4859 : 	LuckboxItemBag->Init("eventitembag.txt");

  000db	68 00 00 00 00	 push	 OFFSET ??_C@_0BB@DBBPHKAA@eventitembag?4txt@
  000e0	8b 0d 00 00 00
	00		 mov	 ecx, DWORD PTR ?LuckboxItemBag@@3PAVCItemBag@@A ; LuckboxItemBag
  000e6	e8 00 00 00 00	 call	 ?Init@CItemBag@@QAEXPAD@Z ; CItemBag::Init

; 4860 : #endif
; 4861 : 
; 4862 : 	if( Mon55 ){delete Mon55;}

  000eb	83 3d 00 00 00
	00 00		 cmp	 DWORD PTR ?Mon55@@3PAVCItemBag@@A, 0 ; Mon55
  000f2	74 2e		 je	 SHORT $LN4@LoadItemBa
  000f4	a1 00 00 00 00	 mov	 eax, DWORD PTR ?Mon55@@3PAVCItemBag@@A ; Mon55
  000f9	89 45 a4	 mov	 DWORD PTR $T49[ebp], eax
  000fc	83 7d a4 00	 cmp	 DWORD PTR $T49[ebp], 0
  00100	74 16		 je	 SHORT $LN41@LoadItemBa
  00102	6a 01		 push	 1
  00104	8b 4d a4	 mov	 ecx, DWORD PTR $T49[ebp]
  00107	8b 11		 mov	 edx, DWORD PTR [ecx]
  00109	8b 4d a4	 mov	 ecx, DWORD PTR $T49[ebp]
  0010c	8b 02		 mov	 eax, DWORD PTR [edx]
  0010e	ff d0		 call	 eax
  00110	89 85 e4 fe ff
	ff		 mov	 DWORD PTR tv130[ebp], eax
  00116	eb 0a		 jmp	 SHORT $LN4@LoadItemBa
$LN41@LoadItemBa:
  00118	c7 85 e4 fe ff
	ff 00 00 00 00	 mov	 DWORD PTR tv130[ebp], 0
$LN4@LoadItemBa:

; 4863 : 	Mon55			= new CItemBag;

  00122	68 94 03 00 00	 push	 916			; 00000394H
  00127	e8 00 00 00 00	 call	 ??2@YAPAXI@Z		; operator new
  0012c	83 c4 04	 add	 esp, 4
  0012f	89 45 9c	 mov	 DWORD PTR $T47[ebp], eax
  00132	c7 45 fc 01 00
	00 00		 mov	 DWORD PTR __$EHRec$[ebp+8], 1
  00139	83 7d 9c 00	 cmp	 DWORD PTR $T47[ebp], 0
  0013d	74 10		 je	 SHORT $LN43@LoadItemBa
  0013f	8b 4d 9c	 mov	 ecx, DWORD PTR $T47[ebp]
  00142	e8 00 00 00 00	 call	 ??0CItemBag@@QAE@XZ	; CItemBag::CItemBag
  00147	89 85 e4 fe ff
	ff		 mov	 DWORD PTR tv142[ebp], eax
  0014d	eb 0a		 jmp	 SHORT $LN44@LoadItemBa
$LN43@LoadItemBa:
  0014f	c7 85 e4 fe ff
	ff 00 00 00 00	 mov	 DWORD PTR tv142[ebp], 0
$LN44@LoadItemBa:
  00159	8b 85 e4 fe ff
	ff		 mov	 eax, DWORD PTR tv142[ebp]
  0015f	89 45 a0	 mov	 DWORD PTR $T48[ebp], eax
  00162	c7 45 fc ff ff
	ff ff		 mov	 DWORD PTR __$EHRec$[ebp+8], -1
  00169	8b 4d a0	 mov	 ecx, DWORD PTR $T48[ebp]
  0016c	89 0d 00 00 00
	00		 mov	 DWORD PTR ?Mon55@@3PAVCItemBag@@A, ecx ; Mon55

; 4864 : 	if( Mon55 == NULL )

  00172	83 3d 00 00 00
	00 00		 cmp	 DWORD PTR ?Mon55@@3PAVCItemBag@@A, 0 ; Mon55
  00179	75 20		 jne	 SHORT $LN5@LoadItemBa

; 4865 : 	{
; 4866 : 		MsgBox("CItemBag %s", lMsg.Get(110));

  0017b	6a 6e		 push	 110			; 0000006eH
  0017d	b9 00 00 00 00	 mov	 ecx, OFFSET ?lMsg@@3VCMsg@@A ; lMsg
  00182	ff 15 00 00 00
	00		 call	 DWORD PTR __imp_?Get@CMsg@@QAEPADH@Z
  00188	50		 push	 eax
  00189	68 00 00 00 00	 push	 OFFSET ??_C@_0M@GNOCDNGL@CItemBag?5?$CFs@
  0018e	e8 00 00 00 00	 call	 ?MsgBox@@YAXPADZZ	; MsgBox
  00193	83 c4 08	 add	 esp, 8

; 4867 : 		return;

  00196	e9 a0 0c 00 00	 jmp	 $LN1@LoadItemBa
$LN5@LoadItemBa:

; 4868 : 	}
; 4869 : 
; 4870 : #ifdef SCRIPT_DECODE_WORK
; 4871 : 	Mon55->Init("eventitembag2.cwz");
; 4872 : #else
; 4873 : 	Mon55->Init("eventitembag2.txt");

  0019b	68 00 00 00 00	 push	 OFFSET ??_C@_0BC@OBJPANO@eventitembag2?4txt@
  001a0	8b 0d 00 00 00
	00		 mov	 ecx, DWORD PTR ?Mon55@@3PAVCItemBag@@A ; Mon55
  001a6	e8 00 00 00 00	 call	 ?Init@CItemBag@@QAEXPAD@Z ; CItemBag::Init

; 4874 : #endif
; 4875 : 
; 4876 : 	if( Mon53 ){delete Mon53;}

  001ab	83 3d 00 00 00
	00 00		 cmp	 DWORD PTR ?Mon53@@3PAVCItemBag@@A, 0 ; Mon53
  001b2	74 2e		 je	 SHORT $LN6@LoadItemBa
  001b4	a1 00 00 00 00	 mov	 eax, DWORD PTR ?Mon53@@3PAVCItemBag@@A ; Mon53
  001b9	89 45 98	 mov	 DWORD PTR $T46[ebp], eax
  001bc	83 7d 98 00	 cmp	 DWORD PTR $T46[ebp], 0
  001c0	74 16		 je	 SHORT $LN45@LoadItemBa
  001c2	6a 01		 push	 1
  001c4	8b 4d 98	 mov	 ecx, DWORD PTR $T46[ebp]
  001c7	8b 11		 mov	 edx, DWORD PTR [ecx]
  001c9	8b 4d 98	 mov	 ecx, DWORD PTR $T46[ebp]
  001cc	8b 02		 mov	 eax, DWORD PTR [edx]
  001ce	ff d0		 call	 eax
  001d0	89 85 e4 fe ff
	ff		 mov	 DWORD PTR tv157[ebp], eax
  001d6	eb 0a		 jmp	 SHORT $LN6@LoadItemBa
$LN45@LoadItemBa:
  001d8	c7 85 e4 fe ff
	ff 00 00 00 00	 mov	 DWORD PTR tv157[ebp], 0
$LN6@LoadItemBa:

; 4877 : 	Mon53			= new CItemBag;

  001e2	68 94 03 00 00	 push	 916			; 00000394H
  001e7	e8 00 00 00 00	 call	 ??2@YAPAXI@Z		; operator new
  001ec	83 c4 04	 add	 esp, 4
  001ef	89 45 90	 mov	 DWORD PTR $T44[ebp], eax
  001f2	c7 45 fc 02 00
	00 00		 mov	 DWORD PTR __$EHRec$[ebp+8], 2
  001f9	83 7d 90 00	 cmp	 DWORD PTR $T44[ebp], 0
  001fd	74 10		 je	 SHORT $LN47@LoadItemBa
  001ff	8b 4d 90	 mov	 ecx, DWORD PTR $T44[ebp]
  00202	e8 00 00 00 00	 call	 ??0CItemBag@@QAE@XZ	; CItemBag::CItemBag
  00207	89 85 e4 fe ff
	ff		 mov	 DWORD PTR tv169[ebp], eax
  0020d	eb 0a		 jmp	 SHORT $LN48@LoadItemBa
$LN47@LoadItemBa:
  0020f	c7 85 e4 fe ff
	ff 00 00 00 00	 mov	 DWORD PTR tv169[ebp], 0
$LN48@LoadItemBa:
  00219	8b 85 e4 fe ff
	ff		 mov	 eax, DWORD PTR tv169[ebp]
  0021f	89 45 94	 mov	 DWORD PTR $T45[ebp], eax
  00222	c7 45 fc ff ff
	ff ff		 mov	 DWORD PTR __$EHRec$[ebp+8], -1
  00229	8b 4d 94	 mov	 ecx, DWORD PTR $T45[ebp]
  0022c	89 0d 00 00 00
	00		 mov	 DWORD PTR ?Mon53@@3PAVCItemBag@@A, ecx ; Mon53

; 4878 : 	if( Mon53 == NULL )

  00232	83 3d 00 00 00
	00 00		 cmp	 DWORD PTR ?Mon53@@3PAVCItemBag@@A, 0 ; Mon53
  00239	75 20		 jne	 SHORT $LN7@LoadItemBa

; 4879 : 	{
; 4880 : 		MsgBox("CItemBag %s", lMsg.Get(110));

  0023b	6a 6e		 push	 110			; 0000006eH
  0023d	b9 00 00 00 00	 mov	 ecx, OFFSET ?lMsg@@3VCMsg@@A ; lMsg
  00242	ff 15 00 00 00
	00		 call	 DWORD PTR __imp_?Get@CMsg@@QAEPADH@Z
  00248	50		 push	 eax
  00249	68 00 00 00 00	 push	 OFFSET ??_C@_0M@GNOCDNGL@CItemBag?5?$CFs@
  0024e	e8 00 00 00 00	 call	 ?MsgBox@@YAXPADZZ	; MsgBox
  00253	83 c4 08	 add	 esp, 8

; 4881 : 		return;

  00256	e9 e0 0b 00 00	 jmp	 $LN1@LoadItemBa
$LN7@LoadItemBa:

; 4882 : 	}
; 4883 : 
; 4884 : #ifdef SCRIPT_DECODE_WORK
; 4885 : 	Mon53->Init("eventitembag3.cwz");
; 4886 : #else
; 4887 : 	Mon53->Init("eventitembag3.txt");

  0025b	68 00 00 00 00	 push	 OFFSET ??_C@_0BC@MFEFCDHL@eventitembag3?4txt@
  00260	8b 0d 00 00 00
	00		 mov	 ecx, DWORD PTR ?Mon53@@3PAVCItemBag@@A ; Mon53
  00266	e8 00 00 00 00	 call	 ?Init@CItemBag@@QAEXPAD@Z ; CItemBag::Init

; 4888 : #endif
; 4889 : 
; 4890 : 	//     
; 4891 : 	if( StarOfXMasItemBag ){delete StarOfXMasItemBag;}

  0026b	83 3d 00 00 00
	00 00		 cmp	 DWORD PTR ?StarOfXMasItemBag@@3PAVCItemBagEx@@A, 0 ; StarOfXMasItemBag
  00272	74 2e		 je	 SHORT $LN8@LoadItemBa
  00274	a1 00 00 00 00	 mov	 eax, DWORD PTR ?StarOfXMasItemBag@@3PAVCItemBagEx@@A ; StarOfXMasItemBag
  00279	89 45 8c	 mov	 DWORD PTR $T43[ebp], eax
  0027c	83 7d 8c 00	 cmp	 DWORD PTR $T43[ebp], 0
  00280	74 16		 je	 SHORT $LN49@LoadItemBa
  00282	6a 01		 push	 1
  00284	8b 4d 8c	 mov	 ecx, DWORD PTR $T43[ebp]
  00287	8b 11		 mov	 edx, DWORD PTR [ecx]
  00289	8b 4d 8c	 mov	 ecx, DWORD PTR $T43[ebp]
  0028c	8b 02		 mov	 eax, DWORD PTR [edx]
  0028e	ff d0		 call	 eax
  00290	89 85 e4 fe ff
	ff		 mov	 DWORD PTR tv184[ebp], eax
  00296	eb 0a		 jmp	 SHORT $LN8@LoadItemBa
$LN49@LoadItemBa:
  00298	c7 85 e4 fe ff
	ff 00 00 00 00	 mov	 DWORD PTR tv184[ebp], 0
$LN8@LoadItemBa:

; 4892 : 
; 4893 : #ifdef EVENT_ITEMBAG_UPGRADE
; 4894 : 	StarOfXMasItemBag = new CItemBagEx;

  002a2	68 d8 05 00 00	 push	 1496			; 000005d8H
  002a7	e8 00 00 00 00	 call	 ??2@YAPAXI@Z		; operator new
  002ac	83 c4 04	 add	 esp, 4
  002af	89 45 84	 mov	 DWORD PTR $T41[ebp], eax
  002b2	c7 45 fc 03 00
	00 00		 mov	 DWORD PTR __$EHRec$[ebp+8], 3
  002b9	83 7d 84 00	 cmp	 DWORD PTR $T41[ebp], 0
  002bd	74 10		 je	 SHORT $LN51@LoadItemBa
  002bf	8b 4d 84	 mov	 ecx, DWORD PTR $T41[ebp]
  002c2	e8 00 00 00 00	 call	 ??0CItemBagEx@@QAE@XZ	; CItemBagEx::CItemBagEx
  002c7	89 85 e4 fe ff
	ff		 mov	 DWORD PTR tv196[ebp], eax
  002cd	eb 0a		 jmp	 SHORT $LN52@LoadItemBa
$LN51@LoadItemBa:
  002cf	c7 85 e4 fe ff
	ff 00 00 00 00	 mov	 DWORD PTR tv196[ebp], 0
$LN52@LoadItemBa:
  002d9	8b 85 e4 fe ff
	ff		 mov	 eax, DWORD PTR tv196[ebp]
  002df	89 45 88	 mov	 DWORD PTR $T42[ebp], eax
  002e2	c7 45 fc ff ff
	ff ff		 mov	 DWORD PTR __$EHRec$[ebp+8], -1
  002e9	8b 4d 88	 mov	 ecx, DWORD PTR $T42[ebp]
  002ec	89 0d 00 00 00
	00		 mov	 DWORD PTR ?StarOfXMasItemBag@@3PAVCItemBagEx@@A, ecx ; StarOfXMasItemBag

; 4895 : #else
; 4896 : 	StarOfXMasItemBag = new CItemBag;
; 4897 : #endif
; 4898 : 	
; 4899 : 	if( StarOfXMasItemBag == NULL )

  002f2	83 3d 00 00 00
	00 00		 cmp	 DWORD PTR ?StarOfXMasItemBag@@3PAVCItemBagEx@@A, 0 ; StarOfXMasItemBag
  002f9	75 20		 jne	 SHORT $LN9@LoadItemBa

; 4900 : 	{
; 4901 : 		MsgBox("CItemBag %s", lMsg.Get(110));

  002fb	6a 6e		 push	 110			; 0000006eH
  002fd	b9 00 00 00 00	 mov	 ecx, OFFSET ?lMsg@@3VCMsg@@A ; lMsg
  00302	ff 15 00 00 00
	00		 call	 DWORD PTR __imp_?Get@CMsg@@QAEPADH@Z
  00308	50		 push	 eax
  00309	68 00 00 00 00	 push	 OFFSET ??_C@_0M@GNOCDNGL@CItemBag?5?$CFs@
  0030e	e8 00 00 00 00	 call	 ?MsgBox@@YAXPADZZ	; MsgBox
  00313	83 c4 08	 add	 esp, 8

; 4902 : 		return;

  00316	e9 20 0b 00 00	 jmp	 $LN1@LoadItemBa
$LN9@LoadItemBa:

; 4903 : 	}
; 4904 : 
; 4905 : #ifdef SCRIPT_DECODE_WORK
; 4906 : 	StarOfXMasItemBag->Init("eventitembag4.cwz");
; 4907 : #else
; 4908 : 	StarOfXMasItemBag->Init("eventitembag4.txt");

  0031b	68 00 00 00 00	 push	 OFFSET ??_C@_0BC@NIEABDMD@eventitembag4?4txt@
  00320	8b 0d 00 00 00
	00		 mov	 ecx, DWORD PTR ?StarOfXMasItemBag@@3PAVCItemBagEx@@A ; StarOfXMasItemBag
  00326	e8 00 00 00 00	 call	 ?Init@CItemBagEx@@QAEXPAD@Z ; CItemBagEx::Init

; 4909 : #endif
; 4910 : 
; 4911 : 	//    
; 4912 : 	if( FireCrackerItemBag ){delete FireCrackerItemBag;}

  0032b	83 3d 00 00 00
	00 00		 cmp	 DWORD PTR ?FireCrackerItemBag@@3PAVCItemBag@@A, 0 ; FireCrackerItemBag
  00332	74 2e		 je	 SHORT $LN10@LoadItemBa
  00334	a1 00 00 00 00	 mov	 eax, DWORD PTR ?FireCrackerItemBag@@3PAVCItemBag@@A ; FireCrackerItemBag
  00339	89 45 80	 mov	 DWORD PTR $T40[ebp], eax
  0033c	83 7d 80 00	 cmp	 DWORD PTR $T40[ebp], 0
  00340	74 16		 je	 SHORT $LN53@LoadItemBa
  00342	6a 01		 push	 1
  00344	8b 4d 80	 mov	 ecx, DWORD PTR $T40[ebp]
  00347	8b 11		 mov	 edx, DWORD PTR [ecx]
  00349	8b 4d 80	 mov	 ecx, DWORD PTR $T40[ebp]
  0034c	8b 02		 mov	 eax, DWORD PTR [edx]
  0034e	ff d0		 call	 eax
  00350	89 85 e4 fe ff
	ff		 mov	 DWORD PTR tv211[ebp], eax
  00356	eb 0a		 jmp	 SHORT $LN10@LoadItemBa
$LN53@LoadItemBa:
  00358	c7 85 e4 fe ff
	ff 00 00 00 00	 mov	 DWORD PTR tv211[ebp], 0
$LN10@LoadItemBa:

; 4913 : 	FireCrackerItemBag = new CItemBag;

  00362	68 94 03 00 00	 push	 916			; 00000394H
  00367	e8 00 00 00 00	 call	 ??2@YAPAXI@Z		; operator new
  0036c	83 c4 04	 add	 esp, 4
  0036f	89 85 78 ff ff
	ff		 mov	 DWORD PTR $T38[ebp], eax
  00375	c7 45 fc 04 00
	00 00		 mov	 DWORD PTR __$EHRec$[ebp+8], 4
  0037c	83 bd 78 ff ff
	ff 00		 cmp	 DWORD PTR $T38[ebp], 0
  00383	74 13		 je	 SHORT $LN55@LoadItemBa
  00385	8b 8d 78 ff ff
	ff		 mov	 ecx, DWORD PTR $T38[ebp]
  0038b	e8 00 00 00 00	 call	 ??0CItemBag@@QAE@XZ	; CItemBag::CItemBag
  00390	89 85 e4 fe ff
	ff		 mov	 DWORD PTR tv223[ebp], eax
  00396	eb 0a		 jmp	 SHORT $LN56@LoadItemBa
$LN55@LoadItemBa:
  00398	c7 85 e4 fe ff
	ff 00 00 00 00	 mov	 DWORD PTR tv223[ebp], 0
$LN56@LoadItemBa:
  003a2	8b 85 e4 fe ff
	ff		 mov	 eax, DWORD PTR tv223[ebp]
  003a8	89 85 7c ff ff
	ff		 mov	 DWORD PTR $T39[ebp], eax
  003ae	c7 45 fc ff ff
	ff ff		 mov	 DWORD PTR __$EHRec$[ebp+8], -1
  003b5	8b 8d 7c ff ff
	ff		 mov	 ecx, DWORD PTR $T39[ebp]
  003bb	89 0d 00 00 00
	00		 mov	 DWORD PTR ?FireCrackerItemBag@@3PAVCItemBag@@A, ecx ; FireCrackerItemBag

; 4914 : 	if( FireCrackerItemBag == NULL )

  003c1	83 3d 00 00 00
	00 00		 cmp	 DWORD PTR ?FireCrackerItemBag@@3PAVCItemBag@@A, 0 ; FireCrackerItemBag
  003c8	75 20		 jne	 SHORT $LN11@LoadItemBa

; 4915 : 	{
; 4916 : 		MsgBox("CItemBag %s", lMsg.Get(110));

  003ca	6a 6e		 push	 110			; 0000006eH
  003cc	b9 00 00 00 00	 mov	 ecx, OFFSET ?lMsg@@3VCMsg@@A ; lMsg
  003d1	ff 15 00 00 00
	00		 call	 DWORD PTR __imp_?Get@CMsg@@QAEPADH@Z
  003d7	50		 push	 eax
  003d8	68 00 00 00 00	 push	 OFFSET ??_C@_0M@GNOCDNGL@CItemBag?5?$CFs@
  003dd	e8 00 00 00 00	 call	 ?MsgBox@@YAXPADZZ	; MsgBox
  003e2	83 c4 08	 add	 esp, 8

; 4917 : 		return;

  003e5	e9 51 0a 00 00	 jmp	 $LN1@LoadItemBa
$LN11@LoadItemBa:

; 4918 : 	}
; 4919 : 
; 4920 : #ifdef SCRIPT_DECODE_WORK
; 4921 : 	FireCrackerItemBag->Init("eventitembag5.cwz");
; 4922 : #else
; 4923 : 	FireCrackerItemBag->Init("eventitembag5.txt");

  003ea	68 00 00 00 00	 push	 OFFSET ??_C@_0BC@BDBMMAGG@eventitembag5?4txt@
  003ef	8b 0d 00 00 00
	00		 mov	 ecx, DWORD PTR ?FireCrackerItemBag@@3PAVCItemBag@@A ; FireCrackerItemBag
  003f5	e8 00 00 00 00	 call	 ?Init@CItemBag@@QAEXPAD@Z ; CItemBag::Init

; 4924 : #endif
; 4925 : 
; 4926 : 	//    
; 4927 : 	if( HeartOfLoveItemBag ){delete HeartOfLoveItemBag;}

  003fa	83 3d 00 00 00
	00 00		 cmp	 DWORD PTR ?HeartOfLoveItemBag@@3PAVCItemBag@@A, 0 ; HeartOfLoveItemBag
  00401	74 3a		 je	 SHORT $LN12@LoadItemBa
  00403	a1 00 00 00 00	 mov	 eax, DWORD PTR ?HeartOfLoveItemBag@@3PAVCItemBag@@A ; HeartOfLoveItemBag
  00408	89 85 74 ff ff
	ff		 mov	 DWORD PTR $T37[ebp], eax
  0040e	83 bd 74 ff ff
	ff 00		 cmp	 DWORD PTR $T37[ebp], 0
  00415	74 1c		 je	 SHORT $LN57@LoadItemBa
  00417	6a 01		 push	 1
  00419	8b 8d 74 ff ff
	ff		 mov	 ecx, DWORD PTR $T37[ebp]
  0041f	8b 11		 mov	 edx, DWORD PTR [ecx]
  00421	8b 8d 74 ff ff
	ff		 mov	 ecx, DWORD PTR $T37[ebp]
  00427	8b 02		 mov	 eax, DWORD PTR [edx]
  00429	ff d0		 call	 eax
  0042b	89 85 e4 fe ff
	ff		 mov	 DWORD PTR tv238[ebp], eax
  00431	eb 0a		 jmp	 SHORT $LN12@LoadItemBa
$LN57@LoadItemBa:
  00433	c7 85 e4 fe ff
	ff 00 00 00 00	 mov	 DWORD PTR tv238[ebp], 0
$LN12@LoadItemBa:

; 4928 : 	HeartOfLoveItemBag = new CItemBag;

  0043d	68 94 03 00 00	 push	 916			; 00000394H
  00442	e8 00 00 00 00	 call	 ??2@YAPAXI@Z		; operator new
  00447	83 c4 04	 add	 esp, 4
  0044a	89 85 6c ff ff
	ff		 mov	 DWORD PTR $T35[ebp], eax
  00450	c7 45 fc 05 00
	00 00		 mov	 DWORD PTR __$EHRec$[ebp+8], 5
  00457	83 bd 6c ff ff
	ff 00		 cmp	 DWORD PTR $T35[ebp], 0
  0045e	74 13		 je	 SHORT $LN59@LoadItemBa
  00460	8b 8d 6c ff ff
	ff		 mov	 ecx, DWORD PTR $T35[ebp]
  00466	e8 00 00 00 00	 call	 ??0CItemBag@@QAE@XZ	; CItemBag::CItemBag
  0046b	89 85 e4 fe ff
	ff		 mov	 DWORD PTR tv250[ebp], eax
  00471	eb 0a		 jmp	 SHORT $LN60@LoadItemBa
$LN59@LoadItemBa:
  00473	c7 85 e4 fe ff
	ff 00 00 00 00	 mov	 DWORD PTR tv250[ebp], 0
$LN60@LoadItemBa:
  0047d	8b 85 e4 fe ff
	ff		 mov	 eax, DWORD PTR tv250[ebp]
  00483	89 85 70 ff ff
	ff		 mov	 DWORD PTR $T36[ebp], eax
  00489	c7 45 fc ff ff
	ff ff		 mov	 DWORD PTR __$EHRec$[ebp+8], -1
  00490	8b 8d 70 ff ff
	ff		 mov	 ecx, DWORD PTR $T36[ebp]
  00496	89 0d 00 00 00
	00		 mov	 DWORD PTR ?HeartOfLoveItemBag@@3PAVCItemBag@@A, ecx ; HeartOfLoveItemBag

; 4929 : 	if( HeartOfLoveItemBag == NULL )

  0049c	83 3d 00 00 00
	00 00		 cmp	 DWORD PTR ?HeartOfLoveItemBag@@3PAVCItemBag@@A, 0 ; HeartOfLoveItemBag
  004a3	75 20		 jne	 SHORT $LN13@LoadItemBa

; 4930 : 	{
; 4931 : 		MsgBox("CItemBag %s", lMsg.Get(110));

  004a5	6a 6e		 push	 110			; 0000006eH
  004a7	b9 00 00 00 00	 mov	 ecx, OFFSET ?lMsg@@3VCMsg@@A ; lMsg
  004ac	ff 15 00 00 00
	00		 call	 DWORD PTR __imp_?Get@CMsg@@QAEPADH@Z
  004b2	50		 push	 eax
  004b3	68 00 00 00 00	 push	 OFFSET ??_C@_0M@GNOCDNGL@CItemBag?5?$CFs@
  004b8	e8 00 00 00 00	 call	 ?MsgBox@@YAXPADZZ	; MsgBox
  004bd	83 c4 08	 add	 esp, 8

; 4932 : 		return;

  004c0	e9 76 09 00 00	 jmp	 $LN1@LoadItemBa
$LN13@LoadItemBa:

; 4933 : 	}
; 4934 : 
; 4935 : #ifdef SCRIPT_DECODE_WORK
; 4936 : 	HeartOfLoveItemBag->Init("eventitembag5.cwz");
; 4937 : #else
; 4938 : 	HeartOfLoveItemBag->Init("eventitembag5.txt");

  004c5	68 00 00 00 00	 push	 OFFSET ??_C@_0BC@BDBMMAGG@eventitembag5?4txt@
  004ca	8b 0d 00 00 00
	00		 mov	 ecx, DWORD PTR ?HeartOfLoveItemBag@@3PAVCItemBag@@A ; HeartOfLoveItemBag
  004d0	e8 00 00 00 00	 call	 ?Init@CItemBag@@QAEXPAD@Z ; CItemBag::Init

; 4939 : #endif
; 4940 : 
; 4941 : 	//    
; 4942 : 	if( GoldMedalItemBag ){delete GoldMedalItemBag;}

  004d5	83 3d 00 00 00
	00 00		 cmp	 DWORD PTR ?GoldMedalItemBag@@3PAVCItemBag@@A, 0 ; GoldMedalItemBag
  004dc	74 3a		 je	 SHORT $LN14@LoadItemBa
  004de	a1 00 00 00 00	 mov	 eax, DWORD PTR ?GoldMedalItemBag@@3PAVCItemBag@@A ; GoldMedalItemBag
  004e3	89 85 68 ff ff
	ff		 mov	 DWORD PTR $T34[ebp], eax
  004e9	83 bd 68 ff ff
	ff 00		 cmp	 DWORD PTR $T34[ebp], 0
  004f0	74 1c		 je	 SHORT $LN61@LoadItemBa
  004f2	6a 01		 push	 1
  004f4	8b 8d 68 ff ff
	ff		 mov	 ecx, DWORD PTR $T34[ebp]
  004fa	8b 11		 mov	 edx, DWORD PTR [ecx]
  004fc	8b 8d 68 ff ff
	ff		 mov	 ecx, DWORD PTR $T34[ebp]
  00502	8b 02		 mov	 eax, DWORD PTR [edx]
  00504	ff d0		 call	 eax
  00506	89 85 e4 fe ff
	ff		 mov	 DWORD PTR tv265[ebp], eax
  0050c	eb 0a		 jmp	 SHORT $LN14@LoadItemBa
$LN61@LoadItemBa:
  0050e	c7 85 e4 fe ff
	ff 00 00 00 00	 mov	 DWORD PTR tv265[ebp], 0
$LN14@LoadItemBa:

; 4943 : 	GoldMedalItemBag = new CItemBag;

  00518	68 94 03 00 00	 push	 916			; 00000394H
  0051d	e8 00 00 00 00	 call	 ??2@YAPAXI@Z		; operator new
  00522	83 c4 04	 add	 esp, 4
  00525	89 85 60 ff ff
	ff		 mov	 DWORD PTR $T32[ebp], eax
  0052b	c7 45 fc 06 00
	00 00		 mov	 DWORD PTR __$EHRec$[ebp+8], 6
  00532	83 bd 60 ff ff
	ff 00		 cmp	 DWORD PTR $T32[ebp], 0
  00539	74 13		 je	 SHORT $LN63@LoadItemBa
  0053b	8b 8d 60 ff ff
	ff		 mov	 ecx, DWORD PTR $T32[ebp]
  00541	e8 00 00 00 00	 call	 ??0CItemBag@@QAE@XZ	; CItemBag::CItemBag
  00546	89 85 e4 fe ff
	ff		 mov	 DWORD PTR tv277[ebp], eax
  0054c	eb 0a		 jmp	 SHORT $LN64@LoadItemBa
$LN63@LoadItemBa:
  0054e	c7 85 e4 fe ff
	ff 00 00 00 00	 mov	 DWORD PTR tv277[ebp], 0
$LN64@LoadItemBa:
  00558	8b 85 e4 fe ff
	ff		 mov	 eax, DWORD PTR tv277[ebp]
  0055e	89 85 64 ff ff
	ff		 mov	 DWORD PTR $T33[ebp], eax
  00564	c7 45 fc ff ff
	ff ff		 mov	 DWORD PTR __$EHRec$[ebp+8], -1
  0056b	8b 8d 64 ff ff
	ff		 mov	 ecx, DWORD PTR $T33[ebp]
  00571	89 0d 00 00 00
	00		 mov	 DWORD PTR ?GoldMedalItemBag@@3PAVCItemBag@@A, ecx ; GoldMedalItemBag

; 4944 : 	if( GoldMedalItemBag == NULL )

  00577	83 3d 00 00 00
	00 00		 cmp	 DWORD PTR ?GoldMedalItemBag@@3PAVCItemBag@@A, 0 ; GoldMedalItemBag
  0057e	75 20		 jne	 SHORT $LN15@LoadItemBa

; 4945 : 	{
; 4946 : 		MsgBox("CItemBag %s", lMsg.Get(110));

  00580	6a 6e		 push	 110			; 0000006eH
  00582	b9 00 00 00 00	 mov	 ecx, OFFSET ?lMsg@@3VCMsg@@A ; lMsg
  00587	ff 15 00 00 00
	00		 call	 DWORD PTR __imp_?Get@CMsg@@QAEPADH@Z
  0058d	50		 push	 eax
  0058e	68 00 00 00 00	 push	 OFFSET ??_C@_0M@GNOCDNGL@CItemBag?5?$CFs@
  00593	e8 00 00 00 00	 call	 ?MsgBox@@YAXPADZZ	; MsgBox
  00598	83 c4 08	 add	 esp, 8

; 4947 : 		return;

  0059b	e9 9b 08 00 00	 jmp	 $LN1@LoadItemBa
$LN15@LoadItemBa:

; 4948 : 	}
; 4949 : 
; 4950 : #ifdef SCRIPT_DECODE_WORK
; 4951 : 	GoldMedalItemBag->Init("eventitembag6.cwz");
; 4952 : #else
; 4953 : 	GoldMedalItemBag->Init("eventitembag6.txt");

  005a0	68 00 00 00 00	 push	 OFFSET ??_C@_0BC@JFIILCMI@eventitembag6?4txt@
  005a5	8b 0d 00 00 00
	00		 mov	 ecx, DWORD PTR ?GoldMedalItemBag@@3PAVCItemBag@@A ; GoldMedalItemBag
  005ab	e8 00 00 00 00	 call	 ?Init@CItemBag@@QAEXPAD@Z ; CItemBag::Init

; 4954 : #endif
; 4955 : 
; 4956 : 	//    
; 4957 : 	if( SilverMedalItemBag ){delete SilverMedalItemBag;}

  005b0	83 3d 00 00 00
	00 00		 cmp	 DWORD PTR ?SilverMedalItemBag@@3PAVCItemBag@@A, 0 ; SilverMedalItemBag
  005b7	74 3a		 je	 SHORT $LN16@LoadItemBa
  005b9	a1 00 00 00 00	 mov	 eax, DWORD PTR ?SilverMedalItemBag@@3PAVCItemBag@@A ; SilverMedalItemBag
  005be	89 85 5c ff ff
	ff		 mov	 DWORD PTR $T31[ebp], eax
  005c4	83 bd 5c ff ff
	ff 00		 cmp	 DWORD PTR $T31[ebp], 0
  005cb	74 1c		 je	 SHORT $LN65@LoadItemBa
  005cd	6a 01		 push	 1
  005cf	8b 8d 5c ff ff
	ff		 mov	 ecx, DWORD PTR $T31[ebp]
  005d5	8b 11		 mov	 edx, DWORD PTR [ecx]
  005d7	8b 8d 5c ff ff
	ff		 mov	 ecx, DWORD PTR $T31[ebp]
  005dd	8b 02		 mov	 eax, DWORD PTR [edx]
  005df	ff d0		 call	 eax
  005e1	89 85 e4 fe ff
	ff		 mov	 DWORD PTR tv292[ebp], eax
  005e7	eb 0a		 jmp	 SHORT $LN16@LoadItemBa
$LN65@LoadItemBa:
  005e9	c7 85 e4 fe ff
	ff 00 00 00 00	 mov	 DWORD PTR tv292[ebp], 0
$LN16@LoadItemBa:

; 4958 : 	SilverMedalItemBag = new CItemBag;

  005f3	68 94 03 00 00	 push	 916			; 00000394H
  005f8	e8 00 00 00 00	 call	 ??2@YAPAXI@Z		; operator new
  005fd	83 c4 04	 add	 esp, 4
  00600	89 85 54 ff ff
	ff		 mov	 DWORD PTR $T29[ebp], eax
  00606	c7 45 fc 07 00
	00 00		 mov	 DWORD PTR __$EHRec$[ebp+8], 7
  0060d	83 bd 54 ff ff
	ff 00		 cmp	 DWORD PTR $T29[ebp], 0
  00614	74 13		 je	 SHORT $LN67@LoadItemBa
  00616	8b 8d 54 ff ff
	ff		 mov	 ecx, DWORD PTR $T29[ebp]
  0061c	e8 00 00 00 00	 call	 ??0CItemBag@@QAE@XZ	; CItemBag::CItemBag
  00621	89 85 e4 fe ff
	ff		 mov	 DWORD PTR tv304[ebp], eax
  00627	eb 0a		 jmp	 SHORT $LN68@LoadItemBa
$LN67@LoadItemBa:
  00629	c7 85 e4 fe ff
	ff 00 00 00 00	 mov	 DWORD PTR tv304[ebp], 0
$LN68@LoadItemBa:
  00633	8b 85 e4 fe ff
	ff		 mov	 eax, DWORD PTR tv304[ebp]
  00639	89 85 58 ff ff
	ff		 mov	 DWORD PTR $T30[ebp], eax
  0063f	c7 45 fc ff ff
	ff ff		 mov	 DWORD PTR __$EHRec$[ebp+8], -1
  00646	8b 8d 58 ff ff
	ff		 mov	 ecx, DWORD PTR $T30[ebp]
  0064c	89 0d 00 00 00
	00		 mov	 DWORD PTR ?SilverMedalItemBag@@3PAVCItemBag@@A, ecx ; SilverMedalItemBag

; 4959 : 	if( SilverMedalItemBag == NULL )

  00652	83 3d 00 00 00
	00 00		 cmp	 DWORD PTR ?SilverMedalItemBag@@3PAVCItemBag@@A, 0 ; SilverMedalItemBag
  00659	75 20		 jne	 SHORT $LN17@LoadItemBa

; 4960 : 	{
; 4961 : 		MsgBox("CItemBag %s", lMsg.Get(110));

  0065b	6a 6e		 push	 110			; 0000006eH
  0065d	b9 00 00 00 00	 mov	 ecx, OFFSET ?lMsg@@3VCMsg@@A ; lMsg
  00662	ff 15 00 00 00
	00		 call	 DWORD PTR __imp_?Get@CMsg@@QAEPADH@Z
  00668	50		 push	 eax
  00669	68 00 00 00 00	 push	 OFFSET ??_C@_0M@GNOCDNGL@CItemBag?5?$CFs@
  0066e	e8 00 00 00 00	 call	 ?MsgBox@@YAXPADZZ	; MsgBox
  00673	83 c4 08	 add	 esp, 8

; 4962 : 		return;

  00676	e9 c0 07 00 00	 jmp	 $LN1@LoadItemBa
$LN17@LoadItemBa:

; 4963 : 	}
; 4964 : 
; 4965 : #ifdef SCRIPT_DECODE_WORK
; 4966 : 	SilverMedalItemBag->Init("eventitembag7.cwz");	
; 4967 : #else
; 4968 : 	SilverMedalItemBag->Init("eventitembag7.txt");	

  0067b	68 00 00 00 00	 push	 OFFSET ??_C@_0BC@FONEGBGN@eventitembag7?4txt@
  00680	8b 0d 00 00 00
	00		 mov	 ecx, DWORD PTR ?SilverMedalItemBag@@3PAVCItemBag@@A ; SilverMedalItemBag
  00686	e8 00 00 00 00	 call	 ?Init@CItemBag@@QAEXPAD@Z ; CItemBag::Init

; 4969 : #endif
; 4970 : 
; 4971 : 	if( GoldGoblenItemBag ){delete GoldGoblenItemBag;}

  0068b	83 3d 00 00 00
	00 00		 cmp	 DWORD PTR ?GoldGoblenItemBag@@3PAVCItemBag@@A, 0 ; GoldGoblenItemBag
  00692	74 3a		 je	 SHORT $LN18@LoadItemBa
  00694	a1 00 00 00 00	 mov	 eax, DWORD PTR ?GoldGoblenItemBag@@3PAVCItemBag@@A ; GoldGoblenItemBag
  00699	89 85 50 ff ff
	ff		 mov	 DWORD PTR $T28[ebp], eax
  0069f	83 bd 50 ff ff
	ff 00		 cmp	 DWORD PTR $T28[ebp], 0
  006a6	74 1c		 je	 SHORT $LN69@LoadItemBa
  006a8	6a 01		 push	 1
  006aa	8b 8d 50 ff ff
	ff		 mov	 ecx, DWORD PTR $T28[ebp]
  006b0	8b 11		 mov	 edx, DWORD PTR [ecx]
  006b2	8b 8d 50 ff ff
	ff		 mov	 ecx, DWORD PTR $T28[ebp]
  006b8	8b 02		 mov	 eax, DWORD PTR [edx]
  006ba	ff d0		 call	 eax
  006bc	89 85 e4 fe ff
	ff		 mov	 DWORD PTR tv319[ebp], eax
  006c2	eb 0a		 jmp	 SHORT $LN18@LoadItemBa
$LN69@LoadItemBa:
  006c4	c7 85 e4 fe ff
	ff 00 00 00 00	 mov	 DWORD PTR tv319[ebp], 0
$LN18@LoadItemBa:

; 4972 : #ifdef MODIFY_KUNDUN_EVENTBAG_RENEWAL_2009_02_04
; 4973 : 	GoldGoblenItemBag = new CProbabilityItemBag;
; 4974 : #else // MODIFY_KUNDUN_EVENTBAG_RENEWAL_2009_02_04
; 4975 : 	GoldGoblenItemBag = new CItemBag;

  006ce	68 94 03 00 00	 push	 916			; 00000394H
  006d3	e8 00 00 00 00	 call	 ??2@YAPAXI@Z		; operator new
  006d8	83 c4 04	 add	 esp, 4
  006db	89 85 48 ff ff
	ff		 mov	 DWORD PTR $T26[ebp], eax
  006e1	c7 45 fc 08 00
	00 00		 mov	 DWORD PTR __$EHRec$[ebp+8], 8
  006e8	83 bd 48 ff ff
	ff 00		 cmp	 DWORD PTR $T26[ebp], 0
  006ef	74 13		 je	 SHORT $LN71@LoadItemBa
  006f1	8b 8d 48 ff ff
	ff		 mov	 ecx, DWORD PTR $T26[ebp]
  006f7	e8 00 00 00 00	 call	 ??0CItemBag@@QAE@XZ	; CItemBag::CItemBag
  006fc	89 85 e4 fe ff
	ff		 mov	 DWORD PTR tv331[ebp], eax
  00702	eb 0a		 jmp	 SHORT $LN72@LoadItemBa
$LN71@LoadItemBa:
  00704	c7 85 e4 fe ff
	ff 00 00 00 00	 mov	 DWORD PTR tv331[ebp], 0
$LN72@LoadItemBa:
  0070e	8b 85 e4 fe ff
	ff		 mov	 eax, DWORD PTR tv331[ebp]
  00714	89 85 4c ff ff
	ff		 mov	 DWORD PTR $T27[ebp], eax
  0071a	c7 45 fc ff ff
	ff ff		 mov	 DWORD PTR __$EHRec$[ebp+8], -1
  00721	8b 8d 4c ff ff
	ff		 mov	 ecx, DWORD PTR $T27[ebp]
  00727	89 0d 00 00 00
	00		 mov	 DWORD PTR ?GoldGoblenItemBag@@3PAVCItemBag@@A, ecx ; GoldGoblenItemBag

; 4976 : #endif // MODIFY_KUNDUN_EVENTBAG_RENEWAL_2009_02_04
; 4977 : 	if( GoldGoblenItemBag == NULL )

  0072d	83 3d 00 00 00
	00 00		 cmp	 DWORD PTR ?GoldGoblenItemBag@@3PAVCItemBag@@A, 0 ; GoldGoblenItemBag
  00734	75 20		 jne	 SHORT $LN19@LoadItemBa

; 4978 : 	{
; 4979 : 		MsgBox("CItemBag %s", lMsg.Get(110));

  00736	6a 6e		 push	 110			; 0000006eH
  00738	b9 00 00 00 00	 mov	 ecx, OFFSET ?lMsg@@3VCMsg@@A ; lMsg
  0073d	ff 15 00 00 00
	00		 call	 DWORD PTR __imp_?Get@CMsg@@QAEPADH@Z
  00743	50		 push	 eax
  00744	68 00 00 00 00	 push	 OFFSET ??_C@_0M@GNOCDNGL@CItemBag?5?$CFs@
  00749	e8 00 00 00 00	 call	 ?MsgBox@@YAXPADZZ	; MsgBox
  0074e	83 c4 08	 add	 esp, 8

; 4980 : 		return;

  00751	e9 e5 06 00 00	 jmp	 $LN1@LoadItemBa
$LN19@LoadItemBa:

; 4981 : 	}
; 4982 : 
; 4983 : #ifdef SCRIPT_DECODE_WORK
; 4984 : #ifdef MODIFY_KUNDUN_EVENTBAG_RENEWAL_2009_02_04
; 4985 : 	GoldGoblenItemBag->ProbabilityItemBagInit("eventitembag8.cwz");	
; 4986 : #else
; 4987 : 		GoldGoblenItemBag->Init("eventitembag8.cwz");	
; 4988 : #endif //MODIFY_KUNDUN_EVENTBAG_RENEWAL_2009_02_04
; 4989 : 
; 4990 : #else
; 4991 : #ifdef MODIFY_KUNDUN_EVENTBAG_RENEWAL_2009_02_04
; 4992 : 	GoldGoblenItemBag->ProbabilityItemBagInit("eventitembag8.txt");	
; 4993 : #else
; 4994 : 	GoldGoblenItemBag->Init("eventitembag8.txt");	

  00756	68 00 00 00 00	 push	 OFFSET ??_C@_0BC@KPICNDLI@eventitembag8?4txt@
  0075b	8b 0d 00 00 00
	00		 mov	 ecx, DWORD PTR ?GoldGoblenItemBag@@3PAVCItemBag@@A ; GoldGoblenItemBag
  00761	e8 00 00 00 00	 call	 ?Init@CItemBag@@QAEXPAD@Z ; CItemBag::Init

; 4995 : #endif //MODIFY_KUNDUN_EVENTBAG_RENEWAL_2009_02_04
; 4996 : 
; 4997 : #endif
; 4998 : 
; 4999 : 	if( TitanItemBag ){delete TitanItemBag;}

  00766	83 3d 00 00 00
	00 00		 cmp	 DWORD PTR ?TitanItemBag@@3PAVCItemBag@@A, 0 ; TitanItemBag
  0076d	74 3a		 je	 SHORT $LN20@LoadItemBa
  0076f	a1 00 00 00 00	 mov	 eax, DWORD PTR ?TitanItemBag@@3PAVCItemBag@@A ; TitanItemBag
  00774	89 85 44 ff ff
	ff		 mov	 DWORD PTR $T25[ebp], eax
  0077a	83 bd 44 ff ff
	ff 00		 cmp	 DWORD PTR $T25[ebp], 0
  00781	74 1c		 je	 SHORT $LN73@LoadItemBa
  00783	6a 01		 push	 1
  00785	8b 8d 44 ff ff
	ff		 mov	 ecx, DWORD PTR $T25[ebp]
  0078b	8b 11		 mov	 edx, DWORD PTR [ecx]
  0078d	8b 8d 44 ff ff
	ff		 mov	 ecx, DWORD PTR $T25[ebp]
  00793	8b 02		 mov	 eax, DWORD PTR [edx]
  00795	ff d0		 call	 eax
  00797	89 85 e4 fe ff
	ff		 mov	 DWORD PTR tv346[ebp], eax
  0079d	eb 0a		 jmp	 SHORT $LN20@LoadItemBa
$LN73@LoadItemBa:
  0079f	c7 85 e4 fe ff
	ff 00 00 00 00	 mov	 DWORD PTR tv346[ebp], 0
$LN20@LoadItemBa:

; 5000 : #ifdef MODIFY_KUNDUN_EVENTBAG_RENEWAL_2009_02_04
; 5001 : 	TitanItemBag = new CProbabilityItemBag;
; 5002 : #else
; 5003 : 	TitanItemBag = new CItemBag;

  007a9	68 94 03 00 00	 push	 916			; 00000394H
  007ae	e8 00 00 00 00	 call	 ??2@YAPAXI@Z		; operator new
  007b3	83 c4 04	 add	 esp, 4
  007b6	89 85 3c ff ff
	ff		 mov	 DWORD PTR $T23[ebp], eax
  007bc	c7 45 fc 09 00
	00 00		 mov	 DWORD PTR __$EHRec$[ebp+8], 9
  007c3	83 bd 3c ff ff
	ff 00		 cmp	 DWORD PTR $T23[ebp], 0
  007ca	74 13		 je	 SHORT $LN75@LoadItemBa
  007cc	8b 8d 3c ff ff
	ff		 mov	 ecx, DWORD PTR $T23[ebp]
  007d2	e8 00 00 00 00	 call	 ??0CItemBag@@QAE@XZ	; CItemBag::CItemBag
  007d7	89 85 e4 fe ff
	ff		 mov	 DWORD PTR tv358[ebp], eax
  007dd	eb 0a		 jmp	 SHORT $LN76@LoadItemBa
$LN75@LoadItemBa:
  007df	c7 85 e4 fe ff
	ff 00 00 00 00	 mov	 DWORD PTR tv358[ebp], 0
$LN76@LoadItemBa:
  007e9	8b 85 e4 fe ff
	ff		 mov	 eax, DWORD PTR tv358[ebp]
  007ef	89 85 40 ff ff
	ff		 mov	 DWORD PTR $T24[ebp], eax
  007f5	c7 45 fc ff ff
	ff ff		 mov	 DWORD PTR __$EHRec$[ebp+8], -1
  007fc	8b 8d 40 ff ff
	ff		 mov	 ecx, DWORD PTR $T24[ebp]
  00802	89 0d 00 00 00
	00		 mov	 DWORD PTR ?TitanItemBag@@3PAVCItemBag@@A, ecx ; TitanItemBag

; 5004 : #endif
; 5005 : 	if( TitanItemBag == NULL )

  00808	83 3d 00 00 00
	00 00		 cmp	 DWORD PTR ?TitanItemBag@@3PAVCItemBag@@A, 0 ; TitanItemBag
  0080f	75 20		 jne	 SHORT $LN21@LoadItemBa

; 5006 : 	{
; 5007 : 		MsgBox("CItemBag %s", lMsg.Get(110));

  00811	6a 6e		 push	 110			; 0000006eH
  00813	b9 00 00 00 00	 mov	 ecx, OFFSET ?lMsg@@3VCMsg@@A ; lMsg
  00818	ff 15 00 00 00
	00		 call	 DWORD PTR __imp_?Get@CMsg@@QAEPADH@Z
  0081e	50		 push	 eax
  0081f	68 00 00 00 00	 push	 OFFSET ??_C@_0M@GNOCDNGL@CItemBag?5?$CFs@
  00824	e8 00 00 00 00	 call	 ?MsgBox@@YAXPADZZ	; MsgBox
  00829	83 c4 08	 add	 esp, 8

; 5008 : 		return;

  0082c	e9 0a 06 00 00	 jmp	 $LN1@LoadItemBa
$LN21@LoadItemBa:

; 5009 : 	}
; 5010 : 
; 5011 : #ifdef SCRIPT_DECODE_WORK
; 5012 : #ifdef MODIFY_KUNDUN_EVENTBAG_RENEWAL_2009_02_04
; 5013 : 	TitanItemBag->ProbabilityItemBagInit("eventitembag9.cwz");	
; 5014 : #else
; 5015 : 	TitanItemBag->Init("eventitembag9.cwz");	
; 5016 : #endif //MODIFY_KUNDUN_EVENTBAG_RENEWAL_2009_02_04
; 5017 : #else
; 5018 : #ifdef MODIFY_KUNDUN_EVENTBAG_RENEWAL_2009_02_04
; 5019 : 	TitanItemBag->ProbabilityItemBagInit("eventitembag9.txt");	
; 5020 : #else
; 5021 : 	TitanItemBag->Init("eventitembag9.txt");	

  00831	68 00 00 00 00	 push	 OFFSET ??_C@_0BC@GENOAABN@eventitembag9?4txt@
  00836	8b 0d 00 00 00
	00		 mov	 ecx, DWORD PTR ?TitanItemBag@@3PAVCItemBag@@A ; TitanItemBag
  0083c	e8 00 00 00 00	 call	 ?Init@CItemBag@@QAEXPAD@Z ; CItemBag::Init

; 5022 : #endif //MODIFY_KUNDUN_EVENTBAG_RENEWAL_2009_02_04
; 5023 : #endif
; 5024 : 
; 5025 : 	if( GoldDerconItemBag ){delete GoldDerconItemBag;}

  00841	83 3d 00 00 00
	00 00		 cmp	 DWORD PTR ?GoldDerconItemBag@@3PAVCItemBag@@A, 0 ; GoldDerconItemBag
  00848	74 3a		 je	 SHORT $LN22@LoadItemBa
  0084a	a1 00 00 00 00	 mov	 eax, DWORD PTR ?GoldDerconItemBag@@3PAVCItemBag@@A ; GoldDerconItemBag
  0084f	89 85 38 ff ff
	ff		 mov	 DWORD PTR $T22[ebp], eax
  00855	83 bd 38 ff ff
	ff 00		 cmp	 DWORD PTR $T22[ebp], 0
  0085c	74 1c		 je	 SHORT $LN77@LoadItemBa
  0085e	6a 01		 push	 1
  00860	8b 8d 38 ff ff
	ff		 mov	 ecx, DWORD PTR $T22[ebp]
  00866	8b 11		 mov	 edx, DWORD PTR [ecx]
  00868	8b 8d 38 ff ff
	ff		 mov	 ecx, DWORD PTR $T22[ebp]
  0086e	8b 02		 mov	 eax, DWORD PTR [edx]
  00870	ff d0		 call	 eax
  00872	89 85 e4 fe ff
	ff		 mov	 DWORD PTR tv373[ebp], eax
  00878	eb 0a		 jmp	 SHORT $LN22@LoadItemBa
$LN77@LoadItemBa:
  0087a	c7 85 e4 fe ff
	ff 00 00 00 00	 mov	 DWORD PTR tv373[ebp], 0
$LN22@LoadItemBa:

; 5026 : #ifdef MODIFY_KUNDUN_EVENTBAG_RENEWAL_2009_02_04
; 5027 : 	GoldDerconItemBag = new CProbabilityItemBag;
; 5028 : #else
; 5029 : 	GoldDerconItemBag = new CItemBag;

  00884	68 94 03 00 00	 push	 916			; 00000394H
  00889	e8 00 00 00 00	 call	 ??2@YAPAXI@Z		; operator new
  0088e	83 c4 04	 add	 esp, 4
  00891	89 85 30 ff ff
	ff		 mov	 DWORD PTR $T20[ebp], eax
  00897	c7 45 fc 0a 00
	00 00		 mov	 DWORD PTR __$EHRec$[ebp+8], 10 ; 0000000aH
  0089e	83 bd 30 ff ff
	ff 00		 cmp	 DWORD PTR $T20[ebp], 0
  008a5	74 13		 je	 SHORT $LN79@LoadItemBa
  008a7	8b 8d 30 ff ff
	ff		 mov	 ecx, DWORD PTR $T20[ebp]
  008ad	e8 00 00 00 00	 call	 ??0CItemBag@@QAE@XZ	; CItemBag::CItemBag
  008b2	89 85 e4 fe ff
	ff		 mov	 DWORD PTR tv417[ebp], eax
  008b8	eb 0a		 jmp	 SHORT $LN80@LoadItemBa
$LN79@LoadItemBa:
  008ba	c7 85 e4 fe ff
	ff 00 00 00 00	 mov	 DWORD PTR tv417[ebp], 0
$LN80@LoadItemBa:
  008c4	8b 85 e4 fe ff
	ff		 mov	 eax, DWORD PTR tv417[ebp]
  008ca	89 85 34 ff ff
	ff		 mov	 DWORD PTR $T21[ebp], eax
  008d0	c7 45 fc ff ff
	ff ff		 mov	 DWORD PTR __$EHRec$[ebp+8], -1
  008d7	8b 8d 34 ff ff
	ff		 mov	 ecx, DWORD PTR $T21[ebp]
  008dd	89 0d 00 00 00
	00		 mov	 DWORD PTR ?GoldDerconItemBag@@3PAVCItemBag@@A, ecx ; GoldDerconItemBag

; 5030 : #endif
; 5031 : 	if( GoldDerconItemBag == NULL )

  008e3	83 3d 00 00 00
	00 00		 cmp	 DWORD PTR ?GoldDerconItemBag@@3PAVCItemBag@@A, 0 ; GoldDerconItemBag
  008ea	75 20		 jne	 SHORT $LN23@LoadItemBa

; 5032 : 	{
; 5033 : 		MsgBox("CItemBag %s", lMsg.Get(110));

  008ec	6a 6e		 push	 110			; 0000006eH
  008ee	b9 00 00 00 00	 mov	 ecx, OFFSET ?lMsg@@3VCMsg@@A ; lMsg
  008f3	ff 15 00 00 00
	00		 call	 DWORD PTR __imp_?Get@CMsg@@QAEPADH@Z
  008f9	50		 push	 eax
  008fa	68 00 00 00 00	 push	 OFFSET ??_C@_0M@GNOCDNGL@CItemBag?5?$CFs@
  008ff	e8 00 00 00 00	 call	 ?MsgBox@@YAXPADZZ	; MsgBox
  00904	83 c4 08	 add	 esp, 8

; 5034 : 		return;

  00907	e9 2f 05 00 00	 jmp	 $LN1@LoadItemBa
$LN23@LoadItemBa:

; 5035 : 	}
; 5036 : 
; 5037 : #ifdef SCRIPT_DECODE_WORK
; 5038 : #ifdef MODIFY_KUNDUN_EVENTBAG_RENEWAL_2009_02_04
; 5039 : 	GoldDerconItemBag->ProbabilityItemBagInit("eventitembag10.cwz");
; 5040 : #else
; 5041 : 	GoldDerconItemBag->Init("eventitembag10.cwz");
; 5042 : #endif //MODIFY_KUNDUN_EVENTBAG_RENEWAL_2009_02_04
; 5043 : 
; 5044 : #else
; 5045 : #ifdef MODIFY_KUNDUN_EVENTBAG_RENEWAL_2009_02_04
; 5046 : 	GoldDerconItemBag->ProbabilityItemBagInit("eventitembag10.txt");
; 5047 : #else
; 5048 : 	GoldDerconItemBag->Init("eventitembag10.txt");

  0090c	68 00 00 00 00	 push	 OFFSET ??_C@_0BD@BDGNLCBB@eventitembag10?4txt@
  00911	8b 0d 00 00 00
	00		 mov	 ecx, DWORD PTR ?GoldDerconItemBag@@3PAVCItemBag@@A ; GoldDerconItemBag
  00917	e8 00 00 00 00	 call	 ?Init@CItemBag@@QAEXPAD@Z ; CItemBag::Init

; 5049 : #endif //MODIFY_KUNDUN_EVENTBAG_RENEWAL_2009_02_04
; 5050 : #endif
; 5051 : 
; 5052 : 	if( DevilLizardKingItemBag ){delete DevilLizardKingItemBag;}

  0091c	83 3d 00 00 00
	00 00		 cmp	 DWORD PTR ?DevilLizardKingItemBag@@3PAVCItemBag@@A, 0 ; DevilLizardKingItemBag
  00923	74 3a		 je	 SHORT $LN24@LoadItemBa
  00925	a1 00 00 00 00	 mov	 eax, DWORD PTR ?DevilLizardKingItemBag@@3PAVCItemBag@@A ; DevilLizardKingItemBag
  0092a	89 85 2c ff ff
	ff		 mov	 DWORD PTR $T19[ebp], eax
  00930	83 bd 2c ff ff
	ff 00		 cmp	 DWORD PTR $T19[ebp], 0
  00937	74 1c		 je	 SHORT $LN81@LoadItemBa
  00939	6a 01		 push	 1
  0093b	8b 8d 2c ff ff
	ff		 mov	 ecx, DWORD PTR $T19[ebp]
  00941	8b 11		 mov	 edx, DWORD PTR [ecx]
  00943	8b 8d 2c ff ff
	ff		 mov	 ecx, DWORD PTR $T19[ebp]
  00949	8b 02		 mov	 eax, DWORD PTR [edx]
  0094b	ff d0		 call	 eax
  0094d	89 85 e4 fe ff
	ff		 mov	 DWORD PTR tv432[ebp], eax
  00953	eb 0a		 jmp	 SHORT $LN24@LoadItemBa
$LN81@LoadItemBa:
  00955	c7 85 e4 fe ff
	ff 00 00 00 00	 mov	 DWORD PTR tv432[ebp], 0
$LN24@LoadItemBa:

; 5053 : #ifdef MODIFY_KUNDUN_EVENTBAG_RENEWAL_2009_02_04
; 5054 : 	DevilLizardKingItemBag = new CProbabilityItemBag;
; 5055 : #else
; 5056 : 	DevilLizardKingItemBag = new CItemBag;

  0095f	68 94 03 00 00	 push	 916			; 00000394H
  00964	e8 00 00 00 00	 call	 ??2@YAPAXI@Z		; operator new
  00969	83 c4 04	 add	 esp, 4
  0096c	89 85 24 ff ff
	ff		 mov	 DWORD PTR $T17[ebp], eax
  00972	c7 45 fc 0b 00
	00 00		 mov	 DWORD PTR __$EHRec$[ebp+8], 11 ; 0000000bH
  00979	83 bd 24 ff ff
	ff 00		 cmp	 DWORD PTR $T17[ebp], 0
  00980	74 13		 je	 SHORT $LN83@LoadItemBa
  00982	8b 8d 24 ff ff
	ff		 mov	 ecx, DWORD PTR $T17[ebp]
  00988	e8 00 00 00 00	 call	 ??0CItemBag@@QAE@XZ	; CItemBag::CItemBag
  0098d	89 85 e4 fe ff
	ff		 mov	 DWORD PTR tv444[ebp], eax
  00993	eb 0a		 jmp	 SHORT $LN84@LoadItemBa
$LN83@LoadItemBa:
  00995	c7 85 e4 fe ff
	ff 00 00 00 00	 mov	 DWORD PTR tv444[ebp], 0
$LN84@LoadItemBa:
  0099f	8b 85 e4 fe ff
	ff		 mov	 eax, DWORD PTR tv444[ebp]
  009a5	89 85 28 ff ff
	ff		 mov	 DWORD PTR $T18[ebp], eax
  009ab	c7 45 fc ff ff
	ff ff		 mov	 DWORD PTR __$EHRec$[ebp+8], -1
  009b2	8b 8d 28 ff ff
	ff		 mov	 ecx, DWORD PTR $T18[ebp]
  009b8	89 0d 00 00 00
	00		 mov	 DWORD PTR ?DevilLizardKingItemBag@@3PAVCItemBag@@A, ecx ; DevilLizardKingItemBag

; 5057 : #endif
; 5058 : 	if( DevilLizardKingItemBag == NULL )

  009be	83 3d 00 00 00
	00 00		 cmp	 DWORD PTR ?DevilLizardKingItemBag@@3PAVCItemBag@@A, 0 ; DevilLizardKingItemBag
  009c5	75 20		 jne	 SHORT $LN25@LoadItemBa

; 5059 : 	{
; 5060 : 		MsgBox("CItemBag %s", lMsg.Get(110));

  009c7	6a 6e		 push	 110			; 0000006eH
  009c9	b9 00 00 00 00	 mov	 ecx, OFFSET ?lMsg@@3VCMsg@@A ; lMsg
  009ce	ff 15 00 00 00
	00		 call	 DWORD PTR __imp_?Get@CMsg@@QAEPADH@Z
  009d4	50		 push	 eax
  009d5	68 00 00 00 00	 push	 OFFSET ??_C@_0M@GNOCDNGL@CItemBag?5?$CFs@
  009da	e8 00 00 00 00	 call	 ?MsgBox@@YAXPADZZ	; MsgBox
  009df	83 c4 08	 add	 esp, 8

; 5061 : 		return;

  009e2	e9 54 04 00 00	 jmp	 $LN1@LoadItemBa
$LN25@LoadItemBa:

; 5062 : 	}
; 5063 : 
; 5064 : #ifdef SCRIPT_DECODE_WORK
; 5065 : #ifdef MODIFY_KUNDUN_EVENTBAG_RENEWAL_2009_02_04
; 5066 : 	DevilLizardKingItemBag->ProbabilityItemBagInit("eventitembag11.cwz");
; 5067 : #else
; 5068 : 	DevilLizardKingItemBag->Init("eventitembag11.cwz");
; 5069 : #endif //MODIFY_KUNDUN_EVENTBAG_RENEWAL_2009_02_04
; 5070 : #else
; 5071 : #ifdef MODIFY_KUNDUN_EVENTBAG_RENEWAL_2009_02_04
; 5072 : 	DevilLizardKingItemBag->ProbabilityItemBagInit("eventitembag11.txt");
; 5073 : #else
; 5074 : 	DevilLizardKingItemBag->Init("eventitembag11.txt");

  009e7	68 00 00 00 00	 push	 OFFSET ??_C@_0BD@NIDBGBLE@eventitembag11?4txt@
  009ec	8b 0d 00 00 00
	00		 mov	 ecx, DWORD PTR ?DevilLizardKingItemBag@@3PAVCItemBag@@A ; DevilLizardKingItemBag
  009f2	e8 00 00 00 00	 call	 ?Init@CItemBag@@QAEXPAD@Z ; CItemBag::Init

; 5075 : #endif //MODIFY_KUNDUN_EVENTBAG_RENEWAL_2009_02_04
; 5076 : #endif
; 5077 : 
; 5078 : 	if( KanturItemBag ){delete KanturItemBag;}

  009f7	83 3d 00 00 00
	00 00		 cmp	 DWORD PTR ?KanturItemBag@@3PAVCItemBag@@A, 0 ; KanturItemBag
  009fe	74 3a		 je	 SHORT $LN26@LoadItemBa
  00a00	a1 00 00 00 00	 mov	 eax, DWORD PTR ?KanturItemBag@@3PAVCItemBag@@A ; KanturItemBag
  00a05	89 85 20 ff ff
	ff		 mov	 DWORD PTR $T16[ebp], eax
  00a0b	83 bd 20 ff ff
	ff 00		 cmp	 DWORD PTR $T16[ebp], 0
  00a12	74 1c		 je	 SHORT $LN85@LoadItemBa
  00a14	6a 01		 push	 1
  00a16	8b 8d 20 ff ff
	ff		 mov	 ecx, DWORD PTR $T16[ebp]
  00a1c	8b 11		 mov	 edx, DWORD PTR [ecx]
  00a1e	8b 8d 20 ff ff
	ff		 mov	 ecx, DWORD PTR $T16[ebp]
  00a24	8b 02		 mov	 eax, DWORD PTR [edx]
  00a26	ff d0		 call	 eax
  00a28	89 85 e4 fe ff
	ff		 mov	 DWORD PTR tv459[ebp], eax
  00a2e	eb 0a		 jmp	 SHORT $LN26@LoadItemBa
$LN85@LoadItemBa:
  00a30	c7 85 e4 fe ff
	ff 00 00 00 00	 mov	 DWORD PTR tv459[ebp], 0
$LN26@LoadItemBa:

; 5079 : #ifdef MODIFY_KUNDUN_EVENTBAG_RENEWAL_2009_02_04
; 5080 : 	KanturItemBag = new CProbabilityItemBag;
; 5081 : #else
; 5082 : 	KanturItemBag = new CItemBag;

  00a3a	68 94 03 00 00	 push	 916			; 00000394H
  00a3f	e8 00 00 00 00	 call	 ??2@YAPAXI@Z		; operator new
  00a44	83 c4 04	 add	 esp, 4
  00a47	89 85 18 ff ff
	ff		 mov	 DWORD PTR $T14[ebp], eax
  00a4d	c7 45 fc 0c 00
	00 00		 mov	 DWORD PTR __$EHRec$[ebp+8], 12 ; 0000000cH
  00a54	83 bd 18 ff ff
	ff 00		 cmp	 DWORD PTR $T14[ebp], 0
  00a5b	74 13		 je	 SHORT $LN87@LoadItemBa
  00a5d	8b 8d 18 ff ff
	ff		 mov	 ecx, DWORD PTR $T14[ebp]
  00a63	e8 00 00 00 00	 call	 ??0CItemBag@@QAE@XZ	; CItemBag::CItemBag
  00a68	89 85 e4 fe ff
	ff		 mov	 DWORD PTR tv471[ebp], eax
  00a6e	eb 0a		 jmp	 SHORT $LN88@LoadItemBa
$LN87@LoadItemBa:
  00a70	c7 85 e4 fe ff
	ff 00 00 00 00	 mov	 DWORD PTR tv471[ebp], 0
$LN88@LoadItemBa:
  00a7a	8b 85 e4 fe ff
	ff		 mov	 eax, DWORD PTR tv471[ebp]
  00a80	89 85 1c ff ff
	ff		 mov	 DWORD PTR $T15[ebp], eax
  00a86	c7 45 fc ff ff
	ff ff		 mov	 DWORD PTR __$EHRec$[ebp+8], -1
  00a8d	8b 8d 1c ff ff
	ff		 mov	 ecx, DWORD PTR $T15[ebp]
  00a93	89 0d 00 00 00
	00		 mov	 DWORD PTR ?KanturItemBag@@3PAVCItemBag@@A, ecx ; KanturItemBag

; 5083 : #endif
; 5084 : 	if( KanturItemBag == NULL )

  00a99	83 3d 00 00 00
	00 00		 cmp	 DWORD PTR ?KanturItemBag@@3PAVCItemBag@@A, 0 ; KanturItemBag
  00aa0	75 20		 jne	 SHORT $LN27@LoadItemBa

; 5085 : 	{
; 5086 : 		MsgBox("CItemBag %s", lMsg.Get(110));

  00aa2	6a 6e		 push	 110			; 0000006eH
  00aa4	b9 00 00 00 00	 mov	 ecx, OFFSET ?lMsg@@3VCMsg@@A ; lMsg
  00aa9	ff 15 00 00 00
	00		 call	 DWORD PTR __imp_?Get@CMsg@@QAEPADH@Z
  00aaf	50		 push	 eax
  00ab0	68 00 00 00 00	 push	 OFFSET ??_C@_0M@GNOCDNGL@CItemBag?5?$CFs@
  00ab5	e8 00 00 00 00	 call	 ?MsgBox@@YAXPADZZ	; MsgBox
  00aba	83 c4 08	 add	 esp, 8

; 5087 : 		return;

  00abd	e9 79 03 00 00	 jmp	 $LN1@LoadItemBa
$LN27@LoadItemBa:

; 5088 : 	}
; 5089 : 
; 5090 : #ifdef SCRIPT_DECODE_WORK
; 5091 : #ifdef MODIFY_KUNDUN_EVENTBAG_RENEWAL_2009_02_04
; 5092 : 	KanturItemBag->ProbabilityItemBagInit("eventitembag12.cwz");
; 5093 : #else
; 5094 : 	KanturItemBag->Init("eventitembag12.cwz");
; 5095 : #endif //MODIFY_KUNDUN_EVENTBAG_RENEWAL_2009_02_04
; 5096 : 
; 5097 : #else
; 5098 : #ifdef MODIFY_KUNDUN_EVENTBAG_RENEWAL_2009_02_04
; 5099 : 	KanturItemBag->ProbabilityItemBagInit("eventitembag12.txt");
; 5100 : #else
; 5101 : 	KanturItemBag->Init("eventitembag12.txt");

  00ac2	68 00 00 00 00	 push	 OFFSET ??_C@_0BD@FOKFBDBK@eventitembag12?4txt@
  00ac7	8b 0d 00 00 00
	00		 mov	 ecx, DWORD PTR ?KanturItemBag@@3PAVCItemBag@@A ; KanturItemBag
  00acd	e8 00 00 00 00	 call	 ?Init@CItemBag@@QAEXPAD@Z ; CItemBag::Init

; 5102 : #endif //MODIFY_KUNDUN_EVENTBAG_RENEWAL_2009_02_04
; 5103 : #endif
; 5104 : 
; 5105 : 
; 5106 : #ifdef RING_EVENT_ITEMBOX_20031124
; 5107 : 	if( RingEventItemBag ){delete RingEventItemBag;}		//    

  00ad2	83 3d 00 00 00
	00 00		 cmp	 DWORD PTR ?RingEventItemBag@@3PAVCItemBag@@A, 0 ; RingEventItemBag
  00ad9	74 3a		 je	 SHORT $LN28@LoadItemBa
  00adb	a1 00 00 00 00	 mov	 eax, DWORD PTR ?RingEventItemBag@@3PAVCItemBag@@A ; RingEventItemBag
  00ae0	89 85 14 ff ff
	ff		 mov	 DWORD PTR $T13[ebp], eax
  00ae6	83 bd 14 ff ff
	ff 00		 cmp	 DWORD PTR $T13[ebp], 0
  00aed	74 1c		 je	 SHORT $LN89@LoadItemBa
  00aef	6a 01		 push	 1
  00af1	8b 8d 14 ff ff
	ff		 mov	 ecx, DWORD PTR $T13[ebp]
  00af7	8b 11		 mov	 edx, DWORD PTR [ecx]
  00af9	8b 8d 14 ff ff
	ff		 mov	 ecx, DWORD PTR $T13[ebp]
  00aff	8b 02		 mov	 eax, DWORD PTR [edx]
  00b01	ff d0		 call	 eax
  00b03	89 85 e4 fe ff
	ff		 mov	 DWORD PTR tv486[ebp], eax
  00b09	eb 0a		 jmp	 SHORT $LN28@LoadItemBa
$LN89@LoadItemBa:
  00b0b	c7 85 e4 fe ff
	ff 00 00 00 00	 mov	 DWORD PTR tv486[ebp], 0
$LN28@LoadItemBa:

; 5108 : 	RingEventItemBag = new CItemBag;

  00b15	68 94 03 00 00	 push	 916			; 00000394H
  00b1a	e8 00 00 00 00	 call	 ??2@YAPAXI@Z		; operator new
  00b1f	83 c4 04	 add	 esp, 4
  00b22	89 85 0c ff ff
	ff		 mov	 DWORD PTR $T11[ebp], eax
  00b28	c7 45 fc 0d 00
	00 00		 mov	 DWORD PTR __$EHRec$[ebp+8], 13 ; 0000000dH
  00b2f	83 bd 0c ff ff
	ff 00		 cmp	 DWORD PTR $T11[ebp], 0
  00b36	74 13		 je	 SHORT $LN91@LoadItemBa
  00b38	8b 8d 0c ff ff
	ff		 mov	 ecx, DWORD PTR $T11[ebp]
  00b3e	e8 00 00 00 00	 call	 ??0CItemBag@@QAE@XZ	; CItemBag::CItemBag
  00b43	89 85 e4 fe ff
	ff		 mov	 DWORD PTR tv498[ebp], eax
  00b49	eb 0a		 jmp	 SHORT $LN92@LoadItemBa
$LN91@LoadItemBa:
  00b4b	c7 85 e4 fe ff
	ff 00 00 00 00	 mov	 DWORD PTR tv498[ebp], 0
$LN92@LoadItemBa:
  00b55	8b 85 e4 fe ff
	ff		 mov	 eax, DWORD PTR tv498[ebp]
  00b5b	89 85 10 ff ff
	ff		 mov	 DWORD PTR $T12[ebp], eax
  00b61	c7 45 fc ff ff
	ff ff		 mov	 DWORD PTR __$EHRec$[ebp+8], -1
  00b68	8b 8d 10 ff ff
	ff		 mov	 ecx, DWORD PTR $T12[ebp]
  00b6e	89 0d 00 00 00
	00		 mov	 DWORD PTR ?RingEventItemBag@@3PAVCItemBag@@A, ecx ; RingEventItemBag

; 5109 : 	if( RingEventItemBag == NULL )

  00b74	83 3d 00 00 00
	00 00		 cmp	 DWORD PTR ?RingEventItemBag@@3PAVCItemBag@@A, 0 ; RingEventItemBag
  00b7b	75 20		 jne	 SHORT $LN29@LoadItemBa

; 5110 : 	{
; 5111 : 		MsgBox("CItemBag %s", lMsg.Get(110));

  00b7d	6a 6e		 push	 110			; 0000006eH
  00b7f	b9 00 00 00 00	 mov	 ecx, OFFSET ?lMsg@@3VCMsg@@A ; lMsg
  00b84	ff 15 00 00 00
	00		 call	 DWORD PTR __imp_?Get@CMsg@@QAEPADH@Z
  00b8a	50		 push	 eax
  00b8b	68 00 00 00 00	 push	 OFFSET ??_C@_0M@GNOCDNGL@CItemBag?5?$CFs@
  00b90	e8 00 00 00 00	 call	 ?MsgBox@@YAXPADZZ	; MsgBox
  00b95	83 c4 08	 add	 esp, 8

; 5112 : 		return;

  00b98	e9 9e 02 00 00	 jmp	 $LN1@LoadItemBa
$LN29@LoadItemBa:

; 5113 : 	}
; 5114 : 
; 5115 : 	#ifdef SCRIPT_DECODE_WORK
; 5116 : 		RingEventItemBag->Init("eventitembag13.cwz");
; 5117 : 	#else
; 5118 : 		RingEventItemBag->Init("eventitembag13.txt");

  00b9d	68 00 00 00 00	 push	 OFFSET ??_C@_0BD@JFPJMALP@eventitembag13?4txt@
  00ba2	8b 0d 00 00 00
	00		 mov	 ecx, DWORD PTR ?RingEventItemBag@@3PAVCItemBag@@A ; RingEventItemBag
  00ba8	e8 00 00 00 00	 call	 ?Init@CItemBag@@QAEXPAD@Z ; CItemBag::Init

; 5119 : 	#endif
; 5120 : #endif
; 5121 : 
; 5122 : 
; 5123 : #ifdef FRIENDSHIP_EVENT_RING_BOX_20040211		//   -  
; 5124 : 	if( FriendShipItemBag ){delete FriendShipItemBag;}

  00bad	83 3d 00 00 00
	00 00		 cmp	 DWORD PTR ?FriendShipItemBag@@3PAVCItemBag@@A, 0 ; FriendShipItemBag
  00bb4	74 3a		 je	 SHORT $LN30@LoadItemBa
  00bb6	a1 00 00 00 00	 mov	 eax, DWORD PTR ?FriendShipItemBag@@3PAVCItemBag@@A ; FriendShipItemBag
  00bbb	89 85 08 ff ff
	ff		 mov	 DWORD PTR $T10[ebp], eax
  00bc1	83 bd 08 ff ff
	ff 00		 cmp	 DWORD PTR $T10[ebp], 0
  00bc8	74 1c		 je	 SHORT $LN93@LoadItemBa
  00bca	6a 01		 push	 1
  00bcc	8b 8d 08 ff ff
	ff		 mov	 ecx, DWORD PTR $T10[ebp]
  00bd2	8b 11		 mov	 edx, DWORD PTR [ecx]
  00bd4	8b 8d 08 ff ff
	ff		 mov	 ecx, DWORD PTR $T10[ebp]
  00bda	8b 02		 mov	 eax, DWORD PTR [edx]
  00bdc	ff d0		 call	 eax
  00bde	89 85 e4 fe ff
	ff		 mov	 DWORD PTR tv513[ebp], eax
  00be4	eb 0a		 jmp	 SHORT $LN30@LoadItemBa
$LN93@LoadItemBa:
  00be6	c7 85 e4 fe ff
	ff 00 00 00 00	 mov	 DWORD PTR tv513[ebp], 0
$LN30@LoadItemBa:

; 5125 : 	FriendShipItemBag = new CItemBag;

  00bf0	68 94 03 00 00	 push	 916			; 00000394H
  00bf5	e8 00 00 00 00	 call	 ??2@YAPAXI@Z		; operator new
  00bfa	83 c4 04	 add	 esp, 4
  00bfd	89 85 00 ff ff
	ff		 mov	 DWORD PTR $T8[ebp], eax
  00c03	c7 45 fc 0e 00
	00 00		 mov	 DWORD PTR __$EHRec$[ebp+8], 14 ; 0000000eH
  00c0a	83 bd 00 ff ff
	ff 00		 cmp	 DWORD PTR $T8[ebp], 0
  00c11	74 13		 je	 SHORT $LN95@LoadItemBa
  00c13	8b 8d 00 ff ff
	ff		 mov	 ecx, DWORD PTR $T8[ebp]
  00c19	e8 00 00 00 00	 call	 ??0CItemBag@@QAE@XZ	; CItemBag::CItemBag
  00c1e	89 85 e4 fe ff
	ff		 mov	 DWORD PTR tv525[ebp], eax
  00c24	eb 0a		 jmp	 SHORT $LN96@LoadItemBa
$LN95@LoadItemBa:
  00c26	c7 85 e4 fe ff
	ff 00 00 00 00	 mov	 DWORD PTR tv525[ebp], 0
$LN96@LoadItemBa:
  00c30	8b 85 e4 fe ff
	ff		 mov	 eax, DWORD PTR tv525[ebp]
  00c36	89 85 04 ff ff
	ff		 mov	 DWORD PTR $T9[ebp], eax
  00c3c	c7 45 fc ff ff
	ff ff		 mov	 DWORD PTR __$EHRec$[ebp+8], -1
  00c43	8b 8d 04 ff ff
	ff		 mov	 ecx, DWORD PTR $T9[ebp]
  00c49	89 0d 00 00 00
	00		 mov	 DWORD PTR ?FriendShipItemBag@@3PAVCItemBag@@A, ecx ; FriendShipItemBag

; 5126 : 	if( FriendShipItemBag == NULL )

  00c4f	83 3d 00 00 00
	00 00		 cmp	 DWORD PTR ?FriendShipItemBag@@3PAVCItemBag@@A, 0 ; FriendShipItemBag
  00c56	75 20		 jne	 SHORT $LN31@LoadItemBa

; 5127 : 	{
; 5128 : 		MsgBox("CItemBag %s", lMsg.Get(110));

  00c58	6a 6e		 push	 110			; 0000006eH
  00c5a	b9 00 00 00 00	 mov	 ecx, OFFSET ?lMsg@@3VCMsg@@A ; lMsg
  00c5f	ff 15 00 00 00
	00		 call	 DWORD PTR __imp_?Get@CMsg@@QAEPADH@Z
  00c65	50		 push	 eax
  00c66	68 00 00 00 00	 push	 OFFSET ??_C@_0M@GNOCDNGL@CItemBag?5?$CFs@
  00c6b	e8 00 00 00 00	 call	 ?MsgBox@@YAXPADZZ	; MsgBox
  00c70	83 c4 08	 add	 esp, 8

; 5129 : 		return;

  00c73	e9 c3 01 00 00	 jmp	 $LN1@LoadItemBa
$LN31@LoadItemBa:

; 5130 : 	}
; 5131 : 
; 5132 : 	#ifdef SCRIPT_DECODE_WORK
; 5133 : 		FriendShipItemBag->Init("eventitembag14.cwz");
; 5134 : 	#else
; 5135 : 		FriendShipItemBag->Init("eventitembag14.txt");

  00c78	68 00 00 00 00	 push	 OFFSET ??_C@_0BD@IIPMPAAH@eventitembag14?4txt@
  00c7d	8b 0d 00 00 00
	00		 mov	 ecx, DWORD PTR ?FriendShipItemBag@@3PAVCItemBag@@A ; FriendShipItemBag
  00c83	e8 00 00 00 00	 call	 ?Init@CItemBag@@QAEXPAD@Z ; CItemBag::Init

; 5136 : 	#endif
; 5137 : #endif
; 5138 : 
; 5139 : 
; 5140 : #ifdef DARK_LORD_HEART_EVENT_20040810
; 5141 : 	if( DarkLordHeartItemBag ){delete DarkLordHeartItemBag;}

  00c88	83 3d 00 00 00
	00 00		 cmp	 DWORD PTR ?DarkLordHeartItemBag@@3PAVCItemBag@@A, 0 ; DarkLordHeartItemBag
  00c8f	74 3a		 je	 SHORT $LN32@LoadItemBa
  00c91	a1 00 00 00 00	 mov	 eax, DWORD PTR ?DarkLordHeartItemBag@@3PAVCItemBag@@A ; DarkLordHeartItemBag
  00c96	89 85 fc fe ff
	ff		 mov	 DWORD PTR $T7[ebp], eax
  00c9c	83 bd fc fe ff
	ff 00		 cmp	 DWORD PTR $T7[ebp], 0
  00ca3	74 1c		 je	 SHORT $LN97@LoadItemBa
  00ca5	6a 01		 push	 1
  00ca7	8b 8d fc fe ff
	ff		 mov	 ecx, DWORD PTR $T7[ebp]
  00cad	8b 11		 mov	 edx, DWORD PTR [ecx]
  00caf	8b 8d fc fe ff
	ff		 mov	 ecx, DWORD PTR $T7[ebp]
  00cb5	8b 02		 mov	 eax, DWORD PTR [edx]
  00cb7	ff d0		 call	 eax
  00cb9	89 85 e4 fe ff
	ff		 mov	 DWORD PTR tv540[ebp], eax
  00cbf	eb 0a		 jmp	 SHORT $LN32@LoadItemBa
$LN97@LoadItemBa:
  00cc1	c7 85 e4 fe ff
	ff 00 00 00 00	 mov	 DWORD PTR tv540[ebp], 0
$LN32@LoadItemBa:

; 5142 : 	DarkLordHeartItemBag = new CItemBag;

  00ccb	68 94 03 00 00	 push	 916			; 00000394H
  00cd0	e8 00 00 00 00	 call	 ??2@YAPAXI@Z		; operator new
  00cd5	83 c4 04	 add	 esp, 4
  00cd8	89 85 f4 fe ff
	ff		 mov	 DWORD PTR $T5[ebp], eax
  00cde	c7 45 fc 0f 00
	00 00		 mov	 DWORD PTR __$EHRec$[ebp+8], 15 ; 0000000fH
  00ce5	83 bd f4 fe ff
	ff 00		 cmp	 DWORD PTR $T5[ebp], 0
  00cec	74 13		 je	 SHORT $LN99@LoadItemBa
  00cee	8b 8d f4 fe ff
	ff		 mov	 ecx, DWORD PTR $T5[ebp]
  00cf4	e8 00 00 00 00	 call	 ??0CItemBag@@QAE@XZ	; CItemBag::CItemBag
  00cf9	89 85 e4 fe ff
	ff		 mov	 DWORD PTR tv552[ebp], eax
  00cff	eb 0a		 jmp	 SHORT $LN100@LoadItemBa
$LN99@LoadItemBa:
  00d01	c7 85 e4 fe ff
	ff 00 00 00 00	 mov	 DWORD PTR tv552[ebp], 0
$LN100@LoadItemBa:
  00d0b	8b 85 e4 fe ff
	ff		 mov	 eax, DWORD PTR tv552[ebp]
  00d11	89 85 f8 fe ff
	ff		 mov	 DWORD PTR $T6[ebp], eax
  00d17	c7 45 fc ff ff
	ff ff		 mov	 DWORD PTR __$EHRec$[ebp+8], -1
  00d1e	8b 8d f8 fe ff
	ff		 mov	 ecx, DWORD PTR $T6[ebp]
  00d24	89 0d 00 00 00
	00		 mov	 DWORD PTR ?DarkLordHeartItemBag@@3PAVCItemBag@@A, ecx ; DarkLordHeartItemBag

; 5143 : 	if( DarkLordHeartItemBag == NULL )

  00d2a	83 3d 00 00 00
	00 00		 cmp	 DWORD PTR ?DarkLordHeartItemBag@@3PAVCItemBag@@A, 0 ; DarkLordHeartItemBag
  00d31	75 20		 jne	 SHORT $LN33@LoadItemBa

; 5144 : 	{
; 5145 : 		MsgBox("CItemBag %s", lMsg.Get(110));

  00d33	6a 6e		 push	 110			; 0000006eH
  00d35	b9 00 00 00 00	 mov	 ecx, OFFSET ?lMsg@@3VCMsg@@A ; lMsg
  00d3a	ff 15 00 00 00
	00		 call	 DWORD PTR __imp_?Get@CMsg@@QAEPADH@Z
  00d40	50		 push	 eax
  00d41	68 00 00 00 00	 push	 OFFSET ??_C@_0M@GNOCDNGL@CItemBag?5?$CFs@
  00d46	e8 00 00 00 00	 call	 ?MsgBox@@YAXPADZZ	; MsgBox
  00d4b	83 c4 08	 add	 esp, 8

; 5146 : 		return;

  00d4e	e9 e8 00 00 00	 jmp	 $LN1@LoadItemBa
$LN33@LoadItemBa:

; 5147 : 	}
; 5148 : 
; 5149 : 	#ifdef SCRIPT_DECODE_WORK
; 5150 : 		DarkLordHeartItemBag->Init("eventitembag15.cwz");
; 5151 : 	#else
; 5152 : 		DarkLordHeartItemBag->Init("eventitembag15.txt");

  00d53	68 00 00 00 00	 push	 OFFSET ??_C@_0BD@EDKACDKC@eventitembag15?4txt@
  00d58	8b 0d 00 00 00
	00		 mov	 ecx, DWORD PTR ?DarkLordHeartItemBag@@3PAVCItemBag@@A ; DarkLordHeartItemBag
  00d5e	e8 00 00 00 00	 call	 ?Init@CItemBag@@QAEXPAD@Z ; CItemBag::Init

; 5153 : 	#endif
; 5154 : #endif
; 5155 : 
; 5156 : 
; 5157 : #ifdef MODIFY_KUNDUN_REWARD_01_20040915
; 5158 : 	if( KundunEventItemBag ){delete KundunEventItemBag;}

  00d63	83 3d 00 00 00
	00 00		 cmp	 DWORD PTR ?KundunEventItemBag@@3PAVCItemBagEx@@A, 0 ; KundunEventItemBag
  00d6a	74 3a		 je	 SHORT $LN34@LoadItemBa
  00d6c	a1 00 00 00 00	 mov	 eax, DWORD PTR ?KundunEventItemBag@@3PAVCItemBagEx@@A ; KundunEventItemBag
  00d71	89 85 f0 fe ff
	ff		 mov	 DWORD PTR $T4[ebp], eax
  00d77	83 bd f0 fe ff
	ff 00		 cmp	 DWORD PTR $T4[ebp], 0
  00d7e	74 1c		 je	 SHORT $LN101@LoadItemBa
  00d80	6a 01		 push	 1
  00d82	8b 8d f0 fe ff
	ff		 mov	 ecx, DWORD PTR $T4[ebp]
  00d88	8b 11		 mov	 edx, DWORD PTR [ecx]
  00d8a	8b 8d f0 fe ff
	ff		 mov	 ecx, DWORD PTR $T4[ebp]
  00d90	8b 02		 mov	 eax, DWORD PTR [edx]
  00d92	ff d0		 call	 eax
  00d94	89 85 e4 fe ff
	ff		 mov	 DWORD PTR tv567[ebp], eax
  00d9a	eb 0a		 jmp	 SHORT $LN34@LoadItemBa
$LN101@LoadItemBa:
  00d9c	c7 85 e4 fe ff
	ff 00 00 00 00	 mov	 DWORD PTR tv567[ebp], 0
$LN34@LoadItemBa:

; 5159 : 	KundunEventItemBag = new CItemBagEx;

  00da6	68 d8 05 00 00	 push	 1496			; 000005d8H
  00dab	e8 00 00 00 00	 call	 ??2@YAPAXI@Z		; operator new
  00db0	83 c4 04	 add	 esp, 4
  00db3	89 85 e8 fe ff
	ff		 mov	 DWORD PTR $T2[ebp], eax
  00db9	c7 45 fc 10 00
	00 00		 mov	 DWORD PTR __$EHRec$[ebp+8], 16 ; 00000010H
  00dc0	83 bd e8 fe ff
	ff 00		 cmp	 DWORD PTR $T2[ebp], 0
  00dc7	74 13		 je	 SHORT $LN103@LoadItemBa
  00dc9	8b 8d e8 fe ff
	ff		 mov	 ecx, DWORD PTR $T2[ebp]
  00dcf	e8 00 00 00 00	 call	 ??0CItemBagEx@@QAE@XZ	; CItemBagEx::CItemBagEx
  00dd4	89 85 e4 fe ff
	ff		 mov	 DWORD PTR tv611[ebp], eax
  00dda	eb 0a		 jmp	 SHORT $LN104@LoadItemBa
$LN103@LoadItemBa:
  00ddc	c7 85 e4 fe ff
	ff 00 00 00 00	 mov	 DWORD PTR tv611[ebp], 0
$LN104@LoadItemBa:
  00de6	8b 85 e4 fe ff
	ff		 mov	 eax, DWORD PTR tv611[ebp]
  00dec	89 85 ec fe ff
	ff		 mov	 DWORD PTR $T3[ebp], eax
  00df2	c7 45 fc ff ff
	ff ff		 mov	 DWORD PTR __$EHRec$[ebp+8], -1
  00df9	8b 8d ec fe ff
	ff		 mov	 ecx, DWORD PTR $T3[ebp]
  00dff	89 0d 00 00 00
	00		 mov	 DWORD PTR ?KundunEventItemBag@@3PAVCItemBagEx@@A, ecx ; KundunEventItemBag

; 5160 : 	if( KundunEventItemBag == NULL )

  00e05	83 3d 00 00 00
	00 00		 cmp	 DWORD PTR ?KundunEventItemBag@@3PAVCItemBagEx@@A, 0 ; KundunEventItemBag
  00e0c	75 1d		 jne	 SHORT $LN35@LoadItemBa

; 5161 : 	{
; 5162 : 		MsgBox("CItemBag %s", lMsg.Get(110));

  00e0e	6a 6e		 push	 110			; 0000006eH
  00e10	b9 00 00 00 00	 mov	 ecx, OFFSET ?lMsg@@3VCMsg@@A ; lMsg
  00e15	ff 15 00 00 00
	00		 call	 DWORD PTR __imp_?Get@CMsg@@QAEPADH@Z
  00e1b	50		 push	 eax
  00e1c	68 00 00 00 00	 push	 OFFSET ??_C@_0M@GNOCDNGL@CItemBag?5?$CFs@
  00e21	e8 00 00 00 00	 call	 ?MsgBox@@YAXPADZZ	; MsgBox
  00e26	83 c4 08	 add	 esp, 8

; 5163 : 		return;

  00e29	eb 10		 jmp	 SHORT $LN1@LoadItemBa
$LN35@LoadItemBa:

; 5164 : 	}
; 5165 : 
; 5166 : 	#ifdef SCRIPT_DECODE_WORK
; 5167 : 		KundunEventItemBag->Init("eventitembag17.cwz");
; 5168 : 	#else
; 5169 : 		KundunEventItemBag->Init("eventitembag17.txt");

  00e2b	68 00 00 00 00	 push	 OFFSET ??_C@_0BD@OGIICKJ@eventitembag17?4txt@
  00e30	8b 0d 00 00 00
	00		 mov	 ecx, DWORD PTR ?KundunEventItemBag@@3PAVCItemBagEx@@A ; KundunEventItemBag
  00e36	e8 00 00 00 00	 call	 ?Init@CItemBagEx@@QAEXPAD@Z ; CItemBagEx::Init
$LN1@LoadItemBa:

; 5170 : 	#endif
; 5171 : #endif
; 5172 : 
; 5173 : #ifdef ADD_NEW_CASTLE_HUNTZONE_REWARD_01_20050303
; 5174 : 	if( CastleHuntZoneBossItemBag ){delete CastleHuntZoneBossItemBag;}
; 5175 : 	CastleHuntZoneBossItemBag = new CItemBagEx;
; 5176 : 	if( CastleHuntZoneBossItemBag == NULL )
; 5177 : 	{
; 5178 : 		MsgBox("CItemBag %s", lMsg.Get(110));
; 5179 : 		return;
; 5180 : 	}
; 5181 : 
; 5182 : 	#ifdef SCRIPT_DECODE_WORK
; 5183 : 		CastleHuntZoneBossItemBag->Init("eventitembag18.cwz");
; 5184 : 	#else
; 5185 : 		CastleHuntZoneBossItemBag->Init("eventitembag18.txt");
; 5186 : 	#endif
; 5187 : #endif
; 5188 : 
; 5189 : #ifdef CASTLE_SPECIAL_ITEMMIX_20050425
; 5190 : 	if( CastleItemMixItemBag ){delete CastleItemMixItemBag;}
; 5191 : 	CastleItemMixItemBag = new CItemBagEx;
; 5192 : 	if( CastleItemMixItemBag == NULL )
; 5193 : 	{
; 5194 : 		MsgBox("CItemBag %s", lMsg.Get(110));
; 5195 : 		return;
; 5196 : 	}
; 5197 : 
; 5198 : 	#ifdef SCRIPT_DECODE_WORK
; 5199 : 		CastleItemMixItemBag->Init("eventitembag19.cwz");
; 5200 : 	#else
; 5201 : 		CastleItemMixItemBag->Init("eventitembag19.txt");
; 5202 : 	#endif
; 5203 : #endif
; 5204 : 
; 5205 : #ifdef HIDDEN_TREASUREBOX_EVENT_20050804
; 5206 : 	if( HiddenTreasureBoxItemBag ){delete HiddenTreasureBoxItemBag;}
; 5207 : 	HiddenTreasureBoxItemBag = new CItemBagEx;
; 5208 : 	if( HiddenTreasureBoxItemBag == NULL )
; 5209 : 	{
; 5210 : 		MsgBox("CItemBag %s", lMsg.Get(110));
; 5211 : 		return;
; 5212 : 	}
; 5213 : 
; 5214 : 	#ifdef SCRIPT_DECODE_WORK
; 5215 : 		HiddenTreasureBoxItemBag->Init("eventitembag20.cwz");
; 5216 : 	#else
; 5217 : 		HiddenTreasureBoxItemBag->Init("eventitembag20.txt");
; 5218 : 	#endif
; 5219 : #endif
; 5220 : 		
; 5221 : #ifdef MU_CHN_THANKS_COOKIE_EVENT_20040908 
; 5222 : 	ChnThanksCookieEvent = new CItemBagEx;
; 5223 : 
; 5224 : 	if( ChnThanksCookieEvent == NULL )
; 5225 : 	{
; 5226 : 		MsgBox("CItemBag %s", lMsg.Get(110));
; 5227 : 		return;
; 5228 : 	}
; 5229 : 
; 5230 : 	ChnThanksCookieEvent->Init("eventitembag16.txt");
; 5231 : #endif
; 5232 : 
; 5233 : #ifdef CHRISTMAS_RIBBONBOX_EVENT_20051212
; 5234 : 	//  
; 5235 : 	if( RedRibbonBoxEventItemBag )			
; 5236 : 		delete RedRibbonBoxEventItemBag;
; 5237 : 
; 5238 : 	RedRibbonBoxEventItemBag	= new CItemBagEx;			
; 5239 : 	if( RedRibbonBoxEventItemBag == NULL )
; 5240 : 	{
; 5241 : 		MsgBox( "CItemBag %s", lMsg.Get(110) );
; 5242 : 		return;
; 5243 : 	}
; 5244 : 	#ifdef SCRIPT_DECODE_WORK
; 5245 : 		RedRibbonBoxEventItemBag->Init("eventitembag21.cwz");
; 5246 : 	#else
; 5247 : 		RedRibbonBoxEventItemBag->Init("eventitembag21.txt");
; 5248 : 	#endif
; 5249 : 		
; 5250 : 	//  
; 5251 : 	if( GreenRibbonBoxEventItemBag )	
; 5252 : 		delete GreenRibbonBoxEventItemBag;
; 5253 : 
; 5254 : 	GreenRibbonBoxEventItemBag = new CItemBagEx;
; 5255 : 	if( GreenRibbonBoxEventItemBag == NULL )
; 5256 : 	{
; 5257 : 		MsgBox( "CItemBag %s", lMsg.Get(110) );
; 5258 : 		return;
; 5259 : 	}
; 5260 : 	#ifdef SCRIPT_DECODE_WORK
; 5261 : 		GreenRibbonBoxEventItemBag->Init("eventitembag22.cwz");
; 5262 : 	#else
; 5263 : 		GreenRibbonBoxEventItemBag->Init("eventitembag22.txt");
; 5264 : 	#endif
; 5265 : 
; 5266 : 
; 5267 : 	// 
; 5268 : 	if( BlueRibbonBoxEventItemBag )	
; 5269 : 		delete BlueRibbonBoxEventItemBag;
; 5270 : 
; 5271 : 	BlueRibbonBoxEventItemBag	= new CItemBagEx;		
; 5272 : 	if( BlueRibbonBoxEventItemBag == NULL )
; 5273 : 	{
; 5274 : 		MsgBox( "CItemBag %s", lMsg.Get(110) );
; 5275 : 		return;
; 5276 : 	}
; 5277 : 	#ifdef SCRIPT_DECODE_WORK
; 5278 : 		BlueRibbonBoxEventItemBag->Init("eventitembag23.cwz");
; 5279 : 	#else
; 5280 : 		BlueRibbonBoxEventItemBag->Init("eventitembag23.txt");
; 5281 : 	#endif
; 5282 : 
; 5283 : #endif // #ifdef CHRISTMAS_RIBBONBOX_EVENT_20051212
; 5284 : 
; 5285 : #ifdef VALENTINES_DAY_BOX_EVENT_20060124	//   
; 5286 : 	//   
; 5287 : 	if( PinkChocolateBoxEventItemBag )			
; 5288 : 		delete PinkChocolateBoxEventItemBag;
; 5289 : 
; 5290 : 	PinkChocolateBoxEventItemBag	= new CItemBagEx;			
; 5291 : 	if( PinkChocolateBoxEventItemBag == NULL )
; 5292 : 	{
; 5293 : 		MsgBox( "CItemBag %s", lMsg.Get(110) );
; 5294 : 		return;
; 5295 : 	}
; 5296 : 	#ifdef SCRIPT_DECODE_WORK
; 5297 : 		PinkChocolateBoxEventItemBag->Init("eventitembag24.cwz");
; 5298 : 	#else
; 5299 : 		PinkChocolateBoxEventItemBag->Init("eventitembag24.txt");
; 5300 : 	#endif
; 5301 : 		
; 5302 : 	//  
; 5303 : 	if( RedChocolateBoxEventItemBag )	
; 5304 : 		delete RedChocolateBoxEventItemBag;
; 5305 : 
; 5306 : 	RedChocolateBoxEventItemBag = new CItemBagEx;
; 5307 : 	if( RedChocolateBoxEventItemBag == NULL )
; 5308 : 	{
; 5309 : 		MsgBox( "CItemBag %s", lMsg.Get(110) );
; 5310 : 		return;
; 5311 : 	}
; 5312 : 	#ifdef SCRIPT_DECODE_WORK
; 5313 : 		RedChocolateBoxEventItemBag->Init("eventitembag25.cwz");
; 5314 : 	#else
; 5315 : 		RedChocolateBoxEventItemBag->Init("eventitembag25.txt");
; 5316 : 	#endif
; 5317 : 
; 5318 : 
; 5319 : 	// 
; 5320 : 	if( BlueChocolateBoxEventItemBag )	
; 5321 : 		delete BlueChocolateBoxEventItemBag;
; 5322 : 
; 5323 : 	BlueChocolateBoxEventItemBag	= new CItemBagEx;		
; 5324 : 	if( BlueChocolateBoxEventItemBag == NULL )
; 5325 : 	{
; 5326 : 		MsgBox( "CItemBag %s", lMsg.Get(110) );
; 5327 : 		return;
; 5328 : 	}
; 5329 : 	#ifdef SCRIPT_DECODE_WORK
; 5330 : 		BlueChocolateBoxEventItemBag->Init("eventitembag26.cwz");
; 5331 : 	#else
; 5332 : 		BlueChocolateBoxEventItemBag->Init("eventitembag26.txt");
; 5333 : 	#endif
; 5334 : 		
; 5335 : #endif // #ifdef VALENTINES_DAY_BOX_EVENT_20060124
; 5336 : 
; 5337 : #ifdef WHITEDAY_CANDY_BOX_EVENT_20060222	//   
; 5338 : 	//   
; 5339 : 	if( LightPurpleCandyBoxEventItemBag )			
; 5340 : 		delete LightPurpleCandyBoxEventItemBag;
; 5341 : 
; 5342 : 	LightPurpleCandyBoxEventItemBag	= new CItemBagEx;			
; 5343 : 	if( LightPurpleCandyBoxEventItemBag == NULL )
; 5344 : 	{
; 5345 : 		MsgBox( "CItemBag %s", lMsg.Get(110) );
; 5346 : 		return;
; 5347 : 	}
; 5348 : 	#ifdef SCRIPT_DECODE_WORK
; 5349 : 		LightPurpleCandyBoxEventItemBag->Init("eventitembag27.cwz");
; 5350 : 	#else
; 5351 : 		LightPurpleCandyBoxEventItemBag->Init("eventitembag27.txt");
; 5352 : 	#endif
; 5353 : 		
; 5354 : 	//  
; 5355 : 	if( VermilionCandyBoxEventItemBag )	
; 5356 : 		delete VermilionCandyBoxEventItemBag;
; 5357 : 
; 5358 : 	VermilionCandyBoxEventItemBag = new CItemBagEx;
; 5359 : 	if( VermilionCandyBoxEventItemBag == NULL )
; 5360 : 	{
; 5361 : 		MsgBox( "CItemBag %s", lMsg.Get(110) );
; 5362 : 		return;
; 5363 : 	}
; 5364 : 	#ifdef SCRIPT_DECODE_WORK
; 5365 : 		VermilionCandyBoxEventItemBag->Init("eventitembag28.cwz");
; 5366 : 	#else
; 5367 : 		VermilionCandyBoxEventItemBag->Init("eventitembag28.txt");
; 5368 : 	#endif
; 5369 : 
; 5370 : 
; 5371 : 	// 
; 5372 : 	if( DeepBlueCandyBoxEventItemBag )	
; 5373 : 		delete DeepBlueCandyBoxEventItemBag;
; 5374 : 
; 5375 : 	DeepBlueCandyBoxEventItemBag	= new CItemBagEx;		
; 5376 : 	if( DeepBlueCandyBoxEventItemBag == NULL )
; 5377 : 	{
; 5378 : 		MsgBox( "CItemBag %s", lMsg.Get(110) );
; 5379 : 		return;
; 5380 : 	}
; 5381 : 	#ifdef SCRIPT_DECODE_WORK
; 5382 : 		DeepBlueCandyBoxEventItemBag->Init("eventitembag29.cwz");
; 5383 : 	#else
; 5384 : 		DeepBlueCandyBoxEventItemBag->Init("eventitembag29.txt");
; 5385 : 	#endif
; 5386 : 		
; 5387 : #endif // #ifdef WHITEDAY_CANDY_BOX_EVENT_20060222
; 5388 : 
; 5389 : #ifdef ADD_CRYWOLF_MONSTER_ITEMDROP_20060404	//   (eventitembag30.txt) 	
; 5390 : 	if( CrywolfDarkElfItemBag )	
; 5391 : 		delete CrywolfDarkElfItemBag;
; 5392 : 
; 5393 : 	CrywolfDarkElfItemBag	= new CItemBagEx;		
; 5394 : 	if( CrywolfDarkElfItemBag == NULL )
; 5395 : 	{
; 5396 : 		MsgBox( "CItemBag %s", lMsg.Get(110) );
; 5397 : 		return;
; 5398 : 	}
; 5399 : 	#ifdef SCRIPT_DECODE_WORK
; 5400 : 		CrywolfDarkElfItemBag->Init("eventitembag30.cwz");
; 5401 : 	#else
; 5402 : 		CrywolfDarkElfItemBag->Init("eventitembag30.txt");
; 5403 : 	#endif
; 5404 : #endif	// #ifdef ADD_CRYWOLF_MONSTER_ITEMDROP_20060404
; 5405 : 
; 5406 : #ifdef ADD_CRYWOLF_MONSTER_ITEMDROP_20060404		//   (eventitembag31.txt) 
; 5407 : 	if( CrywolfBossMonsterItemBag )	
; 5408 : 		delete CrywolfBossMonsterItemBag;
; 5409 : 
; 5410 : 	CrywolfBossMonsterItemBag	= new CItemBagEx;		
; 5411 : 	if( CrywolfBossMonsterItemBag == NULL )
; 5412 : 	{
; 5413 : 		MsgBox( "CItemBag %s", lMsg.Get(110) );
; 5414 : 		return;
; 5415 : 	}
; 5416 : 	#ifdef SCRIPT_DECODE_WORK
; 5417 : 		CrywolfBossMonsterItemBag->Init("eventitembag31.cwz");
; 5418 : 	#else
; 5419 : 		CrywolfBossMonsterItemBag->Init("eventitembag31.txt");
; 5420 : 	#endif
; 5421 : #endif	// #ifdef ADD_CRYWOLF_MONSTER_ITEMDROP_20060404
; 5422 : 
; 5423 : #ifdef KANTURU_MONSTER_ITEMDROP_20060807		//    (eventitembag32.txt, eventitembag33.txt) 
; 5424 : 	//  
; 5425 : 	if( KanturuMayaHandItemBag )	
; 5426 : 		delete KanturuMayaHandItemBag;
; 5427 : 
; 5428 : 	KanturuMayaHandItemBag	= new CItemBagEx;		
; 5429 : 	if( KanturuMayaHandItemBag == NULL )
; 5430 : 	{
; 5431 : 		MsgBox( "CItemBag %s", lMsg.Get(110) );
; 5432 : 		return;
; 5433 : 	}
; 5434 : 	#ifdef SCRIPT_DECODE_WORK
; 5435 : 		KanturuMayaHandItemBag->Init("eventitembag32.cwz");
; 5436 : 	#else
; 5437 : 		KanturuMayaHandItemBag->Init("eventitembag32.txt");
; 5438 : 	#endif
; 5439 : 
; 5440 : 	// 
; 5441 : 	if( KanturuNightmareItemBag )	
; 5442 : 		delete KanturuNightmareItemBag;
; 5443 : 
; 5444 : 	KanturuNightmareItemBag	= new CItemBagEx;		
; 5445 : 	if( KanturuNightmareItemBag == NULL )
; 5446 : 	{
; 5447 : 		MsgBox( "CItemBag %s", lMsg.Get(110) );
; 5448 : 		return;
; 5449 : 	}
; 5450 : 	#ifdef SCRIPT_DECODE_WORK
; 5451 : 		KanturuNightmareItemBag->Init("eventitembag33.cwz");
; 5452 : 	#else
; 5453 : 		KanturuNightmareItemBag->Init("eventitembag33.txt");
; 5454 : 	#endif
; 5455 : #endif	// #ifdef KANTURU_MONSTER_ITEMDROP_20060807
; 5456 : 
; 5457 : #ifdef HALLOWINDAY_JACK_O_LANTERN_EVENT_20061017
; 5458 : 	if( HallowinDayEventItemBag )
; 5459 : 	{
; 5460 : 		delete HallowinDayEventItemBag;
; 5461 : 	}
; 5462 : 
; 5463 : 	HallowinDayEventItemBag = new CItemBagEx;
; 5464 : 	if( HallowinDayEventItemBag == NULL )
; 5465 : 	{
; 5466 : 		MsgBox( "CItemBag %s", lMsg.Get(110) );
; 5467 : 		return;
; 5468 : 	}
; 5469 : 	#ifdef SCRIPT_DECODE_WORK
; 5470 : 		HallowinDayEventItemBag->Init("eventitembag34.cwz");
; 5471 : 	#else
; 5472 : 		HallowinDayEventItemBag->Init("eventitembag34.txt");
; 5473 : 	#endif
; 5474 : #endif // HALLOWINDAY_JACK_O_LANTERN_EVENT_20061017
; 5475 : 
; 5476 : #ifdef UPDATE_LOWLEVEL_SUPPORT_RING_20070119	// , ( )  /
; 5477 : 	if( RingOfHeroEventItemBag ){delete RingOfHeroEventItemBag;}
; 5478 : 	RingOfHeroEventItemBag = new CItemBag;
; 5479 : 	if( RingOfHeroEventItemBag == NULL )
; 5480 : 	{
; 5481 : 		MsgBox("CItemBag %s", lMsg.Get(110));
; 5482 : 		return;
; 5483 : 	}
; 5484 : 
; 5485 : 	#ifdef SCRIPT_DECODE_WORK
; 5486 : 		RingOfHeroEventItemBag->Init("eventitembag35.cwz");
; 5487 : 	#else
; 5488 : 		RingOfHeroEventItemBag->Init("eventitembag35.txt");
; 5489 : 	#endif
; 5490 : #endif	// UPDATE_LOWLEVEL_SUPPORT_RING_20070119
; 5491 : 
; 5492 : #ifdef PCBANG_COUPON_EVENT_20060124
; 5493 : 	if( PCBangEventNPCItemBag )
; 5494 : 		delete PCBangEventNPCItemBag;
; 5495 : 
; 5496 : 	PCBangEventNPCItemBag = new CItemBagEx;
; 5497 : 	if( PCBangEventNPCItemBag == NULL )
; 5498 : 	{
; 5499 : 		MsgBox( "CItemBag %s", lMsg.Get( 110 ) );
; 5500 : 		return;
; 5501 : 	}
; 5502 : 
; 5503 : 	#ifdef SCRIPT_DECODE_WORK
; 5504 : 		PCBangEventNPCItemBag->Init( "eventitembag36.cwz" );
; 5505 : 	#else
; 5506 : 		PCBangEventNPCItemBag->Init( "eventitembag36.txt" );
; 5507 : 	#endif		
; 5508 : #endif
; 5509 : 
; 5510 : #ifdef UPDATE_NEWYEAR_LUCKYBAG_MONSTER_20070131				//   
; 5511 : 	if( NewYearLuckyBagItemBag ){delete NewYearLuckyBagItemBag;}
; 5512 : 	NewYearLuckyBagItemBag = new CProbabilityItemBag;
; 5513 : 	if( NewYearLuckyBagItemBag == NULL )
; 5514 : 	{
; 5515 : 		MsgBox("CItemBag %s", lMsg.Get(110));
; 5516 : 		return;
; 5517 : 	}
; 5518 : 
; 5519 : 	//#ifdef SCRIPT_DECODE_WORK
; 5520 : 	//	NewYearLuckyBagItemBag->Init("eventitembag37.cwz");
; 5521 : 	//#else
; 5522 : 		NewYearLuckyBagItemBag->ProbabilityItemBagInit("eventitembag37.txt");
; 5523 : 	//#endif
; 5524 : #endif
; 5525 : 
; 5526 : #ifdef UPDATE_GM_FUNCTION_20070228							// GM     
; 5527 : 		if( GMPresentBoxItemBag ) { delete GMPresentBoxItemBag; }
; 5528 : 		GMPresentBoxItemBag	= new CProbabilityItemBag;
; 5529 : 		if( GMPresentBoxItemBag == NULL )
; 5530 : 		{
; 5531 : 			MsgBox("CItemBag %s", lMsg.Get(110));
; 5532 : 			return;
; 5533 : 		}
; 5534 : 
; 5535 : 		GMPresentBoxItemBag->ProbabilityItemBagInit("eventitembag41.txt");
; 5536 : #endif
; 5537 : 
; 5538 : #ifdef PCBANG_POINT_SYSTEM_20070206						//     
; 5539 : 	if( BoxOfGreenChaosItemBag )
; 5540 : 		delete BoxOfGreenChaosItemBag;
; 5541 : 
; 5542 : 	BoxOfGreenChaosItemBag = new CProbabilityItemBag;
; 5543 : 	if( BoxOfGreenChaosItemBag == NULL )
; 5544 : 	{
; 5545 : 		MsgBox( "CItemBag %s", lMsg.Get( 110 ) );
; 5546 : 		return;
; 5547 : 	}
; 5548 : 
; 5549 : 	#ifdef SCRIPT_DECODE_WORK
; 5550 : 		BoxOfGreenChaosItemBag->ProbabilityItemBagInit( "eventitembag38.cwz" );
; 5551 : 	#else
; 5552 : 		BoxOfGreenChaosItemBag->ProbabilityItemBagInit( "eventitembag38.txt" );
; 5553 : 	#endif
; 5554 : 
; 5555 : 	//  
; 5556 : 	if( BoxOfRedChaosItemBag )
; 5557 : 		delete BoxOfRedChaosItemBag;
; 5558 : 
; 5559 : 	BoxOfRedChaosItemBag = new CProbabilityItemBag;
; 5560 : 	if( BoxOfRedChaosItemBag == NULL )
; 5561 : 	{
; 5562 : 		MsgBox( "CItemBag %s", lMsg.Get( 110 ) );
; 5563 : 		return;
; 5564 : 	}
; 5565 : 
; 5566 : 	#ifdef SCRIPT_DECODE_WORK
; 5567 : 		BoxOfRedChaosItemBag->ProbabilityItemBagInit( "eventitembag39.cwz" );
; 5568 : 	#else
; 5569 : 		BoxOfRedChaosItemBag->ProbabilityItemBagInit( "eventitembag39.txt" );
; 5570 : 	#endif
; 5571 : 
; 5572 : 	//  
; 5573 : 	if( BoxOfPurpleChaosItemBag )
; 5574 : 		delete BoxOfPurpleChaosItemBag;
; 5575 : 
; 5576 : 	BoxOfPurpleChaosItemBag = new CProbabilityItemBag;
; 5577 : 	if( BoxOfPurpleChaosItemBag == NULL )
; 5578 : 	{
; 5579 : 		MsgBox( "CItemBag %s", lMsg.Get( 110 ) );
; 5580 : 		return;
; 5581 : 	}
; 5582 : 
; 5583 : 	#ifdef SCRIPT_DECODE_WORK
; 5584 : 		BoxOfPurpleChaosItemBag->ProbabilityItemBagInit( "eventitembag40.cwz" );
; 5585 : 	#else
; 5586 : 		BoxOfPurpleChaosItemBag->ProbabilityItemBagInit( "eventitembag40.txt" );
; 5587 : 	#endif		
; 5588 : #endif	// PCBANG_POINT_SYSTEM_20070206
; 5589 : 
; 5590 : #ifdef UPDATE_NPC_REO_NEW_EVENTITEMBACK_20080408
; 5591 : 		if( ItemGiveReoEventItemBag ) { delete ItemGiveReoEventItemBag; }
; 5592 : 		ItemGiveReoEventItemBag	= new CProbabilityItemBag;
; 5593 : 		if( ItemGiveReoEventItemBag == NULL )
; 5594 : 		{
; 5595 : 			MsgBox("CItemBag %s", lMsg.Get(110));
; 5596 : 			return;
; 5597 : 		}
; 5598 : 		
; 5599 : 		ItemGiveReoEventItemBag->ProbabilityItemBagInit("eventitembag45.txt");
; 5600 : #else	// UPDATE_NPC_REO_NEW_EVENTITEMBACK_20080408		
; 5601 : #ifdef WHITEANGEL_GET_ITEM_EVENT_20060822
; 5602 : 	if( ItemGiveEventItemBag )
; 5603 : 		delete ItemGiveEventItemBag;
; 5604 : 
; 5605 : 	ItemGiveEventItemBag = new CItemBagEx;
; 5606 : 	if( ItemGiveEventItemBag == NULL )
; 5607 : 	{
; 5608 : 		MsgBox( "CItemBag %s", lMsg.Get( 110 ) );
; 5609 : 		return;
; 5610 : 	}
; 5611 : 
; 5612 : 	#ifdef SCRIPT_DECODE_WORK
; 5613 : 		ItemGiveEventItemBag->Init( "eventitembag45.cwz" );
; 5614 : 	#else
; 5615 : 		ItemGiveEventItemBag->Init( "eventitembag45.txt" );
; 5616 : 	#endif		
; 5617 : #endif	// WHITEANGEL_GET_ITEM_EVENT_20060822
; 5618 : #endif	// UPDATE_NPC_REO_NEW_EVENTITEMBACK_20080408
; 5619 : 
; 5620 : #ifdef ADD_RAKLION_20080408
; 5621 : 		// eventitembag52.txt 
; 5622 : 		if( pRaklionSelupanItemBag )
; 5623 : 			delete pRaklionSelupanItemBag;
; 5624 : 		
; 5625 : 		pRaklionSelupanItemBag = new CProbabilityItemBag;
; 5626 : 		if( pRaklionSelupanItemBag == NULL )
; 5627 : 		{
; 5628 : 			MsgBox( "CProbabilityItemBag %s", lMsg.Get( 110 ) );
; 5629 : 			return;
; 5630 : 		}
; 5631 : 		
; 5632 : 		pRaklionSelupanItemBag->ProbabilityItemBagInit( "eventitembag52.txt" );
; 5633 : #endif // ADD_RAKLION_20080408
; 5634 : 
; 5635 : #ifdef ADD_GAMBLING_20090120
; 5636 : 		// eventitembag59.txt 
; 5637 : 		if( pGamblingSystemItemBag )
; 5638 : 			delete pGamblingSystemItemBag;
; 5639 : 		
; 5640 : 		pGamblingSystemItemBag = new CGamblingItemBag;
; 5641 : 		if( pGamblingSystemItemBag == NULL )
; 5642 : 		{
; 5643 : 			MsgBox( "CGamblingItemBag %s", lMsg.Get( 110 ) );
; 5644 : 			return;
; 5645 : 		}
; 5646 : 		
; 5647 : 		pGamblingSystemItemBag->GamblingItemBagInit( "eventitembag59.txt" );
; 5648 : #endif // ADD_GAMBLING_20090120
; 5649 : 
; 5650 : #ifdef ADD_SUMMER_FIRECRACKER_MONSTER_EVENT_20090610	//    
; 5651 : 		if( FireCrackerMonsterEventItemBag )
; 5652 : 			delete FireCrackerMonsterEventItemBag;
; 5653 : 		
; 5654 : 		FireCrackerMonsterEventItemBag = new CProbabilityItemBag;
; 5655 : 		if( FireCrackerMonsterEventItemBag == NULL )
; 5656 : 		{
; 5657 : 			MsgBox( "CProbabilityItemBag %s", lMsg.Get( 110 ) );
; 5658 : 			return;
; 5659 : 		}
; 5660 : 		
; 5661 : 	#ifdef SCRIPT_DECODE_WORK
; 5662 : 		#ifdef MODIFY_FIRECRACKER_EVENTITEMBAG_NUMBER_CHANGE_20090930
; 5663 : 		FireCrackerMonsterEventItemBag->ProbabilityItemBagInit( "eventitembag64.cwz" );
; 5664 : 		#else // MODIFY_FIRECRACKER_EVENTITEMBAG_NUMBER_CHANGE_20090930
; 5665 : 		FireCrackerMonsterEventItemBag->ProbabilityItemBagInit( "eventitembag61.cwz" );
; 5666 : 		#endif // MODIFY_FIRECRACKER_EVENTITEMBAG_NUMBER_CHANGE_20090930
; 5667 : 	#else
; 5668 : 		#ifdef MODIFY_FIRECRACKER_EVENTITEMBAG_NUMBER_CHANGE_20090930
; 5669 : 		FireCrackerMonsterEventItemBag->ProbabilityItemBagInit( "eventitembag64.txt" );
; 5670 : 		#else // MODIFY_FIRECRACKER_EVENTITEMBAG_NUMBER_CHANGE_20090930
; 5671 : 		FireCrackerMonsterEventItemBag->ProbabilityItemBagInit( "eventitembag61.txt" );
; 5672 : 		#endif // MODIFY_FIRECRACKER_EVENTITEMBAG_NUMBER_CHANGE_20090930
; 5673 : 	#endif	
; 5674 : #endif // ADD_SUMMER_FIRECRACKER_MONSTER_EVENT_20090610
; 5675 : 
; 5676 : #ifdef UPDATE_LUCKY_COIN_EVENT_20081029					//     
; 5677 : 		// eventitembag56.txt 
; 5678 : 		if( pLuckyCoinEventItemBag10 )
; 5679 : 			delete pLuckyCoinEventItemBag10;
; 5680 : 		
; 5681 : 		pLuckyCoinEventItemBag10 = new CProbabilityItemBag;
; 5682 : 		if( pLuckyCoinEventItemBag10 == NULL )
; 5683 : 		{
; 5684 : 			MsgBox( "CProbabilityItemBag %s", lMsg.Get( 110 ) );
; 5685 : 			return;
; 5686 : 		}
; 5687 : 		
; 5688 : 		pLuckyCoinEventItemBag10->ProbabilityItemBagInit( "eventitembag56.txt" );
; 5689 : 
; 5690 : 		// eventitembag57.txt 
; 5691 : 		if( pLuckyCoinEventItemBag20 )
; 5692 : 			delete pLuckyCoinEventItemBag20;
; 5693 : 		
; 5694 : 		pLuckyCoinEventItemBag20 = new CProbabilityItemBag;
; 5695 : 		if( pLuckyCoinEventItemBag20 == NULL )
; 5696 : 		{
; 5697 : 			MsgBox( "CProbabilityItemBag %s", lMsg.Get( 110 ) );
; 5698 : 			return;
; 5699 : 		}
; 5700 : 		
; 5701 : 		pLuckyCoinEventItemBag20->ProbabilityItemBagInit( "eventitembag57.txt" );
; 5702 : 
; 5703 : 		// eventitembag58.txt 
; 5704 : 		if( pLuckyCoinEventItemBag30 )
; 5705 : 			delete pLuckyCoinEventItemBag30;
; 5706 : 		
; 5707 : 		pLuckyCoinEventItemBag30 = new CProbabilityItemBag;
; 5708 : 		if( pLuckyCoinEventItemBag30 == NULL )
; 5709 : 		{
; 5710 : 			MsgBox( "CProbabilityItemBag %s", lMsg.Get( 110 ) );
; 5711 : 			return;
; 5712 : 		}
; 5713 : 		
; 5714 : 		pLuckyCoinEventItemBag30->ProbabilityItemBagInit( "eventitembag58.txt" );
; 5715 : #endif	// UPDATE_LUCKY_COIN_EVENT_20081029
; 5716 : 
; 5717 : #ifdef ADD_EVENT_MAP_ILLUSION_TEMPLE_20070328	//      
; 5718 : 		if( IllusionTempleGhostItemBagA ) { delete IllusionTempleGhostItemBagA; }
; 5719 : 		IllusionTempleGhostItemBagA	= new CProbabilityItemBag;
; 5720 : 		if( IllusionTempleGhostItemBagA == NULL )
; 5721 : 		{
; 5722 : 			MsgBox("CItemBag %s", lMsg.Get(110));
; 5723 : 			return;
; 5724 : 		}
; 5725 : 		IllusionTempleGhostItemBagA->ProbabilityItemBagInit("eventitembag42.txt");
; 5726 : 		
; 5727 : 		if( IllusionTempleGhostItemBagB ) { delete IllusionTempleGhostItemBagB; }
; 5728 : 		IllusionTempleGhostItemBagB	= new CProbabilityItemBag;
; 5729 : 		if( IllusionTempleGhostItemBagB == NULL )
; 5730 : 		{
; 5731 : 			MsgBox("CItemBag %s", lMsg.Get(110));
; 5732 : 			return;
; 5733 : 		}
; 5734 : 		IllusionTempleGhostItemBagB->ProbabilityItemBagInit("eventitembag43.txt");
; 5735 : 
; 5736 : 		if( IllusionTempleGhostItemBagC ) { delete IllusionTempleGhostItemBagC; }
; 5737 : 		IllusionTempleGhostItemBagC	= new CProbabilityItemBag;
; 5738 : 		if( IllusionTempleGhostItemBagC == NULL )
; 5739 : 		{
; 5740 : 			MsgBox("CItemBag %s", lMsg.Get(110));
; 5741 : 			return;
; 5742 : 		}
; 5743 : 		IllusionTempleGhostItemBagC->ProbabilityItemBagInit("eventitembag44.txt");
; 5744 : #endif	// ADD_EVENT_MAP_ILLUSION_TEMPLE_20070328
; 5745 : 
; 5746 : #ifdef CHUSEOK_MONSTER_EVENT_20070823	// eventitembag46.txt
; 5747 : 	if( ChuseokMonsterEventItemBag )
; 5748 : 		delete ChuseokMonsterEventItemBag;
; 5749 : 
; 5750 : 	ChuseokMonsterEventItemBag = new CProbabilityItemBag;
; 5751 : 	if( ChuseokMonsterEventItemBag == NULL )
; 5752 : 	{
; 5753 : 		MsgBox( "CProbabilityItemBag %s", lMsg.Get( 110 ) );
; 5754 : 		return;
; 5755 : 	}
; 5756 : 
; 5757 : 	#ifdef SCRIPT_DECODE_WORK
; 5758 : 		ChuseokMonsterEventItemBag->ProbabilityItemBagInit( "eventitembag46.cwz" );
; 5759 : 	#else
; 5760 : 		ChuseokMonsterEventItemBag->ProbabilityItemBagInit( "eventitembag46.txt" );
; 5761 : 	#endif	
; 5762 : #endif	// CHUSEOK_MONSTER_EVENT_20070823
; 5763 : 
; 5764 : #ifdef ADD_ITEM_GIVE_NPC_ALAN_20070823	// eventitembag47.txt
; 5765 : 	if( NpcAlanEventItemBag )
; 5766 : 		delete NpcAlanEventItemBag;
; 5767 : 
; 5768 : 	NpcAlanEventItemBag = new CProbabilityItemBag;
; 5769 : 	if( NpcAlanEventItemBag == NULL )
; 5770 : 	{
; 5771 : 		MsgBox( "CProbabilityItemBag %s", lMsg.Get( 110 ) );
; 5772 : 		return;
; 5773 : 	}
; 5774 : 
; 5775 : 	#ifdef SCRIPT_DECODE_WORK
; 5776 : 		NpcAlanEventItemBag->ProbabilityItemBagInit( "eventitembag47.cwz" );
; 5777 : 	#else
; 5778 : 		NpcAlanEventItemBag->ProbabilityItemBagInit( "eventitembag47.txt" );
; 5779 : 	#endif		
; 5780 : #endif	// ADD_ITEM_GIVE_NPC_ALAN_20070823
; 5781 : 
; 5782 : #ifdef ADD_EVENT_CHERRYBLOSSOM_20080312
; 5783 : 		{
; 5784 : 			//eventitembag48.txt
; 5785 : 			if (pCherryBlossomEventItemBag)
; 5786 : 				delete pCherryBlossomEventItemBag;
; 5787 : 			
; 5788 : 			pCherryBlossomEventItemBag = new CProbabilityItemBag;
; 5789 : 			if (pCherryBlossomEventItemBag == NULL)
; 5790 : 			{
; 5791 : 				MsgBox("CProbabilityItemBag %s", lMsg.Get( 110 ));
; 5792 : 				return;
; 5793 : 			}
; 5794 : 			
; 5795 : #ifdef SCRIPT_DECODE_WORK
; 5796 : 			pCherryBlossomEventItemBag->ProbabilityItemBagInit( "eventitembag48.cwz" );
; 5797 : #else
; 5798 : 			pCherryBlossomEventItemBag->ProbabilityItemBagInit( "eventitembag48.txt" );
; 5799 : #endif
; 5800 : 			
; 5801 : 			
; 5802 : 			//eventitembag49.txt
; 5803 : 			if (pCherryBlossomEventItemBagA)
; 5804 : 				delete pCherryBlossomEventItemBagA;
; 5805 : 			
; 5806 : 			pCherryBlossomEventItemBagA = new CProbabilityItemBag;
; 5807 : 			if (pCherryBlossomEventItemBagA == NULL)
; 5808 : 			{
; 5809 : 				MsgBox("CProbabilityItemBag-A %s", lMsg.Get( 110 ));
; 5810 : 				return;
; 5811 : 			}
; 5812 : 			
; 5813 : #ifdef SCRIPT_DECODE_WORK
; 5814 : 			pCherryBlossomEventItemBagA->ProbabilityItemBagInit( "eventitembag49.cwz" );
; 5815 : #else
; 5816 : 			pCherryBlossomEventItemBagA->ProbabilityItemBagInit( "eventitembag49.txt" );
; 5817 : #endif
; 5818 : 			
; 5819 : 			//eventitembag50.txt
; 5820 : 			if (pCherryBlossomEventItemBagB)
; 5821 : 				delete pCherryBlossomEventItemBagB;
; 5822 : 			
; 5823 : 			pCherryBlossomEventItemBagB = new CProbabilityItemBag;
; 5824 : 			if (pCherryBlossomEventItemBagB == NULL)
; 5825 : 			{
; 5826 : 				MsgBox("CProbabilityItemBag-B %s", lMsg.Get( 110 ));
; 5827 : 				return;
; 5828 : 			}
; 5829 : 			
; 5830 : #ifdef SCRIPT_DECODE_WORK
; 5831 : 			pCherryBlossomEventItemBagB->ProbabilityItemBagInit( "eventitembag50.cwz" );
; 5832 : #else
; 5833 : 			pCherryBlossomEventItemBagB->ProbabilityItemBagInit( "eventitembag50.txt" );
; 5834 : #endif
; 5835 : 			
; 5836 : 			//eventitembag51.txt
; 5837 : 			if (pCherryBlossomEventItemBagC)
; 5838 : 				delete pCherryBlossomEventItemBagC;
; 5839 : 			
; 5840 : 			pCherryBlossomEventItemBagC = new CProbabilityItemBag;
; 5841 : 			if (pCherryBlossomEventItemBagC == NULL)
; 5842 : 			{
; 5843 : 				MsgBox("CProbabilityItemBag-C %s", lMsg.Get( 110 ));
; 5844 : 				return;
; 5845 : 			}
; 5846 : 			
; 5847 : #ifdef SCRIPT_DECODE_WORK
; 5848 : 			pCherryBlossomEventItemBagC->ProbabilityItemBagInit( "eventitembag51.cwz" );
; 5849 : #else
; 5850 : 			pCherryBlossomEventItemBagC->ProbabilityItemBagInit( "eventitembag51.txt" );
; 5851 : #endif
; 5852 : 		}
; 5853 : #endif // ADD_EVENT_CHERRYBLOSSOM_20080312		
; 5854 : 
; 5855 : 
; 5856 : #ifdef ADD_GIFTITEM_XMASEVENT_20081030
; 5857 : 		{
; 5858 : 			
; 5859 : 			if(pSantaNpcEventItem)
; 5860 : 				delete pSantaNpcEventItem;
; 5861 : 			
; 5862 : 			pSantaNpcEventItem = new CProbabilityItemBag;
; 5863 : 			if(pSantaNpcEventItem == NULL) {
; 5864 : 				MsgBox("CProbabilityItemBag %s", lMsg.Get( 110 ));
; 5865 : 				return;
; 5866 : 			}
; 5867 : 			
; 5868 : #ifdef SCRIPT_DECODE_WORK
; 5869 : 			pSantaNpcEventItem->ProbabilityItemBagInit("eventitembag53.cwz");
; 5870 : #else
; 5871 : 			pSantaNpcEventItem->ProbabilityItemBagInit("eventitembag53.txt");
; 5872 : #endif //SCRIPT_DECODE_WORK
; 5873 : 			
; 5874 : 			if(pSantaNpcEventItem100)
; 5875 : 				delete pSantaNpcEventItem100;
; 5876 : 			
; 5877 : 			pSantaNpcEventItem100 = new CProbabilityItemBag;
; 5878 : 			if(pSantaNpcEventItem100 == NULL) {
; 5879 : 				MsgBox("CProbabilityItemBag100 %s", lMsg.Get( 110 ));
; 5880 : 				return;
; 5881 : 			}
; 5882 : #ifdef SCRPIPT_DECODE_WORK
; 5883 : 			pSantaNpcEventItem100->ProbabilityItemBagInit("eventitembag54.cwz");
; 5884 : #else 
; 5885 : 			pSantaNpcEventItem100->ProbabilityItemBagInit("eventitembag54.txt");
; 5886 : #endif //SCRPIPT_DECODE_WORK
; 5887 : 			
; 5888 : 			if(pSantaNpcEventItem1000)
; 5889 : 				delete pSantaNpcEventItem1000;
; 5890 : 			
; 5891 : 			pSantaNpcEventItem1000 = new CProbabilityItemBag;
; 5892 : 			if(pSantaNpcEventItem1000 == NULL) {
; 5893 : 				MsgBox("CProbabilityItemBag1000 %s", lMsg.Get( 110 ));
; 5894 : 				return;
; 5895 : 			}
; 5896 : #ifdef SCRIPT_DECODE_WORK
; 5897 : 			pSantaNpcEventItem1000->ProbabilityItemBagInit("eventitembag55.cwz");
; 5898 : #else 
; 5899 : 			pSantaNpcEventItem1000->ProbabilityItemBagInit("eventitembag55.txt");
; 5900 : #endif //SCRIPT_DECODE_WORK
; 5901 : 			
; 5902 : 		}
; 5903 : #endif //ADD_GIFTITEM_XMASEVENT_20081030
; 5904 : }

  00e3b	8b 4d f4	 mov	 ecx, DWORD PTR __$EHRec$[ebp]
  00e3e	64 89 0d 00 00
	00 00		 mov	 DWORD PTR fs:0, ecx
  00e45	59		 pop	 ecx
  00e46	5f		 pop	 edi
  00e47	5e		 pop	 esi
  00e48	5b		 pop	 ebx
  00e49	8b e5		 mov	 esp, ebp
  00e4b	5d		 pop	 ebp
  00e4c	c3		 ret	 0
_TEXT	ENDS
;	COMDAT text$x
text$x	SEGMENT
__unwindfunclet$?LoadItemBag@@YAXXZ$0:
  00000	68 94 03 00 00	 push	 916			; 00000394H
  00005	8b 45 a8	 mov	 eax, DWORD PTR $T50[ebp]
  00008	50		 push	 eax
  00009	e8 00 00 00 00	 call	 ??3@YAXPAXI@Z		; operator delete
  0000e	83 c4 08	 add	 esp, 8
  00011	c3		 ret	 0
__unwindfunclet$?LoadItemBag@@YAXXZ$1:
  00012	68 94 03 00 00	 push	 916			; 00000394H
  00017	8b 45 9c	 mov	 eax, DWORD PTR $T47[ebp]
  0001a	50		 push	 eax
  0001b	e8 00 00 00 00	 call	 ??3@YAXPAXI@Z		; operator delete
  00020	83 c4 08	 add	 esp, 8
  00023	c3		 ret	 0
__unwindfunclet$?LoadItemBag@@YAXXZ$2:
  00024	68 94 03 00 00	 push	 916			; 00000394H
  00029	8b 45 90	 mov	 eax, DWORD PTR $T44[ebp]
  0002c	50		 push	 eax
  0002d	e8 00 00 00 00	 call	 ??3@YAXPAXI@Z		; operator delete
  00032	83 c4 08	 add	 esp, 8
  00035	c3		 ret	 0
__unwindfunclet$?LoadItemBag@@YAXXZ$3:
  00036	68 d8 05 00 00	 push	 1496			; 000005d8H
  0003b	8b 45 84	 mov	 eax, DWORD PTR $T41[ebp]
  0003e	50		 push	 eax
  0003f	e8 00 00 00 00	 call	 ??3@YAXPAXI@Z		; operator delete
  00044	83 c4 08	 add	 esp, 8
  00047	c3		 ret	 0
__unwindfunclet$?LoadItemBag@@YAXXZ$4:
  00048	68 94 03 00 00	 push	 916			; 00000394H
  0004d	8b 85 78 ff ff
	ff		 mov	 eax, DWORD PTR $T38[ebp]
  00053	50		 push	 eax
  00054	e8 00 00 00 00	 call	 ??3@YAXPAXI@Z		; operator delete
  00059	83 c4 08	 add	 esp, 8
  0005c	c3		 ret	 0
__unwindfunclet$?LoadItemBag@@YAXXZ$5:
  0005d	68 94 03 00 00	 push	 916			; 00000394H
  00062	8b 85 6c ff ff
	ff		 mov	 eax, DWORD PTR $T35[ebp]
  00068	50		 push	 eax
  00069	e8 00 00 00 00	 call	 ??3@YAXPAXI@Z		; operator delete
  0006e	83 c4 08	 add	 esp, 8
  00071	c3		 ret	 0
__unwindfunclet$?LoadItemBag@@YAXXZ$6:
  00072	68 94 03 00 00	 push	 916			; 00000394H
  00077	8b 85 60 ff ff
	ff		 mov	 eax, DWORD PTR $T32[ebp]
  0007d	50		 push	 eax
  0007e	e8 00 00 00 00	 call	 ??3@YAXPAXI@Z		; operator delete
  00083	83 c4 08	 add	 esp, 8
  00086	c3		 ret	 0
__unwindfunclet$?LoadItemBag@@YAXXZ$7:
  00087	68 94 03 00 00	 push	 916			; 00000394H
  0008c	8b 85 54 ff ff
	ff		 mov	 eax, DWORD PTR $T29[ebp]
  00092	50		 push	 eax
  00093	e8 00 00 00 00	 call	 ??3@YAXPAXI@Z		; operator delete
  00098	83 c4 08	 add	 esp, 8
  0009b	c3		 ret	 0
__unwindfunclet$?LoadItemBag@@YAXXZ$8:
  0009c	68 94 03 00 00	 push	 916			; 00000394H
  000a1	8b 85 48 ff ff
	ff		 mov	 eax, DWORD PTR $T26[ebp]
  000a7	50		 push	 eax
  000a8	e8 00 00 00 00	 call	 ??3@YAXPAXI@Z		; operator delete
  000ad	83 c4 08	 add	 esp, 8
  000b0	c3		 ret	 0
__unwindfunclet$?LoadItemBag@@YAXXZ$9:
  000b1	68 94 03 00 00	 push	 916			; 00000394H
  000b6	8b 85 3c ff ff
	ff		 mov	 eax, DWORD PTR $T23[ebp]
  000bc	50		 push	 eax
  000bd	e8 00 00 00 00	 call	 ??3@YAXPAXI@Z		; operator delete
  000c2	83 c4 08	 add	 esp, 8
  000c5	c3		 ret	 0
__unwindfunclet$?LoadItemBag@@YAXXZ$10:
  000c6	68 94 03 00 00	 push	 916			; 00000394H
  000cb	8b 85 30 ff ff
	ff		 mov	 eax, DWORD PTR $T20[ebp]
  000d1	50		 push	 eax
  000d2	e8 00 00 00 00	 call	 ??3@YAXPAXI@Z		; operator delete
  000d7	83 c4 08	 add	 esp, 8
  000da	c3		 ret	 0
__unwindfunclet$?LoadItemBag@@YAXXZ$11:
  000db	68 94 03 00 00	 push	 916			; 00000394H
  000e0	8b 85 24 ff ff
	ff		 mov	 eax, DWORD PTR $T17[ebp]
  000e6	50		 push	 eax
  000e7	e8 00 00 00 00	 call	 ??3@YAXPAXI@Z		; operator delete
  000ec	83 c4 08	 add	 esp, 8
  000ef	c3		 ret	 0
__unwindfunclet$?LoadItemBag@@YAXXZ$12:
  000f0	68 94 03 00 00	 push	 916			; 00000394H
  000f5	8b 85 18 ff ff
	ff		 mov	 eax, DWORD PTR $T14[ebp]
  000fb	50		 push	 eax
  000fc	e8 00 00 00 00	 call	 ??3@YAXPAXI@Z		; operator delete
  00101	83 c4 08	 add	 esp, 8
  00104	c3		 ret	 0
__unwindfunclet$?LoadItemBag@@YAXXZ$13:
  00105	68 94 03 00 00	 push	 916			; 00000394H
  0010a	8b 85 0c ff ff
	ff		 mov	 eax, DWORD PTR $T11[ebp]
  00110	50		 push	 eax
  00111	e8 00 00 00 00	 call	 ??3@YAXPAXI@Z		; operator delete
  00116	83 c4 08	 add	 esp, 8
  00119	c3		 ret	 0
__unwindfunclet$?LoadItemBag@@YAXXZ$14:
  0011a	68 94 03 00 00	 push	 916			; 00000394H
  0011f	8b 85 00 ff ff
	ff		 mov	 eax, DWORD PTR $T8[ebp]
  00125	50		 push	 eax
  00126	e8 00 00 00 00	 call	 ??3@YAXPAXI@Z		; operator delete
  0012b	83 c4 08	 add	 esp, 8
  0012e	c3		 ret	 0
__unwindfunclet$?LoadItemBag@@YAXXZ$15:
  0012f	68 94 03 00 00	 push	 916			; 00000394H
  00134	8b 85 f4 fe ff
	ff		 mov	 eax, DWORD PTR $T5[ebp]
  0013a	50		 push	 eax
  0013b	e8 00 00 00 00	 call	 ??3@YAXPAXI@Z		; operator delete
  00140	83 c4 08	 add	 esp, 8
  00143	c3		 ret	 0
__unwindfunclet$?LoadItemBag@@YAXXZ$16:
  00144	68 d8 05 00 00	 push	 1496			; 000005d8H
  00149	8b 85 e8 fe ff
	ff		 mov	 eax, DWORD PTR $T2[ebp]
  0014f	50		 push	 eax
  00150	e8 00 00 00 00	 call	 ??3@YAXPAXI@Z		; operator delete
  00155	83 c4 08	 add	 esp, 8
  00158	c3		 ret	 0
  00159	cc		 int	 3
  0015a	cc		 int	 3
  0015b	cc		 int	 3
  0015c	cc		 int	 3
  0015d	cc		 int	 3
__ehhandler$?LoadItemBag@@YAXXZ:
  0015e	90		 npad	 1
  0015f	90		 npad	 1
  00160	8b 54 24 08	 mov	 edx, DWORD PTR [esp+8]
  00164	8d 42 0c	 lea	 eax, DWORD PTR [edx+12]
  00167	8b 8a e0 fe ff
	ff		 mov	 ecx, DWORD PTR [edx-288]
  0016d	33 c8		 xor	 ecx, eax
  0016f	e8 00 00 00 00	 call	 @__security_check_cookie@4
  00174	b8 00 00 00 00	 mov	 eax, OFFSET __ehfuncinfo$?LoadItemBag@@YAXXZ
  00179	e9 00 00 00 00	 jmp	 ___CxxFrameHandler3
text$x	ENDS
?LoadItemBag@@YAXXZ ENDP				; LoadItemBag
; Function compile flags: /Odtp /ZI
; File C:\Mu Online\Mu-GS-Webzen-MC-10093\GameServer\Gamemain.cpp
;	COMDAT ?CheckSumFileLoad@@YAXPAD@Z
_TEXT	SEGMENT
_fp$ = -4						; size = 4
_name$ = 8						; size = 4
?CheckSumFileLoad@@YAXPAD@Z PROC			; CheckSumFileLoad, COMDAT

; 4824 : {

  00000	55		 push	 ebp
  00001	8b ec		 mov	 ebp, esp
  00003	83 ec 44	 sub	 esp, 68			; 00000044H
  00006	53		 push	 ebx
  00007	56		 push	 esi
  00008	57		 push	 edi

; 4825 : #ifdef AUTH_GAMESERVER
; 4826 : 	gGameServerAuth.RequestData(FILE_CHECKSUM);
; 4827 : 	int DataBufferSize = gGameServerAuth.GetDataBufferSize();
; 4828 : 	char* DataBuffer = gGameServerAuth.GetDataBuffer();	
; 4829 : 	memcpy((char*)dwgCheckSum, DataBuffer, DataBufferSize);
; 4830 : #else
; 4831 : 	FILE * fp;
; 4832 : 
; 4833 : 	fp = fopen(name, "rb");

  00009	68 00 00 00 00	 push	 OFFSET ??_C@_02JDPG@rb@
  0000e	8b 45 08	 mov	 eax, DWORD PTR _name$[ebp]
  00011	50		 push	 eax
  00012	e8 00 00 00 00	 call	 _fopen
  00017	83 c4 08	 add	 esp, 8
  0001a	89 45 fc	 mov	 DWORD PTR _fp$[ebp], eax

; 4834 : 	if( fp == NULL )

  0001d	83 7d fc 00	 cmp	 DWORD PTR _fp$[ebp], 0
  00021	75 13		 jne	 SHORT $LN2@CheckSumFi

; 4835 : 	{
; 4836 : 		MsgBox("%s file not found", name);

  00023	8b 45 08	 mov	 eax, DWORD PTR _name$[ebp]
  00026	50		 push	 eax
  00027	68 00 00 00 00	 push	 OFFSET ??_C@_0BC@JAIHNJEB@?$CFs?5file?5not?5found@
  0002c	e8 00 00 00 00	 call	 ?MsgBox@@YAXPADZZ	; MsgBox
  00031	83 c4 08	 add	 esp, 8

; 4837 : 		return;

  00034	eb 24		 jmp	 SHORT $LN1@CheckSumFi
$LN2@CheckSumFi:

; 4838 : 	}
; 4839 : 	fread( dwgCheckSum, 1024 * sizeof ( DWORD), 1, fp);

  00036	8b 45 fc	 mov	 eax, DWORD PTR _fp$[ebp]
  00039	50		 push	 eax
  0003a	6a 01		 push	 1
  0003c	68 00 10 00 00	 push	 4096			; 00001000H
  00041	68 00 00 00 00	 push	 OFFSET ?dwgCheckSum@@3PAKA ; dwgCheckSum
  00046	e8 00 00 00 00	 call	 _fread
  0004b	83 c4 10	 add	 esp, 16			; 00000010H

; 4840 : 	fclose(fp);

  0004e	8b 45 fc	 mov	 eax, DWORD PTR _fp$[ebp]
  00051	50		 push	 eax
  00052	e8 00 00 00 00	 call	 _fclose
  00057	83 c4 04	 add	 esp, 4
$LN1@CheckSumFi:

; 4841 : #endif
; 4842 : }

  0005a	5f		 pop	 edi
  0005b	5e		 pop	 esi
  0005c	5b		 pop	 ebx
  0005d	8b e5		 mov	 esp, ebp
  0005f	5d		 pop	 ebp
  00060	c3		 ret	 0
?CheckSumFileLoad@@YAXPAD@Z ENDP			; CheckSumFileLoad
_TEXT	ENDS
; Function compile flags: /Odtp /ZI
; File C:\Mu Online\Mu-GS-Webzen-MC-10093\GameServer\Gamemain.cpp
;	COMDAT ?ReadServerInfo@@YAXXZ
_TEXT	SEGMENT
?ReadServerInfo@@YAXXZ PROC				; ReadServerInfo, COMDAT

; 2684 : {

  00000	55		 push	 ebp
  00001	8b ec		 mov	 ebp, esp
  00003	83 ec 40	 sub	 esp, 64			; 00000040H
  00006	53		 push	 ebx
  00007	56		 push	 esi
  00008	57		 push	 edi

; 2685 : 	if( IsFile(".\\data\\Serverinfo.dat") == FALSE )

  00009	68 00 00 00 00	 push	 OFFSET ??_C@_0BG@KBGGHHPK@?4?2data?2Serverinfo?4dat@
  0000e	e8 00 00 00 00	 call	 ?IsFile@@YAHPAD@Z	; IsFile
  00013	83 c4 04	 add	 esp, 4
  00016	85 c0		 test	 eax, eax
  00018	75 0d		 jne	 SHORT $LN2@ReadServer

; 2686 : 	{
; 2687 : 		MsgBox("ServerInfo.dat file not found");

  0001a	68 00 00 00 00	 push	 OFFSET ??_C@_0BO@CFKIHFKN@ServerInfo?4dat?5file?5not?5found@
  0001f	e8 00 00 00 00	 call	 ?MsgBox@@YAXPADZZ	; MsgBox
  00024	83 c4 04	 add	 esp, 4
$LN2@ReadServer:

; 2688 : 	}
; 2689 : 	GetPrivateProfileString("GameServerInfo", "ServerName", "", szServerName, 50, ".\\data\\Serverinfo.dat");

  00027	68 00 00 00 00	 push	 OFFSET ??_C@_0BG@KBGGHHPK@?4?2data?2Serverinfo?4dat@
  0002c	6a 32		 push	 50			; 00000032H
  0002e	68 00 00 00 00	 push	 OFFSET ?szServerName@@3PADA ; szServerName
  00033	68 00 00 00 00	 push	 OFFSET ??_C@_00CNPNBAHC@@
  00038	68 00 00 00 00	 push	 OFFSET ??_C@_0L@FFDIDHBB@ServerName@
  0003d	68 00 00 00 00	 push	 OFFSET ??_C@_0P@EMJDPFDH@GameServerInfo@
  00042	ff 15 00 00 00
	00		 call	 DWORD PTR __imp__GetPrivateProfileStringA@24

; 2690 : 	gGameServerCode = GetPrivateProfileInt("GameServerInfo", "ServerCode", 0, ".\\data\\Serverinfo.dat");

  00048	68 00 00 00 00	 push	 OFFSET ??_C@_0BG@KBGGHHPK@?4?2data?2Serverinfo?4dat@
  0004d	6a 00		 push	 0
  0004f	68 00 00 00 00	 push	 OFFSET ??_C@_0L@ECKGLPBM@ServerCode@
  00054	68 00 00 00 00	 push	 OFFSET ??_C@_0P@EMJDPFDH@GameServerInfo@
  00059	ff 15 00 00 00
	00		 call	 DWORD PTR __imp__GetPrivateProfileIntA@16
  0005f	66 a3 00 00 00
	00		 mov	 WORD PTR ?gGameServerCode@@3FA, ax ; gGameServerCode

; 2691 : 	bCanConnectMember = GetPrivateProfileInt("GameServerInfo", "ConnectMemberLoad", 0, ".\\data\\Serverinfo.dat");

  00065	68 00 00 00 00	 push	 OFFSET ??_C@_0BG@KBGGHHPK@?4?2data?2Serverinfo?4dat@
  0006a	6a 00		 push	 0
  0006c	68 00 00 00 00	 push	 OFFSET ??_C@_0BC@GLFLPKEG@ConnectMemberLoad@
  00071	68 00 00 00 00	 push	 OFFSET ??_C@_0P@EMJDPFDH@GameServerInfo@
  00076	ff 15 00 00 00
	00		 call	 DWORD PTR __imp__GetPrivateProfileIntA@16
  0007c	a3 00 00 00 00	 mov	 DWORD PTR ?bCanConnectMember@@3HA, eax ; bCanConnectMember

; 2692 : 
; 2693 : #ifdef UPDATE_CHANGE_CHARACTERNAME_20080410	//   
; 2694 : 	g_bChangeCharacterName	= GetPrivateProfileInt("GameServerInfo", "ChangeCharacterName", 0, ".\\data\\Serverinfo.dat");
; 2695 : #endif	// UPDATE_CHANGE_CHARACTERNAME_20080410
; 2696 : }

  00081	5f		 pop	 edi
  00082	5e		 pop	 esi
  00083	5b		 pop	 ebx
  00084	8b e5		 mov	 esp, ebp
  00086	5d		 pop	 ebp
  00087	c3		 ret	 0
?ReadServerInfo@@YAXXZ ENDP				; ReadServerInfo
_TEXT	ENDS
; Function compile flags: /Odtp /ZI
; File C:\Mu Online\Mu-GS-Webzen-MC-10093\GameServer\Gamemain.cpp
;	COMDAT ?GameMonsterAllAdd@@YAXXZ
_TEXT	SEGMENT
tv161 = -80						; size = 4
tv131 = -80						; size = 4
tv81 = -80						; size = 4
tv162 = -76						; size = 4
tv132 = -76						; size = 4
tv82 = -76						; size = 4
_n$1 = -8						; size = 4
_result$ = -4						; size = 4
?GameMonsterAllAdd@@YAXXZ PROC				; GameMonsterAllAdd, COMDAT

; 2027 : {

  00000	55		 push	 ebp
  00001	8b ec		 mov	 ebp, esp
  00003	83 ec 50	 sub	 esp, 80			; 00000050H
  00006	53		 push	 ebx
  00007	56		 push	 esi
  00008	57		 push	 edi

; 2028 : 	int result;
; 2029 : 
; 2030 : 	gCurPaintPlayer = 0;

  00009	c7 05 00 00 00
	00 00 00 00 00	 mov	 DWORD PTR ?gCurPaintPlayer@@3HA, 0 ; gCurPaintPlayer

; 2031 : 	for( int n=0; n<gMSetBase.m_Count; n++)

  00013	c7 45 f8 00 00
	00 00		 mov	 DWORD PTR _n$1[ebp], 0
  0001a	eb 09		 jmp	 SHORT $LN4@GameMonste
$LN2@GameMonste:
  0001c	8b 45 f8	 mov	 eax, DWORD PTR _n$1[ebp]
  0001f	83 c0 01	 add	 eax, 1
  00022	89 45 f8	 mov	 DWORD PTR _n$1[ebp], eax
$LN4@GameMonste:
  00025	8b 45 f8	 mov	 eax, DWORD PTR _n$1[ebp]
  00028	3b 05 e4 0f 01
	00		 cmp	 eax, DWORD PTR ?gMSetBase@@3VCMonsterSetBase@@A+69604
  0002e	0f 8d b9 01 00
	00		 jge	 $LN3@GameMonste

; 2032 : 	{
; 2033 : #ifdef FOR_BLOODCASTLE
; 2034 : 		
; 2035 : #ifdef DEVILSQUARE_EXTEND_20050221		//    
; 2036 : 		if( CHECK_DEVILSQUARE(gMSetBase.m_Mp[n].m_MapNumber) )
; 2037 : #else
; 2038 : 		if (gMSetBase.m_Mp[n].m_MapNumber == 9 )	//    .

  00034	6b 45 f8 0c	 imul	 eax, DWORD PTR _n$1[ebp], 12
  00038	0f b6 88 08 00
	00 00		 movzx	 ecx, BYTE PTR ?gMSetBase@@3VCMonsterSetBase@@A[eax+8]
  0003f	83 f9 09	 cmp	 ecx, 9
  00042	75 02		 jne	 SHORT $LN5@GameMonste

; 2039 : #endif
; 2040 : 			continue;

  00044	eb d6		 jmp	 SHORT $LN2@GameMonste
$LN5@GameMonste:

; 2041 : 
; 2042 : 		if (CHECK_BLOODCASTLE(gMSetBase.m_Mp[n].m_MapNumber))	//   . (  )

  00046	6b 45 f8 0c	 imul	 eax, DWORD PTR _n$1[ebp], 12
  0004a	0f b6 88 08 00
	00 00		 movzx	 ecx, BYTE PTR ?gMSetBase@@3VCMonsterSetBase@@A[eax+8]
  00051	83 f9 0b	 cmp	 ecx, 11			; 0000000bH
  00054	7d 09		 jge	 SHORT $LN18@GameMonste
  00056	c7 45 b4 00 00
	00 00		 mov	 DWORD PTR tv82[ebp], 0
  0005d	eb 26		 jmp	 SHORT $LN19@GameMonste
$LN18@GameMonste:
  0005f	6b 55 f8 0c	 imul	 edx, DWORD PTR _n$1[ebp], 12
  00063	0f b6 82 08 00
	00 00		 movzx	 eax, BYTE PTR ?gMSetBase@@3VCMonsterSetBase@@A[edx+8]
  0006a	83 f8 11	 cmp	 eax, 17			; 00000011H
  0006d	7e 09		 jle	 SHORT $LN16@GameMonste
  0006f	c7 45 b0 00 00
	00 00		 mov	 DWORD PTR tv81[ebp], 0
  00076	eb 07		 jmp	 SHORT $LN17@GameMonste
$LN16@GameMonste:
  00078	c7 45 b0 01 00
	00 00		 mov	 DWORD PTR tv81[ebp], 1
$LN17@GameMonste:
  0007f	8b 4d b0	 mov	 ecx, DWORD PTR tv81[ebp]
  00082	89 4d b4	 mov	 DWORD PTR tv82[ebp], ecx
$LN19@GameMonste:
  00085	83 7d b4 00	 cmp	 DWORD PTR tv82[ebp], 0
  00089	74 18		 je	 SHORT $LN6@GameMonste

; 2043 : 		{
; 2044 : 			if (gMSetBase.m_Mp[n].m_Type != 232)

  0008b	6b 45 f8 0c	 imul	 eax, DWORD PTR _n$1[ebp], 12
  0008f	0f b7 88 06 00
	00 00		 movzx	 ecx, WORD PTR ?gMSetBase@@3VCMonsterSetBase@@A[eax+6]
  00096	81 f9 e8 00 00
	00		 cmp	 ecx, 232		; 000000e8H
  0009c	74 05		 je	 SHORT $LN6@GameMonste

; 2045 : 				continue;

  0009e	e9 79 ff ff ff	 jmp	 $LN2@GameMonste
$LN6@GameMonste:

; 2046 : 		}
; 2047 : 
; 2048 : #ifdef CHAOSCASTLE_SYSTEM_20040408					//      
; 2049 : 		if (CHECK_CHAOSCASTLE(gMSetBase.m_Mp[n].m_MapNumber))	//   .

  000a3	6b 45 f8 0c	 imul	 eax, DWORD PTR _n$1[ebp], 12
  000a7	0f b6 88 08 00
	00 00		 movzx	 ecx, BYTE PTR ?gMSetBase@@3VCMonsterSetBase@@A[eax+8]
  000ae	83 f9 12	 cmp	 ecx, 18			; 00000012H
  000b1	7d 09		 jge	 SHORT $LN22@GameMonste
  000b3	c7 45 b4 00 00
	00 00		 mov	 DWORD PTR tv132[ebp], 0
  000ba	eb 26		 jmp	 SHORT $LN23@GameMonste
$LN22@GameMonste:
  000bc	6b 55 f8 0c	 imul	 edx, DWORD PTR _n$1[ebp], 12
  000c0	0f b6 82 08 00
	00 00		 movzx	 eax, BYTE PTR ?gMSetBase@@3VCMonsterSetBase@@A[edx+8]
  000c7	83 f8 17	 cmp	 eax, 23			; 00000017H
  000ca	7e 09		 jle	 SHORT $LN20@GameMonste
  000cc	c7 45 b0 00 00
	00 00		 mov	 DWORD PTR tv131[ebp], 0
  000d3	eb 07		 jmp	 SHORT $LN21@GameMonste
$LN20@GameMonste:
  000d5	c7 45 b0 01 00
	00 00		 mov	 DWORD PTR tv131[ebp], 1
$LN21@GameMonste:
  000dc	8b 4d b0	 mov	 ecx, DWORD PTR tv131[ebp]
  000df	89 4d b4	 mov	 DWORD PTR tv132[ebp], ecx
$LN23@GameMonste:
  000e2	83 7d b4 00	 cmp	 DWORD PTR tv132[ebp], 0
  000e6	74 05		 je	 SHORT $LN8@GameMonste

; 2050 : 		{
; 2051 : 			continue;

  000e8	e9 2f ff ff ff	 jmp	 $LN2@GameMonste
$LN8@GameMonste:

; 2052 : 		}
; 2053 : #endif
; 2054 : 
; 2055 : #ifdef ADD_EVENT_MAP_ILLUSION_TEMPLE_20070328		//     
; 2056 : 		if (CHECK_ILLUSION_TEMPLE(gMSetBase.m_Mp[n].m_MapNumber))
; 2057 : 		{
; 2058 : 			//    
; 2059 : 			if (gMSetBase.m_Mp[n].m_Type != NPC_LEADER_OF_ALLIED_FORCE		//  
; 2060 : 				&& gMSetBase.m_Mp[n].m_Type != NPC_ELDER_OF_ILLUSION)		//  
; 2061 : 			{
; 2062 : 				if(gMSetBase.m_Mp[n].m_Type == NPC_ILLUSION_HOLY_RELICS_STATUE		// NPC
; 2063 : 					|| gMSetBase.m_Mp[n].m_Type == NPC_HOLY_RELICS_BOX_ALLIED
; 2064 : 					|| gMSetBase.m_Mp[n].m_Type == NPC_HOLY_RELICS_BOX_ILLUSION)
; 2065 : 				{
; 2066 : 					g_IllusionTempleEvent.AddNpcPosNum(gMSetBase.m_Mp[n].m_MapNumber, gMSetBase.m_Mp[n].m_Type, n);
; 2067 : 				}
; 2068 : 				else if(gMSetBase.m_Mp[n].m_Type >= MON_GHOST_OF_ILLUSION_BROTHERHOOD_A1	 // Monster
; 2069 : 					|| gMSetBase.m_Mp[n].m_Type <= MON_GHOST_OF_ILLUSION_BROTHERHOOD_C6)
; 2070 : 				{
; 2071 : 					g_IllusionTempleEvent.AddMonsterPosNum(gMSetBase.m_Mp[n].m_MapNumber, gMSetBase.m_Mp[n].m_Type, n);
; 2072 : 				}
; 2073 : 
; 2074 : 				
; 2075 : 				continue;
; 2076 : 			}
; 2077 : 		}
; 2078 : #endif
; 2079 : 		
; 2080 : #ifdef MAP_SERVER_ADD_MONSTER_20041216		//   , NPC  (     .)
; 2081 : 		result = gObjAddMonster(gMSetBase.m_Mp[n].m_MapNumber);

  000ed	6b 45 f8 0c	 imul	 eax, DWORD PTR _n$1[ebp], 12
  000f1	0f b6 88 08 00
	00 00		 movzx	 ecx, BYTE PTR ?gMSetBase@@3VCMonsterSetBase@@A[eax+8]
  000f8	51		 push	 ecx
  000f9	e8 00 00 00 00	 call	 ?gObjAddMonster@@YAFH@Z	; gObjAddMonster
  000fe	83 c4 04	 add	 esp, 4
  00101	0f bf d0	 movsx	 edx, ax
  00104	89 55 fc	 mov	 DWORD PTR _result$[ebp], edx

; 2082 : #else
; 2083 : 		result = gObjAdd();
; 2084 : #endif
; 2085 : 	
; 2086 : 		if( result >= 0 )

  00107	83 7d fc 00	 cmp	 DWORD PTR _result$[ebp], 0
  0010b	0f 8c d7 00 00
	00		 jl	 $LN9@GameMonste

; 2087 : 		{
; 2088 : 			gObjSetPosMonster(result, n);

  00111	8b 45 f8	 mov	 eax, DWORD PTR _n$1[ebp]
  00114	50		 push	 eax
  00115	8b 4d fc	 mov	 ecx, DWORD PTR _result$[ebp]
  00118	51		 push	 ecx
  00119	e8 00 00 00 00	 call	 ?gObjSetPosMonster@@YAHHH@Z ; gObjSetPosMonster
  0011e	83 c4 08	 add	 esp, 8

; 2089 : 			gObjSetMonster(result, gMSetBase.m_Mp[n].m_Type);

  00121	6b 45 f8 0c	 imul	 eax, DWORD PTR _n$1[ebp], 12
  00125	0f b7 88 06 00
	00 00		 movzx	 ecx, WORD PTR ?gMSetBase@@3VCMonsterSetBase@@A[eax+6]
  0012c	51		 push	 ecx
  0012d	8b 55 fc	 mov	 edx, DWORD PTR _result$[ebp]
  00130	52		 push	 edx
  00131	e8 00 00 00 00	 call	 ?gObjSetMonster@@YAHHH@Z ; gObjSetMonster
  00136	83 c4 08	 add	 esp, 8

; 2090 : 			gCurPaintPlayer++;

  00139	a1 00 00 00 00	 mov	 eax, DWORD PTR ?gCurPaintPlayer@@3HA ; gCurPaintPlayer
  0013e	83 c0 01	 add	 eax, 1
  00141	a3 00 00 00 00	 mov	 DWORD PTR ?gCurPaintPlayer@@3HA, eax ; gCurPaintPlayer

; 2091 : 
; 2092 : 			//        .
; 2093 : 			if (CHECK_BLOODCASTLE(gObj[result].MapNumber) && (gObj[result].Class == 232)) {

  00146	69 45 fc a0 1b
	00 00		 imul	 eax, DWORD PTR _result$[ebp], 7072
  0014d	8b 0d 00 00 00
	00		 mov	 ecx, DWORD PTR ?gObj@@3PAVOBJECTSTRUCT@@A ; gObj
  00153	0f b6 94 01 09
	01 00 00	 movzx	 edx, BYTE PTR [ecx+eax+265]
  0015b	83 fa 0b	 cmp	 edx, 11			; 0000000bH
  0015e	7d 09		 jge	 SHORT $LN26@GameMonste
  00160	c7 45 b4 00 00
	00 00		 mov	 DWORD PTR tv162[ebp], 0
  00167	eb 30		 jmp	 SHORT $LN27@GameMonste
$LN26@GameMonste:
  00169	69 45 fc a0 1b
	00 00		 imul	 eax, DWORD PTR _result$[ebp], 7072
  00170	8b 0d 00 00 00
	00		 mov	 ecx, DWORD PTR ?gObj@@3PAVOBJECTSTRUCT@@A ; gObj
  00176	0f b6 94 01 09
	01 00 00	 movzx	 edx, BYTE PTR [ecx+eax+265]
  0017e	83 fa 11	 cmp	 edx, 17			; 00000011H
  00181	7e 09		 jle	 SHORT $LN24@GameMonste
  00183	c7 45 b0 00 00
	00 00		 mov	 DWORD PTR tv161[ebp], 0
  0018a	eb 07		 jmp	 SHORT $LN25@GameMonste
$LN24@GameMonste:
  0018c	c7 45 b0 01 00
	00 00		 mov	 DWORD PTR tv161[ebp], 1
$LN25@GameMonste:
  00193	8b 45 b0	 mov	 eax, DWORD PTR tv161[ebp]
  00196	89 45 b4	 mov	 DWORD PTR tv162[ebp], eax
$LN27@GameMonste:
  00199	83 7d b4 00	 cmp	 DWORD PTR tv162[ebp], 0
  0019d	74 49		 je	 SHORT $LN9@GameMonste
  0019f	69 45 fc a0 1b
	00 00		 imul	 eax, DWORD PTR _result$[ebp], 7072
  001a6	8b 0d 00 00 00
	00		 mov	 ecx, DWORD PTR ?gObj@@3PAVOBJECTSTRUCT@@A ; gObj
  001ac	0f b7 94 01 9c
	00 00 00	 movzx	 edx, WORD PTR [ecx+eax+156]
  001b4	81 fa e8 00 00
	00		 cmp	 edx, 232		; 000000e8H
  001ba	75 2c		 jne	 SHORT $LN9@GameMonste

; 2094 : #ifdef ADD_BLOODCASTLE_FOR_MASTER_LEVEL_20071010	//    
; 2095 : 				gObj[result].m_cBloodCastleIndex = g_BloodCastle.GetBridgeIndexByMapNum( gObj[result].MapNumber );
; 2096 : #else
; 2097 : 				gObj[result].m_cBloodCastleIndex = gObj[result].MapNumber - MAP_INDEX_BLOODCASTLE1;

  001bc	69 45 fc a0 1b
	00 00		 imul	 eax, DWORD PTR _result$[ebp], 7072
  001c3	8b 0d 00 00 00
	00		 mov	 ecx, DWORD PTR ?gObj@@3PAVOBJECTSTRUCT@@A ; gObj
  001c9	0f b6 94 01 09
	01 00 00	 movzx	 edx, BYTE PTR [ecx+eax+265]
  001d1	83 ea 0b	 sub	 edx, 11			; 0000000bH
  001d4	69 45 fc a0 1b
	00 00		 imul	 eax, DWORD PTR _result$[ebp], 7072
  001db	8b 0d 00 00 00
	00		 mov	 ecx, DWORD PTR ?gObj@@3PAVOBJECTSTRUCT@@A ; gObj
  001e1	88 94 01 d2 0c
	00 00		 mov	 BYTE PTR [ecx+eax+3282], dl
$LN9@GameMonste:

; 2098 : #endif
; 2099 : 			}
; 2100 : 
; 2101 : #ifdef CASTLE_MAIN_SCHEDULER_20041111				//   .
; 2102 : 			if (gObj[result].Class == 216) {
; 2103 : 				g_CastleSiege.SetCrownIndex (result);
; 2104 : 			}
; 2105 : #endif
; 2106 : 
; 2107 : #ifdef CRYWOLF_NPC_WORK_20050912
; 2108 : 			
; 2109 : 			if( CHECK_CRYWOLF_FIRSTZONE(gObj[result].MapNumber) 
; 2110 : 				&& gObj[result].Type == OBJTYPE_NPC 
; 2111 : 			  )
; 2112 : 			{
; 2113 : #ifdef THIRD_CHANGEUP_SYSTEM_20070507	// 3 NPC  NPC .
; 2114 : 				if( gObj[result].Class == 406		//  
; 2115 : 					|| gObj[result].Class == 407	//  
; 2116 : 					)
; 2117 : 				{
; 2118 : 					// .
; 2119 : 				}
; 2120 : 				else
; 2121 : #endif				
; 2122 : 				//   NPC .	- , 
; 2123 : 				if( CHECK_CRYWOLF_SPECIAL_NPC( gObj[result].Class ) )
; 2124 : 				{
; 2125 : 					g_Crywolf.m_ObjSpecialNPC.AddObj( result );
; 2126 : 				}
; 2127 : 				//   NPC .	
; 2128 : 				else
; 2129 : 				{
; 2130 : 					g_Crywolf.m_ObjCommonNPC.AddObj( result );
; 2131 : 				}
; 2132 : 			}
; 2133 : #endif
; 2134 : 
; 2135 : #ifdef CRYWOLF_MONSTER_WORK_20050914
; 2136 : 			if( CHECK_CRYWOLF_FIRSTZONE(gObj[result].MapNumber) 
; 2137 : 				&& gObj[result].Type == OBJTYPE_MONSTER
; 2138 : 			  )
; 2139 : 			{
; 2140 : 				//   MONSTER .
; 2141 : 				g_Crywolf.m_ObjCommonMonster.AddObj( result );
; 2142 : 			}
; 2143 : #endif
; 2144 : 			
; 2145 : 		}
; 2146 : 
; 2147 : #else
; 2148 : #ifdef DEVILSQUARE_EXTEND_20050221		//    
; 2149 : 		if( !CHECK_DEVILSQUARE(gMSetBase.m_Mp[n].m_MapNumber) )
; 2150 : #else
; 2151 : 		if( gMSetBase.m_Mp[n].m_MapNumber != 9 )	//     ??
; 2152 : #endif
; 2153 : 		{
; 2154 : 			result = gObjAdd();
; 2155 : 		
; 2156 : 			if( result >= 0 )
; 2157 : 			{
; 2158 : 				gObjSetPosMonster(result, n);
; 2159 : 				gObjSetMonster(result, gMSetBase.m_Mp[n].m_Type);
; 2160 : 				gCurPaintPlayer++;
; 2161 : 			}
; 2162 : 		}
; 2163 : #endif
; 2164 : 	}

  001e8	e9 2f fe ff ff	 jmp	 $LN2@GameMonste
$LN3@GameMonste:

; 2165 : 
; 2166 : #ifdef ADD_NEW_MONSTER_SYSTEM_02_20050725
; 2167 : 	//       .
; 2168 : //	TMonsterAIGroup::InitAll();
; 2169 : #endif // ADD_NEW_MONSTER_SYSTEM_02_20050725
; 2170 : 
; 2171 : 
; 2172 : 	
; 2173 : #ifdef GAMESERVER_TO_CASTLESIEGESERVER	//    , , ,   .
; 2174 : 	gDevilSquareEvent	= FALSE;
; 2175 : 	g_bChaosCastle		= FALSE;
; 2176 : #ifdef ADD_RAKLION_20080408
; 2177 : 	g_bRaklionEvent		= FALSE;
; 2178 : #endif // ADD_RAKLION_20080408
; 2179 : #endif	
; 2180 : 	
; 2181 : #if TESTSERVER == 1		//    &     
; 2182 : //	g_bChaosCastle		= TRUE;
; 2183 : #endif
; 2184 : 
; 2185 : 	g_DevilSquare.Init();

  001ed	b9 00 00 00 00	 mov	 ecx, OFFSET ?g_DevilSquare@@3VCDevilSquare@@A ; g_DevilSquare
  001f2	e8 00 00 00 00	 call	 ?Init@CDevilSquare@@QAEXXZ ; CDevilSquare::Init

; 2186 : 
; 2187 : #ifdef FOR_BLOODCASTLE
; 2188 : 	g_BloodCastle.LoadItemDropRate();

  001f7	b9 00 00 00 00	 mov	 ecx, OFFSET ?g_BloodCastle@@3VCBloodCastle@@A ; g_BloodCastle
  001fc	e8 00 00 00 00	 call	 ?LoadItemDropRate@CBloodCastle@@QAEXXZ ; CBloodCastle::LoadItemDropRate

; 2189 : 
; 2190 : #ifdef GAMESERVER_TO_CASTLESIEGESERVER	//    , , ,   .
; 2191 : 	g_bBloodCastle		= FALSE;
; 2192 : #endif	
; 2193 : 	
; 2194 : 	if(g_bBloodCastle) {

  00201	83 3d 00 00 00
	00 00		 cmp	 DWORD PTR ?g_bBloodCastle@@3HA, 0 ; g_bBloodCastle
  00208	74 0e		 je	 SHORT $LN11@GameMonste

; 2195 : 		g_BloodCastle.Init();

  0020a	6a 01		 push	 1
  0020c	b9 00 00 00 00	 mov	 ecx, OFFSET ?g_BloodCastle@@3VCBloodCastle@@A ; g_BloodCastle
  00211	e8 00 00 00 00	 call	 ?Init@CBloodCastle@@QAEX_N@Z ; CBloodCastle::Init

; 2196 : 	}

  00216	eb 0c		 jmp	 SHORT $LN12@GameMonste
$LN11@GameMonste:

; 2197 : 	else {
; 2198 : 		g_BloodCastle.Init(false);

  00218	6a 00		 push	 0
  0021a	b9 00 00 00 00	 mov	 ecx, OFFSET ?g_BloodCastle@@3VCBloodCastle@@A ; g_BloodCastle
  0021f	e8 00 00 00 00	 call	 ?Init@CBloodCastle@@QAEX_N@Z ; CBloodCastle::Init
$LN12@GameMonste:

; 2199 : 	}
; 2200 : #endif
; 2201 : 
; 2202 : #ifdef CHAOSCASTLE_SYSTEM_20040408
; 2203 : //	g_ChaosCastle.LoadItemDropRate();
; 2204 : 
; 2205 : 	if(g_bChaosCastle) {

  00224	83 3d 00 00 00
	00 00		 cmp	 DWORD PTR ?g_bChaosCastle@@3HA, 0 ; g_bChaosCastle
  0022b	74 0e		 je	 SHORT $LN13@GameMonste

; 2206 : 		g_ChaosCastle.Init();

  0022d	6a 01		 push	 1
  0022f	b9 00 00 00 00	 mov	 ecx, OFFSET ?g_ChaosCastle@@3VCChaosCastle@@A ; g_ChaosCastle
  00234	e8 00 00 00 00	 call	 ?Init@CChaosCastle@@QAEX_N@Z ; CChaosCastle::Init

; 2207 : 	}

  00239	eb 0c		 jmp	 SHORT $LN14@GameMonste
$LN13@GameMonste:

; 2208 : 	else {
; 2209 : 		g_ChaosCastle.Init(false);

  0023b	6a 00		 push	 0
  0023d	b9 00 00 00 00	 mov	 ecx, OFFSET ?g_ChaosCastle@@3VCChaosCastle@@A ; g_ChaosCastle
  00242	e8 00 00 00 00	 call	 ?Init@CChaosCastle@@QAEX_N@Z ; CChaosCastle::Init
$LN14@GameMonste:

; 2210 : 	}
; 2211 : #endif
; 2212 : 
; 2213 : #ifdef GAMESERVER_TO_CASTLESIEGESERVER	//   
; 2214 : #ifdef ADD_EVENT_MAP_ILLUSION_TEMPLE_20070328
; 2215 : 	g_bIllusionTampleEvent	= FALSE;
; 2216 : #endif
; 2217 : #endif
; 2218 : 	
; 2219 : #ifdef ADD_EVENT_MAP_ILLUSION_TEMPLE_20070328	//   
; 2220 : 	if(g_bIllusionTampleEvent)
; 2221 : 	{
; 2222 : 		g_IllusionTempleEvent.IllusionTempleEventInit();
; 2223 : 	}
; 2224 : #endif
; 2225 : 
; 2226 : 	g_PkClearSystem.Load(gDirPath.GetNewPath("PkClearSystem.cfg"));

  00247	68 00 00 00 00	 push	 OFFSET ??_C@_0BC@IPOGIFJE@PkClearSystem?4cfg@
  0024c	b9 00 00 00 00	 mov	 ecx, OFFSET ?gDirPath@@3VCDirPath@@A ; gDirPath
  00251	e8 00 00 00 00	 call	 ?GetNewPath@CDirPath@@QAEPADPAD@Z ; CDirPath::GetNewPath
  00256	50		 push	 eax
  00257	b9 00 00 00 00	 mov	 ecx, OFFSET ?g_PkClearSystem@@3VCPkClearSystem@@A ; g_PkClearSystem
  0025c	e8 00 00 00 00	 call	 ?Load@CPkClearSystem@@QAEHPAD@Z ; CPkClearSystem::Load

; 2227 : 	g_ResetSystem.Load(gDirPath.GetNewPath("ResetSystem.cfg"));

  00261	68 00 00 00 00	 push	 OFFSET ??_C@_0BA@NJMOGOCM@ResetSystem?4cfg@
  00266	b9 00 00 00 00	 mov	 ecx, OFFSET ?gDirPath@@3VCDirPath@@A ; gDirPath
  0026b	e8 00 00 00 00	 call	 ?GetNewPath@CDirPath@@QAEPADPAD@Z ; CDirPath::GetNewPath
  00270	50		 push	 eax
