; Listing generated by Microsoft (R) Optimizing Compiler Version 19.27.29111.0 

	TITLE	C:\Mu Online\Mu-GS-Webzen-MC-10093\GameServer\Global.cpp
	.686P
	.XMM
	include listing.inc
	.model	flat

INCLUDELIB LIBCMT
INCLUDELIB OLDNAMES

PUBLIC	?__empty_global_delete@@YAXPAX@Z		; __empty_global_delete
PUBLIC	?__empty_global_delete@@YAXPAXI@Z		; __empty_global_delete
PUBLIC	??2@YAPAXIPAX@Z					; operator new
PUBLIC	??0exception@std@@QAE@QBDH@Z			; std::exception::exception
PUBLIC	??0exception@std@@QAE@ABV01@@Z			; std::exception::exception
PUBLIC	??1exception@std@@UAE@XZ			; std::exception::~exception
PUBLIC	?what@exception@std@@UBEPBDXZ			; std::exception::what
PUBLIC	??_Gexception@std@@UAEPAXI@Z			; std::exception::`scalar deleting destructor'
PUBLIC	??0bad_alloc@std@@AAE@QBD@Z			; std::bad_alloc::bad_alloc
PUBLIC	??1bad_alloc@std@@UAE@XZ			; std::bad_alloc::~bad_alloc
PUBLIC	??0bad_alloc@std@@QAE@ABV01@@Z			; std::bad_alloc::bad_alloc
PUBLIC	??_Gbad_alloc@std@@UAEPAXI@Z			; std::bad_alloc::`scalar deleting destructor'
PUBLIC	??0bad_array_new_length@std@@QAE@XZ		; std::bad_array_new_length::bad_array_new_length
PUBLIC	??1bad_array_new_length@std@@UAE@XZ		; std::bad_array_new_length::~bad_array_new_length
PUBLIC	??0bad_array_new_length@std@@QAE@ABV01@@Z	; std::bad_array_new_length::bad_array_new_length
PUBLIC	??_Gbad_array_new_length@std@@UAEPAXI@Z		; std::bad_array_new_length::`scalar deleting destructor'
PUBLIC	?_Throw_bad_array_new_length@std@@YAXXZ		; std::_Throw_bad_array_new_length
PUBLIC	?max@?$numeric_limits@H@std@@SAHXZ		; std::numeric_limits<int>::max
PUBLIC	?_Allocate@_Default_allocate_traits@std@@SAPAXI@Z ; std::_Default_allocate_traits::_Allocate
PUBLIC	?_Adjust_manually_vector_aligned@std@@YAXAAPAXAAI@Z ; std::_Adjust_manually_vector_aligned
PUBLIC	?_Orphan_all@_Container_base0@std@@QAEXXZ	; std::_Container_base0::_Orphan_all
PUBLIC	?_Adopt@_Iterator_base0@std@@QAEXPBX@Z		; std::_Iterator_base0::_Adopt
PUBLIC	??0_Fake_proxy_ptr_impl@std@@QAE@ABU_Fake_allocator@1@ABU_Container_base0@1@@Z ; std::_Fake_proxy_ptr_impl::_Fake_proxy_ptr_impl
PUBLIC	?_Release@_Fake_proxy_ptr_impl@std@@QAEXXZ	; std::_Fake_proxy_ptr_impl::_Release
PUBLIC	?_Throw_tree_length_error@std@@YAXXZ		; std::_Throw_tree_length_error
PUBLIC	?Load@CGlobalConfig@@QAEXPBD0@Z			; CGlobalConfig::Load
PUBLIC	?LoadAuthorityTable@CGlobalConfig@@QAEXPBD@Z	; CGlobalConfig::LoadAuthorityTable
PUBLIC	??0?$allocator@U?$_Tree_node@U?$pair@$$CBKK@std@@PAX@std@@@std@@QAE@XZ ; std::allocator<std::_Tree_node<std::pair<unsigned long const ,unsigned long>,void *> >::allocator<std::_Tree_node<std::pair<unsigned long const ,unsigned long>,void *> >
PUBLIC	?deallocate@?$allocator@U?$_Tree_node@U?$pair@$$CBKK@std@@PAX@std@@@std@@QAEXQAU?$_Tree_node@U?$pair@$$CBKK@std@@PAX@2@I@Z ; std::allocator<std::_Tree_node<std::pair<unsigned long const ,unsigned long>,void *> >::deallocate
PUBLIC	?allocate@?$allocator@U?$_Tree_node@U?$pair@$$CBKK@std@@PAX@std@@@std@@QAEPAU?$_Tree_node@U?$pair@$$CBKK@std@@PAX@2@I@Z ; std::allocator<std::_Tree_node<std::pair<unsigned long const ,unsigned long>,void *> >::allocate
PUBLIC	?deallocate@?$_Default_allocator_traits@V?$allocator@U?$_Tree_node@U?$pair@$$CBKK@std@@PAX@std@@@std@@@std@@SAXAAV?$allocator@U?$_Tree_node@U?$pair@$$CBKK@std@@PAX@std@@@2@QAU?$_Tree_node@U?$pair@$$CBKK@std@@PAX@2@I@Z ; std::_Default_allocator_traits<std::allocator<std::_Tree_node<std::pair<unsigned long const ,unsigned long>,void *> > >::deallocate
PUBLIC	?max_size@?$_Default_allocator_traits@V?$allocator@U?$_Tree_node@U?$pair@$$CBKK@std@@PAX@std@@@std@@@std@@SAIABV?$allocator@U?$_Tree_node@U?$pair@$$CBKK@std@@PAX@std@@@2@@Z ; std::_Default_allocator_traits<std::allocator<std::_Tree_node<std::pair<unsigned long const ,unsigned long>,void *> > >::max_size
PUBLIC	??0?$_Tree@V?$_Tmap_traits@KKU?$less@K@std@@V?$allocator@U?$pair@$$CBKK@std@@@2@$0A@@std@@@std@@QAE@ABU?$less@K@1@@Z ; std::_Tree<std::_Tmap_traits<unsigned long,unsigned long,std::less<unsigned long>,std::allocator<std::pair<unsigned long const ,unsigned long> >,0> >::_Tree<std::_Tmap_traits<unsigned long,unsigned long,std::less<unsigned long>,std::allocator<std::pair<unsigned long const ,unsigned long> >,0> >
PUBLIC	??1?$_Tree@V?$_Tmap_traits@KKU?$less@K@std@@V?$allocator@U?$pair@$$CBKK@std@@@2@$0A@@std@@@std@@QAE@XZ ; std::_Tree<std::_Tmap_traits<unsigned long,unsigned long,std::less<unsigned long>,std::allocator<std::pair<unsigned long const ,unsigned long> >,0> >::~_Tree<std::_Tmap_traits<unsigned long,unsigned long,std::less<unsigned long>,std::allocator<std::pair<unsigned long const ,unsigned long> >,0> >
PUBLIC	?max_size@?$_Tree@V?$_Tmap_traits@KKU?$less@K@std@@V?$allocator@U?$pair@$$CBKK@std@@@2@$0A@@std@@@std@@QBEIXZ ; std::_Tree<std::_Tmap_traits<unsigned long,unsigned long,std::less<unsigned long>,std::allocator<std::pair<unsigned long const ,unsigned long> >,0> >::max_size
PUBLIC	?clear@?$_Tree@V?$_Tmap_traits@KKU?$less@K@std@@V?$allocator@U?$pair@$$CBKK@std@@@2@$0A@@std@@@std@@QAEXXZ ; std::_Tree<std::_Tmap_traits<unsigned long,unsigned long,std::less<unsigned long>,std::allocator<std::pair<unsigned long const ,unsigned long> >,0> >::clear
PUBLIC	?_Check_grow_by_1@?$_Tree@V?$_Tmap_traits@KKU?$less@K@std@@V?$allocator@U?$pair@$$CBKK@std@@@2@$0A@@std@@@std@@IAEXXZ ; std::_Tree<std::_Tmap_traits<unsigned long,unsigned long,std::less<unsigned long>,std::allocator<std::pair<unsigned long const ,unsigned long> >,0> >::_Check_grow_by_1
PUBLIC	?_Alloc_sentinel_and_proxy@?$_Tree@V?$_Tmap_traits@KKU?$less@K@std@@V?$allocator@U?$pair@$$CBKK@std@@@2@$0A@@std@@@std@@IAEXXZ ; std::_Tree<std::_Tmap_traits<unsigned long,unsigned long,std::less<unsigned long>,std::allocator<std::pair<unsigned long const ,unsigned long> >,0> >::_Alloc_sentinel_and_proxy
PUBLIC	?_Getcomp@?$_Tree@V?$_Tmap_traits@KKU?$less@K@std@@V?$allocator@U?$pair@$$CBKK@std@@@2@$0A@@std@@@std@@IBEABU?$less@K@2@XZ ; std::_Tree<std::_Tmap_traits<unsigned long,unsigned long,std::less<unsigned long>,std::allocator<std::pair<unsigned long const ,unsigned long> >,0> >::_Getcomp
PUBLIC	?_Getal@?$_Tree@V?$_Tmap_traits@KKU?$less@K@std@@V?$allocator@U?$pair@$$CBKK@std@@@2@$0A@@std@@@std@@IAEAAV?$allocator@U?$_Tree_node@U?$pair@$$CBKK@std@@PAX@std@@@2@XZ ; std::_Tree<std::_Tmap_traits<unsigned long,unsigned long,std::less<unsigned long>,std::allocator<std::pair<unsigned long const ,unsigned long> >,0> >::_Getal
PUBLIC	?_Getal@?$_Tree@V?$_Tmap_traits@KKU?$less@K@std@@V?$allocator@U?$pair@$$CBKK@std@@@2@$0A@@std@@@std@@IBEABV?$allocator@U?$_Tree_node@U?$pair@$$CBKK@std@@PAX@std@@@2@XZ ; std::_Tree<std::_Tmap_traits<unsigned long,unsigned long,std::less<unsigned long>,std::allocator<std::pair<unsigned long const ,unsigned long> >,0> >::_Getal
PUBLIC	?_Get_scary@?$_Tree@V?$_Tmap_traits@KKU?$less@K@std@@V?$allocator@U?$pair@$$CBKK@std@@@2@$0A@@std@@@std@@IAEPAV?$_Tree_val@U?$_Tree_simple_types@U?$pair@$$CBKK@std@@@std@@@2@XZ ; std::_Tree<std::_Tmap_traits<unsigned long,unsigned long,std::less<unsigned long>,std::allocator<std::pair<unsigned long const ,unsigned long> >,0> >::_Get_scary
PUBLIC	?_Get_scary@?$_Tree@V?$_Tmap_traits@KKU?$less@K@std@@V?$allocator@U?$pair@$$CBKK@std@@@2@$0A@@std@@@std@@IBEPBV?$_Tree_val@U?$_Tree_simple_types@U?$pair@$$CBKK@std@@@std@@@2@XZ ; std::_Tree<std::_Tmap_traits<unsigned long,unsigned long,std::less<unsigned long>,std::allocator<std::pair<unsigned long const ,unsigned long> >,0> >::_Get_scary
PUBLIC	??R?$less@K@std@@QBE_NABK0@Z			; std::less<unsigned long>::operator()
PUBLIC	??0?$_Tree_val@U?$_Tree_simple_types@U?$pair@$$CBKK@std@@@std@@@std@@QAE@XZ ; std::_Tree_val<std::_Tree_simple_types<std::pair<unsigned long const ,unsigned long> > >::_Tree_val<std::_Tree_simple_types<std::pair<unsigned long const ,unsigned long> > >
PUBLIC	?_Lrotate@?$_Tree_val@U?$_Tree_simple_types@U?$pair@$$CBKK@std@@@std@@@std@@QAEXPAU?$_Tree_node@U?$pair@$$CBKK@std@@PAX@2@@Z ; std::_Tree_val<std::_Tree_simple_types<std::pair<unsigned long const ,unsigned long> > >::_Lrotate
PUBLIC	?_Rrotate@?$_Tree_val@U?$_Tree_simple_types@U?$pair@$$CBKK@std@@@std@@@std@@QAEXPAU?$_Tree_node@U?$pair@$$CBKK@std@@PAX@2@@Z ; std::_Tree_val<std::_Tree_simple_types<std::pair<unsigned long const ,unsigned long> > >::_Rrotate
PUBLIC	?_Insert_node@?$_Tree_val@U?$_Tree_simple_types@U?$pair@$$CBKK@std@@@std@@@std@@QAEPAU?$_Tree_node@U?$pair@$$CBKK@std@@PAX@2@U?$_Tree_id@PAU?$_Tree_node@U?$pair@$$CBKK@std@@PAX@std@@@2@QAU32@@Z ; std::_Tree_val<std::_Tree_simple_types<std::pair<unsigned long const ,unsigned long> > >::_Insert_node
PUBLIC	?_Orphan_ptr@?$_Tree_val@U?$_Tree_simple_types@U?$pair@$$CBKK@std@@@std@@@std@@QAEXQAU?$_Tree_node@U?$pair@$$CBKK@std@@PAX@2@@Z ; std::_Tree_val<std::_Tree_simple_types<std::pair<unsigned long const ,unsigned long> > >::_Orphan_ptr
PUBLIC	?_Get_first@?$_Compressed_pair@V?$allocator@U?$_Tree_node@U?$pair@$$CBKK@std@@PAX@std@@@std@@V?$_Tree_val@U?$_Tree_simple_types@U?$pair@$$CBKK@std@@@std@@@2@$00@std@@QAEAAV?$allocator@U?$_Tree_node@U?$pair@$$CBKK@std@@PAX@std@@@2@XZ ; std::_Compressed_pair<std::allocator<std::_Tree_node<std::pair<unsigned long const ,unsigned long>,void *> >,std::_Tree_val<std::_Tree_simple_types<std::pair<unsigned long const ,unsigned long> > >,1>::_Get_first
PUBLIC	?_Get_first@?$_Compressed_pair@V?$allocator@U?$_Tree_node@U?$pair@$$CBKK@std@@PAX@std@@@std@@V?$_Tree_val@U?$_Tree_simple_types@U?$pair@$$CBKK@std@@@std@@@2@$00@std@@QBEABV?$allocator@U?$_Tree_node@U?$pair@$$CBKK@std@@PAX@std@@@2@XZ ; std::_Compressed_pair<std::allocator<std::_Tree_node<std::pair<unsigned long const ,unsigned long>,void *> >,std::_Tree_val<std::_Tree_simple_types<std::pair<unsigned long const ,unsigned long> > >,1>::_Get_first
PUBLIC	?_Get_first@?$_Compressed_pair@U?$less@K@std@@V?$_Compressed_pair@V?$allocator@U?$_Tree_node@U?$pair@$$CBKK@std@@PAX@std@@@std@@V?$_Tree_val@U?$_Tree_simple_types@U?$pair@$$CBKK@std@@@std@@@2@$00@2@$00@std@@QBEABU?$less@K@2@XZ ; std::_Compressed_pair<std::less<unsigned long>,std::_Compressed_pair<std::allocator<std::_Tree_node<std::pair<unsigned long const ,unsigned long>,void *> >,std::_Tree_val<std::_Tree_simple_types<std::pair<unsigned long const ,unsigned long> > >,1>,1>::_Get_first
PUBLIC	??0?$map@KKU?$less@K@std@@V?$allocator@U?$pair@$$CBKK@std@@@2@@std@@QAE@XZ ; std::map<unsigned long,unsigned long,std::less<unsigned long>,std::allocator<std::pair<unsigned long const ,unsigned long> > >::map<unsigned long,unsigned long,std::less<unsigned long>,std::allocator<std::pair<unsigned long const ,unsigned long> > >
PUBLIC	??1?$map@KKU?$less@K@std@@V?$allocator@U?$pair@$$CBKK@std@@@2@@std@@QAE@XZ ; std::map<unsigned long,unsigned long,std::less<unsigned long>,std::allocator<std::pair<unsigned long const ,unsigned long> > >::~map<unsigned long,unsigned long,std::less<unsigned long>,std::allocator<std::pair<unsigned long const ,unsigned long> > >
PUBLIC	??0CGlobalConfig@@QAE@XZ			; CGlobalConfig::CGlobalConfig
PUBLIC	??1CGlobalConfig@@QAE@XZ			; CGlobalConfig::~CGlobalConfig
PUBLIC	??0?$_Tree_unchecked_const_iterator@V?$_Tree_val@U?$_Tree_simple_types@U?$pair@$$CBKK@std@@@std@@@std@@U_Iterator_base0@2@@std@@QAE@PAU?$_Tree_node@U?$pair@$$CBKK@std@@PAX@1@PBV?$_Tree_val@U?$_Tree_simple_types@U?$pair@$$CBKK@std@@@std@@@1@@Z ; std::_Tree_unchecked_const_iterator<std::_Tree_val<std::_Tree_simple_types<std::pair<unsigned long const ,unsigned long> > >,std::_Iterator_base0>::_Tree_unchecked_const_iterator<std::_Tree_val<std::_Tree_simple_types<std::pair<unsigned long const ,unsigned long> > >,std::_Iterator_base0>
PUBLIC	??0?$_Tree_const_iterator@V?$_Tree_val@U?$_Tree_simple_types@U?$pair@$$CBKK@std@@@std@@@std@@@std@@QAE@PAU?$_Tree_node@U?$pair@$$CBKK@std@@PAX@1@PBV?$_Tree_val@U?$_Tree_simple_types@U?$pair@$$CBKK@std@@@std@@@1@@Z ; std::_Tree_const_iterator<std::_Tree_val<std::_Tree_simple_types<std::pair<unsigned long const ,unsigned long> > > >::_Tree_const_iterator<std::_Tree_val<std::_Tree_simple_types<std::pair<unsigned long const ,unsigned long> > > >
PUBLIC	??0?$_Tree_iterator@V?$_Tree_val@U?$_Tree_simple_types@U?$pair@$$CBKK@std@@@std@@@std@@@std@@QAE@PAU?$_Tree_node@U?$pair@$$CBKK@std@@PAX@1@PBV?$_Tree_val@U?$_Tree_simple_types@U?$pair@$$CBKK@std@@@std@@@1@@Z ; std::_Tree_iterator<std::_Tree_val<std::_Tree_simple_types<std::pair<unsigned long const ,unsigned long> > > >::_Tree_iterator<std::_Tree_val<std::_Tree_simple_types<std::pair<unsigned long const ,unsigned long> > > >
PUBLIC	??$addressof@U?$pair@$$CBKK@std@@@std@@YAPAU?$pair@$$CBKK@0@AAU10@@Z ; std::addressof<std::pair<unsigned long const ,unsigned long> >
PUBLIC	??$addressof@V?$_Tree_val@U?$_Tree_simple_types@U?$pair@$$CBKK@std@@@std@@@std@@@std@@YAPAV?$_Tree_val@U?$_Tree_simple_types@U?$pair@$$CBKK@std@@@std@@@0@AAV10@@Z ; std::addressof<std::_Tree_val<std::_Tree_simple_types<std::pair<unsigned long const ,unsigned long> > > >
PUBLIC	??$min@I@std@@YAABIABI0@Z			; std::min<unsigned int>
PUBLIC	??$_Deallocate@$07$0A@@std@@YAXPAXI@Z		; std::_Deallocate<8,0>
PUBLIC	??$_Allocate@$07U_Default_allocate_traits@std@@$0A@@std@@YAPAXI@Z ; std::_Allocate<8,std::_Default_allocate_traits,0>
PUBLIC	??$_Find_lower_bound@K@?$_Tree@V?$_Tmap_traits@KKU?$less@K@std@@V?$allocator@U?$pair@$$CBKK@std@@@2@$0A@@std@@@std@@IBE?AU?$_Tree_find_result@PAU?$_Tree_node@U?$pair@$$CBKK@std@@PAX@std@@@1@ABK@Z ; std::_Tree<std::_Tmap_traits<unsigned long,unsigned long,std::less<unsigned long>,std::allocator<std::pair<unsigned long const ,unsigned long> >,0> >::_Find_lower_bound<unsigned long>
PUBLIC	??$_Lower_bound_duplicate@K@?$_Tree@V?$_Tmap_traits@KKU?$less@K@std@@V?$allocator@U?$pair@$$CBKK@std@@@2@$0A@@std@@@std@@IBE_NQAU?$_Tree_node@U?$pair@$$CBKK@std@@PAX@1@ABK@Z ; std::_Tree<std::_Tmap_traits<unsigned long,unsigned long,std::less<unsigned long>,std::allocator<std::pair<unsigned long const ,unsigned long> >,0> >::_Lower_bound_duplicate<unsigned long>
PUBLIC	??$_Allocate_manually_vector_aligned@U_Default_allocate_traits@std@@@std@@YAPAXI@Z ; std::_Allocate_manually_vector_aligned<std::_Default_allocate_traits>
PUBLIC	??$addressof@$$CBV?$_Tree_val@U?$_Tree_simple_types@U?$pair@$$CBKK@std@@@std@@@std@@@std@@YAPBV?$_Tree_val@U?$_Tree_simple_types@U?$pair@$$CBKK@std@@@std@@@0@ABV10@@Z ; std::addressof<std::_Tree_val<std::_Tree_simple_types<std::pair<unsigned long const ,unsigned long> > > const >
PUBLIC	??$_Kfn@$$CBKK@?$_Tmap_traits@KKU?$less@K@std@@V?$allocator@U?$pair@$$CBKK@std@@@2@$0A@@std@@SAABKABU?$pair@$$CBKK@1@@Z ; std::_Tmap_traits<unsigned long,unsigned long,std::less<unsigned long>,std::allocator<std::pair<unsigned long const ,unsigned long> >,0>::_Kfn<unsigned long const ,unsigned long>
PUBLIC	??$make_pair@AAKAAK@std@@YA?AU?$pair@KK@0@AAK0@Z ; std::make_pair<unsigned long &,unsigned long &>
PUBLIC	??$?0KK$0A@@?$pair@$$CBKK@std@@QAE@$$QAU?$pair@KK@1@@Z ; std::pair<unsigned long const ,unsigned long>::pair<unsigned long const ,unsigned long><unsigned long,unsigned long,0>
PUBLIC	??$insert@U?$pair@KK@std@@$0A@@?$map@KKU?$less@K@std@@V?$allocator@U?$pair@$$CBKK@std@@@2@@std@@QAE?AU?$pair@V?$_Tree_iterator@V?$_Tree_val@U?$_Tree_simple_types@U?$pair@$$CBKK@std@@@std@@@std@@@std@@_N@1@$$QAU?$pair@KK@1@@Z ; std::map<unsigned long,unsigned long,std::less<unsigned long>,std::allocator<std::pair<unsigned long const ,unsigned long> > >::insert<std::pair<unsigned long,unsigned long>,0>
PUBLIC	??$_Erase_tree@V?$allocator@U?$_Tree_node@U?$pair@$$CBKK@std@@PAX@std@@@std@@@?$_Tree_val@U?$_Tree_simple_types@U?$pair@$$CBKK@std@@@std@@@std@@QAEXAAV?$allocator@U?$_Tree_node@U?$pair@$$CBKK@std@@PAX@std@@@1@PAU?$_Tree_node@U?$pair@$$CBKK@std@@PAX@1@@Z ; std::_Tree_val<std::_Tree_simple_types<std::pair<unsigned long const ,unsigned long> > >::_Erase_tree<std::allocator<std::_Tree_node<std::pair<unsigned long const ,unsigned long>,void *> > >
PUBLIC	??$_Erase_head@V?$allocator@U?$_Tree_node@U?$pair@$$CBKK@std@@PAX@std@@@std@@@?$_Tree_val@U?$_Tree_simple_types@U?$pair@$$CBKK@std@@@std@@@std@@QAEXAAV?$allocator@U?$_Tree_node@U?$pair@$$CBKK@std@@PAX@std@@@1@@Z ; std::_Tree_val<std::_Tree_simple_types<std::pair<unsigned long const ,unsigned long> > >::_Erase_head<std::allocator<std::_Tree_node<std::pair<unsigned long const ,unsigned long>,void *> > >
PUBLIC	??$?0ABU?$less@K@std@@U_Zero_then_variadic_args_t@1@@?$_Compressed_pair@U?$less@K@std@@V?$_Compressed_pair@V?$allocator@U?$_Tree_node@U?$pair@$$CBKK@std@@PAX@std@@@std@@V?$_Tree_val@U?$_Tree_simple_types@U?$pair@$$CBKK@std@@@std@@@2@$00@2@$00@std@@QAE@U_One_then_variadic_args_t@1@ABU?$less@K@1@$$QAU_Zero_then_variadic_args_t@1@@Z ; std::_Compressed_pair<std::less<unsigned long>,std::_Compressed_pair<std::allocator<std::_Tree_node<std::pair<unsigned long const ,unsigned long>,void *> >,std::_Tree_val<std::_Tree_simple_types<std::pair<unsigned long const ,unsigned long> > >,1>,1>::_Compressed_pair<std::less<unsigned long>,std::_Compressed_pair<std::allocator<std::_Tree_node<std::pair<unsigned long const ,unsigned long>,void *> >,std::_Tree_val<std::_Tree_simple_types<std::pair<unsigned long const ,unsigned long> > >,1>,1><std::less<unsigned long> const &,std::_Zero_then_variadic_args_t>
PUBLIC	??$?0$$V@?$_Compressed_pair@V?$allocator@U?$_Tree_node@U?$pair@$$CBKK@std@@PAX@std@@@std@@V?$_Tree_val@U?$_Tree_simple_types@U?$pair@$$CBKK@std@@@std@@@2@$00@std@@QAE@U_Zero_then_variadic_args_t@1@@Z ; std::_Compressed_pair<std::allocator<std::_Tree_node<std::pair<unsigned long const ,unsigned long>,void *> >,std::_Tree_val<std::_Tree_simple_types<std::pair<unsigned long const ,unsigned long> > >,1>::_Compressed_pair<std::allocator<std::_Tree_node<std::pair<unsigned long const ,unsigned long>,void *> >,std::_Tree_val<std::_Tree_simple_types<std::pair<unsigned long const ,unsigned long> > >,1><>
PUBLIC	??$_Buyheadnode@V?$allocator@U?$_Tree_node@U?$pair@$$CBKK@std@@PAX@std@@@std@@@?$_Tree_node@U?$pair@$$CBKK@std@@PAX@std@@SAPAU01@AAV?$allocator@U?$_Tree_node@U?$pair@$$CBKK@std@@PAX@std@@@1@@Z ; std::_Tree_node<std::pair<unsigned long const ,unsigned long>,void *>::_Buyheadnode<std::allocator<std::_Tree_node<std::pair<unsigned long const ,unsigned long>,void *> > >
PUBLIC	??$forward@AAK@std@@YAAAKAAK@Z			; std::forward<unsigned long &>
PUBLIC	??$?0AAKAAK$0A@@?$pair@KK@std@@QAE@AAK0@Z	; std::pair<unsigned long,unsigned long>::pair<unsigned long,unsigned long><unsigned long &,unsigned long &,0>
PUBLIC	??$forward@U?$pair@KK@std@@@std@@YA$$QAU?$pair@KK@0@AAU10@@Z ; std::forward<std::pair<unsigned long,unsigned long> >
PUBLIC	??$emplace@U?$pair@KK@std@@@?$_Tree@V?$_Tmap_traits@KKU?$less@K@std@@V?$allocator@U?$pair@$$CBKK@std@@@2@$0A@@std@@@std@@QAE?AU?$pair@V?$_Tree_iterator@V?$_Tree_val@U?$_Tree_simple_types@U?$pair@$$CBKK@std@@@std@@@std@@@std@@_N@1@$$QAU?$pair@KK@1@@Z ; std::_Tree<std::_Tmap_traits<unsigned long,unsigned long,std::less<unsigned long>,std::allocator<std::pair<unsigned long const ,unsigned long> >,0> >::emplace<std::pair<unsigned long,unsigned long> >
PUBLIC	??$exchange@PAU?$_Tree_node@U?$pair@$$CBKK@std@@PAX@std@@AAPAU12@@std@@YAPAU?$_Tree_node@U?$pair@$$CBKK@std@@PAX@0@AAPAU10@0@Z ; std::exchange<std::_Tree_node<std::pair<unsigned long const ,unsigned long>,void *> *,std::_Tree_node<std::pair<unsigned long const ,unsigned long>,void *> * &>
PUBLIC	??$_Freenode@V?$allocator@U?$_Tree_node@U?$pair@$$CBKK@std@@PAX@std@@@std@@@?$_Tree_node@U?$pair@$$CBKK@std@@PAX@std@@SAXAAV?$allocator@U?$_Tree_node@U?$pair@$$CBKK@std@@PAX@std@@@1@PAU01@@Z ; std::_Tree_node<std::pair<unsigned long const ,unsigned long>,void *>::_Freenode<std::allocator<std::_Tree_node<std::pair<unsigned long const ,unsigned long>,void *> > >
PUBLIC	??$_Freenode0@V?$allocator@U?$_Tree_node@U?$pair@$$CBKK@std@@PAX@std@@@std@@@?$_Tree_node@U?$pair@$$CBKK@std@@PAX@std@@SAXAAV?$allocator@U?$_Tree_node@U?$pair@$$CBKK@std@@PAX@std@@@1@PAU01@@Z ; std::_Tree_node<std::pair<unsigned long const ,unsigned long>,void *>::_Freenode0<std::allocator<std::_Tree_node<std::pair<unsigned long const ,unsigned long>,void *> > >
PUBLIC	??$forward@ABU?$less@K@std@@@std@@YAABU?$less@K@0@ABU10@@Z ; std::forward<std::less<unsigned long> const &>
PUBLIC	??$forward@U_Zero_then_variadic_args_t@std@@@std@@YA$$QAU_Zero_then_variadic_args_t@0@AAU10@@Z ; std::forward<std::_Zero_then_variadic_args_t>
PUBLIC	??$_Construct_in_place@PAU?$_Tree_node@U?$pair@$$CBKK@std@@PAX@std@@ABQAU12@@std@@YAXAAPAU?$_Tree_node@U?$pair@$$CBKK@std@@PAX@0@ABQAU10@@Z ; std::_Construct_in_place<std::_Tree_node<std::pair<unsigned long const ,unsigned long>,void *> *,std::_Tree_node<std::pair<unsigned long const ,unsigned long>,void *> * const &>
PUBLIC	??$_Get_size_of_n@$0BI@@std@@YAII@Z		; std::_Get_size_of_n<24>
PUBLIC	??$_Emplace@U?$pair@KK@std@@@?$_Tree@V?$_Tmap_traits@KKU?$less@K@std@@V?$allocator@U?$pair@$$CBKK@std@@@2@$0A@@std@@@std@@IAE?AU?$pair@PAU?$_Tree_node@U?$pair@$$CBKK@std@@PAX@std@@_N@1@$$QAU?$pair@KK@1@@Z ; std::_Tree<std::_Tmap_traits<unsigned long,unsigned long,std::less<unsigned long>,std::allocator<std::pair<unsigned long const ,unsigned long> >,0> >::_Emplace<std::pair<unsigned long,unsigned long> >
PUBLIC	??$?0V?$_Tree_iterator@V?$_Tree_val@U?$_Tree_simple_types@U?$pair@$$CBKK@std@@@std@@@std@@@std@@AB_N$0A@@?$pair@V?$_Tree_iterator@V?$_Tree_val@U?$_Tree_simple_types@U?$pair@$$CBKK@std@@@std@@@std@@@std@@_N@std@@QAE@$$QAV?$_Tree_iterator@V?$_Tree_val@U?$_Tree_simple_types@U?$pair@$$CBKK@std@@@std@@@std@@@1@AB_N@Z ; std::pair<std::_Tree_iterator<std::_Tree_val<std::_Tree_simple_types<std::pair<unsigned long const ,unsigned long> > > >,bool>::pair<std::_Tree_iterator<std::_Tree_val<std::_Tree_simple_types<std::pair<unsigned long const ,unsigned long> > > >,bool><std::_Tree_iterator<std::_Tree_val<std::_Tree_simple_types<std::pair<unsigned long const ,unsigned long> > > >,bool const &,0>
PUBLIC	??$destroy@U?$pair@$$CBKK@std@@@?$_Default_allocator_traits@V?$allocator@U?$_Tree_node@U?$pair@$$CBKK@std@@PAX@std@@@std@@@std@@SAXAAV?$allocator@U?$_Tree_node@U?$pair@$$CBKK@std@@PAX@std@@@1@QAU?$pair@$$CBKK@1@@Z ; std::_Default_allocator_traits<std::allocator<std::_Tree_node<std::pair<unsigned long const ,unsigned long>,void *> > >::destroy<std::pair<unsigned long const ,unsigned long> >
PUBLIC	??$_Destroy_in_place@PAU?$_Tree_node@U?$pair@$$CBKK@std@@PAX@std@@@std@@YAXAAPAU?$_Tree_node@U?$pair@$$CBKK@std@@PAX@0@@Z ; std::_Destroy_in_place<std::_Tree_node<std::pair<unsigned long const ,unsigned long>,void *> *>
PUBLIC	??$addressof@PAU?$_Tree_node@U?$pair@$$CBKK@std@@PAX@std@@@std@@YAPAPAU?$_Tree_node@U?$pair@$$CBKK@std@@PAX@0@AAPAU10@@Z ; std::addressof<std::_Tree_node<std::pair<unsigned long const ,unsigned long>,void *> *>
PUBLIC	??$forward@ABQAU?$_Tree_node@U?$pair@$$CBKK@std@@PAX@std@@@std@@YAABQAU?$_Tree_node@U?$pair@$$CBKK@std@@PAX@0@ABQAU10@@Z ; std::forward<std::_Tree_node<std::pair<unsigned long const ,unsigned long>,void *> * const &>
PUBLIC	?_Extract@?$_In_place_key_extract_map@KU?$pair@KK@std@@@std@@SAABKABU?$pair@KK@2@@Z ; std::_In_place_key_extract_map<unsigned long,std::pair<unsigned long,unsigned long> >::_Extract
PUBLIC	??$?0AAPAU?$_Tree_node@U?$pair@$$CBKK@std@@PAX@std@@_N$0A@@?$pair@PAU?$_Tree_node@U?$pair@$$CBKK@std@@PAX@std@@_N@std@@QAE@AAPAU?$_Tree_node@U?$pair@$$CBKK@std@@PAX@1@$$QA_N@Z ; std::pair<std::_Tree_node<std::pair<unsigned long const ,unsigned long>,void *> *,bool>::pair<std::_Tree_node<std::pair<unsigned long const ,unsigned long>,void *> *,bool><std::_Tree_node<std::pair<unsigned long const ,unsigned long>,void *> * &,bool,0>
PUBLIC	??0?$_Alloc_construct_ptr@V?$allocator@U?$_Tree_node@U?$pair@$$CBKK@std@@PAX@std@@@std@@@std@@QAE@AAV?$allocator@U?$_Tree_node@U?$pair@$$CBKK@std@@PAX@std@@@1@@Z ; std::_Alloc_construct_ptr<std::allocator<std::_Tree_node<std::pair<unsigned long const ,unsigned long>,void *> > >::_Alloc_construct_ptr<std::allocator<std::_Tree_node<std::pair<unsigned long const ,unsigned long>,void *> > >
PUBLIC	?_Release@?$_Alloc_construct_ptr@V?$allocator@U?$_Tree_node@U?$pair@$$CBKK@std@@PAX@std@@@std@@@std@@QAEPAU?$_Tree_node@U?$pair@$$CBKK@std@@PAX@2@XZ ; std::_Alloc_construct_ptr<std::allocator<std::_Tree_node<std::pair<unsigned long const ,unsigned long>,void *> > >::_Release
PUBLIC	?_Allocate@?$_Alloc_construct_ptr@V?$allocator@U?$_Tree_node@U?$pair@$$CBKK@std@@PAX@std@@@std@@@std@@QAEXXZ ; std::_Alloc_construct_ptr<std::allocator<std::_Tree_node<std::pair<unsigned long const ,unsigned long>,void *> > >::_Allocate
PUBLIC	??1?$_Alloc_construct_ptr@V?$allocator@U?$_Tree_node@U?$pair@$$CBKK@std@@PAX@std@@@std@@@std@@QAE@XZ ; std::_Alloc_construct_ptr<std::allocator<std::_Tree_node<std::pair<unsigned long const ,unsigned long>,void *> > >::~_Alloc_construct_ptr<std::allocator<std::_Tree_node<std::pair<unsigned long const ,unsigned long>,void *> > >
PUBLIC	??0?$_Tree_temp_node_alloc@V?$allocator@U?$_Tree_node@U?$pair@$$CBKK@std@@PAX@std@@@std@@@std@@QAE@AAV?$allocator@U?$_Tree_node@U?$pair@$$CBKK@std@@PAX@std@@@1@@Z ; std::_Tree_temp_node_alloc<std::allocator<std::_Tree_node<std::pair<unsigned long const ,unsigned long>,void *> > >::_Tree_temp_node_alloc<std::allocator<std::_Tree_node<std::pair<unsigned long const ,unsigned long>,void *> > >
PUBLIC	??1?$_Tree_temp_node_alloc@V?$allocator@U?$_Tree_node@U?$pair@$$CBKK@std@@PAX@std@@@std@@@std@@QAE@XZ ; std::_Tree_temp_node_alloc<std::allocator<std::_Tree_node<std::pair<unsigned long const ,unsigned long>,void *> > >::~_Tree_temp_node_alloc<std::allocator<std::_Tree_node<std::pair<unsigned long const ,unsigned long>,void *> > >
PUBLIC	??1?$_Tree_temp_node@V?$allocator@U?$_Tree_node@U?$pair@$$CBKK@std@@PAX@std@@@std@@@std@@QAE@XZ ; std::_Tree_temp_node<std::allocator<std::_Tree_node<std::pair<unsigned long const ,unsigned long>,void *> > >::~_Tree_temp_node<std::allocator<std::_Tree_node<std::pair<unsigned long const ,unsigned long>,void *> > >
PUBLIC	??$?0U?$pair@KK@std@@@?$_Tree_temp_node@V?$allocator@U?$_Tree_node@U?$pair@$$CBKK@std@@PAX@std@@@std@@@std@@QAE@AAV?$allocator@U?$_Tree_node@U?$pair@$$CBKK@std@@PAX@std@@@1@PAU?$_Tree_node@U?$pair@$$CBKK@std@@PAX@1@$$QAU?$pair@KK@1@@Z ; std::_Tree_temp_node<std::allocator<std::_Tree_node<std::pair<unsigned long const ,unsigned long>,void *> > >::_Tree_temp_node<std::allocator<std::_Tree_node<std::pair<unsigned long const ,unsigned long>,void *> > ><std::pair<unsigned long,unsigned long> >
PUBLIC	??$?0PAU?$_Tree_node@U?$pair@$$CBKK@std@@PAX@std@@_N$0A@@?$pair@PAU?$_Tree_node@U?$pair@$$CBKK@std@@PAX@std@@_N@std@@QAE@$$QAPAU?$_Tree_node@U?$pair@$$CBKK@std@@PAX@1@$$QA_N@Z ; std::pair<std::_Tree_node<std::pair<unsigned long const ,unsigned long>,void *> *,bool>::pair<std::_Tree_node<std::pair<unsigned long const ,unsigned long>,void *> *,bool><std::_Tree_node<std::pair<unsigned long const ,unsigned long>,void *> *,bool,0>
PUBLIC	??$forward@V?$_Tree_iterator@V?$_Tree_val@U?$_Tree_simple_types@U?$pair@$$CBKK@std@@@std@@@std@@@std@@@std@@YA$$QAV?$_Tree_iterator@V?$_Tree_val@U?$_Tree_simple_types@U?$pair@$$CBKK@std@@@std@@@std@@@0@AAV10@@Z ; std::forward<std::_Tree_iterator<std::_Tree_val<std::_Tree_simple_types<std::pair<unsigned long const ,unsigned long> > > > >
PUBLIC	??$forward@AB_N@std@@YAAB_NAB_N@Z		; std::forward<bool const &>
PUBLIC	??$exchange@PAU?$_Tree_node@U?$pair@$$CBKK@std@@PAX@std@@$$T@std@@YAPAU?$_Tree_node@U?$pair@$$CBKK@std@@PAX@0@AAPAU10@$$QA$$T@Z ; std::exchange<std::_Tree_node<std::pair<unsigned long const ,unsigned long>,void *> *,std::nullptr_t>
PUBLIC	??$forward@AAPAU?$_Tree_node@U?$pair@$$CBKK@std@@PAX@std@@@std@@YAAAPAU?$_Tree_node@U?$pair@$$CBKK@std@@PAX@0@AAPAU10@@Z ; std::forward<std::_Tree_node<std::pair<unsigned long const ,unsigned long>,void *> * &>
PUBLIC	??$forward@_N@std@@YA$$QA_NAA_N@Z		; std::forward<bool>
PUBLIC	??$construct@U?$pair@$$CBKK@std@@U?$pair@KK@2@@?$_Default_allocator_traits@V?$allocator@U?$_Tree_node@U?$pair@$$CBKK@std@@PAX@std@@@std@@@std@@SAXAAV?$allocator@U?$_Tree_node@U?$pair@$$CBKK@std@@PAX@std@@@1@QAU?$pair@$$CBKK@1@$$QAU?$pair@KK@1@@Z ; std::_Default_allocator_traits<std::allocator<std::_Tree_node<std::pair<unsigned long const ,unsigned long>,void *> > >::construct<std::pair<unsigned long const ,unsigned long>,std::pair<unsigned long,unsigned long> >
PUBLIC	??$_Construct_in_place@PAU?$_Tree_node@U?$pair@$$CBKK@std@@PAX@std@@AAPAU12@@std@@YAXAAPAU?$_Tree_node@U?$pair@$$CBKK@std@@PAX@0@0@Z ; std::_Construct_in_place<std::_Tree_node<std::pair<unsigned long const ,unsigned long>,void *> *,std::_Tree_node<std::pair<unsigned long const ,unsigned long>,void *> * &>
PUBLIC	??$forward@PAU?$_Tree_node@U?$pair@$$CBKK@std@@PAX@std@@@std@@YA$$QAPAU?$_Tree_node@U?$pair@$$CBKK@std@@PAX@0@AAPAU10@@Z ; std::forward<std::_Tree_node<std::pair<unsigned long const ,unsigned long>,void *> *>
PUBLIC	??$forward@K@std@@YA$$QAKAAK@Z			; std::forward<unsigned long>
PUBLIC	??_7exception@std@@6B@				; std::exception::`vftable'
PUBLIC	??_C@_0BC@EOODALEL@Unknown?5exception@		; `string'
PUBLIC	??_7bad_alloc@std@@6B@				; std::bad_alloc::`vftable'
PUBLIC	??_7bad_array_new_length@std@@6B@		; std::bad_array_new_length::`vftable'
PUBLIC	??_C@_0BF@KINCDENJ@bad?5array?5new?5length@	; `string'
PUBLIC	__TI3?AVbad_array_new_length@std@@
PUBLIC	__CTA3?AVbad_array_new_length@std@@
PUBLIC	??_R0?AVbad_array_new_length@std@@@8		; std::bad_array_new_length `RTTI Type Descriptor'
PUBLIC	__CT??_R0?AVbad_array_new_length@std@@@8??0bad_array_new_length@std@@QAE@ABV01@@Z12
PUBLIC	??_R0?AVbad_alloc@std@@@8			; std::bad_alloc `RTTI Type Descriptor'
PUBLIC	__CT??_R0?AVbad_alloc@std@@@8??0bad_alloc@std@@QAE@ABV01@@Z12
PUBLIC	??_R0?AVexception@std@@@8			; std::exception `RTTI Type Descriptor'
PUBLIC	__CT??_R0?AVexception@std@@@8??0exception@std@@QAE@ABV01@@Z12
PUBLIC	??_C@_0BB@GCADKGJO@map?1set?5too?5long@		; `string'
PUBLIC	?g_GlobalConfig@@3VCGlobalConfig@@A		; g_GlobalConfig
PUBLIC	??_R4exception@std@@6B@				; std::exception::`RTTI Complete Object Locator'
PUBLIC	??_R3exception@std@@8				; std::exception::`RTTI Class Hierarchy Descriptor'
PUBLIC	??_R2exception@std@@8				; std::exception::`RTTI Base Class Array'
PUBLIC	??_R1A@?0A@EA@exception@std@@8			; std::exception::`RTTI Base Class Descriptor at (0,-1,0,64)'
PUBLIC	??_R4bad_alloc@std@@6B@				; std::bad_alloc::`RTTI Complete Object Locator'
PUBLIC	??_R3bad_alloc@std@@8				; std::bad_alloc::`RTTI Class Hierarchy Descriptor'
PUBLIC	??_R2bad_alloc@std@@8				; std::bad_alloc::`RTTI Base Class Array'
PUBLIC	??_R1A@?0A@EA@bad_alloc@std@@8			; std::bad_alloc::`RTTI Base Class Descriptor at (0,-1,0,64)'
PUBLIC	??_R4bad_array_new_length@std@@6B@		; std::bad_array_new_length::`RTTI Complete Object Locator'
PUBLIC	??_R3bad_array_new_length@std@@8		; std::bad_array_new_length::`RTTI Class Hierarchy Descriptor'
PUBLIC	??_R2bad_array_new_length@std@@8		; std::bad_array_new_length::`RTTI Base Class Array'
PUBLIC	??_R1A@?0A@EA@bad_array_new_length@std@@8	; std::bad_array_new_length::`RTTI Base Class Descriptor at (0,-1,0,64)'
PUBLIC	??_C@_0O@PICFDPIE@UsePersonalID@		; `string'
PUBLIC	??_C@_0P@EMJDPFDH@GameServerInfo@		; `string'
PUBLIC	??_C@_0BA@GIEDOACG@CheckSkillLevel@		; `string'
PUBLIC	??_C@_0BD@FLPDKIEL@DisableTwistingPVP@		; `string'
PUBLIC	??_C@_0P@KHAHMPAL@DisableBlowPVP@		; `string'
PUBLIC	??_C@_0BA@LOIDAEFL@DisableDecayPVP@		; `string'
PUBLIC	??_C@_0BA@HCCJBOIL@DisableComboPVP@		; `string'
PUBLIC	??_C@_0BD@DLNCCKEC@FormulaComboDamage@		; `string'
PUBLIC	??_C@_0L@KPNHPMGP@CloseCount@			; `string'
PUBLIC	??_C@_0BB@OMEMPADG@ItemDurationTime@		; `string'
PUBLIC	??_C@_09OBNEBOHK@CheckItem@			; `string'
PUBLIC	??_C@_0BB@LKOCJCGC@DisableFullTrade@		; `string'
PUBLIC	??_C@_0BF@KAPHEHB@MinTradeItemExOption@		; `string'
PUBLIC	??_C@_0P@MLNIDIEP@WarMonsterKill@		; `string'
PUBLIC	??_C@_0BA@HNPBGAPO@DuelMonsterKill@		; `string'
PUBLIC	??_C@_0M@NGACIDEP@UseChecksum@			; `string'
PUBLIC	??_C@_0BE@MIMFCKPJ@LifeRateWithoutLuck@		; `string'
PUBLIC	??_C@_0BE@GMNDPPEJ@SoulRateWithoutLuck@		; `string'
PUBLIC	??_C@_0BB@IALMLJBK@SoulRateWithLuck@		; `string'
PUBLIC	??_C@_0BC@OIGLFJLB@InnerStrengthTime@		; `string'
PUBLIC	??_C@_0BG@BOLDHHJN@InnerStrengthVitality@	; `string'
PUBLIC	??_C@_0BE@HNBOACPN@InnerStrengthEnergy@		; `string'
PUBLIC	??_C@_0BG@IIOCMPMF@InnerStrengthMaxAddHP@	; `string'
PUBLIC	??_C@_0BE@IDFLDMAM@ManaShieldDexterity@		; `string'
PUBLIC	??_C@_0BB@DPKNKGIO@ManaShieldEnergy@		; `string'
PUBLIC	??_C@_0P@PAFHGPA@ManaShieldTime@		; `string'
PUBLIC	??_C@_0BF@IJFANKNG@ManaShieldMaxDefense@	; `string'
PUBLIC	??_C@_0BC@GHLFEMPI@Combination10Rate@		; `string'
PUBLIC	??_C@_0BC@KMOJJPFN@Combination11Rate@		; `string'
PUBLIC	??_C@_0BC@CKHNONPD@Combination12Rate@		; `string'
PUBLIC	??_C@_0BC@OBCBDOFG@Combination13Rate@		; `string'
PUBLIC	??_C@_0BD@LPMNENOP@MaxCombinationRate@		; `string'
PUBLIC	??_C@_0P@JNONJCHL@MinWingMixRate@		; `string'
PUBLIC	??_C@_0BE@OPEKICEG@MinThirdWingMixRate@		; `string'
PUBLIC	??_C@_08KHNFHHOB@MaxStats@			; `string'
PUBLIC	??_C@_0P@LFOKBDME@NormalUpPoints@		; `string'
PUBLIC	??_C@_0BA@PGGHAAPP@SpecialUpPoints@		; `string'
PUBLIC	??_C@_0O@OCFNDAJO@ExtraUpPoints@		; `string'
PUBLIC	??_C@_08BFKFNBGC@MaxLevel@			; `string'
PUBLIC	??_C@_0M@CNCFKJIB@ApplePotion@			; `string'
PUBLIC	??_C@_0O@KOEDMDMN@HPSmallPotion@		; `string'
PUBLIC	??_C@_0P@FENOPDMI@HPMediumPotion@		; `string'
PUBLIC	??_C@_0O@ILFGJMJK@HPLargePotion@		; `string'
PUBLIC	??_C@_0O@CKOAKNKA@MPSmallPotion@		; `string'
PUBLIC	??_C@_0P@GHFJENED@MPMediumPotion@		; `string'
PUBLIC	??_C@_0O@PPFPCPH@MPLargePotion@			; `string'
PUBLIC	??_C@_0BE@JKPNMHGJ@MaxPotionDurability@		; `string'
PUBLIC	??_C@_0L@IOEGFOPG@GlobalNick@			; `string'
PUBLIC	??_C@_0N@OCEIILEL@HealAuraRate@			; `string'
PUBLIC	??_C@_0P@NCENJMHP@DamageAuraRate@		; `string'
PUBLIC	??_C@_0BA@HBCBNKFD@DefenseAuraRate@		; `string'
PUBLIC	??_C@_0M@DDKABONN@DisableMake@			; `string'
PUBLIC	??_C@_0BG@IFJGENDG@DropFeatherOnlyIcarus@	; `string'
PUBLIC	??_C@_0BG@EBCNJLEI@DropMonarchOnlyIcarus@	; `string'
PUBLIC	??_C@_0BI@ENAHDDEP@DropSpiritPotOnlyIcarus@	; `string'
PUBLIC	??_C@_0BH@JGOHGOG@DropHorsePotOnlyIcarus@	; `string'
PUBLIC	??_C@_09CCLNJBGC@LimitLife@			; `string'
PUBLIC	??_C@_0N@GPNBHNHO@MaxLifeLimit@			; `string'
PUBLIC	??_C@_0O@NHKKBHEE@ExcellentDrop@		; `string'
PUBLIC	??_C@_0BA@JJNINBFP@AncientDropRate@		; `string'
PUBLIC	??_C@_0O@EDKEALMC@QCommandMoney@		; `string'
PUBLIC	??_C@_0O@LLGGEAHE@WCommandMoney@		; `string'
PUBLIC	??_C@_0BC@MDCNDIP@CheckClientSerial@		; `string'
PUBLIC	??_C@_08MNAHDEHL@BlessBug@			; `string'
PUBLIC	??_C@_0M@GEFGLKKA@MaxMissRate@			; `string'
PUBLIC	??_C@_0O@JDGFBMCH@GuildWarScore@		; `string'
PUBLIC	??_C@_07HMKBKMPL@UDPPort@			; `string'
PUBLIC	??_C@_0BB@EADNHIGG@Mirage?5Continent@		; `string'
PUBLIC	??_C@_0P@CENDCLME@ConnectMessage@		; `string'
PUBLIC	??_C@_0N@GAKPJHLA@GuardMessage@			; `string'
PUBLIC	??_C@_0P@ILEONJMP@DamageAuraTime@		; `string'
PUBLIC	??_C@_0BA@CICCJPOD@DefenseAuraTime@		; `string'
PUBLIC	??_C@_0BF@ICGAAEKP@?4?4?2data?2GmSystem?4cfg@	; `string'
PUBLIC	??_C@_0BA@IEPMMKOK@BackSpringCheck@		; `string'
PUBLIC	??_C@_01KDCPPGHE@r@				; `string'
PUBLIC	??_C@_03JBJLGPFL@end@				; `string'
PUBLIC	__real@00000000
PUBLIC	__real@42c80000
PUBLIC	__xmm@41f00000000000000000000000000000
EXTRN	??2@YAPAXI@Z:PROC				; operator new
EXTRN	??3@YAXPAXI@Z:PROC				; operator delete
EXTRN	_atexit:PROC
EXTRN	___report_rangecheckfailure:PROC
EXTRN	__invalid_parameter_noinfo_noreturn:PROC
EXTRN	_isalpha:PROC
EXTRN	_isdigit:PROC
EXTRN	_isspace:PROC
EXTRN	_isalnum:PROC
EXTRN	_strcmp:PROC
EXTRN	__imp__GetPrivateProfileIntA@16:PROC
EXTRN	__imp__GetPrivateProfileStringA@24:PROC
EXTRN	_fclose:PROC
EXTRN	_fgetc:PROC
EXTRN	_fopen:PROC
EXTRN	_getc:PROC
EXTRN	_ungetc:PROC
EXTRN	_atof:PROC
EXTRN	?_Xlength_error@std@@YAXPBD@Z:PROC		; std::_Xlength_error
EXTRN	___std_exception_copy:PROC
EXTRN	___std_exception_destroy:PROC
EXTRN	??_Eexception@std@@UAEPAXI@Z:PROC		; std::exception::`vector deleting destructor'
EXTRN	??_Ebad_alloc@std@@UAEPAXI@Z:PROC		; std::bad_alloc::`vector deleting destructor'
EXTRN	??_Ebad_array_new_length@std@@UAEPAXI@Z:PROC	; std::bad_array_new_length::`vector deleting destructor'
EXTRN	@__security_check_cookie@4:PROC
EXTRN	__CxxThrowException@8:PROC
EXTRN	___CxxFrameHandler3:PROC
EXTRN	__ftoui3:PROC
EXTRN	??_7type_info@@6B@:QWORD			; type_info::`vftable'
EXTRN	___security_cookie:DWORD
EXTRN	__fltused:DWORD
_BSS	SEGMENT
?g_GlobalConfig@@3VCGlobalConfig@@A DB 05a8H DUP (?)	; g_GlobalConfig
?SMDFile@@3PAU_iobuf@@A DD 01H DUP (?)			; SMDFile
?TokenNumber@@3MA DD 01H DUP (?)			; TokenNumber
?TokenString@@3PADA DB 064H DUP (?)			; TokenString
?CurrentToken@@3W4SMDToken@@A DD 01H DUP (?)		; CurrentToken
_BSS	ENDS
CRT$XCU	SEGMENT
?g_GlobalConfig$initializer$@@3P6AXXZA DD FLAT:??__Eg_GlobalConfig@@YAXXZ ; g_GlobalConfig$initializer$
CRT$XCU	ENDS
;	COMDAT __xmm@41f00000000000000000000000000000
CONST	SEGMENT
__xmm@41f00000000000000000000000000000 DB 00H, 00H, 00H, 00H, 00H, 00H, 00H
	DB	00H, 00H, 00H, 00H, 00H, 00H, 00H, 0f0H, 'A'
CONST	ENDS
;	COMDAT __real@42c80000
CONST	SEGMENT
__real@42c80000 DD 042c80000r			; 100
CONST	ENDS
;	COMDAT __real@00000000
CONST	SEGMENT
__real@00000000 DD 000000000r			; 0
CONST	ENDS
;	COMDAT ??_C@_03JBJLGPFL@end@
CONST	SEGMENT
??_C@_03JBJLGPFL@end@ DB 'end', 00H			; `string'
CONST	ENDS
;	COMDAT ??_C@_01KDCPPGHE@r@
CONST	SEGMENT
??_C@_01KDCPPGHE@r@ DB 'r', 00H				; `string'
CONST	ENDS
;	COMDAT ??_C@_0BA@IEPMMKOK@BackSpringCheck@
CONST	SEGMENT
??_C@_0BA@IEPMMKOK@BackSpringCheck@ DB 'BackSpringCheck', 00H ; `string'
CONST	ENDS
;	COMDAT ??_C@_0BF@ICGAAEKP@?4?4?2data?2GmSystem?4cfg@
CONST	SEGMENT
??_C@_0BF@ICGAAEKP@?4?4?2data?2GmSystem?4cfg@ DB '..\data\GmSystem.cfg', 00H ; `string'
CONST	ENDS
;	COMDAT ??_C@_0BA@CICCJPOD@DefenseAuraTime@
CONST	SEGMENT
??_C@_0BA@CICCJPOD@DefenseAuraTime@ DB 'DefenseAuraTime', 00H ; `string'
CONST	ENDS
;	COMDAT ??_C@_0P@ILEONJMP@DamageAuraTime@
CONST	SEGMENT
??_C@_0P@ILEONJMP@DamageAuraTime@ DB 'DamageAuraTime', 00H ; `string'
CONST	ENDS
;	COMDAT ??_C@_0N@GAKPJHLA@GuardMessage@
CONST	SEGMENT
??_C@_0N@GAKPJHLA@GuardMessage@ DB 'GuardMessage', 00H	; `string'
CONST	ENDS
;	COMDAT ??_C@_0P@CENDCLME@ConnectMessage@
CONST	SEGMENT
??_C@_0P@CENDCLME@ConnectMessage@ DB 'ConnectMessage', 00H ; `string'
CONST	ENDS
;	COMDAT ??_C@_0BB@EADNHIGG@Mirage?5Continent@
CONST	SEGMENT
??_C@_0BB@EADNHIGG@Mirage?5Continent@ DB 'Mirage Continent', 00H ; `string'
CONST	ENDS
;	COMDAT ??_C@_07HMKBKMPL@UDPPort@
CONST	SEGMENT
??_C@_07HMKBKMPL@UDPPort@ DB 'UDPPort', 00H		; `string'
CONST	ENDS
;	COMDAT ??_C@_0O@JDGFBMCH@GuildWarScore@
CONST	SEGMENT
??_C@_0O@JDGFBMCH@GuildWarScore@ DB 'GuildWarScore', 00H ; `string'
CONST	ENDS
;	COMDAT ??_C@_0M@GEFGLKKA@MaxMissRate@
CONST	SEGMENT
??_C@_0M@GEFGLKKA@MaxMissRate@ DB 'MaxMissRate', 00H	; `string'
CONST	ENDS
;	COMDAT ??_C@_08MNAHDEHL@BlessBug@
CONST	SEGMENT
??_C@_08MNAHDEHL@BlessBug@ DB 'BlessBug', 00H		; `string'
CONST	ENDS
;	COMDAT ??_C@_0BC@MDCNDIP@CheckClientSerial@
CONST	SEGMENT
??_C@_0BC@MDCNDIP@CheckClientSerial@ DB 'CheckClientSerial', 00H ; `string'
CONST	ENDS
;	COMDAT ??_C@_0O@LLGGEAHE@WCommandMoney@
CONST	SEGMENT
??_C@_0O@LLGGEAHE@WCommandMoney@ DB 'WCommandMoney', 00H ; `string'
CONST	ENDS
;	COMDAT ??_C@_0O@EDKEALMC@QCommandMoney@
CONST	SEGMENT
??_C@_0O@EDKEALMC@QCommandMoney@ DB 'QCommandMoney', 00H ; `string'
CONST	ENDS
;	COMDAT ??_C@_0BA@JJNINBFP@AncientDropRate@
CONST	SEGMENT
??_C@_0BA@JJNINBFP@AncientDropRate@ DB 'AncientDropRate', 00H ; `string'
CONST	ENDS
;	COMDAT ??_C@_0O@NHKKBHEE@ExcellentDrop@
CONST	SEGMENT
??_C@_0O@NHKKBHEE@ExcellentDrop@ DB 'ExcellentDrop', 00H ; `string'
CONST	ENDS
;	COMDAT ??_C@_0N@GPNBHNHO@MaxLifeLimit@
CONST	SEGMENT
??_C@_0N@GPNBHNHO@MaxLifeLimit@ DB 'MaxLifeLimit', 00H	; `string'
CONST	ENDS
;	COMDAT ??_C@_09CCLNJBGC@LimitLife@
CONST	SEGMENT
??_C@_09CCLNJBGC@LimitLife@ DB 'LimitLife', 00H		; `string'
CONST	ENDS
;	COMDAT ??_C@_0BH@JGOHGOG@DropHorsePotOnlyIcarus@
CONST	SEGMENT
??_C@_0BH@JGOHGOG@DropHorsePotOnlyIcarus@ DB 'DropHorsePotOnlyIcarus', 00H ; `string'
CONST	ENDS
;	COMDAT ??_C@_0BI@ENAHDDEP@DropSpiritPotOnlyIcarus@
CONST	SEGMENT
??_C@_0BI@ENAHDDEP@DropSpiritPotOnlyIcarus@ DB 'DropSpiritPotOnlyIcarus', 00H ; `string'
CONST	ENDS
;	COMDAT ??_C@_0BG@EBCNJLEI@DropMonarchOnlyIcarus@
CONST	SEGMENT
??_C@_0BG@EBCNJLEI@DropMonarchOnlyIcarus@ DB 'DropMonarchOnlyIcarus', 00H ; `string'
CONST	ENDS
;	COMDAT ??_C@_0BG@IFJGENDG@DropFeatherOnlyIcarus@
CONST	SEGMENT
??_C@_0BG@IFJGENDG@DropFeatherOnlyIcarus@ DB 'DropFeatherOnlyIcarus', 00H ; `string'
CONST	ENDS
;	COMDAT ??_C@_0M@DDKABONN@DisableMake@
CONST	SEGMENT
??_C@_0M@DDKABONN@DisableMake@ DB 'DisableMake', 00H	; `string'
CONST	ENDS
;	COMDAT ??_C@_0BA@HBCBNKFD@DefenseAuraRate@
CONST	SEGMENT
??_C@_0BA@HBCBNKFD@DefenseAuraRate@ DB 'DefenseAuraRate', 00H ; `string'
CONST	ENDS
;	COMDAT ??_C@_0P@NCENJMHP@DamageAuraRate@
CONST	SEGMENT
??_C@_0P@NCENJMHP@DamageAuraRate@ DB 'DamageAuraRate', 00H ; `string'
CONST	ENDS
;	COMDAT ??_C@_0N@OCEIILEL@HealAuraRate@
CONST	SEGMENT
??_C@_0N@OCEIILEL@HealAuraRate@ DB 'HealAuraRate', 00H	; `string'
CONST	ENDS
;	COMDAT ??_C@_0L@IOEGFOPG@GlobalNick@
CONST	SEGMENT
??_C@_0L@IOEGFOPG@GlobalNick@ DB 'GlobalNick', 00H	; `string'
CONST	ENDS
;	COMDAT ??_C@_0BE@JKPNMHGJ@MaxPotionDurability@
CONST	SEGMENT
??_C@_0BE@JKPNMHGJ@MaxPotionDurability@ DB 'MaxPotionDurability', 00H ; `string'
CONST	ENDS
;	COMDAT ??_C@_0O@PPFPCPH@MPLargePotion@
CONST	SEGMENT
??_C@_0O@PPFPCPH@MPLargePotion@ DB 'MPLargePotion', 00H	; `string'
CONST	ENDS
;	COMDAT ??_C@_0P@GHFJENED@MPMediumPotion@
CONST	SEGMENT
??_C@_0P@GHFJENED@MPMediumPotion@ DB 'MPMediumPotion', 00H ; `string'
CONST	ENDS
;	COMDAT ??_C@_0O@CKOAKNKA@MPSmallPotion@
CONST	SEGMENT
??_C@_0O@CKOAKNKA@MPSmallPotion@ DB 'MPSmallPotion', 00H ; `string'
CONST	ENDS
;	COMDAT ??_C@_0O@ILFGJMJK@HPLargePotion@
CONST	SEGMENT
??_C@_0O@ILFGJMJK@HPLargePotion@ DB 'HPLargePotion', 00H ; `string'
CONST	ENDS
;	COMDAT ??_C@_0P@FENOPDMI@HPMediumPotion@
CONST	SEGMENT
??_C@_0P@FENOPDMI@HPMediumPotion@ DB 'HPMediumPotion', 00H ; `string'
CONST	ENDS
;	COMDAT ??_C@_0O@KOEDMDMN@HPSmallPotion@
CONST	SEGMENT
??_C@_0O@KOEDMDMN@HPSmallPotion@ DB 'HPSmallPotion', 00H ; `string'
CONST	ENDS
;	COMDAT ??_C@_0M@CNCFKJIB@ApplePotion@
CONST	SEGMENT
??_C@_0M@CNCFKJIB@ApplePotion@ DB 'ApplePotion', 00H	; `string'
CONST	ENDS
;	COMDAT ??_C@_08BFKFNBGC@MaxLevel@
CONST	SEGMENT
??_C@_08BFKFNBGC@MaxLevel@ DB 'MaxLevel', 00H		; `string'
CONST	ENDS
;	COMDAT ??_C@_0O@OCFNDAJO@ExtraUpPoints@
CONST	SEGMENT
??_C@_0O@OCFNDAJO@ExtraUpPoints@ DB 'ExtraUpPoints', 00H ; `string'
CONST	ENDS
;	COMDAT ??_C@_0BA@PGGHAAPP@SpecialUpPoints@
CONST	SEGMENT
??_C@_0BA@PGGHAAPP@SpecialUpPoints@ DB 'SpecialUpPoints', 00H ; `string'
CONST	ENDS
;	COMDAT ??_C@_0P@LFOKBDME@NormalUpPoints@
CONST	SEGMENT
??_C@_0P@LFOKBDME@NormalUpPoints@ DB 'NormalUpPoints', 00H ; `string'
CONST	ENDS
;	COMDAT ??_C@_08KHNFHHOB@MaxStats@
CONST	SEGMENT
??_C@_08KHNFHHOB@MaxStats@ DB 'MaxStats', 00H		; `string'
CONST	ENDS
;	COMDAT ??_C@_0BE@OPEKICEG@MinThirdWingMixRate@
CONST	SEGMENT
??_C@_0BE@OPEKICEG@MinThirdWingMixRate@ DB 'MinThirdWingMixRate', 00H ; `string'
CONST	ENDS
;	COMDAT ??_C@_0P@JNONJCHL@MinWingMixRate@
CONST	SEGMENT
??_C@_0P@JNONJCHL@MinWingMixRate@ DB 'MinWingMixRate', 00H ; `string'
CONST	ENDS
;	COMDAT ??_C@_0BD@LPMNENOP@MaxCombinationRate@
CONST	SEGMENT
??_C@_0BD@LPMNENOP@MaxCombinationRate@ DB 'MaxCombinationRate', 00H ; `string'
CONST	ENDS
;	COMDAT ??_C@_0BC@OBCBDOFG@Combination13Rate@
CONST	SEGMENT
??_C@_0BC@OBCBDOFG@Combination13Rate@ DB 'Combination13Rate', 00H ; `string'
CONST	ENDS
;	COMDAT ??_C@_0BC@CKHNONPD@Combination12Rate@
CONST	SEGMENT
??_C@_0BC@CKHNONPD@Combination12Rate@ DB 'Combination12Rate', 00H ; `string'
CONST	ENDS
;	COMDAT ??_C@_0BC@KMOJJPFN@Combination11Rate@
CONST	SEGMENT
??_C@_0BC@KMOJJPFN@Combination11Rate@ DB 'Combination11Rate', 00H ; `string'
CONST	ENDS
;	COMDAT ??_C@_0BC@GHLFEMPI@Combination10Rate@
CONST	SEGMENT
??_C@_0BC@GHLFEMPI@Combination10Rate@ DB 'Combination10Rate', 00H ; `string'
CONST	ENDS
;	COMDAT ??_C@_0BF@IJFANKNG@ManaShieldMaxDefense@
CONST	SEGMENT
??_C@_0BF@IJFANKNG@ManaShieldMaxDefense@ DB 'ManaShieldMaxDefense', 00H ; `string'
CONST	ENDS
;	COMDAT ??_C@_0P@PAFHGPA@ManaShieldTime@
CONST	SEGMENT
??_C@_0P@PAFHGPA@ManaShieldTime@ DB 'ManaShieldTime', 00H ; `string'
CONST	ENDS
;	COMDAT ??_C@_0BB@DPKNKGIO@ManaShieldEnergy@
CONST	SEGMENT
??_C@_0BB@DPKNKGIO@ManaShieldEnergy@ DB 'ManaShieldEnergy', 00H ; `string'
CONST	ENDS
;	COMDAT ??_C@_0BE@IDFLDMAM@ManaShieldDexterity@
CONST	SEGMENT
??_C@_0BE@IDFLDMAM@ManaShieldDexterity@ DB 'ManaShieldDexterity', 00H ; `string'
CONST	ENDS
;	COMDAT ??_C@_0BG@IIOCMPMF@InnerStrengthMaxAddHP@
CONST	SEGMENT
??_C@_0BG@IIOCMPMF@InnerStrengthMaxAddHP@ DB 'InnerStrengthMaxAddHP', 00H ; `string'
CONST	ENDS
;	COMDAT ??_C@_0BE@HNBOACPN@InnerStrengthEnergy@
CONST	SEGMENT
??_C@_0BE@HNBOACPN@InnerStrengthEnergy@ DB 'InnerStrengthEnergy', 00H ; `string'
CONST	ENDS
;	COMDAT ??_C@_0BG@BOLDHHJN@InnerStrengthVitality@
CONST	SEGMENT
??_C@_0BG@BOLDHHJN@InnerStrengthVitality@ DB 'InnerStrengthVitality', 00H ; `string'
CONST	ENDS
;	COMDAT ??_C@_0BC@OIGLFJLB@InnerStrengthTime@
CONST	SEGMENT
??_C@_0BC@OIGLFJLB@InnerStrengthTime@ DB 'InnerStrengthTime', 00H ; `string'
CONST	ENDS
;	COMDAT ??_C@_0BB@IALMLJBK@SoulRateWithLuck@
CONST	SEGMENT
??_C@_0BB@IALMLJBK@SoulRateWithLuck@ DB 'SoulRateWithLuck', 00H ; `string'
CONST	ENDS
;	COMDAT ??_C@_0BE@GMNDPPEJ@SoulRateWithoutLuck@
CONST	SEGMENT
??_C@_0BE@GMNDPPEJ@SoulRateWithoutLuck@ DB 'SoulRateWithoutLuck', 00H ; `string'
CONST	ENDS
;	COMDAT ??_C@_0BE@MIMFCKPJ@LifeRateWithoutLuck@
CONST	SEGMENT
??_C@_0BE@MIMFCKPJ@LifeRateWithoutLuck@ DB 'LifeRateWithoutLuck', 00H ; `string'
CONST	ENDS
;	COMDAT ??_C@_0M@NGACIDEP@UseChecksum@
CONST	SEGMENT
??_C@_0M@NGACIDEP@UseChecksum@ DB 'UseChecksum', 00H	; `string'
CONST	ENDS
;	COMDAT ??_C@_0BA@HNPBGAPO@DuelMonsterKill@
CONST	SEGMENT
??_C@_0BA@HNPBGAPO@DuelMonsterKill@ DB 'DuelMonsterKill', 00H ; `string'
CONST	ENDS
;	COMDAT ??_C@_0P@MLNIDIEP@WarMonsterKill@
CONST	SEGMENT
??_C@_0P@MLNIDIEP@WarMonsterKill@ DB 'WarMonsterKill', 00H ; `string'
CONST	ENDS
;	COMDAT ??_C@_0BF@KAPHEHB@MinTradeItemExOption@
CONST	SEGMENT
??_C@_0BF@KAPHEHB@MinTradeItemExOption@ DB 'MinTradeItemExOption', 00H ; `string'
CONST	ENDS
;	COMDAT ??_C@_0BB@LKOCJCGC@DisableFullTrade@
CONST	SEGMENT
??_C@_0BB@LKOCJCGC@DisableFullTrade@ DB 'DisableFullTrade', 00H ; `string'
CONST	ENDS
;	COMDAT ??_C@_09OBNEBOHK@CheckItem@
CONST	SEGMENT
??_C@_09OBNEBOHK@CheckItem@ DB 'CheckItem', 00H		; `string'
CONST	ENDS
;	COMDAT ??_C@_0BB@OMEMPADG@ItemDurationTime@
CONST	SEGMENT
??_C@_0BB@OMEMPADG@ItemDurationTime@ DB 'ItemDurationTime', 00H ; `string'
CONST	ENDS
;	COMDAT ??_C@_0L@KPNHPMGP@CloseCount@
CONST	SEGMENT
??_C@_0L@KPNHPMGP@CloseCount@ DB 'CloseCount', 00H	; `string'
CONST	ENDS
;	COMDAT ??_C@_0BD@DLNCCKEC@FormulaComboDamage@
CONST	SEGMENT
??_C@_0BD@DLNCCKEC@FormulaComboDamage@ DB 'FormulaComboDamage', 00H ; `string'
CONST	ENDS
;	COMDAT ??_C@_0BA@HCCJBOIL@DisableComboPVP@
CONST	SEGMENT
??_C@_0BA@HCCJBOIL@DisableComboPVP@ DB 'DisableComboPVP', 00H ; `string'
CONST	ENDS
;	COMDAT ??_C@_0BA@LOIDAEFL@DisableDecayPVP@
CONST	SEGMENT
??_C@_0BA@LOIDAEFL@DisableDecayPVP@ DB 'DisableDecayPVP', 00H ; `string'
CONST	ENDS
;	COMDAT ??_C@_0P@KHAHMPAL@DisableBlowPVP@
CONST	SEGMENT
??_C@_0P@KHAHMPAL@DisableBlowPVP@ DB 'DisableBlowPVP', 00H ; `string'
CONST	ENDS
;	COMDAT ??_C@_0BD@FLPDKIEL@DisableTwistingPVP@
CONST	SEGMENT
??_C@_0BD@FLPDKIEL@DisableTwistingPVP@ DB 'DisableTwistingPVP', 00H ; `string'
CONST	ENDS
;	COMDAT ??_C@_0BA@GIEDOACG@CheckSkillLevel@
CONST	SEGMENT
??_C@_0BA@GIEDOACG@CheckSkillLevel@ DB 'CheckSkillLevel', 00H ; `string'
CONST	ENDS
;	COMDAT ??_C@_0P@EMJDPFDH@GameServerInfo@
CONST	SEGMENT
??_C@_0P@EMJDPFDH@GameServerInfo@ DB 'GameServerInfo', 00H ; `string'
CONST	ENDS
;	COMDAT ??_C@_0O@PICFDPIE@UsePersonalID@
CONST	SEGMENT
??_C@_0O@PICFDPIE@UsePersonalID@ DB 'UsePersonalID', 00H ; `string'
CONST	ENDS
;	COMDAT ??_R1A@?0A@EA@bad_array_new_length@std@@8
rdata$r	SEGMENT
??_R1A@?0A@EA@bad_array_new_length@std@@8 DD FLAT:??_R0?AVbad_array_new_length@std@@@8 ; std::bad_array_new_length::`RTTI Base Class Descriptor at (0,-1,0,64)'
	DD	02H
	DD	00H
	DD	0ffffffffH
	DD	00H
	DD	040H
	DD	FLAT:??_R3bad_array_new_length@std@@8
rdata$r	ENDS
;	COMDAT ??_R2bad_array_new_length@std@@8
rdata$r	SEGMENT
??_R2bad_array_new_length@std@@8 DD FLAT:??_R1A@?0A@EA@bad_array_new_length@std@@8 ; std::bad_array_new_length::`RTTI Base Class Array'
	DD	FLAT:??_R1A@?0A@EA@bad_alloc@std@@8
	DD	FLAT:??_R1A@?0A@EA@exception@std@@8
rdata$r	ENDS
;	COMDAT ??_R3bad_array_new_length@std@@8
rdata$r	SEGMENT
??_R3bad_array_new_length@std@@8 DD 00H			; std::bad_array_new_length::`RTTI Class Hierarchy Descriptor'
	DD	00H
	DD	03H
	DD	FLAT:??_R2bad_array_new_length@std@@8
rdata$r	ENDS
;	COMDAT ??_R4bad_array_new_length@std@@6B@
rdata$r	SEGMENT
??_R4bad_array_new_length@std@@6B@ DD 00H		; std::bad_array_new_length::`RTTI Complete Object Locator'
	DD	00H
	DD	00H
	DD	FLAT:??_R0?AVbad_array_new_length@std@@@8
	DD	FLAT:??_R3bad_array_new_length@std@@8
rdata$r	ENDS
;	COMDAT ??_R1A@?0A@EA@bad_alloc@std@@8
rdata$r	SEGMENT
??_R1A@?0A@EA@bad_alloc@std@@8 DD FLAT:??_R0?AVbad_alloc@std@@@8 ; std::bad_alloc::`RTTI Base Class Descriptor at (0,-1,0,64)'
	DD	01H
	DD	00H
	DD	0ffffffffH
	DD	00H
	DD	040H
	DD	FLAT:??_R3bad_alloc@std@@8
rdata$r	ENDS
;	COMDAT ??_R2bad_alloc@std@@8
rdata$r	SEGMENT
??_R2bad_alloc@std@@8 DD FLAT:??_R1A@?0A@EA@bad_alloc@std@@8 ; std::bad_alloc::`RTTI Base Class Array'
	DD	FLAT:??_R1A@?0A@EA@exception@std@@8
rdata$r	ENDS
;	COMDAT ??_R3bad_alloc@std@@8
rdata$r	SEGMENT
??_R3bad_alloc@std@@8 DD 00H				; std::bad_alloc::`RTTI Class Hierarchy Descriptor'
	DD	00H
	DD	02H
	DD	FLAT:??_R2bad_alloc@std@@8
rdata$r	ENDS
;	COMDAT ??_R4bad_alloc@std@@6B@
rdata$r	SEGMENT
??_R4bad_alloc@std@@6B@ DD 00H				; std::bad_alloc::`RTTI Complete Object Locator'
	DD	00H
	DD	00H
	DD	FLAT:??_R0?AVbad_alloc@std@@@8
	DD	FLAT:??_R3bad_alloc@std@@8
rdata$r	ENDS
;	COMDAT ??_R1A@?0A@EA@exception@std@@8
rdata$r	SEGMENT
??_R1A@?0A@EA@exception@std@@8 DD FLAT:??_R0?AVexception@std@@@8 ; std::exception::`RTTI Base Class Descriptor at (0,-1,0,64)'
	DD	00H
	DD	00H
	DD	0ffffffffH
	DD	00H
	DD	040H
	DD	FLAT:??_R3exception@std@@8
rdata$r	ENDS
;	COMDAT ??_R2exception@std@@8
rdata$r	SEGMENT
??_R2exception@std@@8 DD FLAT:??_R1A@?0A@EA@exception@std@@8 ; std::exception::`RTTI Base Class Array'
rdata$r	ENDS
;	COMDAT ??_R3exception@std@@8
rdata$r	SEGMENT
??_R3exception@std@@8 DD 00H				; std::exception::`RTTI Class Hierarchy Descriptor'
	DD	00H
	DD	01H
	DD	FLAT:??_R2exception@std@@8
rdata$r	ENDS
;	COMDAT ??_R4exception@std@@6B@
rdata$r	SEGMENT
??_R4exception@std@@6B@ DD 00H				; std::exception::`RTTI Complete Object Locator'
	DD	00H
	DD	00H
	DD	FLAT:??_R0?AVexception@std@@@8
	DD	FLAT:??_R3exception@std@@8
rdata$r	ENDS
;	COMDAT ??_C@_0BB@GCADKGJO@map?1set?5too?5long@
CONST	SEGMENT
??_C@_0BB@GCADKGJO@map?1set?5too?5long@ DB 'map/set too long', 00H ; `string'
CONST	ENDS
;	COMDAT __CT??_R0?AVexception@std@@@8??0exception@std@@QAE@ABV01@@Z12
xdata$x	SEGMENT
__CT??_R0?AVexception@std@@@8??0exception@std@@QAE@ABV01@@Z12 DD 00H
	DD	FLAT:??_R0?AVexception@std@@@8
	DD	00H
	DD	0ffffffffH
	ORG $+4
	DD	0cH
	DD	FLAT:??0exception@std@@QAE@ABV01@@Z
xdata$x	ENDS
;	COMDAT ??_R0?AVexception@std@@@8
data$r	SEGMENT
??_R0?AVexception@std@@@8 DD FLAT:??_7type_info@@6B@	; std::exception `RTTI Type Descriptor'
	DD	00H
	DB	'.?AVexception@std@@', 00H
data$r	ENDS
;	COMDAT __CT??_R0?AVbad_alloc@std@@@8??0bad_alloc@std@@QAE@ABV01@@Z12
xdata$x	SEGMENT
__CT??_R0?AVbad_alloc@std@@@8??0bad_alloc@std@@QAE@ABV01@@Z12 DD 010H
	DD	FLAT:??_R0?AVbad_alloc@std@@@8
	DD	00H
	DD	0ffffffffH
	ORG $+4
	DD	0cH
	DD	FLAT:??0bad_alloc@std@@QAE@ABV01@@Z
xdata$x	ENDS
;	COMDAT ??_R0?AVbad_alloc@std@@@8
data$r	SEGMENT
??_R0?AVbad_alloc@std@@@8 DD FLAT:??_7type_info@@6B@	; std::bad_alloc `RTTI Type Descriptor'
	DD	00H
	DB	'.?AVbad_alloc@std@@', 00H
data$r	ENDS
;	COMDAT __CT??_R0?AVbad_array_new_length@std@@@8??0bad_array_new_length@std@@QAE@ABV01@@Z12
xdata$x	SEGMENT
__CT??_R0?AVbad_array_new_length@std@@@8??0bad_array_new_length@std@@QAE@ABV01@@Z12 DD 00H
	DD	FLAT:??_R0?AVbad_array_new_length@std@@@8
	DD	00H
	DD	0ffffffffH
	ORG $+4
	DD	0cH
	DD	FLAT:??0bad_array_new_length@std@@QAE@ABV01@@Z
xdata$x	ENDS
;	COMDAT ??_R0?AVbad_array_new_length@std@@@8
data$r	SEGMENT
??_R0?AVbad_array_new_length@std@@@8 DD FLAT:??_7type_info@@6B@ ; std::bad_array_new_length `RTTI Type Descriptor'
	DD	00H
	DB	'.?AVbad_array_new_length@std@@', 00H
data$r	ENDS
;	COMDAT __CTA3?AVbad_array_new_length@std@@
xdata$x	SEGMENT
__CTA3?AVbad_array_new_length@std@@ DD 03H
	DD	FLAT:__CT??_R0?AVbad_array_new_length@std@@@8??0bad_array_new_length@std@@QAE@ABV01@@Z12
	DD	FLAT:__CT??_R0?AVbad_alloc@std@@@8??0bad_alloc@std@@QAE@ABV01@@Z12
	DD	FLAT:__CT??_R0?AVexception@std@@@8??0exception@std@@QAE@ABV01@@Z12
xdata$x	ENDS
;	COMDAT __TI3?AVbad_array_new_length@std@@
xdata$x	SEGMENT
__TI3?AVbad_array_new_length@std@@ DD 00H
	DD	FLAT:??1bad_array_new_length@std@@UAE@XZ
	DD	00H
	DD	FLAT:__CTA3?AVbad_array_new_length@std@@
xdata$x	ENDS
;	COMDAT ??_C@_0BF@KINCDENJ@bad?5array?5new?5length@
CONST	SEGMENT
??_C@_0BF@KINCDENJ@bad?5array?5new?5length@ DB 'bad array new length', 00H ; `string'
CONST	ENDS
;	COMDAT ??_7bad_array_new_length@std@@6B@
CONST	SEGMENT
??_7bad_array_new_length@std@@6B@ DD FLAT:??_R4bad_array_new_length@std@@6B@ ; std::bad_array_new_length::`vftable'
	DD	FLAT:??_Ebad_array_new_length@std@@UAEPAXI@Z
	DD	FLAT:?what@exception@std@@UBEPBDXZ
CONST	ENDS
;	COMDAT ??_7bad_alloc@std@@6B@
CONST	SEGMENT
??_7bad_alloc@std@@6B@ DD FLAT:??_R4bad_alloc@std@@6B@	; std::bad_alloc::`vftable'
	DD	FLAT:??_Ebad_alloc@std@@UAEPAXI@Z
	DD	FLAT:?what@exception@std@@UBEPBDXZ
CONST	ENDS
;	COMDAT ??_C@_0BC@EOODALEL@Unknown?5exception@
CONST	SEGMENT
??_C@_0BC@EOODALEL@Unknown?5exception@ DB 'Unknown exception', 00H ; `string'
CONST	ENDS
;	COMDAT ??_7exception@std@@6B@
CONST	SEGMENT
??_7exception@std@@6B@ DD FLAT:??_R4exception@std@@6B@	; std::exception::`vftable'
	DD	FLAT:??_Eexception@std@@UAEPAXI@Z
	DD	FLAT:?what@exception@std@@UBEPBDXZ
CONST	ENDS
;	COMDAT xdata$x
xdata$x	SEGMENT
__unwindtable$??$?0U?$pair@KK@std@@@?$_Tree_temp_node@V?$allocator@U?$_Tree_node@U?$pair@$$CBKK@std@@PAX@std@@@std@@@std@@QAE@AAV?$allocator@U?$_Tree_node@U?$pair@$$CBKK@std@@PAX@std@@@1@PAU?$_Tree_node@U?$pair@$$CBKK@std@@PAX@1@$$QAU?$pair@KK@1@@Z DD 0ffffffffH
	DD	FLAT:__unwindfunclet$??$?0U?$pair@KK@std@@@?$_Tree_temp_node@V?$allocator@U?$_Tree_node@U?$pair@$$CBKK@std@@PAX@std@@@std@@@std@@QAE@AAV?$allocator@U?$_Tree_node@U?$pair@$$CBKK@std@@PAX@std@@@1@PAU?$_Tree_node@U?$pair@$$CBKK@std@@PAX@1@$$QAU?$pair@KK@1@@Z$0
__ehfuncinfo$??$?0U?$pair@KK@std@@@?$_Tree_temp_node@V?$allocator@U?$_Tree_node@U?$pair@$$CBKK@std@@PAX@std@@@std@@@std@@QAE@AAV?$allocator@U?$_Tree_node@U?$pair@$$CBKK@std@@PAX@std@@@1@PAU?$_Tree_node@U?$pair@$$CBKK@std@@PAX@1@$$QAU?$pair@KK@1@@Z DD 019930522H
	DD	01H
	DD	FLAT:__unwindtable$??$?0U?$pair@KK@std@@@?$_Tree_temp_node@V?$allocator@U?$_Tree_node@U?$pair@$$CBKK@std@@PAX@std@@@std@@@std@@QAE@AAV?$allocator@U?$_Tree_node@U?$pair@$$CBKK@std@@PAX@std@@@1@PAU?$_Tree_node@U?$pair@$$CBKK@std@@PAX@1@$$QAU?$pair@KK@1@@Z
	DD	2 DUP(00H)
	DD	2 DUP(00H)
	DD	00H
	DD	01H
xdata$x	ENDS
;	COMDAT xdata$x
xdata$x	SEGMENT
__ehfuncinfo$??1?$_Tree_temp_node@V?$allocator@U?$_Tree_node@U?$pair@$$CBKK@std@@PAX@std@@@std@@@std@@QAE@XZ DD 019930522H
	DD	00H
	DD	00H
	DD	2 DUP(00H)
	DD	2 DUP(00H)
	DD	00H
	DD	05H
xdata$x	ENDS
;	COMDAT xdata$x
xdata$x	SEGMENT
__unwindtable$??0?$_Tree_temp_node_alloc@V?$allocator@U?$_Tree_node@U?$pair@$$CBKK@std@@PAX@std@@@std@@@std@@QAE@AAV?$allocator@U?$_Tree_node@U?$pair@$$CBKK@std@@PAX@std@@@1@@Z DD 0ffffffffH
	DD	FLAT:__unwindfunclet$??0?$_Tree_temp_node_alloc@V?$allocator@U?$_Tree_node@U?$pair@$$CBKK@std@@PAX@std@@@std@@@std@@QAE@AAV?$allocator@U?$_Tree_node@U?$pair@$$CBKK@std@@PAX@std@@@1@@Z$0
__ehfuncinfo$??0?$_Tree_temp_node_alloc@V?$allocator@U?$_Tree_node@U?$pair@$$CBKK@std@@PAX@std@@@std@@@std@@QAE@AAV?$allocator@U?$_Tree_node@U?$pair@$$CBKK@std@@PAX@std@@@1@@Z DD 019930522H
	DD	01H
	DD	FLAT:__unwindtable$??0?$_Tree_temp_node_alloc@V?$allocator@U?$_Tree_node@U?$pair@$$CBKK@std@@PAX@std@@@std@@@std@@QAE@AAV?$allocator@U?$_Tree_node@U?$pair@$$CBKK@std@@PAX@std@@@1@@Z
	DD	2 DUP(00H)
	DD	2 DUP(00H)
	DD	00H
	DD	01H
xdata$x	ENDS
;	COMDAT xdata$x
xdata$x	SEGMENT
__ehfuncinfo$??1?$_Alloc_construct_ptr@V?$allocator@U?$_Tree_node@U?$pair@$$CBKK@std@@PAX@std@@@std@@@std@@QAE@XZ DD 019930522H
	DD	00H
	DD	00H
	DD	2 DUP(00H)
	DD	2 DUP(00H)
	DD	00H
	DD	05H
xdata$x	ENDS
;	COMDAT xdata$x
xdata$x	SEGMENT
__ehfuncinfo$??$_Freenode0@V?$allocator@U?$_Tree_node@U?$pair@$$CBKK@std@@PAX@std@@@std@@@?$_Tree_node@U?$pair@$$CBKK@std@@PAX@std@@SAXAAV?$allocator@U?$_Tree_node@U?$pair@$$CBKK@std@@PAX@std@@@1@PAU01@@Z DD 019930522H
	DD	00H
	DD	00H
	DD	2 DUP(00H)
	DD	2 DUP(00H)
	DD	00H
	DD	05H
xdata$x	ENDS
;	COMDAT xdata$x
xdata$x	SEGMENT
__ehfuncinfo$??$_Freenode@V?$allocator@U?$_Tree_node@U?$pair@$$CBKK@std@@PAX@std@@@std@@@?$_Tree_node@U?$pair@$$CBKK@std@@PAX@std@@SAXAAV?$allocator@U?$_Tree_node@U?$pair@$$CBKK@std@@PAX@std@@@1@PAU01@@Z DD 019930522H
	DD	00H
	DD	00H
	DD	2 DUP(00H)
	DD	2 DUP(00H)
	DD	00H
	DD	05H
xdata$x	ENDS
;	COMDAT xdata$x
xdata$x	SEGMENT
__ehfuncinfo$??$_Deallocate@$07$0A@@std@@YAXPAXI@Z DD 019930522H
	DD	00H
	DD	00H
	DD	2 DUP(00H)
	DD	2 DUP(00H)
	DD	00H
	DD	05H
xdata$x	ENDS
; Function compile flags: /Odtp /ZI
; File C:\Program Files (x86)\Microsoft Visual Studio\2019\Community\VC\Tools\MSVC\14.27.29110\include\type_traits
;	COMDAT ??$forward@K@std@@YA$$QAKAAK@Z
_TEXT	SEGMENT
__Arg$ = 8						; size = 4
??$forward@K@std@@YA$$QAKAAK@Z PROC			; std::forward<unsigned long>, COMDAT

; 1454 :     remove_reference_t<_Ty>& _Arg) noexcept { // forward an lvalue as either an lvalue or an rvalue

  00000	55		 push	 ebp
  00001	8b ec		 mov	 ebp, esp
  00003	83 ec 40	 sub	 esp, 64			; 00000040H
  00006	53		 push	 ebx
  00007	56		 push	 esi
  00008	57		 push	 edi

; 1455 :     return static_cast<_Ty&&>(_Arg);

  00009	8b 45 08	 mov	 eax, DWORD PTR __Arg$[ebp]

; 1456 : }

  0000c	5f		 pop	 edi
  0000d	5e		 pop	 esi
  0000e	5b		 pop	 ebx
  0000f	8b e5		 mov	 esp, ebp
  00011	5d		 pop	 ebp
  00012	c3		 ret	 0
??$forward@K@std@@YA$$QAKAAK@Z ENDP			; std::forward<unsigned long>
_TEXT	ENDS
; Function compile flags: /Odtp /ZI
; File C:\Program Files (x86)\Microsoft Visual Studio\2019\Community\VC\Tools\MSVC\14.27.29110\include\type_traits
;	COMDAT ??$forward@PAU?$_Tree_node@U?$pair@$$CBKK@std@@PAX@std@@@std@@YA$$QAPAU?$_Tree_node@U?$pair@$$CBKK@std@@PAX@0@AAPAU10@@Z
_TEXT	SEGMENT
__Arg$ = 8						; size = 4
??$forward@PAU?$_Tree_node@U?$pair@$$CBKK@std@@PAX@std@@@std@@YA$$QAPAU?$_Tree_node@U?$pair@$$CBKK@std@@PAX@0@AAPAU10@@Z PROC ; std::forward<std::_Tree_node<std::pair<unsigned long const ,unsigned long>,void *> *>, COMDAT

; 1454 :     remove_reference_t<_Ty>& _Arg) noexcept { // forward an lvalue as either an lvalue or an rvalue

  00000	55		 push	 ebp
  00001	8b ec		 mov	 ebp, esp
  00003	83 ec 40	 sub	 esp, 64			; 00000040H
  00006	53		 push	 ebx
  00007	56		 push	 esi
  00008	57		 push	 edi

; 1455 :     return static_cast<_Ty&&>(_Arg);

  00009	8b 45 08	 mov	 eax, DWORD PTR __Arg$[ebp]

; 1456 : }

  0000c	5f		 pop	 edi
  0000d	5e		 pop	 esi
  0000e	5b		 pop	 ebx
  0000f	8b e5		 mov	 esp, ebp
  00011	5d		 pop	 ebp
  00012	c3		 ret	 0
??$forward@PAU?$_Tree_node@U?$pair@$$CBKK@std@@PAX@std@@@std@@YA$$QAPAU?$_Tree_node@U?$pair@$$CBKK@std@@PAX@0@AAPAU10@@Z ENDP ; std::forward<std::_Tree_node<std::pair<unsigned long const ,unsigned long>,void *> *>
_TEXT	ENDS
; Function compile flags: /Odtp /ZI
; File C:\Program Files (x86)\Microsoft Visual Studio\2019\Community\VC\Tools\MSVC\14.27.29110\include\xmemory
;	COMDAT ??$_Construct_in_place@PAU?$_Tree_node@U?$pair@$$CBKK@std@@PAX@std@@AAPAU12@@std@@YAXAAPAU?$_Tree_node@U?$pair@$$CBKK@std@@PAX@0@0@Z
_TEXT	SEGMENT
$T1 = -68						; size = 4
__Obj$ = 8						; size = 4
_<_Args_0>$ = 12					; size = 4
??$_Construct_in_place@PAU?$_Tree_node@U?$pair@$$CBKK@std@@PAX@std@@AAPAU12@@std@@YAXAAPAU?$_Tree_node@U?$pair@$$CBKK@std@@PAX@0@0@Z PROC ; std::_Construct_in_place<std::_Tree_node<std::pair<unsigned long const ,unsigned long>,void *> *,std::_Tree_node<std::pair<unsigned long const ,unsigned long>,void *> * &>, COMDAT

; 228  : void _Construct_in_place(_Ty& _Obj, _Types&&... _Args) noexcept(is_nothrow_constructible_v<_Ty, _Types...>) {

  00000	55		 push	 ebp
  00001	8b ec		 mov	 ebp, esp
  00003	83 ec 44	 sub	 esp, 68			; 00000044H
  00006	53		 push	 ebx
  00007	56		 push	 esi
  00008	57		 push	 edi

; 229  :     ::new (const_cast<void*>(static_cast<const volatile void*>(_STD addressof(_Obj))))

  00009	8b 45 08	 mov	 eax, DWORD PTR __Obj$[ebp]
  0000c	50		 push	 eax
  0000d	e8 00 00 00 00	 call	 ??$addressof@PAU?$_Tree_node@U?$pair@$$CBKK@std@@PAX@std@@@std@@YAPAPAU?$_Tree_node@U?$pair@$$CBKK@std@@PAX@0@AAPAU10@@Z ; std::addressof<std::_Tree_node<std::pair<unsigned long const ,unsigned long>,void *> *>
  00012	83 c4 04	 add	 esp, 4
  00015	50		 push	 eax
  00016	6a 04		 push	 4
  00018	e8 00 00 00 00	 call	 ??2@YAPAXIPAX@Z		; operator new
  0001d	83 c4 08	 add	 esp, 8
  00020	89 45 bc	 mov	 DWORD PTR $T1[ebp], eax
  00023	8b 4d 0c	 mov	 ecx, DWORD PTR _<_Args_0>$[ebp]
  00026	51		 push	 ecx
  00027	e8 00 00 00 00	 call	 ??$forward@AAPAU?$_Tree_node@U?$pair@$$CBKK@std@@PAX@std@@@std@@YAAAPAU?$_Tree_node@U?$pair@$$CBKK@std@@PAX@0@AAPAU10@@Z ; std::forward<std::_Tree_node<std::pair<unsigned long const ,unsigned long>,void *> * &>
  0002c	83 c4 04	 add	 esp, 4
  0002f	8b 55 bc	 mov	 edx, DWORD PTR $T1[ebp]
  00032	8b 00		 mov	 eax, DWORD PTR [eax]
  00034	89 02		 mov	 DWORD PTR [edx], eax

; 230  :         _Ty(_STD forward<_Types>(_Args)...);
; 231  : }

  00036	5f		 pop	 edi
  00037	5e		 pop	 esi
  00038	5b		 pop	 ebx
  00039	8b e5		 mov	 esp, ebp
  0003b	5d		 pop	 ebp
  0003c	c3		 ret	 0
??$_Construct_in_place@PAU?$_Tree_node@U?$pair@$$CBKK@std@@PAX@std@@AAPAU12@@std@@YAXAAPAU?$_Tree_node@U?$pair@$$CBKK@std@@PAX@0@0@Z ENDP ; std::_Construct_in_place<std::_Tree_node<std::pair<unsigned long const ,unsigned long>,void *> *,std::_Tree_node<std::pair<unsigned long const ,unsigned long>,void *> * &>
_TEXT	ENDS
; Function compile flags: /Odtp /ZI
; File C:\Program Files (x86)\Microsoft Visual Studio\2019\Community\VC\Tools\MSVC\14.27.29110\include\xmemory
;	COMDAT ??$construct@U?$pair@$$CBKK@std@@U?$pair@KK@2@@?$_Default_allocator_traits@V?$allocator@U?$_Tree_node@U?$pair@$$CBKK@std@@PAX@std@@@std@@@std@@SAXAAV?$allocator@U?$_Tree_node@U?$pair@$$CBKK@std@@PAX@std@@@1@QAU?$pair@$$CBKK@1@$$QAU?$pair@KK@1@@Z
_TEXT	SEGMENT
$T1 = -68						; size = 4
___formal$ = 8						; size = 4
__Ptr$ = 12						; size = 4
_<_Args_0>$ = 16					; size = 4
??$construct@U?$pair@$$CBKK@std@@U?$pair@KK@2@@?$_Default_allocator_traits@V?$allocator@U?$_Tree_node@U?$pair@$$CBKK@std@@PAX@std@@@std@@@std@@SAXAAV?$allocator@U?$_Tree_node@U?$pair@$$CBKK@std@@PAX@std@@@1@QAU?$pair@$$CBKK@1@$$QAU?$pair@KK@1@@Z PROC ; std::_Default_allocator_traits<std::allocator<std::_Tree_node<std::pair<unsigned long const ,unsigned long>,void *> > >::construct<std::pair<unsigned long const ,unsigned long>,std::pair<unsigned long,unsigned long> >, COMDAT

; 693  :     static void construct(_Alloc&, _Objty* const _Ptr, _Types&&... _Args) {

  00000	55		 push	 ebp
  00001	8b ec		 mov	 ebp, esp
  00003	83 ec 44	 sub	 esp, 68			; 00000044H
  00006	53		 push	 ebx
  00007	56		 push	 esi
  00008	57		 push	 edi

; 694  :         ::new (const_cast<void*>(static_cast<const volatile void*>(_Ptr))) _Objty(_STD forward<_Types>(_Args)...);

  00009	8b 45 0c	 mov	 eax, DWORD PTR __Ptr$[ebp]
  0000c	50		 push	 eax
  0000d	6a 08		 push	 8
  0000f	e8 00 00 00 00	 call	 ??2@YAPAXIPAX@Z		; operator new
  00014	83 c4 08	 add	 esp, 8
  00017	89 45 bc	 mov	 DWORD PTR $T1[ebp], eax
  0001a	8b 4d 10	 mov	 ecx, DWORD PTR _<_Args_0>$[ebp]
  0001d	51		 push	 ecx
  0001e	e8 00 00 00 00	 call	 ??$forward@U?$pair@KK@std@@@std@@YA$$QAU?$pair@KK@0@AAU10@@Z ; std::forward<std::pair<unsigned long,unsigned long> >
  00023	83 c4 04	 add	 esp, 4
  00026	50		 push	 eax
  00027	8b 4d bc	 mov	 ecx, DWORD PTR $T1[ebp]
  0002a	e8 00 00 00 00	 call	 ??$?0KK$0A@@?$pair@$$CBKK@std@@QAE@$$QAU?$pair@KK@1@@Z ; std::pair<unsigned long const ,unsigned long>::pair<unsigned long const ,unsigned long><unsigned long,unsigned long,0>

; 695  :     }

  0002f	5f		 pop	 edi
  00030	5e		 pop	 esi
  00031	5b		 pop	 ebx
  00032	8b e5		 mov	 esp, ebp
  00034	5d		 pop	 ebp
  00035	c3		 ret	 0
??$construct@U?$pair@$$CBKK@std@@U?$pair@KK@2@@?$_Default_allocator_traits@V?$allocator@U?$_Tree_node@U?$pair@$$CBKK@std@@PAX@std@@@std@@@std@@SAXAAV?$allocator@U?$_Tree_node@U?$pair@$$CBKK@std@@PAX@std@@@1@QAU?$pair@$$CBKK@1@$$QAU?$pair@KK@1@@Z ENDP ; std::_Default_allocator_traits<std::allocator<std::_Tree_node<std::pair<unsigned long const ,unsigned long>,void *> > >::construct<std::pair<unsigned long const ,unsigned long>,std::pair<unsigned long,unsigned long> >
_TEXT	ENDS
; Function compile flags: /Odtp /ZI
; File C:\Program Files (x86)\Microsoft Visual Studio\2019\Community\VC\Tools\MSVC\14.27.29110\include\type_traits
;	COMDAT ??$forward@_N@std@@YA$$QA_NAA_N@Z
_TEXT	SEGMENT
__Arg$ = 8						; size = 4
??$forward@_N@std@@YA$$QA_NAA_N@Z PROC			; std::forward<bool>, COMDAT

; 1454 :     remove_reference_t<_Ty>& _Arg) noexcept { // forward an lvalue as either an lvalue or an rvalue

  00000	55		 push	 ebp
  00001	8b ec		 mov	 ebp, esp
  00003	83 ec 40	 sub	 esp, 64			; 00000040H
  00006	53		 push	 ebx
  00007	56		 push	 esi
  00008	57		 push	 edi

; 1455 :     return static_cast<_Ty&&>(_Arg);

  00009	8b 45 08	 mov	 eax, DWORD PTR __Arg$[ebp]

; 1456 : }

  0000c	5f		 pop	 edi
  0000d	5e		 pop	 esi
  0000e	5b		 pop	 ebx
  0000f	8b e5		 mov	 esp, ebp
  00011	5d		 pop	 ebp
  00012	c3		 ret	 0
??$forward@_N@std@@YA$$QA_NAA_N@Z ENDP			; std::forward<bool>
_TEXT	ENDS
; Function compile flags: /Odtp /ZI
; File C:\Program Files (x86)\Microsoft Visual Studio\2019\Community\VC\Tools\MSVC\14.27.29110\include\type_traits
;	COMDAT ??$forward@AAPAU?$_Tree_node@U?$pair@$$CBKK@std@@PAX@std@@@std@@YAAAPAU?$_Tree_node@U?$pair@$$CBKK@std@@PAX@0@AAPAU10@@Z
_TEXT	SEGMENT
__Arg$ = 8						; size = 4
??$forward@AAPAU?$_Tree_node@U?$pair@$$CBKK@std@@PAX@std@@@std@@YAAAPAU?$_Tree_node@U?$pair@$$CBKK@std@@PAX@0@AAPAU10@@Z PROC ; std::forward<std::_Tree_node<std::pair<unsigned long const ,unsigned long>,void *> * &>, COMDAT

; 1454 :     remove_reference_t<_Ty>& _Arg) noexcept { // forward an lvalue as either an lvalue or an rvalue

  00000	55		 push	 ebp
  00001	8b ec		 mov	 ebp, esp
  00003	83 ec 40	 sub	 esp, 64			; 00000040H
  00006	53		 push	 ebx
  00007	56		 push	 esi
  00008	57		 push	 edi

; 1455 :     return static_cast<_Ty&&>(_Arg);

  00009	8b 45 08	 mov	 eax, DWORD PTR __Arg$[ebp]

; 1456 : }

  0000c	5f		 pop	 edi
  0000d	5e		 pop	 esi
  0000e	5b		 pop	 ebx
  0000f	8b e5		 mov	 esp, ebp
  00011	5d		 pop	 ebp
  00012	c3		 ret	 0
??$forward@AAPAU?$_Tree_node@U?$pair@$$CBKK@std@@PAX@std@@@std@@YAAAPAU?$_Tree_node@U?$pair@$$CBKK@std@@PAX@0@AAPAU10@@Z ENDP ; std::forward<std::_Tree_node<std::pair<unsigned long const ,unsigned long>,void *> * &>
_TEXT	ENDS
; Function compile flags: /Odtp /ZI
; File C:\Program Files (x86)\Microsoft Visual Studio\2019\Community\VC\Tools\MSVC\14.27.29110\include\utility
;	COMDAT ??$exchange@PAU?$_Tree_node@U?$pair@$$CBKK@std@@PAX@std@@$$T@std@@YAPAU?$_Tree_node@U?$pair@$$CBKK@std@@PAX@0@AAPAU10@$$QA$$T@Z
_TEXT	SEGMENT
__Old_val$ = -4						; size = 4
__Val$ = 8						; size = 4
__New_val$ = 12						; size = 4
??$exchange@PAU?$_Tree_node@U?$pair@$$CBKK@std@@PAX@std@@$$T@std@@YAPAU?$_Tree_node@U?$pair@$$CBKK@std@@PAX@0@AAPAU10@$$QA$$T@Z PROC ; std::exchange<std::_Tree_node<std::pair<unsigned long const ,unsigned long>,void *> *,std::nullptr_t>, COMDAT

; 597  :     conjunction_v<is_nothrow_move_constructible<_Ty>, is_nothrow_assignable<_Ty&, _Other>>) /* strengthened */ {

  00000	55		 push	 ebp
  00001	8b ec		 mov	 ebp, esp
  00003	83 ec 44	 sub	 esp, 68			; 00000044H
  00006	53		 push	 ebx
  00007	56		 push	 esi
  00008	57		 push	 edi

; 598  :     // assign _New_val to _Val, return previous _Val
; 599  :     _Ty _Old_val = static_cast<_Ty&&>(_Val);

  00009	8b 45 08	 mov	 eax, DWORD PTR __Val$[ebp]
  0000c	8b 08		 mov	 ecx, DWORD PTR [eax]
  0000e	89 4d fc	 mov	 DWORD PTR __Old_val$[ebp], ecx

; 600  :     _Val         = static_cast<_Other&&>(_New_val);

  00011	8b 45 08	 mov	 eax, DWORD PTR __Val$[ebp]
  00014	8b 4d 0c	 mov	 ecx, DWORD PTR __New_val$[ebp]
  00017	8b 11		 mov	 edx, DWORD PTR [ecx]
  00019	89 10		 mov	 DWORD PTR [eax], edx

; 601  :     return _Old_val;

  0001b	8b 45 fc	 mov	 eax, DWORD PTR __Old_val$[ebp]

; 602  : }

  0001e	5f		 pop	 edi
  0001f	5e		 pop	 esi
  00020	5b		 pop	 ebx
  00021	8b e5		 mov	 esp, ebp
  00023	5d		 pop	 ebp
  00024	c3		 ret	 0
??$exchange@PAU?$_Tree_node@U?$pair@$$CBKK@std@@PAX@std@@$$T@std@@YAPAU?$_Tree_node@U?$pair@$$CBKK@std@@PAX@0@AAPAU10@$$QA$$T@Z ENDP ; std::exchange<std::_Tree_node<std::pair<unsigned long const ,unsigned long>,void *> *,std::nullptr_t>
_TEXT	ENDS
; Function compile flags: /Odtp /ZI
; File C:\Program Files (x86)\Microsoft Visual Studio\2019\Community\VC\Tools\MSVC\14.27.29110\include\type_traits
;	COMDAT ??$forward@AB_N@std@@YAAB_NAB_N@Z
_TEXT	SEGMENT
__Arg$ = 8						; size = 4
??$forward@AB_N@std@@YAAB_NAB_N@Z PROC			; std::forward<bool const &>, COMDAT

; 1454 :     remove_reference_t<_Ty>& _Arg) noexcept { // forward an lvalue as either an lvalue or an rvalue

  00000	55		 push	 ebp
  00001	8b ec		 mov	 ebp, esp
  00003	83 ec 40	 sub	 esp, 64			; 00000040H
  00006	53		 push	 ebx
  00007	56		 push	 esi
  00008	57		 push	 edi

; 1455 :     return static_cast<_Ty&&>(_Arg);

  00009	8b 45 08	 mov	 eax, DWORD PTR __Arg$[ebp]

; 1456 : }

  0000c	5f		 pop	 edi
  0000d	5e		 pop	 esi
  0000e	5b		 pop	 ebx
  0000f	8b e5		 mov	 esp, ebp
  00011	5d		 pop	 ebp
  00012	c3		 ret	 0
??$forward@AB_N@std@@YAAB_NAB_N@Z ENDP			; std::forward<bool const &>
_TEXT	ENDS
; Function compile flags: /Odtp /ZI
; File C:\Program Files (x86)\Microsoft Visual Studio\2019\Community\VC\Tools\MSVC\14.27.29110\include\type_traits
;	COMDAT ??$forward@V?$_Tree_iterator@V?$_Tree_val@U?$_Tree_simple_types@U?$pair@$$CBKK@std@@@std@@@std@@@std@@@std@@YA$$QAV?$_Tree_iterator@V?$_Tree_val@U?$_Tree_simple_types@U?$pair@$$CBKK@std@@@std@@@std@@@0@AAV10@@Z
_TEXT	SEGMENT
__Arg$ = 8						; size = 4
??$forward@V?$_Tree_iterator@V?$_Tree_val@U?$_Tree_simple_types@U?$pair@$$CBKK@std@@@std@@@std@@@std@@@std@@YA$$QAV?$_Tree_iterator@V?$_Tree_val@U?$_Tree_simple_types@U?$pair@$$CBKK@std@@@std@@@std@@@0@AAV10@@Z PROC ; std::forward<std::_Tree_iterator<std::_Tree_val<std::_Tree_simple_types<std::pair<unsigned long const ,unsigned long> > > > >, COMDAT

; 1454 :     remove_reference_t<_Ty>& _Arg) noexcept { // forward an lvalue as either an lvalue or an rvalue

  00000	55		 push	 ebp
  00001	8b ec		 mov	 ebp, esp
  00003	83 ec 40	 sub	 esp, 64			; 00000040H
  00006	53		 push	 ebx
  00007	56		 push	 esi
  00008	57		 push	 edi

; 1455 :     return static_cast<_Ty&&>(_Arg);

  00009	8b 45 08	 mov	 eax, DWORD PTR __Arg$[ebp]

; 1456 : }

  0000c	5f		 pop	 edi
  0000d	5e		 pop	 esi
  0000e	5b		 pop	 ebx
  0000f	8b e5		 mov	 esp, ebp
  00011	5d		 pop	 ebp
  00012	c3		 ret	 0
??$forward@V?$_Tree_iterator@V?$_Tree_val@U?$_Tree_simple_types@U?$pair@$$CBKK@std@@@std@@@std@@@std@@@std@@YA$$QAV?$_Tree_iterator@V?$_Tree_val@U?$_Tree_simple_types@U?$pair@$$CBKK@std@@@std@@@std@@@0@AAV10@@Z ENDP ; std::forward<std::_Tree_iterator<std::_Tree_val<std::_Tree_simple_types<std::pair<unsigned long const ,unsigned long> > > > >
_TEXT	ENDS
; Function compile flags: /Odtp /ZI
; File C:\Program Files (x86)\Microsoft Visual Studio\2019\Community\VC\Tools\MSVC\14.27.29110\include\utility
;	COMDAT ??$?0PAU?$_Tree_node@U?$pair@$$CBKK@std@@PAX@std@@_N$0A@@?$pair@PAU?$_Tree_node@U?$pair@$$CBKK@std@@PAX@std@@_N@std@@QAE@$$QAPAU?$_Tree_node@U?$pair@$$CBKK@std@@PAX@1@$$QA_N@Z
_TEXT	SEGMENT
_this$ = -4						; size = 4
__Val1$ = 8						; size = 4
__Val2$ = 12						; size = 4
??$?0PAU?$_Tree_node@U?$pair@$$CBKK@std@@PAX@std@@_N$0A@@?$pair@PAU?$_Tree_node@U?$pair@$$CBKK@std@@PAX@std@@_N@std@@QAE@$$QAPAU?$_Tree_node@U?$pair@$$CBKK@std@@PAX@1@$$QA_N@Z PROC ; std::pair<std::_Tree_node<std::pair<unsigned long const ,unsigned long>,void *> *,bool>::pair<std::_Tree_node<std::pair<unsigned long const ,unsigned long>,void *> *,bool><std::_Tree_node<std::pair<unsigned long const ,unsigned long>,void *> *,bool,0>, COMDAT
; _this$ = ecx

; 192  :         : first(_STD forward<_Other1>(_Val1)), second(_STD forward<_Other2>(_Val2)) {}

  00000	55		 push	 ebp
  00001	8b ec		 mov	 ebp, esp
  00003	83 ec 44	 sub	 esp, 68			; 00000044H
  00006	53		 push	 ebx
  00007	56		 push	 esi
  00008	57		 push	 edi
  00009	89 4d fc	 mov	 DWORD PTR _this$[ebp], ecx
  0000c	8b 45 08	 mov	 eax, DWORD PTR __Val1$[ebp]
  0000f	50		 push	 eax
  00010	e8 00 00 00 00	 call	 ??$forward@PAU?$_Tree_node@U?$pair@$$CBKK@std@@PAX@std@@@std@@YA$$QAPAU?$_Tree_node@U?$pair@$$CBKK@std@@PAX@0@AAPAU10@@Z ; std::forward<std::_Tree_node<std::pair<unsigned long const ,unsigned long>,void *> *>
  00015	83 c4 04	 add	 esp, 4
  00018	8b 4d fc	 mov	 ecx, DWORD PTR _this$[ebp]
  0001b	8b 10		 mov	 edx, DWORD PTR [eax]
  0001d	89 11		 mov	 DWORD PTR [ecx], edx
  0001f	8b 45 0c	 mov	 eax, DWORD PTR __Val2$[ebp]
  00022	50		 push	 eax
  00023	e8 00 00 00 00	 call	 ??$forward@_N@std@@YA$$QA_NAA_N@Z ; std::forward<bool>
  00028	83 c4 04	 add	 esp, 4
  0002b	8b 4d fc	 mov	 ecx, DWORD PTR _this$[ebp]
  0002e	8a 10		 mov	 dl, BYTE PTR [eax]
  00030	88 51 04	 mov	 BYTE PTR [ecx+4], dl
  00033	8b 45 fc	 mov	 eax, DWORD PTR _this$[ebp]
  00036	5f		 pop	 edi
  00037	5e		 pop	 esi
  00038	5b		 pop	 ebx
  00039	8b e5		 mov	 esp, ebp
  0003b	5d		 pop	 ebp
  0003c	c2 08 00	 ret	 8
??$?0PAU?$_Tree_node@U?$pair@$$CBKK@std@@PAX@std@@_N$0A@@?$pair@PAU?$_Tree_node@U?$pair@$$CBKK@std@@PAX@std@@_N@std@@QAE@$$QAPAU?$_Tree_node@U?$pair@$$CBKK@std@@PAX@1@$$QA_N@Z ENDP ; std::pair<std::_Tree_node<std::pair<unsigned long const ,unsigned long>,void *> *,bool>::pair<std::_Tree_node<std::pair<unsigned long const ,unsigned long>,void *> *,bool><std::_Tree_node<std::pair<unsigned long const ,unsigned long>,void *> *,bool,0>
_TEXT	ENDS
; Function compile flags: /Odtp /ZI
; File C:\Program Files (x86)\Microsoft Visual Studio\2019\Community\VC\Tools\MSVC\14.27.29110\include\xtree
;	COMDAT ??$?0U?$pair@KK@std@@@?$_Tree_temp_node@V?$allocator@U?$_Tree_node@U?$pair@$$CBKK@std@@PAX@std@@@std@@@std@@QAE@AAV?$allocator@U?$_Tree_node@U?$pair@$$CBKK@std@@PAX@std@@@1@PAU?$_Tree_node@U?$pair@$$CBKK@std@@PAX@1@$$QAU?$pair@KK@1@@Z
_TEXT	SEGMENT
_this$ = -16						; size = 4
__$EHRec$ = -12						; size = 12
__Al_$ = 8						; size = 4
__Myhead$ = 12						; size = 4
_<_Vals_0>$ = 16					; size = 4
??$?0U?$pair@KK@std@@@?$_Tree_temp_node@V?$allocator@U?$_Tree_node@U?$pair@$$CBKK@std@@PAX@std@@@std@@@std@@QAE@AAV?$allocator@U?$_Tree_node@U?$pair@$$CBKK@std@@PAX@std@@@1@PAU?$_Tree_node@U?$pair@$$CBKK@std@@PAX@1@$$QAU?$pair@KK@1@@Z PROC ; std::_Tree_temp_node<std::allocator<std::_Tree_node<std::pair<unsigned long const ,unsigned long>,void *> > >::_Tree_temp_node<std::allocator<std::_Tree_node<std::pair<unsigned long const ,unsigned long>,void *> > ><std::pair<unsigned long,unsigned long> >, COMDAT
; _this$ = ecx

; 805  :         : _Tree_temp_node_alloc<_Alnode>(_Al_) {

  00000	55		 push	 ebp
  00001	8b ec		 mov	 ebp, esp
  00003	6a ff		 push	 -1
  00005	68 00 00 00 00	 push	 __ehhandler$??$?0U?$pair@KK@std@@@?$_Tree_temp_node@V?$allocator@U?$_Tree_node@U?$pair@$$CBKK@std@@PAX@std@@@std@@@std@@QAE@AAV?$allocator@U?$_Tree_node@U?$pair@$$CBKK@std@@PAX@std@@@1@PAU?$_Tree_node@U?$pair@$$CBKK@std@@PAX@1@$$QAU?$pair@KK@1@@Z
  0000a	64 a1 00 00 00
	00		 mov	 eax, DWORD PTR fs:0
  00010	50		 push	 eax
  00011	83 ec 44	 sub	 esp, 68			; 00000044H
  00014	53		 push	 ebx
  00015	56		 push	 esi
  00016	57		 push	 edi
  00017	a1 00 00 00 00	 mov	 eax, DWORD PTR ___security_cookie
  0001c	33 c5		 xor	 eax, ebp
  0001e	50		 push	 eax
  0001f	8d 45 f4	 lea	 eax, DWORD PTR __$EHRec$[ebp]
  00022	64 a3 00 00 00
	00		 mov	 DWORD PTR fs:0, eax
  00028	89 4d f0	 mov	 DWORD PTR _this$[ebp], ecx
  0002b	8b 45 08	 mov	 eax, DWORD PTR __Al_$[ebp]
  0002e	50		 push	 eax
  0002f	8b 4d f0	 mov	 ecx, DWORD PTR _this$[ebp]
  00032	e8 00 00 00 00	 call	 ??0?$_Tree_temp_node_alloc@V?$allocator@U?$_Tree_node@U?$pair@$$CBKK@std@@PAX@std@@@std@@@std@@QAE@AAV?$allocator@U?$_Tree_node@U?$pair@$$CBKK@std@@PAX@std@@@1@@Z ; std::_Tree_temp_node_alloc<std::allocator<std::_Tree_node<std::pair<unsigned long const ,unsigned long>,void *> > >::_Tree_temp_node_alloc<std::allocator<std::_Tree_node<std::pair<unsigned long const ,unsigned long>,void *> > >
  00037	c7 45 fc 00 00
	00 00		 mov	 DWORD PTR __$EHRec$[ebp+8], 0

; 806  :         _Alnode_traits::construct(this->_Al, _STD addressof(this->_Ptr->_Myval), _STD forward<_Valtys>(_Vals)...);

  0003e	8b 45 10	 mov	 eax, DWORD PTR _<_Vals_0>$[ebp]
  00041	50		 push	 eax
  00042	e8 00 00 00 00	 call	 ??$forward@U?$pair@KK@std@@@std@@YA$$QAU?$pair@KK@0@AAU10@@Z ; std::forward<std::pair<unsigned long,unsigned long> >
  00047	83 c4 04	 add	 esp, 4
  0004a	50		 push	 eax
  0004b	8b 4d f0	 mov	 ecx, DWORD PTR _this$[ebp]
  0004e	8b 51 04	 mov	 edx, DWORD PTR [ecx+4]
  00051	83 c2 10	 add	 edx, 16			; 00000010H
  00054	52		 push	 edx
  00055	e8 00 00 00 00	 call	 ??$addressof@U?$pair@$$CBKK@std@@@std@@YAPAU?$pair@$$CBKK@0@AAU10@@Z ; std::addressof<std::pair<unsigned long const ,unsigned long> >
  0005a	83 c4 04	 add	 esp, 4
  0005d	50		 push	 eax
  0005e	8b 45 f0	 mov	 eax, DWORD PTR _this$[ebp]
  00061	8b 08		 mov	 ecx, DWORD PTR [eax]
  00063	51		 push	 ecx
  00064	e8 00 00 00 00	 call	 ??$construct@U?$pair@$$CBKK@std@@U?$pair@KK@2@@?$_Default_allocator_traits@V?$allocator@U?$_Tree_node@U?$pair@$$CBKK@std@@PAX@std@@@std@@@std@@SAXAAV?$allocator@U?$_Tree_node@U?$pair@$$CBKK@std@@PAX@std@@@1@QAU?$pair@$$CBKK@1@$$QAU?$pair@KK@1@@Z ; std::_Default_allocator_traits<std::allocator<std::_Tree_node<std::pair<unsigned long const ,unsigned long>,void *> > >::construct<std::pair<unsigned long const ,unsigned long>,std::pair<unsigned long,unsigned long> >
  00069	83 c4 0c	 add	 esp, 12			; 0000000cH

; 807  :         _Construct_in_place(this->_Ptr->_Left, _Myhead);

  0006c	8d 45 0c	 lea	 eax, DWORD PTR __Myhead$[ebp]
  0006f	50		 push	 eax
  00070	8b 4d f0	 mov	 ecx, DWORD PTR _this$[ebp]
  00073	8b 51 04	 mov	 edx, DWORD PTR [ecx+4]
  00076	52		 push	 edx
  00077	e8 00 00 00 00	 call	 ??$_Construct_in_place@PAU?$_Tree_node@U?$pair@$$CBKK@std@@PAX@std@@AAPAU12@@std@@YAXAAPAU?$_Tree_node@U?$pair@$$CBKK@std@@PAX@0@0@Z ; std::_Construct_in_place<std::_Tree_node<std::pair<unsigned long const ,unsigned long>,void *> *,std::_Tree_node<std::pair<unsigned long const ,unsigned long>,void *> * &>
  0007c	83 c4 08	 add	 esp, 8

; 808  :         _Construct_in_place(this->_Ptr->_Parent, _Myhead);

  0007f	8d 45 0c	 lea	 eax, DWORD PTR __Myhead$[ebp]
  00082	50		 push	 eax
  00083	8b 4d f0	 mov	 ecx, DWORD PTR _this$[ebp]
  00086	8b 51 04	 mov	 edx, DWORD PTR [ecx+4]
  00089	83 c2 04	 add	 edx, 4
  0008c	52		 push	 edx
  0008d	e8 00 00 00 00	 call	 ??$_Construct_in_place@PAU?$_Tree_node@U?$pair@$$CBKK@std@@PAX@std@@AAPAU12@@std@@YAXAAPAU?$_Tree_node@U?$pair@$$CBKK@std@@PAX@0@0@Z ; std::_Construct_in_place<std::_Tree_node<std::pair<unsigned long const ,unsigned long>,void *> *,std::_Tree_node<std::pair<unsigned long const ,unsigned long>,void *> * &>
  00092	83 c4 08	 add	 esp, 8

; 809  :         _Construct_in_place(this->_Ptr->_Right, _Myhead);

  00095	8d 45 0c	 lea	 eax, DWORD PTR __Myhead$[ebp]
  00098	50		 push	 eax
  00099	8b 4d f0	 mov	 ecx, DWORD PTR _this$[ebp]
  0009c	8b 51 04	 mov	 edx, DWORD PTR [ecx+4]
  0009f	83 c2 08	 add	 edx, 8
  000a2	52		 push	 edx
  000a3	e8 00 00 00 00	 call	 ??$_Construct_in_place@PAU?$_Tree_node@U?$pair@$$CBKK@std@@PAX@std@@AAPAU12@@std@@YAXAAPAU?$_Tree_node@U?$pair@$$CBKK@std@@PAX@0@0@Z ; std::_Construct_in_place<std::_Tree_node<std::pair<unsigned long const ,unsigned long>,void *> *,std::_Tree_node<std::pair<unsigned long const ,unsigned long>,void *> * &>
  000a8	83 c4 08	 add	 esp, 8

; 810  :         this->_Ptr->_Color = _Red;

  000ab	8b 45 f0	 mov	 eax, DWORD PTR _this$[ebp]
  000ae	8b 48 04	 mov	 ecx, DWORD PTR [eax+4]
  000b1	c6 41 0c 00	 mov	 BYTE PTR [ecx+12], 0

; 811  :         this->_Ptr->_Isnil = false;

  000b5	8b 45 f0	 mov	 eax, DWORD PTR _this$[ebp]
  000b8	8b 48 04	 mov	 ecx, DWORD PTR [eax+4]
  000bb	c6 41 0d 00	 mov	 BYTE PTR [ecx+13], 0

; 812  :     }

  000bf	c7 45 fc ff ff
	ff ff		 mov	 DWORD PTR __$EHRec$[ebp+8], -1
  000c6	8b 45 f0	 mov	 eax, DWORD PTR _this$[ebp]
  000c9	8b 4d f4	 mov	 ecx, DWORD PTR __$EHRec$[ebp]
  000cc	64 89 0d 00 00
	00 00		 mov	 DWORD PTR fs:0, ecx
  000d3	59		 pop	 ecx
  000d4	5f		 pop	 edi
  000d5	5e		 pop	 esi
  000d6	5b		 pop	 ebx
  000d7	8b e5		 mov	 esp, ebp
  000d9	5d		 pop	 ebp
  000da	c2 0c 00	 ret	 12			; 0000000cH
_TEXT	ENDS
;	COMDAT text$x
text$x	SEGMENT
__unwindfunclet$??$?0U?$pair@KK@std@@@?$_Tree_temp_node@V?$allocator@U?$_Tree_node@U?$pair@$$CBKK@std@@PAX@std@@@std@@@std@@QAE@AAV?$allocator@U?$_Tree_node@U?$pair@$$CBKK@std@@PAX@std@@@1@PAU?$_Tree_node@U?$pair@$$CBKK@std@@PAX@1@$$QAU?$pair@KK@1@@Z$0:
  00000	8b 4d f0	 mov	 ecx, DWORD PTR _this$[ebp]
  00003	e9 00 00 00 00	 jmp	 ??1?$_Tree_temp_node_alloc@V?$allocator@U?$_Tree_node@U?$pair@$$CBKK@std@@PAX@std@@@std@@@std@@QAE@XZ
  00008	cc		 int	 3
  00009	cc		 int	 3
  0000a	cc		 int	 3
  0000b	cc		 int	 3
  0000c	cc		 int	 3
__ehhandler$??$?0U?$pair@KK@std@@@?$_Tree_temp_node@V?$allocator@U?$_Tree_node@U?$pair@$$CBKK@std@@PAX@std@@@std@@@std@@QAE@AAV?$allocator@U?$_Tree_node@U?$pair@$$CBKK@std@@PAX@std@@@1@PAU?$_Tree_node@U?$pair@$$CBKK@std@@PAX@1@$$QAU?$pair@KK@1@@Z:
  0000d	90		 npad	 1
  0000e	90		 npad	 1
  0000f	8b 54 24 08	 mov	 edx, DWORD PTR [esp+8]
  00013	8d 42 0c	 lea	 eax, DWORD PTR [edx+12]
  00016	8b 4a ac	 mov	 ecx, DWORD PTR [edx-84]
  00019	33 c8		 xor	 ecx, eax
  0001b	e8 00 00 00 00	 call	 @__security_check_cookie@4
  00020	b8 00 00 00 00	 mov	 eax, OFFSET __ehfuncinfo$??$?0U?$pair@KK@std@@@?$_Tree_temp_node@V?$allocator@U?$_Tree_node@U?$pair@$$CBKK@std@@PAX@std@@@std@@@std@@QAE@AAV?$allocator@U?$_Tree_node@U?$pair@$$CBKK@std@@PAX@std@@@1@PAU?$_Tree_node@U?$pair@$$CBKK@std@@PAX@1@$$QAU?$pair@KK@1@@Z
  00025	e9 00 00 00 00	 jmp	 ___CxxFrameHandler3
text$x	ENDS
??$?0U?$pair@KK@std@@@?$_Tree_temp_node@V?$allocator@U?$_Tree_node@U?$pair@$$CBKK@std@@PAX@std@@@std@@@std@@QAE@AAV?$allocator@U?$_Tree_node@U?$pair@$$CBKK@std@@PAX@std@@@1@PAU?$_Tree_node@U?$pair@$$CBKK@std@@PAX@1@$$QAU?$pair@KK@1@@Z ENDP ; std::_Tree_temp_node<std::allocator<std::_Tree_node<std::pair<unsigned long const ,unsigned long>,void *> > >::_Tree_temp_node<std::allocator<std::_Tree_node<std::pair<unsigned long const ,unsigned long>,void *> > ><std::pair<unsigned long,unsigned long> >
; Function compile flags: /Odtp /ZI
; File C:\Program Files (x86)\Microsoft Visual Studio\2019\Community\VC\Tools\MSVC\14.27.29110\include\xtree
;	COMDAT ??1?$_Tree_temp_node@V?$allocator@U?$_Tree_node@U?$pair@$$CBKK@std@@PAX@std@@@std@@@std@@QAE@XZ
_TEXT	SEGMENT
_this$ = -16						; size = 4
__$EHRec$ = -12						; size = 12
??1?$_Tree_temp_node@V?$allocator@U?$_Tree_node@U?$pair@$$CBKK@std@@PAX@std@@@std@@@std@@QAE@XZ PROC ; std::_Tree_temp_node<std::allocator<std::_Tree_node<std::pair<unsigned long const ,unsigned long>,void *> > >::~_Tree_temp_node<std::allocator<std::_Tree_node<std::pair<unsigned long const ,unsigned long>,void *> > >, COMDAT
; _this$ = ecx

; 817  :     ~_Tree_temp_node() {

  00000	55		 push	 ebp
  00001	8b ec		 mov	 ebp, esp
  00003	6a ff		 push	 -1
  00005	68 00 00 00 00	 push	 __ehhandler$??1?$_Tree_temp_node@V?$allocator@U?$_Tree_node@U?$pair@$$CBKK@std@@PAX@std@@@std@@@std@@QAE@XZ
  0000a	64 a1 00 00 00
	00		 mov	 eax, DWORD PTR fs:0
  00010	50		 push	 eax
  00011	83 ec 44	 sub	 esp, 68			; 00000044H
  00014	53		 push	 ebx
  00015	56		 push	 esi
  00016	57		 push	 edi
  00017	a1 00 00 00 00	 mov	 eax, DWORD PTR ___security_cookie
  0001c	33 c5		 xor	 eax, ebp
  0001e	50		 push	 eax
  0001f	8d 45 f4	 lea	 eax, DWORD PTR __$EHRec$[ebp]
  00022	64 a3 00 00 00
	00		 mov	 DWORD PTR fs:0, eax
  00028	89 4d f0	 mov	 DWORD PTR _this$[ebp], ecx

; 818  :         if (this->_Ptr) {

  0002b	8b 45 f0	 mov	 eax, DWORD PTR _this$[ebp]
  0002e	83 78 04 00	 cmp	 DWORD PTR [eax+4], 0
  00032	74 54		 je	 SHORT $LN1@Tree_temp_

; 819  :             _Destroy_in_place(this->_Ptr->_Left);

  00034	8b 45 f0	 mov	 eax, DWORD PTR _this$[ebp]
  00037	8b 48 04	 mov	 ecx, DWORD PTR [eax+4]
  0003a	51		 push	 ecx
  0003b	e8 00 00 00 00	 call	 ??$_Destroy_in_place@PAU?$_Tree_node@U?$pair@$$CBKK@std@@PAX@std@@@std@@YAXAAPAU?$_Tree_node@U?$pair@$$CBKK@std@@PAX@0@@Z ; std::_Destroy_in_place<std::_Tree_node<std::pair<unsigned long const ,unsigned long>,void *> *>
  00040	83 c4 04	 add	 esp, 4

; 820  :             _Destroy_in_place(this->_Ptr->_Parent);

  00043	8b 45 f0	 mov	 eax, DWORD PTR _this$[ebp]
  00046	8b 48 04	 mov	 ecx, DWORD PTR [eax+4]
  00049	83 c1 04	 add	 ecx, 4
  0004c	51		 push	 ecx
  0004d	e8 00 00 00 00	 call	 ??$_Destroy_in_place@PAU?$_Tree_node@U?$pair@$$CBKK@std@@PAX@std@@@std@@YAXAAPAU?$_Tree_node@U?$pair@$$CBKK@std@@PAX@0@@Z ; std::_Destroy_in_place<std::_Tree_node<std::pair<unsigned long const ,unsigned long>,void *> *>
  00052	83 c4 04	 add	 esp, 4

; 821  :             _Destroy_in_place(this->_Ptr->_Right);

  00055	8b 45 f0	 mov	 eax, DWORD PTR _this$[ebp]
  00058	8b 48 04	 mov	 ecx, DWORD PTR [eax+4]
  0005b	83 c1 08	 add	 ecx, 8
  0005e	51		 push	 ecx
  0005f	e8 00 00 00 00	 call	 ??$_Destroy_in_place@PAU?$_Tree_node@U?$pair@$$CBKK@std@@PAX@std@@@std@@YAXAAPAU?$_Tree_node@U?$pair@$$CBKK@std@@PAX@0@@Z ; std::_Destroy_in_place<std::_Tree_node<std::pair<unsigned long const ,unsigned long>,void *> *>
  00064	83 c4 04	 add	 esp, 4

; 822  :             _Alnode_traits::destroy(this->_Al, _STD addressof(this->_Ptr->_Myval));

  00067	8b 45 f0	 mov	 eax, DWORD PTR _this$[ebp]
  0006a	8b 48 04	 mov	 ecx, DWORD PTR [eax+4]
  0006d	83 c1 10	 add	 ecx, 16			; 00000010H
  00070	51		 push	 ecx
  00071	e8 00 00 00 00	 call	 ??$addressof@U?$pair@$$CBKK@std@@@std@@YAPAU?$pair@$$CBKK@0@AAU10@@Z ; std::addressof<std::pair<unsigned long const ,unsigned long> >
  00076	83 c4 04	 add	 esp, 4
  00079	50		 push	 eax
  0007a	8b 55 f0	 mov	 edx, DWORD PTR _this$[ebp]
  0007d	8b 02		 mov	 eax, DWORD PTR [edx]
  0007f	50		 push	 eax
  00080	e8 00 00 00 00	 call	 ??$destroy@U?$pair@$$CBKK@std@@@?$_Default_allocator_traits@V?$allocator@U?$_Tree_node@U?$pair@$$CBKK@std@@PAX@std@@@std@@@std@@SAXAAV?$allocator@U?$_Tree_node@U?$pair@$$CBKK@std@@PAX@std@@@1@QAU?$pair@$$CBKK@1@@Z ; std::_Default_allocator_traits<std::allocator<std::_Tree_node<std::pair<unsigned long const ,unsigned long>,void *> > >::destroy<std::pair<unsigned long const ,unsigned long> >
  00085	83 c4 08	 add	 esp, 8
$LN1@Tree_temp_:

; 823  :         }
; 824  :     }

  00088	8b 4d f0	 mov	 ecx, DWORD PTR _this$[ebp]
  0008b	e8 00 00 00 00	 call	 ??1?$_Tree_temp_node_alloc@V?$allocator@U?$_Tree_node@U?$pair@$$CBKK@std@@PAX@std@@@std@@@std@@QAE@XZ
  00090	8b 4d f4	 mov	 ecx, DWORD PTR __$EHRec$[ebp]
  00093	64 89 0d 00 00
	00 00		 mov	 DWORD PTR fs:0, ecx
  0009a	59		 pop	 ecx
  0009b	5f		 pop	 edi
  0009c	5e		 pop	 esi
  0009d	5b		 pop	 ebx
  0009e	8b e5		 mov	 esp, ebp
  000a0	5d		 pop	 ebp
  000a1	c3		 ret	 0
  000a2	cc		 int	 3
  000a3	cc		 int	 3
  000a4	cc		 int	 3
  000a5	cc		 int	 3
  000a6	cc		 int	 3
_TEXT	ENDS
;	COMDAT text$x
text$x	SEGMENT
__ehhandler$??1?$_Tree_temp_node@V?$allocator@U?$_Tree_node@U?$pair@$$CBKK@std@@PAX@std@@@std@@@std@@QAE@XZ:
  00000	90		 npad	 1
  00001	90		 npad	 1
  00002	8b 54 24 08	 mov	 edx, DWORD PTR [esp+8]
  00006	8d 42 0c	 lea	 eax, DWORD PTR [edx+12]
  00009	8b 4a ac	 mov	 ecx, DWORD PTR [edx-84]
  0000c	33 c8		 xor	 ecx, eax
  0000e	e8 00 00 00 00	 call	 @__security_check_cookie@4
  00013	b8 00 00 00 00	 mov	 eax, OFFSET __ehfuncinfo$??1?$_Tree_temp_node@V?$allocator@U?$_Tree_node@U?$pair@$$CBKK@std@@PAX@std@@@std@@@std@@QAE@XZ
  00018	e9 00 00 00 00	 jmp	 ___CxxFrameHandler3
text$x	ENDS
??1?$_Tree_temp_node@V?$allocator@U?$_Tree_node@U?$pair@$$CBKK@std@@PAX@std@@@std@@@std@@QAE@XZ ENDP ; std::_Tree_temp_node<std::allocator<std::_Tree_node<std::pair<unsigned long const ,unsigned long>,void *> > >::~_Tree_temp_node<std::allocator<std::_Tree_node<std::pair<unsigned long const ,unsigned long>,void *> > >
; Function compile flags: /Odtp /ZI
;	COMDAT ??1?$_Tree_temp_node_alloc@V?$allocator@U?$_Tree_node@U?$pair@$$CBKK@std@@PAX@std@@@std@@@std@@QAE@XZ
_TEXT	SEGMENT
_this$ = -4						; size = 4
??1?$_Tree_temp_node_alloc@V?$allocator@U?$_Tree_node@U?$pair@$$CBKK@std@@PAX@std@@@std@@@std@@QAE@XZ PROC ; std::_Tree_temp_node_alloc<std::allocator<std::_Tree_node<std::pair<unsigned long const ,unsigned long>,void *> > >::~_Tree_temp_node_alloc<std::allocator<std::_Tree_node<std::pair<unsigned long const ,unsigned long>,void *> > >, COMDAT
; _this$ = ecx
  00000	55		 push	 ebp
  00001	8b ec		 mov	 ebp, esp
  00003	83 ec 44	 sub	 esp, 68			; 00000044H
  00006	53		 push	 ebx
  00007	56		 push	 esi
  00008	57		 push	 edi
  00009	89 4d fc	 mov	 DWORD PTR _this$[ebp], ecx
  0000c	8b 4d fc	 mov	 ecx, DWORD PTR _this$[ebp]
  0000f	e8 00 00 00 00	 call	 ??1?$_Alloc_construct_ptr@V?$allocator@U?$_Tree_node@U?$pair@$$CBKK@std@@PAX@std@@@std@@@std@@QAE@XZ ; std::_Alloc_construct_ptr<std::allocator<std::_Tree_node<std::pair<unsigned long const ,unsigned long>,void *> > >::~_Alloc_construct_ptr<std::allocator<std::_Tree_node<std::pair<unsigned long const ,unsigned long>,void *> > >
  00014	5f		 pop	 edi
  00015	5e		 pop	 esi
  00016	5b		 pop	 ebx
  00017	8b e5		 mov	 esp, ebp
  00019	5d		 pop	 ebp
  0001a	c3		 ret	 0
??1?$_Tree_temp_node_alloc@V?$allocator@U?$_Tree_node@U?$pair@$$CBKK@std@@PAX@std@@@std@@@std@@QAE@XZ ENDP ; std::_Tree_temp_node_alloc<std::allocator<std::_Tree_node<std::pair<unsigned long const ,unsigned long>,void *> > >::~_Tree_temp_node_alloc<std::allocator<std::_Tree_node<std::pair<unsigned long const ,unsigned long>,void *> > >
_TEXT	ENDS
; Function compile flags: /Odtp /ZI
; File C:\Program Files (x86)\Microsoft Visual Studio\2019\Community\VC\Tools\MSVC\14.27.29110\include\xtree
;	COMDAT ??0?$_Tree_temp_node_alloc@V?$allocator@U?$_Tree_node@U?$pair@$$CBKK@std@@PAX@std@@@std@@@std@@QAE@AAV?$allocator@U?$_Tree_node@U?$pair@$$CBKK@std@@PAX@std@@@1@@Z
_TEXT	SEGMENT
_this$ = -16						; size = 4
__$EHRec$ = -12						; size = 12
__Al_$ = 8						; size = 4
??0?$_Tree_temp_node_alloc@V?$allocator@U?$_Tree_node@U?$pair@$$CBKK@std@@PAX@std@@@std@@@std@@QAE@AAV?$allocator@U?$_Tree_node@U?$pair@$$CBKK@std@@PAX@std@@@1@@Z PROC ; std::_Tree_temp_node_alloc<std::allocator<std::_Tree_node<std::pair<unsigned long const ,unsigned long>,void *> > >::_Tree_temp_node_alloc<std::allocator<std::_Tree_node<std::pair<unsigned long const ,unsigned long>,void *> > >, COMDAT
; _this$ = ecx

; 784  :     explicit _Tree_temp_node_alloc(_Alnode& _Al_) : _Alloc_construct_ptr<_Alnode>(_Al_) {

  00000	55		 push	 ebp
  00001	8b ec		 mov	 ebp, esp
  00003	6a ff		 push	 -1
  00005	68 00 00 00 00	 push	 __ehhandler$??0?$_Tree_temp_node_alloc@V?$allocator@U?$_Tree_node@U?$pair@$$CBKK@std@@PAX@std@@@std@@@std@@QAE@AAV?$allocator@U?$_Tree_node@U?$pair@$$CBKK@std@@PAX@std@@@1@@Z
  0000a	64 a1 00 00 00
	00		 mov	 eax, DWORD PTR fs:0
  00010	50		 push	 eax
  00011	83 ec 44	 sub	 esp, 68			; 00000044H
  00014	53		 push	 ebx
  00015	56		 push	 esi
  00016	57		 push	 edi
  00017	a1 00 00 00 00	 mov	 eax, DWORD PTR ___security_cookie
  0001c	33 c5		 xor	 eax, ebp
  0001e	50		 push	 eax
  0001f	8d 45 f4	 lea	 eax, DWORD PTR __$EHRec$[ebp]
  00022	64 a3 00 00 00
	00		 mov	 DWORD PTR fs:0, eax
  00028	89 4d f0	 mov	 DWORD PTR _this$[ebp], ecx
  0002b	8b 45 08	 mov	 eax, DWORD PTR __Al_$[ebp]
  0002e	50		 push	 eax
  0002f	8b 4d f0	 mov	 ecx, DWORD PTR _this$[ebp]
  00032	e8 00 00 00 00	 call	 ??0?$_Alloc_construct_ptr@V?$allocator@U?$_Tree_node@U?$pair@$$CBKK@std@@PAX@std@@@std@@@std@@QAE@AAV?$allocator@U?$_Tree_node@U?$pair@$$CBKK@std@@PAX@std@@@1@@Z ; std::_Alloc_construct_ptr<std::allocator<std::_Tree_node<std::pair<unsigned long const ,unsigned long>,void *> > >::_Alloc_construct_ptr<std::allocator<std::_Tree_node<std::pair<unsigned long const ,unsigned long>,void *> > >
  00037	c7 45 fc 00 00
	00 00		 mov	 DWORD PTR __$EHRec$[ebp+8], 0

; 785  :         _Alloc_construct_ptr<_Alnode>::_Allocate();

  0003e	8b 4d f0	 mov	 ecx, DWORD PTR _this$[ebp]
  00041	e8 00 00 00 00	 call	 ?_Allocate@?$_Alloc_construct_ptr@V?$allocator@U?$_Tree_node@U?$pair@$$CBKK@std@@PAX@std@@@std@@@std@@QAEXXZ ; std::_Alloc_construct_ptr<std::allocator<std::_Tree_node<std::pair<unsigned long const ,unsigned long>,void *> > >::_Allocate

; 786  :     }

  00046	c7 45 fc ff ff
	ff ff		 mov	 DWORD PTR __$EHRec$[ebp+8], -1
  0004d	8b 45 f0	 mov	 eax, DWORD PTR _this$[ebp]
  00050	8b 4d f4	 mov	 ecx, DWORD PTR __$EHRec$[ebp]
  00053	64 89 0d 00 00
	00 00		 mov	 DWORD PTR fs:0, ecx
  0005a	59		 pop	 ecx
  0005b	5f		 pop	 edi
  0005c	5e		 pop	 esi
  0005d	5b		 pop	 ebx
  0005e	8b e5		 mov	 esp, ebp
  00060	5d		 pop	 ebp
  00061	c2 04 00	 ret	 4
_TEXT	ENDS
;	COMDAT text$x
text$x	SEGMENT
__unwindfunclet$??0?$_Tree_temp_node_alloc@V?$allocator@U?$_Tree_node@U?$pair@$$CBKK@std@@PAX@std@@@std@@@std@@QAE@AAV?$allocator@U?$_Tree_node@U?$pair@$$CBKK@std@@PAX@std@@@1@@Z$0:
  00000	8b 4d f0	 mov	 ecx, DWORD PTR _this$[ebp]
  00003	e9 00 00 00 00	 jmp	 ??1?$_Alloc_construct_ptr@V?$allocator@U?$_Tree_node@U?$pair@$$CBKK@std@@PAX@std@@@std@@@std@@QAE@XZ ; std::_Alloc_construct_ptr<std::allocator<std::_Tree_node<std::pair<unsigned long const ,unsigned long>,void *> > >::~_Alloc_construct_ptr<std::allocator<std::_Tree_node<std::pair<unsigned long const ,unsigned long>,void *> > >
  00008	cc		 int	 3
  00009	cc		 int	 3
  0000a	cc		 int	 3
  0000b	cc		 int	 3
  0000c	cc		 int	 3
__ehhandler$??0?$_Tree_temp_node_alloc@V?$allocator@U?$_Tree_node@U?$pair@$$CBKK@std@@PAX@std@@@std@@@std@@QAE@AAV?$allocator@U?$_Tree_node@U?$pair@$$CBKK@std@@PAX@std@@@1@@Z:
  0000d	90		 npad	 1
  0000e	90		 npad	 1
  0000f	8b 54 24 08	 mov	 edx, DWORD PTR [esp+8]
  00013	8d 42 0c	 lea	 eax, DWORD PTR [edx+12]
  00016	8b 4a ac	 mov	 ecx, DWORD PTR [edx-84]
  00019	33 c8		 xor	 ecx, eax
  0001b	e8 00 00 00 00	 call	 @__security_check_cookie@4
  00020	b8 00 00 00 00	 mov	 eax, OFFSET __ehfuncinfo$??0?$_Tree_temp_node_alloc@V?$allocator@U?$_Tree_node@U?$pair@$$CBKK@std@@PAX@std@@@std@@@std@@QAE@AAV?$allocator@U?$_Tree_node@U?$pair@$$CBKK@std@@PAX@std@@@1@@Z
  00025	e9 00 00 00 00	 jmp	 ___CxxFrameHandler3
text$x	ENDS
??0?$_Tree_temp_node_alloc@V?$allocator@U?$_Tree_node@U?$pair@$$CBKK@std@@PAX@std@@@std@@@std@@QAE@AAV?$allocator@U?$_Tree_node@U?$pair@$$CBKK@std@@PAX@std@@@1@@Z ENDP ; std::_Tree_temp_node_alloc<std::allocator<std::_Tree_node<std::pair<unsigned long const ,unsigned long>,void *> > >::_Tree_temp_node_alloc<std::allocator<std::_Tree_node<std::pair<unsigned long const ,unsigned long>,void *> > >
; Function compile flags: /Odtp /ZI
; File C:\Program Files (x86)\Microsoft Visual Studio\2019\Community\VC\Tools\MSVC\14.27.29110\include\xmemory
;	COMDAT ??1?$_Alloc_construct_ptr@V?$allocator@U?$_Tree_node@U?$pair@$$CBKK@std@@PAX@std@@@std@@@std@@QAE@XZ
_TEXT	SEGMENT
_this$ = -16						; size = 4
__$EHRec$ = -12						; size = 12
??1?$_Alloc_construct_ptr@V?$allocator@U?$_Tree_node@U?$pair@$$CBKK@std@@PAX@std@@@std@@@std@@QAE@XZ PROC ; std::_Alloc_construct_ptr<std::allocator<std::_Tree_node<std::pair<unsigned long const ,unsigned long>,void *> > >::~_Alloc_construct_ptr<std::allocator<std::_Tree_node<std::pair<unsigned long const ,unsigned long>,void *> > >, COMDAT
; _this$ = ecx

; 1051 :     ~_Alloc_construct_ptr() { // if this instance is engaged, deallocate storage

  00000	55		 push	 ebp
  00001	8b ec		 mov	 ebp, esp
  00003	6a ff		 push	 -1
  00005	68 00 00 00 00	 push	 __ehhandler$??1?$_Alloc_construct_ptr@V?$allocator@U?$_Tree_node@U?$pair@$$CBKK@std@@PAX@std@@@std@@@std@@QAE@XZ
  0000a	64 a1 00 00 00
	00		 mov	 eax, DWORD PTR fs:0
  00010	50		 push	 eax
  00011	83 ec 44	 sub	 esp, 68			; 00000044H
  00014	53		 push	 ebx
  00015	56		 push	 esi
  00016	57		 push	 edi
  00017	a1 00 00 00 00	 mov	 eax, DWORD PTR ___security_cookie
  0001c	33 c5		 xor	 eax, ebp
  0001e	50		 push	 eax
  0001f	8d 45 f4	 lea	 eax, DWORD PTR __$EHRec$[ebp]
  00022	64 a3 00 00 00
	00		 mov	 DWORD PTR fs:0, eax
  00028	89 4d f0	 mov	 DWORD PTR _this$[ebp], ecx

; 1052 :         if (_Ptr) {

  0002b	8b 45 f0	 mov	 eax, DWORD PTR _this$[ebp]
  0002e	83 78 04 00	 cmp	 DWORD PTR [eax+4], 0
  00032	74 13		 je	 SHORT $LN3@Alloc_cons

; 1053 :             _Al.deallocate(_Ptr, 1);

  00034	6a 01		 push	 1
  00036	8b 45 f0	 mov	 eax, DWORD PTR _this$[ebp]
  00039	8b 48 04	 mov	 ecx, DWORD PTR [eax+4]
  0003c	51		 push	 ecx
  0003d	8b 55 f0	 mov	 edx, DWORD PTR _this$[ebp]
  00040	8b 0a		 mov	 ecx, DWORD PTR [edx]
  00042	e8 00 00 00 00	 call	 ?deallocate@?$allocator@U?$_Tree_node@U?$pair@$$CBKK@std@@PAX@std@@@std@@QAEXQAU?$_Tree_node@U?$pair@$$CBKK@std@@PAX@2@I@Z ; std::allocator<std::_Tree_node<std::pair<unsigned long const ,unsigned long>,void *> >::deallocate
$LN3@Alloc_cons:

; 1054 :         }
; 1055 :     }

  00047	8b 4d f4	 mov	 ecx, DWORD PTR __$EHRec$[ebp]
  0004a	64 89 0d 00 00
	00 00		 mov	 DWORD PTR fs:0, ecx
  00051	59		 pop	 ecx
  00052	5f		 pop	 edi
  00053	5e		 pop	 esi
  00054	5b		 pop	 ebx
  00055	8b e5		 mov	 esp, ebp
  00057	5d		 pop	 ebp
  00058	c3		 ret	 0
  00059	cc		 int	 3
  0005a	cc		 int	 3
  0005b	cc		 int	 3
  0005c	cc		 int	 3
  0005d	cc		 int	 3
_TEXT	ENDS
;	COMDAT text$x
text$x	SEGMENT
__ehhandler$??1?$_Alloc_construct_ptr@V?$allocator@U?$_Tree_node@U?$pair@$$CBKK@std@@PAX@std@@@std@@@std@@QAE@XZ:
  00000	90		 npad	 1
  00001	90		 npad	 1
  00002	8b 54 24 08	 mov	 edx, DWORD PTR [esp+8]
  00006	8d 42 0c	 lea	 eax, DWORD PTR [edx+12]
  00009	8b 4a ac	 mov	 ecx, DWORD PTR [edx-84]
  0000c	33 c8		 xor	 ecx, eax
  0000e	e8 00 00 00 00	 call	 @__security_check_cookie@4
  00013	b8 00 00 00 00	 mov	 eax, OFFSET __ehfuncinfo$??1?$_Alloc_construct_ptr@V?$allocator@U?$_Tree_node@U?$pair@$$CBKK@std@@PAX@std@@@std@@@std@@QAE@XZ
  00018	e9 00 00 00 00	 jmp	 ___CxxFrameHandler3
text$x	ENDS
??1?$_Alloc_construct_ptr@V?$allocator@U?$_Tree_node@U?$pair@$$CBKK@std@@PAX@std@@@std@@@std@@QAE@XZ ENDP ; std::_Alloc_construct_ptr<std::allocator<std::_Tree_node<std::pair<unsigned long const ,unsigned long>,void *> > >::~_Alloc_construct_ptr<std::allocator<std::_Tree_node<std::pair<unsigned long const ,unsigned long>,void *> > >
; Function compile flags: /Odtp /ZI
; File C:\Program Files (x86)\Microsoft Visual Studio\2019\Community\VC\Tools\MSVC\14.27.29110\include\xmemory
;	COMDAT ?_Allocate@?$_Alloc_construct_ptr@V?$allocator@U?$_Tree_node@U?$pair@$$CBKK@std@@PAX@std@@@std@@@std@@QAEXXZ
_TEXT	SEGMENT
_this$ = -4						; size = 4
?_Allocate@?$_Alloc_construct_ptr@V?$allocator@U?$_Tree_node@U?$pair@$$CBKK@std@@PAX@std@@@std@@@std@@QAEXXZ PROC ; std::_Alloc_construct_ptr<std::allocator<std::_Tree_node<std::pair<unsigned long const ,unsigned long>,void *> > >::_Allocate, COMDAT
; _this$ = ecx

; 1046 :     void _Allocate() { // disengage *this, then allocate a new memory block

  00000	55		 push	 ebp
  00001	8b ec		 mov	 ebp, esp
  00003	83 ec 44	 sub	 esp, 68			; 00000044H
  00006	53		 push	 ebx
  00007	56		 push	 esi
  00008	57		 push	 edi
  00009	89 4d fc	 mov	 DWORD PTR _this$[ebp], ecx

; 1047 :         _Ptr = nullptr; // if allocate throws, prevents double-free

  0000c	8b 45 fc	 mov	 eax, DWORD PTR _this$[ebp]
  0000f	c7 40 04 00 00
	00 00		 mov	 DWORD PTR [eax+4], 0

; 1048 :         _Ptr = _Al.allocate(1);

  00016	6a 01		 push	 1
  00018	8b 45 fc	 mov	 eax, DWORD PTR _this$[ebp]
  0001b	8b 08		 mov	 ecx, DWORD PTR [eax]
  0001d	e8 00 00 00 00	 call	 ?allocate@?$allocator@U?$_Tree_node@U?$pair@$$CBKK@std@@PAX@std@@@std@@QAEPAU?$_Tree_node@U?$pair@$$CBKK@std@@PAX@2@I@Z ; std::allocator<std::_Tree_node<std::pair<unsigned long const ,unsigned long>,void *> >::allocate
  00022	8b 4d fc	 mov	 ecx, DWORD PTR _this$[ebp]
  00025	89 41 04	 mov	 DWORD PTR [ecx+4], eax

; 1049 :     }

  00028	5f		 pop	 edi
  00029	5e		 pop	 esi
  0002a	5b		 pop	 ebx
  0002b	8b e5		 mov	 esp, ebp
  0002d	5d		 pop	 ebp
  0002e	c3		 ret	 0
?_Allocate@?$_Alloc_construct_ptr@V?$allocator@U?$_Tree_node@U?$pair@$$CBKK@std@@PAX@std@@@std@@@std@@QAEXXZ ENDP ; std::_Alloc_construct_ptr<std::allocator<std::_Tree_node<std::pair<unsigned long const ,unsigned long>,void *> > >::_Allocate
_TEXT	ENDS
; Function compile flags: /Odtp /ZI
; File C:\Program Files (x86)\Microsoft Visual Studio\2019\Community\VC\Tools\MSVC\14.27.29110\include\xmemory
;	COMDAT ?_Release@?$_Alloc_construct_ptr@V?$allocator@U?$_Tree_node@U?$pair@$$CBKK@std@@PAX@std@@@std@@@std@@QAEPAU?$_Tree_node@U?$pair@$$CBKK@std@@PAX@2@XZ
_TEXT	SEGMENT
$T1 = -72						; size = 4
_this$ = -4						; size = 4
?_Release@?$_Alloc_construct_ptr@V?$allocator@U?$_Tree_node@U?$pair@$$CBKK@std@@PAX@std@@@std@@@std@@QAEPAU?$_Tree_node@U?$pair@$$CBKK@std@@PAX@2@XZ PROC ; std::_Alloc_construct_ptr<std::allocator<std::_Tree_node<std::pair<unsigned long const ,unsigned long>,void *> > >::_Release, COMDAT
; _this$ = ecx

; 1042 :     _NODISCARD pointer _Release() noexcept { // disengage *this and return contained pointer

  00000	55		 push	 ebp
  00001	8b ec		 mov	 ebp, esp
  00003	83 ec 48	 sub	 esp, 72			; 00000048H
  00006	53		 push	 ebx
  00007	56		 push	 esi
  00008	57		 push	 edi
  00009	89 4d fc	 mov	 DWORD PTR _this$[ebp], ecx

; 1043 :         return _STD exchange(_Ptr, nullptr);

  0000c	c7 45 b8 00 00
	00 00		 mov	 DWORD PTR $T1[ebp], 0
  00013	8d 45 b8	 lea	 eax, DWORD PTR $T1[ebp]
  00016	50		 push	 eax
  00017	8b 4d fc	 mov	 ecx, DWORD PTR _this$[ebp]
  0001a	83 c1 04	 add	 ecx, 4
  0001d	51		 push	 ecx
  0001e	e8 00 00 00 00	 call	 ??$exchange@PAU?$_Tree_node@U?$pair@$$CBKK@std@@PAX@std@@$$T@std@@YAPAU?$_Tree_node@U?$pair@$$CBKK@std@@PAX@0@AAPAU10@$$QA$$T@Z ; std::exchange<std::_Tree_node<std::pair<unsigned long const ,unsigned long>,void *> *,std::nullptr_t>
  00023	83 c4 08	 add	 esp, 8

; 1044 :     }

  00026	5f		 pop	 edi
  00027	5e		 pop	 esi
  00028	5b		 pop	 ebx
  00029	8b e5		 mov	 esp, ebp
  0002b	5d		 pop	 ebp
  0002c	c3		 ret	 0
?_Release@?$_Alloc_construct_ptr@V?$allocator@U?$_Tree_node@U?$pair@$$CBKK@std@@PAX@std@@@std@@@std@@QAEPAU?$_Tree_node@U?$pair@$$CBKK@std@@PAX@2@XZ ENDP ; std::_Alloc_construct_ptr<std::allocator<std::_Tree_node<std::pair<unsigned long const ,unsigned long>,void *> > >::_Release
_TEXT	ENDS
; Function compile flags: /Odtp /ZI
; File C:\Program Files (x86)\Microsoft Visual Studio\2019\Community\VC\Tools\MSVC\14.27.29110\include\xmemory
;	COMDAT ??0?$_Alloc_construct_ptr@V?$allocator@U?$_Tree_node@U?$pair@$$CBKK@std@@PAX@std@@@std@@@std@@QAE@AAV?$allocator@U?$_Tree_node@U?$pair@$$CBKK@std@@PAX@std@@@1@@Z
_TEXT	SEGMENT
_this$ = -4						; size = 4
__Al_$ = 8						; size = 4
??0?$_Alloc_construct_ptr@V?$allocator@U?$_Tree_node@U?$pair@$$CBKK@std@@PAX@std@@@std@@@std@@QAE@AAV?$allocator@U?$_Tree_node@U?$pair@$$CBKK@std@@PAX@std@@@1@@Z PROC ; std::_Alloc_construct_ptr<std::allocator<std::_Tree_node<std::pair<unsigned long const ,unsigned long>,void *> > >::_Alloc_construct_ptr<std::allocator<std::_Tree_node<std::pair<unsigned long const ,unsigned long>,void *> > >, COMDAT
; _this$ = ecx

; 1040 :     explicit _Alloc_construct_ptr(_Alloc& _Al_) : _Al(_Al_), _Ptr(nullptr) {}

  00000	55		 push	 ebp
  00001	8b ec		 mov	 ebp, esp
  00003	83 ec 44	 sub	 esp, 68			; 00000044H
  00006	53		 push	 ebx
  00007	56		 push	 esi
  00008	57		 push	 edi
  00009	89 4d fc	 mov	 DWORD PTR _this$[ebp], ecx
  0000c	8b 45 fc	 mov	 eax, DWORD PTR _this$[ebp]
  0000f	8b 4d 08	 mov	 ecx, DWORD PTR __Al_$[ebp]
  00012	89 08		 mov	 DWORD PTR [eax], ecx
  00014	8b 45 fc	 mov	 eax, DWORD PTR _this$[ebp]
  00017	c7 40 04 00 00
	00 00		 mov	 DWORD PTR [eax+4], 0
  0001e	8b 45 fc	 mov	 eax, DWORD PTR _this$[ebp]
  00021	5f		 pop	 edi
  00022	5e		 pop	 esi
  00023	5b		 pop	 ebx
  00024	8b e5		 mov	 esp, ebp
  00026	5d		 pop	 ebp
  00027	c2 04 00	 ret	 4
??0?$_Alloc_construct_ptr@V?$allocator@U?$_Tree_node@U?$pair@$$CBKK@std@@PAX@std@@@std@@@std@@QAE@AAV?$allocator@U?$_Tree_node@U?$pair@$$CBKK@std@@PAX@std@@@1@@Z ENDP ; std::_Alloc_construct_ptr<std::allocator<std::_Tree_node<std::pair<unsigned long const ,unsigned long>,void *> > >::_Alloc_construct_ptr<std::allocator<std::_Tree_node<std::pair<unsigned long const ,unsigned long>,void *> > >
_TEXT	ENDS
; Function compile flags: /Odtp /ZI
; File C:\Program Files (x86)\Microsoft Visual Studio\2019\Community\VC\Tools\MSVC\14.27.29110\include\utility
;	COMDAT ??$?0AAPAU?$_Tree_node@U?$pair@$$CBKK@std@@PAX@std@@_N$0A@@?$pair@PAU?$_Tree_node@U?$pair@$$CBKK@std@@PAX@std@@_N@std@@QAE@AAPAU?$_Tree_node@U?$pair@$$CBKK@std@@PAX@1@$$QA_N@Z
_TEXT	SEGMENT
_this$ = -4						; size = 4
__Val1$ = 8						; size = 4
__Val2$ = 12						; size = 4
??$?0AAPAU?$_Tree_node@U?$pair@$$CBKK@std@@PAX@std@@_N$0A@@?$pair@PAU?$_Tree_node@U?$pair@$$CBKK@std@@PAX@std@@_N@std@@QAE@AAPAU?$_Tree_node@U?$pair@$$CBKK@std@@PAX@1@$$QA_N@Z PROC ; std::pair<std::_Tree_node<std::pair<unsigned long const ,unsigned long>,void *> *,bool>::pair<std::_Tree_node<std::pair<unsigned long const ,unsigned long>,void *> *,bool><std::_Tree_node<std::pair<unsigned long const ,unsigned long>,void *> * &,bool,0>, COMDAT
; _this$ = ecx

; 192  :         : first(_STD forward<_Other1>(_Val1)), second(_STD forward<_Other2>(_Val2)) {}

  00000	55		 push	 ebp
  00001	8b ec		 mov	 ebp, esp
  00003	83 ec 44	 sub	 esp, 68			; 00000044H
  00006	53		 push	 ebx
  00007	56		 push	 esi
  00008	57		 push	 edi
  00009	89 4d fc	 mov	 DWORD PTR _this$[ebp], ecx
  0000c	8b 45 08	 mov	 eax, DWORD PTR __Val1$[ebp]
  0000f	50		 push	 eax
  00010	e8 00 00 00 00	 call	 ??$forward@AAPAU?$_Tree_node@U?$pair@$$CBKK@std@@PAX@std@@@std@@YAAAPAU?$_Tree_node@U?$pair@$$CBKK@std@@PAX@0@AAPAU10@@Z ; std::forward<std::_Tree_node<std::pair<unsigned long const ,unsigned long>,void *> * &>
  00015	83 c4 04	 add	 esp, 4
  00018	8b 4d fc	 mov	 ecx, DWORD PTR _this$[ebp]
  0001b	8b 10		 mov	 edx, DWORD PTR [eax]
  0001d	89 11		 mov	 DWORD PTR [ecx], edx
  0001f	8b 45 0c	 mov	 eax, DWORD PTR __Val2$[ebp]
  00022	50		 push	 eax
  00023	e8 00 00 00 00	 call	 ??$forward@_N@std@@YA$$QA_NAA_N@Z ; std::forward<bool>
  00028	83 c4 04	 add	 esp, 4
  0002b	8b 4d fc	 mov	 ecx, DWORD PTR _this$[ebp]
  0002e	8a 10		 mov	 dl, BYTE PTR [eax]
  00030	88 51 04	 mov	 BYTE PTR [ecx+4], dl
  00033	8b 45 fc	 mov	 eax, DWORD PTR _this$[ebp]
  00036	5f		 pop	 edi
  00037	5e		 pop	 esi
  00038	5b		 pop	 ebx
  00039	8b e5		 mov	 esp, ebp
  0003b	5d		 pop	 ebp
  0003c	c2 08 00	 ret	 8
??$?0AAPAU?$_Tree_node@U?$pair@$$CBKK@std@@PAX@std@@_N$0A@@?$pair@PAU?$_Tree_node@U?$pair@$$CBKK@std@@PAX@std@@_N@std@@QAE@AAPAU?$_Tree_node@U?$pair@$$CBKK@std@@PAX@1@$$QA_N@Z ENDP ; std::pair<std::_Tree_node<std::pair<unsigned long const ,unsigned long>,void *> *,bool>::pair<std::_Tree_node<std::pair<unsigned long const ,unsigned long>,void *> *,bool><std::_Tree_node<std::pair<unsigned long const ,unsigned long>,void *> * &,bool,0>
_TEXT	ENDS
; Function compile flags: /Odtp /ZI
; File C:\Program Files (x86)\Microsoft Visual Studio\2019\Community\VC\Tools\MSVC\14.27.29110\include\xmemory
;	COMDAT ?_Extract@?$_In_place_key_extract_map@KU?$pair@KK@std@@@std@@SAABKABU?$pair@KK@2@@Z
_TEXT	SEGMENT
__Val$ = 8						; size = 4
?_Extract@?$_In_place_key_extract_map@KU?$pair@KK@std@@@std@@SAABKABU?$pair@KK@2@@Z PROC ; std::_In_place_key_extract_map<unsigned long,std::pair<unsigned long,unsigned long> >::_Extract, COMDAT

; 1961 :     static const _Key& _Extract(const pair<_First, _Second>& _Val) {

  00000	55		 push	 ebp
  00001	8b ec		 mov	 ebp, esp
  00003	83 ec 40	 sub	 esp, 64			; 00000040H
  00006	53		 push	 ebx
  00007	56		 push	 esi
  00008	57		 push	 edi

; 1962 :         return _Val.first;

  00009	8b 45 08	 mov	 eax, DWORD PTR __Val$[ebp]

; 1963 :     }

  0000c	5f		 pop	 edi
  0000d	5e		 pop	 esi
  0000e	5b		 pop	 ebx
  0000f	8b e5		 mov	 esp, ebp
  00011	5d		 pop	 ebp
  00012	c3		 ret	 0
?_Extract@?$_In_place_key_extract_map@KU?$pair@KK@std@@@std@@SAABKABU?$pair@KK@2@@Z ENDP ; std::_In_place_key_extract_map<unsigned long,std::pair<unsigned long,unsigned long> >::_Extract
_TEXT	ENDS
; Function compile flags: /Odtp /ZI
; File C:\Program Files (x86)\Microsoft Visual Studio\2019\Community\VC\Tools\MSVC\14.27.29110\include\type_traits
;	COMDAT ??$forward@ABQAU?$_Tree_node@U?$pair@$$CBKK@std@@PAX@std@@@std@@YAABQAU?$_Tree_node@U?$pair@$$CBKK@std@@PAX@0@ABQAU10@@Z
_TEXT	SEGMENT
__Arg$ = 8						; size = 4
??$forward@ABQAU?$_Tree_node@U?$pair@$$CBKK@std@@PAX@std@@@std@@YAABQAU?$_Tree_node@U?$pair@$$CBKK@std@@PAX@0@ABQAU10@@Z PROC ; std::forward<std::_Tree_node<std::pair<unsigned long const ,unsigned long>,void *> * const &>, COMDAT

; 1454 :     remove_reference_t<_Ty>& _Arg) noexcept { // forward an lvalue as either an lvalue or an rvalue

  00000	55		 push	 ebp
  00001	8b ec		 mov	 ebp, esp
  00003	83 ec 40	 sub	 esp, 64			; 00000040H
  00006	53		 push	 ebx
  00007	56		 push	 esi
  00008	57		 push	 edi

; 1455 :     return static_cast<_Ty&&>(_Arg);

  00009	8b 45 08	 mov	 eax, DWORD PTR __Arg$[ebp]

; 1456 : }

  0000c	5f		 pop	 edi
  0000d	5e		 pop	 esi
  0000e	5b		 pop	 ebx
  0000f	8b e5		 mov	 esp, ebp
  00011	5d		 pop	 ebp
  00012	c3		 ret	 0
??$forward@ABQAU?$_Tree_node@U?$pair@$$CBKK@std@@PAX@std@@@std@@YAABQAU?$_Tree_node@U?$pair@$$CBKK@std@@PAX@0@ABQAU10@@Z ENDP ; std::forward<std::_Tree_node<std::pair<unsigned long const ,unsigned long>,void *> * const &>
_TEXT	ENDS
; Function compile flags: /Odtp /ZI
; File C:\Program Files (x86)\Microsoft Visual Studio\2019\Community\VC\Tools\MSVC\14.27.29110\include\xstddef
;	COMDAT ??$addressof@PAU?$_Tree_node@U?$pair@$$CBKK@std@@PAX@std@@@std@@YAPAPAU?$_Tree_node@U?$pair@$$CBKK@std@@PAX@0@AAPAU10@@Z
_TEXT	SEGMENT
__Val$ = 8						; size = 4
??$addressof@PAU?$_Tree_node@U?$pair@$$CBKK@std@@PAX@std@@@std@@YAPAPAU?$_Tree_node@U?$pair@$$CBKK@std@@PAX@0@AAPAU10@@Z PROC ; std::addressof<std::_Tree_node<std::pair<unsigned long const ,unsigned long>,void *> *>, COMDAT

; 274  : _NODISCARD constexpr _Ty* addressof(_Ty& _Val) noexcept {

  00000	55		 push	 ebp
  00001	8b ec		 mov	 ebp, esp
  00003	83 ec 40	 sub	 esp, 64			; 00000040H
  00006	53		 push	 ebx
  00007	56		 push	 esi
  00008	57		 push	 edi

; 275  :     return __builtin_addressof(_Val);

  00009	8b 45 08	 mov	 eax, DWORD PTR __Val$[ebp]

; 276  : }

  0000c	5f		 pop	 edi
  0000d	5e		 pop	 esi
  0000e	5b		 pop	 ebx
  0000f	8b e5		 mov	 esp, ebp
  00011	5d		 pop	 ebp
  00012	c3		 ret	 0
??$addressof@PAU?$_Tree_node@U?$pair@$$CBKK@std@@PAX@std@@@std@@YAPAPAU?$_Tree_node@U?$pair@$$CBKK@std@@PAX@0@AAPAU10@@Z ENDP ; std::addressof<std::_Tree_node<std::pair<unsigned long const ,unsigned long>,void *> *>
_TEXT	ENDS
; Function compile flags: /Odtp /ZI
; File C:\Program Files (x86)\Microsoft Visual Studio\2019\Community\VC\Tools\MSVC\14.27.29110\include\xmemory
;	COMDAT ??$_Destroy_in_place@PAU?$_Tree_node@U?$pair@$$CBKK@std@@PAX@std@@@std@@YAXAAPAU?$_Tree_node@U?$pair@$$CBKK@std@@PAX@0@@Z
_TEXT	SEGMENT
__Obj$ = 8						; size = 4
??$_Destroy_in_place@PAU?$_Tree_node@U?$pair@$$CBKK@std@@PAX@std@@@std@@YAXAAPAU?$_Tree_node@U?$pair@$$CBKK@std@@PAX@0@@Z PROC ; std::_Destroy_in_place<std::_Tree_node<std::pair<unsigned long const ,unsigned long>,void *> *>, COMDAT

; 267  : void _Destroy_in_place(_Ty& _Obj) noexcept {

  00000	55		 push	 ebp
  00001	8b ec		 mov	 ebp, esp
  00003	83 ec 40	 sub	 esp, 64			; 00000040H
  00006	53		 push	 ebx
  00007	56		 push	 esi
  00008	57		 push	 edi

; 268  :     _Obj.~_Ty();
; 269  : }

  00009	5f		 pop	 edi
  0000a	5e		 pop	 esi
  0000b	5b		 pop	 ebx
  0000c	8b e5		 mov	 esp, ebp
  0000e	5d		 pop	 ebp
  0000f	c3		 ret	 0
??$_Destroy_in_place@PAU?$_Tree_node@U?$pair@$$CBKK@std@@PAX@std@@@std@@YAXAAPAU?$_Tree_node@U?$pair@$$CBKK@std@@PAX@0@@Z ENDP ; std::_Destroy_in_place<std::_Tree_node<std::pair<unsigned long const ,unsigned long>,void *> *>
_TEXT	ENDS
; Function compile flags: /Odtp /ZI
; File C:\Program Files (x86)\Microsoft Visual Studio\2019\Community\VC\Tools\MSVC\14.27.29110\include\xmemory
;	COMDAT ??$destroy@U?$pair@$$CBKK@std@@@?$_Default_allocator_traits@V?$allocator@U?$_Tree_node@U?$pair@$$CBKK@std@@PAX@std@@@std@@@std@@SAXAAV?$allocator@U?$_Tree_node@U?$pair@$$CBKK@std@@PAX@std@@@1@QAU?$pair@$$CBKK@1@@Z
_TEXT	SEGMENT
___formal$ = 8						; size = 4
__Ptr$ = 12						; size = 4
??$destroy@U?$pair@$$CBKK@std@@@?$_Default_allocator_traits@V?$allocator@U?$_Tree_node@U?$pair@$$CBKK@std@@PAX@std@@@std@@@std@@SAXAAV?$allocator@U?$_Tree_node@U?$pair@$$CBKK@std@@PAX@std@@@1@QAU?$pair@$$CBKK@1@@Z PROC ; std::_Default_allocator_traits<std::allocator<std::_Tree_node<std::pair<unsigned long const ,unsigned long>,void *> > >::destroy<std::pair<unsigned long const ,unsigned long> >, COMDAT

; 698  :     static void destroy(_Alloc&, _Uty* const _Ptr) {

  00000	55		 push	 ebp
  00001	8b ec		 mov	 ebp, esp
  00003	83 ec 40	 sub	 esp, 64			; 00000040H
  00006	53		 push	 ebx
  00007	56		 push	 esi
  00008	57		 push	 edi

; 699  :         _Ptr->~_Uty();
; 700  :     }

  00009	5f		 pop	 edi
  0000a	5e		 pop	 esi
  0000b	5b		 pop	 ebx
  0000c	8b e5		 mov	 esp, ebp
  0000e	5d		 pop	 ebp
  0000f	c3		 ret	 0
??$destroy@U?$pair@$$CBKK@std@@@?$_Default_allocator_traits@V?$allocator@U?$_Tree_node@U?$pair@$$CBKK@std@@PAX@std@@@std@@@std@@SAXAAV?$allocator@U?$_Tree_node@U?$pair@$$CBKK@std@@PAX@std@@@1@QAU?$pair@$$CBKK@1@@Z ENDP ; std::_Default_allocator_traits<std::allocator<std::_Tree_node<std::pair<unsigned long const ,unsigned long>,void *> > >::destroy<std::pair<unsigned long const ,unsigned long> >
_TEXT	ENDS
; Function compile flags: /Odtp /ZI
; File C:\Program Files (x86)\Microsoft Visual Studio\2019\Community\VC\Tools\MSVC\14.27.29110\include\utility
;	COMDAT ??$?0V?$_Tree_iterator@V?$_Tree_val@U?$_Tree_simple_types@U?$pair@$$CBKK@std@@@std@@@std@@@std@@AB_N$0A@@?$pair@V?$_Tree_iterator@V?$_Tree_val@U?$_Tree_simple_types@U?$pair@$$CBKK@std@@@std@@@std@@@std@@_N@std@@QAE@$$QAV?$_Tree_iterator@V?$_Tree_val@U?$_Tree_simple_types@U?$pair@$$CBKK@std@@@std@@@std@@@1@AB_N@Z
_TEXT	SEGMENT
_this$ = -4						; size = 4
__Val1$ = 8						; size = 4
__Val2$ = 12						; size = 4
??$?0V?$_Tree_iterator@V?$_Tree_val@U?$_Tree_simple_types@U?$pair@$$CBKK@std@@@std@@@std@@@std@@AB_N$0A@@?$pair@V?$_Tree_iterator@V?$_Tree_val@U?$_Tree_simple_types@U?$pair@$$CBKK@std@@@std@@@std@@@std@@_N@std@@QAE@$$QAV?$_Tree_iterator@V?$_Tree_val@U?$_Tree_simple_types@U?$pair@$$CBKK@std@@@std@@@std@@@1@AB_N@Z PROC ; std::pair<std::_Tree_iterator<std::_Tree_val<std::_Tree_simple_types<std::pair<unsigned long const ,unsigned long> > > >,bool>::pair<std::_Tree_iterator<std::_Tree_val<std::_Tree_simple_types<std::pair<unsigned long const ,unsigned long> > > >,bool><std::_Tree_iterator<std::_Tree_val<std::_Tree_simple_types<std::pair<unsigned long const ,unsigned long> > > >,bool const &,0>, COMDAT
; _this$ = ecx

; 192  :         : first(_STD forward<_Other1>(_Val1)), second(_STD forward<_Other2>(_Val2)) {}

  00000	55		 push	 ebp
  00001	8b ec		 mov	 ebp, esp
  00003	83 ec 44	 sub	 esp, 68			; 00000044H
  00006	53		 push	 ebx
  00007	56		 push	 esi
  00008	57		 push	 edi
  00009	89 4d fc	 mov	 DWORD PTR _this$[ebp], ecx
  0000c	8b 45 08	 mov	 eax, DWORD PTR __Val1$[ebp]
  0000f	50		 push	 eax
  00010	e8 00 00 00 00	 call	 ??$forward@V?$_Tree_iterator@V?$_Tree_val@U?$_Tree_simple_types@U?$pair@$$CBKK@std@@@std@@@std@@@std@@@std@@YA$$QAV?$_Tree_iterator@V?$_Tree_val@U?$_Tree_simple_types@U?$pair@$$CBKK@std@@@std@@@std@@@0@AAV10@@Z ; std::forward<std::_Tree_iterator<std::_Tree_val<std::_Tree_simple_types<std::pair<unsigned long const ,unsigned long> > > > >
  00015	83 c4 04	 add	 esp, 4
  00018	8b 08		 mov	 ecx, DWORD PTR [eax]
  0001a	8b 55 fc	 mov	 edx, DWORD PTR _this$[ebp]
  0001d	89 0a		 mov	 DWORD PTR [edx], ecx
  0001f	8b 45 0c	 mov	 eax, DWORD PTR __Val2$[ebp]
  00022	50		 push	 eax
  00023	e8 00 00 00 00	 call	 ??$forward@AB_N@std@@YAAB_NAB_N@Z ; std::forward<bool const &>
  00028	83 c4 04	 add	 esp, 4
  0002b	8b 4d fc	 mov	 ecx, DWORD PTR _this$[ebp]
  0002e	8a 10		 mov	 dl, BYTE PTR [eax]
  00030	88 51 04	 mov	 BYTE PTR [ecx+4], dl
  00033	8b 45 fc	 mov	 eax, DWORD PTR _this$[ebp]
  00036	5f		 pop	 edi
  00037	5e		 pop	 esi
  00038	5b		 pop	 ebx
  00039	8b e5		 mov	 esp, ebp
  0003b	5d		 pop	 ebp
  0003c	c2 08 00	 ret	 8
??$?0V?$_Tree_iterator@V?$_Tree_val@U?$_Tree_simple_types@U?$pair@$$CBKK@std@@@std@@@std@@@std@@AB_N$0A@@?$pair@V?$_Tree_iterator@V?$_Tree_val@U?$_Tree_simple_types@U?$pair@$$CBKK@std@@@std@@@std@@@std@@_N@std@@QAE@$$QAV?$_Tree_iterator@V?$_Tree_val@U?$_Tree_simple_types@U?$pair@$$CBKK@std@@@std@@@std@@@1@AB_N@Z ENDP ; std::pair<std::_Tree_iterator<std::_Tree_val<std::_Tree_simple_types<std::pair<unsigned long const ,unsigned long> > > >,bool>::pair<std::_Tree_iterator<std::_Tree_val<std::_Tree_simple_types<std::pair<unsigned long const ,unsigned long> > > >,bool><std::_Tree_iterator<std::_Tree_val<std::_Tree_simple_types<std::pair<unsigned long const ,unsigned long> > > >,bool const &,0>
_TEXT	ENDS
; Function compile flags: /Odtp /ZI
; File C:\Program Files (x86)\Microsoft Visual Studio\2019\Community\VC\Tools\MSVC\14.27.29110\include\xtree
;	COMDAT ??$_Emplace@U?$pair@KK@std@@@?$_Tree@V?$_Tmap_traits@KKU?$less@K@std@@V?$allocator@U?$pair@$$CBKK@std@@@2@$0A@@std@@@std@@IAE?AU?$pair@PAU?$_Tree_node@U?$pair@$$CBKK@std@@PAX@std@@_N@1@$$QAU?$pair@KK@1@@Z
_TEXT	SEGMENT
tv141 = -128						; size = 4
$T1 = -124						; size = 4
$T2 = -117						; size = 1
$T3 = -116						; size = 8
$T4 = -105						; size = 1
$T5 = -104						; size = 12
__Keyval$6 = -28					; size = 4
__Inserted$ = -24					; size = 4
__Loc$ = -20						; size = 12
__Scary$ = -8						; size = 4
_this$ = -4						; size = 4
___$ReturnUdt$ = 8					; size = 4
_<_Vals_0>$ = 12					; size = 4
??$_Emplace@U?$pair@KK@std@@@?$_Tree@V?$_Tmap_traits@KKU?$less@K@std@@V?$allocator@U?$pair@$$CBKK@std@@@2@$0A@@std@@@std@@IAE?AU?$pair@PAU?$_Tree_node@U?$pair@$$CBKK@std@@PAX@std@@_N@1@$$QAU?$pair@KK@1@@Z PROC ; std::_Tree<std::_Tmap_traits<unsigned long,unsigned long,std::less<unsigned long>,std::allocator<std::pair<unsigned long const ,unsigned long> >,0> >::_Emplace<std::pair<unsigned long,unsigned long> >, COMDAT
; _this$ = ecx

; 1002 :     pair<_Nodeptr, bool> _Emplace(_Valtys&&... _Vals) {

  00000	55		 push	 ebp
  00001	8b ec		 mov	 ebp, esp
  00003	81 ec 80 00 00
	00		 sub	 esp, 128		; 00000080H
  00009	53		 push	 ebx
  0000a	56		 push	 esi
  0000b	57		 push	 edi
  0000c	89 4d fc	 mov	 DWORD PTR _this$[ebp], ecx

; 1003 :         using _In_place_key_extractor = typename _Traits::template _In_place_key_extractor<_Remove_cvref_t<_Valtys>...>;
; 1004 :         const auto _Scary             = _Get_scary();

  0000f	8b 4d fc	 mov	 ecx, DWORD PTR _this$[ebp]
  00012	e8 00 00 00 00	 call	 ?_Get_scary@?$_Tree@V?$_Tmap_traits@KKU?$less@K@std@@V?$allocator@U?$pair@$$CBKK@std@@@2@$0A@@std@@@std@@IAEPAV?$_Tree_val@U?$_Tree_simple_types@U?$pair@$$CBKK@std@@@std@@@2@XZ ; std::_Tree<std::_Tmap_traits<unsigned long,unsigned long,std::less<unsigned long>,std::allocator<std::pair<unsigned long const ,unsigned long> >,0> >::_Get_scary
  00017	89 45 f8	 mov	 DWORD PTR __Scary$[ebp], eax

; 1005 :         _Tree_find_result<_Nodeptr> _Loc;
; 1006 :         _Nodeptr _Inserted;
; 1007 :         if constexpr (!_Multi && _In_place_key_extractor::_Extractable) {
; 1008 :             const auto& _Keyval = _In_place_key_extractor::_Extract(_Vals...);

  0001a	8b 45 0c	 mov	 eax, DWORD PTR _<_Vals_0>$[ebp]
  0001d	50		 push	 eax
  0001e	e8 00 00 00 00	 call	 ?_Extract@?$_In_place_key_extract_map@KU?$pair@KK@std@@@std@@SAABKABU?$pair@KK@2@@Z ; std::_In_place_key_extract_map<unsigned long,std::pair<unsigned long,unsigned long> >::_Extract
  00023	83 c4 04	 add	 esp, 4
  00026	89 45 e4	 mov	 DWORD PTR __Keyval$6[ebp], eax

; 1009 :             _Loc                = _Find_lower_bound(_Keyval);

  00029	8b 45 e4	 mov	 eax, DWORD PTR __Keyval$6[ebp]
  0002c	50		 push	 eax
  0002d	8d 4d 98	 lea	 ecx, DWORD PTR $T5[ebp]
  00030	51		 push	 ecx
  00031	8b 4d fc	 mov	 ecx, DWORD PTR _this$[ebp]
  00034	e8 00 00 00 00	 call	 ??$_Find_lower_bound@K@?$_Tree@V?$_Tmap_traits@KKU?$less@K@std@@V?$allocator@U?$pair@$$CBKK@std@@@2@$0A@@std@@@std@@IBE?AU?$_Tree_find_result@PAU?$_Tree_node@U?$pair@$$CBKK@std@@PAX@std@@@1@ABK@Z ; std::_Tree<std::_Tmap_traits<unsigned long,unsigned long,std::less<unsigned long>,std::allocator<std::pair<unsigned long const ,unsigned long> >,0> >::_Find_lower_bound<unsigned long>
  00039	8b 10		 mov	 edx, DWORD PTR [eax]
  0003b	89 55 ec	 mov	 DWORD PTR __Loc$[ebp], edx
  0003e	8b 48 04	 mov	 ecx, DWORD PTR [eax+4]
  00041	89 4d f0	 mov	 DWORD PTR __Loc$[ebp+4], ecx
  00044	8b 50 08	 mov	 edx, DWORD PTR [eax+8]
  00047	89 55 f4	 mov	 DWORD PTR __Loc$[ebp+8], edx

; 1010 :             if (_Lower_bound_duplicate(_Loc._Bound, _Keyval)) {

  0004a	8b 45 e4	 mov	 eax, DWORD PTR __Keyval$6[ebp]
  0004d	50		 push	 eax
  0004e	8b 4d f4	 mov	 ecx, DWORD PTR __Loc$[ebp+8]
  00051	51		 push	 ecx
  00052	8b 4d fc	 mov	 ecx, DWORD PTR _this$[ebp]
  00055	e8 00 00 00 00	 call	 ??$_Lower_bound_duplicate@K@?$_Tree@V?$_Tmap_traits@KKU?$less@K@std@@V?$allocator@U?$pair@$$CBKK@std@@@2@$0A@@std@@@std@@IBE_NQAU?$_Tree_node@U?$pair@$$CBKK@std@@PAX@1@ABK@Z ; std::_Tree<std::_Tmap_traits<unsigned long,unsigned long,std::less<unsigned long>,std::allocator<std::pair<unsigned long const ,unsigned long> >,0> >::_Lower_bound_duplicate<unsigned long>
  0005a	0f b6 d0	 movzx	 edx, al
  0005d	85 d2		 test	 edx, edx
  0005f	74 19		 je	 SHORT $LN2@Emplace

; 1011 :                 return {_Loc._Bound, false};

  00061	c6 45 97 00	 mov	 BYTE PTR $T4[ebp], 0
  00065	8d 45 97	 lea	 eax, DWORD PTR $T4[ebp]
  00068	50		 push	 eax
  00069	8d 4d f4	 lea	 ecx, DWORD PTR __Loc$[ebp+8]
  0006c	51		 push	 ecx
  0006d	8b 4d 08	 mov	 ecx, DWORD PTR ___$ReturnUdt$[ebp]
  00070	e8 00 00 00 00	 call	 ??$?0AAPAU?$_Tree_node@U?$pair@$$CBKK@std@@PAX@std@@_N$0A@@?$pair@PAU?$_Tree_node@U?$pair@$$CBKK@std@@PAX@std@@_N@std@@QAE@AAPAU?$_Tree_node@U?$pair@$$CBKK@std@@PAX@1@$$QA_N@Z ; std::pair<std::_Tree_node<std::pair<unsigned long const ,unsigned long>,void *> *,bool>::pair<std::_Tree_node<std::pair<unsigned long const ,unsigned long>,void *> *,bool><std::_Tree_node<std::pair<unsigned long const ,unsigned long>,void *> * &,bool,0>
  00075	8b 45 08	 mov	 eax, DWORD PTR ___$ReturnUdt$[ebp]
  00078	eb 70		 jmp	 SHORT $LN1@Emplace
$LN2@Emplace:

; 1012 :             }
; 1013 : 
; 1014 :             _Check_grow_by_1();

  0007a	8b 4d fc	 mov	 ecx, DWORD PTR _this$[ebp]
  0007d	e8 00 00 00 00	 call	 ?_Check_grow_by_1@?$_Tree@V?$_Tmap_traits@KKU?$less@K@std@@V?$allocator@U?$pair@$$CBKK@std@@@2@$0A@@std@@@std@@IAEXXZ ; std::_Tree<std::_Tmap_traits<unsigned long,unsigned long,std::less<unsigned long>,std::allocator<std::pair<unsigned long const ,unsigned long> >,0> >::_Check_grow_by_1

; 1015 :             _Inserted = _Tree_temp_node<_Alnode>(_Getal(), _Scary->_Myhead, _STD forward<_Valtys>(_Vals)...)._Release();

  00082	8b 45 0c	 mov	 eax, DWORD PTR _<_Vals_0>$[ebp]
  00085	50		 push	 eax
  00086	e8 00 00 00 00	 call	 ??$forward@U?$pair@KK@std@@@std@@YA$$QAU?$pair@KK@0@AAU10@@Z ; std::forward<std::pair<unsigned long,unsigned long> >
  0008b	83 c4 04	 add	 esp, 4
  0008e	50		 push	 eax
  0008f	8b 4d f8	 mov	 ecx, DWORD PTR __Scary$[ebp]
  00092	8b 11		 mov	 edx, DWORD PTR [ecx]
  00094	52		 push	 edx
  00095	8b 4d fc	 mov	 ecx, DWORD PTR _this$[ebp]
  00098	e8 00 00 00 00	 call	 ?_Getal@?$_Tree@V?$_Tmap_traits@KKU?$less@K@std@@V?$allocator@U?$pair@$$CBKK@std@@@2@$0A@@std@@@std@@IAEAAV?$allocator@U?$_Tree_node@U?$pair@$$CBKK@std@@PAX@std@@@2@XZ ; std::_Tree<std::_Tmap_traits<unsigned long,unsigned long,std::less<unsigned long>,std::allocator<std::pair<unsigned long const ,unsigned long> >,0> >::_Getal
  0009d	50		 push	 eax
  0009e	8d 4d 8c	 lea	 ecx, DWORD PTR $T3[ebp]
  000a1	e8 00 00 00 00	 call	 ??$?0U?$pair@KK@std@@@?$_Tree_temp_node@V?$allocator@U?$_Tree_node@U?$pair@$$CBKK@std@@PAX@std@@@std@@@std@@QAE@AAV?$allocator@U?$_Tree_node@U?$pair@$$CBKK@std@@PAX@std@@@1@PAU?$_Tree_node@U?$pair@$$CBKK@std@@PAX@1@$$QAU?$pair@KK@1@@Z ; std::_Tree_temp_node<std::allocator<std::_Tree_node<std::pair<unsigned long const ,unsigned long>,void *> > >::_Tree_temp_node<std::allocator<std::_Tree_node<std::pair<unsigned long const ,unsigned long>,void *> > ><std::pair<unsigned long,unsigned long> >
  000a6	89 45 80	 mov	 DWORD PTR tv141[ebp], eax
  000a9	8b 4d 80	 mov	 ecx, DWORD PTR tv141[ebp]
  000ac	e8 00 00 00 00	 call	 ?_Release@?$_Alloc_construct_ptr@V?$allocator@U?$_Tree_node@U?$pair@$$CBKK@std@@PAX@std@@@std@@@std@@QAEPAU?$_Tree_node@U?$pair@$$CBKK@std@@PAX@2@XZ ; std::_Alloc_construct_ptr<std::allocator<std::_Tree_node<std::pair<unsigned long const ,unsigned long>,void *> > >::_Release
  000b1	89 45 e8	 mov	 DWORD PTR __Inserted$[ebp], eax
  000b4	8d 4d 8c	 lea	 ecx, DWORD PTR $T3[ebp]
  000b7	e8 00 00 00 00	 call	 ??1?$_Tree_temp_node@V?$allocator@U?$_Tree_node@U?$pair@$$CBKK@std@@PAX@std@@@std@@@std@@QAE@XZ ; std::_Tree_temp_node<std::allocator<std::_Tree_node<std::pair<unsigned long const ,unsigned long>,void *> > >::~_Tree_temp_node<std::allocator<std::_Tree_node<std::pair<unsigned long const ,unsigned long>,void *> > >

; 1016 :             // nothrow hereafter
; 1017 :         } else {
; 1018 :             _Tree_temp_node<_Alnode> _Newnode(_Getal(), _Scary->_Myhead, _STD forward<_Valtys>(_Vals)...);
; 1019 :             const auto& _Keyval = _Traits::_Kfn(_Newnode._Ptr->_Myval);
; 1020 :             if constexpr (_Multi) { // duplicate check if unique
; 1021 :                 _Loc = _Find_upper_bound(_Keyval);
; 1022 :             } else {
; 1023 :                 _Loc = _Find_lower_bound(_Keyval);
; 1024 :                 if (_Lower_bound_duplicate(_Loc._Bound, _Keyval)) {
; 1025 :                     return {_Loc._Bound, false};
; 1026 :                 }
; 1027 :             }
; 1028 : 
; 1029 :             _Check_grow_by_1();
; 1030 :             // nothrow hereafter
; 1031 :             _Inserted = _Newnode._Release();
; 1032 :         }
; 1033 : 
; 1034 :         return {_Scary->_Insert_node(_Loc._Location, _Inserted), true};

  000bc	8b 45 e8	 mov	 eax, DWORD PTR __Inserted$[ebp]
  000bf	50		 push	 eax
  000c0	8b 4d f0	 mov	 ecx, DWORD PTR __Loc$[ebp+4]
  000c3	51		 push	 ecx
  000c4	8b 55 ec	 mov	 edx, DWORD PTR __Loc$[ebp]
  000c7	52		 push	 edx
  000c8	8b 4d f8	 mov	 ecx, DWORD PTR __Scary$[ebp]
  000cb	e8 00 00 00 00	 call	 ?_Insert_node@?$_Tree_val@U?$_Tree_simple_types@U?$pair@$$CBKK@std@@@std@@@std@@QAEPAU?$_Tree_node@U?$pair@$$CBKK@std@@PAX@2@U?$_Tree_id@PAU?$_Tree_node@U?$pair@$$CBKK@std@@PAX@std@@@2@QAU32@@Z ; std::_Tree_val<std::_Tree_simple_types<std::pair<unsigned long const ,unsigned long> > >::_Insert_node
  000d0	89 45 84	 mov	 DWORD PTR $T1[ebp], eax
  000d3	c6 45 8b 01	 mov	 BYTE PTR $T2[ebp], 1
  000d7	8d 45 8b	 lea	 eax, DWORD PTR $T2[ebp]
  000da	50		 push	 eax
  000db	8d 4d 84	 lea	 ecx, DWORD PTR $T1[ebp]
  000de	51		 push	 ecx
  000df	8b 4d 08	 mov	 ecx, DWORD PTR ___$ReturnUdt$[ebp]
  000e2	e8 00 00 00 00	 call	 ??$?0PAU?$_Tree_node@U?$pair@$$CBKK@std@@PAX@std@@_N$0A@@?$pair@PAU?$_Tree_node@U?$pair@$$CBKK@std@@PAX@std@@_N@std@@QAE@$$QAPAU?$_Tree_node@U?$pair@$$CBKK@std@@PAX@1@$$QA_N@Z ; std::pair<std::_Tree_node<std::pair<unsigned long const ,unsigned long>,void *> *,bool>::pair<std::_Tree_node<std::pair<unsigned long const ,unsigned long>,void *> *,bool><std::_Tree_node<std::pair<unsigned long const ,unsigned long>,void *> *,bool,0>
  000e7	8b 45 08	 mov	 eax, DWORD PTR ___$ReturnUdt$[ebp]
$LN1@Emplace:

; 1035 :     }

  000ea	5f		 pop	 edi
  000eb	5e		 pop	 esi
  000ec	5b		 pop	 ebx
  000ed	8b e5		 mov	 esp, ebp
  000ef	5d		 pop	 ebp
  000f0	c2 08 00	 ret	 8
??$_Emplace@U?$pair@KK@std@@@?$_Tree@V?$_Tmap_traits@KKU?$less@K@std@@V?$allocator@U?$pair@$$CBKK@std@@@2@$0A@@std@@@std@@IAE?AU?$pair@PAU?$_Tree_node@U?$pair@$$CBKK@std@@PAX@std@@_N@1@$$QAU?$pair@KK@1@@Z ENDP ; std::_Tree<std::_Tmap_traits<unsigned long,unsigned long,std::less<unsigned long>,std::allocator<std::pair<unsigned long const ,unsigned long> >,0> >::_Emplace<std::pair<unsigned long,unsigned long> >
_TEXT	ENDS
; Function compile flags: /Odtp /ZI
; File C:\Program Files (x86)\Microsoft Visual Studio\2019\Community\VC\Tools\MSVC\14.27.29110\include\xmemory
;	COMDAT ??$_Get_size_of_n@$0BI@@std@@YAII@Z
_TEXT	SEGMENT
__Max_possible$1 = -8					; size = 4
__Overflow_is_possible$ = -1				; size = 1
__Count$ = 8						; size = 4
??$_Get_size_of_n@$0BI@@std@@YAII@Z PROC		; std::_Get_size_of_n<24>, COMDAT

; 55   : _NODISCARD constexpr size_t _Get_size_of_n(const size_t _Count) {

  00000	55		 push	 ebp
  00001	8b ec		 mov	 ebp, esp
  00003	83 ec 48	 sub	 esp, 72			; 00000048H
  00006	53		 push	 ebx
  00007	56		 push	 esi
  00008	57		 push	 edi

; 56   :     constexpr bool _Overflow_is_possible = _Ty_size > 1;

  00009	c6 45 ff 01	 mov	 BYTE PTR __Overflow_is_possible$[ebp], 1

; 57   : 
; 58   :     if _CONSTEXPR_IF (_Overflow_is_possible) {
; 59   :         constexpr size_t _Max_possible = static_cast<size_t>(-1) / _Ty_size;

  0000d	c7 45 f8 aa aa
	aa 0a		 mov	 DWORD PTR __Max_possible$1[ebp], 178956970 ; 0aaaaaaaH

; 60   :         if (_Count > _Max_possible) {

  00014	81 7d 08 aa aa
	aa 0a		 cmp	 DWORD PTR __Count$[ebp], 178956970 ; 0aaaaaaaH
  0001b	76 05		 jbe	 SHORT $LN2@Get_size_o

; 61   :             _Throw_bad_array_new_length(); // multiply overflow

  0001d	e8 00 00 00 00	 call	 ?_Throw_bad_array_new_length@std@@YAXXZ ; std::_Throw_bad_array_new_length
$LN2@Get_size_o:

; 62   :         }
; 63   :     }
; 64   : 
; 65   :     return _Count * _Ty_size;

  00022	6b 45 08 18	 imul	 eax, DWORD PTR __Count$[ebp], 24
$LN3@Get_size_o:

; 66   : }

  00026	5f		 pop	 edi
  00027	5e		 pop	 esi
  00028	5b		 pop	 ebx
  00029	8b e5		 mov	 esp, ebp
  0002b	5d		 pop	 ebp
  0002c	c3		 ret	 0
??$_Get_size_of_n@$0BI@@std@@YAII@Z ENDP		; std::_Get_size_of_n<24>
_TEXT	ENDS
; Function compile flags: /Odtp /ZI
; File C:\Program Files (x86)\Microsoft Visual Studio\2019\Community\VC\Tools\MSVC\14.27.29110\include\xmemory
;	COMDAT ??$_Construct_in_place@PAU?$_Tree_node@U?$pair@$$CBKK@std@@PAX@std@@ABQAU12@@std@@YAXAAPAU?$_Tree_node@U?$pair@$$CBKK@std@@PAX@0@ABQAU10@@Z
_TEXT	SEGMENT
$T1 = -68						; size = 4
__Obj$ = 8						; size = 4
_<_Args_0>$ = 12					; size = 4
??$_Construct_in_place@PAU?$_Tree_node@U?$pair@$$CBKK@std@@PAX@std@@ABQAU12@@std@@YAXAAPAU?$_Tree_node@U?$pair@$$CBKK@std@@PAX@0@ABQAU10@@Z PROC ; std::_Construct_in_place<std::_Tree_node<std::pair<unsigned long const ,unsigned long>,void *> *,std::_Tree_node<std::pair<unsigned long const ,unsigned long>,void *> * const &>, COMDAT

; 228  : void _Construct_in_place(_Ty& _Obj, _Types&&... _Args) noexcept(is_nothrow_constructible_v<_Ty, _Types...>) {

  00000	55		 push	 ebp
  00001	8b ec		 mov	 ebp, esp
  00003	83 ec 44	 sub	 esp, 68			; 00000044H
  00006	53		 push	 ebx
  00007	56		 push	 esi
  00008	57		 push	 edi

; 229  :     ::new (const_cast<void*>(static_cast<const volatile void*>(_STD addressof(_Obj))))

  00009	8b 45 08	 mov	 eax, DWORD PTR __Obj$[ebp]
  0000c	50		 push	 eax
  0000d	e8 00 00 00 00	 call	 ??$addressof@PAU?$_Tree_node@U?$pair@$$CBKK@std@@PAX@std@@@std@@YAPAPAU?$_Tree_node@U?$pair@$$CBKK@std@@PAX@0@AAPAU10@@Z ; std::addressof<std::_Tree_node<std::pair<unsigned long const ,unsigned long>,void *> *>
  00012	83 c4 04	 add	 esp, 4
  00015	50		 push	 eax
  00016	6a 04		 push	 4
  00018	e8 00 00 00 00	 call	 ??2@YAPAXIPAX@Z		; operator new
  0001d	83 c4 08	 add	 esp, 8
  00020	89 45 bc	 mov	 DWORD PTR $T1[ebp], eax
  00023	8b 4d 0c	 mov	 ecx, DWORD PTR _<_Args_0>$[ebp]
  00026	51		 push	 ecx
  00027	e8 00 00 00 00	 call	 ??$forward@ABQAU?$_Tree_node@U?$pair@$$CBKK@std@@PAX@std@@@std@@YAABQAU?$_Tree_node@U?$pair@$$CBKK@std@@PAX@0@ABQAU10@@Z ; std::forward<std::_Tree_node<std::pair<unsigned long const ,unsigned long>,void *> * const &>
  0002c	83 c4 04	 add	 esp, 4
  0002f	8b 55 bc	 mov	 edx, DWORD PTR $T1[ebp]
  00032	8b 00		 mov	 eax, DWORD PTR [eax]
  00034	89 02		 mov	 DWORD PTR [edx], eax

; 230  :         _Ty(_STD forward<_Types>(_Args)...);
; 231  : }

  00036	5f		 pop	 edi
  00037	5e		 pop	 esi
  00038	5b		 pop	 ebx
  00039	8b e5		 mov	 esp, ebp
  0003b	5d		 pop	 ebp
  0003c	c3		 ret	 0
??$_Construct_in_place@PAU?$_Tree_node@U?$pair@$$CBKK@std@@PAX@std@@ABQAU12@@std@@YAXAAPAU?$_Tree_node@U?$pair@$$CBKK@std@@PAX@0@ABQAU10@@Z ENDP ; std::_Construct_in_place<std::_Tree_node<std::pair<unsigned long const ,unsigned long>,void *> *,std::_Tree_node<std::pair<unsigned long const ,unsigned long>,void *> * const &>
_TEXT	ENDS
; Function compile flags: /Odtp /ZI
; File C:\Program Files (x86)\Microsoft Visual Studio\2019\Community\VC\Tools\MSVC\14.27.29110\include\type_traits
;	COMDAT ??$forward@U_Zero_then_variadic_args_t@std@@@std@@YA$$QAU_Zero_then_variadic_args_t@0@AAU10@@Z
_TEXT	SEGMENT
__Arg$ = 8						; size = 4
??$forward@U_Zero_then_variadic_args_t@std@@@std@@YA$$QAU_Zero_then_variadic_args_t@0@AAU10@@Z PROC ; std::forward<std::_Zero_then_variadic_args_t>, COMDAT

; 1454 :     remove_reference_t<_Ty>& _Arg) noexcept { // forward an lvalue as either an lvalue or an rvalue

  00000	55		 push	 ebp
  00001	8b ec		 mov	 ebp, esp
  00003	83 ec 40	 sub	 esp, 64			; 00000040H
  00006	53		 push	 ebx
  00007	56		 push	 esi
  00008	57		 push	 edi

; 1455 :     return static_cast<_Ty&&>(_Arg);

  00009	8b 45 08	 mov	 eax, DWORD PTR __Arg$[ebp]

; 1456 : }

  0000c	5f		 pop	 edi
  0000d	5e		 pop	 esi
  0000e	5b		 pop	 ebx
  0000f	8b e5		 mov	 esp, ebp
  00011	5d		 pop	 ebp
  00012	c3		 ret	 0
??$forward@U_Zero_then_variadic_args_t@std@@@std@@YA$$QAU_Zero_then_variadic_args_t@0@AAU10@@Z ENDP ; std::forward<std::_Zero_then_variadic_args_t>
_TEXT	ENDS
; Function compile flags: /Odtp /ZI
; File C:\Program Files (x86)\Microsoft Visual Studio\2019\Community\VC\Tools\MSVC\14.27.29110\include\type_traits
;	COMDAT ??$forward@ABU?$less@K@std@@@std@@YAABU?$less@K@0@ABU10@@Z
_TEXT	SEGMENT
__Arg$ = 8						; size = 4
??$forward@ABU?$less@K@std@@@std@@YAABU?$less@K@0@ABU10@@Z PROC ; std::forward<std::less<unsigned long> const &>, COMDAT

; 1454 :     remove_reference_t<_Ty>& _Arg) noexcept { // forward an lvalue as either an lvalue or an rvalue

  00000	55		 push	 ebp
  00001	8b ec		 mov	 ebp, esp
  00003	83 ec 40	 sub	 esp, 64			; 00000040H
  00006	53		 push	 ebx
  00007	56		 push	 esi
  00008	57		 push	 edi

; 1455 :     return static_cast<_Ty&&>(_Arg);

  00009	8b 45 08	 mov	 eax, DWORD PTR __Arg$[ebp]

; 1456 : }

  0000c	5f		 pop	 edi
  0000d	5e		 pop	 esi
  0000e	5b		 pop	 ebx
  0000f	8b e5		 mov	 esp, ebp
  00011	5d		 pop	 ebp
  00012	c3		 ret	 0
??$forward@ABU?$less@K@std@@@std@@YAABU?$less@K@0@ABU10@@Z ENDP ; std::forward<std::less<unsigned long> const &>
_TEXT	ENDS
; Function compile flags: /Odtp /ZI
; File C:\Program Files (x86)\Microsoft Visual Studio\2019\Community\VC\Tools\MSVC\14.27.29110\include\xtree
;	COMDAT ??$_Freenode0@V?$allocator@U?$_Tree_node@U?$pair@$$CBKK@std@@PAX@std@@@std@@@?$_Tree_node@U?$pair@$$CBKK@std@@PAX@std@@SAXAAV?$allocator@U?$_Tree_node@U?$pair@$$CBKK@std@@PAX@std@@@1@PAU01@@Z
_TEXT	SEGMENT
__$EHRec$ = -12						; size = 12
__Al$ = 8						; size = 4
__Ptr$ = 12						; size = 4
??$_Freenode0@V?$allocator@U?$_Tree_node@U?$pair@$$CBKK@std@@PAX@std@@@std@@@?$_Tree_node@U?$pair@$$CBKK@std@@PAX@std@@SAXAAV?$allocator@U?$_Tree_node@U?$pair@$$CBKK@std@@PAX@std@@@1@PAU01@@Z PROC ; std::_Tree_node<std::pair<unsigned long const ,unsigned long>,void *>::_Freenode0<std::allocator<std::_Tree_node<std::pair<unsigned long const ,unsigned long>,void *> > >, COMDAT

; 368  :     static void _Freenode0(_Alloc& _Al, _Nodeptr _Ptr) noexcept {

  00000	55		 push	 ebp
  00001	8b ec		 mov	 ebp, esp
  00003	6a ff		 push	 -1
  00005	68 00 00 00 00	 push	 __ehhandler$??$_Freenode0@V?$allocator@U?$_Tree_node@U?$pair@$$CBKK@std@@PAX@std@@@std@@@?$_Tree_node@U?$pair@$$CBKK@std@@PAX@std@@SAXAAV?$allocator@U?$_Tree_node@U?$pair@$$CBKK@std@@PAX@std@@@1@PAU01@@Z
  0000a	64 a1 00 00 00
	00		 mov	 eax, DWORD PTR fs:0
  00010	50		 push	 eax
  00011	83 ec 40	 sub	 esp, 64			; 00000040H
  00014	53		 push	 ebx
  00015	56		 push	 esi
  00016	57		 push	 edi
  00017	a1 00 00 00 00	 mov	 eax, DWORD PTR ___security_cookie
  0001c	33 c5		 xor	 eax, ebp
  0001e	50		 push	 eax
  0001f	8d 45 f4	 lea	 eax, DWORD PTR __$EHRec$[ebp]
  00022	64 a3 00 00 00
	00		 mov	 DWORD PTR fs:0, eax

; 369  :         static_assert(is_same_v<typename _Alloc::value_type, _Tree_node>, "Bad _Freenode0 call");
; 370  :         _Destroy_in_place(_Ptr->_Left);

  00028	8b 45 0c	 mov	 eax, DWORD PTR __Ptr$[ebp]
  0002b	50		 push	 eax
  0002c	e8 00 00 00 00	 call	 ??$_Destroy_in_place@PAU?$_Tree_node@U?$pair@$$CBKK@std@@PAX@std@@@std@@YAXAAPAU?$_Tree_node@U?$pair@$$CBKK@std@@PAX@0@@Z ; std::_Destroy_in_place<std::_Tree_node<std::pair<unsigned long const ,unsigned long>,void *> *>
  00031	83 c4 04	 add	 esp, 4

; 371  :         _Destroy_in_place(_Ptr->_Parent);

  00034	8b 45 0c	 mov	 eax, DWORD PTR __Ptr$[ebp]
  00037	83 c0 04	 add	 eax, 4
  0003a	50		 push	 eax
  0003b	e8 00 00 00 00	 call	 ??$_Destroy_in_place@PAU?$_Tree_node@U?$pair@$$CBKK@std@@PAX@std@@@std@@YAXAAPAU?$_Tree_node@U?$pair@$$CBKK@std@@PAX@0@@Z ; std::_Destroy_in_place<std::_Tree_node<std::pair<unsigned long const ,unsigned long>,void *> *>
  00040	83 c4 04	 add	 esp, 4

; 372  :         _Destroy_in_place(_Ptr->_Right);

  00043	8b 45 0c	 mov	 eax, DWORD PTR __Ptr$[ebp]
  00046	83 c0 08	 add	 eax, 8
  00049	50		 push	 eax
  0004a	e8 00 00 00 00	 call	 ??$_Destroy_in_place@PAU?$_Tree_node@U?$pair@$$CBKK@std@@PAX@std@@@std@@YAXAAPAU?$_Tree_node@U?$pair@$$CBKK@std@@PAX@0@@Z ; std::_Destroy_in_place<std::_Tree_node<std::pair<unsigned long const ,unsigned long>,void *> *>
  0004f	83 c4 04	 add	 esp, 4

; 373  :         allocator_traits<_Alloc>::deallocate(_Al, _Ptr, 1);

  00052	6a 01		 push	 1
  00054	8b 45 0c	 mov	 eax, DWORD PTR __Ptr$[ebp]
  00057	50		 push	 eax
  00058	8b 4d 08	 mov	 ecx, DWORD PTR __Al$[ebp]
  0005b	51		 push	 ecx
  0005c	e8 00 00 00 00	 call	 ?deallocate@?$_Default_allocator_traits@V?$allocator@U?$_Tree_node@U?$pair@$$CBKK@std@@PAX@std@@@std@@@std@@SAXAAV?$allocator@U?$_Tree_node@U?$pair@$$CBKK@std@@PAX@std@@@2@QAU?$_Tree_node@U?$pair@$$CBKK@std@@PAX@2@I@Z ; std::_Default_allocator_traits<std::allocator<std::_Tree_node<std::pair<unsigned long const ,unsigned long>,void *> > >::deallocate
  00061	83 c4 0c	 add	 esp, 12			; 0000000cH

; 374  :     }

  00064	8b 4d f4	 mov	 ecx, DWORD PTR __$EHRec$[ebp]
  00067	64 89 0d 00 00
	00 00		 mov	 DWORD PTR fs:0, ecx
  0006e	59		 pop	 ecx
  0006f	5f		 pop	 edi
  00070	5e		 pop	 esi
  00071	5b		 pop	 ebx
  00072	8b e5		 mov	 esp, ebp
  00074	5d		 pop	 ebp
  00075	c3		 ret	 0
  00076	cc		 int	 3
  00077	cc		 int	 3
  00078	cc		 int	 3
  00079	cc		 int	 3
  0007a	cc		 int	 3
_TEXT	ENDS
;	COMDAT text$x
text$x	SEGMENT
__ehhandler$??$_Freenode0@V?$allocator@U?$_Tree_node@U?$pair@$$CBKK@std@@PAX@std@@@std@@@?$_Tree_node@U?$pair@$$CBKK@std@@PAX@std@@SAXAAV?$allocator@U?$_Tree_node@U?$pair@$$CBKK@std@@PAX@std@@@1@PAU01@@Z:
  00000	90		 npad	 1
  00001	90		 npad	 1
  00002	8b 54 24 08	 mov	 edx, DWORD PTR [esp+8]
  00006	8d 42 0c	 lea	 eax, DWORD PTR [edx+12]
  00009	8b 4a b0	 mov	 ecx, DWORD PTR [edx-80]
  0000c	33 c8		 xor	 ecx, eax
  0000e	e8 00 00 00 00	 call	 @__security_check_cookie@4
  00013	b8 00 00 00 00	 mov	 eax, OFFSET __ehfuncinfo$??$_Freenode0@V?$allocator@U?$_Tree_node@U?$pair@$$CBKK@std@@PAX@std@@@std@@@?$_Tree_node@U?$pair@$$CBKK@std@@PAX@std@@SAXAAV?$allocator@U?$_Tree_node@U?$pair@$$CBKK@std@@PAX@std@@@1@PAU01@@Z
  00018	e9 00 00 00 00	 jmp	 ___CxxFrameHandler3
text$x	ENDS
??$_Freenode0@V?$allocator@U?$_Tree_node@U?$pair@$$CBKK@std@@PAX@std@@@std@@@?$_Tree_node@U?$pair@$$CBKK@std@@PAX@std@@SAXAAV?$allocator@U?$_Tree_node@U?$pair@$$CBKK@std@@PAX@std@@@1@PAU01@@Z ENDP ; std::_Tree_node<std::pair<unsigned long const ,unsigned long>,void *>::_Freenode0<std::allocator<std::_Tree_node<std::pair<unsigned long const ,unsigned long>,void *> > >
; Function compile flags: /Odtp /ZI
; File C:\Program Files (x86)\Microsoft Visual Studio\2019\Community\VC\Tools\MSVC\14.27.29110\include\xtree
;	COMDAT ??$_Freenode@V?$allocator@U?$_Tree_node@U?$pair@$$CBKK@std@@PAX@std@@@std@@@?$_Tree_node@U?$pair@$$CBKK@std@@PAX@std@@SAXAAV?$allocator@U?$_Tree_node@U?$pair@$$CBKK@std@@PAX@std@@@1@PAU01@@Z
_TEXT	SEGMENT
__$EHRec$ = -12						; size = 12
__Al$ = 8						; size = 4
__Ptr$ = 12						; size = 4
??$_Freenode@V?$allocator@U?$_Tree_node@U?$pair@$$CBKK@std@@PAX@std@@@std@@@?$_Tree_node@U?$pair@$$CBKK@std@@PAX@std@@SAXAAV?$allocator@U?$_Tree_node@U?$pair@$$CBKK@std@@PAX@std@@@1@PAU01@@Z PROC ; std::_Tree_node<std::pair<unsigned long const ,unsigned long>,void *>::_Freenode<std::allocator<std::_Tree_node<std::pair<unsigned long const ,unsigned long>,void *> > >, COMDAT

; 377  :     static void _Freenode(_Alloc& _Al, _Nodeptr _Ptr) noexcept {

  00000	55		 push	 ebp
  00001	8b ec		 mov	 ebp, esp
  00003	6a ff		 push	 -1
  00005	68 00 00 00 00	 push	 __ehhandler$??$_Freenode@V?$allocator@U?$_Tree_node@U?$pair@$$CBKK@std@@PAX@std@@@std@@@?$_Tree_node@U?$pair@$$CBKK@std@@PAX@std@@SAXAAV?$allocator@U?$_Tree_node@U?$pair@$$CBKK@std@@PAX@std@@@1@PAU01@@Z
  0000a	64 a1 00 00 00
	00		 mov	 eax, DWORD PTR fs:0
  00010	50		 push	 eax
  00011	83 ec 40	 sub	 esp, 64			; 00000040H
  00014	53		 push	 ebx
  00015	56		 push	 esi
  00016	57		 push	 edi
  00017	a1 00 00 00 00	 mov	 eax, DWORD PTR ___security_cookie
  0001c	33 c5		 xor	 eax, ebp
  0001e	50		 push	 eax
  0001f	8d 45 f4	 lea	 eax, DWORD PTR __$EHRec$[ebp]
  00022	64 a3 00 00 00
	00		 mov	 DWORD PTR fs:0, eax

; 378  :         static_assert(is_same_v<typename _Alloc::value_type, _Tree_node>, "Bad _Freenode call");
; 379  :         allocator_traits<_Alloc>::destroy(_Al, _STD addressof(_Ptr->_Myval));

  00028	8b 45 0c	 mov	 eax, DWORD PTR __Ptr$[ebp]
  0002b	83 c0 10	 add	 eax, 16			; 00000010H
  0002e	50		 push	 eax
  0002f	e8 00 00 00 00	 call	 ??$addressof@U?$pair@$$CBKK@std@@@std@@YAPAU?$pair@$$CBKK@0@AAU10@@Z ; std::addressof<std::pair<unsigned long const ,unsigned long> >
  00034	83 c4 04	 add	 esp, 4
  00037	50		 push	 eax
  00038	8b 4d 08	 mov	 ecx, DWORD PTR __Al$[ebp]
  0003b	51		 push	 ecx
  0003c	e8 00 00 00 00	 call	 ??$destroy@U?$pair@$$CBKK@std@@@?$_Default_allocator_traits@V?$allocator@U?$_Tree_node@U?$pair@$$CBKK@std@@PAX@std@@@std@@@std@@SAXAAV?$allocator@U?$_Tree_node@U?$pair@$$CBKK@std@@PAX@std@@@1@QAU?$pair@$$CBKK@1@@Z ; std::_Default_allocator_traits<std::allocator<std::_Tree_node<std::pair<unsigned long const ,unsigned long>,void *> > >::destroy<std::pair<unsigned long const ,unsigned long> >
  00041	83 c4 08	 add	 esp, 8

; 380  :         _Freenode0(_Al, _Ptr);

  00044	8b 45 0c	 mov	 eax, DWORD PTR __Ptr$[ebp]
  00047	50		 push	 eax
  00048	8b 4d 08	 mov	 ecx, DWORD PTR __Al$[ebp]
  0004b	51		 push	 ecx
  0004c	e8 00 00 00 00	 call	 ??$_Freenode0@V?$allocator@U?$_Tree_node@U?$pair@$$CBKK@std@@PAX@std@@@std@@@?$_Tree_node@U?$pair@$$CBKK@std@@PAX@std@@SAXAAV?$allocator@U?$_Tree_node@U?$pair@$$CBKK@std@@PAX@std@@@1@PAU01@@Z ; std::_Tree_node<std::pair<unsigned long const ,unsigned long>,void *>::_Freenode0<std::allocator<std::_Tree_node<std::pair<unsigned long const ,unsigned long>,void *> > >
  00051	83 c4 08	 add	 esp, 8

; 381  :     }

  00054	8b 4d f4	 mov	 ecx, DWORD PTR __$EHRec$[ebp]
  00057	64 89 0d 00 00
	00 00		 mov	 DWORD PTR fs:0, ecx
  0005e	59		 pop	 ecx
  0005f	5f		 pop	 edi
  00060	5e		 pop	 esi
  00061	5b		 pop	 ebx
  00062	8b e5		 mov	 esp, ebp
  00064	5d		 pop	 ebp
  00065	c3		 ret	 0
  00066	cc		 int	 3
  00067	cc		 int	 3
  00068	cc		 int	 3
  00069	cc		 int	 3
  0006a	cc		 int	 3
_TEXT	ENDS
;	COMDAT text$x
text$x	SEGMENT
__ehhandler$??$_Freenode@V?$allocator@U?$_Tree_node@U?$pair@$$CBKK@std@@PAX@std@@@std@@@?$_Tree_node@U?$pair@$$CBKK@std@@PAX@std@@SAXAAV?$allocator@U?$_Tree_node@U?$pair@$$CBKK@std@@PAX@std@@@1@PAU01@@Z:
  00000	90		 npad	 1
  00001	90		 npad	 1
  00002	8b 54 24 08	 mov	 edx, DWORD PTR [esp+8]
  00006	8d 42 0c	 lea	 eax, DWORD PTR [edx+12]
  00009	8b 4a b0	 mov	 ecx, DWORD PTR [edx-80]
  0000c	33 c8		 xor	 ecx, eax
  0000e	e8 00 00 00 00	 call	 @__security_check_cookie@4
  00013	b8 00 00 00 00	 mov	 eax, OFFSET __ehfuncinfo$??$_Freenode@V?$allocator@U?$_Tree_node@U?$pair@$$CBKK@std@@PAX@std@@@std@@@?$_Tree_node@U?$pair@$$CBKK@std@@PAX@std@@SAXAAV?$allocator@U?$_Tree_node@U?$pair@$$CBKK@std@@PAX@std@@@1@PAU01@@Z
  00018	e9 00 00 00 00	 jmp	 ___CxxFrameHandler3
text$x	ENDS
??$_Freenode@V?$allocator@U?$_Tree_node@U?$pair@$$CBKK@std@@PAX@std@@@std@@@?$_Tree_node@U?$pair@$$CBKK@std@@PAX@std@@SAXAAV?$allocator@U?$_Tree_node@U?$pair@$$CBKK@std@@PAX@std@@@1@PAU01@@Z ENDP ; std::_Tree_node<std::pair<unsigned long const ,unsigned long>,void *>::_Freenode<std::allocator<std::_Tree_node<std::pair<unsigned long const ,unsigned long>,void *> > >
; Function compile flags: /Odtp /ZI
; File C:\Program Files (x86)\Microsoft Visual Studio\2019\Community\VC\Tools\MSVC\14.27.29110\include\utility
;	COMDAT ??$exchange@PAU?$_Tree_node@U?$pair@$$CBKK@std@@PAX@std@@AAPAU12@@std@@YAPAU?$_Tree_node@U?$pair@$$CBKK@std@@PAX@0@AAPAU10@0@Z
_TEXT	SEGMENT
__Old_val$ = -4						; size = 4
__Val$ = 8						; size = 4
__New_val$ = 12						; size = 4
??$exchange@PAU?$_Tree_node@U?$pair@$$CBKK@std@@PAX@std@@AAPAU12@@std@@YAPAU?$_Tree_node@U?$pair@$$CBKK@std@@PAX@0@AAPAU10@0@Z PROC ; std::exchange<std::_Tree_node<std::pair<unsigned long const ,unsigned long>,void *> *,std::_Tree_node<std::pair<unsigned long const ,unsigned long>,void *> * &>, COMDAT

; 597  :     conjunction_v<is_nothrow_move_constructible<_Ty>, is_nothrow_assignable<_Ty&, _Other>>) /* strengthened */ {

  00000	55		 push	 ebp
  00001	8b ec		 mov	 ebp, esp
  00003	83 ec 44	 sub	 esp, 68			; 00000044H
  00006	53		 push	 ebx
  00007	56		 push	 esi
  00008	57		 push	 edi

; 598  :     // assign _New_val to _Val, return previous _Val
; 599  :     _Ty _Old_val = static_cast<_Ty&&>(_Val);

  00009	8b 45 08	 mov	 eax, DWORD PTR __Val$[ebp]
  0000c	8b 08		 mov	 ecx, DWORD PTR [eax]
  0000e	89 4d fc	 mov	 DWORD PTR __Old_val$[ebp], ecx

; 600  :     _Val         = static_cast<_Other&&>(_New_val);

  00011	8b 45 08	 mov	 eax, DWORD PTR __Val$[ebp]
  00014	8b 4d 0c	 mov	 ecx, DWORD PTR __New_val$[ebp]
  00017	8b 11		 mov	 edx, DWORD PTR [ecx]
  00019	89 10		 mov	 DWORD PTR [eax], edx

; 601  :     return _Old_val;

  0001b	8b 45 fc	 mov	 eax, DWORD PTR __Old_val$[ebp]

; 602  : }

  0001e	5f		 pop	 edi
  0001f	5e		 pop	 esi
  00020	5b		 pop	 ebx
  00021	8b e5		 mov	 esp, ebp
  00023	5d		 pop	 ebp
  00024	c3		 ret	 0
??$exchange@PAU?$_Tree_node@U?$pair@$$CBKK@std@@PAX@std@@AAPAU12@@std@@YAPAU?$_Tree_node@U?$pair@$$CBKK@std@@PAX@0@AAPAU10@0@Z ENDP ; std::exchange<std::_Tree_node<std::pair<unsigned long const ,unsigned long>,void *> *,std::_Tree_node<std::pair<unsigned long const ,unsigned long>,void *> * &>
_TEXT	ENDS
; Function compile flags: /Odtp /ZI
; File C:\Program Files (x86)\Microsoft Visual Studio\2019\Community\VC\Tools\MSVC\14.27.29110\include\xtree
;	COMDAT ??$emplace@U?$pair@KK@std@@@?$_Tree@V?$_Tmap_traits@KKU?$less@K@std@@V?$allocator@U?$pair@$$CBKK@std@@@2@$0A@@std@@@std@@QAE?AU?$pair@V?$_Tree_iterator@V?$_Tree_val@U?$_Tree_simple_types@U?$pair@$$CBKK@std@@@std@@@std@@@std@@_N@1@$$QAU?$pair@KK@1@@Z
_TEXT	SEGMENT
$T1 = -80						; size = 4
__Result$ = -12						; size = 8
_this$ = -4						; size = 4
___$ReturnUdt$ = 8					; size = 4
_<_Vals_0>$ = 12					; size = 4
??$emplace@U?$pair@KK@std@@@?$_Tree@V?$_Tmap_traits@KKU?$less@K@std@@V?$allocator@U?$pair@$$CBKK@std@@@2@$0A@@std@@@std@@QAE?AU?$pair@V?$_Tree_iterator@V?$_Tree_val@U?$_Tree_simple_types@U?$pair@$$CBKK@std@@@std@@@std@@@std@@_N@1@$$QAU?$pair@KK@1@@Z PROC ; std::_Tree<std::_Tmap_traits<unsigned long,unsigned long,std::less<unsigned long>,std::allocator<std::pair<unsigned long const ,unsigned long> >,0> >::emplace<std::pair<unsigned long,unsigned long> >, COMDAT
; _this$ = ecx

; 1094 :     pair<iterator, bool> emplace(_Valtys&&... _Vals) {

  00000	55		 push	 ebp
  00001	8b ec		 mov	 ebp, esp
  00003	83 ec 50	 sub	 esp, 80			; 00000050H
  00006	53		 push	 ebx
  00007	56		 push	 esi
  00008	57		 push	 edi
  00009	89 4d fc	 mov	 DWORD PTR _this$[ebp], ecx

; 1095 :         const auto _Result = _Emplace(_STD forward<_Valtys>(_Vals)...);

  0000c	8b 45 0c	 mov	 eax, DWORD PTR _<_Vals_0>$[ebp]
  0000f	50		 push	 eax
  00010	e8 00 00 00 00	 call	 ??$forward@U?$pair@KK@std@@@std@@YA$$QAU?$pair@KK@0@AAU10@@Z ; std::forward<std::pair<unsigned long,unsigned long> >
  00015	83 c4 04	 add	 esp, 4
  00018	50		 push	 eax
  00019	8d 4d f4	 lea	 ecx, DWORD PTR __Result$[ebp]
  0001c	51		 push	 ecx
  0001d	8b 4d fc	 mov	 ecx, DWORD PTR _this$[ebp]
  00020	e8 00 00 00 00	 call	 ??$_Emplace@U?$pair@KK@std@@@?$_Tree@V?$_Tmap_traits@KKU?$less@K@std@@V?$allocator@U?$pair@$$CBKK@std@@@2@$0A@@std@@@std@@IAE?AU?$pair@PAU?$_Tree_node@U?$pair@$$CBKK@std@@PAX@std@@_N@1@$$QAU?$pair@KK@1@@Z ; std::_Tree<std::_Tmap_traits<unsigned long,unsigned long,std::less<unsigned long>,std::allocator<std::pair<unsigned long const ,unsigned long> >,0> >::_Emplace<std::pair<unsigned long,unsigned long> >

; 1096 :         return {iterator(_Result.first, _Get_scary()), _Result.second};

  00025	8b 4d fc	 mov	 ecx, DWORD PTR _this$[ebp]
  00028	e8 00 00 00 00	 call	 ?_Get_scary@?$_Tree@V?$_Tmap_traits@KKU?$less@K@std@@V?$allocator@U?$pair@$$CBKK@std@@@2@$0A@@std@@@std@@IAEPAV?$_Tree_val@U?$_Tree_simple_types@U?$pair@$$CBKK@std@@@std@@@2@XZ ; std::_Tree<std::_Tmap_traits<unsigned long,unsigned long,std::less<unsigned long>,std::allocator<std::pair<unsigned long const ,unsigned long> >,0> >::_Get_scary
  0002d	50		 push	 eax
  0002e	8b 45 f4	 mov	 eax, DWORD PTR __Result$[ebp]
  00031	50		 push	 eax
  00032	8d 4d b0	 lea	 ecx, DWORD PTR $T1[ebp]
  00035	e8 00 00 00 00	 call	 ??0?$_Tree_iterator@V?$_Tree_val@U?$_Tree_simple_types@U?$pair@$$CBKK@std@@@std@@@std@@@std@@QAE@PAU?$_Tree_node@U?$pair@$$CBKK@std@@PAX@1@PBV?$_Tree_val@U?$_Tree_simple_types@U?$pair@$$CBKK@std@@@std@@@1@@Z
  0003a	8d 4d f8	 lea	 ecx, DWORD PTR __Result$[ebp+4]
  0003d	51		 push	 ecx
  0003e	50		 push	 eax
  0003f	8b 4d 08	 mov	 ecx, DWORD PTR ___$ReturnUdt$[ebp]
  00042	e8 00 00 00 00	 call	 ??$?0V?$_Tree_iterator@V?$_Tree_val@U?$_Tree_simple_types@U?$pair@$$CBKK@std@@@std@@@std@@@std@@AB_N$0A@@?$pair@V?$_Tree_iterator@V?$_Tree_val@U?$_Tree_simple_types@U?$pair@$$CBKK@std@@@std@@@std@@@std@@_N@std@@QAE@$$QAV?$_Tree_iterator@V?$_Tree_val@U?$_Tree_simple_types@U?$pair@$$CBKK@std@@@std@@@std@@@1@AB_N@Z ; std::pair<std::_Tree_iterator<std::_Tree_val<std::_Tree_simple_types<std::pair<unsigned long const ,unsigned long> > > >,bool>::pair<std::_Tree_iterator<std::_Tree_val<std::_Tree_simple_types<std::pair<unsigned long const ,unsigned long> > > >,bool><std::_Tree_iterator<std::_Tree_val<std::_Tree_simple_types<std::pair<unsigned long const ,unsigned long> > > >,bool const &,0>
  00047	8b 45 08	 mov	 eax, DWORD PTR ___$ReturnUdt$[ebp]

; 1097 :     }

  0004a	5f		 pop	 edi
  0004b	5e		 pop	 esi
  0004c	5b		 pop	 ebx
  0004d	8b e5		 mov	 esp, ebp
  0004f	5d		 pop	 ebp
  00050	c2 08 00	 ret	 8
??$emplace@U?$pair@KK@std@@@?$_Tree@V?$_Tmap_traits@KKU?$less@K@std@@V?$allocator@U?$pair@$$CBKK@std@@@2@$0A@@std@@@std@@QAE?AU?$pair@V?$_Tree_iterator@V?$_Tree_val@U?$_Tree_simple_types@U?$pair@$$CBKK@std@@@std@@@std@@@std@@_N@1@$$QAU?$pair@KK@1@@Z ENDP ; std::_Tree<std::_Tmap_traits<unsigned long,unsigned long,std::less<unsigned long>,std::allocator<std::pair<unsigned long const ,unsigned long> >,0> >::emplace<std::pair<unsigned long,unsigned long> >
_TEXT	ENDS
; Function compile flags: /Odtp /ZI
; File C:\Program Files (x86)\Microsoft Visual Studio\2019\Community\VC\Tools\MSVC\14.27.29110\include\type_traits
;	COMDAT ??$forward@U?$pair@KK@std@@@std@@YA$$QAU?$pair@KK@0@AAU10@@Z
_TEXT	SEGMENT
__Arg$ = 8						; size = 4
??$forward@U?$pair@KK@std@@@std@@YA$$QAU?$pair@KK@0@AAU10@@Z PROC ; std::forward<std::pair<unsigned long,unsigned long> >, COMDAT

; 1454 :     remove_reference_t<_Ty>& _Arg) noexcept { // forward an lvalue as either an lvalue or an rvalue

  00000	55		 push	 ebp
  00001	8b ec		 mov	 ebp, esp
  00003	83 ec 40	 sub	 esp, 64			; 00000040H
  00006	53		 push	 ebx
  00007	56		 push	 esi
  00008	57		 push	 edi

; 1455 :     return static_cast<_Ty&&>(_Arg);

  00009	8b 45 08	 mov	 eax, DWORD PTR __Arg$[ebp]

; 1456 : }

  0000c	5f		 pop	 edi
  0000d	5e		 pop	 esi
  0000e	5b		 pop	 ebx
  0000f	8b e5		 mov	 esp, ebp
  00011	5d		 pop	 ebp
  00012	c3		 ret	 0
??$forward@U?$pair@KK@std@@@std@@YA$$QAU?$pair@KK@0@AAU10@@Z ENDP ; std::forward<std::pair<unsigned long,unsigned long> >
_TEXT	ENDS
; Function compile flags: /Odtp /ZI
; File C:\Program Files (x86)\Microsoft Visual Studio\2019\Community\VC\Tools\MSVC\14.27.29110\include\utility
;	COMDAT ??$?0AAKAAK$0A@@?$pair@KK@std@@QAE@AAK0@Z
_TEXT	SEGMENT
_this$ = -4						; size = 4
__Val1$ = 8						; size = 4
__Val2$ = 12						; size = 4
??$?0AAKAAK$0A@@?$pair@KK@std@@QAE@AAK0@Z PROC		; std::pair<unsigned long,unsigned long>::pair<unsigned long,unsigned long><unsigned long &,unsigned long &,0>, COMDAT
; _this$ = ecx

; 192  :         : first(_STD forward<_Other1>(_Val1)), second(_STD forward<_Other2>(_Val2)) {}

  00000	55		 push	 ebp
  00001	8b ec		 mov	 ebp, esp
  00003	83 ec 44	 sub	 esp, 68			; 00000044H
  00006	53		 push	 ebx
  00007	56		 push	 esi
  00008	57		 push	 edi
  00009	89 4d fc	 mov	 DWORD PTR _this$[ebp], ecx
  0000c	8b 45 08	 mov	 eax, DWORD PTR __Val1$[ebp]
  0000f	50		 push	 eax
  00010	e8 00 00 00 00	 call	 ??$forward@AAK@std@@YAAAKAAK@Z ; std::forward<unsigned long &>
  00015	83 c4 04	 add	 esp, 4
  00018	8b 4d fc	 mov	 ecx, DWORD PTR _this$[ebp]
  0001b	8b 10		 mov	 edx, DWORD PTR [eax]
  0001d	89 11		 mov	 DWORD PTR [ecx], edx
  0001f	8b 45 0c	 mov	 eax, DWORD PTR __Val2$[ebp]
  00022	50		 push	 eax
  00023	e8 00 00 00 00	 call	 ??$forward@AAK@std@@YAAAKAAK@Z ; std::forward<unsigned long &>
  00028	83 c4 04	 add	 esp, 4
  0002b	8b 4d fc	 mov	 ecx, DWORD PTR _this$[ebp]
  0002e	8b 10		 mov	 edx, DWORD PTR [eax]
  00030	89 51 04	 mov	 DWORD PTR [ecx+4], edx
  00033	8b 45 fc	 mov	 eax, DWORD PTR _this$[ebp]
  00036	5f		 pop	 edi
  00037	5e		 pop	 esi
  00038	5b		 pop	 ebx
  00039	8b e5		 mov	 esp, ebp
  0003b	5d		 pop	 ebp
  0003c	c2 08 00	 ret	 8
??$?0AAKAAK$0A@@?$pair@KK@std@@QAE@AAK0@Z ENDP		; std::pair<unsigned long,unsigned long>::pair<unsigned long,unsigned long><unsigned long &,unsigned long &,0>
_TEXT	ENDS
; Function compile flags: /Odtp /ZI
; File C:\Program Files (x86)\Microsoft Visual Studio\2019\Community\VC\Tools\MSVC\14.27.29110\include\type_traits
;	COMDAT ??$forward@AAK@std@@YAAAKAAK@Z
_TEXT	SEGMENT
__Arg$ = 8						; size = 4
??$forward@AAK@std@@YAAAKAAK@Z PROC			; std::forward<unsigned long &>, COMDAT

; 1454 :     remove_reference_t<_Ty>& _Arg) noexcept { // forward an lvalue as either an lvalue or an rvalue

  00000	55		 push	 ebp
  00001	8b ec		 mov	 ebp, esp
  00003	83 ec 40	 sub	 esp, 64			; 00000040H
  00006	53		 push	 ebx
  00007	56		 push	 esi
  00008	57		 push	 edi

; 1455 :     return static_cast<_Ty&&>(_Arg);

  00009	8b 45 08	 mov	 eax, DWORD PTR __Arg$[ebp]

; 1456 : }

  0000c	5f		 pop	 edi
  0000d	5e		 pop	 esi
  0000e	5b		 pop	 ebx
  0000f	8b e5		 mov	 esp, ebp
  00011	5d		 pop	 ebp
  00012	c3		 ret	 0
??$forward@AAK@std@@YAAAKAAK@Z ENDP			; std::forward<unsigned long &>
_TEXT	ENDS
; Function compile flags: /Odtp /ZI
; File C:\Program Files (x86)\Microsoft Visual Studio\2019\Community\VC\Tools\MSVC\14.27.29110\include\xtree
;	COMDAT ??$_Buyheadnode@V?$allocator@U?$_Tree_node@U?$pair@$$CBKK@std@@PAX@std@@@std@@@?$_Tree_node@U?$pair@$$CBKK@std@@PAX@std@@SAPAU01@AAV?$allocator@U?$_Tree_node@U?$pair@$$CBKK@std@@PAX@std@@@1@@Z
_TEXT	SEGMENT
__Pnode$ = -4						; size = 4
__Al$ = 8						; size = 4
??$_Buyheadnode@V?$allocator@U?$_Tree_node@U?$pair@$$CBKK@std@@PAX@std@@@std@@@?$_Tree_node@U?$pair@$$CBKK@std@@PAX@std@@SAPAU01@AAV?$allocator@U?$_Tree_node@U?$pair@$$CBKK@std@@PAX@std@@@1@@Z PROC ; std::_Tree_node<std::pair<unsigned long const ,unsigned long>,void *>::_Buyheadnode<std::allocator<std::_Tree_node<std::pair<unsigned long const ,unsigned long>,void *> > >, COMDAT

; 341  :     static _Nodeptr _Buyheadnode(_Alloc& _Al) {

  00000	55		 push	 ebp
  00001	8b ec		 mov	 ebp, esp
  00003	83 ec 44	 sub	 esp, 68			; 00000044H
  00006	53		 push	 ebx
  00007	56		 push	 esi
  00008	57		 push	 edi

; 342  :         static_assert(is_same_v<typename _Alloc::value_type, _Tree_node>, "Bad _Buyheadnode call");
; 343  :         const auto _Pnode = _Al.allocate(1);

  00009	6a 01		 push	 1
  0000b	8b 4d 08	 mov	 ecx, DWORD PTR __Al$[ebp]
  0000e	e8 00 00 00 00	 call	 ?allocate@?$allocator@U?$_Tree_node@U?$pair@$$CBKK@std@@PAX@std@@@std@@QAEPAU?$_Tree_node@U?$pair@$$CBKK@std@@PAX@2@I@Z ; std::allocator<std::_Tree_node<std::pair<unsigned long const ,unsigned long>,void *> >::allocate
  00013	89 45 fc	 mov	 DWORD PTR __Pnode$[ebp], eax

; 344  :         _Construct_in_place(_Pnode->_Left, _Pnode);

  00016	8d 45 fc	 lea	 eax, DWORD PTR __Pnode$[ebp]
  00019	50		 push	 eax
  0001a	8b 4d fc	 mov	 ecx, DWORD PTR __Pnode$[ebp]
  0001d	51		 push	 ecx
  0001e	e8 00 00 00 00	 call	 ??$_Construct_in_place@PAU?$_Tree_node@U?$pair@$$CBKK@std@@PAX@std@@ABQAU12@@std@@YAXAAPAU?$_Tree_node@U?$pair@$$CBKK@std@@PAX@0@ABQAU10@@Z ; std::_Construct_in_place<std::_Tree_node<std::pair<unsigned long const ,unsigned long>,void *> *,std::_Tree_node<std::pair<unsigned long const ,unsigned long>,void *> * const &>
  00023	83 c4 08	 add	 esp, 8

; 345  :         _Construct_in_place(_Pnode->_Parent, _Pnode);

  00026	8d 45 fc	 lea	 eax, DWORD PTR __Pnode$[ebp]
  00029	50		 push	 eax
  0002a	8b 4d fc	 mov	 ecx, DWORD PTR __Pnode$[ebp]
  0002d	83 c1 04	 add	 ecx, 4
  00030	51		 push	 ecx
  00031	e8 00 00 00 00	 call	 ??$_Construct_in_place@PAU?$_Tree_node@U?$pair@$$CBKK@std@@PAX@std@@ABQAU12@@std@@YAXAAPAU?$_Tree_node@U?$pair@$$CBKK@std@@PAX@0@ABQAU10@@Z ; std::_Construct_in_place<std::_Tree_node<std::pair<unsigned long const ,unsigned long>,void *> *,std::_Tree_node<std::pair<unsigned long const ,unsigned long>,void *> * const &>
  00036	83 c4 08	 add	 esp, 8

; 346  :         _Construct_in_place(_Pnode->_Right, _Pnode);

  00039	8d 45 fc	 lea	 eax, DWORD PTR __Pnode$[ebp]
  0003c	50		 push	 eax
  0003d	8b 4d fc	 mov	 ecx, DWORD PTR __Pnode$[ebp]
  00040	83 c1 08	 add	 ecx, 8
  00043	51		 push	 ecx
  00044	e8 00 00 00 00	 call	 ??$_Construct_in_place@PAU?$_Tree_node@U?$pair@$$CBKK@std@@PAX@std@@ABQAU12@@std@@YAXAAPAU?$_Tree_node@U?$pair@$$CBKK@std@@PAX@0@ABQAU10@@Z ; std::_Construct_in_place<std::_Tree_node<std::pair<unsigned long const ,unsigned long>,void *> *,std::_Tree_node<std::pair<unsigned long const ,unsigned long>,void *> * const &>
  00049	83 c4 08	 add	 esp, 8

; 347  :         _Pnode->_Color = _Black;

  0004c	8b 45 fc	 mov	 eax, DWORD PTR __Pnode$[ebp]
  0004f	c6 40 0c 01	 mov	 BYTE PTR [eax+12], 1

; 348  :         _Pnode->_Isnil = true;

  00053	8b 45 fc	 mov	 eax, DWORD PTR __Pnode$[ebp]
  00056	c6 40 0d 01	 mov	 BYTE PTR [eax+13], 1

; 349  :         return _Pnode;

  0005a	8b 45 fc	 mov	 eax, DWORD PTR __Pnode$[ebp]

; 350  :     }

  0005d	5f		 pop	 edi
  0005e	5e		 pop	 esi
  0005f	5b		 pop	 ebx
  00060	8b e5		 mov	 esp, ebp
  00062	5d		 pop	 ebp
  00063	c3		 ret	 0
??$_Buyheadnode@V?$allocator@U?$_Tree_node@U?$pair@$$CBKK@std@@PAX@std@@@std@@@?$_Tree_node@U?$pair@$$CBKK@std@@PAX@std@@SAPAU01@AAV?$allocator@U?$_Tree_node@U?$pair@$$CBKK@std@@PAX@std@@@1@@Z ENDP ; std::_Tree_node<std::pair<unsigned long const ,unsigned long>,void *>::_Buyheadnode<std::allocator<std::_Tree_node<std::pair<unsigned long const ,unsigned long>,void *> > >
_TEXT	ENDS
; Function compile flags: /Odtp /ZI
; File C:\Program Files (x86)\Microsoft Visual Studio\2019\Community\VC\Tools\MSVC\14.27.29110\include\xmemory
;	COMDAT ??$?0$$V@?$_Compressed_pair@V?$allocator@U?$_Tree_node@U?$pair@$$CBKK@std@@PAX@std@@@std@@V?$_Tree_val@U?$_Tree_simple_types@U?$pair@$$CBKK@std@@@std@@@2@$00@std@@QAE@U_Zero_then_variadic_args_t@1@@Z
_TEXT	SEGMENT
_this$ = -4						; size = 4
___formal$ = 8						; size = 1
??$?0$$V@?$_Compressed_pair@V?$allocator@U?$_Tree_node@U?$pair@$$CBKK@std@@PAX@std@@@std@@V?$_Tree_val@U?$_Tree_simple_types@U?$pair@$$CBKK@std@@@std@@@2@$00@std@@QAE@U_Zero_then_variadic_args_t@1@@Z PROC ; std::_Compressed_pair<std::allocator<std::_Tree_node<std::pair<unsigned long const ,unsigned long>,void *> >,std::_Tree_val<std::_Tree_simple_types<std::pair<unsigned long const ,unsigned long> > >,1>::_Compressed_pair<std::allocator<std::_Tree_node<std::pair<unsigned long const ,unsigned long>,void *> >,std::_Tree_val<std::_Tree_simple_types<std::pair<unsigned long const ,unsigned long> > >,1><>, COMDAT
; _this$ = ecx

; 1336 :         : _Ty1(), _Myval2(_STD forward<_Other2>(_Val2)...) {}

  00000	55		 push	 ebp
  00001	8b ec		 mov	 ebp, esp
  00003	83 ec 44	 sub	 esp, 68			; 00000044H
  00006	53		 push	 ebx
  00007	56		 push	 esi
  00008	57		 push	 edi
  00009	89 4d fc	 mov	 DWORD PTR _this$[ebp], ecx
  0000c	8b 4d fc	 mov	 ecx, DWORD PTR _this$[ebp]
  0000f	e8 00 00 00 00	 call	 ??0?$allocator@U?$_Tree_node@U?$pair@$$CBKK@std@@PAX@std@@@std@@QAE@XZ ; std::allocator<std::_Tree_node<std::pair<unsigned long const ,unsigned long>,void *> >::allocator<std::_Tree_node<std::pair<unsigned long const ,unsigned long>,void *> >
  00014	8b 4d fc	 mov	 ecx, DWORD PTR _this$[ebp]
  00017	e8 00 00 00 00	 call	 ??0?$_Tree_val@U?$_Tree_simple_types@U?$pair@$$CBKK@std@@@std@@@std@@QAE@XZ ; std::_Tree_val<std::_Tree_simple_types<std::pair<unsigned long const ,unsigned long> > >::_Tree_val<std::_Tree_simple_types<std::pair<unsigned long const ,unsigned long> > >
  0001c	8b 45 fc	 mov	 eax, DWORD PTR _this$[ebp]
  0001f	5f		 pop	 edi
  00020	5e		 pop	 esi
  00021	5b		 pop	 ebx
  00022	8b e5		 mov	 esp, ebp
  00024	5d		 pop	 ebp
  00025	c2 04 00	 ret	 4
??$?0$$V@?$_Compressed_pair@V?$allocator@U?$_Tree_node@U?$pair@$$CBKK@std@@PAX@std@@@std@@V?$_Tree_val@U?$_Tree_simple_types@U?$pair@$$CBKK@std@@@std@@@2@$00@std@@QAE@U_Zero_then_variadic_args_t@1@@Z ENDP ; std::_Compressed_pair<std::allocator<std::_Tree_node<std::pair<unsigned long const ,unsigned long>,void *> >,std::_Tree_val<std::_Tree_simple_types<std::pair<unsigned long const ,unsigned long> > >,1>::_Compressed_pair<std::allocator<std::_Tree_node<std::pair<unsigned long const ,unsigned long>,void *> >,std::_Tree_val<std::_Tree_simple_types<std::pair<unsigned long const ,unsigned long> > >,1><>
_TEXT	ENDS
; Function compile flags: /Odtp /ZI
; File C:\Program Files (x86)\Microsoft Visual Studio\2019\Community\VC\Tools\MSVC\14.27.29110\include\xmemory
;	COMDAT ??$?0ABU?$less@K@std@@U_Zero_then_variadic_args_t@1@@?$_Compressed_pair@U?$less@K@std@@V?$_Compressed_pair@V?$allocator@U?$_Tree_node@U?$pair@$$CBKK@std@@PAX@std@@@std@@V?$_Tree_val@U?$_Tree_simple_types@U?$pair@$$CBKK@std@@@std@@@2@$00@2@$00@std@@QAE@U_One_then_variadic_args_t@1@ABU?$less@K@1@$$QAU_Zero_then_variadic_args_t@1@@Z
_TEXT	SEGMENT
_this$ = -4						; size = 4
___formal$ = 8						; size = 1
__Val1$ = 12						; size = 4
_<_Val2_0>$ = 16					; size = 4
??$?0ABU?$less@K@std@@U_Zero_then_variadic_args_t@1@@?$_Compressed_pair@U?$less@K@std@@V?$_Compressed_pair@V?$allocator@U?$_Tree_node@U?$pair@$$CBKK@std@@PAX@std@@@std@@V?$_Tree_val@U?$_Tree_simple_types@U?$pair@$$CBKK@std@@@std@@@2@$00@2@$00@std@@QAE@U_One_then_variadic_args_t@1@ABU?$less@K@1@$$QAU_Zero_then_variadic_args_t@1@@Z PROC ; std::_Compressed_pair<std::less<unsigned long>,std::_Compressed_pair<std::allocator<std::_Tree_node<std::pair<unsigned long const ,unsigned long>,void *> >,std::_Tree_val<std::_Tree_simple_types<std::pair<unsigned long const ,unsigned long> > >,1>,1>::_Compressed_pair<std::less<unsigned long>,std::_Compressed_pair<std::allocator<std::_Tree_node<std::pair<unsigned long const ,unsigned long>,void *> >,std::_Tree_val<std::_Tree_simple_types<std::pair<unsigned long const ,unsigned long> > >,1>,1><std::less<unsigned long> const &,std::_Zero_then_variadic_args_t>, COMDAT
; _this$ = ecx

; 1341 :         : _Ty1(_STD forward<_Other1>(_Val1)), _Myval2(_STD forward<_Other2>(_Val2)...) {}

  00000	55		 push	 ebp
  00001	8b ec		 mov	 ebp, esp
  00003	83 ec 44	 sub	 esp, 68			; 00000044H
  00006	53		 push	 ebx
  00007	56		 push	 esi
  00008	57		 push	 edi
  00009	89 4d fc	 mov	 DWORD PTR _this$[ebp], ecx
  0000c	8b 45 0c	 mov	 eax, DWORD PTR __Val1$[ebp]
  0000f	50		 push	 eax
  00010	e8 00 00 00 00	 call	 ??$forward@ABU?$less@K@std@@@std@@YAABU?$less@K@0@ABU10@@Z ; std::forward<std::less<unsigned long> const &>
  00015	83 c4 04	 add	 esp, 4
  00018	8b 45 10	 mov	 eax, DWORD PTR _<_Val2_0>$[ebp]
  0001b	50		 push	 eax
  0001c	e8 00 00 00 00	 call	 ??$forward@U_Zero_then_variadic_args_t@std@@@std@@YA$$QAU_Zero_then_variadic_args_t@0@AAU10@@Z ; std::forward<std::_Zero_then_variadic_args_t>
  00021	83 c4 04	 add	 esp, 4
  00024	8a 08		 mov	 cl, BYTE PTR [eax]
  00026	0f b6 d1	 movzx	 edx, cl
  00029	52		 push	 edx
  0002a	8b 4d fc	 mov	 ecx, DWORD PTR _this$[ebp]
  0002d	e8 00 00 00 00	 call	 ??$?0$$V@?$_Compressed_pair@V?$allocator@U?$_Tree_node@U?$pair@$$CBKK@std@@PAX@std@@@std@@V?$_Tree_val@U?$_Tree_simple_types@U?$pair@$$CBKK@std@@@std@@@2@$00@std@@QAE@U_Zero_then_variadic_args_t@1@@Z ; std::_Compressed_pair<std::allocator<std::_Tree_node<std::pair<unsigned long const ,unsigned long>,void *> >,std::_Tree_val<std::_Tree_simple_types<std::pair<unsigned long const ,unsigned long> > >,1>::_Compressed_pair<std::allocator<std::_Tree_node<std::pair<unsigned long const ,unsigned long>,void *> >,std::_Tree_val<std::_Tree_simple_types<std::pair<unsigned long const ,unsigned long> > >,1><>
  00032	8b 45 fc	 mov	 eax, DWORD PTR _this$[ebp]
  00035	5f		 pop	 edi
  00036	5e		 pop	 esi
  00037	5b		 pop	 ebx
  00038	8b e5		 mov	 esp, ebp
  0003a	5d		 pop	 ebp
  0003b	c2 0c 00	 ret	 12			; 0000000cH
??$?0ABU?$less@K@std@@U_Zero_then_variadic_args_t@1@@?$_Compressed_pair@U?$less@K@std@@V?$_Compressed_pair@V?$allocator@U?$_Tree_node@U?$pair@$$CBKK@std@@PAX@std@@@std@@V?$_Tree_val@U?$_Tree_simple_types@U?$pair@$$CBKK@std@@@std@@@2@$00@2@$00@std@@QAE@U_One_then_variadic_args_t@1@ABU?$less@K@1@$$QAU_Zero_then_variadic_args_t@1@@Z ENDP ; std::_Compressed_pair<std::less<unsigned long>,std::_Compressed_pair<std::allocator<std::_Tree_node<std::pair<unsigned long const ,unsigned long>,void *> >,std::_Tree_val<std::_Tree_simple_types<std::pair<unsigned long const ,unsigned long> > >,1>,1>::_Compressed_pair<std::less<unsigned long>,std::_Compressed_pair<std::allocator<std::_Tree_node<std::pair<unsigned long const ,unsigned long>,void *> >,std::_Tree_val<std::_Tree_simple_types<std::pair<unsigned long const ,unsigned long> > >,1>,1><std::less<unsigned long> const &,std::_Zero_then_variadic_args_t>
_TEXT	ENDS
; Function compile flags: /Odtp /ZI
; File C:\Program Files (x86)\Microsoft Visual Studio\2019\Community\VC\Tools\MSVC\14.27.29110\include\xtree
;	COMDAT ??$_Erase_head@V?$allocator@U?$_Tree_node@U?$pair@$$CBKK@std@@PAX@std@@@std@@@?$_Tree_val@U?$_Tree_simple_types@U?$pair@$$CBKK@std@@@std@@@std@@QAEXAAV?$allocator@U?$_Tree_node@U?$pair@$$CBKK@std@@PAX@std@@@1@@Z
_TEXT	SEGMENT
_this$ = -4						; size = 4
__Al$ = 8						; size = 4
??$_Erase_head@V?$allocator@U?$_Tree_node@U?$pair@$$CBKK@std@@PAX@std@@@std@@@?$_Tree_val@U?$_Tree_simple_types@U?$pair@$$CBKK@std@@@std@@@std@@QAEXAAV?$allocator@U?$_Tree_node@U?$pair@$$CBKK@std@@PAX@std@@@1@@Z PROC ; std::_Tree_val<std::_Tree_simple_types<std::pair<unsigned long const ,unsigned long> > >::_Erase_head<std::allocator<std::_Tree_node<std::pair<unsigned long const ,unsigned long>,void *> > >, COMDAT
; _this$ = ecx

; 750  :     void _Erase_head(_Alnode& _Al) noexcept {

  00000	55		 push	 ebp
  00001	8b ec		 mov	 ebp, esp
  00003	83 ec 44	 sub	 esp, 68			; 00000044H
  00006	53		 push	 ebx
  00007	56		 push	 esi
  00008	57		 push	 edi
  00009	89 4d fc	 mov	 DWORD PTR _this$[ebp], ecx

; 751  :         this->_Orphan_all();

  0000c	8b 4d fc	 mov	 ecx, DWORD PTR _this$[ebp]
  0000f	e8 00 00 00 00	 call	 ?_Orphan_all@_Container_base0@std@@QAEXXZ ; std::_Container_base0::_Orphan_all

; 752  :         _Erase_tree(_Al, _Myhead->_Parent);

  00014	8b 45 fc	 mov	 eax, DWORD PTR _this$[ebp]
  00017	8b 08		 mov	 ecx, DWORD PTR [eax]
  00019	8b 51 04	 mov	 edx, DWORD PTR [ecx+4]
  0001c	52		 push	 edx
  0001d	8b 45 08	 mov	 eax, DWORD PTR __Al$[ebp]
  00020	50		 push	 eax
  00021	8b 4d fc	 mov	 ecx, DWORD PTR _this$[ebp]
  00024	e8 00 00 00 00	 call	 ??$_Erase_tree@V?$allocator@U?$_Tree_node@U?$pair@$$CBKK@std@@PAX@std@@@std@@@?$_Tree_val@U?$_Tree_simple_types@U?$pair@$$CBKK@std@@@std@@@std@@QAEXAAV?$allocator@U?$_Tree_node@U?$pair@$$CBKK@std@@PAX@std@@@1@PAU?$_Tree_node@U?$pair@$$CBKK@std@@PAX@1@@Z ; std::_Tree_val<std::_Tree_simple_types<std::pair<unsigned long const ,unsigned long> > >::_Erase_tree<std::allocator<std::_Tree_node<std::pair<unsigned long const ,unsigned long>,void *> > >

; 753  :         _Alnode::value_type::_Freenode0(_Al, _Myhead);

  00029	8b 45 fc	 mov	 eax, DWORD PTR _this$[ebp]
  0002c	8b 08		 mov	 ecx, DWORD PTR [eax]
  0002e	51		 push	 ecx
  0002f	8b 55 08	 mov	 edx, DWORD PTR __Al$[ebp]
  00032	52		 push	 edx
  00033	e8 00 00 00 00	 call	 ??$_Freenode0@V?$allocator@U?$_Tree_node@U?$pair@$$CBKK@std@@PAX@std@@@std@@@?$_Tree_node@U?$pair@$$CBKK@std@@PAX@std@@SAXAAV?$allocator@U?$_Tree_node@U?$pair@$$CBKK@std@@PAX@std@@@1@PAU01@@Z ; std::_Tree_node<std::pair<unsigned long const ,unsigned long>,void *>::_Freenode0<std::allocator<std::_Tree_node<std::pair<unsigned long const ,unsigned long>,void *> > >
  00038	83 c4 08	 add	 esp, 8

; 754  :     }

  0003b	5f		 pop	 edi
  0003c	5e		 pop	 esi
  0003d	5b		 pop	 ebx
  0003e	8b e5		 mov	 esp, ebp
  00040	5d		 pop	 ebp
  00041	c2 04 00	 ret	 4
??$_Erase_head@V?$allocator@U?$_Tree_node@U?$pair@$$CBKK@std@@PAX@std@@@std@@@?$_Tree_val@U?$_Tree_simple_types@U?$pair@$$CBKK@std@@@std@@@std@@QAEXAAV?$allocator@U?$_Tree_node@U?$pair@$$CBKK@std@@PAX@std@@@1@@Z ENDP ; std::_Tree_val<std::_Tree_simple_types<std::pair<unsigned long const ,unsigned long> > >::_Erase_head<std::allocator<std::_Tree_node<std::pair<unsigned long const ,unsigned long>,void *> > >
_TEXT	ENDS
; Function compile flags: /Odtp /ZI
; File C:\Program Files (x86)\Microsoft Visual Studio\2019\Community\VC\Tools\MSVC\14.27.29110\include\xtree
;	COMDAT ??$_Erase_tree@V?$allocator@U?$_Tree_node@U?$pair@$$CBKK@std@@PAX@std@@@std@@@?$_Tree_val@U?$_Tree_simple_types@U?$pair@$$CBKK@std@@@std@@@std@@QAEXAAV?$allocator@U?$_Tree_node@U?$pair@$$CBKK@std@@PAX@std@@@1@PAU?$_Tree_node@U?$pair@$$CBKK@std@@PAX@1@@Z
_TEXT	SEGMENT
_this$ = -4						; size = 4
__Al$ = 8						; size = 4
__Rootnode$ = 12					; size = 4
??$_Erase_tree@V?$allocator@U?$_Tree_node@U?$pair@$$CBKK@std@@PAX@std@@@std@@@?$_Tree_val@U?$_Tree_simple_types@U?$pair@$$CBKK@std@@@std@@@std@@QAEXAAV?$allocator@U?$_Tree_node@U?$pair@$$CBKK@std@@PAX@std@@@1@PAU?$_Tree_node@U?$pair@$$CBKK@std@@PAX@1@@Z PROC ; std::_Tree_val<std::_Tree_simple_types<std::pair<unsigned long const ,unsigned long> > >::_Erase_tree<std::allocator<std::_Tree_node<std::pair<unsigned long const ,unsigned long>,void *> > >, COMDAT
; _this$ = ecx

; 742  :     void _Erase_tree(_Alnode& _Al, _Nodeptr _Rootnode) noexcept {

  00000	55		 push	 ebp
  00001	8b ec		 mov	 ebp, esp
  00003	83 ec 44	 sub	 esp, 68			; 00000044H
  00006	53		 push	 ebx
  00007	56		 push	 esi
  00008	57		 push	 edi
  00009	89 4d fc	 mov	 DWORD PTR _this$[ebp], ecx
$LN2@Erase_tree:

; 743  :         while (!_Rootnode->_Isnil) { // free subtrees, then node

  0000c	8b 45 0c	 mov	 eax, DWORD PTR __Rootnode$[ebp]
  0000f	0f be 48 0d	 movsx	 ecx, BYTE PTR [eax+13]
  00013	85 c9		 test	 ecx, ecx
  00015	75 32		 jne	 SHORT $LN4@Erase_tree

; 744  :             _Erase_tree(_Al, _Rootnode->_Right);

  00017	8b 45 0c	 mov	 eax, DWORD PTR __Rootnode$[ebp]
  0001a	8b 48 08	 mov	 ecx, DWORD PTR [eax+8]
  0001d	51		 push	 ecx
  0001e	8b 55 08	 mov	 edx, DWORD PTR __Al$[ebp]
  00021	52		 push	 edx
  00022	8b 4d fc	 mov	 ecx, DWORD PTR _this$[ebp]
  00025	e8 00 00 00 00	 call	 ??$_Erase_tree@V?$allocator@U?$_Tree_node@U?$pair@$$CBKK@std@@PAX@std@@@std@@@?$_Tree_val@U?$_Tree_simple_types@U?$pair@$$CBKK@std@@@std@@@std@@QAEXAAV?$allocator@U?$_Tree_node@U?$pair@$$CBKK@std@@PAX@std@@@1@PAU?$_Tree_node@U?$pair@$$CBKK@std@@PAX@1@@Z ; std::_Tree_val<std::_Tree_simple_types<std::pair<unsigned long const ,unsigned long> > >::_Erase_tree<std::allocator<std::_Tree_node<std::pair<unsigned long const ,unsigned long>,void *> > >

; 745  :             _Alnode::value_type::_Freenode(_Al, _STD exchange(_Rootnode, _Rootnode->_Left));

  0002a	8b 45 0c	 mov	 eax, DWORD PTR __Rootnode$[ebp]
  0002d	50		 push	 eax
  0002e	8d 4d 0c	 lea	 ecx, DWORD PTR __Rootnode$[ebp]
  00031	51		 push	 ecx
  00032	e8 00 00 00 00	 call	 ??$exchange@PAU?$_Tree_node@U?$pair@$$CBKK@std@@PAX@std@@AAPAU12@@std@@YAPAU?$_Tree_node@U?$pair@$$CBKK@std@@PAX@0@AAPAU10@0@Z ; std::exchange<std::_Tree_node<std::pair<unsigned long const ,unsigned long>,void *> *,std::_Tree_node<std::pair<unsigned long const ,unsigned long>,void *> * &>
  00037	83 c4 08	 add	 esp, 8
  0003a	50		 push	 eax
  0003b	8b 55 08	 mov	 edx, DWORD PTR __Al$[ebp]
  0003e	52		 push	 edx
  0003f	e8 00 00 00 00	 call	 ??$_Freenode@V?$allocator@U?$_Tree_node@U?$pair@$$CBKK@std@@PAX@std@@@std@@@?$_Tree_node@U?$pair@$$CBKK@std@@PAX@std@@SAXAAV?$allocator@U?$_Tree_node@U?$pair@$$CBKK@std@@PAX@std@@@1@PAU01@@Z ; std::_Tree_node<std::pair<unsigned long const ,unsigned long>,void *>::_Freenode<std::allocator<std::_Tree_node<std::pair<unsigned long const ,unsigned long>,void *> > >
  00044	83 c4 08	 add	 esp, 8

; 746  :         }

  00047	eb c3		 jmp	 SHORT $LN2@Erase_tree
$LN4@Erase_tree:

; 747  :     }

  00049	5f		 pop	 edi
  0004a	5e		 pop	 esi
  0004b	5b		 pop	 ebx
  0004c	8b e5		 mov	 esp, ebp
  0004e	5d		 pop	 ebp
  0004f	c2 08 00	 ret	 8
??$_Erase_tree@V?$allocator@U?$_Tree_node@U?$pair@$$CBKK@std@@PAX@std@@@std@@@?$_Tree_val@U?$_Tree_simple_types@U?$pair@$$CBKK@std@@@std@@@std@@QAEXAAV?$allocator@U?$_Tree_node@U?$pair@$$CBKK@std@@PAX@std@@@1@PAU?$_Tree_node@U?$pair@$$CBKK@std@@PAX@1@@Z ENDP ; std::_Tree_val<std::_Tree_simple_types<std::pair<unsigned long const ,unsigned long> > >::_Erase_tree<std::allocator<std::_Tree_node<std::pair<unsigned long const ,unsigned long>,void *> > >
_TEXT	ENDS
; Function compile flags: /Odtp /ZI
; File C:\Program Files (x86)\Microsoft Visual Studio\2019\Community\VC\Tools\MSVC\14.27.29110\include\map
;	COMDAT ??$insert@U?$pair@KK@std@@$0A@@?$map@KKU?$less@K@std@@V?$allocator@U?$pair@$$CBKK@std@@@2@@std@@QAE?AU?$pair@V?$_Tree_iterator@V?$_Tree_val@U?$_Tree_simple_types@U?$pair@$$CBKK@std@@@std@@@std@@@std@@_N@1@$$QAU?$pair@KK@1@@Z
_TEXT	SEGMENT
_this$ = -4						; size = 4
___$ReturnUdt$ = 8					; size = 4
__Val$ = 12						; size = 4
??$insert@U?$pair@KK@std@@$0A@@?$map@KKU?$less@K@std@@V?$allocator@U?$pair@$$CBKK@std@@@2@@std@@QAE?AU?$pair@V?$_Tree_iterator@V?$_Tree_val@U?$_Tree_simple_types@U?$pair@$$CBKK@std@@@std@@@std@@@std@@_N@1@$$QAU?$pair@KK@1@@Z PROC ; std::map<unsigned long,unsigned long,std::less<unsigned long>,std::allocator<std::pair<unsigned long const ,unsigned long> > >::insert<std::pair<unsigned long,unsigned long>,0>, COMDAT
; _this$ = ecx

; 164  :     pair<iterator, bool> insert(_Valty&& _Val) {

  00000	55		 push	 ebp
  00001	8b ec		 mov	 ebp, esp
  00003	83 ec 44	 sub	 esp, 68			; 00000044H
  00006	53		 push	 ebx
  00007	56		 push	 esi
  00008	57		 push	 edi
  00009	89 4d fc	 mov	 DWORD PTR _this$[ebp], ecx

; 165  :         return this->emplace(_STD forward<_Valty>(_Val));

  0000c	8b 45 0c	 mov	 eax, DWORD PTR __Val$[ebp]
  0000f	50		 push	 eax
  00010	e8 00 00 00 00	 call	 ??$forward@U?$pair@KK@std@@@std@@YA$$QAU?$pair@KK@0@AAU10@@Z ; std::forward<std::pair<unsigned long,unsigned long> >
  00015	83 c4 04	 add	 esp, 4
  00018	50		 push	 eax
  00019	8b 4d 08	 mov	 ecx, DWORD PTR ___$ReturnUdt$[ebp]
  0001c	51		 push	 ecx
  0001d	8b 4d fc	 mov	 ecx, DWORD PTR _this$[ebp]
  00020	e8 00 00 00 00	 call	 ??$emplace@U?$pair@KK@std@@@?$_Tree@V?$_Tmap_traits@KKU?$less@K@std@@V?$allocator@U?$pair@$$CBKK@std@@@2@$0A@@std@@@std@@QAE?AU?$pair@V?$_Tree_iterator@V?$_Tree_val@U?$_Tree_simple_types@U?$pair@$$CBKK@std@@@std@@@std@@@std@@_N@1@$$QAU?$pair@KK@1@@Z ; std::_Tree<std::_Tmap_traits<unsigned long,unsigned long,std::less<unsigned long>,std::allocator<std::pair<unsigned long const ,unsigned long> >,0> >::emplace<std::pair<unsigned long,unsigned long> >
  00025	8b 45 08	 mov	 eax, DWORD PTR ___$ReturnUdt$[ebp]

; 166  :     }

  00028	5f		 pop	 edi
  00029	5e		 pop	 esi
  0002a	5b		 pop	 ebx
  0002b	8b e5		 mov	 esp, ebp
  0002d	5d		 pop	 ebp
  0002e	c2 08 00	 ret	 8
??$insert@U?$pair@KK@std@@$0A@@?$map@KKU?$less@K@std@@V?$allocator@U?$pair@$$CBKK@std@@@2@@std@@QAE?AU?$pair@V?$_Tree_iterator@V?$_Tree_val@U?$_Tree_simple_types@U?$pair@$$CBKK@std@@@std@@@std@@@std@@_N@1@$$QAU?$pair@KK@1@@Z ENDP ; std::map<unsigned long,unsigned long,std::less<unsigned long>,std::allocator<std::pair<unsigned long const ,unsigned long> > >::insert<std::pair<unsigned long,unsigned long>,0>
_TEXT	ENDS
; Function compile flags: /Odtp /ZI
; File C:\Program Files (x86)\Microsoft Visual Studio\2019\Community\VC\Tools\MSVC\14.27.29110\include\utility
;	COMDAT ??$?0KK$0A@@?$pair@$$CBKK@std@@QAE@$$QAU?$pair@KK@1@@Z
_TEXT	SEGMENT
_this$ = -4						; size = 4
__Right$ = 8						; size = 4
??$?0KK$0A@@?$pair@$$CBKK@std@@QAE@$$QAU?$pair@KK@1@@Z PROC ; std::pair<unsigned long const ,unsigned long>::pair<unsigned long const ,unsigned long><unsigned long,unsigned long,0>, COMDAT
; _this$ = ecx

; 248  :         : first(_STD forward<_Other1>(_Right.first)), second(_STD forward<_Other2>(_Right.second)) {}

  00000	55		 push	 ebp
  00001	8b ec		 mov	 ebp, esp
  00003	83 ec 44	 sub	 esp, 68			; 00000044H
  00006	53		 push	 ebx
  00007	56		 push	 esi
  00008	57		 push	 edi
  00009	89 4d fc	 mov	 DWORD PTR _this$[ebp], ecx
  0000c	8b 45 08	 mov	 eax, DWORD PTR __Right$[ebp]
  0000f	50		 push	 eax
  00010	e8 00 00 00 00	 call	 ??$forward@K@std@@YA$$QAKAAK@Z ; std::forward<unsigned long>
  00015	83 c4 04	 add	 esp, 4
  00018	8b 4d fc	 mov	 ecx, DWORD PTR _this$[ebp]
  0001b	8b 10		 mov	 edx, DWORD PTR [eax]
  0001d	89 11		 mov	 DWORD PTR [ecx], edx
  0001f	8b 45 08	 mov	 eax, DWORD PTR __Right$[ebp]
  00022	83 c0 04	 add	 eax, 4
  00025	50		 push	 eax
  00026	e8 00 00 00 00	 call	 ??$forward@K@std@@YA$$QAKAAK@Z ; std::forward<unsigned long>
  0002b	83 c4 04	 add	 esp, 4
  0002e	8b 4d fc	 mov	 ecx, DWORD PTR _this$[ebp]
  00031	8b 10		 mov	 edx, DWORD PTR [eax]
  00033	89 51 04	 mov	 DWORD PTR [ecx+4], edx
  00036	8b 45 fc	 mov	 eax, DWORD PTR _this$[ebp]
  00039	5f		 pop	 edi
  0003a	5e		 pop	 esi
  0003b	5b		 pop	 ebx
  0003c	8b e5		 mov	 esp, ebp
  0003e	5d		 pop	 ebp
  0003f	c2 04 00	 ret	 4
??$?0KK$0A@@?$pair@$$CBKK@std@@QAE@$$QAU?$pair@KK@1@@Z ENDP ; std::pair<unsigned long const ,unsigned long>::pair<unsigned long const ,unsigned long><unsigned long,unsigned long,0>
_TEXT	ENDS
; Function compile flags: /Odtp /ZI
; File C:\Program Files (x86)\Microsoft Visual Studio\2019\Community\VC\Tools\MSVC\14.27.29110\include\utility
;	COMDAT ??$make_pair@AAKAAK@std@@YA?AU?$pair@KK@0@AAK0@Z
_TEXT	SEGMENT
___$ReturnUdt$ = 8					; size = 4
__Val1$ = 12						; size = 4
__Val2$ = 16						; size = 4
??$make_pair@AAKAAK@std@@YA?AU?$pair@KK@0@AAK0@Z PROC	; std::make_pair<unsigned long &,unsigned long &>, COMDAT

; 389  :         is_nothrow_constructible_v<_Unrefwrap_t<_Ty2>, _Ty2>) /* strengthened */ {

  00000	55		 push	 ebp
  00001	8b ec		 mov	 ebp, esp
  00003	83 ec 40	 sub	 esp, 64			; 00000040H
  00006	53		 push	 ebx
  00007	56		 push	 esi
  00008	57		 push	 edi

; 390  :     // return pair composed from arguments
; 391  :     using _Mypair = pair<_Unrefwrap_t<_Ty1>, _Unrefwrap_t<_Ty2>>;
; 392  :     return _Mypair(_STD forward<_Ty1>(_Val1), _STD forward<_Ty2>(_Val2));

  00009	8b 45 10	 mov	 eax, DWORD PTR __Val2$[ebp]
  0000c	50		 push	 eax
  0000d	e8 00 00 00 00	 call	 ??$forward@AAK@std@@YAAAKAAK@Z ; std::forward<unsigned long &>
  00012	83 c4 04	 add	 esp, 4
  00015	50		 push	 eax
  00016	8b 4d 0c	 mov	 ecx, DWORD PTR __Val1$[ebp]
  00019	51		 push	 ecx
  0001a	e8 00 00 00 00	 call	 ??$forward@AAK@std@@YAAAKAAK@Z ; std::forward<unsigned long &>
  0001f	83 c4 04	 add	 esp, 4
  00022	50		 push	 eax
  00023	8b 4d 08	 mov	 ecx, DWORD PTR ___$ReturnUdt$[ebp]
  00026	e8 00 00 00 00	 call	 ??$?0AAKAAK$0A@@?$pair@KK@std@@QAE@AAK0@Z ; std::pair<unsigned long,unsigned long>::pair<unsigned long,unsigned long><unsigned long &,unsigned long &,0>
  0002b	8b 45 08	 mov	 eax, DWORD PTR ___$ReturnUdt$[ebp]

; 393  : }

  0002e	5f		 pop	 edi
  0002f	5e		 pop	 esi
  00030	5b		 pop	 ebx
  00031	8b e5		 mov	 esp, ebp
  00033	5d		 pop	 ebp
  00034	c3		 ret	 0
??$make_pair@AAKAAK@std@@YA?AU?$pair@KK@0@AAK0@Z ENDP	; std::make_pair<unsigned long &,unsigned long &>
_TEXT	ENDS
; Function compile flags: /Odtp /ZI
;	COMDAT ??__Fg_GlobalConfig@@YAXXZ
text$yd	SEGMENT
??__Fg_GlobalConfig@@YAXXZ PROC				; `dynamic atexit destructor for 'g_GlobalConfig'', COMDAT
  00000	55		 push	 ebp
  00001	8b ec		 mov	 ebp, esp
  00003	83 ec 40	 sub	 esp, 64			; 00000040H
  00006	53		 push	 ebx
  00007	56		 push	 esi
  00008	57		 push	 edi
  00009	b9 00 00 00 00	 mov	 ecx, OFFSET ?g_GlobalConfig@@3VCGlobalConfig@@A ; g_GlobalConfig
  0000e	e8 00 00 00 00	 call	 ??1CGlobalConfig@@QAE@XZ
  00013	5f		 pop	 edi
  00014	5e		 pop	 esi
  00015	5b		 pop	 ebx
  00016	8b e5		 mov	 esp, ebp
  00018	5d		 pop	 ebp
  00019	c3		 ret	 0
??__Fg_GlobalConfig@@YAXXZ ENDP				; `dynamic atexit destructor for 'g_GlobalConfig''
text$yd	ENDS
; Function compile flags: /Odtp /ZI
; File C:\Mu Online\Mu-GS-Webzen-MC-10093\GameServer\Global.cpp
;	COMDAT ??__Eg_GlobalConfig@@YAXXZ
text$di	SEGMENT
??__Eg_GlobalConfig@@YAXXZ PROC				; `dynamic initializer for 'g_GlobalConfig'', COMDAT

; 7    : CGlobalConfig g_GlobalConfig;

  00000	55		 push	 ebp
  00001	8b ec		 mov	 ebp, esp
  00003	83 ec 40	 sub	 esp, 64			; 00000040H
  00006	53		 push	 ebx
  00007	56		 push	 esi
  00008	57		 push	 edi
  00009	b9 00 00 00 00	 mov	 ecx, OFFSET ?g_GlobalConfig@@3VCGlobalConfig@@A ; g_GlobalConfig
  0000e	e8 00 00 00 00	 call	 ??0CGlobalConfig@@QAE@XZ
  00013	68 00 00 00 00	 push	 OFFSET ??__Fg_GlobalConfig@@YAXXZ ; `dynamic atexit destructor for 'g_GlobalConfig''
  00018	e8 00 00 00 00	 call	 _atexit
  0001d	83 c4 04	 add	 esp, 4
  00020	5f		 pop	 edi
  00021	5e		 pop	 esi
  00022	5b		 pop	 ebx
  00023	8b e5		 mov	 esp, ebp
  00025	5d		 pop	 ebp
  00026	c3		 ret	 0
??__Eg_GlobalConfig@@YAXXZ ENDP				; `dynamic initializer for 'g_GlobalConfig''
text$di	ENDS
; Function compile flags: /Odtp /ZI
; File C:\Mu Online\Mu-GS-Webzen-MC-10093\include\Readscript.h
;	COMDAT ?GetToken@@YA?AW4SMDToken@@XZ
_TEXT	SEGMENT
tv93 = -184						; size = 4
$T1 = -180						; size = 4
_TempString$ = -112					; size = 100
_p$ = -12						; size = 4
_ch$ = -5						; size = 1
__$ArrayPad$ = -4					; size = 4
?GetToken@@YA?AW4SMDToken@@XZ PROC			; GetToken, COMDAT

; 25   : {

  00000	55		 push	 ebp
  00001	8b ec		 mov	 ebp, esp
  00003	81 ec b8 00 00
	00		 sub	 esp, 184		; 000000b8H
  00009	a1 00 00 00 00	 mov	 eax, DWORD PTR ___security_cookie
  0000e	33 c5		 xor	 eax, ebp
  00010	89 45 fc	 mov	 DWORD PTR __$ArrayPad$[ebp], eax
  00013	53		 push	 ebx
  00014	56		 push	 esi
  00015	57		 push	 edi

; 26   : 	unsigned char ch;
; 27   : 	TokenString[0] = '\0';

  00016	b8 01 00 00 00	 mov	 eax, 1
  0001b	6b c8 00	 imul	 ecx, eax, 0
  0001e	89 8d 4c ff ff
	ff		 mov	 DWORD PTR $T1[ebp], ecx
  00024	83 bd 4c ff ff
	ff 64		 cmp	 DWORD PTR $T1[ebp], 100	; 00000064H
  0002b	73 02		 jae	 SHORT $LN31@GetToken
  0002d	eb 05		 jmp	 SHORT $LN32@GetToken
$LN31@GetToken:
  0002f	e8 00 00 00 00	 call	 ___report_rangecheckfailure
$LN32@GetToken:
  00034	8b 95 4c ff ff
	ff		 mov	 edx, DWORD PTR $T1[ebp]
  0003a	c6 82 00 00 00
	00 00		 mov	 BYTE PTR ?TokenString@@3PADA[edx], 0
$LN4@GetToken:

; 28   : 	do
; 29   : 	{
; 30   : 		if ( (ch =(unsigned char) fgetc(SMDFile)) == (BYTE)EOF) return END;

  00041	a1 00 00 00 00	 mov	 eax, DWORD PTR ?SMDFile@@3PAU_iobuf@@A
  00046	50		 push	 eax
  00047	e8 00 00 00 00	 call	 _fgetc
  0004c	83 c4 04	 add	 esp, 4
  0004f	88 45 fb	 mov	 BYTE PTR _ch$[ebp], al
  00052	0f b6 4d fb	 movzx	 ecx, BYTE PTR _ch$[ebp]
  00056	81 f9 ff 00 00
	00		 cmp	 ecx, 255		; 000000ffH
  0005c	75 0a		 jne	 SHORT $LN15@GetToken
  0005e	b8 02 00 00 00	 mov	 eax, 2
  00063	e9 d9 02 00 00	 jmp	 $LN7@GetToken
$LN15@GetToken:

; 31   : 		if (ch=='/' && (ch =(unsigned char) fgetc(SMDFile) )=='/')	

  00068	0f b6 45 fb	 movzx	 eax, BYTE PTR _ch$[ebp]
  0006c	83 f8 2f	 cmp	 eax, 47			; 0000002fH
  0006f	75 56		 jne	 SHORT $LN17@GetToken
  00071	a1 00 00 00 00	 mov	 eax, DWORD PTR ?SMDFile@@3PAU_iobuf@@A
  00076	50		 push	 eax
  00077	e8 00 00 00 00	 call	 _fgetc
  0007c	83 c4 04	 add	 esp, 4
  0007f	88 45 fb	 mov	 BYTE PTR _ch$[ebp], al
  00082	0f b6 4d fb	 movzx	 ecx, BYTE PTR _ch$[ebp]
  00086	83 f9 2f	 cmp	 ecx, 47			; 0000002fH
  00089	75 3c		 jne	 SHORT $LN17@GetToken
$LN5@GetToken:

; 32   : 		{
; 33   : 			while((ch != '\n') && (ch != (BYTE)EOF)) {			// 2003.09.02 H.J.I 

  0008b	0f b6 45 fb	 movzx	 eax, BYTE PTR _ch$[ebp]
  0008f	83 f8 0a	 cmp	 eax, 10			; 0000000aH
  00092	74 1e		 je	 SHORT $LN6@GetToken
  00094	0f b6 45 fb	 movzx	 eax, BYTE PTR _ch$[ebp]
  00098	3d ff 00 00 00	 cmp	 eax, 255		; 000000ffH
  0009d	74 13		 je	 SHORT $LN6@GetToken

; 34   : 				ch = (unsigned char) fgetc( SMDFile);

  0009f	a1 00 00 00 00	 mov	 eax, DWORD PTR ?SMDFile@@3PAU_iobuf@@A
  000a4	50		 push	 eax
  000a5	e8 00 00 00 00	 call	 _fgetc
  000aa	83 c4 04	 add	 esp, 4
  000ad	88 45 fb	 mov	 BYTE PTR _ch$[ebp], al

; 35   : 			}

  000b0	eb d9		 jmp	 SHORT $LN5@GetToken
$LN6@GetToken:

; 36   : 
; 37   : 			if (ch == (BYTE)EOF)

  000b2	0f b6 45 fb	 movzx	 eax, BYTE PTR _ch$[ebp]
  000b6	3d ff 00 00 00	 cmp	 eax, 255		; 000000ffH
  000bb	75 0a		 jne	 SHORT $LN17@GetToken

; 38   : 				return END;

  000bd	b8 02 00 00 00	 mov	 eax, 2
  000c2	e9 7a 02 00 00	 jmp	 $LN7@GetToken
$LN17@GetToken:

; 39   : 		}
; 40   : 	} while(  isspace(ch) );

  000c7	0f b6 45 fb	 movzx	 eax, BYTE PTR _ch$[ebp]
  000cb	50		 push	 eax
  000cc	e8 00 00 00 00	 call	 _isspace
  000d1	83 c4 04	 add	 esp, 4
  000d4	85 c0		 test	 eax, eax
  000d6	0f 85 65 ff ff
	ff		 jne	 $LN4@GetToken

; 41   : 	
; 42   : 	char *p, TempString[100];
; 43   : 	switch(ch)

  000dc	0f b6 45 fb	 movzx	 eax, BYTE PTR _ch$[ebp]
  000e0	89 85 48 ff ff
	ff		 mov	 DWORD PTR tv93[ebp], eax
  000e6	8b 8d 48 ff ff
	ff		 mov	 ecx, DWORD PTR tv93[ebp]
  000ec	83 e9 22	 sub	 ecx, 34			; 00000022H
  000ef	89 8d 48 ff ff
	ff		 mov	 DWORD PTR tv93[ebp], ecx
  000f5	83 bd 48 ff ff
	ff 5b		 cmp	 DWORD PTR tv93[ebp], 91	; 0000005bH
  000fc	0f 87 86 01 00
	00		 ja	 $LN27@GetToken
  00102	8b 95 48 ff ff
	ff		 mov	 edx, DWORD PTR tv93[ebp]
  00108	0f b6 82 00 00
	00 00		 movzx	 eax, BYTE PTR $LN33@GetToken[edx]
  0010f	ff 24 85 00 00
	00 00		 jmp	 DWORD PTR $LN34@GetToken[eax*4]
$LN18@GetToken:

; 44   : 	{	
; 45   : 	case '#':
; 46   : 		return CurrentToken = COMMAND;

  00116	c7 05 00 00 00
	00 23 00 00 00	 mov	 DWORD PTR ?CurrentToken@@3W4SMDToken@@A, 35 ; 00000023H
  00120	a1 00 00 00 00	 mov	 eax, DWORD PTR ?CurrentToken@@3W4SMDToken@@A
  00125	e9 17 02 00 00	 jmp	 $LN7@GetToken
$LN19@GetToken:

; 47   : 	case ';':
; 48   : 		return CurrentToken = SEMICOLON;

  0012a	c7 05 00 00 00
	00 3b 00 00 00	 mov	 DWORD PTR ?CurrentToken@@3W4SMDToken@@A, 59 ; 0000003bH
  00134	a1 00 00 00 00	 mov	 eax, DWORD PTR ?CurrentToken@@3W4SMDToken@@A
  00139	e9 03 02 00 00	 jmp	 $LN7@GetToken
$LN20@GetToken:

; 49   : 	case ',':
; 50   : 		return CurrentToken = COMMA;

  0013e	c7 05 00 00 00
	00 2c 00 00 00	 mov	 DWORD PTR ?CurrentToken@@3W4SMDToken@@A, 44 ; 0000002cH
  00148	a1 00 00 00 00	 mov	 eax, DWORD PTR ?CurrentToken@@3W4SMDToken@@A
  0014d	e9 ef 01 00 00	 jmp	 $LN7@GetToken
$LN21@GetToken:

; 51   : 	case '{':
; 52   : 		return CurrentToken = LP;

  00152	c7 05 00 00 00
	00 7b 00 00 00	 mov	 DWORD PTR ?CurrentToken@@3W4SMDToken@@A, 123 ; 0000007bH
  0015c	a1 00 00 00 00	 mov	 eax, DWORD PTR ?CurrentToken@@3W4SMDToken@@A
  00161	e9 db 01 00 00	 jmp	 $LN7@GetToken
$LN22@GetToken:

; 53   : 	case '}':
; 54   : 		return CurrentToken = RP;

  00166	c7 05 00 00 00
	00 7d 00 00 00	 mov	 DWORD PTR ?CurrentToken@@3W4SMDToken@@A, 125 ; 0000007dH
  00170	a1 00 00 00 00	 mov	 eax, DWORD PTR ?CurrentToken@@3W4SMDToken@@A
  00175	e9 c7 01 00 00	 jmp	 $LN7@GetToken
$LN23@GetToken:

; 55   : 	case '0':	case '1':	case '2':	case '3':	case '4':
; 56   : 	case '5':	case '6':	case '7':	case '8':	case '9':
; 57   : 	case '.':	case '-':
; 58   : 		ungetc(ch,SMDFile);

  0017a	a1 00 00 00 00	 mov	 eax, DWORD PTR ?SMDFile@@3PAU_iobuf@@A
  0017f	50		 push	 eax
  00180	0f b6 4d fb	 movzx	 ecx, BYTE PTR _ch$[ebp]
  00184	51		 push	 ecx
  00185	e8 00 00 00 00	 call	 _ungetc
  0018a	83 c4 08	 add	 esp, 8

; 59   : 		p = TempString;

  0018d	8d 45 90	 lea	 eax, DWORD PTR _TempString$[ebp]
  00190	89 45 f4	 mov	 DWORD PTR _p$[ebp], eax
$LN9@GetToken:

; 60   : 		while ( (  (ch = getc(SMDFile) ) !=(BYTE)EOF) && (ch=='.' || isdigit(ch) || ch=='-') )

  00193	a1 00 00 00 00	 mov	 eax, DWORD PTR ?SMDFile@@3PAU_iobuf@@A
  00198	50		 push	 eax
  00199	e8 00 00 00 00	 call	 _getc
  0019e	83 c4 04	 add	 esp, 4
  001a1	88 45 fb	 mov	 BYTE PTR _ch$[ebp], al
  001a4	0f b6 4d fb	 movzx	 ecx, BYTE PTR _ch$[ebp]
  001a8	81 f9 ff 00 00
	00		 cmp	 ecx, 255		; 000000ffH
  001ae	74 36		 je	 SHORT $LN10@GetToken
  001b0	0f b6 45 fb	 movzx	 eax, BYTE PTR _ch$[ebp]
  001b4	83 f8 2e	 cmp	 eax, 46			; 0000002eH
  001b7	74 1a		 je	 SHORT $LN24@GetToken
  001b9	0f b6 45 fb	 movzx	 eax, BYTE PTR _ch$[ebp]
  001bd	50		 push	 eax
  001be	e8 00 00 00 00	 call	 _isdigit
  001c3	83 c4 04	 add	 esp, 4
  001c6	85 c0		 test	 eax, eax
  001c8	75 09		 jne	 SHORT $LN24@GetToken
  001ca	0f b6 45 fb	 movzx	 eax, BYTE PTR _ch$[ebp]
  001ce	83 f8 2d	 cmp	 eax, 45			; 0000002dH
  001d1	75 13		 jne	 SHORT $LN10@GetToken
$LN24@GetToken:

; 61   : 			*p++ = ch;

  001d3	8b 45 f4	 mov	 eax, DWORD PTR _p$[ebp]
  001d6	8a 4d fb	 mov	 cl, BYTE PTR _ch$[ebp]
  001d9	88 08		 mov	 BYTE PTR [eax], cl
  001db	8b 55 f4	 mov	 edx, DWORD PTR _p$[ebp]
  001de	83 c2 01	 add	 edx, 1
  001e1	89 55 f4	 mov	 DWORD PTR _p$[ebp], edx
  001e4	eb ad		 jmp	 SHORT $LN9@GetToken
$LN10@GetToken:

; 62   : 		*p = 0;

  001e6	8b 45 f4	 mov	 eax, DWORD PTR _p$[ebp]
  001e9	c6 00 00	 mov	 BYTE PTR [eax], 0

; 63   : 		TokenNumber = (float)atof(TempString);

  001ec	8d 45 90	 lea	 eax, DWORD PTR _TempString$[ebp]
  001ef	50		 push	 eax
  001f0	e8 00 00 00 00	 call	 _atof
  001f5	83 c4 04	 add	 esp, 4
  001f8	d9 1d 00 00 00
	00		 fstp	 DWORD PTR ?TokenNumber@@3MA

; 64   : 		//			sscanf(TempString," %f ",&TokenNumber);
; 65   : 		return CurrentToken = NUMBER;

  001fe	c7 05 00 00 00
	00 01 00 00 00	 mov	 DWORD PTR ?CurrentToken@@3W4SMDToken@@A, 1
  00208	a1 00 00 00 00	 mov	 eax, DWORD PTR ?CurrentToken@@3W4SMDToken@@A
  0020d	e9 2f 01 00 00	 jmp	 $LN7@GetToken
$LN25@GetToken:

; 66   : 	case '"':
; 67   : 		p = TokenString;

  00212	c7 45 f4 00 00
	00 00		 mov	 DWORD PTR _p$[ebp], OFFSET ?TokenString@@3PADA
$LN11@GetToken:

; 68   : 		while ( (  (ch = getc(SMDFile) ) !=(BYTE)EOF) && (ch!='"'))// || isalnum(ch)) )

  00219	a1 00 00 00 00	 mov	 eax, DWORD PTR ?SMDFile@@3PAU_iobuf@@A
  0021e	50		 push	 eax
  0021f	e8 00 00 00 00	 call	 _getc
  00224	83 c4 04	 add	 esp, 4
  00227	88 45 fb	 mov	 BYTE PTR _ch$[ebp], al
  0022a	0f b6 4d fb	 movzx	 ecx, BYTE PTR _ch$[ebp]
  0022e	81 f9 ff 00 00
	00		 cmp	 ecx, 255		; 000000ffH
  00234	74 1c		 je	 SHORT $LN12@GetToken
  00236	0f b6 45 fb	 movzx	 eax, BYTE PTR _ch$[ebp]
  0023a	83 f8 22	 cmp	 eax, 34			; 00000022H
  0023d	74 13		 je	 SHORT $LN12@GetToken

; 69   : 			*p++ = ch;

  0023f	8b 45 f4	 mov	 eax, DWORD PTR _p$[ebp]
  00242	8a 4d fb	 mov	 cl, BYTE PTR _ch$[ebp]
  00245	88 08		 mov	 BYTE PTR [eax], cl
  00247	8b 55 f4	 mov	 edx, DWORD PTR _p$[ebp]
  0024a	83 c2 01	 add	 edx, 1
  0024d	89 55 f4	 mov	 DWORD PTR _p$[ebp], edx
  00250	eb c7		 jmp	 SHORT $LN11@GetToken
$LN12@GetToken:

; 70   : 		if (ch!='"')

  00252	0f b6 45 fb	 movzx	 eax, BYTE PTR _ch$[ebp]
  00256	83 f8 22	 cmp	 eax, 34			; 00000022H
  00259	74 13		 je	 SHORT $LN26@GetToken

; 71   : 			ungetc(ch,SMDFile);

  0025b	a1 00 00 00 00	 mov	 eax, DWORD PTR ?SMDFile@@3PAU_iobuf@@A
  00260	50		 push	 eax
  00261	0f b6 4d fb	 movzx	 ecx, BYTE PTR _ch$[ebp]
  00265	51		 push	 ecx
  00266	e8 00 00 00 00	 call	 _ungetc
  0026b	83 c4 08	 add	 esp, 8
$LN26@GetToken:

; 72   : 		*p = 0;

  0026e	8b 45 f4	 mov	 eax, DWORD PTR _p$[ebp]
  00271	c6 00 00	 mov	 BYTE PTR [eax], 0

; 73   : 		return CurrentToken = NAME;

  00274	c7 05 00 00 00
	00 00 00 00 00	 mov	 DWORD PTR ?CurrentToken@@3W4SMDToken@@A, 0
  0027e	a1 00 00 00 00	 mov	 eax, DWORD PTR ?CurrentToken@@3W4SMDToken@@A
  00283	e9 b9 00 00 00	 jmp	 $LN7@GetToken
$LN27@GetToken:

; 74   : 	default:
; 75   : 		if (isalpha(ch))	

  00288	0f b6 45 fb	 movzx	 eax, BYTE PTR _ch$[ebp]
  0028c	50		 push	 eax
  0028d	e8 00 00 00 00	 call	 _isalpha
  00292	83 c4 04	 add	 esp, 4
  00295	85 c0		 test	 eax, eax
  00297	0f 84 95 00 00
	00		 je	 $LN28@GetToken

; 76   : 		{
; 77   : 			p = TokenString;

  0029d	c7 45 f4 00 00
	00 00		 mov	 DWORD PTR _p$[ebp], OFFSET ?TokenString@@3PADA

; 78   : 			*p++ = ch;

  002a4	8b 45 f4	 mov	 eax, DWORD PTR _p$[ebp]
  002a7	8a 4d fb	 mov	 cl, BYTE PTR _ch$[ebp]
  002aa	88 08		 mov	 BYTE PTR [eax], cl
  002ac	8b 55 f4	 mov	 edx, DWORD PTR _p$[ebp]
  002af	83 c2 01	 add	 edx, 1
  002b2	89 55 f4	 mov	 DWORD PTR _p$[ebp], edx
$LN13@GetToken:

; 79   : 			while ( (  (ch = getc(SMDFile) ) !=(BYTE)EOF) && (ch=='.' || ch=='_' || isalnum(ch)) )

  002b5	a1 00 00 00 00	 mov	 eax, DWORD PTR ?SMDFile@@3PAU_iobuf@@A
  002ba	50		 push	 eax
  002bb	e8 00 00 00 00	 call	 _getc
  002c0	83 c4 04	 add	 esp, 4
  002c3	88 45 fb	 mov	 BYTE PTR _ch$[ebp], al
  002c6	0f b6 4d fb	 movzx	 ecx, BYTE PTR _ch$[ebp]
  002ca	81 f9 ff 00 00
	00		 cmp	 ecx, 255		; 000000ffH
  002d0	74 36		 je	 SHORT $LN14@GetToken
  002d2	0f b6 45 fb	 movzx	 eax, BYTE PTR _ch$[ebp]
  002d6	83 f8 2e	 cmp	 eax, 46			; 0000002eH
  002d9	74 1a		 je	 SHORT $LN29@GetToken
  002db	0f b6 45 fb	 movzx	 eax, BYTE PTR _ch$[ebp]
  002df	83 f8 5f	 cmp	 eax, 95			; 0000005fH
  002e2	74 11		 je	 SHORT $LN29@GetToken
  002e4	0f b6 45 fb	 movzx	 eax, BYTE PTR _ch$[ebp]
  002e8	50		 push	 eax
  002e9	e8 00 00 00 00	 call	 _isalnum
  002ee	83 c4 04	 add	 esp, 4
  002f1	85 c0		 test	 eax, eax
  002f3	74 13		 je	 SHORT $LN14@GetToken
$LN29@GetToken:

; 80   : 				*p++ = ch;

  002f5	8b 45 f4	 mov	 eax, DWORD PTR _p$[ebp]
  002f8	8a 4d fb	 mov	 cl, BYTE PTR _ch$[ebp]
  002fb	88 08		 mov	 BYTE PTR [eax], cl
  002fd	8b 55 f4	 mov	 edx, DWORD PTR _p$[ebp]
  00300	83 c2 01	 add	 edx, 1
  00303	89 55 f4	 mov	 DWORD PTR _p$[ebp], edx
  00306	eb ad		 jmp	 SHORT $LN13@GetToken
$LN14@GetToken:

; 81   : 			ungetc(ch,SMDFile);

  00308	a1 00 00 00 00	 mov	 eax, DWORD PTR ?SMDFile@@3PAU_iobuf@@A
  0030d	50		 push	 eax
  0030e	0f b6 4d fb	 movzx	 ecx, BYTE PTR _ch$[ebp]
  00312	51		 push	 ecx
  00313	e8 00 00 00 00	 call	 _ungetc
  00318	83 c4 08	 add	 esp, 8

; 82   : 			*p = 0;

  0031b	8b 45 f4	 mov	 eax, DWORD PTR _p$[ebp]
  0031e	c6 00 00	 mov	 BYTE PTR [eax], 0

; 83   : 			return CurrentToken = NAME;

  00321	c7 05 00 00 00
	00 00 00 00 00	 mov	 DWORD PTR ?CurrentToken@@3W4SMDToken@@A, 0
  0032b	a1 00 00 00 00	 mov	 eax, DWORD PTR ?CurrentToken@@3W4SMDToken@@A
  00330	eb 0f		 jmp	 SHORT $LN7@GetToken
$LN28@GetToken:

; 84   : 		}
; 85   : 		return CurrentToken = SMD_ERROR;

  00332	c7 05 00 00 00
	00 3c 00 00 00	 mov	 DWORD PTR ?CurrentToken@@3W4SMDToken@@A, 60 ; 0000003cH
  0033c	a1 00 00 00 00	 mov	 eax, DWORD PTR ?CurrentToken@@3W4SMDToken@@A
$LN7@GetToken:

; 86   : 	}
; 87   : }

  00341	5f		 pop	 edi
  00342	5e		 pop	 esi
  00343	5b		 pop	 ebx
  00344	8b 4d fc	 mov	 ecx, DWORD PTR __$ArrayPad$[ebp]
  00347	33 cd		 xor	 ecx, ebp
  00349	e8 00 00 00 00	 call	 @__security_check_cookie@4
  0034e	8b e5		 mov	 esp, ebp
  00350	5d		 pop	 ebp
  00351	c3		 ret	 0
  00352	66 90		 npad	 2
$LN34@GetToken:
  00354	00 00 00 00	 DD	 $LN25@GetToken
  00358	00 00 00 00	 DD	 $LN18@GetToken
  0035c	00 00 00 00	 DD	 $LN20@GetToken
  00360	00 00 00 00	 DD	 $LN23@GetToken
  00364	00 00 00 00	 DD	 $LN19@GetToken
  00368	00 00 00 00	 DD	 $LN21@GetToken
  0036c	00 00 00 00	 DD	 $LN22@GetToken
  00370	00 00 00 00	 DD	 $LN27@GetToken
$LN33@GetToken:
  00374	00		 DB	 0
  00375	01		 DB	 1
  00376	07		 DB	 7
  00377	07		 DB	 7
  00378	07		 DB	 7
  00379	07		 DB	 7
  0037a	07		 DB	 7
  0037b	07		 DB	 7
  0037c	07		 DB	 7
  0037d	07		 DB	 7
  0037e	02		 DB	 2
  0037f	03		 DB	 3
  00380	03		 DB	 3
  00381	07		 DB	 7
  00382	03		 DB	 3
  00383	03		 DB	 3
  00384	03		 DB	 3
  00385	03		 DB	 3
  00386	03		 DB	 3
  00387	03		 DB	 3
  00388	03		 DB	 3
  00389	03		 DB	 3
  0038a	03		 DB	 3
  0038b	03		 DB	 3
  0038c	07		 DB	 7
  0038d	04		 DB	 4
  0038e	07		 DB	 7
  0038f	07		 DB	 7
  00390	07		 DB	 7
  00391	07		 DB	 7
  00392	07		 DB	 7
  00393	07		 DB	 7
  00394	07		 DB	 7
  00395	07		 DB	 7
  00396	07		 DB	 7
  00397	07		 DB	 7
  00398	07		 DB	 7
  00399	07		 DB	 7
  0039a	07		 DB	 7
  0039b	07		 DB	 7
  0039c	07		 DB	 7
  0039d	07		 DB	 7
  0039e	07		 DB	 7
  0039f	07		 DB	 7
  003a0	07		 DB	 7
  003a1	07		 DB	 7
  003a2	07		 DB	 7
  003a3	07		 DB	 7
  003a4	07		 DB	 7
  003a5	07		 DB	 7
  003a6	07		 DB	 7
  003a7	07		 DB	 7
  003a8	07		 DB	 7
  003a9	07		 DB	 7
  003aa	07		 DB	 7
  003ab	07		 DB	 7
  003ac	07		 DB	 7
  003ad	07		 DB	 7
  003ae	07		 DB	 7
  003af	07		 DB	 7
  003b0	07		 DB	 7
  003b1	07		 DB	 7
  003b2	07		 DB	 7
  003b3	07		 DB	 7
  003b4	07		 DB	 7
  003b5	07		 DB	 7
  003b6	07		 DB	 7
  003b7	07		 DB	 7
  003b8	07		 DB	 7
  003b9	07		 DB	 7
  003ba	07		 DB	 7
  003bb	07		 DB	 7
  003bc	07		 DB	 7
  003bd	07		 DB	 7
  003be	07		 DB	 7
  003bf	07		 DB	 7
  003c0	07		 DB	 7
  003c1	07		 DB	 7
  003c2	07		 DB	 7
  003c3	07		 DB	 7
  003c4	07		 DB	 7
  003c5	07		 DB	 7
  003c6	07		 DB	 7
  003c7	07		 DB	 7
  003c8	07		 DB	 7
  003c9	07		 DB	 7
  003ca	07		 DB	 7
  003cb	07		 DB	 7
  003cc	07		 DB	 7
  003cd	05		 DB	 5
  003ce	07		 DB	 7
  003cf	06		 DB	 6
?GetToken@@YA?AW4SMDToken@@XZ ENDP			; GetToken
_TEXT	ENDS
; Function compile flags: /Odtp /ZI
; File C:\Program Files (x86)\Microsoft Visual Studio\2019\Community\VC\Tools\MSVC\14.27.29110\include\map
;	COMDAT ??$_Kfn@$$CBKK@?$_Tmap_traits@KKU?$less@K@std@@V?$allocator@U?$pair@$$CBKK@std@@@2@$0A@@std@@SAABKABU?$pair@$$CBKK@1@@Z
_TEXT	SEGMENT
__Val$ = 8						; size = 4
??$_Kfn@$$CBKK@?$_Tmap_traits@KKU?$less@K@std@@V?$allocator@U?$pair@$$CBKK@std@@@2@$0A@@std@@SAABKABU?$pair@$$CBKK@1@@Z PROC ; std::_Tmap_traits<unsigned long,unsigned long,std::less<unsigned long>,std::allocator<std::pair<unsigned long const ,unsigned long> >,0>::_Kfn<unsigned long const ,unsigned long>, COMDAT

; 68   :     static const _Kty& _Kfn(const pair<_Ty1, _Ty2>& _Val) { // extract key from element value

  00000	55		 push	 ebp
  00001	8b ec		 mov	 ebp, esp
  00003	83 ec 40	 sub	 esp, 64			; 00000040H
  00006	53		 push	 ebx
  00007	56		 push	 esi
  00008	57		 push	 edi

; 69   :         return _Val.first;

  00009	8b 45 08	 mov	 eax, DWORD PTR __Val$[ebp]

; 70   :     }

  0000c	5f		 pop	 edi
  0000d	5e		 pop	 esi
  0000e	5b		 pop	 ebx
  0000f	8b e5		 mov	 esp, ebp
  00011	5d		 pop	 ebp
  00012	c3		 ret	 0
??$_Kfn@$$CBKK@?$_Tmap_traits@KKU?$less@K@std@@V?$allocator@U?$pair@$$CBKK@std@@@2@$0A@@std@@SAABKABU?$pair@$$CBKK@1@@Z ENDP ; std::_Tmap_traits<unsigned long,unsigned long,std::less<unsigned long>,std::allocator<std::pair<unsigned long const ,unsigned long> >,0>::_Kfn<unsigned long const ,unsigned long>
_TEXT	ENDS
; Function compile flags: /Odtp /ZI
; File C:\Program Files (x86)\Microsoft Visual Studio\2019\Community\VC\Tools\MSVC\14.27.29110\include\xstddef
;	COMDAT ??$addressof@$$CBV?$_Tree_val@U?$_Tree_simple_types@U?$pair@$$CBKK@std@@@std@@@std@@@std@@YAPBV?$_Tree_val@U?$_Tree_simple_types@U?$pair@$$CBKK@std@@@std@@@0@ABV10@@Z
_TEXT	SEGMENT
__Val$ = 8						; size = 4
??$addressof@$$CBV?$_Tree_val@U?$_Tree_simple_types@U?$pair@$$CBKK@std@@@std@@@std@@@std@@YAPBV?$_Tree_val@U?$_Tree_simple_types@U?$pair@$$CBKK@std@@@std@@@0@ABV10@@Z PROC ; std::addressof<std::_Tree_val<std::_Tree_simple_types<std::pair<unsigned long const ,unsigned long> > > const >, COMDAT

; 274  : _NODISCARD constexpr _Ty* addressof(_Ty& _Val) noexcept {

  00000	55		 push	 ebp
  00001	8b ec		 mov	 ebp, esp
  00003	83 ec 40	 sub	 esp, 64			; 00000040H
  00006	53		 push	 ebx
  00007	56		 push	 esi
  00008	57		 push	 edi

; 275  :     return __builtin_addressof(_Val);

  00009	8b 45 08	 mov	 eax, DWORD PTR __Val$[ebp]

; 276  : }

  0000c	5f		 pop	 edi
  0000d	5e		 pop	 esi
  0000e	5b		 pop	 ebx
  0000f	8b e5		 mov	 esp, ebp
  00011	5d		 pop	 ebp
  00012	c3		 ret	 0
??$addressof@$$CBV?$_Tree_val@U?$_Tree_simple_types@U?$pair@$$CBKK@std@@@std@@@std@@@std@@YAPBV?$_Tree_val@U?$_Tree_simple_types@U?$pair@$$CBKK@std@@@std@@@0@ABV10@@Z ENDP ; std::addressof<std::_Tree_val<std::_Tree_simple_types<std::pair<unsigned long const ,unsigned long> > > const >
_TEXT	ENDS
; Function compile flags: /Odtp /ZI
; File C:\Program Files (x86)\Microsoft Visual Studio\2019\Community\VC\Tools\MSVC\14.27.29110\include\xmemory
;	COMDAT ??$_Allocate_manually_vector_aligned@U_Default_allocate_traits@std@@@std@@YAPAXI@Z
_TEXT	SEGMENT
__Ptr$ = -12						; size = 4
__Ptr_container$ = -8					; size = 4
__Block_size$ = -4					; size = 4
__Bytes$ = 8						; size = 4
??$_Allocate_manually_vector_aligned@U_Default_allocate_traits@std@@@std@@YAPAXI@Z PROC ; std::_Allocate_manually_vector_aligned<std::_Default_allocate_traits>, COMDAT

; 113  : __declspec(allocator) void* _Allocate_manually_vector_aligned(const size_t _Bytes) {

  00000	55		 push	 ebp
  00001	8b ec		 mov	 ebp, esp
  00003	83 ec 4c	 sub	 esp, 76			; 0000004cH
  00006	53		 push	 ebx
  00007	56		 push	 esi
  00008	57		 push	 edi

; 114  :     // allocate _Bytes manually aligned to at least _Big_allocation_alignment
; 115  :     const size_t _Block_size = _Non_user_size + _Bytes;

  00009	8b 45 08	 mov	 eax, DWORD PTR __Bytes$[ebp]
  0000c	83 c0 23	 add	 eax, 35			; 00000023H
  0000f	89 45 fc	 mov	 DWORD PTR __Block_size$[ebp], eax

; 116  :     if (_Block_size <= _Bytes) {

  00012	8b 45 fc	 mov	 eax, DWORD PTR __Block_size$[ebp]
  00015	3b 45 08	 cmp	 eax, DWORD PTR __Bytes$[ebp]
  00018	77 05		 ja	 SHORT $LN8@Allocate_m

; 117  :         _Throw_bad_array_new_length(); // add overflow

  0001a	e8 00 00 00 00	 call	 ?_Throw_bad_array_new_length@std@@YAXXZ ; std::_Throw_bad_array_new_length
$LN8@Allocate_m:

; 118  :     }
; 119  : 
; 120  :     const uintptr_t _Ptr_container = reinterpret_cast<uintptr_t>(_Traits::_Allocate(_Block_size));

  0001f	8b 45 fc	 mov	 eax, DWORD PTR __Block_size$[ebp]
  00022	50		 push	 eax
  00023	e8 00 00 00 00	 call	 ?_Allocate@_Default_allocate_traits@std@@SAPAXI@Z ; std::_Default_allocate_traits::_Allocate
  00028	83 c4 04	 add	 esp, 4
  0002b	89 45 f8	 mov	 DWORD PTR __Ptr_container$[ebp], eax
$LN4@Allocate_m:

; 121  :     _STL_VERIFY(_Ptr_container != 0, "invalid argument"); // validate even in release since we're doing p[-1]

  0002e	83 7d f8 00	 cmp	 DWORD PTR __Ptr_container$[ebp], 0
  00032	74 02		 je	 SHORT $LN7@Allocate_m
  00034	eb 09		 jmp	 SHORT $LN2@Allocate_m
$LN7@Allocate_m:
  00036	e8 00 00 00 00	 call	 __invalid_parameter_noinfo_noreturn
  0003b	33 c0		 xor	 eax, eax
  0003d	75 f7		 jne	 SHORT $LN7@Allocate_m
$LN2@Allocate_m:
  0003f	33 c0		 xor	 eax, eax
  00041	75 eb		 jne	 SHORT $LN4@Allocate_m

; 122  :     void* const _Ptr = reinterpret_cast<void*>((_Ptr_container + _Non_user_size) & ~(_Big_allocation_alignment - 1));

  00043	8b 45 f8	 mov	 eax, DWORD PTR __Ptr_container$[ebp]
  00046	83 c0 23	 add	 eax, 35			; 00000023H
  00049	83 e0 e0	 and	 eax, -32		; ffffffe0H
  0004c	89 45 f4	 mov	 DWORD PTR __Ptr$[ebp], eax

; 123  :     static_cast<uintptr_t*>(_Ptr)[-1] = _Ptr_container;

  0004f	b8 04 00 00 00	 mov	 eax, 4
  00054	6b c8 ff	 imul	 ecx, eax, -1
  00057	8b 55 f4	 mov	 edx, DWORD PTR __Ptr$[ebp]
  0005a	8b 45 f8	 mov	 eax, DWORD PTR __Ptr_container$[ebp]
  0005d	89 04 0a	 mov	 DWORD PTR [edx+ecx], eax

; 124  : 
; 125  : #ifdef _DEBUG
; 126  :     static_cast<uintptr_t*>(_Ptr)[-2] = _Big_allocation_sentinel;
; 127  : #endif // _DEBUG
; 128  :     return _Ptr;

  00060	8b 45 f4	 mov	 eax, DWORD PTR __Ptr$[ebp]
$LN11@Allocate_m:

; 129  : }

  00063	5f		 pop	 edi
  00064	5e		 pop	 esi
  00065	5b		 pop	 ebx
  00066	8b e5		 mov	 esp, ebp
  00068	5d		 pop	 ebp
  00069	c3		 ret	 0
??$_Allocate_manually_vector_aligned@U_Default_allocate_traits@std@@@std@@YAPAXI@Z ENDP ; std::_Allocate_manually_vector_aligned<std::_Default_allocate_traits>
_TEXT	ENDS
; Function compile flags: /Odtp /ZI
; File C:\Program Files (x86)\Microsoft Visual Studio\2019\Community\VC\Tools\MSVC\14.27.29110\include\xtree
;	COMDAT ??$_Lower_bound_duplicate@K@?$_Tree@V?$_Tmap_traits@KKU?$less@K@std@@V?$allocator@U?$pair@$$CBKK@std@@@2@$0A@@std@@@std@@IBE_NQAU?$_Tree_node@U?$pair@$$CBKK@std@@PAX@1@ABK@Z
_TEXT	SEGMENT
tv78 = -72						; size = 4
_this$ = -4						; size = 4
__Bound$ = 8						; size = 4
__Keyval$ = 12						; size = 4
??$_Lower_bound_duplicate@K@?$_Tree@V?$_Tmap_traits@KKU?$less@K@std@@V?$allocator@U?$pair@$$CBKK@std@@@2@$0A@@std@@@std@@IBE_NQAU?$_Tree_node@U?$pair@$$CBKK@std@@PAX@1@ABK@Z PROC ; std::_Tree<std::_Tmap_traits<unsigned long,unsigned long,std::less<unsigned long>,std::allocator<std::pair<unsigned long const ,unsigned long> >,0> >::_Lower_bound_duplicate<unsigned long>, COMDAT
; _this$ = ecx

; 1694 :     bool _Lower_bound_duplicate(const _Nodeptr _Bound, const _Keyty& _Keyval) const {

  00000	55		 push	 ebp
  00001	8b ec		 mov	 ebp, esp
  00003	83 ec 48	 sub	 esp, 72			; 00000048H
  00006	53		 push	 ebx
  00007	56		 push	 esi
  00008	57		 push	 edi
  00009	89 4d fc	 mov	 DWORD PTR _this$[ebp], ecx

; 1695 :         return !_Bound->_Isnil && !_DEBUG_LT_PRED(_Getcomp(), _Keyval, _Traits::_Kfn(_Bound->_Myval));

  0000c	8b 45 08	 mov	 eax, DWORD PTR __Bound$[ebp]
  0000f	0f be 48 0d	 movsx	 ecx, BYTE PTR [eax+13]
  00013	85 c9		 test	 ecx, ecx
  00015	75 33		 jne	 SHORT $LN3@Lower_boun
  00017	8b 55 08	 mov	 edx, DWORD PTR __Bound$[ebp]
  0001a	83 c2 10	 add	 edx, 16			; 00000010H
  0001d	52		 push	 edx
  0001e	e8 00 00 00 00	 call	 ??$_Kfn@$$CBKK@?$_Tmap_traits@KKU?$less@K@std@@V?$allocator@U?$pair@$$CBKK@std@@@2@$0A@@std@@SAABKABU?$pair@$$CBKK@1@@Z ; std::_Tmap_traits<unsigned long,unsigned long,std::less<unsigned long>,std::allocator<std::pair<unsigned long const ,unsigned long> >,0>::_Kfn<unsigned long const ,unsigned long>
  00023	83 c4 04	 add	 esp, 4
  00026	50		 push	 eax
  00027	8b 45 0c	 mov	 eax, DWORD PTR __Keyval$[ebp]
  0002a	50		 push	 eax
  0002b	8b 4d fc	 mov	 ecx, DWORD PTR _this$[ebp]
  0002e	e8 00 00 00 00	 call	 ?_Getcomp@?$_Tree@V?$_Tmap_traits@KKU?$less@K@std@@V?$allocator@U?$pair@$$CBKK@std@@@2@$0A@@std@@@std@@IBEABU?$less@K@2@XZ ; std::_Tree<std::_Tmap_traits<unsigned long,unsigned long,std::less<unsigned long>,std::allocator<std::pair<unsigned long const ,unsigned long> >,0> >::_Getcomp
  00033	8b c8		 mov	 ecx, eax
  00035	e8 00 00 00 00	 call	 ??R?$less@K@std@@QBE_NABK0@Z ; std::less<unsigned long>::operator()
  0003a	0f b6 c8	 movzx	 ecx, al
  0003d	85 c9		 test	 ecx, ecx
  0003f	75 09		 jne	 SHORT $LN3@Lower_boun
  00041	c7 45 b8 01 00
	00 00		 mov	 DWORD PTR tv78[ebp], 1
  00048	eb 07		 jmp	 SHORT $LN4@Lower_boun
$LN3@Lower_boun:
  0004a	c7 45 b8 00 00
	00 00		 mov	 DWORD PTR tv78[ebp], 0
$LN4@Lower_boun:
  00051	8a 45 b8	 mov	 al, BYTE PTR tv78[ebp]

; 1696 :     }

  00054	5f		 pop	 edi
  00055	5e		 pop	 esi
  00056	5b		 pop	 ebx
  00057	8b e5		 mov	 esp, ebp
  00059	5d		 pop	 ebp
  0005a	c2 08 00	 ret	 8
??$_Lower_bound_duplicate@K@?$_Tree@V?$_Tmap_traits@KKU?$less@K@std@@V?$allocator@U?$pair@$$CBKK@std@@@2@$0A@@std@@@std@@IBE_NQAU?$_Tree_node@U?$pair@$$CBKK@std@@PAX@1@ABK@Z ENDP ; std::_Tree<std::_Tmap_traits<unsigned long,unsigned long,std::less<unsigned long>,std::allocator<std::pair<unsigned long const ,unsigned long> >,0> >::_Lower_bound_duplicate<unsigned long>
_TEXT	ENDS
; Function compile flags: /Odtp /ZI
; File C:\Program Files (x86)\Microsoft Visual Studio\2019\Community\VC\Tools\MSVC\14.27.29110\include\xtree
;	COMDAT ??$_Find_lower_bound@K@?$_Tree@V?$_Tmap_traits@KKU?$less@K@std@@V?$allocator@U?$pair@$$CBKK@std@@@2@$0A@@std@@@std@@IBE?AU?$_Tree_find_result@PAU?$_Tree_node@U?$pair@$$CBKK@std@@PAX@std@@@1@ABK@Z
_TEXT	SEGMENT
__Trynode$ = -24					; size = 4
__Result$ = -20						; size = 12
__Scary$ = -8						; size = 4
_this$ = -4						; size = 4
___$ReturnUdt$ = 8					; size = 4
__Keyval$ = 12						; size = 4
??$_Find_lower_bound@K@?$_Tree@V?$_Tmap_traits@KKU?$less@K@std@@V?$allocator@U?$pair@$$CBKK@std@@@2@$0A@@std@@@std@@IBE?AU?$_Tree_find_result@PAU?$_Tree_node@U?$pair@$$CBKK@std@@PAX@std@@@1@ABK@Z PROC ; std::_Tree<std::_Tmap_traits<unsigned long,unsigned long,std::less<unsigned long>,std::allocator<std::pair<unsigned long const ,unsigned long> >,0> >::_Find_lower_bound<unsigned long>, COMDAT
; _this$ = ecx

; 1699 :     _Tree_find_result<_Nodeptr> _Find_lower_bound(const _Keyty& _Keyval) const {

  00000	55		 push	 ebp
  00001	8b ec		 mov	 ebp, esp
  00003	83 ec 58	 sub	 esp, 88			; 00000058H
  00006	53		 push	 ebx
  00007	56		 push	 esi
  00008	57		 push	 edi
  00009	89 4d fc	 mov	 DWORD PTR _this$[ebp], ecx

; 1700 :         const auto _Scary = _Get_scary();

  0000c	8b 4d fc	 mov	 ecx, DWORD PTR _this$[ebp]
  0000f	e8 00 00 00 00	 call	 ?_Get_scary@?$_Tree@V?$_Tmap_traits@KKU?$less@K@std@@V?$allocator@U?$pair@$$CBKK@std@@@2@$0A@@std@@@std@@IBEPBV?$_Tree_val@U?$_Tree_simple_types@U?$pair@$$CBKK@std@@@std@@@2@XZ ; std::_Tree<std::_Tmap_traits<unsigned long,unsigned long,std::less<unsigned long>,std::allocator<std::pair<unsigned long const ,unsigned long> >,0> >::_Get_scary
  00014	89 45 f8	 mov	 DWORD PTR __Scary$[ebp], eax

; 1701 :         _Tree_find_result<_Nodeptr> _Result{{_Scary->_Myhead->_Parent, _Tree_child::_Right}, _Scary->_Myhead};

  00017	8b 45 f8	 mov	 eax, DWORD PTR __Scary$[ebp]
  0001a	8b 08		 mov	 ecx, DWORD PTR [eax]
  0001c	8b 51 04	 mov	 edx, DWORD PTR [ecx+4]
  0001f	89 55 ec	 mov	 DWORD PTR __Result$[ebp], edx
  00022	c7 45 f0 00 00
	00 00		 mov	 DWORD PTR __Result$[ebp+4], 0
  00029	8b 45 f8	 mov	 eax, DWORD PTR __Scary$[ebp]
  0002c	8b 08		 mov	 ecx, DWORD PTR [eax]
  0002e	89 4d f4	 mov	 DWORD PTR __Result$[ebp+8], ecx

; 1702 :         _Nodeptr _Trynode = _Result._Location._Parent;

  00031	8b 45 ec	 mov	 eax, DWORD PTR __Result$[ebp]
  00034	89 45 e8	 mov	 DWORD PTR __Trynode$[ebp], eax
$LN2@Find_lower:

; 1703 :         while (!_Trynode->_Isnil) {

  00037	8b 45 e8	 mov	 eax, DWORD PTR __Trynode$[ebp]
  0003a	0f be 48 0d	 movsx	 ecx, BYTE PTR [eax+13]
  0003e	85 c9		 test	 ecx, ecx
  00040	75 59		 jne	 SHORT $LN3@Find_lower

; 1704 :             _Result._Location._Parent = _Trynode;

  00042	8b 45 e8	 mov	 eax, DWORD PTR __Trynode$[ebp]
  00045	89 45 ec	 mov	 DWORD PTR __Result$[ebp], eax

; 1705 :             if (_DEBUG_LT_PRED(_Getcomp(), _Traits::_Kfn(_Trynode->_Myval), _Keyval)) {

  00048	8b 45 0c	 mov	 eax, DWORD PTR __Keyval$[ebp]
  0004b	50		 push	 eax
  0004c	8b 4d e8	 mov	 ecx, DWORD PTR __Trynode$[ebp]
  0004f	83 c1 10	 add	 ecx, 16			; 00000010H
  00052	51		 push	 ecx
  00053	e8 00 00 00 00	 call	 ??$_Kfn@$$CBKK@?$_Tmap_traits@KKU?$less@K@std@@V?$allocator@U?$pair@$$CBKK@std@@@2@$0A@@std@@SAABKABU?$pair@$$CBKK@1@@Z ; std::_Tmap_traits<unsigned long,unsigned long,std::less<unsigned long>,std::allocator<std::pair<unsigned long const ,unsigned long> >,0>::_Kfn<unsigned long const ,unsigned long>
  00058	83 c4 04	 add	 esp, 4
  0005b	50		 push	 eax
  0005c	8b 4d fc	 mov	 ecx, DWORD PTR _this$[ebp]
  0005f	e8 00 00 00 00	 call	 ?_Getcomp@?$_Tree@V?$_Tmap_traits@KKU?$less@K@std@@V?$allocator@U?$pair@$$CBKK@std@@@2@$0A@@std@@@std@@IBEABU?$less@K@2@XZ ; std::_Tree<std::_Tmap_traits<unsigned long,unsigned long,std::less<unsigned long>,std::allocator<std::pair<unsigned long const ,unsigned long> >,0> >::_Getcomp
  00064	8b c8		 mov	 ecx, eax
  00066	e8 00 00 00 00	 call	 ??R?$less@K@std@@QBE_NABK0@Z ; std::less<unsigned long>::operator()
  0006b	0f b6 d0	 movzx	 edx, al
  0006e	85 d2		 test	 edx, edx
  00070	74 12		 je	 SHORT $LN4@Find_lower

; 1706 :                 _Result._Location._Child = _Tree_child::_Right;

  00072	c7 45 f0 00 00
	00 00		 mov	 DWORD PTR __Result$[ebp+4], 0

; 1707 :                 _Trynode                 = _Trynode->_Right;

  00079	8b 45 e8	 mov	 eax, DWORD PTR __Trynode$[ebp]
  0007c	8b 48 08	 mov	 ecx, DWORD PTR [eax+8]
  0007f	89 4d e8	 mov	 DWORD PTR __Trynode$[ebp], ecx

; 1708 :             } else {

  00082	eb 15		 jmp	 SHORT $LN5@Find_lower
$LN4@Find_lower:

; 1709 :                 _Result._Location._Child = _Tree_child::_Left;

  00084	c7 45 f0 01 00
	00 00		 mov	 DWORD PTR __Result$[ebp+4], 1

; 1710 :                 _Result._Bound           = _Trynode;

  0008b	8b 45 e8	 mov	 eax, DWORD PTR __Trynode$[ebp]
  0008e	89 45 f4	 mov	 DWORD PTR __Result$[ebp+8], eax

; 1711 :                 _Trynode                 = _Trynode->_Left;

  00091	8b 45 e8	 mov	 eax, DWORD PTR __Trynode$[ebp]
  00094	8b 08		 mov	 ecx, DWORD PTR [eax]
  00096	89 4d e8	 mov	 DWORD PTR __Trynode$[ebp], ecx
$LN5@Find_lower:

; 1712 :             }
; 1713 :         }

  00099	eb 9c		 jmp	 SHORT $LN2@Find_lower
$LN3@Find_lower:

; 1714 : 
; 1715 :         return _Result;

  0009b	8b 45 08	 mov	 eax, DWORD PTR ___$ReturnUdt$[ebp]
  0009e	8b 4d ec	 mov	 ecx, DWORD PTR __Result$[ebp]
  000a1	89 08		 mov	 DWORD PTR [eax], ecx
  000a3	8b 55 f0	 mov	 edx, DWORD PTR __Result$[ebp+4]
  000a6	89 50 04	 mov	 DWORD PTR [eax+4], edx
  000a9	8b 4d f4	 mov	 ecx, DWORD PTR __Result$[ebp+8]
  000ac	89 48 08	 mov	 DWORD PTR [eax+8], ecx
  000af	8b 45 08	 mov	 eax, DWORD PTR ___$ReturnUdt$[ebp]

; 1716 :     }

  000b2	5f		 pop	 edi
  000b3	5e		 pop	 esi
  000b4	5b		 pop	 ebx
  000b5	8b e5		 mov	 esp, ebp
  000b7	5d		 pop	 ebp
  000b8	c2 08 00	 ret	 8
??$_Find_lower_bound@K@?$_Tree@V?$_Tmap_traits@KKU?$less@K@std@@V?$allocator@U?$pair@$$CBKK@std@@@2@$0A@@std@@@std@@IBE?AU?$_Tree_find_result@PAU?$_Tree_node@U?$pair@$$CBKK@std@@PAX@std@@@1@ABK@Z ENDP ; std::_Tree<std::_Tmap_traits<unsigned long,unsigned long,std::less<unsigned long>,std::allocator<std::pair<unsigned long const ,unsigned long> >,0> >::_Find_lower_bound<unsigned long>
_TEXT	ENDS
; Function compile flags: /Odtp /ZI
; File C:\Program Files (x86)\Microsoft Visual Studio\2019\Community\VC\Tools\MSVC\14.27.29110\include\xmemory
;	COMDAT ??$_Allocate@$07U_Default_allocate_traits@std@@$0A@@std@@YAPAXI@Z
_TEXT	SEGMENT
__Bytes$ = 8						; size = 4
??$_Allocate@$07U_Default_allocate_traits@std@@$0A@@std@@YAPAXI@Z PROC ; std::_Allocate<8,std::_Default_allocate_traits,0>, COMDAT

; 197  : __declspec(allocator) void* _Allocate(const size_t _Bytes) {

  00000	55		 push	 ebp
  00001	8b ec		 mov	 ebp, esp
  00003	83 ec 40	 sub	 esp, 64			; 00000040H
  00006	53		 push	 ebx
  00007	56		 push	 esi
  00008	57		 push	 edi

; 198  :     // allocate _Bytes when !_HAS_ALIGNED_NEW || _Align <= __STDCPP_DEFAULT_NEW_ALIGNMENT__
; 199  : #if defined(_M_IX86) || defined(_M_X64)
; 200  :     if (_Bytes >= _Big_allocation_threshold) { // boost the alignment of big allocations to help autovectorization

  00009	81 7d 08 00 10
	00 00		 cmp	 DWORD PTR __Bytes$[ebp], 4096 ; 00001000H
  00010	72 0e		 jb	 SHORT $LN2@Allocate

; 201  :         return _Allocate_manually_vector_aligned<_Traits>(_Bytes);

  00012	8b 45 08	 mov	 eax, DWORD PTR __Bytes$[ebp]
  00015	50		 push	 eax
  00016	e8 00 00 00 00	 call	 ??$_Allocate_manually_vector_aligned@U_Default_allocate_traits@std@@@std@@YAPAXI@Z ; std::_Allocate_manually_vector_aligned<std::_Default_allocate_traits>
  0001b	83 c4 04	 add	 esp, 4
  0001e	eb 16		 jmp	 SHORT $LN1@Allocate
$LN2@Allocate:

; 202  :     }
; 203  : #endif // defined(_M_IX86) || defined(_M_X64)
; 204  : 
; 205  :     if (_Bytes != 0) {

  00020	83 7d 08 00	 cmp	 DWORD PTR __Bytes$[ebp], 0
  00024	74 0e		 je	 SHORT $LN3@Allocate

; 206  :         return _Traits::_Allocate(_Bytes);

  00026	8b 45 08	 mov	 eax, DWORD PTR __Bytes$[ebp]
  00029	50		 push	 eax
  0002a	e8 00 00 00 00	 call	 ?_Allocate@_Default_allocate_traits@std@@SAPAXI@Z ; std::_Default_allocate_traits::_Allocate
  0002f	83 c4 04	 add	 esp, 4
  00032	eb 02		 jmp	 SHORT $LN1@Allocate
$LN3@Allocate:

; 207  :     }
; 208  : 
; 209  :     return nullptr;

  00034	33 c0		 xor	 eax, eax
$LN1@Allocate:

; 210  : }

  00036	5f		 pop	 edi
  00037	5e		 pop	 esi
  00038	5b		 pop	 ebx
  00039	8b e5		 mov	 esp, ebp
  0003b	5d		 pop	 ebp
  0003c	c3		 ret	 0
??$_Allocate@$07U_Default_allocate_traits@std@@$0A@@std@@YAPAXI@Z ENDP ; std::_Allocate<8,std::_Default_allocate_traits,0>
_TEXT	ENDS
; Function compile flags: /Odtp /ZI
; File C:\Program Files (x86)\Microsoft Visual Studio\2019\Community\VC\Tools\MSVC\14.27.29110\include\xmemory
;	COMDAT ??$_Deallocate@$07$0A@@std@@YAXPAXI@Z
_TEXT	SEGMENT
__$EHRec$ = -12						; size = 12
__Ptr$ = 8						; size = 4
__Bytes$ = 12						; size = 4
??$_Deallocate@$07$0A@@std@@YAXPAXI@Z PROC		; std::_Deallocate<8,0>, COMDAT

; 213  : void _Deallocate(void* _Ptr, size_t _Bytes) noexcept {

  00000	55		 push	 ebp
  00001	8b ec		 mov	 ebp, esp
  00003	6a ff		 push	 -1
  00005	68 00 00 00 00	 push	 __ehhandler$??$_Deallocate@$07$0A@@std@@YAXPAXI@Z
  0000a	64 a1 00 00 00
	00		 mov	 eax, DWORD PTR fs:0
  00010	50		 push	 eax
  00011	83 ec 40	 sub	 esp, 64			; 00000040H
  00014	53		 push	 ebx
  00015	56		 push	 esi
  00016	57		 push	 edi
  00017	a1 00 00 00 00	 mov	 eax, DWORD PTR ___security_cookie
  0001c	33 c5		 xor	 eax, ebp
  0001e	50		 push	 eax
  0001f	8d 45 f4	 lea	 eax, DWORD PTR __$EHRec$[ebp]
  00022	64 a3 00 00 00
	00		 mov	 DWORD PTR fs:0, eax

; 214  :     // deallocate storage allocated by _Allocate when !_HAS_ALIGNED_NEW || _Align <= __STDCPP_DEFAULT_NEW_ALIGNMENT__
; 215  : #if defined(_M_IX86) || defined(_M_X64)
; 216  :     if (_Bytes >= _Big_allocation_threshold) { // boost the alignment of big allocations to help autovectorization

  00028	81 7d 0c 00 10
	00 00		 cmp	 DWORD PTR __Bytes$[ebp], 4096 ; 00001000H
  0002f	72 10		 jb	 SHORT $LN2@Deallocate

; 217  :         _Adjust_manually_vector_aligned(_Ptr, _Bytes);

  00031	8d 45 0c	 lea	 eax, DWORD PTR __Bytes$[ebp]
  00034	50		 push	 eax
  00035	8d 4d 08	 lea	 ecx, DWORD PTR __Ptr$[ebp]
  00038	51		 push	 ecx
  00039	e8 00 00 00 00	 call	 ?_Adjust_manually_vector_aligned@std@@YAXAAPAXAAI@Z ; std::_Adjust_manually_vector_aligned
  0003e	83 c4 08	 add	 esp, 8
$LN2@Deallocate:

; 218  :     }
; 219  : #endif // defined(_M_IX86) || defined(_M_X64)
; 220  : 
; 221  :     ::operator delete(_Ptr, _Bytes);

  00041	8b 45 0c	 mov	 eax, DWORD PTR __Bytes$[ebp]
  00044	50		 push	 eax
  00045	8b 4d 08	 mov	 ecx, DWORD PTR __Ptr$[ebp]
  00048	51		 push	 ecx
  00049	e8 00 00 00 00	 call	 ??3@YAXPAXI@Z		; operator delete
  0004e	83 c4 08	 add	 esp, 8

; 222  : }

  00051	8b 4d f4	 mov	 ecx, DWORD PTR __$EHRec$[ebp]
  00054	64 89 0d 00 00
	00 00		 mov	 DWORD PTR fs:0, ecx
  0005b	59		 pop	 ecx
  0005c	5f		 pop	 edi
  0005d	5e		 pop	 esi
  0005e	5b		 pop	 ebx
  0005f	8b e5		 mov	 esp, ebp
  00061	5d		 pop	 ebp
  00062	c3		 ret	 0
  00063	cc		 int	 3
  00064	cc		 int	 3
  00065	cc		 int	 3
  00066	cc		 int	 3
  00067	cc		 int	 3
_TEXT	ENDS
;	COMDAT text$x
text$x	SEGMENT
__ehhandler$??$_Deallocate@$07$0A@@std@@YAXPAXI@Z:
  00000	90		 npad	 1
  00001	90		 npad	 1
  00002	8b 54 24 08	 mov	 edx, DWORD PTR [esp+8]
  00006	8d 42 0c	 lea	 eax, DWORD PTR [edx+12]
  00009	8b 4a b0	 mov	 ecx, DWORD PTR [edx-80]
  0000c	33 c8		 xor	 ecx, eax
  0000e	e8 00 00 00 00	 call	 @__security_check_cookie@4
  00013	b8 00 00 00 00	 mov	 eax, OFFSET __ehfuncinfo$??$_Deallocate@$07$0A@@std@@YAXPAXI@Z
  00018	e9 00 00 00 00	 jmp	 ___CxxFrameHandler3
text$x	ENDS
??$_Deallocate@$07$0A@@std@@YAXPAXI@Z ENDP		; std::_Deallocate<8,0>
; Function compile flags: /Odtp /ZI
; File C:\Program Files (x86)\Microsoft Visual Studio\2019\Community\VC\Tools\MSVC\14.27.29110\include\utility
;	COMDAT ??$min@I@std@@YAABIABI0@Z
_TEXT	SEGMENT
tv65 = -72						; size = 4
$T1 = -68						; size = 4
__Left$ = 8						; size = 4
__Right$ = 12						; size = 4
??$min@I@std@@YAABIABI0@Z PROC				; std::min<unsigned int>, COMDAT

; 67   :     const _Ty& _Left, const _Ty& _Right) noexcept(noexcept(_Right < _Left)) /* strengthened */ {

  00000	55		 push	 ebp
  00001	8b ec		 mov	 ebp, esp
  00003	83 ec 48	 sub	 esp, 72			; 00000048H
  00006	53		 push	 ebx
  00007	56		 push	 esi
  00008	57		 push	 edi

; 68   :     // return smaller of _Left and _Right
; 69   :     return _Right < _Left ? _Right : _Left;

  00009	8b 45 0c	 mov	 eax, DWORD PTR __Right$[ebp]
  0000c	8b 4d 08	 mov	 ecx, DWORD PTR __Left$[ebp]
  0000f	8b 10		 mov	 edx, DWORD PTR [eax]
  00011	3b 11		 cmp	 edx, DWORD PTR [ecx]
  00013	73 08		 jae	 SHORT $LN3@min
  00015	8b 45 0c	 mov	 eax, DWORD PTR __Right$[ebp]
  00018	89 45 b8	 mov	 DWORD PTR tv65[ebp], eax
  0001b	eb 06		 jmp	 SHORT $LN4@min
$LN3@min:
  0001d	8b 4d 08	 mov	 ecx, DWORD PTR __Left$[ebp]
  00020	89 4d b8	 mov	 DWORD PTR tv65[ebp], ecx
$LN4@min:
  00023	8b 55 b8	 mov	 edx, DWORD PTR tv65[ebp]
  00026	89 55 bc	 mov	 DWORD PTR $T1[ebp], edx
  00029	8b 45 bc	 mov	 eax, DWORD PTR $T1[ebp]

; 70   : }

  0002c	5f		 pop	 edi
  0002d	5e		 pop	 esi
  0002e	5b		 pop	 ebx
  0002f	8b e5		 mov	 esp, ebp
  00031	5d		 pop	 ebp
  00032	c3		 ret	 0
??$min@I@std@@YAABIABI0@Z ENDP				; std::min<unsigned int>
_TEXT	ENDS
; Function compile flags: /Odtp /ZI
; File C:\Program Files (x86)\Microsoft Visual Studio\2019\Community\VC\Tools\MSVC\14.27.29110\include\xstddef
;	COMDAT ??$addressof@V?$_Tree_val@U?$_Tree_simple_types@U?$pair@$$CBKK@std@@@std@@@std@@@std@@YAPAV?$_Tree_val@U?$_Tree_simple_types@U?$pair@$$CBKK@std@@@std@@@0@AAV10@@Z
_TEXT	SEGMENT
__Val$ = 8						; size = 4
??$addressof@V?$_Tree_val@U?$_Tree_simple_types@U?$pair@$$CBKK@std@@@std@@@std@@@std@@YAPAV?$_Tree_val@U?$_Tree_simple_types@U?$pair@$$CBKK@std@@@std@@@0@AAV10@@Z PROC ; std::addressof<std::_Tree_val<std::_Tree_simple_types<std::pair<unsigned long const ,unsigned long> > > >, COMDAT

; 274  : _NODISCARD constexpr _Ty* addressof(_Ty& _Val) noexcept {

  00000	55		 push	 ebp
  00001	8b ec		 mov	 ebp, esp
  00003	83 ec 40	 sub	 esp, 64			; 00000040H
  00006	53		 push	 ebx
  00007	56		 push	 esi
  00008	57		 push	 edi

; 275  :     return __builtin_addressof(_Val);

  00009	8b 45 08	 mov	 eax, DWORD PTR __Val$[ebp]

; 276  : }

  0000c	5f		 pop	 edi
  0000d	5e		 pop	 esi
  0000e	5b		 pop	 ebx
  0000f	8b e5		 mov	 esp, ebp
  00011	5d		 pop	 ebp
  00012	c3		 ret	 0
??$addressof@V?$_Tree_val@U?$_Tree_simple_types@U?$pair@$$CBKK@std@@@std@@@std@@@std@@YAPAV?$_Tree_val@U?$_Tree_simple_types@U?$pair@$$CBKK@std@@@std@@@0@AAV10@@Z ENDP ; std::addressof<std::_Tree_val<std::_Tree_simple_types<std::pair<unsigned long const ,unsigned long> > > >
_TEXT	ENDS
; Function compile flags: /Odtp /ZI
; File C:\Program Files (x86)\Microsoft Visual Studio\2019\Community\VC\Tools\MSVC\14.27.29110\include\xstddef
;	COMDAT ??$addressof@U?$pair@$$CBKK@std@@@std@@YAPAU?$pair@$$CBKK@0@AAU10@@Z
_TEXT	SEGMENT
__Val$ = 8						; size = 4
??$addressof@U?$pair@$$CBKK@std@@@std@@YAPAU?$pair@$$CBKK@0@AAU10@@Z PROC ; std::addressof<std::pair<unsigned long const ,unsigned long> >, COMDAT

; 274  : _NODISCARD constexpr _Ty* addressof(_Ty& _Val) noexcept {

  00000	55		 push	 ebp
  00001	8b ec		 mov	 ebp, esp
  00003	83 ec 40	 sub	 esp, 64			; 00000040H
  00006	53		 push	 ebx
  00007	56		 push	 esi
  00008	57		 push	 edi

; 275  :     return __builtin_addressof(_Val);

  00009	8b 45 08	 mov	 eax, DWORD PTR __Val$[ebp]

; 276  : }

  0000c	5f		 pop	 edi
  0000d	5e		 pop	 esi
  0000e	5b		 pop	 ebx
  0000f	8b e5		 mov	 esp, ebp
  00011	5d		 pop	 ebp
  00012	c3		 ret	 0
??$addressof@U?$pair@$$CBKK@std@@@std@@YAPAU?$pair@$$CBKK@0@AAU10@@Z ENDP ; std::addressof<std::pair<unsigned long const ,unsigned long> >
_TEXT	ENDS
; Function compile flags: /Odtp /ZI
;	COMDAT ??0?$_Tree_iterator@V?$_Tree_val@U?$_Tree_simple_types@U?$pair@$$CBKK@std@@@std@@@std@@@std@@QAE@PAU?$_Tree_node@U?$pair@$$CBKK@std@@PAX@1@PBV?$_Tree_val@U?$_Tree_simple_types@U?$pair@$$CBKK@std@@@std@@@1@@Z
_TEXT	SEGMENT
_this$ = -4						; size = 4
___param0$ = 8						; size = 4
___param1$ = 12						; size = 4
??0?$_Tree_iterator@V?$_Tree_val@U?$_Tree_simple_types@U?$pair@$$CBKK@std@@@std@@@std@@@std@@QAE@PAU?$_Tree_node@U?$pair@$$CBKK@std@@PAX@1@PBV?$_Tree_val@U?$_Tree_simple_types@U?$pair@$$CBKK@std@@@std@@@1@@Z PROC ; std::_Tree_iterator<std::_Tree_val<std::_Tree_simple_types<std::pair<unsigned long const ,unsigned long> > > >::_Tree_iterator<std::_Tree_val<std::_Tree_simple_types<std::pair<unsigned long const ,unsigned long> > > >, COMDAT
; _this$ = ecx
  00000	55		 push	 ebp
  00001	8b ec		 mov	 ebp, esp
  00003	83 ec 44	 sub	 esp, 68			; 00000044H
  00006	53		 push	 ebx
  00007	56		 push	 esi
  00008	57		 push	 edi
  00009	89 4d fc	 mov	 DWORD PTR _this$[ebp], ecx
  0000c	8b 45 0c	 mov	 eax, DWORD PTR ___param1$[ebp]
  0000f	50		 push	 eax
  00010	8b 4d 08	 mov	 ecx, DWORD PTR ___param0$[ebp]
  00013	51		 push	 ecx
  00014	8b 4d fc	 mov	 ecx, DWORD PTR _this$[ebp]
  00017	e8 00 00 00 00	 call	 ??0?$_Tree_const_iterator@V?$_Tree_val@U?$_Tree_simple_types@U?$pair@$$CBKK@std@@@std@@@std@@@std@@QAE@PAU?$_Tree_node@U?$pair@$$CBKK@std@@PAX@1@PBV?$_Tree_val@U?$_Tree_simple_types@U?$pair@$$CBKK@std@@@std@@@1@@Z
  0001c	8b 45 fc	 mov	 eax, DWORD PTR _this$[ebp]
  0001f	5f		 pop	 edi
  00020	5e		 pop	 esi
  00021	5b		 pop	 ebx
  00022	8b e5		 mov	 esp, ebp
  00024	5d		 pop	 ebp
  00025	c2 08 00	 ret	 8
??0?$_Tree_iterator@V?$_Tree_val@U?$_Tree_simple_types@U?$pair@$$CBKK@std@@@std@@@std@@@std@@QAE@PAU?$_Tree_node@U?$pair@$$CBKK@std@@PAX@1@PBV?$_Tree_val@U?$_Tree_simple_types@U?$pair@$$CBKK@std@@@std@@@1@@Z ENDP ; std::_Tree_iterator<std::_Tree_val<std::_Tree_simple_types<std::pair<unsigned long const ,unsigned long> > > >::_Tree_iterator<std::_Tree_val<std::_Tree_simple_types<std::pair<unsigned long const ,unsigned long> > > >
_TEXT	ENDS
; Function compile flags: /Odtp /ZI
;	COMDAT ??0?$_Tree_const_iterator@V?$_Tree_val@U?$_Tree_simple_types@U?$pair@$$CBKK@std@@@std@@@std@@@std@@QAE@PAU?$_Tree_node@U?$pair@$$CBKK@std@@PAX@1@PBV?$_Tree_val@U?$_Tree_simple_types@U?$pair@$$CBKK@std@@@std@@@1@@Z
_TEXT	SEGMENT
_this$ = -4						; size = 4
___param0$ = 8						; size = 4
___param1$ = 12						; size = 4
??0?$_Tree_const_iterator@V?$_Tree_val@U?$_Tree_simple_types@U?$pair@$$CBKK@std@@@std@@@std@@@std@@QAE@PAU?$_Tree_node@U?$pair@$$CBKK@std@@PAX@1@PBV?$_Tree_val@U?$_Tree_simple_types@U?$pair@$$CBKK@std@@@std@@@1@@Z PROC ; std::_Tree_const_iterator<std::_Tree_val<std::_Tree_simple_types<std::pair<unsigned long const ,unsigned long> > > >::_Tree_const_iterator<std::_Tree_val<std::_Tree_simple_types<std::pair<unsigned long const ,unsigned long> > > >, COMDAT
; _this$ = ecx
  00000	55		 push	 ebp
  00001	8b ec		 mov	 ebp, esp
  00003	83 ec 44	 sub	 esp, 68			; 00000044H
  00006	53		 push	 ebx
  00007	56		 push	 esi
  00008	57		 push	 edi
  00009	89 4d fc	 mov	 DWORD PTR _this$[ebp], ecx
  0000c	8b 45 0c	 mov	 eax, DWORD PTR ___param1$[ebp]
  0000f	50		 push	 eax
  00010	8b 4d 08	 mov	 ecx, DWORD PTR ___param0$[ebp]
  00013	51		 push	 ecx
  00014	8b 4d fc	 mov	 ecx, DWORD PTR _this$[ebp]
  00017	e8 00 00 00 00	 call	 ??0?$_Tree_unchecked_const_iterator@V?$_Tree_val@U?$_Tree_simple_types@U?$pair@$$CBKK@std@@@std@@@std@@U_Iterator_base0@2@@std@@QAE@PAU?$_Tree_node@U?$pair@$$CBKK@std@@PAX@1@PBV?$_Tree_val@U?$_Tree_simple_types@U?$pair@$$CBKK@std@@@std@@@1@@Z ; std::_Tree_unchecked_const_iterator<std::_Tree_val<std::_Tree_simple_types<std::pair<unsigned long const ,unsigned long> > >,std::_Iterator_base0>::_Tree_unchecked_const_iterator<std::_Tree_val<std::_Tree_simple_types<std::pair<unsigned long const ,unsigned long> > >,std::_Iterator_base0>
  0001c	8b 45 fc	 mov	 eax, DWORD PTR _this$[ebp]
  0001f	5f		 pop	 edi
  00020	5e		 pop	 esi
  00021	5b		 pop	 ebx
  00022	8b e5		 mov	 esp, ebp
  00024	5d		 pop	 ebp
  00025	c2 08 00	 ret	 8
??0?$_Tree_const_iterator@V?$_Tree_val@U?$_Tree_simple_types@U?$pair@$$CBKK@std@@@std@@@std@@@std@@QAE@PAU?$_Tree_node@U?$pair@$$CBKK@std@@PAX@1@PBV?$_Tree_val@U?$_Tree_simple_types@U?$pair@$$CBKK@std@@@std@@@1@@Z ENDP ; std::_Tree_const_iterator<std::_Tree_val<std::_Tree_simple_types<std::pair<unsigned long const ,unsigned long> > > >::_Tree_const_iterator<std::_Tree_val<std::_Tree_simple_types<std::pair<unsigned long const ,unsigned long> > > >
_TEXT	ENDS
; Function compile flags: /Odtp /ZI
; File C:\Program Files (x86)\Microsoft Visual Studio\2019\Community\VC\Tools\MSVC\14.27.29110\include\xtree
;	COMDAT ??0?$_Tree_unchecked_const_iterator@V?$_Tree_val@U?$_Tree_simple_types@U?$pair@$$CBKK@std@@@std@@@std@@U_Iterator_base0@2@@std@@QAE@PAU?$_Tree_node@U?$pair@$$CBKK@std@@PAX@1@PBV?$_Tree_val@U?$_Tree_simple_types@U?$pair@$$CBKK@std@@@std@@@1@@Z
_TEXT	SEGMENT
_this$ = -4						; size = 4
__Pnode$ = 8						; size = 4
__Plist$ = 12						; size = 4
??0?$_Tree_unchecked_const_iterator@V?$_Tree_val@U?$_Tree_simple_types@U?$pair@$$CBKK@std@@@std@@@std@@U_Iterator_base0@2@@std@@QAE@PAU?$_Tree_node@U?$pair@$$CBKK@std@@PAX@1@PBV?$_Tree_val@U?$_Tree_simple_types@U?$pair@$$CBKK@std@@@std@@@1@@Z PROC ; std::_Tree_unchecked_const_iterator<std::_Tree_val<std::_Tree_simple_types<std::pair<unsigned long const ,unsigned long> > >,std::_Iterator_base0>::_Tree_unchecked_const_iterator<std::_Tree_val<std::_Tree_simple_types<std::pair<unsigned long const ,unsigned long> > >,std::_Iterator_base0>, COMDAT
; _this$ = ecx

; 39   :     _Tree_unchecked_const_iterator(_Nodeptr _Pnode, const _Mytree* _Plist) noexcept : _Ptr(_Pnode) {

  00000	55		 push	 ebp
  00001	8b ec		 mov	 ebp, esp
  00003	83 ec 44	 sub	 esp, 68			; 00000044H
  00006	53		 push	 ebx
  00007	56		 push	 esi
  00008	57		 push	 edi
  00009	89 4d fc	 mov	 DWORD PTR _this$[ebp], ecx
  0000c	8b 45 fc	 mov	 eax, DWORD PTR _this$[ebp]
  0000f	8b 4d 08	 mov	 ecx, DWORD PTR __Pnode$[ebp]
  00012	89 08		 mov	 DWORD PTR [eax], ecx

; 40   :         this->_Adopt(_Plist);

  00014	8b 45 0c	 mov	 eax, DWORD PTR __Plist$[ebp]
  00017	50		 push	 eax
  00018	8b 4d fc	 mov	 ecx, DWORD PTR _this$[ebp]
  0001b	e8 00 00 00 00	 call	 ?_Adopt@_Iterator_base0@std@@QAEXPBX@Z ; std::_Iterator_base0::_Adopt

; 41   :     }

  00020	8b 45 fc	 mov	 eax, DWORD PTR _this$[ebp]
  00023	5f		 pop	 edi
  00024	5e		 pop	 esi
  00025	5b		 pop	 ebx
  00026	8b e5		 mov	 esp, ebp
  00028	5d		 pop	 ebp
  00029	c2 08 00	 ret	 8
??0?$_Tree_unchecked_const_iterator@V?$_Tree_val@U?$_Tree_simple_types@U?$pair@$$CBKK@std@@@std@@@std@@U_Iterator_base0@2@@std@@QAE@PAU?$_Tree_node@U?$pair@$$CBKK@std@@PAX@1@PBV?$_Tree_val@U?$_Tree_simple_types@U?$pair@$$CBKK@std@@@std@@@1@@Z ENDP ; std::_Tree_unchecked_const_iterator<std::_Tree_val<std::_Tree_simple_types<std::pair<unsigned long const ,unsigned long> > >,std::_Iterator_base0>::_Tree_unchecked_const_iterator<std::_Tree_val<std::_Tree_simple_types<std::pair<unsigned long const ,unsigned long> > >,std::_Iterator_base0>
_TEXT	ENDS
; Function compile flags: /Odtp /ZI
;	COMDAT ??1CGlobalConfig@@QAE@XZ
_TEXT	SEGMENT
_this$ = -4						; size = 4
??1CGlobalConfig@@QAE@XZ PROC				; CGlobalConfig::~CGlobalConfig, COMDAT
; _this$ = ecx
  00000	55		 push	 ebp
  00001	8b ec		 mov	 ebp, esp
  00003	83 ec 44	 sub	 esp, 68			; 00000044H
  00006	53		 push	 ebx
  00007	56		 push	 esi
  00008	57		 push	 edi
  00009	89 4d fc	 mov	 DWORD PTR _this$[ebp], ecx
  0000c	8b 4d fc	 mov	 ecx, DWORD PTR _this$[ebp]
  0000f	81 c1 a0 05 00
	00		 add	 ecx, 1440		; 000005a0H
  00015	e8 00 00 00 00	 call	 ??1?$map@KKU?$less@K@std@@V?$allocator@U?$pair@$$CBKK@std@@@2@@std@@QAE@XZ
  0001a	5f		 pop	 edi
  0001b	5e		 pop	 esi
  0001c	5b		 pop	 ebx
  0001d	8b e5		 mov	 esp, ebp
  0001f	5d		 pop	 ebp
  00020	c3		 ret	 0
??1CGlobalConfig@@QAE@XZ ENDP				; CGlobalConfig::~CGlobalConfig
_TEXT	ENDS
; Function compile flags: /Odtp /ZI
;	COMDAT ??0CGlobalConfig@@QAE@XZ
_TEXT	SEGMENT
_this$ = -4						; size = 4
??0CGlobalConfig@@QAE@XZ PROC				; CGlobalConfig::CGlobalConfig, COMDAT
; _this$ = ecx
  00000	55		 push	 ebp
  00001	8b ec		 mov	 ebp, esp
  00003	83 ec 44	 sub	 esp, 68			; 00000044H
  00006	53		 push	 ebx
  00007	56		 push	 esi
  00008	57		 push	 edi
  00009	89 4d fc	 mov	 DWORD PTR _this$[ebp], ecx
  0000c	8b 4d fc	 mov	 ecx, DWORD PTR _this$[ebp]
  0000f	81 c1 a0 05 00
	00		 add	 ecx, 1440		; 000005a0H
  00015	e8 00 00 00 00	 call	 ??0?$map@KKU?$less@K@std@@V?$allocator@U?$pair@$$CBKK@std@@@2@@std@@QAE@XZ ; std::map<unsigned long,unsigned long,std::less<unsigned long>,std::allocator<std::pair<unsigned long const ,unsigned long> > >::map<unsigned long,unsigned long,std::less<unsigned long>,std::allocator<std::pair<unsigned long const ,unsigned long> > >
  0001a	8b 45 fc	 mov	 eax, DWORD PTR _this$[ebp]
  0001d	5f		 pop	 edi
  0001e	5e		 pop	 esi
  0001f	5b		 pop	 ebx
  00020	8b e5		 mov	 esp, ebp
  00022	5d		 pop	 ebp
  00023	c3		 ret	 0
??0CGlobalConfig@@QAE@XZ ENDP				; CGlobalConfig::CGlobalConfig
_TEXT	ENDS
; Function compile flags: /Odtp /ZI
;	COMDAT ??1?$map@KKU?$less@K@std@@V?$allocator@U?$pair@$$CBKK@std@@@2@@std@@QAE@XZ
_TEXT	SEGMENT
_this$ = -4						; size = 4
??1?$map@KKU?$less@K@std@@V?$allocator@U?$pair@$$CBKK@std@@@2@@std@@QAE@XZ PROC ; std::map<unsigned long,unsigned long,std::less<unsigned long>,std::allocator<std::pair<unsigned long const ,unsigned long> > >::~map<unsigned long,unsigned long,std::less<unsigned long>,std::allocator<std::pair<unsigned long const ,unsigned long> > >, COMDAT
; _this$ = ecx
  00000	55		 push	 ebp
  00001	8b ec		 mov	 ebp, esp
  00003	83 ec 44	 sub	 esp, 68			; 00000044H
  00006	53		 push	 ebx
  00007	56		 push	 esi
  00008	57		 push	 edi
  00009	89 4d fc	 mov	 DWORD PTR _this$[ebp], ecx
  0000c	8b 4d fc	 mov	 ecx, DWORD PTR _this$[ebp]
  0000f	e8 00 00 00 00	 call	 ??1?$_Tree@V?$_Tmap_traits@KKU?$less@K@std@@V?$allocator@U?$pair@$$CBKK@std@@@2@$0A@@std@@@std@@QAE@XZ ; std::_Tree<std::_Tmap_traits<unsigned long,unsigned long,std::less<unsigned long>,std::allocator<std::pair<unsigned long const ,unsigned long> >,0> >::~_Tree<std::_Tmap_traits<unsigned long,unsigned long,std::less<unsigned long>,std::allocator<std::pair<unsigned long const ,unsigned long> >,0> >
  00014	5f		 pop	 edi
  00015	5e		 pop	 esi
  00016	5b		 pop	 ebx
  00017	8b e5		 mov	 esp, ebp
  00019	5d		 pop	 ebp
  0001a	c3		 ret	 0
??1?$map@KKU?$less@K@std@@V?$allocator@U?$pair@$$CBKK@std@@@2@@std@@QAE@XZ ENDP ; std::map<unsigned long,unsigned long,std::less<unsigned long>,std::allocator<std::pair<unsigned long const ,unsigned long> > >::~map<unsigned long,unsigned long,std::less<unsigned long>,std::allocator<std::pair<unsigned long const ,unsigned long> > >
_TEXT	ENDS
; Function compile flags: /Odtp /ZI
; File C:\Program Files (x86)\Microsoft Visual Studio\2019\Community\VC\Tools\MSVC\14.27.29110\include\map
;	COMDAT ??0?$map@KKU?$less@K@std@@V?$allocator@U?$pair@$$CBKK@std@@@2@@std@@QAE@XZ
_TEXT	SEGMENT
$T1 = -69						; size = 1
_this$ = -4						; size = 4
??0?$map@KKU?$less@K@std@@V?$allocator@U?$pair@$$CBKK@std@@@2@@std@@QAE@XZ PROC ; std::map<unsigned long,unsigned long,std::less<unsigned long>,std::allocator<std::pair<unsigned long const ,unsigned long> > >::map<unsigned long,unsigned long,std::less<unsigned long>,std::allocator<std::pair<unsigned long const ,unsigned long> > >, COMDAT
; _this$ = ecx

; 107  :     map() : _Mybase(key_compare()) {}

  00000	55		 push	 ebp
  00001	8b ec		 mov	 ebp, esp
  00003	83 ec 48	 sub	 esp, 72			; 00000048H
  00006	53		 push	 ebx
  00007	56		 push	 esi
  00008	57		 push	 edi
  00009	89 4d fc	 mov	 DWORD PTR _this$[ebp], ecx
  0000c	8d 45 bb	 lea	 eax, DWORD PTR $T1[ebp]
  0000f	50		 push	 eax
  00010	8b 4d fc	 mov	 ecx, DWORD PTR _this$[ebp]
  00013	e8 00 00 00 00	 call	 ??0?$_Tree@V?$_Tmap_traits@KKU?$less@K@std@@V?$allocator@U?$pair@$$CBKK@std@@@2@$0A@@std@@@std@@QAE@ABU?$less@K@1@@Z ; std::_Tree<std::_Tmap_traits<unsigned long,unsigned long,std::less<unsigned long>,std::allocator<std::pair<unsigned long const ,unsigned long> >,0> >::_Tree<std::_Tmap_traits<unsigned long,unsigned long,std::less<unsigned long>,std::allocator<std::pair<unsigned long const ,unsigned long> >,0> >
  00018	8b 45 fc	 mov	 eax, DWORD PTR _this$[ebp]
  0001b	5f		 pop	 edi
  0001c	5e		 pop	 esi
  0001d	5b		 pop	 ebx
  0001e	8b e5		 mov	 esp, ebp
  00020	5d		 pop	 ebp
  00021	c3		 ret	 0
??0?$map@KKU?$less@K@std@@V?$allocator@U?$pair@$$CBKK@std@@@2@@std@@QAE@XZ ENDP ; std::map<unsigned long,unsigned long,std::less<unsigned long>,std::allocator<std::pair<unsigned long const ,unsigned long> > >::map<unsigned long,unsigned long,std::less<unsigned long>,std::allocator<std::pair<unsigned long const ,unsigned long> > >
_TEXT	ENDS
; Function compile flags: /Odtp /ZI
; File C:\Program Files (x86)\Microsoft Visual Studio\2019\Community\VC\Tools\MSVC\14.27.29110\include\xmemory
;	COMDAT ?_Get_first@?$_Compressed_pair@U?$less@K@std@@V?$_Compressed_pair@V?$allocator@U?$_Tree_node@U?$pair@$$CBKK@std@@PAX@std@@@std@@V?$_Tree_val@U?$_Tree_simple_types@U?$pair@$$CBKK@std@@@std@@@2@$00@2@$00@std@@QBEABU?$less@K@2@XZ
_TEXT	SEGMENT
_this$ = -4						; size = 4
?_Get_first@?$_Compressed_pair@U?$less@K@std@@V?$_Compressed_pair@V?$allocator@U?$_Tree_node@U?$pair@$$CBKK@std@@PAX@std@@@std@@V?$_Tree_val@U?$_Tree_simple_types@U?$pair@$$CBKK@std@@@std@@@2@$00@2@$00@std@@QBEABU?$less@K@2@XZ PROC ; std::_Compressed_pair<std::less<unsigned long>,std::_Compressed_pair<std::allocator<std::_Tree_node<std::pair<unsigned long const ,unsigned long>,void *> >,std::_Tree_val<std::_Tree_simple_types<std::pair<unsigned long const ,unsigned long> > >,1>,1>::_Get_first, COMDAT
; _this$ = ecx

; 1347 :     constexpr const _Ty1& _Get_first() const noexcept {

  00000	55		 push	 ebp
  00001	8b ec		 mov	 ebp, esp
  00003	83 ec 44	 sub	 esp, 68			; 00000044H
  00006	53		 push	 ebx
  00007	56		 push	 esi
  00008	57		 push	 edi
  00009	89 4d fc	 mov	 DWORD PTR _this$[ebp], ecx

; 1348 :         return *this;

  0000c	8b 45 fc	 mov	 eax, DWORD PTR _this$[ebp]

; 1349 :     }

  0000f	5f		 pop	 edi
  00010	5e		 pop	 esi
  00011	5b		 pop	 ebx
  00012	8b e5		 mov	 esp, ebp
  00014	5d		 pop	 ebp
  00015	c3		 ret	 0
?_Get_first@?$_Compressed_pair@U?$less@K@std@@V?$_Compressed_pair@V?$allocator@U?$_Tree_node@U?$pair@$$CBKK@std@@PAX@std@@@std@@V?$_Tree_val@U?$_Tree_simple_types@U?$pair@$$CBKK@std@@@std@@@2@$00@2@$00@std@@QBEABU?$less@K@2@XZ ENDP ; std::_Compressed_pair<std::less<unsigned long>,std::_Compressed_pair<std::allocator<std::_Tree_node<std::pair<unsigned long const ,unsigned long>,void *> >,std::_Tree_val<std::_Tree_simple_types<std::pair<unsigned long const ,unsigned long> > >,1>,1>::_Get_first
_TEXT	ENDS
; Function compile flags: /Odtp /ZI
; File C:\Program Files (x86)\Microsoft Visual Studio\2019\Community\VC\Tools\MSVC\14.27.29110\include\xmemory
;	COMDAT ?_Get_first@?$_Compressed_pair@V?$allocator@U?$_Tree_node@U?$pair@$$CBKK@std@@PAX@std@@@std@@V?$_Tree_val@U?$_Tree_simple_types@U?$pair@$$CBKK@std@@@std@@@2@$00@std@@QBEABV?$allocator@U?$_Tree_node@U?$pair@$$CBKK@std@@PAX@std@@@2@XZ
_TEXT	SEGMENT
_this$ = -4						; size = 4
?_Get_first@?$_Compressed_pair@V?$allocator@U?$_Tree_node@U?$pair@$$CBKK@std@@PAX@std@@@std@@V?$_Tree_val@U?$_Tree_simple_types@U?$pair@$$CBKK@std@@@std@@@2@$00@std@@QBEABV?$allocator@U?$_Tree_node@U?$pair@$$CBKK@std@@PAX@std@@@2@XZ PROC ; std::_Compressed_pair<std::allocator<std::_Tree_node<std::pair<unsigned long const ,unsigned long>,void *> >,std::_Tree_val<std::_Tree_simple_types<std::pair<unsigned long const ,unsigned long> > >,1>::_Get_first, COMDAT
; _this$ = ecx

; 1347 :     constexpr const _Ty1& _Get_first() const noexcept {

  00000	55		 push	 ebp
  00001	8b ec		 mov	 ebp, esp
  00003	83 ec 44	 sub	 esp, 68			; 00000044H
  00006	53		 push	 ebx
  00007	56		 push	 esi
  00008	57		 push	 edi
  00009	89 4d fc	 mov	 DWORD PTR _this$[ebp], ecx

; 1348 :         return *this;

  0000c	8b 45 fc	 mov	 eax, DWORD PTR _this$[ebp]

; 1349 :     }

  0000f	5f		 pop	 edi
  00010	5e		 pop	 esi
  00011	5b		 pop	 ebx
  00012	8b e5		 mov	 esp, ebp
  00014	5d		 pop	 ebp
  00015	c3		 ret	 0
?_Get_first@?$_Compressed_pair@V?$allocator@U?$_Tree_node@U?$pair@$$CBKK@std@@PAX@std@@@std@@V?$_Tree_val@U?$_Tree_simple_types@U?$pair@$$CBKK@std@@@std@@@2@$00@std@@QBEABV?$allocator@U?$_Tree_node@U?$pair@$$CBKK@std@@PAX@std@@@2@XZ ENDP ; std::_Compressed_pair<std::allocator<std::_Tree_node<std::pair<unsigned long const ,unsigned long>,void *> >,std::_Tree_val<std::_Tree_simple_types<std::pair<unsigned long const ,unsigned long> > >,1>::_Get_first
_TEXT	ENDS
; Function compile flags: /Odtp /ZI
; File C:\Program Files (x86)\Microsoft Visual Studio\2019\Community\VC\Tools\MSVC\14.27.29110\include\xmemory
;	COMDAT ?_Get_first@?$_Compressed_pair@V?$allocator@U?$_Tree_node@U?$pair@$$CBKK@std@@PAX@std@@@std@@V?$_Tree_val@U?$_Tree_simple_types@U?$pair@$$CBKK@std@@@std@@@2@$00@std@@QAEAAV?$allocator@U?$_Tree_node@U?$pair@$$CBKK@std@@PAX@std@@@2@XZ
_TEXT	SEGMENT
_this$ = -4						; size = 4
?_Get_first@?$_Compressed_pair@V?$allocator@U?$_Tree_node@U?$pair@$$CBKK@std@@PAX@std@@@std@@V?$_Tree_val@U?$_Tree_simple_types@U?$pair@$$CBKK@std@@@std@@@2@$00@std@@QAEAAV?$allocator@U?$_Tree_node@U?$pair@$$CBKK@std@@PAX@std@@@2@XZ PROC ; std::_Compressed_pair<std::allocator<std::_Tree_node<std::pair<unsigned long const ,unsigned long>,void *> >,std::_Tree_val<std::_Tree_simple_types<std::pair<unsigned long const ,unsigned long> > >,1>::_Get_first, COMDAT
; _this$ = ecx

; 1343 :     constexpr _Ty1& _Get_first() noexcept {

  00000	55		 push	 ebp
  00001	8b ec		 mov	 ebp, esp
  00003	83 ec 44	 sub	 esp, 68			; 00000044H
  00006	53		 push	 ebx
  00007	56		 push	 esi
  00008	57		 push	 edi
  00009	89 4d fc	 mov	 DWORD PTR _this$[ebp], ecx

; 1344 :         return *this;

  0000c	8b 45 fc	 mov	 eax, DWORD PTR _this$[ebp]

; 1345 :     }

  0000f	5f		 pop	 edi
  00010	5e		 pop	 esi
  00011	5b		 pop	 ebx
  00012	8b e5		 mov	 esp, ebp
  00014	5d		 pop	 ebp
  00015	c3		 ret	 0
?_Get_first@?$_Compressed_pair@V?$allocator@U?$_Tree_node@U?$pair@$$CBKK@std@@PAX@std@@@std@@V?$_Tree_val@U?$_Tree_simple_types@U?$pair@$$CBKK@std@@@std@@@2@$00@std@@QAEAAV?$allocator@U?$_Tree_node@U?$pair@$$CBKK@std@@PAX@std@@@2@XZ ENDP ; std::_Compressed_pair<std::allocator<std::_Tree_node<std::pair<unsigned long const ,unsigned long>,void *> >,std::_Tree_val<std::_Tree_simple_types<std::pair<unsigned long const ,unsigned long> > >,1>::_Get_first
_TEXT	ENDS
; Function compile flags: /Odtp /ZI
; File C:\Program Files (x86)\Microsoft Visual Studio\2019\Community\VC\Tools\MSVC\14.27.29110\include\xtree
;	COMDAT ?_Orphan_ptr@?$_Tree_val@U?$_Tree_simple_types@U?$pair@$$CBKK@std@@@std@@@std@@QAEXQAU?$_Tree_node@U?$pair@$$CBKK@std@@PAX@2@@Z
_TEXT	SEGMENT
_this$ = -4						; size = 4
__Ptr$ = 8						; size = 4
?_Orphan_ptr@?$_Tree_val@U?$_Tree_simple_types@U?$pair@$$CBKK@std@@@std@@@std@@QAEXQAU?$_Tree_node@U?$pair@$$CBKK@std@@PAX@2@@Z PROC ; std::_Tree_val<std::_Tree_simple_types<std::pair<unsigned long const ,unsigned long> > >::_Orphan_ptr, COMDAT
; _this$ = ecx

; 713  :     void _Orphan_ptr(const _Nodeptr _Ptr) noexcept {

  00000	55		 push	 ebp
  00001	8b ec		 mov	 ebp, esp
  00003	83 ec 44	 sub	 esp, 68			; 00000044H
  00006	53		 push	 ebx
  00007	56		 push	 esi
  00008	57		 push	 edi
  00009	89 4d fc	 mov	 DWORD PTR _this$[ebp], ecx

; 714  : #if _ITERATOR_DEBUG_LEVEL == 2
; 715  :         _Lockit _Lock(_LOCK_DEBUG);
; 716  :         _Iterator_base12** _Pnext = &this->_Myproxy->_Myfirstiter;
; 717  :         while (*_Pnext) {
; 718  :             const auto _Pnextptr = static_cast<const_iterator&>(**_Pnext)._Ptr;
; 719  :             if (_Pnextptr == _Myhead || (_Ptr != nullptr && _Pnextptr != _Ptr)) {
; 720  :                 _Pnext = &(*_Pnext)->_Mynextiter;
; 721  :             } else { // orphan the iterator
; 722  :                 (*_Pnext)->_Myproxy = nullptr;
; 723  :                 *_Pnext             = (*_Pnext)->_Mynextiter;
; 724  :             }
; 725  :         }
; 726  : #else // ^^^ _ITERATOR_DEBUG_LEVEL == 2 ^^^ // vvv _ITERATOR_DEBUG_LEVEL != 2 vvv
; 727  :         (void) _Ptr;
; 728  : #endif // _ITERATOR_DEBUG_LEVEL == 2
; 729  :     }

  0000c	5f		 pop	 edi
  0000d	5e		 pop	 esi
  0000e	5b		 pop	 ebx
  0000f	8b e5		 mov	 esp, ebp
  00011	5d		 pop	 ebp
  00012	c2 04 00	 ret	 4
?_Orphan_ptr@?$_Tree_val@U?$_Tree_simple_types@U?$pair@$$CBKK@std@@@std@@@std@@QAEXQAU?$_Tree_node@U?$pair@$$CBKK@std@@PAX@2@@Z ENDP ; std::_Tree_val<std::_Tree_simple_types<std::pair<unsigned long const ,unsigned long> > >::_Orphan_ptr
_TEXT	ENDS
; Function compile flags: /Odtp /ZI
; File C:\Program Files (x86)\Microsoft Visual Studio\2019\Community\VC\Tools\MSVC\14.27.29110\include\xtree
;	COMDAT ?_Insert_node@?$_Tree_val@U?$_Tree_simple_types@U?$pair@$$CBKK@std@@@std@@@std@@QAEPAU?$_Tree_node@U?$pair@$$CBKK@std@@PAX@2@U?$_Tree_id@PAU?$_Tree_node@U?$pair@$$CBKK@std@@PAX@std@@@2@QAU32@@Z
_TEXT	SEGMENT
__Parent_sibling$1 = -20				; size = 4
__Parent_sibling$2 = -16				; size = 4
__Pnode$3 = -12						; size = 4
__Head$ = -8						; size = 4
_this$ = -4						; size = 4
__Loc$ = 8						; size = 8
__Newnode$ = 16						; size = 4
?_Insert_node@?$_Tree_val@U?$_Tree_simple_types@U?$pair@$$CBKK@std@@@std@@@std@@QAEPAU?$_Tree_node@U?$pair@$$CBKK@std@@PAX@2@U?$_Tree_id@PAU?$_Tree_node@U?$pair@$$CBKK@std@@PAX@std@@@2@QAU32@@Z PROC ; std::_Tree_val<std::_Tree_simple_types<std::pair<unsigned long const ,unsigned long> > >::_Insert_node, COMDAT
; _this$ = ecx

; 644  :     _Nodeptr _Insert_node(const _Tree_id<_Nodeptr> _Loc, const _Nodeptr _Newnode) noexcept {

  00000	55		 push	 ebp
  00001	8b ec		 mov	 ebp, esp
  00003	83 ec 54	 sub	 esp, 84			; 00000054H
  00006	53		 push	 ebx
  00007	56		 push	 esi
  00008	57		 push	 edi
  00009	89 4d fc	 mov	 DWORD PTR _this$[ebp], ecx

; 645  :         ++_Mysize;

  0000c	8b 45 fc	 mov	 eax, DWORD PTR _this$[ebp]
  0000f	8b 48 04	 mov	 ecx, DWORD PTR [eax+4]
  00012	83 c1 01	 add	 ecx, 1
  00015	8b 55 fc	 mov	 edx, DWORD PTR _this$[ebp]
  00018	89 4a 04	 mov	 DWORD PTR [edx+4], ecx

; 646  :         const auto _Head  = _Myhead;

  0001b	8b 45 fc	 mov	 eax, DWORD PTR _this$[ebp]
  0001e	8b 08		 mov	 ecx, DWORD PTR [eax]
  00020	89 4d f8	 mov	 DWORD PTR __Head$[ebp], ecx

; 647  :         _Newnode->_Parent = _Loc._Parent;

  00023	8b 45 10	 mov	 eax, DWORD PTR __Newnode$[ebp]
  00026	8b 4d 08	 mov	 ecx, DWORD PTR __Loc$[ebp]
  00029	89 48 04	 mov	 DWORD PTR [eax+4], ecx

; 648  :         if (_Loc._Parent == _Head) { // first node in tree, just set head values

  0002c	8b 45 08	 mov	 eax, DWORD PTR __Loc$[ebp]
  0002f	3b 45 f8	 cmp	 eax, DWORD PTR __Head$[ebp]
  00032	75 29		 jne	 SHORT $LN5@Insert_nod

; 649  :             _Head->_Left     = _Newnode;

  00034	8b 45 f8	 mov	 eax, DWORD PTR __Head$[ebp]
  00037	8b 4d 10	 mov	 ecx, DWORD PTR __Newnode$[ebp]
  0003a	89 08		 mov	 DWORD PTR [eax], ecx

; 650  :             _Head->_Parent   = _Newnode;

  0003c	8b 45 f8	 mov	 eax, DWORD PTR __Head$[ebp]
  0003f	8b 4d 10	 mov	 ecx, DWORD PTR __Newnode$[ebp]
  00042	89 48 04	 mov	 DWORD PTR [eax+4], ecx

; 651  :             _Head->_Right    = _Newnode;

  00045	8b 45 f8	 mov	 eax, DWORD PTR __Head$[ebp]
  00048	8b 4d 10	 mov	 ecx, DWORD PTR __Newnode$[ebp]
  0004b	89 48 08	 mov	 DWORD PTR [eax+8], ecx

; 652  :             _Newnode->_Color = _Black; // the root is black

  0004e	8b 45 10	 mov	 eax, DWORD PTR __Newnode$[ebp]
  00051	c6 40 0c 01	 mov	 BYTE PTR [eax+12], 1

; 653  :             return _Newnode;

  00055	8b 45 10	 mov	 eax, DWORD PTR __Newnode$[ebp]
  00058	e9 a7 01 00 00	 jmp	 $LN18@Insert_nod
$LN5@Insert_nod:

; 654  :         }
; 655  : 
; 656  :         _STL_INTERNAL_CHECK(_Loc._Child != _Tree_child::_Unused);
; 657  :         if (_Loc._Child == _Tree_child::_Right) { // add to right of _Loc._Parent

  0005d	83 7d 0c 00	 cmp	 DWORD PTR __Loc$[ebp+4], 0
  00061	75 1f		 jne	 SHORT $LN6@Insert_nod

; 658  :             _STL_INTERNAL_CHECK(_Loc._Parent->_Right->_Isnil);
; 659  :             _Loc._Parent->_Right = _Newnode;

  00063	8b 45 08	 mov	 eax, DWORD PTR __Loc$[ebp]
  00066	8b 4d 10	 mov	 ecx, DWORD PTR __Newnode$[ebp]
  00069	89 48 08	 mov	 DWORD PTR [eax+8], ecx

; 660  :             if (_Loc._Parent == _Head->_Right) { // remember rightmost node

  0006c	8b 45 f8	 mov	 eax, DWORD PTR __Head$[ebp]
  0006f	8b 4d 08	 mov	 ecx, DWORD PTR __Loc$[ebp]
  00072	3b 48 08	 cmp	 ecx, DWORD PTR [eax+8]
  00075	75 09		 jne	 SHORT $LN8@Insert_nod

; 661  :                 _Head->_Right = _Newnode;

  00077	8b 45 f8	 mov	 eax, DWORD PTR __Head$[ebp]
  0007a	8b 4d 10	 mov	 ecx, DWORD PTR __Newnode$[ebp]
  0007d	89 48 08	 mov	 DWORD PTR [eax+8], ecx
$LN8@Insert_nod:

; 662  :             }
; 663  :         } else { // add to left of _Loc._Parent

  00080	eb 1a		 jmp	 SHORT $LN7@Insert_nod
$LN6@Insert_nod:

; 664  :             _STL_INTERNAL_CHECK(_Loc._Parent->_Left->_Isnil);
; 665  :             _Loc._Parent->_Left = _Newnode;

  00082	8b 45 08	 mov	 eax, DWORD PTR __Loc$[ebp]
  00085	8b 4d 10	 mov	 ecx, DWORD PTR __Newnode$[ebp]
  00088	89 08		 mov	 DWORD PTR [eax], ecx

; 666  :             if (_Loc._Parent == _Head->_Left) { // remember leftmost node

  0008a	8b 45 f8	 mov	 eax, DWORD PTR __Head$[ebp]
  0008d	8b 4d 08	 mov	 ecx, DWORD PTR __Loc$[ebp]
  00090	3b 08		 cmp	 ecx, DWORD PTR [eax]
  00092	75 08		 jne	 SHORT $LN7@Insert_nod

; 667  :                 _Head->_Left = _Newnode;

  00094	8b 45 f8	 mov	 eax, DWORD PTR __Head$[ebp]
  00097	8b 4d 10	 mov	 ecx, DWORD PTR __Newnode$[ebp]
  0009a	89 08		 mov	 DWORD PTR [eax], ecx
$LN7@Insert_nod:

; 668  :             }
; 669  :         }
; 670  : 
; 671  :         for (_Nodeptr _Pnode = _Newnode; _Pnode->_Parent->_Color == _Red;) {

  0009c	8b 45 10	 mov	 eax, DWORD PTR __Newnode$[ebp]
  0009f	89 45 f4	 mov	 DWORD PTR __Pnode$3[ebp], eax
$LN4@Insert_nod:
  000a2	8b 45 f4	 mov	 eax, DWORD PTR __Pnode$3[ebp]
  000a5	8b 48 04	 mov	 ecx, DWORD PTR [eax+4]
  000a8	0f be 51 0c	 movsx	 edx, BYTE PTR [ecx+12]
  000ac	85 d2		 test	 edx, edx
  000ae	0f 85 43 01 00
	00		 jne	 $LN3@Insert_nod

; 672  :             if (_Pnode->_Parent == _Pnode->_Parent->_Parent->_Left) { // fixup red-red in left subtree

  000b4	8b 45 f4	 mov	 eax, DWORD PTR __Pnode$3[ebp]
  000b7	8b 48 04	 mov	 ecx, DWORD PTR [eax+4]
  000ba	8b 51 04	 mov	 edx, DWORD PTR [ecx+4]
  000bd	8b 45 f4	 mov	 eax, DWORD PTR __Pnode$3[ebp]
  000c0	8b 48 04	 mov	 ecx, DWORD PTR [eax+4]
  000c3	3b 0a		 cmp	 ecx, DWORD PTR [edx]
  000c5	0f 85 97 00 00
	00		 jne	 $LN10@Insert_nod

; 673  :                 const auto _Parent_sibling = _Pnode->_Parent->_Parent->_Right;

  000cb	8b 45 f4	 mov	 eax, DWORD PTR __Pnode$3[ebp]
  000ce	8b 48 04	 mov	 ecx, DWORD PTR [eax+4]
  000d1	8b 51 04	 mov	 edx, DWORD PTR [ecx+4]
  000d4	8b 42 08	 mov	 eax, DWORD PTR [edx+8]
  000d7	89 45 f0	 mov	 DWORD PTR __Parent_sibling$2[ebp], eax

; 674  :                 if (_Parent_sibling->_Color == _Red) { // parent's sibling has two red children, blacken both

  000da	8b 45 f0	 mov	 eax, DWORD PTR __Parent_sibling$2[ebp]
  000dd	0f be 48 0c	 movsx	 ecx, BYTE PTR [eax+12]
  000e1	85 c9		 test	 ecx, ecx
  000e3	75 2c		 jne	 SHORT $LN12@Insert_nod

; 675  :                     _Pnode->_Parent->_Color          = _Black;

  000e5	8b 45 f4	 mov	 eax, DWORD PTR __Pnode$3[ebp]
  000e8	8b 48 04	 mov	 ecx, DWORD PTR [eax+4]
  000eb	c6 41 0c 01	 mov	 BYTE PTR [ecx+12], 1

; 676  :                     _Parent_sibling->_Color          = _Black;

  000ef	8b 45 f0	 mov	 eax, DWORD PTR __Parent_sibling$2[ebp]
  000f2	c6 40 0c 01	 mov	 BYTE PTR [eax+12], 1

; 677  :                     _Pnode->_Parent->_Parent->_Color = _Red;

  000f6	8b 45 f4	 mov	 eax, DWORD PTR __Pnode$3[ebp]
  000f9	8b 48 04	 mov	 ecx, DWORD PTR [eax+4]
  000fc	8b 51 04	 mov	 edx, DWORD PTR [ecx+4]
  000ff	c6 42 0c 00	 mov	 BYTE PTR [edx+12], 0

; 678  :                     _Pnode                           = _Pnode->_Parent->_Parent;

  00103	8b 45 f4	 mov	 eax, DWORD PTR __Pnode$3[ebp]
  00106	8b 48 04	 mov	 ecx, DWORD PTR [eax+4]
  00109	8b 51 04	 mov	 edx, DWORD PTR [ecx+4]
  0010c	89 55 f4	 mov	 DWORD PTR __Pnode$3[ebp], edx

; 679  :                 } else { // parent's sibling has red and black children

  0010f	eb 4c		 jmp	 SHORT $LN13@Insert_nod
$LN12@Insert_nod:

; 680  :                     if (_Pnode == _Pnode->_Parent->_Right) { // rotate right child to left

  00111	8b 45 f4	 mov	 eax, DWORD PTR __Pnode$3[ebp]
  00114	8b 48 04	 mov	 ecx, DWORD PTR [eax+4]
  00117	8b 55 f4	 mov	 edx, DWORD PTR __Pnode$3[ebp]
  0011a	3b 51 08	 cmp	 edx, DWORD PTR [ecx+8]
  0011d	75 15		 jne	 SHORT $LN14@Insert_nod

; 681  :                         _Pnode = _Pnode->_Parent;

  0011f	8b 45 f4	 mov	 eax, DWORD PTR __Pnode$3[ebp]
  00122	8b 48 04	 mov	 ecx, DWORD PTR [eax+4]
  00125	89 4d f4	 mov	 DWORD PTR __Pnode$3[ebp], ecx

; 682  :                         _Lrotate(_Pnode);

  00128	8b 45 f4	 mov	 eax, DWORD PTR __Pnode$3[ebp]
  0012b	50		 push	 eax
  0012c	8b 4d fc	 mov	 ecx, DWORD PTR _this$[ebp]
  0012f	e8 00 00 00 00	 call	 ?_Lrotate@?$_Tree_val@U?$_Tree_simple_types@U?$pair@$$CBKK@std@@@std@@@std@@QAEXPAU?$_Tree_node@U?$pair@$$CBKK@std@@PAX@2@@Z ; std::_Tree_val<std::_Tree_simple_types<std::pair<unsigned long const ,unsigned long> > >::_Lrotate
$LN14@Insert_nod:

; 683  :                     }
; 684  : 
; 685  :                     _Pnode->_Parent->_Color          = _Black; // propagate red up

  00134	8b 45 f4	 mov	 eax, DWORD PTR __Pnode$3[ebp]
  00137	8b 48 04	 mov	 ecx, DWORD PTR [eax+4]
  0013a	c6 41 0c 01	 mov	 BYTE PTR [ecx+12], 1

; 686  :                     _Pnode->_Parent->_Parent->_Color = _Red;

  0013e	8b 45 f4	 mov	 eax, DWORD PTR __Pnode$3[ebp]
  00141	8b 48 04	 mov	 ecx, DWORD PTR [eax+4]
  00144	8b 51 04	 mov	 edx, DWORD PTR [ecx+4]
  00147	c6 42 0c 00	 mov	 BYTE PTR [edx+12], 0

; 687  :                     _Rrotate(_Pnode->_Parent->_Parent);

  0014b	8b 45 f4	 mov	 eax, DWORD PTR __Pnode$3[ebp]
  0014e	8b 48 04	 mov	 ecx, DWORD PTR [eax+4]
  00151	8b 51 04	 mov	 edx, DWORD PTR [ecx+4]
  00154	52		 push	 edx
  00155	8b 4d fc	 mov	 ecx, DWORD PTR _this$[ebp]
  00158	e8 00 00 00 00	 call	 ?_Rrotate@?$_Tree_val@U?$_Tree_simple_types@U?$pair@$$CBKK@std@@@std@@@std@@QAEXPAU?$_Tree_node@U?$pair@$$CBKK@std@@PAX@2@@Z ; std::_Tree_val<std::_Tree_simple_types<std::pair<unsigned long const ,unsigned long> > >::_Rrotate
$LN13@Insert_nod:

; 688  :                 }
; 689  :             } else { // fixup red-red in right subtree

  0015d	e9 90 00 00 00	 jmp	 $LN11@Insert_nod
$LN10@Insert_nod:

; 690  :                 const auto _Parent_sibling = _Pnode->_Parent->_Parent->_Left;

  00162	8b 45 f4	 mov	 eax, DWORD PTR __Pnode$3[ebp]
  00165	8b 48 04	 mov	 ecx, DWORD PTR [eax+4]
  00168	8b 51 04	 mov	 edx, DWORD PTR [ecx+4]
  0016b	8b 02		 mov	 eax, DWORD PTR [edx]
  0016d	89 45 ec	 mov	 DWORD PTR __Parent_sibling$1[ebp], eax

; 691  :                 if (_Parent_sibling->_Color == _Red) { // parent's sibling has two red children, blacken both

  00170	8b 45 ec	 mov	 eax, DWORD PTR __Parent_sibling$1[ebp]
  00173	0f be 48 0c	 movsx	 ecx, BYTE PTR [eax+12]
  00177	85 c9		 test	 ecx, ecx
  00179	75 2c		 jne	 SHORT $LN15@Insert_nod

; 692  :                     _Pnode->_Parent->_Color          = _Black;

  0017b	8b 45 f4	 mov	 eax, DWORD PTR __Pnode$3[ebp]
  0017e	8b 48 04	 mov	 ecx, DWORD PTR [eax+4]
  00181	c6 41 0c 01	 mov	 BYTE PTR [ecx+12], 1

; 693  :                     _Parent_sibling->_Color          = _Black;

  00185	8b 45 ec	 mov	 eax, DWORD PTR __Parent_sibling$1[ebp]
  00188	c6 40 0c 01	 mov	 BYTE PTR [eax+12], 1

; 694  :                     _Pnode->_Parent->_Parent->_Color = _Red;

  0018c	8b 45 f4	 mov	 eax, DWORD PTR __Pnode$3[ebp]
  0018f	8b 48 04	 mov	 ecx, DWORD PTR [eax+4]
  00192	8b 51 04	 mov	 edx, DWORD PTR [ecx+4]
  00195	c6 42 0c 00	 mov	 BYTE PTR [edx+12], 0

; 695  :                     _Pnode                           = _Pnode->_Parent->_Parent;

  00199	8b 45 f4	 mov	 eax, DWORD PTR __Pnode$3[ebp]
  0019c	8b 48 04	 mov	 ecx, DWORD PTR [eax+4]
  0019f	8b 51 04	 mov	 edx, DWORD PTR [ecx+4]
  001a2	89 55 f4	 mov	 DWORD PTR __Pnode$3[ebp], edx

; 696  :                 } else { // parent's sibling has red and black children

  001a5	eb 4b		 jmp	 SHORT $LN11@Insert_nod
$LN15@Insert_nod:

; 697  :                     if (_Pnode == _Pnode->_Parent->_Left) { // rotate left child to right

  001a7	8b 45 f4	 mov	 eax, DWORD PTR __Pnode$3[ebp]
  001aa	8b 48 04	 mov	 ecx, DWORD PTR [eax+4]
  001ad	8b 55 f4	 mov	 edx, DWORD PTR __Pnode$3[ebp]
  001b0	3b 11		 cmp	 edx, DWORD PTR [ecx]
  001b2	75 15		 jne	 SHORT $LN17@Insert_nod

; 698  :                         _Pnode = _Pnode->_Parent;

  001b4	8b 45 f4	 mov	 eax, DWORD PTR __Pnode$3[ebp]
  001b7	8b 48 04	 mov	 ecx, DWORD PTR [eax+4]
  001ba	89 4d f4	 mov	 DWORD PTR __Pnode$3[ebp], ecx

; 699  :                         _Rrotate(_Pnode);

  001bd	8b 45 f4	 mov	 eax, DWORD PTR __Pnode$3[ebp]
  001c0	50		 push	 eax
  001c1	8b 4d fc	 mov	 ecx, DWORD PTR _this$[ebp]
  001c4	e8 00 00 00 00	 call	 ?_Rrotate@?$_Tree_val@U?$_Tree_simple_types@U?$pair@$$CBKK@std@@@std@@@std@@QAEXPAU?$_Tree_node@U?$pair@$$CBKK@std@@PAX@2@@Z ; std::_Tree_val<std::_Tree_simple_types<std::pair<unsigned long const ,unsigned long> > >::_Rrotate
$LN17@Insert_nod:

; 700  :                     }
; 701  : 
; 702  :                     _Pnode->_Parent->_Color          = _Black; // propagate red up

  001c9	8b 45 f4	 mov	 eax, DWORD PTR __Pnode$3[ebp]
  001cc	8b 48 04	 mov	 ecx, DWORD PTR [eax+4]
  001cf	c6 41 0c 01	 mov	 BYTE PTR [ecx+12], 1

; 703  :                     _Pnode->_Parent->_Parent->_Color = _Red;

  001d3	8b 45 f4	 mov	 eax, DWORD PTR __Pnode$3[ebp]
  001d6	8b 48 04	 mov	 ecx, DWORD PTR [eax+4]
  001d9	8b 51 04	 mov	 edx, DWORD PTR [ecx+4]
  001dc	c6 42 0c 00	 mov	 BYTE PTR [edx+12], 0

; 704  :                     _Lrotate(_Pnode->_Parent->_Parent);

  001e0	8b 45 f4	 mov	 eax, DWORD PTR __Pnode$3[ebp]
  001e3	8b 48 04	 mov	 ecx, DWORD PTR [eax+4]
  001e6	8b 51 04	 mov	 edx, DWORD PTR [ecx+4]
  001e9	52		 push	 edx
  001ea	8b 4d fc	 mov	 ecx, DWORD PTR _this$[ebp]
  001ed	e8 00 00 00 00	 call	 ?_Lrotate@?$_Tree_val@U?$_Tree_simple_types@U?$pair@$$CBKK@std@@@std@@@std@@QAEXPAU?$_Tree_node@U?$pair@$$CBKK@std@@PAX@2@@Z ; std::_Tree_val<std::_Tree_simple_types<std::pair<unsigned long const ,unsigned long> > >::_Lrotate
$LN11@Insert_nod:

; 705  :                 }
; 706  :             }
; 707  :         }

  001f2	e9 ab fe ff ff	 jmp	 $LN4@Insert_nod
$LN3@Insert_nod:

; 708  : 
; 709  :         _Head->_Parent->_Color = _Black; // root is always black

  001f7	8b 45 f8	 mov	 eax, DWORD PTR __Head$[ebp]
  001fa	8b 48 04	 mov	 ecx, DWORD PTR [eax+4]
  001fd	c6 41 0c 01	 mov	 BYTE PTR [ecx+12], 1

; 710  :         return _Newnode;

  00201	8b 45 10	 mov	 eax, DWORD PTR __Newnode$[ebp]
$LN18@Insert_nod:

; 711  :     }

  00204	5f		 pop	 edi
  00205	5e		 pop	 esi
  00206	5b		 pop	 ebx
  00207	8b e5		 mov	 esp, ebp
  00209	5d		 pop	 ebp
  0020a	c2 0c 00	 ret	 12			; 0000000cH
?_Insert_node@?$_Tree_val@U?$_Tree_simple_types@U?$pair@$$CBKK@std@@@std@@@std@@QAEPAU?$_Tree_node@U?$pair@$$CBKK@std@@PAX@2@U?$_Tree_id@PAU?$_Tree_node@U?$pair@$$CBKK@std@@PAX@std@@@2@QAU32@@Z ENDP ; std::_Tree_val<std::_Tree_simple_types<std::pair<unsigned long const ,unsigned long> > >::_Insert_node
_TEXT	ENDS
; Function compile flags: /Odtp /ZI
; File C:\Program Files (x86)\Microsoft Visual Studio\2019\Community\VC\Tools\MSVC\14.27.29110\include\xtree
;	COMDAT ?_Rrotate@?$_Tree_val@U?$_Tree_simple_types@U?$pair@$$CBKK@std@@@std@@@std@@QAEXPAU?$_Tree_node@U?$pair@$$CBKK@std@@PAX@2@@Z
_TEXT	SEGMENT
__Pnode$ = -8						; size = 4
_this$ = -4						; size = 4
__Wherenode$ = 8					; size = 4
?_Rrotate@?$_Tree_val@U?$_Tree_simple_types@U?$pair@$$CBKK@std@@@std@@@std@@QAEXPAU?$_Tree_node@U?$pair@$$CBKK@std@@PAX@2@@Z PROC ; std::_Tree_val<std::_Tree_simple_types<std::pair<unsigned long const ,unsigned long> > >::_Rrotate, COMDAT
; _this$ = ecx

; 480  :     void _Rrotate(_Nodeptr _Wherenode) noexcept { // promote left node to root of subtree

  00000	55		 push	 ebp
  00001	8b ec		 mov	 ebp, esp
  00003	83 ec 48	 sub	 esp, 72			; 00000048H
  00006	53		 push	 ebx
  00007	56		 push	 esi
  00008	57		 push	 edi
  00009	89 4d fc	 mov	 DWORD PTR _this$[ebp], ecx

; 481  :         _Nodeptr _Pnode   = _Wherenode->_Left;

  0000c	8b 45 08	 mov	 eax, DWORD PTR __Wherenode$[ebp]
  0000f	8b 08		 mov	 ecx, DWORD PTR [eax]
  00011	89 4d f8	 mov	 DWORD PTR __Pnode$[ebp], ecx

; 482  :         _Wherenode->_Left = _Pnode->_Right;

  00014	8b 45 08	 mov	 eax, DWORD PTR __Wherenode$[ebp]
  00017	8b 4d f8	 mov	 ecx, DWORD PTR __Pnode$[ebp]
  0001a	8b 51 08	 mov	 edx, DWORD PTR [ecx+8]
  0001d	89 10		 mov	 DWORD PTR [eax], edx

; 483  : 
; 484  :         if (!_Pnode->_Right->_Isnil) {

  0001f	8b 45 f8	 mov	 eax, DWORD PTR __Pnode$[ebp]
  00022	8b 48 08	 mov	 ecx, DWORD PTR [eax+8]
  00025	0f be 51 0d	 movsx	 edx, BYTE PTR [ecx+13]
  00029	85 d2		 test	 edx, edx
  0002b	75 0c		 jne	 SHORT $LN2@Rrotate

; 485  :             _Pnode->_Right->_Parent = _Wherenode;

  0002d	8b 45 f8	 mov	 eax, DWORD PTR __Pnode$[ebp]
  00030	8b 48 08	 mov	 ecx, DWORD PTR [eax+8]
  00033	8b 55 08	 mov	 edx, DWORD PTR __Wherenode$[ebp]
  00036	89 51 04	 mov	 DWORD PTR [ecx+4], edx
$LN2@Rrotate:

; 486  :         }
; 487  : 
; 488  :         _Pnode->_Parent = _Wherenode->_Parent;

  00039	8b 45 f8	 mov	 eax, DWORD PTR __Pnode$[ebp]
  0003c	8b 4d 08	 mov	 ecx, DWORD PTR __Wherenode$[ebp]
  0003f	8b 51 04	 mov	 edx, DWORD PTR [ecx+4]
  00042	89 50 04	 mov	 DWORD PTR [eax+4], edx

; 489  : 
; 490  :         if (_Wherenode == _Myhead->_Parent) {

  00045	8b 45 fc	 mov	 eax, DWORD PTR _this$[ebp]
  00048	8b 08		 mov	 ecx, DWORD PTR [eax]
  0004a	8b 55 08	 mov	 edx, DWORD PTR __Wherenode$[ebp]
  0004d	3b 51 04	 cmp	 edx, DWORD PTR [ecx+4]
  00050	75 0d		 jne	 SHORT $LN3@Rrotate

; 491  :             _Myhead->_Parent = _Pnode;

  00052	8b 45 fc	 mov	 eax, DWORD PTR _this$[ebp]
  00055	8b 08		 mov	 ecx, DWORD PTR [eax]
  00057	8b 55 f8	 mov	 edx, DWORD PTR __Pnode$[ebp]
  0005a	89 51 04	 mov	 DWORD PTR [ecx+4], edx
  0005d	eb 27		 jmp	 SHORT $LN4@Rrotate
$LN3@Rrotate:

; 492  :         } else if (_Wherenode == _Wherenode->_Parent->_Right) {

  0005f	8b 45 08	 mov	 eax, DWORD PTR __Wherenode$[ebp]
  00062	8b 48 04	 mov	 ecx, DWORD PTR [eax+4]
  00065	8b 55 08	 mov	 edx, DWORD PTR __Wherenode$[ebp]
  00068	3b 51 08	 cmp	 edx, DWORD PTR [ecx+8]
  0006b	75 0e		 jne	 SHORT $LN5@Rrotate

; 493  :             _Wherenode->_Parent->_Right = _Pnode;

  0006d	8b 45 08	 mov	 eax, DWORD PTR __Wherenode$[ebp]
  00070	8b 48 04	 mov	 ecx, DWORD PTR [eax+4]
  00073	8b 55 f8	 mov	 edx, DWORD PTR __Pnode$[ebp]
  00076	89 51 08	 mov	 DWORD PTR [ecx+8], edx

; 494  :         } else {

  00079	eb 0b		 jmp	 SHORT $LN4@Rrotate
$LN5@Rrotate:

; 495  :             _Wherenode->_Parent->_Left = _Pnode;

  0007b	8b 45 08	 mov	 eax, DWORD PTR __Wherenode$[ebp]
  0007e	8b 48 04	 mov	 ecx, DWORD PTR [eax+4]
  00081	8b 55 f8	 mov	 edx, DWORD PTR __Pnode$[ebp]
  00084	89 11		 mov	 DWORD PTR [ecx], edx
$LN4@Rrotate:

; 496  :         }
; 497  : 
; 498  :         _Pnode->_Right      = _Wherenode;

  00086	8b 45 f8	 mov	 eax, DWORD PTR __Pnode$[ebp]
  00089	8b 4d 08	 mov	 ecx, DWORD PTR __Wherenode$[ebp]
  0008c	89 48 08	 mov	 DWORD PTR [eax+8], ecx

; 499  :         _Wherenode->_Parent = _Pnode;

  0008f	8b 45 08	 mov	 eax, DWORD PTR __Wherenode$[ebp]
  00092	8b 4d f8	 mov	 ecx, DWORD PTR __Pnode$[ebp]
  00095	89 48 04	 mov	 DWORD PTR [eax+4], ecx

; 500  :     }

  00098	5f		 pop	 edi
  00099	5e		 pop	 esi
  0009a	5b		 pop	 ebx
  0009b	8b e5		 mov	 esp, ebp
  0009d	5d		 pop	 ebp
  0009e	c2 04 00	 ret	 4
?_Rrotate@?$_Tree_val@U?$_Tree_simple_types@U?$pair@$$CBKK@std@@@std@@@std@@QAEXPAU?$_Tree_node@U?$pair@$$CBKK@std@@PAX@2@@Z ENDP ; std::_Tree_val<std::_Tree_simple_types<std::pair<unsigned long const ,unsigned long> > >::_Rrotate
_TEXT	ENDS
; Function compile flags: /Odtp /ZI
; File C:\Program Files (x86)\Microsoft Visual Studio\2019\Community\VC\Tools\MSVC\14.27.29110\include\xtree
;	COMDAT ?_Lrotate@?$_Tree_val@U?$_Tree_simple_types@U?$pair@$$CBKK@std@@@std@@@std@@QAEXPAU?$_Tree_node@U?$pair@$$CBKK@std@@PAX@2@@Z
_TEXT	SEGMENT
__Pnode$ = -8						; size = 4
_this$ = -4						; size = 4
__Wherenode$ = 8					; size = 4
?_Lrotate@?$_Tree_val@U?$_Tree_simple_types@U?$pair@$$CBKK@std@@@std@@@std@@QAEXPAU?$_Tree_node@U?$pair@$$CBKK@std@@PAX@2@@Z PROC ; std::_Tree_val<std::_Tree_simple_types<std::pair<unsigned long const ,unsigned long> > >::_Lrotate, COMDAT
; _this$ = ecx

; 458  :     void _Lrotate(_Nodeptr _Wherenode) noexcept { // promote right node to root of subtree

  00000	55		 push	 ebp
  00001	8b ec		 mov	 ebp, esp
  00003	83 ec 48	 sub	 esp, 72			; 00000048H
  00006	53		 push	 ebx
  00007	56		 push	 esi
  00008	57		 push	 edi
  00009	89 4d fc	 mov	 DWORD PTR _this$[ebp], ecx

; 459  :         _Nodeptr _Pnode    = _Wherenode->_Right;

  0000c	8b 45 08	 mov	 eax, DWORD PTR __Wherenode$[ebp]
  0000f	8b 48 08	 mov	 ecx, DWORD PTR [eax+8]
  00012	89 4d f8	 mov	 DWORD PTR __Pnode$[ebp], ecx

; 460  :         _Wherenode->_Right = _Pnode->_Left;

  00015	8b 45 08	 mov	 eax, DWORD PTR __Wherenode$[ebp]
  00018	8b 4d f8	 mov	 ecx, DWORD PTR __Pnode$[ebp]
  0001b	8b 11		 mov	 edx, DWORD PTR [ecx]
  0001d	89 50 08	 mov	 DWORD PTR [eax+8], edx

; 461  : 
; 462  :         if (!_Pnode->_Left->_Isnil) {

  00020	8b 45 f8	 mov	 eax, DWORD PTR __Pnode$[ebp]
  00023	8b 08		 mov	 ecx, DWORD PTR [eax]
  00025	0f be 51 0d	 movsx	 edx, BYTE PTR [ecx+13]
  00029	85 d2		 test	 edx, edx
  0002b	75 0b		 jne	 SHORT $LN2@Lrotate

; 463  :             _Pnode->_Left->_Parent = _Wherenode;

  0002d	8b 45 f8	 mov	 eax, DWORD PTR __Pnode$[ebp]
  00030	8b 08		 mov	 ecx, DWORD PTR [eax]
  00032	8b 55 08	 mov	 edx, DWORD PTR __Wherenode$[ebp]
  00035	89 51 04	 mov	 DWORD PTR [ecx+4], edx
$LN2@Lrotate:

; 464  :         }
; 465  : 
; 466  :         _Pnode->_Parent = _Wherenode->_Parent;

  00038	8b 45 f8	 mov	 eax, DWORD PTR __Pnode$[ebp]
  0003b	8b 4d 08	 mov	 ecx, DWORD PTR __Wherenode$[ebp]
  0003e	8b 51 04	 mov	 edx, DWORD PTR [ecx+4]
  00041	89 50 04	 mov	 DWORD PTR [eax+4], edx

; 467  : 
; 468  :         if (_Wherenode == _Myhead->_Parent) {

  00044	8b 45 fc	 mov	 eax, DWORD PTR _this$[ebp]
  00047	8b 08		 mov	 ecx, DWORD PTR [eax]
  00049	8b 55 08	 mov	 edx, DWORD PTR __Wherenode$[ebp]
  0004c	3b 51 04	 cmp	 edx, DWORD PTR [ecx+4]
  0004f	75 0d		 jne	 SHORT $LN3@Lrotate

; 469  :             _Myhead->_Parent = _Pnode;

  00051	8b 45 fc	 mov	 eax, DWORD PTR _this$[ebp]
  00054	8b 08		 mov	 ecx, DWORD PTR [eax]
  00056	8b 55 f8	 mov	 edx, DWORD PTR __Pnode$[ebp]
  00059	89 51 04	 mov	 DWORD PTR [ecx+4], edx
  0005c	eb 26		 jmp	 SHORT $LN4@Lrotate
$LN3@Lrotate:

; 470  :         } else if (_Wherenode == _Wherenode->_Parent->_Left) {

  0005e	8b 45 08	 mov	 eax, DWORD PTR __Wherenode$[ebp]
  00061	8b 48 04	 mov	 ecx, DWORD PTR [eax+4]
  00064	8b 55 08	 mov	 edx, DWORD PTR __Wherenode$[ebp]
  00067	3b 11		 cmp	 edx, DWORD PTR [ecx]
  00069	75 0d		 jne	 SHORT $LN5@Lrotate

; 471  :             _Wherenode->_Parent->_Left = _Pnode;

  0006b	8b 45 08	 mov	 eax, DWORD PTR __Wherenode$[ebp]
  0006e	8b 48 04	 mov	 ecx, DWORD PTR [eax+4]
  00071	8b 55 f8	 mov	 edx, DWORD PTR __Pnode$[ebp]
  00074	89 11		 mov	 DWORD PTR [ecx], edx

; 472  :         } else {

  00076	eb 0c		 jmp	 SHORT $LN4@Lrotate
$LN5@Lrotate:

; 473  :             _Wherenode->_Parent->_Right = _Pnode;

  00078	8b 45 08	 mov	 eax, DWORD PTR __Wherenode$[ebp]
  0007b	8b 48 04	 mov	 ecx, DWORD PTR [eax+4]
  0007e	8b 55 f8	 mov	 edx, DWORD PTR __Pnode$[ebp]
  00081	89 51 08	 mov	 DWORD PTR [ecx+8], edx
$LN4@Lrotate:

; 474  :         }
; 475  : 
; 476  :         _Pnode->_Left       = _Wherenode;

  00084	8b 45 f8	 mov	 eax, DWORD PTR __Pnode$[ebp]
  00087	8b 4d 08	 mov	 ecx, DWORD PTR __Wherenode$[ebp]
  0008a	89 08		 mov	 DWORD PTR [eax], ecx

; 477  :         _Wherenode->_Parent = _Pnode;

  0008c	8b 45 08	 mov	 eax, DWORD PTR __Wherenode$[ebp]
  0008f	8b 4d f8	 mov	 ecx, DWORD PTR __Pnode$[ebp]
  00092	89 48 04	 mov	 DWORD PTR [eax+4], ecx

; 478  :     }

  00095	5f		 pop	 edi
  00096	5e		 pop	 esi
  00097	5b		 pop	 ebx
  00098	8b e5		 mov	 esp, ebp
  0009a	5d		 pop	 ebp
  0009b	c2 04 00	 ret	 4
?_Lrotate@?$_Tree_val@U?$_Tree_simple_types@U?$pair@$$CBKK@std@@@std@@@std@@QAEXPAU?$_Tree_node@U?$pair@$$CBKK@std@@PAX@2@@Z ENDP ; std::_Tree_val<std::_Tree_simple_types<std::pair<unsigned long const ,unsigned long> > >::_Lrotate
_TEXT	ENDS
; Function compile flags: /Odtp /ZI
; File C:\Program Files (x86)\Microsoft Visual Studio\2019\Community\VC\Tools\MSVC\14.27.29110\include\xtree
;	COMDAT ??0?$_Tree_val@U?$_Tree_simple_types@U?$pair@$$CBKK@std@@@std@@@std@@QAE@XZ
_TEXT	SEGMENT
_this$ = -4						; size = 4
??0?$_Tree_val@U?$_Tree_simple_types@U?$pair@$$CBKK@std@@@std@@@std@@QAE@XZ PROC ; std::_Tree_val<std::_Tree_simple_types<std::pair<unsigned long const ,unsigned long> > >::_Tree_val<std::_Tree_simple_types<std::pair<unsigned long const ,unsigned long> > >, COMDAT
; _this$ = ecx

; 435  :     _Tree_val() noexcept : _Myhead(), _Mysize(0) {}

  00000	55		 push	 ebp
  00001	8b ec		 mov	 ebp, esp
  00003	83 ec 44	 sub	 esp, 68			; 00000044H
  00006	53		 push	 ebx
  00007	56		 push	 esi
  00008	57		 push	 edi
  00009	89 4d fc	 mov	 DWORD PTR _this$[ebp], ecx
  0000c	8b 45 fc	 mov	 eax, DWORD PTR _this$[ebp]
  0000f	c7 00 00 00 00
	00		 mov	 DWORD PTR [eax], 0
  00015	8b 45 fc	 mov	 eax, DWORD PTR _this$[ebp]
  00018	c7 40 04 00 00
	00 00		 mov	 DWORD PTR [eax+4], 0
  0001f	8b 45 fc	 mov	 eax, DWORD PTR _this$[ebp]
  00022	5f		 pop	 edi
  00023	5e		 pop	 esi
  00024	5b		 pop	 ebx
  00025	8b e5		 mov	 esp, ebp
  00027	5d		 pop	 ebp
  00028	c3		 ret	 0
??0?$_Tree_val@U?$_Tree_simple_types@U?$pair@$$CBKK@std@@@std@@@std@@QAE@XZ ENDP ; std::_Tree_val<std::_Tree_simple_types<std::pair<unsigned long const ,unsigned long> > >::_Tree_val<std::_Tree_simple_types<std::pair<unsigned long const ,unsigned long> > >
_TEXT	ENDS
; Function compile flags: /Odtp /ZI
; File C:\Program Files (x86)\Microsoft Visual Studio\2019\Community\VC\Tools\MSVC\14.27.29110\include\xstddef
;	COMDAT ??R?$less@K@std@@QBE_NABK0@Z
_TEXT	SEGMENT
tv65 = -72						; size = 4
_this$ = -4						; size = 4
__Left$ = 8						; size = 4
__Right$ = 12						; size = 4
??R?$less@K@std@@QBE_NABK0@Z PROC			; std::less<unsigned long>::operator(), COMDAT
; _this$ = ecx

; 126  :     constexpr bool operator()(const _Ty& _Left, const _Ty& _Right) const {

  00000	55		 push	 ebp
  00001	8b ec		 mov	 ebp, esp
  00003	83 ec 48	 sub	 esp, 72			; 00000048H
  00006	53		 push	 ebx
  00007	56		 push	 esi
  00008	57		 push	 edi
  00009	89 4d fc	 mov	 DWORD PTR _this$[ebp], ecx

; 127  :         return _Left < _Right;

  0000c	8b 45 08	 mov	 eax, DWORD PTR __Left$[ebp]
  0000f	8b 4d 0c	 mov	 ecx, DWORD PTR __Right$[ebp]
  00012	8b 10		 mov	 edx, DWORD PTR [eax]
  00014	3b 11		 cmp	 edx, DWORD PTR [ecx]
  00016	73 09		 jae	 SHORT $LN3@operator
  00018	c7 45 b8 01 00
	00 00		 mov	 DWORD PTR tv65[ebp], 1
  0001f	eb 07		 jmp	 SHORT $LN4@operator
$LN3@operator:
  00021	c7 45 b8 00 00
	00 00		 mov	 DWORD PTR tv65[ebp], 0
$LN4@operator:
  00028	8a 45 b8	 mov	 al, BYTE PTR tv65[ebp]

; 128  :     }

  0002b	5f		 pop	 edi
  0002c	5e		 pop	 esi
  0002d	5b		 pop	 ebx
  0002e	8b e5		 mov	 esp, ebp
  00030	5d		 pop	 ebp
  00031	c2 08 00	 ret	 8
??R?$less@K@std@@QBE_NABK0@Z ENDP			; std::less<unsigned long>::operator()
_TEXT	ENDS
; Function compile flags: /Odtp /ZI
; File C:\Program Files (x86)\Microsoft Visual Studio\2019\Community\VC\Tools\MSVC\14.27.29110\include\xtree
;	COMDAT ?_Get_scary@?$_Tree@V?$_Tmap_traits@KKU?$less@K@std@@V?$allocator@U?$pair@$$CBKK@std@@@2@$0A@@std@@@std@@IBEPBV?$_Tree_val@U?$_Tree_simple_types@U?$pair@$$CBKK@std@@@std@@@2@XZ
_TEXT	SEGMENT
_this$ = -4						; size = 4
?_Get_scary@?$_Tree@V?$_Tmap_traits@KKU?$less@K@std@@V?$allocator@U?$pair@$$CBKK@std@@@2@$0A@@std@@@std@@IBEPBV?$_Tree_val@U?$_Tree_simple_types@U?$pair@$$CBKK@std@@@std@@@2@XZ PROC ; std::_Tree<std::_Tmap_traits<unsigned long,unsigned long,std::less<unsigned long>,std::allocator<std::pair<unsigned long const ,unsigned long> >,0> >::_Get_scary, COMDAT
; _this$ = ecx

; 2050 :     const _Scary_val* _Get_scary() const noexcept {

  00000	55		 push	 ebp
  00001	8b ec		 mov	 ebp, esp
  00003	83 ec 44	 sub	 esp, 68			; 00000044H
  00006	53		 push	 ebx
  00007	56		 push	 esi
  00008	57		 push	 edi
  00009	89 4d fc	 mov	 DWORD PTR _this$[ebp], ecx

; 2051 :         return _STD addressof(_Mypair._Myval2._Myval2);

  0000c	8b 45 fc	 mov	 eax, DWORD PTR _this$[ebp]
  0000f	50		 push	 eax
  00010	e8 00 00 00 00	 call	 ??$addressof@$$CBV?$_Tree_val@U?$_Tree_simple_types@U?$pair@$$CBKK@std@@@std@@@std@@@std@@YAPBV?$_Tree_val@U?$_Tree_simple_types@U?$pair@$$CBKK@std@@@std@@@0@ABV10@@Z ; std::addressof<std::_Tree_val<std::_Tree_simple_types<std::pair<unsigned long const ,unsigned long> > > const >
  00015	83 c4 04	 add	 esp, 4

; 2052 :     }

  00018	5f		 pop	 edi
  00019	5e		 pop	 esi
  0001a	5b		 pop	 ebx
  0001b	8b e5		 mov	 esp, ebp
  0001d	5d		 pop	 ebp
  0001e	c3		 ret	 0
?_Get_scary@?$_Tree@V?$_Tmap_traits@KKU?$less@K@std@@V?$allocator@U?$pair@$$CBKK@std@@@2@$0A@@std@@@std@@IBEPBV?$_Tree_val@U?$_Tree_simple_types@U?$pair@$$CBKK@std@@@std@@@2@XZ ENDP ; std::_Tree<std::_Tmap_traits<unsigned long,unsigned long,std::less<unsigned long>,std::allocator<std::pair<unsigned long const ,unsigned long> >,0> >::_Get_scary
_TEXT	ENDS
; Function compile flags: /Odtp /ZI
; File C:\Program Files (x86)\Microsoft Visual Studio\2019\Community\VC\Tools\MSVC\14.27.29110\include\xtree
;	COMDAT ?_Get_scary@?$_Tree@V?$_Tmap_traits@KKU?$less@K@std@@V?$allocator@U?$pair@$$CBKK@std@@@2@$0A@@std@@@std@@IAEPAV?$_Tree_val@U?$_Tree_simple_types@U?$pair@$$CBKK@std@@@std@@@2@XZ
_TEXT	SEGMENT
_this$ = -4						; size = 4
?_Get_scary@?$_Tree@V?$_Tmap_traits@KKU?$less@K@std@@V?$allocator@U?$pair@$$CBKK@std@@@2@$0A@@std@@@std@@IAEPAV?$_Tree_val@U?$_Tree_simple_types@U?$pair@$$CBKK@std@@@std@@@2@XZ PROC ; std::_Tree<std::_Tmap_traits<unsigned long,unsigned long,std::less<unsigned long>,std::allocator<std::pair<unsigned long const ,unsigned long> >,0> >::_Get_scary, COMDAT
; _this$ = ecx

; 2046 :     _Scary_val* _Get_scary() noexcept {

  00000	55		 push	 ebp
  00001	8b ec		 mov	 ebp, esp
  00003	83 ec 44	 sub	 esp, 68			; 00000044H
  00006	53		 push	 ebx
  00007	56		 push	 esi
  00008	57		 push	 edi
  00009	89 4d fc	 mov	 DWORD PTR _this$[ebp], ecx

; 2047 :         return _STD addressof(_Mypair._Myval2._Myval2);

  0000c	8b 45 fc	 mov	 eax, DWORD PTR _this$[ebp]
  0000f	50		 push	 eax
  00010	e8 00 00 00 00	 call	 ??$addressof@V?$_Tree_val@U?$_Tree_simple_types@U?$pair@$$CBKK@std@@@std@@@std@@@std@@YAPAV?$_Tree_val@U?$_Tree_simple_types@U?$pair@$$CBKK@std@@@std@@@0@AAV10@@Z ; std::addressof<std::_Tree_val<std::_Tree_simple_types<std::pair<unsigned long const ,unsigned long> > > >
  00015	83 c4 04	 add	 esp, 4

; 2048 :     }

  00018	5f		 pop	 edi
  00019	5e		 pop	 esi
  0001a	5b		 pop	 ebx
  0001b	8b e5		 mov	 esp, ebp
  0001d	5d		 pop	 ebp
  0001e	c3		 ret	 0
?_Get_scary@?$_Tree@V?$_Tmap_traits@KKU?$less@K@std@@V?$allocator@U?$pair@$$CBKK@std@@@2@$0A@@std@@@std@@IAEPAV?$_Tree_val@U?$_Tree_simple_types@U?$pair@$$CBKK@std@@@std@@@2@XZ ENDP ; std::_Tree<std::_Tmap_traits<unsigned long,unsigned long,std::less<unsigned long>,std::allocator<std::pair<unsigned long const ,unsigned long> >,0> >::_Get_scary
_TEXT	ENDS
; Function compile flags: /Odtp /ZI
; File C:\Program Files (x86)\Microsoft Visual Studio\2019\Community\VC\Tools\MSVC\14.27.29110\include\xtree
;	COMDAT ?_Getal@?$_Tree@V?$_Tmap_traits@KKU?$less@K@std@@V?$allocator@U?$pair@$$CBKK@std@@@2@$0A@@std@@@std@@IBEABV?$allocator@U?$_Tree_node@U?$pair@$$CBKK@std@@PAX@std@@@2@XZ
_TEXT	SEGMENT
_this$ = -4						; size = 4
?_Getal@?$_Tree@V?$_Tmap_traits@KKU?$less@K@std@@V?$allocator@U?$pair@$$CBKK@std@@@2@$0A@@std@@@std@@IBEABV?$allocator@U?$_Tree_node@U?$pair@$$CBKK@std@@PAX@std@@@2@XZ PROC ; std::_Tree<std::_Tmap_traits<unsigned long,unsigned long,std::less<unsigned long>,std::allocator<std::pair<unsigned long const ,unsigned long> >,0> >::_Getal, COMDAT
; _this$ = ecx

; 2042 :     const _Alnode& _Getal() const noexcept {

  00000	55		 push	 ebp
  00001	8b ec		 mov	 ebp, esp
  00003	83 ec 44	 sub	 esp, 68			; 00000044H
  00006	53		 push	 ebx
  00007	56		 push	 esi
  00008	57		 push	 edi
  00009	89 4d fc	 mov	 DWORD PTR _this$[ebp], ecx

; 2043 :         return _Mypair._Myval2._Get_first();

  0000c	8b 4d fc	 mov	 ecx, DWORD PTR _this$[ebp]
  0000f	e8 00 00 00 00	 call	 ?_Get_first@?$_Compressed_pair@V?$allocator@U?$_Tree_node@U?$pair@$$CBKK@std@@PAX@std@@@std@@V?$_Tree_val@U?$_Tree_simple_types@U?$pair@$$CBKK@std@@@std@@@2@$00@std@@QBEABV?$allocator@U?$_Tree_node@U?$pair@$$CBKK@std@@PAX@std@@@2@XZ ; std::_Compressed_pair<std::allocator<std::_Tree_node<std::pair<unsigned long const ,unsigned long>,void *> >,std::_Tree_val<std::_Tree_simple_types<std::pair<unsigned long const ,unsigned long> > >,1>::_Get_first

; 2044 :     }

  00014	5f		 pop	 edi
  00015	5e		 pop	 esi
  00016	5b		 pop	 ebx
  00017	8b e5		 mov	 esp, ebp
  00019	5d		 pop	 ebp
  0001a	c3		 ret	 0
?_Getal@?$_Tree@V?$_Tmap_traits@KKU?$less@K@std@@V?$allocator@U?$pair@$$CBKK@std@@@2@$0A@@std@@@std@@IBEABV?$allocator@U?$_Tree_node@U?$pair@$$CBKK@std@@PAX@std@@@2@XZ ENDP ; std::_Tree<std::_Tmap_traits<unsigned long,unsigned long,std::less<unsigned long>,std::allocator<std::pair<unsigned long const ,unsigned long> >,0> >::_Getal
_TEXT	ENDS
; Function compile flags: /Odtp /ZI
; File C:\Program Files (x86)\Microsoft Visual Studio\2019\Community\VC\Tools\MSVC\14.27.29110\include\xtree
;	COMDAT ?_Getal@?$_Tree@V?$_Tmap_traits@KKU?$less@K@std@@V?$allocator@U?$pair@$$CBKK@std@@@2@$0A@@std@@@std@@IAEAAV?$allocator@U?$_Tree_node@U?$pair@$$CBKK@std@@PAX@std@@@2@XZ
_TEXT	SEGMENT
_this$ = -4						; size = 4
?_Getal@?$_Tree@V?$_Tmap_traits@KKU?$less@K@std@@V?$allocator@U?$pair@$$CBKK@std@@@2@$0A@@std@@@std@@IAEAAV?$allocator@U?$_Tree_node@U?$pair@$$CBKK@std@@PAX@std@@@2@XZ PROC ; std::_Tree<std::_Tmap_traits<unsigned long,unsigned long,std::less<unsigned long>,std::allocator<std::pair<unsigned long const ,unsigned long> >,0> >::_Getal, COMDAT
; _this$ = ecx

; 2038 :     _Alnode& _Getal() noexcept {

  00000	55		 push	 ebp
  00001	8b ec		 mov	 ebp, esp
  00003	83 ec 44	 sub	 esp, 68			; 00000044H
  00006	53		 push	 ebx
  00007	56		 push	 esi
  00008	57		 push	 edi
  00009	89 4d fc	 mov	 DWORD PTR _this$[ebp], ecx

; 2039 :         return _Mypair._Myval2._Get_first();

  0000c	8b 4d fc	 mov	 ecx, DWORD PTR _this$[ebp]
  0000f	e8 00 00 00 00	 call	 ?_Get_first@?$_Compressed_pair@V?$allocator@U?$_Tree_node@U?$pair@$$CBKK@std@@PAX@std@@@std@@V?$_Tree_val@U?$_Tree_simple_types@U?$pair@$$CBKK@std@@@std@@@2@$00@std@@QAEAAV?$allocator@U?$_Tree_node@U?$pair@$$CBKK@std@@PAX@std@@@2@XZ ; std::_Compressed_pair<std::allocator<std::_Tree_node<std::pair<unsigned long const ,unsigned long>,void *> >,std::_Tree_val<std::_Tree_simple_types<std::pair<unsigned long const ,unsigned long> > >,1>::_Get_first

; 2040 :     }

  00014	5f		 pop	 edi
  00015	5e		 pop	 esi
  00016	5b		 pop	 ebx
  00017	8b e5		 mov	 esp, ebp
  00019	5d		 pop	 ebp
  0001a	c3		 ret	 0
?_Getal@?$_Tree@V?$_Tmap_traits@KKU?$less@K@std@@V?$allocator@U?$pair@$$CBKK@std@@@2@$0A@@std@@@std@@IAEAAV?$allocator@U?$_Tree_node@U?$pair@$$CBKK@std@@PAX@std@@@2@XZ ENDP ; std::_Tree<std::_Tmap_traits<unsigned long,unsigned long,std::less<unsigned long>,std::allocator<std::pair<unsigned long const ,unsigned long> >,0> >::_Getal
_TEXT	ENDS
; Function compile flags: /Odtp /ZI
; File C:\Program Files (x86)\Microsoft Visual Studio\2019\Community\VC\Tools\MSVC\14.27.29110\include\xtree
;	COMDAT ?_Getcomp@?$_Tree@V?$_Tmap_traits@KKU?$less@K@std@@V?$allocator@U?$pair@$$CBKK@std@@@2@$0A@@std@@@std@@IBEABU?$less@K@2@XZ
_TEXT	SEGMENT
_this$ = -4						; size = 4
?_Getcomp@?$_Tree@V?$_Tmap_traits@KKU?$less@K@std@@V?$allocator@U?$pair@$$CBKK@std@@@2@$0A@@std@@@std@@IBEABU?$less@K@2@XZ PROC ; std::_Tree<std::_Tmap_traits<unsigned long,unsigned long,std::less<unsigned long>,std::allocator<std::pair<unsigned long const ,unsigned long> >,0> >::_Getcomp, COMDAT
; _this$ = ecx

; 2034 :     const key_compare& _Getcomp() const noexcept {

  00000	55		 push	 ebp
  00001	8b ec		 mov	 ebp, esp
  00003	83 ec 44	 sub	 esp, 68			; 00000044H
  00006	53		 push	 ebx
  00007	56		 push	 esi
  00008	57		 push	 edi
  00009	89 4d fc	 mov	 DWORD PTR _this$[ebp], ecx

; 2035 :         return _Mypair._Get_first();

  0000c	8b 4d fc	 mov	 ecx, DWORD PTR _this$[ebp]
  0000f	e8 00 00 00 00	 call	 ?_Get_first@?$_Compressed_pair@U?$less@K@std@@V?$_Compressed_pair@V?$allocator@U?$_Tree_node@U?$pair@$$CBKK@std@@PAX@std@@@std@@V?$_Tree_val@U?$_Tree_simple_types@U?$pair@$$CBKK@std@@@std@@@2@$00@2@$00@std@@QBEABU?$less@K@2@XZ ; std::_Compressed_pair<std::less<unsigned long>,std::_Compressed_pair<std::allocator<std::_Tree_node<std::pair<unsigned long const ,unsigned long>,void *> >,std::_Tree_val<std::_Tree_simple_types<std::pair<unsigned long const ,unsigned long> > >,1>,1>::_Get_first

; 2036 :     }

  00014	5f		 pop	 edi
  00015	5e		 pop	 esi
  00016	5b		 pop	 ebx
  00017	8b e5		 mov	 esp, ebp
  00019	5d		 pop	 ebp
  0001a	c3		 ret	 0
?_Getcomp@?$_Tree@V?$_Tmap_traits@KKU?$less@K@std@@V?$allocator@U?$pair@$$CBKK@std@@@2@$0A@@std@@@std@@IBEABU?$less@K@2@XZ ENDP ; std::_Tree<std::_Tmap_traits<unsigned long,unsigned long,std::less<unsigned long>,std::allocator<std::pair<unsigned long const ,unsigned long> >,0> >::_Getcomp
_TEXT	ENDS
; Function compile flags: /Odtp /ZI
; File C:\Program Files (x86)\Microsoft Visual Studio\2019\Community\VC\Tools\MSVC\14.27.29110\include\xtree
;	COMDAT ?_Alloc_sentinel_and_proxy@?$_Tree@V?$_Tmap_traits@KKU?$less@K@std@@V?$allocator@U?$pair@$$CBKK@std@@@2@$0A@@std@@@std@@IAEXXZ
_TEXT	SEGMENT
__Proxy$ = -14						; size = 1
_$S23$ = -13						; size = 1
__Alproxy$ = -12					; size = 4
__Scary$ = -8						; size = 4
_this$ = -4						; size = 4
?_Alloc_sentinel_and_proxy@?$_Tree@V?$_Tmap_traits@KKU?$less@K@std@@V?$allocator@U?$pair@$$CBKK@std@@@2@$0A@@std@@@std@@IAEXXZ PROC ; std::_Tree<std::_Tmap_traits<unsigned long,unsigned long,std::less<unsigned long>,std::allocator<std::pair<unsigned long const ,unsigned long> >,0> >::_Alloc_sentinel_and_proxy, COMDAT
; _this$ = ecx

; 2017 :     void _Alloc_sentinel_and_proxy() {

  00000	55		 push	 ebp
  00001	8b ec		 mov	 ebp, esp
  00003	83 ec 50	 sub	 esp, 80			; 00000050H
  00006	53		 push	 ebx
  00007	56		 push	 esi
  00008	57		 push	 edi
  00009	89 4d fc	 mov	 DWORD PTR _this$[ebp], ecx

; 2018 :         const auto _Scary = _Get_scary();

  0000c	8b 4d fc	 mov	 ecx, DWORD PTR _this$[ebp]
  0000f	e8 00 00 00 00	 call	 ?_Get_scary@?$_Tree@V?$_Tmap_traits@KKU?$less@K@std@@V?$allocator@U?$pair@$$CBKK@std@@@2@$0A@@std@@@std@@IAEPAV?$_Tree_val@U?$_Tree_simple_types@U?$pair@$$CBKK@std@@@std@@@2@XZ ; std::_Tree<std::_Tmap_traits<unsigned long,unsigned long,std::less<unsigned long>,std::allocator<std::pair<unsigned long const ,unsigned long> >,0> >::_Get_scary
  00014	89 45 f8	 mov	 DWORD PTR __Scary$[ebp], eax

; 2019 :         auto&& _Alproxy   = _GET_PROXY_ALLOCATOR(_Alnode, _Getal());

  00017	8d 45 f3	 lea	 eax, DWORD PTR _$S23$[ebp]
  0001a	89 45 f4	 mov	 DWORD PTR __Alproxy$[ebp], eax

; 2020 :         _Container_proxy_ptr<_Alnode> _Proxy(_Alproxy, *_Scary);

  0001d	8b 45 f8	 mov	 eax, DWORD PTR __Scary$[ebp]
  00020	50		 push	 eax
  00021	8b 4d f4	 mov	 ecx, DWORD PTR __Alproxy$[ebp]
  00024	51		 push	 ecx
  00025	8d 4d f2	 lea	 ecx, DWORD PTR __Proxy$[ebp]
  00028	e8 00 00 00 00	 call	 ??0_Fake_proxy_ptr_impl@std@@QAE@ABU_Fake_allocator@1@ABU_Container_base0@1@@Z ; std::_Fake_proxy_ptr_impl::_Fake_proxy_ptr_impl

; 2021 :         _Scary->_Myhead = _Node::_Buyheadnode(_Getal());

  0002d	8b 4d fc	 mov	 ecx, DWORD PTR _this$[ebp]
  00030	e8 00 00 00 00	 call	 ?_Getal@?$_Tree@V?$_Tmap_traits@KKU?$less@K@std@@V?$allocator@U?$pair@$$CBKK@std@@@2@$0A@@std@@@std@@IAEAAV?$allocator@U?$_Tree_node@U?$pair@$$CBKK@std@@PAX@std@@@2@XZ ; std::_Tree<std::_Tmap_traits<unsigned long,unsigned long,std::less<unsigned long>,std::allocator<std::pair<unsigned long const ,unsigned long> >,0> >::_Getal
  00035	50		 push	 eax
  00036	e8 00 00 00 00	 call	 ??$_Buyheadnode@V?$allocator@U?$_Tree_node@U?$pair@$$CBKK@std@@PAX@std@@@std@@@?$_Tree_node@U?$pair@$$CBKK@std@@PAX@std@@SAPAU01@AAV?$allocator@U?$_Tree_node@U?$pair@$$CBKK@std@@PAX@std@@@1@@Z ; std::_Tree_node<std::pair<unsigned long const ,unsigned long>,void *>::_Buyheadnode<std::allocator<std::_Tree_node<std::pair<unsigned long const ,unsigned long>,void *> > >
  0003b	83 c4 04	 add	 esp, 4
  0003e	8b 4d f8	 mov	 ecx, DWORD PTR __Scary$[ebp]
  00041	89 01		 mov	 DWORD PTR [ecx], eax

; 2022 :         _Proxy._Release();

  00043	8d 4d f2	 lea	 ecx, DWORD PTR __Proxy$[ebp]
  00046	e8 00 00 00 00	 call	 ?_Release@_Fake_proxy_ptr_impl@std@@QAEXXZ ; std::_Fake_proxy_ptr_impl::_Release

; 2023 :     }

  0004b	5f		 pop	 edi
  0004c	5e		 pop	 esi
  0004d	5b		 pop	 ebx
  0004e	8b e5		 mov	 esp, ebp
  00050	5d		 pop	 ebp
  00051	c3		 ret	 0
?_Alloc_sentinel_and_proxy@?$_Tree@V?$_Tmap_traits@KKU?$less@K@std@@V?$allocator@U?$pair@$$CBKK@std@@@2@$0A@@std@@@std@@IAEXXZ ENDP ; std::_Tree<std::_Tmap_traits<unsigned long,unsigned long,std::less<unsigned long>,std::allocator<std::pair<unsigned long const ,unsigned long> >,0> >::_Alloc_sentinel_and_proxy
_TEXT	ENDS
; Function compile flags: /Odtp /ZI
; File C:\Program Files (x86)\Microsoft Visual Studio\2019\Community\VC\Tools\MSVC\14.27.29110\include\xtree
;	COMDAT ?_Check_grow_by_1@?$_Tree@V?$_Tmap_traits@KKU?$less@K@std@@V?$allocator@U?$pair@$$CBKK@std@@@2@$0A@@std@@@std@@IAEXXZ
_TEXT	SEGMENT
_this$ = -4						; size = 4
?_Check_grow_by_1@?$_Tree@V?$_Tmap_traits@KKU?$less@K@std@@V?$allocator@U?$pair@$$CBKK@std@@@2@$0A@@std@@@std@@IAEXXZ PROC ; std::_Tree<std::_Tmap_traits<unsigned long,unsigned long,std::less<unsigned long>,std::allocator<std::pair<unsigned long const ,unsigned long> >,0> >::_Check_grow_by_1, COMDAT
; _this$ = ecx

; 1718 :     void _Check_grow_by_1() {

  00000	55		 push	 ebp
  00001	8b ec		 mov	 ebp, esp
  00003	83 ec 44	 sub	 esp, 68			; 00000044H
  00006	53		 push	 ebx
  00007	56		 push	 esi
  00008	57		 push	 edi
  00009	89 4d fc	 mov	 DWORD PTR _this$[ebp], ecx

; 1719 :         if (max_size() == _Get_scary()->_Mysize) {

  0000c	8b 4d fc	 mov	 ecx, DWORD PTR _this$[ebp]
  0000f	e8 00 00 00 00	 call	 ?max_size@?$_Tree@V?$_Tmap_traits@KKU?$less@K@std@@V?$allocator@U?$pair@$$CBKK@std@@@2@$0A@@std@@@std@@QBEIXZ ; std::_Tree<std::_Tmap_traits<unsigned long,unsigned long,std::less<unsigned long>,std::allocator<std::pair<unsigned long const ,unsigned long> >,0> >::max_size
  00014	8b f0		 mov	 esi, eax
  00016	8b 4d fc	 mov	 ecx, DWORD PTR _this$[ebp]
  00019	e8 00 00 00 00	 call	 ?_Get_scary@?$_Tree@V?$_Tmap_traits@KKU?$less@K@std@@V?$allocator@U?$pair@$$CBKK@std@@@2@$0A@@std@@@std@@IAEPAV?$_Tree_val@U?$_Tree_simple_types@U?$pair@$$CBKK@std@@@std@@@2@XZ ; std::_Tree<std::_Tmap_traits<unsigned long,unsigned long,std::less<unsigned long>,std::allocator<std::pair<unsigned long const ,unsigned long> >,0> >::_Get_scary
  0001e	3b 70 04	 cmp	 esi, DWORD PTR [eax+4]
  00021	75 05		 jne	 SHORT $LN3@Check_grow

; 1720 :             _Throw_tree_length_error();

  00023	e8 00 00 00 00	 call	 ?_Throw_tree_length_error@std@@YAXXZ ; std::_Throw_tree_length_error
$LN3@Check_grow:

; 1721 :         }
; 1722 :     }

  00028	5f		 pop	 edi
  00029	5e		 pop	 esi
  0002a	5b		 pop	 ebx
  0002b	8b e5		 mov	 esp, ebp
  0002d	5d		 pop	 ebp
  0002e	c3		 ret	 0
?_Check_grow_by_1@?$_Tree@V?$_Tmap_traits@KKU?$less@K@std@@V?$allocator@U?$pair@$$CBKK@std@@@2@$0A@@std@@@std@@IAEXXZ ENDP ; std::_Tree<std::_Tmap_traits<unsigned long,unsigned long,std::less<unsigned long>,std::allocator<std::pair<unsigned long const ,unsigned long> >,0> >::_Check_grow_by_1
_TEXT	ENDS
; Function compile flags: /Odtp /ZI
; File C:\Program Files (x86)\Microsoft Visual Studio\2019\Community\VC\Tools\MSVC\14.27.29110\include\xtree
;	COMDAT ?clear@?$_Tree@V?$_Tmap_traits@KKU?$less@K@std@@V?$allocator@U?$pair@$$CBKK@std@@@2@$0A@@std@@@std@@QAEXXZ
_TEXT	SEGMENT
__Head$ = -12						; size = 4
__Scary$ = -8						; size = 4
_this$ = -4						; size = 4
?clear@?$_Tree@V?$_Tmap_traits@KKU?$less@K@std@@V?$allocator@U?$pair@$$CBKK@std@@@2@$0A@@std@@@std@@QAEXXZ PROC ; std::_Tree<std::_Tmap_traits<unsigned long,unsigned long,std::less<unsigned long>,std::allocator<std::pair<unsigned long const ,unsigned long> >,0> >::clear, COMDAT
; _this$ = ecx

; 1444 :     void clear() noexcept {

  00000	55		 push	 ebp
  00001	8b ec		 mov	 ebp, esp
  00003	83 ec 4c	 sub	 esp, 76			; 0000004cH
  00006	53		 push	 ebx
  00007	56		 push	 esi
  00008	57		 push	 edi
  00009	89 4d fc	 mov	 DWORD PTR _this$[ebp], ecx

; 1445 :         const auto _Scary = _Get_scary();

  0000c	8b 4d fc	 mov	 ecx, DWORD PTR _this$[ebp]
  0000f	e8 00 00 00 00	 call	 ?_Get_scary@?$_Tree@V?$_Tmap_traits@KKU?$less@K@std@@V?$allocator@U?$pair@$$CBKK@std@@@2@$0A@@std@@@std@@IAEPAV?$_Tree_val@U?$_Tree_simple_types@U?$pair@$$CBKK@std@@@std@@@2@XZ ; std::_Tree<std::_Tmap_traits<unsigned long,unsigned long,std::less<unsigned long>,std::allocator<std::pair<unsigned long const ,unsigned long> >,0> >::_Get_scary
  00014	89 45 f8	 mov	 DWORD PTR __Scary$[ebp], eax

; 1446 :         _Scary->_Orphan_ptr(nullptr);

  00017	6a 00		 push	 0
  00019	8b 4d f8	 mov	 ecx, DWORD PTR __Scary$[ebp]
  0001c	e8 00 00 00 00	 call	 ?_Orphan_ptr@?$_Tree_val@U?$_Tree_simple_types@U?$pair@$$CBKK@std@@@std@@@std@@QAEXQAU?$_Tree_node@U?$pair@$$CBKK@std@@PAX@2@@Z ; std::_Tree_val<std::_Tree_simple_types<std::pair<unsigned long const ,unsigned long> > >::_Orphan_ptr

; 1447 :         auto _Head = _Scary->_Myhead;

  00021	8b 45 f8	 mov	 eax, DWORD PTR __Scary$[ebp]
  00024	8b 08		 mov	 ecx, DWORD PTR [eax]
  00026	89 4d f4	 mov	 DWORD PTR __Head$[ebp], ecx

; 1448 :         _Scary->_Erase_tree(_Getal(), _Head->_Parent);

  00029	8b 45 f4	 mov	 eax, DWORD PTR __Head$[ebp]
  0002c	8b 48 04	 mov	 ecx, DWORD PTR [eax+4]
  0002f	51		 push	 ecx
  00030	8b 4d fc	 mov	 ecx, DWORD PTR _this$[ebp]
  00033	e8 00 00 00 00	 call	 ?_Getal@?$_Tree@V?$_Tmap_traits@KKU?$less@K@std@@V?$allocator@U?$pair@$$CBKK@std@@@2@$0A@@std@@@std@@IAEAAV?$allocator@U?$_Tree_node@U?$pair@$$CBKK@std@@PAX@std@@@2@XZ ; std::_Tree<std::_Tmap_traits<unsigned long,unsigned long,std::less<unsigned long>,std::allocator<std::pair<unsigned long const ,unsigned long> >,0> >::_Getal
  00038	50		 push	 eax
  00039	8b 4d f8	 mov	 ecx, DWORD PTR __Scary$[ebp]
  0003c	e8 00 00 00 00	 call	 ??$_Erase_tree@V?$allocator@U?$_Tree_node@U?$pair@$$CBKK@std@@PAX@std@@@std@@@?$_Tree_val@U?$_Tree_simple_types@U?$pair@$$CBKK@std@@@std@@@std@@QAEXAAV?$allocator@U?$_Tree_node@U?$pair@$$CBKK@std@@PAX@std@@@1@PAU?$_Tree_node@U?$pair@$$CBKK@std@@PAX@1@@Z ; std::_Tree_val<std::_Tree_simple_types<std::pair<unsigned long const ,unsigned long> > >::_Erase_tree<std::allocator<std::_Tree_node<std::pair<unsigned long const ,unsigned long>,void *> > >

; 1449 :         _Head->_Parent  = _Head;

  00041	8b 45 f4	 mov	 eax, DWORD PTR __Head$[ebp]
  00044	8b 4d f4	 mov	 ecx, DWORD PTR __Head$[ebp]
  00047	89 48 04	 mov	 DWORD PTR [eax+4], ecx

; 1450 :         _Head->_Left    = _Head;

  0004a	8b 45 f4	 mov	 eax, DWORD PTR __Head$[ebp]
  0004d	8b 4d f4	 mov	 ecx, DWORD PTR __Head$[ebp]
  00050	89 08		 mov	 DWORD PTR [eax], ecx

; 1451 :         _Head->_Right   = _Head;

  00052	8b 45 f4	 mov	 eax, DWORD PTR __Head$[ebp]
  00055	8b 4d f4	 mov	 ecx, DWORD PTR __Head$[ebp]
  00058	89 48 08	 mov	 DWORD PTR [eax+8], ecx

; 1452 :         _Scary->_Mysize = 0;

  0005b	8b 45 f8	 mov	 eax, DWORD PTR __Scary$[ebp]
  0005e	c7 40 04 00 00
	00 00		 mov	 DWORD PTR [eax+4], 0

; 1453 :     }

  00065	5f		 pop	 edi
  00066	5e		 pop	 esi
  00067	5b		 pop	 ebx
  00068	8b e5		 mov	 esp, ebp
  0006a	5d		 pop	 ebp
  0006b	c3		 ret	 0
?clear@?$_Tree@V?$_Tmap_traits@KKU?$less@K@std@@V?$allocator@U?$pair@$$CBKK@std@@@2@$0A@@std@@@std@@QAEXXZ ENDP ; std::_Tree<std::_Tmap_traits<unsigned long,unsigned long,std::less<unsigned long>,std::allocator<std::pair<unsigned long const ,unsigned long> >,0> >::clear
_TEXT	ENDS
; Function compile flags: /Odtp /ZI
; File C:\Program Files (x86)\Microsoft Visual Studio\2019\Community\VC\Tools\MSVC\14.27.29110\include\xtree
;	COMDAT ?max_size@?$_Tree@V?$_Tmap_traits@KKU?$less@K@std@@V?$allocator@U?$pair@$$CBKK@std@@@2@$0A@@std@@@std@@QBEIXZ
_TEXT	SEGMENT
$T1 = -76						; size = 4
$T2 = -72						; size = 4
_this$ = -4						; size = 4
?max_size@?$_Tree@V?$_Tmap_traits@KKU?$less@K@std@@V?$allocator@U?$pair@$$CBKK@std@@@2@$0A@@std@@@std@@QBEIXZ PROC ; std::_Tree<std::_Tmap_traits<unsigned long,unsigned long,std::less<unsigned long>,std::allocator<std::pair<unsigned long const ,unsigned long> >,0> >::max_size, COMDAT
; _this$ = ecx

; 1310 :     _NODISCARD size_type max_size() const noexcept {

  00000	55		 push	 ebp
  00001	8b ec		 mov	 ebp, esp
  00003	83 ec 4c	 sub	 esp, 76			; 0000004cH
  00006	53		 push	 ebx
  00007	56		 push	 esi
  00008	57		 push	 edi
  00009	89 4d fc	 mov	 DWORD PTR _this$[ebp], ecx

; 1311 :         return (_STD min)(

  0000c	8b 4d fc	 mov	 ecx, DWORD PTR _this$[ebp]
  0000f	e8 00 00 00 00	 call	 ?_Getal@?$_Tree@V?$_Tmap_traits@KKU?$less@K@std@@V?$allocator@U?$pair@$$CBKK@std@@@2@$0A@@std@@@std@@IBEABV?$allocator@U?$_Tree_node@U?$pair@$$CBKK@std@@PAX@std@@@2@XZ ; std::_Tree<std::_Tmap_traits<unsigned long,unsigned long,std::less<unsigned long>,std::allocator<std::pair<unsigned long const ,unsigned long> >,0> >::_Getal
  00014	50		 push	 eax
  00015	e8 00 00 00 00	 call	 ?max_size@?$_Default_allocator_traits@V?$allocator@U?$_Tree_node@U?$pair@$$CBKK@std@@PAX@std@@@std@@@std@@SAIABV?$allocator@U?$_Tree_node@U?$pair@$$CBKK@std@@PAX@std@@@2@@Z ; std::_Default_allocator_traits<std::allocator<std::_Tree_node<std::pair<unsigned long const ,unsigned long>,void *> > >::max_size
  0001a	83 c4 04	 add	 esp, 4
  0001d	89 45 b8	 mov	 DWORD PTR $T2[ebp], eax
  00020	e8 00 00 00 00	 call	 ?max@?$numeric_limits@H@std@@SAHXZ ; std::numeric_limits<int>::max
  00025	89 45 b4	 mov	 DWORD PTR $T1[ebp], eax
  00028	8d 45 b8	 lea	 eax, DWORD PTR $T2[ebp]
  0002b	50		 push	 eax
  0002c	8d 4d b4	 lea	 ecx, DWORD PTR $T1[ebp]
  0002f	51		 push	 ecx
  00030	e8 00 00 00 00	 call	 ??$min@I@std@@YAABIABI0@Z ; std::min<unsigned int>
  00035	83 c4 08	 add	 esp, 8
  00038	8b 00		 mov	 eax, DWORD PTR [eax]

; 1312 :             static_cast<size_type>((numeric_limits<difference_type>::max)()), _Alnode_traits::max_size(_Getal()));
; 1313 :     }

  0003a	5f		 pop	 edi
  0003b	5e		 pop	 esi
  0003c	5b		 pop	 ebx
  0003d	8b e5		 mov	 esp, ebp
  0003f	5d		 pop	 ebp
  00040	c3		 ret	 0
?max_size@?$_Tree@V?$_Tmap_traits@KKU?$less@K@std@@V?$allocator@U?$pair@$$CBKK@std@@@2@$0A@@std@@@std@@QBEIXZ ENDP ; std::_Tree<std::_Tmap_traits<unsigned long,unsigned long,std::less<unsigned long>,std::allocator<std::pair<unsigned long const ,unsigned long> >,0> >::max_size
_TEXT	ENDS
; Function compile flags: /Odtp /ZI
; File C:\Program Files (x86)\Microsoft Visual Studio\2019\Community\VC\Tools\MSVC\14.27.29110\include\xtree
;	COMDAT ??1?$_Tree@V?$_Tmap_traits@KKU?$less@K@std@@V?$allocator@U?$pair@$$CBKK@std@@@2@$0A@@std@@@std@@QAE@XZ
_TEXT	SEGMENT
__Scary$ = -8						; size = 4
_this$ = -4						; size = 4
??1?$_Tree@V?$_Tmap_traits@KKU?$less@K@std@@V?$allocator@U?$pair@$$CBKK@std@@@2@$0A@@std@@@std@@QAE@XZ PROC ; std::_Tree<std::_Tmap_traits<unsigned long,unsigned long,std::less<unsigned long>,std::allocator<std::pair<unsigned long const ,unsigned long> >,0> >::~_Tree<std::_Tmap_traits<unsigned long,unsigned long,std::less<unsigned long>,std::allocator<std::pair<unsigned long const ,unsigned long> >,0> >, COMDAT
; _this$ = ecx

; 1189 :     ~_Tree() noexcept {

  00000	55		 push	 ebp
  00001	8b ec		 mov	 ebp, esp
  00003	83 ec 48	 sub	 esp, 72			; 00000048H
  00006	53		 push	 ebx
  00007	56		 push	 esi
  00008	57		 push	 edi
  00009	89 4d fc	 mov	 DWORD PTR _this$[ebp], ecx

; 1190 :         const auto _Scary = _Get_scary();

  0000c	8b 4d fc	 mov	 ecx, DWORD PTR _this$[ebp]
  0000f	e8 00 00 00 00	 call	 ?_Get_scary@?$_Tree@V?$_Tmap_traits@KKU?$less@K@std@@V?$allocator@U?$pair@$$CBKK@std@@@2@$0A@@std@@@std@@IAEPAV?$_Tree_val@U?$_Tree_simple_types@U?$pair@$$CBKK@std@@@std@@@2@XZ ; std::_Tree<std::_Tmap_traits<unsigned long,unsigned long,std::less<unsigned long>,std::allocator<std::pair<unsigned long const ,unsigned long> >,0> >::_Get_scary
  00014	89 45 f8	 mov	 DWORD PTR __Scary$[ebp], eax

; 1191 :         _Scary->_Erase_head(_Getal());

  00017	8b 4d fc	 mov	 ecx, DWORD PTR _this$[ebp]
  0001a	e8 00 00 00 00	 call	 ?_Getal@?$_Tree@V?$_Tmap_traits@KKU?$less@K@std@@V?$allocator@U?$pair@$$CBKK@std@@@2@$0A@@std@@@std@@IAEAAV?$allocator@U?$_Tree_node@U?$pair@$$CBKK@std@@PAX@std@@@2@XZ ; std::_Tree<std::_Tmap_traits<unsigned long,unsigned long,std::less<unsigned long>,std::allocator<std::pair<unsigned long const ,unsigned long> >,0> >::_Getal
  0001f	50		 push	 eax
  00020	8b 4d f8	 mov	 ecx, DWORD PTR __Scary$[ebp]
  00023	e8 00 00 00 00	 call	 ??$_Erase_head@V?$allocator@U?$_Tree_node@U?$pair@$$CBKK@std@@PAX@std@@@std@@@?$_Tree_val@U?$_Tree_simple_types@U?$pair@$$CBKK@std@@@std@@@std@@QAEXAAV?$allocator@U?$_Tree_node@U?$pair@$$CBKK@std@@PAX@std@@@1@@Z ; std::_Tree_val<std::_Tree_simple_types<std::pair<unsigned long const ,unsigned long> > >::_Erase_head<std::allocator<std::_Tree_node<std::pair<unsigned long const ,unsigned long>,void *> > >

; 1192 : #if _ITERATOR_DEBUG_LEVEL != 0 // TRANSITION, ABI
; 1193 :         auto&& _Alproxy = _GET_PROXY_ALLOCATOR(_Alnode, _Getal());
; 1194 :         _Delete_plain_internal(_Alproxy, _Scary->_Myproxy);
; 1195 : #endif // _ITERATOR_DEBUG_LEVEL != 0
; 1196 :     }

  00028	5f		 pop	 edi
  00029	5e		 pop	 esi
  0002a	5b		 pop	 ebx
  0002b	8b e5		 mov	 esp, ebp
  0002d	5d		 pop	 ebp
  0002e	c3		 ret	 0
??1?$_Tree@V?$_Tmap_traits@KKU?$less@K@std@@V?$allocator@U?$pair@$$CBKK@std@@@2@$0A@@std@@@std@@QAE@XZ ENDP ; std::_Tree<std::_Tmap_traits<unsigned long,unsigned long,std::less<unsigned long>,std::allocator<std::pair<unsigned long const ,unsigned long> >,0> >::~_Tree<std::_Tmap_traits<unsigned long,unsigned long,std::less<unsigned long>,std::allocator<std::pair<unsigned long const ,unsigned long> >,0> >
_TEXT	ENDS
; Function compile flags: /Odtp /ZI
; File C:\Program Files (x86)\Microsoft Visual Studio\2019\Community\VC\Tools\MSVC\14.27.29110\include\xtree
;	COMDAT ??0?$_Tree@V?$_Tmap_traits@KKU?$less@K@std@@V?$allocator@U?$pair@$$CBKK@std@@@2@$0A@@std@@@std@@QAE@ABU?$less@K@1@@Z
_TEXT	SEGMENT
$T1 = -70						; size = 1
$T2 = -69						; size = 1
_this$ = -4						; size = 4
__Parg$ = 8						; size = 4
??0?$_Tree@V?$_Tmap_traits@KKU?$less@K@std@@V?$allocator@U?$pair@$$CBKK@std@@@2@$0A@@std@@@std@@QAE@ABU?$less@K@1@@Z PROC ; std::_Tree<std::_Tmap_traits<unsigned long,unsigned long,std::less<unsigned long>,std::allocator<std::pair<unsigned long const ,unsigned long> >,0> >::_Tree<std::_Tmap_traits<unsigned long,unsigned long,std::less<unsigned long>,std::allocator<std::pair<unsigned long const ,unsigned long> >,0> >, COMDAT
; _this$ = ecx

; 885  :     _Tree(const key_compare& _Parg) : _Mypair(_One_then_variadic_args_t{}, _Parg, _Zero_then_variadic_args_t{}) {

  00000	55		 push	 ebp
  00001	8b ec		 mov	 ebp, esp
  00003	83 ec 48	 sub	 esp, 72			; 00000048H
  00006	53		 push	 ebx
  00007	56		 push	 esi
  00008	57		 push	 edi
  00009	89 4d fc	 mov	 DWORD PTR _this$[ebp], ecx
  0000c	8d 45 bb	 lea	 eax, DWORD PTR $T2[ebp]
  0000f	50		 push	 eax
  00010	8b 4d 08	 mov	 ecx, DWORD PTR __Parg$[ebp]
  00013	51		 push	 ecx
  00014	0f b6 55 ba	 movzx	 edx, BYTE PTR $T1[ebp]
  00018	52		 push	 edx
  00019	8b 4d fc	 mov	 ecx, DWORD PTR _this$[ebp]
  0001c	e8 00 00 00 00	 call	 ??$?0ABU?$less@K@std@@U_Zero_then_variadic_args_t@1@@?$_Compressed_pair@U?$less@K@std@@V?$_Compressed_pair@V?$allocator@U?$_Tree_node@U?$pair@$$CBKK@std@@PAX@std@@@std@@V?$_Tree_val@U?$_Tree_simple_types@U?$pair@$$CBKK@std@@@std@@@2@$00@2@$00@std@@QAE@U_One_then_variadic_args_t@1@ABU?$less@K@1@$$QAU_Zero_then_variadic_args_t@1@@Z ; std::_Compressed_pair<std::less<unsigned long>,std::_Compressed_pair<std::allocator<std::_Tree_node<std::pair<unsigned long const ,unsigned long>,void *> >,std::_Tree_val<std::_Tree_simple_types<std::pair<unsigned long const ,unsigned long> > >,1>,1>::_Compressed_pair<std::less<unsigned long>,std::_Compressed_pair<std::allocator<std::_Tree_node<std::pair<unsigned long const ,unsigned long>,void *> >,std::_Tree_val<std::_Tree_simple_types<std::pair<unsigned long const ,unsigned long> > >,1>,1><std::less<unsigned long> const &,std::_Zero_then_variadic_args_t>

; 886  :         _Alloc_sentinel_and_proxy();

  00021	8b 4d fc	 mov	 ecx, DWORD PTR _this$[ebp]
  00024	e8 00 00 00 00	 call	 ?_Alloc_sentinel_and_proxy@?$_Tree@V?$_Tmap_traits@KKU?$less@K@std@@V?$allocator@U?$pair@$$CBKK@std@@@2@$0A@@std@@@std@@IAEXXZ ; std::_Tree<std::_Tmap_traits<unsigned long,unsigned long,std::less<unsigned long>,std::allocator<std::pair<unsigned long const ,unsigned long> >,0> >::_Alloc_sentinel_and_proxy

; 887  :     }

  00029	8b 45 fc	 mov	 eax, DWORD PTR _this$[ebp]
  0002c	5f		 pop	 edi
  0002d	5e		 pop	 esi
  0002e	5b		 pop	 ebx
  0002f	8b e5		 mov	 esp, ebp
  00031	5d		 pop	 ebp
  00032	c2 04 00	 ret	 4
??0?$_Tree@V?$_Tmap_traits@KKU?$less@K@std@@V?$allocator@U?$pair@$$CBKK@std@@@2@$0A@@std@@@std@@QAE@ABU?$less@K@1@@Z ENDP ; std::_Tree<std::_Tmap_traits<unsigned long,unsigned long,std::less<unsigned long>,std::allocator<std::pair<unsigned long const ,unsigned long> >,0> >::_Tree<std::_Tmap_traits<unsigned long,unsigned long,std::less<unsigned long>,std::allocator<std::pair<unsigned long const ,unsigned long> >,0> >
_TEXT	ENDS
; Function compile flags: /Odtp /ZI
; File C:\Program Files (x86)\Microsoft Visual Studio\2019\Community\VC\Tools\MSVC\14.27.29110\include\xmemory
;	COMDAT ?max_size@?$_Default_allocator_traits@V?$allocator@U?$_Tree_node@U?$pair@$$CBKK@std@@PAX@std@@@std@@@std@@SAIABV?$allocator@U?$_Tree_node@U?$pair@$$CBKK@std@@PAX@std@@@2@@Z
_TEXT	SEGMENT
___formal$ = 8						; size = 4
?max_size@?$_Default_allocator_traits@V?$allocator@U?$_Tree_node@U?$pair@$$CBKK@std@@PAX@std@@@std@@@std@@SAIABV?$allocator@U?$_Tree_node@U?$pair@$$CBKK@std@@PAX@std@@@2@@Z PROC ; std::_Default_allocator_traits<std::allocator<std::_Tree_node<std::pair<unsigned long const ,unsigned long>,void *> > >::max_size, COMDAT

; 702  :     _NODISCARD static size_type max_size(const _Alloc&) noexcept {

  00000	55		 push	 ebp
  00001	8b ec		 mov	 ebp, esp
  00003	83 ec 40	 sub	 esp, 64			; 00000040H
  00006	53		 push	 ebx
  00007	56		 push	 esi
  00008	57		 push	 edi

; 703  :         return static_cast<size_t>(-1) / sizeof(value_type);

  00009	b8 aa aa aa 0a	 mov	 eax, 178956970		; 0aaaaaaaH

; 704  :     }

  0000e	5f		 pop	 edi
  0000f	5e		 pop	 esi
  00010	5b		 pop	 ebx
  00011	8b e5		 mov	 esp, ebp
  00013	5d		 pop	 ebp
  00014	c3		 ret	 0
?max_size@?$_Default_allocator_traits@V?$allocator@U?$_Tree_node@U?$pair@$$CBKK@std@@PAX@std@@@std@@@std@@SAIABV?$allocator@U?$_Tree_node@U?$pair@$$CBKK@std@@PAX@std@@@2@@Z ENDP ; std::_Default_allocator_traits<std::allocator<std::_Tree_node<std::pair<unsigned long const ,unsigned long>,void *> > >::max_size
_TEXT	ENDS
; Function compile flags: /Odtp /ZI
; File C:\Program Files (x86)\Microsoft Visual Studio\2019\Community\VC\Tools\MSVC\14.27.29110\include\xmemory
;	COMDAT ?deallocate@?$_Default_allocator_traits@V?$allocator@U?$_Tree_node@U?$pair@$$CBKK@std@@PAX@std@@@std@@@std@@SAXAAV?$allocator@U?$_Tree_node@U?$pair@$$CBKK@std@@PAX@std@@@2@QAU?$_Tree_node@U?$pair@$$CBKK@std@@PAX@2@I@Z
_TEXT	SEGMENT
___formal$ = 8						; size = 4
__Ptr$ = 12						; size = 4
__Count$ = 16						; size = 4
?deallocate@?$_Default_allocator_traits@V?$allocator@U?$_Tree_node@U?$pair@$$CBKK@std@@PAX@std@@@std@@@std@@SAXAAV?$allocator@U?$_Tree_node@U?$pair@$$CBKK@std@@PAX@std@@@2@QAU?$_Tree_node@U?$pair@$$CBKK@std@@PAX@2@I@Z PROC ; std::_Default_allocator_traits<std::allocator<std::_Tree_node<std::pair<unsigned long const ,unsigned long>,void *> > >::deallocate, COMDAT

; 687  :     static void deallocate(_Alloc&, const pointer _Ptr, const size_type _Count) {

  00000	55		 push	 ebp
  00001	8b ec		 mov	 ebp, esp
  00003	83 ec 40	 sub	 esp, 64			; 00000040H
  00006	53		 push	 ebx
  00007	56		 push	 esi
  00008	57		 push	 edi

; 688  :         // no overflow check on the following multiply; we assume _Allocate did that check
; 689  :         _Deallocate<_New_alignof<value_type>>(_Ptr, sizeof(value_type) * _Count);

  00009	6b 45 10 18	 imul	 eax, DWORD PTR __Count$[ebp], 24
  0000d	50		 push	 eax
  0000e	8b 4d 0c	 mov	 ecx, DWORD PTR __Ptr$[ebp]
  00011	51		 push	 ecx
  00012	e8 00 00 00 00	 call	 ??$_Deallocate@$07$0A@@std@@YAXPAXI@Z ; std::_Deallocate<8,0>
  00017	83 c4 08	 add	 esp, 8

; 690  :     }

  0001a	5f		 pop	 edi
  0001b	5e		 pop	 esi
  0001c	5b		 pop	 ebx
  0001d	8b e5		 mov	 esp, ebp
  0001f	5d		 pop	 ebp
  00020	c3		 ret	 0
?deallocate@?$_Default_allocator_traits@V?$allocator@U?$_Tree_node@U?$pair@$$CBKK@std@@PAX@std@@@std@@@std@@SAXAAV?$allocator@U?$_Tree_node@U?$pair@$$CBKK@std@@PAX@std@@@2@QAU?$_Tree_node@U?$pair@$$CBKK@std@@PAX@2@I@Z ENDP ; std::_Default_allocator_traits<std::allocator<std::_Tree_node<std::pair<unsigned long const ,unsigned long>,void *> > >::deallocate
_TEXT	ENDS
; Function compile flags: /Odtp /ZI
; File C:\Program Files (x86)\Microsoft Visual Studio\2019\Community\VC\Tools\MSVC\14.27.29110\include\xmemory
;	COMDAT ?allocate@?$allocator@U?$_Tree_node@U?$pair@$$CBKK@std@@PAX@std@@@std@@QAEPAU?$_Tree_node@U?$pair@$$CBKK@std@@PAX@2@I@Z
_TEXT	SEGMENT
_this$ = -4						; size = 4
__Count$ = 8						; size = 4
?allocate@?$allocator@U?$_Tree_node@U?$pair@$$CBKK@std@@PAX@std@@@std@@QAEPAU?$_Tree_node@U?$pair@$$CBKK@std@@PAX@2@I@Z PROC ; std::allocator<std::_Tree_node<std::pair<unsigned long const ,unsigned long>,void *> >::allocate, COMDAT
; _this$ = ecx

; 806  :     _NODISCARD __declspec(allocator) _Ty* allocate(_CRT_GUARDOVERFLOW const size_t _Count) {

  00000	55		 push	 ebp
  00001	8b ec		 mov	 ebp, esp
  00003	83 ec 44	 sub	 esp, 68			; 00000044H
  00006	53		 push	 ebx
  00007	56		 push	 esi
  00008	57		 push	 edi
  00009	89 4d fc	 mov	 DWORD PTR _this$[ebp], ecx

; 807  :         return static_cast<_Ty*>(_Allocate<_New_alignof<_Ty>>(_Get_size_of_n<sizeof(_Ty)>(_Count)));

  0000c	8b 45 08	 mov	 eax, DWORD PTR __Count$[ebp]
  0000f	50		 push	 eax
  00010	e8 00 00 00 00	 call	 ??$_Get_size_of_n@$0BI@@std@@YAII@Z ; std::_Get_size_of_n<24>
  00015	83 c4 04	 add	 esp, 4
  00018	50		 push	 eax
  00019	e8 00 00 00 00	 call	 ??$_Allocate@$07U_Default_allocate_traits@std@@$0A@@std@@YAPAXI@Z ; std::_Allocate<8,std::_Default_allocate_traits,0>
  0001e	83 c4 04	 add	 esp, 4

; 808  :     }

  00021	5f		 pop	 edi
  00022	5e		 pop	 esi
  00023	5b		 pop	 ebx
  00024	8b e5		 mov	 esp, ebp
  00026	5d		 pop	 ebp
  00027	c2 04 00	 ret	 4
?allocate@?$allocator@U?$_Tree_node@U?$pair@$$CBKK@std@@PAX@std@@@std@@QAEPAU?$_Tree_node@U?$pair@$$CBKK@std@@PAX@2@I@Z ENDP ; std::allocator<std::_Tree_node<std::pair<unsigned long const ,unsigned long>,void *> >::allocate
_TEXT	ENDS
; Function compile flags: /Odtp /ZI
; File C:\Program Files (x86)\Microsoft Visual Studio\2019\Community\VC\Tools\MSVC\14.27.29110\include\xmemory
;	COMDAT ?deallocate@?$allocator@U?$_Tree_node@U?$pair@$$CBKK@std@@PAX@std@@@std@@QAEXQAU?$_Tree_node@U?$pair@$$CBKK@std@@PAX@2@I@Z
_TEXT	SEGMENT
_this$ = -4						; size = 4
__Ptr$ = 8						; size = 4
__Count$ = 12						; size = 4
?deallocate@?$allocator@U?$_Tree_node@U?$pair@$$CBKK@std@@PAX@std@@@std@@QAEXQAU?$_Tree_node@U?$pair@$$CBKK@std@@PAX@2@I@Z PROC ; std::allocator<std::_Tree_node<std::pair<unsigned long const ,unsigned long>,void *> >::deallocate, COMDAT
; _this$ = ecx

; 801  :     void deallocate(_Ty* const _Ptr, const size_t _Count) {

  00000	55		 push	 ebp
  00001	8b ec		 mov	 ebp, esp
  00003	83 ec 44	 sub	 esp, 68			; 00000044H
  00006	53		 push	 ebx
  00007	56		 push	 esi
  00008	57		 push	 edi
  00009	89 4d fc	 mov	 DWORD PTR _this$[ebp], ecx

; 802  :         // no overflow check on the following multiply; we assume _Allocate did that check
; 803  :         _Deallocate<_New_alignof<_Ty>>(_Ptr, sizeof(_Ty) * _Count);

  0000c	6b 45 0c 18	 imul	 eax, DWORD PTR __Count$[ebp], 24
  00010	50		 push	 eax
  00011	8b 4d 08	 mov	 ecx, DWORD PTR __Ptr$[ebp]
  00014	51		 push	 ecx
  00015	e8 00 00 00 00	 call	 ??$_Deallocate@$07$0A@@std@@YAXPAXI@Z ; std::_Deallocate<8,0>
  0001a	83 c4 08	 add	 esp, 8

; 804  :     }

  0001d	5f		 pop	 edi
  0001e	5e		 pop	 esi
  0001f	5b		 pop	 ebx
  00020	8b e5		 mov	 esp, ebp
  00022	5d		 pop	 ebp
  00023	c2 08 00	 ret	 8
?deallocate@?$allocator@U?$_Tree_node@U?$pair@$$CBKK@std@@PAX@std@@@std@@QAEXQAU?$_Tree_node@U?$pair@$$CBKK@std@@PAX@2@I@Z ENDP ; std::allocator<std::_Tree_node<std::pair<unsigned long const ,unsigned long>,void *> >::deallocate
_TEXT	ENDS
; Function compile flags: /Odtp /ZI
; File C:\Program Files (x86)\Microsoft Visual Studio\2019\Community\VC\Tools\MSVC\14.27.29110\include\xmemory
;	COMDAT ??0?$allocator@U?$_Tree_node@U?$pair@$$CBKK@std@@PAX@std@@@std@@QAE@XZ
_TEXT	SEGMENT
_this$ = -4						; size = 4
??0?$allocator@U?$_Tree_node@U?$pair@$$CBKK@std@@PAX@std@@@std@@QAE@XZ PROC ; std::allocator<std::_Tree_node<std::pair<unsigned long const ,unsigned long>,void *> >::allocator<std::_Tree_node<std::pair<unsigned long const ,unsigned long>,void *> >, COMDAT
; _this$ = ecx

; 795  :     constexpr allocator() noexcept {}

  00000	55		 push	 ebp
  00001	8b ec		 mov	 ebp, esp
  00003	83 ec 44	 sub	 esp, 68			; 00000044H
  00006	53		 push	 ebx
  00007	56		 push	 esi
  00008	57		 push	 edi
  00009	89 4d fc	 mov	 DWORD PTR _this$[ebp], ecx
  0000c	8b 45 fc	 mov	 eax, DWORD PTR _this$[ebp]
  0000f	5f		 pop	 edi
  00010	5e		 pop	 esi
  00011	5b		 pop	 ebx
  00012	8b e5		 mov	 esp, ebp
  00014	5d		 pop	 ebp
  00015	c3		 ret	 0
??0?$allocator@U?$_Tree_node@U?$pair@$$CBKK@std@@PAX@std@@@std@@QAE@XZ ENDP ; std::allocator<std::_Tree_node<std::pair<unsigned long const ,unsigned long>,void *> >::allocator<std::_Tree_node<std::pair<unsigned long const ,unsigned long>,void *> >
_TEXT	ENDS
; Function compile flags: /Odtp /ZI
; File C:\Mu Online\Mu-GS-Webzen-MC-10093\GameServer\Global.cpp
;	COMDAT ?LoadAuthorityTable@CGlobalConfig@@QAEXPBD@Z
_TEXT	SEGMENT
$T1 = -100						; size = 8
$T2 = -92						; size = 8
_dwCommandAuthority$ = -20				; size = 4
_dwCommandID$ = -16					; size = 4
_iSection$ = -12					; size = 4
_Token$ = -8						; size = 4
_this$ = -4						; size = 4
_filename$ = 8						; size = 4
?LoadAuthorityTable@CGlobalConfig@@QAEXPBD@Z PROC	; CGlobalConfig::LoadAuthorityTable, COMDAT
; _this$ = ecx

; 162  : {

  00000	55		 push	 ebp
  00001	8b ec		 mov	 ebp, esp
  00003	83 ec 64	 sub	 esp, 100		; 00000064H
  00006	53		 push	 ebx
  00007	56		 push	 esi
  00008	57		 push	 edi
  00009	89 4d fc	 mov	 DWORD PTR _this$[ebp], ecx

; 163  : 	SMDToken Token;
; 164  : 
; 165  : 	SMDFile = fopen(filename,"r");

  0000c	68 00 00 00 00	 push	 OFFSET ??_C@_01KDCPPGHE@r@
  00011	8b 45 08	 mov	 eax, DWORD PTR _filename$[ebp]
  00014	50		 push	 eax
  00015	e8 00 00 00 00	 call	 _fopen
  0001a	83 c4 08	 add	 esp, 8
  0001d	a3 00 00 00 00	 mov	 DWORD PTR ?SMDFile@@3PAU_iobuf@@A, eax

; 166  : 
; 167  : 	if(SMDFile == NULL) return;

  00022	83 3d 00 00 00
	00 00		 cmp	 DWORD PTR ?SMDFile@@3PAU_iobuf@@A, 0
  00029	75 05		 jne	 SHORT $LN6@LoadAuthor
  0002b	e9 d0 01 00 00	 jmp	 $LN1@LoadAuthor
$LN6@LoadAuthor:

; 168  : 
; 169  : 	this->m_mAuthorityCode.clear();

  00030	8b 4d fc	 mov	 ecx, DWORD PTR _this$[ebp]
  00033	81 c1 a0 05 00
	00		 add	 ecx, 1440		; 000005a0H
  00039	e8 00 00 00 00	 call	 ?clear@?$_Tree@V?$_Tmap_traits@KKU?$less@K@std@@V?$allocator@U?$pair@$$CBKK@std@@@2@$0A@@std@@@std@@QAEXXZ ; std::_Tree<std::_Tmap_traits<unsigned long,unsigned long,std::less<unsigned long>,std::allocator<std::pair<unsigned long const ,unsigned long> >,0> >::clear

; 170  : 
; 171  : 	int iSection = -1;

  0003e	c7 45 f4 ff ff
	ff ff		 mov	 DWORD PTR _iSection$[ebp], -1
$LN2@LoadAuthor:

; 172  : 
; 173  : 	DWORD dwCommandID, dwCommandAuthority;
; 174  : 
; 175  : 	while(true)

  00045	b8 01 00 00 00	 mov	 eax, 1
  0004a	85 c0		 test	 eax, eax
  0004c	0f 84 a0 01 00
	00		 je	 $LN3@LoadAuthor

; 176  : 	{
; 177  : 		Token = GetToken();

  00052	e8 00 00 00 00	 call	 ?GetToken@@YA?AW4SMDToken@@XZ ; GetToken
  00057	89 45 f8	 mov	 DWORD PTR _Token$[ebp], eax

; 178  : 
; 179  : 		if(Token == END)

  0005a	83 7d f8 02	 cmp	 DWORD PTR _Token$[ebp], 2
  0005e	75 0a		 jne	 SHORT $LN7@LoadAuthor

; 180  : 			break;

  00060	e9 8d 01 00 00	 jmp	 $LN3@LoadAuthor
  00065	e9 83 01 00 00	 jmp	 $LN5@LoadAuthor
$LN7@LoadAuthor:

; 181  : 		else if(Token == NUMBER)

  0006a	83 7d f8 01	 cmp	 DWORD PTR _Token$[ebp], 1
  0006e	0f 85 79 01 00
	00		 jne	 $LN5@LoadAuthor

; 182  : 		{
; 183  : 			iSection = TokenNumber;

  00074	f3 0f 2c 05 00
	00 00 00	 cvttss2si eax, DWORD PTR ?TokenNumber@@3MA
  0007c	89 45 f4	 mov	 DWORD PTR _iSection$[ebp], eax

; 184  : 
; 185  : 			if(iSection == 0)

  0007f	83 7d f4 00	 cmp	 DWORD PTR _iSection$[ebp], 0
  00083	0f 85 64 01 00
	00		 jne	 $LN5@LoadAuthor
$LN4@LoadAuthor:

; 186  : 			{
; 187  : 				while(true)

  00089	b8 01 00 00 00	 mov	 eax, 1
  0008e	85 c0		 test	 eax, eax
  00090	0f 84 57 01 00
	00		 je	 $LN5@LoadAuthor

; 188  : 				{
; 189  : 					dwCommandAuthority = 0;

  00096	c7 45 ec 00 00
	00 00		 mov	 DWORD PTR _dwCommandAuthority$[ebp], 0

; 190  : 
; 191  : 					Token = GetToken();

  0009d	e8 00 00 00 00	 call	 ?GetToken@@YA?AW4SMDToken@@XZ ; GetToken
  000a2	89 45 f8	 mov	 DWORD PTR _Token$[ebp], eax

; 192  : 
; 193  : 					if(Token == NAME && strcmp("end",TokenString) == 0)

  000a5	83 7d f8 00	 cmp	 DWORD PTR _Token$[ebp], 0
  000a9	75 1b		 jne	 SHORT $LN11@LoadAuthor
  000ab	68 00 00 00 00	 push	 OFFSET ?TokenString@@3PADA
  000b0	68 00 00 00 00	 push	 OFFSET ??_C@_03JBJLGPFL@end@
  000b5	e8 00 00 00 00	 call	 _strcmp
  000ba	83 c4 08	 add	 esp, 8
  000bd	85 c0		 test	 eax, eax
  000bf	75 05		 jne	 SHORT $LN11@LoadAuthor

; 194  : 						break;

  000c1	e9 27 01 00 00	 jmp	 $LN5@LoadAuthor
$LN11@LoadAuthor:

; 195  : 
; 196  : 					dwCommandID = TokenNumber;

  000c6	f3 0f 10 05 00
	00 00 00	 movss	 xmm0, DWORD PTR ?TokenNumber@@3MA
  000ce	e8 00 00 00 00	 call	 __ftoui3
  000d3	89 45 f0	 mov	 DWORD PTR _dwCommandID$[ebp], eax

; 197  : 
; 198  : 					Token = GetToken();

  000d6	e8 00 00 00 00	 call	 ?GetToken@@YA?AW4SMDToken@@XZ ; GetToken
  000db	89 45 f8	 mov	 DWORD PTR _Token$[ebp], eax

; 199  : 					if(!TokenNumber)

  000de	f3 0f 10 05 00
	00 00 00	 movss	 xmm0, DWORD PTR ?TokenNumber@@3MA
  000e6	0f 2e 05 00 00
	00 00		 ucomiss xmm0, DWORD PTR __real@00000000
  000ed	9f		 lahf
  000ee	f6 c4 44	 test	 ah, 68			; 00000044H
  000f1	7a 07		 jp	 SHORT $LN12@LoadAuthor

; 200  : 						dwCommandAuthority = AUTHORITY_DISABLE;

  000f3	c7 45 ec 80 00
	00 00		 mov	 DWORD PTR _dwCommandAuthority$[ebp], 128 ; 00000080H
$LN12@LoadAuthor:

; 201  : 
; 202  : 					if(dwCommandAuthority != AUTHORITY_DISABLE)

  000fa	81 7d ec 80 00
	00 00		 cmp	 DWORD PTR _dwCommandAuthority$[ebp], 128 ; 00000080H
  00101	0f 84 9a 00 00
	00		 je	 $LN13@LoadAuthor

; 203  : 					{
; 204  : 						Token = GetToken();

  00107	e8 00 00 00 00	 call	 ?GetToken@@YA?AW4SMDToken@@XZ ; GetToken
  0010c	89 45 f8	 mov	 DWORD PTR _Token$[ebp], eax

; 205  : 						if(TokenNumber)

  0010f	f3 0f 10 05 00
	00 00 00	 movss	 xmm0, DWORD PTR ?TokenNumber@@3MA
  00117	0f 2e 05 00 00
	00 00		 ucomiss xmm0, DWORD PTR __real@00000000
  0011e	9f		 lahf
  0011f	f6 c4 44	 test	 ah, 68			; 00000044H
  00122	7b 09		 jnp	 SHORT $LN15@LoadAuthor

; 206  : 							dwCommandAuthority |= AUTHORITY_USER;

  00124	8b 45 ec	 mov	 eax, DWORD PTR _dwCommandAuthority$[ebp]
  00127	83 c8 01	 or	 eax, 1
  0012a	89 45 ec	 mov	 DWORD PTR _dwCommandAuthority$[ebp], eax
$LN15@LoadAuthor:

; 207  : 
; 208  : 						Token = GetToken();

  0012d	e8 00 00 00 00	 call	 ?GetToken@@YA?AW4SMDToken@@XZ ; GetToken
  00132	89 45 f8	 mov	 DWORD PTR _Token$[ebp], eax

; 209  : 						if(TokenNumber)

  00135	f3 0f 10 05 00
	00 00 00	 movss	 xmm0, DWORD PTR ?TokenNumber@@3MA
  0013d	0f 2e 05 00 00
	00 00		 ucomiss xmm0, DWORD PTR __real@00000000
  00144	9f		 lahf
  00145	f6 c4 44	 test	 ah, 68			; 00000044H
  00148	7b 09		 jnp	 SHORT $LN16@LoadAuthor

; 210  : 							dwCommandAuthority |= AUTHORITY_VIP_USER;

  0014a	8b 45 ec	 mov	 eax, DWORD PTR _dwCommandAuthority$[ebp]
  0014d	83 c8 04	 or	 eax, 4
  00150	89 45 ec	 mov	 DWORD PTR _dwCommandAuthority$[ebp], eax
$LN16@LoadAuthor:

; 211  : 
; 212  : 						Token = GetToken();

  00153	e8 00 00 00 00	 call	 ?GetToken@@YA?AW4SMDToken@@XZ ; GetToken
  00158	89 45 f8	 mov	 DWORD PTR _Token$[ebp], eax

; 213  : 						if(TokenNumber)

  0015b	f3 0f 10 05 00
	00 00 00	 movss	 xmm0, DWORD PTR ?TokenNumber@@3MA
  00163	0f 2e 05 00 00
	00 00		 ucomiss xmm0, DWORD PTR __real@00000000
  0016a	9f		 lahf
  0016b	f6 c4 44	 test	 ah, 68			; 00000044H
  0016e	7b 09		 jnp	 SHORT $LN17@LoadAuthor

; 214  : 							dwCommandAuthority |= AUTHORITY_ADMIN;

  00170	8b 45 ec	 mov	 eax, DWORD PTR _dwCommandAuthority$[ebp]
  00173	83 c8 02	 or	 eax, 2
  00176	89 45 ec	 mov	 DWORD PTR _dwCommandAuthority$[ebp], eax
$LN17@LoadAuthor:

; 215  : 
; 216  : 						Token = GetToken();

  00179	e8 00 00 00 00	 call	 ?GetToken@@YA?AW4SMDToken@@XZ ; GetToken
  0017e	89 45 f8	 mov	 DWORD PTR _Token$[ebp], eax

; 217  : 						if(TokenNumber)

  00181	f3 0f 10 05 00
	00 00 00	 movss	 xmm0, DWORD PTR ?TokenNumber@@3MA
  00189	0f 2e 05 00 00
	00 00		 ucomiss xmm0, DWORD PTR __real@00000000
  00190	9f		 lahf
  00191	f6 c4 44	 test	 ah, 68			; 00000044H
  00194	7b 09		 jnp	 SHORT $LN18@LoadAuthor

; 218  : 							dwCommandAuthority |= AUTHORITY_EVENT_GM;

  00196	8b 45 ec	 mov	 eax, DWORD PTR _dwCommandAuthority$[ebp]
  00199	83 c8 20	 or	 eax, 32			; 00000020H
  0019c	89 45 ec	 mov	 DWORD PTR _dwCommandAuthority$[ebp], eax
$LN18@LoadAuthor:

; 219  : 					}

  0019f	eb 20		 jmp	 SHORT $LN14@LoadAuthor
$LN13@LoadAuthor:

; 220  : 					else
; 221  : 					{
; 222  : 						Token = GetToken();

  001a1	e8 00 00 00 00	 call	 ?GetToken@@YA?AW4SMDToken@@XZ ; GetToken
  001a6	89 45 f8	 mov	 DWORD PTR _Token$[ebp], eax

; 223  : 						Token = GetToken();

  001a9	e8 00 00 00 00	 call	 ?GetToken@@YA?AW4SMDToken@@XZ ; GetToken
  001ae	89 45 f8	 mov	 DWORD PTR _Token$[ebp], eax

; 224  : 						Token = GetToken();

  001b1	e8 00 00 00 00	 call	 ?GetToken@@YA?AW4SMDToken@@XZ ; GetToken
  001b6	89 45 f8	 mov	 DWORD PTR _Token$[ebp], eax

; 225  : 						Token = GetToken();

  001b9	e8 00 00 00 00	 call	 ?GetToken@@YA?AW4SMDToken@@XZ ; GetToken
  001be	89 45 f8	 mov	 DWORD PTR _Token$[ebp], eax
$LN14@LoadAuthor:

; 226  : 					}
; 227  : 
; 228  : 					this->m_mAuthorityCode.insert(std::make_pair(dwCommandID, dwCommandAuthority));

  001c1	8d 45 ec	 lea	 eax, DWORD PTR _dwCommandAuthority$[ebp]
  001c4	50		 push	 eax
  001c5	8d 4d f0	 lea	 ecx, DWORD PTR _dwCommandID$[ebp]
  001c8	51		 push	 ecx
  001c9	8d 55 a4	 lea	 edx, DWORD PTR $T2[ebp]
  001cc	52		 push	 edx
  001cd	e8 00 00 00 00	 call	 ??$make_pair@AAKAAK@std@@YA?AU?$pair@KK@0@AAK0@Z ; std::make_pair<unsigned long &,unsigned long &>
  001d2	83 c4 0c	 add	 esp, 12			; 0000000cH
  001d5	50		 push	 eax
  001d6	8d 45 9c	 lea	 eax, DWORD PTR $T1[ebp]
  001d9	50		 push	 eax
  001da	8b 4d fc	 mov	 ecx, DWORD PTR _this$[ebp]
  001dd	81 c1 a0 05 00
	00		 add	 ecx, 1440		; 000005a0H
  001e3	e8 00 00 00 00	 call	 ??$insert@U?$pair@KK@std@@$0A@@?$map@KKU?$less@K@std@@V?$allocator@U?$pair@$$CBKK@std@@@2@@std@@QAE?AU?$pair@V?$_Tree_iterator@V?$_Tree_val@U?$_Tree_simple_types@U?$pair@$$CBKK@std@@@std@@@std@@@std@@_N@1@$$QAU?$pair@KK@1@@Z ; std::map<unsigned long,unsigned long,std::less<unsigned long>,std::allocator<std::pair<unsigned long const ,unsigned long> > >::insert<std::pair<unsigned long,unsigned long>,0>

; 229  : 				};

  001e8	e9 9c fe ff ff	 jmp	 $LN4@LoadAuthor
$LN5@LoadAuthor:

; 230  : 			}
; 231  : 		}
; 232  : 	};

  001ed	e9 53 fe ff ff	 jmp	 $LN2@LoadAuthor
$LN3@LoadAuthor:

; 233  : 
; 234  : 	fclose(SMDFile);

  001f2	a1 00 00 00 00	 mov	 eax, DWORD PTR ?SMDFile@@3PAU_iobuf@@A
  001f7	50		 push	 eax
  001f8	e8 00 00 00 00	 call	 _fclose
  001fd	83 c4 04	 add	 esp, 4
$LN1@LoadAuthor:

; 235  : }

  00200	5f		 pop	 edi
  00201	5e		 pop	 esi
  00202	5b		 pop	 ebx
  00203	8b e5		 mov	 esp, ebp
  00205	5d		 pop	 ebp
  00206	c2 04 00	 ret	 4
?LoadAuthorityTable@CGlobalConfig@@QAEXPBD@Z ENDP	; CGlobalConfig::LoadAuthorityTable
_TEXT	ENDS
; Function compile flags: /Odtp /ZI
; File C:\Mu Online\Mu-GS-Webzen-MC-10093\GameServer\Global.cpp
;	COMDAT ?Load@CGlobalConfig@@QAEXPBD0@Z
_TEXT	SEGMENT
tv861 = -80						; size = 8
tv850 = -80						; size = 8
tv839 = -80						; size = 8
tv858 = -72						; size = 4
tv847 = -72						; size = 4
tv836 = -72						; size = 4
tv662 = -72						; size = 4
tv575 = -72						; size = 4
tv567 = -72						; size = 4
tv520 = -72						; size = 4
tv512 = -72						; size = 4
tv504 = -72						; size = 4
tv496 = -72						; size = 4
tv488 = -72						; size = 4
tv480 = -72						; size = 4
tv448 = -72						; size = 4
tv220 = -72						; size = 4
tv212 = -72						; size = 4
tv204 = -72						; size = 4
tv196 = -72						; size = 4
tv183 = -72						; size = 4
tv175 = -72						; size = 4
tv167 = -72						; size = 4
tv159 = -72						; size = 4
tv151 = -72						; size = 4
tv143 = -72						; size = 4
tv135 = -72						; size = 4
tv95 = -72						; size = 4
tv87 = -72						; size = 4
tv79 = -72						; size = 4
tv71 = -72						; size = 4
_this$ = -4						; size = 4
_filename$ = 8						; size = 4
_filename2$ = 12					; size = 4
?Load@CGlobalConfig@@QAEXPBD0@Z PROC			; CGlobalConfig::Load, COMDAT
; _this$ = ecx

; 10   : {

  00000	55		 push	 ebp
  00001	8b ec		 mov	 ebp, esp
  00003	83 ec 50	 sub	 esp, 80			; 00000050H
  00006	53		 push	 ebx
  00007	56		 push	 esi
  00008	57		 push	 edi
  00009	89 4d fc	 mov	 DWORD PTR _this$[ebp], ecx

; 11   : 	//Personal ID
; 12   : 	this->m_bPersonalID = GetPrivateProfileInt("GameServerInfo","UsePersonalID", 0, filename) > 0;

  0000c	8b 45 08	 mov	 eax, DWORD PTR _filename$[ebp]
  0000f	50		 push	 eax
  00010	6a 00		 push	 0
  00012	68 00 00 00 00	 push	 OFFSET ??_C@_0O@PICFDPIE@UsePersonalID@
  00017	68 00 00 00 00	 push	 OFFSET ??_C@_0P@EMJDPFDH@GameServerInfo@
  0001c	ff 15 00 00 00
	00		 call	 DWORD PTR __imp__GetPrivateProfileIntA@16
  00022	85 c0		 test	 eax, eax
  00024	76 09		 jbe	 SHORT $LN6@Load
  00026	c7 45 b8 01 00
	00 00		 mov	 DWORD PTR tv71[ebp], 1
  0002d	eb 07		 jmp	 SHORT $LN7@Load
$LN6@Load:
  0002f	c7 45 b8 00 00
	00 00		 mov	 DWORD PTR tv71[ebp], 0
$LN7@Load:
  00036	8b 4d fc	 mov	 ecx, DWORD PTR _this$[ebp]
  00039	8b 55 b8	 mov	 edx, DWORD PTR tv71[ebp]
  0003c	89 11		 mov	 DWORD PTR [ecx], edx

; 13   : 
; 14   : 	//Skill
; 15   : 	this->m_bCheckSkill = GetPrivateProfileInt("GameServerInfo","CheckSkillLevel", 1, filename) > 0;

  0003e	8b 45 08	 mov	 eax, DWORD PTR _filename$[ebp]
  00041	50		 push	 eax
  00042	6a 01		 push	 1
  00044	68 00 00 00 00	 push	 OFFSET ??_C@_0BA@GIEDOACG@CheckSkillLevel@
  00049	68 00 00 00 00	 push	 OFFSET ??_C@_0P@EMJDPFDH@GameServerInfo@
  0004e	ff 15 00 00 00
	00		 call	 DWORD PTR __imp__GetPrivateProfileIntA@16
  00054	85 c0		 test	 eax, eax
  00056	76 09		 jbe	 SHORT $LN8@Load
  00058	c7 45 b8 01 00
	00 00		 mov	 DWORD PTR tv79[ebp], 1
  0005f	eb 07		 jmp	 SHORT $LN9@Load
$LN8@Load:
  00061	c7 45 b8 00 00
	00 00		 mov	 DWORD PTR tv79[ebp], 0
$LN9@Load:
  00068	8b 4d fc	 mov	 ecx, DWORD PTR _this$[ebp]
  0006b	8b 55 b8	 mov	 edx, DWORD PTR tv79[ebp]
  0006e	89 51 04	 mov	 DWORD PTR [ecx+4], edx

; 16   : 
; 17   : 	this->m_bDisableTwisting = GetPrivateProfileInt("GameServerInfo","DisableTwistingPVP", 0, filename) > 0;

  00071	8b 45 08	 mov	 eax, DWORD PTR _filename$[ebp]
  00074	50		 push	 eax
  00075	6a 00		 push	 0
  00077	68 00 00 00 00	 push	 OFFSET ??_C@_0BD@FLPDKIEL@DisableTwistingPVP@
  0007c	68 00 00 00 00	 push	 OFFSET ??_C@_0P@EMJDPFDH@GameServerInfo@
  00081	ff 15 00 00 00
	00		 call	 DWORD PTR __imp__GetPrivateProfileIntA@16
  00087	85 c0		 test	 eax, eax
  00089	76 09		 jbe	 SHORT $LN10@Load
  0008b	c7 45 b8 01 00
	00 00		 mov	 DWORD PTR tv87[ebp], 1
  00092	eb 07		 jmp	 SHORT $LN11@Load
$LN10@Load:
  00094	c7 45 b8 00 00
	00 00		 mov	 DWORD PTR tv87[ebp], 0
$LN11@Load:
  0009b	8b 4d fc	 mov	 ecx, DWORD PTR _this$[ebp]
  0009e	8b 55 b8	 mov	 edx, DWORD PTR tv87[ebp]
  000a1	89 51 20	 mov	 DWORD PTR [ecx+32], edx

; 18   : 	this->m_bDisableBlow = GetPrivateProfileInt("GameServerInfo","DisableBlowPVP", 0, filename) > 0;

  000a4	8b 45 08	 mov	 eax, DWORD PTR _filename$[ebp]
  000a7	50		 push	 eax
  000a8	6a 00		 push	 0
  000aa	68 00 00 00 00	 push	 OFFSET ??_C@_0P@KHAHMPAL@DisableBlowPVP@
  000af	68 00 00 00 00	 push	 OFFSET ??_C@_0P@EMJDPFDH@GameServerInfo@
  000b4	ff 15 00 00 00
	00		 call	 DWORD PTR __imp__GetPrivateProfileIntA@16
  000ba	85 c0		 test	 eax, eax
  000bc	76 09		 jbe	 SHORT $LN12@Load
  000be	c7 45 b8 01 00
	00 00		 mov	 DWORD PTR tv95[ebp], 1
  000c5	eb 07		 jmp	 SHORT $LN13@Load
$LN12@Load:
  000c7	c7 45 b8 00 00
	00 00		 mov	 DWORD PTR tv95[ebp], 0
$LN13@Load:
  000ce	8b 4d fc	 mov	 ecx, DWORD PTR _this$[ebp]
  000d1	8b 55 b8	 mov	 edx, DWORD PTR tv95[ebp]
  000d4	89 51 24	 mov	 DWORD PTR [ecx+36], edx

; 19   : 	this->m_bDisableDecay = GetPrivateProfileInt("GameServerInfo","DisableDecayPVP", 0, filename) > 0;

  000d7	8b 45 08	 mov	 eax, DWORD PTR _filename$[ebp]
  000da	50		 push	 eax
  000db	6a 00		 push	 0
  000dd	68 00 00 00 00	 push	 OFFSET ??_C@_0BA@LOIDAEFL@DisableDecayPVP@
  000e2	68 00 00 00 00	 push	 OFFSET ??_C@_0P@EMJDPFDH@GameServerInfo@
  000e7	ff 15 00 00 00
	00		 call	 DWORD PTR __imp__GetPrivateProfileIntA@16
  000ed	85 c0		 test	 eax, eax
  000ef	76 09		 jbe	 SHORT $LN14@Load
  000f1	c7 45 b8 01 00
	00 00		 mov	 DWORD PTR tv135[ebp], 1
  000f8	eb 07		 jmp	 SHORT $LN15@Load
$LN14@Load:
  000fa	c7 45 b8 00 00
	00 00		 mov	 DWORD PTR tv135[ebp], 0
$LN15@Load:
  00101	8b 4d fc	 mov	 ecx, DWORD PTR _this$[ebp]
  00104	8b 55 b8	 mov	 edx, DWORD PTR tv135[ebp]
  00107	89 51 28	 mov	 DWORD PTR [ecx+40], edx

; 20   : 	this->m_bDisableCombo = GetPrivateProfileInt("GameServerInfo","DisableComboPVP", 0, filename) > 0;

  0010a	8b 45 08	 mov	 eax, DWORD PTR _filename$[ebp]
  0010d	50		 push	 eax
  0010e	6a 00		 push	 0
  00110	68 00 00 00 00	 push	 OFFSET ??_C@_0BA@HCCJBOIL@DisableComboPVP@
  00115	68 00 00 00 00	 push	 OFFSET ??_C@_0P@EMJDPFDH@GameServerInfo@
  0011a	ff 15 00 00 00
	00		 call	 DWORD PTR __imp__GetPrivateProfileIntA@16
  00120	85 c0		 test	 eax, eax
  00122	76 09		 jbe	 SHORT $LN16@Load
  00124	c7 45 b8 01 00
	00 00		 mov	 DWORD PTR tv143[ebp], 1
  0012b	eb 07		 jmp	 SHORT $LN17@Load
$LN16@Load:
  0012d	c7 45 b8 00 00
	00 00		 mov	 DWORD PTR tv143[ebp], 0
$LN17@Load:
  00134	8b 4d fc	 mov	 ecx, DWORD PTR _this$[ebp]
  00137	8b 55 b8	 mov	 edx, DWORD PTR tv143[ebp]
  0013a	89 51 2c	 mov	 DWORD PTR [ecx+44], edx

; 21   : 
; 22   : 	// Combo Formula
; 23   : 	this->iComboDamage = GetPrivateProfileInt("GameServerInfo","FormulaComboDamage", 0, filename) > 0;

  0013d	8b 45 08	 mov	 eax, DWORD PTR _filename$[ebp]
  00140	50		 push	 eax
  00141	6a 00		 push	 0
  00143	68 00 00 00 00	 push	 OFFSET ??_C@_0BD@DLNCCKEC@FormulaComboDamage@
  00148	68 00 00 00 00	 push	 OFFSET ??_C@_0P@EMJDPFDH@GameServerInfo@
  0014d	ff 15 00 00 00
	00		 call	 DWORD PTR __imp__GetPrivateProfileIntA@16
  00153	85 c0		 test	 eax, eax
  00155	76 09		 jbe	 SHORT $LN18@Load
  00157	c7 45 b8 01 00
	00 00		 mov	 DWORD PTR tv151[ebp], 1
  0015e	eb 07		 jmp	 SHORT $LN19@Load
$LN18@Load:
  00160	c7 45 b8 00 00
	00 00		 mov	 DWORD PTR tv151[ebp], 0
$LN19@Load:
  00167	8b 4d fc	 mov	 ecx, DWORD PTR _this$[ebp]
  0016a	8b 55 b8	 mov	 edx, DWORD PTR tv151[ebp]
  0016d	89 91 04 04 00
	00		 mov	 DWORD PTR [ecx+1028], edx

; 24   : 
; 25   : 	//CloseCountTime
; 26   : 	this->CloseCountTime = GetPrivateProfileInt("GameServerInfo","CloseCount", 0, filename) > 0;

  00173	8b 45 08	 mov	 eax, DWORD PTR _filename$[ebp]
  00176	50		 push	 eax
  00177	6a 00		 push	 0
  00179	68 00 00 00 00	 push	 OFFSET ??_C@_0L@KPNHPMGP@CloseCount@
  0017e	68 00 00 00 00	 push	 OFFSET ??_C@_0P@EMJDPFDH@GameServerInfo@
  00183	ff 15 00 00 00
	00		 call	 DWORD PTR __imp__GetPrivateProfileIntA@16
  00189	85 c0		 test	 eax, eax
  0018b	76 09		 jbe	 SHORT $LN20@Load
  0018d	c7 45 b8 01 00
	00 00		 mov	 DWORD PTR tv159[ebp], 1
  00194	eb 07		 jmp	 SHORT $LN21@Load
$LN20@Load:
  00196	c7 45 b8 00 00
	00 00		 mov	 DWORD PTR tv159[ebp], 0
$LN21@Load:
  0019d	8b 4d fc	 mov	 ecx, DWORD PTR _this$[ebp]
  001a0	8b 55 b8	 mov	 edx, DWORD PTR tv159[ebp]
  001a3	89 91 08 04 00
	00		 mov	 DWORD PTR [ecx+1032], edx

; 27   : 
; 28   : 	this->_Time = GetPrivateProfileInt("GameServerInfo","ItemDurationTime", 0, filename) > 0;

  001a9	8b 45 08	 mov	 eax, DWORD PTR _filename$[ebp]
  001ac	50		 push	 eax
  001ad	6a 00		 push	 0
  001af	68 00 00 00 00	 push	 OFFSET ??_C@_0BB@OMEMPADG@ItemDurationTime@
  001b4	68 00 00 00 00	 push	 OFFSET ??_C@_0P@EMJDPFDH@GameServerInfo@
  001b9	ff 15 00 00 00
	00		 call	 DWORD PTR __imp__GetPrivateProfileIntA@16
  001bf	85 c0		 test	 eax, eax
  001c1	76 09		 jbe	 SHORT $LN22@Load
  001c3	c7 45 b8 01 00
	00 00		 mov	 DWORD PTR tv167[ebp], 1
  001ca	eb 07		 jmp	 SHORT $LN23@Load
$LN22@Load:
  001cc	c7 45 b8 00 00
	00 00		 mov	 DWORD PTR tv167[ebp], 0
$LN23@Load:
  001d3	8b 4d fc	 mov	 ecx, DWORD PTR _this$[ebp]
  001d6	8b 55 b8	 mov	 edx, DWORD PTR tv167[ebp]
  001d9	89 91 0c 04 00
	00		 mov	 DWORD PTR [ecx+1036], edx

; 29   : 
; 30   : 	//Items
; 31   : 	this->m_bCheckItem = GetPrivateProfileInt("GameServerInfo","CheckItem", 1, filename) > 0;

  001df	8b 45 08	 mov	 eax, DWORD PTR _filename$[ebp]
  001e2	50		 push	 eax
  001e3	6a 01		 push	 1
  001e5	68 00 00 00 00	 push	 OFFSET ??_C@_09OBNEBOHK@CheckItem@
  001ea	68 00 00 00 00	 push	 OFFSET ??_C@_0P@EMJDPFDH@GameServerInfo@
  001ef	ff 15 00 00 00
	00		 call	 DWORD PTR __imp__GetPrivateProfileIntA@16
  001f5	85 c0		 test	 eax, eax
  001f7	76 09		 jbe	 SHORT $LN24@Load
  001f9	c7 45 b8 01 00
	00 00		 mov	 DWORD PTR tv175[ebp], 1
  00200	eb 07		 jmp	 SHORT $LN25@Load
$LN24@Load:
  00202	c7 45 b8 00 00
	00 00		 mov	 DWORD PTR tv175[ebp], 0
$LN25@Load:
  00209	8b 4d fc	 mov	 ecx, DWORD PTR _this$[ebp]
  0020c	8b 55 b8	 mov	 edx, DWORD PTR tv175[ebp]
  0020f	89 51 08	 mov	 DWORD PTR [ecx+8], edx

; 32   : 
; 33   : 	this->m_bLimitTrade = GetPrivateProfileInt("GameServerInfo","DisableFullTrade", 0, filename) > 0;

  00212	8b 45 08	 mov	 eax, DWORD PTR _filename$[ebp]
  00215	50		 push	 eax
  00216	6a 00		 push	 0
  00218	68 00 00 00 00	 push	 OFFSET ??_C@_0BB@LKOCJCGC@DisableFullTrade@
  0021d	68 00 00 00 00	 push	 OFFSET ??_C@_0P@EMJDPFDH@GameServerInfo@
  00222	ff 15 00 00 00
	00		 call	 DWORD PTR __imp__GetPrivateProfileIntA@16
  00228	85 c0		 test	 eax, eax
  0022a	76 09		 jbe	 SHORT $LN26@Load
  0022c	c7 45 b8 01 00
	00 00		 mov	 DWORD PTR tv183[ebp], 1
  00233	eb 07		 jmp	 SHORT $LN27@Load
$LN26@Load:
  00235	c7 45 b8 00 00
	00 00		 mov	 DWORD PTR tv183[ebp], 0
$LN27@Load:
  0023c	8b 4d fc	 mov	 ecx, DWORD PTR _this$[ebp]
  0023f	8b 55 b8	 mov	 edx, DWORD PTR tv183[ebp]
  00242	89 51 3c	 mov	 DWORD PTR [ecx+60], edx

; 34   : 
; 35   : 	this->m_iLimitOption = GetPrivateProfileInt("GameServerInfo","MinTradeItemExOption", 6, filename);

  00245	8b 45 08	 mov	 eax, DWORD PTR _filename$[ebp]
  00248	50		 push	 eax
  00249	6a 06		 push	 6
  0024b	68 00 00 00 00	 push	 OFFSET ??_C@_0BF@KAPHEHB@MinTradeItemExOption@
  00250	68 00 00 00 00	 push	 OFFSET ??_C@_0P@EMJDPFDH@GameServerInfo@
  00255	ff 15 00 00 00
	00		 call	 DWORD PTR __imp__GetPrivateProfileIntA@16
  0025b	8b 4d fc	 mov	 ecx, DWORD PTR _this$[ebp]
  0025e	89 81 cc 00 00
	00		 mov	 DWORD PTR [ecx+204], eax

; 36   : 
; 37   : 	this->m_iLimitOption = (this->m_iLimitOption < 1 || this->m_iLimitOption > 6 ? 6 : this->m_iLimitOption);

  00264	8b 45 fc	 mov	 eax, DWORD PTR _this$[ebp]
  00267	83 b8 cc 00 00
	00 01		 cmp	 DWORD PTR [eax+204], 1
  0026e	7c 1a		 jl	 SHORT $LN28@Load
  00270	8b 4d fc	 mov	 ecx, DWORD PTR _this$[ebp]
  00273	83 b9 cc 00 00
	00 06		 cmp	 DWORD PTR [ecx+204], 6
  0027a	7f 0e		 jg	 SHORT $LN28@Load
  0027c	8b 55 fc	 mov	 edx, DWORD PTR _this$[ebp]
  0027f	8b 82 cc 00 00
	00		 mov	 eax, DWORD PTR [edx+204]
  00285	89 45 b8	 mov	 DWORD PTR tv196[ebp], eax
  00288	eb 07		 jmp	 SHORT $LN29@Load
$LN28@Load:
  0028a	c7 45 b8 06 00
	00 00		 mov	 DWORD PTR tv196[ebp], 6
$LN29@Load:
  00291	8b 4d fc	 mov	 ecx, DWORD PTR _this$[ebp]
  00294	8b 55 b8	 mov	 edx, DWORD PTR tv196[ebp]
  00297	89 91 cc 00 00
	00		 mov	 DWORD PTR [ecx+204], edx

; 38   : 
; 39   : 	//Monsters & War
; 40   : 	this->m_bMonsterKill_War = GetPrivateProfileInt("GameServerInfo", "WarMonsterKill", 0, filename) > 0;

  0029d	8b 45 08	 mov	 eax, DWORD PTR _filename$[ebp]
  002a0	50		 push	 eax
  002a1	6a 00		 push	 0
  002a3	68 00 00 00 00	 push	 OFFSET ??_C@_0P@MLNIDIEP@WarMonsterKill@
  002a8	68 00 00 00 00	 push	 OFFSET ??_C@_0P@EMJDPFDH@GameServerInfo@
  002ad	ff 15 00 00 00
	00		 call	 DWORD PTR __imp__GetPrivateProfileIntA@16
  002b3	85 c0		 test	 eax, eax
  002b5	76 09		 jbe	 SHORT $LN30@Load
  002b7	c7 45 b8 01 00
	00 00		 mov	 DWORD PTR tv204[ebp], 1
  002be	eb 07		 jmp	 SHORT $LN31@Load
$LN30@Load:
  002c0	c7 45 b8 00 00
	00 00		 mov	 DWORD PTR tv204[ebp], 0
$LN31@Load:
  002c7	8b 4d fc	 mov	 ecx, DWORD PTR _this$[ebp]
  002ca	8b 55 b8	 mov	 edx, DWORD PTR tv204[ebp]
  002cd	89 51 30	 mov	 DWORD PTR [ecx+48], edx

; 41   : 	this->m_bMonsterKill_Duel = GetPrivateProfileInt("GameServerInfo", "DuelMonsterKill", 1, filename) > 0;

  002d0	8b 45 08	 mov	 eax, DWORD PTR _filename$[ebp]
  002d3	50		 push	 eax
  002d4	6a 01		 push	 1
  002d6	68 00 00 00 00	 push	 OFFSET ??_C@_0BA@HNPBGAPO@DuelMonsterKill@
  002db	68 00 00 00 00	 push	 OFFSET ??_C@_0P@EMJDPFDH@GameServerInfo@
  002e0	ff 15 00 00 00
	00		 call	 DWORD PTR __imp__GetPrivateProfileIntA@16
  002e6	85 c0		 test	 eax, eax
  002e8	76 09		 jbe	 SHORT $LN32@Load
  002ea	c7 45 b8 01 00
	00 00		 mov	 DWORD PTR tv212[ebp], 1
  002f1	eb 07		 jmp	 SHORT $LN33@Load
$LN32@Load:
  002f3	c7 45 b8 00 00
	00 00		 mov	 DWORD PTR tv212[ebp], 0
$LN33@Load:
  002fa	8b 4d fc	 mov	 ecx, DWORD PTR _this$[ebp]
  002fd	8b 55 b8	 mov	 edx, DWORD PTR tv212[ebp]
  00300	89 51 34	 mov	 DWORD PTR [ecx+52], edx

; 42   : 
; 43   : 	//Checksum
; 44   : 	this->m_bEnableChecksum = GetPrivateProfileInt("GameServerInfo","UseChecksum", 0, filename) > 0;

  00303	8b 45 08	 mov	 eax, DWORD PTR _filename$[ebp]
  00306	50		 push	 eax
  00307	6a 00		 push	 0
  00309	68 00 00 00 00	 push	 OFFSET ??_C@_0M@NGACIDEP@UseChecksum@
  0030e	68 00 00 00 00	 push	 OFFSET ??_C@_0P@EMJDPFDH@GameServerInfo@
  00313	ff 15 00 00 00
	00		 call	 DWORD PTR __imp__GetPrivateProfileIntA@16
  00319	85 c0		 test	 eax, eax
  0031b	76 09		 jbe	 SHORT $LN34@Load
  0031d	c7 45 b8 01 00
	00 00		 mov	 DWORD PTR tv220[ebp], 1
  00324	eb 07		 jmp	 SHORT $LN35@Load
$LN34@Load:
  00326	c7 45 b8 00 00
	00 00		 mov	 DWORD PTR tv220[ebp], 0
$LN35@Load:
  0032d	8b 4d fc	 mov	 ecx, DWORD PTR _this$[ebp]
  00330	8b 55 b8	 mov	 edx, DWORD PTR tv220[ebp]
  00333	89 51 38	 mov	 DWORD PTR [ecx+56], edx

; 45   : 
; 46   : 	//Jewel of Life
; 47   : 	this->m_iLifeRate = GetPrivateProfileInt("GameServerInfo","LifeRateWithoutLuck", 50, filename);

  00336	8b 45 08	 mov	 eax, DWORD PTR _filename$[ebp]
  00339	50		 push	 eax
  0033a	6a 32		 push	 50			; 00000032H
  0033c	68 00 00 00 00	 push	 OFFSET ??_C@_0BE@MIMFCKPJ@LifeRateWithoutLuck@
  00341	68 00 00 00 00	 push	 OFFSET ??_C@_0P@EMJDPFDH@GameServerInfo@
  00346	ff 15 00 00 00
	00		 call	 DWORD PTR __imp__GetPrivateProfileIntA@16
  0034c	8b 4d fc	 mov	 ecx, DWORD PTR _this$[ebp]
  0034f	89 41 58	 mov	 DWORD PTR [ecx+88], eax

; 48   : 
; 49   : 	//Jewel of Soul
; 50   : 	this->m_iSoulRate = GetPrivateProfileInt("GameServerInfo","SoulRateWithoutLuck", 50, filename);

  00352	8b 45 08	 mov	 eax, DWORD PTR _filename$[ebp]
  00355	50		 push	 eax
  00356	6a 32		 push	 50			; 00000032H
  00358	68 00 00 00 00	 push	 OFFSET ??_C@_0BE@GMNDPPEJ@SoulRateWithoutLuck@
  0035d	68 00 00 00 00	 push	 OFFSET ??_C@_0P@EMJDPFDH@GameServerInfo@
  00362	ff 15 00 00 00
	00		 call	 DWORD PTR __imp__GetPrivateProfileIntA@16
  00368	8b 4d fc	 mov	 ecx, DWORD PTR _this$[ebp]
  0036b	89 41 50	 mov	 DWORD PTR [ecx+80], eax

; 51   : 	this->m_iSoulRateWithLuck = GetPrivateProfileInt("GameServerInfo","SoulRateWithLuck", 75, filename);

  0036e	8b 45 08	 mov	 eax, DWORD PTR _filename$[ebp]
  00371	50		 push	 eax
  00372	6a 4b		 push	 75			; 0000004bH
  00374	68 00 00 00 00	 push	 OFFSET ??_C@_0BB@IALMLJBK@SoulRateWithLuck@
  00379	68 00 00 00 00	 push	 OFFSET ??_C@_0P@EMJDPFDH@GameServerInfo@
  0037e	ff 15 00 00 00
	00		 call	 DWORD PTR __imp__GetPrivateProfileIntA@16
  00384	8b 4d fc	 mov	 ecx, DWORD PTR _this$[ebp]
  00387	89 41 54	 mov	 DWORD PTR [ecx+84], eax

; 52   : 
; 53   : 	//Inner Strength
; 54   : 	this->m_iInnerTime = GetPrivateProfileInt("GameServerInfo","InnerStrengthTime", 10, filename);

  0038a	8b 45 08	 mov	 eax, DWORD PTR _filename$[ebp]
  0038d	50		 push	 eax
  0038e	6a 0a		 push	 10			; 0000000aH
  00390	68 00 00 00 00	 push	 OFFSET ??_C@_0BC@OIGLFJLB@InnerStrengthTime@
  00395	68 00 00 00 00	 push	 OFFSET ??_C@_0P@EMJDPFDH@GameServerInfo@
  0039a	ff 15 00 00 00
	00		 call	 DWORD PTR __imp__GetPrivateProfileIntA@16
  003a0	8b 4d fc	 mov	 ecx, DWORD PTR _this$[ebp]
  003a3	89 41 5c	 mov	 DWORD PTR [ecx+92], eax

; 55   : 	this->m_iInnerVitality = GetPrivateProfileInt("GameServerInfo","InnerStrengthVitality", 100, filename);

  003a6	8b 45 08	 mov	 eax, DWORD PTR _filename$[ebp]
  003a9	50		 push	 eax
  003aa	6a 64		 push	 100			; 00000064H
  003ac	68 00 00 00 00	 push	 OFFSET ??_C@_0BG@BOLDHHJN@InnerStrengthVitality@
  003b1	68 00 00 00 00	 push	 OFFSET ??_C@_0P@EMJDPFDH@GameServerInfo@
  003b6	ff 15 00 00 00
	00		 call	 DWORD PTR __imp__GetPrivateProfileIntA@16
  003bc	8b 4d fc	 mov	 ecx, DWORD PTR _this$[ebp]
  003bf	89 41 60	 mov	 DWORD PTR [ecx+96], eax

; 56   : 	this->m_iInnerEnergy = GetPrivateProfileInt("GameServerInfo","InnerStrengthEnergy", 20, filename);

  003c2	8b 45 08	 mov	 eax, DWORD PTR _filename$[ebp]
  003c5	50		 push	 eax
  003c6	6a 14		 push	 20			; 00000014H
  003c8	68 00 00 00 00	 push	 OFFSET ??_C@_0BE@HNBOACPN@InnerStrengthEnergy@
  003cd	68 00 00 00 00	 push	 OFFSET ??_C@_0P@EMJDPFDH@GameServerInfo@
  003d2	ff 15 00 00 00
	00		 call	 DWORD PTR __imp__GetPrivateProfileIntA@16
  003d8	8b 4d fc	 mov	 ecx, DWORD PTR _this$[ebp]
  003db	89 41 64	 mov	 DWORD PTR [ecx+100], eax

; 57   : 	this->m_iInnerMaxHP = GetPrivateProfileInt("GameServerInfo","InnerStrengthMaxAddHP", 100, filename);

  003de	8b 45 08	 mov	 eax, DWORD PTR _filename$[ebp]
  003e1	50		 push	 eax
  003e2	6a 64		 push	 100			; 00000064H
  003e4	68 00 00 00 00	 push	 OFFSET ??_C@_0BG@IIOCMPMF@InnerStrengthMaxAddHP@
  003e9	68 00 00 00 00	 push	 OFFSET ??_C@_0P@EMJDPFDH@GameServerInfo@
  003ee	ff 15 00 00 00
	00		 call	 DWORD PTR __imp__GetPrivateProfileIntA@16
  003f4	8b 4d fc	 mov	 ecx, DWORD PTR _this$[ebp]
  003f7	89 41 68	 mov	 DWORD PTR [ecx+104], eax

; 58   : 
; 59   : 	//Mana Shield
; 60   : 	this->m_iShieldDexterity = GetPrivateProfileInt("GameServerInfo","ManaShieldDexterity", 50, filename);

  003fa	8b 45 08	 mov	 eax, DWORD PTR _filename$[ebp]
  003fd	50		 push	 eax
  003fe	6a 32		 push	 50			; 00000032H
  00400	68 00 00 00 00	 push	 OFFSET ??_C@_0BE@IDFLDMAM@ManaShieldDexterity@
  00405	68 00 00 00 00	 push	 OFFSET ??_C@_0P@EMJDPFDH@GameServerInfo@
  0040a	ff 15 00 00 00
	00		 call	 DWORD PTR __imp__GetPrivateProfileIntA@16
  00410	8b 4d fc	 mov	 ecx, DWORD PTR _this$[ebp]
  00413	89 41 70	 mov	 DWORD PTR [ecx+112], eax

; 61   : 	this->m_iShieldEnergy = GetPrivateProfileInt("GameServerInfo","ManaShieldEnergy", 200, filename);

  00416	8b 45 08	 mov	 eax, DWORD PTR _filename$[ebp]
  00419	50		 push	 eax
  0041a	68 c8 00 00 00	 push	 200			; 000000c8H
  0041f	68 00 00 00 00	 push	 OFFSET ??_C@_0BB@DPKNKGIO@ManaShieldEnergy@
  00424	68 00 00 00 00	 push	 OFFSET ??_C@_0P@EMJDPFDH@GameServerInfo@
  00429	ff 15 00 00 00
	00		 call	 DWORD PTR __imp__GetPrivateProfileIntA@16
  0042f	8b 4d fc	 mov	 ecx, DWORD PTR _this$[ebp]
  00432	89 41 74	 mov	 DWORD PTR [ecx+116], eax

; 62   : 	this->m_iShieldTime = GetPrivateProfileInt("GameServerInfo","ManaShieldTime", 40, filename);

  00435	8b 45 08	 mov	 eax, DWORD PTR _filename$[ebp]
  00438	50		 push	 eax
  00439	6a 28		 push	 40			; 00000028H
  0043b	68 00 00 00 00	 push	 OFFSET ??_C@_0P@PAFHGPA@ManaShieldTime@
  00440	68 00 00 00 00	 push	 OFFSET ??_C@_0P@EMJDPFDH@GameServerInfo@
  00445	ff 15 00 00 00
	00		 call	 DWORD PTR __imp__GetPrivateProfileIntA@16
  0044b	8b 4d fc	 mov	 ecx, DWORD PTR _this$[ebp]
  0044e	89 41 6c	 mov	 DWORD PTR [ecx+108], eax

; 63   : 	this->m_iShieldMaxDefense = GetPrivateProfileInt("GameServerInfo","ManaShieldMaxDefense", 100, filename);

  00451	8b 45 08	 mov	 eax, DWORD PTR _filename$[ebp]
  00454	50		 push	 eax
  00455	6a 64		 push	 100			; 00000064H
  00457	68 00 00 00 00	 push	 OFFSET ??_C@_0BF@IJFANKNG@ManaShieldMaxDefense@
  0045c	68 00 00 00 00	 push	 OFFSET ??_C@_0P@EMJDPFDH@GameServerInfo@
  00461	ff 15 00 00 00
	00		 call	 DWORD PTR __imp__GetPrivateProfileIntA@16
  00467	8b 4d fc	 mov	 ecx, DWORD PTR _this$[ebp]
  0046a	89 41 78	 mov	 DWORD PTR [ecx+120], eax

; 64   : 
; 65   : 	//Chaos Machine Item +10 +11 / MAX Rates
; 66   : 	this->m_iCombination10Rate = GetPrivateProfileInt("GameServerInfo","Combination10Rate", 50, filename);

  0046d	8b 45 08	 mov	 eax, DWORD PTR _filename$[ebp]
  00470	50		 push	 eax
  00471	6a 32		 push	 50			; 00000032H
  00473	68 00 00 00 00	 push	 OFFSET ??_C@_0BC@GHLFEMPI@Combination10Rate@
  00478	68 00 00 00 00	 push	 OFFSET ??_C@_0P@EMJDPFDH@GameServerInfo@
  0047d	ff 15 00 00 00
	00		 call	 DWORD PTR __imp__GetPrivateProfileIntA@16
  00483	8b 4d fc	 mov	 ecx, DWORD PTR _this$[ebp]
  00486	89 41 7c	 mov	 DWORD PTR [ecx+124], eax

; 67   : 	this->m_iCombination11Rate = GetPrivateProfileInt("GameServerInfo","Combination11Rate", 45, filename);

  00489	8b 45 08	 mov	 eax, DWORD PTR _filename$[ebp]
  0048c	50		 push	 eax
  0048d	6a 2d		 push	 45			; 0000002dH
  0048f	68 00 00 00 00	 push	 OFFSET ??_C@_0BC@KMOJJPFN@Combination11Rate@
  00494	68 00 00 00 00	 push	 OFFSET ??_C@_0P@EMJDPFDH@GameServerInfo@
  00499	ff 15 00 00 00
	00		 call	 DWORD PTR __imp__GetPrivateProfileIntA@16
  0049f	8b 4d fc	 mov	 ecx, DWORD PTR _this$[ebp]
  004a2	89 81 80 00 00
	00		 mov	 DWORD PTR [ecx+128], eax

; 68   : 	this->m_iCombination12Rate = GetPrivateProfileInt("GameServerInfo","Combination12Rate", 45, filename);

  004a8	8b 45 08	 mov	 eax, DWORD PTR _filename$[ebp]
  004ab	50		 push	 eax
  004ac	6a 2d		 push	 45			; 0000002dH
  004ae	68 00 00 00 00	 push	 OFFSET ??_C@_0BC@CKHNONPD@Combination12Rate@
  004b3	68 00 00 00 00	 push	 OFFSET ??_C@_0P@EMJDPFDH@GameServerInfo@
  004b8	ff 15 00 00 00
	00		 call	 DWORD PTR __imp__GetPrivateProfileIntA@16
  004be	8b 4d fc	 mov	 ecx, DWORD PTR _this$[ebp]
  004c1	89 81 84 00 00
	00		 mov	 DWORD PTR [ecx+132], eax

; 69   : 	this->m_iCombination13Rate = GetPrivateProfileInt("GameServerInfo","Combination13Rate", 45, filename);

  004c7	8b 45 08	 mov	 eax, DWORD PTR _filename$[ebp]
  004ca	50		 push	 eax
  004cb	6a 2d		 push	 45			; 0000002dH
  004cd	68 00 00 00 00	 push	 OFFSET ??_C@_0BC@OBCBDOFG@Combination13Rate@
  004d2	68 00 00 00 00	 push	 OFFSET ??_C@_0P@EMJDPFDH@GameServerInfo@
  004d7	ff 15 00 00 00
	00		 call	 DWORD PTR __imp__GetPrivateProfileIntA@16
  004dd	8b 4d fc	 mov	 ecx, DWORD PTR _this$[ebp]
  004e0	89 81 88 00 00
	00		 mov	 DWORD PTR [ecx+136], eax

; 70   : 	this->m_iMaxCombinationRate = GetPrivateProfileInt("GameServerInfo","MaxCombinationRate", 75, filename);

  004e6	8b 45 08	 mov	 eax, DWORD PTR _filename$[ebp]
  004e9	50		 push	 eax
  004ea	6a 4b		 push	 75			; 0000004bH
  004ec	68 00 00 00 00	 push	 OFFSET ??_C@_0BD@LPMNENOP@MaxCombinationRate@
  004f1	68 00 00 00 00	 push	 OFFSET ??_C@_0P@EMJDPFDH@GameServerInfo@
  004f6	ff 15 00 00 00
	00		 call	 DWORD PTR __imp__GetPrivateProfileIntA@16
  004fc	8b 4d fc	 mov	 ecx, DWORD PTR _this$[ebp]
  004ff	89 81 8c 00 00
	00		 mov	 DWORD PTR [ecx+140], eax

; 71   : 
; 72   : 	this->m_iWingCombinationRate = GetPrivateProfileInt("GameServerInfo","MinWingMixRate",0, filename)%101;

  00505	8b 45 08	 mov	 eax, DWORD PTR _filename$[ebp]
  00508	50		 push	 eax
  00509	6a 00		 push	 0
  0050b	68 00 00 00 00	 push	 OFFSET ??_C@_0P@JNONJCHL@MinWingMixRate@
  00510	68 00 00 00 00	 push	 OFFSET ??_C@_0P@EMJDPFDH@GameServerInfo@
  00515	ff 15 00 00 00
	00		 call	 DWORD PTR __imp__GetPrivateProfileIntA@16
  0051b	33 d2		 xor	 edx, edx
  0051d	b9 65 00 00 00	 mov	 ecx, 101		; 00000065H
  00522	f7 f1		 div	 ecx
  00524	8b 45 fc	 mov	 eax, DWORD PTR _this$[ebp]
  00527	89 90 90 00 00
	00		 mov	 DWORD PTR [eax+144], edx

; 73   : 	this->m_iThirdWingCombinationRate = GetPrivateProfileInt("GameServerInfo","MinThirdWingMixRate",0, filename)%101;

  0052d	8b 45 08	 mov	 eax, DWORD PTR _filename$[ebp]
  00530	50		 push	 eax
  00531	6a 00		 push	 0
  00533	68 00 00 00 00	 push	 OFFSET ??_C@_0BE@OPEKICEG@MinThirdWingMixRate@
  00538	68 00 00 00 00	 push	 OFFSET ??_C@_0P@EMJDPFDH@GameServerInfo@
  0053d	ff 15 00 00 00
	00		 call	 DWORD PTR __imp__GetPrivateProfileIntA@16
  00543	33 d2		 xor	 edx, edx
  00545	b9 65 00 00 00	 mov	 ecx, 101		; 00000065H
  0054a	f7 f1		 div	 ecx
  0054c	8b 45 fc	 mov	 eax, DWORD PTR _this$[ebp]
  0054f	89 90 94 00 00
	00		 mov	 DWORD PTR [eax+148], edx

; 74   : 
; 75   : 	//Stats
; 76   : 	this->m_iMax_Stats = GetPrivateProfileInt("GameServerInfo","MaxStats", 32767, filename);

  00555	8b 45 08	 mov	 eax, DWORD PTR _filename$[ebp]
  00558	50		 push	 eax
  00559	68 ff 7f 00 00	 push	 32767			; 00007fffH
  0055e	68 00 00 00 00	 push	 OFFSET ??_C@_08KHNFHHOB@MaxStats@
  00563	68 00 00 00 00	 push	 OFFSET ??_C@_0P@EMJDPFDH@GameServerInfo@
  00568	ff 15 00 00 00
	00		 call	 DWORD PTR __imp__GetPrivateProfileIntA@16
  0056e	8b 4d fc	 mov	 ecx, DWORD PTR _this$[ebp]
  00571	89 81 98 00 00
	00		 mov	 DWORD PTR [ecx+152], eax

; 77   : 
; 78   : 	this->m_iNormal_Points = GetPrivateProfileInt("GameServerInfo","NormalUpPoints", 5, filename);

  00577	8b 45 08	 mov	 eax, DWORD PTR _filename$[ebp]
  0057a	50		 push	 eax
  0057b	6a 05		 push	 5
  0057d	68 00 00 00 00	 push	 OFFSET ??_C@_0P@LFOKBDME@NormalUpPoints@
  00582	68 00 00 00 00	 push	 OFFSET ??_C@_0P@EMJDPFDH@GameServerInfo@
  00587	ff 15 00 00 00
	00		 call	 DWORD PTR __imp__GetPrivateProfileIntA@16
  0058d	8b 4d fc	 mov	 ecx, DWORD PTR _this$[ebp]
  00590	89 81 bc 00 00
	00		 mov	 DWORD PTR [ecx+188], eax

; 79   : 	this->m_iSpecial_Points = GetPrivateProfileInt("GameServerInfo","SpecialUpPoints", 7, filename);

  00596	8b 45 08	 mov	 eax, DWORD PTR _filename$[ebp]
  00599	50		 push	 eax
  0059a	6a 07		 push	 7
  0059c	68 00 00 00 00	 push	 OFFSET ??_C@_0BA@PGGHAAPP@SpecialUpPoints@
  005a1	68 00 00 00 00	 push	 OFFSET ??_C@_0P@EMJDPFDH@GameServerInfo@
  005a6	ff 15 00 00 00
	00		 call	 DWORD PTR __imp__GetPrivateProfileIntA@16
  005ac	8b 4d fc	 mov	 ecx, DWORD PTR _this$[ebp]
  005af	89 81 c0 00 00
	00		 mov	 DWORD PTR [ecx+192], eax

; 80   : 	this->m_iPowerUP_Points = GetPrivateProfileInt("GameServerInfo","ExtraUpPoints", 1, filename);

  005b5	8b 45 08	 mov	 eax, DWORD PTR _filename$[ebp]
  005b8	50		 push	 eax
  005b9	6a 01		 push	 1
  005bb	68 00 00 00 00	 push	 OFFSET ??_C@_0O@OCFNDAJO@ExtraUpPoints@
  005c0	68 00 00 00 00	 push	 OFFSET ??_C@_0P@EMJDPFDH@GameServerInfo@
  005c5	ff 15 00 00 00
	00		 call	 DWORD PTR __imp__GetPrivateProfileIntA@16
  005cb	8b 4d fc	 mov	 ecx, DWORD PTR _this$[ebp]
  005ce	89 81 c4 00 00
	00		 mov	 DWORD PTR [ecx+196], eax

; 81   : 
; 82   : 	this->m_iMaxLevel = GetPrivateProfileInt("GameServerInfo","MaxLevel",400, filename);

  005d4	8b 45 08	 mov	 eax, DWORD PTR _filename$[ebp]
  005d7	50		 push	 eax
  005d8	68 90 01 00 00	 push	 400			; 00000190H
  005dd	68 00 00 00 00	 push	 OFFSET ??_C@_08BFKFNBGC@MaxLevel@
  005e2	68 00 00 00 00	 push	 OFFSET ??_C@_0P@EMJDPFDH@GameServerInfo@
  005e7	ff 15 00 00 00
	00		 call	 DWORD PTR __imp__GetPrivateProfileIntA@16
  005ed	8b 4d fc	 mov	 ecx, DWORD PTR _this$[ebp]
  005f0	89 81 c8 00 00
	00		 mov	 DWORD PTR [ecx+200], eax

; 83   : 
; 84   : 
; 85   : 	//Potions
; 86   : 	this->m_iApple_Potion = GetPrivateProfileInt("GameServerInfo","ApplePotion", 10, filename);

  005f6	8b 45 08	 mov	 eax, DWORD PTR _filename$[ebp]
  005f9	50		 push	 eax
  005fa	6a 0a		 push	 10			; 0000000aH
  005fc	68 00 00 00 00	 push	 OFFSET ??_C@_0M@CNCFKJIB@ApplePotion@
  00601	68 00 00 00 00	 push	 OFFSET ??_C@_0P@EMJDPFDH@GameServerInfo@
  00606	ff 15 00 00 00
	00		 call	 DWORD PTR __imp__GetPrivateProfileIntA@16
  0060c	8b 4d fc	 mov	 ecx, DWORD PTR _this$[ebp]
  0060f	89 81 9c 00 00
	00		 mov	 DWORD PTR [ecx+156], eax

; 87   : 	this->m_iSmallHP_Potion = GetPrivateProfileInt("GameServerInfo","HPSmallPotion", 20, filename);

  00615	8b 45 08	 mov	 eax, DWORD PTR _filename$[ebp]
  00618	50		 push	 eax
  00619	6a 14		 push	 20			; 00000014H
  0061b	68 00 00 00 00	 push	 OFFSET ??_C@_0O@KOEDMDMN@HPSmallPotion@
  00620	68 00 00 00 00	 push	 OFFSET ??_C@_0P@EMJDPFDH@GameServerInfo@
  00625	ff 15 00 00 00
	00		 call	 DWORD PTR __imp__GetPrivateProfileIntA@16
  0062b	8b 4d fc	 mov	 ecx, DWORD PTR _this$[ebp]
  0062e	89 81 a0 00 00
	00		 mov	 DWORD PTR [ecx+160], eax

; 88   : 	this->m_iMediumHP_Potion = GetPrivateProfileInt("GameServerInfo","HPMediumPotion", 30, filename);

  00634	8b 45 08	 mov	 eax, DWORD PTR _filename$[ebp]
  00637	50		 push	 eax
  00638	6a 1e		 push	 30			; 0000001eH
  0063a	68 00 00 00 00	 push	 OFFSET ??_C@_0P@FENOPDMI@HPMediumPotion@
  0063f	68 00 00 00 00	 push	 OFFSET ??_C@_0P@EMJDPFDH@GameServerInfo@
  00644	ff 15 00 00 00
	00		 call	 DWORD PTR __imp__GetPrivateProfileIntA@16
  0064a	8b 4d fc	 mov	 ecx, DWORD PTR _this$[ebp]
  0064d	89 81 a4 00 00
	00		 mov	 DWORD PTR [ecx+164], eax

; 89   : 	this->m_iLargeHP_Potion = GetPrivateProfileInt("GameServerInfo","HPLargePotion", 40, filename);

  00653	8b 45 08	 mov	 eax, DWORD PTR _filename$[ebp]
  00656	50		 push	 eax
  00657	6a 28		 push	 40			; 00000028H
  00659	68 00 00 00 00	 push	 OFFSET ??_C@_0O@ILFGJMJK@HPLargePotion@
  0065e	68 00 00 00 00	 push	 OFFSET ??_C@_0P@EMJDPFDH@GameServerInfo@
  00663	ff 15 00 00 00
	00		 call	 DWORD PTR __imp__GetPrivateProfileIntA@16
  00669	8b 4d fc	 mov	 ecx, DWORD PTR _this$[ebp]
  0066c	89 81 a8 00 00
	00		 mov	 DWORD PTR [ecx+168], eax

; 90   : 
; 91   : 	this->m_iSmallMP_Potion = GetPrivateProfileInt("GameServerInfo","MPSmallPotion", 20, filename);

  00672	8b 45 08	 mov	 eax, DWORD PTR _filename$[ebp]
  00675	50		 push	 eax
  00676	6a 14		 push	 20			; 00000014H
  00678	68 00 00 00 00	 push	 OFFSET ??_C@_0O@CKOAKNKA@MPSmallPotion@
  0067d	68 00 00 00 00	 push	 OFFSET ??_C@_0P@EMJDPFDH@GameServerInfo@
  00682	ff 15 00 00 00
	00		 call	 DWORD PTR __imp__GetPrivateProfileIntA@16
  00688	8b 4d fc	 mov	 ecx, DWORD PTR _this$[ebp]
  0068b	89 81 ac 00 00
	00		 mov	 DWORD PTR [ecx+172], eax

; 92   : 	this->m_iMediumMP_Potion = GetPrivateProfileInt("GameServerInfo","MPMediumPotion", 30, filename);

  00691	8b 45 08	 mov	 eax, DWORD PTR _filename$[ebp]
  00694	50		 push	 eax
  00695	6a 1e		 push	 30			; 0000001eH
  00697	68 00 00 00 00	 push	 OFFSET ??_C@_0P@GHFJENED@MPMediumPotion@
  0069c	68 00 00 00 00	 push	 OFFSET ??_C@_0P@EMJDPFDH@GameServerInfo@
  006a1	ff 15 00 00 00
	00		 call	 DWORD PTR __imp__GetPrivateProfileIntA@16
  006a7	8b 4d fc	 mov	 ecx, DWORD PTR _this$[ebp]
  006aa	89 81 b0 00 00
	00		 mov	 DWORD PTR [ecx+176], eax

; 93   : 	this->m_iLargeMP_Potion = GetPrivateProfileInt("GameServerInfo","MPLargePotion", 40, filename);

  006b0	8b 45 08	 mov	 eax, DWORD PTR _filename$[ebp]
  006b3	50		 push	 eax
  006b4	6a 28		 push	 40			; 00000028H
  006b6	68 00 00 00 00	 push	 OFFSET ??_C@_0O@PPFPCPH@MPLargePotion@
  006bb	68 00 00 00 00	 push	 OFFSET ??_C@_0P@EMJDPFDH@GameServerInfo@
  006c0	ff 15 00 00 00
	00		 call	 DWORD PTR __imp__GetPrivateProfileIntA@16
  006c6	8b 4d fc	 mov	 ecx, DWORD PTR _this$[ebp]
  006c9	89 81 b4 00 00
	00		 mov	 DWORD PTR [ecx+180], eax

; 94   : 
; 95   : 	this->m_iMaxPotionDurability = GetPrivateProfileInt("GameServerInfo","MaxPotionDurability", 255, filename);

  006cf	8b 45 08	 mov	 eax, DWORD PTR _filename$[ebp]
  006d2	50		 push	 eax
  006d3	68 ff 00 00 00	 push	 255			; 000000ffH
  006d8	68 00 00 00 00	 push	 OFFSET ??_C@_0BE@JKPNMHGJ@MaxPotionDurability@
  006dd	68 00 00 00 00	 push	 OFFSET ??_C@_0P@EMJDPFDH@GameServerInfo@
  006e2	ff 15 00 00 00
	00		 call	 DWORD PTR __imp__GetPrivateProfileIntA@16
  006e8	8b 4d fc	 mov	 ecx, DWORD PTR _this$[ebp]
  006eb	89 81 b8 00 00
	00		 mov	 DWORD PTR [ecx+184], eax

; 96   : 
; 97   : 	//Global
; 98   : 	this->m_bGlobalNick = GetPrivateProfileInt("GameServerInfo","GlobalNick",0, filename) > 0;

  006f1	8b 45 08	 mov	 eax, DWORD PTR _filename$[ebp]
  006f4	50		 push	 eax
  006f5	6a 00		 push	 0
  006f7	68 00 00 00 00	 push	 OFFSET ??_C@_0L@IOEGFOPG@GlobalNick@
  006fc	68 00 00 00 00	 push	 OFFSET ??_C@_0P@EMJDPFDH@GameServerInfo@
  00701	ff 15 00 00 00
	00		 call	 DWORD PTR __imp__GetPrivateProfileIntA@16
  00707	85 c0		 test	 eax, eax
  00709	76 09		 jbe	 SHORT $LN36@Load
  0070b	c7 45 b8 01 00
	00 00		 mov	 DWORD PTR tv448[ebp], 1
  00712	eb 07		 jmp	 SHORT $LN37@Load
$LN36@Load:
  00714	c7 45 b8 00 00
	00 00		 mov	 DWORD PTR tv448[ebp], 0
$LN37@Load:
  0071b	8b 4d fc	 mov	 ecx, DWORD PTR _this$[ebp]
  0071e	8b 55 b8	 mov	 edx, DWORD PTR tv448[ebp]
  00721	89 51 40	 mov	 DWORD PTR [ecx+64], edx

; 99   : 
; 100  : 	//Elf Aura
; 101  : 	this->m_fPlusHeal = (float)GetPrivateProfileInt("GameServerInfo","HealAuraRate",100, filename)/100.0f;

  00724	8b 45 08	 mov	 eax, DWORD PTR _filename$[ebp]
  00727	50		 push	 eax
  00728	6a 64		 push	 100			; 00000064H
  0072a	68 00 00 00 00	 push	 OFFSET ??_C@_0N@OCEIILEL@HealAuraRate@
  0072f	68 00 00 00 00	 push	 OFFSET ??_C@_0P@EMJDPFDH@GameServerInfo@
  00734	ff 15 00 00 00
	00		 call	 DWORD PTR __imp__GetPrivateProfileIntA@16
  0073a	89 45 b8	 mov	 DWORD PTR tv836[ebp], eax
  0073d	f2 0f 2a 45 b8	 cvtsi2sd xmm0, DWORD PTR tv836[ebp]
  00742	8b 4d b8	 mov	 ecx, DWORD PTR tv836[ebp]
  00745	c1 e9 1f	 shr	 ecx, 31			; 0000001fH
  00748	f2 0f 58 04 cd
	00 00 00 00	 addsd	 xmm0, QWORD PTR __xmm@41f00000000000000000000000000000[ecx*8]
  00751	f2 0f 11 45 b0	 movsd	 QWORD PTR tv839[ebp], xmm0
  00756	f2 0f 5a 45 b0	 cvtsd2ss xmm0, QWORD PTR tv839[ebp]
  0075b	f3 0f 5e 05 00
	00 00 00	 divss	 xmm0, DWORD PTR __real@42c80000
  00763	8b 55 fc	 mov	 edx, DWORD PTR _this$[ebp]
  00766	f3 0f 11 82 f8
	00 00 00	 movss	 DWORD PTR [edx+248], xmm0

; 102  : 	this->m_fPlusDmg = (float)GetPrivateProfileInt("GameServerInfo","DamageAuraRate",100, filename)/100.0f;

  0076e	8b 45 08	 mov	 eax, DWORD PTR _filename$[ebp]
  00771	50		 push	 eax
  00772	6a 64		 push	 100			; 00000064H
  00774	68 00 00 00 00	 push	 OFFSET ??_C@_0P@NCENJMHP@DamageAuraRate@
  00779	68 00 00 00 00	 push	 OFFSET ??_C@_0P@EMJDPFDH@GameServerInfo@
  0077e	ff 15 00 00 00
	00		 call	 DWORD PTR __imp__GetPrivateProfileIntA@16
  00784	89 45 b8	 mov	 DWORD PTR tv847[ebp], eax
  00787	f2 0f 2a 45 b8	 cvtsi2sd xmm0, DWORD PTR tv847[ebp]
  0078c	8b 4d b8	 mov	 ecx, DWORD PTR tv847[ebp]
  0078f	c1 e9 1f	 shr	 ecx, 31			; 0000001fH
  00792	f2 0f 58 04 cd
	00 00 00 00	 addsd	 xmm0, QWORD PTR __xmm@41f00000000000000000000000000000[ecx*8]
  0079b	f2 0f 11 45 b0	 movsd	 QWORD PTR tv850[ebp], xmm0
  007a0	f2 0f 5a 45 b0	 cvtsd2ss xmm0, QWORD PTR tv850[ebp]
  007a5	f3 0f 5e 05 00
	00 00 00	 divss	 xmm0, DWORD PTR __real@42c80000
  007ad	8b 55 fc	 mov	 edx, DWORD PTR _this$[ebp]
  007b0	f3 0f 11 82 f4
	00 00 00	 movss	 DWORD PTR [edx+244], xmm0

; 103  : 	this->m_fPlusDef = (float)GetPrivateProfileInt("GameServerInfo","DefenseAuraRate",100, filename)/100.0f;

  007b8	8b 45 08	 mov	 eax, DWORD PTR _filename$[ebp]
  007bb	50		 push	 eax
  007bc	6a 64		 push	 100			; 00000064H
  007be	68 00 00 00 00	 push	 OFFSET ??_C@_0BA@HBCBNKFD@DefenseAuraRate@
  007c3	68 00 00 00 00	 push	 OFFSET ??_C@_0P@EMJDPFDH@GameServerInfo@
  007c8	ff 15 00 00 00
	00		 call	 DWORD PTR __imp__GetPrivateProfileIntA@16
  007ce	89 45 b8	 mov	 DWORD PTR tv858[ebp], eax
  007d1	f2 0f 2a 45 b8	 cvtsi2sd xmm0, DWORD PTR tv858[ebp]
  007d6	8b 4d b8	 mov	 ecx, DWORD PTR tv858[ebp]
  007d9	c1 e9 1f	 shr	 ecx, 31			; 0000001fH
  007dc	f2 0f 58 04 cd
	00 00 00 00	 addsd	 xmm0, QWORD PTR __xmm@41f00000000000000000000000000000[ecx*8]
  007e5	f2 0f 11 45 b0	 movsd	 QWORD PTR tv861[ebp], xmm0
  007ea	f2 0f 5a 45 b0	 cvtsd2ss xmm0, QWORD PTR tv861[ebp]
  007ef	f3 0f 5e 05 00
	00 00 00	 divss	 xmm0, DWORD PTR __real@42c80000
  007f7	8b 55 fc	 mov	 edx, DWORD PTR _this$[ebp]
  007fa	f3 0f 11 82 f0
	00 00 00	 movss	 DWORD PTR [edx+240], xmm0

; 104  : 
; 105  : 	//Make
; 106  : 	this->m_bDisableMake = GetPrivateProfileInt("GameServerInfo","DisableMake", 0, filename) > 0;

  00802	8b 45 08	 mov	 eax, DWORD PTR _filename$[ebp]
  00805	50		 push	 eax
  00806	6a 00		 push	 0
  00808	68 00 00 00 00	 push	 OFFSET ??_C@_0M@DDKABONN@DisableMake@
  0080d	68 00 00 00 00	 push	 OFFSET ??_C@_0P@EMJDPFDH@GameServerInfo@
  00812	ff 15 00 00 00
	00		 call	 DWORD PTR __imp__GetPrivateProfileIntA@16
  00818	85 c0		 test	 eax, eax
  0081a	76 09		 jbe	 SHORT $LN38@Load
  0081c	c7 45 b8 01 00
	00 00		 mov	 DWORD PTR tv480[ebp], 1
  00823	eb 07		 jmp	 SHORT $LN39@Load
$LN38@Load:
  00825	c7 45 b8 00 00
	00 00		 mov	 DWORD PTR tv480[ebp], 0
$LN39@Load:
  0082c	8b 4d fc	 mov	 ecx, DWORD PTR _this$[ebp]
  0082f	8b 55 b8	 mov	 edx, DWORD PTR tv480[ebp]
  00832	89 51 0c	 mov	 DWORD PTR [ecx+12], edx

; 107  : 
; 108  : 	//Feather
; 109  : 	this->m_bFeatherOnlyIcarus = GetPrivateProfileInt("GameServerInfo","DropFeatherOnlyIcarus", 1, filename) > 0;

  00835	8b 45 08	 mov	 eax, DWORD PTR _filename$[ebp]
  00838	50		 push	 eax
  00839	6a 01		 push	 1
  0083b	68 00 00 00 00	 push	 OFFSET ??_C@_0BG@IFJGENDG@DropFeatherOnlyIcarus@
  00840	68 00 00 00 00	 push	 OFFSET ??_C@_0P@EMJDPFDH@GameServerInfo@
  00845	ff 15 00 00 00
	00		 call	 DWORD PTR __imp__GetPrivateProfileIntA@16
  0084b	85 c0		 test	 eax, eax
  0084d	76 09		 jbe	 SHORT $LN40@Load
  0084f	c7 45 b8 01 00
	00 00		 mov	 DWORD PTR tv488[ebp], 1
  00856	eb 07		 jmp	 SHORT $LN41@Load
$LN40@Load:
  00858	c7 45 b8 00 00
	00 00		 mov	 DWORD PTR tv488[ebp], 0
$LN41@Load:
  0085f	8b 4d fc	 mov	 ecx, DWORD PTR _this$[ebp]
  00862	8b 55 b8	 mov	 edx, DWORD PTR tv488[ebp]
  00865	89 51 10	 mov	 DWORD PTR [ecx+16], edx

; 110  : 	this->m_bMonarchOnlyIcarus = GetPrivateProfileInt("GameServerInfo","DropMonarchOnlyIcarus", 0, filename) > 0;

  00868	8b 45 08	 mov	 eax, DWORD PTR _filename$[ebp]
  0086b	50		 push	 eax
  0086c	6a 00		 push	 0
  0086e	68 00 00 00 00	 push	 OFFSET ??_C@_0BG@EBCNJLEI@DropMonarchOnlyIcarus@
  00873	68 00 00 00 00	 push	 OFFSET ??_C@_0P@EMJDPFDH@GameServerInfo@
  00878	ff 15 00 00 00
	00		 call	 DWORD PTR __imp__GetPrivateProfileIntA@16
  0087e	85 c0		 test	 eax, eax
  00880	76 09		 jbe	 SHORT $LN42@Load
  00882	c7 45 b8 01 00
	00 00		 mov	 DWORD PTR tv496[ebp], 1
  00889	eb 07		 jmp	 SHORT $LN43@Load
$LN42@Load:
  0088b	c7 45 b8 00 00
	00 00		 mov	 DWORD PTR tv496[ebp], 0
$LN43@Load:
  00892	8b 4d fc	 mov	 ecx, DWORD PTR _this$[ebp]
  00895	8b 55 b8	 mov	 edx, DWORD PTR tv496[ebp]
  00898	89 51 14	 mov	 DWORD PTR [ecx+20], edx

; 111  : 	this->m_bSpiritPotOnlyIcarus = GetPrivateProfileInt("GameServerInfo","DropSpiritPotOnlyIcarus", 0, filename) > 0;

  0089b	8b 45 08	 mov	 eax, DWORD PTR _filename$[ebp]
  0089e	50		 push	 eax
  0089f	6a 00		 push	 0
  008a1	68 00 00 00 00	 push	 OFFSET ??_C@_0BI@ENAHDDEP@DropSpiritPotOnlyIcarus@
  008a6	68 00 00 00 00	 push	 OFFSET ??_C@_0P@EMJDPFDH@GameServerInfo@
  008ab	ff 15 00 00 00
	00		 call	 DWORD PTR __imp__GetPrivateProfileIntA@16
  008b1	85 c0		 test	 eax, eax
  008b3	76 09		 jbe	 SHORT $LN44@Load
  008b5	c7 45 b8 01 00
	00 00		 mov	 DWORD PTR tv504[ebp], 1
  008bc	eb 07		 jmp	 SHORT $LN45@Load
$LN44@Load:
  008be	c7 45 b8 00 00
	00 00		 mov	 DWORD PTR tv504[ebp], 0
$LN45@Load:
  008c5	8b 4d fc	 mov	 ecx, DWORD PTR _this$[ebp]
  008c8	8b 55 b8	 mov	 edx, DWORD PTR tv504[ebp]
  008cb	89 51 18	 mov	 DWORD PTR [ecx+24], edx

; 112  : 	this->m_bHorsePotOnlyIcarus = GetPrivateProfileInt("GameServerInfo","DropHorsePotOnlyIcarus", 0, filename) > 0;

  008ce	8b 45 08	 mov	 eax, DWORD PTR _filename$[ebp]
  008d1	50		 push	 eax
  008d2	6a 00		 push	 0
  008d4	68 00 00 00 00	 push	 OFFSET ??_C@_0BH@JGOHGOG@DropHorsePotOnlyIcarus@
  008d9	68 00 00 00 00	 push	 OFFSET ??_C@_0P@EMJDPFDH@GameServerInfo@
  008de	ff 15 00 00 00
	00		 call	 DWORD PTR __imp__GetPrivateProfileIntA@16
  008e4	85 c0		 test	 eax, eax
  008e6	76 09		 jbe	 SHORT $LN46@Load
  008e8	c7 45 b8 01 00
	00 00		 mov	 DWORD PTR tv512[ebp], 1
  008ef	eb 07		 jmp	 SHORT $LN47@Load
$LN46@Load:
  008f1	c7 45 b8 00 00
	00 00		 mov	 DWORD PTR tv512[ebp], 0
$LN47@Load:
  008f8	8b 4d fc	 mov	 ecx, DWORD PTR _this$[ebp]
  008fb	8b 55 b8	 mov	 edx, DWORD PTR tv512[ebp]
  008fe	89 51 1c	 mov	 DWORD PTR [ecx+28], edx

; 113  : 
; 114  : 	//Limit Life
; 115  : 	this->m_bLimitLife = GetPrivateProfileInt("GameServerInfo","LimitLife", 0, filename) > 0;

  00901	8b 45 08	 mov	 eax, DWORD PTR _filename$[ebp]
  00904	50		 push	 eax
  00905	6a 00		 push	 0
  00907	68 00 00 00 00	 push	 OFFSET ??_C@_09CCLNJBGC@LimitLife@
  0090c	68 00 00 00 00	 push	 OFFSET ??_C@_0P@EMJDPFDH@GameServerInfo@
  00911	ff 15 00 00 00
	00		 call	 DWORD PTR __imp__GetPrivateProfileIntA@16
  00917	85 c0		 test	 eax, eax
  00919	76 09		 jbe	 SHORT $LN48@Load
  0091b	c7 45 b8 01 00
	00 00		 mov	 DWORD PTR tv520[ebp], 1
  00922	eb 07		 jmp	 SHORT $LN49@Load
$LN48@Load:
  00924	c7 45 b8 00 00
	00 00		 mov	 DWORD PTR tv520[ebp], 0
$LN49@Load:
  0092b	8b 4d fc	 mov	 ecx, DWORD PTR _this$[ebp]
  0092e	8b 55 b8	 mov	 edx, DWORD PTR tv520[ebp]
  00931	89 51 48	 mov	 DWORD PTR [ecx+72], edx

; 116  : 	this->m_iLimitLife = GetPrivateProfileInt("GameServerInfo","MaxLifeLimit", 150000, filename);

  00934	8b 45 08	 mov	 eax, DWORD PTR _filename$[ebp]
  00937	50		 push	 eax
  00938	68 f0 49 02 00	 push	 150000			; 000249f0H
  0093d	68 00 00 00 00	 push	 OFFSET ??_C@_0N@GPNBHNHO@MaxLifeLimit@
  00942	68 00 00 00 00	 push	 OFFSET ??_C@_0P@EMJDPFDH@GameServerInfo@
  00947	ff 15 00 00 00
	00		 call	 DWORD PTR __imp__GetPrivateProfileIntA@16
  0094d	8b 4d fc	 mov	 ecx, DWORD PTR _this$[ebp]
  00950	89 81 d0 00 00
	00		 mov	 DWORD PTR [ecx+208], eax

; 117  : 
; 118  : 	//Rates
; 119  : 	this->m_iExcellentDrop = GetPrivateProfileInt("GameServerInfo","ExcellentDrop", 2000, filename);

  00956	8b 45 08	 mov	 eax, DWORD PTR _filename$[ebp]
  00959	50		 push	 eax
  0095a	68 d0 07 00 00	 push	 2000			; 000007d0H
  0095f	68 00 00 00 00	 push	 OFFSET ??_C@_0O@NHKKBHEE@ExcellentDrop@
  00964	68 00 00 00 00	 push	 OFFSET ??_C@_0P@EMJDPFDH@GameServerInfo@
  00969	ff 15 00 00 00
	00		 call	 DWORD PTR __imp__GetPrivateProfileIntA@16
  0096f	8b 4d fc	 mov	 ecx, DWORD PTR _this$[ebp]
  00972	89 81 d4 00 00
	00		 mov	 DWORD PTR [ecx+212], eax

; 120  : 	this->m_iAncientDrop = GetPrivateProfileInt("GameServerInfo","AncientDropRate", 25, filename);

  00978	8b 45 08	 mov	 eax, DWORD PTR _filename$[ebp]
  0097b	50		 push	 eax
  0097c	6a 19		 push	 25			; 00000019H
  0097e	68 00 00 00 00	 push	 OFFSET ??_C@_0BA@JJNINBFP@AncientDropRate@
  00983	68 00 00 00 00	 push	 OFFSET ??_C@_0P@EMJDPFDH@GameServerInfo@
  00988	ff 15 00 00 00
	00		 call	 DWORD PTR __imp__GetPrivateProfileIntA@16
  0098e	8b 4d fc	 mov	 ecx, DWORD PTR _this$[ebp]
  00991	89 81 d8 00 00
	00		 mov	 DWORD PTR [ecx+216], eax

; 121  : 
; 122  : 	if(this->m_iAncientDrop > 100)

  00997	8b 45 fc	 mov	 eax, DWORD PTR _this$[ebp]
  0099a	83 b8 d8 00 00
	00 64		 cmp	 DWORD PTR [eax+216], 100 ; 00000064H
  009a1	7e 0f		 jle	 SHORT $LN2@Load

; 123  : 		this->m_iAncientDrop = 100;

  009a3	8b 45 fc	 mov	 eax, DWORD PTR _this$[ebp]
  009a6	c7 80 d8 00 00
	00 64 00 00 00	 mov	 DWORD PTR [eax+216], 100 ; 00000064H
  009b0	eb 19		 jmp	 SHORT $LN4@Load
$LN2@Load:

; 124  : 	else if(this->m_iAncientDrop < 0)

  009b2	8b 45 fc	 mov	 eax, DWORD PTR _this$[ebp]
  009b5	83 b8 d8 00 00
	00 00		 cmp	 DWORD PTR [eax+216], 0
  009bc	7d 0d		 jge	 SHORT $LN4@Load

; 125  : 		this->m_iAncientDrop = 0;

  009be	8b 45 fc	 mov	 eax, DWORD PTR _this$[ebp]
  009c1	c7 80 d8 00 00
	00 00 00 00 00	 mov	 DWORD PTR [eax+216], 0
$LN4@Load:

; 126  : 
; 127  : 	this->m_iAncientDrop *= 100;

  009cb	8b 45 fc	 mov	 eax, DWORD PTR _this$[ebp]
  009ce	6b 88 d8 00 00
	00 64		 imul	 ecx, DWORD PTR [eax+216], 100
  009d5	8b 55 fc	 mov	 edx, DWORD PTR _this$[ebp]
  009d8	89 8a d8 00 00
	00		 mov	 DWORD PTR [edx+216], ecx

; 128  : 
; 129  : 	//Q & W Command Money
; 130  : 	this->m_iQCommandMoney = GetPrivateProfileInt("GameServerInfo","QCommandMoney", 0, filename);

  009de	8b 45 08	 mov	 eax, DWORD PTR _filename$[ebp]
  009e1	50		 push	 eax
  009e2	6a 00		 push	 0
  009e4	68 00 00 00 00	 push	 OFFSET ??_C@_0O@EDKEALMC@QCommandMoney@
  009e9	68 00 00 00 00	 push	 OFFSET ??_C@_0P@EMJDPFDH@GameServerInfo@
  009ee	ff 15 00 00 00
	00		 call	 DWORD PTR __imp__GetPrivateProfileIntA@16
  009f4	8b 4d fc	 mov	 ecx, DWORD PTR _this$[ebp]
  009f7	89 81 dc 00 00
	00		 mov	 DWORD PTR [ecx+220], eax

; 131  : 	this->m_iWCommandMoney = GetPrivateProfileInt("GameServerInfo","WCommandMoney", 0, filename);

  009fd	8b 45 08	 mov	 eax, DWORD PTR _filename$[ebp]
  00a00	50		 push	 eax
  00a01	6a 00		 push	 0
  00a03	68 00 00 00 00	 push	 OFFSET ??_C@_0O@LLGGEAHE@WCommandMoney@
  00a08	68 00 00 00 00	 push	 OFFSET ??_C@_0P@EMJDPFDH@GameServerInfo@
  00a0d	ff 15 00 00 00
	00		 call	 DWORD PTR __imp__GetPrivateProfileIntA@16
  00a13	8b 4d fc	 mov	 ecx, DWORD PTR _this$[ebp]
  00a16	89 81 e0 00 00
	00		 mov	 DWORD PTR [ecx+224], eax

; 132  : 
; 133  : 	//Client Check
; 134  : 	this->m_bCheckClientSerial = GetPrivateProfileInt("GameServerInfo","CheckClientSerial", 1, filename) > 0;

  00a1c	8b 45 08	 mov	 eax, DWORD PTR _filename$[ebp]
  00a1f	50		 push	 eax
  00a20	6a 01		 push	 1
  00a22	68 00 00 00 00	 push	 OFFSET ??_C@_0BC@MDCNDIP@CheckClientSerial@
  00a27	68 00 00 00 00	 push	 OFFSET ??_C@_0P@EMJDPFDH@GameServerInfo@
  00a2c	ff 15 00 00 00
	00		 call	 DWORD PTR __imp__GetPrivateProfileIntA@16
  00a32	85 c0		 test	 eax, eax
  00a34	76 09		 jbe	 SHORT $LN50@Load
  00a36	c7 45 b8 01 00
	00 00		 mov	 DWORD PTR tv567[ebp], 1
  00a3d	eb 07		 jmp	 SHORT $LN51@Load
$LN50@Load:
  00a3f	c7 45 b8 00 00
	00 00		 mov	 DWORD PTR tv567[ebp], 0
$LN51@Load:
  00a46	8b 4d fc	 mov	 ecx, DWORD PTR _this$[ebp]
  00a49	8b 55 b8	 mov	 edx, DWORD PTR tv567[ebp]
  00a4c	89 51 44	 mov	 DWORD PTR [ecx+68], edx

; 135  : 
; 136  : 	//Bless Bug
; 137  : 	this->m_bBlessBug = GetPrivateProfileInt("GameServerInfo","BlessBug", 1, filename) > 0;

  00a4f	8b 45 08	 mov	 eax, DWORD PTR _filename$[ebp]
  00a52	50		 push	 eax
  00a53	6a 01		 push	 1
  00a55	68 00 00 00 00	 push	 OFFSET ??_C@_08MNAHDEHL@BlessBug@
  00a5a	68 00 00 00 00	 push	 OFFSET ??_C@_0P@EMJDPFDH@GameServerInfo@
  00a5f	ff 15 00 00 00
	00		 call	 DWORD PTR __imp__GetPrivateProfileIntA@16
  00a65	85 c0		 test	 eax, eax
  00a67	76 09		 jbe	 SHORT $LN52@Load
  00a69	c7 45 b8 01 00
	00 00		 mov	 DWORD PTR tv575[ebp], 1
  00a70	eb 07		 jmp	 SHORT $LN53@Load
$LN52@Load:
  00a72	c7 45 b8 00 00
	00 00		 mov	 DWORD PTR tv575[ebp], 0
$LN53@Load:
  00a79	8b 4d fc	 mov	 ecx, DWORD PTR _this$[ebp]
  00a7c	8a 55 b8	 mov	 dl, BYTE PTR tv575[ebp]
  00a7f	88 51 4c	 mov	 BYTE PTR [ecx+76], dl

; 138  : 
; 139  : 	//Miss Rate
; 140  : 	this->m_iMaxMissRate = GetPrivateProfileInt("GameServerInfo","MaxMissRate", 10000, filename);

  00a82	8b 45 08	 mov	 eax, DWORD PTR _filename$[ebp]
  00a85	50		 push	 eax
  00a86	68 10 27 00 00	 push	 10000			; 00002710H
  00a8b	68 00 00 00 00	 push	 OFFSET ??_C@_0M@GEFGLKKA@MaxMissRate@
  00a90	68 00 00 00 00	 push	 OFFSET ??_C@_0P@EMJDPFDH@GameServerInfo@
  00a95	ff 15 00 00 00
	00		 call	 DWORD PTR __imp__GetPrivateProfileIntA@16
  00a9b	8b 4d fc	 mov	 ecx, DWORD PTR _this$[ebp]
  00a9e	89 81 e4 00 00
	00		 mov	 DWORD PTR [ecx+228], eax

; 141  : 
; 142  : 	//Guild War Score
; 143  : 	this->m_iGuildWarScore = GetPrivateProfileInt("GameServerInfo","GuildWarScore", 1, filename);

  00aa4	8b 45 08	 mov	 eax, DWORD PTR _filename$[ebp]
  00aa7	50		 push	 eax
  00aa8	6a 01		 push	 1
  00aaa	68 00 00 00 00	 push	 OFFSET ??_C@_0O@JDGFBMCH@GuildWarScore@
  00aaf	68 00 00 00 00	 push	 OFFSET ??_C@_0P@EMJDPFDH@GameServerInfo@
  00ab4	ff 15 00 00 00
	00		 call	 DWORD PTR __imp__GetPrivateProfileIntA@16
  00aba	8b 4d fc	 mov	 ecx, DWORD PTR _this$[ebp]
  00abd	89 81 e8 00 00
	00		 mov	 DWORD PTR [ecx+232], eax

; 144  : 
; 145  : 	//UDP Port
; 146  : 	this->m_iUDPPort = GetPrivateProfileInt("GameServerInfo", "UDPPort", 60006, filename);

  00ac3	8b 45 08	 mov	 eax, DWORD PTR _filename$[ebp]
  00ac6	50		 push	 eax
  00ac7	68 66 ea 00 00	 push	 60006			; 0000ea66H
  00acc	68 00 00 00 00	 push	 OFFSET ??_C@_07HMKBKMPL@UDPPort@
  00ad1	68 00 00 00 00	 push	 OFFSET ??_C@_0P@EMJDPFDH@GameServerInfo@
  00ad6	ff 15 00 00 00
	00		 call	 DWORD PTR __imp__GetPrivateProfileIntA@16
  00adc	8b 4d fc	 mov	 ecx, DWORD PTR _this$[ebp]
  00adf	89 81 ec 00 00
	00		 mov	 DWORD PTR [ecx+236], eax

; 147  : 
; 148  : 	//Connect Message
; 149  : 	GetPrivateProfileString("GameServerInfo","ConnectMessage","Mirage Continent",this->m_szConnectMessage,sizeof(this->m_szConnectMessage),filename);

  00ae5	8b 45 08	 mov	 eax, DWORD PTR _filename$[ebp]
  00ae8	50		 push	 eax
  00ae9	68 00 02 00 00	 push	 512			; 00000200H
  00aee	8b 4d fc	 mov	 ecx, DWORD PTR _this$[ebp]
  00af1	81 c1 fc 00 00
	00		 add	 ecx, 252		; 000000fcH
  00af7	51		 push	 ecx
  00af8	68 00 00 00 00	 push	 OFFSET ??_C@_0BB@EADNHIGG@Mirage?5Continent@
  00afd	68 00 00 00 00	 push	 OFFSET ??_C@_0P@CENDCLME@ConnectMessage@
  00b02	68 00 00 00 00	 push	 OFFSET ??_C@_0P@EMJDPFDH@GameServerInfo@
  00b07	ff 15 00 00 00
	00		 call	 DWORD PTR __imp__GetPrivateProfileStringA@24

; 150  : 	GetPrivateProfileString("GameServerInfo","GuardMessage","Mirage Continent",this->m_szGuardMessage,sizeof(this->m_szGuardMessage),filename);

  00b0d	8b 45 08	 mov	 eax, DWORD PTR _filename$[ebp]
  00b10	50		 push	 eax
  00b11	68 00 01 00 00	 push	 256			; 00000100H
  00b16	8b 4d fc	 mov	 ecx, DWORD PTR _this$[ebp]
  00b19	81 c1 fc 02 00
	00		 add	 ecx, 764		; 000002fcH
  00b1f	51		 push	 ecx
  00b20	68 00 00 00 00	 push	 OFFSET ??_C@_0BB@EADNHIGG@Mirage?5Continent@
  00b25	68 00 00 00 00	 push	 OFFSET ??_C@_0N@GAKPJHLA@GuardMessage@
  00b2a	68 00 00 00 00	 push	 OFFSET ??_C@_0P@EMJDPFDH@GameServerInfo@
  00b2f	ff 15 00 00 00
	00		 call	 DWORD PTR __imp__GetPrivateProfileStringA@24

; 151  : 
; 152  : 	//ELF Aura Time
; 153  : 	this->m_iDamageAuraTime = GetPrivateProfileInt("GameServerInfo", "DamageAuraTime", 60, filename);

  00b35	8b 45 08	 mov	 eax, DWORD PTR _filename$[ebp]
  00b38	50		 push	 eax
  00b39	6a 3c		 push	 60			; 0000003cH
  00b3b	68 00 00 00 00	 push	 OFFSET ??_C@_0P@ILEONJMP@DamageAuraTime@
  00b40	68 00 00 00 00	 push	 OFFSET ??_C@_0P@EMJDPFDH@GameServerInfo@
  00b45	ff 15 00 00 00
	00		 call	 DWORD PTR __imp__GetPrivateProfileIntA@16
  00b4b	8b 4d fc	 mov	 ecx, DWORD PTR _this$[ebp]
  00b4e	89 81 fc 03 00
	00		 mov	 DWORD PTR [ecx+1020], eax

; 154  : 	this->m_iDefenseAuraTime = GetPrivateProfileInt("GameServerInfo", "DefenseAuraTime", 60, filename);

  00b54	8b 45 08	 mov	 eax, DWORD PTR _filename$[ebp]
  00b57	50		 push	 eax
  00b58	6a 3c		 push	 60			; 0000003cH
  00b5a	68 00 00 00 00	 push	 OFFSET ??_C@_0BA@CICCJPOD@DefenseAuraTime@
  00b5f	68 00 00 00 00	 push	 OFFSET ??_C@_0P@EMJDPFDH@GameServerInfo@
  00b64	ff 15 00 00 00
	00		 call	 DWORD PTR __imp__GetPrivateProfileIntA@16
  00b6a	8b 4d fc	 mov	 ecx, DWORD PTR _this$[ebp]
  00b6d	89 81 00 04 00
	00		 mov	 DWORD PTR [ecx+1024], eax

; 155  : 
; 156  : 	this->LoadAuthorityTable("..\\data\\GmSystem.cfg");

  00b73	68 00 00 00 00	 push	 OFFSET ??_C@_0BF@ICGAAEKP@?4?4?2data?2GmSystem?4cfg@
  00b78	8b 4d fc	 mov	 ecx, DWORD PTR _this$[ebp]
  00b7b	e8 00 00 00 00	 call	 ?LoadAuthorityTable@CGlobalConfig@@QAEXPBD@Z ; CGlobalConfig::LoadAuthorityTable

; 157  : 
; 158  : 	m_bBackSpring = GetPrivateProfileInt("GameServerInfo","BackSpringCheck", 1, filename) > 0;

  00b80	8b 45 08	 mov	 eax, DWORD PTR _filename$[ebp]
  00b83	50		 push	 eax
  00b84	6a 01		 push	 1
  00b86	68 00 00 00 00	 push	 OFFSET ??_C@_0BA@IEPMMKOK@BackSpringCheck@
  00b8b	68 00 00 00 00	 push	 OFFSET ??_C@_0P@EMJDPFDH@GameServerInfo@
  00b90	ff 15 00 00 00
	00		 call	 DWORD PTR __imp__GetPrivateProfileIntA@16
  00b96	85 c0		 test	 eax, eax
  00b98	76 09		 jbe	 SHORT $LN54@Load
  00b9a	c7 45 b8 01 00
	00 00		 mov	 DWORD PTR tv662[ebp], 1
  00ba1	eb 07		 jmp	 SHORT $LN55@Load
$LN54@Load:
  00ba3	c7 45 b8 00 00
	00 00		 mov	 DWORD PTR tv662[ebp], 0
$LN55@Load:
  00baa	8b 4d fc	 mov	 ecx, DWORD PTR _this$[ebp]
  00bad	8a 55 b8	 mov	 dl, BYTE PTR tv662[ebp]
  00bb0	88 51 4d	 mov	 BYTE PTR [ecx+77], dl

; 159  : }

  00bb3	5f		 pop	 edi
  00bb4	5e		 pop	 esi
  00bb5	5b		 pop	 ebx
  00bb6	8b e5		 mov	 esp, ebp
  00bb8	5d		 pop	 ebp
  00bb9	c2 08 00	 ret	 8
?Load@CGlobalConfig@@QAEXPBD0@Z ENDP			; CGlobalConfig::Load
_TEXT	ENDS
; Function compile flags: /Odtp /ZI
; File C:\Program Files (x86)\Microsoft Visual Studio\2019\Community\VC\Tools\MSVC\14.27.29110\include\xtree
;	COMDAT ?_Throw_tree_length_error@std@@YAXXZ
_TEXT	SEGMENT
?_Throw_tree_length_error@std@@YAXXZ PROC		; std::_Throw_tree_length_error, COMDAT

; 414  : [[noreturn]] inline void _Throw_tree_length_error() {

  00000	55		 push	 ebp
  00001	8b ec		 mov	 ebp, esp
  00003	83 ec 40	 sub	 esp, 64			; 00000040H
  00006	53		 push	 ebx
  00007	56		 push	 esi
  00008	57		 push	 edi

; 415  :     _Xlength_error("map/set too long");

  00009	68 00 00 00 00	 push	 OFFSET ??_C@_0BB@GCADKGJO@map?1set?5too?5long@
  0000e	e8 00 00 00 00	 call	 ?_Xlength_error@std@@YAXPBD@Z ; std::_Xlength_error
$LN2@Throw_tree:

; 416  : }

  00013	5f		 pop	 edi
  00014	5e		 pop	 esi
  00015	5b		 pop	 ebx
  00016	8b e5		 mov	 esp, ebp
  00018	5d		 pop	 ebp
  00019	c3		 ret	 0
?_Throw_tree_length_error@std@@YAXXZ ENDP		; std::_Throw_tree_length_error
_TEXT	ENDS
; Function compile flags: /Odtp /ZI
; File C:\Program Files (x86)\Microsoft Visual Studio\2019\Community\VC\Tools\MSVC\14.27.29110\include\xmemory
;	COMDAT ?_Release@_Fake_proxy_ptr_impl@std@@QAEXXZ
_TEXT	SEGMENT
_this$ = -4						; size = 4
?_Release@_Fake_proxy_ptr_impl@std@@QAEXXZ PROC		; std::_Fake_proxy_ptr_impl::_Release, COMDAT
; _this$ = ecx

; 1259 :     void _Release() noexcept {}

  00000	55		 push	 ebp
  00001	8b ec		 mov	 ebp, esp
  00003	83 ec 44	 sub	 esp, 68			; 00000044H
  00006	53		 push	 ebx
  00007	56		 push	 esi
  00008	57		 push	 edi
  00009	89 4d fc	 mov	 DWORD PTR _this$[ebp], ecx
  0000c	5f		 pop	 edi
  0000d	5e		 pop	 esi
  0000e	5b		 pop	 ebx
  0000f	8b e5		 mov	 esp, ebp
  00011	5d		 pop	 ebp
  00012	c3		 ret	 0
?_Release@_Fake_proxy_ptr_impl@std@@QAEXXZ ENDP		; std::_Fake_proxy_ptr_impl::_Release
_TEXT	ENDS
; Function compile flags: /Odtp /ZI
; File C:\Program Files (x86)\Microsoft Visual Studio\2019\Community\VC\Tools\MSVC\14.27.29110\include\xmemory
;	COMDAT ??0_Fake_proxy_ptr_impl@std@@QAE@ABU_Fake_allocator@1@ABU_Container_base0@1@@Z
_TEXT	SEGMENT
_this$ = -4						; size = 4
___formal$ = 8						; size = 4
___formal$ = 12						; size = 4
??0_Fake_proxy_ptr_impl@std@@QAE@ABU_Fake_allocator@1@ABU_Container_base0@1@@Z PROC ; std::_Fake_proxy_ptr_impl::_Fake_proxy_ptr_impl, COMDAT
; _this$ = ecx

; 1256 :     _Fake_proxy_ptr_impl(const _Fake_allocator&, const _Container_base0&) noexcept {}

  00000	55		 push	 ebp
  00001	8b ec		 mov	 ebp, esp
  00003	83 ec 44	 sub	 esp, 68			; 00000044H
  00006	53		 push	 ebx
  00007	56		 push	 esi
  00008	57		 push	 edi
  00009	89 4d fc	 mov	 DWORD PTR _this$[ebp], ecx
  0000c	8b 45 fc	 mov	 eax, DWORD PTR _this$[ebp]
  0000f	5f		 pop	 edi
  00010	5e		 pop	 esi
  00011	5b		 pop	 ebx
  00012	8b e5		 mov	 esp, ebp
  00014	5d		 pop	 ebp
  00015	c2 08 00	 ret	 8
??0_Fake_proxy_ptr_impl@std@@QAE@ABU_Fake_allocator@1@ABU_Container_base0@1@@Z ENDP ; std::_Fake_proxy_ptr_impl::_Fake_proxy_ptr_impl
_TEXT	ENDS
; Function compile flags: /Odtp /ZI
; File C:\Program Files (x86)\Microsoft Visual Studio\2019\Community\VC\Tools\MSVC\14.27.29110\include\xmemory
;	COMDAT ?_Adopt@_Iterator_base0@std@@QAEXPBX@Z
_TEXT	SEGMENT
_this$ = -4						; size = 4
___formal$ = 8						; size = 4
?_Adopt@_Iterator_base0@std@@QAEXPBX@Z PROC		; std::_Iterator_base0::_Adopt, COMDAT
; _this$ = ecx

; 1072 :     void _Adopt(const void*) noexcept {}

  00000	55		 push	 ebp
  00001	8b ec		 mov	 ebp, esp
  00003	83 ec 44	 sub	 esp, 68			; 00000044H
  00006	53		 push	 ebx
  00007	56		 push	 esi
  00008	57		 push	 edi
  00009	89 4d fc	 mov	 DWORD PTR _this$[ebp], ecx
  0000c	5f		 pop	 edi
  0000d	5e		 pop	 esi
  0000e	5b		 pop	 ebx
  0000f	8b e5		 mov	 esp, ebp
  00011	5d		 pop	 ebp
  00012	c2 04 00	 ret	 4
?_Adopt@_Iterator_base0@std@@QAEXPBX@Z ENDP		; std::_Iterator_base0::_Adopt
_TEXT	ENDS
; Function compile flags: /Odtp /ZI
; File C:\Program Files (x86)\Microsoft Visual Studio\2019\Community\VC\Tools\MSVC\14.27.29110\include\xmemory
;	COMDAT ?_Orphan_all@_Container_base0@std@@QAEXXZ
_TEXT	SEGMENT
_this$ = -4						; size = 4
?_Orphan_all@_Container_base0@std@@QAEXXZ PROC		; std::_Container_base0::_Orphan_all, COMDAT
; _this$ = ecx

; 1065 :     void _Orphan_all() noexcept {}

  00000	55		 push	 ebp
  00001	8b ec		 mov	 ebp, esp
  00003	83 ec 44	 sub	 esp, 68			; 00000044H
  00006	53		 push	 ebx
  00007	56		 push	 esi
  00008	57		 push	 edi
  00009	89 4d fc	 mov	 DWORD PTR _this$[ebp], ecx
  0000c	5f		 pop	 edi
  0000d	5e		 pop	 esi
  0000e	5b		 pop	 ebx
  0000f	8b e5		 mov	 esp, ebp
  00011	5d		 pop	 ebp
  00012	c3		 ret	 0
?_Orphan_all@_Container_base0@std@@QAEXXZ ENDP		; std::_Container_base0::_Orphan_all
_TEXT	ENDS
; Function compile flags: /Odtp /ZI
; File C:\Program Files (x86)\Microsoft Visual Studio\2019\Community\VC\Tools\MSVC\14.27.29110\include\xmemory
;	COMDAT ?_Adjust_manually_vector_aligned@std@@YAXAAPAXAAI@Z
_TEXT	SEGMENT
__Back_shift$ = -16					; size = 4
__Min_back_shift$ = -12					; size = 4
__Ptr_container$ = -8					; size = 4
__Ptr_user$ = -4					; size = 4
__Ptr$ = 8						; size = 4
__Bytes$ = 12						; size = 4
?_Adjust_manually_vector_aligned@std@@YAXAAPAXAAI@Z PROC ; std::_Adjust_manually_vector_aligned, COMDAT

; 132  : inline void _Adjust_manually_vector_aligned(void*& _Ptr, size_t& _Bytes) {

  00000	55		 push	 ebp
  00001	8b ec		 mov	 ebp, esp
  00003	83 ec 50	 sub	 esp, 80			; 00000050H
  00006	53		 push	 ebx
  00007	56		 push	 esi
  00008	57		 push	 edi

; 133  :     // adjust parameters from _Allocate_manually_vector_aligned to pass to operator delete
; 134  :     _Bytes += _Non_user_size;

  00009	8b 45 0c	 mov	 eax, DWORD PTR __Bytes$[ebp]
  0000c	8b 08		 mov	 ecx, DWORD PTR [eax]
  0000e	83 c1 23	 add	 ecx, 35			; 00000023H
  00011	8b 55 0c	 mov	 edx, DWORD PTR __Bytes$[ebp]
  00014	89 0a		 mov	 DWORD PTR [edx], ecx

; 135  : 
; 136  :     const uintptr_t* const _Ptr_user = reinterpret_cast<uintptr_t*>(_Ptr);

  00016	8b 45 08	 mov	 eax, DWORD PTR __Ptr$[ebp]
  00019	8b 08		 mov	 ecx, DWORD PTR [eax]
  0001b	89 4d fc	 mov	 DWORD PTR __Ptr_user$[ebp], ecx

; 137  :     const uintptr_t _Ptr_container   = _Ptr_user[-1];

  0001e	b8 04 00 00 00	 mov	 eax, 4
  00023	6b c8 ff	 imul	 ecx, eax, -1
  00026	8b 55 fc	 mov	 edx, DWORD PTR __Ptr_user$[ebp]
  00029	8b 04 0a	 mov	 eax, DWORD PTR [edx+ecx]
  0002c	89 45 f8	 mov	 DWORD PTR __Ptr_container$[ebp], eax

; 138  : 
; 139  :     // If the following asserts, it likely means that we are performing
; 140  :     // an aligned delete on memory coming from an unaligned allocation.
; 141  :     _STL_ASSERT(_Ptr_user[-2] == _Big_allocation_sentinel, "invalid argument");
; 142  : 
; 143  :     // Extra paranoia on aligned allocation/deallocation; ensure _Ptr_container is
; 144  :     // in range [_Min_back_shift, _Non_user_size]
; 145  : #ifdef _DEBUG
; 146  :     constexpr uintptr_t _Min_back_shift = 2 * sizeof(void*);
; 147  : #else // ^^^ _DEBUG ^^^ // vvv !_DEBUG vvv
; 148  :     constexpr uintptr_t _Min_back_shift = sizeof(void*);

  0002f	c7 45 f4 04 00
	00 00		 mov	 DWORD PTR __Min_back_shift$[ebp], 4

; 149  : #endif // _DEBUG
; 150  :     const uintptr_t _Back_shift = reinterpret_cast<uintptr_t>(_Ptr) - _Ptr_container;

  00036	8b 45 08	 mov	 eax, DWORD PTR __Ptr$[ebp]
  00039	8b 08		 mov	 ecx, DWORD PTR [eax]
  0003b	2b 4d f8	 sub	 ecx, DWORD PTR __Ptr_container$[ebp]
  0003e	89 4d f0	 mov	 DWORD PTR __Back_shift$[ebp], ecx
$LN4@Adjust_man:

; 151  :     _STL_VERIFY(_Back_shift >= _Min_back_shift && _Back_shift <= _Non_user_size, "invalid argument");

  00041	83 7d f0 04	 cmp	 DWORD PTR __Back_shift$[ebp], 4
  00045	72 08		 jb	 SHORT $LN7@Adjust_man
  00047	83 7d f0 23	 cmp	 DWORD PTR __Back_shift$[ebp], 35 ; 00000023H
  0004b	77 02		 ja	 SHORT $LN7@Adjust_man
  0004d	eb 09		 jmp	 SHORT $LN2@Adjust_man
$LN7@Adjust_man:
  0004f	e8 00 00 00 00	 call	 __invalid_parameter_noinfo_noreturn
  00054	33 c0		 xor	 eax, eax
  00056	75 f7		 jne	 SHORT $LN7@Adjust_man
$LN2@Adjust_man:
  00058	33 c0		 xor	 eax, eax
  0005a	75 e5		 jne	 SHORT $LN4@Adjust_man

; 152  :     _Ptr = reinterpret_cast<void*>(_Ptr_container);

  0005c	8b 45 08	 mov	 eax, DWORD PTR __Ptr$[ebp]
  0005f	8b 4d f8	 mov	 ecx, DWORD PTR __Ptr_container$[ebp]
  00062	89 08		 mov	 DWORD PTR [eax], ecx
$LN10@Adjust_man:

; 153  : }

  00064	5f		 pop	 edi
  00065	5e		 pop	 esi
  00066	5b		 pop	 ebx
  00067	8b e5		 mov	 esp, ebp
  00069	5d		 pop	 ebp
  0006a	c3		 ret	 0
?_Adjust_manually_vector_aligned@std@@YAXAAPAXAAI@Z ENDP ; std::_Adjust_manually_vector_aligned
_TEXT	ENDS
; Function compile flags: /Odtp /ZI
; File C:\Program Files (x86)\Microsoft Visual Studio\2019\Community\VC\Tools\MSVC\14.27.29110\include\xmemory
;	COMDAT ?_Allocate@_Default_allocate_traits@std@@SAPAXI@Z
_TEXT	SEGMENT
__Bytes$ = 8						; size = 4
?_Allocate@_Default_allocate_traits@std@@SAPAXI@Z PROC	; std::_Default_allocate_traits::_Allocate, COMDAT

; 76   :     __declspec(allocator) static void* _Allocate(const size_t _Bytes) {

  00000	55		 push	 ebp
  00001	8b ec		 mov	 ebp, esp
  00003	83 ec 40	 sub	 esp, 64			; 00000040H
  00006	53		 push	 ebx
  00007	56		 push	 esi
  00008	57		 push	 edi

; 77   :         return ::operator new(_Bytes);

  00009	8b 45 08	 mov	 eax, DWORD PTR __Bytes$[ebp]
  0000c	50		 push	 eax
  0000d	e8 00 00 00 00	 call	 ??2@YAPAXI@Z		; operator new
  00012	83 c4 04	 add	 esp, 4

; 78   :     }

  00015	5f		 pop	 edi
  00016	5e		 pop	 esi
  00017	5b		 pop	 ebx
  00018	8b e5		 mov	 esp, ebp
  0001a	5d		 pop	 ebp
  0001b	c3		 ret	 0
?_Allocate@_Default_allocate_traits@std@@SAPAXI@Z ENDP	; std::_Default_allocate_traits::_Allocate
_TEXT	ENDS
; Function compile flags: /Odtp /ZI
; File C:\Program Files (x86)\Microsoft Visual Studio\2019\Community\VC\Tools\MSVC\14.27.29110\include\limits
;	COMDAT ?max@?$numeric_limits@H@std@@SAHXZ
_TEXT	SEGMENT
?max@?$numeric_limits@H@std@@SAHXZ PROC			; std::numeric_limits<int>::max, COMDAT

; 554  :     _NODISCARD static constexpr int(max)() noexcept {

  00000	55		 push	 ebp
  00001	8b ec		 mov	 ebp, esp
  00003	83 ec 40	 sub	 esp, 64			; 00000040H
  00006	53		 push	 ebx
  00007	56		 push	 esi
  00008	57		 push	 edi

; 555  :         return INT_MAX;

  00009	b8 ff ff ff 7f	 mov	 eax, 2147483647		; 7fffffffH

; 556  :     }

  0000e	5f		 pop	 edi
  0000f	5e		 pop	 esi
  00010	5b		 pop	 ebx
  00011	8b e5		 mov	 esp, ebp
  00013	5d		 pop	 ebp
  00014	c3		 ret	 0
?max@?$numeric_limits@H@std@@SAHXZ ENDP			; std::numeric_limits<int>::max
_TEXT	ENDS
; Function compile flags: /Odtp /ZI
; File C:\Program Files (x86)\Microsoft Visual Studio\2019\Community\VC\Tools\MSVC\14.27.29110\include\exception
;	COMDAT ?_Throw_bad_array_new_length@std@@YAXXZ
_TEXT	SEGMENT
$T1 = -76						; size = 12
?_Throw_bad_array_new_length@std@@YAXXZ PROC		; std::_Throw_bad_array_new_length, COMDAT

; 320  : [[noreturn]] inline void _Throw_bad_array_new_length() {

  00000	55		 push	 ebp
  00001	8b ec		 mov	 ebp, esp
  00003	83 ec 4c	 sub	 esp, 76			; 0000004cH
  00006	53		 push	 ebx
  00007	56		 push	 esi
  00008	57		 push	 edi

; 321  :     _THROW(bad_array_new_length{});

  00009	8d 4d b4	 lea	 ecx, DWORD PTR $T1[ebp]
  0000c	e8 00 00 00 00	 call	 ??0bad_array_new_length@std@@QAE@XZ ; std::bad_array_new_length::bad_array_new_length
  00011	68 00 00 00 00	 push	 OFFSET __TI3?AVbad_array_new_length@std@@
  00016	8d 45 b4	 lea	 eax, DWORD PTR $T1[ebp]
  00019	50		 push	 eax
  0001a	e8 00 00 00 00	 call	 __CxxThrowException@8
$LN2@Throw_bad_:

; 322  : }

  0001f	5f		 pop	 edi
  00020	5e		 pop	 esi
  00021	5b		 pop	 ebx
  00022	8b e5		 mov	 esp, ebp
  00024	5d		 pop	 ebp
  00025	c3		 ret	 0
?_Throw_bad_array_new_length@std@@YAXXZ ENDP		; std::_Throw_bad_array_new_length
_TEXT	ENDS
; Function compile flags: /Odtp /ZI
;	COMDAT ??_Gbad_array_new_length@std@@UAEPAXI@Z
_TEXT	SEGMENT
_this$ = -4						; size = 4
___flags$ = 8						; size = 4
??_Gbad_array_new_length@std@@UAEPAXI@Z PROC		; std::bad_array_new_length::`scalar deleting destructor', COMDAT
; _this$ = ecx
  00000	55		 push	 ebp
  00001	8b ec		 mov	 ebp, esp
  00003	83 ec 44	 sub	 esp, 68			; 00000044H
  00006	53		 push	 ebx
  00007	56		 push	 esi
  00008	57		 push	 edi
  00009	89 4d fc	 mov	 DWORD PTR _this$[ebp], ecx
  0000c	8b 4d fc	 mov	 ecx, DWORD PTR _this$[ebp]
  0000f	e8 00 00 00 00	 call	 ??1bad_array_new_length@std@@UAE@XZ
  00014	8b 45 08	 mov	 eax, DWORD PTR ___flags$[ebp]
  00017	83 e0 01	 and	 eax, 1
  0001a	74 0e		 je	 SHORT $LN2@scalar
  0001c	6a 0c		 push	 12			; 0000000cH
  0001e	8b 45 fc	 mov	 eax, DWORD PTR _this$[ebp]
  00021	50		 push	 eax
  00022	e8 00 00 00 00	 call	 ??3@YAXPAXI@Z		; operator delete
  00027	83 c4 08	 add	 esp, 8
$LN2@scalar:
  0002a	8b 45 fc	 mov	 eax, DWORD PTR _this$[ebp]
  0002d	5f		 pop	 edi
  0002e	5e		 pop	 esi
  0002f	5b		 pop	 ebx
  00030	8b e5		 mov	 esp, ebp
  00032	5d		 pop	 ebp
  00033	c2 04 00	 ret	 4
??_Gbad_array_new_length@std@@UAEPAXI@Z ENDP		; std::bad_array_new_length::`scalar deleting destructor'
_TEXT	ENDS
; Function compile flags: /Odtp /ZI
;	COMDAT ??0bad_array_new_length@std@@QAE@ABV01@@Z
_TEXT	SEGMENT
_this$ = -4						; size = 4
___that$ = 8						; size = 4
??0bad_array_new_length@std@@QAE@ABV01@@Z PROC		; std::bad_array_new_length::bad_array_new_length, COMDAT
; _this$ = ecx
  00000	55		 push	 ebp
  00001	8b ec		 mov	 ebp, esp
  00003	83 ec 44	 sub	 esp, 68			; 00000044H
  00006	53		 push	 ebx
  00007	56		 push	 esi
  00008	57		 push	 edi
  00009	89 4d fc	 mov	 DWORD PTR _this$[ebp], ecx
  0000c	8b 45 08	 mov	 eax, DWORD PTR ___that$[ebp]
  0000f	50		 push	 eax
  00010	8b 4d fc	 mov	 ecx, DWORD PTR _this$[ebp]
  00013	e8 00 00 00 00	 call	 ??0bad_alloc@std@@QAE@ABV01@@Z
  00018	8b 45 fc	 mov	 eax, DWORD PTR _this$[ebp]
  0001b	c7 00 00 00 00
	00		 mov	 DWORD PTR [eax], OFFSET ??_7bad_array_new_length@std@@6B@
  00021	8b 45 fc	 mov	 eax, DWORD PTR _this$[ebp]
  00024	5f		 pop	 edi
  00025	5e		 pop	 esi
  00026	5b		 pop	 ebx
  00027	8b e5		 mov	 esp, ebp
  00029	5d		 pop	 ebp
  0002a	c2 04 00	 ret	 4
??0bad_array_new_length@std@@QAE@ABV01@@Z ENDP		; std::bad_array_new_length::bad_array_new_length
_TEXT	ENDS
; Function compile flags: /Odtp /ZI
;	COMDAT ??1bad_array_new_length@std@@UAE@XZ
_TEXT	SEGMENT
_this$ = -4						; size = 4
??1bad_array_new_length@std@@UAE@XZ PROC		; std::bad_array_new_length::~bad_array_new_length, COMDAT
; _this$ = ecx
  00000	55		 push	 ebp
  00001	8b ec		 mov	 ebp, esp
  00003	83 ec 44	 sub	 esp, 68			; 00000044H
  00006	53		 push	 ebx
  00007	56		 push	 esi
  00008	57		 push	 edi
  00009	89 4d fc	 mov	 DWORD PTR _this$[ebp], ecx
  0000c	8b 4d fc	 mov	 ecx, DWORD PTR _this$[ebp]
  0000f	e8 00 00 00 00	 call	 ??1bad_alloc@std@@UAE@XZ
  00014	5f		 pop	 edi
  00015	5e		 pop	 esi
  00016	5b		 pop	 ebx
  00017	8b e5		 mov	 esp, ebp
  00019	5d		 pop	 ebp
  0001a	c3		 ret	 0
??1bad_array_new_length@std@@UAE@XZ ENDP		; std::bad_array_new_length::~bad_array_new_length
_TEXT	ENDS
; Function compile flags: /Odtp /ZI
; File C:\Program Files (x86)\Microsoft Visual Studio\2019\Community\VC\Tools\MSVC\14.27.29110\include\vcruntime_exception.h
;	COMDAT ??0bad_array_new_length@std@@QAE@XZ
_TEXT	SEGMENT
_this$ = -4						; size = 4
??0bad_array_new_length@std@@QAE@XZ PROC		; std::bad_array_new_length::bad_array_new_length, COMDAT
; _this$ = ecx

; 141  :     {

  00000	55		 push	 ebp
  00001	8b ec		 mov	 ebp, esp
  00003	83 ec 44	 sub	 esp, 68			; 00000044H
  00006	53		 push	 ebx
  00007	56		 push	 esi
  00008	57		 push	 edi
  00009	89 4d fc	 mov	 DWORD PTR _this$[ebp], ecx

; 140  :         : bad_alloc("bad array new length")

  0000c	68 00 00 00 00	 push	 OFFSET ??_C@_0BF@KINCDENJ@bad?5array?5new?5length@
  00011	8b 4d fc	 mov	 ecx, DWORD PTR _this$[ebp]
  00014	e8 00 00 00 00	 call	 ??0bad_alloc@std@@AAE@QBD@Z ; std::bad_alloc::bad_alloc

; 141  :     {

  00019	8b 45 fc	 mov	 eax, DWORD PTR _this$[ebp]
  0001c	c7 00 00 00 00
	00		 mov	 DWORD PTR [eax], OFFSET ??_7bad_array_new_length@std@@6B@

; 142  :     }

  00022	8b 45 fc	 mov	 eax, DWORD PTR _this$[ebp]
  00025	5f		 pop	 edi
  00026	5e		 pop	 esi
  00027	5b		 pop	 ebx
  00028	8b e5		 mov	 esp, ebp
  0002a	5d		 pop	 ebp
  0002b	c3		 ret	 0
??0bad_array_new_length@std@@QAE@XZ ENDP		; std::bad_array_new_length::bad_array_new_length
_TEXT	ENDS
; Function compile flags: /Odtp /ZI
;	COMDAT ??_Gbad_alloc@std@@UAEPAXI@Z
_TEXT	SEGMENT
_this$ = -4						; size = 4
___flags$ = 8						; size = 4
??_Gbad_alloc@std@@UAEPAXI@Z PROC			; std::bad_alloc::`scalar deleting destructor', COMDAT
; _this$ = ecx
  00000	55		 push	 ebp
  00001	8b ec		 mov	 ebp, esp
  00003	83 ec 44	 sub	 esp, 68			; 00000044H
  00006	53		 push	 ebx
  00007	56		 push	 esi
  00008	57		 push	 edi
  00009	89 4d fc	 mov	 DWORD PTR _this$[ebp], ecx
  0000c	8b 4d fc	 mov	 ecx, DWORD PTR _this$[ebp]
  0000f	e8 00 00 00 00	 call	 ??1bad_alloc@std@@UAE@XZ
  00014	8b 45 08	 mov	 eax, DWORD PTR ___flags$[ebp]
  00017	83 e0 01	 and	 eax, 1
  0001a	74 0e		 je	 SHORT $LN2@scalar
  0001c	6a 0c		 push	 12			; 0000000cH
  0001e	8b 45 fc	 mov	 eax, DWORD PTR _this$[ebp]
  00021	50		 push	 eax
  00022	e8 00 00 00 00	 call	 ??3@YAXPAXI@Z		; operator delete
  00027	83 c4 08	 add	 esp, 8
$LN2@scalar:
  0002a	8b 45 fc	 mov	 eax, DWORD PTR _this$[ebp]
  0002d	5f		 pop	 edi
  0002e	5e		 pop	 esi
  0002f	5b		 pop	 ebx
  00030	8b e5		 mov	 esp, ebp
  00032	5d		 pop	 ebp
  00033	c2 04 00	 ret	 4
??_Gbad_alloc@std@@UAEPAXI@Z ENDP			; std::bad_alloc::`scalar deleting destructor'
_TEXT	ENDS
; Function compile flags: /Odtp /ZI
;	COMDAT ??0bad_alloc@std@@QAE@ABV01@@Z
_TEXT	SEGMENT
_this$ = -4						; size = 4
___that$ = 8						; size = 4
??0bad_alloc@std@@QAE@ABV01@@Z PROC			; std::bad_alloc::bad_alloc, COMDAT
; _this$ = ecx
  00000	55		 push	 ebp
  00001	8b ec		 mov	 ebp, esp
  00003	83 ec 44	 sub	 esp, 68			; 00000044H
  00006	53		 push	 ebx
  00007	56		 push	 esi
  00008	57		 push	 edi
  00009	89 4d fc	 mov	 DWORD PTR _this$[ebp], ecx
  0000c	8b 45 08	 mov	 eax, DWORD PTR ___that$[ebp]
  0000f	50		 push	 eax
  00010	8b 4d fc	 mov	 ecx, DWORD PTR _this$[ebp]
  00013	e8 00 00 00 00	 call	 ??0exception@std@@QAE@ABV01@@Z ; std::exception::exception
  00018	8b 45 fc	 mov	 eax, DWORD PTR _this$[ebp]
  0001b	c7 00 00 00 00
	00		 mov	 DWORD PTR [eax], OFFSET ??_7bad_alloc@std@@6B@
  00021	8b 45 fc	 mov	 eax, DWORD PTR _this$[ebp]
  00024	5f		 pop	 edi
  00025	5e		 pop	 esi
  00026	5b		 pop	 ebx
  00027	8b e5		 mov	 esp, ebp
  00029	5d		 pop	 ebp
  0002a	c2 04 00	 ret	 4
??0bad_alloc@std@@QAE@ABV01@@Z ENDP			; std::bad_alloc::bad_alloc
_TEXT	ENDS
; Function compile flags: /Odtp /ZI
;	COMDAT ??1bad_alloc@std@@UAE@XZ
_TEXT	SEGMENT
_this$ = -4						; size = 4
??1bad_alloc@std@@UAE@XZ PROC				; std::bad_alloc::~bad_alloc, COMDAT
; _this$ = ecx
  00000	55		 push	 ebp
  00001	8b ec		 mov	 ebp, esp
  00003	83 ec 44	 sub	 esp, 68			; 00000044H
  00006	53		 push	 ebx
  00007	56		 push	 esi
  00008	57		 push	 edi
  00009	89 4d fc	 mov	 DWORD PTR _this$[ebp], ecx
  0000c	8b 4d fc	 mov	 ecx, DWORD PTR _this$[ebp]
  0000f	e8 00 00 00 00	 call	 ??1exception@std@@UAE@XZ ; std::exception::~exception
  00014	5f		 pop	 edi
  00015	5e		 pop	 esi
  00016	5b		 pop	 ebx
  00017	8b e5		 mov	 esp, ebp
  00019	5d		 pop	 ebp
  0001a	c3		 ret	 0
??1bad_alloc@std@@UAE@XZ ENDP				; std::bad_alloc::~bad_alloc
_TEXT	ENDS
; Function compile flags: /Odtp /ZI
; File C:\Program Files (x86)\Microsoft Visual Studio\2019\Community\VC\Tools\MSVC\14.27.29110\include\vcruntime_exception.h
;	COMDAT ??0bad_alloc@std@@AAE@QBD@Z
_TEXT	SEGMENT
_this$ = -4						; size = 4
__Message$ = 8						; size = 4
??0bad_alloc@std@@AAE@QBD@Z PROC			; std::bad_alloc::bad_alloc, COMDAT
; _this$ = ecx

; 130  :     {

  00000	55		 push	 ebp
  00001	8b ec		 mov	 ebp, esp
  00003	83 ec 44	 sub	 esp, 68			; 00000044H
  00006	53		 push	 ebx
  00007	56		 push	 esi
  00008	57		 push	 edi
  00009	89 4d fc	 mov	 DWORD PTR _this$[ebp], ecx

; 129  :         : exception(_Message, 1)

  0000c	6a 01		 push	 1
  0000e	8b 45 08	 mov	 eax, DWORD PTR __Message$[ebp]
  00011	50		 push	 eax
  00012	8b 4d fc	 mov	 ecx, DWORD PTR _this$[ebp]
  00015	e8 00 00 00 00	 call	 ??0exception@std@@QAE@QBDH@Z ; std::exception::exception

; 130  :     {

  0001a	8b 45 fc	 mov	 eax, DWORD PTR _this$[ebp]
  0001d	c7 00 00 00 00
	00		 mov	 DWORD PTR [eax], OFFSET ??_7bad_alloc@std@@6B@

; 131  :     }

  00023	8b 45 fc	 mov	 eax, DWORD PTR _this$[ebp]
  00026	5f		 pop	 edi
  00027	5e		 pop	 esi
  00028	5b		 pop	 ebx
  00029	8b e5		 mov	 esp, ebp
  0002b	5d		 pop	 ebp
  0002c	c2 04 00	 ret	 4
??0bad_alloc@std@@AAE@QBD@Z ENDP			; std::bad_alloc::bad_alloc
_TEXT	ENDS
; Function compile flags: /Odtp /ZI
;	COMDAT ??_Gexception@std@@UAEPAXI@Z
_TEXT	SEGMENT
_this$ = -4						; size = 4
___flags$ = 8						; size = 4
??_Gexception@std@@UAEPAXI@Z PROC			; std::exception::`scalar deleting destructor', COMDAT
; _this$ = ecx
  00000	55		 push	 ebp
  00001	8b ec		 mov	 ebp, esp
  00003	83 ec 44	 sub	 esp, 68			; 00000044H
  00006	53		 push	 ebx
  00007	56		 push	 esi
  00008	57		 push	 edi
  00009	89 4d fc	 mov	 DWORD PTR _this$[ebp], ecx
  0000c	8b 4d fc	 mov	 ecx, DWORD PTR _this$[ebp]
  0000f	e8 00 00 00 00	 call	 ??1exception@std@@UAE@XZ ; std::exception::~exception
  00014	8b 45 08	 mov	 eax, DWORD PTR ___flags$[ebp]
  00017	83 e0 01	 and	 eax, 1
  0001a	74 0e		 je	 SHORT $LN2@scalar
  0001c	6a 0c		 push	 12			; 0000000cH
  0001e	8b 45 fc	 mov	 eax, DWORD PTR _this$[ebp]
  00021	50		 push	 eax
  00022	e8 00 00 00 00	 call	 ??3@YAXPAXI@Z		; operator delete
  00027	83 c4 08	 add	 esp, 8
$LN2@scalar:
  0002a	8b 45 fc	 mov	 eax, DWORD PTR _this$[ebp]
  0002d	5f		 pop	 edi
  0002e	5e		 pop	 esi
  0002f	5b		 pop	 ebx
  00030	8b e5		 mov	 esp, ebp
  00032	5d		 pop	 ebp
  00033	c2 04 00	 ret	 4
??_Gexception@std@@UAEPAXI@Z ENDP			; std::exception::`scalar deleting destructor'
_TEXT	ENDS
; Function compile flags: /Odtp /ZI
; File C:\Program Files (x86)\Microsoft Visual Studio\2019\Community\VC\Tools\MSVC\14.27.29110\include\vcruntime_exception.h
;	COMDAT ?what@exception@std@@UBEPBDXZ
_TEXT	SEGMENT
tv69 = -72						; size = 4
_this$ = -4						; size = 4
?what@exception@std@@UBEPBDXZ PROC			; std::exception::what, COMDAT
; _this$ = ecx

; 94   :     {

  00000	55		 push	 ebp
  00001	8b ec		 mov	 ebp, esp
  00003	83 ec 48	 sub	 esp, 72			; 00000048H
  00006	53		 push	 ebx
  00007	56		 push	 esi
  00008	57		 push	 edi
  00009	89 4d fc	 mov	 DWORD PTR _this$[ebp], ecx

; 95   :         return _Data._What ? _Data._What : "Unknown exception";

  0000c	8b 45 fc	 mov	 eax, DWORD PTR _this$[ebp]
  0000f	83 78 04 00	 cmp	 DWORD PTR [eax+4], 0
  00013	74 0b		 je	 SHORT $LN3@what
  00015	8b 4d fc	 mov	 ecx, DWORD PTR _this$[ebp]
  00018	8b 51 04	 mov	 edx, DWORD PTR [ecx+4]
  0001b	89 55 b8	 mov	 DWORD PTR tv69[ebp], edx
  0001e	eb 07		 jmp	 SHORT $LN4@what
$LN3@what:
  00020	c7 45 b8 00 00
	00 00		 mov	 DWORD PTR tv69[ebp], OFFSET ??_C@_0BC@EOODALEL@Unknown?5exception@
$LN4@what:
  00027	8b 45 b8	 mov	 eax, DWORD PTR tv69[ebp]

; 96   :     }

  0002a	5f		 pop	 edi
  0002b	5e		 pop	 esi
  0002c	5b		 pop	 ebx
  0002d	8b e5		 mov	 esp, ebp
  0002f	5d		 pop	 ebp
  00030	c3		 ret	 0
?what@exception@std@@UBEPBDXZ ENDP			; std::exception::what
_TEXT	ENDS
; Function compile flags: /Odtp /ZI
; File C:\Program Files (x86)\Microsoft Visual Studio\2019\Community\VC\Tools\MSVC\14.27.29110\include\vcruntime_exception.h
;	COMDAT ??1exception@std@@UAE@XZ
_TEXT	SEGMENT
_this$ = -4						; size = 4
??1exception@std@@UAE@XZ PROC				; std::exception::~exception, COMDAT
; _this$ = ecx

; 89   :     {

  00000	55		 push	 ebp
  00001	8b ec		 mov	 ebp, esp
  00003	83 ec 44	 sub	 esp, 68			; 00000044H
  00006	53		 push	 ebx
  00007	56		 push	 esi
  00008	57		 push	 edi
  00009	89 4d fc	 mov	 DWORD PTR _this$[ebp], ecx
  0000c	8b 45 fc	 mov	 eax, DWORD PTR _this$[ebp]
  0000f	c7 00 00 00 00
	00		 mov	 DWORD PTR [eax], OFFSET ??_7exception@std@@6B@

; 90   :         __std_exception_destroy(&_Data);

  00015	8b 45 fc	 mov	 eax, DWORD PTR _this$[ebp]
  00018	83 c0 04	 add	 eax, 4
  0001b	50		 push	 eax
  0001c	e8 00 00 00 00	 call	 ___std_exception_destroy
  00021	83 c4 04	 add	 esp, 4

; 91   :     }

  00024	5f		 pop	 edi
  00025	5e		 pop	 esi
  00026	5b		 pop	 ebx
  00027	8b e5		 mov	 esp, ebp
  00029	5d		 pop	 ebp
  0002a	c3		 ret	 0
??1exception@std@@UAE@XZ ENDP				; std::exception::~exception
_TEXT	ENDS
; Function compile flags: /Odtp /ZI
; File C:\Program Files (x86)\Microsoft Visual Studio\2019\Community\VC\Tools\MSVC\14.27.29110\include\vcruntime_exception.h
;	COMDAT ??0exception@std@@QAE@ABV01@@Z
_TEXT	SEGMENT
_this$ = -4						; size = 4
__Other$ = 8						; size = 4
??0exception@std@@QAE@ABV01@@Z PROC			; std::exception::exception, COMDAT
; _this$ = ecx

; 72   :     {

  00000	55		 push	 ebp
  00001	8b ec		 mov	 ebp, esp
  00003	83 ec 44	 sub	 esp, 68			; 00000044H
  00006	53		 push	 ebx
  00007	56		 push	 esi
  00008	57		 push	 edi
  00009	89 4d fc	 mov	 DWORD PTR _this$[ebp], ecx
  0000c	8b 45 fc	 mov	 eax, DWORD PTR _this$[ebp]
  0000f	c7 00 00 00 00
	00		 mov	 DWORD PTR [eax], OFFSET ??_7exception@std@@6B@

; 71   :         : _Data()

  00015	33 c0		 xor	 eax, eax
  00017	8b 4d fc	 mov	 ecx, DWORD PTR _this$[ebp]
  0001a	83 c1 04	 add	 ecx, 4
  0001d	89 01		 mov	 DWORD PTR [ecx], eax
  0001f	89 41 04	 mov	 DWORD PTR [ecx+4], eax

; 73   :         __std_exception_copy(&_Other._Data, &_Data);

  00022	8b 45 fc	 mov	 eax, DWORD PTR _this$[ebp]
  00025	83 c0 04	 add	 eax, 4
  00028	50		 push	 eax
  00029	8b 4d 08	 mov	 ecx, DWORD PTR __Other$[ebp]
  0002c	83 c1 04	 add	 ecx, 4
  0002f	51		 push	 ecx
  00030	e8 00 00 00 00	 call	 ___std_exception_copy
  00035	83 c4 08	 add	 esp, 8

; 74   :     }

  00038	8b 45 fc	 mov	 eax, DWORD PTR _this$[ebp]
  0003b	5f		 pop	 edi
  0003c	5e		 pop	 esi
  0003d	5b		 pop	 ebx
  0003e	8b e5		 mov	 esp, ebp
  00040	5d		 pop	 ebp
  00041	c2 04 00	 ret	 4
??0exception@std@@QAE@ABV01@@Z ENDP			; std::exception::exception
_TEXT	ENDS
; Function compile flags: /Odtp /ZI
; File C:\Program Files (x86)\Microsoft Visual Studio\2019\Community\VC\Tools\MSVC\14.27.29110\include\vcruntime_exception.h
;	COMDAT ??0exception@std@@QAE@QBDH@Z
_TEXT	SEGMENT
_this$ = -4						; size = 4
__Message$ = 8						; size = 4
___formal$ = 12						; size = 4
??0exception@std@@QAE@QBDH@Z PROC			; std::exception::exception, COMDAT
; _this$ = ecx

; 66   :     {

  00000	55		 push	 ebp
  00001	8b ec		 mov	 ebp, esp
  00003	83 ec 44	 sub	 esp, 68			; 00000044H
  00006	53		 push	 ebx
  00007	56		 push	 esi
  00008	57		 push	 edi
  00009	89 4d fc	 mov	 DWORD PTR _this$[ebp], ecx
  0000c	8b 45 fc	 mov	 eax, DWORD PTR _this$[ebp]
  0000f	c7 00 00 00 00
	00		 mov	 DWORD PTR [eax], OFFSET ??_7exception@std@@6B@

; 65   :         : _Data()

  00015	33 c0		 xor	 eax, eax
  00017	8b 4d fc	 mov	 ecx, DWORD PTR _this$[ebp]
  0001a	83 c1 04	 add	 ecx, 4
  0001d	89 01		 mov	 DWORD PTR [ecx], eax
  0001f	89 41 04	 mov	 DWORD PTR [ecx+4], eax

; 67   :         _Data._What = _Message;

  00022	8b 45 fc	 mov	 eax, DWORD PTR _this$[ebp]
  00025	8b 4d 08	 mov	 ecx, DWORD PTR __Message$[ebp]
  00028	89 48 04	 mov	 DWORD PTR [eax+4], ecx

; 68   :     }

  0002b	8b 45 fc	 mov	 eax, DWORD PTR _this$[ebp]
  0002e	5f		 pop	 edi
  0002f	5e		 pop	 esi
  00030	5b		 pop	 ebx
  00031	8b e5		 mov	 esp, ebp
  00033	5d		 pop	 ebp
  00034	c2 08 00	 ret	 8
??0exception@std@@QAE@QBDH@Z ENDP			; std::exception::exception
_TEXT	ENDS
; Function compile flags: /Odtp /ZI
; File C:\Program Files (x86)\Microsoft Visual Studio\2019\Community\VC\Tools\MSVC\14.27.29110\include\vcruntime_new.h
;	COMDAT ??2@YAPAXIPAX@Z
_TEXT	SEGMENT
__Size$ = 8						; size = 4
__Where$ = 12						; size = 4
??2@YAPAXIPAX@Z PROC					; operator new, COMDAT

; 167  :     {

  00000	55		 push	 ebp
  00001	8b ec		 mov	 ebp, esp
  00003	83 ec 40	 sub	 esp, 64			; 00000040H
  00006	53		 push	 ebx
  00007	56		 push	 esi
  00008	57		 push	 edi

; 168  :         (void)_Size;
; 169  :         return _Where;

  00009	8b 45 0c	 mov	 eax, DWORD PTR __Where$[ebp]

; 170  :     }

  0000c	5f		 pop	 edi
  0000d	5e		 pop	 esi
  0000e	5b		 pop	 ebx
  0000f	8b e5		 mov	 esp, ebp
  00011	5d		 pop	 ebp
  00012	c3		 ret	 0
??2@YAPAXIPAX@Z ENDP					; operator new
_TEXT	ENDS
; Function compile flags: /Odtp /ZI
; File C:\Mu Online\Mu-GS-Webzen-MC-10093\GameServer\Global.cpp
;	COMDAT ?__empty_global_delete@@YAXPAXI@Z
_TEXT	SEGMENT
___formal$ = 8						; size = 4
___formal$ = 12						; size = 4
?__empty_global_delete@@YAXPAXI@Z PROC			; __empty_global_delete, COMDAT

  00000	55		 push	 ebp
  00001	8b ec		 mov	 ebp, esp
  00003	83 ec 40	 sub	 esp, 64			; 00000040H
  00006	53		 push	 ebx
  00007	56		 push	 esi
  00008	57		 push	 edi
  00009	5f		 pop	 edi
  0000a	5e		 pop	 esi
  0000b	5b		 pop	 ebx
  0000c	8b e5		 mov	 esp, ebp
  0000e	5d		 pop	 ebp
  0000f	c3		 ret	 0
?__empty_global_delete@@YAXPAXI@Z ENDP			; __empty_global_delete
_TEXT	ENDS
; Function compile flags: /Odtp /ZI
; File C:\Mu Online\Mu-GS-Webzen-MC-10093\GameServer\Global.cpp
;	COMDAT ?__empty_global_delete@@YAXPAX@Z
_TEXT	SEGMENT
___formal$ = 8						; size = 4
?__empty_global_delete@@YAXPAX@Z PROC			; __empty_global_delete, COMDAT

  00000	55		 push	 ebp
  00001	8b ec		 mov	 ebp, esp
  00003	83 ec 40	 sub	 esp, 64			; 00000040H
  00006	53		 push	 ebx
  00007	56		 push	 esi
  00008	57		 push	 edi
  00009	5f		 pop	 edi
  0000a	5e		 pop	 esi
  0000b	5b		 pop	 ebx
  0000c	8b e5		 mov	 esp, ebp
  0000e	5d		 pop	 ebp
  0000f	c3		 ret	 0
?__empty_global_delete@@YAXPAX@Z ENDP			; __empty_global_delete
_TEXT	ENDS
END
