; Listing generated by Microsoft (R) Optimizing Compiler Version 19.27.29111.0 

	TITLE	C:\Mu Online\Mu-GS-Webzen-MC-10093\GameServer\gObjMonster.cpp
	.686P
	.XMM
	include listing.inc
	.model	flat

INCLUDELIB LIBCMT
INCLUDELIB OLDNAMES

PUBLIC	?__empty_global_delete@@YAXPAX@Z		; __empty_global_delete
PUBLIC	?__empty_global_delete@@YAXPAXI@Z		; __empty_global_delete
PUBLIC	?gObjMonsterTopHitDamageUser@@YAHPAVOBJECTSTRUCT@@@Z ; gObjMonsterTopHitDamageUser
PUBLIC	?gObjMonsterProcess@@YAXPAVOBJECTSTRUCT@@@Z	; gObjMonsterProcess
PUBLIC	?gObjMonsterStateProc@@YAXPAVOBJECTSTRUCT@@HH@Z	; gObjMonsterStateProc
PUBLIC	?gObjMonsterRegen@@YAHPAVOBJECTSTRUCT@@@Z	; gObjMonsterRegen
PUBLIC	?gObjMonsterSetHitDamage@@YAXPAVOBJECTSTRUCT@@HH@Z ; gObjMonsterSetHitDamage
PUBLIC	?gObjMonsterHitDamageInit@@YAXPAVOBJECTSTRUCT@@@Z ; gObjMonsterHitDamageInit
PUBLIC	?gObjMonsterHitDamageUserDel@@YAHPAVOBJECTSTRUCT@@@Z ; gObjMonsterHitDamageUserDel
PUBLIC	?gObjCallMonsterSetEnemy@@YAHPAVOBJECTSTRUCT@@H@Z ; gObjCallMonsterSetEnemy
PUBLIC	?gObjMonsterSearchEnemy@@YAHPAVOBJECTSTRUCT@@E@Z ; gObjMonsterSearchEnemy
PUBLIC	?gObjMonsterGetTargetPos@@YAHPAVOBJECTSTRUCT@@@Z ; gObjMonsterGetTargetPos
PUBLIC	?gObjMonsterMoveAction@@YAXPAVOBJECTSTRUCT@@@Z	; gObjMonsterMoveAction
PUBLIC	?PathFindMoveMsgSend@@YAHPAVOBJECTSTRUCT@@@Z	; PathFindMoveMsgSend
PUBLIC	?gObjMonsterLastHitDamageUser@@YAHPAVOBJECTSTRUCT@@AAH@Z ; gObjMonsterLastHitDamageUser
PUBLIC	?gObjSkylandBossSheildAttack@@YAXPAVOBJECTSTRUCT@@@Z ; gObjSkylandBossSheildAttack
PUBLIC	?NewOptionRand@@YAEH@Z				; NewOptionRand
PUBLIC	?gObjMonsterDieGiveItem@@YAXPAVOBJECTSTRUCT@@0@Z ; gObjMonsterDieGiveItem
PUBLIC	?gObjMonsterDieRewardItems@@YAXPAVOBJECTSTRUCT@@0HHHHHHH@Z ; gObjMonsterDieRewardItems
PUBLIC	?gObjRefillMonsterHP@@YAXPAVOBJECTSTRUCT@@H@Z	; gObjRefillMonsterHP
PUBLIC	?gObjUseMonsterSpecialAbillity@@YAXPAVOBJECTSTRUCT@@@Z ; gObjUseMonsterSpecialAbillity
PUBLIC	??0CQeustNpcTeleport@@QAE@XZ			; CQeustNpcTeleport::CQeustNpcTeleport
PUBLIC	??1CQeustNpcTeleport@@QAE@XZ			; CQeustNpcTeleport::~CQeustNpcTeleport
PUBLIC	?Run@CQeustNpcTeleport@@QAEXH@Z			; CQeustNpcTeleport::Run
PUBLIC	?gObjMonsterBaseAct@@YAXPAVOBJECTSTRUCT@@@Z	; gObjMonsterBaseAct
PUBLIC	?gObjMonsterTrapAct@@YAXPAVOBJECTSTRUCT@@@Z	; gObjMonsterTrapAct
PUBLIC	?gObjMonsterAttack@@YAXPAVOBJECTSTRUCT@@0@Z	; gObjMonsterAttack
PUBLIC	?gObjMonsterMagicAttack@@YAXPAVOBJECTSTRUCT@@H@Z ; gObjMonsterMagicAttack
PUBLIC	?gObjMonsterBeattackRecv@@YAXPAEH@Z		; gObjMonsterBeattackRecv
PUBLIC	?gEventMonsterItemDrop@@YAHPAVOBJECTSTRUCT@@0@Z	; gEventMonsterItemDrop
PUBLIC	?gObjMonsterMoveRegen@@YAXHHPAVOBJECTSTRUCT@@@Z	; gObjMonsterMoveRegen
PUBLIC	?gObjMonsterViewportIsCharacter@@YAHPAVOBJECTSTRUCT@@@Z ; gObjMonsterViewportIsCharacter
PUBLIC	?gObjMonsterMoveCheck@@YAHPAVOBJECTSTRUCT@@HH@Z	; gObjMonsterMoveCheck
PUBLIC	?gObjGetTargetPos@@YAHPAVOBJECTSTRUCT@@HHAAH1@Z	; gObjGetTargetPos
PUBLIC	?gObjGuardSearchEnemy@@YAHPAVOBJECTSTRUCT@@@Z	; gObjGuardSearchEnemy
PUBLIC	?gObjTrapAttackEnemySearchX@@YAXPAVOBJECTSTRUCT@@H@Z ; gObjTrapAttackEnemySearchX
PUBLIC	?gObjTrapAttackEnemySearchY@@YAXPAVOBJECTSTRUCT@@H@Z ; gObjTrapAttackEnemySearchY
PUBLIC	?gObjTrapAttackEnemySearch@@YAXPAVOBJECTSTRUCT@@@Z ; gObjTrapAttackEnemySearch
PUBLIC	?InventoryDropItem@@YAXPAVOBJECTSTRUCT@@H@Z	; InventoryDropItem
PUBLIC	?IsCanNotItemDtopInDevilSquare@@YAHH@Z		; IsCanNotItemDtopInDevilSquare
PUBLIC	?gQeustNpcTeleport@@3VCQeustNpcTeleport@@A	; gQeustNpcTeleport
PUBLIC	?KUNDUN_EVENT_LOG@@3VCLogToFile@@A		; KUNDUN_EVENT_LOG
PUBLIC	??_C@_0BD@CIMLGFIE@?4?2KUNDUN_EVENT_LOG@	; `string'
PUBLIC	??_C@_0BB@BACGIKG@KUNDUN_EVENT_LOG@		; `string'
PUBLIC	??_C@_0CA@MINPGEPL@error?9L2?5?3?5Hit?5Damage?5Set?5error@ ; `string'
PUBLIC	??_C@_0DI@FKJGCAAF@?$FLBlood?5Castle?$FN?5?$CI?$CFd?$CJ?5All?5of?5the?5@ ; `string'
PUBLIC	??_C@_0DN@OMDKGOEJ@?$FLBlood?5Castle?$FN?5?$CI?$CFd?$CJ?5All?5of?5the?5@ ; `string'
PUBLIC	?__LINE__Var@?0??gObjMonsterBeattackRecv@@YAXPAEH@Z@4JA ; `gObjMonsterBeattackRecv'::`1'::__LINE__Var
PUBLIC	??_C@_0DO@IODFIFIN@C?3?2Mu?5Online?2Mu?9GS?9Webzen?9MC?910@ ; `string'
PUBLIC	??_C@_0P@EEHIDPGB@error?9L3?5?$CFs?5?$CFd@	; `string'
PUBLIC	??_C@_0DJ@LBLCMLBJ@?$FLKUNDUN?$FN?5HP?5Log?5?9?$DO?5?$FL?$CFd?$FN?H?$LI?$LK?$LJ?5?5?$FL?$CF@ ; `string'
PUBLIC	??_C@_0CP@DAHAGAMG@?$FL?$KB?Z?$KB?ZKundun?5EVENT?$FN?5Kundun?5die?0?5@ ; `string'
PUBLIC	??_C@_0EA@HALHLIDI@?$FL?$KB?ZKundun?5EVENT?$FN?5In?5KALIMA?$CI7?$CJ?0?5@ ; `string'
PUBLIC	??_C@_0BP@OPPMOMBL@?$FL?$KB?$NLKundun?5EVENT?$FN?5Drop?5SetItem?5@ ; `string'
PUBLIC	??_C@_0CI@CKKBBPGB@?$FL?$KB?$NLKundun?5EVENT?$FN?5Drop?5Item?5?$FL?$CFd?$FN@ ; `string'
PUBLIC	??_C@_0O@PGINOIGE@NPC?5?$CFd?$LH?N?5?$MA?L?$LF?$LP@ ; `string'
PUBLIC	__real@3f800000
PUBLIC	__real@40000000
PUBLIC	__real@40a00000
PUBLIC	__real@41c80000
PUBLIC	__real@42c80000
PUBLIC	__real@43000000
PUBLIC	__real@437f0000
EXTRN	_atexit:PROC
EXTRN	_memcpy:PROC
EXTRN	_memset:PROC
EXTRN	__imp__InitializeCriticalSection@4:PROC
EXTRN	__imp__DeleteCriticalSection@4:PROC
EXTRN	__imp__GetTickCount@0:PROC
EXTRN	_rand:PROC
EXTRN	_sqrt:PROC
EXTRN	__imp_?Get@CMsg@@QAEPADH@Z:PROC
EXTRN	?IsItem@CItem@@QAEHXZ:PROC			; CItem::IsItem
EXTRN	?ItemGetNumberMake@@YAHHH@Z:PROC		; ItemGetNumberMake
EXTRN	?ItemGetDurability@@YAHHHHH@Z:PROC		; ItemGetDurability
EXTRN	?gObjGetRandomItemDropLocation@@YAHHAAE0HHH@Z:PROC ; gObjGetRandomItemDropLocation
EXTRN	?gObjMemFree@@YAFH@Z:PROC			; gObjMemFree
EXTRN	?gObjDel@@YAFH@Z:PROC				; gObjDel
EXTRN	?gObjViewportClose@@YAXPAVOBJECTSTRUCT@@@Z:PROC	; gObjViewportClose
EXTRN	?gObjIsConnected@@YAHH@Z:PROC			; gObjIsConnected
EXTRN	?gObjViewportListCreate@@YAXF@Z:PROC		; gObjViewportListCreate
EXTRN	?CreateFrustrum@@YAXHHH@Z:PROC			; CreateFrustrum
EXTRN	?gObjAttack@@YAHPAVOBJECTSTRUCT@@0PAVCMagicInf@@HEHH@Z:PROC ; gObjAttack
EXTRN	?gObjMsgProc@@YAXPAVOBJECTSTRUCT@@@Z:PROC	; gObjMsgProc
EXTRN	?gObjBackSpring@@YAHPAVOBJECTSTRUCT@@0@Z:PROC	; gObjBackSpring
EXTRN	?GetPathPacketDirPos@@YAEHH@Z:PROC		; GetPathPacketDirPos
EXTRN	?gObjCalDistance@@YAHPAVOBJECTSTRUCT@@0@Z:PROC	; gObjCalDistance
EXTRN	?gObjTeleportMagicUse@@YAXHEE@Z:PROC		; gObjTeleportMagicUse
EXTRN	?gObjGetMagic@@YAPAVCMagicInf@@PAVOBJECTSTRUCT@@H@Z:PROC ; gObjGetMagic
EXTRN	?gObjCheckTileArea@@YAHHHHH@Z:PROC		; gObjCheckTileArea
EXTRN	?gObjMonsterCallKill@@YAXH@Z:PROC		; gObjMonsterCallKill
EXTRN	?gObjBackSpring2@@YAHPAVOBJECTSTRUCT@@0H@Z:PROC	; gObjBackSpring2
EXTRN	?gObjClearViewport@@YAXPAVOBJECTSTRUCT@@@Z:PROC	; gObjClearViewport
EXTRN	?gObjViewportListProtocolDestroy@@YAXPAVOBJECTSTRUCT@@@Z:PROC ; gObjViewportListProtocolDestroy
EXTRN	?gObjViewportListProtocolCreate@@YAXPAVOBJECTSTRUCT@@@Z:PROC ; gObjViewportListProtocolCreate
EXTRN	?MakeRewardSetItem@@YAXHEEH@Z:PROC		; MakeRewardSetItem
EXTRN	?ChatSend@@YAXPAVOBJECTSTRUCT@@PAD@Z:PROC	; ChatSend
EXTRN	?PMoveProc@@YAXPAUPMSG_MOVE@@H@Z:PROC		; PMoveProc
EXTRN	?MsgSendV2@@YAXPAVOBJECTSTRUCT@@PAEH@Z:PROC	; MsgSendV2
EXTRN	?CGAttack@@YAXPAUPMSG_ATTACK@@H@Z:PROC		; CGAttack
EXTRN	?CGMagicAttack@@YAXPAUPMSG_MAGICATTACK@@H@Z:PROC ; CGMagicAttack
EXTRN	?CGBeattackRecv@@YAXPAEHH@Z:PROC		; CGBeattackRecv
EXTRN	?CGDurationMagicRecv@@YAXPAUPMSG_DURATION_MAGIC_RECV@@H@Z:PROC ; CGDurationMagicRecv
EXTRN	?PHeadSetB@@YAXPAEEH@Z:PROC			; PHeadSetB
EXTRN	?DropItem@cDropSystem@@QAE_NPAVOBJECTSTRUCT@@0@Z:PROC ; cDropSystem::DropItem
EXTRN	?MakeItemNumber@@YAHHH@Z:PROC			; MakeItemNumber
EXTRN	?PHeadSetBE@@YAXPAEEH@Z:PROC			; PHeadSetBE
EXTRN	?CheckWall@MapClass@@QAEHHHHH@Z:PROC		; MapClass::CheckWall
EXTRN	?CheckWall2@MapClass@@QAEEHHHH@Z:PROC		; MapClass::CheckWall2
EXTRN	?MonsterItemDrop@MapClass@@QAEHHHMHHEEEEEHK@Z:PROC ; MapClass::MonsterItemDrop
EXTRN	?MoneyItemDrop@MapClass@@QAEHHHH@Z:PROC		; MapClass::MoneyItemDrop
EXTRN	?PathFinding2@MapClass@@QAE_NHHHHPAUPATH_t@@@Z:PROC ; MapClass::PathFinding2
EXTRN	?PathFinding3@MapClass@@QAE_NHHHHPAUPATH_t@@@Z:PROC ; MapClass::PathFinding3
EXTRN	?SetStandAttr@MapClass@@QAEXHH@Z:PROC		; MapClass::SetStandAttr
EXTRN	?ClearStandAttr@MapClass@@QAEXHH@Z:PROC		; MapClass::ClearStandAttr
EXTRN	?GetStandAttr@MapClass@@QAEHHH@Z:PROC		; MapClass::GetStandAttr
EXTRN	?GetAttr@MapClass@@QAEEHH@Z:PROC		; MapClass::GetAttr
EXTRN	?GetPosition@CMonsterSetBase@@QAEHHFAAF0@Z:PROC	; CMonsterSetBase::GetPosition
EXTRN	?GetBoxPosition@CMonsterSetBase@@QAEHHHHHHAAF0@Z:PROC ; CMonsterSetBase::GetBoxPosition
EXTRN	?ItemSerialCreateSend@@YAXHEEEHEEEEEHEEH@Z:PROC	; ItemSerialCreateSend
EXTRN	?AttackEvent55BagOpen@@YAHPAVOBJECTSTRUCT@@@Z:PROC ; AttackEvent55BagOpen
EXTRN	?KundunEventItemBoxOpen@@YAXPAVOBJECTSTRUCT@@EEE@Z:PROC ; KundunEventItemBoxOpen
EXTRN	?GetAttr@CMonsterAttr@@QAEPAUMONSTER_ATTRIBUTE@@H@Z:PROC ; CMonsterAttr::GetAttr
EXTRN	?GetPartyCount@PartyClass@@QAEHH@Z:PROC		; PartyClass::GetPartyCount
EXTRN	?GetItem@CMonsterItemMng@@QAEPAVCItem@@H@Z:PROC	; CMonsterItemMng::GetItem
EXTRN	?MonsterItemDrop@CQuestInfo@@QAEHPAVOBJECTSTRUCT@@@Z:PROC ; CQuestInfo::MonsterItemDrop
EXTRN	?SendBridgeAnyMsg@CBloodCastle@@QAEXPAEHH@Z:PROC ; CBloodCastle::SendBridgeAnyMsg
EXTRN	?SendNoticeMessage@CBloodCastle@@QAEXHPAD@Z:PROC ; CBloodCastle::SendNoticeMessage
EXTRN	?ReleaseCastleBridge@CBloodCastle@@QAEXH@Z:PROC	; CBloodCastle::ReleaseCastleBridge
EXTRN	?CheckMonsterKillCount@CBloodCastle@@QAE_NH@Z:PROC ; CBloodCastle::CheckMonsterKillCount
EXTRN	?CheckBossKillCount@CBloodCastle@@QAE_NH@Z:PROC	; CBloodCastle::CheckBossKillCount
EXTRN	?GetCurrentLiveUserCount@CBloodCastle@@QAEHH@Z:PROC ; CBloodCastle::GetCurrentLiveUserCount
EXTRN	?SetSaintStatue@CBloodCastle@@QAEXH@Z:PROC	; CBloodCastle::SetSaintStatue
EXTRN	?SearchNDropMonsterItem@CChaosCastle@@QAEXHHH@Z:PROC ; CChaosCastle::SearchNDropMonsterItem
EXTRN	?CheckRegisterOfflineGift@CChaosCastle@@QAEXH@Z:PROC ; CChaosCastle::CheckRegisterOfflineGift
EXTRN	?DropEventItem@CItemBagEx@@QAEHH@Z:PROC		; CItemBagEx::DropEventItem
EXTRN	?Output@CLogToFile@@QAAXPADZZ:PROC		; CLogToFile::Output
EXTRN	??0CLogToFile@@QAE@QAD0H@Z:PROC			; CLogToFile::CLogToFile
EXTRN	??1CLogToFile@@QAE@XZ:PROC			; CLogToFile::~CLogToFile
EXTRN	?KalimaGateAct@CKalimaGate@@QAEXH@Z:PROC	; CKalimaGate::KalimaGateAct
EXTRN	?gCheckGoal@@YAHHHAAH@Z:PROC			; gCheckGoal
EXTRN	?gBattleSoccerScoreUpdate@@YAHHH@Z:PROC		; gBattleSoccerScoreUpdate
EXTRN	@__security_check_cookie@4:PROC
EXTRN	__except_handler4:PROC
EXTRN	__ftol2_sse:PROC
EXTRN	_memset:PROC
EXTRN	?LogAdd@@3P6AXPADZZA:DWORD			; LogAdd
EXTRN	?LogAddTD@@3P6AXPADZZA:DWORD			; LogAddTD
EXTRN	?gObj@@3PAVOBJECTSTRUCT@@A:DWORD		; gObj
EXTRN	?RoadPathTable@@3PAFA:BYTE			; RoadPathTable
EXTRN	?g_GlobalConfig@@3VCGlobalConfig@@A:BYTE	; g_GlobalConfig
EXTRN	?cexDrop@@3VcDropSystem@@A:BYTE			; cexDrop
EXTRN	?lMsg@@3VCMsg@@A:BYTE				; lMsg
EXTRN	?gEvent1@@3HA:DWORD				; gEvent1
EXTRN	?gEvent1ItemDropTodayCount@@3HA:DWORD		; gEvent1ItemDropTodayCount
EXTRN	?gEvent1ItemDropTodayMax@@3HA:DWORD		; gEvent1ItemDropTodayMax
EXTRN	?gEvent1ItemDropTodayPercent@@3HA:DWORD		; gEvent1ItemDropTodayPercent
EXTRN	?MapC@@3PAVMapClass@@A:DWORD			; MapC
EXTRN	?gItemDropPer@@3HA:DWORD			; gItemDropPer
EXTRN	?gLanguage@@3HA:DWORD				; gLanguage
EXTRN	?gAddZen@@3MA:DWORD				; gAddZen
EXTRN	?gXMasEvent@@3HA:DWORD				; gXMasEvent
EXTRN	?gFireCrackerEvent@@3HA:DWORD			; gFireCrackerEvent
EXTRN	?gFireCrackerDropRate@@3HA:DWORD		; gFireCrackerDropRate
EXTRN	?gHeartOfLoveEvent@@3HA:DWORD			; gHeartOfLoveEvent
EXTRN	?gHeartOfLoveDropRate@@3HA:DWORD		; gHeartOfLoveDropRate
EXTRN	?gMedalEvent@@3HA:DWORD				; gMedalEvent
EXTRN	?gGoldMedalDropRate@@3HA:DWORD			; gGoldMedalDropRate
EXTRN	?gSilverMedalDropRate@@3HA:DWORD		; gSilverMedalDropRate
EXTRN	?gEventChipEvent@@3HA:DWORD			; gEventChipEvent
EXTRN	?gBoxOfGoldDropRate@@3HA:DWORD			; gBoxOfGoldDropRate
EXTRN	?g_bBloodCastle@@3HA:DWORD			; g_bBloodCastle
EXTRN	?g_iAngelKingsPaperDropRate@@3HA:DWORD		; g_iAngelKingsPaperDropRate
EXTRN	?g_iBloodBoneDropRate@@3HA:DWORD		; g_iBloodBoneDropRate
EXTRN	?g_iKundunMarkDropRate@@3HA:DWORD		; g_iKundunMarkDropRate
EXTRN	?g_iDarkLordHeartDropRate@@3HA:DWORD		; g_iDarkLordHeartDropRate
EXTRN	?gQuestNPCTeleportTime@@3HA:DWORD		; gQuestNPCTeleportTime
EXTRN	?gIsItemDropRingOfTransform@@3HA:DWORD		; gIsItemDropRingOfTransform
EXTRN	?gItemDropRingOfTransform@@3HA:DWORD		; gItemDropRingOfTransform
EXTRN	?giKundunRefillHP@@3HA:DWORD			; giKundunRefillHP
EXTRN	?giKundunRefillHPTime@@3HA:DWORD		; giKundunRefillHPTime
EXTRN	?gIsDropDarkLordItem@@3HA:DWORD			; gIsDropDarkLordItem
EXTRN	?gSleeveOfLordDropRate@@3HA:DWORD		; gSleeveOfLordDropRate
EXTRN	?gSleeveOfLordDropLevel@@3HA:DWORD		; gSleeveOfLordDropLevel
EXTRN	?gSoulOfDarkHorseDropRate@@3HA:DWORD		; gSoulOfDarkHorseDropRate
EXTRN	?gSoulOfDarkHorseropLevel@@3HA:DWORD		; gSoulOfDarkHorseropLevel
EXTRN	?gSoulOfDarkSpiritDropRate@@3HA:DWORD		; gSoulOfDarkSpiritDropRate
EXTRN	?gSoulOfDarkSpiritDropLevel@@3HA:DWORD		; gSoulOfDarkSpiritDropLevel
EXTRN	?g_MonsterItemMng@@3VCMonsterItemMng@@A:BYTE	; g_MonsterItemMng
EXTRN	?g_QuestInfo@@3VCQuestInfo@@A:BYTE		; g_QuestInfo
EXTRN	?g_BloodCastle@@3VCBloodCastle@@A:BYTE		; g_BloodCastle
EXTRN	?g_ChaosCastle@@3VCChaosCastle@@A:BYTE		; g_ChaosCastle
EXTRN	?gMSetBase@@3VCMonsterSetBase@@A:BYTE		; gMSetBase
EXTRN	?gMAttr@@3VCMonsterAttr@@A:BYTE			; gMAttr
EXTRN	?gParty@@3VPartyClass@@A:BYTE			; gParty
EXTRN	?g_KalimaGate@@3VCKalimaGate@@A:BYTE		; g_KalimaGate
EXTRN	?StarOfXMasItemBag@@3PAVCItemBagEx@@A:DWORD	; StarOfXMasItemBag
EXTRN	___security_cookie:DWORD
EXTRN	__fltused:DWORD
_BSS	SEGMENT
?gQeustNpcTeleport@@3VCQeustNpcTeleport@@A DB 064H DUP (?) ; gQeustNpcTeleport
?g_iChaosCastle_MonsterItems@@3PAY111HA DD 018H DUP (?)	; g_iChaosCastle_MonsterItems
?KUNDUN_EVENT_LOG@@3VCLogToFile@@A DB 010228H DUP (?)	; KUNDUN_EVENT_LOG
_BSS	ENDS
CRT$XCU	SEGMENT
?g_iChaosCastle_MonsterItems$initializer$@@3P6AXXZA DD FLAT:??__Eg_iChaosCastle_MonsterItems@@YAXXZ ; g_iChaosCastle_MonsterItems$initializer$
CRT$XCU	ENDS
;	COMDAT __real@437f0000
CONST	SEGMENT
__real@437f0000 DD 0437f0000r			; 255
CONST	ENDS
;	COMDAT __real@43000000
CONST	SEGMENT
__real@43000000 DD 043000000r			; 128
CONST	ENDS
;	COMDAT __real@42c80000
CONST	SEGMENT
__real@42c80000 DD 042c80000r			; 100
CONST	ENDS
;	COMDAT __real@41c80000
CONST	SEGMENT
__real@41c80000 DD 041c80000r			; 25
CONST	ENDS
;	COMDAT __real@40a00000
CONST	SEGMENT
__real@40a00000 DD 040a00000r			; 5
CONST	ENDS
;	COMDAT __real@40000000
CONST	SEGMENT
__real@40000000 DD 040000000r			; 2
CONST	ENDS
;	COMDAT __real@3f800000
CONST	SEGMENT
__real@3f800000 DD 03f800000r			; 1
CONST	ENDS
;	COMDAT ??_C@_0O@PGINOIGE@NPC?5?$CFd?$LH?N?5?$MA?L?$LF?$LP@
CONST	SEGMENT
??_C@_0O@PGINOIGE@NPC?5?$CFd?$LH?N?5?$MA?L?$LF?$LP@ DB 'NPC %d', 0b7H, 0ceH
	DB	' ', 0c0H, 0ccH, 0b5H, 0bfH, 00H		; `string'
CONST	ENDS
;	COMDAT ??_C@_0CI@CKKBBPGB@?$FL?$KB?$NLKundun?5EVENT?$FN?5Drop?5Item?5?$FL?$CFd?$FN@
CONST	SEGMENT
??_C@_0CI@CKKBBPGB@?$FL?$KB?$NLKundun?5EVENT?$FN?5Drop?5Item?5?$FL?$CFd?$FN@ DB '['
	DB	0a1H, 0dbH, 'Kundun EVENT] Drop Item [%d][%s][%s]', 00H ; `string'
CONST	ENDS
;	COMDAT ??_C@_0BP@OPPMOMBL@?$FL?$KB?$NLKundun?5EVENT?$FN?5Drop?5SetItem?5@
CONST	SEGMENT
??_C@_0BP@OPPMOMBL@?$FL?$KB?$NLKundun?5EVENT?$FN?5Drop?5SetItem?5@ DB '[', 0a1H
	DB	0dbH, 'Kundun EVENT] Drop SetItem ', 00H	; `string'
CONST	ENDS
;	COMDAT ??_C@_0EA@HALHLIDI@?$FL?$KB?ZKundun?5EVENT?$FN?5In?5KALIMA?$CI7?$CJ?0?5@
CONST	SEGMENT
??_C@_0EA@HALHLIDI@?$FL?$KB?ZKundun?5EVENT?$FN?5In?5KALIMA?$CI7?$CJ?0?5@ DB '['
	DB	0a1H, 0daH, 'Kundun EVENT] In KALIMA(7), ItemDrop MaxHitUser ['
	DB	'%d][%s][%s]', 00H				; `string'
CONST	ENDS
;	COMDAT ??_C@_0CP@DAHAGAMG@?$FL?$KB?Z?$KB?ZKundun?5EVENT?$FN?5Kundun?5die?0?5@
CONST	SEGMENT
??_C@_0CP@DAHAGAMG@?$FL?$KB?Z?$KB?ZKundun?5EVENT?$FN?5Kundun?5die?0?5@ DB '['
	DB	0a1H, 0daH, 0a1H, 0daH, 'Kundun EVENT] Kundun die, Killer [%s]'
	DB	'[%s]', 00H					; `string'
CONST	ENDS
;	COMDAT ??_C@_0DJ@LBLCMLBJ@?$FLKUNDUN?$FN?5HP?5Log?5?9?$DO?5?$FL?$CFd?$FN?H?$LI?$LK?$LJ?5?5?$FL?$CF@
CONST	SEGMENT
??_C@_0DJ@LBLCMLBJ@?$FLKUNDUN?$FN?5HP?5Log?5?9?$DO?5?$FL?$CFd?$FN?H?$LI?$LK?$LJ?5?5?$FL?$CF@ DB '['
	DB	'KUNDUN] HP Log -> [%d]', 0c8H, 0b8H, 0baH, 0b9H, '  [%d]', 0c8H
	DB	0b8H, 0baH, 0b9H, 0bdH, 0c3H, 0b0H, 0a3H, '  [%7.0f]', 0c7H, 0f6H
	DB	0c0H, 0e7H, 'HP', 00H			; `string'
CONST	ENDS
;	COMDAT ??_C@_0P@EEHIDPGB@error?9L3?5?$CFs?5?$CFd@
CONST	SEGMENT
??_C@_0P@EEHIDPGB@error?9L3?5?$CFs?5?$CFd@ DB 'error-L3 %s %d', 00H ; `string'
CONST	ENDS
;	COMDAT ??_C@_0DO@IODFIFIN@C?3?2Mu?5Online?2Mu?9GS?9Webzen?9MC?910@
CONST	SEGMENT
??_C@_0DO@IODFIFIN@C?3?2Mu?5Online?2Mu?9GS?9Webzen?9MC?910@ DB 'C:\Mu Onl'
	DB	'ine\Mu-GS-Webzen-MC-10093\GameServer\gObjMonster.cpp', 00H ; `string'
CONST	ENDS
;	COMDAT ?__LINE__Var@?0??gObjMonsterBeattackRecv@@YAXPAEH@Z@4JA
_DATA	SEGMENT
?__LINE__Var@?0??gObjMonsterBeattackRecv@@YAXPAEH@Z@4JA DD 07e0H ; `gObjMonsterBeattackRecv'::`1'::__LINE__Var
_DATA	ENDS
;	COMDAT ??_C@_0DN@OMDKGOEJ@?$FLBlood?5Castle?$FN?5?$CI?$CFd?$CJ?5All?5of?5the?5@
CONST	SEGMENT
??_C@_0DN@OMDKGOEJ@?$FLBlood?5Castle?$FN?5?$CI?$CFd?$CJ?5All?5of?5the?5@ DB '['
	DB	'Blood Castle] (%d) All of the Boss Monster Terminated -> %d', 00H ; `string'
CONST	ENDS
;	COMDAT ??_C@_0DI@FKJGCAAF@?$FLBlood?5Castle?$FN?5?$CI?$CFd?$CJ?5All?5of?5the?5@
CONST	SEGMENT
??_C@_0DI@FKJGCAAF@?$FLBlood?5Castle?$FN?5?$CI?$CFd?$CJ?5All?5of?5the?5@ DB '['
	DB	'Blood Castle] (%d) All of the Monster Terminated -> %d', 00H ; `string'
CONST	ENDS
;	COMDAT ??_C@_0CA@MINPGEPL@error?9L2?5?3?5Hit?5Damage?5Set?5error@
CONST	SEGMENT
??_C@_0CA@MINPGEPL@error?9L2?5?3?5Hit?5Damage?5Set?5error@ DB 'error-L2 :'
	DB	' Hit Damage Set error', 00H			; `string'
CONST	ENDS
;	COMDAT ??_C@_0BB@BACGIKG@KUNDUN_EVENT_LOG@
CONST	SEGMENT
??_C@_0BB@BACGIKG@KUNDUN_EVENT_LOG@ DB 'KUNDUN_EVENT_LOG', 00H ; `string'
CONST	ENDS
;	COMDAT ??_C@_0BD@CIMLGFIE@?4?2KUNDUN_EVENT_LOG@
CONST	SEGMENT
??_C@_0BD@CIMLGFIE@?4?2KUNDUN_EVENT_LOG@ DB '.\KUNDUN_EVENT_LOG', 00H ; `string'
CONST	ENDS
;	COMDAT xdata$x
xdata$x	SEGMENT
__sehtable$?gObjMonsterMoveAction@@YAXPAVOBJECTSTRUCT@@@Z DD 0fffffffeH
	DD	00H
	DD	0ffffff80H
	DD	00H
	DD	0fffffffeH
	DD	FLAT:$LN18@gObjMonste
	DD	FLAT:$LN14@gObjMonste
xdata$x	ENDS
CRT$XCU	SEGMENT
?KUNDUN_EVENT_LOG$initializer$@@3P6AXXZA DD FLAT:??__EKUNDUN_EVENT_LOG@@YAXXZ ; KUNDUN_EVENT_LOG$initializer$
CRT$XCU	ENDS
CRT$XCU	SEGMENT
?gQeustNpcTeleport$initializer$@@3P6AXXZA DD FLAT:??__EgQeustNpcTeleport@@YAXXZ ; gQeustNpcTeleport$initializer$
CRT$XCU	ENDS
; Function compile flags: /Odtp /ZI
; File C:\Mu Online\Mu-GS-Webzen-MC-10093\GameServer\gObjMonster.cpp
;	COMDAT ?IsCanNotItemDtopInDevilSquare@@YAHH@Z
_TEXT	SEGMENT
_checkitemindex$ = -8					; size = 4
_checkitemtype$ = -4					; size = 4
_ItemType$ = 8						; size = 4
?IsCanNotItemDtopInDevilSquare@@YAHH@Z PROC		; IsCanNotItemDtopInDevilSquare, COMDAT

; 3205 : {

  00000	55		 push	 ebp
  00001	8b ec		 mov	 ebp, esp
  00003	83 ec 48	 sub	 esp, 72			; 00000048H
  00006	53		 push	 ebx
  00007	56		 push	 esi
  00008	57		 push	 edi

; 3206 : 	int checkitemtype = ItemType/MAX_ITEM_INDEX;

  00009	8b 45 08	 mov	 eax, DWORD PTR _ItemType$[ebp]
  0000c	99		 cdq
  0000d	83 e2 1f	 and	 edx, 31			; 0000001fH
  00010	03 c2		 add	 eax, edx
  00012	c1 f8 05	 sar	 eax, 5
  00015	89 45 fc	 mov	 DWORD PTR _checkitemtype$[ebp], eax

; 3207 : 	int	checkitemindex = ItemType%MAX_ITEM_INDEX;

  00018	8b 45 08	 mov	 eax, DWORD PTR _ItemType$[ebp]
  0001b	25 1f 00 00 80	 and	 eax, -2147483617	; 8000001fH
  00020	79 05		 jns	 SHORT $LN17@IsCanNotIt
  00022	48		 dec	 eax
  00023	83 c8 e0	 or	 eax, -32		; ffffffe0H
  00026	40		 inc	 eax
$LN17@IsCanNotIt:
  00027	89 45 f8	 mov	 DWORD PTR _checkitemindex$[ebp], eax

; 3208 : 
; 3209 : 	if( checkitemtype >= 7 && checkitemtype <= 11 )

  0002a	83 7d fc 07	 cmp	 DWORD PTR _checkitemtype$[ebp], 7
  0002e	7c 1e		 jl	 SHORT $LN2@IsCanNotIt
  00030	83 7d fc 0b	 cmp	 DWORD PTR _checkitemtype$[ebp], 11 ; 0000000bH
  00034	7f 18		 jg	 SHORT $LN2@IsCanNotIt

; 3210 : 	{	// 다크피닉스, 그랜드소울, 홀리스프잇 세트
; 3211 : 		if( checkitemindex == 17 || checkitemindex == 18 || checkitemindex == 19 )

  00036	83 7d f8 11	 cmp	 DWORD PTR _checkitemindex$[ebp], 17 ; 00000011H
  0003a	74 0c		 je	 SHORT $LN5@IsCanNotIt
  0003c	83 7d f8 12	 cmp	 DWORD PTR _checkitemindex$[ebp], 18 ; 00000012H
  00040	74 06		 je	 SHORT $LN5@IsCanNotIt
  00042	83 7d f8 13	 cmp	 DWORD PTR _checkitemindex$[ebp], 19 ; 00000013H
  00046	75 04		 jne	 SHORT $LN4@IsCanNotIt
$LN5@IsCanNotIt:

; 3212 : 		{
; 3213 : 			return FALSE;

  00048	33 c0		 xor	 eax, eax
  0004a	eb 7b		 jmp	 SHORT $LN1@IsCanNotIt
$LN4@IsCanNotIt:

; 3214 : 		}
; 3215 : 	}

  0004c	eb 74		 jmp	 SHORT $LN3@IsCanNotIt
$LN2@IsCanNotIt:

; 3216 : 	else if( checkitemtype == 0  )

  0004e	83 7d fc 00	 cmp	 DWORD PTR _checkitemtype$[ebp], 0
  00052	75 12		 jne	 SHORT $LN6@IsCanNotIt

; 3217 : 	{	// 다크브레이커, 선더블레이드
; 3218 : 		if( checkitemindex == 17 || checkitemindex == 18 )

  00054	83 7d f8 11	 cmp	 DWORD PTR _checkitemindex$[ebp], 17 ; 00000011H
  00058	74 06		 je	 SHORT $LN9@IsCanNotIt
  0005a	83 7d f8 12	 cmp	 DWORD PTR _checkitemindex$[ebp], 18 ; 00000012H
  0005e	75 04		 jne	 SHORT $LN8@IsCanNotIt
$LN9@IsCanNotIt:

; 3219 : 		{
; 3220 : 			return FALSE;

  00060	33 c0		 xor	 eax, eax
  00062	eb 63		 jmp	 SHORT $LN1@IsCanNotIt
$LN8@IsCanNotIt:

; 3221 : 		}
; 3222 : 	}

  00064	eb 5c		 jmp	 SHORT $LN3@IsCanNotIt
$LN6@IsCanNotIt:

; 3223 : 	else if( checkitemtype == 12  )

  00066	83 7d fc 0c	 cmp	 DWORD PTR _checkitemtype$[ebp], 12 ; 0000000cH
  0006a	75 30		 jne	 SHORT $LN10@IsCanNotIt

; 3224 : 	{	// 분노의일격,창찌르기, 스웰라이프, 블러드어택, 관통, 아이스애로우, 일렉스트라이크 구슬
; 3225 : 		if( checkitemindex == 12 || checkitemindex == 13 || checkitemindex == 14 || 
; 3226 : 			checkitemindex == 16 || checkitemindex == 17 || checkitemindex == 18 || 

  0006c	83 7d f8 0c	 cmp	 DWORD PTR _checkitemindex$[ebp], 12 ; 0000000cH
  00070	74 24		 je	 SHORT $LN13@IsCanNotIt
  00072	83 7d f8 0d	 cmp	 DWORD PTR _checkitemindex$[ebp], 13 ; 0000000dH
  00076	74 1e		 je	 SHORT $LN13@IsCanNotIt
  00078	83 7d f8 0e	 cmp	 DWORD PTR _checkitemindex$[ebp], 14 ; 0000000eH
  0007c	74 18		 je	 SHORT $LN13@IsCanNotIt
  0007e	83 7d f8 10	 cmp	 DWORD PTR _checkitemindex$[ebp], 16 ; 00000010H
  00082	74 12		 je	 SHORT $LN13@IsCanNotIt
  00084	83 7d f8 11	 cmp	 DWORD PTR _checkitemindex$[ebp], 17 ; 00000011H
  00088	74 0c		 je	 SHORT $LN13@IsCanNotIt
  0008a	83 7d f8 12	 cmp	 DWORD PTR _checkitemindex$[ebp], 18 ; 00000012H
  0008e	74 06		 je	 SHORT $LN13@IsCanNotIt
  00090	83 7d f8 13	 cmp	 DWORD PTR _checkitemindex$[ebp], 19 ; 00000013H
  00094	75 04		 jne	 SHORT $LN12@IsCanNotIt
$LN13@IsCanNotIt:

; 3227 : 			checkitemindex == 19 )
; 3228 : 		{
; 3229 : 			return FALSE;

  00096	33 c0		 xor	 eax, eax
  00098	eb 2d		 jmp	 SHORT $LN1@IsCanNotIt
$LN12@IsCanNotIt:

; 3230 : 		}
; 3231 : 	}	

  0009a	eb 26		 jmp	 SHORT $LN3@IsCanNotIt
$LN10@IsCanNotIt:

; 3232 : 	else if( (ItemType == MAKE_ITEMNUM(4,17)) || (ItemType == MAKE_ITEMNUM(5,9)) )

  0009c	6a 11		 push	 17			; 00000011H
  0009e	6a 04		 push	 4
  000a0	e8 00 00 00 00	 call	 ?MakeItemNumber@@YAHHH@Z ; MakeItemNumber
  000a5	83 c4 08	 add	 esp, 8
  000a8	39 45 08	 cmp	 DWORD PTR _ItemType$[ebp], eax
  000ab	74 11		 je	 SHORT $LN15@IsCanNotIt
  000ad	6a 09		 push	 9
  000af	6a 05		 push	 5
  000b1	e8 00 00 00 00	 call	 ?MakeItemNumber@@YAHHH@Z ; MakeItemNumber
  000b6	83 c4 08	 add	 esp, 8
  000b9	39 45 08	 cmp	 DWORD PTR _ItemType$[ebp], eax
  000bc	75 04		 jne	 SHORT $LN3@IsCanNotIt
$LN15@IsCanNotIt:

; 3233 : 	{	// 홀리스프릿보우, 드래곤소울지팡이
; 3234 : 		return FALSE;

  000be	33 c0		 xor	 eax, eax
  000c0	eb 05		 jmp	 SHORT $LN1@IsCanNotIt
$LN3@IsCanNotIt:

; 3235 : 	}
; 3236 : 	return TRUE;

  000c2	b8 01 00 00 00	 mov	 eax, 1
$LN1@IsCanNotIt:

; 3237 : }

  000c7	5f		 pop	 edi
  000c8	5e		 pop	 esi
  000c9	5b		 pop	 ebx
  000ca	8b e5		 mov	 esp, ebp
  000cc	5d		 pop	 ebp
  000cd	c3		 ret	 0
?IsCanNotItemDtopInDevilSquare@@YAHH@Z ENDP		; IsCanNotItemDtopInDevilSquare
_TEXT	ENDS
; Function compile flags: /Odtp /ZI
; File C:\Mu Online\Mu-GS-Webzen-MC-10093\GameServer\gObjMonster.cpp
;	COMDAT ?InventoryDropItem@@YAXPAVOBJECTSTRUCT@@H@Z
_TEXT	SEGMENT
_lpObj$ = 8						; size = 4
_DropItem$ = 12						; size = 4
?InventoryDropItem@@YAXPAVOBJECTSTRUCT@@H@Z PROC	; InventoryDropItem, COMDAT

; 3146 : {

  00000	55		 push	 ebp
  00001	8b ec		 mov	 ebp, esp
  00003	83 ec 40	 sub	 esp, 64			; 00000040H
  00006	53		 push	 ebx
  00007	56		 push	 esi
  00008	57		 push	 edi

; 3147 : 
; 3148 : }

  00009	5f		 pop	 edi
  0000a	5e		 pop	 esi
  0000b	5b		 pop	 ebx
  0000c	8b e5		 mov	 esp, ebp
  0000e	5d		 pop	 ebp
  0000f	c3		 ret	 0
?InventoryDropItem@@YAXPAVOBJECTSTRUCT@@H@Z ENDP	; InventoryDropItem
_TEXT	ENDS
; Function compile flags: /Odtp /ZI
; File C:\Mu Online\Mu-GS-Webzen-MC-10093\GameServer\gObjMonster.cpp
;	COMDAT ?gObjTrapAttackEnemySearch@@YAXPAVOBJECTSTRUCT@@@Z
_TEXT	SEGMENT
_i$1 = -8						; size = 4
_tObjNum$ = -4						; size = 4
_lpObj$ = 8						; size = 4
?gObjTrapAttackEnemySearch@@YAXPAVOBJECTSTRUCT@@@Z PROC	; gObjTrapAttackEnemySearch, COMDAT

; 3026 : {

  00000	55		 push	 ebp
  00001	8b ec		 mov	 ebp, esp
  00003	83 ec 48	 sub	 esp, 72			; 00000048H
  00006	53		 push	 ebx
  00007	56		 push	 esi
  00008	57		 push	 edi

; 3027 : 	int  tObjNum;
; 3028 : 	lpObj->TargetNumber = -1;

  00009	83 c8 ff	 or	 eax, -1
  0000c	8b 4d 08	 mov	 ecx, DWORD PTR _lpObj$[ebp]
  0000f	66 89 81 ac 02
	00 00		 mov	 WORD PTR [ecx+684], ax

; 3029 : 	for( int i=0; i<MAX_MONVIEWPORTOBJECT; i++)

  00016	c7 45 f8 00 00
	00 00		 mov	 DWORD PTR _i$1[ebp], 0
  0001d	eb 09		 jmp	 SHORT $LN4@gObjTrapAt
$LN2@gObjTrapAt:
  0001f	8b 45 f8	 mov	 eax, DWORD PTR _i$1[ebp]
  00022	83 c0 01	 add	 eax, 1
  00025	89 45 f8	 mov	 DWORD PTR _i$1[ebp], eax
$LN4@gObjTrapAt:
  00028	83 7d f8 14	 cmp	 DWORD PTR _i$1[ebp], 20	; 00000014H
  0002c	0f 8d bf 00 00
	00		 jge	 $LN1@gObjTrapAt

; 3030 : 	{
; 3031 : 		tObjNum = lpObj->VpPlayer2[i].number;

  00032	6b 45 f8 0c	 imul	 eax, DWORD PTR _i$1[ebp], 12
  00036	8b 4d 08	 mov	 ecx, DWORD PTR _lpObj$[ebp]
  00039	0f bf 94 01 ea
	06 00 00	 movsx	 edx, WORD PTR [ecx+eax+1770]
  00041	89 55 fc	 mov	 DWORD PTR _tObjNum$[ebp], edx

; 3032 : 		if( tObjNum >= 0 )

  00044	83 7d fc 00	 cmp	 DWORD PTR _tObjNum$[ebp], 0
  00048	0f 8c 9e 00 00
	00		 jl	 $LN5@gObjTrapAt

; 3033 : 		{
; 3034 : 			if( gObj[tObjNum].Type == OBJTYPE_CHARACTER && gObj[tObjNum].Live )

  0004e	69 45 fc a0 1b
	00 00		 imul	 eax, DWORD PTR _tObjNum$[ebp], 7072
  00055	8b 0d 00 00 00
	00		 mov	 ecx, DWORD PTR ?gObj@@3PAVOBJECTSTRUCT@@A ; gObj
  0005b	0f b7 54 01 64	 movzx	 edx, WORD PTR [ecx+eax+100]
  00060	83 fa 01	 cmp	 edx, 1
  00063	0f 85 83 00 00
	00		 jne	 $LN5@gObjTrapAt
  00069	69 45 fc a0 1b
	00 00		 imul	 eax, DWORD PTR _tObjNum$[ebp], 7072
  00070	8b 0d 00 00 00
	00		 mov	 ecx, DWORD PTR ?gObj@@3PAVOBJECTSTRUCT@@A ; gObj
  00076	0f b6 54 01 66	 movzx	 edx, BYTE PTR [ecx+eax+102]
  0007b	85 d2		 test	 edx, edx
  0007d	74 6d		 je	 SHORT $LN5@gObjTrapAt

; 3035 : 			{
; 3036 : 				if( (lpObj->Y == gObj[tObjNum].Y) && (lpObj->X == gObj[tObjNum].X) )

  0007f	8b 45 08	 mov	 eax, DWORD PTR _lpObj$[ebp]
  00082	0f bf 88 06 01
	00 00		 movsx	 ecx, WORD PTR [eax+262]
  00089	69 55 fc a0 1b
	00 00		 imul	 edx, DWORD PTR _tObjNum$[ebp], 7072
  00090	a1 00 00 00 00	 mov	 eax, DWORD PTR ?gObj@@3PAVOBJECTSTRUCT@@A ; gObj
  00095	0f bf 94 10 06
	01 00 00	 movsx	 edx, WORD PTR [eax+edx+262]
  0009d	3b ca		 cmp	 ecx, edx
  0009f	75 4b		 jne	 SHORT $LN5@gObjTrapAt
  000a1	8b 45 08	 mov	 eax, DWORD PTR _lpObj$[ebp]
  000a4	0f bf 88 04 01
	00 00		 movsx	 ecx, WORD PTR [eax+260]
  000ab	69 55 fc a0 1b
	00 00		 imul	 edx, DWORD PTR _tObjNum$[ebp], 7072
  000b2	a1 00 00 00 00	 mov	 eax, DWORD PTR ?gObj@@3PAVOBJECTSTRUCT@@A ; gObj
  000b7	0f bf 94 10 04
	01 00 00	 movsx	 edx, WORD PTR [eax+edx+260]
  000bf	3b ca		 cmp	 ecx, edx
  000c1	75 29		 jne	 SHORT $LN5@gObjTrapAt

; 3037 : 				{
; 3038 : 					if( (gObj[tObjNum].Authority&AUTHORITY_ADMIN) != AUTHORITY_ADMIN ) 

  000c3	69 45 fc a0 1b
	00 00		 imul	 eax, DWORD PTR _tObjNum$[ebp], 7072
  000ca	8b 0d 00 00 00
	00		 mov	 ecx, DWORD PTR ?gObj@@3PAVOBJECTSTRUCT@@A ; gObj
  000d0	8b 94 01 a4 01
	00 00		 mov	 edx, DWORD PTR [ecx+eax+420]
  000d7	83 e2 02	 and	 edx, 2
  000da	75 10		 jne	 SHORT $LN5@gObjTrapAt

; 3039 : 					{
; 3040 : 						lpObj->TargetNumber = tObjNum;

  000dc	8b 45 08	 mov	 eax, DWORD PTR _lpObj$[ebp]
  000df	66 8b 4d fc	 mov	 cx, WORD PTR _tObjNum$[ebp]
  000e3	66 89 88 ac 02
	00 00		 mov	 WORD PTR [eax+684], cx

; 3041 : 						return;

  000ea	eb 05		 jmp	 SHORT $LN1@gObjTrapAt
$LN5@gObjTrapAt:

; 3042 : 					}
; 3043 : 				}
; 3044 : 			}
; 3045 : 		}
; 3046 : 	}	

  000ec	e9 2e ff ff ff	 jmp	 $LN2@gObjTrapAt
$LN1@gObjTrapAt:

; 3047 : }

  000f1	5f		 pop	 edi
  000f2	5e		 pop	 esi
  000f3	5b		 pop	 ebx
  000f4	8b e5		 mov	 esp, ebp
  000f6	5d		 pop	 ebp
  000f7	c3		 ret	 0
?gObjTrapAttackEnemySearch@@YAXPAVOBJECTSTRUCT@@@Z ENDP	; gObjTrapAttackEnemySearch
_TEXT	ENDS
; Function compile flags: /Odtp /ZI
; File C:\Mu Online\Mu-GS-Webzen-MC-10093\GameServer\gObjMonster.cpp
;	COMDAT ?gObjTrapAttackEnemySearchY@@YAXPAVOBJECTSTRUCT@@H@Z
_TEXT	SEGMENT
_i$1 = -20						; size = 4
_n$2 = -16						; size = 4
_x$ = -12						; size = 4
_pos$ = -8						; size = 4
_tObjNum$ = -4						; size = 4
_lpObj$ = 8						; size = 4
_count$ = 12						; size = 4
?gObjTrapAttackEnemySearchY@@YAXPAVOBJECTSTRUCT@@H@Z PROC ; gObjTrapAttackEnemySearchY, COMDAT

; 2994 : {

  00000	55		 push	 ebp
  00001	8b ec		 mov	 ebp, esp
  00003	83 ec 54	 sub	 esp, 84			; 00000054H
  00006	53		 push	 ebx
  00007	56		 push	 esi
  00008	57		 push	 edi

; 2995 : 	int  tObjNum;
; 2996 : 
; 2997 : 	lpObj->TargetNumber = -1;

  00009	83 c8 ff	 or	 eax, -1
  0000c	8b 4d 08	 mov	 ecx, DWORD PTR _lpObj$[ebp]
  0000f	66 89 81 ac 02
	00 00		 mov	 WORD PTR [ecx+684], ax

; 2998 : 
; 2999 : 	int pos = lpObj->Y;

  00016	8b 45 08	 mov	 eax, DWORD PTR _lpObj$[ebp]
  00019	0f bf 88 06 01
	00 00		 movsx	 ecx, WORD PTR [eax+262]
  00020	89 4d f8	 mov	 DWORD PTR _pos$[ebp], ecx

; 3000 : 	int x   = lpObj->X;

  00023	8b 45 08	 mov	 eax, DWORD PTR _lpObj$[ebp]
  00026	0f bf 88 04 01
	00 00		 movsx	 ecx, WORD PTR [eax+260]
  0002d	89 4d f4	 mov	 DWORD PTR _x$[ebp], ecx

; 3001 : 	for( int n=0; n<count; n++)

  00030	c7 45 f0 00 00
	00 00		 mov	 DWORD PTR _n$2[ebp], 0
  00037	eb 09		 jmp	 SHORT $LN4@gObjTrapAt
$LN2@gObjTrapAt:
  00039	8b 45 f0	 mov	 eax, DWORD PTR _n$2[ebp]
  0003c	83 c0 01	 add	 eax, 1
  0003f	89 45 f0	 mov	 DWORD PTR _n$2[ebp], eax
$LN4@gObjTrapAt:
  00042	8b 45 f0	 mov	 eax, DWORD PTR _n$2[ebp]
  00045	3b 45 0c	 cmp	 eax, DWORD PTR _count$[ebp]
  00048	0f 8d d5 00 00
	00		 jge	 $LN1@gObjTrapAt

; 3002 : 	{
; 3003 : 		pos--;

  0004e	8b 45 f8	 mov	 eax, DWORD PTR _pos$[ebp]
  00051	83 e8 01	 sub	 eax, 1
  00054	89 45 f8	 mov	 DWORD PTR _pos$[ebp], eax

; 3004 : 		for( int i=0; i<MAX_MONVIEWPORTOBJECT; i++)

  00057	c7 45 ec 00 00
	00 00		 mov	 DWORD PTR _i$1[ebp], 0
  0005e	eb 09		 jmp	 SHORT $LN7@gObjTrapAt
$LN5@gObjTrapAt:
  00060	8b 45 ec	 mov	 eax, DWORD PTR _i$1[ebp]
  00063	83 c0 01	 add	 eax, 1
  00066	89 45 ec	 mov	 DWORD PTR _i$1[ebp], eax
$LN7@gObjTrapAt:
  00069	83 7d ec 14	 cmp	 DWORD PTR _i$1[ebp], 20	; 00000014H
  0006d	0f 8d ab 00 00
	00		 jge	 $LN6@gObjTrapAt

; 3005 : 		{
; 3006 : 			tObjNum = lpObj->VpPlayer2[i].number;

  00073	6b 45 ec 0c	 imul	 eax, DWORD PTR _i$1[ebp], 12
  00077	8b 4d 08	 mov	 ecx, DWORD PTR _lpObj$[ebp]
  0007a	0f bf 94 01 ea
	06 00 00	 movsx	 edx, WORD PTR [ecx+eax+1770]
  00082	89 55 fc	 mov	 DWORD PTR _tObjNum$[ebp], edx

; 3007 : 			if( tObjNum >= 0) 

  00085	83 7d fc 00	 cmp	 DWORD PTR _tObjNum$[ebp], 0
  00089	0f 8c 8a 00 00
	00		 jl	 $LN8@gObjTrapAt

; 3008 : 			{
; 3009 : 				if( gObj[tObjNum].Type == OBJTYPE_CHARACTER && gObj[tObjNum].Live )

  0008f	69 45 fc a0 1b
	00 00		 imul	 eax, DWORD PTR _tObjNum$[ebp], 7072
  00096	8b 0d 00 00 00
	00		 mov	 ecx, DWORD PTR ?gObj@@3PAVOBJECTSTRUCT@@A ; gObj
  0009c	0f b7 54 01 64	 movzx	 edx, WORD PTR [ecx+eax+100]
  000a1	83 fa 01	 cmp	 edx, 1
  000a4	75 73		 jne	 SHORT $LN8@gObjTrapAt
  000a6	69 45 fc a0 1b
	00 00		 imul	 eax, DWORD PTR _tObjNum$[ebp], 7072
  000ad	8b 0d 00 00 00
	00		 mov	 ecx, DWORD PTR ?gObj@@3PAVOBJECTSTRUCT@@A ; gObj
  000b3	0f b6 54 01 66	 movzx	 edx, BYTE PTR [ecx+eax+102]
  000b8	85 d2		 test	 edx, edx
  000ba	74 5d		 je	 SHORT $LN8@gObjTrapAt

; 3010 : 				{
; 3011 : 					if( (pos == gObj[tObjNum].Y) && (x == gObj[tObjNum].X) )

  000bc	69 45 fc a0 1b
	00 00		 imul	 eax, DWORD PTR _tObjNum$[ebp], 7072
  000c3	8b 0d 00 00 00
	00		 mov	 ecx, DWORD PTR ?gObj@@3PAVOBJECTSTRUCT@@A ; gObj
  000c9	0f bf 94 01 06
	01 00 00	 movsx	 edx, WORD PTR [ecx+eax+262]
  000d1	39 55 f8	 cmp	 DWORD PTR _pos$[ebp], edx
  000d4	75 43		 jne	 SHORT $LN8@gObjTrapAt
  000d6	69 45 fc a0 1b
	00 00		 imul	 eax, DWORD PTR _tObjNum$[ebp], 7072
  000dd	8b 0d 00 00 00
	00		 mov	 ecx, DWORD PTR ?gObj@@3PAVOBJECTSTRUCT@@A ; gObj
  000e3	0f bf 94 01 04
	01 00 00	 movsx	 edx, WORD PTR [ecx+eax+260]
  000eb	39 55 f4	 cmp	 DWORD PTR _x$[ebp], edx
  000ee	75 29		 jne	 SHORT $LN8@gObjTrapAt

; 3012 : 					{
; 3013 : 						if( (gObj[tObjNum].Authority&AUTHORITY_ADMIN) != AUTHORITY_ADMIN ) 

  000f0	69 45 fc a0 1b
	00 00		 imul	 eax, DWORD PTR _tObjNum$[ebp], 7072
  000f7	8b 0d 00 00 00
	00		 mov	 ecx, DWORD PTR ?gObj@@3PAVOBJECTSTRUCT@@A ; gObj
  000fd	8b 94 01 a4 01
	00 00		 mov	 edx, DWORD PTR [ecx+eax+420]
  00104	83 e2 02	 and	 edx, 2
  00107	75 10		 jne	 SHORT $LN8@gObjTrapAt

; 3014 : 						{
; 3015 : 							lpObj->TargetNumber = tObjNum;

  00109	8b 45 08	 mov	 eax, DWORD PTR _lpObj$[ebp]
  0010c	66 8b 4d fc	 mov	 cx, WORD PTR _tObjNum$[ebp]
  00110	66 89 88 ac 02
	00 00		 mov	 WORD PTR [eax+684], cx

; 3016 : 							return;

  00117	eb 0a		 jmp	 SHORT $LN1@gObjTrapAt
$LN8@gObjTrapAt:

; 3017 : 						}
; 3018 : 					}
; 3019 : 				}
; 3020 : 			}
; 3021 : 		}

  00119	e9 42 ff ff ff	 jmp	 $LN5@gObjTrapAt
$LN6@gObjTrapAt:

; 3022 : 	}

  0011e	e9 16 ff ff ff	 jmp	 $LN2@gObjTrapAt
$LN1@gObjTrapAt:

; 3023 : }

  00123	5f		 pop	 edi
  00124	5e		 pop	 esi
  00125	5b		 pop	 ebx
  00126	8b e5		 mov	 esp, ebp
  00128	5d		 pop	 ebp
  00129	c3		 ret	 0
?gObjTrapAttackEnemySearchY@@YAXPAVOBJECTSTRUCT@@H@Z ENDP ; gObjTrapAttackEnemySearchY
_TEXT	ENDS
; Function compile flags: /Odtp /ZI
; File C:\Mu Online\Mu-GS-Webzen-MC-10093\GameServer\gObjMonster.cpp
;	COMDAT ?gObjTrapAttackEnemySearchX@@YAXPAVOBJECTSTRUCT@@H@Z
_TEXT	SEGMENT
_i$1 = -20						; size = 4
_n$2 = -16						; size = 4
_y$ = -12						; size = 4
_pos$ = -8						; size = 4
_tObjNum$ = -4						; size = 4
_lpObj$ = 8						; size = 4
_count$ = 12						; size = 4
?gObjTrapAttackEnemySearchX@@YAXPAVOBJECTSTRUCT@@H@Z PROC ; gObjTrapAttackEnemySearchX, COMDAT

; 2962 : {

  00000	55		 push	 ebp
  00001	8b ec		 mov	 ebp, esp
  00003	83 ec 54	 sub	 esp, 84			; 00000054H
  00006	53		 push	 ebx
  00007	56		 push	 esi
  00008	57		 push	 edi

; 2963 : 	int  tObjNum;
; 2964 : 
; 2965 : 	lpObj->TargetNumber = -1;

  00009	83 c8 ff	 or	 eax, -1
  0000c	8b 4d 08	 mov	 ecx, DWORD PTR _lpObj$[ebp]
  0000f	66 89 81 ac 02
	00 00		 mov	 WORD PTR [ecx+684], ax

; 2966 : 
; 2967 : 	int pos = lpObj->X;

  00016	8b 45 08	 mov	 eax, DWORD PTR _lpObj$[ebp]
  00019	0f bf 88 04 01
	00 00		 movsx	 ecx, WORD PTR [eax+260]
  00020	89 4d f8	 mov	 DWORD PTR _pos$[ebp], ecx

; 2968 : 	int y   = lpObj->Y;

  00023	8b 45 08	 mov	 eax, DWORD PTR _lpObj$[ebp]
  00026	0f bf 88 06 01
	00 00		 movsx	 ecx, WORD PTR [eax+262]
  0002d	89 4d f4	 mov	 DWORD PTR _y$[ebp], ecx

; 2969 : 	for( int n=0; n<count; n++)

  00030	c7 45 f0 00 00
	00 00		 mov	 DWORD PTR _n$2[ebp], 0
  00037	eb 09		 jmp	 SHORT $LN4@gObjTrapAt
$LN2@gObjTrapAt:
  00039	8b 45 f0	 mov	 eax, DWORD PTR _n$2[ebp]
  0003c	83 c0 01	 add	 eax, 1
  0003f	89 45 f0	 mov	 DWORD PTR _n$2[ebp], eax
$LN4@gObjTrapAt:
  00042	8b 45 f0	 mov	 eax, DWORD PTR _n$2[ebp]
  00045	3b 45 0c	 cmp	 eax, DWORD PTR _count$[ebp]
  00048	0f 8d d5 00 00
	00		 jge	 $LN1@gObjTrapAt

; 2970 : 	{
; 2971 : 		pos++;

  0004e	8b 45 f8	 mov	 eax, DWORD PTR _pos$[ebp]
  00051	83 c0 01	 add	 eax, 1
  00054	89 45 f8	 mov	 DWORD PTR _pos$[ebp], eax

; 2972 : 		for( int i=0; i<MAX_MONVIEWPORTOBJECT; i++)

  00057	c7 45 ec 00 00
	00 00		 mov	 DWORD PTR _i$1[ebp], 0
  0005e	eb 09		 jmp	 SHORT $LN7@gObjTrapAt
$LN5@gObjTrapAt:
  00060	8b 45 ec	 mov	 eax, DWORD PTR _i$1[ebp]
  00063	83 c0 01	 add	 eax, 1
  00066	89 45 ec	 mov	 DWORD PTR _i$1[ebp], eax
$LN7@gObjTrapAt:
  00069	83 7d ec 14	 cmp	 DWORD PTR _i$1[ebp], 20	; 00000014H
  0006d	0f 8d ab 00 00
	00		 jge	 $LN6@gObjTrapAt

; 2973 : 		{
; 2974 : 			tObjNum = lpObj->VpPlayer2[i].number;

  00073	6b 45 ec 0c	 imul	 eax, DWORD PTR _i$1[ebp], 12
  00077	8b 4d 08	 mov	 ecx, DWORD PTR _lpObj$[ebp]
  0007a	0f bf 94 01 ea
	06 00 00	 movsx	 edx, WORD PTR [ecx+eax+1770]
  00082	89 55 fc	 mov	 DWORD PTR _tObjNum$[ebp], edx

; 2975 : 			if( tObjNum >= 0  )

  00085	83 7d fc 00	 cmp	 DWORD PTR _tObjNum$[ebp], 0
  00089	0f 8c 8a 00 00
	00		 jl	 $LN8@gObjTrapAt

; 2976 : 			{
; 2977 : 				if( gObj[tObjNum].Type == OBJTYPE_CHARACTER && gObj[tObjNum].Live )

  0008f	69 45 fc a0 1b
	00 00		 imul	 eax, DWORD PTR _tObjNum$[ebp], 7072
  00096	8b 0d 00 00 00
	00		 mov	 ecx, DWORD PTR ?gObj@@3PAVOBJECTSTRUCT@@A ; gObj
  0009c	0f b7 54 01 64	 movzx	 edx, WORD PTR [ecx+eax+100]
  000a1	83 fa 01	 cmp	 edx, 1
  000a4	75 73		 jne	 SHORT $LN8@gObjTrapAt
  000a6	69 45 fc a0 1b
	00 00		 imul	 eax, DWORD PTR _tObjNum$[ebp], 7072
  000ad	8b 0d 00 00 00
	00		 mov	 ecx, DWORD PTR ?gObj@@3PAVOBJECTSTRUCT@@A ; gObj
  000b3	0f b6 54 01 66	 movzx	 edx, BYTE PTR [ecx+eax+102]
  000b8	85 d2		 test	 edx, edx
  000ba	74 5d		 je	 SHORT $LN8@gObjTrapAt

; 2978 : 				{
; 2979 : 					if( (y == gObj[tObjNum].Y) && (pos == gObj[tObjNum].X) )

  000bc	69 45 fc a0 1b
	00 00		 imul	 eax, DWORD PTR _tObjNum$[ebp], 7072
  000c3	8b 0d 00 00 00
	00		 mov	 ecx, DWORD PTR ?gObj@@3PAVOBJECTSTRUCT@@A ; gObj
  000c9	0f bf 94 01 06
	01 00 00	 movsx	 edx, WORD PTR [ecx+eax+262]
  000d1	39 55 f4	 cmp	 DWORD PTR _y$[ebp], edx
  000d4	75 43		 jne	 SHORT $LN8@gObjTrapAt
  000d6	69 45 fc a0 1b
	00 00		 imul	 eax, DWORD PTR _tObjNum$[ebp], 7072
  000dd	8b 0d 00 00 00
	00		 mov	 ecx, DWORD PTR ?gObj@@3PAVOBJECTSTRUCT@@A ; gObj
  000e3	0f bf 94 01 04
	01 00 00	 movsx	 edx, WORD PTR [ecx+eax+260]
  000eb	39 55 f8	 cmp	 DWORD PTR _pos$[ebp], edx
  000ee	75 29		 jne	 SHORT $LN8@gObjTrapAt

; 2980 : 					{
; 2981 : 						if( (gObj[tObjNum].Authority&AUTHORITY_ADMIN) != AUTHORITY_ADMIN ) 

  000f0	69 45 fc a0 1b
	00 00		 imul	 eax, DWORD PTR _tObjNum$[ebp], 7072
  000f7	8b 0d 00 00 00
	00		 mov	 ecx, DWORD PTR ?gObj@@3PAVOBJECTSTRUCT@@A ; gObj
  000fd	8b 94 01 a4 01
	00 00		 mov	 edx, DWORD PTR [ecx+eax+420]
  00104	83 e2 02	 and	 edx, 2
  00107	75 10		 jne	 SHORT $LN8@gObjTrapAt

; 2982 : 						{
; 2983 : 							lpObj->TargetNumber = tObjNum;

  00109	8b 45 08	 mov	 eax, DWORD PTR _lpObj$[ebp]
  0010c	66 8b 4d fc	 mov	 cx, WORD PTR _tObjNum$[ebp]
  00110	66 89 88 ac 02
	00 00		 mov	 WORD PTR [eax+684], cx

; 2984 : 							return;

  00117	eb 0a		 jmp	 SHORT $LN1@gObjTrapAt
$LN8@gObjTrapAt:

; 2985 : 						}
; 2986 : 					}
; 2987 : 				}
; 2988 : 			}
; 2989 : 		}

  00119	e9 42 ff ff ff	 jmp	 $LN5@gObjTrapAt
$LN6@gObjTrapAt:

; 2990 : 	}

  0011e	e9 16 ff ff ff	 jmp	 $LN2@gObjTrapAt
$LN1@gObjTrapAt:

; 2991 : }

  00123	5f		 pop	 edi
  00124	5e		 pop	 esi
  00125	5b		 pop	 ebx
  00126	8b e5		 mov	 esp, ebp
  00128	5d		 pop	 ebp
  00129	c3		 ret	 0
?gObjTrapAttackEnemySearchX@@YAXPAVOBJECTSTRUCT@@H@Z ENDP ; gObjTrapAttackEnemySearchX
_TEXT	ENDS
; Function compile flags: /Odtp /ZI
; File C:\Mu Online\Mu-GS-Webzen-MC-10093\GameServer\gObjMonster.cpp
;	COMDAT ?gObjGuardSearchEnemy@@YAHPAVOBJECTSTRUCT@@@Z
_TEXT	SEGMENT
_attr$ = -29						; size = 1
_tObjNum$ = -28						; size = 4
_searchtarget$ = -24					; size = 4
_mindis$ = -20						; size = 4
_dis$ = -16						; size = 4
_ty$ = -12						; size = 4
_tx$ = -8						; size = 4
_n$ = -4						; size = 4
_lpObj$ = 8						; size = 4
?gObjGuardSearchEnemy@@YAHPAVOBJECTSTRUCT@@@Z PROC	; gObjGuardSearchEnemy, COMDAT

; 920  : {

  00000	55		 push	 ebp
  00001	8b ec		 mov	 ebp, esp
  00003	83 ec 60	 sub	 esp, 96			; 00000060H
  00006	53		 push	 ebx
  00007	56		 push	 esi
  00008	57		 push	 edi

; 921  : 	int n;
; 922  : 	int tx, ty;
; 923  : 	int dis;
; 924  : 	int mindis=lpObj->m_ViewRange;

  00009	8b 45 08	 mov	 eax, DWORD PTR _lpObj$[ebp]
  0000c	0f bf 88 fc 02
	00 00		 movsx	 ecx, WORD PTR [eax+764]
  00013	89 4d ec	 mov	 DWORD PTR _mindis$[ebp], ecx

; 925  : 	int searchtarget=-1;

  00016	c7 45 e8 ff ff
	ff ff		 mov	 DWORD PTR _searchtarget$[ebp], -1

; 926  : 	int tObjNum;
; 927  : 	BYTE attr;
; 928  : 	
; 929  : 	for( n=0; n<MAX_MONVIEWPORTOBJECT; n++)

  0001d	c7 45 fc 00 00
	00 00		 mov	 DWORD PTR _n$[ebp], 0
  00024	eb 09		 jmp	 SHORT $LN4@gObjGuardS
$LN2@gObjGuardS:
  00026	8b 45 fc	 mov	 eax, DWORD PTR _n$[ebp]
  00029	83 c0 01	 add	 eax, 1
  0002c	89 45 fc	 mov	 DWORD PTR _n$[ebp], eax
$LN4@gObjGuardS:
  0002f	83 7d fc 14	 cmp	 DWORD PTR _n$[ebp], 20	; 00000014H
  00033	0f 8d 59 01 00
	00		 jge	 $LN3@gObjGuardS

; 930  : 	{
; 931  : 		tObjNum = lpObj->VpPlayer2[n].number;

  00039	6b 45 fc 0c	 imul	 eax, DWORD PTR _n$[ebp], 12
  0003d	8b 4d 08	 mov	 ecx, DWORD PTR _lpObj$[ebp]
  00040	0f bf 94 01 ea
	06 00 00	 movsx	 edx, WORD PTR [ecx+eax+1770]
  00048	89 55 e4	 mov	 DWORD PTR _tObjNum$[ebp], edx

; 932  : 		if( tObjNum >= 0 )

  0004b	83 7d e4 00	 cmp	 DWORD PTR _tObjNum$[ebp], 0
  0004f	0f 8c 38 01 00
	00		 jl	 $LN8@gObjGuardS

; 933  : 		{
; 934  : 			//if( gObj[tObjNum].Type == objtype && gObj[tObjNum].Live)	// 유저가 할당되어 있다면..
; 935  : 			//if( gObj[tObjNum].Live)	// 유저가 할당되어 있다면..
; 936  : 
; 937  : #ifdef UPDATE_PK_SYSTEM_20070302		// 살인마와 파티를 했을경우 경비원에게 공격 당함
; 938  : 			BOOL	PKFlag = FALSE;
; 939  : 			if(gObj[tObjNum].PartyNumber >= 0)	// 파티에 속할경우
; 940  : 			{
; 941  : 				if( gParty.GetPKPartyPenalty(gObj[tObjNum].PartyNumber) > PK_LEVEL_DEFAULT+1)
; 942  : 				{
; 943  : 					PKFlag = TRUE;
; 944  : 				}
; 945  : 			}
; 946  : 			else
; 947  : 			{
; 948  : 				if(gObj[tObjNum].m_PK_Level > PK_LEVEL_DEFAULT+1)
; 949  : 				{
; 950  : 					PKFlag = TRUE;
; 951  : 				}
; 952  : 			}
; 953  : 
; 954  : 			if( gObj[tObjNum].Type == OBJTYPE_CHARACTER&& PKFlag == TRUE )
; 955  : #else
; 956  : 			if( (gObj[tObjNum].Type == OBJTYPE_CHARACTER&&

  00055	69 45 e4 a0 1b
	00 00		 imul	 eax, DWORD PTR _tObjNum$[ebp], 7072
  0005c	8b 0d 00 00 00
	00		 mov	 ecx, DWORD PTR ?gObj@@3PAVOBJECTSTRUCT@@A ; gObj
  00062	0f b7 54 01 64	 movzx	 edx, WORD PTR [ecx+eax+100]
  00067	83 fa 01	 cmp	 edx, 1
  0006a	0f 85 1d 01 00
	00		 jne	 $LN8@gObjGuardS
  00070	69 45 e4 a0 1b
	00 00		 imul	 eax, DWORD PTR _tObjNum$[ebp], 7072
  00077	8b 0d 00 00 00
	00		 mov	 ecx, DWORD PTR ?gObj@@3PAVOBJECTSTRUCT@@A ; gObj
  0007d	0f be 94 01 fd
	00 00 00	 movsx	 edx, BYTE PTR [ecx+eax+253]
  00085	83 fa 04	 cmp	 edx, 4
  00088	0f 8e ff 00 00
	00		 jle	 $LN8@gObjGuardS

; 957  : 				gObj[tObjNum].m_PK_Level > PK_LEVEL_DEFAULT+1) )
; 958  : #endif
; 959  : 			{
; 960  : 				attr= MapC[gObj[tObjNum].MapNumber].GetAttr(gObj[tObjNum].X, gObj[tObjNum].Y);

  0008e	69 45 e4 a0 1b
	00 00		 imul	 eax, DWORD PTR _tObjNum$[ebp], 7072
  00095	8b 0d 00 00 00
	00		 mov	 ecx, DWORD PTR ?gObj@@3PAVOBJECTSTRUCT@@A ; gObj
  0009b	0f bf 94 01 06
	01 00 00	 movsx	 edx, WORD PTR [ecx+eax+262]
  000a3	52		 push	 edx
  000a4	69 45 e4 a0 1b
	00 00		 imul	 eax, DWORD PTR _tObjNum$[ebp], 7072
  000ab	8b 0d 00 00 00
	00		 mov	 ecx, DWORD PTR ?gObj@@3PAVOBJECTSTRUCT@@A ; gObj
  000b1	0f bf 94 01 04
	01 00 00	 movsx	 edx, WORD PTR [ecx+eax+260]
  000b9	52		 push	 edx
  000ba	69 45 e4 a0 1b
	00 00		 imul	 eax, DWORD PTR _tObjNum$[ebp], 7072
  000c1	8b 0d 00 00 00
	00		 mov	 ecx, DWORD PTR ?gObj@@3PAVOBJECTSTRUCT@@A ; gObj
  000c7	0f b6 94 01 09
	01 00 00	 movzx	 edx, BYTE PTR [ecx+eax+265]
  000cf	69 ca 8c 04 05
	00		 imul	 ecx, edx, 328844
  000d5	03 0d 00 00 00
	00		 add	 ecx, DWORD PTR ?MapC@@3PAVMapClass@@A ; MapC
  000db	e8 00 00 00 00	 call	 ?GetAttr@MapClass@@QAEEHH@Z ; MapClass::GetAttr
  000e0	88 45 e3	 mov	 BYTE PTR _attr$[ebp], al

; 961  : 
; 962  : 				if( (attr&MAP_ATTR_SAFTYZONE) != MAP_ATTR_SAFTYZONE )

  000e3	0f b6 45 e3	 movzx	 eax, BYTE PTR _attr$[ebp]
  000e7	83 e0 01	 and	 eax, 1
  000ea	0f 85 9d 00 00
	00		 jne	 $LN8@gObjGuardS

; 963  : 				{
; 964  : 					tx = lpObj->X-gObj[tObjNum].X;

  000f0	8b 45 08	 mov	 eax, DWORD PTR _lpObj$[ebp]
  000f3	0f bf 88 04 01
	00 00		 movsx	 ecx, WORD PTR [eax+260]
  000fa	69 55 e4 a0 1b
	00 00		 imul	 edx, DWORD PTR _tObjNum$[ebp], 7072
  00101	a1 00 00 00 00	 mov	 eax, DWORD PTR ?gObj@@3PAVOBJECTSTRUCT@@A ; gObj
  00106	0f bf 94 10 04
	01 00 00	 movsx	 edx, WORD PTR [eax+edx+260]
  0010e	2b ca		 sub	 ecx, edx
  00110	89 4d f8	 mov	 DWORD PTR _tx$[ebp], ecx

; 965  : 					ty = lpObj->Y-gObj[tObjNum].Y;

  00113	8b 45 08	 mov	 eax, DWORD PTR _lpObj$[ebp]
  00116	0f bf 88 06 01
	00 00		 movsx	 ecx, WORD PTR [eax+262]
  0011d	69 55 e4 a0 1b
	00 00		 imul	 edx, DWORD PTR _tObjNum$[ebp], 7072
  00124	a1 00 00 00 00	 mov	 eax, DWORD PTR ?gObj@@3PAVOBJECTSTRUCT@@A ; gObj
  00129	0f bf 94 10 06
	01 00 00	 movsx	 edx, WORD PTR [eax+edx+262]
  00131	2b ca		 sub	 ecx, edx
  00133	89 4d f4	 mov	 DWORD PTR _ty$[ebp], ecx

; 966  : 					
; 967  : 					dis = (int)sqrt((double)(tx*tx)+(ty*ty));

  00136	8b 45 f8	 mov	 eax, DWORD PTR _tx$[ebp]
  00139	0f af 45 f8	 imul	 eax, DWORD PTR _tx$[ebp]
  0013d	f2 0f 2a c0	 cvtsi2sd xmm0, eax
  00141	8b 4d f4	 mov	 ecx, DWORD PTR _ty$[ebp]
  00144	0f af 4d f4	 imul	 ecx, DWORD PTR _ty$[ebp]
  00148	f2 0f 2a c9	 cvtsi2sd xmm1, ecx
  0014c	f2 0f 58 c1	 addsd	 xmm0, xmm1
  00150	83 ec 08	 sub	 esp, 8
  00153	f2 0f 11 04 24	 movsd	 QWORD PTR [esp], xmm0
  00158	e8 00 00 00 00	 call	 _sqrt
  0015d	83 c4 08	 add	 esp, 8
  00160	e8 00 00 00 00	 call	 __ftol2_sse
  00165	89 45 f0	 mov	 DWORD PTR _dis$[ebp], eax

; 968  : 					lpObj->VpPlayer2[n].dis = dis;

  00168	6b 45 fc 0c	 imul	 eax, DWORD PTR _n$[ebp], 12
  0016c	8b 4d 08	 mov	 ecx, DWORD PTR _lpObj$[ebp]
  0016f	8b 55 f0	 mov	 edx, DWORD PTR _dis$[ebp]
  00172	89 94 01 f0 06
	00 00		 mov	 DWORD PTR [ecx+eax+1776], edx

; 969  : 					//if( dis <= 3 )	// 최소 영역에 들어오고..
; 970  : 					{	// 다른 애들보다 가까이 있다면..
; 971  : 						if( dis < mindis ) {

  00179	8b 45 f0	 mov	 eax, DWORD PTR _dis$[ebp]
  0017c	3b 45 ec	 cmp	 eax, DWORD PTR _mindis$[ebp]
  0017f	7d 0c		 jge	 SHORT $LN8@gObjGuardS

; 972  : 							searchtarget = tObjNum;

  00181	8b 45 e4	 mov	 eax, DWORD PTR _tObjNum$[ebp]
  00184	89 45 e8	 mov	 DWORD PTR _searchtarget$[ebp], eax

; 973  : 							mindis = dis;

  00187	8b 45 f0	 mov	 eax, DWORD PTR _dis$[ebp]
  0018a	89 45 ec	 mov	 DWORD PTR _mindis$[ebp], eax
$LN8@gObjGuardS:

; 974  : 						}
; 975  : 					}
; 976  : 				}
; 977  : 			}
; 978  : 		}
; 979  : 	}

  0018d	e9 94 fe ff ff	 jmp	 $LN2@gObjGuardS
$LN3@gObjGuardS:

; 980  : 	return searchtarget;

  00192	8b 45 e8	 mov	 eax, DWORD PTR _searchtarget$[ebp]

; 981  : }

  00195	5f		 pop	 edi
  00196	5e		 pop	 esi
  00197	5b		 pop	 ebx
  00198	8b e5		 mov	 esp, ebp
  0019a	5d		 pop	 ebp
  0019b	c3		 ret	 0
?gObjGuardSearchEnemy@@YAHPAVOBJECTSTRUCT@@@Z ENDP	; gObjGuardSearchEnemy
_TEXT	ENDS
; Function compile flags: /Odtp /ZI
; File C:\Mu Online\Mu-GS-Webzen-MC-10093\GameServer\gObjMonster.cpp
;	COMDAT ?gObjGetTargetPos@@YAHPAVOBJECTSTRUCT@@HHAAH1@Z
_TEXT	SEGMENT
tv138 = -104						; size = 4
_dis$ = -36						; size = 4
_attr$ = -29						; size = 1
_searchcount$ = -28					; size = 4
_sn$ = -24						; size = 4
_searchp$ = -20						; size = 4
_mty$ = -16						; size = 4
_mtx$ = -12						; size = 4
_tpy$ = -8						; size = 4
_tpx$ = -4						; size = 4
_lpObj$ = 8						; size = 4
_sx$ = 12						; size = 4
_sy$ = 16						; size = 4
_tx$ = 20						; size = 4
_ty$ = 24						; size = 4
?gObjGetTargetPos@@YAHPAVOBJECTSTRUCT@@HHAAH1@Z PROC	; gObjGetTargetPos, COMDAT

; 718  : {

  00000	55		 push	 ebp
  00001	8b ec		 mov	 ebp, esp
  00003	83 ec 68	 sub	 esp, 104		; 00000068H
  00006	53		 push	 ebx
  00007	56		 push	 esi
  00008	57		 push	 edi

; 719  : 	int tpx, tpy, mtx, mty;
; 720  : 	int searchp=0, sn=0;

  00009	c7 45 ec 00 00
	00 00		 mov	 DWORD PTR _searchp$[ebp], 0
  00010	c7 45 e8 00 00
	00 00		 mov	 DWORD PTR _sn$[ebp], 0

; 721  : 	int searchcount=7;

  00017	c7 45 e4 07 00
	00 00		 mov	 DWORD PTR _searchcount$[ebp], 7

; 722  : 	BYTE attr;
; 723  : 	//BOOL result;
; 724  : 	
; 725  : 	mtx = tpx = sx;

  0001e	8b 45 0c	 mov	 eax, DWORD PTR _sx$[ebp]
  00021	89 45 fc	 mov	 DWORD PTR _tpx$[ebp], eax
  00024	8b 4d fc	 mov	 ecx, DWORD PTR _tpx$[ebp]
  00027	89 4d f4	 mov	 DWORD PTR _mtx$[ebp], ecx

; 726  : 	mty = tpy = sy;

  0002a	8b 45 10	 mov	 eax, DWORD PTR _sy$[ebp]
  0002d	89 45 f8	 mov	 DWORD PTR _tpy$[ebp], eax
  00030	8b 4d f8	 mov	 ecx, DWORD PTR _tpy$[ebp]
  00033	89 4d f0	 mov	 DWORD PTR _mty$[ebp], ecx

; 727  : 	
; 728  : 	int dis;
; 729  : 
; 730  : 	// 공격 형태가 100을 넘으면.. 공격길이를 2배로..
; 731  : 	if( lpObj->m_AttackType >= 100 )

  00036	8b 45 08	 mov	 eax, DWORD PTR _lpObj$[ebp]
  00039	0f bf 88 fa 02
	00 00		 movsx	 ecx, WORD PTR [eax+762]
  00040	83 f9 64	 cmp	 ecx, 100		; 00000064H
  00043	7c 12		 jl	 SHORT $LN4@gObjGetTar

; 732  : 	{
; 733  : 		dis = lpObj->m_AttackRange+2;

  00045	8b 45 08	 mov	 eax, DWORD PTR _lpObj$[ebp]
  00048	0f bf 88 f8 02
	00 00		 movsx	 ecx, WORD PTR [eax+760]
  0004f	83 c1 02	 add	 ecx, 2
  00052	89 4d dc	 mov	 DWORD PTR _dis$[ebp], ecx

; 734  : 	}

  00055	eb 0d		 jmp	 SHORT $LN5@gObjGetTar
$LN4@gObjGetTar:

; 735  : 	else dis = lpObj->m_AttackRange;

  00057	8b 45 08	 mov	 eax, DWORD PTR _lpObj$[ebp]
  0005a	0f bf 88 f8 02
	00 00		 movsx	 ecx, WORD PTR [eax+760]
  00061	89 4d dc	 mov	 DWORD PTR _dis$[ebp], ecx
$LN5@gObjGetTar:

; 736  : 	
; 737  : 	// 타겟 근처로 위치를 잡는다.
; 738  : 	if( lpObj->X < mtx ) tpx -= dis;

  00064	8b 45 08	 mov	 eax, DWORD PTR _lpObj$[ebp]
  00067	0f bf 88 04 01
	00 00		 movsx	 ecx, WORD PTR [eax+260]
  0006e	3b 4d f4	 cmp	 ecx, DWORD PTR _mtx$[ebp]
  00071	7d 09		 jge	 SHORT $LN6@gObjGetTar
  00073	8b 45 fc	 mov	 eax, DWORD PTR _tpx$[ebp]
  00076	2b 45 dc	 sub	 eax, DWORD PTR _dis$[ebp]
  00079	89 45 fc	 mov	 DWORD PTR _tpx$[ebp], eax
$LN6@gObjGetTar:

; 739  : 	if( lpObj->X > mtx ) tpx += dis;

  0007c	8b 45 08	 mov	 eax, DWORD PTR _lpObj$[ebp]
  0007f	0f bf 88 04 01
	00 00		 movsx	 ecx, WORD PTR [eax+260]
  00086	3b 4d f4	 cmp	 ecx, DWORD PTR _mtx$[ebp]
  00089	7e 09		 jle	 SHORT $LN7@gObjGetTar
  0008b	8b 45 fc	 mov	 eax, DWORD PTR _tpx$[ebp]
  0008e	03 45 dc	 add	 eax, DWORD PTR _dis$[ebp]
  00091	89 45 fc	 mov	 DWORD PTR _tpx$[ebp], eax
$LN7@gObjGetTar:

; 740  : 	if( lpObj->Y < mty ) tpy -= dis;

  00094	8b 45 08	 mov	 eax, DWORD PTR _lpObj$[ebp]
  00097	0f bf 88 06 01
	00 00		 movsx	 ecx, WORD PTR [eax+262]
  0009e	3b 4d f0	 cmp	 ecx, DWORD PTR _mty$[ebp]
  000a1	7d 09		 jge	 SHORT $LN8@gObjGetTar
  000a3	8b 45 f8	 mov	 eax, DWORD PTR _tpy$[ebp]
  000a6	2b 45 dc	 sub	 eax, DWORD PTR _dis$[ebp]
  000a9	89 45 f8	 mov	 DWORD PTR _tpy$[ebp], eax
$LN8@gObjGetTar:

; 741  : 	if( lpObj->Y > mty ) tpy += dis;

  000ac	8b 45 08	 mov	 eax, DWORD PTR _lpObj$[ebp]
  000af	0f bf 88 06 01
	00 00		 movsx	 ecx, WORD PTR [eax+262]
  000b6	3b 4d f0	 cmp	 ecx, DWORD PTR _mty$[ebp]
  000b9	7e 09		 jle	 SHORT $LN9@gObjGetTar
  000bb	8b 45 f8	 mov	 eax, DWORD PTR _tpy$[ebp]
  000be	03 45 dc	 add	 eax, DWORD PTR _dis$[ebp]
  000c1	89 45 f8	 mov	 DWORD PTR _tpy$[ebp], eax
$LN9@gObjGetTar:

; 742  : 
; 743  : 	searchp = GetPathPacketDirPos(sx-tpx, sy-tpy)*2;

  000c4	8b 45 10	 mov	 eax, DWORD PTR _sy$[ebp]
  000c7	2b 45 f8	 sub	 eax, DWORD PTR _tpy$[ebp]
  000ca	50		 push	 eax
  000cb	8b 4d 0c	 mov	 ecx, DWORD PTR _sx$[ebp]
  000ce	2b 4d fc	 sub	 ecx, DWORD PTR _tpx$[ebp]
  000d1	51		 push	 ecx
  000d2	e8 00 00 00 00	 call	 ?GetPathPacketDirPos@@YAEHH@Z ; GetPathPacketDirPos
  000d7	83 c4 08	 add	 esp, 8
  000da	0f b6 d0	 movzx	 edx, al
  000dd	d1 e2		 shl	 edx, 1
  000df	89 55 ec	 mov	 DWORD PTR _searchp$[ebp], edx

; 744  : 	if( MapC[lpObj->MapNumber].GetStandAttr( tpx, tpy) == FALSE )	// 갈수 없다면.

  000e2	8b 45 f8	 mov	 eax, DWORD PTR _tpy$[ebp]
  000e5	50		 push	 eax
  000e6	8b 4d fc	 mov	 ecx, DWORD PTR _tpx$[ebp]
  000e9	51		 push	 ecx
  000ea	8b 55 08	 mov	 edx, DWORD PTR _lpObj$[ebp]
  000ed	0f b6 82 09 01
	00 00		 movzx	 eax, BYTE PTR [edx+265]
  000f4	69 c8 8c 04 05
	00		 imul	 ecx, eax, 328844
  000fa	03 0d 00 00 00
	00		 add	 ecx, DWORD PTR ?MapC@@3PAVMapClass@@A ; MapC
  00100	e8 00 00 00 00	 call	 ?GetStandAttr@MapClass@@QAEHHH@Z ; MapClass::GetStandAttr
  00105	85 c0		 test	 eax, eax
  00107	0f 85 c6 00 00
	00		 jne	 $LN10@gObjGetTar
$LN2@gObjGetTar:

; 745  : 	{
; 746  : 		while(searchcount--)

  0010d	8b 45 e4	 mov	 eax, DWORD PTR _searchcount$[ebp]
  00110	89 45 98	 mov	 DWORD PTR tv138[ebp], eax
  00113	8b 4d e4	 mov	 ecx, DWORD PTR _searchcount$[ebp]
  00116	83 e9 01	 sub	 ecx, 1
  00119	89 4d e4	 mov	 DWORD PTR _searchcount$[ebp], ecx
  0011c	83 7d 98 00	 cmp	 DWORD PTR tv138[ebp], 0
  00120	0f 84 a1 00 00
	00		 je	 $LN3@gObjGetTar

; 747  : 		{
; 748  : 			mtx = sx+RoadPathTable[searchp];

  00126	8b 45 ec	 mov	 eax, DWORD PTR _searchp$[ebp]
  00129	0f bf 0c 45 00
	00 00 00	 movsx	 ecx, WORD PTR ?RoadPathTable@@3PAFA[eax*2]
  00131	03 4d 0c	 add	 ecx, DWORD PTR _sx$[ebp]
  00134	89 4d f4	 mov	 DWORD PTR _mtx$[ebp], ecx

; 749  : 			mty = sy+RoadPathTable[searchp+1];

  00137	8b 45 ec	 mov	 eax, DWORD PTR _searchp$[ebp]
  0013a	0f bf 0c 45 02
	00 00 00	 movsx	 ecx, WORD PTR ?RoadPathTable@@3PAFA[eax*2+2]
  00142	03 4d 10	 add	 ecx, DWORD PTR _sy$[ebp]
  00145	89 4d f0	 mov	 DWORD PTR _mty$[ebp], ecx

; 750  : 			
; 751  : 			//  자리가 비어있으면..
; 752  : 			attr= MapC[lpObj->MapNumber].GetAttr(mtx, mty);

  00148	8b 45 f0	 mov	 eax, DWORD PTR _mty$[ebp]
  0014b	50		 push	 eax
  0014c	8b 4d f4	 mov	 ecx, DWORD PTR _mtx$[ebp]
  0014f	51		 push	 ecx
  00150	8b 55 08	 mov	 edx, DWORD PTR _lpObj$[ebp]
  00153	0f b6 82 09 01
	00 00		 movzx	 eax, BYTE PTR [edx+265]
  0015a	69 c8 8c 04 05
	00		 imul	 ecx, eax, 328844
  00160	03 0d 00 00 00
	00		 add	 ecx, DWORD PTR ?MapC@@3PAVMapClass@@A ; MapC
  00166	e8 00 00 00 00	 call	 ?GetAttr@MapClass@@QAEEHH@Z ; MapClass::GetAttr
  0016b	88 45 e3	 mov	 BYTE PTR _attr$[ebp], al

; 753  : 			//result = gObjMonsterMoveCheck(lpObj, mtx, mty);
; 754  : 
; 755  : 			/*if( lpObj->Class == 249 )
; 756  : 			{
; 757  : 				if( ((attr&0x02) != 0x02) && (result==TRUE) )
; 758  : 				{
; 759  : 					lpObj->MTX = mtx;
; 760  : 					lpObj->MTY = mty;
; 761  : 					return TRUE;
; 762  : 				}
; 763  : 			}
; 764  : 			else
; 765  : 			{*/
; 766  : 				if(    ((attr&MAP_ATTR_SAFTYZONE) != MAP_ATTR_SAFTYZONE) 
; 767  : 					&& ((attr&MAP_ATTR_STAND) != MAP_ATTR_STAND) 
; 768  : 					&& ((attr&MAP_ATTR_BLOCK) != MAP_ATTR_BLOCK) 
; 769  : 					&& ((attr&MAP_ATTR_HOLLOW) != MAP_ATTR_HOLLOW)) 

  0016e	0f b6 45 e3	 movzx	 eax, BYTE PTR _attr$[ebp]
  00172	83 e0 01	 and	 eax, 1
  00175	75 35		 jne	 SHORT $LN12@gObjGetTar
  00177	0f b6 45 e3	 movzx	 eax, BYTE PTR _attr$[ebp]
  0017b	83 e0 02	 and	 eax, 2
  0017e	75 2c		 jne	 SHORT $LN12@gObjGetTar
  00180	0f b6 45 e3	 movzx	 eax, BYTE PTR _attr$[ebp]
  00184	83 e0 04	 and	 eax, 4
  00187	75 23		 jne	 SHORT $LN12@gObjGetTar
  00189	0f b6 45 e3	 movzx	 eax, BYTE PTR _attr$[ebp]
  0018d	83 e0 08	 and	 eax, 8
  00190	75 1a		 jne	 SHORT $LN12@gObjGetTar

; 770  : 					//&& (result==TRUE) )
; 771  : 				{
; 772  : 					tx = mtx;

  00192	8b 45 14	 mov	 eax, DWORD PTR _tx$[ebp]
  00195	8b 4d f4	 mov	 ecx, DWORD PTR _mtx$[ebp]
  00198	89 08		 mov	 DWORD PTR [eax], ecx

; 773  : 					ty = mty;

  0019a	8b 45 18	 mov	 eax, DWORD PTR _ty$[ebp]
  0019d	8b 4d f0	 mov	 ecx, DWORD PTR _mty$[ebp]
  001a0	89 08		 mov	 DWORD PTR [eax], ecx

; 774  : 					return TRUE;

  001a2	b8 01 00 00 00	 mov	 eax, 1
  001a7	e9 cd 00 00 00	 jmp	 $LN1@gObjGetTar
$LN12@gObjGetTar:

; 775  : 				}
; 776  : 			//}
; 777  : 			searchp += 2;

  001ac	8b 45 ec	 mov	 eax, DWORD PTR _searchp$[ebp]
  001af	83 c0 02	 add	 eax, 2
  001b2	89 45 ec	 mov	 DWORD PTR _searchp$[ebp], eax

; 778  : 
; 779  : 			if( searchp > 15 ) searchp = 0;

  001b5	83 7d ec 0f	 cmp	 DWORD PTR _searchp$[ebp], 15 ; 0000000fH
  001b9	7e 07		 jle	 SHORT $LN13@gObjGetTar
  001bb	c7 45 ec 00 00
	00 00		 mov	 DWORD PTR _searchp$[ebp], 0
$LN13@gObjGetTar:

; 780  : 		}		

  001c2	e9 46 ff ff ff	 jmp	 $LN2@gObjGetTar
$LN3@gObjGetTar:

; 781  : 		return FALSE;

  001c7	33 c0		 xor	 eax, eax
  001c9	e9 ab 00 00 00	 jmp	 $LN1@gObjGetTar

; 782  : 	}

  001ce	e9 a4 00 00 00	 jmp	 $LN11@gObjGetTar
$LN10@gObjGetTar:

; 783  : 	else
; 784  : 	{
; 785  : 		attr= MapC[lpObj->MapNumber].GetAttr(tpx, tpy);

  001d3	8b 45 f8	 mov	 eax, DWORD PTR _tpy$[ebp]
  001d6	50		 push	 eax
  001d7	8b 4d fc	 mov	 ecx, DWORD PTR _tpx$[ebp]
  001da	51		 push	 ecx
  001db	8b 55 08	 mov	 edx, DWORD PTR _lpObj$[ebp]
  001de	0f b6 82 09 01
	00 00		 movzx	 eax, BYTE PTR [edx+265]
  001e5	69 c8 8c 04 05
	00		 imul	 ecx, eax, 328844
  001eb	03 0d 00 00 00
	00		 add	 ecx, DWORD PTR ?MapC@@3PAVMapClass@@A ; MapC
  001f1	e8 00 00 00 00	 call	 ?GetAttr@MapClass@@QAEEHH@Z ; MapClass::GetAttr
  001f6	88 45 e3	 mov	 BYTE PTR _attr$[ebp], al

; 786  : 		//result = gObjMonsterMoveCheck(lpObj, mtx, mty);
; 787  : 		/*if( lpObj->Class == 249 )
; 788  : 		{
; 789  : 			if( ((attr&0x02) != 0x02) && (result==TRUE) ) 
; 790  : 			{
; 791  : 				lpObj->MTX = tpx;
; 792  : 				lpObj->MTY = tpy;
; 793  : 				return TRUE;
; 794  : 			}
; 795  : 
; 796  : 		}
; 797  : 		else
; 798  : 		{*/
; 799  : 		if( lpObj->m_Attribute>= 100 )

  001f9	8b 45 08	 mov	 eax, DWORD PTR _lpObj$[ebp]
  001fc	0f bf 88 fe 02
	00 00		 movsx	 ecx, WORD PTR [eax+766]
  00203	83 f9 64	 cmp	 ecx, 100		; 00000064H
  00206	7c 34		 jl	 SHORT $LN14@gObjGetTar

; 800  : 		{
; 801  : 			if(	((attr&MAP_ATTR_STAND) != MAP_ATTR_STAND) &&
; 802  : 				((attr&MAP_ATTR_BLOCK) != MAP_ATTR_BLOCK) &&

  00208	0f b6 45 e3	 movzx	 eax, BYTE PTR _attr$[ebp]
  0020c	83 e0 02	 and	 eax, 2
  0020f	75 29		 jne	 SHORT $LN16@gObjGetTar
  00211	0f b6 45 e3	 movzx	 eax, BYTE PTR _attr$[ebp]
  00215	83 e0 04	 and	 eax, 4
  00218	75 20		 jne	 SHORT $LN16@gObjGetTar
  0021a	0f b6 45 e3	 movzx	 eax, BYTE PTR _attr$[ebp]
  0021e	83 e0 08	 and	 eax, 8
  00221	75 17		 jne	 SHORT $LN16@gObjGetTar

; 803  : 				((attr&MAP_ATTR_HOLLOW) != MAP_ATTR_HOLLOW) )
; 804  : 				//(result==TRUE) ) // 안전지대와 못 가는길이면..
; 805  : 			{
; 806  : 				tx = tpx;

  00223	8b 45 14	 mov	 eax, DWORD PTR _tx$[ebp]
  00226	8b 4d fc	 mov	 ecx, DWORD PTR _tpx$[ebp]
  00229	89 08		 mov	 DWORD PTR [eax], ecx

; 807  : 				ty = tpy;

  0022b	8b 45 18	 mov	 eax, DWORD PTR _ty$[ebp]
  0022e	8b 4d f8	 mov	 ecx, DWORD PTR _tpy$[ebp]
  00231	89 08		 mov	 DWORD PTR [eax], ecx

; 808  : 				return TRUE;

  00233	b8 01 00 00 00	 mov	 eax, 1
  00238	eb 3f		 jmp	 SHORT $LN1@gObjGetTar
$LN16@gObjGetTar:

; 809  : 			}
; 810  : 		}

  0023a	eb 3b		 jmp	 SHORT $LN11@gObjGetTar
$LN14@gObjGetTar:

; 811  : 		else
; 812  : 		{
; 813  : 			if( ((attr&0x01) != 0x01) && 
; 814  : 				((attr&0x02) != 0x02) &&
; 815  : 				((attr&0x04) != 0x04) &&

  0023c	0f b6 45 e3	 movzx	 eax, BYTE PTR _attr$[ebp]
  00240	83 e0 01	 and	 eax, 1
  00243	75 32		 jne	 SHORT $LN11@gObjGetTar
  00245	0f b6 45 e3	 movzx	 eax, BYTE PTR _attr$[ebp]
  00249	83 e0 02	 and	 eax, 2
  0024c	75 29		 jne	 SHORT $LN11@gObjGetTar
  0024e	0f b6 45 e3	 movzx	 eax, BYTE PTR _attr$[ebp]
  00252	83 e0 04	 and	 eax, 4
  00255	75 20		 jne	 SHORT $LN11@gObjGetTar
  00257	0f b6 45 e3	 movzx	 eax, BYTE PTR _attr$[ebp]
  0025b	83 e0 08	 and	 eax, 8
  0025e	75 17		 jne	 SHORT $LN11@gObjGetTar

; 816  : 				((attr&0x08) != 0x08) )
; 817  : 				//(result==TRUE) ) // 안전지대와 못 가는길이면..
; 818  : 			{
; 819  : 				tx = tpx;

  00260	8b 45 14	 mov	 eax, DWORD PTR _tx$[ebp]
  00263	8b 4d fc	 mov	 ecx, DWORD PTR _tpx$[ebp]
  00266	89 08		 mov	 DWORD PTR [eax], ecx

; 820  : 				ty = tpy;

  00268	8b 45 18	 mov	 eax, DWORD PTR _ty$[ebp]
  0026b	8b 4d f8	 mov	 ecx, DWORD PTR _tpy$[ebp]
  0026e	89 08		 mov	 DWORD PTR [eax], ecx

; 821  : 				return TRUE;

  00270	b8 01 00 00 00	 mov	 eax, 1
  00275	eb 02		 jmp	 SHORT $LN1@gObjGetTar
$LN11@gObjGetTar:

; 822  : 			}
; 823  : 		}
; 824  : 	}
; 825  : 	return FALSE;

  00277	33 c0		 xor	 eax, eax
$LN1@gObjGetTar:

; 826  : }

  00279	5f		 pop	 edi
  0027a	5e		 pop	 esi
  0027b	5b		 pop	 ebx
  0027c	8b e5		 mov	 esp, ebp
  0027e	5d		 pop	 ebp
  0027f	c3		 ret	 0
?gObjGetTargetPos@@YAHPAVOBJECTSTRUCT@@HHAAH1@Z ENDP	; gObjGetTargetPos
_TEXT	ENDS
; Function compile flags: /Odtp /ZI
; File C:\Mu Online\Mu-GS-Webzen-MC-10093\GameServer\gObjMonster.cpp
;	COMDAT ?gObjMonsterMoveCheck@@YAHPAVOBJECTSTRUCT@@HH@Z
_TEXT	SEGMENT
_dis$ = -8						; size = 4
_lpPos$ = -4						; size = 4
_lpObj$ = 8						; size = 4
_tx$ = 12						; size = 4
_ty$ = 16						; size = 4
?gObjMonsterMoveCheck@@YAHPAVOBJECTSTRUCT@@HH@Z PROC	; gObjMonsterMoveCheck, COMDAT

; 525  : {

  00000	55		 push	 ebp
  00001	8b ec		 mov	 ebp, esp
  00003	83 ec 48	 sub	 esp, 72			; 00000048H
  00006	53		 push	 ebx
  00007	56		 push	 esi
  00008	57		 push	 edi

; 526  : 	// 열받았을땐 이동해도 된다.
; 527  : 	if( lpObj->m_ActState.Emotion == 1 ) return TRUE;

  00009	8b 45 08	 mov	 eax, DWORD PTR _lpObj$[ebp]
  0000c	8b 88 b0 01 00
	00		 mov	 ecx, DWORD PTR [eax+432]
  00012	c1 e9 04	 shr	 ecx, 4
  00015	83 e1 0f	 and	 ecx, 15			; 0000000fH
  00018	83 f9 01	 cmp	 ecx, 1
  0001b	75 0a		 jne	 SHORT $LN2@gObjMonste
  0001d	b8 01 00 00 00	 mov	 eax, 1
  00022	e9 91 00 00 00	 jmp	 $LN1@gObjMonste
$LN2@gObjMonste:

; 528  : 
; 529  : #ifdef ADD_KANTURU_20060627
; 530  : 	if( lpObj->MapNumber == MAP_INDEX_KANTURU_BOSS && lpObj->m_PosNum < 0 )
; 531  : 	{
; 532  : 		tx -= lpObj->StartX;
; 533  : 		ty -= lpObj->StartY;
; 534  : 
; 535  : 		int dis = ( int )sqrt( (double)( tx * tx ) + ( ty * ty ) );
; 536  : 
; 537  : 		if( dis > 30 ) 
; 538  : 		{
; 539  : 			LogAddTD( "[ KANTURU ][ Debug - m_PosNum ] Fail %s(Index:%d) X%d-Y%d -> X%d-Y%d(%d)",
; 540  : 				lpObj->Name, lpObj->Class, lpObj->StartX, lpObj->StartY, tx, ty, dis );
; 541  : 			return FALSE;		
; 542  : 		}
; 543  : 	}
; 544  : 	else
; 545  : 	{
; 546  : 		LPMONSTER_POSITION lpPos = (LPMONSTER_POSITION)&gMSetBase.m_Mp[lpObj->m_PosNum];
; 547  : 
; 548  : 		if( lpPos->m_Dis < 1 ) return FALSE;
; 549  : 
; 550  : 		tx -= lpObj->StartX;
; 551  : 		ty -= lpObj->StartY;
; 552  : 
; 553  : 		int dis = (int)sqrt((double)(tx*tx)+(ty*ty));
; 554  : 
; 555  : 		if( dis > lpPos->m_Dis ) return FALSE;
; 556  : 	}
; 557  : #else
; 558  : 	LPMONSTER_POSITION lpPos = (LPMONSTER_POSITION)&gMSetBase.m_Mp[lpObj->m_PosNum];

  00027	8b 45 08	 mov	 eax, DWORD PTR _lpObj$[ebp]
  0002a	0f bf 88 0c 02
	00 00		 movsx	 ecx, WORD PTR [eax+524]
  00031	6b d1 0c	 imul	 edx, ecx, 12
  00034	81 c2 04 00 00
	00		 add	 edx, OFFSET ?gMSetBase@@3VCMonsterSetBase@@A+4
  0003a	89 55 fc	 mov	 DWORD PTR _lpPos$[ebp], edx

; 559  : 
; 560  : 	if( lpPos->m_Dis < 1 ) return FALSE;

  0003d	8b 45 fc	 mov	 eax, DWORD PTR _lpPos$[ebp]
  00040	0f b6 48 05	 movzx	 ecx, BYTE PTR [eax+5]
  00044	83 f9 01	 cmp	 ecx, 1
  00047	7d 04		 jge	 SHORT $LN3@gObjMonste
  00049	33 c0		 xor	 eax, eax
  0004b	eb 6b		 jmp	 SHORT $LN1@gObjMonste
$LN3@gObjMonste:

; 561  : 
; 562  : 	tx -= lpObj->StartX;

  0004d	8b 45 08	 mov	 eax, DWORD PTR _lpObj$[ebp]
  00050	0f b6 88 1a 01
	00 00		 movzx	 ecx, BYTE PTR [eax+282]
  00057	8b 55 0c	 mov	 edx, DWORD PTR _tx$[ebp]
  0005a	2b d1		 sub	 edx, ecx
  0005c	89 55 0c	 mov	 DWORD PTR _tx$[ebp], edx

; 563  : 	ty -= lpObj->StartY;

  0005f	8b 45 08	 mov	 eax, DWORD PTR _lpObj$[ebp]
  00062	0f b6 88 1b 01
	00 00		 movzx	 ecx, BYTE PTR [eax+283]
  00069	8b 55 10	 mov	 edx, DWORD PTR _ty$[ebp]
  0006c	2b d1		 sub	 edx, ecx
  0006e	89 55 10	 mov	 DWORD PTR _ty$[ebp], edx

; 564  : 
; 565  : 	int dis = (int)sqrt((double)(tx*tx)+(ty*ty));

  00071	8b 45 0c	 mov	 eax, DWORD PTR _tx$[ebp]
  00074	0f af 45 0c	 imul	 eax, DWORD PTR _tx$[ebp]
  00078	f2 0f 2a c0	 cvtsi2sd xmm0, eax
  0007c	8b 4d 10	 mov	 ecx, DWORD PTR _ty$[ebp]
  0007f	0f af 4d 10	 imul	 ecx, DWORD PTR _ty$[ebp]
  00083	f2 0f 2a c9	 cvtsi2sd xmm1, ecx
  00087	f2 0f 58 c1	 addsd	 xmm0, xmm1
  0008b	83 ec 08	 sub	 esp, 8
  0008e	f2 0f 11 04 24	 movsd	 QWORD PTR [esp], xmm0
  00093	e8 00 00 00 00	 call	 _sqrt
  00098	83 c4 08	 add	 esp, 8
  0009b	e8 00 00 00 00	 call	 __ftol2_sse
  000a0	89 45 f8	 mov	 DWORD PTR _dis$[ebp], eax

; 566  : 
; 567  : 	if( dis > lpPos->m_Dis ) return FALSE;

  000a3	8b 45 fc	 mov	 eax, DWORD PTR _lpPos$[ebp]
  000a6	0f b6 48 05	 movzx	 ecx, BYTE PTR [eax+5]
  000aa	39 4d f8	 cmp	 DWORD PTR _dis$[ebp], ecx
  000ad	7e 04		 jle	 SHORT $LN4@gObjMonste
  000af	33 c0		 xor	 eax, eax
  000b1	eb 05		 jmp	 SHORT $LN1@gObjMonste
$LN4@gObjMonste:

; 568  : #endif
; 569  : 
; 570  : 	return TRUE;

  000b3	b8 01 00 00 00	 mov	 eax, 1
$LN1@gObjMonste:

; 571  : }

  000b8	5f		 pop	 edi
  000b9	5e		 pop	 esi
  000ba	5b		 pop	 ebx
  000bb	8b e5		 mov	 esp, ebp
  000bd	5d		 pop	 ebp
  000be	c3		 ret	 0
?gObjMonsterMoveCheck@@YAHPAVOBJECTSTRUCT@@HH@Z ENDP	; gObjMonsterMoveCheck
_TEXT	ENDS
; Function compile flags: /Odtp /ZI
; File C:\Mu Online\Mu-GS-Webzen-MC-10093\GameServer\gObjMonster.cpp
;	COMDAT ?gObjMonsterViewportIsCharacter@@YAHPAVOBJECTSTRUCT@@@Z
_TEXT	SEGMENT
_n$1 = -8						; size = 4
_tObjNum$ = -4						; size = 4
_lpObj$ = 8						; size = 4
?gObjMonsterViewportIsCharacter@@YAHPAVOBJECTSTRUCT@@@Z PROC ; gObjMonsterViewportIsCharacter, COMDAT

; 356  : {

  00000	55		 push	 ebp
  00001	8b ec		 mov	 ebp, esp
  00003	83 ec 48	 sub	 esp, 72			; 00000048H
  00006	53		 push	 ebx
  00007	56		 push	 esi
  00008	57		 push	 edi

; 357  : 	int tObjNum;
; 358  : 
; 359  : 	for(int n=0; n<MAX_MONVIEWPORTOBJECT; n++)

  00009	c7 45 f8 00 00
	00 00		 mov	 DWORD PTR _n$1[ebp], 0
  00010	eb 09		 jmp	 SHORT $LN4@gObjMonste
$LN2@gObjMonste:
  00012	8b 45 f8	 mov	 eax, DWORD PTR _n$1[ebp]
  00015	83 c0 01	 add	 eax, 1
  00018	89 45 f8	 mov	 DWORD PTR _n$1[ebp], eax
$LN4@gObjMonste:
  0001b	83 7d f8 14	 cmp	 DWORD PTR _n$1[ebp], 20	; 00000014H
  0001f	7d 3b		 jge	 SHORT $LN3@gObjMonste

; 360  : 	{
; 361  : 		if( lpObj->VpPlayer2[n].state )

  00021	6b 45 f8 0c	 imul	 eax, DWORD PTR _n$1[ebp], 12
  00025	8b 4d 08	 mov	 ecx, DWORD PTR _lpObj$[ebp]
  00028	0f be 94 01 e8
	06 00 00	 movsx	 edx, BYTE PTR [ecx+eax+1768]
  00030	85 d2		 test	 edx, edx
  00032	74 26		 je	 SHORT $LN5@gObjMonste

; 362  : 		{
; 363  : 			tObjNum = lpObj->VpPlayer2[n].number;

  00034	6b 45 f8 0c	 imul	 eax, DWORD PTR _n$1[ebp], 12
  00038	8b 4d 08	 mov	 ecx, DWORD PTR _lpObj$[ebp]
  0003b	0f bf 94 01 ea
	06 00 00	 movsx	 edx, WORD PTR [ecx+eax+1770]
  00043	89 55 fc	 mov	 DWORD PTR _tObjNum$[ebp], edx

; 364  : 			if( tObjNum == lpObj->TargetNumber ) // 대상 유저와 같다면..

  00046	8b 45 08	 mov	 eax, DWORD PTR _lpObj$[ebp]
  00049	0f bf 88 ac 02
	00 00		 movsx	 ecx, WORD PTR [eax+684]
  00050	39 4d fc	 cmp	 DWORD PTR _tObjNum$[ebp], ecx
  00053	75 05		 jne	 SHORT $LN5@gObjMonste

; 365  : 				return n;

  00055	8b 45 f8	 mov	 eax, DWORD PTR _n$1[ebp]
  00058	eb 05		 jmp	 SHORT $LN1@gObjMonste
$LN5@gObjMonste:

; 366  : 		}
; 367  : 	}

  0005a	eb b6		 jmp	 SHORT $LN2@gObjMonste
$LN3@gObjMonste:

; 368  : 	return -1;

  0005c	83 c8 ff	 or	 eax, -1
$LN1@gObjMonste:

; 369  : }

  0005f	5f		 pop	 edi
  00060	5e		 pop	 esi
  00061	5b		 pop	 ebx
  00062	8b e5		 mov	 esp, ebp
  00064	5d		 pop	 ebp
  00065	c3		 ret	 0
?gObjMonsterViewportIsCharacter@@YAHPAVOBJECTSTRUCT@@@Z ENDP ; gObjMonsterViewportIsCharacter
_TEXT	ENDS
; Function compile flags: /Odtp /ZI
; File C:\Mu Online\Mu-GS-Webzen-MC-10093\GameServer\gObjMonster.cpp
;	COMDAT ?gObjMonsterMoveRegen@@YAXHHPAVOBJECTSTRUCT@@@Z
_TEXT	SEGMENT
_x$ = 8							; size = 4
_y$ = 12						; size = 4
_lpObj$ = 16						; size = 4
?gObjMonsterMoveRegen@@YAXHHPAVOBJECTSTRUCT@@@Z PROC	; gObjMonsterMoveRegen, COMDAT

; 160  : {

  00000	55		 push	 ebp
  00001	8b ec		 mov	 ebp, esp
  00003	83 ec 40	 sub	 esp, 64			; 00000040H
  00006	53		 push	 ebx
  00007	56		 push	 esi
  00008	57		 push	 edi

; 161  : 	gMSetBase.GetBoxPosition(lpObj->MapNumber, x-1, y-1, x+1, y+1, lpObj->X, lpObj->Y);

  00009	8b 45 10	 mov	 eax, DWORD PTR _lpObj$[ebp]
  0000c	05 06 01 00 00	 add	 eax, 262		; 00000106H
  00011	50		 push	 eax
  00012	8b 4d 10	 mov	 ecx, DWORD PTR _lpObj$[ebp]
  00015	81 c1 04 01 00
	00		 add	 ecx, 260		; 00000104H
  0001b	51		 push	 ecx
  0001c	8b 55 0c	 mov	 edx, DWORD PTR _y$[ebp]
  0001f	83 c2 01	 add	 edx, 1
  00022	52		 push	 edx
  00023	8b 45 08	 mov	 eax, DWORD PTR _x$[ebp]
  00026	83 c0 01	 add	 eax, 1
  00029	50		 push	 eax
  0002a	8b 4d 0c	 mov	 ecx, DWORD PTR _y$[ebp]
  0002d	83 e9 01	 sub	 ecx, 1
  00030	51		 push	 ecx
  00031	8b 55 08	 mov	 edx, DWORD PTR _x$[ebp]
  00034	83 ea 01	 sub	 edx, 1
  00037	52		 push	 edx
  00038	8b 45 10	 mov	 eax, DWORD PTR _lpObj$[ebp]
  0003b	0f b6 88 09 01
	00 00		 movzx	 ecx, BYTE PTR [eax+265]
  00042	51		 push	 ecx
  00043	b9 00 00 00 00	 mov	 ecx, OFFSET ?gMSetBase@@3VCMonsterSetBase@@A ; gMSetBase
  00048	e8 00 00 00 00	 call	 ?GetBoxPosition@CMonsterSetBase@@QAEHHHHHHAAF0@Z ; CMonsterSetBase::GetBoxPosition

; 162  : 	lpObj->TX = lpObj->X;

  0004d	8b 45 10	 mov	 eax, DWORD PTR _lpObj$[ebp]
  00050	8b 4d 10	 mov	 ecx, DWORD PTR _lpObj$[ebp]
  00053	66 8b 91 04 01
	00 00		 mov	 dx, WORD PTR [ecx+260]
  0005a	66 89 90 20 01
	00 00		 mov	 WORD PTR [eax+288], dx

; 163  : 	lpObj->TY = lpObj->Y;

  00061	8b 45 10	 mov	 eax, DWORD PTR _lpObj$[ebp]
  00064	8b 4d 10	 mov	 ecx, DWORD PTR _lpObj$[ebp]
  00067	66 8b 91 06 01
	00 00		 mov	 dx, WORD PTR [ecx+262]
  0006e	66 89 90 22 01
	00 00		 mov	 WORD PTR [eax+290], dx

; 164  : 	lpObj->MTX = lpObj->X;

  00075	8b 45 10	 mov	 eax, DWORD PTR _lpObj$[ebp]
  00078	8b 4d 10	 mov	 ecx, DWORD PTR _lpObj$[ebp]
  0007b	66 8b 91 04 01
	00 00		 mov	 dx, WORD PTR [ecx+260]
  00082	66 89 90 24 01
	00 00		 mov	 WORD PTR [eax+292], dx

; 165  : 	lpObj->MTY = lpObj->Y;

  00089	8b 45 10	 mov	 eax, DWORD PTR _lpObj$[ebp]
  0008c	8b 4d 10	 mov	 ecx, DWORD PTR _lpObj$[ebp]
  0008f	66 8b 91 06 01
	00 00		 mov	 dx, WORD PTR [ecx+262]
  00096	66 89 90 26 01
	00 00		 mov	 WORD PTR [eax+294], dx

; 166  : 	lpObj->StartX = (BYTE)lpObj->X;

  0009d	8b 45 10	 mov	 eax, DWORD PTR _lpObj$[ebp]
  000a0	8b 4d 10	 mov	 ecx, DWORD PTR _lpObj$[ebp]
  000a3	8a 91 04 01 00
	00		 mov	 dl, BYTE PTR [ecx+260]
  000a9	88 90 1a 01 00
	00		 mov	 BYTE PTR [eax+282], dl

; 167  : 	lpObj->StartY = (BYTE)lpObj->Y;

  000af	8b 45 10	 mov	 eax, DWORD PTR _lpObj$[ebp]
  000b2	8b 4d 10	 mov	 ecx, DWORD PTR _lpObj$[ebp]
  000b5	8a 91 06 01 00
	00		 mov	 dl, BYTE PTR [ecx+262]
  000bb	88 90 1b 01 00
	00		 mov	 BYTE PTR [eax+283], dl

; 168  : 	//LogAdd("위치 이동 %d %d", x, y);
; 169  : }

  000c1	5f		 pop	 edi
  000c2	5e		 pop	 esi
  000c3	5b		 pop	 ebx
  000c4	8b e5		 mov	 esp, ebp
  000c6	5d		 pop	 ebp
  000c7	c3		 ret	 0
?gObjMonsterMoveRegen@@YAXHHPAVOBJECTSTRUCT@@@Z ENDP	; gObjMonsterMoveRegen
_TEXT	ENDS
; Function compile flags: /Odtp /ZI
; File C:\Mu Online\Mu-GS-Webzen-MC-10093\GameServer\gObjMonster.cpp
;	COMDAT ?gEventMonsterItemDrop@@YAHPAVOBJECTSTRUCT@@0@Z
_TEXT	SEGMENT
tv647 = -200						; size = 4
tv648 = -196						; size = 4
_MaxHitUser$1 = -128					; size = 4
_iDropRate$2 = -124					; size = 4
_MaxHitUser$3 = -120					; size = 4
_MaxHitUser$4 = -116					; size = 4
_MaxHitUser$5 = -112					; size = 4
_MaxHitUser$6 = -108					; size = 4
_MaxHitUser$7 = -104					; size = 4
_MaxHitUser$8 = -100					; size = 4
_MaxHitUser$9 = -96					; size = 4
_MaxHitUser$10 = -92					; size = 4
_MaxHitUser$11 = -88					; size = 4
_MaxHitUser$12 = -84					; size = 4
_lpattr$13 = -80					; size = 4
_MaxHitUser$14 = -76					; size = 4
_lpattr$15 = -72					; size = 4
_lpattr$16 = -68					; size = 4
_partycount$17 = -64					; size = 4
_MaxHitUser$18 = -60					; size = 4
_MaxHitUser$19 = -56					; size = 4
_lpattr$20 = -52					; size = 4
_MaxHitUser$21 = -48					; size = 4
_callbead_level$22 = -44				; size = 4
_level$23 = -40						; size = 4
_lpattr$24 = -36					; size = 4
_Option3$ = -32						; size = 4
_Option2$ = -28						; size = 4
_Option1$ = -24						; size = 4
_dur$ = -20						; size = 4
_y$ = -16						; size = 4
_x$ = -12						; size = 4
_level$ = -8						; size = 4
_type$ = -4						; size = 4
_lpObj$ = 8						; size = 4
_lpTargetObj$ = 12					; size = 4
?gEventMonsterItemDrop@@YAHPAVOBJECTSTRUCT@@0@Z PROC	; gEventMonsterItemDrop, COMDAT

; 4883 : {

  00000	55		 push	 ebp
  00001	8b ec		 mov	 ebp, esp
  00003	81 ec c8 00 00
	00		 sub	 esp, 200		; 000000c8H
  00009	53		 push	 ebx
  0000a	56		 push	 esi
  0000b	57		 push	 edi

; 4884 : 	
; 4885 : 	int type, level, x, y;
; 4886 : 	float dur=0;

  0000c	0f 57 c0	 xorps	 xmm0, xmm0
  0000f	f3 0f 11 45 ec	 movss	 DWORD PTR _dur$[ebp], xmm0

; 4887 : 	int Option1 = 0;

  00014	c7 45 e8 00 00
	00 00		 mov	 DWORD PTR _Option1$[ebp], 0

; 4888 : 	int Option2 = 0;

  0001b	c7 45 e4 00 00
	00 00		 mov	 DWORD PTR _Option2$[ebp], 0

; 4889 : 	int Option3 = 0;

  00022	c7 45 e0 00 00
	00 00		 mov	 DWORD PTR _Option3$[ebp], 0

; 4890 : 
; 4891 : 
; 4892 : #ifdef ADD_ITEM_FENRIR_01_20051110
; 4893 : 	// 펜릴 재료 아이템 드랍
; 4894 : 	if( g_bFenrirStuffItemDrop )
; 4895 : 	{
; 4896 : 		Option1 = 0;
; 4897 : 		Option2 = 0;
; 4898 : 		Option3 = 0;
; 4899 : 
; 4900 : 		BOOL bDropStuff = FALSE;
; 4901 : 
; 4902 : 		// 1. > 갑옷 파편 드랍
; 4903 : 		if( lpObj->Level >= g_iFenrirStuff_01_DropLv_Min 
; 4904 : 			&& lpObj->Level <= g_iFenrirStuff_01_DropLv_Max 
; 4905 : 			&& lpObj->MapNumber == g_iFenrirStuff_01_DropMap 
; 4906 : 			&& !bDropStuff )
; 4907 : 		{
; 4908 : 			if( (rand()%10000) < g_iFenrirStuff_01_DropRate )
; 4909 : 			{
; 4910 : 				bDropStuff	= TRUE;
; 4911 : 				type		= ItemGetNumberMake(13,32);
; 4912 : 				
; 4913 : 			}
; 4914 : 		}
; 4915 : 
; 4916 : 		// 2. > 여신의 가호 드랍
; 4917 : 		if( lpObj->Level >= g_iFenrirStuff_02_DropLv_Min 
; 4918 : 			&& lpObj->Level <= g_iFenrirStuff_02_DropLv_Max
; 4919 : 			&& lpObj->MapNumber == g_iFenrirStuff_02_DropMap
; 4920 : 			&& !bDropStuff )
; 4921 : 		{
; 4922 : 			if( (rand()%10000) < g_iFenrirStuff_02_DropRate )
; 4923 : 			{
; 4924 : 				bDropStuff	= TRUE;
; 4925 : 				type		= ItemGetNumberMake(13,33);
; 4926 : 			}
; 4927 : 		}
; 4928 : 
; 4929 : 		// 3. > 맹수의 발톱 드랍
; 4930 : 		if( lpObj->Level >= g_iFenrirStuff_03_DropLv_Min 
; 4931 : 			&& lpObj->Level <= g_iFenrirStuff_03_DropLv_Max
; 4932 : 			&& lpObj->MapNumber == g_iFenrirStuff_03_DropMap
; 4933 : 			&& !bDropStuff )
; 4934 : 		{
; 4935 : 			if( (rand()%10000) < g_iFenrirStuff_03_DropRate )
; 4936 : 			{
; 4937 : 				bDropStuff	= TRUE;
; 4938 : 				type		= ItemGetNumberMake(13,34);
; 4939 : 			}
; 4940 : 		}
; 4941 : 
; 4942 : 		if( bDropStuff )
; 4943 : 		{
; 4944 : 			level   = 0;
; 4945 : 			x		= lpObj->X;
; 4946 : 			y		= lpObj->Y;
; 4947 : 			dur		= 1;
; 4948 : 			
; 4949 : 			int MaxHitUser = gObjMonsterTopHitDamageUser(lpObj);
; 4950 : 			ItemSerialCreateSend(lpObj->m_Index, lpObj->MapNumber, (BYTE)x, (BYTE)y, type, level, (BYTE)dur, Option1, Option2, Option3, MaxHitUser);
; 4951 : 			return TRUE;
; 4952 : 		}
; 4953 : 		
; 4954 : 	}
; 4955 : #endif // ADD_ITEM_FENRIR_01_20051110
; 4956 : 	
; 4957 : #ifdef MODIFY_SET_SEED_SPHERE_DROP_RATE_20080903
; 4958 : 	int iSphereItemCode = 0;
; 4959 : 	iSphereItemCode = g_SocketOptionSystem.GetSphereDropInfo( lpObj->Level );
; 4960 : 
; 4961 : 	if( iSphereItemCode != -1 )
; 4962 : 	{
; 4963 : 		int iMaxHitUser = gObjMonsterTopHitDamageUser(lpObj);
; 4964 : 		ItemSerialCreateSend(lpObj->m_Index, lpObj->MapNumber, (BYTE)lpObj->X, (BYTE)lpObj->Y, iSphereItemCode, 0, 1, 0, 0, 0, iMaxHitUser);
; 4965 : 		return TRUE;
; 4966 : 	}
; 4967 : #endif // MODIFY_SET_SEED_SPHERE_DROP_RATE_20080903
; 4968 : 	
; 4969 : #ifdef ADD_SHIELD_POINT_01_20060403
; 4970 : 	if( g_CompoundPotionDropOn == TRUE )
; 4971 : 	{
; 4972 : 		BOOL bDropStuff = FALSE;
; 4973 : 		int iType		= 0;
; 4974 : 
; 4975 : 		if( lpObj->Level >= g_iCompoundPotionLv1DropLevel )
; 4976 : 		{
; 4977 : 			if( ( (rand()%10000) <= g_iCompoundPotionLv1DropRate )
; 4978 : 				&& ( bDropStuff == FALSE )
; 4979 : 				)
; 4980 : 			{
; 4981 : 				bDropStuff	= TRUE;
; 4982 : 				iType		=ItemGetNumberMake(14,38);		// 작은 복합 물약
; 4983 : 			}
; 4984 : 		}
; 4985 : 		
; 4986 : 		if ( bDropStuff == FALSE && lpObj->Level >= g_iCompoundPotionLv2DropLevel )
; 4987 : 		{
; 4988 : 			if( (rand()%10000) <= g_iCompoundPotionLv2DropRate )
; 4989 : 			{
; 4990 : 				bDropStuff = TRUE;
; 4991 : 				iType		=ItemGetNumberMake(14,39);		// 중간 복합 물약
; 4992 : 			}
; 4993 : 		}
; 4994 : 
; 4995 : 		if ( bDropStuff == FALSE && lpObj->Level >= g_iCompoundPotionLv3DropLevel )
; 4996 : 		{
; 4997 : 			if( (rand()%10000) <= g_iCompoundPotionLv3DropRate )
; 4998 : 			{
; 4999 : 				bDropStuff = TRUE;
; 5000 : 				iType		=ItemGetNumberMake(14,40);		// 큰 복합 물약
; 5001 : 			}
; 5002 : 		}
; 5003 : 
; 5004 : 		if( bDropStuff == TRUE )
; 5005 : 		{
; 5006 : 			int level		= 0;
; 5007 : 			int dur			= 1;
; 5008 : 			int iMaxHitUser = gObjMonsterTopHitDamageUser(lpObj);
; 5009 : 			ItemSerialCreateSend(lpObj->m_Index, lpObj->MapNumber, (BYTE)lpObj->X, (BYTE)lpObj->Y, iType, level, (BYTE)dur, 0, 0, 0, iMaxHitUser);
; 5010 : 			return TRUE;
; 5011 : 		}
; 5012 : 	}
; 5013 : #endif // ADD_SHIELD_POINT_01_20060403
; 5014 : 
; 5015 : #ifdef ITEMDROP_RINGOFTRANSFORM
; 5016 : 	if( gIsItemDropRingOfTransform )

  00029	83 3d 00 00 00
	00 00		 cmp	 DWORD PTR ?gIsItemDropRingOfTransform@@3HA, 0 ; gIsItemDropRingOfTransform
  00030	0f 84 36 01 00
	00		 je	 $LN4@gEventMons

; 5017 : 	{	
; 5018 : 		// 변신 반지 드롭
; 5019 : 		if( (rand()%10000) < gItemDropRingOfTransform )

  00036	e8 00 00 00 00	 call	 _rand
  0003b	99		 cdq
  0003c	b9 10 27 00 00	 mov	 ecx, 10000		; 00002710H
  00041	f7 f9		 idiv	 ecx
  00043	3b 15 00 00 00
	00		 cmp	 edx, DWORD PTR ?gItemDropRingOfTransform@@3HA ; gItemDropRingOfTransform
  00049	0f 8d 1d 01 00
	00		 jge	 $LN4@gEventMons

; 5020 : 		{
; 5021 : 			LPMONSTER_ATTRIBUTE lpattr = gMAttr.GetAttr(lpObj->Class);

  0004f	8b 45 08	 mov	 eax, DWORD PTR _lpObj$[ebp]
  00052	0f b7 88 9c 00
	00 00		 movzx	 ecx, WORD PTR [eax+156]
  00059	51		 push	 ecx
  0005a	b9 00 00 00 00	 mov	 ecx, OFFSET ?gMAttr@@3VCMonsterAttr@@A ; gMAttr
  0005f	e8 00 00 00 00	 call	 ?GetAttr@CMonsterAttr@@QAEPAUMONSTER_ATTRIBUTE@@H@Z ; CMonsterAttr::GetAttr
  00064	89 45 dc	 mov	 DWORD PTR _lpattr$24[ebp], eax

; 5022 : 			if( lpattr )

  00067	83 7d dc 00	 cmp	 DWORD PTR _lpattr$24[ebp], 0
  0006b	0f 84 fb 00 00
	00		 je	 $LN4@gEventMons

; 5023 : 			{
; 5024 : 				int level = lpattr->m_Level;												

  00071	8b 45 dc	 mov	 eax, DWORD PTR _lpattr$24[ebp]
  00074	8b 48 1c	 mov	 ecx, DWORD PTR [eax+28]
  00077	89 4d d8	 mov	 DWORD PTR _level$23[ebp], ecx

; 5025 : 				int callbead_level=0;

  0007a	c7 45 d4 00 00
	00 00		 mov	 DWORD PTR _callbead_level$22[ebp], 0

; 5026 : 				if( level < 0 ) level = 0;

  00081	83 7d d8 00	 cmp	 DWORD PTR _level$23[ebp], 0
  00085	7d 07		 jge	 SHORT $LN5@gEventMons
  00087	c7 45 d8 00 00
	00 00		 mov	 DWORD PTR _level$23[ebp], 0
$LN5@gEventMons:

; 5027 : 				callbead_level = level/10;

  0008e	8b 45 d8	 mov	 eax, DWORD PTR _level$23[ebp]
  00091	99		 cdq
  00092	b9 0a 00 00 00	 mov	 ecx, 10			; 0000000aH
  00097	f7 f9		 idiv	 ecx
  00099	89 45 d4	 mov	 DWORD PTR _callbead_level$22[ebp], eax

; 5028 : 				if( callbead_level > 0 ) callbead_level -= 1;

  0009c	83 7d d4 00	 cmp	 DWORD PTR _callbead_level$22[ebp], 0
  000a0	7e 09		 jle	 SHORT $LN6@gEventMons
  000a2	8b 45 d4	 mov	 eax, DWORD PTR _callbead_level$22[ebp]
  000a5	83 e8 01	 sub	 eax, 1
  000a8	89 45 d4	 mov	 DWORD PTR _callbead_level$22[ebp], eax
$LN6@gEventMons:

; 5029 : 				if( callbead_level > 5 ) callbead_level = 5;				

  000ab	83 7d d4 05	 cmp	 DWORD PTR _callbead_level$22[ebp], 5
  000af	7e 07		 jle	 SHORT $LN7@gEventMons
  000b1	c7 45 d4 05 00
	00 00		 mov	 DWORD PTR _callbead_level$22[ebp], 5
$LN7@gEventMons:

; 5030 : 
; 5031 : 				dur  = (float)100+(rand()%100);	// 내구도 설정

  000b8	e8 00 00 00 00	 call	 _rand
  000bd	99		 cdq
  000be	b9 64 00 00 00	 mov	 ecx, 100		; 00000064H
  000c3	f7 f9		 idiv	 ecx
  000c5	f3 0f 2a c2	 cvtsi2ss xmm0, edx
  000c9	f3 0f 58 05 00
	00 00 00	 addss	 xmm0, DWORD PTR __real@42c80000
  000d1	f3 0f 11 45 ec	 movss	 DWORD PTR _dur$[ebp], xmm0

; 5032 : 				x    = lpObj->X;

  000d6	8b 45 08	 mov	 eax, DWORD PTR _lpObj$[ebp]
  000d9	0f bf 88 04 01
	00 00		 movsx	 ecx, WORD PTR [eax+260]
  000e0	89 4d f4	 mov	 DWORD PTR _x$[ebp], ecx

; 5033 : 				y    = lpObj->Y;

  000e3	8b 45 08	 mov	 eax, DWORD PTR _lpObj$[ebp]
  000e6	0f bf 88 06 01
	00 00		 movsx	 ecx, WORD PTR [eax+262]
  000ed	89 4d f0	 mov	 DWORD PTR _y$[ebp], ecx

; 5034 : 				level= callbead_level;			// 변신 반지 레벨

  000f0	8b 45 d4	 mov	 eax, DWORD PTR _callbead_level$22[ebp]
  000f3	89 45 d8	 mov	 DWORD PTR _level$23[ebp], eax

; 5035 : 				type = ItemGetNumberMake(13, 10);			

  000f6	6a 0a		 push	 10			; 0000000aH
  000f8	6a 0d		 push	 13			; 0000000dH
  000fa	e8 00 00 00 00	 call	 ?ItemGetNumberMake@@YAHHH@Z ; ItemGetNumberMake
  000ff	83 c4 08	 add	 esp, 8
  00102	89 45 fc	 mov	 DWORD PTR _type$[ebp], eax

; 5036 : 				int MaxHitUser = gObjMonsterTopHitDamageUser(lpObj);

  00105	8b 45 08	 mov	 eax, DWORD PTR _lpObj$[ebp]
  00108	50		 push	 eax
  00109	e8 00 00 00 00	 call	 ?gObjMonsterTopHitDamageUser@@YAHPAVOBJECTSTRUCT@@@Z ; gObjMonsterTopHitDamageUser
  0010e	83 c4 04	 add	 esp, 4
  00111	89 45 d0	 mov	 DWORD PTR _MaxHitUser$21[ebp], eax

; 5037 : 				ItemSerialCreateSend(lpObj->m_Index, lpObj->MapNumber, (BYTE)x, (BYTE)y, type, level, (BYTE)dur, Option1, Option2, Option3, MaxHitUser);

  00114	6a 00		 push	 0
  00116	6a 00		 push	 0
  00118	6a 00		 push	 0
  0011a	8b 45 d0	 mov	 eax, DWORD PTR _MaxHitUser$21[ebp]
  0011d	50		 push	 eax
  0011e	0f b6 4d e0	 movzx	 ecx, BYTE PTR _Option3$[ebp]
  00122	51		 push	 ecx
  00123	0f b6 55 e4	 movzx	 edx, BYTE PTR _Option2$[ebp]
  00127	52		 push	 edx
  00128	0f b6 45 e8	 movzx	 eax, BYTE PTR _Option1$[ebp]
  0012c	50		 push	 eax
  0012d	f3 0f 2c 4d ec	 cvttss2si ecx, DWORD PTR _dur$[ebp]
  00132	0f b6 d1	 movzx	 edx, cl
  00135	52		 push	 edx
  00136	0f b6 45 d8	 movzx	 eax, BYTE PTR _level$23[ebp]
  0013a	50		 push	 eax
  0013b	8b 4d fc	 mov	 ecx, DWORD PTR _type$[ebp]
  0013e	51		 push	 ecx
  0013f	0f b6 55 f0	 movzx	 edx, BYTE PTR _y$[ebp]
  00143	52		 push	 edx
  00144	0f b6 45 f4	 movzx	 eax, BYTE PTR _x$[ebp]
  00148	50		 push	 eax
  00149	8b 4d 08	 mov	 ecx, DWORD PTR _lpObj$[ebp]
  0014c	0f b6 91 09 01
	00 00		 movzx	 edx, BYTE PTR [ecx+265]
  00153	52		 push	 edx
  00154	8b 45 08	 mov	 eax, DWORD PTR _lpObj$[ebp]
  00157	8b 08		 mov	 ecx, DWORD PTR [eax]
  00159	51		 push	 ecx
  0015a	e8 00 00 00 00	 call	 ?ItemSerialCreateSend@@YAXHEEEHEEEEEHEEH@Z ; ItemSerialCreateSend
  0015f	83 c4 38	 add	 esp, 56			; 00000038H

; 5038 : 				return TRUE;				

  00162	b8 01 00 00 00	 mov	 eax, 1
  00167	e9 57 0f 00 00	 jmp	 $LN1@gEventMons
$LN4@gEventMons:

; 5039 : 			}	
; 5040 : 		}
; 5041 : 	}
; 5042 : #endif
; 5043 : 
; 5044 : 
; 5045 : 	if( gFireCrackerEvent )

  0016c	83 3d 00 00 00
	00 00		 cmp	 DWORD PTR ?gFireCrackerEvent@@3HA, 0 ; gFireCrackerEvent
  00173	0f 84 33 02 00
	00		 je	 $LN19@gEventMons

; 5046 : 	{	
; 5047 : 		// 폭죽 이벤트가 진행줄일때
; 5048 : 		if( gLanguage == 0 )

  00179	83 3d 00 00 00
	00 00		 cmp	 DWORD PTR ?gLanguage@@3HA, 0 ; gLanguage
  00180	0f 85 04 01 00
	00		 jne	 $LN9@gEventMons

; 5049 : 		{	
; 5050 : 			// 한국일때는 다르게 처리 된다
; 5051 : 
; 5052 : 			if( lpObj->MapNumber < 7 )

  00186	8b 45 08	 mov	 eax, DWORD PTR _lpObj$[ebp]
  00189	0f b6 88 09 01
	00 00		 movzx	 ecx, BYTE PTR [eax+265]
  00190	83 f9 07	 cmp	 ecx, 7
  00193	0f 8d ec 00 00
	00		 jge	 $LN14@gEventMons

; 5053 : 			{	
; 5054 : 				// 아틀란스 이하에서만 나온다
; 5055 : 				LPMONSTER_ATTRIBUTE lpattr = gMAttr.GetAttr(lpObj->Class);

  00199	8b 45 08	 mov	 eax, DWORD PTR _lpObj$[ebp]
  0019c	0f b7 88 9c 00
	00 00		 movzx	 ecx, WORD PTR [eax+156]
  001a3	51		 push	 ecx
  001a4	b9 00 00 00 00	 mov	 ecx, OFFSET ?gMAttr@@3VCMonsterAttr@@A ; gMAttr
  001a9	e8 00 00 00 00	 call	 ?GetAttr@CMonsterAttr@@QAEPAUMONSTER_ATTRIBUTE@@H@Z ; CMonsterAttr::GetAttr
  001ae	89 45 cc	 mov	 DWORD PTR _lpattr$20[ebp], eax

; 5056 : 				if( lpattr )

  001b1	83 7d cc 00	 cmp	 DWORD PTR _lpattr$20[ebp], 0
  001b5	0f 84 ca 00 00
	00		 je	 $LN14@gEventMons

; 5057 : 				{
; 5058 : 					if( lpattr->m_Level >= 17 )

  001bb	8b 45 cc	 mov	 eax, DWORD PTR _lpattr$20[ebp]
  001be	83 78 1c 11	 cmp	 DWORD PTR [eax+28], 17	; 00000011H
  001c2	0f 8c bd 00 00
	00		 jl	 $LN14@gEventMons

; 5059 : 					{	
; 5060 : 						// 자이언트 이상일때만
; 5061 : 						if( (rand()%10000) < gFireCrackerDropRate )

  001c8	e8 00 00 00 00	 call	 _rand
  001cd	99		 cdq
  001ce	b9 10 27 00 00	 mov	 ecx, 10000		; 00002710H
  001d3	f7 f9		 idiv	 ecx
  001d5	3b 15 00 00 00
	00		 cmp	 edx, DWORD PTR ?gFireCrackerDropRate@@3HA ; gFireCrackerDropRate
  001db	0f 8d a4 00 00
	00		 jge	 $LN14@gEventMons

; 5062 : 						{
; 5063 : 							dur  = 255;

  001e1	f3 0f 10 05 00
	00 00 00	 movss	 xmm0, DWORD PTR __real@437f0000
  001e9	f3 0f 11 45 ec	 movss	 DWORD PTR _dur$[ebp], xmm0

; 5064 : 							x    = lpObj->X;

  001ee	8b 45 08	 mov	 eax, DWORD PTR _lpObj$[ebp]
  001f1	0f bf 88 04 01
	00 00		 movsx	 ecx, WORD PTR [eax+260]
  001f8	89 4d f4	 mov	 DWORD PTR _x$[ebp], ecx

; 5065 : 							y    = lpObj->Y;

  001fb	8b 45 08	 mov	 eax, DWORD PTR _lpObj$[ebp]
  001fe	0f bf 88 06 01
	00 00		 movsx	 ecx, WORD PTR [eax+262]
  00205	89 4d f0	 mov	 DWORD PTR _y$[ebp], ecx

; 5066 : 							level= 2;	// 폭죽

  00208	c7 45 f8 02 00
	00 00		 mov	 DWORD PTR _level$[ebp], 2

; 5067 : 							type = ItemGetNumberMake(14, 11);			

  0020f	6a 0b		 push	 11			; 0000000bH
  00211	6a 0e		 push	 14			; 0000000eH
  00213	e8 00 00 00 00	 call	 ?ItemGetNumberMake@@YAHHH@Z ; ItemGetNumberMake
  00218	83 c4 08	 add	 esp, 8
  0021b	89 45 fc	 mov	 DWORD PTR _type$[ebp], eax

; 5068 : 							int MaxHitUser = gObjMonsterTopHitDamageUser(lpObj);

  0021e	8b 45 08	 mov	 eax, DWORD PTR _lpObj$[ebp]
  00221	50		 push	 eax
  00222	e8 00 00 00 00	 call	 ?gObjMonsterTopHitDamageUser@@YAHPAVOBJECTSTRUCT@@@Z ; gObjMonsterTopHitDamageUser
  00227	83 c4 04	 add	 esp, 4
  0022a	89 45 c8	 mov	 DWORD PTR _MaxHitUser$19[ebp], eax

; 5069 : 							ItemSerialCreateSend(lpObj->m_Index, lpObj->MapNumber, (BYTE)x, (BYTE)y, type, level, (BYTE)dur, Option1, Option2, Option3, MaxHitUser);

  0022d	6a 00		 push	 0
  0022f	6a 00		 push	 0
  00231	6a 00		 push	 0
  00233	8b 45 c8	 mov	 eax, DWORD PTR _MaxHitUser$19[ebp]
  00236	50		 push	 eax
  00237	0f b6 4d e0	 movzx	 ecx, BYTE PTR _Option3$[ebp]
  0023b	51		 push	 ecx
  0023c	0f b6 55 e4	 movzx	 edx, BYTE PTR _Option2$[ebp]
  00240	52		 push	 edx
  00241	0f b6 45 e8	 movzx	 eax, BYTE PTR _Option1$[ebp]
  00245	50		 push	 eax
  00246	f3 0f 2c 4d ec	 cvttss2si ecx, DWORD PTR _dur$[ebp]
  0024b	0f b6 d1	 movzx	 edx, cl
  0024e	52		 push	 edx
  0024f	0f b6 45 f8	 movzx	 eax, BYTE PTR _level$[ebp]
  00253	50		 push	 eax
  00254	8b 4d fc	 mov	 ecx, DWORD PTR _type$[ebp]
  00257	51		 push	 ecx
  00258	0f b6 55 f0	 movzx	 edx, BYTE PTR _y$[ebp]
  0025c	52		 push	 edx
  0025d	0f b6 45 f4	 movzx	 eax, BYTE PTR _x$[ebp]
  00261	50		 push	 eax
  00262	8b 4d 08	 mov	 ecx, DWORD PTR _lpObj$[ebp]
  00265	0f b6 91 09 01
	00 00		 movzx	 edx, BYTE PTR [ecx+265]
  0026c	52		 push	 edx
  0026d	8b 45 08	 mov	 eax, DWORD PTR _lpObj$[ebp]
  00270	8b 08		 mov	 ecx, DWORD PTR [eax]
  00272	51		 push	 ecx
  00273	e8 00 00 00 00	 call	 ?ItemSerialCreateSend@@YAXHEEEHEEEEEHEEH@Z ; ItemSerialCreateSend
  00278	83 c4 38	 add	 esp, 56			; 00000038H

; 5070 : 							return TRUE;

  0027b	b8 01 00 00 00	 mov	 eax, 1
  00280	e9 3e 0e 00 00	 jmp	 $LN1@gEventMons
$LN14@gEventMons:

; 5071 : 						}
; 5072 : 					}
; 5073 : 				}
; 5074 : 			}
; 5075 : 		}

  00285	e9 22 01 00 00	 jmp	 $LN19@gEventMons
$LN9@gEventMons:

; 5076 : 		else
; 5077 : 		{
; 5078 : 			int MaxHitUser = gObjMonsterTopHitDamageUser(lpObj);

  0028a	8b 45 08	 mov	 eax, DWORD PTR _lpObj$[ebp]
  0028d	50		 push	 eax
  0028e	e8 00 00 00 00	 call	 ?gObjMonsterTopHitDamageUser@@YAHPAVOBJECTSTRUCT@@@Z ; gObjMonsterTopHitDamageUser
  00293	83 c4 04	 add	 esp, 4
  00296	89 45 c4	 mov	 DWORD PTR _MaxHitUser$18[ebp], eax

; 5079 : 			if( MaxHitUser != -1 )

  00299	83 7d c4 ff	 cmp	 DWORD PTR _MaxHitUser$18[ebp], -1
  0029d	0f 84 09 01 00
	00		 je	 $LN19@gEventMons

; 5080 : 			{
; 5081 : 				int partycount = gParty.GetPartyCount(gObj[MaxHitUser].PartyNumber);

  002a3	69 45 c4 a0 1b
	00 00		 imul	 eax, DWORD PTR _MaxHitUser$18[ebp], 7072
  002aa	8b 0d 00 00 00
	00		 mov	 ecx, DWORD PTR ?gObj@@3PAVOBJECTSTRUCT@@A ; gObj
  002b0	8b 94 01 88 02
	00 00		 mov	 edx, DWORD PTR [ecx+eax+648]
  002b7	52		 push	 edx
  002b8	b9 00 00 00 00	 mov	 ecx, OFFSET ?gParty@@3VPartyClass@@A ; gParty
  002bd	e8 00 00 00 00	 call	 ?GetPartyCount@PartyClass@@QAEHH@Z ; PartyClass::GetPartyCount
  002c2	89 45 c0	 mov	 DWORD PTR _partycount$17[ebp], eax

; 5082 : 
; 5083 : 				if( partycount > 0 )

  002c5	83 7d c0 00	 cmp	 DWORD PTR _partycount$17[ebp], 0
  002c9	0f 8e dd 00 00
	00		 jle	 $LN19@gEventMons

; 5084 : 				{	// 파티를 맺었을때만 
; 5085 : 					LPMONSTER_ATTRIBUTE lpattr = gMAttr.GetAttr(lpObj->Class);	

  002cf	8b 45 08	 mov	 eax, DWORD PTR _lpObj$[ebp]
  002d2	0f b7 88 9c 00
	00 00		 movzx	 ecx, WORD PTR [eax+156]
  002d9	51		 push	 ecx
  002da	b9 00 00 00 00	 mov	 ecx, OFFSET ?gMAttr@@3VCMonsterAttr@@A ; gMAttr
  002df	e8 00 00 00 00	 call	 ?GetAttr@CMonsterAttr@@QAEPAUMONSTER_ATTRIBUTE@@H@Z ; CMonsterAttr::GetAttr
  002e4	89 45 bc	 mov	 DWORD PTR _lpattr$16[ebp], eax

; 5086 : 
; 5087 : 					if( lpattr )

  002e7	83 7d bc 00	 cmp	 DWORD PTR _lpattr$16[ebp], 0
  002eb	0f 84 bb 00 00
	00		 je	 $LN19@gEventMons

; 5088 : 					{
; 5089 : 						if( lpattr->m_Level >= 17 )

  002f1	8b 45 bc	 mov	 eax, DWORD PTR _lpattr$16[ebp]
  002f4	83 78 1c 11	 cmp	 DWORD PTR [eax+28], 17	; 00000011H
  002f8	0f 8c ae 00 00
	00		 jl	 $LN19@gEventMons

; 5090 : 						{	// 자이언트 이상일때만
; 5091 : 							if( (rand()%10000) < gFireCrackerDropRate )

  002fe	e8 00 00 00 00	 call	 _rand
  00303	99		 cdq
  00304	b9 10 27 00 00	 mov	 ecx, 10000		; 00002710H
  00309	f7 f9		 idiv	 ecx
  0030b	3b 15 00 00 00
	00		 cmp	 edx, DWORD PTR ?gFireCrackerDropRate@@3HA ; gFireCrackerDropRate
  00311	0f 8d 95 00 00
	00		 jge	 $LN19@gEventMons

; 5092 : 							{
; 5093 : 								dur  = 255;

  00317	f3 0f 10 05 00
	00 00 00	 movss	 xmm0, DWORD PTR __real@437f0000
  0031f	f3 0f 11 45 ec	 movss	 DWORD PTR _dur$[ebp], xmm0

; 5094 : 								x    = lpObj->X;

  00324	8b 45 08	 mov	 eax, DWORD PTR _lpObj$[ebp]
  00327	0f bf 88 04 01
	00 00		 movsx	 ecx, WORD PTR [eax+260]
  0032e	89 4d f4	 mov	 DWORD PTR _x$[ebp], ecx

; 5095 : 								y    = lpObj->Y;

  00331	8b 45 08	 mov	 eax, DWORD PTR _lpObj$[ebp]
  00334	0f bf 88 06 01
	00 00		 movsx	 ecx, WORD PTR [eax+262]
  0033b	89 4d f0	 mov	 DWORD PTR _y$[ebp], ecx

; 5096 : 								level= 2;	// 폭죽

  0033e	c7 45 f8 02 00
	00 00		 mov	 DWORD PTR _level$[ebp], 2

; 5097 : 								type = ItemGetNumberMake(14, 11);			

  00345	6a 0b		 push	 11			; 0000000bH
  00347	6a 0e		 push	 14			; 0000000eH
  00349	e8 00 00 00 00	 call	 ?ItemGetNumberMake@@YAHHH@Z ; ItemGetNumberMake
  0034e	83 c4 08	 add	 esp, 8
  00351	89 45 fc	 mov	 DWORD PTR _type$[ebp], eax

; 5098 : 								ItemSerialCreateSend(lpObj->m_Index, lpObj->MapNumber, (BYTE)x, (BYTE)y, type, level, (BYTE)dur, Option1, Option2, Option3, MaxHitUser);

  00354	6a 00		 push	 0
  00356	6a 00		 push	 0
  00358	6a 00		 push	 0
  0035a	8b 45 c4	 mov	 eax, DWORD PTR _MaxHitUser$18[ebp]
  0035d	50		 push	 eax
  0035e	0f b6 4d e0	 movzx	 ecx, BYTE PTR _Option3$[ebp]
  00362	51		 push	 ecx
  00363	0f b6 55 e4	 movzx	 edx, BYTE PTR _Option2$[ebp]
  00367	52		 push	 edx
  00368	0f b6 45 e8	 movzx	 eax, BYTE PTR _Option1$[ebp]
  0036c	50		 push	 eax
  0036d	f3 0f 2c 4d ec	 cvttss2si ecx, DWORD PTR _dur$[ebp]
  00372	0f b6 d1	 movzx	 edx, cl
  00375	52		 push	 edx
  00376	0f b6 45 f8	 movzx	 eax, BYTE PTR _level$[ebp]
  0037a	50		 push	 eax
  0037b	8b 4d fc	 mov	 ecx, DWORD PTR _type$[ebp]
  0037e	51		 push	 ecx
  0037f	0f b6 55 f0	 movzx	 edx, BYTE PTR _y$[ebp]
  00383	52		 push	 edx
  00384	0f b6 45 f4	 movzx	 eax, BYTE PTR _x$[ebp]
  00388	50		 push	 eax
  00389	8b 4d 08	 mov	 ecx, DWORD PTR _lpObj$[ebp]
  0038c	0f b6 91 09 01
	00 00		 movzx	 edx, BYTE PTR [ecx+265]
  00393	52		 push	 edx
  00394	8b 45 08	 mov	 eax, DWORD PTR _lpObj$[ebp]
  00397	8b 08		 mov	 ecx, DWORD PTR [eax]
  00399	51		 push	 ecx
  0039a	e8 00 00 00 00	 call	 ?ItemSerialCreateSend@@YAXHEEEHEEEEEHEEH@Z ; ItemSerialCreateSend
  0039f	83 c4 38	 add	 esp, 56			; 00000038H

; 5099 : 								return TRUE;

  003a2	b8 01 00 00 00	 mov	 eax, 1
  003a7	e9 17 0d 00 00	 jmp	 $LN1@gEventMons
$LN19@gEventMons:

; 5100 : 							}
; 5101 : 						}
; 5102 : 					}
; 5103 : 				}
; 5104 : 			}
; 5105 : 		}		
; 5106 : 	}
; 5107 : 	
; 5108 : 	
; 5109 : 	if( gXMasEvent )

  003ac	83 3d 00 00 00
	00 00		 cmp	 DWORD PTR ?gXMasEvent@@3HA, 0 ; gXMasEvent
  003b3	74 2f		 je	 SHORT $LN22@gEventMons

; 5110 : 	{	
; 5111 : 		// 크리스마스 이벤트 일때만
; 5112 : #ifdef EVENT_ITEMBAG_UPGRADE		
; 5113 : 		if( !StarOfXMasItemBag )

  003b5	83 3d 00 00 00
	00 00		 cmp	 DWORD PTR ?StarOfXMasItemBag@@3PAVCItemBagEx@@A, 0 ; StarOfXMasItemBag
  003bc	75 07		 jne	 SHORT $LN21@gEventMons

; 5114 : 			return FALSE;

  003be	33 c0		 xor	 eax, eax
  003c0	e9 fe 0c 00 00	 jmp	 $LN1@gEventMons
$LN21@gEventMons:

; 5115 : 		
; 5116 : 		if( StarOfXMasItemBag->DropEventItem(lpObj->m_Index) )

  003c5	8b 45 08	 mov	 eax, DWORD PTR _lpObj$[ebp]
  003c8	8b 08		 mov	 ecx, DWORD PTR [eax]
  003ca	51		 push	 ecx
  003cb	8b 0d 00 00 00
	00		 mov	 ecx, DWORD PTR ?StarOfXMasItemBag@@3PAVCItemBagEx@@A ; StarOfXMasItemBag
  003d1	e8 00 00 00 00	 call	 ?DropEventItem@CItemBagEx@@QAEHH@Z ; CItemBagEx::DropEventItem
  003d6	85 c0		 test	 eax, eax
  003d8	74 0a		 je	 SHORT $LN22@gEventMons

; 5117 : 		{
; 5118 : 			return TRUE;

  003da	b8 01 00 00 00	 mov	 eax, 1
  003df	e9 df 0c 00 00	 jmp	 $LN1@gEventMons
$LN22@gEventMons:

; 5119 : 		}
; 5120 : #else	
; 5121 : 	#ifdef XMAS_EVENT_CHANGE		
; 5122 : 			if( lpObj->MapNumber == MAP_INDEX_DEVIAS )
; 5123 : 			{	// 데비아스에서만
; 5124 : 				if( (rand()%10000) < g_XMasEvent_StarOfXMasDropRate )
; 5125 : 				{
; 5126 : 					dur  = 255;
; 5127 : 					x    = lpObj->X;
; 5128 : 					y    = lpObj->Y;
; 5129 : 					level= 1;
; 5130 : 					type = ItemGetNumberMake(14, 11);
; 5131 : 
; 5132 : 					int MaxHitUser = gObjMonsterTopHitDamageUser(lpObj);
; 5133 : 					ItemSerialCreateSend(lpObj->m_Index, lpObj->MapNumber, (BYTE)x, (BYTE)y, type, level, (BYTE)dur, Option1, Option2, Option3, MaxHitUser);
; 5134 : 					return TRUE;
; 5135 : 				}
; 5136 : 			}
; 5137 : 	#else	
; 5138 : 			LPMONSTER_ATTRIBUTE lpattr = gMAttr.GetAttr(lpObj->Class);	
; 5139 : 
; 5140 : 			if( lpattr )	
; 5141 : 			{
; 5142 : 				if( lpattr->m_Level >= 17 )
; 5143 : 				{	// 자이언트 이상일때만
; 5144 : 					if( (rand()%10000) < g_XMasEvent_StarOfXMasDropRate )
; 5145 : 					{
; 5146 : 						dur  = 255;
; 5147 : 						x    = lpObj->X;
; 5148 : 						y    = lpObj->Y;
; 5149 : 						level= 1;
; 5150 : 						type = ItemGetNumberMake(14, 11);
; 5151 : 
; 5152 : 						int MaxHitUser = gObjMonsterTopHitDamageUser(lpObj);
; 5153 : 						ItemSerialCreateSend(lpObj->m_Index, lpObj->MapNumber, (BYTE)x, (BYTE)y, type, level, (BYTE)dur, Option1, Option2, Option3, MaxHitUser);
; 5154 : 						return TRUE;
; 5155 : 					}
; 5156 : 				}
; 5157 : 			}
; 5158 : 	#endif
; 5159 : #endif
; 5160 : 	}
; 5161 : 
; 5162 : 	if( gHeartOfLoveEvent )

  003e4	83 3d 00 00 00
	00 00		 cmp	 DWORD PTR ?gHeartOfLoveEvent@@3HA, 0 ; gHeartOfLoveEvent
  003eb	0f 84 fd 01 00
	00		 je	 $LN32@gEventMons

; 5163 : 	{	
; 5164 : 		// 폭죽 이벤트가 진행줄일때		
; 5165 : 		if( gLanguage == 2 )

  003f1	83 3d 00 00 00
	00 02		 cmp	 DWORD PTR ?gLanguage@@3HA, 2 ; gLanguage
  003f8	0f 85 f1 00 00
	00		 jne	 $LN24@gEventMons

; 5166 : 		{
; 5167 : 			LPMONSTER_ATTRIBUTE lpattr = gMAttr.GetAttr(lpObj->Class);

  003fe	8b 45 08	 mov	 eax, DWORD PTR _lpObj$[ebp]
  00401	0f b7 88 9c 00
	00 00		 movzx	 ecx, WORD PTR [eax+156]
  00408	51		 push	 ecx
  00409	b9 00 00 00 00	 mov	 ecx, OFFSET ?gMAttr@@3VCMonsterAttr@@A ; gMAttr
  0040e	e8 00 00 00 00	 call	 ?GetAttr@CMonsterAttr@@QAEPAUMONSTER_ATTRIBUTE@@H@Z ; CMonsterAttr::GetAttr
  00413	89 45 b8	 mov	 DWORD PTR _lpattr$15[ebp], eax

; 5168 : 			if( lpattr )

  00416	83 7d b8 00	 cmp	 DWORD PTR _lpattr$15[ebp], 0
  0041a	0f 84 ca 00 00
	00		 je	 $LN28@gEventMons

; 5169 : 			{
; 5170 : 				if( lpattr->m_Level >= 15 )

  00420	8b 45 b8	 mov	 eax, DWORD PTR _lpattr$15[ebp]
  00423	83 78 1c 0f	 cmp	 DWORD PTR [eax+28], 15	; 0000000fH
  00427	0f 8c bd 00 00
	00		 jl	 $LN28@gEventMons

; 5171 : 				{	
; 5172 : 					// 
; 5173 : 					if( (rand()%10000) < gHeartOfLoveDropRate )

  0042d	e8 00 00 00 00	 call	 _rand
  00432	99		 cdq
  00433	b9 10 27 00 00	 mov	 ecx, 10000		; 00002710H
  00438	f7 f9		 idiv	 ecx
  0043a	3b 15 00 00 00
	00		 cmp	 edx, DWORD PTR ?gHeartOfLoveDropRate@@3HA ; gHeartOfLoveDropRate
  00440	0f 8d a4 00 00
	00		 jge	 $LN28@gEventMons

; 5174 : 					{
; 5175 : 						dur  = 255;

  00446	f3 0f 10 05 00
	00 00 00	 movss	 xmm0, DWORD PTR __real@437f0000
  0044e	f3 0f 11 45 ec	 movss	 DWORD PTR _dur$[ebp], xmm0

; 5176 : 						x    = lpObj->X;

  00453	8b 45 08	 mov	 eax, DWORD PTR _lpObj$[ebp]
  00456	0f bf 88 04 01
	00 00		 movsx	 ecx, WORD PTR [eax+260]
  0045d	89 4d f4	 mov	 DWORD PTR _x$[ebp], ecx

; 5177 : 						y    = lpObj->Y;

  00460	8b 45 08	 mov	 eax, DWORD PTR _lpObj$[ebp]
  00463	0f bf 88 06 01
	00 00		 movsx	 ecx, WORD PTR [eax+262]
  0046a	89 4d f0	 mov	 DWORD PTR _y$[ebp], ecx

; 5178 : 						level= 3;	// 사랑의 하트

  0046d	c7 45 f8 03 00
	00 00		 mov	 DWORD PTR _level$[ebp], 3

; 5179 : 						type = ItemGetNumberMake(14, 11);			

  00474	6a 0b		 push	 11			; 0000000bH
  00476	6a 0e		 push	 14			; 0000000eH
  00478	e8 00 00 00 00	 call	 ?ItemGetNumberMake@@YAHHH@Z ; ItemGetNumberMake
  0047d	83 c4 08	 add	 esp, 8
  00480	89 45 fc	 mov	 DWORD PTR _type$[ebp], eax

; 5180 : 						int MaxHitUser = gObjMonsterTopHitDamageUser(lpObj);

  00483	8b 45 08	 mov	 eax, DWORD PTR _lpObj$[ebp]
  00486	50		 push	 eax
  00487	e8 00 00 00 00	 call	 ?gObjMonsterTopHitDamageUser@@YAHPAVOBJECTSTRUCT@@@Z ; gObjMonsterTopHitDamageUser
  0048c	83 c4 04	 add	 esp, 4
  0048f	89 45 b4	 mov	 DWORD PTR _MaxHitUser$14[ebp], eax

; 5181 : 						ItemSerialCreateSend(lpObj->m_Index, lpObj->MapNumber, (BYTE)x, (BYTE)y, type, level, (BYTE)dur, Option1, Option2, Option3, MaxHitUser);

  00492	6a 00		 push	 0
  00494	6a 00		 push	 0
  00496	6a 00		 push	 0
  00498	8b 45 b4	 mov	 eax, DWORD PTR _MaxHitUser$14[ebp]
  0049b	50		 push	 eax
  0049c	0f b6 4d e0	 movzx	 ecx, BYTE PTR _Option3$[ebp]
  004a0	51		 push	 ecx
  004a1	0f b6 55 e4	 movzx	 edx, BYTE PTR _Option2$[ebp]
  004a5	52		 push	 edx
  004a6	0f b6 45 e8	 movzx	 eax, BYTE PTR _Option1$[ebp]
  004aa	50		 push	 eax
  004ab	f3 0f 2c 4d ec	 cvttss2si ecx, DWORD PTR _dur$[ebp]
  004b0	0f b6 d1	 movzx	 edx, cl
  004b3	52		 push	 edx
  004b4	0f b6 45 f8	 movzx	 eax, BYTE PTR _level$[ebp]
  004b8	50		 push	 eax
  004b9	8b 4d fc	 mov	 ecx, DWORD PTR _type$[ebp]
  004bc	51		 push	 ecx
  004bd	0f b6 55 f0	 movzx	 edx, BYTE PTR _y$[ebp]
  004c1	52		 push	 edx
  004c2	0f b6 45 f4	 movzx	 eax, BYTE PTR _x$[ebp]
  004c6	50		 push	 eax
  004c7	8b 4d 08	 mov	 ecx, DWORD PTR _lpObj$[ebp]
  004ca	0f b6 91 09 01
	00 00		 movzx	 edx, BYTE PTR [ecx+265]
  004d1	52		 push	 edx
  004d2	8b 45 08	 mov	 eax, DWORD PTR _lpObj$[ebp]
  004d5	8b 08		 mov	 ecx, DWORD PTR [eax]
  004d7	51		 push	 ecx
  004d8	e8 00 00 00 00	 call	 ?ItemSerialCreateSend@@YAXHEEEHEEEEEHEEH@Z ; ItemSerialCreateSend
  004dd	83 c4 38	 add	 esp, 56			; 00000038H

; 5182 : 						return TRUE;

  004e0	b8 01 00 00 00	 mov	 eax, 1
  004e5	e9 d9 0b 00 00	 jmp	 $LN1@gEventMons
$LN28@gEventMons:

; 5183 : 					}
; 5184 : 				}
; 5185 : 			}
; 5186 : 		}

  004ea	e9 ff 00 00 00	 jmp	 $LN32@gEventMons
$LN24@gEventMons:

; 5187 : 		else
; 5188 : 		{
; 5189 : 			if( lpObj->MapNumber < 7 )

  004ef	8b 45 08	 mov	 eax, DWORD PTR _lpObj$[ebp]
  004f2	0f b6 88 09 01
	00 00		 movzx	 ecx, BYTE PTR [eax+265]
  004f9	83 f9 07	 cmp	 ecx, 7
  004fc	0f 8d ec 00 00
	00		 jge	 $LN32@gEventMons

; 5190 : 			{	
; 5191 : 				// 아틀란스 이하에서만 나온다
; 5192 : 				LPMONSTER_ATTRIBUTE lpattr = gMAttr.GetAttr(lpObj->Class);

  00502	8b 45 08	 mov	 eax, DWORD PTR _lpObj$[ebp]
  00505	0f b7 88 9c 00
	00 00		 movzx	 ecx, WORD PTR [eax+156]
  0050c	51		 push	 ecx
  0050d	b9 00 00 00 00	 mov	 ecx, OFFSET ?gMAttr@@3VCMonsterAttr@@A ; gMAttr
  00512	e8 00 00 00 00	 call	 ?GetAttr@CMonsterAttr@@QAEPAUMONSTER_ATTRIBUTE@@H@Z ; CMonsterAttr::GetAttr
  00517	89 45 b0	 mov	 DWORD PTR _lpattr$13[ebp], eax

; 5193 : 				if( lpattr )

  0051a	83 7d b0 00	 cmp	 DWORD PTR _lpattr$13[ebp], 0
  0051e	0f 84 ca 00 00
	00		 je	 $LN32@gEventMons

; 5194 : 				{
; 5195 : 					if( lpattr->m_Level >= 17 )

  00524	8b 45 b0	 mov	 eax, DWORD PTR _lpattr$13[ebp]
  00527	83 78 1c 11	 cmp	 DWORD PTR [eax+28], 17	; 00000011H
  0052b	0f 8c bd 00 00
	00		 jl	 $LN32@gEventMons

; 5196 : 					{	
; 5197 : 						// 자이언트 이상일때만
; 5198 : 						if( (rand()%10000) < gHeartOfLoveDropRate )

  00531	e8 00 00 00 00	 call	 _rand
  00536	99		 cdq
  00537	b9 10 27 00 00	 mov	 ecx, 10000		; 00002710H
  0053c	f7 f9		 idiv	 ecx
  0053e	3b 15 00 00 00
	00		 cmp	 edx, DWORD PTR ?gHeartOfLoveDropRate@@3HA ; gHeartOfLoveDropRate
  00544	0f 8d a4 00 00
	00		 jge	 $LN32@gEventMons

; 5199 : 						{
; 5200 : 							dur  = 255;

  0054a	f3 0f 10 05 00
	00 00 00	 movss	 xmm0, DWORD PTR __real@437f0000
  00552	f3 0f 11 45 ec	 movss	 DWORD PTR _dur$[ebp], xmm0

; 5201 : 							x    = lpObj->X;

  00557	8b 45 08	 mov	 eax, DWORD PTR _lpObj$[ebp]
  0055a	0f bf 88 04 01
	00 00		 movsx	 ecx, WORD PTR [eax+260]
  00561	89 4d f4	 mov	 DWORD PTR _x$[ebp], ecx

; 5202 : 							y    = lpObj->Y;

  00564	8b 45 08	 mov	 eax, DWORD PTR _lpObj$[ebp]
  00567	0f bf 88 06 01
	00 00		 movsx	 ecx, WORD PTR [eax+262]
  0056e	89 4d f0	 mov	 DWORD PTR _y$[ebp], ecx

; 5203 : 							level= 3;	// 사랑의 하트

  00571	c7 45 f8 03 00
	00 00		 mov	 DWORD PTR _level$[ebp], 3

; 5204 : 							type = ItemGetNumberMake(14, 11);			

  00578	6a 0b		 push	 11			; 0000000bH
  0057a	6a 0e		 push	 14			; 0000000eH
  0057c	e8 00 00 00 00	 call	 ?ItemGetNumberMake@@YAHHH@Z ; ItemGetNumberMake
  00581	83 c4 08	 add	 esp, 8
  00584	89 45 fc	 mov	 DWORD PTR _type$[ebp], eax

; 5205 : 							int MaxHitUser = gObjMonsterTopHitDamageUser(lpObj);

  00587	8b 45 08	 mov	 eax, DWORD PTR _lpObj$[ebp]
  0058a	50		 push	 eax
  0058b	e8 00 00 00 00	 call	 ?gObjMonsterTopHitDamageUser@@YAHPAVOBJECTSTRUCT@@@Z ; gObjMonsterTopHitDamageUser
  00590	83 c4 04	 add	 esp, 4
  00593	89 45 ac	 mov	 DWORD PTR _MaxHitUser$12[ebp], eax

; 5206 : 							ItemSerialCreateSend(lpObj->m_Index, lpObj->MapNumber, (BYTE)x, (BYTE)y, type, level, (BYTE)dur, Option1, Option2, Option3, MaxHitUser);

  00596	6a 00		 push	 0
  00598	6a 00		 push	 0
  0059a	6a 00		 push	 0
  0059c	8b 45 ac	 mov	 eax, DWORD PTR _MaxHitUser$12[ebp]
  0059f	50		 push	 eax
  005a0	0f b6 4d e0	 movzx	 ecx, BYTE PTR _Option3$[ebp]
  005a4	51		 push	 ecx
  005a5	0f b6 55 e4	 movzx	 edx, BYTE PTR _Option2$[ebp]
  005a9	52		 push	 edx
  005aa	0f b6 45 e8	 movzx	 eax, BYTE PTR _Option1$[ebp]
  005ae	50		 push	 eax
  005af	f3 0f 2c 4d ec	 cvttss2si ecx, DWORD PTR _dur$[ebp]
  005b4	0f b6 d1	 movzx	 edx, cl
  005b7	52		 push	 edx
  005b8	0f b6 45 f8	 movzx	 eax, BYTE PTR _level$[ebp]
  005bc	50		 push	 eax
  005bd	8b 4d fc	 mov	 ecx, DWORD PTR _type$[ebp]
  005c0	51		 push	 ecx
  005c1	0f b6 55 f0	 movzx	 edx, BYTE PTR _y$[ebp]
  005c5	52		 push	 edx
  005c6	0f b6 45 f4	 movzx	 eax, BYTE PTR _x$[ebp]
  005ca	50		 push	 eax
  005cb	8b 4d 08	 mov	 ecx, DWORD PTR _lpObj$[ebp]
  005ce	0f b6 91 09 01
	00 00		 movzx	 edx, BYTE PTR [ecx+265]
  005d5	52		 push	 edx
  005d6	8b 45 08	 mov	 eax, DWORD PTR _lpObj$[ebp]
  005d9	8b 08		 mov	 ecx, DWORD PTR [eax]
  005db	51		 push	 ecx
  005dc	e8 00 00 00 00	 call	 ?ItemSerialCreateSend@@YAXHEEEHEEEEEHEEH@Z ; ItemSerialCreateSend
  005e1	83 c4 38	 add	 esp, 56			; 00000038H

; 5207 : 							return TRUE;

  005e4	b8 01 00 00 00	 mov	 eax, 1
  005e9	e9 d5 0a 00 00	 jmp	 $LN1@gEventMons
$LN32@gEventMons:

; 5208 : 						}
; 5209 : 					}
; 5210 : 				}
; 5211 : 			}
; 5212 : 		}		
; 5213 : 	}
; 5214 : 
; 5215 : 
; 5216 : 	if( gMedalEvent )

  005ee	83 3d 00 00 00
	00 00		 cmp	 DWORD PTR ?gMedalEvent@@3HA, 0 ; gMedalEvent
  005f5	0f 84 d2 01 00
	00		 je	 $LN40@gEventMons

; 5217 : 	{	
; 5218 : 		// 메달 이벤트가 진행중일때
; 5219 : 		if( lpObj->MapNumber == 1 || lpObj->MapNumber == 2 )

  005fb	8b 45 08	 mov	 eax, DWORD PTR _lpObj$[ebp]
  005fe	0f b6 88 09 01
	00 00		 movzx	 ecx, BYTE PTR [eax+265]
  00605	83 f9 01	 cmp	 ecx, 1
  00608	74 13		 je	 SHORT $LN36@gEventMons
  0060a	8b 45 08	 mov	 eax, DWORD PTR _lpObj$[ebp]
  0060d	0f b6 88 09 01
	00 00		 movzx	 ecx, BYTE PTR [eax+265]
  00614	83 f9 02	 cmp	 ecx, 2
  00617	0f 85 c2 00 00
	00		 jne	 $LN34@gEventMons
$LN36@gEventMons:

; 5220 : 		{	// 데비아스 및 던전에서는 은메달이 나와야 된다			
; 5221 : 			if( (rand()%10000) < gSilverMedalDropRate )

  0061d	e8 00 00 00 00	 call	 _rand
  00622	99		 cdq
  00623	b9 10 27 00 00	 mov	 ecx, 10000		; 00002710H
  00628	f7 f9		 idiv	 ecx
  0062a	3b 15 00 00 00
	00		 cmp	 edx, DWORD PTR ?gSilverMedalDropRate@@3HA ; gSilverMedalDropRate
  00630	0f 8d a4 00 00
	00		 jge	 $LN37@gEventMons

; 5222 : 			{
; 5223 : 				dur  = 255;

  00636	f3 0f 10 05 00
	00 00 00	 movss	 xmm0, DWORD PTR __real@437f0000
  0063e	f3 0f 11 45 ec	 movss	 DWORD PTR _dur$[ebp], xmm0

; 5224 : 				x    = lpObj->X;

  00643	8b 45 08	 mov	 eax, DWORD PTR _lpObj$[ebp]
  00646	0f bf 88 04 01
	00 00		 movsx	 ecx, WORD PTR [eax+260]
  0064d	89 4d f4	 mov	 DWORD PTR _x$[ebp], ecx

; 5225 : 				y    = lpObj->Y;

  00650	8b 45 08	 mov	 eax, DWORD PTR _lpObj$[ebp]
  00653	0f bf 88 06 01
	00 00		 movsx	 ecx, WORD PTR [eax+262]
  0065a	89 4d f0	 mov	 DWORD PTR _y$[ebp], ecx

; 5226 : 				level= 5;	// 은메달

  0065d	c7 45 f8 05 00
	00 00		 mov	 DWORD PTR _level$[ebp], 5

; 5227 : 				type = ItemGetNumberMake(14, 11);			

  00664	6a 0b		 push	 11			; 0000000bH
  00666	6a 0e		 push	 14			; 0000000eH
  00668	e8 00 00 00 00	 call	 ?ItemGetNumberMake@@YAHHH@Z ; ItemGetNumberMake
  0066d	83 c4 08	 add	 esp, 8
  00670	89 45 fc	 mov	 DWORD PTR _type$[ebp], eax

; 5228 : 				int MaxHitUser = gObjMonsterTopHitDamageUser(lpObj);

  00673	8b 45 08	 mov	 eax, DWORD PTR _lpObj$[ebp]
  00676	50		 push	 eax
  00677	e8 00 00 00 00	 call	 ?gObjMonsterTopHitDamageUser@@YAHPAVOBJECTSTRUCT@@@Z ; gObjMonsterTopHitDamageUser
  0067c	83 c4 04	 add	 esp, 4
  0067f	89 45 a8	 mov	 DWORD PTR _MaxHitUser$11[ebp], eax

; 5229 : 				ItemSerialCreateSend(lpObj->m_Index, lpObj->MapNumber, (BYTE)x, (BYTE)y, type, level, (BYTE)dur, Option1, Option2, Option3, MaxHitUser);

  00682	6a 00		 push	 0
  00684	6a 00		 push	 0
  00686	6a 00		 push	 0
  00688	8b 45 a8	 mov	 eax, DWORD PTR _MaxHitUser$11[ebp]
  0068b	50		 push	 eax
  0068c	0f b6 4d e0	 movzx	 ecx, BYTE PTR _Option3$[ebp]
  00690	51		 push	 ecx
  00691	0f b6 55 e4	 movzx	 edx, BYTE PTR _Option2$[ebp]
  00695	52		 push	 edx
  00696	0f b6 45 e8	 movzx	 eax, BYTE PTR _Option1$[ebp]
  0069a	50		 push	 eax
  0069b	f3 0f 2c 4d ec	 cvttss2si ecx, DWORD PTR _dur$[ebp]
  006a0	0f b6 d1	 movzx	 edx, cl
  006a3	52		 push	 edx
  006a4	0f b6 45 f8	 movzx	 eax, BYTE PTR _level$[ebp]
  006a8	50		 push	 eax
  006a9	8b 4d fc	 mov	 ecx, DWORD PTR _type$[ebp]
  006ac	51		 push	 ecx
  006ad	0f b6 55 f0	 movzx	 edx, BYTE PTR _y$[ebp]
  006b1	52		 push	 edx
  006b2	0f b6 45 f4	 movzx	 eax, BYTE PTR _x$[ebp]
  006b6	50		 push	 eax
  006b7	8b 4d 08	 mov	 ecx, DWORD PTR _lpObj$[ebp]
  006ba	0f b6 91 09 01
	00 00		 movzx	 edx, BYTE PTR [ecx+265]
  006c1	52		 push	 edx
  006c2	8b 45 08	 mov	 eax, DWORD PTR _lpObj$[ebp]
  006c5	8b 08		 mov	 ecx, DWORD PTR [eax]
  006c7	51		 push	 ecx
  006c8	e8 00 00 00 00	 call	 ?ItemSerialCreateSend@@YAXHEEEHEEEEEHEEH@Z ; ItemSerialCreateSend
  006cd	83 c4 38	 add	 esp, 56			; 00000038H

; 5230 : 				return TRUE;

  006d0	b8 01 00 00 00	 mov	 eax, 1
  006d5	e9 e9 09 00 00	 jmp	 $LN1@gEventMons
$LN37@gEventMons:

; 5231 : 			}			
; 5232 : 		}

  006da	e9 ee 00 00 00	 jmp	 $LN40@gEventMons
$LN34@gEventMons:

; 5233 : 		else if( lpObj->MapNumber == 4 || lpObj->MapNumber == 7 || lpObj->MapNumber == 8 )

  006df	8b 45 08	 mov	 eax, DWORD PTR _lpObj$[ebp]
  006e2	0f b6 88 09 01
	00 00		 movzx	 ecx, BYTE PTR [eax+265]
  006e9	83 f9 04	 cmp	 ecx, 4
  006ec	74 22		 je	 SHORT $LN39@gEventMons
  006ee	8b 45 08	 mov	 eax, DWORD PTR _lpObj$[ebp]
  006f1	0f b6 88 09 01
	00 00		 movzx	 ecx, BYTE PTR [eax+265]
  006f8	83 f9 07	 cmp	 ecx, 7
  006fb	74 13		 je	 SHORT $LN39@gEventMons
  006fd	8b 45 08	 mov	 eax, DWORD PTR _lpObj$[ebp]
  00700	0f b6 88 09 01
	00 00		 movzx	 ecx, BYTE PTR [eax+265]
  00707	83 f9 08	 cmp	 ecx, 8
  0070a	0f 85 bd 00 00
	00		 jne	 $LN40@gEventMons
$LN39@gEventMons:

; 5234 : 		{	// 로스트타워, 아틀란스, 타르칸에서는 금메달이 나와야 된다
; 5235 : 			if( (rand()%10000) < gGoldMedalDropRate )

  00710	e8 00 00 00 00	 call	 _rand
  00715	99		 cdq
  00716	b9 10 27 00 00	 mov	 ecx, 10000		; 00002710H
  0071b	f7 f9		 idiv	 ecx
  0071d	3b 15 00 00 00
	00		 cmp	 edx, DWORD PTR ?gGoldMedalDropRate@@3HA ; gGoldMedalDropRate
  00723	0f 8d a4 00 00
	00		 jge	 $LN40@gEventMons

; 5236 : 			{
; 5237 : 				dur  = 255;

  00729	f3 0f 10 05 00
	00 00 00	 movss	 xmm0, DWORD PTR __real@437f0000
  00731	f3 0f 11 45 ec	 movss	 DWORD PTR _dur$[ebp], xmm0

; 5238 : 				x    = lpObj->X;

  00736	8b 45 08	 mov	 eax, DWORD PTR _lpObj$[ebp]
  00739	0f bf 88 04 01
	00 00		 movsx	 ecx, WORD PTR [eax+260]
  00740	89 4d f4	 mov	 DWORD PTR _x$[ebp], ecx

; 5239 : 				y    = lpObj->Y;

  00743	8b 45 08	 mov	 eax, DWORD PTR _lpObj$[ebp]
  00746	0f bf 88 06 01
	00 00		 movsx	 ecx, WORD PTR [eax+262]
  0074d	89 4d f0	 mov	 DWORD PTR _y$[ebp], ecx

; 5240 : 				level= 6;	// 금메달

  00750	c7 45 f8 06 00
	00 00		 mov	 DWORD PTR _level$[ebp], 6

; 5241 : 				type = ItemGetNumberMake(14, 11);			

  00757	6a 0b		 push	 11			; 0000000bH
  00759	6a 0e		 push	 14			; 0000000eH
  0075b	e8 00 00 00 00	 call	 ?ItemGetNumberMake@@YAHHH@Z ; ItemGetNumberMake
  00760	83 c4 08	 add	 esp, 8
  00763	89 45 fc	 mov	 DWORD PTR _type$[ebp], eax

; 5242 : 				int MaxHitUser = gObjMonsterTopHitDamageUser(lpObj);

  00766	8b 45 08	 mov	 eax, DWORD PTR _lpObj$[ebp]
  00769	50		 push	 eax
  0076a	e8 00 00 00 00	 call	 ?gObjMonsterTopHitDamageUser@@YAHPAVOBJECTSTRUCT@@@Z ; gObjMonsterTopHitDamageUser
  0076f	83 c4 04	 add	 esp, 4
  00772	89 45 a4	 mov	 DWORD PTR _MaxHitUser$10[ebp], eax

; 5243 : 				ItemSerialCreateSend(lpObj->m_Index, lpObj->MapNumber, (BYTE)x, (BYTE)y, type, level, (BYTE)dur, Option1, Option2, Option3, MaxHitUser);

  00775	6a 00		 push	 0
  00777	6a 00		 push	 0
  00779	6a 00		 push	 0
  0077b	8b 45 a4	 mov	 eax, DWORD PTR _MaxHitUser$10[ebp]
  0077e	50		 push	 eax
  0077f	0f b6 4d e0	 movzx	 ecx, BYTE PTR _Option3$[ebp]
  00783	51		 push	 ecx
  00784	0f b6 55 e4	 movzx	 edx, BYTE PTR _Option2$[ebp]
  00788	52		 push	 edx
  00789	0f b6 45 e8	 movzx	 eax, BYTE PTR _Option1$[ebp]
  0078d	50		 push	 eax
  0078e	f3 0f 2c 4d ec	 cvttss2si ecx, DWORD PTR _dur$[ebp]
  00793	0f b6 d1	 movzx	 edx, cl
  00796	52		 push	 edx
  00797	0f b6 45 f8	 movzx	 eax, BYTE PTR _level$[ebp]
  0079b	50		 push	 eax
  0079c	8b 4d fc	 mov	 ecx, DWORD PTR _type$[ebp]
  0079f	51		 push	 ecx
  007a0	0f b6 55 f0	 movzx	 edx, BYTE PTR _y$[ebp]
  007a4	52		 push	 edx
  007a5	0f b6 45 f4	 movzx	 eax, BYTE PTR _x$[ebp]
  007a9	50		 push	 eax
  007aa	8b 4d 08	 mov	 ecx, DWORD PTR _lpObj$[ebp]
  007ad	0f b6 91 09 01
	00 00		 movzx	 edx, BYTE PTR [ecx+265]
  007b4	52		 push	 edx
  007b5	8b 45 08	 mov	 eax, DWORD PTR _lpObj$[ebp]
  007b8	8b 08		 mov	 ecx, DWORD PTR [eax]
  007ba	51		 push	 ecx
  007bb	e8 00 00 00 00	 call	 ?ItemSerialCreateSend@@YAXHEEEHEEEEEHEEH@Z ; ItemSerialCreateSend
  007c0	83 c4 38	 add	 esp, 56			; 00000038H

; 5244 : 				return TRUE;

  007c3	b8 01 00 00 00	 mov	 eax, 1
  007c8	e9 f6 08 00 00	 jmp	 $LN1@gEventMons
$LN40@gEventMons:

; 5245 : 			}			
; 5246 : 		}
; 5247 : 	}	
; 5248 : 
; 5249 : 	if( gEventChipEvent )

  007cd	83 3d 00 00 00
	00 00		 cmp	 DWORD PTR ?gEventChipEvent@@3HA, 0 ; gEventChipEvent
  007d4	0f 84 bd 00 00
	00		 je	 $LN42@gEventMons

; 5250 : 	{	// 이벤트칩 이벤트가 진행중일때				
; 5251 : 		if( (rand()%10000) < gBoxOfGoldDropRate )

  007da	e8 00 00 00 00	 call	 _rand
  007df	99		 cdq
  007e0	b9 10 27 00 00	 mov	 ecx, 10000		; 00002710H
  007e5	f7 f9		 idiv	 ecx
  007e7	3b 15 00 00 00
	00		 cmp	 edx, DWORD PTR ?gBoxOfGoldDropRate@@3HA ; gBoxOfGoldDropRate
  007ed	0f 8d a4 00 00
	00		 jge	 $LN42@gEventMons

; 5252 : 		{
; 5253 : 			dur  = 255;

  007f3	f3 0f 10 05 00
	00 00 00	 movss	 xmm0, DWORD PTR __real@437f0000
  007fb	f3 0f 11 45 ec	 movss	 DWORD PTR _dur$[ebp], xmm0

; 5254 : 			x    = lpObj->X;

  00800	8b 45 08	 mov	 eax, DWORD PTR _lpObj$[ebp]
  00803	0f bf 88 04 01
	00 00		 movsx	 ecx, WORD PTR [eax+260]
  0080a	89 4d f4	 mov	 DWORD PTR _x$[ebp], ecx

; 5255 : 			y    = lpObj->Y;

  0080d	8b 45 08	 mov	 eax, DWORD PTR _lpObj$[ebp]
  00810	0f bf 88 06 01
	00 00		 movsx	 ecx, WORD PTR [eax+262]
  00817	89 4d f0	 mov	 DWORD PTR _y$[ebp], ecx

; 5256 : 			level= 7;	// 황금의 상자

  0081a	c7 45 f8 07 00
	00 00		 mov	 DWORD PTR _level$[ebp], 7

; 5257 : 			type = ItemGetNumberMake(14, 11);			

  00821	6a 0b		 push	 11			; 0000000bH
  00823	6a 0e		 push	 14			; 0000000eH
  00825	e8 00 00 00 00	 call	 ?ItemGetNumberMake@@YAHHH@Z ; ItemGetNumberMake
  0082a	83 c4 08	 add	 esp, 8
  0082d	89 45 fc	 mov	 DWORD PTR _type$[ebp], eax

; 5258 : 			int MaxHitUser = gObjMonsterTopHitDamageUser(lpObj);

  00830	8b 45 08	 mov	 eax, DWORD PTR _lpObj$[ebp]
  00833	50		 push	 eax
  00834	e8 00 00 00 00	 call	 ?gObjMonsterTopHitDamageUser@@YAHPAVOBJECTSTRUCT@@@Z ; gObjMonsterTopHitDamageUser
  00839	83 c4 04	 add	 esp, 4
  0083c	89 45 a0	 mov	 DWORD PTR _MaxHitUser$9[ebp], eax

; 5259 : 			ItemSerialCreateSend(lpObj->m_Index, lpObj->MapNumber, (BYTE)x, (BYTE)y, type, level, (BYTE)dur, Option1, Option2, Option3, MaxHitUser);

  0083f	6a 00		 push	 0
  00841	6a 00		 push	 0
  00843	6a 00		 push	 0
  00845	8b 45 a0	 mov	 eax, DWORD PTR _MaxHitUser$9[ebp]
  00848	50		 push	 eax
  00849	0f b6 4d e0	 movzx	 ecx, BYTE PTR _Option3$[ebp]
  0084d	51		 push	 ecx
  0084e	0f b6 55 e4	 movzx	 edx, BYTE PTR _Option2$[ebp]
  00852	52		 push	 edx
  00853	0f b6 45 e8	 movzx	 eax, BYTE PTR _Option1$[ebp]
  00857	50		 push	 eax
  00858	f3 0f 2c 4d ec	 cvttss2si ecx, DWORD PTR _dur$[ebp]
  0085d	0f b6 d1	 movzx	 edx, cl
  00860	52		 push	 edx
  00861	0f b6 45 f8	 movzx	 eax, BYTE PTR _level$[ebp]
  00865	50		 push	 eax
  00866	8b 4d fc	 mov	 ecx, DWORD PTR _type$[ebp]
  00869	51		 push	 ecx
  0086a	0f b6 55 f0	 movzx	 edx, BYTE PTR _y$[ebp]
  0086e	52		 push	 edx
  0086f	0f b6 45 f4	 movzx	 eax, BYTE PTR _x$[ebp]
  00873	50		 push	 eax
  00874	8b 4d 08	 mov	 ecx, DWORD PTR _lpObj$[ebp]
  00877	0f b6 91 09 01
	00 00		 movzx	 edx, BYTE PTR [ecx+265]
  0087e	52		 push	 edx
  0087f	8b 45 08	 mov	 eax, DWORD PTR _lpObj$[ebp]
  00882	8b 08		 mov	 ecx, DWORD PTR [eax]
  00884	51		 push	 ecx
  00885	e8 00 00 00 00	 call	 ?ItemSerialCreateSend@@YAXHEEEHEEEEEHEEH@Z ; ItemSerialCreateSend
  0088a	83 c4 38	 add	 esp, 56			; 00000038H

; 5260 : 			return TRUE;

  0088d	b8 01 00 00 00	 mov	 eax, 1
  00892	e9 2c 08 00 00	 jmp	 $LN1@gEventMons
$LN42@gEventMons:

; 5261 : 		}		
; 5262 : 	}
; 5263 : 
; 5264 : #ifdef AUTH_GAMESERVER_CHECKKEY
; 5265 : 	if( szAuthKey[16] != AUTH_CHECK_16 )
; 5266 : 		DestroyGIocp();
; 5267 : #endif
; 5268 : 
; 5269 : #ifdef ADD_NEW_MAP_KALIMA_20040518	
; 5270 : 	// 쿤둔의 표식 드롭처리
; 5271 : 	if (rand()%10000 < g_iKundunMarkDropRate) 

  00897	e8 00 00 00 00	 call	 _rand
  0089c	99		 cdq
  0089d	b9 10 27 00 00	 mov	 ecx, 10000		; 00002710H
  008a2	f7 f9		 idiv	 ecx
  008a4	3b 15 00 00 00
	00		 cmp	 edx, DWORD PTR ?g_iKundunMarkDropRate@@3HA ; g_iKundunMarkDropRate
  008aa	0f 8d 5d 01 00
	00		 jge	 $LN43@gEventMons

; 5272 : 	{
; 5273 : 		
; 5274 : #ifndef HIDDEN_KALIMA_20050706
; 5275 : 	// 쿤둔의 표식 드랍지역 제한 삭제 - hnine
; 5276 : 	#ifndef UPDATE_LOWLEVEL_SUPPORT_1_20051215
; 5277 : 		if (CHECK_KALIMAMAP(lpObj->MapNumber)) 
; 5278 : 		{
; 5279 : 			// 칼리마 내부에서는 쿤둔의 표식이 떨어지지 않는다.
; 5280 : 			return FALSE;
; 5281 : 		}
; 5282 : 	#endif
; 5283 : #endif
; 5284 : 
; 5285 : 		Option1 = 0;

  008b0	c7 45 e8 00 00
	00 00		 mov	 DWORD PTR _Option1$[ebp], 0

; 5286 : 		Option2 = 0;

  008b7	c7 45 e4 00 00
	00 00		 mov	 DWORD PTR _Option2$[ebp], 0

; 5287 : 		Option3 = 0;

  008be	c7 45 e0 00 00
	00 00		 mov	 DWORD PTR _Option3$[ebp], 0

; 5288 : 		dur		= 1;

  008c5	f3 0f 10 05 00
	00 00 00	 movss	 xmm0, DWORD PTR __real@3f800000
  008cd	f3 0f 11 45 ec	 movss	 DWORD PTR _dur$[ebp], xmm0

; 5289 : 		x		= lpObj->X;

  008d2	8b 45 08	 mov	 eax, DWORD PTR _lpObj$[ebp]
  008d5	0f bf 88 04 01
	00 00		 movsx	 ecx, WORD PTR [eax+260]
  008dc	89 4d f4	 mov	 DWORD PTR _x$[ebp], ecx

; 5290 : 		y		= lpObj->Y;

  008df	8b 45 08	 mov	 eax, DWORD PTR _lpObj$[ebp]
  008e2	0f bf 88 06 01
	00 00		 movsx	 ecx, WORD PTR [eax+262]
  008e9	89 4d f0	 mov	 DWORD PTR _y$[ebp], ecx

; 5291 : 
; 5292 : 		// ### 20040906 (apple) 
; 5293 : 		level = 0;

  008ec	c7 45 f8 00 00
	00 00		 mov	 DWORD PTR _level$[ebp], 0

; 5294 : 
; 5295 : #ifdef MODIFY_KALIMA_KUNDUNMARK_DROP_01_20040906
; 5296 : 		if( lpObj->Level < 25 )

  008f3	8b 45 08	 mov	 eax, DWORD PTR _lpObj$[ebp]
  008f6	0f bf 88 a0 00
	00 00		 movsx	 ecx, WORD PTR [eax+160]
  008fd	83 f9 19	 cmp	 ecx, 25			; 00000019H
  00900	7d 09		 jge	 SHORT $LN44@gEventMons

; 5297 : 		{
; 5298 : 			level = 0;

  00902	c7 45 f8 00 00
	00 00		 mov	 DWORD PTR _level$[ebp], 0

; 5299 : 		}

  00909	eb 7f		 jmp	 SHORT $LN55@gEventMons
$LN44@gEventMons:

; 5300 : 		else if( lpObj->Level < 47)								// +1 (25~ 46)

  0090b	8b 45 08	 mov	 eax, DWORD PTR _lpObj$[ebp]
  0090e	0f bf 88 a0 00
	00 00		 movsx	 ecx, WORD PTR [eax+160]
  00915	83 f9 2f	 cmp	 ecx, 47			; 0000002fH
  00918	7d 09		 jge	 SHORT $LN46@gEventMons

; 5301 : 		{
; 5302 : 			level = 1;

  0091a	c7 45 f8 01 00
	00 00		 mov	 DWORD PTR _level$[ebp], 1

; 5303 : 		}

  00921	eb 67		 jmp	 SHORT $LN55@gEventMons
$LN46@gEventMons:

; 5304 : 		else if( lpObj->Level < 66)								// +2 (47~ 65)

  00923	8b 45 08	 mov	 eax, DWORD PTR _lpObj$[ebp]
  00926	0f bf 88 a0 00
	00 00		 movsx	 ecx, WORD PTR [eax+160]
  0092d	83 f9 42	 cmp	 ecx, 66			; 00000042H
  00930	7d 09		 jge	 SHORT $LN48@gEventMons

; 5305 : 		{
; 5306 : 			level = 2;

  00932	c7 45 f8 02 00
	00 00		 mov	 DWORD PTR _level$[ebp], 2

; 5307 : 		}

  00939	eb 4f		 jmp	 SHORT $LN55@gEventMons
$LN48@gEventMons:

; 5308 : 		else if( lpObj->Level < 78)								// +3 (66~ 79)

  0093b	8b 45 08	 mov	 eax, DWORD PTR _lpObj$[ebp]
  0093e	0f bf 88 a0 00
	00 00		 movsx	 ecx, WORD PTR [eax+160]
  00945	83 f9 4e	 cmp	 ecx, 78			; 0000004eH
  00948	7d 09		 jge	 SHORT $LN50@gEventMons

; 5309 : 		{
; 5310 : 			level = 3;

  0094a	c7 45 f8 03 00
	00 00		 mov	 DWORD PTR _level$[ebp], 3

; 5311 : 		}

  00951	eb 37		 jmp	 SHORT $LN55@gEventMons
$LN50@gEventMons:

; 5312 : 		else if( lpObj->Level < 84)								// +4 (80~ 85)

  00953	8b 45 08	 mov	 eax, DWORD PTR _lpObj$[ebp]
  00956	0f bf 88 a0 00
	00 00		 movsx	 ecx, WORD PTR [eax+160]
  0095d	83 f9 54	 cmp	 ecx, 84			; 00000054H
  00960	7d 09		 jge	 SHORT $LN52@gEventMons

; 5313 : 		{
; 5314 : 			level = 4;

  00962	c7 45 f8 04 00
	00 00		 mov	 DWORD PTR _level$[ebp], 4

; 5315 : 		}

  00969	eb 1f		 jmp	 SHORT $LN55@gEventMons
$LN52@gEventMons:

; 5316 : 		else if( lpObj->Level < 92)								// +5 (86~ 95)

  0096b	8b 45 08	 mov	 eax, DWORD PTR _lpObj$[ebp]
  0096e	0f bf 88 a0 00
	00 00		 movsx	 ecx, WORD PTR [eax+160]
  00975	83 f9 5c	 cmp	 ecx, 92			; 0000005cH
  00978	7d 09		 jge	 SHORT $LN54@gEventMons

; 5317 : 		{
; 5318 : 			level = 5;

  0097a	c7 45 f8 05 00
	00 00		 mov	 DWORD PTR _level$[ebp], 5

; 5319 : 		}

  00981	eb 07		 jmp	 SHORT $LN55@gEventMons
$LN54@gEventMons:

; 5320 : #ifdef HIDDEN_KALIMA_20050706
; 5321 : 		else if( lpObj->Level < 114)							// +6 (92~ 114)
; 5322 : 		{
; 5323 : 			level = 6;
; 5324 : 		}
; 5325 : 	#ifdef UPDATE_LOWLEVEL_SUPPORT_1_20051215
; 5326 : 		// 쿤둔의 표식 +7의 드랍 레벨과 지역을 수정 : 레벨 115이상, 전지역 - hnine
; 5327 : 		else if( lpObj->Level > 115 && lpObj->Level < g_GlobalConfig.m_iMaxLevel+1 )		// +7 (115~ )
; 5328 : 		{
; 5329 : 			level = 7;
; 5330 : 		}
; 5331 : 	#else
; 5332 : 		else													// +7 (115~ )
; 5333 : 		{
; 5334 : 			if (CHECK_KALIMAMAP(lpObj->MapNumber))
; 5335 : 				level = 7;
; 5336 : 			else
; 5337 : 				level = 0;
; 5338 : 		}
; 5339 : 	#endif
; 5340 : #else
; 5341 : 		else													// +6 (96~ )
; 5342 : 		{
; 5343 : 			level = 6;

  00983	c7 45 f8 06 00
	00 00		 mov	 DWORD PTR _level$[ebp], 6
$LN55@gEventMons:

; 5344 : 		}
; 5345 : #endif
; 5346 : 
; 5347 : #ifdef HIDDEN_KALIMA_20050706
; 5348 : 	#ifndef UPDATE_LOWLEVEL_SUPPORT_1_20051215
; 5349 : 		if (level != 7 &&
; 5350 : 			CHECK_KALIMAMAP(lpObj->MapNumber)
; 5351 : 			) 
; 5352 : 		{
; 5353 : 			return FALSE;
; 5354 : 		}
; 5355 : 	#endif
; 5356 : #endif
; 5357 : 
; 5358 : 		if (level == 0)

  0098a	83 7d f8 00	 cmp	 DWORD PTR _level$[ebp], 0
  0098e	75 07		 jne	 SHORT $LN56@gEventMons

; 5359 : 			return FALSE;

  00990	33 c0		 xor	 eax, eax
  00992	e9 2c 07 00 00	 jmp	 $LN1@gEventMons
$LN56@gEventMons:

; 5360 : #endif
; 5361 : 		
; 5362 : 		type = ItemGetNumberMake(14, 29);						// 쿤둔의 표식

  00997	6a 1d		 push	 29			; 0000001dH
  00999	6a 0e		 push	 14			; 0000000eH
  0099b	e8 00 00 00 00	 call	 ?ItemGetNumberMake@@YAHHH@Z ; ItemGetNumberMake
  009a0	83 c4 08	 add	 esp, 8
  009a3	89 45 fc	 mov	 DWORD PTR _type$[ebp], eax

; 5363 : 		int MaxHitUser = gObjMonsterTopHitDamageUser(lpObj);

  009a6	8b 45 08	 mov	 eax, DWORD PTR _lpObj$[ebp]
  009a9	50		 push	 eax
  009aa	e8 00 00 00 00	 call	 ?gObjMonsterTopHitDamageUser@@YAHPAVOBJECTSTRUCT@@@Z ; gObjMonsterTopHitDamageUser
  009af	83 c4 04	 add	 esp, 4
  009b2	89 45 9c	 mov	 DWORD PTR _MaxHitUser$8[ebp], eax

; 5364 : 		ItemSerialCreateSend(lpObj->m_Index, lpObj->MapNumber, (BYTE)x, (BYTE)y, type, level, (BYTE)dur, Option1, Option2, Option3, MaxHitUser);

  009b5	6a 00		 push	 0
  009b7	6a 00		 push	 0
  009b9	6a 00		 push	 0
  009bb	8b 45 9c	 mov	 eax, DWORD PTR _MaxHitUser$8[ebp]
  009be	50		 push	 eax
  009bf	0f b6 4d e0	 movzx	 ecx, BYTE PTR _Option3$[ebp]
  009c3	51		 push	 ecx
  009c4	0f b6 55 e4	 movzx	 edx, BYTE PTR _Option2$[ebp]
  009c8	52		 push	 edx
  009c9	0f b6 45 e8	 movzx	 eax, BYTE PTR _Option1$[ebp]
  009cd	50		 push	 eax
  009ce	f3 0f 2c 4d ec	 cvttss2si ecx, DWORD PTR _dur$[ebp]
  009d3	0f b6 d1	 movzx	 edx, cl
  009d6	52		 push	 edx
  009d7	0f b6 45 f8	 movzx	 eax, BYTE PTR _level$[ebp]
  009db	50		 push	 eax
  009dc	8b 4d fc	 mov	 ecx, DWORD PTR _type$[ebp]
  009df	51		 push	 ecx
  009e0	0f b6 55 f0	 movzx	 edx, BYTE PTR _y$[ebp]
  009e4	52		 push	 edx
  009e5	0f b6 45 f4	 movzx	 eax, BYTE PTR _x$[ebp]
  009e9	50		 push	 eax
  009ea	8b 4d 08	 mov	 ecx, DWORD PTR _lpObj$[ebp]
  009ed	0f b6 91 09 01
	00 00		 movzx	 edx, BYTE PTR [ecx+265]
  009f4	52		 push	 edx
  009f5	8b 45 08	 mov	 eax, DWORD PTR _lpObj$[ebp]
  009f8	8b 08		 mov	 ecx, DWORD PTR [eax]
  009fa	51		 push	 ecx
  009fb	e8 00 00 00 00	 call	 ?ItemSerialCreateSend@@YAXHEEEHEEEEEHEEH@Z ; ItemSerialCreateSend
  00a00	83 c4 38	 add	 esp, 56			; 00000038H

; 5365 : 		return TRUE;

  00a03	b8 01 00 00 00	 mov	 eax, 1
  00a08	e9 b6 06 00 00	 jmp	 $LN1@gEventMons
$LN43@gEventMons:

; 5366 : 	}
; 5367 : #endif
; 5368 : 	
; 5369 : 
; 5370 : #ifdef MU_CASTLESIEGE_CS_MARKS_20041214							// 성주의 표식 드롭처리
; 5371 : 	if (rand()%10000 < g_iMarkOfTheLord) {
; 5372 : 		Option1 = 0;
; 5373 : 		Option2 = 0;
; 5374 : 		Option3 = 0;
; 5375 : 		level	= 3;
; 5376 : 		dur		= 1;
; 5377 : 		x		= lpObj->X;
; 5378 : 		y		= lpObj->Y;
; 5379 : 
; 5380 : 		type = ItemGetNumberMake(14, 21);						// 성주의 표식 (레나 +3)
; 5381 : 		int MaxHitUser = gObjMonsterTopHitDamageUser(lpObj);
; 5382 : 		ItemSerialCreateSend(lpObj->m_Index, lpObj->MapNumber, (BYTE)x, (BYTE)y, type, level, (BYTE)dur, Option1, Option2, Option3, MaxHitUser);
; 5383 : 		return TRUE;
; 5384 : 	}
; 5385 : #endif
; 5386 : 
; 5387 : 
; 5388 : #ifdef JAPAN_1ST_ANIVERSARY_BOX_20040531
; 5389 : 	if (rand()%10000 < g_iJapan1StAnivItemDropRate) {
; 5390 : 		
; 5391 : 		if( lpTargetObj->PartyNumber >= 0 )
; 5392 : 		{
; 5393 : 			dur  = 255;
; 5394 : 			x    = lpObj->X;
; 5395 : 			y    = lpObj->Y;
; 5396 : 			type = ItemGetNumberMake(14, 20);			
; 5397 : 
; 5398 : 			// 일본 1주년 기념 폭죽상자는 맵에 따라 다른 레벨이 떨어진다.
; 5399 : 			switch(lpObj->MapNumber) {
; 5400 : 			case 0 :		// 로랜시아		(+1)
; 5401 : 				{
; 5402 : 					level= 1;
; 5403 : 					int MaxHitUser = gObjMonsterTopHitDamageUser(lpObj);
; 5404 : 					ItemSerialCreateSend(lpObj->m_Index, lpObj->MapNumber, (BYTE)x, (BYTE)y, type, level, (BYTE)dur, Option1, Option2, Option3, MaxHitUser);
; 5405 : 					return TRUE;
; 5406 : 				}
; 5407 : 				return TRUE;
; 5408 : 			case 1 :		// 던전			(+2)
; 5409 : 				{
; 5410 : 					level= 2;
; 5411 : 					int MaxHitUser = gObjMonsterTopHitDamageUser(lpObj);
; 5412 : 					ItemSerialCreateSend(lpObj->m_Index, lpObj->MapNumber, (BYTE)x, (BYTE)y, type, level, (BYTE)dur, Option1, Option2, Option3, MaxHitUser);
; 5413 : 					return TRUE;
; 5414 : 				}
; 5415 : 				return TRUE;
; 5416 : 			case 2 :		// 데비아스		(+2)
; 5417 : 				{
; 5418 : 					level= 2;
; 5419 : 					int MaxHitUser = gObjMonsterTopHitDamageUser(lpObj);
; 5420 : 					ItemSerialCreateSend(lpObj->m_Index, lpObj->MapNumber, (BYTE)x, (BYTE)y, type, level, (BYTE)dur, Option1, Option2, Option3, MaxHitUser);
; 5421 : 					return TRUE;
; 5422 : 				}
; 5423 : 				return TRUE;
; 5424 : 			case 3 :		// 노리아		(+1)
; 5425 : 				{
; 5426 : 					level= 1;
; 5427 : 					int MaxHitUser = gObjMonsterTopHitDamageUser(lpObj);
; 5428 : 					ItemSerialCreateSend(lpObj->m_Index, lpObj->MapNumber, (BYTE)x, (BYTE)y, type, level, (BYTE)dur, Option1, Option2, Option3, MaxHitUser);
; 5429 : 					return TRUE;
; 5430 : 				}
; 5431 : 				return TRUE;
; 5432 : 			case 4 :		// 로스트타워	(+3)
; 5433 : 				{
; 5434 : 					level= 3;
; 5435 : 					int MaxHitUser = gObjMonsterTopHitDamageUser(lpObj);
; 5436 : 					ItemSerialCreateSend(lpObj->m_Index, lpObj->MapNumber, (BYTE)x, (BYTE)y, type, level, (BYTE)dur, Option1, Option2, Option3, MaxHitUser);
; 5437 : 					return TRUE;
; 5438 : 				}
; 5439 : 				return TRUE;
; 5440 : 			case 7 :		// 아틀란스		(+4)
; 5441 : 				{
; 5442 : 					level= 4;
; 5443 : 					int MaxHitUser = gObjMonsterTopHitDamageUser(lpObj);
; 5444 : 					ItemSerialCreateSend(lpObj->m_Index, lpObj->MapNumber, (BYTE)x, (BYTE)y, type, level, (BYTE)dur, Option1, Option2, Option3, MaxHitUser);
; 5445 : 					return TRUE;
; 5446 : 				}
; 5447 : 				return TRUE;
; 5448 : 			case 8 :		// 타르칸		(+5)
; 5449 : 				{
; 5450 : 					level= 5;
; 5451 : 					int MaxHitUser = gObjMonsterTopHitDamageUser(lpObj);
; 5452 : 					ItemSerialCreateSend(lpObj->m_Index, lpObj->MapNumber, (BYTE)x, (BYTE)y, type, level, (BYTE)dur, Option1, Option2, Option3, MaxHitUser);
; 5453 : 					return TRUE;
; 5454 : 				}
; 5455 : 				return TRUE;
; 5456 : 			default:
; 5457 : 				break;
; 5458 : 			}
; 5459 : 		}
; 5460 : 	}
; 5461 : #endif
; 5462 : 
; 5463 : #ifdef DARKLORD_WORK
; 5464 : 	if( gIsDropDarkLordItem )

  00a0d	83 3d 00 00 00
	00 00		 cmp	 DWORD PTR ?gIsDropDarkLordItem@@3HA, 0 ; gIsDropDarkLordItem
  00a14	0f 84 a6 02 00
	00		 je	 $LN65@gEventMons

; 5465 : 	{
; 5466 : 		// 군주의 소매 드롭 
; 5467 : 		if( lpObj->Level >= gSleeveOfLordDropLevel )

  00a1a	8b 45 08	 mov	 eax, DWORD PTR _lpObj$[ebp]
  00a1d	0f bf 88 a0 00
	00 00		 movsx	 ecx, WORD PTR [eax+160]
  00a24	3b 0d 00 00 00
	00		 cmp	 ecx, DWORD PTR ?gSleeveOfLordDropLevel@@3HA ; gSleeveOfLordDropLevel
  00a2a	0f 8c cc 00 00
	00		 jl	 $LN59@gEventMons

; 5468 : 		{
; 5469 : 			if( rand()%10000 < gSleeveOfLordDropRate && (g_GlobalConfig.m_bMonarchOnlyIcarus == false || lpObj->MapNumber == MAP_INDEX_ICARUS) )

  00a30	e8 00 00 00 00	 call	 _rand
  00a35	99		 cdq
  00a36	b9 10 27 00 00	 mov	 ecx, 10000		; 00002710H
  00a3b	f7 f9		 idiv	 ecx
  00a3d	3b 15 00 00 00
	00		 cmp	 edx, DWORD PTR ?gSleeveOfLordDropRate@@3HA ; gSleeveOfLordDropRate
  00a43	0f 8d b3 00 00
	00		 jge	 $LN59@gEventMons
  00a49	83 3d 14 00 00
	00 00		 cmp	 DWORD PTR ?g_GlobalConfig@@3VCGlobalConfig@@A+20, 0
  00a50	74 13		 je	 SHORT $LN60@gEventMons
  00a52	8b 45 08	 mov	 eax, DWORD PTR _lpObj$[ebp]
  00a55	0f b6 88 09 01
	00 00		 movzx	 ecx, BYTE PTR [eax+265]
  00a5c	83 f9 0a	 cmp	 ecx, 10			; 0000000aH
  00a5f	0f 85 97 00 00
	00		 jne	 $LN59@gEventMons
$LN60@gEventMons:

; 5470 : 			{	
; 5471 : 				type = ItemGetNumberMake(13, 14);

  00a65	6a 0e		 push	 14			; 0000000eH
  00a67	6a 0d		 push	 13			; 0000000dH
  00a69	e8 00 00 00 00	 call	 ?ItemGetNumberMake@@YAHHH@Z ; ItemGetNumberMake
  00a6e	83 c4 08	 add	 esp, 8
  00a71	89 45 fc	 mov	 DWORD PTR _type$[ebp], eax

; 5472 : 				level = 1;

  00a74	c7 45 f8 01 00
	00 00		 mov	 DWORD PTR _level$[ebp], 1

; 5473 : 				x    = lpObj->X;

  00a7b	8b 45 08	 mov	 eax, DWORD PTR _lpObj$[ebp]
  00a7e	0f bf 88 04 01
	00 00		 movsx	 ecx, WORD PTR [eax+260]
  00a85	89 4d f4	 mov	 DWORD PTR _x$[ebp], ecx

; 5474 : 				y    = lpObj->Y;

  00a88	8b 45 08	 mov	 eax, DWORD PTR _lpObj$[ebp]
  00a8b	0f bf 88 06 01
	00 00		 movsx	 ecx, WORD PTR [eax+262]
  00a92	89 4d f0	 mov	 DWORD PTR _y$[ebp], ecx

; 5475 : 
; 5476 : 				int MaxHitUser = gObjMonsterTopHitDamageUser(lpObj);

  00a95	8b 45 08	 mov	 eax, DWORD PTR _lpObj$[ebp]
  00a98	50		 push	 eax
  00a99	e8 00 00 00 00	 call	 ?gObjMonsterTopHitDamageUser@@YAHPAVOBJECTSTRUCT@@@Z ; gObjMonsterTopHitDamageUser
  00a9e	83 c4 04	 add	 esp, 4
  00aa1	89 45 98	 mov	 DWORD PTR _MaxHitUser$7[ebp], eax

; 5477 : 				ItemSerialCreateSend(lpObj->m_Index, lpObj->MapNumber, (BYTE)x, (BYTE)y, type, level, (BYTE)dur, Option1, Option2, Option3, MaxHitUser);

  00aa4	6a 00		 push	 0
  00aa6	6a 00		 push	 0
  00aa8	6a 00		 push	 0
  00aaa	8b 45 98	 mov	 eax, DWORD PTR _MaxHitUser$7[ebp]
  00aad	50		 push	 eax
  00aae	0f b6 4d e0	 movzx	 ecx, BYTE PTR _Option3$[ebp]
  00ab2	51		 push	 ecx
  00ab3	0f b6 55 e4	 movzx	 edx, BYTE PTR _Option2$[ebp]
  00ab7	52		 push	 edx
  00ab8	0f b6 45 e8	 movzx	 eax, BYTE PTR _Option1$[ebp]
  00abc	50		 push	 eax
  00abd	f3 0f 2c 4d ec	 cvttss2si ecx, DWORD PTR _dur$[ebp]
  00ac2	0f b6 d1	 movzx	 edx, cl
  00ac5	52		 push	 edx
  00ac6	0f b6 45 f8	 movzx	 eax, BYTE PTR _level$[ebp]
  00aca	50		 push	 eax
  00acb	8b 4d fc	 mov	 ecx, DWORD PTR _type$[ebp]
  00ace	51		 push	 ecx
  00acf	0f b6 55 f0	 movzx	 edx, BYTE PTR _y$[ebp]
  00ad3	52		 push	 edx
  00ad4	0f b6 45 f4	 movzx	 eax, BYTE PTR _x$[ebp]
  00ad8	50		 push	 eax
  00ad9	8b 4d 08	 mov	 ecx, DWORD PTR _lpObj$[ebp]
  00adc	0f b6 91 09 01
	00 00		 movzx	 edx, BYTE PTR [ecx+265]
  00ae3	52		 push	 edx
  00ae4	8b 45 08	 mov	 eax, DWORD PTR _lpObj$[ebp]
  00ae7	8b 08		 mov	 ecx, DWORD PTR [eax]
  00ae9	51		 push	 ecx
  00aea	e8 00 00 00 00	 call	 ?ItemSerialCreateSend@@YAXHEEEHEEEEEHEEH@Z ; ItemSerialCreateSend
  00aef	83 c4 38	 add	 esp, 56			; 00000038H

; 5478 : 				return TRUE;

  00af2	b8 01 00 00 00	 mov	 eax, 1
  00af7	e9 c7 05 00 00	 jmp	 $LN1@gEventMons
$LN59@gEventMons:

; 5479 : 			}
; 5480 : 		}
; 5481 : 
; 5482 : 		// 다크호스의 영혼 드롭
; 5483 : 		if( lpObj->Level >= gSoulOfDarkHorseropLevel )

  00afc	8b 45 08	 mov	 eax, DWORD PTR _lpObj$[ebp]
  00aff	0f bf 88 a0 00
	00 00		 movsx	 ecx, WORD PTR [eax+160]
  00b06	3b 0d 00 00 00
	00		 cmp	 ecx, DWORD PTR ?gSoulOfDarkHorseropLevel@@3HA ; gSoulOfDarkHorseropLevel
  00b0c	0f 8c cc 00 00
	00		 jl	 $LN62@gEventMons

; 5484 : 		{
; 5485 : 			if( rand()%10000 < gSoulOfDarkHorseDropRate && (g_GlobalConfig.m_bHorsePotOnlyIcarus == false || lpObj->MapNumber == MAP_INDEX_ICARUS) )

  00b12	e8 00 00 00 00	 call	 _rand
  00b17	99		 cdq
  00b18	b9 10 27 00 00	 mov	 ecx, 10000		; 00002710H
  00b1d	f7 f9		 idiv	 ecx
  00b1f	3b 15 00 00 00
	00		 cmp	 edx, DWORD PTR ?gSoulOfDarkHorseDropRate@@3HA ; gSoulOfDarkHorseDropRate
  00b25	0f 8d b3 00 00
	00		 jge	 $LN62@gEventMons
  00b2b	83 3d 1c 00 00
	00 00		 cmp	 DWORD PTR ?g_GlobalConfig@@3VCGlobalConfig@@A+28, 0
  00b32	74 13		 je	 SHORT $LN63@gEventMons
  00b34	8b 45 08	 mov	 eax, DWORD PTR _lpObj$[ebp]
  00b37	0f b6 88 09 01
	00 00		 movzx	 ecx, BYTE PTR [eax+265]
  00b3e	83 f9 0a	 cmp	 ecx, 10			; 0000000aH
  00b41	0f 85 97 00 00
	00		 jne	 $LN62@gEventMons
$LN63@gEventMons:

; 5486 : 			{	
; 5487 : 				type = ItemGetNumberMake(13, 31);

  00b47	6a 1f		 push	 31			; 0000001fH
  00b49	6a 0d		 push	 13			; 0000000dH
  00b4b	e8 00 00 00 00	 call	 ?ItemGetNumberMake@@YAHHH@Z ; ItemGetNumberMake
  00b50	83 c4 08	 add	 esp, 8
  00b53	89 45 fc	 mov	 DWORD PTR _type$[ebp], eax

; 5488 : 				level = 0;

  00b56	c7 45 f8 00 00
	00 00		 mov	 DWORD PTR _level$[ebp], 0

; 5489 : 				x    = lpObj->X;

  00b5d	8b 45 08	 mov	 eax, DWORD PTR _lpObj$[ebp]
  00b60	0f bf 88 04 01
	00 00		 movsx	 ecx, WORD PTR [eax+260]
  00b67	89 4d f4	 mov	 DWORD PTR _x$[ebp], ecx

; 5490 : 				y    = lpObj->Y;

  00b6a	8b 45 08	 mov	 eax, DWORD PTR _lpObj$[ebp]
  00b6d	0f bf 88 06 01
	00 00		 movsx	 ecx, WORD PTR [eax+262]
  00b74	89 4d f0	 mov	 DWORD PTR _y$[ebp], ecx

; 5491 : 				int MaxHitUser = gObjMonsterTopHitDamageUser(lpObj);

  00b77	8b 45 08	 mov	 eax, DWORD PTR _lpObj$[ebp]
  00b7a	50		 push	 eax
  00b7b	e8 00 00 00 00	 call	 ?gObjMonsterTopHitDamageUser@@YAHPAVOBJECTSTRUCT@@@Z ; gObjMonsterTopHitDamageUser
  00b80	83 c4 04	 add	 esp, 4
  00b83	89 45 94	 mov	 DWORD PTR _MaxHitUser$6[ebp], eax

; 5492 : 				ItemSerialCreateSend(lpObj->m_Index, lpObj->MapNumber, (BYTE)x, (BYTE)y, type, level, (BYTE)dur, Option1, Option2, Option3, MaxHitUser);

  00b86	6a 00		 push	 0
  00b88	6a 00		 push	 0
  00b8a	6a 00		 push	 0
  00b8c	8b 45 94	 mov	 eax, DWORD PTR _MaxHitUser$6[ebp]
  00b8f	50		 push	 eax
  00b90	0f b6 4d e0	 movzx	 ecx, BYTE PTR _Option3$[ebp]
  00b94	51		 push	 ecx
  00b95	0f b6 55 e4	 movzx	 edx, BYTE PTR _Option2$[ebp]
  00b99	52		 push	 edx
  00b9a	0f b6 45 e8	 movzx	 eax, BYTE PTR _Option1$[ebp]
  00b9e	50		 push	 eax
  00b9f	f3 0f 2c 4d ec	 cvttss2si ecx, DWORD PTR _dur$[ebp]
  00ba4	0f b6 d1	 movzx	 edx, cl
  00ba7	52		 push	 edx
  00ba8	0f b6 45 f8	 movzx	 eax, BYTE PTR _level$[ebp]
  00bac	50		 push	 eax
  00bad	8b 4d fc	 mov	 ecx, DWORD PTR _type$[ebp]
  00bb0	51		 push	 ecx
  00bb1	0f b6 55 f0	 movzx	 edx, BYTE PTR _y$[ebp]
  00bb5	52		 push	 edx
  00bb6	0f b6 45 f4	 movzx	 eax, BYTE PTR _x$[ebp]
  00bba	50		 push	 eax
  00bbb	8b 4d 08	 mov	 ecx, DWORD PTR _lpObj$[ebp]
  00bbe	0f b6 91 09 01
	00 00		 movzx	 edx, BYTE PTR [ecx+265]
  00bc5	52		 push	 edx
  00bc6	8b 45 08	 mov	 eax, DWORD PTR _lpObj$[ebp]
  00bc9	8b 08		 mov	 ecx, DWORD PTR [eax]
  00bcb	51		 push	 ecx
  00bcc	e8 00 00 00 00	 call	 ?ItemSerialCreateSend@@YAXHEEEHEEEEEHEEH@Z ; ItemSerialCreateSend
  00bd1	83 c4 38	 add	 esp, 56			; 00000038H

; 5493 : 				return TRUE;

  00bd4	b8 01 00 00 00	 mov	 eax, 1
  00bd9	e9 e5 04 00 00	 jmp	 $LN1@gEventMons
$LN62@gEventMons:

; 5494 : 			}
; 5495 : 		}
; 5496 : 
; 5497 : 		// 다크스피릿의 영혼 드롭
; 5498 : 		if( lpObj->Level >= gSoulOfDarkSpiritDropLevel )

  00bde	8b 45 08	 mov	 eax, DWORD PTR _lpObj$[ebp]
  00be1	0f bf 88 a0 00
	00 00		 movsx	 ecx, WORD PTR [eax+160]
  00be8	3b 0d 00 00 00
	00		 cmp	 ecx, DWORD PTR ?gSoulOfDarkSpiritDropLevel@@3HA ; gSoulOfDarkSpiritDropLevel
  00bee	0f 8c cc 00 00
	00		 jl	 $LN65@gEventMons

; 5499 : 		{
; 5500 : 			if( rand()%10000 < gSoulOfDarkSpiritDropRate && (g_GlobalConfig.m_bSpiritPotOnlyIcarus == false || lpObj->MapNumber == MAP_INDEX_ICARUS) )

  00bf4	e8 00 00 00 00	 call	 _rand
  00bf9	99		 cdq
  00bfa	b9 10 27 00 00	 mov	 ecx, 10000		; 00002710H
  00bff	f7 f9		 idiv	 ecx
  00c01	3b 15 00 00 00
	00		 cmp	 edx, DWORD PTR ?gSoulOfDarkSpiritDropRate@@3HA ; gSoulOfDarkSpiritDropRate
  00c07	0f 8d b3 00 00
	00		 jge	 $LN65@gEventMons
  00c0d	83 3d 18 00 00
	00 00		 cmp	 DWORD PTR ?g_GlobalConfig@@3VCGlobalConfig@@A+24, 0
  00c14	74 13		 je	 SHORT $LN66@gEventMons
  00c16	8b 45 08	 mov	 eax, DWORD PTR _lpObj$[ebp]
  00c19	0f b6 88 09 01
	00 00		 movzx	 ecx, BYTE PTR [eax+265]
  00c20	83 f9 0a	 cmp	 ecx, 10			; 0000000aH
  00c23	0f 85 97 00 00
	00		 jne	 $LN65@gEventMons
$LN66@gEventMons:

; 5501 : 			{	
; 5502 : 				type = ItemGetNumberMake(13, 31);

  00c29	6a 1f		 push	 31			; 0000001fH
  00c2b	6a 0d		 push	 13			; 0000000dH
  00c2d	e8 00 00 00 00	 call	 ?ItemGetNumberMake@@YAHHH@Z ; ItemGetNumberMake
  00c32	83 c4 08	 add	 esp, 8
  00c35	89 45 fc	 mov	 DWORD PTR _type$[ebp], eax

; 5503 : 				level = 1;

  00c38	c7 45 f8 01 00
	00 00		 mov	 DWORD PTR _level$[ebp], 1

; 5504 : 				x    = lpObj->X;

  00c3f	8b 45 08	 mov	 eax, DWORD PTR _lpObj$[ebp]
  00c42	0f bf 88 04 01
	00 00		 movsx	 ecx, WORD PTR [eax+260]
  00c49	89 4d f4	 mov	 DWORD PTR _x$[ebp], ecx

; 5505 : 				y    = lpObj->Y;

  00c4c	8b 45 08	 mov	 eax, DWORD PTR _lpObj$[ebp]
  00c4f	0f bf 88 06 01
	00 00		 movsx	 ecx, WORD PTR [eax+262]
  00c56	89 4d f0	 mov	 DWORD PTR _y$[ebp], ecx

; 5506 : 				int MaxHitUser = gObjMonsterTopHitDamageUser(lpObj);

  00c59	8b 45 08	 mov	 eax, DWORD PTR _lpObj$[ebp]
  00c5c	50		 push	 eax
  00c5d	e8 00 00 00 00	 call	 ?gObjMonsterTopHitDamageUser@@YAHPAVOBJECTSTRUCT@@@Z ; gObjMonsterTopHitDamageUser
  00c62	83 c4 04	 add	 esp, 4
  00c65	89 45 90	 mov	 DWORD PTR _MaxHitUser$5[ebp], eax

; 5507 : 				ItemSerialCreateSend(lpObj->m_Index, lpObj->MapNumber, (BYTE)x, (BYTE)y, type, level, (BYTE)dur, Option1, Option2, Option3, MaxHitUser);

  00c68	6a 00		 push	 0
  00c6a	6a 00		 push	 0
  00c6c	6a 00		 push	 0
  00c6e	8b 45 90	 mov	 eax, DWORD PTR _MaxHitUser$5[ebp]
  00c71	50		 push	 eax
  00c72	0f b6 4d e0	 movzx	 ecx, BYTE PTR _Option3$[ebp]
  00c76	51		 push	 ecx
  00c77	0f b6 55 e4	 movzx	 edx, BYTE PTR _Option2$[ebp]
  00c7b	52		 push	 edx
  00c7c	0f b6 45 e8	 movzx	 eax, BYTE PTR _Option1$[ebp]
  00c80	50		 push	 eax
  00c81	f3 0f 2c 4d ec	 cvttss2si ecx, DWORD PTR _dur$[ebp]
  00c86	0f b6 d1	 movzx	 edx, cl
  00c89	52		 push	 edx
  00c8a	0f b6 45 f8	 movzx	 eax, BYTE PTR _level$[ebp]
  00c8e	50		 push	 eax
  00c8f	8b 4d fc	 mov	 ecx, DWORD PTR _type$[ebp]
  00c92	51		 push	 ecx
  00c93	0f b6 55 f0	 movzx	 edx, BYTE PTR _y$[ebp]
  00c97	52		 push	 edx
  00c98	0f b6 45 f4	 movzx	 eax, BYTE PTR _x$[ebp]
  00c9c	50		 push	 eax
  00c9d	8b 4d 08	 mov	 ecx, DWORD PTR _lpObj$[ebp]
  00ca0	0f b6 91 09 01
	00 00		 movzx	 edx, BYTE PTR [ecx+265]
  00ca7	52		 push	 edx
  00ca8	8b 45 08	 mov	 eax, DWORD PTR _lpObj$[ebp]
  00cab	8b 08		 mov	 ecx, DWORD PTR [eax]
  00cad	51		 push	 ecx
  00cae	e8 00 00 00 00	 call	 ?ItemSerialCreateSend@@YAXHEEEHEEEEEHEEH@Z ; ItemSerialCreateSend
  00cb3	83 c4 38	 add	 esp, 56			; 00000038H

; 5508 : 				return TRUE;

  00cb6	b8 01 00 00 00	 mov	 eax, 1
  00cbb	e9 03 04 00 00	 jmp	 $LN1@gEventMons
$LN65@gEventMons:

; 5509 : 			}
; 5510 : 		}
; 5511 : 	}
; 5512 : 
; 5513 : #endif
; 5514 : 
; 5515 : #ifdef ADD_NEW_GEM_OF_DEFEND_FOR_CS_01_20050301
; 5516 : 	// 수호보석 드랍.
; 5517 : 	if( gIsDropGemOfDefend )
; 5518 : 	{
; 5519 : 		if( ( lpObj->MapNumber != MAP_INDEX_KALIMA7 ) && ( lpObj->MapNumber != MAP_INDEX_CASTLEHUNTZONE) )
; 5520 : 		{	// 수호의 보석은 칼리마7 과 성 사냥터에서만 떨어진다.
; 5521 : 			
; 5522 : 		}
; 5523 : 		else
; 5524 : 		{
; 5525 : 			if( lpObj->Level >= gGemOfDefendDropLevel )
; 5526 : 			{
; 5527 : 				if( rand()%10000 < gGemOfDefendDropRate )
; 5528 : 				{	
; 5529 : 					type = ItemGetNumberMake(14, 31);
; 5530 : 					level = 0;
; 5531 : 					x    = lpObj->X;
; 5532 : 					y    = lpObj->Y;
; 5533 : 					int MaxHitUser = gObjMonsterTopHitDamageUser(lpObj);
; 5534 : 					ItemSerialCreateSend(lpObj->m_Index, lpObj->MapNumber, (BYTE)x, (BYTE)y, type, level, (BYTE)dur, Option1, Option2, Option3, MaxHitUser);
; 5535 : 					return TRUE;
; 5536 : 				}
; 5537 : 			}
; 5538 : 		}
; 5539 : 	}
; 5540 : #endif
; 5541 : 	
; 5542 : #ifdef KANTURU_SPECIAL_ITEMDROP_20060808
; 5543 : if( g_bKanturuSpecialItemDropOn )
; 5544 : {
; 5545 : 	// 문스톤펜던트
; 5546 : 	if( lpObj->MapNumber == MAP_INDEX_KANTURU2 )
; 5547 : 	{
; 5548 : 		if( rand()%10000 < g_iKanturuMoonStoneDropRate )
; 5549 : 		{	
; 5550 : 			type = ItemGetNumberMake(13, 38);
; 5551 : 			level = 0;
; 5552 : 			x    = lpObj->X;
; 5553 : 			y    = lpObj->Y;
; 5554 : 			int MaxHitUser = gObjMonsterTopHitDamageUser(lpObj);
; 5555 : 			ItemSerialCreateSend(lpObj->m_Index, lpObj->MapNumber, (BYTE)x, (BYTE)y, type, level, (BYTE)dur, Option1, Option2, Option3, MaxHitUser);
; 5556 : 			return TRUE;
; 5557 : 		}
; 5558 : 	}
; 5559 : 
; 5560 : 	// 조화의 보석
; 5561 : 	if( lpObj->MapNumber == MAP_INDEX_KANTURU1 
; 5562 : 		|| lpObj->MapNumber == MAP_INDEX_KANTURU2 
; 5563 : 		|| lpObj->MapNumber == MAP_INDEX_KANTURU_BOSS 
; 5564 : 	  )
; 5565 : 	{
; 5566 : 		if( rand()%10000 < g_iKanturuJewelOfHarmonyDropRate )
; 5567 : 		{	
; 5568 : 			type = ItemGetNumberMake(14, 41);
; 5569 : 			level = 0;
; 5570 : 			x    = lpObj->X;
; 5571 : 			y    = lpObj->Y;
; 5572 : 			int MaxHitUser = gObjMonsterTopHitDamageUser(lpObj);
; 5573 : 			ItemSerialCreateSend(lpObj->m_Index, lpObj->MapNumber, (BYTE)x, (BYTE)y, type, level, (BYTE)dur, Option1, Option2, Option3, MaxHitUser);
; 5574 : 			return TRUE;
; 5575 : 		}
; 5576 : 	}
; 5577 : 
; 5578 : }
; 5579 : 
; 5580 : 
; 5581 : #endif // KANTURU_SPECIAL_ITEMDROP_20060808
; 5582 : 
; 5583 : #ifdef ADD_THIRD_WING_20070525	// 콘도르의불꽃 드롭 처리
; 5584 : 	if( lpObj->MapNumber == MAP_INDEX_3RD_CHANGEUP_QUEST )
; 5585 : 	{
; 5586 : 		if( rand() % 10000 < g_iCondorFlameDropRate )
; 5587 : 		{	
; 5588 : 			type = ItemGetNumberMake( 13, 52 );
; 5589 : 			level = 0;
; 5590 : 			x    = lpObj->X;
; 5591 : 			y    = lpObj->Y;
; 5592 : 			int MaxHitUser = gObjMonsterTopHitDamageUser(lpObj);
; 5593 : 			ItemSerialCreateSend( lpObj->m_Index, lpObj->MapNumber, (BYTE)x, (BYTE)y, type, level, (BYTE)dur, Option1, Option2, Option3, MaxHitUser );
; 5594 : 			return TRUE;
; 5595 : 		}
; 5596 : 	}
; 5597 : #endif
; 5598 : 
; 5599 : #ifdef ADD_NEW_CASTLE_HUNTZONE_REWARD_02_20050314
; 5600 : 	if( gIsDropSetItemInCastleHuntZone )
; 5601 : 	{
; 5602 : 		// 시련의 땅에서만 받을 수 있다.
; 5603 : 		if( lpObj->MapNumber != MAP_INDEX_CASTLEHUNTZONE )
; 5604 : 		{	
; 5605 : 			
; 5606 : 		}
; 5607 : 		else
; 5608 : 		{
; 5609 : 			if( lpObj->Level >= gSetItemInCastleHuntZoneDropLevel )
; 5610 : 			{
; 5611 : 				if( rand()%10000 < gSetItemInCastleHuntZoneDropRate )
; 5612 : 				{
; 5613 : 					int MaxHitUser = gObjMonsterTopHitDamageUser(lpObj);
; 5614 : 
; 5615 : 					if( CHECK_LIMIT(MaxHitUser, MAX_OBJECT) )
; 5616 : 					{
; 5617 : 						LogAddTD("[Castle HuntZone] Drop SetItem [%s][%s] ", gObj[MaxHitUser].AccountID, gObj[MaxHitUser].Name);
; 5618 : #ifdef MODIFY_KUNDUN_ITEM_DROP_MAP_20060216 
; 5619 : 						MakeRewardSetItem( MaxHitUser, lpObj->X, lpObj->Y, 0, lpObj->MapNumber );
; 5620 : #else
; 5621 : 						MakeRewardSetItem( MaxHitUser, lpObj->X, lpObj->Y, 0 );
; 5622 : #endif // #ifdef MODIFY_KUNDUN_ITEM_DROP_MAP_20060216
; 5623 : 						return TRUE;
; 5624 : 					}
; 5625 : 
; 5626 : 				}
; 5627 : 			}
; 5628 : 		}
; 5629 : 	}
; 5630 : #endif
; 5631 : 
; 5632 : 
; 5633 : #ifdef HIDDEN_TREASUREBOX_EVENT_20050804	// 신비의 구슬 드롭처리
; 5634 : 	if( lpObj->MapNumber == 33 ||		// 아이다
; 5635 : 		lpObj->MapNumber == 34			// 크라이울프 1차맵
; 5636 : 		)
; 5637 : 	{
; 5638 : 		bool bDropMysteriousBead = false;
; 5639 : 		switch(lpObj->Class) 
; 5640 : 		{
; 5641 : 		case 304:	// 위치퀸
; 5642 : 		case 305:	// 블루골렘
; 5643 : 		case 306:	// 데스라이더
; 5644 : 		case 307:	// 포레스트오크
; 5645 : 		case 308:	// 데스트리
; 5646 : 		case 309:	// 헬마이네
; 5647 : 			{
; 5648 : 				if (rand()%10000 < g_iMysteriousBeadDropRate1) 
; 5649 : 				{
; 5650 : 					bDropMysteriousBead = true;	
; 5651 : 				}
; 5652 : 			}
; 5653 : 			break;
; 5654 : 		case 310:	// 척후병(근거리)
; 5655 : 		case 311:	// 척후병(중거리)
; 5656 : 		case 312:	// 척후병(원거리)
; 5657 : 		case 313:	// 웨어울프
; 5658 : 			{
; 5659 : 				if (rand()%10000 < g_iMysteriousBeadDropRate2) 
; 5660 : 				{
; 5661 : 					bDropMysteriousBead = true;	
; 5662 : 				}
; 5663 : 			}
; 5664 : 			break;
; 5665 : 		}
; 5666 : 
; 5667 : 		if (bDropMysteriousBead == true) 
; 5668 : 		{
; 5669 : 			type = ItemGetNumberMake(12, 26);
; 5670 : 			level = 0;
; 5671 : 			x    = lpObj->X;
; 5672 : 			y    = lpObj->Y;
; 5673 : 			int MaxHitUser = gObjMonsterTopHitDamageUser(lpObj);
; 5674 : 			ItemSerialCreateSend(lpObj->m_Index, lpObj->MapNumber, (BYTE)x, (BYTE)y, type, level, (BYTE)dur, Option1, Option2, Option3, MaxHitUser);
; 5675 : 			return TRUE;
; 5676 : 		}
; 5677 : 	}
; 5678 : #endif
; 5679 : 
; 5680 : #ifdef UPDATE_MASTER_LEVEL_EVENTMAP_TICKET_METERIAL_DROPRATE_20080123	// 여기서 마스터레벨 이벤트맵 이장아이템 재료를 드랍
; 5681 : 	// 광장 재료
; 5682 : 	if( gDevilSquareEvent )
; 5683 : 	{
; 5684 : 		if (!CHECK_DEVILSQUARE(lpObj->MapNumber)) 
; 5685 : 		{
; 5686 : 			// 7 악마의눈
; 5687 : 			if (rand()%10000 < gML_EyesOfDevilSquareDropRate) 
; 5688 : 			{
; 5689 : 				if(lpObj->Level >= 90)
; 5690 : 				{
; 5691 : 					Option1 = 0;
; 5692 : 					Option2 = 0;
; 5693 : 					Option3 = 0;
; 5694 : 					dur		= 128;
; 5695 : 					level	= 7;
; 5696 : 					x		= lpObj->X;
; 5697 : 					y		= lpObj->Y;
; 5698 : 					
; 5699 : 					type = ItemGetNumberMake(14, 17);
; 5700 : 					int MaxHitUser = gObjMonsterTopHitDamageUser(lpObj);
; 5701 : 					ItemSerialCreateSend(lpObj->m_Index, lpObj->MapNumber, (BYTE)x, (BYTE)y, type, level, (BYTE)dur, Option1, Option2, Option3, MaxHitUser);
; 5702 : 					return TRUE;
; 5703 : 				}
; 5704 : 			}
; 5705 : 
; 5706 : 			// 7 악마의열쇠
; 5707 : 			if (rand()%10000 < gML_KeyOfDevilSquareDropRate) 
; 5708 : 			{
; 5709 : 				if(lpObj->Level >= 90)
; 5710 : 				{
; 5711 : 					Option1 = 0;
; 5712 : 					Option2 = 0;
; 5713 : 					Option3 = 0;
; 5714 : 					dur		= 128;
; 5715 : 					level	= 7;
; 5716 : 					x		= lpObj->X;
; 5717 : 					y		= lpObj->Y;
; 5718 : 					
; 5719 : 					type = ItemGetNumberMake(14, 18);
; 5720 : 					int MaxHitUser = gObjMonsterTopHitDamageUser(lpObj);
; 5721 : 					ItemSerialCreateSend(lpObj->m_Index, lpObj->MapNumber, (BYTE)x, (BYTE)y, type, level, (BYTE)dur, Option1, Option2, Option3, MaxHitUser);
; 5722 : 					return TRUE;
; 5723 : 				}
; 5724 : 			}
; 5725 : 		}
; 5726 : 	}
; 5727 : 
; 5728 : 	// 사원 재료
; 5729 : 	if(g_bIllusionTampleEvent)
; 5730 : 	{
; 5731 : 		if (!CHECK_ILLUSION_TEMPLE(lpObj->MapNumber) )
; 5732 : 		{
; 5733 : 			// 6 낡은 두루마리
; 5734 : 			if (rand()%10000 < gML_OldScrollDropRate) 
; 5735 : 			{
; 5736 : 				if(lpObj->Level >= 96)
; 5737 : 				{
; 5738 : 					Option1 = 0;
; 5739 : 					Option2 = 0;
; 5740 : 					Option3 = 0;
; 5741 : 					dur		= 0;
; 5742 : 					level	= 6;
; 5743 : 					x		= lpObj->X;
; 5744 : 					y		= lpObj->Y;
; 5745 : 					
; 5746 : 					type = ItemGetNumberMake(13, 49);
; 5747 : 					int MaxHitUser = gObjMonsterTopHitDamageUser(lpObj);
; 5748 : 					ItemSerialCreateSend(lpObj->m_Index, lpObj->MapNumber, (BYTE)x, (BYTE)y, type, level, (BYTE)dur, Option1, Option2, Option3, MaxHitUser);
; 5749 : 					return TRUE;
; 5750 : 				}
; 5751 : 			}
; 5752 : 
; 5753 : 			// 6 환영교단의 서약
; 5754 : 			if (rand()%10000 < gML_CovenantOfIllusionDropRate) 
; 5755 : 			{
; 5756 : 				if(lpObj->Level >= 96)
; 5757 : 				{
; 5758 : 					Option1 = 0;
; 5759 : 					Option2 = 0;
; 5760 : 					Option3 = 0;
; 5761 : 					dur		= 0;
; 5762 : 					level	= 6;
; 5763 : 					x		= lpObj->X;
; 5764 : 					y		= lpObj->Y;
; 5765 : 					
; 5766 : 					type = ItemGetNumberMake(13, 50);
; 5767 : 					int MaxHitUser = gObjMonsterTopHitDamageUser(lpObj);
; 5768 : 					ItemSerialCreateSend(lpObj->m_Index, lpObj->MapNumber, (BYTE)x, (BYTE)y, type, level, (BYTE)dur, Option1, Option2, Option3, MaxHitUser);
; 5769 : 					return TRUE;
; 5770 : 				}
; 5771 : 			}
; 5772 : 		}
; 5773 : 	}
; 5774 : 
; 5775 : 	// 블캐 재료
; 5776 : 	if (g_bBloodCastle) 
; 5777 : 	{
; 5778 : 		if (!CHECK_BLOODCASTLE(lpObj->MapNumber)) 
; 5779 : 		{
; 5780 : 			// 8 대천사의 서
; 5781 : 			if (rand()%10000 < gML_AngelKingsPaperDropRate) 
; 5782 : 			{
; 5783 : 				if(lpObj->Level >= 90)
; 5784 : 				{
; 5785 : 					Option1 = 0;
; 5786 : 					Option2 = 0;
; 5787 : 					Option3 = 0;
; 5788 : 					dur		= 128;
; 5789 : 					level	= 8;
; 5790 : 					x		= lpObj->X;
; 5791 : 					y		= lpObj->Y;
; 5792 : 					
; 5793 : 					type = ItemGetNumberMake(13, 16);
; 5794 : 					int MaxHitUser = gObjMonsterTopHitDamageUser(lpObj);
; 5795 : 					ItemSerialCreateSend(lpObj->m_Index, lpObj->MapNumber, (BYTE)x, (BYTE)y, type, level, (BYTE)dur, Option1, Option2, Option3, MaxHitUser);
; 5796 : 					return TRUE;
; 5797 : 				}
; 5798 : 			}
; 5799 : 
; 5800 : 			// 8 블러드 본
; 5801 : 			if (rand()%10000 < gML_BloodBoneDropRate) 
; 5802 : 			{
; 5803 : 				if(lpObj->Level >= 90)
; 5804 : 				{
; 5805 : 					Option1 = 0;
; 5806 : 					Option2 = 0;
; 5807 : 					Option3 = 0;
; 5808 : 					dur		= 128;
; 5809 : 					level	= 8;
; 5810 : 					x		= lpObj->X;
; 5811 : 					y		= lpObj->Y;
; 5812 : 					
; 5813 : 					type = ItemGetNumberMake(13, 17);
; 5814 : 					int MaxHitUser = gObjMonsterTopHitDamageUser(lpObj);
; 5815 : 					ItemSerialCreateSend(lpObj->m_Index, lpObj->MapNumber, (BYTE)x, (BYTE)y, type, level, (BYTE)dur, Option1, Option2, Option3, MaxHitUser);
; 5816 : 					return TRUE;
; 5817 : 				}
; 5818 : 			}
; 5819 : 		}
; 5820 : 	}
; 5821 : #endif	// UPDATE_MASTER_LEVEL_EVENTMAP_TICKET_METERIAL_DROPRATE_20080123
; 5822 : 
; 5823 : #ifdef FOR_BLOODCASTLE
; 5824 : 	if (g_bBloodCastle) 

  00cc0	83 3d 00 00 00
	00 00		 cmp	 DWORD PTR ?g_bBloodCastle@@3HA, 0 ; g_bBloodCastle
  00cc7	0f 84 08 03 00
	00		 je	 $LN82@gEventMons

; 5825 : 	{
; 5826 : 		if (!CHECK_BLOODCASTLE(lpObj->MapNumber)) 

  00ccd	8b 45 08	 mov	 eax, DWORD PTR _lpObj$[ebp]
  00cd0	0f b6 88 09 01
	00 00		 movzx	 ecx, BYTE PTR [eax+265]
  00cd7	83 f9 0b	 cmp	 ecx, 11			; 0000000bH
  00cda	7d 0c		 jge	 SHORT $LN101@gEventMons
  00cdc	c7 85 3c ff ff
	ff 00 00 00 00	 mov	 DWORD PTR tv648[ebp], 0
  00ce6	eb 31		 jmp	 SHORT $LN102@gEventMons
$LN101@gEventMons:
  00ce8	8b 55 08	 mov	 edx, DWORD PTR _lpObj$[ebp]
  00ceb	0f b6 82 09 01
	00 00		 movzx	 eax, BYTE PTR [edx+265]
  00cf2	83 f8 11	 cmp	 eax, 17			; 00000011H
  00cf5	7e 0c		 jle	 SHORT $LN99@gEventMons
  00cf7	c7 85 38 ff ff
	ff 00 00 00 00	 mov	 DWORD PTR tv647[ebp], 0
  00d01	eb 0a		 jmp	 SHORT $LN100@gEventMons
$LN99@gEventMons:
  00d03	c7 85 38 ff ff
	ff 01 00 00 00	 mov	 DWORD PTR tv647[ebp], 1
$LN100@gEventMons:
  00d0d	8b 8d 38 ff ff
	ff		 mov	 ecx, DWORD PTR tv647[ebp]
  00d13	89 8d 3c ff ff
	ff		 mov	 DWORD PTR tv648[ebp], ecx
$LN102@gEventMons:
  00d19	83 bd 3c ff ff
	ff 00		 cmp	 DWORD PTR tv648[ebp], 0
  00d20	0f 85 af 02 00
	00		 jne	 $LN82@gEventMons

; 5827 : 		{
; 5828 : 			Option1 = 0;

  00d26	c7 45 e8 00 00
	00 00		 mov	 DWORD PTR _Option1$[ebp], 0

; 5829 : 			Option2 = 0;

  00d2d	c7 45 e4 00 00
	00 00		 mov	 DWORD PTR _Option2$[ebp], 0

; 5830 : 			Option3 = 0;

  00d34	c7 45 e0 00 00
	00 00		 mov	 DWORD PTR _Option3$[ebp], 0

; 5831 : 
; 5832 : 			// 1 . 스톤이 떨어질 확률
; 5833 : /*			if( g_bStoneItemDrop )
; 5834 : 			{			
; 5835 : 				if (rand()%10000 < g_iStoneDropRate) {
; 5836 : #ifdef FOR_BLOODCASTLE_TEST
; 5837 : 					dur  = 0;
; 5838 : #else
; 5839 : 					dur  = 128;
; 5840 : #endif
; 5841 : 					x    = lpObj->X;
; 5842 : 					y    = lpObj->Y;
; 5843 : 					level= 1;	
; 5844 : 					type = ItemGetNumberMake(14, 21);
; 5845 : 					int MaxHitUser = gObjMonsterTopHitDamageUser(lpObj);
; 5846 : 					ItemSerialCreateSend(lpObj->m_Index, lpObj->MapNumber, (BYTE)x, (BYTE)y, type, level, (BYTE)dur, Option1, Option2, Option3, MaxHitUser);
; 5847 : 					return TRUE;
; 5848 : 				}
; 5849 : 			}
; 5850 : */
; 5851 : 			// 2 . 대천사의 서가 떨어질 확률
; 5852 : 			if (rand()%10000 < g_iAngelKingsPaperDropRate) 

  00d3b	e8 00 00 00 00	 call	 _rand
  00d40	99		 cdq
  00d41	b9 10 27 00 00	 mov	 ecx, 10000		; 00002710H
  00d46	f7 f9		 idiv	 ecx
  00d48	3b 15 00 00 00
	00		 cmp	 edx, DWORD PTR ?g_iAngelKingsPaperDropRate@@3HA ; g_iAngelKingsPaperDropRate
  00d4e	0f 8d 34 01 00
	00		 jge	 $LN69@gEventMons

; 5853 : 			{
; 5854 : #ifdef FOR_BLOODCASTLE_TEST
; 5855 : 				dur  = 0;
; 5856 : #else
; 5857 : 				dur  = 128;

  00d54	f3 0f 10 05 00
	00 00 00	 movss	 xmm0, DWORD PTR __real@43000000
  00d5c	f3 0f 11 45 ec	 movss	 DWORD PTR _dur$[ebp], xmm0

; 5858 : #endif
; 5859 : 				x    = lpObj->X;

  00d61	8b 45 08	 mov	 eax, DWORD PTR _lpObj$[ebp]
  00d64	0f bf 88 04 01
	00 00		 movsx	 ecx, WORD PTR [eax+260]
  00d6b	89 4d f4	 mov	 DWORD PTR _x$[ebp], ecx

; 5860 : 				y    = lpObj->Y;

  00d6e	8b 45 08	 mov	 eax, DWORD PTR _lpObj$[ebp]
  00d71	0f bf 88 06 01
	00 00		 movsx	 ecx, WORD PTR [eax+262]
  00d78	89 4d f0	 mov	 DWORD PTR _y$[ebp], ecx

; 5861 : 
; 5862 : 				
; 5863 : 				if( lpObj->Level < 32)			// +1 ( 0~ 31)

  00d7b	8b 45 08	 mov	 eax, DWORD PTR _lpObj$[ebp]
  00d7e	0f bf 88 a0 00
	00 00		 movsx	 ecx, WORD PTR [eax+160]
  00d85	83 f9 20	 cmp	 ecx, 32			; 00000020H
  00d88	7d 09		 jge	 SHORT $LN70@gEventMons

; 5864 : 				{
; 5865 : 					level = 1;

  00d8a	c7 45 f8 01 00
	00 00		 mov	 DWORD PTR _level$[ebp], 1

; 5866 : 				}

  00d91	eb 7f		 jmp	 SHORT $LN81@gEventMons
$LN70@gEventMons:

; 5867 : 				else if( lpObj->Level < 45)		// +2 (31~ 44)

  00d93	8b 45 08	 mov	 eax, DWORD PTR _lpObj$[ebp]
  00d96	0f bf 88 a0 00
	00 00		 movsx	 ecx, WORD PTR [eax+160]
  00d9d	83 f9 2d	 cmp	 ecx, 45			; 0000002dH
  00da0	7d 09		 jge	 SHORT $LN72@gEventMons

; 5868 : 				{
; 5869 : 					level = 2;

  00da2	c7 45 f8 02 00
	00 00		 mov	 DWORD PTR _level$[ebp], 2

; 5870 : 				}

  00da9	eb 67		 jmp	 SHORT $LN81@gEventMons
$LN72@gEventMons:

; 5871 : 				else if( lpObj->Level < 57)		// +3 (45~ 56)

  00dab	8b 45 08	 mov	 eax, DWORD PTR _lpObj$[ebp]
  00dae	0f bf 88 a0 00
	00 00		 movsx	 ecx, WORD PTR [eax+160]
  00db5	83 f9 39	 cmp	 ecx, 57			; 00000039H
  00db8	7d 09		 jge	 SHORT $LN74@gEventMons

; 5872 : 				{
; 5873 : 					level = 3;

  00dba	c7 45 f8 03 00
	00 00		 mov	 DWORD PTR _level$[ebp], 3

; 5874 : 				}

  00dc1	eb 4f		 jmp	 SHORT $LN81@gEventMons
$LN74@gEventMons:

; 5875 : 				else if( lpObj->Level < 68)		// +4 (57~ 67)

  00dc3	8b 45 08	 mov	 eax, DWORD PTR _lpObj$[ebp]
  00dc6	0f bf 88 a0 00
	00 00		 movsx	 ecx, WORD PTR [eax+160]
  00dcd	83 f9 44	 cmp	 ecx, 68			; 00000044H
  00dd0	7d 09		 jge	 SHORT $LN76@gEventMons

; 5876 : 				{
; 5877 : 					level = 4;

  00dd2	c7 45 f8 04 00
	00 00		 mov	 DWORD PTR _level$[ebp], 4

; 5878 : 				}

  00dd9	eb 37		 jmp	 SHORT $LN81@gEventMons
$LN76@gEventMons:

; 5879 : 				else if( lpObj->Level < 76)		// +5 (68~ 75)

  00ddb	8b 45 08	 mov	 eax, DWORD PTR _lpObj$[ebp]
  00dde	0f bf 88 a0 00
	00 00		 movsx	 ecx, WORD PTR [eax+160]
  00de5	83 f9 4c	 cmp	 ecx, 76			; 0000004cH
  00de8	7d 09		 jge	 SHORT $LN78@gEventMons

; 5880 : 				{
; 5881 : 					level = 5;

  00dea	c7 45 f8 05 00
	00 00		 mov	 DWORD PTR _level$[ebp], 5

; 5882 : 				}

  00df1	eb 1f		 jmp	 SHORT $LN81@gEventMons
$LN78@gEventMons:

; 5883 : 				else if( lpObj->Level < 84)		// +6 (64~ 83)

  00df3	8b 45 08	 mov	 eax, DWORD PTR _lpObj$[ebp]
  00df6	0f bf 88 a0 00
	00 00		 movsx	 ecx, WORD PTR [eax+160]
  00dfd	83 f9 54	 cmp	 ecx, 84			; 00000054H
  00e00	7d 09		 jge	 SHORT $LN80@gEventMons

; 5884 : 				{
; 5885 : 					level = 6;

  00e02	c7 45 f8 06 00
	00 00		 mov	 DWORD PTR _level$[ebp], 6

; 5886 : 				}

  00e09	eb 07		 jmp	 SHORT $LN81@gEventMons
$LN80@gEventMons:

; 5887 : #ifdef ADD_BLOODCASTLE_FOR_MASTER_LEVEL_20071010	// 대천사의서 +8 드롭 확률
; 5888 : 				else if( lpObj->Level < 90 )	// +7 (75~ 89)
; 5889 : 				{
; 5890 : 					level = 7;
; 5891 : 				}
; 5892 : 				else							// +8 (90~ )
; 5893 : 				{
; 5894 : 					level = 8;
; 5895 : 				}
; 5896 : #else
; 5897 : 				else							// +7 (75~ )
; 5898 : 				{
; 5899 : 					level = 7;

  00e0b	c7 45 f8 07 00
	00 00		 mov	 DWORD PTR _level$[ebp], 7
$LN81@gEventMons:

; 5900 : 				}
; 5901 : #endif	// ADD_BLOODCASTLE_FOR_MASTER_LEVEL_20071010
; 5902 : 
; 5903 : #ifdef UPDATE_MASTER_LEVEL_EVENTMAP_TICKET_METERIAL_DROPRATE_20080123	// 마스터레벨 이벤트맵 재료면 처리안함
; 5904 : 				if(level != 8)
; 5905 : 				{
; 5906 : 					type = ItemGetNumberMake(13, 16);
; 5907 : 					int MaxHitUser = gObjMonsterTopHitDamageUser(lpObj);
; 5908 : 					ItemSerialCreateSend(lpObj->m_Index, lpObj->MapNumber, (BYTE)x, (BYTE)y, type, level, (BYTE)dur, Option1, Option2, Option3, MaxHitUser);
; 5909 : 					return TRUE;
; 5910 : 				}
; 5911 : #else	// UPDATE_MASTER_LEVEL_EVENTMAP_TICKET_METERIAL_DROPRATE_20080123
; 5912 : 				type = ItemGetNumberMake(13, 16);

  00e12	6a 10		 push	 16			; 00000010H
  00e14	6a 0d		 push	 13			; 0000000dH
  00e16	e8 00 00 00 00	 call	 ?ItemGetNumberMake@@YAHHH@Z ; ItemGetNumberMake
  00e1b	83 c4 08	 add	 esp, 8
  00e1e	89 45 fc	 mov	 DWORD PTR _type$[ebp], eax

; 5913 : 				int MaxHitUser = gObjMonsterTopHitDamageUser(lpObj);

  00e21	8b 45 08	 mov	 eax, DWORD PTR _lpObj$[ebp]
  00e24	50		 push	 eax
  00e25	e8 00 00 00 00	 call	 ?gObjMonsterTopHitDamageUser@@YAHPAVOBJECTSTRUCT@@@Z ; gObjMonsterTopHitDamageUser
  00e2a	83 c4 04	 add	 esp, 4
  00e2d	89 45 8c	 mov	 DWORD PTR _MaxHitUser$4[ebp], eax

; 5914 : 				ItemSerialCreateSend(lpObj->m_Index, lpObj->MapNumber, (BYTE)x, (BYTE)y, type, level, (BYTE)dur, Option1, Option2, Option3, MaxHitUser);

  00e30	6a 00		 push	 0
  00e32	6a 00		 push	 0
  00e34	6a 00		 push	 0
  00e36	8b 45 8c	 mov	 eax, DWORD PTR _MaxHitUser$4[ebp]
  00e39	50		 push	 eax
  00e3a	0f b6 4d e0	 movzx	 ecx, BYTE PTR _Option3$[ebp]
  00e3e	51		 push	 ecx
  00e3f	0f b6 55 e4	 movzx	 edx, BYTE PTR _Option2$[ebp]
  00e43	52		 push	 edx
  00e44	0f b6 45 e8	 movzx	 eax, BYTE PTR _Option1$[ebp]
  00e48	50		 push	 eax
  00e49	f3 0f 2c 4d ec	 cvttss2si ecx, DWORD PTR _dur$[ebp]
  00e4e	0f b6 d1	 movzx	 edx, cl
  00e51	52		 push	 edx
  00e52	0f b6 45 f8	 movzx	 eax, BYTE PTR _level$[ebp]
  00e56	50		 push	 eax
  00e57	8b 4d fc	 mov	 ecx, DWORD PTR _type$[ebp]
  00e5a	51		 push	 ecx
  00e5b	0f b6 55 f0	 movzx	 edx, BYTE PTR _y$[ebp]
  00e5f	52		 push	 edx
  00e60	0f b6 45 f4	 movzx	 eax, BYTE PTR _x$[ebp]
  00e64	50		 push	 eax
  00e65	8b 4d 08	 mov	 ecx, DWORD PTR _lpObj$[ebp]
  00e68	0f b6 91 09 01
	00 00		 movzx	 edx, BYTE PTR [ecx+265]
  00e6f	52		 push	 edx
  00e70	8b 45 08	 mov	 eax, DWORD PTR _lpObj$[ebp]
  00e73	8b 08		 mov	 ecx, DWORD PTR [eax]
  00e75	51		 push	 ecx
  00e76	e8 00 00 00 00	 call	 ?ItemSerialCreateSend@@YAXHEEEHEEEEEHEEH@Z ; ItemSerialCreateSend
  00e7b	83 c4 38	 add	 esp, 56			; 00000038H

; 5915 : 				return TRUE;

  00e7e	b8 01 00 00 00	 mov	 eax, 1
  00e83	e9 3b 02 00 00	 jmp	 $LN1@gEventMons
$LN69@gEventMons:

; 5916 : #endif	// UPDATE_MASTER_LEVEL_EVENTMAP_TICKET_METERIAL_DROPRATE_20080123
; 5917 : 			}
; 5918 : 					
; 5919 : 			// 3 . 블러드본이 떨어질 확률
; 5920 : 			if (rand()%10000 < g_iBloodBoneDropRate) 

  00e88	e8 00 00 00 00	 call	 _rand
  00e8d	99		 cdq
  00e8e	b9 10 27 00 00	 mov	 ecx, 10000		; 00002710H
  00e93	f7 f9		 idiv	 ecx
  00e95	3b 15 00 00 00
	00		 cmp	 edx, DWORD PTR ?g_iBloodBoneDropRate@@3HA ; g_iBloodBoneDropRate
  00e9b	0f 8d 34 01 00
	00		 jge	 $LN82@gEventMons

; 5921 : 			{
; 5922 : #ifdef FOR_BLOODCASTLE_TEST
; 5923 : 				dur  = 0;
; 5924 : #else
; 5925 : 				dur  = 128;

  00ea1	f3 0f 10 05 00
	00 00 00	 movss	 xmm0, DWORD PTR __real@43000000
  00ea9	f3 0f 11 45 ec	 movss	 DWORD PTR _dur$[ebp], xmm0

; 5926 : #endif
; 5927 : 				x    = lpObj->X;

  00eae	8b 45 08	 mov	 eax, DWORD PTR _lpObj$[ebp]
  00eb1	0f bf 88 04 01
	00 00		 movsx	 ecx, WORD PTR [eax+260]
  00eb8	89 4d f4	 mov	 DWORD PTR _x$[ebp], ecx

; 5928 : 				y    = lpObj->Y;

  00ebb	8b 45 08	 mov	 eax, DWORD PTR _lpObj$[ebp]
  00ebe	0f bf 88 06 01
	00 00		 movsx	 ecx, WORD PTR [eax+262]
  00ec5	89 4d f0	 mov	 DWORD PTR _y$[ebp], ecx

; 5929 : 
; 5930 : 				if( lpObj->Level < 32)			// +1 ( 0~ 31)

  00ec8	8b 45 08	 mov	 eax, DWORD PTR _lpObj$[ebp]
  00ecb	0f bf 88 a0 00
	00 00		 movsx	 ecx, WORD PTR [eax+160]
  00ed2	83 f9 20	 cmp	 ecx, 32			; 00000020H
  00ed5	7d 09		 jge	 SHORT $LN83@gEventMons

; 5931 : 				{
; 5932 : 					level = 1;

  00ed7	c7 45 f8 01 00
	00 00		 mov	 DWORD PTR _level$[ebp], 1

; 5933 : 				}

  00ede	eb 7f		 jmp	 SHORT $LN94@gEventMons
$LN83@gEventMons:

; 5934 : 				else if( lpObj->Level < 45)		// +2 (31~ 44)

  00ee0	8b 45 08	 mov	 eax, DWORD PTR _lpObj$[ebp]
  00ee3	0f bf 88 a0 00
	00 00		 movsx	 ecx, WORD PTR [eax+160]
  00eea	83 f9 2d	 cmp	 ecx, 45			; 0000002dH
  00eed	7d 09		 jge	 SHORT $LN85@gEventMons

; 5935 : 				{
; 5936 : 					level = 2;

  00eef	c7 45 f8 02 00
	00 00		 mov	 DWORD PTR _level$[ebp], 2

; 5937 : 				}

  00ef6	eb 67		 jmp	 SHORT $LN94@gEventMons
$LN85@gEventMons:

; 5938 : 				else if( lpObj->Level < 57)		// +3 (45~ 56)

  00ef8	8b 45 08	 mov	 eax, DWORD PTR _lpObj$[ebp]
  00efb	0f bf 88 a0 00
	00 00		 movsx	 ecx, WORD PTR [eax+160]
  00f02	83 f9 39	 cmp	 ecx, 57			; 00000039H
  00f05	7d 09		 jge	 SHORT $LN87@gEventMons

; 5939 : 				{
; 5940 : 					level = 3;

  00f07	c7 45 f8 03 00
	00 00		 mov	 DWORD PTR _level$[ebp], 3

; 5941 : 				}

  00f0e	eb 4f		 jmp	 SHORT $LN94@gEventMons
$LN87@gEventMons:

; 5942 : 				else if( lpObj->Level < 68)		// +4 (57~ 67)

  00f10	8b 45 08	 mov	 eax, DWORD PTR _lpObj$[ebp]
  00f13	0f bf 88 a0 00
	00 00		 movsx	 ecx, WORD PTR [eax+160]
  00f1a	83 f9 44	 cmp	 ecx, 68			; 00000044H
  00f1d	7d 09		 jge	 SHORT $LN89@gEventMons

; 5943 : 				{
; 5944 : 					level = 4;

  00f1f	c7 45 f8 04 00
	00 00		 mov	 DWORD PTR _level$[ebp], 4

; 5945 : 				}

  00f26	eb 37		 jmp	 SHORT $LN94@gEventMons
$LN89@gEventMons:

; 5946 : 				else if( lpObj->Level < 76)		// +5 (68~ 75)

  00f28	8b 45 08	 mov	 eax, DWORD PTR _lpObj$[ebp]
  00f2b	0f bf 88 a0 00
	00 00		 movsx	 ecx, WORD PTR [eax+160]
  00f32	83 f9 4c	 cmp	 ecx, 76			; 0000004cH
  00f35	7d 09		 jge	 SHORT $LN91@gEventMons

; 5947 : 				{
; 5948 : 					level = 5;

  00f37	c7 45 f8 05 00
	00 00		 mov	 DWORD PTR _level$[ebp], 5

; 5949 : 				}

  00f3e	eb 1f		 jmp	 SHORT $LN94@gEventMons
$LN91@gEventMons:

; 5950 : 				else if( lpObj->Level < 84)		// +6 (64~ 83)

  00f40	8b 45 08	 mov	 eax, DWORD PTR _lpObj$[ebp]
  00f43	0f bf 88 a0 00
	00 00		 movsx	 ecx, WORD PTR [eax+160]
  00f4a	83 f9 54	 cmp	 ecx, 84			; 00000054H
  00f4d	7d 09		 jge	 SHORT $LN93@gEventMons

; 5951 : 				{
; 5952 : 					level = 6;

  00f4f	c7 45 f8 06 00
	00 00		 mov	 DWORD PTR _level$[ebp], 6

; 5953 : 				}

  00f56	eb 07		 jmp	 SHORT $LN94@gEventMons
$LN93@gEventMons:

; 5954 : #ifdef ADD_BLOODCASTLE_FOR_MASTER_LEVEL_20071010	// 블러드본 +8 드롭 확률
; 5955 : 				else if( lpObj->Level < 90 )	// +7 (75~ 89)
; 5956 : 				{
; 5957 : 					level = 7;
; 5958 : 				}
; 5959 : 				else							// +8 (90~ )
; 5960 : 				{
; 5961 : 					level = 8;
; 5962 : 				}
; 5963 : #else
; 5964 : 				else							// +7 (75~ )
; 5965 : 				{
; 5966 : 					level = 7;

  00f58	c7 45 f8 07 00
	00 00		 mov	 DWORD PTR _level$[ebp], 7
$LN94@gEventMons:

; 5967 : 				}
; 5968 : #endif	// ADD_BLOODCASTLE_FOR_MASTER_LEVEL_20071010
; 5969 : 				
; 5970 : #ifdef UPDATE_MASTER_LEVEL_EVENTMAP_TICKET_METERIAL_DROPRATE_20080123	// 마스터레벨 이벤트맵 재료면 처리안함
; 5971 : 				if(level != 8)
; 5972 : 				{
; 5973 : 					type = ItemGetNumberMake(13, 17);
; 5974 : 					int MaxHitUser = gObjMonsterTopHitDamageUser(lpObj);
; 5975 : 					ItemSerialCreateSend(lpObj->m_Index, lpObj->MapNumber, (BYTE)x, (BYTE)y, type, level, (BYTE)dur, Option1, Option2, Option3, MaxHitUser);
; 5976 : 					return TRUE;
; 5977 : 				}
; 5978 : #else	// UPDATE_MASTER_LEVEL_EVENTMAP_TICKET_METERIAL_DROPRATE_20080123
; 5979 : 				type = ItemGetNumberMake(13, 17);

  00f5f	6a 11		 push	 17			; 00000011H
  00f61	6a 0d		 push	 13			; 0000000dH
  00f63	e8 00 00 00 00	 call	 ?ItemGetNumberMake@@YAHHH@Z ; ItemGetNumberMake
  00f68	83 c4 08	 add	 esp, 8
  00f6b	89 45 fc	 mov	 DWORD PTR _type$[ebp], eax

; 5980 : 				int MaxHitUser = gObjMonsterTopHitDamageUser(lpObj);

  00f6e	8b 45 08	 mov	 eax, DWORD PTR _lpObj$[ebp]
  00f71	50		 push	 eax
  00f72	e8 00 00 00 00	 call	 ?gObjMonsterTopHitDamageUser@@YAHPAVOBJECTSTRUCT@@@Z ; gObjMonsterTopHitDamageUser
  00f77	83 c4 04	 add	 esp, 4
  00f7a	89 45 88	 mov	 DWORD PTR _MaxHitUser$3[ebp], eax

; 5981 : 				ItemSerialCreateSend(lpObj->m_Index, lpObj->MapNumber, (BYTE)x, (BYTE)y, type, level, (BYTE)dur, Option1, Option2, Option3, MaxHitUser);

  00f7d	6a 00		 push	 0
  00f7f	6a 00		 push	 0
  00f81	6a 00		 push	 0
  00f83	8b 45 88	 mov	 eax, DWORD PTR _MaxHitUser$3[ebp]
  00f86	50		 push	 eax
  00f87	0f b6 4d e0	 movzx	 ecx, BYTE PTR _Option3$[ebp]
  00f8b	51		 push	 ecx
  00f8c	0f b6 55 e4	 movzx	 edx, BYTE PTR _Option2$[ebp]
  00f90	52		 push	 edx
  00f91	0f b6 45 e8	 movzx	 eax, BYTE PTR _Option1$[ebp]
  00f95	50		 push	 eax
  00f96	f3 0f 2c 4d ec	 cvttss2si ecx, DWORD PTR _dur$[ebp]
  00f9b	0f b6 d1	 movzx	 edx, cl
  00f9e	52		 push	 edx
  00f9f	0f b6 45 f8	 movzx	 eax, BYTE PTR _level$[ebp]
  00fa3	50		 push	 eax
  00fa4	8b 4d fc	 mov	 ecx, DWORD PTR _type$[ebp]
  00fa7	51		 push	 ecx
  00fa8	0f b6 55 f0	 movzx	 edx, BYTE PTR _y$[ebp]
  00fac	52		 push	 edx
  00fad	0f b6 45 f4	 movzx	 eax, BYTE PTR _x$[ebp]
  00fb1	50		 push	 eax
  00fb2	8b 4d 08	 mov	 ecx, DWORD PTR _lpObj$[ebp]
  00fb5	0f b6 91 09 01
	00 00		 movzx	 edx, BYTE PTR [ecx+265]
  00fbc	52		 push	 edx
  00fbd	8b 45 08	 mov	 eax, DWORD PTR _lpObj$[ebp]
  00fc0	8b 08		 mov	 ecx, DWORD PTR [eax]
  00fc2	51		 push	 ecx
  00fc3	e8 00 00 00 00	 call	 ?ItemSerialCreateSend@@YAXHEEEHEEEEEHEEH@Z ; ItemSerialCreateSend
  00fc8	83 c4 38	 add	 esp, 56			; 00000038H

; 5982 : 				return TRUE;

  00fcb	b8 01 00 00 00	 mov	 eax, 1
  00fd0	e9 ee 00 00 00	 jmp	 $LN1@gEventMons
$LN82@gEventMons:

; 5983 : #endif	// UPDATE_MASTER_LEVEL_EVENTMAP_TICKET_METERIAL_DROPRATE_20080123
; 5984 : 			}
; 5985 : 		}
; 5986 : 	}
; 5987 : #endif
; 5988 : 	
; 5989 : 
; 5990 : #ifdef DARK_LORD_HEART_EVENT_20040810			// 다크로드의 마음 이벤트 아이템 드롭
; 5991 : 	if (rand()%10000 < g_iDarkLordHeartDropRate) 

  00fd5	e8 00 00 00 00	 call	 _rand
  00fda	99		 cdq
  00fdb	b9 10 27 00 00	 mov	 ecx, 10000		; 00002710H
  00fe0	f7 f9		 idiv	 ecx
  00fe2	3b 15 00 00 00
	00		 cmp	 edx, DWORD PTR ?g_iDarkLordHeartDropRate@@3HA ; g_iDarkLordHeartDropRate
  00fe8	0f 8d d3 00 00
	00		 jge	 $LN96@gEventMons

; 5992 : 	{
; 5993 : 		int iDropRate = 0;

  00fee	c7 45 84 00 00
	00 00		 mov	 DWORD PTR _iDropRate$2[ebp], 0

; 5994 : 
; 5995 : 		// 세 맵에서만 떨어진다.
; 5996 : 		if (lpTargetObj->MapNumber == MAP_INDEX_RORENCIA ||
; 5997 : 			lpTargetObj->MapNumber == MAP_INDEX_NORIA ||

  00ff5	8b 45 0c	 mov	 eax, DWORD PTR _lpTargetObj$[ebp]
  00ff8	0f b6 88 09 01
	00 00		 movzx	 ecx, BYTE PTR [eax+265]
  00fff	85 c9		 test	 ecx, ecx
  01001	74 22		 je	 SHORT $LN97@gEventMons
  01003	8b 45 0c	 mov	 eax, DWORD PTR _lpTargetObj$[ebp]
  01006	0f b6 88 09 01
	00 00		 movzx	 ecx, BYTE PTR [eax+265]
  0100d	83 f9 03	 cmp	 ecx, 3
  01010	74 13		 je	 SHORT $LN97@gEventMons
  01012	8b 45 0c	 mov	 eax, DWORD PTR _lpTargetObj$[ebp]
  01015	0f b6 88 09 01
	00 00		 movzx	 ecx, BYTE PTR [eax+265]
  0101c	83 f9 02	 cmp	 ecx, 2
  0101f	0f 85 9c 00 00
	00		 jne	 $LN96@gEventMons
$LN97@gEventMons:

; 5998 : 			lpTargetObj->MapNumber == MAP_INDEX_DEVIAS
; 5999 : 			)
; 6000 : 		{
; 6001 : 			type	= ItemGetNumberMake(14, 11);

  01025	6a 0b		 push	 11			; 0000000bH
  01027	6a 0e		 push	 14			; 0000000eH
  01029	e8 00 00 00 00	 call	 ?ItemGetNumberMake@@YAHHH@Z ; ItemGetNumberMake
  0102e	83 c4 08	 add	 esp, 8
  01031	89 45 fc	 mov	 DWORD PTR _type$[ebp], eax

; 6002 : 			level	= 13;

  01034	c7 45 f8 0d 00
	00 00		 mov	 DWORD PTR _level$[ebp], 13 ; 0000000dH

; 6003 : 			x		= lpObj->X;

  0103b	8b 45 08	 mov	 eax, DWORD PTR _lpObj$[ebp]
  0103e	0f bf 88 04 01
	00 00		 movsx	 ecx, WORD PTR [eax+260]
  01045	89 4d f4	 mov	 DWORD PTR _x$[ebp], ecx

; 6004 : 			y		= lpObj->Y;

  01048	8b 45 08	 mov	 eax, DWORD PTR _lpObj$[ebp]
  0104b	0f bf 88 06 01
	00 00		 movsx	 ecx, WORD PTR [eax+262]
  01052	89 4d f0	 mov	 DWORD PTR _y$[ebp], ecx

; 6005 : 			dur		= 0;

  01055	0f 57 c0	 xorps	 xmm0, xmm0
  01058	f3 0f 11 45 ec	 movss	 DWORD PTR _dur$[ebp], xmm0

; 6006 : 			
; 6007 : 			int MaxHitUser = gObjMonsterTopHitDamageUser(lpObj);

  0105d	8b 45 08	 mov	 eax, DWORD PTR _lpObj$[ebp]
  01060	50		 push	 eax
  01061	e8 00 00 00 00	 call	 ?gObjMonsterTopHitDamageUser@@YAHPAVOBJECTSTRUCT@@@Z ; gObjMonsterTopHitDamageUser
  01066	83 c4 04	 add	 esp, 4
  01069	89 45 80	 mov	 DWORD PTR _MaxHitUser$1[ebp], eax

; 6008 : 			ItemSerialCreateSend(lpObj->m_Index, lpObj->MapNumber, (BYTE)x, (BYTE)y, type, level, (BYTE)dur, Option1, Option2, Option3, MaxHitUser);

  0106c	6a 00		 push	 0
  0106e	6a 00		 push	 0
  01070	6a 00		 push	 0
  01072	8b 45 80	 mov	 eax, DWORD PTR _MaxHitUser$1[ebp]
  01075	50		 push	 eax
  01076	0f b6 4d e0	 movzx	 ecx, BYTE PTR _Option3$[ebp]
  0107a	51		 push	 ecx
  0107b	0f b6 55 e4	 movzx	 edx, BYTE PTR _Option2$[ebp]
  0107f	52		 push	 edx
  01080	0f b6 45 e8	 movzx	 eax, BYTE PTR _Option1$[ebp]
  01084	50		 push	 eax
  01085	f3 0f 2c 4d ec	 cvttss2si ecx, DWORD PTR _dur$[ebp]
  0108a	0f b6 d1	 movzx	 edx, cl
  0108d	52		 push	 edx
  0108e	0f b6 45 f8	 movzx	 eax, BYTE PTR _level$[ebp]
  01092	50		 push	 eax
  01093	8b 4d fc	 mov	 ecx, DWORD PTR _type$[ebp]
  01096	51		 push	 ecx
  01097	0f b6 55 f0	 movzx	 edx, BYTE PTR _y$[ebp]
  0109b	52		 push	 edx
  0109c	0f b6 45 f4	 movzx	 eax, BYTE PTR _x$[ebp]
  010a0	50		 push	 eax
  010a1	8b 4d 08	 mov	 ecx, DWORD PTR _lpObj$[ebp]
  010a4	0f b6 91 09 01
	00 00		 movzx	 edx, BYTE PTR [ecx+265]
  010ab	52		 push	 edx
  010ac	8b 45 08	 mov	 eax, DWORD PTR _lpObj$[ebp]
  010af	8b 08		 mov	 ecx, DWORD PTR [eax]
  010b1	51		 push	 ecx
  010b2	e8 00 00 00 00	 call	 ?ItemSerialCreateSend@@YAXHEEEHEEEEEHEEH@Z ; ItemSerialCreateSend
  010b7	83 c4 38	 add	 esp, 56			; 00000038H

; 6009 : 			return TRUE;

  010ba	b8 01 00 00 00	 mov	 eax, 1
  010bf	eb 02		 jmp	 SHORT $LN1@gEventMons
$LN96@gEventMons:

; 6010 : 		}
; 6011 : 	}	
; 6012 : #endif
; 6013 : 
; 6014 : #ifdef MU_CHN_THANKS_COOKIE_EVENT_20040908
; 6015 : 	if( ChnThanksCookieEvent->DropEventItem(lpObj->m_Index) )
; 6016 : 	{
; 6017 : 		return TRUE;
; 6018 : 	}
; 6019 : #endif
; 6020 : 	
; 6021 : #ifdef EVENT_SONGKRAN_2005_20050316
; 6022 : 	int MaxHitUser = gObjMonsterTopHitDamageUser(lpObj);
; 6023 : 	if( MaxHitUser != -1 )
; 6024 : 	{
; 6025 : 		int partycount = gParty.GetPartyCount(gObj[MaxHitUser].PartyNumber);
; 6026 : 
; 6027 : 		if( partycount > 0 )
; 6028 : 		{	// 파티를 맺었을때만 
; 6029 : 			LPMONSTER_ATTRIBUTE lpattr = gMAttr.GetAttr(lpObj->Class);
; 6030 : 
; 6031 : 			if( lpattr )
; 6032 : 			{
; 6033 : 				if( lpattr->m_Level >= 17 )
; 6034 : 				{
; 6035 : 					if( (rand()%10000) < gHeartOfLoveDropRate )
; 6036 : 					{
; 6037 : 						// 자이언트 이상일때만
; 6038 : 						dur  = 255;
; 6039 : 						x    = lpObj->X;
; 6040 : 						y    = lpObj->Y;
; 6041 : 						level= 2;	// 폭죽
; 6042 : 						type = ItemGetNumberMake(14, 11);			
; 6043 : 						ItemSerialCreateSend(lpObj->m_Index, lpObj->MapNumber, (BYTE)x, (BYTE)y, type, level, (BYTE)dur, Option1, Option2, Option3, MaxHitUser);
; 6044 : 						return TRUE;
; 6045 : 					}
; 6046 : 				}
; 6047 : 			}
; 6048 : 		}
; 6049 : 	}
; 6050 : #endif // EVENT_SONGKRAN_2005_20050316
; 6051 : 	
; 6052 : #ifdef CHRISTMAS_RIBBONBOX_EVENT_20051212
; 6053 : 	if( g_bRibbonBoxEvent )	// 크리스마스 리본상자 이벤트가 진행중일 때
; 6054 : 	{
; 6055 : 		// 몬스터 레벨별로 드랍된다.		
; 6056 : 		if( lpObj->Level >= g_iRedRibbonBoxDropLevelMin && lpObj->Level <= g_iRedRibbonBoxDropLevelMax )
; 6057 : 		{
; 6058 : 			// 빨간리본상자
; 6059 : 			if( ( rand() % 10000 ) < g_iRedRibbonBoxDropRate )
; 6060 : 			{
; 6061 : 				type	= ItemGetNumberMake(12, 32);
; 6062 : 				level	= 0;
; 6063 : #ifdef MODIFY_BOX_DROP_POSITION_20070308	// 빨간리본상자
; 6064 : 				x		= lpObj->X;
; 6065 : 				y		= lpObj->Y;
; 6066 : 				int MaxHitUser = gObjMonsterTopHitDamageUser(lpObj);
; 6067 : 				ItemSerialCreateSend( lpObj->m_Index, lpObj->MapNumber, (BYTE)x, (BYTE)y, type, level, (BYTE)dur, Option1, Option2, Option3, MaxHitUser);
; 6068 : 				return TRUE;
; 6069 : #else
; 6070 : 				x		= lpTargetObj->X;
; 6071 : 				y		= lpTargetObj->Y;
; 6072 : 				int MaxHitUser = gObjMonsterTopHitDamageUser(lpObj);
; 6073 : 				ItemSerialCreateSend( lpTargetObj->m_Index, lpTargetObj->MapNumber, (BYTE)x, (BYTE)y, type, level, (BYTE)dur, Option1, Option2, Option3, MaxHitUser);
; 6074 : 				return TRUE;
; 6075 : #endif
; 6076 : 			}
; 6077 : 		}
; 6078 : 		else if( lpObj->Level >= g_iGreenRibbonBoxDropLevelMin && lpObj->Level <= g_iGreenRibbonBoxDropLevelMax )
; 6079 : 		{
; 6080 : 			// 초록리본상자
; 6081 : 			if( ( rand() % 10000 ) < g_iGreenRibbonBoxDropRate )
; 6082 : 			{
; 6083 : 				type	= ItemGetNumberMake(12, 33);
; 6084 : 				level	= 0;
; 6085 : #ifdef MODIFY_BOX_DROP_POSITION_20070308	// 초록리본상자
; 6086 : 				x		= lpObj->X;
; 6087 : 				y		= lpObj->Y;
; 6088 : 				int MaxHitUser = gObjMonsterTopHitDamageUser(lpObj);
; 6089 : 				ItemSerialCreateSend(lpObj->m_Index, lpObj->MapNumber, (BYTE)x, (BYTE)y, type, level, (BYTE)dur, Option1, Option2, Option3, MaxHitUser);				
; 6090 : 				return TRUE;
; 6091 : #else
; 6092 : 				x		= lpTargetObj->X;
; 6093 : 				y		= lpTargetObj->Y;
; 6094 : 				int MaxHitUser = gObjMonsterTopHitDamageUser(lpObj);
; 6095 : 				ItemSerialCreateSend(lpTargetObj->m_Index, lpTargetObj->MapNumber, (BYTE)x, (BYTE)y, type, level, (BYTE)dur, Option1, Option2, Option3, MaxHitUser);				
; 6096 : 				return TRUE;
; 6097 : #endif
; 6098 : 			}
; 6099 : 		}
; 6100 : 		else if( lpObj->Level >= g_iBlueRibbonBoxDropLevelMin && lpObj->Level <= g_iBlueRibbonBoxDropLevelMax ) // 70 ~ 97
; 6101 : 		{
; 6102 : 			// 파란리본상자
; 6103 : 			if( ( rand() % 10000 ) < g_iBlueRibbonBoxDropRate )
; 6104 : 			{
; 6105 : 				type	= ItemGetNumberMake(12, 34);
; 6106 : 				level	= 0;
; 6107 : #ifdef MODIFY_BOX_DROP_POSITION_20070308	// 파란리본상자
; 6108 : 				x		= lpObj->X;
; 6109 : 				y		= lpObj->Y;							
; 6110 : 				int MaxHitUser = gObjMonsterTopHitDamageUser(lpObj);
; 6111 : 				ItemSerialCreateSend(lpObj->m_Index, lpObj->MapNumber, (BYTE)x, (BYTE)y, type, level, (BYTE)dur, Option1, Option2, Option3, MaxHitUser);				
; 6112 : 				return TRUE;
; 6113 : #else
; 6114 : 				x		= lpTargetObj->X;
; 6115 : 				y		= lpTargetObj->Y;							
; 6116 : 				int MaxHitUser = gObjMonsterTopHitDamageUser(lpObj);
; 6117 : 				ItemSerialCreateSend(lpTargetObj->m_Index, lpTargetObj->MapNumber, (BYTE)x, (BYTE)y, type, level, (BYTE)dur, Option1, Option2, Option3, MaxHitUser);				
; 6118 : 				return TRUE;
; 6119 : #endif
; 6120 : 			}
; 6121 : 		}				
; 6122 : 	}
; 6123 : #endif // #ifdef CHRISTMAS_RIBBONBOX_EVENT_20051212
; 6124 : 	
; 6125 : #ifdef VALENTINES_DAY_BOX_EVENT_20060124
; 6126 : 	if( g_bChocolateBoxEvent )	// 발렌타인데이 초콜릿상자 이벤트가 진행중일 때
; 6127 : 	{
; 6128 : 		// 몬스터 레벨별로 드랍된다.		
; 6129 : 		if( lpObj->Level >= g_iPinkChocolateBoxDropLevelMin && lpObj->Level <= g_iPinkChocolateBoxDropLevelMax )
; 6130 : 		{
; 6131 : 			// 분홍초콜릿상자 
; 6132 : 			if( ( rand() % 10000 ) < g_iPinkChocolateBoxDropRate )
; 6133 : 			{
; 6134 : 				type	= ItemGetNumberMake(14, 32);
; 6135 : 				level	= 0;
; 6136 : #ifdef MODIFY_VALENTINES_DAY_BOX_DROP_20070202
; 6137 : 				x		= lpObj->X;
; 6138 : 				y		= lpObj->Y;
; 6139 : 
; 6140 : 				int MaxHitUser = gObjMonsterTopHitDamageUser(lpObj);
; 6141 : 				ItemSerialCreateSend( lpObj->m_Index, lpObj->MapNumber, (BYTE)x, (BYTE)y, type, level, (BYTE)dur, Option1, Option2, Option3, MaxHitUser);
; 6142 : 				return TRUE;
; 6143 : #else
; 6144 : 				x		= lpTargetObj->X;
; 6145 : 				y		= lpTargetObj->Y;
; 6146 : 
; 6147 : 				int MaxHitUser = gObjMonsterTopHitDamageUser(lpObj);
; 6148 : 				ItemSerialCreateSend( lpTargetObj->m_Index, lpTargetObj->MapNumber, (BYTE)x, (BYTE)y, type, level, (BYTE)dur, Option1, Option2, Option3, MaxHitUser);
; 6149 : 				return TRUE;
; 6150 : #endif
; 6151 : 			}
; 6152 : 		}
; 6153 : 		else if( lpObj->Level >= g_iRedChocolateBoxDropLevelMin && lpObj->Level <= g_iRedChocolateBoxDropLevelMax )
; 6154 : 		{
; 6155 : 			// 빨간초콜릿상자
; 6156 : 			if( ( rand() % 10000 ) < g_iRedChocolateBoxDropRate )
; 6157 : 			{
; 6158 : 				type	= ItemGetNumberMake(14, 33);
; 6159 : 				level	= 0;
; 6160 : #ifdef MODIFY_VALENTINES_DAY_BOX_DROP_20070202
; 6161 : 				x		= lpObj->X;
; 6162 : 				y		= lpObj->Y;
; 6163 : 
; 6164 : 				int MaxHitUser = gObjMonsterTopHitDamageUser(lpObj);
; 6165 : 				ItemSerialCreateSend(lpObj->m_Index, lpObj->MapNumber, (BYTE)x, (BYTE)y, type, level, (BYTE)dur, Option1, Option2, Option3, MaxHitUser);				
; 6166 : 				return TRUE;
; 6167 : #else
; 6168 : 				x		= lpTargetObj->X;
; 6169 : 				y		= lpTargetObj->Y;
; 6170 : 
; 6171 : 				int MaxHitUser = gObjMonsterTopHitDamageUser(lpObj);
; 6172 : 				ItemSerialCreateSend(lpTargetObj->m_Index, lpTargetObj->MapNumber, (BYTE)x, (BYTE)y, type, level, (BYTE)dur, Option1, Option2, Option3, MaxHitUser);				
; 6173 : 				return TRUE;
; 6174 : #endif
; 6175 : 			}
; 6176 : 		}
; 6177 : 		else if( lpObj->Level >= g_iBlueChocolateBoxDropLevelMin && lpObj->Level <= g_iBlueChocolateBoxDropLevelMax ) // 70 ~ 97
; 6178 : 		{
; 6179 : 			// 파란초콜릿상자
; 6180 : 			if( ( rand() % 10000 ) < g_iBlueChocolateBoxDropRate )
; 6181 : 			{
; 6182 : 				type	= ItemGetNumberMake(14, 34);
; 6183 : 				level	= 0;
; 6184 : #ifdef MODIFY_VALENTINES_DAY_BOX_DROP_20070202
; 6185 : 				x		= lpObj->X;
; 6186 : 				y		= lpObj->Y;
; 6187 : 
; 6188 : 				int MaxHitUser = gObjMonsterTopHitDamageUser(lpObj);
; 6189 : 				ItemSerialCreateSend(lpObj->m_Index, lpObj->MapNumber, (BYTE)x, (BYTE)y, type, level, (BYTE)dur, Option1, Option2, Option3, MaxHitUser);				
; 6190 : 				return TRUE;
; 6191 : #else
; 6192 : 				x		= lpTargetObj->X;
; 6193 : 				y		= lpTargetObj->Y;
; 6194 : 								
; 6195 : 				int MaxHitUser = gObjMonsterTopHitDamageUser(lpObj);
; 6196 : 				ItemSerialCreateSend(lpTargetObj->m_Index, lpTargetObj->MapNumber, (BYTE)x, (BYTE)y, type, level, (BYTE)dur, Option1, Option2, Option3, MaxHitUser);				
; 6197 : 				return TRUE;
; 6198 : #endif	
; 6199 : 			}
; 6200 : 		}				
; 6201 : 	}
; 6202 : #endif // #ifdef VALENTINES_DAY_BOX_EVENT_20060124
; 6203 : 
; 6204 : #ifdef WHITEDAY_CANDY_BOX_EVENT_20060222
; 6205 : 	if( g_bCandyBoxEvent )	// 화이트데이 사탕상자 이벤트가 진행중일 때
; 6206 : 	{
; 6207 : 		// 몬스터 레벨별로 드랍된다.		
; 6208 : 		if( lpObj->Level >= g_iLightPurpleCandyBoxDropLevelMin && lpObj->Level <= g_iLightPurpleCandyBoxDropLevelMax )
; 6209 : 		{
; 6210 : 			// 연보라사탕상자 
; 6211 : 			if( ( rand() % 10000 ) < g_iLightPurpleCandyBoxDropRate )
; 6212 : 			{
; 6213 : 				type	= ItemGetNumberMake(14, 32);	
; 6214 : 				level	= 1;
; 6215 : #ifdef MODIFY_BOX_DROP_POSITION_20070308	// 연보라사탕상자
; 6216 : 				x		= lpObj->X;
; 6217 : 				y		= lpObj->Y;
; 6218 : 				int MaxHitUser = gObjMonsterTopHitDamageUser(lpObj);
; 6219 : 				ItemSerialCreateSend( lpObj->m_Index, lpObj->MapNumber, (BYTE)x, (BYTE)y, type, level, (BYTE)dur, Option1, Option2, Option3, MaxHitUser);
; 6220 : 				return TRUE;
; 6221 : #else
; 6222 : 				x		= lpTargetObj->X;
; 6223 : 				y		= lpTargetObj->Y;
; 6224 : 				int MaxHitUser = gObjMonsterTopHitDamageUser(lpObj);
; 6225 : 				ItemSerialCreateSend( lpTargetObj->m_Index, lpTargetObj->MapNumber, (BYTE)x, (BYTE)y, type, level, (BYTE)dur, Option1, Option2, Option3, MaxHitUser);
; 6226 : 				return TRUE;
; 6227 : #endif
; 6228 : 			}
; 6229 : 		}
; 6230 : 		else if( lpObj->Level >= g_iVermilionCandyBoxDropLevelMin && lpObj->Level <= g_iVermilionCandyBoxDropLevelMax )
; 6231 : 		{
; 6232 : 			// 주홍초콜릿상자
; 6233 : 			if( ( rand() % 10000 ) < g_iVermilionCandyBoxDropRate )
; 6234 : 			{
; 6235 : 				type	= ItemGetNumberMake(14, 33);
; 6236 : 				level	= 1;
; 6237 : #ifdef MODIFY_BOX_DROP_POSITION_20070308	// 주홍초콜릿상자
; 6238 : 				x		= lpObj->X;
; 6239 : 				y		= lpObj->Y;
; 6240 : 				int MaxHitUser = gObjMonsterTopHitDamageUser(lpObj);
; 6241 : 				ItemSerialCreateSend(lpObj->m_Index, lpObj->MapNumber, (BYTE)x, (BYTE)y, type, level, (BYTE)dur, Option1, Option2, Option3, MaxHitUser);				
; 6242 : 				return TRUE;
; 6243 : #else
; 6244 : 				x		= lpTargetObj->X;
; 6245 : 				y		= lpTargetObj->Y;
; 6246 : 				int MaxHitUser = gObjMonsterTopHitDamageUser(lpObj);
; 6247 : 				ItemSerialCreateSend(lpTargetObj->m_Index, lpTargetObj->MapNumber, (BYTE)x, (BYTE)y, type, level, (BYTE)dur, Option1, Option2, Option3, MaxHitUser);				
; 6248 : 				return TRUE;
; 6249 : #endif
; 6250 : 			}
; 6251 : 		}
; 6252 : 		else if( lpObj->Level >= g_iDeepBlueCandyBoxDropLevelMin && lpObj->Level <= g_iDeepBlueCandyBoxDropLevelMax ) // 70 ~ 97
; 6253 : 		{
; 6254 : 			// 감청초콜릿상자
; 6255 : 			if( ( rand() % 10000 ) < g_iDeepBlueCandyBoxDropRate )
; 6256 : 			{
; 6257 : 				type	= ItemGetNumberMake(14, 34);
; 6258 : 				level	= 1;
; 6259 : #ifdef MODIFY_BOX_DROP_POSITION_20070308	// 감청초콜릿상자
; 6260 : 				x		= lpObj->X;
; 6261 : 				y		= lpObj->Y;							
; 6262 : 				int MaxHitUser = gObjMonsterTopHitDamageUser(lpObj);
; 6263 : 				ItemSerialCreateSend(lpObj->m_Index, lpObj->MapNumber, (BYTE)x, (BYTE)y, type, level, (BYTE)dur, Option1, Option2, Option3, MaxHitUser);				
; 6264 : 				return TRUE;
; 6265 : #else
; 6266 : 				x		= lpTargetObj->X;
; 6267 : 				y		= lpTargetObj->Y;							
; 6268 : 				int MaxHitUser = gObjMonsterTopHitDamageUser(lpObj);
; 6269 : 				ItemSerialCreateSend(lpTargetObj->m_Index, lpTargetObj->MapNumber, (BYTE)x, (BYTE)y, type, level, (BYTE)dur, Option1, Option2, Option3, MaxHitUser);				
; 6270 : 				return TRUE;
; 6271 : #endif
; 6272 : 			}
; 6273 : 		}				
; 6274 : 	}
; 6275 : #endif // #ifdef WHITEDAY_CANDY_BOX_EVENT_20060222
; 6276 : 	
; 6277 : #ifdef HALLOWINDAY_JACK_O_LANTERN_EVENT_20061017
; 6278 : 	if( g_bHallowinDayEventOn )
; 6279 : 	{
; 6280 : 		bool bIsBossMonster = false;
; 6281 : 
; 6282 : 		// 보스는 드롭하지 않음
; 6283 : 		if( lpObj->m_Index == 349 ||		// 발가스
; 6284 : 			lpObj->m_Index == 364 ||		// 마야
; 6285 : 			lpObj->m_Index == 361 ||		// 나이트메어
; 6286 : 			lpObj->m_Index == 362 ||		// 마야의 손
; 6287 : 			lpObj->m_Index == 363			// 마야의 손
; 6288 : 			)
; 6289 : 		{
; 6290 : 			bIsBossMonster = true;
; 6291 : 		}
; 6292 : 
; 6293 : #ifdef UPDATE_PUMPKIN_OF_LUCK_DROP_LEVEL_20071026	// 호박 드랍 레벨 설정_item(kor).txt의 레벨 값을 얻어와서 레벨 설정
; 6294 : 		if( bIsBossMonster == false && ( rand() % 10000 ) < g_iHallowinDayEventItemDropRate 
; 6295 : 			&& zzzItemLevel(14, 45, lpObj->Level+1))
; 6296 : #else
; 6297 : 		if( bIsBossMonster == false && ( rand() % 10000 ) < g_iHallowinDayEventItemDropRate )
; 6298 : #endif	// UPDATE_PUMPKIN_OF_LUCK_DROP_LEVEL_20071026
; 6299 : 		{
; 6300 : 			type	= ItemGetNumberMake( 14, 45 );
; 6301 : 			level	= 0;
; 6302 : 			x		= lpObj->X;
; 6303 : 			y		= lpObj->Y;
; 6304 : 			int iMaxHitUser = gObjMonsterTopHitDamageUser( lpObj );
; 6305 : 			ItemSerialCreateSend( lpTargetObj->m_Index, lpObj->MapNumber, (BYTE)x, (BYTE)y, type, level, (BYTE)dur, Option1, Option2, Option3, iMaxHitUser );
; 6306 : 			return TRUE;
; 6307 : 		}
; 6308 : 	}
; 6309 : #endif // HALLOWINDAY_JACK_O_LANTERN_EVENT_20061017
; 6310 : 	
; 6311 : 	
; 6312 : #ifdef CHRISTMAS_SANTA_POLYMORPH_RING_20061117
; 6313 : 	if( g_bSantaPolymorphRingDropOn )
; 6314 : 	{
; 6315 : 		bool bIsBossMonster = false;
; 6316 : 
; 6317 : 		// 보스는 드롭하지 않음
; 6318 : 		if( lpObj->m_Index == 349 ||		// 발가스
; 6319 : 			lpObj->m_Index == 364 ||		// 마야
; 6320 : 			lpObj->m_Index == 361 ||		// 나이트메어
; 6321 : 			lpObj->m_Index == 362 ||		// 마야의 손
; 6322 : 			lpObj->m_Index == 363			// 마야의 손
; 6323 : 			)
; 6324 : 		{
; 6325 : 			bIsBossMonster = true;
; 6326 : 		}
; 6327 : 
; 6328 : 		if( bIsBossMonster == false &&
; 6329 : 			( ( rand() % 10000 ) < g_iSantaPolymorphRingDropRate )
; 6330 : 		  )
; 6331 : 		{
; 6332 : 			type	= ItemGetNumberMake( 13, 41 );
; 6333 : 			level	= 0;
; 6334 : 			dur		= 100;
; 6335 : 			x		= lpObj->X;
; 6336 : 			y		= lpObj->Y;
; 6337 : 			int iMaxHitUser = gObjMonsterTopHitDamageUser( lpObj );
; 6338 : 			ItemSerialCreateSend( lpTargetObj->m_Index, lpObj->MapNumber, (BYTE)x, (BYTE)y, type, level, (BYTE)dur, Option1, Option2, Option3, iMaxHitUser );
; 6339 : 		}
; 6340 : 	}
; 6341 : #endif // CHRISTMAS_SANTA_POLYMORPH_RING_20061117
; 6342 : 	
; 6343 : #ifdef ADD_EVENT_MAP_ILLUSION_TEMPLE_20070328
; 6344 : 	if(g_bIllusionTampleEvent)
; 6345 : 	{
; 6346 : 		if (!CHECK_ILLUSION_TEMPLE(lpObj->MapNumber) )
; 6347 : 		{
; 6348 : 			Option1 = 0;
; 6349 : 			Option2 = 0;
; 6350 : 			Option3 = 0;
; 6351 : 
; 6352 : 			// 낡은 두루마리 나올 확률
; 6353 : 			if (rand()%10000 < g_iOldScrollDropRate) 
; 6354 : 			{
; 6355 : #ifdef MODIFY_ILLUSIONTEMPLE_ITEMVALUE_BUFGIX_20070904
; 6356 : 				dur	 = 0;
; 6357 : #else
; 6358 : 				dur  = 128;
; 6359 : #endif
; 6360 : 				x    = lpObj->X;
; 6361 : 				y    = lpObj->Y;
; 6362 : 
; 6363 : 				if(lpObj->Level >= 66)
; 6364 : 				{
; 6365 : 					if( lpObj->Level < 72)			// +1 ( 66 ~ 71)
; 6366 : 					{
; 6367 : 						level = 1;
; 6368 : 					}
; 6369 : 					else if( lpObj->Level < 78)		// +2 (71 ~ 77)
; 6370 : 					{
; 6371 : 						level = 2;
; 6372 : 					}
; 6373 : 					else if( lpObj->Level < 84)		// +3 (78~ 83)
; 6374 : 					{
; 6375 : 						level = 3;
; 6376 : 					}
; 6377 : 					else if( lpObj->Level < 90)		// +4 (84 ~ 89)
; 6378 : 					{
; 6379 : 						level = 4;
; 6380 : 					}
; 6381 : 					else if( lpObj->Level < 96)		// +5 (90~ 96)
; 6382 : 					{
; 6383 : 						level = 5;
; 6384 : 					}
; 6385 : 					else							// +6 (96~)
; 6386 : 					{
; 6387 : 						if(g_bUseMaxLevelIllusionTemple)
; 6388 : 						{
; 6389 : 							// 400 레벨 전용 환영 사원 사용
; 6390 : 							level = 6;
; 6391 : 						}
; 6392 : 						else
; 6393 : 						{
; 6394 : 							level = 5;
; 6395 : 						}
; 6396 : 					}
; 6397 : 
; 6398 : 
; 6399 : #ifdef UPDATE_MASTER_LEVEL_EVENTMAP_TICKET_METERIAL_DROPRATE_20080123	// 마스터레벨 이벤트맵 재료면 처리안함
; 6400 : 					if( level != 6 )
; 6401 : 					{
; 6402 : 						type = ItemGetNumberMake(13, 49);
; 6403 : 						int MaxHitUser = gObjMonsterTopHitDamageUser(lpObj);
; 6404 : 						ItemSerialCreateSend(lpObj->m_Index, lpObj->MapNumber, (BYTE)x, (BYTE)y, type, level, (BYTE)dur, Option1, Option2, Option3, MaxHitUser);
; 6405 : 						return TRUE;
; 6406 : 					}
; 6407 : #else	// UPDATE_MASTER_LEVEL_EVENTMAP_TICKET_METERIAL_DROPRATE_20080123
; 6408 : 					type = ItemGetNumberMake(13, 49);
; 6409 : 					int MaxHitUser = gObjMonsterTopHitDamageUser(lpObj);
; 6410 : 					ItemSerialCreateSend(lpObj->m_Index, lpObj->MapNumber, (BYTE)x, (BYTE)y, type, level, (BYTE)dur, Option1, Option2, Option3, MaxHitUser);
; 6411 : 					return TRUE;
; 6412 : #endif	// UPDATE_MASTER_LEVEL_EVENTMAP_TICKET_METERIAL_DROPRATE_20080123
; 6413 : 				}
; 6414 : 			}
; 6415 : 
; 6416 : 			// 환영교단의 서약 나올 확률
; 6417 : 			if (rand()%10000 < g_iCovenantOfIllusionDropRate) 
; 6418 : 			{
; 6419 : #ifdef MODIFY_ILLUSIONTEMPLE_ITEMVALUE_BUFGIX_20070904
; 6420 : 				dur	 = 0;
; 6421 : #else
; 6422 : 				dur  = 128;
; 6423 : #endif
; 6424 : 				x    = lpObj->X;
; 6425 : 				y    = lpObj->Y;
; 6426 : 
; 6427 : 				if( lpObj->Level >= 70 )
; 6428 : 				{
; 6429 : 					if( lpObj->Level < 76)		// +1 (70 ~ 75)
; 6430 : 					{
; 6431 : 						level = 1;
; 6432 : 					}
; 6433 : 					else if( lpObj->Level < 82)		// +2 (76 ~ 81)
; 6434 : 					{
; 6435 : 						level = 2;
; 6436 : 					}
; 6437 : 					else if( lpObj->Level < 88)		// +3 (82 ~ 87)
; 6438 : 					{
; 6439 : 						level = 3;
; 6440 : 					}
; 6441 : 					else if( lpObj->Level < 94)		// +4 (88 ~ 93)
; 6442 : 					{
; 6443 : 						level = 4;
; 6444 : 					}
; 6445 : 					else if( lpObj->Level < 100)	// +5 (94 ~ 99)
; 6446 : 					{
; 6447 : 						level = 5;
; 6448 : 					}
; 6449 : 					else							// +6 (100 ~)
; 6450 : 					{
; 6451 : 						if(g_bUseMaxLevelIllusionTemple)
; 6452 : 						{
; 6453 : 							// 400 레벨 전용 환영 사원 사용
; 6454 : 							level = 6;
; 6455 : 						}
; 6456 : 						else
; 6457 : 						{
; 6458 : 							level = 5;
; 6459 : 						}
; 6460 : 					}
; 6461 : 				
; 6462 : #ifdef UPDATE_MASTER_LEVEL_EVENTMAP_TICKET_METERIAL_DROPRATE_20080123	// 마스터레벨 이벤트맵 재료면 처리안함
; 6463 : 					if( level != 6 )
; 6464 : 					{
; 6465 : 						type = ItemGetNumberMake(13, 50);
; 6466 : 						int MaxHitUser = gObjMonsterTopHitDamageUser(lpObj);
; 6467 : 						ItemSerialCreateSend(lpObj->m_Index, lpObj->MapNumber, (BYTE)x, (BYTE)y, type, level, (BYTE)dur, Option1, Option2, Option3, MaxHitUser);
; 6468 : 						return TRUE;
; 6469 : 					}
; 6470 : #else	// UPDATE_MASTER_LEVEL_EVENTMAP_TICKET_METERIAL_DROPRATE_20080123
; 6471 : 					type = ItemGetNumberMake(13, 50);
; 6472 : 					int MaxHitUser = gObjMonsterTopHitDamageUser(lpObj);
; 6473 : 					ItemSerialCreateSend(lpObj->m_Index, lpObj->MapNumber, (BYTE)x, (BYTE)y, type, level, (BYTE)dur, Option1, Option2, Option3, MaxHitUser);
; 6474 : 					return TRUE;
; 6475 : #endif	// UPDATE_MASTER_LEVEL_EVENTMAP_TICKET_METERIAL_DROPRATE_20080123
; 6476 : 				}
; 6477 : 			}
; 6478 : 		}
; 6479 : 	}
; 6480 : #endif	// ADD_EVENT_MAP_ILLUSION_TEMPLE_20070328
; 6481 : 
; 6482 : #ifdef ADD_EVENT_CHERRYBLOSSOM_20080312
; 6483 : 	if (g_bCherryBlossomEventOn) 
; 6484 : 	{
; 6485 : 		bool bIsBossMonster = false;
; 6486 : 		
; 6487 : 		// 보스는 드롭하지 않음
; 6488 : 		if( lpObj->m_Index == 349 ||		// 발가스
; 6489 : 			lpObj->m_Index == 364 ||		// 마야
; 6490 : 			lpObj->m_Index == 361 ||		// 나이트메어
; 6491 : 			lpObj->m_Index == 362 ||		// 마야의 손
; 6492 : 			lpObj->m_Index == 363			// 마야의 손
; 6493 : 			)
; 6494 : 		{
; 6495 : 			bIsBossMonster = true;
; 6496 : 		}
; 6497 : 		
; 6498 : #ifdef MODIFY_CHERRYBLOSSOM_DROP_VULCANUS_20090324
; 6499 : 		if( lpObj->MapNumber != MAP_INDEX_VULCANUS )	// 불카노스가 아니면 드랍하지 않는다.
; 6500 : 		{
; 6501 : 			return FALSE;
; 6502 : 		}
; 6503 : #endif // MODIFY_CHERRYBLOSSOM_DROP_VULCANUS_20090324
; 6504 : 		
; 6505 : 		//#ifdef UPDATE_PUMPKIN_OF_LUCK_DROP_LEVEL_20071026	// 벚꽃 드랍 레벨 설정_item(kor).txt의 레벨 값을 얻어와서 레벨 설정
; 6506 : 		//		if( bIsBossMonster == false && ( rand() % 10000 ) < g_bCherryBlossomEventItemDropRate 
; 6507 : 		//			&& zzzItemLevel(14, 84, lpObj->Level+1))
; 6508 : 		//#else
; 6509 : 		if( bIsBossMonster == false && ( rand() % 10000 ) < g_bCherryBlossomEventItemDropRate )
; 6510 : 			//#endif	// UPDATE_PUMPKIN_OF_LUCK_DROP_LEVEL_20071026
; 6511 : 		{
; 6512 : 			type	= ItemGetNumberMake( 14, 84 );	//벚꽃놀이 상자 //45
; 6513 : 			level	= 0;
; 6514 : 			x		= lpObj->X;
; 6515 : 			y		= lpObj->Y;
; 6516 : 			int iMaxHitUser = gObjMonsterTopHitDamageUser( lpObj );
; 6517 : 			ItemSerialCreateSend( lpTargetObj->m_Index, lpObj->MapNumber, (BYTE)x, (BYTE)y, type, level, (BYTE)dur, Option1, Option2, Option3, iMaxHitUser );
; 6518 : 			return TRUE;
; 6519 : 		}
; 6520 : 	}
; 6521 : #endif // ADD_EVENT_CHERRYBLOSSOM_20080312
; 6522 : 
; 6523 : #ifdef UPDATE_LUCKY_COIN_EVENT_20081029							// 행운의 동전 드롭처리
; 6524 : 	if(g_bLuckyCoinEventOn)
; 6525 : 	{
; 6526 : 		if (rand()%10000 < g_iLuckyCoinDropRate) {
; 6527 : 			Option1 = 0;
; 6528 : 			Option2 = 0;
; 6529 : 			Option3 = 0;
; 6530 : 			level	= 0;
; 6531 : 			dur		= 1;
; 6532 : 			x		= lpObj->X;
; 6533 : 			y		= lpObj->Y;
; 6534 : 
; 6535 : 			type = ItemGetNumberMake(14, 100);						// 행운의 동전
; 6536 : 			int MaxHitUser = gObjMonsterTopHitDamageUser(lpObj);
; 6537 : 			ItemSerialCreateSend(lpObj->m_Index, lpObj->MapNumber, (BYTE)x, (BYTE)y, type, level, (BYTE)dur, Option1, Option2, Option3, MaxHitUser);
; 6538 : 			return TRUE;
; 6539 : 		}
; 6540 : 	}
; 6541 : #endif	// UPDATE_LUCKY_COIN_EVENT_20081029
; 6542 : 	
; 6543 : 	return FALSE;

  010c1	33 c0		 xor	 eax, eax
$LN1@gEventMons:

; 6544 : }

  010c3	5f		 pop	 edi
  010c4	5e		 pop	 esi
  010c5	5b		 pop	 ebx
  010c6	8b e5		 mov	 esp, ebp
  010c8	5d		 pop	 ebp
  010c9	c3		 ret	 0
?gEventMonsterItemDrop@@YAHPAVOBJECTSTRUCT@@0@Z ENDP	; gEventMonsterItemDrop
_TEXT	ENDS
; Function compile flags: /Odtp /ZI
; File C:\Mu Online\Mu-GS-Webzen-MC-10093\GameServer\gObjMonster.cpp
;	COMDAT ?gObjMonsterBeattackRecv@@YAXPAEH@Z
_TEXT	SEGMENT
_n$1 = -548						; size = 4
_i$2 = -544						; size = 4
_pTargetNumber$ = -540					; size = 512
_lOfs2$ = -28						; size = 4
_lpMsg$ = -24						; size = 4
_lpMagic$ = -20						; size = 4
_tNumber$ = -16						; size = 4
_lOfs$ = -12						; size = 4
_lpCount$ = -8						; size = 4
__$ArrayPad$ = -4					; size = 4
_lpRecv$ = 8						; size = 4
_aIndex$ = 12						; size = 4
?gObjMonsterBeattackRecv@@YAXPAEH@Z PROC		; gObjMonsterBeattackRecv, COMDAT

; 2016 : {

  00000	55		 push	 ebp
  00001	8b ec		 mov	 ebp, esp
  00003	81 ec a4 02 00
	00		 sub	 esp, 676		; 000002a4H
  00009	a1 00 00 00 00	 mov	 eax, DWORD PTR ___security_cookie
  0000e	33 c5		 xor	 eax, ebp
  00010	89 45 fc	 mov	 DWORD PTR __$ArrayPad$[ebp], eax
  00013	53		 push	 ebx
  00014	56		 push	 esi
  00015	57		 push	 edi

; 2017 : 	LPPMSG_BEATTACK_COUNT	lpCount = (LPPMSG_BEATTACK_COUNT)lpRecv;

  00016	8b 45 08	 mov	 eax, DWORD PTR _lpRecv$[ebp]
  00019	89 45 f8	 mov	 DWORD PTR _lpCount$[ebp], eax

; 2018 : 	
; 2019 : 	int	lOfs;
; 2020 : 	int tNumber;
; 2021 : 	CMagicInf *lpMagic;
; 2022 : 
; 2023 : 	lOfs = sizeof(PMSG_BEATTACK_COUNT);

  0001c	c7 45 f4 08 00
	00 00		 mov	 DWORD PTR _lOfs$[ebp], 8

; 2024 : 	LPPMSG_BEATTACK	lpMsg;
; 2025 : 
; 2026 : 	// 몬스터일 경우 마법 번호 얻는 처리
; 2027 : #ifdef ADD_MASTER_LEVEL_SKILL_SYSTEM_ACTIVE_20080107	// 스킬번호 BYTE -> WORD
; 2028 : 	WORD wMagicNumber = MAKEWORD( lpCount->MagicNumberL, lpCount->MagicNumberH );
; 2029 : 	lpMagic = gObjGetMagic(&gObj[aIndex], wMagicNumber);
; 2030 : #else
; 2031 : 	lpMagic = gObjGetMagic(&gObj[aIndex], lpCount->MagicNumber);

  00023	8b 45 f8	 mov	 eax, DWORD PTR _lpCount$[ebp]
  00026	0f b6 48 03	 movzx	 ecx, BYTE PTR [eax+3]
  0002a	51		 push	 ecx
  0002b	69 55 0c a0 1b
	00 00		 imul	 edx, DWORD PTR _aIndex$[ebp], 7072
  00032	03 15 00 00 00
	00		 add	 edx, DWORD PTR ?gObj@@3PAVOBJECTSTRUCT@@A ; gObj
  00038	52		 push	 edx
  00039	e8 00 00 00 00	 call	 ?gObjGetMagic@@YAPAVCMagicInf@@PAVOBJECTSTRUCT@@H@Z ; gObjGetMagic
  0003e	83 c4 08	 add	 esp, 8
  00041	89 45 ec	 mov	 DWORD PTR _lpMagic$[ebp], eax

; 2032 : #endif
; 2033 : 
; 2034 : 	if( lpMagic == NULL )

  00044	83 7d ec 00	 cmp	 DWORD PTR _lpMagic$[ebp], 0
  00048	75 21		 jne	 SHORT $LN8@gObjMonste

; 2035 : 	{
; 2036 : 		LogAdd("error-L3 %s %d", __FILE__, __LINE__);

  0004a	a1 00 00 00 00	 mov	 eax, DWORD PTR ?__LINE__Var@?0??gObjMonsterBeattackRecv@@YAXPAEH@Z@4JA
  0004f	83 c0 14	 add	 eax, 20			; 00000014H
  00052	50		 push	 eax
  00053	68 00 00 00 00	 push	 OFFSET ??_C@_0DO@IODFIFIN@C?3?2Mu?5Online?2Mu?9GS?9Webzen?9MC?910@
  00058	68 00 00 00 00	 push	 OFFSET ??_C@_0P@EEHIDPGB@error?9L3?5?$CFs?5?$CFd@
  0005d	ff 15 00 00 00
	00		 call	 DWORD PTR ?LogAdd@@3P6AXPADZZA ; LogAdd
  00063	83 c4 0c	 add	 esp, 12			; 0000000cH

; 2037 : 		return;

  00066	e9 29 01 00 00	 jmp	 $LN1@gObjMonste
$LN8@gObjMonste:

; 2038 : 	}
; 2039 : 
; 2040 : 	int lOfs2 = lOfs;

  0006b	8b 45 f4	 mov	 eax, DWORD PTR _lOfs$[ebp]
  0006e	89 45 e4	 mov	 DWORD PTR _lOfs2$[ebp], eax

; 2041 : 	int pTargetNumber[128] = {0,};

  00071	68 00 02 00 00	 push	 512			; 00000200H
  00076	6a 00		 push	 0
  00078	8d 85 e4 fd ff
	ff		 lea	 eax, DWORD PTR _pTargetNumber$[ebp]
  0007e	50		 push	 eax
  0007f	e8 00 00 00 00	 call	 _memset
  00084	83 c4 0c	 add	 esp, 12			; 0000000cH

; 2042 : 
; 2043 : 	for( int i = 0; i < lpCount->Count; i++ )

  00087	c7 85 e0 fd ff
	ff 00 00 00 00	 mov	 DWORD PTR _i$2[ebp], 0
  00091	eb 0f		 jmp	 SHORT $LN4@gObjMonste
$LN2@gObjMonste:
  00093	8b 85 e0 fd ff
	ff		 mov	 eax, DWORD PTR _i$2[ebp]
  00099	83 c0 01	 add	 eax, 1
  0009c	89 85 e0 fd ff
	ff		 mov	 DWORD PTR _i$2[ebp], eax
$LN4@gObjMonste:
  000a2	8b 45 f8	 mov	 eax, DWORD PTR _lpCount$[ebp]
  000a5	0f b6 48 07	 movzx	 ecx, BYTE PTR [eax+7]
  000a9	39 8d e0 fd ff
	ff		 cmp	 DWORD PTR _i$2[ebp], ecx
  000af	7d 48		 jge	 SHORT $LN3@gObjMonste

; 2044 : 	{
; 2045 : 		lpMsg = (LPPMSG_BEATTACK)(lpRecv+lOfs2);

  000b1	8b 45 08	 mov	 eax, DWORD PTR _lpRecv$[ebp]
  000b4	03 45 e4	 add	 eax, DWORD PTR _lOfs2$[ebp]
  000b7	89 45 e8	 mov	 DWORD PTR _lpMsg$[ebp], eax

; 2046 : 		pTargetNumber[i] = MAKEWORD(lpMsg->NumberL, lpMsg->NumberH);

  000ba	8b 45 e8	 mov	 eax, DWORD PTR _lpMsg$[ebp]
  000bd	0f b6 48 01	 movzx	 ecx, BYTE PTR [eax+1]
  000c1	81 e1 ff 00 00
	00		 and	 ecx, 255		; 000000ffH
  000c7	0f b6 d1	 movzx	 edx, cl
  000ca	8b 45 e8	 mov	 eax, DWORD PTR _lpMsg$[ebp]
  000cd	0f b6 08	 movzx	 ecx, BYTE PTR [eax]
  000d0	81 e1 ff 00 00
	00		 and	 ecx, 255		; 000000ffH
  000d6	0f b6 c1	 movzx	 eax, cl
  000d9	c1 e0 08	 shl	 eax, 8
  000dc	0b d0		 or	 edx, eax
  000de	0f b7 ca	 movzx	 ecx, dx
  000e1	8b 95 e0 fd ff
	ff		 mov	 edx, DWORD PTR _i$2[ebp]
  000e7	89 8c 95 e4 fd
	ff ff		 mov	 DWORD PTR _pTargetNumber$[ebp+edx*4], ecx

; 2047 : 		lOfs2 += sizeof(PMSG_BEATTACK);

  000ee	8b 45 e4	 mov	 eax, DWORD PTR _lOfs2$[ebp]
  000f1	83 c0 03	 add	 eax, 3
  000f4	89 45 e4	 mov	 DWORD PTR _lOfs2$[ebp], eax

; 2048 : 	}

  000f7	eb 9a		 jmp	 SHORT $LN2@gObjMonste
$LN3@gObjMonste:

; 2049 : 	
; 2050 : 	for( int n=0; n<lpCount->Count; n++)

  000f9	c7 85 dc fd ff
	ff 00 00 00 00	 mov	 DWORD PTR _n$1[ebp], 0
  00103	eb 0f		 jmp	 SHORT $LN7@gObjMonste
$LN5@gObjMonste:
  00105	8b 85 dc fd ff
	ff		 mov	 eax, DWORD PTR _n$1[ebp]
  0010b	83 c0 01	 add	 eax, 1
  0010e	89 85 dc fd ff
	ff		 mov	 DWORD PTR _n$1[ebp], eax
$LN7@gObjMonste:
  00114	8b 45 f8	 mov	 eax, DWORD PTR _lpCount$[ebp]
  00117	0f b6 48 07	 movzx	 ecx, BYTE PTR [eax+7]
  0011b	39 8d dc fd ff
	ff		 cmp	 DWORD PTR _n$1[ebp], ecx
  00121	7d 71		 jge	 SHORT $LN1@gObjMonste

; 2051 : 	{
; 2052 : 		lpMsg = (LPPMSG_BEATTACK)(lpRecv+lOfs);

  00123	8b 45 08	 mov	 eax, DWORD PTR _lpRecv$[ebp]
  00126	03 45 f4	 add	 eax, DWORD PTR _lOfs$[ebp]
  00129	89 45 e8	 mov	 DWORD PTR _lpMsg$[ebp], eax

; 2053 : 		tNumber = MAKEWORD(lpMsg->NumberL, lpMsg->NumberH);	

  0012c	8b 45 e8	 mov	 eax, DWORD PTR _lpMsg$[ebp]
  0012f	0f b6 48 01	 movzx	 ecx, BYTE PTR [eax+1]
  00133	81 e1 ff 00 00
	00		 and	 ecx, 255		; 000000ffH
  00139	0f b6 d1	 movzx	 edx, cl
  0013c	8b 45 e8	 mov	 eax, DWORD PTR _lpMsg$[ebp]
  0013f	0f b6 08	 movzx	 ecx, BYTE PTR [eax]
  00142	81 e1 ff 00 00
	00		 and	 ecx, 255		; 000000ffH
  00148	0f b6 c1	 movzx	 eax, cl
  0014b	c1 e0 08	 shl	 eax, 8
  0014e	0b d0		 or	 edx, eax
  00150	0f b7 ca	 movzx	 ecx, dx
  00153	89 4d f0	 mov	 DWORD PTR _tNumber$[ebp], ecx

; 2054 : 
; 2055 : 		gObjAttack(&gObj[aIndex], &gObj[tNumber], lpMagic, 1, 1);

  00156	6a 00		 push	 0
  00158	6a 00		 push	 0
  0015a	6a 01		 push	 1
  0015c	6a 01		 push	 1
  0015e	8b 45 ec	 mov	 eax, DWORD PTR _lpMagic$[ebp]
  00161	50		 push	 eax
  00162	69 4d f0 a0 1b
	00 00		 imul	 ecx, DWORD PTR _tNumber$[ebp], 7072
  00169	03 0d 00 00 00
	00		 add	 ecx, DWORD PTR ?gObj@@3PAVOBJECTSTRUCT@@A ; gObj
  0016f	51		 push	 ecx
  00170	69 55 0c a0 1b
	00 00		 imul	 edx, DWORD PTR _aIndex$[ebp], 7072
  00177	03 15 00 00 00
	00		 add	 edx, DWORD PTR ?gObj@@3PAVOBJECTSTRUCT@@A ; gObj
  0017d	52		 push	 edx
  0017e	e8 00 00 00 00	 call	 ?gObjAttack@@YAHPAVOBJECTSTRUCT@@0PAVCMagicInf@@HEHH@Z ; gObjAttack
  00183	83 c4 1c	 add	 esp, 28			; 0000001cH

; 2056 : 		
; 2057 : 		lOfs += sizeof(PMSG_BEATTACK);

  00186	8b 45 f4	 mov	 eax, DWORD PTR _lOfs$[ebp]
  00189	83 c0 03	 add	 eax, 3
  0018c	89 45 f4	 mov	 DWORD PTR _lOfs$[ebp], eax

; 2058 : 	}

  0018f	e9 71 ff ff ff	 jmp	 $LN5@gObjMonste
$LN1@gObjMonste:

; 2059 : }

  00194	5f		 pop	 edi
  00195	5e		 pop	 esi
  00196	5b		 pop	 ebx
  00197	8b 4d fc	 mov	 ecx, DWORD PTR __$ArrayPad$[ebp]
  0019a	33 cd		 xor	 ecx, ebp
  0019c	e8 00 00 00 00	 call	 @__security_check_cookie@4
  001a1	8b e5		 mov	 esp, ebp
  001a3	5d		 pop	 ebp
  001a4	c3		 ret	 0
?gObjMonsterBeattackRecv@@YAXPAEH@Z ENDP		; gObjMonsterBeattackRecv
_TEXT	ENDS
; Function compile flags: /Odtp /ZI
; File C:\Mu Online\Mu-GS-Webzen-MC-10093\GameServer\gObjMonster.cpp
;	COMDAT ?gObjMonsterMagicAttack@@YAXPAVOBJECTSTRUCT@@H@Z
_TEXT	SEGMENT
_pDuration$ = -296					; size = 12
_ASBOfs$ = -284						; size = 4
_AttackSendBuff$ = -280					; size = 256
_pAttack$ = -24						; size = 3
_pCount$ = -20						; size = 8
_count$ = -12						; size = 4
_tObjNum$ = -8						; size = 4
__$ArrayPad$ = -4					; size = 4
_lpObj$ = 8						; size = 4
_iMonsterClass$ = 12					; size = 4
?gObjMonsterMagicAttack@@YAXPAVOBJECTSTRUCT@@H@Z PROC	; gObjMonsterMagicAttack, COMDAT

; 1853 : {

  00000	55		 push	 ebp
  00001	8b ec		 mov	 ebp, esp
  00003	81 ec 68 01 00
	00		 sub	 esp, 360		; 00000168H
  00009	a1 00 00 00 00	 mov	 eax, DWORD PTR ___security_cookie
  0000e	33 c5		 xor	 eax, ebp
  00010	89 45 fc	 mov	 DWORD PTR __$ArrayPad$[ebp], eax
  00013	53		 push	 ebx
  00014	56		 push	 esi
  00015	57		 push	 edi

; 1854 : 	int tObjNum;
; 1855 : 	int  count=0;

  00016	c7 45 f4 00 00
	00 00		 mov	 DWORD PTR _count$[ebp], 0

; 1856 : 	PMSG_BEATTACK_COUNT	pCount;
; 1857 : 	PMSG_BEATTACK		pAttack;
; 1858 : 
; 1859 : 	// 이 버퍼 크기 주의해야 한다. 
; 1860 : 	// 추후 몬스터의 뷰포트개수가 증가했을시 수정되야함! (apple)
; 1861 : 	BYTE AttackSendBuff[256];
; 1862 : 	int  ASBOfs=0;

  0001d	c7 85 e4 fe ff
	ff 00 00 00 00	 mov	 DWORD PTR _ASBOfs$[ebp], 0

; 1863 : 	
; 1864 : 	PMSG_DURATION_MAGIC_RECV pDuration;
; 1865 : 	
; 1866 : #ifdef ADD_MASTER_LEVEL_SKILL_SYSTEM_ACTIVE_20080107	// 스킬번호 BYTE -> WORD
; 1867 : 	pCount.MagicNumberH	= HIBYTE( 0 );
; 1868 : 	pCount.MagicNumberL	= LOBYTE( 0 );
; 1869 : #else
; 1870 : 	pCount.MagicNumber = 0;

  00027	c6 45 ef 00	 mov	 BYTE PTR _pCount$[ebp+3], 0

; 1871 : #endif
; 1872 : 	pDuration.Dir = 0;

  0002b	c6 85 de fe ff
	ff 00		 mov	 BYTE PTR _pDuration$[ebp+6], 0

; 1873 : 	pDuration.X = (BYTE)lpObj->X;

  00032	8b 45 08	 mov	 eax, DWORD PTR _lpObj$[ebp]
  00035	8a 88 04 01 00
	00		 mov	 cl, BYTE PTR [eax+260]
  0003b	88 8d dc fe ff
	ff		 mov	 BYTE PTR _pDuration$[ebp+4], cl

; 1874 : 	pDuration.Y = (BYTE)lpObj->Y;

  00041	8b 45 08	 mov	 eax, DWORD PTR _lpObj$[ebp]
  00044	8a 88 06 01 00
	00		 mov	 cl, BYTE PTR [eax+262]
  0004a	88 8d dd fe ff
	ff		 mov	 BYTE PTR _pDuration$[ebp+5], cl

; 1875 : 
; 1876 : #ifdef MODIFY_MONSTER_ENTIRE_ATTACK_20040915
; 1877 : 	// 쿤둔일 경우에는 데미지 판정만 한다 - apple
; 1878 : 	//if( iMonsterClass != 275 )
; 1879 : #endif
; 1880 : 	CGDurationMagicRecv(&pDuration, lpObj->m_Index);

  00050	8b 45 08	 mov	 eax, DWORD PTR _lpObj$[ebp]
  00053	8b 08		 mov	 ecx, DWORD PTR [eax]
  00055	51		 push	 ecx
  00056	8d 95 d8 fe ff
	ff		 lea	 edx, DWORD PTR _pDuration$[ebp]
  0005c	52		 push	 edx
  0005d	e8 00 00 00 00	 call	 ?CGDurationMagicRecv@@YAXPAUPMSG_DURATION_MAGIC_RECV@@H@Z ; CGDurationMagicRecv
  00062	83 c4 08	 add	 esp, 8

; 1881 : 		
; 1882 : 	pCount.h.c = PMHC_BYTE;

  00065	c6 45 ec c1	 mov	 BYTE PTR _pCount$[ebp], 193 ; 000000c1H

; 1883 : #ifdef PACKET_CHANGE	
; 1884 : 	pCount.h.headcode = PACKET_MAGIC_ATTACK;

  00069	c6 45 ee 1d	 mov	 BYTE PTR _pCount$[ebp+2], 29 ; 0000001dH

; 1885 : #else
; 1886 : 	pCount.h.headcode = 0x1D;
; 1887 : #endif
; 1888 : 	pCount.h.size = 0;

  0006d	c6 45 ed 00	 mov	 BYTE PTR _pCount$[ebp+1], 0

; 1889 : 	// 쿤둔(275) 기본 공격을 전체 마법으로. (apple)
; 1890 : #ifdef ADD_MASTER_LEVEL_SKILL_SYSTEM_ACTIVE_20080107	// 스킬번호 BYTE -> WORD
; 1891 : 	pCount.MagicNumberH	= HIBYTE( 0 );
; 1892 : 	pCount.MagicNumberL	= LOBYTE( 0 );
; 1893 : #else
; 1894 : 	pCount.MagicNumber = 0;

  00071	c6 45 ef 00	 mov	 BYTE PTR _pCount$[ebp+3], 0

; 1895 : #endif
; 1896 : 	pCount.Count = 0;

  00075	c6 45 f3 00	 mov	 BYTE PTR _pCount$[ebp+7], 0

; 1897 : 	pCount.X = (BYTE)lpObj->X;

  00079	8b 45 08	 mov	 eax, DWORD PTR _lpObj$[ebp]
  0007c	8a 88 04 01 00
	00		 mov	 cl, BYTE PTR [eax+260]
  00082	88 4d f0	 mov	 BYTE PTR _pCount$[ebp+4], cl

; 1898 : 	pCount.Y = (BYTE)lpObj->Y;

  00085	8b 45 08	 mov	 eax, DWORD PTR _lpObj$[ebp]
  00088	8a 88 06 01 00
	00		 mov	 cl, BYTE PTR [eax+262]
  0008e	88 4d f1	 mov	 BYTE PTR _pCount$[ebp+5], cl

; 1899 : 	ASBOfs = sizeof( pCount );

  00091	c7 85 e4 fe ff
	ff 08 00 00 00	 mov	 DWORD PTR _ASBOfs$[ebp], 8
$LN2@gObjMonste:

; 1900 : 	
; 1901 : 	while(1)

  0009b	b8 01 00 00 00	 mov	 eax, 1
  000a0	85 c0		 test	 eax, eax
  000a2	0f 84 3b 01 00
	00		 je	 $LN3@gObjMonste

; 1902 : 	{
; 1903 : 		if( lpObj->VpPlayer2[count].state )

  000a8	6b 45 f4 0c	 imul	 eax, DWORD PTR _count$[ebp], 12
  000ac	8b 4d 08	 mov	 ecx, DWORD PTR _lpObj$[ebp]
  000af	0f be 94 01 e8
	06 00 00	 movsx	 edx, BYTE PTR [ecx+eax+1768]
  000b7	85 d2		 test	 edx, edx
  000b9	0f 84 0e 01 00
	00		 je	 $LN4@gObjMonste

; 1904 : 		{
; 1905 : 			if( lpObj->VpPlayer2[count].type == OBJTYPE_CHARACTER )

  000bf	6b 45 f4 0c	 imul	 eax, DWORD PTR _count$[ebp], 12
  000c3	8b 4d 08	 mov	 ecx, DWORD PTR _lpObj$[ebp]
  000c6	0f b6 94 01 ec
	06 00 00	 movzx	 edx, BYTE PTR [ecx+eax+1772]
  000ce	83 fa 01	 cmp	 edx, 1
  000d1	0f 85 f6 00 00
	00		 jne	 $LN4@gObjMonste

; 1906 : 			{
; 1907 : 				tObjNum = lpObj->VpPlayer2[count].number;

  000d7	6b 45 f4 0c	 imul	 eax, DWORD PTR _count$[ebp], 12
  000db	8b 4d 08	 mov	 ecx, DWORD PTR _lpObj$[ebp]
  000de	0f bf 94 01 ea
	06 00 00	 movsx	 edx, WORD PTR [ecx+eax+1770]
  000e6	89 55 f8	 mov	 DWORD PTR _tObjNum$[ebp], edx

; 1908 : 				if( tObjNum >= 0 )

  000e9	83 7d f8 00	 cmp	 DWORD PTR _tObjNum$[ebp], 0
  000ed	0f 8c da 00 00
	00		 jl	 $LN4@gObjMonste

; 1909 : 				{
; 1910 : 					if( lpObj->Class == 77 )

  000f3	8b 45 08	 mov	 eax, DWORD PTR _lpObj$[ebp]
  000f6	0f b7 88 9c 00
	00 00		 movzx	 ecx, WORD PTR [eax+156]
  000fd	83 f9 4d	 cmp	 ecx, 77			; 0000004dH
  00100	75 4e		 jne	 SHORT $LN7@gObjMonste

; 1911 : 					{
; 1912 : 						pAttack.NumberH = HIBYTE(tObjNum);

  00102	8b 45 f8	 mov	 eax, DWORD PTR _tObjNum$[ebp]
  00105	c1 e8 08	 shr	 eax, 8
  00108	25 ff 00 00 00	 and	 eax, 255		; 000000ffH
  0010d	88 45 e8	 mov	 BYTE PTR _pAttack$[ebp], al

; 1913 : 						pAttack.NumberL = LOBYTE(tObjNum);

  00110	8b 45 f8	 mov	 eax, DWORD PTR _tObjNum$[ebp]
  00113	25 ff 00 00 00	 and	 eax, 255		; 000000ffH
  00118	88 45 e9	 mov	 BYTE PTR _pAttack$[ebp+1], al

; 1914 : 						memcpy( AttackSendBuff+ASBOfs, (char*)&pAttack, sizeof( pAttack ));

  0011b	6a 03		 push	 3
  0011d	8d 45 e8	 lea	 eax, DWORD PTR _pAttack$[ebp]
  00120	50		 push	 eax
  00121	8b 8d e4 fe ff
	ff		 mov	 ecx, DWORD PTR _ASBOfs$[ebp]
  00127	8d 94 0d e8 fe
	ff ff		 lea	 edx, DWORD PTR _AttackSendBuff$[ebp+ecx]
  0012e	52		 push	 edx
  0012f	e8 00 00 00 00	 call	 _memcpy
  00134	83 c4 0c	 add	 esp, 12			; 0000000cH

; 1915 : 						ASBOfs += sizeof( pAttack );

  00137	8b 85 e4 fe ff
	ff		 mov	 eax, DWORD PTR _ASBOfs$[ebp]
  0013d	83 c0 03	 add	 eax, 3
  00140	89 85 e4 fe ff
	ff		 mov	 DWORD PTR _ASBOfs$[ebp], eax

; 1916 : 						pCount.Count++;

  00146	8a 45 f3	 mov	 al, BYTE PTR _pCount$[ebp+7]
  00149	04 01		 add	 al, 1
  0014b	88 45 f3	 mov	 BYTE PTR _pCount$[ebp+7], al

; 1917 : 					}

  0014e	eb 7d		 jmp	 SHORT $LN4@gObjMonste
$LN7@gObjMonste:

; 1918 : 					else
; 1919 : 					{
; 1920 : #ifdef MODIFY_KUNDUN_VIEWPORT_20060523
; 1921 : 						// 쿤둔 인 경우 전체 공격일 때 거리 무시.
; 1922 : 						if( lpObj->Class == 275 || gObjCalDistance( lpObj, &gObj[tObjNum]) < 6 )

  00150	8b 45 08	 mov	 eax, DWORD PTR _lpObj$[ebp]
  00153	0f b7 88 9c 00
	00 00		 movzx	 ecx, WORD PTR [eax+156]
  0015a	81 f9 13 01 00
	00		 cmp	 ecx, 275		; 00000113H
  00160	74 1f		 je	 SHORT $LN10@gObjMonste
  00162	69 45 f8 a0 1b
	00 00		 imul	 eax, DWORD PTR _tObjNum$[ebp], 7072
  00169	03 05 00 00 00
	00		 add	 eax, DWORD PTR ?gObj@@3PAVOBJECTSTRUCT@@A ; gObj
  0016f	50		 push	 eax
  00170	8b 4d 08	 mov	 ecx, DWORD PTR _lpObj$[ebp]
  00173	51		 push	 ecx
  00174	e8 00 00 00 00	 call	 ?gObjCalDistance@@YAHPAVOBJECTSTRUCT@@0@Z ; gObjCalDistance
  00179	83 c4 08	 add	 esp, 8
  0017c	83 f8 06	 cmp	 eax, 6
  0017f	7d 4c		 jge	 SHORT $LN4@gObjMonste
$LN10@gObjMonste:

; 1923 : #else
; 1924 : 						if( gObjCalDistance( lpObj, &gObj[tObjNum]) < 6 )
; 1925 : #endif // MODIFY_KUNDUN_VIEWPORT_20060523
; 1926 : 						{
; 1927 : 							pAttack.NumberH = HIBYTE(tObjNum);

  00181	8b 45 f8	 mov	 eax, DWORD PTR _tObjNum$[ebp]
  00184	c1 e8 08	 shr	 eax, 8
  00187	25 ff 00 00 00	 and	 eax, 255		; 000000ffH
  0018c	88 45 e8	 mov	 BYTE PTR _pAttack$[ebp], al

; 1928 : 							pAttack.NumberL = LOBYTE(tObjNum);

  0018f	8b 45 f8	 mov	 eax, DWORD PTR _tObjNum$[ebp]
  00192	25 ff 00 00 00	 and	 eax, 255		; 000000ffH
  00197	88 45 e9	 mov	 BYTE PTR _pAttack$[ebp+1], al

; 1929 : 							memcpy( AttackSendBuff+ASBOfs, (char*)&pAttack, sizeof( pAttack ));

  0019a	6a 03		 push	 3
  0019c	8d 45 e8	 lea	 eax, DWORD PTR _pAttack$[ebp]
  0019f	50		 push	 eax
  001a0	8b 8d e4 fe ff
	ff		 mov	 ecx, DWORD PTR _ASBOfs$[ebp]
  001a6	8d 94 0d e8 fe
	ff ff		 lea	 edx, DWORD PTR _AttackSendBuff$[ebp+ecx]
  001ad	52		 push	 edx
  001ae	e8 00 00 00 00	 call	 _memcpy
  001b3	83 c4 0c	 add	 esp, 12			; 0000000cH

; 1930 : 							ASBOfs += sizeof( pAttack );

  001b6	8b 85 e4 fe ff
	ff		 mov	 eax, DWORD PTR _ASBOfs$[ebp]
  001bc	83 c0 03	 add	 eax, 3
  001bf	89 85 e4 fe ff
	ff		 mov	 DWORD PTR _ASBOfs$[ebp], eax

; 1931 : 							pCount.Count++;

  001c5	8a 45 f3	 mov	 al, BYTE PTR _pCount$[ebp+7]
  001c8	04 01		 add	 al, 1
  001ca	88 45 f3	 mov	 BYTE PTR _pCount$[ebp+7], al
$LN4@gObjMonste:

; 1932 : 						}
; 1933 : 					}					
; 1934 : 				}
; 1935 : 			}
; 1936 : 		}
; 1937 : 		count++;

  001cd	8b 45 f4	 mov	 eax, DWORD PTR _count$[ebp]
  001d0	83 c0 01	 add	 eax, 1
  001d3	89 45 f4	 mov	 DWORD PTR _count$[ebp], eax

; 1938 : 		if( count > MAX_MONVIEWPORTOBJECT-1 )

  001d6	83 7d f4 13	 cmp	 DWORD PTR _count$[ebp], 19 ; 00000013H
  001da	7e 02		 jle	 SHORT $LN11@gObjMonste

; 1939 : 		{
; 1940 : 			break;

  001dc	eb 05		 jmp	 SHORT $LN3@gObjMonste
$LN11@gObjMonste:

; 1941 : 		}
; 1942 : 	}

  001de	e9 b8 fe ff ff	 jmp	 $LN2@gObjMonste
$LN3@gObjMonste:

; 1943 : 	if( pCount.Count > 0 )

  001e3	0f b6 45 f3	 movzx	 eax, BYTE PTR _pCount$[ebp+7]
  001e7	85 c0		 test	 eax, eax
  001e9	0f 8e b8 00 00
	00		 jle	 $LN1@gObjMonste

; 1944 : 	{			
; 1945 : 		pCount.h.size = ASBOfs;

  001ef	8a 85 e4 fe ff
	ff		 mov	 al, BYTE PTR _ASBOfs$[ebp]
  001f5	88 45 ed	 mov	 BYTE PTR _pCount$[ebp+1], al

; 1946 : 		memcpy(AttackSendBuff, (char*)&pCount, sizeof(pCount));

  001f8	6a 08		 push	 8
  001fa	8d 45 ec	 lea	 eax, DWORD PTR _pCount$[ebp]
  001fd	50		 push	 eax
  001fe	8d 8d e8 fe ff
	ff		 lea	 ecx, DWORD PTR _AttackSendBuff$[ebp]
  00204	51		 push	 ecx
  00205	e8 00 00 00 00	 call	 _memcpy
  0020a	83 c4 0c	 add	 esp, 12			; 0000000cH

; 1947 : 
; 1948 : #ifdef MODIFY_MONSTER_ENTIRE_ATTACK_20040915
; 1949 : 		// 쿤둔의 환영일 경우
; 1950 : 		if (
; 1951 : 			lpObj->Class == 161 ||		// 쿤둔의 환영1
; 1952 : 			lpObj->Class == 181 || 		// 쿤둔의 환영2
; 1953 : 			lpObj->Class == 189 || 		// 쿤둔의 환영3
; 1954 : 			lpObj->Class == 197 || 		// 쿤둔의 환영4
; 1955 : 			lpObj->Class == 267 || 		// 쿤둔의 환영5

  0020d	8b 45 08	 mov	 eax, DWORD PTR _lpObj$[ebp]
  00210	0f b7 88 9c 00
	00 00		 movzx	 ecx, WORD PTR [eax+156]
  00217	81 f9 a1 00 00
	00		 cmp	 ecx, 161		; 000000a1H
  0021d	74 5a		 je	 SHORT $LN15@gObjMonste
  0021f	8b 45 08	 mov	 eax, DWORD PTR _lpObj$[ebp]
  00222	0f b7 88 9c 00
	00 00		 movzx	 ecx, WORD PTR [eax+156]
  00229	81 f9 b5 00 00
	00		 cmp	 ecx, 181		; 000000b5H
  0022f	74 48		 je	 SHORT $LN15@gObjMonste
  00231	8b 45 08	 mov	 eax, DWORD PTR _lpObj$[ebp]
  00234	0f b7 88 9c 00
	00 00		 movzx	 ecx, WORD PTR [eax+156]
  0023b	81 f9 bd 00 00
	00		 cmp	 ecx, 189		; 000000bdH
  00241	74 36		 je	 SHORT $LN15@gObjMonste
  00243	8b 45 08	 mov	 eax, DWORD PTR _lpObj$[ebp]
  00246	0f b7 88 9c 00
	00 00		 movzx	 ecx, WORD PTR [eax+156]
  0024d	81 f9 c5 00 00
	00		 cmp	 ecx, 197		; 000000c5H
  00253	74 24		 je	 SHORT $LN15@gObjMonste
  00255	8b 45 08	 mov	 eax, DWORD PTR _lpObj$[ebp]
  00258	0f b7 88 9c 00
	00 00		 movzx	 ecx, WORD PTR [eax+156]
  0025f	81 f9 0b 01 00
	00		 cmp	 ecx, 267		; 0000010bH
  00265	74 12		 je	 SHORT $LN15@gObjMonste
  00267	8b 45 08	 mov	 eax, DWORD PTR _lpObj$[ebp]
  0026a	0f b7 88 9c 00
	00 00		 movzx	 ecx, WORD PTR [eax+156]
  00271	81 f9 13 01 00
	00		 cmp	 ecx, 275		; 00000113H
  00277	75 17		 jne	 SHORT $LN13@gObjMonste
$LN15@gObjMonste:

; 1956 : 			lpObj->Class == 275 		// 쿤둔의 환영6
; 1957 : 		)
; 1958 : 		{
; 1959 : 			gObjMonsterBeattackRecv(AttackSendBuff, lpObj->m_Index);

  00279	8b 45 08	 mov	 eax, DWORD PTR _lpObj$[ebp]
  0027c	8b 08		 mov	 ecx, DWORD PTR [eax]
  0027e	51		 push	 ecx
  0027f	8d 95 e8 fe ff
	ff		 lea	 edx, DWORD PTR _AttackSendBuff$[ebp]
  00285	52		 push	 edx
  00286	e8 00 00 00 00	 call	 ?gObjMonsterBeattackRecv@@YAXPAEH@Z ; gObjMonsterBeattackRecv
  0028b	83 c4 08	 add	 esp, 8

; 1960 : 		}

  0028e	eb 17		 jmp	 SHORT $LN1@gObjMonste
$LN13@gObjMonste:

; 1961 : 		else
; 1962 : 		{
; 1963 : 			CGBeattackRecv(AttackSendBuff, lpObj->m_Index, 1);

  00290	6a 01		 push	 1
  00292	8b 45 08	 mov	 eax, DWORD PTR _lpObj$[ebp]
  00295	8b 08		 mov	 ecx, DWORD PTR [eax]
  00297	51		 push	 ecx
  00298	8d 95 e8 fe ff
	ff		 lea	 edx, DWORD PTR _AttackSendBuff$[ebp]
  0029e	52		 push	 edx
  0029f	e8 00 00 00 00	 call	 ?CGBeattackRecv@@YAXPAEHH@Z ; CGBeattackRecv
  002a4	83 c4 0c	 add	 esp, 12			; 0000000cH
$LN1@gObjMonste:

; 1964 : 		}
; 1965 : #else
; 1966 : 		CGBeattackRecv(AttackSendBuff, lpObj->m_Index, 1);
; 1967 : #endif
; 1968 : 		
; 1969 : 	}
; 1970 : }

  002a7	5f		 pop	 edi
  002a8	5e		 pop	 esi
  002a9	5b		 pop	 ebx
  002aa	8b 4d fc	 mov	 ecx, DWORD PTR __$ArrayPad$[ebp]
  002ad	33 cd		 xor	 ecx, ebp
  002af	e8 00 00 00 00	 call	 @__security_check_cookie@4
  002b4	8b e5		 mov	 esp, ebp
  002b6	5d		 pop	 ebp
  002b7	c3		 ret	 0
?gObjMonsterMagicAttack@@YAXPAVOBJECTSTRUCT@@H@Z ENDP	; gObjMonsterMagicAttack
_TEXT	ENDS
; Function compile flags: /Odtp /ZI
; File C:\Mu Online\Mu-GS-Webzen-MC-10093\GameServer\gObjMonster.cpp
;	COMDAT ?gObjMonsterAttack@@YAXPAVOBJECTSTRUCT@@0@Z
_TEXT	SEGMENT
tv492 = -152						; size = 4
_pAttackMsg$1 = -84					; size = 7
_pAttackMsg$2 = -76					; size = 7
_pAttackMsg$3 = -68					; size = 7
_pAttackMsg$4 = -60					; size = 7
_pAttackMsg$5 = -52					; size = 7
_pAttackMsg$6 = -44					; size = 7
_pAttackMsg$7 = -36					; size = 7
_pAttackMsg$8 = -28					; size = 7
_pAttackMsg$9 = -20					; size = 7
_pAttackMsg$10 = -12					; size = 7
_AttackType$ = -4					; size = 4
_lpObj$ = 8						; size = 4
_lpTargetObj$ = 12					; size = 4
?gObjMonsterAttack@@YAXPAVOBJECTSTRUCT@@0@Z PROC	; gObjMonsterAttack, COMDAT

; 2064 : {

  00000	55		 push	 ebp
  00001	8b ec		 mov	 ebp, esp
  00003	81 ec 98 00 00
	00		 sub	 esp, 152		; 00000098H
  00009	53		 push	 ebx
  0000a	56		 push	 esi
  0000b	57		 push	 edi

; 2065 : 	int AttackType = lpObj->m_AttackType;

  0000c	8b 45 08	 mov	 eax, DWORD PTR _lpObj$[ebp]
  0000f	0f bf 88 fa 02
	00 00		 movsx	 ecx, WORD PTR [eax+762]
  00016	89 4d fc	 mov	 DWORD PTR _AttackType$[ebp], ecx

; 2066 : 
; 2067 : 	if( AttackType >= 100 ) AttackType = 0;

  00019	83 7d fc 64	 cmp	 DWORD PTR _AttackType$[ebp], 100 ; 00000064H
  0001d	7c 07		 jl	 SHORT $LN4@gObjMonste
  0001f	c7 45 fc 00 00
	00 00		 mov	 DWORD PTR _AttackType$[ebp], 0
$LN4@gObjMonste:

; 2068 : 	
; 2069 : #ifdef ADD_CASTLE_HUNTZONE_MONSTER_01_20050111
; 2070 : 	if( lpObj->Class == 291 ||	
; 2071 : 		lpObj->Class == 295 
; 2072 : 	  )
; 2073 : 	{
; 2074 : //		PMSG_MAGICATTACK pAttackMsg;
; 2075 : //		pAttackMsg.MagicNumber = 3;// 썬더로 처리.
; 2076 : //		pAttackMsg.NumberH = HIBYTE(lpObj->TargetNumber);
; 2077 : //		pAttackMsg.NumberL = LOBYTE(lpObj->TargetNumber);
; 2078 : //		pAttackMsg.Dis     = 0;
; 2079 : //		CGMagicAttack(&pAttackMsg, lpObj->m_Index);
; 2080 : 	}
; 2081 : #endif
; 2082 : 
; 2083 : #ifdef ADD_NEW_MAP_KALIMA_20040518	// 칼리마 보스몹들의 추가 공격들
; 2084 : 	if (lpObj->m_iMonsterBattleDelay > 0) {	// 머뭇거리는 동안 (클라이언트 삽입 신 등) 에는 공격을 하지 않는다.

  00026	8b 45 08	 mov	 eax, DWORD PTR _lpObj$[ebp]
  00029	0f be 88 25 02
	00 00		 movsx	 ecx, BYTE PTR [eax+549]
  00030	85 c9		 test	 ecx, ecx
  00032	7e 05		 jle	 SHORT $LN5@gObjMonste

; 2085 : 		return;

  00034	e9 83 08 00 00	 jmp	 $LN1@gObjMonste
$LN5@gObjMonste:

; 2086 : 	}
; 2087 : 
; 2088 : 	if (
; 2089 : 		lpObj->Class == 144 ||		// 데스 엔젤1
; 2090 : 		lpObj->Class == 174 ||		// 데스 엔젤2
; 2091 : 		lpObj->Class == 182 ||		// 데스 엔젤3
; 2092 : 		lpObj->Class == 190 ||		// 데스 엔젤4
; 2093 : 		lpObj->Class == 260 ||		// 데스 엔젤5

  00039	8b 45 08	 mov	 eax, DWORD PTR _lpObj$[ebp]
  0003c	0f b7 88 9c 00
	00 00		 movzx	 ecx, WORD PTR [eax+156]
  00043	81 f9 90 00 00
	00		 cmp	 ecx, 144		; 00000090H
  00049	74 5a		 je	 SHORT $LN7@gObjMonste
  0004b	8b 45 08	 mov	 eax, DWORD PTR _lpObj$[ebp]
  0004e	0f b7 88 9c 00
	00 00		 movzx	 ecx, WORD PTR [eax+156]
  00055	81 f9 ae 00 00
	00		 cmp	 ecx, 174		; 000000aeH
  0005b	74 48		 je	 SHORT $LN7@gObjMonste
  0005d	8b 45 08	 mov	 eax, DWORD PTR _lpObj$[ebp]
  00060	0f b7 88 9c 00
	00 00		 movzx	 ecx, WORD PTR [eax+156]
  00067	81 f9 b6 00 00
	00		 cmp	 ecx, 182		; 000000b6H
  0006d	74 36		 je	 SHORT $LN7@gObjMonste
  0006f	8b 45 08	 mov	 eax, DWORD PTR _lpObj$[ebp]
  00072	0f b7 88 9c 00
	00 00		 movzx	 ecx, WORD PTR [eax+156]
  00079	81 f9 be 00 00
	00		 cmp	 ecx, 190		; 000000beH
  0007f	74 24		 je	 SHORT $LN7@gObjMonste
  00081	8b 45 08	 mov	 eax, DWORD PTR _lpObj$[ebp]
  00084	0f b7 88 9c 00
	00 00		 movzx	 ecx, WORD PTR [eax+156]
  0008b	81 f9 04 01 00
	00		 cmp	 ecx, 260		; 00000104H
  00091	74 12		 je	 SHORT $LN7@gObjMonste
  00093	8b 45 08	 mov	 eax, DWORD PTR _lpObj$[ebp]
  00096	0f b7 88 9c 00
	00 00		 movzx	 ecx, WORD PTR [eax+156]
  0009d	81 f9 0c 01 00
	00		 cmp	 ecx, 268		; 0000010cH
  000a3	75 66		 jne	 SHORT $LN6@gObjMonste
$LN7@gObjMonste:

; 2094 : 		lpObj->Class == 268			// 데스 엔젤6
; 2095 : 		)
; 2096 : 	{
; 2097 : 		// 1/2 확률로 썬더공격
; 2098 : 		if (rand()%2) {

  000a5	e8 00 00 00 00	 call	 _rand
  000aa	25 01 00 00 80	 and	 eax, -2147483647	; 80000001H
  000af	79 05		 jns	 SHORT $LN31@gObjMonste
  000b1	48		 dec	 eax
  000b2	83 c8 fe	 or	 eax, -2			; fffffffeH
  000b5	40		 inc	 eax
$LN31@gObjMonste:
  000b6	85 c0		 test	 eax, eax
  000b8	74 4a		 je	 SHORT $LN8@gObjMonste

; 2099 : 			PMSG_MAGICATTACK pAttackMsg;
; 2100 : #ifdef ADD_MASTER_LEVEL_SKILL_SYSTEM_ACTIVE_20080107	// 스킬번호 BYTE -> WORD
; 2101 : 			pAttackMsg.MagicNumberH = HIBYTE( 0 );	// 기본 AttackType이 3 임
; 2102 : 			pAttackMsg.MagicNumberL = LOBYTE( 0 );
; 2103 : #else
; 2104 : 			pAttackMsg.MagicNumber = 0;				// 기본 AttackType이 3 임

  000ba	c6 45 f7 00	 mov	 BYTE PTR _pAttackMsg$10[ebp+3], 0

; 2105 : #endif
; 2106 : 			pAttackMsg.NumberH = HIBYTE(lpObj->TargetNumber);

  000be	8b 45 08	 mov	 eax, DWORD PTR _lpObj$[ebp]
  000c1	0f bf 88 ac 02
	00 00		 movsx	 ecx, WORD PTR [eax+684]
  000c8	c1 e9 08	 shr	 ecx, 8
  000cb	81 e1 ff 00 00
	00		 and	 ecx, 255		; 000000ffH
  000d1	88 4d f8	 mov	 BYTE PTR _pAttackMsg$10[ebp+4], cl

; 2107 : 			pAttackMsg.NumberL = LOBYTE(lpObj->TargetNumber);

  000d4	8b 45 08	 mov	 eax, DWORD PTR _lpObj$[ebp]
  000d7	0f bf 88 ac 02
	00 00		 movsx	 ecx, WORD PTR [eax+684]
  000de	81 e1 ff 00 00
	00		 and	 ecx, 255		; 000000ffH
  000e4	88 4d f9	 mov	 BYTE PTR _pAttackMsg$10[ebp+5], cl

; 2108 : 			pAttackMsg.Dis     = 0;

  000e7	c6 45 fa 00	 mov	 BYTE PTR _pAttackMsg$10[ebp+6], 0

; 2109 : 			CGMagicAttack(&pAttackMsg, lpObj->m_Index);

  000eb	8b 45 08	 mov	 eax, DWORD PTR _lpObj$[ebp]
  000ee	8b 08		 mov	 ecx, DWORD PTR [eax]
  000f0	51		 push	 ecx
  000f1	8d 55 f4	 lea	 edx, DWORD PTR _pAttackMsg$10[ebp]
  000f4	52		 push	 edx
  000f5	e8 00 00 00 00	 call	 ?CGMagicAttack@@YAXPAUPMSG_MAGICATTACK@@H@Z ; CGMagicAttack
  000fa	83 c4 08	 add	 esp, 8

; 2110 : 			return;

  000fd	e9 ba 07 00 00	 jmp	 $LN1@gObjMonste

; 2111 : 		}

  00102	eb 07		 jmp	 SHORT $LN6@gObjMonste
$LN8@gObjMonste:

; 2112 : 		else {
; 2113 : 			AttackType = 0;

  00104	c7 45 fc 00 00
	00 00		 mov	 DWORD PTR _AttackType$[ebp], 0
$LN6@gObjMonste:

; 2114 : 		}
; 2115 : 	}
; 2116 : 
; 2117 : 	if (
; 2118 : 		lpObj->Class == 161 ||		// 쿤둔의 환영1
; 2119 : 		lpObj->Class == 181 || 		// 쿤둔의 환영2
; 2120 : 		lpObj->Class == 189 || 		// 쿤둔의 환영3
; 2121 : 		lpObj->Class == 197 || 		// 쿤둔의 환영4
; 2122 : 		lpObj->Class == 267 || 		// 쿤둔의 환영5

  0010b	8b 45 08	 mov	 eax, DWORD PTR _lpObj$[ebp]
  0010e	0f b7 88 9c 00
	00 00		 movzx	 ecx, WORD PTR [eax+156]
  00115	81 f9 a1 00 00
	00		 cmp	 ecx, 161		; 000000a1H
  0011b	74 5e		 je	 SHORT $LN11@gObjMonste
  0011d	8b 45 08	 mov	 eax, DWORD PTR _lpObj$[ebp]
  00120	0f b7 88 9c 00
	00 00		 movzx	 ecx, WORD PTR [eax+156]
  00127	81 f9 b5 00 00
	00		 cmp	 ecx, 181		; 000000b5H
  0012d	74 4c		 je	 SHORT $LN11@gObjMonste
  0012f	8b 45 08	 mov	 eax, DWORD PTR _lpObj$[ebp]
  00132	0f b7 88 9c 00
	00 00		 movzx	 ecx, WORD PTR [eax+156]
  00139	81 f9 bd 00 00
	00		 cmp	 ecx, 189		; 000000bdH
  0013f	74 3a		 je	 SHORT $LN11@gObjMonste
  00141	8b 45 08	 mov	 eax, DWORD PTR _lpObj$[ebp]
  00144	0f b7 88 9c 00
	00 00		 movzx	 ecx, WORD PTR [eax+156]
  0014b	81 f9 c5 00 00
	00		 cmp	 ecx, 197		; 000000c5H
  00151	74 28		 je	 SHORT $LN11@gObjMonste
  00153	8b 45 08	 mov	 eax, DWORD PTR _lpObj$[ebp]
  00156	0f b7 88 9c 00
	00 00		 movzx	 ecx, WORD PTR [eax+156]
  0015d	81 f9 0b 01 00
	00		 cmp	 ecx, 267		; 0000010bH
  00163	74 16		 je	 SHORT $LN11@gObjMonste
  00165	8b 45 08	 mov	 eax, DWORD PTR _lpObj$[ebp]
  00168	0f b7 88 9c 00
	00 00		 movzx	 ecx, WORD PTR [eax+156]
  0016f	81 f9 13 01 00
	00		 cmp	 ecx, 275		; 00000113H
  00175	0f 85 94 00 00
	00		 jne	 $LN10@gObjMonste
$LN11@gObjMonste:

; 2123 : 		lpObj->Class == 275 		// 쿤둔의 환영6
; 2124 : 		)
; 2125 : 	{
; 2126 : 		// 썬더
; 2127 : 		PMSG_MAGICATTACK pAttackMsg;
; 2128 : 
; 2129 : 		// 전체마법 0번이 (attacktype이 100 이상인몬스터) 추가 되어 있기 때문에
; 2130 : 		// rand()%6 + 1이 된다. (apple)
; 2131 : 		
; 2132 : #ifdef ADD_MASTER_LEVEL_SKILL_SYSTEM_ACTIVE_20080107	// 스킬번호 BYTE -> WORD
; 2133 : 		WORD wRandValue = ( rand() % 6 ) + 1;
; 2134 : 		pAttackMsg.MagicNumberH = HIBYTE( wRandValue );
; 2135 : 		pAttackMsg.MagicNumberL = LOBYTE( wRandValue );
; 2136 : #else
; 2137 : 		pAttackMsg.MagicNumber = rand()%6+1;

  0017b	e8 00 00 00 00	 call	 _rand
  00180	99		 cdq
  00181	b9 06 00 00 00	 mov	 ecx, 6
  00186	f7 f9		 idiv	 ecx
  00188	83 c2 01	 add	 edx, 1
  0018b	88 55 ef	 mov	 BYTE PTR _pAttackMsg$9[ebp+3], dl

; 2138 : #endif
; 2139 : 
; 2140 : 		pAttackMsg.NumberH = HIBYTE(lpObj->TargetNumber);

  0018e	8b 45 08	 mov	 eax, DWORD PTR _lpObj$[ebp]
  00191	0f bf 88 ac 02
	00 00		 movsx	 ecx, WORD PTR [eax+684]
  00198	c1 e9 08	 shr	 ecx, 8
  0019b	81 e1 ff 00 00
	00		 and	 ecx, 255		; 000000ffH
  001a1	88 4d f0	 mov	 BYTE PTR _pAttackMsg$9[ebp+4], cl

; 2141 : 		pAttackMsg.NumberL = LOBYTE(lpObj->TargetNumber);

  001a4	8b 45 08	 mov	 eax, DWORD PTR _lpObj$[ebp]
  001a7	0f bf 88 ac 02
	00 00		 movsx	 ecx, WORD PTR [eax+684]
  001ae	81 e1 ff 00 00
	00		 and	 ecx, 255		; 000000ffH
  001b4	88 4d f1	 mov	 BYTE PTR _pAttackMsg$9[ebp+5], cl

; 2142 : 		pAttackMsg.Dis     = 0;

  001b7	c6 45 f2 00	 mov	 BYTE PTR _pAttackMsg$9[ebp+6], 0

; 2143 : 		CGMagicAttack(&pAttackMsg, lpObj->m_Index);

  001bb	8b 45 08	 mov	 eax, DWORD PTR _lpObj$[ebp]
  001be	8b 08		 mov	 ecx, DWORD PTR [eax]
  001c0	51		 push	 ecx
  001c1	8d 55 ec	 lea	 edx, DWORD PTR _pAttackMsg$9[ebp]
  001c4	52		 push	 edx
  001c5	e8 00 00 00 00	 call	 ?CGMagicAttack@@YAXPAUPMSG_MAGICATTACK@@H@Z ; CGMagicAttack
  001ca	83 c4 08	 add	 esp, 8

; 2144 : 
; 2145 : #ifdef ADD_MASTER_LEVEL_SKILL_SYSTEM_ACTIVE_20080107	// 스킬번호 BYTE -> WORD
; 2146 : 		if( wRandValue == 1 || wRandValue == 2 || wRandValue == 0)
; 2147 : 			gObjUseMonsterSpecialAbillity( lpObj );
; 2148 : #else
; 2149 : #ifdef ADD_ABILLITY_KUNDUN_01_20040920	
; 2150 : 		if( pAttackMsg.MagicNumber == 1 || pAttackMsg.MagicNumber == 2 || pAttackMsg.MagicNumber == 0)

  001cd	0f b6 45 ef	 movzx	 eax, BYTE PTR _pAttackMsg$9[ebp+3]
  001d1	83 f8 01	 cmp	 eax, 1
  001d4	74 11		 je	 SHORT $LN13@gObjMonste
  001d6	0f b6 45 ef	 movzx	 eax, BYTE PTR _pAttackMsg$9[ebp+3]
  001da	83 f8 02	 cmp	 eax, 2
  001dd	74 08		 je	 SHORT $LN13@gObjMonste
  001df	0f b6 45 ef	 movzx	 eax, BYTE PTR _pAttackMsg$9[ebp+3]
  001e3	85 c0		 test	 eax, eax
  001e5	75 0c		 jne	 SHORT $LN12@gObjMonste
$LN13@gObjMonste:

; 2151 : 			gObjUseMonsterSpecialAbillity( lpObj );

  001e7	8b 45 08	 mov	 eax, DWORD PTR _lpObj$[ebp]
  001ea	50		 push	 eax
  001eb	e8 00 00 00 00	 call	 ?gObjUseMonsterSpecialAbillity@@YAXPAVOBJECTSTRUCT@@@Z ; gObjUseMonsterSpecialAbillity
  001f0	83 c4 04	 add	 esp, 4
$LN12@gObjMonste:

; 2152 : #endif
; 2153 : #endif	// ADD_MASTER_LEVEL_SKILL_SYSTEM_ACTIVE_20080107
; 2154 : 
; 2155 : #ifdef MODIFY_MONSTER_ENTIRE_ATTACK_20040915
; 2156 : 		gObjMonsterMagicAttack(lpObj, lpObj->Class);		// 쿤둔의 환영의 경우 범위 마법 (막마의 불꽃) 이 항상 나간다.

  001f3	8b 45 08	 mov	 eax, DWORD PTR _lpObj$[ebp]
  001f6	0f b7 88 9c 00
	00 00		 movzx	 ecx, WORD PTR [eax+156]
  001fd	51		 push	 ecx
  001fe	8b 55 08	 mov	 edx, DWORD PTR _lpObj$[ebp]
  00201	52		 push	 edx
  00202	e8 00 00 00 00	 call	 ?gObjMonsterMagicAttack@@YAXPAVOBJECTSTRUCT@@H@Z ; gObjMonsterMagicAttack
  00207	83 c4 08	 add	 esp, 8

; 2157 : #else
; 2158 : 		gObjMonsterMagicAttack(lpObj);						// 쿤둔의 환영의 경우 범위 마법 (막마의 불꽃) 이 항상 나간다.
; 2159 : #endif
; 2160 : 		return;

  0020a	e9 ad 06 00 00	 jmp	 $LN1@gObjMonste
$LN10@gObjMonste:

; 2161 : 	}
; 2162 : 
; 2163 : 	if (
; 2164 : 		lpObj->Class == 149 ||		// 네크론1
; 2165 : 		lpObj->Class == 179 ||		// 네크론2
; 2166 : 		lpObj->Class == 187 ||		// 네크론3
; 2167 : 		lpObj->Class == 195 ||		// 네크론4
; 2168 : 		lpObj->Class == 265 ||		// 네크론5

  0020f	8b 45 08	 mov	 eax, DWORD PTR _lpObj$[ebp]
  00212	0f b7 88 9c 00
	00 00		 movzx	 ecx, WORD PTR [eax+156]
  00219	81 f9 95 00 00
	00		 cmp	 ecx, 149		; 00000095H
  0021f	74 5a		 je	 SHORT $LN15@gObjMonste
  00221	8b 45 08	 mov	 eax, DWORD PTR _lpObj$[ebp]
  00224	0f b7 88 9c 00
	00 00		 movzx	 ecx, WORD PTR [eax+156]
  0022b	81 f9 b3 00 00
	00		 cmp	 ecx, 179		; 000000b3H
  00231	74 48		 je	 SHORT $LN15@gObjMonste
  00233	8b 45 08	 mov	 eax, DWORD PTR _lpObj$[ebp]
  00236	0f b7 88 9c 00
	00 00		 movzx	 ecx, WORD PTR [eax+156]
  0023d	81 f9 bb 00 00
	00		 cmp	 ecx, 187		; 000000bbH
  00243	74 36		 je	 SHORT $LN15@gObjMonste
  00245	8b 45 08	 mov	 eax, DWORD PTR _lpObj$[ebp]
  00248	0f b7 88 9c 00
	00 00		 movzx	 ecx, WORD PTR [eax+156]
  0024f	81 f9 c3 00 00
	00		 cmp	 ecx, 195		; 000000c3H
  00255	74 24		 je	 SHORT $LN15@gObjMonste
  00257	8b 45 08	 mov	 eax, DWORD PTR _lpObj$[ebp]
  0025a	0f b7 88 9c 00
	00 00		 movzx	 ecx, WORD PTR [eax+156]
  00261	81 f9 09 01 00
	00		 cmp	 ecx, 265		; 00000109H
  00267	74 12		 je	 SHORT $LN15@gObjMonste
  00269	8b 45 08	 mov	 eax, DWORD PTR _lpObj$[ebp]
  0026c	0f b7 88 9c 00
	00 00		 movzx	 ecx, WORD PTR [eax+156]
  00273	81 f9 11 01 00
	00		 cmp	 ecx, 273		; 00000111H
  00279	75 5b		 jne	 SHORT $LN14@gObjMonste
$LN15@gObjMonste:

; 2169 : 		lpObj->Class == 273			// 네크론6
; 2170 : 		)
; 2171 : 	{
; 2172 : 		PMSG_MAGICATTACK pAttackMsg;
; 2173 : #ifdef ADD_MASTER_LEVEL_SKILL_SYSTEM_ACTIVE_20080107	// 스킬번호 BYTE -> WORD
; 2174 : 		WORD wRandValue = ( rand() % 2 )+ 1;
; 2175 : 		pAttackMsg.MagicNumberH = HIBYTE( wRandValue );		// 네크론의 경우는 에너지볼과 포이즌 둘 중 하나가 나간다.
; 2176 : 		pAttackMsg.MagicNumberL = LOBYTE( wRandValue );		
; 2177 : #else
; 2178 : 		pAttackMsg.MagicNumber = rand()%2+1;				// 네크론의 경우는 에너지볼과 포이즌 둘 중 하나가 나간다.

  0027b	e8 00 00 00 00	 call	 _rand
  00280	25 01 00 00 80	 and	 eax, -2147483647	; 80000001H
  00285	79 05		 jns	 SHORT $LN32@gObjMonste
  00287	48		 dec	 eax
  00288	83 c8 fe	 or	 eax, -2			; fffffffeH
  0028b	40		 inc	 eax
$LN32@gObjMonste:
  0028c	83 c0 01	 add	 eax, 1
  0028f	88 45 e7	 mov	 BYTE PTR _pAttackMsg$8[ebp+3], al

; 2179 : #endif
; 2180 : 		pAttackMsg.NumberH = HIBYTE(lpObj->TargetNumber);

  00292	8b 45 08	 mov	 eax, DWORD PTR _lpObj$[ebp]
  00295	0f bf 88 ac 02
	00 00		 movsx	 ecx, WORD PTR [eax+684]
  0029c	c1 e9 08	 shr	 ecx, 8
  0029f	81 e1 ff 00 00
	00		 and	 ecx, 255		; 000000ffH
  002a5	88 4d e8	 mov	 BYTE PTR _pAttackMsg$8[ebp+4], cl

; 2181 : 		pAttackMsg.NumberL = LOBYTE(lpObj->TargetNumber);

  002a8	8b 45 08	 mov	 eax, DWORD PTR _lpObj$[ebp]
  002ab	0f bf 88 ac 02
	00 00		 movsx	 ecx, WORD PTR [eax+684]
  002b2	81 e1 ff 00 00
	00		 and	 ecx, 255		; 000000ffH
  002b8	88 4d e9	 mov	 BYTE PTR _pAttackMsg$8[ebp+5], cl

; 2182 : 		pAttackMsg.Dis     = 0;

  002bb	c6 45 ea 00	 mov	 BYTE PTR _pAttackMsg$8[ebp+6], 0

; 2183 : 		CGMagicAttack(&pAttackMsg, lpObj->m_Index);

  002bf	8b 45 08	 mov	 eax, DWORD PTR _lpObj$[ebp]
  002c2	8b 08		 mov	 ecx, DWORD PTR [eax]
  002c4	51		 push	 ecx
  002c5	8d 55 e4	 lea	 edx, DWORD PTR _pAttackMsg$8[ebp]
  002c8	52		 push	 edx
  002c9	e8 00 00 00 00	 call	 ?CGMagicAttack@@YAXPAUPMSG_MAGICATTACK@@H@Z ; CGMagicAttack
  002ce	83 c4 08	 add	 esp, 8

; 2184 : 		return;

  002d1	e9 e6 05 00 00	 jmp	 $LN1@gObjMonste
$LN14@gObjMonste:

; 2185 : 	}
; 2186 : 
; 2187 : 
; 2188 : 	if (
; 2189 : 		lpObj->Class == 145 ||		// 로드 센튜리온1
; 2190 : 		lpObj->Class == 175 ||		// 로드 센튜리온2
; 2191 : 		lpObj->Class == 183 ||		// 로드 센튜리온3
; 2192 : 		lpObj->Class == 191 ||		// 로드 센튜리온4
; 2193 : 		lpObj->Class == 261 ||		// 로드 센튜리온5
; 2194 : 		lpObj->Class == 269 ||		// 로드 센튜리온6
; 2195 : 		lpObj->Class == 146 ||		// 블러드 솔져1
; 2196 : 		lpObj->Class == 176 || 		// 블러드 솔져2
; 2197 : 		lpObj->Class == 184 ||		// 블러드 솔져3
; 2198 : 		lpObj->Class == 192 ||		// 블러드 솔져4
; 2199 : 		lpObj->Class == 262 ||		// 블러드 솔져5
; 2200 : 		lpObj->Class == 270 ||		// 블러드 솔져6
; 2201 : 		lpObj->Class == 147 ||		// 데빌 윙1
; 2202 : 		lpObj->Class == 177 ||		// 데빌 윙2
; 2203 : 		lpObj->Class == 185 ||		// 데빌 윙3
; 2204 : 		lpObj->Class == 193 ||		// 데빌 윙4
; 2205 : 		lpObj->Class == 263 ||		// 데빌 윙5
; 2206 : 		lpObj->Class == 271 ||		// 데빌 윙6
; 2207 : 		lpObj->Class == 148 ||		// 데스 센튜리온1
; 2208 : 		lpObj->Class == 178 ||		// 데스 센튜리온2
; 2209 : 		lpObj->Class == 186 ||		// 데스 센튜리온3
; 2210 : 		lpObj->Class == 194 ||		// 데스 센튜리온4
; 2211 : 		lpObj->Class == 264 ||		// 데스 센튜리온5
; 2212 : 		lpObj->Class == 272 ||		// 데스 센튜리온6
; 2213 : //			lpObj->Class == 149 ||		// 네크론1
; 2214 : //			lpObj->Class == 179 ||		// 네크론2
; 2215 : //			lpObj->Class == 187 ||		// 네크론3
; 2216 : //			lpObj->Class == 195 ||		// 네크론4
; 2217 : //			lpObj->Class == 265 ||		// 네크론5
; 2218 : //			lpObj->Class == 273 ||		// 네크론6
; 2219 : 		lpObj->Class == 160 ||		// 쿤둔의 잔영1
; 2220 : 		lpObj->Class == 180 ||		// 쿤둔의 잔영2
; 2221 : 		lpObj->Class == 188 ||		// 쿤둔의 잔영3
; 2222 : 		lpObj->Class == 196 ||		// 쿤둔의 잔영4
; 2223 : 		lpObj->Class == 266 ||		// 쿤둔의 잔영5

  002d6	8b 45 08	 mov	 eax, DWORD PTR _lpObj$[ebp]
  002d9	0f b7 88 9c 00
	00 00		 movzx	 ecx, WORD PTR [eax+156]
  002e0	81 f9 91 00 00
	00		 cmp	 ecx, 145		; 00000091H
  002e6	0f 84 5e 02 00
	00		 je	 $LN17@gObjMonste
  002ec	8b 45 08	 mov	 eax, DWORD PTR _lpObj$[ebp]
  002ef	0f b7 88 9c 00
	00 00		 movzx	 ecx, WORD PTR [eax+156]
  002f6	81 f9 af 00 00
	00		 cmp	 ecx, 175		; 000000afH
  002fc	0f 84 48 02 00
	00		 je	 $LN17@gObjMonste
  00302	8b 45 08	 mov	 eax, DWORD PTR _lpObj$[ebp]
  00305	0f b7 88 9c 00
	00 00		 movzx	 ecx, WORD PTR [eax+156]
  0030c	81 f9 b7 00 00
	00		 cmp	 ecx, 183		; 000000b7H
  00312	0f 84 32 02 00
	00		 je	 $LN17@gObjMonste
  00318	8b 45 08	 mov	 eax, DWORD PTR _lpObj$[ebp]
  0031b	0f b7 88 9c 00
	00 00		 movzx	 ecx, WORD PTR [eax+156]
  00322	81 f9 bf 00 00
	00		 cmp	 ecx, 191		; 000000bfH
  00328	0f 84 1c 02 00
	00		 je	 $LN17@gObjMonste
  0032e	8b 45 08	 mov	 eax, DWORD PTR _lpObj$[ebp]
  00331	0f b7 88 9c 00
	00 00		 movzx	 ecx, WORD PTR [eax+156]
  00338	81 f9 05 01 00
	00		 cmp	 ecx, 261		; 00000105H
  0033e	0f 84 06 02 00
	00		 je	 $LN17@gObjMonste
  00344	8b 45 08	 mov	 eax, DWORD PTR _lpObj$[ebp]
  00347	0f b7 88 9c 00
	00 00		 movzx	 ecx, WORD PTR [eax+156]
  0034e	81 f9 0d 01 00
	00		 cmp	 ecx, 269		; 0000010dH
  00354	0f 84 f0 01 00
	00		 je	 $LN17@gObjMonste
  0035a	8b 45 08	 mov	 eax, DWORD PTR _lpObj$[ebp]
  0035d	0f b7 88 9c 00
	00 00		 movzx	 ecx, WORD PTR [eax+156]
  00364	81 f9 92 00 00
	00		 cmp	 ecx, 146		; 00000092H
  0036a	0f 84 da 01 00
	00		 je	 $LN17@gObjMonste
  00370	8b 45 08	 mov	 eax, DWORD PTR _lpObj$[ebp]
  00373	0f b7 88 9c 00
	00 00		 movzx	 ecx, WORD PTR [eax+156]
  0037a	81 f9 b0 00 00
	00		 cmp	 ecx, 176		; 000000b0H
  00380	0f 84 c4 01 00
	00		 je	 $LN17@gObjMonste
  00386	8b 45 08	 mov	 eax, DWORD PTR _lpObj$[ebp]
  00389	0f b7 88 9c 00
	00 00		 movzx	 ecx, WORD PTR [eax+156]
  00390	81 f9 b8 00 00
	00		 cmp	 ecx, 184		; 000000b8H
  00396	0f 84 ae 01 00
	00		 je	 $LN17@gObjMonste
  0039c	8b 45 08	 mov	 eax, DWORD PTR _lpObj$[ebp]
  0039f	0f b7 88 9c 00
	00 00		 movzx	 ecx, WORD PTR [eax+156]
  003a6	81 f9 c0 00 00
	00		 cmp	 ecx, 192		; 000000c0H
  003ac	0f 84 98 01 00
	00		 je	 $LN17@gObjMonste
  003b2	8b 45 08	 mov	 eax, DWORD PTR _lpObj$[ebp]
  003b5	0f b7 88 9c 00
	00 00		 movzx	 ecx, WORD PTR [eax+156]
  003bc	81 f9 06 01 00
	00		 cmp	 ecx, 262		; 00000106H
  003c2	0f 84 82 01 00
	00		 je	 $LN17@gObjMonste
  003c8	8b 45 08	 mov	 eax, DWORD PTR _lpObj$[ebp]
  003cb	0f b7 88 9c 00
	00 00		 movzx	 ecx, WORD PTR [eax+156]
  003d2	81 f9 0e 01 00
	00		 cmp	 ecx, 270		; 0000010eH
  003d8	0f 84 6c 01 00
	00		 je	 $LN17@gObjMonste
  003de	8b 45 08	 mov	 eax, DWORD PTR _lpObj$[ebp]
  003e1	0f b7 88 9c 00
	00 00		 movzx	 ecx, WORD PTR [eax+156]
  003e8	81 f9 93 00 00
	00		 cmp	 ecx, 147		; 00000093H
  003ee	0f 84 56 01 00
	00		 je	 $LN17@gObjMonste
  003f4	8b 45 08	 mov	 eax, DWORD PTR _lpObj$[ebp]
  003f7	0f b7 88 9c 00
	00 00		 movzx	 ecx, WORD PTR [eax+156]
  003fe	81 f9 b1 00 00
	00		 cmp	 ecx, 177		; 000000b1H
  00404	0f 84 40 01 00
	00		 je	 $LN17@gObjMonste
  0040a	8b 45 08	 mov	 eax, DWORD PTR _lpObj$[ebp]
  0040d	0f b7 88 9c 00
	00 00		 movzx	 ecx, WORD PTR [eax+156]
  00414	81 f9 b9 00 00
	00		 cmp	 ecx, 185		; 000000b9H
  0041a	0f 84 2a 01 00
	00		 je	 $LN17@gObjMonste
  00420	8b 45 08	 mov	 eax, DWORD PTR _lpObj$[ebp]
  00423	0f b7 88 9c 00
	00 00		 movzx	 ecx, WORD PTR [eax+156]
  0042a	81 f9 c1 00 00
	00		 cmp	 ecx, 193		; 000000c1H
  00430	0f 84 14 01 00
	00		 je	 $LN17@gObjMonste
  00436	8b 45 08	 mov	 eax, DWORD PTR _lpObj$[ebp]
  00439	0f b7 88 9c 00
	00 00		 movzx	 ecx, WORD PTR [eax+156]
  00440	81 f9 07 01 00
	00		 cmp	 ecx, 263		; 00000107H
  00446	0f 84 fe 00 00
	00		 je	 $LN17@gObjMonste
  0044c	8b 45 08	 mov	 eax, DWORD PTR _lpObj$[ebp]
  0044f	0f b7 88 9c 00
	00 00		 movzx	 ecx, WORD PTR [eax+156]
  00456	81 f9 0f 01 00
	00		 cmp	 ecx, 271		; 0000010fH
  0045c	0f 84 e8 00 00
	00		 je	 $LN17@gObjMonste
  00462	8b 45 08	 mov	 eax, DWORD PTR _lpObj$[ebp]
  00465	0f b7 88 9c 00
	00 00		 movzx	 ecx, WORD PTR [eax+156]
  0046c	81 f9 94 00 00
	00		 cmp	 ecx, 148		; 00000094H
  00472	0f 84 d2 00 00
	00		 je	 $LN17@gObjMonste
  00478	8b 45 08	 mov	 eax, DWORD PTR _lpObj$[ebp]
  0047b	0f b7 88 9c 00
	00 00		 movzx	 ecx, WORD PTR [eax+156]
  00482	81 f9 b2 00 00
	00		 cmp	 ecx, 178		; 000000b2H
  00488	0f 84 bc 00 00
	00		 je	 $LN17@gObjMonste
  0048e	8b 45 08	 mov	 eax, DWORD PTR _lpObj$[ebp]
  00491	0f b7 88 9c 00
	00 00		 movzx	 ecx, WORD PTR [eax+156]
  00498	81 f9 ba 00 00
	00		 cmp	 ecx, 186		; 000000baH
  0049e	0f 84 a6 00 00
	00		 je	 $LN17@gObjMonste
  004a4	8b 45 08	 mov	 eax, DWORD PTR _lpObj$[ebp]
  004a7	0f b7 88 9c 00
	00 00		 movzx	 ecx, WORD PTR [eax+156]
  004ae	81 f9 c2 00 00
	00		 cmp	 ecx, 194		; 000000c2H
  004b4	0f 84 90 00 00
	00		 je	 $LN17@gObjMonste
  004ba	8b 45 08	 mov	 eax, DWORD PTR _lpObj$[ebp]
  004bd	0f b7 88 9c 00
	00 00		 movzx	 ecx, WORD PTR [eax+156]
  004c4	81 f9 08 01 00
	00		 cmp	 ecx, 264		; 00000108H
  004ca	74 7e		 je	 SHORT $LN17@gObjMonste
  004cc	8b 45 08	 mov	 eax, DWORD PTR _lpObj$[ebp]
  004cf	0f b7 88 9c 00
	00 00		 movzx	 ecx, WORD PTR [eax+156]
  004d6	81 f9 10 01 00
	00		 cmp	 ecx, 272		; 00000110H
  004dc	74 6c		 je	 SHORT $LN17@gObjMonste
  004de	8b 45 08	 mov	 eax, DWORD PTR _lpObj$[ebp]
  004e1	0f b7 88 9c 00
	00 00		 movzx	 ecx, WORD PTR [eax+156]
  004e8	81 f9 a0 00 00
	00		 cmp	 ecx, 160		; 000000a0H
  004ee	74 5a		 je	 SHORT $LN17@gObjMonste
  004f0	8b 45 08	 mov	 eax, DWORD PTR _lpObj$[ebp]
  004f3	0f b7 88 9c 00
	00 00		 movzx	 ecx, WORD PTR [eax+156]
  004fa	81 f9 b4 00 00
	00		 cmp	 ecx, 180		; 000000b4H
  00500	74 48		 je	 SHORT $LN17@gObjMonste
  00502	8b 45 08	 mov	 eax, DWORD PTR _lpObj$[ebp]
  00505	0f b7 88 9c 00
	00 00		 movzx	 ecx, WORD PTR [eax+156]
  0050c	81 f9 bc 00 00
	00		 cmp	 ecx, 188		; 000000bcH
  00512	74 36		 je	 SHORT $LN17@gObjMonste
  00514	8b 45 08	 mov	 eax, DWORD PTR _lpObj$[ebp]
  00517	0f b7 88 9c 00
	00 00		 movzx	 ecx, WORD PTR [eax+156]
  0051e	81 f9 c4 00 00
	00		 cmp	 ecx, 196		; 000000c4H
  00524	74 24		 je	 SHORT $LN17@gObjMonste
  00526	8b 45 08	 mov	 eax, DWORD PTR _lpObj$[ebp]
  00529	0f b7 88 9c 00
	00 00		 movzx	 ecx, WORD PTR [eax+156]
  00530	81 f9 0a 01 00
	00		 cmp	 ecx, 266		; 0000010aH
  00536	74 12		 je	 SHORT $LN17@gObjMonste
  00538	8b 45 08	 mov	 eax, DWORD PTR _lpObj$[ebp]
  0053b	0f b7 88 9c 00
	00 00		 movzx	 ecx, WORD PTR [eax+156]
  00542	81 f9 12 01 00
	00		 cmp	 ecx, 274		; 00000112H
  00548	75 66		 jne	 SHORT $LN16@gObjMonste
$LN17@gObjMonste:

; 2224 : 		lpObj->Class == 274			// 쿤둔의 잔영6
; 2225 : 		)
; 2226 : 	{
; 2227 : 		// 1/2 확률로 에너지 볼 공격
; 2228 : 		if (rand()%2) {

  0054a	e8 00 00 00 00	 call	 _rand
  0054f	25 01 00 00 80	 and	 eax, -2147483647	; 80000001H
  00554	79 05		 jns	 SHORT $LN33@gObjMonste
  00556	48		 dec	 eax
  00557	83 c8 fe	 or	 eax, -2			; fffffffeH
  0055a	40		 inc	 eax
$LN33@gObjMonste:
  0055b	85 c0		 test	 eax, eax
  0055d	74 4a		 je	 SHORT $LN18@gObjMonste

; 2229 : 			PMSG_MAGICATTACK pAttackMsg;
; 2230 : #ifdef ADD_MASTER_LEVEL_SKILL_SYSTEM_ACTIVE_20080107	// 스킬번호 BYTE -> WORD
; 2231 : 			pAttackMsg.MagicNumberH = HIBYTE( 1 );		// 기본 AttackType이 150인 상태에서 마법을 추가했으므로 인덱스가 1
; 2232 : 			pAttackMsg.MagicNumberL = LOBYTE( 1 );	
; 2233 : #else
; 2234 : 			pAttackMsg.MagicNumber = 1;				// 기본 AttackType이 150인 상태에서 마법을 추가했으므로 인덱스가 1

  0055f	c6 45 df 01	 mov	 BYTE PTR _pAttackMsg$7[ebp+3], 1

; 2235 : #endif
; 2236 : 			pAttackMsg.NumberH = HIBYTE(lpObj->TargetNumber);

  00563	8b 45 08	 mov	 eax, DWORD PTR _lpObj$[ebp]
  00566	0f bf 88 ac 02
	00 00		 movsx	 ecx, WORD PTR [eax+684]
  0056d	c1 e9 08	 shr	 ecx, 8
  00570	81 e1 ff 00 00
	00		 and	 ecx, 255		; 000000ffH
  00576	88 4d e0	 mov	 BYTE PTR _pAttackMsg$7[ebp+4], cl

; 2237 : 			pAttackMsg.NumberL = LOBYTE(lpObj->TargetNumber);

  00579	8b 45 08	 mov	 eax, DWORD PTR _lpObj$[ebp]
  0057c	0f bf 88 ac 02
	00 00		 movsx	 ecx, WORD PTR [eax+684]
  00583	81 e1 ff 00 00
	00		 and	 ecx, 255		; 000000ffH
  00589	88 4d e1	 mov	 BYTE PTR _pAttackMsg$7[ebp+5], cl

; 2238 : 			pAttackMsg.Dis     = 0;

  0058c	c6 45 e2 00	 mov	 BYTE PTR _pAttackMsg$7[ebp+6], 0

; 2239 : 			CGMagicAttack(&pAttackMsg, lpObj->m_Index);

  00590	8b 45 08	 mov	 eax, DWORD PTR _lpObj$[ebp]
  00593	8b 08		 mov	 ecx, DWORD PTR [eax]
  00595	51		 push	 ecx
  00596	8d 55 dc	 lea	 edx, DWORD PTR _pAttackMsg$7[ebp]
  00599	52		 push	 edx
  0059a	e8 00 00 00 00	 call	 ?CGMagicAttack@@YAXPAUPMSG_MAGICATTACK@@H@Z ; CGMagicAttack
  0059f	83 c4 08	 add	 esp, 8

; 2240 : 			return;

  005a2	e9 15 03 00 00	 jmp	 $LN1@gObjMonste

; 2241 : 		}

  005a7	eb 07		 jmp	 SHORT $LN16@gObjMonste
$LN18@gObjMonste:

; 2242 : 		else {
; 2243 : 			AttackType = 0;

  005a9	c7 45 fc 00 00
	00 00		 mov	 DWORD PTR _AttackType$[ebp], 0
$LN16@gObjMonste:

; 2244 : 		}
; 2245 : 	}
; 2246 : #endif
; 2247 : 
; 2248 : #ifdef FOR_BLOODCASTLE
; 2249 : 	if( 
; 2250 : 		lpObj->Class == 89 ||		// 마법해골1
; 2251 : 		lpObj->Class == 95 ||		// 마법해골2
; 2252 : 		lpObj->Class == 112 ||		// 마법해골3
; 2253 : 		lpObj->Class == 118 ||		// 마법해골4
; 2254 : 		lpObj->Class == 124 ||		// 마법해골5
; 2255 : 		lpObj->Class == 130			// 마법해골6
; 2256 : #ifdef BLOODCASTLE_EXTEND_20040314	// 블러드캐슬 보스몹의 체크를 늘림
; 2257 : 		|| lpObj->Class == 143		// 마법해골7

  005b0	8b 45 08	 mov	 eax, DWORD PTR _lpObj$[ebp]
  005b3	0f b7 88 9c 00
	00 00		 movzx	 ecx, WORD PTR [eax+156]
  005ba	83 f9 59	 cmp	 ecx, 89			; 00000059H
  005bd	74 60		 je	 SHORT $LN21@gObjMonste
  005bf	8b 45 08	 mov	 eax, DWORD PTR _lpObj$[ebp]
  005c2	0f b7 88 9c 00
	00 00		 movzx	 ecx, WORD PTR [eax+156]
  005c9	83 f9 5f	 cmp	 ecx, 95			; 0000005fH
  005cc	74 51		 je	 SHORT $LN21@gObjMonste
  005ce	8b 45 08	 mov	 eax, DWORD PTR _lpObj$[ebp]
  005d1	0f b7 88 9c 00
	00 00		 movzx	 ecx, WORD PTR [eax+156]
  005d8	83 f9 70	 cmp	 ecx, 112		; 00000070H
  005db	74 42		 je	 SHORT $LN21@gObjMonste
  005dd	8b 45 08	 mov	 eax, DWORD PTR _lpObj$[ebp]
  005e0	0f b7 88 9c 00
	00 00		 movzx	 ecx, WORD PTR [eax+156]
  005e7	83 f9 76	 cmp	 ecx, 118		; 00000076H
  005ea	74 33		 je	 SHORT $LN21@gObjMonste
  005ec	8b 45 08	 mov	 eax, DWORD PTR _lpObj$[ebp]
  005ef	0f b7 88 9c 00
	00 00		 movzx	 ecx, WORD PTR [eax+156]
  005f6	83 f9 7c	 cmp	 ecx, 124		; 0000007cH
  005f9	74 24		 je	 SHORT $LN21@gObjMonste
  005fb	8b 45 08	 mov	 eax, DWORD PTR _lpObj$[ebp]
  005fe	0f b7 88 9c 00
	00 00		 movzx	 ecx, WORD PTR [eax+156]
  00605	81 f9 82 00 00
	00		 cmp	 ecx, 130		; 00000082H
  0060b	74 12		 je	 SHORT $LN21@gObjMonste
  0060d	8b 45 08	 mov	 eax, DWORD PTR _lpObj$[ebp]
  00610	0f b7 88 9c 00
	00 00		 movzx	 ecx, WORD PTR [eax+156]
  00617	81 f9 8f 00 00
	00		 cmp	 ecx, 143		; 0000008fH
  0061d	75 5b		 jne	 SHORT $LN20@gObjMonste
$LN21@gObjMonste:

; 2258 : #endif		
; 2259 : #ifdef ADD_BLOODCASTLE_FOR_MASTER_LEVEL_20071010	// 블러드캐슬8 보스몹의 체크를 늘림
; 2260 : 		|| lpObj->Class == 433		// 마법해골8
; 2261 : #endif		
; 2262 : 		)
; 2263 : 	{
; 2264 : 		PMSG_MAGICATTACK pAttackMsg;
; 2265 : #ifdef ADD_MASTER_LEVEL_SKILL_SYSTEM_ACTIVE_20080107	// 스킬번호 BYTE -> WORD
; 2266 : 		WORD wRandValue = ( rand() % 2 ) + 1;
; 2267 : 		pAttackMsg.MagicNumberH = HIBYTE( wRandValue );		// 마법해골의 경우는 썬더와 에너지볼 둘 중에 하나가 나간다.
; 2268 : 		pAttackMsg.MagicNumberL = LOBYTE( wRandValue );		
; 2269 : #else
; 2270 : 		pAttackMsg.MagicNumber = rand()%2+1;				// 마법해골의 경우는 썬더와 에너지볼 둘 중에 하나가 나간다.

  0061f	e8 00 00 00 00	 call	 _rand
  00624	25 01 00 00 80	 and	 eax, -2147483647	; 80000001H
  00629	79 05		 jns	 SHORT $LN34@gObjMonste
  0062b	48		 dec	 eax
  0062c	83 c8 fe	 or	 eax, -2			; fffffffeH
  0062f	40		 inc	 eax
$LN34@gObjMonste:
  00630	83 c0 01	 add	 eax, 1
  00633	88 45 d7	 mov	 BYTE PTR _pAttackMsg$6[ebp+3], al

; 2271 : #endif
; 2272 : 		pAttackMsg.NumberH = HIBYTE(lpObj->TargetNumber);

  00636	8b 45 08	 mov	 eax, DWORD PTR _lpObj$[ebp]
  00639	0f bf 88 ac 02
	00 00		 movsx	 ecx, WORD PTR [eax+684]
  00640	c1 e9 08	 shr	 ecx, 8
  00643	81 e1 ff 00 00
	00		 and	 ecx, 255		; 000000ffH
  00649	88 4d d8	 mov	 BYTE PTR _pAttackMsg$6[ebp+4], cl

; 2273 : 		pAttackMsg.NumberL = LOBYTE(lpObj->TargetNumber);

  0064c	8b 45 08	 mov	 eax, DWORD PTR _lpObj$[ebp]
  0064f	0f bf 88 ac 02
	00 00		 movsx	 ecx, WORD PTR [eax+684]
  00656	81 e1 ff 00 00
	00		 and	 ecx, 255		; 000000ffH
  0065c	88 4d d9	 mov	 BYTE PTR _pAttackMsg$6[ebp+5], cl

; 2274 : 		pAttackMsg.Dis     = 0;

  0065f	c6 45 da 00	 mov	 BYTE PTR _pAttackMsg$6[ebp+6], 0

; 2275 : 		CGMagicAttack(&pAttackMsg, lpObj->m_Index);

  00663	8b 45 08	 mov	 eax, DWORD PTR _lpObj$[ebp]
  00666	8b 08		 mov	 ecx, DWORD PTR [eax]
  00668	51		 push	 ecx
  00669	8d 55 d4	 lea	 edx, DWORD PTR _pAttackMsg$6[ebp]
  0066c	52		 push	 edx
  0066d	e8 00 00 00 00	 call	 ?CGMagicAttack@@YAXPAUPMSG_MAGICATTACK@@H@Z ; CGMagicAttack
  00672	83 c4 08	 add	 esp, 8

; 2276 : 		return;

  00675	e9 42 02 00 00	 jmp	 $LN1@gObjMonste
$LN20@gObjMonste:

; 2277 : 	}
; 2278 : 
; 2279 : #ifdef CHAOSCASTLE_SYSTEM_20040408		// 카오스 캐슬의 궁수들의 공격은 모두 에너지 볼이다.
; 2280 : 	if( 
; 2281 : 		lpObj->Class == 163 ||		// 카오스 캐슬 - 궁수1
; 2282 : 		lpObj->Class == 165 ||		// 카오스 캐슬 - 궁수2
; 2283 : 		lpObj->Class == 167 ||		// 카오스 캐슬 - 궁수3
; 2284 : 		lpObj->Class == 169 ||		// 카오스 캐슬 - 궁수4
; 2285 : 		lpObj->Class == 171 ||		// 카오스 캐슬 - 궁수5

  0067a	8b 45 08	 mov	 eax, DWORD PTR _lpObj$[ebp]
  0067d	0f b7 88 9c 00
	00 00		 movzx	 ecx, WORD PTR [eax+156]
  00684	81 f9 a3 00 00
	00		 cmp	 ecx, 163		; 000000a3H
  0068a	74 5a		 je	 SHORT $LN23@gObjMonste
  0068c	8b 45 08	 mov	 eax, DWORD PTR _lpObj$[ebp]
  0068f	0f b7 88 9c 00
	00 00		 movzx	 ecx, WORD PTR [eax+156]
  00696	81 f9 a5 00 00
	00		 cmp	 ecx, 165		; 000000a5H
  0069c	74 48		 je	 SHORT $LN23@gObjMonste
  0069e	8b 45 08	 mov	 eax, DWORD PTR _lpObj$[ebp]
  006a1	0f b7 88 9c 00
	00 00		 movzx	 ecx, WORD PTR [eax+156]
  006a8	81 f9 a7 00 00
	00		 cmp	 ecx, 167		; 000000a7H
  006ae	74 36		 je	 SHORT $LN23@gObjMonste
  006b0	8b 45 08	 mov	 eax, DWORD PTR _lpObj$[ebp]
  006b3	0f b7 88 9c 00
	00 00		 movzx	 ecx, WORD PTR [eax+156]
  006ba	81 f9 a9 00 00
	00		 cmp	 ecx, 169		; 000000a9H
  006c0	74 24		 je	 SHORT $LN23@gObjMonste
  006c2	8b 45 08	 mov	 eax, DWORD PTR _lpObj$[ebp]
  006c5	0f b7 88 9c 00
	00 00		 movzx	 ecx, WORD PTR [eax+156]
  006cc	81 f9 ab 00 00
	00		 cmp	 ecx, 171		; 000000abH
  006d2	74 12		 je	 SHORT $LN23@gObjMonste
  006d4	8b 45 08	 mov	 eax, DWORD PTR _lpObj$[ebp]
  006d7	0f b7 88 9c 00
	00 00		 movzx	 ecx, WORD PTR [eax+156]
  006de	81 f9 ad 00 00
	00		 cmp	 ecx, 173		; 000000adH
  006e4	75 48		 jne	 SHORT $LN22@gObjMonste
$LN23@gObjMonste:

; 2286 : 		lpObj->Class == 173			// 카오스 캐슬 - 궁수6
; 2287 : #ifdef ADD_CHAOSCASTLE_FOR_MASTER_LEVEL_20071010	// 카오스궁수7 추가
; 2288 : 		|| lpObj->Class == 427			// 카오스 캐슬 - 궁수7
; 2289 : #endif		
; 2290 : 		)
; 2291 : 	{
; 2292 : 		PMSG_MAGICATTACK pAttackMsg;
; 2293 : #ifdef ADD_MASTER_LEVEL_SKILL_SYSTEM_ACTIVE_20080107	// 스킬번호 BYTE -> WORD
; 2294 : 		pAttackMsg.MagicNumberH = HIBYTE( 1 );							// 카오스캐슬 궁수의 경우는 항상 에너지 볼을 쏜다.
; 2295 : 		pAttackMsg.MagicNumberL = LOBYTE( 1 );							// 카오스캐슬 궁수의 경우는 항상 에너지 볼을 쏜다.
; 2296 : #else
; 2297 : 		pAttackMsg.MagicNumber = 1;							// 카오스캐슬 궁수의 경우는 항상 에너지 볼을 쏜다.

  006e6	c6 45 cf 01	 mov	 BYTE PTR _pAttackMsg$5[ebp+3], 1

; 2298 : #endif
; 2299 : 		pAttackMsg.NumberH = HIBYTE(lpObj->TargetNumber);

  006ea	8b 45 08	 mov	 eax, DWORD PTR _lpObj$[ebp]
  006ed	0f bf 88 ac 02
	00 00		 movsx	 ecx, WORD PTR [eax+684]
  006f4	c1 e9 08	 shr	 ecx, 8
  006f7	81 e1 ff 00 00
	00		 and	 ecx, 255		; 000000ffH
  006fd	88 4d d0	 mov	 BYTE PTR _pAttackMsg$5[ebp+4], cl

; 2300 : 		pAttackMsg.NumberL = LOBYTE(lpObj->TargetNumber);

  00700	8b 45 08	 mov	 eax, DWORD PTR _lpObj$[ebp]
  00703	0f bf 88 ac 02
	00 00		 movsx	 ecx, WORD PTR [eax+684]
  0070a	81 e1 ff 00 00
	00		 and	 ecx, 255		; 000000ffH
  00710	88 4d d1	 mov	 BYTE PTR _pAttackMsg$5[ebp+5], cl

; 2301 : 		pAttackMsg.Dis     = 0;

  00713	c6 45 d2 00	 mov	 BYTE PTR _pAttackMsg$5[ebp+6], 0

; 2302 : 		CGMagicAttack(&pAttackMsg, lpObj->m_Index);

  00717	8b 45 08	 mov	 eax, DWORD PTR _lpObj$[ebp]
  0071a	8b 08		 mov	 ecx, DWORD PTR [eax]
  0071c	51		 push	 ecx
  0071d	8d 55 cc	 lea	 edx, DWORD PTR _pAttackMsg$5[ebp]
  00720	52		 push	 edx
  00721	e8 00 00 00 00	 call	 ?CGMagicAttack@@YAXPAUPMSG_MAGICATTACK@@H@Z ; CGMagicAttack
  00726	83 c4 08	 add	 esp, 8

; 2303 : 		return;

  00729	e9 8e 01 00 00	 jmp	 $LN1@gObjMonste
$LN22@gObjMonste:

; 2304 : 	}
; 2305 : #endif
; 2306 : 	
; 2307 : /*	if (
; 2308 : 		lpObj->Class == 87 ||		// 자이언트오거1
; 2309 : 		lpObj->Class == 93 ||		// 자이언트오거2
; 2310 : 		lpObj->Class == 99 ||		// 자이언트오거3
; 2311 : 		lpObj->Class == 116 ||		// 자이언트오거4
; 2312 : 		lpObj->Class == 122 ||		// 자이언트오거5
; 2313 : 		lpObj->Class == 128			// 자이언트오거6
; 2314 : 		)
; 2315 : 	{
; 2316 : 		if(rand()%2) {
; 2317 : 			// 자이언트오거의 경우는 1/2 확률로 마법공격과 일반공격을 번갈아 한다.
; 2318 : 			PMSG_MAGICATTACK pAttackMsg;
; 2319 : 			pAttackMsg.MagicNumber = 1;		// 추가되었던 번개마법
; 2320 : 			pAttackMsg.NumberH = HIBYTE(lpObj->TargetNumber);
; 2321 : 			pAttackMsg.NumberL = LOBYTE(lpObj->TargetNumber);
; 2322 : 			pAttackMsg.Dis     = 0;
; 2323 : 			CGMagicAttack(&pAttackMsg, lpObj->m_Index);
; 2324 : 			return;
; 2325 : 		}
; 2326 : 	}
; 2327 : */
; 2328 : 	if( 
; 2329 : 		lpObj->Class == 66 || 
; 2330 : 		lpObj->Class == 73 || 

  0072e	8b 45 08	 mov	 eax, DWORD PTR _lpObj$[ebp]
  00731	0f b7 88 9c 00
	00 00		 movzx	 ecx, WORD PTR [eax+156]
  00738	83 f9 42	 cmp	 ecx, 66			; 00000042H
  0073b	74 1e		 je	 SHORT $LN25@gObjMonste
  0073d	8b 45 08	 mov	 eax, DWORD PTR _lpObj$[ebp]
  00740	0f b7 88 9c 00
	00 00		 movzx	 ecx, WORD PTR [eax+156]
  00747	83 f9 49	 cmp	 ecx, 73			; 00000049H
  0074a	74 0f		 je	 SHORT $LN25@gObjMonste
  0074c	8b 45 08	 mov	 eax, DWORD PTR _lpObj$[ebp]
  0074f	0f b7 88 9c 00
	00 00		 movzx	 ecx, WORD PTR [eax+156]
  00756	83 f9 4d	 cmp	 ecx, 77			; 0000004dH
  00759	75 48		 jne	 SHORT $LN24@gObjMonste
$LN25@gObjMonste:

; 2331 : 		lpObj->Class == 77
; 2332 : 		)
; 2333 : 	{
; 2334 : 		PMSG_MAGICATTACK pAttackMsg;
; 2335 : #ifdef ADD_MASTER_LEVEL_SKILL_SYSTEM_ACTIVE_20080107	// 스킬번호 BYTE -> WORD
; 2336 : 		pAttackMsg.MagicNumberH = HIBYTE( 1 );
; 2337 : 		pAttackMsg.MagicNumberL = LOBYTE( 1 );
; 2338 : #else
; 2339 : 		pAttackMsg.MagicNumber = 1;//(BYTE)lpObj->m_AttackType;

  0075b	c6 45 c7 01	 mov	 BYTE PTR _pAttackMsg$4[ebp+3], 1

; 2340 : #endif
; 2341 : 		pAttackMsg.NumberH = HIBYTE(lpObj->TargetNumber);

  0075f	8b 45 08	 mov	 eax, DWORD PTR _lpObj$[ebp]
  00762	0f bf 88 ac 02
	00 00		 movsx	 ecx, WORD PTR [eax+684]
  00769	c1 e9 08	 shr	 ecx, 8
  0076c	81 e1 ff 00 00
	00		 and	 ecx, 255		; 000000ffH
  00772	88 4d c8	 mov	 BYTE PTR _pAttackMsg$4[ebp+4], cl

; 2342 : 		pAttackMsg.NumberL = LOBYTE(lpObj->TargetNumber);

  00775	8b 45 08	 mov	 eax, DWORD PTR _lpObj$[ebp]
  00778	0f bf 88 ac 02
	00 00		 movsx	 ecx, WORD PTR [eax+684]
  0077f	81 e1 ff 00 00
	00		 and	 ecx, 255		; 000000ffH
  00785	88 4d c9	 mov	 BYTE PTR _pAttackMsg$4[ebp+5], cl

; 2343 : 		pAttackMsg.Dis     = 0;

  00788	c6 45 ca 00	 mov	 BYTE PTR _pAttackMsg$4[ebp+6], 0

; 2344 : 		CGMagicAttack(&pAttackMsg, lpObj->m_Index);

  0078c	8b 45 08	 mov	 eax, DWORD PTR _lpObj$[ebp]
  0078f	8b 08		 mov	 ecx, DWORD PTR [eax]
  00791	51		 push	 ecx
  00792	8d 55 c4	 lea	 edx, DWORD PTR _pAttackMsg$4[ebp]
  00795	52		 push	 edx
  00796	e8 00 00 00 00	 call	 ?CGMagicAttack@@YAXPAUPMSG_MAGICATTACK@@H@Z ; CGMagicAttack
  0079b	83 c4 08	 add	 esp, 8

; 2345 : 		return;

  0079e	e9 19 01 00 00	 jmp	 $LN1@gObjMonste
$LN24@gObjMonste:

; 2346 : 	}
; 2347 : #else
; 2348 : 	if( lpObj->Class == 66 || lpObj->Class == 73 || lpObj->Class == 77)
; 2349 : 	{	// 저주받은 왕
; 2350 : 		PMSG_MAGICATTACK pAttackMsg;
; 2351 : #ifdef ADD_MASTER_LEVEL_SKILL_SYSTEM_ACTIVE_20080107	// 스킬번호 BYTE -> WORD
; 2352 : 		pAttackMsg.MagicNumberH = HIBYTE( 1 );
; 2353 : 		pAttackMsg.MagicNumberL = LOBYTE( 1 );
; 2354 : #else
; 2355 : 		pAttackMsg.MagicNumber = 1;//(BYTE)lpObj->m_AttackType;
; 2356 : #endif
; 2357 : 		pAttackMsg.NumberH = HIBYTE(lpObj->TargetNumber);
; 2358 : 		pAttackMsg.NumberL = LOBYTE(lpObj->TargetNumber);
; 2359 : 		pAttackMsg.Dis     = 0;
; 2360 : 		CGMagicAttack(&pAttackMsg, lpObj->m_Index);
; 2361 : 		return;
; 2362 : 	}
; 2363 : #endif
; 2364 : 	
