; Listing generated by Microsoft (R) Optimizing Compiler Version 19.27.29111.0 

	TITLE	C:\Mu Online\Mu-GS-Webzen-MC-10093\GameServer\IpCache.cpp
	.686P
	.XMM
	include listing.inc
	.model	flat

INCLUDELIB LIBCMT
INCLUDELIB OLDNAMES

PUBLIC	?__empty_global_delete@@YAXPAX@Z		; __empty_global_delete
PUBLIC	?__empty_global_delete@@YAXPAXI@Z		; __empty_global_delete
PUBLIC	?DelIp@CIpCache@@QAEXPAD@Z			; CIpCache::DelIp
PUBLIC	?AddIp@CIpCache@@QAEHPAD@Z			; CIpCache::AddIp
PUBLIC	?Init@CIpCache@@QAEXXZ				; CIpCache::Init
PUBLIC	??0CIpCache@@QAE@XZ				; CIpCache::CIpCache
PUBLIC	??1CIpCache@@UAE@XZ				; CIpCache::~CIpCache
PUBLIC	??_GCIpCache@@UAEPAXI@Z				; CIpCache::`scalar deleting destructor'
PUBLIC	??_7CIpCache@@6B@				; CIpCache::`vftable'
PUBLIC	?IpCache@@3VCIpCache@@A				; IpCache
PUBLIC	??_R4CIpCache@@6B@				; CIpCache::`RTTI Complete Object Locator'
PUBLIC	??_R0?AVCIpCache@@@8				; CIpCache `RTTI Type Descriptor'
PUBLIC	??_R3CIpCache@@8				; CIpCache::`RTTI Class Hierarchy Descriptor'
PUBLIC	??_R2CIpCache@@8				; CIpCache::`RTTI Base Class Array'
PUBLIC	??_R1A@?0A@EA@CIpCache@@8			; CIpCache::`RTTI Base Class Descriptor at (0,-1,0,64)'
EXTRN	??3@YAXPAXI@Z:PROC				; operator delete
EXTRN	_atexit:PROC
EXTRN	_strcmp:PROC
EXTRN	_strcpy:PROC
EXTRN	__imp__GetTickCount@0:PROC
EXTRN	??_ECIpCache@@UAEPAXI@Z:PROC			; CIpCache::`vector deleting destructor'
EXTRN	??_7type_info@@6B@:QWORD			; type_info::`vftable'
_BSS	SEGMENT
?IpCache@@3VCIpCache@@A DB 0bb84H DUP (?)		; IpCache
_BSS	ENDS
CRT$XCU	SEGMENT
?IpCache$initializer$@@3P6AXXZA DD FLAT:??__EIpCache@@YAXXZ ; IpCache$initializer$
CRT$XCU	ENDS
;	COMDAT ??_R1A@?0A@EA@CIpCache@@8
rdata$r	SEGMENT
??_R1A@?0A@EA@CIpCache@@8 DD FLAT:??_R0?AVCIpCache@@@8	; CIpCache::`RTTI Base Class Descriptor at (0,-1,0,64)'
	DD	00H
	DD	00H
	DD	0ffffffffH
	DD	00H
	DD	040H
	DD	FLAT:??_R3CIpCache@@8
rdata$r	ENDS
;	COMDAT ??_R2CIpCache@@8
rdata$r	SEGMENT
??_R2CIpCache@@8 DD FLAT:??_R1A@?0A@EA@CIpCache@@8	; CIpCache::`RTTI Base Class Array'
rdata$r	ENDS
;	COMDAT ??_R3CIpCache@@8
rdata$r	SEGMENT
??_R3CIpCache@@8 DD 00H					; CIpCache::`RTTI Class Hierarchy Descriptor'
	DD	00H
	DD	01H
	DD	FLAT:??_R2CIpCache@@8
rdata$r	ENDS
;	COMDAT ??_R0?AVCIpCache@@@8
data$r	SEGMENT
??_R0?AVCIpCache@@@8 DD FLAT:??_7type_info@@6B@		; CIpCache `RTTI Type Descriptor'
	DD	00H
	DB	'.?AVCIpCache@@', 00H
data$r	ENDS
;	COMDAT ??_R4CIpCache@@6B@
rdata$r	SEGMENT
??_R4CIpCache@@6B@ DD 00H				; CIpCache::`RTTI Complete Object Locator'
	DD	00H
	DD	00H
	DD	FLAT:??_R0?AVCIpCache@@@8
	DD	FLAT:??_R3CIpCache@@8
rdata$r	ENDS
;	COMDAT ??_7CIpCache@@6B@
CONST	SEGMENT
??_7CIpCache@@6B@ DD FLAT:??_R4CIpCache@@6B@		; CIpCache::`vftable'
	DD	FLAT:??_ECIpCache@@UAEPAXI@Z
CONST	ENDS
; Function compile flags: /Odtp /ZI
;	COMDAT ??__FIpCache@@YAXXZ
text$yd	SEGMENT
??__FIpCache@@YAXXZ PROC				; `dynamic atexit destructor for 'IpCache'', COMDAT
  00000	55		 push	 ebp
  00001	8b ec		 mov	 ebp, esp
  00003	83 ec 40	 sub	 esp, 64			; 00000040H
  00006	53		 push	 ebx
  00007	56		 push	 esi
  00008	57		 push	 edi
  00009	b9 00 00 00 00	 mov	 ecx, OFFSET ?IpCache@@3VCIpCache@@A ; IpCache
  0000e	e8 00 00 00 00	 call	 ??1CIpCache@@UAE@XZ	; CIpCache::~CIpCache
  00013	5f		 pop	 edi
  00014	5e		 pop	 esi
  00015	5b		 pop	 ebx
  00016	8b e5		 mov	 esp, ebp
  00018	5d		 pop	 ebp
  00019	c3		 ret	 0
??__FIpCache@@YAXXZ ENDP				; `dynamic atexit destructor for 'IpCache''
text$yd	ENDS
; Function compile flags: /Odtp /ZI
; File C:\Mu Online\Mu-GS-Webzen-MC-10093\GameServer\IpCache.cpp
;	COMDAT ??__EIpCache@@YAXXZ
text$di	SEGMENT
??__EIpCache@@YAXXZ PROC				; `dynamic initializer for 'IpCache'', COMDAT

; 10   : CIpCache	IpCache;

  00000	55		 push	 ebp
  00001	8b ec		 mov	 ebp, esp
  00003	83 ec 40	 sub	 esp, 64			; 00000040H
  00006	53		 push	 ebx
  00007	56		 push	 esi
  00008	57		 push	 edi
  00009	b9 00 00 00 00	 mov	 ecx, OFFSET ?IpCache@@3VCIpCache@@A ; IpCache
  0000e	e8 00 00 00 00	 call	 ??0CIpCache@@QAE@XZ	; CIpCache::CIpCache
  00013	68 00 00 00 00	 push	 OFFSET ??__FIpCache@@YAXXZ ; `dynamic atexit destructor for 'IpCache''
  00018	e8 00 00 00 00	 call	 _atexit
  0001d	83 c4 04	 add	 esp, 4
  00020	5f		 pop	 edi
  00021	5e		 pop	 esi
  00022	5b		 pop	 ebx
  00023	8b e5		 mov	 esp, ebp
  00025	5d		 pop	 ebp
  00026	c3		 ret	 0
??__EIpCache@@YAXXZ ENDP				; `dynamic initializer for 'IpCache''
text$di	ENDS
; Function compile flags: /Odtp /ZI
;	COMDAT ??_GCIpCache@@UAEPAXI@Z
_TEXT	SEGMENT
_this$ = -4						; size = 4
___flags$ = 8						; size = 4
??_GCIpCache@@UAEPAXI@Z PROC				; CIpCache::`scalar deleting destructor', COMDAT
; _this$ = ecx
  00000	55		 push	 ebp
  00001	8b ec		 mov	 ebp, esp
  00003	83 ec 44	 sub	 esp, 68			; 00000044H
  00006	53		 push	 ebx
  00007	56		 push	 esi
  00008	57		 push	 edi
  00009	89 4d fc	 mov	 DWORD PTR _this$[ebp], ecx
  0000c	8b 4d fc	 mov	 ecx, DWORD PTR _this$[ebp]
  0000f	e8 00 00 00 00	 call	 ??1CIpCache@@UAE@XZ	; CIpCache::~CIpCache
  00014	8b 45 08	 mov	 eax, DWORD PTR ___flags$[ebp]
  00017	83 e0 01	 and	 eax, 1
  0001a	74 11		 je	 SHORT $LN2@scalar
  0001c	68 84 bb 00 00	 push	 48004			; 0000bb84H
  00021	8b 45 fc	 mov	 eax, DWORD PTR _this$[ebp]
  00024	50		 push	 eax
  00025	e8 00 00 00 00	 call	 ??3@YAXPAXI@Z		; operator delete
  0002a	83 c4 08	 add	 esp, 8
$LN2@scalar:
  0002d	8b 45 fc	 mov	 eax, DWORD PTR _this$[ebp]
  00030	5f		 pop	 edi
  00031	5e		 pop	 esi
  00032	5b		 pop	 ebx
  00033	8b e5		 mov	 esp, ebp
  00035	5d		 pop	 ebp
  00036	c2 04 00	 ret	 4
??_GCIpCache@@UAEPAXI@Z ENDP				; CIpCache::`scalar deleting destructor'
_TEXT	ENDS
; Function compile flags: /Odtp /ZI
; File C:\Mu Online\Mu-GS-Webzen-MC-10093\GameServer\IpCache.cpp
;	COMDAT ??1CIpCache@@UAE@XZ
_TEXT	SEGMENT
_this$ = -4						; size = 4
??1CIpCache@@UAE@XZ PROC				; CIpCache::~CIpCache, COMDAT
; _this$ = ecx

; 18   : {

  00000	55		 push	 ebp
  00001	8b ec		 mov	 ebp, esp
  00003	83 ec 44	 sub	 esp, 68			; 00000044H
  00006	53		 push	 ebx
  00007	56		 push	 esi
  00008	57		 push	 edi
  00009	89 4d fc	 mov	 DWORD PTR _this$[ebp], ecx
  0000c	8b 45 fc	 mov	 eax, DWORD PTR _this$[ebp]
  0000f	c7 00 00 00 00
	00		 mov	 DWORD PTR [eax], OFFSET ??_7CIpCache@@6B@

; 19   : 
; 20   : }

  00015	5f		 pop	 edi
  00016	5e		 pop	 esi
  00017	5b		 pop	 ebx
  00018	8b e5		 mov	 esp, ebp
  0001a	5d		 pop	 ebp
  0001b	c3		 ret	 0
??1CIpCache@@UAE@XZ ENDP				; CIpCache::~CIpCache
_TEXT	ENDS
; Function compile flags: /Odtp /ZI
; File C:\Mu Online\Mu-GS-Webzen-MC-10093\GameServer\IpCache.cpp
;	COMDAT ??0CIpCache@@QAE@XZ
_TEXT	SEGMENT
_this$ = -4						; size = 4
??0CIpCache@@QAE@XZ PROC				; CIpCache::CIpCache, COMDAT
; _this$ = ecx

; 13   : {

  00000	55		 push	 ebp
  00001	8b ec		 mov	 ebp, esp
  00003	83 ec 44	 sub	 esp, 68			; 00000044H
  00006	53		 push	 ebx
  00007	56		 push	 esi
  00008	57		 push	 edi
  00009	89 4d fc	 mov	 DWORD PTR _this$[ebp], ecx
  0000c	8b 45 fc	 mov	 eax, DWORD PTR _this$[ebp]
  0000f	c7 00 00 00 00
	00		 mov	 DWORD PTR [eax], OFFSET ??_7CIpCache@@6B@

; 14   : 	Init();

  00015	8b 4d fc	 mov	 ecx, DWORD PTR _this$[ebp]
  00018	e8 00 00 00 00	 call	 ?Init@CIpCache@@QAEXXZ	; CIpCache::Init

; 15   : }

  0001d	8b 45 fc	 mov	 eax, DWORD PTR _this$[ebp]
  00020	5f		 pop	 edi
  00021	5e		 pop	 esi
  00022	5b		 pop	 ebx
  00023	8b e5		 mov	 esp, ebp
  00025	5d		 pop	 ebp
  00026	c3		 ret	 0
??0CIpCache@@QAE@XZ ENDP				; CIpCache::CIpCache
_TEXT	ENDS
; Function compile flags: /Odtp /ZI
; File C:\Mu Online\Mu-GS-Webzen-MC-10093\GameServer\IpCache.cpp
;	COMDAT ?Init@CIpCache@@QAEXXZ
_TEXT	SEGMENT
_n$ = -8						; size = 4
_this$ = -4						; size = 4
?Init@CIpCache@@QAEXXZ PROC				; CIpCache::Init, COMDAT
; _this$ = ecx

; 23   : {

  00000	55		 push	 ebp
  00001	8b ec		 mov	 ebp, esp
  00003	83 ec 48	 sub	 esp, 72			; 00000048H
  00006	53		 push	 ebx
  00007	56		 push	 esi
  00008	57		 push	 edi
  00009	89 4d fc	 mov	 DWORD PTR _this$[ebp], ecx

; 24   : 	int n;
; 25   : 	
; 26   : 	for( n=0; n<MAX_IPINFO; n++)

  0000c	c7 45 f8 00 00
	00 00		 mov	 DWORD PTR _n$[ebp], 0
  00013	eb 09		 jmp	 SHORT $LN4@Init
$LN2@Init:
  00015	8b 45 f8	 mov	 eax, DWORD PTR _n$[ebp]
  00018	83 c0 01	 add	 eax, 1
  0001b	89 45 f8	 mov	 DWORD PTR _n$[ebp], eax
$LN4@Init:
  0001e	81 7d f8 d0 07
	00 00		 cmp	 DWORD PTR _n$[ebp], 2000 ; 000007d0H
  00025	7d 11		 jge	 SHORT $LN1@Init

; 27   : 	{
; 28   : 		m_IpInfo[n].IpUsed = 0;

  00027	6b 45 f8 18	 imul	 eax, DWORD PTR _n$[ebp], 24
  0002b	8b 4d fc	 mov	 ecx, DWORD PTR _this$[ebp]
  0002e	c7 44 01 14 00
	00 00 00	 mov	 DWORD PTR [ecx+eax+20], 0

; 29   : 	}

  00036	eb dd		 jmp	 SHORT $LN2@Init
$LN1@Init:

; 30   : }

  00038	5f		 pop	 edi
  00039	5e		 pop	 esi
  0003a	5b		 pop	 ebx
  0003b	8b e5		 mov	 esp, ebp
  0003d	5d		 pop	 ebp
  0003e	c3		 ret	 0
?Init@CIpCache@@QAEXXZ ENDP				; CIpCache::Init
_TEXT	ENDS
; Function compile flags: /Odtp /ZI
; File C:\Mu Online\Mu-GS-Webzen-MC-10093\GameServer\IpCache.cpp
;	COMDAT ?AddIp@CIpCache@@QAEHPAD@Z
_TEXT	SEGMENT
_blank$ = -12						; size = 4
_n$ = -8						; size = 4
_this$ = -4						; size = 4
_ip$ = 8						; size = 4
?AddIp@CIpCache@@QAEHPAD@Z PROC				; CIpCache::AddIp, COMDAT
; _this$ = ecx

; 34   : {

  00000	55		 push	 ebp
  00001	8b ec		 mov	 ebp, esp
  00003	83 ec 4c	 sub	 esp, 76			; 0000004cH
  00006	53		 push	 ebx
  00007	56		 push	 esi
  00008	57		 push	 edi
  00009	89 4d fc	 mov	 DWORD PTR _this$[ebp], ecx

; 35   : 	int n;
; 36   : 	int blank=-1;

  0000c	c7 45 f4 ff ff
	ff ff		 mov	 DWORD PTR _blank$[ebp], -1

; 37   : 	
; 38   : 	for( n=0; n<MAX_IPINFO; n++)

  00013	c7 45 f8 00 00
	00 00		 mov	 DWORD PTR _n$[ebp], 0
  0001a	eb 09		 jmp	 SHORT $LN4@AddIp
$LN2@AddIp:
  0001c	8b 45 f8	 mov	 eax, DWORD PTR _n$[ebp]
  0001f	83 c0 01	 add	 eax, 1
  00022	89 45 f8	 mov	 DWORD PTR _n$[ebp], eax
$LN4@AddIp:
  00025	81 7d f8 d0 07
	00 00		 cmp	 DWORD PTR _n$[ebp], 2000 ; 000007d0H
  0002c	0f 8d c9 00 00
	00		 jge	 $LN3@AddIp

; 39   : 	{
; 40   : 		if( m_IpInfo[n].IpUsed )

  00032	6b 45 f8 18	 imul	 eax, DWORD PTR _n$[ebp], 24
  00036	8b 4d fc	 mov	 ecx, DWORD PTR _this$[ebp]
  00039	83 7c 01 14 00	 cmp	 DWORD PTR [ecx+eax+20], 0
  0003e	0f 84 a6 00 00
	00		 je	 $LN5@AddIp

; 41   : 		{
; 42   : 			if( GetTickCount() > m_IpInfo[n].Time )	// 시간이 다되면 캐쉬에서 없앤다.

  00044	ff 15 00 00 00
	00		 call	 DWORD PTR __imp__GetTickCount@0
  0004a	6b 4d f8 18	 imul	 ecx, DWORD PTR _n$[ebp], 24
  0004e	8b 55 fc	 mov	 edx, DWORD PTR _this$[ebp]
  00051	3b 44 0a 18	 cmp	 eax, DWORD PTR [edx+ecx+24]
  00055	76 1d		 jbe	 SHORT $LN7@AddIp

; 43   : 			{
; 44   : 				m_IpInfo[n].IpUsed = 0;

  00057	6b 45 f8 18	 imul	 eax, DWORD PTR _n$[ebp], 24
  0005b	8b 4d fc	 mov	 ecx, DWORD PTR _this$[ebp]
  0005e	c7 44 01 14 00
	00 00 00	 mov	 DWORD PTR [ecx+eax+20], 0

; 45   : 				if( blank < 0 ) blank = n;

  00066	83 7d f4 00	 cmp	 DWORD PTR _blank$[ebp], 0
  0006a	7d 06		 jge	 SHORT $LN9@AddIp
  0006c	8b 45 f8	 mov	 eax, DWORD PTR _n$[ebp]
  0006f	89 45 f4	 mov	 DWORD PTR _blank$[ebp], eax
$LN9@AddIp:

; 46   : 			}

  00072	eb 74		 jmp	 SHORT $LN8@AddIp
$LN7@AddIp:

; 47   : 			else
; 48   : 			{
; 49   : 				if( m_IpInfo[n].IpAddress[0] == ip[0] )

  00074	6b 45 f8 18	 imul	 eax, DWORD PTR _n$[ebp], 24
  00078	8b 4d fc	 mov	 ecx, DWORD PTR _this$[ebp]
  0007b	8d 54 01 04	 lea	 edx, DWORD PTR [ecx+eax+4]
  0007f	b8 01 00 00 00	 mov	 eax, 1
  00084	6b c8 00	 imul	 ecx, eax, 0
  00087	0f be 14 0a	 movsx	 edx, BYTE PTR [edx+ecx]
  0008b	b8 01 00 00 00	 mov	 eax, 1
  00090	6b c8 00	 imul	 ecx, eax, 0
  00093	8b 45 08	 mov	 eax, DWORD PTR _ip$[ebp]
  00096	0f be 0c 08	 movsx	 ecx, BYTE PTR [eax+ecx]
  0009a	3b d1		 cmp	 edx, ecx
  0009c	75 4a		 jne	 SHORT $LN8@AddIp

; 50   : 				{
; 51   : 					if( m_IpInfo[n].IpAddress[4] == ip[4] )

  0009e	6b 45 f8 18	 imul	 eax, DWORD PTR _n$[ebp], 24
  000a2	8b 4d fc	 mov	 ecx, DWORD PTR _this$[ebp]
  000a5	8d 54 01 04	 lea	 edx, DWORD PTR [ecx+eax+4]
  000a9	b8 01 00 00 00	 mov	 eax, 1
  000ae	c1 e0 02	 shl	 eax, 2
  000b1	0f be 0c 02	 movsx	 ecx, BYTE PTR [edx+eax]
  000b5	ba 01 00 00 00	 mov	 edx, 1
  000ba	c1 e2 02	 shl	 edx, 2
  000bd	8b 45 08	 mov	 eax, DWORD PTR _ip$[ebp]
  000c0	0f be 14 10	 movsx	 edx, BYTE PTR [eax+edx]
  000c4	3b ca		 cmp	 ecx, edx
  000c6	75 20		 jne	 SHORT $LN8@AddIp

; 52   : 					{
; 53   : 						if( strcmp(m_IpInfo[n].IpAddress, ip) == 0 )	// 같은 IP가 있다면.

  000c8	8b 45 08	 mov	 eax, DWORD PTR _ip$[ebp]
  000cb	50		 push	 eax
  000cc	6b 4d f8 18	 imul	 ecx, DWORD PTR _n$[ebp], 24
  000d0	8b 55 fc	 mov	 edx, DWORD PTR _this$[ebp]
  000d3	8d 44 0a 04	 lea	 eax, DWORD PTR [edx+ecx+4]
  000d7	50		 push	 eax
  000d8	e8 00 00 00 00	 call	 _strcmp
  000dd	83 c4 08	 add	 esp, 8
  000e0	85 c0		 test	 eax, eax
  000e2	75 04		 jne	 SHORT $LN8@AddIp

; 54   : 						{
; 55   : 							return FALSE;

  000e4	33 c0		 xor	 eax, eax
  000e6	eb 5f		 jmp	 SHORT $LN1@AddIp
$LN8@AddIp:

; 56   : 						}
; 57   : 					}
; 58   : 				}
; 59   : 			}
; 60   : 		}

  000e8	eb 0c		 jmp	 SHORT $LN6@AddIp
$LN5@AddIp:

; 61   : 		else
; 62   : 		{
; 63   : 			if( blank < 0 ) blank = n;

  000ea	83 7d f4 00	 cmp	 DWORD PTR _blank$[ebp], 0
  000ee	7d 06		 jge	 SHORT $LN6@AddIp
  000f0	8b 45 f8	 mov	 eax, DWORD PTR _n$[ebp]
  000f3	89 45 f4	 mov	 DWORD PTR _blank$[ebp], eax
$LN6@AddIp:

; 64   : 		}
; 65   : 	}

  000f6	e9 21 ff ff ff	 jmp	 $LN2@AddIp
$LN3@AddIp:

; 66   : 	if( blank >= 0 )

  000fb	83 7d f4 00	 cmp	 DWORD PTR _blank$[ebp], 0
  000ff	7c 44		 jl	 SHORT $LN14@AddIp

; 67   : 	{
; 68   : 		strcpy(m_IpInfo[blank].IpAddress, ip);

  00101	8b 45 08	 mov	 eax, DWORD PTR _ip$[ebp]
  00104	50		 push	 eax
  00105	6b 4d f4 18	 imul	 ecx, DWORD PTR _blank$[ebp], 24
  00109	8b 55 fc	 mov	 edx, DWORD PTR _this$[ebp]
  0010c	8d 44 0a 04	 lea	 eax, DWORD PTR [edx+ecx+4]
  00110	50		 push	 eax
  00111	e8 00 00 00 00	 call	 _strcpy
  00116	83 c4 08	 add	 esp, 8

; 69   : 		m_IpInfo[blank].IpUsed = 1;

  00119	6b 45 f4 18	 imul	 eax, DWORD PTR _blank$[ebp], 24
  0011d	8b 4d fc	 mov	 ecx, DWORD PTR _this$[ebp]
  00120	c7 44 01 14 01
	00 00 00	 mov	 DWORD PTR [ecx+eax+20], 1

; 70   : 		m_IpInfo[blank].Time   = GetTickCount()+(30*1000);	// 1초후에 

  00128	ff 15 00 00 00
	00		 call	 DWORD PTR __imp__GetTickCount@0
  0012e	05 30 75 00 00	 add	 eax, 30000		; 00007530H
  00133	6b 4d f4 18	 imul	 ecx, DWORD PTR _blank$[ebp], 24
  00137	8b 55 fc	 mov	 edx, DWORD PTR _this$[ebp]
  0013a	89 44 0a 18	 mov	 DWORD PTR [edx+ecx+24], eax

; 71   : 		return TRUE;

  0013e	b8 01 00 00 00	 mov	 eax, 1
  00143	eb 02		 jmp	 SHORT $LN1@AddIp
$LN14@AddIp:

; 72   : 	}
; 73   : 
; 74   : 	return FALSE;

  00145	33 c0		 xor	 eax, eax
$LN1@AddIp:

; 75   : }

  00147	5f		 pop	 edi
  00148	5e		 pop	 esi
  00149	5b		 pop	 ebx
  0014a	8b e5		 mov	 esp, ebp
  0014c	5d		 pop	 ebp
  0014d	c2 04 00	 ret	 4
?AddIp@CIpCache@@QAEHPAD@Z ENDP				; CIpCache::AddIp
_TEXT	ENDS
; Function compile flags: /Odtp /ZI
; File C:\Mu Online\Mu-GS-Webzen-MC-10093\GameServer\IpCache.cpp
;	COMDAT ?DelIp@CIpCache@@QAEXPAD@Z
_TEXT	SEGMENT
_n$ = -8						; size = 4
_this$ = -4						; size = 4
_ip$ = 8						; size = 4
?DelIp@CIpCache@@QAEXPAD@Z PROC				; CIpCache::DelIp, COMDAT
; _this$ = ecx

; 78   : {

  00000	55		 push	 ebp
  00001	8b ec		 mov	 ebp, esp
  00003	83 ec 48	 sub	 esp, 72			; 00000048H
  00006	53		 push	 ebx
  00007	56		 push	 esi
  00008	57		 push	 edi
  00009	89 4d fc	 mov	 DWORD PTR _this$[ebp], ecx

; 79   : 	int n;
; 80   : 	
; 81   : 	for( n=0; n<MAX_IPINFO; n++)

  0000c	c7 45 f8 00 00
	00 00		 mov	 DWORD PTR _n$[ebp], 0
  00013	eb 09		 jmp	 SHORT $LN4@DelIp
$LN2@DelIp:
  00015	8b 45 f8	 mov	 eax, DWORD PTR _n$[ebp]
  00018	83 c0 01	 add	 eax, 1
  0001b	89 45 f8	 mov	 DWORD PTR _n$[ebp], eax
$LN4@DelIp:
  0001e	81 7d f8 d0 07
	00 00		 cmp	 DWORD PTR _n$[ebp], 2000 ; 000007d0H
  00025	0f 8d 92 00 00
	00		 jge	 $LN1@DelIp

; 82   : 	{
; 83   : 		if( m_IpInfo[n].IpUsed )

  0002b	6b 45 f8 18	 imul	 eax, DWORD PTR _n$[ebp], 24
  0002f	8b 4d fc	 mov	 ecx, DWORD PTR _this$[ebp]
  00032	83 7c 01 14 00	 cmp	 DWORD PTR [ecx+eax+20], 0
  00037	74 7f		 je	 SHORT $LN5@DelIp

; 84   : 		{
; 85   : 			if( m_IpInfo[n].IpAddress[0] == ip[0] )

  00039	6b 45 f8 18	 imul	 eax, DWORD PTR _n$[ebp], 24
  0003d	8b 4d fc	 mov	 ecx, DWORD PTR _this$[ebp]
  00040	8d 54 01 04	 lea	 edx, DWORD PTR [ecx+eax+4]
  00044	b8 01 00 00 00	 mov	 eax, 1
  00049	6b c8 00	 imul	 ecx, eax, 0
  0004c	0f be 14 0a	 movsx	 edx, BYTE PTR [edx+ecx]
  00050	b8 01 00 00 00	 mov	 eax, 1
  00055	6b c8 00	 imul	 ecx, eax, 0
  00058	8b 45 08	 mov	 eax, DWORD PTR _ip$[ebp]
  0005b	0f be 0c 08	 movsx	 ecx, BYTE PTR [eax+ecx]
  0005f	3b d1		 cmp	 edx, ecx
  00061	75 55		 jne	 SHORT $LN5@DelIp

; 86   : 			{
; 87   : 				if( m_IpInfo[n].IpAddress[4] == ip[4] )

  00063	6b 45 f8 18	 imul	 eax, DWORD PTR _n$[ebp], 24
  00067	8b 4d fc	 mov	 ecx, DWORD PTR _this$[ebp]
  0006a	8d 54 01 04	 lea	 edx, DWORD PTR [ecx+eax+4]
  0006e	b8 01 00 00 00	 mov	 eax, 1
  00073	c1 e0 02	 shl	 eax, 2
  00076	0f be 0c 02	 movsx	 ecx, BYTE PTR [edx+eax]
  0007a	ba 01 00 00 00	 mov	 edx, 1
  0007f	c1 e2 02	 shl	 edx, 2
  00082	8b 45 08	 mov	 eax, DWORD PTR _ip$[ebp]
  00085	0f be 14 10	 movsx	 edx, BYTE PTR [eax+edx]
  00089	3b ca		 cmp	 ecx, edx
  0008b	75 2b		 jne	 SHORT $LN5@DelIp

; 88   : 				{
; 89   : 					if( strcmp(m_IpInfo[n].IpAddress, ip) == 0 )	// 같은 IP가 있다면.

  0008d	8b 45 08	 mov	 eax, DWORD PTR _ip$[ebp]
  00090	50		 push	 eax
  00091	6b 4d f8 18	 imul	 ecx, DWORD PTR _n$[ebp], 24
  00095	8b 55 fc	 mov	 edx, DWORD PTR _this$[ebp]
  00098	8d 44 0a 04	 lea	 eax, DWORD PTR [edx+ecx+4]
  0009c	50		 push	 eax
  0009d	e8 00 00 00 00	 call	 _strcmp
  000a2	83 c4 08	 add	 esp, 8
  000a5	85 c0		 test	 eax, eax
  000a7	75 0f		 jne	 SHORT $LN5@DelIp

; 90   : 					{
; 91   : 						m_IpInfo[n].IpUsed = 0;

  000a9	6b 45 f8 18	 imul	 eax, DWORD PTR _n$[ebp], 24
  000ad	8b 4d fc	 mov	 ecx, DWORD PTR _this$[ebp]
  000b0	c7 44 01 14 00
	00 00 00	 mov	 DWORD PTR [ecx+eax+20], 0
$LN5@DelIp:

; 92   : 					}
; 93   : 				}
; 94   : 			}
; 95   : 		}
; 96   : 	}

  000b8	e9 58 ff ff ff	 jmp	 $LN2@DelIp
$LN1@DelIp:

; 97   : }

  000bd	5f		 pop	 edi
  000be	5e		 pop	 esi
  000bf	5b		 pop	 ebx
  000c0	8b e5		 mov	 esp, ebp
  000c2	5d		 pop	 ebp
  000c3	c2 04 00	 ret	 4
?DelIp@CIpCache@@QAEXPAD@Z ENDP				; CIpCache::DelIp
_TEXT	ENDS
; Function compile flags: /Odtp /ZI
; File C:\Mu Online\Mu-GS-Webzen-MC-10093\GameServer\IpCache.cpp
;	COMDAT ?__empty_global_delete@@YAXPAXI@Z
_TEXT	SEGMENT
___formal$ = 8						; size = 4
___formal$ = 12						; size = 4
?__empty_global_delete@@YAXPAXI@Z PROC			; __empty_global_delete, COMDAT

  00000	55		 push	 ebp
  00001	8b ec		 mov	 ebp, esp
  00003	83 ec 40	 sub	 esp, 64			; 00000040H
  00006	53		 push	 ebx
  00007	56		 push	 esi
  00008	57		 push	 edi
  00009	5f		 pop	 edi
  0000a	5e		 pop	 esi
  0000b	5b		 pop	 ebx
  0000c	8b e5		 mov	 esp, ebp
  0000e	5d		 pop	 ebp
  0000f	c3		 ret	 0
?__empty_global_delete@@YAXPAXI@Z ENDP			; __empty_global_delete
_TEXT	ENDS
; Function compile flags: /Odtp /ZI
; File C:\Mu Online\Mu-GS-Webzen-MC-10093\GameServer\IpCache.cpp
;	COMDAT ?__empty_global_delete@@YAXPAX@Z
_TEXT	SEGMENT
___formal$ = 8						; size = 4
?__empty_global_delete@@YAXPAX@Z PROC			; __empty_global_delete, COMDAT

  00000	55		 push	 ebp
  00001	8b ec		 mov	 ebp, esp
  00003	83 ec 40	 sub	 esp, 64			; 00000040H
  00006	53		 push	 ebx
  00007	56		 push	 esi
  00008	57		 push	 edi
  00009	5f		 pop	 edi
  0000a	5e		 pop	 esi
  0000b	5b		 pop	 ebx
  0000c	8b e5		 mov	 esp, ebp
  0000e	5d		 pop	 ebp
  0000f	c3		 ret	 0
?__empty_global_delete@@YAXPAX@Z ENDP			; __empty_global_delete
_TEXT	ENDS
END
