; Listing generated by Microsoft (R) Optimizing Compiler Version 19.27.29111.0 

	TITLE	C:\Mu Online\Mu-GS-Webzen-MC-10093\GameServer\ItemBag.cpp
	.686P
	.XMM
	include listing.inc
	.model	flat

INCLUDELIB LIBCMT
INCLUDELIB OLDNAMES

PUBLIC	??_H@YGXPAXIIP6EPAX0@Z@Z			; `vector constructor iterator'
PUBLIC	?__empty_global_delete@@YAXPAX@Z		; __empty_global_delete
PUBLIC	?__empty_global_delete@@YAXPAXI@Z		; __empty_global_delete
PUBLIC	??0CItemBagAttr@@QAE@XZ				; CItemBagAttr::CItemBagAttr
PUBLIC	??0CItemBag@@QAE@XZ				; CItemBag::CItemBag
PUBLIC	??1CItemBag@@UAE@XZ				; CItemBag::~CItemBag
PUBLIC	?Init@CItemBag@@QAEXPAD@Z			; CItemBag::Init
PUBLIC	?LoadItem@CItemBag@@QAEXPAD@Z			; CItemBag::LoadItem
PUBLIC	?GetType@CItemBag@@QAEEH@Z			; CItemBag::GetType
PUBLIC	?GetIndex@CItemBag@@QAEEH@Z			; CItemBag::GetIndex
PUBLIC	?GetLevel@CItemBag@@QAEEH@Z			; CItemBag::GetLevel
PUBLIC	?GetOp1@CItemBag@@QAEEH@Z			; CItemBag::GetOp1
PUBLIC	?GetOp2@CItemBag@@QAEEH@Z			; CItemBag::GetOp2
PUBLIC	?GetOp3@CItemBag@@QAEEH@Z			; CItemBag::GetOp3
PUBLIC	??_GCItemBag@@UAEPAXI@Z				; CItemBag::`scalar deleting destructor'
PUBLIC	??_7CItemBag@@6B@				; CItemBag::`vftable'
PUBLIC	??_C@_01KDCPPGHE@r@				; `string'
PUBLIC	??_R4CItemBag@@6B@				; CItemBag::`RTTI Complete Object Locator'
PUBLIC	??_R0?AVCItemBag@@@8				; CItemBag `RTTI Type Descriptor'
PUBLIC	??_R3CItemBag@@8				; CItemBag::`RTTI Class Hierarchy Descriptor'
PUBLIC	??_R2CItemBag@@8				; CItemBag::`RTTI Base Class Array'
PUBLIC	??_R1A@?0A@EA@CItemBag@@8			; CItemBag::`RTTI Base Class Descriptor at (0,-1,0,64)'
EXTRN	??3@YAXPAXI@Z:PROC				; operator delete
EXTRN	___report_rangecheckfailure:PROC
EXTRN	_isalpha:PROC
EXTRN	_isdigit:PROC
EXTRN	_isspace:PROC
EXTRN	_isalnum:PROC
EXTRN	_fclose:PROC
EXTRN	_fgetc:PROC
EXTRN	_fopen:PROC
EXTRN	_getc:PROC
EXTRN	_ungetc:PROC
EXTRN	_atof:PROC
EXTRN	__imp_?Get@CMsg@@QAEPADH@Z:PROC
EXTRN	?GetNewPath@CDirPath@@QAEPADPAD@Z:PROC		; CDirPath::GetNewPath
EXTRN	??_ECItemBag@@UAEPAXI@Z:PROC			; CItemBag::`vector deleting destructor'
EXTRN	@__security_check_cookie@4:PROC
EXTRN	??_7type_info@@6B@:QWORD			; type_info::`vftable'
EXTRN	?LogAdd@@3P6AXPADZZA:DWORD			; LogAdd
EXTRN	?lMsg@@3VCMsg@@A:BYTE				; lMsg
EXTRN	?gDirPath@@3VCDirPath@@A:BYTE			; gDirPath
EXTRN	___security_cookie:DWORD
EXTRN	__fltused:DWORD
_BSS	SEGMENT
?SMDFile@@3PAU_iobuf@@A DD 01H DUP (?)			; SMDFile
?TokenNumber@@3MA DD 01H DUP (?)			; TokenNumber
?TokenString@@3PADA DB 064H DUP (?)			; TokenString
?CurrentToken@@3W4SMDToken@@A DD 01H DUP (?)		; CurrentToken
_BSS	ENDS
;	COMDAT ??_R1A@?0A@EA@CItemBag@@8
rdata$r	SEGMENT
??_R1A@?0A@EA@CItemBag@@8 DD FLAT:??_R0?AVCItemBag@@@8	; CItemBag::`RTTI Base Class Descriptor at (0,-1,0,64)'
	DD	00H
	DD	00H
	DD	0ffffffffH
	DD	00H
	DD	040H
	DD	FLAT:??_R3CItemBag@@8
rdata$r	ENDS
;	COMDAT ??_R2CItemBag@@8
rdata$r	SEGMENT
??_R2CItemBag@@8 DD FLAT:??_R1A@?0A@EA@CItemBag@@8	; CItemBag::`RTTI Base Class Array'
rdata$r	ENDS
;	COMDAT ??_R3CItemBag@@8
rdata$r	SEGMENT
??_R3CItemBag@@8 DD 00H					; CItemBag::`RTTI Class Hierarchy Descriptor'
	DD	00H
	DD	01H
	DD	FLAT:??_R2CItemBag@@8
rdata$r	ENDS
;	COMDAT ??_R0?AVCItemBag@@@8
data$r	SEGMENT
??_R0?AVCItemBag@@@8 DD FLAT:??_7type_info@@6B@		; CItemBag `RTTI Type Descriptor'
	DD	00H
	DB	'.?AVCItemBag@@', 00H
data$r	ENDS
;	COMDAT ??_R4CItemBag@@6B@
rdata$r	SEGMENT
??_R4CItemBag@@6B@ DD 00H				; CItemBag::`RTTI Complete Object Locator'
	DD	00H
	DD	00H
	DD	FLAT:??_R0?AVCItemBag@@@8
	DD	FLAT:??_R3CItemBag@@8
rdata$r	ENDS
;	COMDAT ??_C@_01KDCPPGHE@r@
CONST	SEGMENT
??_C@_01KDCPPGHE@r@ DB 'r', 00H				; `string'
CONST	ENDS
;	COMDAT ??_7CItemBag@@6B@
CONST	SEGMENT
??_7CItemBag@@6B@ DD FLAT:??_R4CItemBag@@6B@		; CItemBag::`vftable'
	DD	FLAT:??_ECItemBag@@UAEPAXI@Z
CONST	ENDS
; Function compile flags: /Odtp /ZI
;	COMDAT ??_GCItemBag@@UAEPAXI@Z
_TEXT	SEGMENT
_this$ = -4						; size = 4
___flags$ = 8						; size = 4
??_GCItemBag@@UAEPAXI@Z PROC				; CItemBag::`scalar deleting destructor', COMDAT
; _this$ = ecx
  00000	55		 push	 ebp
  00001	8b ec		 mov	 ebp, esp
  00003	83 ec 44	 sub	 esp, 68			; 00000044H
  00006	53		 push	 ebx
  00007	56		 push	 esi
  00008	57		 push	 edi
  00009	89 4d fc	 mov	 DWORD PTR _this$[ebp], ecx
  0000c	8b 4d fc	 mov	 ecx, DWORD PTR _this$[ebp]
  0000f	e8 00 00 00 00	 call	 ??1CItemBag@@UAE@XZ	; CItemBag::~CItemBag
  00014	8b 45 08	 mov	 eax, DWORD PTR ___flags$[ebp]
  00017	83 e0 01	 and	 eax, 1
  0001a	74 11		 je	 SHORT $LN2@scalar
  0001c	68 94 03 00 00	 push	 916			; 00000394H
  00021	8b 45 fc	 mov	 eax, DWORD PTR _this$[ebp]
  00024	50		 push	 eax
  00025	e8 00 00 00 00	 call	 ??3@YAXPAXI@Z		; operator delete
  0002a	83 c4 08	 add	 esp, 8
$LN2@scalar:
  0002d	8b 45 fc	 mov	 eax, DWORD PTR _this$[ebp]
  00030	5f		 pop	 edi
  00031	5e		 pop	 esi
  00032	5b		 pop	 ebx
  00033	8b e5		 mov	 esp, ebp
  00035	5d		 pop	 ebp
  00036	c2 04 00	 ret	 4
??_GCItemBag@@UAEPAXI@Z ENDP				; CItemBag::`scalar deleting destructor'
_TEXT	ENDS
; Function compile flags: /Odtp /ZI
; File C:\Mu Online\Mu-GS-Webzen-MC-10093\GameServer\ItemBag.cpp
;	COMDAT ?GetOp3@CItemBag@@QAEEH@Z
_TEXT	SEGMENT
_this$ = -4						; size = 4
_n$ = 8							; size = 4
?GetOp3@CItemBag@@QAEEH@Z PROC				; CItemBag::GetOp3, COMDAT
; _this$ = ecx

; 174  : {

  00000	55		 push	 ebp
  00001	8b ec		 mov	 ebp, esp
  00003	83 ec 44	 sub	 esp, 68			; 00000044H
  00006	53		 push	 ebx
  00007	56		 push	 esi
  00008	57		 push	 edi
  00009	89 4d fc	 mov	 DWORD PTR _this$[ebp], ecx

; 175  : 	if( n < 0 || n > MAX_ITEMBAG-1 ) return 0;

  0000c	83 7d 08 00	 cmp	 DWORD PTR _n$[ebp], 0
  00010	7c 09		 jl	 SHORT $LN3@GetOp3
  00012	81 7d 08 95 00
	00 00		 cmp	 DWORD PTR _n$[ebp], 149	; 00000095H
  00019	7e 04		 jle	 SHORT $LN2@GetOp3
$LN3@GetOp3:
  0001b	32 c0		 xor	 al, al
  0001d	eb 0b		 jmp	 SHORT $LN1@GetOp3
$LN2@GetOp3:

; 176  : 	return BagObject[n].m_op3;

  0001f	6b 45 08 06	 imul	 eax, DWORD PTR _n$[ebp], 6
  00023	8b 4d fc	 mov	 ecx, DWORD PTR _this$[ebp]
  00026	8a 44 01 09	 mov	 al, BYTE PTR [ecx+eax+9]
$LN1@GetOp3:

; 177  : }

  0002a	5f		 pop	 edi
  0002b	5e		 pop	 esi
  0002c	5b		 pop	 ebx
  0002d	8b e5		 mov	 esp, ebp
  0002f	5d		 pop	 ebp
  00030	c2 04 00	 ret	 4
?GetOp3@CItemBag@@QAEEH@Z ENDP				; CItemBag::GetOp3
_TEXT	ENDS
; Function compile flags: /Odtp /ZI
; File C:\Mu Online\Mu-GS-Webzen-MC-10093\GameServer\ItemBag.cpp
;	COMDAT ?GetOp2@CItemBag@@QAEEH@Z
_TEXT	SEGMENT
_this$ = -4						; size = 4
_n$ = 8							; size = 4
?GetOp2@CItemBag@@QAEEH@Z PROC				; CItemBag::GetOp2, COMDAT
; _this$ = ecx

; 168  : {

  00000	55		 push	 ebp
  00001	8b ec		 mov	 ebp, esp
  00003	83 ec 44	 sub	 esp, 68			; 00000044H
  00006	53		 push	 ebx
  00007	56		 push	 esi
  00008	57		 push	 edi
  00009	89 4d fc	 mov	 DWORD PTR _this$[ebp], ecx

; 169  : 	if( n < 0 || n > MAX_ITEMBAG-1 ) return 0;

  0000c	83 7d 08 00	 cmp	 DWORD PTR _n$[ebp], 0
  00010	7c 09		 jl	 SHORT $LN3@GetOp2
  00012	81 7d 08 95 00
	00 00		 cmp	 DWORD PTR _n$[ebp], 149	; 00000095H
  00019	7e 04		 jle	 SHORT $LN2@GetOp2
$LN3@GetOp2:
  0001b	32 c0		 xor	 al, al
  0001d	eb 0b		 jmp	 SHORT $LN1@GetOp2
$LN2@GetOp2:

; 170  : 	return BagObject[n].m_op2;

  0001f	6b 45 08 06	 imul	 eax, DWORD PTR _n$[ebp], 6
  00023	8b 4d fc	 mov	 ecx, DWORD PTR _this$[ebp]
  00026	8a 44 01 08	 mov	 al, BYTE PTR [ecx+eax+8]
$LN1@GetOp2:

; 171  : }

  0002a	5f		 pop	 edi
  0002b	5e		 pop	 esi
  0002c	5b		 pop	 ebx
  0002d	8b e5		 mov	 esp, ebp
  0002f	5d		 pop	 ebp
  00030	c2 04 00	 ret	 4
?GetOp2@CItemBag@@QAEEH@Z ENDP				; CItemBag::GetOp2
_TEXT	ENDS
; Function compile flags: /Odtp /ZI
; File C:\Mu Online\Mu-GS-Webzen-MC-10093\GameServer\ItemBag.cpp
;	COMDAT ?GetOp1@CItemBag@@QAEEH@Z
_TEXT	SEGMENT
_this$ = -4						; size = 4
_n$ = 8							; size = 4
?GetOp1@CItemBag@@QAEEH@Z PROC				; CItemBag::GetOp1, COMDAT
; _this$ = ecx

; 162  : {

  00000	55		 push	 ebp
  00001	8b ec		 mov	 ebp, esp
  00003	83 ec 44	 sub	 esp, 68			; 00000044H
  00006	53		 push	 ebx
  00007	56		 push	 esi
  00008	57		 push	 edi
  00009	89 4d fc	 mov	 DWORD PTR _this$[ebp], ecx

; 163  : 	if( n < 0 || n > MAX_ITEMBAG-1 ) return 0;

  0000c	83 7d 08 00	 cmp	 DWORD PTR _n$[ebp], 0
  00010	7c 09		 jl	 SHORT $LN3@GetOp1
  00012	81 7d 08 95 00
	00 00		 cmp	 DWORD PTR _n$[ebp], 149	; 00000095H
  00019	7e 04		 jle	 SHORT $LN2@GetOp1
$LN3@GetOp1:
  0001b	32 c0		 xor	 al, al
  0001d	eb 0b		 jmp	 SHORT $LN1@GetOp1
$LN2@GetOp1:

; 164  : 	return BagObject[n].m_op1;

  0001f	6b 45 08 06	 imul	 eax, DWORD PTR _n$[ebp], 6
  00023	8b 4d fc	 mov	 ecx, DWORD PTR _this$[ebp]
  00026	8a 44 01 07	 mov	 al, BYTE PTR [ecx+eax+7]
$LN1@GetOp1:

; 165  : }

  0002a	5f		 pop	 edi
  0002b	5e		 pop	 esi
  0002c	5b		 pop	 ebx
  0002d	8b e5		 mov	 esp, ebp
  0002f	5d		 pop	 ebp
  00030	c2 04 00	 ret	 4
?GetOp1@CItemBag@@QAEEH@Z ENDP				; CItemBag::GetOp1
_TEXT	ENDS
; Function compile flags: /Odtp /ZI
; File C:\Mu Online\Mu-GS-Webzen-MC-10093\GameServer\ItemBag.cpp
;	COMDAT ?GetLevel@CItemBag@@QAEEH@Z
_TEXT	SEGMENT
_this$ = -4						; size = 4
_n$ = 8							; size = 4
?GetLevel@CItemBag@@QAEEH@Z PROC			; CItemBag::GetLevel, COMDAT
; _this$ = ecx

; 156  : {

  00000	55		 push	 ebp
  00001	8b ec		 mov	 ebp, esp
  00003	83 ec 44	 sub	 esp, 68			; 00000044H
  00006	53		 push	 ebx
  00007	56		 push	 esi
  00008	57		 push	 edi
  00009	89 4d fc	 mov	 DWORD PTR _this$[ebp], ecx

; 157  : 	if( n < 0 || n > MAX_ITEMBAG-1 ) return 0;

  0000c	83 7d 08 00	 cmp	 DWORD PTR _n$[ebp], 0
  00010	7c 09		 jl	 SHORT $LN3@GetLevel
  00012	81 7d 08 95 00
	00 00		 cmp	 DWORD PTR _n$[ebp], 149	; 00000095H
  00019	7e 04		 jle	 SHORT $LN2@GetLevel
$LN3@GetLevel:
  0001b	32 c0		 xor	 al, al
  0001d	eb 0b		 jmp	 SHORT $LN1@GetLevel
$LN2@GetLevel:

; 158  : 	return BagObject[n].m_level;

  0001f	6b 45 08 06	 imul	 eax, DWORD PTR _n$[ebp], 6
  00023	8b 4d fc	 mov	 ecx, DWORD PTR _this$[ebp]
  00026	8a 44 01 06	 mov	 al, BYTE PTR [ecx+eax+6]
$LN1@GetLevel:

; 159  : }

  0002a	5f		 pop	 edi
  0002b	5e		 pop	 esi
  0002c	5b		 pop	 ebx
  0002d	8b e5		 mov	 esp, ebp
  0002f	5d		 pop	 ebp
  00030	c2 04 00	 ret	 4
?GetLevel@CItemBag@@QAEEH@Z ENDP			; CItemBag::GetLevel
_TEXT	ENDS
; Function compile flags: /Odtp /ZI
; File C:\Mu Online\Mu-GS-Webzen-MC-10093\GameServer\ItemBag.cpp
;	COMDAT ?GetIndex@CItemBag@@QAEEH@Z
_TEXT	SEGMENT
_this$ = -4						; size = 4
_n$ = 8							; size = 4
?GetIndex@CItemBag@@QAEEH@Z PROC			; CItemBag::GetIndex, COMDAT
; _this$ = ecx

; 150  : {

  00000	55		 push	 ebp
  00001	8b ec		 mov	 ebp, esp
  00003	83 ec 44	 sub	 esp, 68			; 00000044H
  00006	53		 push	 ebx
  00007	56		 push	 esi
  00008	57		 push	 edi
  00009	89 4d fc	 mov	 DWORD PTR _this$[ebp], ecx

; 151  : 	if( n < 0 || n > MAX_ITEMBAG-1 ) return 0;

  0000c	83 7d 08 00	 cmp	 DWORD PTR _n$[ebp], 0
  00010	7c 09		 jl	 SHORT $LN3@GetIndex
  00012	81 7d 08 95 00
	00 00		 cmp	 DWORD PTR _n$[ebp], 149	; 00000095H
  00019	7e 04		 jle	 SHORT $LN2@GetIndex
$LN3@GetIndex:
  0001b	32 c0		 xor	 al, al
  0001d	eb 0b		 jmp	 SHORT $LN1@GetIndex
$LN2@GetIndex:

; 152  : 	return BagObject[n].m_index;

  0001f	6b 45 08 06	 imul	 eax, DWORD PTR _n$[ebp], 6
  00023	8b 4d fc	 mov	 ecx, DWORD PTR _this$[ebp]
  00026	8a 44 01 05	 mov	 al, BYTE PTR [ecx+eax+5]
$LN1@GetIndex:

; 153  : }

  0002a	5f		 pop	 edi
  0002b	5e		 pop	 esi
  0002c	5b		 pop	 ebx
  0002d	8b e5		 mov	 esp, ebp
  0002f	5d		 pop	 ebp
  00030	c2 04 00	 ret	 4
?GetIndex@CItemBag@@QAEEH@Z ENDP			; CItemBag::GetIndex
_TEXT	ENDS
; Function compile flags: /Odtp /ZI
; File C:\Mu Online\Mu-GS-Webzen-MC-10093\GameServer\ItemBag.cpp
;	COMDAT ?GetType@CItemBag@@QAEEH@Z
_TEXT	SEGMENT
_this$ = -4						; size = 4
_n$ = 8							; size = 4
?GetType@CItemBag@@QAEEH@Z PROC				; CItemBag::GetType, COMDAT
; _this$ = ecx

; 143  : {

  00000	55		 push	 ebp
  00001	8b ec		 mov	 ebp, esp
  00003	83 ec 44	 sub	 esp, 68			; 00000044H
  00006	53		 push	 ebx
  00007	56		 push	 esi
  00008	57		 push	 edi
  00009	89 4d fc	 mov	 DWORD PTR _this$[ebp], ecx

; 144  : 	if( n < 0 || n > MAX_ITEMBAG-1 ) return 0;

  0000c	83 7d 08 00	 cmp	 DWORD PTR _n$[ebp], 0
  00010	7c 09		 jl	 SHORT $LN3@GetType
  00012	81 7d 08 95 00
	00 00		 cmp	 DWORD PTR _n$[ebp], 149	; 00000095H
  00019	7e 04		 jle	 SHORT $LN2@GetType
$LN3@GetType:
  0001b	32 c0		 xor	 al, al
  0001d	eb 0b		 jmp	 SHORT $LN1@GetType
$LN2@GetType:

; 145  : 	return BagObject[n].m_type;

  0001f	6b 45 08 06	 imul	 eax, DWORD PTR _n$[ebp], 6
  00023	8b 4d fc	 mov	 ecx, DWORD PTR _this$[ebp]
  00026	8a 44 01 04	 mov	 al, BYTE PTR [ecx+eax+4]
$LN1@GetType:

; 146  : 	
; 147  : }

  0002a	5f		 pop	 edi
  0002b	5e		 pop	 esi
  0002c	5b		 pop	 ebx
  0002d	8b e5		 mov	 esp, ebp
  0002f	5d		 pop	 ebp
  00030	c2 04 00	 ret	 4
?GetType@CItemBag@@QAEEH@Z ENDP				; CItemBag::GetType
_TEXT	ENDS
; Function compile flags: /Odtp /ZI
; File C:\Mu Online\Mu-GS-Webzen-MC-10093\GameServer\ItemBag.cpp
;	COMDAT ?LoadItem@CItemBag@@QAEXPAD@Z
_TEXT	SEGMENT
_n$ = -12						; size = 4
_Token$ = -8						; size = 4
_this$ = -4						; size = 4
_script_file$ = 8					; size = 4
?LoadItem@CItemBag@@QAEXPAD@Z PROC			; CItemBag::LoadItem, COMDAT
; _this$ = ecx

; 94   : {

  00000	55		 push	 ebp
  00001	8b ec		 mov	 ebp, esp
  00003	83 ec 4c	 sub	 esp, 76			; 0000004cH
  00006	53		 push	 ebx
  00007	56		 push	 esi
  00008	57		 push	 edi
  00009	89 4d fc	 mov	 DWORD PTR _this$[ebp], ecx

; 95   : 	if((SMDFile=fopen(script_file,"r")) == NULL)	

  0000c	68 00 00 00 00	 push	 OFFSET ??_C@_01KDCPPGHE@r@
  00011	8b 45 08	 mov	 eax, DWORD PTR _script_file$[ebp]
  00014	50		 push	 eax
  00015	e8 00 00 00 00	 call	 _fopen
  0001a	83 c4 08	 add	 esp, 8
  0001d	a3 00 00 00 00	 mov	 DWORD PTR ?SMDFile@@3PAU_iobuf@@A, eax
  00022	83 3d 00 00 00
	00 00		 cmp	 DWORD PTR ?SMDFile@@3PAU_iobuf@@A, 0
  00029	75 23		 jne	 SHORT $LN4@LoadItem

; 96   : 	{
; 97   : 		LogAdd(lMsg.Get(453), script_file);

  0002b	8b 45 08	 mov	 eax, DWORD PTR _script_file$[ebp]
  0002e	50		 push	 eax
  0002f	68 c5 01 00 00	 push	 453			; 000001c5H
  00034	b9 00 00 00 00	 mov	 ecx, OFFSET ?lMsg@@3VCMsg@@A ; lMsg
  00039	ff 15 00 00 00
	00		 call	 DWORD PTR __imp_?Get@CMsg@@QAEPADH@Z
  0003f	50		 push	 eax
  00040	ff 15 00 00 00
	00		 call	 DWORD PTR ?LogAdd@@3P6AXPADZZA ; LogAdd
  00046	83 c4 08	 add	 esp, 8

; 98   : 		return ;

  00049	e9 6a 01 00 00	 jmp	 $LN1@LoadItem
$LN4@LoadItem:

; 99   : 	}	
; 100  : 
; 101  : 	SMDToken Token;
; 102  : 	int n=0;

  0004e	c7 45 f4 00 00
	00 00		 mov	 DWORD PTR _n$[ebp], 0
$LN2@LoadItem:

; 103  : 	
; 104  : 	while( true )

  00055	b8 01 00 00 00	 mov	 eax, 1
  0005a	85 c0		 test	 eax, eax
  0005c	0f 84 2a 01 00
	00		 je	 $LN3@LoadItem

; 105  : 	{
; 106  : 		Token = (*GetToken)();

  00062	e8 00 00 00 00	 call	 ?GetToken@@YA?AW4SMDToken@@XZ ; GetToken
  00067	89 45 f8	 mov	 DWORD PTR _Token$[ebp], eax

; 107  : 		if(Token == END) break;

  0006a	83 7d f8 02	 cmp	 DWORD PTR _Token$[ebp], 2
  0006e	75 05		 jne	 SHORT $LN5@LoadItem
  00070	e9 17 01 00 00	 jmp	 $LN3@LoadItem
$LN5@LoadItem:

; 108  : 		if(Token == NUMBER)

  00075	83 7d f8 01	 cmp	 DWORD PTR _Token$[ebp], 1
  00079	0f 85 08 01 00
	00		 jne	 $LN9@LoadItem

; 109  : 		{
; 110  : 			n = BagObjectCount;

  0007f	8b 45 fc	 mov	 eax, DWORD PTR _this$[ebp]
  00082	8b 88 88 03 00
	00		 mov	 ecx, DWORD PTR [eax+904]
  00088	89 4d f4	 mov	 DWORD PTR _n$[ebp], ecx

; 111  : 			BagObject[n].m_type = (int)TokenNumber;

  0008b	f3 0f 2c 05 00
	00 00 00	 cvttss2si eax, DWORD PTR ?TokenNumber@@3MA
  00093	6b 4d f4 06	 imul	 ecx, DWORD PTR _n$[ebp], 6
  00097	8b 55 fc	 mov	 edx, DWORD PTR _this$[ebp]
  0009a	88 44 0a 04	 mov	 BYTE PTR [edx+ecx+4], al

; 112  : 			Token = (*GetToken)(); BagObject[n].m_index	= (int)TokenNumber;

  0009e	e8 00 00 00 00	 call	 ?GetToken@@YA?AW4SMDToken@@XZ ; GetToken
  000a3	89 45 f8	 mov	 DWORD PTR _Token$[ebp], eax
  000a6	f3 0f 2c 05 00
	00 00 00	 cvttss2si eax, DWORD PTR ?TokenNumber@@3MA
  000ae	6b 4d f4 06	 imul	 ecx, DWORD PTR _n$[ebp], 6
  000b2	8b 55 fc	 mov	 edx, DWORD PTR _this$[ebp]
  000b5	88 44 0a 05	 mov	 BYTE PTR [edx+ecx+5], al

; 113  : 			Token = (*GetToken)(); BagObject[n].m_level	= (int)TokenNumber;

  000b9	e8 00 00 00 00	 call	 ?GetToken@@YA?AW4SMDToken@@XZ ; GetToken
  000be	89 45 f8	 mov	 DWORD PTR _Token$[ebp], eax
  000c1	f3 0f 2c 05 00
	00 00 00	 cvttss2si eax, DWORD PTR ?TokenNumber@@3MA
  000c9	6b 4d f4 06	 imul	 ecx, DWORD PTR _n$[ebp], 6
  000cd	8b 55 fc	 mov	 edx, DWORD PTR _this$[ebp]
  000d0	88 44 0a 06	 mov	 BYTE PTR [edx+ecx+6], al

; 114  : 			Token = (*GetToken)(); BagObject[n].m_op1	= (int)TokenNumber;

  000d4	e8 00 00 00 00	 call	 ?GetToken@@YA?AW4SMDToken@@XZ ; GetToken
  000d9	89 45 f8	 mov	 DWORD PTR _Token$[ebp], eax
  000dc	f3 0f 2c 05 00
	00 00 00	 cvttss2si eax, DWORD PTR ?TokenNumber@@3MA
  000e4	6b 4d f4 06	 imul	 ecx, DWORD PTR _n$[ebp], 6
  000e8	8b 55 fc	 mov	 edx, DWORD PTR _this$[ebp]
  000eb	88 44 0a 07	 mov	 BYTE PTR [edx+ecx+7], al

; 115  : 			Token = (*GetToken)(); BagObject[n].m_op2	= (int)TokenNumber;

  000ef	e8 00 00 00 00	 call	 ?GetToken@@YA?AW4SMDToken@@XZ ; GetToken
  000f4	89 45 f8	 mov	 DWORD PTR _Token$[ebp], eax
  000f7	f3 0f 2c 05 00
	00 00 00	 cvttss2si eax, DWORD PTR ?TokenNumber@@3MA
  000ff	6b 4d f4 06	 imul	 ecx, DWORD PTR _n$[ebp], 6
  00103	8b 55 fc	 mov	 edx, DWORD PTR _this$[ebp]
  00106	88 44 0a 08	 mov	 BYTE PTR [edx+ecx+8], al

; 116  : 			Token = (*GetToken)(); BagObject[n].m_op3	= (int)TokenNumber;

  0010a	e8 00 00 00 00	 call	 ?GetToken@@YA?AW4SMDToken@@XZ ; GetToken
  0010f	89 45 f8	 mov	 DWORD PTR _Token$[ebp], eax
  00112	f3 0f 2c 05 00
	00 00 00	 cvttss2si eax, DWORD PTR ?TokenNumber@@3MA
  0011a	6b 4d f4 06	 imul	 ecx, DWORD PTR _n$[ebp], 6
  0011e	8b 55 fc	 mov	 edx, DWORD PTR _this$[ebp]
  00121	88 44 0a 09	 mov	 BYTE PTR [edx+ecx+9], al

; 117  : 			
; 118  : 			if( BagObject[n].m_op2 )

  00125	6b 45 f4 06	 imul	 eax, DWORD PTR _n$[ebp], 6
  00129	8b 4d fc	 mov	 ecx, DWORD PTR _this$[ebp]
  0012c	0f b6 54 01 08	 movzx	 edx, BYTE PTR [ecx+eax+8]
  00131	85 d2		 test	 edx, edx
  00133	74 17		 je	 SHORT $LN7@LoadItem

; 119  : 			{
; 120  : 				BagExItemCount++;

  00135	8b 45 fc	 mov	 eax, DWORD PTR _this$[ebp]
  00138	8b 88 90 03 00
	00		 mov	 ecx, DWORD PTR [eax+912]
  0013e	83 c1 01	 add	 ecx, 1
  00141	8b 55 fc	 mov	 edx, DWORD PTR _this$[ebp]
  00144	89 8a 90 03 00
	00		 mov	 DWORD PTR [edx+912], ecx

; 121  : 			}

  0014a	eb 15		 jmp	 SHORT $LN8@LoadItem
$LN7@LoadItem:

; 122  : 			else
; 123  : 			{
; 124  : 				BagNormalItemCount++;

  0014c	8b 45 fc	 mov	 eax, DWORD PTR _this$[ebp]
  0014f	8b 88 8c 03 00
	00		 mov	 ecx, DWORD PTR [eax+908]
  00155	83 c1 01	 add	 ecx, 1
  00158	8b 55 fc	 mov	 edx, DWORD PTR _this$[ebp]
  0015b	89 8a 8c 03 00
	00		 mov	 DWORD PTR [edx+908], ecx
$LN8@LoadItem:

; 125  : 			}
; 126  : 			//LogAdd("Item 추가 type:%d index:%d level:%d op1%d  op2:%d  op3:%d", BagObject[n].m_type, BagObject[n].m_index, BagObject[n].m_level, BagObject[n].m_op1, BagObject[n].m_op2,BagObject[n].m_op3);
; 127  : 			/*
; 128  : 			char msg[255];
; 129  : 			wsprintf(msg, "%d\t%d\t%d\t%d\t%d\t%d\n", BagObject[n].m_type, BagObject[n].m_index, BagObject[n].m_level, BagObject[n].m_op1, BagObject[n].m_op2,BagObject[n].m_op3);
; 130  : 			OutputDebugString(msg);			
; 131  : 			*/
; 132  : 			
; 133  : 			BagObjectCount++;

  00161	8b 45 fc	 mov	 eax, DWORD PTR _this$[ebp]
  00164	8b 88 88 03 00
	00		 mov	 ecx, DWORD PTR [eax+904]
  0016a	83 c1 01	 add	 ecx, 1
  0016d	8b 55 fc	 mov	 edx, DWORD PTR _this$[ebp]
  00170	89 8a 88 03 00
	00		 mov	 DWORD PTR [edx+904], ecx

; 134  : 			if( BagObjectCount > MAX_ITEMBAG-1 ) break;

  00176	8b 45 fc	 mov	 eax, DWORD PTR _this$[ebp]
  00179	81 b8 88 03 00
	00 95 00 00 00	 cmp	 DWORD PTR [eax+904], 149 ; 00000095H
  00183	7e 02		 jle	 SHORT $LN9@LoadItem
  00185	eb 05		 jmp	 SHORT $LN3@LoadItem
$LN9@LoadItem:

; 135  : 		}
; 136  : 	}

  00187	e9 c9 fe ff ff	 jmp	 $LN2@LoadItem
$LN3@LoadItem:

; 137  : 	fclose(SMDFile);

  0018c	a1 00 00 00 00	 mov	 eax, DWORD PTR ?SMDFile@@3PAU_iobuf@@A
  00191	50		 push	 eax
  00192	e8 00 00 00 00	 call	 _fclose
  00197	83 c4 04	 add	 esp, 4

; 138  : 	
; 139  : 	LogAdd(lMsg.Get(454), script_file);

  0019a	8b 45 08	 mov	 eax, DWORD PTR _script_file$[ebp]
  0019d	50		 push	 eax
  0019e	68 c6 01 00 00	 push	 454			; 000001c6H
  001a3	b9 00 00 00 00	 mov	 ecx, OFFSET ?lMsg@@3VCMsg@@A ; lMsg
  001a8	ff 15 00 00 00
	00		 call	 DWORD PTR __imp_?Get@CMsg@@QAEPADH@Z
  001ae	50		 push	 eax
  001af	ff 15 00 00 00
	00		 call	 DWORD PTR ?LogAdd@@3P6AXPADZZA ; LogAdd
  001b5	83 c4 08	 add	 esp, 8
$LN1@LoadItem:

; 140  : }

  001b8	5f		 pop	 edi
  001b9	5e		 pop	 esi
  001ba	5b		 pop	 ebx
  001bb	8b e5		 mov	 esp, ebp
  001bd	5d		 pop	 ebp
  001be	c2 04 00	 ret	 4
?LoadItem@CItemBag@@QAEXPAD@Z ENDP			; CItemBag::LoadItem
_TEXT	ENDS
; Function compile flags: /Odtp /ZI
; File C:\Mu Online\Mu-GS-Webzen-MC-10093\GameServer\ItemBag.cpp
;	COMDAT ?Init@CItemBag@@QAEXPAD@Z
_TEXT	SEGMENT
_this$ = -4						; size = 4
_name$ = 8						; size = 4
?Init@CItemBag@@QAEXPAD@Z PROC				; CItemBag::Init, COMDAT
; _this$ = ecx

; 36   : {	

  00000	55		 push	 ebp
  00001	8b ec		 mov	 ebp, esp
  00003	83 ec 44	 sub	 esp, 68			; 00000044H
  00006	53		 push	 ebx
  00007	56		 push	 esi
  00008	57		 push	 edi
  00009	89 4d fc	 mov	 DWORD PTR _this$[ebp], ecx

; 37   : 	BagObjectCount = 0;

  0000c	8b 45 fc	 mov	 eax, DWORD PTR _this$[ebp]
  0000f	c7 80 88 03 00
	00 00 00 00 00	 mov	 DWORD PTR [eax+904], 0

; 38   : 
; 39   : 	BagNormalItemCount = 0;

  00019	8b 45 fc	 mov	 eax, DWORD PTR _this$[ebp]
  0001c	c7 80 8c 03 00
	00 00 00 00 00	 mov	 DWORD PTR [eax+908], 0

; 40   : 	BagExItemCount = 0;

  00026	8b 45 fc	 mov	 eax, DWORD PTR _this$[ebp]
  00029	c7 80 90 03 00
	00 00 00 00 00	 mov	 DWORD PTR [eax+912], 0

; 41   : 	
; 42   : #ifdef SCRIPT_DECODE_WORK
; 43   : 	LoadItemDecode(gDirPath.GetNewPath(name));	
; 44   : #else
; 45   : 	LoadItem(gDirPath.GetNewPath(name));	

  00033	8b 45 08	 mov	 eax, DWORD PTR _name$[ebp]
  00036	50		 push	 eax
  00037	b9 00 00 00 00	 mov	 ecx, OFFSET ?gDirPath@@3VCDirPath@@A ; gDirPath
  0003c	e8 00 00 00 00	 call	 ?GetNewPath@CDirPath@@QAEPADPAD@Z ; CDirPath::GetNewPath
  00041	50		 push	 eax
  00042	8b 4d fc	 mov	 ecx, DWORD PTR _this$[ebp]
  00045	e8 00 00 00 00	 call	 ?LoadItem@CItemBag@@QAEXPAD@Z ; CItemBag::LoadItem

; 46   : #endif
; 47   : }

  0004a	5f		 pop	 edi
  0004b	5e		 pop	 esi
  0004c	5b		 pop	 ebx
  0004d	8b e5		 mov	 esp, ebp
  0004f	5d		 pop	 ebp
  00050	c2 04 00	 ret	 4
?Init@CItemBag@@QAEXPAD@Z ENDP				; CItemBag::Init
_TEXT	ENDS
; Function compile flags: /Odtp /ZI
; File C:\Mu Online\Mu-GS-Webzen-MC-10093\GameServer\ItemBag.cpp
;	COMDAT ??1CItemBag@@UAE@XZ
_TEXT	SEGMENT
_this$ = -4						; size = 4
??1CItemBag@@UAE@XZ PROC				; CItemBag::~CItemBag, COMDAT
; _this$ = ecx

; 31   : {

  00000	55		 push	 ebp
  00001	8b ec		 mov	 ebp, esp
  00003	83 ec 44	 sub	 esp, 68			; 00000044H
  00006	53		 push	 ebx
  00007	56		 push	 esi
  00008	57		 push	 edi
  00009	89 4d fc	 mov	 DWORD PTR _this$[ebp], ecx
  0000c	8b 45 fc	 mov	 eax, DWORD PTR _this$[ebp]
  0000f	c7 00 00 00 00
	00		 mov	 DWORD PTR [eax], OFFSET ??_7CItemBag@@6B@

; 32   : 
; 33   : }

  00015	5f		 pop	 edi
  00016	5e		 pop	 esi
  00017	5b		 pop	 ebx
  00018	8b e5		 mov	 esp, ebp
  0001a	5d		 pop	 ebp
  0001b	c3		 ret	 0
??1CItemBag@@UAE@XZ ENDP				; CItemBag::~CItemBag
_TEXT	ENDS
; Function compile flags: /Odtp /ZI
; File C:\Mu Online\Mu-GS-Webzen-MC-10093\GameServer\ItemBag.cpp
;	COMDAT ??0CItemBag@@QAE@XZ
_TEXT	SEGMENT
_this$ = -4						; size = 4
??0CItemBag@@QAE@XZ PROC				; CItemBag::CItemBag, COMDAT
; _this$ = ecx

; 26   : {

  00000	55		 push	 ebp
  00001	8b ec		 mov	 ebp, esp
  00003	83 ec 44	 sub	 esp, 68			; 00000044H
  00006	53		 push	 ebx
  00007	56		 push	 esi
  00008	57		 push	 edi
  00009	89 4d fc	 mov	 DWORD PTR _this$[ebp], ecx
  0000c	8b 45 fc	 mov	 eax, DWORD PTR _this$[ebp]
  0000f	c7 00 00 00 00
	00		 mov	 DWORD PTR [eax], OFFSET ??_7CItemBag@@6B@
  00015	68 00 00 00 00	 push	 OFFSET ??0CItemBagAttr@@QAE@XZ ; CItemBagAttr::CItemBagAttr
  0001a	68 96 00 00 00	 push	 150			; 00000096H
  0001f	6a 06		 push	 6
  00021	8b 45 fc	 mov	 eax, DWORD PTR _this$[ebp]
  00024	83 c0 04	 add	 eax, 4
  00027	50		 push	 eax
  00028	e8 00 00 00 00	 call	 ??_H@YGXPAXIIP6EPAX0@Z@Z

; 27   : 	//Init();
; 28   : }

  0002d	8b 45 fc	 mov	 eax, DWORD PTR _this$[ebp]
  00030	5f		 pop	 edi
  00031	5e		 pop	 esi
  00032	5b		 pop	 ebx
  00033	8b e5		 mov	 esp, ebp
  00035	5d		 pop	 ebp
  00036	c3		 ret	 0
??0CItemBag@@QAE@XZ ENDP				; CItemBag::CItemBag
_TEXT	ENDS
; Function compile flags: /Odtp /ZI
; File C:\Mu Online\Mu-GS-Webzen-MC-10093\GameServer\ItemBag.h
;	COMDAT ??0CItemBagAttr@@QAE@XZ
_TEXT	SEGMENT
_this$ = -4						; size = 4
??0CItemBagAttr@@QAE@XZ PROC				; CItemBagAttr::CItemBagAttr, COMDAT
; _this$ = ecx

; 28   : 	CItemBagAttr()

  00000	55		 push	 ebp
  00001	8b ec		 mov	 ebp, esp
  00003	83 ec 44	 sub	 esp, 68			; 00000044H
  00006	53		 push	 ebx
  00007	56		 push	 esi
  00008	57		 push	 edi
  00009	89 4d fc	 mov	 DWORD PTR _this$[ebp], ecx

; 29   : 	{
; 30   : 		m_type  =0;

  0000c	8b 45 fc	 mov	 eax, DWORD PTR _this$[ebp]
  0000f	c6 00 00	 mov	 BYTE PTR [eax], 0

; 31   : 		m_index =0;

  00012	8b 45 fc	 mov	 eax, DWORD PTR _this$[ebp]
  00015	c6 40 01 00	 mov	 BYTE PTR [eax+1], 0

; 32   : 		m_level =0;

  00019	8b 45 fc	 mov	 eax, DWORD PTR _this$[ebp]
  0001c	c6 40 02 00	 mov	 BYTE PTR [eax+2], 0

; 33   : 		m_op1   =0;

  00020	8b 45 fc	 mov	 eax, DWORD PTR _this$[ebp]
  00023	c6 40 03 00	 mov	 BYTE PTR [eax+3], 0

; 34   : 		m_op2   =0;

  00027	8b 45 fc	 mov	 eax, DWORD PTR _this$[ebp]
  0002a	c6 40 04 00	 mov	 BYTE PTR [eax+4], 0

; 35   : 		m_op3   =0;

  0002e	8b 45 fc	 mov	 eax, DWORD PTR _this$[ebp]
  00031	c6 40 05 00	 mov	 BYTE PTR [eax+5], 0

; 36   : 	}

  00035	8b 45 fc	 mov	 eax, DWORD PTR _this$[ebp]
  00038	5f		 pop	 edi
  00039	5e		 pop	 esi
  0003a	5b		 pop	 ebx
  0003b	8b e5		 mov	 esp, ebp
  0003d	5d		 pop	 ebp
  0003e	c3		 ret	 0
??0CItemBagAttr@@QAE@XZ ENDP				; CItemBagAttr::CItemBagAttr
_TEXT	ENDS
; Function compile flags: /Odtp /ZI
; File C:\Mu Online\Mu-GS-Webzen-MC-10093\Include\ReadScript.h
;	COMDAT ?GetToken@@YA?AW4SMDToken@@XZ
_TEXT	SEGMENT
tv93 = -184						; size = 4
$T1 = -180						; size = 4
_TempString$ = -112					; size = 100
_p$ = -12						; size = 4
_ch$ = -5						; size = 1
__$ArrayPad$ = -4					; size = 4
?GetToken@@YA?AW4SMDToken@@XZ PROC			; GetToken, COMDAT

; 25   : {

  00000	55		 push	 ebp
  00001	8b ec		 mov	 ebp, esp
  00003	81 ec b8 00 00
	00		 sub	 esp, 184		; 000000b8H
  00009	a1 00 00 00 00	 mov	 eax, DWORD PTR ___security_cookie
  0000e	33 c5		 xor	 eax, ebp
  00010	89 45 fc	 mov	 DWORD PTR __$ArrayPad$[ebp], eax
  00013	53		 push	 ebx
  00014	56		 push	 esi
  00015	57		 push	 edi

; 26   : 	unsigned char ch;
; 27   : 	TokenString[0] = '\0';

  00016	b8 01 00 00 00	 mov	 eax, 1
  0001b	6b c8 00	 imul	 ecx, eax, 0
  0001e	89 8d 4c ff ff
	ff		 mov	 DWORD PTR $T1[ebp], ecx
  00024	83 bd 4c ff ff
	ff 64		 cmp	 DWORD PTR $T1[ebp], 100	; 00000064H
  0002b	73 02		 jae	 SHORT $LN31@GetToken
  0002d	eb 05		 jmp	 SHORT $LN32@GetToken
$LN31@GetToken:
  0002f	e8 00 00 00 00	 call	 ___report_rangecheckfailure
$LN32@GetToken:
  00034	8b 95 4c ff ff
	ff		 mov	 edx, DWORD PTR $T1[ebp]
  0003a	c6 82 00 00 00
	00 00		 mov	 BYTE PTR ?TokenString@@3PADA[edx], 0
$LN4@GetToken:

; 28   : 	do
; 29   : 	{
; 30   : 		if ( (ch =(unsigned char) fgetc(SMDFile)) == (BYTE)EOF) return END;

  00041	a1 00 00 00 00	 mov	 eax, DWORD PTR ?SMDFile@@3PAU_iobuf@@A
  00046	50		 push	 eax
  00047	e8 00 00 00 00	 call	 _fgetc
  0004c	83 c4 04	 add	 esp, 4
  0004f	88 45 fb	 mov	 BYTE PTR _ch$[ebp], al
  00052	0f b6 4d fb	 movzx	 ecx, BYTE PTR _ch$[ebp]
  00056	81 f9 ff 00 00
	00		 cmp	 ecx, 255		; 000000ffH
  0005c	75 0a		 jne	 SHORT $LN15@GetToken
  0005e	b8 02 00 00 00	 mov	 eax, 2
  00063	e9 d9 02 00 00	 jmp	 $LN7@GetToken
$LN15@GetToken:

; 31   : 		if (ch=='/' && (ch =(unsigned char) fgetc(SMDFile) )=='/')	

  00068	0f b6 45 fb	 movzx	 eax, BYTE PTR _ch$[ebp]
  0006c	83 f8 2f	 cmp	 eax, 47			; 0000002fH
  0006f	75 56		 jne	 SHORT $LN17@GetToken
  00071	a1 00 00 00 00	 mov	 eax, DWORD PTR ?SMDFile@@3PAU_iobuf@@A
  00076	50		 push	 eax
  00077	e8 00 00 00 00	 call	 _fgetc
  0007c	83 c4 04	 add	 esp, 4
  0007f	88 45 fb	 mov	 BYTE PTR _ch$[ebp], al
  00082	0f b6 4d fb	 movzx	 ecx, BYTE PTR _ch$[ebp]
  00086	83 f9 2f	 cmp	 ecx, 47			; 0000002fH
  00089	75 3c		 jne	 SHORT $LN17@GetToken
$LN5@GetToken:

; 32   : 		{
; 33   : 			while((ch != '\n') && (ch != (BYTE)EOF)) {			// 2003.09.02 H.J.I 수정

  0008b	0f b6 45 fb	 movzx	 eax, BYTE PTR _ch$[ebp]
  0008f	83 f8 0a	 cmp	 eax, 10			; 0000000aH
  00092	74 1e		 je	 SHORT $LN6@GetToken
  00094	0f b6 45 fb	 movzx	 eax, BYTE PTR _ch$[ebp]
  00098	3d ff 00 00 00	 cmp	 eax, 255		; 000000ffH
  0009d	74 13		 je	 SHORT $LN6@GetToken

; 34   : 				ch = (unsigned char) fgetc( SMDFile);

  0009f	a1 00 00 00 00	 mov	 eax, DWORD PTR ?SMDFile@@3PAU_iobuf@@A
  000a4	50		 push	 eax
  000a5	e8 00 00 00 00	 call	 _fgetc
  000aa	83 c4 04	 add	 esp, 4
  000ad	88 45 fb	 mov	 BYTE PTR _ch$[ebp], al

; 35   : 			}

  000b0	eb d9		 jmp	 SHORT $LN5@GetToken
$LN6@GetToken:

; 36   : 
; 37   : 			if (ch == (BYTE)EOF)

  000b2	0f b6 45 fb	 movzx	 eax, BYTE PTR _ch$[ebp]
  000b6	3d ff 00 00 00	 cmp	 eax, 255		; 000000ffH
  000bb	75 0a		 jne	 SHORT $LN17@GetToken

; 38   : 				return END;

  000bd	b8 02 00 00 00	 mov	 eax, 2
  000c2	e9 7a 02 00 00	 jmp	 $LN7@GetToken
$LN17@GetToken:

; 39   : 		}
; 40   : 	} while(  isspace(ch) );

  000c7	0f b6 45 fb	 movzx	 eax, BYTE PTR _ch$[ebp]
  000cb	50		 push	 eax
  000cc	e8 00 00 00 00	 call	 _isspace
  000d1	83 c4 04	 add	 esp, 4
  000d4	85 c0		 test	 eax, eax
  000d6	0f 85 65 ff ff
	ff		 jne	 $LN4@GetToken

; 41   : 	
; 42   : 	char *p, TempString[100];
; 43   : 	switch(ch)

  000dc	0f b6 45 fb	 movzx	 eax, BYTE PTR _ch$[ebp]
  000e0	89 85 48 ff ff
	ff		 mov	 DWORD PTR tv93[ebp], eax
  000e6	8b 8d 48 ff ff
	ff		 mov	 ecx, DWORD PTR tv93[ebp]
  000ec	83 e9 22	 sub	 ecx, 34			; 00000022H
  000ef	89 8d 48 ff ff
	ff		 mov	 DWORD PTR tv93[ebp], ecx
  000f5	83 bd 48 ff ff
	ff 5b		 cmp	 DWORD PTR tv93[ebp], 91	; 0000005bH
  000fc	0f 87 86 01 00
	00		 ja	 $LN27@GetToken
  00102	8b 95 48 ff ff
	ff		 mov	 edx, DWORD PTR tv93[ebp]
  00108	0f b6 82 00 00
	00 00		 movzx	 eax, BYTE PTR $LN33@GetToken[edx]
  0010f	ff 24 85 00 00
	00 00		 jmp	 DWORD PTR $LN34@GetToken[eax*4]
$LN18@GetToken:

; 44   : 	{	
; 45   : 	case '#':
; 46   : 		return CurrentToken = COMMAND;

  00116	c7 05 00 00 00
	00 23 00 00 00	 mov	 DWORD PTR ?CurrentToken@@3W4SMDToken@@A, 35 ; 00000023H
  00120	a1 00 00 00 00	 mov	 eax, DWORD PTR ?CurrentToken@@3W4SMDToken@@A
  00125	e9 17 02 00 00	 jmp	 $LN7@GetToken
$LN19@GetToken:

; 47   : 	case ';':
; 48   : 		return CurrentToken = SEMICOLON;

  0012a	c7 05 00 00 00
	00 3b 00 00 00	 mov	 DWORD PTR ?CurrentToken@@3W4SMDToken@@A, 59 ; 0000003bH
  00134	a1 00 00 00 00	 mov	 eax, DWORD PTR ?CurrentToken@@3W4SMDToken@@A
  00139	e9 03 02 00 00	 jmp	 $LN7@GetToken
$LN20@GetToken:

; 49   : 	case ',':
; 50   : 		return CurrentToken = COMMA;

  0013e	c7 05 00 00 00
	00 2c 00 00 00	 mov	 DWORD PTR ?CurrentToken@@3W4SMDToken@@A, 44 ; 0000002cH
  00148	a1 00 00 00 00	 mov	 eax, DWORD PTR ?CurrentToken@@3W4SMDToken@@A
  0014d	e9 ef 01 00 00	 jmp	 $LN7@GetToken
$LN21@GetToken:

; 51   : 	case '{':
; 52   : 		return CurrentToken = LP;

  00152	c7 05 00 00 00
	00 7b 00 00 00	 mov	 DWORD PTR ?CurrentToken@@3W4SMDToken@@A, 123 ; 0000007bH
  0015c	a1 00 00 00 00	 mov	 eax, DWORD PTR ?CurrentToken@@3W4SMDToken@@A
  00161	e9 db 01 00 00	 jmp	 $LN7@GetToken
$LN22@GetToken:

; 53   : 	case '}':
; 54   : 		return CurrentToken = RP;

  00166	c7 05 00 00 00
	00 7d 00 00 00	 mov	 DWORD PTR ?CurrentToken@@3W4SMDToken@@A, 125 ; 0000007dH
  00170	a1 00 00 00 00	 mov	 eax, DWORD PTR ?CurrentToken@@3W4SMDToken@@A
  00175	e9 c7 01 00 00	 jmp	 $LN7@GetToken
$LN23@GetToken:

; 55   : 	case '0':	case '1':	case '2':	case '3':	case '4':
; 56   : 	case '5':	case '6':	case '7':	case '8':	case '9':
; 57   : 	case '.':	case '-':
; 58   : 		ungetc(ch,SMDFile);

  0017a	a1 00 00 00 00	 mov	 eax, DWORD PTR ?SMDFile@@3PAU_iobuf@@A
  0017f	50		 push	 eax
  00180	0f b6 4d fb	 movzx	 ecx, BYTE PTR _ch$[ebp]
  00184	51		 push	 ecx
  00185	e8 00 00 00 00	 call	 _ungetc
  0018a	83 c4 08	 add	 esp, 8

; 59   : 		p = TempString;

  0018d	8d 45 90	 lea	 eax, DWORD PTR _TempString$[ebp]
  00190	89 45 f4	 mov	 DWORD PTR _p$[ebp], eax
$LN9@GetToken:

; 60   : 		while ( (  (ch = getc(SMDFile) ) !=(BYTE)EOF) && (ch=='.' || isdigit(ch) || ch=='-') )

  00193	a1 00 00 00 00	 mov	 eax, DWORD PTR ?SMDFile@@3PAU_iobuf@@A
  00198	50		 push	 eax
  00199	e8 00 00 00 00	 call	 _getc
  0019e	83 c4 04	 add	 esp, 4
  001a1	88 45 fb	 mov	 BYTE PTR _ch$[ebp], al
  001a4	0f b6 4d fb	 movzx	 ecx, BYTE PTR _ch$[ebp]
  001a8	81 f9 ff 00 00
	00		 cmp	 ecx, 255		; 000000ffH
  001ae	74 36		 je	 SHORT $LN10@GetToken
  001b0	0f b6 45 fb	 movzx	 eax, BYTE PTR _ch$[ebp]
  001b4	83 f8 2e	 cmp	 eax, 46			; 0000002eH
  001b7	74 1a		 je	 SHORT $LN24@GetToken
  001b9	0f b6 45 fb	 movzx	 eax, BYTE PTR _ch$[ebp]
  001bd	50		 push	 eax
  001be	e8 00 00 00 00	 call	 _isdigit
  001c3	83 c4 04	 add	 esp, 4
  001c6	85 c0		 test	 eax, eax
  001c8	75 09		 jne	 SHORT $LN24@GetToken
  001ca	0f b6 45 fb	 movzx	 eax, BYTE PTR _ch$[ebp]
  001ce	83 f8 2d	 cmp	 eax, 45			; 0000002dH
  001d1	75 13		 jne	 SHORT $LN10@GetToken
$LN24@GetToken:

; 61   : 			*p++ = ch;

  001d3	8b 45 f4	 mov	 eax, DWORD PTR _p$[ebp]
  001d6	8a 4d fb	 mov	 cl, BYTE PTR _ch$[ebp]
  001d9	88 08		 mov	 BYTE PTR [eax], cl
  001db	8b 55 f4	 mov	 edx, DWORD PTR _p$[ebp]
  001de	83 c2 01	 add	 edx, 1
  001e1	89 55 f4	 mov	 DWORD PTR _p$[ebp], edx
  001e4	eb ad		 jmp	 SHORT $LN9@GetToken
$LN10@GetToken:

; 62   : 		*p = 0;

  001e6	8b 45 f4	 mov	 eax, DWORD PTR _p$[ebp]
  001e9	c6 00 00	 mov	 BYTE PTR [eax], 0

; 63   : 		TokenNumber = (float)atof(TempString);

  001ec	8d 45 90	 lea	 eax, DWORD PTR _TempString$[ebp]
  001ef	50		 push	 eax
  001f0	e8 00 00 00 00	 call	 _atof
  001f5	83 c4 04	 add	 esp, 4
  001f8	d9 1d 00 00 00
	00		 fstp	 DWORD PTR ?TokenNumber@@3MA

; 64   : 		//			sscanf(TempString," %f ",&TokenNumber);
; 65   : 		return CurrentToken = NUMBER;

  001fe	c7 05 00 00 00
	00 01 00 00 00	 mov	 DWORD PTR ?CurrentToken@@3W4SMDToken@@A, 1
  00208	a1 00 00 00 00	 mov	 eax, DWORD PTR ?CurrentToken@@3W4SMDToken@@A
  0020d	e9 2f 01 00 00	 jmp	 $LN7@GetToken
$LN25@GetToken:

; 66   : 	case '"':
; 67   : 		p = TokenString;

  00212	c7 45 f4 00 00
	00 00		 mov	 DWORD PTR _p$[ebp], OFFSET ?TokenString@@3PADA
$LN11@GetToken:

; 68   : 		while ( (  (ch = getc(SMDFile) ) !=(BYTE)EOF) && (ch!='"'))// || isalnum(ch)) )

  00219	a1 00 00 00 00	 mov	 eax, DWORD PTR ?SMDFile@@3PAU_iobuf@@A
  0021e	50		 push	 eax
  0021f	e8 00 00 00 00	 call	 _getc
  00224	83 c4 04	 add	 esp, 4
  00227	88 45 fb	 mov	 BYTE PTR _ch$[ebp], al
  0022a	0f b6 4d fb	 movzx	 ecx, BYTE PTR _ch$[ebp]
  0022e	81 f9 ff 00 00
	00		 cmp	 ecx, 255		; 000000ffH
  00234	74 1c		 je	 SHORT $LN12@GetToken
  00236	0f b6 45 fb	 movzx	 eax, BYTE PTR _ch$[ebp]
  0023a	83 f8 22	 cmp	 eax, 34			; 00000022H
  0023d	74 13		 je	 SHORT $LN12@GetToken

; 69   : 			*p++ = ch;

  0023f	8b 45 f4	 mov	 eax, DWORD PTR _p$[ebp]
  00242	8a 4d fb	 mov	 cl, BYTE PTR _ch$[ebp]
  00245	88 08		 mov	 BYTE PTR [eax], cl
  00247	8b 55 f4	 mov	 edx, DWORD PTR _p$[ebp]
  0024a	83 c2 01	 add	 edx, 1
  0024d	89 55 f4	 mov	 DWORD PTR _p$[ebp], edx
  00250	eb c7		 jmp	 SHORT $LN11@GetToken
$LN12@GetToken:

; 70   : 		if (ch!='"')

  00252	0f b6 45 fb	 movzx	 eax, BYTE PTR _ch$[ebp]
  00256	83 f8 22	 cmp	 eax, 34			; 00000022H
  00259	74 13		 je	 SHORT $LN26@GetToken

; 71   : 			ungetc(ch,SMDFile);

  0025b	a1 00 00 00 00	 mov	 eax, DWORD PTR ?SMDFile@@3PAU_iobuf@@A
  00260	50		 push	 eax
  00261	0f b6 4d fb	 movzx	 ecx, BYTE PTR _ch$[ebp]
  00265	51		 push	 ecx
  00266	e8 00 00 00 00	 call	 _ungetc
  0026b	83 c4 08	 add	 esp, 8
$LN26@GetToken:

; 72   : 		*p = 0;

  0026e	8b 45 f4	 mov	 eax, DWORD PTR _p$[ebp]
  00271	c6 00 00	 mov	 BYTE PTR [eax], 0

; 73   : 		return CurrentToken = NAME;

  00274	c7 05 00 00 00
	00 00 00 00 00	 mov	 DWORD PTR ?CurrentToken@@3W4SMDToken@@A, 0
  0027e	a1 00 00 00 00	 mov	 eax, DWORD PTR ?CurrentToken@@3W4SMDToken@@A
  00283	e9 b9 00 00 00	 jmp	 $LN7@GetToken
$LN27@GetToken:

; 74   : 	default:
; 75   : 		if (isalpha(ch))	

  00288	0f b6 45 fb	 movzx	 eax, BYTE PTR _ch$[ebp]
  0028c	50		 push	 eax
  0028d	e8 00 00 00 00	 call	 _isalpha
  00292	83 c4 04	 add	 esp, 4
  00295	85 c0		 test	 eax, eax
  00297	0f 84 95 00 00
	00		 je	 $LN28@GetToken

; 76   : 		{
; 77   : 			p = TokenString;

  0029d	c7 45 f4 00 00
	00 00		 mov	 DWORD PTR _p$[ebp], OFFSET ?TokenString@@3PADA

; 78   : 			*p++ = ch;

  002a4	8b 45 f4	 mov	 eax, DWORD PTR _p$[ebp]
  002a7	8a 4d fb	 mov	 cl, BYTE PTR _ch$[ebp]
  002aa	88 08		 mov	 BYTE PTR [eax], cl
  002ac	8b 55 f4	 mov	 edx, DWORD PTR _p$[ebp]
  002af	83 c2 01	 add	 edx, 1
  002b2	89 55 f4	 mov	 DWORD PTR _p$[ebp], edx
$LN13@GetToken:

; 79   : 			while ( (  (ch = getc(SMDFile) ) !=(BYTE)EOF) && (ch=='.' || ch=='_' || isalnum(ch)) )

  002b5	a1 00 00 00 00	 mov	 eax, DWORD PTR ?SMDFile@@3PAU_iobuf@@A
  002ba	50		 push	 eax
  002bb	e8 00 00 00 00	 call	 _getc
  002c0	83 c4 04	 add	 esp, 4
  002c3	88 45 fb	 mov	 BYTE PTR _ch$[ebp], al
  002c6	0f b6 4d fb	 movzx	 ecx, BYTE PTR _ch$[ebp]
  002ca	81 f9 ff 00 00
	00		 cmp	 ecx, 255		; 000000ffH
  002d0	74 36		 je	 SHORT $LN14@GetToken
  002d2	0f b6 45 fb	 movzx	 eax, BYTE PTR _ch$[ebp]
  002d6	83 f8 2e	 cmp	 eax, 46			; 0000002eH
  002d9	74 1a		 je	 SHORT $LN29@GetToken
  002db	0f b6 45 fb	 movzx	 eax, BYTE PTR _ch$[ebp]
  002df	83 f8 5f	 cmp	 eax, 95			; 0000005fH
  002e2	74 11		 je	 SHORT $LN29@GetToken
  002e4	0f b6 45 fb	 movzx	 eax, BYTE PTR _ch$[ebp]
  002e8	50		 push	 eax
  002e9	e8 00 00 00 00	 call	 _isalnum
  002ee	83 c4 04	 add	 esp, 4
  002f1	85 c0		 test	 eax, eax
  002f3	74 13		 je	 SHORT $LN14@GetToken
$LN29@GetToken:

; 80   : 				*p++ = ch;

  002f5	8b 45 f4	 mov	 eax, DWORD PTR _p$[ebp]
  002f8	8a 4d fb	 mov	 cl, BYTE PTR _ch$[ebp]
  002fb	88 08		 mov	 BYTE PTR [eax], cl
  002fd	8b 55 f4	 mov	 edx, DWORD PTR _p$[ebp]
  00300	83 c2 01	 add	 edx, 1
  00303	89 55 f4	 mov	 DWORD PTR _p$[ebp], edx
  00306	eb ad		 jmp	 SHORT $LN13@GetToken
$LN14@GetToken:

; 81   : 			ungetc(ch,SMDFile);

  00308	a1 00 00 00 00	 mov	 eax, DWORD PTR ?SMDFile@@3PAU_iobuf@@A
  0030d	50		 push	 eax
  0030e	0f b6 4d fb	 movzx	 ecx, BYTE PTR _ch$[ebp]
  00312	51		 push	 ecx
  00313	e8 00 00 00 00	 call	 _ungetc
  00318	83 c4 08	 add	 esp, 8

; 82   : 			*p = 0;

  0031b	8b 45 f4	 mov	 eax, DWORD PTR _p$[ebp]
  0031e	c6 00 00	 mov	 BYTE PTR [eax], 0

; 83   : 			return CurrentToken = NAME;

  00321	c7 05 00 00 00
	00 00 00 00 00	 mov	 DWORD PTR ?CurrentToken@@3W4SMDToken@@A, 0
  0032b	a1 00 00 00 00	 mov	 eax, DWORD PTR ?CurrentToken@@3W4SMDToken@@A
  00330	eb 0f		 jmp	 SHORT $LN7@GetToken
$LN28@GetToken:

; 84   : 		}
; 85   : 		return CurrentToken = SMD_ERROR;

  00332	c7 05 00 00 00
	00 3c 00 00 00	 mov	 DWORD PTR ?CurrentToken@@3W4SMDToken@@A, 60 ; 0000003cH
  0033c	a1 00 00 00 00	 mov	 eax, DWORD PTR ?CurrentToken@@3W4SMDToken@@A
$LN7@GetToken:

; 86   : 	}
; 87   : }

  00341	5f		 pop	 edi
  00342	5e		 pop	 esi
  00343	5b		 pop	 ebx
  00344	8b 4d fc	 mov	 ecx, DWORD PTR __$ArrayPad$[ebp]
  00347	33 cd		 xor	 ecx, ebp
  00349	e8 00 00 00 00	 call	 @__security_check_cookie@4
  0034e	8b e5		 mov	 esp, ebp
  00350	5d		 pop	 ebp
  00351	c3		 ret	 0
  00352	66 90		 npad	 2
$LN34@GetToken:
  00354	00 00 00 00	 DD	 $LN25@GetToken
  00358	00 00 00 00	 DD	 $LN18@GetToken
  0035c	00 00 00 00	 DD	 $LN20@GetToken
  00360	00 00 00 00	 DD	 $LN23@GetToken
  00364	00 00 00 00	 DD	 $LN19@GetToken
  00368	00 00 00 00	 DD	 $LN21@GetToken
  0036c	00 00 00 00	 DD	 $LN22@GetToken
  00370	00 00 00 00	 DD	 $LN27@GetToken
$LN33@GetToken:
  00374	00		 DB	 0
  00375	01		 DB	 1
  00376	07		 DB	 7
  00377	07		 DB	 7
  00378	07		 DB	 7
  00379	07		 DB	 7
  0037a	07		 DB	 7
  0037b	07		 DB	 7
  0037c	07		 DB	 7
  0037d	07		 DB	 7
  0037e	02		 DB	 2
  0037f	03		 DB	 3
  00380	03		 DB	 3
  00381	07		 DB	 7
  00382	03		 DB	 3
  00383	03		 DB	 3
  00384	03		 DB	 3
  00385	03		 DB	 3
  00386	03		 DB	 3
  00387	03		 DB	 3
  00388	03		 DB	 3
  00389	03		 DB	 3
  0038a	03		 DB	 3
  0038b	03		 DB	 3
  0038c	07		 DB	 7
  0038d	04		 DB	 4
  0038e	07		 DB	 7
  0038f	07		 DB	 7
  00390	07		 DB	 7
  00391	07		 DB	 7
  00392	07		 DB	 7
  00393	07		 DB	 7
  00394	07		 DB	 7
  00395	07		 DB	 7
  00396	07		 DB	 7
  00397	07		 DB	 7
  00398	07		 DB	 7
  00399	07		 DB	 7
  0039a	07		 DB	 7
  0039b	07		 DB	 7
  0039c	07		 DB	 7
  0039d	07		 DB	 7
  0039e	07		 DB	 7
  0039f	07		 DB	 7
  003a0	07		 DB	 7
  003a1	07		 DB	 7
  003a2	07		 DB	 7
  003a3	07		 DB	 7
  003a4	07		 DB	 7
  003a5	07		 DB	 7
  003a6	07		 DB	 7
  003a7	07		 DB	 7
  003a8	07		 DB	 7
  003a9	07		 DB	 7
  003aa	07		 DB	 7
  003ab	07		 DB	 7
  003ac	07		 DB	 7
  003ad	07		 DB	 7
  003ae	07		 DB	 7
  003af	07		 DB	 7
  003b0	07		 DB	 7
  003b1	07		 DB	 7
  003b2	07		 DB	 7
  003b3	07		 DB	 7
  003b4	07		 DB	 7
  003b5	07		 DB	 7
  003b6	07		 DB	 7
  003b7	07		 DB	 7
  003b8	07		 DB	 7
  003b9	07		 DB	 7
  003ba	07		 DB	 7
  003bb	07		 DB	 7
  003bc	07		 DB	 7
  003bd	07		 DB	 7
  003be	07		 DB	 7
  003bf	07		 DB	 7
  003c0	07		 DB	 7
  003c1	07		 DB	 7
  003c2	07		 DB	 7
  003c3	07		 DB	 7
  003c4	07		 DB	 7
  003c5	07		 DB	 7
  003c6	07		 DB	 7
  003c7	07		 DB	 7
  003c8	07		 DB	 7
  003c9	07		 DB	 7
  003ca	07		 DB	 7
  003cb	07		 DB	 7
  003cc	07		 DB	 7
  003cd	05		 DB	 5
  003ce	07		 DB	 7
  003cf	06		 DB	 6
?GetToken@@YA?AW4SMDToken@@XZ ENDP			; GetToken
_TEXT	ENDS
; Function compile flags: /Odtp /ZI
; File C:\Mu Online\Mu-GS-Webzen-MC-10093\GameServer\ItemBag.cpp
;	COMDAT ?__empty_global_delete@@YAXPAXI@Z
_TEXT	SEGMENT
___formal$ = 8						; size = 4
___formal$ = 12						; size = 4
?__empty_global_delete@@YAXPAXI@Z PROC			; __empty_global_delete, COMDAT

  00000	55		 push	 ebp
  00001	8b ec		 mov	 ebp, esp
  00003	83 ec 40	 sub	 esp, 64			; 00000040H
  00006	53		 push	 ebx
  00007	56		 push	 esi
  00008	57		 push	 edi
  00009	5f		 pop	 edi
  0000a	5e		 pop	 esi
  0000b	5b		 pop	 ebx
  0000c	8b e5		 mov	 esp, ebp
  0000e	5d		 pop	 ebp
  0000f	c3		 ret	 0
?__empty_global_delete@@YAXPAXI@Z ENDP			; __empty_global_delete
_TEXT	ENDS
; Function compile flags: /Odtp /ZI
; File C:\Mu Online\Mu-GS-Webzen-MC-10093\GameServer\ItemBag.cpp
;	COMDAT ?__empty_global_delete@@YAXPAX@Z
_TEXT	SEGMENT
___formal$ = 8						; size = 4
?__empty_global_delete@@YAXPAX@Z PROC			; __empty_global_delete, COMDAT

  00000	55		 push	 ebp
  00001	8b ec		 mov	 ebp, esp
  00003	83 ec 40	 sub	 esp, 64			; 00000040H
  00006	53		 push	 ebx
  00007	56		 push	 esi
  00008	57		 push	 edi
  00009	5f		 pop	 edi
  0000a	5e		 pop	 esi
  0000b	5b		 pop	 ebx
  0000c	8b e5		 mov	 esp, ebp
  0000e	5d		 pop	 ebp
  0000f	c3		 ret	 0
?__empty_global_delete@@YAXPAX@Z ENDP			; __empty_global_delete
_TEXT	ENDS
; Function compile flags: /Odtp /ZI
;	COMDAT ??_H@YGXPAXIIP6EPAX0@Z@Z
_TEXT	SEGMENT
tv66 = -68						; size = 4
___t$ = 8						; size = 4
___s$ = 12						; size = 4
___n$ = 16						; size = 4
___f$ = 20						; size = 4
??_H@YGXPAXIIP6EPAX0@Z@Z PROC				; `vector constructor iterator', COMDAT
  00000	55		 push	 ebp
  00001	8b ec		 mov	 ebp, esp
  00003	83 ec 44	 sub	 esp, 68			; 00000044H
  00006	53		 push	 ebx
  00007	56		 push	 esi
  00008	57		 push	 edi
$LN2@vector:
  00009	8b 45 10	 mov	 eax, DWORD PTR ___n$[ebp]
  0000c	89 45 bc	 mov	 DWORD PTR tv66[ebp], eax
  0000f	8b 4d 10	 mov	 ecx, DWORD PTR ___n$[ebp]
  00012	83 e9 01	 sub	 ecx, 1
  00015	89 4d 10	 mov	 DWORD PTR ___n$[ebp], ecx
  00018	83 7d bc 00	 cmp	 DWORD PTR tv66[ebp], 0
  0001c	76 11		 jbe	 SHORT $LN1@vector
  0001e	8b 4d 08	 mov	 ecx, DWORD PTR ___t$[ebp]
  00021	ff 55 14	 call	 DWORD PTR ___f$[ebp]
  00024	8b 45 08	 mov	 eax, DWORD PTR ___t$[ebp]
  00027	03 45 0c	 add	 eax, DWORD PTR ___s$[ebp]
  0002a	89 45 08	 mov	 DWORD PTR ___t$[ebp], eax
  0002d	eb da		 jmp	 SHORT $LN2@vector
$LN1@vector:
  0002f	5f		 pop	 edi
  00030	5e		 pop	 esi
  00031	5b		 pop	 ebx
  00032	8b e5		 mov	 esp, ebp
  00034	5d		 pop	 ebp
  00035	c2 10 00	 ret	 16			; 00000010H
??_H@YGXPAXIIP6EPAX0@Z@Z ENDP				; `vector constructor iterator'
_TEXT	ENDS
END
