; Listing generated by Microsoft (R) Optimizing Compiler Version 19.27.29111.0 

	TITLE	C:\Mu Online\Mu-GS-Webzen-MC-10093\GameServer\logproc.cpp
	.686P
	.XMM
	include listing.inc
	.model	flat

INCLUDELIB LIBCMT
INCLUDELIB OLDNAMES

PUBLIC	?LogAdd@@3P6AXPADZZA				; LogAdd
PUBLIC	?LogAddC@@3P6AXEPADZZA				; LogAddC
PUBLIC	?LogAddL@@3P6AXPADZZA				; LogAddL
PUBLIC	?LogAddHeadHex@@3P6AXPAD0H@ZA			; LogAddHeadHex
PUBLIC	?LogTextPaint@@3P6AXPAUHWND__@@@ZA		; LogTextPaint
PUBLIC	?LogAddTD@@3P6AXPADZZA				; LogAddTD
PUBLIC	?LogAdd_MonsterItemDrop@@3P6AXPADZZA		; LogAdd_MonsterItemDrop
PUBLIC	?LogAddTD_TempLog@@3P6AXPADZZA			; LogAddTD_TempLog
PUBLIC	?LogText@@3PAY0FB@DA				; LogText
PUBLIC	?LogTextLength@@3PAFA				; LogTextLength
PUBLIC	?LogTextViewType@@3PAEA				; LogTextViewType
PUBLIC	?gLogOutType@@3HA				; gLogOutType
PUBLIC	?LogCritical@@3U_RTL_CRITICAL_SECTION@@A	; LogCritical
PUBLIC	?LogCritical_MonsterItemDrop@@3U_RTL_CRITICAL_SECTION@@A ; LogCritical_MonsterItemDrop
PUBLIC	?LogCritical_TempLog@@3U_RTL_CRITICAL_SECTION@@A ; LogCritical_TempLog
PUBLIC	?LogMYear@@3HA					; LogMYear
PUBLIC	?LogMonth@@3HA					; LogMonth
PUBLIC	?LogMDay@@3HA					; LogMDay
PUBLIC	?m_cline@@3HA					; m_cline
_BSS	SEGMENT
?LogAdd@@3P6AXPADZZA DD 01H DUP (?)			; LogAdd
?LogAddC@@3P6AXEPADZZA DD 01H DUP (?)			; LogAddC
?LogAddL@@3P6AXPADZZA DD 01H DUP (?)			; LogAddL
?LogAddHeadHex@@3P6AXPAD0H@ZA DD 01H DUP (?)		; LogAddHeadHex
?LogTextPaint@@3P6AXPAUHWND__@@@ZA DD 01H DUP (?)	; LogTextPaint
?LogAddTD@@3P6AXPADZZA DD 01H DUP (?)			; LogAddTD
?LogAdd_MonsterItemDrop@@3P6AXPADZZA DD 01H DUP (?)	; LogAdd_MonsterItemDrop
?LogAddTD_TempLog@@3P6AXPADZZA DD 01H DUP (?)		; LogAddTD_TempLog
?LogText@@3PAY0FB@DA DB 097eH DUP (?)			; LogText
	ALIGN	4

?LogTextLength@@3PAFA DW 01eH DUP (?)			; LogTextLength
?LogTextViewType@@3PAEA DB 01eH DUP (?)			; LogTextViewType
	ALIGN	4

?LogCritical@@3U_RTL_CRITICAL_SECTION@@A DB 018H DUP (?) ; LogCritical
?LogCritical_MonsterItemDrop@@3U_RTL_CRITICAL_SECTION@@A DB 018H DUP (?) ; LogCritical_MonsterItemDrop
?LogCritical_TempLog@@3U_RTL_CRITICAL_SECTION@@A DB 018H DUP (?) ; LogCritical_TempLog
?LogMYear@@3HA DD 01H DUP (?)				; LogMYear
?LogMonth@@3HA DD 01H DUP (?)				; LogMonth
?LogMDay@@3HA DD 01H DUP (?)				; LogMDay
?m_cline@@3HA DD 01H DUP (?)				; m_cline
_BSS	ENDS
_DATA	SEGMENT
?gLogOutType@@3HA DD 01H				; gLogOutType
_DATA	ENDS
PUBLIC	?__empty_global_delete@@YAXPAX@Z		; __empty_global_delete
PUBLIC	?__empty_global_delete@@YAXPAXI@Z		; __empty_global_delete
PUBLIC	___local_stdio_printf_options
PUBLIC	__vfprintf_l
PUBLIC	_fprintf
PUBLIC	__vsnprintf_l
PUBLIC	_vsprintf
PUBLIC	?LogInit@@YAXH@Z				; LogInit
PUBLIC	?LogGetFileName@@YAPADXZ			; LogGetFileName
PUBLIC	?LogClose@@YAXXZ				; LogClose
PUBLIC	?LogTextClear@@YAXXZ				; LogTextClear
PUBLIC	?LogDateChange@@YAHXZ				; LogDateChange
PUBLIC	?MsgBox@@YAXPADZZ				; MsgBox
PUBLIC	?LogAddFuncVoid@@YAXPADZZ			; LogAddFuncVoid
PUBLIC	?LogAddHeadHexFuncVoid@@YAXPAD0H@Z		; LogAddHeadHexFuncVoid
PUBLIC	?LogTextPaintProcVoid@@YAXPAUHWND__@@@Z		; LogTextPaintProcVoid
PUBLIC	?LogAddLocalFuncVoid@@YAXPADZZ			; LogAddLocalFuncVoid
PUBLIC	?LogAddFunc_MonsterItemDrop@@YAXPADZZ		; LogAddFunc_MonsterItemDrop
PUBLIC	?LogAddFuncTD_LogTemp@@YAXPADZZ			; LogAddFuncTD_LogTemp
PUBLIC	?LogDataSet@@YAXXZ				; LogDataSet
PUBLIC	?LogAddTimeDateFunc@@YAXPADZZ			; LogAddTimeDateFunc
PUBLIC	?LogAddTimeDateVoid@@YAXPADZZ			; LogAddTimeDateVoid
PUBLIC	?LogAddFunc@@YAXPADZZ				; LogAddFunc
PUBLIC	?LogAddFuncColor@@YAXEPADZZ			; LogAddFuncColor
PUBLIC	?LogAddHeadHexFunc@@YAXHPADH@Z			; LogAddHeadHexFunc
PUBLIC	?LogAddLocalFunc@@YAXPADZZ			; LogAddLocalFunc
PUBLIC	?LogAddStrHexFunc@@YAXPAD0H@Z			; LogAddStrHexFunc
PUBLIC	?LogTextPaintProc@@YAXPAUHWND__@@@Z		; LogTextPaintProc
PUBLIC	?LogTextAdd@@YAXEPADH@Z				; LogTextAdd
PUBLIC	?_OptionsStorage@?1??__local_stdio_printf_options@@9@4_KA ; `__local_stdio_printf_options'::`2'::_OptionsStorage
PUBLIC	??_C@_00CNPNBAHC@@				; `string'
PUBLIC	??_C@_0BI@IJDLMAIK@log?2?$CF02d?$CF02d?$CF02d_?$CFs?4log@ ; `string'
PUBLIC	??_C@_03CCGKKFHG@a?$CLt@			; `string'
PUBLIC	??_C@_0BG@LMFAEONB@Log?5file?5create?5error@	; `string'
PUBLIC	??_C@_0BN@JHAICDMH@log?2?$CF02d?$CF02d?$CF02d_?$CFs_MITD?4log@ ; `string'
PUBLIC	??_C@_0CA@NMMPLBJI@log?2?$CF02d?$CF02d?$CF02d_?$CFs_TempLog?4log@ ; `string'
PUBLIC	??_C@_0BK@EOMFLELL@TempLog?5file?5create?5error@ ; `string'
PUBLIC	??_C@_03OFAPEBGM@?$CFs?6@			; `string'
PUBLIC	?__LINE__Var@?0??LogAddTimeDateFunc@@YAXPADZZ@4JA ; `LogAddTimeDateFunc'::`1'::__LINE__Var
PUBLIC	??_C@_05JBABHJFJ@?$CF?48s?5@			; `string'
PUBLIC	??_C@_0DK@HBACJFJF@C?3?2Mu?5Online?2Mu?9GS?9Webzen?9MC?910@ ; `string'
PUBLIC	??_C@_0CD@PBOPMGJL@error?9L2?5?3?5file?5create?5error?5?$CFs@ ; `string'
PUBLIC	??_C@_0O@INHCFGKD@Send?3?$FL?$CFd?$FN?5?3?5?$CI@ ; `string'
PUBLIC	??_C@_0BB@GNPDKHHI@FDWrite?3?$FL?$CFd?$FN?5?3?5?$CI@ ; `string'
PUBLIC	??_C@_0O@HIEIMLDB@Recv?3?$FL?$CFd?$FN?5?3?5?$CI@ ; `string'
PUBLIC	??_C@_0L@OIANGEB@?$CFd?$FL?$CFd?$FN?5?3?5?$CI@	; `string'
PUBLIC	??_C@_07KDJDOMME@0x?$CF02x?5@			; `string'
PUBLIC	??_C@_02MNMNLDAI@?$CJ?6@			; `string'
PUBLIC	??_C@_04FOHLOOIG@?$CF?48s@			; `string'
PUBLIC	??_C@_0N@EPLLIA@?$FL?$CFs?$FN?$FL?$CFd?$FN?5?3?5?$CI@ ; `string'
PUBLIC	??_C@_05KKCIMGE@error@				; `string'
PUBLIC	?__LINE__Var@?0??LogAddFuncTD_LogTemp@@YAXPADZZ@4JA ; `LogAddFuncTD_LogTemp'::`1'::__LINE__Var
EXTRN	___report_rangecheckfailure:PROC
EXTRN	_memcpy:PROC
EXTRN	_memset:PROC
EXTRN	_strcat:PROC
EXTRN	_strcpy:PROC
EXTRN	_strlen:PROC
EXTRN	__imp__InitializeCriticalSection@4:PROC
EXTRN	__imp__EnterCriticalSection@4:PROC
EXTRN	__imp__LeaveCriticalSection@4:PROC
EXTRN	__imp__DeleteCriticalSection@4:PROC
EXTRN	__imp__SetTextColor@8:PROC
EXTRN	__imp__TextOutA@20:PROC
EXTRN	__imp__wsprintfA:PROC
EXTRN	__imp__GetDC@4:PROC
EXTRN	__imp__ReleaseDC@8:PROC
EXTRN	__imp__MessageBoxA@16:PROC
EXTRN	_fclose:PROC
EXTRN	_fopen:PROC
EXTRN	___stdio_common_vfprintf:PROC
EXTRN	___stdio_common_vsprintf:PROC
EXTRN	_asctime:PROC
EXTRN	__localtime64:PROC
EXTRN	__time64:PROC
EXTRN	@__security_check_cookie@4:PROC
EXTRN	_memset:PROC
EXTRN	?szServerName@@3PADA:BYTE			; szServerName
EXTRN	___security_cookie:DWORD
;	COMDAT ?_OptionsStorage@?1??__local_stdio_printf_options@@9@4_KA
_BSS	SEGMENT
?_OptionsStorage@?1??__local_stdio_printf_options@@9@4_KA DQ 01H DUP (?) ; `__local_stdio_printf_options'::`2'::_OptionsStorage
_BSS	ENDS
_BSS	SEGMENT
?m_szLogFileName@@3PADA DB 0100H DUP (?)		; m_szLogFileName
?logfp@@3PAU_iobuf@@A DD 01H DUP (?)			; logfp
?m_szLogFileName_MonsterItemDrop@@3PADA DB 0100H DUP (?) ; m_szLogFileName_MonsterItemDrop
?logfp_MonsterItemDrop@@3PAU_iobuf@@A DD 01H DUP (?)	; logfp_MonsterItemDrop
?m_szTempLog@@3PADA DB 0100H DUP (?)			; m_szTempLog
?logfpTempLog@@3PAU_iobuf@@A DD 01H DUP (?)		; logfpTempLog
_BSS	ENDS
;	COMDAT ?__LINE__Var@?0??LogAddFuncTD_LogTemp@@YAXPADZZ@4JA
_DATA	SEGMENT
?__LINE__Var@?0??LogAddFuncTD_LogTemp@@YAXPADZZ@4JA DD 0260H ; `LogAddFuncTD_LogTemp'::`1'::__LINE__Var
_DATA	ENDS
;	COMDAT ??_C@_05KKCIMGE@error@
CONST	SEGMENT
??_C@_05KKCIMGE@error@ DB 'error', 00H			; `string'
CONST	ENDS
;	COMDAT ??_C@_0N@EPLLIA@?$FL?$CFs?$FN?$FL?$CFd?$FN?5?3?5?$CI@
CONST	SEGMENT
??_C@_0N@EPLLIA@?$FL?$CFs?$FN?$FL?$CFd?$FN?5?3?5?$CI@ DB '[%s][%d] : (', 00H ; `string'
CONST	ENDS
;	COMDAT ??_C@_04FOHLOOIG@?$CF?48s@
CONST	SEGMENT
??_C@_04FOHLOOIG@?$CF?48s@ DB '%.8s', 00H		; `string'
CONST	ENDS
;	COMDAT ??_C@_02MNMNLDAI@?$CJ?6@
CONST	SEGMENT
??_C@_02MNMNLDAI@?$CJ?6@ DB ')', 0aH, 00H		; `string'
CONST	ENDS
;	COMDAT ??_C@_07KDJDOMME@0x?$CF02x?5@
CONST	SEGMENT
??_C@_07KDJDOMME@0x?$CF02x?5@ DB '0x%02x ', 00H		; `string'
CONST	ENDS
;	COMDAT ??_C@_0L@OIANGEB@?$CFd?$FL?$CFd?$FN?5?3?5?$CI@
CONST	SEGMENT
??_C@_0L@OIANGEB@?$CFd?$FL?$CFd?$FN?5?3?5?$CI@ DB '%d[%d] : (', 00H ; `string'
CONST	ENDS
;	COMDAT ??_C@_0O@HIEIMLDB@Recv?3?$FL?$CFd?$FN?5?3?5?$CI@
CONST	SEGMENT
??_C@_0O@HIEIMLDB@Recv?3?$FL?$CFd?$FN?5?3?5?$CI@ DB 'Recv:[%d] : (', 00H ; `string'
CONST	ENDS
;	COMDAT ??_C@_0BB@GNPDKHHI@FDWrite?3?$FL?$CFd?$FN?5?3?5?$CI@
CONST	SEGMENT
??_C@_0BB@GNPDKHHI@FDWrite?3?$FL?$CFd?$FN?5?3?5?$CI@ DB 'FDWrite:[%d] : ('
	DB	00H						; `string'
CONST	ENDS
;	COMDAT ??_C@_0O@INHCFGKD@Send?3?$FL?$CFd?$FN?5?3?5?$CI@
CONST	SEGMENT
??_C@_0O@INHCFGKD@Send?3?$FL?$CFd?$FN?5?3?5?$CI@ DB 'Send:[%d] : (', 00H ; `string'
CONST	ENDS
;	COMDAT ??_C@_0CD@PBOPMGJL@error?9L2?5?3?5file?5create?5error?5?$CFs@
CONST	SEGMENT
??_C@_0CD@PBOPMGJL@error?9L2?5?3?5file?5create?5error?5?$CFs@ DB 'error-L'
	DB	'2 : file create error %s %d', 00H		; `string'
CONST	ENDS
;	COMDAT ??_C@_0DK@HBACJFJF@C?3?2Mu?5Online?2Mu?9GS?9Webzen?9MC?910@
CONST	SEGMENT
??_C@_0DK@HBACJFJF@C?3?2Mu?5Online?2Mu?9GS?9Webzen?9MC?910@ DB 'C:\Mu Onl'
	DB	'ine\Mu-GS-Webzen-MC-10093\GameServer\logproc.cpp', 00H ; `string'
CONST	ENDS
;	COMDAT ??_C@_05JBABHJFJ@?$CF?48s?5@
CONST	SEGMENT
??_C@_05JBABHJFJ@?$CF?48s?5@ DB '%.8s ', 00H		; `string'
CONST	ENDS
;	COMDAT ?__LINE__Var@?0??LogAddTimeDateFunc@@YAXPADZZ@4JA
_DATA	SEGMENT
?__LINE__Var@?0??LogAddTimeDateFunc@@YAXPADZZ@4JA DD 0182H ; `LogAddTimeDateFunc'::`1'::__LINE__Var
_DATA	ENDS
;	COMDAT ??_C@_03OFAPEBGM@?$CFs?6@
CONST	SEGMENT
??_C@_03OFAPEBGM@?$CFs?6@ DB '%s', 0aH, 00H		; `string'
CONST	ENDS
;	COMDAT ??_C@_0BK@EOMFLELL@TempLog?5file?5create?5error@
CONST	SEGMENT
??_C@_0BK@EOMFLELL@TempLog?5file?5create?5error@ DB 'TempLog file create '
	DB	'error', 00H					; `string'
CONST	ENDS
;	COMDAT ??_C@_0CA@NMMPLBJI@log?2?$CF02d?$CF02d?$CF02d_?$CFs_TempLog?4log@
CONST	SEGMENT
??_C@_0CA@NMMPLBJI@log?2?$CF02d?$CF02d?$CF02d_?$CFs_TempLog?4log@ DB 'log'
	DB	'\%02d%02d%02d_%s_TempLog.log', 00H		; `string'
CONST	ENDS
;	COMDAT ??_C@_0BN@JHAICDMH@log?2?$CF02d?$CF02d?$CF02d_?$CFs_MITD?4log@
CONST	SEGMENT
??_C@_0BN@JHAICDMH@log?2?$CF02d?$CF02d?$CF02d_?$CFs_MITD?4log@ DB 'log\%0'
	DB	'2d%02d%02d_%s_MITD.log', 00H		; `string'
CONST	ENDS
;	COMDAT ??_C@_0BG@LMFAEONB@Log?5file?5create?5error@
CONST	SEGMENT
??_C@_0BG@LMFAEONB@Log?5file?5create?5error@ DB 'Log file create error', 00H ; `string'
CONST	ENDS
;	COMDAT ??_C@_03CCGKKFHG@a?$CLt@
CONST	SEGMENT
??_C@_03CCGKKFHG@a?$CLt@ DB 'a+t', 00H			; `string'
CONST	ENDS
;	COMDAT ??_C@_0BI@IJDLMAIK@log?2?$CF02d?$CF02d?$CF02d_?$CFs?4log@
CONST	SEGMENT
??_C@_0BI@IJDLMAIK@log?2?$CF02d?$CF02d?$CF02d_?$CFs?4log@ DB 'log\%02d%02'
	DB	'd%02d_%s.log', 00H				; `string'
CONST	ENDS
;	COMDAT ??_C@_00CNPNBAHC@@
CONST	SEGMENT
??_C@_00CNPNBAHC@@ DB 00H				; `string'
CONST	ENDS
; Function compile flags: /Odtp /ZI
; File C:\Mu Online\Mu-GS-Webzen-MC-10093\GameServer\logproc.cpp
;	COMDAT ?LogTextAdd@@YAXEPADH@Z
_TEXT	SEGMENT
_type$ = 8						; size = 1
_msg$ = 12						; size = 4
_len$ = 16						; size = 4
?LogTextAdd@@YAXEPADH@Z PROC				; LogTextAdd, COMDAT

; 284  : {

  00000	55		 push	 ebp
  00001	8b ec		 mov	 ebp, esp
  00003	83 ec 40	 sub	 esp, 64			; 00000040H
  00006	53		 push	 ebx
  00007	56		 push	 esi
  00008	57		 push	 edi

; 285  : 	if( len > MAXLOGTEXTC-1 ) len = MAXLOGTEXTC-1;

  00009	83 7d 10 4f	 cmp	 DWORD PTR _len$[ebp], 79 ; 0000004fH
  0000d	7e 07		 jle	 SHORT $LN2@LogTextAdd
  0000f	c7 45 10 4f 00
	00 00		 mov	 DWORD PTR _len$[ebp], 79 ; 0000004fH
$LN2@LogTextAdd:

; 286  : 
; 287  : 	m_cline++;

  00016	a1 00 00 00 00	 mov	 eax, DWORD PTR ?m_cline@@3HA ; m_cline
  0001b	83 c0 01	 add	 eax, 1
  0001e	a3 00 00 00 00	 mov	 DWORD PTR ?m_cline@@3HA, eax ; m_cline

; 288  : 	if( m_cline > MAXLOGTEXT-1) m_cline = 0;

  00023	83 3d 00 00 00
	00 1d		 cmp	 DWORD PTR ?m_cline@@3HA, 29 ; m_cline, 0000001dH
  0002a	7e 0a		 jle	 SHORT $LN3@LogTextAdd
  0002c	c7 05 00 00 00
	00 00 00 00 00	 mov	 DWORD PTR ?m_cline@@3HA, 0 ; m_cline
$LN3@LogTextAdd:

; 289  : 
; 290  : 	LogText[m_cline][0]			= '\0';

  00036	6b 05 00 00 00
	00 51		 imul	 eax, DWORD PTR ?m_cline@@3HA, 81 ; m_cline
  0003d	b9 01 00 00 00	 mov	 ecx, 1
  00042	6b d1 00	 imul	 edx, ecx, 0
  00045	c6 84 10 00 00
	00 00 00	 mov	 BYTE PTR ?LogText@@3PAY0FB@DA[eax+edx], 0

; 291  : 	memcpy(LogText[m_cline], msg, len);

  0004d	8b 45 10	 mov	 eax, DWORD PTR _len$[ebp]
  00050	50		 push	 eax
  00051	8b 4d 0c	 mov	 ecx, DWORD PTR _msg$[ebp]
  00054	51		 push	 ecx
  00055	6b 15 00 00 00
	00 51		 imul	 edx, DWORD PTR ?m_cline@@3HA, 81 ; m_cline
  0005c	81 c2 00 00 00
	00		 add	 edx, OFFSET ?LogText@@3PAY0FB@DA ; LogText
  00062	52		 push	 edx
  00063	e8 00 00 00 00	 call	 _memcpy
  00068	83 c4 0c	 add	 esp, 12			; 0000000cH

; 292  : 	LogText[m_cline][len]		= LogText[m_cline][len+1] = '\0';

  0006b	6b 05 00 00 00
	00 51		 imul	 eax, DWORD PTR ?m_cline@@3HA, 81 ; m_cline
  00072	8b 4d 10	 mov	 ecx, DWORD PTR _len$[ebp]
  00075	c6 84 08 01 00
	00 00 00	 mov	 BYTE PTR ?LogText@@3PAY0FB@DA[eax+ecx+1], 0
  0007d	6b 15 00 00 00
	00 51		 imul	 edx, DWORD PTR ?m_cline@@3HA, 81 ; m_cline
  00084	8b 45 10	 mov	 eax, DWORD PTR _len$[ebp]
  00087	c6 84 02 00 00
	00 00 00	 mov	 BYTE PTR ?LogText@@3PAY0FB@DA[edx+eax], 0

; 293  : 	LogTextLength[m_cline  ]	= len;

  0008f	a1 00 00 00 00	 mov	 eax, DWORD PTR ?m_cline@@3HA ; m_cline
  00094	66 8b 4d 10	 mov	 cx, WORD PTR _len$[ebp]
  00098	66 89 0c 45 00
	00 00 00	 mov	 WORD PTR ?LogTextLength@@3PAFA[eax*2], cx

; 294  : 	LogTextViewType[m_cline]	= type;

  000a0	a1 00 00 00 00	 mov	 eax, DWORD PTR ?m_cline@@3HA ; m_cline
  000a5	8a 4d 08	 mov	 cl, BYTE PTR _type$[ebp]
  000a8	88 88 00 00 00
	00		 mov	 BYTE PTR ?LogTextViewType@@3PAEA[eax], cl

; 295  : 
; 296  : }

  000ae	5f		 pop	 edi
  000af	5e		 pop	 esi
  000b0	5b		 pop	 ebx
  000b1	8b e5		 mov	 esp, ebp
  000b3	5d		 pop	 ebp
  000b4	c3		 ret	 0
?LogTextAdd@@YAXEPADH@Z ENDP				; LogTextAdd
_TEXT	ENDS
; Function compile flags: /Odtp /ZI
; File C:\Mu Online\Mu-GS-Webzen-MC-10093\GameServer\logproc.cpp
;	COMDAT ?LogTextPaintProc@@YAXPAUHWND__@@@Z
_TEXT	SEGMENT
tv72 = -80						; size = 4
tv68 = -80						; size = 4
_n$ = -12						; size = 4
_total$ = -8						; size = 4
_hdc$ = -4						; size = 4
_hWnd$ = 8						; size = 4
?LogTextPaintProc@@YAXPAUHWND__@@@Z PROC		; LogTextPaintProc, COMDAT

; 500  : {

  00000	55		 push	 ebp
  00001	8b ec		 mov	 ebp, esp
  00003	83 ec 50	 sub	 esp, 80			; 00000050H
  00006	53		 push	 ebx
  00007	56		 push	 esi
  00008	57		 push	 edi

; 501  : 	HDC	hdc;
; 502  : 	hdc = GetDC(hWnd);

  00009	8b 45 08	 mov	 eax, DWORD PTR _hWnd$[ebp]
  0000c	50		 push	 eax
  0000d	ff 15 00 00 00
	00		 call	 DWORD PTR __imp__GetDC@4
  00013	89 45 fc	 mov	 DWORD PTR _hdc$[ebp], eax

; 503  : 	int total = MAXLOGTEXT;

  00016	c7 45 f8 1e 00
	00 00		 mov	 DWORD PTR _total$[ebp], 30 ; 0000001eH

; 504  : 	int n     = m_cline;

  0001d	a1 00 00 00 00	 mov	 eax, DWORD PTR ?m_cline@@3HA ; m_cline
  00022	89 45 f4	 mov	 DWORD PTR _n$[ebp], eax
$LN2@LogTextPai:

; 505  : 	while( total-- )

  00025	8b 45 f8	 mov	 eax, DWORD PTR _total$[ebp]
  00028	89 45 b0	 mov	 DWORD PTR tv68[ebp], eax
  0002b	8b 4d f8	 mov	 ecx, DWORD PTR _total$[ebp]
  0002e	83 e9 01	 sub	 ecx, 1
  00031	89 4d f8	 mov	 DWORD PTR _total$[ebp], ecx
  00034	83 7d b0 00	 cmp	 DWORD PTR tv68[ebp], 0
  00038	0f 84 f8 00 00
	00		 je	 $LN3@LogTextPai

; 506  : 	{
; 507  : 		switch( LogTextViewType[n] )

  0003e	8b 45 f4	 mov	 eax, DWORD PTR _n$[ebp]
  00041	0f b6 88 00 00
	00 00		 movzx	 ecx, BYTE PTR ?LogTextViewType@@3PAEA[eax]
  00048	89 4d b0	 mov	 DWORD PTR tv72[ebp], ecx
  0004b	8b 55 b0	 mov	 edx, DWORD PTR tv72[ebp]
  0004e	83 ea 02	 sub	 edx, 2
  00051	89 55 b0	 mov	 DWORD PTR tv72[ebp], edx
  00054	83 7d b0 05	 cmp	 DWORD PTR tv72[ebp], 5
  00058	77 70		 ja	 SHORT $LN12@LogTextPai
  0005a	8b 45 b0	 mov	 eax, DWORD PTR tv72[ebp]
  0005d	ff 24 85 00 00
	00 00		 jmp	 DWORD PTR $LN16@LogTextPai[eax*4]
$LN6@LogTextPai:

; 508  : 		{
; 509  : 		case 2  : SetTextColor(hdc, RGB(255,0,0)); break;

  00064	68 ff 00 00 00	 push	 255			; 000000ffH
  00069	8b 45 fc	 mov	 eax, DWORD PTR _hdc$[ebp]
  0006c	50		 push	 eax
  0006d	ff 15 00 00 00
	00		 call	 DWORD PTR __imp__SetTextColor@8
  00073	eb 61		 jmp	 SHORT $LN4@LogTextPai
$LN7@LogTextPai:

; 510  : 		case 3  : SetTextColor(hdc, RGB(0,100,0)); break;

  00075	68 00 64 00 00	 push	 25600			; 00006400H
  0007a	8b 45 fc	 mov	 eax, DWORD PTR _hdc$[ebp]
  0007d	50		 push	 eax
  0007e	ff 15 00 00 00
	00		 call	 DWORD PTR __imp__SetTextColor@8
  00084	eb 50		 jmp	 SHORT $LN4@LogTextPai
$LN8@LogTextPai:

; 511  : 		case 4  : SetTextColor(hdc, RGB(0,0,255)); break;

  00086	68 00 00 ff 00	 push	 16711680		; 00ff0000H
  0008b	8b 45 fc	 mov	 eax, DWORD PTR _hdc$[ebp]
  0008e	50		 push	 eax
  0008f	ff 15 00 00 00
	00		 call	 DWORD PTR __imp__SetTextColor@8
  00095	eb 3f		 jmp	 SHORT $LN4@LogTextPai
$LN9@LogTextPai:

; 512  : 		case 5  : SetTextColor(hdc, RGB(155,0,0)); break;

  00097	68 9b 00 00 00	 push	 155			; 0000009bH
  0009c	8b 45 fc	 mov	 eax, DWORD PTR _hdc$[ebp]
  0009f	50		 push	 eax
  000a0	ff 15 00 00 00
	00		 call	 DWORD PTR __imp__SetTextColor@8
  000a6	eb 2e		 jmp	 SHORT $LN4@LogTextPai
$LN10@LogTextPai:

; 513  : 		case 6  : SetTextColor(hdc, RGB(0,0,100)); break;

  000a8	68 00 00 64 00	 push	 6553600			; 00640000H
  000ad	8b 45 fc	 mov	 eax, DWORD PTR _hdc$[ebp]
  000b0	50		 push	 eax
  000b1	ff 15 00 00 00
	00		 call	 DWORD PTR __imp__SetTextColor@8
  000b7	eb 1d		 jmp	 SHORT $LN4@LogTextPai
$LN11@LogTextPai:

; 514  : 		case 7  : SetTextColor(hdc, RGB(210,30,150)); break;

  000b9	68 d2 1e 96 00	 push	 9838290			; 00961ed2H
  000be	8b 45 fc	 mov	 eax, DWORD PTR _hdc$[ebp]
  000c1	50		 push	 eax
  000c2	ff 15 00 00 00
	00		 call	 DWORD PTR __imp__SetTextColor@8
  000c8	eb 0c		 jmp	 SHORT $LN4@LogTextPai
$LN12@LogTextPai:

; 515  : 		default : SetTextColor(hdc, RGB(0,0,0)); break;

  000ca	6a 00		 push	 0
  000cc	8b 45 fc	 mov	 eax, DWORD PTR _hdc$[ebp]
  000cf	50		 push	 eax
  000d0	ff 15 00 00 00
	00		 call	 DWORD PTR __imp__SetTextColor@8
$LN4@LogTextPai:

; 516  : 		}
; 517  : 		
; 518  : 		if( strlen(LogText[n]) > 1 )

  000d6	6b 45 f4 51	 imul	 eax, DWORD PTR _n$[ebp], 81
  000da	05 00 00 00 00	 add	 eax, OFFSET ?LogText@@3PAY0FB@DA ; LogText
  000df	50		 push	 eax
  000e0	e8 00 00 00 00	 call	 _strlen
  000e5	83 c4 04	 add	 esp, 4
  000e8	83 f8 01	 cmp	 eax, 1
  000eb	76 32		 jbe	 SHORT $LN13@LogTextPai

; 519  : 
; 520  : #ifdef ADD_SERVER_INFO_DISPLAY_EXTEND_01_20060313
; 521  : 			TextOut(hdc, 0, 100+(total*15), LogText[n], strlen(LogText[n]));

  000ed	6b 45 f4 51	 imul	 eax, DWORD PTR _n$[ebp], 81
  000f1	05 00 00 00 00	 add	 eax, OFFSET ?LogText@@3PAY0FB@DA ; LogText
  000f6	50		 push	 eax
  000f7	e8 00 00 00 00	 call	 _strlen
  000fc	83 c4 04	 add	 esp, 4
  000ff	50		 push	 eax
  00100	6b 4d f4 51	 imul	 ecx, DWORD PTR _n$[ebp], 81
  00104	81 c1 00 00 00
	00		 add	 ecx, OFFSET ?LogText@@3PAY0FB@DA ; LogText
  0010a	51		 push	 ecx
  0010b	6b 55 f8 0f	 imul	 edx, DWORD PTR _total$[ebp], 15
  0010f	83 c2 64	 add	 edx, 100		; 00000064H
  00112	52		 push	 edx
  00113	6a 00		 push	 0
  00115	8b 45 fc	 mov	 eax, DWORD PTR _hdc$[ebp]
  00118	50		 push	 eax
  00119	ff 15 00 00 00
	00		 call	 DWORD PTR __imp__TextOutA@20
$LN13@LogTextPai:

; 522  : #else
; 523  : 			TextOut(hdc, 0, 0+(total*15), LogText[n], strlen(LogText[n]));
; 524  : #endif
; 525  : 
; 526  : 		n--;

  0011f	8b 45 f4	 mov	 eax, DWORD PTR _n$[ebp]
  00122	83 e8 01	 sub	 eax, 1
  00125	89 45 f4	 mov	 DWORD PTR _n$[ebp], eax

; 527  : 		if( n < 0 ) n = MAXLOGTEXT-1;

  00128	79 07		 jns	 SHORT $LN14@LogTextPai
  0012a	c7 45 f4 1d 00
	00 00		 mov	 DWORD PTR _n$[ebp], 29	; 0000001dH
$LN14@LogTextPai:

; 528  : 	}

  00131	e9 ef fe ff ff	 jmp	 $LN2@LogTextPai
$LN3@LogTextPai:

; 529  : 	
; 530  : 	ReleaseDC(hWnd, hdc);

  00136	8b 45 fc	 mov	 eax, DWORD PTR _hdc$[ebp]
  00139	50		 push	 eax
  0013a	8b 4d 08	 mov	 ecx, DWORD PTR _hWnd$[ebp]
  0013d	51		 push	 ecx
  0013e	ff 15 00 00 00
	00		 call	 DWORD PTR __imp__ReleaseDC@8

; 531  : }

  00144	5f		 pop	 edi
  00145	5e		 pop	 esi
  00146	5b		 pop	 ebx
  00147	8b e5		 mov	 esp, ebp
  00149	5d		 pop	 ebp
  0014a	c3		 ret	 0
  0014b	90		 npad	 1
$LN16@LogTextPai:
  0014c	00 00 00 00	 DD	 $LN6@LogTextPai
  00150	00 00 00 00	 DD	 $LN7@LogTextPai
  00154	00 00 00 00	 DD	 $LN8@LogTextPai
  00158	00 00 00 00	 DD	 $LN9@LogTextPai
  0015c	00 00 00 00	 DD	 $LN10@LogTextPai
  00160	00 00 00 00	 DD	 $LN11@LogTextPai
?LogTextPaintProc@@YAXPAUHWND__@@@Z ENDP		; LogTextPaintProc
_TEXT	ENDS
; Function compile flags: /Odtp /ZI
; File C:\Mu Online\Mu-GS-Webzen-MC-10093\GameServer\logproc.cpp
;	COMDAT ?LogAddStrHexFunc@@YAXPAD0H@Z
_TEXT	SEGMENT
_n$1 = -16						; size = 4
_ltime$ = -12						; size = 8
_today$ = -4						; size = 4
_str$ = 8						; size = 4
_data$ = 12						; size = 4
_len$ = 16						; size = 4
?LogAddStrHexFunc@@YAXPAD0H@Z PROC			; LogAddStrHexFunc, COMDAT

; 452  : {

  00000	55		 push	 ebp
  00001	8b ec		 mov	 ebp, esp
  00003	83 ec 50	 sub	 esp, 80			; 00000050H
  00006	53		 push	 ebx
  00007	56		 push	 esi
  00008	57		 push	 edi

; 453  : 	//LogTextAdd(type, data, len);
; 454  : 	struct	tm *today;
; 455  : 	time_t		ltime;
; 456  : 	//char		tmpbuf[512];
; 457  : 	
; 458  : 	time( &ltime );

  00009	8d 45 f4	 lea	 eax, DWORD PTR _ltime$[ebp]
  0000c	50		 push	 eax
  0000d	e8 00 00 00 00	 call	 _time
  00012	83 c4 04	 add	 esp, 4

; 459  : 	today = localtime( &ltime );

  00015	8d 45 f4	 lea	 eax, DWORD PTR _ltime$[ebp]
  00018	50		 push	 eax
  00019	e8 00 00 00 00	 call	 _localtime
  0001e	83 c4 04	 add	 esp, 4
  00021	89 45 fc	 mov	 DWORD PTR _today$[ebp], eax

; 460  :   
; 461  : 
; 462  : 	if( gLogOutType == 0 ) return;

  00024	83 3d 00 00 00
	00 00		 cmp	 DWORD PTR ?gLogOutType@@3HA, 0 ; gLogOutType
  0002b	75 05		 jne	 SHORT $LN5@LogAddStrH
  0002d	e9 b1 00 00 00	 jmp	 $LN1@LogAddStrH
$LN5@LogAddStrH:

; 463  : 	
; 464  : 	if( logfp == NULL ) {

  00032	83 3d 00 00 00
	00 00		 cmp	 DWORD PTR ?logfp@@3PAU_iobuf@@A, 0
  00039	75 05		 jne	 SHORT $LN6@LogAddStrH

; 465  : 		//(NULL,"파일을 생성할수 없습니다.", "error", MB_OK);
; 466  : 		return;	

  0003b	e9 a3 00 00 00	 jmp	 $LN1@LogAddStrH
$LN6@LogAddStrH:

; 467  : 	}
; 468  : 
; 469  : 	EnterCriticalSection(&LogCritical);

  00040	68 00 00 00 00	 push	 OFFSET ?LogCritical@@3U_RTL_CRITICAL_SECTION@@A ; LogCritical
  00045	ff 15 00 00 00
	00		 call	 DWORD PTR __imp__EnterCriticalSection@4

; 470  : 	fprintf(logfp, "%.8s",asctime( today )+11);

  0004b	8b 45 fc	 mov	 eax, DWORD PTR _today$[ebp]
  0004e	50		 push	 eax
  0004f	e8 00 00 00 00	 call	 _asctime
  00054	83 c4 04	 add	 esp, 4
  00057	83 c0 0b	 add	 eax, 11			; 0000000bH
  0005a	50		 push	 eax
  0005b	68 00 00 00 00	 push	 OFFSET ??_C@_04FOHLOOIG@?$CF?48s@
  00060	8b 0d 00 00 00
	00		 mov	 ecx, DWORD PTR ?logfp@@3PAU_iobuf@@A
  00066	51		 push	 ecx
  00067	e8 00 00 00 00	 call	 _fprintf
  0006c	83 c4 0c	 add	 esp, 12			; 0000000cH

; 471  : 	fprintf(logfp, "[%s][%d] : (", str, len);

  0006f	8b 45 10	 mov	 eax, DWORD PTR _len$[ebp]
  00072	50		 push	 eax
  00073	8b 4d 08	 mov	 ecx, DWORD PTR _str$[ebp]
  00076	51		 push	 ecx
  00077	68 00 00 00 00	 push	 OFFSET ??_C@_0N@EPLLIA@?$FL?$CFs?$FN?$FL?$CFd?$FN?5?3?5?$CI@
  0007c	8b 15 00 00 00
	00		 mov	 edx, DWORD PTR ?logfp@@3PAU_iobuf@@A
  00082	52		 push	 edx
  00083	e8 00 00 00 00	 call	 _fprintf
  00088	83 c4 10	 add	 esp, 16			; 00000010H

; 472  : 	
; 473  : 	for( int n=0; n<len; n++)

  0008b	c7 45 f0 00 00
	00 00		 mov	 DWORD PTR _n$1[ebp], 0
  00092	eb 09		 jmp	 SHORT $LN4@LogAddStrH
$LN2@LogAddStrH:
  00094	8b 45 f0	 mov	 eax, DWORD PTR _n$1[ebp]
  00097	83 c0 01	 add	 eax, 1
  0009a	89 45 f0	 mov	 DWORD PTR _n$1[ebp], eax
$LN4@LogAddStrH:
  0009d	8b 45 f0	 mov	 eax, DWORD PTR _n$1[ebp]
  000a0	3b 45 10	 cmp	 eax, DWORD PTR _len$[ebp]
  000a3	7d 20		 jge	 SHORT $LN3@LogAddStrH

; 474  : 	{
; 475  : 		fprintf(logfp, "0x%02x ",(BYTE)data[n]);

  000a5	8b 45 0c	 mov	 eax, DWORD PTR _data$[ebp]
  000a8	03 45 f0	 add	 eax, DWORD PTR _n$1[ebp]
  000ab	0f b6 08	 movzx	 ecx, BYTE PTR [eax]
  000ae	51		 push	 ecx
  000af	68 00 00 00 00	 push	 OFFSET ??_C@_07KDJDOMME@0x?$CF02x?5@
  000b4	8b 15 00 00 00
	00		 mov	 edx, DWORD PTR ?logfp@@3PAU_iobuf@@A
  000ba	52		 push	 edx
  000bb	e8 00 00 00 00	 call	 _fprintf
  000c0	83 c4 0c	 add	 esp, 12			; 0000000cH

; 476  : 	}

  000c3	eb cf		 jmp	 SHORT $LN2@LogAddStrH
$LN3@LogAddStrH:

; 477  : 	fprintf(logfp, ")\n");

  000c5	68 00 00 00 00	 push	 OFFSET ??_C@_02MNMNLDAI@?$CJ?6@
  000ca	a1 00 00 00 00	 mov	 eax, DWORD PTR ?logfp@@3PAU_iobuf@@A
  000cf	50		 push	 eax
  000d0	e8 00 00 00 00	 call	 _fprintf
  000d5	83 c4 08	 add	 esp, 8

; 478  : 	LeaveCriticalSection(&LogCritical);

  000d8	68 00 00 00 00	 push	 OFFSET ?LogCritical@@3U_RTL_CRITICAL_SECTION@@A ; LogCritical
  000dd	ff 15 00 00 00
	00		 call	 DWORD PTR __imp__LeaveCriticalSection@4
$LN1@LogAddStrH:

; 479  : }

  000e3	5f		 pop	 edi
  000e4	5e		 pop	 esi
  000e5	5b		 pop	 ebx
  000e6	8b e5		 mov	 esp, ebp
  000e8	5d		 pop	 ebp
  000e9	c3		 ret	 0
?LogAddStrHexFunc@@YAXPAD0H@Z ENDP			; LogAddStrHexFunc
_TEXT	ENDS
; Function compile flags: /Odtp /ZI
; File C:\Mu Online\Mu-GS-Webzen-MC-10093\GameServer\logproc.cpp
;	COMDAT ?LogAddLocalFunc@@YAXPADZZ
_TEXT	SEGMENT
_pArguments$ = -520					; size = 4
_szBuffer$ = -516					; size = 512
__$ArrayPad$ = -4					; size = 4
_szlog$ = 8						; size = 4
?LogAddLocalFunc@@YAXPADZZ PROC				; LogAddLocalFunc, COMDAT

; 358  : {	

  00000	55		 push	 ebp
  00001	8b ec		 mov	 ebp, esp
  00003	81 ec 8c 02 00
	00		 sub	 esp, 652		; 0000028cH
  00009	a1 00 00 00 00	 mov	 eax, DWORD PTR ___security_cookie
  0000e	33 c5		 xor	 eax, ebp
  00010	89 45 fc	 mov	 DWORD PTR __$ArrayPad$[ebp], eax
  00013	53		 push	 ebx
  00014	56		 push	 esi
  00015	57		 push	 edi

; 359  : #if (LOCALCONNECT==0)
; 360  : 	return;

  00016	e9 ab 00 00 00	 jmp	 $LN1@LogAddLoca

; 361  : #endif
; 362  : 
; 363  : 	char szBuffer[512]="";

  0001b	a0 00 00 00 00	 mov	 al, BYTE PTR ??_C@_00CNPNBAHC@@
  00020	88 85 fc fd ff
	ff		 mov	 BYTE PTR _szBuffer$[ebp], al
  00026	68 ff 01 00 00	 push	 511			; 000001ffH
  0002b	6a 00		 push	 0
  0002d	8d 85 fd fd ff
	ff		 lea	 eax, DWORD PTR _szBuffer$[ebp+1]
  00033	50		 push	 eax
  00034	e8 00 00 00 00	 call	 _memset
  00039	83 c4 0c	 add	 esp, 12			; 0000000cH

; 364  : 	va_list		pArguments;
; 365  : 
; 366  : 	//if( strlen(m_szLogFileName) < 1 ) return;
; 367  : 
; 368  : 	va_start(pArguments, szlog);

  0003c	8d 45 0c	 lea	 eax, DWORD PTR _szlog$[ebp+4]
  0003f	89 85 f8 fd ff
	ff		 mov	 DWORD PTR _pArguments$[ebp], eax

; 369  :     vsprintf(szBuffer, szlog, pArguments);

  00045	8b 85 f8 fd ff
	ff		 mov	 eax, DWORD PTR _pArguments$[ebp]
  0004b	50		 push	 eax
  0004c	8b 4d 08	 mov	 ecx, DWORD PTR _szlog$[ebp]
  0004f	51		 push	 ecx
  00050	8d 95 fc fd ff
	ff		 lea	 edx, DWORD PTR _szBuffer$[ebp]
  00056	52		 push	 edx
  00057	e8 00 00 00 00	 call	 _vsprintf
  0005c	83 c4 0c	 add	 esp, 12			; 0000000cH

; 370  :     va_end(pArguments);

  0005f	c7 85 f8 fd ff
	ff 00 00 00 00	 mov	 DWORD PTR _pArguments$[ebp], 0

; 371  : 	LogTextAdd(0, szBuffer, strlen(szBuffer));

  00069	8d 85 fc fd ff
	ff		 lea	 eax, DWORD PTR _szBuffer$[ebp]
  0006f	50		 push	 eax
  00070	e8 00 00 00 00	 call	 _strlen
  00075	83 c4 04	 add	 esp, 4
  00078	50		 push	 eax
  00079	8d 8d fc fd ff
	ff		 lea	 ecx, DWORD PTR _szBuffer$[ebp]
  0007f	51		 push	 ecx
  00080	6a 00		 push	 0
  00082	e8 00 00 00 00	 call	 ?LogTextAdd@@YAXEPADH@Z	; LogTextAdd
  00087	83 c4 0c	 add	 esp, 12			; 0000000cH

; 372  : 
; 373  : 	if( gLogOutType == 0 ) return;

  0008a	83 3d 00 00 00
	00 00		 cmp	 DWORD PTR ?gLogOutType@@3HA, 0 ; gLogOutType
  00091	75 02		 jne	 SHORT $LN2@LogAddLoca
  00093	eb 31		 jmp	 SHORT $LN1@LogAddLoca
$LN2@LogAddLoca:

; 374  : 	EnterCriticalSection(&LogCritical);

  00095	68 00 00 00 00	 push	 OFFSET ?LogCritical@@3U_RTL_CRITICAL_SECTION@@A ; LogCritical
  0009a	ff 15 00 00 00
	00		 call	 DWORD PTR __imp__EnterCriticalSection@4

; 375  : 	fprintf(logfp, "%s\n",szBuffer);

  000a0	8d 85 fc fd ff
	ff		 lea	 eax, DWORD PTR _szBuffer$[ebp]
  000a6	50		 push	 eax
  000a7	68 00 00 00 00	 push	 OFFSET ??_C@_03OFAPEBGM@?$CFs?6@
  000ac	8b 0d 00 00 00
	00		 mov	 ecx, DWORD PTR ?logfp@@3PAU_iobuf@@A
  000b2	51		 push	 ecx
  000b3	e8 00 00 00 00	 call	 _fprintf
  000b8	83 c4 0c	 add	 esp, 12			; 0000000cH

; 376  : 	LeaveCriticalSection(&LogCritical);

  000bb	68 00 00 00 00	 push	 OFFSET ?LogCritical@@3U_RTL_CRITICAL_SECTION@@A ; LogCritical
  000c0	ff 15 00 00 00
	00		 call	 DWORD PTR __imp__LeaveCriticalSection@4
$LN1@LogAddLoca:

; 377  : }

  000c6	5f		 pop	 edi
  000c7	5e		 pop	 esi
  000c8	5b		 pop	 ebx
  000c9	8b 4d fc	 mov	 ecx, DWORD PTR __$ArrayPad$[ebp]
  000cc	33 cd		 xor	 ecx, ebp
  000ce	e8 00 00 00 00	 call	 @__security_check_cookie@4
  000d3	8b e5		 mov	 esp, ebp
  000d5	5d		 pop	 ebp
  000d6	c3		 ret	 0
?LogAddLocalFunc@@YAXPADZZ ENDP				; LogAddLocalFunc
_TEXT	ENDS
; Function compile flags: /Odtp /ZI
; File C:\Mu Online\Mu-GS-Webzen-MC-10093\GameServer\logproc.cpp
;	COMDAT ?LogAddHeadHexFunc@@YAXHPADH@Z
_TEXT	SEGMENT
tv67 = -72						; size = 4
_n$1 = -4						; size = 4
_type$ = 8						; size = 4
_data$ = 12						; size = 4
_len$ = 16						; size = 4
?LogAddHeadHexFunc@@YAXHPADH@Z PROC			; LogAddHeadHexFunc, COMDAT

; 424  : {

  00000	55		 push	 ebp
  00001	8b ec		 mov	 ebp, esp
  00003	83 ec 48	 sub	 esp, 72			; 00000048H
  00006	53		 push	 ebx
  00007	56		 push	 esi
  00008	57		 push	 edi

; 425  : 	//LogTextAdd(type, data, len);
; 426  : 
; 427  : 	if( gLogOutType == 0 ) return;

  00009	83 3d 00 00 00
	00 00		 cmp	 DWORD PTR ?gLogOutType@@3HA, 0 ; gLogOutType
  00010	75 05		 jne	 SHORT $LN7@LogAddHead
  00012	e9 f5 00 00 00	 jmp	 $LN1@LogAddHead
$LN7@LogAddHead:

; 428  : 	
; 429  : 	if( logfp == NULL ) {

  00017	83 3d 00 00 00
	00 00		 cmp	 DWORD PTR ?logfp@@3PAU_iobuf@@A, 0
  0001e	75 05		 jne	 SHORT $LN8@LogAddHead

; 430  : 		//(NULL,"파일을 생성할수 없습니다.", "error", MB_OK);
; 431  : 		return;	

  00020	e9 e7 00 00 00	 jmp	 $LN1@LogAddHead
$LN8@LogAddHead:

; 432  : 	}
; 433  : 
; 434  : 	EnterCriticalSection(&LogCritical);

  00025	68 00 00 00 00	 push	 OFFSET ?LogCritical@@3U_RTL_CRITICAL_SECTION@@A ; LogCritical
  0002a	ff 15 00 00 00
	00		 call	 DWORD PTR __imp__EnterCriticalSection@4

; 435  : 	switch(type)

  00030	8b 45 08	 mov	 eax, DWORD PTR _type$[ebp]
  00033	89 45 b8	 mov	 DWORD PTR tv67[ebp], eax
  00036	83 7d b8 02	 cmp	 DWORD PTR tv67[ebp], 2
  0003a	74 0e		 je	 SHORT $LN9@LogAddHead
  0003c	83 7d b8 03	 cmp	 DWORD PTR tv67[ebp], 3
  00040	74 22		 je	 SHORT $LN10@LogAddHead
  00042	83 7d b8 04	 cmp	 DWORD PTR tv67[ebp], 4
  00046	74 36		 je	 SHORT $LN11@LogAddHead
  00048	eb 4e		 jmp	 SHORT $LN12@LogAddHead
$LN9@LogAddHead:

; 436  : 	{
; 437  : 	case 2  : fprintf(logfp, "Send:[%d] : (", len);	break;

  0004a	8b 45 10	 mov	 eax, DWORD PTR _len$[ebp]
  0004d	50		 push	 eax
  0004e	68 00 00 00 00	 push	 OFFSET ??_C@_0O@INHCFGKD@Send?3?$FL?$CFd?$FN?5?3?5?$CI@
  00053	8b 0d 00 00 00
	00		 mov	 ecx, DWORD PTR ?logfp@@3PAU_iobuf@@A
  00059	51		 push	 ecx
  0005a	e8 00 00 00 00	 call	 _fprintf
  0005f	83 c4 0c	 add	 esp, 12			; 0000000cH
  00062	eb 50		 jmp	 SHORT $LN2@LogAddHead
$LN10@LogAddHead:

; 438  : 	case 3  : fprintf(logfp, "FDWrite:[%d] : (", len);	break;

  00064	8b 45 10	 mov	 eax, DWORD PTR _len$[ebp]
  00067	50		 push	 eax
  00068	68 00 00 00 00	 push	 OFFSET ??_C@_0BB@GNPDKHHI@FDWrite?3?$FL?$CFd?$FN?5?3?5?$CI@
  0006d	8b 0d 00 00 00
	00		 mov	 ecx, DWORD PTR ?logfp@@3PAU_iobuf@@A
  00073	51		 push	 ecx
  00074	e8 00 00 00 00	 call	 _fprintf
  00079	83 c4 0c	 add	 esp, 12			; 0000000cH
  0007c	eb 36		 jmp	 SHORT $LN2@LogAddHead
$LN11@LogAddHead:

; 439  : 	case 4  : fprintf(logfp, "Recv:[%d] : (", len);	break;

  0007e	8b 45 10	 mov	 eax, DWORD PTR _len$[ebp]
  00081	50		 push	 eax
  00082	68 00 00 00 00	 push	 OFFSET ??_C@_0O@HIEIMLDB@Recv?3?$FL?$CFd?$FN?5?3?5?$CI@
  00087	8b 0d 00 00 00
	00		 mov	 ecx, DWORD PTR ?logfp@@3PAU_iobuf@@A
  0008d	51		 push	 ecx
  0008e	e8 00 00 00 00	 call	 _fprintf
  00093	83 c4 0c	 add	 esp, 12			; 0000000cH
  00096	eb 1c		 jmp	 SHORT $LN2@LogAddHead
$LN12@LogAddHead:

; 440  : 	default : fprintf(logfp, "%d[%d] : (", type, len);	break;

  00098	8b 45 10	 mov	 eax, DWORD PTR _len$[ebp]
  0009b	50		 push	 eax
  0009c	8b 4d 08	 mov	 ecx, DWORD PTR _type$[ebp]
  0009f	51		 push	 ecx
  000a0	68 00 00 00 00	 push	 OFFSET ??_C@_0L@OIANGEB@?$CFd?$FL?$CFd?$FN?5?3?5?$CI@
  000a5	8b 15 00 00 00
	00		 mov	 edx, DWORD PTR ?logfp@@3PAU_iobuf@@A
  000ab	52		 push	 edx
  000ac	e8 00 00 00 00	 call	 _fprintf
  000b1	83 c4 10	 add	 esp, 16			; 00000010H
$LN2@LogAddHead:

; 441  : 	}
; 442  : 	
; 443  : 	for( int n=0; n<len; n++)

  000b4	c7 45 fc 00 00
	00 00		 mov	 DWORD PTR _n$1[ebp], 0
  000bb	eb 09		 jmp	 SHORT $LN6@LogAddHead
$LN4@LogAddHead:
  000bd	8b 45 fc	 mov	 eax, DWORD PTR _n$1[ebp]
  000c0	83 c0 01	 add	 eax, 1
  000c3	89 45 fc	 mov	 DWORD PTR _n$1[ebp], eax
$LN6@LogAddHead:
  000c6	8b 45 fc	 mov	 eax, DWORD PTR _n$1[ebp]
  000c9	3b 45 10	 cmp	 eax, DWORD PTR _len$[ebp]
  000cc	7d 20		 jge	 SHORT $LN5@LogAddHead

; 444  : 	{
; 445  : 		fprintf(logfp, "0x%02x ",(BYTE)data[n]);

  000ce	8b 45 0c	 mov	 eax, DWORD PTR _data$[ebp]
  000d1	03 45 fc	 add	 eax, DWORD PTR _n$1[ebp]
  000d4	0f b6 08	 movzx	 ecx, BYTE PTR [eax]
  000d7	51		 push	 ecx
  000d8	68 00 00 00 00	 push	 OFFSET ??_C@_07KDJDOMME@0x?$CF02x?5@
  000dd	8b 15 00 00 00
	00		 mov	 edx, DWORD PTR ?logfp@@3PAU_iobuf@@A
  000e3	52		 push	 edx
  000e4	e8 00 00 00 00	 call	 _fprintf
  000e9	83 c4 0c	 add	 esp, 12			; 0000000cH

; 446  : 	}

  000ec	eb cf		 jmp	 SHORT $LN4@LogAddHead
$LN5@LogAddHead:

; 447  : 	fprintf(logfp, ")\n");

  000ee	68 00 00 00 00	 push	 OFFSET ??_C@_02MNMNLDAI@?$CJ?6@
  000f3	a1 00 00 00 00	 mov	 eax, DWORD PTR ?logfp@@3PAU_iobuf@@A
  000f8	50		 push	 eax
  000f9	e8 00 00 00 00	 call	 _fprintf
  000fe	83 c4 08	 add	 esp, 8

; 448  : 	LeaveCriticalSection(&LogCritical);

  00101	68 00 00 00 00	 push	 OFFSET ?LogCritical@@3U_RTL_CRITICAL_SECTION@@A ; LogCritical
  00106	ff 15 00 00 00
	00		 call	 DWORD PTR __imp__LeaveCriticalSection@4
$LN1@LogAddHead:

; 449  : }

  0010c	5f		 pop	 edi
  0010d	5e		 pop	 esi
  0010e	5b		 pop	 ebx
  0010f	8b e5		 mov	 esp, ebp
  00111	5d		 pop	 ebp
  00112	c3		 ret	 0
?LogAddHeadHexFunc@@YAXHPADH@Z ENDP			; LogAddHeadHexFunc
_TEXT	ENDS
; Function compile flags: /Odtp /ZI
; File C:\Mu Online\Mu-GS-Webzen-MC-10093\GameServer\logproc.cpp
;	COMDAT ?LogAddFuncColor@@YAXEPADZZ
_TEXT	SEGMENT
_pArguments$ = -1032					; size = 4
_szBuffer$ = -1028					; size = 1024
__$ArrayPad$ = -4					; size = 4
_Color$ = 8						; size = 1
_szlog$ = 12						; size = 4
?LogAddFuncColor@@YAXEPADZZ PROC			; LogAddFuncColor, COMDAT

; 335  : {	

  00000	55		 push	 ebp
  00001	8b ec		 mov	 ebp, esp
  00003	81 ec cc 04 00
	00		 sub	 esp, 1228		; 000004ccH
  00009	a1 00 00 00 00	 mov	 eax, DWORD PTR ___security_cookie
  0000e	33 c5		 xor	 eax, ebp
  00010	89 45 fc	 mov	 DWORD PTR __$ArrayPad$[ebp], eax
  00013	53		 push	 ebx
  00014	56		 push	 esi
  00015	57		 push	 edi

; 336  : 	char szBuffer[1024]="";

  00016	a0 00 00 00 00	 mov	 al, BYTE PTR ??_C@_00CNPNBAHC@@
  0001b	88 85 fc fb ff
	ff		 mov	 BYTE PTR _szBuffer$[ebp], al
  00021	68 ff 03 00 00	 push	 1023			; 000003ffH
  00026	6a 00		 push	 0
  00028	8d 85 fd fb ff
	ff		 lea	 eax, DWORD PTR _szBuffer$[ebp+1]
  0002e	50		 push	 eax
  0002f	e8 00 00 00 00	 call	 _memset
  00034	83 c4 0c	 add	 esp, 12			; 0000000cH

; 337  : 	va_list		pArguments;
; 338  : 
; 339  : 	va_start(pArguments, szlog);

  00037	8d 45 10	 lea	 eax, DWORD PTR _szlog$[ebp+4]
  0003a	89 85 f8 fb ff
	ff		 mov	 DWORD PTR _pArguments$[ebp], eax

; 340  :     vsprintf(szBuffer, szlog, pArguments);

  00040	8b 85 f8 fb ff
	ff		 mov	 eax, DWORD PTR _pArguments$[ebp]
  00046	50		 push	 eax
  00047	8b 4d 0c	 mov	 ecx, DWORD PTR _szlog$[ebp]
  0004a	51		 push	 ecx
  0004b	8d 95 fc fb ff
	ff		 lea	 edx, DWORD PTR _szBuffer$[ebp]
  00051	52		 push	 edx
  00052	e8 00 00 00 00	 call	 _vsprintf
  00057	83 c4 0c	 add	 esp, 12			; 0000000cH

; 341  :     va_end(pArguments);

  0005a	c7 85 f8 fb ff
	ff 00 00 00 00	 mov	 DWORD PTR _pArguments$[ebp], 0

; 342  : 	LogTextAdd(Color, szBuffer, strlen(szBuffer));

  00064	8d 85 fc fb ff
	ff		 lea	 eax, DWORD PTR _szBuffer$[ebp]
  0006a	50		 push	 eax
  0006b	e8 00 00 00 00	 call	 _strlen
  00070	83 c4 04	 add	 esp, 4
  00073	50		 push	 eax
  00074	8d 8d fc fb ff
	ff		 lea	 ecx, DWORD PTR _szBuffer$[ebp]
  0007a	51		 push	 ecx
  0007b	0f b6 55 08	 movzx	 edx, BYTE PTR _Color$[ebp]
  0007f	52		 push	 edx
  00080	e8 00 00 00 00	 call	 ?LogTextAdd@@YAXEPADH@Z	; LogTextAdd
  00085	83 c4 0c	 add	 esp, 12			; 0000000cH

; 343  : 
; 344  : 	if( gLogOutType == 0 ) return;

  00088	83 3d 00 00 00
	00 00		 cmp	 DWORD PTR ?gLogOutType@@3HA, 0 ; gLogOutType
  0008f	75 02		 jne	 SHORT $LN2@LogAddFunc
  00091	eb 31		 jmp	 SHORT $LN1@LogAddFunc
$LN2@LogAddFunc:

; 345  : 
; 346  : #ifdef _DEBUG
; 347  : 	if( logfp == NULL ) {
; 348  : 		//MessageBox(NULL,"파일을 생성할수 없습니다.", "error", MB_OK);
; 349  : 		return;	
; 350  : 	}
; 351  : #endif
; 352  : 	EnterCriticalSection(&LogCritical);

  00093	68 00 00 00 00	 push	 OFFSET ?LogCritical@@3U_RTL_CRITICAL_SECTION@@A ; LogCritical
  00098	ff 15 00 00 00
	00		 call	 DWORD PTR __imp__EnterCriticalSection@4

; 353  : 	fprintf(logfp, "%s\n",szBuffer);

  0009e	8d 85 fc fb ff
	ff		 lea	 eax, DWORD PTR _szBuffer$[ebp]
  000a4	50		 push	 eax
  000a5	68 00 00 00 00	 push	 OFFSET ??_C@_03OFAPEBGM@?$CFs?6@
  000aa	8b 0d 00 00 00
	00		 mov	 ecx, DWORD PTR ?logfp@@3PAU_iobuf@@A
  000b0	51		 push	 ecx
  000b1	e8 00 00 00 00	 call	 _fprintf
  000b6	83 c4 0c	 add	 esp, 12			; 0000000cH

; 354  : 	LeaveCriticalSection(&LogCritical);

  000b9	68 00 00 00 00	 push	 OFFSET ?LogCritical@@3U_RTL_CRITICAL_SECTION@@A ; LogCritical
  000be	ff 15 00 00 00
	00		 call	 DWORD PTR __imp__LeaveCriticalSection@4
$LN1@LogAddFunc:

; 355  : }

  000c4	5f		 pop	 edi
  000c5	5e		 pop	 esi
  000c6	5b		 pop	 ebx
  000c7	8b 4d fc	 mov	 ecx, DWORD PTR __$ArrayPad$[ebp]
  000ca	33 cd		 xor	 ecx, ebp
  000cc	e8 00 00 00 00	 call	 @__security_check_cookie@4
  000d1	8b e5		 mov	 esp, ebp
  000d3	5d		 pop	 ebp
  000d4	c3		 ret	 0
?LogAddFuncColor@@YAXEPADZZ ENDP			; LogAddFuncColor
_TEXT	ENDS
; Function compile flags: /Odtp /ZI
; File C:\Mu Online\Mu-GS-Webzen-MC-10093\GameServer\logproc.cpp
;	COMDAT ?LogAddFunc@@YAXPADZZ
_TEXT	SEGMENT
_pArguments$ = -520					; size = 4
_szBuffer$ = -516					; size = 512
__$ArrayPad$ = -4					; size = 4
_szlog$ = 8						; size = 4
?LogAddFunc@@YAXPADZZ PROC				; LogAddFunc, COMDAT

; 310  : {	

  00000	55		 push	 ebp
  00001	8b ec		 mov	 ebp, esp
  00003	81 ec 8c 02 00
	00		 sub	 esp, 652		; 0000028cH
  00009	a1 00 00 00 00	 mov	 eax, DWORD PTR ___security_cookie
  0000e	33 c5		 xor	 eax, ebp
  00010	89 45 fc	 mov	 DWORD PTR __$ArrayPad$[ebp], eax
  00013	53		 push	 ebx
  00014	56		 push	 esi
  00015	57		 push	 edi

; 311  : 	char szBuffer[512]="";

  00016	a0 00 00 00 00	 mov	 al, BYTE PTR ??_C@_00CNPNBAHC@@
  0001b	88 85 fc fd ff
	ff		 mov	 BYTE PTR _szBuffer$[ebp], al
  00021	68 ff 01 00 00	 push	 511			; 000001ffH
  00026	6a 00		 push	 0
  00028	8d 85 fd fd ff
	ff		 lea	 eax, DWORD PTR _szBuffer$[ebp+1]
  0002e	50		 push	 eax
  0002f	e8 00 00 00 00	 call	 _memset
  00034	83 c4 0c	 add	 esp, 12			; 0000000cH

; 312  : 	va_list		pArguments;
; 313  : 
; 314  : 	//if( strlen(m_szLogFileName) < 1 ) return;
; 315  : 
; 316  : 	va_start(pArguments, szlog);

  00037	8d 45 0c	 lea	 eax, DWORD PTR _szlog$[ebp+4]
  0003a	89 85 f8 fd ff
	ff		 mov	 DWORD PTR _pArguments$[ebp], eax

; 317  :     vsprintf(szBuffer, szlog, pArguments);

  00040	8b 85 f8 fd ff
	ff		 mov	 eax, DWORD PTR _pArguments$[ebp]
  00046	50		 push	 eax
  00047	8b 4d 08	 mov	 ecx, DWORD PTR _szlog$[ebp]
  0004a	51		 push	 ecx
  0004b	8d 95 fc fd ff
	ff		 lea	 edx, DWORD PTR _szBuffer$[ebp]
  00051	52		 push	 edx
  00052	e8 00 00 00 00	 call	 _vsprintf
  00057	83 c4 0c	 add	 esp, 12			; 0000000cH

; 318  :     va_end(pArguments);

  0005a	c7 85 f8 fd ff
	ff 00 00 00 00	 mov	 DWORD PTR _pArguments$[ebp], 0

; 319  : 	LogTextAdd(0, szBuffer, strlen(szBuffer));

  00064	8d 85 fc fd ff
	ff		 lea	 eax, DWORD PTR _szBuffer$[ebp]
  0006a	50		 push	 eax
  0006b	e8 00 00 00 00	 call	 _strlen
  00070	83 c4 04	 add	 esp, 4
  00073	50		 push	 eax
  00074	8d 8d fc fd ff
	ff		 lea	 ecx, DWORD PTR _szBuffer$[ebp]
  0007a	51		 push	 ecx
  0007b	6a 00		 push	 0
  0007d	e8 00 00 00 00	 call	 ?LogTextAdd@@YAXEPADH@Z	; LogTextAdd
  00082	83 c4 0c	 add	 esp, 12			; 0000000cH

; 320  : 
; 321  : 	if( gLogOutType == 0 ) return;

  00085	83 3d 00 00 00
	00 00		 cmp	 DWORD PTR ?gLogOutType@@3HA, 0 ; gLogOutType
  0008c	75 02		 jne	 SHORT $LN2@LogAddFunc
  0008e	eb 31		 jmp	 SHORT $LN1@LogAddFunc
$LN2@LogAddFunc:

; 322  : 
; 323  : #ifdef _DEBUG
; 324  : 	if( logfp == NULL ) {
; 325  : 		//MessageBox(NULL,"파일을 생성할수 없습니다.", "error", MB_OK);
; 326  : 		return;	
; 327  : 	}
; 328  : #endif
; 329  : 	EnterCriticalSection(&LogCritical);

  00090	68 00 00 00 00	 push	 OFFSET ?LogCritical@@3U_RTL_CRITICAL_SECTION@@A ; LogCritical
  00095	ff 15 00 00 00
	00		 call	 DWORD PTR __imp__EnterCriticalSection@4

; 330  : 	fprintf(logfp, "%s\n",szBuffer);

  0009b	8d 85 fc fd ff
	ff		 lea	 eax, DWORD PTR _szBuffer$[ebp]
  000a1	50		 push	 eax
  000a2	68 00 00 00 00	 push	 OFFSET ??_C@_03OFAPEBGM@?$CFs?6@
  000a7	8b 0d 00 00 00
	00		 mov	 ecx, DWORD PTR ?logfp@@3PAU_iobuf@@A
  000ad	51		 push	 ecx
  000ae	e8 00 00 00 00	 call	 _fprintf
  000b3	83 c4 0c	 add	 esp, 12			; 0000000cH

; 331  : 	LeaveCriticalSection(&LogCritical);

  000b6	68 00 00 00 00	 push	 OFFSET ?LogCritical@@3U_RTL_CRITICAL_SECTION@@A ; LogCritical
  000bb	ff 15 00 00 00
	00		 call	 DWORD PTR __imp__LeaveCriticalSection@4
$LN1@LogAddFunc:

; 332  : }

  000c1	5f		 pop	 edi
  000c2	5e		 pop	 esi
  000c3	5b		 pop	 ebx
  000c4	8b 4d fc	 mov	 ecx, DWORD PTR __$ArrayPad$[ebp]
  000c7	33 cd		 xor	 ecx, ebp
  000c9	e8 00 00 00 00	 call	 @__security_check_cookie@4
  000ce	8b e5		 mov	 esp, ebp
  000d0	5d		 pop	 ebp
  000d1	c3		 ret	 0
?LogAddFunc@@YAXPADZZ ENDP				; LogAddFunc
_TEXT	ENDS
; Function compile flags: /Odtp /ZI
; File C:\Mu Online\Mu-GS-Webzen-MC-10093\GameServer\logproc.cpp
;	COMDAT ?LogAddTimeDateVoid@@YAXPADZZ
_TEXT	SEGMENT
_szlog$ = 8						; size = 4
?LogAddTimeDateVoid@@YAXPADZZ PROC			; LogAddTimeDateVoid, COMDAT

; 304  : {

  00000	55		 push	 ebp
  00001	8b ec		 mov	 ebp, esp
  00003	83 ec 40	 sub	 esp, 64			; 00000040H
  00006	53		 push	 ebx
  00007	56		 push	 esi
  00008	57		 push	 edi

; 305  : 	return;
; 306  : }

  00009	5f		 pop	 edi
  0000a	5e		 pop	 esi
  0000b	5b		 pop	 ebx
  0000c	8b e5		 mov	 esp, ebp
  0000e	5d		 pop	 ebp
  0000f	c3		 ret	 0
?LogAddTimeDateVoid@@YAXPADZZ ENDP			; LogAddTimeDateVoid
_TEXT	ENDS
; Function compile flags: /Odtp /ZI
; File C:\Mu Online\Mu-GS-Webzen-MC-10093\GameServer\logproc.cpp
;	COMDAT ?LogAddTimeDateFunc@@YAXPADZZ
_TEXT	SEGMENT
_tmpbuf$ = -1556					; size = 512
_ltime$ = -1044						; size = 8
_today$ = -1036						; size = 4
_pArguments$ = -1032					; size = 4
_szBuffer$ = -1028					; size = 1024
__$ArrayPad$ = -4					; size = 4
_szlog$ = 8						; size = 4
?LogAddTimeDateFunc@@YAXPADZZ PROC			; LogAddTimeDateFunc, COMDAT

; 386  : {	

  00000	55		 push	 ebp
  00001	8b ec		 mov	 ebp, esp
  00003	81 ec 18 07 00
	00		 sub	 esp, 1816		; 00000718H
  00009	a1 00 00 00 00	 mov	 eax, DWORD PTR ___security_cookie
  0000e	33 c5		 xor	 eax, ebp
  00010	89 45 fc	 mov	 DWORD PTR __$ArrayPad$[ebp], eax
  00013	53		 push	 ebx
  00014	56		 push	 esi
  00015	57		 push	 edi

; 387  : 	char szBuffer[1024]="";

  00016	a0 00 00 00 00	 mov	 al, BYTE PTR ??_C@_00CNPNBAHC@@
  0001b	88 85 fc fb ff
	ff		 mov	 BYTE PTR _szBuffer$[ebp], al
  00021	68 ff 03 00 00	 push	 1023			; 000003ffH
  00026	6a 00		 push	 0
  00028	8d 85 fd fb ff
	ff		 lea	 eax, DWORD PTR _szBuffer$[ebp+1]
  0002e	50		 push	 eax
  0002f	e8 00 00 00 00	 call	 _memset
  00034	83 c4 0c	 add	 esp, 12			; 0000000cH

; 388  : 	va_list		pArguments;
; 389  : 	struct	tm *today;
; 390  : 	time_t		ltime;
; 391  : 	char		tmpbuf[512];
; 392  : 	
; 393  : 	time( &ltime );

  00037	8d 85 ec fb ff
	ff		 lea	 eax, DWORD PTR _ltime$[ebp]
  0003d	50		 push	 eax
  0003e	e8 00 00 00 00	 call	 _time
  00043	83 c4 04	 add	 esp, 4

; 394  : 	today = localtime( &ltime );

  00046	8d 85 ec fb ff
	ff		 lea	 eax, DWORD PTR _ltime$[ebp]
  0004c	50		 push	 eax
  0004d	e8 00 00 00 00	 call	 _localtime
  00052	83 c4 04	 add	 esp, 4
  00055	89 85 f4 fb ff
	ff		 mov	 DWORD PTR _today$[ebp], eax

; 395  :   
; 396  : 	wsprintf(tmpbuf, "%.8s ",asctime( today )+11);

  0005b	8b 85 f4 fb ff
	ff		 mov	 eax, DWORD PTR _today$[ebp]
  00061	50		 push	 eax
  00062	e8 00 00 00 00	 call	 _asctime
  00067	83 c4 04	 add	 esp, 4
  0006a	83 c0 0b	 add	 eax, 11			; 0000000bH
  0006d	50		 push	 eax
  0006e	68 00 00 00 00	 push	 OFFSET ??_C@_05JBABHJFJ@?$CF?48s?5@
  00073	8d 8d ec f9 ff
	ff		 lea	 ecx, DWORD PTR _tmpbuf$[ebp]
  00079	51		 push	 ecx
  0007a	ff 15 00 00 00
	00		 call	 DWORD PTR __imp__wsprintfA
  00080	83 c4 0c	 add	 esp, 12			; 0000000cH

; 397  : 	
; 398  : 	va_start(pArguments, szlog);

  00083	8d 45 0c	 lea	 eax, DWORD PTR _szlog$[ebp+4]
  00086	89 85 f8 fb ff
	ff		 mov	 DWORD PTR _pArguments$[ebp], eax

; 399  :     vsprintf(szBuffer, szlog, pArguments);

  0008c	8b 85 f8 fb ff
	ff		 mov	 eax, DWORD PTR _pArguments$[ebp]
  00092	50		 push	 eax
  00093	8b 4d 08	 mov	 ecx, DWORD PTR _szlog$[ebp]
  00096	51		 push	 ecx
  00097	8d 95 fc fb ff
	ff		 lea	 edx, DWORD PTR _szBuffer$[ebp]
  0009d	52		 push	 edx
  0009e	e8 00 00 00 00	 call	 _vsprintf
  000a3	83 c4 0c	 add	 esp, 12			; 0000000cH

; 400  :     va_end(pArguments);

  000a6	c7 85 f8 fb ff
	ff 00 00 00 00	 mov	 DWORD PTR _pArguments$[ebp], 0

; 401  :  
; 402  : 	strcat(tmpbuf, szBuffer);

  000b0	8d 85 fc fb ff
	ff		 lea	 eax, DWORD PTR _szBuffer$[ebp]
  000b6	50		 push	 eax
  000b7	8d 8d ec f9 ff
	ff		 lea	 ecx, DWORD PTR _tmpbuf$[ebp]
  000bd	51		 push	 ecx
  000be	e8 00 00 00 00	 call	 _strcat
  000c3	83 c4 08	 add	 esp, 8

; 403  : 
; 404  : 	LogTextAdd(0, tmpbuf, strlen(tmpbuf));

  000c6	8d 85 ec f9 ff
	ff		 lea	 eax, DWORD PTR _tmpbuf$[ebp]
  000cc	50		 push	 eax
  000cd	e8 00 00 00 00	 call	 _strlen
  000d2	83 c4 04	 add	 esp, 4
  000d5	50		 push	 eax
  000d6	8d 8d ec f9 ff
	ff		 lea	 ecx, DWORD PTR _tmpbuf$[ebp]
  000dc	51		 push	 ecx
  000dd	6a 00		 push	 0
  000df	e8 00 00 00 00	 call	 ?LogTextAdd@@YAXEPADH@Z	; LogTextAdd
  000e4	83 c4 0c	 add	 esp, 12			; 0000000cH

; 405  : 
; 406  : 	if( gLogOutType == 0 ) return;

  000e7	83 3d 00 00 00
	00 00		 cmp	 DWORD PTR ?gLogOutType@@3HA, 0 ; gLogOutType
  000ee	75 02		 jne	 SHORT $LN2@LogAddTime
  000f0	eb 58		 jmp	 SHORT $LN1@LogAddTime
$LN2@LogAddTime:

; 407  : 	if( logfp == NULL ) 

  000f2	83 3d 00 00 00
	00 00		 cmp	 DWORD PTR ?logfp@@3PAU_iobuf@@A, 0
  000f9	75 1e		 jne	 SHORT $LN3@LogAddTime

; 408  : 	{
; 409  : 		LogAdd("error-L2 : file create error %s %d",__FILE__, __LINE__);

  000fb	a1 00 00 00 00	 mov	 eax, DWORD PTR ?__LINE__Var@?0??LogAddTimeDateFunc@@YAXPADZZ@4JA
  00100	83 c0 17	 add	 eax, 23			; 00000017H
  00103	50		 push	 eax
  00104	68 00 00 00 00	 push	 OFFSET ??_C@_0DK@HBACJFJF@C?3?2Mu?5Online?2Mu?9GS?9Webzen?9MC?910@
  00109	68 00 00 00 00	 push	 OFFSET ??_C@_0CD@PBOPMGJL@error?9L2?5?3?5file?5create?5error?5?$CFs@
  0010e	ff 15 00 00 00
	00		 call	 DWORD PTR ?LogAdd@@3P6AXPADZZA ; LogAdd
  00114	83 c4 0c	 add	 esp, 12			; 0000000cH

; 410  : 		return;	

  00117	eb 31		 jmp	 SHORT $LN1@LogAddTime
$LN3@LogAddTime:

; 411  : 	}
; 412  : 	
; 413  : 	EnterCriticalSection(&LogCritical);

  00119	68 00 00 00 00	 push	 OFFSET ?LogCritical@@3U_RTL_CRITICAL_SECTION@@A ; LogCritical
  0011e	ff 15 00 00 00
	00		 call	 DWORD PTR __imp__EnterCriticalSection@4

; 414  : 	fprintf(logfp, "%s\n",tmpbuf);

  00124	8d 85 ec f9 ff
	ff		 lea	 eax, DWORD PTR _tmpbuf$[ebp]
  0012a	50		 push	 eax
  0012b	68 00 00 00 00	 push	 OFFSET ??_C@_03OFAPEBGM@?$CFs?6@
  00130	8b 0d 00 00 00
	00		 mov	 ecx, DWORD PTR ?logfp@@3PAU_iobuf@@A
  00136	51		 push	 ecx
  00137	e8 00 00 00 00	 call	 _fprintf
  0013c	83 c4 0c	 add	 esp, 12			; 0000000cH

; 415  : 	LeaveCriticalSection(&LogCritical);

  0013f	68 00 00 00 00	 push	 OFFSET ?LogCritical@@3U_RTL_CRITICAL_SECTION@@A ; LogCritical
  00144	ff 15 00 00 00
	00		 call	 DWORD PTR __imp__LeaveCriticalSection@4
$LN1@LogAddTime:

; 416  : }

  0014a	5f		 pop	 edi
  0014b	5e		 pop	 esi
  0014c	5b		 pop	 ebx
  0014d	8b 4d fc	 mov	 ecx, DWORD PTR __$ArrayPad$[ebp]
  00150	33 cd		 xor	 ecx, ebp
  00152	e8 00 00 00 00	 call	 @__security_check_cookie@4
  00157	8b e5		 mov	 esp, ebp
  00159	5d		 pop	 ebp
  0015a	c3		 ret	 0
?LogAddTimeDateFunc@@YAXPADZZ ENDP			; LogAddTimeDateFunc
_TEXT	ENDS
; Function compile flags: /Odtp /ZI
; File C:\Mu Online\Mu-GS-Webzen-MC-10093\GameServer\logproc.cpp
;	COMDAT ?LogDataSet@@YAXXZ
_TEXT	SEGMENT
_ltime$ = -268						; size = 8
_today$ = -260						; size = 4
_szTemp$ = -256						; size = 250
__$ArrayPad$ = -4					; size = 4
?LogDataSet@@YAXXZ PROC					; LogDataSet, COMDAT

; 148  : {

  00000	55		 push	 ebp
  00001	8b ec		 mov	 ebp, esp
  00003	81 ec 4c 01 00
	00		 sub	 esp, 332		; 0000014cH
  00009	a1 00 00 00 00	 mov	 eax, DWORD PTR ___security_cookie
  0000e	33 c5		 xor	 eax, ebp
  00010	89 45 fc	 mov	 DWORD PTR __$ArrayPad$[ebp], eax
  00013	53		 push	 ebx
  00014	56		 push	 esi
  00015	57		 push	 edi

; 149  : 	char szTemp[250];
; 150  : 	struct tm *today;
; 151  : 	time_t ltime;
; 152  : 	
; 153  : 	time( &ltime );

  00016	8d 85 f4 fe ff
	ff		 lea	 eax, DWORD PTR _ltime$[ebp]
  0001c	50		 push	 eax
  0001d	e8 00 00 00 00	 call	 _time
  00022	83 c4 04	 add	 esp, 4

; 154  : 	today = localtime( &ltime );

  00025	8d 85 f4 fe ff
	ff		 lea	 eax, DWORD PTR _ltime$[ebp]
  0002b	50		 push	 eax
  0002c	e8 00 00 00 00	 call	 _localtime
  00031	83 c4 04	 add	 esp, 4
  00034	89 85 fc fe ff
	ff		 mov	 DWORD PTR _today$[ebp], eax

; 155  : 	
; 156  : 	today->tm_year += 1900;

  0003a	8b 85 fc fe ff
	ff		 mov	 eax, DWORD PTR _today$[ebp]
  00040	8b 48 14	 mov	 ecx, DWORD PTR [eax+20]
  00043	81 c1 6c 07 00
	00		 add	 ecx, 1900		; 0000076cH
  00049	8b 95 fc fe ff
	ff		 mov	 edx, DWORD PTR _today$[ebp]
  0004f	89 4a 14	 mov	 DWORD PTR [edx+20], ecx

; 157  : 
; 158  : 	LogMYear = today->tm_year;

  00052	8b 85 fc fe ff
	ff		 mov	 eax, DWORD PTR _today$[ebp]
  00058	8b 48 14	 mov	 ecx, DWORD PTR [eax+20]
  0005b	89 0d 00 00 00
	00		 mov	 DWORD PTR ?LogMYear@@3HA, ecx ; LogMYear

; 159  : 	LogMonth = today->tm_mon+1;

  00061	8b 85 fc fe ff
	ff		 mov	 eax, DWORD PTR _today$[ebp]
  00067	8b 48 10	 mov	 ecx, DWORD PTR [eax+16]
  0006a	83 c1 01	 add	 ecx, 1
  0006d	89 0d 00 00 00
	00		 mov	 DWORD PTR ?LogMonth@@3HA, ecx ; LogMonth

; 160  : 	LogMDay  = today->tm_mday;

  00073	8b 85 fc fe ff
	ff		 mov	 eax, DWORD PTR _today$[ebp]
  00079	8b 48 0c	 mov	 ecx, DWORD PTR [eax+12]
  0007c	89 0d 00 00 00
	00		 mov	 DWORD PTR ?LogMDay@@3HA, ecx ; LogMDay

; 161  : 
; 162  : 	wsprintf(szTemp, "log\\%02d%02d%02d_%s.log",LogMYear, LogMonth,LogMDay, szServerName);

  00082	68 00 00 00 00	 push	 OFFSET ?szServerName@@3PADA ; szServerName
  00087	a1 00 00 00 00	 mov	 eax, DWORD PTR ?LogMDay@@3HA ; LogMDay
  0008c	50		 push	 eax
  0008d	8b 0d 00 00 00
	00		 mov	 ecx, DWORD PTR ?LogMonth@@3HA ; LogMonth
  00093	51		 push	 ecx
  00094	8b 15 00 00 00
	00		 mov	 edx, DWORD PTR ?LogMYear@@3HA ; LogMYear
  0009a	52		 push	 edx
  0009b	68 00 00 00 00	 push	 OFFSET ??_C@_0BI@IJDLMAIK@log?2?$CF02d?$CF02d?$CF02d_?$CFs?4log@
  000a0	8d 85 00 ff ff
	ff		 lea	 eax, DWORD PTR _szTemp$[ebp]
  000a6	50		 push	 eax
  000a7	ff 15 00 00 00
	00		 call	 DWORD PTR __imp__wsprintfA
  000ad	83 c4 18	 add	 esp, 24			; 00000018H

; 163  : 	
; 164  : 	if( logfp!=NULL ) {

  000b0	83 3d 00 00 00
	00 00		 cmp	 DWORD PTR ?logfp@@3PAU_iobuf@@A, 0
  000b7	74 18		 je	 SHORT $LN2@LogDataSet

; 165  : 		fclose(logfp);

  000b9	a1 00 00 00 00	 mov	 eax, DWORD PTR ?logfp@@3PAU_iobuf@@A
  000be	50		 push	 eax
  000bf	e8 00 00 00 00	 call	 _fclose
  000c4	83 c4 04	 add	 esp, 4

; 166  : 		logfp = NULL;

  000c7	c7 05 00 00 00
	00 00 00 00 00	 mov	 DWORD PTR ?logfp@@3PAU_iobuf@@A, 0
$LN2@LogDataSet:

; 167  : 	}
; 168  : 	
; 169  : 	logfp = fopen(szTemp, "a+t");

  000d1	68 00 00 00 00	 push	 OFFSET ??_C@_03CCGKKFHG@a?$CLt@
  000d6	8d 85 00 ff ff
	ff		 lea	 eax, DWORD PTR _szTemp$[ebp]
  000dc	50		 push	 eax
  000dd	e8 00 00 00 00	 call	 _fopen
  000e2	83 c4 08	 add	 esp, 8
  000e5	a3 00 00 00 00	 mov	 DWORD PTR ?logfp@@3PAU_iobuf@@A, eax

; 170  : 	if( logfp == NULL )

  000ea	83 3d 00 00 00
	00 00		 cmp	 DWORD PTR ?logfp@@3PAU_iobuf@@A, 0
  000f1	75 0e		 jne	 SHORT $LN3@LogDataSet

; 171  : 	{
; 172  : 		LogAdd("Log file create error");

  000f3	68 00 00 00 00	 push	 OFFSET ??_C@_0BG@LMFAEONB@Log?5file?5create?5error@
  000f8	ff 15 00 00 00
	00		 call	 DWORD PTR ?LogAdd@@3P6AXPADZZA ; LogAdd
  000fe	83 c4 04	 add	 esp, 4
$LN3@LogDataSet:

; 173  : 	}
; 174  : 	strcpy(m_szLogFileName, szTemp);

  00101	8d 85 00 ff ff
	ff		 lea	 eax, DWORD PTR _szTemp$[ebp]
  00107	50		 push	 eax
  00108	68 00 00 00 00	 push	 OFFSET ?m_szLogFileName@@3PADA
  0010d	e8 00 00 00 00	 call	 _strcpy
  00112	83 c4 08	 add	 esp, 8

; 175  : 
; 176  : 
; 177  : #ifdef MONSTER_ITEMDROP_LOG_20040309
; 178  : 	wsprintf(szTemp, "log\\%02d%02d%02d_%s_MITD.log",LogMYear, LogMonth,LogMDay, szServerName);

  00115	68 00 00 00 00	 push	 OFFSET ?szServerName@@3PADA ; szServerName
  0011a	a1 00 00 00 00	 mov	 eax, DWORD PTR ?LogMDay@@3HA ; LogMDay
  0011f	50		 push	 eax
  00120	8b 0d 00 00 00
	00		 mov	 ecx, DWORD PTR ?LogMonth@@3HA ; LogMonth
  00126	51		 push	 ecx
  00127	8b 15 00 00 00
	00		 mov	 edx, DWORD PTR ?LogMYear@@3HA ; LogMYear
  0012d	52		 push	 edx
  0012e	68 00 00 00 00	 push	 OFFSET ??_C@_0BN@JHAICDMH@log?2?$CF02d?$CF02d?$CF02d_?$CFs_MITD?4log@
  00133	8d 85 00 ff ff
	ff		 lea	 eax, DWORD PTR _szTemp$[ebp]
  00139	50		 push	 eax
  0013a	ff 15 00 00 00
	00		 call	 DWORD PTR __imp__wsprintfA
  00140	83 c4 18	 add	 esp, 24			; 00000018H

; 179  : 	
; 180  : 	if( logfp_MonsterItemDrop!=NULL ) {

  00143	83 3d 00 00 00
	00 00		 cmp	 DWORD PTR ?logfp_MonsterItemDrop@@3PAU_iobuf@@A, 0
  0014a	74 18		 je	 SHORT $LN4@LogDataSet

; 181  : 		fclose(logfp_MonsterItemDrop);

  0014c	a1 00 00 00 00	 mov	 eax, DWORD PTR ?logfp_MonsterItemDrop@@3PAU_iobuf@@A
  00151	50		 push	 eax
  00152	e8 00 00 00 00	 call	 _fclose
  00157	83 c4 04	 add	 esp, 4

; 182  : 		logfp_MonsterItemDrop = NULL;

  0015a	c7 05 00 00 00
	00 00 00 00 00	 mov	 DWORD PTR ?logfp_MonsterItemDrop@@3PAU_iobuf@@A, 0
$LN4@LogDataSet:

; 183  : 	}
; 184  : 	
; 185  : 	logfp_MonsterItemDrop = fopen(szTemp, "a+t");

  00164	68 00 00 00 00	 push	 OFFSET ??_C@_03CCGKKFHG@a?$CLt@
  00169	8d 85 00 ff ff
	ff		 lea	 eax, DWORD PTR _szTemp$[ebp]
  0016f	50		 push	 eax
  00170	e8 00 00 00 00	 call	 _fopen
  00175	83 c4 08	 add	 esp, 8
  00178	a3 00 00 00 00	 mov	 DWORD PTR ?logfp_MonsterItemDrop@@3PAU_iobuf@@A, eax

; 186  : 	if( logfp_MonsterItemDrop == NULL )

  0017d	83 3d 00 00 00
	00 00		 cmp	 DWORD PTR ?logfp_MonsterItemDrop@@3PAU_iobuf@@A, 0
  00184	75 0e		 jne	 SHORT $LN5@LogDataSet

; 187  : 	{
; 188  : 		LogAdd("Log file create error");

  00186	68 00 00 00 00	 push	 OFFSET ??_C@_0BG@LMFAEONB@Log?5file?5create?5error@
  0018b	ff 15 00 00 00
	00		 call	 DWORD PTR ?LogAdd@@3P6AXPADZZA ; LogAdd
  00191	83 c4 04	 add	 esp, 4
$LN5@LogDataSet:

; 189  : 	}
; 190  : 	strcpy(m_szLogFileName_MonsterItemDrop, szTemp);

  00194	8d 85 00 ff ff
	ff		 lea	 eax, DWORD PTR _szTemp$[ebp]
  0019a	50		 push	 eax
  0019b	68 00 00 00 00	 push	 OFFSET ?m_szLogFileName_MonsterItemDrop@@3PADA
  001a0	e8 00 00 00 00	 call	 _strcpy
  001a5	83 c4 08	 add	 esp, 8

; 191  : #endif
; 192  : 
; 193  : #ifdef MODIFY_CONNNECT_HACK_ATTACK_20090409
; 194  : 	
; 195  : #if TEMPLOG_PRINT == 0
; 196  : 	return;

  001a8	e9 a9 00 00 00	 jmp	 $LN1@LogDataSet

; 197  : #endif
; 198  : 	
; 199  : 	memset(szTemp,0,sizeof(szTemp));

  001ad	68 fa 00 00 00	 push	 250			; 000000faH
  001b2	6a 00		 push	 0
  001b4	8d 85 00 ff ff
	ff		 lea	 eax, DWORD PTR _szTemp$[ebp]
  001ba	50		 push	 eax
  001bb	e8 00 00 00 00	 call	 _memset
  001c0	83 c4 0c	 add	 esp, 12			; 0000000cH

; 200  : 	wsprintf(szTemp, "log\\%02d%02d%02d_%s_TempLog.log",LogMYear, LogMonth,LogMDay, szServerName);

  001c3	68 00 00 00 00	 push	 OFFSET ?szServerName@@3PADA ; szServerName
  001c8	a1 00 00 00 00	 mov	 eax, DWORD PTR ?LogMDay@@3HA ; LogMDay
  001cd	50		 push	 eax
  001ce	8b 0d 00 00 00
	00		 mov	 ecx, DWORD PTR ?LogMonth@@3HA ; LogMonth
  001d4	51		 push	 ecx
  001d5	8b 15 00 00 00
	00		 mov	 edx, DWORD PTR ?LogMYear@@3HA ; LogMYear
  001db	52		 push	 edx
  001dc	68 00 00 00 00	 push	 OFFSET ??_C@_0CA@NMMPLBJI@log?2?$CF02d?$CF02d?$CF02d_?$CFs_TempLog?4log@
  001e1	8d 85 00 ff ff
	ff		 lea	 eax, DWORD PTR _szTemp$[ebp]
  001e7	50		 push	 eax
  001e8	ff 15 00 00 00
	00		 call	 DWORD PTR __imp__wsprintfA
  001ee	83 c4 18	 add	 esp, 24			; 00000018H

; 201  : 	
; 202  : 	if( logfpTempLog != NULL ) {

  001f1	83 3d 00 00 00
	00 00		 cmp	 DWORD PTR ?logfpTempLog@@3PAU_iobuf@@A, 0
  001f8	74 18		 je	 SHORT $LN6@LogDataSet

; 203  : 		fclose(logfpTempLog);

  001fa	a1 00 00 00 00	 mov	 eax, DWORD PTR ?logfpTempLog@@3PAU_iobuf@@A
  001ff	50		 push	 eax
  00200	e8 00 00 00 00	 call	 _fclose
  00205	83 c4 04	 add	 esp, 4

; 204  : 		logfpTempLog = NULL;

  00208	c7 05 00 00 00
	00 00 00 00 00	 mov	 DWORD PTR ?logfpTempLog@@3PAU_iobuf@@A, 0
$LN6@LogDataSet:

; 205  : 	}
; 206  : 	
; 207  : 	logfpTempLog = fopen(szTemp, "a+t");

  00212	68 00 00 00 00	 push	 OFFSET ??_C@_03CCGKKFHG@a?$CLt@
  00217	8d 85 00 ff ff
	ff		 lea	 eax, DWORD PTR _szTemp$[ebp]
  0021d	50		 push	 eax
  0021e	e8 00 00 00 00	 call	 _fopen
  00223	83 c4 08	 add	 esp, 8
  00226	a3 00 00 00 00	 mov	 DWORD PTR ?logfpTempLog@@3PAU_iobuf@@A, eax

; 208  : 	if( logfpTempLog == NULL )

  0022b	83 3d 00 00 00
	00 00		 cmp	 DWORD PTR ?logfpTempLog@@3PAU_iobuf@@A, 0
  00232	75 0e		 jne	 SHORT $LN7@LogDataSet

; 209  : 	{
; 210  : 		LogAdd("TempLog file create error");

  00234	68 00 00 00 00	 push	 OFFSET ??_C@_0BK@EOMFLELL@TempLog?5file?5create?5error@
  00239	ff 15 00 00 00
	00		 call	 DWORD PTR ?LogAdd@@3P6AXPADZZA ; LogAdd
  0023f	83 c4 04	 add	 esp, 4
$LN7@LogDataSet:

; 211  : 	}
; 212  : 	strcpy(m_szTempLog, szTemp);

  00242	8d 85 00 ff ff
	ff		 lea	 eax, DWORD PTR _szTemp$[ebp]
  00248	50		 push	 eax
  00249	68 00 00 00 00	 push	 OFFSET ?m_szTempLog@@3PADA
  0024e	e8 00 00 00 00	 call	 _strcpy
  00253	83 c4 08	 add	 esp, 8
$LN1@LogDataSet:

; 213  : 	
; 214  : #endif
; 215  : 
; 216  : }

  00256	5f		 pop	 edi
  00257	5e		 pop	 esi
  00258	5b		 pop	 ebx
  00259	8b 4d fc	 mov	 ecx, DWORD PTR __$ArrayPad$[ebp]
  0025c	33 cd		 xor	 ecx, ebp
  0025e	e8 00 00 00 00	 call	 @__security_check_cookie@4
  00263	8b e5		 mov	 esp, ebp
  00265	5d		 pop	 ebp
  00266	c3		 ret	 0
?LogDataSet@@YAXXZ ENDP					; LogDataSet
_TEXT	ENDS
; Function compile flags: /Odtp /ZI
; File C:\Mu Online\Mu-GS-Webzen-MC-10093\GameServer\logproc.cpp
;	COMDAT ?LogAddFuncTD_LogTemp@@YAXPADZZ
_TEXT	SEGMENT
_tmpbuf$ = -1556					; size = 512
_ltime$ = -1044						; size = 8
_today$ = -1036						; size = 4
_pArguments$ = -1032					; size = 4
_szBuffer$ = -1028					; size = 1024
__$ArrayPad$ = -4					; size = 4
_szlog$ = 8						; size = 4
?LogAddFuncTD_LogTemp@@YAXPADZZ PROC			; LogAddFuncTD_LogTemp, COMDAT

; 608  : {

  00000	55		 push	 ebp
  00001	8b ec		 mov	 ebp, esp
  00003	81 ec 18 07 00
	00		 sub	 esp, 1816		; 00000718H
  00009	a1 00 00 00 00	 mov	 eax, DWORD PTR ___security_cookie
  0000e	33 c5		 xor	 eax, ebp
  00010	89 45 fc	 mov	 DWORD PTR __$ArrayPad$[ebp], eax
  00013	53		 push	 ebx
  00014	56		 push	 esi
  00015	57		 push	 edi

; 609  : 	
; 610  : #if TEMPLOG_PRINT == 0
; 611  : 	return;

  00016	e9 13 01 00 00	 jmp	 $LN1@LogAddFunc

; 612  : #endif
; 613  : 	
; 614  : 	char szBuffer[1024]="";

  0001b	a0 00 00 00 00	 mov	 al, BYTE PTR ??_C@_00CNPNBAHC@@
  00020	88 85 fc fb ff
	ff		 mov	 BYTE PTR _szBuffer$[ebp], al
  00026	68 ff 03 00 00	 push	 1023			; 000003ffH
  0002b	6a 00		 push	 0
  0002d	8d 85 fd fb ff
	ff		 lea	 eax, DWORD PTR _szBuffer$[ebp+1]
  00033	50		 push	 eax
  00034	e8 00 00 00 00	 call	 _memset
  00039	83 c4 0c	 add	 esp, 12			; 0000000cH

; 615  : 	va_list		pArguments;
; 616  : 	struct	tm *today;
; 617  : 	time_t		ltime;
; 618  : 	char		tmpbuf[512];
; 619  : 	
; 620  : 	time( &ltime );

  0003c	8d 85 ec fb ff
	ff		 lea	 eax, DWORD PTR _ltime$[ebp]
  00042	50		 push	 eax
  00043	e8 00 00 00 00	 call	 _time
  00048	83 c4 04	 add	 esp, 4

; 621  : 	today = localtime( &ltime );

  0004b	8d 85 ec fb ff
	ff		 lea	 eax, DWORD PTR _ltime$[ebp]
  00051	50		 push	 eax
  00052	e8 00 00 00 00	 call	 _localtime
  00057	83 c4 04	 add	 esp, 4
  0005a	89 85 f4 fb ff
	ff		 mov	 DWORD PTR _today$[ebp], eax

; 622  : 	
; 623  : 	wsprintf(tmpbuf, "%.8s ",asctime( today )+11);

  00060	8b 85 f4 fb ff
	ff		 mov	 eax, DWORD PTR _today$[ebp]
  00066	50		 push	 eax
  00067	e8 00 00 00 00	 call	 _asctime
  0006c	83 c4 04	 add	 esp, 4
  0006f	83 c0 0b	 add	 eax, 11			; 0000000bH
  00072	50		 push	 eax
  00073	68 00 00 00 00	 push	 OFFSET ??_C@_05JBABHJFJ@?$CF?48s?5@
  00078	8d 8d ec f9 ff
	ff		 lea	 ecx, DWORD PTR _tmpbuf$[ebp]
  0007e	51		 push	 ecx
  0007f	ff 15 00 00 00
	00		 call	 DWORD PTR __imp__wsprintfA
  00085	83 c4 0c	 add	 esp, 12			; 0000000cH

; 624  : 	
; 625  : 	va_start(pArguments, szlog);

  00088	8d 45 0c	 lea	 eax, DWORD PTR _szlog$[ebp+4]
  0008b	89 85 f8 fb ff
	ff		 mov	 DWORD PTR _pArguments$[ebp], eax

; 626  :     vsprintf(szBuffer, szlog, pArguments);

  00091	8b 85 f8 fb ff
	ff		 mov	 eax, DWORD PTR _pArguments$[ebp]
  00097	50		 push	 eax
  00098	8b 4d 08	 mov	 ecx, DWORD PTR _szlog$[ebp]
  0009b	51		 push	 ecx
  0009c	8d 95 fc fb ff
	ff		 lea	 edx, DWORD PTR _szBuffer$[ebp]
  000a2	52		 push	 edx
  000a3	e8 00 00 00 00	 call	 _vsprintf
  000a8	83 c4 0c	 add	 esp, 12			; 0000000cH

; 627  :     va_end(pArguments);

  000ab	c7 85 f8 fb ff
	ff 00 00 00 00	 mov	 DWORD PTR _pArguments$[ebp], 0

; 628  : 	
; 629  : 	strcat(tmpbuf, szBuffer);

  000b5	8d 85 fc fb ff
	ff		 lea	 eax, DWORD PTR _szBuffer$[ebp]
  000bb	50		 push	 eax
  000bc	8d 8d ec f9 ff
	ff		 lea	 ecx, DWORD PTR _tmpbuf$[ebp]
  000c2	51		 push	 ecx
  000c3	e8 00 00 00 00	 call	 _strcat
  000c8	83 c4 08	 add	 esp, 8

; 630  : 	
; 631  : 	//LogTextAdd(0, tmpbuf, strlen(tmpbuf));
; 632  : 	
; 633  : 	if( gLogOutType == 0 ) return;

  000cb	83 3d 00 00 00
	00 00		 cmp	 DWORD PTR ?gLogOutType@@3HA, 0 ; gLogOutType
  000d2	75 02		 jne	 SHORT $LN2@LogAddFunc
  000d4	eb 58		 jmp	 SHORT $LN1@LogAddFunc
$LN2@LogAddFunc:

; 634  : 	if( logfpTempLog == NULL ) 

  000d6	83 3d 00 00 00
	00 00		 cmp	 DWORD PTR ?logfpTempLog@@3PAU_iobuf@@A, 0
  000dd	75 1e		 jne	 SHORT $LN3@LogAddFunc

; 635  : 	{
; 636  : 		LogAdd("error-L2 : file create error %s %d",__FILE__, __LINE__);

  000df	a1 00 00 00 00	 mov	 eax, DWORD PTR ?__LINE__Var@?0??LogAddFuncTD_LogTemp@@YAXPADZZ@4JA
  000e4	83 c0 1c	 add	 eax, 28			; 0000001cH
  000e7	50		 push	 eax
  000e8	68 00 00 00 00	 push	 OFFSET ??_C@_0DK@HBACJFJF@C?3?2Mu?5Online?2Mu?9GS?9Webzen?9MC?910@
  000ed	68 00 00 00 00	 push	 OFFSET ??_C@_0CD@PBOPMGJL@error?9L2?5?3?5file?5create?5error?5?$CFs@
  000f2	ff 15 00 00 00
	00		 call	 DWORD PTR ?LogAdd@@3P6AXPADZZA ; LogAdd
  000f8	83 c4 0c	 add	 esp, 12			; 0000000cH

; 637  : 		return;	

  000fb	eb 31		 jmp	 SHORT $LN1@LogAddFunc
$LN3@LogAddFunc:

; 638  : 	}
; 639  : 	
; 640  : 	EnterCriticalSection(&LogCritical_TempLog);

  000fd	68 00 00 00 00	 push	 OFFSET ?LogCritical_TempLog@@3U_RTL_CRITICAL_SECTION@@A ; LogCritical_TempLog
  00102	ff 15 00 00 00
	00		 call	 DWORD PTR __imp__EnterCriticalSection@4

; 641  : 	fprintf(logfpTempLog, "%s\n",tmpbuf);

  00108	8d 85 ec f9 ff
	ff		 lea	 eax, DWORD PTR _tmpbuf$[ebp]
  0010e	50		 push	 eax
  0010f	68 00 00 00 00	 push	 OFFSET ??_C@_03OFAPEBGM@?$CFs?6@
  00114	8b 0d 00 00 00
	00		 mov	 ecx, DWORD PTR ?logfpTempLog@@3PAU_iobuf@@A
  0011a	51		 push	 ecx
  0011b	e8 00 00 00 00	 call	 _fprintf
  00120	83 c4 0c	 add	 esp, 12			; 0000000cH

; 642  : 	LeaveCriticalSection(&LogCritical_TempLog);

  00123	68 00 00 00 00	 push	 OFFSET ?LogCritical_TempLog@@3U_RTL_CRITICAL_SECTION@@A ; LogCritical_TempLog
  00128	ff 15 00 00 00
	00		 call	 DWORD PTR __imp__LeaveCriticalSection@4
$LN1@LogAddFunc:

; 643  : }

  0012e	5f		 pop	 edi
  0012f	5e		 pop	 esi
  00130	5b		 pop	 ebx
  00131	8b 4d fc	 mov	 ecx, DWORD PTR __$ArrayPad$[ebp]
  00134	33 cd		 xor	 ecx, ebp
  00136	e8 00 00 00 00	 call	 @__security_check_cookie@4
  0013b	8b e5		 mov	 esp, ebp
  0013d	5d		 pop	 ebp
  0013e	c3		 ret	 0
?LogAddFuncTD_LogTemp@@YAXPADZZ ENDP			; LogAddFuncTD_LogTemp
_TEXT	ENDS
; Function compile flags: /Odtp /ZI
; File C:\Mu Online\Mu-GS-Webzen-MC-10093\GameServer\logproc.cpp
;	COMDAT ?LogAddFunc_MonsterItemDrop@@YAXPADZZ
_TEXT	SEGMENT
_pArguments$ = -520					; size = 4
_szBuffer$ = -516					; size = 512
__$ArrayPad$ = -4					; size = 4
_szlog$ = 8						; size = 4
?LogAddFunc_MonsterItemDrop@@YAXPADZZ PROC		; LogAddFunc_MonsterItemDrop, COMDAT

; 577  : {

  00000	55		 push	 ebp
  00001	8b ec		 mov	 ebp, esp
  00003	81 ec 8c 02 00
	00		 sub	 esp, 652		; 0000028cH
  00009	a1 00 00 00 00	 mov	 eax, DWORD PTR ___security_cookie
  0000e	33 c5		 xor	 eax, ebp
  00010	89 45 fc	 mov	 DWORD PTR __$ArrayPad$[ebp], eax
  00013	53		 push	 ebx
  00014	56		 push	 esi
  00015	57		 push	 edi

; 578  : 	char szBuffer[512]="";

  00016	a0 00 00 00 00	 mov	 al, BYTE PTR ??_C@_00CNPNBAHC@@
  0001b	88 85 fc fd ff
	ff		 mov	 BYTE PTR _szBuffer$[ebp], al
  00021	68 ff 01 00 00	 push	 511			; 000001ffH
  00026	6a 00		 push	 0
  00028	8d 85 fd fd ff
	ff		 lea	 eax, DWORD PTR _szBuffer$[ebp+1]
  0002e	50		 push	 eax
  0002f	e8 00 00 00 00	 call	 _memset
  00034	83 c4 0c	 add	 esp, 12			; 0000000cH

; 579  : 	va_list		pArguments;
; 580  : 	
; 581  : 	va_start(pArguments, szlog);

  00037	8d 45 0c	 lea	 eax, DWORD PTR _szlog$[ebp+4]
  0003a	89 85 f8 fd ff
	ff		 mov	 DWORD PTR _pArguments$[ebp], eax

; 582  :     vsprintf(szBuffer, szlog, pArguments);

  00040	8b 85 f8 fd ff
	ff		 mov	 eax, DWORD PTR _pArguments$[ebp]
  00046	50		 push	 eax
  00047	8b 4d 08	 mov	 ecx, DWORD PTR _szlog$[ebp]
  0004a	51		 push	 ecx
  0004b	8d 95 fc fd ff
	ff		 lea	 edx, DWORD PTR _szBuffer$[ebp]
  00051	52		 push	 edx
  00052	e8 00 00 00 00	 call	 _vsprintf
  00057	83 c4 0c	 add	 esp, 12			; 0000000cH

; 583  :     va_end(pArguments);

  0005a	c7 85 f8 fd ff
	ff 00 00 00 00	 mov	 DWORD PTR _pArguments$[ebp], 0

; 584  : 
; 585  : 	EnterCriticalSection(&LogCritical_MonsterItemDrop);

  00064	68 00 00 00 00	 push	 OFFSET ?LogCritical_MonsterItemDrop@@3U_RTL_CRITICAL_SECTION@@A ; LogCritical_MonsterItemDrop
  00069	ff 15 00 00 00
	00		 call	 DWORD PTR __imp__EnterCriticalSection@4

; 586  : 	fprintf(logfp_MonsterItemDrop, "%s\n",szBuffer);

  0006f	8d 85 fc fd ff
	ff		 lea	 eax, DWORD PTR _szBuffer$[ebp]
  00075	50		 push	 eax
  00076	68 00 00 00 00	 push	 OFFSET ??_C@_03OFAPEBGM@?$CFs?6@
  0007b	8b 0d 00 00 00
	00		 mov	 ecx, DWORD PTR ?logfp_MonsterItemDrop@@3PAU_iobuf@@A
  00081	51		 push	 ecx
  00082	e8 00 00 00 00	 call	 _fprintf
  00087	83 c4 0c	 add	 esp, 12			; 0000000cH

; 587  : 	LeaveCriticalSection(&LogCritical_MonsterItemDrop);

  0008a	68 00 00 00 00	 push	 OFFSET ?LogCritical_MonsterItemDrop@@3U_RTL_CRITICAL_SECTION@@A ; LogCritical_MonsterItemDrop
  0008f	ff 15 00 00 00
	00		 call	 DWORD PTR __imp__LeaveCriticalSection@4

; 588  : }

  00095	5f		 pop	 edi
  00096	5e		 pop	 esi
  00097	5b		 pop	 ebx
  00098	8b 4d fc	 mov	 ecx, DWORD PTR __$ArrayPad$[ebp]
  0009b	33 cd		 xor	 ecx, ebp
  0009d	e8 00 00 00 00	 call	 @__security_check_cookie@4
  000a2	8b e5		 mov	 esp, ebp
  000a4	5d		 pop	 ebp
  000a5	c3		 ret	 0
?LogAddFunc_MonsterItemDrop@@YAXPADZZ ENDP		; LogAddFunc_MonsterItemDrop
_TEXT	ENDS
; Function compile flags: /Odtp /ZI
; File C:\Mu Online\Mu-GS-Webzen-MC-10093\GameServer\logproc.cpp
;	COMDAT ?LogAddLocalFuncVoid@@YAXPADZZ
_TEXT	SEGMENT
_szlog$ = 8						; size = 4
?LogAddLocalFuncVoid@@YAXPADZZ PROC			; LogAddLocalFuncVoid, COMDAT

; 380  : {

  00000	55		 push	 ebp
  00001	8b ec		 mov	 ebp, esp
  00003	83 ec 40	 sub	 esp, 64			; 00000040H
  00006	53		 push	 ebx
  00007	56		 push	 esi
  00008	57		 push	 edi

; 381  : 	return;
; 382  : }

  00009	5f		 pop	 edi
  0000a	5e		 pop	 esi
  0000b	5b		 pop	 ebx
  0000c	8b e5		 mov	 esp, ebp
  0000e	5d		 pop	 ebp
  0000f	c3		 ret	 0
?LogAddLocalFuncVoid@@YAXPADZZ ENDP			; LogAddLocalFuncVoid
_TEXT	ENDS
; Function compile flags: /Odtp /ZI
; File C:\Mu Online\Mu-GS-Webzen-MC-10093\GameServer\logproc.cpp
;	COMDAT ?LogTextPaintProcVoid@@YAXPAUHWND__@@@Z
_TEXT	SEGMENT
_hWnd$ = 8						; size = 4
?LogTextPaintProcVoid@@YAXPAUHWND__@@@Z PROC		; LogTextPaintProcVoid, COMDAT

; 494  : {

  00000	55		 push	 ebp
  00001	8b ec		 mov	 ebp, esp
  00003	83 ec 40	 sub	 esp, 64			; 00000040H
  00006	53		 push	 ebx
  00007	56		 push	 esi
  00008	57		 push	 edi

; 495  : 	return;
; 496  : }

  00009	5f		 pop	 edi
  0000a	5e		 pop	 esi
  0000b	5b		 pop	 ebx
  0000c	8b e5		 mov	 esp, ebp
  0000e	5d		 pop	 ebp
  0000f	c3		 ret	 0
?LogTextPaintProcVoid@@YAXPAUHWND__@@@Z ENDP		; LogTextPaintProcVoid
_TEXT	ENDS
; Function compile flags: /Odtp /ZI
; File C:\Mu Online\Mu-GS-Webzen-MC-10093\GameServer\logproc.cpp
;	COMDAT ?LogAddHeadHexFuncVoid@@YAXPAD0H@Z
_TEXT	SEGMENT
___formal$ = 8						; size = 4
_data$ = 12						; size = 4
_len$ = 16						; size = 4
?LogAddHeadHexFuncVoid@@YAXPAD0H@Z PROC			; LogAddHeadHexFuncVoid, COMDAT

; 419  : {

  00000	55		 push	 ebp
  00001	8b ec		 mov	 ebp, esp
  00003	83 ec 40	 sub	 esp, 64			; 00000040H
  00006	53		 push	 ebx
  00007	56		 push	 esi
  00008	57		 push	 edi

; 420  : 	return;
; 421  : }

  00009	5f		 pop	 edi
  0000a	5e		 pop	 esi
  0000b	5b		 pop	 ebx
  0000c	8b e5		 mov	 esp, ebp
  0000e	5d		 pop	 ebp
  0000f	c3		 ret	 0
?LogAddHeadHexFuncVoid@@YAXPAD0H@Z ENDP			; LogAddHeadHexFuncVoid
_TEXT	ENDS
; Function compile flags: /Odtp /ZI
; File C:\Mu Online\Mu-GS-Webzen-MC-10093\GameServer\logproc.cpp
;	COMDAT ?LogAddFuncVoid@@YAXPADZZ
_TEXT	SEGMENT
_szlog$ = 8						; size = 4
?LogAddFuncVoid@@YAXPADZZ PROC				; LogAddFuncVoid, COMDAT

; 299  : {

  00000	55		 push	 ebp
  00001	8b ec		 mov	 ebp, esp
  00003	83 ec 40	 sub	 esp, 64			; 00000040H
  00006	53		 push	 ebx
  00007	56		 push	 esi
  00008	57		 push	 edi

; 300  : 	return;
; 301  : }

  00009	5f		 pop	 edi
  0000a	5e		 pop	 esi
  0000b	5b		 pop	 ebx
  0000c	8b e5		 mov	 esp, ebp
  0000e	5d		 pop	 ebp
  0000f	c3		 ret	 0
?LogAddFuncVoid@@YAXPADZZ ENDP				; LogAddFuncVoid
_TEXT	ENDS
; Function compile flags: /Odtp /ZI
; File C:\Mu Online\Mu-GS-Webzen-MC-10093\GameServer\logproc.cpp
;	COMDAT ?MsgBox@@YAXPADZZ
_TEXT	SEGMENT
_pArguments$ = -520					; size = 4
_szBuffer$ = -516					; size = 512
__$ArrayPad$ = -4					; size = 4
_szlog$ = 8						; size = 4
?MsgBox@@YAXPADZZ PROC					; MsgBox, COMDAT

; 562  : {	

  00000	55		 push	 ebp
  00001	8b ec		 mov	 ebp, esp
  00003	81 ec 8c 02 00
	00		 sub	 esp, 652		; 0000028cH
  00009	a1 00 00 00 00	 mov	 eax, DWORD PTR ___security_cookie
  0000e	33 c5		 xor	 eax, ebp
  00010	89 45 fc	 mov	 DWORD PTR __$ArrayPad$[ebp], eax
  00013	53		 push	 ebx
  00014	56		 push	 esi
  00015	57		 push	 edi

; 563  : 	char szBuffer[512]="";

  00016	a0 00 00 00 00	 mov	 al, BYTE PTR ??_C@_00CNPNBAHC@@
  0001b	88 85 fc fd ff
	ff		 mov	 BYTE PTR _szBuffer$[ebp], al
  00021	68 ff 01 00 00	 push	 511			; 000001ffH
  00026	6a 00		 push	 0
  00028	8d 85 fd fd ff
	ff		 lea	 eax, DWORD PTR _szBuffer$[ebp+1]
  0002e	50		 push	 eax
  0002f	e8 00 00 00 00	 call	 _memset
  00034	83 c4 0c	 add	 esp, 12			; 0000000cH

; 564  : 	va_list		pArguments;
; 565  : 
; 566  : 	va_start(pArguments, szlog);

  00037	8d 45 0c	 lea	 eax, DWORD PTR _szlog$[ebp+4]
  0003a	89 85 f8 fd ff
	ff		 mov	 DWORD PTR _pArguments$[ebp], eax

; 567  :     vsprintf(szBuffer, szlog, pArguments);

  00040	8b 85 f8 fd ff
	ff		 mov	 eax, DWORD PTR _pArguments$[ebp]
  00046	50		 push	 eax
  00047	8b 4d 08	 mov	 ecx, DWORD PTR _szlog$[ebp]
  0004a	51		 push	 ecx
  0004b	8d 95 fc fd ff
	ff		 lea	 edx, DWORD PTR _szBuffer$[ebp]
  00051	52		 push	 edx
  00052	e8 00 00 00 00	 call	 _vsprintf
  00057	83 c4 0c	 add	 esp, 12			; 0000000cH

; 568  :     va_end(pArguments);

  0005a	c7 85 f8 fd ff
	ff 00 00 00 00	 mov	 DWORD PTR _pArguments$[ebp], 0

; 569  : 	
; 570  : 	MessageBox(NULL, szBuffer, "error", MB_OK);

  00064	6a 00		 push	 0
  00066	68 00 00 00 00	 push	 OFFSET ??_C@_05KKCIMGE@error@
  0006b	8d 85 fc fd ff
	ff		 lea	 eax, DWORD PTR _szBuffer$[ebp]
  00071	50		 push	 eax
  00072	6a 00		 push	 0
  00074	ff 15 00 00 00
	00		 call	 DWORD PTR __imp__MessageBoxA@16

; 571  : }

  0007a	5f		 pop	 edi
  0007b	5e		 pop	 esi
  0007c	5b		 pop	 ebx
  0007d	8b 4d fc	 mov	 ecx, DWORD PTR __$ArrayPad$[ebp]
  00080	33 cd		 xor	 ecx, ebp
  00082	e8 00 00 00 00	 call	 @__security_check_cookie@4
  00087	8b e5		 mov	 esp, ebp
  00089	5d		 pop	 ebp
  0008a	c3		 ret	 0
?MsgBox@@YAXPADZZ ENDP					; MsgBox
_TEXT	ENDS
; Function compile flags: /Odtp /ZI
; File C:\Mu Online\Mu-GS-Webzen-MC-10093\GameServer\logproc.cpp
;	COMDAT ?LogDateChange@@YAHXZ
_TEXT	SEGMENT
_ltime$ = -268						; size = 8
_today$ = -260						; size = 4
_szTemp$ = -256						; size = 250
__$ArrayPad$ = -4					; size = 4
?LogDateChange@@YAHXZ PROC				; LogDateChange, COMDAT

; 219  : {

  00000	55		 push	 ebp
  00001	8b ec		 mov	 ebp, esp
  00003	81 ec 4c 01 00
	00		 sub	 esp, 332		; 0000014cH
  00009	a1 00 00 00 00	 mov	 eax, DWORD PTR ___security_cookie
  0000e	33 c5		 xor	 eax, ebp
  00010	89 45 fc	 mov	 DWORD PTR __$ArrayPad$[ebp], eax
  00013	53		 push	 ebx
  00014	56		 push	 esi
  00015	57		 push	 edi

; 220  : 	char szTemp[250];
; 221  : 	struct tm *today;
; 222  : 	time_t ltime;
; 223  : 	
; 224  : 	time( &ltime );

  00016	8d 85 f4 fe ff
	ff		 lea	 eax, DWORD PTR _ltime$[ebp]
  0001c	50		 push	 eax
  0001d	e8 00 00 00 00	 call	 _time
  00022	83 c4 04	 add	 esp, 4

; 225  : 	today = localtime( &ltime );

  00025	8d 85 f4 fe ff
	ff		 lea	 eax, DWORD PTR _ltime$[ebp]
  0002b	50		 push	 eax
  0002c	e8 00 00 00 00	 call	 _localtime
  00031	83 c4 04	 add	 esp, 4
  00034	89 85 fc fe ff
	ff		 mov	 DWORD PTR _today$[ebp], eax

; 226  : 	
; 227  : 	today->tm_year += 1900;

  0003a	8b 85 fc fe ff
	ff		 mov	 eax, DWORD PTR _today$[ebp]
  00040	8b 48 14	 mov	 ecx, DWORD PTR [eax+20]
  00043	81 c1 6c 07 00
	00		 add	 ecx, 1900		; 0000076cH
  00049	8b 95 fc fe ff
	ff		 mov	 edx, DWORD PTR _today$[ebp]
  0004f	89 4a 14	 mov	 DWORD PTR [edx+20], ecx

; 228  : 	today->tm_mon  += 1;

  00052	8b 85 fc fe ff
	ff		 mov	 eax, DWORD PTR _today$[ebp]
  00058	8b 48 10	 mov	 ecx, DWORD PTR [eax+16]
  0005b	83 c1 01	 add	 ecx, 1
  0005e	8b 95 fc fe ff
	ff		 mov	 edx, DWORD PTR _today$[ebp]
  00064	89 4a 10	 mov	 DWORD PTR [edx+16], ecx

; 229  : 
; 230  : 	if( (today->tm_year <= LogMYear) && 
; 231  : 		(today->tm_mon  <= LogMonth) &&

  00067	8b 85 fc fe ff
	ff		 mov	 eax, DWORD PTR _today$[ebp]
  0006d	8b 48 14	 mov	 ecx, DWORD PTR [eax+20]
  00070	3b 0d 00 00 00
	00		 cmp	 ecx, DWORD PTR ?LogMYear@@3HA ; LogMYear
  00076	7f 29		 jg	 SHORT $LN2@LogDateCha
  00078	8b 85 fc fe ff
	ff		 mov	 eax, DWORD PTR _today$[ebp]
  0007e	8b 48 10	 mov	 ecx, DWORD PTR [eax+16]
  00081	3b 0d 00 00 00
	00		 cmp	 ecx, DWORD PTR ?LogMonth@@3HA ; LogMonth
  00087	7f 18		 jg	 SHORT $LN2@LogDateCha
  00089	8b 85 fc fe ff
	ff		 mov	 eax, DWORD PTR _today$[ebp]
  0008f	8b 48 0c	 mov	 ecx, DWORD PTR [eax+12]
  00092	3b 0d 00 00 00
	00		 cmp	 ecx, DWORD PTR ?LogMDay@@3HA ; LogMDay
  00098	7f 07		 jg	 SHORT $LN2@LogDateCha

; 232  : 		(today->tm_mday <= LogMDay) )
; 233  : 	{
; 234  : 		return FALSE;

  0009a	33 c0		 xor	 eax, eax
  0009c	e9 56 01 00 00	 jmp	 $LN1@LogDateCha
$LN2@LogDateCha:

; 235  : 	}
; 236  : 	
; 237  : 	LogMYear = today->tm_year;

  000a1	8b 85 fc fe ff
	ff		 mov	 eax, DWORD PTR _today$[ebp]
  000a7	8b 48 14	 mov	 ecx, DWORD PTR [eax+20]
  000aa	89 0d 00 00 00
	00		 mov	 DWORD PTR ?LogMYear@@3HA, ecx ; LogMYear

; 238  : 	LogMonth = today->tm_mon;

  000b0	8b 85 fc fe ff
	ff		 mov	 eax, DWORD PTR _today$[ebp]
  000b6	8b 48 10	 mov	 ecx, DWORD PTR [eax+16]
  000b9	89 0d 00 00 00
	00		 mov	 DWORD PTR ?LogMonth@@3HA, ecx ; LogMonth

; 239  : 	LogMDay  = today->tm_mday;

  000bf	8b 85 fc fe ff
	ff		 mov	 eax, DWORD PTR _today$[ebp]
  000c5	8b 48 0c	 mov	 ecx, DWORD PTR [eax+12]
  000c8	89 0d 00 00 00
	00		 mov	 DWORD PTR ?LogMDay@@3HA, ecx ; LogMDay

; 240  : 
; 241  : 	wsprintf(szTemp, "log\\%02d%02d%02d_%s.log",LogMYear, LogMonth,LogMDay,szServerName);

  000ce	68 00 00 00 00	 push	 OFFSET ?szServerName@@3PADA ; szServerName
  000d3	a1 00 00 00 00	 mov	 eax, DWORD PTR ?LogMDay@@3HA ; LogMDay
  000d8	50		 push	 eax
  000d9	8b 0d 00 00 00
	00		 mov	 ecx, DWORD PTR ?LogMonth@@3HA ; LogMonth
  000df	51		 push	 ecx
  000e0	8b 15 00 00 00
	00		 mov	 edx, DWORD PTR ?LogMYear@@3HA ; LogMYear
  000e6	52		 push	 edx
  000e7	68 00 00 00 00	 push	 OFFSET ??_C@_0BI@IJDLMAIK@log?2?$CF02d?$CF02d?$CF02d_?$CFs?4log@
  000ec	8d 85 00 ff ff
	ff		 lea	 eax, DWORD PTR _szTemp$[ebp]
  000f2	50		 push	 eax
  000f3	ff 15 00 00 00
	00		 call	 DWORD PTR __imp__wsprintfA
  000f9	83 c4 18	 add	 esp, 24			; 00000018H

; 242  : 
; 243  : 	EnterCriticalSection(&LogCritical);

  000fc	68 00 00 00 00	 push	 OFFSET ?LogCritical@@3U_RTL_CRITICAL_SECTION@@A ; LogCritical
  00101	ff 15 00 00 00
	00		 call	 DWORD PTR __imp__EnterCriticalSection@4

; 244  : 	if( logfp!=NULL ) {

  00107	83 3d 00 00 00
	00 00		 cmp	 DWORD PTR ?logfp@@3PAU_iobuf@@A, 0
  0010e	74 18		 je	 SHORT $LN3@LogDateCha

; 245  : 		fclose(logfp);

  00110	a1 00 00 00 00	 mov	 eax, DWORD PTR ?logfp@@3PAU_iobuf@@A
  00115	50		 push	 eax
  00116	e8 00 00 00 00	 call	 _fclose
  0011b	83 c4 04	 add	 esp, 4

; 246  : 		logfp = NULL;

  0011e	c7 05 00 00 00
	00 00 00 00 00	 mov	 DWORD PTR ?logfp@@3PAU_iobuf@@A, 0
$LN3@LogDateCha:

; 247  : 	}
; 248  : 	
; 249  : 	logfp = fopen(szTemp, "a+t");

  00128	68 00 00 00 00	 push	 OFFSET ??_C@_03CCGKKFHG@a?$CLt@
  0012d	8d 85 00 ff ff
	ff		 lea	 eax, DWORD PTR _szTemp$[ebp]
  00133	50		 push	 eax
  00134	e8 00 00 00 00	 call	 _fopen
  00139	83 c4 08	 add	 esp, 8
  0013c	a3 00 00 00 00	 mov	 DWORD PTR ?logfp@@3PAU_iobuf@@A, eax

; 250  : 	if( logfp == NULL )
; 251  : 	{
; 252  : 		//MsgBox("로그 파일 생성 에러");
; 253  : 	}
; 254  : 	strcpy(m_szLogFileName, szTemp);

  00141	8d 85 00 ff ff
	ff		 lea	 eax, DWORD PTR _szTemp$[ebp]
  00147	50		 push	 eax
  00148	68 00 00 00 00	 push	 OFFSET ?m_szLogFileName@@3PADA
  0014d	e8 00 00 00 00	 call	 _strcpy
  00152	83 c4 08	 add	 esp, 8

; 255  : 
; 256  : 	LeaveCriticalSection(&LogCritical);

  00155	68 00 00 00 00	 push	 OFFSET ?LogCritical@@3U_RTL_CRITICAL_SECTION@@A ; LogCritical
  0015a	ff 15 00 00 00
	00		 call	 DWORD PTR __imp__LeaveCriticalSection@4

; 257  : 
; 258  : #ifdef MONSTER_ITEMDROP_LOG_20040309
; 259  : 	EnterCriticalSection(&LogCritical_MonsterItemDrop);

  00160	68 00 00 00 00	 push	 OFFSET ?LogCritical_MonsterItemDrop@@3U_RTL_CRITICAL_SECTION@@A ; LogCritical_MonsterItemDrop
  00165	ff 15 00 00 00
	00		 call	 DWORD PTR __imp__EnterCriticalSection@4

; 260  : 
; 261  : 	wsprintf(szTemp, "log\\%02d%02d%02d_%s_MITD.log",LogMYear, LogMonth,LogMDay,szServerName);

  0016b	68 00 00 00 00	 push	 OFFSET ?szServerName@@3PADA ; szServerName
  00170	a1 00 00 00 00	 mov	 eax, DWORD PTR ?LogMDay@@3HA ; LogMDay
  00175	50		 push	 eax
  00176	8b 0d 00 00 00
	00		 mov	 ecx, DWORD PTR ?LogMonth@@3HA ; LogMonth
  0017c	51		 push	 ecx
  0017d	8b 15 00 00 00
	00		 mov	 edx, DWORD PTR ?LogMYear@@3HA ; LogMYear
  00183	52		 push	 edx
  00184	68 00 00 00 00	 push	 OFFSET ??_C@_0BN@JHAICDMH@log?2?$CF02d?$CF02d?$CF02d_?$CFs_MITD?4log@
  00189	8d 85 00 ff ff
	ff		 lea	 eax, DWORD PTR _szTemp$[ebp]
  0018f	50		 push	 eax
  00190	ff 15 00 00 00
	00		 call	 DWORD PTR __imp__wsprintfA
  00196	83 c4 18	 add	 esp, 24			; 00000018H

; 262  : 
; 263  : 	if( logfp_MonsterItemDrop!=NULL ) {

  00199	83 3d 00 00 00
	00 00		 cmp	 DWORD PTR ?logfp_MonsterItemDrop@@3PAU_iobuf@@A, 0
  001a0	74 18		 je	 SHORT $LN5@LogDateCha

; 264  : 		fclose(logfp_MonsterItemDrop);

  001a2	a1 00 00 00 00	 mov	 eax, DWORD PTR ?logfp_MonsterItemDrop@@3PAU_iobuf@@A
  001a7	50		 push	 eax
  001a8	e8 00 00 00 00	 call	 _fclose
  001ad	83 c4 04	 add	 esp, 4

; 265  : 		logfp_MonsterItemDrop = NULL;

  001b0	c7 05 00 00 00
	00 00 00 00 00	 mov	 DWORD PTR ?logfp_MonsterItemDrop@@3PAU_iobuf@@A, 0
$LN5@LogDateCha:

; 266  : 	}
; 267  : 	
; 268  : 	logfp_MonsterItemDrop = fopen(szTemp, "a+t");

  001ba	68 00 00 00 00	 push	 OFFSET ??_C@_03CCGKKFHG@a?$CLt@
  001bf	8d 85 00 ff ff
	ff		 lea	 eax, DWORD PTR _szTemp$[ebp]
  001c5	50		 push	 eax
  001c6	e8 00 00 00 00	 call	 _fopen
  001cb	83 c4 08	 add	 esp, 8
  001ce	a3 00 00 00 00	 mov	 DWORD PTR ?logfp_MonsterItemDrop@@3PAU_iobuf@@A, eax

; 269  : 	if( logfp_MonsterItemDrop == NULL )
; 270  : 	{
; 271  : 		//MsgBox("로그 파일 생성 에러");
; 272  : 	}
; 273  : 	strcpy(m_szLogFileName_MonsterItemDrop, szTemp);

  001d3	8d 85 00 ff ff
	ff		 lea	 eax, DWORD PTR _szTemp$[ebp]
  001d9	50		 push	 eax
  001da	68 00 00 00 00	 push	 OFFSET ?m_szLogFileName_MonsterItemDrop@@3PADA
  001df	e8 00 00 00 00	 call	 _strcpy
  001e4	83 c4 08	 add	 esp, 8

; 274  : 
; 275  : 	LeaveCriticalSection(&LogCritical_MonsterItemDrop);

  001e7	68 00 00 00 00	 push	 OFFSET ?LogCritical_MonsterItemDrop@@3U_RTL_CRITICAL_SECTION@@A ; LogCritical_MonsterItemDrop
  001ec	ff 15 00 00 00
	00		 call	 DWORD PTR __imp__LeaveCriticalSection@4

; 276  : #endif
; 277  : 
; 278  : 	return TRUE;

  001f2	b8 01 00 00 00	 mov	 eax, 1
$LN1@LogDateCha:

; 279  : }

  001f7	5f		 pop	 edi
  001f8	5e		 pop	 esi
  001f9	5b		 pop	 ebx
  001fa	8b 4d fc	 mov	 ecx, DWORD PTR __$ArrayPad$[ebp]
  001fd	33 cd		 xor	 ecx, ebp
  001ff	e8 00 00 00 00	 call	 @__security_check_cookie@4
  00204	8b e5		 mov	 esp, ebp
  00206	5d		 pop	 ebp
  00207	c3		 ret	 0
?LogDateChange@@YAHXZ ENDP				; LogDateChange
_TEXT	ENDS
; Function compile flags: /Odtp /ZI
; File C:\Mu Online\Mu-GS-Webzen-MC-10093\GameServer\logproc.cpp
;	COMDAT ?LogTextClear@@YAXXZ
_TEXT	SEGMENT
$T1 = -76						; size = 4
$T2 = -72						; size = 4
_n$ = -4						; size = 4
?LogTextClear@@YAXXZ PROC				; LogTextClear, COMDAT

; 483  : {

  00000	55		 push	 ebp
  00001	8b ec		 mov	 ebp, esp
  00003	83 ec 4c	 sub	 esp, 76			; 0000004cH
  00006	53		 push	 ebx
  00007	56		 push	 esi
  00008	57		 push	 edi

; 484  : 	int n;
; 485  : 	for( n=0; n<MAXLOGTEXT; n++)

  00009	c7 45 fc 00 00
	00 00		 mov	 DWORD PTR _n$[ebp], 0
  00010	eb 09		 jmp	 SHORT $LN4@LogTextCle
$LN2@LogTextCle:
  00012	8b 45 fc	 mov	 eax, DWORD PTR _n$[ebp]
  00015	83 c0 01	 add	 eax, 1
  00018	89 45 fc	 mov	 DWORD PTR _n$[ebp], eax
$LN4@LogTextCle:
  0001b	83 7d fc 1e	 cmp	 DWORD PTR _n$[ebp], 30	; 0000001eH
  0001f	7d 56		 jge	 SHORT $LN5@LogTextCle

; 486  : 	{
; 487  : 		memset(LogText[n], 0, MAXLOGTEXTC);

  00021	6a 50		 push	 80			; 00000050H
  00023	6a 00		 push	 0
  00025	6b 45 fc 51	 imul	 eax, DWORD PTR _n$[ebp], 81
  00029	05 00 00 00 00	 add	 eax, OFFSET ?LogText@@3PAY0FB@DA ; LogText
  0002e	50		 push	 eax
  0002f	e8 00 00 00 00	 call	 _memset
  00034	83 c4 0c	 add	 esp, 12			; 0000000cH

; 488  : 		LogTextLength[n] = 0;

  00037	8b 45 fc	 mov	 eax, DWORD PTR _n$[ebp]
  0003a	d1 e0		 shl	 eax, 1
  0003c	89 45 b8	 mov	 DWORD PTR $T2[ebp], eax
  0003f	83 7d b8 3c	 cmp	 DWORD PTR $T2[ebp], 60	; 0000003cH
  00043	73 02		 jae	 SHORT $LN6@LogTextCle
  00045	eb 05		 jmp	 SHORT $LN7@LogTextCle
$LN6@LogTextCle:
  00047	e8 00 00 00 00	 call	 ___report_rangecheckfailure
$LN7@LogTextCle:
  0004c	33 c9		 xor	 ecx, ecx
  0004e	8b 55 b8	 mov	 edx, DWORD PTR $T2[ebp]
  00051	66 89 8a 00 00
	00 00		 mov	 WORD PTR ?LogTextLength@@3PAFA[edx], cx

; 489  : 		LogTextViewType[n] = 0;

  00058	8b 45 fc	 mov	 eax, DWORD PTR _n$[ebp]
  0005b	89 45 b4	 mov	 DWORD PTR $T1[ebp], eax
  0005e	83 7d b4 1e	 cmp	 DWORD PTR $T1[ebp], 30	; 0000001eH
  00062	73 02		 jae	 SHORT $LN8@LogTextCle
  00064	eb 05		 jmp	 SHORT $LN9@LogTextCle
$LN8@LogTextCle:
  00066	e8 00 00 00 00	 call	 ___report_rangecheckfailure
$LN9@LogTextCle:
  0006b	8b 4d b4	 mov	 ecx, DWORD PTR $T1[ebp]
  0006e	c6 81 00 00 00
	00 00		 mov	 BYTE PTR ?LogTextViewType@@3PAEA[ecx], 0

; 490  : 	}	

  00075	eb 9b		 jmp	 SHORT $LN2@LogTextCle
$LN5@LogTextCle:

; 491  : }

  00077	5f		 pop	 edi
  00078	5e		 pop	 esi
  00079	5b		 pop	 ebx
  0007a	8b e5		 mov	 esp, ebp
  0007c	5d		 pop	 ebp
  0007d	c3		 ret	 0
?LogTextClear@@YAXXZ ENDP				; LogTextClear
_TEXT	ENDS
; Function compile flags: /Odtp /ZI
; File C:\Mu Online\Mu-GS-Webzen-MC-10093\GameServer\logproc.cpp
;	COMDAT ?LogClose@@YAXXZ
_TEXT	SEGMENT
?LogClose@@YAXXZ PROC					; LogClose, COMDAT

; 543  : {

  00000	55		 push	 ebp
  00001	8b ec		 mov	 ebp, esp
  00003	83 ec 40	 sub	 esp, 64			; 00000040H
  00006	53		 push	 ebx
  00007	56		 push	 esi
  00008	57		 push	 edi

; 544  : 	if( logfp != NULL )

  00009	83 3d 00 00 00
	00 00		 cmp	 DWORD PTR ?logfp@@3PAU_iobuf@@A, 0
  00010	74 0e		 je	 SHORT $LN2@LogClose

; 545  : 		fclose(logfp);

  00012	a1 00 00 00 00	 mov	 eax, DWORD PTR ?logfp@@3PAU_iobuf@@A
  00017	50		 push	 eax
  00018	e8 00 00 00 00	 call	 _fclose
  0001d	83 c4 04	 add	 esp, 4
$LN2@LogClose:

; 546  : 
; 547  : 	DeleteCriticalSection(&LogCritical);

  00020	68 00 00 00 00	 push	 OFFSET ?LogCritical@@3U_RTL_CRITICAL_SECTION@@A ; LogCritical
  00025	ff 15 00 00 00
	00		 call	 DWORD PTR __imp__DeleteCriticalSection@4

; 548  : #ifdef MONSTER_ITEMDROP_LOG_20040309
; 549  : 	DeleteCriticalSection(&LogCritical_MonsterItemDrop);

  0002b	68 00 00 00 00	 push	 OFFSET ?LogCritical_MonsterItemDrop@@3U_RTL_CRITICAL_SECTION@@A ; LogCritical_MonsterItemDrop
  00030	ff 15 00 00 00
	00		 call	 DWORD PTR __imp__DeleteCriticalSection@4

; 550  : #endif
; 551  : 
; 552  : #ifdef MODIFY_CONNNECT_HACK_ATTACK_20090409
; 553  : 	if(logfpTempLog != NULL)

  00036	83 3d 00 00 00
	00 00		 cmp	 DWORD PTR ?logfpTempLog@@3PAU_iobuf@@A, 0
  0003d	74 0e		 je	 SHORT $LN3@LogClose

; 554  : 		fclose(logfpTempLog);

  0003f	a1 00 00 00 00	 mov	 eax, DWORD PTR ?logfpTempLog@@3PAU_iobuf@@A
  00044	50		 push	 eax
  00045	e8 00 00 00 00	 call	 _fclose
  0004a	83 c4 04	 add	 esp, 4
$LN3@LogClose:

; 555  : 	
; 556  : 	DeleteCriticalSection(&LogCritical_TempLog);

  0004d	68 00 00 00 00	 push	 OFFSET ?LogCritical_TempLog@@3U_RTL_CRITICAL_SECTION@@A ; LogCritical_TempLog
  00052	ff 15 00 00 00
	00		 call	 DWORD PTR __imp__DeleteCriticalSection@4

; 557  : #endif
; 558  : 	
; 559  : }

  00058	5f		 pop	 edi
  00059	5e		 pop	 esi
  0005a	5b		 pop	 ebx
  0005b	8b e5		 mov	 esp, ebp
  0005d	5d		 pop	 ebp
  0005e	c3		 ret	 0
?LogClose@@YAXXZ ENDP					; LogClose
_TEXT	ENDS
; Function compile flags: /Odtp /ZI
; File C:\Mu Online\Mu-GS-Webzen-MC-10093\GameServer\logproc.cpp
;	COMDAT ?LogGetFileName@@YAPADXZ
_TEXT	SEGMENT
?LogGetFileName@@YAPADXZ PROC				; LogGetFileName, COMDAT

; 534  : {

  00000	55		 push	 ebp
  00001	8b ec		 mov	 ebp, esp
  00003	83 ec 40	 sub	 esp, 64			; 00000040H
  00006	53		 push	 ebx
  00007	56		 push	 esi
  00008	57		 push	 edi

; 535  : #ifdef _DEBUG
; 536  : 	return m_szLogFileName;
; 537  : #endif
; 538  : 	return NULL;

  00009	33 c0		 xor	 eax, eax

; 539  : }

  0000b	5f		 pop	 edi
  0000c	5e		 pop	 esi
  0000d	5b		 pop	 ebx
  0000e	8b e5		 mov	 esp, ebp
  00010	5d		 pop	 ebp
  00011	c3		 ret	 0
?LogGetFileName@@YAPADXZ ENDP				; LogGetFileName
_TEXT	ENDS
; Function compile flags: /Odtp /ZI
; File C:\Mu Online\Mu-GS-Webzen-MC-10093\GameServer\logproc.cpp
;	COMDAT ?LogInit@@YAXH@Z
_TEXT	SEGMENT
$T1 = -76						; size = 4
$T2 = -72						; size = 4
_n$ = -4						; size = 4
_logprint$ = 8						; size = 4
?LogInit@@YAXH@Z PROC					; LogInit, COMDAT

; 92   : {

  00000	55		 push	 ebp
  00001	8b ec		 mov	 ebp, esp
  00003	83 ec 4c	 sub	 esp, 76			; 0000004cH
  00006	53		 push	 ebx
  00007	56		 push	 esi
  00008	57		 push	 edi

; 93   : 	int n;
; 94   : 
; 95   : 	InitializeCriticalSection(&LogCritical);

  00009	68 00 00 00 00	 push	 OFFSET ?LogCritical@@3U_RTL_CRITICAL_SECTION@@A ; LogCritical
  0000e	ff 15 00 00 00
	00		 call	 DWORD PTR __imp__InitializeCriticalSection@4

; 96   : #ifdef MONSTER_ITEMDROP_LOG_20040309
; 97   : 	InitializeCriticalSection(&LogCritical_MonsterItemDrop);

  00014	68 00 00 00 00	 push	 OFFSET ?LogCritical_MonsterItemDrop@@3U_RTL_CRITICAL_SECTION@@A ; LogCritical_MonsterItemDrop
  00019	ff 15 00 00 00
	00		 call	 DWORD PTR __imp__InitializeCriticalSection@4

; 98   : #endif
; 99   : 
; 100  : #ifdef MODIFY_CONNNECT_HACK_ATTACK_20090409
; 101  : 	InitializeCriticalSection(&LogCritical_TempLog);

  0001f	68 00 00 00 00	 push	 OFFSET ?LogCritical_TempLog@@3U_RTL_CRITICAL_SECTION@@A ; LogCritical_TempLog
  00024	ff 15 00 00 00
	00		 call	 DWORD PTR __imp__InitializeCriticalSection@4

; 102  : #endif
; 103  : 
; 104  : 	if( logprint )		// 로그를 출력할 것인가 아닌가 ?

  0002a	83 7d 08 00	 cmp	 DWORD PTR _logprint$[ebp], 0
  0002e	0f 84 bc 00 00
	00		 je	 $LN5@LogInit

; 105  : 	{
; 106  : 
; 107  : 		LogAdd			= LogAddFunc;

  00034	c7 05 00 00 00
	00 00 00 00 00	 mov	 DWORD PTR ?LogAdd@@3P6AXPADZZA, OFFSET ?LogAddFunc@@YAXPADZZ ; LogAdd, LogAddFunc

; 108  : 		LogAddC			= LogAddFuncColor;

  0003e	c7 05 00 00 00
	00 00 00 00 00	 mov	 DWORD PTR ?LogAddC@@3P6AXEPADZZA, OFFSET ?LogAddFuncColor@@YAXEPADZZ ; LogAddC, LogAddFuncColor

; 109  : 		LogAddTD		= LogAddTimeDateFunc;

  00048	c7 05 00 00 00
	00 00 00 00 00	 mov	 DWORD PTR ?LogAddTD@@3P6AXPADZZA, OFFSET ?LogAddTimeDateFunc@@YAXPADZZ ; LogAddTD, LogAddTimeDateFunc

; 110  : 		LogAddHeadHex	= LogAddStrHexFunc;

  00052	c7 05 00 00 00
	00 00 00 00 00	 mov	 DWORD PTR ?LogAddHeadHex@@3P6AXPAD0H@ZA, OFFSET ?LogAddStrHexFunc@@YAXPAD0H@Z ; LogAddHeadHex, LogAddStrHexFunc

; 111  : 		LogTextPaint	= LogTextPaintProc;

  0005c	c7 05 00 00 00
	00 00 00 00 00	 mov	 DWORD PTR ?LogTextPaint@@3P6AXPAUHWND__@@@ZA, OFFSET ?LogTextPaintProc@@YAXPAUHWND__@@@Z ; LogTextPaint, LogTextPaintProc

; 112  : 		LogAddL			= LogAddLocalFunc;

  00066	c7 05 00 00 00
	00 00 00 00 00	 mov	 DWORD PTR ?LogAddL@@3P6AXPADZZA, OFFSET ?LogAddLocalFunc@@YAXPADZZ ; LogAddL, LogAddLocalFunc

; 113  : 
; 114  : 		for( n=0; n<MAXLOGTEXT; n++)

  00070	c7 45 fc 00 00
	00 00		 mov	 DWORD PTR _n$[ebp], 0
  00077	eb 09		 jmp	 SHORT $LN4@LogInit
$LN2@LogInit:
  00079	8b 45 fc	 mov	 eax, DWORD PTR _n$[ebp]
  0007c	83 c0 01	 add	 eax, 1
  0007f	89 45 fc	 mov	 DWORD PTR _n$[ebp], eax
$LN4@LogInit:
  00082	83 7d fc 1e	 cmp	 DWORD PTR _n$[ebp], 30	; 0000001eH
  00086	7d 56		 jge	 SHORT $LN3@LogInit

; 115  : 		{
; 116  : 			memset(LogText[n], 0, MAXLOGTEXTC);

  00088	6a 50		 push	 80			; 00000050H
  0008a	6a 00		 push	 0
  0008c	6b 45 fc 51	 imul	 eax, DWORD PTR _n$[ebp], 81
  00090	05 00 00 00 00	 add	 eax, OFFSET ?LogText@@3PAY0FB@DA ; LogText
  00095	50		 push	 eax
  00096	e8 00 00 00 00	 call	 _memset
  0009b	83 c4 0c	 add	 esp, 12			; 0000000cH

; 117  : 			LogTextLength[n] = 0;

  0009e	8b 45 fc	 mov	 eax, DWORD PTR _n$[ebp]
  000a1	d1 e0		 shl	 eax, 1
  000a3	89 45 b8	 mov	 DWORD PTR $T2[ebp], eax
  000a6	83 7d b8 3c	 cmp	 DWORD PTR $T2[ebp], 60	; 0000003cH
  000aa	73 02		 jae	 SHORT $LN9@LogInit
  000ac	eb 05		 jmp	 SHORT $LN10@LogInit
$LN9@LogInit:
  000ae	e8 00 00 00 00	 call	 ___report_rangecheckfailure
$LN10@LogInit:
  000b3	33 c9		 xor	 ecx, ecx
  000b5	8b 55 b8	 mov	 edx, DWORD PTR $T2[ebp]
  000b8	66 89 8a 00 00
	00 00		 mov	 WORD PTR ?LogTextLength@@3PAFA[edx], cx

; 118  : 			LogTextViewType[n] = 0;

  000bf	8b 45 fc	 mov	 eax, DWORD PTR _n$[ebp]
  000c2	89 45 b4	 mov	 DWORD PTR $T1[ebp], eax
  000c5	83 7d b4 1e	 cmp	 DWORD PTR $T1[ebp], 30	; 0000001eH
  000c9	73 02		 jae	 SHORT $LN11@LogInit
  000cb	eb 05		 jmp	 SHORT $LN12@LogInit
$LN11@LogInit:
  000cd	e8 00 00 00 00	 call	 ___report_rangecheckfailure
$LN12@LogInit:
  000d2	8b 4d b4	 mov	 ecx, DWORD PTR $T1[ebp]
  000d5	c6 81 00 00 00
	00 00		 mov	 BYTE PTR ?LogTextViewType@@3PAEA[ecx], 0

; 119  : 		}

  000dc	eb 9b		 jmp	 SHORT $LN2@LogInit
$LN3@LogInit:

; 120  : 		if( gLogOutType == 0 ) return; // 파일까지 출력할땐	

  000de	83 3d 00 00 00
	00 00		 cmp	 DWORD PTR ?gLogOutType@@3HA, 0 ; gLogOutType
  000e5	75 02		 jne	 SHORT $LN7@LogInit
  000e7	eb 4d		 jmp	 SHORT $LN8@LogInit
$LN7@LogInit:

; 121  : 
; 122  : 
; 123  : 		LogDataSet();

  000e9	e8 00 00 00 00	 call	 ?LogDataSet@@YAXXZ	; LogDataSet

; 124  : 	}

  000ee	eb 32		 jmp	 SHORT $LN6@LogInit
$LN5@LogInit:

; 125  : 	else
; 126  : 	{
; 127  : 		LogAdd			= LogAddFuncVoid;

  000f0	c7 05 00 00 00
	00 00 00 00 00	 mov	 DWORD PTR ?LogAdd@@3P6AXPADZZA, OFFSET ?LogAddFuncVoid@@YAXPADZZ ; LogAdd, LogAddFuncVoid

; 128  : 		LogAddHeadHex	= LogAddHeadHexFuncVoid;

  000fa	c7 05 00 00 00
	00 00 00 00 00	 mov	 DWORD PTR ?LogAddHeadHex@@3P6AXPAD0H@ZA, OFFSET ?LogAddHeadHexFuncVoid@@YAXPAD0H@Z ; LogAddHeadHex, LogAddHeadHexFuncVoid

; 129  : 		LogTextPaint	= LogTextPaintProcVoid;

  00104	c7 05 00 00 00
	00 00 00 00 00	 mov	 DWORD PTR ?LogTextPaint@@3P6AXPAUHWND__@@@ZA, OFFSET ?LogTextPaintProcVoid@@YAXPAUHWND__@@@Z ; LogTextPaint, LogTextPaintProcVoid

; 130  : 		LogAddTD		= LogAddTimeDateVoid;

  0010e	c7 05 00 00 00
	00 00 00 00 00	 mov	 DWORD PTR ?LogAddTD@@3P6AXPADZZA, OFFSET ?LogAddTimeDateVoid@@YAXPADZZ ; LogAddTD, LogAddTimeDateVoid

; 131  : 		LogAddL			= LogAddLocalFuncVoid;

  00118	c7 05 00 00 00
	00 00 00 00 00	 mov	 DWORD PTR ?LogAddL@@3P6AXPADZZA, OFFSET ?LogAddLocalFuncVoid@@YAXPADZZ ; LogAddL, LogAddLocalFuncVoid
$LN6@LogInit:

; 132  : 		
; 133  : 	}
; 134  : 
; 135  : #ifdef MONSTER_ITEMDROP_LOG_20040309
; 136  : 	LogAdd_MonsterItemDrop	= LogAddFunc_MonsterItemDrop;

  00122	c7 05 00 00 00
	00 00 00 00 00	 mov	 DWORD PTR ?LogAdd_MonsterItemDrop@@3P6AXPADZZA, OFFSET ?LogAddFunc_MonsterItemDrop@@YAXPADZZ ; LogAdd_MonsterItemDrop, LogAddFunc_MonsterItemDrop

; 137  : #endif
; 138  : 
; 139  : #ifdef MODIFY_CONNNECT_HACK_ATTACK_20090409
; 140  : 	LogAddTD_TempLog = LogAddFuncTD_LogTemp;

  0012c	c7 05 00 00 00
	00 00 00 00 00	 mov	 DWORD PTR ?LogAddTD_TempLog@@3P6AXPADZZA, OFFSET ?LogAddFuncTD_LogTemp@@YAXPADZZ ; LogAddTD_TempLog, LogAddFuncTD_LogTemp
$LN8@LogInit:

; 141  : #endif
; 142  : 	
; 143  : }

  00136	5f		 pop	 edi
  00137	5e		 pop	 esi
  00138	5b		 pop	 ebx
  00139	8b e5		 mov	 esp, ebp
  0013b	5d		 pop	 ebp
  0013c	c3		 ret	 0
?LogInit@@YAXH@Z ENDP					; LogInit
_TEXT	ENDS
; Function compile flags: /Odtp /ZI
; File C:\Program Files (x86)\Windows Kits\10\Include\10.0.18362.0\ucrt\time.h
;	COMDAT _time
_TEXT	SEGMENT
__Time$ = 8						; size = 4
_time	PROC						; COMDAT

; 535  :         {

  00000	55		 push	 ebp
  00001	8b ec		 mov	 ebp, esp
  00003	83 ec 40	 sub	 esp, 64			; 00000040H
  00006	53		 push	 ebx
  00007	56		 push	 esi
  00008	57		 push	 edi

; 536  :             return _time64(_Time);

  00009	8b 45 08	 mov	 eax, DWORD PTR __Time$[ebp]
  0000c	50		 push	 eax
  0000d	e8 00 00 00 00	 call	 __time64
  00012	83 c4 04	 add	 esp, 4

; 537  :         }

  00015	5f		 pop	 edi
  00016	5e		 pop	 esi
  00017	5b		 pop	 ebx
  00018	8b e5		 mov	 esp, ebp
  0001a	5d		 pop	 ebp
  0001b	c3		 ret	 0
_time	ENDP
_TEXT	ENDS
; Function compile flags: /Odtp /ZI
; File C:\Program Files (x86)\Windows Kits\10\Include\10.0.18362.0\ucrt\time.h
;	COMDAT _localtime
_TEXT	SEGMENT
__Time$ = 8						; size = 4
_localtime PROC						; COMDAT

; 509  :         {

  00000	55		 push	 ebp
  00001	8b ec		 mov	 ebp, esp
  00003	83 ec 40	 sub	 esp, 64			; 00000040H
  00006	53		 push	 ebx
  00007	56		 push	 esi
  00008	57		 push	 edi

; 510  :             #pragma warning(push)
; 511  :             #pragma warning(disable: 4996)
; 512  :             return _localtime64(_Time);

  00009	8b 45 08	 mov	 eax, DWORD PTR __Time$[ebp]
  0000c	50		 push	 eax
  0000d	e8 00 00 00 00	 call	 __localtime64
  00012	83 c4 04	 add	 esp, 4

; 513  :             #pragma warning(pop)
; 514  :         }

  00015	5f		 pop	 edi
  00016	5e		 pop	 esi
  00017	5b		 pop	 ebx
  00018	8b e5		 mov	 esp, ebp
  0001a	5d		 pop	 ebp
  0001b	c3		 ret	 0
_localtime ENDP
_TEXT	ENDS
; Function compile flags: /Odtp /ZI
; File C:\Program Files (x86)\Windows Kits\10\Include\10.0.18362.0\ucrt\stdio.h
;	COMDAT _vsprintf
_TEXT	SEGMENT
__Buffer$ = 8						; size = 4
__Format$ = 12						; size = 4
__ArgList$ = 16						; size = 4
_vsprintf PROC						; COMDAT

; 1477 :     {

  00000	55		 push	 ebp
  00001	8b ec		 mov	 ebp, esp
  00003	83 ec 40	 sub	 esp, 64			; 00000040H
  00006	53		 push	 ebx
  00007	56		 push	 esi
  00008	57		 push	 edi

; 1478 :         #pragma warning(push)
; 1479 :         #pragma warning(disable: 4996) // Deprecation
; 1480 :         return _vsnprintf_l(_Buffer, (size_t)-1, _Format, NULL, _ArgList);

  00009	8b 45 10	 mov	 eax, DWORD PTR __ArgList$[ebp]
  0000c	50		 push	 eax
  0000d	6a 00		 push	 0
  0000f	8b 4d 0c	 mov	 ecx, DWORD PTR __Format$[ebp]
  00012	51		 push	 ecx
  00013	6a ff		 push	 -1
  00015	8b 55 08	 mov	 edx, DWORD PTR __Buffer$[ebp]
  00018	52		 push	 edx
  00019	e8 00 00 00 00	 call	 __vsnprintf_l
  0001e	83 c4 14	 add	 esp, 20			; 00000014H

; 1481 :         #pragma warning(pop)
; 1482 :     }

  00021	5f		 pop	 edi
  00022	5e		 pop	 esi
  00023	5b		 pop	 ebx
  00024	8b e5		 mov	 esp, ebp
  00026	5d		 pop	 ebp
  00027	c3		 ret	 0
_vsprintf ENDP
_TEXT	ENDS
; Function compile flags: /Odtp /ZI
; File C:\Program Files (x86)\Windows Kits\10\Include\10.0.18362.0\ucrt\stdio.h
;	COMDAT __vsnprintf_l
_TEXT	SEGMENT
tv74 = -72						; size = 4
__Result$ = -4						; size = 4
__Buffer$ = 8						; size = 4
__BufferCount$ = 12					; size = 4
__Format$ = 16						; size = 4
__Locale$ = 20						; size = 4
__ArgList$ = 24						; size = 4
__vsnprintf_l PROC					; COMDAT

; 1389 :     {

  00000	55		 push	 ebp
  00001	8b ec		 mov	 ebp, esp
  00003	83 ec 48	 sub	 esp, 72			; 00000048H
  00006	53		 push	 ebx
  00007	56		 push	 esi
  00008	57		 push	 edi

; 1390 :         int const _Result = __stdio_common_vsprintf(

  00009	8b 45 18	 mov	 eax, DWORD PTR __ArgList$[ebp]
  0000c	50		 push	 eax
  0000d	8b 4d 14	 mov	 ecx, DWORD PTR __Locale$[ebp]
  00010	51		 push	 ecx
  00011	8b 55 10	 mov	 edx, DWORD PTR __Format$[ebp]
  00014	52		 push	 edx
  00015	8b 45 0c	 mov	 eax, DWORD PTR __BufferCount$[ebp]
  00018	50		 push	 eax
  00019	8b 4d 08	 mov	 ecx, DWORD PTR __Buffer$[ebp]
  0001c	51		 push	 ecx
  0001d	e8 00 00 00 00	 call	 ___local_stdio_printf_options
  00022	8b 10		 mov	 edx, DWORD PTR [eax]
  00024	83 ca 01	 or	 edx, 1
  00027	8b 40 04	 mov	 eax, DWORD PTR [eax+4]
  0002a	50		 push	 eax
  0002b	52		 push	 edx
  0002c	e8 00 00 00 00	 call	 ___stdio_common_vsprintf
  00031	83 c4 1c	 add	 esp, 28			; 0000001cH
  00034	89 45 fc	 mov	 DWORD PTR __Result$[ebp], eax

; 1391 :             _CRT_INTERNAL_LOCAL_PRINTF_OPTIONS | _CRT_INTERNAL_PRINTF_LEGACY_VSPRINTF_NULL_TERMINATION,
; 1392 :             _Buffer, _BufferCount, _Format, _Locale, _ArgList);
; 1393 : 
; 1394 :         return _Result < 0 ? -1 : _Result;

  00037	83 7d fc 00	 cmp	 DWORD PTR __Result$[ebp], 0
  0003b	7d 09		 jge	 SHORT $LN3@vsnprintf_
  0003d	c7 45 b8 ff ff
	ff ff		 mov	 DWORD PTR tv74[ebp], -1
  00044	eb 06		 jmp	 SHORT $LN4@vsnprintf_
$LN3@vsnprintf_:
  00046	8b 45 fc	 mov	 eax, DWORD PTR __Result$[ebp]
  00049	89 45 b8	 mov	 DWORD PTR tv74[ebp], eax
$LN4@vsnprintf_:
  0004c	8b 45 b8	 mov	 eax, DWORD PTR tv74[ebp]

; 1395 :     }

  0004f	5f		 pop	 edi
  00050	5e		 pop	 esi
  00051	5b		 pop	 ebx
  00052	8b e5		 mov	 esp, ebp
  00054	5d		 pop	 ebp
  00055	c3		 ret	 0
__vsnprintf_l ENDP
_TEXT	ENDS
; Function compile flags: /Odtp /ZI
; File C:\Program Files (x86)\Windows Kits\10\Include\10.0.18362.0\ucrt\stdio.h
;	COMDAT _fprintf
_TEXT	SEGMENT
__ArgList$ = -8						; size = 4
__Result$ = -4						; size = 4
__Stream$ = 8						; size = 4
__Format$ = 12						; size = 4
_fprintf PROC						; COMDAT

; 835  :     {

  00000	55		 push	 ebp
  00001	8b ec		 mov	 ebp, esp
  00003	83 ec 4c	 sub	 esp, 76			; 0000004cH
  00006	53		 push	 ebx
  00007	56		 push	 esi
  00008	57		 push	 edi

; 836  :         int _Result;
; 837  :         va_list _ArgList;
; 838  :         __crt_va_start(_ArgList, _Format);

  00009	8d 45 10	 lea	 eax, DWORD PTR __Format$[ebp+4]
  0000c	89 45 f8	 mov	 DWORD PTR __ArgList$[ebp], eax

; 839  :         _Result = _vfprintf_l(_Stream, _Format, NULL, _ArgList);

  0000f	8b 45 f8	 mov	 eax, DWORD PTR __ArgList$[ebp]
  00012	50		 push	 eax
  00013	6a 00		 push	 0
  00015	8b 4d 0c	 mov	 ecx, DWORD PTR __Format$[ebp]
  00018	51		 push	 ecx
  00019	8b 55 08	 mov	 edx, DWORD PTR __Stream$[ebp]
  0001c	52		 push	 edx
  0001d	e8 00 00 00 00	 call	 __vfprintf_l
  00022	83 c4 10	 add	 esp, 16			; 00000010H
  00025	89 45 fc	 mov	 DWORD PTR __Result$[ebp], eax

; 840  :         __crt_va_end(_ArgList);

  00028	c7 45 f8 00 00
	00 00		 mov	 DWORD PTR __ArgList$[ebp], 0

; 841  :         return _Result;

  0002f	8b 45 fc	 mov	 eax, DWORD PTR __Result$[ebp]

; 842  :     }

  00032	5f		 pop	 edi
  00033	5e		 pop	 esi
  00034	5b		 pop	 ebx
  00035	8b e5		 mov	 esp, ebp
  00037	5d		 pop	 ebp
  00038	c3		 ret	 0
_fprintf ENDP
_TEXT	ENDS
; Function compile flags: /Odtp /ZI
; File C:\Program Files (x86)\Windows Kits\10\Include\10.0.18362.0\ucrt\stdio.h
;	COMDAT __vfprintf_l
_TEXT	SEGMENT
__Stream$ = 8						; size = 4
__Format$ = 12						; size = 4
__Locale$ = 16						; size = 4
__ArgList$ = 20						; size = 4
__vfprintf_l PROC					; COMDAT

; 642  :     {

  00000	55		 push	 ebp
  00001	8b ec		 mov	 ebp, esp
  00003	83 ec 40	 sub	 esp, 64			; 00000040H
  00006	53		 push	 ebx
  00007	56		 push	 esi
  00008	57		 push	 edi

; 643  :         return __stdio_common_vfprintf(_CRT_INTERNAL_LOCAL_PRINTF_OPTIONS, _Stream, _Format, _Locale, _ArgList);

  00009	8b 45 14	 mov	 eax, DWORD PTR __ArgList$[ebp]
  0000c	50		 push	 eax
  0000d	8b 4d 10	 mov	 ecx, DWORD PTR __Locale$[ebp]
  00010	51		 push	 ecx
  00011	8b 55 0c	 mov	 edx, DWORD PTR __Format$[ebp]
  00014	52		 push	 edx
  00015	8b 45 08	 mov	 eax, DWORD PTR __Stream$[ebp]
  00018	50		 push	 eax
  00019	e8 00 00 00 00	 call	 ___local_stdio_printf_options
  0001e	8b 48 04	 mov	 ecx, DWORD PTR [eax+4]
  00021	51		 push	 ecx
  00022	8b 10		 mov	 edx, DWORD PTR [eax]
  00024	52		 push	 edx
  00025	e8 00 00 00 00	 call	 ___stdio_common_vfprintf
  0002a	83 c4 18	 add	 esp, 24			; 00000018H

; 644  :     }

  0002d	5f		 pop	 edi
  0002e	5e		 pop	 esi
  0002f	5b		 pop	 ebx
  00030	8b e5		 mov	 esp, ebp
  00032	5d		 pop	 ebp
  00033	c3		 ret	 0
__vfprintf_l ENDP
_TEXT	ENDS
; Function compile flags: /Odtp /ZI
; File C:\Program Files (x86)\Windows Kits\10\Include\10.0.18362.0\ucrt\corecrt_stdio_config.h
;	COMDAT ___local_stdio_printf_options
_TEXT	SEGMENT
___local_stdio_printf_options PROC			; COMDAT

; 86   :     {

  00000	55		 push	 ebp
  00001	8b ec		 mov	 ebp, esp
  00003	83 ec 40	 sub	 esp, 64			; 00000040H
  00006	53		 push	 ebx
  00007	56		 push	 esi
  00008	57		 push	 edi

; 87   :         static unsigned __int64 _OptionsStorage;
; 88   :         return &_OptionsStorage;

  00009	b8 00 00 00 00	 mov	 eax, OFFSET ?_OptionsStorage@?1??__local_stdio_printf_options@@9@4_KA ; `__local_stdio_printf_options'::`2'::_OptionsStorage

; 89   :     }

  0000e	5f		 pop	 edi
  0000f	5e		 pop	 esi
  00010	5b		 pop	 ebx
  00011	8b e5		 mov	 esp, ebp
  00013	5d		 pop	 ebp
  00014	c3		 ret	 0
___local_stdio_printf_options ENDP
_TEXT	ENDS
; Function compile flags: /Odtp /ZI
; File C:\Mu Online\Mu-GS-Webzen-MC-10093\GameServer\logproc.cpp
;	COMDAT ?__empty_global_delete@@YAXPAXI@Z
_TEXT	SEGMENT
___formal$ = 8						; size = 4
___formal$ = 12						; size = 4
?__empty_global_delete@@YAXPAXI@Z PROC			; __empty_global_delete, COMDAT

  00000	55		 push	 ebp
  00001	8b ec		 mov	 ebp, esp
  00003	83 ec 40	 sub	 esp, 64			; 00000040H
  00006	53		 push	 ebx
  00007	56		 push	 esi
  00008	57		 push	 edi
  00009	5f		 pop	 edi
  0000a	5e		 pop	 esi
  0000b	5b		 pop	 ebx
  0000c	8b e5		 mov	 esp, ebp
  0000e	5d		 pop	 ebp
  0000f	c3		 ret	 0
?__empty_global_delete@@YAXPAXI@Z ENDP			; __empty_global_delete
_TEXT	ENDS
; Function compile flags: /Odtp /ZI
; File C:\Mu Online\Mu-GS-Webzen-MC-10093\GameServer\logproc.cpp
;	COMDAT ?__empty_global_delete@@YAXPAX@Z
_TEXT	SEGMENT
___formal$ = 8						; size = 4
?__empty_global_delete@@YAXPAX@Z PROC			; __empty_global_delete, COMDAT

  00000	55		 push	 ebp
  00001	8b ec		 mov	 ebp, esp
  00003	83 ec 40	 sub	 esp, 64			; 00000040H
  00006	53		 push	 ebx
  00007	56		 push	 esi
  00008	57		 push	 edi
  00009	5f		 pop	 edi
  0000a	5e		 pop	 esi
  0000b	5b		 pop	 ebx
  0000c	8b e5		 mov	 esp, ebp
  0000e	5d		 pop	 ebp
  0000f	c3		 ret	 0
?__empty_global_delete@@YAXPAX@Z ENDP			; __empty_global_delete
_TEXT	ENDS
END
