; Listing generated by Microsoft (R) Optimizing Compiler Version 19.27.29111.0 

	TITLE	C:\Mu Online\Mu-GS-Webzen-MC-10093\GameServer\LogShop.cpp
	.686P
	.XMM
	include listing.inc
	.model	flat

INCLUDELIB LIBCMT
INCLUDELIB OLDNAMES

PUBLIC	?__empty_global_delete@@YAXPAX@Z		; __empty_global_delete
PUBLIC	?__empty_global_delete@@YAXPAXI@Z		; __empty_global_delete
PUBLIC	___local_stdio_printf_options
PUBLIC	__vfprintf_l
PUBLIC	_fprintf
PUBLIC	?CustomLog@LogSystem@@SAXPAD@Z			; LogSystem::CustomLog
PUBLIC	?CustomLogcash@LogSystem@@SAXPAD@Z		; LogSystem::CustomLogcash
PUBLIC	?CustomLogcashgm@LogSystem@@SAXPAD@Z		; LogSystem::CustomLogcashgm
PUBLIC	?_OptionsStorage@?1??__local_stdio_printf_options@@9@4_KA ; `__local_stdio_printf_options'::`2'::_OptionsStorage
PUBLIC	??_C@_0BP@NOHIPHGF@Log?2?$CF02d_?$CF02d_?$CF02d_SQL_Log?4txt@ ; `string'
PUBLIC	??_C@_02DPNLHKJD@a?$CL@				; `string'
PUBLIC	??_C@_0BF@GGGMCMIJ@?$CF02d?3?$CF02d?3?$CF02d?5?9?5?$CFs?6@ ; `string'
PUBLIC	??_C@_0CC@DCDEOOBH@STORE?2?$CF02d_?$CF02d_?$CF02d_cash_Log?4t@ ; `string'
PUBLIC	??_C@_0CD@KCHMHPHJ@CASHGM?2?$CF02d_?$CF02d_?$CF02d_cash_Log?4@ ; `string'
EXTRN	__imp__GetLocalTime@4:PROC
EXTRN	__imp__wsprintfA:PROC
EXTRN	_fclose:PROC
EXTRN	_fopen:PROC
EXTRN	___stdio_common_vfprintf:PROC
EXTRN	@__security_check_cookie@4:PROC
EXTRN	___security_cookie:DWORD
;	COMDAT ?_OptionsStorage@?1??__local_stdio_printf_options@@9@4_KA
_BSS	SEGMENT
?_OptionsStorage@?1??__local_stdio_printf_options@@9@4_KA DQ 01H DUP (?) ; `__local_stdio_printf_options'::`2'::_OptionsStorage
_BSS	ENDS
;	COMDAT ??_C@_0CD@KCHMHPHJ@CASHGM?2?$CF02d_?$CF02d_?$CF02d_cash_Log?4@
CONST	SEGMENT
??_C@_0CD@KCHMHPHJ@CASHGM?2?$CF02d_?$CF02d_?$CF02d_cash_Log?4@ DB 'CASHGM'
	DB	'\%02d_%02d_%02d_cash_Log.txt', 00H		; `string'
CONST	ENDS
;	COMDAT ??_C@_0CC@DCDEOOBH@STORE?2?$CF02d_?$CF02d_?$CF02d_cash_Log?4t@
CONST	SEGMENT
??_C@_0CC@DCDEOOBH@STORE?2?$CF02d_?$CF02d_?$CF02d_cash_Log?4t@ DB 'STORE\'
	DB	'%02d_%02d_%02d_cash_Log.txt', 00H		; `string'
CONST	ENDS
;	COMDAT ??_C@_0BF@GGGMCMIJ@?$CF02d?3?$CF02d?3?$CF02d?5?9?5?$CFs?6@
CONST	SEGMENT
??_C@_0BF@GGGMCMIJ@?$CF02d?3?$CF02d?3?$CF02d?5?9?5?$CFs?6@ DB '%02d:%02d:'
	DB	'%02d - %s', 0aH, 00H			; `string'
CONST	ENDS
;	COMDAT ??_C@_02DPNLHKJD@a?$CL@
CONST	SEGMENT
??_C@_02DPNLHKJD@a?$CL@ DB 'a+', 00H			; `string'
CONST	ENDS
;	COMDAT ??_C@_0BP@NOHIPHGF@Log?2?$CF02d_?$CF02d_?$CF02d_SQL_Log?4txt@
CONST	SEGMENT
??_C@_0BP@NOHIPHGF@Log?2?$CF02d_?$CF02d_?$CF02d_SQL_Log?4txt@ DB 'Log\%02'
	DB	'd_%02d_%02d_SQL_Log.txt', 00H		; `string'
CONST	ENDS
; Function compile flags: /Odtp /ZI
; File C:\Mu Online\Mu-GS-Webzen-MC-10093\GameServer\LogShop.cpp
;	COMDAT ?CustomLogcashgm@LogSystem@@SAXPAD@Z
_TEXT	SEGMENT
_logString$ = -1048					; size = 512
_stream$ = -536						; size = 4
_now$ = -20						; size = 16
__$ArrayPad$ = -4					; size = 4
_Text$ = 8						; size = 4
?CustomLogcashgm@LogSystem@@SAXPAD@Z PROC		; LogSystem::CustomLogcashgm, COMDAT

; 40   : {

  00000	55		 push	 ebp
  00001	8b ec		 mov	 ebp, esp
  00003	81 ec d8 04 00
	00		 sub	 esp, 1240		; 000004d8H
  00009	a1 00 00 00 00	 mov	 eax, DWORD PTR ___security_cookie
  0000e	33 c5		 xor	 eax, ebp
  00010	89 45 fc	 mov	 DWORD PTR __$ArrayPad$[ebp], eax
  00013	53		 push	 ebx
  00014	56		 push	 esi
  00015	57		 push	 edi

; 41   : 	SYSTEMTIME now;
; 42   : 	GetLocalTime(&now);

  00016	8d 45 ec	 lea	 eax, DWORD PTR _now$[ebp]
  00019	50		 push	 eax
  0001a	ff 15 00 00 00
	00		 call	 DWORD PTR __imp__GetLocalTime@4

; 43   : 
; 44   : 	TCHAR LogTexto[512];
; 45   : 	FILE *stream;
; 46   : 
; 47   : 	TCHAR logString[512];
; 48   : 
; 49   : 	wsprintf(logString, "CASHGM\\%02d_%02d_%02d_cash_Log.txt", now.wYear, now.wMonth, now.wDay);

  00020	0f b7 45 f2	 movzx	 eax, WORD PTR _now$[ebp+6]
  00024	50		 push	 eax
  00025	0f b7 4d ee	 movzx	 ecx, WORD PTR _now$[ebp+2]
  00029	51		 push	 ecx
  0002a	0f b7 55 ec	 movzx	 edx, WORD PTR _now$[ebp]
  0002e	52		 push	 edx
  0002f	68 00 00 00 00	 push	 OFFSET ??_C@_0CD@KCHMHPHJ@CASHGM?2?$CF02d_?$CF02d_?$CF02d_cash_Log?4@
  00034	8d 85 e8 fb ff
	ff		 lea	 eax, DWORD PTR _logString$[ebp]
  0003a	50		 push	 eax
  0003b	ff 15 00 00 00
	00		 call	 DWORD PTR __imp__wsprintfA
  00041	83 c4 14	 add	 esp, 20			; 00000014H

; 50   : 	stream = fopen(logString, "a+");

  00044	68 00 00 00 00	 push	 OFFSET ??_C@_02DPNLHKJD@a?$CL@
  00049	8d 85 e8 fb ff
	ff		 lea	 eax, DWORD PTR _logString$[ebp]
  0004f	50		 push	 eax
  00050	e8 00 00 00 00	 call	 _fopen
  00055	83 c4 08	 add	 esp, 8
  00058	89 85 e8 fd ff
	ff		 mov	 DWORD PTR _stream$[ebp], eax

; 51   : 	fprintf(stream, "%02d:%02d:%02d - %s\n", now.wHour, now.wMinute, now.wSecond, Text);

  0005e	8b 45 08	 mov	 eax, DWORD PTR _Text$[ebp]
  00061	50		 push	 eax
  00062	0f b7 4d f8	 movzx	 ecx, WORD PTR _now$[ebp+12]
  00066	51		 push	 ecx
  00067	0f b7 55 f6	 movzx	 edx, WORD PTR _now$[ebp+10]
  0006b	52		 push	 edx
  0006c	0f b7 45 f4	 movzx	 eax, WORD PTR _now$[ebp+8]
  00070	50		 push	 eax
  00071	68 00 00 00 00	 push	 OFFSET ??_C@_0BF@GGGMCMIJ@?$CF02d?3?$CF02d?3?$CF02d?5?9?5?$CFs?6@
  00076	8b 8d e8 fd ff
	ff		 mov	 ecx, DWORD PTR _stream$[ebp]
  0007c	51		 push	 ecx
  0007d	e8 00 00 00 00	 call	 _fprintf
  00082	83 c4 18	 add	 esp, 24			; 00000018H

; 52   : 	fclose(stream);

  00085	8b 85 e8 fd ff
	ff		 mov	 eax, DWORD PTR _stream$[ebp]
  0008b	50		 push	 eax
  0008c	e8 00 00 00 00	 call	 _fclose
  00091	83 c4 04	 add	 esp, 4

; 53   : }

  00094	5f		 pop	 edi
  00095	5e		 pop	 esi
  00096	5b		 pop	 ebx
  00097	8b 4d fc	 mov	 ecx, DWORD PTR __$ArrayPad$[ebp]
  0009a	33 cd		 xor	 ecx, ebp
  0009c	e8 00 00 00 00	 call	 @__security_check_cookie@4
  000a1	8b e5		 mov	 esp, ebp
  000a3	5d		 pop	 ebp
  000a4	c3		 ret	 0
?CustomLogcashgm@LogSystem@@SAXPAD@Z ENDP		; LogSystem::CustomLogcashgm
_TEXT	ENDS
; Function compile flags: /Odtp /ZI
; File C:\Mu Online\Mu-GS-Webzen-MC-10093\GameServer\LogShop.cpp
;	COMDAT ?CustomLogcash@LogSystem@@SAXPAD@Z
_TEXT	SEGMENT
_logString$ = -1048					; size = 512
_stream$ = -536						; size = 4
_now$ = -20						; size = 16
__$ArrayPad$ = -4					; size = 4
_Text$ = 8						; size = 4
?CustomLogcash@LogSystem@@SAXPAD@Z PROC			; LogSystem::CustomLogcash, COMDAT

; 23   : {

  00000	55		 push	 ebp
  00001	8b ec		 mov	 ebp, esp
  00003	81 ec d8 04 00
	00		 sub	 esp, 1240		; 000004d8H
  00009	a1 00 00 00 00	 mov	 eax, DWORD PTR ___security_cookie
  0000e	33 c5		 xor	 eax, ebp
  00010	89 45 fc	 mov	 DWORD PTR __$ArrayPad$[ebp], eax
  00013	53		 push	 ebx
  00014	56		 push	 esi
  00015	57		 push	 edi

; 24   : 	SYSTEMTIME now;
; 25   : 	GetLocalTime(&now);

  00016	8d 45 ec	 lea	 eax, DWORD PTR _now$[ebp]
  00019	50		 push	 eax
  0001a	ff 15 00 00 00
	00		 call	 DWORD PTR __imp__GetLocalTime@4

; 26   : 
; 27   : 	TCHAR LogTexto[512];
; 28   : 	FILE *stream;
; 29   : 
; 30   : 	TCHAR logString[512];
; 31   : 
; 32   : 	wsprintf(logString, "STORE\\%02d_%02d_%02d_cash_Log.txt", now.wYear, now.wMonth, now.wDay);

  00020	0f b7 45 f2	 movzx	 eax, WORD PTR _now$[ebp+6]
  00024	50		 push	 eax
  00025	0f b7 4d ee	 movzx	 ecx, WORD PTR _now$[ebp+2]
  00029	51		 push	 ecx
  0002a	0f b7 55 ec	 movzx	 edx, WORD PTR _now$[ebp]
  0002e	52		 push	 edx
  0002f	68 00 00 00 00	 push	 OFFSET ??_C@_0CC@DCDEOOBH@STORE?2?$CF02d_?$CF02d_?$CF02d_cash_Log?4t@
  00034	8d 85 e8 fb ff
	ff		 lea	 eax, DWORD PTR _logString$[ebp]
  0003a	50		 push	 eax
  0003b	ff 15 00 00 00
	00		 call	 DWORD PTR __imp__wsprintfA
  00041	83 c4 14	 add	 esp, 20			; 00000014H

; 33   : 	stream = fopen(logString, "a+");

  00044	68 00 00 00 00	 push	 OFFSET ??_C@_02DPNLHKJD@a?$CL@
  00049	8d 85 e8 fb ff
	ff		 lea	 eax, DWORD PTR _logString$[ebp]
  0004f	50		 push	 eax
  00050	e8 00 00 00 00	 call	 _fopen
  00055	83 c4 08	 add	 esp, 8
  00058	89 85 e8 fd ff
	ff		 mov	 DWORD PTR _stream$[ebp], eax

; 34   : 	fprintf(stream, "%02d:%02d:%02d - %s\n", now.wHour, now.wMinute, now.wSecond, Text);

  0005e	8b 45 08	 mov	 eax, DWORD PTR _Text$[ebp]
  00061	50		 push	 eax
  00062	0f b7 4d f8	 movzx	 ecx, WORD PTR _now$[ebp+12]
  00066	51		 push	 ecx
  00067	0f b7 55 f6	 movzx	 edx, WORD PTR _now$[ebp+10]
  0006b	52		 push	 edx
  0006c	0f b7 45 f4	 movzx	 eax, WORD PTR _now$[ebp+8]
  00070	50		 push	 eax
  00071	68 00 00 00 00	 push	 OFFSET ??_C@_0BF@GGGMCMIJ@?$CF02d?3?$CF02d?3?$CF02d?5?9?5?$CFs?6@
  00076	8b 8d e8 fd ff
	ff		 mov	 ecx, DWORD PTR _stream$[ebp]
  0007c	51		 push	 ecx
  0007d	e8 00 00 00 00	 call	 _fprintf
  00082	83 c4 18	 add	 esp, 24			; 00000018H

; 35   : 	fclose(stream);

  00085	8b 85 e8 fd ff
	ff		 mov	 eax, DWORD PTR _stream$[ebp]
  0008b	50		 push	 eax
  0008c	e8 00 00 00 00	 call	 _fclose
  00091	83 c4 04	 add	 esp, 4

; 36   : }

  00094	5f		 pop	 edi
  00095	5e		 pop	 esi
  00096	5b		 pop	 ebx
  00097	8b 4d fc	 mov	 ecx, DWORD PTR __$ArrayPad$[ebp]
  0009a	33 cd		 xor	 ecx, ebp
  0009c	e8 00 00 00 00	 call	 @__security_check_cookie@4
  000a1	8b e5		 mov	 esp, ebp
  000a3	5d		 pop	 ebp
  000a4	c3		 ret	 0
?CustomLogcash@LogSystem@@SAXPAD@Z ENDP			; LogSystem::CustomLogcash
_TEXT	ENDS
; Function compile flags: /Odtp /ZI
; File C:\Mu Online\Mu-GS-Webzen-MC-10093\GameServer\LogShop.cpp
;	COMDAT ?CustomLog@LogSystem@@SAXPAD@Z
_TEXT	SEGMENT
_logString$ = -1048					; size = 512
_stream$ = -536						; size = 4
_now$ = -20						; size = 16
__$ArrayPad$ = -4					; size = 4
_Text$ = 8						; size = 4
?CustomLog@LogSystem@@SAXPAD@Z PROC			; LogSystem::CustomLog, COMDAT

; 6    : {

  00000	55		 push	 ebp
  00001	8b ec		 mov	 ebp, esp
  00003	81 ec d8 04 00
	00		 sub	 esp, 1240		; 000004d8H
  00009	a1 00 00 00 00	 mov	 eax, DWORD PTR ___security_cookie
  0000e	33 c5		 xor	 eax, ebp
  00010	89 45 fc	 mov	 DWORD PTR __$ArrayPad$[ebp], eax
  00013	53		 push	 ebx
  00014	56		 push	 esi
  00015	57		 push	 edi

; 7    : 	SYSTEMTIME now;
; 8    : 	GetLocalTime(&now);

  00016	8d 45 ec	 lea	 eax, DWORD PTR _now$[ebp]
  00019	50		 push	 eax
  0001a	ff 15 00 00 00
	00		 call	 DWORD PTR __imp__GetLocalTime@4

; 9    : 
; 10   : 	TCHAR LogTexto[512];
; 11   : 	FILE *stream;
; 12   : 
; 13   : 	TCHAR logString[512];
; 14   : 
; 15   : 	wsprintf(logString,"Log\\%02d_%02d_%02d_SQL_Log.txt", now.wYear, now.wMonth,now.wDay );

  00020	0f b7 45 f2	 movzx	 eax, WORD PTR _now$[ebp+6]
  00024	50		 push	 eax
  00025	0f b7 4d ee	 movzx	 ecx, WORD PTR _now$[ebp+2]
  00029	51		 push	 ecx
  0002a	0f b7 55 ec	 movzx	 edx, WORD PTR _now$[ebp]
  0002e	52		 push	 edx
  0002f	68 00 00 00 00	 push	 OFFSET ??_C@_0BP@NOHIPHGF@Log?2?$CF02d_?$CF02d_?$CF02d_SQL_Log?4txt@
  00034	8d 85 e8 fb ff
	ff		 lea	 eax, DWORD PTR _logString$[ebp]
  0003a	50		 push	 eax
  0003b	ff 15 00 00 00
	00		 call	 DWORD PTR __imp__wsprintfA
  00041	83 c4 14	 add	 esp, 20			; 00000014H

; 16   : 	stream=fopen(logString, "a+");

  00044	68 00 00 00 00	 push	 OFFSET ??_C@_02DPNLHKJD@a?$CL@
  00049	8d 85 e8 fb ff
	ff		 lea	 eax, DWORD PTR _logString$[ebp]
  0004f	50		 push	 eax
  00050	e8 00 00 00 00	 call	 _fopen
  00055	83 c4 08	 add	 esp, 8
  00058	89 85 e8 fd ff
	ff		 mov	 DWORD PTR _stream$[ebp], eax

; 17   : 	fprintf(stream,"%02d:%02d:%02d - %s\n", now.wHour, now.wMinute, now.wSecond, Text);

  0005e	8b 45 08	 mov	 eax, DWORD PTR _Text$[ebp]
  00061	50		 push	 eax
  00062	0f b7 4d f8	 movzx	 ecx, WORD PTR _now$[ebp+12]
  00066	51		 push	 ecx
  00067	0f b7 55 f6	 movzx	 edx, WORD PTR _now$[ebp+10]
  0006b	52		 push	 edx
  0006c	0f b7 45 f4	 movzx	 eax, WORD PTR _now$[ebp+8]
  00070	50		 push	 eax
  00071	68 00 00 00 00	 push	 OFFSET ??_C@_0BF@GGGMCMIJ@?$CF02d?3?$CF02d?3?$CF02d?5?9?5?$CFs?6@
  00076	8b 8d e8 fd ff
	ff		 mov	 ecx, DWORD PTR _stream$[ebp]
  0007c	51		 push	 ecx
  0007d	e8 00 00 00 00	 call	 _fprintf
  00082	83 c4 18	 add	 esp, 24			; 00000018H

; 18   : 	fclose(stream);

  00085	8b 85 e8 fd ff
	ff		 mov	 eax, DWORD PTR _stream$[ebp]
  0008b	50		 push	 eax
  0008c	e8 00 00 00 00	 call	 _fclose
  00091	83 c4 04	 add	 esp, 4

; 19   : }

  00094	5f		 pop	 edi
  00095	5e		 pop	 esi
  00096	5b		 pop	 ebx
  00097	8b 4d fc	 mov	 ecx, DWORD PTR __$ArrayPad$[ebp]
  0009a	33 cd		 xor	 ecx, ebp
  0009c	e8 00 00 00 00	 call	 @__security_check_cookie@4
  000a1	8b e5		 mov	 esp, ebp
  000a3	5d		 pop	 ebp
  000a4	c3		 ret	 0
?CustomLog@LogSystem@@SAXPAD@Z ENDP			; LogSystem::CustomLog
_TEXT	ENDS
; Function compile flags: /Odtp /ZI
; File C:\Program Files (x86)\Windows Kits\10\Include\10.0.18362.0\ucrt\stdio.h
;	COMDAT _fprintf
_TEXT	SEGMENT
__ArgList$ = -8						; size = 4
__Result$ = -4						; size = 4
__Stream$ = 8						; size = 4
__Format$ = 12						; size = 4
_fprintf PROC						; COMDAT

; 835  :     {

  00000	55		 push	 ebp
  00001	8b ec		 mov	 ebp, esp
  00003	83 ec 4c	 sub	 esp, 76			; 0000004cH
  00006	53		 push	 ebx
  00007	56		 push	 esi
  00008	57		 push	 edi

; 836  :         int _Result;
; 837  :         va_list _ArgList;
; 838  :         __crt_va_start(_ArgList, _Format);

  00009	8d 45 10	 lea	 eax, DWORD PTR __Format$[ebp+4]
  0000c	89 45 f8	 mov	 DWORD PTR __ArgList$[ebp], eax

; 839  :         _Result = _vfprintf_l(_Stream, _Format, NULL, _ArgList);

  0000f	8b 45 f8	 mov	 eax, DWORD PTR __ArgList$[ebp]
  00012	50		 push	 eax
  00013	6a 00		 push	 0
  00015	8b 4d 0c	 mov	 ecx, DWORD PTR __Format$[ebp]
  00018	51		 push	 ecx
  00019	8b 55 08	 mov	 edx, DWORD PTR __Stream$[ebp]
  0001c	52		 push	 edx
  0001d	e8 00 00 00 00	 call	 __vfprintf_l
  00022	83 c4 10	 add	 esp, 16			; 00000010H
  00025	89 45 fc	 mov	 DWORD PTR __Result$[ebp], eax

; 840  :         __crt_va_end(_ArgList);

  00028	c7 45 f8 00 00
	00 00		 mov	 DWORD PTR __ArgList$[ebp], 0

; 841  :         return _Result;

  0002f	8b 45 fc	 mov	 eax, DWORD PTR __Result$[ebp]

; 842  :     }

  00032	5f		 pop	 edi
  00033	5e		 pop	 esi
  00034	5b		 pop	 ebx
  00035	8b e5		 mov	 esp, ebp
  00037	5d		 pop	 ebp
  00038	c3		 ret	 0
_fprintf ENDP
_TEXT	ENDS
; Function compile flags: /Odtp /ZI
; File C:\Program Files (x86)\Windows Kits\10\Include\10.0.18362.0\ucrt\stdio.h
;	COMDAT __vfprintf_l
_TEXT	SEGMENT
__Stream$ = 8						; size = 4
__Format$ = 12						; size = 4
__Locale$ = 16						; size = 4
__ArgList$ = 20						; size = 4
__vfprintf_l PROC					; COMDAT

; 642  :     {

  00000	55		 push	 ebp
  00001	8b ec		 mov	 ebp, esp
  00003	83 ec 40	 sub	 esp, 64			; 00000040H
  00006	53		 push	 ebx
  00007	56		 push	 esi
  00008	57		 push	 edi

; 643  :         return __stdio_common_vfprintf(_CRT_INTERNAL_LOCAL_PRINTF_OPTIONS, _Stream, _Format, _Locale, _ArgList);

  00009	8b 45 14	 mov	 eax, DWORD PTR __ArgList$[ebp]
  0000c	50		 push	 eax
  0000d	8b 4d 10	 mov	 ecx, DWORD PTR __Locale$[ebp]
  00010	51		 push	 ecx
  00011	8b 55 0c	 mov	 edx, DWORD PTR __Format$[ebp]
  00014	52		 push	 edx
  00015	8b 45 08	 mov	 eax, DWORD PTR __Stream$[ebp]
  00018	50		 push	 eax
  00019	e8 00 00 00 00	 call	 ___local_stdio_printf_options
  0001e	8b 48 04	 mov	 ecx, DWORD PTR [eax+4]
  00021	51		 push	 ecx
  00022	8b 10		 mov	 edx, DWORD PTR [eax]
  00024	52		 push	 edx
  00025	e8 00 00 00 00	 call	 ___stdio_common_vfprintf
  0002a	83 c4 18	 add	 esp, 24			; 00000018H

; 644  :     }

  0002d	5f		 pop	 edi
  0002e	5e		 pop	 esi
  0002f	5b		 pop	 ebx
  00030	8b e5		 mov	 esp, ebp
  00032	5d		 pop	 ebp
  00033	c3		 ret	 0
__vfprintf_l ENDP
_TEXT	ENDS
; Function compile flags: /Odtp /ZI
; File C:\Program Files (x86)\Windows Kits\10\Include\10.0.18362.0\ucrt\corecrt_stdio_config.h
;	COMDAT ___local_stdio_printf_options
_TEXT	SEGMENT
___local_stdio_printf_options PROC			; COMDAT

; 86   :     {

  00000	55		 push	 ebp
  00001	8b ec		 mov	 ebp, esp
  00003	83 ec 40	 sub	 esp, 64			; 00000040H
  00006	53		 push	 ebx
  00007	56		 push	 esi
  00008	57		 push	 edi

; 87   :         static unsigned __int64 _OptionsStorage;
; 88   :         return &_OptionsStorage;

  00009	b8 00 00 00 00	 mov	 eax, OFFSET ?_OptionsStorage@?1??__local_stdio_printf_options@@9@4_KA ; `__local_stdio_printf_options'::`2'::_OptionsStorage

; 89   :     }

  0000e	5f		 pop	 edi
  0000f	5e		 pop	 esi
  00010	5b		 pop	 ebx
  00011	8b e5		 mov	 esp, ebp
  00013	5d		 pop	 ebp
  00014	c3		 ret	 0
___local_stdio_printf_options ENDP
_TEXT	ENDS
; Function compile flags: /Odtp /ZI
; File C:\Mu Online\Mu-GS-Webzen-MC-10093\GameServer\LogShop.cpp
;	COMDAT ?__empty_global_delete@@YAXPAXI@Z
_TEXT	SEGMENT
___formal$ = 8						; size = 4
___formal$ = 12						; size = 4
?__empty_global_delete@@YAXPAXI@Z PROC			; __empty_global_delete, COMDAT

  00000	55		 push	 ebp
  00001	8b ec		 mov	 ebp, esp
  00003	83 ec 40	 sub	 esp, 64			; 00000040H
  00006	53		 push	 ebx
  00007	56		 push	 esi
  00008	57		 push	 edi
  00009	5f		 pop	 edi
  0000a	5e		 pop	 esi
  0000b	5b		 pop	 ebx
  0000c	8b e5		 mov	 esp, ebp
  0000e	5d		 pop	 ebp
  0000f	c3		 ret	 0
?__empty_global_delete@@YAXPAXI@Z ENDP			; __empty_global_delete
_TEXT	ENDS
; Function compile flags: /Odtp /ZI
; File C:\Mu Online\Mu-GS-Webzen-MC-10093\GameServer\LogShop.cpp
;	COMDAT ?__empty_global_delete@@YAXPAX@Z
_TEXT	SEGMENT
___formal$ = 8						; size = 4
?__empty_global_delete@@YAXPAX@Z PROC			; __empty_global_delete, COMDAT

  00000	55		 push	 ebp
  00001	8b ec		 mov	 ebp, esp
  00003	83 ec 40	 sub	 esp, 64			; 00000040H
  00006	53		 push	 ebx
  00007	56		 push	 esi
  00008	57		 push	 edi
  00009	5f		 pop	 edi
  0000a	5e		 pop	 esi
  0000b	5b		 pop	 ebx
  0000c	8b e5		 mov	 esp, ebp
  0000e	5d		 pop	 ebp
  0000f	c3		 ret	 0
?__empty_global_delete@@YAXPAX@Z ENDP			; __empty_global_delete
_TEXT	ENDS
END
