; Listing generated by Microsoft (R) Optimizing Compiler Version 19.27.29111.0 

	TITLE	C:\Mu Online\Mu-GS-Webzen-MC-10093\GameServer\MagicDamage.cpp
	.686P
	.XMM
	include listing.inc
	.model	flat

INCLUDELIB LIBCMT
INCLUDELIB OLDNAMES

PUBLIC	?__empty_global_delete@@YAXPAX@Z		; __empty_global_delete
PUBLIC	?__empty_global_delete@@YAXPAXI@Z		; __empty_global_delete
PUBLIC	?Get@CMagicDamage@@AAEHH@Z			; CMagicDamage::Get
PUBLIC	?Set@CMagicDamage@@AAEXPADHHHHHHHHPAEHHH@Z	; CMagicDamage::Set
PUBLIC	?CheckSkillAttr@CMagicDamage@@AAEHHH@Z		; CMagicDamage::CheckSkillAttr
PUBLIC	??0CMagicDamage@@QAE@XZ				; CMagicDamage::CMagicDamage
PUBLIC	??1CMagicDamage@@UAE@XZ				; CMagicDamage::~CMagicDamage
PUBLIC	?Init@CMagicDamage@@QAEXXZ			; CMagicDamage::Init
PUBLIC	?LogSkillList@CMagicDamage@@QAEXPAD@Z		; CMagicDamage::LogSkillList
PUBLIC	?LogSkillNameList@CMagicDamage@@QAEXPAD@Z	; CMagicDamage::LogSkillNameList
PUBLIC	?SkillGet@CMagicDamage@@QAEHH@Z			; CMagicDamage::SkillGet
PUBLIC	?SkillGetMana@CMagicDamage@@QAEHH@Z		; CMagicDamage::SkillGetMana
PUBLIC	?SkillGetRequireEnergy@CMagicDamage@@QAEHH@Z	; CMagicDamage::SkillGetRequireEnergy
PUBLIC	?SkillGetRequireClass@CMagicDamage@@QAEHHHH@Z	; CMagicDamage::SkillGetRequireClass
PUBLIC	?SkillGetBP@CMagicDamage@@QAEHH@Z		; CMagicDamage::SkillGetBP
PUBLIC	?GetSkillAttr@CMagicDamage@@QAEHH@Z		; CMagicDamage::GetSkillAttr
PUBLIC	?GetskillRequireLeadership@CMagicDamage@@QAEHH@Z ; CMagicDamage::GetskillRequireLeadership
PUBLIC	?GetDelayTime@CMagicDamage@@QAEHH@Z		; CMagicDamage::GetDelayTime
PUBLIC	?GetSkillType@CMagicDamage@@QAEHH@Z		; CMagicDamage::GetSkillType
PUBLIC	?GetSkillDistance@CMagicDamage@@QAEHH@Z		; CMagicDamage::GetSkillDistance
PUBLIC	??_GCMagicDamage@@UAEPAXI@Z			; CMagicDamage::`scalar deleting destructor'
PUBLIC	??_7CMagicDamage@@6B@				; CMagicDamage::`vftable'
PUBLIC	?MagicDamageC@@3VCMagicDamage@@A		; MagicDamageC
PUBLIC	??_C@_01KDCPPGHE@r@				; `string'
PUBLIC	?__LINE__Var@?0??Set@CMagicDamage@@AAEXPADHHHHHHHHPAEHHH@Z@4JA ; `CMagicDamage::Set'::`1'::__LINE__Var
PUBLIC	??_C@_0DO@ENMFLOMK@C?3?2Mu?5Online?2Mu?9GS?9Webzen?9MC?910@ ; `string'
PUBLIC	??_C@_08MAACMGJK@skill?3?$CFd@			; `string'
PUBLIC	?__LINE__Var@?0??Get@CMagicDamage@@AAEHH@Z@4JA	; `CMagicDamage::Get'::`1'::__LINE__Var
PUBLIC	?__LINE__Var@?0??SkillGet@CMagicDamage@@QAEHH@Z@4JA ; `CMagicDamage::SkillGet'::`1'::__LINE__Var
PUBLIC	?__LINE__Var@?0??SkillGetMana@CMagicDamage@@QAEHH@Z@4JA ; `CMagicDamage::SkillGetMana'::`1'::__LINE__Var
PUBLIC	?__LINE__Var@?0??SkillGetBP@CMagicDamage@@QAEHH@Z@4JA ; `CMagicDamage::SkillGetBP'::`1'::__LINE__Var
PUBLIC	?__LINE__Var@?0??SkillGetRequireEnergy@CMagicDamage@@QAEHH@Z@4JA ; `CMagicDamage::SkillGetRequireEnergy'::`1'::__LINE__Var
PUBLIC	?__LINE__Var@?0??SkillGetRequireClass@CMagicDamage@@QAEHHHH@Z@4JA ; `CMagicDamage::SkillGetRequireClass'::`1'::__LINE__Var
PUBLIC	?__LINE__Var@?0??GetskillRequireLeadership@CMagicDamage@@QAEHH@Z@4JA ; `CMagicDamage::GetskillRequireLeadership'::`1'::__LINE__Var
PUBLIC	?__LINE__Var@?0??GetDelayTime@CMagicDamage@@QAEHH@Z@4JA ; `CMagicDamage::GetDelayTime'::`1'::__LINE__Var
PUBLIC	?__LINE__Var@?0??GetSkillType@CMagicDamage@@QAEHH@Z@4JA ; `CMagicDamage::GetSkillType'::`1'::__LINE__Var
PUBLIC	?__LINE__Var@?0??GetSkillDistance@CMagicDamage@@QAEHH@Z@4JA ; `CMagicDamage::GetSkillDistance'::`1'::__LINE__Var
PUBLIC	??_R4CMagicDamage@@6B@				; CMagicDamage::`RTTI Complete Object Locator'
PUBLIC	??_R0?AVCMagicDamage@@@8			; CMagicDamage `RTTI Type Descriptor'
PUBLIC	??_R3CMagicDamage@@8				; CMagicDamage::`RTTI Class Hierarchy Descriptor'
PUBLIC	??_R2CMagicDamage@@8				; CMagicDamage::`RTTI Base Class Array'
PUBLIC	??_R1A@?0A@EA@CMagicDamage@@8			; CMagicDamage::`RTTI Base Class Descriptor at (0,-1,0,64)'
EXTRN	??3@YAXPAXI@Z:PROC				; operator delete
EXTRN	_atexit:PROC
EXTRN	___report_rangecheckfailure:PROC
EXTRN	_isalpha:PROC
EXTRN	_isdigit:PROC
EXTRN	_isspace:PROC
EXTRN	_isalnum:PROC
EXTRN	_memcpy:PROC
EXTRN	_strcpy:PROC
EXTRN	_fclose:PROC
EXTRN	_fgetc:PROC
EXTRN	_fopen:PROC
EXTRN	_getc:PROC
EXTRN	_ungetc:PROC
EXTRN	_atof:PROC
EXTRN	?MsgBox@@YAXPADZZ:PROC				; MsgBox
EXTRN	__imp_?Get@CMsg@@QAEPADH@Z:PROC
EXTRN	?Set@CMagicInf@@QAEHEE@Z:PROC			; CMagicInf::Set
EXTRN	??_ECMagicDamage@@UAEPAXI@Z:PROC		; CMagicDamage::`vector deleting destructor'
EXTRN	@__security_check_cookie@4:PROC
EXTRN	??_7type_info@@6B@:QWORD			; type_info::`vftable'
EXTRN	?LogAdd@@3P6AXPADZZA:DWORD			; LogAdd
EXTRN	?LogAddL@@3P6AXPADZZA:DWORD			; LogAddL
EXTRN	?DefMagicInf@@3PAVCMagicInf@@A:BYTE		; DefMagicInf
EXTRN	?lMsg@@3VCMsg@@A:BYTE				; lMsg
EXTRN	___security_cookie:DWORD
EXTRN	__fltused:DWORD
_BSS	SEGMENT
?SMDFile@@3PAU_iobuf@@A DD 01H DUP (?)			; SMDFile
?TokenNumber@@3MA DD 01H DUP (?)			; TokenNumber
?TokenString@@3PADA DB 064H DUP (?)			; TokenString
?CurrentToken@@3W4SMDToken@@A DD 01H DUP (?)		; CurrentToken
?MagicDamageC@@3VCMagicDamage@@A DB 0c73cH DUP (?)	; MagicDamageC
_BSS	ENDS
CRT$XCU	SEGMENT
?MagicDamageC$initializer$@@3P6AXXZA DD FLAT:??__EMagicDamageC@@YAXXZ ; MagicDamageC$initializer$
CRT$XCU	ENDS
;	COMDAT ??_R1A@?0A@EA@CMagicDamage@@8
rdata$r	SEGMENT
??_R1A@?0A@EA@CMagicDamage@@8 DD FLAT:??_R0?AVCMagicDamage@@@8 ; CMagicDamage::`RTTI Base Class Descriptor at (0,-1,0,64)'
	DD	00H
	DD	00H
	DD	0ffffffffH
	DD	00H
	DD	040H
	DD	FLAT:??_R3CMagicDamage@@8
rdata$r	ENDS
;	COMDAT ??_R2CMagicDamage@@8
rdata$r	SEGMENT
??_R2CMagicDamage@@8 DD FLAT:??_R1A@?0A@EA@CMagicDamage@@8 ; CMagicDamage::`RTTI Base Class Array'
rdata$r	ENDS
;	COMDAT ??_R3CMagicDamage@@8
rdata$r	SEGMENT
??_R3CMagicDamage@@8 DD 00H				; CMagicDamage::`RTTI Class Hierarchy Descriptor'
	DD	00H
	DD	01H
	DD	FLAT:??_R2CMagicDamage@@8
rdata$r	ENDS
;	COMDAT ??_R0?AVCMagicDamage@@@8
data$r	SEGMENT
??_R0?AVCMagicDamage@@@8 DD FLAT:??_7type_info@@6B@	; CMagicDamage `RTTI Type Descriptor'
	DD	00H
	DB	'.?AVCMagicDamage@@', 00H
data$r	ENDS
;	COMDAT ??_R4CMagicDamage@@6B@
rdata$r	SEGMENT
??_R4CMagicDamage@@6B@ DD 00H				; CMagicDamage::`RTTI Complete Object Locator'
	DD	00H
	DD	00H
	DD	FLAT:??_R0?AVCMagicDamage@@@8
	DD	FLAT:??_R3CMagicDamage@@8
rdata$r	ENDS
;	COMDAT ?__LINE__Var@?0??GetSkillDistance@CMagicDamage@@QAEHH@Z@4JA
_DATA	SEGMENT
?__LINE__Var@?0??GetSkillDistance@CMagicDamage@@QAEHH@Z@4JA DD 045bH ; `CMagicDamage::GetSkillDistance'::`1'::__LINE__Var
_DATA	ENDS
;	COMDAT ?__LINE__Var@?0??GetSkillType@CMagicDamage@@QAEHH@Z@4JA
_DATA	SEGMENT
?__LINE__Var@?0??GetSkillType@CMagicDamage@@QAEHH@Z@4JA DD 03faH ; `CMagicDamage::GetSkillType'::`1'::__LINE__Var
_DATA	ENDS
;	COMDAT ?__LINE__Var@?0??GetDelayTime@CMagicDamage@@QAEHH@Z@4JA
_DATA	SEGMENT
?__LINE__Var@?0??GetDelayTime@CMagicDamage@@QAEHH@Z@4JA DD 03edH ; `CMagicDamage::GetDelayTime'::`1'::__LINE__Var
_DATA	ENDS
;	COMDAT ?__LINE__Var@?0??GetskillRequireLeadership@CMagicDamage@@QAEHH@Z@4JA
_DATA	SEGMENT
?__LINE__Var@?0??GetskillRequireLeadership@CMagicDamage@@QAEHH@Z@4JA DD 03dbH ; `CMagicDamage::GetskillRequireLeadership'::`1'::__LINE__Var
_DATA	ENDS
;	COMDAT ?__LINE__Var@?0??SkillGetRequireClass@CMagicDamage@@QAEHHHH@Z@4JA
_DATA	SEGMENT
?__LINE__Var@?0??SkillGetRequireClass@CMagicDamage@@QAEHHHH@Z@4JA DD 0389H ; `CMagicDamage::SkillGetRequireClass'::`1'::__LINE__Var
_DATA	ENDS
;	COMDAT ?__LINE__Var@?0??SkillGetRequireEnergy@CMagicDamage@@QAEHH@Z@4JA
_DATA	SEGMENT
?__LINE__Var@?0??SkillGetRequireEnergy@CMagicDamage@@QAEHH@Z@4JA DD 036fH ; `CMagicDamage::SkillGetRequireEnergy'::`1'::__LINE__Var
_DATA	ENDS
;	COMDAT ?__LINE__Var@?0??SkillGetBP@CMagicDamage@@QAEHH@Z@4JA
_DATA	SEGMENT
?__LINE__Var@?0??SkillGetBP@CMagicDamage@@QAEHH@Z@4JA DD 035bH ; `CMagicDamage::SkillGetBP'::`1'::__LINE__Var
_DATA	ENDS
;	COMDAT ?__LINE__Var@?0??SkillGetMana@CMagicDamage@@QAEHH@Z@4JA
_DATA	SEGMENT
?__LINE__Var@?0??SkillGetMana@CMagicDamage@@QAEHH@Z@4JA DD 0346H ; `CMagicDamage::SkillGetMana'::`1'::__LINE__Var
_DATA	ENDS
;	COMDAT ?__LINE__Var@?0??SkillGet@CMagicDamage@@QAEHH@Z@4JA
_DATA	SEGMENT
?__LINE__Var@?0??SkillGet@CMagicDamage@@QAEHH@Z@4JA DD 0332H ; `CMagicDamage::SkillGet'::`1'::__LINE__Var
_DATA	ENDS
;	COMDAT ?__LINE__Var@?0??Get@CMagicDamage@@AAEHH@Z@4JA
_DATA	SEGMENT
?__LINE__Var@?0??Get@CMagicDamage@@AAEHH@Z@4JA DD 0320H	; `CMagicDamage::Get'::`1'::__LINE__Var
_DATA	ENDS
;	COMDAT ??_C@_08MAACMGJK@skill?3?$CFd@
CONST	SEGMENT
??_C@_08MAACMGJK@skill?3?$CFd@ DB 'skill:%d', 00H	; `string'
CONST	ENDS
;	COMDAT ??_C@_0DO@ENMFLOMK@C?3?2Mu?5Online?2Mu?9GS?9Webzen?9MC?910@
CONST	SEGMENT
??_C@_0DO@ENMFLOMK@C?3?2Mu?5Online?2Mu?9GS?9Webzen?9MC?910@ DB 'C:\Mu Onl'
	DB	'ine\Mu-GS-Webzen-MC-10093\GameServer\MagicDamage.cpp', 00H ; `string'
CONST	ENDS
;	COMDAT ?__LINE__Var@?0??Set@CMagicDamage@@AAEXPADHHHHHHHHPAEHHH@Z@4JA
_DATA	SEGMENT
?__LINE__Var@?0??Set@CMagicDamage@@AAEXPADHHHHHHHHPAEHHH@Z@4JA DD 0274H ; `CMagicDamage::Set'::`1'::__LINE__Var
_DATA	ENDS
;	COMDAT ??_C@_01KDCPPGHE@r@
CONST	SEGMENT
??_C@_01KDCPPGHE@r@ DB 'r', 00H				; `string'
CONST	ENDS
;	COMDAT ??_7CMagicDamage@@6B@
CONST	SEGMENT
??_7CMagicDamage@@6B@ DD FLAT:??_R4CMagicDamage@@6B@	; CMagicDamage::`vftable'
	DD	FLAT:??_ECMagicDamage@@UAEPAXI@Z
CONST	ENDS
; Function compile flags: /Odtp /ZI
;	COMDAT ??__FMagicDamageC@@YAXXZ
text$yd	SEGMENT
??__FMagicDamageC@@YAXXZ PROC				; `dynamic atexit destructor for 'MagicDamageC'', COMDAT
  00000	55		 push	 ebp
  00001	8b ec		 mov	 ebp, esp
  00003	83 ec 40	 sub	 esp, 64			; 00000040H
  00006	53		 push	 ebx
  00007	56		 push	 esi
  00008	57		 push	 edi
  00009	b9 00 00 00 00	 mov	 ecx, OFFSET ?MagicDamageC@@3VCMagicDamage@@A ; MagicDamageC
  0000e	e8 00 00 00 00	 call	 ??1CMagicDamage@@UAE@XZ	; CMagicDamage::~CMagicDamage
  00013	5f		 pop	 edi
  00014	5e		 pop	 esi
  00015	5b		 pop	 ebx
  00016	8b e5		 mov	 esp, ebp
  00018	5d		 pop	 ebp
  00019	c3		 ret	 0
??__FMagicDamageC@@YAXXZ ENDP				; `dynamic atexit destructor for 'MagicDamageC''
text$yd	ENDS
; Function compile flags: /Odtp /ZI
; File C:\Mu Online\Mu-GS-Webzen-MC-10093\GameServer\MagicDamage.cpp
;	COMDAT ??__EMagicDamageC@@YAXXZ
text$di	SEGMENT
??__EMagicDamageC@@YAXXZ PROC				; `dynamic initializer for 'MagicDamageC'', COMDAT

; 20   : CMagicDamage	MagicDamageC;

  00000	55		 push	 ebp
  00001	8b ec		 mov	 ebp, esp
  00003	83 ec 40	 sub	 esp, 64			; 00000040H
  00006	53		 push	 ebx
  00007	56		 push	 esi
  00008	57		 push	 edi
  00009	b9 00 00 00 00	 mov	 ecx, OFFSET ?MagicDamageC@@3VCMagicDamage@@A ; MagicDamageC
  0000e	e8 00 00 00 00	 call	 ??0CMagicDamage@@QAE@XZ	; CMagicDamage::CMagicDamage
  00013	68 00 00 00 00	 push	 OFFSET ??__FMagicDamageC@@YAXXZ ; `dynamic atexit destructor for 'MagicDamageC''
  00018	e8 00 00 00 00	 call	 _atexit
  0001d	83 c4 04	 add	 esp, 4
  00020	5f		 pop	 edi
  00021	5e		 pop	 esi
  00022	5b		 pop	 ebx
  00023	8b e5		 mov	 esp, ebp
  00025	5d		 pop	 ebp
  00026	c3		 ret	 0
??__EMagicDamageC@@YAXXZ ENDP				; `dynamic initializer for 'MagicDamageC''
text$di	ENDS
; Function compile flags: /Odtp /ZI
;	COMDAT ??_GCMagicDamage@@UAEPAXI@Z
_TEXT	SEGMENT
_this$ = -4						; size = 4
___flags$ = 8						; size = 4
??_GCMagicDamage@@UAEPAXI@Z PROC			; CMagicDamage::`scalar deleting destructor', COMDAT
; _this$ = ecx
  00000	55		 push	 ebp
  00001	8b ec		 mov	 ebp, esp
  00003	83 ec 44	 sub	 esp, 68			; 00000044H
  00006	53		 push	 ebx
  00007	56		 push	 esi
  00008	57		 push	 edi
  00009	89 4d fc	 mov	 DWORD PTR _this$[ebp], ecx
  0000c	8b 4d fc	 mov	 ecx, DWORD PTR _this$[ebp]
  0000f	e8 00 00 00 00	 call	 ??1CMagicDamage@@UAE@XZ	; CMagicDamage::~CMagicDamage
  00014	8b 45 08	 mov	 eax, DWORD PTR ___flags$[ebp]
  00017	83 e0 01	 and	 eax, 1
  0001a	74 11		 je	 SHORT $LN2@scalar
  0001c	68 3c c7 00 00	 push	 51004			; 0000c73cH
  00021	8b 45 fc	 mov	 eax, DWORD PTR _this$[ebp]
  00024	50		 push	 eax
  00025	e8 00 00 00 00	 call	 ??3@YAXPAXI@Z		; operator delete
  0002a	83 c4 08	 add	 esp, 8
$LN2@scalar:
  0002d	8b 45 fc	 mov	 eax, DWORD PTR _this$[ebp]
  00030	5f		 pop	 edi
  00031	5e		 pop	 esi
  00032	5b		 pop	 ebx
  00033	8b e5		 mov	 esp, ebp
  00035	5d		 pop	 ebp
  00036	c2 04 00	 ret	 4
??_GCMagicDamage@@UAEPAXI@Z ENDP			; CMagicDamage::`scalar deleting destructor'
_TEXT	ENDS
; Function compile flags: /Odtp /ZI
; File C:\Mu Online\Mu-GS-Webzen-MC-10093\GameServer\MagicDamage.cpp
;	COMDAT ?GetSkillDistance@CMagicDamage@@QAEHH@Z
_TEXT	SEGMENT
_this$ = -4						; size = 4
_skill$ = 8						; size = 4
?GetSkillDistance@CMagicDamage@@QAEHH@Z PROC		; CMagicDamage::GetSkillDistance, COMDAT
; _this$ = ecx

; 1115 : {

  00000	55		 push	 ebp
  00001	8b ec		 mov	 ebp, esp
  00003	83 ec 44	 sub	 esp, 68			; 00000044H
  00006	53		 push	 ebx
  00007	56		 push	 esi
  00008	57		 push	 edi
  00009	89 4d fc	 mov	 DWORD PTR _this$[ebp], ecx

; 1116 : 	if( skill < 0 || skill > MAX_SKILL-1 ) 

  0000c	83 7d 08 00	 cmp	 DWORD PTR _skill$[ebp], 0
  00010	7c 09		 jl	 SHORT $LN3@GetSkillDi
  00012	81 7d 08 57 02
	00 00		 cmp	 DWORD PTR _skill$[ebp], 599 ; 00000257H
  00019	7e 2d		 jle	 SHORT $LN2@GetSkillDi
$LN3@GetSkillDi:

; 1117 : 	{
; 1118 : 		LogAdd(lMsg.Get(457),__FILE__, __LINE__);

  0001b	a1 00 00 00 00	 mov	 eax, DWORD PTR ?__LINE__Var@?0??GetSkillDistance@CMagicDamage@@QAEHH@Z@4JA
  00020	83 c0 03	 add	 eax, 3
  00023	50		 push	 eax
  00024	68 00 00 00 00	 push	 OFFSET ??_C@_0DO@ENMFLOMK@C?3?2Mu?5Online?2Mu?9GS?9Webzen?9MC?910@
  00029	68 c9 01 00 00	 push	 457			; 000001c9H
  0002e	b9 00 00 00 00	 mov	 ecx, OFFSET ?lMsg@@3VCMsg@@A ; lMsg
  00033	ff 15 00 00 00
	00		 call	 DWORD PTR __imp_?Get@CMsg@@QAEPADH@Z
  00039	50		 push	 eax
  0003a	ff 15 00 00 00
	00		 call	 DWORD PTR ?LogAdd@@3P6AXPADZZA ; LogAdd
  00040	83 c4 0c	 add	 esp, 12			; 0000000cH

; 1119 : 		return -1;

  00043	83 c8 ff	 or	 eax, -1
  00046	eb 0d		 jmp	 SHORT $LN1@GetSkillDi
$LN2@GetSkillDi:

; 1120 : 	}
; 1121 : 	
; 1122 : 	return m_Distance[skill];

  00048	8b 45 fc	 mov	 eax, DWORD PTR _this$[ebp]
  0004b	03 45 08	 add	 eax, DWORD PTR _skill$[ebp]
  0004e	0f b6 80 9c 85
	00 00		 movzx	 eax, BYTE PTR [eax+34204]
$LN1@GetSkillDi:

; 1123 : }

  00055	5f		 pop	 edi
  00056	5e		 pop	 esi
  00057	5b		 pop	 ebx
  00058	8b e5		 mov	 esp, ebp
  0005a	5d		 pop	 ebp
  0005b	c2 04 00	 ret	 4
?GetSkillDistance@CMagicDamage@@QAEHH@Z ENDP		; CMagicDamage::GetSkillDistance
_TEXT	ENDS
; Function compile flags: /Odtp /ZI
; File C:\Mu Online\Mu-GS-Webzen-MC-10093\GameServer\MagicDamage.cpp
;	COMDAT ?GetSkillType@CMagicDamage@@QAEHH@Z
_TEXT	SEGMENT
_this$ = -4						; size = 4
_iSkill$ = 8						; size = 4
?GetSkillType@CMagicDamage@@QAEHH@Z PROC		; CMagicDamage::GetSkillType, COMDAT
; _this$ = ecx

; 1018 : {

  00000	55		 push	 ebp
  00001	8b ec		 mov	 ebp, esp
  00003	83 ec 44	 sub	 esp, 68			; 00000044H
  00006	53		 push	 ebx
  00007	56		 push	 esi
  00008	57		 push	 edi
  00009	89 4d fc	 mov	 DWORD PTR _this$[ebp], ecx

; 1019 : 	if( iSkill < 0 || iSkill > MAX_SKILL-1 ) 

  0000c	83 7d 08 00	 cmp	 DWORD PTR _iSkill$[ebp], 0
  00010	7c 09		 jl	 SHORT $LN3@GetSkillTy
  00012	81 7d 08 57 02
	00 00		 cmp	 DWORD PTR _iSkill$[ebp], 599 ; 00000257H
  00019	7e 2c		 jle	 SHORT $LN2@GetSkillTy
$LN3@GetSkillTy:

; 1020 : 	{
; 1021 : 		LogAdd(lMsg.Get(457),__FILE__, __LINE__);

  0001b	a1 00 00 00 00	 mov	 eax, DWORD PTR ?__LINE__Var@?0??GetSkillType@CMagicDamage@@QAEHH@Z@4JA
  00020	83 c0 03	 add	 eax, 3
  00023	50		 push	 eax
  00024	68 00 00 00 00	 push	 OFFSET ??_C@_0DO@ENMFLOMK@C?3?2Mu?5Online?2Mu?9GS?9Webzen?9MC?910@
  00029	68 c9 01 00 00	 push	 457			; 000001c9H
  0002e	b9 00 00 00 00	 mov	 ecx, OFFSET ?lMsg@@3VCMsg@@A ; lMsg
  00033	ff 15 00 00 00
	00		 call	 DWORD PTR __imp_?Get@CMsg@@QAEPADH@Z
  00039	50		 push	 eax
  0003a	ff 15 00 00 00
	00		 call	 DWORD PTR ?LogAdd@@3P6AXPADZZA ; LogAdd
  00040	83 c4 0c	 add	 esp, 12			; 0000000cH

; 1022 : 		return 0;

  00043	33 c0		 xor	 eax, eax
  00045	eb 0d		 jmp	 SHORT $LN1@GetSkillTy
$LN2@GetSkillTy:

; 1023 : 	}
; 1024 : 	return m_iSkillType[iSkill];

  00047	8b 45 08	 mov	 eax, DWORD PTR _iSkill$[ebp]
  0004a	8b 4d fc	 mov	 ecx, DWORD PTR _this$[ebp]
  0004d	8b 84 81 dc bd
	00 00		 mov	 eax, DWORD PTR [ecx+eax*4+48604]
$LN1@GetSkillTy:

; 1025 : }

  00054	5f		 pop	 edi
  00055	5e		 pop	 esi
  00056	5b		 pop	 ebx
  00057	8b e5		 mov	 esp, ebp
  00059	5d		 pop	 ebp
  0005a	c2 04 00	 ret	 4
?GetSkillType@CMagicDamage@@QAEHH@Z ENDP		; CMagicDamage::GetSkillType
_TEXT	ENDS
; Function compile flags: /Odtp /ZI
; File C:\Mu Online\Mu-GS-Webzen-MC-10093\GameServer\MagicDamage.cpp
;	COMDAT ?GetDelayTime@CMagicDamage@@QAEHH@Z
_TEXT	SEGMENT
_this$ = -4						; size = 4
_skill$ = 8						; size = 4
?GetDelayTime@CMagicDamage@@QAEHH@Z PROC		; CMagicDamage::GetDelayTime, COMDAT
; _this$ = ecx

; 1005 : {

  00000	55		 push	 ebp
  00001	8b ec		 mov	 ebp, esp
  00003	83 ec 44	 sub	 esp, 68			; 00000044H
  00006	53		 push	 ebx
  00007	56		 push	 esi
  00008	57		 push	 edi
  00009	89 4d fc	 mov	 DWORD PTR _this$[ebp], ecx

; 1006 : 	if( skill < 0 || skill > MAX_SKILL-1 ) 

  0000c	83 7d 08 00	 cmp	 DWORD PTR _skill$[ebp], 0
  00010	7c 09		 jl	 SHORT $LN3@GetDelayTi
  00012	81 7d 08 57 02
	00 00		 cmp	 DWORD PTR _skill$[ebp], 599 ; 00000257H
  00019	7e 2c		 jle	 SHORT $LN2@GetDelayTi
$LN3@GetDelayTi:

; 1007 : 	{
; 1008 : 		LogAdd(lMsg.Get(457),__FILE__, __LINE__);

  0001b	a1 00 00 00 00	 mov	 eax, DWORD PTR ?__LINE__Var@?0??GetDelayTime@CMagicDamage@@QAEHH@Z@4JA
  00020	83 c0 03	 add	 eax, 3
  00023	50		 push	 eax
  00024	68 00 00 00 00	 push	 OFFSET ??_C@_0DO@ENMFLOMK@C?3?2Mu?5Online?2Mu?9GS?9Webzen?9MC?910@
  00029	68 c9 01 00 00	 push	 457			; 000001c9H
  0002e	b9 00 00 00 00	 mov	 ecx, OFFSET ?lMsg@@3VCMsg@@A ; lMsg
  00033	ff 15 00 00 00
	00		 call	 DWORD PTR __imp_?Get@CMsg@@QAEPADH@Z
  00039	50		 push	 eax
  0003a	ff 15 00 00 00
	00		 call	 DWORD PTR ?LogAdd@@3P6AXPADZZA ; LogAdd
  00040	83 c4 0c	 add	 esp, 12			; 0000000cH

; 1009 : 		return 0;

  00043	33 c0		 xor	 eax, eax
  00045	eb 0d		 jmp	 SHORT $LN1@GetDelayTi
$LN2@GetDelayTi:

; 1010 : 	}
; 1011 : 	return m_Delay[skill];	

  00047	8b 45 08	 mov	 eax, DWORD PTR _skill$[ebp]
  0004a	8b 4d fc	 mov	 ecx, DWORD PTR _this$[ebp]
  0004d	8b 84 81 6c a6
	00 00		 mov	 eax, DWORD PTR [ecx+eax*4+42604]
$LN1@GetDelayTi:

; 1012 : }

  00054	5f		 pop	 edi
  00055	5e		 pop	 esi
  00056	5b		 pop	 ebx
  00057	8b e5		 mov	 esp, ebp
  00059	5d		 pop	 ebp
  0005a	c2 04 00	 ret	 4
?GetDelayTime@CMagicDamage@@QAEHH@Z ENDP		; CMagicDamage::GetDelayTime
_TEXT	ENDS
; Function compile flags: /Odtp /ZI
; File C:\Mu Online\Mu-GS-Webzen-MC-10093\GameServer\MagicDamage.cpp
;	COMDAT ?GetskillRequireLeadership@CMagicDamage@@QAEHH@Z
_TEXT	SEGMENT
_this$ = -4						; size = 4
_skill$ = 8						; size = 4
?GetskillRequireLeadership@CMagicDamage@@QAEHH@Z PROC	; CMagicDamage::GetskillRequireLeadership, COMDAT
; _this$ = ecx

; 987  : {

  00000	55		 push	 ebp
  00001	8b ec		 mov	 ebp, esp
  00003	83 ec 44	 sub	 esp, 68			; 00000044H
  00006	53		 push	 ebx
  00007	56		 push	 esi
  00008	57		 push	 edi
  00009	89 4d fc	 mov	 DWORD PTR _this$[ebp], ecx

; 988  : 	if( skill < 0 || skill > MAX_SKILL-1 ) 

  0000c	83 7d 08 00	 cmp	 DWORD PTR _skill$[ebp], 0
  00010	7c 09		 jl	 SHORT $LN3@GetskillRe
  00012	81 7d 08 57 02
	00 00		 cmp	 DWORD PTR _skill$[ebp], 599 ; 00000257H
  00019	7e 2d		 jle	 SHORT $LN2@GetskillRe
$LN3@GetskillRe:

; 989  : 	{
; 990  : 		LogAdd(lMsg.Get(457),__FILE__, __LINE__);

  0001b	a1 00 00 00 00	 mov	 eax, DWORD PTR ?__LINE__Var@?0??GetskillRequireLeadership@CMagicDamage@@QAEHH@Z@4JA
  00020	83 c0 03	 add	 eax, 3
  00023	50		 push	 eax
  00024	68 00 00 00 00	 push	 OFFSET ??_C@_0DO@ENMFLOMK@C?3?2Mu?5Online?2Mu?9GS?9Webzen?9MC?910@
  00029	68 c9 01 00 00	 push	 457			; 000001c9H
  0002e	b9 00 00 00 00	 mov	 ecx, OFFSET ?lMsg@@3VCMsg@@A ; lMsg
  00033	ff 15 00 00 00
	00		 call	 DWORD PTR __imp_?Get@CMsg@@QAEPADH@Z
  00039	50		 push	 eax
  0003a	ff 15 00 00 00
	00		 call	 DWORD PTR ?LogAdd@@3P6AXPADZZA ; LogAdd
  00040	83 c4 0c	 add	 esp, 12			; 0000000cH

; 991  : 		return -1;

  00043	83 c8 ff	 or	 eax, -1
  00046	eb 4a		 jmp	 SHORT $LN1@GetskillRe
$LN2@GetskillRe:

; 992  : 	}
; 993  : 	if( m_RequireLeadership[skill] == -1 ) 

  00048	8b 45 08	 mov	 eax, DWORD PTR _skill$[ebp]
  0004b	8b 4d fc	 mov	 ecx, DWORD PTR _this$[ebp]
  0004e	83 bc 81 0c 9d
	00 00 ff	 cmp	 DWORD PTR [ecx+eax*4+40204], -1
  00056	75 2d		 jne	 SHORT $LN4@GetskillRe

; 994  : 	{
; 995  : 		LogAdd(lMsg.Get(458),__FILE__, __LINE__);

  00058	a1 00 00 00 00	 mov	 eax, DWORD PTR ?__LINE__Var@?0??GetskillRequireLeadership@CMagicDamage@@QAEHH@Z@4JA
  0005d	83 c0 08	 add	 eax, 8
  00060	50		 push	 eax
  00061	68 00 00 00 00	 push	 OFFSET ??_C@_0DO@ENMFLOMK@C?3?2Mu?5Online?2Mu?9GS?9Webzen?9MC?910@
  00066	68 ca 01 00 00	 push	 458			; 000001caH
  0006b	b9 00 00 00 00	 mov	 ecx, OFFSET ?lMsg@@3VCMsg@@A ; lMsg
  00070	ff 15 00 00 00
	00		 call	 DWORD PTR __imp_?Get@CMsg@@QAEPADH@Z
  00076	50		 push	 eax
  00077	ff 15 00 00 00
	00		 call	 DWORD PTR ?LogAdd@@3P6AXPADZZA ; LogAdd
  0007d	83 c4 0c	 add	 esp, 12			; 0000000cH

; 996  : 		return -1;

  00080	83 c8 ff	 or	 eax, -1
  00083	eb 0d		 jmp	 SHORT $LN1@GetskillRe
$LN4@GetskillRe:

; 997  : 	}
; 998  : //	LogAdd("skill:%d = %d", skill, m_Mana[skill]);
; 999  : 
; 1000 : 	return m_RequireLeadership[skill];	

  00085	8b 45 08	 mov	 eax, DWORD PTR _skill$[ebp]
  00088	8b 4d fc	 mov	 ecx, DWORD PTR _this$[ebp]
  0008b	8b 84 81 0c 9d
	00 00		 mov	 eax, DWORD PTR [ecx+eax*4+40204]
$LN1@GetskillRe:

; 1001 : }

  00092	5f		 pop	 edi
  00093	5e		 pop	 esi
  00094	5b		 pop	 ebx
  00095	8b e5		 mov	 esp, ebp
  00097	5d		 pop	 ebp
  00098	c2 04 00	 ret	 4
?GetskillRequireLeadership@CMagicDamage@@QAEHH@Z ENDP	; CMagicDamage::GetskillRequireLeadership
_TEXT	ENDS
; Function compile flags: /Odtp /ZI
; File C:\Mu Online\Mu-GS-Webzen-MC-10093\GameServer\MagicDamage.cpp
;	COMDAT ?GetSkillAttr@CMagicDamage@@QAEHH@Z
_TEXT	SEGMENT
_this$ = -4						; size = 4
_skill$ = 8						; size = 4
?GetSkillAttr@CMagicDamage@@QAEHH@Z PROC		; CMagicDamage::GetSkillAttr, COMDAT
; _this$ = ecx

; 964  : {

  00000	55		 push	 ebp
  00001	8b ec		 mov	 ebp, esp
  00003	83 ec 44	 sub	 esp, 68			; 00000044H
  00006	53		 push	 ebx
  00007	56		 push	 esi
  00008	57		 push	 edi
  00009	89 4d fc	 mov	 DWORD PTR _this$[ebp], ecx

; 965  : 	if( skill < 0 || skill > MAX_SKILL-1 ) 

  0000c	83 7d 08 00	 cmp	 DWORD PTR _skill$[ebp], 0
  00010	7c 09		 jl	 SHORT $LN3@GetSkillAt
  00012	81 7d 08 57 02
	00 00		 cmp	 DWORD PTR _skill$[ebp], 599 ; 00000257H
  00019	7e 05		 jle	 SHORT $LN2@GetSkillAt
$LN3@GetSkillAt:

; 966  : 	{
; 967  : 		return -1;

  0001b	83 c8 ff	 or	 eax, -1
  0001e	eb 0d		 jmp	 SHORT $LN1@GetSkillAt
$LN2@GetSkillAt:

; 968  : 	}
; 969  : 	
; 970  : 	return m_Attr[skill];

  00020	8b 45 08	 mov	 eax, DWORD PTR _skill$[ebp]
  00023	8b 4d fc	 mov	 ecx, DWORD PTR _this$[ebp]
  00026	8b 84 81 7c b4
	00 00		 mov	 eax, DWORD PTR [ecx+eax*4+46204]
$LN1@GetSkillAt:

; 971  : }

  0002d	5f		 pop	 edi
  0002e	5e		 pop	 esi
  0002f	5b		 pop	 ebx
  00030	8b e5		 mov	 esp, ebp
  00032	5d		 pop	 ebp
  00033	c2 04 00	 ret	 4
?GetSkillAttr@CMagicDamage@@QAEHH@Z ENDP		; CMagicDamage::GetSkillAttr
_TEXT	ENDS
; Function compile flags: /Odtp /ZI
; File C:\Mu Online\Mu-GS-Webzen-MC-10093\GameServer\MagicDamage.cpp
;	COMDAT ?SkillGetBP@CMagicDamage@@QAEHH@Z
_TEXT	SEGMENT
_this$ = -4						; size = 4
_skill$ = 8						; size = 4
?SkillGetBP@CMagicDamage@@QAEHH@Z PROC			; CMagicDamage::SkillGetBP, COMDAT
; _this$ = ecx

; 859  : {	

  00000	55		 push	 ebp
  00001	8b ec		 mov	 ebp, esp
  00003	83 ec 44	 sub	 esp, 68			; 00000044H
  00006	53		 push	 ebx
  00007	56		 push	 esi
  00008	57		 push	 edi
  00009	89 4d fc	 mov	 DWORD PTR _this$[ebp], ecx

; 860  : 	if( skill < 0 || skill > MAX_SKILL-1 ) 

  0000c	83 7d 08 00	 cmp	 DWORD PTR _skill$[ebp], 0
  00010	7c 09		 jl	 SHORT $LN3@SkillGetBP
  00012	81 7d 08 57 02
	00 00		 cmp	 DWORD PTR _skill$[ebp], 599 ; 00000257H
  00019	7e 2c		 jle	 SHORT $LN2@SkillGetBP
$LN3@SkillGetBP:

; 861  : 	{
; 862  : 		LogAdd(lMsg.Get(457),__FILE__, __LINE__);

  0001b	a1 00 00 00 00	 mov	 eax, DWORD PTR ?__LINE__Var@?0??SkillGetBP@CMagicDamage@@QAEHH@Z@4JA
  00020	83 c0 03	 add	 eax, 3
  00023	50		 push	 eax
  00024	68 00 00 00 00	 push	 OFFSET ??_C@_0DO@ENMFLOMK@C?3?2Mu?5Online?2Mu?9GS?9Webzen?9MC?910@
  00029	68 c9 01 00 00	 push	 457			; 000001c9H
  0002e	b9 00 00 00 00	 mov	 ecx, OFFSET ?lMsg@@3VCMsg@@A ; lMsg
  00033	ff 15 00 00 00
	00		 call	 DWORD PTR __imp_?Get@CMsg@@QAEPADH@Z
  00039	50		 push	 eax
  0003a	ff 15 00 00 00
	00		 call	 DWORD PTR ?LogAdd@@3P6AXPADZZA ; LogAdd
  00040	83 c4 0c	 add	 esp, 12			; 0000000cH

; 863  : 		return 0;

  00043	33 c0		 xor	 eax, eax
  00045	eb 47		 jmp	 SHORT $LN1@SkillGetBP
$LN2@SkillGetBP:

; 864  : 	}
; 865  : 	if( m_Damage[skill] == -1 ) 

  00047	8b 45 08	 mov	 eax, DWORD PTR _skill$[ebp]
  0004a	8b 4d fc	 mov	 ecx, DWORD PTR _this$[ebp]
  0004d	83 7c 81 04 ff	 cmp	 DWORD PTR [ecx+eax*4+4], -1
  00052	75 2c		 jne	 SHORT $LN4@SkillGetBP

; 866  : 	{
; 867  : 		LogAdd(lMsg.Get(458),__FILE__, __LINE__);

  00054	a1 00 00 00 00	 mov	 eax, DWORD PTR ?__LINE__Var@?0??SkillGetBP@CMagicDamage@@QAEHH@Z@4JA
  00059	83 c0 08	 add	 eax, 8
  0005c	50		 push	 eax
  0005d	68 00 00 00 00	 push	 OFFSET ??_C@_0DO@ENMFLOMK@C?3?2Mu?5Online?2Mu?9GS?9Webzen?9MC?910@
  00062	68 ca 01 00 00	 push	 458			; 000001caH
  00067	b9 00 00 00 00	 mov	 ecx, OFFSET ?lMsg@@3VCMsg@@A ; lMsg
  0006c	ff 15 00 00 00
	00		 call	 DWORD PTR __imp_?Get@CMsg@@QAEPADH@Z
  00072	50		 push	 eax
  00073	ff 15 00 00 00
	00		 call	 DWORD PTR ?LogAdd@@3P6AXPADZZA ; LogAdd
  00079	83 c4 0c	 add	 esp, 12			; 0000000cH

; 868  : 		return 0;

  0007c	33 c0		 xor	 eax, eax
  0007e	eb 0e		 jmp	 SHORT $LN1@SkillGetBP
$LN4@SkillGetBP:

; 869  : 	}
; 870  : //	LogAdd("skill:%d = %d", skill, m_Mana[skill]);
; 871  : 	return m_BrainPower[skill];

  00080	8b 45 08	 mov	 eax, DWORD PTR _skill$[ebp]
  00083	8b 4d fc	 mov	 ecx, DWORD PTR _this$[ebp]
  00086	0f b7 84 41 cc
	af 00 00	 movzx	 eax, WORD PTR [ecx+eax*2+45004]
$LN1@SkillGetBP:

; 872  : }

  0008e	5f		 pop	 edi
  0008f	5e		 pop	 esi
  00090	5b		 pop	 ebx
  00091	8b e5		 mov	 esp, ebp
  00093	5d		 pop	 ebp
  00094	c2 04 00	 ret	 4
?SkillGetBP@CMagicDamage@@QAEHH@Z ENDP			; CMagicDamage::SkillGetBP
_TEXT	ENDS
; Function compile flags: /Odtp /ZI
; File C:\Mu Online\Mu-GS-Webzen-MC-10093\GameServer\MagicDamage.cpp
;	COMDAT ?SkillGetRequireClass@CMagicDamage@@QAEHHHH@Z
_TEXT	SEGMENT
_requireclass$ = -8					; size = 4
_this$ = -4						; size = 4
_Cclass$ = 8						; size = 4
_ChangeUP$ = 12						; size = 4
_skill$ = 16						; size = 4
?SkillGetRequireClass@CMagicDamage@@QAEHHHH@Z PROC	; CMagicDamage::SkillGetRequireClass, COMDAT
; _this$ = ecx

; 905  : {	

  00000	55		 push	 ebp
  00001	8b ec		 mov	 ebp, esp
  00003	83 ec 48	 sub	 esp, 72			; 00000048H
  00006	53		 push	 ebx
  00007	56		 push	 esi
  00008	57		 push	 edi
  00009	89 4d fc	 mov	 DWORD PTR _this$[ebp], ecx

; 906  : 	if( skill < 0 || skill > MAX_SKILL-1 ) 

  0000c	83 7d 10 00	 cmp	 DWORD PTR _skill$[ebp], 0
  00010	7c 09		 jl	 SHORT $LN3@SkillGetRe
  00012	81 7d 10 57 02
	00 00		 cmp	 DWORD PTR _skill$[ebp], 599 ; 00000257H
  00019	7e 2d		 jle	 SHORT $LN2@SkillGetRe
$LN3@SkillGetRe:

; 907  : 	{
; 908  : 		LogAdd(lMsg.Get(457),__FILE__, __LINE__);

  0001b	a1 00 00 00 00	 mov	 eax, DWORD PTR ?__LINE__Var@?0??SkillGetRequireClass@CMagicDamage@@QAEHHHH@Z@4JA
  00020	83 c0 03	 add	 eax, 3
  00023	50		 push	 eax
  00024	68 00 00 00 00	 push	 OFFSET ??_C@_0DO@ENMFLOMK@C?3?2Mu?5Online?2Mu?9GS?9Webzen?9MC?910@
  00029	68 c9 01 00 00	 push	 457			; 000001c9H
  0002e	b9 00 00 00 00	 mov	 ecx, OFFSET ?lMsg@@3VCMsg@@A ; lMsg
  00033	ff 15 00 00 00
	00		 call	 DWORD PTR __imp_?Get@CMsg@@QAEPADH@Z
  00039	50		 push	 eax
  0003a	ff 15 00 00 00
	00		 call	 DWORD PTR ?LogAdd@@3P6AXPADZZA ; LogAdd
  00040	83 c4 0c	 add	 esp, 12			; 0000000cH

; 909  : 		return -1;

  00043	83 c8 ff	 or	 eax, -1
  00046	eb 75		 jmp	 SHORT $LN1@SkillGetRe
$LN2@SkillGetRe:

; 910  : 	}
; 911  : 	if( Cclass < 0 || Cclass > MAX_CLASSTYPE-1 ) 

  00048	83 7d 08 00	 cmp	 DWORD PTR _Cclass$[ebp], 0
  0004c	7c 06		 jl	 SHORT $LN5@SkillGetRe
  0004e	83 7d 08 04	 cmp	 DWORD PTR _Cclass$[ebp], 4
  00052	7e 2d		 jle	 SHORT $LN4@SkillGetRe
$LN5@SkillGetRe:

; 912  : 	{
; 913  : 		LogAdd(lMsg.Get(458),__FILE__, __LINE__);

  00054	a1 00 00 00 00	 mov	 eax, DWORD PTR ?__LINE__Var@?0??SkillGetRequireClass@CMagicDamage@@QAEHHHH@Z@4JA
  00059	83 c0 08	 add	 eax, 8
  0005c	50		 push	 eax
  0005d	68 00 00 00 00	 push	 OFFSET ??_C@_0DO@ENMFLOMK@C?3?2Mu?5Online?2Mu?9GS?9Webzen?9MC?910@
  00062	68 ca 01 00 00	 push	 458			; 000001caH
  00067	b9 00 00 00 00	 mov	 ecx, OFFSET ?lMsg@@3VCMsg@@A ; lMsg
  0006c	ff 15 00 00 00
	00		 call	 DWORD PTR __imp_?Get@CMsg@@QAEPADH@Z
  00072	50		 push	 eax
  00073	ff 15 00 00 00
	00		 call	 DWORD PTR ?LogAdd@@3P6AXPADZZA ; LogAdd
  00079	83 c4 0c	 add	 esp, 12			; 0000000cH

; 914  : 		return -1;

  0007c	83 c8 ff	 or	 eax, -1
  0007f	eb 3c		 jmp	 SHORT $LN1@SkillGetRe
$LN4@SkillGetRe:

; 915  : 	}
; 916  : 
; 917  : 	int requireclass = m_RequireClass[skill][Cclass];

  00081	6b 45 10 05	 imul	 eax, DWORD PTR _skill$[ebp], 5
  00085	8b 4d fc	 mov	 ecx, DWORD PTR _this$[ebp]
  00088	8d 94 01 54 91
	00 00		 lea	 edx, DWORD PTR [ecx+eax+37204]
  0008f	8b 45 08	 mov	 eax, DWORD PTR _Cclass$[ebp]
  00092	0f b6 0c 02	 movzx	 ecx, BYTE PTR [edx+eax]
  00096	89 4d f8	 mov	 DWORD PTR _requireclass$[ebp], ecx

; 918  : 
; 919  : #ifdef MASTER_LEVEL_SKILL_SYSTEM_20071122	// SkillGetRequireClass(...) 3차전직 추가
; 920  : 	if( requireclass == 0 )
; 921  : 		return FALSE;
; 922  : 	else if( requireclass == 3 )
; 923  : 	{
; 924  : 		if( ThirdChangeUp > 0 )
; 925  : 			return TRUE;
; 926  : 		else 
; 927  : 			return FALSE;
; 928  : 	}
; 929  : 
; 930  : 	if( requireclass > 1 )
; 931  : 	{	// 전직전용이면
; 932  : 		if( requireclass != ChangeUP+1 )
; 933  : 			return FALSE;
; 934  : 	}
; 935  : #else
; 936  : 	if( requireclass == 0 ) return FALSE;

  00099	83 7d f8 00	 cmp	 DWORD PTR _requireclass$[ebp], 0
  0009d	75 04		 jne	 SHORT $LN6@SkillGetRe
  0009f	33 c0		 xor	 eax, eax
  000a1	eb 1a		 jmp	 SHORT $LN1@SkillGetRe
$LN6@SkillGetRe:

; 937  : 	if( requireclass > 1 )

  000a3	83 7d f8 01	 cmp	 DWORD PTR _requireclass$[ebp], 1
  000a7	7e 0f		 jle	 SHORT $LN7@SkillGetRe

; 938  : 	{	// 전직전용이면
; 939  : 		if( requireclass != ChangeUP+1 )

  000a9	8b 45 0c	 mov	 eax, DWORD PTR _ChangeUP$[ebp]
  000ac	83 c0 01	 add	 eax, 1
  000af	39 45 f8	 cmp	 DWORD PTR _requireclass$[ebp], eax
  000b2	74 04		 je	 SHORT $LN7@SkillGetRe

; 940  : 			return FALSE;

  000b4	33 c0		 xor	 eax, eax
  000b6	eb 05		 jmp	 SHORT $LN1@SkillGetRe
$LN7@SkillGetRe:

; 941  : 	}
; 942  : #endif	// MASTER_LEVEL_SKILL_SYSTEM_20071122
; 943  : 	return TRUE;

  000b8	b8 01 00 00 00	 mov	 eax, 1
$LN1@SkillGetRe:

; 944  : }

  000bd	5f		 pop	 edi
  000be	5e		 pop	 esi
  000bf	5b		 pop	 ebx
  000c0	8b e5		 mov	 esp, ebp
  000c2	5d		 pop	 ebp
  000c3	c2 0c 00	 ret	 12			; 0000000cH
?SkillGetRequireClass@CMagicDamage@@QAEHHHH@Z ENDP	; CMagicDamage::SkillGetRequireClass
_TEXT	ENDS
; Function compile flags: /Odtp /ZI
; File C:\Mu Online\Mu-GS-Webzen-MC-10093\GameServer\MagicDamage.cpp
;	COMDAT ?SkillGetRequireEnergy@CMagicDamage@@QAEHH@Z
_TEXT	SEGMENT
_this$ = -4						; size = 4
_skill$ = 8						; size = 4
?SkillGetRequireEnergy@CMagicDamage@@QAEHH@Z PROC	; CMagicDamage::SkillGetRequireEnergy, COMDAT
; _this$ = ecx

; 879  : {	

  00000	55		 push	 ebp
  00001	8b ec		 mov	 ebp, esp
  00003	83 ec 44	 sub	 esp, 68			; 00000044H
  00006	53		 push	 ebx
  00007	56		 push	 esi
  00008	57		 push	 edi
  00009	89 4d fc	 mov	 DWORD PTR _this$[ebp], ecx

; 880  : 	if( skill < 0 || skill > MAX_SKILL-1 ) 

  0000c	83 7d 08 00	 cmp	 DWORD PTR _skill$[ebp], 0
  00010	7c 09		 jl	 SHORT $LN3@SkillGetRe
  00012	81 7d 08 57 02
	00 00		 cmp	 DWORD PTR _skill$[ebp], 599 ; 00000257H
  00019	7e 2d		 jle	 SHORT $LN2@SkillGetRe
$LN3@SkillGetRe:

; 881  : 	{
; 882  : 		LogAdd(lMsg.Get(457),__FILE__, __LINE__);

  0001b	a1 00 00 00 00	 mov	 eax, DWORD PTR ?__LINE__Var@?0??SkillGetRequireEnergy@CMagicDamage@@QAEHH@Z@4JA
  00020	83 c0 03	 add	 eax, 3
  00023	50		 push	 eax
  00024	68 00 00 00 00	 push	 OFFSET ??_C@_0DO@ENMFLOMK@C?3?2Mu?5Online?2Mu?9GS?9Webzen?9MC?910@
  00029	68 c9 01 00 00	 push	 457			; 000001c9H
  0002e	b9 00 00 00 00	 mov	 ecx, OFFSET ?lMsg@@3VCMsg@@A ; lMsg
  00033	ff 15 00 00 00
	00		 call	 DWORD PTR __imp_?Get@CMsg@@QAEPADH@Z
  00039	50		 push	 eax
  0003a	ff 15 00 00 00
	00		 call	 DWORD PTR ?LogAdd@@3P6AXPADZZA ; LogAdd
  00040	83 c4 0c	 add	 esp, 12			; 0000000cH

; 883  : 		return -1;

  00043	83 c8 ff	 or	 eax, -1
  00046	eb 4a		 jmp	 SHORT $LN1@SkillGetRe
$LN2@SkillGetRe:

; 884  : 	}
; 885  : 	if( m_RequireEnergy[skill] == -1 ) 

  00048	8b 45 08	 mov	 eax, DWORD PTR _skill$[ebp]
  0004b	8b 4d fc	 mov	 ecx, DWORD PTR _this$[ebp]
  0004e	83 bc 81 f4 87
	00 00 ff	 cmp	 DWORD PTR [ecx+eax*4+34804], -1
  00056	75 2d		 jne	 SHORT $LN4@SkillGetRe

; 886  : 	{
; 887  : 		LogAdd(lMsg.Get(458),__FILE__, __LINE__);

  00058	a1 00 00 00 00	 mov	 eax, DWORD PTR ?__LINE__Var@?0??SkillGetRequireEnergy@CMagicDamage@@QAEHH@Z@4JA
  0005d	83 c0 08	 add	 eax, 8
  00060	50		 push	 eax
  00061	68 00 00 00 00	 push	 OFFSET ??_C@_0DO@ENMFLOMK@C?3?2Mu?5Online?2Mu?9GS?9Webzen?9MC?910@
  00066	68 ca 01 00 00	 push	 458			; 000001caH
  0006b	b9 00 00 00 00	 mov	 ecx, OFFSET ?lMsg@@3VCMsg@@A ; lMsg
  00070	ff 15 00 00 00
	00		 call	 DWORD PTR __imp_?Get@CMsg@@QAEPADH@Z
  00076	50		 push	 eax
  00077	ff 15 00 00 00
	00		 call	 DWORD PTR ?LogAdd@@3P6AXPADZZA ; LogAdd
  0007d	83 c4 0c	 add	 esp, 12			; 0000000cH

; 888  : 		return -1;

  00080	83 c8 ff	 or	 eax, -1
  00083	eb 0d		 jmp	 SHORT $LN1@SkillGetRe
$LN4@SkillGetRe:

; 889  : 	}
; 890  : //	LogAdd("skill:%d = %d", skill, m_Mana[skill]);
; 891  : 
; 892  : 	return m_RequireEnergy[skill];

  00085	8b 45 08	 mov	 eax, DWORD PTR _skill$[ebp]
  00088	8b 4d fc	 mov	 ecx, DWORD PTR _this$[ebp]
  0008b	8b 84 81 f4 87
	00 00		 mov	 eax, DWORD PTR [ecx+eax*4+34804]
$LN1@SkillGetRe:

; 893  : }

  00092	5f		 pop	 edi
  00093	5e		 pop	 esi
  00094	5b		 pop	 ebx
  00095	8b e5		 mov	 esp, ebp
  00097	5d		 pop	 ebp
  00098	c2 04 00	 ret	 4
?SkillGetRequireEnergy@CMagicDamage@@QAEHH@Z ENDP	; CMagicDamage::SkillGetRequireEnergy
_TEXT	ENDS
; Function compile flags: /Odtp /ZI
; File C:\Mu Online\Mu-GS-Webzen-MC-10093\GameServer\MagicDamage.cpp
;	COMDAT ?SkillGetMana@CMagicDamage@@QAEHH@Z
_TEXT	SEGMENT
_this$ = -4						; size = 4
_skill$ = 8						; size = 4
?SkillGetMana@CMagicDamage@@QAEHH@Z PROC		; CMagicDamage::SkillGetMana, COMDAT
; _this$ = ecx

; 838  : {	

  00000	55		 push	 ebp
  00001	8b ec		 mov	 ebp, esp
  00003	83 ec 44	 sub	 esp, 68			; 00000044H
  00006	53		 push	 ebx
  00007	56		 push	 esi
  00008	57		 push	 edi
  00009	89 4d fc	 mov	 DWORD PTR _this$[ebp], ecx

; 839  : 	if( skill < 0 || skill > MAX_SKILL-1 ) 

  0000c	83 7d 08 00	 cmp	 DWORD PTR _skill$[ebp], 0
  00010	7c 09		 jl	 SHORT $LN3@SkillGetMa
  00012	81 7d 08 57 02
	00 00		 cmp	 DWORD PTR _skill$[ebp], 599 ; 00000257H
  00019	7e 3d		 jle	 SHORT $LN2@SkillGetMa
$LN3@SkillGetMa:

; 840  : 	{
; 841  : 		LogAdd(lMsg.Get(457),__FILE__, __LINE__);

  0001b	a1 00 00 00 00	 mov	 eax, DWORD PTR ?__LINE__Var@?0??SkillGetMana@CMagicDamage@@QAEHH@Z@4JA
  00020	83 c0 03	 add	 eax, 3
  00023	50		 push	 eax
  00024	68 00 00 00 00	 push	 OFFSET ??_C@_0DO@ENMFLOMK@C?3?2Mu?5Online?2Mu?9GS?9Webzen?9MC?910@
  00029	68 c9 01 00 00	 push	 457			; 000001c9H
  0002e	b9 00 00 00 00	 mov	 ecx, OFFSET ?lMsg@@3VCMsg@@A ; lMsg
  00033	ff 15 00 00 00
	00		 call	 DWORD PTR __imp_?Get@CMsg@@QAEPADH@Z
  00039	50		 push	 eax
  0003a	ff 15 00 00 00
	00		 call	 DWORD PTR ?LogAdd@@3P6AXPADZZA ; LogAdd
  00040	83 c4 0c	 add	 esp, 12			; 0000000cH

; 842  : 		return m_Mana[0];

  00043	b8 02 00 00 00	 mov	 eax, 2
  00048	6b c8 00	 imul	 ecx, eax, 0
  0004b	8b 55 fc	 mov	 edx, DWORD PTR _this$[ebp]
  0004e	0f b7 84 0a ec
	80 00 00	 movzx	 eax, WORD PTR [edx+ecx+33004]
  00056	eb 54		 jmp	 SHORT $LN1@SkillGetMa
$LN2@SkillGetMa:

; 843  : 	}
; 844  : 	if( m_Damage[skill] == -1 ) 

  00058	8b 45 08	 mov	 eax, DWORD PTR _skill$[ebp]
  0005b	8b 4d fc	 mov	 ecx, DWORD PTR _this$[ebp]
  0005e	83 7c 81 04 ff	 cmp	 DWORD PTR [ecx+eax*4+4], -1
  00063	75 39		 jne	 SHORT $LN4@SkillGetMa

; 845  : 	{
; 846  : 		LogAdd(lMsg.Get(458),__FILE__, __LINE__);

  00065	a1 00 00 00 00	 mov	 eax, DWORD PTR ?__LINE__Var@?0??SkillGetMana@CMagicDamage@@QAEHH@Z@4JA
  0006a	83 c0 08	 add	 eax, 8
  0006d	50		 push	 eax
  0006e	68 00 00 00 00	 push	 OFFSET ??_C@_0DO@ENMFLOMK@C?3?2Mu?5Online?2Mu?9GS?9Webzen?9MC?910@
  00073	68 ca 01 00 00	 push	 458			; 000001caH
  00078	b9 00 00 00 00	 mov	 ecx, OFFSET ?lMsg@@3VCMsg@@A ; lMsg
  0007d	ff 15 00 00 00
	00		 call	 DWORD PTR __imp_?Get@CMsg@@QAEPADH@Z
  00083	50		 push	 eax
  00084	ff 15 00 00 00
	00		 call	 DWORD PTR ?LogAdd@@3P6AXPADZZA ; LogAdd
  0008a	83 c4 0c	 add	 esp, 12			; 0000000cH

; 847  : 		return m_Damage[0];

  0008d	b8 04 00 00 00	 mov	 eax, 4
  00092	6b c8 00	 imul	 ecx, eax, 0
  00095	8b 55 fc	 mov	 edx, DWORD PTR _this$[ebp]
  00098	8b 44 0a 04	 mov	 eax, DWORD PTR [edx+ecx+4]
  0009c	eb 0e		 jmp	 SHORT $LN1@SkillGetMa
$LN4@SkillGetMa:

; 848  : 	}
; 849  : //	LogAdd("skill:%d = %d", skill, m_Mana[skill]);
; 850  : 	return m_Mana[skill];

  0009e	8b 45 08	 mov	 eax, DWORD PTR _skill$[ebp]
  000a1	8b 4d fc	 mov	 ecx, DWORD PTR _this$[ebp]
  000a4	0f b7 84 41 ec
	80 00 00	 movzx	 eax, WORD PTR [ecx+eax*2+33004]
$LN1@SkillGetMa:

; 851  : }

  000ac	5f		 pop	 edi
  000ad	5e		 pop	 esi
  000ae	5b		 pop	 ebx
  000af	8b e5		 mov	 esp, ebp
  000b1	5d		 pop	 ebp
  000b2	c2 04 00	 ret	 4
?SkillGetMana@CMagicDamage@@QAEHH@Z ENDP		; CMagicDamage::SkillGetMana
_TEXT	ENDS
; Function compile flags: /Odtp /ZI
; File C:\Mu Online\Mu-GS-Webzen-MC-10093\GameServer\MagicDamage.cpp
;	COMDAT ?SkillGet@CMagicDamage@@QAEHH@Z
_TEXT	SEGMENT
_this$ = -4						; size = 4
_skill$ = 8						; size = 4
?SkillGet@CMagicDamage@@QAEHH@Z PROC			; CMagicDamage::SkillGet, COMDAT
; _this$ = ecx

; 818  : {	

  00000	55		 push	 ebp
  00001	8b ec		 mov	 ebp, esp
  00003	83 ec 44	 sub	 esp, 68			; 00000044H
  00006	53		 push	 ebx
  00007	56		 push	 esi
  00008	57		 push	 edi
  00009	89 4d fc	 mov	 DWORD PTR _this$[ebp], ecx

; 819  : 	if( skill < 0 || skill > MAX_SKILL-1 ) 

  0000c	83 7d 08 00	 cmp	 DWORD PTR _skill$[ebp], 0
  00010	7c 09		 jl	 SHORT $LN3@SkillGet
  00012	81 7d 08 57 02
	00 00		 cmp	 DWORD PTR _skill$[ebp], 599 ; 00000257H
  00019	7e 39		 jle	 SHORT $LN2@SkillGet
$LN3@SkillGet:

; 820  : 	{
; 821  : 		LogAdd(lMsg.Get(457),__FILE__, __LINE__);

  0001b	a1 00 00 00 00	 mov	 eax, DWORD PTR ?__LINE__Var@?0??SkillGet@CMagicDamage@@QAEHH@Z@4JA
  00020	83 c0 03	 add	 eax, 3
  00023	50		 push	 eax
  00024	68 00 00 00 00	 push	 OFFSET ??_C@_0DO@ENMFLOMK@C?3?2Mu?5Online?2Mu?9GS?9Webzen?9MC?910@
  00029	68 c9 01 00 00	 push	 457			; 000001c9H
  0002e	b9 00 00 00 00	 mov	 ecx, OFFSET ?lMsg@@3VCMsg@@A ; lMsg
  00033	ff 15 00 00 00
	00		 call	 DWORD PTR __imp_?Get@CMsg@@QAEPADH@Z
  00039	50		 push	 eax
  0003a	ff 15 00 00 00
	00		 call	 DWORD PTR ?LogAdd@@3P6AXPADZZA ; LogAdd
  00040	83 c4 0c	 add	 esp, 12			; 0000000cH

; 822  : 		return m_Damage[0];

  00043	b8 04 00 00 00	 mov	 eax, 4
  00048	6b c8 00	 imul	 ecx, eax, 0
  0004b	8b 55 fc	 mov	 edx, DWORD PTR _this$[ebp]
  0004e	8b 44 0a 04	 mov	 eax, DWORD PTR [edx+ecx+4]
  00052	eb 50		 jmp	 SHORT $LN1@SkillGet
$LN2@SkillGet:

; 823  : 	}
; 824  : 	if( m_Damage[skill] == -1 ) 

  00054	8b 45 08	 mov	 eax, DWORD PTR _skill$[ebp]
  00057	8b 4d fc	 mov	 ecx, DWORD PTR _this$[ebp]
  0005a	83 7c 81 04 ff	 cmp	 DWORD PTR [ecx+eax*4+4], -1
  0005f	75 39		 jne	 SHORT $LN4@SkillGet

; 825  : 	{
; 826  : 		LogAdd(lMsg.Get(458),__FILE__, __LINE__);

  00061	a1 00 00 00 00	 mov	 eax, DWORD PTR ?__LINE__Var@?0??SkillGet@CMagicDamage@@QAEHH@Z@4JA
  00066	83 c0 08	 add	 eax, 8
  00069	50		 push	 eax
  0006a	68 00 00 00 00	 push	 OFFSET ??_C@_0DO@ENMFLOMK@C?3?2Mu?5Online?2Mu?9GS?9Webzen?9MC?910@
  0006f	68 ca 01 00 00	 push	 458			; 000001caH
  00074	b9 00 00 00 00	 mov	 ecx, OFFSET ?lMsg@@3VCMsg@@A ; lMsg
  00079	ff 15 00 00 00
	00		 call	 DWORD PTR __imp_?Get@CMsg@@QAEPADH@Z
  0007f	50		 push	 eax
  00080	ff 15 00 00 00
	00		 call	 DWORD PTR ?LogAdd@@3P6AXPADZZA ; LogAdd
  00086	83 c4 0c	 add	 esp, 12			; 0000000cH

; 827  : 		return m_Damage[0];

  00089	b8 04 00 00 00	 mov	 eax, 4
  0008e	6b c8 00	 imul	 ecx, eax, 0
  00091	8b 55 fc	 mov	 edx, DWORD PTR _this$[ebp]
  00094	8b 44 0a 04	 mov	 eax, DWORD PTR [edx+ecx+4]
  00098	eb 0a		 jmp	 SHORT $LN1@SkillGet
$LN4@SkillGet:

; 828  : 	}
; 829  : //	LogAdd("skill:%d = %d", skill, m_Damage[skill]);
; 830  : 
; 831  : 	return m_Damage[skill];

  0009a	8b 45 08	 mov	 eax, DWORD PTR _skill$[ebp]
  0009d	8b 4d fc	 mov	 ecx, DWORD PTR _this$[ebp]
  000a0	8b 44 81 04	 mov	 eax, DWORD PTR [ecx+eax*4+4]
$LN1@SkillGet:

; 832  : }

  000a4	5f		 pop	 edi
  000a5	5e		 pop	 esi
  000a6	5b		 pop	 ebx
  000a7	8b e5		 mov	 esp, ebp
  000a9	5d		 pop	 ebp
  000aa	c2 04 00	 ret	 4
?SkillGet@CMagicDamage@@QAEHH@Z ENDP			; CMagicDamage::SkillGet
_TEXT	ENDS
; Function compile flags: /Odtp /ZI
; File C:\Mu Online\Mu-GS-Webzen-MC-10093\GameServer\MagicDamage.cpp
;	COMDAT ?LogSkillNameList@CMagicDamage@@QAEXPAD@Z
_TEXT	SEGMENT
_name$ = -72						; size = 50
_number$ = -20						; size = 4
_n$ = -16						; size = 4
_Token$ = -12						; size = 4
_this$ = -8						; size = 4
__$ArrayPad$ = -4					; size = 4
_filename$ = 8						; size = 4
?LogSkillNameList@CMagicDamage@@QAEXPAD@Z PROC		; CMagicDamage::LogSkillNameList, COMDAT
; _this$ = ecx

; 241  : {

  00000	55		 push	 ebp
  00001	8b ec		 mov	 ebp, esp
  00003	81 ec 88 00 00
	00		 sub	 esp, 136		; 00000088H
  00009	a1 00 00 00 00	 mov	 eax, DWORD PTR ___security_cookie
  0000e	33 c5		 xor	 eax, ebp
  00010	89 45 fc	 mov	 DWORD PTR __$ArrayPad$[ebp], eax
  00013	53		 push	 ebx
  00014	56		 push	 esi
  00015	57		 push	 edi
  00016	89 4d f8	 mov	 DWORD PTR _this$[ebp], ecx

; 242  : 	if((SMDFile=fopen(filename,"r")) == NULL)	

  00019	68 00 00 00 00	 push	 OFFSET ??_C@_01KDCPPGHE@r@
  0001e	8b 45 08	 mov	 eax, DWORD PTR _filename$[ebp]
  00021	50		 push	 eax
  00022	e8 00 00 00 00	 call	 _fopen
  00027	83 c4 08	 add	 esp, 8
  0002a	a3 00 00 00 00	 mov	 DWORD PTR ?SMDFile@@3PAU_iobuf@@A, eax
  0002f	83 3d 00 00 00
	00 00		 cmp	 DWORD PTR ?SMDFile@@3PAU_iobuf@@A, 0
  00036	75 22		 jne	 SHORT $LN4@LogSkillNa

; 243  : 	{
; 244  : 		MsgBox(lMsg.Get(455), filename);

  00038	8b 45 08	 mov	 eax, DWORD PTR _filename$[ebp]
  0003b	50		 push	 eax
  0003c	68 c7 01 00 00	 push	 455			; 000001c7H
  00041	b9 00 00 00 00	 mov	 ecx, OFFSET ?lMsg@@3VCMsg@@A ; lMsg
  00046	ff 15 00 00 00
	00		 call	 DWORD PTR __imp_?Get@CMsg@@QAEPADH@Z
  0004c	50		 push	 eax
  0004d	e8 00 00 00 00	 call	 ?MsgBox@@YAXPADZZ	; MsgBox
  00052	83 c4 08	 add	 esp, 8

; 245  : 		return ;

  00055	e9 93 00 00 00	 jmp	 $LN1@LogSkillNa
$LN4@LogSkillNa:

; 246  : 	}
; 247  : 	SMDToken Token;
; 248  : 		
; 249  : 	int  n=0;

  0005a	c7 45 f0 00 00
	00 00		 mov	 DWORD PTR _n$[ebp], 0
$LN2@LogSkillNa:

; 250  : 	int  number;
; 251  : 	char name[50];	
; 252  : 
; 253  : 	while( true )

  00061	b8 01 00 00 00	 mov	 eax, 1
  00066	85 c0		 test	 eax, eax
  00068	74 57		 je	 SHORT $LN3@LogSkillNa

; 254  : 	{
; 255  : 		Token = (*GetToken)();

  0006a	e8 00 00 00 00	 call	 ?GetToken@@YA?AW4SMDToken@@XZ ; GetToken
  0006f	89 45 f4	 mov	 DWORD PTR _Token$[ebp], eax

; 256  : 		if(Token == END) break;

  00072	83 7d f4 02	 cmp	 DWORD PTR _Token$[ebp], 2
  00076	75 02		 jne	 SHORT $LN5@LogSkillNa
  00078	eb 47		 jmp	 SHORT $LN3@LogSkillNa
$LN5@LogSkillNa:

; 257  : 		if(Token == NUMBER)

  0007a	83 7d f4 01	 cmp	 DWORD PTR _Token$[ebp], 1
  0007e	75 3f		 jne	 SHORT $LN6@LogSkillNa

; 258  : 		{			
; 259  : 			number = (int)TokenNumber;

  00080	f3 0f 2c 05 00
	00 00 00	 cvttss2si eax, DWORD PTR ?TokenNumber@@3MA
  00088	89 45 ec	 mov	 DWORD PTR _number$[ebp], eax

; 260  : 			Token = (*GetToken)(); strcpy(name,TokenString);

  0008b	e8 00 00 00 00	 call	 ?GetToken@@YA?AW4SMDToken@@XZ ; GetToken
  00090	89 45 f4	 mov	 DWORD PTR _Token$[ebp], eax
  00093	68 00 00 00 00	 push	 OFFSET ?TokenString@@3PADA
  00098	8d 45 b8	 lea	 eax, DWORD PTR _name$[ebp]
  0009b	50		 push	 eax
  0009c	e8 00 00 00 00	 call	 _strcpy
  000a1	83 c4 08	 add	 esp, 8

; 261  : 
; 262  : 			strcpy(m_Name[number], name);

  000a4	8d 45 b8	 lea	 eax, DWORD PTR _name$[ebp]
  000a7	50		 push	 eax
  000a8	6b 4d ec 32	 imul	 ecx, DWORD PTR _number$[ebp], 50
  000ac	8b 55 f8	 mov	 edx, DWORD PTR _this$[ebp]
  000af	8d 84 0a 64 09
	00 00		 lea	 eax, DWORD PTR [edx+ecx+2404]
  000b6	50		 push	 eax
  000b7	e8 00 00 00 00	 call	 _strcpy
  000bc	83 c4 08	 add	 esp, 8
$LN6@LogSkillNa:

; 263  : 		}
; 264  : 	}

  000bf	eb a0		 jmp	 SHORT $LN2@LogSkillNa
$LN3@LogSkillNa:

; 265  : 	fclose(SMDFile);

  000c1	a1 00 00 00 00	 mov	 eax, DWORD PTR ?SMDFile@@3PAU_iobuf@@A
  000c6	50		 push	 eax
  000c7	e8 00 00 00 00	 call	 _fclose
  000cc	83 c4 04	 add	 esp, 4

; 266  : 
; 267  : 	LogAdd(lMsg.Get(456), filename);

  000cf	8b 45 08	 mov	 eax, DWORD PTR _filename$[ebp]
  000d2	50		 push	 eax
  000d3	68 c8 01 00 00	 push	 456			; 000001c8H
  000d8	b9 00 00 00 00	 mov	 ecx, OFFSET ?lMsg@@3VCMsg@@A ; lMsg
  000dd	ff 15 00 00 00
	00		 call	 DWORD PTR __imp_?Get@CMsg@@QAEPADH@Z
  000e3	50		 push	 eax
  000e4	ff 15 00 00 00
	00		 call	 DWORD PTR ?LogAdd@@3P6AXPADZZA ; LogAdd
  000ea	83 c4 08	 add	 esp, 8
$LN1@LogSkillNa:

; 268  : }

  000ed	5f		 pop	 edi
  000ee	5e		 pop	 esi
  000ef	5b		 pop	 ebx
  000f0	8b 4d fc	 mov	 ecx, DWORD PTR __$ArrayPad$[ebp]
  000f3	33 cd		 xor	 ecx, ebp
  000f5	e8 00 00 00 00	 call	 @__security_check_cookie@4
  000fa	8b e5		 mov	 esp, ebp
  000fc	5d		 pop	 ebp
  000fd	c2 04 00	 ret	 4
?LogSkillNameList@CMagicDamage@@QAEXPAD@Z ENDP		; CMagicDamage::LogSkillNameList
_TEXT	ENDS
; Function compile flags: /Odtp /ZI
; File C:\Mu Online\Mu-GS-Webzen-MC-10093\GameServer\MagicDamage.cpp
;	COMDAT ?LogSkillList@CMagicDamage@@QAEXPAD@Z
_TEXT	SEGMENT
_RequireClass$ = -120					; size = 5
_attr$ = -112						; size = 4
_rDelay$ = -108						; size = 4
_rLeadership$ = -104					; size = 4
_iSkillType$ = -100					; size = 4
_rEnergy$ = -96						; size = 4
_dis$ = -92						; size = 4
_bp$ = -88						; size = 4
_mana$ = -84						; size = 4
_damage$ = -80						; size = 4
_requireLevel$ = -76					; size = 4
_name$ = -72						; size = 50
_number$ = -20						; size = 4
_n$ = -16						; size = 4
_Token$ = -12						; size = 4
_this$ = -8						; size = 4
__$ArrayPad$ = -4					; size = 4
_filename$ = 8						; size = 4
?LogSkillList@CMagicDamage@@QAEXPAD@Z PROC		; CMagicDamage::LogSkillList, COMDAT
; _this$ = ecx

; 48   : {

  00000	55		 push	 ebp
  00001	8b ec		 mov	 ebp, esp
  00003	81 ec b8 00 00
	00		 sub	 esp, 184		; 000000b8H
  00009	a1 00 00 00 00	 mov	 eax, DWORD PTR ___security_cookie
  0000e	33 c5		 xor	 eax, ebp
  00010	89 45 fc	 mov	 DWORD PTR __$ArrayPad$[ebp], eax
  00013	53		 push	 ebx
  00014	56		 push	 esi
  00015	57		 push	 edi
  00016	89 4d f8	 mov	 DWORD PTR _this$[ebp], ecx

; 49   : 	Init();

  00019	8b 4d f8	 mov	 ecx, DWORD PTR _this$[ebp]
  0001c	e8 00 00 00 00	 call	 ?Init@CMagicDamage@@QAEXXZ ; CMagicDamage::Init

; 50   : 
; 51   : 	if((SMDFile=fopen(filename,"r")) == NULL)	

  00021	68 00 00 00 00	 push	 OFFSET ??_C@_01KDCPPGHE@r@
  00026	8b 45 08	 mov	 eax, DWORD PTR _filename$[ebp]
  00029	50		 push	 eax
  0002a	e8 00 00 00 00	 call	 _fopen
  0002f	83 c4 08	 add	 esp, 8
  00032	a3 00 00 00 00	 mov	 DWORD PTR ?SMDFile@@3PAU_iobuf@@A, eax
  00037	83 3d 00 00 00
	00 00		 cmp	 DWORD PTR ?SMDFile@@3PAU_iobuf@@A, 0
  0003e	75 22		 jne	 SHORT $LN4@LogSkillLi

; 52   : 	{
; 53   : 		MsgBox(lMsg.Get(455), filename);

  00040	8b 45 08	 mov	 eax, DWORD PTR _filename$[ebp]
  00043	50		 push	 eax
  00044	68 c7 01 00 00	 push	 455			; 000001c7H
  00049	b9 00 00 00 00	 mov	 ecx, OFFSET ?lMsg@@3VCMsg@@A ; lMsg
  0004e	ff 15 00 00 00
	00		 call	 DWORD PTR __imp_?Get@CMsg@@QAEPADH@Z
  00054	50		 push	 eax
  00055	e8 00 00 00 00	 call	 ?MsgBox@@YAXPADZZ	; MsgBox
  0005a	83 c4 08	 add	 esp, 8

; 54   : 		return ;

  0005d	e9 ca 02 00 00	 jmp	 $LN1@LogSkillLi
$LN4@LogSkillLi:

; 55   : 	}
; 56   : 	SMDToken Token;
; 57   : 		
; 58   : 	int  n=0;

  00062	c7 45 f0 00 00
	00 00		 mov	 DWORD PTR _n$[ebp], 0

; 59   : 	int  number;
; 60   : 	char name[50];
; 61   : 	int  requireLevel;
; 62   : 	int  damage;
; 63   : 	int  mana;
; 64   : 	int	 bp = 0;	// AG파워

  00069	c7 45 a8 00 00
	00 00		 mov	 DWORD PTR _bp$[ebp], 0
$LN2@LogSkillLi:

; 65   : 	int  dis;
; 66   : 	int  rEnergy;
; 67   : #ifdef SKILL_ADD_PHYSICS_MAGIC_TYPE_20040812
; 68   : 	int  iSkillType;
; 69   : #endif
; 70   : 
; 71   : #ifdef DARKLORD_WORK
; 72   : 	int  rLeadership;
; 73   : 	int	 rDelay;
; 74   : #endif
; 75   : 
; 76   : 	int  attr;		// 속성
; 77   : 
; 78   : #ifdef ADD_NEW_SKILL_FOR_CASTLE_01_20041116
; 79   : 	int	iSkillUseType;	// 직책 스킬인지, 기본 스킬인지 등등
; 80   : 	int	iSkillBrand;
; 81   : 	int iKillCount;
; 82   : 	int RequireStatus[MAX_STATUS] = {0,};
; 83   : #endif
; 84   : 
; 85   : 	BYTE  RequireClass[MAX_CLASSTYPE];
; 86   : 	
; 87   : #ifdef EXPAND_SKILL_SCRIPT_FOR_MASTER_LEVEL_20071122
; 88   : 	short		nSkillRank;				// 스킬랭크	
; 89   : 	short		nSkillGroup;			// 스킬그룹	
; 90   : 	short		nRequireMLPoint;		// 필요마스터레벨 포인트
; 91   : 	short		nHP;					// 소모체력	
; 92   : 	short		nSD;					// 소모SD	
; 93   : 	WORD		wKeepTime;				// 지속시간	
; 94   : 	short		nRequireStr;			// 필요힘	
; 95   : 	short		nRequireDex;			// 필요민첩
; 96   : 	BYTE		btIconNum;				// 아이콘 번호(클라이언트용)
; 97   : #endif
; 98   : 
; 99   : #ifdef ADD_EXPAND_SKILL_SCRIPT_FOR_SKILLTYPE_20080515
; 100  : 	int			nSkillType;				// 스킬타입
; 101  : #endif // ADD_EXPAND_SKILL_SCRIPT_FOR_SKILLTYPE_20080515
; 102  : 
; 103  : 	while( true )

  00070	b8 01 00 00 00	 mov	 eax, 1
  00075	85 c0		 test	 eax, eax
  00077	0f 84 83 02 00
	00		 je	 $LN3@LogSkillLi

; 104  : 	{
; 105  : 		Token = (*GetToken)();

  0007d	e8 00 00 00 00	 call	 ?GetToken@@YA?AW4SMDToken@@XZ ; GetToken
  00082	89 45 f4	 mov	 DWORD PTR _Token$[ebp], eax

; 106  : 		if(Token == END) break;

  00085	83 7d f4 02	 cmp	 DWORD PTR _Token$[ebp], 2
  00089	75 05		 jne	 SHORT $LN5@LogSkillLi
  0008b	e9 70 02 00 00	 jmp	 $LN3@LogSkillLi
$LN5@LogSkillLi:

; 107  : 		if(Token == NUMBER)

  00090	83 7d f4 01	 cmp	 DWORD PTR _Token$[ebp], 1
  00094	0f 85 61 02 00
	00		 jne	 $LN6@LogSkillLi

; 108  : 		{
; 109  : 			//   번호	    이름	 필요레벨  데미지 사용마나량	거리
; 110  : 			number = (int)TokenNumber;

  0009a	f3 0f 2c 05 00
	00 00 00	 cvttss2si eax, DWORD PTR ?TokenNumber@@3MA
  000a2	89 45 ec	 mov	 DWORD PTR _number$[ebp], eax

; 111  : 			Token = (*GetToken)(); strcpy(name,TokenString);

  000a5	e8 00 00 00 00	 call	 ?GetToken@@YA?AW4SMDToken@@XZ ; GetToken
  000aa	89 45 f4	 mov	 DWORD PTR _Token$[ebp], eax
  000ad	68 00 00 00 00	 push	 OFFSET ?TokenString@@3PADA
  000b2	8d 45 b8	 lea	 eax, DWORD PTR _name$[ebp]
  000b5	50		 push	 eax
  000b6	e8 00 00 00 00	 call	 _strcpy
  000bb	83 c4 08	 add	 esp, 8

; 112  : 			Token = (*GetToken)(); requireLevel = (int)TokenNumber;

  000be	e8 00 00 00 00	 call	 ?GetToken@@YA?AW4SMDToken@@XZ ; GetToken
  000c3	89 45 f4	 mov	 DWORD PTR _Token$[ebp], eax
  000c6	f3 0f 2c 05 00
	00 00 00	 cvttss2si eax, DWORD PTR ?TokenNumber@@3MA
  000ce	89 45 b4	 mov	 DWORD PTR _requireLevel$[ebp], eax

; 113  : 			Token = (*GetToken)(); damage       = (int)TokenNumber;			

  000d1	e8 00 00 00 00	 call	 ?GetToken@@YA?AW4SMDToken@@XZ ; GetToken
  000d6	89 45 f4	 mov	 DWORD PTR _Token$[ebp], eax
  000d9	f3 0f 2c 05 00
	00 00 00	 cvttss2si eax, DWORD PTR ?TokenNumber@@3MA
  000e1	89 45 b0	 mov	 DWORD PTR _damage$[ebp], eax

; 114  : 			Token = (*GetToken)(); mana         = (int)TokenNumber;

  000e4	e8 00 00 00 00	 call	 ?GetToken@@YA?AW4SMDToken@@XZ ; GetToken
  000e9	89 45 f4	 mov	 DWORD PTR _Token$[ebp], eax
  000ec	f3 0f 2c 05 00
	00 00 00	 cvttss2si eax, DWORD PTR ?TokenNumber@@3MA
  000f4	89 45 ac	 mov	 DWORD PTR _mana$[ebp], eax

; 115  : 
; 116  : 			Token = (*GetToken)(); bp         = (int)TokenNumber;

  000f7	e8 00 00 00 00	 call	 ?GetToken@@YA?AW4SMDToken@@XZ ; GetToken
  000fc	89 45 f4	 mov	 DWORD PTR _Token$[ebp], eax
  000ff	f3 0f 2c 05 00
	00 00 00	 cvttss2si eax, DWORD PTR ?TokenNumber@@3MA
  00107	89 45 a8	 mov	 DWORD PTR _bp$[ebp], eax

; 117  : 
; 118  : 			Token = (*GetToken)(); dis			= (int)TokenNumber;

  0010a	e8 00 00 00 00	 call	 ?GetToken@@YA?AW4SMDToken@@XZ ; GetToken
  0010f	89 45 f4	 mov	 DWORD PTR _Token$[ebp], eax
  00112	f3 0f 2c 05 00
	00 00 00	 cvttss2si eax, DWORD PTR ?TokenNumber@@3MA
  0011a	89 45 a4	 mov	 DWORD PTR _dis$[ebp], eax

; 119  : #ifdef DARKLORD_WORK
; 120  : 			Token = (*GetToken)(); rDelay		= (int)TokenNumber;

  0011d	e8 00 00 00 00	 call	 ?GetToken@@YA?AW4SMDToken@@XZ ; GetToken
  00122	89 45 f4	 mov	 DWORD PTR _Token$[ebp], eax
  00125	f3 0f 2c 05 00
	00 00 00	 cvttss2si eax, DWORD PTR ?TokenNumber@@3MA
  0012d	89 45 94	 mov	 DWORD PTR _rDelay$[ebp], eax

; 121  : #else
; 122  : 			Token = (*GetToken)();
; 123  : #endif
; 124  : 			Token = (*GetToken)(); rEnergy		= (int)TokenNumber;

  00130	e8 00 00 00 00	 call	 ?GetToken@@YA?AW4SMDToken@@XZ ; GetToken
  00135	89 45 f4	 mov	 DWORD PTR _Token$[ebp], eax
  00138	f3 0f 2c 05 00
	00 00 00	 cvttss2si eax, DWORD PTR ?TokenNumber@@3MA
  00140	89 45 a0	 mov	 DWORD PTR _rEnergy$[ebp], eax

; 125  : 			
; 126  : #ifdef DARKLORD_WORK
; 127  : 			Token = (*GetToken)(); rLeadership		= (int)TokenNumber;

  00143	e8 00 00 00 00	 call	 ?GetToken@@YA?AW4SMDToken@@XZ ; GetToken
  00148	89 45 f4	 mov	 DWORD PTR _Token$[ebp], eax
  0014b	f3 0f 2c 05 00
	00 00 00	 cvttss2si eax, DWORD PTR ?TokenNumber@@3MA
  00153	89 45 98	 mov	 DWORD PTR _rLeadership$[ebp], eax

; 128  : #else
; 129  : 			Token = (*GetToken)();
; 130  : #endif
; 131  : 			
; 132  : 			
; 133  : 			Token = (*GetToken)(); attr	= (int)TokenNumber;

  00156	e8 00 00 00 00	 call	 ?GetToken@@YA?AW4SMDToken@@XZ ; GetToken
  0015b	89 45 f4	 mov	 DWORD PTR _Token$[ebp], eax
  0015e	f3 0f 2c 05 00
	00 00 00	 cvttss2si eax, DWORD PTR ?TokenNumber@@3MA
  00166	89 45 90	 mov	 DWORD PTR _attr$[ebp], eax

; 134  : 
; 135  : #ifdef SKILL_ADD_PHYSICS_MAGIC_TYPE_20040812
; 136  : 			Token = (*GetToken)(); iSkillType = (int)TokenNumber;

  00169	e8 00 00 00 00	 call	 ?GetToken@@YA?AW4SMDToken@@XZ ; GetToken
  0016e	89 45 f4	 mov	 DWORD PTR _Token$[ebp], eax
  00171	f3 0f 2c 05 00
	00 00 00	 cvttss2si eax, DWORD PTR ?TokenNumber@@3MA
  00179	89 45 9c	 mov	 DWORD PTR _iSkillType$[ebp], eax

; 137  : #else
; 138  : 			Token = (*GetToken)();
; 139  : #endif
; 140  : 
; 141  : 
; 142  : #ifdef ADD_NEW_SKILL_FOR_CASTLE_01_20041116
; 143  : 			Token = (*GetToken)(); iSkillUseType	= (int)TokenNumber;
; 144  : 			Token = (*GetToken)(); iSkillBrand		= (int)TokenNumber;
; 145  : 			Token = (*GetToken)(); iKillCount		= (int)TokenNumber;
; 146  : 
; 147  : 			Token = (*GetToken)(); RequireStatus[0] = (int)TokenNumber;
; 148  : 			Token = (*GetToken)(); RequireStatus[1] = (int)TokenNumber;
; 149  : 			Token = (*GetToken)(); RequireStatus[2] = (int)TokenNumber;
; 150  : #else
; 151  : 			Token = (*GetToken)();

  0017c	e8 00 00 00 00	 call	 ?GetToken@@YA?AW4SMDToken@@XZ ; GetToken
  00181	89 45 f4	 mov	 DWORD PTR _Token$[ebp], eax

; 152  : 			Token = (*GetToken)();

  00184	e8 00 00 00 00	 call	 ?GetToken@@YA?AW4SMDToken@@XZ ; GetToken
  00189	89 45 f4	 mov	 DWORD PTR _Token$[ebp], eax

; 153  : 			Token = (*GetToken)();

  0018c	e8 00 00 00 00	 call	 ?GetToken@@YA?AW4SMDToken@@XZ ; GetToken
  00191	89 45 f4	 mov	 DWORD PTR _Token$[ebp], eax

; 154  : 
; 155  : 			Token = (*GetToken)();

  00194	e8 00 00 00 00	 call	 ?GetToken@@YA?AW4SMDToken@@XZ ; GetToken
  00199	89 45 f4	 mov	 DWORD PTR _Token$[ebp], eax

; 156  : 			Token = (*GetToken)();

  0019c	e8 00 00 00 00	 call	 ?GetToken@@YA?AW4SMDToken@@XZ ; GetToken
  001a1	89 45 f4	 mov	 DWORD PTR _Token$[ebp], eax

; 157  : 			Token = (*GetToken)();

  001a4	e8 00 00 00 00	 call	 ?GetToken@@YA?AW4SMDToken@@XZ ; GetToken
  001a9	89 45 f4	 mov	 DWORD PTR _Token$[ebp], eax

; 158  : #endif
; 159  : 
; 160  : 			Token = (*GetToken)(); RequireClass[0]	= (int)TokenNumber;

  001ac	e8 00 00 00 00	 call	 ?GetToken@@YA?AW4SMDToken@@XZ ; GetToken
  001b1	89 45 f4	 mov	 DWORD PTR _Token$[ebp], eax
  001b4	f3 0f 2c 05 00
	00 00 00	 cvttss2si eax, DWORD PTR ?TokenNumber@@3MA
  001bc	b9 01 00 00 00	 mov	 ecx, 1
  001c1	6b d1 00	 imul	 edx, ecx, 0
  001c4	88 44 15 88	 mov	 BYTE PTR _RequireClass$[ebp+edx], al

; 161  : 			Token = (*GetToken)(); RequireClass[1]	= (int)TokenNumber;

  001c8	e8 00 00 00 00	 call	 ?GetToken@@YA?AW4SMDToken@@XZ ; GetToken
  001cd	89 45 f4	 mov	 DWORD PTR _Token$[ebp], eax
  001d0	f3 0f 2c 05 00
	00 00 00	 cvttss2si eax, DWORD PTR ?TokenNumber@@3MA
  001d8	b9 01 00 00 00	 mov	 ecx, 1
  001dd	c1 e1 00	 shl	 ecx, 0
  001e0	88 44 0d 88	 mov	 BYTE PTR _RequireClass$[ebp+ecx], al

; 162  : 			Token = (*GetToken)(); RequireClass[2]	= (int)TokenNumber;

  001e4	e8 00 00 00 00	 call	 ?GetToken@@YA?AW4SMDToken@@XZ ; GetToken
  001e9	89 45 f4	 mov	 DWORD PTR _Token$[ebp], eax
  001ec	f3 0f 2c 05 00
	00 00 00	 cvttss2si eax, DWORD PTR ?TokenNumber@@3MA
  001f4	b9 01 00 00 00	 mov	 ecx, 1
  001f9	d1 e1		 shl	 ecx, 1
  001fb	88 44 0d 88	 mov	 BYTE PTR _RequireClass$[ebp+ecx], al

; 163  : 			Token = (*GetToken)(); RequireClass[3]	= (int)TokenNumber;

  001ff	e8 00 00 00 00	 call	 ?GetToken@@YA?AW4SMDToken@@XZ ; GetToken
  00204	89 45 f4	 mov	 DWORD PTR _Token$[ebp], eax
  00207	f3 0f 2c 05 00
	00 00 00	 cvttss2si eax, DWORD PTR ?TokenNumber@@3MA
  0020f	b9 01 00 00 00	 mov	 ecx, 1
  00214	6b d1 03	 imul	 edx, ecx, 3
  00217	88 44 15 88	 mov	 BYTE PTR _RequireClass$[ebp+edx], al

; 164  : 			
; 165  : #ifdef DARKLORD_WORK
; 166  : 			Token = (*GetToken)(); RequireClass[4]	= (int)TokenNumber;

  0021b	e8 00 00 00 00	 call	 ?GetToken@@YA?AW4SMDToken@@XZ ; GetToken
  00220	89 45 f4	 mov	 DWORD PTR _Token$[ebp], eax
  00223	f3 0f 2c 05 00
	00 00 00	 cvttss2si eax, DWORD PTR ?TokenNumber@@3MA
  0022b	b9 01 00 00 00	 mov	 ecx, 1
  00230	c1 e1 02	 shl	 ecx, 2
  00233	88 44 0d 88	 mov	 BYTE PTR _RequireClass$[ebp+ecx], al

; 167  : #else
; 168  : 			Token = (*GetToken)();
; 169  : #endif
; 170  : 
; 171  : #ifdef ADD_SEASON_3_NEW_CHARACTER_SUMMONER_20070912	// skil 사용 신규 클래스 추가
; 172  : 			Token = (*GetToken)(); RequireClass[5]	= (int)TokenNumber;
; 173  : #else
; 174  : 			Token = (*GetToken)();

  00237	e8 00 00 00 00	 call	 ?GetToken@@YA?AW4SMDToken@@XZ ; GetToken
  0023c	89 45 f4	 mov	 DWORD PTR _Token$[ebp], eax

; 175  : #endif	
; 176  : 
; 177  : 			Token = (*GetToken)(); //Rage Fighter Bypass

  0023f	e8 00 00 00 00	 call	 ?GetToken@@YA?AW4SMDToken@@XZ ; GetToken
  00244	89 45 f4	 mov	 DWORD PTR _Token$[ebp], eax

; 178  : 			
; 179  : #ifdef EXPAND_SKILL_SCRIPT_FOR_MASTER_LEVEL_20071122	// skill(kor).txt 파일 읽기
; 180  : 			Token = (*GetToken)();		nSkillRank			= (short)TokenNumber;	// 스킬랭크	
; 181  : 			Token = (*GetToken)();		nSkillGroup			= (short)TokenNumber;	// 스킬그룹	
; 182  : 			Token = (*GetToken)();		nRequireMLPoint		= (short)TokenNumber;	// 필요마스터레벨 포인트
; 183  : 			Token = (*GetToken)();		nHP					= (short)TokenNumber;	// 소모체력	
; 184  : 			Token = (*GetToken)();		nSD					= (short)TokenNumber;	// 소모SD	
; 185  : 			Token = (*GetToken)();		wKeepTime			= (WORD)TokenNumber;	// 지속시간	
; 186  : 			Token = (*GetToken)();		nRequireStr			= (short)TokenNumber;	// 필요힘	
; 187  : 			Token = (*GetToken)();		nRequireDex			= (short)TokenNumber;	// 필요민첩
; 188  : 			Token = (*GetToken)();		btIconNum			= (BYTE)TokenNumber;	// 아이콘 번호
; 189  : #else
; 190  : 			Token = (*GetToken)();

  00247	e8 00 00 00 00	 call	 ?GetToken@@YA?AW4SMDToken@@XZ ; GetToken
  0024c	89 45 f4	 mov	 DWORD PTR _Token$[ebp], eax

; 191  : 			Token = (*GetToken)();

  0024f	e8 00 00 00 00	 call	 ?GetToken@@YA?AW4SMDToken@@XZ ; GetToken
  00254	89 45 f4	 mov	 DWORD PTR _Token$[ebp], eax

; 192  : 			Token = (*GetToken)();

  00257	e8 00 00 00 00	 call	 ?GetToken@@YA?AW4SMDToken@@XZ ; GetToken
  0025c	89 45 f4	 mov	 DWORD PTR _Token$[ebp], eax

; 193  : 			Token = (*GetToken)();

  0025f	e8 00 00 00 00	 call	 ?GetToken@@YA?AW4SMDToken@@XZ ; GetToken
  00264	89 45 f4	 mov	 DWORD PTR _Token$[ebp], eax

; 194  : 			Token = (*GetToken)();

  00267	e8 00 00 00 00	 call	 ?GetToken@@YA?AW4SMDToken@@XZ ; GetToken
  0026c	89 45 f4	 mov	 DWORD PTR _Token$[ebp], eax

; 195  : 			Token = (*GetToken)();

  0026f	e8 00 00 00 00	 call	 ?GetToken@@YA?AW4SMDToken@@XZ ; GetToken
  00274	89 45 f4	 mov	 DWORD PTR _Token$[ebp], eax

; 196  : 			Token = (*GetToken)();

  00277	e8 00 00 00 00	 call	 ?GetToken@@YA?AW4SMDToken@@XZ ; GetToken
  0027c	89 45 f4	 mov	 DWORD PTR _Token$[ebp], eax

; 197  : 			Token = (*GetToken)();

  0027f	e8 00 00 00 00	 call	 ?GetToken@@YA?AW4SMDToken@@XZ ; GetToken
  00284	89 45 f4	 mov	 DWORD PTR _Token$[ebp], eax

; 198  : 			Token = (*GetToken)();

  00287	e8 00 00 00 00	 call	 ?GetToken@@YA?AW4SMDToken@@XZ ; GetToken
  0028c	89 45 f4	 mov	 DWORD PTR _Token$[ebp], eax

; 199  : #endif
; 200  : 
; 201  : #ifdef ADD_EXPAND_SKILL_SCRIPT_FOR_SKILLTYPE_20080515
; 202  : 			Token = (*GetToken)();		nSkillType			= (int)TokenNumber;	// 스킬타입
; 203  : #else
; 204  : 			Token = (*GetToken)();

  0028f	e8 00 00 00 00	 call	 ?GetToken@@YA?AW4SMDToken@@XZ ; GetToken
  00294	89 45 f4	 mov	 DWORD PTR _Token$[ebp], eax

; 205  : #endif // ADD_EXPAND_SKILL_SCRIPT_FOR_SKILLTYPE_20080515
; 206  : 
; 207  : 			Token = (*GetToken)();

  00297	e8 00 00 00 00	 call	 ?GetToken@@YA?AW4SMDToken@@XZ ; GetToken
  0029c	89 45 f4	 mov	 DWORD PTR _Token$[ebp], eax

; 208  : 			Token = (*GetToken)();

  0029f	e8 00 00 00 00	 call	 ?GetToken@@YA?AW4SMDToken@@XZ ; GetToken
  002a4	89 45 f4	 mov	 DWORD PTR _Token$[ebp], eax

; 209  : 
; 210  : #ifdef DARKLORD_WORK
; 211  : #ifdef SKILL_ADD_PHYSICS_MAGIC_TYPE_20040812
; 212  : 				Set(name, number, damage, requireLevel, mana, bp, dis, attr, iSkillType, RequireClass, rEnergy, rLeadership,rDelay);

  002a7	8b 45 94	 mov	 eax, DWORD PTR _rDelay$[ebp]
  002aa	50		 push	 eax
  002ab	8b 4d 98	 mov	 ecx, DWORD PTR _rLeadership$[ebp]
  002ae	51		 push	 ecx
  002af	8b 55 a0	 mov	 edx, DWORD PTR _rEnergy$[ebp]
  002b2	52		 push	 edx
  002b3	8d 45 88	 lea	 eax, DWORD PTR _RequireClass$[ebp]
  002b6	50		 push	 eax
  002b7	8b 4d 9c	 mov	 ecx, DWORD PTR _iSkillType$[ebp]
  002ba	51		 push	 ecx
  002bb	8b 55 90	 mov	 edx, DWORD PTR _attr$[ebp]
  002be	52		 push	 edx
  002bf	8b 45 a4	 mov	 eax, DWORD PTR _dis$[ebp]
  002c2	50		 push	 eax
  002c3	8b 4d a8	 mov	 ecx, DWORD PTR _bp$[ebp]
  002c6	51		 push	 ecx
  002c7	8b 55 ac	 mov	 edx, DWORD PTR _mana$[ebp]
  002ca	52		 push	 edx
  002cb	8b 45 b4	 mov	 eax, DWORD PTR _requireLevel$[ebp]
  002ce	50		 push	 eax
  002cf	8b 4d b0	 mov	 ecx, DWORD PTR _damage$[ebp]
  002d2	51		 push	 ecx
  002d3	8b 55 ec	 mov	 edx, DWORD PTR _number$[ebp]
  002d6	52		 push	 edx
  002d7	8d 45 b8	 lea	 eax, DWORD PTR _name$[ebp]
  002da	50		 push	 eax
  002db	8b 4d f8	 mov	 ecx, DWORD PTR _this$[ebp]
  002de	e8 00 00 00 00	 call	 ?Set@CMagicDamage@@AAEXPADHHHHHHHHPAEHHH@Z ; CMagicDamage::Set

; 213  : #else
; 214  : 				Set(name, number, damage, requireLevel, mana, bp, dis, attr, RequireClass, rEnergy, rLeadership,rDelay);
; 215  : #endif
; 216  : #else
; 217  : #ifdef SKILL_ADD_PHYSICS_MAGIC_TYPE_20040812
; 218  : 				Set(name, number, damage, requireLevel, mana, bp, dis, attr, iSkillType, RequireClass, rEnergy);
; 219  : #else
; 220  : 				Set(name, number, damage, requireLevel, mana, bp, dis, attr, RequireClass, rEnergy);
; 221  : #endif
; 222  : #endif
; 223  : 
; 224  : #ifdef ADD_NEW_SKILL_FOR_CASTLE_01_20041116
; 225  : 			SetEx( number, iSkillUseType, iSkillBrand, iKillCount, RequireStatus );
; 226  : #endif
; 227  : 			
; 228  : #ifdef EXPAND_SKILL_SCRIPT_FOR_MASTER_LEVEL_20071122	// 마스터레벨 스킬 정보 설정
; 229  : 			SetMasterLevelSkillInfo( number, nSkillRank, nSkillGroup, nRequireMLPoint, nHP, nSD, wKeepTime, nRequireStr, nRequireDex );
; 230  : #endif
; 231  : 				DefMagicInf[number].Set(number, 0);

  002e3	6a 00		 push	 0
  002e5	0f b6 45 ec	 movzx	 eax, BYTE PTR _number$[ebp]
  002e9	50		 push	 eax
  002ea	8b 4d ec	 mov	 ecx, DWORD PTR _number$[ebp]
  002ed	c1 e1 04	 shl	 ecx, 4
  002f0	81 c1 00 00 00
	00		 add	 ecx, OFFSET ?DefMagicInf@@3PAVCMagicInf@@A ; DefMagicInf
  002f6	e8 00 00 00 00	 call	 ?Set@CMagicInf@@QAEHEE@Z ; CMagicInf::Set
$LN6@LogSkillLi:

; 232  : 		}
; 233  : 	}

  002fb	e9 70 fd ff ff	 jmp	 $LN2@LogSkillLi
$LN3@LogSkillLi:

; 234  : 	fclose(SMDFile);

  00300	a1 00 00 00 00	 mov	 eax, DWORD PTR ?SMDFile@@3PAU_iobuf@@A
  00305	50		 push	 eax
  00306	e8 00 00 00 00	 call	 _fclose
  0030b	83 c4 04	 add	 esp, 4

; 235  : 
; 236  : 	LogAdd(lMsg.Get(456), filename);

  0030e	8b 45 08	 mov	 eax, DWORD PTR _filename$[ebp]
  00311	50		 push	 eax
  00312	68 c8 01 00 00	 push	 456			; 000001c8H
  00317	b9 00 00 00 00	 mov	 ecx, OFFSET ?lMsg@@3VCMsg@@A ; lMsg
  0031c	ff 15 00 00 00
	00		 call	 DWORD PTR __imp_?Get@CMsg@@QAEPADH@Z
  00322	50		 push	 eax
  00323	ff 15 00 00 00
	00		 call	 DWORD PTR ?LogAdd@@3P6AXPADZZA ; LogAdd
  00329	83 c4 08	 add	 esp, 8
$LN1@LogSkillLi:

; 237  : }

  0032c	5f		 pop	 edi
  0032d	5e		 pop	 esi
  0032e	5b		 pop	 ebx
  0032f	8b 4d fc	 mov	 ecx, DWORD PTR __$ArrayPad$[ebp]
  00332	33 cd		 xor	 ecx, ebp
  00334	e8 00 00 00 00	 call	 @__security_check_cookie@4
  00339	8b e5		 mov	 esp, ebp
  0033b	5d		 pop	 ebp
  0033c	c2 04 00	 ret	 4
?LogSkillList@CMagicDamage@@QAEXPAD@Z ENDP		; CMagicDamage::LogSkillList
_TEXT	ENDS
; Function compile flags: /Odtp /ZI
; File C:\Mu Online\Mu-GS-Webzen-MC-10093\GameServer\MagicDamage.cpp
;	COMDAT ?Init@CMagicDamage@@QAEXXZ
_TEXT	SEGMENT
_n$1 = -8						; size = 4
_this$ = -4						; size = 4
?Init@CMagicDamage@@QAEXXZ PROC				; CMagicDamage::Init, COMDAT
; _this$ = ecx

; 38   : {

  00000	55		 push	 ebp
  00001	8b ec		 mov	 ebp, esp
  00003	83 ec 48	 sub	 esp, 72			; 00000048H
  00006	53		 push	 ebx
  00007	56		 push	 esi
  00008	57		 push	 edi
  00009	89 4d fc	 mov	 DWORD PTR _this$[ebp], ecx

; 39   : 	for( int n=0; n<MAX_SKILL; n++)

  0000c	c7 45 f8 00 00
	00 00		 mov	 DWORD PTR _n$1[ebp], 0
  00013	eb 09		 jmp	 SHORT $LN4@Init
$LN2@Init:
  00015	8b 45 f8	 mov	 eax, DWORD PTR _n$1[ebp]
  00018	83 c0 01	 add	 eax, 1
  0001b	89 45 f8	 mov	 DWORD PTR _n$1[ebp], eax
$LN4@Init:
  0001e	81 7d f8 58 02
	00 00		 cmp	 DWORD PTR _n$1[ebp], 600 ; 00000258H
  00025	7d 10		 jge	 SHORT $LN1@Init

; 40   : 	{
; 41   : 		m_Damage[n] = -1;

  00027	8b 45 f8	 mov	 eax, DWORD PTR _n$1[ebp]
  0002a	8b 4d fc	 mov	 ecx, DWORD PTR _this$[ebp]
  0002d	c7 44 81 04 ff
	ff ff ff	 mov	 DWORD PTR [ecx+eax*4+4], -1

; 42   : 		//m_Index[n]  = -1;
; 43   : 	}

  00035	eb de		 jmp	 SHORT $LN2@Init
$LN1@Init:

; 44   : }

  00037	5f		 pop	 edi
  00038	5e		 pop	 esi
  00039	5b		 pop	 ebx
  0003a	8b e5		 mov	 esp, ebp
  0003c	5d		 pop	 ebp
  0003d	c3		 ret	 0
?Init@CMagicDamage@@QAEXXZ ENDP				; CMagicDamage::Init
_TEXT	ENDS
; Function compile flags: /Odtp /ZI
; File C:\Mu Online\Mu-GS-Webzen-MC-10093\GameServer\MagicDamage.cpp
;	COMDAT ??1CMagicDamage@@UAE@XZ
_TEXT	SEGMENT
_this$ = -4						; size = 4
??1CMagicDamage@@UAE@XZ PROC				; CMagicDamage::~CMagicDamage, COMDAT
; _this$ = ecx

; 33   : {

  00000	55		 push	 ebp
  00001	8b ec		 mov	 ebp, esp
  00003	83 ec 44	 sub	 esp, 68			; 00000044H
  00006	53		 push	 ebx
  00007	56		 push	 esi
  00008	57		 push	 edi
  00009	89 4d fc	 mov	 DWORD PTR _this$[ebp], ecx
  0000c	8b 45 fc	 mov	 eax, DWORD PTR _this$[ebp]
  0000f	c7 00 00 00 00
	00		 mov	 DWORD PTR [eax], OFFSET ??_7CMagicDamage@@6B@

; 34   : 
; 35   : }

  00015	5f		 pop	 edi
  00016	5e		 pop	 esi
  00017	5b		 pop	 ebx
  00018	8b e5		 mov	 esp, ebp
  0001a	5d		 pop	 ebp
  0001b	c3		 ret	 0
??1CMagicDamage@@UAE@XZ ENDP				; CMagicDamage::~CMagicDamage
_TEXT	ENDS
; Function compile flags: /Odtp /ZI
; File C:\Mu Online\Mu-GS-Webzen-MC-10093\GameServer\MagicDamage.cpp
;	COMDAT ??0CMagicDamage@@QAE@XZ
_TEXT	SEGMENT
_this$ = -4						; size = 4
??0CMagicDamage@@QAE@XZ PROC				; CMagicDamage::CMagicDamage, COMDAT
; _this$ = ecx

; 28   : {

  00000	55		 push	 ebp
  00001	8b ec		 mov	 ebp, esp
  00003	83 ec 44	 sub	 esp, 68			; 00000044H
  00006	53		 push	 ebx
  00007	56		 push	 esi
  00008	57		 push	 edi
  00009	89 4d fc	 mov	 DWORD PTR _this$[ebp], ecx
  0000c	8b 45 fc	 mov	 eax, DWORD PTR _this$[ebp]
  0000f	c7 00 00 00 00
	00		 mov	 DWORD PTR [eax], OFFSET ??_7CMagicDamage@@6B@

; 29   : 	//LogSkillList();
; 30   : }

  00015	8b 45 fc	 mov	 eax, DWORD PTR _this$[ebp]
  00018	5f		 pop	 edi
  00019	5e		 pop	 esi
  0001a	5b		 pop	 ebx
  0001b	8b e5		 mov	 esp, ebp
  0001d	5d		 pop	 ebp
  0001e	c3		 ret	 0
??0CMagicDamage@@QAE@XZ ENDP				; CMagicDamage::CMagicDamage
_TEXT	ENDS
; Function compile flags: /Odtp /ZI
; File C:\Mu Online\Mu-GS-Webzen-MC-10093\GameServer\MagicDamage.cpp
;	COMDAT ?CheckSkillAttr@CMagicDamage@@AAEHHH@Z
_TEXT	SEGMENT
_this$ = -4						; size = 4
_skill$ = 8						; size = 4
_attr$ = 12						; size = 4
?CheckSkillAttr@CMagicDamage@@AAEHHH@Z PROC		; CMagicDamage::CheckSkillAttr, COMDAT
; _this$ = ecx

; 974  : {

  00000	55		 push	 ebp
  00001	8b ec		 mov	 ebp, esp
  00003	83 ec 44	 sub	 esp, 68			; 00000044H
  00006	53		 push	 ebx
  00007	56		 push	 esi
  00008	57		 push	 edi
  00009	89 4d fc	 mov	 DWORD PTR _this$[ebp], ecx

; 975  : 	if( skill < 0 || skill > MAX_SKILL-1 ) 

  0000c	83 7d 08 00	 cmp	 DWORD PTR _skill$[ebp], 0
  00010	7c 09		 jl	 SHORT $LN3@CheckSkill
  00012	81 7d 08 57 02
	00 00		 cmp	 DWORD PTR _skill$[ebp], 599 ; 00000257H
  00019	7e 04		 jle	 SHORT $LN2@CheckSkill
$LN3@CheckSkill:

; 976  : 	{	
; 977  : 		return FALSE;

  0001b	33 c0		 xor	 eax, eax
  0001d	eb 0d		 jmp	 SHORT $LN1@CheckSkill
$LN2@CheckSkill:

; 978  : 	}
; 979  : 	
; 980  : 	return m_Attr[skill];

  0001f	8b 45 08	 mov	 eax, DWORD PTR _skill$[ebp]
  00022	8b 4d fc	 mov	 ecx, DWORD PTR _this$[ebp]
  00025	8b 84 81 7c b4
	00 00		 mov	 eax, DWORD PTR [ecx+eax*4+46204]
$LN1@CheckSkill:

; 981  : }

  0002c	5f		 pop	 edi
  0002d	5e		 pop	 esi
  0002e	5b		 pop	 ebx
  0002f	8b e5		 mov	 esp, ebp
  00031	5d		 pop	 ebp
  00032	c2 08 00	 ret	 8
?CheckSkillAttr@CMagicDamage@@AAEHHH@Z ENDP		; CMagicDamage::CheckSkillAttr
_TEXT	ENDS
; Function compile flags: /Odtp /ZI
; File C:\Mu Online\Mu-GS-Webzen-MC-10093\GameServer\MagicDamage.cpp
;	COMDAT ?Set@CMagicDamage@@AAEXPADHHHHHHHHPAEHHH@Z
_TEXT	SEGMENT
_this$ = -4						; size = 4
_name$ = 8						; size = 4
_skill$ = 12						; size = 4
_damage$ = 16						; size = 4
_rlevel$ = 20						; size = 4
_mana$ = 24						; size = 4
_bp$ = 28						; size = 4
_dis$ = 32						; size = 4
_Attr$ = 36						; size = 4
_iSkillType$ = 40					; size = 4
_ReqClass$ = 44						; size = 4
_rEnergy$ = 48						; size = 4
_rLeadership$ = 52					; size = 4
_rdelay$ = 56						; size = 4
?Set@CMagicDamage@@AAEXPADHHHHHHHHPAEHHH@Z PROC		; CMagicDamage::Set, COMDAT
; _this$ = ecx

; 628  : {

  00000	55		 push	 ebp
  00001	8b ec		 mov	 ebp, esp
  00003	83 ec 44	 sub	 esp, 68			; 00000044H
  00006	53		 push	 ebx
  00007	56		 push	 esi
  00008	57		 push	 edi
  00009	89 4d fc	 mov	 DWORD PTR _this$[ebp], ecx

; 629  : 	if( skill < 0 || skill > MAX_SKILL-1 ) 

  0000c	83 7d 0c 00	 cmp	 DWORD PTR _skill$[ebp], 0
  00010	7c 09		 jl	 SHORT $LN3@Set
  00012	81 7d 0c 57 02
	00 00		 cmp	 DWORD PTR _skill$[ebp], 599 ; 00000257H
  00019	7e 2c		 jle	 SHORT $LN2@Set
$LN3@Set:

; 630  : 	{
; 631  : 		MsgBox(lMsg.Get(457),__FILE__, __LINE__);

  0001b	a1 00 00 00 00	 mov	 eax, DWORD PTR ?__LINE__Var@?0??Set@CMagicDamage@@AAEXPADHHHHHHHHPAEHHH@Z@4JA
  00020	83 c0 03	 add	 eax, 3
  00023	50		 push	 eax
  00024	68 00 00 00 00	 push	 OFFSET ??_C@_0DO@ENMFLOMK@C?3?2Mu?5Online?2Mu?9GS?9Webzen?9MC?910@
  00029	68 c9 01 00 00	 push	 457			; 000001c9H
  0002e	b9 00 00 00 00	 mov	 ecx, OFFSET ?lMsg@@3VCMsg@@A ; lMsg
  00033	ff 15 00 00 00
	00		 call	 DWORD PTR __imp_?Get@CMsg@@QAEPADH@Z
  00039	50		 push	 eax
  0003a	e8 00 00 00 00	 call	 ?MsgBox@@YAXPADZZ	; MsgBox
  0003f	83 c4 0c	 add	 esp, 12			; 0000000cH

; 632  : 		return;

  00042	e9 40 04 00 00	 jmp	 $LN1@Set
$LN2@Set:

; 633  : 	}
; 634  : 	if( m_Damage[skill] != -1 ) 

  00047	8b 45 0c	 mov	 eax, DWORD PTR _skill$[ebp]
  0004a	8b 4d fc	 mov	 ecx, DWORD PTR _this$[ebp]
  0004d	83 7c 81 04 ff	 cmp	 DWORD PTR [ecx+eax*4+4], -1
  00052	74 2c		 je	 SHORT $LN4@Set

; 635  : 	{
; 636  : 		MsgBox(lMsg.Get(562),__FILE__, __LINE__);

  00054	a1 00 00 00 00	 mov	 eax, DWORD PTR ?__LINE__Var@?0??Set@CMagicDamage@@AAEXPADHHHHHHHHPAEHHH@Z@4JA
  00059	83 c0 08	 add	 eax, 8
  0005c	50		 push	 eax
  0005d	68 00 00 00 00	 push	 OFFSET ??_C@_0DO@ENMFLOMK@C?3?2Mu?5Online?2Mu?9GS?9Webzen?9MC?910@
  00062	68 32 02 00 00	 push	 562			; 00000232H
  00067	b9 00 00 00 00	 mov	 ecx, OFFSET ?lMsg@@3VCMsg@@A ; lMsg
  0006c	ff 15 00 00 00
	00		 call	 DWORD PTR __imp_?Get@CMsg@@QAEPADH@Z
  00072	50		 push	 eax
  00073	e8 00 00 00 00	 call	 ?MsgBox@@YAXPADZZ	; MsgBox
  00078	83 c4 0c	 add	 esp, 12			; 0000000cH

; 637  : 		return;

  0007b	e9 07 04 00 00	 jmp	 $LN1@Set
$LN4@Set:

; 638  : 	}
; 639  : 	strcpy(m_Name[skill], name);

  00080	8b 45 08	 mov	 eax, DWORD PTR _name$[ebp]
  00083	50		 push	 eax
  00084	6b 4d 0c 32	 imul	 ecx, DWORD PTR _skill$[ebp], 50
  00088	8b 55 fc	 mov	 edx, DWORD PTR _this$[ebp]
  0008b	8d 84 0a 64 09
	00 00		 lea	 eax, DWORD PTR [edx+ecx+2404]
  00092	50		 push	 eax
  00093	e8 00 00 00 00	 call	 _strcpy
  00098	83 c4 08	 add	 esp, 8

; 640  : 	
; 641  : 	m_Damage[skill]			= damage;

  0009b	8b 45 0c	 mov	 eax, DWORD PTR _skill$[ebp]
  0009e	8b 4d fc	 mov	 ecx, DWORD PTR _this$[ebp]
  000a1	8b 55 10	 mov	 edx, DWORD PTR _damage$[ebp]
  000a4	89 54 81 04	 mov	 DWORD PTR [ecx+eax*4+4], edx

; 642  : 	m_rLevel[skill]			= rlevel;

  000a8	8b 45 fc	 mov	 eax, DWORD PTR _this$[ebp]
  000ab	03 45 0c	 add	 eax, DWORD PTR _skill$[ebp]
  000ae	8a 4d 14	 mov	 cl, BYTE PTR _rlevel$[ebp]
  000b1	88 88 94 7e 00
	00		 mov	 BYTE PTR [eax+32404], cl

; 643  : 	m_Mana[skill]			= mana;

  000b7	8b 45 0c	 mov	 eax, DWORD PTR _skill$[ebp]
  000ba	8b 4d fc	 mov	 ecx, DWORD PTR _this$[ebp]
  000bd	66 8b 55 18	 mov	 dx, WORD PTR _mana$[ebp]
  000c1	66 89 94 41 ec
	80 00 00	 mov	 WORD PTR [ecx+eax*2+33004], dx

; 644  : 	m_Distance[skill]		= dis;

  000c9	8b 45 fc	 mov	 eax, DWORD PTR _this$[ebp]
  000cc	03 45 0c	 add	 eax, DWORD PTR _skill$[ebp]
  000cf	8a 4d 20	 mov	 cl, BYTE PTR _dis$[ebp]
  000d2	88 88 9c 85 00
	00		 mov	 BYTE PTR [eax+34204], cl

; 645  : 
; 646  : #ifdef DARKLORD_WORK
; 647  : 	m_RequireLeadership[skill] = rLeadership;

  000d8	8b 45 0c	 mov	 eax, DWORD PTR _skill$[ebp]
  000db	8b 4d fc	 mov	 ecx, DWORD PTR _this$[ebp]
  000de	8b 55 34	 mov	 edx, DWORD PTR _rLeadership$[ebp]
  000e1	89 94 81 0c 9d
	00 00		 mov	 DWORD PTR [ecx+eax*4+40204], edx

; 648  : 	m_Delay[skill] = rdelay;

  000e8	8b 45 0c	 mov	 eax, DWORD PTR _skill$[ebp]
  000eb	8b 4d fc	 mov	 ecx, DWORD PTR _this$[ebp]
  000ee	8b 55 38	 mov	 edx, DWORD PTR _rdelay$[ebp]
  000f1	89 94 81 6c a6
	00 00		 mov	 DWORD PTR [ecx+eax*4+42604], edx

; 649  : #endif
; 650  : 
; 651  : #ifdef NEW_FORSKYLAND2	
; 652  : 	m_BrainPower[skill]		= bp;

  000f8	8b 45 0c	 mov	 eax, DWORD PTR _skill$[ebp]
  000fb	8b 4d fc	 mov	 ecx, DWORD PTR _this$[ebp]
  000fe	66 8b 55 1c	 mov	 dx, WORD PTR _bp$[ebp]
  00102	66 89 94 41 cc
	af 00 00	 mov	 WORD PTR [ecx+eax*2+45004], dx

; 653  : #endif
; 654  : 
; 655  : 	m_Attr[skill] = Attr;

  0010a	8b 45 0c	 mov	 eax, DWORD PTR _skill$[ebp]
  0010d	8b 4d fc	 mov	 ecx, DWORD PTR _this$[ebp]
  00110	8b 55 24	 mov	 edx, DWORD PTR _Attr$[ebp]
  00113	89 94 81 7c b4
	00 00		 mov	 DWORD PTR [ecx+eax*4+46204], edx

; 656  : 
; 657  : #ifdef SKILL_ADD_PHYSICS_MAGIC_TYPE_20040812
; 658  : 	m_iSkillType[skill] = iSkillType;

  0011a	8b 45 0c	 mov	 eax, DWORD PTR _skill$[ebp]
  0011d	8b 4d fc	 mov	 ecx, DWORD PTR _this$[ebp]
  00120	8b 55 28	 mov	 edx, DWORD PTR _iSkillType$[ebp]
  00123	89 94 81 dc bd
	00 00		 mov	 DWORD PTR [ecx+eax*4+48604], edx

; 659  : #endif	
; 660  : 	
; 661  : 	memcpy(m_RequireClass[skill], ReqClass, MAX_CLASSTYPE);

  0012a	6a 05		 push	 5
  0012c	8b 45 2c	 mov	 eax, DWORD PTR _ReqClass$[ebp]
  0012f	50		 push	 eax
  00130	6b 4d 0c 05	 imul	 ecx, DWORD PTR _skill$[ebp], 5
  00134	8b 55 fc	 mov	 edx, DWORD PTR _this$[ebp]
  00137	8d 84 0a 54 91
	00 00		 lea	 eax, DWORD PTR [edx+ecx+37204]
  0013e	50		 push	 eax
  0013f	e8 00 00 00 00	 call	 _memcpy
  00144	83 c4 0c	 add	 esp, 12			; 0000000cH

; 662  : 		
; 663  : #ifdef MODIFY_BASIC_SKILL_REQENG_20080102
; 664  : 	int nBaseSkillReqEng = rEnergy * rlevel * 4;
; 665  : 	if( nBaseSkillReqEng > 0 )
; 666  : 		nBaseSkillReqEng /= 100;
; 667  : 	else
; 668  : 		nBaseSkillReqEng = 0;
; 669  : 
; 670  : 	#ifdef MODIFY_SKILL_REQUIREENERGY_20080423
; 671  : 	m_RequireEnergy[skill]	= 20 + nBaseSkillReqEng;
; 672  : 	#else
; 673  : 	m_RequireEnergy[skill]	= 10 + nBaseSkillReqEng;
; 674  : 	#endif // MODIFY_SKILL_REQUIREENERGY_20080423
; 675  : #else
; 676  : 	m_RequireEnergy[skill]	= 20+rEnergy*(rlevel)*4/100;

  00147	8b 45 30	 mov	 eax, DWORD PTR _rEnergy$[ebp]
  0014a	0f af 45 14	 imul	 eax, DWORD PTR _rlevel$[ebp]
  0014e	c1 e0 02	 shl	 eax, 2
  00151	99		 cdq
  00152	b9 64 00 00 00	 mov	 ecx, 100		; 00000064H
  00157	f7 f9		 idiv	 ecx
  00159	83 c0 14	 add	 eax, 20			; 00000014H
  0015c	8b 55 0c	 mov	 edx, DWORD PTR _skill$[ebp]
  0015f	8b 4d fc	 mov	 ecx, DWORD PTR _this$[ebp]
  00162	89 84 91 f4 87
	00 00		 mov	 DWORD PTR [ecx+edx*4+34804], eax

; 677  : #endif
; 678  : 		
; 679  : 	if( skill == 13 )

  00169	83 7d 0c 0d	 cmp	 DWORD PTR _skill$[ebp], 13 ; 0000000dH
  0016d	75 1c		 jne	 SHORT $LN5@Set

; 680  : 		LogAddL("skill:%d",m_RequireEnergy[skill]);

  0016f	8b 45 0c	 mov	 eax, DWORD PTR _skill$[ebp]
  00172	8b 4d fc	 mov	 ecx, DWORD PTR _this$[ebp]
  00175	8b 94 81 f4 87
	00 00		 mov	 edx, DWORD PTR [ecx+eax*4+34804]
  0017c	52		 push	 edx
  0017d	68 00 00 00 00	 push	 OFFSET ??_C@_08MAACMGJK@skill?3?$CFd@
  00182	ff 15 00 00 00
	00		 call	 DWORD PTR ?LogAddL@@3P6AXPADZZA ; LogAddL
  00188	83 c4 08	 add	 esp, 8
$LN5@Set:

; 681  : 
; 682  : #ifdef ADD_CHECKING_LEVEL_TO_LEARN_MAGIC_20041115
; 683  : 	m_RequireLevel[skill] = 0;
; 684  : 	if( skill == AT_SKILL_WHEEL )				m_RequireLevel[skill] = 80;			// 회오리베기
; 685  : 	else if( skill == AT_SKILL_BLOWOFFURY )		m_RequireLevel[skill] = 170;		// 분노의 일격
; 686  : 	else if( skill == AT_SKILL_STRIKE )			m_RequireLevel[skill] = 160;		// 블로우
; 687  : 	else if( skill == AT_SKILL_KNIGHTSPEAR )	m_RequireLevel[skill] = 28;		// 창찌르기
; 688  : 	else if( skill == AT_SKILL_KNIGHTADDLIFE )	m_RequireLevel[skill] = 120;		// 스웰라이프			
; 689  : 	else if( skill == AT_SKILL_PENETRATION )	m_RequireLevel[skill] = 130;		// 관통
; 690  : #endif
; 691  : 	
; 692  : 	if( skill == 30 ) m_RequireEnergy[skill] = 30;

  0018b	83 7d 0c 1e	 cmp	 DWORD PTR _skill$[ebp], 30 ; 0000001eH
  0018f	75 16		 jne	 SHORT $LN6@Set
  00191	8b 45 0c	 mov	 eax, DWORD PTR _skill$[ebp]
  00194	8b 4d fc	 mov	 ecx, DWORD PTR _this$[ebp]
  00197	c7 84 81 f4 87
	00 00 1e 00 00
	00		 mov	 DWORD PTR [ecx+eax*4+34804], 30 ; 0000001eH
  001a2	e9 e0 02 00 00	 jmp	 $LN1@Set
$LN6@Set:

; 693  : 	else if( skill == 31 ) m_RequireEnergy[skill] = 60;

  001a7	83 7d 0c 1f	 cmp	 DWORD PTR _skill$[ebp], 31 ; 0000001fH
  001ab	75 16		 jne	 SHORT $LN8@Set
  001ad	8b 45 0c	 mov	 eax, DWORD PTR _skill$[ebp]
  001b0	8b 4d fc	 mov	 ecx, DWORD PTR _this$[ebp]
  001b3	c7 84 81 f4 87
	00 00 3c 00 00
	00		 mov	 DWORD PTR [ecx+eax*4+34804], 60 ; 0000003cH
  001be	e9 c4 02 00 00	 jmp	 $LN1@Set
$LN8@Set:

; 694  : 	else if( skill == 32 ) m_RequireEnergy[skill] = 90;

  001c3	83 7d 0c 20	 cmp	 DWORD PTR _skill$[ebp], 32 ; 00000020H
  001c7	75 16		 jne	 SHORT $LN10@Set
  001c9	8b 45 0c	 mov	 eax, DWORD PTR _skill$[ebp]
  001cc	8b 4d fc	 mov	 ecx, DWORD PTR _this$[ebp]
  001cf	c7 84 81 f4 87
	00 00 5a 00 00
	00		 mov	 DWORD PTR [ecx+eax*4+34804], 90 ; 0000005aH
  001da	e9 a8 02 00 00	 jmp	 $LN1@Set
$LN10@Set:

; 695  : 	else if( skill == 33 ) m_RequireEnergy[skill] = 130;

  001df	83 7d 0c 21	 cmp	 DWORD PTR _skill$[ebp], 33 ; 00000021H
  001e3	75 16		 jne	 SHORT $LN12@Set
  001e5	8b 45 0c	 mov	 eax, DWORD PTR _skill$[ebp]
  001e8	8b 4d fc	 mov	 ecx, DWORD PTR _this$[ebp]
  001eb	c7 84 81 f4 87
	00 00 82 00 00
	00		 mov	 DWORD PTR [ecx+eax*4+34804], 130 ; 00000082H
  001f6	e9 8c 02 00 00	 jmp	 $LN1@Set
$LN12@Set:

; 696  : 	else if( skill == 34 ) m_RequireEnergy[skill] = 170;

  001fb	83 7d 0c 22	 cmp	 DWORD PTR _skill$[ebp], 34 ; 00000022H
  001ff	75 16		 jne	 SHORT $LN14@Set
  00201	8b 45 0c	 mov	 eax, DWORD PTR _skill$[ebp]
  00204	8b 4d fc	 mov	 ecx, DWORD PTR _this$[ebp]
  00207	c7 84 81 f4 87
	00 00 aa 00 00
	00		 mov	 DWORD PTR [ecx+eax*4+34804], 170 ; 000000aaH
  00212	e9 70 02 00 00	 jmp	 $LN1@Set
$LN14@Set:

; 697  : 	else if( skill == 35 ) m_RequireEnergy[skill] = 210;

  00217	83 7d 0c 23	 cmp	 DWORD PTR _skill$[ebp], 35 ; 00000023H
  0021b	75 16		 jne	 SHORT $LN16@Set
  0021d	8b 45 0c	 mov	 eax, DWORD PTR _skill$[ebp]
  00220	8b 4d fc	 mov	 ecx, DWORD PTR _this$[ebp]
  00223	c7 84 81 f4 87
	00 00 d2 00 00
	00		 mov	 DWORD PTR [ecx+eax*4+34804], 210 ; 000000d2H
  0022e	e9 54 02 00 00	 jmp	 $LN1@Set
$LN16@Set:

; 698  : 	else if( skill == 36 ) m_RequireEnergy[skill] = 300;

  00233	83 7d 0c 24	 cmp	 DWORD PTR _skill$[ebp], 36 ; 00000024H
  00237	75 16		 jne	 SHORT $LN18@Set
  00239	8b 45 0c	 mov	 eax, DWORD PTR _skill$[ebp]
  0023c	8b 4d fc	 mov	 ecx, DWORD PTR _this$[ebp]
  0023f	c7 84 81 f4 87
	00 00 2c 01 00
	00		 mov	 DWORD PTR [ecx+eax*4+34804], 300 ; 0000012cH
  0024a	e9 38 02 00 00	 jmp	 $LN1@Set
$LN18@Set:

; 699  : 	else if( skill == AT_SKILL_WHEEL )			m_RequireEnergy[skill] = 0;		// 회오리베기

  0024f	83 7d 0c 29	 cmp	 DWORD PTR _skill$[ebp], 41 ; 00000029H
  00253	75 16		 jne	 SHORT $LN20@Set
  00255	8b 45 0c	 mov	 eax, DWORD PTR _skill$[ebp]
  00258	8b 4d fc	 mov	 ecx, DWORD PTR _this$[ebp]
  0025b	c7 84 81 f4 87
	00 00 00 00 00
	00		 mov	 DWORD PTR [ecx+eax*4+34804], 0
  00266	e9 1c 02 00 00	 jmp	 $LN1@Set
$LN20@Set:

; 700  : 	else if( skill == AT_SKILL_BLOWOFFURY )		m_RequireEnergy[skill] = 0;		// 분노의 일격

  0026b	83 7d 0c 2a	 cmp	 DWORD PTR _skill$[ebp], 42 ; 0000002aH
  0026f	75 16		 jne	 SHORT $LN22@Set
  00271	8b 45 0c	 mov	 eax, DWORD PTR _skill$[ebp]
  00274	8b 4d fc	 mov	 ecx, DWORD PTR _this$[ebp]
  00277	c7 84 81 f4 87
	00 00 00 00 00
	00		 mov	 DWORD PTR [ecx+eax*4+34804], 0
  00282	e9 00 02 00 00	 jmp	 $LN1@Set
$LN22@Set:

; 701  : 	else if( skill == AT_SKILL_STRIKE )			m_RequireEnergy[skill] = 0;		// 블로우

  00287	83 7d 0c 2b	 cmp	 DWORD PTR _skill$[ebp], 43 ; 0000002bH
  0028b	75 16		 jne	 SHORT $LN24@Set
  0028d	8b 45 0c	 mov	 eax, DWORD PTR _skill$[ebp]
  00290	8b 4d fc	 mov	 ecx, DWORD PTR _this$[ebp]
  00293	c7 84 81 f4 87
	00 00 00 00 00
	00		 mov	 DWORD PTR [ecx+eax*4+34804], 0
  0029e	e9 e4 01 00 00	 jmp	 $LN1@Set
$LN24@Set:

; 702  : 	else if( skill == AT_SKILL_KNIGHTSPEAR )	m_RequireEnergy[skill] = 0;		// 창찌르기

  002a3	83 7d 0c 2f	 cmp	 DWORD PTR _skill$[ebp], 47 ; 0000002fH
  002a7	75 16		 jne	 SHORT $LN26@Set
  002a9	8b 45 0c	 mov	 eax, DWORD PTR _skill$[ebp]
  002ac	8b 4d fc	 mov	 ecx, DWORD PTR _this$[ebp]
  002af	c7 84 81 f4 87
	00 00 00 00 00
	00		 mov	 DWORD PTR [ecx+eax*4+34804], 0
  002ba	e9 c8 01 00 00	 jmp	 $LN1@Set
$LN26@Set:

; 703  : 	else if( skill == AT_SKILL_KNIGHTADDLIFE )	m_RequireEnergy[skill] = 0;		// 스웰라이프

  002bf	83 7d 0c 30	 cmp	 DWORD PTR _skill$[ebp], 48 ; 00000030H
  002c3	75 16		 jne	 SHORT $LN28@Set
  002c5	8b 45 0c	 mov	 eax, DWORD PTR _skill$[ebp]
  002c8	8b 4d fc	 mov	 ecx, DWORD PTR _this$[ebp]
  002cb	c7 84 81 f4 87
	00 00 00 00 00
	00		 mov	 DWORD PTR [ecx+eax*4+34804], 0
  002d6	e9 ac 01 00 00	 jmp	 $LN1@Set
$LN28@Set:

; 704  : 	else if( skill == AT_SKILL_KNIGHTDINORANT ) m_RequireEnergy[skill] = 0;		// 레이드 슛

  002db	83 7d 0c 31	 cmp	 DWORD PTR _skill$[ebp], 49 ; 00000031H
  002df	75 16		 jne	 SHORT $LN30@Set
  002e1	8b 45 0c	 mov	 eax, DWORD PTR _skill$[ebp]
  002e4	8b 4d fc	 mov	 ecx, DWORD PTR _this$[ebp]
  002e7	c7 84 81 f4 87
	00 00 00 00 00
	00		 mov	 DWORD PTR [ecx+eax*4+34804], 0
  002f2	e9 90 01 00 00	 jmp	 $LN1@Set
$LN30@Set:

; 705  : 	else if( skill == AT_SKILL_DEFENSEDOWN )	m_RequireEnergy[skill] = 0;		// 블러드어택

  002f7	83 7d 0c 37	 cmp	 DWORD PTR _skill$[ebp], 55 ; 00000037H
  002fb	75 16		 jne	 SHORT $LN32@Set
  002fd	8b 45 0c	 mov	 eax, DWORD PTR _skill$[ebp]
  00300	8b 4d fc	 mov	 ecx, DWORD PTR _this$[ebp]
  00303	c7 84 81 f4 87
	00 00 00 00 00
	00		 mov	 DWORD PTR [ecx+eax*4+34804], 0
  0030e	e9 74 01 00 00	 jmp	 $LN1@Set
$LN32@Set:

; 706  : 	else if( skill == AT_SKILL_ELFHARDEN )		m_RequireEnergy[skill] = 0;		// 아이스애로우

  00313	83 7d 0c 33	 cmp	 DWORD PTR _skill$[ebp], 51 ; 00000033H
  00317	75 16		 jne	 SHORT $LN34@Set
  00319	8b 45 0c	 mov	 eax, DWORD PTR _skill$[ebp]
  0031c	8b 4d fc	 mov	 ecx, DWORD PTR _this$[ebp]
  0031f	c7 84 81 f4 87
	00 00 00 00 00
	00		 mov	 DWORD PTR [ecx+eax*4+34804], 0
  0032a	e9 58 01 00 00	 jmp	 $LN1@Set
$LN34@Set:

; 707  : 	else if( skill == AT_SKILL_PENETRATION )	m_RequireEnergy[skill] = 0;		// 관통

  0032f	83 7d 0c 34	 cmp	 DWORD PTR _skill$[ebp], 52 ; 00000034H
  00333	75 16		 jne	 SHORT $LN36@Set
  00335	8b 45 0c	 mov	 eax, DWORD PTR _skill$[ebp]
  00338	8b 4d fc	 mov	 ecx, DWORD PTR _this$[ebp]
  0033b	c7 84 81 f4 87
	00 00 00 00 00
	00		 mov	 DWORD PTR [ecx+eax*4+34804], 0
  00346	e9 3c 01 00 00	 jmp	 $LN1@Set
$LN36@Set:

; 708  : 	else if( skill == AT_SKILL_CROSSBOW )	m_RequireEnergy[skill] = 0;			// 요정 다발

  0034b	83 7d 0c 18	 cmp	 DWORD PTR _skill$[ebp], 24 ; 00000018H
  0034f	75 16		 jne	 SHORT $LN38@Set
  00351	8b 45 0c	 mov	 eax, DWORD PTR _skill$[ebp]
  00354	8b 4d fc	 mov	 ecx, DWORD PTR _this$[ebp]
  00357	c7 84 81 f4 87
	00 00 00 00 00
	00		 mov	 DWORD PTR [ecx+eax*4+34804], 0
  00362	e9 20 01 00 00	 jmp	 $LN1@Set
$LN38@Set:

; 709  : 	else if( skill == AT_SKILL_ENERGYBALL )	m_RequireEnergy[skill] = 0;			// 에너지볼

  00367	83 7d 0c 11	 cmp	 DWORD PTR _skill$[ebp], 17 ; 00000011H
  0036b	75 16		 jne	 SHORT $LN40@Set
  0036d	8b 45 0c	 mov	 eax, DWORD PTR _skill$[ebp]
  00370	8b 4d fc	 mov	 ecx, DWORD PTR _this$[ebp]
  00373	c7 84 81 f4 87
	00 00 00 00 00
	00		 mov	 DWORD PTR [ecx+eax*4+34804], 0
  0037e	e9 04 01 00 00	 jmp	 $LN1@Set
$LN40@Set:

; 710  : 	else if( skill == AT_SKILL_BLOCKING )	m_RequireEnergy[skill] = 0;			// 방어 스킬

  00383	83 7d 0c 12	 cmp	 DWORD PTR _skill$[ebp], 18 ; 00000012H
  00387	75 16		 jne	 SHORT $LN42@Set
  00389	8b 45 0c	 mov	 eax, DWORD PTR _skill$[ebp]
  0038c	8b 4d fc	 mov	 ecx, DWORD PTR _this$[ebp]
  0038f	c7 84 81 f4 87
	00 00 00 00 00
	00		 mov	 DWORD PTR [ecx+eax*4+34804], 0
  0039a	e9 e8 00 00 00	 jmp	 $LN1@Set
$LN42@Set:

; 711  : 	else if( skill == AT_SKILL_SWORD1 )	m_RequireEnergy[skill] = 0;				// 내려찍기

  0039f	83 7d 0c 13	 cmp	 DWORD PTR _skill$[ebp], 19 ; 00000013H
  003a3	75 16		 jne	 SHORT $LN44@Set
  003a5	8b 45 0c	 mov	 eax, DWORD PTR _skill$[ebp]
  003a8	8b 4d fc	 mov	 ecx, DWORD PTR _this$[ebp]
  003ab	c7 84 81 f4 87
	00 00 00 00 00
	00		 mov	 DWORD PTR [ecx+eax*4+34804], 0
  003b6	e9 cc 00 00 00	 jmp	 $LN1@Set
$LN44@Set:

; 712  : 	else if( skill == AT_SKILL_SWORD2 )	m_RequireEnergy[skill] = 0;				// 찌르기

  003bb	83 7d 0c 14	 cmp	 DWORD PTR _skill$[ebp], 20 ; 00000014H
  003bf	75 16		 jne	 SHORT $LN46@Set
  003c1	8b 45 0c	 mov	 eax, DWORD PTR _skill$[ebp]
  003c4	8b 4d fc	 mov	 ecx, DWORD PTR _this$[ebp]
  003c7	c7 84 81 f4 87
	00 00 00 00 00
	00		 mov	 DWORD PTR [ecx+eax*4+34804], 0
  003d2	e9 b0 00 00 00	 jmp	 $LN1@Set
$LN46@Set:

; 713  : 	else if( skill == AT_SKILL_SWORD3 )	m_RequireEnergy[skill] = 0;				// 올려치기

  003d7	83 7d 0c 15	 cmp	 DWORD PTR _skill$[ebp], 21 ; 00000015H
  003db	75 16		 jne	 SHORT $LN48@Set
  003dd	8b 45 0c	 mov	 eax, DWORD PTR _skill$[ebp]
  003e0	8b 4d fc	 mov	 ecx, DWORD PTR _this$[ebp]
  003e3	c7 84 81 f4 87
	00 00 00 00 00
	00		 mov	 DWORD PTR [ecx+eax*4+34804], 0
  003ee	e9 94 00 00 00	 jmp	 $LN1@Set
$LN48@Set:

; 714  : 	else if( skill == AT_SKILL_SWORD4 )	m_RequireEnergy[skill] = 0;				// 돌려치기

  003f3	83 7d 0c 16	 cmp	 DWORD PTR _skill$[ebp], 22 ; 00000016H
  003f7	75 13		 jne	 SHORT $LN50@Set
  003f9	8b 45 0c	 mov	 eax, DWORD PTR _skill$[ebp]
  003fc	8b 4d fc	 mov	 ecx, DWORD PTR _this$[ebp]
  003ff	c7 84 81 f4 87
	00 00 00 00 00
	00		 mov	 DWORD PTR [ecx+eax*4+34804], 0
  0040a	eb 7b		 jmp	 SHORT $LN1@Set
$LN50@Set:

; 715  : 	else if( skill == AT_SKILL_SWORD5 )	m_RequireEnergy[skill] = 0;				// 베기

  0040c	83 7d 0c 17	 cmp	 DWORD PTR _skill$[ebp], 23 ; 00000017H
  00410	75 13		 jne	 SHORT $LN52@Set
  00412	8b 45 0c	 mov	 eax, DWORD PTR _skill$[ebp]
  00415	8b 4d fc	 mov	 ecx, DWORD PTR _this$[ebp]
  00418	c7 84 81 f4 87
	00 00 00 00 00
	00		 mov	 DWORD PTR [ecx+eax*4+34804], 0
  00423	eb 62		 jmp	 SHORT $LN1@Set
$LN52@Set:

; 716  : 	else if( skill == AT_SKILL_BOW )	m_RequireEnergy[skill] = 0;				// 안쓰는 예전 관통	

  00425	83 7d 0c 19	 cmp	 DWORD PTR _skill$[ebp], 25 ; 00000019H
  00429	75 13		 jne	 SHORT $LN54@Set
  0042b	8b 45 0c	 mov	 eax, DWORD PTR _skill$[ebp]
  0042e	8b 4d fc	 mov	 ecx, DWORD PTR _this$[ebp]
  00431	c7 84 81 f4 87
	00 00 00 00 00
	00		 mov	 DWORD PTR [ecx+eax*4+34804], 0
  0043c	eb 49		 jmp	 SHORT $LN1@Set
$LN54@Set:

; 717  : 	else if( skill == AT_SKILL_SWORD6 )	m_RequireEnergy[skill] = 0;				// 데쓰브로드

  0043e	83 7d 0c 38	 cmp	 DWORD PTR _skill$[ebp], 56 ; 00000038H
  00442	75 13		 jne	 SHORT $LN56@Set
  00444	8b 45 0c	 mov	 eax, DWORD PTR _skill$[ebp]
  00447	8b 4d fc	 mov	 ecx, DWORD PTR _this$[ebp]
  0044a	c7 84 81 f4 87
	00 00 00 00 00
	00		 mov	 DWORD PTR [ecx+eax*4+34804], 0
  00455	eb 30		 jmp	 SHORT $LN1@Set
$LN56@Set:

; 718  : #ifdef DARKLORD_WORK
; 719  : 	else if( skill == AT_SKILL_SPEAR )	m_RequireEnergy[skill] = 0;				// 데쓰브로드

  00457	83 7d 0c 3c	 cmp	 DWORD PTR _skill$[ebp], 60 ; 0000003cH
  0045b	75 13		 jne	 SHORT $LN58@Set
  0045d	8b 45 0c	 mov	 eax, DWORD PTR _skill$[ebp]
  00460	8b 4d fc	 mov	 ecx, DWORD PTR _this$[ebp]
  00463	c7 84 81 f4 87
	00 00 00 00 00
	00		 mov	 DWORD PTR [ecx+eax*4+34804], 0
  0046e	eb 17		 jmp	 SHORT $LN1@Set
$LN58@Set:

; 720  : #endif
; 721  : #ifdef ADD_NEW_SKILL_FOR_CASTLE_01_20041116
; 722  : 	else if( skill == AT_SKILL_RUSH )			m_RequireEnergy[skill] = 0;		// 블레이드 나이트
; 723  : 	else if( skill == AT_SKILL_JAVALIN )		m_RequireEnergy[skill] = 0;		// 소울 마스터
; 724  : 	else if( skill == AT_SKILL_DEEPIMPACT )		m_RequireEnergy[skill] = 0;		// 뮤즈 엘프
; 725  : 	else if( skill == AT_SKILL_ONE_FLASH )		m_RequireEnergy[skill] = 0;		// 기사형 마검사
; 726  : 	else if( skill == AT_SKILL_DEATH_CANNON )	m_RequireEnergy[skill] = 0;		// 법사형 마검사
; 727  : 	else if( skill == AT_SKILL_SPACE_SPLIT )	m_RequireEnergy[skill] = 0;		// 다크로드 공격 스킬
; 728  : #endif
; 729  : #ifdef ADD_NEW_SKILL_FOR_CASTLE_02_20050531
; 730  : 	else if( skill == AT_SKILL_STUN )				m_RequireEnergy[skill] = 0;		// 스턴
; 731  : 	else if( skill == AT_SKILL_REMOVAL_STUN )		m_RequireEnergy[skill] = 0;		// 스턴해제
; 732  : 	else if( skill == AT_SKILL_ADD_MANA )			m_RequireEnergy[skill] = 0;		// 스웰마나
; 733  : 	else if( skill == AT_SKILL_INVISIBLE )			m_RequireEnergy[skill] = 0;		// 투명
; 734  : 	else if( skill == AT_SKILL_REMOVAL_INVISIBLE )	m_RequireEnergy[skill] = 0;		// 투명해제
; 735  : 	else if( skill == AT_SKILL_REMOVAL_MAGIC )		m_RequireEnergy[skill] = 0;		// 마법해제
; 736  : #endif
; 737  : #ifdef ADD_ITEM_FENRIR_01_20051110
; 738  : 	else if( skill == AT_SKILL_FENRIR_ATTACK )		m_RequireEnergy[skill] = 0;	 // 펜릴 스킬
; 739  : #endif
; 740  : 
; 741  : #ifdef ADD_SKILL_MUSE_ELF_INFINITYARROW_20060406
; 742  : 	else if( skill == AT_SKILL_INFINITY_ARROW )		m_RequireEnergy[skill] = 0;		// 뮤즈엘프 인피니티 애로우
; 743  : #endif
; 744  : 	
; 745  : #ifdef ADD_SKILL_DARKLOAD_FIRESCREAM_20060601		// CMagicDamage::Set(...) 파이어 스크림 요구에너지 설정
; 746  : 	else if( skill == AT_SKILL_FIRESCREAM )			m_RequireEnergy[skill] = 0;		// 다크로드 파이어스크림
; 747  : 	else if( skill == AT_SKILL_EXPLOSION )			m_RequireEnergy[skill] = 0;		// 다크로드 폭발
; 748  : #endif
; 749  : 	
; 750  : #ifdef MODIFY_DARKLORD_EARTHQUAKE_REQENERGY_BUGFIX_20060914
; 751  : 	else if( skill == AT_SKILL_DARKHORSE_ATTACK )	m_RequireEnergy[skill] = 0;		// 다크로드 어스퀘이크 

  00470	83 7d 0c 3e	 cmp	 DWORD PTR _skill$[ebp], 62 ; 0000003eH
  00474	75 11		 jne	 SHORT $LN1@Set
  00476	8b 45 0c	 mov	 eax, DWORD PTR _skill$[ebp]
  00479	8b 4d fc	 mov	 ecx, DWORD PTR _this$[ebp]
  0047c	c7 84 81 f4 87
	00 00 00 00 00
	00		 mov	 DWORD PTR [ecx+eax*4+34804], 0
$LN1@Set:

; 752  : #endif
; 753  : 
; 754  : #ifdef ADD_SEASON_3_NEW_CHARACTER_SUMMONER_20070912
; 755  : 	else if( skill == AT_SKILL_DRAINLIFE)			m_RequireEnergy[skill] = 0;		// 드레인라이프
; 756  : 	else if( skill == AT_SKILL_CHAINLIGHTNING)		m_RequireEnergy[skill] = 0;		// 체인라이트닝
; 757  : 	else if( skill == AT_SKILL_LIGHTNINGORB)			m_RequireEnergy[skill] = 0;		// 라이트닝오브
; 758  : 
; 759  : 	else if( skill == AT_SKILL_THORNS)				m_RequireEnergy[skill] = 0;		// 쏜즈
; 760  : 
; 761  : 	else if( skill == AT_SKILL_SLEEP)				m_RequireEnergy[skill] = 0;		// 슬립
; 762  : 	else if( skill == AT_SKILL_BLIND)				m_RequireEnergy[skill] = 0;		// 블라인드
; 763  : 
; 764  : 	else if( skill == AT_SKILL_EXPLOSION_2)			m_RequireEnergy[skill] = 0;		// 익스플로젼
; 765  : 	else if( skill == AT_SKILL_REQUIEM)				m_RequireEnergy[skill] = 0;		// 레퀴엠
; 766  : #endif
; 767  : 	
; 768  : #ifdef UPDATE_SUMMONER_NEW_SKILL_20080111
; 769  : 	else if( skill == AT_SKILL_WEAKNESS)			m_RequireEnergy[skill] = 0;		// 위크니스
; 770  : 	else if( skill == AT_SKILL_ENERVATION)			m_RequireEnergy[skill] = 0;		// 이너베이션
; 771  : #endif	// UPDATE_SUMMONER_NEW_SKILL_20080111
; 772  : 
; 773  : #ifdef UPDATE_ADD_SUMMONER_SKILL_POLLUTION_20080425
; 774  : 	else if( skill == AT_SKILL_PULLUTION )			m_RequireEnergy[skill] = 0;		// 펄루션
; 775  : #endif	// UPDATE_ADD_SUMMONER_SKILL_POLLUTION_20080425
; 776  : 	
; 777  : #ifdef SEASON4_PATCH_GROOVING
; 778  : 	// --->
; 779  : 	// 시즌 4.0 추가 스킬  grooving 2008/04/24
; 780  : 	else if( skill == AT_SKILL_LIGHTING_SHOCK)		m_RequireEnergy[skill] = 0;		// 라이트닝 쇼크
; 781  : 	else if( skill == AT_SKILL_BERSERKER)			m_RequireEnergy[skill] = 0;		// 버서커
; 782  : 	// <---
; 783  : #endif
; 784  : 	
; 785  : #ifdef ADD_SEASON4_NEW_SKILL_20080522	// 요구 에너지 설정
; 786  : 	else if( skill == AT_SKILL_DESTRUCTION )		m_RequireEnergy[skill] = 0;		// 파괴의 일격
; 787  : 	else if( skill == AT_SKILL_MAGICPOWRER )		m_RequireEnergy[skill] = 0;		// 마력 증가
; 788  : 	else if( skill == AT_SKILL_RECOVERY )			m_RequireEnergy[skill] = 0;		// 회복
; 789  : 	else if( skill == AT_SKILL_MULTISHOT )			m_RequireEnergy[skill] = 0;		// 멀티샷
; 790  : 	else if( skill == AT_SKILL_FLAMESTRIKE )		m_RequireEnergy[skill] = 0;		// 플레임 스트라이크
; 791  : 	else if( skill == AT_SKILL_GIGANTICSTORM )		m_RequireEnergy[skill] = 0;		// 기간틱 스톰
; 792  : 	else if( skill == AT_SKILL_CHAOTICDESAIR )		m_RequireEnergy[skill] = 0;		// 카오틱 디세이어
; 793  : #endif	// ADD_SEASON4_NEW_SKILL_20080522
; 794  : }

  00487	5f		 pop	 edi
  00488	5e		 pop	 esi
  00489	5b		 pop	 ebx
  0048a	8b e5		 mov	 esp, ebp
  0048c	5d		 pop	 ebp
  0048d	c2 34 00	 ret	 52			; 00000034H
?Set@CMagicDamage@@AAEXPADHHHHHHHHPAEHHH@Z ENDP		; CMagicDamage::Set
_TEXT	ENDS
; Function compile flags: /Odtp /ZI
; File C:\Mu Online\Mu-GS-Webzen-MC-10093\GameServer\MagicDamage.cpp
;	COMDAT ?Get@CMagicDamage@@AAEHH@Z
_TEXT	SEGMENT
_this$ = -4						; size = 4
_skill$ = 8						; size = 4
?Get@CMagicDamage@@AAEHH@Z PROC				; CMagicDamage::Get, COMDAT
; _this$ = ecx

; 800  : {

  00000	55		 push	 ebp
  00001	8b ec		 mov	 ebp, esp
  00003	83 ec 44	 sub	 esp, 68			; 00000044H
  00006	53		 push	 ebx
  00007	56		 push	 esi
  00008	57		 push	 edi
  00009	89 4d fc	 mov	 DWORD PTR _this$[ebp], ecx

; 801  : 	if( skill < 0 || skill > MAX_SKILL-1 ) 

  0000c	83 7d 08 00	 cmp	 DWORD PTR _skill$[ebp], 0
  00010	7c 09		 jl	 SHORT $LN3@Get
  00012	81 7d 08 57 02
	00 00		 cmp	 DWORD PTR _skill$[ebp], 599 ; 00000257H
  00019	7e 39		 jle	 SHORT $LN2@Get
$LN3@Get:

; 802  : 	{
; 803  : 		LogAdd(lMsg.Get(457),__FILE__, __LINE__);

  0001b	a1 00 00 00 00	 mov	 eax, DWORD PTR ?__LINE__Var@?0??Get@CMagicDamage@@AAEHH@Z@4JA
  00020	83 c0 03	 add	 eax, 3
  00023	50		 push	 eax
  00024	68 00 00 00 00	 push	 OFFSET ??_C@_0DO@ENMFLOMK@C?3?2Mu?5Online?2Mu?9GS?9Webzen?9MC?910@
  00029	68 c9 01 00 00	 push	 457			; 000001c9H
  0002e	b9 00 00 00 00	 mov	 ecx, OFFSET ?lMsg@@3VCMsg@@A ; lMsg
  00033	ff 15 00 00 00
	00		 call	 DWORD PTR __imp_?Get@CMsg@@QAEPADH@Z
  00039	50		 push	 eax
  0003a	ff 15 00 00 00
	00		 call	 DWORD PTR ?LogAdd@@3P6AXPADZZA ; LogAdd
  00040	83 c4 0c	 add	 esp, 12			; 0000000cH

; 804  : 		return m_Damage[0];

  00043	b8 04 00 00 00	 mov	 eax, 4
  00048	6b c8 00	 imul	 ecx, eax, 0
  0004b	8b 55 fc	 mov	 edx, DWORD PTR _this$[ebp]
  0004e	8b 44 0a 04	 mov	 eax, DWORD PTR [edx+ecx+4]
  00052	eb 50		 jmp	 SHORT $LN1@Get
$LN2@Get:

; 805  : 	}
; 806  : 	if( m_Damage[skill] == -1 ) 

  00054	8b 45 08	 mov	 eax, DWORD PTR _skill$[ebp]
  00057	8b 4d fc	 mov	 ecx, DWORD PTR _this$[ebp]
  0005a	83 7c 81 04 ff	 cmp	 DWORD PTR [ecx+eax*4+4], -1
  0005f	75 39		 jne	 SHORT $LN4@Get

; 807  : 	{
; 808  : 		LogAdd(lMsg.Get(458),__FILE__, __LINE__);

  00061	a1 00 00 00 00	 mov	 eax, DWORD PTR ?__LINE__Var@?0??Get@CMagicDamage@@AAEHH@Z@4JA
  00066	83 c0 08	 add	 eax, 8
  00069	50		 push	 eax
  0006a	68 00 00 00 00	 push	 OFFSET ??_C@_0DO@ENMFLOMK@C?3?2Mu?5Online?2Mu?9GS?9Webzen?9MC?910@
  0006f	68 ca 01 00 00	 push	 458			; 000001caH
  00074	b9 00 00 00 00	 mov	 ecx, OFFSET ?lMsg@@3VCMsg@@A ; lMsg
  00079	ff 15 00 00 00
	00		 call	 DWORD PTR __imp_?Get@CMsg@@QAEPADH@Z
  0007f	50		 push	 eax
  00080	ff 15 00 00 00
	00		 call	 DWORD PTR ?LogAdd@@3P6AXPADZZA ; LogAdd
  00086	83 c4 0c	 add	 esp, 12			; 0000000cH

; 809  : 		return m_Damage[0];

  00089	b8 04 00 00 00	 mov	 eax, 4
  0008e	6b c8 00	 imul	 ecx, eax, 0
  00091	8b 55 fc	 mov	 edx, DWORD PTR _this$[ebp]
  00094	8b 44 0a 04	 mov	 eax, DWORD PTR [edx+ecx+4]
  00098	eb 0a		 jmp	 SHORT $LN1@Get
$LN4@Get:

; 810  : 	}
; 811  : 	return m_Damage[skill];

  0009a	8b 45 08	 mov	 eax, DWORD PTR _skill$[ebp]
  0009d	8b 4d fc	 mov	 ecx, DWORD PTR _this$[ebp]
  000a0	8b 44 81 04	 mov	 eax, DWORD PTR [ecx+eax*4+4]
$LN1@Get:

; 812  : }

  000a4	5f		 pop	 edi
  000a5	5e		 pop	 esi
  000a6	5b		 pop	 ebx
  000a7	8b e5		 mov	 esp, ebp
  000a9	5d		 pop	 ebp
  000aa	c2 04 00	 ret	 4
?Get@CMagicDamage@@AAEHH@Z ENDP				; CMagicDamage::Get
_TEXT	ENDS
; Function compile flags: /Odtp /ZI
; File C:\Mu Online\Mu-GS-Webzen-MC-10093\Include\Readscript.h
;	COMDAT ?GetToken@@YA?AW4SMDToken@@XZ
_TEXT	SEGMENT
tv93 = -184						; size = 4
$T1 = -180						; size = 4
_TempString$ = -112					; size = 100
_p$ = -12						; size = 4
_ch$ = -5						; size = 1
__$ArrayPad$ = -4					; size = 4
?GetToken@@YA?AW4SMDToken@@XZ PROC			; GetToken, COMDAT

; 25   : {

  00000	55		 push	 ebp
  00001	8b ec		 mov	 ebp, esp
  00003	81 ec b8 00 00
	00		 sub	 esp, 184		; 000000b8H
  00009	a1 00 00 00 00	 mov	 eax, DWORD PTR ___security_cookie
  0000e	33 c5		 xor	 eax, ebp
  00010	89 45 fc	 mov	 DWORD PTR __$ArrayPad$[ebp], eax
  00013	53		 push	 ebx
  00014	56		 push	 esi
  00015	57		 push	 edi

; 26   : 	unsigned char ch;
; 27   : 	TokenString[0] = '\0';

  00016	b8 01 00 00 00	 mov	 eax, 1
  0001b	6b c8 00	 imul	 ecx, eax, 0
  0001e	89 8d 4c ff ff
	ff		 mov	 DWORD PTR $T1[ebp], ecx
  00024	83 bd 4c ff ff
	ff 64		 cmp	 DWORD PTR $T1[ebp], 100	; 00000064H
  0002b	73 02		 jae	 SHORT $LN31@GetToken
  0002d	eb 05		 jmp	 SHORT $LN32@GetToken
$LN31@GetToken:
  0002f	e8 00 00 00 00	 call	 ___report_rangecheckfailure
$LN32@GetToken:
  00034	8b 95 4c ff ff
	ff		 mov	 edx, DWORD PTR $T1[ebp]
  0003a	c6 82 00 00 00
	00 00		 mov	 BYTE PTR ?TokenString@@3PADA[edx], 0
$LN4@GetToken:

; 28   : 	do
; 29   : 	{
; 30   : 		if ( (ch =(unsigned char) fgetc(SMDFile)) == (BYTE)EOF) return END;

  00041	a1 00 00 00 00	 mov	 eax, DWORD PTR ?SMDFile@@3PAU_iobuf@@A
  00046	50		 push	 eax
  00047	e8 00 00 00 00	 call	 _fgetc
  0004c	83 c4 04	 add	 esp, 4
  0004f	88 45 fb	 mov	 BYTE PTR _ch$[ebp], al
  00052	0f b6 4d fb	 movzx	 ecx, BYTE PTR _ch$[ebp]
  00056	81 f9 ff 00 00
	00		 cmp	 ecx, 255		; 000000ffH
  0005c	75 0a		 jne	 SHORT $LN15@GetToken
  0005e	b8 02 00 00 00	 mov	 eax, 2
  00063	e9 d9 02 00 00	 jmp	 $LN7@GetToken
$LN15@GetToken:

; 31   : 		if (ch=='/' && (ch =(unsigned char) fgetc(SMDFile) )=='/')	

  00068	0f b6 45 fb	 movzx	 eax, BYTE PTR _ch$[ebp]
  0006c	83 f8 2f	 cmp	 eax, 47			; 0000002fH
  0006f	75 56		 jne	 SHORT $LN17@GetToken
  00071	a1 00 00 00 00	 mov	 eax, DWORD PTR ?SMDFile@@3PAU_iobuf@@A
  00076	50		 push	 eax
  00077	e8 00 00 00 00	 call	 _fgetc
  0007c	83 c4 04	 add	 esp, 4
  0007f	88 45 fb	 mov	 BYTE PTR _ch$[ebp], al
  00082	0f b6 4d fb	 movzx	 ecx, BYTE PTR _ch$[ebp]
  00086	83 f9 2f	 cmp	 ecx, 47			; 0000002fH
  00089	75 3c		 jne	 SHORT $LN17@GetToken
$LN5@GetToken:

; 32   : 		{
; 33   : 			while((ch != '\n') && (ch != (BYTE)EOF)) {			// 2003.09.02 H.J.I 수정

  0008b	0f b6 45 fb	 movzx	 eax, BYTE PTR _ch$[ebp]
  0008f	83 f8 0a	 cmp	 eax, 10			; 0000000aH
  00092	74 1e		 je	 SHORT $LN6@GetToken
  00094	0f b6 45 fb	 movzx	 eax, BYTE PTR _ch$[ebp]
  00098	3d ff 00 00 00	 cmp	 eax, 255		; 000000ffH
  0009d	74 13		 je	 SHORT $LN6@GetToken

; 34   : 				ch = (unsigned char) fgetc( SMDFile);

  0009f	a1 00 00 00 00	 mov	 eax, DWORD PTR ?SMDFile@@3PAU_iobuf@@A
  000a4	50		 push	 eax
  000a5	e8 00 00 00 00	 call	 _fgetc
  000aa	83 c4 04	 add	 esp, 4
  000ad	88 45 fb	 mov	 BYTE PTR _ch$[ebp], al

; 35   : 			}

  000b0	eb d9		 jmp	 SHORT $LN5@GetToken
$LN6@GetToken:

; 36   : 
; 37   : 			if (ch == (BYTE)EOF)

  000b2	0f b6 45 fb	 movzx	 eax, BYTE PTR _ch$[ebp]
  000b6	3d ff 00 00 00	 cmp	 eax, 255		; 000000ffH
  000bb	75 0a		 jne	 SHORT $LN17@GetToken

; 38   : 				return END;

  000bd	b8 02 00 00 00	 mov	 eax, 2
  000c2	e9 7a 02 00 00	 jmp	 $LN7@GetToken
$LN17@GetToken:

; 39   : 		}
; 40   : 	} while(  isspace(ch) );

  000c7	0f b6 45 fb	 movzx	 eax, BYTE PTR _ch$[ebp]
  000cb	50		 push	 eax
  000cc	e8 00 00 00 00	 call	 _isspace
  000d1	83 c4 04	 add	 esp, 4
  000d4	85 c0		 test	 eax, eax
  000d6	0f 85 65 ff ff
	ff		 jne	 $LN4@GetToken

; 41   : 	
; 42   : 	char *p, TempString[100];
; 43   : 	switch(ch)

  000dc	0f b6 45 fb	 movzx	 eax, BYTE PTR _ch$[ebp]
  000e0	89 85 48 ff ff
	ff		 mov	 DWORD PTR tv93[ebp], eax
  000e6	8b 8d 48 ff ff
	ff		 mov	 ecx, DWORD PTR tv93[ebp]
  000ec	83 e9 22	 sub	 ecx, 34			; 00000022H
  000ef	89 8d 48 ff ff
	ff		 mov	 DWORD PTR tv93[ebp], ecx
  000f5	83 bd 48 ff ff
	ff 5b		 cmp	 DWORD PTR tv93[ebp], 91	; 0000005bH
  000fc	0f 87 86 01 00
	00		 ja	 $LN27@GetToken
  00102	8b 95 48 ff ff
	ff		 mov	 edx, DWORD PTR tv93[ebp]
  00108	0f b6 82 00 00
	00 00		 movzx	 eax, BYTE PTR $LN33@GetToken[edx]
  0010f	ff 24 85 00 00
	00 00		 jmp	 DWORD PTR $LN34@GetToken[eax*4]
$LN18@GetToken:

; 44   : 	{	
; 45   : 	case '#':
; 46   : 		return CurrentToken = COMMAND;

  00116	c7 05 00 00 00
	00 23 00 00 00	 mov	 DWORD PTR ?CurrentToken@@3W4SMDToken@@A, 35 ; 00000023H
  00120	a1 00 00 00 00	 mov	 eax, DWORD PTR ?CurrentToken@@3W4SMDToken@@A
  00125	e9 17 02 00 00	 jmp	 $LN7@GetToken
$LN19@GetToken:

; 47   : 	case ';':
; 48   : 		return CurrentToken = SEMICOLON;

  0012a	c7 05 00 00 00
	00 3b 00 00 00	 mov	 DWORD PTR ?CurrentToken@@3W4SMDToken@@A, 59 ; 0000003bH
  00134	a1 00 00 00 00	 mov	 eax, DWORD PTR ?CurrentToken@@3W4SMDToken@@A
  00139	e9 03 02 00 00	 jmp	 $LN7@GetToken
$LN20@GetToken:

; 49   : 	case ',':
; 50   : 		return CurrentToken = COMMA;

  0013e	c7 05 00 00 00
	00 2c 00 00 00	 mov	 DWORD PTR ?CurrentToken@@3W4SMDToken@@A, 44 ; 0000002cH
  00148	a1 00 00 00 00	 mov	 eax, DWORD PTR ?CurrentToken@@3W4SMDToken@@A
  0014d	e9 ef 01 00 00	 jmp	 $LN7@GetToken
$LN21@GetToken:

; 51   : 	case '{':
; 52   : 		return CurrentToken = LP;

  00152	c7 05 00 00 00
	00 7b 00 00 00	 mov	 DWORD PTR ?CurrentToken@@3W4SMDToken@@A, 123 ; 0000007bH
  0015c	a1 00 00 00 00	 mov	 eax, DWORD PTR ?CurrentToken@@3W4SMDToken@@A
  00161	e9 db 01 00 00	 jmp	 $LN7@GetToken
$LN22@GetToken:

; 53   : 	case '}':
; 54   : 		return CurrentToken = RP;

  00166	c7 05 00 00 00
	00 7d 00 00 00	 mov	 DWORD PTR ?CurrentToken@@3W4SMDToken@@A, 125 ; 0000007dH
  00170	a1 00 00 00 00	 mov	 eax, DWORD PTR ?CurrentToken@@3W4SMDToken@@A
  00175	e9 c7 01 00 00	 jmp	 $LN7@GetToken
$LN23@GetToken:

; 55   : 	case '0':	case '1':	case '2':	case '3':	case '4':
; 56   : 	case '5':	case '6':	case '7':	case '8':	case '9':
; 57   : 	case '.':	case '-':
; 58   : 		ungetc(ch,SMDFile);

  0017a	a1 00 00 00 00	 mov	 eax, DWORD PTR ?SMDFile@@3PAU_iobuf@@A
  0017f	50		 push	 eax
  00180	0f b6 4d fb	 movzx	 ecx, BYTE PTR _ch$[ebp]
  00184	51		 push	 ecx
  00185	e8 00 00 00 00	 call	 _ungetc
  0018a	83 c4 08	 add	 esp, 8

; 59   : 		p = TempString;

  0018d	8d 45 90	 lea	 eax, DWORD PTR _TempString$[ebp]
  00190	89 45 f4	 mov	 DWORD PTR _p$[ebp], eax
$LN9@GetToken:

; 60   : 		while ( (  (ch = getc(SMDFile) ) !=(BYTE)EOF) && (ch=='.' || isdigit(ch) || ch=='-') )

  00193	a1 00 00 00 00	 mov	 eax, DWORD PTR ?SMDFile@@3PAU_iobuf@@A
  00198	50		 push	 eax
  00199	e8 00 00 00 00	 call	 _getc
  0019e	83 c4 04	 add	 esp, 4
  001a1	88 45 fb	 mov	 BYTE PTR _ch$[ebp], al
  001a4	0f b6 4d fb	 movzx	 ecx, BYTE PTR _ch$[ebp]
  001a8	81 f9 ff 00 00
	00		 cmp	 ecx, 255		; 000000ffH
  001ae	74 36		 je	 SHORT $LN10@GetToken
  001b0	0f b6 45 fb	 movzx	 eax, BYTE PTR _ch$[ebp]
  001b4	83 f8 2e	 cmp	 eax, 46			; 0000002eH
  001b7	74 1a		 je	 SHORT $LN24@GetToken
  001b9	0f b6 45 fb	 movzx	 eax, BYTE PTR _ch$[ebp]
  001bd	50		 push	 eax
  001be	e8 00 00 00 00	 call	 _isdigit
  001c3	83 c4 04	 add	 esp, 4
  001c6	85 c0		 test	 eax, eax
  001c8	75 09		 jne	 SHORT $LN24@GetToken
  001ca	0f b6 45 fb	 movzx	 eax, BYTE PTR _ch$[ebp]
  001ce	83 f8 2d	 cmp	 eax, 45			; 0000002dH
  001d1	75 13		 jne	 SHORT $LN10@GetToken
$LN24@GetToken:

; 61   : 			*p++ = ch;

  001d3	8b 45 f4	 mov	 eax, DWORD PTR _p$[ebp]
  001d6	8a 4d fb	 mov	 cl, BYTE PTR _ch$[ebp]
  001d9	88 08		 mov	 BYTE PTR [eax], cl
  001db	8b 55 f4	 mov	 edx, DWORD PTR _p$[ebp]
  001de	83 c2 01	 add	 edx, 1
  001e1	89 55 f4	 mov	 DWORD PTR _p$[ebp], edx
  001e4	eb ad		 jmp	 SHORT $LN9@GetToken
$LN10@GetToken:

; 62   : 		*p = 0;

  001e6	8b 45 f4	 mov	 eax, DWORD PTR _p$[ebp]
  001e9	c6 00 00	 mov	 BYTE PTR [eax], 0

; 63   : 		TokenNumber = (float)atof(TempString);

  001ec	8d 45 90	 lea	 eax, DWORD PTR _TempString$[ebp]
  001ef	50		 push	 eax
  001f0	e8 00 00 00 00	 call	 _atof
  001f5	83 c4 04	 add	 esp, 4
  001f8	d9 1d 00 00 00
	00		 fstp	 DWORD PTR ?TokenNumber@@3MA

; 64   : 		//			sscanf(TempString," %f ",&TokenNumber);
; 65   : 		return CurrentToken = NUMBER;

  001fe	c7 05 00 00 00
	00 01 00 00 00	 mov	 DWORD PTR ?CurrentToken@@3W4SMDToken@@A, 1
  00208	a1 00 00 00 00	 mov	 eax, DWORD PTR ?CurrentToken@@3W4SMDToken@@A
  0020d	e9 2f 01 00 00	 jmp	 $LN7@GetToken
$LN25@GetToken:

; 66   : 	case '"':
; 67   : 		p = TokenString;

  00212	c7 45 f4 00 00
	00 00		 mov	 DWORD PTR _p$[ebp], OFFSET ?TokenString@@3PADA
$LN11@GetToken:

; 68   : 		while ( (  (ch = getc(SMDFile) ) !=(BYTE)EOF) && (ch!='"'))// || isalnum(ch)) )

  00219	a1 00 00 00 00	 mov	 eax, DWORD PTR ?SMDFile@@3PAU_iobuf@@A
  0021e	50		 push	 eax
  0021f	e8 00 00 00 00	 call	 _getc
  00224	83 c4 04	 add	 esp, 4
  00227	88 45 fb	 mov	 BYTE PTR _ch$[ebp], al
  0022a	0f b6 4d fb	 movzx	 ecx, BYTE PTR _ch$[ebp]
  0022e	81 f9 ff 00 00
	00		 cmp	 ecx, 255		; 000000ffH
  00234	74 1c		 je	 SHORT $LN12@GetToken
  00236	0f b6 45 fb	 movzx	 eax, BYTE PTR _ch$[ebp]
  0023a	83 f8 22	 cmp	 eax, 34			; 00000022H
  0023d	74 13		 je	 SHORT $LN12@GetToken

; 69   : 			*p++ = ch;

  0023f	8b 45 f4	 mov	 eax, DWORD PTR _p$[ebp]
  00242	8a 4d fb	 mov	 cl, BYTE PTR _ch$[ebp]
  00245	88 08		 mov	 BYTE PTR [eax], cl
  00247	8b 55 f4	 mov	 edx, DWORD PTR _p$[ebp]
  0024a	83 c2 01	 add	 edx, 1
  0024d	89 55 f4	 mov	 DWORD PTR _p$[ebp], edx
  00250	eb c7		 jmp	 SHORT $LN11@GetToken
$LN12@GetToken:

; 70   : 		if (ch!='"')

  00252	0f b6 45 fb	 movzx	 eax, BYTE PTR _ch$[ebp]
  00256	83 f8 22	 cmp	 eax, 34			; 00000022H
  00259	74 13		 je	 SHORT $LN26@GetToken

; 71   : 			ungetc(ch,SMDFile);

  0025b	a1 00 00 00 00	 mov	 eax, DWORD PTR ?SMDFile@@3PAU_iobuf@@A
  00260	50		 push	 eax
  00261	0f b6 4d fb	 movzx	 ecx, BYTE PTR _ch$[ebp]
  00265	51		 push	 ecx
  00266	e8 00 00 00 00	 call	 _ungetc
  0026b	83 c4 08	 add	 esp, 8
$LN26@GetToken:

; 72   : 		*p = 0;

  0026e	8b 45 f4	 mov	 eax, DWORD PTR _p$[ebp]
  00271	c6 00 00	 mov	 BYTE PTR [eax], 0

; 73   : 		return CurrentToken = NAME;

  00274	c7 05 00 00 00
	00 00 00 00 00	 mov	 DWORD PTR ?CurrentToken@@3W4SMDToken@@A, 0
  0027e	a1 00 00 00 00	 mov	 eax, DWORD PTR ?CurrentToken@@3W4SMDToken@@A
  00283	e9 b9 00 00 00	 jmp	 $LN7@GetToken
$LN27@GetToken:

; 74   : 	default:
; 75   : 		if (isalpha(ch))	

  00288	0f b6 45 fb	 movzx	 eax, BYTE PTR _ch$[ebp]
  0028c	50		 push	 eax
  0028d	e8 00 00 00 00	 call	 _isalpha
  00292	83 c4 04	 add	 esp, 4
  00295	85 c0		 test	 eax, eax
  00297	0f 84 95 00 00
	00		 je	 $LN28@GetToken

; 76   : 		{
; 77   : 			p = TokenString;

  0029d	c7 45 f4 00 00
	00 00		 mov	 DWORD PTR _p$[ebp], OFFSET ?TokenString@@3PADA

; 78   : 			*p++ = ch;

  002a4	8b 45 f4	 mov	 eax, DWORD PTR _p$[ebp]
  002a7	8a 4d fb	 mov	 cl, BYTE PTR _ch$[ebp]
  002aa	88 08		 mov	 BYTE PTR [eax], cl
  002ac	8b 55 f4	 mov	 edx, DWORD PTR _p$[ebp]
  002af	83 c2 01	 add	 edx, 1
  002b2	89 55 f4	 mov	 DWORD PTR _p$[ebp], edx
$LN13@GetToken:

; 79   : 			while ( (  (ch = getc(SMDFile) ) !=(BYTE)EOF) && (ch=='.' || ch=='_' || isalnum(ch)) )

  002b5	a1 00 00 00 00	 mov	 eax, DWORD PTR ?SMDFile@@3PAU_iobuf@@A
  002ba	50		 push	 eax
  002bb	e8 00 00 00 00	 call	 _getc
  002c0	83 c4 04	 add	 esp, 4
  002c3	88 45 fb	 mov	 BYTE PTR _ch$[ebp], al
  002c6	0f b6 4d fb	 movzx	 ecx, BYTE PTR _ch$[ebp]
  002ca	81 f9 ff 00 00
	00		 cmp	 ecx, 255		; 000000ffH
  002d0	74 36		 je	 SHORT $LN14@GetToken
  002d2	0f b6 45 fb	 movzx	 eax, BYTE PTR _ch$[ebp]
  002d6	83 f8 2e	 cmp	 eax, 46			; 0000002eH
  002d9	74 1a		 je	 SHORT $LN29@GetToken
  002db	0f b6 45 fb	 movzx	 eax, BYTE PTR _ch$[ebp]
  002df	83 f8 5f	 cmp	 eax, 95			; 0000005fH
  002e2	74 11		 je	 SHORT $LN29@GetToken
  002e4	0f b6 45 fb	 movzx	 eax, BYTE PTR _ch$[ebp]
  002e8	50		 push	 eax
  002e9	e8 00 00 00 00	 call	 _isalnum
  002ee	83 c4 04	 add	 esp, 4
  002f1	85 c0		 test	 eax, eax
  002f3	74 13		 je	 SHORT $LN14@GetToken
$LN29@GetToken:

; 80   : 				*p++ = ch;

  002f5	8b 45 f4	 mov	 eax, DWORD PTR _p$[ebp]
  002f8	8a 4d fb	 mov	 cl, BYTE PTR _ch$[ebp]
  002fb	88 08		 mov	 BYTE PTR [eax], cl
  002fd	8b 55 f4	 mov	 edx, DWORD PTR _p$[ebp]
  00300	83 c2 01	 add	 edx, 1
  00303	89 55 f4	 mov	 DWORD PTR _p$[ebp], edx
  00306	eb ad		 jmp	 SHORT $LN13@GetToken
$LN14@GetToken:

; 81   : 			ungetc(ch,SMDFile);

  00308	a1 00 00 00 00	 mov	 eax, DWORD PTR ?SMDFile@@3PAU_iobuf@@A
  0030d	50		 push	 eax
  0030e	0f b6 4d fb	 movzx	 ecx, BYTE PTR _ch$[ebp]
  00312	51		 push	 ecx
  00313	e8 00 00 00 00	 call	 _ungetc
  00318	83 c4 08	 add	 esp, 8

; 82   : 			*p = 0;

  0031b	8b 45 f4	 mov	 eax, DWORD PTR _p$[ebp]
  0031e	c6 00 00	 mov	 BYTE PTR [eax], 0

; 83   : 			return CurrentToken = NAME;

  00321	c7 05 00 00 00
	00 00 00 00 00	 mov	 DWORD PTR ?CurrentToken@@3W4SMDToken@@A, 0
  0032b	a1 00 00 00 00	 mov	 eax, DWORD PTR ?CurrentToken@@3W4SMDToken@@A
  00330	eb 0f		 jmp	 SHORT $LN7@GetToken
$LN28@GetToken:

; 84   : 		}
; 85   : 		return CurrentToken = SMD_ERROR;

  00332	c7 05 00 00 00
	00 3c 00 00 00	 mov	 DWORD PTR ?CurrentToken@@3W4SMDToken@@A, 60 ; 0000003cH
  0033c	a1 00 00 00 00	 mov	 eax, DWORD PTR ?CurrentToken@@3W4SMDToken@@A
$LN7@GetToken:

; 86   : 	}
; 87   : }

  00341	5f		 pop	 edi
  00342	5e		 pop	 esi
  00343	5b		 pop	 ebx
  00344	8b 4d fc	 mov	 ecx, DWORD PTR __$ArrayPad$[ebp]
  00347	33 cd		 xor	 ecx, ebp
  00349	e8 00 00 00 00	 call	 @__security_check_cookie@4
  0034e	8b e5		 mov	 esp, ebp
  00350	5d		 pop	 ebp
  00351	c3		 ret	 0
  00352	66 90		 npad	 2
$LN34@GetToken:
  00354	00 00 00 00	 DD	 $LN25@GetToken
  00358	00 00 00 00	 DD	 $LN18@GetToken
  0035c	00 00 00 00	 DD	 $LN20@GetToken
  00360	00 00 00 00	 DD	 $LN23@GetToken
  00364	00 00 00 00	 DD	 $LN19@GetToken
  00368	00 00 00 00	 DD	 $LN21@GetToken
  0036c	00 00 00 00	 DD	 $LN22@GetToken
  00370	00 00 00 00	 DD	 $LN27@GetToken
$LN33@GetToken:
  00374	00		 DB	 0
  00375	01		 DB	 1
  00376	07		 DB	 7
  00377	07		 DB	 7
  00378	07		 DB	 7
  00379	07		 DB	 7
  0037a	07		 DB	 7
  0037b	07		 DB	 7
  0037c	07		 DB	 7
  0037d	07		 DB	 7
  0037e	02		 DB	 2
  0037f	03		 DB	 3
  00380	03		 DB	 3
  00381	07		 DB	 7
  00382	03		 DB	 3
  00383	03		 DB	 3
  00384	03		 DB	 3
  00385	03		 DB	 3
  00386	03		 DB	 3
  00387	03		 DB	 3
  00388	03		 DB	 3
  00389	03		 DB	 3
  0038a	03		 DB	 3
  0038b	03		 DB	 3
  0038c	07		 DB	 7
  0038d	04		 DB	 4
  0038e	07		 DB	 7
  0038f	07		 DB	 7
  00390	07		 DB	 7
  00391	07		 DB	 7
  00392	07		 DB	 7
  00393	07		 DB	 7
  00394	07		 DB	 7
  00395	07		 DB	 7
  00396	07		 DB	 7
  00397	07		 DB	 7
  00398	07		 DB	 7
  00399	07		 DB	 7
  0039a	07		 DB	 7
  0039b	07		 DB	 7
  0039c	07		 DB	 7
  0039d	07		 DB	 7
  0039e	07		 DB	 7
  0039f	07		 DB	 7
  003a0	07		 DB	 7
  003a1	07		 DB	 7
  003a2	07		 DB	 7
  003a3	07		 DB	 7
  003a4	07		 DB	 7
  003a5	07		 DB	 7
  003a6	07		 DB	 7
  003a7	07		 DB	 7
  003a8	07		 DB	 7
  003a9	07		 DB	 7
  003aa	07		 DB	 7
  003ab	07		 DB	 7
  003ac	07		 DB	 7
  003ad	07		 DB	 7
  003ae	07		 DB	 7
  003af	07		 DB	 7
  003b0	07		 DB	 7
  003b1	07		 DB	 7
  003b2	07		 DB	 7
  003b3	07		 DB	 7
  003b4	07		 DB	 7
  003b5	07		 DB	 7
  003b6	07		 DB	 7
  003b7	07		 DB	 7
  003b8	07		 DB	 7
  003b9	07		 DB	 7
  003ba	07		 DB	 7
  003bb	07		 DB	 7
  003bc	07		 DB	 7
  003bd	07		 DB	 7
  003be	07		 DB	 7
  003bf	07		 DB	 7
  003c0	07		 DB	 7
  003c1	07		 DB	 7
  003c2	07		 DB	 7
  003c3	07		 DB	 7
  003c4	07		 DB	 7
  003c5	07		 DB	 7
  003c6	07		 DB	 7
  003c7	07		 DB	 7
  003c8	07		 DB	 7
  003c9	07		 DB	 7
  003ca	07		 DB	 7
  003cb	07		 DB	 7
  003cc	07		 DB	 7
  003cd	05		 DB	 5
  003ce	07		 DB	 7
  003cf	06		 DB	 6
?GetToken@@YA?AW4SMDToken@@XZ ENDP			; GetToken
_TEXT	ENDS
; Function compile flags: /Odtp /ZI
; File C:\Mu Online\Mu-GS-Webzen-MC-10093\GameServer\MagicDamage.cpp
;	COMDAT ?__empty_global_delete@@YAXPAXI@Z
_TEXT	SEGMENT
___formal$ = 8						; size = 4
___formal$ = 12						; size = 4
?__empty_global_delete@@YAXPAXI@Z PROC			; __empty_global_delete, COMDAT

  00000	55		 push	 ebp
  00001	8b ec		 mov	 ebp, esp
  00003	83 ec 40	 sub	 esp, 64			; 00000040H
  00006	53		 push	 ebx
  00007	56		 push	 esi
  00008	57		 push	 edi
  00009	5f		 pop	 edi
  0000a	5e		 pop	 esi
  0000b	5b		 pop	 ebx
  0000c	8b e5		 mov	 esp, ebp
  0000e	5d		 pop	 ebp
  0000f	c3		 ret	 0
?__empty_global_delete@@YAXPAXI@Z ENDP			; __empty_global_delete
_TEXT	ENDS
; Function compile flags: /Odtp /ZI
; File C:\Mu Online\Mu-GS-Webzen-MC-10093\GameServer\MagicDamage.cpp
;	COMDAT ?__empty_global_delete@@YAXPAX@Z
_TEXT	SEGMENT
___formal$ = 8						; size = 4
?__empty_global_delete@@YAXPAX@Z PROC			; __empty_global_delete, COMDAT

  00000	55		 push	 ebp
  00001	8b ec		 mov	 ebp, esp
  00003	83 ec 40	 sub	 esp, 64			; 00000040H
  00006	53		 push	 ebx
  00007	56		 push	 esi
  00008	57		 push	 edi
  00009	5f		 pop	 edi
  0000a	5e		 pop	 esi
  0000b	5b		 pop	 ebx
  0000c	8b e5		 mov	 esp, ebp
  0000e	5d		 pop	 ebp
  0000f	c3		 ret	 0
?__empty_global_delete@@YAXPAX@Z ENDP			; __empty_global_delete
_TEXT	ENDS
END
