; Listing generated by Microsoft (R) Optimizing Compiler Version 19.27.29111.0 

	TITLE	C:\Mu Online\Mu-GS-Webzen-MC-10093\GameServer\Manager.cpp
	.686P
	.XMM
	include listing.inc
	.model	flat

INCLUDELIB LIBCMT
INCLUDELIB OLDNAMES

PUBLIC	?__empty_global_delete@@YAXPAX@Z		; __empty_global_delete
PUBLIC	?__empty_global_delete@@YAXPAXI@Z		; __empty_global_delete
PUBLIC	?Fetch@CDataBase@@QAEFXZ			; CDataBase::Fetch
PUBLIC	?Clear@CDataBase@@QAEXXZ			; CDataBase::Clear
PUBLIC	?OnError@CDataBase@@UAAXPBDZZ			; CDataBase::OnError
PUBLIC	?OnQuery@CDataBase@@UAAXPBDZZ			; CDataBase::OnQuery
PUBLIC	?OnMessage@CDataBase@@UAAXPBDZZ			; CDataBase::OnMessage
PUBLIC	?DiagnosticConn@CDataBase@@QAEXXZ		; CDataBase::DiagnosticConn
PUBLIC	??0CManager@@QAE@XZ				; CManager::CManager
PUBLIC	??1CManager@@QAE@XZ				; CManager::~CManager
PUBLIC	?Initialize@CManager@@QAE_NXZ			; CManager::Initialize
PUBLIC	?InitDatabase@CManager@@QAE_NXZ			; CManager::InitDatabase
PUBLIC	?Load@CManager@@QAE_NXZ				; CManager::Load
PUBLIC	?VipCount@CManager@@QAEHPAD@Z			; CManager::VipCount
PUBLIC	?CountResets@CManager@@QAEHPAD@Z		; CManager::CountResets
PUBLIC	?CountMasters@CManager@@QAEHPAD@Z		; CManager::CountMasters
PUBLIC	?KCredits@CManager@@QAEHPAD@Z			; CManager::KCredits
PUBLIC	?Pshopnpc@CManager@@QAEHPAD@Z			; CManager::Pshopnpc
PUBLIC	?DuelWins@CManager@@QAEHPAD@Z			; CManager::DuelWins
PUBLIC	?DuelLoser@CManager@@QAEHPAD@Z			; CManager::DuelLoser
PUBLIC	?CtlCount@CManager@@QAEHPAD@Z			; CManager::CtlCount
PUBLIC	??_C@_05OAJIOINI@08S01@				; `string'
PUBLIC	??_7CManager@@6B@				; CManager::`vftable'
PUBLIC	?Manager@@3VCManager@@A				; Manager
PUBLIC	??_C@_0CC@NILNCPNJ@Erroe?5en?5conexion?5con?5SQL?5Serve@ ; `string'
PUBLIC	??_C@_0EM@MOKEOBOG@Conexion?5con?5SQL?5Server?5Fallo?$CBP@ ; `string'
PUBLIC	??_C@_0BH@NDBLLOFH@?4?4?2Data?2SQLConnect?4txt@	; `string'
PUBLIC	??_C@_02CKOPKKAC@sa@				; `string'
PUBLIC	??_C@_04ODLBFFJE@User@				; `string'
PUBLIC	??_C@_03DGLBMECB@SQL@				; `string'
PUBLIC	??_C@_08EDAJACMH@fireteam@			; `string'
PUBLIC	??_C@_08FJIAHGMM@Password@			; `string'
PUBLIC	??_C@_08BCAJKAEC@MuOnline@			; `string'
PUBLIC	??_C@_08LCNCODBM@DataBase@			; `string'
PUBLIC	??_C@_09PFCHIMEP@127?40?40?41@			; `string'
PUBLIC	??_C@_04CPPPJGME@Host@				; `string'
PUBLIC	??_C@_0DB@FJNLOHNG@SELECT?5DuelWins?5from?5Character?5@ ; `string'
PUBLIC	??_C@_08FCMGONIA@DuelWins@			; `string'
PUBLIC	??_C@_0DC@CNPNCAAP@SELECT?5DuelLoser?5from?5Character@ ; `string'
PUBLIC	??_C@_09KMGKAJMB@DuelLoser@			; `string'
PUBLIC	??_C@_0DB@GHEKDPLN@SELECT?5vip?5FROM?5MEMB_INFO?5WHERE@ ; `string'
PUBLIC	??_C@_03PINGFGPK@vip@				; `string'
PUBLIC	??_C@_0CP@HOKJGNPN@SELECT?5Resets?5from?5Character?5WH@ ; `string'
PUBLIC	??_C@_06GLIADBGB@Resets@			; `string'
PUBLIC	??_C@_0DA@DFJANKAL@SELECT?5MResets?5from?5Character?5W@ ; `string'
PUBLIC	??_C@_07CBFGOGEK@MResets@			; `string'
PUBLIC	??_C@_0DC@FMIHGDKA@SELECT?5Cash?5FROM?5MEMB_INFO?5WHER@ ; `string'
PUBLIC	??_C@_04FOIHINLL@Cash@				; `string'
PUBLIC	??_C@_0DD@PJOOADHA@SELECT?5pshop?5FROM?5MEMB_INFO?5WHE@ ; `string'
PUBLIC	??_C@_05GJELODIF@pshop@				; `string'
PUBLIC	??_C@_0DF@PIACAMPE@SELECT?5CtlCode?5FROM?5Character?5W@ ; `string'
PUBLIC	??_C@_07HBJMOHFD@CtlCode@			; `string'
PUBLIC	??_R4CManager@@6B@				; CManager::`RTTI Complete Object Locator'
PUBLIC	??_R0?AVCManager@@@8				; CManager `RTTI Type Descriptor'
PUBLIC	??_R3CManager@@8				; CManager::`RTTI Class Hierarchy Descriptor'
PUBLIC	??_R2CManager@@8				; CManager::`RTTI Base Class Array'
PUBLIC	??_R1A@?0A@EA@CManager@@8			; CManager::`RTTI Base Class Descriptor at (0,-1,0,64)'
PUBLIC	??_R1A@?0A@EA@CDataBase@@8			; CDataBase::`RTTI Base Class Descriptor at (0,-1,0,64)'
PUBLIC	??_R0?AVCDataBase@@@8				; CDataBase `RTTI Type Descriptor'
PUBLIC	??_R3CDataBase@@8				; CDataBase::`RTTI Class Hierarchy Descriptor'
PUBLIC	??_R2CDataBase@@8				; CDataBase::`RTTI Base Class Array'
EXTRN	_atexit:PROC
EXTRN	_memcpy:PROC
EXTRN	_strcmp:PROC
EXTRN	__imp__ExitProcess@4:PROC
EXTRN	__imp__GetPrivateProfileStringA@24:PROC
EXTRN	__imp__MessageBoxA@16:PROC
EXTRN	_SQLCloseCursor@4:PROC
EXTRN	_SQLFetch@4:PROC
EXTRN	_SQLFreeStmt@8:PROC
EXTRN	_SQLGetDiagRec@32:PROC
EXTRN	??0CDataBase@@QAE@XZ:PROC			; CDataBase::CDataBase
EXTRN	??1CDataBase@@QAE@XZ:PROC			; CDataBase::~CDataBase
EXTRN	?Connect@CDataBase@@QAE_NPBD000@Z:PROC		; CDataBase::Connect
EXTRN	?Reconnect@CDataBase@@QAE_NXZ:PROC		; CDataBase::Reconnect
EXTRN	?ExecFormat@CDataBase@@QAA_NPBDZZ:PROC		; CDataBase::ExecFormat
EXTRN	?GetInt@CDataBase@@QAEHPBD@Z:PROC		; CDataBase::GetInt
EXTRN	??_7type_info@@6B@:QWORD			; type_info::`vftable'
_BSS	SEGMENT
?Manager@@3VCManager@@A DB 07ffcH DUP (?)		; Manager
_BSS	ENDS
CRT$XCU	SEGMENT
?Manager$initializer$@@3P6AXXZA DD FLAT:??__EManager@@YAXXZ ; Manager$initializer$
CRT$XCU	ENDS
;	COMDAT ??_R2CDataBase@@8
rdata$r	SEGMENT
??_R2CDataBase@@8 DD FLAT:??_R1A@?0A@EA@CDataBase@@8	; CDataBase::`RTTI Base Class Array'
rdata$r	ENDS
;	COMDAT ??_R3CDataBase@@8
rdata$r	SEGMENT
??_R3CDataBase@@8 DD 00H				; CDataBase::`RTTI Class Hierarchy Descriptor'
	DD	00H
	DD	01H
	DD	FLAT:??_R2CDataBase@@8
rdata$r	ENDS
;	COMDAT ??_R0?AVCDataBase@@@8
data$r	SEGMENT
??_R0?AVCDataBase@@@8 DD FLAT:??_7type_info@@6B@	; CDataBase `RTTI Type Descriptor'
	DD	00H
	DB	'.?AVCDataBase@@', 00H
data$r	ENDS
;	COMDAT ??_R1A@?0A@EA@CDataBase@@8
rdata$r	SEGMENT
??_R1A@?0A@EA@CDataBase@@8 DD FLAT:??_R0?AVCDataBase@@@8 ; CDataBase::`RTTI Base Class Descriptor at (0,-1,0,64)'
	DD	00H
	DD	00H
	DD	0ffffffffH
	DD	00H
	DD	040H
	DD	FLAT:??_R3CDataBase@@8
rdata$r	ENDS
;	COMDAT ??_R1A@?0A@EA@CManager@@8
rdata$r	SEGMENT
??_R1A@?0A@EA@CManager@@8 DD FLAT:??_R0?AVCManager@@@8	; CManager::`RTTI Base Class Descriptor at (0,-1,0,64)'
	DD	01H
	DD	00H
	DD	0ffffffffH
	DD	00H
	DD	040H
	DD	FLAT:??_R3CManager@@8
rdata$r	ENDS
;	COMDAT ??_R2CManager@@8
rdata$r	SEGMENT
??_R2CManager@@8 DD FLAT:??_R1A@?0A@EA@CManager@@8	; CManager::`RTTI Base Class Array'
	DD	FLAT:??_R1A@?0A@EA@CDataBase@@8
rdata$r	ENDS
;	COMDAT ??_R3CManager@@8
rdata$r	SEGMENT
??_R3CManager@@8 DD 00H					; CManager::`RTTI Class Hierarchy Descriptor'
	DD	00H
	DD	02H
	DD	FLAT:??_R2CManager@@8
rdata$r	ENDS
;	COMDAT ??_R0?AVCManager@@@8
data$r	SEGMENT
??_R0?AVCManager@@@8 DD FLAT:??_7type_info@@6B@		; CManager `RTTI Type Descriptor'
	DD	00H
	DB	'.?AVCManager@@', 00H
data$r	ENDS
;	COMDAT ??_R4CManager@@6B@
rdata$r	SEGMENT
??_R4CManager@@6B@ DD 00H				; CManager::`RTTI Complete Object Locator'
	DD	00H
	DD	00H
	DD	FLAT:??_R0?AVCManager@@@8
	DD	FLAT:??_R3CManager@@8
rdata$r	ENDS
;	COMDAT ??_C@_07HBJMOHFD@CtlCode@
CONST	SEGMENT
??_C@_07HBJMOHFD@CtlCode@ DB 'CtlCode', 00H		; `string'
CONST	ENDS
;	COMDAT ??_C@_0DF@PIACAMPE@SELECT?5CtlCode?5FROM?5Character?5W@
CONST	SEGMENT
??_C@_0DF@PIACAMPE@SELECT?5CtlCode?5FROM?5Character?5W@ DB 'SELECT CtlCod'
	DB	'e FROM Character WHERE AccountID = ''%s''', 00H ; `string'
CONST	ENDS
;	COMDAT ??_C@_05GJELODIF@pshop@
CONST	SEGMENT
??_C@_05GJELODIF@pshop@ DB 'pshop', 00H			; `string'
CONST	ENDS
;	COMDAT ??_C@_0DD@PJOOADHA@SELECT?5pshop?5FROM?5MEMB_INFO?5WHE@
CONST	SEGMENT
??_C@_0DD@PJOOADHA@SELECT?5pshop?5FROM?5MEMB_INFO?5WHE@ DB 'SELECT pshop '
	DB	'FROM MEMB_INFO WHERE memb___id = ''%s''', 00H ; `string'
CONST	ENDS
;	COMDAT ??_C@_04FOIHINLL@Cash@
CONST	SEGMENT
??_C@_04FOIHINLL@Cash@ DB 'Cash', 00H			; `string'
CONST	ENDS
;	COMDAT ??_C@_0DC@FMIHGDKA@SELECT?5Cash?5FROM?5MEMB_INFO?5WHER@
CONST	SEGMENT
??_C@_0DC@FMIHGDKA@SELECT?5Cash?5FROM?5MEMB_INFO?5WHER@ DB 'SELECT Cash F'
	DB	'ROM MEMB_INFO WHERE memb___id = ''%s''', 00H ; `string'
CONST	ENDS
;	COMDAT ??_C@_07CBFGOGEK@MResets@
CONST	SEGMENT
??_C@_07CBFGOGEK@MResets@ DB 'MResets', 00H		; `string'
CONST	ENDS
;	COMDAT ??_C@_0DA@DFJANKAL@SELECT?5MResets?5from?5Character?5W@
CONST	SEGMENT
??_C@_0DA@DFJANKAL@SELECT?5MResets?5from?5Character?5W@ DB 'SELECT MReset'
	DB	's from Character WHERE Name = ''%s''', 00H	; `string'
CONST	ENDS
;	COMDAT ??_C@_06GLIADBGB@Resets@
CONST	SEGMENT
??_C@_06GLIADBGB@Resets@ DB 'Resets', 00H		; `string'
CONST	ENDS
;	COMDAT ??_C@_0CP@HOKJGNPN@SELECT?5Resets?5from?5Character?5WH@
CONST	SEGMENT
??_C@_0CP@HOKJGNPN@SELECT?5Resets?5from?5Character?5WH@ DB 'SELECT Resets'
	DB	' from Character WHERE Name = ''%s''', 00H	; `string'
CONST	ENDS
;	COMDAT ??_C@_03PINGFGPK@vip@
CONST	SEGMENT
??_C@_03PINGFGPK@vip@ DB 'vip', 00H			; `string'
CONST	ENDS
;	COMDAT ??_C@_0DB@GHEKDPLN@SELECT?5vip?5FROM?5MEMB_INFO?5WHERE@
CONST	SEGMENT
??_C@_0DB@GHEKDPLN@SELECT?5vip?5FROM?5MEMB_INFO?5WHERE@ DB 'SELECT vip FR'
	DB	'OM MEMB_INFO WHERE memb___id = ''%s''', 00H	; `string'
CONST	ENDS
;	COMDAT ??_C@_09KMGKAJMB@DuelLoser@
CONST	SEGMENT
??_C@_09KMGKAJMB@DuelLoser@ DB 'DuelLoser', 00H		; `string'
CONST	ENDS
;	COMDAT ??_C@_0DC@CNPNCAAP@SELECT?5DuelLoser?5from?5Character@
CONST	SEGMENT
??_C@_0DC@CNPNCAAP@SELECT?5DuelLoser?5from?5Character@ DB 'SELECT DuelLos'
	DB	'er from Character WHERE Name = ''%s''', 00H	; `string'
CONST	ENDS
;	COMDAT ??_C@_08FCMGONIA@DuelWins@
CONST	SEGMENT
??_C@_08FCMGONIA@DuelWins@ DB 'DuelWins', 00H		; `string'
CONST	ENDS
;	COMDAT ??_C@_0DB@FJNLOHNG@SELECT?5DuelWins?5from?5Character?5@
CONST	SEGMENT
??_C@_0DB@FJNLOHNG@SELECT?5DuelWins?5from?5Character?5@ DB 'SELECT DuelWi'
	DB	'ns from Character WHERE Name = ''%s''', 00H	; `string'
CONST	ENDS
;	COMDAT ??_C@_04CPPPJGME@Host@
CONST	SEGMENT
??_C@_04CPPPJGME@Host@ DB 'Host', 00H			; `string'
CONST	ENDS
;	COMDAT ??_C@_09PFCHIMEP@127?40?40?41@
CONST	SEGMENT
??_C@_09PFCHIMEP@127?40?40?41@ DB '127.0.0.1', 00H	; `string'
CONST	ENDS
;	COMDAT ??_C@_08LCNCODBM@DataBase@
CONST	SEGMENT
??_C@_08LCNCODBM@DataBase@ DB 'DataBase', 00H		; `string'
CONST	ENDS
;	COMDAT ??_C@_08BCAJKAEC@MuOnline@
CONST	SEGMENT
??_C@_08BCAJKAEC@MuOnline@ DB 'MuOnline', 00H		; `string'
CONST	ENDS
;	COMDAT ??_C@_08FJIAHGMM@Password@
CONST	SEGMENT
??_C@_08FJIAHGMM@Password@ DB 'Password', 00H		; `string'
CONST	ENDS
;	COMDAT ??_C@_08EDAJACMH@fireteam@
CONST	SEGMENT
??_C@_08EDAJACMH@fireteam@ DB 'fireteam', 00H		; `string'
CONST	ENDS
;	COMDAT ??_C@_03DGLBMECB@SQL@
CONST	SEGMENT
??_C@_03DGLBMECB@SQL@ DB 'SQL', 00H			; `string'
CONST	ENDS
;	COMDAT ??_C@_04ODLBFFJE@User@
CONST	SEGMENT
??_C@_04ODLBFFJE@User@ DB 'User', 00H			; `string'
CONST	ENDS
;	COMDAT ??_C@_02CKOPKKAC@sa@
CONST	SEGMENT
??_C@_02CKOPKKAC@sa@ DB 'sa', 00H			; `string'
CONST	ENDS
;	COMDAT ??_C@_0BH@NDBLLOFH@?4?4?2Data?2SQLConnect?4txt@
CONST	SEGMENT
??_C@_0BH@NDBLLOFH@?4?4?2Data?2SQLConnect?4txt@ DB '..\Data\SQLConnect.tx'
	DB	't', 00H					; `string'
CONST	ENDS
;	COMDAT ??_C@_0EM@MOKEOBOG@Conexion?5con?5SQL?5Server?5Fallo?$CBP@
CONST	SEGMENT
??_C@_0EM@MOKEOBOG@Conexion?5con?5SQL?5Server?5Fallo?$CBP@ DB 'Conexion c'
	DB	'on SQL Server Fallo!PorFavor Verificar el archivo ''SQLConnec'
	DB	't.txt', 00H					; `string'
CONST	ENDS
;	COMDAT ??_C@_0CC@NILNCPNJ@Erroe?5en?5conexion?5con?5SQL?5Serve@
CONST	SEGMENT
??_C@_0CC@NILNCPNJ@Erroe?5en?5conexion?5con?5SQL?5Serve@ DB 'Erroe en con'
	DB	'exion con SQL Server!', 00H			; `string'
CONST	ENDS
;	COMDAT ??_7CManager@@6B@
CONST	SEGMENT
??_7CManager@@6B@ DD FLAT:??_R4CManager@@6B@		; CManager::`vftable'
	DD	FLAT:?OnError@CDataBase@@UAAXPBDZZ
	DD	FLAT:?OnQuery@CDataBase@@UAAXPBDZZ
	DD	FLAT:?OnMessage@CDataBase@@UAAXPBDZZ
CONST	ENDS
;	COMDAT ??_C@_05OAJIOINI@08S01@
CONST	SEGMENT
??_C@_05OAJIOINI@08S01@ DB '08S01', 00H			; `string'
CONST	ENDS
; Function compile flags: /Odtp /ZI
;	COMDAT ??__FManager@@YAXXZ
text$yd	SEGMENT
??__FManager@@YAXXZ PROC				; `dynamic atexit destructor for 'Manager'', COMDAT
  00000	55		 push	 ebp
  00001	8b ec		 mov	 ebp, esp
  00003	83 ec 40	 sub	 esp, 64			; 00000040H
  00006	53		 push	 ebx
  00007	56		 push	 esi
  00008	57		 push	 edi
  00009	b9 00 00 00 00	 mov	 ecx, OFFSET ?Manager@@3VCManager@@A ; Manager
  0000e	e8 00 00 00 00	 call	 ??1CManager@@QAE@XZ	; CManager::~CManager
  00013	5f		 pop	 edi
  00014	5e		 pop	 esi
  00015	5b		 pop	 ebx
  00016	8b e5		 mov	 esp, ebp
  00018	5d		 pop	 ebp
  00019	c3		 ret	 0
??__FManager@@YAXXZ ENDP				; `dynamic atexit destructor for 'Manager''
text$yd	ENDS
; Function compile flags: /Odtp /ZI
; File C:\Mu Online\Mu-GS-Webzen-MC-10093\GameServer\Manager.cpp
;	COMDAT ??__EManager@@YAXXZ
text$di	SEGMENT
??__EManager@@YAXXZ PROC				; `dynamic initializer for 'Manager'', COMDAT

; 3    : CManager Manager = CManager();

  00000	55		 push	 ebp
  00001	8b ec		 mov	 ebp, esp
  00003	83 ec 40	 sub	 esp, 64			; 00000040H
  00006	53		 push	 ebx
  00007	56		 push	 esi
  00008	57		 push	 edi
  00009	b9 00 00 00 00	 mov	 ecx, OFFSET ?Manager@@3VCManager@@A ; Manager
  0000e	e8 00 00 00 00	 call	 ??0CManager@@QAE@XZ	; CManager::CManager
  00013	68 00 00 00 00	 push	 OFFSET ??__FManager@@YAXXZ ; `dynamic atexit destructor for 'Manager''
  00018	e8 00 00 00 00	 call	 _atexit
  0001d	83 c4 04	 add	 esp, 4
  00020	5f		 pop	 edi
  00021	5e		 pop	 esi
  00022	5b		 pop	 ebx
  00023	8b e5		 mov	 esp, ebp
  00025	5d		 pop	 ebp
  00026	c3		 ret	 0
??__EManager@@YAXXZ ENDP				; `dynamic initializer for 'Manager''
text$di	ENDS
; Function compile flags: /Odtp /ZI
; File C:\Mu Online\Mu-GS-Webzen-MC-10093\GameServer\Manager.cpp
;	COMDAT ?CtlCount@CManager@@QAEHPAD@Z
_TEXT	SEGMENT
_CtlCode$ = -8						; size = 4
_this$ = -4						; size = 4
_Account$ = 8						; size = 4
?CtlCount@CManager@@QAEHPAD@Z PROC			; CManager::CtlCount, COMDAT
; _this$ = ecx

; 160  : {

  00000	55		 push	 ebp
  00001	8b ec		 mov	 ebp, esp
  00003	83 ec 48	 sub	 esp, 72			; 00000048H
  00006	53		 push	 ebx
  00007	56		 push	 esi
  00008	57		 push	 edi
  00009	89 4d fc	 mov	 DWORD PTR _this$[ebp], ecx

; 161  : 	int CtlCode;
; 162  : 
; 163  : 	this->ExecFormat("SELECT CtlCode FROM Character WHERE AccountID = '%s'" , Account );

  0000c	8b 45 08	 mov	 eax, DWORD PTR _Account$[ebp]
  0000f	50		 push	 eax
  00010	68 00 00 00 00	 push	 OFFSET ??_C@_0DF@PIACAMPE@SELECT?5CtlCode?5FROM?5Character?5W@
  00015	8b 4d fc	 mov	 ecx, DWORD PTR _this$[ebp]
  00018	51		 push	 ecx
  00019	e8 00 00 00 00	 call	 ?ExecFormat@CDataBase@@QAA_NPBDZZ ; CDataBase::ExecFormat
  0001e	83 c4 0c	 add	 esp, 12			; 0000000cH

; 164  : 
; 165  : 	this->Fetch( );

  00021	8b 4d fc	 mov	 ecx, DWORD PTR _this$[ebp]
  00024	e8 00 00 00 00	 call	 ?Fetch@CDataBase@@QAEFXZ ; CDataBase::Fetch

; 166  : 
; 167  : 	CtlCode = this->GetInt("CtlCode");

  00029	68 00 00 00 00	 push	 OFFSET ??_C@_07HBJMOHFD@CtlCode@
  0002e	8b 4d fc	 mov	 ecx, DWORD PTR _this$[ebp]
  00031	e8 00 00 00 00	 call	 ?GetInt@CDataBase@@QAEHPBD@Z ; CDataBase::GetInt
  00036	89 45 f8	 mov	 DWORD PTR _CtlCode$[ebp], eax

; 168  : 
; 169  : 	this->Clear( );

  00039	8b 4d fc	 mov	 ecx, DWORD PTR _this$[ebp]
  0003c	e8 00 00 00 00	 call	 ?Clear@CDataBase@@QAEXXZ ; CDataBase::Clear

; 170  : 
; 171  : 	return CtlCode;

  00041	8b 45 f8	 mov	 eax, DWORD PTR _CtlCode$[ebp]

; 172  : }

  00044	5f		 pop	 edi
  00045	5e		 pop	 esi
  00046	5b		 pop	 ebx
  00047	8b e5		 mov	 esp, ebp
  00049	5d		 pop	 ebp
  0004a	c2 04 00	 ret	 4
?CtlCount@CManager@@QAEHPAD@Z ENDP			; CManager::CtlCount
_TEXT	ENDS
; Function compile flags: /Odtp /ZI
; File C:\Mu Online\Mu-GS-Webzen-MC-10093\GameServer\Manager.cpp
;	COMDAT ?DuelLoser@CManager@@QAEHPAD@Z
_TEXT	SEGMENT
_DuelLoser$ = -8					; size = 4
_this$ = -4						; size = 4
_Character$ = 8						; size = 4
?DuelLoser@CManager@@QAEHPAD@Z PROC			; CManager::DuelLoser, COMDAT
; _this$ = ecx

; 70   : {

  00000	55		 push	 ebp
  00001	8b ec		 mov	 ebp, esp
  00003	83 ec 48	 sub	 esp, 72			; 00000048H
  00006	53		 push	 ebx
  00007	56		 push	 esi
  00008	57		 push	 edi
  00009	89 4d fc	 mov	 DWORD PTR _this$[ebp], ecx

; 71   : 	int DuelLoser;
; 72   : 
; 73   : 	this->ExecFormat("SELECT DuelLoser from Character WHERE Name = '%s'",Character);

  0000c	8b 45 08	 mov	 eax, DWORD PTR _Character$[ebp]
  0000f	50		 push	 eax
  00010	68 00 00 00 00	 push	 OFFSET ??_C@_0DC@CNPNCAAP@SELECT?5DuelLoser?5from?5Character@
  00015	8b 4d fc	 mov	 ecx, DWORD PTR _this$[ebp]
  00018	51		 push	 ecx
  00019	e8 00 00 00 00	 call	 ?ExecFormat@CDataBase@@QAA_NPBDZZ ; CDataBase::ExecFormat
  0001e	83 c4 0c	 add	 esp, 12			; 0000000cH

; 74   : 
; 75   : 	this->Fetch( );

  00021	8b 4d fc	 mov	 ecx, DWORD PTR _this$[ebp]
  00024	e8 00 00 00 00	 call	 ?Fetch@CDataBase@@QAEFXZ ; CDataBase::Fetch

; 76   : 
; 77   : 	DuelLoser = this->GetInt("DuelLoser");

  00029	68 00 00 00 00	 push	 OFFSET ??_C@_09KMGKAJMB@DuelLoser@
  0002e	8b 4d fc	 mov	 ecx, DWORD PTR _this$[ebp]
  00031	e8 00 00 00 00	 call	 ?GetInt@CDataBase@@QAEHPBD@Z ; CDataBase::GetInt
  00036	89 45 f8	 mov	 DWORD PTR _DuelLoser$[ebp], eax

; 78   : 
; 79   : 	this->Clear( );

  00039	8b 4d fc	 mov	 ecx, DWORD PTR _this$[ebp]
  0003c	e8 00 00 00 00	 call	 ?Clear@CDataBase@@QAEXXZ ; CDataBase::Clear

; 80   : 
; 81   : 	return DuelLoser;

  00041	8b 45 f8	 mov	 eax, DWORD PTR _DuelLoser$[ebp]

; 82   : }

  00044	5f		 pop	 edi
  00045	5e		 pop	 esi
  00046	5b		 pop	 ebx
  00047	8b e5		 mov	 esp, ebp
  00049	5d		 pop	 ebp
  0004a	c2 04 00	 ret	 4
?DuelLoser@CManager@@QAEHPAD@Z ENDP			; CManager::DuelLoser
_TEXT	ENDS
; Function compile flags: /Odtp /ZI
; File C:\Mu Online\Mu-GS-Webzen-MC-10093\GameServer\Manager.cpp
;	COMDAT ?DuelWins@CManager@@QAEHPAD@Z
_TEXT	SEGMENT
_DuelWins$ = -8						; size = 4
_this$ = -4						; size = 4
_Character$ = 8						; size = 4
?DuelWins@CManager@@QAEHPAD@Z PROC			; CManager::DuelWins, COMDAT
; _this$ = ecx

; 55   : {

  00000	55		 push	 ebp
  00001	8b ec		 mov	 ebp, esp
  00003	83 ec 48	 sub	 esp, 72			; 00000048H
  00006	53		 push	 ebx
  00007	56		 push	 esi
  00008	57		 push	 edi
  00009	89 4d fc	 mov	 DWORD PTR _this$[ebp], ecx

; 56   : 	int DuelWins;
; 57   : 
; 58   : 	this->ExecFormat("SELECT DuelWins from Character WHERE Name = '%s'",Character);

  0000c	8b 45 08	 mov	 eax, DWORD PTR _Character$[ebp]
  0000f	50		 push	 eax
  00010	68 00 00 00 00	 push	 OFFSET ??_C@_0DB@FJNLOHNG@SELECT?5DuelWins?5from?5Character?5@
  00015	8b 4d fc	 mov	 ecx, DWORD PTR _this$[ebp]
  00018	51		 push	 ecx
  00019	e8 00 00 00 00	 call	 ?ExecFormat@CDataBase@@QAA_NPBDZZ ; CDataBase::ExecFormat
  0001e	83 c4 0c	 add	 esp, 12			; 0000000cH

; 59   : 
; 60   : 	this->Fetch( );

  00021	8b 4d fc	 mov	 ecx, DWORD PTR _this$[ebp]
  00024	e8 00 00 00 00	 call	 ?Fetch@CDataBase@@QAEFXZ ; CDataBase::Fetch

; 61   : 
; 62   : 	DuelWins = this->GetInt("DuelWins");

  00029	68 00 00 00 00	 push	 OFFSET ??_C@_08FCMGONIA@DuelWins@
  0002e	8b 4d fc	 mov	 ecx, DWORD PTR _this$[ebp]
  00031	e8 00 00 00 00	 call	 ?GetInt@CDataBase@@QAEHPBD@Z ; CDataBase::GetInt
  00036	89 45 f8	 mov	 DWORD PTR _DuelWins$[ebp], eax

; 63   : 
; 64   : 	this->Clear( );

  00039	8b 4d fc	 mov	 ecx, DWORD PTR _this$[ebp]
  0003c	e8 00 00 00 00	 call	 ?Clear@CDataBase@@QAEXXZ ; CDataBase::Clear

; 65   : 
; 66   : 	return DuelWins;

  00041	8b 45 f8	 mov	 eax, DWORD PTR _DuelWins$[ebp]

; 67   : }

  00044	5f		 pop	 edi
  00045	5e		 pop	 esi
  00046	5b		 pop	 ebx
  00047	8b e5		 mov	 esp, ebp
  00049	5d		 pop	 ebp
  0004a	c2 04 00	 ret	 4
?DuelWins@CManager@@QAEHPAD@Z ENDP			; CManager::DuelWins
_TEXT	ENDS
; Function compile flags: /Odtp /ZI
; File C:\Mu Online\Mu-GS-Webzen-MC-10093\GameServer\Manager.cpp
;	COMDAT ?Pshopnpc@CManager@@QAEHPAD@Z
_TEXT	SEGMENT
_Pshopnpc$ = -8						; size = 4
_this$ = -4						; size = 4
_Account$ = 8						; size = 4
?Pshopnpc@CManager@@QAEHPAD@Z PROC			; CManager::Pshopnpc, COMDAT
; _this$ = ecx

; 145  : {

  00000	55		 push	 ebp
  00001	8b ec		 mov	 ebp, esp
  00003	83 ec 48	 sub	 esp, 72			; 00000048H
  00006	53		 push	 ebx
  00007	56		 push	 esi
  00008	57		 push	 edi
  00009	89 4d fc	 mov	 DWORD PTR _this$[ebp], ecx

; 146  : 	int Pshopnpc;
; 147  : 
; 148  : 	this->ExecFormat("SELECT pshop FROM MEMB_INFO WHERE memb___id = '%s'" , Account );

  0000c	8b 45 08	 mov	 eax, DWORD PTR _Account$[ebp]
  0000f	50		 push	 eax
  00010	68 00 00 00 00	 push	 OFFSET ??_C@_0DD@PJOOADHA@SELECT?5pshop?5FROM?5MEMB_INFO?5WHE@
  00015	8b 4d fc	 mov	 ecx, DWORD PTR _this$[ebp]
  00018	51		 push	 ecx
  00019	e8 00 00 00 00	 call	 ?ExecFormat@CDataBase@@QAA_NPBDZZ ; CDataBase::ExecFormat
  0001e	83 c4 0c	 add	 esp, 12			; 0000000cH

; 149  : 
; 150  : 	this->Fetch( );

  00021	8b 4d fc	 mov	 ecx, DWORD PTR _this$[ebp]
  00024	e8 00 00 00 00	 call	 ?Fetch@CDataBase@@QAEFXZ ; CDataBase::Fetch

; 151  : 
; 152  : 	Pshopnpc = this->GetInt("pshop");

  00029	68 00 00 00 00	 push	 OFFSET ??_C@_05GJELODIF@pshop@
  0002e	8b 4d fc	 mov	 ecx, DWORD PTR _this$[ebp]
  00031	e8 00 00 00 00	 call	 ?GetInt@CDataBase@@QAEHPBD@Z ; CDataBase::GetInt
  00036	89 45 f8	 mov	 DWORD PTR _Pshopnpc$[ebp], eax

; 153  : 
; 154  : 	this->Clear( );

  00039	8b 4d fc	 mov	 ecx, DWORD PTR _this$[ebp]
  0003c	e8 00 00 00 00	 call	 ?Clear@CDataBase@@QAEXXZ ; CDataBase::Clear

; 155  : 
; 156  : 	return Pshopnpc;

  00041	8b 45 f8	 mov	 eax, DWORD PTR _Pshopnpc$[ebp]

; 157  : }

  00044	5f		 pop	 edi
  00045	5e		 pop	 esi
  00046	5b		 pop	 ebx
  00047	8b e5		 mov	 esp, ebp
  00049	5d		 pop	 ebp
  0004a	c2 04 00	 ret	 4
?Pshopnpc@CManager@@QAEHPAD@Z ENDP			; CManager::Pshopnpc
_TEXT	ENDS
; Function compile flags: /Odtp /ZI
; File C:\Mu Online\Mu-GS-Webzen-MC-10093\GameServer\Manager.cpp
;	COMDAT ?KCredits@CManager@@QAEHPAD@Z
_TEXT	SEGMENT
_Cash$ = -8						; size = 4
_this$ = -4						; size = 4
_Account$ = 8						; size = 4
?KCredits@CManager@@QAEHPAD@Z PROC			; CManager::KCredits, COMDAT
; _this$ = ecx

; 130  : {

  00000	55		 push	 ebp
  00001	8b ec		 mov	 ebp, esp
  00003	83 ec 48	 sub	 esp, 72			; 00000048H
  00006	53		 push	 ebx
  00007	56		 push	 esi
  00008	57		 push	 edi
  00009	89 4d fc	 mov	 DWORD PTR _this$[ebp], ecx

; 131  : 	int Cash;
; 132  : 
; 133  : 	this->ExecFormat("SELECT Cash FROM MEMB_INFO WHERE memb___id = '%s'" , Account );

  0000c	8b 45 08	 mov	 eax, DWORD PTR _Account$[ebp]
  0000f	50		 push	 eax
  00010	68 00 00 00 00	 push	 OFFSET ??_C@_0DC@FMIHGDKA@SELECT?5Cash?5FROM?5MEMB_INFO?5WHER@
  00015	8b 4d fc	 mov	 ecx, DWORD PTR _this$[ebp]
  00018	51		 push	 ecx
  00019	e8 00 00 00 00	 call	 ?ExecFormat@CDataBase@@QAA_NPBDZZ ; CDataBase::ExecFormat
  0001e	83 c4 0c	 add	 esp, 12			; 0000000cH

; 134  : 
; 135  : 	this->Fetch( );

  00021	8b 4d fc	 mov	 ecx, DWORD PTR _this$[ebp]
  00024	e8 00 00 00 00	 call	 ?Fetch@CDataBase@@QAEFXZ ; CDataBase::Fetch

; 136  : 
; 137  : 	Cash = this->GetInt("Cash");

  00029	68 00 00 00 00	 push	 OFFSET ??_C@_04FOIHINLL@Cash@
  0002e	8b 4d fc	 mov	 ecx, DWORD PTR _this$[ebp]
  00031	e8 00 00 00 00	 call	 ?GetInt@CDataBase@@QAEHPBD@Z ; CDataBase::GetInt
  00036	89 45 f8	 mov	 DWORD PTR _Cash$[ebp], eax

; 138  : 
; 139  : 	this->Clear( );

  00039	8b 4d fc	 mov	 ecx, DWORD PTR _this$[ebp]
  0003c	e8 00 00 00 00	 call	 ?Clear@CDataBase@@QAEXXZ ; CDataBase::Clear

; 140  : 
; 141  : 	return Cash;

  00041	8b 45 f8	 mov	 eax, DWORD PTR _Cash$[ebp]

; 142  : }

  00044	5f		 pop	 edi
  00045	5e		 pop	 esi
  00046	5b		 pop	 ebx
  00047	8b e5		 mov	 esp, ebp
  00049	5d		 pop	 ebp
  0004a	c2 04 00	 ret	 4
?KCredits@CManager@@QAEHPAD@Z ENDP			; CManager::KCredits
_TEXT	ENDS
; Function compile flags: /Odtp /ZI
; File C:\Mu Online\Mu-GS-Webzen-MC-10093\GameServer\Manager.cpp
;	COMDAT ?CountMasters@CManager@@QAEHPAD@Z
_TEXT	SEGMENT
_MResets$ = -8						; size = 4
_this$ = -4						; size = 4
_Character$ = 8						; size = 4
?CountMasters@CManager@@QAEHPAD@Z PROC			; CManager::CountMasters, COMDAT
; _this$ = ecx

; 115  : {

  00000	55		 push	 ebp
  00001	8b ec		 mov	 ebp, esp
  00003	83 ec 48	 sub	 esp, 72			; 00000048H
  00006	53		 push	 ebx
  00007	56		 push	 esi
  00008	57		 push	 edi
  00009	89 4d fc	 mov	 DWORD PTR _this$[ebp], ecx

; 116  : 	int MResets;
; 117  : 
; 118  : 	this->ExecFormat("SELECT MResets from Character WHERE Name = '%s'",Character);

  0000c	8b 45 08	 mov	 eax, DWORD PTR _Character$[ebp]
  0000f	50		 push	 eax
  00010	68 00 00 00 00	 push	 OFFSET ??_C@_0DA@DFJANKAL@SELECT?5MResets?5from?5Character?5W@
  00015	8b 4d fc	 mov	 ecx, DWORD PTR _this$[ebp]
  00018	51		 push	 ecx
  00019	e8 00 00 00 00	 call	 ?ExecFormat@CDataBase@@QAA_NPBDZZ ; CDataBase::ExecFormat
  0001e	83 c4 0c	 add	 esp, 12			; 0000000cH

; 119  : 
; 120  : 	this->Fetch( );

  00021	8b 4d fc	 mov	 ecx, DWORD PTR _this$[ebp]
  00024	e8 00 00 00 00	 call	 ?Fetch@CDataBase@@QAEFXZ ; CDataBase::Fetch

; 121  : 
; 122  : 	MResets = this->GetInt("MResets");

  00029	68 00 00 00 00	 push	 OFFSET ??_C@_07CBFGOGEK@MResets@
  0002e	8b 4d fc	 mov	 ecx, DWORD PTR _this$[ebp]
  00031	e8 00 00 00 00	 call	 ?GetInt@CDataBase@@QAEHPBD@Z ; CDataBase::GetInt
  00036	89 45 f8	 mov	 DWORD PTR _MResets$[ebp], eax

; 123  : 
; 124  : 	this->Clear( );

  00039	8b 4d fc	 mov	 ecx, DWORD PTR _this$[ebp]
  0003c	e8 00 00 00 00	 call	 ?Clear@CDataBase@@QAEXXZ ; CDataBase::Clear

; 125  : 
; 126  : 	return MResets;

  00041	8b 45 f8	 mov	 eax, DWORD PTR _MResets$[ebp]

; 127  : }

  00044	5f		 pop	 edi
  00045	5e		 pop	 esi
  00046	5b		 pop	 ebx
  00047	8b e5		 mov	 esp, ebp
  00049	5d		 pop	 ebp
  0004a	c2 04 00	 ret	 4
?CountMasters@CManager@@QAEHPAD@Z ENDP			; CManager::CountMasters
_TEXT	ENDS
; Function compile flags: /Odtp /ZI
; File C:\Mu Online\Mu-GS-Webzen-MC-10093\GameServer\Manager.cpp
;	COMDAT ?CountResets@CManager@@QAEHPAD@Z
_TEXT	SEGMENT
_Resets$ = -8						; size = 4
_this$ = -4						; size = 4
_Character$ = 8						; size = 4
?CountResets@CManager@@QAEHPAD@Z PROC			; CManager::CountResets, COMDAT
; _this$ = ecx

; 100  : {

  00000	55		 push	 ebp
  00001	8b ec		 mov	 ebp, esp
  00003	83 ec 48	 sub	 esp, 72			; 00000048H
  00006	53		 push	 ebx
  00007	56		 push	 esi
  00008	57		 push	 edi
  00009	89 4d fc	 mov	 DWORD PTR _this$[ebp], ecx

; 101  : 	int Resets;
; 102  : 
; 103  : 	this->ExecFormat("SELECT Resets from Character WHERE Name = '%s'",Character);

  0000c	8b 45 08	 mov	 eax, DWORD PTR _Character$[ebp]
  0000f	50		 push	 eax
  00010	68 00 00 00 00	 push	 OFFSET ??_C@_0CP@HOKJGNPN@SELECT?5Resets?5from?5Character?5WH@
  00015	8b 4d fc	 mov	 ecx, DWORD PTR _this$[ebp]
  00018	51		 push	 ecx
  00019	e8 00 00 00 00	 call	 ?ExecFormat@CDataBase@@QAA_NPBDZZ ; CDataBase::ExecFormat
  0001e	83 c4 0c	 add	 esp, 12			; 0000000cH

; 104  : 
; 105  : 	this->Fetch( );

  00021	8b 4d fc	 mov	 ecx, DWORD PTR _this$[ebp]
  00024	e8 00 00 00 00	 call	 ?Fetch@CDataBase@@QAEFXZ ; CDataBase::Fetch

; 106  : 
; 107  : 	Resets = this->GetInt("Resets");

  00029	68 00 00 00 00	 push	 OFFSET ??_C@_06GLIADBGB@Resets@
  0002e	8b 4d fc	 mov	 ecx, DWORD PTR _this$[ebp]
  00031	e8 00 00 00 00	 call	 ?GetInt@CDataBase@@QAEHPBD@Z ; CDataBase::GetInt
  00036	89 45 f8	 mov	 DWORD PTR _Resets$[ebp], eax

; 108  : 
; 109  : 	this->Clear( );

  00039	8b 4d fc	 mov	 ecx, DWORD PTR _this$[ebp]
  0003c	e8 00 00 00 00	 call	 ?Clear@CDataBase@@QAEXXZ ; CDataBase::Clear

; 110  : 
; 111  : 	return Resets;

  00041	8b 45 f8	 mov	 eax, DWORD PTR _Resets$[ebp]

; 112  : }

  00044	5f		 pop	 edi
  00045	5e		 pop	 esi
  00046	5b		 pop	 ebx
  00047	8b e5		 mov	 esp, ebp
  00049	5d		 pop	 ebp
  0004a	c2 04 00	 ret	 4
?CountResets@CManager@@QAEHPAD@Z ENDP			; CManager::CountResets
_TEXT	ENDS
; Function compile flags: /Odtp /ZI
; File C:\Mu Online\Mu-GS-Webzen-MC-10093\GameServer\Manager.cpp
;	COMDAT ?VipCount@CManager@@QAEHPAD@Z
_TEXT	SEGMENT
_Vip$ = -8						; size = 4
_this$ = -4						; size = 4
_Account$ = 8						; size = 4
?VipCount@CManager@@QAEHPAD@Z PROC			; CManager::VipCount, COMDAT
; _this$ = ecx

; 85   : {

  00000	55		 push	 ebp
  00001	8b ec		 mov	 ebp, esp
  00003	83 ec 48	 sub	 esp, 72			; 00000048H
  00006	53		 push	 ebx
  00007	56		 push	 esi
  00008	57		 push	 edi
  00009	89 4d fc	 mov	 DWORD PTR _this$[ebp], ecx

; 86   : 	int Vip;
; 87   : 
; 88   : 	this->ExecFormat("SELECT vip FROM MEMB_INFO WHERE memb___id = '%s'" , Account );

  0000c	8b 45 08	 mov	 eax, DWORD PTR _Account$[ebp]
  0000f	50		 push	 eax
  00010	68 00 00 00 00	 push	 OFFSET ??_C@_0DB@GHEKDPLN@SELECT?5vip?5FROM?5MEMB_INFO?5WHERE@
  00015	8b 4d fc	 mov	 ecx, DWORD PTR _this$[ebp]
  00018	51		 push	 ecx
  00019	e8 00 00 00 00	 call	 ?ExecFormat@CDataBase@@QAA_NPBDZZ ; CDataBase::ExecFormat
  0001e	83 c4 0c	 add	 esp, 12			; 0000000cH

; 89   : 
; 90   : 	this->Fetch( );

  00021	8b 4d fc	 mov	 ecx, DWORD PTR _this$[ebp]
  00024	e8 00 00 00 00	 call	 ?Fetch@CDataBase@@QAEFXZ ; CDataBase::Fetch

; 91   : 
; 92   : 	Vip = this->GetInt("vip");

  00029	68 00 00 00 00	 push	 OFFSET ??_C@_03PINGFGPK@vip@
  0002e	8b 4d fc	 mov	 ecx, DWORD PTR _this$[ebp]
  00031	e8 00 00 00 00	 call	 ?GetInt@CDataBase@@QAEHPBD@Z ; CDataBase::GetInt
  00036	89 45 f8	 mov	 DWORD PTR _Vip$[ebp], eax

; 93   : 
; 94   : 	this->Clear( );

  00039	8b 4d fc	 mov	 ecx, DWORD PTR _this$[ebp]
  0003c	e8 00 00 00 00	 call	 ?Clear@CDataBase@@QAEXXZ ; CDataBase::Clear

; 95   : 
; 96   : 	return Vip;

  00041	8b 45 f8	 mov	 eax, DWORD PTR _Vip$[ebp]

; 97   : }

  00044	5f		 pop	 edi
  00045	5e		 pop	 esi
  00046	5b		 pop	 ebx
  00047	8b e5		 mov	 esp, ebp
  00049	5d		 pop	 ebp
  0004a	c2 04 00	 ret	 4
?VipCount@CManager@@QAEHPAD@Z ENDP			; CManager::VipCount
_TEXT	ENDS
; Function compile flags: /Odtp /ZI
; File C:\Mu Online\Mu-GS-Webzen-MC-10093\GameServer\Manager.cpp
;	COMDAT ?Load@CManager@@QAE_NXZ
_TEXT	SEGMENT
_this$ = -4						; size = 4
?Load@CManager@@QAE_NXZ PROC				; CManager::Load, COMDAT
; _this$ = ecx

; 45   : {

  00000	55		 push	 ebp
  00001	8b ec		 mov	 ebp, esp
  00003	83 ec 44	 sub	 esp, 68			; 00000044H
  00006	53		 push	 ebx
  00007	56		 push	 esi
  00008	57		 push	 edi
  00009	89 4d fc	 mov	 DWORD PTR _this$[ebp], ecx

; 46   : 	GetPrivateProfileString("SQL", "User", "sa", this->User, sizeof(this->User), "..\\Data\\SQLConnect.txt");

  0000c	68 00 00 00 00	 push	 OFFSET ??_C@_0BH@NDBLLOFH@?4?4?2Data?2SQLConnect?4txt@
  00011	6a 32		 push	 50			; 00000032H
  00013	8b 45 fc	 mov	 eax, DWORD PTR _this$[ebp]
  00016	05 98 7f 00 00	 add	 eax, 32664		; 00007f98H
  0001b	50		 push	 eax
  0001c	68 00 00 00 00	 push	 OFFSET ??_C@_02CKOPKKAC@sa@
  00021	68 00 00 00 00	 push	 OFFSET ??_C@_04ODLBFFJE@User@
  00026	68 00 00 00 00	 push	 OFFSET ??_C@_03DGLBMECB@SQL@
  0002b	ff 15 00 00 00
	00		 call	 DWORD PTR __imp__GetPrivateProfileStringA@24

; 47   : 	GetPrivateProfileString("SQL", "Password", "fireteam", this->Senha, sizeof(this->Senha), "..\\Data\\SQLConnect.txt");

  00031	68 00 00 00 00	 push	 OFFSET ??_C@_0BH@NDBLLOFH@?4?4?2Data?2SQLConnect?4txt@
  00036	6a 32		 push	 50			; 00000032H
  00038	8b 45 fc	 mov	 eax, DWORD PTR _this$[ebp]
  0003b	05 ca 7f 00 00	 add	 eax, 32714		; 00007fcaH
  00040	50		 push	 eax
  00041	68 00 00 00 00	 push	 OFFSET ??_C@_08EDAJACMH@fireteam@
  00046	68 00 00 00 00	 push	 OFFSET ??_C@_08FJIAHGMM@Password@
  0004b	68 00 00 00 00	 push	 OFFSET ??_C@_03DGLBMECB@SQL@
  00050	ff 15 00 00 00
	00		 call	 DWORD PTR __imp__GetPrivateProfileStringA@24

; 48   : 	GetPrivateProfileString("SQL", "DataBase", "MuOnline", this->Database, sizeof(this->Database), "..\\Data\\SQLConnect.txt");

  00056	68 00 00 00 00	 push	 OFFSET ??_C@_0BH@NDBLLOFH@?4?4?2Data?2SQLConnect?4txt@
  0005b	6a 32		 push	 50			; 00000032H
  0005d	8b 45 fc	 mov	 eax, DWORD PTR _this$[ebp]
  00060	05 66 7f 00 00	 add	 eax, 32614		; 00007f66H
  00065	50		 push	 eax
  00066	68 00 00 00 00	 push	 OFFSET ??_C@_08BCAJKAEC@MuOnline@
  0006b	68 00 00 00 00	 push	 OFFSET ??_C@_08LCNCODBM@DataBase@
  00070	68 00 00 00 00	 push	 OFFSET ??_C@_03DGLBMECB@SQL@
  00075	ff 15 00 00 00
	00		 call	 DWORD PTR __imp__GetPrivateProfileStringA@24

; 49   : 	GetPrivateProfileString("SQL", "Host", "127.0.0.1", this->Host, sizeof(this->Host), "..\\Data\\SQLConnect.txt");

  0007b	68 00 00 00 00	 push	 OFFSET ??_C@_0BH@NDBLLOFH@?4?4?2Data?2SQLConnect?4txt@
  00080	6a 32		 push	 50			; 00000032H
  00082	8b 45 fc	 mov	 eax, DWORD PTR _this$[ebp]
  00085	05 34 7f 00 00	 add	 eax, 32564		; 00007f34H
  0008a	50		 push	 eax
  0008b	68 00 00 00 00	 push	 OFFSET ??_C@_09PFCHIMEP@127?40?40?41@
  00090	68 00 00 00 00	 push	 OFFSET ??_C@_04CPPPJGME@Host@
  00095	68 00 00 00 00	 push	 OFFSET ??_C@_03DGLBMECB@SQL@
  0009a	ff 15 00 00 00
	00		 call	 DWORD PTR __imp__GetPrivateProfileStringA@24

; 50   : 
; 51   : 	return true;

  000a0	b0 01		 mov	 al, 1

; 52   : }

  000a2	5f		 pop	 edi
  000a3	5e		 pop	 esi
  000a4	5b		 pop	 ebx
  000a5	8b e5		 mov	 esp, ebp
  000a7	5d		 pop	 ebp
  000a8	c3		 ret	 0
?Load@CManager@@QAE_NXZ ENDP				; CManager::Load
_TEXT	ENDS
; Function compile flags: /Odtp /ZI
; File C:\Mu Online\Mu-GS-Webzen-MC-10093\GameServer\Manager.cpp
;	COMDAT ?InitDatabase@CManager@@QAE_NXZ
_TEXT	SEGMENT
_Return$ = -5						; size = 1
_this$ = -4						; size = 4
?InitDatabase@CManager@@QAE_NXZ PROC			; CManager::InitDatabase, COMDAT
; _this$ = ecx

; 24   : {

  00000	55		 push	 ebp
  00001	8b ec		 mov	 ebp, esp
  00003	83 ec 48	 sub	 esp, 72			; 00000048H
  00006	53		 push	 ebx
  00007	56		 push	 esi
  00008	57		 push	 edi
  00009	89 4d fc	 mov	 DWORD PTR _this$[ebp], ecx

; 25   : 	bool Return = false;

  0000c	c6 45 fb 00	 mov	 BYTE PTR _Return$[ebp], 0

; 26   : 
; 27   : 	Manager.Load();

  00010	b9 00 00 00 00	 mov	 ecx, OFFSET ?Manager@@3VCManager@@A ; Manager
  00015	e8 00 00 00 00	 call	 ?Load@CManager@@QAE_NXZ	; CManager::Load

; 28   : 
; 29   : 	if (this->Connect(this->Host,this->Database,this->User,this->Senha) == true)

  0001a	8b 45 fc	 mov	 eax, DWORD PTR _this$[ebp]
  0001d	05 ca 7f 00 00	 add	 eax, 32714		; 00007fcaH
  00022	50		 push	 eax
  00023	8b 4d fc	 mov	 ecx, DWORD PTR _this$[ebp]
  00026	81 c1 98 7f 00
	00		 add	 ecx, 32664		; 00007f98H
  0002c	51		 push	 ecx
  0002d	8b 55 fc	 mov	 edx, DWORD PTR _this$[ebp]
  00030	81 c2 66 7f 00
	00		 add	 edx, 32614		; 00007f66H
  00036	52		 push	 edx
  00037	8b 45 fc	 mov	 eax, DWORD PTR _this$[ebp]
  0003a	05 34 7f 00 00	 add	 eax, 32564		; 00007f34H
  0003f	50		 push	 eax
  00040	8b 4d fc	 mov	 ecx, DWORD PTR _this$[ebp]
  00043	e8 00 00 00 00	 call	 ?Connect@CDataBase@@QAE_NPBD000@Z ; CDataBase::Connect
  00048	0f b6 c8	 movzx	 ecx, al
  0004b	83 f9 01	 cmp	 ecx, 1
  0004e	75 06		 jne	 SHORT $LN2@InitDataba

; 30   : 	{	
; 31   : 		Return = true;

  00050	c6 45 fb 01	 mov	 BYTE PTR _Return$[ebp], 1

; 32   : 	}

  00054	eb 24		 jmp	 SHORT $LN3@InitDataba
$LN2@InitDataba:

; 33   : 	else
; 34   : 	{
; 35   : 		MessageBox(NULL,"Conexion con SQL Server Fallo!\PorFavor Verificar el archivo 'SQLConnect.txt","Erroe en conexion con SQL Server!",MB_OK | MB_ICONSTOP);

  00056	6a 10		 push	 16			; 00000010H
  00058	68 00 00 00 00	 push	 OFFSET ??_C@_0CC@NILNCPNJ@Erroe?5en?5conexion?5con?5SQL?5Serve@
  0005d	68 00 00 00 00	 push	 OFFSET ??_C@_0EM@MOKEOBOG@Conexion?5con?5SQL?5Server?5Fallo?$CBP@
  00062	6a 00		 push	 0
  00064	ff 15 00 00 00
	00		 call	 DWORD PTR __imp__MessageBoxA@16

; 36   : 		ExitProcess(0);

  0006a	6a 00		 push	 0
  0006c	ff 15 00 00 00
	00		 call	 DWORD PTR __imp__ExitProcess@4

; 37   : 		
; 38   : 		this->DiagnosticConn();

  00072	8b 4d fc	 mov	 ecx, DWORD PTR _this$[ebp]
  00075	e8 00 00 00 00	 call	 ?DiagnosticConn@CDataBase@@QAEXXZ ; CDataBase::DiagnosticConn
$LN3@InitDataba:

; 39   : 	}
; 40   : 
; 41   : 	return Return;

  0007a	8a 45 fb	 mov	 al, BYTE PTR _Return$[ebp]
$LN4@InitDataba:

; 42   : }

  0007d	5f		 pop	 edi
  0007e	5e		 pop	 esi
  0007f	5b		 pop	 ebx
  00080	8b e5		 mov	 esp, ebp
  00082	5d		 pop	 ebp
  00083	c3		 ret	 0
?InitDatabase@CManager@@QAE_NXZ ENDP			; CManager::InitDatabase
_TEXT	ENDS
; Function compile flags: /Odtp /ZI
; File C:\Mu Online\Mu-GS-Webzen-MC-10093\GameServer\Manager.cpp
;	COMDAT ?Initialize@CManager@@QAE_NXZ
_TEXT	SEGMENT
_this$ = -4						; size = 4
?Initialize@CManager@@QAE_NXZ PROC			; CManager::Initialize, COMDAT
; _this$ = ecx

; 14   : {

  00000	55		 push	 ebp
  00001	8b ec		 mov	 ebp, esp
  00003	83 ec 44	 sub	 esp, 68			; 00000044H
  00006	53		 push	 ebx
  00007	56		 push	 esi
  00008	57		 push	 edi
  00009	89 4d fc	 mov	 DWORD PTR _this$[ebp], ecx

; 15   : 	if (!this->InitDatabase())

  0000c	8b 4d fc	 mov	 ecx, DWORD PTR _this$[ebp]
  0000f	e8 00 00 00 00	 call	 ?InitDatabase@CManager@@QAE_NXZ ; CManager::InitDatabase
  00014	0f b6 c0	 movzx	 eax, al
  00017	85 c0		 test	 eax, eax
  00019	75 04		 jne	 SHORT $LN2@Initialize

; 16   : 	{
; 17   : 		return false;

  0001b	32 c0		 xor	 al, al
  0001d	eb 02		 jmp	 SHORT $LN1@Initialize
$LN2@Initialize:

; 18   : 	}
; 19   : 
; 20   : 	return true;

  0001f	b0 01		 mov	 al, 1
$LN1@Initialize:

; 21   : }

  00021	5f		 pop	 edi
  00022	5e		 pop	 esi
  00023	5b		 pop	 ebx
  00024	8b e5		 mov	 esp, ebp
  00026	5d		 pop	 ebp
  00027	c3		 ret	 0
?Initialize@CManager@@QAE_NXZ ENDP			; CManager::Initialize
_TEXT	ENDS
; Function compile flags: /Odtp /ZI
; File C:\Mu Online\Mu-GS-Webzen-MC-10093\GameServer\Manager.cpp
;	COMDAT ??1CManager@@QAE@XZ
_TEXT	SEGMENT
_this$ = -4						; size = 4
??1CManager@@QAE@XZ PROC				; CManager::~CManager, COMDAT
; _this$ = ecx

; 10   : {

  00000	55		 push	 ebp
  00001	8b ec		 mov	 ebp, esp
  00003	83 ec 44	 sub	 esp, 68			; 00000044H
  00006	53		 push	 ebx
  00007	56		 push	 esi
  00008	57		 push	 edi
  00009	89 4d fc	 mov	 DWORD PTR _this$[ebp], ecx
  0000c	8b 45 fc	 mov	 eax, DWORD PTR _this$[ebp]
  0000f	c7 00 00 00 00
	00		 mov	 DWORD PTR [eax], OFFSET ??_7CManager@@6B@

; 11   : }

  00015	8b 4d fc	 mov	 ecx, DWORD PTR _this$[ebp]
  00018	e8 00 00 00 00	 call	 ??1CDataBase@@QAE@XZ	; CDataBase::~CDataBase
  0001d	5f		 pop	 edi
  0001e	5e		 pop	 esi
  0001f	5b		 pop	 ebx
  00020	8b e5		 mov	 esp, ebp
  00022	5d		 pop	 ebp
  00023	c3		 ret	 0
??1CManager@@QAE@XZ ENDP				; CManager::~CManager
_TEXT	ENDS
; Function compile flags: /Odtp /ZI
; File C:\Mu Online\Mu-GS-Webzen-MC-10093\GameServer\Manager.cpp
;	COMDAT ??0CManager@@QAE@XZ
_TEXT	SEGMENT
_this$ = -4						; size = 4
??0CManager@@QAE@XZ PROC				; CManager::CManager, COMDAT
; _this$ = ecx

; 6    : {

  00000	55		 push	 ebp
  00001	8b ec		 mov	 ebp, esp
  00003	83 ec 44	 sub	 esp, 68			; 00000044H
  00006	53		 push	 ebx
  00007	56		 push	 esi
  00008	57		 push	 edi
  00009	89 4d fc	 mov	 DWORD PTR _this$[ebp], ecx
  0000c	8b 4d fc	 mov	 ecx, DWORD PTR _this$[ebp]
  0000f	e8 00 00 00 00	 call	 ??0CDataBase@@QAE@XZ	; CDataBase::CDataBase
  00014	8b 45 fc	 mov	 eax, DWORD PTR _this$[ebp]
  00017	c7 00 00 00 00
	00		 mov	 DWORD PTR [eax], OFFSET ??_7CManager@@6B@

; 7    : }

  0001d	8b 45 fc	 mov	 eax, DWORD PTR _this$[ebp]
  00020	5f		 pop	 edi
  00021	5e		 pop	 esi
  00022	5b		 pop	 ebx
  00023	8b e5		 mov	 esp, ebp
  00025	5d		 pop	 ebp
  00026	c3		 ret	 0
??0CManager@@QAE@XZ ENDP				; CManager::CManager
_TEXT	ENDS
; Function compile flags: /Odtp /ZI
; File C:\Mu Online\Mu-GS-Webzen-MC-10093\GameServer\Database.h
;	COMDAT ?DiagnosticConn@CDataBase@@QAEXXZ
_TEXT	SEGMENT
_this$ = -4						; size = 4
?DiagnosticConn@CDataBase@@QAEXXZ PROC			; CDataBase::DiagnosticConn, COMDAT
; _this$ = ecx

; 85   : 	{

  00000	55		 push	 ebp
  00001	8b ec		 mov	 ebp, esp
  00003	83 ec 44	 sub	 esp, 68			; 00000044H
  00006	53		 push	 ebx
  00007	56		 push	 esi
  00008	57		 push	 edi
  00009	89 4d fc	 mov	 DWORD PTR _this$[ebp], ecx

; 86   : 		if (SQLGetDiagRec(SQL_HANDLE_DBC, m_hDbc, m_SQLErrorCount, m_SqlState, & m_NativeError, 
; 87   : 			m_szMsg, sizeof(m_szMsg), & m_MsgOutLen) != SQL_NO_DATA)

  0000c	8b 45 fc	 mov	 eax, DWORD PTR _this$[ebp]
  0000f	05 28 7f 00 00	 add	 eax, 32552		; 00007f28H
  00014	50		 push	 eax
  00015	68 f4 01 00 00	 push	 500			; 000001f4H
  0001a	8b 4d fc	 mov	 ecx, DWORD PTR _this$[ebp]
  0001d	81 c1 3c 7b 00
	00		 add	 ecx, 31548		; 00007b3cH
  00023	51		 push	 ecx
  00024	8b 55 fc	 mov	 edx, DWORD PTR _this$[ebp]
  00027	81 c2 2c 7f 00
	00		 add	 edx, 32556		; 00007f2cH
  0002d	52		 push	 edx
  0002e	8b 45 fc	 mov	 eax, DWORD PTR _this$[ebp]
  00031	05 30 7d 00 00	 add	 eax, 32048		; 00007d30H
  00036	50		 push	 eax
  00037	8b 4d fc	 mov	 ecx, DWORD PTR _this$[ebp]
  0003a	0f b7 91 24 7f
	00 00		 movzx	 edx, WORD PTR [ecx+32548]
  00041	52		 push	 edx
  00042	8b 45 fc	 mov	 eax, DWORD PTR _this$[ebp]
  00045	8b 48 10	 mov	 ecx, DWORD PTR [eax+16]
  00048	51		 push	 ecx
  00049	6a 02		 push	 2
  0004b	e8 00 00 00 00	 call	 _SQLGetDiagRec@32
  00050	0f bf d0	 movsx	 edx, ax
  00053	83 fa 64	 cmp	 edx, 100		; 00000064H
  00056	74 56		 je	 SHORT $LN2@Diagnostic

; 88   : 		{
; 89   : 			m_SQLErrorCount++;

  00058	8b 45 fc	 mov	 eax, DWORD PTR _this$[ebp]
  0005b	8b 88 24 7f 00
	00		 mov	 ecx, DWORD PTR [eax+32548]
  00061	83 c1 01	 add	 ecx, 1
  00064	8b 55 fc	 mov	 edx, DWORD PTR _this$[ebp]
  00067	89 8a 24 7f 00
	00		 mov	 DWORD PTR [edx+32548], ecx

; 90   : 
; 91   : 			memcpy(m_szTemp, m_szMsg , m_MsgOutLen);

  0006d	8b 45 fc	 mov	 eax, DWORD PTR _this$[ebp]
  00070	0f bf 88 28 7f
	00 00		 movsx	 ecx, WORD PTR [eax+32552]
  00077	51		 push	 ecx
  00078	8b 55 fc	 mov	 edx, DWORD PTR _this$[ebp]
  0007b	81 c2 3c 7b 00
	00		 add	 edx, 31548		; 00007b3cH
  00081	52		 push	 edx
  00082	8b 45 fc	 mov	 eax, DWORD PTR _this$[ebp]
  00085	05 48 79 00 00	 add	 eax, 31048		; 00007948H
  0008a	50		 push	 eax
  0008b	e8 00 00 00 00	 call	 _memcpy
  00090	83 c4 0c	 add	 esp, 12			; 0000000cH

; 92   : 
; 93   : 			OnError(m_szTemp);

  00093	8b 45 fc	 mov	 eax, DWORD PTR _this$[ebp]
  00096	05 48 79 00 00	 add	 eax, 31048		; 00007948H
  0009b	50		 push	 eax
  0009c	8b 4d fc	 mov	 ecx, DWORD PTR _this$[ebp]
  0009f	8b 11		 mov	 edx, DWORD PTR [ecx]
  000a1	8b 45 fc	 mov	 eax, DWORD PTR _this$[ebp]
  000a4	50		 push	 eax
  000a5	8b 0a		 mov	 ecx, DWORD PTR [edx]
  000a7	ff d1		 call	 ecx
  000a9	83 c4 08	 add	 esp, 8

; 94   : 		}

  000ac	eb 0d		 jmp	 SHORT $LN3@Diagnostic
$LN2@Diagnostic:

; 95   : 		else m_SQLErrorCount = 1;

  000ae	8b 45 fc	 mov	 eax, DWORD PTR _this$[ebp]
  000b1	c7 80 24 7f 00
	00 01 00 00 00	 mov	 DWORD PTR [eax+32548], 1
$LN3@Diagnostic:

; 96   : 
; 97   : 		if (strcmp((LPCTSTR)m_SqlState, "08S01") == 0 )

  000bb	68 00 00 00 00	 push	 OFFSET ??_C@_05OAJIOINI@08S01@
  000c0	8b 45 fc	 mov	 eax, DWORD PTR _this$[ebp]
  000c3	05 30 7d 00 00	 add	 eax, 32048		; 00007d30H
  000c8	50		 push	 eax
  000c9	e8 00 00 00 00	 call	 _strcmp
  000ce	83 c4 08	 add	 esp, 8
  000d1	85 c0		 test	 eax, eax
  000d3	75 08		 jne	 SHORT $LN1@Diagnostic

; 98   : 		{
; 99   : 			Reconnect();

  000d5	8b 4d fc	 mov	 ecx, DWORD PTR _this$[ebp]
  000d8	e8 00 00 00 00	 call	 ?Reconnect@CDataBase@@QAE_NXZ ; CDataBase::Reconnect
$LN1@Diagnostic:

; 100  : 		}
; 101  : 	};

  000dd	5f		 pop	 edi
  000de	5e		 pop	 esi
  000df	5b		 pop	 ebx
  000e0	8b e5		 mov	 esp, ebp
  000e2	5d		 pop	 ebp
  000e3	c3		 ret	 0
?DiagnosticConn@CDataBase@@QAEXXZ ENDP			; CDataBase::DiagnosticConn
_TEXT	ENDS
; Function compile flags: /Odtp /ZI
; File C:\Mu Online\Mu-GS-Webzen-MC-10093\GameServer\Database.h
;	COMDAT ?OnMessage@CDataBase@@UAAXPBDZZ
_TEXT	SEGMENT
_this$ = 8						; size = 4
_szMessage$ = 12					; size = 4
?OnMessage@CDataBase@@UAAXPBDZZ PROC			; CDataBase::OnMessage, COMDAT

; 63   : 	virtual void OnMessage(const char * szMessage, ...){};

  00000	55		 push	 ebp
  00001	8b ec		 mov	 ebp, esp
  00003	83 ec 40	 sub	 esp, 64			; 00000040H
  00006	53		 push	 ebx
  00007	56		 push	 esi
  00008	57		 push	 edi
  00009	5f		 pop	 edi
  0000a	5e		 pop	 esi
  0000b	5b		 pop	 ebx
  0000c	8b e5		 mov	 esp, ebp
  0000e	5d		 pop	 ebp
  0000f	c3		 ret	 0
?OnMessage@CDataBase@@UAAXPBDZZ ENDP			; CDataBase::OnMessage
_TEXT	ENDS
; Function compile flags: /Odtp /ZI
; File C:\Mu Online\Mu-GS-Webzen-MC-10093\GameServer\Database.h
;	COMDAT ?OnQuery@CDataBase@@UAAXPBDZZ
_TEXT	SEGMENT
_this$ = 8						; size = 4
_szMessage$ = 12					; size = 4
?OnQuery@CDataBase@@UAAXPBDZZ PROC			; CDataBase::OnQuery, COMDAT

; 62   : 	virtual	void OnQuery(const char * szMessage, ...){};

  00000	55		 push	 ebp
  00001	8b ec		 mov	 ebp, esp
  00003	83 ec 40	 sub	 esp, 64			; 00000040H
  00006	53		 push	 ebx
  00007	56		 push	 esi
  00008	57		 push	 edi
  00009	5f		 pop	 edi
  0000a	5e		 pop	 esi
  0000b	5b		 pop	 ebx
  0000c	8b e5		 mov	 esp, ebp
  0000e	5d		 pop	 ebp
  0000f	c3		 ret	 0
?OnQuery@CDataBase@@UAAXPBDZZ ENDP			; CDataBase::OnQuery
_TEXT	ENDS
; Function compile flags: /Odtp /ZI
; File C:\Mu Online\Mu-GS-Webzen-MC-10093\GameServer\Database.h
;	COMDAT ?OnError@CDataBase@@UAAXPBDZZ
_TEXT	SEGMENT
_this$ = 8						; size = 4
_szMessage$ = 12					; size = 4
?OnError@CDataBase@@UAAXPBDZZ PROC			; CDataBase::OnError, COMDAT

; 61   : 	virtual	void OnError(const char * szMessage, ...){};

  00000	55		 push	 ebp
  00001	8b ec		 mov	 ebp, esp
  00003	83 ec 40	 sub	 esp, 64			; 00000040H
  00006	53		 push	 ebx
  00007	56		 push	 esi
  00008	57		 push	 edi
  00009	5f		 pop	 edi
  0000a	5e		 pop	 esi
  0000b	5b		 pop	 ebx
  0000c	8b e5		 mov	 esp, ebp
  0000e	5d		 pop	 ebp
  0000f	c3		 ret	 0
?OnError@CDataBase@@UAAXPBDZZ ENDP			; CDataBase::OnError
_TEXT	ENDS
; Function compile flags: /Odtp /ZI
; File C:\Mu Online\Mu-GS-Webzen-MC-10093\GameServer\Database.h
;	COMDAT ?Clear@CDataBase@@QAEXXZ
_TEXT	SEGMENT
_this$ = -4						; size = 4
?Clear@CDataBase@@QAEXXZ PROC				; CDataBase::Clear, COMDAT
; _this$ = ecx

; 59   : 	void		inline Clear( ){ SQLCloseCursor( m_hStmt ) ; SQLFreeStmt( m_hStmt , SQL_CLOSE ); };

  00000	55		 push	 ebp
  00001	8b ec		 mov	 ebp, esp
  00003	83 ec 44	 sub	 esp, 68			; 00000044H
  00006	53		 push	 ebx
  00007	56		 push	 esi
  00008	57		 push	 edi
  00009	89 4d fc	 mov	 DWORD PTR _this$[ebp], ecx
  0000c	8b 45 fc	 mov	 eax, DWORD PTR _this$[ebp]
  0000f	8b 48 14	 mov	 ecx, DWORD PTR [eax+20]
  00012	51		 push	 ecx
  00013	e8 00 00 00 00	 call	 _SQLCloseCursor@4
  00018	6a 00		 push	 0
  0001a	8b 45 fc	 mov	 eax, DWORD PTR _this$[ebp]
  0001d	8b 48 14	 mov	 ecx, DWORD PTR [eax+20]
  00020	51		 push	 ecx
  00021	e8 00 00 00 00	 call	 _SQLFreeStmt@8
  00026	5f		 pop	 edi
  00027	5e		 pop	 esi
  00028	5b		 pop	 ebx
  00029	8b e5		 mov	 esp, ebp
  0002b	5d		 pop	 ebp
  0002c	c3		 ret	 0
?Clear@CDataBase@@QAEXXZ ENDP				; CDataBase::Clear
_TEXT	ENDS
; Function compile flags: /Odtp /ZI
; File C:\Mu Online\Mu-GS-Webzen-MC-10093\GameServer\Database.h
;	COMDAT ?Fetch@CDataBase@@QAEFXZ
_TEXT	SEGMENT
_this$ = -4						; size = 4
?Fetch@CDataBase@@QAEFXZ PROC				; CDataBase::Fetch, COMDAT
; _this$ = ecx

; 58   : 	SQLRETURN	inline Fetch( ){ return SQLFetch( m_hStmt ); };

  00000	55		 push	 ebp
  00001	8b ec		 mov	 ebp, esp
  00003	83 ec 44	 sub	 esp, 68			; 00000044H
  00006	53		 push	 ebx
  00007	56		 push	 esi
  00008	57		 push	 edi
  00009	89 4d fc	 mov	 DWORD PTR _this$[ebp], ecx
  0000c	8b 45 fc	 mov	 eax, DWORD PTR _this$[ebp]
  0000f	8b 48 14	 mov	 ecx, DWORD PTR [eax+20]
  00012	51		 push	 ecx
  00013	e8 00 00 00 00	 call	 _SQLFetch@4
  00018	5f		 pop	 edi
  00019	5e		 pop	 esi
  0001a	5b		 pop	 ebx
  0001b	8b e5		 mov	 esp, ebp
  0001d	5d		 pop	 ebp
  0001e	c3		 ret	 0
?Fetch@CDataBase@@QAEFXZ ENDP				; CDataBase::Fetch
_TEXT	ENDS
; Function compile flags: /Odtp /ZI
; File C:\Mu Online\Mu-GS-Webzen-MC-10093\GameServer\Manager.cpp
;	COMDAT ?__empty_global_delete@@YAXPAXI@Z
_TEXT	SEGMENT
___formal$ = 8						; size = 4
___formal$ = 12						; size = 4
?__empty_global_delete@@YAXPAXI@Z PROC			; __empty_global_delete, COMDAT

  00000	55		 push	 ebp
  00001	8b ec		 mov	 ebp, esp
  00003	83 ec 40	 sub	 esp, 64			; 00000040H
  00006	53		 push	 ebx
  00007	56		 push	 esi
  00008	57		 push	 edi
  00009	5f		 pop	 edi
  0000a	5e		 pop	 esi
  0000b	5b		 pop	 ebx
  0000c	8b e5		 mov	 esp, ebp
  0000e	5d		 pop	 ebp
  0000f	c3		 ret	 0
?__empty_global_delete@@YAXPAXI@Z ENDP			; __empty_global_delete
_TEXT	ENDS
; Function compile flags: /Odtp /ZI
; File C:\Mu Online\Mu-GS-Webzen-MC-10093\GameServer\Manager.cpp
;	COMDAT ?__empty_global_delete@@YAXPAX@Z
_TEXT	SEGMENT
___formal$ = 8						; size = 4
?__empty_global_delete@@YAXPAX@Z PROC			; __empty_global_delete, COMDAT

  00000	55		 push	 ebp
  00001	8b ec		 mov	 ebp, esp
  00003	83 ec 40	 sub	 esp, 64			; 00000040H
  00006	53		 push	 ebx
  00007	56		 push	 esi
  00008	57		 push	 edi
  00009	5f		 pop	 edi
  0000a	5e		 pop	 esi
  0000b	5b		 pop	 ebx
  0000c	8b e5		 mov	 esp, ebp
  0000e	5d		 pop	 ebp
  0000f	c3		 ret	 0
?__empty_global_delete@@YAXPAX@Z ENDP			; __empty_global_delete
_TEXT	ENDS
END
