; Listing generated by Microsoft (R) Optimizing Compiler Version 19.27.29111.0 

	TITLE	C:\Mu Online\Mu-GS-Webzen-MC-10093\GameServer\MapItem.cpp
	.686P
	.XMM
	include listing.inc
	.model	flat

INCLUDELIB LIBCMT
INCLUDELIB OLDNAMES

PUBLIC	?__empty_global_delete@@YAXPAX@Z		; __empty_global_delete
PUBLIC	?__empty_global_delete@@YAXPAXI@Z		; __empty_global_delete
PUBLIC	??0CMapItem@@QAE@XZ				; CMapItem::CMapItem
PUBLIC	??1CMapItem@@UAE@XZ				; CMapItem::~CMapItem
PUBLIC	?Init@CMapItem@@QAEXXZ				; CMapItem::Init
PUBLIC	?CreateItem@CMapItem@@QAEXHHHHMEEEEEK@Z		; CMapItem::CreateItem
PUBLIC	?DropCreateItem@CMapItem@@QAEXHHHHMEEEEEKHH@Z	; CMapItem::DropCreateItem
PUBLIC	??_GCMapItem@@UAEPAXI@Z				; CMapItem::`scalar deleting destructor'
PUBLIC	??_7CMapItem@@6B@				; CMapItem::`vftable'
PUBLIC	??_R4CMapItem@@6B@				; CMapItem::`RTTI Complete Object Locator'
PUBLIC	??_R0?AVCMapItem@@@8				; CMapItem `RTTI Type Descriptor'
PUBLIC	??_R3CMapItem@@8				; CMapItem::`RTTI Class Hierarchy Descriptor'
PUBLIC	??_R2CMapItem@@8				; CMapItem::`RTTI Base Class Array'
PUBLIC	??_R1A@?0A@EA@CMapItem@@8			; CMapItem::`RTTI Base Class Descriptor at (0,-1,0,64)'
PUBLIC	??_R13?0A@EA@CItem@@8				; CItem::`RTTI Base Class Descriptor at (4,-1,0,64)'
PUBLIC	??_R0?AVCItem@@@8				; CItem `RTTI Type Descriptor'
PUBLIC	??_R3CItem@@8					; CItem::`RTTI Class Hierarchy Descriptor'
PUBLIC	??_R2CItem@@8					; CItem::`RTTI Base Class Array'
PUBLIC	??_R1A@?0A@EA@CItem@@8				; CItem::`RTTI Base Class Descriptor at (0,-1,0,64)'
EXTRN	??3@YAXPAXI@Z:PROC				; operator delete
EXTRN	_memset:PROC
EXTRN	__imp__GetTickCount@0:PROC
EXTRN	??0CItem@@QAE@XZ:PROC				; CItem::CItem
EXTRN	?Convert@CItem@@QAEXHEEEEEE@Z:PROC		; CItem::Convert
EXTRN	?SetPetItemInfo@CItem@@QAEXHH@Z:PROC		; CItem::SetPetItemInfo
EXTRN	??_ECMapItem@@UAEPAXI@Z:PROC			; CMapItem::`vector deleting destructor'
EXTRN	?MakeItemNumber@@YAHHH@Z:PROC			; MakeItemNumber
EXTRN	??_7type_info@@6B@:QWORD			; type_info::`vftable'
EXTRN	?gLootingTime@@3HA:DWORD			; gLootingTime
EXTRN	__fltused:DWORD
;	COMDAT ??_R1A@?0A@EA@CItem@@8
rdata$r	SEGMENT
??_R1A@?0A@EA@CItem@@8 DD FLAT:??_R0?AVCItem@@@8	; CItem::`RTTI Base Class Descriptor at (0,-1,0,64)'
	DD	00H
	DD	00H
	DD	0ffffffffH
	DD	00H
	DD	040H
	DD	FLAT:??_R3CItem@@8
rdata$r	ENDS
;	COMDAT ??_R2CItem@@8
rdata$r	SEGMENT
??_R2CItem@@8 DD FLAT:??_R1A@?0A@EA@CItem@@8		; CItem::`RTTI Base Class Array'
rdata$r	ENDS
;	COMDAT ??_R3CItem@@8
rdata$r	SEGMENT
??_R3CItem@@8 DD 00H					; CItem::`RTTI Class Hierarchy Descriptor'
	DD	00H
	DD	01H
	DD	FLAT:??_R2CItem@@8
rdata$r	ENDS
;	COMDAT ??_R0?AVCItem@@@8
data$r	SEGMENT
??_R0?AVCItem@@@8 DD FLAT:??_7type_info@@6B@		; CItem `RTTI Type Descriptor'
	DD	00H
	DB	'.?AVCItem@@', 00H
data$r	ENDS
;	COMDAT ??_R13?0A@EA@CItem@@8
rdata$r	SEGMENT
??_R13?0A@EA@CItem@@8 DD FLAT:??_R0?AVCItem@@@8		; CItem::`RTTI Base Class Descriptor at (4,-1,0,64)'
	DD	00H
	DD	04H
	DD	0ffffffffH
	DD	00H
	DD	040H
	DD	FLAT:??_R3CItem@@8
rdata$r	ENDS
;	COMDAT ??_R1A@?0A@EA@CMapItem@@8
rdata$r	SEGMENT
??_R1A@?0A@EA@CMapItem@@8 DD FLAT:??_R0?AVCMapItem@@@8	; CMapItem::`RTTI Base Class Descriptor at (0,-1,0,64)'
	DD	01H
	DD	00H
	DD	0ffffffffH
	DD	00H
	DD	040H
	DD	FLAT:??_R3CMapItem@@8
rdata$r	ENDS
;	COMDAT ??_R2CMapItem@@8
rdata$r	SEGMENT
??_R2CMapItem@@8 DD FLAT:??_R1A@?0A@EA@CMapItem@@8	; CMapItem::`RTTI Base Class Array'
	DD	FLAT:??_R13?0A@EA@CItem@@8
rdata$r	ENDS
;	COMDAT ??_R3CMapItem@@8
rdata$r	SEGMENT
??_R3CMapItem@@8 DD 00H					; CMapItem::`RTTI Class Hierarchy Descriptor'
	DD	00H
	DD	02H
	DD	FLAT:??_R2CMapItem@@8
rdata$r	ENDS
;	COMDAT ??_R0?AVCMapItem@@@8
data$r	SEGMENT
??_R0?AVCMapItem@@@8 DD FLAT:??_7type_info@@6B@		; CMapItem `RTTI Type Descriptor'
	DD	00H
	DB	'.?AVCMapItem@@', 00H
data$r	ENDS
;	COMDAT ??_R4CMapItem@@6B@
rdata$r	SEGMENT
??_R4CMapItem@@6B@ DD 00H				; CMapItem::`RTTI Complete Object Locator'
	DD	00H
	DD	00H
	DD	FLAT:??_R0?AVCMapItem@@@8
	DD	FLAT:??_R3CMapItem@@8
rdata$r	ENDS
;	COMDAT ??_7CMapItem@@6B@
CONST	SEGMENT
??_7CMapItem@@6B@ DD FLAT:??_R4CMapItem@@6B@		; CMapItem::`vftable'
	DD	FLAT:??_ECMapItem@@UAEPAXI@Z
CONST	ENDS
; Function compile flags: /Odtp /ZI
;	COMDAT ??_GCMapItem@@UAEPAXI@Z
_TEXT	SEGMENT
_this$ = -4						; size = 4
___flags$ = 8						; size = 4
??_GCMapItem@@UAEPAXI@Z PROC				; CMapItem::`scalar deleting destructor', COMDAT
; _this$ = ecx
  00000	55		 push	 ebp
  00001	8b ec		 mov	 ebp, esp
  00003	83 ec 44	 sub	 esp, 68			; 00000044H
  00006	53		 push	 ebx
  00007	56		 push	 esi
  00008	57		 push	 edi
  00009	89 4d fc	 mov	 DWORD PTR _this$[ebp], ecx
  0000c	8b 4d fc	 mov	 ecx, DWORD PTR _this$[ebp]
  0000f	e8 00 00 00 00	 call	 ??1CMapItem@@UAE@XZ	; CMapItem::~CMapItem
  00014	8b 45 08	 mov	 eax, DWORD PTR ___flags$[ebp]
  00017	83 e0 01	 and	 eax, 1
  0001a	74 11		 je	 SHORT $LN2@scalar
  0001c	68 48 04 00 00	 push	 1096			; 00000448H
  00021	8b 45 fc	 mov	 eax, DWORD PTR _this$[ebp]
  00024	50		 push	 eax
  00025	e8 00 00 00 00	 call	 ??3@YAXPAXI@Z		; operator delete
  0002a	83 c4 08	 add	 esp, 8
$LN2@scalar:
  0002d	8b 45 fc	 mov	 eax, DWORD PTR _this$[ebp]
  00030	5f		 pop	 edi
  00031	5e		 pop	 esi
  00032	5b		 pop	 ebx
  00033	8b e5		 mov	 esp, ebp
  00035	5d		 pop	 ebp
  00036	c2 04 00	 ret	 4
??_GCMapItem@@UAEPAXI@Z ENDP				; CMapItem::`scalar deleting destructor'
_TEXT	ENDS
; Function compile flags: /Odtp /ZI
; File C:\Mu Online\Mu-GS-Webzen-MC-10093\GameServer\MapItem.cpp
;	COMDAT ?DropCreateItem@CMapItem@@QAEXHHHHMEEEEEKHH@Z
_TEXT	SEGMENT
tv181 = -76						; size = 4
tv182 = -72						; size = 4
_this$ = -4						; size = 4
_type$ = 8						; size = 4
_level$ = 12						; size = 4
_x$ = 16						; size = 4
_y$ = 20						; size = 4
_dur$ = 24						; size = 4
_Option1$ = 28						; size = 1
_Option2$ = 32						; size = 1
_Option3$ = 36						; size = 1
_NOption$ = 40						; size = 1
_SOption$ = 44						; size = 1
_number$ = 48						; size = 4
_PetLevel$ = 52						; size = 4
_PetExp$ = 56						; size = 4
?DropCreateItem@CMapItem@@QAEXHHHHMEEEEEKHH@Z PROC	; CMapItem::DropCreateItem, COMDAT
; _this$ = ecx

; 120  : {

  00000	55		 push	 ebp
  00001	8b ec		 mov	 ebp, esp
  00003	83 ec 4c	 sub	 esp, 76			; 0000004cH
  00006	53		 push	 ebx
  00007	56		 push	 esi
  00008	57		 push	 edi
  00009	89 4d fc	 mov	 DWORD PTR _this$[ebp], ecx

; 121  : 	Init();

  0000c	8b 4d fc	 mov	 ecx, DWORD PTR _this$[ebp]
  0000f	e8 00 00 00 00	 call	 ?Init@CMapItem@@QAEXXZ	; CMapItem::Init

; 122  : 	m_Level = level;

  00014	8b 45 fc	 mov	 eax, DWORD PTR _this$[ebp]
  00017	66 8b 4d 0c	 mov	 cx, WORD PTR _level$[ebp]
  0001b	66 89 48 0c	 mov	 WORD PTR [eax+12], cx

; 123  : 	m_Durability = dur;

  0001f	8b 45 fc	 mov	 eax, DWORD PTR _this$[ebp]
  00022	f3 0f 10 45 18	 movss	 xmm0, DWORD PTR _dur$[ebp]
  00027	f3 0f 11 40 28	 movss	 DWORD PTR [eax+40], xmm0

; 124  : 
; 125  : #ifdef ADD_ITEM_SOCKET_OPTION_EXTEND_20080422
; 126  : 	Convert(type, Option1,Option2,Option3, NOption, SOption, ItemEffectEx, SocketOption, SocketBonusOpion );
; 127  : #else
; 128  : 	#ifdef ADD_380ITEM_NEWOPTION_20060711
; 129  : 		Convert(type, Option1,Option2,Option3, NOption, SOption, ItemEffectEx);
; 130  : 	#else
; 131  : 		Convert(type, Option1,Option2,Option3, NOption, SOption);

  0002c	6a 01		 push	 1
  0002e	0f b6 45 2c	 movzx	 eax, BYTE PTR _SOption$[ebp]
  00032	50		 push	 eax
  00033	0f b6 4d 28	 movzx	 ecx, BYTE PTR _NOption$[ebp]
  00037	51		 push	 ecx
  00038	0f b6 55 24	 movzx	 edx, BYTE PTR _Option3$[ebp]
  0003c	52		 push	 edx
  0003d	0f b6 45 20	 movzx	 eax, BYTE PTR _Option2$[ebp]
  00041	50		 push	 eax
  00042	0f b6 4d 1c	 movzx	 ecx, BYTE PTR _Option1$[ebp]
  00046	51		 push	 ecx
  00047	8b 55 08	 mov	 edx, DWORD PTR _type$[ebp]
  0004a	52		 push	 edx
  0004b	8b 4d fc	 mov	 ecx, DWORD PTR _this$[ebp]
  0004e	83 c1 04	 add	 ecx, 4
  00051	e8 00 00 00 00	 call	 ?Convert@CItem@@QAEXHEEEEEE@Z ; CItem::Convert

; 132  : 	#endif //ADD_380ITEM_NEWOPTION_20060711
; 133  : #endif // ADD_ITEM_SOCKET_OPTION_EXTEND_20080422
; 134  : 
; 135  : #ifdef DARKLORD_WORK
; 136  : 	SetPetItemInfo(PetLevel, PetExp);

  00056	8b 45 38	 mov	 eax, DWORD PTR _PetExp$[ebp]
  00059	50		 push	 eax
  0005a	8b 4d 34	 mov	 ecx, DWORD PTR _PetLevel$[ebp]
  0005d	51		 push	 ecx
  0005e	8b 4d fc	 mov	 ecx, DWORD PTR _this$[ebp]
  00061	83 c1 04	 add	 ecx, 4
  00064	e8 00 00 00 00	 call	 ?SetPetItemInfo@CItem@@QAEXHH@Z ; CItem::SetPetItemInfo

; 137  : #endif
; 138  : 
; 139  : 	px      = x;

  00069	8b 45 fc	 mov	 eax, DWORD PTR _this$[ebp]
  0006c	8a 4d 10	 mov	 cl, BYTE PTR _x$[ebp]
  0006f	88 88 ac 00 00
	00		 mov	 BYTE PTR [eax+172], cl

; 140  : 	py      = y;

  00075	8b 45 fc	 mov	 eax, DWORD PTR _this$[ebp]
  00078	8a 4d 14	 mov	 cl, BYTE PTR _y$[ebp]
  0007b	88 88 ad 00 00
	00		 mov	 BYTE PTR [eax+173], cl

; 141  : 	live    = 1;

  00081	8b 45 fc	 mov	 eax, DWORD PTR _this$[ebp]
  00084	c6 80 ae 00 00
	00 01		 mov	 BYTE PTR [eax+174], 1

; 142  : 	Give	= 0;

  0008b	8b 45 fc	 mov	 eax, DWORD PTR _this$[ebp]
  0008e	c6 80 af 00 00
	00 00		 mov	 BYTE PTR [eax+175], 0

; 143  : 	m_State	= OBJST_CREATE;

  00095	8b 45 fc	 mov	 eax, DWORD PTR _this$[ebp]
  00098	c7 80 b0 00 00
	00 01 00 00 00	 mov	 DWORD PTR [eax+176], 1

; 144  : 
; 145  : #ifdef NEW_SKILL_FORSKYLAND
; 146  : 	if( m_QuestItem )

  000a2	8b 45 fc	 mov	 eax, DWORD PTR _this$[ebp]
  000a5	0f b6 88 95 00
	00 00		 movzx	 ecx, BYTE PTR [eax+149]
  000ac	85 c9		 test	 ecx, ecx
  000ae	74 5a		 je	 SHORT $LN2@DropCreate

; 147  : 	{
; 148  : 		if( type == MAKE_ITEMNUM(14,11) )

  000b0	6a 0b		 push	 11			; 0000000bH
  000b2	6a 0e		 push	 14			; 0000000eH
  000b4	e8 00 00 00 00	 call	 ?MakeItemNumber@@YAHHH@Z ; MakeItemNumber
  000b9	83 c4 08	 add	 esp, 8
  000bc	39 45 08	 cmp	 DWORD PTR _type$[ebp], eax
  000bf	75 16		 jne	 SHORT $LN4@DropCreate

; 149  : 		{
; 150  : #ifdef FOR_ONAIR
; 151  : 			m_Time  = GetTickCount()+((1000*60*60*2));
; 152  : #else
; 153  : 			m_Time  = GetTickCount()+((1000*1));

  000c1	ff 15 00 00 00
	00		 call	 DWORD PTR __imp__GetTickCount@0
  000c7	05 e8 03 00 00	 add	 eax, 1000		; 000003e8H
  000cc	8b 4d fc	 mov	 ecx, DWORD PTR _this$[ebp]
  000cf	89 81 b4 00 00
	00		 mov	 DWORD PTR [ecx+180], eax

; 154  : #endif
; 155  : 		}

  000d5	eb 14		 jmp	 SHORT $LN5@DropCreate
$LN4@DropCreate:

; 156  : 		else m_Time  = GetTickCount()+((1000*60)*1);

  000d7	ff 15 00 00 00
	00		 call	 DWORD PTR __imp__GetTickCount@0
  000dd	05 60 ea 00 00	 add	 eax, 60000		; 0000ea60H
  000e2	8b 4d fc	 mov	 ecx, DWORD PTR _this$[ebp]
  000e5	89 81 b4 00 00
	00		 mov	 DWORD PTR [ecx+180], eax
$LN5@DropCreate:

; 157  : 		m_LootTime	= GetTickCount()+((1000*60)*10);

  000eb	ff 15 00 00 00
	00		 call	 DWORD PTR __imp__GetTickCount@0
  000f1	05 c0 27 09 00	 add	 eax, 600000		; 000927c0H
  000f6	8b 4d fc	 mov	 ecx, DWORD PTR _this$[ebp]
  000f9	89 81 bc 00 00
	00		 mov	 DWORD PTR [ecx+188], eax

; 158  : 		m_Number = number;

  000ff	8b 45 fc	 mov	 eax, DWORD PTR _this$[ebp]
  00102	8b 4d 30	 mov	 ecx, DWORD PTR _number$[ebp]
  00105	89 48 04	 mov	 DWORD PTR [eax+4], ecx

; 159  : 	}

  00108	eb 5f		 jmp	 SHORT $LN3@DropCreate
$LN2@DropCreate:

; 160  : 	else
; 161  : 	{
; 162  : 		if( type == MAKE_ITEMNUM(14,11) )

  0010a	6a 0b		 push	 11			; 0000000bH
  0010c	6a 0e		 push	 14			; 0000000eH
  0010e	e8 00 00 00 00	 call	 ?MakeItemNumber@@YAHHH@Z ; MakeItemNumber
  00113	83 c4 08	 add	 esp, 8
  00116	39 45 08	 cmp	 DWORD PTR _type$[ebp], eax
  00119	75 16		 jne	 SHORT $LN6@DropCreate

; 163  : 		{
; 164  : #ifdef FOR_ONAIR
; 165  : 			m_Time  = GetTickCount()+((1000*60*60*2));
; 166  : #else
; 167  : 			m_Time  = GetTickCount()+((1000*1));

  0011b	ff 15 00 00 00
	00		 call	 DWORD PTR __imp__GetTickCount@0
  00121	05 e8 03 00 00	 add	 eax, 1000		; 000003e8H
  00126	8b 4d fc	 mov	 ecx, DWORD PTR _this$[ebp]
  00129	89 81 b4 00 00
	00		 mov	 DWORD PTR [ecx+180], eax

; 168  : #endif
; 169  : 		}

  0012f	eb 14		 jmp	 SHORT $LN7@DropCreate
$LN6@DropCreate:

; 170  : 		else m_Time  = GetTickCount()+((1000*60)*2);

  00131	ff 15 00 00 00
	00		 call	 DWORD PTR __imp__GetTickCount@0
  00137	05 c0 d4 01 00	 add	 eax, 120000		; 0001d4c0H
  0013c	8b 4d fc	 mov	 ecx, DWORD PTR _this$[ebp]
  0013f	89 81 b4 00 00
	00		 mov	 DWORD PTR [ecx+180], eax
$LN7@DropCreate:

; 171  : 		m_LootTime	= GetTickCount()+(1000*gLootingTime);

  00145	ff 15 00 00 00
	00		 call	 DWORD PTR __imp__GetTickCount@0
  0014b	69 0d 00 00 00
	00 e8 03 00 00	 imul	 ecx, DWORD PTR ?gLootingTime@@3HA, 1000 ; gLootingTime
  00155	03 c1		 add	 eax, ecx
  00157	8b 55 fc	 mov	 edx, DWORD PTR _this$[ebp]
  0015a	89 82 bc 00 00
	00		 mov	 DWORD PTR [edx+188], eax

; 172  : 		m_Number = number;

  00160	8b 45 fc	 mov	 eax, DWORD PTR _this$[ebp]
  00163	8b 4d 30	 mov	 ecx, DWORD PTR _number$[ebp]
  00166	89 48 04	 mov	 DWORD PTR [eax+4], ecx
$LN3@DropCreate:

; 173  : 	}
; 174  : #else
; 175  : 	if( type == MAKE_ITEMNUM(14,11) )
; 176  : 	{
; 177  : #ifdef FOR_ONAIR
; 178  : 			m_Time  = GetTickCount()+((1000*60*60*2));
; 179  : #else
; 180  : 			m_Time  = GetTickCount()+((1000*1));
; 181  : #endif
; 182  : 	}
; 183  : 	else m_Time  = GetTickCount()+((1000*60)*2);
; 184  : 	m_LootTime	= GetTickCount()+(1000*gLootingTime);
; 185  : 	m_Number = number;
; 186  : #endif
; 187  : 
; 188  : #ifdef FOR_BLOODCASTLE
; 189  : 	if (type == MAKE_ITEMNUM(13, 19)) {

  00169	6a 13		 push	 19			; 00000013H
  0016b	6a 0d		 push	 13			; 0000000dH
  0016d	e8 00 00 00 00	 call	 ?MakeItemNumber@@YAHHH@Z ; MakeItemNumber
  00172	83 c4 08	 add	 esp, 8
  00175	39 45 08	 cmp	 DWORD PTR _type$[ebp], eax
  00178	75 54		 jne	 SHORT $LN9@DropCreate

; 190  : 		if (CHECK_LIMIT(level, 3)) {

  0017a	83 7d 0c 00	 cmp	 DWORD PTR _level$[ebp], 0
  0017e	7d 09		 jge	 SHORT $LN13@DropCreate
  00180	c7 45 b8 00 00
	00 00		 mov	 DWORD PTR tv182[ebp], 0
  00187	eb 1c		 jmp	 SHORT $LN14@DropCreate
$LN13@DropCreate:
  00189	83 7d 0c 02	 cmp	 DWORD PTR _level$[ebp], 2
  0018d	7e 09		 jle	 SHORT $LN11@DropCreate
  0018f	c7 45 b4 00 00
	00 00		 mov	 DWORD PTR tv181[ebp], 0
  00196	eb 07		 jmp	 SHORT $LN12@DropCreate
$LN11@DropCreate:
  00198	c7 45 b4 01 00
	00 00		 mov	 DWORD PTR tv181[ebp], 1
$LN12@DropCreate:
  0019f	8b 45 b4	 mov	 eax, DWORD PTR tv181[ebp]
  001a2	89 45 b8	 mov	 DWORD PTR tv182[ebp], eax
$LN14@DropCreate:
  001a5	83 7d b8 00	 cmp	 DWORD PTR tv182[ebp], 0
  001a9	74 23		 je	 SHORT $LN9@DropCreate

; 191  : 			// 대천사 시리즈라면 없어지는 시간만 늘리고 루팅은 바로되게 한다.
; 192  : 			m_Time		= GetTickCount() + BC_REWARD_CHAOSEGEM_LOOT_TIME * 3;

  001ab	ff 15 00 00 00
	00		 call	 DWORD PTR __imp__GetTickCount@0
  001b1	05 a0 bb 0d 00	 add	 eax, 900000		; 000dbba0H
  001b6	8b 4d fc	 mov	 ecx, DWORD PTR _this$[ebp]
  001b9	89 81 b4 00 00
	00		 mov	 DWORD PTR [ecx+180], eax

; 193  : 			m_LootTime	= GetTickCount();

  001bf	ff 15 00 00 00
	00		 call	 DWORD PTR __imp__GetTickCount@0
  001c5	8b 4d fc	 mov	 ecx, DWORD PTR _this$[ebp]
  001c8	89 81 bc 00 00
	00		 mov	 DWORD PTR [ecx+188], eax
$LN9@DropCreate:

; 194  : 		}
; 195  : 	}
; 196  : #endif
; 197  : 	
; 198  : #ifdef ADD_EVENT_MAP_ILLUSION_TEMPLE_20070328	// 성물일 경우 없어지는 시간설정
; 199  : 	if(type == MAKE_ITEMNUM(14, 64))
; 200  : 	{	
; 201  : #ifdef MODIFY_ILLUSIONTEMPLE_BUGFIX_6_200708013	// 성물 사라지는 시간 10초에서 20초로 변경
; 202  : 		m_Time	= GetTickCount() + 20 * 1000;
; 203  : #else		
; 204  : 		m_Time	= GetTickCount() + 10 * 1000;
; 205  : #endif
; 206  : 	}
; 207  : #endif
; 208  : }

  001ce	5f		 pop	 edi
  001cf	5e		 pop	 esi
  001d0	5b		 pop	 ebx
  001d1	8b e5		 mov	 esp, ebp
  001d3	5d		 pop	 ebp
  001d4	c2 34 00	 ret	 52			; 00000034H
?DropCreateItem@CMapItem@@QAEXHHHHMEEEEEKHH@Z ENDP	; CMapItem::DropCreateItem
_TEXT	ENDS
; Function compile flags: /Odtp /ZI
; File C:\Mu Online\Mu-GS-Webzen-MC-10093\GameServer\MapItem.cpp
;	COMDAT ?CreateItem@CMapItem@@QAEXHHHHMEEEEEK@Z
_TEXT	SEGMENT
_this$ = -4						; size = 4
_type$ = 8						; size = 4
_level$ = 12						; size = 4
_x$ = 16						; size = 4
_y$ = 20						; size = 4
_dur$ = 24						; size = 4
_Option1$ = 28						; size = 1
_Option2$ = 32						; size = 1
_Option3$ = 36						; size = 1
_NOption$ = 40						; size = 1
_SOption$ = 44						; size = 1
_number$ = 48						; size = 4
?CreateItem@CMapItem@@QAEXHHHHMEEEEEK@Z PROC		; CMapItem::CreateItem, COMDAT
; _this$ = ecx

; 52   : {

  00000	55		 push	 ebp
  00001	8b ec		 mov	 ebp, esp
  00003	83 ec 44	 sub	 esp, 68			; 00000044H
  00006	53		 push	 ebx
  00007	56		 push	 esi
  00008	57		 push	 edi
  00009	89 4d fc	 mov	 DWORD PTR _this$[ebp], ecx

; 53   : 	Init();

  0000c	8b 4d fc	 mov	 ecx, DWORD PTR _this$[ebp]
  0000f	e8 00 00 00 00	 call	 ?Init@CMapItem@@QAEXXZ	; CMapItem::Init

; 54   : 	m_Level = level;

  00014	8b 45 fc	 mov	 eax, DWORD PTR _this$[ebp]
  00017	66 8b 4d 0c	 mov	 cx, WORD PTR _level$[ebp]
  0001b	66 89 48 0c	 mov	 WORD PTR [eax+12], cx

; 55   : 	m_Durability = dur;

  0001f	8b 45 fc	 mov	 eax, DWORD PTR _this$[ebp]
  00022	f3 0f 10 45 18	 movss	 xmm0, DWORD PTR _dur$[ebp]
  00027	f3 0f 11 40 28	 movss	 DWORD PTR [eax+40], xmm0

; 56   : 
; 57   : #ifdef ADD_ITEM_SOCKET_OPTION_EXTEND_20080422
; 58   : 	Convert(type, Option1,Option2,Option3, NOption, SOption, ItemEffectEx, SocketOption, SocketBonusOption);
; 59   : #else
; 60   : 	#ifdef ADD_380ITEM_NEWOPTION_20060711
; 61   : 	Convert(type, Option1,Option2,Option3, NOption, SOption, ItemEffectEx);
; 62   : 	#else
; 63   : 	Convert(type, Option1,Option2,Option3, NOption, SOption);

  0002c	6a 01		 push	 1
  0002e	0f b6 45 2c	 movzx	 eax, BYTE PTR _SOption$[ebp]
  00032	50		 push	 eax
  00033	0f b6 4d 28	 movzx	 ecx, BYTE PTR _NOption$[ebp]
  00037	51		 push	 ecx
  00038	0f b6 55 24	 movzx	 edx, BYTE PTR _Option3$[ebp]
  0003c	52		 push	 edx
  0003d	0f b6 45 20	 movzx	 eax, BYTE PTR _Option2$[ebp]
  00041	50		 push	 eax
  00042	0f b6 4d 1c	 movzx	 ecx, BYTE PTR _Option1$[ebp]
  00046	51		 push	 ecx
  00047	8b 55 08	 mov	 edx, DWORD PTR _type$[ebp]
  0004a	52		 push	 edx
  0004b	8b 4d fc	 mov	 ecx, DWORD PTR _this$[ebp]
  0004e	83 c1 04	 add	 ecx, 4
  00051	e8 00 00 00 00	 call	 ?Convert@CItem@@QAEXHEEEEEE@Z ; CItem::Convert

; 64   : 	#endif // ADD_380ITEM_NEWOPTION_20060711
; 65   : #endif // ADD_ITEM_SOCKET_OPTION_EXTEND_20080422
; 66   : 	
; 67   : 	px			= x;

  00056	8b 45 fc	 mov	 eax, DWORD PTR _this$[ebp]
  00059	8a 4d 10	 mov	 cl, BYTE PTR _x$[ebp]
  0005c	88 88 ac 00 00
	00		 mov	 BYTE PTR [eax+172], cl

; 68   : 	py			= y;

  00062	8b 45 fc	 mov	 eax, DWORD PTR _this$[ebp]
  00065	8a 4d 14	 mov	 cl, BYTE PTR _y$[ebp]
  00068	88 88 ad 00 00
	00		 mov	 BYTE PTR [eax+173], cl

; 69   : 	live		= 1;

  0006e	8b 45 fc	 mov	 eax, DWORD PTR _this$[ebp]
  00071	c6 80 ae 00 00
	00 01		 mov	 BYTE PTR [eax+174], 1

; 70   : 	Give		= 0;

  00078	8b 45 fc	 mov	 eax, DWORD PTR _this$[ebp]
  0007b	c6 80 af 00 00
	00 00		 mov	 BYTE PTR [eax+175], 0

; 71   : 	m_State		= OBJST_CREATE;

  00082	8b 45 fc	 mov	 eax, DWORD PTR _this$[ebp]
  00085	c7 80 b0 00 00
	00 01 00 00 00	 mov	 DWORD PTR [eax+176], 1

; 72   : 
; 73   : #ifdef NEW_SKILL_FORSKYLAND
; 74   : 	if( m_QuestItem )

  0008f	8b 45 fc	 mov	 eax, DWORD PTR _this$[ebp]
  00092	0f b6 88 95 00
	00 00		 movzx	 ecx, BYTE PTR [eax+149]
  00099	85 c9		 test	 ecx, ecx
  0009b	74 33		 je	 SHORT $LN2@CreateItem

; 75   : 	{
; 76   : 		m_Time		= GetTickCount()+((1000*60)*1);

  0009d	ff 15 00 00 00
	00		 call	 DWORD PTR __imp__GetTickCount@0
  000a3	05 60 ea 00 00	 add	 eax, 60000		; 0000ea60H
  000a8	8b 4d fc	 mov	 ecx, DWORD PTR _this$[ebp]
  000ab	89 81 b4 00 00
	00		 mov	 DWORD PTR [ecx+180], eax

; 77   : 		m_LootTime	= GetTickCount()+((1000*60)*10);

  000b1	ff 15 00 00 00
	00		 call	 DWORD PTR __imp__GetTickCount@0
  000b7	05 c0 27 09 00	 add	 eax, 600000		; 000927c0H
  000bc	8b 4d fc	 mov	 ecx, DWORD PTR _this$[ebp]
  000bf	89 81 bc 00 00
	00		 mov	 DWORD PTR [ecx+188], eax

; 78   : 		m_Number = number;	

  000c5	8b 45 fc	 mov	 eax, DWORD PTR _this$[ebp]
  000c8	8b 4d 30	 mov	 ecx, DWORD PTR _number$[ebp]
  000cb	89 48 04	 mov	 DWORD PTR [eax+4], ecx

; 79   : 	}

  000ce	eb 38		 jmp	 SHORT $LN3@CreateItem
$LN2@CreateItem:

; 80   : 	else
; 81   : 	{
; 82   : #ifdef FOR_ONAIR
; 83   : 		if( type == MAKE_ITEMNUM(14,11) )
; 84   : 		{
; 85   : 			m_Time  = GetTickCount()+((1000*60*60*4));
; 86   : 		}
; 87   : 		else
; 88   : 		{
; 89   : 			m_Time		= GetTickCount()+((1000*60)*2);
; 90   : 		}		
; 91   : #else
; 92   : 		m_Time		= GetTickCount()+((1000*60)*2);

  000d0	ff 15 00 00 00
	00		 call	 DWORD PTR __imp__GetTickCount@0
  000d6	05 c0 d4 01 00	 add	 eax, 120000		; 0001d4c0H
  000db	8b 4d fc	 mov	 ecx, DWORD PTR _this$[ebp]
  000de	89 81 b4 00 00
	00		 mov	 DWORD PTR [ecx+180], eax

; 93   : #endif
; 94   : 		m_LootTime	= GetTickCount()+(1000*gLootingTime);

  000e4	ff 15 00 00 00
	00		 call	 DWORD PTR __imp__GetTickCount@0
  000ea	69 0d 00 00 00
	00 e8 03 00 00	 imul	 ecx, DWORD PTR ?gLootingTime@@3HA, 1000 ; gLootingTime
  000f4	03 c1		 add	 eax, ecx
  000f6	8b 55 fc	 mov	 edx, DWORD PTR _this$[ebp]
  000f9	89 82 bc 00 00
	00		 mov	 DWORD PTR [edx+188], eax

; 95   : 		m_Number = number;	

  000ff	8b 45 fc	 mov	 eax, DWORD PTR _this$[ebp]
  00102	8b 4d 30	 mov	 ecx, DWORD PTR _number$[ebp]
  00105	89 48 04	 mov	 DWORD PTR [eax+4], ecx
$LN3@CreateItem:

; 96   : 	}
; 97   : #else
; 98   : 	m_Time		= GetTickCount()+((1000*60)*2);
; 99   : 	m_LootTime	= GetTickCount()+(1000*gLootingTime);
; 100  : 	m_Number = number;	
; 101  : #endif
; 102  : }

  00108	5f		 pop	 edi
  00109	5e		 pop	 esi
  0010a	5b		 pop	 ebx
  0010b	8b e5		 mov	 esp, ebp
  0010d	5d		 pop	 ebp
  0010e	c2 2c 00	 ret	 44			; 0000002cH
?CreateItem@CMapItem@@QAEXHHHHMEEEEEK@Z ENDP		; CMapItem::CreateItem
_TEXT	ENDS
; Function compile flags: /Odtp /ZI
; File C:\Mu Online\Mu-GS-Webzen-MC-10093\GameServer\MapItem.cpp
;	COMDAT ?Init@CMapItem@@QAEXXZ
_TEXT	SEGMENT
_n$1 = -8						; size = 4
_this$ = -4						; size = 4
?Init@CMapItem@@QAEXXZ PROC				; CMapItem::Init, COMDAT
; _this$ = ecx

; 32   : {

  00000	55		 push	 ebp
  00001	8b ec		 mov	 ebp, esp
  00003	83 ec 48	 sub	 esp, 72			; 00000048H
  00006	53		 push	 ebx
  00007	56		 push	 esi
  00008	57		 push	 edi
  00009	89 4d fc	 mov	 DWORD PTR _this$[ebp], ecx

; 33   : 	VPCount = 0;

  0000c	8b 45 fc	 mov	 eax, DWORD PTR _this$[ebp]
  0000f	c7 80 44 04 00
	00 00 00 00 00	 mov	 DWORD PTR [eax+1092], 0

; 34   : 	m_State = OBJST_NONE;

  00019	8b 45 fc	 mov	 eax, DWORD PTR _this$[ebp]
  0001c	c7 80 b0 00 00
	00 00 00 00 00	 mov	 DWORD PTR [eax+176], 0

; 35   : 	for( int n=0; n<MAXVIEWPORTOBJECT; n++)

  00026	c7 45 f8 00 00
	00 00		 mov	 DWORD PTR _n$1[ebp], 0
  0002d	eb 09		 jmp	 SHORT $LN4@Init
$LN2@Init:
  0002f	8b 45 f8	 mov	 eax, DWORD PTR _n$1[ebp]
  00032	83 c0 01	 add	 eax, 1
  00035	89 45 f8	 mov	 DWORD PTR _n$1[ebp], eax
$LN4@Init:
  00038	83 7d f8 4b	 cmp	 DWORD PTR _n$1[ebp], 75	; 0000004bH
  0003c	7d 1d		 jge	 SHORT $LN1@Init

; 36   : 	{
; 37   : 		memset((char*)&VpPlayer[n], 0, sizeof(VIEWPORT_PLAYER_STRUCT));

  0003e	6a 0c		 push	 12			; 0000000cH
  00040	6a 00		 push	 0
  00042	6b 45 f8 0c	 imul	 eax, DWORD PTR _n$1[ebp], 12
  00046	8b 4d fc	 mov	 ecx, DWORD PTR _this$[ebp]
  00049	8d 94 01 c0 00
	00 00		 lea	 edx, DWORD PTR [ecx+eax+192]
  00050	52		 push	 edx
  00051	e8 00 00 00 00	 call	 _memset
  00056	83 c4 0c	 add	 esp, 12			; 0000000cH

; 38   : 	}

  00059	eb d4		 jmp	 SHORT $LN2@Init
$LN1@Init:

; 39   : }

  0005b	5f		 pop	 edi
  0005c	5e		 pop	 esi
  0005d	5b		 pop	 ebx
  0005e	8b e5		 mov	 esp, ebp
  00060	5d		 pop	 ebp
  00061	c3		 ret	 0
?Init@CMapItem@@QAEXXZ ENDP				; CMapItem::Init
_TEXT	ENDS
; Function compile flags: /Odtp /ZI
; File C:\Mu Online\Mu-GS-Webzen-MC-10093\GameServer\MapItem.cpp
;	COMDAT ??1CMapItem@@UAE@XZ
_TEXT	SEGMENT
_this$ = -4						; size = 4
??1CMapItem@@UAE@XZ PROC				; CMapItem::~CMapItem, COMDAT
; _this$ = ecx

; 25   : {

  00000	55		 push	 ebp
  00001	8b ec		 mov	 ebp, esp
  00003	83 ec 44	 sub	 esp, 68			; 00000044H
  00006	53		 push	 ebx
  00007	56		 push	 esi
  00008	57		 push	 edi
  00009	89 4d fc	 mov	 DWORD PTR _this$[ebp], ecx
  0000c	8b 45 fc	 mov	 eax, DWORD PTR _this$[ebp]
  0000f	c7 00 00 00 00
	00		 mov	 DWORD PTR [eax], OFFSET ??_7CMapItem@@6B@

; 26   : 
; 27   : }

  00015	5f		 pop	 edi
  00016	5e		 pop	 esi
  00017	5b		 pop	 ebx
  00018	8b e5		 mov	 esp, ebp
  0001a	5d		 pop	 ebp
  0001b	c3		 ret	 0
??1CMapItem@@UAE@XZ ENDP				; CMapItem::~CMapItem
_TEXT	ENDS
; Function compile flags: /Odtp /ZI
; File C:\Mu Online\Mu-GS-Webzen-MC-10093\GameServer\MapItem.cpp
;	COMDAT ??0CMapItem@@QAE@XZ
_TEXT	SEGMENT
_this$ = -4						; size = 4
??0CMapItem@@QAE@XZ PROC				; CMapItem::CMapItem, COMDAT
; _this$ = ecx

; 20   : {

  00000	55		 push	 ebp
  00001	8b ec		 mov	 ebp, esp
  00003	83 ec 44	 sub	 esp, 68			; 00000044H
  00006	53		 push	 ebx
  00007	56		 push	 esi
  00008	57		 push	 edi
  00009	89 4d fc	 mov	 DWORD PTR _this$[ebp], ecx
  0000c	8b 4d fc	 mov	 ecx, DWORD PTR _this$[ebp]
  0000f	83 c1 04	 add	 ecx, 4
  00012	e8 00 00 00 00	 call	 ??0CItem@@QAE@XZ	; CItem::CItem
  00017	8b 45 fc	 mov	 eax, DWORD PTR _this$[ebp]
  0001a	c7 00 00 00 00
	00		 mov	 DWORD PTR [eax], OFFSET ??_7CMapItem@@6B@

; 21   : 	Init();

  00020	8b 4d fc	 mov	 ecx, DWORD PTR _this$[ebp]
  00023	e8 00 00 00 00	 call	 ?Init@CMapItem@@QAEXXZ	; CMapItem::Init

; 22   : }

  00028	8b 45 fc	 mov	 eax, DWORD PTR _this$[ebp]
  0002b	5f		 pop	 edi
  0002c	5e		 pop	 esi
  0002d	5b		 pop	 ebx
  0002e	8b e5		 mov	 esp, ebp
  00030	5d		 pop	 ebp
  00031	c3		 ret	 0
??0CMapItem@@QAE@XZ ENDP				; CMapItem::CMapItem
_TEXT	ENDS
; Function compile flags: /Odtp /ZI
; File C:\Mu Online\Mu-GS-Webzen-MC-10093\GameServer\MapItem.cpp
;	COMDAT ?__empty_global_delete@@YAXPAXI@Z
_TEXT	SEGMENT
___formal$ = 8						; size = 4
___formal$ = 12						; size = 4
?__empty_global_delete@@YAXPAXI@Z PROC			; __empty_global_delete, COMDAT

  00000	55		 push	 ebp
  00001	8b ec		 mov	 ebp, esp
  00003	83 ec 40	 sub	 esp, 64			; 00000040H
  00006	53		 push	 ebx
  00007	56		 push	 esi
  00008	57		 push	 edi
  00009	5f		 pop	 edi
  0000a	5e		 pop	 esi
  0000b	5b		 pop	 ebx
  0000c	8b e5		 mov	 esp, ebp
  0000e	5d		 pop	 ebp
  0000f	c3		 ret	 0
?__empty_global_delete@@YAXPAXI@Z ENDP			; __empty_global_delete
_TEXT	ENDS
; Function compile flags: /Odtp /ZI
; File C:\Mu Online\Mu-GS-Webzen-MC-10093\GameServer\MapItem.cpp
;	COMDAT ?__empty_global_delete@@YAXPAX@Z
_TEXT	SEGMENT
___formal$ = 8						; size = 4
?__empty_global_delete@@YAXPAX@Z PROC			; __empty_global_delete, COMDAT

  00000	55		 push	 ebp
  00001	8b ec		 mov	 ebp, esp
  00003	83 ec 40	 sub	 esp, 64			; 00000040H
  00006	53		 push	 ebx
  00007	56		 push	 esi
  00008	57		 push	 edi
  00009	5f		 pop	 edi
  0000a	5e		 pop	 esi
  0000b	5b		 pop	 ebx
  0000c	8b e5		 mov	 esp, ebp
  0000e	5d		 pop	 ebp
  0000f	c3		 ret	 0
?__empty_global_delete@@YAXPAX@Z ENDP			; __empty_global_delete
_TEXT	ENDS
END
