; Listing generated by Microsoft (R) Optimizing Compiler Version 19.27.29111.0 

	TITLE	C:\Mu Online\Mu-GS-Webzen-MC-10093\GameServer\MDate.cpp
	.686P
	.XMM
	include listing.inc
	.model	flat

INCLUDELIB LIBCMT
INCLUDELIB OLDNAMES

PUBLIC	?__empty_global_delete@@YAXPAX@Z		; __empty_global_delete
PUBLIC	?__empty_global_delete@@YAXPAXI@Z		; __empty_global_delete
PUBLIC	??0MuDate@@QAE@XZ				; MuDate::MuDate
PUBLIC	??1MuDate@@UAE@XZ				; MuDate::~MuDate
PUBLIC	?GetDay@MuDate@@QAEHHHH@Z			; MuDate::GetDay
PUBLIC	?IsLeapYear@MuDate@@QAE_NH@Z			; MuDate::IsLeapYear
PUBLIC	?GetDaysInMonth@MuDate@@QAEHHH@Z		; MuDate::GetDaysInMonth
PUBLIC	?GetLastDate@MuDate@@QAEXHAAH00@Z		; MuDate::GetLastDate
PUBLIC	?Compare@MuDate@@QAEHHHHHHHHH@Z			; MuDate::Compare
PUBLIC	??_GMuDate@@UAEPAXI@Z				; MuDate::`scalar deleting destructor'
PUBLIC	??0MWeeklyTimer@@QAE@XZ				; MWeeklyTimer::MWeeklyTimer
PUBLIC	??1MWeeklyTimer@@UAE@XZ				; MWeeklyTimer::~MWeeklyTimer
PUBLIC	?Init@MWeeklyTimer@@QAEXHHHHHHP6AXPAV1@PAX@Z1@Z	; MWeeklyTimer::Init
PUBLIC	?Release@MWeeklyTimer@@QAEXXZ			; MWeeklyTimer::Release
PUBLIC	?Activate@MWeeklyTimer@@QAEXH@Z			; MWeeklyTimer::Activate
PUBLIC	?GetWakeDate@MWeeklyTimer@@QAEXAAH000@Z		; MWeeklyTimer::GetWakeDate
PUBLIC	?Update@MWeeklyTimer@@QAEHXZ			; MWeeklyTimer::Update
PUBLIC	??_GMWeeklyTimer@@UAEPAXI@Z			; MWeeklyTimer::`scalar deleting destructor'
PUBLIC	??_7MuDate@@6B@					; MuDate::`vftable'
PUBLIC	??_7MWeeklyTimer@@6B@				; MWeeklyTimer::`vftable'
PUBLIC	??_R4MuDate@@6B@				; MuDate::`RTTI Complete Object Locator'
PUBLIC	??_R0?AVMuDate@@@8				; MuDate `RTTI Type Descriptor'
PUBLIC	??_R3MuDate@@8					; MuDate::`RTTI Class Hierarchy Descriptor'
PUBLIC	??_R2MuDate@@8					; MuDate::`RTTI Base Class Array'
PUBLIC	??_R1A@?0A@EA@MuDate@@8				; MuDate::`RTTI Base Class Descriptor at (0,-1,0,64)'
PUBLIC	??_R4MWeeklyTimer@@6B@				; MWeeklyTimer::`RTTI Complete Object Locator'
PUBLIC	??_R0?AVMWeeklyTimer@@@8			; MWeeklyTimer `RTTI Type Descriptor'
PUBLIC	??_R3MWeeklyTimer@@8				; MWeeklyTimer::`RTTI Class Hierarchy Descriptor'
PUBLIC	??_R2MWeeklyTimer@@8				; MWeeklyTimer::`RTTI Base Class Array'
PUBLIC	??_R1A@?0A@EA@MWeeklyTimer@@8			; MWeeklyTimer::`RTTI Base Class Descriptor at (0,-1,0,64)'
EXTRN	??3@YAXPAXI@Z:PROC				; operator delete
EXTRN	__imp__GetLocalTime@4:PROC
EXTRN	??_EMuDate@@UAEPAXI@Z:PROC			; MuDate::`vector deleting destructor'
EXTRN	??_EMWeeklyTimer@@UAEPAXI@Z:PROC		; MWeeklyTimer::`vector deleting destructor'
EXTRN	@__security_check_cookie@4:PROC
EXTRN	??_7type_info@@6B@:QWORD			; type_info::`vftable'
EXTRN	___security_cookie:DWORD
;	COMDAT ??_R1A@?0A@EA@MWeeklyTimer@@8
rdata$r	SEGMENT
??_R1A@?0A@EA@MWeeklyTimer@@8 DD FLAT:??_R0?AVMWeeklyTimer@@@8 ; MWeeklyTimer::`RTTI Base Class Descriptor at (0,-1,0,64)'
	DD	01H
	DD	00H
	DD	0ffffffffH
	DD	00H
	DD	040H
	DD	FLAT:??_R3MWeeklyTimer@@8
rdata$r	ENDS
;	COMDAT ??_R2MWeeklyTimer@@8
rdata$r	SEGMENT
??_R2MWeeklyTimer@@8 DD FLAT:??_R1A@?0A@EA@MWeeklyTimer@@8 ; MWeeklyTimer::`RTTI Base Class Array'
	DD	FLAT:??_R1A@?0A@EA@MuDate@@8
rdata$r	ENDS
;	COMDAT ??_R3MWeeklyTimer@@8
rdata$r	SEGMENT
??_R3MWeeklyTimer@@8 DD 00H				; MWeeklyTimer::`RTTI Class Hierarchy Descriptor'
	DD	00H
	DD	02H
	DD	FLAT:??_R2MWeeklyTimer@@8
rdata$r	ENDS
;	COMDAT ??_R0?AVMWeeklyTimer@@@8
data$r	SEGMENT
??_R0?AVMWeeklyTimer@@@8 DD FLAT:??_7type_info@@6B@	; MWeeklyTimer `RTTI Type Descriptor'
	DD	00H
	DB	'.?AVMWeeklyTimer@@', 00H
data$r	ENDS
;	COMDAT ??_R4MWeeklyTimer@@6B@
rdata$r	SEGMENT
??_R4MWeeklyTimer@@6B@ DD 00H				; MWeeklyTimer::`RTTI Complete Object Locator'
	DD	00H
	DD	00H
	DD	FLAT:??_R0?AVMWeeklyTimer@@@8
	DD	FLAT:??_R3MWeeklyTimer@@8
rdata$r	ENDS
;	COMDAT ??_R1A@?0A@EA@MuDate@@8
rdata$r	SEGMENT
??_R1A@?0A@EA@MuDate@@8 DD FLAT:??_R0?AVMuDate@@@8	; MuDate::`RTTI Base Class Descriptor at (0,-1,0,64)'
	DD	00H
	DD	00H
	DD	0ffffffffH
	DD	00H
	DD	040H
	DD	FLAT:??_R3MuDate@@8
rdata$r	ENDS
;	COMDAT ??_R2MuDate@@8
rdata$r	SEGMENT
??_R2MuDate@@8 DD FLAT:??_R1A@?0A@EA@MuDate@@8		; MuDate::`RTTI Base Class Array'
rdata$r	ENDS
;	COMDAT ??_R3MuDate@@8
rdata$r	SEGMENT
??_R3MuDate@@8 DD 00H					; MuDate::`RTTI Class Hierarchy Descriptor'
	DD	00H
	DD	01H
	DD	FLAT:??_R2MuDate@@8
rdata$r	ENDS
;	COMDAT ??_R0?AVMuDate@@@8
data$r	SEGMENT
??_R0?AVMuDate@@@8 DD FLAT:??_7type_info@@6B@		; MuDate `RTTI Type Descriptor'
	DD	00H
	DB	'.?AVMuDate@@', 00H
data$r	ENDS
;	COMDAT ??_R4MuDate@@6B@
rdata$r	SEGMENT
??_R4MuDate@@6B@ DD 00H					; MuDate::`RTTI Complete Object Locator'
	DD	00H
	DD	00H
	DD	FLAT:??_R0?AVMuDate@@@8
	DD	FLAT:??_R3MuDate@@8
rdata$r	ENDS
;	COMDAT ??_7MWeeklyTimer@@6B@
CONST	SEGMENT
??_7MWeeklyTimer@@6B@ DD FLAT:??_R4MWeeklyTimer@@6B@	; MWeeklyTimer::`vftable'
	DD	FLAT:??_EMWeeklyTimer@@UAEPAXI@Z
CONST	ENDS
;	COMDAT ??_7MuDate@@6B@
CONST	SEGMENT
??_7MuDate@@6B@ DD FLAT:??_R4MuDate@@6B@		; MuDate::`vftable'
	DD	FLAT:??_EMuDate@@UAEPAXI@Z
CONST	ENDS
; Function compile flags: /Odtp /ZI
;	COMDAT ??_GMWeeklyTimer@@UAEPAXI@Z
_TEXT	SEGMENT
_this$ = -4						; size = 4
___flags$ = 8						; size = 4
??_GMWeeklyTimer@@UAEPAXI@Z PROC			; MWeeklyTimer::`scalar deleting destructor', COMDAT
; _this$ = ecx
  00000	55		 push	 ebp
  00001	8b ec		 mov	 ebp, esp
  00003	83 ec 44	 sub	 esp, 68			; 00000044H
  00006	53		 push	 ebx
  00007	56		 push	 esi
  00008	57		 push	 edi
  00009	89 4d fc	 mov	 DWORD PTR _this$[ebp], ecx
  0000c	8b 4d fc	 mov	 ecx, DWORD PTR _this$[ebp]
  0000f	e8 00 00 00 00	 call	 ??1MWeeklyTimer@@UAE@XZ	; MWeeklyTimer::~MWeeklyTimer
  00014	8b 45 08	 mov	 eax, DWORD PTR ___flags$[ebp]
  00017	83 e0 01	 and	 eax, 1
  0001a	74 0e		 je	 SHORT $LN2@scalar
  0001c	6a 38		 push	 56			; 00000038H
  0001e	8b 45 fc	 mov	 eax, DWORD PTR _this$[ebp]
  00021	50		 push	 eax
  00022	e8 00 00 00 00	 call	 ??3@YAXPAXI@Z		; operator delete
  00027	83 c4 08	 add	 esp, 8
$LN2@scalar:
  0002a	8b 45 fc	 mov	 eax, DWORD PTR _this$[ebp]
  0002d	5f		 pop	 edi
  0002e	5e		 pop	 esi
  0002f	5b		 pop	 ebx
  00030	8b e5		 mov	 esp, ebp
  00032	5d		 pop	 ebp
  00033	c2 04 00	 ret	 4
??_GMWeeklyTimer@@UAEPAXI@Z ENDP			; MWeeklyTimer::`scalar deleting destructor'
_TEXT	ENDS
; Function compile flags: /Odtp /ZI
; File C:\Mu Online\Mu-GS-Webzen-MC-10093\GameServer\MDate.cpp
;	COMDAT ?Update@MWeeklyTimer@@QAEHXZ
_TEXT	SEGMENT
_m_kLocalTime$ = -40					; size = 16
_iHour$ = -24						; size = 4
_iDay$ = -20						; size = 4
_iMonth$ = -16						; size = 4
_iYear$ = -12						; size = 4
_this$ = -8						; size = 4
__$ArrayPad$ = -4					; size = 4
?Update@MWeeklyTimer@@QAEHXZ PROC			; MWeeklyTimer::Update, COMDAT
; _this$ = ecx

; 166  : {

  00000	55		 push	 ebp
  00001	8b ec		 mov	 ebp, esp
  00003	83 ec 68	 sub	 esp, 104		; 00000068H
  00006	a1 00 00 00 00	 mov	 eax, DWORD PTR ___security_cookie
  0000b	33 c5		 xor	 eax, ebp
  0000d	89 45 fc	 mov	 DWORD PTR __$ArrayPad$[ebp], eax
  00010	53		 push	 ebx
  00011	56		 push	 esi
  00012	57		 push	 edi
  00013	89 4d f8	 mov	 DWORD PTR _this$[ebp], ecx

; 167  : 	int iYear, iMonth, iDay, iHour;
; 168  : 	SYSTEMTIME	m_kLocalTime;
; 169  : 
; 170  : 	if(m_bActive == FALSE) return(1);

  00016	8b 45 f8	 mov	 eax, DWORD PTR _this$[ebp]
  00019	83 78 20 00	 cmp	 DWORD PTR [eax+32], 0
  0001d	75 0a		 jne	 SHORT $LN2@Update
  0001f	b8 01 00 00 00	 mov	 eax, 1
  00024	e9 3d 01 00 00	 jmp	 $LN1@Update
$LN2@Update:

; 171  : 
; 172  : 	GetLocalTime(&m_kLocalTime);

  00029	8d 45 d8	 lea	 eax, DWORD PTR _m_kLocalTime$[ebp]
  0002c	50		 push	 eax
  0002d	ff 15 00 00 00
	00		 call	 DWORD PTR __imp__GetLocalTime@4

; 173  : 
; 174  : 	if( (m_kOldLocalTime.wYear == m_kLocalTime.wYear)	&&
; 175  : 		(m_kOldLocalTime.wMonth == m_kLocalTime.wMonth)	&&
; 176  : 		(m_kOldLocalTime.wDay == m_kLocalTime.wDay)	&&

  00033	8b 45 f8	 mov	 eax, DWORD PTR _this$[ebp]
  00036	0f b7 48 24	 movzx	 ecx, WORD PTR [eax+36]
  0003a	0f b7 55 d8	 movzx	 edx, WORD PTR _m_kLocalTime$[ebp]
  0003e	3b ca		 cmp	 ecx, edx
  00040	75 37		 jne	 SHORT $LN3@Update
  00042	8b 45 f8	 mov	 eax, DWORD PTR _this$[ebp]
  00045	0f b7 48 26	 movzx	 ecx, WORD PTR [eax+38]
  00049	0f b7 55 da	 movzx	 edx, WORD PTR _m_kLocalTime$[ebp+2]
  0004d	3b ca		 cmp	 ecx, edx
  0004f	75 28		 jne	 SHORT $LN3@Update
  00051	8b 45 f8	 mov	 eax, DWORD PTR _this$[ebp]
  00054	0f b7 48 2a	 movzx	 ecx, WORD PTR [eax+42]
  00058	0f b7 55 de	 movzx	 edx, WORD PTR _m_kLocalTime$[ebp+6]
  0005c	3b ca		 cmp	 ecx, edx
  0005e	75 19		 jne	 SHORT $LN3@Update
  00060	8b 45 f8	 mov	 eax, DWORD PTR _this$[ebp]
  00063	0f b7 48 2c	 movzx	 ecx, WORD PTR [eax+44]
  00067	0f b7 55 e0	 movzx	 edx, WORD PTR _m_kLocalTime$[ebp+8]
  0006b	3b ca		 cmp	 ecx, edx
  0006d	75 0a		 jne	 SHORT $LN3@Update

; 177  : 		(m_kOldLocalTime.wHour == m_kLocalTime.wHour)
; 178  : 		)
; 179  : 		return(1);

  0006f	b8 01 00 00 00	 mov	 eax, 1
  00074	e9 ed 00 00 00	 jmp	 $LN1@Update
$LN3@Update:

; 180  : 
; 181  : 	m_kOldLocalTime = m_kLocalTime;

  00079	8b 45 f8	 mov	 eax, DWORD PTR _this$[ebp]
  0007c	83 c0 24	 add	 eax, 36			; 00000024H
  0007f	8b 4d d8	 mov	 ecx, DWORD PTR _m_kLocalTime$[ebp]
  00082	89 08		 mov	 DWORD PTR [eax], ecx
  00084	8b 55 dc	 mov	 edx, DWORD PTR _m_kLocalTime$[ebp+4]
  00087	89 50 04	 mov	 DWORD PTR [eax+4], edx
  0008a	8b 4d e0	 mov	 ecx, DWORD PTR _m_kLocalTime$[ebp+8]
  0008d	89 48 08	 mov	 DWORD PTR [eax+8], ecx
  00090	8b 55 e4	 mov	 edx, DWORD PTR _m_kLocalTime$[ebp+12]
  00093	89 50 0c	 mov	 DWORD PTR [eax+12], edx

; 182  : 
; 183  : 	iYear	= m_kLocalTime.wYear;

  00096	0f b7 45 d8	 movzx	 eax, WORD PTR _m_kLocalTime$[ebp]
  0009a	89 45 f4	 mov	 DWORD PTR _iYear$[ebp], eax

; 184  : 	iMonth	= m_kLocalTime.wMonth;

  0009d	0f b7 45 da	 movzx	 eax, WORD PTR _m_kLocalTime$[ebp+2]
  000a1	89 45 f0	 mov	 DWORD PTR _iMonth$[ebp], eax

; 185  : 	iDay	= m_kLocalTime.wDay;

  000a4	0f b7 45 de	 movzx	 eax, WORD PTR _m_kLocalTime$[ebp+6]
  000a8	89 45 ec	 mov	 DWORD PTR _iDay$[ebp], eax

; 186  : 	iHour	= m_iCheckHour;

  000ab	8b 45 f8	 mov	 eax, DWORD PTR _this$[ebp]
  000ae	8b 48 18	 mov	 ecx, DWORD PTR [eax+24]
  000b1	89 4d e8	 mov	 DWORD PTR _iHour$[ebp], ecx

; 187  : 
; 188  : 	if(m_iCheckHour > m_kLocalTime.wHour) iDay--;

  000b4	0f b7 45 e0	 movzx	 eax, WORD PTR _m_kLocalTime$[ebp+8]
  000b8	8b 4d f8	 mov	 ecx, DWORD PTR _this$[ebp]
  000bb	39 41 18	 cmp	 DWORD PTR [ecx+24], eax
  000be	7e 09		 jle	 SHORT $LN4@Update
  000c0	8b 45 ec	 mov	 eax, DWORD PTR _iDay$[ebp]
  000c3	83 e8 01	 sub	 eax, 1
  000c6	89 45 ec	 mov	 DWORD PTR _iDay$[ebp], eax
$LN4@Update:

; 189  : 
; 190  : 	GetLastDate(m_iCheckDayOfWeek, iYear, iMonth, iDay);

  000c9	8d 45 ec	 lea	 eax, DWORD PTR _iDay$[ebp]
  000cc	50		 push	 eax
  000cd	8d 4d f0	 lea	 ecx, DWORD PTR _iMonth$[ebp]
  000d0	51		 push	 ecx
  000d1	8d 55 f4	 lea	 edx, DWORD PTR _iYear$[ebp]
  000d4	52		 push	 edx
  000d5	8b 45 f8	 mov	 eax, DWORD PTR _this$[ebp]
  000d8	8b 48 14	 mov	 ecx, DWORD PTR [eax+20]
  000db	51		 push	 ecx
  000dc	8b 4d f8	 mov	 ecx, DWORD PTR _this$[ebp]
  000df	e8 00 00 00 00	 call	 ?GetLastDate@MuDate@@QAEXHAAH00@Z ; MuDate::GetLastDate

; 191  : 
; 192  : 	if(Compare(m_iWakeYear, m_iWakeMonth, m_iWakeDay, m_iWakeHour, iYear, iMonth, iDay, iHour) < 0)

  000e4	8b 45 e8	 mov	 eax, DWORD PTR _iHour$[ebp]
  000e7	50		 push	 eax
  000e8	8b 4d ec	 mov	 ecx, DWORD PTR _iDay$[ebp]
  000eb	51		 push	 ecx
  000ec	8b 55 f0	 mov	 edx, DWORD PTR _iMonth$[ebp]
  000ef	52		 push	 edx
  000f0	8b 45 f4	 mov	 eax, DWORD PTR _iYear$[ebp]
  000f3	50		 push	 eax
  000f4	8b 4d f8	 mov	 ecx, DWORD PTR _this$[ebp]
  000f7	8b 51 10	 mov	 edx, DWORD PTR [ecx+16]
  000fa	52		 push	 edx
  000fb	8b 45 f8	 mov	 eax, DWORD PTR _this$[ebp]
  000fe	8b 48 0c	 mov	 ecx, DWORD PTR [eax+12]
  00101	51		 push	 ecx
  00102	8b 55 f8	 mov	 edx, DWORD PTR _this$[ebp]
  00105	8b 42 08	 mov	 eax, DWORD PTR [edx+8]
  00108	50		 push	 eax
  00109	8b 4d f8	 mov	 ecx, DWORD PTR _this$[ebp]
  0010c	8b 51 04	 mov	 edx, DWORD PTR [ecx+4]
  0010f	52		 push	 edx
  00110	8b 4d f8	 mov	 ecx, DWORD PTR _this$[ebp]
  00113	e8 00 00 00 00	 call	 ?Compare@MuDate@@QAEHHHHHHHHH@Z ; MuDate::Compare
  00118	85 c0		 test	 eax, eax
  0011a	7d 45		 jge	 SHORT $LN5@Update

; 193  : 	{
; 194  : 		m_iWakeYear		= m_kLocalTime.wYear;

  0011c	0f b7 45 d8	 movzx	 eax, WORD PTR _m_kLocalTime$[ebp]
  00120	8b 4d f8	 mov	 ecx, DWORD PTR _this$[ebp]
  00123	89 41 04	 mov	 DWORD PTR [ecx+4], eax

; 195  : 		m_iWakeMonth	= m_kLocalTime.wMonth;

  00126	0f b7 45 da	 movzx	 eax, WORD PTR _m_kLocalTime$[ebp+2]
  0012a	8b 4d f8	 mov	 ecx, DWORD PTR _this$[ebp]
  0012d	89 41 08	 mov	 DWORD PTR [ecx+8], eax

; 196  : 		m_iWakeDay		= m_kLocalTime.wDay;

  00130	0f b7 45 de	 movzx	 eax, WORD PTR _m_kLocalTime$[ebp+6]
  00134	8b 4d f8	 mov	 ecx, DWORD PTR _this$[ebp]
  00137	89 41 0c	 mov	 DWORD PTR [ecx+12], eax

; 197  : 		m_iWakeHour		= m_kLocalTime.wHour;

  0013a	0f b7 45 e0	 movzx	 eax, WORD PTR _m_kLocalTime$[ebp+8]
  0013e	8b 4d f8	 mov	 ecx, DWORD PTR _this$[ebp]
  00141	89 41 10	 mov	 DWORD PTR [ecx+16], eax

; 198  : 		m_pfnWakeCallBack(this, m_pArg);

  00144	8b 45 f8	 mov	 eax, DWORD PTR _this$[ebp]
  00147	8b 48 34	 mov	 ecx, DWORD PTR [eax+52]
  0014a	51		 push	 ecx
  0014b	8b 55 f8	 mov	 edx, DWORD PTR _this$[ebp]
  0014e	52		 push	 edx
  0014f	8b 45 f8	 mov	 eax, DWORD PTR _this$[ebp]
  00152	8b 48 1c	 mov	 ecx, DWORD PTR [eax+28]
  00155	ff d1		 call	 ecx
  00157	83 c4 08	 add	 esp, 8

; 199  : //		printf("%d/%d/%d\n", m_iWakeYear, m_iWakeMonth, m_iWakeDay);
; 200  : 		return(2);

  0015a	b8 02 00 00 00	 mov	 eax, 2
  0015f	eb 05		 jmp	 SHORT $LN1@Update
$LN5@Update:

; 201  : 	}
; 202  : 
; 203  : 	return(1);

  00161	b8 01 00 00 00	 mov	 eax, 1
$LN1@Update:

; 204  : }

  00166	5f		 pop	 edi
  00167	5e		 pop	 esi
  00168	5b		 pop	 ebx
  00169	8b 4d fc	 mov	 ecx, DWORD PTR __$ArrayPad$[ebp]
  0016c	33 cd		 xor	 ecx, ebp
  0016e	e8 00 00 00 00	 call	 @__security_check_cookie@4
  00173	8b e5		 mov	 esp, ebp
  00175	5d		 pop	 ebp
  00176	c3		 ret	 0
?Update@MWeeklyTimer@@QAEHXZ ENDP			; MWeeklyTimer::Update
_TEXT	ENDS
; Function compile flags: /Odtp /ZI
; File C:\Mu Online\Mu-GS-Webzen-MC-10093\GameServer\MDate.cpp
;	COMDAT ?GetWakeDate@MWeeklyTimer@@QAEXAAH000@Z
_TEXT	SEGMENT
_this$ = -4						; size = 4
_iOutWakeYear$ = 8					; size = 4
_iOutWakeMonth$ = 12					; size = 4
_iOutWakeDay$ = 16					; size = 4
_iOutWakeHour$ = 20					; size = 4
?GetWakeDate@MWeeklyTimer@@QAEXAAH000@Z PROC		; MWeeklyTimer::GetWakeDate, COMDAT
; _this$ = ecx

; 216  : {

  00000	55		 push	 ebp
  00001	8b ec		 mov	 ebp, esp
  00003	83 ec 44	 sub	 esp, 68			; 00000044H
  00006	53		 push	 ebx
  00007	56		 push	 esi
  00008	57		 push	 edi
  00009	89 4d fc	 mov	 DWORD PTR _this$[ebp], ecx

; 217  : 	iOutWakeYear	= m_iWakeYear;

  0000c	8b 45 08	 mov	 eax, DWORD PTR _iOutWakeYear$[ebp]
  0000f	8b 4d fc	 mov	 ecx, DWORD PTR _this$[ebp]
  00012	8b 51 04	 mov	 edx, DWORD PTR [ecx+4]
  00015	89 10		 mov	 DWORD PTR [eax], edx

; 218  : 	iOutWakeMonth	= m_iWakeMonth;

  00017	8b 45 0c	 mov	 eax, DWORD PTR _iOutWakeMonth$[ebp]
  0001a	8b 4d fc	 mov	 ecx, DWORD PTR _this$[ebp]
  0001d	8b 51 08	 mov	 edx, DWORD PTR [ecx+8]
  00020	89 10		 mov	 DWORD PTR [eax], edx

; 219  : 	iOutWakeDay		= m_iWakeDay;

  00022	8b 45 10	 mov	 eax, DWORD PTR _iOutWakeDay$[ebp]
  00025	8b 4d fc	 mov	 ecx, DWORD PTR _this$[ebp]
  00028	8b 51 0c	 mov	 edx, DWORD PTR [ecx+12]
  0002b	89 10		 mov	 DWORD PTR [eax], edx

; 220  : 	iOutWakeHour	= m_iWakeHour;

  0002d	8b 45 14	 mov	 eax, DWORD PTR _iOutWakeHour$[ebp]
  00030	8b 4d fc	 mov	 ecx, DWORD PTR _this$[ebp]
  00033	8b 51 10	 mov	 edx, DWORD PTR [ecx+16]
  00036	89 10		 mov	 DWORD PTR [eax], edx

; 221  : }

  00038	5f		 pop	 edi
  00039	5e		 pop	 esi
  0003a	5b		 pop	 ebx
  0003b	8b e5		 mov	 esp, ebp
  0003d	5d		 pop	 ebp
  0003e	c2 10 00	 ret	 16			; 00000010H
?GetWakeDate@MWeeklyTimer@@QAEXAAH000@Z ENDP		; MWeeklyTimer::GetWakeDate
_TEXT	ENDS
; Function compile flags: /Odtp /ZI
; File C:\Mu Online\Mu-GS-Webzen-MC-10093\GameServer\MDate.cpp
;	COMDAT ?Activate@MWeeklyTimer@@QAEXH@Z
_TEXT	SEGMENT
_this$ = -4						; size = 4
_bOn$ = 8						; size = 4
?Activate@MWeeklyTimer@@QAEXH@Z PROC			; MWeeklyTimer::Activate, COMDAT
; _this$ = ecx

; 209  : {

  00000	55		 push	 ebp
  00001	8b ec		 mov	 ebp, esp
  00003	83 ec 44	 sub	 esp, 68			; 00000044H
  00006	53		 push	 ebx
  00007	56		 push	 esi
  00008	57		 push	 edi
  00009	89 4d fc	 mov	 DWORD PTR _this$[ebp], ecx

; 210  : 	m_bActive = bOn;

  0000c	8b 45 fc	 mov	 eax, DWORD PTR _this$[ebp]
  0000f	8b 4d 08	 mov	 ecx, DWORD PTR _bOn$[ebp]
  00012	89 48 20	 mov	 DWORD PTR [eax+32], ecx

; 211  : }

  00015	5f		 pop	 edi
  00016	5e		 pop	 esi
  00017	5b		 pop	 ebx
  00018	8b e5		 mov	 esp, ebp
  0001a	5d		 pop	 ebp
  0001b	c2 04 00	 ret	 4
?Activate@MWeeklyTimer@@QAEXH@Z ENDP			; MWeeklyTimer::Activate
_TEXT	ENDS
; Function compile flags: /Odtp /ZI
; File C:\Mu Online\Mu-GS-Webzen-MC-10093\GameServer\MDate.cpp
;	COMDAT ?Release@MWeeklyTimer@@QAEXXZ
_TEXT	SEGMENT
_this$ = -4						; size = 4
?Release@MWeeklyTimer@@QAEXXZ PROC			; MWeeklyTimer::Release, COMDAT
; _this$ = ecx

; 159  : {

  00000	55		 push	 ebp
  00001	8b ec		 mov	 ebp, esp
  00003	83 ec 44	 sub	 esp, 68			; 00000044H
  00006	53		 push	 ebx
  00007	56		 push	 esi
  00008	57		 push	 edi
  00009	89 4d fc	 mov	 DWORD PTR _this$[ebp], ecx

; 160  : 	Activate(FALSE);

  0000c	6a 00		 push	 0
  0000e	8b 4d fc	 mov	 ecx, DWORD PTR _this$[ebp]
  00011	e8 00 00 00 00	 call	 ?Activate@MWeeklyTimer@@QAEXH@Z ; MWeeklyTimer::Activate

; 161  : }

  00016	5f		 pop	 edi
  00017	5e		 pop	 esi
  00018	5b		 pop	 ebx
  00019	8b e5		 mov	 esp, ebp
  0001b	5d		 pop	 ebp
  0001c	c3		 ret	 0
?Release@MWeeklyTimer@@QAEXXZ ENDP			; MWeeklyTimer::Release
_TEXT	ENDS
; Function compile flags: /Odtp /ZI
; File C:\Mu Online\Mu-GS-Webzen-MC-10093\GameServer\MDate.cpp
;	COMDAT ?Init@MWeeklyTimer@@QAEXHHHHHHP6AXPAV1@PAX@Z1@Z
_TEXT	SEGMENT
_this$ = -4						; size = 4
_iWakeYear$ = 8						; size = 4
_iWakeMonth$ = 12					; size = 4
_iWakeDay$ = 16						; size = 4
_iWakeHour$ = 20					; size = 4
_iTimerDayOfWeek$ = 24					; size = 4
_iTimerHour$ = 28					; size = 4
_pfnWakeCallBack$ = 32					; size = 4
_pArg$ = 36						; size = 4
?Init@MWeeklyTimer@@QAEXHHHHHHP6AXPAV1@PAX@Z1@Z PROC	; MWeeklyTimer::Init, COMDAT
; _this$ = ecx

; 144  : {

  00000	55		 push	 ebp
  00001	8b ec		 mov	 ebp, esp
  00003	83 ec 44	 sub	 esp, 68			; 00000044H
  00006	53		 push	 ebx
  00007	56		 push	 esi
  00008	57		 push	 edi
  00009	89 4d fc	 mov	 DWORD PTR _this$[ebp], ecx

; 145  : 	m_iWakeYear		= iWakeYear;

  0000c	8b 45 fc	 mov	 eax, DWORD PTR _this$[ebp]
  0000f	8b 4d 08	 mov	 ecx, DWORD PTR _iWakeYear$[ebp]
  00012	89 48 04	 mov	 DWORD PTR [eax+4], ecx

; 146  : 	m_iWakeMonth	= iWakeMonth;

  00015	8b 45 fc	 mov	 eax, DWORD PTR _this$[ebp]
  00018	8b 4d 0c	 mov	 ecx, DWORD PTR _iWakeMonth$[ebp]
  0001b	89 48 08	 mov	 DWORD PTR [eax+8], ecx

; 147  : 	m_iWakeDay		= iWakeDay;

  0001e	8b 45 fc	 mov	 eax, DWORD PTR _this$[ebp]
  00021	8b 4d 10	 mov	 ecx, DWORD PTR _iWakeDay$[ebp]
  00024	89 48 0c	 mov	 DWORD PTR [eax+12], ecx

; 148  : 	m_iWakeHour		= iWakeHour;

  00027	8b 45 fc	 mov	 eax, DWORD PTR _this$[ebp]
  0002a	8b 4d 14	 mov	 ecx, DWORD PTR _iWakeHour$[ebp]
  0002d	89 48 10	 mov	 DWORD PTR [eax+16], ecx

; 149  : 
; 150  : 	m_iCheckDayOfWeek	= iTimerDayOfWeek;

  00030	8b 45 fc	 mov	 eax, DWORD PTR _this$[ebp]
  00033	8b 4d 18	 mov	 ecx, DWORD PTR _iTimerDayOfWeek$[ebp]
  00036	89 48 14	 mov	 DWORD PTR [eax+20], ecx

; 151  : 	m_iCheckHour		= iTimerHour;

  00039	8b 45 fc	 mov	 eax, DWORD PTR _this$[ebp]
  0003c	8b 4d 1c	 mov	 ecx, DWORD PTR _iTimerHour$[ebp]
  0003f	89 48 18	 mov	 DWORD PTR [eax+24], ecx

; 152  : 	m_pfnWakeCallBack	= pfnWakeCallBack;

  00042	8b 45 fc	 mov	 eax, DWORD PTR _this$[ebp]
  00045	8b 4d 20	 mov	 ecx, DWORD PTR _pfnWakeCallBack$[ebp]
  00048	89 48 1c	 mov	 DWORD PTR [eax+28], ecx

; 153  : 	m_pArg				= pArg;

  0004b	8b 45 fc	 mov	 eax, DWORD PTR _this$[ebp]
  0004e	8b 4d 24	 mov	 ecx, DWORD PTR _pArg$[ebp]
  00051	89 48 34	 mov	 DWORD PTR [eax+52], ecx

; 154  : }

  00054	5f		 pop	 edi
  00055	5e		 pop	 esi
  00056	5b		 pop	 ebx
  00057	8b e5		 mov	 esp, ebp
  00059	5d		 pop	 ebp
  0005a	c2 20 00	 ret	 32			; 00000020H
?Init@MWeeklyTimer@@QAEXHHHHHHP6AXPAV1@PAX@Z1@Z ENDP	; MWeeklyTimer::Init
_TEXT	ENDS
; Function compile flags: /Odtp /ZI
; File C:\Mu Online\Mu-GS-Webzen-MC-10093\GameServer\MDate.cpp
;	COMDAT ??1MWeeklyTimer@@UAE@XZ
_TEXT	SEGMENT
_this$ = -4						; size = 4
??1MWeeklyTimer@@UAE@XZ PROC				; MWeeklyTimer::~MWeeklyTimer, COMDAT
; _this$ = ecx

; 138  : {

  00000	55		 push	 ebp
  00001	8b ec		 mov	 ebp, esp
  00003	83 ec 44	 sub	 esp, 68			; 00000044H
  00006	53		 push	 ebx
  00007	56		 push	 esi
  00008	57		 push	 edi
  00009	89 4d fc	 mov	 DWORD PTR _this$[ebp], ecx
  0000c	8b 45 fc	 mov	 eax, DWORD PTR _this$[ebp]
  0000f	c7 00 00 00 00
	00		 mov	 DWORD PTR [eax], OFFSET ??_7MWeeklyTimer@@6B@

; 139  : }

  00015	8b 4d fc	 mov	 ecx, DWORD PTR _this$[ebp]
  00018	e8 00 00 00 00	 call	 ??1MuDate@@UAE@XZ	; MuDate::~MuDate
  0001d	5f		 pop	 edi
  0001e	5e		 pop	 esi
  0001f	5b		 pop	 ebx
  00020	8b e5		 mov	 esp, ebp
  00022	5d		 pop	 ebp
  00023	c3		 ret	 0
??1MWeeklyTimer@@UAE@XZ ENDP				; MWeeklyTimer::~MWeeklyTimer
_TEXT	ENDS
; Function compile flags: /Odtp /ZI
; File C:\Mu Online\Mu-GS-Webzen-MC-10093\GameServer\MDate.cpp
;	COMDAT ??0MWeeklyTimer@@QAE@XZ
_TEXT	SEGMENT
_this$ = -4						; size = 4
??0MWeeklyTimer@@QAE@XZ PROC				; MWeeklyTimer::MWeeklyTimer, COMDAT
; _this$ = ecx

; 132  : {

  00000	55		 push	 ebp
  00001	8b ec		 mov	 ebp, esp
  00003	83 ec 44	 sub	 esp, 68			; 00000044H
  00006	53		 push	 ebx
  00007	56		 push	 esi
  00008	57		 push	 edi
  00009	89 4d fc	 mov	 DWORD PTR _this$[ebp], ecx
  0000c	8b 4d fc	 mov	 ecx, DWORD PTR _this$[ebp]
  0000f	e8 00 00 00 00	 call	 ??0MuDate@@QAE@XZ	; MuDate::MuDate
  00014	8b 45 fc	 mov	 eax, DWORD PTR _this$[ebp]
  00017	c7 00 00 00 00
	00		 mov	 DWORD PTR [eax], OFFSET ??_7MWeeklyTimer@@6B@

; 131  : :m_iWakeYear(2000), m_iWakeMonth(1), m_iWakeDay(1), m_iCheckDayOfWeek(0), m_pfnWakeCallBack(NULL), m_bActive(FALSE), m_pArg(NULL)

  0001d	8b 45 fc	 mov	 eax, DWORD PTR _this$[ebp]
  00020	c7 40 04 d0 07
	00 00		 mov	 DWORD PTR [eax+4], 2000	; 000007d0H
  00027	8b 45 fc	 mov	 eax, DWORD PTR _this$[ebp]
  0002a	c7 40 08 01 00
	00 00		 mov	 DWORD PTR [eax+8], 1
  00031	8b 45 fc	 mov	 eax, DWORD PTR _this$[ebp]
  00034	c7 40 0c 01 00
	00 00		 mov	 DWORD PTR [eax+12], 1
  0003b	8b 45 fc	 mov	 eax, DWORD PTR _this$[ebp]
  0003e	c7 40 14 00 00
	00 00		 mov	 DWORD PTR [eax+20], 0
  00045	8b 45 fc	 mov	 eax, DWORD PTR _this$[ebp]
  00048	c7 40 1c 00 00
	00 00		 mov	 DWORD PTR [eax+28], 0
  0004f	8b 45 fc	 mov	 eax, DWORD PTR _this$[ebp]
  00052	c7 40 20 00 00
	00 00		 mov	 DWORD PTR [eax+32], 0
  00059	8b 45 fc	 mov	 eax, DWORD PTR _this$[ebp]
  0005c	c7 40 34 00 00
	00 00		 mov	 DWORD PTR [eax+52], 0

; 133  : }

  00063	8b 45 fc	 mov	 eax, DWORD PTR _this$[ebp]
  00066	5f		 pop	 edi
  00067	5e		 pop	 esi
  00068	5b		 pop	 ebx
  00069	8b e5		 mov	 esp, ebp
  0006b	5d		 pop	 ebp
  0006c	c3		 ret	 0
??0MWeeklyTimer@@QAE@XZ ENDP				; MWeeklyTimer::MWeeklyTimer
_TEXT	ENDS
; Function compile flags: /Odtp /ZI
;	COMDAT ??_GMuDate@@UAEPAXI@Z
_TEXT	SEGMENT
_this$ = -4						; size = 4
___flags$ = 8						; size = 4
??_GMuDate@@UAEPAXI@Z PROC				; MuDate::`scalar deleting destructor', COMDAT
; _this$ = ecx
  00000	55		 push	 ebp
  00001	8b ec		 mov	 ebp, esp
  00003	83 ec 44	 sub	 esp, 68			; 00000044H
  00006	53		 push	 ebx
  00007	56		 push	 esi
  00008	57		 push	 edi
  00009	89 4d fc	 mov	 DWORD PTR _this$[ebp], ecx
  0000c	8b 4d fc	 mov	 ecx, DWORD PTR _this$[ebp]
  0000f	e8 00 00 00 00	 call	 ??1MuDate@@UAE@XZ	; MuDate::~MuDate
  00014	8b 45 08	 mov	 eax, DWORD PTR ___flags$[ebp]
  00017	83 e0 01	 and	 eax, 1
  0001a	74 0e		 je	 SHORT $LN2@scalar
  0001c	6a 04		 push	 4
  0001e	8b 45 fc	 mov	 eax, DWORD PTR _this$[ebp]
  00021	50		 push	 eax
  00022	e8 00 00 00 00	 call	 ??3@YAXPAXI@Z		; operator delete
  00027	83 c4 08	 add	 esp, 8
$LN2@scalar:
  0002a	8b 45 fc	 mov	 eax, DWORD PTR _this$[ebp]
  0002d	5f		 pop	 edi
  0002e	5e		 pop	 esi
  0002f	5b		 pop	 ebx
  00030	8b e5		 mov	 esp, ebp
  00032	5d		 pop	 ebp
  00033	c2 04 00	 ret	 4
??_GMuDate@@UAEPAXI@Z ENDP				; MuDate::`scalar deleting destructor'
_TEXT	ENDS
; Function compile flags: /Odtp /ZI
; File C:\Mu Online\Mu-GS-Webzen-MC-10093\GameServer\MDate.cpp
;	COMDAT ?Compare@MuDate@@QAEHHHHHHHHH@Z
_TEXT	SEGMENT
_this$ = -4						; size = 4
_iYear1$ = 8						; size = 4
_iMonth1$ = 12						; size = 4
_iDay1$ = 16						; size = 4
_iHour1$ = 20						; size = 4
_iYear2$ = 24						; size = 4
_iMonth2$ = 28						; size = 4
_iDay2$ = 32						; size = 4
_iHour2$ = 36						; size = 4
?Compare@MuDate@@QAEHHHHHHHHH@Z PROC			; MuDate::Compare, COMDAT
; _this$ = ecx

; 95   : {

  00000	55		 push	 ebp
  00001	8b ec		 mov	 ebp, esp
  00003	83 ec 44	 sub	 esp, 68			; 00000044H
  00006	53		 push	 ebx
  00007	56		 push	 esi
  00008	57		 push	 edi
  00009	89 4d fc	 mov	 DWORD PTR _this$[ebp], ecx

; 96   : /*
; 97   : 	if((iYear1 == iYear2) && (iMonth1 == iMonth2) && (iDay1 == iDay2))
; 98   : 	{
; 99   : 		return 0;
; 100  : 	}
; 101  : 
; 102  : 	if( ((iYear1 == iYear2) && (iMonth1 == iMonth2) && (iDay1 > iDay2)) ||
; 103  : 		((iYear1 == iYear2) && (iMonth1 > iMonth2)) ||
; 104  : 		((iYear1 > iYear2)) )
; 105  : 	{
; 106  : 		return 1;
; 107  : 	}
; 108  : 
; 109  : 	return(-1);
; 110  : */
; 111  : 
; 112  : 	if((iYear1 == iYear2) && (iMonth1 == iMonth2) && (iDay1 == iDay2) && (iHour1 == iHour2))

  0000c	8b 45 08	 mov	 eax, DWORD PTR _iYear1$[ebp]
  0000f	3b 45 18	 cmp	 eax, DWORD PTR _iYear2$[ebp]
  00012	75 1c		 jne	 SHORT $LN2@Compare
  00014	8b 45 0c	 mov	 eax, DWORD PTR _iMonth1$[ebp]
  00017	3b 45 1c	 cmp	 eax, DWORD PTR _iMonth2$[ebp]
  0001a	75 14		 jne	 SHORT $LN2@Compare
  0001c	8b 45 10	 mov	 eax, DWORD PTR _iDay1$[ebp]
  0001f	3b 45 20	 cmp	 eax, DWORD PTR _iDay2$[ebp]
  00022	75 0c		 jne	 SHORT $LN2@Compare
  00024	8b 45 14	 mov	 eax, DWORD PTR _iHour1$[ebp]
  00027	3b 45 24	 cmp	 eax, DWORD PTR _iHour2$[ebp]
  0002a	75 04		 jne	 SHORT $LN2@Compare

; 113  : 	{
; 114  : 		return 0;

  0002c	33 c0		 xor	 eax, eax
  0002e	eb 5a		 jmp	 SHORT $LN1@Compare
$LN2@Compare:

; 115  : 	}
; 116  : 
; 117  : 	if( ((iYear1 == iYear2) && (iMonth1 == iMonth2) && (iDay1 == iDay2) && (iHour1 > iHour2)) ||
; 118  : 		((iYear1 == iYear2) && (iMonth1 == iMonth2) && (iDay1 > iDay2)) ||
; 119  : 		((iYear1 == iYear2) && (iMonth1 > iMonth2)) ||

  00030	8b 45 08	 mov	 eax, DWORD PTR _iYear1$[ebp]
  00033	3b 45 18	 cmp	 eax, DWORD PTR _iYear2$[ebp]
  00036	75 18		 jne	 SHORT $LN5@Compare
  00038	8b 45 0c	 mov	 eax, DWORD PTR _iMonth1$[ebp]
  0003b	3b 45 1c	 cmp	 eax, DWORD PTR _iMonth2$[ebp]
  0003e	75 10		 jne	 SHORT $LN5@Compare
  00040	8b 45 10	 mov	 eax, DWORD PTR _iDay1$[ebp]
  00043	3b 45 20	 cmp	 eax, DWORD PTR _iDay2$[ebp]
  00046	75 08		 jne	 SHORT $LN5@Compare
  00048	8b 45 14	 mov	 eax, DWORD PTR _iHour1$[ebp]
  0004b	3b 45 24	 cmp	 eax, DWORD PTR _iHour2$[ebp]
  0004e	7f 30		 jg	 SHORT $LN4@Compare
$LN5@Compare:
  00050	8b 45 08	 mov	 eax, DWORD PTR _iYear1$[ebp]
  00053	3b 45 18	 cmp	 eax, DWORD PTR _iYear2$[ebp]
  00056	75 10		 jne	 SHORT $LN6@Compare
  00058	8b 45 0c	 mov	 eax, DWORD PTR _iMonth1$[ebp]
  0005b	3b 45 1c	 cmp	 eax, DWORD PTR _iMonth2$[ebp]
  0005e	75 08		 jne	 SHORT $LN6@Compare
  00060	8b 45 10	 mov	 eax, DWORD PTR _iDay1$[ebp]
  00063	3b 45 20	 cmp	 eax, DWORD PTR _iDay2$[ebp]
  00066	7f 18		 jg	 SHORT $LN4@Compare
$LN6@Compare:
  00068	8b 45 08	 mov	 eax, DWORD PTR _iYear1$[ebp]
  0006b	3b 45 18	 cmp	 eax, DWORD PTR _iYear2$[ebp]
  0006e	75 08		 jne	 SHORT $LN7@Compare
  00070	8b 45 0c	 mov	 eax, DWORD PTR _iMonth1$[ebp]
  00073	3b 45 1c	 cmp	 eax, DWORD PTR _iMonth2$[ebp]
  00076	7f 08		 jg	 SHORT $LN4@Compare
$LN7@Compare:
  00078	8b 45 08	 mov	 eax, DWORD PTR _iYear1$[ebp]
  0007b	3b 45 18	 cmp	 eax, DWORD PTR _iYear2$[ebp]
  0007e	7e 07		 jle	 SHORT $LN3@Compare
$LN4@Compare:

; 120  : 		((iYear1 > iYear2)) )
; 121  : 	{
; 122  : 		return 1;

  00080	b8 01 00 00 00	 mov	 eax, 1
  00085	eb 03		 jmp	 SHORT $LN1@Compare
$LN3@Compare:

; 123  : 	}
; 124  : 
; 125  : 	return(-1);

  00087	83 c8 ff	 or	 eax, -1
$LN1@Compare:

; 126  : }

  0008a	5f		 pop	 edi
  0008b	5e		 pop	 esi
  0008c	5b		 pop	 ebx
  0008d	8b e5		 mov	 esp, ebp
  0008f	5d		 pop	 ebp
  00090	c2 20 00	 ret	 32			; 00000020H
?Compare@MuDate@@QAEHHHHHHHHH@Z ENDP			; MuDate::Compare
_TEXT	ENDS
; Function compile flags: /Odtp /ZI
; File C:\Mu Online\Mu-GS-Webzen-MC-10093\GameServer\MDate.cpp
;	COMDAT ?GetLastDate@MuDate@@QAEXHAAH00@Z
_TEXT	SEGMENT
_minusday$ = -12					; size = 4
_wWeekOfDay$ = -8					; size = 4
_this$ = -4						; size = 4
_iInDayOfWeek$ = 8					; size = 4
_iYear$ = 12						; size = 4
_iMonth$ = 16						; size = 4
_iDay$ = 20						; size = 4
?GetLastDate@MuDate@@QAEXHAAH00@Z PROC			; MuDate::GetLastDate, COMDAT
; _this$ = ecx

; 65   : {

  00000	55		 push	 ebp
  00001	8b ec		 mov	 ebp, esp
  00003	83 ec 4c	 sub	 esp, 76			; 0000004cH
  00006	53		 push	 ebx
  00007	56		 push	 esi
  00008	57		 push	 edi
  00009	89 4d fc	 mov	 DWORD PTR _this$[ebp], ecx

; 66   : 	int wWeekOfDay;
; 67   : 	int minusday;
; 68   : 
; 69   : 	wWeekOfDay = GetDay(iYear, iMonth, iDay);

  0000c	8b 45 14	 mov	 eax, DWORD PTR _iDay$[ebp]
  0000f	8b 08		 mov	 ecx, DWORD PTR [eax]
  00011	51		 push	 ecx
  00012	8b 55 10	 mov	 edx, DWORD PTR _iMonth$[ebp]
  00015	8b 02		 mov	 eax, DWORD PTR [edx]
  00017	50		 push	 eax
  00018	8b 4d 0c	 mov	 ecx, DWORD PTR _iYear$[ebp]
  0001b	8b 11		 mov	 edx, DWORD PTR [ecx]
  0001d	52		 push	 edx
  0001e	8b 4d fc	 mov	 ecx, DWORD PTR _this$[ebp]
  00021	e8 00 00 00 00	 call	 ?GetDay@MuDate@@QAEHHHH@Z ; MuDate::GetDay
  00026	89 45 f8	 mov	 DWORD PTR _wWeekOfDay$[ebp], eax

; 70   : 	minusday = ((wWeekOfDay + 7) - iInDayOfWeek) % 7;

  00029	8b 45 f8	 mov	 eax, DWORD PTR _wWeekOfDay$[ebp]
  0002c	83 c0 07	 add	 eax, 7
  0002f	2b 45 08	 sub	 eax, DWORD PTR _iInDayOfWeek$[ebp]
  00032	99		 cdq
  00033	b9 07 00 00 00	 mov	 ecx, 7
  00038	f7 f9		 idiv	 ecx
  0003a	89 55 f4	 mov	 DWORD PTR _minusday$[ebp], edx

; 71   : 
; 72   : 	if(iDay > minusday)

  0003d	8b 45 14	 mov	 eax, DWORD PTR _iDay$[ebp]
  00040	8b 08		 mov	 ecx, DWORD PTR [eax]
  00042	3b 4d f4	 cmp	 ecx, DWORD PTR _minusday$[ebp]
  00045	7e 0f		 jle	 SHORT $LN2@GetLastDat

; 73   : 	{
; 74   : 		iDay -= minusday;

  00047	8b 45 14	 mov	 eax, DWORD PTR _iDay$[ebp]
  0004a	8b 08		 mov	 ecx, DWORD PTR [eax]
  0004c	2b 4d f4	 sub	 ecx, DWORD PTR _minusday$[ebp]
  0004f	8b 55 14	 mov	 edx, DWORD PTR _iDay$[ebp]
  00052	89 0a		 mov	 DWORD PTR [edx], ecx

; 75   : 	}

  00054	eb 54		 jmp	 SHORT $LN1@GetLastDat
$LN2@GetLastDat:

; 76   : 	else
; 77   : 	{
; 78   : 		minusday -= iDay;

  00056	8b 45 14	 mov	 eax, DWORD PTR _iDay$[ebp]
  00059	8b 4d f4	 mov	 ecx, DWORD PTR _minusday$[ebp]
  0005c	2b 08		 sub	 ecx, DWORD PTR [eax]
  0005e	89 4d f4	 mov	 DWORD PTR _minusday$[ebp], ecx

; 79   : 		if(iMonth == 1)

  00061	8b 45 10	 mov	 eax, DWORD PTR _iMonth$[ebp]
  00064	83 38 01	 cmp	 DWORD PTR [eax], 1
  00067	75 18		 jne	 SHORT $LN4@GetLastDat

; 80   : 		{
; 81   : 			iMonth = 12;

  00069	8b 45 10	 mov	 eax, DWORD PTR _iMonth$[ebp]
  0006c	c7 00 0c 00 00
	00		 mov	 DWORD PTR [eax], 12	; 0000000cH

; 82   : 			iYear--;

  00072	8b 45 0c	 mov	 eax, DWORD PTR _iYear$[ebp]
  00075	8b 08		 mov	 ecx, DWORD PTR [eax]
  00077	83 e9 01	 sub	 ecx, 1
  0007a	8b 55 0c	 mov	 edx, DWORD PTR _iYear$[ebp]
  0007d	89 0a		 mov	 DWORD PTR [edx], ecx

; 83   : 		}

  0007f	eb 0d		 jmp	 SHORT $LN5@GetLastDat
$LN4@GetLastDat:

; 84   : 		else
; 85   : 		{
; 86   : 			iMonth--;

  00081	8b 45 10	 mov	 eax, DWORD PTR _iMonth$[ebp]
  00084	8b 08		 mov	 ecx, DWORD PTR [eax]
  00086	83 e9 01	 sub	 ecx, 1
  00089	8b 55 10	 mov	 edx, DWORD PTR _iMonth$[ebp]
  0008c	89 0a		 mov	 DWORD PTR [edx], ecx
$LN5@GetLastDat:

; 87   : 		}
; 88   : 		iDay = GetDaysInMonth(iYear, iMonth) - minusday;

  0008e	8b 45 10	 mov	 eax, DWORD PTR _iMonth$[ebp]
  00091	8b 08		 mov	 ecx, DWORD PTR [eax]
  00093	51		 push	 ecx
  00094	8b 55 0c	 mov	 edx, DWORD PTR _iYear$[ebp]
  00097	8b 02		 mov	 eax, DWORD PTR [edx]
  00099	50		 push	 eax
  0009a	8b 4d fc	 mov	 ecx, DWORD PTR _this$[ebp]
  0009d	e8 00 00 00 00	 call	 ?GetDaysInMonth@MuDate@@QAEHHH@Z ; MuDate::GetDaysInMonth
  000a2	2b 45 f4	 sub	 eax, DWORD PTR _minusday$[ebp]
  000a5	8b 4d 14	 mov	 ecx, DWORD PTR _iDay$[ebp]
  000a8	89 01		 mov	 DWORD PTR [ecx], eax
$LN1@GetLastDat:

; 89   : 	}
; 90   : }

  000aa	5f		 pop	 edi
  000ab	5e		 pop	 esi
  000ac	5b		 pop	 ebx
  000ad	8b e5		 mov	 esp, ebp
  000af	5d		 pop	 ebp
  000b0	c2 10 00	 ret	 16			; 00000010H
?GetLastDate@MuDate@@QAEXHAAH00@Z ENDP			; MuDate::GetLastDate
_TEXT	ENDS
; Function compile flags: /Odtp /ZI
; File C:\Mu Online\Mu-GS-Webzen-MC-10093\GameServer\MDate.cpp
;	COMDAT ?GetDaysInMonth@MuDate@@QAEHHH@Z
_TEXT	SEGMENT
tv70 = -72						; size = 4
tv64 = -72						; size = 4
_this$ = -4						; size = 4
_year$ = 8						; size = 4
_month$ = 12						; size = 4
?GetDaysInMonth@MuDate@@QAEHHH@Z PROC			; MuDate::GetDaysInMonth, COMDAT
; _this$ = ecx

; 50   : {

  00000	55		 push	 ebp
  00001	8b ec		 mov	 ebp, esp
  00003	83 ec 48	 sub	 esp, 72			; 00000048H
  00006	53		 push	 ebx
  00007	56		 push	 esi
  00008	57		 push	 edi
  00009	89 4d fc	 mov	 DWORD PTR _this$[ebp], ecx

; 51   : 	switch (month)

  0000c	8b 45 0c	 mov	 eax, DWORD PTR _month$[ebp]
  0000f	89 45 b8	 mov	 DWORD PTR tv64[ebp], eax
  00012	8b 4d b8	 mov	 ecx, DWORD PTR tv64[ebp]
  00015	83 e9 02	 sub	 ecx, 2
  00018	89 4d b8	 mov	 DWORD PTR tv64[ebp], ecx
  0001b	83 7d b8 09	 cmp	 DWORD PTR tv64[ebp], 9
  0001f	77 40		 ja	 SHORT $LN6@GetDaysInM
  00021	8b 55 b8	 mov	 edx, DWORD PTR tv64[ebp]
  00024	0f b6 82 00 00
	00 00		 movzx	 eax, BYTE PTR $LN10@GetDaysInM[edx]
  0002b	ff 24 85 00 00
	00 00		 jmp	 DWORD PTR $LN11@GetDaysInM[eax*4]
$LN4@GetDaysInM:

; 52   : 	{
; 53   : 		case 2: return IsLeapYear(year) ? 29 : 28;

  00032	8b 45 08	 mov	 eax, DWORD PTR _year$[ebp]
  00035	50		 push	 eax
  00036	8b 4d fc	 mov	 ecx, DWORD PTR _this$[ebp]
  00039	e8 00 00 00 00	 call	 ?IsLeapYear@MuDate@@QAE_NH@Z ; MuDate::IsLeapYear
  0003e	0f b6 c8	 movzx	 ecx, al
  00041	85 c9		 test	 ecx, ecx
  00043	74 09		 je	 SHORT $LN8@GetDaysInM
  00045	c7 45 b8 1d 00
	00 00		 mov	 DWORD PTR tv70[ebp], 29	; 0000001dH
  0004c	eb 07		 jmp	 SHORT $LN9@GetDaysInM
$LN8@GetDaysInM:
  0004e	c7 45 b8 1c 00
	00 00		 mov	 DWORD PTR tv70[ebp], 28	; 0000001cH
$LN9@GetDaysInM:
  00055	8b 45 b8	 mov	 eax, DWORD PTR tv70[ebp]
  00058	eb 0c		 jmp	 SHORT $LN1@GetDaysInM
$LN5@GetDaysInM:

; 54   : 		case 4:
; 55   : 		case 6:
; 56   : 		case 9:
; 57   : 		case 11: return 30;

  0005a	b8 1e 00 00 00	 mov	 eax, 30			; 0000001eH
  0005f	eb 05		 jmp	 SHORT $LN1@GetDaysInM
$LN6@GetDaysInM:

; 58   : 		default: return 31;

  00061	b8 1f 00 00 00	 mov	 eax, 31			; 0000001fH
$LN1@GetDaysInM:

; 59   : 	}   
; 60   : }

  00066	5f		 pop	 edi
  00067	5e		 pop	 esi
  00068	5b		 pop	 ebx
  00069	8b e5		 mov	 esp, ebp
  0006b	5d		 pop	 ebp
  0006c	c2 08 00	 ret	 8
  0006f	90		 npad	 1
$LN11@GetDaysInM:
  00070	00 00 00 00	 DD	 $LN4@GetDaysInM
  00074	00 00 00 00	 DD	 $LN5@GetDaysInM
  00078	00 00 00 00	 DD	 $LN6@GetDaysInM
$LN10@GetDaysInM:
  0007c	00		 DB	 0
  0007d	02		 DB	 2
  0007e	01		 DB	 1
  0007f	02		 DB	 2
  00080	01		 DB	 1
  00081	02		 DB	 2
  00082	02		 DB	 2
  00083	01		 DB	 1
  00084	02		 DB	 2
  00085	01		 DB	 1
?GetDaysInMonth@MuDate@@QAEHHH@Z ENDP			; MuDate::GetDaysInMonth
_TEXT	ENDS
; Function compile flags: /Odtp /ZI
; File C:\Mu Online\Mu-GS-Webzen-MC-10093\GameServer\MDate.cpp
;	COMDAT ?IsLeapYear@MuDate@@QAE_NH@Z
_TEXT	SEGMENT
tv70 = -72						; size = 4
_this$ = -4						; size = 4
_year$ = 8						; size = 4
?IsLeapYear@MuDate@@QAE_NH@Z PROC			; MuDate::IsLeapYear, COMDAT
; _this$ = ecx

; 42   : {

  00000	55		 push	 ebp
  00001	8b ec		 mov	 ebp, esp
  00003	83 ec 48	 sub	 esp, 72			; 00000048H
  00006	53		 push	 ebx
  00007	56		 push	 esi
  00008	57		 push	 edi
  00009	89 4d fc	 mov	 DWORD PTR _this$[ebp], ecx

; 43   :    return ((year%400==0) || (year%4==0 && year%100!=0));

  0000c	8b 45 08	 mov	 eax, DWORD PTR _year$[ebp]
  0000f	99		 cdq
  00010	b9 90 01 00 00	 mov	 ecx, 400		; 00000190H
  00015	f7 f9		 idiv	 ecx
  00017	85 d2		 test	 edx, edx
  00019	74 2c		 je	 SHORT $LN4@IsLeapYear
  0001b	8b 55 08	 mov	 edx, DWORD PTR _year$[ebp]
  0001e	81 e2 03 00 00
	80		 and	 edx, -2147483645	; 80000003H
  00024	79 05		 jns	 SHORT $LN6@IsLeapYear
  00026	4a		 dec	 edx
  00027	83 ca fc	 or	 edx, -4			; fffffffcH
  0002a	42		 inc	 edx
$LN6@IsLeapYear:
  0002b	85 d2		 test	 edx, edx
  0002d	75 0f		 jne	 SHORT $LN3@IsLeapYear
  0002f	8b 45 08	 mov	 eax, DWORD PTR _year$[ebp]
  00032	99		 cdq
  00033	b9 64 00 00 00	 mov	 ecx, 100		; 00000064H
  00038	f7 f9		 idiv	 ecx
  0003a	85 d2		 test	 edx, edx
  0003c	75 09		 jne	 SHORT $LN4@IsLeapYear
$LN3@IsLeapYear:
  0003e	c7 45 b8 00 00
	00 00		 mov	 DWORD PTR tv70[ebp], 0
  00045	eb 07		 jmp	 SHORT $LN5@IsLeapYear
$LN4@IsLeapYear:
  00047	c7 45 b8 01 00
	00 00		 mov	 DWORD PTR tv70[ebp], 1
$LN5@IsLeapYear:
  0004e	8a 45 b8	 mov	 al, BYTE PTR tv70[ebp]

; 44   : }

  00051	5f		 pop	 edi
  00052	5e		 pop	 esi
  00053	5b		 pop	 ebx
  00054	8b e5		 mov	 esp, ebp
  00056	5d		 pop	 ebp
  00057	c2 04 00	 ret	 4
?IsLeapYear@MuDate@@QAE_NH@Z ENDP			; MuDate::IsLeapYear
_TEXT	ENDS
; Function compile flags: /Odtp /ZI
; File C:\Mu Online\Mu-GS-Webzen-MC-10093\GameServer\MDate.cpp
;	COMDAT ?GetDay@MuDate@@QAEHHHH@Z
_TEXT	SEGMENT
_day$ = -16						; size = 4
_year2$ = -12						; size = 4
_year1$ = -8						; size = 4
_this$ = -4						; size = 4
_year$ = 8						; size = 4
_month$ = 12						; size = 4
_date$ = 16						; size = 4
?GetDay@MuDate@@QAEHHHH@Z PROC				; MuDate::GetDay, COMDAT
; _this$ = ecx

; 19   : {

  00000	55		 push	 ebp
  00001	8b ec		 mov	 ebp, esp
  00003	83 ec 50	 sub	 esp, 80			; 00000050H
  00006	53		 push	 ebx
  00007	56		 push	 esi
  00008	57		 push	 edi
  00009	89 4d fc	 mov	 DWORD PTR _this$[ebp], ecx

; 20   : 	int year1;
; 21   : 	int year2;
; 22   : 	int day;
; 23   : 
; 24   : 	if(month < 3)

  0000c	83 7d 0c 03	 cmp	 DWORD PTR _month$[ebp], 3
  00010	7d 12		 jge	 SHORT $LN2@GetDay

; 25   : 	{
; 26   : 		year--;

  00012	8b 45 08	 mov	 eax, DWORD PTR _year$[ebp]
  00015	83 e8 01	 sub	 eax, 1
  00018	89 45 08	 mov	 DWORD PTR _year$[ebp], eax

; 27   : 		month += 12;

  0001b	8b 45 0c	 mov	 eax, DWORD PTR _month$[ebp]
  0001e	83 c0 0c	 add	 eax, 12			; 0000000cH
  00021	89 45 0c	 mov	 DWORD PTR _month$[ebp], eax
$LN2@GetDay:

; 28   : 	}
; 29   : 
; 30   : 	year1 = year / 100;

  00024	8b 45 08	 mov	 eax, DWORD PTR _year$[ebp]
  00027	99		 cdq
  00028	b9 64 00 00 00	 mov	 ecx, 100		; 00000064H
  0002d	f7 f9		 idiv	 ecx
  0002f	89 45 f8	 mov	 DWORD PTR _year1$[ebp], eax

; 31   : 	year2 = year % 100;

  00032	8b 45 08	 mov	 eax, DWORD PTR _year$[ebp]
  00035	99		 cdq
  00036	b9 64 00 00 00	 mov	 ecx, 100		; 00000064H
  0003b	f7 f9		 idiv	 ecx
  0003d	89 55 f4	 mov	 DWORD PTR _year2$[ebp], edx

; 32   : 
; 33   : 	day = 21*year1/4 + 5*year2/4 + 26*(month+1)/10 + date - 1;

  00040	6b 45 f8 15	 imul	 eax, DWORD PTR _year1$[ebp], 21
  00044	99		 cdq
  00045	83 e2 03	 and	 edx, 3
  00048	03 c2		 add	 eax, edx
  0004a	8b c8		 mov	 ecx, eax
  0004c	c1 f9 02	 sar	 ecx, 2
  0004f	6b 45 f4 05	 imul	 eax, DWORD PTR _year2$[ebp], 5
  00053	99		 cdq
  00054	83 e2 03	 and	 edx, 3
  00057	03 c2		 add	 eax, edx
  00059	c1 f8 02	 sar	 eax, 2
  0005c	03 c8		 add	 ecx, eax
  0005e	8b 55 0c	 mov	 edx, DWORD PTR _month$[ebp]
  00061	83 c2 01	 add	 edx, 1
  00064	6b c2 1a	 imul	 eax, edx, 26
  00067	99		 cdq
  00068	be 0a 00 00 00	 mov	 esi, 10			; 0000000aH
  0006d	f7 fe		 idiv	 esi
  0006f	03 4d 10	 add	 ecx, DWORD PTR _date$[ebp]
  00072	8d 44 08 ff	 lea	 eax, DWORD PTR [eax+ecx-1]
  00076	89 45 f0	 mov	 DWORD PTR _day$[ebp], eax

; 34   : 	day %= 7;

  00079	8b 45 f0	 mov	 eax, DWORD PTR _day$[ebp]
  0007c	99		 cdq
  0007d	b9 07 00 00 00	 mov	 ecx, 7
  00082	f7 f9		 idiv	 ecx
  00084	89 55 f0	 mov	 DWORD PTR _day$[ebp], edx

; 35   : 
; 36   : 	return(day);

  00087	8b 45 f0	 mov	 eax, DWORD PTR _day$[ebp]

; 37   : }

  0008a	5f		 pop	 edi
  0008b	5e		 pop	 esi
  0008c	5b		 pop	 ebx
  0008d	8b e5		 mov	 esp, ebp
  0008f	5d		 pop	 ebp
  00090	c2 0c 00	 ret	 12			; 0000000cH
?GetDay@MuDate@@QAEHHHH@Z ENDP				; MuDate::GetDay
_TEXT	ENDS
; Function compile flags: /Odtp /ZI
; File C:\Mu Online\Mu-GS-Webzen-MC-10093\GameServer\MDate.cpp
;	COMDAT ??1MuDate@@UAE@XZ
_TEXT	SEGMENT
_this$ = -4						; size = 4
??1MuDate@@UAE@XZ PROC					; MuDate::~MuDate, COMDAT
; _this$ = ecx

; 13   : {

  00000	55		 push	 ebp
  00001	8b ec		 mov	 ebp, esp
  00003	83 ec 44	 sub	 esp, 68			; 00000044H
  00006	53		 push	 ebx
  00007	56		 push	 esi
  00008	57		 push	 edi
  00009	89 4d fc	 mov	 DWORD PTR _this$[ebp], ecx
  0000c	8b 45 fc	 mov	 eax, DWORD PTR _this$[ebp]
  0000f	c7 00 00 00 00
	00		 mov	 DWORD PTR [eax], OFFSET ??_7MuDate@@6B@

; 14   : }

  00015	5f		 pop	 edi
  00016	5e		 pop	 esi
  00017	5b		 pop	 ebx
  00018	8b e5		 mov	 esp, ebp
  0001a	5d		 pop	 ebp
  0001b	c3		 ret	 0
??1MuDate@@UAE@XZ ENDP					; MuDate::~MuDate
_TEXT	ENDS
; Function compile flags: /Odtp /ZI
; File C:\Mu Online\Mu-GS-Webzen-MC-10093\GameServer\MDate.cpp
;	COMDAT ??0MuDate@@QAE@XZ
_TEXT	SEGMENT
_this$ = -4						; size = 4
??0MuDate@@QAE@XZ PROC					; MuDate::MuDate, COMDAT
; _this$ = ecx

; 7    : {

  00000	55		 push	 ebp
  00001	8b ec		 mov	 ebp, esp
  00003	83 ec 44	 sub	 esp, 68			; 00000044H
  00006	53		 push	 ebx
  00007	56		 push	 esi
  00008	57		 push	 edi
  00009	89 4d fc	 mov	 DWORD PTR _this$[ebp], ecx
  0000c	8b 45 fc	 mov	 eax, DWORD PTR _this$[ebp]
  0000f	c7 00 00 00 00
	00		 mov	 DWORD PTR [eax], OFFSET ??_7MuDate@@6B@

; 8    : }

  00015	8b 45 fc	 mov	 eax, DWORD PTR _this$[ebp]
  00018	5f		 pop	 edi
  00019	5e		 pop	 esi
  0001a	5b		 pop	 ebx
  0001b	8b e5		 mov	 esp, ebp
  0001d	5d		 pop	 ebp
  0001e	c3		 ret	 0
??0MuDate@@QAE@XZ ENDP					; MuDate::MuDate
_TEXT	ENDS
; Function compile flags: /Odtp /ZI
; File C:\Mu Online\Mu-GS-Webzen-MC-10093\GameServer\MDate.cpp
;	COMDAT ?__empty_global_delete@@YAXPAXI@Z
_TEXT	SEGMENT
___formal$ = 8						; size = 4
___formal$ = 12						; size = 4
?__empty_global_delete@@YAXPAXI@Z PROC			; __empty_global_delete, COMDAT

  00000	55		 push	 ebp
  00001	8b ec		 mov	 ebp, esp
  00003	83 ec 40	 sub	 esp, 64			; 00000040H
  00006	53		 push	 ebx
  00007	56		 push	 esi
  00008	57		 push	 edi
  00009	5f		 pop	 edi
  0000a	5e		 pop	 esi
  0000b	5b		 pop	 ebx
  0000c	8b e5		 mov	 esp, ebp
  0000e	5d		 pop	 ebp
  0000f	c3		 ret	 0
?__empty_global_delete@@YAXPAXI@Z ENDP			; __empty_global_delete
_TEXT	ENDS
; Function compile flags: /Odtp /ZI
; File C:\Mu Online\Mu-GS-Webzen-MC-10093\GameServer\MDate.cpp
;	COMDAT ?__empty_global_delete@@YAXPAX@Z
_TEXT	SEGMENT
___formal$ = 8						; size = 4
?__empty_global_delete@@YAXPAX@Z PROC			; __empty_global_delete, COMDAT

  00000	55		 push	 ebp
  00001	8b ec		 mov	 ebp, esp
  00003	83 ec 40	 sub	 esp, 64			; 00000040H
  00006	53		 push	 ebx
  00007	56		 push	 esi
  00008	57		 push	 edi
  00009	5f		 pop	 edi
  0000a	5e		 pop	 esi
  0000b	5b		 pop	 ebx
  0000c	8b e5		 mov	 esp, ebp
  0000e	5d		 pop	 ebp
  0000f	c3		 ret	 0
?__empty_global_delete@@YAXPAX@Z ENDP			; __empty_global_delete
_TEXT	ENDS
END
