; Listing generated by Microsoft (R) Optimizing Compiler Version 19.27.29111.0 

	TITLE	C:\Mu Online\Mu-GS-Webzen-MC-10093\GameServer\MonsterAttr.cpp
	.686P
	.XMM
	include listing.inc
	.model	flat

INCLUDELIB LIBCMT
INCLUDELIB OLDNAMES

PUBLIC	?__empty_global_delete@@YAXPAX@Z		; __empty_global_delete
PUBLIC	?__empty_global_delete@@YAXPAXI@Z		; __empty_global_delete
PUBLIC	?GetAttr@CMonsterAttr@@QAEPAUMONSTER_ATTRIBUTE@@H@Z ; CMonsterAttr::GetAttr
PUBLIC	?GetAttr@CMonsterAttr@@QAEPAUMONSTER_ATTRIBUTE@@PAD@Z ; CMonsterAttr::GetAttr
PUBLIC	?LoadAttr@CMonsterAttr@@QAEXPAD@Z		; CMonsterAttr::LoadAttr
PUBLIC	??0CMonsterAttr@@QAE@XZ				; CMonsterAttr::CMonsterAttr
PUBLIC	??1CMonsterAttr@@UAE@XZ				; CMonsterAttr::~CMonsterAttr
PUBLIC	??_GCMonsterAttr@@UAEPAXI@Z			; CMonsterAttr::`scalar deleting destructor'
PUBLIC	??_7CMonsterAttr@@6B@				; CMonsterAttr::`vftable'
PUBLIC	?__LINE__Var@?0??LoadAttr@CMonsterAttr@@QAEXPAD@Z@4JA ; `CMonsterAttr::LoadAttr'::`1'::__LINE__Var
PUBLIC	??_C@_01KDCPPGHE@r@				; `string'
PUBLIC	??_C@_0O@NOCIMNHO@load?5error?5?$CFs@		; `string'
PUBLIC	??_C@_0DO@GLMIANAE@C?3?2Mu?5Online?2Mu?9GS?9Webzen?9MC?910@ ; `string'
PUBLIC	??_C@_0CB@MPDJJDKE@Monster?5attribute?5max?5over?5?$CFs?5?$CF@ ; `string'
PUBLIC	??_R4CMonsterAttr@@6B@				; CMonsterAttr::`RTTI Complete Object Locator'
PUBLIC	??_R0?AVCMonsterAttr@@@8			; CMonsterAttr `RTTI Type Descriptor'
PUBLIC	??_R3CMonsterAttr@@8				; CMonsterAttr::`RTTI Class Hierarchy Descriptor'
PUBLIC	??_R2CMonsterAttr@@8				; CMonsterAttr::`RTTI Base Class Array'
PUBLIC	??_R1A@?0A@EA@CMonsterAttr@@8			; CMonsterAttr::`RTTI Base Class Descriptor at (0,-1,0,64)'
PUBLIC	__real@42c80000
EXTRN	??3@YAXPAXI@Z:PROC				; operator delete
EXTRN	___report_rangecheckfailure:PROC
EXTRN	_isalpha:PROC
EXTRN	_isdigit:PROC
EXTRN	_isspace:PROC
EXTRN	_isalnum:PROC
EXTRN	_strcmp:PROC
EXTRN	_strcpy:PROC
EXTRN	_fclose:PROC
EXTRN	_fgetc:PROC
EXTRN	_fopen:PROC
EXTRN	_getc:PROC
EXTRN	_ungetc:PROC
EXTRN	_atof:PROC
EXTRN	?MsgBox@@YAXPADZZ:PROC				; MsgBox
EXTRN	??_ECMonsterAttr@@UAEPAXI@Z:PROC		; CMonsterAttr::`vector deleting destructor'
EXTRN	@__security_check_cookie@4:PROC
EXTRN	??_7type_info@@6B@:QWORD			; type_info::`vftable'
EXTRN	?gMonsterHp@@3HA:DWORD				; gMonsterHp
EXTRN	___security_cookie:DWORD
EXTRN	__fltused:DWORD
_BSS	SEGMENT
?SMDFile@@3PAU_iobuf@@A DD 01H DUP (?)			; SMDFile
?TokenNumber@@3MA DD 01H DUP (?)			; TokenNumber
?TokenString@@3PADA DB 064H DUP (?)			; TokenString
?CurrentToken@@3W4SMDToken@@A DD 01H DUP (?)		; CurrentToken
_BSS	ENDS
;	COMDAT __real@42c80000
CONST	SEGMENT
__real@42c80000 DD 042c80000r			; 100
CONST	ENDS
;	COMDAT ??_R1A@?0A@EA@CMonsterAttr@@8
rdata$r	SEGMENT
??_R1A@?0A@EA@CMonsterAttr@@8 DD FLAT:??_R0?AVCMonsterAttr@@@8 ; CMonsterAttr::`RTTI Base Class Descriptor at (0,-1,0,64)'
	DD	00H
	DD	00H
	DD	0ffffffffH
	DD	00H
	DD	040H
	DD	FLAT:??_R3CMonsterAttr@@8
rdata$r	ENDS
;	COMDAT ??_R2CMonsterAttr@@8
rdata$r	SEGMENT
??_R2CMonsterAttr@@8 DD FLAT:??_R1A@?0A@EA@CMonsterAttr@@8 ; CMonsterAttr::`RTTI Base Class Array'
rdata$r	ENDS
;	COMDAT ??_R3CMonsterAttr@@8
rdata$r	SEGMENT
??_R3CMonsterAttr@@8 DD 00H				; CMonsterAttr::`RTTI Class Hierarchy Descriptor'
	DD	00H
	DD	01H
	DD	FLAT:??_R2CMonsterAttr@@8
rdata$r	ENDS
;	COMDAT ??_R0?AVCMonsterAttr@@@8
data$r	SEGMENT
??_R0?AVCMonsterAttr@@@8 DD FLAT:??_7type_info@@6B@	; CMonsterAttr `RTTI Type Descriptor'
	DD	00H
	DB	'.?AVCMonsterAttr@@', 00H
data$r	ENDS
;	COMDAT ??_R4CMonsterAttr@@6B@
rdata$r	SEGMENT
??_R4CMonsterAttr@@6B@ DD 00H				; CMonsterAttr::`RTTI Complete Object Locator'
	DD	00H
	DD	00H
	DD	FLAT:??_R0?AVCMonsterAttr@@@8
	DD	FLAT:??_R3CMonsterAttr@@8
rdata$r	ENDS
;	COMDAT ??_C@_0CB@MPDJJDKE@Monster?5attribute?5max?5over?5?$CFs?5?$CF@
CONST	SEGMENT
??_C@_0CB@MPDJJDKE@Monster?5attribute?5max?5over?5?$CFs?5?$CF@ DB 'Monste'
	DB	'r attribute max over %s %d', 00H		; `string'
CONST	ENDS
;	COMDAT ??_C@_0DO@GLMIANAE@C?3?2Mu?5Online?2Mu?9GS?9Webzen?9MC?910@
CONST	SEGMENT
??_C@_0DO@GLMIANAE@C?3?2Mu?5Online?2Mu?9GS?9Webzen?9MC?910@ DB 'C:\Mu Onl'
	DB	'ine\Mu-GS-Webzen-MC-10093\GameServer\MonsterAttr.cpp', 00H ; `string'
CONST	ENDS
;	COMDAT ??_C@_0O@NOCIMNHO@load?5error?5?$CFs@
CONST	SEGMENT
??_C@_0O@NOCIMNHO@load?5error?5?$CFs@ DB 'load error %s', 00H ; `string'
CONST	ENDS
;	COMDAT ??_C@_01KDCPPGHE@r@
CONST	SEGMENT
??_C@_01KDCPPGHE@r@ DB 'r', 00H				; `string'
CONST	ENDS
;	COMDAT ?__LINE__Var@?0??LoadAttr@CMonsterAttr@@QAEXPAD@Z@4JA
_DATA	SEGMENT
?__LINE__Var@?0??LoadAttr@CMonsterAttr@@QAEXPAD@Z@4JA DD 0bbH ; `CMonsterAttr::LoadAttr'::`1'::__LINE__Var
_DATA	ENDS
;	COMDAT ??_7CMonsterAttr@@6B@
CONST	SEGMENT
??_7CMonsterAttr@@6B@ DD FLAT:??_R4CMonsterAttr@@6B@	; CMonsterAttr::`vftable'
	DD	FLAT:??_ECMonsterAttr@@UAEPAXI@Z
CONST	ENDS
; Function compile flags: /Odtp /ZI
;	COMDAT ??_GCMonsterAttr@@UAEPAXI@Z
_TEXT	SEGMENT
_this$ = -4						; size = 4
___flags$ = 8						; size = 4
??_GCMonsterAttr@@UAEPAXI@Z PROC			; CMonsterAttr::`scalar deleting destructor', COMDAT
; _this$ = ecx
  00000	55		 push	 ebp
  00001	8b ec		 mov	 ebp, esp
  00003	83 ec 44	 sub	 esp, 68			; 00000044H
  00006	53		 push	 ebx
  00007	56		 push	 esi
  00008	57		 push	 edi
  00009	89 4d fc	 mov	 DWORD PTR _this$[ebp], ecx
  0000c	8b 4d fc	 mov	 ecx, DWORD PTR _this$[ebp]
  0000f	e8 00 00 00 00	 call	 ??1CMonsterAttr@@UAE@XZ	; CMonsterAttr::~CMonsterAttr
  00014	8b 45 08	 mov	 eax, DWORD PTR ___flags$[ebp]
  00017	83 e0 01	 and	 eax, 1
  0001a	74 11		 je	 SHORT $LN2@scalar
  0001c	68 04 f8 00 00	 push	 63492			; 0000f804H
  00021	8b 45 fc	 mov	 eax, DWORD PTR _this$[ebp]
  00024	50		 push	 eax
  00025	e8 00 00 00 00	 call	 ??3@YAXPAXI@Z		; operator delete
  0002a	83 c4 08	 add	 esp, 8
$LN2@scalar:
  0002d	8b 45 fc	 mov	 eax, DWORD PTR _this$[ebp]
  00030	5f		 pop	 edi
  00031	5e		 pop	 esi
  00032	5b		 pop	 ebx
  00033	8b e5		 mov	 esp, ebp
  00035	5d		 pop	 ebp
  00036	c2 04 00	 ret	 4
??_GCMonsterAttr@@UAEPAXI@Z ENDP			; CMonsterAttr::`scalar deleting destructor'
_TEXT	ENDS
; Function compile flags: /Odtp /ZI
; File C:\Mu Online\Mu-GS-Webzen-MC-10093\GameServer\MonsterAttr.cpp
;	COMDAT ??1CMonsterAttr@@UAE@XZ
_TEXT	SEGMENT
_this$ = -4						; size = 4
??1CMonsterAttr@@UAE@XZ PROC				; CMonsterAttr::~CMonsterAttr, COMDAT
; _this$ = ecx

; 31   : {

  00000	55		 push	 ebp
  00001	8b ec		 mov	 ebp, esp
  00003	83 ec 44	 sub	 esp, 68			; 00000044H
  00006	53		 push	 ebx
  00007	56		 push	 esi
  00008	57		 push	 edi
  00009	89 4d fc	 mov	 DWORD PTR _this$[ebp], ecx
  0000c	8b 45 fc	 mov	 eax, DWORD PTR _this$[ebp]
  0000f	c7 00 00 00 00
	00		 mov	 DWORD PTR [eax], OFFSET ??_7CMonsterAttr@@6B@

; 32   : 
; 33   : }

  00015	5f		 pop	 edi
  00016	5e		 pop	 esi
  00017	5b		 pop	 ebx
  00018	8b e5		 mov	 esp, ebp
  0001a	5d		 pop	 ebp
  0001b	c3		 ret	 0
??1CMonsterAttr@@UAE@XZ ENDP				; CMonsterAttr::~CMonsterAttr
_TEXT	ENDS
; Function compile flags: /Odtp /ZI
; File C:\Mu Online\Mu-GS-Webzen-MC-10093\GameServer\MonsterAttr.cpp
;	COMDAT ??0CMonsterAttr@@QAE@XZ
_TEXT	SEGMENT
_this$ = -4						; size = 4
??0CMonsterAttr@@QAE@XZ PROC				; CMonsterAttr::CMonsterAttr, COMDAT
; _this$ = ecx

; 26   : {

  00000	55		 push	 ebp
  00001	8b ec		 mov	 ebp, esp
  00003	83 ec 44	 sub	 esp, 68			; 00000044H
  00006	53		 push	 ebx
  00007	56		 push	 esi
  00008	57		 push	 edi
  00009	89 4d fc	 mov	 DWORD PTR _this$[ebp], ecx
  0000c	8b 45 fc	 mov	 eax, DWORD PTR _this$[ebp]
  0000f	c7 00 00 00 00
	00		 mov	 DWORD PTR [eax], OFFSET ??_7CMonsterAttr@@6B@

; 27   : 
; 28   : }

  00015	8b 45 fc	 mov	 eax, DWORD PTR _this$[ebp]
  00018	5f		 pop	 edi
  00019	5e		 pop	 esi
  0001a	5b		 pop	 ebx
  0001b	8b e5		 mov	 esp, ebp
  0001d	5d		 pop	 ebp
  0001e	c3		 ret	 0
??0CMonsterAttr@@QAE@XZ ENDP				; CMonsterAttr::CMonsterAttr
_TEXT	ENDS
; Function compile flags: /Odtp /ZI
; File C:\Mu Online\Mu-GS-Webzen-MC-10093\GameServer\MonsterAttr.cpp
;	COMDAT ?LoadAttr@CMonsterAttr@@QAEXPAD@Z
_TEXT	SEGMENT
_n$ = -12						; size = 4
_Token$ = -8						; size = 4
_this$ = -4						; size = 4
_filename$ = 8						; size = 4
?LoadAttr@CMonsterAttr@@QAEXPAD@Z PROC			; CMonsterAttr::LoadAttr, COMDAT
; _this$ = ecx

; 187  : {

  00000	55		 push	 ebp
  00001	8b ec		 mov	 ebp, esp
  00003	83 ec 4c	 sub	 esp, 76			; 0000004cH
  00006	53		 push	 ebx
  00007	56		 push	 esi
  00008	57		 push	 edi
  00009	89 4d fc	 mov	 DWORD PTR _this$[ebp], ecx

; 188  : 	if((SMDFile=fopen(filename,"r")) == NULL)	

  0000c	68 00 00 00 00	 push	 OFFSET ??_C@_01KDCPPGHE@r@
  00011	8b 45 08	 mov	 eax, DWORD PTR _filename$[ebp]
  00014	50		 push	 eax
  00015	e8 00 00 00 00	 call	 _fopen
  0001a	83 c4 08	 add	 esp, 8
  0001d	a3 00 00 00 00	 mov	 DWORD PTR ?SMDFile@@3PAU_iobuf@@A, eax
  00022	83 3d 00 00 00
	00 00		 cmp	 DWORD PTR ?SMDFile@@3PAU_iobuf@@A, 0
  00029	75 16		 jne	 SHORT $LN4@LoadAttr

; 189  : 	{
; 190  : 		MsgBox("load error %s", filename);

  0002b	8b 45 08	 mov	 eax, DWORD PTR _filename$[ebp]
  0002e	50		 push	 eax
  0002f	68 00 00 00 00	 push	 OFFSET ??_C@_0O@NOCIMNHO@load?5error?5?$CFs@
  00034	e8 00 00 00 00	 call	 ?MsgBox@@YAXPADZZ	; MsgBox
  00039	83 c4 08	 add	 esp, 8

; 191  : 		return ;

  0003c	e9 f5 03 00 00	 jmp	 $LN1@LoadAttr
$LN4@LoadAttr:

; 192  : 	}
; 193  : 	SMDToken Token;
; 194  : 	
; 195  : 	int n=0;

  00041	c7 45 f4 00 00
	00 00		 mov	 DWORD PTR _n$[ebp], 0
$LN2@LoadAttr:

; 196  : 
; 197  : 	while( true )

  00048	b8 01 00 00 00	 mov	 eax, 1
  0004d	85 c0		 test	 eax, eax
  0004f	0f 84 d3 03 00
	00		 je	 $LN3@LoadAttr

; 198  : 	{
; 199  : 		Token = (*GetToken)();

  00055	e8 00 00 00 00	 call	 ?GetToken@@YA?AW4SMDToken@@XZ ; GetToken
  0005a	89 45 f8	 mov	 DWORD PTR _Token$[ebp], eax

; 200  : 		if(Token == END) break;

  0005d	83 7d f8 02	 cmp	 DWORD PTR _Token$[ebp], 2
  00061	75 05		 jne	 SHORT $LN5@LoadAttr
  00063	e9 c0 03 00 00	 jmp	 $LN3@LoadAttr
$LN5@LoadAttr:

; 201  : 		if(Token == NUMBER)

  00068	83 7d f8 01	 cmp	 DWORD PTR _Token$[ebp], 1
  0006c	0f 85 b1 03 00
	00		 jne	 $LN7@LoadAttr

; 202  : 		{
; 203  : 			m_MonsterAttr[n].m_Index = (int)TokenNumber;

  00072	f3 0f 2c 05 00
	00 00 00	 cvttss2si eax, DWORD PTR ?TokenNumber@@3MA
  0007a	6b 4d f4 7c	 imul	 ecx, DWORD PTR _n$[ebp], 124
  0007e	8b 55 fc	 mov	 edx, DWORD PTR _this$[ebp]
  00081	89 44 0a 04	 mov	 DWORD PTR [edx+ecx+4], eax

; 204  : 			Token = (*GetToken)(); m_MonsterAttr[n].m_Rate			= (int)TokenNumber;

  00085	e8 00 00 00 00	 call	 ?GetToken@@YA?AW4SMDToken@@XZ ; GetToken
  0008a	89 45 f8	 mov	 DWORD PTR _Token$[ebp], eax
  0008d	f3 0f 2c 05 00
	00 00 00	 cvttss2si eax, DWORD PTR ?TokenNumber@@3MA
  00095	6b 4d f4 7c	 imul	 ecx, DWORD PTR _n$[ebp], 124
  00099	8b 55 fc	 mov	 edx, DWORD PTR _this$[ebp]
  0009c	89 44 0a 08	 mov	 DWORD PTR [edx+ecx+8], eax

; 205  : 			Token = (*GetToken)(); strcpy(m_MonsterAttr[n].m_Name, TokenString);

  000a0	e8 00 00 00 00	 call	 ?GetToken@@YA?AW4SMDToken@@XZ ; GetToken
  000a5	89 45 f8	 mov	 DWORD PTR _Token$[ebp], eax
  000a8	68 00 00 00 00	 push	 OFFSET ?TokenString@@3PADA
  000ad	6b 45 f4 7c	 imul	 eax, DWORD PTR _n$[ebp], 124
  000b1	8b 4d fc	 mov	 ecx, DWORD PTR _this$[ebp]
  000b4	8d 54 01 0c	 lea	 edx, DWORD PTR [ecx+eax+12]
  000b8	52		 push	 edx
  000b9	e8 00 00 00 00	 call	 _strcpy
  000be	83 c4 08	 add	 esp, 8

; 206  : 			Token = (*GetToken)(); m_MonsterAttr[n].m_Level			= (int)TokenNumber;

  000c1	e8 00 00 00 00	 call	 ?GetToken@@YA?AW4SMDToken@@XZ ; GetToken
  000c6	89 45 f8	 mov	 DWORD PTR _Token$[ebp], eax
  000c9	f3 0f 2c 05 00
	00 00 00	 cvttss2si eax, DWORD PTR ?TokenNumber@@3MA
  000d1	6b 4d f4 7c	 imul	 ecx, DWORD PTR _n$[ebp], 124
  000d5	8b 55 fc	 mov	 edx, DWORD PTR _this$[ebp]
  000d8	89 44 0a 20	 mov	 DWORD PTR [edx+ecx+32], eax

; 207  : 			Token = (*GetToken)(); m_MonsterAttr[n].m_Hp			= (int)TokenNumber;

  000dc	e8 00 00 00 00	 call	 ?GetToken@@YA?AW4SMDToken@@XZ ; GetToken
  000e1	89 45 f8	 mov	 DWORD PTR _Token$[ebp], eax
  000e4	f3 0f 2c 05 00
	00 00 00	 cvttss2si eax, DWORD PTR ?TokenNumber@@3MA
  000ec	6b 4d f4 7c	 imul	 ecx, DWORD PTR _n$[ebp], 124
  000f0	8b 55 fc	 mov	 edx, DWORD PTR _this$[ebp]
  000f3	89 44 0a 28	 mov	 DWORD PTR [edx+ecx+40], eax

; 208  : 			Token = (*GetToken)(); m_MonsterAttr[n].m_Mp			= (int)TokenNumber;

  000f7	e8 00 00 00 00	 call	 ?GetToken@@YA?AW4SMDToken@@XZ ; GetToken
  000fc	89 45 f8	 mov	 DWORD PTR _Token$[ebp], eax
  000ff	f3 0f 2c 05 00
	00 00 00	 cvttss2si eax, DWORD PTR ?TokenNumber@@3MA
  00107	6b 4d f4 7c	 imul	 ecx, DWORD PTR _n$[ebp], 124
  0010b	8b 55 fc	 mov	 edx, DWORD PTR _this$[ebp]
  0010e	89 44 0a 2c	 mov	 DWORD PTR [edx+ecx+44], eax

; 209  : 			Token = (*GetToken)(); m_MonsterAttr[n].m_DamageMin		= (int)TokenNumber;

  00112	e8 00 00 00 00	 call	 ?GetToken@@YA?AW4SMDToken@@XZ ; GetToken
  00117	89 45 f8	 mov	 DWORD PTR _Token$[ebp], eax
  0011a	f3 0f 2c 05 00
	00 00 00	 cvttss2si eax, DWORD PTR ?TokenNumber@@3MA
  00122	6b 4d f4 7c	 imul	 ecx, DWORD PTR _n$[ebp], 124
  00126	8b 55 fc	 mov	 edx, DWORD PTR _this$[ebp]
  00129	89 44 0a 30	 mov	 DWORD PTR [edx+ecx+48], eax

; 210  : 			Token = (*GetToken)(); m_MonsterAttr[n].m_DamageMax		= (int)TokenNumber;

  0012d	e8 00 00 00 00	 call	 ?GetToken@@YA?AW4SMDToken@@XZ ; GetToken
  00132	89 45 f8	 mov	 DWORD PTR _Token$[ebp], eax
  00135	f3 0f 2c 05 00
	00 00 00	 cvttss2si eax, DWORD PTR ?TokenNumber@@3MA
  0013d	6b 4d f4 7c	 imul	 ecx, DWORD PTR _n$[ebp], 124
  00141	8b 55 fc	 mov	 edx, DWORD PTR _this$[ebp]
  00144	89 44 0a 34	 mov	 DWORD PTR [edx+ecx+52], eax

; 211  : 			Token = (*GetToken)(); m_MonsterAttr[n].m_Defense		= (int)TokenNumber;

  00148	e8 00 00 00 00	 call	 ?GetToken@@YA?AW4SMDToken@@XZ ; GetToken
  0014d	89 45 f8	 mov	 DWORD PTR _Token$[ebp], eax
  00150	f3 0f 2c 05 00
	00 00 00	 cvttss2si eax, DWORD PTR ?TokenNumber@@3MA
  00158	6b 4d f4 7c	 imul	 ecx, DWORD PTR _n$[ebp], 124
  0015c	8b 55 fc	 mov	 edx, DWORD PTR _this$[ebp]
  0015f	89 44 0a 38	 mov	 DWORD PTR [edx+ecx+56], eax

; 212  : 			Token = (*GetToken)(); m_MonsterAttr[n].m_MagicDefense	= (int)TokenNumber;

  00163	e8 00 00 00 00	 call	 ?GetToken@@YA?AW4SMDToken@@XZ ; GetToken
  00168	89 45 f8	 mov	 DWORD PTR _Token$[ebp], eax
  0016b	f3 0f 2c 05 00
	00 00 00	 cvttss2si eax, DWORD PTR ?TokenNumber@@3MA
  00173	6b 4d f4 7c	 imul	 ecx, DWORD PTR _n$[ebp], 124
  00177	8b 55 fc	 mov	 edx, DWORD PTR _this$[ebp]
  0017a	89 44 0a 3c	 mov	 DWORD PTR [edx+ecx+60], eax

; 213  : 			Token = (*GetToken)(); m_MonsterAttr[n].m_AttackRating	= (int)TokenNumber;

  0017e	e8 00 00 00 00	 call	 ?GetToken@@YA?AW4SMDToken@@XZ ; GetToken
  00183	89 45 f8	 mov	 DWORD PTR _Token$[ebp], eax
  00186	f3 0f 2c 05 00
	00 00 00	 cvttss2si eax, DWORD PTR ?TokenNumber@@3MA
  0018e	6b 4d f4 7c	 imul	 ecx, DWORD PTR _n$[ebp], 124
  00192	8b 55 fc	 mov	 edx, DWORD PTR _this$[ebp]
  00195	89 44 0a 40	 mov	 DWORD PTR [edx+ecx+64], eax

; 214  : 			Token = (*GetToken)(); m_MonsterAttr[n].m_Successfulblocking = (int)TokenNumber;

  00199	e8 00 00 00 00	 call	 ?GetToken@@YA?AW4SMDToken@@XZ ; GetToken
  0019e	89 45 f8	 mov	 DWORD PTR _Token$[ebp], eax
  001a1	f3 0f 2c 05 00
	00 00 00	 cvttss2si eax, DWORD PTR ?TokenNumber@@3MA
  001a9	6b 4d f4 7c	 imul	 ecx, DWORD PTR _n$[ebp], 124
  001ad	8b 55 fc	 mov	 edx, DWORD PTR _this$[ebp]
  001b0	89 44 0a 44	 mov	 DWORD PTR [edx+ecx+68], eax

; 215  : 			Token = (*GetToken)(); m_MonsterAttr[n].m_MoveRange		= (int)TokenNumber;

  001b4	e8 00 00 00 00	 call	 ?GetToken@@YA?AW4SMDToken@@XZ ; GetToken
  001b9	89 45 f8	 mov	 DWORD PTR _Token$[ebp], eax
  001bc	f3 0f 2c 05 00
	00 00 00	 cvttss2si eax, DWORD PTR ?TokenNumber@@3MA
  001c4	6b 4d f4 7c	 imul	 ecx, DWORD PTR _n$[ebp], 124
  001c8	8b 55 fc	 mov	 edx, DWORD PTR _this$[ebp]
  001cb	89 44 0a 48	 mov	 DWORD PTR [edx+ecx+72], eax

; 216  : 			Token = (*GetToken)(); m_MonsterAttr[n].m_AttackType	= (int)TokenNumber;

  001cf	e8 00 00 00 00	 call	 ?GetToken@@YA?AW4SMDToken@@XZ ; GetToken
  001d4	89 45 f8	 mov	 DWORD PTR _Token$[ebp], eax
  001d7	f3 0f 2c 05 00
	00 00 00	 cvttss2si eax, DWORD PTR ?TokenNumber@@3MA
  001df	6b 4d f4 7c	 imul	 ecx, DWORD PTR _n$[ebp], 124
  001e3	8b 55 fc	 mov	 edx, DWORD PTR _this$[ebp]
  001e6	89 44 0a 50	 mov	 DWORD PTR [edx+ecx+80], eax

; 217  : 			Token = (*GetToken)(); m_MonsterAttr[n].m_AttackRange   = (int)TokenNumber;

  001ea	e8 00 00 00 00	 call	 ?GetToken@@YA?AW4SMDToken@@XZ ; GetToken
  001ef	89 45 f8	 mov	 DWORD PTR _Token$[ebp], eax
  001f2	f3 0f 2c 05 00
	00 00 00	 cvttss2si eax, DWORD PTR ?TokenNumber@@3MA
  001fa	6b 4d f4 7c	 imul	 ecx, DWORD PTR _n$[ebp], 124
  001fe	8b 55 fc	 mov	 edx, DWORD PTR _this$[ebp]
  00201	89 44 0a 4c	 mov	 DWORD PTR [edx+ecx+76], eax

; 218  : 			Token = (*GetToken)(); m_MonsterAttr[n].m_ViewRange     = (int)TokenNumber;

  00205	e8 00 00 00 00	 call	 ?GetToken@@YA?AW4SMDToken@@XZ ; GetToken
  0020a	89 45 f8	 mov	 DWORD PTR _Token$[ebp], eax
  0020d	f3 0f 2c 05 00
	00 00 00	 cvttss2si eax, DWORD PTR ?TokenNumber@@3MA
  00215	6b 4d f4 7c	 imul	 ecx, DWORD PTR _n$[ebp], 124
  00219	8b 55 fc	 mov	 edx, DWORD PTR _this$[ebp]
  0021c	89 44 0a 54	 mov	 DWORD PTR [edx+ecx+84], eax

; 219  : 			Token = (*GetToken)(); m_MonsterAttr[n].m_MoveSpeed		= (int)TokenNumber;

  00220	e8 00 00 00 00	 call	 ?GetToken@@YA?AW4SMDToken@@XZ ; GetToken
  00225	89 45 f8	 mov	 DWORD PTR _Token$[ebp], eax
  00228	f3 0f 2c 05 00
	00 00 00	 cvttss2si eax, DWORD PTR ?TokenNumber@@3MA
  00230	6b 4d f4 7c	 imul	 ecx, DWORD PTR _n$[ebp], 124
  00234	8b 55 fc	 mov	 edx, DWORD PTR _this$[ebp]
  00237	89 44 0a 58	 mov	 DWORD PTR [edx+ecx+88], eax

; 220  : 			Token = (*GetToken)(); m_MonsterAttr[n].m_AttackSpeed	= (int)TokenNumber;

  0023b	e8 00 00 00 00	 call	 ?GetToken@@YA?AW4SMDToken@@XZ ; GetToken
  00240	89 45 f8	 mov	 DWORD PTR _Token$[ebp], eax
  00243	f3 0f 2c 05 00
	00 00 00	 cvttss2si eax, DWORD PTR ?TokenNumber@@3MA
  0024b	6b 4d f4 7c	 imul	 ecx, DWORD PTR _n$[ebp], 124
  0024f	8b 55 fc	 mov	 edx, DWORD PTR _this$[ebp]
  00252	89 44 0a 5c	 mov	 DWORD PTR [edx+ecx+92], eax

; 221  : 			Token = (*GetToken)(); m_MonsterAttr[n].m_RegenTime		= (int)TokenNumber;

  00256	e8 00 00 00 00	 call	 ?GetToken@@YA?AW4SMDToken@@XZ ; GetToken
  0025b	89 45 f8	 mov	 DWORD PTR _Token$[ebp], eax
  0025e	f3 0f 2c 05 00
	00 00 00	 cvttss2si eax, DWORD PTR ?TokenNumber@@3MA
  00266	6b 4d f4 7c	 imul	 ecx, DWORD PTR _n$[ebp], 124
  0026a	8b 55 fc	 mov	 edx, DWORD PTR _this$[ebp]
  0026d	89 44 0a 60	 mov	 DWORD PTR [edx+ecx+96], eax

; 222  : 			Token = (*GetToken)(); m_MonsterAttr[n].m_Attribute		= (int)TokenNumber;

  00271	e8 00 00 00 00	 call	 ?GetToken@@YA?AW4SMDToken@@XZ ; GetToken
  00276	89 45 f8	 mov	 DWORD PTR _Token$[ebp], eax
  00279	f3 0f 2c 05 00
	00 00 00	 cvttss2si eax, DWORD PTR ?TokenNumber@@3MA
  00281	6b 4d f4 7c	 imul	 ecx, DWORD PTR _n$[ebp], 124
  00285	8b 55 fc	 mov	 edx, DWORD PTR _this$[ebp]
  00288	89 44 0a 64	 mov	 DWORD PTR [edx+ecx+100], eax

; 223  : 			Token = (*GetToken)(); m_MonsterAttr[n].m_ItemRate		= (int)TokenNumber;

  0028c	e8 00 00 00 00	 call	 ?GetToken@@YA?AW4SMDToken@@XZ ; GetToken
  00291	89 45 f8	 mov	 DWORD PTR _Token$[ebp], eax
  00294	f3 0f 2c 05 00
	00 00 00	 cvttss2si eax, DWORD PTR ?TokenNumber@@3MA
  0029c	6b 4d f4 7c	 imul	 ecx, DWORD PTR _n$[ebp], 124
  002a0	8b 55 fc	 mov	 edx, DWORD PTR _this$[ebp]
  002a3	89 44 0a 68	 mov	 DWORD PTR [edx+ecx+104], eax

; 224  : 			Token = (*GetToken)(); m_MonsterAttr[n].m_MoneyRate		= (int)TokenNumber;

  002a7	e8 00 00 00 00	 call	 ?GetToken@@YA?AW4SMDToken@@XZ ; GetToken
  002ac	89 45 f8	 mov	 DWORD PTR _Token$[ebp], eax
  002af	f3 0f 2c 05 00
	00 00 00	 cvttss2si eax, DWORD PTR ?TokenNumber@@3MA
  002b7	6b 4d f4 7c	 imul	 ecx, DWORD PTR _n$[ebp], 124
  002bb	8b 55 fc	 mov	 edx, DWORD PTR _this$[ebp]
  002be	89 44 0a 6c	 mov	 DWORD PTR [edx+ecx+108], eax

; 225  : 			Token = (*GetToken)(); m_MonsterAttr[n].m_MaxItemLevel	= (int)TokenNumber;

  002c2	e8 00 00 00 00	 call	 ?GetToken@@YA?AW4SMDToken@@XZ ; GetToken
  002c7	89 45 f8	 mov	 DWORD PTR _Token$[ebp], eax
  002ca	f3 0f 2c 05 00
	00 00 00	 cvttss2si eax, DWORD PTR ?TokenNumber@@3MA
  002d2	6b 4d f4 7c	 imul	 ecx, DWORD PTR _n$[ebp], 124
  002d6	8b 55 fc	 mov	 edx, DWORD PTR _this$[ebp]
  002d9	89 44 0a 70	 mov	 DWORD PTR [edx+ecx+112], eax

; 226  : 
; 227  : #ifdef MONSTER_SKILL
; 228  : 			Token = (*GetToken)(); m_MonsterAttr[n].m_MonsterSkill	= (int)TokenNumber;			

  002dd	e8 00 00 00 00	 call	 ?GetToken@@YA?AW4SMDToken@@XZ ; GetToken
  002e2	89 45 f8	 mov	 DWORD PTR _Token$[ebp], eax
  002e5	f3 0f 2c 05 00
	00 00 00	 cvttss2si eax, DWORD PTR ?TokenNumber@@3MA
  002ed	6b 4d f4 7c	 imul	 ecx, DWORD PTR _n$[ebp], 124
  002f1	8b 55 fc	 mov	 edx, DWORD PTR _this$[ebp]
  002f4	89 44 0a 7c	 mov	 DWORD PTR [edx+ecx+124], eax

; 229  : #else
; 230  : 			Token = (*GetToken)();
; 231  : #endif
; 232  : 
; 233  : 			Token = (*GetToken)(); m_MonsterAttr[n].m_Resistance[0] = (int)TokenNumber;

  002f8	e8 00 00 00 00	 call	 ?GetToken@@YA?AW4SMDToken@@XZ ; GetToken
  002fd	89 45 f8	 mov	 DWORD PTR _Token$[ebp], eax
  00300	f3 0f 2c 05 00
	00 00 00	 cvttss2si eax, DWORD PTR ?TokenNumber@@3MA
  00308	6b 4d f4 7c	 imul	 ecx, DWORD PTR _n$[ebp], 124
  0030c	8b 55 fc	 mov	 edx, DWORD PTR _this$[ebp]
  0030f	8d 4c 0a 04	 lea	 ecx, DWORD PTR [edx+ecx+4]
  00313	ba 01 00 00 00	 mov	 edx, 1
  00318	6b d2 00	 imul	 edx, edx, 0
  0031b	88 44 11 70	 mov	 BYTE PTR [ecx+edx+112], al

; 234  : 			Token = (*GetToken)(); m_MonsterAttr[n].m_Resistance[1] = (int)TokenNumber;

  0031f	e8 00 00 00 00	 call	 ?GetToken@@YA?AW4SMDToken@@XZ ; GetToken
  00324	89 45 f8	 mov	 DWORD PTR _Token$[ebp], eax
  00327	f3 0f 2c 05 00
	00 00 00	 cvttss2si eax, DWORD PTR ?TokenNumber@@3MA
  0032f	6b 4d f4 7c	 imul	 ecx, DWORD PTR _n$[ebp], 124
  00333	8b 55 fc	 mov	 edx, DWORD PTR _this$[ebp]
  00336	8d 4c 0a 04	 lea	 ecx, DWORD PTR [edx+ecx+4]
  0033a	ba 01 00 00 00	 mov	 edx, 1
  0033f	c1 e2 00	 shl	 edx, 0
  00342	88 44 11 70	 mov	 BYTE PTR [ecx+edx+112], al

; 235  : 			Token = (*GetToken)(); m_MonsterAttr[n].m_Resistance[2] = (int)TokenNumber;

  00346	e8 00 00 00 00	 call	 ?GetToken@@YA?AW4SMDToken@@XZ ; GetToken
  0034b	89 45 f8	 mov	 DWORD PTR _Token$[ebp], eax
  0034e	f3 0f 2c 05 00
	00 00 00	 cvttss2si eax, DWORD PTR ?TokenNumber@@3MA
  00356	6b 4d f4 7c	 imul	 ecx, DWORD PTR _n$[ebp], 124
  0035a	8b 55 fc	 mov	 edx, DWORD PTR _this$[ebp]
  0035d	8d 4c 0a 04	 lea	 ecx, DWORD PTR [edx+ecx+4]
  00361	ba 01 00 00 00	 mov	 edx, 1
  00366	d1 e2		 shl	 edx, 1
  00368	88 44 11 70	 mov	 BYTE PTR [ecx+edx+112], al

; 236  : 			Token = (*GetToken)(); m_MonsterAttr[n].m_Resistance[3] = (int)TokenNumber;

  0036c	e8 00 00 00 00	 call	 ?GetToken@@YA?AW4SMDToken@@XZ ; GetToken
  00371	89 45 f8	 mov	 DWORD PTR _Token$[ebp], eax
  00374	f3 0f 2c 05 00
	00 00 00	 cvttss2si eax, DWORD PTR ?TokenNumber@@3MA
  0037c	6b 4d f4 7c	 imul	 ecx, DWORD PTR _n$[ebp], 124
  00380	8b 55 fc	 mov	 edx, DWORD PTR _this$[ebp]
  00383	8d 4c 0a 04	 lea	 ecx, DWORD PTR [edx+ecx+4]
  00387	ba 01 00 00 00	 mov	 edx, 1
  0038c	6b d2 03	 imul	 edx, edx, 3
  0038f	88 44 11 70	 mov	 BYTE PTR [ecx+edx+112], al

; 237  : 
; 238  : 			m_MonsterAttr[n].m_Hp -= (int)(((float)m_MonsterAttr[n].m_Hp/100)*gMonsterHp);

  00393	6b 45 f4 7c	 imul	 eax, DWORD PTR _n$[ebp], 124
  00397	6b 4d f4 7c	 imul	 ecx, DWORD PTR _n$[ebp], 124
  0039b	8b 55 fc	 mov	 edx, DWORD PTR _this$[ebp]
  0039e	f3 0f 2a 44 0a
	28		 cvtsi2ss xmm0, DWORD PTR [edx+ecx+40]
  003a4	f3 0f 5e 05 00
	00 00 00	 divss	 xmm0, DWORD PTR __real@42c80000
  003ac	f3 0f 2a 0d 00
	00 00 00	 cvtsi2ss xmm1, DWORD PTR ?gMonsterHp@@3HA ; gMonsterHp
  003b4	f3 0f 59 c1	 mulss	 xmm0, xmm1
  003b8	f3 0f 2c c8	 cvttss2si ecx, xmm0
  003bc	8b 55 fc	 mov	 edx, DWORD PTR _this$[ebp]
  003bf	8b 44 02 28	 mov	 eax, DWORD PTR [edx+eax+40]
  003c3	2b c1		 sub	 eax, ecx
  003c5	6b 4d f4 7c	 imul	 ecx, DWORD PTR _n$[ebp], 124
  003c9	8b 55 fc	 mov	 edx, DWORD PTR _this$[ebp]
  003cc	89 44 0a 28	 mov	 DWORD PTR [edx+ecx+40], eax

; 239  : 
; 240  : #ifdef MODIFY_CRYWOLF_BENEFIT_01_20060315
; 241  : 			m_MonsterAttr[n].m_iScriptHP = m_MonsterAttr[n].m_Hp;

  003d0	6b 45 f4 7c	 imul	 eax, DWORD PTR _n$[ebp], 124
  003d4	6b 4d f4 7c	 imul	 ecx, DWORD PTR _n$[ebp], 124
  003d8	8b 55 fc	 mov	 edx, DWORD PTR _this$[ebp]
  003db	8b 75 fc	 mov	 esi, DWORD PTR _this$[ebp]
  003de	8b 44 06 28	 mov	 eax, DWORD PTR [esi+eax+40]
  003e2	89 44 0a 24	 mov	 DWORD PTR [edx+ecx+36], eax

; 242  : #endif
; 243  : 
; 244  : #ifdef MODIFY_JAPAN_MONSTER_VALUE	// 일본의 몬스터 수치 조정때문에 여기서 특정 몬스터의 수치를 조절한다			
; 245  : 			if( m_MonsterAttr[n].m_Level <= 24 && m_MonsterAttr[n].m_Index < 50 )
; 246  : 			{	// 체력 : 호머드 까지
; 247  : 				if( m_MonsterAttr[n].m_Level == 13 || m_MonsterAttr[n].m_Level == 14 || 
; 248  : 					m_MonsterAttr[n].m_Level == 17 || m_MonsterAttr[n].m_Level == 18 || 
; 249  : 					m_MonsterAttr[n].m_Level == 19 || m_MonsterAttr[n].m_Level == 24 )
; 250  : 				{	// 헌터, 리치, 자이언트, 돌괴물, 해골 전사, 호머드 (80%적용)
; 251  : 					int modiryvalue = m_MonsterAttr[n].m_Hp*20/100;
; 252  : 					modiryvalue -= modiryvalue*gMonsterHPAdjust/100;
; 253  : 					m_MonsterAttr[n].m_Hp = m_MonsterAttr[n].m_Hp-modiryvalue;
; 254  : 				}
; 255  : 				else if( m_MonsterAttr[n].m_Level == 20 || m_MonsterAttr[n].m_Level == 22 )
; 256  : 				{	// 웜, 얼음괴물 (70%적용)
; 257  : 					int modiryvalue = m_MonsterAttr[n].m_Hp*30/100;
; 258  : 					modiryvalue -= modiryvalue*gMonsterHPAdjust/100;
; 259  : 					m_MonsterAttr[n].m_Hp = m_MonsterAttr[n].m_Hp-modiryvalue;
; 260  : 				}			
; 261  : 				else
; 262  : 				{	// 나머지 50%적용
; 263  : 					int modiryvalue = m_MonsterAttr[n].m_Hp/2;			
; 264  : 					modiryvalue -= modiryvalue*gMonsterHPAdjust/100;
; 265  : 					m_MonsterAttr[n].m_Hp = m_MonsterAttr[n].m_Hp-modiryvalue;
; 266  : 				}
; 267  : 			}
; 268  : 
; 269  : 			if( m_MonsterAttr[n].m_Level <= 19 && m_MonsterAttr[n].m_Index < 50 )
; 270  : 			{	// 최소, 최대 공격력 : 해골전사까지
; 271  : 				if( m_MonsterAttr[n].m_Level == 13 || m_MonsterAttr[n].m_Level == 14 || 
; 272  : 					m_MonsterAttr[n].m_Level == 17 || m_MonsterAttr[n].m_Level == 18 || 
; 273  : 					m_MonsterAttr[n].m_Level == 19  )
; 274  : 				{	// 헌터, 리치, 자이언트, 돌괴물, 해골 전사 (70%적용)
; 275  : 					int modiryvaluemin = m_MonsterAttr[n].m_DamageMin*30/100;
; 276  : 					int modiryvaluemax = m_MonsterAttr[n].m_DamageMax*30/100;
; 277  : 
; 278  : 					modiryvaluemin -= modiryvaluemin*gMonsterHPAdjust/100;
; 279  : 					modiryvaluemax -= modiryvaluemax*gMonsterHPAdjust/100;
; 280  : 
; 281  : 					m_MonsterAttr[n].m_DamageMin = m_MonsterAttr[n].m_DamageMin-modiryvaluemin;
; 282  : 					m_MonsterAttr[n].m_DamageMax = m_MonsterAttr[n].m_DamageMax-modiryvaluemax;					
; 283  : 				}				
; 284  : 				else
; 285  : 				{	// 나머지 50%적용
; 286  : 					int modiryvaluemin = m_MonsterAttr[n].m_DamageMin/2;
; 287  : 					int modiryvaluemax = m_MonsterAttr[n].m_DamageMax/2;
; 288  : 
; 289  : 					modiryvaluemin -= modiryvaluemin*gMonsterHPAdjust/100;
; 290  : 					modiryvaluemax -= modiryvaluemax*gMonsterHPAdjust/100;
; 291  : 
; 292  : 					m_MonsterAttr[n].m_DamageMin = m_MonsterAttr[n].m_DamageMin-modiryvaluemin;
; 293  : 					m_MonsterAttr[n].m_DamageMax = m_MonsterAttr[n].m_DamageMax-modiryvaluemax;
; 294  : 				}
; 295  : 			}
; 296  : #endif		
; 297  : 
; 298  : 			n++;

  003e6	8b 45 f4	 mov	 eax, DWORD PTR _n$[ebp]
  003e9	83 c0 01	 add	 eax, 1
  003ec	89 45 f4	 mov	 DWORD PTR _n$[ebp], eax

; 299  : 			if( n > MAX_MONSTERATTRIBUTE-1 ) 

  003ef	81 7d f4 ff 01
	00 00		 cmp	 DWORD PTR _n$[ebp], 511	; 000001ffH
  003f6	7e 2b		 jle	 SHORT $LN7@LoadAttr

; 300  : 			{
; 301  : 				MsgBox("Monster attribute max over %s %d", __FILE__, __LINE__);

  003f8	a1 00 00 00 00	 mov	 eax, DWORD PTR ?__LINE__Var@?0??LoadAttr@CMonsterAttr@@QAEXPAD@Z@4JA
  003fd	83 c0 72	 add	 eax, 114		; 00000072H
  00400	50		 push	 eax
  00401	68 00 00 00 00	 push	 OFFSET ??_C@_0DO@GLMIANAE@C?3?2Mu?5Online?2Mu?9GS?9Webzen?9MC?910@
  00406	68 00 00 00 00	 push	 OFFSET ??_C@_0CB@MPDJJDKE@Monster?5attribute?5max?5over?5?$CFs?5?$CF@
  0040b	e8 00 00 00 00	 call	 ?MsgBox@@YAXPADZZ	; MsgBox
  00410	83 c4 0c	 add	 esp, 12			; 0000000cH

; 302  : 				fclose(SMDFile);

  00413	a1 00 00 00 00	 mov	 eax, DWORD PTR ?SMDFile@@3PAU_iobuf@@A
  00418	50		 push	 eax
  00419	e8 00 00 00 00	 call	 _fclose
  0041e	83 c4 04	 add	 esp, 4

; 303  : 				return;

  00421	eb 13		 jmp	 SHORT $LN1@LoadAttr
$LN7@LoadAttr:

; 304  : 			}
; 305  : 		}
; 306  : 	}

  00423	e9 20 fc ff ff	 jmp	 $LN2@LoadAttr
$LN3@LoadAttr:

; 307  : 	fclose(SMDFile);

  00428	a1 00 00 00 00	 mov	 eax, DWORD PTR ?SMDFile@@3PAU_iobuf@@A
  0042d	50		 push	 eax
  0042e	e8 00 00 00 00	 call	 _fclose
  00433	83 c4 04	 add	 esp, 4
$LN1@LoadAttr:

; 308  : }

  00436	5f		 pop	 edi
  00437	5e		 pop	 esi
  00438	5b		 pop	 ebx
  00439	8b e5		 mov	 esp, ebp
  0043b	5d		 pop	 ebp
  0043c	c2 04 00	 ret	 4
?LoadAttr@CMonsterAttr@@QAEXPAD@Z ENDP			; CMonsterAttr::LoadAttr
_TEXT	ENDS
; Function compile flags: /Odtp /ZI
; File C:\Mu Online\Mu-GS-Webzen-MC-10093\GameServer\MonsterAttr.cpp
;	COMDAT ?GetAttr@CMonsterAttr@@QAEPAUMONSTER_ATTRIBUTE@@PAD@Z
_TEXT	SEGMENT
_n$1 = -8						; size = 4
_this$ = -4						; size = 4
_lpszName$ = 8						; size = 4
?GetAttr@CMonsterAttr@@QAEPAUMONSTER_ATTRIBUTE@@PAD@Z PROC ; CMonsterAttr::GetAttr, COMDAT
; _this$ = ecx

; 49   : {

  00000	55		 push	 ebp
  00001	8b ec		 mov	 ebp, esp
  00003	83 ec 48	 sub	 esp, 72			; 00000048H
  00006	53		 push	 ebx
  00007	56		 push	 esi
  00008	57		 push	 edi
  00009	89 4d fc	 mov	 DWORD PTR _this$[ebp], ecx

; 50   : 	for( int n=0; n<MAX_MONSTERATTRIBUTE; n++)

  0000c	c7 45 f8 00 00
	00 00		 mov	 DWORD PTR _n$1[ebp], 0
  00013	eb 09		 jmp	 SHORT $LN4@GetAttr
$LN2@GetAttr:
  00015	8b 45 f8	 mov	 eax, DWORD PTR _n$1[ebp]
  00018	83 c0 01	 add	 eax, 1
  0001b	89 45 f8	 mov	 DWORD PTR _n$1[ebp], eax
$LN4@GetAttr:
  0001e	81 7d f8 00 02
	00 00		 cmp	 DWORD PTR _n$1[ebp], 512 ; 00000200H
  00025	7d 2b		 jge	 SHORT $LN3@GetAttr

; 51   : 	{
; 52   : 		if( strcmp(m_MonsterAttr[n].m_Name, lpszName) == 0 )

  00027	8b 45 08	 mov	 eax, DWORD PTR _lpszName$[ebp]
  0002a	50		 push	 eax
  0002b	6b 4d f8 7c	 imul	 ecx, DWORD PTR _n$1[ebp], 124
  0002f	8b 55 fc	 mov	 edx, DWORD PTR _this$[ebp]
  00032	8d 44 0a 0c	 lea	 eax, DWORD PTR [edx+ecx+12]
  00036	50		 push	 eax
  00037	e8 00 00 00 00	 call	 _strcmp
  0003c	83 c4 08	 add	 esp, 8
  0003f	85 c0		 test	 eax, eax
  00041	75 0d		 jne	 SHORT $LN5@GetAttr

; 53   : 		{
; 54   : 			return (LPMONSTER_ATTRIBUTE)&m_MonsterAttr[n];

  00043	6b 45 f8 7c	 imul	 eax, DWORD PTR _n$1[ebp], 124
  00047	8b 4d fc	 mov	 ecx, DWORD PTR _this$[ebp]
  0004a	8d 44 01 04	 lea	 eax, DWORD PTR [ecx+eax+4]
  0004e	eb 04		 jmp	 SHORT $LN1@GetAttr
$LN5@GetAttr:

; 55   : 		}
; 56   : 	}

  00050	eb c3		 jmp	 SHORT $LN2@GetAttr
$LN3@GetAttr:

; 57   : 	return NULL;

  00052	33 c0		 xor	 eax, eax
$LN1@GetAttr:

; 58   : }

  00054	5f		 pop	 edi
  00055	5e		 pop	 esi
  00056	5b		 pop	 ebx
  00057	8b e5		 mov	 esp, ebp
  00059	5d		 pop	 ebp
  0005a	c2 04 00	 ret	 4
?GetAttr@CMonsterAttr@@QAEPAUMONSTER_ATTRIBUTE@@PAD@Z ENDP ; CMonsterAttr::GetAttr
_TEXT	ENDS
; Function compile flags: /Odtp /ZI
; File C:\Mu Online\Mu-GS-Webzen-MC-10093\GameServer\MonsterAttr.cpp
;	COMDAT ?GetAttr@CMonsterAttr@@QAEPAUMONSTER_ATTRIBUTE@@H@Z
_TEXT	SEGMENT
_n$1 = -8						; size = 4
_this$ = -4						; size = 4
_aClass$ = 8						; size = 4
?GetAttr@CMonsterAttr@@QAEPAUMONSTER_ATTRIBUTE@@H@Z PROC ; CMonsterAttr::GetAttr, COMDAT
; _this$ = ecx

; 36   : {

  00000	55		 push	 ebp
  00001	8b ec		 mov	 ebp, esp
  00003	83 ec 48	 sub	 esp, 72			; 00000048H
  00006	53		 push	 ebx
  00007	56		 push	 esi
  00008	57		 push	 edi
  00009	89 4d fc	 mov	 DWORD PTR _this$[ebp], ecx

; 37   : 	for( int n=0; n<MAX_MONSTERATTRIBUTE; n++)

  0000c	c7 45 f8 00 00
	00 00		 mov	 DWORD PTR _n$1[ebp], 0
  00013	eb 09		 jmp	 SHORT $LN4@GetAttr
$LN2@GetAttr:
  00015	8b 45 f8	 mov	 eax, DWORD PTR _n$1[ebp]
  00018	83 c0 01	 add	 eax, 1
  0001b	89 45 f8	 mov	 DWORD PTR _n$1[ebp], eax
$LN4@GetAttr:
  0001e	81 7d f8 00 02
	00 00		 cmp	 DWORD PTR _n$1[ebp], 512 ; 00000200H
  00025	7d 1f		 jge	 SHORT $LN3@GetAttr

; 38   : 	{
; 39   : 		if( m_MonsterAttr[n].m_Index == aClass )

  00027	6b 45 f8 7c	 imul	 eax, DWORD PTR _n$1[ebp], 124
  0002b	8b 4d fc	 mov	 ecx, DWORD PTR _this$[ebp]
  0002e	8b 54 01 04	 mov	 edx, DWORD PTR [ecx+eax+4]
  00032	3b 55 08	 cmp	 edx, DWORD PTR _aClass$[ebp]
  00035	75 0d		 jne	 SHORT $LN5@GetAttr

; 40   : 		{
; 41   : 			return (LPMONSTER_ATTRIBUTE)&m_MonsterAttr[n];

  00037	6b 45 f8 7c	 imul	 eax, DWORD PTR _n$1[ebp], 124
  0003b	8b 4d fc	 mov	 ecx, DWORD PTR _this$[ebp]
  0003e	8d 44 01 04	 lea	 eax, DWORD PTR [ecx+eax+4]
  00042	eb 04		 jmp	 SHORT $LN1@GetAttr
$LN5@GetAttr:

; 42   : 		}
; 43   : 	}

  00044	eb cf		 jmp	 SHORT $LN2@GetAttr
$LN3@GetAttr:

; 44   : 	return NULL;

  00046	33 c0		 xor	 eax, eax
$LN1@GetAttr:

; 45   : }

  00048	5f		 pop	 edi
  00049	5e		 pop	 esi
  0004a	5b		 pop	 ebx
  0004b	8b e5		 mov	 esp, ebp
  0004d	5d		 pop	 ebp
  0004e	c2 04 00	 ret	 4
?GetAttr@CMonsterAttr@@QAEPAUMONSTER_ATTRIBUTE@@H@Z ENDP ; CMonsterAttr::GetAttr
_TEXT	ENDS
; Function compile flags: /Odtp /ZI
; File C:\Mu Online\Mu-GS-Webzen-MC-10093\Include\Readscript.h
;	COMDAT ?GetToken@@YA?AW4SMDToken@@XZ
_TEXT	SEGMENT
tv93 = -184						; size = 4
$T1 = -180						; size = 4
_TempString$ = -112					; size = 100
_p$ = -12						; size = 4
_ch$ = -5						; size = 1
__$ArrayPad$ = -4					; size = 4
?GetToken@@YA?AW4SMDToken@@XZ PROC			; GetToken, COMDAT

; 25   : {

  00000	55		 push	 ebp
  00001	8b ec		 mov	 ebp, esp
  00003	81 ec b8 00 00
	00		 sub	 esp, 184		; 000000b8H
  00009	a1 00 00 00 00	 mov	 eax, DWORD PTR ___security_cookie
  0000e	33 c5		 xor	 eax, ebp
  00010	89 45 fc	 mov	 DWORD PTR __$ArrayPad$[ebp], eax
  00013	53		 push	 ebx
  00014	56		 push	 esi
  00015	57		 push	 edi

; 26   : 	unsigned char ch;
; 27   : 	TokenString[0] = '\0';

  00016	b8 01 00 00 00	 mov	 eax, 1
  0001b	6b c8 00	 imul	 ecx, eax, 0
  0001e	89 8d 4c ff ff
	ff		 mov	 DWORD PTR $T1[ebp], ecx
  00024	83 bd 4c ff ff
	ff 64		 cmp	 DWORD PTR $T1[ebp], 100	; 00000064H
  0002b	73 02		 jae	 SHORT $LN31@GetToken
  0002d	eb 05		 jmp	 SHORT $LN32@GetToken
$LN31@GetToken:
  0002f	e8 00 00 00 00	 call	 ___report_rangecheckfailure
$LN32@GetToken:
  00034	8b 95 4c ff ff
	ff		 mov	 edx, DWORD PTR $T1[ebp]
  0003a	c6 82 00 00 00
	00 00		 mov	 BYTE PTR ?TokenString@@3PADA[edx], 0
$LN4@GetToken:

; 28   : 	do
; 29   : 	{
; 30   : 		if ( (ch =(unsigned char) fgetc(SMDFile)) == (BYTE)EOF) return END;

  00041	a1 00 00 00 00	 mov	 eax, DWORD PTR ?SMDFile@@3PAU_iobuf@@A
  00046	50		 push	 eax
  00047	e8 00 00 00 00	 call	 _fgetc
  0004c	83 c4 04	 add	 esp, 4
  0004f	88 45 fb	 mov	 BYTE PTR _ch$[ebp], al
  00052	0f b6 4d fb	 movzx	 ecx, BYTE PTR _ch$[ebp]
  00056	81 f9 ff 00 00
	00		 cmp	 ecx, 255		; 000000ffH
  0005c	75 0a		 jne	 SHORT $LN15@GetToken
  0005e	b8 02 00 00 00	 mov	 eax, 2
  00063	e9 d9 02 00 00	 jmp	 $LN7@GetToken
$LN15@GetToken:

; 31   : 		if (ch=='/' && (ch =(unsigned char) fgetc(SMDFile) )=='/')	

  00068	0f b6 45 fb	 movzx	 eax, BYTE PTR _ch$[ebp]
  0006c	83 f8 2f	 cmp	 eax, 47			; 0000002fH
  0006f	75 56		 jne	 SHORT $LN17@GetToken
  00071	a1 00 00 00 00	 mov	 eax, DWORD PTR ?SMDFile@@3PAU_iobuf@@A
  00076	50		 push	 eax
  00077	e8 00 00 00 00	 call	 _fgetc
  0007c	83 c4 04	 add	 esp, 4
  0007f	88 45 fb	 mov	 BYTE PTR _ch$[ebp], al
  00082	0f b6 4d fb	 movzx	 ecx, BYTE PTR _ch$[ebp]
  00086	83 f9 2f	 cmp	 ecx, 47			; 0000002fH
  00089	75 3c		 jne	 SHORT $LN17@GetToken
$LN5@GetToken:

; 32   : 		{
; 33   : 			while((ch != '\n') && (ch != (BYTE)EOF)) {			// 2003.09.02 H.J.I 수정

  0008b	0f b6 45 fb	 movzx	 eax, BYTE PTR _ch$[ebp]
  0008f	83 f8 0a	 cmp	 eax, 10			; 0000000aH
  00092	74 1e		 je	 SHORT $LN6@GetToken
  00094	0f b6 45 fb	 movzx	 eax, BYTE PTR _ch$[ebp]
  00098	3d ff 00 00 00	 cmp	 eax, 255		; 000000ffH
  0009d	74 13		 je	 SHORT $LN6@GetToken

; 34   : 				ch = (unsigned char) fgetc( SMDFile);

  0009f	a1 00 00 00 00	 mov	 eax, DWORD PTR ?SMDFile@@3PAU_iobuf@@A
  000a4	50		 push	 eax
  000a5	e8 00 00 00 00	 call	 _fgetc
  000aa	83 c4 04	 add	 esp, 4
  000ad	88 45 fb	 mov	 BYTE PTR _ch$[ebp], al

; 35   : 			}

  000b0	eb d9		 jmp	 SHORT $LN5@GetToken
$LN6@GetToken:

; 36   : 
; 37   : 			if (ch == (BYTE)EOF)

  000b2	0f b6 45 fb	 movzx	 eax, BYTE PTR _ch$[ebp]
  000b6	3d ff 00 00 00	 cmp	 eax, 255		; 000000ffH
  000bb	75 0a		 jne	 SHORT $LN17@GetToken

; 38   : 				return END;

  000bd	b8 02 00 00 00	 mov	 eax, 2
  000c2	e9 7a 02 00 00	 jmp	 $LN7@GetToken
$LN17@GetToken:

; 39   : 		}
; 40   : 	} while(  isspace(ch) );

  000c7	0f b6 45 fb	 movzx	 eax, BYTE PTR _ch$[ebp]
  000cb	50		 push	 eax
  000cc	e8 00 00 00 00	 call	 _isspace
  000d1	83 c4 04	 add	 esp, 4
  000d4	85 c0		 test	 eax, eax
  000d6	0f 85 65 ff ff
	ff		 jne	 $LN4@GetToken

; 41   : 	
; 42   : 	char *p, TempString[100];
; 43   : 	switch(ch)

  000dc	0f b6 45 fb	 movzx	 eax, BYTE PTR _ch$[ebp]
  000e0	89 85 48 ff ff
	ff		 mov	 DWORD PTR tv93[ebp], eax
  000e6	8b 8d 48 ff ff
	ff		 mov	 ecx, DWORD PTR tv93[ebp]
  000ec	83 e9 22	 sub	 ecx, 34			; 00000022H
  000ef	89 8d 48 ff ff
	ff		 mov	 DWORD PTR tv93[ebp], ecx
  000f5	83 bd 48 ff ff
	ff 5b		 cmp	 DWORD PTR tv93[ebp], 91	; 0000005bH
  000fc	0f 87 86 01 00
	00		 ja	 $LN27@GetToken
  00102	8b 95 48 ff ff
	ff		 mov	 edx, DWORD PTR tv93[ebp]
  00108	0f b6 82 00 00
	00 00		 movzx	 eax, BYTE PTR $LN33@GetToken[edx]
  0010f	ff 24 85 00 00
	00 00		 jmp	 DWORD PTR $LN34@GetToken[eax*4]
$LN18@GetToken:

; 44   : 	{	
; 45   : 	case '#':
; 46   : 		return CurrentToken = COMMAND;

  00116	c7 05 00 00 00
	00 23 00 00 00	 mov	 DWORD PTR ?CurrentToken@@3W4SMDToken@@A, 35 ; 00000023H
  00120	a1 00 00 00 00	 mov	 eax, DWORD PTR ?CurrentToken@@3W4SMDToken@@A
  00125	e9 17 02 00 00	 jmp	 $LN7@GetToken
$LN19@GetToken:

; 47   : 	case ';':
; 48   : 		return CurrentToken = SEMICOLON;

  0012a	c7 05 00 00 00
	00 3b 00 00 00	 mov	 DWORD PTR ?CurrentToken@@3W4SMDToken@@A, 59 ; 0000003bH
  00134	a1 00 00 00 00	 mov	 eax, DWORD PTR ?CurrentToken@@3W4SMDToken@@A
  00139	e9 03 02 00 00	 jmp	 $LN7@GetToken
$LN20@GetToken:

; 49   : 	case ',':
; 50   : 		return CurrentToken = COMMA;

  0013e	c7 05 00 00 00
	00 2c 00 00 00	 mov	 DWORD PTR ?CurrentToken@@3W4SMDToken@@A, 44 ; 0000002cH
  00148	a1 00 00 00 00	 mov	 eax, DWORD PTR ?CurrentToken@@3W4SMDToken@@A
  0014d	e9 ef 01 00 00	 jmp	 $LN7@GetToken
$LN21@GetToken:

; 51   : 	case '{':
; 52   : 		return CurrentToken = LP;

  00152	c7 05 00 00 00
	00 7b 00 00 00	 mov	 DWORD PTR ?CurrentToken@@3W4SMDToken@@A, 123 ; 0000007bH
  0015c	a1 00 00 00 00	 mov	 eax, DWORD PTR ?CurrentToken@@3W4SMDToken@@A
  00161	e9 db 01 00 00	 jmp	 $LN7@GetToken
$LN22@GetToken:

; 53   : 	case '}':
; 54   : 		return CurrentToken = RP;

  00166	c7 05 00 00 00
	00 7d 00 00 00	 mov	 DWORD PTR ?CurrentToken@@3W4SMDToken@@A, 125 ; 0000007dH
  00170	a1 00 00 00 00	 mov	 eax, DWORD PTR ?CurrentToken@@3W4SMDToken@@A
  00175	e9 c7 01 00 00	 jmp	 $LN7@GetToken
$LN23@GetToken:

; 55   : 	case '0':	case '1':	case '2':	case '3':	case '4':
; 56   : 	case '5':	case '6':	case '7':	case '8':	case '9':
; 57   : 	case '.':	case '-':
; 58   : 		ungetc(ch,SMDFile);

  0017a	a1 00 00 00 00	 mov	 eax, DWORD PTR ?SMDFile@@3PAU_iobuf@@A
  0017f	50		 push	 eax
  00180	0f b6 4d fb	 movzx	 ecx, BYTE PTR _ch$[ebp]
  00184	51		 push	 ecx
  00185	e8 00 00 00 00	 call	 _ungetc
  0018a	83 c4 08	 add	 esp, 8

; 59   : 		p = TempString;

  0018d	8d 45 90	 lea	 eax, DWORD PTR _TempString$[ebp]
  00190	89 45 f4	 mov	 DWORD PTR _p$[ebp], eax
$LN9@GetToken:

; 60   : 		while ( (  (ch = getc(SMDFile) ) !=(BYTE)EOF) && (ch=='.' || isdigit(ch) || ch=='-') )

  00193	a1 00 00 00 00	 mov	 eax, DWORD PTR ?SMDFile@@3PAU_iobuf@@A
  00198	50		 push	 eax
  00199	e8 00 00 00 00	 call	 _getc
  0019e	83 c4 04	 add	 esp, 4
  001a1	88 45 fb	 mov	 BYTE PTR _ch$[ebp], al
  001a4	0f b6 4d fb	 movzx	 ecx, BYTE PTR _ch$[ebp]
  001a8	81 f9 ff 00 00
	00		 cmp	 ecx, 255		; 000000ffH
  001ae	74 36		 je	 SHORT $LN10@GetToken
  001b0	0f b6 45 fb	 movzx	 eax, BYTE PTR _ch$[ebp]
  001b4	83 f8 2e	 cmp	 eax, 46			; 0000002eH
  001b7	74 1a		 je	 SHORT $LN24@GetToken
  001b9	0f b6 45 fb	 movzx	 eax, BYTE PTR _ch$[ebp]
  001bd	50		 push	 eax
  001be	e8 00 00 00 00	 call	 _isdigit
  001c3	83 c4 04	 add	 esp, 4
  001c6	85 c0		 test	 eax, eax
  001c8	75 09		 jne	 SHORT $LN24@GetToken
  001ca	0f b6 45 fb	 movzx	 eax, BYTE PTR _ch$[ebp]
  001ce	83 f8 2d	 cmp	 eax, 45			; 0000002dH
  001d1	75 13		 jne	 SHORT $LN10@GetToken
$LN24@GetToken:

; 61   : 			*p++ = ch;

  001d3	8b 45 f4	 mov	 eax, DWORD PTR _p$[ebp]
  001d6	8a 4d fb	 mov	 cl, BYTE PTR _ch$[ebp]
  001d9	88 08		 mov	 BYTE PTR [eax], cl
  001db	8b 55 f4	 mov	 edx, DWORD PTR _p$[ebp]
  001de	83 c2 01	 add	 edx, 1
  001e1	89 55 f4	 mov	 DWORD PTR _p$[ebp], edx
  001e4	eb ad		 jmp	 SHORT $LN9@GetToken
$LN10@GetToken:

; 62   : 		*p = 0;

  001e6	8b 45 f4	 mov	 eax, DWORD PTR _p$[ebp]
  001e9	c6 00 00	 mov	 BYTE PTR [eax], 0

; 63   : 		TokenNumber = (float)atof(TempString);

  001ec	8d 45 90	 lea	 eax, DWORD PTR _TempString$[ebp]
  001ef	50		 push	 eax
  001f0	e8 00 00 00 00	 call	 _atof
  001f5	83 c4 04	 add	 esp, 4
  001f8	d9 1d 00 00 00
	00		 fstp	 DWORD PTR ?TokenNumber@@3MA

; 64   : 		//			sscanf(TempString," %f ",&TokenNumber);
; 65   : 		return CurrentToken = NUMBER;

  001fe	c7 05 00 00 00
	00 01 00 00 00	 mov	 DWORD PTR ?CurrentToken@@3W4SMDToken@@A, 1
  00208	a1 00 00 00 00	 mov	 eax, DWORD PTR ?CurrentToken@@3W4SMDToken@@A
  0020d	e9 2f 01 00 00	 jmp	 $LN7@GetToken
$LN25@GetToken:

; 66   : 	case '"':
; 67   : 		p = TokenString;

  00212	c7 45 f4 00 00
	00 00		 mov	 DWORD PTR _p$[ebp], OFFSET ?TokenString@@3PADA
$LN11@GetToken:

; 68   : 		while ( (  (ch = getc(SMDFile) ) !=(BYTE)EOF) && (ch!='"'))// || isalnum(ch)) )

  00219	a1 00 00 00 00	 mov	 eax, DWORD PTR ?SMDFile@@3PAU_iobuf@@A
  0021e	50		 push	 eax
  0021f	e8 00 00 00 00	 call	 _getc
  00224	83 c4 04	 add	 esp, 4
  00227	88 45 fb	 mov	 BYTE PTR _ch$[ebp], al
  0022a	0f b6 4d fb	 movzx	 ecx, BYTE PTR _ch$[ebp]
  0022e	81 f9 ff 00 00
	00		 cmp	 ecx, 255		; 000000ffH
  00234	74 1c		 je	 SHORT $LN12@GetToken
  00236	0f b6 45 fb	 movzx	 eax, BYTE PTR _ch$[ebp]
  0023a	83 f8 22	 cmp	 eax, 34			; 00000022H
  0023d	74 13		 je	 SHORT $LN12@GetToken

; 69   : 			*p++ = ch;

  0023f	8b 45 f4	 mov	 eax, DWORD PTR _p$[ebp]
  00242	8a 4d fb	 mov	 cl, BYTE PTR _ch$[ebp]
  00245	88 08		 mov	 BYTE PTR [eax], cl
  00247	8b 55 f4	 mov	 edx, DWORD PTR _p$[ebp]
  0024a	83 c2 01	 add	 edx, 1
  0024d	89 55 f4	 mov	 DWORD PTR _p$[ebp], edx
  00250	eb c7		 jmp	 SHORT $LN11@GetToken
$LN12@GetToken:

; 70   : 		if (ch!='"')

  00252	0f b6 45 fb	 movzx	 eax, BYTE PTR _ch$[ebp]
  00256	83 f8 22	 cmp	 eax, 34			; 00000022H
  00259	74 13		 je	 SHORT $LN26@GetToken

; 71   : 			ungetc(ch,SMDFile);

  0025b	a1 00 00 00 00	 mov	 eax, DWORD PTR ?SMDFile@@3PAU_iobuf@@A
  00260	50		 push	 eax
  00261	0f b6 4d fb	 movzx	 ecx, BYTE PTR _ch$[ebp]
  00265	51		 push	 ecx
  00266	e8 00 00 00 00	 call	 _ungetc
  0026b	83 c4 08	 add	 esp, 8
$LN26@GetToken:

; 72   : 		*p = 0;

  0026e	8b 45 f4	 mov	 eax, DWORD PTR _p$[ebp]
  00271	c6 00 00	 mov	 BYTE PTR [eax], 0

; 73   : 		return CurrentToken = NAME;

  00274	c7 05 00 00 00
	00 00 00 00 00	 mov	 DWORD PTR ?CurrentToken@@3W4SMDToken@@A, 0
  0027e	a1 00 00 00 00	 mov	 eax, DWORD PTR ?CurrentToken@@3W4SMDToken@@A
  00283	e9 b9 00 00 00	 jmp	 $LN7@GetToken
$LN27@GetToken:

; 74   : 	default:
; 75   : 		if (isalpha(ch))	

  00288	0f b6 45 fb	 movzx	 eax, BYTE PTR _ch$[ebp]
  0028c	50		 push	 eax
  0028d	e8 00 00 00 00	 call	 _isalpha
  00292	83 c4 04	 add	 esp, 4
  00295	85 c0		 test	 eax, eax
  00297	0f 84 95 00 00
	00		 je	 $LN28@GetToken

; 76   : 		{
; 77   : 			p = TokenString;

  0029d	c7 45 f4 00 00
	00 00		 mov	 DWORD PTR _p$[ebp], OFFSET ?TokenString@@3PADA

; 78   : 			*p++ = ch;

  002a4	8b 45 f4	 mov	 eax, DWORD PTR _p$[ebp]
  002a7	8a 4d fb	 mov	 cl, BYTE PTR _ch$[ebp]
  002aa	88 08		 mov	 BYTE PTR [eax], cl
  002ac	8b 55 f4	 mov	 edx, DWORD PTR _p$[ebp]
  002af	83 c2 01	 add	 edx, 1
  002b2	89 55 f4	 mov	 DWORD PTR _p$[ebp], edx
$LN13@GetToken:

; 79   : 			while ( (  (ch = getc(SMDFile) ) !=(BYTE)EOF) && (ch=='.' || ch=='_' || isalnum(ch)) )

  002b5	a1 00 00 00 00	 mov	 eax, DWORD PTR ?SMDFile@@3PAU_iobuf@@A
  002ba	50		 push	 eax
  002bb	e8 00 00 00 00	 call	 _getc
  002c0	83 c4 04	 add	 esp, 4
  002c3	88 45 fb	 mov	 BYTE PTR _ch$[ebp], al
  002c6	0f b6 4d fb	 movzx	 ecx, BYTE PTR _ch$[ebp]
  002ca	81 f9 ff 00 00
	00		 cmp	 ecx, 255		; 000000ffH
  002d0	74 36		 je	 SHORT $LN14@GetToken
  002d2	0f b6 45 fb	 movzx	 eax, BYTE PTR _ch$[ebp]
  002d6	83 f8 2e	 cmp	 eax, 46			; 0000002eH
  002d9	74 1a		 je	 SHORT $LN29@GetToken
  002db	0f b6 45 fb	 movzx	 eax, BYTE PTR _ch$[ebp]
  002df	83 f8 5f	 cmp	 eax, 95			; 0000005fH
  002e2	74 11		 je	 SHORT $LN29@GetToken
  002e4	0f b6 45 fb	 movzx	 eax, BYTE PTR _ch$[ebp]
  002e8	50		 push	 eax
  002e9	e8 00 00 00 00	 call	 _isalnum
  002ee	83 c4 04	 add	 esp, 4
  002f1	85 c0		 test	 eax, eax
  002f3	74 13		 je	 SHORT $LN14@GetToken
$LN29@GetToken:

; 80   : 				*p++ = ch;

  002f5	8b 45 f4	 mov	 eax, DWORD PTR _p$[ebp]
  002f8	8a 4d fb	 mov	 cl, BYTE PTR _ch$[ebp]
  002fb	88 08		 mov	 BYTE PTR [eax], cl
  002fd	8b 55 f4	 mov	 edx, DWORD PTR _p$[ebp]
  00300	83 c2 01	 add	 edx, 1
  00303	89 55 f4	 mov	 DWORD PTR _p$[ebp], edx
  00306	eb ad		 jmp	 SHORT $LN13@GetToken
$LN14@GetToken:

; 81   : 			ungetc(ch,SMDFile);

  00308	a1 00 00 00 00	 mov	 eax, DWORD PTR ?SMDFile@@3PAU_iobuf@@A
  0030d	50		 push	 eax
  0030e	0f b6 4d fb	 movzx	 ecx, BYTE PTR _ch$[ebp]
  00312	51		 push	 ecx
  00313	e8 00 00 00 00	 call	 _ungetc
  00318	83 c4 08	 add	 esp, 8

; 82   : 			*p = 0;

  0031b	8b 45 f4	 mov	 eax, DWORD PTR _p$[ebp]
  0031e	c6 00 00	 mov	 BYTE PTR [eax], 0

; 83   : 			return CurrentToken = NAME;

  00321	c7 05 00 00 00
	00 00 00 00 00	 mov	 DWORD PTR ?CurrentToken@@3W4SMDToken@@A, 0
  0032b	a1 00 00 00 00	 mov	 eax, DWORD PTR ?CurrentToken@@3W4SMDToken@@A
  00330	eb 0f		 jmp	 SHORT $LN7@GetToken
$LN28@GetToken:

; 84   : 		}
; 85   : 		return CurrentToken = SMD_ERROR;

  00332	c7 05 00 00 00
	00 3c 00 00 00	 mov	 DWORD PTR ?CurrentToken@@3W4SMDToken@@A, 60 ; 0000003cH
  0033c	a1 00 00 00 00	 mov	 eax, DWORD PTR ?CurrentToken@@3W4SMDToken@@A
$LN7@GetToken:

; 86   : 	}
; 87   : }

  00341	5f		 pop	 edi
  00342	5e		 pop	 esi
  00343	5b		 pop	 ebx
  00344	8b 4d fc	 mov	 ecx, DWORD PTR __$ArrayPad$[ebp]
  00347	33 cd		 xor	 ecx, ebp
  00349	e8 00 00 00 00	 call	 @__security_check_cookie@4
  0034e	8b e5		 mov	 esp, ebp
  00350	5d		 pop	 ebp
  00351	c3		 ret	 0
  00352	66 90		 npad	 2
$LN34@GetToken:
  00354	00 00 00 00	 DD	 $LN25@GetToken
  00358	00 00 00 00	 DD	 $LN18@GetToken
  0035c	00 00 00 00	 DD	 $LN20@GetToken
  00360	00 00 00 00	 DD	 $LN23@GetToken
  00364	00 00 00 00	 DD	 $LN19@GetToken
  00368	00 00 00 00	 DD	 $LN21@GetToken
  0036c	00 00 00 00	 DD	 $LN22@GetToken
  00370	00 00 00 00	 DD	 $LN27@GetToken
$LN33@GetToken:
  00374	00		 DB	 0
  00375	01		 DB	 1
  00376	07		 DB	 7
  00377	07		 DB	 7
  00378	07		 DB	 7
  00379	07		 DB	 7
  0037a	07		 DB	 7
  0037b	07		 DB	 7
  0037c	07		 DB	 7
  0037d	07		 DB	 7
  0037e	02		 DB	 2
  0037f	03		 DB	 3
  00380	03		 DB	 3
  00381	07		 DB	 7
  00382	03		 DB	 3
  00383	03		 DB	 3
  00384	03		 DB	 3
  00385	03		 DB	 3
  00386	03		 DB	 3
  00387	03		 DB	 3
  00388	03		 DB	 3
  00389	03		 DB	 3
  0038a	03		 DB	 3
  0038b	03		 DB	 3
  0038c	07		 DB	 7
  0038d	04		 DB	 4
  0038e	07		 DB	 7
  0038f	07		 DB	 7
  00390	07		 DB	 7
  00391	07		 DB	 7
  00392	07		 DB	 7
  00393	07		 DB	 7
  00394	07		 DB	 7
  00395	07		 DB	 7
  00396	07		 DB	 7
  00397	07		 DB	 7
  00398	07		 DB	 7
  00399	07		 DB	 7
  0039a	07		 DB	 7
  0039b	07		 DB	 7
  0039c	07		 DB	 7
  0039d	07		 DB	 7
  0039e	07		 DB	 7
  0039f	07		 DB	 7
  003a0	07		 DB	 7
  003a1	07		 DB	 7
  003a2	07		 DB	 7
  003a3	07		 DB	 7
  003a4	07		 DB	 7
  003a5	07		 DB	 7
  003a6	07		 DB	 7
  003a7	07		 DB	 7
  003a8	07		 DB	 7
  003a9	07		 DB	 7
  003aa	07		 DB	 7
  003ab	07		 DB	 7
  003ac	07		 DB	 7
  003ad	07		 DB	 7
  003ae	07		 DB	 7
  003af	07		 DB	 7
  003b0	07		 DB	 7
  003b1	07		 DB	 7
  003b2	07		 DB	 7
  003b3	07		 DB	 7
  003b4	07		 DB	 7
  003b5	07		 DB	 7
  003b6	07		 DB	 7
  003b7	07		 DB	 7
  003b8	07		 DB	 7
  003b9	07		 DB	 7
  003ba	07		 DB	 7
  003bb	07		 DB	 7
  003bc	07		 DB	 7
  003bd	07		 DB	 7
  003be	07		 DB	 7
  003bf	07		 DB	 7
  003c0	07		 DB	 7
  003c1	07		 DB	 7
  003c2	07		 DB	 7
  003c3	07		 DB	 7
  003c4	07		 DB	 7
  003c5	07		 DB	 7
  003c6	07		 DB	 7
  003c7	07		 DB	 7
  003c8	07		 DB	 7
  003c9	07		 DB	 7
  003ca	07		 DB	 7
  003cb	07		 DB	 7
  003cc	07		 DB	 7
  003cd	05		 DB	 5
  003ce	07		 DB	 7
  003cf	06		 DB	 6
?GetToken@@YA?AW4SMDToken@@XZ ENDP			; GetToken
_TEXT	ENDS
; Function compile flags: /Odtp /ZI
; File C:\Mu Online\Mu-GS-Webzen-MC-10093\GameServer\MonsterAttr.cpp
;	COMDAT ?__empty_global_delete@@YAXPAXI@Z
_TEXT	SEGMENT
___formal$ = 8						; size = 4
___formal$ = 12						; size = 4
?__empty_global_delete@@YAXPAXI@Z PROC			; __empty_global_delete, COMDAT

  00000	55		 push	 ebp
  00001	8b ec		 mov	 ebp, esp
  00003	83 ec 40	 sub	 esp, 64			; 00000040H
  00006	53		 push	 ebx
  00007	56		 push	 esi
  00008	57		 push	 edi
  00009	5f		 pop	 edi
  0000a	5e		 pop	 esi
  0000b	5b		 pop	 ebx
  0000c	8b e5		 mov	 esp, ebp
  0000e	5d		 pop	 ebp
  0000f	c3		 ret	 0
?__empty_global_delete@@YAXPAXI@Z ENDP			; __empty_global_delete
_TEXT	ENDS
; Function compile flags: /Odtp /ZI
; File C:\Mu Online\Mu-GS-Webzen-MC-10093\GameServer\MonsterAttr.cpp
;	COMDAT ?__empty_global_delete@@YAXPAX@Z
_TEXT	SEGMENT
___formal$ = 8						; size = 4
?__empty_global_delete@@YAXPAX@Z PROC			; __empty_global_delete, COMDAT

  00000	55		 push	 ebp
  00001	8b ec		 mov	 ebp, esp
  00003	83 ec 40	 sub	 esp, 64			; 00000040H
  00006	53		 push	 ebx
  00007	56		 push	 esi
  00008	57		 push	 edi
  00009	5f		 pop	 edi
  0000a	5e		 pop	 esi
  0000b	5b		 pop	 ebx
  0000c	8b e5		 mov	 esp, ebp
  0000e	5d		 pop	 ebp
  0000f	c3		 ret	 0
?__empty_global_delete@@YAXPAX@Z ENDP			; __empty_global_delete
_TEXT	ENDS
END
