; Listing generated by Microsoft (R) Optimizing Compiler Version 19.27.29111.0 

	TITLE	C:\Mu Online\Mu-GS-Webzen-MC-10093\GameServer\MonsterHerd.cpp
	.686P
	.XMM
	include listing.inc
	.model	flat

INCLUDELIB LIBCMT
INCLUDELIB OLDNAMES

PUBLIC	?__empty_global_delete@@YAXPAX@Z		; __empty_global_delete
PUBLIC	?__empty_global_delete@@YAXPAXI@Z		; __empty_global_delete
PUBLIC	??2@YAPAXIPAX@Z					; operator new
PUBLIC	??0exception@std@@QAE@QBDH@Z			; std::exception::exception
PUBLIC	??0exception@std@@QAE@ABV01@@Z			; std::exception::exception
PUBLIC	??1exception@std@@UAE@XZ			; std::exception::~exception
PUBLIC	?what@exception@std@@UBEPBDXZ			; std::exception::what
PUBLIC	??_Gexception@std@@UAEPAXI@Z			; std::exception::`scalar deleting destructor'
PUBLIC	??0bad_alloc@std@@AAE@QBD@Z			; std::bad_alloc::bad_alloc
PUBLIC	??1bad_alloc@std@@UAE@XZ			; std::bad_alloc::~bad_alloc
PUBLIC	??0bad_alloc@std@@QAE@ABV01@@Z			; std::bad_alloc::bad_alloc
PUBLIC	??_Gbad_alloc@std@@UAEPAXI@Z			; std::bad_alloc::`scalar deleting destructor'
PUBLIC	??0bad_array_new_length@std@@QAE@XZ		; std::bad_array_new_length::bad_array_new_length
PUBLIC	??1bad_array_new_length@std@@UAE@XZ		; std::bad_array_new_length::~bad_array_new_length
PUBLIC	??0bad_array_new_length@std@@QAE@ABV01@@Z	; std::bad_array_new_length::bad_array_new_length
PUBLIC	??_Gbad_array_new_length@std@@UAEPAXI@Z		; std::bad_array_new_length::`scalar deleting destructor'
PUBLIC	?_Throw_bad_array_new_length@std@@YAXXZ		; std::_Throw_bad_array_new_length
PUBLIC	?max@?$numeric_limits@H@std@@SAHXZ		; std::numeric_limits<int>::max
PUBLIC	?_Allocate@_Default_allocate_traits@std@@SAPAXI@Z ; std::_Default_allocate_traits::_Allocate
PUBLIC	?_Adjust_manually_vector_aligned@std@@YAXAAPAXAAI@Z ; std::_Adjust_manually_vector_aligned
PUBLIC	?_Orphan_all@_Container_base0@std@@QAEXXZ	; std::_Container_base0::_Orphan_all
PUBLIC	?_Adopt@_Iterator_base0@std@@QAEXPBX@Z		; std::_Iterator_base0::_Adopt
PUBLIC	?_Getcont@_Iterator_base0@std@@QBEPBU_Container_base0@2@XZ ; std::_Iterator_base0::_Getcont
PUBLIC	??0_Fake_proxy_ptr_impl@std@@QAE@ABU_Fake_allocator@1@ABU_Container_base0@1@@Z ; std::_Fake_proxy_ptr_impl::_Fake_proxy_ptr_impl
PUBLIC	?_Release@_Fake_proxy_ptr_impl@std@@QAEXXZ	; std::_Fake_proxy_ptr_impl::_Release
PUBLIC	?_Throw_tree_length_error@std@@YAXXZ		; std::_Throw_tree_length_error
PUBLIC	??R?$less@H@std@@QBE_NABH0@Z			; std::less<int>::operator()
PUBLIC	??$min@I@std@@YAABIABI0@Z			; std::min<unsigned int>
PUBLIC	??$_Deallocate@$07$0A@@std@@YAXPAXI@Z		; std::_Deallocate<8,0>
PUBLIC	??$_Allocate@$07U_Default_allocate_traits@std@@$0A@@std@@YAPAXI@Z ; std::_Allocate<8,std::_Default_allocate_traits,0>
PUBLIC	??$_Allocate_manually_vector_aligned@U_Default_allocate_traits@std@@@std@@YAPAXI@Z ; std::_Allocate_manually_vector_aligned<std::_Default_allocate_traits>
PUBLIC	??0_MONSTER_HERD_DATA@@QAE@XZ			; _MONSTER_HERD_DATA::_MONSTER_HERD_DATA
PUBLIC	??0?$allocator@U?$_Tree_node@U?$pair@$$CBHU_MONSTER_HERD_DATA@@@std@@PAX@std@@@std@@QAE@XZ ; std::allocator<std::_Tree_node<std::pair<int const ,_MONSTER_HERD_DATA>,void *> >::allocator<std::_Tree_node<std::pair<int const ,_MONSTER_HERD_DATA>,void *> >
PUBLIC	?deallocate@?$allocator@U?$_Tree_node@U?$pair@$$CBHU_MONSTER_HERD_DATA@@@std@@PAX@std@@@std@@QAEXQAU?$_Tree_node@U?$pair@$$CBHU_MONSTER_HERD_DATA@@@std@@PAX@2@I@Z ; std::allocator<std::_Tree_node<std::pair<int const ,_MONSTER_HERD_DATA>,void *> >::deallocate
PUBLIC	?allocate@?$allocator@U?$_Tree_node@U?$pair@$$CBHU_MONSTER_HERD_DATA@@@std@@PAX@std@@@std@@QAEPAU?$_Tree_node@U?$pair@$$CBHU_MONSTER_HERD_DATA@@@std@@PAX@2@I@Z ; std::allocator<std::_Tree_node<std::pair<int const ,_MONSTER_HERD_DATA>,void *> >::allocate
PUBLIC	?deallocate@?$_Default_allocator_traits@V?$allocator@U?$_Tree_node@U?$pair@$$CBHU_MONSTER_HERD_DATA@@@std@@PAX@std@@@std@@@std@@SAXAAV?$allocator@U?$_Tree_node@U?$pair@$$CBHU_MONSTER_HERD_DATA@@@std@@PAX@std@@@2@QAU?$_Tree_node@U?$pair@$$CBHU_MONSTER_HERD_DATA@@@std@@PAX@2@I@Z ; std::_Default_allocator_traits<std::allocator<std::_Tree_node<std::pair<int const ,_MONSTER_HERD_DATA>,void *> > >::deallocate
PUBLIC	?max_size@?$_Default_allocator_traits@V?$allocator@U?$_Tree_node@U?$pair@$$CBHU_MONSTER_HERD_DATA@@@std@@PAX@std@@@std@@@std@@SAIABV?$allocator@U?$_Tree_node@U?$pair@$$CBHU_MONSTER_HERD_DATA@@@std@@PAX@std@@@2@@Z ; std::_Default_allocator_traits<std::allocator<std::_Tree_node<std::pair<int const ,_MONSTER_HERD_DATA>,void *> > >::max_size
PUBLIC	??0?$_Tree@V?$_Tmap_traits@HU_MONSTER_HERD_DATA@@U?$less@H@std@@V?$allocator@U?$pair@$$CBHU_MONSTER_HERD_DATA@@@std@@@3@$0A@@std@@@std@@QAE@ABU?$less@H@1@@Z ; std::_Tree<std::_Tmap_traits<int,_MONSTER_HERD_DATA,std::less<int>,std::allocator<std::pair<int const ,_MONSTER_HERD_DATA> >,0> >::_Tree<std::_Tmap_traits<int,_MONSTER_HERD_DATA,std::less<int>,std::allocator<std::pair<int const ,_MONSTER_HERD_DATA> >,0> >
PUBLIC	??1?$_Tree@V?$_Tmap_traits@HU_MONSTER_HERD_DATA@@U?$less@H@std@@V?$allocator@U?$pair@$$CBHU_MONSTER_HERD_DATA@@@std@@@3@$0A@@std@@@std@@QAE@XZ ; std::_Tree<std::_Tmap_traits<int,_MONSTER_HERD_DATA,std::less<int>,std::allocator<std::pair<int const ,_MONSTER_HERD_DATA> >,0> >::~_Tree<std::_Tmap_traits<int,_MONSTER_HERD_DATA,std::less<int>,std::allocator<std::pair<int const ,_MONSTER_HERD_DATA> >,0> >
PUBLIC	?begin@?$_Tree@V?$_Tmap_traits@HU_MONSTER_HERD_DATA@@U?$less@H@std@@V?$allocator@U?$pair@$$CBHU_MONSTER_HERD_DATA@@@std@@@3@$0A@@std@@@std@@QAE?AV?$_Tree_iterator@V?$_Tree_val@U?$_Tree_simple_types@U?$pair@$$CBHU_MONSTER_HERD_DATA@@@std@@@std@@@std@@@2@XZ ; std::_Tree<std::_Tmap_traits<int,_MONSTER_HERD_DATA,std::less<int>,std::allocator<std::pair<int const ,_MONSTER_HERD_DATA> >,0> >::begin
PUBLIC	?end@?$_Tree@V?$_Tmap_traits@HU_MONSTER_HERD_DATA@@U?$less@H@std@@V?$allocator@U?$pair@$$CBHU_MONSTER_HERD_DATA@@@std@@@3@$0A@@std@@@std@@QAE?AV?$_Tree_iterator@V?$_Tree_val@U?$_Tree_simple_types@U?$pair@$$CBHU_MONSTER_HERD_DATA@@@std@@@std@@@std@@@2@XZ ; std::_Tree<std::_Tmap_traits<int,_MONSTER_HERD_DATA,std::less<int>,std::allocator<std::pair<int const ,_MONSTER_HERD_DATA> >,0> >::end
PUBLIC	?_Unchecked_begin@?$_Tree@V?$_Tmap_traits@HU_MONSTER_HERD_DATA@@U?$less@H@std@@V?$allocator@U?$pair@$$CBHU_MONSTER_HERD_DATA@@@std@@@3@$0A@@std@@@std@@QAE?AV?$_Tree_unchecked_iterator@V?$_Tree_val@U?$_Tree_simple_types@U?$pair@$$CBHU_MONSTER_HERD_DATA@@@std@@@std@@@std@@@2@XZ ; std::_Tree<std::_Tmap_traits<int,_MONSTER_HERD_DATA,std::less<int>,std::allocator<std::pair<int const ,_MONSTER_HERD_DATA> >,0> >::_Unchecked_begin
PUBLIC	?size@?$_Tree@V?$_Tmap_traits@HU_MONSTER_HERD_DATA@@U?$less@H@std@@V?$allocator@U?$pair@$$CBHU_MONSTER_HERD_DATA@@@std@@@3@$0A@@std@@@std@@QBEIXZ ; std::_Tree<std::_Tmap_traits<int,_MONSTER_HERD_DATA,std::less<int>,std::allocator<std::pair<int const ,_MONSTER_HERD_DATA> >,0> >::size
PUBLIC	?max_size@?$_Tree@V?$_Tmap_traits@HU_MONSTER_HERD_DATA@@U?$less@H@std@@V?$allocator@U?$pair@$$CBHU_MONSTER_HERD_DATA@@@std@@@3@$0A@@std@@@std@@QBEIXZ ; std::_Tree<std::_Tmap_traits<int,_MONSTER_HERD_DATA,std::less<int>,std::allocator<std::pair<int const ,_MONSTER_HERD_DATA> >,0> >::max_size
PUBLIC	?empty@?$_Tree@V?$_Tmap_traits@HU_MONSTER_HERD_DATA@@U?$less@H@std@@V?$allocator@U?$pair@$$CBHU_MONSTER_HERD_DATA@@@std@@@3@$0A@@std@@@std@@QBE_NXZ ; std::_Tree<std::_Tmap_traits<int,_MONSTER_HERD_DATA,std::less<int>,std::allocator<std::pair<int const ,_MONSTER_HERD_DATA> >,0> >::empty
PUBLIC	?_Erase_unchecked@?$_Tree@V?$_Tmap_traits@HU_MONSTER_HERD_DATA@@U?$less@H@std@@V?$allocator@U?$pair@$$CBHU_MONSTER_HERD_DATA@@@std@@@3@$0A@@std@@@std@@AAEPAU?$_Tree_node@U?$pair@$$CBHU_MONSTER_HERD_DATA@@@std@@PAX@2@V?$_Tree_unchecked_const_iterator@V?$_Tree_val@U?$_Tree_simple_types@U?$pair@$$CBHU_MONSTER_HERD_DATA@@@std@@@std@@@std@@U_Iterator_base0@2@@2@@Z ; std::_Tree<std::_Tmap_traits<int,_MONSTER_HERD_DATA,std::less<int>,std::allocator<std::pair<int const ,_MONSTER_HERD_DATA> >,0> >::_Erase_unchecked
PUBLIC	?_Erase_unchecked@?$_Tree@V?$_Tmap_traits@HU_MONSTER_HERD_DATA@@U?$less@H@std@@V?$allocator@U?$pair@$$CBHU_MONSTER_HERD_DATA@@@std@@@3@$0A@@std@@@std@@AAEPAU?$_Tree_node@U?$pair@$$CBHU_MONSTER_HERD_DATA@@@std@@PAX@2@V?$_Tree_unchecked_const_iterator@V?$_Tree_val@U?$_Tree_simple_types@U?$pair@$$CBHU_MONSTER_HERD_DATA@@@std@@@std@@@std@@U_Iterator_base0@2@@2@0@Z ; std::_Tree<std::_Tmap_traits<int,_MONSTER_HERD_DATA,std::less<int>,std::allocator<std::pair<int const ,_MONSTER_HERD_DATA> >,0> >::_Erase_unchecked
PUBLIC	?erase@?$_Tree@V?$_Tmap_traits@HU_MONSTER_HERD_DATA@@U?$less@H@std@@V?$allocator@U?$pair@$$CBHU_MONSTER_HERD_DATA@@@std@@@3@$0A@@std@@@std@@QAE?AV?$_Tree_iterator@V?$_Tree_val@U?$_Tree_simple_types@U?$pair@$$CBHU_MONSTER_HERD_DATA@@@std@@@std@@@std@@@2@V?$_Tree_const_iterator@V?$_Tree_val@U?$_Tree_simple_types@U?$pair@$$CBHU_MONSTER_HERD_DATA@@@std@@@std@@@std@@@2@0@Z ; std::_Tree<std::_Tmap_traits<int,_MONSTER_HERD_DATA,std::less<int>,std::allocator<std::pair<int const ,_MONSTER_HERD_DATA> >,0> >::erase
PUBLIC	?clear@?$_Tree@V?$_Tmap_traits@HU_MONSTER_HERD_DATA@@U?$less@H@std@@V?$allocator@U?$pair@$$CBHU_MONSTER_HERD_DATA@@@std@@@3@$0A@@std@@@std@@QAEXXZ ; std::_Tree<std::_Tmap_traits<int,_MONSTER_HERD_DATA,std::less<int>,std::allocator<std::pair<int const ,_MONSTER_HERD_DATA> >,0> >::clear
PUBLIC	?find@?$_Tree@V?$_Tmap_traits@HU_MONSTER_HERD_DATA@@U?$less@H@std@@V?$allocator@U?$pair@$$CBHU_MONSTER_HERD_DATA@@@std@@@3@$0A@@std@@@std@@QAE?AV?$_Tree_iterator@V?$_Tree_val@U?$_Tree_simple_types@U?$pair@$$CBHU_MONSTER_HERD_DATA@@@std@@@std@@@std@@@2@ABH@Z ; std::_Tree<std::_Tmap_traits<int,_MONSTER_HERD_DATA,std::less<int>,std::allocator<std::pair<int const ,_MONSTER_HERD_DATA> >,0> >::find
PUBLIC	?_Check_grow_by_1@?$_Tree@V?$_Tmap_traits@HU_MONSTER_HERD_DATA@@U?$less@H@std@@V?$allocator@U?$pair@$$CBHU_MONSTER_HERD_DATA@@@std@@@3@$0A@@std@@@std@@IAEXXZ ; std::_Tree<std::_Tmap_traits<int,_MONSTER_HERD_DATA,std::less<int>,std::allocator<std::pair<int const ,_MONSTER_HERD_DATA> >,0> >::_Check_grow_by_1
PUBLIC	?_Alloc_sentinel_and_proxy@?$_Tree@V?$_Tmap_traits@HU_MONSTER_HERD_DATA@@U?$less@H@std@@V?$allocator@U?$pair@$$CBHU_MONSTER_HERD_DATA@@@std@@@3@$0A@@std@@@std@@IAEXXZ ; std::_Tree<std::_Tmap_traits<int,_MONSTER_HERD_DATA,std::less<int>,std::allocator<std::pair<int const ,_MONSTER_HERD_DATA> >,0> >::_Alloc_sentinel_and_proxy
PUBLIC	?_Getcomp@?$_Tree@V?$_Tmap_traits@HU_MONSTER_HERD_DATA@@U?$less@H@std@@V?$allocator@U?$pair@$$CBHU_MONSTER_HERD_DATA@@@std@@@3@$0A@@std@@@std@@IBEABU?$less@H@2@XZ ; std::_Tree<std::_Tmap_traits<int,_MONSTER_HERD_DATA,std::less<int>,std::allocator<std::pair<int const ,_MONSTER_HERD_DATA> >,0> >::_Getcomp
PUBLIC	?_Getal@?$_Tree@V?$_Tmap_traits@HU_MONSTER_HERD_DATA@@U?$less@H@std@@V?$allocator@U?$pair@$$CBHU_MONSTER_HERD_DATA@@@std@@@3@$0A@@std@@@std@@IAEAAV?$allocator@U?$_Tree_node@U?$pair@$$CBHU_MONSTER_HERD_DATA@@@std@@PAX@std@@@2@XZ ; std::_Tree<std::_Tmap_traits<int,_MONSTER_HERD_DATA,std::less<int>,std::allocator<std::pair<int const ,_MONSTER_HERD_DATA> >,0> >::_Getal
PUBLIC	?_Getal@?$_Tree@V?$_Tmap_traits@HU_MONSTER_HERD_DATA@@U?$less@H@std@@V?$allocator@U?$pair@$$CBHU_MONSTER_HERD_DATA@@@std@@@3@$0A@@std@@@std@@IBEABV?$allocator@U?$_Tree_node@U?$pair@$$CBHU_MONSTER_HERD_DATA@@@std@@PAX@std@@@2@XZ ; std::_Tree<std::_Tmap_traits<int,_MONSTER_HERD_DATA,std::less<int>,std::allocator<std::pair<int const ,_MONSTER_HERD_DATA> >,0> >::_Getal
PUBLIC	?_Get_scary@?$_Tree@V?$_Tmap_traits@HU_MONSTER_HERD_DATA@@U?$less@H@std@@V?$allocator@U?$pair@$$CBHU_MONSTER_HERD_DATA@@@std@@@3@$0A@@std@@@std@@IAEPAV?$_Tree_val@U?$_Tree_simple_types@U?$pair@$$CBHU_MONSTER_HERD_DATA@@@std@@@std@@@2@XZ ; std::_Tree<std::_Tmap_traits<int,_MONSTER_HERD_DATA,std::less<int>,std::allocator<std::pair<int const ,_MONSTER_HERD_DATA> >,0> >::_Get_scary
PUBLIC	?_Get_scary@?$_Tree@V?$_Tmap_traits@HU_MONSTER_HERD_DATA@@U?$less@H@std@@V?$allocator@U?$pair@$$CBHU_MONSTER_HERD_DATA@@@std@@@3@$0A@@std@@@std@@IBEPBV?$_Tree_val@U?$_Tree_simple_types@U?$pair@$$CBHU_MONSTER_HERD_DATA@@@std@@@std@@@2@XZ ; std::_Tree<std::_Tmap_traits<int,_MONSTER_HERD_DATA,std::less<int>,std::allocator<std::pair<int const ,_MONSTER_HERD_DATA> >,0> >::_Get_scary
PUBLIC	??0?$_Tree_val@U?$_Tree_simple_types@U?$pair@$$CBHU_MONSTER_HERD_DATA@@@std@@@std@@@std@@QAE@XZ ; std::_Tree_val<std::_Tree_simple_types<std::pair<int const ,_MONSTER_HERD_DATA> > >::_Tree_val<std::_Tree_simple_types<std::pair<int const ,_MONSTER_HERD_DATA> > >
PUBLIC	?_Max@?$_Tree_val@U?$_Tree_simple_types@U?$pair@$$CBHU_MONSTER_HERD_DATA@@@std@@@std@@@std@@SAPAU?$_Tree_node@U?$pair@$$CBHU_MONSTER_HERD_DATA@@@std@@PAX@2@PAU32@@Z ; std::_Tree_val<std::_Tree_simple_types<std::pair<int const ,_MONSTER_HERD_DATA> > >::_Max
PUBLIC	?_Min@?$_Tree_val@U?$_Tree_simple_types@U?$pair@$$CBHU_MONSTER_HERD_DATA@@@std@@@std@@@std@@SAPAU?$_Tree_node@U?$pair@$$CBHU_MONSTER_HERD_DATA@@@std@@PAX@2@PAU32@@Z ; std::_Tree_val<std::_Tree_simple_types<std::pair<int const ,_MONSTER_HERD_DATA> > >::_Min
PUBLIC	?_Lrotate@?$_Tree_val@U?$_Tree_simple_types@U?$pair@$$CBHU_MONSTER_HERD_DATA@@@std@@@std@@@std@@QAEXPAU?$_Tree_node@U?$pair@$$CBHU_MONSTER_HERD_DATA@@@std@@PAX@2@@Z ; std::_Tree_val<std::_Tree_simple_types<std::pair<int const ,_MONSTER_HERD_DATA> > >::_Lrotate
PUBLIC	?_Rrotate@?$_Tree_val@U?$_Tree_simple_types@U?$pair@$$CBHU_MONSTER_HERD_DATA@@@std@@@std@@@std@@QAEXPAU?$_Tree_node@U?$pair@$$CBHU_MONSTER_HERD_DATA@@@std@@PAX@2@@Z ; std::_Tree_val<std::_Tree_simple_types<std::pair<int const ,_MONSTER_HERD_DATA> > >::_Rrotate
PUBLIC	?_Extract@?$_Tree_val@U?$_Tree_simple_types@U?$pair@$$CBHU_MONSTER_HERD_DATA@@@std@@@std@@@std@@QAEPAU?$_Tree_node@U?$pair@$$CBHU_MONSTER_HERD_DATA@@@std@@PAX@2@V?$_Tree_unchecked_const_iterator@V?$_Tree_val@U?$_Tree_simple_types@U?$pair@$$CBHU_MONSTER_HERD_DATA@@@std@@@std@@@std@@U_Iterator_base0@2@@2@@Z ; std::_Tree_val<std::_Tree_simple_types<std::pair<int const ,_MONSTER_HERD_DATA> > >::_Extract
PUBLIC	?_Insert_node@?$_Tree_val@U?$_Tree_simple_types@U?$pair@$$CBHU_MONSTER_HERD_DATA@@@std@@@std@@@std@@QAEPAU?$_Tree_node@U?$pair@$$CBHU_MONSTER_HERD_DATA@@@std@@PAX@2@U?$_Tree_id@PAU?$_Tree_node@U?$pair@$$CBHU_MONSTER_HERD_DATA@@@std@@PAX@std@@@2@QAU32@@Z ; std::_Tree_val<std::_Tree_simple_types<std::pair<int const ,_MONSTER_HERD_DATA> > >::_Insert_node
PUBLIC	?_Orphan_ptr@?$_Tree_val@U?$_Tree_simple_types@U?$pair@$$CBHU_MONSTER_HERD_DATA@@@std@@@std@@@std@@QAEXQAU?$_Tree_node@U?$pair@$$CBHU_MONSTER_HERD_DATA@@@std@@PAX@2@@Z ; std::_Tree_val<std::_Tree_simple_types<std::pair<int const ,_MONSTER_HERD_DATA> > >::_Orphan_ptr
PUBLIC	?_Get_first@?$_Compressed_pair@V?$allocator@U?$_Tree_node@U?$pair@$$CBHU_MONSTER_HERD_DATA@@@std@@PAX@std@@@std@@V?$_Tree_val@U?$_Tree_simple_types@U?$pair@$$CBHU_MONSTER_HERD_DATA@@@std@@@std@@@2@$00@std@@QAEAAV?$allocator@U?$_Tree_node@U?$pair@$$CBHU_MONSTER_HERD_DATA@@@std@@PAX@std@@@2@XZ ; std::_Compressed_pair<std::allocator<std::_Tree_node<std::pair<int const ,_MONSTER_HERD_DATA>,void *> >,std::_Tree_val<std::_Tree_simple_types<std::pair<int const ,_MONSTER_HERD_DATA> > >,1>::_Get_first
PUBLIC	?_Get_first@?$_Compressed_pair@V?$allocator@U?$_Tree_node@U?$pair@$$CBHU_MONSTER_HERD_DATA@@@std@@PAX@std@@@std@@V?$_Tree_val@U?$_Tree_simple_types@U?$pair@$$CBHU_MONSTER_HERD_DATA@@@std@@@std@@@2@$00@std@@QBEABV?$allocator@U?$_Tree_node@U?$pair@$$CBHU_MONSTER_HERD_DATA@@@std@@PAX@std@@@2@XZ ; std::_Compressed_pair<std::allocator<std::_Tree_node<std::pair<int const ,_MONSTER_HERD_DATA>,void *> >,std::_Tree_val<std::_Tree_simple_types<std::pair<int const ,_MONSTER_HERD_DATA> > >,1>::_Get_first
PUBLIC	?_Get_first@?$_Compressed_pair@U?$less@H@std@@V?$_Compressed_pair@V?$allocator@U?$_Tree_node@U?$pair@$$CBHU_MONSTER_HERD_DATA@@@std@@PAX@std@@@std@@V?$_Tree_val@U?$_Tree_simple_types@U?$pair@$$CBHU_MONSTER_HERD_DATA@@@std@@@std@@@2@$00@2@$00@std@@QBEABU?$less@H@2@XZ ; std::_Compressed_pair<std::less<int>,std::_Compressed_pair<std::allocator<std::_Tree_node<std::pair<int const ,_MONSTER_HERD_DATA>,void *> >,std::_Tree_val<std::_Tree_simple_types<std::pair<int const ,_MONSTER_HERD_DATA> > >,1>,1>::_Get_first
PUBLIC	??0?$map@HU_MONSTER_HERD_DATA@@U?$less@H@std@@V?$allocator@U?$pair@$$CBHU_MONSTER_HERD_DATA@@@std@@@3@@std@@QAE@XZ ; std::map<int,_MONSTER_HERD_DATA,std::less<int>,std::allocator<std::pair<int const ,_MONSTER_HERD_DATA> > >::map<int,_MONSTER_HERD_DATA,std::less<int>,std::allocator<std::pair<int const ,_MONSTER_HERD_DATA> > >
PUBLIC	??1?$map@HU_MONSTER_HERD_DATA@@U?$less@H@std@@V?$allocator@U?$pair@$$CBHU_MONSTER_HERD_DATA@@@std@@@3@@std@@QAE@XZ ; std::map<int,_MONSTER_HERD_DATA,std::less<int>,std::allocator<std::pair<int const ,_MONSTER_HERD_DATA> > >::~map<int,_MONSTER_HERD_DATA,std::less<int>,std::allocator<std::pair<int const ,_MONSTER_HERD_DATA> > >
PUBLIC	??0MonsterHerd@@QAE@XZ				; MonsterHerd::MonsterHerd
PUBLIC	??1MonsterHerd@@UAE@XZ				; MonsterHerd::~MonsterHerd
PUBLIC	?SetTotalInfo@MonsterHerd@@UAEHHHHH@Z		; MonsterHerd::SetTotalInfo
PUBLIC	?AddMonster@MonsterHerd@@UAEHHHH@Z		; MonsterHerd::AddMonster
PUBLIC	?SetRadius@MonsterHerd@@UAEXH@Z			; MonsterHerd::SetRadius
PUBLIC	?SetPosition@MonsterHerd@@UAEXEE@Z		; MonsterHerd::SetPosition
PUBLIC	?Start@MonsterHerd@@UAEHXZ			; MonsterHerd::Start
PUBLIC	?Stop@MonsterHerd@@UAEXXZ			; MonsterHerd::Stop
PUBLIC	?CheckInRadius@MonsterHerd@@UAEHH@Z		; MonsterHerd::CheckInRadius
PUBLIC	?GetCurrentLocation@MonsterHerd@@UAEHAAE0@Z	; MonsterHerd::GetCurrentLocation
PUBLIC	?GetRandomLocation@MonsterHerd@@UAEHAAE0@Z	; MonsterHerd::GetRandomLocation
PUBLIC	?CheckLocation@MonsterHerd@@UAEHAAE0@Z		; MonsterHerd::CheckLocation
PUBLIC	?MoveHerd@MonsterHerd@@UAEHEE@Z			; MonsterHerd::MoveHerd
PUBLIC	?MonsterHerdItemDrop@MonsterHerd@@UAEHPAVOBJECTSTRUCT@@@Z ; MonsterHerd::MonsterHerdItemDrop
PUBLIC	?GetMonsterData@MonsterHerd@@UAEPAU_MONSTER_HERD_DATA@@H@Z ; MonsterHerd::GetMonsterData
PUBLIC	?BeenAttacked@MonsterHerd@@UAEXPAVOBJECTSTRUCT@@0@Z ; MonsterHerd::BeenAttacked
PUBLIC	?OrderAttack@MonsterHerd@@UAEXPAVOBJECTSTRUCT@@0H@Z ; MonsterHerd::OrderAttack
PUBLIC	?MonsterBaseAct@MonsterHerd@@UAEXPAVOBJECTSTRUCT@@@Z ; MonsterHerd::MonsterBaseAct
PUBLIC	?MonsterMoveAction@MonsterHerd@@UAEXPAVOBJECTSTRUCT@@@Z ; MonsterHerd::MonsterMoveAction
PUBLIC	?MonsterAttackAction@MonsterHerd@@UAEXPAVOBJECTSTRUCT@@0@Z ; MonsterHerd::MonsterAttackAction
PUBLIC	?MonsterDieAction@MonsterHerd@@UAEXPAVOBJECTSTRUCT@@@Z ; MonsterHerd::MonsterDieAction
PUBLIC	?MonsterRegenAction@MonsterHerd@@UAEHPAVOBJECTSTRUCT@@@Z ; MonsterHerd::MonsterRegenAction
PUBLIC	??_GMonsterHerd@@UAEPAXI@Z			; MonsterHerd::`scalar deleting destructor'
PUBLIC	??$?0AAHAAU_MONSTER_HERD_DATA@@$0A@@?$pair@HU_MONSTER_HERD_DATA@@@std@@QAE@AAHAAU_MONSTER_HERD_DATA@@@Z ; std::pair<int,_MONSTER_HERD_DATA>::pair<int,_MONSTER_HERD_DATA><int &,_MONSTER_HERD_DATA &,0>
PUBLIC	??$?0HU_MONSTER_HERD_DATA@@$0A@@?$pair@$$CBHU_MONSTER_HERD_DATA@@@std@@QAE@$$QAU?$pair@HU_MONSTER_HERD_DATA@@@1@@Z ; std::pair<int const ,_MONSTER_HERD_DATA>::pair<int const ,_MONSTER_HERD_DATA><int,_MONSTER_HERD_DATA,0>
PUBLIC	??$insert@U?$pair@HU_MONSTER_HERD_DATA@@@std@@$0A@@?$map@HU_MONSTER_HERD_DATA@@U?$less@H@std@@V?$allocator@U?$pair@$$CBHU_MONSTER_HERD_DATA@@@std@@@3@@std@@QAE?AU?$pair@V?$_Tree_iterator@V?$_Tree_val@U?$_Tree_simple_types@U?$pair@$$CBHU_MONSTER_HERD_DATA@@@std@@@std@@@std@@@std@@_N@1@$$QAU?$pair@HU_MONSTER_HERD_DATA@@@1@@Z ; std::map<int,_MONSTER_HERD_DATA,std::less<int>,std::allocator<std::pair<int const ,_MONSTER_HERD_DATA> > >::insert<std::pair<int,_MONSTER_HERD_DATA>,0>
PUBLIC	??0?$_Tree_unchecked_const_iterator@V?$_Tree_val@U?$_Tree_simple_types@U?$pair@$$CBHU_MONSTER_HERD_DATA@@@std@@@std@@@std@@U_Iterator_base0@2@@std@@QAE@PAU?$_Tree_node@U?$pair@$$CBHU_MONSTER_HERD_DATA@@@std@@PAX@1@PBV?$_Tree_val@U?$_Tree_simple_types@U?$pair@$$CBHU_MONSTER_HERD_DATA@@@std@@@std@@@1@@Z ; std::_Tree_unchecked_const_iterator<std::_Tree_val<std::_Tree_simple_types<std::pair<int const ,_MONSTER_HERD_DATA> > >,std::_Iterator_base0>::_Tree_unchecked_const_iterator<std::_Tree_val<std::_Tree_simple_types<std::pair<int const ,_MONSTER_HERD_DATA> > >,std::_Iterator_base0>
PUBLIC	??E?$_Tree_unchecked_const_iterator@V?$_Tree_val@U?$_Tree_simple_types@U?$pair@$$CBHU_MONSTER_HERD_DATA@@@std@@@std@@@std@@U_Iterator_base0@2@@std@@QAEAAV01@XZ ; std::_Tree_unchecked_const_iterator<std::_Tree_val<std::_Tree_simple_types<std::pair<int const ,_MONSTER_HERD_DATA> > >,std::_Iterator_base0>::operator++
PUBLIC	??E?$_Tree_unchecked_const_iterator@V?$_Tree_val@U?$_Tree_simple_types@U?$pair@$$CBHU_MONSTER_HERD_DATA@@@std@@@std@@@std@@U_Iterator_base0@2@@std@@QAE?AV01@H@Z ; std::_Tree_unchecked_const_iterator<std::_Tree_val<std::_Tree_simple_types<std::pair<int const ,_MONSTER_HERD_DATA> > >,std::_Iterator_base0>::operator++
PUBLIC	??8?$_Tree_unchecked_const_iterator@V?$_Tree_val@U?$_Tree_simple_types@U?$pair@$$CBHU_MONSTER_HERD_DATA@@@std@@@std@@@std@@U_Iterator_base0@2@@std@@QBE_NABV01@@Z ; std::_Tree_unchecked_const_iterator<std::_Tree_val<std::_Tree_simple_types<std::pair<int const ,_MONSTER_HERD_DATA> > >,std::_Iterator_base0>::operator==
PUBLIC	??9?$_Tree_unchecked_const_iterator@V?$_Tree_val@U?$_Tree_simple_types@U?$pair@$$CBHU_MONSTER_HERD_DATA@@@std@@@std@@@std@@U_Iterator_base0@2@@std@@QBE_NABV01@@Z ; std::_Tree_unchecked_const_iterator<std::_Tree_val<std::_Tree_simple_types<std::pair<int const ,_MONSTER_HERD_DATA> > >,std::_Iterator_base0>::operator!=
PUBLIC	??D?$_Tree_const_iterator@V?$_Tree_val@U?$_Tree_simple_types@U?$pair@$$CBHU_MONSTER_HERD_DATA@@@std@@@std@@@std@@@std@@QBEABU?$pair@$$CBHU_MONSTER_HERD_DATA@@@1@XZ ; std::_Tree_const_iterator<std::_Tree_val<std::_Tree_simple_types<std::pair<int const ,_MONSTER_HERD_DATA> > > >::operator*
PUBLIC	??E?$_Tree_const_iterator@V?$_Tree_val@U?$_Tree_simple_types@U?$pair@$$CBHU_MONSTER_HERD_DATA@@@std@@@std@@@std@@@std@@QAEAAV01@XZ ; std::_Tree_const_iterator<std::_Tree_val<std::_Tree_simple_types<std::pair<int const ,_MONSTER_HERD_DATA> > > >::operator++
PUBLIC	??8?$_Tree_const_iterator@V?$_Tree_val@U?$_Tree_simple_types@U?$pair@$$CBHU_MONSTER_HERD_DATA@@@std@@@std@@@std@@@std@@QBE_NABV01@@Z ; std::_Tree_const_iterator<std::_Tree_val<std::_Tree_simple_types<std::pair<int const ,_MONSTER_HERD_DATA> > > >::operator==
PUBLIC	??9?$_Tree_const_iterator@V?$_Tree_val@U?$_Tree_simple_types@U?$pair@$$CBHU_MONSTER_HERD_DATA@@@std@@@std@@@std@@@std@@QBE_NABV01@@Z ; std::_Tree_const_iterator<std::_Tree_val<std::_Tree_simple_types<std::pair<int const ,_MONSTER_HERD_DATA> > > >::operator!=
PUBLIC	?_Unwrapped@?$_Tree_const_iterator@V?$_Tree_val@U?$_Tree_simple_types@U?$pair@$$CBHU_MONSTER_HERD_DATA@@@std@@@std@@@std@@@std@@QBE?AV?$_Tree_unchecked_const_iterator@V?$_Tree_val@U?$_Tree_simple_types@U?$pair@$$CBHU_MONSTER_HERD_DATA@@@std@@@std@@@std@@U_Iterator_base0@2@@2@XZ ; std::_Tree_const_iterator<std::_Tree_val<std::_Tree_simple_types<std::pair<int const ,_MONSTER_HERD_DATA> > > >::_Unwrapped
PUBLIC	??0?$_Tree_const_iterator@V?$_Tree_val@U?$_Tree_simple_types@U?$pair@$$CBHU_MONSTER_HERD_DATA@@@std@@@std@@@std@@@std@@QAE@PAU?$_Tree_node@U?$pair@$$CBHU_MONSTER_HERD_DATA@@@std@@PAX@1@PBV?$_Tree_val@U?$_Tree_simple_types@U?$pair@$$CBHU_MONSTER_HERD_DATA@@@std@@@std@@@1@@Z ; std::_Tree_const_iterator<std::_Tree_val<std::_Tree_simple_types<std::pair<int const ,_MONSTER_HERD_DATA> > > >::_Tree_const_iterator<std::_Tree_val<std::_Tree_simple_types<std::pair<int const ,_MONSTER_HERD_DATA> > > >
PUBLIC	??D?$_Tree_iterator@V?$_Tree_val@U?$_Tree_simple_types@U?$pair@$$CBHU_MONSTER_HERD_DATA@@@std@@@std@@@std@@@std@@QBEAAU?$pair@$$CBHU_MONSTER_HERD_DATA@@@1@XZ ; std::_Tree_iterator<std::_Tree_val<std::_Tree_simple_types<std::pair<int const ,_MONSTER_HERD_DATA> > > >::operator*
PUBLIC	??C?$_Tree_iterator@V?$_Tree_val@U?$_Tree_simple_types@U?$pair@$$CBHU_MONSTER_HERD_DATA@@@std@@@std@@@std@@@std@@QBEPAU?$pair@$$CBHU_MONSTER_HERD_DATA@@@1@XZ ; std::_Tree_iterator<std::_Tree_val<std::_Tree_simple_types<std::pair<int const ,_MONSTER_HERD_DATA> > > >::operator->
PUBLIC	??E?$_Tree_iterator@V?$_Tree_val@U?$_Tree_simple_types@U?$pair@$$CBHU_MONSTER_HERD_DATA@@@std@@@std@@@std@@@std@@QAE?AV01@H@Z ; std::_Tree_iterator<std::_Tree_val<std::_Tree_simple_types<std::pair<int const ,_MONSTER_HERD_DATA> > > >::operator++
PUBLIC	??0?$_Tree_iterator@V?$_Tree_val@U?$_Tree_simple_types@U?$pair@$$CBHU_MONSTER_HERD_DATA@@@std@@@std@@@std@@@std@@QAE@PAU?$_Tree_node@U?$pair@$$CBHU_MONSTER_HERD_DATA@@@std@@PAX@1@PBV?$_Tree_val@U?$_Tree_simple_types@U?$pair@$$CBHU_MONSTER_HERD_DATA@@@std@@@std@@@1@@Z ; std::_Tree_iterator<std::_Tree_val<std::_Tree_simple_types<std::pair<int const ,_MONSTER_HERD_DATA> > > >::_Tree_iterator<std::_Tree_val<std::_Tree_simple_types<std::pair<int const ,_MONSTER_HERD_DATA> > > >
PUBLIC	?pointer_to@?$pointer_traits@PAU?$pair@$$CBHU_MONSTER_HERD_DATA@@@std@@@std@@SAPAU?$pair@$$CBHU_MONSTER_HERD_DATA@@@2@AAU32@@Z ; std::pointer_traits<std::pair<int const ,_MONSTER_HERD_DATA> *>::pointer_to
PUBLIC	??$_Find@H@?$_Tree@V?$_Tmap_traits@HU_MONSTER_HERD_DATA@@U?$less@H@std@@V?$allocator@U?$pair@$$CBHU_MONSTER_HERD_DATA@@@std@@@3@$0A@@std@@@std@@ABEPAU?$_Tree_node@U?$pair@$$CBHU_MONSTER_HERD_DATA@@@std@@PAX@1@ABH@Z ; std::_Tree<std::_Tmap_traits<int,_MONSTER_HERD_DATA,std::less<int>,std::allocator<std::pair<int const ,_MONSTER_HERD_DATA> >,0> >::_Find<int>
PUBLIC	??$_Erase_head@V?$allocator@U?$_Tree_node@U?$pair@$$CBHU_MONSTER_HERD_DATA@@@std@@PAX@std@@@std@@@?$_Tree_val@U?$_Tree_simple_types@U?$pair@$$CBHU_MONSTER_HERD_DATA@@@std@@@std@@@std@@QAEXAAV?$allocator@U?$_Tree_node@U?$pair@$$CBHU_MONSTER_HERD_DATA@@@std@@PAX@std@@@1@@Z ; std::_Tree_val<std::_Tree_simple_types<std::pair<int const ,_MONSTER_HERD_DATA> > >::_Erase_head<std::allocator<std::_Tree_node<std::pair<int const ,_MONSTER_HERD_DATA>,void *> > >
PUBLIC	??$addressof@U?$pair@$$CBHU_MONSTER_HERD_DATA@@@std@@@std@@YAPAU?$pair@$$CBHU_MONSTER_HERD_DATA@@@0@AAU10@@Z ; std::addressof<std::pair<int const ,_MONSTER_HERD_DATA> >
PUBLIC	??$addressof@V?$_Tree_val@U?$_Tree_simple_types@U?$pair@$$CBHU_MONSTER_HERD_DATA@@@std@@@std@@@std@@@std@@YAPAV?$_Tree_val@U?$_Tree_simple_types@U?$pair@$$CBHU_MONSTER_HERD_DATA@@@std@@@std@@@0@AAV10@@Z ; std::addressof<std::_Tree_val<std::_Tree_simple_types<std::pair<int const ,_MONSTER_HERD_DATA> > > >
PUBLIC	??0?$_Tree_unchecked_iterator@V?$_Tree_val@U?$_Tree_simple_types@U?$pair@$$CBHU_MONSTER_HERD_DATA@@@std@@@std@@@std@@@std@@QAE@PAU?$_Tree_node@U?$pair@$$CBHU_MONSTER_HERD_DATA@@@std@@PAX@1@PBV?$_Tree_val@U?$_Tree_simple_types@U?$pair@$$CBHU_MONSTER_HERD_DATA@@@std@@@std@@@1@@Z ; std::_Tree_unchecked_iterator<std::_Tree_val<std::_Tree_simple_types<std::pair<int const ,_MONSTER_HERD_DATA> > > >::_Tree_unchecked_iterator<std::_Tree_val<std::_Tree_simple_types<std::pair<int const ,_MONSTER_HERD_DATA> > > >
PUBLIC	??$?0ABU?$less@H@std@@U_Zero_then_variadic_args_t@1@@?$_Compressed_pair@U?$less@H@std@@V?$_Compressed_pair@V?$allocator@U?$_Tree_node@U?$pair@$$CBHU_MONSTER_HERD_DATA@@@std@@PAX@std@@@std@@V?$_Tree_val@U?$_Tree_simple_types@U?$pair@$$CBHU_MONSTER_HERD_DATA@@@std@@@std@@@2@$00@2@$00@std@@QAE@U_One_then_variadic_args_t@1@ABU?$less@H@1@$$QAU_Zero_then_variadic_args_t@1@@Z ; std::_Compressed_pair<std::less<int>,std::_Compressed_pair<std::allocator<std::_Tree_node<std::pair<int const ,_MONSTER_HERD_DATA>,void *> >,std::_Tree_val<std::_Tree_simple_types<std::pair<int const ,_MONSTER_HERD_DATA> > >,1>,1>::_Compressed_pair<std::less<int>,std::_Compressed_pair<std::allocator<std::_Tree_node<std::pair<int const ,_MONSTER_HERD_DATA>,void *> >,std::_Tree_val<std::_Tree_simple_types<std::pair<int const ,_MONSTER_HERD_DATA> > >,1>,1><std::less<int> const &,std::_Zero_then_variadic_args_t>
PUBLIC	??$?0$$V@?$_Compressed_pair@V?$allocator@U?$_Tree_node@U?$pair@$$CBHU_MONSTER_HERD_DATA@@@std@@PAX@std@@@std@@V?$_Tree_val@U?$_Tree_simple_types@U?$pair@$$CBHU_MONSTER_HERD_DATA@@@std@@@std@@@2@$00@std@@QAE@U_Zero_then_variadic_args_t@1@@Z ; std::_Compressed_pair<std::allocator<std::_Tree_node<std::pair<int const ,_MONSTER_HERD_DATA>,void *> >,std::_Tree_val<std::_Tree_simple_types<std::pair<int const ,_MONSTER_HERD_DATA> > >,1>::_Compressed_pair<std::allocator<std::_Tree_node<std::pair<int const ,_MONSTER_HERD_DATA>,void *> >,std::_Tree_val<std::_Tree_simple_types<std::pair<int const ,_MONSTER_HERD_DATA> > >,1><>
PUBLIC	??$addressof@$$CBV?$_Tree_val@U?$_Tree_simple_types@U?$pair@$$CBHU_MONSTER_HERD_DATA@@@std@@@std@@@std@@@std@@YAPBV?$_Tree_val@U?$_Tree_simple_types@U?$pair@$$CBHU_MONSTER_HERD_DATA@@@std@@@std@@@0@ABV10@@Z ; std::addressof<std::_Tree_val<std::_Tree_simple_types<std::pair<int const ,_MONSTER_HERD_DATA> > > const >
PUBLIC	??$_Buyheadnode@V?$allocator@U?$_Tree_node@U?$pair@$$CBHU_MONSTER_HERD_DATA@@@std@@PAX@std@@@std@@@?$_Tree_node@U?$pair@$$CBHU_MONSTER_HERD_DATA@@@std@@PAX@std@@SAPAU01@AAV?$allocator@U?$_Tree_node@U?$pair@$$CBHU_MONSTER_HERD_DATA@@@std@@PAX@std@@@1@@Z ; std::_Tree_node<std::pair<int const ,_MONSTER_HERD_DATA>,void *>::_Buyheadnode<std::allocator<std::_Tree_node<std::pair<int const ,_MONSTER_HERD_DATA>,void *> > >
PUBLIC	??$_Erase_tree@V?$allocator@U?$_Tree_node@U?$pair@$$CBHU_MONSTER_HERD_DATA@@@std@@PAX@std@@@std@@@?$_Tree_val@U?$_Tree_simple_types@U?$pair@$$CBHU_MONSTER_HERD_DATA@@@std@@@std@@@std@@QAEXAAV?$allocator@U?$_Tree_node@U?$pair@$$CBHU_MONSTER_HERD_DATA@@@std@@PAX@std@@@1@PAU?$_Tree_node@U?$pair@$$CBHU_MONSTER_HERD_DATA@@@std@@PAX@1@@Z ; std::_Tree_val<std::_Tree_simple_types<std::pair<int const ,_MONSTER_HERD_DATA> > >::_Erase_tree<std::allocator<std::_Tree_node<std::pair<int const ,_MONSTER_HERD_DATA>,void *> > >
PUBLIC	??$_Freenode@V?$allocator@U?$_Tree_node@U?$pair@$$CBHU_MONSTER_HERD_DATA@@@std@@PAX@std@@@std@@@?$_Tree_node@U?$pair@$$CBHU_MONSTER_HERD_DATA@@@std@@PAX@std@@SAXAAV?$allocator@U?$_Tree_node@U?$pair@$$CBHU_MONSTER_HERD_DATA@@@std@@PAX@std@@@1@PAU01@@Z ; std::_Tree_node<std::pair<int const ,_MONSTER_HERD_DATA>,void *>::_Freenode<std::allocator<std::_Tree_node<std::pair<int const ,_MONSTER_HERD_DATA>,void *> > >
PUBLIC	??$swap@D$0A@@std@@YAXAAD0@Z			; std::swap<char,0>
PUBLIC	??$forward@AAH@std@@YAAAHAAH@Z			; std::forward<int &>
PUBLIC	??$forward@AAU_MONSTER_HERD_DATA@@@std@@YAAAU_MONSTER_HERD_DATA@@AAU1@@Z ; std::forward<_MONSTER_HERD_DATA &>
PUBLIC	??$forward@U?$pair@HU_MONSTER_HERD_DATA@@@std@@@std@@YA$$QAU?$pair@HU_MONSTER_HERD_DATA@@@0@AAU10@@Z ; std::forward<std::pair<int,_MONSTER_HERD_DATA> >
PUBLIC	??$emplace@U?$pair@HU_MONSTER_HERD_DATA@@@std@@@?$_Tree@V?$_Tmap_traits@HU_MONSTER_HERD_DATA@@U?$less@H@std@@V?$allocator@U?$pair@$$CBHU_MONSTER_HERD_DATA@@@std@@@3@$0A@@std@@@std@@QAE?AU?$pair@V?$_Tree_iterator@V?$_Tree_val@U?$_Tree_simple_types@U?$pair@$$CBHU_MONSTER_HERD_DATA@@@std@@@std@@@std@@@std@@_N@1@$$QAU?$pair@HU_MONSTER_HERD_DATA@@@1@@Z ; std::_Tree<std::_Tmap_traits<int,_MONSTER_HERD_DATA,std::less<int>,std::allocator<std::pair<int const ,_MONSTER_HERD_DATA> >,0> >::emplace<std::pair<int,_MONSTER_HERD_DATA> >
PUBLIC	??$_Find_lower_bound@H@?$_Tree@V?$_Tmap_traits@HU_MONSTER_HERD_DATA@@U?$less@H@std@@V?$allocator@U?$pair@$$CBHU_MONSTER_HERD_DATA@@@std@@@3@$0A@@std@@@std@@IBE?AU?$_Tree_find_result@PAU?$_Tree_node@U?$pair@$$CBHU_MONSTER_HERD_DATA@@@std@@PAX@std@@@1@ABH@Z ; std::_Tree<std::_Tmap_traits<int,_MONSTER_HERD_DATA,std::less<int>,std::allocator<std::pair<int const ,_MONSTER_HERD_DATA> >,0> >::_Find_lower_bound<int>
PUBLIC	??$_Lower_bound_duplicate@H@?$_Tree@V?$_Tmap_traits@HU_MONSTER_HERD_DATA@@U?$less@H@std@@V?$allocator@U?$pair@$$CBHU_MONSTER_HERD_DATA@@@std@@@3@$0A@@std@@@std@@IBE_NQAU?$_Tree_node@U?$pair@$$CBHU_MONSTER_HERD_DATA@@@std@@PAX@1@ABH@Z ; std::_Tree<std::_Tmap_traits<int,_MONSTER_HERD_DATA,std::less<int>,std::allocator<std::pair<int const ,_MONSTER_HERD_DATA> >,0> >::_Lower_bound_duplicate<int>
PUBLIC	??$_Freenode0@V?$allocator@U?$_Tree_node@U?$pair@$$CBHU_MONSTER_HERD_DATA@@@std@@PAX@std@@@std@@@?$_Tree_node@U?$pair@$$CBHU_MONSTER_HERD_DATA@@@std@@PAX@std@@SAXAAV?$allocator@U?$_Tree_node@U?$pair@$$CBHU_MONSTER_HERD_DATA@@@std@@PAX@std@@@1@PAU01@@Z ; std::_Tree_node<std::pair<int const ,_MONSTER_HERD_DATA>,void *>::_Freenode0<std::allocator<std::_Tree_node<std::pair<int const ,_MONSTER_HERD_DATA>,void *> > >
PUBLIC	??$forward@ABU?$less@H@std@@@std@@YAABU?$less@H@0@ABU10@@Z ; std::forward<std::less<int> const &>
PUBLIC	??$forward@U_Zero_then_variadic_args_t@std@@@std@@YA$$QAU_Zero_then_variadic_args_t@0@AAU10@@Z ; std::forward<std::_Zero_then_variadic_args_t>
PUBLIC	??$_Construct_in_place@PAU?$_Tree_node@U?$pair@$$CBHU_MONSTER_HERD_DATA@@@std@@PAX@std@@ABQAU12@@std@@YAXAAPAU?$_Tree_node@U?$pair@$$CBHU_MONSTER_HERD_DATA@@@std@@PAX@0@ABQAU10@@Z ; std::_Construct_in_place<std::_Tree_node<std::pair<int const ,_MONSTER_HERD_DATA>,void *> *,std::_Tree_node<std::pair<int const ,_MONSTER_HERD_DATA>,void *> * const &>
PUBLIC	??$exchange@PAU?$_Tree_node@U?$pair@$$CBHU_MONSTER_HERD_DATA@@@std@@PAX@std@@AAPAU12@@std@@YAPAU?$_Tree_node@U?$pair@$$CBHU_MONSTER_HERD_DATA@@@std@@PAX@0@AAPAU10@0@Z ; std::exchange<std::_Tree_node<std::pair<int const ,_MONSTER_HERD_DATA>,void *> *,std::_Tree_node<std::pair<int const ,_MONSTER_HERD_DATA>,void *> * &>
PUBLIC	??$destroy@U?$pair@$$CBHU_MONSTER_HERD_DATA@@@std@@@?$_Default_allocator_traits@V?$allocator@U?$_Tree_node@U?$pair@$$CBHU_MONSTER_HERD_DATA@@@std@@PAX@std@@@std@@@std@@SAXAAV?$allocator@U?$_Tree_node@U?$pair@$$CBHU_MONSTER_HERD_DATA@@@std@@PAX@std@@@1@QAU?$pair@$$CBHU_MONSTER_HERD_DATA@@@1@@Z ; std::_Default_allocator_traits<std::allocator<std::_Tree_node<std::pair<int const ,_MONSTER_HERD_DATA>,void *> > >::destroy<std::pair<int const ,_MONSTER_HERD_DATA> >
PUBLIC	??$move@AAD@std@@YA$$QADAAD@Z			; std::move<char &>
PUBLIC	??$_Get_size_of_n@$0CE@@std@@YAII@Z		; std::_Get_size_of_n<36>
PUBLIC	??$_Emplace@U?$pair@HU_MONSTER_HERD_DATA@@@std@@@?$_Tree@V?$_Tmap_traits@HU_MONSTER_HERD_DATA@@U?$less@H@std@@V?$allocator@U?$pair@$$CBHU_MONSTER_HERD_DATA@@@std@@@3@$0A@@std@@@std@@IAE?AU?$pair@PAU?$_Tree_node@U?$pair@$$CBHU_MONSTER_HERD_DATA@@@std@@PAX@std@@_N@1@$$QAU?$pair@HU_MONSTER_HERD_DATA@@@1@@Z ; std::_Tree<std::_Tmap_traits<int,_MONSTER_HERD_DATA,std::less<int>,std::allocator<std::pair<int const ,_MONSTER_HERD_DATA> >,0> >::_Emplace<std::pair<int,_MONSTER_HERD_DATA> >
PUBLIC	??$?0V?$_Tree_iterator@V?$_Tree_val@U?$_Tree_simple_types@U?$pair@$$CBHU_MONSTER_HERD_DATA@@@std@@@std@@@std@@@std@@AB_N$0A@@?$pair@V?$_Tree_iterator@V?$_Tree_val@U?$_Tree_simple_types@U?$pair@$$CBHU_MONSTER_HERD_DATA@@@std@@@std@@@std@@@std@@_N@std@@QAE@$$QAV?$_Tree_iterator@V?$_Tree_val@U?$_Tree_simple_types@U?$pair@$$CBHU_MONSTER_HERD_DATA@@@std@@@std@@@std@@@1@AB_N@Z ; std::pair<std::_Tree_iterator<std::_Tree_val<std::_Tree_simple_types<std::pair<int const ,_MONSTER_HERD_DATA> > > >,bool>::pair<std::_Tree_iterator<std::_Tree_val<std::_Tree_simple_types<std::pair<int const ,_MONSTER_HERD_DATA> > > >,bool><std::_Tree_iterator<std::_Tree_val<std::_Tree_simple_types<std::pair<int const ,_MONSTER_HERD_DATA> > > >,bool const &,0>
PUBLIC	??$_Kfn@$$CBHU_MONSTER_HERD_DATA@@@?$_Tmap_traits@HU_MONSTER_HERD_DATA@@U?$less@H@std@@V?$allocator@U?$pair@$$CBHU_MONSTER_HERD_DATA@@@std@@@3@$0A@@std@@SAABHABU?$pair@$$CBHU_MONSTER_HERD_DATA@@@1@@Z ; std::_Tmap_traits<int,_MONSTER_HERD_DATA,std::less<int>,std::allocator<std::pair<int const ,_MONSTER_HERD_DATA> >,0>::_Kfn<int const ,_MONSTER_HERD_DATA>
PUBLIC	??$_Destroy_in_place@PAU?$_Tree_node@U?$pair@$$CBHU_MONSTER_HERD_DATA@@@std@@PAX@std@@@std@@YAXAAPAU?$_Tree_node@U?$pair@$$CBHU_MONSTER_HERD_DATA@@@std@@PAX@0@@Z ; std::_Destroy_in_place<std::_Tree_node<std::pair<int const ,_MONSTER_HERD_DATA>,void *> *>
PUBLIC	??$addressof@PAU?$_Tree_node@U?$pair@$$CBHU_MONSTER_HERD_DATA@@@std@@PAX@std@@@std@@YAPAPAU?$_Tree_node@U?$pair@$$CBHU_MONSTER_HERD_DATA@@@std@@PAX@0@AAPAU10@@Z ; std::addressof<std::_Tree_node<std::pair<int const ,_MONSTER_HERD_DATA>,void *> *>
PUBLIC	??$forward@ABQAU?$_Tree_node@U?$pair@$$CBHU_MONSTER_HERD_DATA@@@std@@PAX@std@@@std@@YAABQAU?$_Tree_node@U?$pair@$$CBHU_MONSTER_HERD_DATA@@@std@@PAX@0@ABQAU10@@Z ; std::forward<std::_Tree_node<std::pair<int const ,_MONSTER_HERD_DATA>,void *> * const &>
PUBLIC	?_Extract@?$_In_place_key_extract_map@HU?$pair@HU_MONSTER_HERD_DATA@@@std@@@std@@SAABHABU?$pair@HU_MONSTER_HERD_DATA@@@2@@Z ; std::_In_place_key_extract_map<int,std::pair<int,_MONSTER_HERD_DATA> >::_Extract
PUBLIC	??$?0AAPAU?$_Tree_node@U?$pair@$$CBHU_MONSTER_HERD_DATA@@@std@@PAX@std@@_N$0A@@?$pair@PAU?$_Tree_node@U?$pair@$$CBHU_MONSTER_HERD_DATA@@@std@@PAX@std@@_N@std@@QAE@AAPAU?$_Tree_node@U?$pair@$$CBHU_MONSTER_HERD_DATA@@@std@@PAX@1@$$QA_N@Z ; std::pair<std::_Tree_node<std::pair<int const ,_MONSTER_HERD_DATA>,void *> *,bool>::pair<std::_Tree_node<std::pair<int const ,_MONSTER_HERD_DATA>,void *> *,bool><std::_Tree_node<std::pair<int const ,_MONSTER_HERD_DATA>,void *> * &,bool,0>
PUBLIC	??0?$_Alloc_construct_ptr@V?$allocator@U?$_Tree_node@U?$pair@$$CBHU_MONSTER_HERD_DATA@@@std@@PAX@std@@@std@@@std@@QAE@AAV?$allocator@U?$_Tree_node@U?$pair@$$CBHU_MONSTER_HERD_DATA@@@std@@PAX@std@@@1@@Z ; std::_Alloc_construct_ptr<std::allocator<std::_Tree_node<std::pair<int const ,_MONSTER_HERD_DATA>,void *> > >::_Alloc_construct_ptr<std::allocator<std::_Tree_node<std::pair<int const ,_MONSTER_HERD_DATA>,void *> > >
PUBLIC	?_Release@?$_Alloc_construct_ptr@V?$allocator@U?$_Tree_node@U?$pair@$$CBHU_MONSTER_HERD_DATA@@@std@@PAX@std@@@std@@@std@@QAEPAU?$_Tree_node@U?$pair@$$CBHU_MONSTER_HERD_DATA@@@std@@PAX@2@XZ ; std::_Alloc_construct_ptr<std::allocator<std::_Tree_node<std::pair<int const ,_MONSTER_HERD_DATA>,void *> > >::_Release
PUBLIC	?_Allocate@?$_Alloc_construct_ptr@V?$allocator@U?$_Tree_node@U?$pair@$$CBHU_MONSTER_HERD_DATA@@@std@@PAX@std@@@std@@@std@@QAEXXZ ; std::_Alloc_construct_ptr<std::allocator<std::_Tree_node<std::pair<int const ,_MONSTER_HERD_DATA>,void *> > >::_Allocate
PUBLIC	??1?$_Alloc_construct_ptr@V?$allocator@U?$_Tree_node@U?$pair@$$CBHU_MONSTER_HERD_DATA@@@std@@PAX@std@@@std@@@std@@QAE@XZ ; std::_Alloc_construct_ptr<std::allocator<std::_Tree_node<std::pair<int const ,_MONSTER_HERD_DATA>,void *> > >::~_Alloc_construct_ptr<std::allocator<std::_Tree_node<std::pair<int const ,_MONSTER_HERD_DATA>,void *> > >
PUBLIC	??0?$_Tree_temp_node_alloc@V?$allocator@U?$_Tree_node@U?$pair@$$CBHU_MONSTER_HERD_DATA@@@std@@PAX@std@@@std@@@std@@QAE@AAV?$allocator@U?$_Tree_node@U?$pair@$$CBHU_MONSTER_HERD_DATA@@@std@@PAX@std@@@1@@Z ; std::_Tree_temp_node_alloc<std::allocator<std::_Tree_node<std::pair<int const ,_MONSTER_HERD_DATA>,void *> > >::_Tree_temp_node_alloc<std::allocator<std::_Tree_node<std::pair<int const ,_MONSTER_HERD_DATA>,void *> > >
PUBLIC	??1?$_Tree_temp_node_alloc@V?$allocator@U?$_Tree_node@U?$pair@$$CBHU_MONSTER_HERD_DATA@@@std@@PAX@std@@@std@@@std@@QAE@XZ ; std::_Tree_temp_node_alloc<std::allocator<std::_Tree_node<std::pair<int const ,_MONSTER_HERD_DATA>,void *> > >::~_Tree_temp_node_alloc<std::allocator<std::_Tree_node<std::pair<int const ,_MONSTER_HERD_DATA>,void *> > >
PUBLIC	??1?$_Tree_temp_node@V?$allocator@U?$_Tree_node@U?$pair@$$CBHU_MONSTER_HERD_DATA@@@std@@PAX@std@@@std@@@std@@QAE@XZ ; std::_Tree_temp_node<std::allocator<std::_Tree_node<std::pair<int const ,_MONSTER_HERD_DATA>,void *> > >::~_Tree_temp_node<std::allocator<std::_Tree_node<std::pair<int const ,_MONSTER_HERD_DATA>,void *> > >
PUBLIC	??$?0U?$pair@HU_MONSTER_HERD_DATA@@@std@@@?$_Tree_temp_node@V?$allocator@U?$_Tree_node@U?$pair@$$CBHU_MONSTER_HERD_DATA@@@std@@PAX@std@@@std@@@std@@QAE@AAV?$allocator@U?$_Tree_node@U?$pair@$$CBHU_MONSTER_HERD_DATA@@@std@@PAX@std@@@1@PAU?$_Tree_node@U?$pair@$$CBHU_MONSTER_HERD_DATA@@@std@@PAX@1@$$QAU?$pair@HU_MONSTER_HERD_DATA@@@1@@Z ; std::_Tree_temp_node<std::allocator<std::_Tree_node<std::pair<int const ,_MONSTER_HERD_DATA>,void *> > >::_Tree_temp_node<std::allocator<std::_Tree_node<std::pair<int const ,_MONSTER_HERD_DATA>,void *> > ><std::pair<int,_MONSTER_HERD_DATA> >
PUBLIC	??$?0PAU?$_Tree_node@U?$pair@$$CBHU_MONSTER_HERD_DATA@@@std@@PAX@std@@_N$0A@@?$pair@PAU?$_Tree_node@U?$pair@$$CBHU_MONSTER_HERD_DATA@@@std@@PAX@std@@_N@std@@QAE@$$QAPAU?$_Tree_node@U?$pair@$$CBHU_MONSTER_HERD_DATA@@@std@@PAX@1@$$QA_N@Z ; std::pair<std::_Tree_node<std::pair<int const ,_MONSTER_HERD_DATA>,void *> *,bool>::pair<std::_Tree_node<std::pair<int const ,_MONSTER_HERD_DATA>,void *> *,bool><std::_Tree_node<std::pair<int const ,_MONSTER_HERD_DATA>,void *> *,bool,0>
PUBLIC	??$forward@V?$_Tree_iterator@V?$_Tree_val@U?$_Tree_simple_types@U?$pair@$$CBHU_MONSTER_HERD_DATA@@@std@@@std@@@std@@@std@@@std@@YA$$QAV?$_Tree_iterator@V?$_Tree_val@U?$_Tree_simple_types@U?$pair@$$CBHU_MONSTER_HERD_DATA@@@std@@@std@@@std@@@0@AAV10@@Z ; std::forward<std::_Tree_iterator<std::_Tree_val<std::_Tree_simple_types<std::pair<int const ,_MONSTER_HERD_DATA> > > > >
PUBLIC	??$forward@AB_N@std@@YAAB_NAB_N@Z		; std::forward<bool const &>
PUBLIC	??$exchange@PAU?$_Tree_node@U?$pair@$$CBHU_MONSTER_HERD_DATA@@@std@@PAX@std@@$$T@std@@YAPAU?$_Tree_node@U?$pair@$$CBHU_MONSTER_HERD_DATA@@@std@@PAX@0@AAPAU10@$$QA$$T@Z ; std::exchange<std::_Tree_node<std::pair<int const ,_MONSTER_HERD_DATA>,void *> *,std::nullptr_t>
PUBLIC	??$forward@AAPAU?$_Tree_node@U?$pair@$$CBHU_MONSTER_HERD_DATA@@@std@@PAX@std@@@std@@YAAAPAU?$_Tree_node@U?$pair@$$CBHU_MONSTER_HERD_DATA@@@std@@PAX@0@AAPAU10@@Z ; std::forward<std::_Tree_node<std::pair<int const ,_MONSTER_HERD_DATA>,void *> * &>
PUBLIC	??$forward@_N@std@@YA$$QA_NAA_N@Z		; std::forward<bool>
PUBLIC	??$construct@U?$pair@$$CBHU_MONSTER_HERD_DATA@@@std@@U?$pair@HU_MONSTER_HERD_DATA@@@2@@?$_Default_allocator_traits@V?$allocator@U?$_Tree_node@U?$pair@$$CBHU_MONSTER_HERD_DATA@@@std@@PAX@std@@@std@@@std@@SAXAAV?$allocator@U?$_Tree_node@U?$pair@$$CBHU_MONSTER_HERD_DATA@@@std@@PAX@std@@@1@QAU?$pair@$$CBHU_MONSTER_HERD_DATA@@@1@$$QAU?$pair@HU_MONSTER_HERD_DATA@@@1@@Z ; std::_Default_allocator_traits<std::allocator<std::_Tree_node<std::pair<int const ,_MONSTER_HERD_DATA>,void *> > >::construct<std::pair<int const ,_MONSTER_HERD_DATA>,std::pair<int,_MONSTER_HERD_DATA> >
PUBLIC	??$_Construct_in_place@PAU?$_Tree_node@U?$pair@$$CBHU_MONSTER_HERD_DATA@@@std@@PAX@std@@AAPAU12@@std@@YAXAAPAU?$_Tree_node@U?$pair@$$CBHU_MONSTER_HERD_DATA@@@std@@PAX@0@0@Z ; std::_Construct_in_place<std::_Tree_node<std::pair<int const ,_MONSTER_HERD_DATA>,void *> *,std::_Tree_node<std::pair<int const ,_MONSTER_HERD_DATA>,void *> * &>
PUBLIC	??$forward@PAU?$_Tree_node@U?$pair@$$CBHU_MONSTER_HERD_DATA@@@std@@PAX@std@@@std@@YA$$QAPAU?$_Tree_node@U?$pair@$$CBHU_MONSTER_HERD_DATA@@@std@@PAX@0@AAPAU10@@Z ; std::forward<std::_Tree_node<std::pair<int const ,_MONSTER_HERD_DATA>,void *> *>
PUBLIC	??$forward@H@std@@YA$$QAHAAH@Z			; std::forward<int>
PUBLIC	??$forward@U_MONSTER_HERD_DATA@@@std@@YA$$QAU_MONSTER_HERD_DATA@@AAU1@@Z ; std::forward<_MONSTER_HERD_DATA>
PUBLIC	??_7exception@std@@6B@				; std::exception::`vftable'
PUBLIC	??_C@_0BC@EOODALEL@Unknown?5exception@		; `string'
PUBLIC	??_7bad_alloc@std@@6B@				; std::bad_alloc::`vftable'
PUBLIC	??_7bad_array_new_length@std@@6B@		; std::bad_array_new_length::`vftable'
PUBLIC	??_C@_0BF@KINCDENJ@bad?5array?5new?5length@	; `string'
PUBLIC	__TI3?AVbad_array_new_length@std@@
PUBLIC	__CTA3?AVbad_array_new_length@std@@
PUBLIC	??_R0?AVbad_array_new_length@std@@@8		; std::bad_array_new_length `RTTI Type Descriptor'
PUBLIC	__CT??_R0?AVbad_array_new_length@std@@@8??0bad_array_new_length@std@@QAE@ABV01@@Z12
PUBLIC	??_R0?AVbad_alloc@std@@@8			; std::bad_alloc `RTTI Type Descriptor'
PUBLIC	__CT??_R0?AVbad_alloc@std@@@8??0bad_alloc@std@@QAE@ABV01@@Z12
PUBLIC	??_R0?AVexception@std@@@8			; std::exception `RTTI Type Descriptor'
PUBLIC	__CT??_R0?AVexception@std@@@8??0exception@std@@QAE@ABV01@@Z12
PUBLIC	??_C@_0BB@GCADKGJO@map?1set?5too?5long@		; `string'
PUBLIC	??_R4exception@std@@6B@				; std::exception::`RTTI Complete Object Locator'
PUBLIC	??_R3exception@std@@8				; std::exception::`RTTI Class Hierarchy Descriptor'
PUBLIC	??_R2exception@std@@8				; std::exception::`RTTI Base Class Array'
PUBLIC	??_R1A@?0A@EA@exception@std@@8			; std::exception::`RTTI Base Class Descriptor at (0,-1,0,64)'
PUBLIC	??_R4bad_alloc@std@@6B@				; std::bad_alloc::`RTTI Complete Object Locator'
PUBLIC	??_R3bad_alloc@std@@8				; std::bad_alloc::`RTTI Class Hierarchy Descriptor'
PUBLIC	??_R2bad_alloc@std@@8				; std::bad_alloc::`RTTI Base Class Array'
PUBLIC	??_R1A@?0A@EA@bad_alloc@std@@8			; std::bad_alloc::`RTTI Base Class Descriptor at (0,-1,0,64)'
PUBLIC	??_R4bad_array_new_length@std@@6B@		; std::bad_array_new_length::`RTTI Complete Object Locator'
PUBLIC	??_R3bad_array_new_length@std@@8		; std::bad_array_new_length::`RTTI Class Hierarchy Descriptor'
PUBLIC	??_R2bad_array_new_length@std@@8		; std::bad_array_new_length::`RTTI Base Class Array'
PUBLIC	??_R1A@?0A@EA@bad_array_new_length@std@@8	; std::bad_array_new_length::`RTTI Base Class Descriptor at (0,-1,0,64)'
PUBLIC	??_7MonsterHerd@@6B@				; MonsterHerd::`vftable'
PUBLIC	??_R4MonsterHerd@@6B@				; MonsterHerd::`RTTI Complete Object Locator'
PUBLIC	??_R0?AVMonsterHerd@@@8				; MonsterHerd `RTTI Type Descriptor'
PUBLIC	??_R3MonsterHerd@@8				; MonsterHerd::`RTTI Class Hierarchy Descriptor'
PUBLIC	??_R2MonsterHerd@@8				; MonsterHerd::`RTTI Base Class Array'
PUBLIC	??_R1A@?0A@EA@MonsterHerd@@8			; MonsterHerd::`RTTI Base Class Descriptor at (0,-1,0,64)'
EXTRN	??2@YAPAXI@Z:PROC				; operator new
EXTRN	??3@YAXPAXI@Z:PROC				; operator delete
EXTRN	__invalid_parameter_noinfo_noreturn:PROC
EXTRN	__imp__InitializeCriticalSection@4:PROC
EXTRN	__imp__EnterCriticalSection@4:PROC
EXTRN	__imp__LeaveCriticalSection@4:PROC
EXTRN	__imp__DeleteCriticalSection@4:PROC
EXTRN	__imp__GetTickCount@0:PROC
EXTRN	_rand:PROC
EXTRN	?_Xlength_error@std@@YAXPBD@Z:PROC		; std::_Xlength_error
EXTRN	___std_exception_copy:PROC
EXTRN	___std_exception_destroy:PROC
EXTRN	??_Eexception@std@@UAEPAXI@Z:PROC		; std::exception::`vector deleting destructor'
EXTRN	??_Ebad_alloc@std@@UAEPAXI@Z:PROC		; std::bad_alloc::`vector deleting destructor'
EXTRN	??_Ebad_array_new_length@std@@UAEPAXI@Z:PROC	; std::bad_array_new_length::`vector deleting destructor'
EXTRN	?gObjAddMonster@@YAFH@Z:PROC			; gObjAddMonster
EXTRN	?gObjDel@@YAFH@Z:PROC				; gObjDel
EXTRN	?gObjViewportClose@@YAXPAVOBJECTSTRUCT@@@Z:PROC	; gObjViewportClose
EXTRN	?gObjTimeCheckSelfDefense@@YAXPAVOBJECTSTRUCT@@@Z:PROC ; gObjTimeCheckSelfDefense
EXTRN	?gObjSetMonster@@YAHHH@Z:PROC			; gObjSetMonster
EXTRN	?CreateFrustrum@@YAXHHH@Z:PROC			; CreateFrustrum
EXTRN	?GetPathPacketDirPos@@YAEHH@Z:PROC		; GetPathPacketDirPos
EXTRN	?gObjCalDistance@@YAHPAVOBJECTSTRUCT@@0@Z:PROC	; gObjCalDistance
EXTRN	?gObjClearViewport@@YAXPAVOBJECTSTRUCT@@@Z:PROC	; gObjClearViewport
EXTRN	?gObjViewportListProtocolDestroy@@YAXPAVOBJECTSTRUCT@@@Z:PROC ; gObjViewportListProtocolDestroy
EXTRN	?gObjMonsterHitDamageInit@@YAXPAVOBJECTSTRUCT@@@Z:PROC ; gObjMonsterHitDamageInit
EXTRN	?gObjMonsterSearchEnemy@@YAHPAVOBJECTSTRUCT@@E@Z:PROC ; gObjMonsterSearchEnemy
EXTRN	?gObjMonsterGetTargetPos@@YAHPAVOBJECTSTRUCT@@@Z:PROC ; gObjMonsterGetTargetPos
EXTRN	??_EMonsterHerd@@UAEPAXI@Z:PROC			; MonsterHerd::`vector deleting destructor'
EXTRN	?CheckWall@MapClass@@QAEHHHHH@Z:PROC		; MapClass::CheckWall
EXTRN	?GetAttr@MapClass@@QAEEHH@Z:PROC		; MapClass::GetAttr
EXTRN	?GetAttr@CMonsterAttr@@QAEPAUMONSTER_ATTRIBUTE@@H@Z:PROC ; CMonsterAttr::GetAttr
EXTRN	@__security_check_cookie@4:PROC
EXTRN	__CxxThrowException@8:PROC
EXTRN	___CxxFrameHandler3:PROC
EXTRN	??_7type_info@@6B@:QWORD			; type_info::`vftable'
EXTRN	?gObj@@3PAVOBJECTSTRUCT@@A:DWORD		; gObj
EXTRN	?MapC@@3PAVMapClass@@A:DWORD			; MapC
EXTRN	?gMAttr@@3VCMonsterAttr@@A:BYTE			; gMAttr
EXTRN	___security_cookie:DWORD
EXTRN	__fltused:DWORD
;	COMDAT ??_R1A@?0A@EA@MonsterHerd@@8
rdata$r	SEGMENT
??_R1A@?0A@EA@MonsterHerd@@8 DD FLAT:??_R0?AVMonsterHerd@@@8 ; MonsterHerd::`RTTI Base Class Descriptor at (0,-1,0,64)'
	DD	00H
	DD	00H
	DD	0ffffffffH
	DD	00H
	DD	040H
	DD	FLAT:??_R3MonsterHerd@@8
rdata$r	ENDS
;	COMDAT ??_R2MonsterHerd@@8
rdata$r	SEGMENT
??_R2MonsterHerd@@8 DD FLAT:??_R1A@?0A@EA@MonsterHerd@@8 ; MonsterHerd::`RTTI Base Class Array'
rdata$r	ENDS
;	COMDAT ??_R3MonsterHerd@@8
rdata$r	SEGMENT
??_R3MonsterHerd@@8 DD 00H				; MonsterHerd::`RTTI Class Hierarchy Descriptor'
	DD	00H
	DD	01H
	DD	FLAT:??_R2MonsterHerd@@8
rdata$r	ENDS
;	COMDAT ??_R0?AVMonsterHerd@@@8
data$r	SEGMENT
??_R0?AVMonsterHerd@@@8 DD FLAT:??_7type_info@@6B@	; MonsterHerd `RTTI Type Descriptor'
	DD	00H
	DB	'.?AVMonsterHerd@@', 00H
data$r	ENDS
;	COMDAT ??_R4MonsterHerd@@6B@
rdata$r	SEGMENT
??_R4MonsterHerd@@6B@ DD 00H				; MonsterHerd::`RTTI Complete Object Locator'
	DD	00H
	DD	00H
	DD	FLAT:??_R0?AVMonsterHerd@@@8
	DD	FLAT:??_R3MonsterHerd@@8
rdata$r	ENDS
;	COMDAT ??_7MonsterHerd@@6B@
CONST	SEGMENT
??_7MonsterHerd@@6B@ DD FLAT:??_R4MonsterHerd@@6B@	; MonsterHerd::`vftable'
	DD	FLAT:??_EMonsterHerd@@UAEPAXI@Z
	DD	FLAT:?SetTotalInfo@MonsterHerd@@UAEHHHHH@Z
	DD	FLAT:?AddMonster@MonsterHerd@@UAEHHHH@Z
	DD	FLAT:?SetRadius@MonsterHerd@@UAEXH@Z
	DD	FLAT:?SetPosition@MonsterHerd@@UAEXEE@Z
	DD	FLAT:?Start@MonsterHerd@@UAEHXZ
	DD	FLAT:?Stop@MonsterHerd@@UAEXXZ
	DD	FLAT:?CheckInRadius@MonsterHerd@@UAEHH@Z
	DD	FLAT:?GetCurrentLocation@MonsterHerd@@UAEHAAE0@Z
	DD	FLAT:?GetRandomLocation@MonsterHerd@@UAEHAAE0@Z
	DD	FLAT:?CheckLocation@MonsterHerd@@UAEHAAE0@Z
	DD	FLAT:?MoveHerd@MonsterHerd@@UAEHEE@Z
	DD	FLAT:?MonsterHerdItemDrop@MonsterHerd@@UAEHPAVOBJECTSTRUCT@@@Z
	DD	FLAT:?GetMonsterData@MonsterHerd@@UAEPAU_MONSTER_HERD_DATA@@H@Z
	DD	FLAT:?BeenAttacked@MonsterHerd@@UAEXPAVOBJECTSTRUCT@@0@Z
	DD	FLAT:?OrderAttack@MonsterHerd@@UAEXPAVOBJECTSTRUCT@@0H@Z
	DD	FLAT:?MonsterBaseAct@MonsterHerd@@UAEXPAVOBJECTSTRUCT@@@Z
	DD	FLAT:?MonsterMoveAction@MonsterHerd@@UAEXPAVOBJECTSTRUCT@@@Z
	DD	FLAT:?MonsterAttackAction@MonsterHerd@@UAEXPAVOBJECTSTRUCT@@0@Z
	DD	FLAT:?MonsterDieAction@MonsterHerd@@UAEXPAVOBJECTSTRUCT@@@Z
	DD	FLAT:?MonsterRegenAction@MonsterHerd@@UAEHPAVOBJECTSTRUCT@@@Z
CONST	ENDS
;	COMDAT ??_R1A@?0A@EA@bad_array_new_length@std@@8
rdata$r	SEGMENT
??_R1A@?0A@EA@bad_array_new_length@std@@8 DD FLAT:??_R0?AVbad_array_new_length@std@@@8 ; std::bad_array_new_length::`RTTI Base Class Descriptor at (0,-1,0,64)'
	DD	02H
	DD	00H
	DD	0ffffffffH
	DD	00H
	DD	040H
	DD	FLAT:??_R3bad_array_new_length@std@@8
rdata$r	ENDS
;	COMDAT ??_R2bad_array_new_length@std@@8
rdata$r	SEGMENT
??_R2bad_array_new_length@std@@8 DD FLAT:??_R1A@?0A@EA@bad_array_new_length@std@@8 ; std::bad_array_new_length::`RTTI Base Class Array'
	DD	FLAT:??_R1A@?0A@EA@bad_alloc@std@@8
	DD	FLAT:??_R1A@?0A@EA@exception@std@@8
rdata$r	ENDS
;	COMDAT ??_R3bad_array_new_length@std@@8
rdata$r	SEGMENT
??_R3bad_array_new_length@std@@8 DD 00H			; std::bad_array_new_length::`RTTI Class Hierarchy Descriptor'
	DD	00H
	DD	03H
	DD	FLAT:??_R2bad_array_new_length@std@@8
rdata$r	ENDS
;	COMDAT ??_R4bad_array_new_length@std@@6B@
rdata$r	SEGMENT
??_R4bad_array_new_length@std@@6B@ DD 00H		; std::bad_array_new_length::`RTTI Complete Object Locator'
	DD	00H
	DD	00H
	DD	FLAT:??_R0?AVbad_array_new_length@std@@@8
	DD	FLAT:??_R3bad_array_new_length@std@@8
rdata$r	ENDS
;	COMDAT ??_R1A@?0A@EA@bad_alloc@std@@8
rdata$r	SEGMENT
??_R1A@?0A@EA@bad_alloc@std@@8 DD FLAT:??_R0?AVbad_alloc@std@@@8 ; std::bad_alloc::`RTTI Base Class Descriptor at (0,-1,0,64)'
	DD	01H
	DD	00H
	DD	0ffffffffH
	DD	00H
	DD	040H
	DD	FLAT:??_R3bad_alloc@std@@8
rdata$r	ENDS
;	COMDAT ??_R2bad_alloc@std@@8
rdata$r	SEGMENT
??_R2bad_alloc@std@@8 DD FLAT:??_R1A@?0A@EA@bad_alloc@std@@8 ; std::bad_alloc::`RTTI Base Class Array'
	DD	FLAT:??_R1A@?0A@EA@exception@std@@8
rdata$r	ENDS
;	COMDAT ??_R3bad_alloc@std@@8
rdata$r	SEGMENT
??_R3bad_alloc@std@@8 DD 00H				; std::bad_alloc::`RTTI Class Hierarchy Descriptor'
	DD	00H
	DD	02H
	DD	FLAT:??_R2bad_alloc@std@@8
rdata$r	ENDS
;	COMDAT ??_R4bad_alloc@std@@6B@
rdata$r	SEGMENT
??_R4bad_alloc@std@@6B@ DD 00H				; std::bad_alloc::`RTTI Complete Object Locator'
	DD	00H
	DD	00H
	DD	FLAT:??_R0?AVbad_alloc@std@@@8
	DD	FLAT:??_R3bad_alloc@std@@8
rdata$r	ENDS
;	COMDAT ??_R1A@?0A@EA@exception@std@@8
rdata$r	SEGMENT
??_R1A@?0A@EA@exception@std@@8 DD FLAT:??_R0?AVexception@std@@@8 ; std::exception::`RTTI Base Class Descriptor at (0,-1,0,64)'
	DD	00H
	DD	00H
	DD	0ffffffffH
	DD	00H
	DD	040H
	DD	FLAT:??_R3exception@std@@8
rdata$r	ENDS
;	COMDAT ??_R2exception@std@@8
rdata$r	SEGMENT
??_R2exception@std@@8 DD FLAT:??_R1A@?0A@EA@exception@std@@8 ; std::exception::`RTTI Base Class Array'
rdata$r	ENDS
;	COMDAT ??_R3exception@std@@8
rdata$r	SEGMENT
??_R3exception@std@@8 DD 00H				; std::exception::`RTTI Class Hierarchy Descriptor'
	DD	00H
	DD	01H
	DD	FLAT:??_R2exception@std@@8
rdata$r	ENDS
;	COMDAT ??_R4exception@std@@6B@
rdata$r	SEGMENT
??_R4exception@std@@6B@ DD 00H				; std::exception::`RTTI Complete Object Locator'
	DD	00H
	DD	00H
	DD	FLAT:??_R0?AVexception@std@@@8
	DD	FLAT:??_R3exception@std@@8
rdata$r	ENDS
;	COMDAT ??_C@_0BB@GCADKGJO@map?1set?5too?5long@
CONST	SEGMENT
??_C@_0BB@GCADKGJO@map?1set?5too?5long@ DB 'map/set too long', 00H ; `string'
CONST	ENDS
;	COMDAT __CT??_R0?AVexception@std@@@8??0exception@std@@QAE@ABV01@@Z12
xdata$x	SEGMENT
__CT??_R0?AVexception@std@@@8??0exception@std@@QAE@ABV01@@Z12 DD 00H
	DD	FLAT:??_R0?AVexception@std@@@8
	DD	00H
	DD	0ffffffffH
	ORG $+4
	DD	0cH
	DD	FLAT:??0exception@std@@QAE@ABV01@@Z
xdata$x	ENDS
;	COMDAT ??_R0?AVexception@std@@@8
data$r	SEGMENT
??_R0?AVexception@std@@@8 DD FLAT:??_7type_info@@6B@	; std::exception `RTTI Type Descriptor'
	DD	00H
	DB	'.?AVexception@std@@', 00H
data$r	ENDS
;	COMDAT __CT??_R0?AVbad_alloc@std@@@8??0bad_alloc@std@@QAE@ABV01@@Z12
xdata$x	SEGMENT
__CT??_R0?AVbad_alloc@std@@@8??0bad_alloc@std@@QAE@ABV01@@Z12 DD 010H
	DD	FLAT:??_R0?AVbad_alloc@std@@@8
	DD	00H
	DD	0ffffffffH
	ORG $+4
	DD	0cH
	DD	FLAT:??0bad_alloc@std@@QAE@ABV01@@Z
xdata$x	ENDS
;	COMDAT ??_R0?AVbad_alloc@std@@@8
data$r	SEGMENT
??_R0?AVbad_alloc@std@@@8 DD FLAT:??_7type_info@@6B@	; std::bad_alloc `RTTI Type Descriptor'
	DD	00H
	DB	'.?AVbad_alloc@std@@', 00H
data$r	ENDS
;	COMDAT __CT??_R0?AVbad_array_new_length@std@@@8??0bad_array_new_length@std@@QAE@ABV01@@Z12
xdata$x	SEGMENT
__CT??_R0?AVbad_array_new_length@std@@@8??0bad_array_new_length@std@@QAE@ABV01@@Z12 DD 00H
	DD	FLAT:??_R0?AVbad_array_new_length@std@@@8
	DD	00H
	DD	0ffffffffH
	ORG $+4
	DD	0cH
	DD	FLAT:??0bad_array_new_length@std@@QAE@ABV01@@Z
xdata$x	ENDS
;	COMDAT ??_R0?AVbad_array_new_length@std@@@8
data$r	SEGMENT
??_R0?AVbad_array_new_length@std@@@8 DD FLAT:??_7type_info@@6B@ ; std::bad_array_new_length `RTTI Type Descriptor'
	DD	00H
	DB	'.?AVbad_array_new_length@std@@', 00H
data$r	ENDS
;	COMDAT __CTA3?AVbad_array_new_length@std@@
xdata$x	SEGMENT
__CTA3?AVbad_array_new_length@std@@ DD 03H
	DD	FLAT:__CT??_R0?AVbad_array_new_length@std@@@8??0bad_array_new_length@std@@QAE@ABV01@@Z12
	DD	FLAT:__CT??_R0?AVbad_alloc@std@@@8??0bad_alloc@std@@QAE@ABV01@@Z12
	DD	FLAT:__CT??_R0?AVexception@std@@@8??0exception@std@@QAE@ABV01@@Z12
xdata$x	ENDS
;	COMDAT __TI3?AVbad_array_new_length@std@@
xdata$x	SEGMENT
__TI3?AVbad_array_new_length@std@@ DD 00H
	DD	FLAT:??1bad_array_new_length@std@@UAE@XZ
	DD	00H
	DD	FLAT:__CTA3?AVbad_array_new_length@std@@
xdata$x	ENDS
;	COMDAT ??_C@_0BF@KINCDENJ@bad?5array?5new?5length@
CONST	SEGMENT
??_C@_0BF@KINCDENJ@bad?5array?5new?5length@ DB 'bad array new length', 00H ; `string'
CONST	ENDS
;	COMDAT ??_7bad_array_new_length@std@@6B@
CONST	SEGMENT
??_7bad_array_new_length@std@@6B@ DD FLAT:??_R4bad_array_new_length@std@@6B@ ; std::bad_array_new_length::`vftable'
	DD	FLAT:??_Ebad_array_new_length@std@@UAEPAXI@Z
	DD	FLAT:?what@exception@std@@UBEPBDXZ
CONST	ENDS
;	COMDAT ??_7bad_alloc@std@@6B@
CONST	SEGMENT
??_7bad_alloc@std@@6B@ DD FLAT:??_R4bad_alloc@std@@6B@	; std::bad_alloc::`vftable'
	DD	FLAT:??_Ebad_alloc@std@@UAEPAXI@Z
	DD	FLAT:?what@exception@std@@UBEPBDXZ
CONST	ENDS
;	COMDAT ??_C@_0BC@EOODALEL@Unknown?5exception@
CONST	SEGMENT
??_C@_0BC@EOODALEL@Unknown?5exception@ DB 'Unknown exception', 00H ; `string'
CONST	ENDS
;	COMDAT ??_7exception@std@@6B@
CONST	SEGMENT
??_7exception@std@@6B@ DD FLAT:??_R4exception@std@@6B@	; std::exception::`vftable'
	DD	FLAT:??_Eexception@std@@UAEPAXI@Z
	DD	FLAT:?what@exception@std@@UBEPBDXZ
CONST	ENDS
;	COMDAT xdata$x
xdata$x	SEGMENT
__unwindtable$??$?0U?$pair@HU_MONSTER_HERD_DATA@@@std@@@?$_Tree_temp_node@V?$allocator@U?$_Tree_node@U?$pair@$$CBHU_MONSTER_HERD_DATA@@@std@@PAX@std@@@std@@@std@@QAE@AAV?$allocator@U?$_Tree_node@U?$pair@$$CBHU_MONSTER_HERD_DATA@@@std@@PAX@std@@@1@PAU?$_Tree_node@U?$pair@$$CBHU_MONSTER_HERD_DATA@@@std@@PAX@1@$$QAU?$pair@HU_MONSTER_HERD_DATA@@@1@@Z DD 0ffffffffH
	DD	FLAT:__unwindfunclet$??$?0U?$pair@HU_MONSTER_HERD_DATA@@@std@@@?$_Tree_temp_node@V?$allocator@U?$_Tree_node@U?$pair@$$CBHU_MONSTER_HERD_DATA@@@std@@PAX@std@@@std@@@std@@QAE@AAV?$allocator@U?$_Tree_node@U?$pair@$$CBHU_MONSTER_HERD_DATA@@@std@@PAX@std@@@1@PAU?$_Tree_node@U?$pair@$$CBHU_MONSTER_HERD_DATA@@@std@@PAX@1@$$QAU?$pair@HU_MONSTER_HERD_DATA@@@1@@Z$0
__ehfuncinfo$??$?0U?$pair@HU_MONSTER_HERD_DATA@@@std@@@?$_Tree_temp_node@V?$allocator@U?$_Tree_node@U?$pair@$$CBHU_MONSTER_HERD_DATA@@@std@@PAX@std@@@std@@@std@@QAE@AAV?$allocator@U?$_Tree_node@U?$pair@$$CBHU_MONSTER_HERD_DATA@@@std@@PAX@std@@@1@PAU?$_Tree_node@U?$pair@$$CBHU_MONSTER_HERD_DATA@@@std@@PAX@1@$$QAU?$pair@HU_MONSTER_HERD_DATA@@@1@@Z DD 019930522H
	DD	01H
	DD	FLAT:__unwindtable$??$?0U?$pair@HU_MONSTER_HERD_DATA@@@std@@@?$_Tree_temp_node@V?$allocator@U?$_Tree_node@U?$pair@$$CBHU_MONSTER_HERD_DATA@@@std@@PAX@std@@@std@@@std@@QAE@AAV?$allocator@U?$_Tree_node@U?$pair@$$CBHU_MONSTER_HERD_DATA@@@std@@PAX@std@@@1@PAU?$_Tree_node@U?$pair@$$CBHU_MONSTER_HERD_DATA@@@std@@PAX@1@$$QAU?$pair@HU_MONSTER_HERD_DATA@@@1@@Z
	DD	2 DUP(00H)
	DD	2 DUP(00H)
	DD	00H
	DD	01H
xdata$x	ENDS
;	COMDAT xdata$x
xdata$x	SEGMENT
__ehfuncinfo$??1?$_Tree_temp_node@V?$allocator@U?$_Tree_node@U?$pair@$$CBHU_MONSTER_HERD_DATA@@@std@@PAX@std@@@std@@@std@@QAE@XZ DD 019930522H
	DD	00H
	DD	00H
	DD	2 DUP(00H)
	DD	2 DUP(00H)
	DD	00H
	DD	05H
xdata$x	ENDS
;	COMDAT xdata$x
xdata$x	SEGMENT
__unwindtable$??0?$_Tree_temp_node_alloc@V?$allocator@U?$_Tree_node@U?$pair@$$CBHU_MONSTER_HERD_DATA@@@std@@PAX@std@@@std@@@std@@QAE@AAV?$allocator@U?$_Tree_node@U?$pair@$$CBHU_MONSTER_HERD_DATA@@@std@@PAX@std@@@1@@Z DD 0ffffffffH
	DD	FLAT:__unwindfunclet$??0?$_Tree_temp_node_alloc@V?$allocator@U?$_Tree_node@U?$pair@$$CBHU_MONSTER_HERD_DATA@@@std@@PAX@std@@@std@@@std@@QAE@AAV?$allocator@U?$_Tree_node@U?$pair@$$CBHU_MONSTER_HERD_DATA@@@std@@PAX@std@@@1@@Z$0
__ehfuncinfo$??0?$_Tree_temp_node_alloc@V?$allocator@U?$_Tree_node@U?$pair@$$CBHU_MONSTER_HERD_DATA@@@std@@PAX@std@@@std@@@std@@QAE@AAV?$allocator@U?$_Tree_node@U?$pair@$$CBHU_MONSTER_HERD_DATA@@@std@@PAX@std@@@1@@Z DD 019930522H
	DD	01H
	DD	FLAT:__unwindtable$??0?$_Tree_temp_node_alloc@V?$allocator@U?$_Tree_node@U?$pair@$$CBHU_MONSTER_HERD_DATA@@@std@@PAX@std@@@std@@@std@@QAE@AAV?$allocator@U?$_Tree_node@U?$pair@$$CBHU_MONSTER_HERD_DATA@@@std@@PAX@std@@@1@@Z
	DD	2 DUP(00H)
	DD	2 DUP(00H)
	DD	00H
	DD	01H
xdata$x	ENDS
;	COMDAT xdata$x
xdata$x	SEGMENT
__ehfuncinfo$??1?$_Alloc_construct_ptr@V?$allocator@U?$_Tree_node@U?$pair@$$CBHU_MONSTER_HERD_DATA@@@std@@PAX@std@@@std@@@std@@QAE@XZ DD 019930522H
	DD	00H
	DD	00H
	DD	2 DUP(00H)
	DD	2 DUP(00H)
	DD	00H
	DD	05H
xdata$x	ENDS
;	COMDAT xdata$x
xdata$x	SEGMENT
__ehfuncinfo$??$_Freenode0@V?$allocator@U?$_Tree_node@U?$pair@$$CBHU_MONSTER_HERD_DATA@@@std@@PAX@std@@@std@@@?$_Tree_node@U?$pair@$$CBHU_MONSTER_HERD_DATA@@@std@@PAX@std@@SAXAAV?$allocator@U?$_Tree_node@U?$pair@$$CBHU_MONSTER_HERD_DATA@@@std@@PAX@std@@@1@PAU01@@Z DD 019930522H
	DD	00H
	DD	00H
	DD	2 DUP(00H)
	DD	2 DUP(00H)
	DD	00H
	DD	05H
xdata$x	ENDS
;	COMDAT xdata$x
xdata$x	SEGMENT
__ehfuncinfo$??$_Freenode@V?$allocator@U?$_Tree_node@U?$pair@$$CBHU_MONSTER_HERD_DATA@@@std@@PAX@std@@@std@@@?$_Tree_node@U?$pair@$$CBHU_MONSTER_HERD_DATA@@@std@@PAX@std@@SAXAAV?$allocator@U?$_Tree_node@U?$pair@$$CBHU_MONSTER_HERD_DATA@@@std@@PAX@std@@@1@PAU01@@Z DD 019930522H
	DD	00H
	DD	00H
	DD	2 DUP(00H)
	DD	2 DUP(00H)
	DD	00H
	DD	05H
xdata$x	ENDS
;	COMDAT xdata$x
xdata$x	SEGMENT
__ehfuncinfo$?_Extract@?$_Tree_val@U?$_Tree_simple_types@U?$pair@$$CBHU_MONSTER_HERD_DATA@@@std@@@std@@@std@@QAEPAU?$_Tree_node@U?$pair@$$CBHU_MONSTER_HERD_DATA@@@std@@PAX@2@V?$_Tree_unchecked_const_iterator@V?$_Tree_val@U?$_Tree_simple_types@U?$pair@$$CBHU_MONSTER_HERD_DATA@@@std@@@std@@@std@@U_Iterator_base0@2@@2@@Z DD 019930522H
	DD	00H
	DD	00H
	DD	2 DUP(00H)
	DD	2 DUP(00H)
	DD	00H
	DD	05H
xdata$x	ENDS
;	COMDAT xdata$x
xdata$x	SEGMENT
__ehfuncinfo$?erase@?$_Tree@V?$_Tmap_traits@HU_MONSTER_HERD_DATA@@U?$less@H@std@@V?$allocator@U?$pair@$$CBHU_MONSTER_HERD_DATA@@@std@@@3@$0A@@std@@@std@@QAE?AV?$_Tree_iterator@V?$_Tree_val@U?$_Tree_simple_types@U?$pair@$$CBHU_MONSTER_HERD_DATA@@@std@@@std@@@std@@@2@V?$_Tree_const_iterator@V?$_Tree_val@U?$_Tree_simple_types@U?$pair@$$CBHU_MONSTER_HERD_DATA@@@std@@@std@@@std@@@2@0@Z DD 019930522H
	DD	00H
	DD	00H
	DD	2 DUP(00H)
	DD	2 DUP(00H)
	DD	00H
	DD	05H
xdata$x	ENDS
;	COMDAT xdata$x
xdata$x	SEGMENT
__ehfuncinfo$?_Erase_unchecked@?$_Tree@V?$_Tmap_traits@HU_MONSTER_HERD_DATA@@U?$less@H@std@@V?$allocator@U?$pair@$$CBHU_MONSTER_HERD_DATA@@@std@@@3@$0A@@std@@@std@@AAEPAU?$_Tree_node@U?$pair@$$CBHU_MONSTER_HERD_DATA@@@std@@PAX@2@V?$_Tree_unchecked_const_iterator@V?$_Tree_val@U?$_Tree_simple_types@U?$pair@$$CBHU_MONSTER_HERD_DATA@@@std@@@std@@@std@@U_Iterator_base0@2@@2@0@Z DD 019930522H
	DD	00H
	DD	00H
	DD	2 DUP(00H)
	DD	2 DUP(00H)
	DD	00H
	DD	05H
xdata$x	ENDS
;	COMDAT xdata$x
xdata$x	SEGMENT
__ehfuncinfo$?_Erase_unchecked@?$_Tree@V?$_Tmap_traits@HU_MONSTER_HERD_DATA@@U?$less@H@std@@V?$allocator@U?$pair@$$CBHU_MONSTER_HERD_DATA@@@std@@@3@$0A@@std@@@std@@AAEPAU?$_Tree_node@U?$pair@$$CBHU_MONSTER_HERD_DATA@@@std@@PAX@2@V?$_Tree_unchecked_const_iterator@V?$_Tree_val@U?$_Tree_simple_types@U?$pair@$$CBHU_MONSTER_HERD_DATA@@@std@@@std@@@std@@U_Iterator_base0@2@@2@@Z DD 019930522H
	DD	00H
	DD	00H
	DD	2 DUP(00H)
	DD	2 DUP(00H)
	DD	00H
	DD	05H
xdata$x	ENDS
;	COMDAT xdata$x
xdata$x	SEGMENT
__ehfuncinfo$??$_Deallocate@$07$0A@@std@@YAXPAXI@Z DD 019930522H
	DD	00H
	DD	00H
	DD	2 DUP(00H)
	DD	2 DUP(00H)
	DD	00H
	DD	05H
xdata$x	ENDS
; Function compile flags: /Odtp /ZI
; File C:\Program Files (x86)\Microsoft Visual Studio\2019\Community\VC\Tools\MSVC\14.27.29110\include\type_traits
;	COMDAT ??$forward@U_MONSTER_HERD_DATA@@@std@@YA$$QAU_MONSTER_HERD_DATA@@AAU1@@Z
_TEXT	SEGMENT
__Arg$ = 8						; size = 4
??$forward@U_MONSTER_HERD_DATA@@@std@@YA$$QAU_MONSTER_HERD_DATA@@AAU1@@Z PROC ; std::forward<_MONSTER_HERD_DATA>, COMDAT

; 1454 :     remove_reference_t<_Ty>& _Arg) noexcept { // forward an lvalue as either an lvalue or an rvalue

  00000	55		 push	 ebp
  00001	8b ec		 mov	 ebp, esp
  00003	83 ec 40	 sub	 esp, 64			; 00000040H
  00006	53		 push	 ebx
  00007	56		 push	 esi
  00008	57		 push	 edi

; 1455 :     return static_cast<_Ty&&>(_Arg);

  00009	8b 45 08	 mov	 eax, DWORD PTR __Arg$[ebp]

; 1456 : }

  0000c	5f		 pop	 edi
  0000d	5e		 pop	 esi
  0000e	5b		 pop	 ebx
  0000f	8b e5		 mov	 esp, ebp
  00011	5d		 pop	 ebp
  00012	c3		 ret	 0
??$forward@U_MONSTER_HERD_DATA@@@std@@YA$$QAU_MONSTER_HERD_DATA@@AAU1@@Z ENDP ; std::forward<_MONSTER_HERD_DATA>
_TEXT	ENDS
; Function compile flags: /Odtp /ZI
; File C:\Program Files (x86)\Microsoft Visual Studio\2019\Community\VC\Tools\MSVC\14.27.29110\include\type_traits
;	COMDAT ??$forward@H@std@@YA$$QAHAAH@Z
_TEXT	SEGMENT
__Arg$ = 8						; size = 4
??$forward@H@std@@YA$$QAHAAH@Z PROC			; std::forward<int>, COMDAT

; 1454 :     remove_reference_t<_Ty>& _Arg) noexcept { // forward an lvalue as either an lvalue or an rvalue

  00000	55		 push	 ebp
  00001	8b ec		 mov	 ebp, esp
  00003	83 ec 40	 sub	 esp, 64			; 00000040H
  00006	53		 push	 ebx
  00007	56		 push	 esi
  00008	57		 push	 edi

; 1455 :     return static_cast<_Ty&&>(_Arg);

  00009	8b 45 08	 mov	 eax, DWORD PTR __Arg$[ebp]

; 1456 : }

  0000c	5f		 pop	 edi
  0000d	5e		 pop	 esi
  0000e	5b		 pop	 ebx
  0000f	8b e5		 mov	 esp, ebp
  00011	5d		 pop	 ebp
  00012	c3		 ret	 0
??$forward@H@std@@YA$$QAHAAH@Z ENDP			; std::forward<int>
_TEXT	ENDS
; Function compile flags: /Odtp /ZI
; File C:\Program Files (x86)\Microsoft Visual Studio\2019\Community\VC\Tools\MSVC\14.27.29110\include\type_traits
;	COMDAT ??$forward@PAU?$_Tree_node@U?$pair@$$CBHU_MONSTER_HERD_DATA@@@std@@PAX@std@@@std@@YA$$QAPAU?$_Tree_node@U?$pair@$$CBHU_MONSTER_HERD_DATA@@@std@@PAX@0@AAPAU10@@Z
_TEXT	SEGMENT
__Arg$ = 8						; size = 4
??$forward@PAU?$_Tree_node@U?$pair@$$CBHU_MONSTER_HERD_DATA@@@std@@PAX@std@@@std@@YA$$QAPAU?$_Tree_node@U?$pair@$$CBHU_MONSTER_HERD_DATA@@@std@@PAX@0@AAPAU10@@Z PROC ; std::forward<std::_Tree_node<std::pair<int const ,_MONSTER_HERD_DATA>,void *> *>, COMDAT

; 1454 :     remove_reference_t<_Ty>& _Arg) noexcept { // forward an lvalue as either an lvalue or an rvalue

  00000	55		 push	 ebp
  00001	8b ec		 mov	 ebp, esp
  00003	83 ec 40	 sub	 esp, 64			; 00000040H
  00006	53		 push	 ebx
  00007	56		 push	 esi
  00008	57		 push	 edi

; 1455 :     return static_cast<_Ty&&>(_Arg);

  00009	8b 45 08	 mov	 eax, DWORD PTR __Arg$[ebp]

; 1456 : }

  0000c	5f		 pop	 edi
  0000d	5e		 pop	 esi
  0000e	5b		 pop	 ebx
  0000f	8b e5		 mov	 esp, ebp
  00011	5d		 pop	 ebp
  00012	c3		 ret	 0
??$forward@PAU?$_Tree_node@U?$pair@$$CBHU_MONSTER_HERD_DATA@@@std@@PAX@std@@@std@@YA$$QAPAU?$_Tree_node@U?$pair@$$CBHU_MONSTER_HERD_DATA@@@std@@PAX@0@AAPAU10@@Z ENDP ; std::forward<std::_Tree_node<std::pair<int const ,_MONSTER_HERD_DATA>,void *> *>
_TEXT	ENDS
; Function compile flags: /Odtp /ZI
; File C:\Program Files (x86)\Microsoft Visual Studio\2019\Community\VC\Tools\MSVC\14.27.29110\include\xmemory
;	COMDAT ??$_Construct_in_place@PAU?$_Tree_node@U?$pair@$$CBHU_MONSTER_HERD_DATA@@@std@@PAX@std@@AAPAU12@@std@@YAXAAPAU?$_Tree_node@U?$pair@$$CBHU_MONSTER_HERD_DATA@@@std@@PAX@0@0@Z
_TEXT	SEGMENT
$T1 = -68						; size = 4
__Obj$ = 8						; size = 4
_<_Args_0>$ = 12					; size = 4
??$_Construct_in_place@PAU?$_Tree_node@U?$pair@$$CBHU_MONSTER_HERD_DATA@@@std@@PAX@std@@AAPAU12@@std@@YAXAAPAU?$_Tree_node@U?$pair@$$CBHU_MONSTER_HERD_DATA@@@std@@PAX@0@0@Z PROC ; std::_Construct_in_place<std::_Tree_node<std::pair<int const ,_MONSTER_HERD_DATA>,void *> *,std::_Tree_node<std::pair<int const ,_MONSTER_HERD_DATA>,void *> * &>, COMDAT

; 228  : void _Construct_in_place(_Ty& _Obj, _Types&&... _Args) noexcept(is_nothrow_constructible_v<_Ty, _Types...>) {

  00000	55		 push	 ebp
  00001	8b ec		 mov	 ebp, esp
  00003	83 ec 44	 sub	 esp, 68			; 00000044H
  00006	53		 push	 ebx
  00007	56		 push	 esi
  00008	57		 push	 edi

; 229  :     ::new (const_cast<void*>(static_cast<const volatile void*>(_STD addressof(_Obj))))

  00009	8b 45 08	 mov	 eax, DWORD PTR __Obj$[ebp]
  0000c	50		 push	 eax
  0000d	e8 00 00 00 00	 call	 ??$addressof@PAU?$_Tree_node@U?$pair@$$CBHU_MONSTER_HERD_DATA@@@std@@PAX@std@@@std@@YAPAPAU?$_Tree_node@U?$pair@$$CBHU_MONSTER_HERD_DATA@@@std@@PAX@0@AAPAU10@@Z ; std::addressof<std::_Tree_node<std::pair<int const ,_MONSTER_HERD_DATA>,void *> *>
  00012	83 c4 04	 add	 esp, 4
  00015	50		 push	 eax
  00016	6a 04		 push	 4
  00018	e8 00 00 00 00	 call	 ??2@YAPAXIPAX@Z		; operator new
  0001d	83 c4 08	 add	 esp, 8
  00020	89 45 bc	 mov	 DWORD PTR $T1[ebp], eax
  00023	8b 4d 0c	 mov	 ecx, DWORD PTR _<_Args_0>$[ebp]
  00026	51		 push	 ecx
  00027	e8 00 00 00 00	 call	 ??$forward@AAPAU?$_Tree_node@U?$pair@$$CBHU_MONSTER_HERD_DATA@@@std@@PAX@std@@@std@@YAAAPAU?$_Tree_node@U?$pair@$$CBHU_MONSTER_HERD_DATA@@@std@@PAX@0@AAPAU10@@Z ; std::forward<std::_Tree_node<std::pair<int const ,_MONSTER_HERD_DATA>,void *> * &>
  0002c	83 c4 04	 add	 esp, 4
  0002f	8b 55 bc	 mov	 edx, DWORD PTR $T1[ebp]
  00032	8b 00		 mov	 eax, DWORD PTR [eax]
  00034	89 02		 mov	 DWORD PTR [edx], eax

; 230  :         _Ty(_STD forward<_Types>(_Args)...);
; 231  : }

  00036	5f		 pop	 edi
  00037	5e		 pop	 esi
  00038	5b		 pop	 ebx
  00039	8b e5		 mov	 esp, ebp
  0003b	5d		 pop	 ebp
  0003c	c3		 ret	 0
??$_Construct_in_place@PAU?$_Tree_node@U?$pair@$$CBHU_MONSTER_HERD_DATA@@@std@@PAX@std@@AAPAU12@@std@@YAXAAPAU?$_Tree_node@U?$pair@$$CBHU_MONSTER_HERD_DATA@@@std@@PAX@0@0@Z ENDP ; std::_Construct_in_place<std::_Tree_node<std::pair<int const ,_MONSTER_HERD_DATA>,void *> *,std::_Tree_node<std::pair<int const ,_MONSTER_HERD_DATA>,void *> * &>
_TEXT	ENDS
; Function compile flags: /Odtp /ZI
; File C:\Program Files (x86)\Microsoft Visual Studio\2019\Community\VC\Tools\MSVC\14.27.29110\include\xmemory
;	COMDAT ??$construct@U?$pair@$$CBHU_MONSTER_HERD_DATA@@@std@@U?$pair@HU_MONSTER_HERD_DATA@@@2@@?$_Default_allocator_traits@V?$allocator@U?$_Tree_node@U?$pair@$$CBHU_MONSTER_HERD_DATA@@@std@@PAX@std@@@std@@@std@@SAXAAV?$allocator@U?$_Tree_node@U?$pair@$$CBHU_MONSTER_HERD_DATA@@@std@@PAX@std@@@1@QAU?$pair@$$CBHU_MONSTER_HERD_DATA@@@1@$$QAU?$pair@HU_MONSTER_HERD_DATA@@@1@@Z
_TEXT	SEGMENT
$T1 = -68						; size = 4
___formal$ = 8						; size = 4
__Ptr$ = 12						; size = 4
_<_Args_0>$ = 16					; size = 4
??$construct@U?$pair@$$CBHU_MONSTER_HERD_DATA@@@std@@U?$pair@HU_MONSTER_HERD_DATA@@@2@@?$_Default_allocator_traits@V?$allocator@U?$_Tree_node@U?$pair@$$CBHU_MONSTER_HERD_DATA@@@std@@PAX@std@@@std@@@std@@SAXAAV?$allocator@U?$_Tree_node@U?$pair@$$CBHU_MONSTER_HERD_DATA@@@std@@PAX@std@@@1@QAU?$pair@$$CBHU_MONSTER_HERD_DATA@@@1@$$QAU?$pair@HU_MONSTER_HERD_DATA@@@1@@Z PROC ; std::_Default_allocator_traits<std::allocator<std::_Tree_node<std::pair<int const ,_MONSTER_HERD_DATA>,void *> > >::construct<std::pair<int const ,_MONSTER_HERD_DATA>,std::pair<int,_MONSTER_HERD_DATA> >, COMDAT

; 693  :     static void construct(_Alloc&, _Objty* const _Ptr, _Types&&... _Args) {

  00000	55		 push	 ebp
  00001	8b ec		 mov	 ebp, esp
  00003	83 ec 44	 sub	 esp, 68			; 00000044H
  00006	53		 push	 ebx
  00007	56		 push	 esi
  00008	57		 push	 edi

; 694  :         ::new (const_cast<void*>(static_cast<const volatile void*>(_Ptr))) _Objty(_STD forward<_Types>(_Args)...);

  00009	8b 45 0c	 mov	 eax, DWORD PTR __Ptr$[ebp]
  0000c	50		 push	 eax
  0000d	6a 14		 push	 20			; 00000014H
  0000f	e8 00 00 00 00	 call	 ??2@YAPAXIPAX@Z		; operator new
  00014	83 c4 08	 add	 esp, 8
  00017	89 45 bc	 mov	 DWORD PTR $T1[ebp], eax
  0001a	8b 4d 10	 mov	 ecx, DWORD PTR _<_Args_0>$[ebp]
  0001d	51		 push	 ecx
  0001e	e8 00 00 00 00	 call	 ??$forward@U?$pair@HU_MONSTER_HERD_DATA@@@std@@@std@@YA$$QAU?$pair@HU_MONSTER_HERD_DATA@@@0@AAU10@@Z ; std::forward<std::pair<int,_MONSTER_HERD_DATA> >
  00023	83 c4 04	 add	 esp, 4
  00026	50		 push	 eax
  00027	8b 4d bc	 mov	 ecx, DWORD PTR $T1[ebp]
  0002a	e8 00 00 00 00	 call	 ??$?0HU_MONSTER_HERD_DATA@@$0A@@?$pair@$$CBHU_MONSTER_HERD_DATA@@@std@@QAE@$$QAU?$pair@HU_MONSTER_HERD_DATA@@@1@@Z ; std::pair<int const ,_MONSTER_HERD_DATA>::pair<int const ,_MONSTER_HERD_DATA><int,_MONSTER_HERD_DATA,0>

; 695  :     }

  0002f	5f		 pop	 edi
  00030	5e		 pop	 esi
  00031	5b		 pop	 ebx
  00032	8b e5		 mov	 esp, ebp
  00034	5d		 pop	 ebp
  00035	c3		 ret	 0
??$construct@U?$pair@$$CBHU_MONSTER_HERD_DATA@@@std@@U?$pair@HU_MONSTER_HERD_DATA@@@2@@?$_Default_allocator_traits@V?$allocator@U?$_Tree_node@U?$pair@$$CBHU_MONSTER_HERD_DATA@@@std@@PAX@std@@@std@@@std@@SAXAAV?$allocator@U?$_Tree_node@U?$pair@$$CBHU_MONSTER_HERD_DATA@@@std@@PAX@std@@@1@QAU?$pair@$$CBHU_MONSTER_HERD_DATA@@@1@$$QAU?$pair@HU_MONSTER_HERD_DATA@@@1@@Z ENDP ; std::_Default_allocator_traits<std::allocator<std::_Tree_node<std::pair<int const ,_MONSTER_HERD_DATA>,void *> > >::construct<std::pair<int const ,_MONSTER_HERD_DATA>,std::pair<int,_MONSTER_HERD_DATA> >
_TEXT	ENDS
; Function compile flags: /Odtp /ZI
; File C:\Program Files (x86)\Microsoft Visual Studio\2019\Community\VC\Tools\MSVC\14.27.29110\include\type_traits
;	COMDAT ??$forward@_N@std@@YA$$QA_NAA_N@Z
_TEXT	SEGMENT
__Arg$ = 8						; size = 4
??$forward@_N@std@@YA$$QA_NAA_N@Z PROC			; std::forward<bool>, COMDAT

; 1454 :     remove_reference_t<_Ty>& _Arg) noexcept { // forward an lvalue as either an lvalue or an rvalue

  00000	55		 push	 ebp
  00001	8b ec		 mov	 ebp, esp
  00003	83 ec 40	 sub	 esp, 64			; 00000040H
  00006	53		 push	 ebx
  00007	56		 push	 esi
  00008	57		 push	 edi

; 1455 :     return static_cast<_Ty&&>(_Arg);

  00009	8b 45 08	 mov	 eax, DWORD PTR __Arg$[ebp]

; 1456 : }

  0000c	5f		 pop	 edi
  0000d	5e		 pop	 esi
  0000e	5b		 pop	 ebx
  0000f	8b e5		 mov	 esp, ebp
  00011	5d		 pop	 ebp
  00012	c3		 ret	 0
??$forward@_N@std@@YA$$QA_NAA_N@Z ENDP			; std::forward<bool>
_TEXT	ENDS
; Function compile flags: /Odtp /ZI
; File C:\Program Files (x86)\Microsoft Visual Studio\2019\Community\VC\Tools\MSVC\14.27.29110\include\type_traits
;	COMDAT ??$forward@AAPAU?$_Tree_node@U?$pair@$$CBHU_MONSTER_HERD_DATA@@@std@@PAX@std@@@std@@YAAAPAU?$_Tree_node@U?$pair@$$CBHU_MONSTER_HERD_DATA@@@std@@PAX@0@AAPAU10@@Z
_TEXT	SEGMENT
__Arg$ = 8						; size = 4
??$forward@AAPAU?$_Tree_node@U?$pair@$$CBHU_MONSTER_HERD_DATA@@@std@@PAX@std@@@std@@YAAAPAU?$_Tree_node@U?$pair@$$CBHU_MONSTER_HERD_DATA@@@std@@PAX@0@AAPAU10@@Z PROC ; std::forward<std::_Tree_node<std::pair<int const ,_MONSTER_HERD_DATA>,void *> * &>, COMDAT

; 1454 :     remove_reference_t<_Ty>& _Arg) noexcept { // forward an lvalue as either an lvalue or an rvalue

  00000	55		 push	 ebp
  00001	8b ec		 mov	 ebp, esp
  00003	83 ec 40	 sub	 esp, 64			; 00000040H
  00006	53		 push	 ebx
  00007	56		 push	 esi
  00008	57		 push	 edi

; 1455 :     return static_cast<_Ty&&>(_Arg);

  00009	8b 45 08	 mov	 eax, DWORD PTR __Arg$[ebp]

; 1456 : }

  0000c	5f		 pop	 edi
  0000d	5e		 pop	 esi
  0000e	5b		 pop	 ebx
  0000f	8b e5		 mov	 esp, ebp
  00011	5d		 pop	 ebp
  00012	c3		 ret	 0
??$forward@AAPAU?$_Tree_node@U?$pair@$$CBHU_MONSTER_HERD_DATA@@@std@@PAX@std@@@std@@YAAAPAU?$_Tree_node@U?$pair@$$CBHU_MONSTER_HERD_DATA@@@std@@PAX@0@AAPAU10@@Z ENDP ; std::forward<std::_Tree_node<std::pair<int const ,_MONSTER_HERD_DATA>,void *> * &>
_TEXT	ENDS
; Function compile flags: /Odtp /ZI
; File C:\Program Files (x86)\Microsoft Visual Studio\2019\Community\VC\Tools\MSVC\14.27.29110\include\utility
;	COMDAT ??$exchange@PAU?$_Tree_node@U?$pair@$$CBHU_MONSTER_HERD_DATA@@@std@@PAX@std@@$$T@std@@YAPAU?$_Tree_node@U?$pair@$$CBHU_MONSTER_HERD_DATA@@@std@@PAX@0@AAPAU10@$$QA$$T@Z
_TEXT	SEGMENT
__Old_val$ = -4						; size = 4
__Val$ = 8						; size = 4
__New_val$ = 12						; size = 4
??$exchange@PAU?$_Tree_node@U?$pair@$$CBHU_MONSTER_HERD_DATA@@@std@@PAX@std@@$$T@std@@YAPAU?$_Tree_node@U?$pair@$$CBHU_MONSTER_HERD_DATA@@@std@@PAX@0@AAPAU10@$$QA$$T@Z PROC ; std::exchange<std::_Tree_node<std::pair<int const ,_MONSTER_HERD_DATA>,void *> *,std::nullptr_t>, COMDAT

; 597  :     conjunction_v<is_nothrow_move_constructible<_Ty>, is_nothrow_assignable<_Ty&, _Other>>) /* strengthened */ {

  00000	55		 push	 ebp
  00001	8b ec		 mov	 ebp, esp
  00003	83 ec 44	 sub	 esp, 68			; 00000044H
  00006	53		 push	 ebx
  00007	56		 push	 esi
  00008	57		 push	 edi

; 598  :     // assign _New_val to _Val, return previous _Val
; 599  :     _Ty _Old_val = static_cast<_Ty&&>(_Val);

  00009	8b 45 08	 mov	 eax, DWORD PTR __Val$[ebp]
  0000c	8b 08		 mov	 ecx, DWORD PTR [eax]
  0000e	89 4d fc	 mov	 DWORD PTR __Old_val$[ebp], ecx

; 600  :     _Val         = static_cast<_Other&&>(_New_val);

  00011	8b 45 08	 mov	 eax, DWORD PTR __Val$[ebp]
  00014	8b 4d 0c	 mov	 ecx, DWORD PTR __New_val$[ebp]
  00017	8b 11		 mov	 edx, DWORD PTR [ecx]
  00019	89 10		 mov	 DWORD PTR [eax], edx

; 601  :     return _Old_val;

  0001b	8b 45 fc	 mov	 eax, DWORD PTR __Old_val$[ebp]

; 602  : }

  0001e	5f		 pop	 edi
  0001f	5e		 pop	 esi
  00020	5b		 pop	 ebx
  00021	8b e5		 mov	 esp, ebp
  00023	5d		 pop	 ebp
  00024	c3		 ret	 0
??$exchange@PAU?$_Tree_node@U?$pair@$$CBHU_MONSTER_HERD_DATA@@@std@@PAX@std@@$$T@std@@YAPAU?$_Tree_node@U?$pair@$$CBHU_MONSTER_HERD_DATA@@@std@@PAX@0@AAPAU10@$$QA$$T@Z ENDP ; std::exchange<std::_Tree_node<std::pair<int const ,_MONSTER_HERD_DATA>,void *> *,std::nullptr_t>
_TEXT	ENDS
; Function compile flags: /Odtp /ZI
; File C:\Program Files (x86)\Microsoft Visual Studio\2019\Community\VC\Tools\MSVC\14.27.29110\include\type_traits
;	COMDAT ??$forward@AB_N@std@@YAAB_NAB_N@Z
_TEXT	SEGMENT
__Arg$ = 8						; size = 4
??$forward@AB_N@std@@YAAB_NAB_N@Z PROC			; std::forward<bool const &>, COMDAT

; 1454 :     remove_reference_t<_Ty>& _Arg) noexcept { // forward an lvalue as either an lvalue or an rvalue

  00000	55		 push	 ebp
  00001	8b ec		 mov	 ebp, esp
  00003	83 ec 40	 sub	 esp, 64			; 00000040H
  00006	53		 push	 ebx
  00007	56		 push	 esi
  00008	57		 push	 edi

; 1455 :     return static_cast<_Ty&&>(_Arg);

  00009	8b 45 08	 mov	 eax, DWORD PTR __Arg$[ebp]

; 1456 : }

  0000c	5f		 pop	 edi
  0000d	5e		 pop	 esi
  0000e	5b		 pop	 ebx
  0000f	8b e5		 mov	 esp, ebp
  00011	5d		 pop	 ebp
  00012	c3		 ret	 0
??$forward@AB_N@std@@YAAB_NAB_N@Z ENDP			; std::forward<bool const &>
_TEXT	ENDS
; Function compile flags: /Odtp /ZI
; File C:\Program Files (x86)\Microsoft Visual Studio\2019\Community\VC\Tools\MSVC\14.27.29110\include\type_traits
;	COMDAT ??$forward@V?$_Tree_iterator@V?$_Tree_val@U?$_Tree_simple_types@U?$pair@$$CBHU_MONSTER_HERD_DATA@@@std@@@std@@@std@@@std@@@std@@YA$$QAV?$_Tree_iterator@V?$_Tree_val@U?$_Tree_simple_types@U?$pair@$$CBHU_MONSTER_HERD_DATA@@@std@@@std@@@std@@@0@AAV10@@Z
_TEXT	SEGMENT
__Arg$ = 8						; size = 4
??$forward@V?$_Tree_iterator@V?$_Tree_val@U?$_Tree_simple_types@U?$pair@$$CBHU_MONSTER_HERD_DATA@@@std@@@std@@@std@@@std@@@std@@YA$$QAV?$_Tree_iterator@V?$_Tree_val@U?$_Tree_simple_types@U?$pair@$$CBHU_MONSTER_HERD_DATA@@@std@@@std@@@std@@@0@AAV10@@Z PROC ; std::forward<std::_Tree_iterator<std::_Tree_val<std::_Tree_simple_types<std::pair<int const ,_MONSTER_HERD_DATA> > > > >, COMDAT

; 1454 :     remove_reference_t<_Ty>& _Arg) noexcept { // forward an lvalue as either an lvalue or an rvalue

  00000	55		 push	 ebp
  00001	8b ec		 mov	 ebp, esp
  00003	83 ec 40	 sub	 esp, 64			; 00000040H
  00006	53		 push	 ebx
  00007	56		 push	 esi
  00008	57		 push	 edi

; 1455 :     return static_cast<_Ty&&>(_Arg);

  00009	8b 45 08	 mov	 eax, DWORD PTR __Arg$[ebp]

; 1456 : }

  0000c	5f		 pop	 edi
  0000d	5e		 pop	 esi
  0000e	5b		 pop	 ebx
  0000f	8b e5		 mov	 esp, ebp
  00011	5d		 pop	 ebp
  00012	c3		 ret	 0
??$forward@V?$_Tree_iterator@V?$_Tree_val@U?$_Tree_simple_types@U?$pair@$$CBHU_MONSTER_HERD_DATA@@@std@@@std@@@std@@@std@@@std@@YA$$QAV?$_Tree_iterator@V?$_Tree_val@U?$_Tree_simple_types@U?$pair@$$CBHU_MONSTER_HERD_DATA@@@std@@@std@@@std@@@0@AAV10@@Z ENDP ; std::forward<std::_Tree_iterator<std::_Tree_val<std::_Tree_simple_types<std::pair<int const ,_MONSTER_HERD_DATA> > > > >
_TEXT	ENDS
; Function compile flags: /Odtp /ZI
; File C:\Program Files (x86)\Microsoft Visual Studio\2019\Community\VC\Tools\MSVC\14.27.29110\include\utility
;	COMDAT ??$?0PAU?$_Tree_node@U?$pair@$$CBHU_MONSTER_HERD_DATA@@@std@@PAX@std@@_N$0A@@?$pair@PAU?$_Tree_node@U?$pair@$$CBHU_MONSTER_HERD_DATA@@@std@@PAX@std@@_N@std@@QAE@$$QAPAU?$_Tree_node@U?$pair@$$CBHU_MONSTER_HERD_DATA@@@std@@PAX@1@$$QA_N@Z
_TEXT	SEGMENT
_this$ = -4						; size = 4
__Val1$ = 8						; size = 4
__Val2$ = 12						; size = 4
??$?0PAU?$_Tree_node@U?$pair@$$CBHU_MONSTER_HERD_DATA@@@std@@PAX@std@@_N$0A@@?$pair@PAU?$_Tree_node@U?$pair@$$CBHU_MONSTER_HERD_DATA@@@std@@PAX@std@@_N@std@@QAE@$$QAPAU?$_Tree_node@U?$pair@$$CBHU_MONSTER_HERD_DATA@@@std@@PAX@1@$$QA_N@Z PROC ; std::pair<std::_Tree_node<std::pair<int const ,_MONSTER_HERD_DATA>,void *> *,bool>::pair<std::_Tree_node<std::pair<int const ,_MONSTER_HERD_DATA>,void *> *,bool><std::_Tree_node<std::pair<int const ,_MONSTER_HERD_DATA>,void *> *,bool,0>, COMDAT
; _this$ = ecx

; 192  :         : first(_STD forward<_Other1>(_Val1)), second(_STD forward<_Other2>(_Val2)) {}

  00000	55		 push	 ebp
  00001	8b ec		 mov	 ebp, esp
  00003	83 ec 44	 sub	 esp, 68			; 00000044H
  00006	53		 push	 ebx
  00007	56		 push	 esi
  00008	57		 push	 edi
  00009	89 4d fc	 mov	 DWORD PTR _this$[ebp], ecx
  0000c	8b 45 08	 mov	 eax, DWORD PTR __Val1$[ebp]
  0000f	50		 push	 eax
  00010	e8 00 00 00 00	 call	 ??$forward@PAU?$_Tree_node@U?$pair@$$CBHU_MONSTER_HERD_DATA@@@std@@PAX@std@@@std@@YA$$QAPAU?$_Tree_node@U?$pair@$$CBHU_MONSTER_HERD_DATA@@@std@@PAX@0@AAPAU10@@Z ; std::forward<std::_Tree_node<std::pair<int const ,_MONSTER_HERD_DATA>,void *> *>
  00015	83 c4 04	 add	 esp, 4
  00018	8b 4d fc	 mov	 ecx, DWORD PTR _this$[ebp]
  0001b	8b 10		 mov	 edx, DWORD PTR [eax]
  0001d	89 11		 mov	 DWORD PTR [ecx], edx
  0001f	8b 45 0c	 mov	 eax, DWORD PTR __Val2$[ebp]
  00022	50		 push	 eax
  00023	e8 00 00 00 00	 call	 ??$forward@_N@std@@YA$$QA_NAA_N@Z ; std::forward<bool>
  00028	83 c4 04	 add	 esp, 4
  0002b	8b 4d fc	 mov	 ecx, DWORD PTR _this$[ebp]
  0002e	8a 10		 mov	 dl, BYTE PTR [eax]
  00030	88 51 04	 mov	 BYTE PTR [ecx+4], dl
  00033	8b 45 fc	 mov	 eax, DWORD PTR _this$[ebp]
  00036	5f		 pop	 edi
  00037	5e		 pop	 esi
  00038	5b		 pop	 ebx
  00039	8b e5		 mov	 esp, ebp
  0003b	5d		 pop	 ebp
  0003c	c2 08 00	 ret	 8
??$?0PAU?$_Tree_node@U?$pair@$$CBHU_MONSTER_HERD_DATA@@@std@@PAX@std@@_N$0A@@?$pair@PAU?$_Tree_node@U?$pair@$$CBHU_MONSTER_HERD_DATA@@@std@@PAX@std@@_N@std@@QAE@$$QAPAU?$_Tree_node@U?$pair@$$CBHU_MONSTER_HERD_DATA@@@std@@PAX@1@$$QA_N@Z ENDP ; std::pair<std::_Tree_node<std::pair<int const ,_MONSTER_HERD_DATA>,void *> *,bool>::pair<std::_Tree_node<std::pair<int const ,_MONSTER_HERD_DATA>,void *> *,bool><std::_Tree_node<std::pair<int const ,_MONSTER_HERD_DATA>,void *> *,bool,0>
_TEXT	ENDS
; Function compile flags: /Odtp /ZI
; File C:\Program Files (x86)\Microsoft Visual Studio\2019\Community\VC\Tools\MSVC\14.27.29110\include\xtree
;	COMDAT ??$?0U?$pair@HU_MONSTER_HERD_DATA@@@std@@@?$_Tree_temp_node@V?$allocator@U?$_Tree_node@U?$pair@$$CBHU_MONSTER_HERD_DATA@@@std@@PAX@std@@@std@@@std@@QAE@AAV?$allocator@U?$_Tree_node@U?$pair@$$CBHU_MONSTER_HERD_DATA@@@std@@PAX@std@@@1@PAU?$_Tree_node@U?$pair@$$CBHU_MONSTER_HERD_DATA@@@std@@PAX@1@$$QAU?$pair@HU_MONSTER_HERD_DATA@@@1@@Z
_TEXT	SEGMENT
_this$ = -16						; size = 4
__$EHRec$ = -12						; size = 12
__Al_$ = 8						; size = 4
__Myhead$ = 12						; size = 4
_<_Vals_0>$ = 16					; size = 4
??$?0U?$pair@HU_MONSTER_HERD_DATA@@@std@@@?$_Tree_temp_node@V?$allocator@U?$_Tree_node@U?$pair@$$CBHU_MONSTER_HERD_DATA@@@std@@PAX@std@@@std@@@std@@QAE@AAV?$allocator@U?$_Tree_node@U?$pair@$$CBHU_MONSTER_HERD_DATA@@@std@@PAX@std@@@1@PAU?$_Tree_node@U?$pair@$$CBHU_MONSTER_HERD_DATA@@@std@@PAX@1@$$QAU?$pair@HU_MONSTER_HERD_DATA@@@1@@Z PROC ; std::_Tree_temp_node<std::allocator<std::_Tree_node<std::pair<int const ,_MONSTER_HERD_DATA>,void *> > >::_Tree_temp_node<std::allocator<std::_Tree_node<std::pair<int const ,_MONSTER_HERD_DATA>,void *> > ><std::pair<int,_MONSTER_HERD_DATA> >, COMDAT
; _this$ = ecx

; 805  :         : _Tree_temp_node_alloc<_Alnode>(_Al_) {

  00000	55		 push	 ebp
  00001	8b ec		 mov	 ebp, esp
  00003	6a ff		 push	 -1
  00005	68 00 00 00 00	 push	 __ehhandler$??$?0U?$pair@HU_MONSTER_HERD_DATA@@@std@@@?$_Tree_temp_node@V?$allocator@U?$_Tree_node@U?$pair@$$CBHU_MONSTER_HERD_DATA@@@std@@PAX@std@@@std@@@std@@QAE@AAV?$allocator@U?$_Tree_node@U?$pair@$$CBHU_MONSTER_HERD_DATA@@@std@@PAX@std@@@1@PAU?$_Tree_node@U?$pair@$$CBHU_MONSTER_HERD_DATA@@@std@@PAX@1@$$QAU?$pair@HU_MONSTER_HERD_DATA@@@1@@Z
  0000a	64 a1 00 00 00
	00		 mov	 eax, DWORD PTR fs:0
  00010	50		 push	 eax
  00011	83 ec 44	 sub	 esp, 68			; 00000044H
  00014	53		 push	 ebx
  00015	56		 push	 esi
  00016	57		 push	 edi
  00017	a1 00 00 00 00	 mov	 eax, DWORD PTR ___security_cookie
  0001c	33 c5		 xor	 eax, ebp
  0001e	50		 push	 eax
  0001f	8d 45 f4	 lea	 eax, DWORD PTR __$EHRec$[ebp]
  00022	64 a3 00 00 00
	00		 mov	 DWORD PTR fs:0, eax
  00028	89 4d f0	 mov	 DWORD PTR _this$[ebp], ecx
  0002b	8b 45 08	 mov	 eax, DWORD PTR __Al_$[ebp]
  0002e	50		 push	 eax
  0002f	8b 4d f0	 mov	 ecx, DWORD PTR _this$[ebp]
  00032	e8 00 00 00 00	 call	 ??0?$_Tree_temp_node_alloc@V?$allocator@U?$_Tree_node@U?$pair@$$CBHU_MONSTER_HERD_DATA@@@std@@PAX@std@@@std@@@std@@QAE@AAV?$allocator@U?$_Tree_node@U?$pair@$$CBHU_MONSTER_HERD_DATA@@@std@@PAX@std@@@1@@Z ; std::_Tree_temp_node_alloc<std::allocator<std::_Tree_node<std::pair<int const ,_MONSTER_HERD_DATA>,void *> > >::_Tree_temp_node_alloc<std::allocator<std::_Tree_node<std::pair<int const ,_MONSTER_HERD_DATA>,void *> > >
  00037	c7 45 fc 00 00
	00 00		 mov	 DWORD PTR __$EHRec$[ebp+8], 0

; 806  :         _Alnode_traits::construct(this->_Al, _STD addressof(this->_Ptr->_Myval), _STD forward<_Valtys>(_Vals)...);

  0003e	8b 45 10	 mov	 eax, DWORD PTR _<_Vals_0>$[ebp]
  00041	50		 push	 eax
  00042	e8 00 00 00 00	 call	 ??$forward@U?$pair@HU_MONSTER_HERD_DATA@@@std@@@std@@YA$$QAU?$pair@HU_MONSTER_HERD_DATA@@@0@AAU10@@Z ; std::forward<std::pair<int,_MONSTER_HERD_DATA> >
  00047	83 c4 04	 add	 esp, 4
  0004a	50		 push	 eax
  0004b	8b 4d f0	 mov	 ecx, DWORD PTR _this$[ebp]
  0004e	8b 51 04	 mov	 edx, DWORD PTR [ecx+4]
  00051	83 c2 10	 add	 edx, 16			; 00000010H
  00054	52		 push	 edx
  00055	e8 00 00 00 00	 call	 ??$addressof@U?$pair@$$CBHU_MONSTER_HERD_DATA@@@std@@@std@@YAPAU?$pair@$$CBHU_MONSTER_HERD_DATA@@@0@AAU10@@Z ; std::addressof<std::pair<int const ,_MONSTER_HERD_DATA> >
  0005a	83 c4 04	 add	 esp, 4
  0005d	50		 push	 eax
  0005e	8b 45 f0	 mov	 eax, DWORD PTR _this$[ebp]
  00061	8b 08		 mov	 ecx, DWORD PTR [eax]
  00063	51		 push	 ecx
  00064	e8 00 00 00 00	 call	 ??$construct@U?$pair@$$CBHU_MONSTER_HERD_DATA@@@std@@U?$pair@HU_MONSTER_HERD_DATA@@@2@@?$_Default_allocator_traits@V?$allocator@U?$_Tree_node@U?$pair@$$CBHU_MONSTER_HERD_DATA@@@std@@PAX@std@@@std@@@std@@SAXAAV?$allocator@U?$_Tree_node@U?$pair@$$CBHU_MONSTER_HERD_DATA@@@std@@PAX@std@@@1@QAU?$pair@$$CBHU_MONSTER_HERD_DATA@@@1@$$QAU?$pair@HU_MONSTER_HERD_DATA@@@1@@Z ; std::_Default_allocator_traits<std::allocator<std::_Tree_node<std::pair<int const ,_MONSTER_HERD_DATA>,void *> > >::construct<std::pair<int const ,_MONSTER_HERD_DATA>,std::pair<int,_MONSTER_HERD_DATA> >
  00069	83 c4 0c	 add	 esp, 12			; 0000000cH

; 807  :         _Construct_in_place(this->_Ptr->_Left, _Myhead);

  0006c	8d 45 0c	 lea	 eax, DWORD PTR __Myhead$[ebp]
  0006f	50		 push	 eax
  00070	8b 4d f0	 mov	 ecx, DWORD PTR _this$[ebp]
  00073	8b 51 04	 mov	 edx, DWORD PTR [ecx+4]
  00076	52		 push	 edx
  00077	e8 00 00 00 00	 call	 ??$_Construct_in_place@PAU?$_Tree_node@U?$pair@$$CBHU_MONSTER_HERD_DATA@@@std@@PAX@std@@AAPAU12@@std@@YAXAAPAU?$_Tree_node@U?$pair@$$CBHU_MONSTER_HERD_DATA@@@std@@PAX@0@0@Z ; std::_Construct_in_place<std::_Tree_node<std::pair<int const ,_MONSTER_HERD_DATA>,void *> *,std::_Tree_node<std::pair<int const ,_MONSTER_HERD_DATA>,void *> * &>
  0007c	83 c4 08	 add	 esp, 8

; 808  :         _Construct_in_place(this->_Ptr->_Parent, _Myhead);

  0007f	8d 45 0c	 lea	 eax, DWORD PTR __Myhead$[ebp]
  00082	50		 push	 eax
  00083	8b 4d f0	 mov	 ecx, DWORD PTR _this$[ebp]
  00086	8b 51 04	 mov	 edx, DWORD PTR [ecx+4]
  00089	83 c2 04	 add	 edx, 4
  0008c	52		 push	 edx
  0008d	e8 00 00 00 00	 call	 ??$_Construct_in_place@PAU?$_Tree_node@U?$pair@$$CBHU_MONSTER_HERD_DATA@@@std@@PAX@std@@AAPAU12@@std@@YAXAAPAU?$_Tree_node@U?$pair@$$CBHU_MONSTER_HERD_DATA@@@std@@PAX@0@0@Z ; std::_Construct_in_place<std::_Tree_node<std::pair<int const ,_MONSTER_HERD_DATA>,void *> *,std::_Tree_node<std::pair<int const ,_MONSTER_HERD_DATA>,void *> * &>
  00092	83 c4 08	 add	 esp, 8

; 809  :         _Construct_in_place(this->_Ptr->_Right, _Myhead);

  00095	8d 45 0c	 lea	 eax, DWORD PTR __Myhead$[ebp]
  00098	50		 push	 eax
  00099	8b 4d f0	 mov	 ecx, DWORD PTR _this$[ebp]
  0009c	8b 51 04	 mov	 edx, DWORD PTR [ecx+4]
  0009f	83 c2 08	 add	 edx, 8
  000a2	52		 push	 edx
  000a3	e8 00 00 00 00	 call	 ??$_Construct_in_place@PAU?$_Tree_node@U?$pair@$$CBHU_MONSTER_HERD_DATA@@@std@@PAX@std@@AAPAU12@@std@@YAXAAPAU?$_Tree_node@U?$pair@$$CBHU_MONSTER_HERD_DATA@@@std@@PAX@0@0@Z ; std::_Construct_in_place<std::_Tree_node<std::pair<int const ,_MONSTER_HERD_DATA>,void *> *,std::_Tree_node<std::pair<int const ,_MONSTER_HERD_DATA>,void *> * &>
  000a8	83 c4 08	 add	 esp, 8

; 810  :         this->_Ptr->_Color = _Red;

  000ab	8b 45 f0	 mov	 eax, DWORD PTR _this$[ebp]
  000ae	8b 48 04	 mov	 ecx, DWORD PTR [eax+4]
  000b1	c6 41 0c 00	 mov	 BYTE PTR [ecx+12], 0

; 811  :         this->_Ptr->_Isnil = false;

  000b5	8b 45 f0	 mov	 eax, DWORD PTR _this$[ebp]
  000b8	8b 48 04	 mov	 ecx, DWORD PTR [eax+4]
  000bb	c6 41 0d 00	 mov	 BYTE PTR [ecx+13], 0

; 812  :     }

  000bf	c7 45 fc ff ff
	ff ff		 mov	 DWORD PTR __$EHRec$[ebp+8], -1
  000c6	8b 45 f0	 mov	 eax, DWORD PTR _this$[ebp]
  000c9	8b 4d f4	 mov	 ecx, DWORD PTR __$EHRec$[ebp]
  000cc	64 89 0d 00 00
	00 00		 mov	 DWORD PTR fs:0, ecx
  000d3	59		 pop	 ecx
  000d4	5f		 pop	 edi
  000d5	5e		 pop	 esi
  000d6	5b		 pop	 ebx
  000d7	8b e5		 mov	 esp, ebp
  000d9	5d		 pop	 ebp
  000da	c2 0c 00	 ret	 12			; 0000000cH
_TEXT	ENDS
;	COMDAT text$x
text$x	SEGMENT
__unwindfunclet$??$?0U?$pair@HU_MONSTER_HERD_DATA@@@std@@@?$_Tree_temp_node@V?$allocator@U?$_Tree_node@U?$pair@$$CBHU_MONSTER_HERD_DATA@@@std@@PAX@std@@@std@@@std@@QAE@AAV?$allocator@U?$_Tree_node@U?$pair@$$CBHU_MONSTER_HERD_DATA@@@std@@PAX@std@@@1@PAU?$_Tree_node@U?$pair@$$CBHU_MONSTER_HERD_DATA@@@std@@PAX@1@$$QAU?$pair@HU_MONSTER_HERD_DATA@@@1@@Z$0:
  00000	8b 4d f0	 mov	 ecx, DWORD PTR _this$[ebp]
  00003	e9 00 00 00 00	 jmp	 ??1?$_Tree_temp_node_alloc@V?$allocator@U?$_Tree_node@U?$pair@$$CBHU_MONSTER_HERD_DATA@@@std@@PAX@std@@@std@@@std@@QAE@XZ
  00008	cc		 int	 3
  00009	cc		 int	 3
  0000a	cc		 int	 3
  0000b	cc		 int	 3
  0000c	cc		 int	 3
__ehhandler$??$?0U?$pair@HU_MONSTER_HERD_DATA@@@std@@@?$_Tree_temp_node@V?$allocator@U?$_Tree_node@U?$pair@$$CBHU_MONSTER_HERD_DATA@@@std@@PAX@std@@@std@@@std@@QAE@AAV?$allocator@U?$_Tree_node@U?$pair@$$CBHU_MONSTER_HERD_DATA@@@std@@PAX@std@@@1@PAU?$_Tree_node@U?$pair@$$CBHU_MONSTER_HERD_DATA@@@std@@PAX@1@$$QAU?$pair@HU_MONSTER_HERD_DATA@@@1@@Z:
  0000d	90		 npad	 1
  0000e	90		 npad	 1
  0000f	8b 54 24 08	 mov	 edx, DWORD PTR [esp+8]
  00013	8d 42 0c	 lea	 eax, DWORD PTR [edx+12]
  00016	8b 4a ac	 mov	 ecx, DWORD PTR [edx-84]
  00019	33 c8		 xor	 ecx, eax
  0001b	e8 00 00 00 00	 call	 @__security_check_cookie@4
  00020	b8 00 00 00 00	 mov	 eax, OFFSET __ehfuncinfo$??$?0U?$pair@HU_MONSTER_HERD_DATA@@@std@@@?$_Tree_temp_node@V?$allocator@U?$_Tree_node@U?$pair@$$CBHU_MONSTER_HERD_DATA@@@std@@PAX@std@@@std@@@std@@QAE@AAV?$allocator@U?$_Tree_node@U?$pair@$$CBHU_MONSTER_HERD_DATA@@@std@@PAX@std@@@1@PAU?$_Tree_node@U?$pair@$$CBHU_MONSTER_HERD_DATA@@@std@@PAX@1@$$QAU?$pair@HU_MONSTER_HERD_DATA@@@1@@Z
  00025	e9 00 00 00 00	 jmp	 ___CxxFrameHandler3
text$x	ENDS
??$?0U?$pair@HU_MONSTER_HERD_DATA@@@std@@@?$_Tree_temp_node@V?$allocator@U?$_Tree_node@U?$pair@$$CBHU_MONSTER_HERD_DATA@@@std@@PAX@std@@@std@@@std@@QAE@AAV?$allocator@U?$_Tree_node@U?$pair@$$CBHU_MONSTER_HERD_DATA@@@std@@PAX@std@@@1@PAU?$_Tree_node@U?$pair@$$CBHU_MONSTER_HERD_DATA@@@std@@PAX@1@$$QAU?$pair@HU_MONSTER_HERD_DATA@@@1@@Z ENDP ; std::_Tree_temp_node<std::allocator<std::_Tree_node<std::pair<int const ,_MONSTER_HERD_DATA>,void *> > >::_Tree_temp_node<std::allocator<std::_Tree_node<std::pair<int const ,_MONSTER_HERD_DATA>,void *> > ><std::pair<int,_MONSTER_HERD_DATA> >
; Function compile flags: /Odtp /ZI
; File C:\Program Files (x86)\Microsoft Visual Studio\2019\Community\VC\Tools\MSVC\14.27.29110\include\xtree
;	COMDAT ??1?$_Tree_temp_node@V?$allocator@U?$_Tree_node@U?$pair@$$CBHU_MONSTER_HERD_DATA@@@std@@PAX@std@@@std@@@std@@QAE@XZ
_TEXT	SEGMENT
_this$ = -16						; size = 4
__$EHRec$ = -12						; size = 12
??1?$_Tree_temp_node@V?$allocator@U?$_Tree_node@U?$pair@$$CBHU_MONSTER_HERD_DATA@@@std@@PAX@std@@@std@@@std@@QAE@XZ PROC ; std::_Tree_temp_node<std::allocator<std::_Tree_node<std::pair<int const ,_MONSTER_HERD_DATA>,void *> > >::~_Tree_temp_node<std::allocator<std::_Tree_node<std::pair<int const ,_MONSTER_HERD_DATA>,void *> > >, COMDAT
; _this$ = ecx

; 817  :     ~_Tree_temp_node() {

  00000	55		 push	 ebp
  00001	8b ec		 mov	 ebp, esp
  00003	6a ff		 push	 -1
  00005	68 00 00 00 00	 push	 __ehhandler$??1?$_Tree_temp_node@V?$allocator@U?$_Tree_node@U?$pair@$$CBHU_MONSTER_HERD_DATA@@@std@@PAX@std@@@std@@@std@@QAE@XZ
  0000a	64 a1 00 00 00
	00		 mov	 eax, DWORD PTR fs:0
  00010	50		 push	 eax
  00011	83 ec 44	 sub	 esp, 68			; 00000044H
  00014	53		 push	 ebx
  00015	56		 push	 esi
  00016	57		 push	 edi
  00017	a1 00 00 00 00	 mov	 eax, DWORD PTR ___security_cookie
  0001c	33 c5		 xor	 eax, ebp
  0001e	50		 push	 eax
  0001f	8d 45 f4	 lea	 eax, DWORD PTR __$EHRec$[ebp]
  00022	64 a3 00 00 00
	00		 mov	 DWORD PTR fs:0, eax
  00028	89 4d f0	 mov	 DWORD PTR _this$[ebp], ecx

; 818  :         if (this->_Ptr) {

  0002b	8b 45 f0	 mov	 eax, DWORD PTR _this$[ebp]
  0002e	83 78 04 00	 cmp	 DWORD PTR [eax+4], 0
  00032	74 54		 je	 SHORT $LN1@Tree_temp_

; 819  :             _Destroy_in_place(this->_Ptr->_Left);

  00034	8b 45 f0	 mov	 eax, DWORD PTR _this$[ebp]
  00037	8b 48 04	 mov	 ecx, DWORD PTR [eax+4]
  0003a	51		 push	 ecx
  0003b	e8 00 00 00 00	 call	 ??$_Destroy_in_place@PAU?$_Tree_node@U?$pair@$$CBHU_MONSTER_HERD_DATA@@@std@@PAX@std@@@std@@YAXAAPAU?$_Tree_node@U?$pair@$$CBHU_MONSTER_HERD_DATA@@@std@@PAX@0@@Z ; std::_Destroy_in_place<std::_Tree_node<std::pair<int const ,_MONSTER_HERD_DATA>,void *> *>
  00040	83 c4 04	 add	 esp, 4

; 820  :             _Destroy_in_place(this->_Ptr->_Parent);

  00043	8b 45 f0	 mov	 eax, DWORD PTR _this$[ebp]
  00046	8b 48 04	 mov	 ecx, DWORD PTR [eax+4]
  00049	83 c1 04	 add	 ecx, 4
  0004c	51		 push	 ecx
  0004d	e8 00 00 00 00	 call	 ??$_Destroy_in_place@PAU?$_Tree_node@U?$pair@$$CBHU_MONSTER_HERD_DATA@@@std@@PAX@std@@@std@@YAXAAPAU?$_Tree_node@U?$pair@$$CBHU_MONSTER_HERD_DATA@@@std@@PAX@0@@Z ; std::_Destroy_in_place<std::_Tree_node<std::pair<int const ,_MONSTER_HERD_DATA>,void *> *>
  00052	83 c4 04	 add	 esp, 4

; 821  :             _Destroy_in_place(this->_Ptr->_Right);

  00055	8b 45 f0	 mov	 eax, DWORD PTR _this$[ebp]
  00058	8b 48 04	 mov	 ecx, DWORD PTR [eax+4]
  0005b	83 c1 08	 add	 ecx, 8
  0005e	51		 push	 ecx
  0005f	e8 00 00 00 00	 call	 ??$_Destroy_in_place@PAU?$_Tree_node@U?$pair@$$CBHU_MONSTER_HERD_DATA@@@std@@PAX@std@@@std@@YAXAAPAU?$_Tree_node@U?$pair@$$CBHU_MONSTER_HERD_DATA@@@std@@PAX@0@@Z ; std::_Destroy_in_place<std::_Tree_node<std::pair<int const ,_MONSTER_HERD_DATA>,void *> *>
  00064	83 c4 04	 add	 esp, 4

; 822  :             _Alnode_traits::destroy(this->_Al, _STD addressof(this->_Ptr->_Myval));

  00067	8b 45 f0	 mov	 eax, DWORD PTR _this$[ebp]
  0006a	8b 48 04	 mov	 ecx, DWORD PTR [eax+4]
  0006d	83 c1 10	 add	 ecx, 16			; 00000010H
  00070	51		 push	 ecx
  00071	e8 00 00 00 00	 call	 ??$addressof@U?$pair@$$CBHU_MONSTER_HERD_DATA@@@std@@@std@@YAPAU?$pair@$$CBHU_MONSTER_HERD_DATA@@@0@AAU10@@Z ; std::addressof<std::pair<int const ,_MONSTER_HERD_DATA> >
  00076	83 c4 04	 add	 esp, 4
  00079	50		 push	 eax
  0007a	8b 55 f0	 mov	 edx, DWORD PTR _this$[ebp]
  0007d	8b 02		 mov	 eax, DWORD PTR [edx]
  0007f	50		 push	 eax
  00080	e8 00 00 00 00	 call	 ??$destroy@U?$pair@$$CBHU_MONSTER_HERD_DATA@@@std@@@?$_Default_allocator_traits@V?$allocator@U?$_Tree_node@U?$pair@$$CBHU_MONSTER_HERD_DATA@@@std@@PAX@std@@@std@@@std@@SAXAAV?$allocator@U?$_Tree_node@U?$pair@$$CBHU_MONSTER_HERD_DATA@@@std@@PAX@std@@@1@QAU?$pair@$$CBHU_MONSTER_HERD_DATA@@@1@@Z ; std::_Default_allocator_traits<std::allocator<std::_Tree_node<std::pair<int const ,_MONSTER_HERD_DATA>,void *> > >::destroy<std::pair<int const ,_MONSTER_HERD_DATA> >
  00085	83 c4 08	 add	 esp, 8
$LN1@Tree_temp_:

; 823  :         }
; 824  :     }

  00088	8b 4d f0	 mov	 ecx, DWORD PTR _this$[ebp]
  0008b	e8 00 00 00 00	 call	 ??1?$_Tree_temp_node_alloc@V?$allocator@U?$_Tree_node@U?$pair@$$CBHU_MONSTER_HERD_DATA@@@std@@PAX@std@@@std@@@std@@QAE@XZ
  00090	8b 4d f4	 mov	 ecx, DWORD PTR __$EHRec$[ebp]
  00093	64 89 0d 00 00
	00 00		 mov	 DWORD PTR fs:0, ecx
  0009a	59		 pop	 ecx
  0009b	5f		 pop	 edi
  0009c	5e		 pop	 esi
  0009d	5b		 pop	 ebx
  0009e	8b e5		 mov	 esp, ebp
  000a0	5d		 pop	 ebp
  000a1	c3		 ret	 0
  000a2	cc		 int	 3
  000a3	cc		 int	 3
  000a4	cc		 int	 3
  000a5	cc		 int	 3
  000a6	cc		 int	 3
_TEXT	ENDS
;	COMDAT text$x
text$x	SEGMENT
__ehhandler$??1?$_Tree_temp_node@V?$allocator@U?$_Tree_node@U?$pair@$$CBHU_MONSTER_HERD_DATA@@@std@@PAX@std@@@std@@@std@@QAE@XZ:
  00000	90		 npad	 1
  00001	90		 npad	 1
  00002	8b 54 24 08	 mov	 edx, DWORD PTR [esp+8]
  00006	8d 42 0c	 lea	 eax, DWORD PTR [edx+12]
  00009	8b 4a ac	 mov	 ecx, DWORD PTR [edx-84]
  0000c	33 c8		 xor	 ecx, eax
  0000e	e8 00 00 00 00	 call	 @__security_check_cookie@4
  00013	b8 00 00 00 00	 mov	 eax, OFFSET __ehfuncinfo$??1?$_Tree_temp_node@V?$allocator@U?$_Tree_node@U?$pair@$$CBHU_MONSTER_HERD_DATA@@@std@@PAX@std@@@std@@@std@@QAE@XZ
  00018	e9 00 00 00 00	 jmp	 ___CxxFrameHandler3
text$x	ENDS
??1?$_Tree_temp_node@V?$allocator@U?$_Tree_node@U?$pair@$$CBHU_MONSTER_HERD_DATA@@@std@@PAX@std@@@std@@@std@@QAE@XZ ENDP ; std::_Tree_temp_node<std::allocator<std::_Tree_node<std::pair<int const ,_MONSTER_HERD_DATA>,void *> > >::~_Tree_temp_node<std::allocator<std::_Tree_node<std::pair<int const ,_MONSTER_HERD_DATA>,void *> > >
; Function compile flags: /Odtp /ZI
;	COMDAT ??1?$_Tree_temp_node_alloc@V?$allocator@U?$_Tree_node@U?$pair@$$CBHU_MONSTER_HERD_DATA@@@std@@PAX@std@@@std@@@std@@QAE@XZ
_TEXT	SEGMENT
_this$ = -4						; size = 4
??1?$_Tree_temp_node_alloc@V?$allocator@U?$_Tree_node@U?$pair@$$CBHU_MONSTER_HERD_DATA@@@std@@PAX@std@@@std@@@std@@QAE@XZ PROC ; std::_Tree_temp_node_alloc<std::allocator<std::_Tree_node<std::pair<int const ,_MONSTER_HERD_DATA>,void *> > >::~_Tree_temp_node_alloc<std::allocator<std::_Tree_node<std::pair<int const ,_MONSTER_HERD_DATA>,void *> > >, COMDAT
; _this$ = ecx
  00000	55		 push	 ebp
  00001	8b ec		 mov	 ebp, esp
  00003	83 ec 44	 sub	 esp, 68			; 00000044H
  00006	53		 push	 ebx
  00007	56		 push	 esi
  00008	57		 push	 edi
  00009	89 4d fc	 mov	 DWORD PTR _this$[ebp], ecx
  0000c	8b 4d fc	 mov	 ecx, DWORD PTR _this$[ebp]
  0000f	e8 00 00 00 00	 call	 ??1?$_Alloc_construct_ptr@V?$allocator@U?$_Tree_node@U?$pair@$$CBHU_MONSTER_HERD_DATA@@@std@@PAX@std@@@std@@@std@@QAE@XZ ; std::_Alloc_construct_ptr<std::allocator<std::_Tree_node<std::pair<int const ,_MONSTER_HERD_DATA>,void *> > >::~_Alloc_construct_ptr<std::allocator<std::_Tree_node<std::pair<int const ,_MONSTER_HERD_DATA>,void *> > >
  00014	5f		 pop	 edi
  00015	5e		 pop	 esi
  00016	5b		 pop	 ebx
  00017	8b e5		 mov	 esp, ebp
  00019	5d		 pop	 ebp
  0001a	c3		 ret	 0
??1?$_Tree_temp_node_alloc@V?$allocator@U?$_Tree_node@U?$pair@$$CBHU_MONSTER_HERD_DATA@@@std@@PAX@std@@@std@@@std@@QAE@XZ ENDP ; std::_Tree_temp_node_alloc<std::allocator<std::_Tree_node<std::pair<int const ,_MONSTER_HERD_DATA>,void *> > >::~_Tree_temp_node_alloc<std::allocator<std::_Tree_node<std::pair<int const ,_MONSTER_HERD_DATA>,void *> > >
_TEXT	ENDS
; Function compile flags: /Odtp /ZI
; File C:\Program Files (x86)\Microsoft Visual Studio\2019\Community\VC\Tools\MSVC\14.27.29110\include\xtree
;	COMDAT ??0?$_Tree_temp_node_alloc@V?$allocator@U?$_Tree_node@U?$pair@$$CBHU_MONSTER_HERD_DATA@@@std@@PAX@std@@@std@@@std@@QAE@AAV?$allocator@U?$_Tree_node@U?$pair@$$CBHU_MONSTER_HERD_DATA@@@std@@PAX@std@@@1@@Z
_TEXT	SEGMENT
_this$ = -16						; size = 4
__$EHRec$ = -12						; size = 12
__Al_$ = 8						; size = 4
??0?$_Tree_temp_node_alloc@V?$allocator@U?$_Tree_node@U?$pair@$$CBHU_MONSTER_HERD_DATA@@@std@@PAX@std@@@std@@@std@@QAE@AAV?$allocator@U?$_Tree_node@U?$pair@$$CBHU_MONSTER_HERD_DATA@@@std@@PAX@std@@@1@@Z PROC ; std::_Tree_temp_node_alloc<std::allocator<std::_Tree_node<std::pair<int const ,_MONSTER_HERD_DATA>,void *> > >::_Tree_temp_node_alloc<std::allocator<std::_Tree_node<std::pair<int const ,_MONSTER_HERD_DATA>,void *> > >, COMDAT
; _this$ = ecx

; 784  :     explicit _Tree_temp_node_alloc(_Alnode& _Al_) : _Alloc_construct_ptr<_Alnode>(_Al_) {

  00000	55		 push	 ebp
  00001	8b ec		 mov	 ebp, esp
  00003	6a ff		 push	 -1
  00005	68 00 00 00 00	 push	 __ehhandler$??0?$_Tree_temp_node_alloc@V?$allocator@U?$_Tree_node@U?$pair@$$CBHU_MONSTER_HERD_DATA@@@std@@PAX@std@@@std@@@std@@QAE@AAV?$allocator@U?$_Tree_node@U?$pair@$$CBHU_MONSTER_HERD_DATA@@@std@@PAX@std@@@1@@Z
  0000a	64 a1 00 00 00
	00		 mov	 eax, DWORD PTR fs:0
  00010	50		 push	 eax
  00011	83 ec 44	 sub	 esp, 68			; 00000044H
  00014	53		 push	 ebx
  00015	56		 push	 esi
  00016	57		 push	 edi
  00017	a1 00 00 00 00	 mov	 eax, DWORD PTR ___security_cookie
  0001c	33 c5		 xor	 eax, ebp
  0001e	50		 push	 eax
  0001f	8d 45 f4	 lea	 eax, DWORD PTR __$EHRec$[ebp]
  00022	64 a3 00 00 00
	00		 mov	 DWORD PTR fs:0, eax
  00028	89 4d f0	 mov	 DWORD PTR _this$[ebp], ecx
  0002b	8b 45 08	 mov	 eax, DWORD PTR __Al_$[ebp]
  0002e	50		 push	 eax
  0002f	8b 4d f0	 mov	 ecx, DWORD PTR _this$[ebp]
  00032	e8 00 00 00 00	 call	 ??0?$_Alloc_construct_ptr@V?$allocator@U?$_Tree_node@U?$pair@$$CBHU_MONSTER_HERD_DATA@@@std@@PAX@std@@@std@@@std@@QAE@AAV?$allocator@U?$_Tree_node@U?$pair@$$CBHU_MONSTER_HERD_DATA@@@std@@PAX@std@@@1@@Z ; std::_Alloc_construct_ptr<std::allocator<std::_Tree_node<std::pair<int const ,_MONSTER_HERD_DATA>,void *> > >::_Alloc_construct_ptr<std::allocator<std::_Tree_node<std::pair<int const ,_MONSTER_HERD_DATA>,void *> > >
  00037	c7 45 fc 00 00
	00 00		 mov	 DWORD PTR __$EHRec$[ebp+8], 0

; 785  :         _Alloc_construct_ptr<_Alnode>::_Allocate();

  0003e	8b 4d f0	 mov	 ecx, DWORD PTR _this$[ebp]
  00041	e8 00 00 00 00	 call	 ?_Allocate@?$_Alloc_construct_ptr@V?$allocator@U?$_Tree_node@U?$pair@$$CBHU_MONSTER_HERD_DATA@@@std@@PAX@std@@@std@@@std@@QAEXXZ ; std::_Alloc_construct_ptr<std::allocator<std::_Tree_node<std::pair<int const ,_MONSTER_HERD_DATA>,void *> > >::_Allocate

; 786  :     }

  00046	c7 45 fc ff ff
	ff ff		 mov	 DWORD PTR __$EHRec$[ebp+8], -1
  0004d	8b 45 f0	 mov	 eax, DWORD PTR _this$[ebp]
  00050	8b 4d f4	 mov	 ecx, DWORD PTR __$EHRec$[ebp]
  00053	64 89 0d 00 00
	00 00		 mov	 DWORD PTR fs:0, ecx
  0005a	59		 pop	 ecx
  0005b	5f		 pop	 edi
  0005c	5e		 pop	 esi
  0005d	5b		 pop	 ebx
  0005e	8b e5		 mov	 esp, ebp
  00060	5d		 pop	 ebp
  00061	c2 04 00	 ret	 4
_TEXT	ENDS
;	COMDAT text$x
text$x	SEGMENT
__unwindfunclet$??0?$_Tree_temp_node_alloc@V?$allocator@U?$_Tree_node@U?$pair@$$CBHU_MONSTER_HERD_DATA@@@std@@PAX@std@@@std@@@std@@QAE@AAV?$allocator@U?$_Tree_node@U?$pair@$$CBHU_MONSTER_HERD_DATA@@@std@@PAX@std@@@1@@Z$0:
  00000	8b 4d f0	 mov	 ecx, DWORD PTR _this$[ebp]
  00003	e9 00 00 00 00	 jmp	 ??1?$_Alloc_construct_ptr@V?$allocator@U?$_Tree_node@U?$pair@$$CBHU_MONSTER_HERD_DATA@@@std@@PAX@std@@@std@@@std@@QAE@XZ ; std::_Alloc_construct_ptr<std::allocator<std::_Tree_node<std::pair<int const ,_MONSTER_HERD_DATA>,void *> > >::~_Alloc_construct_ptr<std::allocator<std::_Tree_node<std::pair<int const ,_MONSTER_HERD_DATA>,void *> > >
  00008	cc		 int	 3
  00009	cc		 int	 3
  0000a	cc		 int	 3
  0000b	cc		 int	 3
  0000c	cc		 int	 3
__ehhandler$??0?$_Tree_temp_node_alloc@V?$allocator@U?$_Tree_node@U?$pair@$$CBHU_MONSTER_HERD_DATA@@@std@@PAX@std@@@std@@@std@@QAE@AAV?$allocator@U?$_Tree_node@U?$pair@$$CBHU_MONSTER_HERD_DATA@@@std@@PAX@std@@@1@@Z:
  0000d	90		 npad	 1
  0000e	90		 npad	 1
  0000f	8b 54 24 08	 mov	 edx, DWORD PTR [esp+8]
  00013	8d 42 0c	 lea	 eax, DWORD PTR [edx+12]
  00016	8b 4a ac	 mov	 ecx, DWORD PTR [edx-84]
  00019	33 c8		 xor	 ecx, eax
  0001b	e8 00 00 00 00	 call	 @__security_check_cookie@4
  00020	b8 00 00 00 00	 mov	 eax, OFFSET __ehfuncinfo$??0?$_Tree_temp_node_alloc@V?$allocator@U?$_Tree_node@U?$pair@$$CBHU_MONSTER_HERD_DATA@@@std@@PAX@std@@@std@@@std@@QAE@AAV?$allocator@U?$_Tree_node@U?$pair@$$CBHU_MONSTER_HERD_DATA@@@std@@PAX@std@@@1@@Z
  00025	e9 00 00 00 00	 jmp	 ___CxxFrameHandler3
text$x	ENDS
??0?$_Tree_temp_node_alloc@V?$allocator@U?$_Tree_node@U?$pair@$$CBHU_MONSTER_HERD_DATA@@@std@@PAX@std@@@std@@@std@@QAE@AAV?$allocator@U?$_Tree_node@U?$pair@$$CBHU_MONSTER_HERD_DATA@@@std@@PAX@std@@@1@@Z ENDP ; std::_Tree_temp_node_alloc<std::allocator<std::_Tree_node<std::pair<int const ,_MONSTER_HERD_DATA>,void *> > >::_Tree_temp_node_alloc<std::allocator<std::_Tree_node<std::pair<int const ,_MONSTER_HERD_DATA>,void *> > >
; Function compile flags: /Odtp /ZI
; File C:\Program Files (x86)\Microsoft Visual Studio\2019\Community\VC\Tools\MSVC\14.27.29110\include\xmemory
;	COMDAT ??1?$_Alloc_construct_ptr@V?$allocator@U?$_Tree_node@U?$pair@$$CBHU_MONSTER_HERD_DATA@@@std@@PAX@std@@@std@@@std@@QAE@XZ
_TEXT	SEGMENT
_this$ = -16						; size = 4
__$EHRec$ = -12						; size = 12
??1?$_Alloc_construct_ptr@V?$allocator@U?$_Tree_node@U?$pair@$$CBHU_MONSTER_HERD_DATA@@@std@@PAX@std@@@std@@@std@@QAE@XZ PROC ; std::_Alloc_construct_ptr<std::allocator<std::_Tree_node<std::pair<int const ,_MONSTER_HERD_DATA>,void *> > >::~_Alloc_construct_ptr<std::allocator<std::_Tree_node<std::pair<int const ,_MONSTER_HERD_DATA>,void *> > >, COMDAT
; _this$ = ecx

; 1051 :     ~_Alloc_construct_ptr() { // if this instance is engaged, deallocate storage

  00000	55		 push	 ebp
  00001	8b ec		 mov	 ebp, esp
  00003	6a ff		 push	 -1
  00005	68 00 00 00 00	 push	 __ehhandler$??1?$_Alloc_construct_ptr@V?$allocator@U?$_Tree_node@U?$pair@$$CBHU_MONSTER_HERD_DATA@@@std@@PAX@std@@@std@@@std@@QAE@XZ
  0000a	64 a1 00 00 00
	00		 mov	 eax, DWORD PTR fs:0
  00010	50		 push	 eax
  00011	83 ec 44	 sub	 esp, 68			; 00000044H
  00014	53		 push	 ebx
  00015	56		 push	 esi
  00016	57		 push	 edi
  00017	a1 00 00 00 00	 mov	 eax, DWORD PTR ___security_cookie
  0001c	33 c5		 xor	 eax, ebp
  0001e	50		 push	 eax
  0001f	8d 45 f4	 lea	 eax, DWORD PTR __$EHRec$[ebp]
  00022	64 a3 00 00 00
	00		 mov	 DWORD PTR fs:0, eax
  00028	89 4d f0	 mov	 DWORD PTR _this$[ebp], ecx

; 1052 :         if (_Ptr) {

  0002b	8b 45 f0	 mov	 eax, DWORD PTR _this$[ebp]
  0002e	83 78 04 00	 cmp	 DWORD PTR [eax+4], 0
  00032	74 13		 je	 SHORT $LN3@Alloc_cons

; 1053 :             _Al.deallocate(_Ptr, 1);

  00034	6a 01		 push	 1
  00036	8b 45 f0	 mov	 eax, DWORD PTR _this$[ebp]
  00039	8b 48 04	 mov	 ecx, DWORD PTR [eax+4]
  0003c	51		 push	 ecx
  0003d	8b 55 f0	 mov	 edx, DWORD PTR _this$[ebp]
  00040	8b 0a		 mov	 ecx, DWORD PTR [edx]
  00042	e8 00 00 00 00	 call	 ?deallocate@?$allocator@U?$_Tree_node@U?$pair@$$CBHU_MONSTER_HERD_DATA@@@std@@PAX@std@@@std@@QAEXQAU?$_Tree_node@U?$pair@$$CBHU_MONSTER_HERD_DATA@@@std@@PAX@2@I@Z ; std::allocator<std::_Tree_node<std::pair<int const ,_MONSTER_HERD_DATA>,void *> >::deallocate
$LN3@Alloc_cons:

; 1054 :         }
; 1055 :     }

  00047	8b 4d f4	 mov	 ecx, DWORD PTR __$EHRec$[ebp]
  0004a	64 89 0d 00 00
	00 00		 mov	 DWORD PTR fs:0, ecx
  00051	59		 pop	 ecx
  00052	5f		 pop	 edi
  00053	5e		 pop	 esi
  00054	5b		 pop	 ebx
  00055	8b e5		 mov	 esp, ebp
  00057	5d		 pop	 ebp
  00058	c3		 ret	 0
  00059	cc		 int	 3
  0005a	cc		 int	 3
  0005b	cc		 int	 3
  0005c	cc		 int	 3
  0005d	cc		 int	 3
_TEXT	ENDS
;	COMDAT text$x
text$x	SEGMENT
__ehhandler$??1?$_Alloc_construct_ptr@V?$allocator@U?$_Tree_node@U?$pair@$$CBHU_MONSTER_HERD_DATA@@@std@@PAX@std@@@std@@@std@@QAE@XZ:
  00000	90		 npad	 1
  00001	90		 npad	 1
  00002	8b 54 24 08	 mov	 edx, DWORD PTR [esp+8]
  00006	8d 42 0c	 lea	 eax, DWORD PTR [edx+12]
  00009	8b 4a ac	 mov	 ecx, DWORD PTR [edx-84]
  0000c	33 c8		 xor	 ecx, eax
  0000e	e8 00 00 00 00	 call	 @__security_check_cookie@4
  00013	b8 00 00 00 00	 mov	 eax, OFFSET __ehfuncinfo$??1?$_Alloc_construct_ptr@V?$allocator@U?$_Tree_node@U?$pair@$$CBHU_MONSTER_HERD_DATA@@@std@@PAX@std@@@std@@@std@@QAE@XZ
  00018	e9 00 00 00 00	 jmp	 ___CxxFrameHandler3
text$x	ENDS
??1?$_Alloc_construct_ptr@V?$allocator@U?$_Tree_node@U?$pair@$$CBHU_MONSTER_HERD_DATA@@@std@@PAX@std@@@std@@@std@@QAE@XZ ENDP ; std::_Alloc_construct_ptr<std::allocator<std::_Tree_node<std::pair<int const ,_MONSTER_HERD_DATA>,void *> > >::~_Alloc_construct_ptr<std::allocator<std::_Tree_node<std::pair<int const ,_MONSTER_HERD_DATA>,void *> > >
; Function compile flags: /Odtp /ZI
; File C:\Program Files (x86)\Microsoft Visual Studio\2019\Community\VC\Tools\MSVC\14.27.29110\include\xmemory
;	COMDAT ?_Allocate@?$_Alloc_construct_ptr@V?$allocator@U?$_Tree_node@U?$pair@$$CBHU_MONSTER_HERD_DATA@@@std@@PAX@std@@@std@@@std@@QAEXXZ
_TEXT	SEGMENT
_this$ = -4						; size = 4
?_Allocate@?$_Alloc_construct_ptr@V?$allocator@U?$_Tree_node@U?$pair@$$CBHU_MONSTER_HERD_DATA@@@std@@PAX@std@@@std@@@std@@QAEXXZ PROC ; std::_Alloc_construct_ptr<std::allocator<std::_Tree_node<std::pair<int const ,_MONSTER_HERD_DATA>,void *> > >::_Allocate, COMDAT
; _this$ = ecx

; 1046 :     void _Allocate() { // disengage *this, then allocate a new memory block

  00000	55		 push	 ebp
  00001	8b ec		 mov	 ebp, esp
  00003	83 ec 44	 sub	 esp, 68			; 00000044H
  00006	53		 push	 ebx
  00007	56		 push	 esi
  00008	57		 push	 edi
  00009	89 4d fc	 mov	 DWORD PTR _this$[ebp], ecx

; 1047 :         _Ptr = nullptr; // if allocate throws, prevents double-free

  0000c	8b 45 fc	 mov	 eax, DWORD PTR _this$[ebp]
  0000f	c7 40 04 00 00
	00 00		 mov	 DWORD PTR [eax+4], 0

; 1048 :         _Ptr = _Al.allocate(1);

  00016	6a 01		 push	 1
  00018	8b 45 fc	 mov	 eax, DWORD PTR _this$[ebp]
  0001b	8b 08		 mov	 ecx, DWORD PTR [eax]
  0001d	e8 00 00 00 00	 call	 ?allocate@?$allocator@U?$_Tree_node@U?$pair@$$CBHU_MONSTER_HERD_DATA@@@std@@PAX@std@@@std@@QAEPAU?$_Tree_node@U?$pair@$$CBHU_MONSTER_HERD_DATA@@@std@@PAX@2@I@Z ; std::allocator<std::_Tree_node<std::pair<int const ,_MONSTER_HERD_DATA>,void *> >::allocate
  00022	8b 4d fc	 mov	 ecx, DWORD PTR _this$[ebp]
  00025	89 41 04	 mov	 DWORD PTR [ecx+4], eax

; 1049 :     }

  00028	5f		 pop	 edi
  00029	5e		 pop	 esi
  0002a	5b		 pop	 ebx
  0002b	8b e5		 mov	 esp, ebp
  0002d	5d		 pop	 ebp
  0002e	c3		 ret	 0
?_Allocate@?$_Alloc_construct_ptr@V?$allocator@U?$_Tree_node@U?$pair@$$CBHU_MONSTER_HERD_DATA@@@std@@PAX@std@@@std@@@std@@QAEXXZ ENDP ; std::_Alloc_construct_ptr<std::allocator<std::_Tree_node<std::pair<int const ,_MONSTER_HERD_DATA>,void *> > >::_Allocate
_TEXT	ENDS
; Function compile flags: /Odtp /ZI
; File C:\Program Files (x86)\Microsoft Visual Studio\2019\Community\VC\Tools\MSVC\14.27.29110\include\xmemory
;	COMDAT ?_Release@?$_Alloc_construct_ptr@V?$allocator@U?$_Tree_node@U?$pair@$$CBHU_MONSTER_HERD_DATA@@@std@@PAX@std@@@std@@@std@@QAEPAU?$_Tree_node@U?$pair@$$CBHU_MONSTER_HERD_DATA@@@std@@PAX@2@XZ
_TEXT	SEGMENT
$T1 = -72						; size = 4
_this$ = -4						; size = 4
?_Release@?$_Alloc_construct_ptr@V?$allocator@U?$_Tree_node@U?$pair@$$CBHU_MONSTER_HERD_DATA@@@std@@PAX@std@@@std@@@std@@QAEPAU?$_Tree_node@U?$pair@$$CBHU_MONSTER_HERD_DATA@@@std@@PAX@2@XZ PROC ; std::_Alloc_construct_ptr<std::allocator<std::_Tree_node<std::pair<int const ,_MONSTER_HERD_DATA>,void *> > >::_Release, COMDAT
; _this$ = ecx

; 1042 :     _NODISCARD pointer _Release() noexcept { // disengage *this and return contained pointer

  00000	55		 push	 ebp
  00001	8b ec		 mov	 ebp, esp
  00003	83 ec 48	 sub	 esp, 72			; 00000048H
  00006	53		 push	 ebx
  00007	56		 push	 esi
  00008	57		 push	 edi
  00009	89 4d fc	 mov	 DWORD PTR _this$[ebp], ecx

; 1043 :         return _STD exchange(_Ptr, nullptr);

  0000c	c7 45 b8 00 00
	00 00		 mov	 DWORD PTR $T1[ebp], 0
  00013	8d 45 b8	 lea	 eax, DWORD PTR $T1[ebp]
  00016	50		 push	 eax
  00017	8b 4d fc	 mov	 ecx, DWORD PTR _this$[ebp]
  0001a	83 c1 04	 add	 ecx, 4
  0001d	51		 push	 ecx
  0001e	e8 00 00 00 00	 call	 ??$exchange@PAU?$_Tree_node@U?$pair@$$CBHU_MONSTER_HERD_DATA@@@std@@PAX@std@@$$T@std@@YAPAU?$_Tree_node@U?$pair@$$CBHU_MONSTER_HERD_DATA@@@std@@PAX@0@AAPAU10@$$QA$$T@Z ; std::exchange<std::_Tree_node<std::pair<int const ,_MONSTER_HERD_DATA>,void *> *,std::nullptr_t>
  00023	83 c4 08	 add	 esp, 8

; 1044 :     }

  00026	5f		 pop	 edi
  00027	5e		 pop	 esi
  00028	5b		 pop	 ebx
  00029	8b e5		 mov	 esp, ebp
  0002b	5d		 pop	 ebp
  0002c	c3		 ret	 0
?_Release@?$_Alloc_construct_ptr@V?$allocator@U?$_Tree_node@U?$pair@$$CBHU_MONSTER_HERD_DATA@@@std@@PAX@std@@@std@@@std@@QAEPAU?$_Tree_node@U?$pair@$$CBHU_MONSTER_HERD_DATA@@@std@@PAX@2@XZ ENDP ; std::_Alloc_construct_ptr<std::allocator<std::_Tree_node<std::pair<int const ,_MONSTER_HERD_DATA>,void *> > >::_Release
_TEXT	ENDS
; Function compile flags: /Odtp /ZI
; File C:\Program Files (x86)\Microsoft Visual Studio\2019\Community\VC\Tools\MSVC\14.27.29110\include\xmemory
;	COMDAT ??0?$_Alloc_construct_ptr@V?$allocator@U?$_Tree_node@U?$pair@$$CBHU_MONSTER_HERD_DATA@@@std@@PAX@std@@@std@@@std@@QAE@AAV?$allocator@U?$_Tree_node@U?$pair@$$CBHU_MONSTER_HERD_DATA@@@std@@PAX@std@@@1@@Z
_TEXT	SEGMENT
_this$ = -4						; size = 4
__Al_$ = 8						; size = 4
??0?$_Alloc_construct_ptr@V?$allocator@U?$_Tree_node@U?$pair@$$CBHU_MONSTER_HERD_DATA@@@std@@PAX@std@@@std@@@std@@QAE@AAV?$allocator@U?$_Tree_node@U?$pair@$$CBHU_MONSTER_HERD_DATA@@@std@@PAX@std@@@1@@Z PROC ; std::_Alloc_construct_ptr<std::allocator<std::_Tree_node<std::pair<int const ,_MONSTER_HERD_DATA>,void *> > >::_Alloc_construct_ptr<std::allocator<std::_Tree_node<std::pair<int const ,_MONSTER_HERD_DATA>,void *> > >, COMDAT
; _this$ = ecx

; 1040 :     explicit _Alloc_construct_ptr(_Alloc& _Al_) : _Al(_Al_), _Ptr(nullptr) {}

  00000	55		 push	 ebp
  00001	8b ec		 mov	 ebp, esp
  00003	83 ec 44	 sub	 esp, 68			; 00000044H
  00006	53		 push	 ebx
  00007	56		 push	 esi
  00008	57		 push	 edi
  00009	89 4d fc	 mov	 DWORD PTR _this$[ebp], ecx
  0000c	8b 45 fc	 mov	 eax, DWORD PTR _this$[ebp]
  0000f	8b 4d 08	 mov	 ecx, DWORD PTR __Al_$[ebp]
  00012	89 08		 mov	 DWORD PTR [eax], ecx
  00014	8b 45 fc	 mov	 eax, DWORD PTR _this$[ebp]
  00017	c7 40 04 00 00
	00 00		 mov	 DWORD PTR [eax+4], 0
  0001e	8b 45 fc	 mov	 eax, DWORD PTR _this$[ebp]
  00021	5f		 pop	 edi
  00022	5e		 pop	 esi
  00023	5b		 pop	 ebx
  00024	8b e5		 mov	 esp, ebp
  00026	5d		 pop	 ebp
  00027	c2 04 00	 ret	 4
??0?$_Alloc_construct_ptr@V?$allocator@U?$_Tree_node@U?$pair@$$CBHU_MONSTER_HERD_DATA@@@std@@PAX@std@@@std@@@std@@QAE@AAV?$allocator@U?$_Tree_node@U?$pair@$$CBHU_MONSTER_HERD_DATA@@@std@@PAX@std@@@1@@Z ENDP ; std::_Alloc_construct_ptr<std::allocator<std::_Tree_node<std::pair<int const ,_MONSTER_HERD_DATA>,void *> > >::_Alloc_construct_ptr<std::allocator<std::_Tree_node<std::pair<int const ,_MONSTER_HERD_DATA>,void *> > >
_TEXT	ENDS
; Function compile flags: /Odtp /ZI
; File C:\Program Files (x86)\Microsoft Visual Studio\2019\Community\VC\Tools\MSVC\14.27.29110\include\utility
;	COMDAT ??$?0AAPAU?$_Tree_node@U?$pair@$$CBHU_MONSTER_HERD_DATA@@@std@@PAX@std@@_N$0A@@?$pair@PAU?$_Tree_node@U?$pair@$$CBHU_MONSTER_HERD_DATA@@@std@@PAX@std@@_N@std@@QAE@AAPAU?$_Tree_node@U?$pair@$$CBHU_MONSTER_HERD_DATA@@@std@@PAX@1@$$QA_N@Z
_TEXT	SEGMENT
_this$ = -4						; size = 4
__Val1$ = 8						; size = 4
__Val2$ = 12						; size = 4
??$?0AAPAU?$_Tree_node@U?$pair@$$CBHU_MONSTER_HERD_DATA@@@std@@PAX@std@@_N$0A@@?$pair@PAU?$_Tree_node@U?$pair@$$CBHU_MONSTER_HERD_DATA@@@std@@PAX@std@@_N@std@@QAE@AAPAU?$_Tree_node@U?$pair@$$CBHU_MONSTER_HERD_DATA@@@std@@PAX@1@$$QA_N@Z PROC ; std::pair<std::_Tree_node<std::pair<int const ,_MONSTER_HERD_DATA>,void *> *,bool>::pair<std::_Tree_node<std::pair<int const ,_MONSTER_HERD_DATA>,void *> *,bool><std::_Tree_node<std::pair<int const ,_MONSTER_HERD_DATA>,void *> * &,bool,0>, COMDAT
; _this$ = ecx

; 192  :         : first(_STD forward<_Other1>(_Val1)), second(_STD forward<_Other2>(_Val2)) {}

  00000	55		 push	 ebp
  00001	8b ec		 mov	 ebp, esp
  00003	83 ec 44	 sub	 esp, 68			; 00000044H
  00006	53		 push	 ebx
  00007	56		 push	 esi
  00008	57		 push	 edi
  00009	89 4d fc	 mov	 DWORD PTR _this$[ebp], ecx
  0000c	8b 45 08	 mov	 eax, DWORD PTR __Val1$[ebp]
  0000f	50		 push	 eax
  00010	e8 00 00 00 00	 call	 ??$forward@AAPAU?$_Tree_node@U?$pair@$$CBHU_MONSTER_HERD_DATA@@@std@@PAX@std@@@std@@YAAAPAU?$_Tree_node@U?$pair@$$CBHU_MONSTER_HERD_DATA@@@std@@PAX@0@AAPAU10@@Z ; std::forward<std::_Tree_node<std::pair<int const ,_MONSTER_HERD_DATA>,void *> * &>
  00015	83 c4 04	 add	 esp, 4
  00018	8b 4d fc	 mov	 ecx, DWORD PTR _this$[ebp]
  0001b	8b 10		 mov	 edx, DWORD PTR [eax]
  0001d	89 11		 mov	 DWORD PTR [ecx], edx
  0001f	8b 45 0c	 mov	 eax, DWORD PTR __Val2$[ebp]
  00022	50		 push	 eax
  00023	e8 00 00 00 00	 call	 ??$forward@_N@std@@YA$$QA_NAA_N@Z ; std::forward<bool>
  00028	83 c4 04	 add	 esp, 4
  0002b	8b 4d fc	 mov	 ecx, DWORD PTR _this$[ebp]
  0002e	8a 10		 mov	 dl, BYTE PTR [eax]
  00030	88 51 04	 mov	 BYTE PTR [ecx+4], dl
  00033	8b 45 fc	 mov	 eax, DWORD PTR _this$[ebp]
  00036	5f		 pop	 edi
  00037	5e		 pop	 esi
  00038	5b		 pop	 ebx
  00039	8b e5		 mov	 esp, ebp
  0003b	5d		 pop	 ebp
  0003c	c2 08 00	 ret	 8
??$?0AAPAU?$_Tree_node@U?$pair@$$CBHU_MONSTER_HERD_DATA@@@std@@PAX@std@@_N$0A@@?$pair@PAU?$_Tree_node@U?$pair@$$CBHU_MONSTER_HERD_DATA@@@std@@PAX@std@@_N@std@@QAE@AAPAU?$_Tree_node@U?$pair@$$CBHU_MONSTER_HERD_DATA@@@std@@PAX@1@$$QA_N@Z ENDP ; std::pair<std::_Tree_node<std::pair<int const ,_MONSTER_HERD_DATA>,void *> *,bool>::pair<std::_Tree_node<std::pair<int const ,_MONSTER_HERD_DATA>,void *> *,bool><std::_Tree_node<std::pair<int const ,_MONSTER_HERD_DATA>,void *> * &,bool,0>
_TEXT	ENDS
; Function compile flags: /Odtp /ZI
; File C:\Program Files (x86)\Microsoft Visual Studio\2019\Community\VC\Tools\MSVC\14.27.29110\include\xmemory
;	COMDAT ?_Extract@?$_In_place_key_extract_map@HU?$pair@HU_MONSTER_HERD_DATA@@@std@@@std@@SAABHABU?$pair@HU_MONSTER_HERD_DATA@@@2@@Z
_TEXT	SEGMENT
__Val$ = 8						; size = 4
?_Extract@?$_In_place_key_extract_map@HU?$pair@HU_MONSTER_HERD_DATA@@@std@@@std@@SAABHABU?$pair@HU_MONSTER_HERD_DATA@@@2@@Z PROC ; std::_In_place_key_extract_map<int,std::pair<int,_MONSTER_HERD_DATA> >::_Extract, COMDAT

; 1961 :     static const _Key& _Extract(const pair<_First, _Second>& _Val) {

  00000	55		 push	 ebp
  00001	8b ec		 mov	 ebp, esp
  00003	83 ec 40	 sub	 esp, 64			; 00000040H
  00006	53		 push	 ebx
  00007	56		 push	 esi
  00008	57		 push	 edi

; 1962 :         return _Val.first;

  00009	8b 45 08	 mov	 eax, DWORD PTR __Val$[ebp]

; 1963 :     }

  0000c	5f		 pop	 edi
  0000d	5e		 pop	 esi
  0000e	5b		 pop	 ebx
  0000f	8b e5		 mov	 esp, ebp
  00011	5d		 pop	 ebp
  00012	c3		 ret	 0
?_Extract@?$_In_place_key_extract_map@HU?$pair@HU_MONSTER_HERD_DATA@@@std@@@std@@SAABHABU?$pair@HU_MONSTER_HERD_DATA@@@2@@Z ENDP ; std::_In_place_key_extract_map<int,std::pair<int,_MONSTER_HERD_DATA> >::_Extract
_TEXT	ENDS
; Function compile flags: /Odtp /ZI
; File C:\Program Files (x86)\Microsoft Visual Studio\2019\Community\VC\Tools\MSVC\14.27.29110\include\type_traits
;	COMDAT ??$forward@ABQAU?$_Tree_node@U?$pair@$$CBHU_MONSTER_HERD_DATA@@@std@@PAX@std@@@std@@YAABQAU?$_Tree_node@U?$pair@$$CBHU_MONSTER_HERD_DATA@@@std@@PAX@0@ABQAU10@@Z
_TEXT	SEGMENT
__Arg$ = 8						; size = 4
??$forward@ABQAU?$_Tree_node@U?$pair@$$CBHU_MONSTER_HERD_DATA@@@std@@PAX@std@@@std@@YAABQAU?$_Tree_node@U?$pair@$$CBHU_MONSTER_HERD_DATA@@@std@@PAX@0@ABQAU10@@Z PROC ; std::forward<std::_Tree_node<std::pair<int const ,_MONSTER_HERD_DATA>,void *> * const &>, COMDAT

; 1454 :     remove_reference_t<_Ty>& _Arg) noexcept { // forward an lvalue as either an lvalue or an rvalue

  00000	55		 push	 ebp
  00001	8b ec		 mov	 ebp, esp
  00003	83 ec 40	 sub	 esp, 64			; 00000040H
  00006	53		 push	 ebx
  00007	56		 push	 esi
  00008	57		 push	 edi

; 1455 :     return static_cast<_Ty&&>(_Arg);

  00009	8b 45 08	 mov	 eax, DWORD PTR __Arg$[ebp]

; 1456 : }

  0000c	5f		 pop	 edi
  0000d	5e		 pop	 esi
  0000e	5b		 pop	 ebx
  0000f	8b e5		 mov	 esp, ebp
  00011	5d		 pop	 ebp
  00012	c3		 ret	 0
??$forward@ABQAU?$_Tree_node@U?$pair@$$CBHU_MONSTER_HERD_DATA@@@std@@PAX@std@@@std@@YAABQAU?$_Tree_node@U?$pair@$$CBHU_MONSTER_HERD_DATA@@@std@@PAX@0@ABQAU10@@Z ENDP ; std::forward<std::_Tree_node<std::pair<int const ,_MONSTER_HERD_DATA>,void *> * const &>
_TEXT	ENDS
; Function compile flags: /Odtp /ZI
; File C:\Program Files (x86)\Microsoft Visual Studio\2019\Community\VC\Tools\MSVC\14.27.29110\include\xstddef
;	COMDAT ??$addressof@PAU?$_Tree_node@U?$pair@$$CBHU_MONSTER_HERD_DATA@@@std@@PAX@std@@@std@@YAPAPAU?$_Tree_node@U?$pair@$$CBHU_MONSTER_HERD_DATA@@@std@@PAX@0@AAPAU10@@Z
_TEXT	SEGMENT
__Val$ = 8						; size = 4
??$addressof@PAU?$_Tree_node@U?$pair@$$CBHU_MONSTER_HERD_DATA@@@std@@PAX@std@@@std@@YAPAPAU?$_Tree_node@U?$pair@$$CBHU_MONSTER_HERD_DATA@@@std@@PAX@0@AAPAU10@@Z PROC ; std::addressof<std::_Tree_node<std::pair<int const ,_MONSTER_HERD_DATA>,void *> *>, COMDAT

; 274  : _NODISCARD constexpr _Ty* addressof(_Ty& _Val) noexcept {

  00000	55		 push	 ebp
  00001	8b ec		 mov	 ebp, esp
  00003	83 ec 40	 sub	 esp, 64			; 00000040H
  00006	53		 push	 ebx
  00007	56		 push	 esi
  00008	57		 push	 edi

; 275  :     return __builtin_addressof(_Val);

  00009	8b 45 08	 mov	 eax, DWORD PTR __Val$[ebp]

; 276  : }

  0000c	5f		 pop	 edi
  0000d	5e		 pop	 esi
  0000e	5b		 pop	 ebx
  0000f	8b e5		 mov	 esp, ebp
  00011	5d		 pop	 ebp
  00012	c3		 ret	 0
??$addressof@PAU?$_Tree_node@U?$pair@$$CBHU_MONSTER_HERD_DATA@@@std@@PAX@std@@@std@@YAPAPAU?$_Tree_node@U?$pair@$$CBHU_MONSTER_HERD_DATA@@@std@@PAX@0@AAPAU10@@Z ENDP ; std::addressof<std::_Tree_node<std::pair<int const ,_MONSTER_HERD_DATA>,void *> *>
_TEXT	ENDS
; Function compile flags: /Odtp /ZI
; File C:\Program Files (x86)\Microsoft Visual Studio\2019\Community\VC\Tools\MSVC\14.27.29110\include\xmemory
;	COMDAT ??$_Destroy_in_place@PAU?$_Tree_node@U?$pair@$$CBHU_MONSTER_HERD_DATA@@@std@@PAX@std@@@std@@YAXAAPAU?$_Tree_node@U?$pair@$$CBHU_MONSTER_HERD_DATA@@@std@@PAX@0@@Z
_TEXT	SEGMENT
__Obj$ = 8						; size = 4
??$_Destroy_in_place@PAU?$_Tree_node@U?$pair@$$CBHU_MONSTER_HERD_DATA@@@std@@PAX@std@@@std@@YAXAAPAU?$_Tree_node@U?$pair@$$CBHU_MONSTER_HERD_DATA@@@std@@PAX@0@@Z PROC ; std::_Destroy_in_place<std::_Tree_node<std::pair<int const ,_MONSTER_HERD_DATA>,void *> *>, COMDAT

; 267  : void _Destroy_in_place(_Ty& _Obj) noexcept {

  00000	55		 push	 ebp
  00001	8b ec		 mov	 ebp, esp
  00003	83 ec 40	 sub	 esp, 64			; 00000040H
  00006	53		 push	 ebx
  00007	56		 push	 esi
  00008	57		 push	 edi

; 268  :     _Obj.~_Ty();
; 269  : }

  00009	5f		 pop	 edi
  0000a	5e		 pop	 esi
  0000b	5b		 pop	 ebx
  0000c	8b e5		 mov	 esp, ebp
  0000e	5d		 pop	 ebp
  0000f	c3		 ret	 0
??$_Destroy_in_place@PAU?$_Tree_node@U?$pair@$$CBHU_MONSTER_HERD_DATA@@@std@@PAX@std@@@std@@YAXAAPAU?$_Tree_node@U?$pair@$$CBHU_MONSTER_HERD_DATA@@@std@@PAX@0@@Z ENDP ; std::_Destroy_in_place<std::_Tree_node<std::pair<int const ,_MONSTER_HERD_DATA>,void *> *>
_TEXT	ENDS
; Function compile flags: /Odtp /ZI
; File C:\Program Files (x86)\Microsoft Visual Studio\2019\Community\VC\Tools\MSVC\14.27.29110\include\map
;	COMDAT ??$_Kfn@$$CBHU_MONSTER_HERD_DATA@@@?$_Tmap_traits@HU_MONSTER_HERD_DATA@@U?$less@H@std@@V?$allocator@U?$pair@$$CBHU_MONSTER_HERD_DATA@@@std@@@3@$0A@@std@@SAABHABU?$pair@$$CBHU_MONSTER_HERD_DATA@@@1@@Z
_TEXT	SEGMENT
__Val$ = 8						; size = 4
??$_Kfn@$$CBHU_MONSTER_HERD_DATA@@@?$_Tmap_traits@HU_MONSTER_HERD_DATA@@U?$less@H@std@@V?$allocator@U?$pair@$$CBHU_MONSTER_HERD_DATA@@@std@@@3@$0A@@std@@SAABHABU?$pair@$$CBHU_MONSTER_HERD_DATA@@@1@@Z PROC ; std::_Tmap_traits<int,_MONSTER_HERD_DATA,std::less<int>,std::allocator<std::pair<int const ,_MONSTER_HERD_DATA> >,0>::_Kfn<int const ,_MONSTER_HERD_DATA>, COMDAT

; 68   :     static const _Kty& _Kfn(const pair<_Ty1, _Ty2>& _Val) { // extract key from element value

  00000	55		 push	 ebp
  00001	8b ec		 mov	 ebp, esp
  00003	83 ec 40	 sub	 esp, 64			; 00000040H
  00006	53		 push	 ebx
  00007	56		 push	 esi
  00008	57		 push	 edi

; 69   :         return _Val.first;

  00009	8b 45 08	 mov	 eax, DWORD PTR __Val$[ebp]

; 70   :     }

  0000c	5f		 pop	 edi
  0000d	5e		 pop	 esi
  0000e	5b		 pop	 ebx
  0000f	8b e5		 mov	 esp, ebp
  00011	5d		 pop	 ebp
  00012	c3		 ret	 0
??$_Kfn@$$CBHU_MONSTER_HERD_DATA@@@?$_Tmap_traits@HU_MONSTER_HERD_DATA@@U?$less@H@std@@V?$allocator@U?$pair@$$CBHU_MONSTER_HERD_DATA@@@std@@@3@$0A@@std@@SAABHABU?$pair@$$CBHU_MONSTER_HERD_DATA@@@1@@Z ENDP ; std::_Tmap_traits<int,_MONSTER_HERD_DATA,std::less<int>,std::allocator<std::pair<int const ,_MONSTER_HERD_DATA> >,0>::_Kfn<int const ,_MONSTER_HERD_DATA>
_TEXT	ENDS
; Function compile flags: /Odtp /ZI
; File C:\Program Files (x86)\Microsoft Visual Studio\2019\Community\VC\Tools\MSVC\14.27.29110\include\utility
;	COMDAT ??$?0V?$_Tree_iterator@V?$_Tree_val@U?$_Tree_simple_types@U?$pair@$$CBHU_MONSTER_HERD_DATA@@@std@@@std@@@std@@@std@@AB_N$0A@@?$pair@V?$_Tree_iterator@V?$_Tree_val@U?$_Tree_simple_types@U?$pair@$$CBHU_MONSTER_HERD_DATA@@@std@@@std@@@std@@@std@@_N@std@@QAE@$$QAV?$_Tree_iterator@V?$_Tree_val@U?$_Tree_simple_types@U?$pair@$$CBHU_MONSTER_HERD_DATA@@@std@@@std@@@std@@@1@AB_N@Z
_TEXT	SEGMENT
_this$ = -4						; size = 4
__Val1$ = 8						; size = 4
__Val2$ = 12						; size = 4
??$?0V?$_Tree_iterator@V?$_Tree_val@U?$_Tree_simple_types@U?$pair@$$CBHU_MONSTER_HERD_DATA@@@std@@@std@@@std@@@std@@AB_N$0A@@?$pair@V?$_Tree_iterator@V?$_Tree_val@U?$_Tree_simple_types@U?$pair@$$CBHU_MONSTER_HERD_DATA@@@std@@@std@@@std@@@std@@_N@std@@QAE@$$QAV?$_Tree_iterator@V?$_Tree_val@U?$_Tree_simple_types@U?$pair@$$CBHU_MONSTER_HERD_DATA@@@std@@@std@@@std@@@1@AB_N@Z PROC ; std::pair<std::_Tree_iterator<std::_Tree_val<std::_Tree_simple_types<std::pair<int const ,_MONSTER_HERD_DATA> > > >,bool>::pair<std::_Tree_iterator<std::_Tree_val<std::_Tree_simple_types<std::pair<int const ,_MONSTER_HERD_DATA> > > >,bool><std::_Tree_iterator<std::_Tree_val<std::_Tree_simple_types<std::pair<int const ,_MONSTER_HERD_DATA> > > >,bool const &,0>, COMDAT
; _this$ = ecx

; 192  :         : first(_STD forward<_Other1>(_Val1)), second(_STD forward<_Other2>(_Val2)) {}

  00000	55		 push	 ebp
  00001	8b ec		 mov	 ebp, esp
  00003	83 ec 44	 sub	 esp, 68			; 00000044H
  00006	53		 push	 ebx
  00007	56		 push	 esi
  00008	57		 push	 edi
  00009	89 4d fc	 mov	 DWORD PTR _this$[ebp], ecx
  0000c	8b 45 08	 mov	 eax, DWORD PTR __Val1$[ebp]
  0000f	50		 push	 eax
  00010	e8 00 00 00 00	 call	 ??$forward@V?$_Tree_iterator@V?$_Tree_val@U?$_Tree_simple_types@U?$pair@$$CBHU_MONSTER_HERD_DATA@@@std@@@std@@@std@@@std@@@std@@YA$$QAV?$_Tree_iterator@V?$_Tree_val@U?$_Tree_simple_types@U?$pair@$$CBHU_MONSTER_HERD_DATA@@@std@@@std@@@std@@@0@AAV10@@Z ; std::forward<std::_Tree_iterator<std::_Tree_val<std::_Tree_simple_types<std::pair<int const ,_MONSTER_HERD_DATA> > > > >
  00015	83 c4 04	 add	 esp, 4
  00018	8b 08		 mov	 ecx, DWORD PTR [eax]
  0001a	8b 55 fc	 mov	 edx, DWORD PTR _this$[ebp]
  0001d	89 0a		 mov	 DWORD PTR [edx], ecx
  0001f	8b 45 0c	 mov	 eax, DWORD PTR __Val2$[ebp]
  00022	50		 push	 eax
  00023	e8 00 00 00 00	 call	 ??$forward@AB_N@std@@YAAB_NAB_N@Z ; std::forward<bool const &>
  00028	83 c4 04	 add	 esp, 4
  0002b	8b 4d fc	 mov	 ecx, DWORD PTR _this$[ebp]
  0002e	8a 10		 mov	 dl, BYTE PTR [eax]
  00030	88 51 04	 mov	 BYTE PTR [ecx+4], dl
  00033	8b 45 fc	 mov	 eax, DWORD PTR _this$[ebp]
  00036	5f		 pop	 edi
  00037	5e		 pop	 esi
  00038	5b		 pop	 ebx
  00039	8b e5		 mov	 esp, ebp
  0003b	5d		 pop	 ebp
  0003c	c2 08 00	 ret	 8
??$?0V?$_Tree_iterator@V?$_Tree_val@U?$_Tree_simple_types@U?$pair@$$CBHU_MONSTER_HERD_DATA@@@std@@@std@@@std@@@std@@AB_N$0A@@?$pair@V?$_Tree_iterator@V?$_Tree_val@U?$_Tree_simple_types@U?$pair@$$CBHU_MONSTER_HERD_DATA@@@std@@@std@@@std@@@std@@_N@std@@QAE@$$QAV?$_Tree_iterator@V?$_Tree_val@U?$_Tree_simple_types@U?$pair@$$CBHU_MONSTER_HERD_DATA@@@std@@@std@@@std@@@1@AB_N@Z ENDP ; std::pair<std::_Tree_iterator<std::_Tree_val<std::_Tree_simple_types<std::pair<int const ,_MONSTER_HERD_DATA> > > >,bool>::pair<std::_Tree_iterator<std::_Tree_val<std::_Tree_simple_types<std::pair<int const ,_MONSTER_HERD_DATA> > > >,bool><std::_Tree_iterator<std::_Tree_val<std::_Tree_simple_types<std::pair<int const ,_MONSTER_HERD_DATA> > > >,bool const &,0>
_TEXT	ENDS
; Function compile flags: /Odtp /ZI
; File C:\Program Files (x86)\Microsoft Visual Studio\2019\Community\VC\Tools\MSVC\14.27.29110\include\xtree
;	COMDAT ??$_Emplace@U?$pair@HU_MONSTER_HERD_DATA@@@std@@@?$_Tree@V?$_Tmap_traits@HU_MONSTER_HERD_DATA@@U?$less@H@std@@V?$allocator@U?$pair@$$CBHU_MONSTER_HERD_DATA@@@std@@@3@$0A@@std@@@std@@IAE?AU?$pair@PAU?$_Tree_node@U?$pair@$$CBHU_MONSTER_HERD_DATA@@@std@@PAX@std@@_N@1@$$QAU?$pair@HU_MONSTER_HERD_DATA@@@1@@Z
_TEXT	SEGMENT
tv141 = -128						; size = 4
$T1 = -124						; size = 4
$T2 = -117						; size = 1
$T3 = -116						; size = 8
$T4 = -105						; size = 1
$T5 = -104						; size = 12
__Keyval$6 = -28					; size = 4
__Inserted$ = -24					; size = 4
__Loc$ = -20						; size = 12
__Scary$ = -8						; size = 4
_this$ = -4						; size = 4
___$ReturnUdt$ = 8					; size = 4
_<_Vals_0>$ = 12					; size = 4
??$_Emplace@U?$pair@HU_MONSTER_HERD_DATA@@@std@@@?$_Tree@V?$_Tmap_traits@HU_MONSTER_HERD_DATA@@U?$less@H@std@@V?$allocator@U?$pair@$$CBHU_MONSTER_HERD_DATA@@@std@@@3@$0A@@std@@@std@@IAE?AU?$pair@PAU?$_Tree_node@U?$pair@$$CBHU_MONSTER_HERD_DATA@@@std@@PAX@std@@_N@1@$$QAU?$pair@HU_MONSTER_HERD_DATA@@@1@@Z PROC ; std::_Tree<std::_Tmap_traits<int,_MONSTER_HERD_DATA,std::less<int>,std::allocator<std::pair<int const ,_MONSTER_HERD_DATA> >,0> >::_Emplace<std::pair<int,_MONSTER_HERD_DATA> >, COMDAT
; _this$ = ecx

; 1002 :     pair<_Nodeptr, bool> _Emplace(_Valtys&&... _Vals) {

  00000	55		 push	 ebp
  00001	8b ec		 mov	 ebp, esp
  00003	81 ec 80 00 00
	00		 sub	 esp, 128		; 00000080H
  00009	53		 push	 ebx
  0000a	56		 push	 esi
  0000b	57		 push	 edi
  0000c	89 4d fc	 mov	 DWORD PTR _this$[ebp], ecx

; 1003 :         using _In_place_key_extractor = typename _Traits::template _In_place_key_extractor<_Remove_cvref_t<_Valtys>...>;
; 1004 :         const auto _Scary             = _Get_scary();

  0000f	8b 4d fc	 mov	 ecx, DWORD PTR _this$[ebp]
  00012	e8 00 00 00 00	 call	 ?_Get_scary@?$_Tree@V?$_Tmap_traits@HU_MONSTER_HERD_DATA@@U?$less@H@std@@V?$allocator@U?$pair@$$CBHU_MONSTER_HERD_DATA@@@std@@@3@$0A@@std@@@std@@IAEPAV?$_Tree_val@U?$_Tree_simple_types@U?$pair@$$CBHU_MONSTER_HERD_DATA@@@std@@@std@@@2@XZ ; std::_Tree<std::_Tmap_traits<int,_MONSTER_HERD_DATA,std::less<int>,std::allocator<std::pair<int const ,_MONSTER_HERD_DATA> >,0> >::_Get_scary
  00017	89 45 f8	 mov	 DWORD PTR __Scary$[ebp], eax

; 1005 :         _Tree_find_result<_Nodeptr> _Loc;
; 1006 :         _Nodeptr _Inserted;
; 1007 :         if constexpr (!_Multi && _In_place_key_extractor::_Extractable) {
; 1008 :             const auto& _Keyval = _In_place_key_extractor::_Extract(_Vals...);

  0001a	8b 45 0c	 mov	 eax, DWORD PTR _<_Vals_0>$[ebp]
  0001d	50		 push	 eax
  0001e	e8 00 00 00 00	 call	 ?_Extract@?$_In_place_key_extract_map@HU?$pair@HU_MONSTER_HERD_DATA@@@std@@@std@@SAABHABU?$pair@HU_MONSTER_HERD_DATA@@@2@@Z ; std::_In_place_key_extract_map<int,std::pair<int,_MONSTER_HERD_DATA> >::_Extract
  00023	83 c4 04	 add	 esp, 4
  00026	89 45 e4	 mov	 DWORD PTR __Keyval$6[ebp], eax

; 1009 :             _Loc                = _Find_lower_bound(_Keyval);

  00029	8b 45 e4	 mov	 eax, DWORD PTR __Keyval$6[ebp]
  0002c	50		 push	 eax
  0002d	8d 4d 98	 lea	 ecx, DWORD PTR $T5[ebp]
  00030	51		 push	 ecx
  00031	8b 4d fc	 mov	 ecx, DWORD PTR _this$[ebp]
  00034	e8 00 00 00 00	 call	 ??$_Find_lower_bound@H@?$_Tree@V?$_Tmap_traits@HU_MONSTER_HERD_DATA@@U?$less@H@std@@V?$allocator@U?$pair@$$CBHU_MONSTER_HERD_DATA@@@std@@@3@$0A@@std@@@std@@IBE?AU?$_Tree_find_result@PAU?$_Tree_node@U?$pair@$$CBHU_MONSTER_HERD_DATA@@@std@@PAX@std@@@1@ABH@Z ; std::_Tree<std::_Tmap_traits<int,_MONSTER_HERD_DATA,std::less<int>,std::allocator<std::pair<int const ,_MONSTER_HERD_DATA> >,0> >::_Find_lower_bound<int>
  00039	8b 10		 mov	 edx, DWORD PTR [eax]
  0003b	89 55 ec	 mov	 DWORD PTR __Loc$[ebp], edx
  0003e	8b 48 04	 mov	 ecx, DWORD PTR [eax+4]
  00041	89 4d f0	 mov	 DWORD PTR __Loc$[ebp+4], ecx
  00044	8b 50 08	 mov	 edx, DWORD PTR [eax+8]
  00047	89 55 f4	 mov	 DWORD PTR __Loc$[ebp+8], edx

; 1010 :             if (_Lower_bound_duplicate(_Loc._Bound, _Keyval)) {

  0004a	8b 45 e4	 mov	 eax, DWORD PTR __Keyval$6[ebp]
  0004d	50		 push	 eax
  0004e	8b 4d f4	 mov	 ecx, DWORD PTR __Loc$[ebp+8]
  00051	51		 push	 ecx
  00052	8b 4d fc	 mov	 ecx, DWORD PTR _this$[ebp]
  00055	e8 00 00 00 00	 call	 ??$_Lower_bound_duplicate@H@?$_Tree@V?$_Tmap_traits@HU_MONSTER_HERD_DATA@@U?$less@H@std@@V?$allocator@U?$pair@$$CBHU_MONSTER_HERD_DATA@@@std@@@3@$0A@@std@@@std@@IBE_NQAU?$_Tree_node@U?$pair@$$CBHU_MONSTER_HERD_DATA@@@std@@PAX@1@ABH@Z ; std::_Tree<std::_Tmap_traits<int,_MONSTER_HERD_DATA,std::less<int>,std::allocator<std::pair<int const ,_MONSTER_HERD_DATA> >,0> >::_Lower_bound_duplicate<int>
  0005a	0f b6 d0	 movzx	 edx, al
  0005d	85 d2		 test	 edx, edx
  0005f	74 19		 je	 SHORT $LN2@Emplace

; 1011 :                 return {_Loc._Bound, false};

  00061	c6 45 97 00	 mov	 BYTE PTR $T4[ebp], 0
  00065	8d 45 97	 lea	 eax, DWORD PTR $T4[ebp]
  00068	50		 push	 eax
  00069	8d 4d f4	 lea	 ecx, DWORD PTR __Loc$[ebp+8]
  0006c	51		 push	 ecx
  0006d	8b 4d 08	 mov	 ecx, DWORD PTR ___$ReturnUdt$[ebp]
  00070	e8 00 00 00 00	 call	 ??$?0AAPAU?$_Tree_node@U?$pair@$$CBHU_MONSTER_HERD_DATA@@@std@@PAX@std@@_N$0A@@?$pair@PAU?$_Tree_node@U?$pair@$$CBHU_MONSTER_HERD_DATA@@@std@@PAX@std@@_N@std@@QAE@AAPAU?$_Tree_node@U?$pair@$$CBHU_MONSTER_HERD_DATA@@@std@@PAX@1@$$QA_N@Z ; std::pair<std::_Tree_node<std::pair<int const ,_MONSTER_HERD_DATA>,void *> *,bool>::pair<std::_Tree_node<std::pair<int const ,_MONSTER_HERD_DATA>,void *> *,bool><std::_Tree_node<std::pair<int const ,_MONSTER_HERD_DATA>,void *> * &,bool,0>
  00075	8b 45 08	 mov	 eax, DWORD PTR ___$ReturnUdt$[ebp]
  00078	eb 70		 jmp	 SHORT $LN1@Emplace
$LN2@Emplace:

; 1012 :             }
; 1013 : 
; 1014 :             _Check_grow_by_1();

  0007a	8b 4d fc	 mov	 ecx, DWORD PTR _this$[ebp]
  0007d	e8 00 00 00 00	 call	 ?_Check_grow_by_1@?$_Tree@V?$_Tmap_traits@HU_MONSTER_HERD_DATA@@U?$less@H@std@@V?$allocator@U?$pair@$$CBHU_MONSTER_HERD_DATA@@@std@@@3@$0A@@std@@@std@@IAEXXZ ; std::_Tree<std::_Tmap_traits<int,_MONSTER_HERD_DATA,std::less<int>,std::allocator<std::pair<int const ,_MONSTER_HERD_DATA> >,0> >::_Check_grow_by_1

; 1015 :             _Inserted = _Tree_temp_node<_Alnode>(_Getal(), _Scary->_Myhead, _STD forward<_Valtys>(_Vals)...)._Release();

  00082	8b 45 0c	 mov	 eax, DWORD PTR _<_Vals_0>$[ebp]
  00085	50		 push	 eax
  00086	e8 00 00 00 00	 call	 ??$forward@U?$pair@HU_MONSTER_HERD_DATA@@@std@@@std@@YA$$QAU?$pair@HU_MONSTER_HERD_DATA@@@0@AAU10@@Z ; std::forward<std::pair<int,_MONSTER_HERD_DATA> >
  0008b	83 c4 04	 add	 esp, 4
  0008e	50		 push	 eax
  0008f	8b 4d f8	 mov	 ecx, DWORD PTR __Scary$[ebp]
  00092	8b 11		 mov	 edx, DWORD PTR [ecx]
  00094	52		 push	 edx
  00095	8b 4d fc	 mov	 ecx, DWORD PTR _this$[ebp]
  00098	e8 00 00 00 00	 call	 ?_Getal@?$_Tree@V?$_Tmap_traits@HU_MONSTER_HERD_DATA@@U?$less@H@std@@V?$allocator@U?$pair@$$CBHU_MONSTER_HERD_DATA@@@std@@@3@$0A@@std@@@std@@IAEAAV?$allocator@U?$_Tree_node@U?$pair@$$CBHU_MONSTER_HERD_DATA@@@std@@PAX@std@@@2@XZ ; std::_Tree<std::_Tmap_traits<int,_MONSTER_HERD_DATA,std::less<int>,std::allocator<std::pair<int const ,_MONSTER_HERD_DATA> >,0> >::_Getal
  0009d	50		 push	 eax
  0009e	8d 4d 8c	 lea	 ecx, DWORD PTR $T3[ebp]
  000a1	e8 00 00 00 00	 call	 ??$?0U?$pair@HU_MONSTER_HERD_DATA@@@std@@@?$_Tree_temp_node@V?$allocator@U?$_Tree_node@U?$pair@$$CBHU_MONSTER_HERD_DATA@@@std@@PAX@std@@@std@@@std@@QAE@AAV?$allocator@U?$_Tree_node@U?$pair@$$CBHU_MONSTER_HERD_DATA@@@std@@PAX@std@@@1@PAU?$_Tree_node@U?$pair@$$CBHU_MONSTER_HERD_DATA@@@std@@PAX@1@$$QAU?$pair@HU_MONSTER_HERD_DATA@@@1@@Z ; std::_Tree_temp_node<std::allocator<std::_Tree_node<std::pair<int const ,_MONSTER_HERD_DATA>,void *> > >::_Tree_temp_node<std::allocator<std::_Tree_node<std::pair<int const ,_MONSTER_HERD_DATA>,void *> > ><std::pair<int,_MONSTER_HERD_DATA> >
  000a6	89 45 80	 mov	 DWORD PTR tv141[ebp], eax
  000a9	8b 4d 80	 mov	 ecx, DWORD PTR tv141[ebp]
  000ac	e8 00 00 00 00	 call	 ?_Release@?$_Alloc_construct_ptr@V?$allocator@U?$_Tree_node@U?$pair@$$CBHU_MONSTER_HERD_DATA@@@std@@PAX@std@@@std@@@std@@QAEPAU?$_Tree_node@U?$pair@$$CBHU_MONSTER_HERD_DATA@@@std@@PAX@2@XZ ; std::_Alloc_construct_ptr<std::allocator<std::_Tree_node<std::pair<int const ,_MONSTER_HERD_DATA>,void *> > >::_Release
  000b1	89 45 e8	 mov	 DWORD PTR __Inserted$[ebp], eax
  000b4	8d 4d 8c	 lea	 ecx, DWORD PTR $T3[ebp]
  000b7	e8 00 00 00 00	 call	 ??1?$_Tree_temp_node@V?$allocator@U?$_Tree_node@U?$pair@$$CBHU_MONSTER_HERD_DATA@@@std@@PAX@std@@@std@@@std@@QAE@XZ ; std::_Tree_temp_node<std::allocator<std::_Tree_node<std::pair<int const ,_MONSTER_HERD_DATA>,void *> > >::~_Tree_temp_node<std::allocator<std::_Tree_node<std::pair<int const ,_MONSTER_HERD_DATA>,void *> > >

; 1016 :             // nothrow hereafter
; 1017 :         } else {
; 1018 :             _Tree_temp_node<_Alnode> _Newnode(_Getal(), _Scary->_Myhead, _STD forward<_Valtys>(_Vals)...);
; 1019 :             const auto& _Keyval = _Traits::_Kfn(_Newnode._Ptr->_Myval);
; 1020 :             if constexpr (_Multi) { // duplicate check if unique
; 1021 :                 _Loc = _Find_upper_bound(_Keyval);
; 1022 :             } else {
; 1023 :                 _Loc = _Find_lower_bound(_Keyval);
; 1024 :                 if (_Lower_bound_duplicate(_Loc._Bound, _Keyval)) {
; 1025 :                     return {_Loc._Bound, false};
; 1026 :                 }
; 1027 :             }
; 1028 : 
; 1029 :             _Check_grow_by_1();
; 1030 :             // nothrow hereafter
; 1031 :             _Inserted = _Newnode._Release();
; 1032 :         }
; 1033 : 
; 1034 :         return {_Scary->_Insert_node(_Loc._Location, _Inserted), true};

  000bc	8b 45 e8	 mov	 eax, DWORD PTR __Inserted$[ebp]
  000bf	50		 push	 eax
  000c0	8b 4d f0	 mov	 ecx, DWORD PTR __Loc$[ebp+4]
  000c3	51		 push	 ecx
  000c4	8b 55 ec	 mov	 edx, DWORD PTR __Loc$[ebp]
  000c7	52		 push	 edx
  000c8	8b 4d f8	 mov	 ecx, DWORD PTR __Scary$[ebp]
  000cb	e8 00 00 00 00	 call	 ?_Insert_node@?$_Tree_val@U?$_Tree_simple_types@U?$pair@$$CBHU_MONSTER_HERD_DATA@@@std@@@std@@@std@@QAEPAU?$_Tree_node@U?$pair@$$CBHU_MONSTER_HERD_DATA@@@std@@PAX@2@U?$_Tree_id@PAU?$_Tree_node@U?$pair@$$CBHU_MONSTER_HERD_DATA@@@std@@PAX@std@@@2@QAU32@@Z ; std::_Tree_val<std::_Tree_simple_types<std::pair<int const ,_MONSTER_HERD_DATA> > >::_Insert_node
  000d0	89 45 84	 mov	 DWORD PTR $T1[ebp], eax
  000d3	c6 45 8b 01	 mov	 BYTE PTR $T2[ebp], 1
  000d7	8d 45 8b	 lea	 eax, DWORD PTR $T2[ebp]
  000da	50		 push	 eax
  000db	8d 4d 84	 lea	 ecx, DWORD PTR $T1[ebp]
  000de	51		 push	 ecx
  000df	8b 4d 08	 mov	 ecx, DWORD PTR ___$ReturnUdt$[ebp]
  000e2	e8 00 00 00 00	 call	 ??$?0PAU?$_Tree_node@U?$pair@$$CBHU_MONSTER_HERD_DATA@@@std@@PAX@std@@_N$0A@@?$pair@PAU?$_Tree_node@U?$pair@$$CBHU_MONSTER_HERD_DATA@@@std@@PAX@std@@_N@std@@QAE@$$QAPAU?$_Tree_node@U?$pair@$$CBHU_MONSTER_HERD_DATA@@@std@@PAX@1@$$QA_N@Z ; std::pair<std::_Tree_node<std::pair<int const ,_MONSTER_HERD_DATA>,void *> *,bool>::pair<std::_Tree_node<std::pair<int const ,_MONSTER_HERD_DATA>,void *> *,bool><std::_Tree_node<std::pair<int const ,_MONSTER_HERD_DATA>,void *> *,bool,0>
  000e7	8b 45 08	 mov	 eax, DWORD PTR ___$ReturnUdt$[ebp]
$LN1@Emplace:

; 1035 :     }

  000ea	5f		 pop	 edi
  000eb	5e		 pop	 esi
  000ec	5b		 pop	 ebx
  000ed	8b e5		 mov	 esp, ebp
  000ef	5d		 pop	 ebp
  000f0	c2 08 00	 ret	 8
??$_Emplace@U?$pair@HU_MONSTER_HERD_DATA@@@std@@@?$_Tree@V?$_Tmap_traits@HU_MONSTER_HERD_DATA@@U?$less@H@std@@V?$allocator@U?$pair@$$CBHU_MONSTER_HERD_DATA@@@std@@@3@$0A@@std@@@std@@IAE?AU?$pair@PAU?$_Tree_node@U?$pair@$$CBHU_MONSTER_HERD_DATA@@@std@@PAX@std@@_N@1@$$QAU?$pair@HU_MONSTER_HERD_DATA@@@1@@Z ENDP ; std::_Tree<std::_Tmap_traits<int,_MONSTER_HERD_DATA,std::less<int>,std::allocator<std::pair<int const ,_MONSTER_HERD_DATA> >,0> >::_Emplace<std::pair<int,_MONSTER_HERD_DATA> >
_TEXT	ENDS
; Function compile flags: /Odtp /ZI
; File C:\Program Files (x86)\Microsoft Visual Studio\2019\Community\VC\Tools\MSVC\14.27.29110\include\xmemory
;	COMDAT ??$_Get_size_of_n@$0CE@@std@@YAII@Z
_TEXT	SEGMENT
__Max_possible$1 = -8					; size = 4
__Overflow_is_possible$ = -1				; size = 1
__Count$ = 8						; size = 4
??$_Get_size_of_n@$0CE@@std@@YAII@Z PROC		; std::_Get_size_of_n<36>, COMDAT

; 55   : _NODISCARD constexpr size_t _Get_size_of_n(const size_t _Count) {

  00000	55		 push	 ebp
  00001	8b ec		 mov	 ebp, esp
  00003	83 ec 48	 sub	 esp, 72			; 00000048H
  00006	53		 push	 ebx
  00007	56		 push	 esi
  00008	57		 push	 edi

; 56   :     constexpr bool _Overflow_is_possible = _Ty_size > 1;

  00009	c6 45 ff 01	 mov	 BYTE PTR __Overflow_is_possible$[ebp], 1

; 57   : 
; 58   :     if _CONSTEXPR_IF (_Overflow_is_possible) {
; 59   :         constexpr size_t _Max_possible = static_cast<size_t>(-1) / _Ty_size;

  0000d	c7 45 f8 c7 71
	1c 07		 mov	 DWORD PTR __Max_possible$1[ebp], 119304647 ; 071c71c7H

; 60   :         if (_Count > _Max_possible) {

  00014	81 7d 08 c7 71
	1c 07		 cmp	 DWORD PTR __Count$[ebp], 119304647 ; 071c71c7H
  0001b	76 05		 jbe	 SHORT $LN2@Get_size_o

; 61   :             _Throw_bad_array_new_length(); // multiply overflow

  0001d	e8 00 00 00 00	 call	 ?_Throw_bad_array_new_length@std@@YAXXZ ; std::_Throw_bad_array_new_length
$LN2@Get_size_o:

; 62   :         }
; 63   :     }
; 64   : 
; 65   :     return _Count * _Ty_size;

  00022	6b 45 08 24	 imul	 eax, DWORD PTR __Count$[ebp], 36
$LN3@Get_size_o:

; 66   : }

  00026	5f		 pop	 edi
  00027	5e		 pop	 esi
  00028	5b		 pop	 ebx
  00029	8b e5		 mov	 esp, ebp
  0002b	5d		 pop	 ebp
  0002c	c3		 ret	 0
??$_Get_size_of_n@$0CE@@std@@YAII@Z ENDP		; std::_Get_size_of_n<36>
_TEXT	ENDS
; Function compile flags: /Odtp /ZI
; File C:\Program Files (x86)\Microsoft Visual Studio\2019\Community\VC\Tools\MSVC\14.27.29110\include\type_traits
;	COMDAT ??$move@AAD@std@@YA$$QADAAD@Z
_TEXT	SEGMENT
__Arg$ = 8						; size = 4
??$move@AAD@std@@YA$$QADAAD@Z PROC			; std::move<char &>, COMDAT

; 1466 : _NODISCARD constexpr remove_reference_t<_Ty>&& move(_Ty&& _Arg) noexcept { // forward _Arg as movable

  00000	55		 push	 ebp
  00001	8b ec		 mov	 ebp, esp
  00003	83 ec 40	 sub	 esp, 64			; 00000040H
  00006	53		 push	 ebx
  00007	56		 push	 esi
  00008	57		 push	 edi

; 1467 :     return static_cast<remove_reference_t<_Ty>&&>(_Arg);

  00009	8b 45 08	 mov	 eax, DWORD PTR __Arg$[ebp]

; 1468 : }

  0000c	5f		 pop	 edi
  0000d	5e		 pop	 esi
  0000e	5b		 pop	 ebx
  0000f	8b e5		 mov	 esp, ebp
  00011	5d		 pop	 ebp
  00012	c3		 ret	 0
??$move@AAD@std@@YA$$QADAAD@Z ENDP			; std::move<char &>
_TEXT	ENDS
; Function compile flags: /Odtp /ZI
; File C:\Program Files (x86)\Microsoft Visual Studio\2019\Community\VC\Tools\MSVC\14.27.29110\include\xmemory
;	COMDAT ??$destroy@U?$pair@$$CBHU_MONSTER_HERD_DATA@@@std@@@?$_Default_allocator_traits@V?$allocator@U?$_Tree_node@U?$pair@$$CBHU_MONSTER_HERD_DATA@@@std@@PAX@std@@@std@@@std@@SAXAAV?$allocator@U?$_Tree_node@U?$pair@$$CBHU_MONSTER_HERD_DATA@@@std@@PAX@std@@@1@QAU?$pair@$$CBHU_MONSTER_HERD_DATA@@@1@@Z
_TEXT	SEGMENT
___formal$ = 8						; size = 4
__Ptr$ = 12						; size = 4
??$destroy@U?$pair@$$CBHU_MONSTER_HERD_DATA@@@std@@@?$_Default_allocator_traits@V?$allocator@U?$_Tree_node@U?$pair@$$CBHU_MONSTER_HERD_DATA@@@std@@PAX@std@@@std@@@std@@SAXAAV?$allocator@U?$_Tree_node@U?$pair@$$CBHU_MONSTER_HERD_DATA@@@std@@PAX@std@@@1@QAU?$pair@$$CBHU_MONSTER_HERD_DATA@@@1@@Z PROC ; std::_Default_allocator_traits<std::allocator<std::_Tree_node<std::pair<int const ,_MONSTER_HERD_DATA>,void *> > >::destroy<std::pair<int const ,_MONSTER_HERD_DATA> >, COMDAT

; 698  :     static void destroy(_Alloc&, _Uty* const _Ptr) {

  00000	55		 push	 ebp
  00001	8b ec		 mov	 ebp, esp
  00003	83 ec 40	 sub	 esp, 64			; 00000040H
  00006	53		 push	 ebx
  00007	56		 push	 esi
  00008	57		 push	 edi

; 699  :         _Ptr->~_Uty();
; 700  :     }

  00009	5f		 pop	 edi
  0000a	5e		 pop	 esi
  0000b	5b		 pop	 ebx
  0000c	8b e5		 mov	 esp, ebp
  0000e	5d		 pop	 ebp
  0000f	c3		 ret	 0
??$destroy@U?$pair@$$CBHU_MONSTER_HERD_DATA@@@std@@@?$_Default_allocator_traits@V?$allocator@U?$_Tree_node@U?$pair@$$CBHU_MONSTER_HERD_DATA@@@std@@PAX@std@@@std@@@std@@SAXAAV?$allocator@U?$_Tree_node@U?$pair@$$CBHU_MONSTER_HERD_DATA@@@std@@PAX@std@@@1@QAU?$pair@$$CBHU_MONSTER_HERD_DATA@@@1@@Z ENDP ; std::_Default_allocator_traits<std::allocator<std::_Tree_node<std::pair<int const ,_MONSTER_HERD_DATA>,void *> > >::destroy<std::pair<int const ,_MONSTER_HERD_DATA> >
_TEXT	ENDS
; Function compile flags: /Odtp /ZI
; File C:\Program Files (x86)\Microsoft Visual Studio\2019\Community\VC\Tools\MSVC\14.27.29110\include\utility
;	COMDAT ??$exchange@PAU?$_Tree_node@U?$pair@$$CBHU_MONSTER_HERD_DATA@@@std@@PAX@std@@AAPAU12@@std@@YAPAU?$_Tree_node@U?$pair@$$CBHU_MONSTER_HERD_DATA@@@std@@PAX@0@AAPAU10@0@Z
_TEXT	SEGMENT
__Old_val$ = -4						; size = 4
__Val$ = 8						; size = 4
__New_val$ = 12						; size = 4
??$exchange@PAU?$_Tree_node@U?$pair@$$CBHU_MONSTER_HERD_DATA@@@std@@PAX@std@@AAPAU12@@std@@YAPAU?$_Tree_node@U?$pair@$$CBHU_MONSTER_HERD_DATA@@@std@@PAX@0@AAPAU10@0@Z PROC ; std::exchange<std::_Tree_node<std::pair<int const ,_MONSTER_HERD_DATA>,void *> *,std::_Tree_node<std::pair<int const ,_MONSTER_HERD_DATA>,void *> * &>, COMDAT

; 597  :     conjunction_v<is_nothrow_move_constructible<_Ty>, is_nothrow_assignable<_Ty&, _Other>>) /* strengthened */ {

  00000	55		 push	 ebp
  00001	8b ec		 mov	 ebp, esp
  00003	83 ec 44	 sub	 esp, 68			; 00000044H
  00006	53		 push	 ebx
  00007	56		 push	 esi
  00008	57		 push	 edi

; 598  :     // assign _New_val to _Val, return previous _Val
; 599  :     _Ty _Old_val = static_cast<_Ty&&>(_Val);

  00009	8b 45 08	 mov	 eax, DWORD PTR __Val$[ebp]
  0000c	8b 08		 mov	 ecx, DWORD PTR [eax]
  0000e	89 4d fc	 mov	 DWORD PTR __Old_val$[ebp], ecx

; 600  :     _Val         = static_cast<_Other&&>(_New_val);

  00011	8b 45 08	 mov	 eax, DWORD PTR __Val$[ebp]
  00014	8b 4d 0c	 mov	 ecx, DWORD PTR __New_val$[ebp]
  00017	8b 11		 mov	 edx, DWORD PTR [ecx]
  00019	89 10		 mov	 DWORD PTR [eax], edx

; 601  :     return _Old_val;

  0001b	8b 45 fc	 mov	 eax, DWORD PTR __Old_val$[ebp]

; 602  : }

  0001e	5f		 pop	 edi
  0001f	5e		 pop	 esi
  00020	5b		 pop	 ebx
  00021	8b e5		 mov	 esp, ebp
  00023	5d		 pop	 ebp
  00024	c3		 ret	 0
??$exchange@PAU?$_Tree_node@U?$pair@$$CBHU_MONSTER_HERD_DATA@@@std@@PAX@std@@AAPAU12@@std@@YAPAU?$_Tree_node@U?$pair@$$CBHU_MONSTER_HERD_DATA@@@std@@PAX@0@AAPAU10@0@Z ENDP ; std::exchange<std::_Tree_node<std::pair<int const ,_MONSTER_HERD_DATA>,void *> *,std::_Tree_node<std::pair<int const ,_MONSTER_HERD_DATA>,void *> * &>
_TEXT	ENDS
; Function compile flags: /Odtp /ZI
; File C:\Program Files (x86)\Microsoft Visual Studio\2019\Community\VC\Tools\MSVC\14.27.29110\include\xmemory
;	COMDAT ??$_Construct_in_place@PAU?$_Tree_node@U?$pair@$$CBHU_MONSTER_HERD_DATA@@@std@@PAX@std@@ABQAU12@@std@@YAXAAPAU?$_Tree_node@U?$pair@$$CBHU_MONSTER_HERD_DATA@@@std@@PAX@0@ABQAU10@@Z
_TEXT	SEGMENT
$T1 = -68						; size = 4
__Obj$ = 8						; size = 4
_<_Args_0>$ = 12					; size = 4
??$_Construct_in_place@PAU?$_Tree_node@U?$pair@$$CBHU_MONSTER_HERD_DATA@@@std@@PAX@std@@ABQAU12@@std@@YAXAAPAU?$_Tree_node@U?$pair@$$CBHU_MONSTER_HERD_DATA@@@std@@PAX@0@ABQAU10@@Z PROC ; std::_Construct_in_place<std::_Tree_node<std::pair<int const ,_MONSTER_HERD_DATA>,void *> *,std::_Tree_node<std::pair<int const ,_MONSTER_HERD_DATA>,void *> * const &>, COMDAT

; 228  : void _Construct_in_place(_Ty& _Obj, _Types&&... _Args) noexcept(is_nothrow_constructible_v<_Ty, _Types...>) {

  00000	55		 push	 ebp
  00001	8b ec		 mov	 ebp, esp
  00003	83 ec 44	 sub	 esp, 68			; 00000044H
  00006	53		 push	 ebx
  00007	56		 push	 esi
  00008	57		 push	 edi

; 229  :     ::new (const_cast<void*>(static_cast<const volatile void*>(_STD addressof(_Obj))))

  00009	8b 45 08	 mov	 eax, DWORD PTR __Obj$[ebp]
  0000c	50		 push	 eax
  0000d	e8 00 00 00 00	 call	 ??$addressof@PAU?$_Tree_node@U?$pair@$$CBHU_MONSTER_HERD_DATA@@@std@@PAX@std@@@std@@YAPAPAU?$_Tree_node@U?$pair@$$CBHU_MONSTER_HERD_DATA@@@std@@PAX@0@AAPAU10@@Z ; std::addressof<std::_Tree_node<std::pair<int const ,_MONSTER_HERD_DATA>,void *> *>
  00012	83 c4 04	 add	 esp, 4
  00015	50		 push	 eax
  00016	6a 04		 push	 4
  00018	e8 00 00 00 00	 call	 ??2@YAPAXIPAX@Z		; operator new
  0001d	83 c4 08	 add	 esp, 8
  00020	89 45 bc	 mov	 DWORD PTR $T1[ebp], eax
  00023	8b 4d 0c	 mov	 ecx, DWORD PTR _<_Args_0>$[ebp]
  00026	51		 push	 ecx
  00027	e8 00 00 00 00	 call	 ??$forward@ABQAU?$_Tree_node@U?$pair@$$CBHU_MONSTER_HERD_DATA@@@std@@PAX@std@@@std@@YAABQAU?$_Tree_node@U?$pair@$$CBHU_MONSTER_HERD_DATA@@@std@@PAX@0@ABQAU10@@Z ; std::forward<std::_Tree_node<std::pair<int const ,_MONSTER_HERD_DATA>,void *> * const &>
  0002c	83 c4 04	 add	 esp, 4
  0002f	8b 55 bc	 mov	 edx, DWORD PTR $T1[ebp]
  00032	8b 00		 mov	 eax, DWORD PTR [eax]
  00034	89 02		 mov	 DWORD PTR [edx], eax

; 230  :         _Ty(_STD forward<_Types>(_Args)...);
; 231  : }

  00036	5f		 pop	 edi
  00037	5e		 pop	 esi
  00038	5b		 pop	 ebx
  00039	8b e5		 mov	 esp, ebp
  0003b	5d		 pop	 ebp
  0003c	c3		 ret	 0
??$_Construct_in_place@PAU?$_Tree_node@U?$pair@$$CBHU_MONSTER_HERD_DATA@@@std@@PAX@std@@ABQAU12@@std@@YAXAAPAU?$_Tree_node@U?$pair@$$CBHU_MONSTER_HERD_DATA@@@std@@PAX@0@ABQAU10@@Z ENDP ; std::_Construct_in_place<std::_Tree_node<std::pair<int const ,_MONSTER_HERD_DATA>,void *> *,std::_Tree_node<std::pair<int const ,_MONSTER_HERD_DATA>,void *> * const &>
_TEXT	ENDS
; Function compile flags: /Odtp /ZI
; File C:\Program Files (x86)\Microsoft Visual Studio\2019\Community\VC\Tools\MSVC\14.27.29110\include\type_traits
;	COMDAT ??$forward@U_Zero_then_variadic_args_t@std@@@std@@YA$$QAU_Zero_then_variadic_args_t@0@AAU10@@Z
_TEXT	SEGMENT
__Arg$ = 8						; size = 4
??$forward@U_Zero_then_variadic_args_t@std@@@std@@YA$$QAU_Zero_then_variadic_args_t@0@AAU10@@Z PROC ; std::forward<std::_Zero_then_variadic_args_t>, COMDAT

; 1454 :     remove_reference_t<_Ty>& _Arg) noexcept { // forward an lvalue as either an lvalue or an rvalue

  00000	55		 push	 ebp
  00001	8b ec		 mov	 ebp, esp
  00003	83 ec 40	 sub	 esp, 64			; 00000040H
  00006	53		 push	 ebx
  00007	56		 push	 esi
  00008	57		 push	 edi

; 1455 :     return static_cast<_Ty&&>(_Arg);

  00009	8b 45 08	 mov	 eax, DWORD PTR __Arg$[ebp]

; 1456 : }

  0000c	5f		 pop	 edi
  0000d	5e		 pop	 esi
  0000e	5b		 pop	 ebx
  0000f	8b e5		 mov	 esp, ebp
  00011	5d		 pop	 ebp
  00012	c3		 ret	 0
??$forward@U_Zero_then_variadic_args_t@std@@@std@@YA$$QAU_Zero_then_variadic_args_t@0@AAU10@@Z ENDP ; std::forward<std::_Zero_then_variadic_args_t>
_TEXT	ENDS
; Function compile flags: /Odtp /ZI
; File C:\Program Files (x86)\Microsoft Visual Studio\2019\Community\VC\Tools\MSVC\14.27.29110\include\type_traits
;	COMDAT ??$forward@ABU?$less@H@std@@@std@@YAABU?$less@H@0@ABU10@@Z
_TEXT	SEGMENT
__Arg$ = 8						; size = 4
??$forward@ABU?$less@H@std@@@std@@YAABU?$less@H@0@ABU10@@Z PROC ; std::forward<std::less<int> const &>, COMDAT

; 1454 :     remove_reference_t<_Ty>& _Arg) noexcept { // forward an lvalue as either an lvalue or an rvalue

  00000	55		 push	 ebp
  00001	8b ec		 mov	 ebp, esp
  00003	83 ec 40	 sub	 esp, 64			; 00000040H
  00006	53		 push	 ebx
  00007	56		 push	 esi
  00008	57		 push	 edi

; 1455 :     return static_cast<_Ty&&>(_Arg);

  00009	8b 45 08	 mov	 eax, DWORD PTR __Arg$[ebp]

; 1456 : }

  0000c	5f		 pop	 edi
  0000d	5e		 pop	 esi
  0000e	5b		 pop	 ebx
  0000f	8b e5		 mov	 esp, ebp
  00011	5d		 pop	 ebp
  00012	c3		 ret	 0
??$forward@ABU?$less@H@std@@@std@@YAABU?$less@H@0@ABU10@@Z ENDP ; std::forward<std::less<int> const &>
_TEXT	ENDS
; Function compile flags: /Odtp /ZI
; File C:\Program Files (x86)\Microsoft Visual Studio\2019\Community\VC\Tools\MSVC\14.27.29110\include\xtree
;	COMDAT ??$_Freenode0@V?$allocator@U?$_Tree_node@U?$pair@$$CBHU_MONSTER_HERD_DATA@@@std@@PAX@std@@@std@@@?$_Tree_node@U?$pair@$$CBHU_MONSTER_HERD_DATA@@@std@@PAX@std@@SAXAAV?$allocator@U?$_Tree_node@U?$pair@$$CBHU_MONSTER_HERD_DATA@@@std@@PAX@std@@@1@PAU01@@Z
_TEXT	SEGMENT
__$EHRec$ = -12						; size = 12
__Al$ = 8						; size = 4
__Ptr$ = 12						; size = 4
??$_Freenode0@V?$allocator@U?$_Tree_node@U?$pair@$$CBHU_MONSTER_HERD_DATA@@@std@@PAX@std@@@std@@@?$_Tree_node@U?$pair@$$CBHU_MONSTER_HERD_DATA@@@std@@PAX@std@@SAXAAV?$allocator@U?$_Tree_node@U?$pair@$$CBHU_MONSTER_HERD_DATA@@@std@@PAX@std@@@1@PAU01@@Z PROC ; std::_Tree_node<std::pair<int const ,_MONSTER_HERD_DATA>,void *>::_Freenode0<std::allocator<std::_Tree_node<std::pair<int const ,_MONSTER_HERD_DATA>,void *> > >, COMDAT

; 368  :     static void _Freenode0(_Alloc& _Al, _Nodeptr _Ptr) noexcept {

  00000	55		 push	 ebp
  00001	8b ec		 mov	 ebp, esp
  00003	6a ff		 push	 -1
  00005	68 00 00 00 00	 push	 __ehhandler$??$_Freenode0@V?$allocator@U?$_Tree_node@U?$pair@$$CBHU_MONSTER_HERD_DATA@@@std@@PAX@std@@@std@@@?$_Tree_node@U?$pair@$$CBHU_MONSTER_HERD_DATA@@@std@@PAX@std@@SAXAAV?$allocator@U?$_Tree_node@U?$pair@$$CBHU_MONSTER_HERD_DATA@@@std@@PAX@std@@@1@PAU01@@Z
  0000a	64 a1 00 00 00
	00		 mov	 eax, DWORD PTR fs:0
  00010	50		 push	 eax
  00011	83 ec 40	 sub	 esp, 64			; 00000040H
  00014	53		 push	 ebx
  00015	56		 push	 esi
  00016	57		 push	 edi
  00017	a1 00 00 00 00	 mov	 eax, DWORD PTR ___security_cookie
  0001c	33 c5		 xor	 eax, ebp
  0001e	50		 push	 eax
  0001f	8d 45 f4	 lea	 eax, DWORD PTR __$EHRec$[ebp]
  00022	64 a3 00 00 00
	00		 mov	 DWORD PTR fs:0, eax

; 369  :         static_assert(is_same_v<typename _Alloc::value_type, _Tree_node>, "Bad _Freenode0 call");
; 370  :         _Destroy_in_place(_Ptr->_Left);

  00028	8b 45 0c	 mov	 eax, DWORD PTR __Ptr$[ebp]
  0002b	50		 push	 eax
  0002c	e8 00 00 00 00	 call	 ??$_Destroy_in_place@PAU?$_Tree_node@U?$pair@$$CBHU_MONSTER_HERD_DATA@@@std@@PAX@std@@@std@@YAXAAPAU?$_Tree_node@U?$pair@$$CBHU_MONSTER_HERD_DATA@@@std@@PAX@0@@Z ; std::_Destroy_in_place<std::_Tree_node<std::pair<int const ,_MONSTER_HERD_DATA>,void *> *>
  00031	83 c4 04	 add	 esp, 4

; 371  :         _Destroy_in_place(_Ptr->_Parent);

  00034	8b 45 0c	 mov	 eax, DWORD PTR __Ptr$[ebp]
  00037	83 c0 04	 add	 eax, 4
  0003a	50		 push	 eax
  0003b	e8 00 00 00 00	 call	 ??$_Destroy_in_place@PAU?$_Tree_node@U?$pair@$$CBHU_MONSTER_HERD_DATA@@@std@@PAX@std@@@std@@YAXAAPAU?$_Tree_node@U?$pair@$$CBHU_MONSTER_HERD_DATA@@@std@@PAX@0@@Z ; std::_Destroy_in_place<std::_Tree_node<std::pair<int const ,_MONSTER_HERD_DATA>,void *> *>
  00040	83 c4 04	 add	 esp, 4

; 372  :         _Destroy_in_place(_Ptr->_Right);

  00043	8b 45 0c	 mov	 eax, DWORD PTR __Ptr$[ebp]
  00046	83 c0 08	 add	 eax, 8
  00049	50		 push	 eax
  0004a	e8 00 00 00 00	 call	 ??$_Destroy_in_place@PAU?$_Tree_node@U?$pair@$$CBHU_MONSTER_HERD_DATA@@@std@@PAX@std@@@std@@YAXAAPAU?$_Tree_node@U?$pair@$$CBHU_MONSTER_HERD_DATA@@@std@@PAX@0@@Z ; std::_Destroy_in_place<std::_Tree_node<std::pair<int const ,_MONSTER_HERD_DATA>,void *> *>
  0004f	83 c4 04	 add	 esp, 4

; 373  :         allocator_traits<_Alloc>::deallocate(_Al, _Ptr, 1);

  00052	6a 01		 push	 1
  00054	8b 45 0c	 mov	 eax, DWORD PTR __Ptr$[ebp]
  00057	50		 push	 eax
  00058	8b 4d 08	 mov	 ecx, DWORD PTR __Al$[ebp]
  0005b	51		 push	 ecx
  0005c	e8 00 00 00 00	 call	 ?deallocate@?$_Default_allocator_traits@V?$allocator@U?$_Tree_node@U?$pair@$$CBHU_MONSTER_HERD_DATA@@@std@@PAX@std@@@std@@@std@@SAXAAV?$allocator@U?$_Tree_node@U?$pair@$$CBHU_MONSTER_HERD_DATA@@@std@@PAX@std@@@2@QAU?$_Tree_node@U?$pair@$$CBHU_MONSTER_HERD_DATA@@@std@@PAX@2@I@Z ; std::_Default_allocator_traits<std::allocator<std::_Tree_node<std::pair<int const ,_MONSTER_HERD_DATA>,void *> > >::deallocate
  00061	83 c4 0c	 add	 esp, 12			; 0000000cH

; 374  :     }

  00064	8b 4d f4	 mov	 ecx, DWORD PTR __$EHRec$[ebp]
  00067	64 89 0d 00 00
	00 00		 mov	 DWORD PTR fs:0, ecx
  0006e	59		 pop	 ecx
  0006f	5f		 pop	 edi
  00070	5e		 pop	 esi
  00071	5b		 pop	 ebx
  00072	8b e5		 mov	 esp, ebp
  00074	5d		 pop	 ebp
  00075	c3		 ret	 0
  00076	cc		 int	 3
  00077	cc		 int	 3
  00078	cc		 int	 3
  00079	cc		 int	 3
  0007a	cc		 int	 3
_TEXT	ENDS
;	COMDAT text$x
text$x	SEGMENT
__ehhandler$??$_Freenode0@V?$allocator@U?$_Tree_node@U?$pair@$$CBHU_MONSTER_HERD_DATA@@@std@@PAX@std@@@std@@@?$_Tree_node@U?$pair@$$CBHU_MONSTER_HERD_DATA@@@std@@PAX@std@@SAXAAV?$allocator@U?$_Tree_node@U?$pair@$$CBHU_MONSTER_HERD_DATA@@@std@@PAX@std@@@1@PAU01@@Z:
  00000	90		 npad	 1
  00001	90		 npad	 1
  00002	8b 54 24 08	 mov	 edx, DWORD PTR [esp+8]
  00006	8d 42 0c	 lea	 eax, DWORD PTR [edx+12]
  00009	8b 4a b0	 mov	 ecx, DWORD PTR [edx-80]
  0000c	33 c8		 xor	 ecx, eax
  0000e	e8 00 00 00 00	 call	 @__security_check_cookie@4
  00013	b8 00 00 00 00	 mov	 eax, OFFSET __ehfuncinfo$??$_Freenode0@V?$allocator@U?$_Tree_node@U?$pair@$$CBHU_MONSTER_HERD_DATA@@@std@@PAX@std@@@std@@@?$_Tree_node@U?$pair@$$CBHU_MONSTER_HERD_DATA@@@std@@PAX@std@@SAXAAV?$allocator@U?$_Tree_node@U?$pair@$$CBHU_MONSTER_HERD_DATA@@@std@@PAX@std@@@1@PAU01@@Z
  00018	e9 00 00 00 00	 jmp	 ___CxxFrameHandler3
text$x	ENDS
??$_Freenode0@V?$allocator@U?$_Tree_node@U?$pair@$$CBHU_MONSTER_HERD_DATA@@@std@@PAX@std@@@std@@@?$_Tree_node@U?$pair@$$CBHU_MONSTER_HERD_DATA@@@std@@PAX@std@@SAXAAV?$allocator@U?$_Tree_node@U?$pair@$$CBHU_MONSTER_HERD_DATA@@@std@@PAX@std@@@1@PAU01@@Z ENDP ; std::_Tree_node<std::pair<int const ,_MONSTER_HERD_DATA>,void *>::_Freenode0<std::allocator<std::_Tree_node<std::pair<int const ,_MONSTER_HERD_DATA>,void *> > >
; Function compile flags: /Odtp /ZI
; File C:\Program Files (x86)\Microsoft Visual Studio\2019\Community\VC\Tools\MSVC\14.27.29110\include\xtree
;	COMDAT ??$_Lower_bound_duplicate@H@?$_Tree@V?$_Tmap_traits@HU_MONSTER_HERD_DATA@@U?$less@H@std@@V?$allocator@U?$pair@$$CBHU_MONSTER_HERD_DATA@@@std@@@3@$0A@@std@@@std@@IBE_NQAU?$_Tree_node@U?$pair@$$CBHU_MONSTER_HERD_DATA@@@std@@PAX@1@ABH@Z
_TEXT	SEGMENT
tv78 = -72						; size = 4
_this$ = -4						; size = 4
__Bound$ = 8						; size = 4
__Keyval$ = 12						; size = 4
??$_Lower_bound_duplicate@H@?$_Tree@V?$_Tmap_traits@HU_MONSTER_HERD_DATA@@U?$less@H@std@@V?$allocator@U?$pair@$$CBHU_MONSTER_HERD_DATA@@@std@@@3@$0A@@std@@@std@@IBE_NQAU?$_Tree_node@U?$pair@$$CBHU_MONSTER_HERD_DATA@@@std@@PAX@1@ABH@Z PROC ; std::_Tree<std::_Tmap_traits<int,_MONSTER_HERD_DATA,std::less<int>,std::allocator<std::pair<int const ,_MONSTER_HERD_DATA> >,0> >::_Lower_bound_duplicate<int>, COMDAT
; _this$ = ecx

; 1694 :     bool _Lower_bound_duplicate(const _Nodeptr _Bound, const _Keyty& _Keyval) const {

  00000	55		 push	 ebp
  00001	8b ec		 mov	 ebp, esp
  00003	83 ec 48	 sub	 esp, 72			; 00000048H
  00006	53		 push	 ebx
  00007	56		 push	 esi
  00008	57		 push	 edi
  00009	89 4d fc	 mov	 DWORD PTR _this$[ebp], ecx

; 1695 :         return !_Bound->_Isnil && !_DEBUG_LT_PRED(_Getcomp(), _Keyval, _Traits::_Kfn(_Bound->_Myval));

  0000c	8b 45 08	 mov	 eax, DWORD PTR __Bound$[ebp]
  0000f	0f be 48 0d	 movsx	 ecx, BYTE PTR [eax+13]
  00013	85 c9		 test	 ecx, ecx
  00015	75 33		 jne	 SHORT $LN3@Lower_boun
  00017	8b 55 08	 mov	 edx, DWORD PTR __Bound$[ebp]
  0001a	83 c2 10	 add	 edx, 16			; 00000010H
  0001d	52		 push	 edx
  0001e	e8 00 00 00 00	 call	 ??$_Kfn@$$CBHU_MONSTER_HERD_DATA@@@?$_Tmap_traits@HU_MONSTER_HERD_DATA@@U?$less@H@std@@V?$allocator@U?$pair@$$CBHU_MONSTER_HERD_DATA@@@std@@@3@$0A@@std@@SAABHABU?$pair@$$CBHU_MONSTER_HERD_DATA@@@1@@Z ; std::_Tmap_traits<int,_MONSTER_HERD_DATA,std::less<int>,std::allocator<std::pair<int const ,_MONSTER_HERD_DATA> >,0>::_Kfn<int const ,_MONSTER_HERD_DATA>
  00023	83 c4 04	 add	 esp, 4
  00026	50		 push	 eax
  00027	8b 45 0c	 mov	 eax, DWORD PTR __Keyval$[ebp]
  0002a	50		 push	 eax
  0002b	8b 4d fc	 mov	 ecx, DWORD PTR _this$[ebp]
  0002e	e8 00 00 00 00	 call	 ?_Getcomp@?$_Tree@V?$_Tmap_traits@HU_MONSTER_HERD_DATA@@U?$less@H@std@@V?$allocator@U?$pair@$$CBHU_MONSTER_HERD_DATA@@@std@@@3@$0A@@std@@@std@@IBEABU?$less@H@2@XZ ; std::_Tree<std::_Tmap_traits<int,_MONSTER_HERD_DATA,std::less<int>,std::allocator<std::pair<int const ,_MONSTER_HERD_DATA> >,0> >::_Getcomp
  00033	8b c8		 mov	 ecx, eax
  00035	e8 00 00 00 00	 call	 ??R?$less@H@std@@QBE_NABH0@Z ; std::less<int>::operator()
  0003a	0f b6 c8	 movzx	 ecx, al
  0003d	85 c9		 test	 ecx, ecx
  0003f	75 09		 jne	 SHORT $LN3@Lower_boun
  00041	c7 45 b8 01 00
	00 00		 mov	 DWORD PTR tv78[ebp], 1
  00048	eb 07		 jmp	 SHORT $LN4@Lower_boun
$LN3@Lower_boun:
  0004a	c7 45 b8 00 00
	00 00		 mov	 DWORD PTR tv78[ebp], 0
$LN4@Lower_boun:
  00051	8a 45 b8	 mov	 al, BYTE PTR tv78[ebp]

; 1696 :     }

  00054	5f		 pop	 edi
  00055	5e		 pop	 esi
  00056	5b		 pop	 ebx
  00057	8b e5		 mov	 esp, ebp
  00059	5d		 pop	 ebp
  0005a	c2 08 00	 ret	 8
??$_Lower_bound_duplicate@H@?$_Tree@V?$_Tmap_traits@HU_MONSTER_HERD_DATA@@U?$less@H@std@@V?$allocator@U?$pair@$$CBHU_MONSTER_HERD_DATA@@@std@@@3@$0A@@std@@@std@@IBE_NQAU?$_Tree_node@U?$pair@$$CBHU_MONSTER_HERD_DATA@@@std@@PAX@1@ABH@Z ENDP ; std::_Tree<std::_Tmap_traits<int,_MONSTER_HERD_DATA,std::less<int>,std::allocator<std::pair<int const ,_MONSTER_HERD_DATA> >,0> >::_Lower_bound_duplicate<int>
_TEXT	ENDS
; Function compile flags: /Odtp /ZI
; File C:\Program Files (x86)\Microsoft Visual Studio\2019\Community\VC\Tools\MSVC\14.27.29110\include\xtree
;	COMDAT ??$_Find_lower_bound@H@?$_Tree@V?$_Tmap_traits@HU_MONSTER_HERD_DATA@@U?$less@H@std@@V?$allocator@U?$pair@$$CBHU_MONSTER_HERD_DATA@@@std@@@3@$0A@@std@@@std@@IBE?AU?$_Tree_find_result@PAU?$_Tree_node@U?$pair@$$CBHU_MONSTER_HERD_DATA@@@std@@PAX@std@@@1@ABH@Z
_TEXT	SEGMENT
__Trynode$ = -24					; size = 4
__Result$ = -20						; size = 12
__Scary$ = -8						; size = 4
_this$ = -4						; size = 4
___$ReturnUdt$ = 8					; size = 4
__Keyval$ = 12						; size = 4
??$_Find_lower_bound@H@?$_Tree@V?$_Tmap_traits@HU_MONSTER_HERD_DATA@@U?$less@H@std@@V?$allocator@U?$pair@$$CBHU_MONSTER_HERD_DATA@@@std@@@3@$0A@@std@@@std@@IBE?AU?$_Tree_find_result@PAU?$_Tree_node@U?$pair@$$CBHU_MONSTER_HERD_DATA@@@std@@PAX@std@@@1@ABH@Z PROC ; std::_Tree<std::_Tmap_traits<int,_MONSTER_HERD_DATA,std::less<int>,std::allocator<std::pair<int const ,_MONSTER_HERD_DATA> >,0> >::_Find_lower_bound<int>, COMDAT
; _this$ = ecx

; 1699 :     _Tree_find_result<_Nodeptr> _Find_lower_bound(const _Keyty& _Keyval) const {

  00000	55		 push	 ebp
  00001	8b ec		 mov	 ebp, esp
  00003	83 ec 58	 sub	 esp, 88			; 00000058H
  00006	53		 push	 ebx
  00007	56		 push	 esi
  00008	57		 push	 edi
  00009	89 4d fc	 mov	 DWORD PTR _this$[ebp], ecx

; 1700 :         const auto _Scary = _Get_scary();

  0000c	8b 4d fc	 mov	 ecx, DWORD PTR _this$[ebp]
  0000f	e8 00 00 00 00	 call	 ?_Get_scary@?$_Tree@V?$_Tmap_traits@HU_MONSTER_HERD_DATA@@U?$less@H@std@@V?$allocator@U?$pair@$$CBHU_MONSTER_HERD_DATA@@@std@@@3@$0A@@std@@@std@@IBEPBV?$_Tree_val@U?$_Tree_simple_types@U?$pair@$$CBHU_MONSTER_HERD_DATA@@@std@@@std@@@2@XZ ; std::_Tree<std::_Tmap_traits<int,_MONSTER_HERD_DATA,std::less<int>,std::allocator<std::pair<int const ,_MONSTER_HERD_DATA> >,0> >::_Get_scary
  00014	89 45 f8	 mov	 DWORD PTR __Scary$[ebp], eax

; 1701 :         _Tree_find_result<_Nodeptr> _Result{{_Scary->_Myhead->_Parent, _Tree_child::_Right}, _Scary->_Myhead};

  00017	8b 45 f8	 mov	 eax, DWORD PTR __Scary$[ebp]
  0001a	8b 08		 mov	 ecx, DWORD PTR [eax]
  0001c	8b 51 04	 mov	 edx, DWORD PTR [ecx+4]
  0001f	89 55 ec	 mov	 DWORD PTR __Result$[ebp], edx
  00022	c7 45 f0 00 00
	00 00		 mov	 DWORD PTR __Result$[ebp+4], 0
  00029	8b 45 f8	 mov	 eax, DWORD PTR __Scary$[ebp]
  0002c	8b 08		 mov	 ecx, DWORD PTR [eax]
  0002e	89 4d f4	 mov	 DWORD PTR __Result$[ebp+8], ecx

; 1702 :         _Nodeptr _Trynode = _Result._Location._Parent;

  00031	8b 45 ec	 mov	 eax, DWORD PTR __Result$[ebp]
  00034	89 45 e8	 mov	 DWORD PTR __Trynode$[ebp], eax
$LN2@Find_lower:

; 1703 :         while (!_Trynode->_Isnil) {

  00037	8b 45 e8	 mov	 eax, DWORD PTR __Trynode$[ebp]
  0003a	0f be 48 0d	 movsx	 ecx, BYTE PTR [eax+13]
  0003e	85 c9		 test	 ecx, ecx
  00040	75 59		 jne	 SHORT $LN3@Find_lower

; 1704 :             _Result._Location._Parent = _Trynode;

  00042	8b 45 e8	 mov	 eax, DWORD PTR __Trynode$[ebp]
  00045	89 45 ec	 mov	 DWORD PTR __Result$[ebp], eax

; 1705 :             if (_DEBUG_LT_PRED(_Getcomp(), _Traits::_Kfn(_Trynode->_Myval), _Keyval)) {

  00048	8b 45 0c	 mov	 eax, DWORD PTR __Keyval$[ebp]
  0004b	50		 push	 eax
  0004c	8b 4d e8	 mov	 ecx, DWORD PTR __Trynode$[ebp]
  0004f	83 c1 10	 add	 ecx, 16			; 00000010H
  00052	51		 push	 ecx
  00053	e8 00 00 00 00	 call	 ??$_Kfn@$$CBHU_MONSTER_HERD_DATA@@@?$_Tmap_traits@HU_MONSTER_HERD_DATA@@U?$less@H@std@@V?$allocator@U?$pair@$$CBHU_MONSTER_HERD_DATA@@@std@@@3@$0A@@std@@SAABHABU?$pair@$$CBHU_MONSTER_HERD_DATA@@@1@@Z ; std::_Tmap_traits<int,_MONSTER_HERD_DATA,std::less<int>,std::allocator<std::pair<int const ,_MONSTER_HERD_DATA> >,0>::_Kfn<int const ,_MONSTER_HERD_DATA>
  00058	83 c4 04	 add	 esp, 4
  0005b	50		 push	 eax
  0005c	8b 4d fc	 mov	 ecx, DWORD PTR _this$[ebp]
  0005f	e8 00 00 00 00	 call	 ?_Getcomp@?$_Tree@V?$_Tmap_traits@HU_MONSTER_HERD_DATA@@U?$less@H@std@@V?$allocator@U?$pair@$$CBHU_MONSTER_HERD_DATA@@@std@@@3@$0A@@std@@@std@@IBEABU?$less@H@2@XZ ; std::_Tree<std::_Tmap_traits<int,_MONSTER_HERD_DATA,std::less<int>,std::allocator<std::pair<int const ,_MONSTER_HERD_DATA> >,0> >::_Getcomp
  00064	8b c8		 mov	 ecx, eax
  00066	e8 00 00 00 00	 call	 ??R?$less@H@std@@QBE_NABH0@Z ; std::less<int>::operator()
  0006b	0f b6 d0	 movzx	 edx, al
  0006e	85 d2		 test	 edx, edx
  00070	74 12		 je	 SHORT $LN4@Find_lower

; 1706 :                 _Result._Location._Child = _Tree_child::_Right;

  00072	c7 45 f0 00 00
	00 00		 mov	 DWORD PTR __Result$[ebp+4], 0

; 1707 :                 _Trynode                 = _Trynode->_Right;

  00079	8b 45 e8	 mov	 eax, DWORD PTR __Trynode$[ebp]
  0007c	8b 48 08	 mov	 ecx, DWORD PTR [eax+8]
  0007f	89 4d e8	 mov	 DWORD PTR __Trynode$[ebp], ecx

; 1708 :             } else {

  00082	eb 15		 jmp	 SHORT $LN5@Find_lower
$LN4@Find_lower:

; 1709 :                 _Result._Location._Child = _Tree_child::_Left;

  00084	c7 45 f0 01 00
	00 00		 mov	 DWORD PTR __Result$[ebp+4], 1

; 1710 :                 _Result._Bound           = _Trynode;

  0008b	8b 45 e8	 mov	 eax, DWORD PTR __Trynode$[ebp]
  0008e	89 45 f4	 mov	 DWORD PTR __Result$[ebp+8], eax

; 1711 :                 _Trynode                 = _Trynode->_Left;

  00091	8b 45 e8	 mov	 eax, DWORD PTR __Trynode$[ebp]
  00094	8b 08		 mov	 ecx, DWORD PTR [eax]
  00096	89 4d e8	 mov	 DWORD PTR __Trynode$[ebp], ecx
$LN5@Find_lower:

; 1712 :             }
; 1713 :         }

  00099	eb 9c		 jmp	 SHORT $LN2@Find_lower
$LN3@Find_lower:

; 1714 : 
; 1715 :         return _Result;

  0009b	8b 45 08	 mov	 eax, DWORD PTR ___$ReturnUdt$[ebp]
  0009e	8b 4d ec	 mov	 ecx, DWORD PTR __Result$[ebp]
  000a1	89 08		 mov	 DWORD PTR [eax], ecx
  000a3	8b 55 f0	 mov	 edx, DWORD PTR __Result$[ebp+4]
  000a6	89 50 04	 mov	 DWORD PTR [eax+4], edx
  000a9	8b 4d f4	 mov	 ecx, DWORD PTR __Result$[ebp+8]
  000ac	89 48 08	 mov	 DWORD PTR [eax+8], ecx
  000af	8b 45 08	 mov	 eax, DWORD PTR ___$ReturnUdt$[ebp]

; 1716 :     }

  000b2	5f		 pop	 edi
  000b3	5e		 pop	 esi
  000b4	5b		 pop	 ebx
  000b5	8b e5		 mov	 esp, ebp
  000b7	5d		 pop	 ebp
  000b8	c2 08 00	 ret	 8
??$_Find_lower_bound@H@?$_Tree@V?$_Tmap_traits@HU_MONSTER_HERD_DATA@@U?$less@H@std@@V?$allocator@U?$pair@$$CBHU_MONSTER_HERD_DATA@@@std@@@3@$0A@@std@@@std@@IBE?AU?$_Tree_find_result@PAU?$_Tree_node@U?$pair@$$CBHU_MONSTER_HERD_DATA@@@std@@PAX@std@@@1@ABH@Z ENDP ; std::_Tree<std::_Tmap_traits<int,_MONSTER_HERD_DATA,std::less<int>,std::allocator<std::pair<int const ,_MONSTER_HERD_DATA> >,0> >::_Find_lower_bound<int>
_TEXT	ENDS
; Function compile flags: /Odtp /ZI
; File C:\Program Files (x86)\Microsoft Visual Studio\2019\Community\VC\Tools\MSVC\14.27.29110\include\xtree
;	COMDAT ??$emplace@U?$pair@HU_MONSTER_HERD_DATA@@@std@@@?$_Tree@V?$_Tmap_traits@HU_MONSTER_HERD_DATA@@U?$less@H@std@@V?$allocator@U?$pair@$$CBHU_MONSTER_HERD_DATA@@@std@@@3@$0A@@std@@@std@@QAE?AU?$pair@V?$_Tree_iterator@V?$_Tree_val@U?$_Tree_simple_types@U?$pair@$$CBHU_MONSTER_HERD_DATA@@@std@@@std@@@std@@@std@@_N@1@$$QAU?$pair@HU_MONSTER_HERD_DATA@@@1@@Z
_TEXT	SEGMENT
$T1 = -80						; size = 4
__Result$ = -12						; size = 8
_this$ = -4						; size = 4
___$ReturnUdt$ = 8					; size = 4
_<_Vals_0>$ = 12					; size = 4
??$emplace@U?$pair@HU_MONSTER_HERD_DATA@@@std@@@?$_Tree@V?$_Tmap_traits@HU_MONSTER_HERD_DATA@@U?$less@H@std@@V?$allocator@U?$pair@$$CBHU_MONSTER_HERD_DATA@@@std@@@3@$0A@@std@@@std@@QAE?AU?$pair@V?$_Tree_iterator@V?$_Tree_val@U?$_Tree_simple_types@U?$pair@$$CBHU_MONSTER_HERD_DATA@@@std@@@std@@@std@@@std@@_N@1@$$QAU?$pair@HU_MONSTER_HERD_DATA@@@1@@Z PROC ; std::_Tree<std::_Tmap_traits<int,_MONSTER_HERD_DATA,std::less<int>,std::allocator<std::pair<int const ,_MONSTER_HERD_DATA> >,0> >::emplace<std::pair<int,_MONSTER_HERD_DATA> >, COMDAT
; _this$ = ecx

; 1094 :     pair<iterator, bool> emplace(_Valtys&&... _Vals) {

  00000	55		 push	 ebp
  00001	8b ec		 mov	 ebp, esp
  00003	83 ec 50	 sub	 esp, 80			; 00000050H
  00006	53		 push	 ebx
  00007	56		 push	 esi
  00008	57		 push	 edi
  00009	89 4d fc	 mov	 DWORD PTR _this$[ebp], ecx

; 1095 :         const auto _Result = _Emplace(_STD forward<_Valtys>(_Vals)...);

  0000c	8b 45 0c	 mov	 eax, DWORD PTR _<_Vals_0>$[ebp]
  0000f	50		 push	 eax
  00010	e8 00 00 00 00	 call	 ??$forward@U?$pair@HU_MONSTER_HERD_DATA@@@std@@@std@@YA$$QAU?$pair@HU_MONSTER_HERD_DATA@@@0@AAU10@@Z ; std::forward<std::pair<int,_MONSTER_HERD_DATA> >
  00015	83 c4 04	 add	 esp, 4
  00018	50		 push	 eax
  00019	8d 4d f4	 lea	 ecx, DWORD PTR __Result$[ebp]
  0001c	51		 push	 ecx
  0001d	8b 4d fc	 mov	 ecx, DWORD PTR _this$[ebp]
  00020	e8 00 00 00 00	 call	 ??$_Emplace@U?$pair@HU_MONSTER_HERD_DATA@@@std@@@?$_Tree@V?$_Tmap_traits@HU_MONSTER_HERD_DATA@@U?$less@H@std@@V?$allocator@U?$pair@$$CBHU_MONSTER_HERD_DATA@@@std@@@3@$0A@@std@@@std@@IAE?AU?$pair@PAU?$_Tree_node@U?$pair@$$CBHU_MONSTER_HERD_DATA@@@std@@PAX@std@@_N@1@$$QAU?$pair@HU_MONSTER_HERD_DATA@@@1@@Z ; std::_Tree<std::_Tmap_traits<int,_MONSTER_HERD_DATA,std::less<int>,std::allocator<std::pair<int const ,_MONSTER_HERD_DATA> >,0> >::_Emplace<std::pair<int,_MONSTER_HERD_DATA> >

; 1096 :         return {iterator(_Result.first, _Get_scary()), _Result.second};

  00025	8b 4d fc	 mov	 ecx, DWORD PTR _this$[ebp]
  00028	e8 00 00 00 00	 call	 ?_Get_scary@?$_Tree@V?$_Tmap_traits@HU_MONSTER_HERD_DATA@@U?$less@H@std@@V?$allocator@U?$pair@$$CBHU_MONSTER_HERD_DATA@@@std@@@3@$0A@@std@@@std@@IAEPAV?$_Tree_val@U?$_Tree_simple_types@U?$pair@$$CBHU_MONSTER_HERD_DATA@@@std@@@std@@@2@XZ ; std::_Tree<std::_Tmap_traits<int,_MONSTER_HERD_DATA,std::less<int>,std::allocator<std::pair<int const ,_MONSTER_HERD_DATA> >,0> >::_Get_scary
  0002d	50		 push	 eax
  0002e	8b 45 f4	 mov	 eax, DWORD PTR __Result$[ebp]
  00031	50		 push	 eax
  00032	8d 4d b0	 lea	 ecx, DWORD PTR $T1[ebp]
  00035	e8 00 00 00 00	 call	 ??0?$_Tree_iterator@V?$_Tree_val@U?$_Tree_simple_types@U?$pair@$$CBHU_MONSTER_HERD_DATA@@@std@@@std@@@std@@@std@@QAE@PAU?$_Tree_node@U?$pair@$$CBHU_MONSTER_HERD_DATA@@@std@@PAX@1@PBV?$_Tree_val@U?$_Tree_simple_types@U?$pair@$$CBHU_MONSTER_HERD_DATA@@@std@@@std@@@1@@Z
  0003a	8d 4d f8	 lea	 ecx, DWORD PTR __Result$[ebp+4]
  0003d	51		 push	 ecx
  0003e	50		 push	 eax
  0003f	8b 4d 08	 mov	 ecx, DWORD PTR ___$ReturnUdt$[ebp]
  00042	e8 00 00 00 00	 call	 ??$?0V?$_Tree_iterator@V?$_Tree_val@U?$_Tree_simple_types@U?$pair@$$CBHU_MONSTER_HERD_DATA@@@std@@@std@@@std@@@std@@AB_N$0A@@?$pair@V?$_Tree_iterator@V?$_Tree_val@U?$_Tree_simple_types@U?$pair@$$CBHU_MONSTER_HERD_DATA@@@std@@@std@@@std@@@std@@_N@std@@QAE@$$QAV?$_Tree_iterator@V?$_Tree_val@U?$_Tree_simple_types@U?$pair@$$CBHU_MONSTER_HERD_DATA@@@std@@@std@@@std@@@1@AB_N@Z ; std::pair<std::_Tree_iterator<std::_Tree_val<std::_Tree_simple_types<std::pair<int const ,_MONSTER_HERD_DATA> > > >,bool>::pair<std::_Tree_iterator<std::_Tree_val<std::_Tree_simple_types<std::pair<int const ,_MONSTER_HERD_DATA> > > >,bool><std::_Tree_iterator<std::_Tree_val<std::_Tree_simple_types<std::pair<int const ,_MONSTER_HERD_DATA> > > >,bool const &,0>
  00047	8b 45 08	 mov	 eax, DWORD PTR ___$ReturnUdt$[ebp]

; 1097 :     }

  0004a	5f		 pop	 edi
  0004b	5e		 pop	 esi
  0004c	5b		 pop	 ebx
  0004d	8b e5		 mov	 esp, ebp
  0004f	5d		 pop	 ebp
  00050	c2 08 00	 ret	 8
??$emplace@U?$pair@HU_MONSTER_HERD_DATA@@@std@@@?$_Tree@V?$_Tmap_traits@HU_MONSTER_HERD_DATA@@U?$less@H@std@@V?$allocator@U?$pair@$$CBHU_MONSTER_HERD_DATA@@@std@@@3@$0A@@std@@@std@@QAE?AU?$pair@V?$_Tree_iterator@V?$_Tree_val@U?$_Tree_simple_types@U?$pair@$$CBHU_MONSTER_HERD_DATA@@@std@@@std@@@std@@@std@@_N@1@$$QAU?$pair@HU_MONSTER_HERD_DATA@@@1@@Z ENDP ; std::_Tree<std::_Tmap_traits<int,_MONSTER_HERD_DATA,std::less<int>,std::allocator<std::pair<int const ,_MONSTER_HERD_DATA> >,0> >::emplace<std::pair<int,_MONSTER_HERD_DATA> >
_TEXT	ENDS
; Function compile flags: /Odtp /ZI
; File C:\Program Files (x86)\Microsoft Visual Studio\2019\Community\VC\Tools\MSVC\14.27.29110\include\type_traits
;	COMDAT ??$forward@U?$pair@HU_MONSTER_HERD_DATA@@@std@@@std@@YA$$QAU?$pair@HU_MONSTER_HERD_DATA@@@0@AAU10@@Z
_TEXT	SEGMENT
__Arg$ = 8						; size = 4
??$forward@U?$pair@HU_MONSTER_HERD_DATA@@@std@@@std@@YA$$QAU?$pair@HU_MONSTER_HERD_DATA@@@0@AAU10@@Z PROC ; std::forward<std::pair<int,_MONSTER_HERD_DATA> >, COMDAT

; 1454 :     remove_reference_t<_Ty>& _Arg) noexcept { // forward an lvalue as either an lvalue or an rvalue

  00000	55		 push	 ebp
  00001	8b ec		 mov	 ebp, esp
  00003	83 ec 40	 sub	 esp, 64			; 00000040H
  00006	53		 push	 ebx
  00007	56		 push	 esi
  00008	57		 push	 edi

; 1455 :     return static_cast<_Ty&&>(_Arg);

  00009	8b 45 08	 mov	 eax, DWORD PTR __Arg$[ebp]

; 1456 : }

  0000c	5f		 pop	 edi
  0000d	5e		 pop	 esi
  0000e	5b		 pop	 ebx
  0000f	8b e5		 mov	 esp, ebp
  00011	5d		 pop	 ebp
  00012	c3		 ret	 0
??$forward@U?$pair@HU_MONSTER_HERD_DATA@@@std@@@std@@YA$$QAU?$pair@HU_MONSTER_HERD_DATA@@@0@AAU10@@Z ENDP ; std::forward<std::pair<int,_MONSTER_HERD_DATA> >
_TEXT	ENDS
; Function compile flags: /Odtp /ZI
; File C:\Program Files (x86)\Microsoft Visual Studio\2019\Community\VC\Tools\MSVC\14.27.29110\include\type_traits
;	COMDAT ??$forward@AAU_MONSTER_HERD_DATA@@@std@@YAAAU_MONSTER_HERD_DATA@@AAU1@@Z
_TEXT	SEGMENT
__Arg$ = 8						; size = 4
??$forward@AAU_MONSTER_HERD_DATA@@@std@@YAAAU_MONSTER_HERD_DATA@@AAU1@@Z PROC ; std::forward<_MONSTER_HERD_DATA &>, COMDAT

; 1454 :     remove_reference_t<_Ty>& _Arg) noexcept { // forward an lvalue as either an lvalue or an rvalue

  00000	55		 push	 ebp
  00001	8b ec		 mov	 ebp, esp
  00003	83 ec 40	 sub	 esp, 64			; 00000040H
  00006	53		 push	 ebx
  00007	56		 push	 esi
  00008	57		 push	 edi

; 1455 :     return static_cast<_Ty&&>(_Arg);

  00009	8b 45 08	 mov	 eax, DWORD PTR __Arg$[ebp]

; 1456 : }

  0000c	5f		 pop	 edi
  0000d	5e		 pop	 esi
  0000e	5b		 pop	 ebx
  0000f	8b e5		 mov	 esp, ebp
  00011	5d		 pop	 ebp
  00012	c3		 ret	 0
??$forward@AAU_MONSTER_HERD_DATA@@@std@@YAAAU_MONSTER_HERD_DATA@@AAU1@@Z ENDP ; std::forward<_MONSTER_HERD_DATA &>
_TEXT	ENDS
; Function compile flags: /Odtp /ZI
; File C:\Program Files (x86)\Microsoft Visual Studio\2019\Community\VC\Tools\MSVC\14.27.29110\include\type_traits
;	COMDAT ??$forward@AAH@std@@YAAAHAAH@Z
_TEXT	SEGMENT
__Arg$ = 8						; size = 4
??$forward@AAH@std@@YAAAHAAH@Z PROC			; std::forward<int &>, COMDAT

; 1454 :     remove_reference_t<_Ty>& _Arg) noexcept { // forward an lvalue as either an lvalue or an rvalue

  00000	55		 push	 ebp
  00001	8b ec		 mov	 ebp, esp
  00003	83 ec 40	 sub	 esp, 64			; 00000040H
  00006	53		 push	 ebx
  00007	56		 push	 esi
  00008	57		 push	 edi

; 1455 :     return static_cast<_Ty&&>(_Arg);

  00009	8b 45 08	 mov	 eax, DWORD PTR __Arg$[ebp]

; 1456 : }

  0000c	5f		 pop	 edi
  0000d	5e		 pop	 esi
  0000e	5b		 pop	 ebx
  0000f	8b e5		 mov	 esp, ebp
  00011	5d		 pop	 ebp
  00012	c3		 ret	 0
??$forward@AAH@std@@YAAAHAAH@Z ENDP			; std::forward<int &>
_TEXT	ENDS
; Function compile flags: /Odtp /ZI
; File C:\Program Files (x86)\Microsoft Visual Studio\2019\Community\VC\Tools\MSVC\14.27.29110\include\utility
;	COMDAT ??$swap@D$0A@@std@@YAXAAD0@Z
_TEXT	SEGMENT
__Tmp$ = -1						; size = 1
__Left$ = 8						; size = 4
__Right$ = 12						; size = 4
??$swap@D$0A@@std@@YAXAAD0@Z PROC			; std::swap<char,0>, COMDAT

; 105  :     is_nothrow_move_constructible_v<_Ty>&& is_nothrow_move_assignable_v<_Ty>) {

  00000	55		 push	 ebp
  00001	8b ec		 mov	 ebp, esp
  00003	83 ec 44	 sub	 esp, 68			; 00000044H
  00006	53		 push	 ebx
  00007	56		 push	 esi
  00008	57		 push	 edi

; 106  :     _Ty _Tmp = _STD move(_Left);

  00009	8b 45 08	 mov	 eax, DWORD PTR __Left$[ebp]
  0000c	50		 push	 eax
  0000d	e8 00 00 00 00	 call	 ??$move@AAD@std@@YA$$QADAAD@Z ; std::move<char &>
  00012	83 c4 04	 add	 esp, 4
  00015	8a 08		 mov	 cl, BYTE PTR [eax]
  00017	88 4d ff	 mov	 BYTE PTR __Tmp$[ebp], cl

; 107  :     _Left    = _STD move(_Right);

  0001a	8b 45 0c	 mov	 eax, DWORD PTR __Right$[ebp]
  0001d	50		 push	 eax
  0001e	e8 00 00 00 00	 call	 ??$move@AAD@std@@YA$$QADAAD@Z ; std::move<char &>
  00023	83 c4 04	 add	 esp, 4
  00026	8b 4d 08	 mov	 ecx, DWORD PTR __Left$[ebp]
  00029	8a 10		 mov	 dl, BYTE PTR [eax]
  0002b	88 11		 mov	 BYTE PTR [ecx], dl

; 108  :     _Right   = _STD move(_Tmp);

  0002d	8d 45 ff	 lea	 eax, DWORD PTR __Tmp$[ebp]
  00030	50		 push	 eax
  00031	e8 00 00 00 00	 call	 ??$move@AAD@std@@YA$$QADAAD@Z ; std::move<char &>
  00036	83 c4 04	 add	 esp, 4
  00039	8b 4d 0c	 mov	 ecx, DWORD PTR __Right$[ebp]
  0003c	8a 10		 mov	 dl, BYTE PTR [eax]
  0003e	88 11		 mov	 BYTE PTR [ecx], dl

; 109  : }

  00040	5f		 pop	 edi
  00041	5e		 pop	 esi
  00042	5b		 pop	 ebx
  00043	8b e5		 mov	 esp, ebp
  00045	5d		 pop	 ebp
  00046	c3		 ret	 0
??$swap@D$0A@@std@@YAXAAD0@Z ENDP			; std::swap<char,0>
_TEXT	ENDS
; Function compile flags: /Odtp /ZI
; File C:\Program Files (x86)\Microsoft Visual Studio\2019\Community\VC\Tools\MSVC\14.27.29110\include\xtree
;	COMDAT ??$_Freenode@V?$allocator@U?$_Tree_node@U?$pair@$$CBHU_MONSTER_HERD_DATA@@@std@@PAX@std@@@std@@@?$_Tree_node@U?$pair@$$CBHU_MONSTER_HERD_DATA@@@std@@PAX@std@@SAXAAV?$allocator@U?$_Tree_node@U?$pair@$$CBHU_MONSTER_HERD_DATA@@@std@@PAX@std@@@1@PAU01@@Z
_TEXT	SEGMENT
__$EHRec$ = -12						; size = 12
__Al$ = 8						; size = 4
__Ptr$ = 12						; size = 4
??$_Freenode@V?$allocator@U?$_Tree_node@U?$pair@$$CBHU_MONSTER_HERD_DATA@@@std@@PAX@std@@@std@@@?$_Tree_node@U?$pair@$$CBHU_MONSTER_HERD_DATA@@@std@@PAX@std@@SAXAAV?$allocator@U?$_Tree_node@U?$pair@$$CBHU_MONSTER_HERD_DATA@@@std@@PAX@std@@@1@PAU01@@Z PROC ; std::_Tree_node<std::pair<int const ,_MONSTER_HERD_DATA>,void *>::_Freenode<std::allocator<std::_Tree_node<std::pair<int const ,_MONSTER_HERD_DATA>,void *> > >, COMDAT

; 377  :     static void _Freenode(_Alloc& _Al, _Nodeptr _Ptr) noexcept {

  00000	55		 push	 ebp
  00001	8b ec		 mov	 ebp, esp
  00003	6a ff		 push	 -1
  00005	68 00 00 00 00	 push	 __ehhandler$??$_Freenode@V?$allocator@U?$_Tree_node@U?$pair@$$CBHU_MONSTER_HERD_DATA@@@std@@PAX@std@@@std@@@?$_Tree_node@U?$pair@$$CBHU_MONSTER_HERD_DATA@@@std@@PAX@std@@SAXAAV?$allocator@U?$_Tree_node@U?$pair@$$CBHU_MONSTER_HERD_DATA@@@std@@PAX@std@@@1@PAU01@@Z
  0000a	64 a1 00 00 00
	00		 mov	 eax, DWORD PTR fs:0
  00010	50		 push	 eax
  00011	83 ec 40	 sub	 esp, 64			; 00000040H
  00014	53		 push	 ebx
  00015	56		 push	 esi
  00016	57		 push	 edi
  00017	a1 00 00 00 00	 mov	 eax, DWORD PTR ___security_cookie
  0001c	33 c5		 xor	 eax, ebp
  0001e	50		 push	 eax
  0001f	8d 45 f4	 lea	 eax, DWORD PTR __$EHRec$[ebp]
  00022	64 a3 00 00 00
	00		 mov	 DWORD PTR fs:0, eax

; 378  :         static_assert(is_same_v<typename _Alloc::value_type, _Tree_node>, "Bad _Freenode call");
; 379  :         allocator_traits<_Alloc>::destroy(_Al, _STD addressof(_Ptr->_Myval));

  00028	8b 45 0c	 mov	 eax, DWORD PTR __Ptr$[ebp]
  0002b	83 c0 10	 add	 eax, 16			; 00000010H
  0002e	50		 push	 eax
  0002f	e8 00 00 00 00	 call	 ??$addressof@U?$pair@$$CBHU_MONSTER_HERD_DATA@@@std@@@std@@YAPAU?$pair@$$CBHU_MONSTER_HERD_DATA@@@0@AAU10@@Z ; std::addressof<std::pair<int const ,_MONSTER_HERD_DATA> >
  00034	83 c4 04	 add	 esp, 4
  00037	50		 push	 eax
  00038	8b 4d 08	 mov	 ecx, DWORD PTR __Al$[ebp]
  0003b	51		 push	 ecx
  0003c	e8 00 00 00 00	 call	 ??$destroy@U?$pair@$$CBHU_MONSTER_HERD_DATA@@@std@@@?$_Default_allocator_traits@V?$allocator@U?$_Tree_node@U?$pair@$$CBHU_MONSTER_HERD_DATA@@@std@@PAX@std@@@std@@@std@@SAXAAV?$allocator@U?$_Tree_node@U?$pair@$$CBHU_MONSTER_HERD_DATA@@@std@@PAX@std@@@1@QAU?$pair@$$CBHU_MONSTER_HERD_DATA@@@1@@Z ; std::_Default_allocator_traits<std::allocator<std::_Tree_node<std::pair<int const ,_MONSTER_HERD_DATA>,void *> > >::destroy<std::pair<int const ,_MONSTER_HERD_DATA> >
  00041	83 c4 08	 add	 esp, 8

; 380  :         _Freenode0(_Al, _Ptr);

  00044	8b 45 0c	 mov	 eax, DWORD PTR __Ptr$[ebp]
  00047	50		 push	 eax
  00048	8b 4d 08	 mov	 ecx, DWORD PTR __Al$[ebp]
  0004b	51		 push	 ecx
  0004c	e8 00 00 00 00	 call	 ??$_Freenode0@V?$allocator@U?$_Tree_node@U?$pair@$$CBHU_MONSTER_HERD_DATA@@@std@@PAX@std@@@std@@@?$_Tree_node@U?$pair@$$CBHU_MONSTER_HERD_DATA@@@std@@PAX@std@@SAXAAV?$allocator@U?$_Tree_node@U?$pair@$$CBHU_MONSTER_HERD_DATA@@@std@@PAX@std@@@1@PAU01@@Z ; std::_Tree_node<std::pair<int const ,_MONSTER_HERD_DATA>,void *>::_Freenode0<std::allocator<std::_Tree_node<std::pair<int const ,_MONSTER_HERD_DATA>,void *> > >
  00051	83 c4 08	 add	 esp, 8

; 381  :     }

  00054	8b 4d f4	 mov	 ecx, DWORD PTR __$EHRec$[ebp]
  00057	64 89 0d 00 00
	00 00		 mov	 DWORD PTR fs:0, ecx
  0005e	59		 pop	 ecx
  0005f	5f		 pop	 edi
  00060	5e		 pop	 esi
  00061	5b		 pop	 ebx
  00062	8b e5		 mov	 esp, ebp
  00064	5d		 pop	 ebp
  00065	c3		 ret	 0
  00066	cc		 int	 3
  00067	cc		 int	 3
  00068	cc		 int	 3
  00069	cc		 int	 3
  0006a	cc		 int	 3
_TEXT	ENDS
;	COMDAT text$x
text$x	SEGMENT
__ehhandler$??$_Freenode@V?$allocator@U?$_Tree_node@U?$pair@$$CBHU_MONSTER_HERD_DATA@@@std@@PAX@std@@@std@@@?$_Tree_node@U?$pair@$$CBHU_MONSTER_HERD_DATA@@@std@@PAX@std@@SAXAAV?$allocator@U?$_Tree_node@U?$pair@$$CBHU_MONSTER_HERD_DATA@@@std@@PAX@std@@@1@PAU01@@Z:
  00000	90		 npad	 1
  00001	90		 npad	 1
  00002	8b 54 24 08	 mov	 edx, DWORD PTR [esp+8]
  00006	8d 42 0c	 lea	 eax, DWORD PTR [edx+12]
  00009	8b 4a b0	 mov	 ecx, DWORD PTR [edx-80]
  0000c	33 c8		 xor	 ecx, eax
  0000e	e8 00 00 00 00	 call	 @__security_check_cookie@4
  00013	b8 00 00 00 00	 mov	 eax, OFFSET __ehfuncinfo$??$_Freenode@V?$allocator@U?$_Tree_node@U?$pair@$$CBHU_MONSTER_HERD_DATA@@@std@@PAX@std@@@std@@@?$_Tree_node@U?$pair@$$CBHU_MONSTER_HERD_DATA@@@std@@PAX@std@@SAXAAV?$allocator@U?$_Tree_node@U?$pair@$$CBHU_MONSTER_HERD_DATA@@@std@@PAX@std@@@1@PAU01@@Z
  00018	e9 00 00 00 00	 jmp	 ___CxxFrameHandler3
text$x	ENDS
??$_Freenode@V?$allocator@U?$_Tree_node@U?$pair@$$CBHU_MONSTER_HERD_DATA@@@std@@PAX@std@@@std@@@?$_Tree_node@U?$pair@$$CBHU_MONSTER_HERD_DATA@@@std@@PAX@std@@SAXAAV?$allocator@U?$_Tree_node@U?$pair@$$CBHU_MONSTER_HERD_DATA@@@std@@PAX@std@@@1@PAU01@@Z ENDP ; std::_Tree_node<std::pair<int const ,_MONSTER_HERD_DATA>,void *>::_Freenode<std::allocator<std::_Tree_node<std::pair<int const ,_MONSTER_HERD_DATA>,void *> > >
; Function compile flags: /Odtp /ZI
; File C:\Program Files (x86)\Microsoft Visual Studio\2019\Community\VC\Tools\MSVC\14.27.29110\include\xtree
;	COMDAT ??$_Erase_tree@V?$allocator@U?$_Tree_node@U?$pair@$$CBHU_MONSTER_HERD_DATA@@@std@@PAX@std@@@std@@@?$_Tree_val@U?$_Tree_simple_types@U?$pair@$$CBHU_MONSTER_HERD_DATA@@@std@@@std@@@std@@QAEXAAV?$allocator@U?$_Tree_node@U?$pair@$$CBHU_MONSTER_HERD_DATA@@@std@@PAX@std@@@1@PAU?$_Tree_node@U?$pair@$$CBHU_MONSTER_HERD_DATA@@@std@@PAX@1@@Z
_TEXT	SEGMENT
_this$ = -4						; size = 4
__Al$ = 8						; size = 4
__Rootnode$ = 12					; size = 4
??$_Erase_tree@V?$allocator@U?$_Tree_node@U?$pair@$$CBHU_MONSTER_HERD_DATA@@@std@@PAX@std@@@std@@@?$_Tree_val@U?$_Tree_simple_types@U?$pair@$$CBHU_MONSTER_HERD_DATA@@@std@@@std@@@std@@QAEXAAV?$allocator@U?$_Tree_node@U?$pair@$$CBHU_MONSTER_HERD_DATA@@@std@@PAX@std@@@1@PAU?$_Tree_node@U?$pair@$$CBHU_MONSTER_HERD_DATA@@@std@@PAX@1@@Z PROC ; std::_Tree_val<std::_Tree_simple_types<std::pair<int const ,_MONSTER_HERD_DATA> > >::_Erase_tree<std::allocator<std::_Tree_node<std::pair<int const ,_MONSTER_HERD_DATA>,void *> > >, COMDAT
; _this$ = ecx

; 742  :     void _Erase_tree(_Alnode& _Al, _Nodeptr _Rootnode) noexcept {

  00000	55		 push	 ebp
  00001	8b ec		 mov	 ebp, esp
  00003	83 ec 44	 sub	 esp, 68			; 00000044H
  00006	53		 push	 ebx
  00007	56		 push	 esi
  00008	57		 push	 edi
  00009	89 4d fc	 mov	 DWORD PTR _this$[ebp], ecx
$LN2@Erase_tree:

; 743  :         while (!_Rootnode->_Isnil) { // free subtrees, then node

  0000c	8b 45 0c	 mov	 eax, DWORD PTR __Rootnode$[ebp]
  0000f	0f be 48 0d	 movsx	 ecx, BYTE PTR [eax+13]
  00013	85 c9		 test	 ecx, ecx
  00015	75 32		 jne	 SHORT $LN4@Erase_tree

; 744  :             _Erase_tree(_Al, _Rootnode->_Right);

  00017	8b 45 0c	 mov	 eax, DWORD PTR __Rootnode$[ebp]
  0001a	8b 48 08	 mov	 ecx, DWORD PTR [eax+8]
  0001d	51		 push	 ecx
  0001e	8b 55 08	 mov	 edx, DWORD PTR __Al$[ebp]
  00021	52		 push	 edx
  00022	8b 4d fc	 mov	 ecx, DWORD PTR _this$[ebp]
  00025	e8 00 00 00 00	 call	 ??$_Erase_tree@V?$allocator@U?$_Tree_node@U?$pair@$$CBHU_MONSTER_HERD_DATA@@@std@@PAX@std@@@std@@@?$_Tree_val@U?$_Tree_simple_types@U?$pair@$$CBHU_MONSTER_HERD_DATA@@@std@@@std@@@std@@QAEXAAV?$allocator@U?$_Tree_node@U?$pair@$$CBHU_MONSTER_HERD_DATA@@@std@@PAX@std@@@1@PAU?$_Tree_node@U?$pair@$$CBHU_MONSTER_HERD_DATA@@@std@@PAX@1@@Z ; std::_Tree_val<std::_Tree_simple_types<std::pair<int const ,_MONSTER_HERD_DATA> > >::_Erase_tree<std::allocator<std::_Tree_node<std::pair<int const ,_MONSTER_HERD_DATA>,void *> > >

; 745  :             _Alnode::value_type::_Freenode(_Al, _STD exchange(_Rootnode, _Rootnode->_Left));

  0002a	8b 45 0c	 mov	 eax, DWORD PTR __Rootnode$[ebp]
  0002d	50		 push	 eax
  0002e	8d 4d 0c	 lea	 ecx, DWORD PTR __Rootnode$[ebp]
  00031	51		 push	 ecx
  00032	e8 00 00 00 00	 call	 ??$exchange@PAU?$_Tree_node@U?$pair@$$CBHU_MONSTER_HERD_DATA@@@std@@PAX@std@@AAPAU12@@std@@YAPAU?$_Tree_node@U?$pair@$$CBHU_MONSTER_HERD_DATA@@@std@@PAX@0@AAPAU10@0@Z ; std::exchange<std::_Tree_node<std::pair<int const ,_MONSTER_HERD_DATA>,void *> *,std::_Tree_node<std::pair<int const ,_MONSTER_HERD_DATA>,void *> * &>
  00037	83 c4 08	 add	 esp, 8
  0003a	50		 push	 eax
  0003b	8b 55 08	 mov	 edx, DWORD PTR __Al$[ebp]
  0003e	52		 push	 edx
  0003f	e8 00 00 00 00	 call	 ??$_Freenode@V?$allocator@U?$_Tree_node@U?$pair@$$CBHU_MONSTER_HERD_DATA@@@std@@PAX@std@@@std@@@?$_Tree_node@U?$pair@$$CBHU_MONSTER_HERD_DATA@@@std@@PAX@std@@SAXAAV?$allocator@U?$_Tree_node@U?$pair@$$CBHU_MONSTER_HERD_DATA@@@std@@PAX@std@@@1@PAU01@@Z ; std::_Tree_node<std::pair<int const ,_MONSTER_HERD_DATA>,void *>::_Freenode<std::allocator<std::_Tree_node<std::pair<int const ,_MONSTER_HERD_DATA>,void *> > >
  00044	83 c4 08	 add	 esp, 8

; 746  :         }

  00047	eb c3		 jmp	 SHORT $LN2@Erase_tree
$LN4@Erase_tree:

; 747  :     }

  00049	5f		 pop	 edi
  0004a	5e		 pop	 esi
  0004b	5b		 pop	 ebx
  0004c	8b e5		 mov	 esp, ebp
  0004e	5d		 pop	 ebp
  0004f	c2 08 00	 ret	 8
??$_Erase_tree@V?$allocator@U?$_Tree_node@U?$pair@$$CBHU_MONSTER_HERD_DATA@@@std@@PAX@std@@@std@@@?$_Tree_val@U?$_Tree_simple_types@U?$pair@$$CBHU_MONSTER_HERD_DATA@@@std@@@std@@@std@@QAEXAAV?$allocator@U?$_Tree_node@U?$pair@$$CBHU_MONSTER_HERD_DATA@@@std@@PAX@std@@@1@PAU?$_Tree_node@U?$pair@$$CBHU_MONSTER_HERD_DATA@@@std@@PAX@1@@Z ENDP ; std::_Tree_val<std::_Tree_simple_types<std::pair<int const ,_MONSTER_HERD_DATA> > >::_Erase_tree<std::allocator<std::_Tree_node<std::pair<int const ,_MONSTER_HERD_DATA>,void *> > >
_TEXT	ENDS
; Function compile flags: /Odtp /ZI
; File C:\Program Files (x86)\Microsoft Visual Studio\2019\Community\VC\Tools\MSVC\14.27.29110\include\xtree
;	COMDAT ??$_Buyheadnode@V?$allocator@U?$_Tree_node@U?$pair@$$CBHU_MONSTER_HERD_DATA@@@std@@PAX@std@@@std@@@?$_Tree_node@U?$pair@$$CBHU_MONSTER_HERD_DATA@@@std@@PAX@std@@SAPAU01@AAV?$allocator@U?$_Tree_node@U?$pair@$$CBHU_MONSTER_HERD_DATA@@@std@@PAX@std@@@1@@Z
_TEXT	SEGMENT
__Pnode$ = -4						; size = 4
__Al$ = 8						; size = 4
??$_Buyheadnode@V?$allocator@U?$_Tree_node@U?$pair@$$CBHU_MONSTER_HERD_DATA@@@std@@PAX@std@@@std@@@?$_Tree_node@U?$pair@$$CBHU_MONSTER_HERD_DATA@@@std@@PAX@std@@SAPAU01@AAV?$allocator@U?$_Tree_node@U?$pair@$$CBHU_MONSTER_HERD_DATA@@@std@@PAX@std@@@1@@Z PROC ; std::_Tree_node<std::pair<int const ,_MONSTER_HERD_DATA>,void *>::_Buyheadnode<std::allocator<std::_Tree_node<std::pair<int const ,_MONSTER_HERD_DATA>,void *> > >, COMDAT

; 341  :     static _Nodeptr _Buyheadnode(_Alloc& _Al) {

  00000	55		 push	 ebp
  00001	8b ec		 mov	 ebp, esp
  00003	83 ec 44	 sub	 esp, 68			; 00000044H
  00006	53		 push	 ebx
  00007	56		 push	 esi
  00008	57		 push	 edi

; 342  :         static_assert(is_same_v<typename _Alloc::value_type, _Tree_node>, "Bad _Buyheadnode call");
; 343  :         const auto _Pnode = _Al.allocate(1);

  00009	6a 01		 push	 1
  0000b	8b 4d 08	 mov	 ecx, DWORD PTR __Al$[ebp]
  0000e	e8 00 00 00 00	 call	 ?allocate@?$allocator@U?$_Tree_node@U?$pair@$$CBHU_MONSTER_HERD_DATA@@@std@@PAX@std@@@std@@QAEPAU?$_Tree_node@U?$pair@$$CBHU_MONSTER_HERD_DATA@@@std@@PAX@2@I@Z ; std::allocator<std::_Tree_node<std::pair<int const ,_MONSTER_HERD_DATA>,void *> >::allocate
  00013	89 45 fc	 mov	 DWORD PTR __Pnode$[ebp], eax

; 344  :         _Construct_in_place(_Pnode->_Left, _Pnode);

  00016	8d 45 fc	 lea	 eax, DWORD PTR __Pnode$[ebp]
  00019	50		 push	 eax
  0001a	8b 4d fc	 mov	 ecx, DWORD PTR __Pnode$[ebp]
  0001d	51		 push	 ecx
  0001e	e8 00 00 00 00	 call	 ??$_Construct_in_place@PAU?$_Tree_node@U?$pair@$$CBHU_MONSTER_HERD_DATA@@@std@@PAX@std@@ABQAU12@@std@@YAXAAPAU?$_Tree_node@U?$pair@$$CBHU_MONSTER_HERD_DATA@@@std@@PAX@0@ABQAU10@@Z ; std::_Construct_in_place<std::_Tree_node<std::pair<int const ,_MONSTER_HERD_DATA>,void *> *,std::_Tree_node<std::pair<int const ,_MONSTER_HERD_DATA>,void *> * const &>
  00023	83 c4 08	 add	 esp, 8

; 345  :         _Construct_in_place(_Pnode->_Parent, _Pnode);

  00026	8d 45 fc	 lea	 eax, DWORD PTR __Pnode$[ebp]
  00029	50		 push	 eax
  0002a	8b 4d fc	 mov	 ecx, DWORD PTR __Pnode$[ebp]
  0002d	83 c1 04	 add	 ecx, 4
  00030	51		 push	 ecx
  00031	e8 00 00 00 00	 call	 ??$_Construct_in_place@PAU?$_Tree_node@U?$pair@$$CBHU_MONSTER_HERD_DATA@@@std@@PAX@std@@ABQAU12@@std@@YAXAAPAU?$_Tree_node@U?$pair@$$CBHU_MONSTER_HERD_DATA@@@std@@PAX@0@ABQAU10@@Z ; std::_Construct_in_place<std::_Tree_node<std::pair<int const ,_MONSTER_HERD_DATA>,void *> *,std::_Tree_node<std::pair<int const ,_MONSTER_HERD_DATA>,void *> * const &>
  00036	83 c4 08	 add	 esp, 8

; 346  :         _Construct_in_place(_Pnode->_Right, _Pnode);

  00039	8d 45 fc	 lea	 eax, DWORD PTR __Pnode$[ebp]
  0003c	50		 push	 eax
  0003d	8b 4d fc	 mov	 ecx, DWORD PTR __Pnode$[ebp]
  00040	83 c1 08	 add	 ecx, 8
  00043	51		 push	 ecx
  00044	e8 00 00 00 00	 call	 ??$_Construct_in_place@PAU?$_Tree_node@U?$pair@$$CBHU_MONSTER_HERD_DATA@@@std@@PAX@std@@ABQAU12@@std@@YAXAAPAU?$_Tree_node@U?$pair@$$CBHU_MONSTER_HERD_DATA@@@std@@PAX@0@ABQAU10@@Z ; std::_Construct_in_place<std::_Tree_node<std::pair<int const ,_MONSTER_HERD_DATA>,void *> *,std::_Tree_node<std::pair<int const ,_MONSTER_HERD_DATA>,void *> * const &>
  00049	83 c4 08	 add	 esp, 8

; 347  :         _Pnode->_Color = _Black;

  0004c	8b 45 fc	 mov	 eax, DWORD PTR __Pnode$[ebp]
  0004f	c6 40 0c 01	 mov	 BYTE PTR [eax+12], 1

; 348  :         _Pnode->_Isnil = true;

  00053	8b 45 fc	 mov	 eax, DWORD PTR __Pnode$[ebp]
  00056	c6 40 0d 01	 mov	 BYTE PTR [eax+13], 1

; 349  :         return _Pnode;

  0005a	8b 45 fc	 mov	 eax, DWORD PTR __Pnode$[ebp]

; 350  :     }

  0005d	5f		 pop	 edi
  0005e	5e		 pop	 esi
  0005f	5b		 pop	 ebx
  00060	8b e5		 mov	 esp, ebp
  00062	5d		 pop	 ebp
  00063	c3		 ret	 0
??$_Buyheadnode@V?$allocator@U?$_Tree_node@U?$pair@$$CBHU_MONSTER_HERD_DATA@@@std@@PAX@std@@@std@@@?$_Tree_node@U?$pair@$$CBHU_MONSTER_HERD_DATA@@@std@@PAX@std@@SAPAU01@AAV?$allocator@U?$_Tree_node@U?$pair@$$CBHU_MONSTER_HERD_DATA@@@std@@PAX@std@@@1@@Z ENDP ; std::_Tree_node<std::pair<int const ,_MONSTER_HERD_DATA>,void *>::_Buyheadnode<std::allocator<std::_Tree_node<std::pair<int const ,_MONSTER_HERD_DATA>,void *> > >
_TEXT	ENDS
; Function compile flags: /Odtp /ZI
; File C:\Program Files (x86)\Microsoft Visual Studio\2019\Community\VC\Tools\MSVC\14.27.29110\include\xstddef
;	COMDAT ??$addressof@$$CBV?$_Tree_val@U?$_Tree_simple_types@U?$pair@$$CBHU_MONSTER_HERD_DATA@@@std@@@std@@@std@@@std@@YAPBV?$_Tree_val@U?$_Tree_simple_types@U?$pair@$$CBHU_MONSTER_HERD_DATA@@@std@@@std@@@0@ABV10@@Z
_TEXT	SEGMENT
__Val$ = 8						; size = 4
??$addressof@$$CBV?$_Tree_val@U?$_Tree_simple_types@U?$pair@$$CBHU_MONSTER_HERD_DATA@@@std@@@std@@@std@@@std@@YAPBV?$_Tree_val@U?$_Tree_simple_types@U?$pair@$$CBHU_MONSTER_HERD_DATA@@@std@@@std@@@0@ABV10@@Z PROC ; std::addressof<std::_Tree_val<std::_Tree_simple_types<std::pair<int const ,_MONSTER_HERD_DATA> > > const >, COMDAT

; 274  : _NODISCARD constexpr _Ty* addressof(_Ty& _Val) noexcept {

  00000	55		 push	 ebp
  00001	8b ec		 mov	 ebp, esp
  00003	83 ec 40	 sub	 esp, 64			; 00000040H
  00006	53		 push	 ebx
  00007	56		 push	 esi
  00008	57		 push	 edi

; 275  :     return __builtin_addressof(_Val);

  00009	8b 45 08	 mov	 eax, DWORD PTR __Val$[ebp]

; 276  : }

  0000c	5f		 pop	 edi
  0000d	5e		 pop	 esi
  0000e	5b		 pop	 ebx
  0000f	8b e5		 mov	 esp, ebp
  00011	5d		 pop	 ebp
  00012	c3		 ret	 0
??$addressof@$$CBV?$_Tree_val@U?$_Tree_simple_types@U?$pair@$$CBHU_MONSTER_HERD_DATA@@@std@@@std@@@std@@@std@@YAPBV?$_Tree_val@U?$_Tree_simple_types@U?$pair@$$CBHU_MONSTER_HERD_DATA@@@std@@@std@@@0@ABV10@@Z ENDP ; std::addressof<std::_Tree_val<std::_Tree_simple_types<std::pair<int const ,_MONSTER_HERD_DATA> > > const >
_TEXT	ENDS
; Function compile flags: /Odtp /ZI
; File C:\Program Files (x86)\Microsoft Visual Studio\2019\Community\VC\Tools\MSVC\14.27.29110\include\xmemory
;	COMDAT ??$?0$$V@?$_Compressed_pair@V?$allocator@U?$_Tree_node@U?$pair@$$CBHU_MONSTER_HERD_DATA@@@std@@PAX@std@@@std@@V?$_Tree_val@U?$_Tree_simple_types@U?$pair@$$CBHU_MONSTER_HERD_DATA@@@std@@@std@@@2@$00@std@@QAE@U_Zero_then_variadic_args_t@1@@Z
_TEXT	SEGMENT
_this$ = -4						; size = 4
___formal$ = 8						; size = 1
??$?0$$V@?$_Compressed_pair@V?$allocator@U?$_Tree_node@U?$pair@$$CBHU_MONSTER_HERD_DATA@@@std@@PAX@std@@@std@@V?$_Tree_val@U?$_Tree_simple_types@U?$pair@$$CBHU_MONSTER_HERD_DATA@@@std@@@std@@@2@$00@std@@QAE@U_Zero_then_variadic_args_t@1@@Z PROC ; std::_Compressed_pair<std::allocator<std::_Tree_node<std::pair<int const ,_MONSTER_HERD_DATA>,void *> >,std::_Tree_val<std::_Tree_simple_types<std::pair<int const ,_MONSTER_HERD_DATA> > >,1>::_Compressed_pair<std::allocator<std::_Tree_node<std::pair<int const ,_MONSTER_HERD_DATA>,void *> >,std::_Tree_val<std::_Tree_simple_types<std::pair<int const ,_MONSTER_HERD_DATA> > >,1><>, COMDAT
; _this$ = ecx

; 1336 :         : _Ty1(), _Myval2(_STD forward<_Other2>(_Val2)...) {}

  00000	55		 push	 ebp
  00001	8b ec		 mov	 ebp, esp
  00003	83 ec 44	 sub	 esp, 68			; 00000044H
  00006	53		 push	 ebx
  00007	56		 push	 esi
  00008	57		 push	 edi
  00009	89 4d fc	 mov	 DWORD PTR _this$[ebp], ecx
  0000c	8b 4d fc	 mov	 ecx, DWORD PTR _this$[ebp]
  0000f	e8 00 00 00 00	 call	 ??0?$allocator@U?$_Tree_node@U?$pair@$$CBHU_MONSTER_HERD_DATA@@@std@@PAX@std@@@std@@QAE@XZ ; std::allocator<std::_Tree_node<std::pair<int const ,_MONSTER_HERD_DATA>,void *> >::allocator<std::_Tree_node<std::pair<int const ,_MONSTER_HERD_DATA>,void *> >
  00014	8b 4d fc	 mov	 ecx, DWORD PTR _this$[ebp]
  00017	e8 00 00 00 00	 call	 ??0?$_Tree_val@U?$_Tree_simple_types@U?$pair@$$CBHU_MONSTER_HERD_DATA@@@std@@@std@@@std@@QAE@XZ ; std::_Tree_val<std::_Tree_simple_types<std::pair<int const ,_MONSTER_HERD_DATA> > >::_Tree_val<std::_Tree_simple_types<std::pair<int const ,_MONSTER_HERD_DATA> > >
  0001c	8b 45 fc	 mov	 eax, DWORD PTR _this$[ebp]
  0001f	5f		 pop	 edi
  00020	5e		 pop	 esi
  00021	5b		 pop	 ebx
  00022	8b e5		 mov	 esp, ebp
  00024	5d		 pop	 ebp
  00025	c2 04 00	 ret	 4
??$?0$$V@?$_Compressed_pair@V?$allocator@U?$_Tree_node@U?$pair@$$CBHU_MONSTER_HERD_DATA@@@std@@PAX@std@@@std@@V?$_Tree_val@U?$_Tree_simple_types@U?$pair@$$CBHU_MONSTER_HERD_DATA@@@std@@@std@@@2@$00@std@@QAE@U_Zero_then_variadic_args_t@1@@Z ENDP ; std::_Compressed_pair<std::allocator<std::_Tree_node<std::pair<int const ,_MONSTER_HERD_DATA>,void *> >,std::_Tree_val<std::_Tree_simple_types<std::pair<int const ,_MONSTER_HERD_DATA> > >,1>::_Compressed_pair<std::allocator<std::_Tree_node<std::pair<int const ,_MONSTER_HERD_DATA>,void *> >,std::_Tree_val<std::_Tree_simple_types<std::pair<int const ,_MONSTER_HERD_DATA> > >,1><>
_TEXT	ENDS
; Function compile flags: /Odtp /ZI
; File C:\Program Files (x86)\Microsoft Visual Studio\2019\Community\VC\Tools\MSVC\14.27.29110\include\xmemory
;	COMDAT ??$?0ABU?$less@H@std@@U_Zero_then_variadic_args_t@1@@?$_Compressed_pair@U?$less@H@std@@V?$_Compressed_pair@V?$allocator@U?$_Tree_node@U?$pair@$$CBHU_MONSTER_HERD_DATA@@@std@@PAX@std@@@std@@V?$_Tree_val@U?$_Tree_simple_types@U?$pair@$$CBHU_MONSTER_HERD_DATA@@@std@@@std@@@2@$00@2@$00@std@@QAE@U_One_then_variadic_args_t@1@ABU?$less@H@1@$$QAU_Zero_then_variadic_args_t@1@@Z
_TEXT	SEGMENT
_this$ = -4						; size = 4
___formal$ = 8						; size = 1
__Val1$ = 12						; size = 4
_<_Val2_0>$ = 16					; size = 4
??$?0ABU?$less@H@std@@U_Zero_then_variadic_args_t@1@@?$_Compressed_pair@U?$less@H@std@@V?$_Compressed_pair@V?$allocator@U?$_Tree_node@U?$pair@$$CBHU_MONSTER_HERD_DATA@@@std@@PAX@std@@@std@@V?$_Tree_val@U?$_Tree_simple_types@U?$pair@$$CBHU_MONSTER_HERD_DATA@@@std@@@std@@@2@$00@2@$00@std@@QAE@U_One_then_variadic_args_t@1@ABU?$less@H@1@$$QAU_Zero_then_variadic_args_t@1@@Z PROC ; std::_Compressed_pair<std::less<int>,std::_Compressed_pair<std::allocator<std::_Tree_node<std::pair<int const ,_MONSTER_HERD_DATA>,void *> >,std::_Tree_val<std::_Tree_simple_types<std::pair<int const ,_MONSTER_HERD_DATA> > >,1>,1>::_Compressed_pair<std::less<int>,std::_Compressed_pair<std::allocator<std::_Tree_node<std::pair<int const ,_MONSTER_HERD_DATA>,void *> >,std::_Tree_val<std::_Tree_simple_types<std::pair<int const ,_MONSTER_HERD_DATA> > >,1>,1><std::less<int> const &,std::_Zero_then_variadic_args_t>, COMDAT
; _this$ = ecx

; 1341 :         : _Ty1(_STD forward<_Other1>(_Val1)), _Myval2(_STD forward<_Other2>(_Val2)...) {}

  00000	55		 push	 ebp
  00001	8b ec		 mov	 ebp, esp
  00003	83 ec 44	 sub	 esp, 68			; 00000044H
  00006	53		 push	 ebx
  00007	56		 push	 esi
  00008	57		 push	 edi
  00009	89 4d fc	 mov	 DWORD PTR _this$[ebp], ecx
  0000c	8b 45 0c	 mov	 eax, DWORD PTR __Val1$[ebp]
  0000f	50		 push	 eax
  00010	e8 00 00 00 00	 call	 ??$forward@ABU?$less@H@std@@@std@@YAABU?$less@H@0@ABU10@@Z ; std::forward<std::less<int> const &>
  00015	83 c4 04	 add	 esp, 4
  00018	8b 45 10	 mov	 eax, DWORD PTR _<_Val2_0>$[ebp]
  0001b	50		 push	 eax
  0001c	e8 00 00 00 00	 call	 ??$forward@U_Zero_then_variadic_args_t@std@@@std@@YA$$QAU_Zero_then_variadic_args_t@0@AAU10@@Z ; std::forward<std::_Zero_then_variadic_args_t>
  00021	83 c4 04	 add	 esp, 4
  00024	8a 08		 mov	 cl, BYTE PTR [eax]
  00026	0f b6 d1	 movzx	 edx, cl
  00029	52		 push	 edx
  0002a	8b 4d fc	 mov	 ecx, DWORD PTR _this$[ebp]
  0002d	e8 00 00 00 00	 call	 ??$?0$$V@?$_Compressed_pair@V?$allocator@U?$_Tree_node@U?$pair@$$CBHU_MONSTER_HERD_DATA@@@std@@PAX@std@@@std@@V?$_Tree_val@U?$_Tree_simple_types@U?$pair@$$CBHU_MONSTER_HERD_DATA@@@std@@@std@@@2@$00@std@@QAE@U_Zero_then_variadic_args_t@1@@Z ; std::_Compressed_pair<std::allocator<std::_Tree_node<std::pair<int const ,_MONSTER_HERD_DATA>,void *> >,std::_Tree_val<std::_Tree_simple_types<std::pair<int const ,_MONSTER_HERD_DATA> > >,1>::_Compressed_pair<std::allocator<std::_Tree_node<std::pair<int const ,_MONSTER_HERD_DATA>,void *> >,std::_Tree_val<std::_Tree_simple_types<std::pair<int const ,_MONSTER_HERD_DATA> > >,1><>
  00032	8b 45 fc	 mov	 eax, DWORD PTR _this$[ebp]
  00035	5f		 pop	 edi
  00036	5e		 pop	 esi
  00037	5b		 pop	 ebx
  00038	8b e5		 mov	 esp, ebp
  0003a	5d		 pop	 ebp
  0003b	c2 0c 00	 ret	 12			; 0000000cH
??$?0ABU?$less@H@std@@U_Zero_then_variadic_args_t@1@@?$_Compressed_pair@U?$less@H@std@@V?$_Compressed_pair@V?$allocator@U?$_Tree_node@U?$pair@$$CBHU_MONSTER_HERD_DATA@@@std@@PAX@std@@@std@@V?$_Tree_val@U?$_Tree_simple_types@U?$pair@$$CBHU_MONSTER_HERD_DATA@@@std@@@std@@@2@$00@2@$00@std@@QAE@U_One_then_variadic_args_t@1@ABU?$less@H@1@$$QAU_Zero_then_variadic_args_t@1@@Z ENDP ; std::_Compressed_pair<std::less<int>,std::_Compressed_pair<std::allocator<std::_Tree_node<std::pair<int const ,_MONSTER_HERD_DATA>,void *> >,std::_Tree_val<std::_Tree_simple_types<std::pair<int const ,_MONSTER_HERD_DATA> > >,1>,1>::_Compressed_pair<std::less<int>,std::_Compressed_pair<std::allocator<std::_Tree_node<std::pair<int const ,_MONSTER_HERD_DATA>,void *> >,std::_Tree_val<std::_Tree_simple_types<std::pair<int const ,_MONSTER_HERD_DATA> > >,1>,1><std::less<int> const &,std::_Zero_then_variadic_args_t>
_TEXT	ENDS
; Function compile flags: /Odtp /ZI
;	COMDAT ??0?$_Tree_unchecked_iterator@V?$_Tree_val@U?$_Tree_simple_types@U?$pair@$$CBHU_MONSTER_HERD_DATA@@@std@@@std@@@std@@@std@@QAE@PAU?$_Tree_node@U?$pair@$$CBHU_MONSTER_HERD_DATA@@@std@@PAX@1@PBV?$_Tree_val@U?$_Tree_simple_types@U?$pair@$$CBHU_MONSTER_HERD_DATA@@@std@@@std@@@1@@Z
_TEXT	SEGMENT
_this$ = -4						; size = 4
___param0$ = 8						; size = 4
___param1$ = 12						; size = 4
??0?$_Tree_unchecked_iterator@V?$_Tree_val@U?$_Tree_simple_types@U?$pair@$$CBHU_MONSTER_HERD_DATA@@@std@@@std@@@std@@@std@@QAE@PAU?$_Tree_node@U?$pair@$$CBHU_MONSTER_HERD_DATA@@@std@@PAX@1@PBV?$_Tree_val@U?$_Tree_simple_types@U?$pair@$$CBHU_MONSTER_HERD_DATA@@@std@@@std@@@1@@Z PROC ; std::_Tree_unchecked_iterator<std::_Tree_val<std::_Tree_simple_types<std::pair<int const ,_MONSTER_HERD_DATA> > > >::_Tree_unchecked_iterator<std::_Tree_val<std::_Tree_simple_types<std::pair<int const ,_MONSTER_HERD_DATA> > > >, COMDAT
; _this$ = ecx
  00000	55		 push	 ebp
  00001	8b ec		 mov	 ebp, esp
  00003	83 ec 44	 sub	 esp, 68			; 00000044H
  00006	53		 push	 ebx
  00007	56		 push	 esi
  00008	57		 push	 edi
  00009	89 4d fc	 mov	 DWORD PTR _this$[ebp], ecx
  0000c	8b 45 0c	 mov	 eax, DWORD PTR ___param1$[ebp]
  0000f	50		 push	 eax
  00010	8b 4d 08	 mov	 ecx, DWORD PTR ___param0$[ebp]
  00013	51		 push	 ecx
  00014	8b 4d fc	 mov	 ecx, DWORD PTR _this$[ebp]
  00017	e8 00 00 00 00	 call	 ??0?$_Tree_unchecked_const_iterator@V?$_Tree_val@U?$_Tree_simple_types@U?$pair@$$CBHU_MONSTER_HERD_DATA@@@std@@@std@@@std@@U_Iterator_base0@2@@std@@QAE@PAU?$_Tree_node@U?$pair@$$CBHU_MONSTER_HERD_DATA@@@std@@PAX@1@PBV?$_Tree_val@U?$_Tree_simple_types@U?$pair@$$CBHU_MONSTER_HERD_DATA@@@std@@@std@@@1@@Z ; std::_Tree_unchecked_const_iterator<std::_Tree_val<std::_Tree_simple_types<std::pair<int const ,_MONSTER_HERD_DATA> > >,std::_Iterator_base0>::_Tree_unchecked_const_iterator<std::_Tree_val<std::_Tree_simple_types<std::pair<int const ,_MONSTER_HERD_DATA> > >,std::_Iterator_base0>
  0001c	8b 45 fc	 mov	 eax, DWORD PTR _this$[ebp]
  0001f	5f		 pop	 edi
  00020	5e		 pop	 esi
  00021	5b		 pop	 ebx
  00022	8b e5		 mov	 esp, ebp
  00024	5d		 pop	 ebp
  00025	c2 08 00	 ret	 8
??0?$_Tree_unchecked_iterator@V?$_Tree_val@U?$_Tree_simple_types@U?$pair@$$CBHU_MONSTER_HERD_DATA@@@std@@@std@@@std@@@std@@QAE@PAU?$_Tree_node@U?$pair@$$CBHU_MONSTER_HERD_DATA@@@std@@PAX@1@PBV?$_Tree_val@U?$_Tree_simple_types@U?$pair@$$CBHU_MONSTER_HERD_DATA@@@std@@@std@@@1@@Z ENDP ; std::_Tree_unchecked_iterator<std::_Tree_val<std::_Tree_simple_types<std::pair<int const ,_MONSTER_HERD_DATA> > > >::_Tree_unchecked_iterator<std::_Tree_val<std::_Tree_simple_types<std::pair<int const ,_MONSTER_HERD_DATA> > > >
_TEXT	ENDS
; Function compile flags: /Odtp /ZI
; File C:\Program Files (x86)\Microsoft Visual Studio\2019\Community\VC\Tools\MSVC\14.27.29110\include\xstddef
;	COMDAT ??$addressof@V?$_Tree_val@U?$_Tree_simple_types@U?$pair@$$CBHU_MONSTER_HERD_DATA@@@std@@@std@@@std@@@std@@YAPAV?$_Tree_val@U?$_Tree_simple_types@U?$pair@$$CBHU_MONSTER_HERD_DATA@@@std@@@std@@@0@AAV10@@Z
_TEXT	SEGMENT
__Val$ = 8						; size = 4
??$addressof@V?$_Tree_val@U?$_Tree_simple_types@U?$pair@$$CBHU_MONSTER_HERD_DATA@@@std@@@std@@@std@@@std@@YAPAV?$_Tree_val@U?$_Tree_simple_types@U?$pair@$$CBHU_MONSTER_HERD_DATA@@@std@@@std@@@0@AAV10@@Z PROC ; std::addressof<std::_Tree_val<std::_Tree_simple_types<std::pair<int const ,_MONSTER_HERD_DATA> > > >, COMDAT

; 274  : _NODISCARD constexpr _Ty* addressof(_Ty& _Val) noexcept {

  00000	55		 push	 ebp
  00001	8b ec		 mov	 ebp, esp
  00003	83 ec 40	 sub	 esp, 64			; 00000040H
  00006	53		 push	 ebx
  00007	56		 push	 esi
  00008	57		 push	 edi

; 275  :     return __builtin_addressof(_Val);

  00009	8b 45 08	 mov	 eax, DWORD PTR __Val$[ebp]

; 276  : }

  0000c	5f		 pop	 edi
  0000d	5e		 pop	 esi
  0000e	5b		 pop	 ebx
  0000f	8b e5		 mov	 esp, ebp
  00011	5d		 pop	 ebp
  00012	c3		 ret	 0
??$addressof@V?$_Tree_val@U?$_Tree_simple_types@U?$pair@$$CBHU_MONSTER_HERD_DATA@@@std@@@std@@@std@@@std@@YAPAV?$_Tree_val@U?$_Tree_simple_types@U?$pair@$$CBHU_MONSTER_HERD_DATA@@@std@@@std@@@0@AAV10@@Z ENDP ; std::addressof<std::_Tree_val<std::_Tree_simple_types<std::pair<int const ,_MONSTER_HERD_DATA> > > >
_TEXT	ENDS
; Function compile flags: /Odtp /ZI
; File C:\Program Files (x86)\Microsoft Visual Studio\2019\Community\VC\Tools\MSVC\14.27.29110\include\xstddef
;	COMDAT ??$addressof@U?$pair@$$CBHU_MONSTER_HERD_DATA@@@std@@@std@@YAPAU?$pair@$$CBHU_MONSTER_HERD_DATA@@@0@AAU10@@Z
_TEXT	SEGMENT
__Val$ = 8						; size = 4
??$addressof@U?$pair@$$CBHU_MONSTER_HERD_DATA@@@std@@@std@@YAPAU?$pair@$$CBHU_MONSTER_HERD_DATA@@@0@AAU10@@Z PROC ; std::addressof<std::pair<int const ,_MONSTER_HERD_DATA> >, COMDAT

; 274  : _NODISCARD constexpr _Ty* addressof(_Ty& _Val) noexcept {

  00000	55		 push	 ebp
  00001	8b ec		 mov	 ebp, esp
  00003	83 ec 40	 sub	 esp, 64			; 00000040H
  00006	53		 push	 ebx
  00007	56		 push	 esi
  00008	57		 push	 edi

; 275  :     return __builtin_addressof(_Val);

  00009	8b 45 08	 mov	 eax, DWORD PTR __Val$[ebp]

; 276  : }

  0000c	5f		 pop	 edi
  0000d	5e		 pop	 esi
  0000e	5b		 pop	 ebx
  0000f	8b e5		 mov	 esp, ebp
  00011	5d		 pop	 ebp
  00012	c3		 ret	 0
??$addressof@U?$pair@$$CBHU_MONSTER_HERD_DATA@@@std@@@std@@YAPAU?$pair@$$CBHU_MONSTER_HERD_DATA@@@0@AAU10@@Z ENDP ; std::addressof<std::pair<int const ,_MONSTER_HERD_DATA> >
_TEXT	ENDS
; Function compile flags: /Odtp /ZI
; File C:\Program Files (x86)\Microsoft Visual Studio\2019\Community\VC\Tools\MSVC\14.27.29110\include\xtree
;	COMDAT ??$_Erase_head@V?$allocator@U?$_Tree_node@U?$pair@$$CBHU_MONSTER_HERD_DATA@@@std@@PAX@std@@@std@@@?$_Tree_val@U?$_Tree_simple_types@U?$pair@$$CBHU_MONSTER_HERD_DATA@@@std@@@std@@@std@@QAEXAAV?$allocator@U?$_Tree_node@U?$pair@$$CBHU_MONSTER_HERD_DATA@@@std@@PAX@std@@@1@@Z
_TEXT	SEGMENT
_this$ = -4						; size = 4
__Al$ = 8						; size = 4
??$_Erase_head@V?$allocator@U?$_Tree_node@U?$pair@$$CBHU_MONSTER_HERD_DATA@@@std@@PAX@std@@@std@@@?$_Tree_val@U?$_Tree_simple_types@U?$pair@$$CBHU_MONSTER_HERD_DATA@@@std@@@std@@@std@@QAEXAAV?$allocator@U?$_Tree_node@U?$pair@$$CBHU_MONSTER_HERD_DATA@@@std@@PAX@std@@@1@@Z PROC ; std::_Tree_val<std::_Tree_simple_types<std::pair<int const ,_MONSTER_HERD_DATA> > >::_Erase_head<std::allocator<std::_Tree_node<std::pair<int const ,_MONSTER_HERD_DATA>,void *> > >, COMDAT
; _this$ = ecx

; 750  :     void _Erase_head(_Alnode& _Al) noexcept {

  00000	55		 push	 ebp
  00001	8b ec		 mov	 ebp, esp
  00003	83 ec 44	 sub	 esp, 68			; 00000044H
  00006	53		 push	 ebx
  00007	56		 push	 esi
  00008	57		 push	 edi
  00009	89 4d fc	 mov	 DWORD PTR _this$[ebp], ecx

; 751  :         this->_Orphan_all();

  0000c	8b 4d fc	 mov	 ecx, DWORD PTR _this$[ebp]
  0000f	e8 00 00 00 00	 call	 ?_Orphan_all@_Container_base0@std@@QAEXXZ ; std::_Container_base0::_Orphan_all

; 752  :         _Erase_tree(_Al, _Myhead->_Parent);

  00014	8b 45 fc	 mov	 eax, DWORD PTR _this$[ebp]
  00017	8b 08		 mov	 ecx, DWORD PTR [eax]
  00019	8b 51 04	 mov	 edx, DWORD PTR [ecx+4]
  0001c	52		 push	 edx
  0001d	8b 45 08	 mov	 eax, DWORD PTR __Al$[ebp]
  00020	50		 push	 eax
  00021	8b 4d fc	 mov	 ecx, DWORD PTR _this$[ebp]
  00024	e8 00 00 00 00	 call	 ??$_Erase_tree@V?$allocator@U?$_Tree_node@U?$pair@$$CBHU_MONSTER_HERD_DATA@@@std@@PAX@std@@@std@@@?$_Tree_val@U?$_Tree_simple_types@U?$pair@$$CBHU_MONSTER_HERD_DATA@@@std@@@std@@@std@@QAEXAAV?$allocator@U?$_Tree_node@U?$pair@$$CBHU_MONSTER_HERD_DATA@@@std@@PAX@std@@@1@PAU?$_Tree_node@U?$pair@$$CBHU_MONSTER_HERD_DATA@@@std@@PAX@1@@Z ; std::_Tree_val<std::_Tree_simple_types<std::pair<int const ,_MONSTER_HERD_DATA> > >::_Erase_tree<std::allocator<std::_Tree_node<std::pair<int const ,_MONSTER_HERD_DATA>,void *> > >

; 753  :         _Alnode::value_type::_Freenode0(_Al, _Myhead);

  00029	8b 45 fc	 mov	 eax, DWORD PTR _this$[ebp]
  0002c	8b 08		 mov	 ecx, DWORD PTR [eax]
  0002e	51		 push	 ecx
  0002f	8b 55 08	 mov	 edx, DWORD PTR __Al$[ebp]
  00032	52		 push	 edx
  00033	e8 00 00 00 00	 call	 ??$_Freenode0@V?$allocator@U?$_Tree_node@U?$pair@$$CBHU_MONSTER_HERD_DATA@@@std@@PAX@std@@@std@@@?$_Tree_node@U?$pair@$$CBHU_MONSTER_HERD_DATA@@@std@@PAX@std@@SAXAAV?$allocator@U?$_Tree_node@U?$pair@$$CBHU_MONSTER_HERD_DATA@@@std@@PAX@std@@@1@PAU01@@Z ; std::_Tree_node<std::pair<int const ,_MONSTER_HERD_DATA>,void *>::_Freenode0<std::allocator<std::_Tree_node<std::pair<int const ,_MONSTER_HERD_DATA>,void *> > >
  00038	83 c4 08	 add	 esp, 8

; 754  :     }

  0003b	5f		 pop	 edi
  0003c	5e		 pop	 esi
  0003d	5b		 pop	 ebx
  0003e	8b e5		 mov	 esp, ebp
  00040	5d		 pop	 ebp
  00041	c2 04 00	 ret	 4
??$_Erase_head@V?$allocator@U?$_Tree_node@U?$pair@$$CBHU_MONSTER_HERD_DATA@@@std@@PAX@std@@@std@@@?$_Tree_val@U?$_Tree_simple_types@U?$pair@$$CBHU_MONSTER_HERD_DATA@@@std@@@std@@@std@@QAEXAAV?$allocator@U?$_Tree_node@U?$pair@$$CBHU_MONSTER_HERD_DATA@@@std@@PAX@std@@@1@@Z ENDP ; std::_Tree_val<std::_Tree_simple_types<std::pair<int const ,_MONSTER_HERD_DATA> > >::_Erase_head<std::allocator<std::_Tree_node<std::pair<int const ,_MONSTER_HERD_DATA>,void *> > >
_TEXT	ENDS
; Function compile flags: /Odtp /ZI
; File C:\Program Files (x86)\Microsoft Visual Studio\2019\Community\VC\Tools\MSVC\14.27.29110\include\xtree
;	COMDAT ??$_Find@H@?$_Tree@V?$_Tmap_traits@HU_MONSTER_HERD_DATA@@U?$less@H@std@@V?$allocator@U?$pair@$$CBHU_MONSTER_HERD_DATA@@@std@@@3@$0A@@std@@@std@@ABEPAU?$_Tree_node@U?$pair@$$CBHU_MONSTER_HERD_DATA@@@std@@PAX@1@ABH@Z
_TEXT	SEGMENT
__Loc$ = -16						; size = 12
_this$ = -4						; size = 4
__Keyval$ = 8						; size = 4
??$_Find@H@?$_Tree@V?$_Tmap_traits@HU_MONSTER_HERD_DATA@@U?$less@H@std@@V?$allocator@U?$pair@$$CBHU_MONSTER_HERD_DATA@@@std@@@3@$0A@@std@@@std@@ABEPAU?$_Tree_node@U?$pair@$$CBHU_MONSTER_HERD_DATA@@@std@@PAX@1@ABH@Z PROC ; std::_Tree<std::_Tmap_traits<int,_MONSTER_HERD_DATA,std::less<int>,std::allocator<std::pair<int const ,_MONSTER_HERD_DATA> >,0> >::_Find<int>, COMDAT
; _this$ = ecx

; 1457 :     _NODISCARD _Nodeptr _Find(const _Other& _Keyval) const {

  00000	55		 push	 ebp
  00001	8b ec		 mov	 ebp, esp
  00003	83 ec 50	 sub	 esp, 80			; 00000050H
  00006	53		 push	 ebx
  00007	56		 push	 esi
  00008	57		 push	 edi
  00009	89 4d fc	 mov	 DWORD PTR _this$[ebp], ecx

; 1458 :         const _Tree_find_result<_Nodeptr> _Loc = _Find_lower_bound(_Keyval);

  0000c	8b 45 08	 mov	 eax, DWORD PTR __Keyval$[ebp]
  0000f	50		 push	 eax
  00010	8d 4d f0	 lea	 ecx, DWORD PTR __Loc$[ebp]
  00013	51		 push	 ecx
  00014	8b 4d fc	 mov	 ecx, DWORD PTR _this$[ebp]
  00017	e8 00 00 00 00	 call	 ??$_Find_lower_bound@H@?$_Tree@V?$_Tmap_traits@HU_MONSTER_HERD_DATA@@U?$less@H@std@@V?$allocator@U?$pair@$$CBHU_MONSTER_HERD_DATA@@@std@@@3@$0A@@std@@@std@@IBE?AU?$_Tree_find_result@PAU?$_Tree_node@U?$pair@$$CBHU_MONSTER_HERD_DATA@@@std@@PAX@std@@@1@ABH@Z ; std::_Tree<std::_Tmap_traits<int,_MONSTER_HERD_DATA,std::less<int>,std::allocator<std::pair<int const ,_MONSTER_HERD_DATA> >,0> >::_Find_lower_bound<int>

; 1459 :         if (_Lower_bound_duplicate(_Loc._Bound, _Keyval)) {

  0001c	8b 45 08	 mov	 eax, DWORD PTR __Keyval$[ebp]
  0001f	50		 push	 eax
  00020	8b 4d f8	 mov	 ecx, DWORD PTR __Loc$[ebp+8]
  00023	51		 push	 ecx
  00024	8b 4d fc	 mov	 ecx, DWORD PTR _this$[ebp]
  00027	e8 00 00 00 00	 call	 ??$_Lower_bound_duplicate@H@?$_Tree@V?$_Tmap_traits@HU_MONSTER_HERD_DATA@@U?$less@H@std@@V?$allocator@U?$pair@$$CBHU_MONSTER_HERD_DATA@@@std@@@3@$0A@@std@@@std@@IBE_NQAU?$_Tree_node@U?$pair@$$CBHU_MONSTER_HERD_DATA@@@std@@PAX@1@ABH@Z ; std::_Tree<std::_Tmap_traits<int,_MONSTER_HERD_DATA,std::less<int>,std::allocator<std::pair<int const ,_MONSTER_HERD_DATA> >,0> >::_Lower_bound_duplicate<int>
  0002c	0f b6 d0	 movzx	 edx, al
  0002f	85 d2		 test	 edx, edx
  00031	74 05		 je	 SHORT $LN2@Find

; 1460 :             return _Loc._Bound;

  00033	8b 45 f8	 mov	 eax, DWORD PTR __Loc$[ebp+8]
  00036	eb 0a		 jmp	 SHORT $LN1@Find
$LN2@Find:

; 1461 :         }
; 1462 : 
; 1463 :         return _Get_scary()->_Myhead;

  00038	8b 4d fc	 mov	 ecx, DWORD PTR _this$[ebp]
  0003b	e8 00 00 00 00	 call	 ?_Get_scary@?$_Tree@V?$_Tmap_traits@HU_MONSTER_HERD_DATA@@U?$less@H@std@@V?$allocator@U?$pair@$$CBHU_MONSTER_HERD_DATA@@@std@@@3@$0A@@std@@@std@@IBEPBV?$_Tree_val@U?$_Tree_simple_types@U?$pair@$$CBHU_MONSTER_HERD_DATA@@@std@@@std@@@2@XZ ; std::_Tree<std::_Tmap_traits<int,_MONSTER_HERD_DATA,std::less<int>,std::allocator<std::pair<int const ,_MONSTER_HERD_DATA> >,0> >::_Get_scary
  00040	8b 00		 mov	 eax, DWORD PTR [eax]
$LN1@Find:

; 1464 :     }

  00042	5f		 pop	 edi
  00043	5e		 pop	 esi
  00044	5b		 pop	 ebx
  00045	8b e5		 mov	 esp, ebp
  00047	5d		 pop	 ebp
  00048	c2 04 00	 ret	 4
??$_Find@H@?$_Tree@V?$_Tmap_traits@HU_MONSTER_HERD_DATA@@U?$less@H@std@@V?$allocator@U?$pair@$$CBHU_MONSTER_HERD_DATA@@@std@@@3@$0A@@std@@@std@@ABEPAU?$_Tree_node@U?$pair@$$CBHU_MONSTER_HERD_DATA@@@std@@PAX@1@ABH@Z ENDP ; std::_Tree<std::_Tmap_traits<int,_MONSTER_HERD_DATA,std::less<int>,std::allocator<std::pair<int const ,_MONSTER_HERD_DATA> >,0> >::_Find<int>
_TEXT	ENDS
; Function compile flags: /Odtp /ZI
; File C:\Program Files (x86)\Microsoft Visual Studio\2019\Community\VC\Tools\MSVC\14.27.29110\include\xutility
;	COMDAT ?pointer_to@?$pointer_traits@PAU?$pair@$$CBHU_MONSTER_HERD_DATA@@@std@@@std@@SAPAU?$pair@$$CBHU_MONSTER_HERD_DATA@@@2@AAU32@@Z
_TEXT	SEGMENT
__Val$ = 8						; size = 4
?pointer_to@?$pointer_traits@PAU?$pair@$$CBHU_MONSTER_HERD_DATA@@@std@@@std@@SAPAU?$pair@$$CBHU_MONSTER_HERD_DATA@@@2@AAU32@@Z PROC ; std::pointer_traits<std::pair<int const ,_MONSTER_HERD_DATA> *>::pointer_to, COMDAT

; 146  :     _NODISCARD static _CONSTEXPR20 pointer pointer_to(_Reftype _Val) noexcept {

  00000	55		 push	 ebp
  00001	8b ec		 mov	 ebp, esp
  00003	83 ec 40	 sub	 esp, 64			; 00000040H
  00006	53		 push	 ebx
  00007	56		 push	 esi
  00008	57		 push	 edi

; 147  :         return _STD addressof(_Val);

  00009	8b 45 08	 mov	 eax, DWORD PTR __Val$[ebp]
  0000c	50		 push	 eax
  0000d	e8 00 00 00 00	 call	 ??$addressof@U?$pair@$$CBHU_MONSTER_HERD_DATA@@@std@@@std@@YAPAU?$pair@$$CBHU_MONSTER_HERD_DATA@@@0@AAU10@@Z ; std::addressof<std::pair<int const ,_MONSTER_HERD_DATA> >
  00012	83 c4 04	 add	 esp, 4

; 148  :     }

  00015	5f		 pop	 edi
  00016	5e		 pop	 esi
  00017	5b		 pop	 ebx
  00018	8b e5		 mov	 esp, ebp
  0001a	5d		 pop	 ebp
  0001b	c3		 ret	 0
?pointer_to@?$pointer_traits@PAU?$pair@$$CBHU_MONSTER_HERD_DATA@@@std@@@std@@SAPAU?$pair@$$CBHU_MONSTER_HERD_DATA@@@2@AAU32@@Z ENDP ; std::pointer_traits<std::pair<int const ,_MONSTER_HERD_DATA> *>::pointer_to
_TEXT	ENDS
; Function compile flags: /Odtp /ZI
;	COMDAT ??0?$_Tree_iterator@V?$_Tree_val@U?$_Tree_simple_types@U?$pair@$$CBHU_MONSTER_HERD_DATA@@@std@@@std@@@std@@@std@@QAE@PAU?$_Tree_node@U?$pair@$$CBHU_MONSTER_HERD_DATA@@@std@@PAX@1@PBV?$_Tree_val@U?$_Tree_simple_types@U?$pair@$$CBHU_MONSTER_HERD_DATA@@@std@@@std@@@1@@Z
_TEXT	SEGMENT
_this$ = -4						; size = 4
___param0$ = 8						; size = 4
___param1$ = 12						; size = 4
??0?$_Tree_iterator@V?$_Tree_val@U?$_Tree_simple_types@U?$pair@$$CBHU_MONSTER_HERD_DATA@@@std@@@std@@@std@@@std@@QAE@PAU?$_Tree_node@U?$pair@$$CBHU_MONSTER_HERD_DATA@@@std@@PAX@1@PBV?$_Tree_val@U?$_Tree_simple_types@U?$pair@$$CBHU_MONSTER_HERD_DATA@@@std@@@std@@@1@@Z PROC ; std::_Tree_iterator<std::_Tree_val<std::_Tree_simple_types<std::pair<int const ,_MONSTER_HERD_DATA> > > >::_Tree_iterator<std::_Tree_val<std::_Tree_simple_types<std::pair<int const ,_MONSTER_HERD_DATA> > > >, COMDAT
; _this$ = ecx
  00000	55		 push	 ebp
  00001	8b ec		 mov	 ebp, esp
  00003	83 ec 44	 sub	 esp, 68			; 00000044H
  00006	53		 push	 ebx
  00007	56		 push	 esi
  00008	57		 push	 edi
  00009	89 4d fc	 mov	 DWORD PTR _this$[ebp], ecx
  0000c	8b 45 0c	 mov	 eax, DWORD PTR ___param1$[ebp]
  0000f	50		 push	 eax
  00010	8b 4d 08	 mov	 ecx, DWORD PTR ___param0$[ebp]
  00013	51		 push	 ecx
  00014	8b 4d fc	 mov	 ecx, DWORD PTR _this$[ebp]
  00017	e8 00 00 00 00	 call	 ??0?$_Tree_const_iterator@V?$_Tree_val@U?$_Tree_simple_types@U?$pair@$$CBHU_MONSTER_HERD_DATA@@@std@@@std@@@std@@@std@@QAE@PAU?$_Tree_node@U?$pair@$$CBHU_MONSTER_HERD_DATA@@@std@@PAX@1@PBV?$_Tree_val@U?$_Tree_simple_types@U?$pair@$$CBHU_MONSTER_HERD_DATA@@@std@@@std@@@1@@Z
  0001c	8b 45 fc	 mov	 eax, DWORD PTR _this$[ebp]
  0001f	5f		 pop	 edi
  00020	5e		 pop	 esi
  00021	5b		 pop	 ebx
  00022	8b e5		 mov	 esp, ebp
  00024	5d		 pop	 ebp
  00025	c2 08 00	 ret	 8
??0?$_Tree_iterator@V?$_Tree_val@U?$_Tree_simple_types@U?$pair@$$CBHU_MONSTER_HERD_DATA@@@std@@@std@@@std@@@std@@QAE@PAU?$_Tree_node@U?$pair@$$CBHU_MONSTER_HERD_DATA@@@std@@PAX@1@PBV?$_Tree_val@U?$_Tree_simple_types@U?$pair@$$CBHU_MONSTER_HERD_DATA@@@std@@@std@@@1@@Z ENDP ; std::_Tree_iterator<std::_Tree_val<std::_Tree_simple_types<std::pair<int const ,_MONSTER_HERD_DATA> > > >::_Tree_iterator<std::_Tree_val<std::_Tree_simple_types<std::pair<int const ,_MONSTER_HERD_DATA> > > >
_TEXT	ENDS
; Function compile flags: /Odtp /ZI
; File C:\Program Files (x86)\Microsoft Visual Studio\2019\Community\VC\Tools\MSVC\14.27.29110\include\xtree
;	COMDAT ??E?$_Tree_iterator@V?$_Tree_val@U?$_Tree_simple_types@U?$pair@$$CBHU_MONSTER_HERD_DATA@@@std@@@std@@@std@@@std@@QAE?AV01@H@Z
_TEXT	SEGMENT
__Tmp$ = -8						; size = 4
_this$ = -4						; size = 4
___$ReturnUdt$ = 8					; size = 4
___formal$ = 12						; size = 4
??E?$_Tree_iterator@V?$_Tree_val@U?$_Tree_simple_types@U?$pair@$$CBHU_MONSTER_HERD_DATA@@@std@@@std@@@std@@@std@@QAE?AV01@H@Z PROC ; std::_Tree_iterator<std::_Tree_val<std::_Tree_simple_types<std::pair<int const ,_MONSTER_HERD_DATA> > > >::operator++, COMDAT
; _this$ = ecx

; 285  :     _Tree_iterator operator++(int) {

  00000	55		 push	 ebp
  00001	8b ec		 mov	 ebp, esp
  00003	83 ec 48	 sub	 esp, 72			; 00000048H
  00006	53		 push	 ebx
  00007	56		 push	 esi
  00008	57		 push	 edi
  00009	89 4d fc	 mov	 DWORD PTR _this$[ebp], ecx

; 286  :         _Tree_iterator _Tmp = *this;

  0000c	8b 45 fc	 mov	 eax, DWORD PTR _this$[ebp]
  0000f	8b 08		 mov	 ecx, DWORD PTR [eax]
  00011	89 4d f8	 mov	 DWORD PTR __Tmp$[ebp], ecx

; 287  :         _Mybase::operator++();

  00014	8b 4d fc	 mov	 ecx, DWORD PTR _this$[ebp]
  00017	e8 00 00 00 00	 call	 ??E?$_Tree_const_iterator@V?$_Tree_val@U?$_Tree_simple_types@U?$pair@$$CBHU_MONSTER_HERD_DATA@@@std@@@std@@@std@@@std@@QAEAAV01@XZ ; std::_Tree_const_iterator<std::_Tree_val<std::_Tree_simple_types<std::pair<int const ,_MONSTER_HERD_DATA> > > >::operator++

; 288  :         return _Tmp;

  0001c	8b 45 08	 mov	 eax, DWORD PTR ___$ReturnUdt$[ebp]
  0001f	8b 4d f8	 mov	 ecx, DWORD PTR __Tmp$[ebp]
  00022	89 08		 mov	 DWORD PTR [eax], ecx
  00024	8b 45 08	 mov	 eax, DWORD PTR ___$ReturnUdt$[ebp]

; 289  :     }

  00027	5f		 pop	 edi
  00028	5e		 pop	 esi
  00029	5b		 pop	 ebx
  0002a	8b e5		 mov	 esp, ebp
  0002c	5d		 pop	 ebp
  0002d	c2 08 00	 ret	 8
??E?$_Tree_iterator@V?$_Tree_val@U?$_Tree_simple_types@U?$pair@$$CBHU_MONSTER_HERD_DATA@@@std@@@std@@@std@@@std@@QAE?AV01@H@Z ENDP ; std::_Tree_iterator<std::_Tree_val<std::_Tree_simple_types<std::pair<int const ,_MONSTER_HERD_DATA> > > >::operator++
_TEXT	ENDS
; Function compile flags: /Odtp /ZI
; File C:\Program Files (x86)\Microsoft Visual Studio\2019\Community\VC\Tools\MSVC\14.27.29110\include\xtree
;	COMDAT ??C?$_Tree_iterator@V?$_Tree_val@U?$_Tree_simple_types@U?$pair@$$CBHU_MONSTER_HERD_DATA@@@std@@@std@@@std@@@std@@QBEPAU?$pair@$$CBHU_MONSTER_HERD_DATA@@@1@XZ
_TEXT	SEGMENT
_this$ = -4						; size = 4
??C?$_Tree_iterator@V?$_Tree_val@U?$_Tree_simple_types@U?$pair@$$CBHU_MONSTER_HERD_DATA@@@std@@@std@@@std@@@std@@QBEPAU?$pair@$$CBHU_MONSTER_HERD_DATA@@@1@XZ PROC ; std::_Tree_iterator<std::_Tree_val<std::_Tree_simple_types<std::pair<int const ,_MONSTER_HERD_DATA> > > >::operator->, COMDAT
; _this$ = ecx

; 276  :     _NODISCARD pointer operator->() const {

  00000	55		 push	 ebp
  00001	8b ec		 mov	 ebp, esp
  00003	83 ec 44	 sub	 esp, 68			; 00000044H
  00006	53		 push	 ebx
  00007	56		 push	 esi
  00008	57		 push	 edi
  00009	89 4d fc	 mov	 DWORD PTR _this$[ebp], ecx

; 277  :         return pointer_traits<pointer>::pointer_to(**this);

  0000c	8b 4d fc	 mov	 ecx, DWORD PTR _this$[ebp]
  0000f	e8 00 00 00 00	 call	 ??D?$_Tree_iterator@V?$_Tree_val@U?$_Tree_simple_types@U?$pair@$$CBHU_MONSTER_HERD_DATA@@@std@@@std@@@std@@@std@@QBEAAU?$pair@$$CBHU_MONSTER_HERD_DATA@@@1@XZ ; std::_Tree_iterator<std::_Tree_val<std::_Tree_simple_types<std::pair<int const ,_MONSTER_HERD_DATA> > > >::operator*
  00014	50		 push	 eax
  00015	e8 00 00 00 00	 call	 ?pointer_to@?$pointer_traits@PAU?$pair@$$CBHU_MONSTER_HERD_DATA@@@std@@@std@@SAPAU?$pair@$$CBHU_MONSTER_HERD_DATA@@@2@AAU32@@Z ; std::pointer_traits<std::pair<int const ,_MONSTER_HERD_DATA> *>::pointer_to
  0001a	83 c4 04	 add	 esp, 4

; 278  :     }

  0001d	5f		 pop	 edi
  0001e	5e		 pop	 esi
  0001f	5b		 pop	 ebx
  00020	8b e5		 mov	 esp, ebp
  00022	5d		 pop	 ebp
  00023	c3		 ret	 0
??C?$_Tree_iterator@V?$_Tree_val@U?$_Tree_simple_types@U?$pair@$$CBHU_MONSTER_HERD_DATA@@@std@@@std@@@std@@@std@@QBEPAU?$pair@$$CBHU_MONSTER_HERD_DATA@@@1@XZ ENDP ; std::_Tree_iterator<std::_Tree_val<std::_Tree_simple_types<std::pair<int const ,_MONSTER_HERD_DATA> > > >::operator->
_TEXT	ENDS
; Function compile flags: /Odtp /ZI
; File C:\Program Files (x86)\Microsoft Visual Studio\2019\Community\VC\Tools\MSVC\14.27.29110\include\xtree
;	COMDAT ??D?$_Tree_iterator@V?$_Tree_val@U?$_Tree_simple_types@U?$pair@$$CBHU_MONSTER_HERD_DATA@@@std@@@std@@@std@@@std@@QBEAAU?$pair@$$CBHU_MONSTER_HERD_DATA@@@1@XZ
_TEXT	SEGMENT
_this$ = -4						; size = 4
??D?$_Tree_iterator@V?$_Tree_val@U?$_Tree_simple_types@U?$pair@$$CBHU_MONSTER_HERD_DATA@@@std@@@std@@@std@@@std@@QBEAAU?$pair@$$CBHU_MONSTER_HERD_DATA@@@1@XZ PROC ; std::_Tree_iterator<std::_Tree_val<std::_Tree_simple_types<std::pair<int const ,_MONSTER_HERD_DATA> > > >::operator*, COMDAT
; _this$ = ecx

; 272  :     _NODISCARD reference operator*() const {

  00000	55		 push	 ebp
  00001	8b ec		 mov	 ebp, esp
  00003	83 ec 44	 sub	 esp, 68			; 00000044H
  00006	53		 push	 ebx
  00007	56		 push	 esi
  00008	57		 push	 edi
  00009	89 4d fc	 mov	 DWORD PTR _this$[ebp], ecx

; 273  :         return const_cast<reference>(_Mybase::operator*());

  0000c	8b 4d fc	 mov	 ecx, DWORD PTR _this$[ebp]
  0000f	e8 00 00 00 00	 call	 ??D?$_Tree_const_iterator@V?$_Tree_val@U?$_Tree_simple_types@U?$pair@$$CBHU_MONSTER_HERD_DATA@@@std@@@std@@@std@@@std@@QBEABU?$pair@$$CBHU_MONSTER_HERD_DATA@@@1@XZ ; std::_Tree_const_iterator<std::_Tree_val<std::_Tree_simple_types<std::pair<int const ,_MONSTER_HERD_DATA> > > >::operator*

; 274  :     }

  00014	5f		 pop	 edi
  00015	5e		 pop	 esi
  00016	5b		 pop	 ebx
  00017	8b e5		 mov	 esp, ebp
  00019	5d		 pop	 ebp
  0001a	c3		 ret	 0
??D?$_Tree_iterator@V?$_Tree_val@U?$_Tree_simple_types@U?$pair@$$CBHU_MONSTER_HERD_DATA@@@std@@@std@@@std@@@std@@QBEAAU?$pair@$$CBHU_MONSTER_HERD_DATA@@@1@XZ ENDP ; std::_Tree_iterator<std::_Tree_val<std::_Tree_simple_types<std::pair<int const ,_MONSTER_HERD_DATA> > > >::operator*
_TEXT	ENDS
; Function compile flags: /Odtp /ZI
;	COMDAT ??0?$_Tree_const_iterator@V?$_Tree_val@U?$_Tree_simple_types@U?$pair@$$CBHU_MONSTER_HERD_DATA@@@std@@@std@@@std@@@std@@QAE@PAU?$_Tree_node@U?$pair@$$CBHU_MONSTER_HERD_DATA@@@std@@PAX@1@PBV?$_Tree_val@U?$_Tree_simple_types@U?$pair@$$CBHU_MONSTER_HERD_DATA@@@std@@@std@@@1@@Z
_TEXT	SEGMENT
_this$ = -4						; size = 4
___param0$ = 8						; size = 4
___param1$ = 12						; size = 4
??0?$_Tree_const_iterator@V?$_Tree_val@U?$_Tree_simple_types@U?$pair@$$CBHU_MONSTER_HERD_DATA@@@std@@@std@@@std@@@std@@QAE@PAU?$_Tree_node@U?$pair@$$CBHU_MONSTER_HERD_DATA@@@std@@PAX@1@PBV?$_Tree_val@U?$_Tree_simple_types@U?$pair@$$CBHU_MONSTER_HERD_DATA@@@std@@@std@@@1@@Z PROC ; std::_Tree_const_iterator<std::_Tree_val<std::_Tree_simple_types<std::pair<int const ,_MONSTER_HERD_DATA> > > >::_Tree_const_iterator<std::_Tree_val<std::_Tree_simple_types<std::pair<int const ,_MONSTER_HERD_DATA> > > >, COMDAT
; _this$ = ecx
  00000	55		 push	 ebp
  00001	8b ec		 mov	 ebp, esp
  00003	83 ec 44	 sub	 esp, 68			; 00000044H
  00006	53		 push	 ebx
  00007	56		 push	 esi
  00008	57		 push	 edi
  00009	89 4d fc	 mov	 DWORD PTR _this$[ebp], ecx
  0000c	8b 45 0c	 mov	 eax, DWORD PTR ___param1$[ebp]
  0000f	50		 push	 eax
  00010	8b 4d 08	 mov	 ecx, DWORD PTR ___param0$[ebp]
  00013	51		 push	 ecx
  00014	8b 4d fc	 mov	 ecx, DWORD PTR _this$[ebp]
  00017	e8 00 00 00 00	 call	 ??0?$_Tree_unchecked_const_iterator@V?$_Tree_val@U?$_Tree_simple_types@U?$pair@$$CBHU_MONSTER_HERD_DATA@@@std@@@std@@@std@@U_Iterator_base0@2@@std@@QAE@PAU?$_Tree_node@U?$pair@$$CBHU_MONSTER_HERD_DATA@@@std@@PAX@1@PBV?$_Tree_val@U?$_Tree_simple_types@U?$pair@$$CBHU_MONSTER_HERD_DATA@@@std@@@std@@@1@@Z ; std::_Tree_unchecked_const_iterator<std::_Tree_val<std::_Tree_simple_types<std::pair<int const ,_MONSTER_HERD_DATA> > >,std::_Iterator_base0>::_Tree_unchecked_const_iterator<std::_Tree_val<std::_Tree_simple_types<std::pair<int const ,_MONSTER_HERD_DATA> > >,std::_Iterator_base0>
  0001c	8b 45 fc	 mov	 eax, DWORD PTR _this$[ebp]
  0001f	5f		 pop	 edi
  00020	5e		 pop	 esi
  00021	5b		 pop	 ebx
  00022	8b e5		 mov	 esp, ebp
  00024	5d		 pop	 ebp
  00025	c2 08 00	 ret	 8
??0?$_Tree_const_iterator@V?$_Tree_val@U?$_Tree_simple_types@U?$pair@$$CBHU_MONSTER_HERD_DATA@@@std@@@std@@@std@@@std@@QAE@PAU?$_Tree_node@U?$pair@$$CBHU_MONSTER_HERD_DATA@@@std@@PAX@1@PBV?$_Tree_val@U?$_Tree_simple_types@U?$pair@$$CBHU_MONSTER_HERD_DATA@@@std@@@std@@@1@@Z ENDP ; std::_Tree_const_iterator<std::_Tree_val<std::_Tree_simple_types<std::pair<int const ,_MONSTER_HERD_DATA> > > >::_Tree_const_iterator<std::_Tree_val<std::_Tree_simple_types<std::pair<int const ,_MONSTER_HERD_DATA> > > >
_TEXT	ENDS
; Function compile flags: /Odtp /ZI
; File C:\Program Files (x86)\Microsoft Visual Studio\2019\Community\VC\Tools\MSVC\14.27.29110\include\xtree
;	COMDAT ?_Unwrapped@?$_Tree_const_iterator@V?$_Tree_val@U?$_Tree_simple_types@U?$pair@$$CBHU_MONSTER_HERD_DATA@@@std@@@std@@@std@@@std@@QBE?AV?$_Tree_unchecked_const_iterator@V?$_Tree_val@U?$_Tree_simple_types@U?$pair@$$CBHU_MONSTER_HERD_DATA@@@std@@@std@@@std@@U_Iterator_base0@2@@2@XZ
_TEXT	SEGMENT
_this$ = -4						; size = 4
___$ReturnUdt$ = 8					; size = 4
?_Unwrapped@?$_Tree_const_iterator@V?$_Tree_val@U?$_Tree_simple_types@U?$pair@$$CBHU_MONSTER_HERD_DATA@@@std@@@std@@@std@@@std@@QBE?AV?$_Tree_unchecked_const_iterator@V?$_Tree_val@U?$_Tree_simple_types@U?$pair@$$CBHU_MONSTER_HERD_DATA@@@std@@@std@@@std@@U_Iterator_base0@2@@2@XZ PROC ; std::_Tree_const_iterator<std::_Tree_val<std::_Tree_simple_types<std::pair<int const ,_MONSTER_HERD_DATA> > > >::_Unwrapped, COMDAT
; _this$ = ecx

; 247  :     _NODISCARD _Tree_unchecked_const_iterator<_Mytree> _Unwrapped() const {

  00000	55		 push	 ebp
  00001	8b ec		 mov	 ebp, esp
  00003	83 ec 44	 sub	 esp, 68			; 00000044H
  00006	53		 push	 ebx
  00007	56		 push	 esi
  00008	57		 push	 edi
  00009	89 4d fc	 mov	 DWORD PTR _this$[ebp], ecx

; 248  :         return _Tree_unchecked_const_iterator<_Mytree>(this->_Ptr, static_cast<const _Mytree*>(this->_Getcont()));

  0000c	8b 4d fc	 mov	 ecx, DWORD PTR _this$[ebp]
  0000f	e8 00 00 00 00	 call	 ?_Getcont@_Iterator_base0@std@@QBEPBU_Container_base0@2@XZ ; std::_Iterator_base0::_Getcont
  00014	50		 push	 eax
  00015	8b 45 fc	 mov	 eax, DWORD PTR _this$[ebp]
  00018	8b 08		 mov	 ecx, DWORD PTR [eax]
  0001a	51		 push	 ecx
  0001b	8b 4d 08	 mov	 ecx, DWORD PTR ___$ReturnUdt$[ebp]
  0001e	e8 00 00 00 00	 call	 ??0?$_Tree_unchecked_const_iterator@V?$_Tree_val@U?$_Tree_simple_types@U?$pair@$$CBHU_MONSTER_HERD_DATA@@@std@@@std@@@std@@U_Iterator_base0@2@@std@@QAE@PAU?$_Tree_node@U?$pair@$$CBHU_MONSTER_HERD_DATA@@@std@@PAX@1@PBV?$_Tree_val@U?$_Tree_simple_types@U?$pair@$$CBHU_MONSTER_HERD_DATA@@@std@@@std@@@1@@Z ; std::_Tree_unchecked_const_iterator<std::_Tree_val<std::_Tree_simple_types<std::pair<int const ,_MONSTER_HERD_DATA> > >,std::_Iterator_base0>::_Tree_unchecked_const_iterator<std::_Tree_val<std::_Tree_simple_types<std::pair<int const ,_MONSTER_HERD_DATA> > >,std::_Iterator_base0>
  00023	8b 45 08	 mov	 eax, DWORD PTR ___$ReturnUdt$[ebp]

; 249  :     }

  00026	5f		 pop	 edi
  00027	5e		 pop	 esi
  00028	5b		 pop	 ebx
  00029	8b e5		 mov	 esp, ebp
  0002b	5d		 pop	 ebp
  0002c	c2 04 00	 ret	 4
?_Unwrapped@?$_Tree_const_iterator@V?$_Tree_val@U?$_Tree_simple_types@U?$pair@$$CBHU_MONSTER_HERD_DATA@@@std@@@std@@@std@@@std@@QBE?AV?$_Tree_unchecked_const_iterator@V?$_Tree_val@U?$_Tree_simple_types@U?$pair@$$CBHU_MONSTER_HERD_DATA@@@std@@@std@@@std@@U_Iterator_base0@2@@2@XZ ENDP ; std::_Tree_const_iterator<std::_Tree_val<std::_Tree_simple_types<std::pair<int const ,_MONSTER_HERD_DATA> > > >::_Unwrapped
_TEXT	ENDS
; Function compile flags: /Odtp /ZI
; File C:\Program Files (x86)\Microsoft Visual Studio\2019\Community\VC\Tools\MSVC\14.27.29110\include\xtree
;	COMDAT ??9?$_Tree_const_iterator@V?$_Tree_val@U?$_Tree_simple_types@U?$pair@$$CBHU_MONSTER_HERD_DATA@@@std@@@std@@@std@@@std@@QBE_NABV01@@Z
_TEXT	SEGMENT
tv69 = -72						; size = 4
_this$ = -4						; size = 4
__Right$ = 8						; size = 4
??9?$_Tree_const_iterator@V?$_Tree_val@U?$_Tree_simple_types@U?$pair@$$CBHU_MONSTER_HERD_DATA@@@std@@@std@@@std@@@std@@QBE_NABV01@@Z PROC ; std::_Tree_const_iterator<std::_Tree_val<std::_Tree_simple_types<std::pair<int const ,_MONSTER_HERD_DATA> > > >::operator!=, COMDAT
; _this$ = ecx

; 235  :     _NODISCARD bool operator!=(const _Tree_const_iterator& _Right) const {

  00000	55		 push	 ebp
  00001	8b ec		 mov	 ebp, esp
  00003	83 ec 48	 sub	 esp, 72			; 00000048H
  00006	53		 push	 ebx
  00007	56		 push	 esi
  00008	57		 push	 edi
  00009	89 4d fc	 mov	 DWORD PTR _this$[ebp], ecx

; 236  :         return !(*this == _Right);

  0000c	8b 45 08	 mov	 eax, DWORD PTR __Right$[ebp]
  0000f	50		 push	 eax
  00010	8b 4d fc	 mov	 ecx, DWORD PTR _this$[ebp]
  00013	e8 00 00 00 00	 call	 ??8?$_Tree_const_iterator@V?$_Tree_val@U?$_Tree_simple_types@U?$pair@$$CBHU_MONSTER_HERD_DATA@@@std@@@std@@@std@@@std@@QBE_NABV01@@Z ; std::_Tree_const_iterator<std::_Tree_val<std::_Tree_simple_types<std::pair<int const ,_MONSTER_HERD_DATA> > > >::operator==
  00018	0f b6 c8	 movzx	 ecx, al
  0001b	85 c9		 test	 ecx, ecx
  0001d	75 09		 jne	 SHORT $LN3@operator
  0001f	c7 45 b8 01 00
	00 00		 mov	 DWORD PTR tv69[ebp], 1
  00026	eb 07		 jmp	 SHORT $LN4@operator
$LN3@operator:
  00028	c7 45 b8 00 00
	00 00		 mov	 DWORD PTR tv69[ebp], 0
$LN4@operator:
  0002f	8a 45 b8	 mov	 al, BYTE PTR tv69[ebp]

; 237  :     }

  00032	5f		 pop	 edi
  00033	5e		 pop	 esi
  00034	5b		 pop	 ebx
  00035	8b e5		 mov	 esp, ebp
  00037	5d		 pop	 ebp
  00038	c2 04 00	 ret	 4
??9?$_Tree_const_iterator@V?$_Tree_val@U?$_Tree_simple_types@U?$pair@$$CBHU_MONSTER_HERD_DATA@@@std@@@std@@@std@@@std@@QBE_NABV01@@Z ENDP ; std::_Tree_const_iterator<std::_Tree_val<std::_Tree_simple_types<std::pair<int const ,_MONSTER_HERD_DATA> > > >::operator!=
_TEXT	ENDS
; Function compile flags: /Odtp /ZI
; File C:\Program Files (x86)\Microsoft Visual Studio\2019\Community\VC\Tools\MSVC\14.27.29110\include\xtree
;	COMDAT ??8?$_Tree_const_iterator@V?$_Tree_val@U?$_Tree_simple_types@U?$pair@$$CBHU_MONSTER_HERD_DATA@@@std@@@std@@@std@@@std@@QBE_NABV01@@Z
_TEXT	SEGMENT
tv75 = -72						; size = 4
_this$ = -4						; size = 4
__Right$ = 8						; size = 4
??8?$_Tree_const_iterator@V?$_Tree_val@U?$_Tree_simple_types@U?$pair@$$CBHU_MONSTER_HERD_DATA@@@std@@@std@@@std@@@std@@QBE_NABV01@@Z PROC ; std::_Tree_const_iterator<std::_Tree_val<std::_Tree_simple_types<std::pair<int const ,_MONSTER_HERD_DATA> > > >::operator==, COMDAT
; _this$ = ecx

; 227  :     _NODISCARD bool operator==(const _Tree_const_iterator& _Right) const {

  00000	55		 push	 ebp
  00001	8b ec		 mov	 ebp, esp
  00003	83 ec 48	 sub	 esp, 72			; 00000048H
  00006	53		 push	 ebx
  00007	56		 push	 esi
  00008	57		 push	 edi
  00009	89 4d fc	 mov	 DWORD PTR _this$[ebp], ecx

; 228  : #if _ITERATOR_DEBUG_LEVEL == 2
; 229  :         _STL_VERIFY(this->_Getcont() == _Right._Getcont(), "map/set iterators incompatible");
; 230  : #endif // _ITERATOR_DEBUG_LEVEL == 2
; 231  : 
; 232  :         return this->_Ptr == _Right._Ptr;

  0000c	8b 45 fc	 mov	 eax, DWORD PTR _this$[ebp]
  0000f	8b 4d 08	 mov	 ecx, DWORD PTR __Right$[ebp]
  00012	8b 10		 mov	 edx, DWORD PTR [eax]
  00014	3b 11		 cmp	 edx, DWORD PTR [ecx]
  00016	75 09		 jne	 SHORT $LN3@operator
  00018	c7 45 b8 01 00
	00 00		 mov	 DWORD PTR tv75[ebp], 1
  0001f	eb 07		 jmp	 SHORT $LN4@operator
$LN3@operator:
  00021	c7 45 b8 00 00
	00 00		 mov	 DWORD PTR tv75[ebp], 0
$LN4@operator:
  00028	8a 45 b8	 mov	 al, BYTE PTR tv75[ebp]

; 233  :     }

  0002b	5f		 pop	 edi
  0002c	5e		 pop	 esi
  0002d	5b		 pop	 ebx
  0002e	8b e5		 mov	 esp, ebp
  00030	5d		 pop	 ebp
  00031	c2 04 00	 ret	 4
??8?$_Tree_const_iterator@V?$_Tree_val@U?$_Tree_simple_types@U?$pair@$$CBHU_MONSTER_HERD_DATA@@@std@@@std@@@std@@@std@@QBE_NABV01@@Z ENDP ; std::_Tree_const_iterator<std::_Tree_val<std::_Tree_simple_types<std::pair<int const ,_MONSTER_HERD_DATA> > > >::operator==
_TEXT	ENDS
; Function compile flags: /Odtp /ZI
; File C:\Program Files (x86)\Microsoft Visual Studio\2019\Community\VC\Tools\MSVC\14.27.29110\include\xtree
;	COMDAT ??E?$_Tree_const_iterator@V?$_Tree_val@U?$_Tree_simple_types@U?$pair@$$CBHU_MONSTER_HERD_DATA@@@std@@@std@@@std@@@std@@QAEAAV01@XZ
_TEXT	SEGMENT
_this$ = -4						; size = 4
??E?$_Tree_const_iterator@V?$_Tree_val@U?$_Tree_simple_types@U?$pair@$$CBHU_MONSTER_HERD_DATA@@@std@@@std@@@std@@@std@@QAEAAV01@XZ PROC ; std::_Tree_const_iterator<std::_Tree_val<std::_Tree_simple_types<std::pair<int const ,_MONSTER_HERD_DATA> > > >::operator++, COMDAT
; _this$ = ecx

; 192  :     _Tree_const_iterator& operator++() {

  00000	55		 push	 ebp
  00001	8b ec		 mov	 ebp, esp
  00003	83 ec 44	 sub	 esp, 68			; 00000044H
  00006	53		 push	 ebx
  00007	56		 push	 esi
  00008	57		 push	 edi
  00009	89 4d fc	 mov	 DWORD PTR _this$[ebp], ecx

; 193  : #if _ITERATOR_DEBUG_LEVEL == 2
; 194  :         _STL_VERIFY(this->_Getcont(), "cannot increment value-initialized map/set iterator");
; 195  :         _STL_VERIFY(!this->_Ptr->_Isnil, "cannot increment end map/set iterator");
; 196  : #endif // _ITERATOR_DEBUG_LEVEL == 2
; 197  : 
; 198  :         _Mybase::operator++();

  0000c	8b 4d fc	 mov	 ecx, DWORD PTR _this$[ebp]
  0000f	e8 00 00 00 00	 call	 ??E?$_Tree_unchecked_const_iterator@V?$_Tree_val@U?$_Tree_simple_types@U?$pair@$$CBHU_MONSTER_HERD_DATA@@@std@@@std@@@std@@U_Iterator_base0@2@@std@@QAEAAV01@XZ ; std::_Tree_unchecked_const_iterator<std::_Tree_val<std::_Tree_simple_types<std::pair<int const ,_MONSTER_HERD_DATA> > >,std::_Iterator_base0>::operator++

; 199  :         return *this;

  00014	8b 45 fc	 mov	 eax, DWORD PTR _this$[ebp]

; 200  :     }

  00017	5f		 pop	 edi
  00018	5e		 pop	 esi
  00019	5b		 pop	 ebx
  0001a	8b e5		 mov	 esp, ebp
  0001c	5d		 pop	 ebp
  0001d	c3		 ret	 0
??E?$_Tree_const_iterator@V?$_Tree_val@U?$_Tree_simple_types@U?$pair@$$CBHU_MONSTER_HERD_DATA@@@std@@@std@@@std@@@std@@QAEAAV01@XZ ENDP ; std::_Tree_const_iterator<std::_Tree_val<std::_Tree_simple_types<std::pair<int const ,_MONSTER_HERD_DATA> > > >::operator++
_TEXT	ENDS
; Function compile flags: /Odtp /ZI
; File C:\Program Files (x86)\Microsoft Visual Studio\2019\Community\VC\Tools\MSVC\14.27.29110\include\xtree
;	COMDAT ??D?$_Tree_const_iterator@V?$_Tree_val@U?$_Tree_simple_types@U?$pair@$$CBHU_MONSTER_HERD_DATA@@@std@@@std@@@std@@@std@@QBEABU?$pair@$$CBHU_MONSTER_HERD_DATA@@@1@XZ
_TEXT	SEGMENT
_this$ = -4						; size = 4
??D?$_Tree_const_iterator@V?$_Tree_val@U?$_Tree_simple_types@U?$pair@$$CBHU_MONSTER_HERD_DATA@@@std@@@std@@@std@@@std@@QBEABU?$pair@$$CBHU_MONSTER_HERD_DATA@@@1@XZ PROC ; std::_Tree_const_iterator<std::_Tree_val<std::_Tree_simple_types<std::pair<int const ,_MONSTER_HERD_DATA> > > >::operator*, COMDAT
; _this$ = ecx

; 178  :     _NODISCARD reference operator*() const {

  00000	55		 push	 ebp
  00001	8b ec		 mov	 ebp, esp
  00003	83 ec 44	 sub	 esp, 68			; 00000044H
  00006	53		 push	 ebx
  00007	56		 push	 esi
  00008	57		 push	 edi
  00009	89 4d fc	 mov	 DWORD PTR _this$[ebp], ecx

; 179  : #if _ITERATOR_DEBUG_LEVEL == 2
; 180  :         const auto _Mycont = static_cast<const _Mytree*>(this->_Getcont());
; 181  :         _STL_ASSERT(_Mycont, "cannot dereference value-initialized map/set iterator");
; 182  :         _STL_VERIFY(this->_Ptr != _Mycont->_Myhead, "cannot dereference end map/set iterator");
; 183  : #endif // _ITERATOR_DEBUG_LEVEL == 2
; 184  : 
; 185  :         return this->_Ptr->_Myval;

  0000c	8b 45 fc	 mov	 eax, DWORD PTR _this$[ebp]
  0000f	8b 00		 mov	 eax, DWORD PTR [eax]
  00011	83 c0 10	 add	 eax, 16			; 00000010H

; 186  :     }

  00014	5f		 pop	 edi
  00015	5e		 pop	 esi
  00016	5b		 pop	 ebx
  00017	8b e5		 mov	 esp, ebp
  00019	5d		 pop	 ebp
  0001a	c3		 ret	 0
??D?$_Tree_const_iterator@V?$_Tree_val@U?$_Tree_simple_types@U?$pair@$$CBHU_MONSTER_HERD_DATA@@@std@@@std@@@std@@@std@@QBEABU?$pair@$$CBHU_MONSTER_HERD_DATA@@@1@XZ ENDP ; std::_Tree_const_iterator<std::_Tree_val<std::_Tree_simple_types<std::pair<int const ,_MONSTER_HERD_DATA> > > >::operator*
_TEXT	ENDS
; Function compile flags: /Odtp /ZI
; File C:\Program Files (x86)\Microsoft Visual Studio\2019\Community\VC\Tools\MSVC\14.27.29110\include\xtree
;	COMDAT ??9?$_Tree_unchecked_const_iterator@V?$_Tree_val@U?$_Tree_simple_types@U?$pair@$$CBHU_MONSTER_HERD_DATA@@@std@@@std@@@std@@U_Iterator_base0@2@@std@@QBE_NABV01@@Z
_TEXT	SEGMENT
tv69 = -72						; size = 4
_this$ = -4						; size = 4
__Right$ = 8						; size = 4
??9?$_Tree_unchecked_const_iterator@V?$_Tree_val@U?$_Tree_simple_types@U?$pair@$$CBHU_MONSTER_HERD_DATA@@@std@@@std@@@std@@U_Iterator_base0@2@@std@@QBE_NABV01@@Z PROC ; std::_Tree_unchecked_const_iterator<std::_Tree_val<std::_Tree_simple_types<std::pair<int const ,_MONSTER_HERD_DATA> > >,std::_Iterator_base0>::operator!=, COMDAT
; _this$ = ecx

; 101  :     _NODISCARD bool operator!=(const _Tree_unchecked_const_iterator& _Right) const {

  00000	55		 push	 ebp
  00001	8b ec		 mov	 ebp, esp
  00003	83 ec 48	 sub	 esp, 72			; 00000048H
  00006	53		 push	 ebx
  00007	56		 push	 esi
  00008	57		 push	 edi
  00009	89 4d fc	 mov	 DWORD PTR _this$[ebp], ecx

; 102  :         return !(*this == _Right);

  0000c	8b 45 08	 mov	 eax, DWORD PTR __Right$[ebp]
  0000f	50		 push	 eax
  00010	8b 4d fc	 mov	 ecx, DWORD PTR _this$[ebp]
  00013	e8 00 00 00 00	 call	 ??8?$_Tree_unchecked_const_iterator@V?$_Tree_val@U?$_Tree_simple_types@U?$pair@$$CBHU_MONSTER_HERD_DATA@@@std@@@std@@@std@@U_Iterator_base0@2@@std@@QBE_NABV01@@Z ; std::_Tree_unchecked_const_iterator<std::_Tree_val<std::_Tree_simple_types<std::pair<int const ,_MONSTER_HERD_DATA> > >,std::_Iterator_base0>::operator==
  00018	0f b6 c8	 movzx	 ecx, al
  0001b	85 c9		 test	 ecx, ecx
  0001d	75 09		 jne	 SHORT $LN3@operator
  0001f	c7 45 b8 01 00
	00 00		 mov	 DWORD PTR tv69[ebp], 1
  00026	eb 07		 jmp	 SHORT $LN4@operator
$LN3@operator:
  00028	c7 45 b8 00 00
	00 00		 mov	 DWORD PTR tv69[ebp], 0
$LN4@operator:
  0002f	8a 45 b8	 mov	 al, BYTE PTR tv69[ebp]

; 103  :     }

  00032	5f		 pop	 edi
  00033	5e		 pop	 esi
  00034	5b		 pop	 ebx
  00035	8b e5		 mov	 esp, ebp
  00037	5d		 pop	 ebp
  00038	c2 04 00	 ret	 4
??9?$_Tree_unchecked_const_iterator@V?$_Tree_val@U?$_Tree_simple_types@U?$pair@$$CBHU_MONSTER_HERD_DATA@@@std@@@std@@@std@@U_Iterator_base0@2@@std@@QBE_NABV01@@Z ENDP ; std::_Tree_unchecked_const_iterator<std::_Tree_val<std::_Tree_simple_types<std::pair<int const ,_MONSTER_HERD_DATA> > >,std::_Iterator_base0>::operator!=
_TEXT	ENDS
; Function compile flags: /Odtp /ZI
; File C:\Program Files (x86)\Microsoft Visual Studio\2019\Community\VC\Tools\MSVC\14.27.29110\include\xtree
;	COMDAT ??8?$_Tree_unchecked_const_iterator@V?$_Tree_val@U?$_Tree_simple_types@U?$pair@$$CBHU_MONSTER_HERD_DATA@@@std@@@std@@@std@@U_Iterator_base0@2@@std@@QBE_NABV01@@Z
_TEXT	SEGMENT
tv67 = -72						; size = 4
_this$ = -4						; size = 4
__Right$ = 8						; size = 4
??8?$_Tree_unchecked_const_iterator@V?$_Tree_val@U?$_Tree_simple_types@U?$pair@$$CBHU_MONSTER_HERD_DATA@@@std@@@std@@@std@@U_Iterator_base0@2@@std@@QBE_NABV01@@Z PROC ; std::_Tree_unchecked_const_iterator<std::_Tree_val<std::_Tree_simple_types<std::pair<int const ,_MONSTER_HERD_DATA> > >,std::_Iterator_base0>::operator==, COMDAT
; _this$ = ecx

; 97   :     _NODISCARD bool operator==(const _Tree_unchecked_const_iterator& _Right) const {

  00000	55		 push	 ebp
  00001	8b ec		 mov	 ebp, esp
  00003	83 ec 48	 sub	 esp, 72			; 00000048H
  00006	53		 push	 ebx
  00007	56		 push	 esi
  00008	57		 push	 edi
  00009	89 4d fc	 mov	 DWORD PTR _this$[ebp], ecx

; 98   :         return _Ptr == _Right._Ptr;

  0000c	8b 45 fc	 mov	 eax, DWORD PTR _this$[ebp]
  0000f	8b 4d 08	 mov	 ecx, DWORD PTR __Right$[ebp]
  00012	8b 10		 mov	 edx, DWORD PTR [eax]
  00014	3b 11		 cmp	 edx, DWORD PTR [ecx]
  00016	75 09		 jne	 SHORT $LN3@operator
  00018	c7 45 b8 01 00
	00 00		 mov	 DWORD PTR tv67[ebp], 1
  0001f	eb 07		 jmp	 SHORT $LN4@operator
$LN3@operator:
  00021	c7 45 b8 00 00
	00 00		 mov	 DWORD PTR tv67[ebp], 0
$LN4@operator:
  00028	8a 45 b8	 mov	 al, BYTE PTR tv67[ebp]

; 99   :     }

  0002b	5f		 pop	 edi
  0002c	5e		 pop	 esi
  0002d	5b		 pop	 ebx
  0002e	8b e5		 mov	 esp, ebp
  00030	5d		 pop	 ebp
  00031	c2 04 00	 ret	 4
??8?$_Tree_unchecked_const_iterator@V?$_Tree_val@U?$_Tree_simple_types@U?$pair@$$CBHU_MONSTER_HERD_DATA@@@std@@@std@@@std@@U_Iterator_base0@2@@std@@QBE_NABV01@@Z ENDP ; std::_Tree_unchecked_const_iterator<std::_Tree_val<std::_Tree_simple_types<std::pair<int const ,_MONSTER_HERD_DATA> > >,std::_Iterator_base0>::operator==
_TEXT	ENDS
; Function compile flags: /Odtp /ZI
; File C:\Program Files (x86)\Microsoft Visual Studio\2019\Community\VC\Tools\MSVC\14.27.29110\include\xtree
;	COMDAT ??E?$_Tree_unchecked_const_iterator@V?$_Tree_val@U?$_Tree_simple_types@U?$pair@$$CBHU_MONSTER_HERD_DATA@@@std@@@std@@@std@@U_Iterator_base0@2@@std@@QAE?AV01@H@Z
_TEXT	SEGMENT
__Tmp$ = -8						; size = 4
_this$ = -4						; size = 4
___$ReturnUdt$ = 8					; size = 4
___formal$ = 12						; size = 4
??E?$_Tree_unchecked_const_iterator@V?$_Tree_val@U?$_Tree_simple_types@U?$pair@$$CBHU_MONSTER_HERD_DATA@@@std@@@std@@@std@@U_Iterator_base0@2@@std@@QAE?AV01@H@Z PROC ; std::_Tree_unchecked_const_iterator<std::_Tree_val<std::_Tree_simple_types<std::pair<int const ,_MONSTER_HERD_DATA> > >,std::_Iterator_base0>::operator++, COMDAT
; _this$ = ecx

; 66   :     _Tree_unchecked_const_iterator operator++(int) {

  00000	55		 push	 ebp
  00001	8b ec		 mov	 ebp, esp
  00003	83 ec 48	 sub	 esp, 72			; 00000048H
  00006	53		 push	 ebx
  00007	56		 push	 esi
  00008	57		 push	 edi
  00009	89 4d fc	 mov	 DWORD PTR _this$[ebp], ecx

; 67   :         _Tree_unchecked_const_iterator _Tmp = *this;

  0000c	8b 45 fc	 mov	 eax, DWORD PTR _this$[ebp]
  0000f	8b 08		 mov	 ecx, DWORD PTR [eax]
  00011	89 4d f8	 mov	 DWORD PTR __Tmp$[ebp], ecx

; 68   :         ++*this;

  00014	8b 4d fc	 mov	 ecx, DWORD PTR _this$[ebp]
  00017	e8 00 00 00 00	 call	 ??E?$_Tree_unchecked_const_iterator@V?$_Tree_val@U?$_Tree_simple_types@U?$pair@$$CBHU_MONSTER_HERD_DATA@@@std@@@std@@@std@@U_Iterator_base0@2@@std@@QAEAAV01@XZ ; std::_Tree_unchecked_const_iterator<std::_Tree_val<std::_Tree_simple_types<std::pair<int const ,_MONSTER_HERD_DATA> > >,std::_Iterator_base0>::operator++

; 69   :         return _Tmp;

  0001c	8b 45 08	 mov	 eax, DWORD PTR ___$ReturnUdt$[ebp]
  0001f	8b 4d f8	 mov	 ecx, DWORD PTR __Tmp$[ebp]
  00022	89 08		 mov	 DWORD PTR [eax], ecx
  00024	8b 45 08	 mov	 eax, DWORD PTR ___$ReturnUdt$[ebp]

; 70   :     }

  00027	5f		 pop	 edi
  00028	5e		 pop	 esi
  00029	5b		 pop	 ebx
  0002a	8b e5		 mov	 esp, ebp
  0002c	5d		 pop	 ebp
  0002d	c2 08 00	 ret	 8
??E?$_Tree_unchecked_const_iterator@V?$_Tree_val@U?$_Tree_simple_types@U?$pair@$$CBHU_MONSTER_HERD_DATA@@@std@@@std@@@std@@U_Iterator_base0@2@@std@@QAE?AV01@H@Z ENDP ; std::_Tree_unchecked_const_iterator<std::_Tree_val<std::_Tree_simple_types<std::pair<int const ,_MONSTER_HERD_DATA> > >,std::_Iterator_base0>::operator++
_TEXT	ENDS
; Function compile flags: /Odtp /ZI
; File C:\Program Files (x86)\Microsoft Visual Studio\2019\Community\VC\Tools\MSVC\14.27.29110\include\xtree
;	COMDAT ??E?$_Tree_unchecked_const_iterator@V?$_Tree_val@U?$_Tree_simple_types@U?$pair@$$CBHU_MONSTER_HERD_DATA@@@std@@@std@@@std@@U_Iterator_base0@2@@std@@QAEAAV01@XZ
_TEXT	SEGMENT
__Pnode$1 = -8						; size = 4
_this$ = -4						; size = 4
??E?$_Tree_unchecked_const_iterator@V?$_Tree_val@U?$_Tree_simple_types@U?$pair@$$CBHU_MONSTER_HERD_DATA@@@std@@@std@@@std@@U_Iterator_base0@2@@std@@QAEAAV01@XZ PROC ; std::_Tree_unchecked_const_iterator<std::_Tree_val<std::_Tree_simple_types<std::pair<int const ,_MONSTER_HERD_DATA> > >,std::_Iterator_base0>::operator++, COMDAT
; _this$ = ecx

; 51   :     _Tree_unchecked_const_iterator& operator++() {

  00000	55		 push	 ebp
  00001	8b ec		 mov	 ebp, esp
  00003	83 ec 48	 sub	 esp, 72			; 00000048H
  00006	53		 push	 ebx
  00007	56		 push	 esi
  00008	57		 push	 edi
  00009	89 4d fc	 mov	 DWORD PTR _this$[ebp], ecx

; 52   :         if (_Ptr->_Right->_Isnil) { // climb looking for right subtree

  0000c	8b 45 fc	 mov	 eax, DWORD PTR _this$[ebp]
  0000f	8b 08		 mov	 ecx, DWORD PTR [eax]
  00011	8b 51 08	 mov	 edx, DWORD PTR [ecx+8]
  00014	0f be 42 0d	 movsx	 eax, BYTE PTR [edx+13]
  00018	85 c0		 test	 eax, eax
  0001a	74 37		 je	 SHORT $LN4@operator
$LN2@operator:

; 53   :             _Nodeptr _Pnode;
; 54   :             while (!(_Pnode = _Ptr->_Parent)->_Isnil && _Ptr == _Pnode->_Right) {

  0001c	8b 45 fc	 mov	 eax, DWORD PTR _this$[ebp]
  0001f	8b 08		 mov	 ecx, DWORD PTR [eax]
  00021	8b 51 04	 mov	 edx, DWORD PTR [ecx+4]
  00024	89 55 f8	 mov	 DWORD PTR __Pnode$1[ebp], edx
  00027	8b 45 f8	 mov	 eax, DWORD PTR __Pnode$1[ebp]
  0002a	0f be 48 0d	 movsx	 ecx, BYTE PTR [eax+13]
  0002e	85 c9		 test	 ecx, ecx
  00030	75 17		 jne	 SHORT $LN3@operator
  00032	8b 45 fc	 mov	 eax, DWORD PTR _this$[ebp]
  00035	8b 4d f8	 mov	 ecx, DWORD PTR __Pnode$1[ebp]
  00038	8b 10		 mov	 edx, DWORD PTR [eax]
  0003a	3b 51 08	 cmp	 edx, DWORD PTR [ecx+8]
  0003d	75 0a		 jne	 SHORT $LN3@operator

; 55   :                 _Ptr = _Pnode; // ==> parent while right subtree

  0003f	8b 45 fc	 mov	 eax, DWORD PTR _this$[ebp]
  00042	8b 4d f8	 mov	 ecx, DWORD PTR __Pnode$1[ebp]
  00045	89 08		 mov	 DWORD PTR [eax], ecx

; 56   :             }

  00047	eb d3		 jmp	 SHORT $LN2@operator
$LN3@operator:

; 57   : 
; 58   :             _Ptr = _Pnode; // ==> parent (head if end())

  00049	8b 45 fc	 mov	 eax, DWORD PTR _this$[ebp]
  0004c	8b 4d f8	 mov	 ecx, DWORD PTR __Pnode$1[ebp]
  0004f	89 08		 mov	 DWORD PTR [eax], ecx

; 59   :         } else {

  00051	eb 16		 jmp	 SHORT $LN5@operator
$LN4@operator:

; 60   :             _Ptr = _Mytree::_Min(_Ptr->_Right); // ==> smallest of right subtree

  00053	8b 45 fc	 mov	 eax, DWORD PTR _this$[ebp]
  00056	8b 08		 mov	 ecx, DWORD PTR [eax]
  00058	8b 51 08	 mov	 edx, DWORD PTR [ecx+8]
  0005b	52		 push	 edx
  0005c	e8 00 00 00 00	 call	 ?_Min@?$_Tree_val@U?$_Tree_simple_types@U?$pair@$$CBHU_MONSTER_HERD_DATA@@@std@@@std@@@std@@SAPAU?$_Tree_node@U?$pair@$$CBHU_MONSTER_HERD_DATA@@@std@@PAX@2@PAU32@@Z ; std::_Tree_val<std::_Tree_simple_types<std::pair<int const ,_MONSTER_HERD_DATA> > >::_Min
  00061	83 c4 04	 add	 esp, 4
  00064	8b 4d fc	 mov	 ecx, DWORD PTR _this$[ebp]
  00067	89 01		 mov	 DWORD PTR [ecx], eax
$LN5@operator:

; 61   :         }
; 62   : 
; 63   :         return *this;

  00069	8b 45 fc	 mov	 eax, DWORD PTR _this$[ebp]

; 64   :     }

  0006c	5f		 pop	 edi
  0006d	5e		 pop	 esi
  0006e	5b		 pop	 ebx
  0006f	8b e5		 mov	 esp, ebp
  00071	5d		 pop	 ebp
  00072	c3		 ret	 0
??E?$_Tree_unchecked_const_iterator@V?$_Tree_val@U?$_Tree_simple_types@U?$pair@$$CBHU_MONSTER_HERD_DATA@@@std@@@std@@@std@@U_Iterator_base0@2@@std@@QAEAAV01@XZ ENDP ; std::_Tree_unchecked_const_iterator<std::_Tree_val<std::_Tree_simple_types<std::pair<int const ,_MONSTER_HERD_DATA> > >,std::_Iterator_base0>::operator++
_TEXT	ENDS
; Function compile flags: /Odtp /ZI
; File C:\Program Files (x86)\Microsoft Visual Studio\2019\Community\VC\Tools\MSVC\14.27.29110\include\xtree
;	COMDAT ??0?$_Tree_unchecked_const_iterator@V?$_Tree_val@U?$_Tree_simple_types@U?$pair@$$CBHU_MONSTER_HERD_DATA@@@std@@@std@@@std@@U_Iterator_base0@2@@std@@QAE@PAU?$_Tree_node@U?$pair@$$CBHU_MONSTER_HERD_DATA@@@std@@PAX@1@PBV?$_Tree_val@U?$_Tree_simple_types@U?$pair@$$CBHU_MONSTER_HERD_DATA@@@std@@@std@@@1@@Z
_TEXT	SEGMENT
_this$ = -4						; size = 4
__Pnode$ = 8						; size = 4
__Plist$ = 12						; size = 4
??0?$_Tree_unchecked_const_iterator@V?$_Tree_val@U?$_Tree_simple_types@U?$pair@$$CBHU_MONSTER_HERD_DATA@@@std@@@std@@@std@@U_Iterator_base0@2@@std@@QAE@PAU?$_Tree_node@U?$pair@$$CBHU_MONSTER_HERD_DATA@@@std@@PAX@1@PBV?$_Tree_val@U?$_Tree_simple_types@U?$pair@$$CBHU_MONSTER_HERD_DATA@@@std@@@std@@@1@@Z PROC ; std::_Tree_unchecked_const_iterator<std::_Tree_val<std::_Tree_simple_types<std::pair<int const ,_MONSTER_HERD_DATA> > >,std::_Iterator_base0>::_Tree_unchecked_const_iterator<std::_Tree_val<std::_Tree_simple_types<std::pair<int const ,_MONSTER_HERD_DATA> > >,std::_Iterator_base0>, COMDAT
; _this$ = ecx

; 39   :     _Tree_unchecked_const_iterator(_Nodeptr _Pnode, const _Mytree* _Plist) noexcept : _Ptr(_Pnode) {

  00000	55		 push	 ebp
  00001	8b ec		 mov	 ebp, esp
  00003	83 ec 44	 sub	 esp, 68			; 00000044H
  00006	53		 push	 ebx
  00007	56		 push	 esi
  00008	57		 push	 edi
  00009	89 4d fc	 mov	 DWORD PTR _this$[ebp], ecx
  0000c	8b 45 fc	 mov	 eax, DWORD PTR _this$[ebp]
  0000f	8b 4d 08	 mov	 ecx, DWORD PTR __Pnode$[ebp]
  00012	89 08		 mov	 DWORD PTR [eax], ecx

; 40   :         this->_Adopt(_Plist);

  00014	8b 45 0c	 mov	 eax, DWORD PTR __Plist$[ebp]
  00017	50		 push	 eax
  00018	8b 4d fc	 mov	 ecx, DWORD PTR _this$[ebp]
  0001b	e8 00 00 00 00	 call	 ?_Adopt@_Iterator_base0@std@@QAEXPBX@Z ; std::_Iterator_base0::_Adopt

; 41   :     }

  00020	8b 45 fc	 mov	 eax, DWORD PTR _this$[ebp]
  00023	5f		 pop	 edi
  00024	5e		 pop	 esi
  00025	5b		 pop	 ebx
  00026	8b e5		 mov	 esp, ebp
  00028	5d		 pop	 ebp
  00029	c2 08 00	 ret	 8
??0?$_Tree_unchecked_const_iterator@V?$_Tree_val@U?$_Tree_simple_types@U?$pair@$$CBHU_MONSTER_HERD_DATA@@@std@@@std@@@std@@U_Iterator_base0@2@@std@@QAE@PAU?$_Tree_node@U?$pair@$$CBHU_MONSTER_HERD_DATA@@@std@@PAX@1@PBV?$_Tree_val@U?$_Tree_simple_types@U?$pair@$$CBHU_MONSTER_HERD_DATA@@@std@@@std@@@1@@Z ENDP ; std::_Tree_unchecked_const_iterator<std::_Tree_val<std::_Tree_simple_types<std::pair<int const ,_MONSTER_HERD_DATA> > >,std::_Iterator_base0>::_Tree_unchecked_const_iterator<std::_Tree_val<std::_Tree_simple_types<std::pair<int const ,_MONSTER_HERD_DATA> > >,std::_Iterator_base0>
_TEXT	ENDS
; Function compile flags: /Odtp /ZI
; File C:\Program Files (x86)\Microsoft Visual Studio\2019\Community\VC\Tools\MSVC\14.27.29110\include\map
;	COMDAT ??$insert@U?$pair@HU_MONSTER_HERD_DATA@@@std@@$0A@@?$map@HU_MONSTER_HERD_DATA@@U?$less@H@std@@V?$allocator@U?$pair@$$CBHU_MONSTER_HERD_DATA@@@std@@@3@@std@@QAE?AU?$pair@V?$_Tree_iterator@V?$_Tree_val@U?$_Tree_simple_types@U?$pair@$$CBHU_MONSTER_HERD_DATA@@@std@@@std@@@std@@@std@@_N@1@$$QAU?$pair@HU_MONSTER_HERD_DATA@@@1@@Z
_TEXT	SEGMENT
_this$ = -4						; size = 4
___$ReturnUdt$ = 8					; size = 4
__Val$ = 12						; size = 4
??$insert@U?$pair@HU_MONSTER_HERD_DATA@@@std@@$0A@@?$map@HU_MONSTER_HERD_DATA@@U?$less@H@std@@V?$allocator@U?$pair@$$CBHU_MONSTER_HERD_DATA@@@std@@@3@@std@@QAE?AU?$pair@V?$_Tree_iterator@V?$_Tree_val@U?$_Tree_simple_types@U?$pair@$$CBHU_MONSTER_HERD_DATA@@@std@@@std@@@std@@@std@@_N@1@$$QAU?$pair@HU_MONSTER_HERD_DATA@@@1@@Z PROC ; std::map<int,_MONSTER_HERD_DATA,std::less<int>,std::allocator<std::pair<int const ,_MONSTER_HERD_DATA> > >::insert<std::pair<int,_MONSTER_HERD_DATA>,0>, COMDAT
; _this$ = ecx

; 164  :     pair<iterator, bool> insert(_Valty&& _Val) {

  00000	55		 push	 ebp
  00001	8b ec		 mov	 ebp, esp
  00003	83 ec 44	 sub	 esp, 68			; 00000044H
  00006	53		 push	 ebx
  00007	56		 push	 esi
  00008	57		 push	 edi
  00009	89 4d fc	 mov	 DWORD PTR _this$[ebp], ecx

; 165  :         return this->emplace(_STD forward<_Valty>(_Val));

  0000c	8b 45 0c	 mov	 eax, DWORD PTR __Val$[ebp]
  0000f	50		 push	 eax
  00010	e8 00 00 00 00	 call	 ??$forward@U?$pair@HU_MONSTER_HERD_DATA@@@std@@@std@@YA$$QAU?$pair@HU_MONSTER_HERD_DATA@@@0@AAU10@@Z ; std::forward<std::pair<int,_MONSTER_HERD_DATA> >
  00015	83 c4 04	 add	 esp, 4
  00018	50		 push	 eax
  00019	8b 4d 08	 mov	 ecx, DWORD PTR ___$ReturnUdt$[ebp]
  0001c	51		 push	 ecx
  0001d	8b 4d fc	 mov	 ecx, DWORD PTR _this$[ebp]
  00020	e8 00 00 00 00	 call	 ??$emplace@U?$pair@HU_MONSTER_HERD_DATA@@@std@@@?$_Tree@V?$_Tmap_traits@HU_MONSTER_HERD_DATA@@U?$less@H@std@@V?$allocator@U?$pair@$$CBHU_MONSTER_HERD_DATA@@@std@@@3@$0A@@std@@@std@@QAE?AU?$pair@V?$_Tree_iterator@V?$_Tree_val@U?$_Tree_simple_types@U?$pair@$$CBHU_MONSTER_HERD_DATA@@@std@@@std@@@std@@@std@@_N@1@$$QAU?$pair@HU_MONSTER_HERD_DATA@@@1@@Z ; std::_Tree<std::_Tmap_traits<int,_MONSTER_HERD_DATA,std::less<int>,std::allocator<std::pair<int const ,_MONSTER_HERD_DATA> >,0> >::emplace<std::pair<int,_MONSTER_HERD_DATA> >
  00025	8b 45 08	 mov	 eax, DWORD PTR ___$ReturnUdt$[ebp]

; 166  :     }

  00028	5f		 pop	 edi
  00029	5e		 pop	 esi
  0002a	5b		 pop	 ebx
  0002b	8b e5		 mov	 esp, ebp
  0002d	5d		 pop	 ebp
  0002e	c2 08 00	 ret	 8
??$insert@U?$pair@HU_MONSTER_HERD_DATA@@@std@@$0A@@?$map@HU_MONSTER_HERD_DATA@@U?$less@H@std@@V?$allocator@U?$pair@$$CBHU_MONSTER_HERD_DATA@@@std@@@3@@std@@QAE?AU?$pair@V?$_Tree_iterator@V?$_Tree_val@U?$_Tree_simple_types@U?$pair@$$CBHU_MONSTER_HERD_DATA@@@std@@@std@@@std@@@std@@_N@1@$$QAU?$pair@HU_MONSTER_HERD_DATA@@@1@@Z ENDP ; std::map<int,_MONSTER_HERD_DATA,std::less<int>,std::allocator<std::pair<int const ,_MONSTER_HERD_DATA> > >::insert<std::pair<int,_MONSTER_HERD_DATA>,0>
_TEXT	ENDS
; Function compile flags: /Odtp /ZI
; File C:\Program Files (x86)\Microsoft Visual Studio\2019\Community\VC\Tools\MSVC\14.27.29110\include\utility
;	COMDAT ??$?0HU_MONSTER_HERD_DATA@@$0A@@?$pair@$$CBHU_MONSTER_HERD_DATA@@@std@@QAE@$$QAU?$pair@HU_MONSTER_HERD_DATA@@@1@@Z
_TEXT	SEGMENT
_this$ = -4						; size = 4
__Right$ = 8						; size = 4
??$?0HU_MONSTER_HERD_DATA@@$0A@@?$pair@$$CBHU_MONSTER_HERD_DATA@@@std@@QAE@$$QAU?$pair@HU_MONSTER_HERD_DATA@@@1@@Z PROC ; std::pair<int const ,_MONSTER_HERD_DATA>::pair<int const ,_MONSTER_HERD_DATA><int,_MONSTER_HERD_DATA,0>, COMDAT
; _this$ = ecx

; 248  :         : first(_STD forward<_Other1>(_Right.first)), second(_STD forward<_Other2>(_Right.second)) {}

  00000	55		 push	 ebp
  00001	8b ec		 mov	 ebp, esp
  00003	83 ec 44	 sub	 esp, 68			; 00000044H
  00006	53		 push	 ebx
  00007	56		 push	 esi
  00008	57		 push	 edi
  00009	89 4d fc	 mov	 DWORD PTR _this$[ebp], ecx
  0000c	8b 45 08	 mov	 eax, DWORD PTR __Right$[ebp]
  0000f	50		 push	 eax
  00010	e8 00 00 00 00	 call	 ??$forward@H@std@@YA$$QAHAAH@Z ; std::forward<int>
  00015	83 c4 04	 add	 esp, 4
  00018	8b 4d fc	 mov	 ecx, DWORD PTR _this$[ebp]
  0001b	8b 10		 mov	 edx, DWORD PTR [eax]
  0001d	89 11		 mov	 DWORD PTR [ecx], edx
  0001f	8b 45 08	 mov	 eax, DWORD PTR __Right$[ebp]
  00022	83 c0 04	 add	 eax, 4
  00025	50		 push	 eax
  00026	e8 00 00 00 00	 call	 ??$forward@U_MONSTER_HERD_DATA@@@std@@YA$$QAU_MONSTER_HERD_DATA@@AAU1@@Z ; std::forward<_MONSTER_HERD_DATA>
  0002b	83 c4 04	 add	 esp, 4
  0002e	8b 4d fc	 mov	 ecx, DWORD PTR _this$[ebp]
  00031	83 c1 04	 add	 ecx, 4
  00034	8b 10		 mov	 edx, DWORD PTR [eax]
  00036	89 11		 mov	 DWORD PTR [ecx], edx
  00038	8b 50 04	 mov	 edx, DWORD PTR [eax+4]
  0003b	89 51 04	 mov	 DWORD PTR [ecx+4], edx
  0003e	8b 50 08	 mov	 edx, DWORD PTR [eax+8]
  00041	89 51 08	 mov	 DWORD PTR [ecx+8], edx
  00044	8b 40 0c	 mov	 eax, DWORD PTR [eax+12]
  00047	89 41 0c	 mov	 DWORD PTR [ecx+12], eax
  0004a	8b 45 fc	 mov	 eax, DWORD PTR _this$[ebp]
  0004d	5f		 pop	 edi
  0004e	5e		 pop	 esi
  0004f	5b		 pop	 ebx
  00050	8b e5		 mov	 esp, ebp
  00052	5d		 pop	 ebp
  00053	c2 04 00	 ret	 4
??$?0HU_MONSTER_HERD_DATA@@$0A@@?$pair@$$CBHU_MONSTER_HERD_DATA@@@std@@QAE@$$QAU?$pair@HU_MONSTER_HERD_DATA@@@1@@Z ENDP ; std::pair<int const ,_MONSTER_HERD_DATA>::pair<int const ,_MONSTER_HERD_DATA><int,_MONSTER_HERD_DATA,0>
_TEXT	ENDS
; Function compile flags: /Odtp /ZI
; File C:\Program Files (x86)\Microsoft Visual Studio\2019\Community\VC\Tools\MSVC\14.27.29110\include\utility
;	COMDAT ??$?0AAHAAU_MONSTER_HERD_DATA@@$0A@@?$pair@HU_MONSTER_HERD_DATA@@@std@@QAE@AAHAAU_MONSTER_HERD_DATA@@@Z
_TEXT	SEGMENT
_this$ = -4						; size = 4
__Val1$ = 8						; size = 4
__Val2$ = 12						; size = 4
??$?0AAHAAU_MONSTER_HERD_DATA@@$0A@@?$pair@HU_MONSTER_HERD_DATA@@@std@@QAE@AAHAAU_MONSTER_HERD_DATA@@@Z PROC ; std::pair<int,_MONSTER_HERD_DATA>::pair<int,_MONSTER_HERD_DATA><int &,_MONSTER_HERD_DATA &,0>, COMDAT
; _this$ = ecx

; 192  :         : first(_STD forward<_Other1>(_Val1)), second(_STD forward<_Other2>(_Val2)) {}

  00000	55		 push	 ebp
  00001	8b ec		 mov	 ebp, esp
  00003	83 ec 44	 sub	 esp, 68			; 00000044H
  00006	53		 push	 ebx
  00007	56		 push	 esi
  00008	57		 push	 edi
  00009	89 4d fc	 mov	 DWORD PTR _this$[ebp], ecx
  0000c	8b 45 08	 mov	 eax, DWORD PTR __Val1$[ebp]
  0000f	50		 push	 eax
  00010	e8 00 00 00 00	 call	 ??$forward@AAH@std@@YAAAHAAH@Z ; std::forward<int &>
  00015	83 c4 04	 add	 esp, 4
  00018	8b 4d fc	 mov	 ecx, DWORD PTR _this$[ebp]
  0001b	8b 10		 mov	 edx, DWORD PTR [eax]
  0001d	89 11		 mov	 DWORD PTR [ecx], edx
  0001f	8b 45 0c	 mov	 eax, DWORD PTR __Val2$[ebp]
  00022	50		 push	 eax
  00023	e8 00 00 00 00	 call	 ??$forward@AAU_MONSTER_HERD_DATA@@@std@@YAAAU_MONSTER_HERD_DATA@@AAU1@@Z ; std::forward<_MONSTER_HERD_DATA &>
  00028	83 c4 04	 add	 esp, 4
  0002b	8b 4d fc	 mov	 ecx, DWORD PTR _this$[ebp]
  0002e	83 c1 04	 add	 ecx, 4
  00031	8b 10		 mov	 edx, DWORD PTR [eax]
  00033	89 11		 mov	 DWORD PTR [ecx], edx
  00035	8b 50 04	 mov	 edx, DWORD PTR [eax+4]
  00038	89 51 04	 mov	 DWORD PTR [ecx+4], edx
  0003b	8b 50 08	 mov	 edx, DWORD PTR [eax+8]
  0003e	89 51 08	 mov	 DWORD PTR [ecx+8], edx
  00041	8b 40 0c	 mov	 eax, DWORD PTR [eax+12]
  00044	89 41 0c	 mov	 DWORD PTR [ecx+12], eax
  00047	8b 45 fc	 mov	 eax, DWORD PTR _this$[ebp]
  0004a	5f		 pop	 edi
  0004b	5e		 pop	 esi
  0004c	5b		 pop	 ebx
  0004d	8b e5		 mov	 esp, ebp
  0004f	5d		 pop	 ebp
  00050	c2 08 00	 ret	 8
??$?0AAHAAU_MONSTER_HERD_DATA@@$0A@@?$pair@HU_MONSTER_HERD_DATA@@@std@@QAE@AAHAAU_MONSTER_HERD_DATA@@@Z ENDP ; std::pair<int,_MONSTER_HERD_DATA>::pair<int,_MONSTER_HERD_DATA><int &,_MONSTER_HERD_DATA &,0>
_TEXT	ENDS
; Function compile flags: /Odtp /ZI
;	COMDAT ??_GMonsterHerd@@UAEPAXI@Z
_TEXT	SEGMENT
_this$ = -4						; size = 4
___flags$ = 8						; size = 4
??_GMonsterHerd@@UAEPAXI@Z PROC				; MonsterHerd::`scalar deleting destructor', COMDAT
; _this$ = ecx
  00000	55		 push	 ebp
  00001	8b ec		 mov	 ebp, esp
  00003	83 ec 44	 sub	 esp, 68			; 00000044H
  00006	53		 push	 ebx
  00007	56		 push	 esi
  00008	57		 push	 edi
  00009	89 4d fc	 mov	 DWORD PTR _this$[ebp], ecx
  0000c	8b 4d fc	 mov	 ecx, DWORD PTR _this$[ebp]
  0000f	e8 00 00 00 00	 call	 ??1MonsterHerd@@UAE@XZ	; MonsterHerd::~MonsterHerd
  00014	8b 45 08	 mov	 eax, DWORD PTR ___flags$[ebp]
  00017	83 e0 01	 and	 eax, 1
  0001a	74 0e		 je	 SHORT $LN2@scalar
  0001c	6a 40		 push	 64			; 00000040H
  0001e	8b 45 fc	 mov	 eax, DWORD PTR _this$[ebp]
  00021	50		 push	 eax
  00022	e8 00 00 00 00	 call	 ??3@YAXPAXI@Z		; operator delete
  00027	83 c4 08	 add	 esp, 8
$LN2@scalar:
  0002a	8b 45 fc	 mov	 eax, DWORD PTR _this$[ebp]
  0002d	5f		 pop	 edi
  0002e	5e		 pop	 esi
  0002f	5b		 pop	 ebx
  00030	8b e5		 mov	 esp, ebp
  00032	5d		 pop	 ebp
  00033	c2 04 00	 ret	 4
??_GMonsterHerd@@UAEPAXI@Z ENDP				; MonsterHerd::`scalar deleting destructor'
_TEXT	ENDS
; Function compile flags: /Odtp /ZI
; File C:\Mu Online\Mu-GS-Webzen-MC-10093\GameServer\MonsterHerd.cpp
;	COMDAT ?MonsterRegenAction@MonsterHerd@@UAEHPAVOBJECTSTRUCT@@@Z
_TEXT	SEGMENT
tv176 = -96						; size = 4
_bGetPosition$ = -28					; size = 4
_iCount$ = -24						; size = 4
_cY$ = -18						; size = 1
_cX$ = -17						; size = 1
_i$1 = -16						; size = 4
_lpMHD$ = -12						; size = 4
_lpMH$ = -8						; size = 4
_this$ = -4						; size = 4
_lpObj$ = 8						; size = 4
?MonsterRegenAction@MonsterHerd@@UAEHPAVOBJECTSTRUCT@@@Z PROC ; MonsterHerd::MonsterRegenAction, COMDAT
; _this$ = ecx

; 763  : {

  00000	55		 push	 ebp
  00001	8b ec		 mov	 ebp, esp
  00003	83 ec 60	 sub	 esp, 96			; 00000060H
  00006	53		 push	 ebx
  00007	56		 push	 esi
  00008	57		 push	 edi
  00009	89 4d fc	 mov	 DWORD PTR _this$[ebp], ecx

; 764  : 	if (lpObj == NULL)

  0000c	83 7d 08 00	 cmp	 DWORD PTR _lpObj$[ebp], 0
  00010	75 07		 jne	 SHORT $LN7@MonsterReg

; 765  : 		return FALSE;

  00012	33 c0		 xor	 eax, eax
  00014	e9 44 03 00 00	 jmp	 $LN1@MonsterReg
$LN7@MonsterReg:

; 766  : 
; 767  : 	if (lpObj->Connected < 3 || lpObj->Type != OBJTYPE_MONSTER)

  00019	8b 45 08	 mov	 eax, DWORD PTR _lpObj$[ebp]
  0001c	83 78 04 03	 cmp	 DWORD PTR [eax+4], 3
  00020	7c 0c		 jl	 SHORT $LN9@MonsterReg
  00022	8b 45 08	 mov	 eax, DWORD PTR _lpObj$[ebp]
  00025	0f b7 48 64	 movzx	 ecx, WORD PTR [eax+100]
  00029	83 f9 02	 cmp	 ecx, 2
  0002c	74 07		 je	 SHORT $LN8@MonsterReg
$LN9@MonsterReg:

; 768  : 		return FALSE;

  0002e	33 c0		 xor	 eax, eax
  00030	e9 28 03 00 00	 jmp	 $LN1@MonsterReg
$LN8@MonsterReg:

; 769  : 
; 770  : 	MonsterHerd * lpMH = lpObj->m_lpMonsterHerd;

  00035	8b 45 08	 mov	 eax, DWORD PTR _lpObj$[ebp]
  00038	8b 88 f4 0e 00
	00		 mov	 ecx, DWORD PTR [eax+3828]
  0003e	89 4d f8	 mov	 DWORD PTR _lpMH$[ebp], ecx

; 771  : 
; 772  : 	if (lpMH == NULL)

  00041	83 7d f8 00	 cmp	 DWORD PTR _lpMH$[ebp], 0
  00045	75 07		 jne	 SHORT $LN10@MonsterReg

; 773  : 		return FALSE;

  00047	33 c0		 xor	 eax, eax
  00049	e9 0f 03 00 00	 jmp	 $LN1@MonsterReg
$LN10@MonsterReg:

; 774  : 
; 775  : 	LPMONSTER_HERD_DATA lpMHD = lpMH->GetMonsterData(lpObj->m_Index);

  0004e	8b 45 08	 mov	 eax, DWORD PTR _lpObj$[ebp]
  00051	8b 08		 mov	 ecx, DWORD PTR [eax]
  00053	51		 push	 ecx
  00054	8b 55 f8	 mov	 edx, DWORD PTR _lpMH$[ebp]
  00057	8b 02		 mov	 eax, DWORD PTR [edx]
  00059	8b 4d f8	 mov	 ecx, DWORD PTR _lpMH$[ebp]
  0005c	8b 50 34	 mov	 edx, DWORD PTR [eax+52]
  0005f	ff d2		 call	 edx
  00061	89 45 f4	 mov	 DWORD PTR _lpMHD$[ebp], eax

; 776  : 	if(!lpMHD || !lpMHD->m_bRegen)

  00064	83 7d f4 00	 cmp	 DWORD PTR _lpMHD$[ebp], 0
  00068	74 09		 je	 SHORT $LN12@MonsterReg
  0006a	8b 45 f4	 mov	 eax, DWORD PTR _lpMHD$[ebp]
  0006d	83 78 0c 00	 cmp	 DWORD PTR [eax+12], 0
  00071	75 07		 jne	 SHORT $LN11@MonsterReg
$LN12@MonsterReg:

; 777  : 		return FALSE;

  00073	33 c0		 xor	 eax, eax
  00075	e9 e3 02 00 00	 jmp	 $LN1@MonsterReg
$LN11@MonsterReg:

; 778  : 
; 779  : 	//  .
; 780  : 	lpObj->Life		= lpObj->MaxLife+lpObj->AddLife;

  0007a	8b 45 08	 mov	 eax, DWORD PTR _lpObj$[ebp]
  0007d	f3 0f 2a 80 0c
	01 00 00	 cvtsi2ss xmm0, DWORD PTR [eax+268]
  00085	8b 4d 08	 mov	 ecx, DWORD PTR _lpObj$[ebp]
  00088	f3 0f 58 81 c0
	00 00 00	 addss	 xmm0, DWORD PTR [ecx+192]
  00090	8b 55 08	 mov	 edx, DWORD PTR _lpObj$[ebp]
  00093	f3 0f 11 82 bc
	00 00 00	 movss	 DWORD PTR [edx+188], xmm0

; 781  : 	lpObj->Mana		= lpObj->MaxMana+lpObj->AddMana;

  0009b	8b 45 08	 mov	 eax, DWORD PTR _lpObj$[ebp]
  0009e	f3 0f 2a 80 10
	01 00 00	 cvtsi2ss xmm0, DWORD PTR [eax+272]
  000a6	8b 4d 08	 mov	 ecx, DWORD PTR _lpObj$[ebp]
  000a9	f3 0f 58 81 d4
	00 00 00	 addss	 xmm0, DWORD PTR [ecx+212]
  000b1	8b 55 08	 mov	 edx, DWORD PTR _lpObj$[ebp]
  000b4	f3 0f 11 82 d0
	00 00 00	 movss	 DWORD PTR [edx+208], xmm0

; 782  : 	lpObj->Live		= 1;

  000bc	8b 45 08	 mov	 eax, DWORD PTR _lpObj$[ebp]
  000bf	c6 40 66 01	 mov	 BYTE PTR [eax+102], 1

; 783  : #ifdef MODIFY_OLD_BUFF_EFFECT_SYSTEM_20071004
; 784  : 	gObjClearBuffEffect( lpObj, CLEAR_TYPE_DIEREGEN );
; 785  : #else
; 786  : 	lpObj->m_PoisonBeattackCount= 0;

  000c3	8b 45 08	 mov	 eax, DWORD PTR _lpObj$[ebp]
  000c6	c6 80 18 1a 00
	00 00		 mov	 BYTE PTR [eax+6680], 0

; 787  : 	lpObj->m_ColdBeattackCount	= 0;

  000cd	8b 45 08	 mov	 eax, DWORD PTR _lpObj$[ebp]
  000d0	c6 80 19 1a 00
	00 00		 mov	 BYTE PTR [eax+6681], 0

; 788  : #endif // MODIFY_OLD_BUFF_EFFECT_SYSTEM_20071004
; 789  : 	lpObj->m_ViewState			= 0;

  000d7	8b 45 08	 mov	 eax, DWORD PTR _lpObj$[ebp]
  000da	c6 80 be 01 00
	00 00		 mov	 BYTE PTR [eax+446], 0

; 790  : 	lpObj->Teleport				= 0;

  000e1	8b 45 08	 mov	 eax, DWORD PTR _lpObj$[ebp]
  000e4	c6 80 fc 01 00
	00 00		 mov	 BYTE PTR [eax+508], 0

; 791  : 
; 792  : 	for( INT i=0; i<MAXSELFDEFENSE; i++)

  000eb	c7 45 f0 00 00
	00 00		 mov	 DWORD PTR _i$1[ebp], 0
  000f2	eb 09		 jmp	 SHORT $LN4@MonsterReg
$LN2@MonsterReg:
  000f4	8b 45 f0	 mov	 eax, DWORD PTR _i$1[ebp]
  000f7	83 c0 01	 add	 eax, 1
  000fa	89 45 f0	 mov	 DWORD PTR _i$1[ebp], eax
$LN4@MonsterReg:
  000fd	83 7d f0 07	 cmp	 DWORD PTR _i$1[ebp], 7
  00101	7d 13		 jge	 SHORT $LN3@MonsterReg

; 793  : 	{
; 794  : 		lpObj->SelfDefenseTime[i]	= 0;

  00103	8b 45 f0	 mov	 eax, DWORD PTR _i$1[ebp]
  00106	8b 4d 08	 mov	 ecx, DWORD PTR _lpObj$[ebp]
  00109	c7 84 81 5c 02
	00 00 00 00 00
	00		 mov	 DWORD PTR [ecx+eax*4+604], 0

; 795  : 	}

  00114	eb de		 jmp	 SHORT $LN2@MonsterReg
$LN3@MonsterReg:

; 796  : 
; 797  : 	gObjTimeCheckSelfDefense(lpObj);

  00116	8b 45 08	 mov	 eax, DWORD PTR _lpObj$[ebp]
  00119	50		 push	 eax
  0011a	e8 00 00 00 00	 call	 ?gObjTimeCheckSelfDefense@@YAXPAVOBJECTSTRUCT@@@Z ; gObjTimeCheckSelfDefense
  0011f	83 c4 04	 add	 esp, 4

; 798  : 	
; 799  : #ifdef MODIFY_OLD_BUFF_EFFECT_SYSTEM_20071004
; 800  : 	gObjRemoveBuffEffect( lpObj, BUFFTYPE_POISON );
; 801  : 	gObjRemoveBuffEffect( lpObj, BUFFTYPE_FREEZE );
; 802  : #else
; 803  : 	#ifdef EXPAND_VIEWSKILLSTATE_WORD_TO_INT_20041122
; 804  : 	DEL_VIEWSKILLSTATE( lpObj->m_ViewSkillState, STATE_POISON );
; 805  : 	DEL_VIEWSKILLSTATE( lpObj->m_ViewSkillState, STATE_FREEZE );
; 806  : 	#else
; 807  : 	lpObj->m_ViewSkillState &= 0xFC;

  00122	8b 45 08	 mov	 eax, DWORD PTR _lpObj$[ebp]
  00125	0f b7 88 c0 01
	00 00		 movzx	 ecx, WORD PTR [eax+448]
  0012c	81 e1 fc 00 00
	00		 and	 ecx, 252		; 000000fcH
  00132	8b 55 08	 mov	 edx, DWORD PTR _lpObj$[ebp]
  00135	66 89 8a c0 01
	00 00		 mov	 WORD PTR [edx+448], cx

; 808  : 	#endif
; 809  : #endif // MODIFY_OLD_BUFF_EFFECT_SYSTEM_20071004
; 810  : 	
; 811  : 	gObjClearViewport(lpObj);

  0013c	8b 45 08	 mov	 eax, DWORD PTR _lpObj$[ebp]
  0013f	50		 push	 eax
  00140	e8 00 00 00 00	 call	 ?gObjClearViewport@@YAXPAVOBJECTSTRUCT@@@Z ; gObjClearViewport
  00145	83 c4 04	 add	 esp, 4

; 812  : 
; 813  : 	gObjViewportListProtocolDestroy(lpObj);

  00148	8b 45 08	 mov	 eax, DWORD PTR _lpObj$[ebp]
  0014b	50		 push	 eax
  0014c	e8 00 00 00 00	 call	 ?gObjViewportListProtocolDestroy@@YAXPAVOBJECTSTRUCT@@@Z ; gObjViewportListProtocolDestroy
  00151	83 c4 04	 add	 esp, 4

; 814  : 	gObjViewportClose(lpObj);

  00154	8b 45 08	 mov	 eax, DWORD PTR _lpObj$[ebp]
  00157	50		 push	 eax
  00158	e8 00 00 00 00	 call	 ?gObjViewportClose@@YAXPAVOBJECTSTRUCT@@@Z ; gObjViewportClose
  0015d	83 c4 04	 add	 esp, 4

; 815  : 
; 816  : 	lpObj->m_ActState.Attack		= 0;

  00160	8b 45 08	 mov	 eax, DWORD PTR _lpObj$[ebp]
  00163	8b 88 b0 01 00
	00		 mov	 ecx, DWORD PTR [eax+432]
  00169	83 e1 fd	 and	 ecx, -3			; fffffffdH
  0016c	8b 55 08	 mov	 edx, DWORD PTR _lpObj$[ebp]
  0016f	89 8a b0 01 00
	00		 mov	 DWORD PTR [edx+432], ecx

; 817  : 	lpObj->m_ActState.EmotionCount	= 0;

  00175	8b 45 08	 mov	 eax, DWORD PTR _lpObj$[ebp]
  00178	8b 88 b0 01 00
	00		 mov	 ecx, DWORD PTR [eax+432]
  0017e	81 e1 ff 00 ff
	ff		 and	 ecx, -65281		; ffff00ffH
  00184	8b 55 08	 mov	 edx, DWORD PTR _lpObj$[ebp]
  00187	89 8a b0 01 00
	00		 mov	 DWORD PTR [edx+432], ecx

; 818  : 	lpObj->m_ActState.Escape		= 0;

  0018d	8b 45 08	 mov	 eax, DWORD PTR _lpObj$[ebp]
  00190	8b 88 b0 01 00
	00		 mov	 ecx, DWORD PTR [eax+432]
  00196	83 e1 f7	 and	 ecx, -9			; fffffff7H
  00199	8b 55 08	 mov	 edx, DWORD PTR _lpObj$[ebp]
  0019c	89 8a b0 01 00
	00		 mov	 DWORD PTR [edx+432], ecx

; 819  : 	lpObj->m_ActState.Move			= 0;

  001a2	8b 45 08	 mov	 eax, DWORD PTR _lpObj$[ebp]
  001a5	8b 88 b0 01 00
	00		 mov	 ecx, DWORD PTR [eax+432]
  001ab	83 e1 fb	 and	 ecx, -5			; fffffffbH
  001ae	8b 55 08	 mov	 edx, DWORD PTR _lpObj$[ebp]
  001b1	89 8a b0 01 00
	00		 mov	 DWORD PTR [edx+432], ecx

; 820  : 	lpObj->m_ActState.Rest			= 0;

  001b7	8b 45 08	 mov	 eax, DWORD PTR _lpObj$[ebp]
  001ba	8b 88 b0 01 00
	00		 mov	 ecx, DWORD PTR [eax+432]
  001c0	83 e1 fe	 and	 ecx, -2			; fffffffeH
  001c3	8b 55 08	 mov	 edx, DWORD PTR _lpObj$[ebp]
  001c6	89 8a b0 01 00
	00		 mov	 DWORD PTR [edx+432], ecx

; 821  : 	lpObj->m_ActState.Emotion		= 0;

  001cc	8b 45 08	 mov	 eax, DWORD PTR _lpObj$[ebp]
  001cf	8b 88 b0 01 00
	00		 mov	 ecx, DWORD PTR [eax+432]
  001d5	81 e1 0f ff ff
	ff		 and	 ecx, -241		; ffffff0fH
  001db	8b 55 08	 mov	 edx, DWORD PTR _lpObj$[ebp]
  001de	89 8a b0 01 00
	00		 mov	 DWORD PTR [edx+432], ecx

; 822  : 	lpObj->TargetNumber				= -1;

  001e4	83 c8 ff	 or	 eax, -1
  001e7	8b 4d 08	 mov	 ecx, DWORD PTR _lpObj$[ebp]
  001ea	66 89 81 ac 02
	00 00		 mov	 WORD PTR [ecx+684], ax

; 823  : 	lpObj->NextActionTime			= 5000;

  001f1	8b 45 08	 mov	 eax, DWORD PTR _lpObj$[ebp]
  001f4	c7 80 18 02 00
	00 88 13 00 00	 mov	 DWORD PTR [eax+536], 5000 ; 00001388H

; 824  : 
; 825  : 	UCHAR cX, cY;
; 826  : 	INT iCount = 100;

  001fe	c7 45 e8 64 00
	00 00		 mov	 DWORD PTR _iCount$[ebp], 100 ; 00000064H

; 827  : 	BOOL bGetPosition = FALSE;

  00205	c7 45 e4 00 00
	00 00		 mov	 DWORD PTR _bGetPosition$[ebp], 0
$LN5@MonsterReg:

; 828  : 	while (iCount--) {

  0020c	8b 45 e8	 mov	 eax, DWORD PTR _iCount$[ebp]
  0020f	89 45 a0	 mov	 DWORD PTR tv176[ebp], eax
  00212	8b 4d e8	 mov	 ecx, DWORD PTR _iCount$[ebp]
  00215	83 e9 01	 sub	 ecx, 1
  00218	89 4d e8	 mov	 DWORD PTR _iCount$[ebp], ecx
  0021b	83 7d a0 00	 cmp	 DWORD PTR tv176[ebp], 0
  0021f	74 24		 je	 SHORT $LN6@MonsterReg

; 829  : 		if (lpMH->GetRandomLocation(cX, cY)) {

  00221	8d 45 ee	 lea	 eax, DWORD PTR _cY$[ebp]
  00224	50		 push	 eax
  00225	8d 4d ef	 lea	 ecx, DWORD PTR _cX$[ebp]
  00228	51		 push	 ecx
  00229	8b 55 f8	 mov	 edx, DWORD PTR _lpMH$[ebp]
  0022c	8b 02		 mov	 eax, DWORD PTR [edx]
  0022e	8b 4d f8	 mov	 ecx, DWORD PTR _lpMH$[ebp]
  00231	8b 50 24	 mov	 edx, DWORD PTR [eax+36]
  00234	ff d2		 call	 edx
  00236	85 c0		 test	 eax, eax
  00238	74 09		 je	 SHORT $LN13@MonsterReg

; 830  : 			bGetPosition = TRUE;

  0023a	c7 45 e4 01 00
	00 00		 mov	 DWORD PTR _bGetPosition$[ebp], 1

; 831  : 			break;

  00241	eb 02		 jmp	 SHORT $LN6@MonsterReg
$LN13@MonsterReg:

; 832  : 		}
; 833  : 	}

  00243	eb c7		 jmp	 SHORT $LN5@MonsterReg
$LN6@MonsterReg:

; 834  : 
; 835  : 	if (!bGetPosition) {

  00245	83 7d e4 00	 cmp	 DWORD PTR _bGetPosition$[ebp], 0
  00249	75 34		 jne	 SHORT $LN14@MonsterReg

; 836  : 		lpObj->Live	   = 0;

  0024b	8b 45 08	 mov	 eax, DWORD PTR _lpObj$[ebp]
  0024e	c6 40 66 00	 mov	 BYTE PTR [eax+102], 0

; 837  : 		lpObj->m_State   = OBJST_DYING;	

  00252	8b 45 08	 mov	 eax, DWORD PTR _lpObj$[ebp]
  00255	c7 80 b8 01 00
	00 04 00 00 00	 mov	 DWORD PTR [eax+440], 4

; 838  : 		lpObj->RegenTime = GetTickCount();

  0025f	ff 15 00 00 00
	00		 call	 DWORD PTR __imp__GetTickCount@0
  00265	8b 4d 08	 mov	 ecx, DWORD PTR _lpObj$[ebp]
  00268	89 81 04 02 00
	00		 mov	 DWORD PTR [ecx+516], eax

; 839  : 		lpObj->DieRegen  = 1;			

  0026e	8b 45 08	 mov	 eax, DWORD PTR _lpObj$[ebp]
  00271	c6 80 fe 01 00
	00 01		 mov	 BYTE PTR [eax+510], 1

; 840  : 		return FALSE;

  00278	33 c0		 xor	 eax, eax
  0027a	e9 de 00 00 00	 jmp	 $LN1@MonsterReg
$LN14@MonsterReg:

; 841  : 	}
; 842  : 
; 843  : 	lpObj->X = cX;

  0027f	66 0f b6 45 ef	 movzx	 ax, BYTE PTR _cX$[ebp]
  00284	8b 4d 08	 mov	 ecx, DWORD PTR _lpObj$[ebp]
  00287	66 89 81 04 01
	00 00		 mov	 WORD PTR [ecx+260], ax

; 844  : 	lpObj->Y = cY;

  0028e	66 0f b6 45 ee	 movzx	 ax, BYTE PTR _cY$[ebp]
  00293	8b 4d 08	 mov	 ecx, DWORD PTR _lpObj$[ebp]
  00296	66 89 81 06 01
	00 00		 mov	 WORD PTR [ecx+262], ax

; 845  : 
; 846  : 	lpObj->MTX		= lpObj->X;

  0029d	8b 45 08	 mov	 eax, DWORD PTR _lpObj$[ebp]
  002a0	8b 4d 08	 mov	 ecx, DWORD PTR _lpObj$[ebp]
  002a3	66 8b 91 04 01
	00 00		 mov	 dx, WORD PTR [ecx+260]
  002aa	66 89 90 24 01
	00 00		 mov	 WORD PTR [eax+292], dx

; 847  : 	lpObj->MTY		= lpObj->Y;

  002b1	8b 45 08	 mov	 eax, DWORD PTR _lpObj$[ebp]
  002b4	8b 4d 08	 mov	 ecx, DWORD PTR _lpObj$[ebp]
  002b7	66 8b 91 06 01
	00 00		 mov	 dx, WORD PTR [ecx+262]
  002be	66 89 90 26 01
	00 00		 mov	 WORD PTR [eax+294], dx

; 848  : 	lpObj->TX		= lpObj->X;

  002c5	8b 45 08	 mov	 eax, DWORD PTR _lpObj$[ebp]
  002c8	8b 4d 08	 mov	 ecx, DWORD PTR _lpObj$[ebp]
  002cb	66 8b 91 04 01
	00 00		 mov	 dx, WORD PTR [ecx+260]
  002d2	66 89 90 20 01
	00 00		 mov	 WORD PTR [eax+288], dx

; 849  : 	lpObj->TY		= lpObj->Y;

  002d9	8b 45 08	 mov	 eax, DWORD PTR _lpObj$[ebp]
  002dc	8b 4d 08	 mov	 ecx, DWORD PTR _lpObj$[ebp]
  002df	66 8b 91 06 01
	00 00		 mov	 dx, WORD PTR [ecx+262]
  002e6	66 89 90 22 01
	00 00		 mov	 WORD PTR [eax+290], dx

; 850  : 	lpObj->StartX	= (BYTE)lpObj->X;

  002ed	8b 45 08	 mov	 eax, DWORD PTR _lpObj$[ebp]
  002f0	8b 4d 08	 mov	 ecx, DWORD PTR _lpObj$[ebp]
  002f3	8a 91 04 01 00
	00		 mov	 dl, BYTE PTR [ecx+260]
  002f9	88 90 1a 01 00
	00		 mov	 BYTE PTR [eax+282], dl

; 851  : 	lpObj->StartY	= (BYTE)lpObj->Y;

  002ff	8b 45 08	 mov	 eax, DWORD PTR _lpObj$[ebp]
  00302	8b 4d 08	 mov	 ecx, DWORD PTR _lpObj$[ebp]
  00305	8a 91 06 01 00
	00		 mov	 dl, BYTE PTR [ecx+262]
  0030b	88 90 1b 01 00
	00		 mov	 BYTE PTR [eax+283], dl

; 852  : 
; 853  : 	gObjMonsterHitDamageInit(lpObj);

  00311	8b 45 08	 mov	 eax, DWORD PTR _lpObj$[ebp]
  00314	50		 push	 eax
  00315	e8 00 00 00 00	 call	 ?gObjMonsterHitDamageInit@@YAXPAVOBJECTSTRUCT@@@Z ; gObjMonsterHitDamageInit
  0031a	83 c4 04	 add	 esp, 4

; 854  : 		
; 855  : 	CreateFrustrum(lpObj->X, lpObj->Y, lpObj->m_Index);

  0031d	8b 45 08	 mov	 eax, DWORD PTR _lpObj$[ebp]
  00320	8b 08		 mov	 ecx, DWORD PTR [eax]
  00322	51		 push	 ecx
  00323	8b 55 08	 mov	 edx, DWORD PTR _lpObj$[ebp]
  00326	0f bf 82 06 01
	00 00		 movsx	 eax, WORD PTR [edx+262]
  0032d	50		 push	 eax
  0032e	8b 4d 08	 mov	 ecx, DWORD PTR _lpObj$[ebp]
  00331	0f bf 91 04 01
	00 00		 movsx	 edx, WORD PTR [ecx+260]
  00338	52		 push	 edx
  00339	e8 00 00 00 00	 call	 ?CreateFrustrum@@YAXHHH@Z ; CreateFrustrum
  0033e	83 c4 0c	 add	 esp, 12			; 0000000cH

; 856  : 	
; 857  : 	lpObj->DieRegen	= 0;

  00341	8b 45 08	 mov	 eax, DWORD PTR _lpObj$[ebp]
  00344	c6 80 fe 01 00
	00 00		 mov	 BYTE PTR [eax+510], 0

; 858  : 	lpObj->m_State	= OBJST_CREATE;

  0034b	8b 45 08	 mov	 eax, DWORD PTR _lpObj$[ebp]
  0034e	c7 80 b8 01 00
	00 01 00 00 00	 mov	 DWORD PTR [eax+440], 1

; 859  : 
; 860  : 	return TRUE;

  00358	b8 01 00 00 00	 mov	 eax, 1
$LN1@MonsterReg:

; 861  : }

  0035d	5f		 pop	 edi
  0035e	5e		 pop	 esi
  0035f	5b		 pop	 ebx
  00360	8b e5		 mov	 esp, ebp
  00362	5d		 pop	 ebp
  00363	c2 04 00	 ret	 4
?MonsterRegenAction@MonsterHerd@@UAEHPAVOBJECTSTRUCT@@@Z ENDP ; MonsterHerd::MonsterRegenAction
_TEXT	ENDS
; Function compile flags: /Odtp /ZI
; File C:\Mu Online\Mu-GS-Webzen-MC-10093\GameServer\MonsterHerd.cpp
;	COMDAT ?MonsterDieAction@MonsterHerd@@UAEXPAVOBJECTSTRUCT@@@Z
_TEXT	SEGMENT
_this$ = -4						; size = 4
_lpObj$ = 8						; size = 4
?MonsterDieAction@MonsterHerd@@UAEXPAVOBJECTSTRUCT@@@Z PROC ; MonsterHerd::MonsterDieAction, COMDAT
; _this$ = ecx

; 752  : {

  00000	55		 push	 ebp
  00001	8b ec		 mov	 ebp, esp
  00003	83 ec 44	 sub	 esp, 68			; 00000044H
  00006	53		 push	 ebx
  00007	56		 push	 esi
  00008	57		 push	 edi
  00009	89 4d fc	 mov	 DWORD PTR _this$[ebp], ecx

; 753  : 	if (lpObj == NULL)
; 754  : 		return;
; 755  : 
; 756  : 	if (lpObj->Connected < 3 || lpObj->Type != OBJTYPE_MONSTER)
; 757  : 		return;
; 758  : 
; 759  : }

  0000c	5f		 pop	 edi
  0000d	5e		 pop	 esi
  0000e	5b		 pop	 ebx
  0000f	8b e5		 mov	 esp, ebp
  00011	5d		 pop	 ebp
  00012	c2 04 00	 ret	 4
?MonsterDieAction@MonsterHerd@@UAEXPAVOBJECTSTRUCT@@@Z ENDP ; MonsterHerd::MonsterDieAction
_TEXT	ENDS
; Function compile flags: /Odtp /ZI
; File C:\Mu Online\Mu-GS-Webzen-MC-10093\GameServer\MonsterHerd.cpp
;	COMDAT ?MonsterAttackAction@MonsterHerd@@UAEXPAVOBJECTSTRUCT@@0@Z
_TEXT	SEGMENT
_this$ = -4						; size = 4
_lpObj$ = 8						; size = 4
_lpTargetObj$ = 12					; size = 4
?MonsterAttackAction@MonsterHerd@@UAEXPAVOBJECTSTRUCT@@0@Z PROC ; MonsterHerd::MonsterAttackAction, COMDAT
; _this$ = ecx

; 548  : {

  00000	55		 push	 ebp
  00001	8b ec		 mov	 ebp, esp
  00003	83 ec 44	 sub	 esp, 68			; 00000044H
  00006	53		 push	 ebx
  00007	56		 push	 esi
  00008	57		 push	 edi
  00009	89 4d fc	 mov	 DWORD PTR _this$[ebp], ecx

; 549  : #ifdef NEW_FORSKYLAND2
; 550  : 	#ifdef MODIFY_OLD_BUFF_EFFECT_SYSTEM_20071004
; 551  : 	if( gObjCheckUsedBuffEffect( lpObj, BUFFTYPE_STONE ) == true )
; 552  : 	#else
; 553  : 	if( lpObj->m_SkillHarden != 0 )
; 554  : 	#endif // MODIFY_OLD_BUFF_EFFECT_SYSTEM_20071004
; 555  : 		return;
; 556  : #endif
; 557  : 
; 558  : 	if (lpObj == NULL)
; 559  : 		return;
; 560  : 
; 561  : 	if (lpTargetObj == NULL)
; 562  : 		return;
; 563  : 
; 564  : 	if (lpObj->Connected < 3 || lpObj->Type != OBJTYPE_MONSTER)
; 565  : 		return;
; 566  : 
; 567  : 	if (lpTargetObj->Connected < 3)
; 568  : 		return;
; 569  : 	
; 570  : }

  0000c	5f		 pop	 edi
  0000d	5e		 pop	 esi
  0000e	5b		 pop	 ebx
  0000f	8b e5		 mov	 esp, ebp
  00011	5d		 pop	 ebp
  00012	c2 08 00	 ret	 8
?MonsterAttackAction@MonsterHerd@@UAEXPAVOBJECTSTRUCT@@0@Z ENDP ; MonsterHerd::MonsterAttackAction
_TEXT	ENDS
; Function compile flags: /Odtp /ZI
; File C:\Mu Online\Mu-GS-Webzen-MC-10093\GameServer\MonsterHerd.cpp
;	COMDAT ?MonsterMoveAction@MonsterHerd@@UAEXPAVOBJECTSTRUCT@@@Z
_TEXT	SEGMENT
tv75 = -84						; size = 4
_bMoveAble$1 = -16					; size = 4
_tpy$ = -10						; size = 1
_tpx$ = -9						; size = 1
_searchc$ = -8						; size = 4
_this$ = -4						; size = 4
_lpObj$ = 8						; size = 4
?MonsterMoveAction@MonsterHerd@@UAEXPAVOBJECTSTRUCT@@@Z PROC ; MonsterHerd::MonsterMoveAction, COMDAT
; _this$ = ecx

; 505  : {

  00000	55		 push	 ebp
  00001	8b ec		 mov	 ebp, esp
  00003	83 ec 54	 sub	 esp, 84			; 00000054H
  00006	53		 push	 ebx
  00007	56		 push	 esi
  00008	57		 push	 edi
  00009	89 4d fc	 mov	 DWORD PTR _this$[ebp], ecx

; 506  : #ifdef NEW_FORSKYLAND2
; 507  : 	#ifdef MODIFY_OLD_BUFF_EFFECT_SYSTEM_20071004
; 508  : 	if( gObjCheckUsedBuffEffect( lpObj, BUFFTYPE_STONE ) == true )
; 509  : 	#else
; 510  : 	if( lpObj->m_SkillHarden != 0 )

  0000c	8b 45 08	 mov	 eax, DWORD PTR _lpObj$[ebp]
  0000f	83 b8 fc 19 00
	00 00		 cmp	 DWORD PTR [eax+6652], 0
  00016	74 05		 je	 SHORT $LN4@MonsterMov

; 511  : 	#endif // MODIFY_OLD_BUFF_EFFECT_SYSTEM_20071004
; 512  : 		return;

  00018	e9 f1 00 00 00	 jmp	 $LN1@MonsterMov
$LN4@MonsterMov:

; 513  : #endif
; 514  : 	if (lpObj == NULL)

  0001d	83 7d 08 00	 cmp	 DWORD PTR _lpObj$[ebp], 0
  00021	75 05		 jne	 SHORT $LN5@MonsterMov

; 515  : 		return;

  00023	e9 e6 00 00 00	 jmp	 $LN1@MonsterMov
$LN5@MonsterMov:

; 516  : 
; 517  : 	if (lpObj->Connected < 3 || lpObj->Type != OBJTYPE_MONSTER)

  00028	8b 45 08	 mov	 eax, DWORD PTR _lpObj$[ebp]
  0002b	83 78 04 03	 cmp	 DWORD PTR [eax+4], 3
  0002f	7c 0c		 jl	 SHORT $LN7@MonsterMov
  00031	8b 45 08	 mov	 eax, DWORD PTR _lpObj$[ebp]
  00034	0f b7 48 64	 movzx	 ecx, WORD PTR [eax+100]
  00038	83 f9 02	 cmp	 ecx, 2
  0003b	74 05		 je	 SHORT $LN6@MonsterMov
$LN7@MonsterMov:

; 518  : 		return;

  0003d	e9 cc 00 00 00	 jmp	 $LN1@MonsterMov
$LN6@MonsterMov:

; 519  : 
; 520  : 	int searchc=10;

  00042	c7 45 f8 0a 00
	00 00		 mov	 DWORD PTR _searchc$[ebp], 10 ; 0000000aH

; 521  : 	BYTE tpx, tpy;
; 522  : 	lpObj->NextActionTime = 1000;

  00049	8b 45 08	 mov	 eax, DWORD PTR _lpObj$[ebp]
  0004c	c7 80 18 02 00
	00 e8 03 00 00	 mov	 DWORD PTR [eax+536], 1000 ; 000003e8H
$LN2@MonsterMov:

; 523  : 				
; 524  : 	while(searchc--)

  00056	8b 45 f8	 mov	 eax, DWORD PTR _searchc$[ebp]
  00059	89 45 ac	 mov	 DWORD PTR tv75[ebp], eax
  0005c	8b 4d f8	 mov	 ecx, DWORD PTR _searchc$[ebp]
  0005f	83 e9 01	 sub	 ecx, 1
  00062	89 4d f8	 mov	 DWORD PTR _searchc$[ebp], ecx
  00065	83 7d ac 00	 cmp	 DWORD PTR tv75[ebp], 0
  00069	0f 84 9f 00 00
	00		 je	 $LN1@MonsterMov

; 525  : 	{
; 526  : 
; 527  : 		BOOL bMoveAble = GetRandomLocation (tpx, tpy);

  0006f	8d 45 f6	 lea	 eax, DWORD PTR _tpy$[ebp]
  00072	50		 push	 eax
  00073	8d 4d f7	 lea	 ecx, DWORD PTR _tpx$[ebp]
  00076	51		 push	 ecx
  00077	8b 55 fc	 mov	 edx, DWORD PTR _this$[ebp]
  0007a	8b 02		 mov	 eax, DWORD PTR [edx]
  0007c	8b 4d fc	 mov	 ecx, DWORD PTR _this$[ebp]
  0007f	8b 50 24	 mov	 edx, DWORD PTR [eax+36]
  00082	ff d2		 call	 edx
  00084	89 45 f0	 mov	 DWORD PTR _bMoveAble$1[ebp], eax

; 528  : 
; 529  : 		if (bMoveAble)

  00087	83 7d f0 00	 cmp	 DWORD PTR _bMoveAble$1[ebp], 0
  0008b	74 7c		 je	 SHORT $LN8@MonsterMov

; 530  : 		{
; 531  : 			lpObj->TargetNumber			= -1;

  0008d	83 c8 ff	 or	 eax, -1
  00090	8b 4d 08	 mov	 ecx, DWORD PTR _lpObj$[ebp]
  00093	66 89 81 ac 02
	00 00		 mov	 WORD PTR [ecx+684], ax

; 532  : 			lpObj->m_ActState.Attack	= 0;

  0009a	8b 45 08	 mov	 eax, DWORD PTR _lpObj$[ebp]
  0009d	8b 88 b0 01 00
	00		 mov	 ecx, DWORD PTR [eax+432]
  000a3	83 e1 fd	 and	 ecx, -3			; fffffffdH
  000a6	8b 55 08	 mov	 edx, DWORD PTR _lpObj$[ebp]
  000a9	89 8a b0 01 00
	00		 mov	 DWORD PTR [edx+432], ecx

; 533  : 			lpObj->NextActionTime		= 500;

  000af	8b 45 08	 mov	 eax, DWORD PTR _lpObj$[ebp]
  000b2	c7 80 18 02 00
	00 f4 01 00 00	 mov	 DWORD PTR [eax+536], 500 ; 000001f4H

; 534  : 			lpObj->m_ActState.Emotion	= 0;

  000bc	8b 45 08	 mov	 eax, DWORD PTR _lpObj$[ebp]
  000bf	8b 88 b0 01 00
	00		 mov	 ecx, DWORD PTR [eax+432]
  000c5	81 e1 0f ff ff
	ff		 and	 ecx, -241		; ffffff0fH
  000cb	8b 55 08	 mov	 edx, DWORD PTR _lpObj$[ebp]
  000ce	89 8a b0 01 00
	00		 mov	 DWORD PTR [edx+432], ecx

; 535  : 			lpObj->MTX					= tpx;

  000d4	66 0f b6 45 f7	 movzx	 ax, BYTE PTR _tpx$[ebp]
  000d9	8b 4d 08	 mov	 ecx, DWORD PTR _lpObj$[ebp]
  000dc	66 89 81 24 01
	00 00		 mov	 WORD PTR [ecx+292], ax

; 536  : 			lpObj->MTY					= tpy;

  000e3	66 0f b6 45 f6	 movzx	 ax, BYTE PTR _tpy$[ebp]
  000e8	8b 4d 08	 mov	 ecx, DWORD PTR _lpObj$[ebp]
  000eb	66 89 81 26 01
	00 00		 mov	 WORD PTR [ecx+294], ax

; 537  : 			lpObj->m_ActState.Move		= 1;

  000f2	8b 45 08	 mov	 eax, DWORD PTR _lpObj$[ebp]
  000f5	8b 88 b0 01 00
	00		 mov	 ecx, DWORD PTR [eax+432]
  000fb	83 c9 04	 or	 ecx, 4
  000fe	8b 55 08	 mov	 edx, DWORD PTR _lpObj$[ebp]
  00101	89 8a b0 01 00
	00		 mov	 DWORD PTR [edx+432], ecx

; 538  : 			break;

  00107	eb 05		 jmp	 SHORT $LN1@MonsterMov
$LN8@MonsterMov:

; 539  : 		}			
; 540  : 	}

  00109	e9 48 ff ff ff	 jmp	 $LN2@MonsterMov
$LN1@MonsterMov:

; 541  : }

  0010e	5f		 pop	 edi
  0010f	5e		 pop	 esi
  00110	5b		 pop	 ebx
  00111	8b e5		 mov	 esp, ebp
  00113	5d		 pop	 ebp
  00114	c2 04 00	 ret	 4
?MonsterMoveAction@MonsterHerd@@UAEXPAVOBJECTSTRUCT@@@Z ENDP ; MonsterHerd::MonsterMoveAction
_TEXT	ENDS
; Function compile flags: /Odtp /ZI
; File C:\Mu Online\Mu-GS-Webzen-MC-10093\GameServer\MonsterHerd.cpp
;	COMDAT ?MonsterBaseAct@MonsterHerd@@UAEXPAVOBJECTSTRUCT@@@Z
_TEXT	SEGMENT
tv264 = -100						; size = 4
tv80 = -100						; size = 4
_attr$1 = -29						; size = 1
_map$2 = -28						; size = 4
_tuser$3 = -24						; size = 4
_attackRange$4 = -20					; size = 4
_dis$5 = -16						; size = 4
_actcode1$6 = -12					; size = 4
_lpTargetObj$ = -8					; size = 4
_this$ = -4						; size = 4
_lpObj$ = 8						; size = 4
?MonsterBaseAct@MonsterHerd@@UAEXPAVOBJECTSTRUCT@@@Z PROC ; MonsterHerd::MonsterBaseAct, COMDAT
; _this$ = ecx

; 574  : {

  00000	55		 push	 ebp
  00001	8b ec		 mov	 ebp, esp
  00003	83 ec 64	 sub	 esp, 100		; 00000064H
  00006	53		 push	 ebx
  00007	56		 push	 esi
  00008	57		 push	 edi
  00009	89 4d fc	 mov	 DWORD PTR _this$[ebp], ecx

; 575  : 	LPOBJECTSTRUCT lpTargetObj=NULL;

  0000c	c7 45 f8 00 00
	00 00		 mov	 DWORD PTR _lpTargetObj$[ebp], 0

; 576  : 
; 577  : 	if( lpObj->TargetNumber >= 0 )	//      .

  00013	8b 45 08	 mov	 eax, DWORD PTR _lpObj$[ebp]
  00016	0f bf 88 ac 02
	00 00		 movsx	 ecx, WORD PTR [eax+684]
  0001d	85 c9		 test	 ecx, ecx
  0001f	7c 1b		 jl	 SHORT $LN4@MonsterBas

; 578  : 		lpTargetObj = (LPOBJECTSTRUCT)&gObj[lpObj->TargetNumber];

  00021	8b 45 08	 mov	 eax, DWORD PTR _lpObj$[ebp]
  00024	0f bf 88 ac 02
	00 00		 movsx	 ecx, WORD PTR [eax+684]
  0002b	69 d1 a0 1b 00
	00		 imul	 edx, ecx, 7072
  00031	03 15 00 00 00
	00		 add	 edx, DWORD PTR ?gObj@@3PAVOBJECTSTRUCT@@A ; gObj
  00037	89 55 f8	 mov	 DWORD PTR _lpTargetObj$[ebp], edx
  0003a	eb 18		 jmp	 SHORT $LN5@MonsterBas
$LN4@MonsterBas:

; 579  : 	else lpObj->m_ActState.Emotion = 0;

  0003c	8b 45 08	 mov	 eax, DWORD PTR _lpObj$[ebp]
  0003f	8b 88 b0 01 00
	00		 mov	 ecx, DWORD PTR [eax+432]
  00045	81 e1 0f ff ff
	ff		 and	 ecx, -241		; ffffff0fH
  0004b	8b 55 08	 mov	 edx, DWORD PTR _lpObj$[ebp]
  0004e	89 8a b0 01 00
	00		 mov	 DWORD PTR [edx+432], ecx
$LN5@MonsterBas:

; 580  : 
; 581  : 
; 582  : 	switch(lpObj->m_ActState.Emotion) {

  00054	8b 45 08	 mov	 eax, DWORD PTR _lpObj$[ebp]
  00057	8b 88 b0 01 00
	00		 mov	 ecx, DWORD PTR [eax+432]
  0005d	c1 e9 04	 shr	 ecx, 4
  00060	83 e1 0f	 and	 ecx, 15			; 0000000fH
  00063	89 4d 9c	 mov	 DWORD PTR tv80[ebp], ecx
  00066	74 19		 je	 SHORT $LN6@MonsterBas
  00068	83 7d 9c 01	 cmp	 DWORD PTR tv80[ebp], 1
  0006c	0f 84 27 01 00
	00		 je	 $LN13@MonsterBas
  00072	83 7d 9c 03	 cmp	 DWORD PTR tv80[ebp], 3
  00076	0f 84 0f 05 00
	00		 je	 $LN30@MonsterBas
  0007c	e9 a6 05 00 00	 jmp	 $LN1@MonsterBas
$LN6@MonsterBas:

; 583  : 	case EMOTION_NORMAL	:	//  - 
; 584  : 		{
; 585  : 			if( lpObj->m_ActState.Attack )	//     ->   & 

  00081	8b 45 08	 mov	 eax, DWORD PTR _lpObj$[ebp]
  00084	8b 88 b0 01 00
	00		 mov	 ecx, DWORD PTR [eax+432]
  0008a	d1 e9		 shr	 ecx, 1
  0008c	83 e1 01	 and	 ecx, 1
  0008f	74 2f		 je	 SHORT $LN7@MonsterBas

; 586  : 			{
; 587  : 				lpObj->m_ActState.Attack = 0;

  00091	8b 45 08	 mov	 eax, DWORD PTR _lpObj$[ebp]
  00094	8b 88 b0 01 00
	00		 mov	 ecx, DWORD PTR [eax+432]
  0009a	83 e1 fd	 and	 ecx, -3			; fffffffdH
  0009d	8b 55 08	 mov	 edx, DWORD PTR _lpObj$[ebp]
  000a0	89 8a b0 01 00
	00		 mov	 DWORD PTR [edx+432], ecx

; 588  : 				lpObj->TargetNumber = -1;

  000a6	83 c8 ff	 or	 eax, -1
  000a9	8b 4d 08	 mov	 ecx, DWORD PTR _lpObj$[ebp]
  000ac	66 89 81 ac 02
	00 00		 mov	 WORD PTR [ecx+684], ax

; 589  : 				lpObj->NextActionTime = 500;

  000b3	8b 45 08	 mov	 eax, DWORD PTR _lpObj$[ebp]
  000b6	c7 80 18 02 00
	00 f4 01 00 00	 mov	 DWORD PTR [eax+536], 500 ; 000001f4H
$LN7@MonsterBas:

; 590  : 			}
; 591  : 			
; 592  : 			int actcode1 = (rand()%2);		//   

  000c0	e8 00 00 00 00	 call	 _rand
  000c5	25 01 00 00 80	 and	 eax, -2147483647	; 80000001H
  000ca	79 05		 jns	 SHORT $LN35@MonsterBas
  000cc	48		 dec	 eax
  000cd	83 c8 fe	 or	 eax, -2			; fffffffeH
  000d0	40		 inc	 eax
$LN35@MonsterBas:
  000d1	89 45 f4	 mov	 DWORD PTR _actcode1$6[ebp], eax

; 593  : 
; 594  : 			//  .
; 595  : 			if( actcode1 == 0 )

  000d4	83 7d f4 00	 cmp	 DWORD PTR _actcode1$6[ebp], 0
  000d8	75 24		 jne	 SHORT $LN8@MonsterBas

; 596  : 			{
; 597  : 				//if( lpObj->m_Attribute == 100 )	LogAdd(" .");
; 598  : 				lpObj->m_ActState.Rest = 1;

  000da	8b 45 08	 mov	 eax, DWORD PTR _lpObj$[ebp]
  000dd	8b 88 b0 01 00
	00		 mov	 ecx, DWORD PTR [eax+432]
  000e3	83 c9 01	 or	 ecx, 1
  000e6	8b 55 08	 mov	 edx, DWORD PTR _lpObj$[ebp]
  000e9	89 8a b0 01 00
	00		 mov	 DWORD PTR [edx+432], ecx

; 599  : 				lpObj->NextActionTime = 500;

  000ef	8b 45 08	 mov	 eax, DWORD PTR _lpObj$[ebp]
  000f2	c7 80 18 02 00
	00 f4 01 00 00	 mov	 DWORD PTR [eax+536], 500 ; 000001f4H

; 600  : 			}

  000fc	eb 2b		 jmp	 SHORT $LN9@MonsterBas
$LN8@MonsterBas:

; 601  : #ifdef NEW_FORSKYLAND2
; 602  : 	#ifdef MODIFY_OLD_BUFF_EFFECT_SYSTEM_20071004
; 603  : 			else if( lpObj->m_MoveRange > 0 &&
; 604  : 				( gObjCheckUsedBuffEffect( lpObj, BUFFTYPE_STONE ) == false )
; 605  : 				   )
; 606  : 	#else
; 607  : 			else if( lpObj->m_MoveRange>0 && lpObj->m_SkillHarden == 0)

  000fe	8b 45 08	 mov	 eax, DWORD PTR _lpObj$[ebp]
  00101	0f bf 88 f6 02
	00 00		 movsx	 ecx, WORD PTR [eax+758]
  00108	85 c9		 test	 ecx, ecx
  0010a	7e 1d		 jle	 SHORT $LN9@MonsterBas
  0010c	8b 45 08	 mov	 eax, DWORD PTR _lpObj$[ebp]
  0010f	83 b8 fc 19 00
	00 00		 cmp	 DWORD PTR [eax+6652], 0
  00116	75 11		 jne	 SHORT $LN9@MonsterBas

; 608  : 	#endif // MODIFY_OLD_BUFF_EFFECT_SYSTEM_20071004
; 609  : #else
; 610  : 			else if( lpObj->m_MoveRange>0) 
; 611  : #endif		
; 612  : 			{
; 613  : 				MonsterMoveAction (lpObj);

  00118	8b 45 08	 mov	 eax, DWORD PTR _lpObj$[ebp]
  0011b	50		 push	 eax
  0011c	8b 4d fc	 mov	 ecx, DWORD PTR _this$[ebp]
  0011f	8b 11		 mov	 edx, DWORD PTR [ecx]
  00121	8b 4d fc	 mov	 ecx, DWORD PTR _this$[ebp]
  00124	8b 42 44	 mov	 eax, DWORD PTR [edx+68]
  00127	ff d0		 call	 eax
$LN9@MonsterBas:

; 614  : 			}
; 615  : 
; 616  : 			
; 617  : 			if (lpObj->m_bIsMonsterAttackFirst) {	//   

  00129	8b 45 08	 mov	 eax, DWORD PTR _lpObj$[ebp]
  0012c	83 b8 f0 0e 00
	00 00		 cmp	 DWORD PTR [eax+3824], 0
  00133	74 5f		 je	 SHORT $LN11@MonsterBas

; 618  : 				lpObj->TargetNumber = gObjMonsterSearchEnemy(lpObj, OBJTYPE_CHARACTER);

  00135	6a 01		 push	 1
  00137	8b 45 08	 mov	 eax, DWORD PTR _lpObj$[ebp]
  0013a	50		 push	 eax
  0013b	e8 00 00 00 00	 call	 ?gObjMonsterSearchEnemy@@YAHPAVOBJECTSTRUCT@@E@Z ; gObjMonsterSearchEnemy
  00140	83 c4 08	 add	 esp, 8
  00143	8b 4d 08	 mov	 ecx, DWORD PTR _lpObj$[ebp]
  00146	66 89 81 ac 02
	00 00		 mov	 WORD PTR [ecx+684], ax

; 619  : 				
; 620  : 				//      ~~
; 621  : 				if( lpObj->TargetNumber >= 0 )

  0014d	8b 45 08	 mov	 eax, DWORD PTR _lpObj$[ebp]
  00150	0f bf 88 ac 02
	00 00		 movsx	 ecx, WORD PTR [eax+684]
  00157	85 c9		 test	 ecx, ecx
  00159	7c 39		 jl	 SHORT $LN11@MonsterBas

; 622  : 				{
; 623  : 					lpObj->m_ActState.EmotionCount = 30;

  0015b	8b 45 08	 mov	 eax, DWORD PTR _lpObj$[ebp]
  0015e	8b 88 b0 01 00
	00		 mov	 ecx, DWORD PTR [eax+432]
  00164	81 e1 ff 00 ff
	ff		 and	 ecx, -65281		; ffff00ffH
  0016a	81 c9 00 1e 00
	00		 or	 ecx, 7680		; 00001e00H
  00170	8b 55 08	 mov	 edx, DWORD PTR _lpObj$[ebp]
  00173	89 8a b0 01 00
	00		 mov	 DWORD PTR [edx+432], ecx

; 624  : 					lpObj->m_ActState.Emotion = 1;

  00179	8b 45 08	 mov	 eax, DWORD PTR _lpObj$[ebp]
  0017c	8b 88 b0 01 00
	00		 mov	 ecx, DWORD PTR [eax+432]
  00182	81 e1 0f ff ff
	ff		 and	 ecx, -241		; ffffff0fH
  00188	83 c9 10	 or	 ecx, 16			; 00000010H
  0018b	8b 55 08	 mov	 edx, DWORD PTR _lpObj$[ebp]
  0018e	89 8a b0 01 00
	00		 mov	 DWORD PTR [edx+432], ecx
$LN11@MonsterBas:

; 625  : 					//if( lpObj->m_Attribute == 100 )	LogAdd("  ");
; 626  : 				}
; 627  : 			}
; 628  : 		}
; 629  : 		break;

  00194	e9 8e 04 00 00	 jmp	 $LN1@MonsterBas
$LN13@MonsterBas:

; 630  : 	case EMOTION_ANGRY	:	//  - 
; 631  : 		{
; 632  : 			if( lpObj->m_ActState.EmotionCount > 0 ) lpObj->m_ActState.EmotionCount--;

  00199	8b 45 08	 mov	 eax, DWORD PTR _lpObj$[ebp]
  0019c	8b 88 b0 01 00
	00		 mov	 ecx, DWORD PTR [eax+432]
  001a2	c1 e9 08	 shr	 ecx, 8
  001a5	81 e1 ff 00 00
	00		 and	 ecx, 255		; 000000ffH
  001ab	76 39		 jbe	 SHORT $LN14@MonsterBas
  001ad	8b 45 08	 mov	 eax, DWORD PTR _lpObj$[ebp]
  001b0	8b 88 b0 01 00
	00		 mov	 ecx, DWORD PTR [eax+432]
  001b6	c1 e9 08	 shr	 ecx, 8
  001b9	81 e1 ff 00 00
	00		 and	 ecx, 255		; 000000ffH
  001bf	83 e9 01	 sub	 ecx, 1
  001c2	81 e1 ff 00 00
	00		 and	 ecx, 255		; 000000ffH
  001c8	c1 e1 08	 shl	 ecx, 8
  001cb	8b 55 08	 mov	 edx, DWORD PTR _lpObj$[ebp]
  001ce	8b 82 b0 01 00
	00		 mov	 eax, DWORD PTR [edx+432]
  001d4	25 ff 00 ff ff	 and	 eax, -65281		; ffff00ffH
  001d9	0b c1		 or	 eax, ecx
  001db	8b 4d 08	 mov	 ecx, DWORD PTR _lpObj$[ebp]
  001de	89 81 b0 01 00
	00		 mov	 DWORD PTR [ecx+432], eax
  001e4	eb 18		 jmp	 SHORT $LN15@MonsterBas
$LN14@MonsterBas:

; 633  : 			else {
; 634  : 				lpObj->m_ActState.Emotion = 0;

  001e6	8b 45 08	 mov	 eax, DWORD PTR _lpObj$[ebp]
  001e9	8b 88 b0 01 00
	00		 mov	 ecx, DWORD PTR [eax+432]
  001ef	81 e1 0f ff ff
	ff		 and	 ecx, -241		; ffffff0fH
  001f5	8b 55 08	 mov	 edx, DWORD PTR _lpObj$[ebp]
  001f8	89 8a b0 01 00
	00		 mov	 DWORD PTR [edx+432], ecx
$LN15@MonsterBas:

; 635  : 			}
; 636  : 			
; 637  : 			if( lpObj->TargetNumber >= 0 && lpObj->PathStartEnd == 0 )	//   ..

  001fe	8b 45 08	 mov	 eax, DWORD PTR _lpObj$[ebp]
  00201	0f bf 88 ac 02
	00 00		 movsx	 ecx, WORD PTR [eax+684]
  00208	85 c9		 test	 ecx, ecx
  0020a	0f 8c 71 03 00
	00		 jl	 $LN17@MonsterBas
  00210	8b 45 08	 mov	 eax, DWORD PTR _lpObj$[ebp]
  00213	0f be 88 30 01
	00 00		 movsx	 ecx, BYTE PTR [eax+304]
  0021a	85 c9		 test	 ecx, ecx
  0021c	0f 85 5f 03 00
	00		 jne	 $LN17@MonsterBas

; 638  : 			{
; 639  : /*
; 640  : #ifdef FOR_BLOODCASTLE
; 641  : 				if (CHECK_BLOODCASTLE(lpObj->MapNumber)) {				//   
; 642  : 					INT iRAND_CHANGE_TARGET = rand()%10;
; 643  : 					if (iRAND_CHANGE_TARGET == 3) {
; 644  : 						lpObj->LastAttackerID = -1;
; 645  : 					}
; 646  : 					if (iRAND_CHANGE_TARGET == 1) {
; 647  : 						if ((lpObj->LastAttackerID != -1) && (lpObj->LastAttackerID != lpObj->TargetNumber)) {
; 648  : 							//        .
; 649  : 							if ((gObj[lpObj->LastAttackerID].Connected > 2) && (lpObj->MapNumber == gObj[lpObj->LastAttackerID].MapNumber)) {
; 650  : 								//      .
; 651  : 								lpObj->TargetNumber = lpObj->LastAttackerID;
; 652  : 								lpTargetObj = &gObj[lpObj->LastAttackerID];
; 653  : 							}
; 654  : 						}
; 655  : 					}
; 656  : 				}
; 657  : #endif
; 658  : */
; 659  : 				int dis = gObjCalDistance(lpObj, lpTargetObj);

  00222	8b 45 f8	 mov	 eax, DWORD PTR _lpTargetObj$[ebp]
  00225	50		 push	 eax
  00226	8b 4d 08	 mov	 ecx, DWORD PTR _lpObj$[ebp]
  00229	51		 push	 ecx
  0022a	e8 00 00 00 00	 call	 ?gObjCalDistance@@YAHPAVOBJECTSTRUCT@@0@Z ; gObjCalDistance
  0022f	83 c4 08	 add	 esp, 8
  00232	89 45 f0	 mov	 DWORD PTR _dis$5[ebp], eax

; 660  : 				
; 661  : 				int attackRange;
; 662  : 				if( lpObj->m_AttackType >= 100 )

  00235	8b 45 08	 mov	 eax, DWORD PTR _lpObj$[ebp]
  00238	0f bf 88 fa 02
	00 00		 movsx	 ecx, WORD PTR [eax+762]
  0023f	83 f9 64	 cmp	 ecx, 100		; 00000064H
  00242	7c 12		 jl	 SHORT $LN18@MonsterBas

; 663  : 				{
; 664  : 					attackRange = lpObj->m_AttackRange+2;

  00244	8b 45 08	 mov	 eax, DWORD PTR _lpObj$[ebp]
  00247	0f bf 88 f8 02
	00 00		 movsx	 ecx, WORD PTR [eax+760]
  0024e	83 c1 02	 add	 ecx, 2
  00251	89 4d ec	 mov	 DWORD PTR _attackRange$4[ebp], ecx

; 665  : 				}

  00254	eb 0d		 jmp	 SHORT $LN19@MonsterBas
$LN18@MonsterBas:

; 666  : 				else attackRange = lpObj->m_AttackRange;

  00256	8b 45 08	 mov	 eax, DWORD PTR _lpObj$[ebp]
  00259	0f bf 88 f8 02
	00 00		 movsx	 ecx, WORD PTR [eax+760]
  00260	89 4d ec	 mov	 DWORD PTR _attackRange$4[ebp], ecx
$LN19@MonsterBas:

; 667  : 
; 668  : 
; 669  : 				if(  dis <= attackRange )

  00263	8b 45 f0	 mov	 eax, DWORD PTR _dis$5[ebp]
  00266	3b 45 ec	 cmp	 eax, DWORD PTR _attackRange$4[ebp]
  00269	0f 8f b8 01 00
	00		 jg	 $LN20@MonsterBas

; 670  : 				{
; 671  : 					//       
; 672  : 					int tuser = lpObj->TargetNumber;

  0026f	8b 45 08	 mov	 eax, DWORD PTR _lpObj$[ebp]
  00272	0f bf 88 ac 02
	00 00		 movsx	 ecx, WORD PTR [eax+684]
  00279	89 4d e8	 mov	 DWORD PTR _tuser$3[ebp], ecx

; 673  : 					int map = gObj[tuser].MapNumber;

  0027c	69 45 e8 a0 1b
	00 00		 imul	 eax, DWORD PTR _tuser$3[ebp], 7072
  00283	8b 0d 00 00 00
	00		 mov	 ecx, DWORD PTR ?gObj@@3PAVOBJECTSTRUCT@@A ; gObj
  00289	0f b6 94 01 09
	01 00 00	 movzx	 edx, BYTE PTR [ecx+eax+265]
  00291	89 55 e4	 mov	 DWORD PTR _map$2[ebp], edx

; 674  : 					BYTE attr ;
; 675  : 					if( MapC[map].CheckWall(lpObj->X, lpObj->Y, gObj[tuser].X, gObj[tuser].Y) == TRUE )

  00294	69 45 e8 a0 1b
	00 00		 imul	 eax, DWORD PTR _tuser$3[ebp], 7072
  0029b	8b 0d 00 00 00
	00		 mov	 ecx, DWORD PTR ?gObj@@3PAVOBJECTSTRUCT@@A ; gObj
  002a1	0f bf 94 01 06
	01 00 00	 movsx	 edx, WORD PTR [ecx+eax+262]
  002a9	52		 push	 edx
  002aa	69 45 e8 a0 1b
	00 00		 imul	 eax, DWORD PTR _tuser$3[ebp], 7072
  002b1	8b 0d 00 00 00
	00		 mov	 ecx, DWORD PTR ?gObj@@3PAVOBJECTSTRUCT@@A ; gObj
  002b7	0f bf 94 01 04
	01 00 00	 movsx	 edx, WORD PTR [ecx+eax+260]
  002bf	52		 push	 edx
  002c0	8b 45 08	 mov	 eax, DWORD PTR _lpObj$[ebp]
  002c3	0f bf 88 06 01
	00 00		 movsx	 ecx, WORD PTR [eax+262]
  002ca	51		 push	 ecx
  002cb	8b 55 08	 mov	 edx, DWORD PTR _lpObj$[ebp]
  002ce	0f bf 82 04 01
	00 00		 movsx	 eax, WORD PTR [edx+260]
  002d5	50		 push	 eax
  002d6	69 4d e4 8c 04
	05 00		 imul	 ecx, DWORD PTR _map$2[ebp], 328844
  002dd	03 0d 00 00 00
	00		 add	 ecx, DWORD PTR ?MapC@@3PAVMapClass@@A ; MapC
  002e3	e8 00 00 00 00	 call	 ?CheckWall@MapClass@@QAEHHHHH@Z ; MapClass::CheckWall
  002e8	83 f8 01	 cmp	 eax, 1
  002eb	0f 85 31 01 00
	00		 jne	 $LN22@MonsterBas

; 676  : 					{
; 677  : 						attr = MapC[map].GetAttr(gObj[tuser].X, gObj[tuser].Y);

  002f1	69 45 e8 a0 1b
	00 00		 imul	 eax, DWORD PTR _tuser$3[ebp], 7072
  002f8	8b 0d 00 00 00
	00		 mov	 ecx, DWORD PTR ?gObj@@3PAVOBJECTSTRUCT@@A ; gObj
  002fe	0f bf 94 01 06
	01 00 00	 movsx	 edx, WORD PTR [ecx+eax+262]
  00306	52		 push	 edx
  00307	69 45 e8 a0 1b
	00 00		 imul	 eax, DWORD PTR _tuser$3[ebp], 7072
  0030e	8b 0d 00 00 00
	00		 mov	 ecx, DWORD PTR ?gObj@@3PAVOBJECTSTRUCT@@A ; gObj
  00314	0f bf 94 01 04
	01 00 00	 movsx	 edx, WORD PTR [ecx+eax+260]
  0031c	52		 push	 edx
  0031d	69 4d e4 8c 04
	05 00		 imul	 ecx, DWORD PTR _map$2[ebp], 328844
  00324	03 0d 00 00 00
	00		 add	 ecx, DWORD PTR ?MapC@@3PAVMapClass@@A ; MapC
  0032a	e8 00 00 00 00	 call	 ?GetAttr@MapClass@@QAEEHH@Z ; MapClass::GetAttr
  0032f	88 45 e3	 mov	 BYTE PTR _attr$1[ebp], al

; 678  : 						if( (attr&MAP_ATTR_SAFTYZONE) != MAP_ATTR_SAFTYZONE)//   

  00332	0f b6 45 e3	 movzx	 eax, BYTE PTR _attr$1[ebp]
  00336	83 e0 01	 and	 eax, 1
  00339	75 50		 jne	 SHORT $LN23@MonsterBas

; 679  : 						{
; 680  : 							lpObj->m_ActState.Attack = 1;

  0033b	8b 45 08	 mov	 eax, DWORD PTR _lpObj$[ebp]
  0033e	8b 88 b0 01 00
	00		 mov	 ecx, DWORD PTR [eax+432]
  00344	83 c9 02	 or	 ecx, 2
  00347	8b 55 08	 mov	 edx, DWORD PTR _lpObj$[ebp]
  0034a	89 8a b0 01 00
	00		 mov	 DWORD PTR [edx+432], ecx

; 681  : 							lpObj->m_ActState.EmotionCount = rand()%30+20;

  00350	e8 00 00 00 00	 call	 _rand
  00355	89 45 9c	 mov	 DWORD PTR tv264[ebp], eax
  00358	8b 45 9c	 mov	 eax, DWORD PTR tv264[ebp]
  0035b	99		 cdq
  0035c	b9 1e 00 00 00	 mov	 ecx, 30			; 0000001eH
  00361	f7 f9		 idiv	 ecx
  00363	83 c2 14	 add	 edx, 20			; 00000014H
  00366	81 e2 ff 00 00
	00		 and	 edx, 255		; 000000ffH
  0036c	c1 e2 08	 shl	 edx, 8
  0036f	8b 45 08	 mov	 eax, DWORD PTR _lpObj$[ebp]
  00372	8b 88 b0 01 00
	00		 mov	 ecx, DWORD PTR [eax+432]
  00378	81 e1 ff 00 ff
	ff		 and	 ecx, -65281		; ffff00ffH
  0037e	0b ca		 or	 ecx, edx
  00380	8b 55 08	 mov	 edx, DWORD PTR _lpObj$[ebp]
  00383	89 8a b0 01 00
	00		 mov	 DWORD PTR [edx+432], ecx

; 682  : 						}

  00389	eb 46		 jmp	 SHORT $LN24@MonsterBas
$LN23@MonsterBas:

; 683  : 						else {	//   .
; 684  : 							lpObj->TargetNumber = -1;

  0038b	83 c8 ff	 or	 eax, -1
  0038e	8b 4d 08	 mov	 ecx, DWORD PTR _lpObj$[ebp]
  00391	66 89 81 ac 02
	00 00		 mov	 WORD PTR [ecx+684], ax

; 685  : 							lpObj->m_ActState.EmotionCount = 30;

  00398	8b 45 08	 mov	 eax, DWORD PTR _lpObj$[ebp]
  0039b	8b 88 b0 01 00
	00		 mov	 ecx, DWORD PTR [eax+432]
  003a1	81 e1 ff 00 ff
	ff		 and	 ecx, -65281		; ffff00ffH
  003a7	81 c9 00 1e 00
	00		 or	 ecx, 7680		; 00001e00H
  003ad	8b 55 08	 mov	 edx, DWORD PTR _lpObj$[ebp]
  003b0	89 8a b0 01 00
	00		 mov	 DWORD PTR [edx+432], ecx

; 686  : 							lpObj->m_ActState.Emotion = 1;					

  003b6	8b 45 08	 mov	 eax, DWORD PTR _lpObj$[ebp]
  003b9	8b 88 b0 01 00
	00		 mov	 ecx, DWORD PTR [eax+432]
  003bf	81 e1 0f ff ff
	ff		 and	 ecx, -241		; ffffff0fH
  003c5	83 c9 10	 or	 ecx, 16			; 00000010H
  003c8	8b 55 08	 mov	 edx, DWORD PTR _lpObj$[ebp]
  003cb	89 8a b0 01 00
	00		 mov	 DWORD PTR [edx+432], ecx
$LN24@MonsterBas:

; 687  : 						}
; 688  : 						lpObj->Dir = GetPathPacketDirPos( lpTargetObj->X-lpObj->X, lpTargetObj->Y-lpObj->Y);

  003d1	8b 45 f8	 mov	 eax, DWORD PTR _lpTargetObj$[ebp]
  003d4	0f bf 88 06 01
	00 00		 movsx	 ecx, WORD PTR [eax+262]
  003db	8b 55 08	 mov	 edx, DWORD PTR _lpObj$[ebp]
  003de	0f bf 82 06 01
	00 00		 movsx	 eax, WORD PTR [edx+262]
  003e5	2b c8		 sub	 ecx, eax
  003e7	51		 push	 ecx
  003e8	8b 4d f8	 mov	 ecx, DWORD PTR _lpTargetObj$[ebp]
  003eb	0f bf 91 04 01
	00 00		 movsx	 edx, WORD PTR [ecx+260]
  003f2	8b 45 08	 mov	 eax, DWORD PTR _lpObj$[ebp]
  003f5	0f bf 88 04 01
	00 00		 movsx	 ecx, WORD PTR [eax+260]
  003fc	2b d1		 sub	 edx, ecx
  003fe	52		 push	 edx
  003ff	e8 00 00 00 00	 call	 ?GetPathPacketDirPos@@YAEHH@Z ; GetPathPacketDirPos
  00404	83 c4 08	 add	 esp, 8
  00407	8b 55 08	 mov	 edx, DWORD PTR _lpObj$[ebp]
  0040a	88 82 08 01 00
	00		 mov	 BYTE PTR [edx+264], al

; 689  : 						lpObj->NextActionTime = lpObj->m_AttackSpeed;

  00410	8b 45 08	 mov	 eax, DWORD PTR _lpObj$[ebp]
  00413	8b 4d 08	 mov	 ecx, DWORD PTR _lpObj$[ebp]
  00416	8b 91 e0 02 00
	00		 mov	 edx, DWORD PTR [ecx+736]
  0041c	89 90 18 02 00
	00		 mov	 DWORD PTR [eax+536], edx
$LN22@MonsterBas:

; 690  : 					}
; 691  : 				}

  00422	e9 5a 01 00 00	 jmp	 $LN17@MonsterBas
$LN20@MonsterBas:

; 692  : 				else 
; 693  : 				{
; 694  : 					//      
; 695  : 					if( gObjMonsterGetTargetPos(lpObj) == TRUE )

  00427	8b 45 08	 mov	 eax, DWORD PTR _lpObj$[ebp]
  0042a	50		 push	 eax
  0042b	e8 00 00 00 00	 call	 ?gObjMonsterGetTargetPos@@YAHPAVOBJECTSTRUCT@@@Z ; gObjMonsterGetTargetPos
  00430	83 c4 04	 add	 esp, 4
  00433	83 f8 01	 cmp	 eax, 1
  00436	0f 85 fb 00 00
	00		 jne	 $LN25@MonsterBas

; 696  : 					{
; 697  : 						if( MapC[lpObj->MapNumber].CheckWall(lpObj->X, lpObj->Y, lpObj->MTX, lpObj->MTY) == TRUE )

  0043c	8b 45 08	 mov	 eax, DWORD PTR _lpObj$[ebp]
  0043f	0f bf 88 26 01
	00 00		 movsx	 ecx, WORD PTR [eax+294]
  00446	51		 push	 ecx
  00447	8b 55 08	 mov	 edx, DWORD PTR _lpObj$[ebp]
  0044a	0f bf 82 24 01
	00 00		 movsx	 eax, WORD PTR [edx+292]
  00451	50		 push	 eax
  00452	8b 4d 08	 mov	 ecx, DWORD PTR _lpObj$[ebp]
  00455	0f bf 91 06 01
	00 00		 movsx	 edx, WORD PTR [ecx+262]
  0045c	52		 push	 edx
  0045d	8b 45 08	 mov	 eax, DWORD PTR _lpObj$[ebp]
  00460	0f bf 88 04 01
	00 00		 movsx	 ecx, WORD PTR [eax+260]
  00467	51		 push	 ecx
  00468	8b 55 08	 mov	 edx, DWORD PTR _lpObj$[ebp]
  0046b	0f b6 82 09 01
	00 00		 movzx	 eax, BYTE PTR [edx+265]
  00472	69 c8 8c 04 05
	00		 imul	 ecx, eax, 328844
  00478	03 0d 00 00 00
	00		 add	 ecx, DWORD PTR ?MapC@@3PAVMapClass@@A ; MapC
  0047e	e8 00 00 00 00	 call	 ?CheckWall@MapClass@@QAEHHHHH@Z ; MapClass::CheckWall
  00483	83 f8 01	 cmp	 eax, 1
  00486	75 63		 jne	 SHORT $LN27@MonsterBas

; 698  : 						{
; 699  : 							//    .
; 700  : 							lpObj->m_ActState.Move = 1;

  00488	8b 45 08	 mov	 eax, DWORD PTR _lpObj$[ebp]
  0048b	8b 88 b0 01 00
	00		 mov	 ecx, DWORD PTR [eax+432]
  00491	83 c9 04	 or	 ecx, 4
  00494	8b 55 08	 mov	 edx, DWORD PTR _lpObj$[ebp]
  00497	89 8a b0 01 00
	00		 mov	 DWORD PTR [edx+432], ecx

; 701  : 							lpObj->NextActionTime = 400;

  0049d	8b 45 08	 mov	 eax, DWORD PTR _lpObj$[ebp]
  004a0	c7 80 18 02 00
	00 90 01 00 00	 mov	 DWORD PTR [eax+536], 400 ; 00000190H

; 702  : 							lpObj->Dir = GetPathPacketDirPos( lpTargetObj->X-lpObj->X, lpTargetObj->Y-lpObj->Y);	//   .

  004aa	8b 45 f8	 mov	 eax, DWORD PTR _lpTargetObj$[ebp]
  004ad	0f bf 88 06 01
	00 00		 movsx	 ecx, WORD PTR [eax+262]
  004b4	8b 55 08	 mov	 edx, DWORD PTR _lpObj$[ebp]
  004b7	0f bf 82 06 01
	00 00		 movsx	 eax, WORD PTR [edx+262]
  004be	2b c8		 sub	 ecx, eax
  004c0	51		 push	 ecx
  004c1	8b 4d f8	 mov	 ecx, DWORD PTR _lpTargetObj$[ebp]
  004c4	0f bf 91 04 01
	00 00		 movsx	 edx, WORD PTR [ecx+260]
  004cb	8b 45 08	 mov	 eax, DWORD PTR _lpObj$[ebp]
  004ce	0f bf 88 04 01
	00 00		 movsx	 ecx, WORD PTR [eax+260]
  004d5	2b d1		 sub	 edx, ecx
  004d7	52		 push	 edx
  004d8	e8 00 00 00 00	 call	 ?GetPathPacketDirPos@@YAEHH@Z ; GetPathPacketDirPos
  004dd	83 c4 08	 add	 esp, 8
  004e0	8b 55 08	 mov	 edx, DWORD PTR _lpObj$[ebp]
  004e3	88 82 08 01 00
	00		 mov	 BYTE PTR [edx+264], al

; 703  : 						}

  004e9	eb 4a		 jmp	 SHORT $LN28@MonsterBas
$LN27@MonsterBas:

; 704  : 						else
; 705  : 						{
; 706  : 							//     .
; 707  : 							MonsterMoveAction(lpObj);

  004eb	8b 45 08	 mov	 eax, DWORD PTR _lpObj$[ebp]
  004ee	50		 push	 eax
  004ef	8b 4d fc	 mov	 ecx, DWORD PTR _this$[ebp]
  004f2	8b 11		 mov	 edx, DWORD PTR [ecx]
  004f4	8b 4d fc	 mov	 ecx, DWORD PTR _this$[ebp]
  004f7	8b 42 44	 mov	 eax, DWORD PTR [edx+68]
  004fa	ff d0		 call	 eax

; 708  : 							lpObj->m_ActState.Emotion = 3;

  004fc	8b 45 08	 mov	 eax, DWORD PTR _lpObj$[ebp]
  004ff	8b 88 b0 01 00
	00		 mov	 ecx, DWORD PTR [eax+432]
  00505	81 e1 0f ff ff
	ff		 and	 ecx, -241		; ffffff0fH
  0050b	83 c9 30	 or	 ecx, 48			; 00000030H
  0050e	8b 55 08	 mov	 edx, DWORD PTR _lpObj$[ebp]
  00511	89 8a b0 01 00
	00		 mov	 DWORD PTR [edx+432], ecx

; 709  : 							lpObj->m_ActState.EmotionCount = 10;

  00517	8b 45 08	 mov	 eax, DWORD PTR _lpObj$[ebp]
  0051a	8b 88 b0 01 00
	00		 mov	 ecx, DWORD PTR [eax+432]
  00520	81 e1 ff 00 ff
	ff		 and	 ecx, -65281		; ffff00ffH
  00526	81 c9 00 0a 00
	00		 or	 ecx, 2560		; 00000a00H
  0052c	8b 55 08	 mov	 edx, DWORD PTR _lpObj$[ebp]
  0052f	89 8a b0 01 00
	00		 mov	 DWORD PTR [edx+432], ecx
$LN28@MonsterBas:

; 710  : 
; 711  : 						}
; 712  : 					}

  00535	eb 4a		 jmp	 SHORT $LN17@MonsterBas
$LN25@MonsterBas:

; 713  : 					else 
; 714  : 					{
; 715  : 						//      (   )
; 716  : 						MonsterMoveAction(lpObj);

  00537	8b 45 08	 mov	 eax, DWORD PTR _lpObj$[ebp]
  0053a	50		 push	 eax
  0053b	8b 4d fc	 mov	 ecx, DWORD PTR _this$[ebp]
  0053e	8b 11		 mov	 edx, DWORD PTR [ecx]
  00540	8b 4d fc	 mov	 ecx, DWORD PTR _this$[ebp]
  00543	8b 42 44	 mov	 eax, DWORD PTR [edx+68]
  00546	ff d0		 call	 eax

; 717  : 						lpObj->m_ActState.Emotion = 3;

  00548	8b 45 08	 mov	 eax, DWORD PTR _lpObj$[ebp]
  0054b	8b 88 b0 01 00
	00		 mov	 ecx, DWORD PTR [eax+432]
  00551	81 e1 0f ff ff
	ff		 and	 ecx, -241		; ffffff0fH
  00557	83 c9 30	 or	 ecx, 48			; 00000030H
  0055a	8b 55 08	 mov	 edx, DWORD PTR _lpObj$[ebp]
  0055d	89 8a b0 01 00
	00		 mov	 DWORD PTR [edx+432], ecx

; 718  : 						lpObj->m_ActState.EmotionCount = 10;

  00563	8b 45 08	 mov	 eax, DWORD PTR _lpObj$[ebp]
  00566	8b 88 b0 01 00
	00		 mov	 ecx, DWORD PTR [eax+432]
  0056c	81 e1 ff 00 ff
	ff		 and	 ecx, -65281		; ffff00ffH
  00572	81 c9 00 0a 00
	00		 or	 ecx, 2560		; 00000a00H
  00578	8b 55 08	 mov	 edx, DWORD PTR _lpObj$[ebp]
  0057b	89 8a b0 01 00
	00		 mov	 DWORD PTR [edx+432], ecx
$LN17@MonsterBas:

; 719  : 
; 720  : //						gObjMonsterMoveAction(lpObj);
; 721  : 					}
; 722  : 				}
; 723  : 			}
; 724  : 			else {			
; 725  : 			}
; 726  : 			
; 727  : 		}
; 728  : 		break;

  00581	e9 a1 00 00 00	 jmp	 $LN1@MonsterBas

; 729  : 	case EMOTION_FLEE	:	//  - 
; 730  : 		{
; 731  : 			
; 732  : 		}
; 733  : 		break;

  00586	e9 9c 00 00 00	 jmp	 $LN1@MonsterBas
$LN30@MonsterBas:

; 734  : 	case EMOTION_HALT	:	//  - 
; 735  : 		{
; 736  : 			if( lpObj->m_ActState.EmotionCount > 0 ) lpObj->m_ActState.EmotionCount--;

  0058b	8b 45 08	 mov	 eax, DWORD PTR _lpObj$[ebp]
  0058e	8b 88 b0 01 00
	00		 mov	 ecx, DWORD PTR [eax+432]
  00594	c1 e9 08	 shr	 ecx, 8
  00597	81 e1 ff 00 00
	00		 and	 ecx, 255		; 000000ffH
  0059d	76 39		 jbe	 SHORT $LN31@MonsterBas
  0059f	8b 45 08	 mov	 eax, DWORD PTR _lpObj$[ebp]
  005a2	8b 88 b0 01 00
	00		 mov	 ecx, DWORD PTR [eax+432]
  005a8	c1 e9 08	 shr	 ecx, 8
  005ab	81 e1 ff 00 00
	00		 and	 ecx, 255		; 000000ffH
  005b1	83 e9 01	 sub	 ecx, 1
  005b4	81 e1 ff 00 00
	00		 and	 ecx, 255		; 000000ffH
  005ba	c1 e1 08	 shl	 ecx, 8
  005bd	8b 55 08	 mov	 edx, DWORD PTR _lpObj$[ebp]
  005c0	8b 82 b0 01 00
	00		 mov	 eax, DWORD PTR [edx+432]
  005c6	25 ff 00 ff ff	 and	 eax, -65281		; ffff00ffH
  005cb	0b c1		 or	 eax, ecx
  005cd	8b 4d 08	 mov	 ecx, DWORD PTR _lpObj$[ebp]
  005d0	89 81 b0 01 00
	00		 mov	 DWORD PTR [ecx+432], eax
  005d6	eb 18		 jmp	 SHORT $LN32@MonsterBas
$LN31@MonsterBas:

; 737  : 			else {
; 738  : 				lpObj->m_ActState.Emotion = 0;

  005d8	8b 45 08	 mov	 eax, DWORD PTR _lpObj$[ebp]
  005db	8b 88 b0 01 00
	00		 mov	 ecx, DWORD PTR [eax+432]
  005e1	81 e1 0f ff ff
	ff		 and	 ecx, -241		; ffffff0fH
  005e7	8b 55 08	 mov	 edx, DWORD PTR _lpObj$[ebp]
  005ea	89 8a b0 01 00
	00		 mov	 DWORD PTR [edx+432], ecx
$LN32@MonsterBas:

; 739  : 			}
; 740  : 			lpObj->m_ActState.Move = 0;

  005f0	8b 45 08	 mov	 eax, DWORD PTR _lpObj$[ebp]
  005f3	8b 88 b0 01 00
	00		 mov	 ecx, DWORD PTR [eax+432]
  005f9	83 e1 fb	 and	 ecx, -5			; fffffffbH
  005fc	8b 55 08	 mov	 edx, DWORD PTR _lpObj$[ebp]
  005ff	89 8a b0 01 00
	00		 mov	 DWORD PTR [edx+432], ecx

; 741  : 			lpObj->m_ActState.Attack = 0;

  00605	8b 45 08	 mov	 eax, DWORD PTR _lpObj$[ebp]
  00608	8b 88 b0 01 00
	00		 mov	 ecx, DWORD PTR [eax+432]
  0060e	83 e1 fd	 and	 ecx, -3			; fffffffdH
  00611	8b 55 08	 mov	 edx, DWORD PTR _lpObj$[ebp]
  00614	89 8a b0 01 00
	00		 mov	 DWORD PTR [edx+432], ecx

; 742  : 			lpObj->NextActionTime = 400;			

  0061a	8b 45 08	 mov	 eax, DWORD PTR _lpObj$[ebp]
  0061d	c7 80 18 02 00
	00 90 01 00 00	 mov	 DWORD PTR [eax+536], 400 ; 00000190H
$LN1@MonsterBas:

; 743  : 			}
; 744  : 		break;
; 745  : 	default :	//    - 
; 746  : 		break;
; 747  : 	}
; 748  : }

  00627	5f		 pop	 edi
  00628	5e		 pop	 esi
  00629	5b		 pop	 ebx
  0062a	8b e5		 mov	 esp, ebp
  0062c	5d		 pop	 ebp
  0062d	c2 04 00	 ret	 4
?MonsterBaseAct@MonsterHerd@@UAEXPAVOBJECTSTRUCT@@@Z ENDP ; MonsterHerd::MonsterBaseAct
_TEXT	ENDS
; Function compile flags: /Odtp /ZI
; File C:\Mu Online\Mu-GS-Webzen-MC-10093\GameServer\MonsterHerd.cpp
;	COMDAT ?OrderAttack@MonsterHerd@@UAEXPAVOBJECTSTRUCT@@0H@Z
_TEXT	SEGMENT
tv149 = -92						; size = 4
tv76 = -92						; size = 4
tv150 = -88						; size = 4
tv77 = -88						; size = 4
$T1 = -84						; size = 4
$T2 = -80						; size = 4
_pMHD$3 = -12						; size = 4
_it$ = -8						; size = 4
_this$ = -4						; size = 4
_lpObj$ = 8						; size = 4
_lpTargetObj$ = 12					; size = 4
_iAttackPercent$ = 16					; size = 4
?OrderAttack@MonsterHerd@@UAEXPAVOBJECTSTRUCT@@0H@Z PROC ; MonsterHerd::OrderAttack, COMDAT
; _this$ = ecx

; 350  : {

  00000	55		 push	 ebp
  00001	8b ec		 mov	 ebp, esp
  00003	83 ec 5c	 sub	 esp, 92			; 0000005cH
  00006	53		 push	 ebx
  00007	56		 push	 esi
  00008	57		 push	 edi
  00009	89 4d fc	 mov	 DWORD PTR _this$[ebp], ecx

; 351  : 	if (lpObj == NULL)

  0000c	83 7d 08 00	 cmp	 DWORD PTR _lpObj$[ebp], 0
  00010	75 05		 jne	 SHORT $LN5@OrderAttac

; 352  : 		return;

  00012	e9 0a 02 00 00	 jmp	 $LN1@OrderAttac
$LN5@OrderAttac:

; 353  : 
; 354  : 	if (lpObj->Connected < 3 || lpObj->Type != OBJTYPE_MONSTER)

  00017	8b 45 08	 mov	 eax, DWORD PTR _lpObj$[ebp]
  0001a	83 78 04 03	 cmp	 DWORD PTR [eax+4], 3
  0001e	7c 0c		 jl	 SHORT $LN7@OrderAttac
  00020	8b 45 08	 mov	 eax, DWORD PTR _lpObj$[ebp]
  00023	0f b7 48 64	 movzx	 ecx, WORD PTR [eax+100]
  00027	83 f9 02	 cmp	 ecx, 2
  0002a	74 05		 je	 SHORT $LN6@OrderAttac
$LN7@OrderAttac:

; 355  : 		return;

  0002c	e9 f0 01 00 00	 jmp	 $LN1@OrderAttac
$LN6@OrderAttac:

; 356  : 
; 357  : 	if (lpTargetObj->Connected < 3)

  00031	8b 45 0c	 mov	 eax, DWORD PTR _lpTargetObj$[ebp]
  00034	83 78 04 03	 cmp	 DWORD PTR [eax+4], 3
  00038	7d 05		 jge	 SHORT $LN8@OrderAttac

; 358  : 		return;

  0003a	e9 e2 01 00 00	 jmp	 $LN1@OrderAttac
$LN8@OrderAttac:

; 359  : 
; 360  : 	if (m_bHerdActive == FALSE)

  0003f	8b 45 fc	 mov	 eax, DWORD PTR _this$[ebp]
  00042	83 78 1c 00	 cmp	 DWORD PTR [eax+28], 0
  00046	75 05		 jne	 SHORT $LN9@OrderAttac

; 361  : 		return;

  00048	e9 d4 01 00 00	 jmp	 $LN1@OrderAttac
$LN9@OrderAttac:

; 362  : 
; 363  : 	if (!CHECK_LIMIT(iAttackPercent, 101))

  0004d	83 7d 10 00	 cmp	 DWORD PTR _iAttackPercent$[ebp], 0
  00051	7d 09		 jge	 SHORT $LN20@OrderAttac
  00053	c7 45 a8 00 00
	00 00		 mov	 DWORD PTR tv77[ebp], 0
  0005a	eb 1c		 jmp	 SHORT $LN21@OrderAttac
$LN20@OrderAttac:
  0005c	83 7d 10 64	 cmp	 DWORD PTR _iAttackPercent$[ebp], 100 ; 00000064H
  00060	7e 09		 jle	 SHORT $LN18@OrderAttac
  00062	c7 45 a4 00 00
	00 00		 mov	 DWORD PTR tv76[ebp], 0
  00069	eb 07		 jmp	 SHORT $LN19@OrderAttac
$LN18@OrderAttac:
  0006b	c7 45 a4 01 00
	00 00		 mov	 DWORD PTR tv76[ebp], 1
$LN19@OrderAttac:
  00072	8b 45 a4	 mov	 eax, DWORD PTR tv76[ebp]
  00075	89 45 a8	 mov	 DWORD PTR tv77[ebp], eax
$LN21@OrderAttac:
  00078	83 7d a8 00	 cmp	 DWORD PTR tv77[ebp], 0
  0007c	75 05		 jne	 SHORT $LN10@OrderAttac

; 364  : 		return;

  0007e	e9 9e 01 00 00	 jmp	 $LN1@OrderAttac
$LN10@OrderAttac:

; 365  : 
; 366  : 	map <INT, MONSTER_HERD_DATA>::iterator it = m_mapMonsterHerd.begin();

  00083	8d 45 f8	 lea	 eax, DWORD PTR _it$[ebp]
  00086	50		 push	 eax
  00087	8b 4d fc	 mov	 ecx, DWORD PTR _this$[ebp]
  0008a	83 c1 20	 add	 ecx, 32			; 00000020H
  0008d	e8 00 00 00 00	 call	 ?begin@?$_Tree@V?$_Tmap_traits@HU_MONSTER_HERD_DATA@@U?$less@H@std@@V?$allocator@U?$pair@$$CBHU_MONSTER_HERD_DATA@@@std@@@3@$0A@@std@@@std@@QAE?AV?$_Tree_iterator@V?$_Tree_val@U?$_Tree_simple_types@U?$pair@$$CBHU_MONSTER_HERD_DATA@@@std@@@std@@@std@@@2@XZ ; std::_Tree<std::_Tmap_traits<int,_MONSTER_HERD_DATA,std::less<int>,std::allocator<std::pair<int const ,_MONSTER_HERD_DATA> >,0> >::begin
  00092	eb 0e		 jmp	 SHORT $LN4@OrderAttac
$LN2@OrderAttac:

; 367  : 
; 368  : 	for (;it != m_mapMonsterHerd.end();it++) {

  00094	6a 00		 push	 0
  00096	8d 45 b0	 lea	 eax, DWORD PTR $T2[ebp]
  00099	50		 push	 eax
  0009a	8d 4d f8	 lea	 ecx, DWORD PTR _it$[ebp]
  0009d	e8 00 00 00 00	 call	 ??E?$_Tree_iterator@V?$_Tree_val@U?$_Tree_simple_types@U?$pair@$$CBHU_MONSTER_HERD_DATA@@@std@@@std@@@std@@@std@@QAE?AV01@H@Z ; std::_Tree_iterator<std::_Tree_val<std::_Tree_simple_types<std::pair<int const ,_MONSTER_HERD_DATA> > > >::operator++
$LN4@OrderAttac:
  000a2	8d 45 ac	 lea	 eax, DWORD PTR $T1[ebp]
  000a5	50		 push	 eax
  000a6	8b 4d fc	 mov	 ecx, DWORD PTR _this$[ebp]
  000a9	83 c1 20	 add	 ecx, 32			; 00000020H
  000ac	e8 00 00 00 00	 call	 ?end@?$_Tree@V?$_Tmap_traits@HU_MONSTER_HERD_DATA@@U?$less@H@std@@V?$allocator@U?$pair@$$CBHU_MONSTER_HERD_DATA@@@std@@@3@$0A@@std@@@std@@QAE?AV?$_Tree_iterator@V?$_Tree_val@U?$_Tree_simple_types@U?$pair@$$CBHU_MONSTER_HERD_DATA@@@std@@@std@@@std@@@2@XZ ; std::_Tree<std::_Tmap_traits<int,_MONSTER_HERD_DATA,std::less<int>,std::allocator<std::pair<int const ,_MONSTER_HERD_DATA> >,0> >::end
  000b1	50		 push	 eax
  000b2	8d 4d f8	 lea	 ecx, DWORD PTR _it$[ebp]
  000b5	e8 00 00 00 00	 call	 ??9?$_Tree_const_iterator@V?$_Tree_val@U?$_Tree_simple_types@U?$pair@$$CBHU_MONSTER_HERD_DATA@@@std@@@std@@@std@@@std@@QBE_NABV01@@Z ; std::_Tree_const_iterator<std::_Tree_val<std::_Tree_simple_types<std::pair<int const ,_MONSTER_HERD_DATA> > > >::operator!=
  000ba	0f b6 c8	 movzx	 ecx, al
  000bd	85 c9		 test	 ecx, ecx
  000bf	0f 84 5c 01 00
	00		 je	 $LN1@OrderAttac

; 369  : 		MONSTER_HERD_DATA & pMHD = it->second;

  000c5	8d 4d f8	 lea	 ecx, DWORD PTR _it$[ebp]
  000c8	e8 00 00 00 00	 call	 ??C?$_Tree_iterator@V?$_Tree_val@U?$_Tree_simple_types@U?$pair@$$CBHU_MONSTER_HERD_DATA@@@std@@@std@@@std@@@std@@QBEPAU?$pair@$$CBHU_MONSTER_HERD_DATA@@@1@XZ ; std::_Tree_iterator<std::_Tree_val<std::_Tree_simple_types<std::pair<int const ,_MONSTER_HERD_DATA> > > >::operator->
  000cd	83 c0 04	 add	 eax, 4
  000d0	89 45 f4	 mov	 DWORD PTR _pMHD$3[ebp], eax

; 370  : 
; 371  : 		if (!CHECK_LIMIT(pMHD.m_iIndex, MAX_OBJECT))

  000d3	8b 45 f4	 mov	 eax, DWORD PTR _pMHD$3[ebp]
  000d6	83 38 00	 cmp	 DWORD PTR [eax], 0
  000d9	7d 09		 jge	 SHORT $LN24@OrderAttac
  000db	c7 45 a8 00 00
	00 00		 mov	 DWORD PTR tv150[ebp], 0
  000e2	eb 21		 jmp	 SHORT $LN25@OrderAttac
$LN24@OrderAttac:
  000e4	8b 4d f4	 mov	 ecx, DWORD PTR _pMHD$3[ebp]
  000e7	81 39 e7 1c 00
	00		 cmp	 DWORD PTR [ecx], 7399	; 00001ce7H
  000ed	7e 09		 jle	 SHORT $LN22@OrderAttac
  000ef	c7 45 a4 00 00
	00 00		 mov	 DWORD PTR tv149[ebp], 0
  000f6	eb 07		 jmp	 SHORT $LN23@OrderAttac
$LN22@OrderAttac:
  000f8	c7 45 a4 01 00
	00 00		 mov	 DWORD PTR tv149[ebp], 1
$LN23@OrderAttac:
  000ff	8b 55 a4	 mov	 edx, DWORD PTR tv149[ebp]
  00102	89 55 a8	 mov	 DWORD PTR tv150[ebp], edx
$LN25@OrderAttac:
  00105	83 7d a8 00	 cmp	 DWORD PTR tv150[ebp], 0
  00109	75 02		 jne	 SHORT $LN11@OrderAttac

; 372  : 			continue;

  0010b	eb 87		 jmp	 SHORT $LN2@OrderAttac
$LN11@OrderAttac:

; 373  : 
; 374  : 		if( gObj[pMHD.m_iIndex].Live == 0 ||

  0010d	8b 45 f4	 mov	 eax, DWORD PTR _pMHD$3[ebp]
  00110	69 08 a0 1b 00
	00		 imul	 ecx, DWORD PTR [eax], 7072
  00116	8b 15 00 00 00
	00		 mov	 edx, DWORD PTR ?gObj@@3PAVOBJECTSTRUCT@@A ; gObj
  0011c	0f b6 44 0a 66	 movzx	 eax, BYTE PTR [edx+ecx+102]
  00121	85 c0		 test	 eax, eax
  00123	74 19		 je	 SHORT $LN13@OrderAttac
  00125	8b 45 f4	 mov	 eax, DWORD PTR _pMHD$3[ebp]
  00128	69 08 a0 1b 00
	00		 imul	 ecx, DWORD PTR [eax], 7072
  0012e	8b 15 00 00 00
	00		 mov	 edx, DWORD PTR ?gObj@@3PAVOBJECTSTRUCT@@A ; gObj
  00134	83 bc 0a b8 01
	00 00 02	 cmp	 DWORD PTR [edx+ecx+440], 2
  0013c	74 05		 je	 SHORT $LN12@OrderAttac
$LN13@OrderAttac:

; 375  : 			gObj[pMHD.m_iIndex].m_State != OBJST_PLAYING ) 
; 376  : 			continue;

  0013e	e9 51 ff ff ff	 jmp	 $LN2@OrderAttac
$LN12@OrderAttac:

; 377  : 
; 378  : 		if (gObj[pMHD.m_iIndex].m_lpMonsterHerd != lpObj->m_lpMonsterHerd)

  00143	8b 45 f4	 mov	 eax, DWORD PTR _pMHD$3[ebp]
  00146	69 08 a0 1b 00
	00		 imul	 ecx, DWORD PTR [eax], 7072
  0014c	8b 15 00 00 00
	00		 mov	 edx, DWORD PTR ?gObj@@3PAVOBJECTSTRUCT@@A ; gObj
  00152	8b 45 08	 mov	 eax, DWORD PTR _lpObj$[ebp]
  00155	8b 8c 0a f4 0e
	00 00		 mov	 ecx, DWORD PTR [edx+ecx+3828]
  0015c	3b 88 f4 0e 00
	00		 cmp	 ecx, DWORD PTR [eax+3828]
  00162	74 05		 je	 SHORT $LN14@OrderAttac

; 379  : 			continue;

  00164	e9 2b ff ff ff	 jmp	 $LN2@OrderAttac
$LN14@OrderAttac:

; 380  : 
; 381  : 		if (pMHD.m_iIndex == lpObj->m_Index)	//   

  00169	8b 45 f4	 mov	 eax, DWORD PTR _pMHD$3[ebp]
  0016c	8b 4d 08	 mov	 ecx, DWORD PTR _lpObj$[ebp]
  0016f	8b 10		 mov	 edx, DWORD PTR [eax]
  00171	3b 11		 cmp	 edx, DWORD PTR [ecx]
  00173	75 05		 jne	 SHORT $LN15@OrderAttac

; 382  : 			continue;

  00175	e9 1a ff ff ff	 jmp	 $LN2@OrderAttac
$LN15@OrderAttac:

; 383  : 
; 384  : 		if(rand()%100 < iAttackPercent) {		//    . -> 

  0017a	e8 00 00 00 00	 call	 _rand
  0017f	99		 cdq
  00180	b9 64 00 00 00	 mov	 ecx, 100		; 00000064H
  00185	f7 f9		 idiv	 ecx
  00187	3b 55 10	 cmp	 edx, DWORD PTR _iAttackPercent$[ebp]
  0018a	0f 8d 8c 00 00
	00		 jge	 $LN16@OrderAttac

; 385  : 			gObj[pMHD.m_iIndex].TargetNumber = lpTargetObj->m_Index;

  00190	8b 45 f4	 mov	 eax, DWORD PTR _pMHD$3[ebp]
  00193	69 08 a0 1b 00
	00		 imul	 ecx, DWORD PTR [eax], 7072
  00199	8b 15 00 00 00
	00		 mov	 edx, DWORD PTR ?gObj@@3PAVOBJECTSTRUCT@@A ; gObj
  0019f	8b 45 0c	 mov	 eax, DWORD PTR _lpTargetObj$[ebp]
  001a2	66 8b 00	 mov	 ax, WORD PTR [eax]
  001a5	66 89 84 0a ac
	02 00 00	 mov	 WORD PTR [edx+ecx+684], ax

; 386  : 			gObj[pMHD.m_iIndex].m_ActState.Emotion = 1;

  001ad	8b 45 f4	 mov	 eax, DWORD PTR _pMHD$3[ebp]
  001b0	69 08 a0 1b 00
	00		 imul	 ecx, DWORD PTR [eax], 7072
  001b6	8b 15 00 00 00
	00		 mov	 edx, DWORD PTR ?gObj@@3PAVOBJECTSTRUCT@@A ; gObj
  001bc	8b 84 0a b0 01
	00 00		 mov	 eax, DWORD PTR [edx+ecx+432]
  001c3	25 0f ff ff ff	 and	 eax, -241		; ffffff0fH
  001c8	83 c8 10	 or	 eax, 16			; 00000010H
  001cb	8b 4d f4	 mov	 ecx, DWORD PTR _pMHD$3[ebp]
  001ce	69 11 a0 1b 00
	00		 imul	 edx, DWORD PTR [ecx], 7072
  001d4	8b 0d 00 00 00
	00		 mov	 ecx, DWORD PTR ?gObj@@3PAVOBJECTSTRUCT@@A ; gObj
  001da	89 84 11 b0 01
	00 00		 mov	 DWORD PTR [ecx+edx+432], eax

; 387  : 			gObj[pMHD.m_iIndex].m_ActState.EmotionCount = 50;

  001e1	8b 45 f4	 mov	 eax, DWORD PTR _pMHD$3[ebp]
  001e4	69 08 a0 1b 00
	00		 imul	 ecx, DWORD PTR [eax], 7072
  001ea	8b 15 00 00 00
	00		 mov	 edx, DWORD PTR ?gObj@@3PAVOBJECTSTRUCT@@A ; gObj
  001f0	8b 84 0a b0 01
	00 00		 mov	 eax, DWORD PTR [edx+ecx+432]
  001f7	25 ff 00 ff ff	 and	 eax, -65281		; ffff00ffH
  001fc	0d 00 32 00 00	 or	 eax, 12800		; 00003200H
  00201	8b 4d f4	 mov	 ecx, DWORD PTR _pMHD$3[ebp]
  00204	69 11 a0 1b 00
	00		 imul	 edx, DWORD PTR [ecx], 7072
  0020a	8b 0d 00 00 00
	00		 mov	 ecx, DWORD PTR ?gObj@@3PAVOBJECTSTRUCT@@A ; gObj
  00210	89 84 11 b0 01
	00 00		 mov	 DWORD PTR [ecx+edx+432], eax

; 388  : 			continue;

  00217	e9 78 fe ff ff	 jmp	 $LN2@OrderAttac
$LN16@OrderAttac:

; 389  : 		}
; 390  : 	}

  0021c	e9 73 fe ff ff	 jmp	 $LN2@OrderAttac
$LN1@OrderAttac:

; 391  : }

  00221	5f		 pop	 edi
  00222	5e		 pop	 esi
  00223	5b		 pop	 ebx
  00224	8b e5		 mov	 esp, ebp
  00226	5d		 pop	 ebp
  00227	c2 0c 00	 ret	 12			; 0000000cH
?OrderAttack@MonsterHerd@@UAEXPAVOBJECTSTRUCT@@0H@Z ENDP ; MonsterHerd::OrderAttack
_TEXT	ENDS
; Function compile flags: /Odtp /ZI
; File C:\Mu Online\Mu-GS-Webzen-MC-10093\GameServer\MonsterHerd.cpp
;	COMDAT ?BeenAttacked@MonsterHerd@@UAEXPAVOBJECTSTRUCT@@0@Z
_TEXT	SEGMENT
tv144 = -92						; size = 4
tv145 = -88						; size = 4
$T1 = -84						; size = 4
$T2 = -80						; size = 4
_pMHD$3 = -12						; size = 4
_it$ = -8						; size = 4
_this$ = -4						; size = 4
_lpObj$ = 8						; size = 4
_lpTargetObj$ = 12					; size = 4
?BeenAttacked@MonsterHerd@@UAEXPAVOBJECTSTRUCT@@0@Z PROC ; MonsterHerd::BeenAttacked, COMDAT
; _this$ = ecx

; 292  : {

  00000	55		 push	 ebp
  00001	8b ec		 mov	 ebp, esp
  00003	83 ec 5c	 sub	 esp, 92			; 0000005cH
  00006	53		 push	 ebx
  00007	56		 push	 esi
  00008	57		 push	 edi
  00009	89 4d fc	 mov	 DWORD PTR _this$[ebp], ecx

; 293  : 	if (lpObj == NULL)

  0000c	83 7d 08 00	 cmp	 DWORD PTR _lpObj$[ebp], 0
  00010	75 05		 jne	 SHORT $LN5@BeenAttack

; 294  : 		return;

  00012	e9 9b 02 00 00	 jmp	 $LN1@BeenAttack
$LN5@BeenAttack:

; 295  : 
; 296  : 	if (lpObj->Connected < 3 || lpObj->Type != OBJTYPE_MONSTER)

  00017	8b 45 08	 mov	 eax, DWORD PTR _lpObj$[ebp]
  0001a	83 78 04 03	 cmp	 DWORD PTR [eax+4], 3
  0001e	7c 0c		 jl	 SHORT $LN7@BeenAttack
  00020	8b 45 08	 mov	 eax, DWORD PTR _lpObj$[ebp]
  00023	0f b7 48 64	 movzx	 ecx, WORD PTR [eax+100]
  00027	83 f9 02	 cmp	 ecx, 2
  0002a	74 05		 je	 SHORT $LN6@BeenAttack
$LN7@BeenAttack:

; 297  : 		return;

  0002c	e9 81 02 00 00	 jmp	 $LN1@BeenAttack
$LN6@BeenAttack:

; 298  : 
; 299  : 	if (lpTargetObj->Connected < 3)

  00031	8b 45 0c	 mov	 eax, DWORD PTR _lpTargetObj$[ebp]
  00034	83 78 04 03	 cmp	 DWORD PTR [eax+4], 3
  00038	7d 05		 jge	 SHORT $LN8@BeenAttack

; 300  : 		return;

  0003a	e9 73 02 00 00	 jmp	 $LN1@BeenAttack
$LN8@BeenAttack:

; 301  : 
; 302  : 	if (m_bHerdActive == FALSE)

  0003f	8b 45 fc	 mov	 eax, DWORD PTR _this$[ebp]
  00042	83 78 1c 00	 cmp	 DWORD PTR [eax+28], 0
  00046	75 05		 jne	 SHORT $LN9@BeenAttack

; 303  : 		return;

  00048	e9 65 02 00 00	 jmp	 $LN1@BeenAttack
$LN9@BeenAttack:

; 304  : 
; 305  : 	map <INT, MONSTER_HERD_DATA>::iterator it = m_mapMonsterHerd.begin();

  0004d	8d 45 f8	 lea	 eax, DWORD PTR _it$[ebp]
  00050	50		 push	 eax
  00051	8b 4d fc	 mov	 ecx, DWORD PTR _this$[ebp]
  00054	83 c1 20	 add	 ecx, 32			; 00000020H
  00057	e8 00 00 00 00	 call	 ?begin@?$_Tree@V?$_Tmap_traits@HU_MONSTER_HERD_DATA@@U?$less@H@std@@V?$allocator@U?$pair@$$CBHU_MONSTER_HERD_DATA@@@std@@@3@$0A@@std@@@std@@QAE?AV?$_Tree_iterator@V?$_Tree_val@U?$_Tree_simple_types@U?$pair@$$CBHU_MONSTER_HERD_DATA@@@std@@@std@@@std@@@2@XZ ; std::_Tree<std::_Tmap_traits<int,_MONSTER_HERD_DATA,std::less<int>,std::allocator<std::pair<int const ,_MONSTER_HERD_DATA> >,0> >::begin
  0005c	eb 0e		 jmp	 SHORT $LN4@BeenAttack
$LN2@BeenAttack:

; 306  : 
; 307  : 	for (;it != m_mapMonsterHerd.end();it++) {

  0005e	6a 00		 push	 0
  00060	8d 45 b0	 lea	 eax, DWORD PTR $T2[ebp]
  00063	50		 push	 eax
  00064	8d 4d f8	 lea	 ecx, DWORD PTR _it$[ebp]
  00067	e8 00 00 00 00	 call	 ??E?$_Tree_iterator@V?$_Tree_val@U?$_Tree_simple_types@U?$pair@$$CBHU_MONSTER_HERD_DATA@@@std@@@std@@@std@@@std@@QAE?AV01@H@Z ; std::_Tree_iterator<std::_Tree_val<std::_Tree_simple_types<std::pair<int const ,_MONSTER_HERD_DATA> > > >::operator++
$LN4@BeenAttack:
  0006c	8d 45 ac	 lea	 eax, DWORD PTR $T1[ebp]
  0006f	50		 push	 eax
  00070	8b 4d fc	 mov	 ecx, DWORD PTR _this$[ebp]
  00073	83 c1 20	 add	 ecx, 32			; 00000020H
  00076	e8 00 00 00 00	 call	 ?end@?$_Tree@V?$_Tmap_traits@HU_MONSTER_HERD_DATA@@U?$less@H@std@@V?$allocator@U?$pair@$$CBHU_MONSTER_HERD_DATA@@@std@@@3@$0A@@std@@@std@@QAE?AV?$_Tree_iterator@V?$_Tree_val@U?$_Tree_simple_types@U?$pair@$$CBHU_MONSTER_HERD_DATA@@@std@@@std@@@std@@@2@XZ ; std::_Tree<std::_Tmap_traits<int,_MONSTER_HERD_DATA,std::less<int>,std::allocator<std::pair<int const ,_MONSTER_HERD_DATA> >,0> >::end
  0007b	50		 push	 eax
  0007c	8d 4d f8	 lea	 ecx, DWORD PTR _it$[ebp]
  0007f	e8 00 00 00 00	 call	 ??9?$_Tree_const_iterator@V?$_Tree_val@U?$_Tree_simple_types@U?$pair@$$CBHU_MONSTER_HERD_DATA@@@std@@@std@@@std@@@std@@QBE_NABV01@@Z ; std::_Tree_const_iterator<std::_Tree_val<std::_Tree_simple_types<std::pair<int const ,_MONSTER_HERD_DATA> > > >::operator!=
  00084	0f b6 c8	 movzx	 ecx, al
  00087	85 c9		 test	 ecx, ecx
  00089	0f 84 23 02 00
	00		 je	 $LN1@BeenAttack

; 308  : 		MONSTER_HERD_DATA & pMHD = it->second;

  0008f	8d 4d f8	 lea	 ecx, DWORD PTR _it$[ebp]
  00092	e8 00 00 00 00	 call	 ??C?$_Tree_iterator@V?$_Tree_val@U?$_Tree_simple_types@U?$pair@$$CBHU_MONSTER_HERD_DATA@@@std@@@std@@@std@@@std@@QBEPAU?$pair@$$CBHU_MONSTER_HERD_DATA@@@1@XZ ; std::_Tree_iterator<std::_Tree_val<std::_Tree_simple_types<std::pair<int const ,_MONSTER_HERD_DATA> > > >::operator->
  00097	83 c0 04	 add	 eax, 4
  0009a	89 45 f4	 mov	 DWORD PTR _pMHD$3[ebp], eax

; 309  : 
; 310  : 		if (!CHECK_LIMIT(pMHD.m_iIndex, MAX_OBJECT))

  0009d	8b 45 f4	 mov	 eax, DWORD PTR _pMHD$3[ebp]
  000a0	83 38 00	 cmp	 DWORD PTR [eax], 0
  000a3	7d 09		 jge	 SHORT $LN22@BeenAttack
  000a5	c7 45 a8 00 00
	00 00		 mov	 DWORD PTR tv145[ebp], 0
  000ac	eb 21		 jmp	 SHORT $LN23@BeenAttack
$LN22@BeenAttack:
  000ae	8b 4d f4	 mov	 ecx, DWORD PTR _pMHD$3[ebp]
  000b1	81 39 e7 1c 00
	00		 cmp	 DWORD PTR [ecx], 7399	; 00001ce7H
  000b7	7e 09		 jle	 SHORT $LN20@BeenAttack
  000b9	c7 45 a4 00 00
	00 00		 mov	 DWORD PTR tv144[ebp], 0
  000c0	eb 07		 jmp	 SHORT $LN21@BeenAttack
$LN20@BeenAttack:
  000c2	c7 45 a4 01 00
	00 00		 mov	 DWORD PTR tv144[ebp], 1
$LN21@BeenAttack:
  000c9	8b 55 a4	 mov	 edx, DWORD PTR tv144[ebp]
  000cc	89 55 a8	 mov	 DWORD PTR tv145[ebp], edx
$LN23@BeenAttack:
  000cf	83 7d a8 00	 cmp	 DWORD PTR tv145[ebp], 0
  000d3	75 02		 jne	 SHORT $LN10@BeenAttack

; 311  : 			continue;

  000d5	eb 87		 jmp	 SHORT $LN2@BeenAttack
$LN10@BeenAttack:

; 312  : 
; 313  : 		if( gObj[pMHD.m_iIndex].Live == 0 ||

  000d7	8b 45 f4	 mov	 eax, DWORD PTR _pMHD$3[ebp]
  000da	69 08 a0 1b 00
	00		 imul	 ecx, DWORD PTR [eax], 7072
  000e0	8b 15 00 00 00
	00		 mov	 edx, DWORD PTR ?gObj@@3PAVOBJECTSTRUCT@@A ; gObj
  000e6	0f b6 44 0a 66	 movzx	 eax, BYTE PTR [edx+ecx+102]
  000eb	85 c0		 test	 eax, eax
  000ed	74 19		 je	 SHORT $LN12@BeenAttack
  000ef	8b 45 f4	 mov	 eax, DWORD PTR _pMHD$3[ebp]
  000f2	69 08 a0 1b 00
	00		 imul	 ecx, DWORD PTR [eax], 7072
  000f8	8b 15 00 00 00
	00		 mov	 edx, DWORD PTR ?gObj@@3PAVOBJECTSTRUCT@@A ; gObj
  000fe	83 bc 0a b8 01
	00 00 02	 cmp	 DWORD PTR [edx+ecx+440], 2
  00106	74 05		 je	 SHORT $LN11@BeenAttack
$LN12@BeenAttack:

; 314  : 			gObj[pMHD.m_iIndex].m_State != OBJST_PLAYING ) 
; 315  : 			continue;

  00108	e9 51 ff ff ff	 jmp	 $LN2@BeenAttack
$LN11@BeenAttack:

; 316  : 
; 317  : 		if (gObj[pMHD.m_iIndex].m_lpMonsterHerd != lpObj->m_lpMonsterHerd)

  0010d	8b 45 f4	 mov	 eax, DWORD PTR _pMHD$3[ebp]
  00110	69 08 a0 1b 00
	00		 imul	 ecx, DWORD PTR [eax], 7072
  00116	8b 15 00 00 00
	00		 mov	 edx, DWORD PTR ?gObj@@3PAVOBJECTSTRUCT@@A ; gObj
  0011c	8b 45 08	 mov	 eax, DWORD PTR _lpObj$[ebp]
  0011f	8b 8c 0a f4 0e
	00 00		 mov	 ecx, DWORD PTR [edx+ecx+3828]
  00126	3b 88 f4 0e 00
	00		 cmp	 ecx, DWORD PTR [eax+3828]
  0012c	74 05		 je	 SHORT $LN13@BeenAttack

; 318  : 			continue;

  0012e	e9 2b ff ff ff	 jmp	 $LN2@BeenAttack
$LN13@BeenAttack:

; 319  : 
; 320  : 		if (pMHD.m_iIndex == lpObj->m_Index)	//   

  00133	8b 45 f4	 mov	 eax, DWORD PTR _pMHD$3[ebp]
  00136	8b 4d 08	 mov	 ecx, DWORD PTR _lpObj$[ebp]
  00139	8b 10		 mov	 edx, DWORD PTR [eax]
  0013b	3b 11		 cmp	 edx, DWORD PTR [ecx]
  0013d	75 05		 jne	 SHORT $LN14@BeenAttack

; 321  : 			continue;

  0013f	e9 1a ff ff ff	 jmp	 $LN2@BeenAttack
$LN14@BeenAttack:

; 322  : 
; 323  : 		if (gObj[pMHD.m_iIndex].TargetNumber == -1) {

  00144	8b 45 f4	 mov	 eax, DWORD PTR _pMHD$3[ebp]
  00147	69 08 a0 1b 00
	00		 imul	 ecx, DWORD PTR [eax], 7072
  0014d	8b 15 00 00 00
	00		 mov	 edx, DWORD PTR ?gObj@@3PAVOBJECTSTRUCT@@A ; gObj
  00153	0f bf 84 0a ac
	02 00 00	 movsx	 eax, WORD PTR [edx+ecx+684]
  0015b	83 f8 ff	 cmp	 eax, -1
  0015e	0f 85 a7 00 00
	00		 jne	 $LN15@BeenAttack

; 324  : 			//      .
; 325  : 			if(rand()%100 < 70) {		// 70%   .

  00164	e8 00 00 00 00	 call	 _rand
  00169	99		 cdq
  0016a	b9 64 00 00 00	 mov	 ecx, 100		; 00000064H
  0016f	f7 f9		 idiv	 ecx
  00171	83 fa 46	 cmp	 edx, 70			; 00000046H
  00174	0f 8d 8c 00 00
	00		 jge	 $LN17@BeenAttack

; 326  : 				gObj[pMHD.m_iIndex].TargetNumber = lpTargetObj->m_Index;

  0017a	8b 45 f4	 mov	 eax, DWORD PTR _pMHD$3[ebp]
  0017d	69 08 a0 1b 00
	00		 imul	 ecx, DWORD PTR [eax], 7072
  00183	8b 15 00 00 00
	00		 mov	 edx, DWORD PTR ?gObj@@3PAVOBJECTSTRUCT@@A ; gObj
  00189	8b 45 0c	 mov	 eax, DWORD PTR _lpTargetObj$[ebp]
  0018c	66 8b 00	 mov	 ax, WORD PTR [eax]
  0018f	66 89 84 0a ac
	02 00 00	 mov	 WORD PTR [edx+ecx+684], ax

; 327  : 				gObj[pMHD.m_iIndex].m_ActState.Emotion = 1;

  00197	8b 45 f4	 mov	 eax, DWORD PTR _pMHD$3[ebp]
  0019a	69 08 a0 1b 00
	00		 imul	 ecx, DWORD PTR [eax], 7072
  001a0	8b 15 00 00 00
	00		 mov	 edx, DWORD PTR ?gObj@@3PAVOBJECTSTRUCT@@A ; gObj
  001a6	8b 84 0a b0 01
	00 00		 mov	 eax, DWORD PTR [edx+ecx+432]
  001ad	25 0f ff ff ff	 and	 eax, -241		; ffffff0fH
  001b2	83 c8 10	 or	 eax, 16			; 00000010H
  001b5	8b 4d f4	 mov	 ecx, DWORD PTR _pMHD$3[ebp]
  001b8	69 11 a0 1b 00
	00		 imul	 edx, DWORD PTR [ecx], 7072
  001be	8b 0d 00 00 00
	00		 mov	 ecx, DWORD PTR ?gObj@@3PAVOBJECTSTRUCT@@A ; gObj
  001c4	89 84 11 b0 01
	00 00		 mov	 DWORD PTR [ecx+edx+432], eax

; 328  : 				gObj[pMHD.m_iIndex].m_ActState.EmotionCount = 50;

  001cb	8b 45 f4	 mov	 eax, DWORD PTR _pMHD$3[ebp]
  001ce	69 08 a0 1b 00
	00		 imul	 ecx, DWORD PTR [eax], 7072
  001d4	8b 15 00 00 00
	00		 mov	 edx, DWORD PTR ?gObj@@3PAVOBJECTSTRUCT@@A ; gObj
  001da	8b 84 0a b0 01
	00 00		 mov	 eax, DWORD PTR [edx+ecx+432]
  001e1	25 ff 00 ff ff	 and	 eax, -65281		; ffff00ffH
  001e6	0d 00 32 00 00	 or	 eax, 12800		; 00003200H
  001eb	8b 4d f4	 mov	 ecx, DWORD PTR _pMHD$3[ebp]
  001ee	69 11 a0 1b 00
	00		 imul	 edx, DWORD PTR [ecx], 7072
  001f4	8b 0d 00 00 00
	00		 mov	 ecx, DWORD PTR ?gObj@@3PAVOBJECTSTRUCT@@A ; gObj
  001fa	89 84 11 b0 01
	00 00		 mov	 DWORD PTR [ecx+edx+432], eax

; 329  : 				continue;

  00201	e9 58 fe ff ff	 jmp	 $LN2@BeenAttack
$LN17@BeenAttack:

; 330  : 			}
; 331  : 		}

  00206	e9 a2 00 00 00	 jmp	 $LN16@BeenAttack
$LN15@BeenAttack:

; 332  : 		else {
; 333  : 			//     .
; 334  : 			if (rand()%100 < 30) {		// 30%   .

  0020b	e8 00 00 00 00	 call	 _rand
  00210	99		 cdq
  00211	b9 64 00 00 00	 mov	 ecx, 100		; 00000064H
  00216	f7 f9		 idiv	 ecx
  00218	83 fa 1e	 cmp	 edx, 30			; 0000001eH
  0021b	0f 8d 8c 00 00
	00		 jge	 $LN16@BeenAttack

; 335  : 				gObj[pMHD.m_iIndex].TargetNumber = lpTargetObj->m_Index;

  00221	8b 45 f4	 mov	 eax, DWORD PTR _pMHD$3[ebp]
  00224	69 08 a0 1b 00
	00		 imul	 ecx, DWORD PTR [eax], 7072
  0022a	8b 15 00 00 00
	00		 mov	 edx, DWORD PTR ?gObj@@3PAVOBJECTSTRUCT@@A ; gObj
  00230	8b 45 0c	 mov	 eax, DWORD PTR _lpTargetObj$[ebp]
  00233	66 8b 00	 mov	 ax, WORD PTR [eax]
  00236	66 89 84 0a ac
	02 00 00	 mov	 WORD PTR [edx+ecx+684], ax

; 336  : 				gObj[pMHD.m_iIndex].m_ActState.Emotion = 1;

  0023e	8b 45 f4	 mov	 eax, DWORD PTR _pMHD$3[ebp]
  00241	69 08 a0 1b 00
	00		 imul	 ecx, DWORD PTR [eax], 7072
  00247	8b 15 00 00 00
	00		 mov	 edx, DWORD PTR ?gObj@@3PAVOBJECTSTRUCT@@A ; gObj
  0024d	8b 84 0a b0 01
	00 00		 mov	 eax, DWORD PTR [edx+ecx+432]
  00254	25 0f ff ff ff	 and	 eax, -241		; ffffff0fH
  00259	83 c8 10	 or	 eax, 16			; 00000010H
  0025c	8b 4d f4	 mov	 ecx, DWORD PTR _pMHD$3[ebp]
  0025f	69 11 a0 1b 00
	00		 imul	 edx, DWORD PTR [ecx], 7072
  00265	8b 0d 00 00 00
	00		 mov	 ecx, DWORD PTR ?gObj@@3PAVOBJECTSTRUCT@@A ; gObj
  0026b	89 84 11 b0 01
	00 00		 mov	 DWORD PTR [ecx+edx+432], eax

; 337  : 				gObj[pMHD.m_iIndex].m_ActState.EmotionCount = 50;

  00272	8b 45 f4	 mov	 eax, DWORD PTR _pMHD$3[ebp]
  00275	69 08 a0 1b 00
	00		 imul	 ecx, DWORD PTR [eax], 7072
  0027b	8b 15 00 00 00
	00		 mov	 edx, DWORD PTR ?gObj@@3PAVOBJECTSTRUCT@@A ; gObj
  00281	8b 84 0a b0 01
	00 00		 mov	 eax, DWORD PTR [edx+ecx+432]
  00288	25 ff 00 ff ff	 and	 eax, -65281		; ffff00ffH
  0028d	0d 00 32 00 00	 or	 eax, 12800		; 00003200H
  00292	8b 4d f4	 mov	 ecx, DWORD PTR _pMHD$3[ebp]
  00295	69 11 a0 1b 00
	00		 imul	 edx, DWORD PTR [ecx], 7072
  0029b	8b 0d 00 00 00
	00		 mov	 ecx, DWORD PTR ?gObj@@3PAVOBJECTSTRUCT@@A ; gObj
  002a1	89 84 11 b0 01
	00 00		 mov	 DWORD PTR [ecx+edx+432], eax

; 338  : 				continue;

  002a8	e9 b1 fd ff ff	 jmp	 $LN2@BeenAttack
$LN16@BeenAttack:

; 339  : 			}
; 340  : 		}
; 341  : 	}

  002ad	e9 ac fd ff ff	 jmp	 $LN2@BeenAttack
$LN1@BeenAttack:

; 342  : }

  002b2	5f		 pop	 edi
  002b3	5e		 pop	 esi
  002b4	5b		 pop	 ebx
  002b5	8b e5		 mov	 esp, ebp
  002b7	5d		 pop	 ebp
  002b8	c2 08 00	 ret	 8
?BeenAttacked@MonsterHerd@@UAEXPAVOBJECTSTRUCT@@0@Z ENDP ; MonsterHerd::BeenAttacked
_TEXT	ENDS
; Function compile flags: /Odtp /ZI
; File C:\Mu Online\Mu-GS-Webzen-MC-10093\GameServer\MonsterHerd.cpp
;	COMDAT ?GetMonsterData@MonsterHerd@@UAEPAU_MONSTER_HERD_DATA@@H@Z
_TEXT	SEGMENT
tv66 = -96						; size = 4
tv67 = -92						; size = 4
$T1 = -88						; size = 4
_it$ = -20						; size = 4
_lpMHD_RETURN$ = -16					; size = 4
_lpMH$ = -12						; size = 4
_lpOBJ$ = -8						; size = 4
_this$ = -4						; size = 4
_iIndex$ = 8						; size = 4
?GetMonsterData@MonsterHerd@@UAEPAU_MONSTER_HERD_DATA@@H@Z PROC ; MonsterHerd::GetMonsterData, COMDAT
; _this$ = ecx

; 258  : {

  00000	55		 push	 ebp
  00001	8b ec		 mov	 ebp, esp
  00003	83 ec 60	 sub	 esp, 96			; 00000060H
  00006	53		 push	 ebx
  00007	56		 push	 esi
  00008	57		 push	 edi
  00009	89 4d fc	 mov	 DWORD PTR _this$[ebp], ecx

; 259  : 	if (!CHECK_LIMIT(iIndex, MAX_OBJECT))

  0000c	83 7d 08 00	 cmp	 DWORD PTR _iIndex$[ebp], 0
  00010	7d 09		 jge	 SHORT $LN10@GetMonster
  00012	c7 45 a4 00 00
	00 00		 mov	 DWORD PTR tv67[ebp], 0
  00019	eb 1f		 jmp	 SHORT $LN11@GetMonster
$LN10@GetMonster:
  0001b	81 7d 08 e7 1c
	00 00		 cmp	 DWORD PTR _iIndex$[ebp], 7399 ; 00001ce7H
  00022	7e 09		 jle	 SHORT $LN8@GetMonster
  00024	c7 45 a0 00 00
	00 00		 mov	 DWORD PTR tv66[ebp], 0
  0002b	eb 07		 jmp	 SHORT $LN9@GetMonster
$LN8@GetMonster:
  0002d	c7 45 a0 01 00
	00 00		 mov	 DWORD PTR tv66[ebp], 1
$LN9@GetMonster:
  00034	8b 45 a0	 mov	 eax, DWORD PTR tv66[ebp]
  00037	89 45 a4	 mov	 DWORD PTR tv67[ebp], eax
$LN11@GetMonster:
  0003a	83 7d a4 00	 cmp	 DWORD PTR tv67[ebp], 0
  0003e	75 07		 jne	 SHORT $LN2@GetMonster

; 260  : 		return NULL;

  00040	33 c0		 xor	 eax, eax
  00042	e9 a3 00 00 00	 jmp	 $LN1@GetMonster
$LN2@GetMonster:

; 261  : 
; 262  : 	LPOBJECTSTRUCT lpOBJ = &gObj[iIndex];

  00047	69 45 08 a0 1b
	00 00		 imul	 eax, DWORD PTR _iIndex$[ebp], 7072
  0004e	03 05 00 00 00
	00		 add	 eax, DWORD PTR ?gObj@@3PAVOBJECTSTRUCT@@A ; gObj
  00054	89 45 f8	 mov	 DWORD PTR _lpOBJ$[ebp], eax

; 263  : 
; 264  : 	if (lpOBJ->Connected < 3 || lpOBJ->Type != OBJTYPE_MONSTER)

  00057	8b 45 f8	 mov	 eax, DWORD PTR _lpOBJ$[ebp]
  0005a	83 78 04 03	 cmp	 DWORD PTR [eax+4], 3
  0005e	7c 0c		 jl	 SHORT $LN4@GetMonster
  00060	8b 45 f8	 mov	 eax, DWORD PTR _lpOBJ$[ebp]
  00063	0f b7 48 64	 movzx	 ecx, WORD PTR [eax+100]
  00067	83 f9 02	 cmp	 ecx, 2
  0006a	74 04		 je	 SHORT $LN3@GetMonster
$LN4@GetMonster:

; 265  : 		return NULL;

  0006c	33 c0		 xor	 eax, eax
  0006e	eb 7a		 jmp	 SHORT $LN1@GetMonster
$LN3@GetMonster:

; 266  : 
; 267  : 	MonsterHerd * lpMH = lpOBJ->m_lpMonsterHerd;

  00070	8b 45 f8	 mov	 eax, DWORD PTR _lpOBJ$[ebp]
  00073	8b 88 f4 0e 00
	00		 mov	 ecx, DWORD PTR [eax+3828]
  00079	89 4d f4	 mov	 DWORD PTR _lpMH$[ebp], ecx

; 268  : 
; 269  : 	if (lpMH == NULL)

  0007c	83 7d f4 00	 cmp	 DWORD PTR _lpMH$[ebp], 0
  00080	75 04		 jne	 SHORT $LN5@GetMonster

; 270  : 		return NULL;

  00082	33 c0		 xor	 eax, eax
  00084	eb 64		 jmp	 SHORT $LN1@GetMonster
$LN5@GetMonster:

; 271  : 
; 272  : 	LPMONSTER_HERD_DATA lpMHD_RETURN = NULL;

  00086	c7 45 f0 00 00
	00 00		 mov	 DWORD PTR _lpMHD_RETURN$[ebp], 0

; 273  : 
; 274  : 	EnterCriticalSection(& lpMH->m_critMonsterHerd);

  0008d	8b 45 f4	 mov	 eax, DWORD PTR _lpMH$[ebp]
  00090	83 c0 28	 add	 eax, 40			; 00000028H
  00093	50		 push	 eax
  00094	ff 15 00 00 00
	00		 call	 DWORD PTR __imp__EnterCriticalSection@4

; 275  : 
; 276  : 	map<INT, MONSTER_HERD_DATA>::iterator it = lpMH->m_mapMonsterHerd.find(iIndex);

  0009a	8d 45 08	 lea	 eax, DWORD PTR _iIndex$[ebp]
  0009d	50		 push	 eax
  0009e	8d 4d ec	 lea	 ecx, DWORD PTR _it$[ebp]
  000a1	51		 push	 ecx
  000a2	8b 4d f4	 mov	 ecx, DWORD PTR _lpMH$[ebp]
  000a5	83 c1 20	 add	 ecx, 32			; 00000020H
  000a8	e8 00 00 00 00	 call	 ?find@?$_Tree@V?$_Tmap_traits@HU_MONSTER_HERD_DATA@@U?$less@H@std@@V?$allocator@U?$pair@$$CBHU_MONSTER_HERD_DATA@@@std@@@3@$0A@@std@@@std@@QAE?AV?$_Tree_iterator@V?$_Tree_val@U?$_Tree_simple_types@U?$pair@$$CBHU_MONSTER_HERD_DATA@@@std@@@std@@@std@@@2@ABH@Z ; std::_Tree<std::_Tmap_traits<int,_MONSTER_HERD_DATA,std::less<int>,std::allocator<std::pair<int const ,_MONSTER_HERD_DATA> >,0> >::find

; 277  : 
; 278  : 	if (it != lpMH->m_mapMonsterHerd.end()) {

  000ad	8d 45 a8	 lea	 eax, DWORD PTR $T1[ebp]
  000b0	50		 push	 eax
  000b1	8b 4d f4	 mov	 ecx, DWORD PTR _lpMH$[ebp]
  000b4	83 c1 20	 add	 ecx, 32			; 00000020H
  000b7	e8 00 00 00 00	 call	 ?end@?$_Tree@V?$_Tmap_traits@HU_MONSTER_HERD_DATA@@U?$less@H@std@@V?$allocator@U?$pair@$$CBHU_MONSTER_HERD_DATA@@@std@@@3@$0A@@std@@@std@@QAE?AV?$_Tree_iterator@V?$_Tree_val@U?$_Tree_simple_types@U?$pair@$$CBHU_MONSTER_HERD_DATA@@@std@@@std@@@std@@@2@XZ ; std::_Tree<std::_Tmap_traits<int,_MONSTER_HERD_DATA,std::less<int>,std::allocator<std::pair<int const ,_MONSTER_HERD_DATA> >,0> >::end
  000bc	50		 push	 eax
  000bd	8d 4d ec	 lea	 ecx, DWORD PTR _it$[ebp]
  000c0	e8 00 00 00 00	 call	 ??9?$_Tree_const_iterator@V?$_Tree_val@U?$_Tree_simple_types@U?$pair@$$CBHU_MONSTER_HERD_DATA@@@std@@@std@@@std@@@std@@QBE_NABV01@@Z ; std::_Tree_const_iterator<std::_Tree_val<std::_Tree_simple_types<std::pair<int const ,_MONSTER_HERD_DATA> > > >::operator!=
  000c5	0f b6 c8	 movzx	 ecx, al
  000c8	85 c9		 test	 ecx, ecx
  000ca	74 0e		 je	 SHORT $LN6@GetMonster

; 279  : 		lpMHD_RETURN =  &(it->second);

  000cc	8d 4d ec	 lea	 ecx, DWORD PTR _it$[ebp]
  000cf	e8 00 00 00 00	 call	 ??C?$_Tree_iterator@V?$_Tree_val@U?$_Tree_simple_types@U?$pair@$$CBHU_MONSTER_HERD_DATA@@@std@@@std@@@std@@@std@@QBEPAU?$pair@$$CBHU_MONSTER_HERD_DATA@@@1@XZ ; std::_Tree_iterator<std::_Tree_val<std::_Tree_simple_types<std::pair<int const ,_MONSTER_HERD_DATA> > > >::operator->
  000d4	83 c0 04	 add	 eax, 4
  000d7	89 45 f0	 mov	 DWORD PTR _lpMHD_RETURN$[ebp], eax
$LN6@GetMonster:

; 280  : 	}
; 281  : 
; 282  : 	LeaveCriticalSection(& lpMH->m_critMonsterHerd);

  000da	8b 45 f4	 mov	 eax, DWORD PTR _lpMH$[ebp]
  000dd	83 c0 28	 add	 eax, 40			; 00000028H
  000e0	50		 push	 eax
  000e1	ff 15 00 00 00
	00		 call	 DWORD PTR __imp__LeaveCriticalSection@4

; 283  : 		
; 284  : 	return lpMHD_RETURN;

  000e7	8b 45 f0	 mov	 eax, DWORD PTR _lpMHD_RETURN$[ebp]
$LN1@GetMonster:

; 285  : }

  000ea	5f		 pop	 edi
  000eb	5e		 pop	 esi
  000ec	5b		 pop	 ebx
  000ed	8b e5		 mov	 esp, ebp
  000ef	5d		 pop	 ebp
  000f0	c2 04 00	 ret	 4
?GetMonsterData@MonsterHerd@@UAEPAU_MONSTER_HERD_DATA@@H@Z ENDP ; MonsterHerd::GetMonsterData
_TEXT	ENDS
; Function compile flags: /Odtp /ZI
; File C:\Mu Online\Mu-GS-Webzen-MC-10093\GameServer\MonsterHerd.cpp
;	COMDAT ?MonsterHerdItemDrop@MonsterHerd@@UAEHPAVOBJECTSTRUCT@@@Z
_TEXT	SEGMENT
_this$ = -4						; size = 4
_lpObj$ = 8						; size = 4
?MonsterHerdItemDrop@MonsterHerd@@UAEHPAVOBJECTSTRUCT@@@Z PROC ; MonsterHerd::MonsterHerdItemDrop, COMDAT
; _this$ = ecx

; 498  : {

  00000	55		 push	 ebp
  00001	8b ec		 mov	 ebp, esp
  00003	83 ec 44	 sub	 esp, 68			; 00000044H
  00006	53		 push	 ebx
  00007	56		 push	 esi
  00008	57		 push	 edi
  00009	89 4d fc	 mov	 DWORD PTR _this$[ebp], ecx

; 499  : 
; 500  : 	return FALSE;

  0000c	33 c0		 xor	 eax, eax

; 501  : }

  0000e	5f		 pop	 edi
  0000f	5e		 pop	 esi
  00010	5b		 pop	 ebx
  00011	8b e5		 mov	 esp, ebp
  00013	5d		 pop	 ebp
  00014	c2 04 00	 ret	 4
?MonsterHerdItemDrop@MonsterHerd@@UAEHPAVOBJECTSTRUCT@@@Z ENDP ; MonsterHerd::MonsterHerdItemDrop
_TEXT	ENDS
; Function compile flags: /Odtp /ZI
; File C:\Mu Online\Mu-GS-Webzen-MC-10093\GameServer\MonsterHerd.cpp
;	COMDAT ?MoveHerd@MonsterHerd@@UAEHEE@Z
_TEXT	SEGMENT
_btMapAttr$ = -5					; size = 1
_this$ = -4						; size = 4
_iTX$ = 8						; size = 1
_iTY$ = 12						; size = 1
?MoveHerd@MonsterHerd@@UAEHEE@Z PROC			; MonsterHerd::MoveHerd, COMDAT
; _this$ = ecx

; 475  : {

  00000	55		 push	 ebp
  00001	8b ec		 mov	 ebp, esp
  00003	83 ec 48	 sub	 esp, 72			; 00000048H
  00006	53		 push	 ebx
  00007	56		 push	 esi
  00008	57		 push	 edi
  00009	89 4d fc	 mov	 DWORD PTR _this$[ebp], ecx

; 476  : 	if (!m_bHasInfo)					//     

  0000c	8b 45 fc	 mov	 eax, DWORD PTR _this$[ebp]
  0000f	83 78 18 00	 cmp	 DWORD PTR [eax+24], 0
  00013	75 04		 jne	 SHORT $LN2@MoveHerd

; 477  : 		return FALSE;

  00015	33 c0		 xor	 eax, eax
  00017	eb 5a		 jmp	 SHORT $LN1@MoveHerd
$LN2@MoveHerd:

; 478  : 
; 479  : 	BYTE btMapAttr = MapC[m_iMapNumber].GetAttr(iTX, iTY);

  00019	0f b6 45 0c	 movzx	 eax, BYTE PTR _iTY$[ebp]
  0001d	50		 push	 eax
  0001e	0f b6 4d 08	 movzx	 ecx, BYTE PTR _iTX$[ebp]
  00022	51		 push	 ecx
  00023	8b 55 fc	 mov	 edx, DWORD PTR _this$[ebp]
  00026	69 4a 08 8c 04
	05 00		 imul	 ecx, DWORD PTR [edx+8], 328844
  0002d	03 0d 00 00 00
	00		 add	 ecx, DWORD PTR ?MapC@@3PAVMapClass@@A ; MapC
  00033	e8 00 00 00 00	 call	 ?GetAttr@MapClass@@QAEEHH@Z ; MapClass::GetAttr
  00038	88 45 fb	 mov	 BYTE PTR _btMapAttr$[ebp], al

; 480  : 	if( ((btMapAttr&MAP_ATTR_SAFTYZONE)==MAP_ATTR_SAFTYZONE) ||		// 
; 481  : 		((btMapAttr&MAP_ATTR_BLOCK)==MAP_ATTR_BLOCK) ||				// 

  0003b	0f b6 45 fb	 movzx	 eax, BYTE PTR _btMapAttr$[ebp]
  0003f	83 e0 01	 and	 eax, 1
  00042	75 12		 jne	 SHORT $LN4@MoveHerd
  00044	0f b6 45 fb	 movzx	 eax, BYTE PTR _btMapAttr$[ebp]
  00048	83 e0 04	 and	 eax, 4
  0004b	75 09		 jne	 SHORT $LN4@MoveHerd
  0004d	0f b6 45 fb	 movzx	 eax, BYTE PTR _btMapAttr$[ebp]
  00051	83 e0 08	 and	 eax, 8
  00054	74 04		 je	 SHORT $LN3@MoveHerd
$LN4@MoveHerd:

; 482  : 		((btMapAttr&MAP_ATTR_HOLLOW)==MAP_ATTR_HOLLOW)				// 
; 483  : 		)
; 484  : 	{
; 485  : 		return FALSE;

  00056	33 c0		 xor	 eax, eax
  00058	eb 19		 jmp	 SHORT $LN1@MoveHerd
$LN3@MoveHerd:

; 486  : 	}
; 487  : 
; 488  : 	m_iCUR_X = iTX;

  0005a	0f b6 45 08	 movzx	 eax, BYTE PTR _iTX$[ebp]
  0005e	8b 4d fc	 mov	 ecx, DWORD PTR _this$[ebp]
  00061	89 41 0c	 mov	 DWORD PTR [ecx+12], eax

; 489  : 	m_iCUR_Y = iTY;

  00064	0f b6 45 0c	 movzx	 eax, BYTE PTR _iTY$[ebp]
  00068	8b 4d fc	 mov	 ecx, DWORD PTR _this$[ebp]
  0006b	89 41 10	 mov	 DWORD PTR [ecx+16], eax

; 490  : 
; 491  : 	return TRUE;

  0006e	b8 01 00 00 00	 mov	 eax, 1
$LN1@MoveHerd:

; 492  : }

  00073	5f		 pop	 edi
  00074	5e		 pop	 esi
  00075	5b		 pop	 ebx
  00076	8b e5		 mov	 esp, ebp
  00078	5d		 pop	 ebp
  00079	c2 08 00	 ret	 8
?MoveHerd@MonsterHerd@@UAEHEE@Z ENDP			; MonsterHerd::MoveHerd
_TEXT	ENDS
; Function compile flags: /Odtp /ZI
; File C:\Mu Online\Mu-GS-Webzen-MC-10093\GameServer\MonsterHerd.cpp
;	COMDAT ?CheckLocation@MonsterHerd@@UAEHAAE0@Z
_TEXT	SEGMENT
_btMapAttr$ = -5					; size = 1
_this$ = -4						; size = 4
_cX$ = 8						; size = 4
_cY$ = 12						; size = 4
?CheckLocation@MonsterHerd@@UAEHAAE0@Z PROC		; MonsterHerd::CheckLocation, COMDAT
; _this$ = ecx

; 457  : {

  00000	55		 push	 ebp
  00001	8b ec		 mov	 ebp, esp
  00003	83 ec 48	 sub	 esp, 72			; 00000048H
  00006	53		 push	 ebx
  00007	56		 push	 esi
  00008	57		 push	 edi
  00009	89 4d fc	 mov	 DWORD PTR _this$[ebp], ecx

; 458  : 	BYTE btMapAttr = MapC[m_iMapNumber].GetAttr(cX, cY);

  0000c	8b 45 0c	 mov	 eax, DWORD PTR _cY$[ebp]
  0000f	0f b6 08	 movzx	 ecx, BYTE PTR [eax]
  00012	51		 push	 ecx
  00013	8b 55 08	 mov	 edx, DWORD PTR _cX$[ebp]
  00016	0f b6 02	 movzx	 eax, BYTE PTR [edx]
  00019	50		 push	 eax
  0001a	8b 4d fc	 mov	 ecx, DWORD PTR _this$[ebp]
  0001d	69 49 08 8c 04
	05 00		 imul	 ecx, DWORD PTR [ecx+8], 328844
  00024	03 0d 00 00 00
	00		 add	 ecx, DWORD PTR ?MapC@@3PAVMapClass@@A ; MapC
  0002a	e8 00 00 00 00	 call	 ?GetAttr@MapClass@@QAEEHH@Z ; MapClass::GetAttr
  0002f	88 45 fb	 mov	 BYTE PTR _btMapAttr$[ebp], al

; 459  : 	if( ((btMapAttr&MAP_ATTR_SAFTYZONE)==MAP_ATTR_SAFTYZONE) ||		// 
; 460  : 		((btMapAttr&MAP_ATTR_BLOCK)==MAP_ATTR_BLOCK) ||				// 

  00032	0f b6 45 fb	 movzx	 eax, BYTE PTR _btMapAttr$[ebp]
  00036	83 e0 01	 and	 eax, 1
  00039	75 12		 jne	 SHORT $LN3@CheckLocat
  0003b	0f b6 45 fb	 movzx	 eax, BYTE PTR _btMapAttr$[ebp]
  0003f	83 e0 04	 and	 eax, 4
  00042	75 09		 jne	 SHORT $LN3@CheckLocat
  00044	0f b6 45 fb	 movzx	 eax, BYTE PTR _btMapAttr$[ebp]
  00048	83 e0 08	 and	 eax, 8
  0004b	74 04		 je	 SHORT $LN2@CheckLocat
$LN3@CheckLocat:

; 461  : 		((btMapAttr&MAP_ATTR_HOLLOW)==MAP_ATTR_HOLLOW)				// 
; 462  : 		)
; 463  : 	{
; 464  : 		return FALSE;

  0004d	33 c0		 xor	 eax, eax
  0004f	eb 05		 jmp	 SHORT $LN1@CheckLocat
$LN2@CheckLocat:

; 465  : 	}
; 466  : 
; 467  : 	return TRUE;

  00051	b8 01 00 00 00	 mov	 eax, 1
$LN1@CheckLocat:

; 468  : }

  00056	5f		 pop	 edi
  00057	5e		 pop	 esi
  00058	5b		 pop	 ebx
  00059	8b e5		 mov	 esp, ebp
  0005b	5d		 pop	 ebp
  0005c	c2 08 00	 ret	 8
?CheckLocation@MonsterHerd@@UAEHAAE0@Z ENDP		; MonsterHerd::CheckLocation
_TEXT	ENDS
; Function compile flags: /Odtp /ZI
; File C:\Mu Online\Mu-GS-Webzen-MC-10093\GameServer\MonsterHerd.cpp
;	COMDAT ?GetRandomLocation@MonsterHerd@@UAEHAAE0@Z
_TEXT	SEGMENT
tv88 = -80						; size = 4
tv76 = -80						; size = 4
tv68 = -80						; size = 4
_btMapAttr$1 = -9					; size = 1
_iCount$ = -8						; size = 4
_this$ = -4						; size = 4
_cX$ = 8						; size = 4
_cY$ = 12						; size = 4
?GetRandomLocation@MonsterHerd@@UAEHAAE0@Z PROC		; MonsterHerd::GetRandomLocation, COMDAT
; _this$ = ecx

; 435  : {

  00000	55		 push	 ebp
  00001	8b ec		 mov	 ebp, esp
  00003	83 ec 50	 sub	 esp, 80			; 00000050H
  00006	53		 push	 ebx
  00007	56		 push	 esi
  00008	57		 push	 edi
  00009	89 4d fc	 mov	 DWORD PTR _this$[ebp], ecx

; 436  : 	if (!m_bHasInfo)			//     

  0000c	8b 45 fc	 mov	 eax, DWORD PTR _this$[ebp]
  0000f	83 78 18 00	 cmp	 DWORD PTR [eax+24], 0
  00013	75 07		 jne	 SHORT $LN4@GetRandomL

; 437  : 		return FALSE;

  00015	33 c0		 xor	 eax, eax
  00017	e9 e6 00 00 00	 jmp	 $LN1@GetRandomL
$LN4@GetRandomL:

; 438  : 
; 439  : 	INT iCount = 100;

  0001c	c7 45 f8 64 00
	00 00		 mov	 DWORD PTR _iCount$[ebp], 100 ; 00000064H
$LN2@GetRandomL:

; 440  : 	while (iCount--) {

  00023	8b 45 f8	 mov	 eax, DWORD PTR _iCount$[ebp]
  00026	89 45 b0	 mov	 DWORD PTR tv68[ebp], eax
  00029	8b 4d f8	 mov	 ecx, DWORD PTR _iCount$[ebp]
  0002c	83 e9 01	 sub	 ecx, 1
  0002f	89 4d f8	 mov	 DWORD PTR _iCount$[ebp], ecx
  00032	83 7d b0 00	 cmp	 DWORD PTR tv68[ebp], 0
  00036	0f 84 c4 00 00
	00		 je	 $LN3@GetRandomL

; 441  : 		cX = (rand() % (m_iRADIUS + 1)) * ((rand() % 2) ? 1 : -1) + m_iCUR_X;

  0003c	e8 00 00 00 00	 call	 _rand
  00041	25 01 00 00 80	 and	 eax, -2147483647	; 80000001H
  00046	79 05		 jns	 SHORT $LN11@GetRandomL
  00048	48		 dec	 eax
  00049	83 c8 fe	 or	 eax, -2			; fffffffeH
  0004c	40		 inc	 eax
$LN11@GetRandomL:
  0004d	85 c0		 test	 eax, eax
  0004f	74 09		 je	 SHORT $LN7@GetRandomL
  00051	c7 45 b0 01 00
	00 00		 mov	 DWORD PTR tv76[ebp], 1
  00058	eb 07		 jmp	 SHORT $LN8@GetRandomL
$LN7@GetRandomL:
  0005a	c7 45 b0 ff ff
	ff ff		 mov	 DWORD PTR tv76[ebp], -1
$LN8@GetRandomL:
  00061	e8 00 00 00 00	 call	 _rand
  00066	8b 4d fc	 mov	 ecx, DWORD PTR _this$[ebp]
  00069	8b 49 14	 mov	 ecx, DWORD PTR [ecx+20]
  0006c	83 c1 01	 add	 ecx, 1
  0006f	99		 cdq
  00070	f7 f9		 idiv	 ecx
  00072	0f af 55 b0	 imul	 edx, DWORD PTR tv76[ebp]
  00076	8b 45 fc	 mov	 eax, DWORD PTR _this$[ebp]
  00079	03 50 0c	 add	 edx, DWORD PTR [eax+12]
  0007c	8b 4d 08	 mov	 ecx, DWORD PTR _cX$[ebp]
  0007f	88 11		 mov	 BYTE PTR [ecx], dl

; 442  : 		cY = (rand() % (m_iRADIUS + 1)) * ((rand() % 2) ? 1 : -1) + m_iCUR_Y;

  00081	e8 00 00 00 00	 call	 _rand
  00086	25 01 00 00 80	 and	 eax, -2147483647	; 80000001H
  0008b	79 05		 jns	 SHORT $LN12@GetRandomL
  0008d	48		 dec	 eax
  0008e	83 c8 fe	 or	 eax, -2			; fffffffeH
  00091	40		 inc	 eax
$LN12@GetRandomL:
  00092	85 c0		 test	 eax, eax
  00094	74 09		 je	 SHORT $LN9@GetRandomL
  00096	c7 45 b0 01 00
	00 00		 mov	 DWORD PTR tv88[ebp], 1
  0009d	eb 07		 jmp	 SHORT $LN10@GetRandomL
$LN9@GetRandomL:
  0009f	c7 45 b0 ff ff
	ff ff		 mov	 DWORD PTR tv88[ebp], -1
$LN10@GetRandomL:
  000a6	e8 00 00 00 00	 call	 _rand
  000ab	8b 4d fc	 mov	 ecx, DWORD PTR _this$[ebp]
  000ae	8b 49 14	 mov	 ecx, DWORD PTR [ecx+20]
  000b1	83 c1 01	 add	 ecx, 1
  000b4	99		 cdq
  000b5	f7 f9		 idiv	 ecx
  000b7	0f af 55 b0	 imul	 edx, DWORD PTR tv88[ebp]
  000bb	8b 45 fc	 mov	 eax, DWORD PTR _this$[ebp]
  000be	03 50 10	 add	 edx, DWORD PTR [eax+16]
  000c1	8b 4d 0c	 mov	 ecx, DWORD PTR _cY$[ebp]
  000c4	88 11		 mov	 BYTE PTR [ecx], dl

; 443  : 
; 444  : 		BYTE btMapAttr = MapC[m_iMapNumber].GetAttr(cX, cY);

  000c6	8b 45 0c	 mov	 eax, DWORD PTR _cY$[ebp]
  000c9	0f b6 08	 movzx	 ecx, BYTE PTR [eax]
  000cc	51		 push	 ecx
  000cd	8b 55 08	 mov	 edx, DWORD PTR _cX$[ebp]
  000d0	0f b6 02	 movzx	 eax, BYTE PTR [edx]
  000d3	50		 push	 eax
  000d4	8b 4d fc	 mov	 ecx, DWORD PTR _this$[ebp]
  000d7	69 49 08 8c 04
	05 00		 imul	 ecx, DWORD PTR [ecx+8], 328844
  000de	03 0d 00 00 00
	00		 add	 ecx, DWORD PTR ?MapC@@3PAVMapClass@@A ; MapC
  000e4	e8 00 00 00 00	 call	 ?GetAttr@MapClass@@QAEEHH@Z ; MapClass::GetAttr
  000e9	88 45 f7	 mov	 BYTE PTR _btMapAttr$1[ebp], al

; 445  : 		if( btMapAttr == MAP_ATTR_NONE )	//   

  000ec	0f b6 45 f7	 movzx	 eax, BYTE PTR _btMapAttr$1[ebp]
  000f0	85 c0		 test	 eax, eax
  000f2	75 07		 jne	 SHORT $LN5@GetRandomL

; 446  : 			return TRUE;

  000f4	b8 01 00 00 00	 mov	 eax, 1
  000f9	eb 07		 jmp	 SHORT $LN1@GetRandomL
$LN5@GetRandomL:

; 447  : 	}

  000fb	e9 23 ff ff ff	 jmp	 $LN2@GetRandomL
$LN3@GetRandomL:

; 448  : 
; 449  : 	return FALSE;

  00100	33 c0		 xor	 eax, eax
$LN1@GetRandomL:

; 450  : }

  00102	5f		 pop	 edi
  00103	5e		 pop	 esi
  00104	5b		 pop	 ebx
  00105	8b e5		 mov	 esp, ebp
  00107	5d		 pop	 ebp
  00108	c2 08 00	 ret	 8
?GetRandomLocation@MonsterHerd@@UAEHAAE0@Z ENDP		; MonsterHerd::GetRandomLocation
_TEXT	ENDS
; Function compile flags: /Odtp /ZI
; File C:\Mu Online\Mu-GS-Webzen-MC-10093\GameServer\MonsterHerd.cpp
;	COMDAT ?GetCurrentLocation@MonsterHerd@@UAEHAAE0@Z
_TEXT	SEGMENT
_this$ = -4						; size = 4
_cX$ = 8						; size = 4
_cY$ = 12						; size = 4
?GetCurrentLocation@MonsterHerd@@UAEHAAE0@Z PROC	; MonsterHerd::GetCurrentLocation, COMDAT
; _this$ = ecx

; 420  : {

  00000	55		 push	 ebp
  00001	8b ec		 mov	 ebp, esp
  00003	83 ec 44	 sub	 esp, 68			; 00000044H
  00006	53		 push	 ebx
  00007	56		 push	 esi
  00008	57		 push	 edi
  00009	89 4d fc	 mov	 DWORD PTR _this$[ebp], ecx

; 421  : 	if (!m_bHasInfo)			//     

  0000c	8b 45 fc	 mov	 eax, DWORD PTR _this$[ebp]
  0000f	83 78 18 00	 cmp	 DWORD PTR [eax+24], 0
  00013	75 04		 jne	 SHORT $LN2@GetCurrent

; 422  : 		return FALSE;

  00015	33 c0		 xor	 eax, eax
  00017	eb 1b		 jmp	 SHORT $LN1@GetCurrent
$LN2@GetCurrent:

; 423  : 
; 424  : 	cX = m_iCUR_X;

  00019	8b 45 08	 mov	 eax, DWORD PTR _cX$[ebp]
  0001c	8b 4d fc	 mov	 ecx, DWORD PTR _this$[ebp]
  0001f	8a 51 0c	 mov	 dl, BYTE PTR [ecx+12]
  00022	88 10		 mov	 BYTE PTR [eax], dl

; 425  : 	cY = m_iCUR_Y;

  00024	8b 45 0c	 mov	 eax, DWORD PTR _cY$[ebp]
  00027	8b 4d fc	 mov	 ecx, DWORD PTR _this$[ebp]
  0002a	8a 51 10	 mov	 dl, BYTE PTR [ecx+16]
  0002d	88 10		 mov	 BYTE PTR [eax], dl

; 426  : 
; 427  : 	return TRUE;

  0002f	b8 01 00 00 00	 mov	 eax, 1
$LN1@GetCurrent:

; 428  : }

  00034	5f		 pop	 edi
  00035	5e		 pop	 esi
  00036	5b		 pop	 ebx
  00037	8b e5		 mov	 esp, ebp
  00039	5d		 pop	 ebp
  0003a	c2 08 00	 ret	 8
?GetCurrentLocation@MonsterHerd@@UAEHAAE0@Z ENDP	; MonsterHerd::GetCurrentLocation
_TEXT	ENDS
; Function compile flags: /Odtp /ZI
; File C:\Mu Online\Mu-GS-Webzen-MC-10093\GameServer\MonsterHerd.cpp
;	COMDAT ?CheckInRadius@MonsterHerd@@UAEHH@Z
_TEXT	SEGMENT
tv66 = -88						; size = 4
tv67 = -84						; size = 4
_iY2$ = -16						; size = 4
_iX2$ = -12						; size = 4
_lpOBJ$ = -8						; size = 4
_this$ = -4						; size = 4
_iIndex$ = 8						; size = 4
?CheckInRadius@MonsterHerd@@UAEHH@Z PROC		; MonsterHerd::CheckInRadius, COMDAT
; _this$ = ecx

; 397  : {

  00000	55		 push	 ebp
  00001	8b ec		 mov	 ebp, esp
  00003	83 ec 58	 sub	 esp, 88			; 00000058H
  00006	53		 push	 ebx
  00007	56		 push	 esi
  00008	57		 push	 edi
  00009	89 4d fc	 mov	 DWORD PTR _this$[ebp], ecx

; 398  : 	if (!CHECK_LIMIT(iIndex, MAX_OBJECT))

  0000c	83 7d 08 00	 cmp	 DWORD PTR _iIndex$[ebp], 0
  00010	7d 09		 jge	 SHORT $LN9@CheckInRad
  00012	c7 45 ac 00 00
	00 00		 mov	 DWORD PTR tv67[ebp], 0
  00019	eb 1f		 jmp	 SHORT $LN10@CheckInRad
$LN9@CheckInRad:
  0001b	81 7d 08 e7 1c
	00 00		 cmp	 DWORD PTR _iIndex$[ebp], 7399 ; 00001ce7H
  00022	7e 09		 jle	 SHORT $LN7@CheckInRad
  00024	c7 45 a8 00 00
	00 00		 mov	 DWORD PTR tv66[ebp], 0
  0002b	eb 07		 jmp	 SHORT $LN8@CheckInRad
$LN7@CheckInRad:
  0002d	c7 45 a8 01 00
	00 00		 mov	 DWORD PTR tv66[ebp], 1
$LN8@CheckInRad:
  00034	8b 45 a8	 mov	 eax, DWORD PTR tv66[ebp]
  00037	89 45 ac	 mov	 DWORD PTR tv67[ebp], eax
$LN10@CheckInRad:
  0003a	83 7d ac 00	 cmp	 DWORD PTR tv67[ebp], 0
  0003e	75 07		 jne	 SHORT $LN2@CheckInRad

; 399  : 		return FALSE;

  00040	33 c0		 xor	 eax, eax
  00042	e9 95 00 00 00	 jmp	 $LN1@CheckInRad
$LN2@CheckInRad:

; 400  : 
; 401  : 	LPOBJECTSTRUCT lpOBJ = &gObj[iIndex];

  00047	69 45 08 a0 1b
	00 00		 imul	 eax, DWORD PTR _iIndex$[ebp], 7072
  0004e	03 05 00 00 00
	00		 add	 eax, DWORD PTR ?gObj@@3PAVOBJECTSTRUCT@@A ; gObj
  00054	89 45 f8	 mov	 DWORD PTR _lpOBJ$[ebp], eax

; 402  : 
; 403  : 	if (lpOBJ->Connected < 3 || lpOBJ->Type != OBJTYPE_MONSTER)

  00057	8b 45 f8	 mov	 eax, DWORD PTR _lpOBJ$[ebp]
  0005a	83 78 04 03	 cmp	 DWORD PTR [eax+4], 3
  0005e	7c 0c		 jl	 SHORT $LN4@CheckInRad
  00060	8b 45 f8	 mov	 eax, DWORD PTR _lpOBJ$[ebp]
  00063	0f b7 48 64	 movzx	 ecx, WORD PTR [eax+100]
  00067	83 f9 02	 cmp	 ecx, 2
  0006a	74 04		 je	 SHORT $LN3@CheckInRad
$LN4@CheckInRad:

; 404  : 		return FALSE;

  0006c	33 c0		 xor	 eax, eax
  0006e	eb 6c		 jmp	 SHORT $LN1@CheckInRad
$LN3@CheckInRad:

; 405  : 
; 406  : 	INT iX2 = (lpOBJ->X - m_iCUR_X) * (lpOBJ->X - m_iCUR_X);

  00070	8b 45 f8	 mov	 eax, DWORD PTR _lpOBJ$[ebp]
  00073	0f bf 88 04 01
	00 00		 movsx	 ecx, WORD PTR [eax+260]
  0007a	8b 55 fc	 mov	 edx, DWORD PTR _this$[ebp]
  0007d	2b 4a 0c	 sub	 ecx, DWORD PTR [edx+12]
  00080	8b 45 f8	 mov	 eax, DWORD PTR _lpOBJ$[ebp]
  00083	0f bf 90 04 01
	00 00		 movsx	 edx, WORD PTR [eax+260]
  0008a	8b 45 fc	 mov	 eax, DWORD PTR _this$[ebp]
  0008d	2b 50 0c	 sub	 edx, DWORD PTR [eax+12]
  00090	0f af ca	 imul	 ecx, edx
  00093	89 4d f4	 mov	 DWORD PTR _iX2$[ebp], ecx

; 407  : 	INT iY2 = (lpOBJ->Y - m_iCUR_Y) * (lpOBJ->Y - m_iCUR_Y);

  00096	8b 45 f8	 mov	 eax, DWORD PTR _lpOBJ$[ebp]
  00099	0f bf 88 06 01
	00 00		 movsx	 ecx, WORD PTR [eax+262]
  000a0	8b 55 fc	 mov	 edx, DWORD PTR _this$[ebp]
  000a3	2b 4a 10	 sub	 ecx, DWORD PTR [edx+16]
  000a6	8b 45 f8	 mov	 eax, DWORD PTR _lpOBJ$[ebp]
  000a9	0f bf 90 06 01
	00 00		 movsx	 edx, WORD PTR [eax+262]
  000b0	8b 45 fc	 mov	 eax, DWORD PTR _this$[ebp]
  000b3	2b 50 10	 sub	 edx, DWORD PTR [eax+16]
  000b6	0f af ca	 imul	 ecx, edx
  000b9	89 4d f0	 mov	 DWORD PTR _iY2$[ebp], ecx

; 408  : 
; 409  : 	if (m_iRADIUS*m_iRADIUS < iX2 + iY2)

  000bc	8b 45 fc	 mov	 eax, DWORD PTR _this$[ebp]
  000bf	8b 4d fc	 mov	 ecx, DWORD PTR _this$[ebp]
  000c2	8b 50 14	 mov	 edx, DWORD PTR [eax+20]
  000c5	0f af 51 14	 imul	 edx, DWORD PTR [ecx+20]
  000c9	8b 45 f4	 mov	 eax, DWORD PTR _iX2$[ebp]
  000cc	03 45 f0	 add	 eax, DWORD PTR _iY2$[ebp]
  000cf	3b d0		 cmp	 edx, eax
  000d1	7d 04		 jge	 SHORT $LN5@CheckInRad

; 410  : 		return FALSE;

  000d3	33 c0		 xor	 eax, eax
  000d5	eb 05		 jmp	 SHORT $LN1@CheckInRad
$LN5@CheckInRad:

; 411  : 	
; 412  : 	return TRUE;

  000d7	b8 01 00 00 00	 mov	 eax, 1
$LN1@CheckInRad:

; 413  : }

  000dc	5f		 pop	 edi
  000dd	5e		 pop	 esi
  000de	5b		 pop	 ebx
  000df	8b e5		 mov	 esp, ebp
  000e1	5d		 pop	 ebp
  000e2	c2 04 00	 ret	 4
?CheckInRadius@MonsterHerd@@UAEHH@Z ENDP		; MonsterHerd::CheckInRadius
_TEXT	ENDS
; Function compile flags: /Odtp /ZI
; File C:\Mu Online\Mu-GS-Webzen-MC-10093\GameServer\MonsterHerd.cpp
;	COMDAT ?Stop@MonsterHerd@@UAEXXZ
_TEXT	SEGMENT
$T1 = -104						; size = 4
$T2 = -100						; size = 4
$T3 = -96						; size = 4
$T4 = -92						; size = 4
$T5 = -88						; size = 4
$T6 = -84						; size = 4
$T7 = -80						; size = 4
_pMH_DATA$8 = -12					; size = 4
_it$9 = -8						; size = 4
_this$ = -4						; size = 4
?Stop@MonsterHerd@@UAEXXZ PROC				; MonsterHerd::Stop, COMDAT
; _this$ = ecx

; 231  : {

  00000	55		 push	 ebp
  00001	8b ec		 mov	 ebp, esp
  00003	83 ec 68	 sub	 esp, 104		; 00000068H
  00006	53		 push	 ebx
  00007	56		 push	 esi
  00008	57		 push	 edi
  00009	89 4d fc	 mov	 DWORD PTR _this$[ebp], ecx

; 232  : 	m_bHerdActive = FALSE;

  0000c	8b 45 fc	 mov	 eax, DWORD PTR _this$[ebp]
  0000f	c7 40 1c 00 00
	00 00		 mov	 DWORD PTR [eax+28], 0

; 233  : 	
; 234  : 	m_bHasInfo	  = FALSE;						//20081007       (grooving)

  00016	8b 45 fc	 mov	 eax, DWORD PTR _this$[ebp]
  00019	c7 40 18 00 00
	00 00		 mov	 DWORD PTR [eax+24], 0

; 235  : 	
; 236  : 	if (!m_mapMonsterHerd.empty()) {

  00020	8b 4d fc	 mov	 ecx, DWORD PTR _this$[ebp]
  00023	83 c1 20	 add	 ecx, 32			; 00000020H
  00026	e8 00 00 00 00	 call	 ?empty@?$_Tree@V?$_Tmap_traits@HU_MONSTER_HERD_DATA@@U?$less@H@std@@V?$allocator@U?$pair@$$CBHU_MONSTER_HERD_DATA@@@std@@@3@$0A@@std@@@std@@QBE_NXZ ; std::_Tree<std::_Tmap_traits<int,_MONSTER_HERD_DATA,std::less<int>,std::allocator<std::pair<int const ,_MONSTER_HERD_DATA> >,0> >::empty
  0002b	0f b6 c0	 movzx	 eax, al
  0002e	85 c0		 test	 eax, eax
  00030	0f 85 d9 00 00
	00		 jne	 $LN1@Stop

; 237  : 		EnterCriticalSection(& m_critMonsterHerd);

  00036	8b 45 fc	 mov	 eax, DWORD PTR _this$[ebp]
  00039	83 c0 28	 add	 eax, 40			; 00000028H
  0003c	50		 push	 eax
  0003d	ff 15 00 00 00
	00		 call	 DWORD PTR __imp__EnterCriticalSection@4

; 238  : 		if (m_mapMonsterHerd.empty()) {

  00043	8b 4d fc	 mov	 ecx, DWORD PTR _this$[ebp]
  00046	83 c1 20	 add	 ecx, 32			; 00000020H
  00049	e8 00 00 00 00	 call	 ?empty@?$_Tree@V?$_Tmap_traits@HU_MONSTER_HERD_DATA@@U?$less@H@std@@V?$allocator@U?$pair@$$CBHU_MONSTER_HERD_DATA@@@std@@@3@$0A@@std@@@std@@QBE_NXZ ; std::_Tree<std::_Tmap_traits<int,_MONSTER_HERD_DATA,std::less<int>,std::allocator<std::pair<int const ,_MONSTER_HERD_DATA> >,0> >::empty
  0004e	0f b6 c0	 movzx	 eax, al
  00051	85 c0		 test	 eax, eax
  00053	74 12		 je	 SHORT $LN6@Stop

; 239  : 			LeaveCriticalSection(& m_critMonsterHerd);

  00055	8b 45 fc	 mov	 eax, DWORD PTR _this$[ebp]
  00058	83 c0 28	 add	 eax, 40			; 00000028H
  0005b	50		 push	 eax
  0005c	ff 15 00 00 00
	00		 call	 DWORD PTR __imp__LeaveCriticalSection@4

; 240  : 			return;

  00062	e9 a8 00 00 00	 jmp	 $LN1@Stop
$LN6@Stop:

; 241  : 		}
; 242  : 
; 243  : 		map <INT, MONSTER_HERD_DATA>::iterator it = m_mapMonsterHerd.begin();

  00067	8d 45 f8	 lea	 eax, DWORD PTR _it$9[ebp]
  0006a	50		 push	 eax
  0006b	8b 4d fc	 mov	 ecx, DWORD PTR _this$[ebp]
  0006e	83 c1 20	 add	 ecx, 32			; 00000020H
  00071	e8 00 00 00 00	 call	 ?begin@?$_Tree@V?$_Tmap_traits@HU_MONSTER_HERD_DATA@@U?$less@H@std@@V?$allocator@U?$pair@$$CBHU_MONSTER_HERD_DATA@@@std@@@3@$0A@@std@@@std@@QAE?AV?$_Tree_iterator@V?$_Tree_val@U?$_Tree_simple_types@U?$pair@$$CBHU_MONSTER_HERD_DATA@@@std@@@std@@@std@@@2@XZ ; std::_Tree<std::_Tmap_traits<int,_MONSTER_HERD_DATA,std::less<int>,std::allocator<std::pair<int const ,_MONSTER_HERD_DATA> >,0> >::begin
  00076	eb 0e		 jmp	 SHORT $LN4@Stop
$LN2@Stop:

; 244  : 
; 245  : 		for (; it!=m_mapMonsterHerd.end() ; it++) {

  00078	6a 00		 push	 0
  0007a	8d 45 b0	 lea	 eax, DWORD PTR $T7[ebp]
  0007d	50		 push	 eax
  0007e	8d 4d f8	 lea	 ecx, DWORD PTR _it$9[ebp]
  00081	e8 00 00 00 00	 call	 ??E?$_Tree_iterator@V?$_Tree_val@U?$_Tree_simple_types@U?$pair@$$CBHU_MONSTER_HERD_DATA@@@std@@@std@@@std@@@std@@QAE?AV01@H@Z ; std::_Tree_iterator<std::_Tree_val<std::_Tree_simple_types<std::pair<int const ,_MONSTER_HERD_DATA> > > >::operator++
$LN4@Stop:
  00086	8d 45 ac	 lea	 eax, DWORD PTR $T6[ebp]
  00089	50		 push	 eax
  0008a	8b 4d fc	 mov	 ecx, DWORD PTR _this$[ebp]
  0008d	83 c1 20	 add	 ecx, 32			; 00000020H
  00090	e8 00 00 00 00	 call	 ?end@?$_Tree@V?$_Tmap_traits@HU_MONSTER_HERD_DATA@@U?$less@H@std@@V?$allocator@U?$pair@$$CBHU_MONSTER_HERD_DATA@@@std@@@3@$0A@@std@@@std@@QAE?AV?$_Tree_iterator@V?$_Tree_val@U?$_Tree_simple_types@U?$pair@$$CBHU_MONSTER_HERD_DATA@@@std@@@std@@@std@@@2@XZ ; std::_Tree<std::_Tmap_traits<int,_MONSTER_HERD_DATA,std::less<int>,std::allocator<std::pair<int const ,_MONSTER_HERD_DATA> >,0> >::end
  00095	50		 push	 eax
  00096	8d 4d f8	 lea	 ecx, DWORD PTR _it$9[ebp]
  00099	e8 00 00 00 00	 call	 ??9?$_Tree_const_iterator@V?$_Tree_val@U?$_Tree_simple_types@U?$pair@$$CBHU_MONSTER_HERD_DATA@@@std@@@std@@@std@@@std@@QBE_NABV01@@Z ; std::_Tree_const_iterator<std::_Tree_val<std::_Tree_simple_types<std::pair<int const ,_MONSTER_HERD_DATA> > > >::operator!=
  0009e	0f b6 c8	 movzx	 ecx, al
  000a1	85 c9		 test	 ecx, ecx
  000a3	74 1e		 je	 SHORT $LN3@Stop

; 246  : 			MONSTER_HERD_DATA & pMH_DATA = it->second;

  000a5	8d 4d f8	 lea	 ecx, DWORD PTR _it$9[ebp]
  000a8	e8 00 00 00 00	 call	 ??C?$_Tree_iterator@V?$_Tree_val@U?$_Tree_simple_types@U?$pair@$$CBHU_MONSTER_HERD_DATA@@@std@@@std@@@std@@@std@@QBEPAU?$pair@$$CBHU_MONSTER_HERD_DATA@@@1@XZ ; std::_Tree_iterator<std::_Tree_val<std::_Tree_simple_types<std::pair<int const ,_MONSTER_HERD_DATA> > > >::operator->
  000ad	83 c0 04	 add	 eax, 4
  000b0	89 45 f4	 mov	 DWORD PTR _pMH_DATA$8[ebp], eax

; 247  : 			gObjDel (pMH_DATA.m_iIndex);		//     .

  000b3	8b 45 f4	 mov	 eax, DWORD PTR _pMH_DATA$8[ebp]
  000b6	8b 08		 mov	 ecx, DWORD PTR [eax]
  000b8	51		 push	 ecx
  000b9	e8 00 00 00 00	 call	 ?gObjDel@@YAFH@Z	; gObjDel
  000be	83 c4 04	 add	 esp, 4

; 248  : 		}

  000c1	eb b5		 jmp	 SHORT $LN2@Stop
$LN3@Stop:

; 249  : 
; 250  : 		m_mapMonsterHerd.erase(m_mapMonsterHerd.begin(), m_mapMonsterHerd.end());

  000c3	8d 45 a4	 lea	 eax, DWORD PTR $T4[ebp]
  000c6	50		 push	 eax
  000c7	8b 4d fc	 mov	 ecx, DWORD PTR _this$[ebp]
  000ca	83 c1 20	 add	 ecx, 32			; 00000020H
  000cd	e8 00 00 00 00	 call	 ?end@?$_Tree@V?$_Tmap_traits@HU_MONSTER_HERD_DATA@@U?$less@H@std@@V?$allocator@U?$pair@$$CBHU_MONSTER_HERD_DATA@@@std@@@3@$0A@@std@@@std@@QAE?AV?$_Tree_iterator@V?$_Tree_val@U?$_Tree_simple_types@U?$pair@$$CBHU_MONSTER_HERD_DATA@@@std@@@std@@@std@@@2@XZ ; std::_Tree<std::_Tmap_traits<int,_MONSTER_HERD_DATA,std::less<int>,std::allocator<std::pair<int const ,_MONSTER_HERD_DATA> >,0> >::end
  000d2	8b 08		 mov	 ecx, DWORD PTR [eax]
  000d4	89 4d a8	 mov	 DWORD PTR $T5[ebp], ecx
  000d7	8d 55 9c	 lea	 edx, DWORD PTR $T2[ebp]
  000da	52		 push	 edx
  000db	8b 4d fc	 mov	 ecx, DWORD PTR _this$[ebp]
  000de	83 c1 20	 add	 ecx, 32			; 00000020H
  000e1	e8 00 00 00 00	 call	 ?begin@?$_Tree@V?$_Tmap_traits@HU_MONSTER_HERD_DATA@@U?$less@H@std@@V?$allocator@U?$pair@$$CBHU_MONSTER_HERD_DATA@@@std@@@3@$0A@@std@@@std@@QAE?AV?$_Tree_iterator@V?$_Tree_val@U?$_Tree_simple_types@U?$pair@$$CBHU_MONSTER_HERD_DATA@@@std@@@std@@@std@@@2@XZ ; std::_Tree<std::_Tmap_traits<int,_MONSTER_HERD_DATA,std::less<int>,std::allocator<std::pair<int const ,_MONSTER_HERD_DATA> >,0> >::begin
  000e6	8b 00		 mov	 eax, DWORD PTR [eax]
  000e8	89 45 a0	 mov	 DWORD PTR $T3[ebp], eax
  000eb	8b 4d a8	 mov	 ecx, DWORD PTR $T5[ebp]
  000ee	51		 push	 ecx
  000ef	8b 55 a0	 mov	 edx, DWORD PTR $T3[ebp]
  000f2	52		 push	 edx
  000f3	8d 45 98	 lea	 eax, DWORD PTR $T1[ebp]
  000f6	50		 push	 eax
  000f7	8b 4d fc	 mov	 ecx, DWORD PTR _this$[ebp]
  000fa	83 c1 20	 add	 ecx, 32			; 00000020H
  000fd	e8 00 00 00 00	 call	 ?erase@?$_Tree@V?$_Tmap_traits@HU_MONSTER_HERD_DATA@@U?$less@H@std@@V?$allocator@U?$pair@$$CBHU_MONSTER_HERD_DATA@@@std@@@3@$0A@@std@@@std@@QAE?AV?$_Tree_iterator@V?$_Tree_val@U?$_Tree_simple_types@U?$pair@$$CBHU_MONSTER_HERD_DATA@@@std@@@std@@@std@@@2@V?$_Tree_const_iterator@V?$_Tree_val@U?$_Tree_simple_types@U?$pair@$$CBHU_MONSTER_HERD_DATA@@@std@@@std@@@std@@@2@0@Z ; std::_Tree<std::_Tmap_traits<int,_MONSTER_HERD_DATA,std::less<int>,std::allocator<std::pair<int const ,_MONSTER_HERD_DATA> >,0> >::erase

; 251  : 
; 252  : 		LeaveCriticalSection(& m_critMonsterHerd);

  00102	8b 45 fc	 mov	 eax, DWORD PTR _this$[ebp]
  00105	83 c0 28	 add	 eax, 40			; 00000028H
  00108	50		 push	 eax
  00109	ff 15 00 00 00
	00		 call	 DWORD PTR __imp__LeaveCriticalSection@4
$LN1@Stop:

; 253  : 	}
; 254  : }

  0010f	5f		 pop	 edi
  00110	5e		 pop	 esi
  00111	5b		 pop	 ebx
  00112	8b e5		 mov	 esp, ebp
  00114	5d		 pop	 ebp
  00115	c3		 ret	 0
?Stop@MonsterHerd@@UAEXXZ ENDP				; MonsterHerd::Stop
_TEXT	ENDS
; Function compile flags: /Odtp /ZI
; File C:\Mu Online\Mu-GS-Webzen-MC-10093\GameServer\MonsterHerd.cpp
;	COMDAT ?Start@MonsterHerd@@UAEHXZ
_TEXT	SEGMENT
_this$ = -4						; size = 4
?Start@MonsterHerd@@UAEHXZ PROC				; MonsterHerd::Start, COMDAT
; _this$ = ecx

; 217  : {

  00000	55		 push	 ebp
  00001	8b ec		 mov	 ebp, esp
  00003	83 ec 44	 sub	 esp, 68			; 00000044H
  00006	53		 push	 ebx
  00007	56		 push	 esi
  00008	57		 push	 edi
  00009	89 4d fc	 mov	 DWORD PTR _this$[ebp], ecx

; 218  : 	if (m_bHerdActive)

  0000c	8b 45 fc	 mov	 eax, DWORD PTR _this$[ebp]
  0000f	83 78 1c 00	 cmp	 DWORD PTR [eax+28], 0
  00013	74 04		 je	 SHORT $LN2@Start

; 219  : 		return FALSE;

  00015	33 c0		 xor	 eax, eax
  00017	eb 1c		 jmp	 SHORT $LN1@Start
$LN2@Start:

; 220  : 
; 221  : 	if (!m_bHasInfo)

  00019	8b 45 fc	 mov	 eax, DWORD PTR _this$[ebp]
  0001c	83 78 18 00	 cmp	 DWORD PTR [eax+24], 0
  00020	75 04		 jne	 SHORT $LN3@Start

; 222  : 		return FALSE;

  00022	33 c0		 xor	 eax, eax
  00024	eb 0f		 jmp	 SHORT $LN1@Start
$LN3@Start:

; 223  : 
; 224  : 	m_bHerdActive = TRUE;

  00026	8b 45 fc	 mov	 eax, DWORD PTR _this$[ebp]
  00029	c7 40 1c 01 00
	00 00		 mov	 DWORD PTR [eax+28], 1

; 225  : 
; 226  : 	return TRUE;

  00030	b8 01 00 00 00	 mov	 eax, 1
$LN1@Start:

; 227  : }

  00035	5f		 pop	 edi
  00036	5e		 pop	 esi
  00037	5b		 pop	 ebx
  00038	8b e5		 mov	 esp, ebp
  0003a	5d		 pop	 ebp
  0003b	c3		 ret	 0
?Start@MonsterHerd@@UAEHXZ ENDP				; MonsterHerd::Start
_TEXT	ENDS
; Function compile flags: /Odtp /ZI
; File C:\Mu Online\Mu-GS-Webzen-MC-10093\GameServer\MonsterHerd.cpp
;	COMDAT ?SetPosition@MonsterHerd@@UAEXEE@Z
_TEXT	SEGMENT
_btMapAttr$ = -5					; size = 1
_this$ = -4						; size = 4
_iTX$ = 8						; size = 1
_iTY$ = 12						; size = 1
?SetPosition@MonsterHerd@@UAEXEE@Z PROC			; MonsterHerd::SetPosition, COMDAT
; _this$ = ecx

; 198  : {

  00000	55		 push	 ebp
  00001	8b ec		 mov	 ebp, esp
  00003	83 ec 48	 sub	 esp, 72			; 00000048H
  00006	53		 push	 ebx
  00007	56		 push	 esi
  00008	57		 push	 edi
  00009	89 4d fc	 mov	 DWORD PTR _this$[ebp], ecx

; 199  : 	if (!m_bHasInfo)

  0000c	8b 45 fc	 mov	 eax, DWORD PTR _this$[ebp]
  0000f	83 78 18 00	 cmp	 DWORD PTR [eax+24], 0
  00013	75 02		 jne	 SHORT $LN2@SetPositio

; 200  : 		return;

  00015	eb 53		 jmp	 SHORT $LN1@SetPositio
$LN2@SetPositio:

; 201  : 
; 202  : 	BYTE btMapAttr = MapC[m_iMapNumber].GetAttr(iTX, iTY);

  00017	0f b6 45 0c	 movzx	 eax, BYTE PTR _iTY$[ebp]
  0001b	50		 push	 eax
  0001c	0f b6 4d 08	 movzx	 ecx, BYTE PTR _iTX$[ebp]
  00020	51		 push	 ecx
  00021	8b 55 fc	 mov	 edx, DWORD PTR _this$[ebp]
  00024	69 4a 08 8c 04
	05 00		 imul	 ecx, DWORD PTR [edx+8], 328844
  0002b	03 0d 00 00 00
	00		 add	 ecx, DWORD PTR ?MapC@@3PAVMapClass@@A ; MapC
  00031	e8 00 00 00 00	 call	 ?GetAttr@MapClass@@QAEEHH@Z ; MapClass::GetAttr
  00036	88 45 fb	 mov	 BYTE PTR _btMapAttr$[ebp], al

; 203  : 	if( ((btMapAttr&0x01)==0x01) ||				// 
; 204  : 		((btMapAttr&0x04)==0x04) ||				// 

  00039	0f b6 45 fb	 movzx	 eax, BYTE PTR _btMapAttr$[ebp]
  0003d	83 e0 01	 and	 eax, 1
  00040	75 12		 jne	 SHORT $LN4@SetPositio
  00042	0f b6 45 fb	 movzx	 eax, BYTE PTR _btMapAttr$[ebp]
  00046	83 e0 04	 and	 eax, 4
  00049	75 09		 jne	 SHORT $LN4@SetPositio
  0004b	0f b6 45 fb	 movzx	 eax, BYTE PTR _btMapAttr$[ebp]
  0004f	83 e0 08	 and	 eax, 8
  00052	74 02		 je	 SHORT $LN3@SetPositio
$LN4@SetPositio:

; 205  : 		((btMapAttr&0x08)==0x08)				// 
; 206  : 		)
; 207  : 	{
; 208  : 		return;

  00054	eb 14		 jmp	 SHORT $LN1@SetPositio
$LN3@SetPositio:

; 209  : 	}
; 210  : 
; 211  : 	m_iCUR_X = iTX;

  00056	0f b6 45 08	 movzx	 eax, BYTE PTR _iTX$[ebp]
  0005a	8b 4d fc	 mov	 ecx, DWORD PTR _this$[ebp]
  0005d	89 41 0c	 mov	 DWORD PTR [ecx+12], eax

; 212  : 	m_iCUR_Y = iTY;

  00060	0f b6 45 0c	 movzx	 eax, BYTE PTR _iTY$[ebp]
  00064	8b 4d fc	 mov	 ecx, DWORD PTR _this$[ebp]
  00067	89 41 10	 mov	 DWORD PTR [ecx+16], eax
$LN1@SetPositio:

; 213  : }

  0006a	5f		 pop	 edi
  0006b	5e		 pop	 esi
  0006c	5b		 pop	 ebx
  0006d	8b e5		 mov	 esp, ebp
  0006f	5d		 pop	 ebp
  00070	c2 08 00	 ret	 8
?SetPosition@MonsterHerd@@UAEXEE@Z ENDP			; MonsterHerd::SetPosition
_TEXT	ENDS
; Function compile flags: /Odtp /ZI
; File C:\Mu Online\Mu-GS-Webzen-MC-10093\GameServer\MonsterHerd.cpp
;	COMDAT ?SetRadius@MonsterHerd@@UAEXH@Z
_TEXT	SEGMENT
tv66 = -76						; size = 4
tv67 = -72						; size = 4
_this$ = -4						; size = 4
_iRadius$ = 8						; size = 4
?SetRadius@MonsterHerd@@UAEXH@Z PROC			; MonsterHerd::SetRadius, COMDAT
; _this$ = ecx

; 186  : {

  00000	55		 push	 ebp
  00001	8b ec		 mov	 ebp, esp
  00003	83 ec 4c	 sub	 esp, 76			; 0000004cH
  00006	53		 push	 ebx
  00007	56		 push	 esi
  00008	57		 push	 edi
  00009	89 4d fc	 mov	 DWORD PTR _this$[ebp], ecx

; 187  : 	if(CHECK_LIMIT(iRadius, MAX_RADIUS))

  0000c	83 7d 08 00	 cmp	 DWORD PTR _iRadius$[ebp], 0
  00010	7d 09		 jge	 SHORT $LN6@SetRadius
  00012	c7 45 b8 00 00
	00 00		 mov	 DWORD PTR tv67[ebp], 0
  00019	eb 1c		 jmp	 SHORT $LN7@SetRadius
$LN6@SetRadius:
  0001b	83 7d 08 0f	 cmp	 DWORD PTR _iRadius$[ebp], 15 ; 0000000fH
  0001f	7e 09		 jle	 SHORT $LN4@SetRadius
  00021	c7 45 b4 00 00
	00 00		 mov	 DWORD PTR tv66[ebp], 0
  00028	eb 07		 jmp	 SHORT $LN5@SetRadius
$LN4@SetRadius:
  0002a	c7 45 b4 01 00
	00 00		 mov	 DWORD PTR tv66[ebp], 1
$LN5@SetRadius:
  00031	8b 45 b4	 mov	 eax, DWORD PTR tv66[ebp]
  00034	89 45 b8	 mov	 DWORD PTR tv67[ebp], eax
$LN7@SetRadius:
  00037	83 7d b8 00	 cmp	 DWORD PTR tv67[ebp], 0
  0003b	74 02		 je	 SHORT $LN2@SetRadius

; 188  : 		return;

  0003d	eb 09		 jmp	 SHORT $LN1@SetRadius
$LN2@SetRadius:

; 189  : 
; 190  : 	m_iRADIUS = iRadius;

  0003f	8b 45 fc	 mov	 eax, DWORD PTR _this$[ebp]
  00042	8b 4d 08	 mov	 ecx, DWORD PTR _iRadius$[ebp]
  00045	89 48 14	 mov	 DWORD PTR [eax+20], ecx
$LN1@SetRadius:

; 191  : }

  00048	5f		 pop	 edi
  00049	5e		 pop	 esi
  0004a	5b		 pop	 ebx
  0004b	8b e5		 mov	 esp, ebp
  0004d	5d		 pop	 ebp
  0004e	c2 04 00	 ret	 4
?SetRadius@MonsterHerd@@UAEXH@Z ENDP			; MonsterHerd::SetRadius
_TEXT	ENDS
; Function compile flags: /Odtp /ZI
; File C:\Mu Online\Mu-GS-Webzen-MC-10093\GameServer\MonsterHerd.cpp
;	COMDAT ?AddMonster@MonsterHerd@@UAEHHHH@Z
_TEXT	SEGMENT
$T1 = -124						; size = 8
$T2 = -116						; size = 20
_pMHD$3 = -32						; size = 16
_lpMATTR$4 = -16					; size = 4
_cY$ = -11						; size = 1
_cX$ = -10						; size = 1
_btMapNumber$ = -9					; size = 1
_iIndex$ = -8						; size = 4
_this$ = -4						; size = 4
_iMonsterType$ = 8					; size = 4
_bRegen$ = 12						; size = 4
_bAttackFirst$ = 16					; size = 4
?AddMonster@MonsterHerd@@UAEHHHH@Z PROC			; MonsterHerd::AddMonster, COMDAT
; _this$ = ecx

; 112  : {

  00000	55		 push	 ebp
  00001	8b ec		 mov	 ebp, esp
  00003	83 ec 7c	 sub	 esp, 124		; 0000007cH
  00006	53		 push	 ebx
  00007	56		 push	 esi
  00008	57		 push	 edi
  00009	89 4d fc	 mov	 DWORD PTR _this$[ebp], ecx

; 113  : 	//       .
; 114  : 
; 115  : 	if (!m_bHasInfo)		//     

  0000c	8b 45 fc	 mov	 eax, DWORD PTR _this$[ebp]
  0000f	83 78 18 00	 cmp	 DWORD PTR [eax+24], 0
  00013	75 07		 jne	 SHORT $LN2@AddMonster

; 116  : 		return FALSE;

  00015	33 c0		 xor	 eax, eax
  00017	e9 f2 02 00 00	 jmp	 $LN1@AddMonster
$LN2@AddMonster:

; 117  : 
; 118  : 	INT iIndex;	
; 119  : 
; 120  : 	BYTE btMapNumber = m_iMapNumber;

  0001c	8b 45 fc	 mov	 eax, DWORD PTR _this$[ebp]
  0001f	8a 48 08	 mov	 cl, BYTE PTR [eax+8]
  00022	88 4d f7	 mov	 BYTE PTR _btMapNumber$[ebp], cl

; 121  : 
; 122  : 	UCHAR cX = 0;

  00025	c6 45 f6 00	 mov	 BYTE PTR _cX$[ebp], 0

; 123  : 	UCHAR cY = 0;

  00029	c6 45 f5 00	 mov	 BYTE PTR _cY$[ebp], 0

; 124  : 
; 125  : 	if (!GetRandomLocation(cX, cY))

  0002d	8d 45 f5	 lea	 eax, DWORD PTR _cY$[ebp]
  00030	50		 push	 eax
  00031	8d 4d f6	 lea	 ecx, DWORD PTR _cX$[ebp]
  00034	51		 push	 ecx
  00035	8b 55 fc	 mov	 edx, DWORD PTR _this$[ebp]
  00038	8b 02		 mov	 eax, DWORD PTR [edx]
  0003a	8b 4d fc	 mov	 ecx, DWORD PTR _this$[ebp]
  0003d	8b 50 24	 mov	 edx, DWORD PTR [eax+36]
  00040	ff d2		 call	 edx
  00042	85 c0		 test	 eax, eax
  00044	75 07		 jne	 SHORT $LN3@AddMonster

; 126  : 		return FALSE;

  00046	33 c0		 xor	 eax, eax
  00048	e9 c1 02 00 00	 jmp	 $LN1@AddMonster
$LN3@AddMonster:

; 127  : 
; 128  : #ifdef MAP_SERVER_ADD_MONSTER_20041216		//   , NPC  (     .)
; 129  : 	iIndex = gObjAddMonster(m_iMapNumber);

  0004d	8b 45 fc	 mov	 eax, DWORD PTR _this$[ebp]
  00050	8b 48 08	 mov	 ecx, DWORD PTR [eax+8]
  00053	51		 push	 ecx
  00054	e8 00 00 00 00	 call	 ?gObjAddMonster@@YAFH@Z	; gObjAddMonster
  00059	83 c4 04	 add	 esp, 4
  0005c	0f bf d0	 movsx	 edx, ax
  0005f	89 55 f8	 mov	 DWORD PTR _iIndex$[ebp], edx

; 130  : #else
; 131  : 	iIndex = gObjAdd();
; 132  : #endif
; 133  : 	if( iIndex >= 0 )

  00062	83 7d f8 00	 cmp	 DWORD PTR _iIndex$[ebp], 0
  00066	0f 8c 99 02 00
	00		 jl	 $LN4@AddMonster

; 134  : 	{
; 135  : 		gObj[iIndex].m_PosNum   = -1;

  0006c	69 45 f8 a0 1b
	00 00		 imul	 eax, DWORD PTR _iIndex$[ebp], 7072
  00073	83 c9 ff	 or	 ecx, -1
  00076	8b 15 00 00 00
	00		 mov	 edx, DWORD PTR ?gObj@@3PAVOBJECTSTRUCT@@A ; gObj
  0007c	66 89 8c 02 0c
	02 00 00	 mov	 WORD PTR [edx+eax+524], cx

; 136  : 		gObj[iIndex].X			= cX;

  00084	66 0f b6 45 f6	 movzx	 ax, BYTE PTR _cX$[ebp]
  00089	69 4d f8 a0 1b
	00 00		 imul	 ecx, DWORD PTR _iIndex$[ebp], 7072
  00090	8b 15 00 00 00
	00		 mov	 edx, DWORD PTR ?gObj@@3PAVOBJECTSTRUCT@@A ; gObj
  00096	66 89 84 0a 04
	01 00 00	 mov	 WORD PTR [edx+ecx+260], ax

; 137  : 		gObj[iIndex].Y			= cY;

  0009e	66 0f b6 45 f5	 movzx	 ax, BYTE PTR _cY$[ebp]
  000a3	69 4d f8 a0 1b
	00 00		 imul	 ecx, DWORD PTR _iIndex$[ebp], 7072
  000aa	8b 15 00 00 00
	00		 mov	 edx, DWORD PTR ?gObj@@3PAVOBJECTSTRUCT@@A ; gObj
  000b0	66 89 84 0a 06
	01 00 00	 mov	 WORD PTR [edx+ecx+262], ax

; 138  : 		gObj[iIndex].MapNumber	= m_iMapNumber;

  000b8	69 45 f8 a0 1b
	00 00		 imul	 eax, DWORD PTR _iIndex$[ebp], 7072
  000bf	8b 0d 00 00 00
	00		 mov	 ecx, DWORD PTR ?gObj@@3PAVOBJECTSTRUCT@@A ; gObj
  000c5	8b 55 fc	 mov	 edx, DWORD PTR _this$[ebp]
  000c8	8a 52 08	 mov	 dl, BYTE PTR [edx+8]
  000cb	88 94 01 09 01
	00 00		 mov	 BYTE PTR [ecx+eax+265], dl

; 139  : 		gObj[iIndex].TX			= gObj[iIndex].X;

  000d2	69 45 f8 a0 1b
	00 00		 imul	 eax, DWORD PTR _iIndex$[ebp], 7072
  000d9	69 4d f8 a0 1b
	00 00		 imul	 ecx, DWORD PTR _iIndex$[ebp], 7072
  000e0	8b 15 00 00 00
	00		 mov	 edx, DWORD PTR ?gObj@@3PAVOBJECTSTRUCT@@A ; gObj
  000e6	8b 35 00 00 00
	00		 mov	 esi, DWORD PTR ?gObj@@3PAVOBJECTSTRUCT@@A ; gObj
  000ec	66 8b 84 06 04
	01 00 00	 mov	 ax, WORD PTR [esi+eax+260]
  000f4	66 89 84 0a 20
	01 00 00	 mov	 WORD PTR [edx+ecx+288], ax

; 140  : 		gObj[iIndex].TY			= gObj[iIndex].Y;

  000fc	69 45 f8 a0 1b
	00 00		 imul	 eax, DWORD PTR _iIndex$[ebp], 7072
  00103	69 4d f8 a0 1b
	00 00		 imul	 ecx, DWORD PTR _iIndex$[ebp], 7072
  0010a	8b 15 00 00 00
	00		 mov	 edx, DWORD PTR ?gObj@@3PAVOBJECTSTRUCT@@A ; gObj
  00110	8b 35 00 00 00
	00		 mov	 esi, DWORD PTR ?gObj@@3PAVOBJECTSTRUCT@@A ; gObj
  00116	66 8b 84 06 06
	01 00 00	 mov	 ax, WORD PTR [esi+eax+262]
  0011e	66 89 84 0a 22
	01 00 00	 mov	 WORD PTR [edx+ecx+290], ax

; 141  : 		gObj[iIndex].m_OldX		= gObj[iIndex].X;

  00126	69 45 f8 a0 1b
	00 00		 imul	 eax, DWORD PTR _iIndex$[ebp], 7072
  0012d	69 4d f8 a0 1b
	00 00		 imul	 ecx, DWORD PTR _iIndex$[ebp], 7072
  00134	8b 15 00 00 00
	00		 mov	 edx, DWORD PTR ?gObj@@3PAVOBJECTSTRUCT@@A ; gObj
  0013a	8b 35 00 00 00
	00		 mov	 esi, DWORD PTR ?gObj@@3PAVOBJECTSTRUCT@@A ; gObj
  00140	66 8b 84 06 04
	01 00 00	 mov	 ax, WORD PTR [esi+eax+260]
  00148	66 89 84 0a 1c
	01 00 00	 mov	 WORD PTR [edx+ecx+284], ax

; 142  : 		gObj[iIndex].m_OldY		= gObj[iIndex].Y;

  00150	69 45 f8 a0 1b
	00 00		 imul	 eax, DWORD PTR _iIndex$[ebp], 7072
  00157	69 4d f8 a0 1b
	00 00		 imul	 ecx, DWORD PTR _iIndex$[ebp], 7072
  0015e	8b 15 00 00 00
	00		 mov	 edx, DWORD PTR ?gObj@@3PAVOBJECTSTRUCT@@A ; gObj
  00164	8b 35 00 00 00
	00		 mov	 esi, DWORD PTR ?gObj@@3PAVOBJECTSTRUCT@@A ; gObj
  0016a	66 8b 84 06 06
	01 00 00	 mov	 ax, WORD PTR [esi+eax+262]
  00172	66 89 84 0a 1e
	01 00 00	 mov	 WORD PTR [edx+ecx+286], ax

; 143  : 		gObj[iIndex].StartX     = (BYTE)gObj[iIndex].X;

  0017a	69 45 f8 a0 1b
	00 00		 imul	 eax, DWORD PTR _iIndex$[ebp], 7072
  00181	69 4d f8 a0 1b
	00 00		 imul	 ecx, DWORD PTR _iIndex$[ebp], 7072
  00188	8b 15 00 00 00
	00		 mov	 edx, DWORD PTR ?gObj@@3PAVOBJECTSTRUCT@@A ; gObj
  0018e	8b 35 00 00 00
	00		 mov	 esi, DWORD PTR ?gObj@@3PAVOBJECTSTRUCT@@A ; gObj
  00194	8a 84 06 04 01
	00 00		 mov	 al, BYTE PTR [esi+eax+260]
  0019b	88 84 0a 1a 01
	00 00		 mov	 BYTE PTR [edx+ecx+282], al

; 144  : 		gObj[iIndex].StartY     = (BYTE)gObj[iIndex].Y;

  001a2	69 45 f8 a0 1b
	00 00		 imul	 eax, DWORD PTR _iIndex$[ebp], 7072
  001a9	69 4d f8 a0 1b
	00 00		 imul	 ecx, DWORD PTR _iIndex$[ebp], 7072
  001b0	8b 15 00 00 00
	00		 mov	 edx, DWORD PTR ?gObj@@3PAVOBJECTSTRUCT@@A ; gObj
  001b6	8b 35 00 00 00
	00		 mov	 esi, DWORD PTR ?gObj@@3PAVOBJECTSTRUCT@@A ; gObj
  001bc	8a 84 06 06 01
	00 00		 mov	 al, BYTE PTR [esi+eax+262]
  001c3	88 84 0a 1b 01
	00 00		 mov	 BYTE PTR [edx+ecx+283], al

; 145  : 
; 146  : 		LPMONSTER_ATTRIBUTE		lpMATTR;
; 147  : 		lpMATTR = gMAttr.GetAttr(iMonsterType);

  001ca	8b 45 08	 mov	 eax, DWORD PTR _iMonsterType$[ebp]
  001cd	50		 push	 eax
  001ce	b9 00 00 00 00	 mov	 ecx, OFFSET ?gMAttr@@3VCMonsterAttr@@A ; gMAttr
  001d3	e8 00 00 00 00	 call	 ?GetAttr@CMonsterAttr@@QAEPAUMONSTER_ATTRIBUTE@@H@Z ; CMonsterAttr::GetAttr
  001d8	89 45 f0	 mov	 DWORD PTR _lpMATTR$4[ebp], eax

; 148  : 
; 149  : 		if (lpMATTR == NULL) {

  001db	83 7d f0 00	 cmp	 DWORD PTR _lpMATTR$4[ebp], 0
  001df	75 13		 jne	 SHORT $LN6@AddMonster

; 150  : 			gObjDel (iIndex);

  001e1	8b 45 f8	 mov	 eax, DWORD PTR _iIndex$[ebp]
  001e4	50		 push	 eax
  001e5	e8 00 00 00 00	 call	 ?gObjDel@@YAFH@Z	; gObjDel
  001ea	83 c4 04	 add	 esp, 4

; 151  : 			return FALSE;

  001ed	33 c0		 xor	 eax, eax
  001ef	e9 1a 01 00 00	 jmp	 $LN1@AddMonster
$LN6@AddMonster:

; 152  : 		}
; 153  : 
; 154  : 		gObj[iIndex].Level     = lpMATTR->m_Level;

  001f4	69 45 f8 a0 1b
	00 00		 imul	 eax, DWORD PTR _iIndex$[ebp], 7072
  001fb	8b 0d 00 00 00
	00		 mov	 ecx, DWORD PTR ?gObj@@3PAVOBJECTSTRUCT@@A ; gObj
  00201	8b 55 f0	 mov	 edx, DWORD PTR _lpMATTR$4[ebp]
  00204	66 8b 52 1c	 mov	 dx, WORD PTR [edx+28]
  00208	66 89 94 01 a0
	00 00 00	 mov	 WORD PTR [ecx+eax+160], dx

; 155  : 
; 156  : 
; 157  : 		gObjSetMonster(iIndex, iMonsterType);

  00210	8b 45 08	 mov	 eax, DWORD PTR _iMonsterType$[ebp]
  00213	50		 push	 eax
  00214	8b 4d f8	 mov	 ecx, DWORD PTR _iIndex$[ebp]
  00217	51		 push	 ecx
  00218	e8 00 00 00 00	 call	 ?gObjSetMonster@@YAHHH@Z ; gObjSetMonster
  0021d	83 c4 08	 add	 esp, 8

; 158  : 
; 159  : 		gObj[iIndex].MaxRegenTime = 1000;

  00220	69 45 f8 a0 1b
	00 00		 imul	 eax, DWORD PTR _iIndex$[ebp], 7072
  00227	8b 0d 00 00 00
	00		 mov	 ecx, DWORD PTR ?gObj@@3PAVOBJECTSTRUCT@@A ; gObj
  0022d	c7 84 01 08 02
	00 00 e8 03 00
	00		 mov	 DWORD PTR [ecx+eax+520], 1000 ; 000003e8H

; 160  : 		gObj[iIndex].Dir = rand()%8;	//   .

  00238	e8 00 00 00 00	 call	 _rand
  0023d	25 07 00 00 80	 and	 eax, -2147483641	; 80000007H
  00242	79 05		 jns	 SHORT $LN8@AddMonster
  00244	48		 dec	 eax
  00245	83 c8 f8	 or	 eax, -8			; fffffff8H
  00248	40		 inc	 eax
$LN8@AddMonster:
  00249	69 4d f8 a0 1b
	00 00		 imul	 ecx, DWORD PTR _iIndex$[ebp], 7072
  00250	8b 15 00 00 00
	00		 mov	 edx, DWORD PTR ?gObj@@3PAVOBJECTSTRUCT@@A ; gObj
  00256	88 84 0a 08 01
	00 00		 mov	 BYTE PTR [edx+ecx+264], al

; 161  : 
; 162  : 		gObj[iIndex].m_bIsInMonsterHerd = true;

  0025d	69 45 f8 a0 1b
	00 00		 imul	 eax, DWORD PTR _iIndex$[ebp], 7072
  00264	8b 0d 00 00 00
	00		 mov	 ecx, DWORD PTR ?gObj@@3PAVOBJECTSTRUCT@@A ; gObj
  0026a	c7 84 01 ec 0e
	00 00 01 00 00
	00		 mov	 DWORD PTR [ecx+eax+3820], 1

; 163  : 		gObj[iIndex].m_bIsMonsterAttackFirst = bAttackFirst;

  00275	69 45 f8 a0 1b
	00 00		 imul	 eax, DWORD PTR _iIndex$[ebp], 7072
  0027c	8b 0d 00 00 00
	00		 mov	 ecx, DWORD PTR ?gObj@@3PAVOBJECTSTRUCT@@A ; gObj
  00282	8b 55 10	 mov	 edx, DWORD PTR _bAttackFirst$[ebp]
  00285	89 94 01 f0 0e
	00 00		 mov	 DWORD PTR [ecx+eax+3824], edx

; 164  : 		gObj[iIndex].m_lpMonsterHerd = this;

  0028c	69 45 f8 a0 1b
	00 00		 imul	 eax, DWORD PTR _iIndex$[ebp], 7072
  00293	8b 0d 00 00 00
	00		 mov	 ecx, DWORD PTR ?gObj@@3PAVOBJECTSTRUCT@@A ; gObj
  00299	8b 55 fc	 mov	 edx, DWORD PTR _this$[ebp]
  0029c	89 94 01 f4 0e
	00 00		 mov	 DWORD PTR [ecx+eax+3828], edx

; 165  : 
; 166  : 		EnterCriticalSection(& m_critMonsterHerd);

  002a3	8b 45 fc	 mov	 eax, DWORD PTR _this$[ebp]
  002a6	83 c0 28	 add	 eax, 40			; 00000028H
  002a9	50		 push	 eax
  002aa	ff 15 00 00 00
	00		 call	 DWORD PTR __imp__EnterCriticalSection@4

; 167  : 		MONSTER_HERD_DATA pMHD;

  002b0	8d 4d e0	 lea	 ecx, DWORD PTR _pMHD$3[ebp]
  002b3	e8 00 00 00 00	 call	 ??0_MONSTER_HERD_DATA@@QAE@XZ ; _MONSTER_HERD_DATA::_MONSTER_HERD_DATA

; 168  : 		pMHD.m_iIndex = iIndex;

  002b8	8b 45 f8	 mov	 eax, DWORD PTR _iIndex$[ebp]
  002bb	89 45 e0	 mov	 DWORD PTR _pMHD$3[ebp], eax

; 169  : 		pMHD.m_iType = iMonsterType;

  002be	8b 45 08	 mov	 eax, DWORD PTR _iMonsterType$[ebp]
  002c1	89 45 e4	 mov	 DWORD PTR _pMHD$3[ebp+4], eax

; 170  : 		pMHD.m_iX = cX;

  002c4	8a 45 f6	 mov	 al, BYTE PTR _cX$[ebp]
  002c7	88 45 e8	 mov	 BYTE PTR _pMHD$3[ebp+8], al

; 171  : 		pMHD.m_iX = cY;

  002ca	8a 45 f5	 mov	 al, BYTE PTR _cY$[ebp]
  002cd	88 45 e8	 mov	 BYTE PTR _pMHD$3[ebp+8], al

; 172  : 		pMHD.m_bRegen = bRegen;

  002d0	8b 45 0c	 mov	 eax, DWORD PTR _bRegen$[ebp]
  002d3	89 45 ec	 mov	 DWORD PTR _pMHD$3[ebp+12], eax

; 173  : 		m_mapMonsterHerd.insert(pair<INT, MONSTER_HERD_DATA> (iIndex, pMHD));

  002d6	8d 45 e0	 lea	 eax, DWORD PTR _pMHD$3[ebp]
  002d9	50		 push	 eax
  002da	8d 4d f8	 lea	 ecx, DWORD PTR _iIndex$[ebp]
  002dd	51		 push	 ecx
  002de	8d 4d 8c	 lea	 ecx, DWORD PTR $T2[ebp]
  002e1	e8 00 00 00 00	 call	 ??$?0AAHAAU_MONSTER_HERD_DATA@@$0A@@?$pair@HU_MONSTER_HERD_DATA@@@std@@QAE@AAHAAU_MONSTER_HERD_DATA@@@Z ; std::pair<int,_MONSTER_HERD_DATA>::pair<int,_MONSTER_HERD_DATA><int &,_MONSTER_HERD_DATA &,0>
  002e6	50		 push	 eax
  002e7	8d 55 84	 lea	 edx, DWORD PTR $T1[ebp]
  002ea	52		 push	 edx
  002eb	8b 4d fc	 mov	 ecx, DWORD PTR _this$[ebp]
  002ee	83 c1 20	 add	 ecx, 32			; 00000020H
  002f1	e8 00 00 00 00	 call	 ??$insert@U?$pair@HU_MONSTER_HERD_DATA@@@std@@$0A@@?$map@HU_MONSTER_HERD_DATA@@U?$less@H@std@@V?$allocator@U?$pair@$$CBHU_MONSTER_HERD_DATA@@@std@@@3@@std@@QAE?AU?$pair@V?$_Tree_iterator@V?$_Tree_val@U?$_Tree_simple_types@U?$pair@$$CBHU_MONSTER_HERD_DATA@@@std@@@std@@@std@@@std@@_N@1@$$QAU?$pair@HU_MONSTER_HERD_DATA@@@1@@Z ; std::map<int,_MONSTER_HERD_DATA,std::less<int>,std::allocator<std::pair<int const ,_MONSTER_HERD_DATA> > >::insert<std::pair<int,_MONSTER_HERD_DATA>,0>

; 174  : 		LeaveCriticalSection(& m_critMonsterHerd);

  002f6	8b 45 fc	 mov	 eax, DWORD PTR _this$[ebp]
  002f9	83 c0 28	 add	 eax, 40			; 00000028H
  002fc	50		 push	 eax
  002fd	ff 15 00 00 00
	00		 call	 DWORD PTR __imp__LeaveCriticalSection@4

; 175  : 	}

  00303	eb 04		 jmp	 SHORT $LN5@AddMonster
$LN4@AddMonster:

; 176  : 	else 
; 177  : 		return FALSE;

  00305	33 c0		 xor	 eax, eax
  00307	eb 05		 jmp	 SHORT $LN1@AddMonster
$LN5@AddMonster:

; 178  : 	
; 179  : 	return TRUE;

  00309	b8 01 00 00 00	 mov	 eax, 1
$LN1@AddMonster:

; 180  : }

  0030e	5f		 pop	 edi
  0030f	5e		 pop	 esi
  00310	5b		 pop	 ebx
  00311	8b e5		 mov	 esp, ebp
  00313	5d		 pop	 ebp
  00314	c2 0c 00	 ret	 12			; 0000000cH
?AddMonster@MonsterHerd@@UAEHHHH@Z ENDP			; MonsterHerd::AddMonster
_TEXT	ENDS
; Function compile flags: /Odtp /ZI
; File C:\Mu Online\Mu-GS-Webzen-MC-10093\GameServer\MonsterHerd.cpp
;	COMDAT ?SetTotalInfo@MonsterHerd@@UAEHHHHH@Z
_TEXT	SEGMENT
tv128 = -80						; size = 4
tv76 = -80						; size = 4
tv71 = -80						; size = 4
tv66 = -80						; size = 4
tv129 = -76						; size = 4
tv77 = -76						; size = 4
tv72 = -76						; size = 4
tv67 = -76						; size = 4
_btMapAttr$ = -5					; size = 1
_this$ = -4						; size = 4
_iMapNumber$ = 8					; size = 4
_iRadius$ = 12						; size = 4
_iStartX$ = 16						; size = 4
_iStartY$ = 20						; size = 4
?SetTotalInfo@MonsterHerd@@UAEHHHHH@Z PROC		; MonsterHerd::SetTotalInfo, COMDAT
; _this$ = ecx

; 79   : {

  00000	55		 push	 ebp
  00001	8b ec		 mov	 ebp, esp
  00003	83 ec 50	 sub	 esp, 80			; 00000050H
  00006	53		 push	 ebx
  00007	56		 push	 esi
  00008	57		 push	 edi
  00009	89 4d fc	 mov	 DWORD PTR _this$[ebp], ecx

; 80   : 	if (!CHECK_IN_MAP(iMapNumber))				//    

  0000c	83 7d 08 00	 cmp	 DWORD PTR _iMapNumber$[ebp], 0
  00010	7d 09		 jge	 SHORT $LN11@SetTotalIn
  00012	c7 45 b4 00 00
	00 00		 mov	 DWORD PTR tv67[ebp], 0
  00019	eb 1c		 jmp	 SHORT $LN12@SetTotalIn
$LN11@SetTotalIn:
  0001b	83 7d 08 1d	 cmp	 DWORD PTR _iMapNumber$[ebp], 29 ; 0000001dH
  0001f	7e 09		 jle	 SHORT $LN9@SetTotalIn
  00021	c7 45 b0 00 00
	00 00		 mov	 DWORD PTR tv66[ebp], 0
  00028	eb 07		 jmp	 SHORT $LN10@SetTotalIn
$LN9@SetTotalIn:
  0002a	c7 45 b0 01 00
	00 00		 mov	 DWORD PTR tv66[ebp], 1
$LN10@SetTotalIn:
  00031	8b 45 b0	 mov	 eax, DWORD PTR tv66[ebp]
  00034	89 45 b4	 mov	 DWORD PTR tv67[ebp], eax
$LN12@SetTotalIn:
  00037	83 7d b4 00	 cmp	 DWORD PTR tv67[ebp], 0
  0003b	75 07		 jne	 SHORT $LN2@SetTotalIn

; 81   : 		return FALSE;

  0003d	33 c0		 xor	 eax, eax
  0003f	e9 13 01 00 00	 jmp	 $LN1@SetTotalIn
$LN2@SetTotalIn:

; 82   : 
; 83   : 	if (!CHECK_LIMIT(iStartX,255) ||			//   

  00044	83 7d 10 00	 cmp	 DWORD PTR _iStartX$[ebp], 0
  00048	7d 09		 jge	 SHORT $LN15@SetTotalIn
  0004a	c7 45 b4 00 00
	00 00		 mov	 DWORD PTR tv72[ebp], 0
  00051	eb 1f		 jmp	 SHORT $LN16@SetTotalIn
$LN15@SetTotalIn:
  00053	81 7d 10 fe 00
	00 00		 cmp	 DWORD PTR _iStartX$[ebp], 254 ; 000000feH
  0005a	7e 09		 jle	 SHORT $LN13@SetTotalIn
  0005c	c7 45 b0 00 00
	00 00		 mov	 DWORD PTR tv71[ebp], 0
  00063	eb 07		 jmp	 SHORT $LN14@SetTotalIn
$LN13@SetTotalIn:
  00065	c7 45 b0 01 00
	00 00		 mov	 DWORD PTR tv71[ebp], 1
$LN14@SetTotalIn:
  0006c	8b 45 b0	 mov	 eax, DWORD PTR tv71[ebp]
  0006f	89 45 b4	 mov	 DWORD PTR tv72[ebp], eax
$LN16@SetTotalIn:
  00072	83 7d b4 00	 cmp	 DWORD PTR tv72[ebp], 0
  00076	74 34		 je	 SHORT $LN4@SetTotalIn
  00078	83 7d 14 00	 cmp	 DWORD PTR _iStartY$[ebp], 0
  0007c	7d 09		 jge	 SHORT $LN19@SetTotalIn
  0007e	c7 45 b4 00 00
	00 00		 mov	 DWORD PTR tv77[ebp], 0
  00085	eb 1f		 jmp	 SHORT $LN20@SetTotalIn
$LN19@SetTotalIn:
  00087	81 7d 14 fe 00
	00 00		 cmp	 DWORD PTR _iStartY$[ebp], 254 ; 000000feH
  0008e	7e 09		 jle	 SHORT $LN17@SetTotalIn
  00090	c7 45 b0 00 00
	00 00		 mov	 DWORD PTR tv76[ebp], 0
  00097	eb 07		 jmp	 SHORT $LN18@SetTotalIn
$LN17@SetTotalIn:
  00099	c7 45 b0 01 00
	00 00		 mov	 DWORD PTR tv76[ebp], 1
$LN18@SetTotalIn:
  000a0	8b 45 b0	 mov	 eax, DWORD PTR tv76[ebp]
  000a3	89 45 b4	 mov	 DWORD PTR tv77[ebp], eax
$LN20@SetTotalIn:
  000a6	83 7d b4 00	 cmp	 DWORD PTR tv77[ebp], 0
  000aa	75 07		 jne	 SHORT $LN3@SetTotalIn
$LN4@SetTotalIn:

; 84   : 		!CHECK_LIMIT(iStartY,255)
; 85   : 		)
; 86   : 		return FALSE;

  000ac	33 c0		 xor	 eax, eax
  000ae	e9 a4 00 00 00	 jmp	 $LN1@SetTotalIn
$LN3@SetTotalIn:

; 87   : 
; 88   : 	BYTE btMapAttr = MapC[iMapNumber].GetAttr(iStartX, iStartY);

  000b3	8b 45 14	 mov	 eax, DWORD PTR _iStartY$[ebp]
  000b6	50		 push	 eax
  000b7	8b 4d 10	 mov	 ecx, DWORD PTR _iStartX$[ebp]
  000ba	51		 push	 ecx
  000bb	69 4d 08 8c 04
	05 00		 imul	 ecx, DWORD PTR _iMapNumber$[ebp], 328844
  000c2	03 0d 00 00 00
	00		 add	 ecx, DWORD PTR ?MapC@@3PAVMapClass@@A ; MapC
  000c8	e8 00 00 00 00	 call	 ?GetAttr@MapClass@@QAEEHH@Z ; MapClass::GetAttr
  000cd	88 45 fb	 mov	 BYTE PTR _btMapAttr$[ebp], al

; 89   : 	if( ((btMapAttr&MAP_ATTR_SAFTYZONE)==MAP_ATTR_SAFTYZONE) ||		// 
; 90   : 		((btMapAttr&MAP_ATTR_BLOCK)==MAP_ATTR_BLOCK) ||				// 

  000d0	0f b6 45 fb	 movzx	 eax, BYTE PTR _btMapAttr$[ebp]
  000d4	83 e0 01	 and	 eax, 1
  000d7	75 12		 jne	 SHORT $LN6@SetTotalIn
  000d9	0f b6 45 fb	 movzx	 eax, BYTE PTR _btMapAttr$[ebp]
  000dd	83 e0 04	 and	 eax, 4
  000e0	75 09		 jne	 SHORT $LN6@SetTotalIn
  000e2	0f b6 45 fb	 movzx	 eax, BYTE PTR _btMapAttr$[ebp]
  000e6	83 e0 08	 and	 eax, 8
  000e9	74 04		 je	 SHORT $LN5@SetTotalIn
$LN6@SetTotalIn:

; 91   : 		((btMapAttr&MAP_ATTR_HOLLOW)==MAP_ATTR_HOLLOW)				// 
; 92   : 		)
; 93   : 	{
; 94   : 		return FALSE;

  000eb	33 c0		 xor	 eax, eax
  000ed	eb 68		 jmp	 SHORT $LN1@SetTotalIn
$LN5@SetTotalIn:

; 95   : 	}
; 96   : 
; 97   : 	if (!CHECK_LIMIT(iRadius, MAX_RADIUS))		//   

  000ef	83 7d 0c 00	 cmp	 DWORD PTR _iRadius$[ebp], 0
  000f3	7d 09		 jge	 SHORT $LN23@SetTotalIn
  000f5	c7 45 b4 00 00
	00 00		 mov	 DWORD PTR tv129[ebp], 0
  000fc	eb 1c		 jmp	 SHORT $LN24@SetTotalIn
$LN23@SetTotalIn:
  000fe	83 7d 0c 0f	 cmp	 DWORD PTR _iRadius$[ebp], 15 ; 0000000fH
  00102	7e 09		 jle	 SHORT $LN21@SetTotalIn
  00104	c7 45 b0 00 00
	00 00		 mov	 DWORD PTR tv128[ebp], 0
  0010b	eb 07		 jmp	 SHORT $LN22@SetTotalIn
$LN21@SetTotalIn:
  0010d	c7 45 b0 01 00
	00 00		 mov	 DWORD PTR tv128[ebp], 1
$LN22@SetTotalIn:
  00114	8b 45 b0	 mov	 eax, DWORD PTR tv128[ebp]
  00117	89 45 b4	 mov	 DWORD PTR tv129[ebp], eax
$LN24@SetTotalIn:
  0011a	83 7d b4 00	 cmp	 DWORD PTR tv129[ebp], 0
  0011e	75 04		 jne	 SHORT $LN7@SetTotalIn

; 98   : 		return FALSE;

  00120	33 c0		 xor	 eax, eax
  00122	eb 33		 jmp	 SHORT $LN1@SetTotalIn
$LN7@SetTotalIn:

; 99   : 
; 100  : 	m_iMapNumber = iMapNumber;

  00124	8b 45 fc	 mov	 eax, DWORD PTR _this$[ebp]
  00127	8b 4d 08	 mov	 ecx, DWORD PTR _iMapNumber$[ebp]
  0012a	89 48 08	 mov	 DWORD PTR [eax+8], ecx

; 101  : 	m_iCUR_X = iStartX;

  0012d	8b 45 fc	 mov	 eax, DWORD PTR _this$[ebp]
  00130	8b 4d 10	 mov	 ecx, DWORD PTR _iStartX$[ebp]
  00133	89 48 0c	 mov	 DWORD PTR [eax+12], ecx

; 102  : 	m_iCUR_Y = iStartY;

  00136	8b 45 fc	 mov	 eax, DWORD PTR _this$[ebp]
  00139	8b 4d 14	 mov	 ecx, DWORD PTR _iStartY$[ebp]
  0013c	89 48 10	 mov	 DWORD PTR [eax+16], ecx

; 103  : 	m_iRADIUS = iRadius;

  0013f	8b 45 fc	 mov	 eax, DWORD PTR _this$[ebp]
  00142	8b 4d 0c	 mov	 ecx, DWORD PTR _iRadius$[ebp]
  00145	89 48 14	 mov	 DWORD PTR [eax+20], ecx

; 104  : 
; 105  : 	m_bHasInfo = TRUE;			//    

  00148	8b 45 fc	 mov	 eax, DWORD PTR _this$[ebp]
  0014b	c7 40 18 01 00
	00 00		 mov	 DWORD PTR [eax+24], 1

; 106  : 
; 107  : 	return TRUE;

  00152	b8 01 00 00 00	 mov	 eax, 1
$LN1@SetTotalIn:

; 108  : }

  00157	5f		 pop	 edi
  00158	5e		 pop	 esi
  00159	5b		 pop	 ebx
  0015a	8b e5		 mov	 esp, ebp
  0015c	5d		 pop	 ebp
  0015d	c2 10 00	 ret	 16			; 00000010H
?SetTotalInfo@MonsterHerd@@UAEHHHHH@Z ENDP		; MonsterHerd::SetTotalInfo
_TEXT	ENDS
; Function compile flags: /Odtp /ZI
; File C:\Mu Online\Mu-GS-Webzen-MC-10093\GameServer\MonsterHerd.cpp
;	COMDAT ??1MonsterHerd@@UAE@XZ
_TEXT	SEGMENT
_this$ = -4						; size = 4
??1MonsterHerd@@UAE@XZ PROC				; MonsterHerd::~MonsterHerd, COMDAT
; _this$ = ecx

; 68   : {

  00000	55		 push	 ebp
  00001	8b ec		 mov	 ebp, esp
  00003	83 ec 44	 sub	 esp, 68			; 00000044H
  00006	53		 push	 ebx
  00007	56		 push	 esi
  00008	57		 push	 edi
  00009	89 4d fc	 mov	 DWORD PTR _this$[ebp], ecx
  0000c	8b 45 fc	 mov	 eax, DWORD PTR _this$[ebp]
  0000f	c7 00 00 00 00
	00		 mov	 DWORD PTR [eax], OFFSET ??_7MonsterHerd@@6B@

; 69   : 	DeleteCriticalSection (& m_critMonsterHerd);

  00015	8b 45 fc	 mov	 eax, DWORD PTR _this$[ebp]
  00018	83 c0 28	 add	 eax, 40			; 00000028H
  0001b	50		 push	 eax
  0001c	ff 15 00 00 00
	00		 call	 DWORD PTR __imp__DeleteCriticalSection@4

; 70   : }

  00022	8b 4d fc	 mov	 ecx, DWORD PTR _this$[ebp]
  00025	83 c1 20	 add	 ecx, 32			; 00000020H
  00028	e8 00 00 00 00	 call	 ??1?$map@HU_MONSTER_HERD_DATA@@U?$less@H@std@@V?$allocator@U?$pair@$$CBHU_MONSTER_HERD_DATA@@@std@@@3@@std@@QAE@XZ
  0002d	5f		 pop	 edi
  0002e	5e		 pop	 esi
  0002f	5b		 pop	 ebx
  00030	8b e5		 mov	 esp, ebp
  00032	5d		 pop	 ebp
  00033	c3		 ret	 0
??1MonsterHerd@@UAE@XZ ENDP				; MonsterHerd::~MonsterHerd
_TEXT	ENDS
; Function compile flags: /Odtp /ZI
; File C:\Mu Online\Mu-GS-Webzen-MC-10093\GameServer\MonsterHerd.cpp
;	COMDAT ??0MonsterHerd@@QAE@XZ
_TEXT	SEGMENT
_this$ = -4						; size = 4
??0MonsterHerd@@QAE@XZ PROC				; MonsterHerd::MonsterHerd, COMDAT
; _this$ = ecx

; 54   : {

  00000	55		 push	 ebp
  00001	8b ec		 mov	 ebp, esp
  00003	83 ec 44	 sub	 esp, 68			; 00000044H
  00006	53		 push	 ebx
  00007	56		 push	 esi
  00008	57		 push	 edi
  00009	89 4d fc	 mov	 DWORD PTR _this$[ebp], ecx
  0000c	8b 45 fc	 mov	 eax, DWORD PTR _this$[ebp]
  0000f	c7 00 00 00 00
	00		 mov	 DWORD PTR [eax], OFFSET ??_7MonsterHerd@@6B@
  00015	8b 4d fc	 mov	 ecx, DWORD PTR _this$[ebp]
  00018	83 c1 20	 add	 ecx, 32			; 00000020H
  0001b	e8 00 00 00 00	 call	 ??0?$map@HU_MONSTER_HERD_DATA@@U?$less@H@std@@V?$allocator@U?$pair@$$CBHU_MONSTER_HERD_DATA@@@std@@@3@@std@@QAE@XZ ; std::map<int,_MONSTER_HERD_DATA,std::less<int>,std::allocator<std::pair<int const ,_MONSTER_HERD_DATA> > >::map<int,_MONSTER_HERD_DATA,std::less<int>,std::allocator<std::pair<int const ,_MONSTER_HERD_DATA> > >

; 55   : 	m_iMapNumber = -1;

  00020	8b 45 fc	 mov	 eax, DWORD PTR _this$[ebp]
  00023	c7 40 08 ff ff
	ff ff		 mov	 DWORD PTR [eax+8], -1

; 56   : 	m_iCUR_X = 0;

  0002a	8b 45 fc	 mov	 eax, DWORD PTR _this$[ebp]
  0002d	c7 40 0c 00 00
	00 00		 mov	 DWORD PTR [eax+12], 0

; 57   : 	m_iCUR_Y = 0;

  00034	8b 45 fc	 mov	 eax, DWORD PTR _this$[ebp]
  00037	c7 40 10 00 00
	00 00		 mov	 DWORD PTR [eax+16], 0

; 58   : 	m_iRADIUS = 0;

  0003e	8b 45 fc	 mov	 eax, DWORD PTR _this$[ebp]
  00041	c7 40 14 00 00
	00 00		 mov	 DWORD PTR [eax+20], 0

; 59   : 
; 60   : 	m_bHerdActive = FALSE;

  00048	8b 45 fc	 mov	 eax, DWORD PTR _this$[ebp]
  0004b	c7 40 1c 00 00
	00 00		 mov	 DWORD PTR [eax+28], 0

; 61   : 	m_bHasInfo = FALSE;

  00052	8b 45 fc	 mov	 eax, DWORD PTR _this$[ebp]
  00055	c7 40 18 00 00
	00 00		 mov	 DWORD PTR [eax+24], 0

; 62   : 
; 63   : 	InitializeCriticalSection (& m_critMonsterHerd);

  0005c	8b 45 fc	 mov	 eax, DWORD PTR _this$[ebp]
  0005f	83 c0 28	 add	 eax, 40			; 00000028H
  00062	50		 push	 eax
  00063	ff 15 00 00 00
	00		 call	 DWORD PTR __imp__InitializeCriticalSection@4

; 64   : }

  00069	8b 45 fc	 mov	 eax, DWORD PTR _this$[ebp]
  0006c	5f		 pop	 edi
  0006d	5e		 pop	 esi
  0006e	5b		 pop	 ebx
  0006f	8b e5		 mov	 esp, ebp
  00071	5d		 pop	 ebp
  00072	c3		 ret	 0
??0MonsterHerd@@QAE@XZ ENDP				; MonsterHerd::MonsterHerd
_TEXT	ENDS
; Function compile flags: /Odtp /ZI
;	COMDAT ??1?$map@HU_MONSTER_HERD_DATA@@U?$less@H@std@@V?$allocator@U?$pair@$$CBHU_MONSTER_HERD_DATA@@@std@@@3@@std@@QAE@XZ
_TEXT	SEGMENT
_this$ = -4						; size = 4
??1?$map@HU_MONSTER_HERD_DATA@@U?$less@H@std@@V?$allocator@U?$pair@$$CBHU_MONSTER_HERD_DATA@@@std@@@3@@std@@QAE@XZ PROC ; std::map<int,_MONSTER_HERD_DATA,std::less<int>,std::allocator<std::pair<int const ,_MONSTER_HERD_DATA> > >::~map<int,_MONSTER_HERD_DATA,std::less<int>,std::allocator<std::pair<int const ,_MONSTER_HERD_DATA> > >, COMDAT
; _this$ = ecx
  00000	55		 push	 ebp
  00001	8b ec		 mov	 ebp, esp
  00003	83 ec 44	 sub	 esp, 68			; 00000044H
  00006	53		 push	 ebx
  00007	56		 push	 esi
  00008	57		 push	 edi
  00009	89 4d fc	 mov	 DWORD PTR _this$[ebp], ecx
  0000c	8b 4d fc	 mov	 ecx, DWORD PTR _this$[ebp]
  0000f	e8 00 00 00 00	 call	 ??1?$_Tree@V?$_Tmap_traits@HU_MONSTER_HERD_DATA@@U?$less@H@std@@V?$allocator@U?$pair@$$CBHU_MONSTER_HERD_DATA@@@std@@@3@$0A@@std@@@std@@QAE@XZ ; std::_Tree<std::_Tmap_traits<int,_MONSTER_HERD_DATA,std::less<int>,std::allocator<std::pair<int const ,_MONSTER_HERD_DATA> >,0> >::~_Tree<std::_Tmap_traits<int,_MONSTER_HERD_DATA,std::less<int>,std::allocator<std::pair<int const ,_MONSTER_HERD_DATA> >,0> >
  00014	5f		 pop	 edi
  00015	5e		 pop	 esi
  00016	5b		 pop	 ebx
  00017	8b e5		 mov	 esp, ebp
  00019	5d		 pop	 ebp
  0001a	c3		 ret	 0
??1?$map@HU_MONSTER_HERD_DATA@@U?$less@H@std@@V?$allocator@U?$pair@$$CBHU_MONSTER_HERD_DATA@@@std@@@3@@std@@QAE@XZ ENDP ; std::map<int,_MONSTER_HERD_DATA,std::less<int>,std::allocator<std::pair<int const ,_MONSTER_HERD_DATA> > >::~map<int,_MONSTER_HERD_DATA,std::less<int>,std::allocator<std::pair<int const ,_MONSTER_HERD_DATA> > >
_TEXT	ENDS
; Function compile flags: /Odtp /ZI
; File C:\Program Files (x86)\Microsoft Visual Studio\2019\Community\VC\Tools\MSVC\14.27.29110\include\map
;	COMDAT ??0?$map@HU_MONSTER_HERD_DATA@@U?$less@H@std@@V?$allocator@U?$pair@$$CBHU_MONSTER_HERD_DATA@@@std@@@3@@std@@QAE@XZ
_TEXT	SEGMENT
$T1 = -69						; size = 1
_this$ = -4						; size = 4
??0?$map@HU_MONSTER_HERD_DATA@@U?$less@H@std@@V?$allocator@U?$pair@$$CBHU_MONSTER_HERD_DATA@@@std@@@3@@std@@QAE@XZ PROC ; std::map<int,_MONSTER_HERD_DATA,std::less<int>,std::allocator<std::pair<int const ,_MONSTER_HERD_DATA> > >::map<int,_MONSTER_HERD_DATA,std::less<int>,std::allocator<std::pair<int const ,_MONSTER_HERD_DATA> > >, COMDAT
; _this$ = ecx

; 107  :     map() : _Mybase(key_compare()) {}

  00000	55		 push	 ebp
  00001	8b ec		 mov	 ebp, esp
  00003	83 ec 48	 sub	 esp, 72			; 00000048H
  00006	53		 push	 ebx
  00007	56		 push	 esi
  00008	57		 push	 edi
  00009	89 4d fc	 mov	 DWORD PTR _this$[ebp], ecx
  0000c	8d 45 bb	 lea	 eax, DWORD PTR $T1[ebp]
  0000f	50		 push	 eax
  00010	8b 4d fc	 mov	 ecx, DWORD PTR _this$[ebp]
  00013	e8 00 00 00 00	 call	 ??0?$_Tree@V?$_Tmap_traits@HU_MONSTER_HERD_DATA@@U?$less@H@std@@V?$allocator@U?$pair@$$CBHU_MONSTER_HERD_DATA@@@std@@@3@$0A@@std@@@std@@QAE@ABU?$less@H@1@@Z ; std::_Tree<std::_Tmap_traits<int,_MONSTER_HERD_DATA,std::less<int>,std::allocator<std::pair<int const ,_MONSTER_HERD_DATA> >,0> >::_Tree<std::_Tmap_traits<int,_MONSTER_HERD_DATA,std::less<int>,std::allocator<std::pair<int const ,_MONSTER_HERD_DATA> >,0> >
  00018	8b 45 fc	 mov	 eax, DWORD PTR _this$[ebp]
  0001b	5f		 pop	 edi
  0001c	5e		 pop	 esi
  0001d	5b		 pop	 ebx
  0001e	8b e5		 mov	 esp, ebp
  00020	5d		 pop	 ebp
  00021	c3		 ret	 0
??0?$map@HU_MONSTER_HERD_DATA@@U?$less@H@std@@V?$allocator@U?$pair@$$CBHU_MONSTER_HERD_DATA@@@std@@@3@@std@@QAE@XZ ENDP ; std::map<int,_MONSTER_HERD_DATA,std::less<int>,std::allocator<std::pair<int const ,_MONSTER_HERD_DATA> > >::map<int,_MONSTER_HERD_DATA,std::less<int>,std::allocator<std::pair<int const ,_MONSTER_HERD_DATA> > >
_TEXT	ENDS
; Function compile flags: /Odtp /ZI
; File C:\Program Files (x86)\Microsoft Visual Studio\2019\Community\VC\Tools\MSVC\14.27.29110\include\xmemory
;	COMDAT ?_Get_first@?$_Compressed_pair@U?$less@H@std@@V?$_Compressed_pair@V?$allocator@U?$_Tree_node@U?$pair@$$CBHU_MONSTER_HERD_DATA@@@std@@PAX@std@@@std@@V?$_Tree_val@U?$_Tree_simple_types@U?$pair@$$CBHU_MONSTER_HERD_DATA@@@std@@@std@@@2@$00@2@$00@std@@QBEABU?$less@H@2@XZ
_TEXT	SEGMENT
_this$ = -4						; size = 4
?_Get_first@?$_Compressed_pair@U?$less@H@std@@V?$_Compressed_pair@V?$allocator@U?$_Tree_node@U?$pair@$$CBHU_MONSTER_HERD_DATA@@@std@@PAX@std@@@std@@V?$_Tree_val@U?$_Tree_simple_types@U?$pair@$$CBHU_MONSTER_HERD_DATA@@@std@@@std@@@2@$00@2@$00@std@@QBEABU?$less@H@2@XZ PROC ; std::_Compressed_pair<std::less<int>,std::_Compressed_pair<std::allocator<std::_Tree_node<std::pair<int const ,_MONSTER_HERD_DATA>,void *> >,std::_Tree_val<std::_Tree_simple_types<std::pair<int const ,_MONSTER_HERD_DATA> > >,1>,1>::_Get_first, COMDAT
; _this$ = ecx

; 1347 :     constexpr const _Ty1& _Get_first() const noexcept {

  00000	55		 push	 ebp
  00001	8b ec		 mov	 ebp, esp
  00003	83 ec 44	 sub	 esp, 68			; 00000044H
  00006	53		 push	 ebx
  00007	56		 push	 esi
  00008	57		 push	 edi
  00009	89 4d fc	 mov	 DWORD PTR _this$[ebp], ecx

; 1348 :         return *this;

  0000c	8b 45 fc	 mov	 eax, DWORD PTR _this$[ebp]

; 1349 :     }

  0000f	5f		 pop	 edi
  00010	5e		 pop	 esi
  00011	5b		 pop	 ebx
  00012	8b e5		 mov	 esp, ebp
  00014	5d		 pop	 ebp
  00015	c3		 ret	 0
?_Get_first@?$_Compressed_pair@U?$less@H@std@@V?$_Compressed_pair@V?$allocator@U?$_Tree_node@U?$pair@$$CBHU_MONSTER_HERD_DATA@@@std@@PAX@std@@@std@@V?$_Tree_val@U?$_Tree_simple_types@U?$pair@$$CBHU_MONSTER_HERD_DATA@@@std@@@std@@@2@$00@2@$00@std@@QBEABU?$less@H@2@XZ ENDP ; std::_Compressed_pair<std::less<int>,std::_Compressed_pair<std::allocator<std::_Tree_node<std::pair<int const ,_MONSTER_HERD_DATA>,void *> >,std::_Tree_val<std::_Tree_simple_types<std::pair<int const ,_MONSTER_HERD_DATA> > >,1>,1>::_Get_first
_TEXT	ENDS
; Function compile flags: /Odtp /ZI
; File C:\Program Files (x86)\Microsoft Visual Studio\2019\Community\VC\Tools\MSVC\14.27.29110\include\xmemory
;	COMDAT ?_Get_first@?$_Compressed_pair@V?$allocator@U?$_Tree_node@U?$pair@$$CBHU_MONSTER_HERD_DATA@@@std@@PAX@std@@@std@@V?$_Tree_val@U?$_Tree_simple_types@U?$pair@$$CBHU_MONSTER_HERD_DATA@@@std@@@std@@@2@$00@std@@QBEABV?$allocator@U?$_Tree_node@U?$pair@$$CBHU_MONSTER_HERD_DATA@@@std@@PAX@std@@@2@XZ
_TEXT	SEGMENT
_this$ = -4						; size = 4
?_Get_first@?$_Compressed_pair@V?$allocator@U?$_Tree_node@U?$pair@$$CBHU_MONSTER_HERD_DATA@@@std@@PAX@std@@@std@@V?$_Tree_val@U?$_Tree_simple_types@U?$pair@$$CBHU_MONSTER_HERD_DATA@@@std@@@std@@@2@$00@std@@QBEABV?$allocator@U?$_Tree_node@U?$pair@$$CBHU_MONSTER_HERD_DATA@@@std@@PAX@std@@@2@XZ PROC ; std::_Compressed_pair<std::allocator<std::_Tree_node<std::pair<int const ,_MONSTER_HERD_DATA>,void *> >,std::_Tree_val<std::_Tree_simple_types<std::pair<int const ,_MONSTER_HERD_DATA> > >,1>::_Get_first, COMDAT
; _this$ = ecx

; 1347 :     constexpr const _Ty1& _Get_first() const noexcept {

  00000	55		 push	 ebp
  00001	8b ec		 mov	 ebp, esp
  00003	83 ec 44	 sub	 esp, 68			; 00000044H
  00006	53		 push	 ebx
  00007	56		 push	 esi
  00008	57		 push	 edi
  00009	89 4d fc	 mov	 DWORD PTR _this$[ebp], ecx

; 1348 :         return *this;

  0000c	8b 45 fc	 mov	 eax, DWORD PTR _this$[ebp]

; 1349 :     }

  0000f	5f		 pop	 edi
  00010	5e		 pop	 esi
  00011	5b		 pop	 ebx
  00012	8b e5		 mov	 esp, ebp
  00014	5d		 pop	 ebp
  00015	c3		 ret	 0
?_Get_first@?$_Compressed_pair@V?$allocator@U?$_Tree_node@U?$pair@$$CBHU_MONSTER_HERD_DATA@@@std@@PAX@std@@@std@@V?$_Tree_val@U?$_Tree_simple_types@U?$pair@$$CBHU_MONSTER_HERD_DATA@@@std@@@std@@@2@$00@std@@QBEABV?$allocator@U?$_Tree_node@U?$pair@$$CBHU_MONSTER_HERD_DATA@@@std@@PAX@std@@@2@XZ ENDP ; std::_Compressed_pair<std::allocator<std::_Tree_node<std::pair<int const ,_MONSTER_HERD_DATA>,void *> >,std::_Tree_val<std::_Tree_simple_types<std::pair<int const ,_MONSTER_HERD_DATA> > >,1>::_Get_first
_TEXT	ENDS
; Function compile flags: /Odtp /ZI
; File C:\Program Files (x86)\Microsoft Visual Studio\2019\Community\VC\Tools\MSVC\14.27.29110\include\xmemory
;	COMDAT ?_Get_first@?$_Compressed_pair@V?$allocator@U?$_Tree_node@U?$pair@$$CBHU_MONSTER_HERD_DATA@@@std@@PAX@std@@@std@@V?$_Tree_val@U?$_Tree_simple_types@U?$pair@$$CBHU_MONSTER_HERD_DATA@@@std@@@std@@@2@$00@std@@QAEAAV?$allocator@U?$_Tree_node@U?$pair@$$CBHU_MONSTER_HERD_DATA@@@std@@PAX@std@@@2@XZ
_TEXT	SEGMENT
_this$ = -4						; size = 4
?_Get_first@?$_Compressed_pair@V?$allocator@U?$_Tree_node@U?$pair@$$CBHU_MONSTER_HERD_DATA@@@std@@PAX@std@@@std@@V?$_Tree_val@U?$_Tree_simple_types@U?$pair@$$CBHU_MONSTER_HERD_DATA@@@std@@@std@@@2@$00@std@@QAEAAV?$allocator@U?$_Tree_node@U?$pair@$$CBHU_MONSTER_HERD_DATA@@@std@@PAX@std@@@2@XZ PROC ; std::_Compressed_pair<std::allocator<std::_Tree_node<std::pair<int const ,_MONSTER_HERD_DATA>,void *> >,std::_Tree_val<std::_Tree_simple_types<std::pair<int const ,_MONSTER_HERD_DATA> > >,1>::_Get_first, COMDAT
; _this$ = ecx

; 1343 :     constexpr _Ty1& _Get_first() noexcept {

  00000	55		 push	 ebp
  00001	8b ec		 mov	 ebp, esp
  00003	83 ec 44	 sub	 esp, 68			; 00000044H
  00006	53		 push	 ebx
  00007	56		 push	 esi
  00008	57		 push	 edi
  00009	89 4d fc	 mov	 DWORD PTR _this$[ebp], ecx

; 1344 :         return *this;

  0000c	8b 45 fc	 mov	 eax, DWORD PTR _this$[ebp]

; 1345 :     }

  0000f	5f		 pop	 edi
  00010	5e		 pop	 esi
  00011	5b		 pop	 ebx
  00012	8b e5		 mov	 esp, ebp
  00014	5d		 pop	 ebp
  00015	c3		 ret	 0
?_Get_first@?$_Compressed_pair@V?$allocator@U?$_Tree_node@U?$pair@$$CBHU_MONSTER_HERD_DATA@@@std@@PAX@std@@@std@@V?$_Tree_val@U?$_Tree_simple_types@U?$pair@$$CBHU_MONSTER_HERD_DATA@@@std@@@std@@@2@$00@std@@QAEAAV?$allocator@U?$_Tree_node@U?$pair@$$CBHU_MONSTER_HERD_DATA@@@std@@PAX@std@@@2@XZ ENDP ; std::_Compressed_pair<std::allocator<std::_Tree_node<std::pair<int const ,_MONSTER_HERD_DATA>,void *> >,std::_Tree_val<std::_Tree_simple_types<std::pair<int const ,_MONSTER_HERD_DATA> > >,1>::_Get_first
_TEXT	ENDS
; Function compile flags: /Odtp /ZI
; File C:\Program Files (x86)\Microsoft Visual Studio\2019\Community\VC\Tools\MSVC\14.27.29110\include\xtree
;	COMDAT ?_Orphan_ptr@?$_Tree_val@U?$_Tree_simple_types@U?$pair@$$CBHU_MONSTER_HERD_DATA@@@std@@@std@@@std@@QAEXQAU?$_Tree_node@U?$pair@$$CBHU_MONSTER_HERD_DATA@@@std@@PAX@2@@Z
_TEXT	SEGMENT
_this$ = -4						; size = 4
__Ptr$ = 8						; size = 4
?_Orphan_ptr@?$_Tree_val@U?$_Tree_simple_types@U?$pair@$$CBHU_MONSTER_HERD_DATA@@@std@@@std@@@std@@QAEXQAU?$_Tree_node@U?$pair@$$CBHU_MONSTER_HERD_DATA@@@std@@PAX@2@@Z PROC ; std::_Tree_val<std::_Tree_simple_types<std::pair<int const ,_MONSTER_HERD_DATA> > >::_Orphan_ptr, COMDAT
; _this$ = ecx

; 713  :     void _Orphan_ptr(const _Nodeptr _Ptr) noexcept {

  00000	55		 push	 ebp
  00001	8b ec		 mov	 ebp, esp
  00003	83 ec 44	 sub	 esp, 68			; 00000044H
  00006	53		 push	 ebx
  00007	56		 push	 esi
  00008	57		 push	 edi
  00009	89 4d fc	 mov	 DWORD PTR _this$[ebp], ecx

; 714  : #if _ITERATOR_DEBUG_LEVEL == 2
; 715  :         _Lockit _Lock(_LOCK_DEBUG);
; 716  :         _Iterator_base12** _Pnext = &this->_Myproxy->_Myfirstiter;
; 717  :         while (*_Pnext) {
; 718  :             const auto _Pnextptr = static_cast<const_iterator&>(**_Pnext)._Ptr;
; 719  :             if (_Pnextptr == _Myhead || (_Ptr != nullptr && _Pnextptr != _Ptr)) {
; 720  :                 _Pnext = &(*_Pnext)->_Mynextiter;
; 721  :             } else { // orphan the iterator
; 722  :                 (*_Pnext)->_Myproxy = nullptr;
; 723  :                 *_Pnext             = (*_Pnext)->_Mynextiter;
; 724  :             }
; 725  :         }
; 726  : #else // ^^^ _ITERATOR_DEBUG_LEVEL == 2 ^^^ // vvv _ITERATOR_DEBUG_LEVEL != 2 vvv
; 727  :         (void) _Ptr;
; 728  : #endif // _ITERATOR_DEBUG_LEVEL == 2
; 729  :     }

  0000c	5f		 pop	 edi
  0000d	5e		 pop	 esi
  0000e	5b		 pop	 ebx
  0000f	8b e5		 mov	 esp, ebp
  00011	5d		 pop	 ebp
  00012	c2 04 00	 ret	 4
?_Orphan_ptr@?$_Tree_val@U?$_Tree_simple_types@U?$pair@$$CBHU_MONSTER_HERD_DATA@@@std@@@std@@@std@@QAEXQAU?$_Tree_node@U?$pair@$$CBHU_MONSTER_HERD_DATA@@@std@@PAX@2@@Z ENDP ; std::_Tree_val<std::_Tree_simple_types<std::pair<int const ,_MONSTER_HERD_DATA> > >::_Orphan_ptr
_TEXT	ENDS
; Function compile flags: /Odtp /ZI
; File C:\Program Files (x86)\Microsoft Visual Studio\2019\Community\VC\Tools\MSVC\14.27.29110\include\xtree
;	COMDAT ?_Insert_node@?$_Tree_val@U?$_Tree_simple_types@U?$pair@$$CBHU_MONSTER_HERD_DATA@@@std@@@std@@@std@@QAEPAU?$_Tree_node@U?$pair@$$CBHU_MONSTER_HERD_DATA@@@std@@PAX@2@U?$_Tree_id@PAU?$_Tree_node@U?$pair@$$CBHU_MONSTER_HERD_DATA@@@std@@PAX@std@@@2@QAU32@@Z
_TEXT	SEGMENT
__Parent_sibling$1 = -20				; size = 4
__Parent_sibling$2 = -16				; size = 4
__Pnode$3 = -12						; size = 4
__Head$ = -8						; size = 4
_this$ = -4						; size = 4
__Loc$ = 8						; size = 8
__Newnode$ = 16						; size = 4
?_Insert_node@?$_Tree_val@U?$_Tree_simple_types@U?$pair@$$CBHU_MONSTER_HERD_DATA@@@std@@@std@@@std@@QAEPAU?$_Tree_node@U?$pair@$$CBHU_MONSTER_HERD_DATA@@@std@@PAX@2@U?$_Tree_id@PAU?$_Tree_node@U?$pair@$$CBHU_MONSTER_HERD_DATA@@@std@@PAX@std@@@2@QAU32@@Z PROC ; std::_Tree_val<std::_Tree_simple_types<std::pair<int const ,_MONSTER_HERD_DATA> > >::_Insert_node, COMDAT
; _this$ = ecx

; 644  :     _Nodeptr _Insert_node(const _Tree_id<_Nodeptr> _Loc, const _Nodeptr _Newnode) noexcept {

  00000	55		 push	 ebp
  00001	8b ec		 mov	 ebp, esp
  00003	83 ec 54	 sub	 esp, 84			; 00000054H
  00006	53		 push	 ebx
  00007	56		 push	 esi
  00008	57		 push	 edi
  00009	89 4d fc	 mov	 DWORD PTR _this$[ebp], ecx

; 645  :         ++_Mysize;

  0000c	8b 45 fc	 mov	 eax, DWORD PTR _this$[ebp]
  0000f	8b 48 04	 mov	 ecx, DWORD PTR [eax+4]
  00012	83 c1 01	 add	 ecx, 1
  00015	8b 55 fc	 mov	 edx, DWORD PTR _this$[ebp]
  00018	89 4a 04	 mov	 DWORD PTR [edx+4], ecx

; 646  :         const auto _Head  = _Myhead;

  0001b	8b 45 fc	 mov	 eax, DWORD PTR _this$[ebp]
  0001e	8b 08		 mov	 ecx, DWORD PTR [eax]
  00020	89 4d f8	 mov	 DWORD PTR __Head$[ebp], ecx

; 647  :         _Newnode->_Parent = _Loc._Parent;

  00023	8b 45 10	 mov	 eax, DWORD PTR __Newnode$[ebp]
  00026	8b 4d 08	 mov	 ecx, DWORD PTR __Loc$[ebp]
  00029	89 48 04	 mov	 DWORD PTR [eax+4], ecx

; 648  :         if (_Loc._Parent == _Head) { // first node in tree, just set head values

  0002c	8b 45 08	 mov	 eax, DWORD PTR __Loc$[ebp]
  0002f	3b 45 f8	 cmp	 eax, DWORD PTR __Head$[ebp]
  00032	75 29		 jne	 SHORT $LN5@Insert_nod

; 649  :             _Head->_Left     = _Newnode;

  00034	8b 45 f8	 mov	 eax, DWORD PTR __Head$[ebp]
  00037	8b 4d 10	 mov	 ecx, DWORD PTR __Newnode$[ebp]
  0003a	89 08		 mov	 DWORD PTR [eax], ecx

; 650  :             _Head->_Parent   = _Newnode;

  0003c	8b 45 f8	 mov	 eax, DWORD PTR __Head$[ebp]
  0003f	8b 4d 10	 mov	 ecx, DWORD PTR __Newnode$[ebp]
  00042	89 48 04	 mov	 DWORD PTR [eax+4], ecx

; 651  :             _Head->_Right    = _Newnode;

  00045	8b 45 f8	 mov	 eax, DWORD PTR __Head$[ebp]
  00048	8b 4d 10	 mov	 ecx, DWORD PTR __Newnode$[ebp]
  0004b	89 48 08	 mov	 DWORD PTR [eax+8], ecx

; 652  :             _Newnode->_Color = _Black; // the root is black

  0004e	8b 45 10	 mov	 eax, DWORD PTR __Newnode$[ebp]
  00051	c6 40 0c 01	 mov	 BYTE PTR [eax+12], 1

; 653  :             return _Newnode;

  00055	8b 45 10	 mov	 eax, DWORD PTR __Newnode$[ebp]
  00058	e9 a7 01 00 00	 jmp	 $LN18@Insert_nod
$LN5@Insert_nod:

; 654  :         }
; 655  : 
; 656  :         _STL_INTERNAL_CHECK(_Loc._Child != _Tree_child::_Unused);
; 657  :         if (_Loc._Child == _Tree_child::_Right) { // add to right of _Loc._Parent

  0005d	83 7d 0c 00	 cmp	 DWORD PTR __Loc$[ebp+4], 0
  00061	75 1f		 jne	 SHORT $LN6@Insert_nod

; 658  :             _STL_INTERNAL_CHECK(_Loc._Parent->_Right->_Isnil);
; 659  :             _Loc._Parent->_Right = _Newnode;

  00063	8b 45 08	 mov	 eax, DWORD PTR __Loc$[ebp]
  00066	8b 4d 10	 mov	 ecx, DWORD PTR __Newnode$[ebp]
  00069	89 48 08	 mov	 DWORD PTR [eax+8], ecx

; 660  :             if (_Loc._Parent == _Head->_Right) { // remember rightmost node

  0006c	8b 45 f8	 mov	 eax, DWORD PTR __Head$[ebp]
  0006f	8b 4d 08	 mov	 ecx, DWORD PTR __Loc$[ebp]
  00072	3b 48 08	 cmp	 ecx, DWORD PTR [eax+8]
  00075	75 09		 jne	 SHORT $LN8@Insert_nod

; 661  :                 _Head->_Right = _Newnode;

  00077	8b 45 f8	 mov	 eax, DWORD PTR __Head$[ebp]
  0007a	8b 4d 10	 mov	 ecx, DWORD PTR __Newnode$[ebp]
  0007d	89 48 08	 mov	 DWORD PTR [eax+8], ecx
$LN8@Insert_nod:

; 662  :             }
; 663  :         } else { // add to left of _Loc._Parent

  00080	eb 1a		 jmp	 SHORT $LN7@Insert_nod
$LN6@Insert_nod:

; 664  :             _STL_INTERNAL_CHECK(_Loc._Parent->_Left->_Isnil);
; 665  :             _Loc._Parent->_Left = _Newnode;

  00082	8b 45 08	 mov	 eax, DWORD PTR __Loc$[ebp]
  00085	8b 4d 10	 mov	 ecx, DWORD PTR __Newnode$[ebp]
  00088	89 08		 mov	 DWORD PTR [eax], ecx

; 666  :             if (_Loc._Parent == _Head->_Left) { // remember leftmost node

  0008a	8b 45 f8	 mov	 eax, DWORD PTR __Head$[ebp]
  0008d	8b 4d 08	 mov	 ecx, DWORD PTR __Loc$[ebp]
  00090	3b 08		 cmp	 ecx, DWORD PTR [eax]
  00092	75 08		 jne	 SHORT $LN7@Insert_nod

; 667  :                 _Head->_Left = _Newnode;

  00094	8b 45 f8	 mov	 eax, DWORD PTR __Head$[ebp]
  00097	8b 4d 10	 mov	 ecx, DWORD PTR __Newnode$[ebp]
  0009a	89 08		 mov	 DWORD PTR [eax], ecx
$LN7@Insert_nod:

; 668  :             }
; 669  :         }
; 670  : 
; 671  :         for (_Nodeptr _Pnode = _Newnode; _Pnode->_Parent->_Color == _Red;) {

  0009c	8b 45 10	 mov	 eax, DWORD PTR __Newnode$[ebp]
  0009f	89 45 f4	 mov	 DWORD PTR __Pnode$3[ebp], eax
$LN4@Insert_nod:
  000a2	8b 45 f4	 mov	 eax, DWORD PTR __Pnode$3[ebp]
  000a5	8b 48 04	 mov	 ecx, DWORD PTR [eax+4]
  000a8	0f be 51 0c	 movsx	 edx, BYTE PTR [ecx+12]
  000ac	85 d2		 test	 edx, edx
  000ae	0f 85 43 01 00
	00		 jne	 $LN3@Insert_nod

; 672  :             if (_Pnode->_Parent == _Pnode->_Parent->_Parent->_Left) { // fixup red-red in left subtree

  000b4	8b 45 f4	 mov	 eax, DWORD PTR __Pnode$3[ebp]
  000b7	8b 48 04	 mov	 ecx, DWORD PTR [eax+4]
  000ba	8b 51 04	 mov	 edx, DWORD PTR [ecx+4]
  000bd	8b 45 f4	 mov	 eax, DWORD PTR __Pnode$3[ebp]
  000c0	8b 48 04	 mov	 ecx, DWORD PTR [eax+4]
  000c3	3b 0a		 cmp	 ecx, DWORD PTR [edx]
  000c5	0f 85 97 00 00
	00		 jne	 $LN10@Insert_nod

; 673  :                 const auto _Parent_sibling = _Pnode->_Parent->_Parent->_Right;

  000cb	8b 45 f4	 mov	 eax, DWORD PTR __Pnode$3[ebp]
  000ce	8b 48 04	 mov	 ecx, DWORD PTR [eax+4]
  000d1	8b 51 04	 mov	 edx, DWORD PTR [ecx+4]
  000d4	8b 42 08	 mov	 eax, DWORD PTR [edx+8]
  000d7	89 45 f0	 mov	 DWORD PTR __Parent_sibling$2[ebp], eax

; 674  :                 if (_Parent_sibling->_Color == _Red) { // parent's sibling has two red children, blacken both

  000da	8b 45 f0	 mov	 eax, DWORD PTR __Parent_sibling$2[ebp]
  000dd	0f be 48 0c	 movsx	 ecx, BYTE PTR [eax+12]
  000e1	85 c9		 test	 ecx, ecx
  000e3	75 2c		 jne	 SHORT $LN12@Insert_nod

; 675  :                     _Pnode->_Parent->_Color          = _Black;

  000e5	8b 45 f4	 mov	 eax, DWORD PTR __Pnode$3[ebp]
  000e8	8b 48 04	 mov	 ecx, DWORD PTR [eax+4]
  000eb	c6 41 0c 01	 mov	 BYTE PTR [ecx+12], 1

; 676  :                     _Parent_sibling->_Color          = _Black;

  000ef	8b 45 f0	 mov	 eax, DWORD PTR __Parent_sibling$2[ebp]
  000f2	c6 40 0c 01	 mov	 BYTE PTR [eax+12], 1

; 677  :                     _Pnode->_Parent->_Parent->_Color = _Red;

  000f6	8b 45 f4	 mov	 eax, DWORD PTR __Pnode$3[ebp]
  000f9	8b 48 04	 mov	 ecx, DWORD PTR [eax+4]
  000fc	8b 51 04	 mov	 edx, DWORD PTR [ecx+4]
  000ff	c6 42 0c 00	 mov	 BYTE PTR [edx+12], 0

; 678  :                     _Pnode                           = _Pnode->_Parent->_Parent;

  00103	8b 45 f4	 mov	 eax, DWORD PTR __Pnode$3[ebp]
  00106	8b 48 04	 mov	 ecx, DWORD PTR [eax+4]
  00109	8b 51 04	 mov	 edx, DWORD PTR [ecx+4]
  0010c	89 55 f4	 mov	 DWORD PTR __Pnode$3[ebp], edx

; 679  :                 } else { // parent's sibling has red and black children

  0010f	eb 4c		 jmp	 SHORT $LN13@Insert_nod
$LN12@Insert_nod:

; 680  :                     if (_Pnode == _Pnode->_Parent->_Right) { // rotate right child to left

  00111	8b 45 f4	 mov	 eax, DWORD PTR __Pnode$3[ebp]
  00114	8b 48 04	 mov	 ecx, DWORD PTR [eax+4]
  00117	8b 55 f4	 mov	 edx, DWORD PTR __Pnode$3[ebp]
  0011a	3b 51 08	 cmp	 edx, DWORD PTR [ecx+8]
  0011d	75 15		 jne	 SHORT $LN14@Insert_nod

; 681  :                         _Pnode = _Pnode->_Parent;

  0011f	8b 45 f4	 mov	 eax, DWORD PTR __Pnode$3[ebp]
  00122	8b 48 04	 mov	 ecx, DWORD PTR [eax+4]
  00125	89 4d f4	 mov	 DWORD PTR __Pnode$3[ebp], ecx

; 682  :                         _Lrotate(_Pnode);

  00128	8b 45 f4	 mov	 eax, DWORD PTR __Pnode$3[ebp]
  0012b	50		 push	 eax
  0012c	8b 4d fc	 mov	 ecx, DWORD PTR _this$[ebp]
  0012f	e8 00 00 00 00	 call	 ?_Lrotate@?$_Tree_val@U?$_Tree_simple_types@U?$pair@$$CBHU_MONSTER_HERD_DATA@@@std@@@std@@@std@@QAEXPAU?$_Tree_node@U?$pair@$$CBHU_MONSTER_HERD_DATA@@@std@@PAX@2@@Z ; std::_Tree_val<std::_Tree_simple_types<std::pair<int const ,_MONSTER_HERD_DATA> > >::_Lrotate
$LN14@Insert_nod:

; 683  :                     }
; 684  : 
; 685  :                     _Pnode->_Parent->_Color          = _Black; // propagate red up

  00134	8b 45 f4	 mov	 eax, DWORD PTR __Pnode$3[ebp]
  00137	8b 48 04	 mov	 ecx, DWORD PTR [eax+4]
  0013a	c6 41 0c 01	 mov	 BYTE PTR [ecx+12], 1

; 686  :                     _Pnode->_Parent->_Parent->_Color = _Red;

  0013e	8b 45 f4	 mov	 eax, DWORD PTR __Pnode$3[ebp]
  00141	8b 48 04	 mov	 ecx, DWORD PTR [eax+4]
  00144	8b 51 04	 mov	 edx, DWORD PTR [ecx+4]
  00147	c6 42 0c 00	 mov	 BYTE PTR [edx+12], 0

; 687  :                     _Rrotate(_Pnode->_Parent->_Parent);

  0014b	8b 45 f4	 mov	 eax, DWORD PTR __Pnode$3[ebp]
  0014e	8b 48 04	 mov	 ecx, DWORD PTR [eax+4]
  00151	8b 51 04	 mov	 edx, DWORD PTR [ecx+4]
  00154	52		 push	 edx
  00155	8b 4d fc	 mov	 ecx, DWORD PTR _this$[ebp]
  00158	e8 00 00 00 00	 call	 ?_Rrotate@?$_Tree_val@U?$_Tree_simple_types@U?$pair@$$CBHU_MONSTER_HERD_DATA@@@std@@@std@@@std@@QAEXPAU?$_Tree_node@U?$pair@$$CBHU_MONSTER_HERD_DATA@@@std@@PAX@2@@Z ; std::_Tree_val<std::_Tree_simple_types<std::pair<int const ,_MONSTER_HERD_DATA> > >::_Rrotate
$LN13@Insert_nod:

; 688  :                 }
; 689  :             } else { // fixup red-red in right subtree

  0015d	e9 90 00 00 00	 jmp	 $LN11@Insert_nod
$LN10@Insert_nod:

; 690  :                 const auto _Parent_sibling = _Pnode->_Parent->_Parent->_Left;

  00162	8b 45 f4	 mov	 eax, DWORD PTR __Pnode$3[ebp]
  00165	8b 48 04	 mov	 ecx, DWORD PTR [eax+4]
  00168	8b 51 04	 mov	 edx, DWORD PTR [ecx+4]
  0016b	8b 02		 mov	 eax, DWORD PTR [edx]
  0016d	89 45 ec	 mov	 DWORD PTR __Parent_sibling$1[ebp], eax

; 691  :                 if (_Parent_sibling->_Color == _Red) { // parent's sibling has two red children, blacken both

  00170	8b 45 ec	 mov	 eax, DWORD PTR __Parent_sibling$1[ebp]
  00173	0f be 48 0c	 movsx	 ecx, BYTE PTR [eax+12]
  00177	85 c9		 test	 ecx, ecx
  00179	75 2c		 jne	 SHORT $LN15@Insert_nod

; 692  :                     _Pnode->_Parent->_Color          = _Black;

  0017b	8b 45 f4	 mov	 eax, DWORD PTR __Pnode$3[ebp]
  0017e	8b 48 04	 mov	 ecx, DWORD PTR [eax+4]
  00181	c6 41 0c 01	 mov	 BYTE PTR [ecx+12], 1

; 693  :                     _Parent_sibling->_Color          = _Black;

  00185	8b 45 ec	 mov	 eax, DWORD PTR __Parent_sibling$1[ebp]
  00188	c6 40 0c 01	 mov	 BYTE PTR [eax+12], 1

; 694  :                     _Pnode->_Parent->_Parent->_Color = _Red;

  0018c	8b 45 f4	 mov	 eax, DWORD PTR __Pnode$3[ebp]
  0018f	8b 48 04	 mov	 ecx, DWORD PTR [eax+4]
  00192	8b 51 04	 mov	 edx, DWORD PTR [ecx+4]
  00195	c6 42 0c 00	 mov	 BYTE PTR [edx+12], 0

; 695  :                     _Pnode                           = _Pnode->_Parent->_Parent;

  00199	8b 45 f4	 mov	 eax, DWORD PTR __Pnode$3[ebp]
  0019c	8b 48 04	 mov	 ecx, DWORD PTR [eax+4]
  0019f	8b 51 04	 mov	 edx, DWORD PTR [ecx+4]
  001a2	89 55 f4	 mov	 DWORD PTR __Pnode$3[ebp], edx

; 696  :                 } else { // parent's sibling has red and black children

  001a5	eb 4b		 jmp	 SHORT $LN11@Insert_nod
$LN15@Insert_nod:

; 697  :                     if (_Pnode == _Pnode->_Parent->_Left) { // rotate left child to right

  001a7	8b 45 f4	 mov	 eax, DWORD PTR __Pnode$3[ebp]
  001aa	8b 48 04	 mov	 ecx, DWORD PTR [eax+4]
  001ad	8b 55 f4	 mov	 edx, DWORD PTR __Pnode$3[ebp]
  001b0	3b 11		 cmp	 edx, DWORD PTR [ecx]
  001b2	75 15		 jne	 SHORT $LN17@Insert_nod

; 698  :                         _Pnode = _Pnode->_Parent;

  001b4	8b 45 f4	 mov	 eax, DWORD PTR __Pnode$3[ebp]
  001b7	8b 48 04	 mov	 ecx, DWORD PTR [eax+4]
  001ba	89 4d f4	 mov	 DWORD PTR __Pnode$3[ebp], ecx

; 699  :                         _Rrotate(_Pnode);

  001bd	8b 45 f4	 mov	 eax, DWORD PTR __Pnode$3[ebp]
  001c0	50		 push	 eax
  001c1	8b 4d fc	 mov	 ecx, DWORD PTR _this$[ebp]
  001c4	e8 00 00 00 00	 call	 ?_Rrotate@?$_Tree_val@U?$_Tree_simple_types@U?$pair@$$CBHU_MONSTER_HERD_DATA@@@std@@@std@@@std@@QAEXPAU?$_Tree_node@U?$pair@$$CBHU_MONSTER_HERD_DATA@@@std@@PAX@2@@Z ; std::_Tree_val<std::_Tree_simple_types<std::pair<int const ,_MONSTER_HERD_DATA> > >::_Rrotate
$LN17@Insert_nod:

; 700  :                     }
; 701  : 
; 702  :                     _Pnode->_Parent->_Color          = _Black; // propagate red up

  001c9	8b 45 f4	 mov	 eax, DWORD PTR __Pnode$3[ebp]
  001cc	8b 48 04	 mov	 ecx, DWORD PTR [eax+4]
  001cf	c6 41 0c 01	 mov	 BYTE PTR [ecx+12], 1

; 703  :                     _Pnode->_Parent->_Parent->_Color = _Red;

  001d3	8b 45 f4	 mov	 eax, DWORD PTR __Pnode$3[ebp]
  001d6	8b 48 04	 mov	 ecx, DWORD PTR [eax+4]
  001d9	8b 51 04	 mov	 edx, DWORD PTR [ecx+4]
  001dc	c6 42 0c 00	 mov	 BYTE PTR [edx+12], 0

; 704  :                     _Lrotate(_Pnode->_Parent->_Parent);

  001e0	8b 45 f4	 mov	 eax, DWORD PTR __Pnode$3[ebp]
  001e3	8b 48 04	 mov	 ecx, DWORD PTR [eax+4]
  001e6	8b 51 04	 mov	 edx, DWORD PTR [ecx+4]
  001e9	52		 push	 edx
  001ea	8b 4d fc	 mov	 ecx, DWORD PTR _this$[ebp]
  001ed	e8 00 00 00 00	 call	 ?_Lrotate@?$_Tree_val@U?$_Tree_simple_types@U?$pair@$$CBHU_MONSTER_HERD_DATA@@@std@@@std@@@std@@QAEXPAU?$_Tree_node@U?$pair@$$CBHU_MONSTER_HERD_DATA@@@std@@PAX@2@@Z ; std::_Tree_val<std::_Tree_simple_types<std::pair<int const ,_MONSTER_HERD_DATA> > >::_Lrotate
$LN11@Insert_nod:

; 705  :                 }
; 706  :             }
; 707  :         }

  001f2	e9 ab fe ff ff	 jmp	 $LN4@Insert_nod
$LN3@Insert_nod:

; 708  : 
; 709  :         _Head->_Parent->_Color = _Black; // root is always black

  001f7	8b 45 f8	 mov	 eax, DWORD PTR __Head$[ebp]
  001fa	8b 48 04	 mov	 ecx, DWORD PTR [eax+4]
  001fd	c6 41 0c 01	 mov	 BYTE PTR [ecx+12], 1

; 710  :         return _Newnode;

  00201	8b 45 10	 mov	 eax, DWORD PTR __Newnode$[ebp]
$LN18@Insert_nod:

; 711  :     }

  00204	5f		 pop	 edi
  00205	5e		 pop	 esi
  00206	5b		 pop	 ebx
  00207	8b e5		 mov	 esp, ebp
  00209	5d		 pop	 ebp
  0020a	c2 0c 00	 ret	 12			; 0000000cH
?_Insert_node@?$_Tree_val@U?$_Tree_simple_types@U?$pair@$$CBHU_MONSTER_HERD_DATA@@@std@@@std@@@std@@QAEPAU?$_Tree_node@U?$pair@$$CBHU_MONSTER_HERD_DATA@@@std@@PAX@2@U?$_Tree_id@PAU?$_Tree_node@U?$pair@$$CBHU_MONSTER_HERD_DATA@@@std@@PAX@std@@@2@QAU32@@Z ENDP ; std::_Tree_val<std::_Tree_simple_types<std::pair<int const ,_MONSTER_HERD_DATA> > >::_Insert_node
_TEXT	ENDS
; Function compile flags: /Odtp /ZI
; File C:\Program Files (x86)\Microsoft Visual Studio\2019\Community\VC\Tools\MSVC\14.27.29110\include\xtree
;	COMDAT ?_Extract@?$_Tree_val@U?$_Tree_simple_types@U?$pair@$$CBHU_MONSTER_HERD_DATA@@@std@@@std@@@std@@QAEPAU?$_Tree_node@U?$pair@$$CBHU_MONSTER_HERD_DATA@@@std@@PAX@2@V?$_Tree_unchecked_const_iterator@V?$_Tree_val@U?$_Tree_simple_types@U?$pair@$$CBHU_MONSTER_HERD_DATA@@@std@@@std@@@std@@U_Iterator_base0@2@@2@@Z
_TEXT	SEGMENT
tv144 = -100						; size = 4
tv133 = -100						; size = 4
__Pnode$ = -32						; size = 4
__Fixnodeparent$ = -28					; size = 4
__Fixnode$ = -24					; size = 4
__Erasednode$ = -20					; size = 4
_this$ = -16						; size = 4
__$EHRec$ = -12						; size = 12
__Where$ = 8						; size = 4
?_Extract@?$_Tree_val@U?$_Tree_simple_types@U?$pair@$$CBHU_MONSTER_HERD_DATA@@@std@@@std@@@std@@QAEPAU?$_Tree_node@U?$pair@$$CBHU_MONSTER_HERD_DATA@@@std@@PAX@2@V?$_Tree_unchecked_const_iterator@V?$_Tree_val@U?$_Tree_simple_types@U?$pair@$$CBHU_MONSTER_HERD_DATA@@@std@@@std@@@std@@U_Iterator_base0@2@@2@@Z PROC ; std::_Tree_val<std::_Tree_simple_types<std::pair<int const ,_MONSTER_HERD_DATA> > >::_Extract, COMDAT
; _this$ = ecx

; 502  :     _Nodeptr _Extract(_Unchecked_const_iterator _Where) noexcept {

  00000	55		 push	 ebp
  00001	8b ec		 mov	 ebp, esp
  00003	6a ff		 push	 -1
  00005	68 00 00 00 00	 push	 __ehhandler$?_Extract@?$_Tree_val@U?$_Tree_simple_types@U?$pair@$$CBHU_MONSTER_HERD_DATA@@@std@@@std@@@std@@QAEPAU?$_Tree_node@U?$pair@$$CBHU_MONSTER_HERD_DATA@@@std@@PAX@2@V?$_Tree_unchecked_const_iterator@V?$_Tree_val@U?$_Tree_simple_types@U?$pair@$$CBHU_MONSTER_HERD_DATA@@@std@@@std@@@std@@U_Iterator_base0@2@@2@@Z
  0000a	64 a1 00 00 00
	00		 mov	 eax, DWORD PTR fs:0
  00010	50		 push	 eax
  00011	83 ec 58	 sub	 esp, 88			; 00000058H
  00014	53		 push	 ebx
  00015	56		 push	 esi
  00016	57		 push	 edi
  00017	a1 00 00 00 00	 mov	 eax, DWORD PTR ___security_cookie
  0001c	33 c5		 xor	 eax, ebp
  0001e	50		 push	 eax
  0001f	8d 45 f4	 lea	 eax, DWORD PTR __$EHRec$[ebp]
  00022	64 a3 00 00 00
	00		 mov	 DWORD PTR fs:0, eax
  00028	89 4d f0	 mov	 DWORD PTR _this$[ebp], ecx

; 503  :         _Nodeptr _Erasednode = _Where._Ptr; // node to erase

  0002b	8b 45 08	 mov	 eax, DWORD PTR __Where$[ebp]
  0002e	89 45 ec	 mov	 DWORD PTR __Erasednode$[ebp], eax

; 504  :         ++_Where; // save successor iterator for return

  00031	8d 4d 08	 lea	 ecx, DWORD PTR __Where$[ebp]
  00034	e8 00 00 00 00	 call	 ??E?$_Tree_unchecked_const_iterator@V?$_Tree_val@U?$_Tree_simple_types@U?$pair@$$CBHU_MONSTER_HERD_DATA@@@std@@@std@@@std@@U_Iterator_base0@2@@std@@QAEAAV01@XZ ; std::_Tree_unchecked_const_iterator<std::_Tree_val<std::_Tree_simple_types<std::pair<int const ,_MONSTER_HERD_DATA> > >,std::_Iterator_base0>::operator++

; 505  : 
; 506  :         _Nodeptr _Fixnode; // the node to recolor as needed
; 507  :         _Nodeptr _Fixnodeparent; // parent of _Fixnode (which may be nil)
; 508  :         _Nodeptr _Pnode = _Erasednode;

  00039	8b 45 ec	 mov	 eax, DWORD PTR __Erasednode$[ebp]
  0003c	89 45 e0	 mov	 DWORD PTR __Pnode$[ebp], eax

; 509  : 
; 510  :         if (_Pnode->_Left->_Isnil) {

  0003f	8b 45 e0	 mov	 eax, DWORD PTR __Pnode$[ebp]
  00042	8b 08		 mov	 ecx, DWORD PTR [eax]
  00044	0f be 51 0d	 movsx	 edx, BYTE PTR [ecx+13]
  00048	85 d2		 test	 edx, edx
  0004a	74 0b		 je	 SHORT $LN5@Extract

; 511  :             _Fixnode = _Pnode->_Right; // stitch up right subtree

  0004c	8b 45 e0	 mov	 eax, DWORD PTR __Pnode$[ebp]
  0004f	8b 48 08	 mov	 ecx, DWORD PTR [eax+8]
  00052	89 4d e8	 mov	 DWORD PTR __Fixnode$[ebp], ecx
  00055	eb 27		 jmp	 SHORT $LN6@Extract
$LN5@Extract:

; 512  :         } else if (_Pnode->_Right->_Isnil) {

  00057	8b 45 e0	 mov	 eax, DWORD PTR __Pnode$[ebp]
  0005a	8b 48 08	 mov	 ecx, DWORD PTR [eax+8]
  0005d	0f be 51 0d	 movsx	 edx, BYTE PTR [ecx+13]
  00061	85 d2		 test	 edx, edx
  00063	74 0a		 je	 SHORT $LN7@Extract

; 513  :             _Fixnode = _Pnode->_Left; // stitch up left subtree

  00065	8b 45 e0	 mov	 eax, DWORD PTR __Pnode$[ebp]
  00068	8b 08		 mov	 ecx, DWORD PTR [eax]
  0006a	89 4d e8	 mov	 DWORD PTR __Fixnode$[ebp], ecx

; 514  :         } else { // two subtrees, must lift successor node to replace erased

  0006d	eb 0f		 jmp	 SHORT $LN6@Extract
$LN7@Extract:

; 515  :             _Pnode   = _Where._Ptr; // _Pnode is successor node

  0006f	8b 45 08	 mov	 eax, DWORD PTR __Where$[ebp]
  00072	89 45 e0	 mov	 DWORD PTR __Pnode$[ebp], eax

; 516  :             _Fixnode = _Pnode->_Right; // _Fixnode is only subtree

  00075	8b 45 e0	 mov	 eax, DWORD PTR __Pnode$[ebp]
  00078	8b 48 08	 mov	 ecx, DWORD PTR [eax+8]
  0007b	89 4d e8	 mov	 DWORD PTR __Fixnode$[ebp], ecx
$LN6@Extract:

; 517  :         }
; 518  : 
; 519  :         if (_Pnode == _Erasednode) { // at most one subtree, relink it

  0007e	8b 45 e0	 mov	 eax, DWORD PTR __Pnode$[ebp]
  00081	3b 45 ec	 cmp	 eax, DWORD PTR __Erasednode$[ebp]
  00084	0f 85 cb 00 00
	00		 jne	 $LN9@Extract

; 520  :             _Fixnodeparent = _Erasednode->_Parent;

  0008a	8b 45 ec	 mov	 eax, DWORD PTR __Erasednode$[ebp]
  0008d	8b 48 04	 mov	 ecx, DWORD PTR [eax+4]
  00090	89 4d e4	 mov	 DWORD PTR __Fixnodeparent$[ebp], ecx

; 521  :             if (!_Fixnode->_Isnil) {

  00093	8b 45 e8	 mov	 eax, DWORD PTR __Fixnode$[ebp]
  00096	0f be 48 0d	 movsx	 ecx, BYTE PTR [eax+13]
  0009a	85 c9		 test	 ecx, ecx
  0009c	75 09		 jne	 SHORT $LN11@Extract

; 522  :                 _Fixnode->_Parent = _Fixnodeparent; // link up

  0009e	8b 45 e8	 mov	 eax, DWORD PTR __Fixnode$[ebp]
  000a1	8b 4d e4	 mov	 ecx, DWORD PTR __Fixnodeparent$[ebp]
  000a4	89 48 04	 mov	 DWORD PTR [eax+4], ecx
$LN11@Extract:

; 523  :             }
; 524  : 
; 525  :             if (_Myhead->_Parent == _Erasednode) {

  000a7	8b 45 f0	 mov	 eax, DWORD PTR _this$[ebp]
  000aa	8b 08		 mov	 ecx, DWORD PTR [eax]
  000ac	8b 51 04	 mov	 edx, DWORD PTR [ecx+4]
  000af	3b 55 ec	 cmp	 edx, DWORD PTR __Erasednode$[ebp]
  000b2	75 0d		 jne	 SHORT $LN12@Extract

; 526  :                 _Myhead->_Parent = _Fixnode; // link down from root

  000b4	8b 45 f0	 mov	 eax, DWORD PTR _this$[ebp]
  000b7	8b 08		 mov	 ecx, DWORD PTR [eax]
  000b9	8b 55 e8	 mov	 edx, DWORD PTR __Fixnode$[ebp]
  000bc	89 51 04	 mov	 DWORD PTR [ecx+4], edx
  000bf	eb 1d		 jmp	 SHORT $LN13@Extract
$LN12@Extract:

; 527  :             } else if (_Fixnodeparent->_Left == _Erasednode) {

  000c1	8b 45 e4	 mov	 eax, DWORD PTR __Fixnodeparent$[ebp]
  000c4	8b 08		 mov	 ecx, DWORD PTR [eax]
  000c6	3b 4d ec	 cmp	 ecx, DWORD PTR __Erasednode$[ebp]
  000c9	75 0a		 jne	 SHORT $LN14@Extract

; 528  :                 _Fixnodeparent->_Left = _Fixnode; // link down to left

  000cb	8b 45 e4	 mov	 eax, DWORD PTR __Fixnodeparent$[ebp]
  000ce	8b 4d e8	 mov	 ecx, DWORD PTR __Fixnode$[ebp]
  000d1	89 08		 mov	 DWORD PTR [eax], ecx

; 529  :             } else {

  000d3	eb 09		 jmp	 SHORT $LN13@Extract
$LN14@Extract:

; 530  :                 _Fixnodeparent->_Right = _Fixnode; // link down to right

  000d5	8b 45 e4	 mov	 eax, DWORD PTR __Fixnodeparent$[ebp]
  000d8	8b 4d e8	 mov	 ecx, DWORD PTR __Fixnode$[ebp]
  000db	89 48 08	 mov	 DWORD PTR [eax+8], ecx
$LN13@Extract:

; 531  :             }
; 532  : 
; 533  :             if (_Myhead->_Left == _Erasednode) {

  000de	8b 45 f0	 mov	 eax, DWORD PTR _this$[ebp]
  000e1	8b 08		 mov	 ecx, DWORD PTR [eax]
  000e3	8b 11		 mov	 edx, DWORD PTR [ecx]
  000e5	3b 55 ec	 cmp	 edx, DWORD PTR __Erasednode$[ebp]
  000e8	75 2c		 jne	 SHORT $LN16@Extract

; 534  :                 _Myhead->_Left = _Fixnode->_Isnil ? _Fixnodeparent // smallest is parent of erased node

  000ea	8b 45 e8	 mov	 eax, DWORD PTR __Fixnode$[ebp]
  000ed	0f be 48 0d	 movsx	 ecx, BYTE PTR [eax+13]
  000f1	85 c9		 test	 ecx, ecx
  000f3	74 08		 je	 SHORT $LN42@Extract
  000f5	8b 55 e4	 mov	 edx, DWORD PTR __Fixnodeparent$[ebp]
  000f8	89 55 9c	 mov	 DWORD PTR tv133[ebp], edx
  000fb	eb 0f		 jmp	 SHORT $LN43@Extract
$LN42@Extract:
  000fd	8b 45 e8	 mov	 eax, DWORD PTR __Fixnode$[ebp]
  00100	50		 push	 eax
  00101	e8 00 00 00 00	 call	 ?_Min@?$_Tree_val@U?$_Tree_simple_types@U?$pair@$$CBHU_MONSTER_HERD_DATA@@@std@@@std@@@std@@SAPAU?$_Tree_node@U?$pair@$$CBHU_MONSTER_HERD_DATA@@@std@@PAX@2@PAU32@@Z ; std::_Tree_val<std::_Tree_simple_types<std::pair<int const ,_MONSTER_HERD_DATA> > >::_Min
  00106	83 c4 04	 add	 esp, 4
  00109	89 45 9c	 mov	 DWORD PTR tv133[ebp], eax
$LN43@Extract:
  0010c	8b 4d f0	 mov	 ecx, DWORD PTR _this$[ebp]
  0010f	8b 11		 mov	 edx, DWORD PTR [ecx]
  00111	8b 45 9c	 mov	 eax, DWORD PTR tv133[ebp]
  00114	89 02		 mov	 DWORD PTR [edx], eax
$LN16@Extract:

; 535  :                                                   : _Min(_Fixnode); // smallest in relinked subtree
; 536  :             }
; 537  : 
; 538  :             if (_Myhead->_Right == _Erasednode) {

  00116	8b 45 f0	 mov	 eax, DWORD PTR _this$[ebp]
  00119	8b 08		 mov	 ecx, DWORD PTR [eax]
  0011b	8b 51 08	 mov	 edx, DWORD PTR [ecx+8]
  0011e	3b 55 ec	 cmp	 edx, DWORD PTR __Erasednode$[ebp]
  00121	75 2d		 jne	 SHORT $LN17@Extract

; 539  :                 _Myhead->_Right = _Fixnode->_Isnil ? _Fixnodeparent // largest is parent of erased node

  00123	8b 45 e8	 mov	 eax, DWORD PTR __Fixnode$[ebp]
  00126	0f be 48 0d	 movsx	 ecx, BYTE PTR [eax+13]
  0012a	85 c9		 test	 ecx, ecx
  0012c	74 08		 je	 SHORT $LN44@Extract
  0012e	8b 55 e4	 mov	 edx, DWORD PTR __Fixnodeparent$[ebp]
  00131	89 55 9c	 mov	 DWORD PTR tv144[ebp], edx
  00134	eb 0f		 jmp	 SHORT $LN45@Extract
$LN44@Extract:
  00136	8b 45 e8	 mov	 eax, DWORD PTR __Fixnode$[ebp]
  00139	50		 push	 eax
  0013a	e8 00 00 00 00	 call	 ?_Max@?$_Tree_val@U?$_Tree_simple_types@U?$pair@$$CBHU_MONSTER_HERD_DATA@@@std@@@std@@@std@@SAPAU?$_Tree_node@U?$pair@$$CBHU_MONSTER_HERD_DATA@@@std@@PAX@2@PAU32@@Z ; std::_Tree_val<std::_Tree_simple_types<std::pair<int const ,_MONSTER_HERD_DATA> > >::_Max
  0013f	83 c4 04	 add	 esp, 4
  00142	89 45 9c	 mov	 DWORD PTR tv144[ebp], eax
$LN45@Extract:
  00145	8b 4d f0	 mov	 ecx, DWORD PTR _this$[ebp]
  00148	8b 11		 mov	 edx, DWORD PTR [ecx]
  0014a	8b 45 9c	 mov	 eax, DWORD PTR tv144[ebp]
  0014d	89 42 08	 mov	 DWORD PTR [edx+8], eax
$LN17@Extract:

; 540  :                                                    : _Max(_Fixnode); // largest in relinked subtree
; 541  :             }
; 542  :         } else { // erased has two subtrees, _Pnode is successor to erased

  00150	e9 c7 00 00 00	 jmp	 $LN10@Extract
$LN9@Extract:

; 543  :             _Erasednode->_Left->_Parent = _Pnode; // link left up

  00155	8b 45 ec	 mov	 eax, DWORD PTR __Erasednode$[ebp]
  00158	8b 08		 mov	 ecx, DWORD PTR [eax]
  0015a	8b 55 e0	 mov	 edx, DWORD PTR __Pnode$[ebp]
  0015d	89 51 04	 mov	 DWORD PTR [ecx+4], edx

; 544  :             _Pnode->_Left               = _Erasednode->_Left; // link successor down

  00160	8b 45 e0	 mov	 eax, DWORD PTR __Pnode$[ebp]
  00163	8b 4d ec	 mov	 ecx, DWORD PTR __Erasednode$[ebp]
  00166	8b 11		 mov	 edx, DWORD PTR [ecx]
  00168	89 10		 mov	 DWORD PTR [eax], edx

; 545  : 
; 546  :             if (_Pnode == _Erasednode->_Right) {

  0016a	8b 45 ec	 mov	 eax, DWORD PTR __Erasednode$[ebp]
  0016d	8b 4d e0	 mov	 ecx, DWORD PTR __Pnode$[ebp]
  00170	3b 48 08	 cmp	 ecx, DWORD PTR [eax+8]
  00173	75 08		 jne	 SHORT $LN18@Extract

; 547  :                 _Fixnodeparent = _Pnode; // successor is next to erased

  00175	8b 45 e0	 mov	 eax, DWORD PTR __Pnode$[ebp]
  00178	89 45 e4	 mov	 DWORD PTR __Fixnodeparent$[ebp], eax

; 548  :             } else { // successor further down, link in place of erased

  0017b	eb 3d		 jmp	 SHORT $LN19@Extract
$LN18@Extract:

; 549  :                 _Fixnodeparent = _Pnode->_Parent; // parent is successor's

  0017d	8b 45 e0	 mov	 eax, DWORD PTR __Pnode$[ebp]
  00180	8b 48 04	 mov	 ecx, DWORD PTR [eax+4]
  00183	89 4d e4	 mov	 DWORD PTR __Fixnodeparent$[ebp], ecx

; 550  :                 if (!_Fixnode->_Isnil) {

  00186	8b 45 e8	 mov	 eax, DWORD PTR __Fixnode$[ebp]
  00189	0f be 48 0d	 movsx	 ecx, BYTE PTR [eax+13]
  0018d	85 c9		 test	 ecx, ecx
  0018f	75 09		 jne	 SHORT $LN20@Extract

; 551  :                     _Fixnode->_Parent = _Fixnodeparent; // link fix up

  00191	8b 45 e8	 mov	 eax, DWORD PTR __Fixnode$[ebp]
  00194	8b 4d e4	 mov	 ecx, DWORD PTR __Fixnodeparent$[ebp]
  00197	89 48 04	 mov	 DWORD PTR [eax+4], ecx
$LN20@Extract:

; 552  :                 }
; 553  : 
; 554  :                 _Fixnodeparent->_Left        = _Fixnode; // link fix down

  0019a	8b 45 e4	 mov	 eax, DWORD PTR __Fixnodeparent$[ebp]
  0019d	8b 4d e8	 mov	 ecx, DWORD PTR __Fixnode$[ebp]
  001a0	89 08		 mov	 DWORD PTR [eax], ecx

; 555  :                 _Pnode->_Right               = _Erasednode->_Right; // link next down

  001a2	8b 45 e0	 mov	 eax, DWORD PTR __Pnode$[ebp]
  001a5	8b 4d ec	 mov	 ecx, DWORD PTR __Erasednode$[ebp]
  001a8	8b 51 08	 mov	 edx, DWORD PTR [ecx+8]
  001ab	89 50 08	 mov	 DWORD PTR [eax+8], edx

; 556  :                 _Erasednode->_Right->_Parent = _Pnode; // right up

  001ae	8b 45 ec	 mov	 eax, DWORD PTR __Erasednode$[ebp]
  001b1	8b 48 08	 mov	 ecx, DWORD PTR [eax+8]
  001b4	8b 55 e0	 mov	 edx, DWORD PTR __Pnode$[ebp]
  001b7	89 51 04	 mov	 DWORD PTR [ecx+4], edx
$LN19@Extract:

; 557  :             }
; 558  : 
; 559  :             if (_Myhead->_Parent == _Erasednode) {

  001ba	8b 45 f0	 mov	 eax, DWORD PTR _this$[ebp]
  001bd	8b 08		 mov	 ecx, DWORD PTR [eax]
  001bf	8b 51 04	 mov	 edx, DWORD PTR [ecx+4]
  001c2	3b 55 ec	 cmp	 edx, DWORD PTR __Erasednode$[ebp]
  001c5	75 0d		 jne	 SHORT $LN21@Extract

; 560  :                 _Myhead->_Parent = _Pnode; // link down from root

  001c7	8b 45 f0	 mov	 eax, DWORD PTR _this$[ebp]
  001ca	8b 08		 mov	 ecx, DWORD PTR [eax]
  001cc	8b 55 e0	 mov	 edx, DWORD PTR __Pnode$[ebp]
  001cf	89 51 04	 mov	 DWORD PTR [ecx+4], edx
  001d2	eb 26		 jmp	 SHORT $LN22@Extract
$LN21@Extract:

; 561  :             } else if (_Erasednode->_Parent->_Left == _Erasednode) {

  001d4	8b 45 ec	 mov	 eax, DWORD PTR __Erasednode$[ebp]
  001d7	8b 48 04	 mov	 ecx, DWORD PTR [eax+4]
  001da	8b 11		 mov	 edx, DWORD PTR [ecx]
  001dc	3b 55 ec	 cmp	 edx, DWORD PTR __Erasednode$[ebp]
  001df	75 0d		 jne	 SHORT $LN23@Extract

; 562  :                 _Erasednode->_Parent->_Left = _Pnode; // link down to left

  001e1	8b 45 ec	 mov	 eax, DWORD PTR __Erasednode$[ebp]
  001e4	8b 48 04	 mov	 ecx, DWORD PTR [eax+4]
  001e7	8b 55 e0	 mov	 edx, DWORD PTR __Pnode$[ebp]
  001ea	89 11		 mov	 DWORD PTR [ecx], edx

; 563  :             } else {

  001ec	eb 0c		 jmp	 SHORT $LN22@Extract
$LN23@Extract:

; 564  :                 _Erasednode->_Parent->_Right = _Pnode; // link down to right

  001ee	8b 45 ec	 mov	 eax, DWORD PTR __Erasednode$[ebp]
  001f1	8b 48 04	 mov	 ecx, DWORD PTR [eax+4]
  001f4	8b 55 e0	 mov	 edx, DWORD PTR __Pnode$[ebp]
  001f7	89 51 08	 mov	 DWORD PTR [ecx+8], edx
$LN22@Extract:

; 565  :             }
; 566  : 
; 567  :             _Pnode->_Parent = _Erasednode->_Parent; // link successor up

  001fa	8b 45 e0	 mov	 eax, DWORD PTR __Pnode$[ebp]
  001fd	8b 4d ec	 mov	 ecx, DWORD PTR __Erasednode$[ebp]
  00200	8b 51 04	 mov	 edx, DWORD PTR [ecx+4]
  00203	89 50 04	 mov	 DWORD PTR [eax+4], edx

; 568  :             _STD swap(_Pnode->_Color, _Erasednode->_Color); // recolor it

  00206	8b 45 ec	 mov	 eax, DWORD PTR __Erasednode$[ebp]
  00209	83 c0 0c	 add	 eax, 12			; 0000000cH
  0020c	50		 push	 eax
  0020d	8b 4d e0	 mov	 ecx, DWORD PTR __Pnode$[ebp]
  00210	83 c1 0c	 add	 ecx, 12			; 0000000cH
  00213	51		 push	 ecx
  00214	e8 00 00 00 00	 call	 ??$swap@D$0A@@std@@YAXAAD0@Z ; std::swap<char,0>
  00219	83 c4 08	 add	 esp, 8
$LN10@Extract:

; 569  :         }
; 570  : 
; 571  :         if (_Erasednode->_Color == _Black) { // erasing black link, must recolor/rebalance tree

  0021c	8b 45 ec	 mov	 eax, DWORD PTR __Erasednode$[ebp]
  0021f	0f be 48 0c	 movsx	 ecx, BYTE PTR [eax+12]
  00223	83 f9 01	 cmp	 ecx, 1
  00226	0f 85 fa 01 00
	00		 jne	 $LN25@Extract

; 572  :             for (; _Fixnode != _Myhead->_Parent && _Fixnode->_Color == _Black; _Fixnodeparent = _Fixnode->_Parent) {

  0022c	eb 09		 jmp	 SHORT $LN4@Extract
$LN2@Extract:
  0022e	8b 45 e8	 mov	 eax, DWORD PTR __Fixnode$[ebp]
  00231	8b 48 04	 mov	 ecx, DWORD PTR [eax+4]
  00234	89 4d e4	 mov	 DWORD PTR __Fixnodeparent$[ebp], ecx
$LN4@Extract:
  00237	8b 45 f0	 mov	 eax, DWORD PTR _this$[ebp]
  0023a	8b 08		 mov	 ecx, DWORD PTR [eax]
  0023c	8b 55 e8	 mov	 edx, DWORD PTR __Fixnode$[ebp]
  0023f	3b 51 04	 cmp	 edx, DWORD PTR [ecx+4]
  00242	0f 84 d7 01 00
	00		 je	 $LN3@Extract
  00248	8b 45 e8	 mov	 eax, DWORD PTR __Fixnode$[ebp]
  0024b	0f be 48 0c	 movsx	 ecx, BYTE PTR [eax+12]
  0024f	83 f9 01	 cmp	 ecx, 1
  00252	0f 85 c7 01 00
	00		 jne	 $LN3@Extract

; 573  :                 if (_Fixnode == _Fixnodeparent->_Left) { // fixup left subtree

  00258	8b 45 e4	 mov	 eax, DWORD PTR __Fixnodeparent$[ebp]
  0025b	8b 4d e8	 mov	 ecx, DWORD PTR __Fixnode$[ebp]
  0025e	3b 08		 cmp	 ecx, DWORD PTR [eax]
  00260	0f 85 e0 00 00
	00		 jne	 $LN26@Extract

; 574  :                     _Pnode = _Fixnodeparent->_Right;

  00266	8b 45 e4	 mov	 eax, DWORD PTR __Fixnodeparent$[ebp]
  00269	8b 48 08	 mov	 ecx, DWORD PTR [eax+8]
  0026c	89 4d e0	 mov	 DWORD PTR __Pnode$[ebp], ecx

; 575  :                     if (_Pnode->_Color == _Red) { // rotate red up from right subtree

  0026f	8b 45 e0	 mov	 eax, DWORD PTR __Pnode$[ebp]
  00272	0f be 48 0c	 movsx	 ecx, BYTE PTR [eax+12]
  00276	85 c9		 test	 ecx, ecx
  00278	75 23		 jne	 SHORT $LN28@Extract

; 576  :                         _Pnode->_Color         = _Black;

  0027a	8b 45 e0	 mov	 eax, DWORD PTR __Pnode$[ebp]
  0027d	c6 40 0c 01	 mov	 BYTE PTR [eax+12], 1

; 577  :                         _Fixnodeparent->_Color = _Red;

  00281	8b 45 e4	 mov	 eax, DWORD PTR __Fixnodeparent$[ebp]
  00284	c6 40 0c 00	 mov	 BYTE PTR [eax+12], 0

; 578  :                         _Lrotate(_Fixnodeparent);

  00288	8b 45 e4	 mov	 eax, DWORD PTR __Fixnodeparent$[ebp]
  0028b	50		 push	 eax
  0028c	8b 4d f0	 mov	 ecx, DWORD PTR _this$[ebp]
  0028f	e8 00 00 00 00	 call	 ?_Lrotate@?$_Tree_val@U?$_Tree_simple_types@U?$pair@$$CBHU_MONSTER_HERD_DATA@@@std@@@std@@@std@@QAEXPAU?$_Tree_node@U?$pair@$$CBHU_MONSTER_HERD_DATA@@@std@@PAX@2@@Z ; std::_Tree_val<std::_Tree_simple_types<std::pair<int const ,_MONSTER_HERD_DATA> > >::_Lrotate

; 579  :                         _Pnode = _Fixnodeparent->_Right;

  00294	8b 45 e4	 mov	 eax, DWORD PTR __Fixnodeparent$[ebp]
  00297	8b 48 08	 mov	 ecx, DWORD PTR [eax+8]
  0029a	89 4d e0	 mov	 DWORD PTR __Pnode$[ebp], ecx
$LN28@Extract:

; 580  :                     }
; 581  : 
; 582  :                     if (_Pnode->_Isnil) {

  0029d	8b 45 e0	 mov	 eax, DWORD PTR __Pnode$[ebp]
  002a0	0f be 48 0d	 movsx	 ecx, BYTE PTR [eax+13]
  002a4	85 c9		 test	 ecx, ecx
  002a6	74 0b		 je	 SHORT $LN29@Extract

; 583  :                         _Fixnode = _Fixnodeparent; // shouldn't happen

  002a8	8b 45 e4	 mov	 eax, DWORD PTR __Fixnodeparent$[ebp]
  002ab	89 45 e8	 mov	 DWORD PTR __Fixnode$[ebp], eax

; 584  :                     } else if (_Pnode->_Left->_Color == _Black

  002ae	e9 8e 00 00 00	 jmp	 $LN30@Extract
$LN29@Extract:

; 585  :                                && _Pnode->_Right->_Color == _Black) { // redden right subtree with black children

  002b3	8b 45 e0	 mov	 eax, DWORD PTR __Pnode$[ebp]
  002b6	8b 08		 mov	 ecx, DWORD PTR [eax]
  002b8	0f be 51 0c	 movsx	 edx, BYTE PTR [ecx+12]
  002bc	83 fa 01	 cmp	 edx, 1
  002bf	75 1e		 jne	 SHORT $LN31@Extract
  002c1	8b 45 e0	 mov	 eax, DWORD PTR __Pnode$[ebp]
  002c4	8b 48 08	 mov	 ecx, DWORD PTR [eax+8]
  002c7	0f be 51 0c	 movsx	 edx, BYTE PTR [ecx+12]
  002cb	83 fa 01	 cmp	 edx, 1
  002ce	75 0f		 jne	 SHORT $LN31@Extract

; 586  :                         _Pnode->_Color = _Red;

  002d0	8b 45 e0	 mov	 eax, DWORD PTR __Pnode$[ebp]
  002d3	c6 40 0c 00	 mov	 BYTE PTR [eax+12], 0

; 587  :                         _Fixnode       = _Fixnodeparent;

  002d7	8b 45 e4	 mov	 eax, DWORD PTR __Fixnodeparent$[ebp]
  002da	89 45 e8	 mov	 DWORD PTR __Fixnode$[ebp], eax

; 588  :                     } else { // must rearrange right subtree

  002dd	eb 62		 jmp	 SHORT $LN30@Extract
$LN31@Extract:

; 589  :                         if (_Pnode->_Right->_Color == _Black) { // rotate red up from left sub-subtree

  002df	8b 45 e0	 mov	 eax, DWORD PTR __Pnode$[ebp]
  002e2	8b 48 08	 mov	 ecx, DWORD PTR [eax+8]
  002e5	0f be 51 0c	 movsx	 edx, BYTE PTR [ecx+12]
  002e9	83 fa 01	 cmp	 edx, 1
  002ec	75 25		 jne	 SHORT $LN33@Extract

; 590  :                             _Pnode->_Left->_Color = _Black;

  002ee	8b 45 e0	 mov	 eax, DWORD PTR __Pnode$[ebp]
  002f1	8b 08		 mov	 ecx, DWORD PTR [eax]
  002f3	c6 41 0c 01	 mov	 BYTE PTR [ecx+12], 1

; 591  :                             _Pnode->_Color        = _Red;

  002f7	8b 45 e0	 mov	 eax, DWORD PTR __Pnode$[ebp]
  002fa	c6 40 0c 00	 mov	 BYTE PTR [eax+12], 0

; 592  :                             _Rrotate(_Pnode);

  002fe	8b 45 e0	 mov	 eax, DWORD PTR __Pnode$[ebp]
  00301	50		 push	 eax
  00302	8b 4d f0	 mov	 ecx, DWORD PTR _this$[ebp]
  00305	e8 00 00 00 00	 call	 ?_Rrotate@?$_Tree_val@U?$_Tree_simple_types@U?$pair@$$CBHU_MONSTER_HERD_DATA@@@std@@@std@@@std@@QAEXPAU?$_Tree_node@U?$pair@$$CBHU_MONSTER_HERD_DATA@@@std@@PAX@2@@Z ; std::_Tree_val<std::_Tree_simple_types<std::pair<int const ,_MONSTER_HERD_DATA> > >::_Rrotate

; 593  :                             _Pnode = _Fixnodeparent->_Right;

  0030a	8b 45 e4	 mov	 eax, DWORD PTR __Fixnodeparent$[ebp]
  0030d	8b 48 08	 mov	 ecx, DWORD PTR [eax+8]
  00310	89 4d e0	 mov	 DWORD PTR __Pnode$[ebp], ecx
$LN33@Extract:

; 594  :                         }
; 595  : 
; 596  :                         _Pnode->_Color         = _Fixnodeparent->_Color;

  00313	8b 45 e0	 mov	 eax, DWORD PTR __Pnode$[ebp]
  00316	8b 4d e4	 mov	 ecx, DWORD PTR __Fixnodeparent$[ebp]
  00319	8a 51 0c	 mov	 dl, BYTE PTR [ecx+12]
  0031c	88 50 0c	 mov	 BYTE PTR [eax+12], dl

; 597  :                         _Fixnodeparent->_Color = _Black;

  0031f	8b 45 e4	 mov	 eax, DWORD PTR __Fixnodeparent$[ebp]
  00322	c6 40 0c 01	 mov	 BYTE PTR [eax+12], 1

; 598  :                         _Pnode->_Right->_Color = _Black;

  00326	8b 45 e0	 mov	 eax, DWORD PTR __Pnode$[ebp]
  00329	8b 48 08	 mov	 ecx, DWORD PTR [eax+8]
  0032c	c6 41 0c 01	 mov	 BYTE PTR [ecx+12], 1

; 599  :                         _Lrotate(_Fixnodeparent);

  00330	8b 45 e4	 mov	 eax, DWORD PTR __Fixnodeparent$[ebp]
  00333	50		 push	 eax
  00334	8b 4d f0	 mov	 ecx, DWORD PTR _this$[ebp]
  00337	e8 00 00 00 00	 call	 ?_Lrotate@?$_Tree_val@U?$_Tree_simple_types@U?$pair@$$CBHU_MONSTER_HERD_DATA@@@std@@@std@@@std@@QAEXPAU?$_Tree_node@U?$pair@$$CBHU_MONSTER_HERD_DATA@@@std@@PAX@2@@Z ; std::_Tree_val<std::_Tree_simple_types<std::pair<int const ,_MONSTER_HERD_DATA> > >::_Lrotate

; 600  :                         break; // tree now recolored/rebalanced

  0033c	e9 de 00 00 00	 jmp	 $LN3@Extract
$LN30@Extract:

; 601  :                     }
; 602  :                 } else { // fixup right subtree

  00341	e9 d4 00 00 00	 jmp	 $LN27@Extract
$LN26@Extract:

; 603  :                     _Pnode = _Fixnodeparent->_Left;

  00346	8b 45 e4	 mov	 eax, DWORD PTR __Fixnodeparent$[ebp]
  00349	8b 08		 mov	 ecx, DWORD PTR [eax]
  0034b	89 4d e0	 mov	 DWORD PTR __Pnode$[ebp], ecx

; 604  :                     if (_Pnode->_Color == _Red) { // rotate red up from left subtree

  0034e	8b 45 e0	 mov	 eax, DWORD PTR __Pnode$[ebp]
  00351	0f be 48 0c	 movsx	 ecx, BYTE PTR [eax+12]
  00355	85 c9		 test	 ecx, ecx
  00357	75 22		 jne	 SHORT $LN34@Extract

; 605  :                         _Pnode->_Color         = _Black;

  00359	8b 45 e0	 mov	 eax, DWORD PTR __Pnode$[ebp]
  0035c	c6 40 0c 01	 mov	 BYTE PTR [eax+12], 1

; 606  :                         _Fixnodeparent->_Color = _Red;

  00360	8b 45 e4	 mov	 eax, DWORD PTR __Fixnodeparent$[ebp]
  00363	c6 40 0c 00	 mov	 BYTE PTR [eax+12], 0

; 607  :                         _Rrotate(_Fixnodeparent);

  00367	8b 45 e4	 mov	 eax, DWORD PTR __Fixnodeparent$[ebp]
  0036a	50		 push	 eax
  0036b	8b 4d f0	 mov	 ecx, DWORD PTR _this$[ebp]
  0036e	e8 00 00 00 00	 call	 ?_Rrotate@?$_Tree_val@U?$_Tree_simple_types@U?$pair@$$CBHU_MONSTER_HERD_DATA@@@std@@@std@@@std@@QAEXPAU?$_Tree_node@U?$pair@$$CBHU_MONSTER_HERD_DATA@@@std@@PAX@2@@Z ; std::_Tree_val<std::_Tree_simple_types<std::pair<int const ,_MONSTER_HERD_DATA> > >::_Rrotate

; 608  :                         _Pnode = _Fixnodeparent->_Left;

  00373	8b 45 e4	 mov	 eax, DWORD PTR __Fixnodeparent$[ebp]
  00376	8b 08		 mov	 ecx, DWORD PTR [eax]
  00378	89 4d e0	 mov	 DWORD PTR __Pnode$[ebp], ecx
$LN34@Extract:

; 609  :                     }
; 610  : 
; 611  :                     if (_Pnode->_Isnil) {

  0037b	8b 45 e0	 mov	 eax, DWORD PTR __Pnode$[ebp]
  0037e	0f be 48 0d	 movsx	 ecx, BYTE PTR [eax+13]
  00382	85 c9		 test	 ecx, ecx
  00384	74 0b		 je	 SHORT $LN35@Extract

; 612  :                         _Fixnode = _Fixnodeparent; // shouldn't happen

  00386	8b 45 e4	 mov	 eax, DWORD PTR __Fixnodeparent$[ebp]
  00389	89 45 e8	 mov	 DWORD PTR __Fixnode$[ebp], eax

; 613  :                     } else if (_Pnode->_Right->_Color == _Black

  0038c	e9 89 00 00 00	 jmp	 $LN27@Extract
$LN35@Extract:

; 614  :                                && _Pnode->_Left->_Color == _Black) { // redden left subtree with black children

  00391	8b 45 e0	 mov	 eax, DWORD PTR __Pnode$[ebp]
  00394	8b 48 08	 mov	 ecx, DWORD PTR [eax+8]
  00397	0f be 51 0c	 movsx	 edx, BYTE PTR [ecx+12]
  0039b	83 fa 01	 cmp	 edx, 1
  0039e	75 1d		 jne	 SHORT $LN37@Extract
  003a0	8b 45 e0	 mov	 eax, DWORD PTR __Pnode$[ebp]
  003a3	8b 08		 mov	 ecx, DWORD PTR [eax]
  003a5	0f be 51 0c	 movsx	 edx, BYTE PTR [ecx+12]
  003a9	83 fa 01	 cmp	 edx, 1
  003ac	75 0f		 jne	 SHORT $LN37@Extract

; 615  :                         _Pnode->_Color = _Red;

  003ae	8b 45 e0	 mov	 eax, DWORD PTR __Pnode$[ebp]
  003b1	c6 40 0c 00	 mov	 BYTE PTR [eax+12], 0

; 616  :                         _Fixnode       = _Fixnodeparent;

  003b5	8b 45 e4	 mov	 eax, DWORD PTR __Fixnodeparent$[ebp]
  003b8	89 45 e8	 mov	 DWORD PTR __Fixnode$[ebp], eax

; 617  :                     } else { // must rearrange left subtree

  003bb	eb 5d		 jmp	 SHORT $LN27@Extract
$LN37@Extract:

; 618  :                         if (_Pnode->_Left->_Color == _Black) { // rotate red up from right sub-subtree

  003bd	8b 45 e0	 mov	 eax, DWORD PTR __Pnode$[ebp]
  003c0	8b 08		 mov	 ecx, DWORD PTR [eax]
  003c2	0f be 51 0c	 movsx	 edx, BYTE PTR [ecx+12]
  003c6	83 fa 01	 cmp	 edx, 1
  003c9	75 25		 jne	 SHORT $LN39@Extract

; 619  :                             _Pnode->_Right->_Color = _Black;

  003cb	8b 45 e0	 mov	 eax, DWORD PTR __Pnode$[ebp]
  003ce	8b 48 08	 mov	 ecx, DWORD PTR [eax+8]
  003d1	c6 41 0c 01	 mov	 BYTE PTR [ecx+12], 1

; 620  :                             _Pnode->_Color         = _Red;

  003d5	8b 45 e0	 mov	 eax, DWORD PTR __Pnode$[ebp]
  003d8	c6 40 0c 00	 mov	 BYTE PTR [eax+12], 0

; 621  :                             _Lrotate(_Pnode);

  003dc	8b 45 e0	 mov	 eax, DWORD PTR __Pnode$[ebp]
  003df	50		 push	 eax
  003e0	8b 4d f0	 mov	 ecx, DWORD PTR _this$[ebp]
  003e3	e8 00 00 00 00	 call	 ?_Lrotate@?$_Tree_val@U?$_Tree_simple_types@U?$pair@$$CBHU_MONSTER_HERD_DATA@@@std@@@std@@@std@@QAEXPAU?$_Tree_node@U?$pair@$$CBHU_MONSTER_HERD_DATA@@@std@@PAX@2@@Z ; std::_Tree_val<std::_Tree_simple_types<std::pair<int const ,_MONSTER_HERD_DATA> > >::_Lrotate

; 622  :                             _Pnode = _Fixnodeparent->_Left;

  003e8	8b 45 e4	 mov	 eax, DWORD PTR __Fixnodeparent$[ebp]
  003eb	8b 08		 mov	 ecx, DWORD PTR [eax]
  003ed	89 4d e0	 mov	 DWORD PTR __Pnode$[ebp], ecx
$LN39@Extract:

; 623  :                         }
; 624  : 
; 625  :                         _Pnode->_Color         = _Fixnodeparent->_Color;

  003f0	8b 45 e0	 mov	 eax, DWORD PTR __Pnode$[ebp]
  003f3	8b 4d e4	 mov	 ecx, DWORD PTR __Fixnodeparent$[ebp]
  003f6	8a 51 0c	 mov	 dl, BYTE PTR [ecx+12]
  003f9	88 50 0c	 mov	 BYTE PTR [eax+12], dl

; 626  :                         _Fixnodeparent->_Color = _Black;

  003fc	8b 45 e4	 mov	 eax, DWORD PTR __Fixnodeparent$[ebp]
  003ff	c6 40 0c 01	 mov	 BYTE PTR [eax+12], 1

; 627  :                         _Pnode->_Left->_Color  = _Black;

  00403	8b 45 e0	 mov	 eax, DWORD PTR __Pnode$[ebp]
  00406	8b 08		 mov	 ecx, DWORD PTR [eax]
  00408	c6 41 0c 01	 mov	 BYTE PTR [ecx+12], 1

; 628  :                         _Rrotate(_Fixnodeparent);

  0040c	8b 45 e4	 mov	 eax, DWORD PTR __Fixnodeparent$[ebp]
  0040f	50		 push	 eax
  00410	8b 4d f0	 mov	 ecx, DWORD PTR _this$[ebp]
  00413	e8 00 00 00 00	 call	 ?_Rrotate@?$_Tree_val@U?$_Tree_simple_types@U?$pair@$$CBHU_MONSTER_HERD_DATA@@@std@@@std@@@std@@QAEXPAU?$_Tree_node@U?$pair@$$CBHU_MONSTER_HERD_DATA@@@std@@PAX@2@@Z ; std::_Tree_val<std::_Tree_simple_types<std::pair<int const ,_MONSTER_HERD_DATA> > >::_Rrotate

; 629  :                         break; // tree now recolored/rebalanced

  00418	eb 05		 jmp	 SHORT $LN3@Extract
$LN27@Extract:

; 630  :                     }
; 631  :                 }
; 632  :             }

  0041a	e9 0f fe ff ff	 jmp	 $LN2@Extract
$LN3@Extract:

; 633  : 
; 634  :             _Fixnode->_Color = _Black; // stopping node is black

  0041f	8b 45 e8	 mov	 eax, DWORD PTR __Fixnode$[ebp]
  00422	c6 40 0c 01	 mov	 BYTE PTR [eax+12], 1
$LN25@Extract:

; 635  :         }
; 636  : 
; 637  :         if (0 < _Mysize) {

  00426	8b 45 f0	 mov	 eax, DWORD PTR _this$[ebp]
  00429	83 78 04 00	 cmp	 DWORD PTR [eax+4], 0
  0042d	76 0f		 jbe	 SHORT $LN40@Extract

; 638  :             --_Mysize;

  0042f	8b 45 f0	 mov	 eax, DWORD PTR _this$[ebp]
  00432	8b 48 04	 mov	 ecx, DWORD PTR [eax+4]
  00435	83 e9 01	 sub	 ecx, 1
  00438	8b 55 f0	 mov	 edx, DWORD PTR _this$[ebp]
  0043b	89 4a 04	 mov	 DWORD PTR [edx+4], ecx
$LN40@Extract:

; 639  :         }
; 640  : 
; 641  :         return _Erasednode;

  0043e	8b 45 ec	 mov	 eax, DWORD PTR __Erasednode$[ebp]

; 642  :     }

  00441	8b 4d f4	 mov	 ecx, DWORD PTR __$EHRec$[ebp]
  00444	64 89 0d 00 00
	00 00		 mov	 DWORD PTR fs:0, ecx
  0044b	59		 pop	 ecx
  0044c	5f		 pop	 edi
  0044d	5e		 pop	 esi
  0044e	5b		 pop	 ebx
  0044f	8b e5		 mov	 esp, ebp
  00451	5d		 pop	 ebp
  00452	c2 04 00	 ret	 4
  00455	cc		 int	 3
  00456	cc		 int	 3
  00457	cc		 int	 3
  00458	cc		 int	 3
  00459	cc		 int	 3
_TEXT	ENDS
;	COMDAT text$x
text$x	SEGMENT
__ehhandler$?_Extract@?$_Tree_val@U?$_Tree_simple_types@U?$pair@$$CBHU_MONSTER_HERD_DATA@@@std@@@std@@@std@@QAEPAU?$_Tree_node@U?$pair@$$CBHU_MONSTER_HERD_DATA@@@std@@PAX@2@V?$_Tree_unchecked_const_iterator@V?$_Tree_val@U?$_Tree_simple_types@U?$pair@$$CBHU_MONSTER_HERD_DATA@@@std@@@std@@@std@@U_Iterator_base0@2@@2@@Z:
  00000	90		 npad	 1
  00001	90		 npad	 1
  00002	8b 54 24 08	 mov	 edx, DWORD PTR [esp+8]
  00006	8d 42 0c	 lea	 eax, DWORD PTR [edx+12]
  00009	8b 4a 98	 mov	 ecx, DWORD PTR [edx-104]
  0000c	33 c8		 xor	 ecx, eax
  0000e	e8 00 00 00 00	 call	 @__security_check_cookie@4
  00013	b8 00 00 00 00	 mov	 eax, OFFSET __ehfuncinfo$?_Extract@?$_Tree_val@U?$_Tree_simple_types@U?$pair@$$CBHU_MONSTER_HERD_DATA@@@std@@@std@@@std@@QAEPAU?$_Tree_node@U?$pair@$$CBHU_MONSTER_HERD_DATA@@@std@@PAX@2@V?$_Tree_unchecked_const_iterator@V?$_Tree_val@U?$_Tree_simple_types@U?$pair@$$CBHU_MONSTER_HERD_DATA@@@std@@@std@@@std@@U_Iterator_base0@2@@2@@Z
  00018	e9 00 00 00 00	 jmp	 ___CxxFrameHandler3
text$x	ENDS
?_Extract@?$_Tree_val@U?$_Tree_simple_types@U?$pair@$$CBHU_MONSTER_HERD_DATA@@@std@@@std@@@std@@QAEPAU?$_Tree_node@U?$pair@$$CBHU_MONSTER_HERD_DATA@@@std@@PAX@2@V?$_Tree_unchecked_const_iterator@V?$_Tree_val@U?$_Tree_simple_types@U?$pair@$$CBHU_MONSTER_HERD_DATA@@@std@@@std@@@std@@U_Iterator_base0@2@@2@@Z ENDP ; std::_Tree_val<std::_Tree_simple_types<std::pair<int const ,_MONSTER_HERD_DATA> > >::_Extract
; Function compile flags: /Odtp /ZI
; File C:\Program Files (x86)\Microsoft Visual Studio\2019\Community\VC\Tools\MSVC\14.27.29110\include\xtree
;	COMDAT ?_Rrotate@?$_Tree_val@U?$_Tree_simple_types@U?$pair@$$CBHU_MONSTER_HERD_DATA@@@std@@@std@@@std@@QAEXPAU?$_Tree_node@U?$pair@$$CBHU_MONSTER_HERD_DATA@@@std@@PAX@2@@Z
_TEXT	SEGMENT
__Pnode$ = -8						; size = 4
_this$ = -4						; size = 4
__Wherenode$ = 8					; size = 4
?_Rrotate@?$_Tree_val@U?$_Tree_simple_types@U?$pair@$$CBHU_MONSTER_HERD_DATA@@@std@@@std@@@std@@QAEXPAU?$_Tree_node@U?$pair@$$CBHU_MONSTER_HERD_DATA@@@std@@PAX@2@@Z PROC ; std::_Tree_val<std::_Tree_simple_types<std::pair<int const ,_MONSTER_HERD_DATA> > >::_Rrotate, COMDAT
; _this$ = ecx

; 480  :     void _Rrotate(_Nodeptr _Wherenode) noexcept { // promote left node to root of subtree

  00000	55		 push	 ebp
  00001	8b ec		 mov	 ebp, esp
  00003	83 ec 48	 sub	 esp, 72			; 00000048H
  00006	53		 push	 ebx
  00007	56		 push	 esi
  00008	57		 push	 edi
  00009	89 4d fc	 mov	 DWORD PTR _this$[ebp], ecx

; 481  :         _Nodeptr _Pnode   = _Wherenode->_Left;

  0000c	8b 45 08	 mov	 eax, DWORD PTR __Wherenode$[ebp]
  0000f	8b 08		 mov	 ecx, DWORD PTR [eax]
  00011	89 4d f8	 mov	 DWORD PTR __Pnode$[ebp], ecx

; 482  :         _Wherenode->_Left = _Pnode->_Right;

  00014	8b 45 08	 mov	 eax, DWORD PTR __Wherenode$[ebp]
  00017	8b 4d f8	 mov	 ecx, DWORD PTR __Pnode$[ebp]
  0001a	8b 51 08	 mov	 edx, DWORD PTR [ecx+8]
  0001d	89 10		 mov	 DWORD PTR [eax], edx

; 483  : 
; 484  :         if (!_Pnode->_Right->_Isnil) {

  0001f	8b 45 f8	 mov	 eax, DWORD PTR __Pnode$[ebp]
  00022	8b 48 08	 mov	 ecx, DWORD PTR [eax+8]
  00025	0f be 51 0d	 movsx	 edx, BYTE PTR [ecx+13]
  00029	85 d2		 test	 edx, edx
  0002b	75 0c		 jne	 SHORT $LN2@Rrotate

; 485  :             _Pnode->_Right->_Parent = _Wherenode;

  0002d	8b 45 f8	 mov	 eax, DWORD PTR __Pnode$[ebp]
  00030	8b 48 08	 mov	 ecx, DWORD PTR [eax+8]
  00033	8b 55 08	 mov	 edx, DWORD PTR __Wherenode$[ebp]
  00036	89 51 04	 mov	 DWORD PTR [ecx+4], edx
$LN2@Rrotate:

; 486  :         }
; 487  : 
; 488  :         _Pnode->_Parent = _Wherenode->_Parent;

  00039	8b 45 f8	 mov	 eax, DWORD PTR __Pnode$[ebp]
  0003c	8b 4d 08	 mov	 ecx, DWORD PTR __Wherenode$[ebp]
  0003f	8b 51 04	 mov	 edx, DWORD PTR [ecx+4]
  00042	89 50 04	 mov	 DWORD PTR [eax+4], edx

; 489  : 
; 490  :         if (_Wherenode == _Myhead->_Parent) {

  00045	8b 45 fc	 mov	 eax, DWORD PTR _this$[ebp]
  00048	8b 08		 mov	 ecx, DWORD PTR [eax]
  0004a	8b 55 08	 mov	 edx, DWORD PTR __Wherenode$[ebp]
  0004d	3b 51 04	 cmp	 edx, DWORD PTR [ecx+4]
  00050	75 0d		 jne	 SHORT $LN3@Rrotate

; 491  :             _Myhead->_Parent = _Pnode;

  00052	8b 45 fc	 mov	 eax, DWORD PTR _this$[ebp]
  00055	8b 08		 mov	 ecx, DWORD PTR [eax]
  00057	8b 55 f8	 mov	 edx, DWORD PTR __Pnode$[ebp]
  0005a	89 51 04	 mov	 DWORD PTR [ecx+4], edx
  0005d	eb 27		 jmp	 SHORT $LN4@Rrotate
$LN3@Rrotate:

; 492  :         } else if (_Wherenode == _Wherenode->_Parent->_Right) {

  0005f	8b 45 08	 mov	 eax, DWORD PTR __Wherenode$[ebp]
  00062	8b 48 04	 mov	 ecx, DWORD PTR [eax+4]
  00065	8b 55 08	 mov	 edx, DWORD PTR __Wherenode$[ebp]
  00068	3b 51 08	 cmp	 edx, DWORD PTR [ecx+8]
  0006b	75 0e		 jne	 SHORT $LN5@Rrotate

; 493  :             _Wherenode->_Parent->_Right = _Pnode;

  0006d	8b 45 08	 mov	 eax, DWORD PTR __Wherenode$[ebp]
  00070	8b 48 04	 mov	 ecx, DWORD PTR [eax+4]
  00073	8b 55 f8	 mov	 edx, DWORD PTR __Pnode$[ebp]
  00076	89 51 08	 mov	 DWORD PTR [ecx+8], edx

; 494  :         } else {

  00079	eb 0b		 jmp	 SHORT $LN4@Rrotate
$LN5@Rrotate:

; 495  :             _Wherenode->_Parent->_Left = _Pnode;

  0007b	8b 45 08	 mov	 eax, DWORD PTR __Wherenode$[ebp]
  0007e	8b 48 04	 mov	 ecx, DWORD PTR [eax+4]
  00081	8b 55 f8	 mov	 edx, DWORD PTR __Pnode$[ebp]
  00084	89 11		 mov	 DWORD PTR [ecx], edx
$LN4@Rrotate:

; 496  :         }
; 497  : 
; 498  :         _Pnode->_Right      = _Wherenode;

  00086	8b 45 f8	 mov	 eax, DWORD PTR __Pnode$[ebp]
  00089	8b 4d 08	 mov	 ecx, DWORD PTR __Wherenode$[ebp]
  0008c	89 48 08	 mov	 DWORD PTR [eax+8], ecx

; 499  :         _Wherenode->_Parent = _Pnode;

  0008f	8b 45 08	 mov	 eax, DWORD PTR __Wherenode$[ebp]
  00092	8b 4d f8	 mov	 ecx, DWORD PTR __Pnode$[ebp]
  00095	89 48 04	 mov	 DWORD PTR [eax+4], ecx

; 500  :     }

  00098	5f		 pop	 edi
  00099	5e		 pop	 esi
  0009a	5b		 pop	 ebx
  0009b	8b e5		 mov	 esp, ebp
  0009d	5d		 pop	 ebp
  0009e	c2 04 00	 ret	 4
?_Rrotate@?$_Tree_val@U?$_Tree_simple_types@U?$pair@$$CBHU_MONSTER_HERD_DATA@@@std@@@std@@@std@@QAEXPAU?$_Tree_node@U?$pair@$$CBHU_MONSTER_HERD_DATA@@@std@@PAX@2@@Z ENDP ; std::_Tree_val<std::_Tree_simple_types<std::pair<int const ,_MONSTER_HERD_DATA> > >::_Rrotate
_TEXT	ENDS
; Function compile flags: /Odtp /ZI
; File C:\Program Files (x86)\Microsoft Visual Studio\2019\Community\VC\Tools\MSVC\14.27.29110\include\xtree
;	COMDAT ?_Lrotate@?$_Tree_val@U?$_Tree_simple_types@U?$pair@$$CBHU_MONSTER_HERD_DATA@@@std@@@std@@@std@@QAEXPAU?$_Tree_node@U?$pair@$$CBHU_MONSTER_HERD_DATA@@@std@@PAX@2@@Z
_TEXT	SEGMENT
__Pnode$ = -8						; size = 4
_this$ = -4						; size = 4
__Wherenode$ = 8					; size = 4
?_Lrotate@?$_Tree_val@U?$_Tree_simple_types@U?$pair@$$CBHU_MONSTER_HERD_DATA@@@std@@@std@@@std@@QAEXPAU?$_Tree_node@U?$pair@$$CBHU_MONSTER_HERD_DATA@@@std@@PAX@2@@Z PROC ; std::_Tree_val<std::_Tree_simple_types<std::pair<int const ,_MONSTER_HERD_DATA> > >::_Lrotate, COMDAT
; _this$ = ecx

; 458  :     void _Lrotate(_Nodeptr _Wherenode) noexcept { // promote right node to root of subtree

  00000	55		 push	 ebp
  00001	8b ec		 mov	 ebp, esp
  00003	83 ec 48	 sub	 esp, 72			; 00000048H
  00006	53		 push	 ebx
  00007	56		 push	 esi
  00008	57		 push	 edi
  00009	89 4d fc	 mov	 DWORD PTR _this$[ebp], ecx

; 459  :         _Nodeptr _Pnode    = _Wherenode->_Right;

  0000c	8b 45 08	 mov	 eax, DWORD PTR __Wherenode$[ebp]
  0000f	8b 48 08	 mov	 ecx, DWORD PTR [eax+8]
  00012	89 4d f8	 mov	 DWORD PTR __Pnode$[ebp], ecx

; 460  :         _Wherenode->_Right = _Pnode->_Left;

  00015	8b 45 08	 mov	 eax, DWORD PTR __Wherenode$[ebp]
  00018	8b 4d f8	 mov	 ecx, DWORD PTR __Pnode$[ebp]
  0001b	8b 11		 mov	 edx, DWORD PTR [ecx]
  0001d	89 50 08	 mov	 DWORD PTR [eax+8], edx

; 461  : 
; 462  :         if (!_Pnode->_Left->_Isnil) {

  00020	8b 45 f8	 mov	 eax, DWORD PTR __Pnode$[ebp]
  00023	8b 08		 mov	 ecx, DWORD PTR [eax]
  00025	0f be 51 0d	 movsx	 edx, BYTE PTR [ecx+13]
  00029	85 d2		 test	 edx, edx
  0002b	75 0b		 jne	 SHORT $LN2@Lrotate

; 463  :             _Pnode->_Left->_Parent = _Wherenode;

  0002d	8b 45 f8	 mov	 eax, DWORD PTR __Pnode$[ebp]
  00030	8b 08		 mov	 ecx, DWORD PTR [eax]
  00032	8b 55 08	 mov	 edx, DWORD PTR __Wherenode$[ebp]
  00035	89 51 04	 mov	 DWORD PTR [ecx+4], edx
$LN2@Lrotate:

; 464  :         }
; 465  : 
; 466  :         _Pnode->_Parent = _Wherenode->_Parent;

  00038	8b 45 f8	 mov	 eax, DWORD PTR __Pnode$[ebp]
  0003b	8b 4d 08	 mov	 ecx, DWORD PTR __Wherenode$[ebp]
  0003e	8b 51 04	 mov	 edx, DWORD PTR [ecx+4]
  00041	89 50 04	 mov	 DWORD PTR [eax+4], edx

; 467  : 
; 468  :         if (_Wherenode == _Myhead->_Parent) {

  00044	8b 45 fc	 mov	 eax, DWORD PTR _this$[ebp]
  00047	8b 08		 mov	 ecx, DWORD PTR [eax]
  00049	8b 55 08	 mov	 edx, DWORD PTR __Wherenode$[ebp]
  0004c	3b 51 04	 cmp	 edx, DWORD PTR [ecx+4]
  0004f	75 0d		 jne	 SHORT $LN3@Lrotate

; 469  :             _Myhead->_Parent = _Pnode;

  00051	8b 45 fc	 mov	 eax, DWORD PTR _this$[ebp]
  00054	8b 08		 mov	 ecx, DWORD PTR [eax]
  00056	8b 55 f8	 mov	 edx, DWORD PTR __Pnode$[ebp]
  00059	89 51 04	 mov	 DWORD PTR [ecx+4], edx
  0005c	eb 26		 jmp	 SHORT $LN4@Lrotate
$LN3@Lrotate:

; 470  :         } else if (_Wherenode == _Wherenode->_Parent->_Left) {

  0005e	8b 45 08	 mov	 eax, DWORD PTR __Wherenode$[ebp]
  00061	8b 48 04	 mov	 ecx, DWORD PTR [eax+4]
  00064	8b 55 08	 mov	 edx, DWORD PTR __Wherenode$[ebp]
  00067	3b 11		 cmp	 edx, DWORD PTR [ecx]
  00069	75 0d		 jne	 SHORT $LN5@Lrotate

; 471  :             _Wherenode->_Parent->_Left = _Pnode;

  0006b	8b 45 08	 mov	 eax, DWORD PTR __Wherenode$[ebp]
  0006e	8b 48 04	 mov	 ecx, DWORD PTR [eax+4]
  00071	8b 55 f8	 mov	 edx, DWORD PTR __Pnode$[ebp]
  00074	89 11		 mov	 DWORD PTR [ecx], edx

; 472  :         } else {

  00076	eb 0c		 jmp	 SHORT $LN4@Lrotate
$LN5@Lrotate:

; 473  :             _Wherenode->_Parent->_Right = _Pnode;

  00078	8b 45 08	 mov	 eax, DWORD PTR __Wherenode$[ebp]
  0007b	8b 48 04	 mov	 ecx, DWORD PTR [eax+4]
  0007e	8b 55 f8	 mov	 edx, DWORD PTR __Pnode$[ebp]
  00081	89 51 08	 mov	 DWORD PTR [ecx+8], edx
$LN4@Lrotate:

; 474  :         }
; 475  : 
; 476  :         _Pnode->_Left       = _Wherenode;

  00084	8b 45 f8	 mov	 eax, DWORD PTR __Pnode$[ebp]
  00087	8b 4d 08	 mov	 ecx, DWORD PTR __Wherenode$[ebp]
  0008a	89 08		 mov	 DWORD PTR [eax], ecx

; 477  :         _Wherenode->_Parent = _Pnode;

  0008c	8b 45 08	 mov	 eax, DWORD PTR __Wherenode$[ebp]
  0008f	8b 4d f8	 mov	 ecx, DWORD PTR __Pnode$[ebp]
  00092	89 48 04	 mov	 DWORD PTR [eax+4], ecx

; 478  :     }

  00095	5f		 pop	 edi
  00096	5e		 pop	 esi
  00097	5b		 pop	 ebx
  00098	8b e5		 mov	 esp, ebp
  0009a	5d		 pop	 ebp
  0009b	c2 04 00	 ret	 4
?_Lrotate@?$_Tree_val@U?$_Tree_simple_types@U?$pair@$$CBHU_MONSTER_HERD_DATA@@@std@@@std@@@std@@QAEXPAU?$_Tree_node@U?$pair@$$CBHU_MONSTER_HERD_DATA@@@std@@PAX@2@@Z ENDP ; std::_Tree_val<std::_Tree_simple_types<std::pair<int const ,_MONSTER_HERD_DATA> > >::_Lrotate
_TEXT	ENDS
; Function compile flags: /Odtp /ZI
; File C:\Program Files (x86)\Microsoft Visual Studio\2019\Community\VC\Tools\MSVC\14.27.29110\include\xtree
;	COMDAT ?_Min@?$_Tree_val@U?$_Tree_simple_types@U?$pair@$$CBHU_MONSTER_HERD_DATA@@@std@@@std@@@std@@SAPAU?$_Tree_node@U?$pair@$$CBHU_MONSTER_HERD_DATA@@@std@@PAX@2@PAU32@@Z
_TEXT	SEGMENT
__Pnode$ = 8						; size = 4
?_Min@?$_Tree_val@U?$_Tree_simple_types@U?$pair@$$CBHU_MONSTER_HERD_DATA@@@std@@@std@@@std@@SAPAU?$_Tree_node@U?$pair@$$CBHU_MONSTER_HERD_DATA@@@std@@PAX@2@PAU32@@Z PROC ; std::_Tree_val<std::_Tree_simple_types<std::pair<int const ,_MONSTER_HERD_DATA> > >::_Min, COMDAT

; 450  :     static _Nodeptr _Min(_Nodeptr _Pnode) noexcept { // return leftmost node in subtree at _Pnode

  00000	55		 push	 ebp
  00001	8b ec		 mov	 ebp, esp
  00003	83 ec 40	 sub	 esp, 64			; 00000040H
  00006	53		 push	 ebx
  00007	56		 push	 esi
  00008	57		 push	 edi
$LN2@Min:

; 451  :         while (!_Pnode->_Left->_Isnil) {

  00009	8b 45 08	 mov	 eax, DWORD PTR __Pnode$[ebp]
  0000c	8b 08		 mov	 ecx, DWORD PTR [eax]
  0000e	0f be 51 0d	 movsx	 edx, BYTE PTR [ecx+13]
  00012	85 d2		 test	 edx, edx
  00014	75 0a		 jne	 SHORT $LN3@Min

; 452  :             _Pnode = _Pnode->_Left;

  00016	8b 45 08	 mov	 eax, DWORD PTR __Pnode$[ebp]
  00019	8b 08		 mov	 ecx, DWORD PTR [eax]
  0001b	89 4d 08	 mov	 DWORD PTR __Pnode$[ebp], ecx

; 453  :         }

  0001e	eb e9		 jmp	 SHORT $LN2@Min
$LN3@Min:

; 454  : 
; 455  :         return _Pnode;

  00020	8b 45 08	 mov	 eax, DWORD PTR __Pnode$[ebp]

; 456  :     }

  00023	5f		 pop	 edi
  00024	5e		 pop	 esi
  00025	5b		 pop	 ebx
  00026	8b e5		 mov	 esp, ebp
  00028	5d		 pop	 ebp
  00029	c3		 ret	 0
?_Min@?$_Tree_val@U?$_Tree_simple_types@U?$pair@$$CBHU_MONSTER_HERD_DATA@@@std@@@std@@@std@@SAPAU?$_Tree_node@U?$pair@$$CBHU_MONSTER_HERD_DATA@@@std@@PAX@2@PAU32@@Z ENDP ; std::_Tree_val<std::_Tree_simple_types<std::pair<int const ,_MONSTER_HERD_DATA> > >::_Min
_TEXT	ENDS
; Function compile flags: /Odtp /ZI
; File C:\Program Files (x86)\Microsoft Visual Studio\2019\Community\VC\Tools\MSVC\14.27.29110\include\xtree
;	COMDAT ?_Max@?$_Tree_val@U?$_Tree_simple_types@U?$pair@$$CBHU_MONSTER_HERD_DATA@@@std@@@std@@@std@@SAPAU?$_Tree_node@U?$pair@$$CBHU_MONSTER_HERD_DATA@@@std@@PAX@2@PAU32@@Z
_TEXT	SEGMENT
__Pnode$ = 8						; size = 4
?_Max@?$_Tree_val@U?$_Tree_simple_types@U?$pair@$$CBHU_MONSTER_HERD_DATA@@@std@@@std@@@std@@SAPAU?$_Tree_node@U?$pair@$$CBHU_MONSTER_HERD_DATA@@@std@@PAX@2@PAU32@@Z PROC ; std::_Tree_val<std::_Tree_simple_types<std::pair<int const ,_MONSTER_HERD_DATA> > >::_Max, COMDAT

; 442  :     static _Nodeptr _Max(_Nodeptr _Pnode) noexcept { // return rightmost node in subtree at _Pnode

  00000	55		 push	 ebp
  00001	8b ec		 mov	 ebp, esp
  00003	83 ec 40	 sub	 esp, 64			; 00000040H
  00006	53		 push	 ebx
  00007	56		 push	 esi
  00008	57		 push	 edi
$LN2@Max:

; 443  :         while (!_Pnode->_Right->_Isnil) {

  00009	8b 45 08	 mov	 eax, DWORD PTR __Pnode$[ebp]
  0000c	8b 48 08	 mov	 ecx, DWORD PTR [eax+8]
  0000f	0f be 51 0d	 movsx	 edx, BYTE PTR [ecx+13]
  00013	85 d2		 test	 edx, edx
  00015	75 0b		 jne	 SHORT $LN3@Max

; 444  :             _Pnode = _Pnode->_Right;

  00017	8b 45 08	 mov	 eax, DWORD PTR __Pnode$[ebp]
  0001a	8b 48 08	 mov	 ecx, DWORD PTR [eax+8]
  0001d	89 4d 08	 mov	 DWORD PTR __Pnode$[ebp], ecx

; 445  :         }

  00020	eb e7		 jmp	 SHORT $LN2@Max
$LN3@Max:

; 446  : 
; 447  :         return _Pnode;

  00022	8b 45 08	 mov	 eax, DWORD PTR __Pnode$[ebp]

; 448  :     }

  00025	5f		 pop	 edi
  00026	5e		 pop	 esi
  00027	5b		 pop	 ebx
  00028	8b e5		 mov	 esp, ebp
  0002a	5d		 pop	 ebp
  0002b	c3		 ret	 0
?_Max@?$_Tree_val@U?$_Tree_simple_types@U?$pair@$$CBHU_MONSTER_HERD_DATA@@@std@@@std@@@std@@SAPAU?$_Tree_node@U?$pair@$$CBHU_MONSTER_HERD_DATA@@@std@@PAX@2@PAU32@@Z ENDP ; std::_Tree_val<std::_Tree_simple_types<std::pair<int const ,_MONSTER_HERD_DATA> > >::_Max
_TEXT	ENDS
; Function compile flags: /Odtp /ZI
; File C:\Program Files (x86)\Microsoft Visual Studio\2019\Community\VC\Tools\MSVC\14.27.29110\include\xtree
;	COMDAT ??0?$_Tree_val@U?$_Tree_simple_types@U?$pair@$$CBHU_MONSTER_HERD_DATA@@@std@@@std@@@std@@QAE@XZ
_TEXT	SEGMENT
_this$ = -4						; size = 4
??0?$_Tree_val@U?$_Tree_simple_types@U?$pair@$$CBHU_MONSTER_HERD_DATA@@@std@@@std@@@std@@QAE@XZ PROC ; std::_Tree_val<std::_Tree_simple_types<std::pair<int const ,_MONSTER_HERD_DATA> > >::_Tree_val<std::_Tree_simple_types<std::pair<int const ,_MONSTER_HERD_DATA> > >, COMDAT
; _this$ = ecx

; 435  :     _Tree_val() noexcept : _Myhead(), _Mysize(0) {}

  00000	55		 push	 ebp
  00001	8b ec		 mov	 ebp, esp
  00003	83 ec 44	 sub	 esp, 68			; 00000044H
  00006	53		 push	 ebx
  00007	56		 push	 esi
  00008	57		 push	 edi
  00009	89 4d fc	 mov	 DWORD PTR _this$[ebp], ecx
  0000c	8b 45 fc	 mov	 eax, DWORD PTR _this$[ebp]
  0000f	c7 00 00 00 00
	00		 mov	 DWORD PTR [eax], 0
  00015	8b 45 fc	 mov	 eax, DWORD PTR _this$[ebp]
  00018	c7 40 04 00 00
	00 00		 mov	 DWORD PTR [eax+4], 0
  0001f	8b 45 fc	 mov	 eax, DWORD PTR _this$[ebp]
  00022	5f		 pop	 edi
  00023	5e		 pop	 esi
  00024	5b		 pop	 ebx
  00025	8b e5		 mov	 esp, ebp
  00027	5d		 pop	 ebp
  00028	c3		 ret	 0
??0?$_Tree_val@U?$_Tree_simple_types@U?$pair@$$CBHU_MONSTER_HERD_DATA@@@std@@@std@@@std@@QAE@XZ ENDP ; std::_Tree_val<std::_Tree_simple_types<std::pair<int const ,_MONSTER_HERD_DATA> > >::_Tree_val<std::_Tree_simple_types<std::pair<int const ,_MONSTER_HERD_DATA> > >
_TEXT	ENDS
; Function compile flags: /Odtp /ZI
; File C:\Program Files (x86)\Microsoft Visual Studio\2019\Community\VC\Tools\MSVC\14.27.29110\include\xtree
;	COMDAT ?_Get_scary@?$_Tree@V?$_Tmap_traits@HU_MONSTER_HERD_DATA@@U?$less@H@std@@V?$allocator@U?$pair@$$CBHU_MONSTER_HERD_DATA@@@std@@@3@$0A@@std@@@std@@IBEPBV?$_Tree_val@U?$_Tree_simple_types@U?$pair@$$CBHU_MONSTER_HERD_DATA@@@std@@@std@@@2@XZ
_TEXT	SEGMENT
_this$ = -4						; size = 4
?_Get_scary@?$_Tree@V?$_Tmap_traits@HU_MONSTER_HERD_DATA@@U?$less@H@std@@V?$allocator@U?$pair@$$CBHU_MONSTER_HERD_DATA@@@std@@@3@$0A@@std@@@std@@IBEPBV?$_Tree_val@U?$_Tree_simple_types@U?$pair@$$CBHU_MONSTER_HERD_DATA@@@std@@@std@@@2@XZ PROC ; std::_Tree<std::_Tmap_traits<int,_MONSTER_HERD_DATA,std::less<int>,std::allocator<std::pair<int const ,_MONSTER_HERD_DATA> >,0> >::_Get_scary, COMDAT
; _this$ = ecx

; 2050 :     const _Scary_val* _Get_scary() const noexcept {

  00000	55		 push	 ebp
  00001	8b ec		 mov	 ebp, esp
  00003	83 ec 44	 sub	 esp, 68			; 00000044H
  00006	53		 push	 ebx
  00007	56		 push	 esi
  00008	57		 push	 edi
  00009	89 4d fc	 mov	 DWORD PTR _this$[ebp], ecx

; 2051 :         return _STD addressof(_Mypair._Myval2._Myval2);

  0000c	8b 45 fc	 mov	 eax, DWORD PTR _this$[ebp]
  0000f	50		 push	 eax
  00010	e8 00 00 00 00	 call	 ??$addressof@$$CBV?$_Tree_val@U?$_Tree_simple_types@U?$pair@$$CBHU_MONSTER_HERD_DATA@@@std@@@std@@@std@@@std@@YAPBV?$_Tree_val@U?$_Tree_simple_types@U?$pair@$$CBHU_MONSTER_HERD_DATA@@@std@@@std@@@0@ABV10@@Z ; std::addressof<std::_Tree_val<std::_Tree_simple_types<std::pair<int const ,_MONSTER_HERD_DATA> > > const >
  00015	83 c4 04	 add	 esp, 4

; 2052 :     }

  00018	5f		 pop	 edi
  00019	5e		 pop	 esi
  0001a	5b		 pop	 ebx
  0001b	8b e5		 mov	 esp, ebp
  0001d	5d		 pop	 ebp
  0001e	c3		 ret	 0
?_Get_scary@?$_Tree@V?$_Tmap_traits@HU_MONSTER_HERD_DATA@@U?$less@H@std@@V?$allocator@U?$pair@$$CBHU_MONSTER_HERD_DATA@@@std@@@3@$0A@@std@@@std@@IBEPBV?$_Tree_val@U?$_Tree_simple_types@U?$pair@$$CBHU_MONSTER_HERD_DATA@@@std@@@std@@@2@XZ ENDP ; std::_Tree<std::_Tmap_traits<int,_MONSTER_HERD_DATA,std::less<int>,std::allocator<std::pair<int const ,_MONSTER_HERD_DATA> >,0> >::_Get_scary
_TEXT	ENDS
; Function compile flags: /Odtp /ZI
; File C:\Program Files (x86)\Microsoft Visual Studio\2019\Community\VC\Tools\MSVC\14.27.29110\include\xtree
;	COMDAT ?_Get_scary@?$_Tree@V?$_Tmap_traits@HU_MONSTER_HERD_DATA@@U?$less@H@std@@V?$allocator@U?$pair@$$CBHU_MONSTER_HERD_DATA@@@std@@@3@$0A@@std@@@std@@IAEPAV?$_Tree_val@U?$_Tree_simple_types@U?$pair@$$CBHU_MONSTER_HERD_DATA@@@std@@@std@@@2@XZ
_TEXT	SEGMENT
_this$ = -4						; size = 4
?_Get_scary@?$_Tree@V?$_Tmap_traits@HU_MONSTER_HERD_DATA@@U?$less@H@std@@V?$allocator@U?$pair@$$CBHU_MONSTER_HERD_DATA@@@std@@@3@$0A@@std@@@std@@IAEPAV?$_Tree_val@U?$_Tree_simple_types@U?$pair@$$CBHU_MONSTER_HERD_DATA@@@std@@@std@@@2@XZ PROC ; std::_Tree<std::_Tmap_traits<int,_MONSTER_HERD_DATA,std::less<int>,std::allocator<std::pair<int const ,_MONSTER_HERD_DATA> >,0> >::_Get_scary, COMDAT
; _this$ = ecx

; 2046 :     _Scary_val* _Get_scary() noexcept {

  00000	55		 push	 ebp
  00001	8b ec		 mov	 ebp, esp
  00003	83 ec 44	 sub	 esp, 68			; 00000044H
  00006	53		 push	 ebx
  00007	56		 push	 esi
  00008	57		 push	 edi
  00009	89 4d fc	 mov	 DWORD PTR _this$[ebp], ecx

; 2047 :         return _STD addressof(_Mypair._Myval2._Myval2);

  0000c	8b 45 fc	 mov	 eax, DWORD PTR _this$[ebp]
  0000f	50		 push	 eax
  00010	e8 00 00 00 00	 call	 ??$addressof@V?$_Tree_val@U?$_Tree_simple_types@U?$pair@$$CBHU_MONSTER_HERD_DATA@@@std@@@std@@@std@@@std@@YAPAV?$_Tree_val@U?$_Tree_simple_types@U?$pair@$$CBHU_MONSTER_HERD_DATA@@@std@@@std@@@0@AAV10@@Z ; std::addressof<std::_Tree_val<std::_Tree_simple_types<std::pair<int const ,_MONSTER_HERD_DATA> > > >
  00015	83 c4 04	 add	 esp, 4

; 2048 :     }

  00018	5f		 pop	 edi
  00019	5e		 pop	 esi
  0001a	5b		 pop	 ebx
  0001b	8b e5		 mov	 esp, ebp
  0001d	5d		 pop	 ebp
  0001e	c3		 ret	 0
?_Get_scary@?$_Tree@V?$_Tmap_traits@HU_MONSTER_HERD_DATA@@U?$less@H@std@@V?$allocator@U?$pair@$$CBHU_MONSTER_HERD_DATA@@@std@@@3@$0A@@std@@@std@@IAEPAV?$_Tree_val@U?$_Tree_simple_types@U?$pair@$$CBHU_MONSTER_HERD_DATA@@@std@@@std@@@2@XZ ENDP ; std::_Tree<std::_Tmap_traits<int,_MONSTER_HERD_DATA,std::less<int>,std::allocator<std::pair<int const ,_MONSTER_HERD_DATA> >,0> >::_Get_scary
_TEXT	ENDS
; Function compile flags: /Odtp /ZI
; File C:\Program Files (x86)\Microsoft Visual Studio\2019\Community\VC\Tools\MSVC\14.27.29110\include\xtree
;	COMDAT ?_Getal@?$_Tree@V?$_Tmap_traits@HU_MONSTER_HERD_DATA@@U?$less@H@std@@V?$allocator@U?$pair@$$CBHU_MONSTER_HERD_DATA@@@std@@@3@$0A@@std@@@std@@IBEABV?$allocator@U?$_Tree_node@U?$pair@$$CBHU_MONSTER_HERD_DATA@@@std@@PAX@std@@@2@XZ
_TEXT	SEGMENT
_this$ = -4						; size = 4
?_Getal@?$_Tree@V?$_Tmap_traits@HU_MONSTER_HERD_DATA@@U?$less@H@std@@V?$allocator@U?$pair@$$CBHU_MONSTER_HERD_DATA@@@std@@@3@$0A@@std@@@std@@IBEABV?$allocator@U?$_Tree_node@U?$pair@$$CBHU_MONSTER_HERD_DATA@@@std@@PAX@std@@@2@XZ PROC ; std::_Tree<std::_Tmap_traits<int,_MONSTER_HERD_DATA,std::less<int>,std::allocator<std::pair<int const ,_MONSTER_HERD_DATA> >,0> >::_Getal, COMDAT
; _this$ = ecx

; 2042 :     const _Alnode& _Getal() const noexcept {

  00000	55		 push	 ebp
  00001	8b ec		 mov	 ebp, esp
  00003	83 ec 44	 sub	 esp, 68			; 00000044H
  00006	53		 push	 ebx
  00007	56		 push	 esi
  00008	57		 push	 edi
  00009	89 4d fc	 mov	 DWORD PTR _this$[ebp], ecx

; 2043 :         return _Mypair._Myval2._Get_first();

  0000c	8b 4d fc	 mov	 ecx, DWORD PTR _this$[ebp]
  0000f	e8 00 00 00 00	 call	 ?_Get_first@?$_Compressed_pair@V?$allocator@U?$_Tree_node@U?$pair@$$CBHU_MONSTER_HERD_DATA@@@std@@PAX@std@@@std@@V?$_Tree_val@U?$_Tree_simple_types@U?$pair@$$CBHU_MONSTER_HERD_DATA@@@std@@@std@@@2@$00@std@@QBEABV?$allocator@U?$_Tree_node@U?$pair@$$CBHU_MONSTER_HERD_DATA@@@std@@PAX@std@@@2@XZ ; std::_Compressed_pair<std::allocator<std::_Tree_node<std::pair<int const ,_MONSTER_HERD_DATA>,void *> >,std::_Tree_val<std::_Tree_simple_types<std::pair<int const ,_MONSTER_HERD_DATA> > >,1>::_Get_first

; 2044 :     }

  00014	5f		 pop	 edi
  00015	5e		 pop	 esi
  00016	5b		 pop	 ebx
  00017	8b e5		 mov	 esp, ebp
  00019	5d		 pop	 ebp
  0001a	c3		 ret	 0
?_Getal@?$_Tree@V?$_Tmap_traits@HU_MONSTER_HERD_DATA@@U?$less@H@std@@V?$allocator@U?$pair@$$CBHU_MONSTER_HERD_DATA@@@std@@@3@$0A@@std@@@std@@IBEABV?$allocator@U?$_Tree_node@U?$pair@$$CBHU_MONSTER_HERD_DATA@@@std@@PAX@std@@@2@XZ ENDP ; std::_Tree<std::_Tmap_traits<int,_MONSTER_HERD_DATA,std::less<int>,std::allocator<std::pair<int const ,_MONSTER_HERD_DATA> >,0> >::_Getal
_TEXT	ENDS
; Function compile flags: /Odtp /ZI
; File C:\Program Files (x86)\Microsoft Visual Studio\2019\Community\VC\Tools\MSVC\14.27.29110\include\xtree
;	COMDAT ?_Getal@?$_Tree@V?$_Tmap_traits@HU_MONSTER_HERD_DATA@@U?$less@H@std@@V?$allocator@U?$pair@$$CBHU_MONSTER_HERD_DATA@@@std@@@3@$0A@@std@@@std@@IAEAAV?$allocator@U?$_Tree_node@U?$pair@$$CBHU_MONSTER_HERD_DATA@@@std@@PAX@std@@@2@XZ
_TEXT	SEGMENT
_this$ = -4						; size = 4
?_Getal@?$_Tree@V?$_Tmap_traits@HU_MONSTER_HERD_DATA@@U?$less@H@std@@V?$allocator@U?$pair@$$CBHU_MONSTER_HERD_DATA@@@std@@@3@$0A@@std@@@std@@IAEAAV?$allocator@U?$_Tree_node@U?$pair@$$CBHU_MONSTER_HERD_DATA@@@std@@PAX@std@@@2@XZ PROC ; std::_Tree<std::_Tmap_traits<int,_MONSTER_HERD_DATA,std::less<int>,std::allocator<std::pair<int const ,_MONSTER_HERD_DATA> >,0> >::_Getal, COMDAT
; _this$ = ecx

; 2038 :     _Alnode& _Getal() noexcept {

  00000	55		 push	 ebp
  00001	8b ec		 mov	 ebp, esp
  00003	83 ec 44	 sub	 esp, 68			; 00000044H
  00006	53		 push	 ebx
  00007	56		 push	 esi
  00008	57		 push	 edi
  00009	89 4d fc	 mov	 DWORD PTR _this$[ebp], ecx

; 2039 :         return _Mypair._Myval2._Get_first();

  0000c	8b 4d fc	 mov	 ecx, DWORD PTR _this$[ebp]
  0000f	e8 00 00 00 00	 call	 ?_Get_first@?$_Compressed_pair@V?$allocator@U?$_Tree_node@U?$pair@$$CBHU_MONSTER_HERD_DATA@@@std@@PAX@std@@@std@@V?$_Tree_val@U?$_Tree_simple_types@U?$pair@$$CBHU_MONSTER_HERD_DATA@@@std@@@std@@@2@$00@std@@QAEAAV?$allocator@U?$_Tree_node@U?$pair@$$CBHU_MONSTER_HERD_DATA@@@std@@PAX@std@@@2@XZ ; std::_Compressed_pair<std::allocator<std::_Tree_node<std::pair<int const ,_MONSTER_HERD_DATA>,void *> >,std::_Tree_val<std::_Tree_simple_types<std::pair<int const ,_MONSTER_HERD_DATA> > >,1>::_Get_first

; 2040 :     }

  00014	5f		 pop	 edi
  00015	5e		 pop	 esi
  00016	5b		 pop	 ebx
  00017	8b e5		 mov	 esp, ebp
  00019	5d		 pop	 ebp
  0001a	c3		 ret	 0
?_Getal@?$_Tree@V?$_Tmap_traits@HU_MONSTER_HERD_DATA@@U?$less@H@std@@V?$allocator@U?$pair@$$CBHU_MONSTER_HERD_DATA@@@std@@@3@$0A@@std@@@std@@IAEAAV?$allocator@U?$_Tree_node@U?$pair@$$CBHU_MONSTER_HERD_DATA@@@std@@PAX@std@@@2@XZ ENDP ; std::_Tree<std::_Tmap_traits<int,_MONSTER_HERD_DATA,std::less<int>,std::allocator<std::pair<int const ,_MONSTER_HERD_DATA> >,0> >::_Getal
_TEXT	ENDS
; Function compile flags: /Odtp /ZI
; File C:\Program Files (x86)\Microsoft Visual Studio\2019\Community\VC\Tools\MSVC\14.27.29110\include\xtree
;	COMDAT ?_Getcomp@?$_Tree@V?$_Tmap_traits@HU_MONSTER_HERD_DATA@@U?$less@H@std@@V?$allocator@U?$pair@$$CBHU_MONSTER_HERD_DATA@@@std@@@3@$0A@@std@@@std@@IBEABU?$less@H@2@XZ
_TEXT	SEGMENT
_this$ = -4						; size = 4
?_Getcomp@?$_Tree@V?$_Tmap_traits@HU_MONSTER_HERD_DATA@@U?$less@H@std@@V?$allocator@U?$pair@$$CBHU_MONSTER_HERD_DATA@@@std@@@3@$0A@@std@@@std@@IBEABU?$less@H@2@XZ PROC ; std::_Tree<std::_Tmap_traits<int,_MONSTER_HERD_DATA,std::less<int>,std::allocator<std::pair<int const ,_MONSTER_HERD_DATA> >,0> >::_Getcomp, COMDAT
; _this$ = ecx

; 2034 :     const key_compare& _Getcomp() const noexcept {

  00000	55		 push	 ebp
  00001	8b ec		 mov	 ebp, esp
  00003	83 ec 44	 sub	 esp, 68			; 00000044H
  00006	53		 push	 ebx
  00007	56		 push	 esi
  00008	57		 push	 edi
  00009	89 4d fc	 mov	 DWORD PTR _this$[ebp], ecx

; 2035 :         return _Mypair._Get_first();

  0000c	8b 4d fc	 mov	 ecx, DWORD PTR _this$[ebp]
  0000f	e8 00 00 00 00	 call	 ?_Get_first@?$_Compressed_pair@U?$less@H@std@@V?$_Compressed_pair@V?$allocator@U?$_Tree_node@U?$pair@$$CBHU_MONSTER_HERD_DATA@@@std@@PAX@std@@@std@@V?$_Tree_val@U?$_Tree_simple_types@U?$pair@$$CBHU_MONSTER_HERD_DATA@@@std@@@std@@@2@$00@2@$00@std@@QBEABU?$less@H@2@XZ ; std::_Compressed_pair<std::less<int>,std::_Compressed_pair<std::allocator<std::_Tree_node<std::pair<int const ,_MONSTER_HERD_DATA>,void *> >,std::_Tree_val<std::_Tree_simple_types<std::pair<int const ,_MONSTER_HERD_DATA> > >,1>,1>::_Get_first

; 2036 :     }

  00014	5f		 pop	 edi
  00015	5e		 pop	 esi
  00016	5b		 pop	 ebx
  00017	8b e5		 mov	 esp, ebp
  00019	5d		 pop	 ebp
  0001a	c3		 ret	 0
?_Getcomp@?$_Tree@V?$_Tmap_traits@HU_MONSTER_HERD_DATA@@U?$less@H@std@@V?$allocator@U?$pair@$$CBHU_MONSTER_HERD_DATA@@@std@@@3@$0A@@std@@@std@@IBEABU?$less@H@2@XZ ENDP ; std::_Tree<std::_Tmap_traits<int,_MONSTER_HERD_DATA,std::less<int>,std::allocator<std::pair<int const ,_MONSTER_HERD_DATA> >,0> >::_Getcomp
_TEXT	ENDS
; Function compile flags: /Odtp /ZI
; File C:\Program Files (x86)\Microsoft Visual Studio\2019\Community\VC\Tools\MSVC\14.27.29110\include\xtree
;	COMDAT ?_Alloc_sentinel_and_proxy@?$_Tree@V?$_Tmap_traits@HU_MONSTER_HERD_DATA@@U?$less@H@std@@V?$allocator@U?$pair@$$CBHU_MONSTER_HERD_DATA@@@std@@@3@$0A@@std@@@std@@IAEXXZ
_TEXT	SEGMENT
__Proxy$ = -14						; size = 1
_$S23$ = -13						; size = 1
__Alproxy$ = -12					; size = 4
__Scary$ = -8						; size = 4
_this$ = -4						; size = 4
?_Alloc_sentinel_and_proxy@?$_Tree@V?$_Tmap_traits@HU_MONSTER_HERD_DATA@@U?$less@H@std@@V?$allocator@U?$pair@$$CBHU_MONSTER_HERD_DATA@@@std@@@3@$0A@@std@@@std@@IAEXXZ PROC ; std::_Tree<std::_Tmap_traits<int,_MONSTER_HERD_DATA,std::less<int>,std::allocator<std::pair<int const ,_MONSTER_HERD_DATA> >,0> >::_Alloc_sentinel_and_proxy, COMDAT
; _this$ = ecx

; 2017 :     void _Alloc_sentinel_and_proxy() {

  00000	55		 push	 ebp
  00001	8b ec		 mov	 ebp, esp
  00003	83 ec 50	 sub	 esp, 80			; 00000050H
  00006	53		 push	 ebx
  00007	56		 push	 esi
  00008	57		 push	 edi
  00009	89 4d fc	 mov	 DWORD PTR _this$[ebp], ecx

; 2018 :         const auto _Scary = _Get_scary();

  0000c	8b 4d fc	 mov	 ecx, DWORD PTR _this$[ebp]
  0000f	e8 00 00 00 00	 call	 ?_Get_scary@?$_Tree@V?$_Tmap_traits@HU_MONSTER_HERD_DATA@@U?$less@H@std@@V?$allocator@U?$pair@$$CBHU_MONSTER_HERD_DATA@@@std@@@3@$0A@@std@@@std@@IAEPAV?$_Tree_val@U?$_Tree_simple_types@U?$pair@$$CBHU_MONSTER_HERD_DATA@@@std@@@std@@@2@XZ ; std::_Tree<std::_Tmap_traits<int,_MONSTER_HERD_DATA,std::less<int>,std::allocator<std::pair<int const ,_MONSTER_HERD_DATA> >,0> >::_Get_scary
  00014	89 45 f8	 mov	 DWORD PTR __Scary$[ebp], eax

; 2019 :         auto&& _Alproxy   = _GET_PROXY_ALLOCATOR(_Alnode, _Getal());

  00017	8d 45 f3	 lea	 eax, DWORD PTR _$S23$[ebp]
  0001a	89 45 f4	 mov	 DWORD PTR __Alproxy$[ebp], eax

; 2020 :         _Container_proxy_ptr<_Alnode> _Proxy(_Alproxy, *_Scary);

  0001d	8b 45 f8	 mov	 eax, DWORD PTR __Scary$[ebp]
  00020	50		 push	 eax
  00021	8b 4d f4	 mov	 ecx, DWORD PTR __Alproxy$[ebp]
  00024	51		 push	 ecx
  00025	8d 4d f2	 lea	 ecx, DWORD PTR __Proxy$[ebp]
  00028	e8 00 00 00 00	 call	 ??0_Fake_proxy_ptr_impl@std@@QAE@ABU_Fake_allocator@1@ABU_Container_base0@1@@Z ; std::_Fake_proxy_ptr_impl::_Fake_proxy_ptr_impl

; 2021 :         _Scary->_Myhead = _Node::_Buyheadnode(_Getal());

  0002d	8b 4d fc	 mov	 ecx, DWORD PTR _this$[ebp]
  00030	e8 00 00 00 00	 call	 ?_Getal@?$_Tree@V?$_Tmap_traits@HU_MONSTER_HERD_DATA@@U?$less@H@std@@V?$allocator@U?$pair@$$CBHU_MONSTER_HERD_DATA@@@std@@@3@$0A@@std@@@std@@IAEAAV?$allocator@U?$_Tree_node@U?$pair@$$CBHU_MONSTER_HERD_DATA@@@std@@PAX@std@@@2@XZ ; std::_Tree<std::_Tmap_traits<int,_MONSTER_HERD_DATA,std::less<int>,std::allocator<std::pair<int const ,_MONSTER_HERD_DATA> >,0> >::_Getal
  00035	50		 push	 eax
  00036	e8 00 00 00 00	 call	 ??$_Buyheadnode@V?$allocator@U?$_Tree_node@U?$pair@$$CBHU_MONSTER_HERD_DATA@@@std@@PAX@std@@@std@@@?$_Tree_node@U?$pair@$$CBHU_MONSTER_HERD_DATA@@@std@@PAX@std@@SAPAU01@AAV?$allocator@U?$_Tree_node@U?$pair@$$CBHU_MONSTER_HERD_DATA@@@std@@PAX@std@@@1@@Z ; std::_Tree_node<std::pair<int const ,_MONSTER_HERD_DATA>,void *>::_Buyheadnode<std::allocator<std::_Tree_node<std::pair<int const ,_MONSTER_HERD_DATA>,void *> > >
  0003b	83 c4 04	 add	 esp, 4
  0003e	8b 4d f8	 mov	 ecx, DWORD PTR __Scary$[ebp]
  00041	89 01		 mov	 DWORD PTR [ecx], eax

; 2022 :         _Proxy._Release();

  00043	8d 4d f2	 lea	 ecx, DWORD PTR __Proxy$[ebp]
  00046	e8 00 00 00 00	 call	 ?_Release@_Fake_proxy_ptr_impl@std@@QAEXXZ ; std::_Fake_proxy_ptr_impl::_Release

; 2023 :     }

  0004b	5f		 pop	 edi
  0004c	5e		 pop	 esi
  0004d	5b		 pop	 ebx
  0004e	8b e5		 mov	 esp, ebp
  00050	5d		 pop	 ebp
  00051	c3		 ret	 0
?_Alloc_sentinel_and_proxy@?$_Tree@V?$_Tmap_traits@HU_MONSTER_HERD_DATA@@U?$less@H@std@@V?$allocator@U?$pair@$$CBHU_MONSTER_HERD_DATA@@@std@@@3@$0A@@std@@@std@@IAEXXZ ENDP ; std::_Tree<std::_Tmap_traits<int,_MONSTER_HERD_DATA,std::less<int>,std::allocator<std::pair<int const ,_MONSTER_HERD_DATA> >,0> >::_Alloc_sentinel_and_proxy
_TEXT	ENDS
; Function compile flags: /Odtp /ZI
; File C:\Program Files (x86)\Microsoft Visual Studio\2019\Community\VC\Tools\MSVC\14.27.29110\include\xtree
;	COMDAT ?_Check_grow_by_1@?$_Tree@V?$_Tmap_traits@HU_MONSTER_HERD_DATA@@U?$less@H@std@@V?$allocator@U?$pair@$$CBHU_MONSTER_HERD_DATA@@@std@@@3@$0A@@std@@@std@@IAEXXZ
_TEXT	SEGMENT
_this$ = -4						; size = 4
?_Check_grow_by_1@?$_Tree@V?$_Tmap_traits@HU_MONSTER_HERD_DATA@@U?$less@H@std@@V?$allocator@U?$pair@$$CBHU_MONSTER_HERD_DATA@@@std@@@3@$0A@@std@@@std@@IAEXXZ PROC ; std::_Tree<std::_Tmap_traits<int,_MONSTER_HERD_DATA,std::less<int>,std::allocator<std::pair<int const ,_MONSTER_HERD_DATA> >,0> >::_Check_grow_by_1, COMDAT
; _this$ = ecx

; 1718 :     void _Check_grow_by_1() {

  00000	55		 push	 ebp
  00001	8b ec		 mov	 ebp, esp
  00003	83 ec 44	 sub	 esp, 68			; 00000044H
  00006	53		 push	 ebx
  00007	56		 push	 esi
  00008	57		 push	 edi
  00009	89 4d fc	 mov	 DWORD PTR _this$[ebp], ecx

; 1719 :         if (max_size() == _Get_scary()->_Mysize) {

  0000c	8b 4d fc	 mov	 ecx, DWORD PTR _this$[ebp]
  0000f	e8 00 00 00 00	 call	 ?max_size@?$_Tree@V?$_Tmap_traits@HU_MONSTER_HERD_DATA@@U?$less@H@std@@V?$allocator@U?$pair@$$CBHU_MONSTER_HERD_DATA@@@std@@@3@$0A@@std@@@std@@QBEIXZ ; std::_Tree<std::_Tmap_traits<int,_MONSTER_HERD_DATA,std::less<int>,std::allocator<std::pair<int const ,_MONSTER_HERD_DATA> >,0> >::max_size
  00014	8b f0		 mov	 esi, eax
  00016	8b 4d fc	 mov	 ecx, DWORD PTR _this$[ebp]
  00019	e8 00 00 00 00	 call	 ?_Get_scary@?$_Tree@V?$_Tmap_traits@HU_MONSTER_HERD_DATA@@U?$less@H@std@@V?$allocator@U?$pair@$$CBHU_MONSTER_HERD_DATA@@@std@@@3@$0A@@std@@@std@@IAEPAV?$_Tree_val@U?$_Tree_simple_types@U?$pair@$$CBHU_MONSTER_HERD_DATA@@@std@@@std@@@2@XZ ; std::_Tree<std::_Tmap_traits<int,_MONSTER_HERD_DATA,std::less<int>,std::allocator<std::pair<int const ,_MONSTER_HERD_DATA> >,0> >::_Get_scary
  0001e	3b 70 04	 cmp	 esi, DWORD PTR [eax+4]
  00021	75 05		 jne	 SHORT $LN3@Check_grow

; 1720 :             _Throw_tree_length_error();

  00023	e8 00 00 00 00	 call	 ?_Throw_tree_length_error@std@@YAXXZ ; std::_Throw_tree_length_error
$LN3@Check_grow:

; 1721 :         }
; 1722 :     }

  00028	5f		 pop	 edi
  00029	5e		 pop	 esi
  0002a	5b		 pop	 ebx
  0002b	8b e5		 mov	 esp, ebp
  0002d	5d		 pop	 ebp
  0002e	c3		 ret	 0
?_Check_grow_by_1@?$_Tree@V?$_Tmap_traits@HU_MONSTER_HERD_DATA@@U?$less@H@std@@V?$allocator@U?$pair@$$CBHU_MONSTER_HERD_DATA@@@std@@@3@$0A@@std@@@std@@IAEXXZ ENDP ; std::_Tree<std::_Tmap_traits<int,_MONSTER_HERD_DATA,std::less<int>,std::allocator<std::pair<int const ,_MONSTER_HERD_DATA> >,0> >::_Check_grow_by_1
_TEXT	ENDS
; Function compile flags: /Odtp /ZI
; File C:\Program Files (x86)\Microsoft Visual Studio\2019\Community\VC\Tools\MSVC\14.27.29110\include\xtree
;	COMDAT ?find@?$_Tree@V?$_Tmap_traits@HU_MONSTER_HERD_DATA@@U?$less@H@std@@V?$allocator@U?$pair@$$CBHU_MONSTER_HERD_DATA@@@std@@@3@$0A@@std@@@std@@QAE?AV?$_Tree_iterator@V?$_Tree_val@U?$_Tree_simple_types@U?$pair@$$CBHU_MONSTER_HERD_DATA@@@std@@@std@@@std@@@2@ABH@Z
_TEXT	SEGMENT
_this$ = -4						; size = 4
___$ReturnUdt$ = 8					; size = 4
__Keyval$ = 12						; size = 4
?find@?$_Tree@V?$_Tmap_traits@HU_MONSTER_HERD_DATA@@U?$less@H@std@@V?$allocator@U?$pair@$$CBHU_MONSTER_HERD_DATA@@@std@@@3@$0A@@std@@@std@@QAE?AV?$_Tree_iterator@V?$_Tree_val@U?$_Tree_simple_types@U?$pair@$$CBHU_MONSTER_HERD_DATA@@@std@@@std@@@std@@@2@ABH@Z PROC ; std::_Tree<std::_Tmap_traits<int,_MONSTER_HERD_DATA,std::less<int>,std::allocator<std::pair<int const ,_MONSTER_HERD_DATA> >,0> >::find, COMDAT
; _this$ = ecx

; 1467 :     _NODISCARD iterator find(const key_type& _Keyval) {

  00000	55		 push	 ebp
  00001	8b ec		 mov	 ebp, esp
  00003	83 ec 44	 sub	 esp, 68			; 00000044H
  00006	53		 push	 ebx
  00007	56		 push	 esi
  00008	57		 push	 edi
  00009	89 4d fc	 mov	 DWORD PTR _this$[ebp], ecx

; 1468 :         return iterator(_Find(_Keyval), _Get_scary());

  0000c	8b 4d fc	 mov	 ecx, DWORD PTR _this$[ebp]
  0000f	e8 00 00 00 00	 call	 ?_Get_scary@?$_Tree@V?$_Tmap_traits@HU_MONSTER_HERD_DATA@@U?$less@H@std@@V?$allocator@U?$pair@$$CBHU_MONSTER_HERD_DATA@@@std@@@3@$0A@@std@@@std@@IAEPAV?$_Tree_val@U?$_Tree_simple_types@U?$pair@$$CBHU_MONSTER_HERD_DATA@@@std@@@std@@@2@XZ ; std::_Tree<std::_Tmap_traits<int,_MONSTER_HERD_DATA,std::less<int>,std::allocator<std::pair<int const ,_MONSTER_HERD_DATA> >,0> >::_Get_scary
  00014	50		 push	 eax
  00015	8b 45 0c	 mov	 eax, DWORD PTR __Keyval$[ebp]
  00018	50		 push	 eax
  00019	8b 4d fc	 mov	 ecx, DWORD PTR _this$[ebp]
  0001c	e8 00 00 00 00	 call	 ??$_Find@H@?$_Tree@V?$_Tmap_traits@HU_MONSTER_HERD_DATA@@U?$less@H@std@@V?$allocator@U?$pair@$$CBHU_MONSTER_HERD_DATA@@@std@@@3@$0A@@std@@@std@@ABEPAU?$_Tree_node@U?$pair@$$CBHU_MONSTER_HERD_DATA@@@std@@PAX@1@ABH@Z ; std::_Tree<std::_Tmap_traits<int,_MONSTER_HERD_DATA,std::less<int>,std::allocator<std::pair<int const ,_MONSTER_HERD_DATA> >,0> >::_Find<int>
  00021	50		 push	 eax
  00022	8b 4d 08	 mov	 ecx, DWORD PTR ___$ReturnUdt$[ebp]
  00025	e8 00 00 00 00	 call	 ??0?$_Tree_iterator@V?$_Tree_val@U?$_Tree_simple_types@U?$pair@$$CBHU_MONSTER_HERD_DATA@@@std@@@std@@@std@@@std@@QAE@PAU?$_Tree_node@U?$pair@$$CBHU_MONSTER_HERD_DATA@@@std@@PAX@1@PBV?$_Tree_val@U?$_Tree_simple_types@U?$pair@$$CBHU_MONSTER_HERD_DATA@@@std@@@std@@@1@@Z
  0002a	8b 45 08	 mov	 eax, DWORD PTR ___$ReturnUdt$[ebp]

; 1469 :     }

  0002d	5f		 pop	 edi
  0002e	5e		 pop	 esi
  0002f	5b		 pop	 ebx
  00030	8b e5		 mov	 esp, ebp
  00032	5d		 pop	 ebp
  00033	c2 08 00	 ret	 8
?find@?$_Tree@V?$_Tmap_traits@HU_MONSTER_HERD_DATA@@U?$less@H@std@@V?$allocator@U?$pair@$$CBHU_MONSTER_HERD_DATA@@@std@@@3@$0A@@std@@@std@@QAE?AV?$_Tree_iterator@V?$_Tree_val@U?$_Tree_simple_types@U?$pair@$$CBHU_MONSTER_HERD_DATA@@@std@@@std@@@std@@@2@ABH@Z ENDP ; std::_Tree<std::_Tmap_traits<int,_MONSTER_HERD_DATA,std::less<int>,std::allocator<std::pair<int const ,_MONSTER_HERD_DATA> >,0> >::find
_TEXT	ENDS
; Function compile flags: /Odtp /ZI
; File C:\Program Files (x86)\Microsoft Visual Studio\2019\Community\VC\Tools\MSVC\14.27.29110\include\xtree
;	COMDAT ?clear@?$_Tree@V?$_Tmap_traits@HU_MONSTER_HERD_DATA@@U?$less@H@std@@V?$allocator@U?$pair@$$CBHU_MONSTER_HERD_DATA@@@std@@@3@$0A@@std@@@std@@QAEXXZ
_TEXT	SEGMENT
__Head$ = -12						; size = 4
__Scary$ = -8						; size = 4
_this$ = -4						; size = 4
?clear@?$_Tree@V?$_Tmap_traits@HU_MONSTER_HERD_DATA@@U?$less@H@std@@V?$allocator@U?$pair@$$CBHU_MONSTER_HERD_DATA@@@std@@@3@$0A@@std@@@std@@QAEXXZ PROC ; std::_Tree<std::_Tmap_traits<int,_MONSTER_HERD_DATA,std::less<int>,std::allocator<std::pair<int const ,_MONSTER_HERD_DATA> >,0> >::clear, COMDAT
; _this$ = ecx

; 1444 :     void clear() noexcept {

  00000	55		 push	 ebp
  00001	8b ec		 mov	 ebp, esp
  00003	83 ec 4c	 sub	 esp, 76			; 0000004cH
  00006	53		 push	 ebx
  00007	56		 push	 esi
  00008	57		 push	 edi
  00009	89 4d fc	 mov	 DWORD PTR _this$[ebp], ecx

; 1445 :         const auto _Scary = _Get_scary();

  0000c	8b 4d fc	 mov	 ecx, DWORD PTR _this$[ebp]
  0000f	e8 00 00 00 00	 call	 ?_Get_scary@?$_Tree@V?$_Tmap_traits@HU_MONSTER_HERD_DATA@@U?$less@H@std@@V?$allocator@U?$pair@$$CBHU_MONSTER_HERD_DATA@@@std@@@3@$0A@@std@@@std@@IAEPAV?$_Tree_val@U?$_Tree_simple_types@U?$pair@$$CBHU_MONSTER_HERD_DATA@@@std@@@std@@@2@XZ ; std::_Tree<std::_Tmap_traits<int,_MONSTER_HERD_DATA,std::less<int>,std::allocator<std::pair<int const ,_MONSTER_HERD_DATA> >,0> >::_Get_scary
  00014	89 45 f8	 mov	 DWORD PTR __Scary$[ebp], eax

; 1446 :         _Scary->_Orphan_ptr(nullptr);

  00017	6a 00		 push	 0
  00019	8b 4d f8	 mov	 ecx, DWORD PTR __Scary$[ebp]
  0001c	e8 00 00 00 00	 call	 ?_Orphan_ptr@?$_Tree_val@U?$_Tree_simple_types@U?$pair@$$CBHU_MONSTER_HERD_DATA@@@std@@@std@@@std@@QAEXQAU?$_Tree_node@U?$pair@$$CBHU_MONSTER_HERD_DATA@@@std@@PAX@2@@Z ; std::_Tree_val<std::_Tree_simple_types<std::pair<int const ,_MONSTER_HERD_DATA> > >::_Orphan_ptr

; 1447 :         auto _Head = _Scary->_Myhead;

  00021	8b 45 f8	 mov	 eax, DWORD PTR __Scary$[ebp]
  00024	8b 08		 mov	 ecx, DWORD PTR [eax]
  00026	89 4d f4	 mov	 DWORD PTR __Head$[ebp], ecx

; 1448 :         _Scary->_Erase_tree(_Getal(), _Head->_Parent);

  00029	8b 45 f4	 mov	 eax, DWORD PTR __Head$[ebp]
  0002c	8b 48 04	 mov	 ecx, DWORD PTR [eax+4]
  0002f	51		 push	 ecx
  00030	8b 4d fc	 mov	 ecx, DWORD PTR _this$[ebp]
  00033	e8 00 00 00 00	 call	 ?_Getal@?$_Tree@V?$_Tmap_traits@HU_MONSTER_HERD_DATA@@U?$less@H@std@@V?$allocator@U?$pair@$$CBHU_MONSTER_HERD_DATA@@@std@@@3@$0A@@std@@@std@@IAEAAV?$allocator@U?$_Tree_node@U?$pair@$$CBHU_MONSTER_HERD_DATA@@@std@@PAX@std@@@2@XZ ; std::_Tree<std::_Tmap_traits<int,_MONSTER_HERD_DATA,std::less<int>,std::allocator<std::pair<int const ,_MONSTER_HERD_DATA> >,0> >::_Getal
  00038	50		 push	 eax
  00039	8b 4d f8	 mov	 ecx, DWORD PTR __Scary$[ebp]
  0003c	e8 00 00 00 00	 call	 ??$_Erase_tree@V?$allocator@U?$_Tree_node@U?$pair@$$CBHU_MONSTER_HERD_DATA@@@std@@PAX@std@@@std@@@?$_Tree_val@U?$_Tree_simple_types@U?$pair@$$CBHU_MONSTER_HERD_DATA@@@std@@@std@@@std@@QAEXAAV?$allocator@U?$_Tree_node@U?$pair@$$CBHU_MONSTER_HERD_DATA@@@std@@PAX@std@@@1@PAU?$_Tree_node@U?$pair@$$CBHU_MONSTER_HERD_DATA@@@std@@PAX@1@@Z ; std::_Tree_val<std::_Tree_simple_types<std::pair<int const ,_MONSTER_HERD_DATA> > >::_Erase_tree<std::allocator<std::_Tree_node<std::pair<int const ,_MONSTER_HERD_DATA>,void *> > >

; 1449 :         _Head->_Parent  = _Head;

  00041	8b 45 f4	 mov	 eax, DWORD PTR __Head$[ebp]
  00044	8b 4d f4	 mov	 ecx, DWORD PTR __Head$[ebp]
  00047	89 48 04	 mov	 DWORD PTR [eax+4], ecx

; 1450 :         _Head->_Left    = _Head;

  0004a	8b 45 f4	 mov	 eax, DWORD PTR __Head$[ebp]
  0004d	8b 4d f4	 mov	 ecx, DWORD PTR __Head$[ebp]
  00050	89 08		 mov	 DWORD PTR [eax], ecx

; 1451 :         _Head->_Right   = _Head;

  00052	8b 45 f4	 mov	 eax, DWORD PTR __Head$[ebp]
  00055	8b 4d f4	 mov	 ecx, DWORD PTR __Head$[ebp]
  00058	89 48 08	 mov	 DWORD PTR [eax+8], ecx

; 1452 :         _Scary->_Mysize = 0;

  0005b	8b 45 f8	 mov	 eax, DWORD PTR __Scary$[ebp]
  0005e	c7 40 04 00 00
	00 00		 mov	 DWORD PTR [eax+4], 0

; 1453 :     }

  00065	5f		 pop	 edi
  00066	5e		 pop	 esi
  00067	5b		 pop	 ebx
  00068	8b e5		 mov	 esp, ebp
  0006a	5d		 pop	 ebp
  0006b	c3		 ret	 0
?clear@?$_Tree@V?$_Tmap_traits@HU_MONSTER_HERD_DATA@@U?$less@H@std@@V?$allocator@U?$pair@$$CBHU_MONSTER_HERD_DATA@@@std@@@3@$0A@@std@@@std@@QAEXXZ ENDP ; std::_Tree<std::_Tmap_traits<int,_MONSTER_HERD_DATA,std::less<int>,std::allocator<std::pair<int const ,_MONSTER_HERD_DATA> >,0> >::clear
_TEXT	ENDS
; Function compile flags: /Odtp /ZI
; File C:\Program Files (x86)\Microsoft Visual Studio\2019\Community\VC\Tools\MSVC\14.27.29110\include\xtree
;	COMDAT ?erase@?$_Tree@V?$_Tmap_traits@HU_MONSTER_HERD_DATA@@U?$less@H@std@@V?$allocator@U?$pair@$$CBHU_MONSTER_HERD_DATA@@@std@@@3@$0A@@std@@@std@@QAE?AV?$_Tree_iterator@V?$_Tree_val@U?$_Tree_simple_types@U?$pair@$$CBHU_MONSTER_HERD_DATA@@@std@@@std@@@std@@@2@V?$_Tree_const_iterator@V?$_Tree_val@U?$_Tree_simple_types@U?$pair@$$CBHU_MONSTER_HERD_DATA@@@std@@@std@@@std@@@2@0@Z
_TEXT	SEGMENT
$T2 = -88						; size = 4
$T3 = -84						; size = 4
_this$ = -16						; size = 4
__$EHRec$ = -12						; size = 12
___$ReturnUdt$ = 8					; size = 4
__First$ = 12						; size = 4
__Last$ = 16						; size = 4
?erase@?$_Tree@V?$_Tmap_traits@HU_MONSTER_HERD_DATA@@U?$less@H@std@@V?$allocator@U?$pair@$$CBHU_MONSTER_HERD_DATA@@@std@@@3@$0A@@std@@@std@@QAE?AV?$_Tree_iterator@V?$_Tree_val@U?$_Tree_simple_types@U?$pair@$$CBHU_MONSTER_HERD_DATA@@@std@@@std@@@std@@@2@V?$_Tree_const_iterator@V?$_Tree_val@U?$_Tree_simple_types@U?$pair@$$CBHU_MONSTER_HERD_DATA@@@std@@@std@@@std@@@2@0@Z PROC ; std::_Tree<std::_Tmap_traits<int,_MONSTER_HERD_DATA,std::less<int>,std::allocator<std::pair<int const ,_MONSTER_HERD_DATA> >,0> >::erase, COMDAT
; _this$ = ecx

; 1431 :     iterator erase(const_iterator _First, const_iterator _Last) noexcept /* strengthened */ {

  00000	55		 push	 ebp
  00001	8b ec		 mov	 ebp, esp
  00003	6a ff		 push	 -1
  00005	68 00 00 00 00	 push	 __ehhandler$?erase@?$_Tree@V?$_Tmap_traits@HU_MONSTER_HERD_DATA@@U?$less@H@std@@V?$allocator@U?$pair@$$CBHU_MONSTER_HERD_DATA@@@std@@@3@$0A@@std@@@std@@QAE?AV?$_Tree_iterator@V?$_Tree_val@U?$_Tree_simple_types@U?$pair@$$CBHU_MONSTER_HERD_DATA@@@std@@@std@@@std@@@2@V?$_Tree_const_iterator@V?$_Tree_val@U?$_Tree_simple_types@U?$pair@$$CBHU_MONSTER_HERD_DATA@@@std@@@std@@@std@@@2@0@Z
  0000a	64 a1 00 00 00
	00		 mov	 eax, DWORD PTR fs:0
  00010	50		 push	 eax
  00011	83 ec 4c	 sub	 esp, 76			; 0000004cH
  00014	53		 push	 ebx
  00015	56		 push	 esi
  00016	57		 push	 edi
  00017	a1 00 00 00 00	 mov	 eax, DWORD PTR ___security_cookie
  0001c	33 c5		 xor	 eax, ebp
  0001e	50		 push	 eax
  0001f	8d 45 f4	 lea	 eax, DWORD PTR __$EHRec$[ebp]
  00022	64 a3 00 00 00
	00		 mov	 DWORD PTR fs:0, eax
  00028	89 4d f0	 mov	 DWORD PTR _this$[ebp], ecx

; 1432 :         return iterator(_Erase_unchecked(_First._Unwrapped(), _Last._Unwrapped()), _Get_scary());

  0002b	8b 4d f0	 mov	 ecx, DWORD PTR _this$[ebp]
  0002e	e8 00 00 00 00	 call	 ?_Get_scary@?$_Tree@V?$_Tmap_traits@HU_MONSTER_HERD_DATA@@U?$less@H@std@@V?$allocator@U?$pair@$$CBHU_MONSTER_HERD_DATA@@@std@@@3@$0A@@std@@@std@@IAEPAV?$_Tree_val@U?$_Tree_simple_types@U?$pair@$$CBHU_MONSTER_HERD_DATA@@@std@@@std@@@2@XZ ; std::_Tree<std::_Tmap_traits<int,_MONSTER_HERD_DATA,std::less<int>,std::allocator<std::pair<int const ,_MONSTER_HERD_DATA> >,0> >::_Get_scary
  00033	50		 push	 eax
  00034	8d 45 ac	 lea	 eax, DWORD PTR $T3[ebp]
  00037	50		 push	 eax
  00038	8d 4d 10	 lea	 ecx, DWORD PTR __Last$[ebp]
  0003b	e8 00 00 00 00	 call	 ?_Unwrapped@?$_Tree_const_iterator@V?$_Tree_val@U?$_Tree_simple_types@U?$pair@$$CBHU_MONSTER_HERD_DATA@@@std@@@std@@@std@@@std@@QBE?AV?$_Tree_unchecked_const_iterator@V?$_Tree_val@U?$_Tree_simple_types@U?$pair@$$CBHU_MONSTER_HERD_DATA@@@std@@@std@@@std@@U_Iterator_base0@2@@2@XZ ; std::_Tree_const_iterator<std::_Tree_val<std::_Tree_simple_types<std::pair<int const ,_MONSTER_HERD_DATA> > > >::_Unwrapped
  00040	8b 08		 mov	 ecx, DWORD PTR [eax]
  00042	51		 push	 ecx
  00043	8d 55 a8	 lea	 edx, DWORD PTR $T2[ebp]
  00046	52		 push	 edx
  00047	8d 4d 0c	 lea	 ecx, DWORD PTR __First$[ebp]
  0004a	e8 00 00 00 00	 call	 ?_Unwrapped@?$_Tree_const_iterator@V?$_Tree_val@U?$_Tree_simple_types@U?$pair@$$CBHU_MONSTER_HERD_DATA@@@std@@@std@@@std@@@std@@QBE?AV?$_Tree_unchecked_const_iterator@V?$_Tree_val@U?$_Tree_simple_types@U?$pair@$$CBHU_MONSTER_HERD_DATA@@@std@@@std@@@std@@U_Iterator_base0@2@@2@XZ ; std::_Tree_const_iterator<std::_Tree_val<std::_Tree_simple_types<std::pair<int const ,_MONSTER_HERD_DATA> > > >::_Unwrapped
  0004f	8b 00		 mov	 eax, DWORD PTR [eax]
  00051	50		 push	 eax
  00052	8b 4d f0	 mov	 ecx, DWORD PTR _this$[ebp]
  00055	e8 00 00 00 00	 call	 ?_Erase_unchecked@?$_Tree@V?$_Tmap_traits@HU_MONSTER_HERD_DATA@@U?$less@H@std@@V?$allocator@U?$pair@$$CBHU_MONSTER_HERD_DATA@@@std@@@3@$0A@@std@@@std@@AAEPAU?$_Tree_node@U?$pair@$$CBHU_MONSTER_HERD_DATA@@@std@@PAX@2@V?$_Tree_unchecked_const_iterator@V?$_Tree_val@U?$_Tree_simple_types@U?$pair@$$CBHU_MONSTER_HERD_DATA@@@std@@@std@@@std@@U_Iterator_base0@2@@2@0@Z ; std::_Tree<std::_Tmap_traits<int,_MONSTER_HERD_DATA,std::less<int>,std::allocator<std::pair<int const ,_MONSTER_HERD_DATA> >,0> >::_Erase_unchecked
  0005a	50		 push	 eax
  0005b	8b 4d 08	 mov	 ecx, DWORD PTR ___$ReturnUdt$[ebp]
  0005e	e8 00 00 00 00	 call	 ??0?$_Tree_iterator@V?$_Tree_val@U?$_Tree_simple_types@U?$pair@$$CBHU_MONSTER_HERD_DATA@@@std@@@std@@@std@@@std@@QAE@PAU?$_Tree_node@U?$pair@$$CBHU_MONSTER_HERD_DATA@@@std@@PAX@1@PBV?$_Tree_val@U?$_Tree_simple_types@U?$pair@$$CBHU_MONSTER_HERD_DATA@@@std@@@std@@@1@@Z
  00063	8b 45 08	 mov	 eax, DWORD PTR ___$ReturnUdt$[ebp]

; 1433 :     }

  00066	8b 4d f4	 mov	 ecx, DWORD PTR __$EHRec$[ebp]
  00069	64 89 0d 00 00
	00 00		 mov	 DWORD PTR fs:0, ecx
  00070	59		 pop	 ecx
  00071	5f		 pop	 edi
  00072	5e		 pop	 esi
  00073	5b		 pop	 ebx
  00074	8b e5		 mov	 esp, ebp
  00076	5d		 pop	 ebp
  00077	c2 0c 00	 ret	 12			; 0000000cH
  0007a	cc		 int	 3
  0007b	cc		 int	 3
  0007c	cc		 int	 3
  0007d	cc		 int	 3
  0007e	cc		 int	 3
_TEXT	ENDS
;	COMDAT text$x
text$x	SEGMENT
__ehhandler$?erase@?$_Tree@V?$_Tmap_traits@HU_MONSTER_HERD_DATA@@U?$less@H@std@@V?$allocator@U?$pair@$$CBHU_MONSTER_HERD_DATA@@@std@@@3@$0A@@std@@@std@@QAE?AV?$_Tree_iterator@V?$_Tree_val@U?$_Tree_simple_types@U?$pair@$$CBHU_MONSTER_HERD_DATA@@@std@@@std@@@std@@@2@V?$_Tree_const_iterator@V?$_Tree_val@U?$_Tree_simple_types@U?$pair@$$CBHU_MONSTER_HERD_DATA@@@std@@@std@@@std@@@2@0@Z:
  00000	90		 npad	 1
  00001	90		 npad	 1
  00002	8b 54 24 08	 mov	 edx, DWORD PTR [esp+8]
  00006	8d 42 0c	 lea	 eax, DWORD PTR [edx+12]
  00009	8b 4a a4	 mov	 ecx, DWORD PTR [edx-92]
  0000c	33 c8		 xor	 ecx, eax
  0000e	e8 00 00 00 00	 call	 @__security_check_cookie@4
  00013	b8 00 00 00 00	 mov	 eax, OFFSET __ehfuncinfo$?erase@?$_Tree@V?$_Tmap_traits@HU_MONSTER_HERD_DATA@@U?$less@H@std@@V?$allocator@U?$pair@$$CBHU_MONSTER_HERD_DATA@@@std@@@3@$0A@@std@@@std@@QAE?AV?$_Tree_iterator@V?$_Tree_val@U?$_Tree_simple_types@U?$pair@$$CBHU_MONSTER_HERD_DATA@@@std@@@std@@@std@@@2@V?$_Tree_const_iterator@V?$_Tree_val@U?$_Tree_simple_types@U?$pair@$$CBHU_MONSTER_HERD_DATA@@@std@@@std@@@std@@@2@0@Z
  00018	e9 00 00 00 00	 jmp	 ___CxxFrameHandler3
text$x	ENDS
?erase@?$_Tree@V?$_Tmap_traits@HU_MONSTER_HERD_DATA@@U?$less@H@std@@V?$allocator@U?$pair@$$CBHU_MONSTER_HERD_DATA@@@std@@@3@$0A@@std@@@std@@QAE?AV?$_Tree_iterator@V?$_Tree_val@U?$_Tree_simple_types@U?$pair@$$CBHU_MONSTER_HERD_DATA@@@std@@@std@@@std@@@2@V?$_Tree_const_iterator@V?$_Tree_val@U?$_Tree_simple_types@U?$pair@$$CBHU_MONSTER_HERD_DATA@@@std@@@std@@@std@@@2@0@Z ENDP ; std::_Tree<std::_Tmap_traits<int,_MONSTER_HERD_DATA,std::less<int>,std::allocator<std::pair<int const ,_MONSTER_HERD_DATA> >,0> >::erase
; Function compile flags: /Odtp /ZI
; File C:\Program Files (x86)\Microsoft Visual Studio\2019\Community\VC\Tools\MSVC\14.27.29110\include\xtree
;	COMDAT ?_Erase_unchecked@?$_Tree@V?$_Tmap_traits@HU_MONSTER_HERD_DATA@@U?$less@H@std@@V?$allocator@U?$pair@$$CBHU_MONSTER_HERD_DATA@@@std@@@3@$0A@@std@@@std@@AAEPAU?$_Tree_node@U?$pair@$$CBHU_MONSTER_HERD_DATA@@@std@@PAX@2@V?$_Tree_unchecked_const_iterator@V?$_Tree_val@U?$_Tree_simple_types@U?$pair@$$CBHU_MONSTER_HERD_DATA@@@std@@@std@@@std@@U_Iterator_base0@2@@2@0@Z
_TEXT	SEGMENT
$T2 = -88						; size = 4
__Begin$ = -20						; size = 4
_this$ = -16						; size = 4
__$EHRec$ = -12						; size = 12
__First$ = 8						; size = 4
__Last$ = 12						; size = 4
?_Erase_unchecked@?$_Tree@V?$_Tmap_traits@HU_MONSTER_HERD_DATA@@U?$less@H@std@@V?$allocator@U?$pair@$$CBHU_MONSTER_HERD_DATA@@@std@@@3@$0A@@std@@@std@@AAEPAU?$_Tree_node@U?$pair@$$CBHU_MONSTER_HERD_DATA@@@std@@PAX@2@V?$_Tree_unchecked_const_iterator@V?$_Tree_val@U?$_Tree_simple_types@U?$pair@$$CBHU_MONSTER_HERD_DATA@@@std@@@std@@@std@@U_Iterator_base0@2@@2@0@Z PROC ; std::_Tree<std::_Tmap_traits<int,_MONSTER_HERD_DATA,std::less<int>,std::allocator<std::pair<int const ,_MONSTER_HERD_DATA> >,0> >::_Erase_unchecked, COMDAT
; _this$ = ecx

; 1395 :     _Nodeptr _Erase_unchecked(_Unchecked_const_iterator _First, _Unchecked_const_iterator _Last) noexcept {

  00000	55		 push	 ebp
  00001	8b ec		 mov	 ebp, esp
  00003	6a ff		 push	 -1
  00005	68 00 00 00 00	 push	 __ehhandler$?_Erase_unchecked@?$_Tree@V?$_Tmap_traits@HU_MONSTER_HERD_DATA@@U?$less@H@std@@V?$allocator@U?$pair@$$CBHU_MONSTER_HERD_DATA@@@std@@@3@$0A@@std@@@std@@AAEPAU?$_Tree_node@U?$pair@$$CBHU_MONSTER_HERD_DATA@@@std@@PAX@2@V?$_Tree_unchecked_const_iterator@V?$_Tree_val@U?$_Tree_simple_types@U?$pair@$$CBHU_MONSTER_HERD_DATA@@@std@@@std@@@std@@U_Iterator_base0@2@@2@0@Z
  0000a	64 a1 00 00 00
	00		 mov	 eax, DWORD PTR fs:0
  00010	50		 push	 eax
  00011	83 ec 4c	 sub	 esp, 76			; 0000004cH
  00014	53		 push	 ebx
  00015	56		 push	 esi
  00016	57		 push	 edi
  00017	a1 00 00 00 00	 mov	 eax, DWORD PTR ___security_cookie
  0001c	33 c5		 xor	 eax, ebp
  0001e	50		 push	 eax
  0001f	8d 45 f4	 lea	 eax, DWORD PTR __$EHRec$[ebp]
  00022	64 a3 00 00 00
	00		 mov	 DWORD PTR fs:0, eax
  00028	89 4d f0	 mov	 DWORD PTR _this$[ebp], ecx

; 1396 :         const auto _Begin = _Unchecked_begin();

  0002b	8d 45 ec	 lea	 eax, DWORD PTR __Begin$[ebp]
  0002e	50		 push	 eax
  0002f	8b 4d f0	 mov	 ecx, DWORD PTR _this$[ebp]
  00032	e8 00 00 00 00	 call	 ?_Unchecked_begin@?$_Tree@V?$_Tmap_traits@HU_MONSTER_HERD_DATA@@U?$less@H@std@@V?$allocator@U?$pair@$$CBHU_MONSTER_HERD_DATA@@@std@@@3@$0A@@std@@@std@@QAE?AV?$_Tree_unchecked_iterator@V?$_Tree_val@U?$_Tree_simple_types@U?$pair@$$CBHU_MONSTER_HERD_DATA@@@std@@@std@@@std@@@2@XZ ; std::_Tree<std::_Tmap_traits<int,_MONSTER_HERD_DATA,std::less<int>,std::allocator<std::pair<int const ,_MONSTER_HERD_DATA> >,0> >::_Unchecked_begin

; 1397 :         if (_First == _Begin && _Last._Ptr->_Isnil) {

  00037	8d 45 ec	 lea	 eax, DWORD PTR __Begin$[ebp]
  0003a	50		 push	 eax
  0003b	8d 4d 08	 lea	 ecx, DWORD PTR __First$[ebp]
  0003e	e8 00 00 00 00	 call	 ??8?$_Tree_unchecked_const_iterator@V?$_Tree_val@U?$_Tree_simple_types@U?$pair@$$CBHU_MONSTER_HERD_DATA@@@std@@@std@@@std@@U_Iterator_base0@2@@std@@QBE_NABV01@@Z ; std::_Tree_unchecked_const_iterator<std::_Tree_val<std::_Tree_simple_types<std::pair<int const ,_MONSTER_HERD_DATA> > >,std::_Iterator_base0>::operator==
  00043	0f b6 c8	 movzx	 ecx, al
  00046	85 c9		 test	 ecx, ecx
  00048	74 18		 je	 SHORT $LN2@Erase_unch
  0004a	8b 45 0c	 mov	 eax, DWORD PTR __Last$[ebp]
  0004d	0f be 48 0d	 movsx	 ecx, BYTE PTR [eax+13]
  00051	85 c9		 test	 ecx, ecx
  00053	74 0d		 je	 SHORT $LN2@Erase_unch

; 1398 :             // erase all
; 1399 :             clear();

  00055	8b 4d f0	 mov	 ecx, DWORD PTR _this$[ebp]
  00058	e8 00 00 00 00	 call	 ?clear@?$_Tree@V?$_Tmap_traits@HU_MONSTER_HERD_DATA@@U?$less@H@std@@V?$allocator@U?$pair@$$CBHU_MONSTER_HERD_DATA@@@std@@@3@$0A@@std@@@std@@QAEXXZ ; std::_Tree<std::_Tmap_traits<int,_MONSTER_HERD_DATA,std::less<int>,std::allocator<std::pair<int const ,_MONSTER_HERD_DATA> >,0> >::clear

; 1400 :             return _Last._Ptr;

  0005d	8b 45 0c	 mov	 eax, DWORD PTR __Last$[ebp]
  00060	eb 31		 jmp	 SHORT $LN5@Erase_unch
$LN2@Erase_unch:

; 1401 :         }
; 1402 : 
; 1403 :         // partial erase, one at a time
; 1404 :         while (_First != _Last) {

  00062	8d 45 0c	 lea	 eax, DWORD PTR __Last$[ebp]
  00065	50		 push	 eax
  00066	8d 4d 08	 lea	 ecx, DWORD PTR __First$[ebp]
  00069	e8 00 00 00 00	 call	 ??9?$_Tree_unchecked_const_iterator@V?$_Tree_val@U?$_Tree_simple_types@U?$pair@$$CBHU_MONSTER_HERD_DATA@@@std@@@std@@@std@@U_Iterator_base0@2@@std@@QBE_NABV01@@Z ; std::_Tree_unchecked_const_iterator<std::_Tree_val<std::_Tree_simple_types<std::pair<int const ,_MONSTER_HERD_DATA> > >,std::_Iterator_base0>::operator!=
  0006e	0f b6 c8	 movzx	 ecx, al
  00071	85 c9		 test	 ecx, ecx
  00073	74 1b		 je	 SHORT $LN3@Erase_unch

; 1405 :             _Erase_unchecked(_First++);

  00075	6a 00		 push	 0
  00077	8d 45 a8	 lea	 eax, DWORD PTR $T2[ebp]
  0007a	50		 push	 eax
  0007b	8d 4d 08	 lea	 ecx, DWORD PTR __First$[ebp]
  0007e	e8 00 00 00 00	 call	 ??E?$_Tree_unchecked_const_iterator@V?$_Tree_val@U?$_Tree_simple_types@U?$pair@$$CBHU_MONSTER_HERD_DATA@@@std@@@std@@@std@@U_Iterator_base0@2@@std@@QAE?AV01@H@Z ; std::_Tree_unchecked_const_iterator<std::_Tree_val<std::_Tree_simple_types<std::pair<int const ,_MONSTER_HERD_DATA> > >,std::_Iterator_base0>::operator++
  00083	8b 08		 mov	 ecx, DWORD PTR [eax]
  00085	51		 push	 ecx
  00086	8b 4d f0	 mov	 ecx, DWORD PTR _this$[ebp]
  00089	e8 00 00 00 00	 call	 ?_Erase_unchecked@?$_Tree@V?$_Tmap_traits@HU_MONSTER_HERD_DATA@@U?$less@H@std@@V?$allocator@U?$pair@$$CBHU_MONSTER_HERD_DATA@@@std@@@3@$0A@@std@@@std@@AAEPAU?$_Tree_node@U?$pair@$$CBHU_MONSTER_HERD_DATA@@@std@@PAX@2@V?$_Tree_unchecked_const_iterator@V?$_Tree_val@U?$_Tree_simple_types@U?$pair@$$CBHU_MONSTER_HERD_DATA@@@std@@@std@@@std@@U_Iterator_base0@2@@2@@Z ; std::_Tree<std::_Tmap_traits<int,_MONSTER_HERD_DATA,std::less<int>,std::allocator<std::pair<int const ,_MONSTER_HERD_DATA> >,0> >::_Erase_unchecked

; 1406 :         }

  0008e	eb d2		 jmp	 SHORT $LN2@Erase_unch
$LN3@Erase_unch:

; 1407 : 
; 1408 :         return _Last._Ptr;

  00090	8b 45 0c	 mov	 eax, DWORD PTR __Last$[ebp]
$LN5@Erase_unch:

; 1409 :     }

  00093	8b 4d f4	 mov	 ecx, DWORD PTR __$EHRec$[ebp]
  00096	64 89 0d 00 00
	00 00		 mov	 DWORD PTR fs:0, ecx
  0009d	59		 pop	 ecx
  0009e	5f		 pop	 edi
  0009f	5e		 pop	 esi
  000a0	5b		 pop	 ebx
  000a1	8b e5		 mov	 esp, ebp
  000a3	5d		 pop	 ebp
  000a4	c2 08 00	 ret	 8
  000a7	cc		 int	 3
  000a8	cc		 int	 3
  000a9	cc		 int	 3
  000aa	cc		 int	 3
  000ab	cc		 int	 3
_TEXT	ENDS
;	COMDAT text$x
text$x	SEGMENT
__ehhandler$?_Erase_unchecked@?$_Tree@V?$_Tmap_traits@HU_MONSTER_HERD_DATA@@U?$less@H@std@@V?$allocator@U?$pair@$$CBHU_MONSTER_HERD_DATA@@@std@@@3@$0A@@std@@@std@@AAEPAU?$_Tree_node@U?$pair@$$CBHU_MONSTER_HERD_DATA@@@std@@PAX@2@V?$_Tree_unchecked_const_iterator@V?$_Tree_val@U?$_Tree_simple_types@U?$pair@$$CBHU_MONSTER_HERD_DATA@@@std@@@std@@@std@@U_Iterator_base0@2@@2@0@Z:
  00000	90		 npad	 1
  00001	90		 npad	 1
  00002	8b 54 24 08	 mov	 edx, DWORD PTR [esp+8]
  00006	8d 42 0c	 lea	 eax, DWORD PTR [edx+12]
  00009	8b 4a a4	 mov	 ecx, DWORD PTR [edx-92]
  0000c	33 c8		 xor	 ecx, eax
  0000e	e8 00 00 00 00	 call	 @__security_check_cookie@4
  00013	b8 00 00 00 00	 mov	 eax, OFFSET __ehfuncinfo$?_Erase_unchecked@?$_Tree@V?$_Tmap_traits@HU_MONSTER_HERD_DATA@@U?$less@H@std@@V?$allocator@U?$pair@$$CBHU_MONSTER_HERD_DATA@@@std@@@3@$0A@@std@@@std@@AAEPAU?$_Tree_node@U?$pair@$$CBHU_MONSTER_HERD_DATA@@@std@@PAX@2@V?$_Tree_unchecked_const_iterator@V?$_Tree_val@U?$_Tree_simple_types@U?$pair@$$CBHU_MONSTER_HERD_DATA@@@std@@@std@@@std@@U_Iterator_base0@2@@2@0@Z
  00018	e9 00 00 00 00	 jmp	 ___CxxFrameHandler3
text$x	ENDS
?_Erase_unchecked@?$_Tree@V?$_Tmap_traits@HU_MONSTER_HERD_DATA@@U?$less@H@std@@V?$allocator@U?$pair@$$CBHU_MONSTER_HERD_DATA@@@std@@@3@$0A@@std@@@std@@AAEPAU?$_Tree_node@U?$pair@$$CBHU_MONSTER_HERD_DATA@@@std@@PAX@2@V?$_Tree_unchecked_const_iterator@V?$_Tree_val@U?$_Tree_simple_types@U?$pair@$$CBHU_MONSTER_HERD_DATA@@@std@@@std@@@std@@U_Iterator_base0@2@@2@0@Z ENDP ; std::_Tree<std::_Tmap_traits<int,_MONSTER_HERD_DATA,std::less<int>,std::allocator<std::pair<int const ,_MONSTER_HERD_DATA> >,0> >::_Erase_unchecked
; Function compile flags: /Odtp /ZI
; File C:\Program Files (x86)\Microsoft Visual Studio\2019\Community\VC\Tools\MSVC\14.27.29110\include\xtree
;	COMDAT ?_Erase_unchecked@?$_Tree@V?$_Tmap_traits@HU_MONSTER_HERD_DATA@@U?$less@H@std@@V?$allocator@U?$pair@$$CBHU_MONSTER_HERD_DATA@@@std@@@3@$0A@@std@@@std@@AAEPAU?$_Tree_node@U?$pair@$$CBHU_MONSTER_HERD_DATA@@@std@@PAX@2@V?$_Tree_unchecked_const_iterator@V?$_Tree_val@U?$_Tree_simple_types@U?$pair@$$CBHU_MONSTER_HERD_DATA@@@std@@@std@@@std@@U_Iterator_base0@2@@2@@Z
_TEXT	SEGMENT
__Erasednode$ = -28					; size = 4
__Successor$ = -24					; size = 4
__Scary$ = -20						; size = 4
_this$ = -16						; size = 4
__$EHRec$ = -12						; size = 12
__Where$ = 8						; size = 4
?_Erase_unchecked@?$_Tree@V?$_Tmap_traits@HU_MONSTER_HERD_DATA@@U?$less@H@std@@V?$allocator@U?$pair@$$CBHU_MONSTER_HERD_DATA@@@std@@@3@$0A@@std@@@std@@AAEPAU?$_Tree_node@U?$pair@$$CBHU_MONSTER_HERD_DATA@@@std@@PAX@2@V?$_Tree_unchecked_const_iterator@V?$_Tree_val@U?$_Tree_simple_types@U?$pair@$$CBHU_MONSTER_HERD_DATA@@@std@@@std@@@std@@U_Iterator_base0@2@@2@@Z PROC ; std::_Tree<std::_Tmap_traits<int,_MONSTER_HERD_DATA,std::less<int>,std::allocator<std::pair<int const ,_MONSTER_HERD_DATA> >,0> >::_Erase_unchecked, COMDAT
; _this$ = ecx

; 1385 :     _Nodeptr _Erase_unchecked(_Unchecked_const_iterator _Where) noexcept {

  00000	55		 push	 ebp
  00001	8b ec		 mov	 ebp, esp
  00003	6a ff		 push	 -1
  00005	68 00 00 00 00	 push	 __ehhandler$?_Erase_unchecked@?$_Tree@V?$_Tmap_traits@HU_MONSTER_HERD_DATA@@U?$less@H@std@@V?$allocator@U?$pair@$$CBHU_MONSTER_HERD_DATA@@@std@@@3@$0A@@std@@@std@@AAEPAU?$_Tree_node@U?$pair@$$CBHU_MONSTER_HERD_DATA@@@std@@PAX@2@V?$_Tree_unchecked_const_iterator@V?$_Tree_val@U?$_Tree_simple_types@U?$pair@$$CBHU_MONSTER_HERD_DATA@@@std@@@std@@@std@@U_Iterator_base0@2@@2@@Z
  0000a	64 a1 00 00 00
	00		 mov	 eax, DWORD PTR fs:0
  00010	50		 push	 eax
  00011	83 ec 50	 sub	 esp, 80			; 00000050H
  00014	53		 push	 ebx
  00015	56		 push	 esi
  00016	57		 push	 edi
  00017	a1 00 00 00 00	 mov	 eax, DWORD PTR ___security_cookie
  0001c	33 c5		 xor	 eax, ebp
  0001e	50		 push	 eax
  0001f	8d 45 f4	 lea	 eax, DWORD PTR __$EHRec$[ebp]
  00022	64 a3 00 00 00
	00		 mov	 DWORD PTR fs:0, eax
  00028	89 4d f0	 mov	 DWORD PTR _this$[ebp], ecx

; 1386 :         const auto _Scary                    = _Get_scary();

  0002b	8b 4d f0	 mov	 ecx, DWORD PTR _this$[ebp]
  0002e	e8 00 00 00 00	 call	 ?_Get_scary@?$_Tree@V?$_Tmap_traits@HU_MONSTER_HERD_DATA@@U?$less@H@std@@V?$allocator@U?$pair@$$CBHU_MONSTER_HERD_DATA@@@std@@@3@$0A@@std@@@std@@IAEPAV?$_Tree_val@U?$_Tree_simple_types@U?$pair@$$CBHU_MONSTER_HERD_DATA@@@std@@@std@@@2@XZ ; std::_Tree<std::_Tmap_traits<int,_MONSTER_HERD_DATA,std::less<int>,std::allocator<std::pair<int const ,_MONSTER_HERD_DATA> >,0> >::_Get_scary
  00033	89 45 ec	 mov	 DWORD PTR __Scary$[ebp], eax

; 1387 :         _Unchecked_const_iterator _Successor = _Where;

  00036	8b 45 08	 mov	 eax, DWORD PTR __Where$[ebp]
  00039	89 45 e8	 mov	 DWORD PTR __Successor$[ebp], eax

; 1388 :         ++_Successor; // save successor iterator for return

  0003c	8d 4d e8	 lea	 ecx, DWORD PTR __Successor$[ebp]
  0003f	e8 00 00 00 00	 call	 ??E?$_Tree_unchecked_const_iterator@V?$_Tree_val@U?$_Tree_simple_types@U?$pair@$$CBHU_MONSTER_HERD_DATA@@@std@@@std@@@std@@U_Iterator_base0@2@@std@@QAEAAV01@XZ ; std::_Tree_unchecked_const_iterator<std::_Tree_val<std::_Tree_simple_types<std::pair<int const ,_MONSTER_HERD_DATA> > >,std::_Iterator_base0>::operator++

; 1389 :         _Nodeptr _Erasednode = _Scary->_Extract(_Where); // node to erase

  00044	8b 45 08	 mov	 eax, DWORD PTR __Where$[ebp]
  00047	50		 push	 eax
  00048	8b 4d ec	 mov	 ecx, DWORD PTR __Scary$[ebp]
  0004b	e8 00 00 00 00	 call	 ?_Extract@?$_Tree_val@U?$_Tree_simple_types@U?$pair@$$CBHU_MONSTER_HERD_DATA@@@std@@@std@@@std@@QAEPAU?$_Tree_node@U?$pair@$$CBHU_MONSTER_HERD_DATA@@@std@@PAX@2@V?$_Tree_unchecked_const_iterator@V?$_Tree_val@U?$_Tree_simple_types@U?$pair@$$CBHU_MONSTER_HERD_DATA@@@std@@@std@@@std@@U_Iterator_base0@2@@2@@Z ; std::_Tree_val<std::_Tree_simple_types<std::pair<int const ,_MONSTER_HERD_DATA> > >::_Extract
  00050	89 45 e4	 mov	 DWORD PTR __Erasednode$[ebp], eax

; 1390 :         _Scary->_Orphan_ptr(_Erasednode);

  00053	8b 45 e4	 mov	 eax, DWORD PTR __Erasednode$[ebp]
  00056	50		 push	 eax
  00057	8b 4d ec	 mov	 ecx, DWORD PTR __Scary$[ebp]
  0005a	e8 00 00 00 00	 call	 ?_Orphan_ptr@?$_Tree_val@U?$_Tree_simple_types@U?$pair@$$CBHU_MONSTER_HERD_DATA@@@std@@@std@@@std@@QAEXQAU?$_Tree_node@U?$pair@$$CBHU_MONSTER_HERD_DATA@@@std@@PAX@2@@Z ; std::_Tree_val<std::_Tree_simple_types<std::pair<int const ,_MONSTER_HERD_DATA> > >::_Orphan_ptr

; 1391 :         _Node::_Freenode(_Getal(), _Erasednode); // delete erased node

  0005f	8b 45 e4	 mov	 eax, DWORD PTR __Erasednode$[ebp]
  00062	50		 push	 eax
  00063	8b 4d f0	 mov	 ecx, DWORD PTR _this$[ebp]
  00066	e8 00 00 00 00	 call	 ?_Getal@?$_Tree@V?$_Tmap_traits@HU_MONSTER_HERD_DATA@@U?$less@H@std@@V?$allocator@U?$pair@$$CBHU_MONSTER_HERD_DATA@@@std@@@3@$0A@@std@@@std@@IAEAAV?$allocator@U?$_Tree_node@U?$pair@$$CBHU_MONSTER_HERD_DATA@@@std@@PAX@std@@@2@XZ ; std::_Tree<std::_Tmap_traits<int,_MONSTER_HERD_DATA,std::less<int>,std::allocator<std::pair<int const ,_MONSTER_HERD_DATA> >,0> >::_Getal
  0006b	50		 push	 eax
  0006c	e8 00 00 00 00	 call	 ??$_Freenode@V?$allocator@U?$_Tree_node@U?$pair@$$CBHU_MONSTER_HERD_DATA@@@std@@PAX@std@@@std@@@?$_Tree_node@U?$pair@$$CBHU_MONSTER_HERD_DATA@@@std@@PAX@std@@SAXAAV?$allocator@U?$_Tree_node@U?$pair@$$CBHU_MONSTER_HERD_DATA@@@std@@PAX@std@@@1@PAU01@@Z ; std::_Tree_node<std::pair<int const ,_MONSTER_HERD_DATA>,void *>::_Freenode<std::allocator<std::_Tree_node<std::pair<int const ,_MONSTER_HERD_DATA>,void *> > >
  00071	83 c4 08	 add	 esp, 8

; 1392 :         return _Successor._Ptr; // return successor nodeptr

  00074	8b 45 e8	 mov	 eax, DWORD PTR __Successor$[ebp]

; 1393 :     }

  00077	8b 4d f4	 mov	 ecx, DWORD PTR __$EHRec$[ebp]
  0007a	64 89 0d 00 00
	00 00		 mov	 DWORD PTR fs:0, ecx
  00081	59		 pop	 ecx
  00082	5f		 pop	 edi
  00083	5e		 pop	 esi
  00084	5b		 pop	 ebx
  00085	8b e5		 mov	 esp, ebp
  00087	5d		 pop	 ebp
  00088	c2 04 00	 ret	 4
  0008b	cc		 int	 3
  0008c	cc		 int	 3
  0008d	cc		 int	 3
  0008e	cc		 int	 3
  0008f	cc		 int	 3
_TEXT	ENDS
;	COMDAT text$x
text$x	SEGMENT
__ehhandler$?_Erase_unchecked@?$_Tree@V?$_Tmap_traits@HU_MONSTER_HERD_DATA@@U?$less@H@std@@V?$allocator@U?$pair@$$CBHU_MONSTER_HERD_DATA@@@std@@@3@$0A@@std@@@std@@AAEPAU?$_Tree_node@U?$pair@$$CBHU_MONSTER_HERD_DATA@@@std@@PAX@2@V?$_Tree_unchecked_const_iterator@V?$_Tree_val@U?$_Tree_simple_types@U?$pair@$$CBHU_MONSTER_HERD_DATA@@@std@@@std@@@std@@U_Iterator_base0@2@@2@@Z:
  00000	90		 npad	 1
  00001	90		 npad	 1
  00002	8b 54 24 08	 mov	 edx, DWORD PTR [esp+8]
  00006	8d 42 0c	 lea	 eax, DWORD PTR [edx+12]
  00009	8b 4a a0	 mov	 ecx, DWORD PTR [edx-96]
  0000c	33 c8		 xor	 ecx, eax
  0000e	e8 00 00 00 00	 call	 @__security_check_cookie@4
  00013	b8 00 00 00 00	 mov	 eax, OFFSET __ehfuncinfo$?_Erase_unchecked@?$_Tree@V?$_Tmap_traits@HU_MONSTER_HERD_DATA@@U?$less@H@std@@V?$allocator@U?$pair@$$CBHU_MONSTER_HERD_DATA@@@std@@@3@$0A@@std@@@std@@AAEPAU?$_Tree_node@U?$pair@$$CBHU_MONSTER_HERD_DATA@@@std@@PAX@2@V?$_Tree_unchecked_const_iterator@V?$_Tree_val@U?$_Tree_simple_types@U?$pair@$$CBHU_MONSTER_HERD_DATA@@@std@@@std@@@std@@U_Iterator_base0@2@@2@@Z
  00018	e9 00 00 00 00	 jmp	 ___CxxFrameHandler3
text$x	ENDS
?_Erase_unchecked@?$_Tree@V?$_Tmap_traits@HU_MONSTER_HERD_DATA@@U?$less@H@std@@V?$allocator@U?$pair@$$CBHU_MONSTER_HERD_DATA@@@std@@@3@$0A@@std@@@std@@AAEPAU?$_Tree_node@U?$pair@$$CBHU_MONSTER_HERD_DATA@@@std@@PAX@2@V?$_Tree_unchecked_const_iterator@V?$_Tree_val@U?$_Tree_simple_types@U?$pair@$$CBHU_MONSTER_HERD_DATA@@@std@@@std@@@std@@U_Iterator_base0@2@@2@@Z ENDP ; std::_Tree<std::_Tmap_traits<int,_MONSTER_HERD_DATA,std::less<int>,std::allocator<std::pair<int const ,_MONSTER_HERD_DATA> >,0> >::_Erase_unchecked
; Function compile flags: /Odtp /ZI
; File C:\Program Files (x86)\Microsoft Visual Studio\2019\Community\VC\Tools\MSVC\14.27.29110\include\xtree
;	COMDAT ?empty@?$_Tree@V?$_Tmap_traits@HU_MONSTER_HERD_DATA@@U?$less@H@std@@V?$allocator@U?$pair@$$CBHU_MONSTER_HERD_DATA@@@std@@@3@$0A@@std@@@std@@QBE_NXZ
_TEXT	SEGMENT
tv67 = -72						; size = 4
_this$ = -4						; size = 4
?empty@?$_Tree@V?$_Tmap_traits@HU_MONSTER_HERD_DATA@@U?$less@H@std@@V?$allocator@U?$pair@$$CBHU_MONSTER_HERD_DATA@@@std@@@3@$0A@@std@@@std@@QBE_NXZ PROC ; std::_Tree<std::_Tmap_traits<int,_MONSTER_HERD_DATA,std::less<int>,std::allocator<std::pair<int const ,_MONSTER_HERD_DATA> >,0> >::empty, COMDAT
; _this$ = ecx

; 1315 :     _NODISCARD bool empty() const noexcept {

  00000	55		 push	 ebp
  00001	8b ec		 mov	 ebp, esp
  00003	83 ec 48	 sub	 esp, 72			; 00000048H
  00006	53		 push	 ebx
  00007	56		 push	 esi
  00008	57		 push	 edi
  00009	89 4d fc	 mov	 DWORD PTR _this$[ebp], ecx

; 1316 :         return size() == 0;

  0000c	8b 4d fc	 mov	 ecx, DWORD PTR _this$[ebp]
  0000f	e8 00 00 00 00	 call	 ?size@?$_Tree@V?$_Tmap_traits@HU_MONSTER_HERD_DATA@@U?$less@H@std@@V?$allocator@U?$pair@$$CBHU_MONSTER_HERD_DATA@@@std@@@3@$0A@@std@@@std@@QBEIXZ ; std::_Tree<std::_Tmap_traits<int,_MONSTER_HERD_DATA,std::less<int>,std::allocator<std::pair<int const ,_MONSTER_HERD_DATA> >,0> >::size
  00014	85 c0		 test	 eax, eax
  00016	75 09		 jne	 SHORT $LN3@empty
  00018	c7 45 b8 01 00
	00 00		 mov	 DWORD PTR tv67[ebp], 1
  0001f	eb 07		 jmp	 SHORT $LN4@empty
$LN3@empty:
  00021	c7 45 b8 00 00
	00 00		 mov	 DWORD PTR tv67[ebp], 0
$LN4@empty:
  00028	8a 45 b8	 mov	 al, BYTE PTR tv67[ebp]

; 1317 :     }

  0002b	5f		 pop	 edi
  0002c	5e		 pop	 esi
  0002d	5b		 pop	 ebx
  0002e	8b e5		 mov	 esp, ebp
  00030	5d		 pop	 ebp
  00031	c3		 ret	 0
?empty@?$_Tree@V?$_Tmap_traits@HU_MONSTER_HERD_DATA@@U?$less@H@std@@V?$allocator@U?$pair@$$CBHU_MONSTER_HERD_DATA@@@std@@@3@$0A@@std@@@std@@QBE_NXZ ENDP ; std::_Tree<std::_Tmap_traits<int,_MONSTER_HERD_DATA,std::less<int>,std::allocator<std::pair<int const ,_MONSTER_HERD_DATA> >,0> >::empty
_TEXT	ENDS
; Function compile flags: /Odtp /ZI
; File C:\Program Files (x86)\Microsoft Visual Studio\2019\Community\VC\Tools\MSVC\14.27.29110\include\xtree
;	COMDAT ?max_size@?$_Tree@V?$_Tmap_traits@HU_MONSTER_HERD_DATA@@U?$less@H@std@@V?$allocator@U?$pair@$$CBHU_MONSTER_HERD_DATA@@@std@@@3@$0A@@std@@@std@@QBEIXZ
_TEXT	SEGMENT
$T1 = -76						; size = 4
$T2 = -72						; size = 4
_this$ = -4						; size = 4
?max_size@?$_Tree@V?$_Tmap_traits@HU_MONSTER_HERD_DATA@@U?$less@H@std@@V?$allocator@U?$pair@$$CBHU_MONSTER_HERD_DATA@@@std@@@3@$0A@@std@@@std@@QBEIXZ PROC ; std::_Tree<std::_Tmap_traits<int,_MONSTER_HERD_DATA,std::less<int>,std::allocator<std::pair<int const ,_MONSTER_HERD_DATA> >,0> >::max_size, COMDAT
; _this$ = ecx

; 1310 :     _NODISCARD size_type max_size() const noexcept {

  00000	55		 push	 ebp
  00001	8b ec		 mov	 ebp, esp
  00003	83 ec 4c	 sub	 esp, 76			; 0000004cH
  00006	53		 push	 ebx
  00007	56		 push	 esi
  00008	57		 push	 edi
  00009	89 4d fc	 mov	 DWORD PTR _this$[ebp], ecx

; 1311 :         return (_STD min)(

  0000c	8b 4d fc	 mov	 ecx, DWORD PTR _this$[ebp]
  0000f	e8 00 00 00 00	 call	 ?_Getal@?$_Tree@V?$_Tmap_traits@HU_MONSTER_HERD_DATA@@U?$less@H@std@@V?$allocator@U?$pair@$$CBHU_MONSTER_HERD_DATA@@@std@@@3@$0A@@std@@@std@@IBEABV?$allocator@U?$_Tree_node@U?$pair@$$CBHU_MONSTER_HERD_DATA@@@std@@PAX@std@@@2@XZ ; std::_Tree<std::_Tmap_traits<int,_MONSTER_HERD_DATA,std::less<int>,std::allocator<std::pair<int const ,_MONSTER_HERD_DATA> >,0> >::_Getal
  00014	50		 push	 eax
  00015	e8 00 00 00 00	 call	 ?max_size@?$_Default_allocator_traits@V?$allocator@U?$_Tree_node@U?$pair@$$CBHU_MONSTER_HERD_DATA@@@std@@PAX@std@@@std@@@std@@SAIABV?$allocator@U?$_Tree_node@U?$pair@$$CBHU_MONSTER_HERD_DATA@@@std@@PAX@std@@@2@@Z ; std::_Default_allocator_traits<std::allocator<std::_Tree_node<std::pair<int const ,_MONSTER_HERD_DATA>,void *> > >::max_size
  0001a	83 c4 04	 add	 esp, 4
  0001d	89 45 b8	 mov	 DWORD PTR $T2[ebp], eax
  00020	e8 00 00 00 00	 call	 ?max@?$numeric_limits@H@std@@SAHXZ ; std::numeric_limits<int>::max
  00025	89 45 b4	 mov	 DWORD PTR $T1[ebp], eax
  00028	8d 45 b8	 lea	 eax, DWORD PTR $T2[ebp]
  0002b	50		 push	 eax
  0002c	8d 4d b4	 lea	 ecx, DWORD PTR $T1[ebp]
  0002f	51		 push	 ecx
  00030	e8 00 00 00 00	 call	 ??$min@I@std@@YAABIABI0@Z ; std::min<unsigned int>
  00035	83 c4 08	 add	 esp, 8
  00038	8b 00		 mov	 eax, DWORD PTR [eax]

; 1312 :             static_cast<size_type>((numeric_limits<difference_type>::max)()), _Alnode_traits::max_size(_Getal()));
; 1313 :     }

  0003a	5f		 pop	 edi
  0003b	5e		 pop	 esi
  0003c	5b		 pop	 ebx
  0003d	8b e5		 mov	 esp, ebp
  0003f	5d		 pop	 ebp
  00040	c3		 ret	 0
?max_size@?$_Tree@V?$_Tmap_traits@HU_MONSTER_HERD_DATA@@U?$less@H@std@@V?$allocator@U?$pair@$$CBHU_MONSTER_HERD_DATA@@@std@@@3@$0A@@std@@@std@@QBEIXZ ENDP ; std::_Tree<std::_Tmap_traits<int,_MONSTER_HERD_DATA,std::less<int>,std::allocator<std::pair<int const ,_MONSTER_HERD_DATA> >,0> >::max_size
_TEXT	ENDS
; Function compile flags: /Odtp /ZI
; File C:\Program Files (x86)\Microsoft Visual Studio\2019\Community\VC\Tools\MSVC\14.27.29110\include\xtree
;	COMDAT ?size@?$_Tree@V?$_Tmap_traits@HU_MONSTER_HERD_DATA@@U?$less@H@std@@V?$allocator@U?$pair@$$CBHU_MONSTER_HERD_DATA@@@std@@@3@$0A@@std@@@std@@QBEIXZ
_TEXT	SEGMENT
_this$ = -4						; size = 4
?size@?$_Tree@V?$_Tmap_traits@HU_MONSTER_HERD_DATA@@U?$less@H@std@@V?$allocator@U?$pair@$$CBHU_MONSTER_HERD_DATA@@@std@@@3@$0A@@std@@@std@@QBEIXZ PROC ; std::_Tree<std::_Tmap_traits<int,_MONSTER_HERD_DATA,std::less<int>,std::allocator<std::pair<int const ,_MONSTER_HERD_DATA> >,0> >::size, COMDAT
; _this$ = ecx

; 1306 :     _NODISCARD size_type size() const noexcept {

  00000	55		 push	 ebp
  00001	8b ec		 mov	 ebp, esp
  00003	83 ec 44	 sub	 esp, 68			; 00000044H
  00006	53		 push	 ebx
  00007	56		 push	 esi
  00008	57		 push	 edi
  00009	89 4d fc	 mov	 DWORD PTR _this$[ebp], ecx

; 1307 :         return _Get_scary()->_Mysize;

  0000c	8b 4d fc	 mov	 ecx, DWORD PTR _this$[ebp]
  0000f	e8 00 00 00 00	 call	 ?_Get_scary@?$_Tree@V?$_Tmap_traits@HU_MONSTER_HERD_DATA@@U?$less@H@std@@V?$allocator@U?$pair@$$CBHU_MONSTER_HERD_DATA@@@std@@@3@$0A@@std@@@std@@IBEPBV?$_Tree_val@U?$_Tree_simple_types@U?$pair@$$CBHU_MONSTER_HERD_DATA@@@std@@@std@@@2@XZ ; std::_Tree<std::_Tmap_traits<int,_MONSTER_HERD_DATA,std::less<int>,std::allocator<std::pair<int const ,_MONSTER_HERD_DATA> >,0> >::_Get_scary
  00014	8b 40 04	 mov	 eax, DWORD PTR [eax+4]

; 1308 :     }

  00017	5f		 pop	 edi
  00018	5e		 pop	 esi
  00019	5b		 pop	 ebx
  0001a	8b e5		 mov	 esp, ebp
  0001c	5d		 pop	 ebp
  0001d	c3		 ret	 0
?size@?$_Tree@V?$_Tmap_traits@HU_MONSTER_HERD_DATA@@U?$less@H@std@@V?$allocator@U?$pair@$$CBHU_MONSTER_HERD_DATA@@@std@@@3@$0A@@std@@@std@@QBEIXZ ENDP ; std::_Tree<std::_Tmap_traits<int,_MONSTER_HERD_DATA,std::less<int>,std::allocator<std::pair<int const ,_MONSTER_HERD_DATA> >,0> >::size
_TEXT	ENDS
; Function compile flags: /Odtp /ZI
; File C:\Program Files (x86)\Microsoft Visual Studio\2019\Community\VC\Tools\MSVC\14.27.29110\include\xtree
;	COMDAT ?_Unchecked_begin@?$_Tree@V?$_Tmap_traits@HU_MONSTER_HERD_DATA@@U?$less@H@std@@V?$allocator@U?$pair@$$CBHU_MONSTER_HERD_DATA@@@std@@@3@$0A@@std@@@std@@QAE?AV?$_Tree_unchecked_iterator@V?$_Tree_val@U?$_Tree_simple_types@U?$pair@$$CBHU_MONSTER_HERD_DATA@@@std@@@std@@@std@@@2@XZ
_TEXT	SEGMENT
_this$ = -4						; size = 4
___$ReturnUdt$ = 8					; size = 4
?_Unchecked_begin@?$_Tree@V?$_Tmap_traits@HU_MONSTER_HERD_DATA@@U?$less@H@std@@V?$allocator@U?$pair@$$CBHU_MONSTER_HERD_DATA@@@std@@@3@$0A@@std@@@std@@QAE?AV?$_Tree_unchecked_iterator@V?$_Tree_val@U?$_Tree_simple_types@U?$pair@$$CBHU_MONSTER_HERD_DATA@@@std@@@std@@@std@@@2@XZ PROC ; std::_Tree<std::_Tmap_traits<int,_MONSTER_HERD_DATA,std::less<int>,std::allocator<std::pair<int const ,_MONSTER_HERD_DATA> >,0> >::_Unchecked_begin, COMDAT
; _this$ = ecx

; 1258 :     _Unchecked_iterator _Unchecked_begin() noexcept {

  00000	55		 push	 ebp
  00001	8b ec		 mov	 ebp, esp
  00003	83 ec 44	 sub	 esp, 68			; 00000044H
  00006	53		 push	 ebx
  00007	56		 push	 esi
  00008	57		 push	 edi
  00009	89 4d fc	 mov	 DWORD PTR _this$[ebp], ecx

; 1259 :         return _Unchecked_iterator(_Get_scary()->_Myhead->_Left, nullptr);

  0000c	6a 00		 push	 0
  0000e	8b 4d fc	 mov	 ecx, DWORD PTR _this$[ebp]
  00011	e8 00 00 00 00	 call	 ?_Get_scary@?$_Tree@V?$_Tmap_traits@HU_MONSTER_HERD_DATA@@U?$less@H@std@@V?$allocator@U?$pair@$$CBHU_MONSTER_HERD_DATA@@@std@@@3@$0A@@std@@@std@@IAEPAV?$_Tree_val@U?$_Tree_simple_types@U?$pair@$$CBHU_MONSTER_HERD_DATA@@@std@@@std@@@2@XZ ; std::_Tree<std::_Tmap_traits<int,_MONSTER_HERD_DATA,std::less<int>,std::allocator<std::pair<int const ,_MONSTER_HERD_DATA> >,0> >::_Get_scary
  00016	8b 00		 mov	 eax, DWORD PTR [eax]
  00018	8b 08		 mov	 ecx, DWORD PTR [eax]
  0001a	51		 push	 ecx
  0001b	8b 4d 08	 mov	 ecx, DWORD PTR ___$ReturnUdt$[ebp]
  0001e	e8 00 00 00 00	 call	 ??0?$_Tree_unchecked_iterator@V?$_Tree_val@U?$_Tree_simple_types@U?$pair@$$CBHU_MONSTER_HERD_DATA@@@std@@@std@@@std@@@std@@QAE@PAU?$_Tree_node@U?$pair@$$CBHU_MONSTER_HERD_DATA@@@std@@PAX@1@PBV?$_Tree_val@U?$_Tree_simple_types@U?$pair@$$CBHU_MONSTER_HERD_DATA@@@std@@@std@@@1@@Z
  00023	8b 45 08	 mov	 eax, DWORD PTR ___$ReturnUdt$[ebp]

; 1260 :     }

  00026	5f		 pop	 edi
  00027	5e		 pop	 esi
  00028	5b		 pop	 ebx
  00029	8b e5		 mov	 esp, ebp
  0002b	5d		 pop	 ebp
  0002c	c2 04 00	 ret	 4
?_Unchecked_begin@?$_Tree@V?$_Tmap_traits@HU_MONSTER_HERD_DATA@@U?$less@H@std@@V?$allocator@U?$pair@$$CBHU_MONSTER_HERD_DATA@@@std@@@3@$0A@@std@@@std@@QAE?AV?$_Tree_unchecked_iterator@V?$_Tree_val@U?$_Tree_simple_types@U?$pair@$$CBHU_MONSTER_HERD_DATA@@@std@@@std@@@std@@@2@XZ ENDP ; std::_Tree<std::_Tmap_traits<int,_MONSTER_HERD_DATA,std::less<int>,std::allocator<std::pair<int const ,_MONSTER_HERD_DATA> >,0> >::_Unchecked_begin
_TEXT	ENDS
; Function compile flags: /Odtp /ZI
; File C:\Program Files (x86)\Microsoft Visual Studio\2019\Community\VC\Tools\MSVC\14.27.29110\include\xtree
;	COMDAT ?end@?$_Tree@V?$_Tmap_traits@HU_MONSTER_HERD_DATA@@U?$less@H@std@@V?$allocator@U?$pair@$$CBHU_MONSTER_HERD_DATA@@@std@@@3@$0A@@std@@@std@@QAE?AV?$_Tree_iterator@V?$_Tree_val@U?$_Tree_simple_types@U?$pair@$$CBHU_MONSTER_HERD_DATA@@@std@@@std@@@std@@@2@XZ
_TEXT	SEGMENT
__Scary$ = -8						; size = 4
_this$ = -4						; size = 4
___$ReturnUdt$ = 8					; size = 4
?end@?$_Tree@V?$_Tmap_traits@HU_MONSTER_HERD_DATA@@U?$less@H@std@@V?$allocator@U?$pair@$$CBHU_MONSTER_HERD_DATA@@@std@@@3@$0A@@std@@@std@@QAE?AV?$_Tree_iterator@V?$_Tree_val@U?$_Tree_simple_types@U?$pair@$$CBHU_MONSTER_HERD_DATA@@@std@@@std@@@std@@@2@XZ PROC ; std::_Tree<std::_Tmap_traits<int,_MONSTER_HERD_DATA,std::less<int>,std::allocator<std::pair<int const ,_MONSTER_HERD_DATA> >,0> >::end, COMDAT
; _this$ = ecx

; 1248 :     _NODISCARD iterator end() noexcept {

  00000	55		 push	 ebp
  00001	8b ec		 mov	 ebp, esp
  00003	83 ec 48	 sub	 esp, 72			; 00000048H
  00006	53		 push	 ebx
  00007	56		 push	 esi
  00008	57		 push	 edi
  00009	89 4d fc	 mov	 DWORD PTR _this$[ebp], ecx

; 1249 :         const auto _Scary = _Get_scary();

  0000c	8b 4d fc	 mov	 ecx, DWORD PTR _this$[ebp]
  0000f	e8 00 00 00 00	 call	 ?_Get_scary@?$_Tree@V?$_Tmap_traits@HU_MONSTER_HERD_DATA@@U?$less@H@std@@V?$allocator@U?$pair@$$CBHU_MONSTER_HERD_DATA@@@std@@@3@$0A@@std@@@std@@IAEPAV?$_Tree_val@U?$_Tree_simple_types@U?$pair@$$CBHU_MONSTER_HERD_DATA@@@std@@@std@@@2@XZ ; std::_Tree<std::_Tmap_traits<int,_MONSTER_HERD_DATA,std::less<int>,std::allocator<std::pair<int const ,_MONSTER_HERD_DATA> >,0> >::_Get_scary
  00014	89 45 f8	 mov	 DWORD PTR __Scary$[ebp], eax

; 1250 :         return iterator(_Scary->_Myhead, _Scary);

  00017	8b 45 f8	 mov	 eax, DWORD PTR __Scary$[ebp]
  0001a	50		 push	 eax
  0001b	8b 4d f8	 mov	 ecx, DWORD PTR __Scary$[ebp]
  0001e	8b 11		 mov	 edx, DWORD PTR [ecx]
  00020	52		 push	 edx
  00021	8b 4d 08	 mov	 ecx, DWORD PTR ___$ReturnUdt$[ebp]
  00024	e8 00 00 00 00	 call	 ??0?$_Tree_iterator@V?$_Tree_val@U?$_Tree_simple_types@U?$pair@$$CBHU_MONSTER_HERD_DATA@@@std@@@std@@@std@@@std@@QAE@PAU?$_Tree_node@U?$pair@$$CBHU_MONSTER_HERD_DATA@@@std@@PAX@1@PBV?$_Tree_val@U?$_Tree_simple_types@U?$pair@$$CBHU_MONSTER_HERD_DATA@@@std@@@std@@@1@@Z
  00029	8b 45 08	 mov	 eax, DWORD PTR ___$ReturnUdt$[ebp]

; 1251 :     }

  0002c	5f		 pop	 edi
  0002d	5e		 pop	 esi
  0002e	5b		 pop	 ebx
  0002f	8b e5		 mov	 esp, ebp
  00031	5d		 pop	 ebp
  00032	c2 04 00	 ret	 4
?end@?$_Tree@V?$_Tmap_traits@HU_MONSTER_HERD_DATA@@U?$less@H@std@@V?$allocator@U?$pair@$$CBHU_MONSTER_HERD_DATA@@@std@@@3@$0A@@std@@@std@@QAE?AV?$_Tree_iterator@V?$_Tree_val@U?$_Tree_simple_types@U?$pair@$$CBHU_MONSTER_HERD_DATA@@@std@@@std@@@std@@@2@XZ ENDP ; std::_Tree<std::_Tmap_traits<int,_MONSTER_HERD_DATA,std::less<int>,std::allocator<std::pair<int const ,_MONSTER_HERD_DATA> >,0> >::end
_TEXT	ENDS
; Function compile flags: /Odtp /ZI
; File C:\Program Files (x86)\Microsoft Visual Studio\2019\Community\VC\Tools\MSVC\14.27.29110\include\xtree
;	COMDAT ?begin@?$_Tree@V?$_Tmap_traits@HU_MONSTER_HERD_DATA@@U?$less@H@std@@V?$allocator@U?$pair@$$CBHU_MONSTER_HERD_DATA@@@std@@@3@$0A@@std@@@std@@QAE?AV?$_Tree_iterator@V?$_Tree_val@U?$_Tree_simple_types@U?$pair@$$CBHU_MONSTER_HERD_DATA@@@std@@@std@@@std@@@2@XZ
_TEXT	SEGMENT
__Scary$ = -8						; size = 4
_this$ = -4						; size = 4
___$ReturnUdt$ = 8					; size = 4
?begin@?$_Tree@V?$_Tmap_traits@HU_MONSTER_HERD_DATA@@U?$less@H@std@@V?$allocator@U?$pair@$$CBHU_MONSTER_HERD_DATA@@@std@@@3@$0A@@std@@@std@@QAE?AV?$_Tree_iterator@V?$_Tree_val@U?$_Tree_simple_types@U?$pair@$$CBHU_MONSTER_HERD_DATA@@@std@@@std@@@std@@@2@XZ PROC ; std::_Tree<std::_Tmap_traits<int,_MONSTER_HERD_DATA,std::less<int>,std::allocator<std::pair<int const ,_MONSTER_HERD_DATA> >,0> >::begin, COMDAT
; _this$ = ecx

; 1238 :     _NODISCARD iterator begin() noexcept {

  00000	55		 push	 ebp
  00001	8b ec		 mov	 ebp, esp
  00003	83 ec 48	 sub	 esp, 72			; 00000048H
  00006	53		 push	 ebx
  00007	56		 push	 esi
  00008	57		 push	 edi
  00009	89 4d fc	 mov	 DWORD PTR _this$[ebp], ecx

; 1239 :         const auto _Scary = _Get_scary();

  0000c	8b 4d fc	 mov	 ecx, DWORD PTR _this$[ebp]
  0000f	e8 00 00 00 00	 call	 ?_Get_scary@?$_Tree@V?$_Tmap_traits@HU_MONSTER_HERD_DATA@@U?$less@H@std@@V?$allocator@U?$pair@$$CBHU_MONSTER_HERD_DATA@@@std@@@3@$0A@@std@@@std@@IAEPAV?$_Tree_val@U?$_Tree_simple_types@U?$pair@$$CBHU_MONSTER_HERD_DATA@@@std@@@std@@@2@XZ ; std::_Tree<std::_Tmap_traits<int,_MONSTER_HERD_DATA,std::less<int>,std::allocator<std::pair<int const ,_MONSTER_HERD_DATA> >,0> >::_Get_scary
  00014	89 45 f8	 mov	 DWORD PTR __Scary$[ebp], eax

; 1240 :         return iterator(_Scary->_Myhead->_Left, _Scary);

  00017	8b 45 f8	 mov	 eax, DWORD PTR __Scary$[ebp]
  0001a	50		 push	 eax
  0001b	8b 4d f8	 mov	 ecx, DWORD PTR __Scary$[ebp]
  0001e	8b 11		 mov	 edx, DWORD PTR [ecx]
  00020	8b 02		 mov	 eax, DWORD PTR [edx]
  00022	50		 push	 eax
  00023	8b 4d 08	 mov	 ecx, DWORD PTR ___$ReturnUdt$[ebp]
  00026	e8 00 00 00 00	 call	 ??0?$_Tree_iterator@V?$_Tree_val@U?$_Tree_simple_types@U?$pair@$$CBHU_MONSTER_HERD_DATA@@@std@@@std@@@std@@@std@@QAE@PAU?$_Tree_node@U?$pair@$$CBHU_MONSTER_HERD_DATA@@@std@@PAX@1@PBV?$_Tree_val@U?$_Tree_simple_types@U?$pair@$$CBHU_MONSTER_HERD_DATA@@@std@@@std@@@1@@Z
  0002b	8b 45 08	 mov	 eax, DWORD PTR ___$ReturnUdt$[ebp]

; 1241 :     }

  0002e	5f		 pop	 edi
  0002f	5e		 pop	 esi
  00030	5b		 pop	 ebx
  00031	8b e5		 mov	 esp, ebp
  00033	5d		 pop	 ebp
  00034	c2 04 00	 ret	 4
?begin@?$_Tree@V?$_Tmap_traits@HU_MONSTER_HERD_DATA@@U?$less@H@std@@V?$allocator@U?$pair@$$CBHU_MONSTER_HERD_DATA@@@std@@@3@$0A@@std@@@std@@QAE?AV?$_Tree_iterator@V?$_Tree_val@U?$_Tree_simple_types@U?$pair@$$CBHU_MONSTER_HERD_DATA@@@std@@@std@@@std@@@2@XZ ENDP ; std::_Tree<std::_Tmap_traits<int,_MONSTER_HERD_DATA,std::less<int>,std::allocator<std::pair<int const ,_MONSTER_HERD_DATA> >,0> >::begin
_TEXT	ENDS
; Function compile flags: /Odtp /ZI
; File C:\Program Files (x86)\Microsoft Visual Studio\2019\Community\VC\Tools\MSVC\14.27.29110\include\xtree
;	COMDAT ??1?$_Tree@V?$_Tmap_traits@HU_MONSTER_HERD_DATA@@U?$less@H@std@@V?$allocator@U?$pair@$$CBHU_MONSTER_HERD_DATA@@@std@@@3@$0A@@std@@@std@@QAE@XZ
_TEXT	SEGMENT
__Scary$ = -8						; size = 4
_this$ = -4						; size = 4
??1?$_Tree@V?$_Tmap_traits@HU_MONSTER_HERD_DATA@@U?$less@H@std@@V?$allocator@U?$pair@$$CBHU_MONSTER_HERD_DATA@@@std@@@3@$0A@@std@@@std@@QAE@XZ PROC ; std::_Tree<std::_Tmap_traits<int,_MONSTER_HERD_DATA,std::less<int>,std::allocator<std::pair<int const ,_MONSTER_HERD_DATA> >,0> >::~_Tree<std::_Tmap_traits<int,_MONSTER_HERD_DATA,std::less<int>,std::allocator<std::pair<int const ,_MONSTER_HERD_DATA> >,0> >, COMDAT
; _this$ = ecx

; 1189 :     ~_Tree() noexcept {

  00000	55		 push	 ebp
  00001	8b ec		 mov	 ebp, esp
  00003	83 ec 48	 sub	 esp, 72			; 00000048H
  00006	53		 push	 ebx
  00007	56		 push	 esi
  00008	57		 push	 edi
  00009	89 4d fc	 mov	 DWORD PTR _this$[ebp], ecx

; 1190 :         const auto _Scary = _Get_scary();

  0000c	8b 4d fc	 mov	 ecx, DWORD PTR _this$[ebp]
  0000f	e8 00 00 00 00	 call	 ?_Get_scary@?$_Tree@V?$_Tmap_traits@HU_MONSTER_HERD_DATA@@U?$less@H@std@@V?$allocator@U?$pair@$$CBHU_MONSTER_HERD_DATA@@@std@@@3@$0A@@std@@@std@@IAEPAV?$_Tree_val@U?$_Tree_simple_types@U?$pair@$$CBHU_MONSTER_HERD_DATA@@@std@@@std@@@2@XZ ; std::_Tree<std::_Tmap_traits<int,_MONSTER_HERD_DATA,std::less<int>,std::allocator<std::pair<int const ,_MONSTER_HERD_DATA> >,0> >::_Get_scary
  00014	89 45 f8	 mov	 DWORD PTR __Scary$[ebp], eax

; 1191 :         _Scary->_Erase_head(_Getal());

  00017	8b 4d fc	 mov	 ecx, DWORD PTR _this$[ebp]
  0001a	e8 00 00 00 00	 call	 ?_Getal@?$_Tree@V?$_Tmap_traits@HU_MONSTER_HERD_DATA@@U?$less@H@std@@V?$allocator@U?$pair@$$CBHU_MONSTER_HERD_DATA@@@std@@@3@$0A@@std@@@std@@IAEAAV?$allocator@U?$_Tree_node@U?$pair@$$CBHU_MONSTER_HERD_DATA@@@std@@PAX@std@@@2@XZ ; std::_Tree<std::_Tmap_traits<int,_MONSTER_HERD_DATA,std::less<int>,std::allocator<std::pair<int const ,_MONSTER_HERD_DATA> >,0> >::_Getal
  0001f	50		 push	 eax
  00020	8b 4d f8	 mov	 ecx, DWORD PTR __Scary$[ebp]
  00023	e8 00 00 00 00	 call	 ??$_Erase_head@V?$allocator@U?$_Tree_node@U?$pair@$$CBHU_MONSTER_HERD_DATA@@@std@@PAX@std@@@std@@@?$_Tree_val@U?$_Tree_simple_types@U?$pair@$$CBHU_MONSTER_HERD_DATA@@@std@@@std@@@std@@QAEXAAV?$allocator@U?$_Tree_node@U?$pair@$$CBHU_MONSTER_HERD_DATA@@@std@@PAX@std@@@1@@Z ; std::_Tree_val<std::_Tree_simple_types<std::pair<int const ,_MONSTER_HERD_DATA> > >::_Erase_head<std::allocator<std::_Tree_node<std::pair<int const ,_MONSTER_HERD_DATA>,void *> > >

; 1192 : #if _ITERATOR_DEBUG_LEVEL != 0 // TRANSITION, ABI
; 1193 :         auto&& _Alproxy = _GET_PROXY_ALLOCATOR(_Alnode, _Getal());
; 1194 :         _Delete_plain_internal(_Alproxy, _Scary->_Myproxy);
; 1195 : #endif // _ITERATOR_DEBUG_LEVEL != 0
; 1196 :     }

  00028	5f		 pop	 edi
  00029	5e		 pop	 esi
  0002a	5b		 pop	 ebx
  0002b	8b e5		 mov	 esp, ebp
  0002d	5d		 pop	 ebp
  0002e	c3		 ret	 0
??1?$_Tree@V?$_Tmap_traits@HU_MONSTER_HERD_DATA@@U?$less@H@std@@V?$allocator@U?$pair@$$CBHU_MONSTER_HERD_DATA@@@std@@@3@$0A@@std@@@std@@QAE@XZ ENDP ; std::_Tree<std::_Tmap_traits<int,_MONSTER_HERD_DATA,std::less<int>,std::allocator<std::pair<int const ,_MONSTER_HERD_DATA> >,0> >::~_Tree<std::_Tmap_traits<int,_MONSTER_HERD_DATA,std::less<int>,std::allocator<std::pair<int const ,_MONSTER_HERD_DATA> >,0> >
_TEXT	ENDS
; Function compile flags: /Odtp /ZI
; File C:\Program Files (x86)\Microsoft Visual Studio\2019\Community\VC\Tools\MSVC\14.27.29110\include\xtree
;	COMDAT ??0?$_Tree@V?$_Tmap_traits@HU_MONSTER_HERD_DATA@@U?$less@H@std@@V?$allocator@U?$pair@$$CBHU_MONSTER_HERD_DATA@@@std@@@3@$0A@@std@@@std@@QAE@ABU?$less@H@1@@Z
_TEXT	SEGMENT
$T1 = -70						; size = 1
$T2 = -69						; size = 1
_this$ = -4						; size = 4
__Parg$ = 8						; size = 4
??0?$_Tree@V?$_Tmap_traits@HU_MONSTER_HERD_DATA@@U?$less@H@std@@V?$allocator@U?$pair@$$CBHU_MONSTER_HERD_DATA@@@std@@@3@$0A@@std@@@std@@QAE@ABU?$less@H@1@@Z PROC ; std::_Tree<std::_Tmap_traits<int,_MONSTER_HERD_DATA,std::less<int>,std::allocator<std::pair<int const ,_MONSTER_HERD_DATA> >,0> >::_Tree<std::_Tmap_traits<int,_MONSTER_HERD_DATA,std::less<int>,std::allocator<std::pair<int const ,_MONSTER_HERD_DATA> >,0> >, COMDAT
; _this$ = ecx

; 885  :     _Tree(const key_compare& _Parg) : _Mypair(_One_then_variadic_args_t{}, _Parg, _Zero_then_variadic_args_t{}) {

  00000	55		 push	 ebp
  00001	8b ec		 mov	 ebp, esp
  00003	83 ec 48	 sub	 esp, 72			; 00000048H
  00006	53		 push	 ebx
  00007	56		 push	 esi
  00008	57		 push	 edi
  00009	89 4d fc	 mov	 DWORD PTR _this$[ebp], ecx
  0000c	8d 45 bb	 lea	 eax, DWORD PTR $T2[ebp]
  0000f	50		 push	 eax
  00010	8b 4d 08	 mov	 ecx, DWORD PTR __Parg$[ebp]
  00013	51		 push	 ecx
  00014	0f b6 55 ba	 movzx	 edx, BYTE PTR $T1[ebp]
  00018	52		 push	 edx
  00019	8b 4d fc	 mov	 ecx, DWORD PTR _this$[ebp]
  0001c	e8 00 00 00 00	 call	 ??$?0ABU?$less@H@std@@U_Zero_then_variadic_args_t@1@@?$_Compressed_pair@U?$less@H@std@@V?$_Compressed_pair@V?$allocator@U?$_Tree_node@U?$pair@$$CBHU_MONSTER_HERD_DATA@@@std@@PAX@std@@@std@@V?$_Tree_val@U?$_Tree_simple_types@U?$pair@$$CBHU_MONSTER_HERD_DATA@@@std@@@std@@@2@$00@2@$00@std@@QAE@U_One_then_variadic_args_t@1@ABU?$less@H@1@$$QAU_Zero_then_variadic_args_t@1@@Z ; std::_Compressed_pair<std::less<int>,std::_Compressed_pair<std::allocator<std::_Tree_node<std::pair<int const ,_MONSTER_HERD_DATA>,void *> >,std::_Tree_val<std::_Tree_simple_types<std::pair<int const ,_MONSTER_HERD_DATA> > >,1>,1>::_Compressed_pair<std::less<int>,std::_Compressed_pair<std::allocator<std::_Tree_node<std::pair<int const ,_MONSTER_HERD_DATA>,void *> >,std::_Tree_val<std::_Tree_simple_types<std::pair<int const ,_MONSTER_HERD_DATA> > >,1>,1><std::less<int> const &,std::_Zero_then_variadic_args_t>

; 886  :         _Alloc_sentinel_and_proxy();

  00021	8b 4d fc	 mov	 ecx, DWORD PTR _this$[ebp]
  00024	e8 00 00 00 00	 call	 ?_Alloc_sentinel_and_proxy@?$_Tree@V?$_Tmap_traits@HU_MONSTER_HERD_DATA@@U?$less@H@std@@V?$allocator@U?$pair@$$CBHU_MONSTER_HERD_DATA@@@std@@@3@$0A@@std@@@std@@IAEXXZ ; std::_Tree<std::_Tmap_traits<int,_MONSTER_HERD_DATA,std::less<int>,std::allocator<std::pair<int const ,_MONSTER_HERD_DATA> >,0> >::_Alloc_sentinel_and_proxy

; 887  :     }

  00029	8b 45 fc	 mov	 eax, DWORD PTR _this$[ebp]
  0002c	5f		 pop	 edi
  0002d	5e		 pop	 esi
  0002e	5b		 pop	 ebx
  0002f	8b e5		 mov	 esp, ebp
  00031	5d		 pop	 ebp
  00032	c2 04 00	 ret	 4
??0?$_Tree@V?$_Tmap_traits@HU_MONSTER_HERD_DATA@@U?$less@H@std@@V?$allocator@U?$pair@$$CBHU_MONSTER_HERD_DATA@@@std@@@3@$0A@@std@@@std@@QAE@ABU?$less@H@1@@Z ENDP ; std::_Tree<std::_Tmap_traits<int,_MONSTER_HERD_DATA,std::less<int>,std::allocator<std::pair<int const ,_MONSTER_HERD_DATA> >,0> >::_Tree<std::_Tmap_traits<int,_MONSTER_HERD_DATA,std::less<int>,std::allocator<std::pair<int const ,_MONSTER_HERD_DATA> >,0> >
_TEXT	ENDS
; Function compile flags: /Odtp /ZI
; File C:\Program Files (x86)\Microsoft Visual Studio\2019\Community\VC\Tools\MSVC\14.27.29110\include\xmemory
;	COMDAT ?max_size@?$_Default_allocator_traits@V?$allocator@U?$_Tree_node@U?$pair@$$CBHU_MONSTER_HERD_DATA@@@std@@PAX@std@@@std@@@std@@SAIABV?$allocator@U?$_Tree_node@U?$pair@$$CBHU_MONSTER_HERD_DATA@@@std@@PAX@std@@@2@@Z
_TEXT	SEGMENT
___formal$ = 8						; size = 4
?max_size@?$_Default_allocator_traits@V?$allocator@U?$_Tree_node@U?$pair@$$CBHU_MONSTER_HERD_DATA@@@std@@PAX@std@@@std@@@std@@SAIABV?$allocator@U?$_Tree_node@U?$pair@$$CBHU_MONSTER_HERD_DATA@@@std@@PAX@std@@@2@@Z PROC ; std::_Default_allocator_traits<std::allocator<std::_Tree_node<std::pair<int const ,_MONSTER_HERD_DATA>,void *> > >::max_size, COMDAT

; 702  :     _NODISCARD static size_type max_size(const _Alloc&) noexcept {

  00000	55		 push	 ebp
  00001	8b ec		 mov	 ebp, esp
  00003	83 ec 40	 sub	 esp, 64			; 00000040H
  00006	53		 push	 ebx
  00007	56		 push	 esi
  00008	57		 push	 edi

; 703  :         return static_cast<size_t>(-1) / sizeof(value_type);

  00009	b8 c7 71 1c 07	 mov	 eax, 119304647		; 071c71c7H

; 704  :     }

  0000e	5f		 pop	 edi
  0000f	5e		 pop	 esi
  00010	5b		 pop	 ebx
  00011	8b e5		 mov	 esp, ebp
  00013	5d		 pop	 ebp
  00014	c3		 ret	 0
?max_size@?$_Default_allocator_traits@V?$allocator@U?$_Tree_node@U?$pair@$$CBHU_MONSTER_HERD_DATA@@@std@@PAX@std@@@std@@@std@@SAIABV?$allocator@U?$_Tree_node@U?$pair@$$CBHU_MONSTER_HERD_DATA@@@std@@PAX@std@@@2@@Z ENDP ; std::_Default_allocator_traits<std::allocator<std::_Tree_node<std::pair<int const ,_MONSTER_HERD_DATA>,void *> > >::max_size
_TEXT	ENDS
; Function compile flags: /Odtp /ZI
; File C:\Program Files (x86)\Microsoft Visual Studio\2019\Community\VC\Tools\MSVC\14.27.29110\include\xmemory
;	COMDAT ?deallocate@?$_Default_allocator_traits@V?$allocator@U?$_Tree_node@U?$pair@$$CBHU_MONSTER_HERD_DATA@@@std@@PAX@std@@@std@@@std@@SAXAAV?$allocator@U?$_Tree_node@U?$pair@$$CBHU_MONSTER_HERD_DATA@@@std@@PAX@std@@@2@QAU?$_Tree_node@U?$pair@$$CBHU_MONSTER_HERD_DATA@@@std@@PAX@2@I@Z
_TEXT	SEGMENT
___formal$ = 8						; size = 4
__Ptr$ = 12						; size = 4
__Count$ = 16						; size = 4
?deallocate@?$_Default_allocator_traits@V?$allocator@U?$_Tree_node@U?$pair@$$CBHU_MONSTER_HERD_DATA@@@std@@PAX@std@@@std@@@std@@SAXAAV?$allocator@U?$_Tree_node@U?$pair@$$CBHU_MONSTER_HERD_DATA@@@std@@PAX@std@@@2@QAU?$_Tree_node@U?$pair@$$CBHU_MONSTER_HERD_DATA@@@std@@PAX@2@I@Z PROC ; std::_Default_allocator_traits<std::allocator<std::_Tree_node<std::pair<int const ,_MONSTER_HERD_DATA>,void *> > >::deallocate, COMDAT

; 687  :     static void deallocate(_Alloc&, const pointer _Ptr, const size_type _Count) {

  00000	55		 push	 ebp
  00001	8b ec		 mov	 ebp, esp
  00003	83 ec 40	 sub	 esp, 64			; 00000040H
  00006	53		 push	 ebx
  00007	56		 push	 esi
  00008	57		 push	 edi

; 688  :         // no overflow check on the following multiply; we assume _Allocate did that check
; 689  :         _Deallocate<_New_alignof<value_type>>(_Ptr, sizeof(value_type) * _Count);

  00009	6b 45 10 24	 imul	 eax, DWORD PTR __Count$[ebp], 36
  0000d	50		 push	 eax
  0000e	8b 4d 0c	 mov	 ecx, DWORD PTR __Ptr$[ebp]
  00011	51		 push	 ecx
  00012	e8 00 00 00 00	 call	 ??$_Deallocate@$07$0A@@std@@YAXPAXI@Z ; std::_Deallocate<8,0>
  00017	83 c4 08	 add	 esp, 8

; 690  :     }

  0001a	5f		 pop	 edi
  0001b	5e		 pop	 esi
  0001c	5b		 pop	 ebx
  0001d	8b e5		 mov	 esp, ebp
  0001f	5d		 pop	 ebp
  00020	c3		 ret	 0
?deallocate@?$_Default_allocator_traits@V?$allocator@U?$_Tree_node@U?$pair@$$CBHU_MONSTER_HERD_DATA@@@std@@PAX@std@@@std@@@std@@SAXAAV?$allocator@U?$_Tree_node@U?$pair@$$CBHU_MONSTER_HERD_DATA@@@std@@PAX@std@@@2@QAU?$_Tree_node@U?$pair@$$CBHU_MONSTER_HERD_DATA@@@std@@PAX@2@I@Z ENDP ; std::_Default_allocator_traits<std::allocator<std::_Tree_node<std::pair<int const ,_MONSTER_HERD_DATA>,void *> > >::deallocate
_TEXT	ENDS
; Function compile flags: /Odtp /ZI
; File C:\Program Files (x86)\Microsoft Visual Studio\2019\Community\VC\Tools\MSVC\14.27.29110\include\xmemory
;	COMDAT ?allocate@?$allocator@U?$_Tree_node@U?$pair@$$CBHU_MONSTER_HERD_DATA@@@std@@PAX@std@@@std@@QAEPAU?$_Tree_node@U?$pair@$$CBHU_MONSTER_HERD_DATA@@@std@@PAX@2@I@Z
_TEXT	SEGMENT
_this$ = -4						; size = 4
__Count$ = 8						; size = 4
?allocate@?$allocator@U?$_Tree_node@U?$pair@$$CBHU_MONSTER_HERD_DATA@@@std@@PAX@std@@@std@@QAEPAU?$_Tree_node@U?$pair@$$CBHU_MONSTER_HERD_DATA@@@std@@PAX@2@I@Z PROC ; std::allocator<std::_Tree_node<std::pair<int const ,_MONSTER_HERD_DATA>,void *> >::allocate, COMDAT
; _this$ = ecx

; 806  :     _NODISCARD __declspec(allocator) _Ty* allocate(_CRT_GUARDOVERFLOW const size_t _Count) {

  00000	55		 push	 ebp
  00001	8b ec		 mov	 ebp, esp
  00003	83 ec 44	 sub	 esp, 68			; 00000044H
  00006	53		 push	 ebx
  00007	56		 push	 esi
  00008	57		 push	 edi
  00009	89 4d fc	 mov	 DWORD PTR _this$[ebp], ecx

; 807  :         return static_cast<_Ty*>(_Allocate<_New_alignof<_Ty>>(_Get_size_of_n<sizeof(_Ty)>(_Count)));

  0000c	8b 45 08	 mov	 eax, DWORD PTR __Count$[ebp]
  0000f	50		 push	 eax
  00010	e8 00 00 00 00	 call	 ??$_Get_size_of_n@$0CE@@std@@YAII@Z ; std::_Get_size_of_n<36>
  00015	83 c4 04	 add	 esp, 4
  00018	50		 push	 eax
  00019	e8 00 00 00 00	 call	 ??$_Allocate@$07U_Default_allocate_traits@std@@$0A@@std@@YAPAXI@Z ; std::_Allocate<8,std::_Default_allocate_traits,0>
  0001e	83 c4 04	 add	 esp, 4

; 808  :     }

  00021	5f		 pop	 edi
  00022	5e		 pop	 esi
  00023	5b		 pop	 ebx
  00024	8b e5		 mov	 esp, ebp
  00026	5d		 pop	 ebp
  00027	c2 04 00	 ret	 4
?allocate@?$allocator@U?$_Tree_node@U?$pair@$$CBHU_MONSTER_HERD_DATA@@@std@@PAX@std@@@std@@QAEPAU?$_Tree_node@U?$pair@$$CBHU_MONSTER_HERD_DATA@@@std@@PAX@2@I@Z ENDP ; std::allocator<std::_Tree_node<std::pair<int const ,_MONSTER_HERD_DATA>,void *> >::allocate
_TEXT	ENDS
; Function compile flags: /Odtp /ZI
; File C:\Program Files (x86)\Microsoft Visual Studio\2019\Community\VC\Tools\MSVC\14.27.29110\include\xmemory
;	COMDAT ?deallocate@?$allocator@U?$_Tree_node@U?$pair@$$CBHU_MONSTER_HERD_DATA@@@std@@PAX@std@@@std@@QAEXQAU?$_Tree_node@U?$pair@$$CBHU_MONSTER_HERD_DATA@@@std@@PAX@2@I@Z
_TEXT	SEGMENT
_this$ = -4						; size = 4
__Ptr$ = 8						; size = 4
__Count$ = 12						; size = 4
?deallocate@?$allocator@U?$_Tree_node@U?$pair@$$CBHU_MONSTER_HERD_DATA@@@std@@PAX@std@@@std@@QAEXQAU?$_Tree_node@U?$pair@$$CBHU_MONSTER_HERD_DATA@@@std@@PAX@2@I@Z PROC ; std::allocator<std::_Tree_node<std::pair<int const ,_MONSTER_HERD_DATA>,void *> >::deallocate, COMDAT
; _this$ = ecx

; 801  :     void deallocate(_Ty* const _Ptr, const size_t _Count) {

  00000	55		 push	 ebp
  00001	8b ec		 mov	 ebp, esp
  00003	83 ec 44	 sub	 esp, 68			; 00000044H
  00006	53		 push	 ebx
  00007	56		 push	 esi
  00008	57		 push	 edi
  00009	89 4d fc	 mov	 DWORD PTR _this$[ebp], ecx

; 802  :         // no overflow check on the following multiply; we assume _Allocate did that check
; 803  :         _Deallocate<_New_alignof<_Ty>>(_Ptr, sizeof(_Ty) * _Count);

  0000c	6b 45 0c 24	 imul	 eax, DWORD PTR __Count$[ebp], 36
  00010	50		 push	 eax
  00011	8b 4d 08	 mov	 ecx, DWORD PTR __Ptr$[ebp]
  00014	51		 push	 ecx
  00015	e8 00 00 00 00	 call	 ??$_Deallocate@$07$0A@@std@@YAXPAXI@Z ; std::_Deallocate<8,0>
  0001a	83 c4 08	 add	 esp, 8

; 804  :     }

  0001d	5f		 pop	 edi
  0001e	5e		 pop	 esi
  0001f	5b		 pop	 ebx
  00020	8b e5		 mov	 esp, ebp
  00022	5d		 pop	 ebp
  00023	c2 08 00	 ret	 8
?deallocate@?$allocator@U?$_Tree_node@U?$pair@$$CBHU_MONSTER_HERD_DATA@@@std@@PAX@std@@@std@@QAEXQAU?$_Tree_node@U?$pair@$$CBHU_MONSTER_HERD_DATA@@@std@@PAX@2@I@Z ENDP ; std::allocator<std::_Tree_node<std::pair<int const ,_MONSTER_HERD_DATA>,void *> >::deallocate
_TEXT	ENDS
; Function compile flags: /Odtp /ZI
; File C:\Program Files (x86)\Microsoft Visual Studio\2019\Community\VC\Tools\MSVC\14.27.29110\include\xmemory
;	COMDAT ??0?$allocator@U?$_Tree_node@U?$pair@$$CBHU_MONSTER_HERD_DATA@@@std@@PAX@std@@@std@@QAE@XZ
_TEXT	SEGMENT
_this$ = -4						; size = 4
??0?$allocator@U?$_Tree_node@U?$pair@$$CBHU_MONSTER_HERD_DATA@@@std@@PAX@std@@@std@@QAE@XZ PROC ; std::allocator<std::_Tree_node<std::pair<int const ,_MONSTER_HERD_DATA>,void *> >::allocator<std::_Tree_node<std::pair<int const ,_MONSTER_HERD_DATA>,void *> >, COMDAT
; _this$ = ecx

; 795  :     constexpr allocator() noexcept {}

  00000	55		 push	 ebp
  00001	8b ec		 mov	 ebp, esp
  00003	83 ec 44	 sub	 esp, 68			; 00000044H
  00006	53		 push	 ebx
  00007	56		 push	 esi
  00008	57		 push	 edi
  00009	89 4d fc	 mov	 DWORD PTR _this$[ebp], ecx
  0000c	8b 45 fc	 mov	 eax, DWORD PTR _this$[ebp]
  0000f	5f		 pop	 edi
  00010	5e		 pop	 esi
  00011	5b		 pop	 ebx
  00012	8b e5		 mov	 esp, ebp
  00014	5d		 pop	 ebp
  00015	c3		 ret	 0
??0?$allocator@U?$_Tree_node@U?$pair@$$CBHU_MONSTER_HERD_DATA@@@std@@PAX@std@@@std@@QAE@XZ ENDP ; std::allocator<std::_Tree_node<std::pair<int const ,_MONSTER_HERD_DATA>,void *> >::allocator<std::_Tree_node<std::pair<int const ,_MONSTER_HERD_DATA>,void *> >
_TEXT	ENDS
; Function compile flags: /Odtp /ZI
; File C:\Mu Online\Mu-GS-Webzen-MC-10093\GameServer\MonsterHerd.h
;	COMDAT ??0_MONSTER_HERD_DATA@@QAE@XZ
_TEXT	SEGMENT
_this$ = -4						; size = 4
??0_MONSTER_HERD_DATA@@QAE@XZ PROC			; _MONSTER_HERD_DATA::_MONSTER_HERD_DATA, COMDAT
; _this$ = ecx

; 40   : 	_MONSTER_HERD_DATA() {

  00000	55		 push	 ebp
  00001	8b ec		 mov	 ebp, esp
  00003	83 ec 44	 sub	 esp, 68			; 00000044H
  00006	53		 push	 ebx
  00007	56		 push	 esi
  00008	57		 push	 edi
  00009	89 4d fc	 mov	 DWORD PTR _this$[ebp], ecx

; 41   : 		m_iIndex = -1;

  0000c	8b 45 fc	 mov	 eax, DWORD PTR _this$[ebp]
  0000f	c7 00 ff ff ff
	ff		 mov	 DWORD PTR [eax], -1

; 42   : 		m_iType = -1;

  00015	8b 45 fc	 mov	 eax, DWORD PTR _this$[ebp]
  00018	c7 40 04 ff ff
	ff ff		 mov	 DWORD PTR [eax+4], -1

; 43   : 		m_iX = -1;

  0001f	8b 45 fc	 mov	 eax, DWORD PTR _this$[ebp]
  00022	c6 40 08 ff	 mov	 BYTE PTR [eax+8], 255	; 000000ffH

; 44   : 		m_iY = -1;

  00026	8b 45 fc	 mov	 eax, DWORD PTR _this$[ebp]
  00029	c6 40 09 ff	 mov	 BYTE PTR [eax+9], 255	; 000000ffH

; 45   : 		m_bRegen = FALSE;

  0002d	8b 45 fc	 mov	 eax, DWORD PTR _this$[ebp]
  00030	c7 40 0c 00 00
	00 00		 mov	 DWORD PTR [eax+12], 0

; 46   : 	}

  00037	8b 45 fc	 mov	 eax, DWORD PTR _this$[ebp]
  0003a	5f		 pop	 edi
  0003b	5e		 pop	 esi
  0003c	5b		 pop	 ebx
  0003d	8b e5		 mov	 esp, ebp
  0003f	5d		 pop	 ebp
  00040	c3		 ret	 0
??0_MONSTER_HERD_DATA@@QAE@XZ ENDP			; _MONSTER_HERD_DATA::_MONSTER_HERD_DATA
_TEXT	ENDS
; Function compile flags: /Odtp /ZI
; File C:\Program Files (x86)\Microsoft Visual Studio\2019\Community\VC\Tools\MSVC\14.27.29110\include\xmemory
;	COMDAT ??$_Allocate_manually_vector_aligned@U_Default_allocate_traits@std@@@std@@YAPAXI@Z
_TEXT	SEGMENT
__Ptr$ = -12						; size = 4
__Ptr_container$ = -8					; size = 4
__Block_size$ = -4					; size = 4
__Bytes$ = 8						; size = 4
??$_Allocate_manually_vector_aligned@U_Default_allocate_traits@std@@@std@@YAPAXI@Z PROC ; std::_Allocate_manually_vector_aligned<std::_Default_allocate_traits>, COMDAT

; 113  : __declspec(allocator) void* _Allocate_manually_vector_aligned(const size_t _Bytes) {

  00000	55		 push	 ebp
  00001	8b ec		 mov	 ebp, esp
  00003	83 ec 4c	 sub	 esp, 76			; 0000004cH
  00006	53		 push	 ebx
  00007	56		 push	 esi
  00008	57		 push	 edi

; 114  :     // allocate _Bytes manually aligned to at least _Big_allocation_alignment
; 115  :     const size_t _Block_size = _Non_user_size + _Bytes;

  00009	8b 45 08	 mov	 eax, DWORD PTR __Bytes$[ebp]
  0000c	83 c0 23	 add	 eax, 35			; 00000023H
  0000f	89 45 fc	 mov	 DWORD PTR __Block_size$[ebp], eax

; 116  :     if (_Block_size <= _Bytes) {

  00012	8b 45 fc	 mov	 eax, DWORD PTR __Block_size$[ebp]
  00015	3b 45 08	 cmp	 eax, DWORD PTR __Bytes$[ebp]
  00018	77 05		 ja	 SHORT $LN8@Allocate_m

; 117  :         _Throw_bad_array_new_length(); // add overflow

  0001a	e8 00 00 00 00	 call	 ?_Throw_bad_array_new_length@std@@YAXXZ ; std::_Throw_bad_array_new_length
$LN8@Allocate_m:

; 118  :     }
; 119  : 
; 120  :     const uintptr_t _Ptr_container = reinterpret_cast<uintptr_t>(_Traits::_Allocate(_Block_size));

  0001f	8b 45 fc	 mov	 eax, DWORD PTR __Block_size$[ebp]
  00022	50		 push	 eax
  00023	e8 00 00 00 00	 call	 ?_Allocate@_Default_allocate_traits@std@@SAPAXI@Z ; std::_Default_allocate_traits::_Allocate
  00028	83 c4 04	 add	 esp, 4
  0002b	89 45 f8	 mov	 DWORD PTR __Ptr_container$[ebp], eax
$LN4@Allocate_m:

; 121  :     _STL_VERIFY(_Ptr_container != 0, "invalid argument"); // validate even in release since we're doing p[-1]

  0002e	83 7d f8 00	 cmp	 DWORD PTR __Ptr_container$[ebp], 0
  00032	74 02		 je	 SHORT $LN7@Allocate_m
  00034	eb 09		 jmp	 SHORT $LN2@Allocate_m
$LN7@Allocate_m:
  00036	e8 00 00 00 00	 call	 __invalid_parameter_noinfo_noreturn
  0003b	33 c0		 xor	 eax, eax
  0003d	75 f7		 jne	 SHORT $LN7@Allocate_m
$LN2@Allocate_m:
  0003f	33 c0		 xor	 eax, eax
  00041	75 eb		 jne	 SHORT $LN4@Allocate_m

; 122  :     void* const _Ptr = reinterpret_cast<void*>((_Ptr_container + _Non_user_size) & ~(_Big_allocation_alignment - 1));

  00043	8b 45 f8	 mov	 eax, DWORD PTR __Ptr_container$[ebp]
  00046	83 c0 23	 add	 eax, 35			; 00000023H
  00049	83 e0 e0	 and	 eax, -32		; ffffffe0H
  0004c	89 45 f4	 mov	 DWORD PTR __Ptr$[ebp], eax

; 123  :     static_cast<uintptr_t*>(_Ptr)[-1] = _Ptr_container;

  0004f	b8 04 00 00 00	 mov	 eax, 4
  00054	6b c8 ff	 imul	 ecx, eax, -1
  00057	8b 55 f4	 mov	 edx, DWORD PTR __Ptr$[ebp]
  0005a	8b 45 f8	 mov	 eax, DWORD PTR __Ptr_container$[ebp]
  0005d	89 04 0a	 mov	 DWORD PTR [edx+ecx], eax

; 124  : 
; 125  : #ifdef _DEBUG
; 126  :     static_cast<uintptr_t*>(_Ptr)[-2] = _Big_allocation_sentinel;
; 127  : #endif // _DEBUG
; 128  :     return _Ptr;

  00060	8b 45 f4	 mov	 eax, DWORD PTR __Ptr$[ebp]
$LN11@Allocate_m:

; 129  : }

  00063	5f		 pop	 edi
  00064	5e		 pop	 esi
  00065	5b		 pop	 ebx
  00066	8b e5		 mov	 esp, ebp
  00068	5d		 pop	 ebp
  00069	c3		 ret	 0
??$_Allocate_manually_vector_aligned@U_Default_allocate_traits@std@@@std@@YAPAXI@Z ENDP ; std::_Allocate_manually_vector_aligned<std::_Default_allocate_traits>
_TEXT	ENDS
; Function compile flags: /Odtp /ZI
; File C:\Program Files (x86)\Microsoft Visual Studio\2019\Community\VC\Tools\MSVC\14.27.29110\include\xmemory
;	COMDAT ??$_Allocate@$07U_Default_allocate_traits@std@@$0A@@std@@YAPAXI@Z
_TEXT	SEGMENT
__Bytes$ = 8						; size = 4
??$_Allocate@$07U_Default_allocate_traits@std@@$0A@@std@@YAPAXI@Z PROC ; std::_Allocate<8,std::_Default_allocate_traits,0>, COMDAT

; 197  : __declspec(allocator) void* _Allocate(const size_t _Bytes) {

  00000	55		 push	 ebp
  00001	8b ec		 mov	 ebp, esp
  00003	83 ec 40	 sub	 esp, 64			; 00000040H
  00006	53		 push	 ebx
  00007	56		 push	 esi
  00008	57		 push	 edi

; 198  :     // allocate _Bytes when !_HAS_ALIGNED_NEW || _Align <= __STDCPP_DEFAULT_NEW_ALIGNMENT__
; 199  : #if defined(_M_IX86) || defined(_M_X64)
; 200  :     if (_Bytes >= _Big_allocation_threshold) { // boost the alignment of big allocations to help autovectorization

  00009	81 7d 08 00 10
	00 00		 cmp	 DWORD PTR __Bytes$[ebp], 4096 ; 00001000H
  00010	72 0e		 jb	 SHORT $LN2@Allocate

; 201  :         return _Allocate_manually_vector_aligned<_Traits>(_Bytes);

  00012	8b 45 08	 mov	 eax, DWORD PTR __Bytes$[ebp]
  00015	50		 push	 eax
  00016	e8 00 00 00 00	 call	 ??$_Allocate_manually_vector_aligned@U_Default_allocate_traits@std@@@std@@YAPAXI@Z ; std::_Allocate_manually_vector_aligned<std::_Default_allocate_traits>
  0001b	83 c4 04	 add	 esp, 4
  0001e	eb 16		 jmp	 SHORT $LN1@Allocate
$LN2@Allocate:

; 202  :     }
; 203  : #endif // defined(_M_IX86) || defined(_M_X64)
; 204  : 
; 205  :     if (_Bytes != 0) {

  00020	83 7d 08 00	 cmp	 DWORD PTR __Bytes$[ebp], 0
  00024	74 0e		 je	 SHORT $LN3@Allocate

; 206  :         return _Traits::_Allocate(_Bytes);

  00026	8b 45 08	 mov	 eax, DWORD PTR __Bytes$[ebp]
  00029	50		 push	 eax
  0002a	e8 00 00 00 00	 call	 ?_Allocate@_Default_allocate_traits@std@@SAPAXI@Z ; std::_Default_allocate_traits::_Allocate
  0002f	83 c4 04	 add	 esp, 4
  00032	eb 02		 jmp	 SHORT $LN1@Allocate
$LN3@Allocate:

; 207  :     }
; 208  : 
; 209  :     return nullptr;

  00034	33 c0		 xor	 eax, eax
$LN1@Allocate:

; 210  : }

  00036	5f		 pop	 edi
  00037	5e		 pop	 esi
  00038	5b		 pop	 ebx
  00039	8b e5		 mov	 esp, ebp
  0003b	5d		 pop	 ebp
  0003c	c3		 ret	 0
??$_Allocate@$07U_Default_allocate_traits@std@@$0A@@std@@YAPAXI@Z ENDP ; std::_Allocate<8,std::_Default_allocate_traits,0>
_TEXT	ENDS
; Function compile flags: /Odtp /ZI
; File C:\Program Files (x86)\Microsoft Visual Studio\2019\Community\VC\Tools\MSVC\14.27.29110\include\xmemory
;	COMDAT ??$_Deallocate@$07$0A@@std@@YAXPAXI@Z
_TEXT	SEGMENT
__$EHRec$ = -12						; size = 12
__Ptr$ = 8						; size = 4
__Bytes$ = 12						; size = 4
??$_Deallocate@$07$0A@@std@@YAXPAXI@Z PROC		; std::_Deallocate<8,0>, COMDAT

; 213  : void _Deallocate(void* _Ptr, size_t _Bytes) noexcept {

  00000	55		 push	 ebp
  00001	8b ec		 mov	 ebp, esp
  00003	6a ff		 push	 -1
  00005	68 00 00 00 00	 push	 __ehhandler$??$_Deallocate@$07$0A@@std@@YAXPAXI@Z
  0000a	64 a1 00 00 00
	00		 mov	 eax, DWORD PTR fs:0
  00010	50		 push	 eax
  00011	83 ec 40	 sub	 esp, 64			; 00000040H
  00014	53		 push	 ebx
  00015	56		 push	 esi
  00016	57		 push	 edi
  00017	a1 00 00 00 00	 mov	 eax, DWORD PTR ___security_cookie
  0001c	33 c5		 xor	 eax, ebp
  0001e	50		 push	 eax
  0001f	8d 45 f4	 lea	 eax, DWORD PTR __$EHRec$[ebp]
  00022	64 a3 00 00 00
	00		 mov	 DWORD PTR fs:0, eax

; 214  :     // deallocate storage allocated by _Allocate when !_HAS_ALIGNED_NEW || _Align <= __STDCPP_DEFAULT_NEW_ALIGNMENT__
; 215  : #if defined(_M_IX86) || defined(_M_X64)
; 216  :     if (_Bytes >= _Big_allocation_threshold) { // boost the alignment of big allocations to help autovectorization

  00028	81 7d 0c 00 10
	00 00		 cmp	 DWORD PTR __Bytes$[ebp], 4096 ; 00001000H
  0002f	72 10		 jb	 SHORT $LN2@Deallocate

; 217  :         _Adjust_manually_vector_aligned(_Ptr, _Bytes);

  00031	8d 45 0c	 lea	 eax, DWORD PTR __Bytes$[ebp]
  00034	50		 push	 eax
  00035	8d 4d 08	 lea	 ecx, DWORD PTR __Ptr$[ebp]
  00038	51		 push	 ecx
  00039	e8 00 00 00 00	 call	 ?_Adjust_manually_vector_aligned@std@@YAXAAPAXAAI@Z ; std::_Adjust_manually_vector_aligned
  0003e	83 c4 08	 add	 esp, 8
$LN2@Deallocate:

; 218  :     }
; 219  : #endif // defined(_M_IX86) || defined(_M_X64)
; 220  : 
; 221  :     ::operator delete(_Ptr, _Bytes);

  00041	8b 45 0c	 mov	 eax, DWORD PTR __Bytes$[ebp]
  00044	50		 push	 eax
  00045	8b 4d 08	 mov	 ecx, DWORD PTR __Ptr$[ebp]
  00048	51		 push	 ecx
  00049	e8 00 00 00 00	 call	 ??3@YAXPAXI@Z		; operator delete
  0004e	83 c4 08	 add	 esp, 8

; 222  : }

  00051	8b 4d f4	 mov	 ecx, DWORD PTR __$EHRec$[ebp]
  00054	64 89 0d 00 00
	00 00		 mov	 DWORD PTR fs:0, ecx
  0005b	59		 pop	 ecx
  0005c	5f		 pop	 edi
  0005d	5e		 pop	 esi
  0005e	5b		 pop	 ebx
  0005f	8b e5		 mov	 esp, ebp
  00061	5d		 pop	 ebp
  00062	c3		 ret	 0
  00063	cc		 int	 3
  00064	cc		 int	 3
  00065	cc		 int	 3
  00066	cc		 int	 3
  00067	cc		 int	 3
_TEXT	ENDS
;	COMDAT text$x
text$x	SEGMENT
__ehhandler$??$_Deallocate@$07$0A@@std@@YAXPAXI@Z:
  00000	90		 npad	 1
  00001	90		 npad	 1
  00002	8b 54 24 08	 mov	 edx, DWORD PTR [esp+8]
  00006	8d 42 0c	 lea	 eax, DWORD PTR [edx+12]
  00009	8b 4a b0	 mov	 ecx, DWORD PTR [edx-80]
  0000c	33 c8		 xor	 ecx, eax
  0000e	e8 00 00 00 00	 call	 @__security_check_cookie@4
  00013	b8 00 00 00 00	 mov	 eax, OFFSET __ehfuncinfo$??$_Deallocate@$07$0A@@std@@YAXPAXI@Z
  00018	e9 00 00 00 00	 jmp	 ___CxxFrameHandler3
text$x	ENDS
??$_Deallocate@$07$0A@@std@@YAXPAXI@Z ENDP		; std::_Deallocate<8,0>
; Function compile flags: /Odtp /ZI
; File C:\Program Files (x86)\Microsoft Visual Studio\2019\Community\VC\Tools\MSVC\14.27.29110\include\utility
;	COMDAT ??$min@I@std@@YAABIABI0@Z
_TEXT	SEGMENT
tv65 = -72						; size = 4
$T1 = -68						; size = 4
__Left$ = 8						; size = 4
__Right$ = 12						; size = 4
??$min@I@std@@YAABIABI0@Z PROC				; std::min<unsigned int>, COMDAT

; 67   :     const _Ty& _Left, const _Ty& _Right) noexcept(noexcept(_Right < _Left)) /* strengthened */ {

  00000	55		 push	 ebp
  00001	8b ec		 mov	 ebp, esp
  00003	83 ec 48	 sub	 esp, 72			; 00000048H
  00006	53		 push	 ebx
  00007	56		 push	 esi
  00008	57		 push	 edi

; 68   :     // return smaller of _Left and _Right
; 69   :     return _Right < _Left ? _Right : _Left;

  00009	8b 45 0c	 mov	 eax, DWORD PTR __Right$[ebp]
  0000c	8b 4d 08	 mov	 ecx, DWORD PTR __Left$[ebp]
  0000f	8b 10		 mov	 edx, DWORD PTR [eax]
  00011	3b 11		 cmp	 edx, DWORD PTR [ecx]
  00013	73 08		 jae	 SHORT $LN3@min
  00015	8b 45 0c	 mov	 eax, DWORD PTR __Right$[ebp]
  00018	89 45 b8	 mov	 DWORD PTR tv65[ebp], eax
  0001b	eb 06		 jmp	 SHORT $LN4@min
$LN3@min:
  0001d	8b 4d 08	 mov	 ecx, DWORD PTR __Left$[ebp]
  00020	89 4d b8	 mov	 DWORD PTR tv65[ebp], ecx
$LN4@min:
  00023	8b 55 b8	 mov	 edx, DWORD PTR tv65[ebp]
  00026	89 55 bc	 mov	 DWORD PTR $T1[ebp], edx
  00029	8b 45 bc	 mov	 eax, DWORD PTR $T1[ebp]

; 70   : }

  0002c	5f		 pop	 edi
  0002d	5e		 pop	 esi
  0002e	5b		 pop	 ebx
  0002f	8b e5		 mov	 esp, ebp
  00031	5d		 pop	 ebp
  00032	c3		 ret	 0
??$min@I@std@@YAABIABI0@Z ENDP				; std::min<unsigned int>
_TEXT	ENDS
; Function compile flags: /Odtp /ZI
; File C:\Program Files (x86)\Microsoft Visual Studio\2019\Community\VC\Tools\MSVC\14.27.29110\include\xstddef
;	COMDAT ??R?$less@H@std@@QBE_NABH0@Z
_TEXT	SEGMENT
tv65 = -72						; size = 4
_this$ = -4						; size = 4
__Left$ = 8						; size = 4
__Right$ = 12						; size = 4
??R?$less@H@std@@QBE_NABH0@Z PROC			; std::less<int>::operator(), COMDAT
; _this$ = ecx

; 126  :     constexpr bool operator()(const _Ty& _Left, const _Ty& _Right) const {

  00000	55		 push	 ebp
  00001	8b ec		 mov	 ebp, esp
  00003	83 ec 48	 sub	 esp, 72			; 00000048H
  00006	53		 push	 ebx
  00007	56		 push	 esi
  00008	57		 push	 edi
  00009	89 4d fc	 mov	 DWORD PTR _this$[ebp], ecx

; 127  :         return _Left < _Right;

  0000c	8b 45 08	 mov	 eax, DWORD PTR __Left$[ebp]
  0000f	8b 4d 0c	 mov	 ecx, DWORD PTR __Right$[ebp]
  00012	8b 10		 mov	 edx, DWORD PTR [eax]
  00014	3b 11		 cmp	 edx, DWORD PTR [ecx]
  00016	7d 09		 jge	 SHORT $LN3@operator
  00018	c7 45 b8 01 00
	00 00		 mov	 DWORD PTR tv65[ebp], 1
  0001f	eb 07		 jmp	 SHORT $LN4@operator
$LN3@operator:
  00021	c7 45 b8 00 00
	00 00		 mov	 DWORD PTR tv65[ebp], 0
$LN4@operator:
  00028	8a 45 b8	 mov	 al, BYTE PTR tv65[ebp]

; 128  :     }

  0002b	5f		 pop	 edi
  0002c	5e		 pop	 esi
  0002d	5b		 pop	 ebx
  0002e	8b e5		 mov	 esp, ebp
  00030	5d		 pop	 ebp
  00031	c2 08 00	 ret	 8
??R?$less@H@std@@QBE_NABH0@Z ENDP			; std::less<int>::operator()
_TEXT	ENDS
; Function compile flags: /Odtp /ZI
; File C:\Program Files (x86)\Microsoft Visual Studio\2019\Community\VC\Tools\MSVC\14.27.29110\include\xtree
;	COMDAT ?_Throw_tree_length_error@std@@YAXXZ
_TEXT	SEGMENT
?_Throw_tree_length_error@std@@YAXXZ PROC		; std::_Throw_tree_length_error, COMDAT

; 414  : [[noreturn]] inline void _Throw_tree_length_error() {

  00000	55		 push	 ebp
  00001	8b ec		 mov	 ebp, esp
  00003	83 ec 40	 sub	 esp, 64			; 00000040H
  00006	53		 push	 ebx
  00007	56		 push	 esi
  00008	57		 push	 edi

; 415  :     _Xlength_error("map/set too long");

  00009	68 00 00 00 00	 push	 OFFSET ??_C@_0BB@GCADKGJO@map?1set?5too?5long@
  0000e	e8 00 00 00 00	 call	 ?_Xlength_error@std@@YAXPBD@Z ; std::_Xlength_error
$LN2@Throw_tree:

; 416  : }

  00013	5f		 pop	 edi
  00014	5e		 pop	 esi
  00015	5b		 pop	 ebx
  00016	8b e5		 mov	 esp, ebp
  00018	5d		 pop	 ebp
  00019	c3		 ret	 0
?_Throw_tree_length_error@std@@YAXXZ ENDP		; std::_Throw_tree_length_error
_TEXT	ENDS
; Function compile flags: /Odtp /ZI
; File C:\Program Files (x86)\Microsoft Visual Studio\2019\Community\VC\Tools\MSVC\14.27.29110\include\xmemory
;	COMDAT ?_Release@_Fake_proxy_ptr_impl@std@@QAEXXZ
_TEXT	SEGMENT
_this$ = -4						; size = 4
?_Release@_Fake_proxy_ptr_impl@std@@QAEXXZ PROC		; std::_Fake_proxy_ptr_impl::_Release, COMDAT
; _this$ = ecx

; 1259 :     void _Release() noexcept {}

  00000	55		 push	 ebp
  00001	8b ec		 mov	 ebp, esp
  00003	83 ec 44	 sub	 esp, 68			; 00000044H
  00006	53		 push	 ebx
  00007	56		 push	 esi
  00008	57		 push	 edi
  00009	89 4d fc	 mov	 DWORD PTR _this$[ebp], ecx
  0000c	5f		 pop	 edi
  0000d	5e		 pop	 esi
  0000e	5b		 pop	 ebx
  0000f	8b e5		 mov	 esp, ebp
  00011	5d		 pop	 ebp
  00012	c3		 ret	 0
?_Release@_Fake_proxy_ptr_impl@std@@QAEXXZ ENDP		; std::_Fake_proxy_ptr_impl::_Release
_TEXT	ENDS
; Function compile flags: /Odtp /ZI
; File C:\Program Files (x86)\Microsoft Visual Studio\2019\Community\VC\Tools\MSVC\14.27.29110\include\xmemory
;	COMDAT ??0_Fake_proxy_ptr_impl@std@@QAE@ABU_Fake_allocator@1@ABU_Container_base0@1@@Z
_TEXT	SEGMENT
_this$ = -4						; size = 4
___formal$ = 8						; size = 4
___formal$ = 12						; size = 4
??0_Fake_proxy_ptr_impl@std@@QAE@ABU_Fake_allocator@1@ABU_Container_base0@1@@Z PROC ; std::_Fake_proxy_ptr_impl::_Fake_proxy_ptr_impl, COMDAT
; _this$ = ecx

; 1256 :     _Fake_proxy_ptr_impl(const _Fake_allocator&, const _Container_base0&) noexcept {}

  00000	55		 push	 ebp
  00001	8b ec		 mov	 ebp, esp
  00003	83 ec 44	 sub	 esp, 68			; 00000044H
  00006	53		 push	 ebx
  00007	56		 push	 esi
  00008	57		 push	 edi
  00009	89 4d fc	 mov	 DWORD PTR _this$[ebp], ecx
  0000c	8b 45 fc	 mov	 eax, DWORD PTR _this$[ebp]
  0000f	5f		 pop	 edi
  00010	5e		 pop	 esi
  00011	5b		 pop	 ebx
  00012	8b e5		 mov	 esp, ebp
  00014	5d		 pop	 ebp
  00015	c2 08 00	 ret	 8
??0_Fake_proxy_ptr_impl@std@@QAE@ABU_Fake_allocator@1@ABU_Container_base0@1@@Z ENDP ; std::_Fake_proxy_ptr_impl::_Fake_proxy_ptr_impl
_TEXT	ENDS
; Function compile flags: /Odtp /ZI
; File C:\Program Files (x86)\Microsoft Visual Studio\2019\Community\VC\Tools\MSVC\14.27.29110\include\xmemory
;	COMDAT ?_Getcont@_Iterator_base0@std@@QBEPBU_Container_base0@2@XZ
_TEXT	SEGMENT
_this$ = -4						; size = 4
?_Getcont@_Iterator_base0@std@@QBEPBU_Container_base0@2@XZ PROC ; std::_Iterator_base0::_Getcont, COMDAT
; _this$ = ecx

; 1073 :     const _Container_base0* _Getcont() const noexcept {

  00000	55		 push	 ebp
  00001	8b ec		 mov	 ebp, esp
  00003	83 ec 44	 sub	 esp, 68			; 00000044H
  00006	53		 push	 ebx
  00007	56		 push	 esi
  00008	57		 push	 edi
  00009	89 4d fc	 mov	 DWORD PTR _this$[ebp], ecx

; 1074 :         return nullptr;

  0000c	33 c0		 xor	 eax, eax

; 1075 :     }

  0000e	5f		 pop	 edi
  0000f	5e		 pop	 esi
  00010	5b		 pop	 ebx
  00011	8b e5		 mov	 esp, ebp
  00013	5d		 pop	 ebp
  00014	c3		 ret	 0
?_Getcont@_Iterator_base0@std@@QBEPBU_Container_base0@2@XZ ENDP ; std::_Iterator_base0::_Getcont
_TEXT	ENDS
; Function compile flags: /Odtp /ZI
; File C:\Program Files (x86)\Microsoft Visual Studio\2019\Community\VC\Tools\MSVC\14.27.29110\include\xmemory
;	COMDAT ?_Adopt@_Iterator_base0@std@@QAEXPBX@Z
_TEXT	SEGMENT
_this$ = -4						; size = 4
___formal$ = 8						; size = 4
?_Adopt@_Iterator_base0@std@@QAEXPBX@Z PROC		; std::_Iterator_base0::_Adopt, COMDAT
; _this$ = ecx

; 1072 :     void _Adopt(const void*) noexcept {}

  00000	55		 push	 ebp
  00001	8b ec		 mov	 ebp, esp
  00003	83 ec 44	 sub	 esp, 68			; 00000044H
  00006	53		 push	 ebx
  00007	56		 push	 esi
  00008	57		 push	 edi
  00009	89 4d fc	 mov	 DWORD PTR _this$[ebp], ecx
  0000c	5f		 pop	 edi
  0000d	5e		 pop	 esi
  0000e	5b		 pop	 ebx
  0000f	8b e5		 mov	 esp, ebp
  00011	5d		 pop	 ebp
  00012	c2 04 00	 ret	 4
?_Adopt@_Iterator_base0@std@@QAEXPBX@Z ENDP		; std::_Iterator_base0::_Adopt
_TEXT	ENDS
; Function compile flags: /Odtp /ZI
; File C:\Program Files (x86)\Microsoft Visual Studio\2019\Community\VC\Tools\MSVC\14.27.29110\include\xmemory
;	COMDAT ?_Orphan_all@_Container_base0@std@@QAEXXZ
_TEXT	SEGMENT
_this$ = -4						; size = 4
?_Orphan_all@_Container_base0@std@@QAEXXZ PROC		; std::_Container_base0::_Orphan_all, COMDAT
; _this$ = ecx

; 1065 :     void _Orphan_all() noexcept {}

  00000	55		 push	 ebp
  00001	8b ec		 mov	 ebp, esp
  00003	83 ec 44	 sub	 esp, 68			; 00000044H
  00006	53		 push	 ebx
  00007	56		 push	 esi
  00008	57		 push	 edi
  00009	89 4d fc	 mov	 DWORD PTR _this$[ebp], ecx
  0000c	5f		 pop	 edi
  0000d	5e		 pop	 esi
  0000e	5b		 pop	 ebx
  0000f	8b e5		 mov	 esp, ebp
  00011	5d		 pop	 ebp
  00012	c3		 ret	 0
?_Orphan_all@_Container_base0@std@@QAEXXZ ENDP		; std::_Container_base0::_Orphan_all
_TEXT	ENDS
; Function compile flags: /Odtp /ZI
; File C:\Program Files (x86)\Microsoft Visual Studio\2019\Community\VC\Tools\MSVC\14.27.29110\include\xmemory
;	COMDAT ?_Adjust_manually_vector_aligned@std@@YAXAAPAXAAI@Z
_TEXT	SEGMENT
__Back_shift$ = -16					; size = 4
__Min_back_shift$ = -12					; size = 4
__Ptr_container$ = -8					; size = 4
__Ptr_user$ = -4					; size = 4
__Ptr$ = 8						; size = 4
__Bytes$ = 12						; size = 4
?_Adjust_manually_vector_aligned@std@@YAXAAPAXAAI@Z PROC ; std::_Adjust_manually_vector_aligned, COMDAT

; 132  : inline void _Adjust_manually_vector_aligned(void*& _Ptr, size_t& _Bytes) {

  00000	55		 push	 ebp
  00001	8b ec		 mov	 ebp, esp
  00003	83 ec 50	 sub	 esp, 80			; 00000050H
  00006	53		 push	 ebx
  00007	56		 push	 esi
  00008	57		 push	 edi

; 133  :     // adjust parameters from _Allocate_manually_vector_aligned to pass to operator delete
; 134  :     _Bytes += _Non_user_size;

  00009	8b 45 0c	 mov	 eax, DWORD PTR __Bytes$[ebp]
  0000c	8b 08		 mov	 ecx, DWORD PTR [eax]
  0000e	83 c1 23	 add	 ecx, 35			; 00000023H
  00011	8b 55 0c	 mov	 edx, DWORD PTR __Bytes$[ebp]
  00014	89 0a		 mov	 DWORD PTR [edx], ecx

; 135  : 
; 136  :     const uintptr_t* const _Ptr_user = reinterpret_cast<uintptr_t*>(_Ptr);

  00016	8b 45 08	 mov	 eax, DWORD PTR __Ptr$[ebp]
  00019	8b 08		 mov	 ecx, DWORD PTR [eax]
  0001b	89 4d fc	 mov	 DWORD PTR __Ptr_user$[ebp], ecx

; 137  :     const uintptr_t _Ptr_container   = _Ptr_user[-1];

  0001e	b8 04 00 00 00	 mov	 eax, 4
  00023	6b c8 ff	 imul	 ecx, eax, -1
  00026	8b 55 fc	 mov	 edx, DWORD PTR __Ptr_user$[ebp]
  00029	8b 04 0a	 mov	 eax, DWORD PTR [edx+ecx]
  0002c	89 45 f8	 mov	 DWORD PTR __Ptr_container$[ebp], eax

; 138  : 
; 139  :     // If the following asserts, it likely means that we are performing
; 140  :     // an aligned delete on memory coming from an unaligned allocation.
; 141  :     _STL_ASSERT(_Ptr_user[-2] == _Big_allocation_sentinel, "invalid argument");
; 142  : 
; 143  :     // Extra paranoia on aligned allocation/deallocation; ensure _Ptr_container is
; 144  :     // in range [_Min_back_shift, _Non_user_size]
; 145  : #ifdef _DEBUG
; 146  :     constexpr uintptr_t _Min_back_shift = 2 * sizeof(void*);
; 147  : #else // ^^^ _DEBUG ^^^ // vvv !_DEBUG vvv
; 148  :     constexpr uintptr_t _Min_back_shift = sizeof(void*);

  0002f	c7 45 f4 04 00
	00 00		 mov	 DWORD PTR __Min_back_shift$[ebp], 4

; 149  : #endif // _DEBUG
; 150  :     const uintptr_t _Back_shift = reinterpret_cast<uintptr_t>(_Ptr) - _Ptr_container;

  00036	8b 45 08	 mov	 eax, DWORD PTR __Ptr$[ebp]
  00039	8b 08		 mov	 ecx, DWORD PTR [eax]
  0003b	2b 4d f8	 sub	 ecx, DWORD PTR __Ptr_container$[ebp]
  0003e	89 4d f0	 mov	 DWORD PTR __Back_shift$[ebp], ecx
$LN4@Adjust_man:

; 151  :     _STL_VERIFY(_Back_shift >= _Min_back_shift && _Back_shift <= _Non_user_size, "invalid argument");

  00041	83 7d f0 04	 cmp	 DWORD PTR __Back_shift$[ebp], 4
  00045	72 08		 jb	 SHORT $LN7@Adjust_man
  00047	83 7d f0 23	 cmp	 DWORD PTR __Back_shift$[ebp], 35 ; 00000023H
  0004b	77 02		 ja	 SHORT $LN7@Adjust_man
  0004d	eb 09		 jmp	 SHORT $LN2@Adjust_man
$LN7@Adjust_man:
  0004f	e8 00 00 00 00	 call	 __invalid_parameter_noinfo_noreturn
  00054	33 c0		 xor	 eax, eax
  00056	75 f7		 jne	 SHORT $LN7@Adjust_man
$LN2@Adjust_man:
  00058	33 c0		 xor	 eax, eax
  0005a	75 e5		 jne	 SHORT $LN4@Adjust_man

; 152  :     _Ptr = reinterpret_cast<void*>(_Ptr_container);

  0005c	8b 45 08	 mov	 eax, DWORD PTR __Ptr$[ebp]
  0005f	8b 4d f8	 mov	 ecx, DWORD PTR __Ptr_container$[ebp]
  00062	89 08		 mov	 DWORD PTR [eax], ecx
$LN10@Adjust_man:

; 153  : }

  00064	5f		 pop	 edi
  00065	5e		 pop	 esi
  00066	5b		 pop	 ebx
  00067	8b e5		 mov	 esp, ebp
  00069	5d		 pop	 ebp
  0006a	c3		 ret	 0
?_Adjust_manually_vector_aligned@std@@YAXAAPAXAAI@Z ENDP ; std::_Adjust_manually_vector_aligned
_TEXT	ENDS
; Function compile flags: /Odtp /ZI
; File C:\Program Files (x86)\Microsoft Visual Studio\2019\Community\VC\Tools\MSVC\14.27.29110\include\xmemory
;	COMDAT ?_Allocate@_Default_allocate_traits@std@@SAPAXI@Z
_TEXT	SEGMENT
__Bytes$ = 8						; size = 4
?_Allocate@_Default_allocate_traits@std@@SAPAXI@Z PROC	; std::_Default_allocate_traits::_Allocate, COMDAT

; 76   :     __declspec(allocator) static void* _Allocate(const size_t _Bytes) {

  00000	55		 push	 ebp
  00001	8b ec		 mov	 ebp, esp
  00003	83 ec 40	 sub	 esp, 64			; 00000040H
  00006	53		 push	 ebx
  00007	56		 push	 esi
  00008	57		 push	 edi

; 77   :         return ::operator new(_Bytes);

  00009	8b 45 08	 mov	 eax, DWORD PTR __Bytes$[ebp]
  0000c	50		 push	 eax
  0000d	e8 00 00 00 00	 call	 ??2@YAPAXI@Z		; operator new
  00012	83 c4 04	 add	 esp, 4

; 78   :     }

  00015	5f		 pop	 edi
  00016	5e		 pop	 esi
  00017	5b		 pop	 ebx
  00018	8b e5		 mov	 esp, ebp
  0001a	5d		 pop	 ebp
  0001b	c3		 ret	 0
?_Allocate@_Default_allocate_traits@std@@SAPAXI@Z ENDP	; std::_Default_allocate_traits::_Allocate
_TEXT	ENDS
; Function compile flags: /Odtp /ZI
; File C:\Program Files (x86)\Microsoft Visual Studio\2019\Community\VC\Tools\MSVC\14.27.29110\include\limits
;	COMDAT ?max@?$numeric_limits@H@std@@SAHXZ
_TEXT	SEGMENT
?max@?$numeric_limits@H@std@@SAHXZ PROC			; std::numeric_limits<int>::max, COMDAT

; 554  :     _NODISCARD static constexpr int(max)() noexcept {

  00000	55		 push	 ebp
  00001	8b ec		 mov	 ebp, esp
  00003	83 ec 40	 sub	 esp, 64			; 00000040H
  00006	53		 push	 ebx
  00007	56		 push	 esi
  00008	57		 push	 edi

; 555  :         return INT_MAX;

  00009	b8 ff ff ff 7f	 mov	 eax, 2147483647		; 7fffffffH

; 556  :     }

  0000e	5f		 pop	 edi
  0000f	5e		 pop	 esi
  00010	5b		 pop	 ebx
  00011	8b e5		 mov	 esp, ebp
  00013	5d		 pop	 ebp
  00014	c3		 ret	 0
?max@?$numeric_limits@H@std@@SAHXZ ENDP			; std::numeric_limits<int>::max
_TEXT	ENDS
; Function compile flags: /Odtp /ZI
; File C:\Program Files (x86)\Microsoft Visual Studio\2019\Community\VC\Tools\MSVC\14.27.29110\include\exception
;	COMDAT ?_Throw_bad_array_new_length@std@@YAXXZ
_TEXT	SEGMENT
$T1 = -76						; size = 12
?_Throw_bad_array_new_length@std@@YAXXZ PROC		; std::_Throw_bad_array_new_length, COMDAT

; 320  : [[noreturn]] inline void _Throw_bad_array_new_length() {

  00000	55		 push	 ebp
  00001	8b ec		 mov	 ebp, esp
  00003	83 ec 4c	 sub	 esp, 76			; 0000004cH
  00006	53		 push	 ebx
  00007	56		 push	 esi
  00008	57		 push	 edi

; 321  :     _THROW(bad_array_new_length{});

  00009	8d 4d b4	 lea	 ecx, DWORD PTR $T1[ebp]
  0000c	e8 00 00 00 00	 call	 ??0bad_array_new_length@std@@QAE@XZ ; std::bad_array_new_length::bad_array_new_length
  00011	68 00 00 00 00	 push	 OFFSET __TI3?AVbad_array_new_length@std@@
  00016	8d 45 b4	 lea	 eax, DWORD PTR $T1[ebp]
  00019	50		 push	 eax
  0001a	e8 00 00 00 00	 call	 __CxxThrowException@8
$LN2@Throw_bad_:

; 322  : }

  0001f	5f		 pop	 edi
  00020	5e		 pop	 esi
  00021	5b		 pop	 ebx
  00022	8b e5		 mov	 esp, ebp
  00024	5d		 pop	 ebp
  00025	c3		 ret	 0
?_Throw_bad_array_new_length@std@@YAXXZ ENDP		; std::_Throw_bad_array_new_length
_TEXT	ENDS
; Function compile flags: /Odtp /ZI
;	COMDAT ??_Gbad_array_new_length@std@@UAEPAXI@Z
_TEXT	SEGMENT
_this$ = -4						; size = 4
___flags$ = 8						; size = 4
??_Gbad_array_new_length@std@@UAEPAXI@Z PROC		; std::bad_array_new_length::`scalar deleting destructor', COMDAT
; _this$ = ecx
  00000	55		 push	 ebp
  00001	8b ec		 mov	 ebp, esp
  00003	83 ec 44	 sub	 esp, 68			; 00000044H
  00006	53		 push	 ebx
  00007	56		 push	 esi
  00008	57		 push	 edi
  00009	89 4d fc	 mov	 DWORD PTR _this$[ebp], ecx
  0000c	8b 4d fc	 mov	 ecx, DWORD PTR _this$[ebp]
  0000f	e8 00 00 00 00	 call	 ??1bad_array_new_length@std@@UAE@XZ
  00014	8b 45 08	 mov	 eax, DWORD PTR ___flags$[ebp]
  00017	83 e0 01	 and	 eax, 1
  0001a	74 0e		 je	 SHORT $LN2@scalar
  0001c	6a 0c		 push	 12			; 0000000cH
  0001e	8b 45 fc	 mov	 eax, DWORD PTR _this$[ebp]
  00021	50		 push	 eax
  00022	e8 00 00 00 00	 call	 ??3@YAXPAXI@Z		; operator delete
  00027	83 c4 08	 add	 esp, 8
$LN2@scalar:
  0002a	8b 45 fc	 mov	 eax, DWORD PTR _this$[ebp]
  0002d	5f		 pop	 edi
  0002e	5e		 pop	 esi
  0002f	5b		 pop	 ebx
  00030	8b e5		 mov	 esp, ebp
  00032	5d		 pop	 ebp
  00033	c2 04 00	 ret	 4
??_Gbad_array_new_length@std@@UAEPAXI@Z ENDP		; std::bad_array_new_length::`scalar deleting destructor'
_TEXT	ENDS
; Function compile flags: /Odtp /ZI
;	COMDAT ??0bad_array_new_length@std@@QAE@ABV01@@Z
_TEXT	SEGMENT
_this$ = -4						; size = 4
___that$ = 8						; size = 4
??0bad_array_new_length@std@@QAE@ABV01@@Z PROC		; std::bad_array_new_length::bad_array_new_length, COMDAT
; _this$ = ecx
  00000	55		 push	 ebp
  00001	8b ec		 mov	 ebp, esp
  00003	83 ec 44	 sub	 esp, 68			; 00000044H
  00006	53		 push	 ebx
  00007	56		 push	 esi
  00008	57		 push	 edi
  00009	89 4d fc	 mov	 DWORD PTR _this$[ebp], ecx
  0000c	8b 45 08	 mov	 eax, DWORD PTR ___that$[ebp]
  0000f	50		 push	 eax
  00010	8b 4d fc	 mov	 ecx, DWORD PTR _this$[ebp]
  00013	e8 00 00 00 00	 call	 ??0bad_alloc@std@@QAE@ABV01@@Z
  00018	8b 45 fc	 mov	 eax, DWORD PTR _this$[ebp]
  0001b	c7 00 00 00 00
	00		 mov	 DWORD PTR [eax], OFFSET ??_7bad_array_new_length@std@@6B@
  00021	8b 45 fc	 mov	 eax, DWORD PTR _this$[ebp]
  00024	5f		 pop	 edi
  00025	5e		 pop	 esi
  00026	5b		 pop	 ebx
  00027	8b e5		 mov	 esp, ebp
  00029	5d		 pop	 ebp
  0002a	c2 04 00	 ret	 4
??0bad_array_new_length@std@@QAE@ABV01@@Z ENDP		; std::bad_array_new_length::bad_array_new_length
_TEXT	ENDS
; Function compile flags: /Odtp /ZI
;	COMDAT ??1bad_array_new_length@std@@UAE@XZ
_TEXT	SEGMENT
_this$ = -4						; size = 4
??1bad_array_new_length@std@@UAE@XZ PROC		; std::bad_array_new_length::~bad_array_new_length, COMDAT
; _this$ = ecx
  00000	55		 push	 ebp
  00001	8b ec		 mov	 ebp, esp
  00003	83 ec 44	 sub	 esp, 68			; 00000044H
  00006	53		 push	 ebx
  00007	56		 push	 esi
  00008	57		 push	 edi
  00009	89 4d fc	 mov	 DWORD PTR _this$[ebp], ecx
  0000c	8b 4d fc	 mov	 ecx, DWORD PTR _this$[ebp]
  0000f	e8 00 00 00 00	 call	 ??1bad_alloc@std@@UAE@XZ
  00014	5f		 pop	 edi
  00015	5e		 pop	 esi
  00016	5b		 pop	 ebx
  00017	8b e5		 mov	 esp, ebp
  00019	5d		 pop	 ebp
  0001a	c3		 ret	 0
??1bad_array_new_length@std@@UAE@XZ ENDP		; std::bad_array_new_length::~bad_array_new_length
_TEXT	ENDS
; Function compile flags: /Odtp /ZI
; File C:\Program Files (x86)\Microsoft Visual Studio\2019\Community\VC\Tools\MSVC\14.27.29110\include\vcruntime_exception.h
;	COMDAT ??0bad_array_new_length@std@@QAE@XZ
_TEXT	SEGMENT
_this$ = -4						; size = 4
??0bad_array_new_length@std@@QAE@XZ PROC		; std::bad_array_new_length::bad_array_new_length, COMDAT
; _this$ = ecx

; 141  :     {

  00000	55		 push	 ebp
  00001	8b ec		 mov	 ebp, esp
  00003	83 ec 44	 sub	 esp, 68			; 00000044H
  00006	53		 push	 ebx
  00007	56		 push	 esi
  00008	57		 push	 edi
  00009	89 4d fc	 mov	 DWORD PTR _this$[ebp], ecx

; 140  :         : bad_alloc("bad array new length")

  0000c	68 00 00 00 00	 push	 OFFSET ??_C@_0BF@KINCDENJ@bad?5array?5new?5length@
  00011	8b 4d fc	 mov	 ecx, DWORD PTR _this$[ebp]
  00014	e8 00 00 00 00	 call	 ??0bad_alloc@std@@AAE@QBD@Z ; std::bad_alloc::bad_alloc

; 141  :     {

  00019	8b 45 fc	 mov	 eax, DWORD PTR _this$[ebp]
  0001c	c7 00 00 00 00
	00		 mov	 DWORD PTR [eax], OFFSET ??_7bad_array_new_length@std@@6B@

; 142  :     }

  00022	8b 45 fc	 mov	 eax, DWORD PTR _this$[ebp]
  00025	5f		 pop	 edi
  00026	5e		 pop	 esi
  00027	5b		 pop	 ebx
  00028	8b e5		 mov	 esp, ebp
  0002a	5d		 pop	 ebp
  0002b	c3		 ret	 0
??0bad_array_new_length@std@@QAE@XZ ENDP		; std::bad_array_new_length::bad_array_new_length
_TEXT	ENDS
; Function compile flags: /Odtp /ZI
;	COMDAT ??_Gbad_alloc@std@@UAEPAXI@Z
_TEXT	SEGMENT
_this$ = -4						; size = 4
___flags$ = 8						; size = 4
??_Gbad_alloc@std@@UAEPAXI@Z PROC			; std::bad_alloc::`scalar deleting destructor', COMDAT
; _this$ = ecx
  00000	55		 push	 ebp
  00001	8b ec		 mov	 ebp, esp
  00003	83 ec 44	 sub	 esp, 68			; 00000044H
  00006	53		 push	 ebx
  00007	56		 push	 esi
  00008	57		 push	 edi
  00009	89 4d fc	 mov	 DWORD PTR _this$[ebp], ecx
  0000c	8b 4d fc	 mov	 ecx, DWORD PTR _this$[ebp]
  0000f	e8 00 00 00 00	 call	 ??1bad_alloc@std@@UAE@XZ
  00014	8b 45 08	 mov	 eax, DWORD PTR ___flags$[ebp]
  00017	83 e0 01	 and	 eax, 1
  0001a	74 0e		 je	 SHORT $LN2@scalar
  0001c	6a 0c		 push	 12			; 0000000cH
  0001e	8b 45 fc	 mov	 eax, DWORD PTR _this$[ebp]
  00021	50		 push	 eax
  00022	e8 00 00 00 00	 call	 ??3@YAXPAXI@Z		; operator delete
  00027	83 c4 08	 add	 esp, 8
$LN2@scalar:
  0002a	8b 45 fc	 mov	 eax, DWORD PTR _this$[ebp]
  0002d	5f		 pop	 edi
  0002e	5e		 pop	 esi
  0002f	5b		 pop	 ebx
  00030	8b e5		 mov	 esp, ebp
  00032	5d		 pop	 ebp
  00033	c2 04 00	 ret	 4
??_Gbad_alloc@std@@UAEPAXI@Z ENDP			; std::bad_alloc::`scalar deleting destructor'
_TEXT	ENDS
; Function compile flags: /Odtp /ZI
;	COMDAT ??0bad_alloc@std@@QAE@ABV01@@Z
_TEXT	SEGMENT
_this$ = -4						; size = 4
___that$ = 8						; size = 4
??0bad_alloc@std@@QAE@ABV01@@Z PROC			; std::bad_alloc::bad_alloc, COMDAT
; _this$ = ecx
  00000	55		 push	 ebp
  00001	8b ec		 mov	 ebp, esp
  00003	83 ec 44	 sub	 esp, 68			; 00000044H
  00006	53		 push	 ebx
  00007	56		 push	 esi
  00008	57		 push	 edi
  00009	89 4d fc	 mov	 DWORD PTR _this$[ebp], ecx
  0000c	8b 45 08	 mov	 eax, DWORD PTR ___that$[ebp]
  0000f	50		 push	 eax
  00010	8b 4d fc	 mov	 ecx, DWORD PTR _this$[ebp]
  00013	e8 00 00 00 00	 call	 ??0exception@std@@QAE@ABV01@@Z ; std::exception::exception
  00018	8b 45 fc	 mov	 eax, DWORD PTR _this$[ebp]
  0001b	c7 00 00 00 00
	00		 mov	 DWORD PTR [eax], OFFSET ??_7bad_alloc@std@@6B@
  00021	8b 45 fc	 mov	 eax, DWORD PTR _this$[ebp]
  00024	5f		 pop	 edi
  00025	5e		 pop	 esi
  00026	5b		 pop	 ebx
  00027	8b e5		 mov	 esp, ebp
  00029	5d		 pop	 ebp
  0002a	c2 04 00	 ret	 4
??0bad_alloc@std@@QAE@ABV01@@Z ENDP			; std::bad_alloc::bad_alloc
_TEXT	ENDS
; Function compile flags: /Odtp /ZI
;	COMDAT ??1bad_alloc@std@@UAE@XZ
_TEXT	SEGMENT
_this$ = -4						; size = 4
??1bad_alloc@std@@UAE@XZ PROC				; std::bad_alloc::~bad_alloc, COMDAT
; _this$ = ecx
  00000	55		 push	 ebp
  00001	8b ec		 mov	 ebp, esp
  00003	83 ec 44	 sub	 esp, 68			; 00000044H
  00006	53		 push	 ebx
  00007	56		 push	 esi
  00008	57		 push	 edi
  00009	89 4d fc	 mov	 DWORD PTR _this$[ebp], ecx
  0000c	8b 4d fc	 mov	 ecx, DWORD PTR _this$[ebp]
  0000f	e8 00 00 00 00	 call	 ??1exception@std@@UAE@XZ ; std::exception::~exception
  00014	5f		 pop	 edi
  00015	5e		 pop	 esi
  00016	5b		 pop	 ebx
  00017	8b e5		 mov	 esp, ebp
  00019	5d		 pop	 ebp
  0001a	c3		 ret	 0
??1bad_alloc@std@@UAE@XZ ENDP				; std::bad_alloc::~bad_alloc
_TEXT	ENDS
; Function compile flags: /Odtp /ZI
; File C:\Program Files (x86)\Microsoft Visual Studio\2019\Community\VC\Tools\MSVC\14.27.29110\include\vcruntime_exception.h
;	COMDAT ??0bad_alloc@std@@AAE@QBD@Z
_TEXT	SEGMENT
_this$ = -4						; size = 4
__Message$ = 8						; size = 4
??0bad_alloc@std@@AAE@QBD@Z PROC			; std::bad_alloc::bad_alloc, COMDAT
; _this$ = ecx

; 130  :     {

  00000	55		 push	 ebp
  00001	8b ec		 mov	 ebp, esp
  00003	83 ec 44	 sub	 esp, 68			; 00000044H
  00006	53		 push	 ebx
  00007	56		 push	 esi
  00008	57		 push	 edi
  00009	89 4d fc	 mov	 DWORD PTR _this$[ebp], ecx

; 129  :         : exception(_Message, 1)

  0000c	6a 01		 push	 1
  0000e	8b 45 08	 mov	 eax, DWORD PTR __Message$[ebp]
  00011	50		 push	 eax
  00012	8b 4d fc	 mov	 ecx, DWORD PTR _this$[ebp]
  00015	e8 00 00 00 00	 call	 ??0exception@std@@QAE@QBDH@Z ; std::exception::exception

; 130  :     {

  0001a	8b 45 fc	 mov	 eax, DWORD PTR _this$[ebp]
  0001d	c7 00 00 00 00
	00		 mov	 DWORD PTR [eax], OFFSET ??_7bad_alloc@std@@6B@

; 131  :     }

  00023	8b 45 fc	 mov	 eax, DWORD PTR _this$[ebp]
  00026	5f		 pop	 edi
  00027	5e		 pop	 esi
  00028	5b		 pop	 ebx
  00029	8b e5		 mov	 esp, ebp
  0002b	5d		 pop	 ebp
  0002c	c2 04 00	 ret	 4
??0bad_alloc@std@@AAE@QBD@Z ENDP			; std::bad_alloc::bad_alloc
_TEXT	ENDS
; Function compile flags: /Odtp /ZI
;	COMDAT ??_Gexception@std@@UAEPAXI@Z
_TEXT	SEGMENT
_this$ = -4						; size = 4
___flags$ = 8						; size = 4
??_Gexception@std@@UAEPAXI@Z PROC			; std::exception::`scalar deleting destructor', COMDAT
; _this$ = ecx
  00000	55		 push	 ebp
  00001	8b ec		 mov	 ebp, esp
  00003	83 ec 44	 sub	 esp, 68			; 00000044H
  00006	53		 push	 ebx
  00007	56		 push	 esi
  00008	57		 push	 edi
  00009	89 4d fc	 mov	 DWORD PTR _this$[ebp], ecx
  0000c	8b 4d fc	 mov	 ecx, DWORD PTR _this$[ebp]
  0000f	e8 00 00 00 00	 call	 ??1exception@std@@UAE@XZ ; std::exception::~exception
  00014	8b 45 08	 mov	 eax, DWORD PTR ___flags$[ebp]
  00017	83 e0 01	 and	 eax, 1
  0001a	74 0e		 je	 SHORT $LN2@scalar
  0001c	6a 0c		 push	 12			; 0000000cH
  0001e	8b 45 fc	 mov	 eax, DWORD PTR _this$[ebp]
  00021	50		 push	 eax
  00022	e8 00 00 00 00	 call	 ??3@YAXPAXI@Z		; operator delete
  00027	83 c4 08	 add	 esp, 8
$LN2@scalar:
  0002a	8b 45 fc	 mov	 eax, DWORD PTR _this$[ebp]
  0002d	5f		 pop	 edi
  0002e	5e		 pop	 esi
  0002f	5b		 pop	 ebx
  00030	8b e5		 mov	 esp, ebp
  00032	5d		 pop	 ebp
  00033	c2 04 00	 ret	 4
??_Gexception@std@@UAEPAXI@Z ENDP			; std::exception::`scalar deleting destructor'
_TEXT	ENDS
; Function compile flags: /Odtp /ZI
; File C:\Program Files (x86)\Microsoft Visual Studio\2019\Community\VC\Tools\MSVC\14.27.29110\include\vcruntime_exception.h
;	COMDAT ?what@exception@std@@UBEPBDXZ
_TEXT	SEGMENT
tv69 = -72						; size = 4
_this$ = -4						; size = 4
?what@exception@std@@UBEPBDXZ PROC			; std::exception::what, COMDAT
; _this$ = ecx

; 94   :     {

  00000	55		 push	 ebp
  00001	8b ec		 mov	 ebp, esp
  00003	83 ec 48	 sub	 esp, 72			; 00000048H
  00006	53		 push	 ebx
  00007	56		 push	 esi
  00008	57		 push	 edi
  00009	89 4d fc	 mov	 DWORD PTR _this$[ebp], ecx

; 95   :         return _Data._What ? _Data._What : "Unknown exception";

  0000c	8b 45 fc	 mov	 eax, DWORD PTR _this$[ebp]
  0000f	83 78 04 00	 cmp	 DWORD PTR [eax+4], 0
  00013	74 0b		 je	 SHORT $LN3@what
  00015	8b 4d fc	 mov	 ecx, DWORD PTR _this$[ebp]
  00018	8b 51 04	 mov	 edx, DWORD PTR [ecx+4]
  0001b	89 55 b8	 mov	 DWORD PTR tv69[ebp], edx
  0001e	eb 07		 jmp	 SHORT $LN4@what
$LN3@what:
  00020	c7 45 b8 00 00
	00 00		 mov	 DWORD PTR tv69[ebp], OFFSET ??_C@_0BC@EOODALEL@Unknown?5exception@
$LN4@what:
  00027	8b 45 b8	 mov	 eax, DWORD PTR tv69[ebp]

; 96   :     }

  0002a	5f		 pop	 edi
  0002b	5e		 pop	 esi
  0002c	5b		 pop	 ebx
  0002d	8b e5		 mov	 esp, ebp
  0002f	5d		 pop	 ebp
  00030	c3		 ret	 0
?what@exception@std@@UBEPBDXZ ENDP			; std::exception::what
_TEXT	ENDS
; Function compile flags: /Odtp /ZI
; File C:\Program Files (x86)\Microsoft Visual Studio\2019\Community\VC\Tools\MSVC\14.27.29110\include\vcruntime_exception.h
;	COMDAT ??1exception@std@@UAE@XZ
_TEXT	SEGMENT
_this$ = -4						; size = 4
??1exception@std@@UAE@XZ PROC				; std::exception::~exception, COMDAT
; _this$ = ecx

; 89   :     {

  00000	55		 push	 ebp
  00001	8b ec		 mov	 ebp, esp
  00003	83 ec 44	 sub	 esp, 68			; 00000044H
  00006	53		 push	 ebx
  00007	56		 push	 esi
  00008	57		 push	 edi
  00009	89 4d fc	 mov	 DWORD PTR _this$[ebp], ecx
  0000c	8b 45 fc	 mov	 eax, DWORD PTR _this$[ebp]
  0000f	c7 00 00 00 00
	00		 mov	 DWORD PTR [eax], OFFSET ??_7exception@std@@6B@

; 90   :         __std_exception_destroy(&_Data);

  00015	8b 45 fc	 mov	 eax, DWORD PTR _this$[ebp]
  00018	83 c0 04	 add	 eax, 4
  0001b	50		 push	 eax
  0001c	e8 00 00 00 00	 call	 ___std_exception_destroy
  00021	83 c4 04	 add	 esp, 4

; 91   :     }

  00024	5f		 pop	 edi
  00025	5e		 pop	 esi
  00026	5b		 pop	 ebx
  00027	8b e5		 mov	 esp, ebp
  00029	5d		 pop	 ebp
  0002a	c3		 ret	 0
??1exception@std@@UAE@XZ ENDP				; std::exception::~exception
_TEXT	ENDS
; Function compile flags: /Odtp /ZI
; File C:\Program Files (x86)\Microsoft Visual Studio\2019\Community\VC\Tools\MSVC\14.27.29110\include\vcruntime_exception.h
;	COMDAT ??0exception@std@@QAE@ABV01@@Z
_TEXT	SEGMENT
_this$ = -4						; size = 4
__Other$ = 8						; size = 4
??0exception@std@@QAE@ABV01@@Z PROC			; std::exception::exception, COMDAT
; _this$ = ecx

; 72   :     {

  00000	55		 push	 ebp
  00001	8b ec		 mov	 ebp, esp
  00003	83 ec 44	 sub	 esp, 68			; 00000044H
  00006	53		 push	 ebx
  00007	56		 push	 esi
  00008	57		 push	 edi
  00009	89 4d fc	 mov	 DWORD PTR _this$[ebp], ecx
  0000c	8b 45 fc	 mov	 eax, DWORD PTR _this$[ebp]
  0000f	c7 00 00 00 00
	00		 mov	 DWORD PTR [eax], OFFSET ??_7exception@std@@6B@

; 71   :         : _Data()

  00015	33 c0		 xor	 eax, eax
  00017	8b 4d fc	 mov	 ecx, DWORD PTR _this$[ebp]
  0001a	83 c1 04	 add	 ecx, 4
  0001d	89 01		 mov	 DWORD PTR [ecx], eax
  0001f	89 41 04	 mov	 DWORD PTR [ecx+4], eax

; 73   :         __std_exception_copy(&_Other._Data, &_Data);

  00022	8b 45 fc	 mov	 eax, DWORD PTR _this$[ebp]
  00025	83 c0 04	 add	 eax, 4
  00028	50		 push	 eax
  00029	8b 4d 08	 mov	 ecx, DWORD PTR __Other$[ebp]
  0002c	83 c1 04	 add	 ecx, 4
  0002f	51		 push	 ecx
  00030	e8 00 00 00 00	 call	 ___std_exception_copy
  00035	83 c4 08	 add	 esp, 8

; 74   :     }

  00038	8b 45 fc	 mov	 eax, DWORD PTR _this$[ebp]
  0003b	5f		 pop	 edi
  0003c	5e		 pop	 esi
  0003d	5b		 pop	 ebx
  0003e	8b e5		 mov	 esp, ebp
  00040	5d		 pop	 ebp
  00041	c2 04 00	 ret	 4
??0exception@std@@QAE@ABV01@@Z ENDP			; std::exception::exception
_TEXT	ENDS
; Function compile flags: /Odtp /ZI
; File C:\Program Files (x86)\Microsoft Visual Studio\2019\Community\VC\Tools\MSVC\14.27.29110\include\vcruntime_exception.h
;	COMDAT ??0exception@std@@QAE@QBDH@Z
_TEXT	SEGMENT
_this$ = -4						; size = 4
__Message$ = 8						; size = 4
___formal$ = 12						; size = 4
??0exception@std@@QAE@QBDH@Z PROC			; std::exception::exception, COMDAT
; _this$ = ecx

; 66   :     {

  00000	55		 push	 ebp
  00001	8b ec		 mov	 ebp, esp
  00003	83 ec 44	 sub	 esp, 68			; 00000044H
  00006	53		 push	 ebx
  00007	56		 push	 esi
  00008	57		 push	 edi
  00009	89 4d fc	 mov	 DWORD PTR _this$[ebp], ecx
  0000c	8b 45 fc	 mov	 eax, DWORD PTR _this$[ebp]
  0000f	c7 00 00 00 00
	00		 mov	 DWORD PTR [eax], OFFSET ??_7exception@std@@6B@

; 65   :         : _Data()

  00015	33 c0		 xor	 eax, eax
  00017	8b 4d fc	 mov	 ecx, DWORD PTR _this$[ebp]
  0001a	83 c1 04	 add	 ecx, 4
  0001d	89 01		 mov	 DWORD PTR [ecx], eax
  0001f	89 41 04	 mov	 DWORD PTR [ecx+4], eax

; 67   :         _Data._What = _Message;

  00022	8b 45 fc	 mov	 eax, DWORD PTR _this$[ebp]
  00025	8b 4d 08	 mov	 ecx, DWORD PTR __Message$[ebp]
  00028	89 48 04	 mov	 DWORD PTR [eax+4], ecx

; 68   :     }

  0002b	8b 45 fc	 mov	 eax, DWORD PTR _this$[ebp]
  0002e	5f		 pop	 edi
  0002f	5e		 pop	 esi
  00030	5b		 pop	 ebx
  00031	8b e5		 mov	 esp, ebp
  00033	5d		 pop	 ebp
  00034	c2 08 00	 ret	 8
??0exception@std@@QAE@QBDH@Z ENDP			; std::exception::exception
_TEXT	ENDS
; Function compile flags: /Odtp /ZI
; File C:\Program Files (x86)\Microsoft Visual Studio\2019\Community\VC\Tools\MSVC\14.27.29110\include\vcruntime_new.h
;	COMDAT ??2@YAPAXIPAX@Z
_TEXT	SEGMENT
__Size$ = 8						; size = 4
__Where$ = 12						; size = 4
??2@YAPAXIPAX@Z PROC					; operator new, COMDAT

; 167  :     {

  00000	55		 push	 ebp
  00001	8b ec		 mov	 ebp, esp
  00003	83 ec 40	 sub	 esp, 64			; 00000040H
  00006	53		 push	 ebx
  00007	56		 push	 esi
  00008	57		 push	 edi

; 168  :         (void)_Size;
; 169  :         return _Where;

  00009	8b 45 0c	 mov	 eax, DWORD PTR __Where$[ebp]

; 170  :     }

  0000c	5f		 pop	 edi
  0000d	5e		 pop	 esi
  0000e	5b		 pop	 ebx
  0000f	8b e5		 mov	 esp, ebp
  00011	5d		 pop	 ebp
  00012	c3		 ret	 0
??2@YAPAXIPAX@Z ENDP					; operator new
_TEXT	ENDS
; Function compile flags: /Odtp /ZI
; File C:\Mu Online\Mu-GS-Webzen-MC-10093\GameServer\MonsterHerd.cpp
;	COMDAT ?__empty_global_delete@@YAXPAXI@Z
_TEXT	SEGMENT
___formal$ = 8						; size = 4
___formal$ = 12						; size = 4
?__empty_global_delete@@YAXPAXI@Z PROC			; __empty_global_delete, COMDAT

  00000	55		 push	 ebp
  00001	8b ec		 mov	 ebp, esp
  00003	83 ec 40	 sub	 esp, 64			; 00000040H
  00006	53		 push	 ebx
  00007	56		 push	 esi
  00008	57		 push	 edi
  00009	5f		 pop	 edi
  0000a	5e		 pop	 esi
  0000b	5b		 pop	 ebx
  0000c	8b e5		 mov	 esp, ebp
  0000e	5d		 pop	 ebp
  0000f	c3		 ret	 0
?__empty_global_delete@@YAXPAXI@Z ENDP			; __empty_global_delete
_TEXT	ENDS
; Function compile flags: /Odtp /ZI
; File C:\Mu Online\Mu-GS-Webzen-MC-10093\GameServer\MonsterHerd.cpp
;	COMDAT ?__empty_global_delete@@YAXPAX@Z
_TEXT	SEGMENT
___formal$ = 8						; size = 4
?__empty_global_delete@@YAXPAX@Z PROC			; __empty_global_delete, COMDAT

  00000	55		 push	 ebp
  00001	8b ec		 mov	 ebp, esp
  00003	83 ec 40	 sub	 esp, 64			; 00000040H
  00006	53		 push	 ebx
  00007	56		 push	 esi
  00008	57		 push	 edi
  00009	5f		 pop	 edi
  0000a	5e		 pop	 esi
  0000b	5b		 pop	 ebx
  0000c	8b e5		 mov	 esp, ebp
  0000e	5d		 pop	 ebp
  0000f	c3		 ret	 0
?__empty_global_delete@@YAXPAX@Z ENDP			; __empty_global_delete
_TEXT	ENDS
END
