; Listing generated by Microsoft (R) Optimizing Compiler Version 19.27.29111.0 

	TITLE	C:\Mu Online\Mu-GS-Webzen-MC-10093\common\MyWinsockBase.cpp
	.686P
	.XMM
	include listing.inc
	.model	flat

INCLUDELIB LIBCMT
INCLUDELIB OLDNAMES

PUBLIC	?__empty_global_delete@@YAXPAX@Z		; __empty_global_delete
PUBLIC	?__empty_global_delete@@YAXPAXI@Z		; __empty_global_delete
PUBLIC	?Startup@MyWinsockBase@@AAEHXZ			; MyWinsockBase::Startup
PUBLIC	?CreateSocket@MyWinsockBase@@QAEHPAUHWND__@@@Z	; MyWinsockBase::CreateSocket
PUBLIC	?Close@MyWinsockBase@@QAEHXZ			; MyWinsockBase::Close
PUBLIC	?Close@MyWinsockBase@@QAEHI@Z			; MyWinsockBase::Close
PUBLIC	?Close2@MyWinsockBase@@QAEHI@Z			; MyWinsockBase::Close2
PUBLIC	?GetSocket@MyWinsockBase@@QAEIXZ		; MyWinsockBase::GetSocket
PUBLIC	?GetSendBuffSize@MyWinsockBase@@QAEHXZ		; MyWinsockBase::GetSendBuffSize
PUBLIC	?GetRecvBuffSize@MyWinsockBase@@QAEHXZ		; MyWinsockBase::GetRecvBuffSize
PUBLIC	?GetConnect@MyWinsockBase@@QAEHXZ		; MyWinsockBase::GetConnect
PUBLIC	?SetConnect@MyWinsockBase@@QAEXH@Z		; MyWinsockBase::SetConnect
PUBLIC	??0MyWinsockBase@@QAE@XZ			; MyWinsockBase::MyWinsockBase
PUBLIC	??1MyWinsockBase@@QAE@XZ			; MyWinsockBase::~MyWinsockBase
PUBLIC	??_C@_05NAOIJFC@Error@				; `string'
PUBLIC	??_C@_0BE@DMEOAPJM@WINSOCK?5?C?J?$LB?b?H?$KN?5?$LP?$KB?$LH?$KP@ ; `string'
PUBLIC	??_C@_0BJ@GGDDBEFH@WINSOCK?5?$LJ?v?$MA?$PM?$MA?L?5?$LD?$LH?$LN?$MA?$LE?O?$LE?Y?4@ ; `string'
EXTRN	__imp__MessageBoxA@16:PROC
EXTRN	__imp__closesocket@4:PROC
EXTRN	__imp__shutdown@8:PROC
EXTRN	__imp__socket@12:PROC
EXTRN	__imp__WSAStartup@8:PROC
EXTRN	__imp__WSACleanup@0:PROC
EXTRN	@__security_check_cookie@4:PROC
EXTRN	___security_cookie:DWORD
;	COMDAT ??_C@_0BJ@GGDDBEFH@WINSOCK?5?$LJ?v?$MA?$PM?$MA?L?5?$LD?$LH?$LN?$MA?$LE?O?$LE?Y?4@
CONST	SEGMENT
??_C@_0BJ@GGDDBEFH@WINSOCK?5?$LJ?v?$MA?$PM?$MA?L?5?$LD?$LH?$LN?$MA?$LE?O?$LE?Y?4@ DB 'W'
	DB	'INSOCK ', 0b9H, 0f6H, 0c0H, 0fcH, 0c0H, 0ccH, ' ', 0b3H, 0b7H
	DB	0bdH, 0c0H, 0b4H, 0cfH, 0b4H, 0d9H, '.', 00H	; `string'
CONST	ENDS
;	COMDAT ??_C@_0BE@DMEOAPJM@WINSOCK?5?C?J?$LB?b?H?$KN?5?$LP?$KB?$LH?$KP@
CONST	SEGMENT
??_C@_0BE@DMEOAPJM@WINSOCK?5?C?J?$LB?b?H?$KN?5?$LP?$KB?$LH?$KP@ DB 'WINSO'
	DB	'CK ', 0c3H, 0caH, 0b1H, 0e2H, 0c8H, 0adH, ' ', 0bfH, 0a1H, 0b7H
	DB	0afH, 00H					; `string'
CONST	ENDS
;	COMDAT ??_C@_05NAOIJFC@Error@
CONST	SEGMENT
??_C@_05NAOIJFC@Error@ DB 'Error', 00H			; `string'
CONST	ENDS
; Function compile flags: /Odtp /ZI
; File C:\Mu Online\Mu-GS-Webzen-MC-10093\common\MyWinsockBase.cpp
;	COMDAT ??1MyWinsockBase@@QAE@XZ
_TEXT	SEGMENT
_this$ = -4						; size = 4
??1MyWinsockBase@@QAE@XZ PROC				; MyWinsockBase::~MyWinsockBase, COMDAT
; _this$ = ecx

; 13   : {

  00000	55		 push	 ebp
  00001	8b ec		 mov	 ebp, esp
  00003	83 ec 44	 sub	 esp, 68			; 00000044H
  00006	53		 push	 ebx
  00007	56		 push	 esi
  00008	57		 push	 edi
  00009	89 4d fc	 mov	 DWORD PTR _this$[ebp], ecx

; 14   : 	WSACleanup();

  0000c	ff 15 00 00 00
	00		 call	 DWORD PTR __imp__WSACleanup@0

; 15   : }

  00012	5f		 pop	 edi
  00013	5e		 pop	 esi
  00014	5b		 pop	 ebx
  00015	8b e5		 mov	 esp, ebp
  00017	5d		 pop	 ebp
  00018	c3		 ret	 0
??1MyWinsockBase@@QAE@XZ ENDP				; MyWinsockBase::~MyWinsockBase
_TEXT	ENDS
; Function compile flags: /Odtp /ZI
; File C:\Mu Online\Mu-GS-Webzen-MC-10093\common\MyWinsockBase.cpp
;	COMDAT ??0MyWinsockBase@@QAE@XZ
_TEXT	SEGMENT
_this$ = -4						; size = 4
??0MyWinsockBase@@QAE@XZ PROC				; MyWinsockBase::MyWinsockBase, COMDAT
; _this$ = ecx

; 7    : {

  00000	55		 push	 ebp
  00001	8b ec		 mov	 ebp, esp
  00003	83 ec 44	 sub	 esp, 68			; 00000044H
  00006	53		 push	 ebx
  00007	56		 push	 esi
  00008	57		 push	 edi
  00009	89 4d fc	 mov	 DWORD PTR _this$[ebp], ecx

; 8    : 	m_socket = INVALID_SOCKET;

  0000c	8b 45 fc	 mov	 eax, DWORD PTR _this$[ebp]
  0000f	c7 40 08 ff ff
	ff ff		 mov	 DWORD PTR [eax+8], -1

; 9    : 	Startup();

  00016	8b 4d fc	 mov	 ecx, DWORD PTR _this$[ebp]
  00019	e8 00 00 00 00	 call	 ?Startup@MyWinsockBase@@AAEHXZ ; MyWinsockBase::Startup

; 10   : }

  0001e	8b 45 fc	 mov	 eax, DWORD PTR _this$[ebp]
  00021	5f		 pop	 edi
  00022	5e		 pop	 esi
  00023	5b		 pop	 ebx
  00024	8b e5		 mov	 esp, ebp
  00026	5d		 pop	 ebp
  00027	c3		 ret	 0
??0MyWinsockBase@@QAE@XZ ENDP				; MyWinsockBase::MyWinsockBase
_TEXT	ENDS
; Function compile flags: /Odtp /ZI
; File C:\Mu Online\Mu-GS-Webzen-MC-10093\common\MyWinsockBase.cpp
;	COMDAT ?SetConnect@MyWinsockBase@@QAEXH@Z
_TEXT	SEGMENT
_this$ = -4						; size = 4
_connected$ = 8						; size = 4
?SetConnect@MyWinsockBase@@QAEXH@Z PROC			; MyWinsockBase::SetConnect, COMDAT
; _this$ = ecx

; 106  : {

  00000	55		 push	 ebp
  00001	8b ec		 mov	 ebp, esp
  00003	83 ec 44	 sub	 esp, 68			; 00000044H
  00006	53		 push	 ebx
  00007	56		 push	 esi
  00008	57		 push	 edi
  00009	89 4d fc	 mov	 DWORD PTR _this$[ebp], ecx

; 107  : 	m_Connect = connected;

  0000c	8b 45 fc	 mov	 eax, DWORD PTR _this$[ebp]
  0000f	8b 4d 08	 mov	 ecx, DWORD PTR _connected$[ebp]
  00012	89 48 14	 mov	 DWORD PTR [eax+20], ecx

; 108  : }

  00015	5f		 pop	 edi
  00016	5e		 pop	 esi
  00017	5b		 pop	 ebx
  00018	8b e5		 mov	 esp, ebp
  0001a	5d		 pop	 ebp
  0001b	c2 04 00	 ret	 4
?SetConnect@MyWinsockBase@@QAEXH@Z ENDP			; MyWinsockBase::SetConnect
_TEXT	ENDS
; Function compile flags: /Odtp /ZI
; File C:\Mu Online\Mu-GS-Webzen-MC-10093\common\MyWinsockBase.cpp
;	COMDAT ?GetConnect@MyWinsockBase@@QAEHXZ
_TEXT	SEGMENT
_this$ = -4						; size = 4
?GetConnect@MyWinsockBase@@QAEHXZ PROC			; MyWinsockBase::GetConnect, COMDAT
; _this$ = ecx

; 101  : {

  00000	55		 push	 ebp
  00001	8b ec		 mov	 ebp, esp
  00003	83 ec 44	 sub	 esp, 68			; 00000044H
  00006	53		 push	 ebx
  00007	56		 push	 esi
  00008	57		 push	 edi
  00009	89 4d fc	 mov	 DWORD PTR _this$[ebp], ecx

; 102  : 	return m_Connect;

  0000c	8b 45 fc	 mov	 eax, DWORD PTR _this$[ebp]
  0000f	8b 40 14	 mov	 eax, DWORD PTR [eax+20]

; 103  : }

  00012	5f		 pop	 edi
  00013	5e		 pop	 esi
  00014	5b		 pop	 ebx
  00015	8b e5		 mov	 esp, ebp
  00017	5d		 pop	 ebp
  00018	c3		 ret	 0
?GetConnect@MyWinsockBase@@QAEHXZ ENDP			; MyWinsockBase::GetConnect
_TEXT	ENDS
; Function compile flags: /Odtp /ZI
; File C:\Mu Online\Mu-GS-Webzen-MC-10093\common\MyWinsockBase.cpp
;	COMDAT ?GetRecvBuffSize@MyWinsockBase@@QAEHXZ
_TEXT	SEGMENT
_this$ = -4						; size = 4
?GetRecvBuffSize@MyWinsockBase@@QAEHXZ PROC		; MyWinsockBase::GetRecvBuffSize, COMDAT
; _this$ = ecx

; 91   : {

  00000	55		 push	 ebp
  00001	8b ec		 mov	 ebp, esp
  00003	83 ec 44	 sub	 esp, 68			; 00000044H
  00006	53		 push	 ebx
  00007	56		 push	 esi
  00008	57		 push	 edi
  00009	89 4d fc	 mov	 DWORD PTR _this$[ebp], ecx

; 92   : 	return m_recvbufsize;

  0000c	8b 45 fc	 mov	 eax, DWORD PTR _this$[ebp]
  0000f	8b 40 10	 mov	 eax, DWORD PTR [eax+16]

; 93   : }

  00012	5f		 pop	 edi
  00013	5e		 pop	 esi
  00014	5b		 pop	 ebx
  00015	8b e5		 mov	 esp, ebp
  00017	5d		 pop	 ebp
  00018	c3		 ret	 0
?GetRecvBuffSize@MyWinsockBase@@QAEHXZ ENDP		; MyWinsockBase::GetRecvBuffSize
_TEXT	ENDS
; Function compile flags: /Odtp /ZI
; File C:\Mu Online\Mu-GS-Webzen-MC-10093\common\MyWinsockBase.cpp
;	COMDAT ?GetSendBuffSize@MyWinsockBase@@QAEHXZ
_TEXT	SEGMENT
_this$ = -4						; size = 4
?GetSendBuffSize@MyWinsockBase@@QAEHXZ PROC		; MyWinsockBase::GetSendBuffSize, COMDAT
; _this$ = ecx

; 96   : {

  00000	55		 push	 ebp
  00001	8b ec		 mov	 ebp, esp
  00003	83 ec 44	 sub	 esp, 68			; 00000044H
  00006	53		 push	 ebx
  00007	56		 push	 esi
  00008	57		 push	 edi
  00009	89 4d fc	 mov	 DWORD PTR _this$[ebp], ecx

; 97   : 	return m_sendbufsize;

  0000c	8b 45 fc	 mov	 eax, DWORD PTR _this$[ebp]
  0000f	8b 40 0c	 mov	 eax, DWORD PTR [eax+12]

; 98   : }

  00012	5f		 pop	 edi
  00013	5e		 pop	 esi
  00014	5b		 pop	 ebx
  00015	8b e5		 mov	 esp, ebp
  00017	5d		 pop	 ebp
  00018	c3		 ret	 0
?GetSendBuffSize@MyWinsockBase@@QAEHXZ ENDP		; MyWinsockBase::GetSendBuffSize
_TEXT	ENDS
; Function compile flags: /Odtp /ZI
; File C:\Mu Online\Mu-GS-Webzen-MC-10093\common\MyWinsockBase.cpp
;	COMDAT ?GetSocket@MyWinsockBase@@QAEIXZ
_TEXT	SEGMENT
_this$ = -4						; size = 4
?GetSocket@MyWinsockBase@@QAEIXZ PROC			; MyWinsockBase::GetSocket, COMDAT
; _this$ = ecx

; 86   : {

  00000	55		 push	 ebp
  00001	8b ec		 mov	 ebp, esp
  00003	83 ec 44	 sub	 esp, 68			; 00000044H
  00006	53		 push	 ebx
  00007	56		 push	 esi
  00008	57		 push	 edi
  00009	89 4d fc	 mov	 DWORD PTR _this$[ebp], ecx

; 87   : 	return m_socket;

  0000c	8b 45 fc	 mov	 eax, DWORD PTR _this$[ebp]
  0000f	8b 40 08	 mov	 eax, DWORD PTR [eax+8]

; 88   : }

  00012	5f		 pop	 edi
  00013	5e		 pop	 esi
  00014	5b		 pop	 ebx
  00015	8b e5		 mov	 esp, ebp
  00017	5d		 pop	 ebp
  00018	c3		 ret	 0
?GetSocket@MyWinsockBase@@QAEIXZ ENDP			; MyWinsockBase::GetSocket
_TEXT	ENDS
; Function compile flags: /Odtp /ZI
; File C:\Mu Online\Mu-GS-Webzen-MC-10093\common\MyWinsockBase.cpp
;	COMDAT ?Close2@MyWinsockBase@@QAEHI@Z
_TEXT	SEGMENT
_this$ = -4						; size = 4
_socket$ = 8						; size = 4
?Close2@MyWinsockBase@@QAEHI@Z PROC			; MyWinsockBase::Close2, COMDAT
; _this$ = ecx

; 76   : {

  00000	55		 push	 ebp
  00001	8b ec		 mov	 ebp, esp
  00003	83 ec 44	 sub	 esp, 68			; 00000044H
  00006	53		 push	 ebx
  00007	56		 push	 esi
  00008	57		 push	 edi
  00009	89 4d fc	 mov	 DWORD PTR _this$[ebp], ecx

; 77   : 	shutdown(m_socket,SD_SEND);

  0000c	6a 01		 push	 1
  0000e	8b 45 fc	 mov	 eax, DWORD PTR _this$[ebp]
  00011	8b 48 08	 mov	 ecx, DWORD PTR [eax+8]
  00014	51		 push	 ecx
  00015	ff 15 00 00 00
	00		 call	 DWORD PTR __imp__shutdown@8

; 78   : 	closesocket(socket);

  0001b	8b 45 08	 mov	 eax, DWORD PTR _socket$[ebp]
  0001e	50		 push	 eax
  0001f	ff 15 00 00 00
	00		 call	 DWORD PTR __imp__closesocket@4

; 79   : 	m_socket = INVALID_SOCKET;

  00025	8b 45 fc	 mov	 eax, DWORD PTR _this$[ebp]
  00028	c7 40 08 ff ff
	ff ff		 mov	 DWORD PTR [eax+8], -1

; 80   : 	m_Connect = FALSE;

  0002f	8b 45 fc	 mov	 eax, DWORD PTR _this$[ebp]
  00032	c7 40 14 00 00
	00 00		 mov	 DWORD PTR [eax+20], 0

; 81   : 	return TRUE;

  00039	b8 01 00 00 00	 mov	 eax, 1

; 82   : }

  0003e	5f		 pop	 edi
  0003f	5e		 pop	 esi
  00040	5b		 pop	 ebx
  00041	8b e5		 mov	 esp, ebp
  00043	5d		 pop	 ebp
  00044	c2 04 00	 ret	 4
?Close2@MyWinsockBase@@QAEHI@Z ENDP			; MyWinsockBase::Close2
_TEXT	ENDS
; Function compile flags: /Odtp /ZI
; File C:\Mu Online\Mu-GS-Webzen-MC-10093\common\MyWinsockBase.cpp
;	COMDAT ?Close@MyWinsockBase@@QAEHI@Z
_TEXT	SEGMENT
_this$ = -4						; size = 4
_socket$ = 8						; size = 4
?Close@MyWinsockBase@@QAEHI@Z PROC			; MyWinsockBase::Close, COMDAT
; _this$ = ecx

; 67   : {

  00000	55		 push	 ebp
  00001	8b ec		 mov	 ebp, esp
  00003	83 ec 44	 sub	 esp, 68			; 00000044H
  00006	53		 push	 ebx
  00007	56		 push	 esi
  00008	57		 push	 edi
  00009	89 4d fc	 mov	 DWORD PTR _this$[ebp], ecx

; 68   : 	shutdown(socket,0);

  0000c	6a 00		 push	 0
  0000e	8b 45 08	 mov	 eax, DWORD PTR _socket$[ebp]
  00011	50		 push	 eax
  00012	ff 15 00 00 00
	00		 call	 DWORD PTR __imp__shutdown@8

; 69   : 	closesocket(socket);

  00018	8b 45 08	 mov	 eax, DWORD PTR _socket$[ebp]
  0001b	50		 push	 eax
  0001c	ff 15 00 00 00
	00		 call	 DWORD PTR __imp__closesocket@4

; 70   : 	m_socket = INVALID_SOCKET;

  00022	8b 45 fc	 mov	 eax, DWORD PTR _this$[ebp]
  00025	c7 40 08 ff ff
	ff ff		 mov	 DWORD PTR [eax+8], -1

; 71   : 	m_Connect = FALSE;

  0002c	8b 45 fc	 mov	 eax, DWORD PTR _this$[ebp]
  0002f	c7 40 14 00 00
	00 00		 mov	 DWORD PTR [eax+20], 0

; 72   : 	return TRUE;

  00036	b8 01 00 00 00	 mov	 eax, 1

; 73   : }

  0003b	5f		 pop	 edi
  0003c	5e		 pop	 esi
  0003d	5b		 pop	 ebx
  0003e	8b e5		 mov	 esp, ebp
  00040	5d		 pop	 ebp
  00041	c2 04 00	 ret	 4
?Close@MyWinsockBase@@QAEHI@Z ENDP			; MyWinsockBase::Close
_TEXT	ENDS
; Function compile flags: /Odtp /ZI
; File C:\Mu Online\Mu-GS-Webzen-MC-10093\common\MyWinsockBase.cpp
;	COMDAT ?Close@MyWinsockBase@@QAEHXZ
_TEXT	SEGMENT
_this$ = -4						; size = 4
?Close@MyWinsockBase@@QAEHXZ PROC			; MyWinsockBase::Close, COMDAT
; _this$ = ecx

; 58   : {	

  00000	55		 push	 ebp
  00001	8b ec		 mov	 ebp, esp
  00003	83 ec 44	 sub	 esp, 68			; 00000044H
  00006	53		 push	 ebx
  00007	56		 push	 esi
  00008	57		 push	 edi
  00009	89 4d fc	 mov	 DWORD PTR _this$[ebp], ecx

; 59   : 	closesocket(m_socket);

  0000c	8b 45 fc	 mov	 eax, DWORD PTR _this$[ebp]
  0000f	8b 48 08	 mov	 ecx, DWORD PTR [eax+8]
  00012	51		 push	 ecx
  00013	ff 15 00 00 00
	00		 call	 DWORD PTR __imp__closesocket@4

; 60   : 	m_socket = INVALID_SOCKET;

  00019	8b 45 fc	 mov	 eax, DWORD PTR _this$[ebp]
  0001c	c7 40 08 ff ff
	ff ff		 mov	 DWORD PTR [eax+8], -1

; 61   : 	m_Connect = FALSE;

  00023	8b 45 fc	 mov	 eax, DWORD PTR _this$[ebp]
  00026	c7 40 14 00 00
	00 00		 mov	 DWORD PTR [eax+20], 0

; 62   : 	return TRUE;

  0002d	b8 01 00 00 00	 mov	 eax, 1

; 63   : }

  00032	5f		 pop	 edi
  00033	5e		 pop	 esi
  00034	5b		 pop	 ebx
  00035	8b e5		 mov	 esp, ebp
  00037	5d		 pop	 ebp
  00038	c3		 ret	 0
?Close@MyWinsockBase@@QAEHXZ ENDP			; MyWinsockBase::Close
_TEXT	ENDS
; Function compile flags: /Odtp /ZI
; File C:\Mu Online\Mu-GS-Webzen-MC-10093\common\MyWinsockBase.cpp
;	COMDAT ?CreateSocket@MyWinsockBase@@QAEHPAUHWND__@@@Z
_TEXT	SEGMENT
_size$ = -8						; size = 4
_this$ = -4						; size = 4
_hWnd$ = 8						; size = 4
?CreateSocket@MyWinsockBase@@QAEHPAUHWND__@@@Z PROC	; MyWinsockBase::CreateSocket, COMDAT
; _this$ = ecx

; 44   : {	

  00000	55		 push	 ebp
  00001	8b ec		 mov	 ebp, esp
  00003	83 ec 48	 sub	 esp, 72			; 00000048H
  00006	53		 push	 ebx
  00007	56		 push	 esi
  00008	57		 push	 edi
  00009	89 4d fc	 mov	 DWORD PTR _this$[ebp], ecx

; 45   : 	int size = sizeof(int);

  0000c	c7 45 f8 04 00
	00 00		 mov	 DWORD PTR _size$[ebp], 4

; 46   : 
; 47   : 	m_socket = socket( PF_INET, SOCK_STREAM, 0);

  00013	6a 00		 push	 0
  00015	6a 01		 push	 1
  00017	6a 02		 push	 2
  00019	ff 15 00 00 00
	00		 call	 DWORD PTR __imp__socket@12
  0001f	8b 4d fc	 mov	 ecx, DWORD PTR _this$[ebp]
  00022	89 41 08	 mov	 DWORD PTR [ecx+8], eax

; 48   : 	if( m_socket == INVALID_SOCKET ) 

  00025	8b 45 fc	 mov	 eax, DWORD PTR _this$[ebp]
  00028	83 78 08 ff	 cmp	 DWORD PTR [eax+8], -1
  0002c	75 04		 jne	 SHORT $LN2@CreateSock

; 49   : 	{
; 50   : 		return FALSE;

  0002e	33 c0		 xor	 eax, eax
  00030	eb 0e		 jmp	 SHORT $LN1@CreateSock
$LN2@CreateSock:

; 51   : 	}
; 52   : 
; 53   : 	m_hWnd = hWnd;

  00032	8b 45 fc	 mov	 eax, DWORD PTR _this$[ebp]
  00035	8b 4d 08	 mov	 ecx, DWORD PTR _hWnd$[ebp]
  00038	89 48 04	 mov	 DWORD PTR [eax+4], ecx

; 54   : 	return TRUE;

  0003b	b8 01 00 00 00	 mov	 eax, 1
$LN1@CreateSock:

; 55   : }

  00040	5f		 pop	 edi
  00041	5e		 pop	 esi
  00042	5b		 pop	 ebx
  00043	8b e5		 mov	 esp, ebp
  00045	5d		 pop	 ebp
  00046	c2 04 00	 ret	 4
?CreateSocket@MyWinsockBase@@QAEHPAUHWND__@@@Z ENDP	; MyWinsockBase::CreateSocket
_TEXT	ENDS
; Function compile flags: /Odtp /ZI
; File C:\Mu Online\Mu-GS-Webzen-MC-10093\common\MyWinsockBase.cpp
;	COMDAT ?Startup@MyWinsockBase@@AAEHXZ
_TEXT	SEGMENT
_err$ = -416						; size = 4
_wsaData$ = -412					; size = 400
_wVersionRequested$ = -12				; size = 2
_this$ = -8						; size = 4
__$ArrayPad$ = -4					; size = 4
?Startup@MyWinsockBase@@AAEHXZ PROC			; MyWinsockBase::Startup, COMDAT
; _this$ = ecx

; 18   : {

  00000	55		 push	 ebp
  00001	8b ec		 mov	 ebp, esp
  00003	81 ec e0 01 00
	00		 sub	 esp, 480		; 000001e0H
  00009	a1 00 00 00 00	 mov	 eax, DWORD PTR ___security_cookie
  0000e	33 c5		 xor	 eax, ebp
  00010	89 45 fc	 mov	 DWORD PTR __$ArrayPad$[ebp], eax
  00013	53		 push	 ebx
  00014	56		 push	 esi
  00015	57		 push	 edi
  00016	89 4d f8	 mov	 DWORD PTR _this$[ebp], ecx

; 19   : 	WORD wVersionRequested;
; 20   : 	WSADATA wsaData;
; 21   : 	int err;
; 22   : 
; 23   : 	wVersionRequested = MAKEWORD(2,2);

  00019	b8 02 02 00 00	 mov	 eax, 514		; 00000202H
  0001e	66 89 45 f4	 mov	 WORD PTR _wVersionRequested$[ebp], ax

; 24   : 
; 25   : 	err = WSAStartup( wVersionRequested, &wsaData);

  00022	8d 85 64 fe ff
	ff		 lea	 eax, DWORD PTR _wsaData$[ebp]
  00028	50		 push	 eax
  00029	0f b7 4d f4	 movzx	 ecx, WORD PTR _wVersionRequested$[ebp]
  0002d	51		 push	 ecx
  0002e	ff 15 00 00 00
	00		 call	 DWORD PTR __imp__WSAStartup@8
  00034	89 85 60 fe ff
	ff		 mov	 DWORD PTR _err$[ebp], eax

; 26   : 	if( err != 0)

  0003a	83 bd 60 fe ff
	ff 00		 cmp	 DWORD PTR _err$[ebp], 0
  00041	74 18		 je	 SHORT $LN2@Startup

; 27   : 	{
; 28   : 		MessageBox(NULL,"WINSOCK 초기화 에러","Error",MB_OK);

  00043	6a 00		 push	 0
  00045	68 00 00 00 00	 push	 OFFSET ??_C@_05NAOIJFC@Error@
  0004a	68 00 00 00 00	 push	 OFFSET ??_C@_0BE@DMEOAPJM@WINSOCK?5?C?J?$LB?b?H?$KN?5?$LP?$KB?$LH?$KP@
  0004f	6a 00		 push	 0
  00051	ff 15 00 00 00
	00		 call	 DWORD PTR __imp__MessageBoxA@16

; 29   : 		return FALSE;

  00057	33 c0		 xor	 eax, eax
  00059	eb 6b		 jmp	 SHORT $LN1@Startup
$LN2@Startup:

; 30   : 	}
; 31   : 	if ( LOBYTE( wsaData.wVersion ) != 2 ||

  0005b	0f b7 85 64 fe
	ff ff		 movzx	 eax, WORD PTR _wsaData$[ebp]
  00062	25 ff 00 00 00	 and	 eax, 255		; 000000ffH
  00067	0f b6 c8	 movzx	 ecx, al
  0006a	83 f9 02	 cmp	 ecx, 2
  0006d	75 17		 jne	 SHORT $LN4@Startup
  0006f	0f b7 85 64 fe
	ff ff		 movzx	 eax, WORD PTR _wsaData$[ebp]
  00076	c1 e8 08	 shr	 eax, 8
  00079	25 ff 00 00 00	 and	 eax, 255		; 000000ffH
  0007e	0f b6 c8	 movzx	 ecx, al
  00081	83 f9 02	 cmp	 ecx, 2
  00084	74 1e		 je	 SHORT $LN3@Startup
$LN4@Startup:

; 32   :         HIBYTE( wsaData.wVersion ) != 2 ) {
; 33   : 		WSACleanup( );

  00086	ff 15 00 00 00
	00		 call	 DWORD PTR __imp__WSACleanup@0

; 34   : 		MessageBox(NULL,"WINSOCK 버전이 낮습니다.","Error",MB_OK);

  0008c	6a 00		 push	 0
  0008e	68 00 00 00 00	 push	 OFFSET ??_C@_05NAOIJFC@Error@
  00093	68 00 00 00 00	 push	 OFFSET ??_C@_0BJ@GGDDBEFH@WINSOCK?5?$LJ?v?$MA?$PM?$MA?L?5?$LD?$LH?$LN?$MA?$LE?O?$LE?Y?4@
  00098	6a 00		 push	 0
  0009a	ff 15 00 00 00
	00		 call	 DWORD PTR __imp__MessageBoxA@16

; 35   : 		return FALSE;

  000a0	33 c0		 xor	 eax, eax
  000a2	eb 22		 jmp	 SHORT $LN1@Startup
$LN3@Startup:

; 36   : 	}
; 37   : 	m_socket = INVALID_SOCKET;

  000a4	8b 45 f8	 mov	 eax, DWORD PTR _this$[ebp]
  000a7	c7 40 08 ff ff
	ff ff		 mov	 DWORD PTR [eax+8], -1

; 38   : 	m_iMaxSockets = wsaData.iMaxSockets;	

  000ae	0f b7 45 ea	 movzx	 eax, WORD PTR _wsaData$[ebp+390]
  000b2	8b 4d f8	 mov	 ecx, DWORD PTR _this$[ebp]
  000b5	89 01		 mov	 DWORD PTR [ecx], eax

; 39   : 	m_Connect = FALSE;

  000b7	8b 45 f8	 mov	 eax, DWORD PTR _this$[ebp]
  000ba	c7 40 14 00 00
	00 00		 mov	 DWORD PTR [eax+20], 0

; 40   : 	return TRUE;

  000c1	b8 01 00 00 00	 mov	 eax, 1
$LN1@Startup:

; 41   : }

  000c6	5f		 pop	 edi
  000c7	5e		 pop	 esi
  000c8	5b		 pop	 ebx
  000c9	8b 4d fc	 mov	 ecx, DWORD PTR __$ArrayPad$[ebp]
  000cc	33 cd		 xor	 ecx, ebp
  000ce	e8 00 00 00 00	 call	 @__security_check_cookie@4
  000d3	8b e5		 mov	 esp, ebp
  000d5	5d		 pop	 ebp
  000d6	c3		 ret	 0
?Startup@MyWinsockBase@@AAEHXZ ENDP			; MyWinsockBase::Startup
_TEXT	ENDS
; Function compile flags: /Odtp /ZI
; File C:\Mu Online\Mu-GS-Webzen-MC-10093\common\MyWinsockBase.cpp
;	COMDAT ?__empty_global_delete@@YAXPAXI@Z
_TEXT	SEGMENT
___formal$ = 8						; size = 4
___formal$ = 12						; size = 4
?__empty_global_delete@@YAXPAXI@Z PROC			; __empty_global_delete, COMDAT

  00000	55		 push	 ebp
  00001	8b ec		 mov	 ebp, esp
  00003	83 ec 40	 sub	 esp, 64			; 00000040H
  00006	53		 push	 ebx
  00007	56		 push	 esi
  00008	57		 push	 edi
  00009	5f		 pop	 edi
  0000a	5e		 pop	 esi
  0000b	5b		 pop	 ebx
  0000c	8b e5		 mov	 esp, ebp
  0000e	5d		 pop	 ebp
  0000f	c3		 ret	 0
?__empty_global_delete@@YAXPAXI@Z ENDP			; __empty_global_delete
_TEXT	ENDS
; Function compile flags: /Odtp /ZI
; File C:\Mu Online\Mu-GS-Webzen-MC-10093\common\MyWinsockBase.cpp
;	COMDAT ?__empty_global_delete@@YAXPAX@Z
_TEXT	SEGMENT
___formal$ = 8						; size = 4
?__empty_global_delete@@YAXPAX@Z PROC			; __empty_global_delete, COMDAT

  00000	55		 push	 ebp
  00001	8b ec		 mov	 ebp, esp
  00003	83 ec 40	 sub	 esp, 64			; 00000040H
  00006	53		 push	 ebx
  00007	56		 push	 esi
  00008	57		 push	 edi
  00009	5f		 pop	 edi
  0000a	5e		 pop	 esi
  0000b	5b		 pop	 ebx
  0000c	8b e5		 mov	 esp, ebp
  0000e	5d		 pop	 ebp
  0000f	c3		 ret	 0
?__empty_global_delete@@YAXPAX@Z ENDP			; __empty_global_delete
_TEXT	ENDS
END
