; Listing generated by Microsoft (R) Optimizing Compiler Version 19.27.29111.0 

	TITLE	C:\Mu Online\Mu-GS-Webzen-MC-10093\GameServer\News.cpp
	.686P
	.XMM
	include listing.inc
	.model	flat

INCLUDELIB LIBCMT
INCLUDELIB OLDNAMES

PUBLIC	?__empty_global_delete@@YAXPAX@Z		; __empty_global_delete
PUBLIC	?__empty_global_delete@@YAXPAXI@Z		; __empty_global_delete
PUBLIC	??0CNewsSystem@@QAE@XZ				; CNewsSystem::CNewsSystem
PUBLIC	??1CNewsSystem@@UAE@XZ				; CNewsSystem::~CNewsSystem
PUBLIC	?Process@CNewsSystem@@SGKPAX@Z			; CNewsSystem::Process
PUBLIC	??_GCNewsSystem@@UAEPAXI@Z			; CNewsSystem::`scalar deleting destructor'
PUBLIC	??_7CNewsSystem@@6B@				; CNewsSystem::`vftable'
PUBLIC	?g_NewsSystem@@3VCNewsSystem@@A			; g_NewsSystem
PUBLIC	??_C@_0BH@NKJIONEN@?4?4?2Data?2NewsSystem?4cfg@	; `string'
PUBLIC	??_C@_0N@IFHDLCCA@NewsSections@			; `string'
PUBLIC	??_C@_04IHEKLNBL@News@				; `string'
PUBLIC	??_C@_09MOJGCJNP@Section?$CFd@			; `string'
PUBLIC	??_C@_08OJMGDKIK@ShowTime@			; `string'
PUBLIC	??_C@_08KNCBFNDG@ShowType@			; `string'
PUBLIC	??_C@_04HIBGFPH@NULL@				; `string'
PUBLIC	??_C@_05EMLPIEOD@News1@				; `string'
PUBLIC	??_C@_05GHJCNHCA@News2@				; `string'
PUBLIC	??_C@_05HOIJOGGB@News3@				; `string'
PUBLIC	??_R4CNewsSystem@@6B@				; CNewsSystem::`RTTI Complete Object Locator'
PUBLIC	??_R0?AVCNewsSystem@@@8				; CNewsSystem `RTTI Type Descriptor'
PUBLIC	??_R3CNewsSystem@@8				; CNewsSystem::`RTTI Class Hierarchy Descriptor'
PUBLIC	??_R2CNewsSystem@@8				; CNewsSystem::`RTTI Base Class Array'
PUBLIC	??_R1A@?0A@EA@CNewsSystem@@8			; CNewsSystem::`RTTI Base Class Descriptor at (0,-1,0,64)'
PUBLIC	__xmm@41f00000000000000000000000000000
EXTRN	??3@YAXPAXI@Z:PROC				; operator delete
EXTRN	_atexit:PROC
EXTRN	__imp__Sleep@4:PROC
EXTRN	__imp__GetPrivateProfileIntA@16:PROC
EXTRN	__imp__GetPrivateProfileStringA@24:PROC
EXTRN	__imp__wsprintfA:PROC
EXTRN	?MakeNoticeMsg@TNotice@@SAXPAXEPAD@Z:PROC	; TNotice::MakeNoticeMsg
EXTRN	?SendNoticeToAllUser@TNotice@@SAXPAX@Z:PROC	; TNotice::SendNoticeToAllUser
EXTRN	??_ECNewsSystem@@UAEPAXI@Z:PROC			; CNewsSystem::`vector deleting destructor'
EXTRN	@__security_check_cookie@4:PROC
EXTRN	__ftoui3:PROC
EXTRN	??_7type_info@@6B@:QWORD			; type_info::`vftable'
EXTRN	___security_cookie:DWORD
EXTRN	__fltused:DWORD
_BSS	SEGMENT
?g_NewsSystem@@3VCNewsSystem@@A DB 0c88H DUP (?)	; g_NewsSystem
_BSS	ENDS
CRT$XCU	SEGMENT
?g_NewsSystem$initializer$@@3P6AXXZA DD FLAT:??__Eg_NewsSystem@@YAXXZ ; g_NewsSystem$initializer$
CRT$XCU	ENDS
;	COMDAT __xmm@41f00000000000000000000000000000
CONST	SEGMENT
__xmm@41f00000000000000000000000000000 DB 00H, 00H, 00H, 00H, 00H, 00H, 00H
	DB	00H, 00H, 00H, 00H, 00H, 00H, 00H, 0f0H, 'A'
CONST	ENDS
;	COMDAT ??_R1A@?0A@EA@CNewsSystem@@8
rdata$r	SEGMENT
??_R1A@?0A@EA@CNewsSystem@@8 DD FLAT:??_R0?AVCNewsSystem@@@8 ; CNewsSystem::`RTTI Base Class Descriptor at (0,-1,0,64)'
	DD	00H
	DD	00H
	DD	0ffffffffH
	DD	00H
	DD	040H
	DD	FLAT:??_R3CNewsSystem@@8
rdata$r	ENDS
;	COMDAT ??_R2CNewsSystem@@8
rdata$r	SEGMENT
??_R2CNewsSystem@@8 DD FLAT:??_R1A@?0A@EA@CNewsSystem@@8 ; CNewsSystem::`RTTI Base Class Array'
rdata$r	ENDS
;	COMDAT ??_R3CNewsSystem@@8
rdata$r	SEGMENT
??_R3CNewsSystem@@8 DD 00H				; CNewsSystem::`RTTI Class Hierarchy Descriptor'
	DD	00H
	DD	01H
	DD	FLAT:??_R2CNewsSystem@@8
rdata$r	ENDS
;	COMDAT ??_R0?AVCNewsSystem@@@8
data$r	SEGMENT
??_R0?AVCNewsSystem@@@8 DD FLAT:??_7type_info@@6B@	; CNewsSystem `RTTI Type Descriptor'
	DD	00H
	DB	'.?AVCNewsSystem@@', 00H
data$r	ENDS
;	COMDAT ??_R4CNewsSystem@@6B@
rdata$r	SEGMENT
??_R4CNewsSystem@@6B@ DD 00H				; CNewsSystem::`RTTI Complete Object Locator'
	DD	00H
	DD	00H
	DD	FLAT:??_R0?AVCNewsSystem@@@8
	DD	FLAT:??_R3CNewsSystem@@8
rdata$r	ENDS
;	COMDAT ??_C@_05HOIJOGGB@News3@
CONST	SEGMENT
??_C@_05HOIJOGGB@News3@ DB 'News3', 00H			; `string'
CONST	ENDS
;	COMDAT ??_C@_05GHJCNHCA@News2@
CONST	SEGMENT
??_C@_05GHJCNHCA@News2@ DB 'News2', 00H			; `string'
CONST	ENDS
;	COMDAT ??_C@_05EMLPIEOD@News1@
CONST	SEGMENT
??_C@_05EMLPIEOD@News1@ DB 'News1', 00H			; `string'
CONST	ENDS
;	COMDAT ??_C@_04HIBGFPH@NULL@
CONST	SEGMENT
??_C@_04HIBGFPH@NULL@ DB 'NULL', 00H			; `string'
CONST	ENDS
;	COMDAT ??_C@_08KNCBFNDG@ShowType@
CONST	SEGMENT
??_C@_08KNCBFNDG@ShowType@ DB 'ShowType', 00H		; `string'
CONST	ENDS
;	COMDAT ??_C@_08OJMGDKIK@ShowTime@
CONST	SEGMENT
??_C@_08OJMGDKIK@ShowTime@ DB 'ShowTime', 00H		; `string'
CONST	ENDS
;	COMDAT ??_C@_09MOJGCJNP@Section?$CFd@
CONST	SEGMENT
??_C@_09MOJGCJNP@Section?$CFd@ DB 'Section%d', 00H	; `string'
CONST	ENDS
;	COMDAT ??_C@_04IHEKLNBL@News@
CONST	SEGMENT
??_C@_04IHEKLNBL@News@ DB 'News', 00H			; `string'
CONST	ENDS
;	COMDAT ??_C@_0N@IFHDLCCA@NewsSections@
CONST	SEGMENT
??_C@_0N@IFHDLCCA@NewsSections@ DB 'NewsSections', 00H	; `string'
CONST	ENDS
;	COMDAT ??_C@_0BH@NKJIONEN@?4?4?2Data?2NewsSystem?4cfg@
CONST	SEGMENT
??_C@_0BH@NKJIONEN@?4?4?2Data?2NewsSystem?4cfg@ DB '..\Data\NewsSystem.cf'
	DB	'g', 00H					; `string'
CONST	ENDS
;	COMDAT ??_7CNewsSystem@@6B@
CONST	SEGMENT
??_7CNewsSystem@@6B@ DD FLAT:??_R4CNewsSystem@@6B@	; CNewsSystem::`vftable'
	DD	FLAT:??_ECNewsSystem@@UAEPAXI@Z
CONST	ENDS
; Function compile flags: /Odtp /ZI
;	COMDAT ??__Fg_NewsSystem@@YAXXZ
text$yd	SEGMENT
??__Fg_NewsSystem@@YAXXZ PROC				; `dynamic atexit destructor for 'g_NewsSystem'', COMDAT
  00000	55		 push	 ebp
  00001	8b ec		 mov	 ebp, esp
  00003	83 ec 40	 sub	 esp, 64			; 00000040H
  00006	53		 push	 ebx
  00007	56		 push	 esi
  00008	57		 push	 edi
  00009	b9 00 00 00 00	 mov	 ecx, OFFSET ?g_NewsSystem@@3VCNewsSystem@@A ; g_NewsSystem
  0000e	e8 00 00 00 00	 call	 ??1CNewsSystem@@UAE@XZ	; CNewsSystem::~CNewsSystem
  00013	5f		 pop	 edi
  00014	5e		 pop	 esi
  00015	5b		 pop	 ebx
  00016	8b e5		 mov	 esp, ebp
  00018	5d		 pop	 ebp
  00019	c3		 ret	 0
??__Fg_NewsSystem@@YAXXZ ENDP				; `dynamic atexit destructor for 'g_NewsSystem''
text$yd	ENDS
; Function compile flags: /Odtp /ZI
; File C:\Mu Online\Mu-GS-Webzen-MC-10093\GameServer\News.cpp
;	COMDAT ??__Eg_NewsSystem@@YAXXZ
text$di	SEGMENT
??__Eg_NewsSystem@@YAXXZ PROC				; `dynamic initializer for 'g_NewsSystem'', COMDAT

; 7    : CNewsSystem g_NewsSystem;

  00000	55		 push	 ebp
  00001	8b ec		 mov	 ebp, esp
  00003	83 ec 40	 sub	 esp, 64			; 00000040H
  00006	53		 push	 ebx
  00007	56		 push	 esi
  00008	57		 push	 edi
  00009	b9 00 00 00 00	 mov	 ecx, OFFSET ?g_NewsSystem@@3VCNewsSystem@@A ; g_NewsSystem
  0000e	e8 00 00 00 00	 call	 ??0CNewsSystem@@QAE@XZ	; CNewsSystem::CNewsSystem
  00013	68 00 00 00 00	 push	 OFFSET ??__Fg_NewsSystem@@YAXXZ ; `dynamic atexit destructor for 'g_NewsSystem''
  00018	e8 00 00 00 00	 call	 _atexit
  0001d	83 c4 04	 add	 esp, 4
  00020	5f		 pop	 edi
  00021	5e		 pop	 esi
  00022	5b		 pop	 ebx
  00023	8b e5		 mov	 esp, ebp
  00025	5d		 pop	 ebp
  00026	c3		 ret	 0
??__Eg_NewsSystem@@YAXXZ ENDP				; `dynamic initializer for 'g_NewsSystem''
text$di	ENDS
; Function compile flags: /Odtp /ZI
;	COMDAT ??_GCNewsSystem@@UAEPAXI@Z
_TEXT	SEGMENT
_this$ = -4						; size = 4
___flags$ = 8						; size = 4
??_GCNewsSystem@@UAEPAXI@Z PROC				; CNewsSystem::`scalar deleting destructor', COMDAT
; _this$ = ecx
  00000	55		 push	 ebp
  00001	8b ec		 mov	 ebp, esp
  00003	83 ec 44	 sub	 esp, 68			; 00000044H
  00006	53		 push	 ebx
  00007	56		 push	 esi
  00008	57		 push	 edi
  00009	89 4d fc	 mov	 DWORD PTR _this$[ebp], ecx
  0000c	8b 4d fc	 mov	 ecx, DWORD PTR _this$[ebp]
  0000f	e8 00 00 00 00	 call	 ??1CNewsSystem@@UAE@XZ	; CNewsSystem::~CNewsSystem
  00014	8b 45 08	 mov	 eax, DWORD PTR ___flags$[ebp]
  00017	83 e0 01	 and	 eax, 1
  0001a	74 11		 je	 SHORT $LN2@scalar
  0001c	68 88 0c 00 00	 push	 3208			; 00000c88H
  00021	8b 45 fc	 mov	 eax, DWORD PTR _this$[ebp]
  00024	50		 push	 eax
  00025	e8 00 00 00 00	 call	 ??3@YAXPAXI@Z		; operator delete
  0002a	83 c4 08	 add	 esp, 8
$LN2@scalar:
  0002d	8b 45 fc	 mov	 eax, DWORD PTR _this$[ebp]
  00030	5f		 pop	 edi
  00031	5e		 pop	 esi
  00032	5b		 pop	 ebx
  00033	8b e5		 mov	 esp, ebp
  00035	5d		 pop	 ebp
  00036	c2 04 00	 ret	 4
??_GCNewsSystem@@UAEPAXI@Z ENDP				; CNewsSystem::`scalar deleting destructor'
_TEXT	ENDS
; Function compile flags: /Odtp /ZI
; File C:\Mu Online\Mu-GS-Webzen-MC-10093\GameServer\News.cpp
;	COMDAT ?Process@CNewsSystem@@SGKPAX@Z
_TEXT	SEGMENT
tv198 = -368						; size = 8
tv195 = -360						; size = 4
_pNotice$1 = -292					; size = 272
_i$2 = -20						; size = 4
_PState$3 = -16						; size = 10
__$ArrayPad$ = -4					; size = 4
_lpParameter$ = 8					; size = 4
?Process@CNewsSystem@@SGKPAX@Z PROC			; CNewsSystem::Process, COMDAT

; 18   : {

  00000	55		 push	 ebp
  00001	8b ec		 mov	 ebp, esp
  00003	81 ec 70 01 00
	00		 sub	 esp, 368		; 00000170H
  00009	a1 00 00 00 00	 mov	 eax, DWORD PTR ___security_cookie
  0000e	33 c5		 xor	 eax, ebp
  00010	89 45 fc	 mov	 DWORD PTR __$ArrayPad$[ebp], eax
  00013	53		 push	 ebx
  00014	56		 push	 esi
  00015	57		 push	 edi
$LN2@Process:

; 19   : #if 1
; 20   : 	while(true)

  00016	b8 01 00 00 00	 mov	 eax, 1
  0001b	85 c0		 test	 eax, eax
  0001d	0f 84 1c 02 00
	00		 je	 $LN3@Process

; 21   : 	{ 
; 22   : 		g_NewsSystem.Sections = GetPrivateProfileIntA("News","NewsSections",5,("..\\Data\\NewsSystem.cfg")); 

  00023	68 00 00 00 00	 push	 OFFSET ??_C@_0BH@NKJIONEN@?4?4?2Data?2NewsSystem?4cfg@
  00028	6a 05		 push	 5
  0002a	68 00 00 00 00	 push	 OFFSET ??_C@_0N@IFHDLCCA@NewsSections@
  0002f	68 00 00 00 00	 push	 OFFSET ??_C@_04IHEKLNBL@News@
  00034	ff 15 00 00 00
	00		 call	 DWORD PTR __imp__GetPrivateProfileIntA@16
  0003a	a3 04 00 00 00	 mov	 DWORD PTR ?g_NewsSystem@@3VCNewsSystem@@A+4, eax

; 23   : 
; 24   : 		char PState[10]; 
; 25   : 		for(int i = 1; i <= g_NewsSystem.Sections; i++)

  0003f	c7 45 ec 01 00
	00 00		 mov	 DWORD PTR _i$2[ebp], 1
  00046	eb 09		 jmp	 SHORT $LN6@Process
$LN4@Process:
  00048	8b 45 ec	 mov	 eax, DWORD PTR _i$2[ebp]
  0004b	83 c0 01	 add	 eax, 1
  0004e	89 45 ec	 mov	 DWORD PTR _i$2[ebp], eax
$LN6@Process:
  00051	8b 45 ec	 mov	 eax, DWORD PTR _i$2[ebp]
  00054	3b 05 04 00 00
	00		 cmp	 eax, DWORD PTR ?g_NewsSystem@@3VCNewsSystem@@A+4
  0005a	0f 8f da 01 00
	00		 jg	 $LN5@Process

; 26   : 		{
; 27   : 			wsprintf(PState, "Section%d", i);		

  00060	8b 45 ec	 mov	 eax, DWORD PTR _i$2[ebp]
  00063	50		 push	 eax
  00064	68 00 00 00 00	 push	 OFFSET ??_C@_09MOJGCJNP@Section?$CFd@
  00069	8d 4d f0	 lea	 ecx, DWORD PTR _PState$3[ebp]
  0006c	51		 push	 ecx
  0006d	ff 15 00 00 00
	00		 call	 DWORD PTR __imp__wsprintfA
  00073	83 c4 0c	 add	 esp, 12			; 0000000cH

; 28   : 			g_NewsSystem.NewsSys[i].Time = GetPrivateProfileIntA(PState,"ShowTime",0,("..\\Data\\NewsSystem.cfg")) * 60000;

  00076	68 00 00 00 00	 push	 OFFSET ??_C@_0BH@NKJIONEN@?4?4?2Data?2NewsSystem?4cfg@
  0007b	6a 00		 push	 0
  0007d	68 00 00 00 00	 push	 OFFSET ??_C@_08OJMGDKIK@ShowTime@
  00082	8d 45 f0	 lea	 eax, DWORD PTR _PState$3[ebp]
  00085	50		 push	 eax
  00086	ff 15 00 00 00
	00		 call	 DWORD PTR __imp__GetPrivateProfileIntA@16
  0008c	69 c8 60 ea 00
	00		 imul	 ecx, eax, 60000
  00092	89 8d 98 fe ff
	ff		 mov	 DWORD PTR tv195[ebp], ecx
  00098	f2 0f 2a 85 98
	fe ff ff	 cvtsi2sd xmm0, DWORD PTR tv195[ebp]
  000a0	8b 95 98 fe ff
	ff		 mov	 edx, DWORD PTR tv195[ebp]
  000a6	c1 ea 1f	 shr	 edx, 31			; 0000001fH
  000a9	f2 0f 58 04 d5
	00 00 00 00	 addsd	 xmm0, QWORD PTR __xmm@41f00000000000000000000000000000[edx*8]
  000b2	f2 0f 11 85 90
	fe ff ff	 movsd	 QWORD PTR tv198[ebp], xmm0
  000ba	f2 0f 5a 85 90
	fe ff ff	 cvtsd2ss xmm0, QWORD PTR tv198[ebp]
  000c2	69 45 ec a0 00
	00 00		 imul	 eax, DWORD PTR _i$2[ebp], 160
  000c9	f3 0f 11 80 a0
	00 00 00	 movss	 DWORD PTR ?g_NewsSystem@@3VCNewsSystem@@A[eax+160], xmm0

; 29   : 			g_NewsSystem.NewsSys[i].Type = GetPrivateProfileIntA(PState,"ShowType",0,("..\\Data\\NewsSystem.cfg"));

  000d1	68 00 00 00 00	 push	 OFFSET ??_C@_0BH@NKJIONEN@?4?4?2Data?2NewsSystem?4cfg@
  000d6	6a 00		 push	 0
  000d8	68 00 00 00 00	 push	 OFFSET ??_C@_08KNCBFNDG@ShowType@
  000dd	8d 45 f0	 lea	 eax, DWORD PTR _PState$3[ebp]
  000e0	50		 push	 eax
  000e1	ff 15 00 00 00
	00		 call	 DWORD PTR __imp__GetPrivateProfileIntA@16
  000e7	69 4d ec a0 00
	00 00		 imul	 ecx, DWORD PTR _i$2[ebp], 160
  000ee	89 81 a4 00 00
	00		 mov	 DWORD PTR ?g_NewsSystem@@3VCNewsSystem@@A[ecx+164], eax

; 30   : 			GetPrivateProfileStringA(PState,"News1","NULL",g_NewsSystem.NewsSys[i].MSG01,50,("..\\Data\\NewsSystem.cfg"));

  000f4	68 00 00 00 00	 push	 OFFSET ??_C@_0BH@NKJIONEN@?4?4?2Data?2NewsSystem?4cfg@
  000f9	6a 32		 push	 50			; 00000032H
  000fb	69 45 ec a0 00
	00 00		 imul	 eax, DWORD PTR _i$2[ebp], 160
  00102	05 08 00 00 00	 add	 eax, OFFSET ?g_NewsSystem@@3VCNewsSystem@@A+8
  00107	50		 push	 eax
  00108	68 00 00 00 00	 push	 OFFSET ??_C@_04HIBGFPH@NULL@
  0010d	68 00 00 00 00	 push	 OFFSET ??_C@_05EMLPIEOD@News1@
  00112	8d 4d f0	 lea	 ecx, DWORD PTR _PState$3[ebp]
  00115	51		 push	 ecx
  00116	ff 15 00 00 00
	00		 call	 DWORD PTR __imp__GetPrivateProfileStringA@24

; 31   : 			GetPrivateProfileStringA(PState,"News2", "NULL", g_NewsSystem.NewsSys[i].MSG02,50,("..\\Data\\NewsSystem.cfg"));

  0011c	68 00 00 00 00	 push	 OFFSET ??_C@_0BH@NKJIONEN@?4?4?2Data?2NewsSystem?4cfg@
  00121	6a 32		 push	 50			; 00000032H
  00123	69 45 ec a0 00
	00 00		 imul	 eax, DWORD PTR _i$2[ebp], 160
  0012a	05 3a 00 00 00	 add	 eax, OFFSET ?g_NewsSystem@@3VCNewsSystem@@A+58
  0012f	50		 push	 eax
  00130	68 00 00 00 00	 push	 OFFSET ??_C@_04HIBGFPH@NULL@
  00135	68 00 00 00 00	 push	 OFFSET ??_C@_05GHJCNHCA@News2@
  0013a	8d 4d f0	 lea	 ecx, DWORD PTR _PState$3[ebp]
  0013d	51		 push	 ecx
  0013e	ff 15 00 00 00
	00		 call	 DWORD PTR __imp__GetPrivateProfileStringA@24

; 32   : 			GetPrivateProfileStringA(PState,"News3", "NULL", g_NewsSystem.NewsSys[i].MSG03,50,("..\\Data\\NewsSystem.cfg")); 

  00144	68 00 00 00 00	 push	 OFFSET ??_C@_0BH@NKJIONEN@?4?4?2Data?2NewsSystem?4cfg@
  00149	6a 32		 push	 50			; 00000032H
  0014b	69 45 ec a0 00
	00 00		 imul	 eax, DWORD PTR _i$2[ebp], 160
  00152	05 6c 00 00 00	 add	 eax, OFFSET ?g_NewsSystem@@3VCNewsSystem@@A+108
  00157	50		 push	 eax
  00158	68 00 00 00 00	 push	 OFFSET ??_C@_04HIBGFPH@NULL@
  0015d	68 00 00 00 00	 push	 OFFSET ??_C@_05HOIJOGGB@News3@
  00162	8d 4d f0	 lea	 ecx, DWORD PTR _PState$3[ebp]
  00165	51		 push	 ecx
  00166	ff 15 00 00 00
	00		 call	 DWORD PTR __imp__GetPrivateProfileStringA@24

; 33   : 			Sleep(g_NewsSystem.NewsSys[i].Time); 

  0016c	69 45 ec a0 00
	00 00		 imul	 eax, DWORD PTR _i$2[ebp], 160
  00173	f3 0f 10 80 a0
	00 00 00	 movss	 xmm0, DWORD PTR ?g_NewsSystem@@3VCNewsSystem@@A[eax+160]
  0017b	e8 00 00 00 00	 call	 __ftoui3
  00180	50		 push	 eax
  00181	ff 15 00 00 00
	00		 call	 DWORD PTR __imp__Sleep@4

; 34   : 			PMSG_NOTICE	pNotice;
; 35   : 
; 36   : 			TNotice::MakeNoticeMsg( &pNotice, g_NewsSystem.NewsSys[i].Type, g_NewsSystem.NewsSys[i].MSG01 );

  00187	69 45 ec a0 00
	00 00		 imul	 eax, DWORD PTR _i$2[ebp], 160
  0018e	05 08 00 00 00	 add	 eax, OFFSET ?g_NewsSystem@@3VCNewsSystem@@A+8
  00193	50		 push	 eax
  00194	69 4d ec a0 00
	00 00		 imul	 ecx, DWORD PTR _i$2[ebp], 160
  0019b	0f b6 91 a4 00
	00 00		 movzx	 edx, BYTE PTR ?g_NewsSystem@@3VCNewsSystem@@A[ecx+164]
  001a2	52		 push	 edx
  001a3	8d 85 dc fe ff
	ff		 lea	 eax, DWORD PTR _pNotice$1[ebp]
  001a9	50		 push	 eax
  001aa	e8 00 00 00 00	 call	 ?MakeNoticeMsg@TNotice@@SAXPAXEPAD@Z ; TNotice::MakeNoticeMsg
  001af	83 c4 0c	 add	 esp, 12			; 0000000cH

; 37   : 			TNotice::SendNoticeToAllUser(&pNotice);

  001b2	8d 85 dc fe ff
	ff		 lea	 eax, DWORD PTR _pNotice$1[ebp]
  001b8	50		 push	 eax
  001b9	e8 00 00 00 00	 call	 ?SendNoticeToAllUser@TNotice@@SAXPAX@Z ; TNotice::SendNoticeToAllUser
  001be	83 c4 04	 add	 esp, 4

; 38   : 			TNotice::MakeNoticeMsg( &pNotice, g_NewsSystem.NewsSys[i].Type, g_NewsSystem.NewsSys[i].MSG02 );

  001c1	69 45 ec a0 00
	00 00		 imul	 eax, DWORD PTR _i$2[ebp], 160
  001c8	05 3a 00 00 00	 add	 eax, OFFSET ?g_NewsSystem@@3VCNewsSystem@@A+58
  001cd	50		 push	 eax
  001ce	69 4d ec a0 00
	00 00		 imul	 ecx, DWORD PTR _i$2[ebp], 160
  001d5	0f b6 91 a4 00
	00 00		 movzx	 edx, BYTE PTR ?g_NewsSystem@@3VCNewsSystem@@A[ecx+164]
  001dc	52		 push	 edx
  001dd	8d 85 dc fe ff
	ff		 lea	 eax, DWORD PTR _pNotice$1[ebp]
  001e3	50		 push	 eax
  001e4	e8 00 00 00 00	 call	 ?MakeNoticeMsg@TNotice@@SAXPAXEPAD@Z ; TNotice::MakeNoticeMsg
  001e9	83 c4 0c	 add	 esp, 12			; 0000000cH

; 39   : 			TNotice::SendNoticeToAllUser(&pNotice);

  001ec	8d 85 dc fe ff
	ff		 lea	 eax, DWORD PTR _pNotice$1[ebp]
  001f2	50		 push	 eax
  001f3	e8 00 00 00 00	 call	 ?SendNoticeToAllUser@TNotice@@SAXPAX@Z ; TNotice::SendNoticeToAllUser
  001f8	83 c4 04	 add	 esp, 4

; 40   : 			TNotice::MakeNoticeMsg( &pNotice, g_NewsSystem.NewsSys[i].Type, g_NewsSystem.NewsSys[i].MSG03 );

  001fb	69 45 ec a0 00
	00 00		 imul	 eax, DWORD PTR _i$2[ebp], 160
  00202	05 6c 00 00 00	 add	 eax, OFFSET ?g_NewsSystem@@3VCNewsSystem@@A+108
  00207	50		 push	 eax
  00208	69 4d ec a0 00
	00 00		 imul	 ecx, DWORD PTR _i$2[ebp], 160
  0020f	0f b6 91 a4 00
	00 00		 movzx	 edx, BYTE PTR ?g_NewsSystem@@3VCNewsSystem@@A[ecx+164]
  00216	52		 push	 edx
  00217	8d 85 dc fe ff
	ff		 lea	 eax, DWORD PTR _pNotice$1[ebp]
  0021d	50		 push	 eax
  0021e	e8 00 00 00 00	 call	 ?MakeNoticeMsg@TNotice@@SAXPAXEPAD@Z ; TNotice::MakeNoticeMsg
  00223	83 c4 0c	 add	 esp, 12			; 0000000cH

; 41   : 			TNotice::SendNoticeToAllUser(&pNotice);

  00226	8d 85 dc fe ff
	ff		 lea	 eax, DWORD PTR _pNotice$1[ebp]
  0022c	50		 push	 eax
  0022d	e8 00 00 00 00	 call	 ?SendNoticeToAllUser@TNotice@@SAXPAX@Z ; TNotice::SendNoticeToAllUser
  00232	83 c4 04	 add	 esp, 4

; 42   : 		} 

  00235	e9 0e fe ff ff	 jmp	 $LN4@Process
$LN5@Process:

; 43   : 	}

  0023a	e9 d7 fd ff ff	 jmp	 $LN2@Process
$LN3@Process:

; 44   : #endif
; 45   : 	return 0;

  0023f	33 c0		 xor	 eax, eax

; 46   : }

  00241	5f		 pop	 edi
  00242	5e		 pop	 esi
  00243	5b		 pop	 ebx
  00244	8b 4d fc	 mov	 ecx, DWORD PTR __$ArrayPad$[ebp]
  00247	33 cd		 xor	 ecx, ebp
  00249	e8 00 00 00 00	 call	 @__security_check_cookie@4
  0024e	8b e5		 mov	 esp, ebp
  00250	5d		 pop	 ebp
  00251	c2 04 00	 ret	 4
?Process@CNewsSystem@@SGKPAX@Z ENDP			; CNewsSystem::Process
_TEXT	ENDS
; Function compile flags: /Odtp /ZI
; File C:\Mu Online\Mu-GS-Webzen-MC-10093\GameServer\News.cpp
;	COMDAT ??1CNewsSystem@@UAE@XZ
_TEXT	SEGMENT
_this$ = -4						; size = 4
??1CNewsSystem@@UAE@XZ PROC				; CNewsSystem::~CNewsSystem, COMDAT
; _this$ = ecx

; 14   : {

  00000	55		 push	 ebp
  00001	8b ec		 mov	 ebp, esp
  00003	83 ec 44	 sub	 esp, 68			; 00000044H
  00006	53		 push	 ebx
  00007	56		 push	 esi
  00008	57		 push	 edi
  00009	89 4d fc	 mov	 DWORD PTR _this$[ebp], ecx
  0000c	8b 45 fc	 mov	 eax, DWORD PTR _this$[ebp]
  0000f	c7 00 00 00 00
	00		 mov	 DWORD PTR [eax], OFFSET ??_7CNewsSystem@@6B@

; 15   : }

  00015	5f		 pop	 edi
  00016	5e		 pop	 esi
  00017	5b		 pop	 ebx
  00018	8b e5		 mov	 esp, ebp
  0001a	5d		 pop	 ebp
  0001b	c3		 ret	 0
??1CNewsSystem@@UAE@XZ ENDP				; CNewsSystem::~CNewsSystem
_TEXT	ENDS
; Function compile flags: /Odtp /ZI
; File C:\Mu Online\Mu-GS-Webzen-MC-10093\GameServer\News.cpp
;	COMDAT ??0CNewsSystem@@QAE@XZ
_TEXT	SEGMENT
_this$ = -4						; size = 4
??0CNewsSystem@@QAE@XZ PROC				; CNewsSystem::CNewsSystem, COMDAT
; _this$ = ecx

; 10   : {

  00000	55		 push	 ebp
  00001	8b ec		 mov	 ebp, esp
  00003	83 ec 44	 sub	 esp, 68			; 00000044H
  00006	53		 push	 ebx
  00007	56		 push	 esi
  00008	57		 push	 edi
  00009	89 4d fc	 mov	 DWORD PTR _this$[ebp], ecx
  0000c	8b 45 fc	 mov	 eax, DWORD PTR _this$[ebp]
  0000f	c7 00 00 00 00
	00		 mov	 DWORD PTR [eax], OFFSET ??_7CNewsSystem@@6B@

; 11   : }

  00015	8b 45 fc	 mov	 eax, DWORD PTR _this$[ebp]
  00018	5f		 pop	 edi
  00019	5e		 pop	 esi
  0001a	5b		 pop	 ebx
  0001b	8b e5		 mov	 esp, ebp
  0001d	5d		 pop	 ebp
  0001e	c3		 ret	 0
??0CNewsSystem@@QAE@XZ ENDP				; CNewsSystem::CNewsSystem
_TEXT	ENDS
; Function compile flags: /Odtp /ZI
; File C:\Mu Online\Mu-GS-Webzen-MC-10093\GameServer\News.cpp
;	COMDAT ?__empty_global_delete@@YAXPAXI@Z
_TEXT	SEGMENT
___formal$ = 8						; size = 4
___formal$ = 12						; size = 4
?__empty_global_delete@@YAXPAXI@Z PROC			; __empty_global_delete, COMDAT

  00000	55		 push	 ebp
  00001	8b ec		 mov	 ebp, esp
  00003	83 ec 40	 sub	 esp, 64			; 00000040H
  00006	53		 push	 ebx
  00007	56		 push	 esi
  00008	57		 push	 edi
  00009	5f		 pop	 edi
  0000a	5e		 pop	 esi
  0000b	5b		 pop	 ebx
  0000c	8b e5		 mov	 esp, ebp
  0000e	5d		 pop	 ebp
  0000f	c3		 ret	 0
?__empty_global_delete@@YAXPAXI@Z ENDP			; __empty_global_delete
_TEXT	ENDS
; Function compile flags: /Odtp /ZI
; File C:\Mu Online\Mu-GS-Webzen-MC-10093\GameServer\News.cpp
;	COMDAT ?__empty_global_delete@@YAXPAX@Z
_TEXT	SEGMENT
___formal$ = 8						; size = 4
?__empty_global_delete@@YAXPAX@Z PROC			; __empty_global_delete, COMDAT

  00000	55		 push	 ebp
  00001	8b ec		 mov	 ebp, esp
  00003	83 ec 40	 sub	 esp, 64			; 00000040H
  00006	53		 push	 ebx
  00007	56		 push	 esi
  00008	57		 push	 edi
  00009	5f		 pop	 edi
  0000a	5e		 pop	 esi
  0000b	5b		 pop	 ebx
  0000c	8b e5		 mov	 esp, ebp
  0000e	5d		 pop	 ebp
  0000f	c3		 ret	 0
?__empty_global_delete@@YAXPAX@Z ENDP			; __empty_global_delete
_TEXT	ENDS
END
