; Listing generated by Microsoft (R) Optimizing Compiler Version 19.27.29111.0 

	TITLE	C:\Mu Online\Mu-GS-Webzen-MC-10093\GameServer\ObjCalCharacter.cpp
	.686P
	.XMM
	include listing.inc
	.model	flat

INCLUDELIB LIBCMT
INCLUDELIB OLDNAMES

PUBLIC	?__empty_global_delete@@YAXPAX@Z		; __empty_global_delete
PUBLIC	?__empty_global_delete@@YAXPAXI@Z		; __empty_global_delete
PUBLIC	?gObjCalCharacter@@YAXH@Z			; gObjCalCharacter
PUBLIC	?GObjExtItemApply@@YAXPAVOBJECTSTRUCT@@@Z	; GObjExtItemApply
PUBLIC	?gObjCalcSetItemStat@@YAXPAVOBJECTSTRUCT@@@Z	; gObjCalcSetItemStat
PUBLIC	?gObjGetSetItemOption@@YAXPAVOBJECTSTRUCT@@PAE1PAH@Z ; gObjGetSetItemOption
PUBLIC	?gObjCalcSetItemOption@@YAXPAVOBJECTSTRUCT@@@Z	; gObjCalcSetItemOption
PUBLIC	?gObjSetItemStatPlusSpecial@@YAXPAVOBJECTSTRUCT@@HH@Z ; gObjSetItemStatPlusSpecial
PUBLIC	?gObjSetItemPlusSpecial@@YAXPAVOBJECTSTRUCT@@HH@Z ; gObjSetItemPlusSpecial
PUBLIC	?gObjSetItemApply@@YAXPAVOBJECTSTRUCT@@@Z	; gObjSetItemApply
PUBLIC	?gObjValidItem@@YAHPAVOBJECTSTRUCT@@PAVCItem@@H@Z ; gObjValidItem
PUBLIC	??_C@_0CG@MJJCFDMJ@?$LO?g?$LM?U?$LP?$KB?5?$LA?$LA?$MA?$LK?5?$LM?$LM?F?$KO?$LA?$KB?5?$MA?$PL?$LP?k?$LF?G?$LO?z?$LE?Y?5?$LJ@ ; `string'
PUBLIC	??_C@_0CG@HNELGANH@?$LJ?$NN?A?v?$LP?$KB?5?$LA?$LA?$MA?$LK?5?$LM?$LM?F?$KO?$LA?$KB?5?$MA?$PL?$LP?k?$LF?G?$LO?z?$LE?Y?5?$LJ@ ; `string'
PUBLIC	??_C@_0BL@LIIMDDCM@?$LP?I?$LM?G?5?C?$KD?$LO?R?$LE?Y?5?$CFs?0?5Count?5?$DN?5?$CFd@ ; `string'
PUBLIC	??_C@_0BK@POCCBAFD@?$FL?$CFs?$FN?$FL?$CFs?$FN?5?$LM?$LM?F?$KO?5?$CFs?$LP?I?$LM?G?5?$MA?$PL?$LP?k@ ; `string'
PUBLIC	??_C@_0M@CMDBHBEK@?G?$KO?$LP?I?$LM?G?5?$MA?$PL?$LP?k@ ; `string'
PUBLIC	??_C@_0BH@ONKKHHJG@?$FL?$CFs?$FN?$FL?$CFs?$FN?5?H?$PL?A?u?$LA?$KB?5?$CL?$CFd?5?$CFd@ ; `string'
PUBLIC	??_C@_0BM@OEKJMCEF@?$FL?$CFs?$FN?$FL?$CFs?$FN?5?$LJ?N?C?$LI?$LM?$LK?5?A?u?$LA?$KB?5?$CL?$CFd?5?$CFd@ ; `string'
PUBLIC	??_C@_0BM@MFKNDDBL@?$FL?$CFs?$FN?$FL?$CFs?$FN?5?$LP?$KB?$LD?J?A?v?5?A?u?$LA?$KB?5?$CL?$CFd?5?$CFd@ ; `string'
PUBLIC	??_C@_0BK@FDGDAPMN@?$FL?$CFs?$FN?$FL?$CFs?$FN?5?C?$LM?$LH?B?5?A?u?$LA?$KB?5?$CL?$CFd?5?$CFd@ ; `string'
PUBLIC	??_C@_0BK@GABNJNFN@?$FL?$CFs?$FN?$FL?$CFs?$FN?5?E?k?$LM?V?5?A?u?$LA?$KB?5?$CL?$CFd?5?$CFd@ ; `string'
PUBLIC	??_C@_0CG@JAHDGEMD@?$FL?$CFs?$FN?$FL?$CFs?$FN?5?$LE?u?$LK?m?5?$LF?$KF?$LJ?L?A?v?5?H?$KO?$LH?$PM?5?$CFd?F?$NL?$LM@ ; `string'
PUBLIC	??_C@_0CN@JHAFMLFE@?$FL?$CFs?$FN?$FL?$CFs?$FN?5?$LJ?f?F?P?5?$MA?e?$LK?q?$LN?C?5?$LJ?f?$LO?n?$LH?B?5?$CFd?F@ ; `string'
PUBLIC	??_C@_0CP@IMHJNPOL@?$FL?$CFs?$FN?$FL?$CFs?$FN?5?$LO?g?$LM?U?$LA?K?5?$MA?e?$LK?q?$LN?C?5?$LF?$KF?$LJ?L?A?v?5?$CF@ ; `string'
PUBLIC	??_C@_0CB@FEJEMDEP@?$FL?$CFs?$FN?$FL?$CFs?$FN?5?C?V?$LM?R?5?$LA?x?$LA?$NN?$LH?B?5?A?u?$LA?$KB?5?$CFd?0?5?$CF@ ; `string'
PUBLIC	??_C@_0CB@ILNDFIJD@?$FL?$CFs?$FN?$FL?$CFs?$FN?5?C?V?$LE?k?5?$LA?x?$LA?$NN?$LH?B?5?A?u?$LA?$KB?5?$CFd?0?5?$CF@ ; `string'
PUBLIC	??_C@_0BJ@NMLHNOEN@?$FL?$CFs?$FN?$FL?$CFs?$FN?5?$LI?$LG?$LH?B?5?A?u?$LA?$KB?5?$CFd?5?$CFd@ ; `string'
PUBLIC	??_C@_0BL@EOFFOPCL@?$FL?$CFs?$FN?$FL?$CFs?$FN?5?$LF?$KF?$LJ?L?A?v?5?A?u?$LA?$KB?5?$CFd?5?$CFd@ ; `string'
PUBLIC	??_C@_0BL@DCNPIBGF@?$FL?$CFs?$FN?$FL?$CFs?$FN?5?$LA?x?$LA?$NN?$MA?$LC?5?A?u?$LA?$KB?5?$CFd?5?$CFd@ ; `string'
PUBLIC	??_C@_0BL@FEKHKAGB@?$FL?$CFs?$FN?$FL?$CFs?$FN?5?$LJ?f?$LO?n?$LH?B?5?A?u?$LA?$KB?5?$CFd?5?$CFd@ ; `string'
PUBLIC	??_C@_0CE@FMDHIPCH@?$FL?$CFs?$FN?$FL?$CFs?$FN?5?$MA?$PL?5?$LJ?f?$LO?n?$LH?B?5?$LJ?$KL?$LN?C?5?$CFd?F?$NL?$LM?$LO?F@ ; `string'
PUBLIC	??_C@_0CB@COGOBJDJ@?$FL?$CFs?$FN?$FL?$CFs?$FN?5?C?V?$LE?k?5?$LL?$PN?$LI?m?$LH?B?5?A?u?$LA?$KB?5?$CL?$CFd?5?$CF@ ; `string'
PUBLIC	??_C@_0BP@OPBNCLKG@?$FL?$CFs?$FN?$FL?$CFs?$FN?5?C?V?$LE?k?5?$LI?$LG?$LD?$KK?5?A?u?$LA?$KB?5?$CL?$CFd?5?$CFd@ ; `string'
PUBLIC	??_C@_0CC@FJOADNPF@?$FL?$CFs?$FN?$FL?$CFs?$FN?5?C?V?$LE?k?5AG?5?$CFd?F?$NL?$LM?$LO?F?$KO?5?A?u?$LA?$KB?5@ ; `string'
PUBLIC	??_C@_0BN@KMNLDLFB@?$FL?$CFs?$FN?$FL?$CFs?$FN?5AG?A?u?$LA?$KB?$LH?$KO?5?$CFd?5?A?u?$LA?$KB?5?$CFd@ ; `string'
PUBLIC	??_C@_0CD@EOBGMEOP@?$FL?$CFs?$FN?$FL?$CFs?$FN?5?E?$KJ?$LI?$KO?F?$LM?D?C?5?$LF?$KF?$LJ?L?A?v?5?$CFd?A?u?$LA?$KB@ ; `string'
PUBLIC	??_C@_0CI@HBACHEPA@?$FL?$CFs?$FN?$FL?$CFs?$FN?5?E?$KJ?$LI?$KO?F?$LM?D?C?5?$LF?$KF?$LJ?L?A?v?5?H?$KO?$LH?$PM?5?$CF@ ; `string'
PUBLIC	??_C@_0CD@MHJKHGBJ@?$FL?$CFs?$FN?$FL?$CFs?$FN?5?$LP?$KC?$LM?$LD?$LH?$LB?F?$KO?5?$LF?$KF?$LJ?L?A?v?5?$CFd?A?u?$LA?$KB@ ; `string'
PUBLIC	??_C@_0CI@DGDJGPK@?$FL?$CFs?$FN?$FL?$CFs?$FN?5?$LP?$KC?$LM?$LD?$LH?$LB?F?$KO?5?$LF?$KF?$LJ?L?A?v?5?H?$KO?$LH?$PM?5?$CF@ ; `string'
PUBLIC	??_C@_0BP@HNFEPEOH@?$FL?$CFs?$FN?$FL?$CFs?$FN?5?$LN?$LK?E?$LD?5?$LA?x?$LA?$NN?$LH?B?5?$CFd?A?u?$LA?$KB?5?$CFd@ ; `string'
PUBLIC	??_C@_0CO@GCGKCCGG@?$FL?$CFs?$FN?$FL?$CFs?$FN?5?F?$KP?A?$KE?5?D?$LD?$LI?$KP?E?M?5?$LA?x?$LA?$NN?$LH?B?5?A?u?$LA@ ; `string'
PUBLIC	??_C@_0CK@KBAHHLFK@?$FL?$CFs?$FN?$FL?$CFs?$FN?5?F?$KP?A?$KE?5?D?$LD?$LI?$KP?E?M?5?$LA?x?$LA?$NN?$LH?B?5?A?u?$LA@ ; `string'
PUBLIC	??_C@_0CM@DGIFJEA@?$FL?$CFs?$FN?$FL?$CFs?$FN?5?F?$KP?A?$KE?5?D?$LD?$LI?$KP?E?M?5?$LI?$LG?$LH?B?5?A?u?$LA?$KB?5@ ; `string'
PUBLIC	??_C@_0CM@MGOKEJHP@?$FL?$CFs?$FN?$FL?$CFs?$FN?5?F?$KP?A?$KE?5?D?$LD?$LI?$KP?E?M?5?$LJ?f?$LO?n?$LH?B?5?A?u?$LA@ ; `string'
PUBLIC	??_C@_0CM@HHMOKMC@?$FL?$CFs?$FN?$FL?$CFs?$FN?5?F?$KP?A?$KE?5?D?$LD?$LI?$KP?E?M?5?$LJ?f?$LO?n?$LH?B?5?A?u?$LA@ ; `string'
PUBLIC	??_C@_0CB@IEPMKKNP@?$FL?$CFs?$FN?$FL?$CFs?$FN?5?F?$KP?A?$KE?5?D?$LD?$LI?$KP?E?M?5?$LK?R?$LM?S?$LM?$LK?5?C?$NP?$LA@ ; `string'
PUBLIC	??_C@_0CD@DGAOONIH@?$FL?$CFs?$FN?$FL?$CFs?$FN?5?F?$KP?A?$KE?5?D?$LD?$LI?$KP?E?M?5?$LO?s?$MA?$LN?$LM?S?$LM?$LK?5?C@ ; `string'
PUBLIC	??_C@_0CD@MCDGFCBG@?$FL?$CFs?$FN?$FL?$CFs?$FN?5?F?$KP?A?$KE?5?D?$LD?$LI?$KP?E?M?5?$LJ?x?$LA?$LD?$LM?S?$LM?$LK?5?C@ ; `string'
PUBLIC	??_C@_0CB@BGGFNABE@?$FL?$CFs?$FN?$FL?$CFs?$FN?5?F?$KP?A?$KE?5?D?$LD?$LI?$KP?E?M?5?$LF?$LG?$LM?S?$LM?$LK?5?C?$NP?$LA@ ; `string'
PUBLIC	??_C@_0CB@PLNKFHNG@?$FL?$CFs?$FN?$FL?$CFs?$FN?5?F?$KP?A?$KE?5?D?$LD?$LI?$KP?E?M?5?$LJ?$LA?$LM?S?$LM?$LK?5?C?$NP?$LA@ ; `string'
PUBLIC	??_C@_0CD@CFHCAPOL@?$FL?$CFs?$FN?$FL?$CFs?$FN?5?F?$KP?A?$KE?5?D?$LD?$LI?$KP?E?M?5?$LJ?Y?$LG?w?$LM?S?$LM?$LK?5?C@ ; `string'
PUBLIC	??_C@_0CB@FGOPKACO@?$FL?$CFs?$FN?$FL?$CFs?$FN?5?F?$KP?A?$KE?5?D?$LD?$LI?$KP?E?M?5?$LG?$KF?$LM?S?$LM?$LK?5?C?$NP?$LA@ ; `string'
PUBLIC	__real@00000000
PUBLIC	__real@3cf5c28f
PUBLIC	__real@3d4ccccd
PUBLIC	__real@3d8f5c29
PUBLIC	__real@3f800000
PUBLIC	__real@41a00000
PUBLIC	__real@42c80000
PUBLIC	__xmm@41f00000000000000000000000000000
EXTRN	_memset:PROC
EXTRN	?IsItem@CItem@@QAEHXZ:PROC			; CItem::IsItem
EXTRN	?IsSetItem@CItem@@QAEHXZ:PROC			; CItem::IsSetItem
EXTRN	?GetAddStatType@CItem@@QAEHXZ:PROC		; CItem::GetAddStatType
EXTRN	?ItemDefense@CItem@@QAEHXZ:PROC			; CItem::ItemDefense
EXTRN	?PlusSpecial@CItem@@QAEXPAHH@Z:PROC		; CItem::PlusSpecial
EXTRN	?PlusSpecialPercentEx@CItem@@QAEXPAHHH@Z:PROC	; CItem::PlusSpecialPercentEx
EXTRN	?SetItemPlusSpecialStat@CItem@@QAEXPAGH@Z:PROC	; CItem::SetItemPlusSpecialStat
EXTRN	?GetWeaponType@CItem@@QAEHXZ:PROC		; CItem::GetWeaponType
EXTRN	?PlusSpecialSetRing@CItem@@QAEXPAE@Z:PROC	; CItem::PlusSpecialSetRing
EXTRN	?IsExtItem@CItem@@QAEHXZ:PROC			; CItem::IsExtItem
EXTRN	?IsExtLifeAdd@CItem@@QAEHXZ:PROC		; CItem::IsExtLifeAdd
EXTRN	?IsExtManaAdd@CItem@@QAEHXZ:PROC		; CItem::IsExtManaAdd
EXTRN	?IsExtDamageMinus@CItem@@QAEHXZ:PROC		; CItem::IsExtDamageMinus
EXTRN	?IsExtDamageReflect@CItem@@QAEHXZ:PROC		; CItem::IsExtDamageReflect
EXTRN	?IsExtDefenseSuccessfull@CItem@@QAEHXZ:PROC	; CItem::IsExtDefenseSuccessfull
EXTRN	?IsExtMonsterMoney@CItem@@QAEHXZ:PROC		; CItem::IsExtMonsterMoney
EXTRN	?IsExtExcellentDamage@CItem@@QAEHXZ:PROC	; CItem::IsExtExcellentDamage
EXTRN	?IsExtAttackRate@CItem@@QAEHXZ:PROC		; CItem::IsExtAttackRate
EXTRN	?IsExtAttackRate2@CItem@@QAEHXZ:PROC		; CItem::IsExtAttackRate2
EXTRN	?IsExtAttackSpeed@CItem@@QAEHXZ:PROC		; CItem::IsExtAttackSpeed
EXTRN	?IsExtMonsterDieLife@CItem@@QAEHXZ:PROC		; CItem::IsExtMonsterDieLife
EXTRN	?IsExtMonsterDieMana@CItem@@QAEHXZ:PROC		; CItem::IsExtMonsterDieMana
EXTRN	?gObjSetBP@@YAXH@Z:PROC				; gObjSetBP
EXTRN	?gObjNextExpCal@@YAXPAVOBJECTSTRUCT@@@Z:PROC	; gObjNextExpCal
EXTRN	?GCReFillSend@@YAXHGEE@Z:PROC			; GCReFillSend
EXTRN	?GCManaSend@@YAXHFEEG@Z:PROC			; GCManaSend
EXTRN	?MakeItemNumber@@YAHHH@Z:PROC			; MakeItemNumber
EXTRN	?Set@CDarkSpirit@@QAEXHPAVCItem@@@Z:PROC	; CDarkSpirit::Set
EXTRN	?GetOptionTableIndex@CSetItemOption@@QAEHHH@Z:PROC ; CSetItemOption::GetOptionTableIndex
EXTRN	?GetSetOptionName@CSetItemOption@@QAEPADH@Z:PROC ; CSetItemOption::GetSetOptionName
EXTRN	?GetSetOption@CSetItemOption@@QAEHHHAAH000HH@Z:PROC ; CSetItemOption::GetSetOption
EXTRN	?GetMaxSetOptionCount@CSetItemOption@@QAEHH@Z:PROC ; CSetItemOption::GetMaxSetOptionCount
EXTRN	?GetGetFullSetOption@CSetItemOption@@QAEHHAAH000000000HH@Z:PROC ; CSetItemOption::GetGetFullSetOption
EXTRN	?IsRequireClass@CSetItemOption@@QAEHHHH@Z:PROC	; CSetItemOption::IsRequireClass
EXTRN	@__security_check_cookie@4:PROC
EXTRN	?LogAdd@@3P6AXPADZZA:DWORD			; LogAdd
EXTRN	?LogAddC@@3P6AXEPADZZA:DWORD			; LogAddC
EXTRN	?LogAddTD@@3P6AXPADZZA:DWORD			; LogAddTD
EXTRN	?ItemAttribute@@3PAUITEM_ATTRIBUTE@@A:BYTE	; ItemAttribute
EXTRN	?gObj@@3PAVOBJECTSTRUCT@@A:DWORD		; gObj
EXTRN	?g_GlobalConfig@@3VCGlobalConfig@@A:BYTE	; g_GlobalConfig
EXTRN	?Balancer@@3VCBalancer@@A:BYTE			; Balancer
EXTRN	?gAttackSpeedTimeLimit@@3KA:DWORD		; gAttackSpeedTimeLimit
EXTRN	?gDecTimePerAttackSpeed@@3MA:DWORD		; gDecTimePerAttackSpeed
EXTRN	?gMinimumAttackSpeedTime@@3HA:DWORD		; gMinimumAttackSpeedTime
EXTRN	?gDarkSpirit@@3PAVCDarkSpirit@@A:BYTE		; gDarkSpirit
EXTRN	?gSetItemOption@@3VCSetItemOption@@A:BYTE	; gSetItemOption
EXTRN	?DCInfo@@3Vclassdef@@A:BYTE			; DCInfo
EXTRN	___security_cookie:DWORD
EXTRN	__fltused:DWORD
;	COMDAT __xmm@41f00000000000000000000000000000
CONST	SEGMENT
__xmm@41f00000000000000000000000000000 DB 00H, 00H, 00H, 00H, 00H, 00H, 00H
	DB	00H, 00H, 00H, 00H, 00H, 00H, 00H, 0f0H, 'A'
CONST	ENDS
;	COMDAT __real@42c80000
CONST	SEGMENT
__real@42c80000 DD 042c80000r			; 100
CONST	ENDS
;	COMDAT __real@41a00000
CONST	SEGMENT
__real@41a00000 DD 041a00000r			; 20
CONST	ENDS
;	COMDAT __real@3f800000
CONST	SEGMENT
__real@3f800000 DD 03f800000r			; 1
CONST	ENDS
;	COMDAT __real@3d8f5c29
CONST	SEGMENT
__real@3d8f5c29 DD 03d8f5c29r			; 0.07
CONST	ENDS
;	COMDAT __real@3d4ccccd
CONST	SEGMENT
__real@3d4ccccd DD 03d4ccccdr			; 0.05
CONST	ENDS
;	COMDAT __real@3cf5c28f
CONST	SEGMENT
__real@3cf5c28f DD 03cf5c28fr			; 0.03
CONST	ENDS
;	COMDAT __real@00000000
CONST	SEGMENT
__real@00000000 DD 000000000r			; 0
CONST	ENDS
;	COMDAT ??_C@_0CB@FGOPKACO@?$FL?$CFs?$FN?$FL?$CFs?$FN?5?F?$KP?A?$KE?5?D?$LD?$LI?$KP?E?M?5?$LG?$KF?$LM?S?$LM?$LK?5?C?$NP?$LA@
CONST	SEGMENT
??_C@_0CB@FGOPKACO@?$FL?$CFs?$FN?$FL?$CFs?$FN?5?F?$KP?A?$KE?5?D?$LD?$LI?$KP?E?M?5?$LG?$KF?$LM?S?$LM?$LK?5?C?$NP?$LA@ DB '['
	DB	'%s][%s] ', 0c6H, 0afH, 0c1H, 0a4H, ' ', 0c4H, 0b3H, 0b8H, 0afH
	DB	0c5H, 0cdH, ' ', 0b6H, 0a5H, 0bcH, 0d3H, 0bcH, 0baH, ' ', 0c3H
	DB	0dfH, 0b0H, 0a1H, 00H			; `string'
CONST	ENDS
;	COMDAT ??_C@_0CD@CFHCAPOL@?$FL?$CFs?$FN?$FL?$CFs?$FN?5?F?$KP?A?$KE?5?D?$LD?$LI?$KP?E?M?5?$LJ?Y?$LG?w?$LM?S?$LM?$LK?5?C@
CONST	SEGMENT
??_C@_0CD@CFHCAPOL@?$FL?$CFs?$FN?$FL?$CFs?$FN?5?F?$KP?A?$KE?5?D?$LD?$LI?$KP?E?M?5?$LJ?Y?$LG?w?$LM?S?$LM?$LK?5?C@ DB '['
	DB	'%s][%s] ', 0c6H, 0afH, 0c1H, 0a4H, ' ', 0c4H, 0b3H, 0b8H, 0afH
	DB	0c5H, 0cdH, ' ', 0b9H, 0d9H, 0b6H, 0f7H, 0bcH, 0d3H, 0bcH, 0baH
	DB	' ', 0c3H, 0dfH, 0b0H, 0a1H, 00H		; `string'
CONST	ENDS
;	COMDAT ??_C@_0CB@PLNKFHNG@?$FL?$CFs?$FN?$FL?$CFs?$FN?5?F?$KP?A?$KE?5?D?$LD?$LI?$KP?E?M?5?$LJ?$LA?$LM?S?$LM?$LK?5?C?$NP?$LA@
CONST	SEGMENT
??_C@_0CB@PLNKFHNG@?$FL?$CFs?$FN?$FL?$CFs?$FN?5?F?$KP?A?$KE?5?D?$LD?$LI?$KP?E?M?5?$LJ?$LA?$LM?S?$LM?$LK?5?C?$NP?$LA@ DB '['
	DB	'%s][%s] ', 0c6H, 0afH, 0c1H, 0a4H, ' ', 0c4H, 0b3H, 0b8H, 0afH
	DB	0c5H, 0cdH, ' ', 0b9H, 0b0H, 0bcH, 0d3H, 0bcH, 0baH, ' ', 0c3H
	DB	0dfH, 0b0H, 0a1H, 00H			; `string'
CONST	ENDS
;	COMDAT ??_C@_0CB@BGGFNABE@?$FL?$CFs?$FN?$FL?$CFs?$FN?5?F?$KP?A?$KE?5?D?$LD?$LI?$KP?E?M?5?$LF?$LG?$LM?S?$LM?$LK?5?C?$NP?$LA@
CONST	SEGMENT
??_C@_0CB@BGGFNABE@?$FL?$CFs?$FN?$FL?$CFs?$FN?5?F?$KP?A?$KE?5?D?$LD?$LI?$KP?E?M?5?$LF?$LG?$LM?S?$LM?$LK?5?C?$NP?$LA@ DB '['
	DB	'%s][%s] ', 0c6H, 0afH, 0c1H, 0a4H, ' ', 0c4H, 0b3H, 0b8H, 0afH
	DB	0c5H, 0cdH, ' ', 0b5H, 0b6H, 0bcH, 0d3H, 0bcH, 0baH, ' ', 0c3H
	DB	0dfH, 0b0H, 0a1H, 00H			; `string'
CONST	ENDS
;	COMDAT ??_C@_0CD@MCDGFCBG@?$FL?$CFs?$FN?$FL?$CFs?$FN?5?F?$KP?A?$KE?5?D?$LD?$LI?$KP?E?M?5?$LJ?x?$LA?$LD?$LM?S?$LM?$LK?5?C@
CONST	SEGMENT
??_C@_0CD@MCDGFCBG@?$FL?$CFs?$FN?$FL?$CFs?$FN?5?F?$KP?A?$KE?5?D?$LD?$LI?$KP?E?M?5?$LJ?x?$LA?$LD?$LM?S?$LM?$LK?5?C@ DB '['
	DB	'%s][%s] ', 0c6H, 0afH, 0c1H, 0a4H, ' ', 0c4H, 0b3H, 0b8H, 0afH
	DB	0c5H, 0cdH, ' ', 0b9H, 0f8H, 0b0H, 0b3H, 0bcH, 0d3H, 0bcH, 0baH
	DB	' ', 0c3H, 0dfH, 0b0H, 0a1H, 00H		; `string'
CONST	ENDS
;	COMDAT ??_C@_0CD@DGAOONIH@?$FL?$CFs?$FN?$FL?$CFs?$FN?5?F?$KP?A?$KE?5?D?$LD?$LI?$KP?E?M?5?$LO?s?$MA?$LN?$LM?S?$LM?$LK?5?C@
CONST	SEGMENT
??_C@_0CD@DGAOONIH@?$FL?$CFs?$FN?$FL?$CFs?$FN?5?F?$KP?A?$KE?5?D?$LD?$LI?$KP?E?M?5?$LO?s?$MA?$LN?$LM?S?$LM?$LK?5?C@ DB '['
	DB	'%s][%s] ', 0c6H, 0afH, 0c1H, 0a4H, ' ', 0c4H, 0b3H, 0b8H, 0afH
	DB	0c5H, 0cdH, ' ', 0beH, 0f3H, 0c0H, 0bdH, 0bcH, 0d3H, 0bcH, 0baH
	DB	' ', 0c3H, 0dfH, 0b0H, 0a1H, 00H		; `string'
CONST	ENDS
;	COMDAT ??_C@_0CB@IEPMKKNP@?$FL?$CFs?$FN?$FL?$CFs?$FN?5?F?$KP?A?$KE?5?D?$LD?$LI?$KP?E?M?5?$LK?R?$LM?S?$LM?$LK?5?C?$NP?$LA@
CONST	SEGMENT
??_C@_0CB@IEPMKKNP@?$FL?$CFs?$FN?$FL?$CFs?$FN?5?F?$KP?A?$KE?5?D?$LD?$LI?$KP?E?M?5?$LK?R?$LM?S?$LM?$LK?5?C?$NP?$LA@ DB '['
	DB	'%s][%s] ', 0c6H, 0afH, 0c1H, 0a4H, ' ', 0c4H, 0b3H, 0b8H, 0afH
	DB	0c5H, 0cdH, ' ', 0baH, 0d2H, 0bcH, 0d3H, 0bcH, 0baH, ' ', 0c3H
	DB	0dfH, 0b0H, 0a1H, 00H			; `string'
CONST	ENDS
;	COMDAT ??_C@_0CM@HHMOKMC@?$FL?$CFs?$FN?$FL?$CFs?$FN?5?F?$KP?A?$KE?5?D?$LD?$LI?$KP?E?M?5?$LJ?f?$LO?n?$LH?B?5?A?u?$LA@
CONST	SEGMENT
??_C@_0CM@HHMOKMC@?$FL?$CFs?$FN?$FL?$CFs?$FN?5?F?$KP?A?$KE?5?D?$LD?$LI?$KP?E?M?5?$LJ?f?$LO?n?$LH?B?5?A?u?$LA@ DB '['
	DB	'%s][%s] ', 0c6H, 0afH, 0c1H, 0a4H, ' ', 0c4H, 0b3H, 0b8H, 0afH
	DB	0c5H, 0cdH, ' ', 0b9H, 0e6H, 0beH, 0eeH, 0b7H, 0c2H, ' ', 0c1H
	DB	0f5H, 0b0H, 0a1H, ' ', 0c3H, 0bcH, 0b7H, 0c2H, '/%d %d', 00H ; `string'
CONST	ENDS
;	COMDAT ??_C@_0CM@MGOKEJHP@?$FL?$CFs?$FN?$FL?$CFs?$FN?5?F?$KP?A?$KE?5?D?$LD?$LI?$KP?E?M?5?$LJ?f?$LO?n?$LH?B?5?A?u?$LA@
CONST	SEGMENT
??_C@_0CM@MGOKEJHP@?$FL?$CFs?$FN?$FL?$CFs?$FN?5?F?$KP?A?$KE?5?D?$LD?$LI?$KP?E?M?5?$LJ?f?$LO?n?$LH?B?5?A?u?$LA@ DB '['
	DB	'%s][%s] ', 0c6H, 0afH, 0c1H, 0a4H, ' ', 0c4H, 0b3H, 0b8H, 0afH
	DB	0c5H, 0cdH, ' ', 0b9H, 0e6H, 0beH, 0eeH, 0b7H, 0c2H, ' ', 0c1H
	DB	0f5H, 0b0H, 0a1H, ' ', 0b7H, 0b9H, 0baH, 0a7H, '/%d %d', 00H ; `string'
CONST	ENDS
;	COMDAT ??_C@_0CM@DGIFJEA@?$FL?$CFs?$FN?$FL?$CFs?$FN?5?F?$KP?A?$KE?5?D?$LD?$LI?$KP?E?M?5?$LI?$LG?$LH?B?5?A?u?$LA?$KB?5@
CONST	SEGMENT
??_C@_0CM@DGIFJEA@?$FL?$CFs?$FN?$FL?$CFs?$FN?5?F?$KP?A?$KE?5?D?$LD?$LI?$KP?E?M?5?$LI?$LG?$LH?B?5?A?u?$LA?$KB?5@ DB '['
	DB	'%s][%s] ', 0c6H, 0afH, 0c1H, 0a4H, ' ', 0c4H, 0b3H, 0b8H, 0afH
	DB	0c5H, 0cdH, ' ', 0b8H, 0b6H, 0b7H, 0c2H, ' ', 0c1H, 0f5H, 0b0H
	DB	0a1H, ' ', 0bfH, 0a1H, 0b3H, 0caH, 0c1H, 0f6H, '/%d %d', 00H ; `string'
CONST	ENDS
;	COMDAT ??_C@_0CK@KBAHHLFK@?$FL?$CFs?$FN?$FL?$CFs?$FN?5?F?$KP?A?$KE?5?D?$LD?$LI?$KP?E?M?5?$LA?x?$LA?$NN?$LH?B?5?A?u?$LA@
CONST	SEGMENT
??_C@_0CK@KBAHHLFK@?$FL?$CFs?$FN?$FL?$CFs?$FN?5?F?$KP?A?$KE?5?D?$LD?$LI?$KP?E?M?5?$LA?x?$LA?$NN?$LH?B?5?A?u?$LA@ DB '['
	DB	'%s][%s] ', 0c6H, 0afH, 0c1H, 0a4H, ' ', 0c4H, 0b3H, 0b8H, 0afH
	DB	0c5H, 0cdH, ' ', 0b0H, 0f8H, 0b0H, 0ddH, 0b7H, 0c2H, ' ', 0c1H
	DB	0f5H, 0b0H, 0a1H, ' ', 0c8H, 0fbH, '/%d %d', 00H ; `string'
CONST	ENDS
;	COMDAT ??_C@_0CO@GCGKCCGG@?$FL?$CFs?$FN?$FL?$CFs?$FN?5?F?$KP?A?$KE?5?D?$LD?$LI?$KP?E?M?5?$LA?x?$LA?$NN?$LH?B?5?A?u?$LA@
CONST	SEGMENT
??_C@_0CO@GCGKCCGG@?$FL?$CFs?$FN?$FL?$CFs?$FN?5?F?$KP?A?$KE?5?D?$LD?$LI?$KP?E?M?5?$LA?x?$LA?$NN?$LH?B?5?A?u?$LA@ DB '['
	DB	'%s][%s] ', 0c6H, 0afH, 0c1H, 0a4H, ' ', 0c4H, 0b3H, 0b8H, 0afH
	DB	0c5H, 0cdH, ' ', 0b0H, 0f8H, 0b0H, 0ddH, 0b7H, 0c2H, ' ', 0c1H
	DB	0f5H, 0b0H, 0a1H, ' ', 0b9H, 0ceH, 0c3H, 0b8H, 0bcH, 0baH, '/%'
	DB	'd %d', 00H					; `string'
CONST	ENDS
;	COMDAT ??_C@_0BP@HNFEPEOH@?$FL?$CFs?$FN?$FL?$CFs?$FN?5?$LN?$LK?E?$LD?5?$LA?x?$LA?$NN?$LH?B?5?$CFd?A?u?$LA?$KB?5?$CFd@
CONST	SEGMENT
??_C@_0BP@HNFEPEOH@?$FL?$CFs?$FN?$FL?$CFs?$FN?5?$LN?$LK?E?$LD?5?$LA?x?$LA?$NN?$LH?B?5?$CFd?A?u?$LA?$KB?5?$CFd@ DB '['
	DB	'%s][%s] ', 0bdH, 0baH, 0c5H, 0b3H, ' ', 0b0H, 0f8H, 0b0H, 0ddH
	DB	0b7H, 0c2H, ' %d', 0c1H, 0f5H, 0b0H, 0a1H, ' %d', 00H ; `string'
CONST	ENDS
;	COMDAT ??_C@_0CI@DGDJGPK@?$FL?$CFs?$FN?$FL?$CFs?$FN?5?$LP?$KC?$LM?$LD?$LH?$LB?F?$KO?5?$LF?$KF?$LJ?L?A?v?5?H?$KO?$LH?$PM?5?$CF@
CONST	SEGMENT
??_C@_0CI@DGDJGPK@?$FL?$CFs?$FN?$FL?$CFs?$FN?5?$LP?$KC?$LM?$LD?$LH?$LB?F?$KO?5?$LF?$KF?$LJ?L?A?v?5?H?$KO?$LH?$PM?5?$CF@ DB '['
	DB	'%s][%s] ', 0bfH, 0a2H, 0bcH, 0b3H, 0b7H, 0b1H, 0c6H, 0aeH, ' '
	DB	0b5H, 0a5H, 0b9H, 0ccH, 0c1H, 0f6H, ' ', 0c8H, 0aeH, 0b7H, 0fcH
	DB	' %d', 0c1H, 0f5H, 0b0H, 0a1H, ' %d', 00H	; `string'
CONST	ENDS
;	COMDAT ??_C@_0CD@MHJKHGBJ@?$FL?$CFs?$FN?$FL?$CFs?$FN?5?$LP?$KC?$LM?$LD?$LH?$LB?F?$KO?5?$LF?$KF?$LJ?L?A?v?5?$CFd?A?u?$LA?$KB@
CONST	SEGMENT
??_C@_0CD@MHJKHGBJ@?$FL?$CFs?$FN?$FL?$CFs?$FN?5?$LP?$KC?$LM?$LD?$LH?$LB?F?$KO?5?$LF?$KF?$LJ?L?A?v?5?$CFd?A?u?$LA?$KB@ DB '['
	DB	'%s][%s] ', 0bfH, 0a2H, 0bcH, 0b3H, 0b7H, 0b1H, 0c6H, 0aeH, ' '
	DB	0b5H, 0a5H, 0b9H, 0ccH, 0c1H, 0f6H, ' %d', 0c1H, 0f5H, 0b0H, 0a1H
	DB	' %d', 00H					; `string'
CONST	ENDS
;	COMDAT ??_C@_0CI@HBACHEPA@?$FL?$CFs?$FN?$FL?$CFs?$FN?5?E?$KJ?$LI?$KO?F?$LM?D?C?5?$LF?$KF?$LJ?L?A?v?5?H?$KO?$LH?$PM?5?$CF@
CONST	SEGMENT
??_C@_0CI@HBACHEPA@?$FL?$CFs?$FN?$FL?$CFs?$FN?5?E?$KJ?$LI?$KO?F?$LM?D?C?5?$LF?$KF?$LJ?L?A?v?5?H?$KO?$LH?$PM?5?$CF@ DB '['
	DB	'%s][%s] ', 0c5H, 0a9H, 0b8H, 0aeH, 0c6H, 0bcH, 0c4H, 0c3H, ' '
	DB	0b5H, 0a5H, 0b9H, 0ccH, 0c1H, 0f6H, ' ', 0c8H, 0aeH, 0b7H, 0fcH
	DB	' %d', 0c1H, 0f5H, 0b0H, 0a1H, ' %d', 00H	; `string'
CONST	ENDS
;	COMDAT ??_C@_0CD@EOBGMEOP@?$FL?$CFs?$FN?$FL?$CFs?$FN?5?E?$KJ?$LI?$KO?F?$LM?D?C?5?$LF?$KF?$LJ?L?A?v?5?$CFd?A?u?$LA?$KB@
CONST	SEGMENT
??_C@_0CD@EOBGMEOP@?$FL?$CFs?$FN?$FL?$CFs?$FN?5?E?$KJ?$LI?$KO?F?$LM?D?C?5?$LF?$KF?$LJ?L?A?v?5?$CFd?A?u?$LA?$KB@ DB '['
	DB	'%s][%s] ', 0c5H, 0a9H, 0b8H, 0aeH, 0c6H, 0bcH, 0c4H, 0c3H, ' '
	DB	0b5H, 0a5H, 0b9H, 0ccH, 0c1H, 0f6H, ' %d', 0c1H, 0f5H, 0b0H, 0a1H
	DB	' %d', 00H					; `string'
CONST	ENDS
;	COMDAT ??_C@_0BN@KMNLDLFB@?$FL?$CFs?$FN?$FL?$CFs?$FN?5AG?A?u?$LA?$KB?$LH?$KO?5?$CFd?5?A?u?$LA?$KB?5?$CFd@
CONST	SEGMENT
??_C@_0BN@KMNLDLFB@?$FL?$CFs?$FN?$FL?$CFs?$FN?5AG?A?u?$LA?$KB?$LH?$KO?5?$CFd?5?A?u?$LA?$KB?5?$CFd@ DB '['
	DB	'%s][%s] AG', 0c1H, 0f5H, 0b0H, 0a1H, 0b7H, 0aeH, ' %d ', 0c1H
	DB	0f5H, 0b0H, 0a1H, ' %d', 00H			; `string'
CONST	ENDS
;	COMDAT ??_C@_0CC@FJOADNPF@?$FL?$CFs?$FN?$FL?$CFs?$FN?5?C?V?$LE?k?5AG?5?$CFd?F?$NL?$LM?$LO?F?$KO?5?A?u?$LA?$KB?5@
CONST	SEGMENT
??_C@_0CC@FJOADNPF@?$FL?$CFs?$FN?$FL?$CFs?$FN?5?C?V?$LE?k?5AG?5?$CFd?F?$NL?$LM?$LO?F?$KO?5?A?u?$LA?$KB?5@ DB '['
	DB	'%s][%s] ', 0c3H, 0d6H, 0b4H, 0ebH, ' AG %d', 0c6H, 0dbH, 0bcH
	DB	0beH, 0c6H, 0aeH, ' ', 0c1H, 0f5H, 0b0H, 0a1H, ' %d', 00H ; `string'
CONST	ENDS
;	COMDAT ??_C@_0BP@OPBNCLKG@?$FL?$CFs?$FN?$FL?$CFs?$FN?5?C?V?$LE?k?5?$LI?$LG?$LD?$KK?5?A?u?$LA?$KB?5?$CL?$CFd?5?$CFd@
CONST	SEGMENT
??_C@_0BP@OPBNCLKG@?$FL?$CFs?$FN?$FL?$CFs?$FN?5?C?V?$LE?k?5?$LI?$LG?$LD?$KK?5?A?u?$LA?$KB?5?$CL?$CFd?5?$CFd@ DB '['
	DB	'%s][%s] ', 0c3H, 0d6H, 0b4H, 0ebH, ' ', 0b8H, 0b6H, 0b3H, 0aaH
	DB	' ', 0c1H, 0f5H, 0b0H, 0a1H, ' +%d %d', 00H	; `string'
CONST	ENDS
;	COMDAT ??_C@_0CB@COGOBJDJ@?$FL?$CFs?$FN?$FL?$CFs?$FN?5?C?V?$LE?k?5?$LL?$PN?$LI?m?$LH?B?5?A?u?$LA?$KB?5?$CL?$CFd?5?$CF@
CONST	SEGMENT
??_C@_0CB@COGOBJDJ@?$FL?$CFs?$FN?$FL?$CFs?$FN?5?C?V?$LE?k?5?$LL?$PN?$LI?m?$LH?B?5?A?u?$LA?$KB?5?$CL?$CFd?5?$CF@ DB '['
	DB	'%s][%s] ', 0c3H, 0d6H, 0b4H, 0ebH, ' ', 0bbH, 0fdH, 0b8H, 0edH
	DB	0b7H, 0c2H, ' ', 0c1H, 0f5H, 0b0H, 0a1H, ' +%d %d', 00H ; `string'
CONST	ENDS
;	COMDAT ??_C@_0CE@FMDHIPCH@?$FL?$CFs?$FN?$FL?$CFs?$FN?5?$MA?$PL?5?$LJ?f?$LO?n?$LH?B?5?$LJ?$KL?$LN?C?5?$CFd?F?$NL?$LM?$LO?F@
CONST	SEGMENT
??_C@_0CE@FMDHIPCH@?$FL?$CFs?$FN?$FL?$CFs?$FN?5?$MA?$PL?5?$LJ?f?$LO?n?$LH?B?5?$LJ?$KL?$LN?C?5?$CFd?F?$NL?$LM?$LO?F@ DB '['
	DB	'%s][%s] ', 0c0H, 0fbH, ' ', 0b9H, 0e6H, 0beH, 0eeH, 0b7H, 0c2H
	DB	' ', 0b9H, 0abH, 0bdH, 0c3H, ' %d', 0c6H, 0dbH, 0bcH, 0beH, 0c6H
	DB	0aeH, ' %d', 00H				; `string'
CONST	ENDS
;	COMDAT ??_C@_0BL@FEKHKAGB@?$FL?$CFs?$FN?$FL?$CFs?$FN?5?$LJ?f?$LO?n?$LH?B?5?A?u?$LA?$KB?5?$CFd?5?$CFd@
CONST	SEGMENT
??_C@_0BL@FEKHKAGB@?$FL?$CFs?$FN?$FL?$CFs?$FN?5?$LJ?f?$LO?n?$LH?B?5?A?u?$LA?$KB?5?$CFd?5?$CFd@ DB '['
	DB	'%s][%s] ', 0b9H, 0e6H, 0beH, 0eeH, 0b7H, 0c2H, ' ', 0c1H, 0f5H
	DB	0b0H, 0a1H, ' %d %d', 00H			; `string'
CONST	ENDS
;	COMDAT ??_C@_0BL@DCNPIBGF@?$FL?$CFs?$FN?$FL?$CFs?$FN?5?$LA?x?$LA?$NN?$MA?$LC?5?A?u?$LA?$KB?5?$CFd?5?$CFd@
CONST	SEGMENT
??_C@_0BL@DCNPIBGF@?$FL?$CFs?$FN?$FL?$CFs?$FN?5?$LA?x?$LA?$NN?$MA?$LC?5?A?u?$LA?$KB?5?$CFd?5?$CFd@ DB '['
	DB	'%s][%s] ', 0b0H, 0f8H, 0b0H, 0ddH, 0c0H, 0b2H, ' ', 0c1H, 0f5H
	DB	0b0H, 0a1H, ' %d %d', 00H			; `string'
CONST	ENDS
;	COMDAT ??_C@_0BL@EOFFOPCL@?$FL?$CFs?$FN?$FL?$CFs?$FN?5?$LF?$KF?$LJ?L?A?v?5?A?u?$LA?$KB?5?$CFd?5?$CFd@
CONST	SEGMENT
??_C@_0BL@EOFFOPCL@?$FL?$CFs?$FN?$FL?$CFs?$FN?5?$LF?$KF?$LJ?L?A?v?5?A?u?$LA?$KB?5?$CFd?5?$CFd@ DB '['
	DB	'%s][%s] ', 0b5H, 0a5H, 0b9H, 0ccH, 0c1H, 0f6H, ' ', 0c1H, 0f5H
	DB	0b0H, 0a1H, ' %d %d', 00H			; `string'
CONST	ENDS
;	COMDAT ??_C@_0BJ@NMLHNOEN@?$FL?$CFs?$FN?$FL?$CFs?$FN?5?$LI?$LG?$LH?B?5?A?u?$LA?$KB?5?$CFd?5?$CFd@
CONST	SEGMENT
??_C@_0BJ@NMLHNOEN@?$FL?$CFs?$FN?$FL?$CFs?$FN?5?$LI?$LG?$LH?B?5?A?u?$LA?$KB?5?$CFd?5?$CFd@ DB '['
	DB	'%s][%s] ', 0b8H, 0b6H, 0b7H, 0c2H, ' ', 0c1H, 0f5H, 0b0H, 0a1H
	DB	' %d %d', 00H				; `string'
CONST	ENDS
;	COMDAT ??_C@_0CB@ILNDFIJD@?$FL?$CFs?$FN?$FL?$CFs?$FN?5?C?V?$LE?k?5?$LA?x?$LA?$NN?$LH?B?5?A?u?$LA?$KB?5?$CFd?0?5?$CF@
CONST	SEGMENT
??_C@_0CB@ILNDFIJD@?$FL?$CFs?$FN?$FL?$CFs?$FN?5?C?V?$LE?k?5?$LA?x?$LA?$NN?$LH?B?5?A?u?$LA?$KB?5?$CFd?0?5?$CF@ DB '['
	DB	'%s][%s] ', 0c3H, 0d6H, 0b4H, 0ebH, ' ', 0b0H, 0f8H, 0b0H, 0ddH
	DB	0b7H, 0c2H, ' ', 0c1H, 0f5H, 0b0H, 0a1H, ' %d, %d', 00H ; `string'
CONST	ENDS
;	COMDAT ??_C@_0CB@FEJEMDEP@?$FL?$CFs?$FN?$FL?$CFs?$FN?5?C?V?$LM?R?5?$LA?x?$LA?$NN?$LH?B?5?A?u?$LA?$KB?5?$CFd?0?5?$CF@
CONST	SEGMENT
??_C@_0CB@FEJEMDEP@?$FL?$CFs?$FN?$FL?$CFs?$FN?5?C?V?$LM?R?5?$LA?x?$LA?$NN?$LH?B?5?A?u?$LA?$KB?5?$CFd?0?5?$CF@ DB '['
	DB	'%s][%s] ', 0c3H, 0d6H, 0bcH, 0d2H, ' ', 0b0H, 0f8H, 0b0H, 0ddH
	DB	0b7H, 0c2H, ' ', 0c1H, 0f5H, 0b0H, 0a1H, ' %d, %d', 00H ; `string'
CONST	ENDS
;	COMDAT ??_C@_0CP@IMHJNPOL@?$FL?$CFs?$FN?$FL?$CFs?$FN?5?$LO?g?$LM?U?$LA?K?5?$MA?e?$LK?q?$LN?C?5?$LF?$KF?$LJ?L?A?v?5?$CF@
CONST	SEGMENT
??_C@_0CP@IMHJNPOL@?$FL?$CFs?$FN?$FL?$CFs?$FN?5?$LO?g?$LM?U?$LA?K?5?$MA?e?$LK?q?$LN?C?5?$LF?$KF?$LJ?L?A?v?5?$CF@ DB '['
	DB	'%s][%s] ', 0beH, 0e7H, 0bcH, 0d5H, 0b0H, 0cbH, ' ', 0c0H, 0e5H
	DB	0baH, 0f1H, 0bdH, 0c3H, ' ', 0b5H, 0a5H, 0b9H, 0ccH, 0c1H, 0f6H
	DB	' %d', 0c6H, 0dbH, 0bcH, 0beH, 0c6H, 0aeH, ' ', 0c1H, 0f5H, 0b0H
	DB	0a1H, ' %d', 00H				; `string'
CONST	ENDS
;	COMDAT ??_C@_0CN@JHAFMLFE@?$FL?$CFs?$FN?$FL?$CFs?$FN?5?$LJ?f?F?P?5?$MA?e?$LK?q?$LN?C?5?$LJ?f?$LO?n?$LH?B?5?$CFd?F@
CONST	SEGMENT
??_C@_0CN@JHAFMLFE@?$FL?$CFs?$FN?$FL?$CFs?$FN?5?$LJ?f?F?P?5?$MA?e?$LK?q?$LN?C?5?$LJ?f?$LO?n?$LH?B?5?$CFd?F@ DB '['
	DB	'%s][%s] ', 0b9H, 0e6H, 0c6H, 0d0H, ' ', 0c0H, 0e5H, 0baH, 0f1H
	DB	0bdH, 0c3H, ' ', 0b9H, 0e6H, 0beH, 0eeH, 0b7H, 0c2H, ' %d', 0c6H
	DB	0dbH, 0bcH, 0beH, 0c6H, 0aeH, ' ', 0c1H, 0f5H, 0b0H, 0a1H, ' %'
	DB	'd', 00H					; `string'
CONST	ENDS
;	COMDAT ??_C@_0CG@JAHDGEMD@?$FL?$CFs?$FN?$FL?$CFs?$FN?5?$LE?u?$LK?m?5?$LF?$KF?$LJ?L?A?v?5?H?$KO?$LH?$PM?5?$CFd?F?$NL?$LM@
CONST	SEGMENT
??_C@_0CG@JAHDGEMD@?$FL?$CFs?$FN?$FL?$CFs?$FN?5?$LE?u?$LK?m?5?$LF?$KF?$LJ?L?A?v?5?H?$KO?$LH?$PM?5?$CFd?F?$NL?$LM@ DB '['
	DB	'%s][%s] ', 0b4H, 0f5H, 0baH, 0edH, ' ', 0b5H, 0a5H, 0b9H, 0ccH
	DB	0c1H, 0f6H, ' ', 0c8H, 0aeH, 0b7H, 0fcH, ' %d', 0c6H, 0dbH, 0bcH
	DB	0beH, 0c6H, 0aeH, ' %d', 00H			; `string'
CONST	ENDS
;	COMDAT ??_C@_0BK@GABNJNFN@?$FL?$CFs?$FN?$FL?$CFs?$FN?5?E?k?$LM?V?5?A?u?$LA?$KB?5?$CL?$CFd?5?$CFd@
CONST	SEGMENT
??_C@_0BK@GABNJNFN@?$FL?$CFs?$FN?$FL?$CFs?$FN?5?E?k?$LM?V?5?A?u?$LA?$KB?5?$CL?$CFd?5?$CFd@ DB '['
	DB	'%s][%s] ', 0c5H, 0ebH, 0bcH, 0d6H, ' ', 0c1H, 0f5H, 0b0H, 0a1H
	DB	' +%d %d', 00H				; `string'
CONST	ENDS
;	COMDAT ??_C@_0BK@FDGDAPMN@?$FL?$CFs?$FN?$FL?$CFs?$FN?5?C?$LM?$LH?B?5?A?u?$LA?$KB?5?$CL?$CFd?5?$CFd@
CONST	SEGMENT
??_C@_0BK@FDGDAPMN@?$FL?$CFs?$FN?$FL?$CFs?$FN?5?C?$LM?$LH?B?5?A?u?$LA?$KB?5?$CL?$CFd?5?$CFd@ DB '['
	DB	'%s][%s] ', 0c3H, 0bcH, 0b7H, 0c2H, ' ', 0c1H, 0f5H, 0b0H, 0a1H
	DB	' +%d %d', 00H				; `string'
CONST	ENDS
;	COMDAT ??_C@_0BM@MFKNDDBL@?$FL?$CFs?$FN?$FL?$CFs?$FN?5?$LP?$KB?$LD?J?A?v?5?A?u?$LA?$KB?5?$CL?$CFd?5?$CFd@
CONST	SEGMENT
??_C@_0BM@MFKNDDBL@?$FL?$CFs?$FN?$FL?$CFs?$FN?5?$LP?$KB?$LD?J?A?v?5?A?u?$LA?$KB?5?$CL?$CFd?5?$CFd@ DB '['
	DB	'%s][%s] ', 0bfH, 0a1H, 0b3H, 0caH, 0c1H, 0f6H, ' ', 0c1H, 0f5H
	DB	0b0H, 0a1H, ' +%d %d', 00H			; `string'
CONST	ENDS
;	COMDAT ??_C@_0BM@OEKJMCEF@?$FL?$CFs?$FN?$FL?$CFs?$FN?5?$LJ?N?C?$LI?$LM?$LK?5?A?u?$LA?$KB?5?$CL?$CFd?5?$CFd@
CONST	SEGMENT
??_C@_0BM@OEKJMCEF@?$FL?$CFs?$FN?$FL?$CFs?$FN?5?$LJ?N?C?$LI?$LM?$LK?5?A?u?$LA?$KB?5?$CL?$CFd?5?$CFd@ DB '['
	DB	'%s][%s] ', 0b9H, 0ceH, 0c3H, 0b8H, 0bcH, 0baH, ' ', 0c1H, 0f5H
	DB	0b0H, 0a1H, ' +%d %d', 00H			; `string'
CONST	ENDS
;	COMDAT ??_C@_0BH@ONKKHHJG@?$FL?$CFs?$FN?$FL?$CFs?$FN?5?H?$PL?A?u?$LA?$KB?5?$CL?$CFd?5?$CFd@
CONST	SEGMENT
??_C@_0BH@ONKKHHJG@?$FL?$CFs?$FN?$FL?$CFs?$FN?5?H?$PL?A?u?$LA?$KB?5?$CL?$CFd?5?$CFd@ DB '['
	DB	'%s][%s] ', 0c8H, 0fbH, 0c1H, 0f5H, 0b0H, 0a1H, ' +%d %d', 00H ; `string'
CONST	ENDS
;	COMDAT ??_C@_0M@CMDBHBEK@?G?$KO?$LP?I?$LM?G?5?$MA?$PL?$LP?k@
CONST	SEGMENT
??_C@_0M@CMDBHBEK@?G?$KO?$LP?I?$LM?G?5?$MA?$PL?$LP?k@ DB 0c7H, 0aeH, 0bfH
	DB	0c9H, 0bcH, 0c7H, ' ', 0c0H, 0fbH, 0bfH, 0ebH, 00H ; `string'
CONST	ENDS
;	COMDAT ??_C@_0BK@POCCBAFD@?$FL?$CFs?$FN?$FL?$CFs?$FN?5?$LM?$LM?F?$KO?5?$CFs?$LP?I?$LM?G?5?$MA?$PL?$LP?k@
CONST	SEGMENT
??_C@_0BK@POCCBAFD@?$FL?$CFs?$FN?$FL?$CFs?$FN?5?$LM?$LM?F?$KO?5?$CFs?$LP?I?$LM?G?5?$MA?$PL?$LP?k@ DB '['
	DB	'%s][%s] ', 0bcH, 0bcH, 0c6H, 0aeH, ' %s', 0bfH, 0c9H, 0bcH, 0c7H
	DB	' ', 0c0H, 0fbH, 0bfH, 0ebH, 00H		; `string'
CONST	ENDS
;	COMDAT ??_C@_0BL@LIIMDDCM@?$LP?I?$LM?G?5?C?$KD?$LO?R?$LE?Y?5?$CFs?0?5Count?5?$DN?5?$CFd@
CONST	SEGMENT
??_C@_0BL@LIIMDDCM@?$LP?I?$LM?G?5?C?$KD?$LO?R?$LE?Y?5?$CFs?0?5Count?5?$DN?5?$CFd@ DB 0bfH
	DB	0c9H, 0bcH, 0c7H, ' ', 0c3H, 0a3H, 0beH, 0d2H, 0b4H, 0d9H, ' %'
	DB	's, Count = %d', 00H				; `string'
CONST	ENDS
;	COMDAT ??_C@_0CG@HNELGANH@?$LJ?$NN?A?v?$LP?$KB?5?$LA?$LA?$MA?$LK?5?$LM?$LM?F?$KO?$LA?$KB?5?$MA?$PL?$LP?k?$LF?G?$LO?z?$LE?Y?5?$LJ@
CONST	SEGMENT
??_C@_0CG@HNELGANH@?$LJ?$NN?A?v?$LP?$KB?5?$LA?$LA?$MA?$LK?5?$LM?$LM?F?$KO?$LA?$KB?5?$MA?$PL?$LP?k?$LF?G?$LO?z?$LE?Y?5?$LJ@ DB 0b9H
	DB	0ddH, 0c1H, 0f6H, 0bfH, 0a1H, ' ', 0b0H, 0b0H, 0c0H, 0baH, ' ', 0bcH
	DB	0bcH, 0c6H, 0aeH, 0b0H, 0a1H, ' ', 0c0H, 0fbH, 0bfH, 0ebH, 0b5H
	DB	0c7H, 0beH, 0faH, 0b4H, 0d9H, ' ', 0b9H, 0abH, 0bdH, 0c3H, '..'
	DB	'.', 00H					; `string'
CONST	ENDS
;	COMDAT ??_C@_0CG@MJJCFDMJ@?$LO?g?$LM?U?$LP?$KB?5?$LA?$LA?$MA?$LK?5?$LM?$LM?F?$KO?$LA?$KB?5?$MA?$PL?$LP?k?$LF?G?$LO?z?$LE?Y?5?$LJ@
CONST	SEGMENT
??_C@_0CG@MJJCFDMJ@?$LO?g?$LM?U?$LP?$KB?5?$LA?$LA?$MA?$LK?5?$LM?$LM?F?$KO?$LA?$KB?5?$MA?$PL?$LP?k?$LF?G?$LO?z?$LE?Y?5?$LJ@ DB 0beH
	DB	0e7H, 0bcH, 0d5H, 0bfH, 0a1H, ' ', 0b0H, 0b0H, 0c0H, 0baH, ' ', 0bcH
	DB	0bcH, 0c6H, 0aeH, 0b0H, 0a1H, ' ', 0c0H, 0fbH, 0bfH, 0ebH, 0b5H
	DB	0c7H, 0beH, 0faH, 0b4H, 0d9H, ' ', 0b9H, 0abH, 0bdH, 0c3H, '..'
	DB	'.', 00H					; `string'
CONST	ENDS
; Function compile flags: /Odtp /ZI
; File C:\Mu Online\Mu-GS-Webzen-MC-10093\GameServer\ObjCalCharacter.cpp
;	COMDAT ?gObjValidItem@@YAHPAVOBJECTSTRUCT@@PAVCItem@@H@Z
_TEXT	SEGMENT
_p$ = -4						; size = 4
_lpObj$ = 8						; size = 4
_lpItem$ = 12						; size = 4
_pos$ = 16						; size = 4
?gObjValidItem@@YAHPAVOBJECTSTRUCT@@PAVCItem@@H@Z PROC	; gObjValidItem, COMDAT

; 2805 : {	

  00000	55		 push	 ebp
  00001	8b ec		 mov	 ebp, esp
  00003	83 ec 44	 sub	 esp, 68			; 00000044H
  00006	53		 push	 ebx
  00007	56		 push	 esi
  00008	57		 push	 edi

; 2806 : 	if(g_GlobalConfig.m_bCheckItem == false)

  00009	83 3d 08 00 00
	00 00		 cmp	 DWORD PTR ?g_GlobalConfig@@3VCGlobalConfig@@A+8, 0
  00010	75 0a		 jne	 SHORT $LN2@gObjValidI

; 2807 : 		return TRUE;

  00012	b8 01 00 00 00	 mov	 eax, 1
  00017	e9 7e 01 00 00	 jmp	 $LN1@gObjValidI
$LN2@gObjValidI:

; 2808 : 
; 2809 : 	// 검부터 부츠까지는 힘과 민첩만 체크한다.
; 2810 : 	// 능력치 체크
; 2811 : 	ITEM_ATTRIBUTE *p = &ItemAttribute[lpItem->m_Type];	

  0001c	8b 45 0c	 mov	 eax, DWORD PTR _lpItem$[ebp]
  0001f	0f bf 48 06	 movsx	 ecx, WORD PTR [eax+6]
  00023	6b d1 6c	 imul	 edx, ecx, 108
  00026	81 c2 00 00 00
	00		 add	 edx, OFFSET ?ItemAttribute@@3PAUITEM_ATTRIBUTE@@A ; ItemAttribute
  0002c	89 55 fc	 mov	 DWORD PTR _p$[ebp], edx

; 2812 : 	if(p->RequireStrength)

  0002f	8b 45 fc	 mov	 eax, DWORD PTR _p$[ebp]
  00032	0f b7 48 34	 movzx	 ecx, WORD PTR [eax+52]
  00036	85 c9		 test	 ecx, ecx
  00038	74 28		 je	 SHORT $LN3@gObjValidI

; 2813 : 	{
; 2814 : #ifdef MODIFY_SETITEM_BUGFIX_20080731
; 2815 : 		short nAddStrength = GetItemAddAbility(lpObj, lpItem, AT_SET_OPTION_IMPROVE_STRENGTH, lpSetItemInfo);
; 2816 : 		if( (lpObj->Strength+lpObj->AddStrength - nAddStrength) < lpItem->m_RequireStrength - lpItem->m_HJOpStrength ) 
; 2817 : 			return FALSE;
; 2818 : #else
; 2819 : 	#ifdef ADD_JEWEL_OF_HARMONY_SYSTEM_20060530
; 2820 : 		if( lpObj->Strength+lpObj->AddStrength < lpItem->m_RequireStrength - lpItem->m_HJOpStrength ) 
; 2821 : 			return FALSE;
; 2822 : 	#else
; 2823 : 		if( lpObj->Strength+lpObj->AddStrength < lpItem->m_RequireStrength ) 

  0003a	8b 45 08	 mov	 eax, DWORD PTR _lpObj$[ebp]
  0003d	0f b7 88 b4 00
	00 00		 movzx	 ecx, WORD PTR [eax+180]
  00044	8b 55 08	 mov	 edx, DWORD PTR _lpObj$[ebp]
  00047	0f b7 82 e0 00
	00 00		 movzx	 eax, WORD PTR [edx+224]
  0004e	03 c8		 add	 ecx, eax
  00050	8b 55 0c	 mov	 edx, DWORD PTR _lpItem$[ebp]
  00053	0f b7 42 42	 movzx	 eax, WORD PTR [edx+66]
  00057	3b c8		 cmp	 ecx, eax
  00059	7d 07		 jge	 SHORT $LN3@gObjValidI

; 2824 : 			return FALSE;

  0005b	33 c0		 xor	 eax, eax
  0005d	e9 38 01 00 00	 jmp	 $LN1@gObjValidI
$LN3@gObjValidI:

; 2825 : 	#endif // ADD_JEWEL_OF_HARMONY_SYSTEM_20060530
; 2826 : #endif // MODIFY_SETITEM_BUGFIX_20080731
; 2827 : 	}
; 2828 : 	
; 2829 : 	if(p->RequireDexterity)

  00062	8b 45 fc	 mov	 eax, DWORD PTR _p$[ebp]
  00065	0f b7 48 36	 movzx	 ecx, WORD PTR [eax+54]
  00069	85 c9		 test	 ecx, ecx
  0006b	74 28		 je	 SHORT $LN5@gObjValidI

; 2830 : 	{
; 2831 : #ifdef MODIFY_SETITEM_BUGFIX_20080731
; 2832 : 		short nAddDexterity = GetItemAddAbility(lpObj, lpItem, AT_SET_OPTION_IMPROVE_DEXTERITY, lpSetItemInfo);
; 2833 : 		if( (lpObj->Dexterity+lpObj->AddDexterity - nAddDexterity) < lpItem->m_RequireDexterity - lpItem->m_HJOpDexterity ) 
; 2834 : 			return FALSE;
; 2835 : #else
; 2836 : 	#ifdef ADD_JEWEL_OF_HARMONY_SYSTEM_20060530
; 2837 : 		if( lpObj->Dexterity+lpObj->AddDexterity < lpItem->m_RequireDexterity - lpItem->m_HJOpDexterity ) 
; 2838 : 			return FALSE;
; 2839 : 	#else
; 2840 : 		if( lpObj->Dexterity+lpObj->AddDexterity < lpItem->m_RequireDexterity) 

  0006d	8b 45 08	 mov	 eax, DWORD PTR _lpObj$[ebp]
  00070	0f b7 88 b6 00
	00 00		 movzx	 ecx, WORD PTR [eax+182]
  00077	8b 55 08	 mov	 edx, DWORD PTR _lpObj$[ebp]
  0007a	0f b7 82 e2 00
	00 00		 movzx	 eax, WORD PTR [edx+226]
  00081	03 c8		 add	 ecx, eax
  00083	8b 55 0c	 mov	 edx, DWORD PTR _lpItem$[ebp]
  00086	0f b7 42 44	 movzx	 eax, WORD PTR [edx+68]
  0008a	3b c8		 cmp	 ecx, eax
  0008c	7d 07		 jge	 SHORT $LN5@gObjValidI

; 2841 : 			return FALSE;

  0008e	33 c0		 xor	 eax, eax
  00090	e9 05 01 00 00	 jmp	 $LN1@gObjValidI
$LN5@gObjValidI:

; 2842 : 	#endif // ADD_JEWEL_OF_HARMONY_SYSTEM_20060530
; 2843 : #endif // MODIFY_SETITEM_BUGFIX_20080731
; 2844 : 	}	
; 2845 : 	
; 2846 : 	if(p->RequireEnergy)

  00095	8b 45 fc	 mov	 eax, DWORD PTR _p$[ebp]
  00098	0f b7 48 38	 movzx	 ecx, WORD PTR [eax+56]
  0009c	85 c9		 test	 ecx, ecx
  0009e	74 28		 je	 SHORT $LN7@gObjValidI

; 2847 : 	{
; 2848 : 		if( lpObj->Energy+lpObj->AddEnergy < lpItem->m_RequireEnergy ) return FALSE;

  000a0	8b 45 08	 mov	 eax, DWORD PTR _lpObj$[ebp]
  000a3	0f b7 88 ba 00
	00 00		 movzx	 ecx, WORD PTR [eax+186]
  000aa	8b 55 08	 mov	 edx, DWORD PTR _lpObj$[ebp]
  000ad	0f b7 82 e6 00
	00 00		 movzx	 eax, WORD PTR [edx+230]
  000b4	03 c8		 add	 ecx, eax
  000b6	8b 55 0c	 mov	 edx, DWORD PTR _lpItem$[ebp]
  000b9	0f b7 42 46	 movzx	 eax, WORD PTR [edx+70]
  000bd	3b c8		 cmp	 ecx, eax
  000bf	7d 07		 jge	 SHORT $LN7@gObjValidI
  000c1	33 c0		 xor	 eax, eax
  000c3	e9 d2 00 00 00	 jmp	 $LN1@gObjValidI
$LN7@gObjValidI:

; 2849 : 	}	
; 2850 : 
; 2851 : #ifdef MODIFY_SETITEM_LEADERSHIP_BUGFIX
; 2852 : 	//통솔 요구치 적용(다크스피릿만)
; 2853 : 	if (p->RequireLeadership)

  000c8	8b 45 fc	 mov	 eax, DWORD PTR _p$[ebp]
  000cb	83 78 68 00	 cmp	 DWORD PTR [eax+104], 0
  000cf	74 28		 je	 SHORT $LN9@gObjValidI

; 2854 : 	{
; 2855 : 		if (lpObj->Leadership+lpObj->AddLeadership < lpItem->m_RequireLeaderShip) return FALSE;

  000d1	8b 45 08	 mov	 eax, DWORD PTR _lpObj$[ebp]
  000d4	0f b7 88 d8 00
	00 00		 movzx	 ecx, WORD PTR [eax+216]
  000db	8b 55 08	 mov	 edx, DWORD PTR _lpObj$[ebp]
  000de	0f b7 82 da 00
	00 00		 movzx	 eax, WORD PTR [edx+218]
  000e5	03 c8		 add	 ecx, eax
  000e7	8b 55 0c	 mov	 edx, DWORD PTR _lpItem$[ebp]
  000ea	0f b7 42 4c	 movzx	 eax, WORD PTR [edx+76]
  000ee	3b c8		 cmp	 ecx, eax
  000f0	7d 07		 jge	 SHORT $LN9@gObjValidI
  000f2	33 c0		 xor	 eax, eax
  000f4	e9 a1 00 00 00	 jmp	 $LN1@gObjValidI
$LN9@gObjValidI:

; 2856 : 	}
; 2857 : #endif // MODIFY_SETITEM_LEADERSHIP_BUGFIX
; 2858 : 
; 2859 : 	if(p->RequireLevel)

  000f9	8b 45 fc	 mov	 eax, DWORD PTR _p$[ebp]
  000fc	0f b7 48 3a	 movzx	 ecx, WORD PTR [eax+58]
  00100	85 c9		 test	 ecx, ecx
  00102	74 19		 je	 SHORT $LN11@gObjValidI

; 2860 : 	{
; 2861 : 		if( lpObj->Level < lpItem->m_RequireLevel ) return FALSE;

  00104	8b 45 08	 mov	 eax, DWORD PTR _lpObj$[ebp]
  00107	0f bf 88 a0 00
	00 00		 movsx	 ecx, WORD PTR [eax+160]
  0010e	8b 55 0c	 mov	 edx, DWORD PTR _lpItem$[ebp]
  00111	0f b7 42 48	 movzx	 eax, WORD PTR [edx+72]
  00115	3b c8		 cmp	 ecx, eax
  00117	7d 04		 jge	 SHORT $LN11@gObjValidI
  00119	33 c0		 xor	 eax, eax
  0011b	eb 7d		 jmp	 SHORT $LN1@gObjValidI
$LN11@gObjValidI:

; 2862 : 	}
; 2863 : 	
; 2864 : #ifdef EXPAND_ITEMSCRIPT_01_20050808
; 2865 : 	if( lpItem->m_Type >= ITEM_SWORD && lpItem->m_Type <= ITEM_BOOT )

  0011d	8b 45 0c	 mov	 eax, DWORD PTR _lpItem$[ebp]
  00120	0f bf 48 06	 movsx	 ecx, WORD PTR [eax+6]
  00124	85 c9		 test	 ecx, ecx
  00126	7c 6d		 jl	 SHORT $LN13@gObjValidI
  00128	8b 45 0c	 mov	 eax, DWORD PTR _lpItem$[ebp]
  0012b	0f bf 48 06	 movsx	 ecx, WORD PTR [eax+6]
  0012f	81 f9 60 01 00
	00		 cmp	 ecx, 352		; 00000160H
  00135	7f 5e		 jg	 SHORT $LN13@gObjValidI

; 2866 : 	{
; 2867 : 		if(p->RequireVitality)

  00137	8b 45 fc	 mov	 eax, DWORD PTR _p$[ebp]
  0013a	0f b7 48 4a	 movzx	 ecx, WORD PTR [eax+74]
  0013e	85 c9		 test	 ecx, ecx
  00140	74 25		 je	 SHORT $LN14@gObjValidI

; 2868 : 		{
; 2869 : 			if( lpObj->Vitality+lpObj->AddVitality < lpItem->m_RequireVitality ) return FALSE;

  00142	8b 45 08	 mov	 eax, DWORD PTR _lpObj$[ebp]
  00145	0f b7 88 b8 00
	00 00		 movzx	 ecx, WORD PTR [eax+184]
  0014c	8b 55 08	 mov	 edx, DWORD PTR _lpObj$[ebp]
  0014f	0f b7 82 e4 00
	00 00		 movzx	 eax, WORD PTR [edx+228]
  00156	03 c8		 add	 ecx, eax
  00158	8b 55 0c	 mov	 edx, DWORD PTR _lpItem$[ebp]
  0015b	0f b7 42 4a	 movzx	 eax, WORD PTR [edx+74]
  0015f	3b c8		 cmp	 ecx, eax
  00161	7d 04		 jge	 SHORT $LN14@gObjValidI
  00163	33 c0		 xor	 eax, eax
  00165	eb 33		 jmp	 SHORT $LN1@gObjValidI
$LN14@gObjValidI:

; 2870 : 		}
; 2871 : 
; 2872 : 		if(p->RequireLeadership)

  00167	8b 45 fc	 mov	 eax, DWORD PTR _p$[ebp]
  0016a	83 78 68 00	 cmp	 DWORD PTR [eax+104], 0
  0016e	74 25		 je	 SHORT $LN13@gObjValidI

; 2873 : 		{
; 2874 : 			if( lpObj->Leadership+lpObj->AddLeadership < lpItem->m_RequireLeaderShip ) return FALSE;

  00170	8b 45 08	 mov	 eax, DWORD PTR _lpObj$[ebp]
  00173	0f b7 88 d8 00
	00 00		 movzx	 ecx, WORD PTR [eax+216]
  0017a	8b 55 08	 mov	 edx, DWORD PTR _lpObj$[ebp]
  0017d	0f b7 82 da 00
	00 00		 movzx	 eax, WORD PTR [edx+218]
  00184	03 c8		 add	 ecx, eax
  00186	8b 55 0c	 mov	 edx, DWORD PTR _lpItem$[ebp]
  00189	0f b7 42 4c	 movzx	 eax, WORD PTR [edx+76]
  0018d	3b c8		 cmp	 ecx, eax
  0018f	7d 04		 jge	 SHORT $LN13@gObjValidI
  00191	33 c0		 xor	 eax, eax
  00193	eb 05		 jmp	 SHORT $LN1@gObjValidI
$LN13@gObjValidI:

; 2875 : 		}
; 2876 : 	}
; 2877 : #endif
; 2878 : 
; 2879 : 
; 2880 : 	return TRUE;

  00195	b8 01 00 00 00	 mov	 eax, 1
$LN1@gObjValidI:

; 2881 : }

  0019a	5f		 pop	 edi
  0019b	5e		 pop	 esi
  0019c	5b		 pop	 ebx
  0019d	8b e5		 mov	 esp, ebp
  0019f	5d		 pop	 ebp
  001a0	c3		 ret	 0
?gObjValidItem@@YAHPAVOBJECTSTRUCT@@PAVCItem@@H@Z ENDP	; gObjValidItem
_TEXT	ENDS
; Function compile flags: /Odtp /ZI
; File C:\Mu Online\Mu-GS-Webzen-MC-10093\GameServer\ObjCalCharacter.cpp
;	COMDAT ?gObjSetItemApply@@YAXPAVOBJECTSTRUCT@@@Z
_TEXT	SEGMENT
_lpObj$ = 8						; size = 4
?gObjSetItemApply@@YAXPAVOBJECTSTRUCT@@@Z PROC		; gObjSetItemApply, COMDAT

; 2655 : {

  00000	55		 push	 ebp
  00001	8b ec		 mov	 ebp, esp
  00003	83 ec 40	 sub	 esp, 64			; 00000040H
  00006	53		 push	 ebx
  00007	56		 push	 esi
  00008	57		 push	 edi

; 2656 : 	// 추가 공격력 적용
; 2657 : #ifdef MODIFY_ITEM_EFFECT_FLOW_20060519
; 2658 : 	if ( type == 0 )
; 2659 : 	{
; 2660 : #endif // MODIFY_ITEM_EFFECT_FLOW_20060519
; 2661 : 	lpObj->m_AttackDamageMinLeft += lpObj->SetOpAddAttackDamage;	

  00009	8b 45 08	 mov	 eax, DWORD PTR _lpObj$[ebp]
  0000c	0f bf 88 3e 0f
	00 00		 movsx	 ecx, WORD PTR [eax+3902]
  00013	8b 55 08	 mov	 edx, DWORD PTR _lpObj$[ebp]
  00016	03 8a d0 02 00
	00		 add	 ecx, DWORD PTR [edx+720]
  0001c	8b 45 08	 mov	 eax, DWORD PTR _lpObj$[ebp]
  0001f	89 88 d0 02 00
	00		 mov	 DWORD PTR [eax+720], ecx

; 2662 : 	lpObj->m_AttackDamageMaxLeft += lpObj->SetOpAddAttackDamage;

  00025	8b 45 08	 mov	 eax, DWORD PTR _lpObj$[ebp]
  00028	0f bf 88 3e 0f
	00 00		 movsx	 ecx, WORD PTR [eax+3902]
  0002f	8b 55 08	 mov	 edx, DWORD PTR _lpObj$[ebp]
  00032	03 8a cc 02 00
	00		 add	 ecx, DWORD PTR [edx+716]
  00038	8b 45 08	 mov	 eax, DWORD PTR _lpObj$[ebp]
  0003b	89 88 cc 02 00
	00		 mov	 DWORD PTR [eax+716], ecx

; 2663 : 	lpObj->m_AttackDamageMinRight += lpObj->SetOpAddAttackDamage;

  00041	8b 45 08	 mov	 eax, DWORD PTR _lpObj$[ebp]
  00044	0f bf 88 3e 0f
	00 00		 movsx	 ecx, WORD PTR [eax+3902]
  0004b	8b 55 08	 mov	 edx, DWORD PTR _lpObj$[ebp]
  0004e	03 8a d8 02 00
	00		 add	 ecx, DWORD PTR [edx+728]
  00054	8b 45 08	 mov	 eax, DWORD PTR _lpObj$[ebp]
  00057	89 88 d8 02 00
	00		 mov	 DWORD PTR [eax+728], ecx

; 2664 : 	lpObj->m_AttackDamageMaxRight += lpObj->SetOpAddAttackDamage;

  0005d	8b 45 08	 mov	 eax, DWORD PTR _lpObj$[ebp]
  00060	0f bf 88 3e 0f
	00 00		 movsx	 ecx, WORD PTR [eax+3902]
  00067	8b 55 08	 mov	 edx, DWORD PTR _lpObj$[ebp]
  0006a	03 8a d4 02 00
	00		 add	 ecx, DWORD PTR [edx+724]
  00070	8b 45 08	 mov	 eax, DWORD PTR _lpObj$[ebp]
  00073	89 88 d4 02 00
	00		 mov	 DWORD PTR [eax+724], ecx

; 2665 : 
; 2666 : 
; 2667 : 	lpObj->m_AttackDamageMinLeft += lpObj->SetOpAddMinAttackDamage;	

  00079	8b 45 08	 mov	 eax, DWORD PTR _lpObj$[ebp]
  0007c	0f bf 88 3a 0f
	00 00		 movsx	 ecx, WORD PTR [eax+3898]
  00083	8b 55 08	 mov	 edx, DWORD PTR _lpObj$[ebp]
  00086	03 8a d0 02 00
	00		 add	 ecx, DWORD PTR [edx+720]
  0008c	8b 45 08	 mov	 eax, DWORD PTR _lpObj$[ebp]
  0008f	89 88 d0 02 00
	00		 mov	 DWORD PTR [eax+720], ecx

; 2668 : 	lpObj->m_AttackDamageMinRight += lpObj->SetOpAddMinAttackDamage;

  00095	8b 45 08	 mov	 eax, DWORD PTR _lpObj$[ebp]
  00098	0f bf 88 3a 0f
	00 00		 movsx	 ecx, WORD PTR [eax+3898]
  0009f	8b 55 08	 mov	 edx, DWORD PTR _lpObj$[ebp]
  000a2	03 8a d8 02 00
	00		 add	 ecx, DWORD PTR [edx+728]
  000a8	8b 45 08	 mov	 eax, DWORD PTR _lpObj$[ebp]
  000ab	89 88 d8 02 00
	00		 mov	 DWORD PTR [eax+728], ecx

; 2669 : 
; 2670 : 	lpObj->m_AttackDamageMaxLeft += lpObj->SetOpAddMaxAttackDamage;	

  000b1	8b 45 08	 mov	 eax, DWORD PTR _lpObj$[ebp]
  000b4	0f bf 88 3c 0f
	00 00		 movsx	 ecx, WORD PTR [eax+3900]
  000bb	8b 55 08	 mov	 edx, DWORD PTR _lpObj$[ebp]
  000be	03 8a cc 02 00
	00		 add	 ecx, DWORD PTR [edx+716]
  000c4	8b 45 08	 mov	 eax, DWORD PTR _lpObj$[ebp]
  000c7	89 88 cc 02 00
	00		 mov	 DWORD PTR [eax+716], ecx

; 2671 : 	lpObj->m_AttackDamageMaxRight += lpObj->SetOpAddMaxAttackDamage;

  000cd	8b 45 08	 mov	 eax, DWORD PTR _lpObj$[ebp]
  000d0	0f bf 88 3c 0f
	00 00		 movsx	 ecx, WORD PTR [eax+3900]
  000d7	8b 55 08	 mov	 edx, DWORD PTR _lpObj$[ebp]
  000da	03 8a d4 02 00
	00		 add	 ecx, DWORD PTR [edx+724]
  000e0	8b 45 08	 mov	 eax, DWORD PTR _lpObj$[ebp]
  000e3	89 88 d4 02 00
	00		 mov	 DWORD PTR [eax+724], ecx

; 2672 : 
; 2673 : #ifdef MODIFY_ITEM_EFFECT_FLOW_20060519
; 2674 : 	}
; 2675 : #endif // MODIFY_ITEM_EFFECT_FLOW_20060519
; 2676 : 
; 2677 : #ifdef MODIFY_ITEM_EFFECT_FLOW_20060519
; 2678 : 	if ( type == 1 )
; 2679 : 	{
; 2680 : #endif // MODIFY_ITEM_EFFECT_FLOW_20060519
; 2681 : 	lpObj->m_MagicDamageMin += lpObj->m_MagicDamageMin*lpObj->SetOpAddMagicPower/100;

  000e9	8b 45 08	 mov	 eax, DWORD PTR _lpObj$[ebp]
  000ec	0f bf 88 44 0f
	00 00		 movsx	 ecx, WORD PTR [eax+3908]
  000f3	8b 55 08	 mov	 edx, DWORD PTR _lpObj$[ebp]
  000f6	8b c1		 mov	 eax, ecx
  000f8	0f af 82 bc 02
	00 00		 imul	 eax, DWORD PTR [edx+700]
  000ff	99		 cdq
  00100	b9 64 00 00 00	 mov	 ecx, 100		; 00000064H
  00105	f7 f9		 idiv	 ecx
  00107	8b 55 08	 mov	 edx, DWORD PTR _lpObj$[ebp]
  0010a	03 82 bc 02 00
	00		 add	 eax, DWORD PTR [edx+700]
  00110	8b 4d 08	 mov	 ecx, DWORD PTR _lpObj$[ebp]
  00113	89 81 bc 02 00
	00		 mov	 DWORD PTR [ecx+700], eax

; 2682 : 	lpObj->m_MagicDamageMax += lpObj->m_MagicDamageMax*lpObj->SetOpAddMagicPower/100;

  00119	8b 45 08	 mov	 eax, DWORD PTR _lpObj$[ebp]
  0011c	0f bf 88 44 0f
	00 00		 movsx	 ecx, WORD PTR [eax+3908]
  00123	8b 55 08	 mov	 edx, DWORD PTR _lpObj$[ebp]
  00126	8b c1		 mov	 eax, ecx
  00128	0f af 82 c0 02
	00 00		 imul	 eax, DWORD PTR [edx+704]
  0012f	99		 cdq
  00130	b9 64 00 00 00	 mov	 ecx, 100		; 00000064H
  00135	f7 f9		 idiv	 ecx
  00137	8b 55 08	 mov	 edx, DWORD PTR _lpObj$[ebp]
  0013a	03 82 c0 02 00
	00		 add	 eax, DWORD PTR [edx+704]
  00140	8b 4d 08	 mov	 ecx, DWORD PTR _lpObj$[ebp]
  00143	89 81 c0 02 00
	00		 mov	 DWORD PTR [ecx+704], eax

; 2683 : #ifdef MODIFY_ITEM_EFFECT_FLOW_20060519
; 2684 : 	}
; 2685 : #endif // MODIFY_ITEM_EFFECT_FLOW_20060519
; 2686 : 
; 2687 : 	
; 2688 : #ifdef MODIFY_ITEM_EFFECT_FLOW_20060519
; 2689 : 	if ( type == 0 )
; 2690 : 	{
; 2691 : #endif // MODIFY_ITEM_EFFECT_FLOW_20060519
; 2692 : 	lpObj->AddLife += (int)(lpObj->AddVitality*DCInfo.DefClass[lpObj->Class].VitalityToLife);

  00149	8b 45 08	 mov	 eax, DWORD PTR _lpObj$[ebp]
  0014c	0f b7 88 e4 00
	00 00		 movzx	 ecx, WORD PTR [eax+228]
  00153	f3 0f 2a c1	 cvtsi2ss xmm0, ecx
  00157	8b 55 08	 mov	 edx, DWORD PTR _lpObj$[ebp]
  0015a	0f b7 82 9c 00
	00 00		 movzx	 eax, WORD PTR [edx+156]
  00161	69 c8 60 09 00
	00		 imul	 ecx, eax, 2400
  00167	f3 0f 59 81 28
	00 00 00	 mulss	 xmm0, DWORD PTR ?DCInfo@@3Vclassdef@@A[ecx+40]
  0016f	f3 0f 2c d0	 cvttss2si edx, xmm0
  00173	8b 45 08	 mov	 eax, DWORD PTR _lpObj$[ebp]
  00176	03 90 0c 01 00
	00		 add	 edx, DWORD PTR [eax+268]
  0017c	8b 4d 08	 mov	 ecx, DWORD PTR _lpObj$[ebp]
  0017f	89 91 0c 01 00
	00		 mov	 DWORD PTR [ecx+268], edx

; 2693 : 	lpObj->AddMana += (int)(lpObj->AddEnergy*DCInfo.DefClass[lpObj->Class].EnergyToMana);

  00185	8b 45 08	 mov	 eax, DWORD PTR _lpObj$[ebp]
  00188	0f b7 88 e6 00
	00 00		 movzx	 ecx, WORD PTR [eax+230]
  0018f	f3 0f 2a c1	 cvtsi2ss xmm0, ecx
  00193	8b 55 08	 mov	 edx, DWORD PTR _lpObj$[ebp]
  00196	0f b7 82 9c 00
	00 00		 movzx	 eax, WORD PTR [edx+156]
  0019d	69 c8 60 09 00
	00		 imul	 ecx, eax, 2400
  001a3	f3 0f 59 81 2c
	00 00 00	 mulss	 xmm0, DWORD PTR ?DCInfo@@3Vclassdef@@A[ecx+44]
  001ab	f3 0f 2c d0	 cvttss2si edx, xmm0
  001af	8b 45 08	 mov	 eax, DWORD PTR _lpObj$[ebp]
  001b2	03 90 10 01 00
	00		 add	 edx, DWORD PTR [eax+272]
  001b8	8b 4d 08	 mov	 ecx, DWORD PTR _lpObj$[ebp]
  001bb	89 91 10 01 00
	00		 mov	 DWORD PTR [ecx+272], edx

; 2694 : 
; 2695 : 	lpObj->m_CriticalDamage += lpObj->SetOpAddCriticalDamageSuccessRate;

  001c1	8b 45 08	 mov	 eax, DWORD PTR _lpObj$[ebp]
  001c4	0f bf 88 34 0f
	00 00		 movsx	 ecx, WORD PTR [eax+3892]
  001cb	8b 55 08	 mov	 edx, DWORD PTR _lpObj$[ebp]
  001ce	03 8a 04 03 00
	00		 add	 ecx, DWORD PTR [edx+772]
  001d4	8b 45 08	 mov	 eax, DWORD PTR _lpObj$[ebp]
  001d7	89 88 04 03 00
	00		 mov	 DWORD PTR [eax+772], ecx

; 2696 : 	lpObj->m_ExcelentDamage += lpObj->SetOpAddExDamageSuccessRate;

  001dd	8b 45 08	 mov	 eax, DWORD PTR _lpObj$[ebp]
  001e0	0f bf 88 30 0f
	00 00		 movsx	 ecx, WORD PTR [eax+3888]
  001e7	8b 55 08	 mov	 edx, DWORD PTR _lpObj$[ebp]
  001ea	03 8a 08 03 00
	00		 add	 ecx, DWORD PTR [edx+776]
  001f0	8b 45 08	 mov	 eax, DWORD PTR _lpObj$[ebp]
  001f3	89 88 08 03 00
	00		 mov	 DWORD PTR [eax+776], ecx

; 2697 : 	
; 2698 : 	if( lpObj->pInventory[EQUIPMENT_RING_RIGHT].IsSetItem() )

  001f9	b8 a8 00 00 00	 mov	 eax, 168		; 000000a8H
  001fe	6b c8 0a	 imul	 ecx, eax, 10
  00201	8b 55 08	 mov	 edx, DWORD PTR _lpObj$[ebp]
  00204	03 8a 5c 0c 00
	00		 add	 ecx, DWORD PTR [edx+3164]
  0020a	e8 00 00 00 00	 call	 ?IsSetItem@CItem@@QAEHXZ ; CItem::IsSetItem
  0020f	85 c0		 test	 eax, eax
  00211	74 1f		 je	 SHORT $LN2@gObjSetIte

; 2699 : 	{
; 2700 : 		lpObj->pInventory[EQUIPMENT_RING_RIGHT].PlusSpecialSetRing(lpObj->m_AddResistance);

  00213	8b 45 08	 mov	 eax, DWORD PTR _lpObj$[ebp]
  00216	05 3c 03 00 00	 add	 eax, 828		; 0000033cH
  0021b	50		 push	 eax
  0021c	b9 a8 00 00 00	 mov	 ecx, 168		; 000000a8H
  00221	6b c9 0a	 imul	 ecx, ecx, 10
  00224	8b 55 08	 mov	 edx, DWORD PTR _lpObj$[ebp]
  00227	03 8a 5c 0c 00
	00		 add	 ecx, DWORD PTR [edx+3164]
  0022d	e8 00 00 00 00	 call	 ?PlusSpecialSetRing@CItem@@QAEXPAE@Z ; CItem::PlusSpecialSetRing
$LN2@gObjSetIte:

; 2701 : 	}
; 2702 : 
; 2703 : 	if( lpObj->pInventory[EQUIPMENT_RING_LEFT].IsSetItem() )

  00232	b8 a8 00 00 00	 mov	 eax, 168		; 000000a8H
  00237	6b c8 0b	 imul	 ecx, eax, 11
  0023a	8b 55 08	 mov	 edx, DWORD PTR _lpObj$[ebp]
  0023d	03 8a 5c 0c 00
	00		 add	 ecx, DWORD PTR [edx+3164]
  00243	e8 00 00 00 00	 call	 ?IsSetItem@CItem@@QAEHXZ ; CItem::IsSetItem
  00248	85 c0		 test	 eax, eax
  0024a	74 1f		 je	 SHORT $LN3@gObjSetIte

; 2704 : 	{
; 2705 : 		lpObj->pInventory[EQUIPMENT_RING_LEFT].PlusSpecialSetRing(lpObj->m_AddResistance);

  0024c	8b 45 08	 mov	 eax, DWORD PTR _lpObj$[ebp]
  0024f	05 3c 03 00 00	 add	 eax, 828		; 0000033cH
  00254	50		 push	 eax
  00255	b9 a8 00 00 00	 mov	 ecx, 168		; 000000a8H
  0025a	6b c9 0b	 imul	 ecx, ecx, 11
  0025d	8b 55 08	 mov	 edx, DWORD PTR _lpObj$[ebp]
  00260	03 8a 5c 0c 00
	00		 add	 ecx, DWORD PTR [edx+3164]
  00266	e8 00 00 00 00	 call	 ?PlusSpecialSetRing@CItem@@QAEXPAE@Z ; CItem::PlusSpecialSetRing
$LN3@gObjSetIte:

; 2706 : 	}
; 2707 : 
; 2708 : 	if( lpObj->pInventory[EQUIPMENT_AMULET].IsSetItem() )

  0026b	b8 a8 00 00 00	 mov	 eax, 168		; 000000a8H
  00270	6b c8 09	 imul	 ecx, eax, 9
  00273	8b 55 08	 mov	 edx, DWORD PTR _lpObj$[ebp]
  00276	03 8a 5c 0c 00
	00		 add	 ecx, DWORD PTR [edx+3164]
  0027c	e8 00 00 00 00	 call	 ?IsSetItem@CItem@@QAEHXZ ; CItem::IsSetItem
  00281	85 c0		 test	 eax, eax
  00283	74 1f		 je	 SHORT $LN4@gObjSetIte

; 2709 : 	{
; 2710 : 		lpObj->pInventory[EQUIPMENT_AMULET].PlusSpecialSetRing(lpObj->m_AddResistance);

  00285	8b 45 08	 mov	 eax, DWORD PTR _lpObj$[ebp]
  00288	05 3c 03 00 00	 add	 eax, 828		; 0000033cH
  0028d	50		 push	 eax
  0028e	b9 a8 00 00 00	 mov	 ecx, 168		; 000000a8H
  00293	6b c9 09	 imul	 ecx, ecx, 9
  00296	8b 55 08	 mov	 edx, DWORD PTR _lpObj$[ebp]
  00299	03 8a 5c 0c 00
	00		 add	 ecx, DWORD PTR [edx+3164]
  0029f	e8 00 00 00 00	 call	 ?PlusSpecialSetRing@CItem@@QAEXPAE@Z ; CItem::PlusSpecialSetRing
$LN4@gObjSetIte:

; 2711 : 	}
; 2712 : 
; 2713 : 	if( lpObj->SetOpTwoHandSwordImproveDamage )

  002a4	8b 45 08	 mov	 eax, DWORD PTR _lpObj$[ebp]
  002a7	0f b6 88 48 0f
	00 00		 movzx	 ecx, BYTE PTR [eax+3912]
  002ae	85 c9		 test	 ecx, ecx
  002b0	0f 84 ba 00 00
	00		 je	 $LN8@gObjSetIte

; 2714 : 	{	// 두손검 장착시 데미지 증가
; 2715 : 		if( !lpObj->pInventory[EQUIPMENT_WEAPON_LEFT].IsItem() && 

  002b6	b9 a8 00 00 00	 mov	 ecx, 168		; 000000a8H
  002bb	c1 e1 00	 shl	 ecx, 0
  002be	8b 45 08	 mov	 eax, DWORD PTR _lpObj$[ebp]
  002c1	03 88 5c 0c 00
	00		 add	 ecx, DWORD PTR [eax+3164]
  002c7	e8 00 00 00 00	 call	 ?IsItem@CItem@@QAEHXZ	; CItem::IsItem
  002cc	85 c0		 test	 eax, eax
  002ce	75 24		 jne	 SHORT $LN6@gObjSetIte
  002d0	b8 a8 00 00 00	 mov	 eax, 168		; 000000a8H
  002d5	6b c8 00	 imul	 ecx, eax, 0
  002d8	8b 55 08	 mov	 edx, DWORD PTR _lpObj$[ebp]
  002db	03 8a 5c 0c 00
	00		 add	 ecx, DWORD PTR [edx+3164]
  002e1	e8 00 00 00 00	 call	 ?IsItem@CItem@@QAEHXZ	; CItem::IsItem
  002e6	85 c0		 test	 eax, eax
  002e8	75 0a		 jne	 SHORT $LN6@gObjSetIte

; 2716 : 			!lpObj->pInventory[EQUIPMENT_WEAPON_RIGHT].IsItem() )
; 2717 : 		{	// 무기를 장착안하고 있거나
; 2718 : 			lpObj->SetOpTwoHandSwordImproveDamage = 0;

  002ea	8b 45 08	 mov	 eax, DWORD PTR _lpObj$[ebp]
  002ed	c6 80 48 0f 00
	00 00		 mov	 BYTE PTR [eax+3912], 0
$LN6@gObjSetIte:

; 2719 : 		}
; 2720 : 
; 2721 : 		if( lpObj->pInventory[EQUIPMENT_WEAPON_LEFT].IsItem() && 

  002f4	b9 a8 00 00 00	 mov	 ecx, 168		; 000000a8H
  002f9	c1 e1 00	 shl	 ecx, 0
  002fc	8b 45 08	 mov	 eax, DWORD PTR _lpObj$[ebp]
  002ff	03 88 5c 0c 00
	00		 add	 ecx, DWORD PTR [eax+3164]
  00305	e8 00 00 00 00	 call	 ?IsItem@CItem@@QAEHXZ	; CItem::IsItem
  0030a	85 c0		 test	 eax, eax
  0030c	74 24		 je	 SHORT $LN7@gObjSetIte
  0030e	b8 a8 00 00 00	 mov	 eax, 168		; 000000a8H
  00313	c1 e0 00	 shl	 eax, 0
  00316	8b 4d 08	 mov	 ecx, DWORD PTR _lpObj$[ebp]
  00319	8b 91 5c 0c 00
	00		 mov	 edx, DWORD PTR [ecx+3164]
  0031f	0f b6 44 02 0c	 movzx	 eax, BYTE PTR [edx+eax+12]
  00324	85 c0		 test	 eax, eax
  00326	75 0a		 jne	 SHORT $LN7@gObjSetIte

; 2722 : 				 !lpObj->pInventory[EQUIPMENT_WEAPON_LEFT].m_TwoHand )
; 2723 : 		{	// 아이템을 차고 있는데 두손 무기가 아니라면 
; 2724 : 			lpObj->SetOpTwoHandSwordImproveDamage = 0;

  00328	8b 45 08	 mov	 eax, DWORD PTR _lpObj$[ebp]
  0032b	c6 80 48 0f 00
	00 00		 mov	 BYTE PTR [eax+3912], 0
$LN7@gObjSetIte:

; 2725 : 		}
; 2726 : 
; 2727 : 		if( lpObj->pInventory[EQUIPMENT_WEAPON_RIGHT].IsItem() && 

  00332	b8 a8 00 00 00	 mov	 eax, 168		; 000000a8H
  00337	6b c8 00	 imul	 ecx, eax, 0
  0033a	8b 55 08	 mov	 edx, DWORD PTR _lpObj$[ebp]
  0033d	03 8a 5c 0c 00
	00		 add	 ecx, DWORD PTR [edx+3164]
  00343	e8 00 00 00 00	 call	 ?IsItem@CItem@@QAEHXZ	; CItem::IsItem
  00348	85 c0		 test	 eax, eax
  0034a	74 24		 je	 SHORT $LN8@gObjSetIte
  0034c	b8 a8 00 00 00	 mov	 eax, 168		; 000000a8H
  00351	6b c8 00	 imul	 ecx, eax, 0
  00354	8b 55 08	 mov	 edx, DWORD PTR _lpObj$[ebp]
  00357	8b 82 5c 0c 00
	00		 mov	 eax, DWORD PTR [edx+3164]
  0035d	0f b6 4c 08 0c	 movzx	 ecx, BYTE PTR [eax+ecx+12]
  00362	85 c9		 test	 ecx, ecx
  00364	75 0a		 jne	 SHORT $LN8@gObjSetIte

; 2728 : 				 !lpObj->pInventory[EQUIPMENT_WEAPON_RIGHT].m_TwoHand )
; 2729 : 		{
; 2730 : 			lpObj->SetOpTwoHandSwordImproveDamage = 0;

  00366	8b 45 08	 mov	 eax, DWORD PTR _lpObj$[ebp]
  00369	c6 80 48 0f 00
	00 00		 mov	 BYTE PTR [eax+3912], 0
$LN8@gObjSetIte:

; 2731 : 		}
; 2732 : 	}
; 2733 : 
; 2734 : #ifndef MODIFY_ITEM_EFFECT_FLOW_20060519 // not define : 나중에 최종적으로 계산하게 되어 있음
; 2735 : #ifdef MODIFY_ADDLIFE_BUGFIX_20080730
; 2736 : 	if( lpObj->m_bMasterLevelDBLoad == TRUE && lpObj->ThirdChangeUp == 0)
; 2737 : #endif	// MODIFY_ADDLIFE_BUGFIX_20080730
; 2738 : 	if( lpObj->Life > (lpObj->MaxLife+lpObj->AddLife) )

  00370	8b 45 08	 mov	 eax, DWORD PTR _lpObj$[ebp]
  00373	f3 0f 2a 80 0c
	01 00 00	 cvtsi2ss xmm0, DWORD PTR [eax+268]
  0037b	8b 4d 08	 mov	 ecx, DWORD PTR _lpObj$[ebp]
  0037e	f3 0f 58 81 c0
	00 00 00	 addss	 xmm0, DWORD PTR [ecx+192]
  00386	8b 55 08	 mov	 edx, DWORD PTR _lpObj$[ebp]
  00389	f3 0f 10 8a bc
	00 00 00	 movss	 xmm1, DWORD PTR [edx+188]
  00391	0f 2f c8	 comiss	 xmm1, xmm0
  00394	76 45		 jbe	 SHORT $LN9@gObjSetIte

; 2739 : 	{
; 2740 : 		lpObj->Life = lpObj->MaxLife+lpObj->AddLife;

  00396	8b 45 08	 mov	 eax, DWORD PTR _lpObj$[ebp]
  00399	f3 0f 2a 80 0c
	01 00 00	 cvtsi2ss xmm0, DWORD PTR [eax+268]
  003a1	8b 4d 08	 mov	 ecx, DWORD PTR _lpObj$[ebp]
  003a4	f3 0f 58 81 c0
	00 00 00	 addss	 xmm0, DWORD PTR [ecx+192]
  003ac	8b 55 08	 mov	 edx, DWORD PTR _lpObj$[ebp]
  003af	f3 0f 11 82 bc
	00 00 00	 movss	 DWORD PTR [edx+188], xmm0

; 2741 : #ifdef ADD_SHIELD_POINT_01_20060403
; 2742 : 		GCReFillSend(lpObj->m_Index, (WORD)(lpObj->Life), 0xFF, 0, (WORD)lpObj->iShield);
; 2743 : #else
; 2744 : 		GCReFillSend(lpObj->m_Index, (WORD)(lpObj->Life), 0xFF, 0);

  003b7	6a 00		 push	 0
  003b9	68 ff 00 00 00	 push	 255			; 000000ffH
  003be	8b 45 08	 mov	 eax, DWORD PTR _lpObj$[ebp]
  003c1	f3 0f 2c 88 bc
	00 00 00	 cvttss2si ecx, DWORD PTR [eax+188]
  003c9	0f b7 d1	 movzx	 edx, cx
  003cc	52		 push	 edx
  003cd	8b 45 08	 mov	 eax, DWORD PTR _lpObj$[ebp]
  003d0	8b 08		 mov	 ecx, DWORD PTR [eax]
  003d2	51		 push	 ecx
  003d3	e8 00 00 00 00	 call	 ?GCReFillSend@@YAXHGEE@Z ; GCReFillSend
  003d8	83 c4 10	 add	 esp, 16			; 00000010H
$LN9@gObjSetIte:

; 2745 : #endif
; 2746 : 	}
; 2747 : 
; 2748 : #ifndef ADD_SHIELD_POINT_01_20060403	// not define 주의
; 2749 : 	GCReFillSend(lpObj->m_Index, (WORD)(lpObj->MaxLife+lpObj->AddLife), 0xFE, 0);

  003db	6a 00		 push	 0
  003dd	68 fe 00 00 00	 push	 254			; 000000feH
  003e2	8b 45 08	 mov	 eax, DWORD PTR _lpObj$[ebp]
  003e5	f3 0f 2a 80 0c
	01 00 00	 cvtsi2ss xmm0, DWORD PTR [eax+268]
  003ed	8b 4d 08	 mov	 ecx, DWORD PTR _lpObj$[ebp]
  003f0	f3 0f 58 81 c0
	00 00 00	 addss	 xmm0, DWORD PTR [ecx+192]
  003f8	f3 0f 2c d0	 cvttss2si edx, xmm0
  003fc	0f b7 c2	 movzx	 eax, dx
  003ff	50		 push	 eax
  00400	8b 4d 08	 mov	 ecx, DWORD PTR _lpObj$[ebp]
  00403	8b 11		 mov	 edx, DWORD PTR [ecx]
  00405	52		 push	 edx
  00406	e8 00 00 00 00	 call	 ?GCReFillSend@@YAXHGEE@Z ; GCReFillSend
  0040b	83 c4 10	 add	 esp, 16			; 00000010H

; 2750 : #endif
; 2751 : 
; 2752 : 	gObjSetBP(lpObj->m_Index);

  0040e	8b 45 08	 mov	 eax, DWORD PTR _lpObj$[ebp]
  00411	8b 08		 mov	 ecx, DWORD PTR [eax]
  00413	51		 push	 ecx
  00414	e8 00 00 00 00	 call	 ?gObjSetBP@@YAXH@Z	; gObjSetBP
  00419	83 c4 04	 add	 esp, 4

; 2753 : 
; 2754 : 	#ifndef ADD_SHIELD_POINT_01_20060403	// not define 주의
; 2755 : 	GCManaSend(lpObj->m_Index, (short)(lpObj->MaxMana+lpObj->AddMana), 0xFE, 0, lpObj->MaxBP+lpObj->AddBP);

  0041c	8b 45 08	 mov	 eax, DWORD PTR _lpObj$[ebp]
  0041f	8b 88 ec 00 00
	00		 mov	 ecx, DWORD PTR [eax+236]
  00425	8b 55 08	 mov	 edx, DWORD PTR _lpObj$[ebp]
  00428	03 8a f0 00 00
	00		 add	 ecx, DWORD PTR [edx+240]
  0042e	51		 push	 ecx
  0042f	6a 00		 push	 0
  00431	68 fe 00 00 00	 push	 254			; 000000feH
  00436	8b 45 08	 mov	 eax, DWORD PTR _lpObj$[ebp]
  00439	f3 0f 2a 80 10
	01 00 00	 cvtsi2ss xmm0, DWORD PTR [eax+272]
  00441	8b 4d 08	 mov	 ecx, DWORD PTR _lpObj$[ebp]
  00444	f3 0f 58 81 d4
	00 00 00	 addss	 xmm0, DWORD PTR [ecx+212]
  0044c	f3 0f 2c d0	 cvttss2si edx, xmm0
  00450	0f b7 c2	 movzx	 eax, dx
  00453	50		 push	 eax
  00454	8b 4d 08	 mov	 ecx, DWORD PTR _lpObj$[ebp]
  00457	8b 11		 mov	 edx, DWORD PTR [ecx]
  00459	52		 push	 edx
  0045a	e8 00 00 00 00	 call	 ?GCManaSend@@YAXHFEEG@Z	; GCManaSend
  0045f	83 c4 14	 add	 esp, 20			; 00000014H

; 2756 : 	#endif // ADD_SHIELD_POINT_01_20060403
; 2757 : 
; 2758 : 	if( lpObj->Mana > (lpObj->MaxMana+lpObj->AddMana) )

  00462	8b 45 08	 mov	 eax, DWORD PTR _lpObj$[ebp]
  00465	f3 0f 2a 80 10
	01 00 00	 cvtsi2ss xmm0, DWORD PTR [eax+272]
  0046d	8b 4d 08	 mov	 ecx, DWORD PTR _lpObj$[ebp]
  00470	f3 0f 58 81 d4
	00 00 00	 addss	 xmm0, DWORD PTR [ecx+212]
  00478	8b 55 08	 mov	 edx, DWORD PTR _lpObj$[ebp]
  0047b	f3 0f 10 8a d0
	00 00 00	 movss	 xmm1, DWORD PTR [edx+208]
  00483	0f 2f c8	 comiss	 xmm1, xmm0
  00486	76 50		 jbe	 SHORT $LN10@gObjSetIte

; 2759 : 	{	// 현재 마나가 최대 생명보다 크면 원래로 돌린다
; 2760 : 		lpObj->Mana = (lpObj->MaxMana+lpObj->AddMana);

  00488	8b 45 08	 mov	 eax, DWORD PTR _lpObj$[ebp]
  0048b	f3 0f 2a 80 10
	01 00 00	 cvtsi2ss xmm0, DWORD PTR [eax+272]
  00493	8b 4d 08	 mov	 ecx, DWORD PTR _lpObj$[ebp]
  00496	f3 0f 58 81 d4
	00 00 00	 addss	 xmm0, DWORD PTR [ecx+212]
  0049e	8b 55 08	 mov	 edx, DWORD PTR _lpObj$[ebp]
  004a1	f3 0f 11 82 d0
	00 00 00	 movss	 DWORD PTR [edx+208], xmm0

; 2761 : 		GCManaSend(lpObj->m_Index, (short)(lpObj->Mana), 0xFF, 0, lpObj->BP);		

  004a9	8b 45 08	 mov	 eax, DWORD PTR _lpObj$[ebp]
  004ac	0f b7 88 e8 00
	00 00		 movzx	 ecx, WORD PTR [eax+232]
  004b3	51		 push	 ecx
  004b4	6a 00		 push	 0
  004b6	68 ff 00 00 00	 push	 255			; 000000ffH
  004bb	8b 55 08	 mov	 edx, DWORD PTR _lpObj$[ebp]
  004be	f3 0f 2c 82 d0
	00 00 00	 cvttss2si eax, DWORD PTR [edx+208]
  004c6	0f b7 c8	 movzx	 ecx, ax
  004c9	51		 push	 ecx
  004ca	8b 55 08	 mov	 edx, DWORD PTR _lpObj$[ebp]
  004cd	8b 02		 mov	 eax, DWORD PTR [edx]
  004cf	50		 push	 eax
  004d0	e8 00 00 00 00	 call	 ?GCManaSend@@YAXHFEEG@Z	; GCManaSend
  004d5	83 c4 14	 add	 esp, 20			; 00000014H
$LN10@gObjSetIte:

; 2762 : 	}	
; 2763 : #endif // MODIFY_ITEM_EFFECT_FLOW_20060519
; 2764 : 
; 2765 : 
; 2766 : #ifdef MODIFY_ITEM_EFFECT_FLOW_20060519
; 2767 : 	}
; 2768 : #endif // MODIFY_ITEM_EFFECT_FLOW_20060519
; 2769 : 
; 2770 : 
; 2771 : #ifdef MODIFY_ITEM_EFFECT_FLOW_20060519
; 2772 : 	if ( type == 1 )
; 2773 : 	{
; 2774 : #endif // MODIFY_ITEM_EFFECT_FLOW_20060519
; 2775 : 		
; 2776 : 	// 추가 방어력 적용
; 2777 : 	lpObj->m_Defense += (lpObj->SetOpAddDefence*10/20);

  004d8	8b 45 08	 mov	 eax, DWORD PTR _lpObj$[ebp]
  004db	0f bf 88 40 0f
	00 00		 movsx	 ecx, WORD PTR [eax+3904]
  004e2	6b c1 0a	 imul	 eax, ecx, 10
  004e5	99		 cdq
  004e6	b9 14 00 00 00	 mov	 ecx, 20			; 00000014H
  004eb	f7 f9		 idiv	 ecx
  004ed	8b 55 08	 mov	 edx, DWORD PTR _lpObj$[ebp]
  004f0	03 82 e8 02 00
	00		 add	 eax, DWORD PTR [edx+744]
  004f6	8b 4d 08	 mov	 ecx, DWORD PTR _lpObj$[ebp]
  004f9	89 81 e8 02 00
	00		 mov	 DWORD PTR [ecx+744], eax

; 2778 : 	// 추가 방어력 (%) 적용
; 2779 : 	lpObj->m_Defense += (lpObj->m_Defense*lpObj->SetOpAddDefenceRate/100);

  004ff	8b 45 08	 mov	 eax, DWORD PTR _lpObj$[ebp]
  00502	0f bf 88 42 0f
	00 00		 movsx	 ecx, WORD PTR [eax+3906]
  00509	8b 55 08	 mov	 edx, DWORD PTR _lpObj$[ebp]
  0050c	8b c1		 mov	 eax, ecx
  0050e	0f af 82 e8 02
	00 00		 imul	 eax, DWORD PTR [edx+744]
  00515	99		 cdq
  00516	b9 64 00 00 00	 mov	 ecx, 100		; 00000064H
  0051b	f7 f9		 idiv	 ecx
  0051d	8b 55 08	 mov	 edx, DWORD PTR _lpObj$[ebp]
  00520	03 82 e8 02 00
	00		 add	 eax, DWORD PTR [edx+744]
  00526	8b 4d 08	 mov	 ecx, DWORD PTR _lpObj$[ebp]
  00529	89 81 e8 02 00
	00		 mov	 DWORD PTR [ecx+744], eax

; 2780 : 
; 2781 : 	if( lpObj->pInventory[EQUIPMENT_WEAPON_LEFT].m_Type  >= ITEM_SHIELD && 

  0052f	b8 a8 00 00 00	 mov	 eax, 168		; 000000a8H
  00534	c1 e0 00	 shl	 eax, 0
  00537	8b 4d 08	 mov	 ecx, DWORD PTR _lpObj$[ebp]
  0053a	8b 91 5c 0c 00
	00		 mov	 edx, DWORD PTR [ecx+3164]
  00540	0f bf 44 02 06	 movsx	 eax, WORD PTR [edx+eax+6]
  00545	3d c0 00 00 00	 cmp	 eax, 192		; 000000c0H
  0054a	7c 4d		 jl	 SHORT $LN11@gObjSetIte
  0054c	b8 a8 00 00 00	 mov	 eax, 168		; 000000a8H
  00551	c1 e0 00	 shl	 eax, 0
  00554	8b 4d 08	 mov	 ecx, DWORD PTR _lpObj$[ebp]
  00557	8b 91 5c 0c 00
	00		 mov	 edx, DWORD PTR [ecx+3164]
  0055d	0f bf 44 02 06	 movsx	 eax, WORD PTR [edx+eax+6]
  00562	3d e0 00 00 00	 cmp	 eax, 224		; 000000e0H
  00567	7d 30		 jge	 SHORT $LN11@gObjSetIte

; 2782 : 		lpObj->pInventory[EQUIPMENT_WEAPON_LEFT].m_Type  < ITEM_HELM )
; 2783 : 	{	// 세트 옵션 방패 장비시 방어력 5% 증가
; 2784 : 		lpObj->m_Defense += lpObj->m_Defense*lpObj->SetOpImproveSheldDefence/100;

  00569	8b 45 08	 mov	 eax, DWORD PTR _lpObj$[ebp]
  0056c	0f b6 88 4b 0f
	00 00		 movzx	 ecx, BYTE PTR [eax+3915]
  00573	8b 55 08	 mov	 edx, DWORD PTR _lpObj$[ebp]
  00576	8b c1		 mov	 eax, ecx
  00578	0f af 82 e8 02
	00 00		 imul	 eax, DWORD PTR [edx+744]
  0057f	99		 cdq
  00580	b9 64 00 00 00	 mov	 ecx, 100		; 00000064H
  00585	f7 f9		 idiv	 ecx
  00587	8b 55 08	 mov	 edx, DWORD PTR _lpObj$[ebp]
  0058a	03 82 e8 02 00
	00		 add	 eax, DWORD PTR [edx+744]
  00590	8b 4d 08	 mov	 ecx, DWORD PTR _lpObj$[ebp]
  00593	89 81 e8 02 00
	00		 mov	 DWORD PTR [ecx+744], eax
$LN11@gObjSetIte:

; 2785 : 	}
; 2786 : 
; 2787 : #ifdef MODIFY_ITEM_EFFECT_FLOW_20060519
; 2788 : 	}
; 2789 : #endif // MODIFY_ITEM_EFFECT_FLOW_20060519
; 2790 : 
; 2791 : #ifndef BUGFIX_MASTERSKILL_INC_DEFENSE_BUGFIX_20080917	// 방어력 증가값을 위에서 적용
; 2792 : #ifdef ADD_MASTER_LEVEL_SKILL_PASSIVE_20080107		// 패시브 2차 - 방어력 증가
; 2793 : 	// ( 기본 방어력 + 아이템 방어력 ) + 패시브 스킬값
; 2794 : 	lpObj->m_Defense += lpObj->m_MPSkillOpt.iMpsDefence;
; 2795 : #endif
; 2796 : #endif	// BUGFIX_MASTERSKILL_INC_DEFENSE_BUGFIX_20080917
; 2797 : }

  00599	5f		 pop	 edi
  0059a	5e		 pop	 esi
  0059b	5b		 pop	 ebx
  0059c	8b e5		 mov	 esp, ebp
  0059e	5d		 pop	 ebp
  0059f	c3		 ret	 0
?gObjSetItemApply@@YAXPAVOBJECTSTRUCT@@@Z ENDP		; gObjSetItemApply
_TEXT	ENDS
; Function compile flags: /Odtp /ZI
; File C:\Mu Online\Mu-GS-Webzen-MC-10093\GameServer\ObjCalCharacter.cpp
;	COMDAT ?gObjSetItemPlusSpecial@@YAXPAVOBJECTSTRUCT@@HH@Z
_TEXT	SEGMENT
tv65 = -68						; size = 4
_lpObj$ = 8						; size = 4
_option$ = 12						; size = 4
_ivalue$ = 16						; size = 4
?gObjSetItemPlusSpecial@@YAXPAVOBJECTSTRUCT@@HH@Z PROC	; gObjSetItemPlusSpecial, COMDAT

; 2195 : {

  00000	55		 push	 ebp
  00001	8b ec		 mov	 ebp, esp
  00003	83 ec 44	 sub	 esp, 68			; 00000044H
  00006	53		 push	 ebx
  00007	56		 push	 esi
  00008	57		 push	 edi

; 2196 : 	if( option == -1 )

  00009	83 7d 0c ff	 cmp	 DWORD PTR _option$[ebp], -1
  0000d	75 05		 jne	 SHORT $LN4@gObjSetIte

; 2197 : 		return;	

  0000f	e9 32 09 00 00	 jmp	 $LN1@gObjSetIte
$LN4@gObjSetIte:

; 2198 : 
; 2199 : #if TESTSERVER == 1
; 2200 : 	char szText[255];	
; 2201 : #endif
; 2202 : 	
; 2203 : 	// !!! . 세트 아이템 옵션 수정 - b4nfter
; 2204 : //	option += 20;
; 2205 : 
; 2206 : 	switch(option)

  00014	8b 45 0c	 mov	 eax, DWORD PTR _option$[ebp]
  00017	89 45 bc	 mov	 DWORD PTR tv65[ebp], eax
  0001a	8b 4d bc	 mov	 ecx, DWORD PTR tv65[ebp]
  0001d	81 e9 a5 00 00
	00		 sub	 ecx, 165		; 000000a5H
  00023	89 4d bc	 mov	 DWORD PTR tv65[ebp], ecx
  00026	83 7d bc 1e	 cmp	 DWORD PTR tv65[ebp], 30	; 0000001eH
  0002a	0f 87 16 09 00
	00		 ja	 $LN1@gObjSetIte
  00030	8b 55 bc	 mov	 edx, DWORD PTR tv65[ebp]
  00033	ff 24 95 00 00
	00 00		 jmp	 DWORD PTR $LN37@gObjSetIte[edx*4]
$LN5@gObjSetIte:

; 2207 : 	{
; 2208 : 		case AT_SET_OPTION_DOUBLE_DAMAGE:
; 2209 : 			{	//	더블 데미지 확률
; 2210 : 				lpObj->SetOpDoubleDamage += ivalue;

  0003a	8b 45 08	 mov	 eax, DWORD PTR _lpObj$[ebp]
  0003d	0f b6 88 47 0f
	00 00		 movzx	 ecx, BYTE PTR [eax+3911]
  00044	03 4d 10	 add	 ecx, DWORD PTR _ivalue$[ebp]
  00047	8b 55 08	 mov	 edx, DWORD PTR _lpObj$[ebp]
  0004a	88 8a 47 0f 00
	00		 mov	 BYTE PTR [edx+3911], cl

; 2211 : #ifndef EXTEND_LOG_SYSTEM_20060202
; 2212 : 				LogAddTD("[%s][%s] 더블 데미지 확률 %d퍼센트 %d", lpObj->AccountID, lpObj->Name, ivalue, lpObj->SetOpDoubleDamage);

  00050	8b 45 08	 mov	 eax, DWORD PTR _lpObj$[ebp]
  00053	0f b6 88 47 0f
	00 00		 movzx	 ecx, BYTE PTR [eax+3911]
  0005a	51		 push	 ecx
  0005b	8b 55 10	 mov	 edx, DWORD PTR _ivalue$[ebp]
  0005e	52		 push	 edx
  0005f	8b 45 08	 mov	 eax, DWORD PTR _lpObj$[ebp]
  00062	83 c0 73	 add	 eax, 115		; 00000073H
  00065	50		 push	 eax
  00066	8b 4d 08	 mov	 ecx, DWORD PTR _lpObj$[ebp]
  00069	83 c1 68	 add	 ecx, 104		; 00000068H
  0006c	51		 push	 ecx
  0006d	68 00 00 00 00	 push	 OFFSET ??_C@_0CG@JAHDGEMD@?$FL?$CFs?$FN?$FL?$CFs?$FN?5?$LE?u?$LK?m?5?$LF?$KF?$LJ?L?A?v?5?H?$KO?$LH?$PM?5?$CFd?F?$NL?$LM@
  00072	ff 15 00 00 00
	00		 call	 DWORD PTR ?LogAddTD@@3P6AXPADZZA ; LogAddTD
  00078	83 c4 14	 add	 esp, 20			; 00000014H

; 2213 : #endif
; 2214 : 
; 2215 : #if TESTSERVER == 1
; 2216 : 				wsprintf(szText, "더블 데미지 확률 %d퍼센트 %d", ivalue, lpObj->SetOpDoubleDamage);
; 2217 : 				GCServerMsgStringSend(szText, lpObj->m_Index, 1);	
; 2218 : #endif
; 2219 : 			}
; 2220 : 		break;

  0007b	e9 c6 08 00 00	 jmp	 $LN1@gObjSetIte
$LN6@gObjSetIte:

; 2221 : 
; 2222 : 		case AT_SET_OPTION_IMPROVE_SHIELD_DEFENCE:
; 2223 : 			{	//	방패 장비시 방어력 5% 증가          (●)
; 2224 : 				lpObj->SetOpImproveSheldDefence += ivalue;

  00080	8b 45 08	 mov	 eax, DWORD PTR _lpObj$[ebp]
  00083	0f b6 88 4b 0f
	00 00		 movzx	 ecx, BYTE PTR [eax+3915]
  0008a	03 4d 10	 add	 ecx, DWORD PTR _ivalue$[ebp]
  0008d	8b 55 08	 mov	 edx, DWORD PTR _lpObj$[ebp]
  00090	88 8a 4b 0f 00
	00		 mov	 BYTE PTR [edx+3915], cl

; 2225 : #ifndef EXTEND_LOG_SYSTEM_20060202
; 2226 : 				LogAddTD("[%s][%s] 방패 장비시 방어력 %d퍼센트 증가 %d", lpObj->AccountID, lpObj->Name, ivalue, lpObj->SetOpImproveSheldDefence);

  00096	8b 45 08	 mov	 eax, DWORD PTR _lpObj$[ebp]
  00099	0f b6 88 4b 0f
	00 00		 movzx	 ecx, BYTE PTR [eax+3915]
  000a0	51		 push	 ecx
  000a1	8b 55 10	 mov	 edx, DWORD PTR _ivalue$[ebp]
  000a4	52		 push	 edx
  000a5	8b 45 08	 mov	 eax, DWORD PTR _lpObj$[ebp]
  000a8	83 c0 73	 add	 eax, 115		; 00000073H
  000ab	50		 push	 eax
  000ac	8b 4d 08	 mov	 ecx, DWORD PTR _lpObj$[ebp]
  000af	83 c1 68	 add	 ecx, 104		; 00000068H
  000b2	51		 push	 ecx
  000b3	68 00 00 00 00	 push	 OFFSET ??_C@_0CN@JHAFMLFE@?$FL?$CFs?$FN?$FL?$CFs?$FN?5?$LJ?f?F?P?5?$MA?e?$LK?q?$LN?C?5?$LJ?f?$LO?n?$LH?B?5?$CFd?F@
  000b8	ff 15 00 00 00
	00		 call	 DWORD PTR ?LogAddTD@@3P6AXPADZZA ; LogAddTD
  000be	83 c4 14	 add	 esp, 20			; 00000014H

; 2227 : #endif
; 2228 : 
; 2229 : #if TESTSERVER == 1
; 2230 : 				wsprintf(szText, "방패 장비시 방어력 5퍼센트 증가 %d", lpObj->SetOpImproveSheldDefence);
; 2231 : 				GCServerMsgStringSend(szText, lpObj->m_Index, 1);	
; 2232 : #endif
; 2233 : 			}
; 2234 : 		break;	

  000c1	e9 80 08 00 00	 jmp	 $LN1@gObjSetIte
$LN7@gObjSetIte:

; 2235 : 
; 2236 : 		case AT_SET_OPTION_TWO_HAND_SWORD_IMPROVE_DAMAGE:
; 2237 : 			{	//	양손검 장비시 데미지 15% 증가       ( 서버만 )
; 2238 : 				lpObj->SetOpTwoHandSwordImproveDamage += ivalue;

  000c6	8b 45 08	 mov	 eax, DWORD PTR _lpObj$[ebp]
  000c9	0f b6 88 48 0f
	00 00		 movzx	 ecx, BYTE PTR [eax+3912]
  000d0	03 4d 10	 add	 ecx, DWORD PTR _ivalue$[ebp]
  000d3	8b 55 08	 mov	 edx, DWORD PTR _lpObj$[ebp]
  000d6	88 8a 48 0f 00
	00		 mov	 BYTE PTR [edx+3912], cl

; 2239 : #ifndef EXTEND_LOG_SYSTEM_20060202
; 2240 : 				LogAddTD("[%s][%s] 양손검 장비시 데미지 %d퍼센트 증가 %d", lpObj->AccountID, lpObj->Name, ivalue, lpObj->SetOpTwoHandSwordImproveDamage);

  000dc	8b 45 08	 mov	 eax, DWORD PTR _lpObj$[ebp]
  000df	0f b6 88 48 0f
	00 00		 movzx	 ecx, BYTE PTR [eax+3912]
  000e6	51		 push	 ecx
  000e7	8b 55 10	 mov	 edx, DWORD PTR _ivalue$[ebp]
  000ea	52		 push	 edx
  000eb	8b 45 08	 mov	 eax, DWORD PTR _lpObj$[ebp]
  000ee	83 c0 73	 add	 eax, 115		; 00000073H
  000f1	50		 push	 eax
  000f2	8b 4d 08	 mov	 ecx, DWORD PTR _lpObj$[ebp]
  000f5	83 c1 68	 add	 ecx, 104		; 00000068H
  000f8	51		 push	 ecx
  000f9	68 00 00 00 00	 push	 OFFSET ??_C@_0CP@IMHJNPOL@?$FL?$CFs?$FN?$FL?$CFs?$FN?5?$LO?g?$LM?U?$LA?K?5?$MA?e?$LK?q?$LN?C?5?$LF?$KF?$LJ?L?A?v?5?$CF@
  000fe	ff 15 00 00 00
	00		 call	 DWORD PTR ?LogAddTD@@3P6AXPADZZA ; LogAddTD
  00104	83 c4 14	 add	 esp, 20			; 00000014H

; 2241 : #endif
; 2242 : 
; 2243 : #if TESTSERVER == 1
; 2244 : 				wsprintf(szText, "양손검 장비시 데미지 15페센트 증가 %d", lpObj->SetOpTwoHandSwordImproveDamage);
; 2245 : 				GCServerMsgStringSend(szText, lpObj->m_Index, 1);	
; 2246 : #endif
; 2247 : 			}
; 2248 : 		break;

  00107	e9 3a 08 00 00	 jmp	 $LN1@gObjSetIte
$LN8@gObjSetIte:

; 2249 : 
; 2250 : 
; 2251 : 		case AT_SET_OPTION_IMPROVE_MINATTACKDAMAGE:
; 2252 : 			{	//	최소 공격력 증가
; 2253 : 				lpObj->SetOpAddMinAttackDamage += ivalue;

  0010c	8b 45 08	 mov	 eax, DWORD PTR _lpObj$[ebp]
  0010f	0f bf 88 3a 0f
	00 00		 movsx	 ecx, WORD PTR [eax+3898]
  00116	03 4d 10	 add	 ecx, DWORD PTR _ivalue$[ebp]
  00119	8b 55 08	 mov	 edx, DWORD PTR _lpObj$[ebp]
  0011c	66 89 8a 3a 0f
	00 00		 mov	 WORD PTR [edx+3898], cx

; 2254 : #ifndef EXTEND_LOG_SYSTEM_20060202
; 2255 : 				LogAddTD("[%s][%s] 최소 공격력 증가 %d, %d", lpObj->AccountID, lpObj->Name, ivalue, lpObj->SetOpAddMinAttackDamage);

  00123	8b 45 08	 mov	 eax, DWORD PTR _lpObj$[ebp]
  00126	0f bf 88 3a 0f
	00 00		 movsx	 ecx, WORD PTR [eax+3898]
  0012d	51		 push	 ecx
  0012e	8b 55 10	 mov	 edx, DWORD PTR _ivalue$[ebp]
  00131	52		 push	 edx
  00132	8b 45 08	 mov	 eax, DWORD PTR _lpObj$[ebp]
  00135	83 c0 73	 add	 eax, 115		; 00000073H
  00138	50		 push	 eax
  00139	8b 4d 08	 mov	 ecx, DWORD PTR _lpObj$[ebp]
  0013c	83 c1 68	 add	 ecx, 104		; 00000068H
  0013f	51		 push	 ecx
  00140	68 00 00 00 00	 push	 OFFSET ??_C@_0CB@FEJEMDEP@?$FL?$CFs?$FN?$FL?$CFs?$FN?5?C?V?$LM?R?5?$LA?x?$LA?$NN?$LH?B?5?A?u?$LA?$KB?5?$CFd?0?5?$CF@
  00145	ff 15 00 00 00
	00		 call	 DWORD PTR ?LogAddTD@@3P6AXPADZZA ; LogAddTD
  0014b	83 c4 14	 add	 esp, 20			; 00000014H

; 2256 : #endif
; 2257 : 
; 2258 : #if TESTSERVER == 1
; 2259 : 				wsprintf(szText, "최소 공격력 증가 %d, %d", ivalue, lpObj->SetOpAddMinAttackDamage);
; 2260 : 				GCServerMsgStringSend(szText, lpObj->m_Index, 1);	
; 2261 : #endif
; 2262 : 			}
; 2263 : 		break;

  0014e	e9 f3 07 00 00	 jmp	 $LN1@gObjSetIte
$LN9@gObjSetIte:

; 2264 : 
; 2265 : 		case AT_SET_OPTION_IMPROVE_MAXATTACKDAMAGE:
; 2266 : 			{	//	최대 공격력 증가
; 2267 : 				lpObj->SetOpAddMaxAttackDamage += ivalue;

  00153	8b 45 08	 mov	 eax, DWORD PTR _lpObj$[ebp]
  00156	0f bf 88 3c 0f
	00 00		 movsx	 ecx, WORD PTR [eax+3900]
  0015d	03 4d 10	 add	 ecx, DWORD PTR _ivalue$[ebp]
  00160	8b 55 08	 mov	 edx, DWORD PTR _lpObj$[ebp]
  00163	66 89 8a 3c 0f
	00 00		 mov	 WORD PTR [edx+3900], cx

; 2268 : #ifndef EXTEND_LOG_SYSTEM_20060202
; 2269 : 				LogAddTD("[%s][%s] 최대 공격력 증가 %d, %d", lpObj->AccountID, lpObj->Name, ivalue, lpObj->SetOpAddMaxAttackDamage);

  0016a	8b 45 08	 mov	 eax, DWORD PTR _lpObj$[ebp]
  0016d	0f bf 88 3c 0f
	00 00		 movsx	 ecx, WORD PTR [eax+3900]
  00174	51		 push	 ecx
  00175	8b 55 10	 mov	 edx, DWORD PTR _ivalue$[ebp]
  00178	52		 push	 edx
  00179	8b 45 08	 mov	 eax, DWORD PTR _lpObj$[ebp]
  0017c	83 c0 73	 add	 eax, 115		; 00000073H
  0017f	50		 push	 eax
  00180	8b 4d 08	 mov	 ecx, DWORD PTR _lpObj$[ebp]
  00183	83 c1 68	 add	 ecx, 104		; 00000068H
  00186	51		 push	 ecx
  00187	68 00 00 00 00	 push	 OFFSET ??_C@_0CB@ILNDFIJD@?$FL?$CFs?$FN?$FL?$CFs?$FN?5?C?V?$LE?k?5?$LA?x?$LA?$NN?$LH?B?5?A?u?$LA?$KB?5?$CFd?0?5?$CF@
  0018c	ff 15 00 00 00
	00		 call	 DWORD PTR ?LogAddTD@@3P6AXPADZZA ; LogAddTD
  00192	83 c4 14	 add	 esp, 20			; 00000014H

; 2270 : #endif
; 2271 : 
; 2272 : #if TESTSERVER == 1
; 2273 : 				wsprintf(szText, "최대 공격력 증가 %d, %d", ivalue, lpObj->SetOpAddMaxAttackDamage);
; 2274 : 				GCServerMsgStringSend(szText, lpObj->m_Index, 1);	
; 2275 : #endif
; 2276 : 			}
; 2277 : 		break;

  00195	e9 ac 07 00 00	 jmp	 $LN1@gObjSetIte
$LN10@gObjSetIte:

; 2278 : 
; 2279 : 		case AT_SET_OPTION_IMPROVE_MAGICDAMAGE:
; 2280 : 			{	//	마력 증가
; 2281 : 				lpObj->SetOpAddMagicPower += ivalue;

  0019a	8b 45 08	 mov	 eax, DWORD PTR _lpObj$[ebp]
  0019d	0f bf 88 44 0f
	00 00		 movsx	 ecx, WORD PTR [eax+3908]
  001a4	03 4d 10	 add	 ecx, DWORD PTR _ivalue$[ebp]
  001a7	8b 55 08	 mov	 edx, DWORD PTR _lpObj$[ebp]
  001aa	66 89 8a 44 0f
	00 00		 mov	 WORD PTR [edx+3908], cx

; 2282 : #ifndef EXTEND_LOG_SYSTEM_20060202
; 2283 : 				LogAddTD("[%s][%s] 마력 증가 %d %d", lpObj->AccountID, lpObj->Name, ivalue, lpObj->SetOpAddMagicPower);

  001b1	8b 45 08	 mov	 eax, DWORD PTR _lpObj$[ebp]
  001b4	0f bf 88 44 0f
	00 00		 movsx	 ecx, WORD PTR [eax+3908]
  001bb	51		 push	 ecx
  001bc	8b 55 10	 mov	 edx, DWORD PTR _ivalue$[ebp]
  001bf	52		 push	 edx
  001c0	8b 45 08	 mov	 eax, DWORD PTR _lpObj$[ebp]
  001c3	83 c0 73	 add	 eax, 115		; 00000073H
  001c6	50		 push	 eax
  001c7	8b 4d 08	 mov	 ecx, DWORD PTR _lpObj$[ebp]
  001ca	83 c1 68	 add	 ecx, 104		; 00000068H
  001cd	51		 push	 ecx
  001ce	68 00 00 00 00	 push	 OFFSET ??_C@_0BJ@NMLHNOEN@?$FL?$CFs?$FN?$FL?$CFs?$FN?5?$LI?$LG?$LH?B?5?A?u?$LA?$KB?5?$CFd?5?$CFd@
  001d3	ff 15 00 00 00
	00		 call	 DWORD PTR ?LogAddTD@@3P6AXPADZZA ; LogAddTD
  001d9	83 c4 14	 add	 esp, 20			; 00000014H

; 2284 : #endif
; 2285 : 
; 2286 : #if TESTSERVER == 1
; 2287 : 				wsprintf(szText, "마력 증가 %d %d", ivalue, lpObj->SetOpAddMagicPower);
; 2288 : 				GCServerMsgStringSend(szText, lpObj->m_Index, 1);	
; 2289 : #endif
; 2290 : 			}
; 2291 : 		break;

  001dc	e9 65 07 00 00	 jmp	 $LN1@gObjSetIte
$LN11@gObjSetIte:

; 2292 : 
; 2293 : 		case AT_SET_OPTION_IMPROVE_DAMAGE:
; 2294 : 			{	//	데미지 증가
; 2295 : 				lpObj->SetOpAddDamage += ivalue;

  001e1	8b 45 08	 mov	 eax, DWORD PTR _lpObj$[ebp]
  001e4	0f bf 88 38 0f
	00 00		 movsx	 ecx, WORD PTR [eax+3896]
  001eb	03 4d 10	 add	 ecx, DWORD PTR _ivalue$[ebp]
  001ee	8b 55 08	 mov	 edx, DWORD PTR _lpObj$[ebp]
  001f1	66 89 8a 38 0f
	00 00		 mov	 WORD PTR [edx+3896], cx

; 2296 : #ifndef EXTEND_LOG_SYSTEM_20060202
; 2297 : 				LogAddTD("[%s][%s] 데미지 증가 %d %d", lpObj->AccountID, lpObj->Name, ivalue, lpObj->SetOpAddDamage);

  001f8	8b 45 08	 mov	 eax, DWORD PTR _lpObj$[ebp]
  001fb	0f bf 88 38 0f
	00 00		 movsx	 ecx, WORD PTR [eax+3896]
  00202	51		 push	 ecx
  00203	8b 55 10	 mov	 edx, DWORD PTR _ivalue$[ebp]
  00206	52		 push	 edx
  00207	8b 45 08	 mov	 eax, DWORD PTR _lpObj$[ebp]
  0020a	83 c0 73	 add	 eax, 115		; 00000073H
  0020d	50		 push	 eax
  0020e	8b 4d 08	 mov	 ecx, DWORD PTR _lpObj$[ebp]
  00211	83 c1 68	 add	 ecx, 104		; 00000068H
  00214	51		 push	 ecx
  00215	68 00 00 00 00	 push	 OFFSET ??_C@_0BL@EOFFOPCL@?$FL?$CFs?$FN?$FL?$CFs?$FN?5?$LF?$KF?$LJ?L?A?v?5?A?u?$LA?$KB?5?$CFd?5?$CFd@
  0021a	ff 15 00 00 00
	00		 call	 DWORD PTR ?LogAddTD@@3P6AXPADZZA ; LogAddTD
  00220	83 c4 14	 add	 esp, 20			; 00000014H

; 2298 : #endif
; 2299 : 
; 2300 : #if TESTSERVER == 1
; 2301 : 				wsprintf(szText, "데미지 증가 %d %d", ivalue, lpObj->SetOpAddDamage);
; 2302 : 				GCServerMsgStringSend(szText, lpObj->m_Index, 1);	
; 2303 : #endif
; 2304 : 			}
; 2305 : 		break;

  00223	e9 1e 07 00 00	 jmp	 $LN1@gObjSetIte
$LN12@gObjSetIte:

; 2306 : 
; 2307 : 		case AT_SET_OPTION_IMPROVE_ATTACKRATE:
; 2308 : 			{	//	공격율 증가
; 2309 : 				lpObj->SetOpImproveSuccessAttackRate += ivalue;

  00228	8b 45 08	 mov	 eax, DWORD PTR _lpObj$[ebp]
  0022b	0f b6 88 49 0f
	00 00		 movzx	 ecx, BYTE PTR [eax+3913]
  00232	03 4d 10	 add	 ecx, DWORD PTR _ivalue$[ebp]
  00235	8b 55 08	 mov	 edx, DWORD PTR _lpObj$[ebp]
  00238	88 8a 49 0f 00
	00		 mov	 BYTE PTR [edx+3913], cl

; 2310 : #ifndef EXTEND_LOG_SYSTEM_20060202
; 2311 : 				LogAddTD("[%s][%s] 공격율 증가 %d %d", lpObj->AccountID, lpObj->Name, ivalue, lpObj->SetOpImproveSuccessAttackRate);

  0023e	8b 45 08	 mov	 eax, DWORD PTR _lpObj$[ebp]
  00241	0f b6 88 49 0f
	00 00		 movzx	 ecx, BYTE PTR [eax+3913]
  00248	51		 push	 ecx
  00249	8b 55 10	 mov	 edx, DWORD PTR _ivalue$[ebp]
  0024c	52		 push	 edx
  0024d	8b 45 08	 mov	 eax, DWORD PTR _lpObj$[ebp]
  00250	83 c0 73	 add	 eax, 115		; 00000073H
  00253	50		 push	 eax
  00254	8b 4d 08	 mov	 ecx, DWORD PTR _lpObj$[ebp]
  00257	83 c1 68	 add	 ecx, 104		; 00000068H
  0025a	51		 push	 ecx
  0025b	68 00 00 00 00	 push	 OFFSET ??_C@_0BL@DCNPIBGF@?$FL?$CFs?$FN?$FL?$CFs?$FN?5?$LA?x?$LA?$NN?$MA?$LC?5?A?u?$LA?$KB?5?$CFd?5?$CFd@
  00260	ff 15 00 00 00
	00		 call	 DWORD PTR ?LogAddTD@@3P6AXPADZZA ; LogAddTD
  00266	83 c4 14	 add	 esp, 20			; 00000014H

; 2312 : #endif
; 2313 : 
; 2314 : 
; 2315 : #if TESTSERVER == 1
; 2316 : 				wsprintf(szText, "공격율 증가 %d %d", ivalue, lpObj->SetOpImproveSuccessAttackRate);
; 2317 : 				GCServerMsgStringSend(szText, lpObj->m_Index, 1);	
; 2318 : #endif
; 2319 : 			}
; 2320 : 		break;

  00269	e9 d8 06 00 00	 jmp	 $LN1@gObjSetIte
$LN13@gObjSetIte:

; 2321 : 
; 2322 : 		case AT_SET_OPTION_IMPROVE_DEFENCE:
; 2323 : 			{	//	방어력 증가
; 2324 : 				lpObj->SetOpAddDefence += ivalue;

  0026e	8b 45 08	 mov	 eax, DWORD PTR _lpObj$[ebp]
  00271	0f bf 88 40 0f
	00 00		 movsx	 ecx, WORD PTR [eax+3904]
  00278	03 4d 10	 add	 ecx, DWORD PTR _ivalue$[ebp]
  0027b	8b 55 08	 mov	 edx, DWORD PTR _lpObj$[ebp]
  0027e	66 89 8a 40 0f
	00 00		 mov	 WORD PTR [edx+3904], cx

; 2325 : #ifndef EXTEND_LOG_SYSTEM_20060202
; 2326 : 				LogAddTD("[%s][%s] 방어력 증가 %d %d", lpObj->AccountID, lpObj->Name, ivalue, lpObj->SetOpAddDefence);

  00285	8b 45 08	 mov	 eax, DWORD PTR _lpObj$[ebp]
  00288	0f bf 88 40 0f
	00 00		 movsx	 ecx, WORD PTR [eax+3904]
  0028f	51		 push	 ecx
  00290	8b 55 10	 mov	 edx, DWORD PTR _ivalue$[ebp]
  00293	52		 push	 edx
  00294	8b 45 08	 mov	 eax, DWORD PTR _lpObj$[ebp]
  00297	83 c0 73	 add	 eax, 115		; 00000073H
  0029a	50		 push	 eax
  0029b	8b 4d 08	 mov	 ecx, DWORD PTR _lpObj$[ebp]
  0029e	83 c1 68	 add	 ecx, 104		; 00000068H
  002a1	51		 push	 ecx
  002a2	68 00 00 00 00	 push	 OFFSET ??_C@_0BL@FEKHKAGB@?$FL?$CFs?$FN?$FL?$CFs?$FN?5?$LJ?f?$LO?n?$LH?B?5?A?u?$LA?$KB?5?$CFd?5?$CFd@
  002a7	ff 15 00 00 00
	00		 call	 DWORD PTR ?LogAddTD@@3P6AXPADZZA ; LogAddTD
  002ad	83 c4 14	 add	 esp, 20			; 00000014H

; 2327 : #endif
; 2328 : 
; 2329 : #if TESTSERVER == 1
; 2330 : 				wsprintf(szText, "방어력 증가 %d %d", ivalue, lpObj->SetOpAddDefence);
; 2331 : 				GCServerMsgStringSend(szText, lpObj->m_Index, 1);	
; 2332 : #endif
; 2333 : 			}
; 2334 : 		break;

  002b0	e9 91 06 00 00	 jmp	 $LN1@gObjSetIte
$LN14@gObjSetIte:

; 2335 : 
; 2336 : 		case AT_SET_OPTION_DEFENCE_IGNORE:
; 2337 : 			{	//	적 방어력 무시
; 2338 : 				lpObj->SetOpIgnoreDefense += ivalue;			

  002b5	8b 45 08	 mov	 eax, DWORD PTR _lpObj$[ebp]
  002b8	0f b6 88 46 0f
	00 00		 movzx	 ecx, BYTE PTR [eax+3910]
  002bf	03 4d 10	 add	 ecx, DWORD PTR _ivalue$[ebp]
  002c2	8b 55 08	 mov	 edx, DWORD PTR _lpObj$[ebp]
  002c5	88 8a 46 0f 00
	00		 mov	 BYTE PTR [edx+3910], cl

; 2339 : #ifndef EXTEND_LOG_SYSTEM_20060202
; 2340 : 				LogAddTD("[%s][%s] 적 방어력 무시 %d퍼센트 %d", lpObj->AccountID, lpObj->Name, ivalue, lpObj->SetOpIgnoreDefense);

  002cb	8b 45 08	 mov	 eax, DWORD PTR _lpObj$[ebp]
  002ce	0f b6 88 46 0f
	00 00		 movzx	 ecx, BYTE PTR [eax+3910]
  002d5	51		 push	 ecx
  002d6	8b 55 10	 mov	 edx, DWORD PTR _ivalue$[ebp]
  002d9	52		 push	 edx
  002da	8b 45 08	 mov	 eax, DWORD PTR _lpObj$[ebp]
  002dd	83 c0 73	 add	 eax, 115		; 00000073H
  002e0	50		 push	 eax
  002e1	8b 4d 08	 mov	 ecx, DWORD PTR _lpObj$[ebp]
  002e4	83 c1 68	 add	 ecx, 104		; 00000068H
  002e7	51		 push	 ecx
  002e8	68 00 00 00 00	 push	 OFFSET ??_C@_0CE@FMDHIPCH@?$FL?$CFs?$FN?$FL?$CFs?$FN?5?$MA?$PL?5?$LJ?f?$LO?n?$LH?B?5?$LJ?$KL?$LN?C?5?$CFd?F?$NL?$LM?$LO?F@
  002ed	ff 15 00 00 00
	00		 call	 DWORD PTR ?LogAddTD@@3P6AXPADZZA ; LogAddTD
  002f3	83 c4 14	 add	 esp, 20			; 00000014H

; 2341 : #endif
; 2342 : 
; 2343 : #if TESTSERVER == 1
; 2344 : 				wsprintf(szText, "적 방어력 무시 %d퍼센트 %d", ivalue, lpObj->SetOpIgnoreDefense);
; 2345 : 				GCServerMsgStringSend(szText, lpObj->m_Index, 1);	
; 2346 : #endif
; 2347 : 			}
; 2348 : 		break;

  002f6	e9 4b 06 00 00	 jmp	 $LN1@gObjSetIte
$LN15@gObjSetIte:

; 2349 : 
; 2350 : 		case AT_SET_OPTION_IMPROVE_MAXLIFE:
; 2351 : 			{	//	최대 생명력 증가
; 2352 : 				lpObj->AddLife += ivalue;

  002fb	8b 45 08	 mov	 eax, DWORD PTR _lpObj$[ebp]
  002fe	8b 88 0c 01 00
	00		 mov	 ecx, DWORD PTR [eax+268]
  00304	03 4d 10	 add	 ecx, DWORD PTR _ivalue$[ebp]
  00307	8b 55 08	 mov	 edx, DWORD PTR _lpObj$[ebp]
  0030a	89 8a 0c 01 00
	00		 mov	 DWORD PTR [edx+268], ecx

; 2353 : #ifndef EXTEND_LOG_SYSTEM_20060202
; 2354 : 				LogAddTD("[%s][%s] 최대 생명력 증가 +%d %d", lpObj->AccountID, lpObj->Name, ivalue, lpObj->AddLife);

  00310	8b 45 08	 mov	 eax, DWORD PTR _lpObj$[ebp]
  00313	8b 88 0c 01 00
	00		 mov	 ecx, DWORD PTR [eax+268]
  00319	51		 push	 ecx
  0031a	8b 55 10	 mov	 edx, DWORD PTR _ivalue$[ebp]
  0031d	52		 push	 edx
  0031e	8b 45 08	 mov	 eax, DWORD PTR _lpObj$[ebp]
  00321	83 c0 73	 add	 eax, 115		; 00000073H
  00324	50		 push	 eax
  00325	8b 4d 08	 mov	 ecx, DWORD PTR _lpObj$[ebp]
  00328	83 c1 68	 add	 ecx, 104		; 00000068H
  0032b	51		 push	 ecx
  0032c	68 00 00 00 00	 push	 OFFSET ??_C@_0CB@COGOBJDJ@?$FL?$CFs?$FN?$FL?$CFs?$FN?5?C?V?$LE?k?5?$LL?$PN?$LI?m?$LH?B?5?A?u?$LA?$KB?5?$CL?$CFd?5?$CF@
  00331	ff 15 00 00 00
	00		 call	 DWORD PTR ?LogAddTD@@3P6AXPADZZA ; LogAddTD
  00337	83 c4 14	 add	 esp, 20			; 00000014H

; 2355 : #endif
; 2356 : 
; 2357 : #if TESTSERVER == 1
; 2358 : 				wsprintf(szText, "최대 생명력 증가 +%d %d", ivalue, lpObj->AddLife);
; 2359 : 				GCServerMsgStringSend(szText, lpObj->m_Index, 1);	
; 2360 : #endif
; 2361 : 			}
; 2362 : 		break;

  0033a	e9 07 06 00 00	 jmp	 $LN1@gObjSetIte
$LN16@gObjSetIte:

; 2363 : 		
; 2364 : 		case AT_SET_OPTION_IMPROVE_MAXMANA:
; 2365 : 			{	//	최대 마나 증가
; 2366 : 				lpObj->AddMana += ivalue;

  0033f	8b 45 08	 mov	 eax, DWORD PTR _lpObj$[ebp]
  00342	8b 88 10 01 00
	00		 mov	 ecx, DWORD PTR [eax+272]
  00348	03 4d 10	 add	 ecx, DWORD PTR _ivalue$[ebp]
  0034b	8b 55 08	 mov	 edx, DWORD PTR _lpObj$[ebp]
  0034e	89 8a 10 01 00
	00		 mov	 DWORD PTR [edx+272], ecx

; 2367 : #ifndef EXTEND_LOG_SYSTEM_20060202
; 2368 : 				LogAddTD("[%s][%s] 최대 마나 증가 +%d %d", lpObj->AccountID, lpObj->Name, ivalue, lpObj->AddMana);

  00354	8b 45 08	 mov	 eax, DWORD PTR _lpObj$[ebp]
  00357	8b 88 10 01 00
	00		 mov	 ecx, DWORD PTR [eax+272]
  0035d	51		 push	 ecx
  0035e	8b 55 10	 mov	 edx, DWORD PTR _ivalue$[ebp]
  00361	52		 push	 edx
  00362	8b 45 08	 mov	 eax, DWORD PTR _lpObj$[ebp]
  00365	83 c0 73	 add	 eax, 115		; 00000073H
  00368	50		 push	 eax
  00369	8b 4d 08	 mov	 ecx, DWORD PTR _lpObj$[ebp]
  0036c	83 c1 68	 add	 ecx, 104		; 00000068H
  0036f	51		 push	 ecx
  00370	68 00 00 00 00	 push	 OFFSET ??_C@_0BP@OPBNCLKG@?$FL?$CFs?$FN?$FL?$CFs?$FN?5?C?V?$LE?k?5?$LI?$LG?$LD?$KK?5?A?u?$LA?$KB?5?$CL?$CFd?5?$CFd@
  00375	ff 15 00 00 00
	00		 call	 DWORD PTR ?LogAddTD@@3P6AXPADZZA ; LogAddTD
  0037b	83 c4 14	 add	 esp, 20			; 00000014H

; 2369 : #endif
; 2370 : 
; 2371 : #if TESTSERVER == 1
; 2372 : 				wsprintf(szText, "최대 마나 증가 +%d %d", ivalue, lpObj->AddMana);
; 2373 : 				GCServerMsgStringSend(szText, lpObj->m_Index, 1);	
; 2374 : #endif
; 2375 : 			}
; 2376 : 		break;

  0037e	e9 c3 05 00 00	 jmp	 $LN1@gObjSetIte
$LN17@gObjSetIte:

; 2377 : 		
; 2378 : 		case AT_SET_OPTION_IMPROVE_MAXAG:
; 2379 : 			{	//	최대 AG 증가		            	(서버에서 정보를 받는다.)
; 2380 : 				lpObj->AddBP += ivalue;

  00383	8b 45 08	 mov	 eax, DWORD PTR _lpObj$[ebp]
  00386	8b 88 f0 00 00
	00		 mov	 ecx, DWORD PTR [eax+240]
  0038c	03 4d 10	 add	 ecx, DWORD PTR _ivalue$[ebp]
  0038f	8b 55 08	 mov	 edx, DWORD PTR _lpObj$[ebp]
  00392	89 8a f0 00 00
	00		 mov	 DWORD PTR [edx+240], ecx

; 2381 : #ifndef EXTEND_LOG_SYSTEM_20060202
; 2382 : 				LogAddTD("[%s][%s] 최대 AG %d퍼센트 증가 %d", lpObj->AccountID, lpObj->Name, ivalue, lpObj->AddBP);

  00398	8b 45 08	 mov	 eax, DWORD PTR _lpObj$[ebp]
  0039b	8b 88 f0 00 00
	00		 mov	 ecx, DWORD PTR [eax+240]
  003a1	51		 push	 ecx
  003a2	8b 55 10	 mov	 edx, DWORD PTR _ivalue$[ebp]
  003a5	52		 push	 edx
  003a6	8b 45 08	 mov	 eax, DWORD PTR _lpObj$[ebp]
  003a9	83 c0 73	 add	 eax, 115		; 00000073H
  003ac	50		 push	 eax
  003ad	8b 4d 08	 mov	 ecx, DWORD PTR _lpObj$[ebp]
  003b0	83 c1 68	 add	 ecx, 104		; 00000068H
  003b3	51		 push	 ecx
  003b4	68 00 00 00 00	 push	 OFFSET ??_C@_0CC@FJOADNPF@?$FL?$CFs?$FN?$FL?$CFs?$FN?5?C?V?$LE?k?5AG?5?$CFd?F?$NL?$LM?$LO?F?$KO?5?A?u?$LA?$KB?5@
  003b9	ff 15 00 00 00
	00		 call	 DWORD PTR ?LogAddTD@@3P6AXPADZZA ; LogAddTD
  003bf	83 c4 14	 add	 esp, 20			; 00000014H

; 2383 : #endif
; 2384 : 
; 2385 : #if TESTSERVER == 1
; 2386 : 				wsprintf(szText, "최대 AG %d퍼센트 증가 %d", ivalue, lpObj->AddBP);
; 2387 : 				GCServerMsgStringSend(szText, lpObj->m_Index, 1);	
; 2388 : #endif
; 2389 : 			}
; 2390 : 		break;

  003c2	e9 7f 05 00 00	 jmp	 $LN1@gObjSetIte
$LN18@gObjSetIte:

; 2391 : 
; 2392 : 		case AT_SET_OPTION_IMPROVE_AG_VALUE:
; 2393 : 			{	//	AG증가량 증가
; 2394 : 				lpObj->SetOpIncAGValue += ivalue;

  003c7	8b 45 08	 mov	 eax, DWORD PTR _lpObj$[ebp]
  003ca	0f bf 88 36 0f
	00 00		 movsx	 ecx, WORD PTR [eax+3894]
  003d1	03 4d 10	 add	 ecx, DWORD PTR _ivalue$[ebp]
  003d4	8b 55 08	 mov	 edx, DWORD PTR _lpObj$[ebp]
  003d7	66 89 8a 36 0f
	00 00		 mov	 WORD PTR [edx+3894], cx

; 2395 : #ifndef EXTEND_LOG_SYSTEM_20060202
; 2396 : 				LogAddTD("[%s][%s] AG증가량 %d 증가 %d", lpObj->AccountID, lpObj->Name, ivalue, lpObj->SetOpIncAGValue);

  003de	8b 45 08	 mov	 eax, DWORD PTR _lpObj$[ebp]
  003e1	0f bf 88 36 0f
	00 00		 movsx	 ecx, WORD PTR [eax+3894]
  003e8	51		 push	 ecx
  003e9	8b 55 10	 mov	 edx, DWORD PTR _ivalue$[ebp]
  003ec	52		 push	 edx
  003ed	8b 45 08	 mov	 eax, DWORD PTR _lpObj$[ebp]
  003f0	83 c0 73	 add	 eax, 115		; 00000073H
  003f3	50		 push	 eax
  003f4	8b 4d 08	 mov	 ecx, DWORD PTR _lpObj$[ebp]
  003f7	83 c1 68	 add	 ecx, 104		; 00000068H
  003fa	51		 push	 ecx
  003fb	68 00 00 00 00	 push	 OFFSET ??_C@_0BN@KMNLDLFB@?$FL?$CFs?$FN?$FL?$CFs?$FN?5AG?A?u?$LA?$KB?$LH?$KO?5?$CFd?5?A?u?$LA?$KB?5?$CFd@
  00400	ff 15 00 00 00
	00		 call	 DWORD PTR ?LogAddTD@@3P6AXPADZZA ; LogAddTD
  00406	83 c4 14	 add	 esp, 20			; 00000014H

; 2397 : #endif
; 2398 : 
; 2399 : #if TESTSERVER == 1
; 2400 : 				wsprintf(szText, "AG증가량 %d 증가 %d", ivalue, lpObj->SetOpIncAGValue);
; 2401 : 				GCServerMsgStringSend(szText, lpObj->m_Index, 1);	
; 2402 : #endif
; 2403 : 			}
; 2404 : 		break;

  00409	e9 38 05 00 00	 jmp	 $LN1@gObjSetIte
$LN19@gObjSetIte:

; 2405 : 
; 2406 : 		
; 2407 : 		case AT_SET_OPTION_IMPROVE_CRITICALDAMAGE:
; 2408 : 			{	//	크리티컬 데미지 증가
; 2409 : 				lpObj->SetOpAddCriticalDamage += ivalue;

  0040e	8b 45 08	 mov	 eax, DWORD PTR _lpObj$[ebp]
  00411	0f bf 88 32 0f
	00 00		 movsx	 ecx, WORD PTR [eax+3890]
  00418	03 4d 10	 add	 ecx, DWORD PTR _ivalue$[ebp]
  0041b	8b 55 08	 mov	 edx, DWORD PTR _lpObj$[ebp]
  0041e	66 89 8a 32 0f
	00 00		 mov	 WORD PTR [edx+3890], cx

; 2410 : #ifndef EXTEND_LOG_SYSTEM_20060202
; 2411 : 				LogAddTD("[%s][%s] 크리티컬 데미지 %d증가 %d", lpObj->AccountID, lpObj->Name, ivalue, lpObj->SetOpAddCriticalDamage);

  00425	8b 45 08	 mov	 eax, DWORD PTR _lpObj$[ebp]
  00428	0f bf 88 32 0f
	00 00		 movsx	 ecx, WORD PTR [eax+3890]
  0042f	51		 push	 ecx
  00430	8b 55 10	 mov	 edx, DWORD PTR _ivalue$[ebp]
  00433	52		 push	 edx
  00434	8b 45 08	 mov	 eax, DWORD PTR _lpObj$[ebp]
  00437	83 c0 73	 add	 eax, 115		; 00000073H
  0043a	50		 push	 eax
  0043b	8b 4d 08	 mov	 ecx, DWORD PTR _lpObj$[ebp]
  0043e	83 c1 68	 add	 ecx, 104		; 00000068H
  00441	51		 push	 ecx
  00442	68 00 00 00 00	 push	 OFFSET ??_C@_0CD@EOBGMEOP@?$FL?$CFs?$FN?$FL?$CFs?$FN?5?E?$KJ?$LI?$KO?F?$LM?D?C?5?$LF?$KF?$LJ?L?A?v?5?$CFd?A?u?$LA?$KB@
  00447	ff 15 00 00 00
	00		 call	 DWORD PTR ?LogAddTD@@3P6AXPADZZA ; LogAddTD
  0044d	83 c4 14	 add	 esp, 20			; 00000014H

; 2412 : #endif
; 2413 : 
; 2414 : #if TESTSERVER == 1
; 2415 : 				wsprintf(szText, "크리티컬 데미지 %d증가 %d", ivalue, lpObj->SetOpAddCriticalDamage);
; 2416 : 				GCServerMsgStringSend(szText, lpObj->m_Index, 1);	
; 2417 : #endif
; 2418 : 			}
; 2419 : 		break;

  00450	e9 f1 04 00 00	 jmp	 $LN1@gObjSetIte
$LN20@gObjSetIte:

; 2420 : 
; 2421 : 		case AT_SET_OPTION_IMPROVE_CRITICALDAMAGE_SUCCESS:
; 2422 : 			{	//	크리티컬 데미지 확률 증가
; 2423 : 				lpObj->SetOpAddCriticalDamageSuccessRate += ivalue;

  00455	8b 45 08	 mov	 eax, DWORD PTR _lpObj$[ebp]
  00458	0f bf 88 34 0f
	00 00		 movsx	 ecx, WORD PTR [eax+3892]
  0045f	03 4d 10	 add	 ecx, DWORD PTR _ivalue$[ebp]
  00462	8b 55 08	 mov	 edx, DWORD PTR _lpObj$[ebp]
  00465	66 89 8a 34 0f
	00 00		 mov	 WORD PTR [edx+3892], cx

; 2424 : #ifndef EXTEND_LOG_SYSTEM_20060202
; 2425 : 				LogAddTD("[%s][%s] 크리티컬 데미지 확률 %d증가 %d", lpObj->AccountID, lpObj->Name, ivalue, lpObj->SetOpAddCriticalDamageSuccessRate);

  0046c	8b 45 08	 mov	 eax, DWORD PTR _lpObj$[ebp]
  0046f	0f bf 88 34 0f
	00 00		 movsx	 ecx, WORD PTR [eax+3892]
  00476	51		 push	 ecx
  00477	8b 55 10	 mov	 edx, DWORD PTR _ivalue$[ebp]
  0047a	52		 push	 edx
  0047b	8b 45 08	 mov	 eax, DWORD PTR _lpObj$[ebp]
  0047e	83 c0 73	 add	 eax, 115		; 00000073H
  00481	50		 push	 eax
  00482	8b 4d 08	 mov	 ecx, DWORD PTR _lpObj$[ebp]
  00485	83 c1 68	 add	 ecx, 104		; 00000068H
  00488	51		 push	 ecx
  00489	68 00 00 00 00	 push	 OFFSET ??_C@_0CI@HBACHEPA@?$FL?$CFs?$FN?$FL?$CFs?$FN?5?E?$KJ?$LI?$KO?F?$LM?D?C?5?$LF?$KF?$LJ?L?A?v?5?H?$KO?$LH?$PM?5?$CF@
  0048e	ff 15 00 00 00
	00		 call	 DWORD PTR ?LogAddTD@@3P6AXPADZZA ; LogAddTD
  00494	83 c4 14	 add	 esp, 20			; 00000014H

; 2426 : #endif
; 2427 : 
; 2428 : #if TESTSERVER == 1
; 2429 : 				wsprintf(szText, "크리티컬 데미지 확률 %d증가 %d", ivalue, lpObj->SetOpAddCriticalDamageSuccessRate);
; 2430 : 				GCServerMsgStringSend(szText, lpObj->m_Index, 1);	
; 2431 : #endif
; 2432 : 			}
; 2433 : 		break;

  00497	e9 aa 04 00 00	 jmp	 $LN1@gObjSetIte
$LN21@gObjSetIte:

; 2434 : 
; 2435 : 
; 2436 : 		case AT_SET_OPTION_IMPROVE_EX_DAMAGE:
; 2437 : 			{	//	엑설런트  데미지 증가
; 2438 : 				lpObj->SetOpAddExDamage += ivalue;

  0049c	8b 45 08	 mov	 eax, DWORD PTR _lpObj$[ebp]
  0049f	0f bf 88 2e 0f
	00 00		 movsx	 ecx, WORD PTR [eax+3886]
  004a6	03 4d 10	 add	 ecx, DWORD PTR _ivalue$[ebp]
  004a9	8b 55 08	 mov	 edx, DWORD PTR _lpObj$[ebp]
  004ac	66 89 8a 2e 0f
	00 00		 mov	 WORD PTR [edx+3886], cx

; 2439 : #ifndef EXTEND_LOG_SYSTEM_20060202
; 2440 : 				LogAddTD("[%s][%s] 엑설런트 데미지 %d증가 %d", lpObj->AccountID, lpObj->Name, ivalue, lpObj->SetOpAddExDamage);

  004b3	8b 45 08	 mov	 eax, DWORD PTR _lpObj$[ebp]
  004b6	0f bf 88 2e 0f
	00 00		 movsx	 ecx, WORD PTR [eax+3886]
  004bd	51		 push	 ecx
  004be	8b 55 10	 mov	 edx, DWORD PTR _ivalue$[ebp]
  004c1	52		 push	 edx
  004c2	8b 45 08	 mov	 eax, DWORD PTR _lpObj$[ebp]
  004c5	83 c0 73	 add	 eax, 115		; 00000073H
  004c8	50		 push	 eax
  004c9	8b 4d 08	 mov	 ecx, DWORD PTR _lpObj$[ebp]
  004cc	83 c1 68	 add	 ecx, 104		; 00000068H
  004cf	51		 push	 ecx
  004d0	68 00 00 00 00	 push	 OFFSET ??_C@_0CD@MHJKHGBJ@?$FL?$CFs?$FN?$FL?$CFs?$FN?5?$LP?$KC?$LM?$LD?$LH?$LB?F?$KO?5?$LF?$KF?$LJ?L?A?v?5?$CFd?A?u?$LA?$KB@
  004d5	ff 15 00 00 00
	00		 call	 DWORD PTR ?LogAddTD@@3P6AXPADZZA ; LogAddTD
  004db	83 c4 14	 add	 esp, 20			; 00000014H

; 2441 : #endif
; 2442 : 
; 2443 : 
; 2444 : #if TESTSERVER == 1
; 2445 : 				wsprintf(szText, "엑설런트 데미지 %d증가 %d", ivalue, lpObj->SetOpAddExDamage);
; 2446 : 				GCServerMsgStringSend(szText, lpObj->m_Index, 1);	
; 2447 : #endif
; 2448 : 			}
; 2449 : 		break;

  004de	e9 63 04 00 00	 jmp	 $LN1@gObjSetIte
$LN22@gObjSetIte:

; 2450 : 
; 2451 : 		case AT_SET_OPTION_IMPROVE_EX_DAMAGE_SUCCESS:
; 2452 : 			{	//	엑설런트 데미지 확률 증가
; 2453 : 				lpObj->SetOpAddExDamageSuccessRate += ivalue;

  004e3	8b 45 08	 mov	 eax, DWORD PTR _lpObj$[ebp]
  004e6	0f bf 88 30 0f
	00 00		 movsx	 ecx, WORD PTR [eax+3888]
  004ed	03 4d 10	 add	 ecx, DWORD PTR _ivalue$[ebp]
  004f0	8b 55 08	 mov	 edx, DWORD PTR _lpObj$[ebp]
  004f3	66 89 8a 30 0f
	00 00		 mov	 WORD PTR [edx+3888], cx

; 2454 : #ifndef EXTEND_LOG_SYSTEM_20060202
; 2455 : 				LogAddTD("[%s][%s] 엑설런트 데미지 확률 %d증가 %d", lpObj->AccountID, lpObj->Name, ivalue, lpObj->SetOpAddExDamageSuccessRate);

  004fa	8b 45 08	 mov	 eax, DWORD PTR _lpObj$[ebp]
  004fd	0f bf 88 30 0f
	00 00		 movsx	 ecx, WORD PTR [eax+3888]
  00504	51		 push	 ecx
  00505	8b 55 10	 mov	 edx, DWORD PTR _ivalue$[ebp]
  00508	52		 push	 edx
  00509	8b 45 08	 mov	 eax, DWORD PTR _lpObj$[ebp]
  0050c	83 c0 73	 add	 eax, 115		; 00000073H
  0050f	50		 push	 eax
  00510	8b 4d 08	 mov	 ecx, DWORD PTR _lpObj$[ebp]
  00513	83 c1 68	 add	 ecx, 104		; 00000068H
  00516	51		 push	 ecx
  00517	68 00 00 00 00	 push	 OFFSET ??_C@_0CI@DGDJGPK@?$FL?$CFs?$FN?$FL?$CFs?$FN?5?$LP?$KC?$LM?$LD?$LH?$LB?F?$KO?5?$LF?$KF?$LJ?L?A?v?5?H?$KO?$LH?$PM?5?$CF@
  0051c	ff 15 00 00 00
	00		 call	 DWORD PTR ?LogAddTD@@3P6AXPADZZA ; LogAddTD
  00522	83 c4 14	 add	 esp, 20			; 00000014H

; 2456 : #endif
; 2457 : 
; 2458 : #if TESTSERVER == 1
; 2459 : 				wsprintf(szText, "엑설런트 데미지 확률 %d증가 %d", ivalue, lpObj->SetOpAddExDamageSuccessRate);
; 2460 : 				GCServerMsgStringSend(szText, lpObj->m_Index, 1);	
; 2461 : #endif
; 2462 : 			}
; 2463 : 		break;

  00525	e9 1c 04 00 00	 jmp	 $LN1@gObjSetIte
$LN23@gObjSetIte:

; 2464 : 
; 2465 : 		case AT_SET_OPTION_IMPROVE_SKILLDAMAGE:
; 2466 : 			{	//	스킬 공격력 증가
; 2467 : 				lpObj->SetOpAddSkillAttack += ivalue;

  0052a	8b 45 08	 mov	 eax, DWORD PTR _lpObj$[ebp]
  0052d	0f bf 88 2c 0f
	00 00		 movsx	 ecx, WORD PTR [eax+3884]
  00534	03 4d 10	 add	 ecx, DWORD PTR _ivalue$[ebp]
  00537	8b 55 08	 mov	 edx, DWORD PTR _lpObj$[ebp]
  0053a	66 89 8a 2c 0f
	00 00		 mov	 WORD PTR [edx+3884], cx

; 2468 : #ifndef EXTEND_LOG_SYSTEM_20060202
; 2469 : 				LogAddTD("[%s][%s] 스킬 공격력 %d증가 %d", lpObj->AccountID, lpObj->Name, ivalue, lpObj->SetOpAddSkillAttack);

  00541	8b 45 08	 mov	 eax, DWORD PTR _lpObj$[ebp]
  00544	0f bf 88 2c 0f
	00 00		 movsx	 ecx, WORD PTR [eax+3884]
  0054b	51		 push	 ecx
  0054c	8b 55 10	 mov	 edx, DWORD PTR _ivalue$[ebp]
  0054f	52		 push	 edx
  00550	8b 45 08	 mov	 eax, DWORD PTR _lpObj$[ebp]
  00553	83 c0 73	 add	 eax, 115		; 00000073H
  00556	50		 push	 eax
  00557	8b 4d 08	 mov	 ecx, DWORD PTR _lpObj$[ebp]
  0055a	83 c1 68	 add	 ecx, 104		; 00000068H
  0055d	51		 push	 ecx
  0055e	68 00 00 00 00	 push	 OFFSET ??_C@_0BP@HNFEPEOH@?$FL?$CFs?$FN?$FL?$CFs?$FN?5?$LN?$LK?E?$LD?5?$LA?x?$LA?$NN?$LH?B?5?$CFd?A?u?$LA?$KB?5?$CFd@
  00563	ff 15 00 00 00
	00		 call	 DWORD PTR ?LogAddTD@@3P6AXPADZZA ; LogAddTD
  00569	83 c4 14	 add	 esp, 20			; 00000014H

; 2470 : #endif
; 2471 : 
; 2472 : #if TESTSERVER == 1
; 2473 : 				wsprintf(szText, "스킬 공격력 %d증가 %d", ivalue, lpObj->SetOpAddSkillAttack);
; 2474 : 				GCServerMsgStringSend(szText, lpObj->m_Index, 1);	
; 2475 : #endif
; 2476 : 			}
; 2477 : 		break;

  0056c	e9 d5 03 00 00	 jmp	 $LN1@gObjSetIte
$LN24@gObjSetIte:

; 2478 : 
; 2479 : 
; 2480 : 		case AT_SET_OPTION_IMPROVE_ATTACKDAMAGE_WITH_DEX:
; 2481 : 			{	//	특정 캐릭터 공격력 증가 민첩성/X
; 2482 : 				lpObj->SetOpAddAttackDamage += ((lpObj->Dexterity+lpObj->AddDexterity)/ivalue);

  00571	8b 45 08	 mov	 eax, DWORD PTR _lpObj$[ebp]
  00574	0f b7 80 b6 00
	00 00		 movzx	 eax, WORD PTR [eax+182]
  0057b	8b 4d 08	 mov	 ecx, DWORD PTR _lpObj$[ebp]
  0057e	0f b7 91 e2 00
	00 00		 movzx	 edx, WORD PTR [ecx+226]
  00585	03 c2		 add	 eax, edx
  00587	99		 cdq
  00588	f7 7d 10	 idiv	 DWORD PTR _ivalue$[ebp]
  0058b	8b 4d 08	 mov	 ecx, DWORD PTR _lpObj$[ebp]
  0058e	0f bf 91 3e 0f
	00 00		 movsx	 edx, WORD PTR [ecx+3902]
  00595	03 d0		 add	 edx, eax
  00597	8b 45 08	 mov	 eax, DWORD PTR _lpObj$[ebp]
  0059a	66 89 90 3e 0f
	00 00		 mov	 WORD PTR [eax+3902], dx

; 2483 : #ifndef EXTEND_LOG_SYSTEM_20060202
; 2484 : 				LogAddTD("[%s][%s] 특정 캐릭터 공격력 증가 민첩성/%d %d", lpObj->AccountID, lpObj->Name, ivalue, lpObj->SetOpAddAttackDamage);

  005a1	8b 45 08	 mov	 eax, DWORD PTR _lpObj$[ebp]
  005a4	0f bf 88 3e 0f
	00 00		 movsx	 ecx, WORD PTR [eax+3902]
  005ab	51		 push	 ecx
  005ac	8b 55 10	 mov	 edx, DWORD PTR _ivalue$[ebp]
  005af	52		 push	 edx
  005b0	8b 45 08	 mov	 eax, DWORD PTR _lpObj$[ebp]
  005b3	83 c0 73	 add	 eax, 115		; 00000073H
  005b6	50		 push	 eax
  005b7	8b 4d 08	 mov	 ecx, DWORD PTR _lpObj$[ebp]
  005ba	83 c1 68	 add	 ecx, 104		; 00000068H
  005bd	51		 push	 ecx
  005be	68 00 00 00 00	 push	 OFFSET ??_C@_0CO@GCGKCCGG@?$FL?$CFs?$FN?$FL?$CFs?$FN?5?F?$KP?A?$KE?5?D?$LD?$LI?$KP?E?M?5?$LA?x?$LA?$NN?$LH?B?5?A?u?$LA@
  005c3	ff 15 00 00 00
	00		 call	 DWORD PTR ?LogAddTD@@3P6AXPADZZA ; LogAddTD
  005c9	83 c4 14	 add	 esp, 20			; 00000014H

; 2485 : #endif
; 2486 : 
; 2487 : #if TESTSERVER == 1
; 2488 : 				wsprintf(szText, "특정 캐릭터 공격력 증가 민첩성/%d %d", ivalue, lpObj->SetOpAddAttackDamage);
; 2489 : 				GCServerMsgStringSend(szText, lpObj->m_Index, 1);	
; 2490 : #endif
; 2491 : 			}
; 2492 : 		break;

  005cc	e9 75 03 00 00	 jmp	 $LN1@gObjSetIte
$LN25@gObjSetIte:

; 2493 : 
; 2494 : 		case AT_SET_OPTION_IMPROVE_ATTACKDAMAGE_WITH_STR:
; 2495 : 			{	//	특정 캐릭터 공격력 증가 힘/x
; 2496 : 				lpObj->SetOpAddAttackDamage += ((lpObj->Strength+lpObj->AddStrength)/ivalue);

  005d1	8b 45 08	 mov	 eax, DWORD PTR _lpObj$[ebp]
  005d4	0f b7 80 b4 00
	00 00		 movzx	 eax, WORD PTR [eax+180]
  005db	8b 4d 08	 mov	 ecx, DWORD PTR _lpObj$[ebp]
  005de	0f b7 91 e0 00
	00 00		 movzx	 edx, WORD PTR [ecx+224]
  005e5	03 c2		 add	 eax, edx
  005e7	99		 cdq
  005e8	f7 7d 10	 idiv	 DWORD PTR _ivalue$[ebp]
  005eb	8b 4d 08	 mov	 ecx, DWORD PTR _lpObj$[ebp]
  005ee	0f bf 91 3e 0f
	00 00		 movsx	 edx, WORD PTR [ecx+3902]
  005f5	03 d0		 add	 edx, eax
  005f7	8b 45 08	 mov	 eax, DWORD PTR _lpObj$[ebp]
  005fa	66 89 90 3e 0f
	00 00		 mov	 WORD PTR [eax+3902], dx

; 2497 : #ifndef EXTEND_LOG_SYSTEM_20060202
; 2498 : 				LogAddTD("[%s][%s] 특정 캐릭터 공격력 증가 힘/%d %d", lpObj->AccountID, lpObj->Name, ivalue, lpObj->SetOpAddAttackDamage);

  00601	8b 45 08	 mov	 eax, DWORD PTR _lpObj$[ebp]
  00604	0f bf 88 3e 0f
	00 00		 movsx	 ecx, WORD PTR [eax+3902]
  0060b	51		 push	 ecx
  0060c	8b 55 10	 mov	 edx, DWORD PTR _ivalue$[ebp]
  0060f	52		 push	 edx
  00610	8b 45 08	 mov	 eax, DWORD PTR _lpObj$[ebp]
  00613	83 c0 73	 add	 eax, 115		; 00000073H
  00616	50		 push	 eax
  00617	8b 4d 08	 mov	 ecx, DWORD PTR _lpObj$[ebp]
  0061a	83 c1 68	 add	 ecx, 104		; 00000068H
  0061d	51		 push	 ecx
  0061e	68 00 00 00 00	 push	 OFFSET ??_C@_0CK@KBAHHLFK@?$FL?$CFs?$FN?$FL?$CFs?$FN?5?F?$KP?A?$KE?5?D?$LD?$LI?$KP?E?M?5?$LA?x?$LA?$NN?$LH?B?5?A?u?$LA@
  00623	ff 15 00 00 00
	00		 call	 DWORD PTR ?LogAddTD@@3P6AXPADZZA ; LogAddTD
  00629	83 c4 14	 add	 esp, 20			; 00000014H

; 2499 : #endif
; 2500 : 
; 2501 : #if TESTSERVER == 1
; 2502 : 				wsprintf(szText, "특정 캐릭터 공격력 증가 힘/%d %d", ivalue, lpObj->SetOpAddAttackDamage);
; 2503 : 				GCServerMsgStringSend(szText, lpObj->m_Index, 1);	
; 2504 : #endif
; 2505 : 			}
; 2506 : 		break;

  0062c	e9 15 03 00 00	 jmp	 $LN1@gObjSetIte
$LN26@gObjSetIte:

; 2507 : 
; 2508 : 		case AT_SET_OPTION_IMPROVE_MAGICDAMAGE_WITH_ENERGY:
; 2509 : 			{	//	특정 캐릭터 마력 증가 에너지/X
; 2510 : 				lpObj->SetOpAddMagicPower += ((lpObj->Energy+lpObj->AddEnergy)/ivalue);

  00631	8b 45 08	 mov	 eax, DWORD PTR _lpObj$[ebp]
  00634	0f b7 80 ba 00
	00 00		 movzx	 eax, WORD PTR [eax+186]
  0063b	8b 4d 08	 mov	 ecx, DWORD PTR _lpObj$[ebp]
  0063e	0f b7 91 e6 00
	00 00		 movzx	 edx, WORD PTR [ecx+230]
  00645	03 c2		 add	 eax, edx
  00647	99		 cdq
  00648	f7 7d 10	 idiv	 DWORD PTR _ivalue$[ebp]
  0064b	8b 4d 08	 mov	 ecx, DWORD PTR _lpObj$[ebp]
  0064e	0f bf 91 44 0f
	00 00		 movsx	 edx, WORD PTR [ecx+3908]
  00655	03 d0		 add	 edx, eax
  00657	8b 45 08	 mov	 eax, DWORD PTR _lpObj$[ebp]
  0065a	66 89 90 44 0f
	00 00		 mov	 WORD PTR [eax+3908], dx

; 2511 : #ifndef EXTEND_LOG_SYSTEM_20060202
; 2512 : 				LogAddTD("[%s][%s] 특정 캐릭터 마력 증가 에너지/%d %d", lpObj->AccountID, lpObj->Name, ivalue, lpObj->SetOpAddMagicPower);

  00661	8b 45 08	 mov	 eax, DWORD PTR _lpObj$[ebp]
  00664	0f bf 88 44 0f
	00 00		 movsx	 ecx, WORD PTR [eax+3908]
  0066b	51		 push	 ecx
  0066c	8b 55 10	 mov	 edx, DWORD PTR _ivalue$[ebp]
  0066f	52		 push	 edx
  00670	8b 45 08	 mov	 eax, DWORD PTR _lpObj$[ebp]
  00673	83 c0 73	 add	 eax, 115		; 00000073H
  00676	50		 push	 eax
  00677	8b 4d 08	 mov	 ecx, DWORD PTR _lpObj$[ebp]
  0067a	83 c1 68	 add	 ecx, 104		; 00000068H
  0067d	51		 push	 ecx
  0067e	68 00 00 00 00	 push	 OFFSET ??_C@_0CM@DGIFJEA@?$FL?$CFs?$FN?$FL?$CFs?$FN?5?F?$KP?A?$KE?5?D?$LD?$LI?$KP?E?M?5?$LI?$LG?$LH?B?5?A?u?$LA?$KB?5@
  00683	ff 15 00 00 00
	00		 call	 DWORD PTR ?LogAddTD@@3P6AXPADZZA ; LogAddTD
  00689	83 c4 14	 add	 esp, 20			; 00000014H

; 2513 : #endif
; 2514 : 
; 2515 : #if TESTSERVER == 1
; 2516 : 				wsprintf(szText, "특정 캐릭터 마력 증가 에너지/%d %d", ivalue, lpObj->SetOpAddMagicPower);
; 2517 : 				GCServerMsgStringSend(szText, lpObj->m_Index, 1);	
; 2518 : #endif
; 2519 : 			}
; 2520 : 		break;

  0068c	e9 b5 02 00 00	 jmp	 $LN1@gObjSetIte
$LN27@gObjSetIte:

; 2521 : 
; 2522 : 		case AT_SET_OPTION_IMPROVE_DEFENCE_WITH_DEX:
; 2523 : 			{	//	특정 캐릭터 방어력 증가 민첩/X
; 2524 : 				lpObj->SetOpAddDefence += (lpObj->Dexterity+lpObj->AddDexterity/ivalue);

  00691	8b 45 08	 mov	 eax, DWORD PTR _lpObj$[ebp]
  00694	0f b7 88 b6 00
	00 00		 movzx	 ecx, WORD PTR [eax+182]
  0069b	8b 55 08	 mov	 edx, DWORD PTR _lpObj$[ebp]
  0069e	0f b7 82 e2 00
	00 00		 movzx	 eax, WORD PTR [edx+226]
  006a5	99		 cdq
  006a6	f7 7d 10	 idiv	 DWORD PTR _ivalue$[ebp]
  006a9	03 c8		 add	 ecx, eax
  006ab	8b 45 08	 mov	 eax, DWORD PTR _lpObj$[ebp]
  006ae	0f bf 90 40 0f
	00 00		 movsx	 edx, WORD PTR [eax+3904]
  006b5	03 d1		 add	 edx, ecx
  006b7	8b 45 08	 mov	 eax, DWORD PTR _lpObj$[ebp]
  006ba	66 89 90 40 0f
	00 00		 mov	 WORD PTR [eax+3904], dx

; 2525 : #ifndef EXTEND_LOG_SYSTEM_20060202
; 2526 : 				LogAddTD("[%s][%s] 특정 캐릭터 방어력 증가 레벨/%d %d", lpObj->AccountID, lpObj->Name, ivalue, lpObj->SetOpAddDefence);

  006c1	8b 45 08	 mov	 eax, DWORD PTR _lpObj$[ebp]
  006c4	0f bf 88 40 0f
	00 00		 movsx	 ecx, WORD PTR [eax+3904]
  006cb	51		 push	 ecx
  006cc	8b 55 10	 mov	 edx, DWORD PTR _ivalue$[ebp]
  006cf	52		 push	 edx
  006d0	8b 45 08	 mov	 eax, DWORD PTR _lpObj$[ebp]
  006d3	83 c0 73	 add	 eax, 115		; 00000073H
  006d6	50		 push	 eax
  006d7	8b 4d 08	 mov	 ecx, DWORD PTR _lpObj$[ebp]
  006da	83 c1 68	 add	 ecx, 104		; 00000068H
  006dd	51		 push	 ecx
  006de	68 00 00 00 00	 push	 OFFSET ??_C@_0CM@MGOKEJHP@?$FL?$CFs?$FN?$FL?$CFs?$FN?5?F?$KP?A?$KE?5?D?$LD?$LI?$KP?E?M?5?$LJ?f?$LO?n?$LH?B?5?A?u?$LA@
  006e3	ff 15 00 00 00
	00		 call	 DWORD PTR ?LogAddTD@@3P6AXPADZZA ; LogAddTD
  006e9	83 c4 14	 add	 esp, 20			; 00000014H

; 2527 : #endif
; 2528 : 
; 2529 : #if TESTSERVER == 1
; 2530 : 				wsprintf(szText, "특정 캐릭터 방어력 증가 레벨/%d %d", ivalue, lpObj->SetOpAddDefence);
; 2531 : 				GCServerMsgStringSend(szText, lpObj->m_Index, 1);	
; 2532 : #endif
; 2533 : 			}
; 2534 : 		break;

  006ec	e9 55 02 00 00	 jmp	 $LN1@gObjSetIte
$LN28@gObjSetIte:

; 2535 : 
; 2536 : 		case AT_SET_OPTION_IMPROVE_DEFENCE_WITH_VIT:
; 2537 : 			{	//	특정 캐릭터 방어력 증가 체력/40	    (●)
; 2538 : 				lpObj->SetOpAddDefence += ((lpObj->Vitality+lpObj->AddVitality)/ivalue);

  006f1	8b 45 08	 mov	 eax, DWORD PTR _lpObj$[ebp]
  006f4	0f b7 80 b8 00
	00 00		 movzx	 eax, WORD PTR [eax+184]
  006fb	8b 4d 08	 mov	 ecx, DWORD PTR _lpObj$[ebp]
  006fe	0f b7 91 e4 00
	00 00		 movzx	 edx, WORD PTR [ecx+228]
  00705	03 c2		 add	 eax, edx
  00707	99		 cdq
  00708	f7 7d 10	 idiv	 DWORD PTR _ivalue$[ebp]
  0070b	8b 4d 08	 mov	 ecx, DWORD PTR _lpObj$[ebp]
  0070e	0f bf 91 40 0f
	00 00		 movsx	 edx, WORD PTR [ecx+3904]
  00715	03 d0		 add	 edx, eax
  00717	8b 45 08	 mov	 eax, DWORD PTR _lpObj$[ebp]
  0071a	66 89 90 40 0f
	00 00		 mov	 WORD PTR [eax+3904], dx

; 2539 : #ifndef EXTEND_LOG_SYSTEM_20060202
; 2540 : 				LogAddTD("[%s][%s] 특정 캐릭터 방어력 증가 체력/%d %d", lpObj->AccountID, lpObj->Name, ivalue, lpObj->SetOpAddDefence);

  00721	8b 45 08	 mov	 eax, DWORD PTR _lpObj$[ebp]
  00724	0f bf 88 40 0f
	00 00		 movsx	 ecx, WORD PTR [eax+3904]
  0072b	51		 push	 ecx
  0072c	8b 55 10	 mov	 edx, DWORD PTR _ivalue$[ebp]
  0072f	52		 push	 edx
  00730	8b 45 08	 mov	 eax, DWORD PTR _lpObj$[ebp]
  00733	83 c0 73	 add	 eax, 115		; 00000073H
  00736	50		 push	 eax
  00737	8b 4d 08	 mov	 ecx, DWORD PTR _lpObj$[ebp]
  0073a	83 c1 68	 add	 ecx, 104		; 00000068H
  0073d	51		 push	 ecx
  0073e	68 00 00 00 00	 push	 OFFSET ??_C@_0CM@HHMOKMC@?$FL?$CFs?$FN?$FL?$CFs?$FN?5?F?$KP?A?$KE?5?D?$LD?$LI?$KP?E?M?5?$LJ?f?$LO?n?$LH?B?5?A?u?$LA@
  00743	ff 15 00 00 00
	00		 call	 DWORD PTR ?LogAddTD@@3P6AXPADZZA ; LogAddTD
  00749	83 c4 14	 add	 esp, 20			; 00000014H

; 2541 : #endif
; 2542 : 
; 2543 : #if TESTSERVER == 1
; 2544 : 				wsprintf(szText, "특정 캐릭터 방어력 증가 체력/%d %d", ivalue, lpObj->SetOpAddDefence);
; 2545 : 				GCServerMsgStringSend(szText, lpObj->m_Index, 1);	
; 2546 : #endif
; 2547 : 			}
; 2548 : 		break;

  0074c	e9 f5 01 00 00	 jmp	 $LN1@gObjSetIte
$LN29@gObjSetIte:

; 2549 : 
; 2550 : 		case AT_SET_OPTION_FIRE_MASTERY:
; 2551 : 			{	//	특정 캐릭터 불속성 추가
; 2552 : #ifndef EXTEND_LOG_SYSTEM_20060202
; 2553 : 				LogAddTD("[%s][%s] 특정 캐릭터 불속성 추가", lpObj->AccountID, lpObj->Name);

  00751	8b 45 08	 mov	 eax, DWORD PTR _lpObj$[ebp]
  00754	83 c0 73	 add	 eax, 115		; 00000073H
  00757	50		 push	 eax
  00758	8b 4d 08	 mov	 ecx, DWORD PTR _lpObj$[ebp]
  0075b	83 c1 68	 add	 ecx, 104		; 00000068H
  0075e	51		 push	 ecx
  0075f	68 00 00 00 00	 push	 OFFSET ??_C@_0CB@IEPMKKNP@?$FL?$CFs?$FN?$FL?$CFs?$FN?5?F?$KP?A?$KE?5?D?$LD?$LI?$KP?E?M?5?$LK?R?$LM?S?$LM?$LK?5?C?$NP?$LA@
  00764	ff 15 00 00 00
	00		 call	 DWORD PTR ?LogAddTD@@3P6AXPADZZA ; LogAddTD
  0076a	83 c4 0c	 add	 esp, 12			; 0000000cH

; 2554 : #endif
; 2555 : 				lpObj->m_AddResistance[RESISTANCE_FIRE] += ivalue;

  0076d	b8 01 00 00 00	 mov	 eax, 1
  00772	6b c8 03	 imul	 ecx, eax, 3
  00775	8b 55 08	 mov	 edx, DWORD PTR _lpObj$[ebp]
  00778	0f b6 84 0a 3c
	03 00 00	 movzx	 eax, BYTE PTR [edx+ecx+828]
  00780	03 45 10	 add	 eax, DWORD PTR _ivalue$[ebp]
  00783	b9 01 00 00 00	 mov	 ecx, 1
  00788	6b d1 03	 imul	 edx, ecx, 3
  0078b	8b 4d 08	 mov	 ecx, DWORD PTR _lpObj$[ebp]
  0078e	88 84 11 3c 03
	00 00		 mov	 BYTE PTR [ecx+edx+828], al

; 2556 : 
; 2557 : #if TESTSERVER == 1
; 2558 : 				wsprintf(szText, "특정 캐릭터 불속성 추가");
; 2559 : 				GCServerMsgStringSend(szText, lpObj->m_Index, 1);	
; 2560 : #endif
; 2561 : 			}
; 2562 : 		break;

  00795	e9 ac 01 00 00	 jmp	 $LN1@gObjSetIte
$LN30@gObjSetIte:

; 2563 : 
; 2564 : 		case AT_SET_OPTION_ICE_MASTERY:
; 2565 : 			{	//	특정 캐릭터 얼음속성 추가
; 2566 : #ifndef EXTEND_LOG_SYSTEM_20060202
; 2567 : 				LogAddTD("[%s][%s] 특정 캐릭터 얼음속성 추가", lpObj->AccountID, lpObj->Name);

  0079a	8b 45 08	 mov	 eax, DWORD PTR _lpObj$[ebp]
  0079d	83 c0 73	 add	 eax, 115		; 00000073H
  007a0	50		 push	 eax
  007a1	8b 4d 08	 mov	 ecx, DWORD PTR _lpObj$[ebp]
  007a4	83 c1 68	 add	 ecx, 104		; 00000068H
  007a7	51		 push	 ecx
  007a8	68 00 00 00 00	 push	 OFFSET ??_C@_0CD@DGAOONIH@?$FL?$CFs?$FN?$FL?$CFs?$FN?5?F?$KP?A?$KE?5?D?$LD?$LI?$KP?E?M?5?$LO?s?$MA?$LN?$LM?S?$LM?$LK?5?C@
  007ad	ff 15 00 00 00
	00		 call	 DWORD PTR ?LogAddTD@@3P6AXPADZZA ; LogAddTD
  007b3	83 c4 0c	 add	 esp, 12			; 0000000cH

; 2568 : #endif
; 2569 : 				lpObj->m_AddResistance[RESISTANCE_COLD] += ivalue;

  007b6	b8 01 00 00 00	 mov	 eax, 1
  007bb	6b c8 00	 imul	 ecx, eax, 0
  007be	8b 55 08	 mov	 edx, DWORD PTR _lpObj$[ebp]
  007c1	0f b6 84 0a 3c
	03 00 00	 movzx	 eax, BYTE PTR [edx+ecx+828]
  007c9	03 45 10	 add	 eax, DWORD PTR _ivalue$[ebp]
  007cc	b9 01 00 00 00	 mov	 ecx, 1
  007d1	6b d1 00	 imul	 edx, ecx, 0
  007d4	8b 4d 08	 mov	 ecx, DWORD PTR _lpObj$[ebp]
  007d7	88 84 11 3c 03
	00 00		 mov	 BYTE PTR [ecx+edx+828], al

; 2570 : 
; 2571 : #if TESTSERVER == 1
; 2572 : 				wsprintf(szText, "특정 캐릭터 얼음속성 추가");
; 2573 : 				GCServerMsgStringSend(szText, lpObj->m_Index, 1);	
; 2574 : #endif
; 2575 : 			}
; 2576 : 		break;

  007de	e9 63 01 00 00	 jmp	 $LN1@gObjSetIte
$LN31@gObjSetIte:

; 2577 : 
; 2578 : 		case AT_SET_OPTION_THUNDER_MASTERY:
; 2579 : 			{	//	특정 캐릭터 번개속성 추가
; 2580 : #ifndef EXTEND_LOG_SYSTEM_20060202
; 2581 : 				LogAddTD("[%s][%s] 특정 캐릭터 번개속성 추가", lpObj->AccountID, lpObj->Name);

  007e3	8b 45 08	 mov	 eax, DWORD PTR _lpObj$[ebp]
  007e6	83 c0 73	 add	 eax, 115		; 00000073H
  007e9	50		 push	 eax
  007ea	8b 4d 08	 mov	 ecx, DWORD PTR _lpObj$[ebp]
  007ed	83 c1 68	 add	 ecx, 104		; 00000068H
  007f0	51		 push	 ecx
  007f1	68 00 00 00 00	 push	 OFFSET ??_C@_0CD@MCDGFCBG@?$FL?$CFs?$FN?$FL?$CFs?$FN?5?F?$KP?A?$KE?5?D?$LD?$LI?$KP?E?M?5?$LJ?x?$LA?$LD?$LM?S?$LM?$LK?5?C@
  007f6	ff 15 00 00 00
	00		 call	 DWORD PTR ?LogAddTD@@3P6AXPADZZA ; LogAddTD
  007fc	83 c4 0c	 add	 esp, 12			; 0000000cH

; 2582 : #endif
; 2583 : 				lpObj->m_AddResistance[RESISTANCE_THUNDER] += ivalue;

  007ff	b8 01 00 00 00	 mov	 eax, 1
  00804	d1 e0		 shl	 eax, 1
  00806	8b 4d 08	 mov	 ecx, DWORD PTR _lpObj$[ebp]
  00809	0f b6 94 01 3c
	03 00 00	 movzx	 edx, BYTE PTR [ecx+eax+828]
  00811	03 55 10	 add	 edx, DWORD PTR _ivalue$[ebp]
  00814	b8 01 00 00 00	 mov	 eax, 1
  00819	d1 e0		 shl	 eax, 1
  0081b	8b 4d 08	 mov	 ecx, DWORD PTR _lpObj$[ebp]
  0081e	88 94 01 3c 03
	00 00		 mov	 BYTE PTR [ecx+eax+828], dl

; 2584 : 
; 2585 : #if TESTSERVER == 1
; 2586 : 				wsprintf(szText, "특정 캐릭터 번개속성 추가");
; 2587 : 				GCServerMsgStringSend(szText, lpObj->m_Index, 1);	
; 2588 : #endif
; 2589 : 			}
; 2590 : 		break;

  00825	e9 1c 01 00 00	 jmp	 $LN1@gObjSetIte
$LN32@gObjSetIte:

; 2591 : 
; 2592 : 		case AT_SET_OPTION_POSION_MASTERY:
; 2593 : 			{	//	특정 캐릭터 독속성 추가		      
; 2594 : #ifndef EXTEND_LOG_SYSTEM_20060202
; 2595 : 				LogAddTD("[%s][%s] 특정 캐릭터 독속성 추가", lpObj->AccountID, lpObj->Name);

  0082a	8b 45 08	 mov	 eax, DWORD PTR _lpObj$[ebp]
  0082d	83 c0 73	 add	 eax, 115		; 00000073H
  00830	50		 push	 eax
  00831	8b 4d 08	 mov	 ecx, DWORD PTR _lpObj$[ebp]
  00834	83 c1 68	 add	 ecx, 104		; 00000068H
  00837	51		 push	 ecx
  00838	68 00 00 00 00	 push	 OFFSET ??_C@_0CB@BGGFNABE@?$FL?$CFs?$FN?$FL?$CFs?$FN?5?F?$KP?A?$KE?5?D?$LD?$LI?$KP?E?M?5?$LF?$LG?$LM?S?$LM?$LK?5?C?$NP?$LA@
  0083d	ff 15 00 00 00
	00		 call	 DWORD PTR ?LogAddTD@@3P6AXPADZZA ; LogAddTD
  00843	83 c4 0c	 add	 esp, 12			; 0000000cH

; 2596 : #endif
; 2597 : 				lpObj->m_AddResistance[RESISTANCE_POISON] += ivalue;

  00846	b8 01 00 00 00	 mov	 eax, 1
  0084b	c1 e0 00	 shl	 eax, 0
  0084e	8b 4d 08	 mov	 ecx, DWORD PTR _lpObj$[ebp]
  00851	0f b6 94 01 3c
	03 00 00	 movzx	 edx, BYTE PTR [ecx+eax+828]
  00859	03 55 10	 add	 edx, DWORD PTR _ivalue$[ebp]
  0085c	b8 01 00 00 00	 mov	 eax, 1
  00861	c1 e0 00	 shl	 eax, 0
  00864	8b 4d 08	 mov	 ecx, DWORD PTR _lpObj$[ebp]
  00867	88 94 01 3c 03
	00 00		 mov	 BYTE PTR [ecx+eax+828], dl

; 2598 : 
; 2599 : #if TESTSERVER == 1
; 2600 : 				wsprintf(szText, "특정 캐릭터 독속성 추가");
; 2601 : 				GCServerMsgStringSend(szText, lpObj->m_Index, 1);	
; 2602 : #endif
; 2603 : 			}
; 2604 : 		break;

  0086e	e9 d3 00 00 00	 jmp	 $LN1@gObjSetIte
$LN33@gObjSetIte:

; 2605 : 
; 2606 : 		case AT_SET_OPTION_WATER_MASTERY:
; 2607 : 			{	//	특정 캐릭터 물속성 추가			
; 2608 : #ifndef EXTEND_LOG_SYSTEM_20060202
; 2609 : 				LogAddTD("[%s][%s] 특정 캐릭터 물속성 추가", lpObj->AccountID, lpObj->Name);

  00873	8b 45 08	 mov	 eax, DWORD PTR _lpObj$[ebp]
  00876	83 c0 73	 add	 eax, 115		; 00000073H
  00879	50		 push	 eax
  0087a	8b 4d 08	 mov	 ecx, DWORD PTR _lpObj$[ebp]
  0087d	83 c1 68	 add	 ecx, 104		; 00000068H
  00880	51		 push	 ecx
  00881	68 00 00 00 00	 push	 OFFSET ??_C@_0CB@PLNKFHNG@?$FL?$CFs?$FN?$FL?$CFs?$FN?5?F?$KP?A?$KE?5?D?$LD?$LI?$KP?E?M?5?$LJ?$LA?$LM?S?$LM?$LK?5?C?$NP?$LA@
  00886	ff 15 00 00 00
	00		 call	 DWORD PTR ?LogAddTD@@3P6AXPADZZA ; LogAddTD
  0088c	83 c4 0c	 add	 esp, 12			; 0000000cH

; 2610 : #endif
; 2611 : 				lpObj->m_AddResistance[RESISTANCE_WATER] += ivalue;

  0088f	b8 01 00 00 00	 mov	 eax, 1
  00894	6b c8 06	 imul	 ecx, eax, 6
  00897	8b 55 08	 mov	 edx, DWORD PTR _lpObj$[ebp]
  0089a	0f b6 84 0a 3c
	03 00 00	 movzx	 eax, BYTE PTR [edx+ecx+828]
  008a2	03 45 10	 add	 eax, DWORD PTR _ivalue$[ebp]
  008a5	b9 01 00 00 00	 mov	 ecx, 1
  008aa	6b d1 06	 imul	 edx, ecx, 6
  008ad	8b 4d 08	 mov	 ecx, DWORD PTR _lpObj$[ebp]
  008b0	88 84 11 3c 03
	00 00		 mov	 BYTE PTR [ecx+edx+828], al

; 2612 : 
; 2613 : #if TESTSERVER == 1
; 2614 : 				wsprintf(szText, "특정 캐릭터 물속성 추가");
; 2615 : 				GCServerMsgStringSend(szText, lpObj->m_Index, 1);	
; 2616 : #endif
; 2617 : 			}
; 2618 : 		break;

  008b7	e9 8a 00 00 00	 jmp	 $LN1@gObjSetIte
$LN34@gObjSetIte:

; 2619 : 
; 2620 : 		case AT_SET_OPTION_WIND_MASTERY:
; 2621 : 			{	//	특정 캐릭터 바람속성 추가			    
; 2622 : #ifndef EXTEND_LOG_SYSTEM_20060202
; 2623 : 				LogAddTD("[%s][%s] 특정 캐릭터 바람속성 추가", lpObj->AccountID, lpObj->Name);

  008bc	8b 45 08	 mov	 eax, DWORD PTR _lpObj$[ebp]
  008bf	83 c0 73	 add	 eax, 115		; 00000073H
  008c2	50		 push	 eax
  008c3	8b 4d 08	 mov	 ecx, DWORD PTR _lpObj$[ebp]
  008c6	83 c1 68	 add	 ecx, 104		; 00000068H
  008c9	51		 push	 ecx
  008ca	68 00 00 00 00	 push	 OFFSET ??_C@_0CD@CFHCAPOL@?$FL?$CFs?$FN?$FL?$CFs?$FN?5?F?$KP?A?$KE?5?D?$LD?$LI?$KP?E?M?5?$LJ?Y?$LG?w?$LM?S?$LM?$LK?5?C@
  008cf	ff 15 00 00 00
	00		 call	 DWORD PTR ?LogAddTD@@3P6AXPADZZA ; LogAddTD
  008d5	83 c4 0c	 add	 esp, 12			; 0000000cH

; 2624 : #endif
; 2625 : 				lpObj->m_AddResistance[RESISTANCE_WIND] += ivalue;

  008d8	b8 01 00 00 00	 mov	 eax, 1
  008dd	6b c8 05	 imul	 ecx, eax, 5
  008e0	8b 55 08	 mov	 edx, DWORD PTR _lpObj$[ebp]
  008e3	0f b6 84 0a 3c
	03 00 00	 movzx	 eax, BYTE PTR [edx+ecx+828]
  008eb	03 45 10	 add	 eax, DWORD PTR _ivalue$[ebp]
  008ee	b9 01 00 00 00	 mov	 ecx, 1
  008f3	6b d1 05	 imul	 edx, ecx, 5
  008f6	8b 4d 08	 mov	 ecx, DWORD PTR _lpObj$[ebp]
  008f9	88 84 11 3c 03
	00 00		 mov	 BYTE PTR [ecx+edx+828], al

; 2626 : 
; 2627 : #if TESTSERVER == 1
; 2628 : 				wsprintf(szText, "특정 캐릭터 바람속성 추가");
; 2629 : 				GCServerMsgStringSend(szText, lpObj->m_Index, 1);	
; 2630 : #endif
; 2631 : 			}
; 2632 : 		break;

  00900	eb 44		 jmp	 SHORT $LN1@gObjSetIte
$LN35@gObjSetIte:

; 2633 : 
; 2634 : 		case AT_SET_OPTION_EARTH_MASTERY:
; 2635 : 			{	//	특정 캐릭터 땅속성 추가
; 2636 : #ifndef EXTEND_LOG_SYSTEM_20060202
; 2637 : 				LogAddTD("[%s][%s] 특정 캐릭터 땅속성 추가", lpObj->AccountID, lpObj->Name);

  00902	8b 45 08	 mov	 eax, DWORD PTR _lpObj$[ebp]
  00905	83 c0 73	 add	 eax, 115		; 00000073H
  00908	50		 push	 eax
  00909	8b 4d 08	 mov	 ecx, DWORD PTR _lpObj$[ebp]
  0090c	83 c1 68	 add	 ecx, 104		; 00000068H
  0090f	51		 push	 ecx
  00910	68 00 00 00 00	 push	 OFFSET ??_C@_0CB@FGOPKACO@?$FL?$CFs?$FN?$FL?$CFs?$FN?5?F?$KP?A?$KE?5?D?$LD?$LI?$KP?E?M?5?$LG?$KF?$LM?S?$LM?$LK?5?C?$NP?$LA@
  00915	ff 15 00 00 00
	00		 call	 DWORD PTR ?LogAddTD@@3P6AXPADZZA ; LogAddTD
  0091b	83 c4 0c	 add	 esp, 12			; 0000000cH

; 2638 : #endif
; 2639 : 				lpObj->m_AddResistance[RESISTANCE_EARTH] += ivalue;

  0091e	b8 01 00 00 00	 mov	 eax, 1
  00923	c1 e0 02	 shl	 eax, 2
  00926	8b 4d 08	 mov	 ecx, DWORD PTR _lpObj$[ebp]
  00929	0f b6 94 01 3c
	03 00 00	 movzx	 edx, BYTE PTR [ecx+eax+828]
  00931	03 55 10	 add	 edx, DWORD PTR _ivalue$[ebp]
  00934	b8 01 00 00 00	 mov	 eax, 1
  00939	c1 e0 02	 shl	 eax, 2
  0093c	8b 4d 08	 mov	 ecx, DWORD PTR _lpObj$[ebp]
  0093f	88 94 01 3c 03
	00 00		 mov	 BYTE PTR [ecx+eax+828], dl
$LN1@gObjSetIte:

; 2640 : 
; 2641 : #if TESTSERVER == 1
; 2642 : 				wsprintf(szText, "특정 캐릭터 땅속성 추가");
; 2643 : 				GCServerMsgStringSend(szText, lpObj->m_Index, 1);	
; 2644 : #endif
; 2645 : 			}
; 2646 : 		break;
; 2647 : 	}
; 2648 : }

  00946	5f		 pop	 edi
  00947	5e		 pop	 esi
  00948	5b		 pop	 ebx
  00949	8b e5		 mov	 esp, ebp
  0094b	5d		 pop	 ebp
  0094c	c3		 ret	 0
  0094d	0f 1f 00	 npad	 3
$LN37@gObjSetIte:
  00950	00 00 00 00	 DD	 $LN8@gObjSetIte
  00954	00 00 00 00	 DD	 $LN9@gObjSetIte
  00958	00 00 00 00	 DD	 $LN10@gObjSetIte
  0095c	00 00 00 00	 DD	 $LN11@gObjSetIte
  00960	00 00 00 00	 DD	 $LN12@gObjSetIte
  00964	00 00 00 00	 DD	 $LN13@gObjSetIte
  00968	00 00 00 00	 DD	 $LN15@gObjSetIte
  0096c	00 00 00 00	 DD	 $LN16@gObjSetIte
  00970	00 00 00 00	 DD	 $LN17@gObjSetIte
  00974	00 00 00 00	 DD	 $LN18@gObjSetIte
  00978	00 00 00 00	 DD	 $LN20@gObjSetIte
  0097c	00 00 00 00	 DD	 $LN19@gObjSetIte
  00980	00 00 00 00	 DD	 $LN22@gObjSetIte
  00984	00 00 00 00	 DD	 $LN21@gObjSetIte
  00988	00 00 00 00	 DD	 $LN23@gObjSetIte
  0098c	00 00 00 00	 DD	 $LN5@gObjSetIte
  00990	00 00 00 00	 DD	 $LN14@gObjSetIte
  00994	00 00 00 00	 DD	 $LN6@gObjSetIte
  00998	00 00 00 00	 DD	 $LN7@gObjSetIte
  0099c	00 00 00 00	 DD	 $LN25@gObjSetIte
  009a0	00 00 00 00	 DD	 $LN24@gObjSetIte
  009a4	00 00 00 00	 DD	 $LN27@gObjSetIte
  009a8	00 00 00 00	 DD	 $LN28@gObjSetIte
  009ac	00 00 00 00	 DD	 $LN26@gObjSetIte
  009b0	00 00 00 00	 DD	 $LN30@gObjSetIte
  009b4	00 00 00 00	 DD	 $LN32@gObjSetIte
  009b8	00 00 00 00	 DD	 $LN31@gObjSetIte
  009bc	00 00 00 00	 DD	 $LN29@gObjSetIte
  009c0	00 00 00 00	 DD	 $LN35@gObjSetIte
  009c4	00 00 00 00	 DD	 $LN34@gObjSetIte
  009c8	00 00 00 00	 DD	 $LN33@gObjSetIte
?gObjSetItemPlusSpecial@@YAXPAVOBJECTSTRUCT@@HH@Z ENDP	; gObjSetItemPlusSpecial
_TEXT	ENDS
; Function compile flags: /Odtp /ZI
; File C:\Mu Online\Mu-GS-Webzen-MC-10093\GameServer\ObjCalCharacter.cpp
;	COMDAT ?gObjSetItemStatPlusSpecial@@YAXPAVOBJECTSTRUCT@@HH@Z
_TEXT	SEGMENT
tv65 = -68						; size = 4
_lpObj$ = 8						; size = 4
_option$ = 12						; size = 4
_ivalue$ = 16						; size = 4
?gObjSetItemStatPlusSpecial@@YAXPAVOBJECTSTRUCT@@HH@Z PROC ; gObjSetItemStatPlusSpecial, COMDAT

; 2107 : {

  00000	55		 push	 ebp
  00001	8b ec		 mov	 ebp, esp
  00003	83 ec 44	 sub	 esp, 68			; 00000044H
  00006	53		 push	 ebx
  00007	56		 push	 esi
  00008	57		 push	 edi

; 2108 : 	if( option == -1 )

  00009	83 7d 0c ff	 cmp	 DWORD PTR _option$[ebp], -1
  0000d	75 05		 jne	 SHORT $LN4@gObjSetIte

; 2109 : 		return;	

  0000f	e9 81 01 00 00	 jmp	 $LN1@gObjSetIte
$LN4@gObjSetIte:

; 2110 : 
; 2111 : #if TESTSERVER == 1
; 2112 : 	char szText[255];	
; 2113 : #endif
; 2114 : 
; 2115 : 	switch(option)

  00014	8b 45 0c	 mov	 eax, DWORD PTR _option$[ebp]
  00017	89 45 bc	 mov	 DWORD PTR tv65[ebp], eax
  0001a	8b 4d bc	 mov	 ecx, DWORD PTR tv65[ebp]
  0001d	81 e9 a0 00 00
	00		 sub	 ecx, 160		; 000000a0H
  00023	89 4d bc	 mov	 DWORD PTR tv65[ebp], ecx
  00026	83 7d bc 04	 cmp	 DWORD PTR tv65[ebp], 4
  0002a	0f 87 65 01 00
	00		 ja	 $LN1@gObjSetIte
  00030	8b 55 bc	 mov	 edx, DWORD PTR tv65[ebp]
  00033	ff 24 95 00 00
	00 00		 jmp	 DWORD PTR $LN11@gObjSetIte[edx*4]
$LN5@gObjSetIte:

; 2116 : 	{
; 2117 : 		case AT_SET_OPTION_IMPROVE_STRENGTH:
; 2118 : 			{	//	힘 증가
; 2119 : 				lpObj->AddStrength += ivalue;

  0003a	8b 45 08	 mov	 eax, DWORD PTR _lpObj$[ebp]
  0003d	0f b7 88 e0 00
	00 00		 movzx	 ecx, WORD PTR [eax+224]
  00044	03 4d 10	 add	 ecx, DWORD PTR _ivalue$[ebp]
  00047	8b 55 08	 mov	 edx, DWORD PTR _lpObj$[ebp]
  0004a	66 89 8a e0 00
	00 00		 mov	 WORD PTR [edx+224], cx

; 2120 : #ifndef EXTEND_LOG_SYSTEM_20060202
; 2121 : 				LogAddTD("[%s][%s] 힘증가 +%d %d", lpObj->AccountID, lpObj->Name, ivalue, lpObj->AddStrength);

  00051	8b 45 08	 mov	 eax, DWORD PTR _lpObj$[ebp]
  00054	0f b7 88 e0 00
	00 00		 movzx	 ecx, WORD PTR [eax+224]
  0005b	51		 push	 ecx
  0005c	8b 55 10	 mov	 edx, DWORD PTR _ivalue$[ebp]
  0005f	52		 push	 edx
  00060	8b 45 08	 mov	 eax, DWORD PTR _lpObj$[ebp]
  00063	83 c0 73	 add	 eax, 115		; 00000073H
  00066	50		 push	 eax
  00067	8b 4d 08	 mov	 ecx, DWORD PTR _lpObj$[ebp]
  0006a	83 c1 68	 add	 ecx, 104		; 00000068H
  0006d	51		 push	 ecx
  0006e	68 00 00 00 00	 push	 OFFSET ??_C@_0BH@ONKKHHJG@?$FL?$CFs?$FN?$FL?$CFs?$FN?5?H?$PL?A?u?$LA?$KB?5?$CL?$CFd?5?$CFd@
  00073	ff 15 00 00 00
	00		 call	 DWORD PTR ?LogAddTD@@3P6AXPADZZA ; LogAddTD
  00079	83 c4 14	 add	 esp, 20			; 00000014H

; 2122 : #endif
; 2123 : 
; 2124 : #if TESTSERVER == 1
; 2125 : 				wsprintf(szText, "힘증가 +%d %d", ivalue, lpObj->AddStrength);
; 2126 : 				GCServerMsgStringSend(szText, lpObj->m_Index, 1);	
; 2127 : #endif
; 2128 : 
; 2129 : 			}
; 2130 : 		break;

  0007c	e9 14 01 00 00	 jmp	 $LN1@gObjSetIte
$LN6@gObjSetIte:

; 2131 : 
; 2132 : 		case AT_SET_OPTION_IMPROVE_DEXTERITY:
; 2133 : 			{	//	민첩성 증가
; 2134 : 				lpObj->AddDexterity += ivalue;

  00081	8b 45 08	 mov	 eax, DWORD PTR _lpObj$[ebp]
  00084	0f b7 88 e2 00
	00 00		 movzx	 ecx, WORD PTR [eax+226]
  0008b	03 4d 10	 add	 ecx, DWORD PTR _ivalue$[ebp]
  0008e	8b 55 08	 mov	 edx, DWORD PTR _lpObj$[ebp]
  00091	66 89 8a e2 00
	00 00		 mov	 WORD PTR [edx+226], cx

; 2135 : #ifndef EXTEND_LOG_SYSTEM_20060202
; 2136 : 				LogAddTD("[%s][%s] 민첩성 증가 +%d %d", lpObj->AccountID, lpObj->Name, ivalue, lpObj->AddDexterity);

  00098	8b 45 08	 mov	 eax, DWORD PTR _lpObj$[ebp]
  0009b	0f b7 88 e2 00
	00 00		 movzx	 ecx, WORD PTR [eax+226]
  000a2	51		 push	 ecx
  000a3	8b 55 10	 mov	 edx, DWORD PTR _ivalue$[ebp]
  000a6	52		 push	 edx
  000a7	8b 45 08	 mov	 eax, DWORD PTR _lpObj$[ebp]
  000aa	83 c0 73	 add	 eax, 115		; 00000073H
  000ad	50		 push	 eax
  000ae	8b 4d 08	 mov	 ecx, DWORD PTR _lpObj$[ebp]
  000b1	83 c1 68	 add	 ecx, 104		; 00000068H
  000b4	51		 push	 ecx
  000b5	68 00 00 00 00	 push	 OFFSET ??_C@_0BM@OEKJMCEF@?$FL?$CFs?$FN?$FL?$CFs?$FN?5?$LJ?N?C?$LI?$LM?$LK?5?A?u?$LA?$KB?5?$CL?$CFd?5?$CFd@
  000ba	ff 15 00 00 00
	00		 call	 DWORD PTR ?LogAddTD@@3P6AXPADZZA ; LogAddTD
  000c0	83 c4 14	 add	 esp, 20			; 00000014H

; 2137 : #endif
; 2138 : 
; 2139 : #if TESTSERVER == 1
; 2140 : 				wsprintf(szText, "민첩성 증가 +%d %d", ivalue, lpObj->AddDexterity);
; 2141 : 				GCServerMsgStringSend(szText, lpObj->m_Index, 1);	
; 2142 : #endif				
; 2143 : 			}
; 2144 : 		break;

  000c3	e9 cd 00 00 00	 jmp	 $LN1@gObjSetIte
$LN7@gObjSetIte:

; 2145 : 
; 2146 : 		case AT_SET_OPTION_IMPROVE_ENERGY:
; 2147 : 			{	//	에너지 증가
; 2148 : 				lpObj->AddEnergy += ivalue;

  000c8	8b 45 08	 mov	 eax, DWORD PTR _lpObj$[ebp]
  000cb	0f b7 88 e6 00
	00 00		 movzx	 ecx, WORD PTR [eax+230]
  000d2	03 4d 10	 add	 ecx, DWORD PTR _ivalue$[ebp]
  000d5	8b 55 08	 mov	 edx, DWORD PTR _lpObj$[ebp]
  000d8	66 89 8a e6 00
	00 00		 mov	 WORD PTR [edx+230], cx

; 2149 : #ifndef EXTEND_LOG_SYSTEM_20060202
; 2150 : 				LogAddTD("[%s][%s] 에너지 증가 +%d %d", lpObj->AccountID, lpObj->Name, ivalue, lpObj->AddEnergy);

  000df	8b 45 08	 mov	 eax, DWORD PTR _lpObj$[ebp]
  000e2	0f b7 88 e6 00
	00 00		 movzx	 ecx, WORD PTR [eax+230]
  000e9	51		 push	 ecx
  000ea	8b 55 10	 mov	 edx, DWORD PTR _ivalue$[ebp]
  000ed	52		 push	 edx
  000ee	8b 45 08	 mov	 eax, DWORD PTR _lpObj$[ebp]
  000f1	83 c0 73	 add	 eax, 115		; 00000073H
  000f4	50		 push	 eax
  000f5	8b 4d 08	 mov	 ecx, DWORD PTR _lpObj$[ebp]
  000f8	83 c1 68	 add	 ecx, 104		; 00000068H
  000fb	51		 push	 ecx
  000fc	68 00 00 00 00	 push	 OFFSET ??_C@_0BM@MFKNDDBL@?$FL?$CFs?$FN?$FL?$CFs?$FN?5?$LP?$KB?$LD?J?A?v?5?A?u?$LA?$KB?5?$CL?$CFd?5?$CFd@
  00101	ff 15 00 00 00
	00		 call	 DWORD PTR ?LogAddTD@@3P6AXPADZZA ; LogAddTD
  00107	83 c4 14	 add	 esp, 20			; 00000014H

; 2151 : #endif
; 2152 : 
; 2153 : #if TESTSERVER == 1
; 2154 : 				wsprintf(szText, "에너지 증가 +%d %d", ivalue, lpObj->AddEnergy);
; 2155 : 				GCServerMsgStringSend(szText, lpObj->m_Index, 1);	
; 2156 : #endif
; 2157 : 			}
; 2158 : 		break;

  0010a	e9 86 00 00 00	 jmp	 $LN1@gObjSetIte
$LN8@gObjSetIte:

; 2159 : 		
; 2160 : 		case AT_SET_OPTION_IMPROVE_VITALITY:
; 2161 : 			{	//	체력 증가
; 2162 : 				lpObj->AddVitality += ivalue;

  0010f	8b 45 08	 mov	 eax, DWORD PTR _lpObj$[ebp]
  00112	0f b7 88 e4 00
	00 00		 movzx	 ecx, WORD PTR [eax+228]
  00119	03 4d 10	 add	 ecx, DWORD PTR _ivalue$[ebp]
  0011c	8b 55 08	 mov	 edx, DWORD PTR _lpObj$[ebp]
  0011f	66 89 8a e4 00
	00 00		 mov	 WORD PTR [edx+228], cx

; 2163 : #ifndef EXTEND_LOG_SYSTEM_20060202
; 2164 : 				LogAddTD("[%s][%s] 체력 증가 +%d %d", lpObj->AccountID, lpObj->Name, ivalue, lpObj->AddVitality);

  00126	8b 45 08	 mov	 eax, DWORD PTR _lpObj$[ebp]
  00129	0f b7 88 e4 00
	00 00		 movzx	 ecx, WORD PTR [eax+228]
  00130	51		 push	 ecx
  00131	8b 55 10	 mov	 edx, DWORD PTR _ivalue$[ebp]
  00134	52		 push	 edx
  00135	8b 45 08	 mov	 eax, DWORD PTR _lpObj$[ebp]
  00138	83 c0 73	 add	 eax, 115		; 00000073H
  0013b	50		 push	 eax
  0013c	8b 4d 08	 mov	 ecx, DWORD PTR _lpObj$[ebp]
  0013f	83 c1 68	 add	 ecx, 104		; 00000068H
  00142	51		 push	 ecx
  00143	68 00 00 00 00	 push	 OFFSET ??_C@_0BK@FDGDAPMN@?$FL?$CFs?$FN?$FL?$CFs?$FN?5?C?$LM?$LH?B?5?A?u?$LA?$KB?5?$CL?$CFd?5?$CFd@
  00148	ff 15 00 00 00
	00		 call	 DWORD PTR ?LogAddTD@@3P6AXPADZZA ; LogAddTD
  0014e	83 c4 14	 add	 esp, 20			; 00000014H

; 2165 : #endif
; 2166 : 
; 2167 : #if TESTSERVER == 1
; 2168 : 				wsprintf(szText, "체력 증가 +%d %d", ivalue, lpObj->AddVitality);
; 2169 : 				GCServerMsgStringSend(szText, lpObj->m_Index, 1);	
; 2170 : #endif
; 2171 : 			}
; 2172 : 		break;

  00151	eb 42		 jmp	 SHORT $LN1@gObjSetIte
$LN9@gObjSetIte:

; 2173 : 
; 2174 : #ifdef MODIFY_SETITEM_LEADERSHIP_BUGFIX
; 2175 : 		case AT_SET_OPTION_IMPROVE_LEADERSHIP:
; 2176 : 			{	//	통솔 증가
; 2177 : 				lpObj->AddLeadership += ivalue;

  00153	8b 45 08	 mov	 eax, DWORD PTR _lpObj$[ebp]
  00156	0f b7 88 da 00
	00 00		 movzx	 ecx, WORD PTR [eax+218]
  0015d	03 4d 10	 add	 ecx, DWORD PTR _ivalue$[ebp]
  00160	8b 55 08	 mov	 edx, DWORD PTR _lpObj$[ebp]
  00163	66 89 8a da 00
	00 00		 mov	 WORD PTR [edx+218], cx

; 2178 : #ifndef EXTEND_LOG_SYSTEM_20060202
; 2179 : 				LogAddTD("[%s][%s] 통솔 증가 +%d %d", lpObj->AccountID, lpObj->Name, ivalue, lpObj->AddVitality);

  0016a	8b 45 08	 mov	 eax, DWORD PTR _lpObj$[ebp]
  0016d	0f b7 88 e4 00
	00 00		 movzx	 ecx, WORD PTR [eax+228]
  00174	51		 push	 ecx
  00175	8b 55 10	 mov	 edx, DWORD PTR _ivalue$[ebp]
  00178	52		 push	 edx
  00179	8b 45 08	 mov	 eax, DWORD PTR _lpObj$[ebp]
  0017c	83 c0 73	 add	 eax, 115		; 00000073H
  0017f	50		 push	 eax
  00180	8b 4d 08	 mov	 ecx, DWORD PTR _lpObj$[ebp]
  00183	83 c1 68	 add	 ecx, 104		; 00000068H
  00186	51		 push	 ecx
  00187	68 00 00 00 00	 push	 OFFSET ??_C@_0BK@GABNJNFN@?$FL?$CFs?$FN?$FL?$CFs?$FN?5?E?k?$LM?V?5?A?u?$LA?$KB?5?$CL?$CFd?5?$CFd@
  0018c	ff 15 00 00 00
	00		 call	 DWORD PTR ?LogAddTD@@3P6AXPADZZA ; LogAddTD
  00192	83 c4 14	 add	 esp, 20			; 00000014H
$LN1@gObjSetIte:

; 2180 : #endif // EXTEND_LOG_SYSTEM_20060202
; 2181 : 				
; 2182 : #if TESTSERVER == 1
; 2183 : 				wsprintf(szText, "통솔 증가 +%d %d", ivalue, lpObj->AddLeadership);
; 2184 : 				GCServerMsgStringSend(szText, lpObj->m_Index, 1);	
; 2185 : #endif //TESTSERVER
; 2186 : 			}
; 2187 : 		break;
; 2188 : #endif // MODIFY_SETITEM_LEADERSHIP_BUGFIX			
; 2189 : 		
; 2190 : 	}
; 2191 : }

  00195	5f		 pop	 edi
  00196	5e		 pop	 esi
  00197	5b		 pop	 ebx
  00198	8b e5		 mov	 esp, ebp
  0019a	5d		 pop	 ebp
  0019b	c3		 ret	 0
$LN11@gObjSetIte:
  0019c	00 00 00 00	 DD	 $LN5@gObjSetIte
  001a0	00 00 00 00	 DD	 $LN6@gObjSetIte
  001a4	00 00 00 00	 DD	 $LN7@gObjSetIte
  001a8	00 00 00 00	 DD	 $LN8@gObjSetIte
  001ac	00 00 00 00	 DD	 $LN9@gObjSetIte
?gObjSetItemStatPlusSpecial@@YAXPAVOBJECTSTRUCT@@HH@Z ENDP ; gObjSetItemStatPlusSpecial
_TEXT	ENDS
; Function compile flags: /Odtp /ZI
; File C:\Mu Online\Mu-GS-Webzen-MC-10093\GameServer\ObjCalCharacter.cpp
;	COMDAT ?gObjCalcSetItemOption@@YAXPAVOBJECTSTRUCT@@@Z
_TEXT	SEGMENT
_tablecnt$1 = -144					; size = 4
_OptionTableCount$2 = -140				; size = 4
_OptionTableIndex$3 = -136				; size = 4
_optioncount$4 = -132					; size = 4
_tablecnt$5 = -128					; size = 4
_OptionTableCount$6 = -124				; size = 4
_OptionTableIndex$7 = -120				; size = 4
_optioncount$8 = -116					; size = 4
_opvalue5$ = -112					; size = 4
_opvalue4$ = -108					; size = 4
_opvalue3$ = -104					; size = 4
_opvalue2$ = -100					; size = 4
_opvalue1$ = -96					; size = 4
_op5$ = -92						; size = 4
_op4$ = -88						; size = 4
_op3$ = -84						; size = 4
_op2$ = -80						; size = 4
_op1$ = -76						; size = 4
_SetOptionCount$ = -72					; size = 4
_SetOptionCountTable$ = -68				; size = 29
_SetOptionTable$ = -36					; size = 29
__$ArrayPad$ = -4					; size = 4
_lpObj$ = 8						; size = 4
?gObjCalcSetItemOption@@YAXPAVOBJECTSTRUCT@@@Z PROC	; gObjCalcSetItemOption, COMDAT

; 2011 : {

  00000	55		 push	 ebp
  00001	8b ec		 mov	 ebp, esp
  00003	81 ec d0 00 00
	00		 sub	 esp, 208		; 000000d0H
  00009	a1 00 00 00 00	 mov	 eax, DWORD PTR ___security_cookie
  0000e	33 c5		 xor	 eax, ebp
  00010	89 45 fc	 mov	 DWORD PTR __$ArrayPad$[ebp], eax
  00013	53		 push	 ebx
  00014	56		 push	 esi
  00015	57		 push	 edi

; 2012 : 	BYTE SetOptionTable[MAX_EQUIPMENT*2+5], SetOptionCountTable[MAX_EQUIPMENT*2+5];
; 2013 : 	int  SetOptionCount = 0;

  00016	c7 45 b8 00 00
	00 00		 mov	 DWORD PTR _SetOptionCount$[ebp], 0

; 2014 : 
; 2015 : 	memset(SetOptionTable, 0, sizeof(SetOptionTable));

  0001d	6a 1d		 push	 29			; 0000001dH
  0001f	6a 00		 push	 0
  00021	8d 45 dc	 lea	 eax, DWORD PTR _SetOptionTable$[ebp]
  00024	50		 push	 eax
  00025	e8 00 00 00 00	 call	 _memset
  0002a	83 c4 0c	 add	 esp, 12			; 0000000cH

; 2016 : 	memset(SetOptionCountTable, 0, sizeof(SetOptionCountTable));

  0002d	6a 1d		 push	 29			; 0000001dH
  0002f	6a 00		 push	 0
  00031	8d 45 bc	 lea	 eax, DWORD PTR _SetOptionCountTable$[ebp]
  00034	50		 push	 eax
  00035	e8 00 00 00 00	 call	 _memset
  0003a	83 c4 0c	 add	 esp, 12			; 0000000cH

; 2017 : 
; 2018 : 	gObjGetSetItemOption(lpObj, SetOptionTable, SetOptionCountTable, &SetOptionCount);

  0003d	8d 45 b8	 lea	 eax, DWORD PTR _SetOptionCount$[ebp]
  00040	50		 push	 eax
  00041	8d 4d bc	 lea	 ecx, DWORD PTR _SetOptionCountTable$[ebp]
  00044	51		 push	 ecx
  00045	8d 55 dc	 lea	 edx, DWORD PTR _SetOptionTable$[ebp]
  00048	52		 push	 edx
  00049	8b 45 08	 mov	 eax, DWORD PTR _lpObj$[ebp]
  0004c	50		 push	 eax
  0004d	e8 00 00 00 00	 call	 ?gObjGetSetItemOption@@YAXPAVOBJECTSTRUCT@@PAE1PAH@Z ; gObjGetSetItemOption
  00052	83 c4 10	 add	 esp, 16			; 00000010H

; 2019 : 
; 2020 : 	int	op1, op2, op3, op4, op5;
; 2021 : 	int	opvalue1, opvalue2, opvalue3, opvalue4, opvalue5;
; 2022 : 
; 2023 : //	LogAddC(LOGC_RED, "-------------스탯적용------------------");
; 2024 : 	// 옵션들 중에 스탯이 먼저 올라 가야 되는 것들이 있기 때문에.. 스탯 먼저 적용후에
; 2025 : 	// 나머지 옵션들을 적용한다
; 2026 : 	// 세트 아이템 옵션 적용 (스탯 먼저 적용)
; 2027 : 	for( int optioncount = 0; optioncount < SetOptionCount; optioncount++ )

  00055	c7 45 8c 00 00
	00 00		 mov	 DWORD PTR _optioncount$8[ebp], 0
  0005c	eb 09		 jmp	 SHORT $LN4@gObjCalcSe
$LN2@gObjCalcSe:
  0005e	8b 45 8c	 mov	 eax, DWORD PTR _optioncount$8[ebp]
  00061	83 c0 01	 add	 eax, 1
  00064	89 45 8c	 mov	 DWORD PTR _optioncount$8[ebp], eax
$LN4@gObjCalcSe:
  00067	8b 45 8c	 mov	 eax, DWORD PTR _optioncount$8[ebp]
  0006a	3b 45 b8	 cmp	 eax, DWORD PTR _SetOptionCount$[ebp]
  0006d	0f 8d d8 01 00
	00		 jge	 $LN3@gObjCalcSe

; 2028 : 	{
; 2029 : 		int OptionTableIndex = SetOptionTable[optioncount];

  00073	8b 45 8c	 mov	 eax, DWORD PTR _optioncount$8[ebp]
  00076	0f b6 4c 05 dc	 movzx	 ecx, BYTE PTR _SetOptionTable$[ebp+eax]
  0007b	89 4d 88	 mov	 DWORD PTR _OptionTableIndex$7[ebp], ecx

; 2030 : 		int	OptionTableCount = SetOptionCountTable[optioncount];		

  0007e	8b 45 8c	 mov	 eax, DWORD PTR _optioncount$8[ebp]
  00081	0f b6 4c 05 bc	 movzx	 ecx, BYTE PTR _SetOptionCountTable$[ebp+eax]
  00086	89 4d 84	 mov	 DWORD PTR _OptionTableCount$6[ebp], ecx

; 2031 : 
; 2032 : 		if( OptionTableCount >= 2 )

  00089	83 7d 84 02	 cmp	 DWORD PTR _OptionTableCount$6[ebp], 2
  0008d	0f 8c b3 01 00
	00		 jl	 $LN14@gObjCalcSe

; 2033 : 		{
; 2034 : 			if( gSetItemOption.IsRequireClass(OptionTableIndex, lpObj->Class, lpObj->ChangeUP) )

  00093	8b 45 08	 mov	 eax, DWORD PTR _lpObj$[ebp]
  00096	0f b6 88 9f 00
	00 00		 movzx	 ecx, BYTE PTR [eax+159]
  0009d	51		 push	 ecx
  0009e	8b 55 08	 mov	 edx, DWORD PTR _lpObj$[ebp]
  000a1	0f b7 82 9c 00
	00 00		 movzx	 eax, WORD PTR [edx+156]
  000a8	50		 push	 eax
  000a9	8b 4d 88	 mov	 ecx, DWORD PTR _OptionTableIndex$7[ebp]
  000ac	51		 push	 ecx
  000ad	b9 00 00 00 00	 mov	 ecx, OFFSET ?gSetItemOption@@3VCSetItemOption@@A ; gSetItemOption
  000b2	e8 00 00 00 00	 call	 ?IsRequireClass@CSetItemOption@@QAEHHHH@Z ; CSetItemOption::IsRequireClass

; 2035 : 			{
; 2036 : 			}
; 2037 : 
; 2038 : #ifndef EXTEND_LOG_SYSTEM_20060202
; 2039 : 			LogAdd("[%s][%s] 세트 %s옵션 적용", 

  000b7	8b 45 88	 mov	 eax, DWORD PTR _OptionTableIndex$7[ebp]
  000ba	50		 push	 eax
  000bb	b9 00 00 00 00	 mov	 ecx, OFFSET ?gSetItemOption@@3VCSetItemOption@@A ; gSetItemOption
  000c0	e8 00 00 00 00	 call	 ?GetSetOptionName@CSetItemOption@@QAEPADH@Z ; CSetItemOption::GetSetOptionName
  000c5	50		 push	 eax
  000c6	8b 4d 08	 mov	 ecx, DWORD PTR _lpObj$[ebp]
  000c9	83 c1 73	 add	 ecx, 115		; 00000073H
  000cc	51		 push	 ecx
  000cd	8b 55 08	 mov	 edx, DWORD PTR _lpObj$[ebp]
  000d0	83 c2 68	 add	 edx, 104		; 00000068H
  000d3	52		 push	 edx
  000d4	68 00 00 00 00	 push	 OFFSET ??_C@_0BK@POCCBAFD@?$FL?$CFs?$FN?$FL?$CFs?$FN?5?$LM?$LM?F?$KO?5?$CFs?$LP?I?$LM?G?5?$MA?$PL?$LP?k@
  000d9	ff 15 00 00 00
	00		 call	 DWORD PTR ?LogAdd@@3P6AXPADZZA ; LogAdd
  000df	83 c4 10	 add	 esp, 16			; 00000010H

; 2040 : 				 lpObj->AccountID, lpObj->Name, gSetItemOption.GetSetOptionName(OptionTableIndex));				
; 2041 : #endif // EXTEND_LOG_SYSTEM_20060202			
; 2042 : 
; 2043 : 			for( int  tablecnt = 0; tablecnt < OptionTableCount-1; tablecnt++ )

  000e2	c7 45 80 00 00
	00 00		 mov	 DWORD PTR _tablecnt$5[ebp], 0
  000e9	eb 09		 jmp	 SHORT $LN7@gObjCalcSe
$LN5@gObjCalcSe:
  000eb	8b 45 80	 mov	 eax, DWORD PTR _tablecnt$5[ebp]
  000ee	83 c0 01	 add	 eax, 1
  000f1	89 45 80	 mov	 DWORD PTR _tablecnt$5[ebp], eax
$LN7@gObjCalcSe:
  000f4	8b 45 84	 mov	 eax, DWORD PTR _OptionTableCount$6[ebp]
  000f7	83 e8 01	 sub	 eax, 1
  000fa	39 45 80	 cmp	 DWORD PTR _tablecnt$5[ebp], eax
  000fd	7d 66		 jge	 SHORT $LN6@gObjCalcSe

; 2044 : 			{
; 2045 : 				if( gSetItemOption.GetSetOption(OptionTableIndex, tablecnt, op1, op2, opvalue1, opvalue2, lpObj->Class, lpObj->ChangeUP) )

  000ff	8b 45 08	 mov	 eax, DWORD PTR _lpObj$[ebp]
  00102	0f b6 88 9f 00
	00 00		 movzx	 ecx, BYTE PTR [eax+159]
  00109	51		 push	 ecx
  0010a	8b 55 08	 mov	 edx, DWORD PTR _lpObj$[ebp]
  0010d	0f b7 82 9c 00
	00 00		 movzx	 eax, WORD PTR [edx+156]
  00114	50		 push	 eax
  00115	8d 4d 9c	 lea	 ecx, DWORD PTR _opvalue2$[ebp]
  00118	51		 push	 ecx
  00119	8d 55 a0	 lea	 edx, DWORD PTR _opvalue1$[ebp]
  0011c	52		 push	 edx
  0011d	8d 45 b0	 lea	 eax, DWORD PTR _op2$[ebp]
  00120	50		 push	 eax
  00121	8d 4d b4	 lea	 ecx, DWORD PTR _op1$[ebp]
  00124	51		 push	 ecx
  00125	8b 55 80	 mov	 edx, DWORD PTR _tablecnt$5[ebp]
  00128	52		 push	 edx
  00129	8b 45 88	 mov	 eax, DWORD PTR _OptionTableIndex$7[ebp]
  0012c	50		 push	 eax
  0012d	b9 00 00 00 00	 mov	 ecx, OFFSET ?gSetItemOption@@3VCSetItemOption@@A ; gSetItemOption
  00132	e8 00 00 00 00	 call	 ?GetSetOption@CSetItemOption@@QAEHHHAAH000HH@Z ; CSetItemOption::GetSetOption
  00137	85 c0		 test	 eax, eax
  00139	74 28		 je	 SHORT $LN16@gObjCalcSe

; 2046 : 				{
; 2047 : 					gObjSetItemStatPlusSpecial(lpObj, op1, opvalue1);

  0013b	8b 45 a0	 mov	 eax, DWORD PTR _opvalue1$[ebp]
  0013e	50		 push	 eax
  0013f	8b 4d b4	 mov	 ecx, DWORD PTR _op1$[ebp]
  00142	51		 push	 ecx
  00143	8b 55 08	 mov	 edx, DWORD PTR _lpObj$[ebp]
  00146	52		 push	 edx
  00147	e8 00 00 00 00	 call	 ?gObjSetItemStatPlusSpecial@@YAXPAVOBJECTSTRUCT@@HH@Z ; gObjSetItemStatPlusSpecial
  0014c	83 c4 0c	 add	 esp, 12			; 0000000cH

; 2048 : 					gObjSetItemStatPlusSpecial(lpObj, op2, opvalue2);

  0014f	8b 45 9c	 mov	 eax, DWORD PTR _opvalue2$[ebp]
  00152	50		 push	 eax
  00153	8b 4d b0	 mov	 ecx, DWORD PTR _op2$[ebp]
  00156	51		 push	 ecx
  00157	8b 55 08	 mov	 edx, DWORD PTR _lpObj$[ebp]
  0015a	52		 push	 edx
  0015b	e8 00 00 00 00	 call	 ?gObjSetItemStatPlusSpecial@@YAXPAVOBJECTSTRUCT@@HH@Z ; gObjSetItemStatPlusSpecial
  00160	83 c4 0c	 add	 esp, 12			; 0000000cH
$LN16@gObjCalcSe:

; 2049 : 				}
; 2050 : 			}

  00163	eb 86		 jmp	 SHORT $LN5@gObjCalcSe
$LN6@gObjCalcSe:

; 2051 : 
; 2052 : 			if( gSetItemOption.GetMaxSetOptionCount(OptionTableIndex) < OptionTableCount )

  00165	8b 45 88	 mov	 eax, DWORD PTR _OptionTableIndex$7[ebp]
  00168	50		 push	 eax
  00169	b9 00 00 00 00	 mov	 ecx, OFFSET ?gSetItemOption@@3VCSetItemOption@@A ; gSetItemOption
  0016e	e8 00 00 00 00	 call	 ?GetMaxSetOptionCount@CSetItemOption@@QAEHH@Z ; CSetItemOption::GetMaxSetOptionCount
  00173	3b 45 84	 cmp	 eax, DWORD PTR _OptionTableCount$6[ebp]
  00176	0f 8d ca 00 00
	00		 jge	 $LN14@gObjCalcSe

; 2053 : 			{	// 풀옵션 처리
; 2054 : 				lpObj->IsFullSetItem = TRUE;

  0017c	8b 45 08	 mov	 eax, DWORD PTR _lpObj$[ebp]
  0017f	c6 80 4e 0f 00
	00 01		 mov	 BYTE PTR [eax+3918], 1

; 2055 : 				LogAddC(LOGC_RED, "풀옵션 적용");

  00186	68 00 00 00 00	 push	 OFFSET ??_C@_0M@CMDBHBEK@?G?$KO?$LP?I?$LM?G?5?$MA?$PL?$LP?k@
  0018b	6a 02		 push	 2
  0018d	ff 15 00 00 00
	00		 call	 DWORD PTR ?LogAddC@@3P6AXEPADZZA ; LogAddC
  00193	83 c4 08	 add	 esp, 8

; 2056 : 				gSetItemOption.GetGetFullSetOption(OptionTableIndex, op1, op2, op3, op4, op5,  

  00196	8b 45 08	 mov	 eax, DWORD PTR _lpObj$[ebp]
  00199	0f b6 88 9f 00
	00 00		 movzx	 ecx, BYTE PTR [eax+159]
  001a0	51		 push	 ecx
  001a1	8b 55 08	 mov	 edx, DWORD PTR _lpObj$[ebp]
  001a4	0f b7 82 9c 00
	00 00		 movzx	 eax, WORD PTR [edx+156]
  001ab	50		 push	 eax
  001ac	8d 4d 90	 lea	 ecx, DWORD PTR _opvalue5$[ebp]
  001af	51		 push	 ecx
  001b0	8d 55 94	 lea	 edx, DWORD PTR _opvalue4$[ebp]
  001b3	52		 push	 edx
  001b4	8d 45 98	 lea	 eax, DWORD PTR _opvalue3$[ebp]
  001b7	50		 push	 eax
  001b8	8d 4d 9c	 lea	 ecx, DWORD PTR _opvalue2$[ebp]
  001bb	51		 push	 ecx
  001bc	8d 55 a0	 lea	 edx, DWORD PTR _opvalue1$[ebp]
  001bf	52		 push	 edx
  001c0	8d 45 a4	 lea	 eax, DWORD PTR _op5$[ebp]
  001c3	50		 push	 eax
  001c4	8d 4d a8	 lea	 ecx, DWORD PTR _op4$[ebp]
  001c7	51		 push	 ecx
  001c8	8d 55 ac	 lea	 edx, DWORD PTR _op3$[ebp]
  001cb	52		 push	 edx
  001cc	8d 45 b0	 lea	 eax, DWORD PTR _op2$[ebp]
  001cf	50		 push	 eax
  001d0	8d 4d b4	 lea	 ecx, DWORD PTR _op1$[ebp]
  001d3	51		 push	 ecx
  001d4	8b 55 88	 mov	 edx, DWORD PTR _OptionTableIndex$7[ebp]
  001d7	52		 push	 edx
  001d8	b9 00 00 00 00	 mov	 ecx, OFFSET ?gSetItemOption@@3VCSetItemOption@@A ; gSetItemOption
  001dd	e8 00 00 00 00	 call	 ?GetGetFullSetOption@CSetItemOption@@QAEHHAAH000000000HH@Z ; CSetItemOption::GetGetFullSetOption

; 2057 : 												   opvalue1, opvalue2, opvalue3, opvalue4, opvalue5,
; 2058 : 												   lpObj->Class, lpObj->ChangeUP);
; 2059 : 				gObjSetItemStatPlusSpecial(lpObj, op1, opvalue1);

  001e2	8b 45 a0	 mov	 eax, DWORD PTR _opvalue1$[ebp]
  001e5	50		 push	 eax
  001e6	8b 4d b4	 mov	 ecx, DWORD PTR _op1$[ebp]
  001e9	51		 push	 ecx
  001ea	8b 55 08	 mov	 edx, DWORD PTR _lpObj$[ebp]
  001ed	52		 push	 edx
  001ee	e8 00 00 00 00	 call	 ?gObjSetItemStatPlusSpecial@@YAXPAVOBJECTSTRUCT@@HH@Z ; gObjSetItemStatPlusSpecial
  001f3	83 c4 0c	 add	 esp, 12			; 0000000cH

; 2060 : 				gObjSetItemStatPlusSpecial(lpObj, op2, opvalue2);

  001f6	8b 45 9c	 mov	 eax, DWORD PTR _opvalue2$[ebp]
  001f9	50		 push	 eax
  001fa	8b 4d b0	 mov	 ecx, DWORD PTR _op2$[ebp]
  001fd	51		 push	 ecx
  001fe	8b 55 08	 mov	 edx, DWORD PTR _lpObj$[ebp]
  00201	52		 push	 edx
  00202	e8 00 00 00 00	 call	 ?gObjSetItemStatPlusSpecial@@YAXPAVOBJECTSTRUCT@@HH@Z ; gObjSetItemStatPlusSpecial
  00207	83 c4 0c	 add	 esp, 12			; 0000000cH

; 2061 : 				gObjSetItemStatPlusSpecial(lpObj, op3, opvalue3);

  0020a	8b 45 98	 mov	 eax, DWORD PTR _opvalue3$[ebp]
  0020d	50		 push	 eax
  0020e	8b 4d ac	 mov	 ecx, DWORD PTR _op3$[ebp]
  00211	51		 push	 ecx
  00212	8b 55 08	 mov	 edx, DWORD PTR _lpObj$[ebp]
  00215	52		 push	 edx
  00216	e8 00 00 00 00	 call	 ?gObjSetItemStatPlusSpecial@@YAXPAVOBJECTSTRUCT@@HH@Z ; gObjSetItemStatPlusSpecial
  0021b	83 c4 0c	 add	 esp, 12			; 0000000cH

; 2062 : 				gObjSetItemStatPlusSpecial(lpObj, op4, opvalue4);

  0021e	8b 45 94	 mov	 eax, DWORD PTR _opvalue4$[ebp]
  00221	50		 push	 eax
  00222	8b 4d a8	 mov	 ecx, DWORD PTR _op4$[ebp]
  00225	51		 push	 ecx
  00226	8b 55 08	 mov	 edx, DWORD PTR _lpObj$[ebp]
  00229	52		 push	 edx
  0022a	e8 00 00 00 00	 call	 ?gObjSetItemStatPlusSpecial@@YAXPAVOBJECTSTRUCT@@HH@Z ; gObjSetItemStatPlusSpecial
  0022f	83 c4 0c	 add	 esp, 12			; 0000000cH

; 2063 : 				gObjSetItemStatPlusSpecial(lpObj, op5, opvalue5);

  00232	8b 45 90	 mov	 eax, DWORD PTR _opvalue5$[ebp]
  00235	50		 push	 eax
  00236	8b 4d a4	 mov	 ecx, DWORD PTR _op5$[ebp]
  00239	51		 push	 ecx
  0023a	8b 55 08	 mov	 edx, DWORD PTR _lpObj$[ebp]
  0023d	52		 push	 edx
  0023e	e8 00 00 00 00	 call	 ?gObjSetItemStatPlusSpecial@@YAXPAVOBJECTSTRUCT@@HH@Z ; gObjSetItemStatPlusSpecial
  00243	83 c4 0c	 add	 esp, 12			; 0000000cH
$LN14@gObjCalcSe:

; 2064 : 			}
; 2065 : 		}
; 2066 : 	}

  00246	e9 13 fe ff ff	 jmp	 $LN2@gObjCalcSe
$LN3@gObjCalcSe:

; 2067 : //	LogAddC(LOGC_RED, "-------------------------------------");
; 2068 : 
; 2069 : //	LogAddC(LOGC_RED, "--------------기타적용----------------");
; 2070 : 	// 세트 아이템 옵션 적용 (기타 옵션들 적용
; 2071 : 	for( int optioncount = 0; optioncount < SetOptionCount; optioncount++ )

  0024b	c7 85 7c ff ff
	ff 00 00 00 00	 mov	 DWORD PTR _optioncount$4[ebp], 0
  00255	eb 0f		 jmp	 SHORT $LN10@gObjCalcSe
$LN8@gObjCalcSe:
  00257	8b 85 7c ff ff
	ff		 mov	 eax, DWORD PTR _optioncount$4[ebp]
  0025d	83 c0 01	 add	 eax, 1
  00260	89 85 7c ff ff
	ff		 mov	 DWORD PTR _optioncount$4[ebp], eax
$LN10@gObjCalcSe:
  00266	8b 85 7c ff ff
	ff		 mov	 eax, DWORD PTR _optioncount$4[ebp]
  0026c	3b 45 b8	 cmp	 eax, DWORD PTR _SetOptionCount$[ebp]
  0026f	0f 8d e7 01 00
	00		 jge	 $LN1@gObjCalcSe

; 2072 : 	{
; 2073 : 		int OptionTableIndex = SetOptionTable[optioncount];

  00275	8b 85 7c ff ff
	ff		 mov	 eax, DWORD PTR _optioncount$4[ebp]
  0027b	0f b6 4c 05 dc	 movzx	 ecx, BYTE PTR _SetOptionTable$[ebp+eax]
  00280	89 8d 78 ff ff
	ff		 mov	 DWORD PTR _OptionTableIndex$3[ebp], ecx

; 2074 : 		int	OptionTableCount = SetOptionCountTable[optioncount];

  00286	8b 85 7c ff ff
	ff		 mov	 eax, DWORD PTR _optioncount$4[ebp]
  0028c	0f b6 4c 05 bc	 movzx	 ecx, BYTE PTR _SetOptionCountTable$[ebp+eax]
  00291	89 8d 74 ff ff
	ff		 mov	 DWORD PTR _OptionTableCount$2[ebp], ecx

; 2075 : 		
; 2076 : 		if( OptionTableCount >= 2 )

  00297	83 bd 74 ff ff
	ff 02		 cmp	 DWORD PTR _OptionTableCount$2[ebp], 2
  0029e	0f 8c b3 01 00
	00		 jl	 $LN18@gObjCalcSe

; 2077 : 		{
; 2078 : 			LogAdd("[%s][%s] 세트 %s옵션 적용", lpObj->AccountID, lpObj->Name,  gSetItemOption.GetSetOptionName(OptionTableIndex));

  002a4	8b 85 78 ff ff
	ff		 mov	 eax, DWORD PTR _OptionTableIndex$3[ebp]
  002aa	50		 push	 eax
  002ab	b9 00 00 00 00	 mov	 ecx, OFFSET ?gSetItemOption@@3VCSetItemOption@@A ; gSetItemOption
  002b0	e8 00 00 00 00	 call	 ?GetSetOptionName@CSetItemOption@@QAEPADH@Z ; CSetItemOption::GetSetOptionName
  002b5	50		 push	 eax
  002b6	8b 4d 08	 mov	 ecx, DWORD PTR _lpObj$[ebp]
  002b9	83 c1 73	 add	 ecx, 115		; 00000073H
  002bc	51		 push	 ecx
  002bd	8b 55 08	 mov	 edx, DWORD PTR _lpObj$[ebp]
  002c0	83 c2 68	 add	 edx, 104		; 00000068H
  002c3	52		 push	 edx
  002c4	68 00 00 00 00	 push	 OFFSET ??_C@_0BK@POCCBAFD@?$FL?$CFs?$FN?$FL?$CFs?$FN?5?$LM?$LM?F?$KO?5?$CFs?$LP?I?$LM?G?5?$MA?$PL?$LP?k@
  002c9	ff 15 00 00 00
	00		 call	 DWORD PTR ?LogAdd@@3P6AXPADZZA ; LogAdd
  002cf	83 c4 10	 add	 esp, 16			; 00000010H

; 2079 : 			for( int  tablecnt = 0; tablecnt < OptionTableCount-1; tablecnt++ )

  002d2	c7 85 70 ff ff
	ff 00 00 00 00	 mov	 DWORD PTR _tablecnt$1[ebp], 0
  002dc	eb 0f		 jmp	 SHORT $LN13@gObjCalcSe
$LN11@gObjCalcSe:
  002de	8b 85 70 ff ff
	ff		 mov	 eax, DWORD PTR _tablecnt$1[ebp]
  002e4	83 c0 01	 add	 eax, 1
  002e7	89 85 70 ff ff
	ff		 mov	 DWORD PTR _tablecnt$1[ebp], eax
$LN13@gObjCalcSe:
  002ed	8b 85 74 ff ff
	ff		 mov	 eax, DWORD PTR _OptionTableCount$2[ebp]
  002f3	83 e8 01	 sub	 eax, 1
  002f6	39 85 70 ff ff
	ff		 cmp	 DWORD PTR _tablecnt$1[ebp], eax
  002fc	7d 6f		 jge	 SHORT $LN12@gObjCalcSe

; 2080 : 			{
; 2081 : 				if( gSetItemOption.GetSetOption(OptionTableIndex, tablecnt, op1, op2, opvalue1, opvalue2, lpObj->Class, lpObj->ChangeUP) )

  002fe	8b 45 08	 mov	 eax, DWORD PTR _lpObj$[ebp]
  00301	0f b6 88 9f 00
	00 00		 movzx	 ecx, BYTE PTR [eax+159]
  00308	51		 push	 ecx
  00309	8b 55 08	 mov	 edx, DWORD PTR _lpObj$[ebp]
  0030c	0f b7 82 9c 00
	00 00		 movzx	 eax, WORD PTR [edx+156]
  00313	50		 push	 eax
  00314	8d 4d 9c	 lea	 ecx, DWORD PTR _opvalue2$[ebp]
  00317	51		 push	 ecx
  00318	8d 55 a0	 lea	 edx, DWORD PTR _opvalue1$[ebp]
  0031b	52		 push	 edx
  0031c	8d 45 b0	 lea	 eax, DWORD PTR _op2$[ebp]
  0031f	50		 push	 eax
  00320	8d 4d b4	 lea	 ecx, DWORD PTR _op1$[ebp]
  00323	51		 push	 ecx
  00324	8b 95 70 ff ff
	ff		 mov	 edx, DWORD PTR _tablecnt$1[ebp]
  0032a	52		 push	 edx
  0032b	8b 85 78 ff ff
	ff		 mov	 eax, DWORD PTR _OptionTableIndex$3[ebp]
  00331	50		 push	 eax
  00332	b9 00 00 00 00	 mov	 ecx, OFFSET ?gSetItemOption@@3VCSetItemOption@@A ; gSetItemOption
  00337	e8 00 00 00 00	 call	 ?GetSetOption@CSetItemOption@@QAEHHHAAH000HH@Z ; CSetItemOption::GetSetOption
  0033c	85 c0		 test	 eax, eax
  0033e	74 28		 je	 SHORT $LN19@gObjCalcSe

; 2082 : 				{
; 2083 : 					gObjSetItemPlusSpecial(lpObj, op1, opvalue1);

  00340	8b 45 a0	 mov	 eax, DWORD PTR _opvalue1$[ebp]
  00343	50		 push	 eax
  00344	8b 4d b4	 mov	 ecx, DWORD PTR _op1$[ebp]
  00347	51		 push	 ecx
  00348	8b 55 08	 mov	 edx, DWORD PTR _lpObj$[ebp]
  0034b	52		 push	 edx
  0034c	e8 00 00 00 00	 call	 ?gObjSetItemPlusSpecial@@YAXPAVOBJECTSTRUCT@@HH@Z ; gObjSetItemPlusSpecial
  00351	83 c4 0c	 add	 esp, 12			; 0000000cH

; 2084 : 					gObjSetItemPlusSpecial(lpObj, op2, opvalue2);

  00354	8b 45 9c	 mov	 eax, DWORD PTR _opvalue2$[ebp]
  00357	50		 push	 eax
  00358	8b 4d b0	 mov	 ecx, DWORD PTR _op2$[ebp]
  0035b	51		 push	 ecx
  0035c	8b 55 08	 mov	 edx, DWORD PTR _lpObj$[ebp]
  0035f	52		 push	 edx
  00360	e8 00 00 00 00	 call	 ?gObjSetItemPlusSpecial@@YAXPAVOBJECTSTRUCT@@HH@Z ; gObjSetItemPlusSpecial
  00365	83 c4 0c	 add	 esp, 12			; 0000000cH
$LN19@gObjCalcSe:

; 2085 : 				}
; 2086 : 			}

  00368	e9 71 ff ff ff	 jmp	 $LN11@gObjCalcSe
$LN12@gObjCalcSe:

; 2087 : 
; 2088 : 			if( gSetItemOption.GetMaxSetOptionCount(OptionTableIndex) < OptionTableCount )

  0036d	8b 85 78 ff ff
	ff		 mov	 eax, DWORD PTR _OptionTableIndex$3[ebp]
  00373	50		 push	 eax
  00374	b9 00 00 00 00	 mov	 ecx, OFFSET ?gSetItemOption@@3VCSetItemOption@@A ; gSetItemOption
  00379	e8 00 00 00 00	 call	 ?GetMaxSetOptionCount@CSetItemOption@@QAEHH@Z ; CSetItemOption::GetMaxSetOptionCount
  0037e	3b 85 74 ff ff
	ff		 cmp	 eax, DWORD PTR _OptionTableCount$2[ebp]
  00384	0f 8d cd 00 00
	00		 jge	 $LN18@gObjCalcSe

; 2089 : 			{	// 풀옵션 처리
; 2090 : 				LogAddC(LOGC_RED, "풀옵션 적용");

  0038a	68 00 00 00 00	 push	 OFFSET ??_C@_0M@CMDBHBEK@?G?$KO?$LP?I?$LM?G?5?$MA?$PL?$LP?k@
  0038f	6a 02		 push	 2
  00391	ff 15 00 00 00
	00		 call	 DWORD PTR ?LogAddC@@3P6AXEPADZZA ; LogAddC
  00397	83 c4 08	 add	 esp, 8

; 2091 : 				lpObj->IsFullSetItem = TRUE;

  0039a	8b 45 08	 mov	 eax, DWORD PTR _lpObj$[ebp]
  0039d	c6 80 4e 0f 00
	00 01		 mov	 BYTE PTR [eax+3918], 1

; 2092 : 				gSetItemOption.GetGetFullSetOption(OptionTableIndex, op1, op2, op3, op4, op5, 

  003a4	8b 45 08	 mov	 eax, DWORD PTR _lpObj$[ebp]
  003a7	0f b6 88 9f 00
	00 00		 movzx	 ecx, BYTE PTR [eax+159]
  003ae	51		 push	 ecx
  003af	8b 55 08	 mov	 edx, DWORD PTR _lpObj$[ebp]
  003b2	0f b7 82 9c 00
	00 00		 movzx	 eax, WORD PTR [edx+156]
  003b9	50		 push	 eax
  003ba	8d 4d 90	 lea	 ecx, DWORD PTR _opvalue5$[ebp]
  003bd	51		 push	 ecx
  003be	8d 55 94	 lea	 edx, DWORD PTR _opvalue4$[ebp]
  003c1	52		 push	 edx
  003c2	8d 45 98	 lea	 eax, DWORD PTR _opvalue3$[ebp]
  003c5	50		 push	 eax
  003c6	8d 4d 9c	 lea	 ecx, DWORD PTR _opvalue2$[ebp]
  003c9	51		 push	 ecx
  003ca	8d 55 a0	 lea	 edx, DWORD PTR _opvalue1$[ebp]
  003cd	52		 push	 edx
  003ce	8d 45 a4	 lea	 eax, DWORD PTR _op5$[ebp]
  003d1	50		 push	 eax
  003d2	8d 4d a8	 lea	 ecx, DWORD PTR _op4$[ebp]
  003d5	51		 push	 ecx
  003d6	8d 55 ac	 lea	 edx, DWORD PTR _op3$[ebp]
  003d9	52		 push	 edx
  003da	8d 45 b0	 lea	 eax, DWORD PTR _op2$[ebp]
  003dd	50		 push	 eax
  003de	8d 4d b4	 lea	 ecx, DWORD PTR _op1$[ebp]
  003e1	51		 push	 ecx
  003e2	8b 95 78 ff ff
	ff		 mov	 edx, DWORD PTR _OptionTableIndex$3[ebp]
  003e8	52		 push	 edx
  003e9	b9 00 00 00 00	 mov	 ecx, OFFSET ?gSetItemOption@@3VCSetItemOption@@A ; gSetItemOption
  003ee	e8 00 00 00 00	 call	 ?GetGetFullSetOption@CSetItemOption@@QAEHHAAH000000000HH@Z ; CSetItemOption::GetGetFullSetOption

; 2093 : 												   opvalue1, opvalue2, opvalue3, opvalue4, opvalue5,
; 2094 : 												   lpObj->Class, lpObj->ChangeUP);
; 2095 : 				gObjSetItemPlusSpecial(lpObj, op1, opvalue1);

  003f3	8b 45 a0	 mov	 eax, DWORD PTR _opvalue1$[ebp]
  003f6	50		 push	 eax
  003f7	8b 4d b4	 mov	 ecx, DWORD PTR _op1$[ebp]
  003fa	51		 push	 ecx
  003fb	8b 55 08	 mov	 edx, DWORD PTR _lpObj$[ebp]
  003fe	52		 push	 edx
  003ff	e8 00 00 00 00	 call	 ?gObjSetItemPlusSpecial@@YAXPAVOBJECTSTRUCT@@HH@Z ; gObjSetItemPlusSpecial
  00404	83 c4 0c	 add	 esp, 12			; 0000000cH

; 2096 : 				gObjSetItemPlusSpecial(lpObj, op2, opvalue2);

  00407	8b 45 9c	 mov	 eax, DWORD PTR _opvalue2$[ebp]
  0040a	50		 push	 eax
  0040b	8b 4d b0	 mov	 ecx, DWORD PTR _op2$[ebp]
  0040e	51		 push	 ecx
  0040f	8b 55 08	 mov	 edx, DWORD PTR _lpObj$[ebp]
  00412	52		 push	 edx
  00413	e8 00 00 00 00	 call	 ?gObjSetItemPlusSpecial@@YAXPAVOBJECTSTRUCT@@HH@Z ; gObjSetItemPlusSpecial
  00418	83 c4 0c	 add	 esp, 12			; 0000000cH

; 2097 : 				gObjSetItemPlusSpecial(lpObj, op3, opvalue3);

  0041b	8b 45 98	 mov	 eax, DWORD PTR _opvalue3$[ebp]
  0041e	50		 push	 eax
  0041f	8b 4d ac	 mov	 ecx, DWORD PTR _op3$[ebp]
  00422	51		 push	 ecx
  00423	8b 55 08	 mov	 edx, DWORD PTR _lpObj$[ebp]
  00426	52		 push	 edx
  00427	e8 00 00 00 00	 call	 ?gObjSetItemPlusSpecial@@YAXPAVOBJECTSTRUCT@@HH@Z ; gObjSetItemPlusSpecial
  0042c	83 c4 0c	 add	 esp, 12			; 0000000cH

; 2098 : 				gObjSetItemPlusSpecial(lpObj, op4, opvalue4);

  0042f	8b 45 94	 mov	 eax, DWORD PTR _opvalue4$[ebp]
  00432	50		 push	 eax
  00433	8b 4d a8	 mov	 ecx, DWORD PTR _op4$[ebp]
  00436	51		 push	 ecx
  00437	8b 55 08	 mov	 edx, DWORD PTR _lpObj$[ebp]
  0043a	52		 push	 edx
  0043b	e8 00 00 00 00	 call	 ?gObjSetItemPlusSpecial@@YAXPAVOBJECTSTRUCT@@HH@Z ; gObjSetItemPlusSpecial
  00440	83 c4 0c	 add	 esp, 12			; 0000000cH

; 2099 : 				gObjSetItemPlusSpecial(lpObj, op5, opvalue5);

  00443	8b 45 90	 mov	 eax, DWORD PTR _opvalue5$[ebp]
  00446	50		 push	 eax
  00447	8b 4d a4	 mov	 ecx, DWORD PTR _op5$[ebp]
  0044a	51		 push	 ecx
  0044b	8b 55 08	 mov	 edx, DWORD PTR _lpObj$[ebp]
  0044e	52		 push	 edx
  0044f	e8 00 00 00 00	 call	 ?gObjSetItemPlusSpecial@@YAXPAVOBJECTSTRUCT@@HH@Z ; gObjSetItemPlusSpecial
  00454	83 c4 0c	 add	 esp, 12			; 0000000cH
$LN18@gObjCalcSe:

; 2100 : 			}
; 2101 : 		}
; 2102 : 	}

  00457	e9 fb fd ff ff	 jmp	 $LN8@gObjCalcSe
$LN1@gObjCalcSe:

; 2103 : //	LogAdd("-------------------------------------");
; 2104 : }

  0045c	5f		 pop	 edi
  0045d	5e		 pop	 esi
  0045e	5b		 pop	 ebx
  0045f	8b 4d fc	 mov	 ecx, DWORD PTR __$ArrayPad$[ebp]
  00462	33 cd		 xor	 ecx, ebp
  00464	e8 00 00 00 00	 call	 @__security_check_cookie@4
  00469	8b e5		 mov	 esp, ebp
  0046b	5d		 pop	 ebp
  0046c	c3		 ret	 0
?gObjCalcSetItemOption@@YAXPAVOBJECTSTRUCT@@@Z ENDP	; gObjCalcSetItemOption
_TEXT	ENDS
; Function compile flags: /Odtp /ZI
; File C:\Mu Online\Mu-GS-Webzen-MC-10093\GameServer\ObjCalCharacter.cpp
;	COMDAT ?gObjGetSetItemOption@@YAXPAVOBJECTSTRUCT@@PAE1PAH@Z
_TEXT	SEGMENT
_foundoptioncount$1 = -28				; size = 4
_bfoundindex$2 = -24					; size = 4
_OptionTableIndex$3 = -20				; size = 4
_setoption$4 = -16					; size = 4
_i$5 = -12						; size = 4
_RightRingSetOptionIndex$ = -8				; size = 4
_RightSetOptionIndex$ = -4				; size = 4
_lpObj$ = 8						; size = 4
_pSetOptionTable$ = 12					; size = 4
_pSetOptionCountTable$ = 16				; size = 4
_pSetOptionCount$ = 20					; size = 4
?gObjGetSetItemOption@@YAXPAVOBJECTSTRUCT@@PAE1PAH@Z PROC ; gObjGetSetItemOption, COMDAT

; 1923 : {

  00000	55		 push	 ebp
  00001	8b ec		 mov	 ebp, esp
  00003	83 ec 5c	 sub	 esp, 92			; 0000005cH
  00006	53		 push	 ebx
  00007	56		 push	 esi
  00008	57		 push	 edi

; 1924 : 	(*pSetOptionCount) = 0;

  00009	8b 45 14	 mov	 eax, DWORD PTR _pSetOptionCount$[ebp]
  0000c	c7 00 00 00 00
	00		 mov	 DWORD PTR [eax], 0

; 1925 : 
; 1926 : 	int	RightSetOptionIndex = -1;

  00012	c7 45 fc ff ff
	ff ff		 mov	 DWORD PTR _RightSetOptionIndex$[ebp], -1

; 1927 : 	int	RightRingSetOptionIndex = -1;

  00019	c7 45 f8 ff ff
	ff ff		 mov	 DWORD PTR _RightRingSetOptionIndex$[ebp], -1

; 1928 : 
; 1929 : 	for( int i = 0; i < MAX_EQUIPMENT; i++ )

  00020	c7 45 f4 00 00
	00 00		 mov	 DWORD PTR _i$5[ebp], 0
  00027	eb 09		 jmp	 SHORT $LN4@gObjGetSet
$LN2@gObjGetSet:
  00029	8b 45 f4	 mov	 eax, DWORD PTR _i$5[ebp]
  0002c	83 c0 01	 add	 eax, 1
  0002f	89 45 f4	 mov	 DWORD PTR _i$5[ebp], eax
$LN4@gObjGetSet:
  00032	83 7d f4 0c	 cmp	 DWORD PTR _i$5[ebp], 12	; 0000000cH
  00036	0f 8d 45 02 00
	00		 jge	 $LN1@gObjGetSet

; 1930 : 	{
; 1931 : 		int setoption = lpObj->pInventory[i].IsSetItem();

  0003c	69 4d f4 a8 00
	00 00		 imul	 ecx, DWORD PTR _i$5[ebp], 168
  00043	8b 45 08	 mov	 eax, DWORD PTR _lpObj$[ebp]
  00046	03 88 5c 0c 00
	00		 add	 ecx, DWORD PTR [eax+3164]
  0004c	e8 00 00 00 00	 call	 ?IsSetItem@CItem@@QAEHXZ ; CItem::IsSetItem
  00051	89 45 f0	 mov	 DWORD PTR _setoption$4[ebp], eax

; 1932 : 
; 1933 : 		if( setoption && lpObj->pInventory[i].m_IsValidItem )

  00054	83 7d f0 00	 cmp	 DWORD PTR _setoption$4[ebp], 0
  00058	0f 84 1e 02 00
	00		 je	 $LN8@gObjGetSet
  0005e	69 45 f4 a8 00
	00 00		 imul	 eax, DWORD PTR _i$5[ebp], 168
  00065	8b 4d 08	 mov	 ecx, DWORD PTR _lpObj$[ebp]
  00068	8b 91 5c 0c 00
	00		 mov	 edx, DWORD PTR [ecx+3164]
  0006e	0f b6 84 02 94
	00 00 00	 movzx	 eax, BYTE PTR [edx+eax+148]
  00076	85 c0		 test	 eax, eax
  00078	0f 84 fe 01 00
	00		 je	 $LN8@gObjGetSet

; 1934 : 		{
; 1935 : 			int OptionTableIndex = gSetItemOption.GetOptionTableIndex(lpObj->pInventory[i].m_Type, setoption);

  0007e	8b 45 f0	 mov	 eax, DWORD PTR _setoption$4[ebp]
  00081	50		 push	 eax
  00082	69 4d f4 a8 00
	00 00		 imul	 ecx, DWORD PTR _i$5[ebp], 168
  00089	8b 55 08	 mov	 edx, DWORD PTR _lpObj$[ebp]
  0008c	8b 82 5c 0c 00
	00		 mov	 eax, DWORD PTR [edx+3164]
  00092	0f bf 4c 08 06	 movsx	 ecx, WORD PTR [eax+ecx+6]
  00097	51		 push	 ecx
  00098	b9 00 00 00 00	 mov	 ecx, OFFSET ?gSetItemOption@@3VCSetItemOption@@A ; gSetItemOption
  0009d	e8 00 00 00 00	 call	 ?GetOptionTableIndex@CSetItemOption@@QAEHHH@Z ; CSetItemOption::GetOptionTableIndex
  000a2	89 45 ec	 mov	 DWORD PTR _OptionTableIndex$3[ebp], eax

; 1936 : 			if( OptionTableIndex != -1 )

  000a5	83 7d ec ff	 cmp	 DWORD PTR _OptionTableIndex$3[ebp], -1
  000a9	0f 84 cd 01 00
	00		 je	 $LN8@gObjGetSet

; 1937 : 			{	// 해당 옵션을 값을 넣는다
; 1938 : 
; 1939 : 				if( i == EQUIPMENT_WEAPON_RIGHT )

  000af	83 7d f4 00	 cmp	 DWORD PTR _i$5[ebp], 0
  000b3	75 08		 jne	 SHORT $LN10@gObjGetSet

; 1940 : 				{
; 1941 : 					RightSetOptionIndex = OptionTableIndex;

  000b5	8b 45 ec	 mov	 eax, DWORD PTR _OptionTableIndex$3[ebp]
  000b8	89 45 fc	 mov	 DWORD PTR _RightSetOptionIndex$[ebp], eax

; 1942 : 				}

  000bb	eb 6d		 jmp	 SHORT $LN11@gObjGetSet
$LN10@gObjGetSet:

; 1943 : 				else if( i == EQUIPMENT_WEAPON_LEFT )

  000bd	83 7d f4 01	 cmp	 DWORD PTR _i$5[ebp], 1
  000c1	75 67		 jne	 SHORT $LN11@gObjGetSet

; 1944 : 				{
; 1945 : 					if( RightSetOptionIndex == OptionTableIndex )

  000c3	8b 45 fc	 mov	 eax, DWORD PTR _RightSetOptionIndex$[ebp]
  000c6	3b 45 ec	 cmp	 eax, DWORD PTR _OptionTableIndex$3[ebp]
  000c9	75 5f		 jne	 SHORT $LN11@gObjGetSet

; 1946 : 					{	// 양손의 경우 같은 세트는 적용되지 않는다
; 1947 : 						if( lpObj->pInventory[EQUIPMENT_WEAPON_RIGHT].GetWeaponType() == 
; 1948 : 							lpObj->pInventory[EQUIPMENT_WEAPON_LEFT].GetWeaponType() && 

  000cb	b8 a8 00 00 00	 mov	 eax, 168		; 000000a8H
  000d0	6b c8 00	 imul	 ecx, eax, 0
  000d3	8b 55 08	 mov	 edx, DWORD PTR _lpObj$[ebp]
  000d6	03 8a 5c 0c 00
	00		 add	 ecx, DWORD PTR [edx+3164]
  000dc	e8 00 00 00 00	 call	 ?GetWeaponType@CItem@@QAEHXZ ; CItem::GetWeaponType
  000e1	8b f0		 mov	 esi, eax
  000e3	b9 a8 00 00 00	 mov	 ecx, 168		; 000000a8H
  000e8	c1 e1 00	 shl	 ecx, 0
  000eb	8b 45 08	 mov	 eax, DWORD PTR _lpObj$[ebp]
  000ee	03 88 5c 0c 00
	00		 add	 ecx, DWORD PTR [eax+3164]
  000f4	e8 00 00 00 00	 call	 ?GetWeaponType@CItem@@QAEHXZ ; CItem::GetWeaponType
  000f9	3b f0		 cmp	 esi, eax
  000fb	75 2d		 jne	 SHORT $LN11@gObjGetSet
  000fd	b8 a8 00 00 00	 mov	 eax, 168		; 000000a8H
  00102	6b c8 00	 imul	 ecx, eax, 0
  00105	8b 55 08	 mov	 edx, DWORD PTR _lpObj$[ebp]
  00108	03 8a 5c 0c 00
	00		 add	 ecx, DWORD PTR [edx+3164]
  0010e	e8 00 00 00 00	 call	 ?IsSetItem@CItem@@QAEHXZ ; CItem::IsSetItem
  00113	85 c0		 test	 eax, eax
  00115	74 13		 je	 SHORT $LN11@gObjGetSet

; 1949 : 							lpObj->pInventory[EQUIPMENT_WEAPON_RIGHT].IsSetItem() )
; 1950 : 						{
; 1951 : 							LogAddTD("양손에 같은 세트가 적용되었다 무시...");

  00117	68 00 00 00 00	 push	 OFFSET ??_C@_0CG@MJJCFDMJ@?$LO?g?$LM?U?$LP?$KB?5?$LA?$LA?$MA?$LK?5?$LM?$LM?F?$KO?$LA?$KB?5?$MA?$PL?$LP?k?$LF?G?$LO?z?$LE?Y?5?$LJ@
  0011c	ff 15 00 00 00
	00		 call	 DWORD PTR ?LogAddTD@@3P6AXPADZZA ; LogAddTD
  00122	83 c4 04	 add	 esp, 4

; 1952 : 							continue;

  00125	e9 ff fe ff ff	 jmp	 $LN2@gObjGetSet
$LN11@gObjGetSet:

; 1953 : 						}
; 1954 : 					}
; 1955 : 				}
; 1956 : 
; 1957 : 				if( i == EQUIPMENT_RING_RIGHT )

  0012a	83 7d f4 0a	 cmp	 DWORD PTR _i$5[ebp], 10	; 0000000aH
  0012e	75 08		 jne	 SHORT $LN15@gObjGetSet

; 1958 : 				{
; 1959 : 					RightRingSetOptionIndex = OptionTableIndex;

  00130	8b 45 ec	 mov	 eax, DWORD PTR _OptionTableIndex$3[ebp]
  00133	89 45 f8	 mov	 DWORD PTR _RightRingSetOptionIndex$[ebp], eax

; 1960 : 				}

  00136	eb 6b		 jmp	 SHORT $LN16@gObjGetSet
$LN15@gObjGetSet:

; 1961 : 				else if( i == EQUIPMENT_RING_LEFT )

  00138	83 7d f4 0b	 cmp	 DWORD PTR _i$5[ebp], 11	; 0000000bH
  0013c	75 65		 jne	 SHORT $LN16@gObjGetSet

; 1962 : 				{
; 1963 : 					// 같은 타입의 반지 착용시 세트 옵션 적용되지 않는 버그 수정 20081202 (grooving)
; 1964 : 					if( RightRingSetOptionIndex == OptionTableIndex )

  0013e	8b 45 f8	 mov	 eax, DWORD PTR _RightRingSetOptionIndex$[ebp]
  00141	3b 45 ec	 cmp	 eax, DWORD PTR _OptionTableIndex$3[ebp]
  00144	75 5d		 jne	 SHORT $LN16@gObjGetSet

; 1965 : 					{
; 1966 : 						if( lpObj->pInventory[EQUIPMENT_RING_RIGHT].m_Type == 
; 1967 : 							lpObj->pInventory[EQUIPMENT_RING_LEFT].m_Type 
; 1968 : 							&& lpObj->pInventory[EQUIPMENT_RING_RIGHT].IsSetItem()

  00146	b8 a8 00 00 00	 mov	 eax, 168		; 000000a8H
  0014b	6b c8 0a	 imul	 ecx, eax, 10
  0014e	8b 55 08	 mov	 edx, DWORD PTR _lpObj$[ebp]
  00151	8b 82 5c 0c 00
	00		 mov	 eax, DWORD PTR [edx+3164]
  00157	0f bf 4c 08 06	 movsx	 ecx, WORD PTR [eax+ecx+6]
  0015c	ba a8 00 00 00	 mov	 edx, 168		; 000000a8H
  00161	6b c2 0b	 imul	 eax, edx, 11
  00164	8b 55 08	 mov	 edx, DWORD PTR _lpObj$[ebp]
  00167	8b 92 5c 0c 00
	00		 mov	 edx, DWORD PTR [edx+3164]
  0016d	0f bf 44 02 06	 movsx	 eax, WORD PTR [edx+eax+6]
  00172	3b c8		 cmp	 ecx, eax
  00174	75 2d		 jne	 SHORT $LN16@gObjGetSet
  00176	b8 a8 00 00 00	 mov	 eax, 168		; 000000a8H
  0017b	6b c8 0a	 imul	 ecx, eax, 10
  0017e	8b 55 08	 mov	 edx, DWORD PTR _lpObj$[ebp]
  00181	03 8a 5c 0c 00
	00		 add	 ecx, DWORD PTR [edx+3164]
  00187	e8 00 00 00 00	 call	 ?IsSetItem@CItem@@QAEHXZ ; CItem::IsSetItem
  0018c	85 c0		 test	 eax, eax
  0018e	74 13		 je	 SHORT $LN16@gObjGetSet

; 1969 : 							)					
; 1970 : 						{	// 양손의 경우 같은 세트는 적용되지 않는다						
; 1971 : 							LogAddTD("반지에 같은 세트가 적용되었다 무시...");

  00190	68 00 00 00 00	 push	 OFFSET ??_C@_0CG@HNELGANH@?$LJ?$NN?A?v?$LP?$KB?5?$LA?$LA?$MA?$LK?5?$LM?$LM?F?$KO?$LA?$KB?5?$MA?$PL?$LP?k?$LF?G?$LO?z?$LE?Y?5?$LJ@
  00195	ff 15 00 00 00
	00		 call	 DWORD PTR ?LogAddTD@@3P6AXPADZZA ; LogAddTD
  0019b	83 c4 04	 add	 esp, 4

; 1972 : 							continue;

  0019e	e9 86 fe ff ff	 jmp	 $LN2@gObjGetSet
$LN16@gObjGetSet:

; 1973 : 						}
; 1974 : 					}
; 1975 : 				}
; 1976 : 
; 1977 : 				BOOL	bfoundindex = FALSE;

  001a3	c7 45 e8 00 00
	00 00		 mov	 DWORD PTR _bfoundindex$2[ebp], 0

; 1978 : 				for( int foundoptioncount = 0;  foundoptioncount < (*pSetOptionCount); foundoptioncount++ )

  001aa	c7 45 e4 00 00
	00 00		 mov	 DWORD PTR _foundoptioncount$1[ebp], 0
  001b1	eb 09		 jmp	 SHORT $LN7@gObjGetSet
$LN5@gObjGetSet:
  001b3	8b 45 e4	 mov	 eax, DWORD PTR _foundoptioncount$1[ebp]
  001b6	83 c0 01	 add	 eax, 1
  001b9	89 45 e4	 mov	 DWORD PTR _foundoptioncount$1[ebp], eax
$LN7@gObjGetSet:
  001bc	8b 45 14	 mov	 eax, DWORD PTR _pSetOptionCount$[ebp]
  001bf	8b 4d e4	 mov	 ecx, DWORD PTR _foundoptioncount$1[ebp]
  001c2	3b 08		 cmp	 ecx, DWORD PTR [eax]
  001c4	7d 53		 jge	 SHORT $LN6@gObjGetSet

; 1979 : 				{
; 1980 : 					if( pSetOptionTable[foundoptioncount] == OptionTableIndex )

  001c6	8b 45 0c	 mov	 eax, DWORD PTR _pSetOptionTable$[ebp]
  001c9	03 45 e4	 add	 eax, DWORD PTR _foundoptioncount$1[ebp]
  001cc	0f b6 08	 movzx	 ecx, BYTE PTR [eax]
  001cf	3b 4d ec	 cmp	 ecx, DWORD PTR _OptionTableIndex$3[ebp]
  001d2	75 43		 jne	 SHORT $LN20@gObjGetSet

; 1981 : 					{
; 1982 : 						pSetOptionCountTable[foundoptioncount]++;

  001d4	8b 45 10	 mov	 eax, DWORD PTR _pSetOptionCountTable$[ebp]
  001d7	03 45 e4	 add	 eax, DWORD PTR _foundoptioncount$1[ebp]
  001da	8a 08		 mov	 cl, BYTE PTR [eax]
  001dc	80 c1 01	 add	 cl, 1
  001df	8b 55 10	 mov	 edx, DWORD PTR _pSetOptionCountTable$[ebp]
  001e2	03 55 e4	 add	 edx, DWORD PTR _foundoptioncount$1[ebp]
  001e5	88 0a		 mov	 BYTE PTR [edx], cl

; 1983 : 						bfoundindex = TRUE;

  001e7	c7 45 e8 01 00
	00 00		 mov	 DWORD PTR _bfoundindex$2[ebp], 1

; 1984 : 
; 1985 : 						LogAddTD("옵션 찾았다 %s, Count = %d", 

  001ee	8b 45 10	 mov	 eax, DWORD PTR _pSetOptionCountTable$[ebp]
  001f1	03 45 e4	 add	 eax, DWORD PTR _foundoptioncount$1[ebp]
  001f4	0f b6 08	 movzx	 ecx, BYTE PTR [eax]
  001f7	51		 push	 ecx
  001f8	8b 55 ec	 mov	 edx, DWORD PTR _OptionTableIndex$3[ebp]
  001fb	52		 push	 edx
  001fc	b9 00 00 00 00	 mov	 ecx, OFFSET ?gSetItemOption@@3VCSetItemOption@@A ; gSetItemOption
  00201	e8 00 00 00 00	 call	 ?GetSetOptionName@CSetItemOption@@QAEPADH@Z ; CSetItemOption::GetSetOptionName
  00206	50		 push	 eax
  00207	68 00 00 00 00	 push	 OFFSET ??_C@_0BL@LIIMDDCM@?$LP?I?$LM?G?5?C?$KD?$LO?R?$LE?Y?5?$CFs?0?5Count?5?$DN?5?$CFd@
  0020c	ff 15 00 00 00
	00		 call	 DWORD PTR ?LogAddTD@@3P6AXPADZZA ; LogAddTD
  00212	83 c4 0c	 add	 esp, 12			; 0000000cH

; 1986 : 								 gSetItemOption.GetSetOptionName(OptionTableIndex),
; 1987 : 								 pSetOptionCountTable[foundoptioncount]);
; 1988 : 
; 1989 : 						break;

  00215	eb 02		 jmp	 SHORT $LN6@gObjGetSet
$LN20@gObjGetSet:

; 1990 : 					}
; 1991 : 				}

  00217	eb 9a		 jmp	 SHORT $LN5@gObjGetSet
$LN6@gObjGetSet:

; 1992 : 
; 1993 : 				if( !bfoundindex )

  00219	83 7d e8 00	 cmp	 DWORD PTR _bfoundindex$2[ebp], 0
  0021d	75 5d		 jne	 SHORT $LN8@gObjGetSet

; 1994 : 				{
; 1995 : 					pSetOptionTable[(*pSetOptionCount)] = OptionTableIndex;

  0021f	8b 45 14	 mov	 eax, DWORD PTR _pSetOptionCount$[ebp]
  00222	8b 08		 mov	 ecx, DWORD PTR [eax]
  00224	8b 55 0c	 mov	 edx, DWORD PTR _pSetOptionTable$[ebp]
  00227	8a 45 ec	 mov	 al, BYTE PTR _OptionTableIndex$3[ebp]
  0022a	88 04 0a	 mov	 BYTE PTR [edx+ecx], al

; 1996 : 					pSetOptionCountTable[(*pSetOptionCount)]++;					

  0022d	8b 45 14	 mov	 eax, DWORD PTR _pSetOptionCount$[ebp]
  00230	8b 08		 mov	 ecx, DWORD PTR [eax]
  00232	8b 55 10	 mov	 edx, DWORD PTR _pSetOptionCountTable$[ebp]
  00235	8a 04 0a	 mov	 al, BYTE PTR [edx+ecx]
  00238	04 01		 add	 al, 1
  0023a	8b 4d 14	 mov	 ecx, DWORD PTR _pSetOptionCount$[ebp]
  0023d	8b 11		 mov	 edx, DWORD PTR [ecx]
  0023f	8b 4d 10	 mov	 ecx, DWORD PTR _pSetOptionCountTable$[ebp]
  00242	88 04 11	 mov	 BYTE PTR [ecx+edx], al

; 1997 : 
; 1998 : 					LogAddTD("옵션 찾았다 %s, Count = %d", 

  00245	8b 45 14	 mov	 eax, DWORD PTR _pSetOptionCount$[ebp]
  00248	8b 08		 mov	 ecx, DWORD PTR [eax]
  0024a	8b 55 10	 mov	 edx, DWORD PTR _pSetOptionCountTable$[ebp]
  0024d	0f b6 04 0a	 movzx	 eax, BYTE PTR [edx+ecx]
  00251	50		 push	 eax
  00252	8b 4d ec	 mov	 ecx, DWORD PTR _OptionTableIndex$3[ebp]
  00255	51		 push	 ecx
  00256	b9 00 00 00 00	 mov	 ecx, OFFSET ?gSetItemOption@@3VCSetItemOption@@A ; gSetItemOption
  0025b	e8 00 00 00 00	 call	 ?GetSetOptionName@CSetItemOption@@QAEPADH@Z ; CSetItemOption::GetSetOptionName
  00260	50		 push	 eax
  00261	68 00 00 00 00	 push	 OFFSET ??_C@_0BL@LIIMDDCM@?$LP?I?$LM?G?5?C?$KD?$LO?R?$LE?Y?5?$CFs?0?5Count?5?$DN?5?$CFd@
  00266	ff 15 00 00 00
	00		 call	 DWORD PTR ?LogAddTD@@3P6AXPADZZA ; LogAddTD
  0026c	83 c4 0c	 add	 esp, 12			; 0000000cH

; 1999 : 							 gSetItemOption.GetSetOptionName(OptionTableIndex),
; 2000 : 							 pSetOptionCountTable[(*pSetOptionCount)]);
; 2001 : 
; 2002 : 					(*pSetOptionCount)++;

  0026f	8b 45 14	 mov	 eax, DWORD PTR _pSetOptionCount$[ebp]
  00272	8b 08		 mov	 ecx, DWORD PTR [eax]
  00274	83 c1 01	 add	 ecx, 1
  00277	8b 55 14	 mov	 edx, DWORD PTR _pSetOptionCount$[ebp]
  0027a	89 0a		 mov	 DWORD PTR [edx], ecx
$LN8@gObjGetSet:

; 2003 : 				}
; 2004 : 			}
; 2005 : 		}
; 2006 : 	}

  0027c	e9 a8 fd ff ff	 jmp	 $LN2@gObjGetSet
$LN1@gObjGetSet:

; 2007 : }

  00281	5f		 pop	 edi
  00282	5e		 pop	 esi
  00283	5b		 pop	 ebx
  00284	8b e5		 mov	 esp, ebp
  00286	5d		 pop	 ebp
  00287	c3		 ret	 0
?gObjGetSetItemOption@@YAXPAVOBJECTSTRUCT@@PAE1PAH@Z ENDP ; gObjGetSetItemOption
_TEXT	ENDS
; Function compile flags: /Odtp /ZI
; File C:\Mu Online\Mu-GS-Webzen-MC-10093\GameServer\ObjCalCharacter.cpp
;	COMDAT ?gObjCalcSetItemStat@@YAXPAVOBJECTSTRUCT@@@Z
_TEXT	SEGMENT
tv83 = -76						; size = 4
_AddStatType$1 = -8					; size = 4
_i$2 = -4						; size = 4
_lpObj$ = 8						; size = 4
?gObjCalcSetItemStat@@YAXPAVOBJECTSTRUCT@@@Z PROC	; gObjCalcSetItemStat, COMDAT

; 1876 : {

  00000	55		 push	 ebp
  00001	8b ec		 mov	 ebp, esp
  00003	83 ec 4c	 sub	 esp, 76			; 0000004cH
  00006	53		 push	 ebx
  00007	56		 push	 esi
  00008	57		 push	 edi

; 1877 : 	for( int i = 0; i < MAX_EQUIPMENT; i++ )

  00009	c7 45 fc 00 00
	00 00		 mov	 DWORD PTR _i$2[ebp], 0
  00010	eb 09		 jmp	 SHORT $LN4@gObjCalcSe
$LN2@gObjCalcSe:
  00012	8b 45 fc	 mov	 eax, DWORD PTR _i$2[ebp]
  00015	83 c0 01	 add	 eax, 1
  00018	89 45 fc	 mov	 DWORD PTR _i$2[ebp], eax
$LN4@gObjCalcSe:
  0001b	83 7d fc 0c	 cmp	 DWORD PTR _i$2[ebp], 12	; 0000000cH
  0001f	0f 8d 0f 01 00
	00		 jge	 $LN1@gObjCalcSe

; 1878 : 	{
; 1879 : 
; 1880 : #ifdef ADD_MINUS_STAT_SYSTEM_USING_FRUIT_20050712
; 1881 : 		if( lpObj->pInventory[i].IsSetItem() 
; 1882 : 			&& lpObj->pInventory[i].m_IsValidItem
; 1883 : 			&& lpObj->pInventory[i].m_Durability != 0.f )
; 1884 : #else
; 1885 : 		if( lpObj->pInventory[i].IsSetItem() && lpObj->pInventory[i].m_IsValidItem )

  00025	69 4d fc a8 00
	00 00		 imul	 ecx, DWORD PTR _i$2[ebp], 168
  0002c	8b 45 08	 mov	 eax, DWORD PTR _lpObj$[ebp]
  0002f	03 88 5c 0c 00
	00		 add	 ecx, DWORD PTR [eax+3164]
  00035	e8 00 00 00 00	 call	 ?IsSetItem@CItem@@QAEHXZ ; CItem::IsSetItem
  0003a	85 c0		 test	 eax, eax
  0003c	0f 84 ed 00 00
	00		 je	 $LN7@gObjCalcSe
  00042	69 45 fc a8 00
	00 00		 imul	 eax, DWORD PTR _i$2[ebp], 168
  00049	8b 4d 08	 mov	 ecx, DWORD PTR _lpObj$[ebp]
  0004c	8b 91 5c 0c 00
	00		 mov	 edx, DWORD PTR [ecx+3164]
  00052	0f b6 84 02 94
	00 00 00	 movzx	 eax, BYTE PTR [edx+eax+148]
  0005a	85 c0		 test	 eax, eax
  0005c	0f 84 cd 00 00
	00		 je	 $LN7@gObjCalcSe

; 1886 : #endif
; 1887 : 		{
; 1888 : 			int AddStatType  = lpObj->pInventory[i].GetAddStatType();

  00062	69 4d fc a8 00
	00 00		 imul	 ecx, DWORD PTR _i$2[ebp], 168
  00069	8b 45 08	 mov	 eax, DWORD PTR _lpObj$[ebp]
  0006c	03 88 5c 0c 00
	00		 add	 ecx, DWORD PTR [eax+3164]
  00072	e8 00 00 00 00	 call	 ?GetAddStatType@CItem@@QAEHXZ ; CItem::GetAddStatType
  00077	89 45 f8	 mov	 DWORD PTR _AddStatType$1[ebp], eax

; 1889 : 
; 1890 : 			switch(AddStatType)

  0007a	8b 45 f8	 mov	 eax, DWORD PTR _AddStatType$1[ebp]
  0007d	89 45 b4	 mov	 DWORD PTR tv83[ebp], eax
  00080	8b 4d b4	 mov	 ecx, DWORD PTR tv83[ebp]
  00083	83 e9 01	 sub	 ecx, 1
  00086	89 4d b4	 mov	 DWORD PTR tv83[ebp], ecx
  00089	83 7d b4 03	 cmp	 DWORD PTR tv83[ebp], 3
  0008d	0f 87 9c 00 00
	00		 ja	 $LN7@gObjCalcSe
  00093	8b 55 b4	 mov	 edx, DWORD PTR tv83[ebp]
  00096	ff 24 95 00 00
	00 00		 jmp	 DWORD PTR $LN13@gObjCalcSe[edx*4]
$LN8@gObjCalcSe:

; 1891 : 			{
; 1892 : 				case 1: 
; 1893 : 					{					
; 1894 : 						lpObj->pInventory[i].SetItemPlusSpecialStat(&lpObj->AddStrength, AT_SET_IMPROVE_STRENGTH);

  0009d	68 c4 00 00 00	 push	 196			; 000000c4H
  000a2	8b 45 08	 mov	 eax, DWORD PTR _lpObj$[ebp]
  000a5	05 e0 00 00 00	 add	 eax, 224		; 000000e0H
  000aa	50		 push	 eax
  000ab	69 4d fc a8 00
	00 00		 imul	 ecx, DWORD PTR _i$2[ebp], 168
  000b2	8b 55 08	 mov	 edx, DWORD PTR _lpObj$[ebp]
  000b5	03 8a 5c 0c 00
	00		 add	 ecx, DWORD PTR [edx+3164]
  000bb	e8 00 00 00 00	 call	 ?SetItemPlusSpecialStat@CItem@@QAEXPAGH@Z ; CItem::SetItemPlusSpecialStat

; 1895 : 				
; 1896 : 					}
; 1897 : 					break;

  000c0	eb 6d		 jmp	 SHORT $LN7@gObjCalcSe
$LN9@gObjCalcSe:

; 1898 : 				case 2: 
; 1899 : 					{					
; 1900 : 						lpObj->pInventory[i].SetItemPlusSpecialStat(&lpObj->AddDexterity, AT_SET_IMPROVE_DEXTERITY);					

  000c2	68 c5 00 00 00	 push	 197			; 000000c5H
  000c7	8b 45 08	 mov	 eax, DWORD PTR _lpObj$[ebp]
  000ca	05 e2 00 00 00	 add	 eax, 226		; 000000e2H
  000cf	50		 push	 eax
  000d0	69 4d fc a8 00
	00 00		 imul	 ecx, DWORD PTR _i$2[ebp], 168
  000d7	8b 55 08	 mov	 edx, DWORD PTR _lpObj$[ebp]
  000da	03 8a 5c 0c 00
	00		 add	 ecx, DWORD PTR [edx+3164]
  000e0	e8 00 00 00 00	 call	 ?SetItemPlusSpecialStat@CItem@@QAEXPAGH@Z ; CItem::SetItemPlusSpecialStat

; 1901 : 					}
; 1902 : 					break;

  000e5	eb 48		 jmp	 SHORT $LN7@gObjCalcSe
$LN10@gObjCalcSe:

; 1903 : 				case 3: 
; 1904 : 					{					
; 1905 : 						lpObj->pInventory[i].SetItemPlusSpecialStat(&lpObj->AddEnergy, AT_SET_IMPROVE_ENERGY);					

  000e7	68 c6 00 00 00	 push	 198			; 000000c6H
  000ec	8b 45 08	 mov	 eax, DWORD PTR _lpObj$[ebp]
  000ef	05 e6 00 00 00	 add	 eax, 230		; 000000e6H
  000f4	50		 push	 eax
  000f5	69 4d fc a8 00
	00 00		 imul	 ecx, DWORD PTR _i$2[ebp], 168
  000fc	8b 55 08	 mov	 edx, DWORD PTR _lpObj$[ebp]
  000ff	03 8a 5c 0c 00
	00		 add	 ecx, DWORD PTR [edx+3164]
  00105	e8 00 00 00 00	 call	 ?SetItemPlusSpecialStat@CItem@@QAEXPAGH@Z ; CItem::SetItemPlusSpecialStat

; 1906 : 					}
; 1907 : 					break;

  0010a	eb 23		 jmp	 SHORT $LN7@gObjCalcSe
$LN11@gObjCalcSe:

; 1908 : 				case 4: 
; 1909 : 					{					
; 1910 : 						lpObj->pInventory[i].SetItemPlusSpecialStat(&lpObj->AddVitality, AT_SET_IMPROVE_VITALITY);					

  0010c	68 c7 00 00 00	 push	 199			; 000000c7H
  00111	8b 45 08	 mov	 eax, DWORD PTR _lpObj$[ebp]
  00114	05 e4 00 00 00	 add	 eax, 228		; 000000e4H
  00119	50		 push	 eax
  0011a	69 4d fc a8 00
	00 00		 imul	 ecx, DWORD PTR _i$2[ebp], 168
  00121	8b 55 08	 mov	 edx, DWORD PTR _lpObj$[ebp]
  00124	03 8a 5c 0c 00
	00		 add	 ecx, DWORD PTR [edx+3164]
  0012a	e8 00 00 00 00	 call	 ?SetItemPlusSpecialStat@CItem@@QAEXPAGH@Z ; CItem::SetItemPlusSpecialStat
$LN7@gObjCalcSe:

; 1911 : 					}
; 1912 : 					break;
; 1913 : 			}
; 1914 : 		}
; 1915 : 		//int setoption = lpObj->pInventory[i].IsSetItem();
; 1916 : 	}

  0012f	e9 de fe ff ff	 jmp	 $LN2@gObjCalcSe
$LN1@gObjCalcSe:

; 1917 : }

  00134	5f		 pop	 edi
  00135	5e		 pop	 esi
  00136	5b		 pop	 ebx
  00137	8b e5		 mov	 esp, ebp
  00139	5d		 pop	 ebp
  0013a	c3		 ret	 0
  0013b	90		 npad	 1
$LN13@gObjCalcSe:
  0013c	00 00 00 00	 DD	 $LN8@gObjCalcSe
  00140	00 00 00 00	 DD	 $LN9@gObjCalcSe
  00144	00 00 00 00	 DD	 $LN10@gObjCalcSe
  00148	00 00 00 00	 DD	 $LN11@gObjCalcSe
?gObjCalcSetItemStat@@YAXPAVOBJECTSTRUCT@@@Z ENDP	; gObjCalcSetItemStat
_TEXT	ENDS
; Function compile flags: /Odtp /ZI
; File C:\Mu Online\Mu-GS-Webzen-MC-10093\GameServer\ObjCalCharacter.cpp
;	COMDAT ?GObjExtItemApply@@YAXPAVOBJECTSTRUCT@@@Z
_TEXT	SEGMENT
_maxn2_loop$ = -72					; size = 4
_temp_n2$ = -68						; size = 40
_temp_n$ = -28						; size = 12
_max_count$ = -16					; size = 4
_i$ = -12						; size = 4
_n$ = -8						; size = 4
__$ArrayPad$ = -4					; size = 4
_lpObj$ = 8						; size = 4
?GObjExtItemApply@@YAXPAVOBJECTSTRUCT@@@Z PROC		; GObjExtItemApply, COMDAT

; 1611 : {

  00000	55		 push	 ebp
  00001	8b ec		 mov	 ebp, esp
  00003	81 ec 88 00 00
	00		 sub	 esp, 136		; 00000088H
  00009	a1 00 00 00 00	 mov	 eax, DWORD PTR ___security_cookie
  0000e	33 c5		 xor	 eax, ebp
  00010	89 45 fc	 mov	 DWORD PTR __$ArrayPad$[ebp], eax
  00013	53		 push	 ebx
  00014	56		 push	 esi
  00015	57		 push	 edi

; 1612 : 	int n, i, max_count=0;

  00016	c7 45 f0 00 00
	00 00		 mov	 DWORD PTR _max_count$[ebp], 0

; 1613 : 	int temp_n[3]={EQUIPMENT_WEAPON_RIGHT, EQUIPMENT_WEAPON_LEFT, EQUIPMENT_AMULET};

  0001d	c7 45 e4 00 00
	00 00		 mov	 DWORD PTR _temp_n$[ebp], 0
  00024	c7 45 e8 01 00
	00 00		 mov	 DWORD PTR _temp_n$[ebp+4], 1
  0002b	c7 45 ec 09 00
	00 00		 mov	 DWORD PTR _temp_n$[ebp+8], 9

; 1614 : 	int temp_n2[10]={EQUIPMENT_HELM, EQUIPMENT_ARMOR, EQUIPMENT_PANTS, EQUIPMENT_GLOVES, 

  00032	c7 45 bc 02 00
	00 00		 mov	 DWORD PTR _temp_n2$[ebp], 2
  00039	c7 45 c0 03 00
	00 00		 mov	 DWORD PTR _temp_n2$[ebp+4], 3
  00040	c7 45 c4 04 00
	00 00		 mov	 DWORD PTR _temp_n2$[ebp+8], 4
  00047	c7 45 c8 05 00
	00 00		 mov	 DWORD PTR _temp_n2$[ebp+12], 5

; 1615 : 					EQUIPMENT_BOOTS, EQUIPMENT_WING, EQUIPMENT_HELPER, EQUIPMENT_RING_RIGHT, 

  0004e	c7 45 cc 06 00
	00 00		 mov	 DWORD PTR _temp_n2$[ebp+16], 6
  00055	c7 45 d0 07 00
	00 00		 mov	 DWORD PTR _temp_n2$[ebp+20], 7
  0005c	c7 45 d4 08 00
	00 00		 mov	 DWORD PTR _temp_n2$[ebp+24], 8
  00063	c7 45 d8 0a 00
	00 00		 mov	 DWORD PTR _temp_n2$[ebp+28], 10 ; 0000000aH

; 1616 : 					EQUIPMENT_RING_LEFT, EQUIPMENT_WEAPON_LEFT};

  0006a	c7 45 dc 0b 00
	00 00		 mov	 DWORD PTR _temp_n2$[ebp+32], 11 ; 0000000bH
  00071	c7 45 e0 01 00
	00 00		 mov	 DWORD PTR _temp_n2$[ebp+36], 1

; 1617 : 
; 1618 : 	int maxn2_loop=9;

  00078	c7 45 b8 09 00
	00 00		 mov	 DWORD PTR _maxn2_loop$[ebp], 9

; 1619 : 	// 방패를 착용했다면 왼손의 방패까지 체크한다. 
; 1620 : 	// 그렇지 않을 경우엔 방패는 무시한다.
; 1621 : 
; 1622 : 	// 무기, 목걸이
; 1623 : #ifdef MODIFY_ITEM_EFFECT_FLOW_20060519_2
; 1624 : 	int iItemTotalMagicDamage = 0;
; 1625 : 	int iItemTotalAttackDamageLeftValue = 0;
; 1626 : 	int iItemTotalAttackDamageRightValue = 0;
; 1627 : #endif // MODIFY_ITEM_EFFECT_FLOW_20060519_2
; 1628 : 	for( i=0; i<3; i++)

  0007f	c7 45 f4 00 00
	00 00		 mov	 DWORD PTR _i$[ebp], 0
  00086	eb 09		 jmp	 SHORT $LN4@GObjExtIte
$LN2@GObjExtIte:
  00088	8b 45 f4	 mov	 eax, DWORD PTR _i$[ebp]
  0008b	83 c0 01	 add	 eax, 1
  0008e	89 45 f4	 mov	 DWORD PTR _i$[ebp], eax
$LN4@GObjExtIte:
  00091	83 7d f4 03	 cmp	 DWORD PTR _i$[ebp], 3
  00095	0f 8d 11 05 00
	00		 jge	 $LN3@GObjExtIte

; 1629 : 	{
; 1630 : 		n = temp_n[i];

  0009b	8b 45 f4	 mov	 eax, DWORD PTR _i$[ebp]
  0009e	8b 4c 85 e4	 mov	 ecx, DWORD PTR _temp_n$[ebp+eax*4]
  000a2	89 4d f8	 mov	 DWORD PTR _n$[ebp], ecx

; 1631 : 		if( lpObj->pInventory[n].m_Type >= ITEM_SHIELD && lpObj->pInventory[n].m_Type < ITEM_HELM )

  000a5	69 45 f8 a8 00
	00 00		 imul	 eax, DWORD PTR _n$[ebp], 168
  000ac	8b 4d 08	 mov	 ecx, DWORD PTR _lpObj$[ebp]
  000af	8b 91 5c 0c 00
	00		 mov	 edx, DWORD PTR [ecx+3164]
  000b5	0f bf 44 02 06	 movsx	 eax, WORD PTR [edx+eax+6]
  000ba	3d c0 00 00 00	 cmp	 eax, 192		; 000000c0H
  000bf	7c 1e		 jl	 SHORT $LN8@GObjExtIte
  000c1	69 45 f8 a8 00
	00 00		 imul	 eax, DWORD PTR _n$[ebp], 168
  000c8	8b 4d 08	 mov	 ecx, DWORD PTR _lpObj$[ebp]
  000cb	8b 91 5c 0c 00
	00		 mov	 edx, DWORD PTR [ecx+3164]
  000d1	0f bf 44 02 06	 movsx	 eax, WORD PTR [edx+eax+6]
  000d6	3d e0 00 00 00	 cmp	 eax, 224		; 000000e0H
  000db	7d 02		 jge	 SHORT $LN8@GObjExtIte

; 1632 : 			continue;

  000dd	eb a9		 jmp	 SHORT $LN2@GObjExtIte
$LN8@GObjExtIte:

; 1633 : #ifdef ADD_MINUS_STAT_SYSTEM_USING_FRUIT_20050712
; 1634 : 		if( lpObj->pInventory[n].IsItem() == TRUE 
; 1635 : 			&& lpObj->pInventory[n].m_Durability != 0.f 
; 1636 : 			&& lpObj->pInventory[n].m_IsValidItem == TRUE )
; 1637 : #else
; 1638 : 		if( lpObj->pInventory[n].IsItem() == TRUE && lpObj->pInventory[n].m_Durability != 0.f )

  000df	69 4d f8 a8 00
	00 00		 imul	 ecx, DWORD PTR _n$[ebp], 168
  000e6	8b 45 08	 mov	 eax, DWORD PTR _lpObj$[ebp]
  000e9	03 88 5c 0c 00
	00		 add	 ecx, DWORD PTR [eax+3164]
  000ef	e8 00 00 00 00	 call	 ?IsItem@CItem@@QAEHXZ	; CItem::IsItem
  000f4	83 f8 01	 cmp	 eax, 1
  000f7	0f 85 aa 04 00
	00		 jne	 $LN9@GObjExtIte
  000fd	69 45 f8 a8 00
	00 00		 imul	 eax, DWORD PTR _n$[ebp], 168
  00104	8b 4d 08	 mov	 ecx, DWORD PTR _lpObj$[ebp]
  00107	8b 91 5c 0c 00
	00		 mov	 edx, DWORD PTR [ecx+3164]
  0010d	f3 0f 10 44 02
	24		 movss	 xmm0, DWORD PTR [edx+eax+36]
  00113	0f 2e 05 00 00
	00 00		 ucomiss xmm0, DWORD PTR __real@00000000
  0011a	9f		 lahf
  0011b	f6 c4 44	 test	 ah, 68			; 00000044H
  0011e	0f 8b 83 04 00
	00		 jnp	 $LN9@GObjExtIte

; 1639 : #endif
; 1640 : 		{			
; 1641 : 		#ifdef MODIFY_ITEM_EFFECT_FLOW_20060519
; 1642 : 			if( lpObj->pInventory[n].IsExtAttackRate() && type == 0 )	// 값 증가 옵션처리 인경우.
; 1643 : 		#else
; 1644 : 			if( lpObj->pInventory[n].IsExtAttackRate() ) 

  00124	69 4d f8 a8 00
	00 00		 imul	 ecx, DWORD PTR _n$[ebp], 168
  0012b	8b 45 08	 mov	 eax, DWORD PTR _lpObj$[ebp]
  0012e	03 88 5c 0c 00
	00		 add	 ecx, DWORD PTR [eax+3164]
  00134	e8 00 00 00 00	 call	 ?IsExtAttackRate@CItem@@QAEHXZ ; CItem::IsExtAttackRate
  00139	85 c0		 test	 eax, eax
  0013b	0f 84 81 01 00
	00		 je	 $LN17@GObjExtIte

; 1645 : 		#endif
; 1646 : 			{
; 1647 : 				if((lpObj->pInventory[n].m_Type >=ITEM_STAFF && lpObj->pInventory[n].m_Type <ITEM_STAFF+MAX_ITEM_INDEX) ||//지팡이
; 1648 : 				   (lpObj->pInventory[n].m_Type ==ITEM_HELPER+12)
; 1649 : 					// 얼음의 목걸이, 물의 목걸이는 마력증가..
; 1650 : 					|| (lpObj->pInventory[n].m_Type == ITEM_HELPER+25) || (lpObj->pInventory[n].m_Type == ITEM_HELPER+27)

  00141	69 45 f8 a8 00
	00 00		 imul	 eax, DWORD PTR _n$[ebp], 168
  00148	8b 4d 08	 mov	 ecx, DWORD PTR _lpObj$[ebp]
  0014b	8b 91 5c 0c 00
	00		 mov	 edx, DWORD PTR [ecx+3164]
  00151	0f bf 44 02 06	 movsx	 eax, WORD PTR [edx+eax+6]
  00156	3d a0 00 00 00	 cmp	 eax, 160		; 000000a0H
  0015b	7c 1c		 jl	 SHORT $LN14@GObjExtIte
  0015d	69 45 f8 a8 00
	00 00		 imul	 eax, DWORD PTR _n$[ebp], 168
  00164	8b 4d 08	 mov	 ecx, DWORD PTR _lpObj$[ebp]
  00167	8b 91 5c 0c 00
	00		 mov	 edx, DWORD PTR [ecx+3164]
  0016d	0f bf 44 02 06	 movsx	 eax, WORD PTR [edx+eax+6]
  00172	3d c0 00 00 00	 cmp	 eax, 192		; 000000c0H
  00177	7c 54		 jl	 SHORT $LN13@GObjExtIte
$LN14@GObjExtIte:
  00179	69 45 f8 a8 00
	00 00		 imul	 eax, DWORD PTR _n$[ebp], 168
  00180	8b 4d 08	 mov	 ecx, DWORD PTR _lpObj$[ebp]
  00183	8b 91 5c 0c 00
	00		 mov	 edx, DWORD PTR [ecx+3164]
  00189	0f bf 44 02 06	 movsx	 eax, WORD PTR [edx+eax+6]
  0018e	3d ac 01 00 00	 cmp	 eax, 428		; 000001acH
  00193	74 38		 je	 SHORT $LN13@GObjExtIte
  00195	69 45 f8 a8 00
	00 00		 imul	 eax, DWORD PTR _n$[ebp], 168
  0019c	8b 4d 08	 mov	 ecx, DWORD PTR _lpObj$[ebp]
  0019f	8b 91 5c 0c 00
	00		 mov	 edx, DWORD PTR [ecx+3164]
  001a5	0f bf 44 02 06	 movsx	 eax, WORD PTR [edx+eax+6]
  001aa	3d b9 01 00 00	 cmp	 eax, 441		; 000001b9H
  001af	74 1c		 je	 SHORT $LN13@GObjExtIte
  001b1	69 45 f8 a8 00
	00 00		 imul	 eax, DWORD PTR _n$[ebp], 168
  001b8	8b 4d 08	 mov	 ecx, DWORD PTR _lpObj$[ebp]
  001bb	8b 91 5c 0c 00
	00		 mov	 edx, DWORD PTR [ecx+3164]
  001c1	0f bf 44 02 06	 movsx	 eax, WORD PTR [edx+eax+6]
  001c6	3d bb 01 00 00	 cmp	 eax, 443		; 000001bbH
  001cb	75 4d		 jne	 SHORT $LN11@GObjExtIte
$LN13@GObjExtIte:

; 1651 : 				   )//목걸이
; 1652 : 				{	// 마력 증가 + 레벨/20					
; 1653 : #ifdef MASTER_LEVEL_UP_SYSTEM_20070912		// 종합레벨 - 마력증가 조절	: 마스터레벨 정보를 받으면 재설정 됨^^
; 1654 : 					lpObj->m_MagicDamageMax			+= ( lpObj->Level + lpObj->m_nMasterLevel ) / 20;
; 1655 : 					lpObj->m_MagicDamageMin			+= ( lpObj->Level + lpObj->m_nMasterLevel ) / 20;
; 1656 : #else
; 1657 : 					lpObj->m_MagicDamageMax			+= lpObj->Level/20;

  001cd	8b 45 08	 mov	 eax, DWORD PTR _lpObj$[ebp]
  001d0	0f bf 80 a0 00
	00 00		 movsx	 eax, WORD PTR [eax+160]
  001d7	99		 cdq
  001d8	b9 14 00 00 00	 mov	 ecx, 20			; 00000014H
  001dd	f7 f9		 idiv	 ecx
  001df	8b 55 08	 mov	 edx, DWORD PTR _lpObj$[ebp]
  001e2	03 82 c0 02 00
	00		 add	 eax, DWORD PTR [edx+704]
  001e8	8b 4d 08	 mov	 ecx, DWORD PTR _lpObj$[ebp]
  001eb	89 81 c0 02 00
	00		 mov	 DWORD PTR [ecx+704], eax

; 1658 : 					lpObj->m_MagicDamageMin			+= lpObj->Level/20;

  001f1	8b 45 08	 mov	 eax, DWORD PTR _lpObj$[ebp]
  001f4	0f bf 80 a0 00
	00 00		 movsx	 eax, WORD PTR [eax+160]
  001fb	99		 cdq
  001fc	b9 14 00 00 00	 mov	 ecx, 20			; 00000014H
  00201	f7 f9		 idiv	 ecx
  00203	8b 55 08	 mov	 edx, DWORD PTR _lpObj$[ebp]
  00206	03 82 bc 02 00
	00		 add	 eax, DWORD PTR [edx+700]
  0020c	8b 4d 08	 mov	 ecx, DWORD PTR _lpObj$[ebp]
  0020f	89 81 bc 02 00
	00		 mov	 DWORD PTR [ecx+700], eax

; 1659 : #endif
; 1660 : 				}

  00215	e9 a8 00 00 00	 jmp	 $LN17@GObjExtIte
$LN11@GObjExtIte:

; 1661 : 				else
; 1662 : 				{	// 공격력 증가 + 레벨/20
; 1663 : 					if( n == EQUIPMENT_WEAPON_RIGHT || n == EQUIPMENT_AMULET )

  0021a	83 7d f8 00	 cmp	 DWORD PTR _n$[ebp], 0
  0021e	74 06		 je	 SHORT $LN16@GObjExtIte
  00220	83 7d f8 09	 cmp	 DWORD PTR _n$[ebp], 9
  00224	75 48		 jne	 SHORT $LN15@GObjExtIte
$LN16@GObjExtIte:

; 1664 : 					{
; 1665 : #ifdef MASTER_LEVEL_UP_SYSTEM_20070912		// 종합레벨 - 무기(오)/목걸이 공격력 증가 조절 
; 1666 : 						lpObj->m_AttackDamageMinRight	+= ( lpObj->Level + lpObj->m_nMasterLevel ) / 20;
; 1667 : 						lpObj->m_AttackDamageMaxRight	+= ( lpObj->Level + lpObj->m_nMasterLevel ) / 20;
; 1668 : #else
; 1669 : 						lpObj->m_AttackDamageMinRight	+= lpObj->Level/20;

  00226	8b 45 08	 mov	 eax, DWORD PTR _lpObj$[ebp]
  00229	0f bf 80 a0 00
	00 00		 movsx	 eax, WORD PTR [eax+160]
  00230	99		 cdq
  00231	b9 14 00 00 00	 mov	 ecx, 20			; 00000014H
  00236	f7 f9		 idiv	 ecx
  00238	8b 55 08	 mov	 edx, DWORD PTR _lpObj$[ebp]
  0023b	03 82 d8 02 00
	00		 add	 eax, DWORD PTR [edx+728]
  00241	8b 4d 08	 mov	 ecx, DWORD PTR _lpObj$[ebp]
  00244	89 81 d8 02 00
	00		 mov	 DWORD PTR [ecx+728], eax

; 1670 : 						lpObj->m_AttackDamageMaxRight	+= lpObj->Level/20;

  0024a	8b 45 08	 mov	 eax, DWORD PTR _lpObj$[ebp]
  0024d	0f bf 80 a0 00
	00 00		 movsx	 eax, WORD PTR [eax+160]
  00254	99		 cdq
  00255	b9 14 00 00 00	 mov	 ecx, 20			; 00000014H
  0025a	f7 f9		 idiv	 ecx
  0025c	8b 55 08	 mov	 edx, DWORD PTR _lpObj$[ebp]
  0025f	03 82 d4 02 00
	00		 add	 eax, DWORD PTR [edx+724]
  00265	8b 4d 08	 mov	 ecx, DWORD PTR _lpObj$[ebp]
  00268	89 81 d4 02 00
	00		 mov	 DWORD PTR [ecx+724], eax
$LN15@GObjExtIte:

; 1671 : #endif
; 1672 : 					}
; 1673 : 
; 1674 : 					if( n == EQUIPMENT_WEAPON_LEFT || n == EQUIPMENT_AMULET )

  0026e	83 7d f8 01	 cmp	 DWORD PTR _n$[ebp], 1
  00272	74 06		 je	 SHORT $LN18@GObjExtIte
  00274	83 7d f8 09	 cmp	 DWORD PTR _n$[ebp], 9
  00278	75 48		 jne	 SHORT $LN17@GObjExtIte
$LN18@GObjExtIte:

; 1675 : 					{
; 1676 : #ifdef MASTER_LEVEL_UP_SYSTEM_20070912		// 종합레벨 - 무기(왼)/목걸이 공격력 증가 조절	
; 1677 : 						lpObj->m_AttackDamageMinLeft	+= ( lpObj->Level + lpObj->m_nMasterLevel ) / 20;
; 1678 : 						lpObj->m_AttackDamageMaxLeft	+= lpObj->Level/20;
; 1679 : #else
; 1680 : 						lpObj->m_AttackDamageMinLeft	+= lpObj->Level / 20;

  0027a	8b 45 08	 mov	 eax, DWORD PTR _lpObj$[ebp]
  0027d	0f bf 80 a0 00
	00 00		 movsx	 eax, WORD PTR [eax+160]
  00284	99		 cdq
  00285	b9 14 00 00 00	 mov	 ecx, 20			; 00000014H
  0028a	f7 f9		 idiv	 ecx
  0028c	8b 55 08	 mov	 edx, DWORD PTR _lpObj$[ebp]
  0028f	03 82 d0 02 00
	00		 add	 eax, DWORD PTR [edx+720]
  00295	8b 4d 08	 mov	 ecx, DWORD PTR _lpObj$[ebp]
  00298	89 81 d0 02 00
	00		 mov	 DWORD PTR [ecx+720], eax

; 1681 : 						lpObj->m_AttackDamageMaxLeft	+= lpObj->Level/20;

  0029e	8b 45 08	 mov	 eax, DWORD PTR _lpObj$[ebp]
  002a1	0f bf 80 a0 00
	00 00		 movsx	 eax, WORD PTR [eax+160]
  002a8	99		 cdq
  002a9	b9 14 00 00 00	 mov	 ecx, 20			; 00000014H
  002ae	f7 f9		 idiv	 ecx
  002b0	8b 55 08	 mov	 edx, DWORD PTR _lpObj$[ebp]
  002b3	03 82 cc 02 00
	00		 add	 eax, DWORD PTR [edx+716]
  002b9	8b 4d 08	 mov	 ecx, DWORD PTR _lpObj$[ebp]
  002bc	89 81 cc 02 00
	00		 mov	 DWORD PTR [ecx+716], eax
$LN17@GObjExtIte:

; 1682 : #endif
; 1683 : 					}
; 1684 : 				}
; 1685 : 			}
; 1686 : 
; 1687 : 			// 공격력 증가, 마력 증가 + 2%
; 1688 : 		#ifdef MODIFY_ITEM_EFFECT_FLOW_20060519
; 1689 : 			if( lpObj->pInventory[n].IsExtAttackRate2() && type == 1 )  // % 증가인 경우만 처리
; 1690 : 		#else
; 1691 : 			if( lpObj->pInventory[n].IsExtAttackRate2() )

  002c2	69 4d f8 a8 00
	00 00		 imul	 ecx, DWORD PTR _n$[ebp], 168
  002c9	8b 45 08	 mov	 eax, DWORD PTR _lpObj$[ebp]
  002cc	03 88 5c 0c 00
	00		 add	 ecx, DWORD PTR [eax+3164]
  002d2	e8 00 00 00 00	 call	 ?IsExtAttackRate2@CItem@@QAEHXZ ; CItem::IsExtAttackRate2
  002d7	85 c0		 test	 eax, eax
  002d9	0f 84 ff 01 00
	00		 je	 $LN26@GObjExtIte

; 1692 : 		#endif // MODIFY_ITEM_EFFECT_FLOW_20060519
; 1693 : 			{
; 1694 : 				if((lpObj->pInventory[n].m_Type >=ITEM_STAFF && lpObj->pInventory[n].m_Type <ITEM_STAFF+MAX_ITEM_INDEX) ||//지팡이
; 1695 : 				   (lpObj->pInventory[n].m_Type ==ITEM_HELPER+12)//목걸이
; 1696 : 					// 얼음의 목걸이, 물의 목걸이는 마력증가..
; 1697 : 					|| (lpObj->pInventory[n].m_Type == ITEM_HELPER+25) || (lpObj->pInventory[n].m_Type == ITEM_HELPER+27)

  002df	69 45 f8 a8 00
	00 00		 imul	 eax, DWORD PTR _n$[ebp], 168
  002e6	8b 4d 08	 mov	 ecx, DWORD PTR _lpObj$[ebp]
  002e9	8b 91 5c 0c 00
	00		 mov	 edx, DWORD PTR [ecx+3164]
  002ef	0f bf 44 02 06	 movsx	 eax, WORD PTR [edx+eax+6]
  002f4	3d a0 00 00 00	 cmp	 eax, 160		; 000000a0H
  002f9	7c 1c		 jl	 SHORT $LN23@GObjExtIte
  002fb	69 45 f8 a8 00
	00 00		 imul	 eax, DWORD PTR _n$[ebp], 168
  00302	8b 4d 08	 mov	 ecx, DWORD PTR _lpObj$[ebp]
  00305	8b 91 5c 0c 00
	00		 mov	 edx, DWORD PTR [ecx+3164]
  0030b	0f bf 44 02 06	 movsx	 eax, WORD PTR [edx+eax+6]
  00310	3d c0 00 00 00	 cmp	 eax, 192		; 000000c0H
  00315	7c 54		 jl	 SHORT $LN22@GObjExtIte
$LN23@GObjExtIte:
  00317	69 45 f8 a8 00
	00 00		 imul	 eax, DWORD PTR _n$[ebp], 168
  0031e	8b 4d 08	 mov	 ecx, DWORD PTR _lpObj$[ebp]
  00321	8b 91 5c 0c 00
	00		 mov	 edx, DWORD PTR [ecx+3164]
  00327	0f bf 44 02 06	 movsx	 eax, WORD PTR [edx+eax+6]
  0032c	3d ac 01 00 00	 cmp	 eax, 428		; 000001acH
  00331	74 38		 je	 SHORT $LN22@GObjExtIte
  00333	69 45 f8 a8 00
	00 00		 imul	 eax, DWORD PTR _n$[ebp], 168
  0033a	8b 4d 08	 mov	 ecx, DWORD PTR _lpObj$[ebp]
  0033d	8b 91 5c 0c 00
	00		 mov	 edx, DWORD PTR [ecx+3164]
  00343	0f bf 44 02 06	 movsx	 eax, WORD PTR [edx+eax+6]
  00348	3d b9 01 00 00	 cmp	 eax, 441		; 000001b9H
  0034d	74 1c		 je	 SHORT $LN22@GObjExtIte
  0034f	69 45 f8 a8 00
	00 00		 imul	 eax, DWORD PTR _n$[ebp], 168
  00356	8b 4d 08	 mov	 ecx, DWORD PTR _lpObj$[ebp]
  00359	8b 91 5c 0c 00
	00		 mov	 edx, DWORD PTR [ecx+3164]
  0035f	0f bf 44 02 06	 movsx	 eax, WORD PTR [edx+eax+6]
  00364	3d bb 01 00 00	 cmp	 eax, 443		; 000001bbH
  00369	75 77		 jne	 SHORT $LN20@GObjExtIte
$LN22@GObjExtIte:

; 1698 : 				   )
; 1699 : 				{	// 마력 증가 + 2%
; 1700 : 					#ifdef MODIFY_ITEM_EFFECT_FLOW_20060519_2
; 1701 : 						iItemTotalMagicDamage += lpObj->pInventory[n].IsExtAttackRate2();
; 1702 : 					#else
; 1703 : 						lpObj->m_MagicDamageMax		 += lpObj->m_MagicDamageMax*lpObj->pInventory[n].IsExtAttackRate2()/100;

  0036b	69 4d f8 a8 00
	00 00		 imul	 ecx, DWORD PTR _n$[ebp], 168
  00372	8b 45 08	 mov	 eax, DWORD PTR _lpObj$[ebp]
  00375	03 88 5c 0c 00
	00		 add	 ecx, DWORD PTR [eax+3164]
  0037b	e8 00 00 00 00	 call	 ?IsExtAttackRate2@CItem@@QAEHXZ ; CItem::IsExtAttackRate2
  00380	8b 4d 08	 mov	 ecx, DWORD PTR _lpObj$[ebp]
  00383	0f af 81 c0 02
	00 00		 imul	 eax, DWORD PTR [ecx+704]
  0038a	99		 cdq
  0038b	b9 64 00 00 00	 mov	 ecx, 100		; 00000064H
  00390	f7 f9		 idiv	 ecx
  00392	8b 55 08	 mov	 edx, DWORD PTR _lpObj$[ebp]
  00395	03 82 c0 02 00
	00		 add	 eax, DWORD PTR [edx+704]
  0039b	8b 4d 08	 mov	 ecx, DWORD PTR _lpObj$[ebp]
  0039e	89 81 c0 02 00
	00		 mov	 DWORD PTR [ecx+704], eax

; 1704 : 						lpObj->m_MagicDamageMin		 += lpObj->m_MagicDamageMin*lpObj->pInventory[n].IsExtAttackRate2()/100;

  003a4	69 4d f8 a8 00
	00 00		 imul	 ecx, DWORD PTR _n$[ebp], 168
  003ab	8b 45 08	 mov	 eax, DWORD PTR _lpObj$[ebp]
  003ae	03 88 5c 0c 00
	00		 add	 ecx, DWORD PTR [eax+3164]
  003b4	e8 00 00 00 00	 call	 ?IsExtAttackRate2@CItem@@QAEHXZ ; CItem::IsExtAttackRate2
  003b9	8b 4d 08	 mov	 ecx, DWORD PTR _lpObj$[ebp]
  003bc	0f af 81 bc 02
	00 00		 imul	 eax, DWORD PTR [ecx+700]
  003c3	99		 cdq
  003c4	b9 64 00 00 00	 mov	 ecx, 100		; 00000064H
  003c9	f7 f9		 idiv	 ecx
  003cb	8b 55 08	 mov	 edx, DWORD PTR _lpObj$[ebp]
  003ce	03 82 bc 02 00
	00		 add	 eax, DWORD PTR [edx+700]
  003d4	8b 4d 08	 mov	 ecx, DWORD PTR _lpObj$[ebp]
  003d7	89 81 bc 02 00
	00		 mov	 DWORD PTR [ecx+700], eax

; 1705 : 					#endif
; 1706 : 				}

  003dd	e9 fc 00 00 00	 jmp	 $LN26@GObjExtIte
$LN20@GObjExtIte:

; 1707 : 				else
; 1708 : 				{	// 공격력 증가, 마력 증가 + 2%
; 1709 : 					if( n == EQUIPMENT_WEAPON_RIGHT || n == EQUIPMENT_AMULET )

  003e2	83 7d f8 00	 cmp	 DWORD PTR _n$[ebp], 0
  003e6	74 06		 je	 SHORT $LN25@GObjExtIte
  003e8	83 7d f8 09	 cmp	 DWORD PTR _n$[ebp], 9
  003ec	75 72		 jne	 SHORT $LN24@GObjExtIte
$LN25@GObjExtIte:

; 1710 : 					{
; 1711 : 						#ifdef MODIFY_ITEM_EFFECT_FLOW_20060519_2
; 1712 : 							iItemTotalAttackDamageRightValue += lpObj->pInventory[n].IsExtAttackRate2();
; 1713 : 						#else
; 1714 : 							lpObj->m_AttackDamageMinRight+= lpObj->m_AttackDamageMinRight*lpObj->pInventory[n].IsExtAttackRate2()/100;

  003ee	69 4d f8 a8 00
	00 00		 imul	 ecx, DWORD PTR _n$[ebp], 168
  003f5	8b 45 08	 mov	 eax, DWORD PTR _lpObj$[ebp]
  003f8	03 88 5c 0c 00
	00		 add	 ecx, DWORD PTR [eax+3164]
  003fe	e8 00 00 00 00	 call	 ?IsExtAttackRate2@CItem@@QAEHXZ ; CItem::IsExtAttackRate2
  00403	8b 4d 08	 mov	 ecx, DWORD PTR _lpObj$[ebp]
  00406	0f af 81 d8 02
	00 00		 imul	 eax, DWORD PTR [ecx+728]
  0040d	99		 cdq
  0040e	b9 64 00 00 00	 mov	 ecx, 100		; 00000064H
  00413	f7 f9		 idiv	 ecx
  00415	8b 55 08	 mov	 edx, DWORD PTR _lpObj$[ebp]
  00418	03 82 d8 02 00
	00		 add	 eax, DWORD PTR [edx+728]
  0041e	8b 4d 08	 mov	 ecx, DWORD PTR _lpObj$[ebp]
  00421	89 81 d8 02 00
	00		 mov	 DWORD PTR [ecx+728], eax

; 1715 : 							lpObj->m_AttackDamageMaxRight+= lpObj->m_AttackDamageMaxRight*lpObj->pInventory[n].IsExtAttackRate2()/100;

  00427	69 4d f8 a8 00
	00 00		 imul	 ecx, DWORD PTR _n$[ebp], 168
  0042e	8b 45 08	 mov	 eax, DWORD PTR _lpObj$[ebp]
  00431	03 88 5c 0c 00
	00		 add	 ecx, DWORD PTR [eax+3164]
  00437	e8 00 00 00 00	 call	 ?IsExtAttackRate2@CItem@@QAEHXZ ; CItem::IsExtAttackRate2
  0043c	8b 4d 08	 mov	 ecx, DWORD PTR _lpObj$[ebp]
  0043f	0f af 81 d4 02
	00 00		 imul	 eax, DWORD PTR [ecx+724]
  00446	99		 cdq
  00447	b9 64 00 00 00	 mov	 ecx, 100		; 00000064H
  0044c	f7 f9		 idiv	 ecx
  0044e	8b 55 08	 mov	 edx, DWORD PTR _lpObj$[ebp]
  00451	03 82 d4 02 00
	00		 add	 eax, DWORD PTR [edx+724]
  00457	8b 4d 08	 mov	 ecx, DWORD PTR _lpObj$[ebp]
  0045a	89 81 d4 02 00
	00		 mov	 DWORD PTR [ecx+724], eax
$LN24@GObjExtIte:

; 1716 : 						#endif
; 1717 : 					}
; 1718 : 
; 1719 : 					if( n == EQUIPMENT_WEAPON_LEFT || n == EQUIPMENT_AMULET )

  00460	83 7d f8 01	 cmp	 DWORD PTR _n$[ebp], 1
  00464	74 06		 je	 SHORT $LN27@GObjExtIte
  00466	83 7d f8 09	 cmp	 DWORD PTR _n$[ebp], 9
  0046a	75 72		 jne	 SHORT $LN26@GObjExtIte
$LN27@GObjExtIte:

; 1720 : 					{
; 1721 : 						#ifdef MODIFY_ITEM_EFFECT_FLOW_20060519_2
; 1722 : 							iItemTotalAttackDamageLeftValue += lpObj->pInventory[n].IsExtAttackRate2();
; 1723 : 						#else
; 1724 : 							lpObj->m_AttackDamageMinLeft += lpObj->m_AttackDamageMinLeft*lpObj->pInventory[n].IsExtAttackRate2()/100;

  0046c	69 4d f8 a8 00
	00 00		 imul	 ecx, DWORD PTR _n$[ebp], 168
  00473	8b 45 08	 mov	 eax, DWORD PTR _lpObj$[ebp]
  00476	03 88 5c 0c 00
	00		 add	 ecx, DWORD PTR [eax+3164]
  0047c	e8 00 00 00 00	 call	 ?IsExtAttackRate2@CItem@@QAEHXZ ; CItem::IsExtAttackRate2
  00481	8b 4d 08	 mov	 ecx, DWORD PTR _lpObj$[ebp]
  00484	0f af 81 d0 02
	00 00		 imul	 eax, DWORD PTR [ecx+720]
  0048b	99		 cdq
  0048c	b9 64 00 00 00	 mov	 ecx, 100		; 00000064H
  00491	f7 f9		 idiv	 ecx
  00493	8b 55 08	 mov	 edx, DWORD PTR _lpObj$[ebp]
  00496	03 82 d0 02 00
	00		 add	 eax, DWORD PTR [edx+720]
  0049c	8b 4d 08	 mov	 ecx, DWORD PTR _lpObj$[ebp]
  0049f	89 81 d0 02 00
	00		 mov	 DWORD PTR [ecx+720], eax

; 1725 : 							lpObj->m_AttackDamageMaxLeft += lpObj->m_AttackDamageMaxLeft*lpObj->pInventory[n].IsExtAttackRate2()/100;

  004a5	69 4d f8 a8 00
	00 00		 imul	 ecx, DWORD PTR _n$[ebp], 168
  004ac	8b 45 08	 mov	 eax, DWORD PTR _lpObj$[ebp]
  004af	03 88 5c 0c 00
	00		 add	 ecx, DWORD PTR [eax+3164]
  004b5	e8 00 00 00 00	 call	 ?IsExtAttackRate2@CItem@@QAEHXZ ; CItem::IsExtAttackRate2
  004ba	8b 4d 08	 mov	 ecx, DWORD PTR _lpObj$[ebp]
  004bd	0f af 81 cc 02
	00 00		 imul	 eax, DWORD PTR [ecx+716]
  004c4	99		 cdq
  004c5	b9 64 00 00 00	 mov	 ecx, 100		; 00000064H
  004ca	f7 f9		 idiv	 ecx
  004cc	8b 55 08	 mov	 edx, DWORD PTR _lpObj$[ebp]
  004cf	03 82 cc 02 00
	00		 add	 eax, DWORD PTR [edx+716]
  004d5	8b 4d 08	 mov	 ecx, DWORD PTR _lpObj$[ebp]
  004d8	89 81 cc 02 00
	00		 mov	 DWORD PTR [ecx+716], eax
$LN26@GObjExtIte:

; 1726 : 						#endif
; 1727 : 					}
; 1728 : 				}
; 1729 : 			}
; 1730 : 
; 1731 : #ifdef MODIFY_ITEM_EFFECT_FLOW_20060519
; 1732 : 			if ( type == 0 ) // 값 증가 처리인 경우만.
; 1733 : 			{
; 1734 : #endif // MODIFY_ITEM_EFFECT_FLOW_20060519
; 1735 : 			lpObj->m_ExcelentDamage		+= lpObj->pInventory[n].IsExtExcellentDamage();

  004de	69 4d f8 a8 00
	00 00		 imul	 ecx, DWORD PTR _n$[ebp], 168
  004e5	8b 45 08	 mov	 eax, DWORD PTR _lpObj$[ebp]
  004e8	03 88 5c 0c 00
	00		 add	 ecx, DWORD PTR [eax+3164]
  004ee	e8 00 00 00 00	 call	 ?IsExtExcellentDamage@CItem@@QAEHXZ ; CItem::IsExtExcellentDamage
  004f3	8b 4d 08	 mov	 ecx, DWORD PTR _lpObj$[ebp]
  004f6	03 81 08 03 00
	00		 add	 eax, DWORD PTR [ecx+776]
  004fc	8b 55 08	 mov	 edx, DWORD PTR _lpObj$[ebp]
  004ff	89 82 08 03 00
	00		 mov	 DWORD PTR [edx+776], eax

; 1736 : 			lpObj->m_AttackSpeed		+= lpObj->pInventory[n].IsExtAttackSpeed();

  00505	69 4d f8 a8 00
	00 00		 imul	 ecx, DWORD PTR _n$[ebp], 168
  0050c	8b 45 08	 mov	 eax, DWORD PTR _lpObj$[ebp]
  0050f	03 88 5c 0c 00
	00		 add	 ecx, DWORD PTR [eax+3164]
  00515	e8 00 00 00 00	 call	 ?IsExtAttackSpeed@CItem@@QAEHXZ ; CItem::IsExtAttackSpeed
  0051a	8b 4d 08	 mov	 ecx, DWORD PTR _lpObj$[ebp]
  0051d	03 81 e0 02 00
	00		 add	 eax, DWORD PTR [ecx+736]
  00523	8b 55 08	 mov	 edx, DWORD PTR _lpObj$[ebp]
  00526	89 82 e0 02 00
	00		 mov	 DWORD PTR [edx+736], eax

; 1737 : 			lpObj->m_MagicSpeed			+= lpObj->pInventory[n].IsExtAttackSpeed();

  0052c	69 4d f8 a8 00
	00 00		 imul	 ecx, DWORD PTR _n$[ebp], 168
  00533	8b 45 08	 mov	 eax, DWORD PTR _lpObj$[ebp]
  00536	03 88 5c 0c 00
	00		 add	 ecx, DWORD PTR [eax+3164]
  0053c	e8 00 00 00 00	 call	 ?IsExtAttackSpeed@CItem@@QAEHXZ ; CItem::IsExtAttackSpeed
  00541	8b 4d 08	 mov	 ecx, DWORD PTR _lpObj$[ebp]
  00544	03 81 e4 02 00
	00		 add	 eax, DWORD PTR [ecx+740]
  0054a	8b 55 08	 mov	 edx, DWORD PTR _lpObj$[ebp]
  0054d	89 82 e4 02 00
	00		 mov	 DWORD PTR [edx+740], eax

; 1738 : 			
; 1739 : 			lpObj->MonsterDieGetLife	+= lpObj->pInventory[n].IsExtMonsterDieLife();

  00553	69 4d f8 a8 00
	00 00		 imul	 ecx, DWORD PTR _n$[ebp], 168
  0055a	8b 45 08	 mov	 eax, DWORD PTR _lpObj$[ebp]
  0055d	03 88 5c 0c 00
	00		 add	 ecx, DWORD PTR [eax+3164]
  00563	e8 00 00 00 00	 call	 ?IsExtMonsterDieLife@CItem@@QAEHXZ ; CItem::IsExtMonsterDieLife
  00568	8b 4d 08	 mov	 ecx, DWORD PTR _lpObj$[ebp]
  0056b	0f b6 91 18 01
	00 00		 movzx	 edx, BYTE PTR [ecx+280]
  00572	03 d0		 add	 edx, eax
  00574	8b 45 08	 mov	 eax, DWORD PTR _lpObj$[ebp]
  00577	88 90 18 01 00
	00		 mov	 BYTE PTR [eax+280], dl

; 1740 : 			lpObj->MonsterDieGetMana	+= lpObj->pInventory[n].IsExtMonsterDieMana();

  0057d	69 4d f8 a8 00
	00 00		 imul	 ecx, DWORD PTR _n$[ebp], 168
  00584	8b 45 08	 mov	 eax, DWORD PTR _lpObj$[ebp]
  00587	03 88 5c 0c 00
	00		 add	 ecx, DWORD PTR [eax+3164]
  0058d	e8 00 00 00 00	 call	 ?IsExtMonsterDieMana@CItem@@QAEHXZ ; CItem::IsExtMonsterDieMana
  00592	8b 4d 08	 mov	 ecx, DWORD PTR _lpObj$[ebp]
  00595	0f b6 91 19 01
	00 00		 movzx	 edx, BYTE PTR [ecx+281]
  0059c	03 d0		 add	 edx, eax
  0059e	8b 45 08	 mov	 eax, DWORD PTR _lpObj$[ebp]
  005a1	88 90 19 01 00
	00		 mov	 BYTE PTR [eax+281], dl
$LN9@GObjExtIte:

; 1741 : 
; 1742 : #ifdef MODIFY_ITEM_EFFECT_FLOW_20060519
; 1743 : 			}
; 1744 : #endif // MODIFY_ITEM_EFFECT_FLOW_20060519
; 1745 : 		}
; 1746 : 	}

  005a7	e9 dc fa ff ff	 jmp	 $LN2@GObjExtIte
$LN3@GObjExtIte:

; 1747 : 
; 1748 : #ifdef MODIFY_ITEM_EFFECT_FLOW_20060519_2
; 1749 : 	if ( type == 1 ) // % 증가 옵션 처리. 마력. 공격력
; 1750 : 	{
; 1751 : 		lpObj->m_MagicDamageMax		 += lpObj->m_MagicDamageMax*iItemTotalMagicDamage/100;
; 1752 : 		lpObj->m_MagicDamageMin		 += lpObj->m_MagicDamageMin*iItemTotalMagicDamage/100;
; 1753 : 
; 1754 : 		lpObj->m_AttackDamageMinLeft += lpObj->m_AttackDamageMinLeft*iItemTotalAttackDamageLeftValue/100;
; 1755 : 		lpObj->m_AttackDamageMaxLeft += lpObj->m_AttackDamageMaxLeft*iItemTotalAttackDamageLeftValue/100;
; 1756 : 
; 1757 : 		lpObj->m_AttackDamageMinRight += lpObj->m_AttackDamageMinRight*iItemTotalAttackDamageRightValue/100;
; 1758 : 		lpObj->m_AttackDamageMaxRight += lpObj->m_AttackDamageMaxRight*iItemTotalAttackDamageRightValue/100;
; 1759 : 	}
; 1760 : #endif
; 1761 : 
; 1762 : 	//LogAdd("error-(m_AttackDamageMinLeft7)[%s][%d]:%d",lpObj->Name, lpObj->Dexterity, lpObj->m_AttackDamageMinLeft);
; 1763 : 
; 1764 : 	if( lpObj->pInventory[EQUIPMENT_WEAPON_LEFT].IsItem() == TRUE )

  005ac	b9 a8 00 00 00	 mov	 ecx, 168		; 000000a8H
  005b1	c1 e1 00	 shl	 ecx, 0
  005b4	8b 45 08	 mov	 eax, DWORD PTR _lpObj$[ebp]
  005b7	03 88 5c 0c 00
	00		 add	 ecx, DWORD PTR [eax+3164]
  005bd	e8 00 00 00 00	 call	 ?IsItem@CItem@@QAEHXZ	; CItem::IsItem
  005c2	83 f8 01	 cmp	 eax, 1
  005c5	75 53		 jne	 SHORT $LN29@GObjExtIte

; 1765 : 	{
; 1766 : 		if( lpObj->pInventory[EQUIPMENT_WEAPON_LEFT].m_Type >= MAKE_ITEMNUM(6,0)
; 1767 : #ifdef MODIFY_EXCELLENT_SHILED_BUG_20060615
; 1768 : 			&& lpObj->pInventory[EQUIPMENT_WEAPON_LEFT].m_Type <= MAKE_ITEMNUM(6,16)	// 엘리멘탈 방패 포함

  005c7	b8 a8 00 00 00	 mov	 eax, 168		; 000000a8H
  005cc	c1 e0 00	 shl	 eax, 0
  005cf	8b 4d 08	 mov	 ecx, DWORD PTR _lpObj$[ebp]
  005d2	8b 91 5c 0c 00
	00		 mov	 edx, DWORD PTR [ecx+3164]
  005d8	0f bf 74 02 06	 movsx	 esi, WORD PTR [edx+eax+6]
  005dd	6a 00		 push	 0
  005df	6a 06		 push	 6
  005e1	e8 00 00 00 00	 call	 ?MakeItemNumber@@YAHHH@Z ; MakeItemNumber
  005e6	83 c4 08	 add	 esp, 8
  005e9	3b f0		 cmp	 esi, eax
  005eb	7c 2d		 jl	 SHORT $LN29@GObjExtIte
  005ed	b8 a8 00 00 00	 mov	 eax, 168		; 000000a8H
  005f2	c1 e0 00	 shl	 eax, 0
  005f5	8b 4d 08	 mov	 ecx, DWORD PTR _lpObj$[ebp]
  005f8	8b 91 5c 0c 00
	00		 mov	 edx, DWORD PTR [ecx+3164]
  005fe	0f bf 74 02 06	 movsx	 esi, WORD PTR [edx+eax+6]
  00603	6a 10		 push	 16			; 00000010H
  00605	6a 06		 push	 6
  00607	e8 00 00 00 00	 call	 ?MakeItemNumber@@YAHHH@Z ; MakeItemNumber
  0060c	83 c4 08	 add	 esp, 8
  0060f	3b f0		 cmp	 esi, eax
  00611	7f 07		 jg	 SHORT $LN29@GObjExtIte

; 1769 : #else
; 1770 : 			&& lpObj->pInventory[EQUIPMENT_WEAPON_LEFT].m_Type <= MAKE_ITEMNUM(6,15)
; 1771 : #endif
; 1772 : #ifdef MODIFY_CROSS_SHIELD_EX_OPTION_APPLY_20090326
; 1773 : 			|| lpObj->pInventory[EQUIPMENT_WEAPON_LEFT].m_Type == MAKE_ITEMNUM(6,21)	// 크로스 실드 포함
; 1774 : #endif // MODIFY_CROSS_SHIELD_EX_OPTION_APPLY_20090326			
; 1775 : 			)
; 1776 : 		{
; 1777 : 			maxn2_loop = 10;

  00613	c7 45 b8 0a 00
	00 00		 mov	 DWORD PTR _maxn2_loop$[ebp], 10 ; 0000000aH
$LN29@GObjExtIte:

; 1778 : 		}
; 1779 : 	}
; 1780 : 
; 1781 : 	// 방어구, 방패, 반지 
; 1782 : #ifdef MODIFY_ITEM_EFFECT_FLOW_20060519
; 1783 : 	int iItemTotalLifeAddValue = 0;
; 1784 : 	int iItemTotalManaAddValue = 0;
; 1785 : #endif // MODIFY_ITEM_EFFECT_FLOW_20060519
; 1786 : 	for( i=0; i<maxn2_loop; i++)

  0061a	c7 45 f4 00 00
	00 00		 mov	 DWORD PTR _i$[ebp], 0
  00621	eb 09		 jmp	 SHORT $LN7@GObjExtIte
$LN5@GObjExtIte:
  00623	8b 45 f4	 mov	 eax, DWORD PTR _i$[ebp]
  00626	83 c0 01	 add	 eax, 1
  00629	89 45 f4	 mov	 DWORD PTR _i$[ebp], eax
$LN7@GObjExtIte:
  0062c	8b 45 f4	 mov	 eax, DWORD PTR _i$[ebp]
  0062f	3b 45 b8	 cmp	 eax, DWORD PTR _maxn2_loop$[ebp]
  00632	0f 8d d0 01 00
	00		 jge	 $LN6@GObjExtIte

; 1787 : 	{	
; 1788 : 		n = temp_n2[i];

  00638	8b 45 f4	 mov	 eax, DWORD PTR _i$[ebp]
  0063b	8b 4c 85 bc	 mov	 ecx, DWORD PTR _temp_n2$[ebp+eax*4]
  0063f	89 4d f8	 mov	 DWORD PTR _n$[ebp], ecx

; 1789 : 		if( max_count < 8 )

  00642	83 7d f0 08	 cmp	 DWORD PTR _max_count$[ebp], 8
  00646	0f 8d b7 01 00
	00		 jge	 $LN32@GObjExtIte

; 1790 : 		{
; 1791 : 
; 1792 : #ifdef ADD_MINUS_STAT_SYSTEM_USING_FRUIT_20050712
; 1793 : 			if( lpObj->pInventory[n].IsItem() == TRUE 
; 1794 : 				&& lpObj->pInventory[n].IsExtItem() 
; 1795 : 				&& lpObj->pInventory[n].m_Durability != 0.f 
; 1796 : 				&& lpObj->pInventory[n].m_IsValidItem == TRUE )
; 1797 : #else
; 1798 : 			if( lpObj->pInventory[n].IsItem() == TRUE && lpObj->pInventory[n].IsExtItem() &&  lpObj->pInventory[n].m_Durability != 0.f )

  0064c	69 4d f8 a8 00
	00 00		 imul	 ecx, DWORD PTR _n$[ebp], 168
  00653	8b 45 08	 mov	 eax, DWORD PTR _lpObj$[ebp]
  00656	03 88 5c 0c 00
	00		 add	 ecx, DWORD PTR [eax+3164]
  0065c	e8 00 00 00 00	 call	 ?IsItem@CItem@@QAEHXZ	; CItem::IsItem
  00661	83 f8 01	 cmp	 eax, 1
  00664	0f 85 99 01 00
	00		 jne	 $LN32@GObjExtIte
  0066a	69 4d f8 a8 00
	00 00		 imul	 ecx, DWORD PTR _n$[ebp], 168
  00671	8b 45 08	 mov	 eax, DWORD PTR _lpObj$[ebp]
  00674	03 88 5c 0c 00
	00		 add	 ecx, DWORD PTR [eax+3164]
  0067a	e8 00 00 00 00	 call	 ?IsExtItem@CItem@@QAEHXZ ; CItem::IsExtItem
  0067f	85 c0		 test	 eax, eax
  00681	0f 84 7c 01 00
	00		 je	 $LN32@GObjExtIte
  00687	69 45 f8 a8 00
	00 00		 imul	 eax, DWORD PTR _n$[ebp], 168
  0068e	8b 4d 08	 mov	 ecx, DWORD PTR _lpObj$[ebp]
  00691	8b 91 5c 0c 00
	00		 mov	 edx, DWORD PTR [ecx+3164]
  00697	f3 0f 10 44 02
	24		 movss	 xmm0, DWORD PTR [edx+eax+36]
  0069d	0f 2e 05 00 00
	00 00		 ucomiss xmm0, DWORD PTR __real@00000000
  006a4	9f		 lahf
  006a5	f6 c4 44	 test	 ah, 68			; 00000044H
  006a8	0f 8b 55 01 00
	00		 jnp	 $LN32@GObjExtIte

; 1799 : #endif
; 1800 : 			{	
; 1801 : 				if( n != EQUIPMENT_WING )

  006ae	83 7d f8 07	 cmp	 DWORD PTR _n$[ebp], 7
  006b2	0f 84 4b 01 00
	00		 je	 $LN32@GObjExtIte

; 1802 : 				{
; 1803 : #ifdef MODIFY_ITEM_EFFECT_FLOW_20060519
; 1804 : 					if ( type == 1 ) // % 증가 옵션. 아이템에 의한 증가 값을 1차로 계산한다.
; 1805 : 					{
; 1806 : 						iItemTotalLifeAddValue += lpObj->pInventory[n].IsExtLifeAdd();
; 1807 : 						iItemTotalManaAddValue += lpObj->pInventory[n].IsExtManaAdd();
; 1808 : 					}
; 1809 : #else
; 1810 : 					lpObj->AddLife += (short)(lpObj->MaxLife*lpObj->pInventory[n].IsExtLifeAdd()/100);

  006b8	69 4d f8 a8 00
	00 00		 imul	 ecx, DWORD PTR _n$[ebp], 168
  006bf	8b 45 08	 mov	 eax, DWORD PTR _lpObj$[ebp]
  006c2	03 88 5c 0c 00
	00		 add	 ecx, DWORD PTR [eax+3164]
  006c8	e8 00 00 00 00	 call	 ?IsExtLifeAdd@CItem@@QAEHXZ ; CItem::IsExtLifeAdd
  006cd	f3 0f 2a c0	 cvtsi2ss xmm0, eax
  006d1	8b 4d 08	 mov	 ecx, DWORD PTR _lpObj$[ebp]
  006d4	f3 0f 59 81 c0
	00 00 00	 mulss	 xmm0, DWORD PTR [ecx+192]
  006dc	f3 0f 5e 05 00
	00 00 00	 divss	 xmm0, DWORD PTR __real@42c80000
  006e4	f3 0f 2c d0	 cvttss2si edx, xmm0
  006e8	0f bf c2	 movsx	 eax, dx
  006eb	8b 4d 08	 mov	 ecx, DWORD PTR _lpObj$[ebp]
  006ee	03 81 0c 01 00
	00		 add	 eax, DWORD PTR [ecx+268]
  006f4	8b 55 08	 mov	 edx, DWORD PTR _lpObj$[ebp]
  006f7	89 82 0c 01 00
	00		 mov	 DWORD PTR [edx+268], eax

; 1811 : 					lpObj->AddMana += (short)(lpObj->MaxMana*lpObj->pInventory[n].IsExtManaAdd()/100);

  006fd	69 4d f8 a8 00
	00 00		 imul	 ecx, DWORD PTR _n$[ebp], 168
  00704	8b 45 08	 mov	 eax, DWORD PTR _lpObj$[ebp]
  00707	03 88 5c 0c 00
	00		 add	 ecx, DWORD PTR [eax+3164]
  0070d	e8 00 00 00 00	 call	 ?IsExtManaAdd@CItem@@QAEHXZ ; CItem::IsExtManaAdd
  00712	f3 0f 2a c0	 cvtsi2ss xmm0, eax
  00716	8b 4d 08	 mov	 ecx, DWORD PTR _lpObj$[ebp]
  00719	f3 0f 59 81 d4
	00 00 00	 mulss	 xmm0, DWORD PTR [ecx+212]
  00721	f3 0f 5e 05 00
	00 00 00	 divss	 xmm0, DWORD PTR __real@42c80000
  00729	f3 0f 2c d0	 cvttss2si edx, xmm0
  0072d	0f bf c2	 movsx	 eax, dx
  00730	8b 4d 08	 mov	 ecx, DWORD PTR _lpObj$[ebp]
  00733	03 81 10 01 00
	00		 add	 eax, DWORD PTR [ecx+272]
  00739	8b 55 08	 mov	 edx, DWORD PTR _lpObj$[ebp]
  0073c	89 82 10 01 00
	00		 mov	 DWORD PTR [edx+272], eax

; 1812 : #endif // MODIFY_ITEM_EFFECT_FLOW_20060519
; 1813 : 				
; 1814 : #ifdef MODIFY_ITEM_EFFECT_FLOW_20060519
; 1815 : 					if ( type == 1 ) // % 증가 옵션 처리
; 1816 : 					{
; 1817 : #endif // MODIFY_ITEM_EFFECT_FLOW_20060519
; 1818 : 					lpObj->m_SuccessfulBlocking += lpObj->m_SuccessfulBlocking*lpObj->pInventory[n].IsExtDefenseSuccessfull()/100;

  00742	69 4d f8 a8 00
	00 00		 imul	 ecx, DWORD PTR _n$[ebp], 168
  00749	8b 45 08	 mov	 eax, DWORD PTR _lpObj$[ebp]
  0074c	03 88 5c 0c 00
	00		 add	 ecx, DWORD PTR [eax+3164]
  00752	e8 00 00 00 00	 call	 ?IsExtDefenseSuccessfull@CItem@@QAEHXZ ; CItem::IsExtDefenseSuccessfull
  00757	8b 4d 08	 mov	 ecx, DWORD PTR _lpObj$[ebp]
  0075a	0f af 81 f0 02
	00 00		 imul	 eax, DWORD PTR [ecx+752]
  00761	99		 cdq
  00762	b9 64 00 00 00	 mov	 ecx, 100		; 00000064H
  00767	f7 f9		 idiv	 ecx
  00769	8b 55 08	 mov	 edx, DWORD PTR _lpObj$[ebp]
  0076c	03 82 f0 02 00
	00		 add	 eax, DWORD PTR [edx+752]
  00772	8b 4d 08	 mov	 ecx, DWORD PTR _lpObj$[ebp]
  00775	89 81 f0 02 00
	00		 mov	 DWORD PTR [ecx+752], eax

; 1819 : #ifdef MODIFY_ITEM_EFFECT_FLOW_20060519
; 1820 : 					}
; 1821 : #endif // MODIFY_ITEM_EFFECT_FLOW_20060519
; 1822 : 					
; 1823 : #ifdef MODIFY_ITEM_EFFECT_FLOW_20060519
; 1824 : 					if ( type == 0 ) // 값 증가 옵션 처리
; 1825 : 					{
; 1826 : #endif // MODIFY_ITEM_EFFECT_FLOW_20060519
; 1827 : 					lpObj->MonsterDieGetMoney   += lpObj->pInventory[n].IsExtMonsterMoney();

  0077b	69 4d f8 a8 00
	00 00		 imul	 ecx, DWORD PTR _n$[ebp], 168
  00782	8b 45 08	 mov	 eax, DWORD PTR _lpObj$[ebp]
  00785	03 88 5c 0c 00
	00		 add	 ecx, DWORD PTR [eax+3164]
  0078b	e8 00 00 00 00	 call	 ?IsExtMonsterMoney@CItem@@QAEHXZ ; CItem::IsExtMonsterMoney
  00790	8b 4d 08	 mov	 ecx, DWORD PTR _lpObj$[ebp]
  00793	0f bf 91 16 01
	00 00		 movsx	 edx, WORD PTR [ecx+278]
  0079a	03 d0		 add	 edx, eax
  0079c	8b 45 08	 mov	 eax, DWORD PTR _lpObj$[ebp]
  0079f	66 89 90 16 01
	00 00		 mov	 WORD PTR [eax+278], dx

; 1828 : 					lpObj->DamageMinus		    += lpObj->pInventory[n].IsExtDamageMinus();

  007a6	69 4d f8 a8 00
	00 00		 imul	 ecx, DWORD PTR _n$[ebp], 168
  007ad	8b 45 08	 mov	 eax, DWORD PTR _lpObj$[ebp]
  007b0	03 88 5c 0c 00
	00		 add	 ecx, DWORD PTR [eax+3164]
  007b6	e8 00 00 00 00	 call	 ?IsExtDamageMinus@CItem@@QAEHXZ ; CItem::IsExtDamageMinus
  007bb	8b 4d 08	 mov	 ecx, DWORD PTR _lpObj$[ebp]
  007be	0f b6 91 14 01
	00 00		 movzx	 edx, BYTE PTR [ecx+276]
  007c5	03 d0		 add	 edx, eax
  007c7	8b 45 08	 mov	 eax, DWORD PTR _lpObj$[ebp]
  007ca	88 90 14 01 00
	00		 mov	 BYTE PTR [eax+276], dl

; 1829 : 					lpObj->DamageReflect	    += lpObj->pInventory[n].IsExtDamageReflect();

  007d0	69 4d f8 a8 00
	00 00		 imul	 ecx, DWORD PTR _n$[ebp], 168
  007d7	8b 45 08	 mov	 eax, DWORD PTR _lpObj$[ebp]
  007da	03 88 5c 0c 00
	00		 add	 ecx, DWORD PTR [eax+3164]
  007e0	e8 00 00 00 00	 call	 ?IsExtDamageReflect@CItem@@QAEHXZ ; CItem::IsExtDamageReflect
  007e5	8b 4d 08	 mov	 ecx, DWORD PTR _lpObj$[ebp]
  007e8	0f b6 91 15 01
	00 00		 movzx	 edx, BYTE PTR [ecx+277]
  007ef	03 d0		 add	 edx, eax
  007f1	8b 45 08	 mov	 eax, DWORD PTR _lpObj$[ebp]
  007f4	88 90 15 01 00
	00		 mov	 BYTE PTR [eax+277], dl

; 1830 : #ifdef MODIFY_ITEM_EFFECT_FLOW_20060519
; 1831 : 					}
; 1832 : #endif // MODIFY_ITEM_EFFECT_FLOW_20060519
; 1833 : 					max_count++;

  007fa	8b 45 f0	 mov	 eax, DWORD PTR _max_count$[ebp]
  007fd	83 c0 01	 add	 eax, 1
  00800	89 45 f0	 mov	 DWORD PTR _max_count$[ebp], eax
$LN32@GObjExtIte:

; 1834 : 				}
; 1835 : 			}
; 1836 : 		}
; 1837 : 	}

  00803	e9 1b fe ff ff	 jmp	 $LN5@GObjExtIte
$LN6@GObjExtIte:

; 1838 : 
; 1839 : 
; 1840 : #ifdef MODIFY_ITEM_EFFECT_FLOW_20060519
; 1841 : 	if ( type == 0 ) // 값 증가 옵션 처리
; 1842 : 	{
; 1843 : #endif // MODIFY_ITEM_EFFECT_FLOW_20060519
; 1844 : #ifndef MODIFY_OLD_BUFF_EFFECT_SYSTEM_20071004					// !! NOT
; 1845 : 	#ifdef NEW_FORSKYLAND2
; 1846 : 	lpObj->AddLife += lpObj->m_SkillAddLife;	// 최대 생명력 증가도 적용해 준다

  00808	8b 45 08	 mov	 eax, DWORD PTR _lpObj$[ebp]
  0080b	8b 88 0c 01 00
	00		 mov	 ecx, DWORD PTR [eax+268]
  00811	8b 55 08	 mov	 edx, DWORD PTR _lpObj$[ebp]
  00814	03 8a f4 19 00
	00		 add	 ecx, DWORD PTR [edx+6644]
  0081a	8b 45 08	 mov	 eax, DWORD PTR _lpObj$[ebp]
  0081d	89 88 0c 01 00
	00		 mov	 DWORD PTR [eax+268], ecx

; 1847 : 	#endif
; 1848 : #endif // MODIFY_OLD_BUFF_EFFECT_SYSTEM_20071004
; 1849 : 
; 1850 : #ifdef MODIFY_ITEM_EFFECT_FLOW_20060519
; 1851 : 	}
; 1852 : #endif // MODIFY_ITEM_EFFECT_FLOW_20060519
; 1853 : 
; 1854 : 
; 1855 : #ifdef MODIFY_ITEM_EFFECT_FLOW_20060519
; 1856 : 	if ( type == 1 ) // % 증가 옵션 처리. Life와 Mana
; 1857 : 	{
; 1858 : 		lpObj->AddLife += (short)( (lpObj->MaxLife+lpObj->AddLife)*iItemTotalLifeAddValue/100);
; 1859 : 		lpObj->AddMana += (short)( (lpObj->MaxMana+lpObj->AddMana)*iItemTotalManaAddValue/100);
; 1860 : 	}
; 1861 : #endif // MODIFY_ITEM_EFFECT_FLOW_20060519
; 1862 : 
; 1863 : 
; 1864 : 	//---------------------------------------- 아래 처리는 type이 1. %증가가 된 후에 처리한다. ----
; 1865 : #ifdef MODIFY_ITEM_EFFECT_FLOW_20060519
; 1866 : 	if ( type == 1 )
; 1867 : 	{
; 1868 : #endif // MODIFY_ITEM_EFFECT_FLOW_20060519
; 1869 : 
; 1870 : #ifdef MODIFY_ITEM_EFFECT_FLOW_20060519
; 1871 : 	}
; 1872 : #endif // MODIFY_ITEM_EFFECT_FLOW_20060519
; 1873 : }

  00823	5f		 pop	 edi
  00824	5e		 pop	 esi
  00825	5b		 pop	 ebx
  00826	8b 4d fc	 mov	 ecx, DWORD PTR __$ArrayPad$[ebp]
  00829	33 cd		 xor	 ecx, ebp
  0082b	e8 00 00 00 00	 call	 @__security_check_cookie@4
  00830	8b e5		 mov	 esp, ebp
  00832	5d		 pop	 ebp
  00833	c3		 ret	 0
?GObjExtItemApply@@YAXPAVOBJECTSTRUCT@@@Z ENDP		; GObjExtItemApply
_TEXT	ENDS
; Function compile flags: /Odtp /ZI
; File C:\Mu Online\Mu-GS-Webzen-MC-10093\GameServer\ObjCalCharacter.cpp
;	COMDAT ?gObjCalCharacter@@YAXH@Z
_TEXT	SEGMENT
tv3097 = -200						; size = 8
tv3086 = -200						; size = 8
tv3093 = -192						; size = 4
tv3082 = -192						; size = 4
tv1945 = -191						; size = 1
tv1880 = -191						; size = 1
tv1815 = -191						; size = 1
tv1750 = -191						; size = 1
tv1685 = -191						; size = 1
tv1620 = -191						; size = 1
tv1555 = -191						; size = 1
tv1939 = -190						; size = 1
tv1874 = -190						; size = 1
tv1809 = -190						; size = 1
tv1744 = -190						; size = 1
tv1679 = -190						; size = 1
tv1614 = -190						; size = 1
tv1549 = -190						; size = 1
tv1907 = -189						; size = 1
tv1842 = -189						; size = 1
tv1777 = -189						; size = 1
tv1712 = -189						; size = 1
tv1647 = -189						; size = 1
tv1582 = -189						; size = 1
tv1517 = -189						; size = 1
_comparecount$ = -124					; size = 4
_rItem$ = -120						; size = 12
_addmana$ = -108					; size = 4
_addlife$ = -104					; size = 4
_i$1 = -100						; size = 4
_i$2 = -96						; size = 4
_Type$3 = -92						; size = 4
_Level13Count$ = -88					; size = 4
_Level12Count$ = -84					; size = 4
_Level10Count$ = -80					; size = 4
_Level11Count$ = -76					; size = 4
_i$4 = -72						; size = 4
_i$5 = -68						; size = 4
_Success$ = -63						; size = 1
_bLeft$ = -62						; size = 1
_bRight$ = -61						; size = 1
_AddLeadership$ = -60					; size = 4
_bIsChangeItem$ = -56					; size = 4
_iItemIndex$ = -52					; size = 4
_itemtype$6 = -48					; size = 4
_Helper$ = -44						; size = 4
_Amulet$ = -40						; size = 4
_Gloves$ = -36						; size = 4
_Left$ = -32						; size = 4
_Right$ = -28						; size = 4
_Energy$ = -24						; size = 4
_Vitality$ = -20					; size = 4
_Dexterity$ = -16					; size = 4
_Strength$ = -12					; size = 4
_lpObj$ = -8						; size = 4
__$ArrayPad$ = -4					; size = 4
_aIndex$ = 8						; size = 4
?gObjCalCharacter@@YAXH@Z PROC				; gObjCalCharacter, COMDAT

; 113  : {

  00000	55		 push	 ebp
  00001	8b ec		 mov	 ebp, esp
  00003	81 ec c8 00 00
	00		 sub	 esp, 200		; 000000c8H
  00009	a1 00 00 00 00	 mov	 eax, DWORD PTR ___security_cookie
  0000e	33 c5		 xor	 eax, ebp
  00010	89 45 fc	 mov	 DWORD PTR __$ArrayPad$[ebp], eax
  00013	53		 push	 ebx
  00014	56		 push	 esi
  00015	57		 push	 edi

; 114  : 	LPOBJECTSTRUCT	lpObj;
; 115  : 
; 116  : 	lpObj = (LPOBJECTSTRUCT)&gObj[aIndex];

  00016	69 45 08 a0 1b
	00 00		 imul	 eax, DWORD PTR _aIndex$[ebp], 7072
  0001d	03 05 00 00 00
	00		 add	 eax, DWORD PTR ?gObj@@3PAVOBJECTSTRUCT@@A ; gObj
  00023	89 45 f8	 mov	 DWORD PTR _lpObj$[ebp], eax

; 117  : 
; 118  : 	int	Strength = 0;

  00026	c7 45 f4 00 00
	00 00		 mov	 DWORD PTR _Strength$[ebp], 0

; 119  : 	int	Dexterity = 0;

  0002d	c7 45 f0 00 00
	00 00		 mov	 DWORD PTR _Dexterity$[ebp], 0

; 120  : 	int	Vitality = 0;

  00034	c7 45 ec 00 00
	00 00		 mov	 DWORD PTR _Vitality$[ebp], 0

; 121  : 	int	Energy = 0;	

  0003b	c7 45 e8 00 00
	00 00		 mov	 DWORD PTR _Energy$[ebp], 0

; 122  : 
; 123  : 	CItem	*Right = &lpObj->pInventory[EQUIPMENT_WEAPON_RIGHT];

  00042	b8 a8 00 00 00	 mov	 eax, 168		; 000000a8H
  00047	6b c8 00	 imul	 ecx, eax, 0
  0004a	8b 55 f8	 mov	 edx, DWORD PTR _lpObj$[ebp]
  0004d	03 8a 5c 0c 00
	00		 add	 ecx, DWORD PTR [edx+3164]
  00053	89 4d e4	 mov	 DWORD PTR _Right$[ebp], ecx

; 124  : 	CItem	*Left  = &lpObj->pInventory[EQUIPMENT_WEAPON_LEFT];

  00056	b8 a8 00 00 00	 mov	 eax, 168		; 000000a8H
  0005b	c1 e0 00	 shl	 eax, 0
  0005e	8b 4d f8	 mov	 ecx, DWORD PTR _lpObj$[ebp]
  00061	03 81 5c 0c 00
	00		 add	 eax, DWORD PTR [ecx+3164]
  00067	89 45 e0	 mov	 DWORD PTR _Left$[ebp], eax

; 125  : 	CItem	*Gloves  = &lpObj->pInventory[EQUIPMENT_GLOVES];

  0006a	b8 a8 00 00 00	 mov	 eax, 168		; 000000a8H
  0006f	6b c8 05	 imul	 ecx, eax, 5
  00072	8b 55 f8	 mov	 edx, DWORD PTR _lpObj$[ebp]
  00075	03 8a 5c 0c 00
	00		 add	 ecx, DWORD PTR [edx+3164]
  0007b	89 4d dc	 mov	 DWORD PTR _Gloves$[ebp], ecx

; 126  : 	CItem	*Amulet = &lpObj->pInventory[EQUIPMENT_AMULET];

  0007e	b8 a8 00 00 00	 mov	 eax, 168		; 000000a8H
  00083	6b c8 09	 imul	 ecx, eax, 9
  00086	8b 55 f8	 mov	 edx, DWORD PTR _lpObj$[ebp]
  00089	03 8a 5c 0c 00
	00		 add	 ecx, DWORD PTR [edx+3164]
  0008f	89 4d d8	 mov	 DWORD PTR _Amulet$[ebp], ecx

; 127  : 	CItem	*Helper = &lpObj->pInventory[EQUIPMENT_HELPER];

  00092	b8 a8 00 00 00	 mov	 eax, 168		; 000000a8H
  00097	c1 e0 03	 shl	 eax, 3
  0009a	8b 4d f8	 mov	 ecx, DWORD PTR _lpObj$[ebp]
  0009d	03 81 5c 0c 00
	00		 add	 eax, DWORD PTR [ecx+3164]
  000a3	89 45 d4	 mov	 DWORD PTR _Helper$[ebp], eax

; 128  : 
; 129  : 	lpObj->HaveWeaponInHand = TRUE;

  000a6	8b 45 f8	 mov	 eax, DWORD PTR _lpObj$[ebp]
  000a9	c6 80 7b 0e 00
	00 01		 mov	 BYTE PTR [eax+3707], 1

; 130  : 	// 손에 무기를 들고 있는지 체크
; 131  : 	if( !Right->IsItem() && !Left->IsItem() )

  000b0	8b 4d e4	 mov	 ecx, DWORD PTR _Right$[ebp]
  000b3	e8 00 00 00 00	 call	 ?IsItem@CItem@@QAEHXZ	; CItem::IsItem
  000b8	85 c0		 test	 eax, eax
  000ba	75 1b		 jne	 SHORT $LN23@gObjCalCha
  000bc	8b 4d e0	 mov	 ecx, DWORD PTR _Left$[ebp]
  000bf	e8 00 00 00 00	 call	 ?IsItem@CItem@@QAEHXZ	; CItem::IsItem
  000c4	85 c0		 test	 eax, eax
  000c6	75 0f		 jne	 SHORT $LN23@gObjCalCha

; 132  : 	{	// 모두 안차고 있거나..
; 133  : 		lpObj->HaveWeaponInHand = FALSE;

  000c8	8b 45 f8	 mov	 eax, DWORD PTR _lpObj$[ebp]
  000cb	c6 80 7b 0e 00
	00 00		 mov	 BYTE PTR [eax+3707], 0

; 134  : 	}

  000d2	e9 81 00 00 00	 jmp	 $LN30@gObjCalCha
$LN23@gObjCalCha:

; 135  : 	else
; 136  : 	{
; 137  : 		if( !Left->IsItem() && Right->m_Type == MAKE_ITEMNUM(4,15) )

  000d7	8b 4d e0	 mov	 ecx, DWORD PTR _Left$[ebp]
  000da	e8 00 00 00 00	 call	 ?IsItem@CItem@@QAEHXZ	; CItem::IsItem
  000df	85 c0		 test	 eax, eax
  000e1	75 23		 jne	 SHORT $LN25@gObjCalCha
  000e3	8b 45 e4	 mov	 eax, DWORD PTR _Right$[ebp]
  000e6	0f bf 70 06	 movsx	 esi, WORD PTR [eax+6]
  000ea	6a 0f		 push	 15			; 0000000fH
  000ec	6a 04		 push	 4
  000ee	e8 00 00 00 00	 call	 ?MakeItemNumber@@YAHHH@Z ; MakeItemNumber
  000f3	83 c4 08	 add	 esp, 8
  000f6	3b f0		 cmp	 esi, eax
  000f8	75 0c		 jne	 SHORT $LN25@gObjCalCha

; 138  : 		{	// 화살이나 
; 139  : 			lpObj->HaveWeaponInHand = FALSE;

  000fa	8b 45 f8	 mov	 eax, DWORD PTR _lpObj$[ebp]
  000fd	c6 80 7b 0e 00
	00 00		 mov	 BYTE PTR [eax+3707], 0

; 140  : 		}

  00104	eb 52		 jmp	 SHORT $LN30@gObjCalCha
$LN25@gObjCalCha:

; 141  : 		else if( !Right->IsItem() )

  00106	8b 4d e4	 mov	 ecx, DWORD PTR _Right$[ebp]
  00109	e8 00 00 00 00	 call	 ?IsItem@CItem@@QAEHXZ	; CItem::IsItem
  0010e	85 c0		 test	 eax, eax
  00110	75 46		 jne	 SHORT $LN30@gObjCalCha

; 142  : 		{
; 143  : 			int itemtype = Left->m_Type/MAX_ITEM_INDEX;

  00112	8b 45 e0	 mov	 eax, DWORD PTR _Left$[ebp]
  00115	0f bf 40 06	 movsx	 eax, WORD PTR [eax+6]
  00119	99		 cdq
  0011a	83 e2 1f	 and	 edx, 31			; 0000001fH
  0011d	03 c2		 add	 eax, edx
  0011f	c1 f8 05	 sar	 eax, 5
  00122	89 45 d0	 mov	 DWORD PTR _itemtype$6[ebp], eax

; 144  : 			if( Left->m_Type == MAKE_ITEMNUM(4,7) )

  00125	8b 45 e0	 mov	 eax, DWORD PTR _Left$[ebp]
  00128	0f bf 70 06	 movsx	 esi, WORD PTR [eax+6]
  0012c	6a 07		 push	 7
  0012e	6a 04		 push	 4
  00130	e8 00 00 00 00	 call	 ?MakeItemNumber@@YAHHH@Z ; MakeItemNumber
  00135	83 c4 08	 add	 esp, 8
  00138	3b f0		 cmp	 esi, eax
  0013a	75 0c		 jne	 SHORT $LN28@gObjCalCha

; 145  : 			{				
; 146  : 				lpObj->HaveWeaponInHand = FALSE;

  0013c	8b 45 f8	 mov	 eax, DWORD PTR _lpObj$[ebp]
  0013f	c6 80 7b 0e 00
	00 00		 mov	 BYTE PTR [eax+3707], 0

; 147  : 			} 

  00146	eb 10		 jmp	 SHORT $LN30@gObjCalCha
$LN28@gObjCalCha:

; 148  : 			else if( itemtype == 6 )

  00148	83 7d d0 06	 cmp	 DWORD PTR _itemtype$6[ebp], 6
  0014c	75 0a		 jne	 SHORT $LN30@gObjCalCha

; 149  : 			{	// 방패류만 차고 있으면
; 150  : 				lpObj->HaveWeaponInHand = FALSE;

  0014e	8b 45 f8	 mov	 eax, DWORD PTR _lpObj$[ebp]
  00151	c6 80 7b 0e 00
	00 00		 mov	 BYTE PTR [eax+3707], 0
$LN30@gObjCalCha:

; 151  : 			}			
; 152  : 		}
; 153  : 	}
; 154  : 	
; 155  : 	lpObj->AddLife = 0;

  00158	8b 45 f8	 mov	 eax, DWORD PTR _lpObj$[ebp]
  0015b	c7 80 0c 01 00
	00 00 00 00 00	 mov	 DWORD PTR [eax+268], 0

; 156  : 	lpObj->AddMana = 0;

  00165	8b 45 f8	 mov	 eax, DWORD PTR _lpObj$[ebp]
  00168	c7 80 10 01 00
	00 00 00 00 00	 mov	 DWORD PTR [eax+272], 0

; 157  : 	lpObj->MonsterDieGetMoney = 0;

  00172	33 c0		 xor	 eax, eax
  00174	8b 4d f8	 mov	 ecx, DWORD PTR _lpObj$[ebp]
  00177	66 89 81 16 01
	00 00		 mov	 WORD PTR [ecx+278], ax

; 158  : 	lpObj->MonsterDieGetLife = 0;

  0017e	8b 45 f8	 mov	 eax, DWORD PTR _lpObj$[ebp]
  00181	c6 80 18 01 00
	00 00		 mov	 BYTE PTR [eax+280], 0

; 159  : 	lpObj->MonsterDieGetMana = 0;

  00188	8b 45 f8	 mov	 eax, DWORD PTR _lpObj$[ebp]
  0018b	c6 80 19 01 00
	00 00		 mov	 BYTE PTR [eax+281], 0

; 160  : 	lpObj->DamageReflect = 0;

  00192	8b 45 f8	 mov	 eax, DWORD PTR _lpObj$[ebp]
  00195	c6 80 15 01 00
	00 00		 mov	 BYTE PTR [eax+277], 0

; 161  : 	lpObj->DamageMinus = 0;

  0019c	8b 45 f8	 mov	 eax, DWORD PTR _lpObj$[ebp]
  0019f	c6 80 14 01 00
	00 00		 mov	 BYTE PTR [eax+276], 0

; 162  : 
; 163  : #ifndef MODIFY_SWELLLIFE_BUG_FIXAGIAN_20060628	// not define : 초기화 해주면 안된다.	
; 164  : 	#ifdef MODIFY_SWELLLIFE_INIT_BUGFIX_20060411
; 165  : 		lpObj->m_SkillAddLife = 0;
; 166  : 		lpObj->m_SkillAddLifeTime = 0;
; 167  : 	#endif
; 168  : #endif // MODIFY_SWELLLIFE_BUG_FIXAGIAN_20060628
; 169  : 		
; 170  : #ifdef DARKLORD_WORK
; 171  : 	lpObj->SkillLongSpearChange = FALSE;

  001a6	8b 45 f8	 mov	 eax, DWORD PTR _lpObj$[ebp]
  001a9	c6 80 82 10 00
	00 00		 mov	 BYTE PTR [eax+4226], 0

; 172  : #endif
; 173  : 	
; 174  : #ifdef MODIFY_JOL_BLESS_POTION_USE_EFFECT_20061030
; 175  : 	if( lpObj->m_iItemEffectValidTime > 0 )
; 176  : 	{
; 177  : 		g_ItemAddOption.PrevSetItemLastEffectForHallowin( lpObj );
; 178  : 	}
; 179  : #endif 
; 180  : 
; 181  : 	int iItemIndex;
; 182  : 	// 장착 가능한 아이템인가?
; 183  : 	for( iItemIndex = 0; iItemIndex < MAX_EQUIPMENT; iItemIndex++ )

  001b0	c7 45 cc 00 00
	00 00		 mov	 DWORD PTR _iItemIndex$[ebp], 0
  001b7	eb 09		 jmp	 SHORT $LN4@gObjCalCha
$LN2@gObjCalCha:
  001b9	8b 45 cc	 mov	 eax, DWORD PTR _iItemIndex$[ebp]
  001bc	83 c0 01	 add	 eax, 1
  001bf	89 45 cc	 mov	 DWORD PTR _iItemIndex$[ebp], eax
$LN4@gObjCalCha:
  001c2	83 7d cc 0c	 cmp	 DWORD PTR _iItemIndex$[ebp], 12 ; 0000000cH
  001c6	7d 33		 jge	 SHORT $LN3@gObjCalCha

; 184  : 	{
; 185  : 		if( lpObj->pInventory[iItemIndex].IsItem() )		

  001c8	69 4d cc a8 00
	00 00		 imul	 ecx, DWORD PTR _iItemIndex$[ebp], 168
  001cf	8b 45 f8	 mov	 eax, DWORD PTR _lpObj$[ebp]
  001d2	03 88 5c 0c 00
	00		 add	 ecx, DWORD PTR [eax+3164]
  001d8	e8 00 00 00 00	 call	 ?IsItem@CItem@@QAEHXZ	; CItem::IsItem
  001dd	85 c0		 test	 eax, eax
  001df	74 18		 je	 SHORT $LN31@gObjCalCha

; 186  : 			lpObj->pInventory[iItemIndex].m_IsValidItem = TRUE;				

  001e1	69 45 cc a8 00
	00 00		 imul	 eax, DWORD PTR _iItemIndex$[ebp], 168
  001e8	8b 4d f8	 mov	 ecx, DWORD PTR _lpObj$[ebp]
  001eb	8b 91 5c 0c 00
	00		 mov	 edx, DWORD PTR [ecx+3164]
  001f1	c6 84 02 94 00
	00 00 01	 mov	 BYTE PTR [edx+eax+148], 1
$LN31@gObjCalCha:

; 187  : 	}

  001f9	eb be		 jmp	 SHORT $LN2@gObjCalCha
$LN3@gObjCalCha:

; 188  : 
; 189  : 	// 세트 아이템 옵션 추가 스탯 계산
; 190  : 	BOOL	bIsChangeItem;
; 191  : 	do
; 192  : 	{	
; 193  : 		lpObj->SetOpAddMaxAttackDamage	= 0;

  001fb	33 c0		 xor	 eax, eax
  001fd	8b 4d f8	 mov	 ecx, DWORD PTR _lpObj$[ebp]
  00200	66 89 81 3c 0f
	00 00		 mov	 WORD PTR [ecx+3900], ax

; 194  : 		lpObj->SetOpAddMinAttackDamage	= 0;

  00207	33 c0		 xor	 eax, eax
  00209	8b 4d f8	 mov	 ecx, DWORD PTR _lpObj$[ebp]
  0020c	66 89 81 3a 0f
	00 00		 mov	 WORD PTR [ecx+3898], ax

; 195  : 		lpObj->SetOpAddDamage	= 0;	

  00213	33 c0		 xor	 eax, eax
  00215	8b 4d f8	 mov	 ecx, DWORD PTR _lpObj$[ebp]
  00218	66 89 81 38 0f
	00 00		 mov	 WORD PTR [ecx+3896], ax

; 196  : 		lpObj->SetOpIncAGValue	= 0;

  0021f	33 c0		 xor	 eax, eax
  00221	8b 4d f8	 mov	 ecx, DWORD PTR _lpObj$[ebp]
  00224	66 89 81 36 0f
	00 00		 mov	 WORD PTR [ecx+3894], ax

; 197  : 		lpObj->SetOpAddCriticalDamageSuccessRate	= 0;

  0022b	33 c0		 xor	 eax, eax
  0022d	8b 4d f8	 mov	 ecx, DWORD PTR _lpObj$[ebp]
  00230	66 89 81 34 0f
	00 00		 mov	 WORD PTR [ecx+3892], ax

; 198  : 		lpObj->SetOpAddCriticalDamage	= 0;

  00237	33 c0		 xor	 eax, eax
  00239	8b 4d f8	 mov	 ecx, DWORD PTR _lpObj$[ebp]
  0023c	66 89 81 32 0f
	00 00		 mov	 WORD PTR [ecx+3890], ax

; 199  : 		lpObj->SetOpAddExDamageSuccessRate	= 0;

  00243	33 c0		 xor	 eax, eax
  00245	8b 4d f8	 mov	 ecx, DWORD PTR _lpObj$[ebp]
  00248	66 89 81 30 0f
	00 00		 mov	 WORD PTR [ecx+3888], ax

; 200  : 		lpObj->SetOpAddExDamage	= 0;

  0024f	33 c0		 xor	 eax, eax
  00251	8b 4d f8	 mov	 ecx, DWORD PTR _lpObj$[ebp]
  00254	66 89 81 2e 0f
	00 00		 mov	 WORD PTR [ecx+3886], ax

; 201  : 		lpObj->SetOpAddSkillAttack	= 0;

  0025b	33 c0		 xor	 eax, eax
  0025d	8b 4d f8	 mov	 ecx, DWORD PTR _lpObj$[ebp]
  00260	66 89 81 2c 0f
	00 00		 mov	 WORD PTR [ecx+3884], ax

; 202  : 
; 203  : 		lpObj->AddStrength	= 0;

  00267	33 c0		 xor	 eax, eax
  00269	8b 4d f8	 mov	 ecx, DWORD PTR _lpObj$[ebp]
  0026c	66 89 81 e0 00
	00 00		 mov	 WORD PTR [ecx+224], ax

; 204  : 		lpObj->AddDexterity = 0;

  00273	33 c0		 xor	 eax, eax
  00275	8b 4d f8	 mov	 ecx, DWORD PTR _lpObj$[ebp]
  00278	66 89 81 e2 00
	00 00		 mov	 WORD PTR [ecx+226], ax

; 205  : 		lpObj->AddVitality	= 0;

  0027f	33 c0		 xor	 eax, eax
  00281	8b 4d f8	 mov	 ecx, DWORD PTR _lpObj$[ebp]
  00284	66 89 81 e4 00
	00 00		 mov	 WORD PTR [ecx+228], ax

; 206  : 		lpObj->AddEnergy	= 0;

  0028b	33 c0		 xor	 eax, eax
  0028d	8b 4d f8	 mov	 ecx, DWORD PTR _lpObj$[ebp]
  00290	66 89 81 e6 00
	00 00		 mov	 WORD PTR [ecx+230], ax

; 207  : #ifdef MODIFY_SETITEM_LEADERSHIP_BUGFIX
; 208  : 		lpObj->AddLeadership = 0;

  00297	33 c0		 xor	 eax, eax
  00299	8b 4d f8	 mov	 ecx, DWORD PTR _lpObj$[ebp]
  0029c	66 89 81 da 00
	00 00		 mov	 WORD PTR [ecx+218], ax

; 209  : #endif // MODIFY_SETITEM_LEADERSHIP_BUGFIX
; 210  : #ifdef NEW_FORSKYLAND2
; 211  : 		lpObj->AddBP = 0;

  002a3	8b 45 f8	 mov	 eax, DWORD PTR _lpObj$[ebp]
  002a6	c7 80 f0 00 00
	00 00 00 00 00	 mov	 DWORD PTR [eax+240], 0

; 212  : #endif
; 213  : 
; 214  : #ifdef ADD_SHIELD_POINT_01_20060403
; 215  : 		lpObj->iAddShield = 0;
; 216  : #endif // ADD_SHIELD_POINT_01_20060403
; 217  : 
; 218  : 		lpObj->SetOpAddAttackDamage	= 0;

  002b0	33 c0		 xor	 eax, eax
  002b2	8b 4d f8	 mov	 ecx, DWORD PTR _lpObj$[ebp]
  002b5	66 89 81 3e 0f
	00 00		 mov	 WORD PTR [ecx+3902], ax

; 219  : 		lpObj->SetOpAddDefence		= 0;

  002bc	33 c0		 xor	 eax, eax
  002be	8b 4d f8	 mov	 ecx, DWORD PTR _lpObj$[ebp]
  002c1	66 89 81 40 0f
	00 00		 mov	 WORD PTR [ecx+3904], ax

; 220  : 		lpObj->SetOpAddMagicPower	= 0;

  002c8	33 c0		 xor	 eax, eax
  002ca	8b 4d f8	 mov	 ecx, DWORD PTR _lpObj$[ebp]
  002cd	66 89 81 44 0f
	00 00		 mov	 WORD PTR [ecx+3908], ax

; 221  : 		lpObj->SetOpAddDefenceRate	= 0;

  002d4	33 c0		 xor	 eax, eax
  002d6	8b 4d f8	 mov	 ecx, DWORD PTR _lpObj$[ebp]
  002d9	66 89 81 42 0f
	00 00		 mov	 WORD PTR [ecx+3906], ax

; 222  : 
; 223  : 		lpObj->SetOpIgnoreDefense				= 0;

  002e0	8b 45 f8	 mov	 eax, DWORD PTR _lpObj$[ebp]
  002e3	c6 80 46 0f 00
	00 00		 mov	 BYTE PTR [eax+3910], 0

; 224  : 		lpObj->SetOpDoubleDamage				= 0;

  002ea	8b 45 f8	 mov	 eax, DWORD PTR _lpObj$[ebp]
  002ed	c6 80 47 0f 00
	00 00		 mov	 BYTE PTR [eax+3911], 0

; 225  : 		lpObj->SetOpTwoHandSwordImproveDamage	= 0;

  002f4	8b 45 f8	 mov	 eax, DWORD PTR _lpObj$[ebp]
  002f7	c6 80 48 0f 00
	00 00		 mov	 BYTE PTR [eax+3912], 0

; 226  : 		lpObj->SetOpImproveSuccessAttackRate	= 0;

  002fe	8b 45 f8	 mov	 eax, DWORD PTR _lpObj$[ebp]
  00301	c6 80 49 0f 00
	00 00		 mov	 BYTE PTR [eax+3913], 0

; 227  : 		lpObj->SetOpReflectionDamage			= 0;

  00308	8b 45 f8	 mov	 eax, DWORD PTR _lpObj$[ebp]
  0030b	c6 80 4a 0f 00
	00 00		 mov	 BYTE PTR [eax+3914], 0

; 228  : 		lpObj->SetOpImproveSheldDefence			= 0;

  00312	8b 45 f8	 mov	 eax, DWORD PTR _lpObj$[ebp]
  00315	c6 80 4b 0f 00
	00 00		 mov	 BYTE PTR [eax+3915], 0

; 229  : 		lpObj->SetOpDecreaseAG					= 0;

  0031c	8b 45 f8	 mov	 eax, DWORD PTR _lpObj$[ebp]
  0031f	c6 80 4c 0f 00
	00 00		 mov	 BYTE PTR [eax+3916], 0

; 230  : 		lpObj->SetOpImproveItemDropRate			= 0;

  00326	8b 45 f8	 mov	 eax, DWORD PTR _lpObj$[ebp]
  00329	c6 80 4d 0f 00
	00 00		 mov	 BYTE PTR [eax+3917], 0

; 231  : 
; 232  : 		lpObj->IsFullSetItem = 0;

  00330	8b 45 f8	 mov	 eax, DWORD PTR _lpObj$[ebp]
  00333	c6 80 4e 0f 00
	00 00		 mov	 BYTE PTR [eax+3918], 0

; 233  : 
; 234  : 		memset(lpObj->m_AddResistance,	0, MAX_RESISTANCE);

  0033a	6a 07		 push	 7
  0033c	6a 00		 push	 0
  0033e	8b 45 f8	 mov	 eax, DWORD PTR _lpObj$[ebp]
  00341	05 3c 03 00 00	 add	 eax, 828		; 0000033cH
  00346	50		 push	 eax
  00347	e8 00 00 00 00	 call	 _memset
  0034c	83 c4 0c	 add	 esp, 12			; 0000000cH

; 235  : 
; 236  : 		bIsChangeItem = FALSE;

  0034f	c7 45 c8 00 00
	00 00		 mov	 DWORD PTR _bIsChangeItem$[ebp], 0

; 237  : 
; 238  : // 스탯이 빠졌을 경우만 생각해준다!!!!!!
; 239  : 		
; 240  : #ifndef MODIFY_BUFFITEM_MEDICINE_SETITEM_20080424
; 241  : #if GAME_VERSION >= G_V_99B
; 242  : 		gObjCalcSetItemStat(lpObj);	

  00356	8b 45 f8	 mov	 eax, DWORD PTR _lpObj$[ebp]
  00359	50		 push	 eax
  0035a	e8 00 00 00 00	 call	 ?gObjCalcSetItemStat@@YAXPAVOBJECTSTRUCT@@@Z ; gObjCalcSetItemStat
  0035f	83 c4 04	 add	 esp, 4

; 243  : 		gObjCalcSetItemOption(lpObj);

  00362	8b 45 f8	 mov	 eax, DWORD PTR _lpObj$[ebp]
  00365	50		 push	 eax
  00366	e8 00 00 00 00	 call	 ?gObjCalcSetItemOption@@YAXPAVOBJECTSTRUCT@@@Z ; gObjCalcSetItemOption
  0036b	83 c4 04	 add	 esp, 4

; 244  : #endif
; 245  : #endif // MODIFY_BUFFITEM_MEDICINE_SETITEM_20080424
; 246  : 
; 247  : #ifdef MODIFY_PERIODITEM_SLOT_EXTEND_20070423
; 248  : 		g_ItemAddOption.PrevSetItemEffect( lpObj );
; 249  : #endif // MODIFY_PERIODITEM_SLOT_EXTEND_20070423
; 250  : 		
; 251  : #ifdef MODIFY_BUFFSYSTEM_BUGFIX_01_20071128
; 252  : 		g_BuffEffect.SetPrevEffect( lpObj );
; 253  : #endif // MODIFY_BUFFSYSTEM_BUGFIX_01_20071128
; 254  : 
; 255  : #ifdef MODIFY_BUFFITEM_MEDICINE_SETITEM_20080709
; 256  : 		//해외 능력치를 올려주는 아이템 추가로 비약 및 셋트아이템의 추가 옵션을
; 257  : 		//먼저 계산하도록 변경 (riverstyx)
; 258  : 		gObjCalcSetItemStat(lpObj);
; 259  : 		gObjCalcSetItemOption(lpObj);
; 260  : #endif // MODIFY_BUFFITEM_MEDICINE_SETITEM_20080709
; 261  : 
; 262  : #ifdef MODIFY_SETITEM_BUGFIX_20080731
; 263  : 		//MODIFY_BUFFITEM_MEDICINE_SETITEM_20080709 디파인과 같이 사용해야 함
; 264  : 		//비약 및 셋트 아이템의 추가 옵션을 먼저 계산할 경우 같이 사용해야 함 (riverstyx)
; 265  : 		
; 266  : 		//셋트 아이템의 정보를 가져온다.
; 267  : 		MU_SETITEMINFO	SetItemInfo = {0};
; 268  : 		GetSetItemInfo(lpObj, &SetItemInfo);
; 269  : #endif // MODIFY_SETITEM_BUGFIX_20080731
; 270  : 
; 271  : 		// 장착 가능한 아이템인가?
; 272  : 		for( iItemIndex = 0; iItemIndex < MAX_EQUIPMENT; iItemIndex++ )

  0036e	c7 45 cc 00 00
	00 00		 mov	 DWORD PTR _iItemIndex$[ebp], 0
  00375	eb 09		 jmp	 SHORT $LN10@gObjCalCha
$LN8@gObjCalCha:
  00377	8b 45 cc	 mov	 eax, DWORD PTR _iItemIndex$[ebp]
  0037a	83 c0 01	 add	 eax, 1
  0037d	89 45 cc	 mov	 DWORD PTR _iItemIndex$[ebp], eax
$LN10@gObjCalCha:
  00380	83 7d cc 0c	 cmp	 DWORD PTR _iItemIndex$[ebp], 12 ; 0000000cH
  00384	0f 8d 98 00 00
	00		 jge	 $LN9@gObjCalCha

; 273  : 		{
; 274  : 			if( lpObj->pInventory[iItemIndex].IsItem() && lpObj->pInventory[iItemIndex].m_IsValidItem )

  0038a	69 4d cc a8 00
	00 00		 imul	 ecx, DWORD PTR _iItemIndex$[ebp], 168
  00391	8b 45 f8	 mov	 eax, DWORD PTR _lpObj$[ebp]
  00394	03 88 5c 0c 00
	00		 add	 ecx, DWORD PTR [eax+3164]
  0039a	e8 00 00 00 00	 call	 ?IsItem@CItem@@QAEHXZ	; CItem::IsItem
  0039f	85 c0		 test	 eax, eax
  003a1	74 7a		 je	 SHORT $LN34@gObjCalCha
  003a3	69 45 cc a8 00
	00 00		 imul	 eax, DWORD PTR _iItemIndex$[ebp], 168
  003aa	8b 4d f8	 mov	 ecx, DWORD PTR _lpObj$[ebp]
  003ad	8b 91 5c 0c 00
	00		 mov	 edx, DWORD PTR [ecx+3164]
  003b3	0f b6 84 02 94
	00 00 00	 movzx	 eax, BYTE PTR [edx+eax+148]
  003bb	85 c0		 test	 eax, eax
  003bd	74 5e		 je	 SHORT $LN34@gObjCalCha

; 275  : 			{
; 276  : #ifdef MODIFY_SETITEM_BUGFIX_20080731
; 277  : 				if( gObjValidItem(lpObj, &lpObj->pInventory[iItemIndex], iItemIndex, &SetItemInfo) )
; 278  : #else
; 279  : 				if( gObjValidItem(lpObj, &lpObj->pInventory[iItemIndex], iItemIndex) )

  003bf	8b 45 cc	 mov	 eax, DWORD PTR _iItemIndex$[ebp]
  003c2	50		 push	 eax
  003c3	69 4d cc a8 00
	00 00		 imul	 ecx, DWORD PTR _iItemIndex$[ebp], 168
  003ca	8b 55 f8	 mov	 edx, DWORD PTR _lpObj$[ebp]
  003cd	03 8a 5c 0c 00
	00		 add	 ecx, DWORD PTR [edx+3164]
  003d3	51		 push	 ecx
  003d4	8b 45 f8	 mov	 eax, DWORD PTR _lpObj$[ebp]
  003d7	50		 push	 eax
  003d8	e8 00 00 00 00	 call	 ?gObjValidItem@@YAHPAVOBJECTSTRUCT@@PAVCItem@@H@Z ; gObjValidItem
  003dd	83 c4 0c	 add	 esp, 12			; 0000000cH
  003e0	85 c0		 test	 eax, eax
  003e2	74 1a		 je	 SHORT $LN33@gObjCalCha

; 280  : #endif // MODIFY_SETITEM_BUGFIX_20080731
; 281  : 				{
; 282  : 					lpObj->pInventory[iItemIndex].m_IsValidItem = TRUE;					

  003e4	69 45 cc a8 00
	00 00		 imul	 eax, DWORD PTR _iItemIndex$[ebp], 168
  003eb	8b 4d f8	 mov	 ecx, DWORD PTR _lpObj$[ebp]
  003ee	8b 91 5c 0c 00
	00		 mov	 edx, DWORD PTR [ecx+3164]
  003f4	c6 84 02 94 00
	00 00 01	 mov	 BYTE PTR [edx+eax+148], 1

; 283  : 				}	

  003fc	eb 1f		 jmp	 SHORT $LN34@gObjCalCha
$LN33@gObjCalCha:

; 284  : 				else
; 285  : 				{
; 286  : 					lpObj->pInventory[iItemIndex].m_IsValidItem = FALSE;

  003fe	69 45 cc a8 00
	00 00		 imul	 eax, DWORD PTR _iItemIndex$[ebp], 168
  00405	8b 4d f8	 mov	 ecx, DWORD PTR _lpObj$[ebp]
  00408	8b 91 5c 0c 00
	00		 mov	 edx, DWORD PTR [ecx+3164]
  0040e	c6 84 02 94 00
	00 00 00	 mov	 BYTE PTR [edx+eax+148], 0

; 287  : #if TESTSERVER == 1
; 288  : 					LogAddC(LOGC_GREEN, "[%s][%s] 아이템 무효 스탯 안됨 [%s]", 
; 289  : 							 lpObj->AccountID, lpObj->Name, 
; 290  : 							 lpObj->pInventory[iItemIndex].GetName());
; 291  : 
; 292  : 					char szText[255];
; 293  : 					wsprintf(szText, "아이템 무효 스탯 안됨 [%s]", lpObj->pInventory[iItemIndex].GetName());
; 294  : 					GCServerMsgStringSend(szText, lpObj->m_Index, 1);	
; 295  : #endif
; 296  : 					
; 297  : #ifdef MODIFY_INCREASE_LIFE_AND_SETITEM_BUGFIX_20080829
; 298  : 					g_BuffEffect.ClearAllBuffEffect( lpObj );					
; 299  : #endif // MODIFY_INCREASE_LIFE_AND_SETITEM_BUGFIX_20080829
; 300  : 
; 301  : 					bIsChangeItem = TRUE;

  00416	c7 45 c8 01 00
	00 00		 mov	 DWORD PTR _bIsChangeItem$[ebp], 1
$LN34@gObjCalCha:

; 302  : 				}
; 303  : 			}
; 304  : 		}

  0041d	e9 55 ff ff ff	 jmp	 $LN8@gObjCalCha
$LN9@gObjCalCha:

; 305  : 
; 306  : 
; 307  : 
; 308  : 	}while(bIsChangeItem);

  00422	83 7d c8 00	 cmp	 DWORD PTR _bIsChangeItem$[ebp], 0
  00426	0f 85 cf fd ff
	ff		 jne	 $LN3@gObjCalCha

; 309  : 
; 310  : #ifndef MODIFY_BUFFITEM_MEDICINE_SETITEM_20080709		// !! NOT
; 311  : #ifdef MODIFY_BUFFITEM_MEDICINE_SETITEM_20080424
; 312  : 	//잘못된 위치에 추가된 코드로 삭제해야함 riverstyx
; 313  : 	gObjCalcSetItemStat(lpObj);	
; 314  : 	gObjCalcSetItemOption(lpObj);
; 315  : #endif // MODIFY_BUFFITEM_MEDICINE_SETITEM_20080424
; 316  : #endif // MODIFY_BUFFITEM_MEDICINE_SETITEM_20080709
; 317  : 
; 318  : 	Strength	= lpObj->Strength+lpObj->AddStrength;

  0042c	8b 45 f8	 mov	 eax, DWORD PTR _lpObj$[ebp]
  0042f	0f b7 88 b4 00
	00 00		 movzx	 ecx, WORD PTR [eax+180]
  00436	8b 55 f8	 mov	 edx, DWORD PTR _lpObj$[ebp]
  00439	0f b7 82 e0 00
	00 00		 movzx	 eax, WORD PTR [edx+224]
  00440	03 c8		 add	 ecx, eax
  00442	89 4d f4	 mov	 DWORD PTR _Strength$[ebp], ecx

; 319  : 	Dexterity	= lpObj->Dexterity+lpObj->AddDexterity;

  00445	8b 45 f8	 mov	 eax, DWORD PTR _lpObj$[ebp]
  00448	0f b7 88 b6 00
	00 00		 movzx	 ecx, WORD PTR [eax+182]
  0044f	8b 55 f8	 mov	 edx, DWORD PTR _lpObj$[ebp]
  00452	0f b7 82 e2 00
	00 00		 movzx	 eax, WORD PTR [edx+226]
  00459	03 c8		 add	 ecx, eax
  0045b	89 4d f0	 mov	 DWORD PTR _Dexterity$[ebp], ecx

; 320  : 	Vitality	= lpObj->Vitality+lpObj->AddVitality;

  0045e	8b 45 f8	 mov	 eax, DWORD PTR _lpObj$[ebp]
  00461	0f b7 88 b8 00
	00 00		 movzx	 ecx, WORD PTR [eax+184]
  00468	8b 55 f8	 mov	 edx, DWORD PTR _lpObj$[ebp]
  0046b	0f b7 82 e4 00
	00 00		 movzx	 eax, WORD PTR [edx+228]
  00472	03 c8		 add	 ecx, eax
  00474	89 4d ec	 mov	 DWORD PTR _Vitality$[ebp], ecx

; 321  : 	Energy		= lpObj->Energy+lpObj->AddEnergy;

  00477	8b 45 f8	 mov	 eax, DWORD PTR _lpObj$[ebp]
  0047a	0f b7 88 ba 00
	00 00		 movzx	 ecx, WORD PTR [eax+186]
  00481	8b 55 f8	 mov	 edx, DWORD PTR _lpObj$[ebp]
  00484	0f b7 82 e6 00
	00 00		 movzx	 eax, WORD PTR [edx+230]
  0048b	03 c8		 add	 ecx, eax
  0048d	89 4d e8	 mov	 DWORD PTR _Energy$[ebp], ecx

; 322  : 
; 323  : #ifdef MODIFY_SPEEDHACK_20080605
; 324  : 	if (g_bAbilityDebug == TRUE) {
; 325  : 		char szMsg[256];
; 326  : 		sprintf(szMsg, "Strength: %d,%d    Dexterity: %d,%d", lpObj->Strength, lpObj->AddStrength, lpObj->Dexterity, lpObj->AddDexterity);
; 327  : 		GCServerMsgStringSend(szMsg, lpObj->m_Index, 1);		
; 328  : 		ZeroMemory(szMsg, 256);
; 329  : 		sprintf(szMsg, "Vitality: %d,%d    Energy: %d,%d", lpObj->Vitality, lpObj->AddVitality, lpObj->Energy, lpObj->AddEnergy);
; 330  : 		GCServerMsgStringSend(szMsg, lpObj->m_Index, 1);
; 331  : #ifdef GMCOMMAND_EX_1ST_BUGFIX
; 332  : 		ZeroMemory(szMsg, 256);
; 333  : 		sprintf(szMsg, "Leadership: %d,%d", lpObj->Leadership, lpObj->AddLeadership);
; 334  : 		GCServerMsgStringSend(szMsg, lpObj->m_Index, 1);
; 335  : #endif // GMCOMMAND_EX_1ST_BUGFIX
; 336  : 	}
; 337  : #endif // MODIFY_SPEEDHACK_20080605	
; 338  : 
; 339  : 	if( lpObj->Class == CLASS_ELF )

  00490	8b 45 f8	 mov	 eax, DWORD PTR _lpObj$[ebp]
  00493	0f b7 88 9c 00
	00 00		 movzx	 ecx, WORD PTR [eax+156]
  0049a	83 f9 02	 cmp	 ecx, 2
  0049d	0f 85 ff 01 00
	00		 jne	 $LN35@gObjCalCha

; 340  : 	{
; 341  : 		if((Right->m_Type >= ITEM_BOW+8 && Right->m_Type<ITEM_BOW+15) || 
; 342  : 		   (Left->m_Type  >= ITEM_BOW   && Left->m_Type <ITEM_BOW+7) || 
; 343  : 		   Right->m_Type  == ITEM_BOW+16 
; 344  : #ifdef MODIFY_APPLYING_BOW_01_20050825
; 345  : 		   || Left->m_Type  == ITEM_BOW+20 
; 346  : 		   || Left->m_Type  == ITEM_BOW+21 
; 347  : #endif
; 348  : #ifdef MODIFY_ALBATROS_BOW_BUGFIX_20070105
; 349  : 		   || Left->m_Type == ITEM_BOW + 22
; 350  : #endif		   
; 351  : #ifdef MODIFY_DARKSTINGER_BUGFIX_20081119
; 352  : 		   || Left->m_Type == ITEM_BOW + 23
; 353  : #endif // MODIFY_DARKSTINGER_BUGFIX_20081119
; 354  : #ifdef ADD_AERINBOW_20090309
; 355  : 		   || Left->m_Type == ITEM_BOW + 24
; 356  : #endif // ADD_AERINBOW_20090309
; 357  : 		   || Right->m_Type  == ITEM_BOW+18 
; 358  : 		   || Right->m_Type  == ITEM_BOW+19 
; 359  : 		   || Left->m_Type  == ITEM_BOW+17 )

  004a3	8b 45 e4	 mov	 eax, DWORD PTR _Right$[ebp]
  004a6	0f bf 48 06	 movsx	 ecx, WORD PTR [eax+6]
  004aa	81 f9 88 00 00
	00		 cmp	 ecx, 136		; 00000088H
  004b0	7c 0f		 jl	 SHORT $LN40@gObjCalCha
  004b2	8b 45 e4	 mov	 eax, DWORD PTR _Right$[ebp]
  004b5	0f bf 48 06	 movsx	 ecx, WORD PTR [eax+6]
  004b9	81 f9 8f 00 00
	00		 cmp	 ecx, 143		; 0000008fH
  004bf	7c 6d		 jl	 SHORT $LN39@gObjCalCha
$LN40@gObjCalCha:
  004c1	8b 45 e0	 mov	 eax, DWORD PTR _Left$[ebp]
  004c4	0f bf 48 06	 movsx	 ecx, WORD PTR [eax+6]
  004c8	81 f9 80 00 00
	00		 cmp	 ecx, 128		; 00000080H
  004ce	7c 0f		 jl	 SHORT $LN41@gObjCalCha
  004d0	8b 45 e0	 mov	 eax, DWORD PTR _Left$[ebp]
  004d3	0f bf 48 06	 movsx	 ecx, WORD PTR [eax+6]
  004d7	81 f9 87 00 00
	00		 cmp	 ecx, 135		; 00000087H
  004dd	7c 4f		 jl	 SHORT $LN39@gObjCalCha
$LN41@gObjCalCha:
  004df	8b 45 e4	 mov	 eax, DWORD PTR _Right$[ebp]
  004e2	0f bf 48 06	 movsx	 ecx, WORD PTR [eax+6]
  004e6	81 f9 90 00 00
	00		 cmp	 ecx, 144		; 00000090H
  004ec	74 40		 je	 SHORT $LN39@gObjCalCha
  004ee	8b 45 e0	 mov	 eax, DWORD PTR _Left$[ebp]
  004f1	0f bf 48 06	 movsx	 ecx, WORD PTR [eax+6]
  004f5	81 f9 96 00 00
	00		 cmp	 ecx, 150		; 00000096H
  004fb	74 31		 je	 SHORT $LN39@gObjCalCha
  004fd	8b 45 e4	 mov	 eax, DWORD PTR _Right$[ebp]
  00500	0f bf 48 06	 movsx	 ecx, WORD PTR [eax+6]
  00504	81 f9 92 00 00
	00		 cmp	 ecx, 146		; 00000092H
  0050a	74 22		 je	 SHORT $LN39@gObjCalCha
  0050c	8b 45 e4	 mov	 eax, DWORD PTR _Right$[ebp]
  0050f	0f bf 48 06	 movsx	 ecx, WORD PTR [eax+6]
  00513	81 f9 93 00 00
	00		 cmp	 ecx, 147		; 00000093H
  00519	74 13		 je	 SHORT $LN39@gObjCalCha
  0051b	8b 45 e0	 mov	 eax, DWORD PTR _Left$[ebp]
  0051e	0f bf 48 06	 movsx	 ecx, WORD PTR [eax+6]
  00522	81 f9 91 00 00
	00		 cmp	 ecx, 145		; 00000091H
  00528	0f 85 17 01 00
	00		 jne	 $LN37@gObjCalCha
$LN39@gObjCalCha:

; 360  : 		{	// 요정 활을 차고 있으면 민첩만 적용
; 361  : 			if( (Right->IsItem()&&!Right->m_IsValidItem) || (Left->IsItem()&&!Left->m_IsValidItem) )

  0052e	8b 4d e4	 mov	 ecx, DWORD PTR _Right$[ebp]
  00531	e8 00 00 00 00	 call	 ?IsItem@CItem@@QAEHXZ	; CItem::IsItem
  00536	85 c0		 test	 eax, eax
  00538	74 0e		 je	 SHORT $LN45@gObjCalCha
  0053a	8b 45 e4	 mov	 eax, DWORD PTR _Right$[ebp]
  0053d	0f b6 88 94 00
	00 00		 movzx	 ecx, BYTE PTR [eax+148]
  00544	85 c9		 test	 ecx, ecx
  00546	74 1a		 je	 SHORT $LN44@gObjCalCha
$LN45@gObjCalCha:
  00548	8b 4d e0	 mov	 ecx, DWORD PTR _Left$[ebp]
  0054b	e8 00 00 00 00	 call	 ?IsItem@CItem@@QAEHXZ	; CItem::IsItem
  00550	85 c0		 test	 eax, eax
  00552	74 6b		 je	 SHORT $LN42@gObjCalCha
  00554	8b 45 e0	 mov	 eax, DWORD PTR _Left$[ebp]
  00557	0f b6 88 94 00
	00 00		 movzx	 ecx, BYTE PTR [eax+148]
  0055e	85 c9		 test	 ecx, ecx
  00560	75 5d		 jne	 SHORT $LN42@gObjCalCha
$LN44@gObjCalCha:

; 362  : 			{	// 장착 가능한 아이템이 아니면 적용하지 않는다
; 363  : 				lpObj->m_AttackDamageMinRight = (Dexterity+Strength)/Balancer.AttackDamageMin_Bow_StrDexDiv_Elf;

  00562	8b 45 f0	 mov	 eax, DWORD PTR _Dexterity$[ebp]
  00565	03 45 f4	 add	 eax, DWORD PTR _Strength$[ebp]
  00568	99		 cdq
  00569	f7 3d 00 00 00
	00		 idiv	 DWORD PTR ?Balancer@@3VCBalancer@@A
  0056f	8b 4d f8	 mov	 ecx, DWORD PTR _lpObj$[ebp]
  00572	89 81 d8 02 00
	00		 mov	 DWORD PTR [ecx+728], eax

; 364  : 				lpObj->m_AttackDamageMaxRight = (Dexterity+Strength)/Balancer.AttackDamageMax_Bow_StrDexDiv_Elf;

  00578	8b 45 f0	 mov	 eax, DWORD PTR _Dexterity$[ebp]
  0057b	03 45 f4	 add	 eax, DWORD PTR _Strength$[ebp]
  0057e	99		 cdq
  0057f	f7 3d 04 00 00
	00		 idiv	 DWORD PTR ?Balancer@@3VCBalancer@@A+4
  00585	8b 4d f8	 mov	 ecx, DWORD PTR _lpObj$[ebp]
  00588	89 81 d4 02 00
	00		 mov	 DWORD PTR [ecx+724], eax

; 365  : 				lpObj->m_AttackDamageMinLeft  = (Dexterity+Strength)/Balancer.AttackDamageMin_Bow_StrDexDiv_Elf;

  0058e	8b 45 f0	 mov	 eax, DWORD PTR _Dexterity$[ebp]
  00591	03 45 f4	 add	 eax, DWORD PTR _Strength$[ebp]
  00594	99		 cdq
  00595	f7 3d 00 00 00
	00		 idiv	 DWORD PTR ?Balancer@@3VCBalancer@@A
  0059b	8b 4d f8	 mov	 ecx, DWORD PTR _lpObj$[ebp]
  0059e	89 81 d0 02 00
	00		 mov	 DWORD PTR [ecx+720], eax

; 366  : 				lpObj->m_AttackDamageMaxLeft  = (Dexterity+Strength)/Balancer.AttackDamageMax_Bow_StrDexDiv_Elf;

  005a4	8b 45 f0	 mov	 eax, DWORD PTR _Dexterity$[ebp]
  005a7	03 45 f4	 add	 eax, DWORD PTR _Strength$[ebp]
  005aa	99		 cdq
  005ab	f7 3d 04 00 00
	00		 idiv	 DWORD PTR ?Balancer@@3VCBalancer@@A+4
  005b1	8b 4d f8	 mov	 ecx, DWORD PTR _lpObj$[ebp]
  005b4	89 81 cc 02 00
	00		 mov	 DWORD PTR [ecx+716], eax

; 367  : 			}

  005ba	e9 84 00 00 00	 jmp	 $LN43@gObjCalCha
$LN42@gObjCalCha:

; 368  : 			else
; 369  : 			{
; 370  : 				lpObj->m_AttackDamageMinRight = Dexterity/Balancer.AttackDamageMin_NoBow_DexDiv_Elf+Strength/Balancer.AttackDamageMin_NoBow_StrDiv_Elf;

  005bf	8b 45 f0	 mov	 eax, DWORD PTR _Dexterity$[ebp]
  005c2	99		 cdq
  005c3	f7 3d 08 00 00
	00		 idiv	 DWORD PTR ?Balancer@@3VCBalancer@@A+8
  005c9	8b c8		 mov	 ecx, eax
  005cb	8b 45 f4	 mov	 eax, DWORD PTR _Strength$[ebp]
  005ce	99		 cdq
  005cf	f7 3d 0c 00 00
	00		 idiv	 DWORD PTR ?Balancer@@3VCBalancer@@A+12
  005d5	03 c8		 add	 ecx, eax
  005d7	8b 55 f8	 mov	 edx, DWORD PTR _lpObj$[ebp]
  005da	89 8a d8 02 00
	00		 mov	 DWORD PTR [edx+728], ecx

; 371  : 				lpObj->m_AttackDamageMaxRight = Dexterity/Balancer.AttackDamageMax_NoBow_DexDiv_Elf+Strength/Balancer.AttackDamageMax_NoBow_StrDiv_Elf;

  005e0	8b 45 f0	 mov	 eax, DWORD PTR _Dexterity$[ebp]
  005e3	99		 cdq
  005e4	f7 3d 10 00 00
	00		 idiv	 DWORD PTR ?Balancer@@3VCBalancer@@A+16
  005ea	8b c8		 mov	 ecx, eax
  005ec	8b 45 f4	 mov	 eax, DWORD PTR _Strength$[ebp]
  005ef	99		 cdq
  005f0	f7 3d 14 00 00
	00		 idiv	 DWORD PTR ?Balancer@@3VCBalancer@@A+20
  005f6	03 c8		 add	 ecx, eax
  005f8	8b 55 f8	 mov	 edx, DWORD PTR _lpObj$[ebp]
  005fb	89 8a d4 02 00
	00		 mov	 DWORD PTR [edx+724], ecx

; 372  : 				lpObj->m_AttackDamageMinLeft  = Dexterity/Balancer.AttackDamageMin_NoBow_DexDiv_Elf+Strength/Balancer.AttackDamageMin_NoBow_StrDiv_Elf;

  00601	8b 45 f0	 mov	 eax, DWORD PTR _Dexterity$[ebp]
  00604	99		 cdq
  00605	f7 3d 08 00 00
	00		 idiv	 DWORD PTR ?Balancer@@3VCBalancer@@A+8
  0060b	8b c8		 mov	 ecx, eax
  0060d	8b 45 f4	 mov	 eax, DWORD PTR _Strength$[ebp]
  00610	99		 cdq
  00611	f7 3d 0c 00 00
	00		 idiv	 DWORD PTR ?Balancer@@3VCBalancer@@A+12
  00617	03 c8		 add	 ecx, eax
  00619	8b 55 f8	 mov	 edx, DWORD PTR _lpObj$[ebp]
  0061c	89 8a d0 02 00
	00		 mov	 DWORD PTR [edx+720], ecx

; 373  : 				lpObj->m_AttackDamageMaxLeft  = Dexterity/Balancer.AttackDamageMax_NoBow_DexDiv_Elf+Strength/Balancer.AttackDamageMax_NoBow_StrDiv_Elf;

  00622	8b 45 f0	 mov	 eax, DWORD PTR _Dexterity$[ebp]
  00625	99		 cdq
  00626	f7 3d 10 00 00
	00		 idiv	 DWORD PTR ?Balancer@@3VCBalancer@@A+16
  0062c	8b c8		 mov	 ecx, eax
  0062e	8b 45 f4	 mov	 eax, DWORD PTR _Strength$[ebp]
  00631	99		 cdq
  00632	f7 3d 14 00 00
	00		 idiv	 DWORD PTR ?Balancer@@3VCBalancer@@A+20
  00638	03 c8		 add	 ecx, eax
  0063a	8b 55 f8	 mov	 edx, DWORD PTR _lpObj$[ebp]
  0063d	89 8a cc 02 00
	00		 mov	 DWORD PTR [edx+716], ecx
$LN43@gObjCalCha:

; 374  : 			}
; 375  : 		}

  00643	eb 58		 jmp	 SHORT $LN38@gObjCalCha
$LN37@gObjCalCha:

; 376  : 		else
; 377  : 		{
; 378  : 			lpObj->m_AttackDamageMinRight = (Dexterity+Strength)/Balancer.AttackDamageMin_DexStrDiv_Elf;

  00645	8b 45 f0	 mov	 eax, DWORD PTR _Dexterity$[ebp]
  00648	03 45 f4	 add	 eax, DWORD PTR _Strength$[ebp]
  0064b	99		 cdq
  0064c	f7 3d 18 00 00
	00		 idiv	 DWORD PTR ?Balancer@@3VCBalancer@@A+24
  00652	8b 4d f8	 mov	 ecx, DWORD PTR _lpObj$[ebp]
  00655	89 81 d8 02 00
	00		 mov	 DWORD PTR [ecx+728], eax

; 379  : 			lpObj->m_AttackDamageMaxRight = (Dexterity+Strength)/Balancer.AttackDamageMax_DexStrDiv_Elf;

  0065b	8b 45 f0	 mov	 eax, DWORD PTR _Dexterity$[ebp]
  0065e	03 45 f4	 add	 eax, DWORD PTR _Strength$[ebp]
  00661	99		 cdq
  00662	f7 3d 1c 00 00
	00		 idiv	 DWORD PTR ?Balancer@@3VCBalancer@@A+28
  00668	8b 4d f8	 mov	 ecx, DWORD PTR _lpObj$[ebp]
  0066b	89 81 d4 02 00
	00		 mov	 DWORD PTR [ecx+724], eax

; 380  : 			lpObj->m_AttackDamageMinLeft  = (Dexterity+Strength)/Balancer.AttackDamageMin_DexStrDiv_Elf;

  00671	8b 45 f0	 mov	 eax, DWORD PTR _Dexterity$[ebp]
  00674	03 45 f4	 add	 eax, DWORD PTR _Strength$[ebp]
  00677	99		 cdq
  00678	f7 3d 18 00 00
	00		 idiv	 DWORD PTR ?Balancer@@3VCBalancer@@A+24
  0067e	8b 4d f8	 mov	 ecx, DWORD PTR _lpObj$[ebp]
  00681	89 81 d0 02 00
	00		 mov	 DWORD PTR [ecx+720], eax

; 381  : 			lpObj->m_AttackDamageMaxLeft  = (Dexterity+Strength)/Balancer.AttackDamageMax_DexStrDiv_Elf;

  00687	8b 45 f0	 mov	 eax, DWORD PTR _Dexterity$[ebp]
  0068a	03 45 f4	 add	 eax, DWORD PTR _Strength$[ebp]
  0068d	99		 cdq
  0068e	f7 3d 1c 00 00
	00		 idiv	 DWORD PTR ?Balancer@@3VCBalancer@@A+28
  00694	8b 4d f8	 mov	 ecx, DWORD PTR _lpObj$[ebp]
  00697	89 81 cc 02 00
	00		 mov	 DWORD PTR [ecx+716], eax
$LN38@gObjCalCha:

; 382  : 		}
; 383  : 	}

  0069d	e9 e1 01 00 00	 jmp	 $LN51@gObjCalCha
$LN35@gObjCalCha:

; 384  : 	else if( lpObj->Class == CLASS_KNIGHT )

  006a2	8b 45 f8	 mov	 eax, DWORD PTR _lpObj$[ebp]
  006a5	0f b7 88 9c 00
	00 00		 movzx	 ecx, WORD PTR [eax+156]
  006ac	83 f9 01	 cmp	 ecx, 1
  006af	75 51		 jne	 SHORT $LN46@gObjCalCha

; 385  : 	{
; 386  : 		lpObj->m_AttackDamageMinRight = Strength/Balancer.AttackDamageMin_StrDiv_DK;

  006b1	8b 45 f4	 mov	 eax, DWORD PTR _Strength$[ebp]
  006b4	99		 cdq
  006b5	f7 3d 20 00 00
	00		 idiv	 DWORD PTR ?Balancer@@3VCBalancer@@A+32
  006bb	8b 4d f8	 mov	 ecx, DWORD PTR _lpObj$[ebp]
  006be	89 81 d8 02 00
	00		 mov	 DWORD PTR [ecx+728], eax

; 387  : 		lpObj->m_AttackDamageMaxRight = Strength/Balancer.AttackDamageMax_StrDiv_DK;

  006c4	8b 45 f4	 mov	 eax, DWORD PTR _Strength$[ebp]
  006c7	99		 cdq
  006c8	f7 3d 24 00 00
	00		 idiv	 DWORD PTR ?Balancer@@3VCBalancer@@A+36
  006ce	8b 4d f8	 mov	 ecx, DWORD PTR _lpObj$[ebp]
  006d1	89 81 d4 02 00
	00		 mov	 DWORD PTR [ecx+724], eax

; 388  : 		lpObj->m_AttackDamageMinLeft  = Strength/Balancer.AttackDamageMin_StrDiv_DK;

  006d7	8b 45 f4	 mov	 eax, DWORD PTR _Strength$[ebp]
  006da	99		 cdq
  006db	f7 3d 20 00 00
	00		 idiv	 DWORD PTR ?Balancer@@3VCBalancer@@A+32
  006e1	8b 4d f8	 mov	 ecx, DWORD PTR _lpObj$[ebp]
  006e4	89 81 d0 02 00
	00		 mov	 DWORD PTR [ecx+720], eax

; 389  : 		lpObj->m_AttackDamageMaxLeft  = Strength/Balancer.AttackDamageMax_StrDiv_DK;	

  006ea	8b 45 f4	 mov	 eax, DWORD PTR _Strength$[ebp]
  006ed	99		 cdq
  006ee	f7 3d 24 00 00
	00		 idiv	 DWORD PTR ?Balancer@@3VCBalancer@@A+36
  006f4	8b 4d f8	 mov	 ecx, DWORD PTR _lpObj$[ebp]
  006f7	89 81 cc 02 00
	00		 mov	 DWORD PTR [ecx+716], eax

; 390  : 	}

  006fd	e9 81 01 00 00	 jmp	 $LN51@gObjCalCha
$LN46@gObjCalCha:

; 391  : 	else if( lpObj->Class == CLASS_MAGUMSA )

  00702	8b 45 f8	 mov	 eax, DWORD PTR _lpObj$[ebp]
  00705	0f b7 88 9c 00
	00 00		 movzx	 ecx, WORD PTR [eax+156]
  0070c	83 f9 03	 cmp	 ecx, 3
  0070f	0f 85 89 00 00
	00		 jne	 $LN48@gObjCalCha

; 392  : 	{
; 393  : 		lpObj->m_AttackDamageMinRight = Strength/Balancer.AttackDamageMin_StrDiv_MG+Energy/Balancer.AttackDamageMin_EneDiv_MG;

  00715	8b 45 f4	 mov	 eax, DWORD PTR _Strength$[ebp]
  00718	99		 cdq
  00719	f7 3d 28 00 00
	00		 idiv	 DWORD PTR ?Balancer@@3VCBalancer@@A+40
  0071f	8b c8		 mov	 ecx, eax
  00721	8b 45 e8	 mov	 eax, DWORD PTR _Energy$[ebp]
  00724	99		 cdq
  00725	f7 3d 2c 00 00
	00		 idiv	 DWORD PTR ?Balancer@@3VCBalancer@@A+44
  0072b	03 c8		 add	 ecx, eax
  0072d	8b 55 f8	 mov	 edx, DWORD PTR _lpObj$[ebp]
  00730	89 8a d8 02 00
	00		 mov	 DWORD PTR [edx+728], ecx

; 394  : 		lpObj->m_AttackDamageMaxRight = Strength/Balancer.AttackDamageMax_StrDiv_MG+Energy/Balancer.AttackDamageMax_EneDiv_MG;

  00736	8b 45 f4	 mov	 eax, DWORD PTR _Strength$[ebp]
  00739	99		 cdq
  0073a	f7 3d 30 00 00
	00		 idiv	 DWORD PTR ?Balancer@@3VCBalancer@@A+48
  00740	8b c8		 mov	 ecx, eax
  00742	8b 45 e8	 mov	 eax, DWORD PTR _Energy$[ebp]
  00745	99		 cdq
  00746	f7 3d 34 00 00
	00		 idiv	 DWORD PTR ?Balancer@@3VCBalancer@@A+52
  0074c	03 c8		 add	 ecx, eax
  0074e	8b 55 f8	 mov	 edx, DWORD PTR _lpObj$[ebp]
  00751	89 8a d4 02 00
	00		 mov	 DWORD PTR [edx+724], ecx

; 395  : 		lpObj->m_AttackDamageMinLeft  = Strength/Balancer.AttackDamageMin_StrDiv_MG+Energy/Balancer.AttackDamageMin_EneDiv_MG;

  00757	8b 45 f4	 mov	 eax, DWORD PTR _Strength$[ebp]
  0075a	99		 cdq
  0075b	f7 3d 28 00 00
	00		 idiv	 DWORD PTR ?Balancer@@3VCBalancer@@A+40
  00761	8b c8		 mov	 ecx, eax
  00763	8b 45 e8	 mov	 eax, DWORD PTR _Energy$[ebp]
  00766	99		 cdq
  00767	f7 3d 2c 00 00
	00		 idiv	 DWORD PTR ?Balancer@@3VCBalancer@@A+44
  0076d	03 c8		 add	 ecx, eax
  0076f	8b 55 f8	 mov	 edx, DWORD PTR _lpObj$[ebp]
  00772	89 8a d0 02 00
	00		 mov	 DWORD PTR [edx+720], ecx

; 396  : 		lpObj->m_AttackDamageMaxLeft  = Strength/Balancer.AttackDamageMax_StrDiv_MG+Energy/Balancer.AttackDamageMax_EneDiv_MG;	

  00778	8b 45 f4	 mov	 eax, DWORD PTR _Strength$[ebp]
  0077b	99		 cdq
  0077c	f7 3d 30 00 00
	00		 idiv	 DWORD PTR ?Balancer@@3VCBalancer@@A+48
  00782	8b c8		 mov	 ecx, eax
  00784	8b 45 e8	 mov	 eax, DWORD PTR _Energy$[ebp]
  00787	99		 cdq
  00788	f7 3d 34 00 00
	00		 idiv	 DWORD PTR ?Balancer@@3VCBalancer@@A+52
  0078e	03 c8		 add	 ecx, eax
  00790	8b 55 f8	 mov	 edx, DWORD PTR _lpObj$[ebp]
  00793	89 8a cc 02 00
	00		 mov	 DWORD PTR [edx+716], ecx

; 397  : 	}

  00799	e9 e5 00 00 00	 jmp	 $LN51@gObjCalCha
$LN48@gObjCalCha:

; 398  : #ifdef DARKLORD_WORK	
; 399  : 	else if( lpObj->Class == CLASS_DARKLORD )

  0079e	8b 45 f8	 mov	 eax, DWORD PTR _lpObj$[ebp]
  007a1	0f b7 88 9c 00
	00 00		 movzx	 ecx, WORD PTR [eax+156]
  007a8	83 f9 04	 cmp	 ecx, 4
  007ab	0f 85 86 00 00
	00		 jne	 $LN50@gObjCalCha

; 400  : 		{
; 401  : 			lpObj->m_AttackDamageMinRight = Strength/Balancer.AttackDamageMin_StrDiv_DL+Energy/Balancer.AttackDamageMin_EneDiv_DL;

  007b1	8b 45 f4	 mov	 eax, DWORD PTR _Strength$[ebp]
  007b4	99		 cdq
  007b5	f7 3d 8c 00 00
	00		 idiv	 DWORD PTR ?Balancer@@3VCBalancer@@A+140
  007bb	8b c8		 mov	 ecx, eax
  007bd	8b 45 e8	 mov	 eax, DWORD PTR _Energy$[ebp]
  007c0	99		 cdq
  007c1	f7 3d 90 00 00
	00		 idiv	 DWORD PTR ?Balancer@@3VCBalancer@@A+144
  007c7	03 c8		 add	 ecx, eax
  007c9	8b 55 f8	 mov	 edx, DWORD PTR _lpObj$[ebp]
  007cc	89 8a d8 02 00
	00		 mov	 DWORD PTR [edx+728], ecx

; 402  : 			lpObj->m_AttackDamageMaxRight = Strength/Balancer.AttackDamageMax_StrDiv_DL+Energy/Balancer.AttackDamageMax_EneDiv_DL;

  007d2	8b 45 f4	 mov	 eax, DWORD PTR _Strength$[ebp]
  007d5	99		 cdq
  007d6	f7 3d 94 00 00
	00		 idiv	 DWORD PTR ?Balancer@@3VCBalancer@@A+148
  007dc	8b c8		 mov	 ecx, eax
  007de	8b 45 e8	 mov	 eax, DWORD PTR _Energy$[ebp]
  007e1	99		 cdq
  007e2	f7 3d 98 00 00
