; Listing generated by Microsoft (R) Optimizing Compiler Version 19.27.29111.0 

	TITLE	C:\Mu Online\Mu-GS-Webzen-MC-10093\GameServer\ObjUseSkill.cpp
	.686P
	.XMM
	include listing.inc
	.model	flat

INCLUDELIB LIBCMT
INCLUDELIB OLDNAMES

PUBLIC	?__empty_global_delete@@YAXPAX@Z		; __empty_global_delete
PUBLIC	?__empty_global_delete@@YAXPAXI@Z		; __empty_global_delete
PUBLIC	_sqrtf
PUBLIC	?sqrt@@YAMM@Z					; sqrt
PUBLIC	??0CObjUseSkill@@QAE@XZ				; CObjUseSkill::CObjUseSkill
PUBLIC	??1CObjUseSkill@@UAE@XZ				; CObjUseSkill::~CObjUseSkill
PUBLIC	?SpeedHackCheck@CObjUseSkill@@QAEHH@Z		; CObjUseSkill::SpeedHackCheck
PUBLIC	?EnableSkill@CObjUseSkill@@QAEHE@Z		; CObjUseSkill::EnableSkill
PUBLIC	?GetUseMana@CObjUseSkill@@QAEHHPAVCMagicInf@@@Z	; CObjUseSkill::GetUseMana
PUBLIC	?GetUseBP@CObjUseSkill@@QAEHHPAVCMagicInf@@@Z	; CObjUseSkill::GetUseBP
PUBLIC	?UseSkill@CObjUseSkill@@QAEXHPAVCMagicInf@@EEEEH@Z ; CObjUseSkill::UseSkill
PUBLIC	?UseSkill@CObjUseSkill@@QAEXHHPAVCMagicInf@@@Z	; CObjUseSkill::UseSkill
PUBLIC	?RunningSkill@CObjUseSkill@@QAEHHHPAVCMagicInf@@H@Z ; CObjUseSkill::RunningSkill
PUBLIC	?MaGumSkillDefenseDown@CObjUseSkill@@QAEXHHH@Z	; CObjUseSkill::MaGumSkillDefenseDown
PUBLIC	?KnightSkillAddLife@CObjUseSkill@@QAEXHH@Z	; CObjUseSkill::KnightSkillAddLife
PUBLIC	?WizardMagicDefense@CObjUseSkill@@QAEXHHH@Z	; CObjUseSkill::WizardMagicDefense
PUBLIC	?SkillDefense@CObjUseSkill@@QAEXHHH@Z		; CObjUseSkill::SkillDefense
PUBLIC	?SkillAttack@CObjUseSkill@@QAEXHHH@Z		; CObjUseSkill::SkillAttack
PUBLIC	?SkillChangeUse@CObjUseSkill@@QAEHH@Z		; CObjUseSkill::SkillChangeUse
PUBLIC	?SkillHealing@CObjUseSkill@@QAEXHHH@Z		; CObjUseSkill::SkillHealing
PUBLIC	?SkillMonsterCall@CObjUseSkill@@QAEHHHHH@Z	; CObjUseSkill::SkillMonsterCall
PUBLIC	?SkillDeathPoison@CObjUseSkill@@QAEHHPAVCMagicInf@@EEEEH@Z ; CObjUseSkill::SkillDeathPoison
PUBLIC	?SkillSuddenIce@CObjUseSkill@@QAEHHPAVCMagicInf@@EEEEH@Z ; CObjUseSkill::SkillSuddenIce
PUBLIC	?SkillHellFire2Start@CObjUseSkill@@QAEHHPAVCMagicInf@@@Z ; CObjUseSkill::SkillHellFire2Start
PUBLIC	?SkillHellFire2@CObjUseSkill@@QAEHHHPAVCMagicInf@@@Z ; CObjUseSkill::SkillHellFire2
PUBLIC	?SkillBlowOfFury@CObjUseSkill@@QAEXHPAVCMagicInf@@EEEEHH@Z ; CObjUseSkill::SkillBlowOfFury
PUBLIC	?SkillWheel@CObjUseSkill@@QAEXHPAVCMagicInf@@HH@Z ; CObjUseSkill::SkillWheel
PUBLIC	?SkillKnightBlow@CObjUseSkill@@QAEHHHPAVCMagicInf@@H@Z ; CObjUseSkill::SkillKnightBlow
PUBLIC	?SkillPowerSlash@CObjUseSkill@@QAEXHPAVCMagicInf@@EEEEH@Z ; CObjUseSkill::SkillPowerSlash
PUBLIC	?SkillFrustrum@CObjUseSkill@@QAEXHMMM@Z		; CObjUseSkill::SkillFrustrum
PUBLIC	?GetTargetLinePath@CObjUseSkill@@QAEHHHHHPAH0H@Z ; CObjUseSkill::GetTargetLinePath
PUBLIC	?GetAngle@CObjUseSkill@@QAEHHHHH@Z		; CObjUseSkill::GetAngle
PUBLIC	?CalDistance@CObjUseSkill@@QAEHHHHH@Z		; CObjUseSkill::CalDistance
PUBLIC	?SkillFrustrum2@CObjUseSkill@@QAEXHMMM@Z	; CObjUseSkill::SkillFrustrum2
PUBLIC	?SkillAreaCheck@CObjUseSkill@@QAEHHHHHHHH@Z	; CObjUseSkill::SkillAreaCheck
PUBLIC	?SkillSpear@CObjUseSkill@@QAEHHHPAVCMagicInf@@@Z ; CObjUseSkill::SkillSpear
PUBLIC	?SkillFireBurst@CObjUseSkill@@QAEHHHPAVCMagicInf@@@Z ; CObjUseSkill::SkillFireBurst
PUBLIC	?SkillDarkHorseAttack@CObjUseSkill@@QAEHHHPAVCMagicInf@@@Z ; CObjUseSkill::SkillDarkHorseAttack
PUBLIC	?RecallPartyCheck@CObjUseSkill@@QAEHHH@Z	; CObjUseSkill::RecallPartyCheck
PUBLIC	?SkillRecallParty@CObjUseSkill@@QAEXHH@Z	; CObjUseSkill::SkillRecallParty
PUBLIC	?SkillAddCriticalDamage@CObjUseSkill@@QAEXHH@Z	; CObjUseSkill::SkillAddCriticalDamage
PUBLIC	?SkillElectricSpark@CObjUseSkill@@QAEXHPAVCMagicInf@@EEEEH@Z ; CObjUseSkill::SkillElectricSpark
PUBLIC	?SkillSummon@CObjUseSkill@@QAEHHHPAVCMagicInf@@@Z ; CObjUseSkill::SkillSummon
PUBLIC	?SkillImmuneToMagic@CObjUseSkill@@QAEHHPAVCMagicInf@@@Z ; CObjUseSkill::SkillImmuneToMagic
PUBLIC	?SkillImmuneToHarm@CObjUseSkill@@QAEHHPAVCMagicInf@@@Z ; CObjUseSkill::SkillImmuneToHarm
PUBLIC	??_GCObjUseSkill@@UAEPAXI@Z			; CObjUseSkill::`scalar deleting destructor'
PUBLIC	?DecPartyMemberHPandMP@@YAHPAVOBJECTSTRUCT@@@Z	; DecPartyMemberHPandMP
PUBLIC	??_7CObjUseSkill@@6B@				; CObjUseSkill::`vftable'
PUBLIC	?gObjUseSkill@@3VCObjUseSkill@@A		; gObjUseSkill
PUBLIC	??_C@_0DE@ENPGLNLL@?$FL?$CFs?$FN?$FL?$CFs?$FN?5?$CFs?5Kick?5DetecHackCount@ ; `string'
PUBLIC	??_C@_0EB@KGCLNBNA@?$FL?$CFs?$FN?$FL?$CFs?$FN?5?$CFs?5Attack?5Speed?5Is?5Wro@ ; `string'
PUBLIC	??_C@_0DB@JJPLIMIC@?$FL?$CFs?$FN?$FL?$CFs?$FN?5?$CFs?5Apply?5Attack?5Speed?5@ ; `string'
PUBLIC	??_C@_0BJ@CPAKELEB@?$FL?$CF?$FN?5?$LN?$LK?E?$LD?5?$LF?t?$LH?$LJ?$MA?L?$LN?C?$LA?$KD?5?$LP?$MA?$LJ?v@ ; `string'
PUBLIC	??_C@_0BN@OLMADCHD@?$LI?$LG?$LA?K?$LL?g?5?$LI?s?$LN?$LK?E?M?$LJ?f?$LO?n?$LH?B?$LA?$KI?$LM?R?5?3?5?$CFd@ ; `string'
PUBLIC	??_C@_0DK@KIDJIGH@?$FL?$CFs?$FN?$FL?$CFs?$FN?5?G?o?F?D?$MA?L?$LO?n2?5?$LJ?v?F?$LA?5?$LE?$KN?$LH?$KP?A?v?A@ ; `string'
PUBLIC	??_C@_0DI@LCJNNJJL@?$FL?$CFs?$FN?$FL?$CFs?$FN?5?G?o?F?D?$MA?L?$LO?n2?5?$LJ?v?F?$LA?5?$LE?$KN?$LH?$KP?A?$LD?$LE@ ; `string'
PUBLIC	?__LINE__Var@?0??DecPartyMemberHPandMP@@YAHPAVOBJECTSTRUCT@@@Z@4JA ; `DecPartyMemberHPandMP'::`1'::__LINE__Var
PUBLIC	??_C@_0DO@FDNKFNLM@C?3?2Mu?5Online?2Mu?9GS?9Webzen?9MC?910@ ; `string'
PUBLIC	??_C@_0CE@CEJHKGA@error?5?3?5DecPartyMemberHPandMP?5?$CF@ ; `string'
PUBLIC	??_R4CObjUseSkill@@6B@				; CObjUseSkill::`RTTI Complete Object Locator'
PUBLIC	??_R0?AVCObjUseSkill@@@8			; CObjUseSkill `RTTI Type Descriptor'
PUBLIC	??_R3CObjUseSkill@@8				; CObjUseSkill::`RTTI Class Hierarchy Descriptor'
PUBLIC	??_R2CObjUseSkill@@8				; CObjUseSkill::`RTTI Base Class Array'
PUBLIC	??_R1A@?0A@EA@CObjUseSkill@@8			; CObjUseSkill::`RTTI Base Class Descriptor at (0,-1,0,64)'
PUBLIC	__real@3f800000
PUBLIC	__real@3fc00000
PUBLIC	__real@400921fb60000000
PUBLIC	__real@40400000
PUBLIC	__real@4056800000000000
PUBLIC	__real@4066800000000000
PUBLIC	__real@40a00000
PUBLIC	__real@40e00000
PUBLIC	__real@41200000
PUBLIC	__real@41a00000
PUBLIC	__real@42c80000
PUBLIC	__real@80000000
PUBLIC	__real@bf800000
PUBLIC	__xmm@80000000800000008000000080000000
EXTRN	??3@YAXPAXI@Z:PROC				; operator delete
EXTRN	_atexit:PROC
EXTRN	_memset:PROC
EXTRN	__imp__GetTickCount@0:PROC
EXTRN	__imp__wsprintfA:PROC
EXTRN	_rand:PROC
EXTRN	_atan2:PROC
EXTRN	_sqrt:PROC
EXTRN	__imp_?Get@CMsg@@QAEPADH@Z:PROC
EXTRN	?IsItem@CItem@@QAEHXZ:PROC			; CItem::IsItem
EXTRN	?CloseClient@@YAXH@Z:PROC			; CloseClient
EXTRN	?DataSend@@YAHHPAEK@Z:PROC			; DataSend
EXTRN	?gObjGetRandomFreeLocation@@YAHHAAE0HHH@Z:PROC	; gObjGetRandomFreeLocation
EXTRN	?CheckCombo@CComboAttack@@QAEHHH@Z:PROC		; CComboAttack::CheckCombo
EXTRN	?Check@CSkillDelay@@QAEHE@Z:PROC		; CSkillDelay::Check
EXTRN	?gObjAddAttackProcMsgSendDelay@@YAXPAVOBJECTSTRUCT@@HHHHH@Z:PROC ; gObjAddAttackProcMsgSendDelay
EXTRN	?gObjAddCallMon@@YAFXZ:PROC			; gObjAddCallMon
EXTRN	?gObjAddMonster@@YAFH@Z:PROC			; gObjAddMonster
EXTRN	?gObjSetMonster@@YAHHH@Z:PROC			; gObjSetMonster
EXTRN	?gObjAttack@@YAHPAVOBJECTSTRUCT@@0PAVCMagicInf@@HEHH@Z:PROC ; gObjAttack
EXTRN	?gObjCalDistance@@YAHPAVOBJECTSTRUCT@@0@Z:PROC	; gObjCalDistance
EXTRN	?gObjMagicBPUse@@YAHPAVOBJECTSTRUCT@@PAVCMagicInf@@@Z:PROC ; gObjMagicBPUse
EXTRN	?gObjGetMagicSearch@@YAPAVCMagicInf@@PAVOBJECTSTRUCT@@E@Z:PROC ; gObjGetMagicSearch
EXTRN	?gObjMonsterCallKill@@YAXH@Z:PROC		; gObjMonsterCallKill
EXTRN	?gObjViewportListProtocolCreate@@YAXPAVOBJECTSTRUCT@@@Z:PROC ; gObjViewportListProtocolCreate
EXTRN	?gObjCheckTeleportArea@@YAHHEE@Z:PROC		; gObjCheckTeleportArea
EXTRN	?gObjTargetGuildWarCheck@@YAHPAVOBJECTSTRUCT@@0@Z:PROC ; gObjTargetGuildWarCheck
EXTRN	?retCalcSkillResistance@@YAHPAVOBJECTSTRUCT@@H@Z:PROC ; retCalcSkillResistance
EXTRN	?SkillFrustrum@@YAXEH@Z:PROC			; SkillFrustrum
EXTRN	?SkillTestFrustrum@@YAHHHH@Z:PROC		; SkillTestFrustrum
EXTRN	?MsgOutput@@YAXHPADZZ:PROC			; MsgOutput
EXTRN	?GCServerMsgStringSend@@YAXPADHE@Z:PROC		; GCServerMsgStringSend
EXTRN	?MsgSendV2@@YAXPAVOBJECTSTRUCT@@PAEH@Z:PROC	; MsgSendV2
EXTRN	?GCReFillSend@@YAXHGEE@Z:PROC			; GCReFillSend
EXTRN	?GCManaSend@@YAXHFEEG@Z:PROC			; GCManaSend
EXTRN	?GCActionSend@@YAXPAVOBJECTSTRUCT@@EH@Z:PROC	; GCActionSend
EXTRN	?GCMagicAttackNumberSend@@YAXPAVOBJECTSTRUCT@@EHE@Z:PROC ; GCMagicAttackNumberSend
EXTRN	?GCRecallMonLife@@YAXHHH@Z:PROC			; GCRecallMonLife
EXTRN	?GCStateInfoSend@@YAXPAVOBJECTSTRUCT@@EG@Z:PROC	; GCStateInfoSend
EXTRN	?MakeItemNumber@@YAHHH@Z:PROC			; MakeItemNumber
EXTRN	?PHeadSetBE@@YAXPAEEH@Z:PROC			; PHeadSetBE
EXTRN	_AngleMatrix:PROC
EXTRN	_VectorRotate:PROC
EXTRN	??_ECObjUseSkill@@UAEPAXI@Z:PROC		; CObjUseSkill::`vector deleting destructor'
EXTRN	?SkillGetMana@CMagicDamage@@QAEHH@Z:PROC	; CMagicDamage::SkillGetMana
EXTRN	?SkillGetBP@CMagicDamage@@QAEHH@Z:PROC		; CMagicDamage::SkillGetBP
EXTRN	?HitCheck@CSkillHitBox@@QAEHHHHHH@Z:PROC	; CSkillHitBox::HitCheck
EXTRN	?GetMoveLevel@CMoveCommand@@QAEHHHHH@Z:PROC	; CMoveCommand::GetMoveLevel
EXTRN	?CheckMainToMove@CMoveCommand@@QAEHPAVOBJECTSTRUCT@@@Z:PROC ; CMoveCommand::CheckMainToMove
EXTRN	?CheckEquipmentToMove@CMoveCommand@@QAEHPAVOBJECTSTRUCT@@H@Z:PROC ; CMoveCommand::CheckEquipmentToMove
EXTRN	?CheckInterfaceToMove@CMoveCommand@@QAEHPAVOBJECTSTRUCT@@@Z:PROC ; CMoveCommand::CheckInterfaceToMove
EXTRN	@__security_check_cookie@4:PROC
EXTRN	__ftol2_sse:PROC
EXTRN	??_7type_info@@6B@:QWORD			; type_info::`vftable'
EXTRN	?LogAdd@@3P6AXPADZZA:DWORD			; LogAdd
EXTRN	?LogAddTD@@3P6AXPADZZA:DWORD			; LogAddTD
EXTRN	?gComboAttack@@3VCComboAttack@@A:DWORD		; gComboAttack
EXTRN	?gObj@@3PAVOBJECTSTRUCT@@A:DWORD		; gObj
EXTRN	?g_GlobalConfig@@3VCGlobalConfig@@A:BYTE	; g_GlobalConfig
EXTRN	?g_BuffHelper@@3VCBuffHelper@@A:BYTE		; g_BuffHelper
EXTRN	?lMsg@@3VCMsg@@A:BYTE				; lMsg
EXTRN	?gSpeedHackPenalty@@3HA:DWORD			; gSpeedHackPenalty
EXTRN	?bIsIgnorePacketSpeedHackDetect@@3HA:DWORD	; bIsIgnorePacketSpeedHackDetect
EXTRN	?gHackCheckCount@@3KA:DWORD			; gHackCheckCount
EXTRN	?gDetectedHackKickCount@@3HA:DWORD		; gDetectedHackKickCount
EXTRN	?gIsKickDetecHackCountLimit@@3HA:DWORD		; gIsKickDetecHackCountLimit
EXTRN	?MagicDamageC@@3VCMagicDamage@@A:BYTE		; MagicDamageC
EXTRN	?SkillSpearHitBox@@3VCSkillHitBox@@A:BYTE	; SkillSpearHitBox
EXTRN	?SkillElectricSparkHitBox@@3VCSkillHitBox@@A:BYTE ; SkillElectricSparkHitBox
EXTRN	?gMoveCommand@@3VCMoveCommand@@A:BYTE		; gMoveCommand
EXTRN	?gParty@@3VPartyClass@@A:BYTE			; gParty
EXTRN	___security_cookie:DWORD
EXTRN	__fltused:DWORD
_BSS	SEGMENT
?gObjUseSkill@@3VCObjUseSkill@@A DD 01H DUP (?)		; gObjUseSkill
?g_iChaosCastle_MonsterItems@@3PAY111HA DD 018H DUP (?)	; g_iChaosCastle_MonsterItems
_BSS	ENDS
CRT$XCU	SEGMENT
?g_iChaosCastle_MonsterItems$initializer$@@3P6AXXZA DD FLAT:??__Eg_iChaosCastle_MonsterItems@@YAXXZ ; g_iChaosCastle_MonsterItems$initializer$
CRT$XCU	ENDS
;	COMDAT __xmm@80000000800000008000000080000000
CONST	SEGMENT
__xmm@80000000800000008000000080000000 DB 00H, 00H, 00H, 080H, 00H, 00H, 00H
	DB	080H, 00H, 00H, 00H, 080H, 00H, 00H, 00H, 080H
CONST	ENDS
;	COMDAT __real@bf800000
CONST	SEGMENT
__real@bf800000 DD 0bf800000r			; -1
CONST	ENDS
;	COMDAT __real@80000000
CONST	SEGMENT
__real@80000000 DD 080000000r			; -0
CONST	ENDS
;	COMDAT __real@42c80000
CONST	SEGMENT
__real@42c80000 DD 042c80000r			; 100
CONST	ENDS
;	COMDAT __real@41a00000
CONST	SEGMENT
__real@41a00000 DD 041a00000r			; 20
CONST	ENDS
;	COMDAT __real@41200000
CONST	SEGMENT
__real@41200000 DD 041200000r			; 10
CONST	ENDS
;	COMDAT __real@40e00000
CONST	SEGMENT
__real@40e00000 DD 040e00000r			; 7
CONST	ENDS
;	COMDAT __real@40a00000
CONST	SEGMENT
__real@40a00000 DD 040a00000r			; 5
CONST	ENDS
;	COMDAT __real@4066800000000000
CONST	SEGMENT
__real@4066800000000000 DQ 04066800000000000r	; 180
CONST	ENDS
;	COMDAT __real@4056800000000000
CONST	SEGMENT
__real@4056800000000000 DQ 04056800000000000r	; 90
CONST	ENDS
;	COMDAT __real@40400000
CONST	SEGMENT
__real@40400000 DD 040400000r			; 3
CONST	ENDS
;	COMDAT __real@400921fb60000000
CONST	SEGMENT
__real@400921fb60000000 DQ 0400921fb60000000r	; 3.14159
CONST	ENDS
;	COMDAT __real@3fc00000
CONST	SEGMENT
__real@3fc00000 DD 03fc00000r			; 1.5
CONST	ENDS
;	COMDAT __real@3f800000
CONST	SEGMENT
__real@3f800000 DD 03f800000r			; 1
CONST	ENDS
;	COMDAT ??_R1A@?0A@EA@CObjUseSkill@@8
rdata$r	SEGMENT
??_R1A@?0A@EA@CObjUseSkill@@8 DD FLAT:??_R0?AVCObjUseSkill@@@8 ; CObjUseSkill::`RTTI Base Class Descriptor at (0,-1,0,64)'
	DD	00H
	DD	00H
	DD	0ffffffffH
	DD	00H
	DD	040H
	DD	FLAT:??_R3CObjUseSkill@@8
rdata$r	ENDS
;	COMDAT ??_R2CObjUseSkill@@8
rdata$r	SEGMENT
??_R2CObjUseSkill@@8 DD FLAT:??_R1A@?0A@EA@CObjUseSkill@@8 ; CObjUseSkill::`RTTI Base Class Array'
rdata$r	ENDS
;	COMDAT ??_R3CObjUseSkill@@8
rdata$r	SEGMENT
??_R3CObjUseSkill@@8 DD 00H				; CObjUseSkill::`RTTI Class Hierarchy Descriptor'
	DD	00H
	DD	01H
	DD	FLAT:??_R2CObjUseSkill@@8
rdata$r	ENDS
;	COMDAT ??_R0?AVCObjUseSkill@@@8
data$r	SEGMENT
??_R0?AVCObjUseSkill@@@8 DD FLAT:??_7type_info@@6B@	; CObjUseSkill `RTTI Type Descriptor'
	DD	00H
	DB	'.?AVCObjUseSkill@@', 00H
data$r	ENDS
;	COMDAT ??_R4CObjUseSkill@@6B@
rdata$r	SEGMENT
??_R4CObjUseSkill@@6B@ DD 00H				; CObjUseSkill::`RTTI Complete Object Locator'
	DD	00H
	DD	00H
	DD	FLAT:??_R0?AVCObjUseSkill@@@8
	DD	FLAT:??_R3CObjUseSkill@@8
rdata$r	ENDS
;	COMDAT ??_C@_0CE@CEJHKGA@error?5?3?5DecPartyMemberHPandMP?5?$CF@
CONST	SEGMENT
??_C@_0CE@CEJHKGA@error?5?3?5DecPartyMemberHPandMP?5?$CF@ DB 'error : Dec'
	DB	'PartyMemberHPandMP %s %d', 00H		; `string'
CONST	ENDS
;	COMDAT ??_C@_0DO@FDNKFNLM@C?3?2Mu?5Online?2Mu?9GS?9Webzen?9MC?910@
CONST	SEGMENT
??_C@_0DO@FDNKFNLM@C?3?2Mu?5Online?2Mu?9GS?9Webzen?9MC?910@ DB 'C:\Mu Onl'
	DB	'ine\Mu-GS-Webzen-MC-10093\GameServer\ObjUseSkill.cpp', 00H ; `string'
CONST	ENDS
;	COMDAT ?__LINE__Var@?0??DecPartyMemberHPandMP@@YAHPAVOBJECTSTRUCT@@@Z@4JA
_DATA	SEGMENT
?__LINE__Var@?0??DecPartyMemberHPandMP@@YAHPAVOBJECTSTRUCT@@@Z@4JA DD 010e2H ; `DecPartyMemberHPandMP'::`1'::__LINE__Var
_DATA	ENDS
;	COMDAT ??_C@_0DI@LCJNNJJL@?$FL?$CFs?$FN?$FL?$CFs?$FN?5?G?o?F?D?$MA?L?$LO?n2?5?$LJ?v?F?$LA?5?$LE?$KN?$LH?$KP?A?$LD?$LE@
CONST	SEGMENT
??_C@_0DI@LCJNNJJL@?$FL?$CFs?$FN?$FL?$CFs?$FN?5?G?o?F?D?$MA?L?$LO?n2?5?$LJ?v?F?$LA?5?$LE?$KN?$LH?$KP?A?$LD?$LE@ DB '['
	DB	'%s][%s] ', 0c7H, 0efH, 0c6H, 0c4H, 0c0H, 0ccH, 0beH, 0eeH, '2'
	DB	' ', 0b9H, 0f6H, 0c6H, 0b0H, ' ', 0b4H, 0adH, 0b7H, 0afH, 0c1H
	DB	0b3H, 0b4H, 0c2H, 0b5H, 0a5H, ' ', 0b6H, 0c7H, ' ', 0b4H, 0adH
	DB	0b7H, 0afH, 0c1H, 0b3H, 0b4H, 0d9H, 0b4H, 0c2H, 0b0H, 0c5H, ' '
	DB	0bfH, 0d4H, 0b4H, 0d9H, 00H			; `string'
CONST	ENDS
;	COMDAT ??_C@_0DK@KIDJIGH@?$FL?$CFs?$FN?$FL?$CFs?$FN?5?G?o?F?D?$MA?L?$LO?n2?5?$LJ?v?F?$LA?5?$LE?$KN?$LH?$KP?A?v?A@
CONST	SEGMENT
??_C@_0DK@KIDJIGH@?$FL?$CFs?$FN?$FL?$CFs?$FN?5?G?o?F?D?$MA?L?$LO?n2?5?$LJ?v?F?$LA?5?$LE?$KN?$LH?$KP?A?v?A@ DB '['
	DB	'%s][%s] ', 0c7H, 0efH, 0c6H, 0c4H, 0c0H, 0ccH, 0beH, 0eeH, '2'
	DB	' ', 0b9H, 0f6H, 0c6H, 0b0H, ' ', 0b4H, 0adH, 0b7H, 0afH, 0c1H
	DB	0f6H, 0c1H, 0f6H, 0b5H, 0b5H, ' ', 0beH, 0caH, 0beH, 0d2H, 0b4H
	DB	0c2H, 0b5H, 0a5H, ' ', 0bfH, 0cfH, 0b7H, 0e1H, 0b0H, 0a1H, ' ', 0b5H
	DB	0c7H, 0beH, 0faH, 0b4H, 0d9H, 00H		; `string'
CONST	ENDS
;	COMDAT ??_C@_0BN@OLMADCHD@?$LI?$LG?$LA?K?$LL?g?5?$LI?s?$LN?$LK?E?M?$LJ?f?$LO?n?$LH?B?$LA?$KI?$LM?R?5?3?5?$CFd@
CONST	SEGMENT
??_C@_0BN@OLMADCHD@?$LI?$LG?$LA?K?$LL?g?5?$LI?s?$LN?$LK?E?M?$LJ?f?$LO?n?$LH?B?$LA?$KI?$LM?R?5?3?5?$CFd@ DB 0b8H
	DB	0b6H, 0b0H, 0cbH, 0bbH, 0e7H, ' ', 0b8H, 0f3H, 0bdH, 0baH, 0c5H
	DB	0cdH, 0b9H, 0e6H, 0beH, 0eeH, 0b7H, 0c2H, 0b0H, 0a8H, 0bcH, 0d2H
	DB	' : %d', 00H					; `string'
CONST	ENDS
;	COMDAT ??_C@_0BJ@CPAKELEB@?$FL?$CF?$FN?5?$LN?$LK?E?$LD?5?$LF?t?$LH?$LJ?$MA?L?$LN?C?$LA?$KD?5?$LP?$MA?$LJ?v@
CONST	SEGMENT
??_C@_0BJ@CPAKELEB@?$FL?$CF?$FN?5?$LN?$LK?E?$LD?5?$LF?t?$LH?$LJ?$MA?L?$LN?C?$LA?$KD?5?$LP?$MA?$LJ?v@ DB '['
	DB	'%] ', 0bdH, 0baH, 0c5H, 0b3H, ' ', 0b5H, 0f4H, 0b7H, 0b9H, 0c0H
	DB	0ccH, 0bdH, 0c3H, 0b0H, 0a3H, ' ', 0bfH, 0c0H, 0b9H, 0f6H, 00H ; `string'
CONST	ENDS
;	COMDAT ??_C@_0DB@JJPLIMIC@?$FL?$CFs?$FN?$FL?$CFs?$FN?5?$CFs?5Apply?5Attack?5Speed?5@
CONST	SEGMENT
??_C@_0DB@JJPLIMIC@?$FL?$CFs?$FN?$FL?$CFs?$FN?5?$CFs?5Apply?5Attack?5Speed?5@ DB '['
	DB	'%s][%s] %s Apply Attack Speed Penalty (%d left)', 00H ; `string'
CONST	ENDS
;	COMDAT ??_C@_0EB@KGCLNBNA@?$FL?$CFs?$FN?$FL?$CFs?$FN?5?$CFs?5Attack?5Speed?5Is?5Wro@
CONST	SEGMENT
??_C@_0EB@KGCLNBNA@?$FL?$CFs?$FN?$FL?$CFs?$FN?5?$CFs?5Attack?5Speed?5Is?5Wro@ DB '['
	DB	'%s][%s] %s Attack Speed Is Wrong MagicSkill (%d)(%d) Penalty '
	DB	'%d', 00H					; `string'
CONST	ENDS
;	COMDAT ??_C@_0DE@ENPGLNLL@?$FL?$CFs?$FN?$FL?$CFs?$FN?5?$CFs?5Kick?5DetecHackCount@
CONST	SEGMENT
??_C@_0DE@ENPGLNLL@?$FL?$CFs?$FN?$FL?$CFs?$FN?5?$CFs?5Kick?5DetecHackCount@ DB '['
	DB	'%s][%s] %s Kick DetecHackCountLimit Over User (%d)', 00H ; `string'
CONST	ENDS
;	COMDAT ??_7CObjUseSkill@@6B@
CONST	SEGMENT
??_7CObjUseSkill@@6B@ DD FLAT:??_R4CObjUseSkill@@6B@	; CObjUseSkill::`vftable'
	DD	FLAT:??_ECObjUseSkill@@UAEPAXI@Z
CONST	ENDS
CRT$XCU	SEGMENT
?gObjUseSkill$initializer$@@3P6AXXZA DD FLAT:??__EgObjUseSkill@@YAXXZ ; gObjUseSkill$initializer$
CRT$XCU	ENDS
; Function compile flags: /Odtp /ZI
;	COMDAT ??__FgObjUseSkill@@YAXXZ
text$yd	SEGMENT
??__FgObjUseSkill@@YAXXZ PROC				; `dynamic atexit destructor for 'gObjUseSkill'', COMDAT
  00000	55		 push	 ebp
  00001	8b ec		 mov	 ebp, esp
  00003	83 ec 40	 sub	 esp, 64			; 00000040H
  00006	53		 push	 ebx
  00007	56		 push	 esi
  00008	57		 push	 edi
  00009	b9 00 00 00 00	 mov	 ecx, OFFSET ?gObjUseSkill@@3VCObjUseSkill@@A ; gObjUseSkill
  0000e	e8 00 00 00 00	 call	 ??1CObjUseSkill@@UAE@XZ	; CObjUseSkill::~CObjUseSkill
  00013	5f		 pop	 edi
  00014	5e		 pop	 esi
  00015	5b		 pop	 ebx
  00016	8b e5		 mov	 esp, ebp
  00018	5d		 pop	 ebp
  00019	c3		 ret	 0
??__FgObjUseSkill@@YAXXZ ENDP				; `dynamic atexit destructor for 'gObjUseSkill''
text$yd	ENDS
; Function compile flags: /Odtp /ZI
; File C:\Mu Online\Mu-GS-Webzen-MC-10093\GameServer\ObjUseSkill.cpp
;	COMDAT ??__EgObjUseSkill@@YAXXZ
text$di	SEGMENT
??__EgObjUseSkill@@YAXXZ PROC				; `dynamic initializer for 'gObjUseSkill'', COMDAT

; 73   : CObjUseSkill gObjUseSkill;

  00000	55		 push	 ebp
  00001	8b ec		 mov	 ebp, esp
  00003	83 ec 40	 sub	 esp, 64			; 00000040H
  00006	53		 push	 ebx
  00007	56		 push	 esi
  00008	57		 push	 edi
  00009	b9 00 00 00 00	 mov	 ecx, OFFSET ?gObjUseSkill@@3VCObjUseSkill@@A ; gObjUseSkill
  0000e	e8 00 00 00 00	 call	 ??0CObjUseSkill@@QAE@XZ	; CObjUseSkill::CObjUseSkill
  00013	68 00 00 00 00	 push	 OFFSET ??__FgObjUseSkill@@YAXXZ ; `dynamic atexit destructor for 'gObjUseSkill''
  00018	e8 00 00 00 00	 call	 _atexit
  0001d	83 c4 04	 add	 esp, 4
  00020	5f		 pop	 edi
  00021	5e		 pop	 esi
  00022	5b		 pop	 ebx
  00023	8b e5		 mov	 esp, ebp
  00025	5d		 pop	 ebp
  00026	c3		 ret	 0
??__EgObjUseSkill@@YAXXZ ENDP				; `dynamic initializer for 'gObjUseSkill''
text$di	ENDS
; Function compile flags: /Odtp /ZI
; File C:\Mu Online\Mu-GS-Webzen-MC-10093\GameServer\ObjUseSkill.cpp
;	COMDAT ?DecPartyMemberHPandMP@@YAHPAVOBJECTSTRUCT@@@Z
_TEXT	SEGMENT
tv67 = -108						; size = 4
tv68 = -104						; size = 4
_decmana$1 = -36					; size = 4
_declife$2 = -32					; size = 4
_dis$3 = -28						; size = 4
_number$4 = -24						; size = 4
_n$5 = -20						; size = 4
_retcount$ = -16					; size = 4
_partycount$ = -12					; size = 4
_partynum$ = -8						; size = 4
_lpPartyObj$ = -4					; size = 4
_lpObj$ = 8						; size = 4
?DecPartyMemberHPandMP@@YAHPAVOBJECTSTRUCT@@@Z PROC	; DecPartyMemberHPandMP, COMDAT

; 4322 : {

  00000	55		 push	 ebp
  00001	8b ec		 mov	 ebp, esp
  00003	83 ec 6c	 sub	 esp, 108		; 0000006cH
  00006	53		 push	 ebx
  00007	56		 push	 esi
  00008	57		 push	 edi

; 4323 : 	LPOBJECTSTRUCT lpPartyObj;
; 4324 : 
; 4325 : 	int partynum = lpObj->PartyNumber;

  00009	8b 45 08	 mov	 eax, DWORD PTR _lpObj$[ebp]
  0000c	8b 88 88 02 00
	00		 mov	 ecx, DWORD PTR [eax+648]
  00012	89 4d f8	 mov	 DWORD PTR _partynum$[ebp], ecx

; 4326 : 	
; 4327 : 	if( !CHECK_LIMIT(partynum, MAX_PARTY) )

  00015	83 7d f8 00	 cmp	 DWORD PTR _partynum$[ebp], 0
  00019	7d 09		 jge	 SHORT $LN12@DecPartyMe
  0001b	c7 45 98 00 00
	00 00		 mov	 DWORD PTR tv68[ebp], 0
  00022	eb 1f		 jmp	 SHORT $LN13@DecPartyMe
$LN12@DecPartyMe:
  00024	81 7d f8 e7 1c
	00 00		 cmp	 DWORD PTR _partynum$[ebp], 7399 ; 00001ce7H
  0002b	7e 09		 jle	 SHORT $LN10@DecPartyMe
  0002d	c7 45 94 00 00
	00 00		 mov	 DWORD PTR tv67[ebp], 0
  00034	eb 07		 jmp	 SHORT $LN11@DecPartyMe
$LN10@DecPartyMe:
  00036	c7 45 94 01 00
	00 00		 mov	 DWORD PTR tv67[ebp], 1
$LN11@DecPartyMe:
  0003d	8b 45 94	 mov	 eax, DWORD PTR tv67[ebp]
  00040	89 45 98	 mov	 DWORD PTR tv68[ebp], eax
$LN13@DecPartyMe:
  00043	83 7d 98 00	 cmp	 DWORD PTR tv68[ebp], 0
  00047	75 23		 jne	 SHORT $LN5@DecPartyMe

; 4328 : 	{
; 4329 : 		LogAdd("error : DecPartyMemberHPandMP %s %d",__FILE__, __LINE__);

  00049	a1 00 00 00 00	 mov	 eax, DWORD PTR ?__LINE__Var@?0??DecPartyMemberHPandMP@@YAHPAVOBJECTSTRUCT@@@Z@4JA
  0004e	83 c0 07	 add	 eax, 7
  00051	50		 push	 eax
  00052	68 00 00 00 00	 push	 OFFSET ??_C@_0DO@FDNKFNLM@C?3?2Mu?5Online?2Mu?9GS?9Webzen?9MC?910@
  00057	68 00 00 00 00	 push	 OFFSET ??_C@_0CE@CEJHKGA@error?5?3?5DecPartyMemberHPandMP?5?$CF@
  0005c	ff 15 00 00 00
	00		 call	 DWORD PTR ?LogAdd@@3P6AXPADZZA ; LogAdd
  00062	83 c4 0c	 add	 esp, 12			; 0000000cH

; 4330 : 		return 0;

  00065	33 c0		 xor	 eax, eax
  00067	e9 a2 01 00 00	 jmp	 $LN1@DecPartyMe
$LN5@DecPartyMe:

; 4331 : 	}
; 4332 : 
; 4333 : 	int partycount = gParty.m_PartyS[partynum].Count;

  0006c	6b 45 f8 30	 imul	 eax, DWORD PTR _partynum$[ebp], 48
  00070	8b 88 08 00 00
	00		 mov	 ecx, DWORD PTR ?gParty@@3VPartyClass@@A[eax+8]
  00076	89 4d f4	 mov	 DWORD PTR _partycount$[ebp], ecx

; 4334 : 	int retcount = 0;

  00079	c7 45 f0 00 00
	00 00		 mov	 DWORD PTR _retcount$[ebp], 0

; 4335 : 	for( int n=0; n<MAX_PARTYUSER; n++)

  00080	c7 45 ec 00 00
	00 00		 mov	 DWORD PTR _n$5[ebp], 0
  00087	eb 09		 jmp	 SHORT $LN4@DecPartyMe
$LN2@DecPartyMe:
  00089	8b 45 ec	 mov	 eax, DWORD PTR _n$5[ebp]
  0008c	83 c0 01	 add	 eax, 1
  0008f	89 45 ec	 mov	 DWORD PTR _n$5[ebp], eax
$LN4@DecPartyMe:
  00092	83 7d ec 05	 cmp	 DWORD PTR _n$5[ebp], 5
  00096	0f 8d 6f 01 00
	00		 jge	 $LN3@DecPartyMe

; 4336 : 	{
; 4337 : 		int number = gParty.m_PartyS[partynum].Number[n];

  0009c	6b 45 f8 30	 imul	 eax, DWORD PTR _partynum$[ebp], 48
  000a0	8b 4d ec	 mov	 ecx, DWORD PTR _n$5[ebp]
  000a3	8b 94 88 0c 00
	00 00		 mov	 edx, DWORD PTR ?gParty@@3VPartyClass@@A[eax+ecx*4+12]
  000aa	89 55 e8	 mov	 DWORD PTR _number$4[ebp], edx

; 4338 : 		if( number >= 0 )

  000ad	83 7d e8 00	 cmp	 DWORD PTR _number$4[ebp], 0
  000b1	0f 8c 4f 01 00
	00		 jl	 $LN8@DecPartyMe

; 4339 : 		{
; 4340 : 			lpPartyObj = (LPOBJECTSTRUCT)&gObj[number];

  000b7	69 45 e8 a0 1b
	00 00		 imul	 eax, DWORD PTR _number$4[ebp], 7072
  000be	03 05 00 00 00
	00		 add	 eax, DWORD PTR ?gObj@@3PAVOBJECTSTRUCT@@A ; gObj
  000c4	89 45 fc	 mov	 DWORD PTR _lpPartyObj$[ebp], eax

; 4341 : 			
; 4342 : 			// 같은 맵에 존재하거나..
; 4343 : 			if( lpObj->MapNumber == lpPartyObj->MapNumber && 

  000c7	8b 45 08	 mov	 eax, DWORD PTR _lpObj$[ebp]
  000ca	0f b6 88 09 01
	00 00		 movzx	 ecx, BYTE PTR [eax+265]
  000d1	8b 55 fc	 mov	 edx, DWORD PTR _lpPartyObj$[ebp]
  000d4	0f b6 82 09 01
	00 00		 movzx	 eax, BYTE PTR [edx+265]
  000db	3b c8		 cmp	 ecx, eax
  000dd	0f 85 23 01 00
	00		 jne	 $LN8@DecPartyMe
  000e3	8b 45 08	 mov	 eax, DWORD PTR _lpObj$[ebp]
  000e6	8b 08		 mov	 ecx, DWORD PTR [eax]
  000e8	3b 4d e8	 cmp	 ecx, DWORD PTR _number$4[ebp]
  000eb	0f 84 15 01 00
	00		 je	 $LN8@DecPartyMe

; 4344 : 				lpObj->m_Index != number ) 
; 4345 : 			{
; 4346 : 				int dis = gObjCalDistance(lpObj, &gObj[number]);

  000f1	69 45 e8 a0 1b
	00 00		 imul	 eax, DWORD PTR _number$4[ebp], 7072
  000f8	03 05 00 00 00
	00		 add	 eax, DWORD PTR ?gObj@@3PAVOBJECTSTRUCT@@A ; gObj
  000fe	50		 push	 eax
  000ff	8b 4d 08	 mov	 ecx, DWORD PTR _lpObj$[ebp]
  00102	51		 push	 ecx
  00103	e8 00 00 00 00	 call	 ?gObjCalDistance@@YAHPAVOBJECTSTRUCT@@0@Z ; gObjCalDistance
  00108	83 c4 08	 add	 esp, 8
  0010b	89 45 e4	 mov	 DWORD PTR _dis$3[ebp], eax

; 4347 : 				if( dis < 10 )

  0010e	83 7d e4 0a	 cmp	 DWORD PTR _dis$3[ebp], 10 ; 0000000aH
  00112	0f 8d ee 00 00
	00		 jge	 $LN8@DecPartyMe

; 4348 : 				{
; 4349 : 					lpPartyObj = (LPOBJECTSTRUCT)&gObj[number];

  00118	69 45 e8 a0 1b
	00 00		 imul	 eax, DWORD PTR _number$4[ebp], 7072
  0011f	03 05 00 00 00
	00		 add	 eax, DWORD PTR ?gObj@@3PAVOBJECTSTRUCT@@A ; gObj
  00125	89 45 fc	 mov	 DWORD PTR _lpPartyObj$[ebp], eax

; 4350 : 
; 4351 : 					int declife = lpPartyObj->Life*20/100;

  00128	8b 45 fc	 mov	 eax, DWORD PTR _lpPartyObj$[ebp]
  0012b	f3 0f 10 80 bc
	00 00 00	 movss	 xmm0, DWORD PTR [eax+188]
  00133	f3 0f 59 05 00
	00 00 00	 mulss	 xmm0, DWORD PTR __real@41a00000
  0013b	f3 0f 5e 05 00
	00 00 00	 divss	 xmm0, DWORD PTR __real@42c80000
  00143	f3 0f 2c c8	 cvttss2si ecx, xmm0
  00147	89 4d e0	 mov	 DWORD PTR _declife$2[ebp], ecx

; 4352 : 					int decmana = lpPartyObj->Mana*5/100;

  0014a	8b 45 fc	 mov	 eax, DWORD PTR _lpPartyObj$[ebp]
  0014d	f3 0f 10 80 d0
	00 00 00	 movss	 xmm0, DWORD PTR [eax+208]
  00155	f3 0f 59 05 00
	00 00 00	 mulss	 xmm0, DWORD PTR __real@40a00000
  0015d	f3 0f 5e 05 00
	00 00 00	 divss	 xmm0, DWORD PTR __real@42c80000
  00165	f3 0f 2c c8	 cvttss2si ecx, xmm0
  00169	89 4d dc	 mov	 DWORD PTR _decmana$1[ebp], ecx

; 4353 : 
; 4354 : 					lpPartyObj->Life -= declife;

  0016c	f3 0f 2a 45 e0	 cvtsi2ss xmm0, DWORD PTR _declife$2[ebp]
  00171	8b 45 fc	 mov	 eax, DWORD PTR _lpPartyObj$[ebp]
  00174	f3 0f 10 88 bc
	00 00 00	 movss	 xmm1, DWORD PTR [eax+188]
  0017c	f3 0f 5c c8	 subss	 xmm1, xmm0
  00180	8b 4d fc	 mov	 ecx, DWORD PTR _lpPartyObj$[ebp]
  00183	f3 0f 11 89 bc
	00 00 00	 movss	 DWORD PTR [ecx+188], xmm1

; 4355 : 					lpPartyObj->Mana -= decmana;

  0018b	f3 0f 2a 45 dc	 cvtsi2ss xmm0, DWORD PTR _decmana$1[ebp]
  00190	8b 45 fc	 mov	 eax, DWORD PTR _lpPartyObj$[ebp]
  00193	f3 0f 10 88 d0
	00 00 00	 movss	 xmm1, DWORD PTR [eax+208]
  0019b	f3 0f 5c c8	 subss	 xmm1, xmm0
  0019f	8b 4d fc	 mov	 ecx, DWORD PTR _lpPartyObj$[ebp]
  001a2	f3 0f 11 89 d0
	00 00 00	 movss	 DWORD PTR [ecx+208], xmm1

; 4356 : 
; 4357 : #ifdef ADD_SHIELD_POINT_01_20060403
; 4358 : 					GCReFillSend(lpPartyObj->m_Index, (WORD)lpPartyObj->Life, 0xFF, 0, (WORD)lpPartyObj->iShield);
; 4359 : #else
; 4360 : 					GCReFillSend(lpPartyObj->m_Index, (WORD)lpPartyObj->Life, 0xFF, 0);

  001aa	6a 00		 push	 0
  001ac	68 ff 00 00 00	 push	 255			; 000000ffH
  001b1	8b 45 fc	 mov	 eax, DWORD PTR _lpPartyObj$[ebp]
  001b4	f3 0f 2c 88 bc
	00 00 00	 cvttss2si ecx, DWORD PTR [eax+188]
  001bc	0f b7 d1	 movzx	 edx, cx
  001bf	52		 push	 edx
  001c0	8b 45 fc	 mov	 eax, DWORD PTR _lpPartyObj$[ebp]
  001c3	8b 08		 mov	 ecx, DWORD PTR [eax]
  001c5	51		 push	 ecx
  001c6	e8 00 00 00 00	 call	 ?GCReFillSend@@YAXHGEE@Z ; GCReFillSend
  001cb	83 c4 10	 add	 esp, 16			; 00000010H

; 4361 : #endif
; 4362 : 					GCManaSend(lpPartyObj->m_Index, (short)lpPartyObj->Mana, 0xFF, 0, lpPartyObj->BP);

  001ce	8b 45 fc	 mov	 eax, DWORD PTR _lpPartyObj$[ebp]
  001d1	0f b7 88 e8 00
	00 00		 movzx	 ecx, WORD PTR [eax+232]
  001d8	51		 push	 ecx
  001d9	6a 00		 push	 0
  001db	68 ff 00 00 00	 push	 255			; 000000ffH
  001e0	8b 55 fc	 mov	 edx, DWORD PTR _lpPartyObj$[ebp]
  001e3	f3 0f 2c 82 d0
	00 00 00	 cvttss2si eax, DWORD PTR [edx+208]
  001eb	0f b7 c8	 movzx	 ecx, ax
  001ee	51		 push	 ecx
  001ef	8b 55 fc	 mov	 edx, DWORD PTR _lpPartyObj$[ebp]
  001f2	8b 02		 mov	 eax, DWORD PTR [edx]
  001f4	50		 push	 eax
  001f5	e8 00 00 00 00	 call	 ?GCManaSend@@YAXHFEEG@Z	; GCManaSend
  001fa	83 c4 14	 add	 esp, 20			; 00000014H

; 4363 : 					retcount++;

  001fd	8b 45 f0	 mov	 eax, DWORD PTR _retcount$[ebp]
  00200	83 c0 01	 add	 eax, 1
  00203	89 45 f0	 mov	 DWORD PTR _retcount$[ebp], eax
$LN8@DecPartyMe:

; 4364 : 				}
; 4365 : 			}
; 4366 : 		}
; 4367 : 	}

  00206	e9 7e fe ff ff	 jmp	 $LN2@DecPartyMe
$LN3@DecPartyMe:

; 4368 : 	return retcount;

  0020b	8b 45 f0	 mov	 eax, DWORD PTR _retcount$[ebp]
$LN1@DecPartyMe:

; 4369 : }

  0020e	5f		 pop	 edi
  0020f	5e		 pop	 esi
  00210	5b		 pop	 ebx
  00211	8b e5		 mov	 esp, ebp
  00213	5d		 pop	 ebp
  00214	c3		 ret	 0
?DecPartyMemberHPandMP@@YAHPAVOBJECTSTRUCT@@@Z ENDP	; DecPartyMemberHPandMP
_TEXT	ENDS
; Function compile flags: /Odtp /ZI
; File C:\Mu Online\Mu-GS-Webzen-MC-10093\GameServer\ChaosCastle.h
;	COMDAT ??__Eg_iChaosCastle_MonsterItems@@YAXXZ
text$di	SEGMENT
??__Eg_iChaosCastle_MonsterItems@@YAXXZ PROC		; `dynamic initializer for 'g_iChaosCastle_MonsterItems'', COMDAT

; 359  : };

  00000	55		 push	 ebp
  00001	8b ec		 mov	 ebp, esp
  00003	83 ec 40	 sub	 esp, 64			; 00000040H
  00006	53		 push	 ebx
  00007	56		 push	 esi
  00008	57		 push	 edi

; 337  : 	MAKE_ITEMNUM(14, 13),		1,								// 1번 캐슬 - 축석

  00009	6a 0d		 push	 13			; 0000000dH
  0000b	6a 0e		 push	 14			; 0000000eH
  0000d	e8 00 00 00 00	 call	 ?MakeItemNumber@@YAHHH@Z ; MakeItemNumber
  00012	83 c4 08	 add	 esp, 8
  00015	a3 00 00 00 00	 mov	 DWORD PTR ?g_iChaosCastle_MonsterItems@@3PAY111HA, eax
  0001a	c7 05 04 00 00
	00 01 00 00 00	 mov	 DWORD PTR ?g_iChaosCastle_MonsterItems@@3PAY111HA+4, 1

; 338  : 	MAKE_ITEMNUM(14, 14),		2,								// 1번 캐슬 - 영석

  00024	6a 0e		 push	 14			; 0000000eH
  00026	6a 0e		 push	 14			; 0000000eH
  00028	e8 00 00 00 00	 call	 ?MakeItemNumber@@YAHHH@Z ; MakeItemNumber
  0002d	83 c4 08	 add	 esp, 8
  00030	a3 08 00 00 00	 mov	 DWORD PTR ?g_iChaosCastle_MonsterItems@@3PAY111HA+8, eax
  00035	c7 05 0c 00 00
	00 02 00 00 00	 mov	 DWORD PTR ?g_iChaosCastle_MonsterItems@@3PAY111HA+12, 2

; 339  : 	
; 340  : 	MAKE_ITEMNUM(14, 13),		1,								// 2번 캐슬 - 축석

  0003f	6a 0d		 push	 13			; 0000000dH
  00041	6a 0e		 push	 14			; 0000000eH
  00043	e8 00 00 00 00	 call	 ?MakeItemNumber@@YAHHH@Z ; MakeItemNumber
  00048	83 c4 08	 add	 esp, 8
  0004b	a3 10 00 00 00	 mov	 DWORD PTR ?g_iChaosCastle_MonsterItems@@3PAY111HA+16, eax
  00050	c7 05 14 00 00
	00 01 00 00 00	 mov	 DWORD PTR ?g_iChaosCastle_MonsterItems@@3PAY111HA+20, 1

; 341  : 	MAKE_ITEMNUM(14, 14),		3,								// 2번 캐슬 - 영석

  0005a	6a 0e		 push	 14			; 0000000eH
  0005c	6a 0e		 push	 14			; 0000000eH
  0005e	e8 00 00 00 00	 call	 ?MakeItemNumber@@YAHHH@Z ; MakeItemNumber
  00063	83 c4 08	 add	 esp, 8
  00066	a3 18 00 00 00	 mov	 DWORD PTR ?g_iChaosCastle_MonsterItems@@3PAY111HA+24, eax
  0006b	c7 05 1c 00 00
	00 03 00 00 00	 mov	 DWORD PTR ?g_iChaosCastle_MonsterItems@@3PAY111HA+28, 3

; 342  : 	
; 343  : 	MAKE_ITEMNUM(14, 13),		1,								// 3번 캐슬 - 축석

  00075	6a 0d		 push	 13			; 0000000dH
  00077	6a 0e		 push	 14			; 0000000eH
  00079	e8 00 00 00 00	 call	 ?MakeItemNumber@@YAHHH@Z ; MakeItemNumber
  0007e	83 c4 08	 add	 esp, 8
  00081	a3 20 00 00 00	 mov	 DWORD PTR ?g_iChaosCastle_MonsterItems@@3PAY111HA+32, eax
  00086	c7 05 24 00 00
	00 01 00 00 00	 mov	 DWORD PTR ?g_iChaosCastle_MonsterItems@@3PAY111HA+36, 1

; 344  : 	MAKE_ITEMNUM(14, 14),		3,								// 3번 캐슬 - 영석

  00090	6a 0e		 push	 14			; 0000000eH
  00092	6a 0e		 push	 14			; 0000000eH
  00094	e8 00 00 00 00	 call	 ?MakeItemNumber@@YAHHH@Z ; MakeItemNumber
  00099	83 c4 08	 add	 esp, 8
  0009c	a3 28 00 00 00	 mov	 DWORD PTR ?g_iChaosCastle_MonsterItems@@3PAY111HA+40, eax
  000a1	c7 05 2c 00 00
	00 03 00 00 00	 mov	 DWORD PTR ?g_iChaosCastle_MonsterItems@@3PAY111HA+44, 3

; 345  : 	
; 346  : 	MAKE_ITEMNUM(14, 13),		2,								// 4번 캐슬 - 축석

  000ab	6a 0d		 push	 13			; 0000000dH
  000ad	6a 0e		 push	 14			; 0000000eH
  000af	e8 00 00 00 00	 call	 ?MakeItemNumber@@YAHHH@Z ; MakeItemNumber
  000b4	83 c4 08	 add	 esp, 8
  000b7	a3 30 00 00 00	 mov	 DWORD PTR ?g_iChaosCastle_MonsterItems@@3PAY111HA+48, eax
  000bc	c7 05 34 00 00
	00 02 00 00 00	 mov	 DWORD PTR ?g_iChaosCastle_MonsterItems@@3PAY111HA+52, 2

; 347  : 	MAKE_ITEMNUM(14, 14),		2,								// 4번 캐슬 - 영석

  000c6	6a 0e		 push	 14			; 0000000eH
  000c8	6a 0e		 push	 14			; 0000000eH
  000ca	e8 00 00 00 00	 call	 ?MakeItemNumber@@YAHHH@Z ; MakeItemNumber
  000cf	83 c4 08	 add	 esp, 8
  000d2	a3 38 00 00 00	 mov	 DWORD PTR ?g_iChaosCastle_MonsterItems@@3PAY111HA+56, eax
  000d7	c7 05 3c 00 00
	00 02 00 00 00	 mov	 DWORD PTR ?g_iChaosCastle_MonsterItems@@3PAY111HA+60, 2

; 348  : 	
; 349  : 	MAKE_ITEMNUM(14, 13),		2,								// 5번 캐슬 - 축석

  000e1	6a 0d		 push	 13			; 0000000dH
  000e3	6a 0e		 push	 14			; 0000000eH
  000e5	e8 00 00 00 00	 call	 ?MakeItemNumber@@YAHHH@Z ; MakeItemNumber
  000ea	83 c4 08	 add	 esp, 8
  000ed	a3 40 00 00 00	 mov	 DWORD PTR ?g_iChaosCastle_MonsterItems@@3PAY111HA+64, eax
  000f2	c7 05 44 00 00
	00 02 00 00 00	 mov	 DWORD PTR ?g_iChaosCastle_MonsterItems@@3PAY111HA+68, 2

; 350  : 	MAKE_ITEMNUM(14, 14),		3,								// 5번 캐슬 - 영석

  000fc	6a 0e		 push	 14			; 0000000eH
  000fe	6a 0e		 push	 14			; 0000000eH
  00100	e8 00 00 00 00	 call	 ?MakeItemNumber@@YAHHH@Z ; MakeItemNumber
  00105	83 c4 08	 add	 esp, 8
  00108	a3 48 00 00 00	 mov	 DWORD PTR ?g_iChaosCastle_MonsterItems@@3PAY111HA+72, eax
  0010d	c7 05 4c 00 00
	00 03 00 00 00	 mov	 DWORD PTR ?g_iChaosCastle_MonsterItems@@3PAY111HA+76, 3

; 351  : 	
; 352  : 	MAKE_ITEMNUM(14, 13),		2,								// 6번 캐슬 - 축석

  00117	6a 0d		 push	 13			; 0000000dH
  00119	6a 0e		 push	 14			; 0000000eH
  0011b	e8 00 00 00 00	 call	 ?MakeItemNumber@@YAHHH@Z ; MakeItemNumber
  00120	83 c4 08	 add	 esp, 8
  00123	a3 50 00 00 00	 mov	 DWORD PTR ?g_iChaosCastle_MonsterItems@@3PAY111HA+80, eax
  00128	c7 05 54 00 00
	00 02 00 00 00	 mov	 DWORD PTR ?g_iChaosCastle_MonsterItems@@3PAY111HA+84, 2

; 353  : 	MAKE_ITEMNUM(14, 14),		3,								// 6번 캐슬 - 영석

  00132	6a 0e		 push	 14			; 0000000eH
  00134	6a 0e		 push	 14			; 0000000eH
  00136	e8 00 00 00 00	 call	 ?MakeItemNumber@@YAHHH@Z ; MakeItemNumber
  0013b	83 c4 08	 add	 esp, 8
  0013e	a3 58 00 00 00	 mov	 DWORD PTR ?g_iChaosCastle_MonsterItems@@3PAY111HA+88, eax
  00143	c7 05 5c 00 00
	00 03 00 00 00	 mov	 DWORD PTR ?g_iChaosCastle_MonsterItems@@3PAY111HA+92, 3
  0014d	5f		 pop	 edi
  0014e	5e		 pop	 esi
  0014f	5b		 pop	 ebx
  00150	8b e5		 mov	 esp, ebp
  00152	5d		 pop	 ebp
  00153	c3		 ret	 0
??__Eg_iChaosCastle_MonsterItems@@YAXXZ ENDP		; `dynamic initializer for 'g_iChaosCastle_MonsterItems''
text$di	ENDS
; Function compile flags: /Odtp /ZI
;	COMDAT ??_GCObjUseSkill@@UAEPAXI@Z
_TEXT	SEGMENT
_this$ = -4						; size = 4
___flags$ = 8						; size = 4
??_GCObjUseSkill@@UAEPAXI@Z PROC			; CObjUseSkill::`scalar deleting destructor', COMDAT
; _this$ = ecx
  00000	55		 push	 ebp
  00001	8b ec		 mov	 ebp, esp
  00003	83 ec 44	 sub	 esp, 68			; 00000044H
  00006	53		 push	 ebx
  00007	56		 push	 esi
  00008	57		 push	 edi
  00009	89 4d fc	 mov	 DWORD PTR _this$[ebp], ecx
  0000c	8b 4d fc	 mov	 ecx, DWORD PTR _this$[ebp]
  0000f	e8 00 00 00 00	 call	 ??1CObjUseSkill@@UAE@XZ	; CObjUseSkill::~CObjUseSkill
  00014	8b 45 08	 mov	 eax, DWORD PTR ___flags$[ebp]
  00017	83 e0 01	 and	 eax, 1
  0001a	74 0e		 je	 SHORT $LN2@scalar
  0001c	6a 04		 push	 4
  0001e	8b 45 fc	 mov	 eax, DWORD PTR _this$[ebp]
  00021	50		 push	 eax
  00022	e8 00 00 00 00	 call	 ??3@YAXPAXI@Z		; operator delete
  00027	83 c4 08	 add	 esp, 8
$LN2@scalar:
  0002a	8b 45 fc	 mov	 eax, DWORD PTR _this$[ebp]
  0002d	5f		 pop	 edi
  0002e	5e		 pop	 esi
  0002f	5b		 pop	 ebx
  00030	8b e5		 mov	 esp, ebp
  00032	5d		 pop	 ebp
  00033	c2 04 00	 ret	 4
??_GCObjUseSkill@@UAEPAXI@Z ENDP			; CObjUseSkill::`scalar deleting destructor'
_TEXT	ENDS
; Function compile flags: /Odtp /ZI
; File C:\Mu Online\Mu-GS-Webzen-MC-10093\GameServer\ObjUseSkill.cpp
;	COMDAT ?SkillImmuneToHarm@CObjUseSkill@@QAEHHPAVCMagicInf@@@Z
_TEXT	SEGMENT
tv66 = -80						; size = 4
tv67 = -76						; size = 4
_lpObj$ = -8						; size = 4
_this$ = -4						; size = 4
_aIndex$ = 8						; size = 4
_lpMagic$ = 12						; size = 4
?SkillImmuneToHarm@CObjUseSkill@@QAEHHPAVCMagicInf@@@Z PROC ; CObjUseSkill::SkillImmuneToHarm, COMDAT
; _this$ = ecx

; 4512 : {

  00000	55		 push	 ebp
  00001	8b ec		 mov	 ebp, esp
  00003	83 ec 50	 sub	 esp, 80			; 00000050H
  00006	53		 push	 ebx
  00007	56		 push	 esi
  00008	57		 push	 edi
  00009	89 4d fc	 mov	 DWORD PTR _this$[ebp], ecx

; 4513 : 	if (!CHECK_LIMIT(aIndex, MAX_OBJECT))

  0000c	83 7d 08 00	 cmp	 DWORD PTR _aIndex$[ebp], 0
  00010	7d 09		 jge	 SHORT $LN8@SkillImmun
  00012	c7 45 b4 00 00
	00 00		 mov	 DWORD PTR tv67[ebp], 0
  00019	eb 1f		 jmp	 SHORT $LN9@SkillImmun
$LN8@SkillImmun:
  0001b	81 7d 08 e7 1c
	00 00		 cmp	 DWORD PTR _aIndex$[ebp], 7399 ; 00001ce7H
  00022	7e 09		 jle	 SHORT $LN6@SkillImmun
  00024	c7 45 b0 00 00
	00 00		 mov	 DWORD PTR tv66[ebp], 0
  0002b	eb 07		 jmp	 SHORT $LN7@SkillImmun
$LN6@SkillImmun:
  0002d	c7 45 b0 01 00
	00 00		 mov	 DWORD PTR tv66[ebp], 1
$LN7@SkillImmun:
  00034	8b 45 b0	 mov	 eax, DWORD PTR tv66[ebp]
  00037	89 45 b4	 mov	 DWORD PTR tv67[ebp], eax
$LN9@SkillImmun:
  0003a	83 7d b4 00	 cmp	 DWORD PTR tv67[ebp], 0
  0003e	75 07		 jne	 SHORT $LN2@SkillImmun

; 4514 : 		return FALSE;

  00040	33 c0		 xor	 eax, eax
  00042	e9 81 00 00 00	 jmp	 $LN1@SkillImmun
$LN2@SkillImmun:

; 4515 : 	
; 4516 : 	LPOBJECTSTRUCT lpObj		= &gObj[aIndex];

  00047	69 45 08 a0 1b
	00 00		 imul	 eax, DWORD PTR _aIndex$[ebp], 7072
  0004e	03 05 00 00 00
	00		 add	 eax, DWORD PTR ?gObj@@3PAVOBJECTSTRUCT@@A ; gObj
  00054	89 45 f8	 mov	 DWORD PTR _lpObj$[ebp], eax

; 4517 : 
; 4518 : #ifdef MODIFY_OLD_BUFF_EFFECT_SYSTEM_20071004
; 4519 : 	if( gObjCheckUsedBuffEffect( lpObj, BUFFTYPE_MONSTER_MAGIC_IMMUNE ) == false 
; 4520 : 		&& gObjCheckUsedBuffEffect( lpObj, BUFFTYPE_MONSTER_MELEE_IMMUNE ) == false 
; 4521 : 	  )
; 4522 : 	{
; 4523 : 		gObjAddBuffEffect( lpObj, BUFFTYPE_MONSTER_MELEE_IMMUNE, 0, 0, 0, 0, 10 );
; 4524 : 		return TRUE;
; 4525 : 	}
; 4526 : 
; 4527 : 	return FALSE;
; 4528 : #else
; 4529 : 	if (lpObj->m_ImmuneToMagicCount <= 0 && lpObj->m_ImmuneToHarmCount <= 0) {

  00057	8b 45 f8	 mov	 eax, DWORD PTR _lpObj$[ebp]
  0005a	0f be 88 23 02
	00 00		 movsx	 ecx, BYTE PTR [eax+547]
  00061	85 c9		 test	 ecx, ecx
  00063	7f 61		 jg	 SHORT $LN3@SkillImmun
  00065	8b 45 f8	 mov	 eax, DWORD PTR _lpObj$[ebp]
  00068	0f be 88 24 02
	00 00		 movsx	 ecx, BYTE PTR [eax+548]
  0006f	85 c9		 test	 ecx, ecx
  00071	7f 53		 jg	 SHORT $LN3@SkillImmun

; 4530 : 		lpObj->m_ImmuneToHarmCount	= 10;	// 물리공격 무적 시간

  00073	8b 45 f8	 mov	 eax, DWORD PTR _lpObj$[ebp]
  00076	c6 80 24 02 00
	00 0a		 mov	 BYTE PTR [eax+548], 10	; 0000000aH

; 4531 : 		lpObj->m_ViewSkillState		|= STATE_IMMUNE_TO_HARM;

  0007d	8b 45 f8	 mov	 eax, DWORD PTR _lpObj$[ebp]
  00080	0f b7 88 c0 01
	00 00		 movzx	 ecx, WORD PTR [eax+448]
  00087	83 c9 08	 or	 ecx, 8
  0008a	8b 55 f8	 mov	 edx, DWORD PTR _lpObj$[ebp]
  0008d	66 89 8a c0 01
	00 00		 mov	 WORD PTR [edx+448], cx

; 4532 : 
; 4533 : 		GCStateInfoSend(lpObj, 1, STATE_IMMUNE_TO_HARM);

  00094	6a 08		 push	 8
  00096	6a 01		 push	 1
  00098	8b 45 f8	 mov	 eax, DWORD PTR _lpObj$[ebp]
  0009b	50		 push	 eax
  0009c	e8 00 00 00 00	 call	 ?GCStateInfoSend@@YAXPAVOBJECTSTRUCT@@EG@Z ; GCStateInfoSend
  000a1	83 c4 0c	 add	 esp, 12			; 0000000cH

; 4534 : 		GCMagicAttackNumberSend(lpObj, AT_SKILL_IMMUNE_TO_HARM, lpObj->m_Index, true);

  000a4	6a 01		 push	 1
  000a6	8b 45 f8	 mov	 eax, DWORD PTR _lpObj$[ebp]
  000a9	8b 08		 mov	 ecx, DWORD PTR [eax]
  000ab	51		 push	 ecx
  000ac	68 ca 00 00 00	 push	 202			; 000000caH
  000b1	8b 55 f8	 mov	 edx, DWORD PTR _lpObj$[ebp]
  000b4	52		 push	 edx
  000b5	e8 00 00 00 00	 call	 ?GCMagicAttackNumberSend@@YAXPAVOBJECTSTRUCT@@EHE@Z ; GCMagicAttackNumberSend
  000ba	83 c4 10	 add	 esp, 16			; 00000010H

; 4535 : 		return TRUE;

  000bd	b8 01 00 00 00	 mov	 eax, 1
  000c2	eb 04		 jmp	 SHORT $LN1@SkillImmun

; 4536 : 	}

  000c4	eb 02		 jmp	 SHORT $LN1@SkillImmun
$LN3@SkillImmun:

; 4537 : 	else
; 4538 : 		return FALSE;

  000c6	33 c0		 xor	 eax, eax
$LN1@SkillImmun:

; 4539 : #endif // MODIFY_OLD_BUFF_EFFECT_SYSTEM_20071004
; 4540 : }

  000c8	5f		 pop	 edi
  000c9	5e		 pop	 esi
  000ca	5b		 pop	 ebx
  000cb	8b e5		 mov	 esp, ebp
  000cd	5d		 pop	 ebp
  000ce	c2 08 00	 ret	 8
?SkillImmuneToHarm@CObjUseSkill@@QAEHHPAVCMagicInf@@@Z ENDP ; CObjUseSkill::SkillImmuneToHarm
_TEXT	ENDS
; Function compile flags: /Odtp /ZI
; File C:\Mu Online\Mu-GS-Webzen-MC-10093\GameServer\ObjUseSkill.cpp
;	COMDAT ?SkillImmuneToMagic@CObjUseSkill@@QAEHHPAVCMagicInf@@@Z
_TEXT	SEGMENT
tv66 = -80						; size = 4
tv67 = -76						; size = 4
_lpObj$ = -8						; size = 4
_this$ = -4						; size = 4
_aIndex$ = 8						; size = 4
_lpMagic$ = 12						; size = 4
?SkillImmuneToMagic@CObjUseSkill@@QAEHHPAVCMagicInf@@@Z PROC ; CObjUseSkill::SkillImmuneToMagic, COMDAT
; _this$ = ecx

; 4479 : {

  00000	55		 push	 ebp
  00001	8b ec		 mov	 ebp, esp
  00003	83 ec 50	 sub	 esp, 80			; 00000050H
  00006	53		 push	 ebx
  00007	56		 push	 esi
  00008	57		 push	 edi
  00009	89 4d fc	 mov	 DWORD PTR _this$[ebp], ecx

; 4480 : 	if (!CHECK_LIMIT(aIndex, MAX_OBJECT))

  0000c	83 7d 08 00	 cmp	 DWORD PTR _aIndex$[ebp], 0
  00010	7d 09		 jge	 SHORT $LN8@SkillImmun
  00012	c7 45 b4 00 00
	00 00		 mov	 DWORD PTR tv67[ebp], 0
  00019	eb 1f		 jmp	 SHORT $LN9@SkillImmun
$LN8@SkillImmun:
  0001b	81 7d 08 e7 1c
	00 00		 cmp	 DWORD PTR _aIndex$[ebp], 7399 ; 00001ce7H
  00022	7e 09		 jle	 SHORT $LN6@SkillImmun
  00024	c7 45 b0 00 00
	00 00		 mov	 DWORD PTR tv66[ebp], 0
  0002b	eb 07		 jmp	 SHORT $LN7@SkillImmun
$LN6@SkillImmun:
  0002d	c7 45 b0 01 00
	00 00		 mov	 DWORD PTR tv66[ebp], 1
$LN7@SkillImmun:
  00034	8b 45 b0	 mov	 eax, DWORD PTR tv66[ebp]
  00037	89 45 b4	 mov	 DWORD PTR tv67[ebp], eax
$LN9@SkillImmun:
  0003a	83 7d b4 00	 cmp	 DWORD PTR tv67[ebp], 0
  0003e	75 07		 jne	 SHORT $LN2@SkillImmun

; 4481 : 		return FALSE;

  00040	33 c0		 xor	 eax, eax
  00042	e9 87 00 00 00	 jmp	 $LN1@SkillImmun
$LN2@SkillImmun:

; 4482 : 	
; 4483 : 	LPOBJECTSTRUCT lpObj		= &gObj[aIndex];

  00047	69 45 08 a0 1b
	00 00		 imul	 eax, DWORD PTR _aIndex$[ebp], 7072
  0004e	03 05 00 00 00
	00		 add	 eax, DWORD PTR ?gObj@@3PAVOBJECTSTRUCT@@A ; gObj
  00054	89 45 f8	 mov	 DWORD PTR _lpObj$[ebp], eax

; 4484 : 
; 4485 : #ifdef MODIFY_OLD_BUFF_EFFECT_SYSTEM_20071004
; 4486 : 	if( gObjCheckUsedBuffEffect( lpObj, BUFFTYPE_MONSTER_MAGIC_IMMUNE ) == false 
; 4487 : 		&& gObjCheckUsedBuffEffect( lpObj, BUFFTYPE_MONSTER_MELEE_IMMUNE ) == false 
; 4488 : 	  )
; 4489 : 	{
; 4490 : 		gObjAddBuffEffect( lpObj, BUFFTYPE_MONSTER_MAGIC_IMMUNE, 0, 0, 0, 0, 10 );
; 4491 : 		return TRUE;
; 4492 : 	}
; 4493 : 
; 4494 : 	return FALSE;
; 4495 : #else
; 4496 : 	if (lpObj->m_ImmuneToMagicCount <= 0 && lpObj->m_ImmuneToHarmCount <= 0) {

  00057	8b 45 f8	 mov	 eax, DWORD PTR _lpObj$[ebp]
  0005a	0f be 88 23 02
	00 00		 movsx	 ecx, BYTE PTR [eax+547]
  00061	85 c9		 test	 ecx, ecx
  00063	7f 67		 jg	 SHORT $LN3@SkillImmun
  00065	8b 45 f8	 mov	 eax, DWORD PTR _lpObj$[ebp]
  00068	0f be 88 24 02
	00 00		 movsx	 ecx, BYTE PTR [eax+548]
  0006f	85 c9		 test	 ecx, ecx
  00071	7f 59		 jg	 SHORT $LN3@SkillImmun

; 4497 : 		lpObj->m_ImmuneToMagicCount	= 10;	// 마법공격 무적 시간

  00073	8b 45 f8	 mov	 eax, DWORD PTR _lpObj$[ebp]
  00076	c6 80 23 02 00
	00 0a		 mov	 BYTE PTR [eax+547], 10	; 0000000aH

; 4498 : 		lpObj->m_ViewSkillState		|= STATE_IMMUNE_TO_MAGIC;

  0007d	8b 45 f8	 mov	 eax, DWORD PTR _lpObj$[ebp]
  00080	0f b7 88 c0 01
	00 00		 movzx	 ecx, WORD PTR [eax+448]
  00087	81 c9 80 00 00
	00		 or	 ecx, 128		; 00000080H
  0008d	8b 55 f8	 mov	 edx, DWORD PTR _lpObj$[ebp]
  00090	66 89 8a c0 01
	00 00		 mov	 WORD PTR [edx+448], cx

; 4499 : 
; 4500 : 		GCStateInfoSend(lpObj, 1, STATE_IMMUNE_TO_MAGIC);

  00097	68 80 00 00 00	 push	 128			; 00000080H
  0009c	6a 01		 push	 1
  0009e	8b 45 f8	 mov	 eax, DWORD PTR _lpObj$[ebp]
  000a1	50		 push	 eax
  000a2	e8 00 00 00 00	 call	 ?GCStateInfoSend@@YAXPAVOBJECTSTRUCT@@EG@Z ; GCStateInfoSend
  000a7	83 c4 0c	 add	 esp, 12			; 0000000cH

; 4501 : 		GCMagicAttackNumberSend(lpObj, AT_SKILL_IMMUNE_TO_MAGIC, lpObj->m_Index, true);

  000aa	6a 01		 push	 1
  000ac	8b 45 f8	 mov	 eax, DWORD PTR _lpObj$[ebp]
  000af	8b 08		 mov	 ecx, DWORD PTR [eax]
  000b1	51		 push	 ecx
  000b2	68 c9 00 00 00	 push	 201			; 000000c9H
  000b7	8b 55 f8	 mov	 edx, DWORD PTR _lpObj$[ebp]
  000ba	52		 push	 edx
  000bb	e8 00 00 00 00	 call	 ?GCMagicAttackNumberSend@@YAXPAVOBJECTSTRUCT@@EHE@Z ; GCMagicAttackNumberSend
  000c0	83 c4 10	 add	 esp, 16			; 00000010H

; 4502 : 		return TRUE;

  000c3	b8 01 00 00 00	 mov	 eax, 1
  000c8	eb 04		 jmp	 SHORT $LN1@SkillImmun

; 4503 : 	}

  000ca	eb 02		 jmp	 SHORT $LN1@SkillImmun
$LN3@SkillImmun:

; 4504 : 	else
; 4505 : 		return FALSE;

  000cc	33 c0		 xor	 eax, eax
$LN1@SkillImmun:

; 4506 : #endif // MODIFY_OLD_BUFF_EFFECT_SYSTEM_20071004
; 4507 : }

  000ce	5f		 pop	 edi
  000cf	5e		 pop	 esi
  000d0	5b		 pop	 ebx
  000d1	8b e5		 mov	 esp, ebp
  000d3	5d		 pop	 ebp
  000d4	c2 08 00	 ret	 8
?SkillImmuneToMagic@CObjUseSkill@@QAEHHPAVCMagicInf@@@Z ENDP ; CObjUseSkill::SkillImmuneToMagic
_TEXT	ENDS
; Function compile flags: /Odtp /ZI
; File C:\Mu Online\Mu-GS-Webzen-MC-10093\GameServer\ObjUseSkill.cpp
;	COMDAT ?SkillSummon@CObjUseSkill@@QAEHHHPAVCMagicInf@@@Z
_TEXT	SEGMENT
tv66 = -104						; size = 4
tv73 = -100						; size = 4
tv67 = -100						; size = 4
tv147 = -97						; size = 1
tv140 = -97						; size = 1
tv133 = -97						; size = 1
tv94 = -97						; size = 1
tv87 = -97						; size = 1
tv80 = -97						; size = 1
_result$1 = -32						; size = 4
_cSY$2 = -26						; size = 1
_cSX$3 = -25						; size = 1
_iSC$4 = -24						; size = 4
_lpObj$ = -20						; size = 4
_cSummonY$ = -16					; size = 1
_cSummonX$ = -15					; size = 1
_bSummonSuccess$ = -14					; size = 1
_bDoSummon$ = -13					; size = 1
_iSummonMonterType$ = -12				; size = 4
_iSummonCount$ = -8					; size = 4
_this$ = -4						; size = 4
_aIndex$ = 8						; size = 4
_aTargetIndex$ = 12					; size = 4
_lpMagic$ = 16						; size = 4
?SkillSummon@CObjUseSkill@@QAEHHHPAVCMagicInf@@@Z PROC	; CObjUseSkill::SkillSummon, COMDAT
; _this$ = ecx

; 4380 : {

  00000	55		 push	 ebp
  00001	8b ec		 mov	 ebp, esp
  00003	83 ec 68	 sub	 esp, 104		; 00000068H
  00006	53		 push	 ebx
  00007	56		 push	 esi
  00008	57		 push	 edi
  00009	89 4d fc	 mov	 DWORD PTR _this$[ebp], ecx

; 4381 : 	if (!CHECK_LIMIT(aIndex, MAX_OBJECT))

  0000c	83 7d 08 00	 cmp	 DWORD PTR _aIndex$[ebp], 0
  00010	7d 09		 jge	 SHORT $LN20@SkillSummo
  00012	c7 45 9c 00 00
	00 00		 mov	 DWORD PTR tv67[ebp], 0
  00019	eb 1f		 jmp	 SHORT $LN21@SkillSummo
$LN20@SkillSummo:
  0001b	81 7d 08 e7 1c
	00 00		 cmp	 DWORD PTR _aIndex$[ebp], 7399 ; 00001ce7H
  00022	7e 09		 jle	 SHORT $LN18@SkillSummo
  00024	c7 45 98 00 00
	00 00		 mov	 DWORD PTR tv66[ebp], 0
  0002b	eb 07		 jmp	 SHORT $LN19@SkillSummo
$LN18@SkillSummo:
  0002d	c7 45 98 01 00
	00 00		 mov	 DWORD PTR tv66[ebp], 1
$LN19@SkillSummo:
  00034	8b 45 98	 mov	 eax, DWORD PTR tv66[ebp]
  00037	89 45 9c	 mov	 DWORD PTR tv67[ebp], eax
$LN21@SkillSummo:
  0003a	83 7d 9c 00	 cmp	 DWORD PTR tv67[ebp], 0
  0003e	75 07		 jne	 SHORT $LN7@SkillSummo

; 4382 : 		return FALSE;

  00040	33 c0		 xor	 eax, eax
  00042	e9 b3 04 00 00	 jmp	 $LN1@SkillSummo
$LN7@SkillSummo:

; 4383 : 
; 4384 : 	int iSummonCount		= 1;		// 기본 소환이 1마리

  00047	c7 45 f8 01 00
	00 00		 mov	 DWORD PTR _iSummonCount$[ebp], 1

; 4385 : 	int iSummonMonterType	= 0;		// 소환 몬스터 종류

  0004e	c7 45 f4 00 00
	00 00		 mov	 DWORD PTR _iSummonMonterType$[ebp], 0

; 4386 : 	bool bDoSummon			= true;		// 소환을 할지 여부

  00055	c6 45 f3 01	 mov	 BYTE PTR _bDoSummon$[ebp], 1

; 4387 : 	bool bSummonSuccess		= false;	// 소환에 성공했는지 여부

  00059	c6 45 f2 00	 mov	 BYTE PTR _bSummonSuccess$[ebp], 0

; 4388 : 	BYTE cSummonX			= 0;

  0005d	c6 45 f1 00	 mov	 BYTE PTR _cSummonX$[ebp], 0

; 4389 : 	BYTE cSummonY			= 0;

  00061	c6 45 f0 00	 mov	 BYTE PTR _cSummonY$[ebp], 0

; 4390 : 
; 4391 : 	LPOBJECTSTRUCT lpObj	= &gObj[aIndex];

  00065	69 45 08 a0 1b
	00 00		 imul	 eax, DWORD PTR _aIndex$[ebp], 7072
  0006c	03 05 00 00 00
	00		 add	 eax, DWORD PTR ?gObj@@3PAVOBJECTSTRUCT@@A ; gObj
  00072	89 45 ec	 mov	 DWORD PTR _lpObj$[ebp], eax

; 4392 : 
; 4393 : 	switch(lpObj->Class) {

  00075	8b 45 ec	 mov	 eax, DWORD PTR _lpObj$[ebp]
  00078	0f b7 88 9c 00
	00 00		 movzx	 ecx, WORD PTR [eax+156]
  0007f	89 4d 9c	 mov	 DWORD PTR tv73[ebp], ecx
  00082	8b 55 9c	 mov	 edx, DWORD PTR tv73[ebp]
  00085	81 ea a1 00 00
	00		 sub	 edx, 161		; 000000a1H
  0008b	89 55 9c	 mov	 DWORD PTR tv73[ebp], edx
  0008e	83 7d 9c 72	 cmp	 DWORD PTR tv73[ebp], 114 ; 00000072H
  00092	0f 87 80 01 00
	00		 ja	 $LN2@SkillSummo
  00098	8b 45 9c	 mov	 eax, DWORD PTR tv73[ebp]
  0009b	0f b6 88 00 00
	00 00		 movzx	 ecx, BYTE PTR $LN34@SkillSummo[eax]
  000a2	ff 24 8d 00 00
	00 00		 jmp	 DWORD PTR $LN35@SkillSummo[ecx*4]
$LN8@SkillSummo:

; 4394 : 	case 161 :		// 쿤둔의 환영1
; 4395 : 		{
; 4396 : 			iSummonMonterType	= 147 + rand()%2;

  000a9	e8 00 00 00 00	 call	 _rand
  000ae	25 01 00 00 80	 and	 eax, -2147483647	; 80000001H
  000b3	79 05		 jns	 SHORT $LN36@SkillSummo
  000b5	48		 dec	 eax
  000b6	83 c8 fe	 or	 eax, -2			; fffffffeH
  000b9	40		 inc	 eax
$LN36@SkillSummo:
  000ba	05 93 00 00 00	 add	 eax, 147		; 00000093H
  000bf	89 45 f4	 mov	 DWORD PTR _iSummonMonterType$[ebp], eax

; 4397 : 			bDoSummon			= (rand()%15 == 0) ? true : false;

  000c2	e8 00 00 00 00	 call	 _rand
  000c7	99		 cdq
  000c8	b9 0f 00 00 00	 mov	 ecx, 15			; 0000000fH
  000cd	f7 f9		 idiv	 ecx
  000cf	85 d2		 test	 edx, edx
  000d1	75 06		 jne	 SHORT $LN22@SkillSummo
  000d3	c6 45 9f 01	 mov	 BYTE PTR tv80[ebp], 1
  000d7	eb 04		 jmp	 SHORT $LN23@SkillSummo
$LN22@SkillSummo:
  000d9	c6 45 9f 00	 mov	 BYTE PTR tv80[ebp], 0
$LN23@SkillSummo:
  000dd	8a 55 9f	 mov	 dl, BYTE PTR tv80[ebp]
  000e0	88 55 f3	 mov	 BYTE PTR _bDoSummon$[ebp], dl

; 4398 : 		}
; 4399 : 		break;

  000e3	e9 30 01 00 00	 jmp	 $LN2@SkillSummo
$LN9@SkillSummo:

; 4400 : 	case 181 : 		// 쿤둔의 환영2
; 4401 : 		{
; 4402 : 			iSummonMonterType	= 177 + rand()%2;

  000e8	e8 00 00 00 00	 call	 _rand
  000ed	25 01 00 00 80	 and	 eax, -2147483647	; 80000001H
  000f2	79 05		 jns	 SHORT $LN37@SkillSummo
  000f4	48		 dec	 eax
  000f5	83 c8 fe	 or	 eax, -2			; fffffffeH
  000f8	40		 inc	 eax
$LN37@SkillSummo:
  000f9	05 b1 00 00 00	 add	 eax, 177		; 000000b1H
  000fe	89 45 f4	 mov	 DWORD PTR _iSummonMonterType$[ebp], eax

; 4403 : 			bDoSummon			= (rand()%15 == 0) ? true : false;

  00101	e8 00 00 00 00	 call	 _rand
  00106	99		 cdq
  00107	b9 0f 00 00 00	 mov	 ecx, 15			; 0000000fH
  0010c	f7 f9		 idiv	 ecx
  0010e	85 d2		 test	 edx, edx
  00110	75 06		 jne	 SHORT $LN24@SkillSummo
  00112	c6 45 9f 01	 mov	 BYTE PTR tv87[ebp], 1
  00116	eb 04		 jmp	 SHORT $LN25@SkillSummo
$LN24@SkillSummo:
  00118	c6 45 9f 00	 mov	 BYTE PTR tv87[ebp], 0
$LN25@SkillSummo:
  0011c	8a 55 9f	 mov	 dl, BYTE PTR tv87[ebp]
  0011f	88 55 f3	 mov	 BYTE PTR _bDoSummon$[ebp], dl

; 4404 : 		}
; 4405 : 		break;

  00122	e9 f1 00 00 00	 jmp	 $LN2@SkillSummo
$LN10@SkillSummo:

; 4406 : 	case 189 : 		// 쿤둔의 환영3
; 4407 : 		{
; 4408 : 			iSummonMonterType	= 185 + rand()%2;

  00127	e8 00 00 00 00	 call	 _rand
  0012c	25 01 00 00 80	 and	 eax, -2147483647	; 80000001H
  00131	79 05		 jns	 SHORT $LN38@SkillSummo
  00133	48		 dec	 eax
  00134	83 c8 fe	 or	 eax, -2			; fffffffeH
  00137	40		 inc	 eax
$LN38@SkillSummo:
  00138	05 b9 00 00 00	 add	 eax, 185		; 000000b9H
  0013d	89 45 f4	 mov	 DWORD PTR _iSummonMonterType$[ebp], eax

; 4409 : 			bDoSummon			= (rand()%15 == 0) ? true : false;

  00140	e8 00 00 00 00	 call	 _rand
  00145	99		 cdq
  00146	b9 0f 00 00 00	 mov	 ecx, 15			; 0000000fH
  0014b	f7 f9		 idiv	 ecx
  0014d	85 d2		 test	 edx, edx
  0014f	75 06		 jne	 SHORT $LN26@SkillSummo
  00151	c6 45 9f 01	 mov	 BYTE PTR tv94[ebp], 1
  00155	eb 04		 jmp	 SHORT $LN27@SkillSummo
$LN26@SkillSummo:
  00157	c6 45 9f 00	 mov	 BYTE PTR tv94[ebp], 0
$LN27@SkillSummo:
  0015b	8a 55 9f	 mov	 dl, BYTE PTR tv94[ebp]
  0015e	88 55 f3	 mov	 BYTE PTR _bDoSummon$[ebp], dl

; 4410 : 		}
; 4411 : 		break;

  00161	e9 b2 00 00 00	 jmp	 $LN2@SkillSummo
$LN11@SkillSummo:

; 4412 : 	case 197 : 		// 쿤둔의 환영4
; 4413 : 		{
; 4414 : 			iSummonMonterType	= 193 + rand()%2;

  00166	e8 00 00 00 00	 call	 _rand
  0016b	25 01 00 00 80	 and	 eax, -2147483647	; 80000001H
  00170	79 05		 jns	 SHORT $LN39@SkillSummo
  00172	48		 dec	 eax
  00173	83 c8 fe	 or	 eax, -2			; fffffffeH
  00176	40		 inc	 eax
$LN39@SkillSummo:
  00177	05 c1 00 00 00	 add	 eax, 193		; 000000c1H
  0017c	89 45 f4	 mov	 DWORD PTR _iSummonMonterType$[ebp], eax

; 4415 : 			bDoSummon			= (rand()%15 == 0) ? true : false;

  0017f	e8 00 00 00 00	 call	 _rand
  00184	99		 cdq
  00185	b9 0f 00 00 00	 mov	 ecx, 15			; 0000000fH
  0018a	f7 f9		 idiv	 ecx
  0018c	85 d2		 test	 edx, edx
  0018e	75 06		 jne	 SHORT $LN28@SkillSummo
  00190	c6 45 9f 01	 mov	 BYTE PTR tv133[ebp], 1
  00194	eb 04		 jmp	 SHORT $LN29@SkillSummo
$LN28@SkillSummo:
  00196	c6 45 9f 00	 mov	 BYTE PTR tv133[ebp], 0
$LN29@SkillSummo:
  0019a	8a 55 9f	 mov	 dl, BYTE PTR tv133[ebp]
  0019d	88 55 f3	 mov	 BYTE PTR _bDoSummon$[ebp], dl

; 4416 : 		}
; 4417 : 		break;

  001a0	eb 76		 jmp	 SHORT $LN2@SkillSummo
$LN12@SkillSummo:

; 4418 : 	case 267 : 		// 쿤둔의 환영5
; 4419 : 		{
; 4420 : 			iSummonMonterType	= 263 + rand()%2;

  001a2	e8 00 00 00 00	 call	 _rand
  001a7	25 01 00 00 80	 and	 eax, -2147483647	; 80000001H
  001ac	79 05		 jns	 SHORT $LN40@SkillSummo
  001ae	48		 dec	 eax
  001af	83 c8 fe	 or	 eax, -2			; fffffffeH
  001b2	40		 inc	 eax
$LN40@SkillSummo:
  001b3	05 07 01 00 00	 add	 eax, 263		; 00000107H
  001b8	89 45 f4	 mov	 DWORD PTR _iSummonMonterType$[ebp], eax

; 4421 : 			bDoSummon			= (rand()%15 == 0) ? true : false;

  001bb	e8 00 00 00 00	 call	 _rand
  001c0	99		 cdq
  001c1	b9 0f 00 00 00	 mov	 ecx, 15			; 0000000fH
  001c6	f7 f9		 idiv	 ecx
  001c8	85 d2		 test	 edx, edx
  001ca	75 06		 jne	 SHORT $LN30@SkillSummo
  001cc	c6 45 9f 01	 mov	 BYTE PTR tv140[ebp], 1
  001d0	eb 04		 jmp	 SHORT $LN31@SkillSummo
$LN30@SkillSummo:
  001d2	c6 45 9f 00	 mov	 BYTE PTR tv140[ebp], 0
$LN31@SkillSummo:
  001d6	8a 55 9f	 mov	 dl, BYTE PTR tv140[ebp]
  001d9	88 55 f3	 mov	 BYTE PTR _bDoSummon$[ebp], dl

; 4422 : 		}
; 4423 : 		break;

  001dc	eb 3a		 jmp	 SHORT $LN2@SkillSummo
$LN13@SkillSummo:

; 4424 : 	case 275 :		// 쿤둔의 환영6
; 4425 : 		{
; 4426 : 			iSummonMonterType	= 271 + rand()%2;

  001de	e8 00 00 00 00	 call	 _rand
  001e3	25 01 00 00 80	 and	 eax, -2147483647	; 80000001H
  001e8	79 05		 jns	 SHORT $LN41@SkillSummo
  001ea	48		 dec	 eax
  001eb	83 c8 fe	 or	 eax, -2			; fffffffeH
  001ee	40		 inc	 eax
$LN41@SkillSummo:
  001ef	05 0f 01 00 00	 add	 eax, 271		; 0000010fH
  001f4	89 45 f4	 mov	 DWORD PTR _iSummonMonterType$[ebp], eax

; 4427 : 			bDoSummon			= (rand()%15 == 0) ? true : false;

  001f7	e8 00 00 00 00	 call	 _rand
  001fc	99		 cdq
  001fd	b9 0f 00 00 00	 mov	 ecx, 15			; 0000000fH
  00202	f7 f9		 idiv	 ecx
  00204	85 d2		 test	 edx, edx
  00206	75 06		 jne	 SHORT $LN32@SkillSummo
  00208	c6 45 9f 01	 mov	 BYTE PTR tv147[ebp], 1
  0020c	eb 04		 jmp	 SHORT $LN33@SkillSummo
$LN32@SkillSummo:
  0020e	c6 45 9f 00	 mov	 BYTE PTR tv147[ebp], 0
$LN33@SkillSummo:
  00212	8a 55 9f	 mov	 dl, BYTE PTR tv147[ebp]
  00215	88 55 f3	 mov	 BYTE PTR _bDoSummon$[ebp], dl
$LN2@SkillSummo:

; 4428 : 		}
; 4429 : 		break;
; 4430 : 	}
; 4431 : 
; 4432 : 	if (bDoSummon == false)

  00218	0f b6 45 f3	 movzx	 eax, BYTE PTR _bDoSummon$[ebp]
  0021c	85 c0		 test	 eax, eax
  0021e	75 07		 jne	 SHORT $LN14@SkillSummo

; 4433 : 		return FALSE;

  00220	33 c0		 xor	 eax, eax
  00222	e9 d3 02 00 00	 jmp	 $LN1@SkillSummo
$LN14@SkillSummo:

; 4434 : 
; 4435 : 	for (int iSC = 0 ; iSC < iSummonCount ; iSC++) {

  00227	c7 45 e8 00 00
	00 00		 mov	 DWORD PTR _iSC$4[ebp], 0
  0022e	eb 09		 jmp	 SHORT $LN6@SkillSummo
$LN4@SkillSummo:
  00230	8b 45 e8	 mov	 eax, DWORD PTR _iSC$4[ebp]
  00233	83 c0 01	 add	 eax, 1
  00236	89 45 e8	 mov	 DWORD PTR _iSC$4[ebp], eax
$LN6@SkillSummo:
  00239	8b 45 e8	 mov	 eax, DWORD PTR _iSC$4[ebp]
  0023c	3b 45 f8	 cmp	 eax, DWORD PTR _iSummonCount$[ebp]
  0023f	0f 8d 79 02 00
	00		 jge	 $LN5@SkillSummo

; 4436 : 		UCHAR cSX		= lpObj->X;

  00245	8b 45 ec	 mov	 eax, DWORD PTR _lpObj$[ebp]
  00248	8a 88 04 01 00
	00		 mov	 cl, BYTE PTR [eax+260]
  0024e	88 4d e7	 mov	 BYTE PTR _cSX$3[ebp], cl

; 4437 : 		UCHAR cSY		= lpObj->Y;

  00251	8b 45 ec	 mov	 eax, DWORD PTR _lpObj$[ebp]
  00254	8a 88 06 01 00
	00		 mov	 cl, BYTE PTR [eax+262]
  0025a	88 4d e6	 mov	 BYTE PTR _cSY$2[ebp], cl

; 4438 : 
; 4439 : 		if (gObjGetRandomFreeLocation(lpObj->MapNumber, cSX, cSY, 2, 2, 30) == TRUE) {

  0025d	6a 1e		 push	 30			; 0000001eH
  0025f	6a 02		 push	 2
  00261	6a 02		 push	 2
  00263	8d 45 e6	 lea	 eax, DWORD PTR _cSY$2[ebp]
  00266	50		 push	 eax
  00267	8d 4d e7	 lea	 ecx, DWORD PTR _cSX$3[ebp]
  0026a	51		 push	 ecx
  0026b	8b 55 ec	 mov	 edx, DWORD PTR _lpObj$[ebp]
  0026e	0f b6 82 09 01
	00 00		 movzx	 eax, BYTE PTR [edx+265]
  00275	50		 push	 eax
  00276	e8 00 00 00 00	 call	 ?gObjGetRandomFreeLocation@@YAHHAAE0HHH@Z ; gObjGetRandomFreeLocation
  0027b	83 c4 18	 add	 esp, 24			; 00000018H
  0027e	83 f8 01	 cmp	 eax, 1
  00281	0f 85 32 02 00
	00		 jne	 $LN15@SkillSummo

; 4440 : #ifdef MAP_SERVER_ADD_MONSTER_20041216		// 맵서버 관련 몬스터, NPC 추가 (서버가 가지고 있는 맵만 추가가 가능하다.)
; 4441 : 			int result = gObjAddMonster(lpObj->MapNumber);

  00287	8b 45 ec	 mov	 eax, DWORD PTR _lpObj$[ebp]
  0028a	0f b6 88 09 01
	00 00		 movzx	 ecx, BYTE PTR [eax+265]
  00291	51		 push	 ecx
  00292	e8 00 00 00 00	 call	 ?gObjAddMonster@@YAFH@Z	; gObjAddMonster
  00297	83 c4 04	 add	 esp, 4
  0029a	0f bf d0	 movsx	 edx, ax
  0029d	89 55 e0	 mov	 DWORD PTR _result$1[ebp], edx

; 4442 : #else
; 4443 : 			int result = gObjAdd();
; 4444 : #endif
; 4445 : 			if( result >= 0 )

  002a0	83 7d e0 00	 cmp	 DWORD PTR _result$1[ebp], 0
  002a4	0f 8c 0f 02 00
	00		 jl	 $LN15@SkillSummo

; 4446 : 			{
; 4447 : 				gObj[result].m_PosNum		= -1;

  002aa	69 45 e0 a0 1b
	00 00		 imul	 eax, DWORD PTR _result$1[ebp], 7072
  002b1	83 c9 ff	 or	 ecx, -1
  002b4	8b 15 00 00 00
	00		 mov	 edx, DWORD PTR ?gObj@@3PAVOBJECTSTRUCT@@A ; gObj
  002ba	66 89 8c 02 0c
	02 00 00	 mov	 WORD PTR [edx+eax+524], cx

; 4448 : 				gObj[result].X				= cSX;

  002c2	66 0f b6 45 e7	 movzx	 ax, BYTE PTR _cSX$3[ebp]
  002c7	69 4d e0 a0 1b
	00 00		 imul	 ecx, DWORD PTR _result$1[ebp], 7072
  002ce	8b 15 00 00 00
	00		 mov	 edx, DWORD PTR ?gObj@@3PAVOBJECTSTRUCT@@A ; gObj
  002d4	66 89 84 0a 04
	01 00 00	 mov	 WORD PTR [edx+ecx+260], ax

; 4449 : 				gObj[result].Y				= cSY;

  002dc	66 0f b6 45 e6	 movzx	 ax, BYTE PTR _cSY$2[ebp]
  002e1	69 4d e0 a0 1b
	00 00		 imul	 ecx, DWORD PTR _result$1[ebp], 7072
  002e8	8b 15 00 00 00
	00		 mov	 edx, DWORD PTR ?gObj@@3PAVOBJECTSTRUCT@@A ; gObj
  002ee	66 89 84 0a 06
	01 00 00	 mov	 WORD PTR [edx+ecx+262], ax

; 4450 : 				gObj[result].MapNumber		= lpObj->MapNumber;

  002f6	69 45 e0 a0 1b
	00 00		 imul	 eax, DWORD PTR _result$1[ebp], 7072
  002fd	8b 0d 00 00 00
	00		 mov	 ecx, DWORD PTR ?gObj@@3PAVOBJECTSTRUCT@@A ; gObj
  00303	8b 55 ec	 mov	 edx, DWORD PTR _lpObj$[ebp]
  00306	8a 92 09 01 00
	00		 mov	 dl, BYTE PTR [edx+265]
  0030c	88 94 01 09 01
	00 00		 mov	 BYTE PTR [ecx+eax+265], dl

; 4451 : 				gObj[result].TX				= gObj[result].X;

  00313	69 45 e0 a0 1b
	00 00		 imul	 eax, DWORD PTR _result$1[ebp], 7072
  0031a	69 4d e0 a0 1b
	00 00		 imul	 ecx, DWORD PTR _result$1[ebp], 7072
  00321	8b 15 00 00 00
	00		 mov	 edx, DWORD PTR ?gObj@@3PAVOBJECTSTRUCT@@A ; gObj
  00327	8b 35 00 00 00
	00		 mov	 esi, DWORD PTR ?gObj@@3PAVOBJECTSTRUCT@@A ; gObj
  0032d	66 8b 84 06 04
	01 00 00	 mov	 ax, WORD PTR [esi+eax+260]
  00335	66 89 84 0a 20
	01 00 00	 mov	 WORD PTR [edx+ecx+288], ax

; 4452 : 				gObj[result].TY				= gObj[result].Y;

  0033d	69 45 e0 a0 1b
	00 00		 imul	 eax, DWORD PTR _result$1[ebp], 7072
  00344	69 4d e0 a0 1b
	00 00		 imul	 ecx, DWORD PTR _result$1[ebp], 7072
  0034b	8b 15 00 00 00
	00		 mov	 edx, DWORD PTR ?gObj@@3PAVOBJECTSTRUCT@@A ; gObj
  00351	8b 35 00 00 00
	00		 mov	 esi, DWORD PTR ?gObj@@3PAVOBJECTSTRUCT@@A ; gObj
  00357	66 8b 84 06 06
	01 00 00	 mov	 ax, WORD PTR [esi+eax+262]
  0035f	66 89 84 0a 22
	01 00 00	 mov	 WORD PTR [edx+ecx+290], ax

; 4453 : 				gObj[result].m_OldX			= gObj[result].X;

  00367	69 45 e0 a0 1b
	00 00		 imul	 eax, DWORD PTR _result$1[ebp], 7072
  0036e	69 4d e0 a0 1b
	00 00		 imul	 ecx, DWORD PTR _result$1[ebp], 7072
  00375	8b 15 00 00 00
	00		 mov	 edx, DWORD PTR ?gObj@@3PAVOBJECTSTRUCT@@A ; gObj
  0037b	8b 35 00 00 00
	00		 mov	 esi, DWORD PTR ?gObj@@3PAVOBJECTSTRUCT@@A ; gObj
  00381	66 8b 84 06 04
	01 00 00	 mov	 ax, WORD PTR [esi+eax+260]
  00389	66 89 84 0a 1c
	01 00 00	 mov	 WORD PTR [edx+ecx+284], ax

; 4454 : 				gObj[result].m_OldY			= gObj[result].Y;

  00391	69 45 e0 a0 1b
	00 00		 imul	 eax, DWORD PTR _result$1[ebp], 7072
  00398	69 4d e0 a0 1b
	00 00		 imul	 ecx, DWORD PTR _result$1[ebp], 7072
  0039f	8b 15 00 00 00
	00		 mov	 edx, DWORD PTR ?gObj@@3PAVOBJECTSTRUCT@@A ; gObj
  003a5	8b 35 00 00 00
	00		 mov	 esi, DWORD PTR ?gObj@@3PAVOBJECTSTRUCT@@A ; gObj
  003ab	66 8b 84 06 06
	01 00 00	 mov	 ax, WORD PTR [esi+eax+262]
  003b3	66 89 84 0a 1e
	01 00 00	 mov	 WORD PTR [edx+ecx+286], ax

; 4455 : 				gObj[result].Dir			= 1;

  003bb	69 45 e0 a0 1b
	00 00		 imul	 eax, DWORD PTR _result$1[ebp], 7072
  003c2	8b 0d 00 00 00
	00		 mov	 ecx, DWORD PTR ?gObj@@3PAVOBJECTSTRUCT@@A ; gObj
  003c8	c6 84 01 08 01
	00 00 01	 mov	 BYTE PTR [ecx+eax+264], 1

; 4456 : 				gObj[result].StartX			= (BYTE)gObj[result].X;

  003d0	69 45 e0 a0 1b
	00 00		 imul	 eax, DWORD PTR _result$1[ebp], 7072
  003d7	69 4d e0 a0 1b
	00 00		 imul	 ecx, DWORD PTR _result$1[ebp], 7072
  003de	8b 15 00 00 00
	00		 mov	 edx, DWORD PTR ?gObj@@3PAVOBJECTSTRUCT@@A ; gObj
  003e4	8b 35 00 00 00
	00		 mov	 esi, DWORD PTR ?gObj@@3PAVOBJECTSTRUCT@@A ; gObj
  003ea	8a 84 06 04 01
	00 00		 mov	 al, BYTE PTR [esi+eax+260]
  003f1	88 84 0a 1a 01
	00 00		 mov	 BYTE PTR [edx+ecx+282], al

; 4457 : 				gObj[result].StartY			= (BYTE)gObj[result].Y;

  003f8	69 45 e0 a0 1b
	00 00		 imul	 eax, DWORD PTR _result$1[ebp], 7072
  003ff	69 4d e0 a0 1b
	00 00		 imul	 ecx, DWORD PTR _result$1[ebp], 7072
  00406	8b 15 00 00 00
	00		 mov	 edx, DWORD PTR ?gObj@@3PAVOBJECTSTRUCT@@A ; gObj
  0040c	8b 35 00 00 00
	00		 mov	 esi, DWORD PTR ?gObj@@3PAVOBJECTSTRUCT@@A ; gObj
  00412	8a 84 06 06 01
	00 00		 mov	 al, BYTE PTR [esi+eax+262]
  00419	88 84 0a 1b 01
	00 00		 mov	 BYTE PTR [edx+ecx+283], al

; 4458 : 				gObjSetMonster(result, iSummonMonterType);

  00420	8b 45 f4	 mov	 eax, DWORD PTR _iSummonMonterType$[ebp]
  00423	50		 push	 eax
  00424	8b 4d e0	 mov	 ecx, DWORD PTR _result$1[ebp]
  00427	51		 push	 ecx
  00428	e8 00 00 00 00	 call	 ?gObjSetMonster@@YAHHH@Z ; gObjSetMonster
  0042d	83 c4 08	 add	 esp, 8

; 4459 : 
; 4460 : 				gObj[result].m_Attribute	= MON_ATTR_SUMMONED;

  00430	69 45 e0 a0 1b
	00 00		 imul	 eax, DWORD PTR _result$1[ebp], 7072
  00437	b9 3c 00 00 00	 mov	 ecx, 60			; 0000003cH
  0043c	8b 15 00 00 00
	00		 mov	 edx, DWORD PTR ?gObj@@3PAVOBJECTSTRUCT@@A ; gObj
  00442	66 89 8c 02 fe
	02 00 00	 mov	 WORD PTR [edx+eax+766], cx

; 4461 : 				gObj[result].MaxRegenTime	= 0;

  0044a	69 45 e0 a0 1b
	00 00		 imul	 eax, DWORD PTR _result$1[ebp], 7072
  00451	8b 0d 00 00 00
	00		 mov	 ecx, DWORD PTR ?gObj@@3PAVOBJECTSTRUCT@@A ; gObj
  00457	c7 84 01 08 02
	00 00 00 00 00
	00		 mov	 DWORD PTR [ecx+eax+520], 0

; 4462 : 				gObj[result].Dir			= rand()%8;	// 방향은 랜덤

  00462	e8 00 00 00 00	 call	 _rand
  00467	25 07 00 00 80	 and	 eax, -2147483641	; 80000007H
  0046c	79 05		 jns	 SHORT $LN42@SkillSummo
  0046e	48		 dec	 eax
  0046f	83 c8 f8	 or	 eax, -8			; fffffff8H
  00472	40		 inc	 eax
$LN42@SkillSummo:
  00473	69 4d e0 a0 1b
	00 00		 imul	 ecx, DWORD PTR _result$1[ebp], 7072
  0047a	8b 15 00 00 00
	00		 mov	 edx, DWORD PTR ?gObj@@3PAVOBJECTSTRUCT@@A ; gObj
  00480	88 84 0a 08 01
	00 00		 mov	 BYTE PTR [edx+ecx+264], al

; 4463 : 
; 4464 : 				bSummonSuccess				= true;

  00487	c6 45 f2 01	 mov	 BYTE PTR _bSummonSuccess$[ebp], 1

; 4465 : 
; 4466 : 				cSummonX					= gObj[result].StartX;

  0048b	69 45 e0 a0 1b
	00 00		 imul	 eax, DWORD PTR _result$1[ebp], 7072
  00492	8b 0d 00 00 00
	00		 mov	 ecx, DWORD PTR ?gObj@@3PAVOBJECTSTRUCT@@A ; gObj
  00498	8a 94 01 1a 01
	00 00		 mov	 dl, BYTE PTR [ecx+eax+282]
  0049f	88 55 f1	 mov	 BYTE PTR _cSummonX$[ebp], dl

; 4467 : 				cSummonY					= gObj[result].StartY;

  004a2	69 45 e0 a0 1b
	00 00		 imul	 eax, DWORD PTR _result$1[ebp], 7072
  004a9	8b 0d 00 00 00
	00		 mov	 ecx, DWORD PTR ?gObj@@3PAVOBJECTSTRUCT@@A ; gObj
  004af	8a 94 01 1b 01
	00 00		 mov	 dl, BYTE PTR [ecx+eax+283]
  004b6	88 55 f0	 mov	 BYTE PTR _cSummonY$[ebp], dl
$LN15@SkillSummo:

; 4468 : 			}
; 4469 : 		}
; 4470 : 	}

  004b9	e9 72 fd ff ff	 jmp	 $LN4@SkillSummo
$LN5@SkillSummo:

; 4471 : 	
; 4472 : 	GCMagicAttackNumberSend(lpObj, AT_SKILL_SUMMON, MAKEWORD(cSummonX, cSummonY), bSummonSuccess);

  004be	0f b6 45 f2	 movzx	 eax, BYTE PTR _bSummonSuccess$[ebp]
  004c2	50		 push	 eax
  004c3	0f b6 4d f1	 movzx	 ecx, BYTE PTR _cSummonX$[ebp]
  004c7	81 e1 ff 00 00
	00		 and	 ecx, 255		; 000000ffH
  004cd	0f b6 d1	 movzx	 edx, cl
  004d0	0f b6 45 f0	 movzx	 eax, BYTE PTR _cSummonY$[ebp]
  004d4	25 ff 00 00 00	 and	 eax, 255		; 000000ffH
  004d9	0f b6 c8	 movzx	 ecx, al
  004dc	c1 e1 08	 shl	 ecx, 8
  004df	0b d1		 or	 edx, ecx
  004e1	0f b7 d2	 movzx	 edx, dx
  004e4	52		 push	 edx
  004e5	68 c8 00 00 00	 push	 200			; 000000c8H
  004ea	8b 45 ec	 mov	 eax, DWORD PTR _lpObj$[ebp]
  004ed	50		 push	 eax
  004ee	e8 00 00 00 00	 call	 ?GCMagicAttackNumberSend@@YAXPAVOBJECTSTRUCT@@EHE@Z ; GCMagicAttackNumberSend
  004f3	83 c4 10	 add	 esp, 16			; 00000010H

; 4473 : 	return bSummonSuccess;

  004f6	0f b6 45 f2	 movzx	 eax, BYTE PTR _bSummonSuccess$[ebp]
$LN1@SkillSummo:

; 4474 : }

  004fa	5f		 pop	 edi
  004fb	5e		 pop	 esi
  004fc	5b		 pop	 ebx
  004fd	8b e5		 mov	 esp, ebp
  004ff	5d		 pop	 ebp
  00500	c2 0c 00	 ret	 12			; 0000000cH
  00503	90		 npad	 1
$LN35@SkillSummo:
  00504	00 00 00 00	 DD	 $LN8@SkillSummo
  00508	00 00 00 00	 DD	 $LN9@SkillSummo
  0050c	00 00 00 00	 DD	 $LN10@SkillSummo
  00510	00 00 00 00	 DD	 $LN11@SkillSummo
  00514	00 00 00 00	 DD	 $LN12@SkillSummo
  00518	00 00 00 00	 DD	 $LN13@SkillSummo
  0051c	00 00 00 00	 DD	 $LN2@SkillSummo
$LN34@SkillSummo:
  00520	00		 DB	 0
  00521	06		 DB	 6
  00522	06		 DB	 6
  00523	06		 DB	 6
  00524	06		 DB	 6
  00525	06		 DB	 6
  00526	06		 DB	 6
  00527	06		 DB	 6
  00528	06		 DB	 6
  00529	06		 DB	 6
  0052a	06		 DB	 6
  0052b	06		 DB	 6
  0052c	06		 DB	 6
  0052d	06		 DB	 6
  0052e	06		 DB	 6
  0052f	06		 DB	 6
  00530	06		 DB	 6
  00531	06		 DB	 6
  00532	06		 DB	 6
  00533	06		 DB	 6
  00534	01		 DB	 1
  00535	06		 DB	 6
  00536	06		 DB	 6
  00537	06		 DB	 6
  00538	06		 DB	 6
  00539	06		 DB	 6
  0053a	06		 DB	 6
  0053b	06		 DB	 6
  0053c	02		 DB	 2
  0053d	06		 DB	 6
  0053e	06		 DB	 6
  0053f	06		 DB	 6
  00540	06		 DB	 6
  00541	06		 DB	 6
  00542	06		 DB	 6
  00543	06		 DB	 6
  00544	03		 DB	 3
  00545	06		 DB	 6
  00546	06		 DB	 6
  00547	06		 DB	 6
  00548	06		 DB	 6
  00549	06		 DB	 6
  0054a	06		 DB	 6
  0054b	06		 DB	 6
  0054c	06		 DB	 6
  0054d	06		 DB	 6
  0054e	06		 DB	 6
  0054f	06		 DB	 6
  00550	06		 DB	 6
  00551	06		 DB	 6
  00552	06		 DB	 6
  00553	06		 DB	 6
  00554	06		 DB	 6
  00555	06		 DB	 6
  00556	06		 DB	 6
  00557	06		 DB	 6
  00558	06		 DB	 6
  00559	06		 DB	 6
  0055a	06		 DB	 6
  0055b	06		 DB	 6
  0055c	06		 DB	 6
  0055d	06		 DB	 6
  0055e	06		 DB	 6
  0055f	06		 DB	 6
  00560	06		 DB	 6
  00561	06		 DB	 6
  00562	06		 DB	 6
  00563	06		 DB	 6
  00564	06		 DB	 6
  00565	06		 DB	 6
  00566	06		 DB	 6
  00567	06		 DB	 6
  00568	06		 DB	 6
  00569	06		 DB	 6
  0056a	06		 DB	 6
  0056b	06		 DB	 6
  0056c	06		 DB	 6
  0056d	06		 DB	 6
  0056e	06		 DB	 6
  0056f	06		 DB	 6
  00570	06		 DB	 6
  00571	06		 DB	 6
  00572	06		 DB	 6
  00573	06		 DB	 6
  00574	06		 DB	 6
  00575	06		 DB	 6
  00576	06		 DB	 6
  00577	06		 DB	 6
  00578	06		 DB	 6
  00579	06		 DB	 6
  0057a	06		 DB	 6
  0057b	06		 DB	 6
  0057c	06		 DB	 6
  0057d	06		 DB	 6
  0057e	06		 DB	 6
  0057f	06		 DB	 6
  00580	06		 DB	 6
  00581	06		 DB	 6
  00582	06		 DB	 6
  00583	06		 DB	 6
  00584	06		 DB	 6
  00585	06		 DB	 6
  00586	06		 DB	 6
  00587	06		 DB	 6
  00588	06		 DB	 6
  00589	06		 DB	 6
  0058a	04		 DB	 4
  0058b	06		 DB	 6
  0058c	06		 DB	 6
  0058d	06		 DB	 6
  0058e	06		 DB	 6
  0058f	06		 DB	 6
  00590	06		 DB	 6
  00591	06		 DB	 6
  00592	05		 DB	 5
?SkillSummon@CObjUseSkill@@QAEHHHPAVCMagicInf@@@Z ENDP	; CObjUseSkill::SkillSummon
_TEXT	ENDS
; Function compile flags: /Odtp /ZI
; File C:\Mu Online\Mu-GS-Webzen-MC-10093\GameServer\ObjUseSkill.cpp
;	COMDAT ?SkillElectricSpark@CObjUseSkill@@QAEXHPAVCMagicInf@@EEEEH@Z
_TEXT	SEGMENT
_CallMonIndex$1 = -48					; size = 4
_EnableAttack$ = -44					; size = 4
_Hit$ = -40						; size = 4
_delaytime$ = -36					; size = 4
_iangle$ = -32						; size = 4
_DuelIndex$ = -28					; size = 4
_count$ = -24						; size = 4
_tObjNum$ = -20						; size = 4
_TargePosy$ = -16					; size = 4
_TargePosx$ = -12					; size = 4
_lpObj$ = -8						; size = 4
_this$ = -4						; size = 4
_aIndex$ = 8						; size = 4
_lpMagic$ = 12						; size = 4
_x$ = 16						; size = 1
_y$ = 20						; size = 1
_dir$ = 24						; size = 1
_TargetPos$ = 28					; size = 1
_aTargetIndex$ = 32					; size = 4
?SkillElectricSpark@CObjUseSkill@@QAEXHPAVCMagicInf@@EEEEH@Z PROC ; CObjUseSkill::SkillElectricSpark, COMDAT
; _this$ = ecx

; 4220 : {

  00000	55		 push	 ebp
  00001	8b ec		 mov	 ebp, esp
  00003	83 ec 70	 sub	 esp, 112		; 00000070H
  00006	53		 push	 ebx
  00007	56		 push	 esi
  00008	57		 push	 edi
  00009	89 4d fc	 mov	 DWORD PTR _this$[ebp], ecx

; 4221 : 	LPOBJECTSTRUCT lpObj= &gObj[aIndex];

  0000c	69 45 08 a0 1b
	00 00		 imul	 eax, DWORD PTR _aIndex$[ebp], 7072
  00013	03 05 00 00 00
	00		 add	 eax, DWORD PTR ?gObj@@3PAVOBJECTSTRUCT@@A ; gObj
  00019	89 45 f8	 mov	 DWORD PTR _lpObj$[ebp], eax

; 4222 : 
; 4223 : 	int TargePosx = lpObj->X-(8-(TargetPos&0x0F));

  0001c	8b 45 f8	 mov	 eax, DWORD PTR _lpObj$[ebp]
  0001f	0f bf 88 04 01
	00 00		 movsx	 ecx, WORD PTR [eax+260]
  00026	0f b6 55 1c	 movzx	 edx, BYTE PTR _TargetPos$[ebp]
  0002a	83 e2 0f	 and	 edx, 15			; 0000000fH
  0002d	b8 08 00 00 00	 mov	 eax, 8
  00032	2b c2		 sub	 eax, edx
  00034	2b c8		 sub	 ecx, eax
  00036	89 4d f4	 mov	 DWORD PTR _TargePosx$[ebp], ecx

; 4224 : 	int TargePosy = lpObj->Y-(8-((TargetPos&0xF0)>>4));

  00039	8b 45 f8	 mov	 eax, DWORD PTR _lpObj$[ebp]
  0003c	0f bf 88 06 01
	00 00		 movsx	 ecx, WORD PTR [eax+262]
  00043	0f b6 55 1c	 movzx	 edx, BYTE PTR _TargetPos$[ebp]
  00047	81 e2 f0 00 00
	00		 and	 edx, 240		; 000000f0H
  0004d	c1 fa 04	 sar	 edx, 4
  00050	b8 08 00 00 00	 mov	 eax, 8
  00055	2b c2		 sub	 eax, edx
  00057	2b c8		 sub	 ecx, eax
  00059	89 4d f0	 mov	 DWORD PTR _TargePosy$[ebp], ecx

; 4225 : 
; 4226 : 	int tObjNum;
; 4227 : 	int count = 0;

  0005c	c7 45 e8 00 00
	00 00		 mov	 DWORD PTR _count$[ebp], 0

; 4228 : 
; 4229 : #ifdef DUEL_SYSTEM_20031028
; 4230 : 	int DuelIndex = lpObj->m_iDuelUser;

  00063	8b 45 f8	 mov	 eax, DWORD PTR _lpObj$[ebp]
  00066	8b 88 ec 0c 00
	00		 mov	 ecx, DWORD PTR [eax+3308]
  0006c	89 4d e4	 mov	 DWORD PTR _DuelIndex$[ebp], ecx

; 4231 : #endif
; 4232 : 	
; 4233 : 	int iangle = GetAngle(lpObj->X, lpObj->Y, TargePosx, TargePosy);

  0006f	8b 45 f0	 mov	 eax, DWORD PTR _TargePosy$[ebp]
  00072	50		 push	 eax
  00073	8b 4d f4	 mov	 ecx, DWORD PTR _TargePosx$[ebp]
  00076	51		 push	 ecx
  00077	8b 55 f8	 mov	 edx, DWORD PTR _lpObj$[ebp]
  0007a	0f bf 82 06 01
	00 00		 movsx	 eax, WORD PTR [edx+262]
  00081	50		 push	 eax
  00082	8b 4d f8	 mov	 ecx, DWORD PTR _lpObj$[ebp]
  00085	0f bf 91 04 01
	00 00		 movsx	 edx, WORD PTR [ecx+260]
  0008c	52		 push	 edx
  0008d	8b 4d fc	 mov	 ecx, DWORD PTR _this$[ebp]
  00090	e8 00 00 00 00	 call	 ?GetAngle@CObjUseSkill@@QAEHHHHH@Z ; CObjUseSkill::GetAngle
  00095	89 45 e0	 mov	 DWORD PTR _iangle$[ebp], eax

; 4234 : 
; 4235 : 	int delaytime;
; 4236 : 	BOOL	Hit = FALSE;

  00098	c7 45 d8 00 00
	00 00		 mov	 DWORD PTR _Hit$[ebp], 0
$LN2@SkillElect:

; 4237 : 	BOOL	EnableAttack;
; 4238 : 	while(1)

  0009f	b8 01 00 00 00	 mov	 eax, 1
  000a4	85 c0		 test	 eax, eax
  000a6	0f 84 cf 01 00
	00		 je	 $LN3@SkillElect

; 4239 : 	{
; 4240 : 		if( lpObj->VpPlayer2[count].state )

  000ac	6b 45 e8 0c	 imul	 eax, DWORD PTR _count$[ebp], 12
  000b0	8b 4d f8	 mov	 ecx, DWORD PTR _lpObj$[ebp]
  000b3	0f be 94 01 e8
	06 00 00	 movsx	 edx, BYTE PTR [ecx+eax+1768]
  000bb	85 d2		 test	 edx, edx
  000bd	0f 84 a2 01 00
	00		 je	 $LN4@SkillElect

; 4241 : 		{
; 4242 : //			if( lpObj->VpPlayer2[count].type == OBJTYPE_MONSTER )
; 4243 : 			{
; 4244 : 				tObjNum = lpObj->VpPlayer2[count].number;

  000c3	6b 45 e8 0c	 imul	 eax, DWORD PTR _count$[ebp], 12
  000c7	8b 4d f8	 mov	 ecx, DWORD PTR _lpObj$[ebp]
  000ca	0f bf 94 01 ea
	06 00 00	 movsx	 edx, WORD PTR [ecx+eax+1770]
  000d2	89 55 ec	 mov	 DWORD PTR _tObjNum$[ebp], edx

; 4245 : 				if( tObjNum >= 0 )

  000d5	83 7d ec 00	 cmp	 DWORD PTR _tObjNum$[ebp], 0
  000d9	0f 8c 86 01 00
	00		 jl	 $LN4@SkillElect

; 4246 : 				{	
; 4247 : 					EnableAttack = FALSE;

  000df	c7 45 d4 00 00
	00 00		 mov	 DWORD PTR _EnableAttack$[ebp], 0

; 4248 : 
; 4249 : 					if( ((lpObj->VpPlayer2[count].type == OBJTYPE_MONSTER) && (gObj[tObjNum].m_RecallMon < 0)) )

  000e6	6b 45 e8 0c	 imul	 eax, DWORD PTR _count$[ebp], 12
  000ea	8b 4d f8	 mov	 ecx, DWORD PTR _lpObj$[ebp]
  000ed	0f b6 94 01 ec
	06 00 00	 movzx	 edx, BYTE PTR [ecx+eax+1772]
  000f5	83 fa 02	 cmp	 edx, 2
  000f8	75 23		 jne	 SHORT $LN6@SkillElect
  000fa	69 45 ec a0 1b
	00 00		 imul	 eax, DWORD PTR _tObjNum$[ebp], 7072
  00101	8b 0d 00 00 00
	00		 mov	 ecx, DWORD PTR ?gObj@@3PAVOBJECTSTRUCT@@A ; gObj
  00107	83 bc 01 a4 02
	00 00 00	 cmp	 DWORD PTR [ecx+eax+676], 0
  0010f	7d 0c		 jge	 SHORT $LN6@SkillElect

; 4250 : 					{	// 대상이 몬스터이고, 소환몹이 아니면 공격가능
; 4251 : 						EnableAttack = TRUE;

  00111	c7 45 d4 01 00
	00 00		 mov	 DWORD PTR _EnableAttack$[ebp], 1

; 4252 : 					}	

  00118	e9 a6 00 00 00	 jmp	 $LN7@SkillElect
$LN6@SkillElect:

; 4253 : 					else if( tObjNum == aTargetIndex 
; 4254 : #ifdef DUEL_SYSTEM_20031028
; 4255 : 						 || DuelIndex == tObjNum

  0011d	8b 45 ec	 mov	 eax, DWORD PTR _tObjNum$[ebp]
  00120	3b 45 20	 cmp	 eax, DWORD PTR _aTargetIndex$[ebp]
  00123	74 08		 je	 SHORT $LN10@SkillElect
  00125	8b 45 e4	 mov	 eax, DWORD PTR _DuelIndex$[ebp]
  00128	3b 45 ec	 cmp	 eax, DWORD PTR _tObjNum$[ebp]
  0012b	75 0c		 jne	 SHORT $LN8@SkillElect
$LN10@SkillElect:

; 4256 : #endif
; 4257 : 						 )
; 4258 : 
; 4259 : 					{	// 클라이언트에서 대상을 강제 공격했을때와 결투 대상일때는 공격가능
; 4260 : 						EnableAttack = TRUE;

  0012d	c7 45 d4 01 00
	00 00		 mov	 DWORD PTR _EnableAttack$[ebp], 1

; 4261 : 					}	

  00134	e9 8a 00 00 00	 jmp	 $LN7@SkillElect
$LN8@SkillElect:

; 4262 : #ifdef MODIFY_RANGEATTACK_CHECK_20050113		// 일렉트릭 스파이크는 공성전 중에 사람에게도 적용된다.
; 4263 : 					else if (
; 4264 : 						lpObj->VpPlayer2[count].type != OBJTYPE_NPC &&
; 4265 : 						gObj[tObjNum].MapNumber == MAP_INDEX_CASTLESIEGE &&
; 4266 : 						g_CastleSiege.GetCastleState() == CASTLESIEGE_STATE_STARTSIEGE
; 4267 : 						)
; 4268 : 					{
; 4269 : 						EnableAttack = TRUE;
; 4270 : 					}
; 4271 : #endif					
; 4272 : 					else
; 4273 : 					{	// 길드전 체크
; 4274 : 						int CallMonIndex = gObj[tObjNum].m_Index;

  00139	69 45 ec a0 1b
	00 00		 imul	 eax, DWORD PTR _tObjNum$[ebp], 7072
  00140	8b 0d 00 00 00
	00		 mov	 ecx, DWORD PTR ?gObj@@3PAVOBJECTSTRUCT@@A ; gObj
  00146	8b 14 01	 mov	 edx, DWORD PTR [ecx+eax]
  00149	89 55 d0	 mov	 DWORD PTR _CallMonIndex$1[ebp], edx

; 4275 : 						if( gObj[tObjNum].Type == OBJTYPE_MONSTER )

  0014c	69 45 ec a0 1b
	00 00		 imul	 eax, DWORD PTR _tObjNum$[ebp], 7072
  00153	8b 0d 00 00 00
	00		 mov	 ecx, DWORD PTR ?gObj@@3PAVOBJECTSTRUCT@@A ; gObj
  00159	0f b7 54 01 64	 movzx	 edx, WORD PTR [ecx+eax+100]
  0015e	83 fa 02	 cmp	 edx, 2
  00161	75 3a		 jne	 SHORT $LN11@SkillElect

; 4276 : 						{
; 4277 : 							if( gObj[tObjNum].m_RecallMon >= 0 ) 

  00163	69 45 ec a0 1b
	00 00		 imul	 eax, DWORD PTR _tObjNum$[ebp], 7072
  0016a	8b 0d 00 00 00
	00		 mov	 ecx, DWORD PTR ?gObj@@3PAVOBJECTSTRUCT@@A ; gObj
  00170	83 bc 01 a4 02
	00 00 00	 cmp	 DWORD PTR [ecx+eax+676], 0
  00178	7c 23		 jl	 SHORT $LN11@SkillElect

; 4278 : 							{
; 4279 : 								CallMonIndex = gObj[gObj[tObjNum].m_RecallMon].m_Index;

  0017a	69 45 ec a0 1b
	00 00		 imul	 eax, DWORD PTR _tObjNum$[ebp], 7072
  00181	8b 0d 00 00 00
	00		 mov	 ecx, DWORD PTR ?gObj@@3PAVOBJECTSTRUCT@@A ; gObj
  00187	69 94 01 a4 02
	00 00 a0 1b 00
	00		 imul	 edx, DWORD PTR [ecx+eax+676], 7072
  00192	a1 00 00 00 00	 mov	 eax, DWORD PTR ?gObj@@3PAVOBJECTSTRUCT@@A ; gObj
  00197	8b 0c 10	 mov	 ecx, DWORD PTR [eax+edx]
  0019a	89 4d d0	 mov	 DWORD PTR _CallMonIndex$1[ebp], ecx
$LN11@SkillElect:

; 4280 : 							}
; 4281 : 						}
; 4282 : 						if( gObjTargetGuildWarCheck(lpObj, &gObj[CallMonIndex]) == TRUE )

  0019d	69 45 d0 a0 1b
	00 00		 imul	 eax, DWORD PTR _CallMonIndex$1[ebp], 7072
  001a4	03 05 00 00 00
	00		 add	 eax, DWORD PTR ?gObj@@3PAVOBJECTSTRUCT@@A ; gObj
  001aa	50		 push	 eax
  001ab	8b 4d f8	 mov	 ecx, DWORD PTR _lpObj$[ebp]
  001ae	51		 push	 ecx
  001af	e8 00 00 00 00	 call	 ?gObjTargetGuildWarCheck@@YAHPAVOBJECTSTRUCT@@0@Z ; gObjTargetGuildWarCheck
  001b4	83 c4 08	 add	 esp, 8
  001b7	83 f8 01	 cmp	 eax, 1
  001ba	75 07		 jne	 SHORT $LN7@SkillElect

; 4283 : 						{	// 대상이 길전상대이면 공격가능
; 4284 : 							EnableAttack = TRUE;

  001bc	c7 45 d4 01 00
	00 00		 mov	 DWORD PTR _EnableAttack$[ebp], 1
$LN7@SkillElect:

; 4285 : 						}
; 4286 : 					}
; 4287 : 
; 4288 : 					if( EnableAttack )

  001c3	83 7d d4 00	 cmp	 DWORD PTR _EnableAttack$[ebp], 0
  001c7	0f 84 98 00 00
	00		 je	 $LN4@SkillElect

; 4289 : 					{	
; 4290 : 						if( SkillElectricSparkHitBox.HitCheck(iangle, gObj[aIndex].X, gObj[aIndex].Y, gObj[tObjNum].X, gObj[tObjNum].Y) )

  001cd	69 45 ec a0 1b
	00 00		 imul	 eax, DWORD PTR _tObjNum$[ebp], 7072
  001d4	8b 0d 00 00 00
	00		 mov	 ecx, DWORD PTR ?gObj@@3PAVOBJECTSTRUCT@@A ; gObj
  001da	0f bf 94 01 06
	01 00 00	 movsx	 edx, WORD PTR [ecx+eax+262]
  001e2	52		 push	 edx
  001e3	69 45 ec a0 1b
	00 00		 imul	 eax, DWORD PTR _tObjNum$[ebp], 7072
  001ea	8b 0d 00 00 00
	00		 mov	 ecx, DWORD PTR ?gObj@@3PAVOBJECTSTRUCT@@A ; gObj
  001f0	0f bf 94 01 04
	01 00 00	 movsx	 edx, WORD PTR [ecx+eax+260]
  001f8	52		 push	 edx
  001f9	69 45 08 a0 1b
	00 00		 imul	 eax, DWORD PTR _aIndex$[ebp], 7072
  00200	8b 0d 00 00 00
	00		 mov	 ecx, DWORD PTR ?gObj@@3PAVOBJECTSTRUCT@@A ; gObj
  00206	0f bf 94 01 06
	01 00 00	 movsx	 edx, WORD PTR [ecx+eax+262]
  0020e	52		 push	 edx
  0020f	69 45 08 a0 1b
	00 00		 imul	 eax, DWORD PTR _aIndex$[ebp], 7072
  00216	8b 0d 00 00 00
	00		 mov	 ecx, DWORD PTR ?gObj@@3PAVOBJECTSTRUCT@@A ; gObj
  0021c	0f bf 94 01 04
	01 00 00	 movsx	 edx, WORD PTR [ecx+eax+260]
  00224	52		 push	 edx
  00225	8b 45 e0	 mov	 eax, DWORD PTR _iangle$[ebp]
  00228	50		 push	 eax
  00229	b9 00 00 00 00	 mov	 ecx, OFFSET ?SkillElectricSparkHitBox@@3VCSkillHitBox@@A ; SkillElectricSparkHitBox
  0022e	e8 00 00 00 00	 call	 ?HitCheck@CSkillHitBox@@QAEHHHHHH@Z ; CSkillHitBox::HitCheck
  00233	85 c0		 test	 eax, eax
  00235	74 2e		 je	 SHORT $LN4@SkillElect

; 4291 : 						{	
; 4292 : 							delaytime = 500;

  00237	c7 45 dc f4 01
	00 00		 mov	 DWORD PTR _delaytime$[ebp], 500 ; 000001f4H

; 4293 : 
; 4294 : 							Hit = TRUE;

  0023e	c7 45 d8 01 00
	00 00		 mov	 DWORD PTR _Hit$[ebp], 1

; 4295 : 
; 4296 : 							gObjAddAttackProcMsgSendDelay(lpObj, 

  00245	6a 00		 push	 0
  00247	8b 45 0c	 mov	 eax, DWORD PTR _lpMagic$[ebp]
  0024a	0f b6 48 05	 movzx	 ecx, BYTE PTR [eax+5]
  0024e	51		 push	 ecx
  0024f	8b 55 dc	 mov	 edx, DWORD PTR _delaytime$[ebp]
  00252	52		 push	 edx
  00253	8b 45 ec	 mov	 eax, DWORD PTR _tObjNum$[ebp]
  00256	50		 push	 eax
  00257	6a 32		 push	 50			; 00000032H
  00259	8b 4d f8	 mov	 ecx, DWORD PTR _lpObj$[ebp]
  0025c	51		 push	 ecx
  0025d	e8 00 00 00 00	 call	 ?gObjAddAttackProcMsgSendDelay@@YAXPAVOBJECTSTRUCT@@HHHHH@Z ; gObjAddAttackProcMsgSendDelay
  00262	83 c4 18	 add	 esp, 24			; 00000018H
$LN4@SkillElect:

; 4297 : 														  MSG_ATTACKPROC_ENTIREMAGIC, 
; 4298 : 														  tObjNum,
; 4299 : 														  delaytime, lpMagic->m_Skill);
; 4300 : 
; 4301 : 							//gObjAttack(lpObj, &gObj[tObjNum], lpMagic, 1, 1);
; 4302 : 						}
; 4303 : 					}
; 4304 : 				}
; 4305 : 			}
; 4306 : 		}
; 4307 : 		count++;

  00265	8b 45 e8	 mov	 eax, DWORD PTR _count$[ebp]
  00268	83 c0 01	 add	 eax, 1
  0026b	89 45 e8	 mov	 DWORD PTR _count$[ebp], eax

; 4308 : 		if( count > MAXVIEWPORTOBJECT-1 )

  0026e	83 7d e8 4a	 cmp	 DWORD PTR _count$[ebp], 74 ; 0000004aH
  00272	7e 02		 jle	 SHORT $LN16@SkillElect

; 4309 : 		{
; 4310 : 			break;

  00274	eb 05		 jmp	 SHORT $LN3@SkillElect
$LN16@SkillElect:

; 4311 : 		}
; 4312 : 	}

  00276	e9 24 fe ff ff	 jmp	 $LN2@SkillElect
$LN3@SkillElect:

; 4313 : 
; 4314 : 	if( Hit )	// 공격이 성공하면 파티원의 피를 깍는다

  0027b	83 7d d8 00	 cmp	 DWORD PTR _Hit$[ebp], 0
  0027f	74 0c		 je	 SHORT $LN1@SkillElect

; 4315 : 		DecPartyMemberHPandMP(lpObj);

  00281	8b 45 f8	 mov	 eax, DWORD PTR _lpObj$[ebp]
  00284	50		 push	 eax
  00285	e8 00 00 00 00	 call	 ?DecPartyMemberHPandMP@@YAHPAVOBJECTSTRUCT@@@Z ; DecPartyMemberHPandMP
  0028a	83 c4 04	 add	 esp, 4
$LN1@SkillElect:

; 4316 : 
; 4317 : 
; 4318 : 	//DecPartyMemberHPandMP
; 4319 : }

  0028d	5f		 pop	 edi
  0028e	5e		 pop	 esi
  0028f	5b		 pop	 ebx
  00290	8b e5		 mov	 esp, ebp
  00292	5d		 pop	 ebp
  00293	c2 1c 00	 ret	 28			; 0000001cH
?SkillElectricSpark@CObjUseSkill@@QAEXHPAVCMagicInf@@EEEEH@Z ENDP ; CObjUseSkill::SkillElectricSpark
_TEXT	ENDS
; Function compile flags: /Odtp /ZI
; File C:\Mu Online\Mu-GS-Webzen-MC-10093\GameServer\ObjUseSkill.cpp
;	COMDAT ?SkillAddCriticalDamage@CObjUseSkill@@QAEXHH@Z
_TEXT	SEGMENT
_n$1 = -76						; size = 4
_SkillTime$ = -72					; size = 4
_addcriticaldamagevalue$ = -68				; size = 4
_n$2 = -64						; size = 4
_lpPartyObj$ = -60					; size = 4
_ApplyPartyIndex$ = -56					; size = 20
_dis$ = -36						; size = 4
_partycount$ = -32					; size = 4
_totallevel$ = -28					; size = 4
_partynum$ = -24					; size = 4
_number$ = -20						; size = 4
_lpObj$ = -16						; size = 4
_skillSuccess$ = -12					; size = 4
_this$ = -8						; size = 4
__$ArrayPad$ = -4					; size = 4
_aIndex$ = 8						; size = 4
_skill_level$ = 12					; size = 4
?SkillAddCriticalDamage@CObjUseSkill@@QAEXHH@Z PROC	; CObjUseSkill::SkillAddCriticalDamage, COMDAT
; _this$ = ecx

; 4122 : {

  00000	55		 push	 ebp
  00001	8b ec		 mov	 ebp, esp
  00003	81 ec 8c 00 00
	00		 sub	 esp, 140		; 0000008cH
  00009	a1 00 00 00 00	 mov	 eax, DWORD PTR ___security_cookie
  0000e	33 c5		 xor	 eax, ebp
  00010	89 45 fc	 mov	 DWORD PTR __$ArrayPad$[ebp], eax
  00013	53		 push	 ebx
  00014	56		 push	 esi
  00015	57		 push	 edi
  00016	89 4d f8	 mov	 DWORD PTR _this$[ebp], ecx

; 4123 : 	int skillSuccess = 1;

  00019	c7 45 f4 01 00
	00 00		 mov	 DWORD PTR _skillSuccess$[ebp], 1

; 4124 : 
; 4125 : 	LPOBJECTSTRUCT lpObj= &gObj[aIndex];

  00020	69 45 08 a0 1b
	00 00		 imul	 eax, DWORD PTR _aIndex$[ebp], 7072
  00027	03 05 00 00 00
	00		 add	 eax, DWORD PTR ?gObj@@3PAVOBJECTSTRUCT@@A ; gObj
  0002d	89 45 f0	 mov	 DWORD PTR _lpObj$[ebp], eax

; 4126 : 
; 4127 : 
; 4128 : #ifdef AUTH_GAMESERVER_CHECKKEY
; 4129 : 	if( szAuthKey[14] != AUTH_CHECK_14 )
; 4130 : 		DestroyGIocp();
; 4131 : #endif
; 4132 : 
; 4133 : #ifdef NEW_FORSKYLAND2
; 4134 : 	if( lpObj->Type != OBJTYPE_CHARACTER) 

  00030	8b 45 f0	 mov	 eax, DWORD PTR _lpObj$[ebp]
  00033	0f b7 48 64	 movzx	 ecx, WORD PTR [eax+100]
  00037	83 f9 01	 cmp	 ecx, 1
  0003a	74 11		 je	 SHORT $LN8@SkillAddCr

; 4135 : 		if( lpObj->m_RecallMon == -1 ) return;

  0003c	8b 45 f0	 mov	 eax, DWORD PTR _lpObj$[ebp]
  0003f	83 b8 a4 02 00
	00 ff		 cmp	 DWORD PTR [eax+676], -1
  00046	75 05		 jne	 SHORT $LN8@SkillAddCr
  00048	e9 72 02 00 00	 jmp	 $LN1@SkillAddCr
$LN8@SkillAddCr:

; 4136 : 
; 4137 : 	if( lpObj->Class != CLASS_DARKLORD ) return;

  0004d	8b 45 f0	 mov	 eax, DWORD PTR _lpObj$[ebp]
  00050	0f b7 88 9c 00
	00 00		 movzx	 ecx, WORD PTR [eax+156]
  00057	83 f9 04	 cmp	 ecx, 4
  0005a	74 05		 je	 SHORT $LN10@SkillAddCr
  0005c	e9 5e 02 00 00	 jmp	 $LN1@SkillAddCr
$LN10@SkillAddCr:

; 4138 : 
; 4139 : 	int number;
; 4140 : 	int partynum=0;

  00061	c7 45 e8 00 00
	00 00		 mov	 DWORD PTR _partynum$[ebp], 0

; 4141 : 	int totallevel=0;

  00068	c7 45 e4 00 00
	00 00		 mov	 DWORD PTR _totallevel$[ebp], 0

; 4142 : 	int partycount;
; 4143 : 	int dis;
; 4144 : 	int ApplyPartyIndex[MAX_PARTYUSER];		
; 4145 : 	
; 4146 : 	LPOBJECTSTRUCT lpPartyObj;
; 4147 : 
; 4148 : 	memset(ApplyPartyIndex, -1, sizeof(int)*MAX_PARTYUSER);

  0006f	6a 14		 push	 20			; 00000014H
  00071	6a ff		 push	 -1
  00073	8d 45 c8	 lea	 eax, DWORD PTR _ApplyPartyIndex$[ebp]
  00076	50		 push	 eax
  00077	e8 00 00 00 00	 call	 _memset
  0007c	83 c4 0c	 add	 esp, 12			; 0000000cH

; 4149 : 	partynum = lpObj->PartyNumber;	

  0007f	8b 45 f0	 mov	 eax, DWORD PTR _lpObj$[ebp]
  00082	8b 88 88 02 00
	00		 mov	 ecx, DWORD PTR [eax+648]
  00088	89 4d e8	 mov	 DWORD PTR _partynum$[ebp], ecx

; 4150 : 
; 4151 : 	if( partynum != -1 )

  0008b	83 7d e8 ff	 cmp	 DWORD PTR _partynum$[ebp], -1
  0008f	0f 84 95 00 00
	00		 je	 $LN11@SkillAddCr

; 4152 : 	{
; 4153 : 		partycount = gParty.m_PartyS[partynum].Count;

  00095	6b 45 e8 30	 imul	 eax, DWORD PTR _partynum$[ebp], 48
  00099	8b 88 08 00 00
	00		 mov	 ecx, DWORD PTR ?gParty@@3VPartyClass@@A[eax+8]
  0009f	89 4d e0	 mov	 DWORD PTR _partycount$[ebp], ecx

; 4154 : 		for( int n=0; n<MAX_PARTYUSER; n++)

  000a2	c7 45 c0 00 00
	00 00		 mov	 DWORD PTR _n$2[ebp], 0
  000a9	eb 09		 jmp	 SHORT $LN4@SkillAddCr
$LN2@SkillAddCr:
  000ab	8b 45 c0	 mov	 eax, DWORD PTR _n$2[ebp]
  000ae	83 c0 01	 add	 eax, 1
  000b1	89 45 c0	 mov	 DWORD PTR _n$2[ebp], eax
$LN4@SkillAddCr:
  000b4	83 7d c0 05	 cmp	 DWORD PTR _n$2[ebp], 5
  000b8	7d 70		 jge	 SHORT $LN11@SkillAddCr

; 4155 : 		{
; 4156 : 			number = gParty.m_PartyS[partynum].Number[n];

  000ba	6b 45 e8 30	 imul	 eax, DWORD PTR _partynum$[ebp], 48
  000be	8b 4d c0	 mov	 ecx, DWORD PTR _n$2[ebp]
  000c1	8b 94 88 0c 00
	00 00		 mov	 edx, DWORD PTR ?gParty@@3VPartyClass@@A[eax+ecx*4+12]
  000c8	89 55 ec	 mov	 DWORD PTR _number$[ebp], edx

; 4157 : 			if( number >= 0 )

  000cb	83 7d ec 00	 cmp	 DWORD PTR _number$[ebp], 0
  000cf	7c 57		 jl	 SHORT $LN12@SkillAddCr

; 4158 : 			{
; 4159 : 				lpPartyObj = (LPOBJECTSTRUCT)&gObj[number];			

  000d1	69 45 ec a0 1b
	00 00		 imul	 eax, DWORD PTR _number$[ebp], 7072
  000d8	03 05 00 00 00
	00		 add	 eax, DWORD PTR ?gObj@@3PAVOBJECTSTRUCT@@A ; gObj
  000de	89 45 c4	 mov	 DWORD PTR _lpPartyObj$[ebp], eax

; 4160 : 				// 같은 맵에 존재하거나..
; 4161 : 				if( lpObj->MapNumber == lpPartyObj->MapNumber) 

  000e1	8b 45 f0	 mov	 eax, DWORD PTR _lpObj$[ebp]
  000e4	0f b6 88 09 01
	00 00		 movzx	 ecx, BYTE PTR [eax+265]
  000eb	8b 55 c4	 mov	 edx, DWORD PTR _lpPartyObj$[ebp]
  000ee	0f b6 82 09 01
	00 00		 movzx	 eax, BYTE PTR [edx+265]
  000f5	3b c8		 cmp	 ecx, eax
  000f7	75 2f		 jne	 SHORT $LN12@SkillAddCr

; 4162 : 				{
; 4163 : 					dis = gObjCalDistance(lpObj, &gObj[number]);

  000f9	69 45 ec a0 1b
	00 00		 imul	 eax, DWORD PTR _number$[ebp], 7072
  00100	03 05 00 00 00
	00		 add	 eax, DWORD PTR ?gObj@@3PAVOBJECTSTRUCT@@A ; gObj
  00106	50		 push	 eax
  00107	8b 4d f0	 mov	 ecx, DWORD PTR _lpObj$[ebp]
  0010a	51		 push	 ecx
  0010b	e8 00 00 00 00	 call	 ?gObjCalDistance@@YAHPAVOBJECTSTRUCT@@0@Z ; gObjCalDistance
  00110	83 c4 08	 add	 esp, 8
  00113	89 45 dc	 mov	 DWORD PTR _dis$[ebp], eax

; 4164 : 					if( dis < 10 )

  00116	83 7d dc 0a	 cmp	 DWORD PTR _dis$[ebp], 10 ; 0000000aH
  0011a	7d 0c		 jge	 SHORT $LN12@SkillAddCr

; 4165 : 					{
; 4166 : 						ApplyPartyIndex[n] = lpPartyObj->m_Index;						

  0011c	8b 45 c0	 mov	 eax, DWORD PTR _n$2[ebp]
  0011f	8b 4d c4	 mov	 ecx, DWORD PTR _lpPartyObj$[ebp]
  00122	8b 11		 mov	 edx, DWORD PTR [ecx]
  00124	89 54 85 c8	 mov	 DWORD PTR _ApplyPartyIndex$[ebp+eax*4], edx
$LN12@SkillAddCr:

; 4167 : 					}
; 4168 : 				}
; 4169 : 			}
; 4170 : 		}

  00128	eb 81		 jmp	 SHORT $LN2@SkillAddCr
$LN11@SkillAddCr:

; 4171 : 	}	
; 4172 : 
; 4173 : 	int addcriticaldamagevalue = ((lpObj->Leadership+lpObj->AddLeadership)/25)+((lpObj->Energy+lpObj->AddEnergy)/30);

  0012a	8b 45 f0	 mov	 eax, DWORD PTR _lpObj$[ebp]
  0012d	0f b7 80 d8 00
	00 00		 movzx	 eax, WORD PTR [eax+216]
  00134	8b 4d f0	 mov	 ecx, DWORD PTR _lpObj$[ebp]
  00137	0f b7 91 da 00
	00 00		 movzx	 edx, WORD PTR [ecx+218]
  0013e	03 c2		 add	 eax, edx
  00140	99		 cdq
  00141	b9 19 00 00 00	 mov	 ecx, 25			; 00000019H
  00146	f7 f9		 idiv	 ecx
  00148	8b c8		 mov	 ecx, eax
  0014a	8b 55 f0	 mov	 edx, DWORD PTR _lpObj$[ebp]
  0014d	0f b7 82 ba 00
	00 00		 movzx	 eax, WORD PTR [edx+186]
  00154	8b 55 f0	 mov	 edx, DWORD PTR _lpObj$[ebp]
  00157	0f b7 92 e6 00
	00 00		 movzx	 edx, WORD PTR [edx+230]
  0015e	03 c2		 add	 eax, edx
  00160	99		 cdq
  00161	be 1e 00 00 00	 mov	 esi, 30			; 0000001eH
  00166	f7 fe		 idiv	 esi
  00168	03 c8		 add	 ecx, eax
  0016a	89 4d bc	 mov	 DWORD PTR _addcriticaldamagevalue$[ebp], ecx

; 4174 : 
; 4175 : 	int	SkillTime = 60+((lpObj->Energy+lpObj->AddEnergy)/10);

  0016d	8b 45 f0	 mov	 eax, DWORD PTR _lpObj$[ebp]
  00170	0f b7 80 ba 00
	00 00		 movzx	 eax, WORD PTR [eax+186]
  00177	8b 4d f0	 mov	 ecx, DWORD PTR _lpObj$[ebp]
  0017a	0f b7 91 e6 00
	00 00		 movzx	 edx, WORD PTR [ecx+230]
  00181	03 c2		 add	 eax, edx
  00183	99		 cdq
  00184	b9 0a 00 00 00	 mov	 ecx, 10			; 0000000aH
  00189	f7 f9		 idiv	 ecx
  0018b	83 c0 3c	 add	 eax, 60			; 0000003cH
  0018e	89 45 b8	 mov	 DWORD PTR _SkillTime$[ebp], eax

; 4176 : 
; 4177 : 	//iaddLifepower += (int)(lpObj->MaxLife*viewpercent/100);
; 4178 : 	if( partynum == -1 )

  00191	83 7d e8 ff	 cmp	 DWORD PTR _partynum$[ebp], -1
  00195	75 75		 jne	 SHORT $LN15@SkillAddCr

; 4179 : 	{	// 파티가 안되어 있는 상태이다
; 4180 : #ifdef MODIFY_OLD_BUFF_EFFECT_SYSTEM_20071004
; 4181 : 		gObjAddBuffEffect( lpObj, BUFFTYPE_CRITICAL_DMG_INC, EFFECTTYPE_CRITICAL_DMG, addcriticaldamagevalue, 0, 0, SkillTime );
; 4182 : #else
; 4183 : 		lpObj->SkillAddCriticalDamageTime = SkillTime;

  00197	8b 45 f0	 mov	 eax, DWORD PTR _lpObj$[ebp]
  0019a	66 8b 4d b8	 mov	 cx, WORD PTR _SkillTime$[ebp]
  0019e	66 89 88 14 1a
	00 00		 mov	 WORD PTR [eax+6676], cx

; 4184 : 		lpObj->SkillAddCriticalDamage = addcriticaldamagevalue;

  001a5	8b 45 f0	 mov	 eax, DWORD PTR _lpObj$[ebp]
  001a8	66 8b 4d bc	 mov	 cx, WORD PTR _addcriticaldamagevalue$[ebp]
  001ac	66 89 88 16 1a
	00 00		 mov	 WORD PTR [eax+6678], cx

; 4185 : 
; 4186 : 		lpObj->m_ViewSkillState |= STATE_ADD_CRITICAL_DAMAGE;  //생명력 증가.

  001b3	8b 45 f0	 mov	 eax, DWORD PTR _lpObj$[ebp]
  001b6	0f b7 88 c0 01
	00 00		 movzx	 ecx, WORD PTR [eax+448]
  001bd	81 c9 00 08 00
	00		 or	 ecx, 2048		; 00000800H
  001c3	8b 55 f0	 mov	 edx, DWORD PTR _lpObj$[ebp]
  001c6	66 89 8a c0 01
	00 00		 mov	 WORD PTR [edx+448], cx

; 4187 : #endif // MODIFY_OLD_BUFF_EFFECT_SYSTEM_20071004
; 4188 : 
; 4189 : 		MsgOutput(aIndex, lMsg.Get(1240), SkillTime);	// 마법사용 %d 초간 지속됩니다

  001cd	8b 45 b8	 mov	 eax, DWORD PTR _SkillTime$[ebp]
  001d0	50		 push	 eax
  001d1	68 d8 04 00 00	 push	 1240			; 000004d8H
  001d6	b9 00 00 00 00	 mov	 ecx, OFFSET ?lMsg@@3VCMsg@@A ; lMsg
  001db	ff 15 00 00 00
	00		 call	 DWORD PTR __imp_?Get@CMsg@@QAEPADH@Z
  001e1	50		 push	 eax
  001e2	8b 4d 08	 mov	 ecx, DWORD PTR _aIndex$[ebp]
  001e5	51		 push	 ecx
  001e6	e8 00 00 00 00	 call	 ?MsgOutput@@YAXHPADZZ	; MsgOutput
  001eb	83 c4 0c	 add	 esp, 12			; 0000000cH

; 4190 : 		
; 4191 : 		GCMagicAttackNumberSend(lpObj, AT_SKILL_ADD_CRITICALDAMAGE, lpObj->m_Index, skillSuccess);		

  001ee	0f b6 45 f4	 movzx	 eax, BYTE PTR _skillSuccess$[ebp]
  001f2	50		 push	 eax
  001f3	8b 4d f0	 mov	 ecx, DWORD PTR _lpObj$[ebp]
  001f6	8b 11		 mov	 edx, DWORD PTR [ecx]
  001f8	52		 push	 edx
  001f9	6a 40		 push	 64			; 00000040H
  001fb	8b 45 f0	 mov	 eax, DWORD PTR _lpObj$[ebp]
  001fe	50		 push	 eax
  001ff	e8 00 00 00 00	 call	 ?GCMagicAttackNumberSend@@YAXPAVOBJECTSTRUCT@@EHE@Z ; GCMagicAttackNumberSend
  00204	83 c4 10	 add	 esp, 16			; 00000010H

; 4192 : 	}

  00207	e9 b3 00 00 00	 jmp	 $LN1@SkillAddCr
$LN15@SkillAddCr:

; 4193 : 	else
; 4194 : 	{	// 파티 상태
; 4195 : 		for( int n = 0; n < MAX_PARTYUSER; n++ )

  0020c	c7 45 b4 00 00
	00 00		 mov	 DWORD PTR _n$1[ebp], 0
  00213	eb 09		 jmp	 SHORT $LN7@SkillAddCr
$LN5@SkillAddCr:
  00215	8b 45 b4	 mov	 eax, DWORD PTR _n$1[ebp]
  00218	83 c0 01	 add	 eax, 1
  0021b	89 45 b4	 mov	 DWORD PTR _n$1[ebp], eax
$LN7@SkillAddCr:
  0021e	83 7d b4 05	 cmp	 DWORD PTR _n$1[ebp], 5
  00222	0f 8d 97 00 00
	00		 jge	 $LN1@SkillAddCr

; 4196 : 		{
; 4197 : 			if( ApplyPartyIndex[n] != -1 )

  00228	8b 45 b4	 mov	 eax, DWORD PTR _n$1[ebp]
  0022b	83 7c 85 c8 ff	 cmp	 DWORD PTR _ApplyPartyIndex$[ebp+eax*4], -1
  00230	0f 84 84 00 00
	00		 je	 $LN17@SkillAddCr

; 4198 : 			{
; 4199 : 				lpPartyObj = (LPOBJECTSTRUCT)&gObj[ApplyPartyIndex[n]];

  00236	8b 45 b4	 mov	 eax, DWORD PTR _n$1[ebp]
  00239	69 4c 85 c8 a0
	1b 00 00	 imul	 ecx, DWORD PTR _ApplyPartyIndex$[ebp+eax*4], 7072
  00241	03 0d 00 00 00
	00		 add	 ecx, DWORD PTR ?gObj@@3PAVOBJECTSTRUCT@@A ; gObj
  00247	89 4d c4	 mov	 DWORD PTR _lpPartyObj$[ebp], ecx

; 4200 : 				
; 4201 : #ifdef MODIFY_OLD_BUFF_EFFECT_SYSTEM_20071004
; 4202 : 				gObjAddBuffEffect( lpPartyObj, BUFFTYPE_CRITICAL_DMG_INC, EFFECTTYPE_CRITICAL_DMG, addcriticaldamagevalue, 0, 0, SkillTime );
; 4203 : #else
; 4204 : 				lpPartyObj->SkillAddCriticalDamageTime = SkillTime;

  0024a	8b 45 c4	 mov	 eax, DWORD PTR _lpPartyObj$[ebp]
  0024d	66 8b 4d b8	 mov	 cx, WORD PTR _SkillTime$[ebp]
  00251	66 89 88 14 1a
	00 00		 mov	 WORD PTR [eax+6676], cx

; 4205 : 				lpPartyObj->SkillAddCriticalDamage = addcriticaldamagevalue;

  00258	8b 45 c4	 mov	 eax, DWORD PTR _lpPartyObj$[ebp]
  0025b	66 8b 4d bc	 mov	 cx, WORD PTR _addcriticaldamagevalue$[ebp]
  0025f	66 89 88 16 1a
	00 00		 mov	 WORD PTR [eax+6678], cx

; 4206 : 
; 4207 : 				lpPartyObj->m_ViewSkillState |= STATE_ADD_CRITICAL_DAMAGE;  //생명력 증가.

  00266	8b 45 c4	 mov	 eax, DWORD PTR _lpPartyObj$[ebp]
  00269	0f b7 88 c0 01
	00 00		 movzx	 ecx, WORD PTR [eax+448]
  00270	81 c9 00 08 00
	00		 or	 ecx, 2048		; 00000800H
  00276	8b 55 c4	 mov	 edx, DWORD PTR _lpPartyObj$[ebp]
  00279	66 89 8a c0 01
	00 00		 mov	 WORD PTR [edx+448], cx

; 4208 : #endif // MODIFY_OLD_BUFF_EFFECT_SYSTEM_20071004
; 4209 : 
; 4210 : 				MsgOutput(aIndex, lMsg.Get(1240), SkillTime);	// 마법사용 %d 초간 지속됩니다

  00280	8b 45 b8	 mov	 eax, DWORD PTR _SkillTime$[ebp]
  00283	50		 push	 eax
  00284	68 d8 04 00 00	 push	 1240			; 000004d8H
  00289	b9 00 00 00 00	 mov	 ecx, OFFSET ?lMsg@@3VCMsg@@A ; lMsg
  0028e	ff 15 00 00 00
	00		 call	 DWORD PTR __imp_?Get@CMsg@@QAEPADH@Z
  00294	50		 push	 eax
  00295	8b 4d 08	 mov	 ecx, DWORD PTR _aIndex$[ebp]
  00298	51		 push	 ecx
  00299	e8 00 00 00 00	 call	 ?MsgOutput@@YAXHPADZZ	; MsgOutput
  0029e	83 c4 0c	 add	 esp, 12			; 0000000cH

; 4211 : 
; 4212 : 				GCMagicAttackNumberSend(lpObj, AT_SKILL_ADD_CRITICALDAMAGE, lpPartyObj->m_Index, skillSuccess);

  002a1	0f b6 45 f4	 movzx	 eax, BYTE PTR _skillSuccess$[ebp]
  002a5	50		 push	 eax
  002a6	8b 4d c4	 mov	 ecx, DWORD PTR _lpPartyObj$[ebp]
  002a9	8b 11		 mov	 edx, DWORD PTR [ecx]
  002ab	52		 push	 edx
  002ac	6a 40		 push	 64			; 00000040H
  002ae	8b 45 f0	 mov	 eax, DWORD PTR _lpObj$[ebp]
  002b1	50		 push	 eax
  002b2	e8 00 00 00 00	 call	 ?GCMagicAttackNumberSend@@YAXPAVOBJECTSTRUCT@@EHE@Z ; GCMagicAttackNumberSend
  002b7	83 c4 10	 add	 esp, 16			; 00000010H
$LN17@SkillAddCr:

; 4213 : 			}
; 4214 : 		}

  002ba	e9 56 ff ff ff	 jmp	 $LN5@SkillAddCr
$LN1@SkillAddCr:

; 4215 : 	}
; 4216 : #endif
; 4217 : }

  002bf	5f		 pop	 edi
  002c0	5e		 pop	 esi
  002c1	5b		 pop	 ebx
  002c2	8b 4d fc	 mov	 ecx, DWORD PTR __$ArrayPad$[ebp]
  002c5	33 cd		 xor	 ecx, ebp
  002c7	e8 00 00 00 00	 call	 @__security_check_cookie@4
  002cc	8b e5		 mov	 esp, ebp
  002ce	5d		 pop	 ebp
  002cf	c2 08 00	 ret	 8
?SkillAddCriticalDamage@CObjUseSkill@@QAEXHH@Z ENDP	; CObjUseSkill::SkillAddCriticalDamage
_TEXT	ENDS
; Function compile flags: /Odtp /ZI
; File C:\Mu Online\Mu-GS-Webzen-MC-10093\GameServer\ObjUseSkill.cpp
;	COMDAT ?SkillRecallParty@CObjUseSkill@@QAEXHH@Z
_TEXT	SEGMENT
tv197 = -1548						; size = 4
_msg$1 = -1352						; size = 255
_msg$2 = -1096						; size = 255
_msg$3 = -840						; size = 255
_Find$4 = -584						; size = 4
_count$5 = -580						; size = 4
_addy$6 = -576						; size = 4
_addx$7 = -572						; size = 4
_bCheckInterfaceToMove$8 = -568				; size = 4
_bCheckEquipmentToMove$9 = -564				; size = 4
_bCheckMainToMove$10 = -560				; size = 4
_movelevel$11 = -556					; size = 4
_n$12 = -552						; size = 4
_recallcount$ = -548					; size = 4
_lpPartyObj$ = -544					; size = 4
_partycount$ = -540					; size = 4
_partynum$ = -536					; size = 4
_number$ = -532						; size = 4
_msg$13 = -528						; size = 255
_msg$14 = -272						; size = 255
_lpObj$ = -16						; size = 4
_skillSuccess$ = -12					; size = 4
_this$ = -8						; size = 4
__$ArrayPad$ = -4					; size = 4
_aIndex$ = 8						; size = 4
_skill_level$ = 12					; size = 4
?SkillRecallParty@CObjUseSkill@@QAEXHH@Z PROC		; CObjUseSkill::SkillRecallParty, COMDAT
; _this$ = ecx

; 3929 : {

  00000	55		 push	 ebp
  00001	8b ec		 mov	 ebp, esp
  00003	81 ec 0c 06 00
	00		 sub	 esp, 1548		; 0000060cH
  00009	a1 00 00 00 00	 mov	 eax, DWORD PTR ___security_cookie
  0000e	33 c5		 xor	 eax, ebp
  00010	89 45 fc	 mov	 DWORD PTR __$ArrayPad$[ebp], eax
  00013	53		 push	 ebx
  00014	56		 push	 esi
  00015	57		 push	 edi
  00016	89 4d f8	 mov	 DWORD PTR _this$[ebp], ecx

; 3930 : 	int skillSuccess = 1;

  00019	c7 45 f4 01 00
	00 00		 mov	 DWORD PTR _skillSuccess$[ebp], 1

; 3931 : 
; 3932 : 	LPOBJECTSTRUCT lpObj= &gObj[aIndex];

  00020	69 45 08 a0 1b
	00 00		 imul	 eax, DWORD PTR _aIndex$[ebp], 7072
  00027	03 05 00 00 00
	00		 add	 eax, DWORD PTR ?gObj@@3PAVOBJECTSTRUCT@@A ; gObj
  0002d	89 45 f0	 mov	 DWORD PTR _lpObj$[ebp], eax

; 3933 : 
; 3934 : 	if( lpObj->Type != OBJTYPE_CHARACTER) 

  00030	8b 45 f0	 mov	 eax, DWORD PTR _lpObj$[ebp]
  00033	0f b7 48 64	 movzx	 ecx, WORD PTR [eax+100]
  00037	83 f9 01	 cmp	 ecx, 1
  0003a	74 11		 je	 SHORT $LN7@SkillRecal

; 3935 : 		if( lpObj->m_RecallMon == -1 ) return;

  0003c	8b 45 f0	 mov	 eax, DWORD PTR _lpObj$[ebp]
  0003f	83 b8 a4 02 00
	00 ff		 cmp	 DWORD PTR [eax+676], -1
  00046	75 05		 jne	 SHORT $LN7@SkillRecal
  00048	e9 79 04 00 00	 jmp	 $LN1@SkillRecal
$LN7@SkillRecal:

; 3936 : 
; 3937 : 
; 3938 : 	if( !RecallPartyCheck(aIndex, skill_level) )

  0004d	8b 45 0c	 mov	 eax, DWORD PTR _skill_level$[ebp]
  00050	50		 push	 eax
  00051	8b 4d 08	 mov	 ecx, DWORD PTR _aIndex$[ebp]
  00054	51		 push	 ecx
  00055	8b 4d f8	 mov	 ecx, DWORD PTR _this$[ebp]
  00058	e8 00 00 00 00	 call	 ?RecallPartyCheck@CObjUseSkill@@QAEHHH@Z ; CObjUseSkill::RecallPartyCheck
  0005d	85 c0		 test	 eax, eax
  0005f	75 22		 jne	 SHORT $LN9@SkillRecal

; 3939 : 	{	
; 3940 : 		MsgOutput(aIndex,lMsg.Get(1238));	// 스킬을 사용중인 파티원이 있습니다

  00061	68 d6 04 00 00	 push	 1238			; 000004d6H
  00066	b9 00 00 00 00	 mov	 ecx, OFFSET ?lMsg@@3VCMsg@@A ; lMsg
  0006b	ff 15 00 00 00
	00		 call	 DWORD PTR __imp_?Get@CMsg@@QAEPADH@Z
  00071	50		 push	 eax
  00072	8b 45 08	 mov	 eax, DWORD PTR _aIndex$[ebp]
  00075	50		 push	 eax
  00076	e8 00 00 00 00	 call	 ?MsgOutput@@YAXHPADZZ	; MsgOutput
  0007b	83 c4 08	 add	 esp, 8

; 3941 : 		return;

  0007e	e9 43 04 00 00	 jmp	 $LN1@SkillRecal
$LN9@SkillRecal:

; 3942 : 	}
; 3943 : 
; 3944 : #ifdef MODIFY_DARKLORD_SKILL_RECALL_PARTY_20040831
; 3945 : 	// 시전자가 블러드, 카오스캐슬, 데빌스퀘어, 칼리마에 있을 시 스킬 사용하지 못한다.
; 3946 : 	if( !gMoveCommand.CheckMainToMove( lpObj ) )

  00083	8b 45 f0	 mov	 eax, DWORD PTR _lpObj$[ebp]
  00086	50		 push	 eax
  00087	b9 00 00 00 00	 mov	 ecx, OFFSET ?gMoveCommand@@3VCMoveCommand@@A ; gMoveCommand
  0008c	e8 00 00 00 00	 call	 ?CheckMainToMove@CMoveCommand@@QAEHPAVOBJECTSTRUCT@@@Z ; CMoveCommand::CheckMainToMove
  00091	85 c0		 test	 eax, eax
  00093	75 3d		 jne	 SHORT $LN10@SkillRecal

; 3947 : 	{
; 3948 : 		char msg[255];
; 3949 : 		wsprintf(msg, lMsg.Get(1249));		// 이 맵에서는 스킬을 사용 할 수 없습니다.

  00095	68 e1 04 00 00	 push	 1249			; 000004e1H
  0009a	b9 00 00 00 00	 mov	 ecx, OFFSET ?lMsg@@3VCMsg@@A ; lMsg
  0009f	ff 15 00 00 00
	00		 call	 DWORD PTR __imp_?Get@CMsg@@QAEPADH@Z
  000a5	50		 push	 eax
  000a6	8d 85 f0 fe ff
	ff		 lea	 eax, DWORD PTR _msg$14[ebp]
  000ac	50		 push	 eax
  000ad	ff 15 00 00 00
	00		 call	 DWORD PTR __imp__wsprintfA
  000b3	83 c4 08	 add	 esp, 8

; 3950 : 		GCServerMsgStringSend(msg, lpObj->m_Index, 1);	

  000b6	6a 01		 push	 1
  000b8	8b 45 f0	 mov	 eax, DWORD PTR _lpObj$[ebp]
  000bb	8b 08		 mov	 ecx, DWORD PTR [eax]
  000bd	51		 push	 ecx
  000be	8d 95 f0 fe ff
	ff		 lea	 edx, DWORD PTR _msg$14[ebp]
  000c4	52		 push	 edx
  000c5	e8 00 00 00 00	 call	 ?GCServerMsgStringSend@@YAXPADHE@Z ; GCServerMsgStringSend
  000ca	83 c4 0c	 add	 esp, 12			; 0000000cH

; 3951 : 		return;

  000cd	e9 f4 03 00 00	 jmp	 $LN1@SkillRecal
$LN10@SkillRecal:

; 3952 : 	}
; 3953 : 
; 3954 : 	if( !gMoveCommand.CheckInterfaceToMove(lpObj) ) 

  000d2	8b 45 f0	 mov	 eax, DWORD PTR _lpObj$[ebp]
  000d5	50		 push	 eax
  000d6	b9 00 00 00 00	 mov	 ecx, OFFSET ?gMoveCommand@@3VCMoveCommand@@A ; gMoveCommand
  000db	e8 00 00 00 00	 call	 ?CheckInterfaceToMove@CMoveCommand@@QAEHPAVOBJECTSTRUCT@@@Z ; CMoveCommand::CheckInterfaceToMove
  000e0	85 c0		 test	 eax, eax
  000e2	75 3d		 jne	 SHORT $LN11@SkillRecal

; 3955 : 	{
; 3956 : 		char msg[255];	
; 3957 : 		wsprintf(msg, lMsg.Get(1239));	// "현재 사용 하고 있는 창 또는 개인상점을 닫아 주십시오"

  000e4	68 d7 04 00 00	 push	 1239			; 000004d7H
  000e9	b9 00 00 00 00	 mov	 ecx, OFFSET ?lMsg@@3VCMsg@@A ; lMsg
  000ee	ff 15 00 00 00
	00		 call	 DWORD PTR __imp_?Get@CMsg@@QAEPADH@Z
  000f4	50		 push	 eax
  000f5	8d 85 f0 fd ff
	ff		 lea	 eax, DWORD PTR _msg$13[ebp]
  000fb	50		 push	 eax
  000fc	ff 15 00 00 00
	00		 call	 DWORD PTR __imp__wsprintfA
  00102	83 c4 08	 add	 esp, 8

; 3958 : 		GCServerMsgStringSend(msg, lpObj->m_Index, 1);	

  00105	6a 01		 push	 1
  00107	8b 45 f0	 mov	 eax, DWORD PTR _lpObj$[ebp]
  0010a	8b 08		 mov	 ecx, DWORD PTR [eax]
  0010c	51		 push	 ecx
  0010d	8d 95 f0 fd ff
	ff		 lea	 edx, DWORD PTR _msg$13[ebp]
  00113	52		 push	 edx
  00114	e8 00 00 00 00	 call	 ?GCServerMsgStringSend@@YAXPADHE@Z ; GCServerMsgStringSend
  00119	83 c4 0c	 add	 esp, 12			; 0000000cH

; 3959 : 		return;

  0011c	e9 a5 03 00 00	 jmp	 $LN1@SkillRecal
$LN11@SkillRecal:

; 3960 : 	}
; 3961 : #endif
; 3962 : 
; 3963 : #ifdef ADD_RAKLION_20080408
; 3964 : 	// 유저가 라클리온 보스존에 있고 보스존이 폐쇄상태일때는 셔먼스킬도 사용 불가
; 3965 : 	if( lpObj->MapNumber==MAP_INDEX_RAKLION_BOSS && lpObj->Connected==CSS_GAMEPLAYING )
; 3966 : 	{
; 3967 : 		if( g_Raklion.GetRaklionState() == RAKLION_STATE_CLOSE_DOOR
; 3968 : 			|| g_Raklion.GetRaklionState() == RAKLION_STATE_ALL_USER_DIE
; 3969 : 			|| g_Raklion.GetRaklionState() == RAKLION_STATE_NOTIFY_4
; 3970 : 			|| g_Raklion.GetRaklionState() == RAKLION_STATE_END )
; 3971 : 		{
; 3972 : 			// 유저에게 스킬 사용이 불가하다는 시스템 메시지 전송
; 3973 : 			char msg[256];
; 3974 : 			wsprintf( msg, lMsg.Get(3417) );
; 3975 : 			GCServerMsgStringSend( msg, lpObj->m_Index, 1 );
; 3976 : 			
; 3977 : 			return;
; 3978 : 		}
; 3979 : 	}
; 3980 : #endif // ADD_RAKLION_20080408
; 3981 : 
; 3982 : 	//if( lpObj->Class != CLASS_DARKLORD ) return;
; 3983 : 
; 3984 : 	int number;
; 3985 : 	int partynum=0, partycount;

  00121	c7 85 e8 fd ff
	ff 00 00 00 00	 mov	 DWORD PTR _partynum$[ebp], 0

; 3986 : 	
; 3987 : 	LPOBJECTSTRUCT lpPartyObj;
; 3988 : 	partynum = lpObj->PartyNumber;	

  0012b	8b 45 f0	 mov	 eax, DWORD PTR _lpObj$[ebp]
  0012e	8b 88 88 02 00
	00		 mov	 ecx, DWORD PTR [eax+648]
  00134	89 8d e8 fd ff
	ff		 mov	 DWORD PTR _partynum$[ebp], ecx

; 3989 : 
; 3990 : 	GCMagicAttackNumberSend(lpObj, AT_SKILL_RECALL_PARTY, lpObj->m_Index, skillSuccess);

  0013a	0f b6 45 f4	 movzx	 eax, BYTE PTR _skillSuccess$[ebp]
  0013e	50		 push	 eax
  0013f	8b 4d f0	 mov	 ecx, DWORD PTR _lpObj$[ebp]
  00142	8b 11		 mov	 edx, DWORD PTR [ecx]
  00144	52		 push	 edx
  00145	6a 3f		 push	 63			; 0000003fH
  00147	8b 45 f0	 mov	 eax, DWORD PTR _lpObj$[ebp]
  0014a	50		 push	 eax
  0014b	e8 00 00 00 00	 call	 ?GCMagicAttackNumberSend@@YAXPAVOBJECTSTRUCT@@EHE@Z ; GCMagicAttackNumberSend
  00150	83 c4 10	 add	 esp, 16			; 00000010H

; 3991 : 
; 3992 : 
; 3993 : 	int recallcount = 0;

  00153	c7 85 dc fd ff
	ff 00 00 00 00	 mov	 DWORD PTR _recallcount$[ebp], 0

; 3994 : 
; 3995 : 	if( partynum != -1 )

  0015d	83 bd e8 fd ff
	ff ff		 cmp	 DWORD PTR _partynum$[ebp], -1
  00164	0f 84 14 03 00
	00		 je	 $LN12@SkillRecal

; 3996 : 	{
; 3997 : 		partycount = gParty.m_PartyS[partynum].Count;

  0016a	6b 85 e8 fd ff
	ff 30		 imul	 eax, DWORD PTR _partynum$[ebp], 48
  00171	8b 88 08 00 00
	00		 mov	 ecx, DWORD PTR ?gParty@@3VPartyClass@@A[eax+8]
  00177	89 8d e4 fd ff
	ff		 mov	 DWORD PTR _partycount$[ebp], ecx

; 3998 : 		for( int n=0; n<MAX_PARTYUSER; n++)

  0017d	c7 85 d8 fd ff
	ff 00 00 00 00	 mov	 DWORD PTR _n$12[ebp], 0
  00187	eb 0f		 jmp	 SHORT $LN4@SkillRecal
$LN2@SkillRecal:
  00189	8b 85 d8 fd ff
	ff		 mov	 eax, DWORD PTR _n$12[ebp]
  0018f	83 c0 01	 add	 eax, 1
  00192	89 85 d8 fd ff
	ff		 mov	 DWORD PTR _n$12[ebp], eax
$LN4@SkillRecal:
  00198	83 bd d8 fd ff
	ff 05		 cmp	 DWORD PTR _n$12[ebp], 5
  0019f	0f 8d d9 02 00
	00		 jge	 $LN12@SkillRecal

; 3999 : 		{
; 4000 : 			number = gParty.m_PartyS[partynum].Number[n];

  001a5	6b 85 e8 fd ff
	ff 30		 imul	 eax, DWORD PTR _partynum$[ebp], 48
  001ac	8b 8d d8 fd ff
	ff		 mov	 ecx, DWORD PTR _n$12[ebp]
  001b2	8b 94 88 0c 00
	00 00		 mov	 edx, DWORD PTR ?gParty@@3VPartyClass@@A[eax+ecx*4+12]
  001b9	89 95 ec fd ff
	ff		 mov	 DWORD PTR _number$[ebp], edx

; 4001 : 			if( number >= 0 )

  001bf	83 bd ec fd ff
	ff 00		 cmp	 DWORD PTR _number$[ebp], 0
  001c6	0f 8c ad 02 00
	00		 jl	 $LN13@SkillRecal

; 4002 : 			{
; 4003 : 				lpPartyObj = (LPOBJECTSTRUCT)&gObj[number];

  001cc	69 85 ec fd ff
	ff a0 1b 00 00	 imul	 eax, DWORD PTR _number$[ebp], 7072
  001d6	03 05 00 00 00
	00		 add	 eax, DWORD PTR ?gObj@@3PAVOBJECTSTRUCT@@A ; gObj
  001dc	89 85 e0 fd ff
	ff		 mov	 DWORD PTR _lpPartyObj$[ebp], eax

; 4004 : #ifdef ADD_NEWPVP_PKFIELD
; 4005 : 				// 결투중 파티소환이 안되도록 수정
; 4006 : 				if (g_NewPVP.IsDuel(*lpPartyObj))
; 4007 : 				{
; 4008 : 					//"%s님은 결투중입니다. 결투중에는 소환이 불가능 합니다."
; 4009 : 					char szMsg[255];
; 4010 : 					wsprintf(szMsg, lMsg.Get(3433), lpPartyObj->Name);
; 4011 : 					GCServerMsgStringSend(szMsg, lpObj->m_Index, 1);
; 4012 : 
; 4013 : 					continue;
; 4014 : 				}
; 4015 : #endif // ADD_NEWPVP_PKFIELD
; 4016 : 
; 4017 : 				if( lpPartyObj->m_Index != lpObj->m_Index )

  001e2	8b 85 e0 fd ff
	ff		 mov	 eax, DWORD PTR _lpPartyObj$[ebp]
  001e8	8b 4d f0	 mov	 ecx, DWORD PTR _lpObj$[ebp]
  001eb	8b 10		 mov	 edx, DWORD PTR [eax]
  001ed	3b 11		 cmp	 edx, DWORD PTR [ecx]
  001ef	0f 84 84 02 00
	00		 je	 $LN13@SkillRecal

; 4018 : 				{
; 4019 : 
; 4020 : #ifdef MODIFY_DARKLORD_RECALL_IN_CASTLESIEGE_TIME_20051219
; 4021 : #ifdef CASTLE_MAIN_SCHEDULER_20041111
; 4022 : 					// 공성전 중에는 다른 연합의 파티원은 소환되지 않는다.
; 4023 : 					if( g_CastleSiege.GetCastleState() == CASTLESIEGE_STATE_STARTSIEGE )
; 4024 : 					{
; 4025 : 						if( lpPartyObj->m_btCsJoinSide != lpObj->m_btCsJoinSide )
; 4026 : 						{
; 4027 : 							continue;
; 4028 : 						}
; 4029 : 					}
; 4030 : 
; 4031 : #endif // CASTLE_MAIN_SCHEDULER_20041111
; 4032 : 
; 4033 : #endif // MODIFY_DARKLORD_RECALL_IN_CASTLESIEGE_TIME_20051219
; 4034 : 
; 4035 : 
; 4036 : 
; 4037 : 
; 4038 : 					// 1. 이동 레벨 조건 판단
; 4039 : 					int movelevel = gMoveCommand.GetMoveLevel(lpObj->MapNumber, lpObj->X, lpObj->Y, lpPartyObj->Class);

  001f5	8b 85 e0 fd ff
	ff		 mov	 eax, DWORD PTR _lpPartyObj$[ebp]
  001fb	0f b7 88 9c 00
	00 00		 movzx	 ecx, WORD PTR [eax+156]
  00202	51		 push	 ecx
  00203	8b 55 f0	 mov	 edx, DWORD PTR _lpObj$[ebp]
  00206	0f bf 82 06 01
	00 00		 movsx	 eax, WORD PTR [edx+262]
  0020d	50		 push	 eax
  0020e	8b 4d f0	 mov	 ecx, DWORD PTR _lpObj$[ebp]
  00211	0f bf 91 04 01
	00 00		 movsx	 edx, WORD PTR [ecx+260]
  00218	52		 push	 edx
  00219	8b 45 f0	 mov	 eax, DWORD PTR _lpObj$[ebp]
  0021c	0f b6 88 09 01
	00 00		 movzx	 ecx, BYTE PTR [eax+265]
  00223	51		 push	 ecx
  00224	b9 00 00 00 00	 mov	 ecx, OFFSET ?gMoveCommand@@3VCMoveCommand@@A ; gMoveCommand
  00229	e8 00 00 00 00	 call	 ?GetMoveLevel@CMoveCommand@@QAEHHHHH@Z ; CMoveCommand::GetMoveLevel
  0022e	89 85 d4 fd ff
	ff		 mov	 DWORD PTR _movelevel$11[ebp], eax

; 4040 : 
; 4041 : #ifdef MODIFY_DARKLORD_SKILL_RECALL_PARTY_20040831
; 4042 : 					// 0. 주요 제약 조건 판단 - 블러드 캐슬, 카오스 캐슬, 데빌스퀘어, 칼리마 등
; 4043 : 					BOOL bCheckMainToMove = gMoveCommand.CheckMainToMove( lpPartyObj );

  00234	8b 85 e0 fd ff
	ff		 mov	 eax, DWORD PTR _lpPartyObj$[ebp]
  0023a	50		 push	 eax
  0023b	b9 00 00 00 00	 mov	 ecx, OFFSET ?gMoveCommand@@3VCMoveCommand@@A ; gMoveCommand
  00240	e8 00 00 00 00	 call	 ?CheckMainToMove@CMoveCommand@@QAEHPAVOBJECTSTRUCT@@@Z ; CMoveCommand::CheckMainToMove
  00245	89 85 d0 fd ff
	ff		 mov	 DWORD PTR _bCheckMainToMove$10[ebp], eax

; 4044 : 					
; 4045 : 					// 2. 이동 아이템 장착 조건 판단
; 4046 : 					BOOL bCheckEquipmentToMove = gMoveCommand.CheckEquipmentToMove( lpPartyObj, lpObj->MapNumber );

  0024b	8b 45 f0	 mov	 eax, DWORD PTR _lpObj$[ebp]
  0024e	0f b6 88 09 01
	00 00		 movzx	 ecx, BYTE PTR [eax+265]
  00255	51		 push	 ecx
  00256	8b 95 e0 fd ff
	ff		 mov	 edx, DWORD PTR _lpPartyObj$[ebp]
  0025c	52		 push	 edx
  0025d	b9 00 00 00 00	 mov	 ecx, OFFSET ?gMoveCommand@@3VCMoveCommand@@A ; gMoveCommand
  00262	e8 00 00 00 00	 call	 ?CheckEquipmentToMove@CMoveCommand@@QAEHPAVOBJECTSTRUCT@@H@Z ; CMoveCommand::CheckEquipmentToMove
  00267	89 85 cc fd ff
	ff		 mov	 DWORD PTR _bCheckEquipmentToMove$9[ebp], eax

; 4047 : 	
; 4048 : 					// 3. 이동 인터페이스 조건 판다
; 4049 : 					BOOL bCheckInterfaceToMove = gMoveCommand.CheckInterfaceToMove( lpPartyObj );

  0026d	8b 85 e0 fd ff
	ff		 mov	 eax, DWORD PTR _lpPartyObj$[ebp]
  00273	50		 push	 eax
  00274	b9 00 00 00 00	 mov	 ecx, OFFSET ?gMoveCommand@@3VCMoveCommand@@A ; gMoveCommand
  00279	e8 00 00 00 00	 call	 ?CheckInterfaceToMove@CMoveCommand@@QAEHPAVOBJECTSTRUCT@@@Z ; CMoveCommand::CheckInterfaceToMove
  0027e	89 85 c8 fd ff
	ff		 mov	 DWORD PTR _bCheckInterfaceToMove$8[ebp], eax

; 4050 : #endif
; 4051 : 
; 4052 : 
; 4053 : #ifdef MODIFY_DARKLORD_SKILL_RECALL_PARTY_20040831
; 4054 : 					if( lpPartyObj->Level >= movelevel && movelevel != -1 
; 4055 : 						&& bCheckMainToMove && bCheckEquipmentToMove && bCheckInterfaceToMove	)

  00284	8b 85 e0 fd ff
	ff		 mov	 eax, DWORD PTR _lpPartyObj$[ebp]
  0028a	0f bf 88 a0 00
	00 00		 movsx	 ecx, WORD PTR [eax+160]
  00291	3b 8d d4 fd ff
	ff		 cmp	 ecx, DWORD PTR _movelevel$11[ebp]
  00297	0f 8c a1 01 00
	00		 jl	 $LN15@SkillRecal
  0029d	83 bd d4 fd ff
	ff ff		 cmp	 DWORD PTR _movelevel$11[ebp], -1
  002a4	0f 84 94 01 00
	00		 je	 $LN15@SkillRecal
  002aa	83 bd d0 fd ff
	ff 00		 cmp	 DWORD PTR _bCheckMainToMove$10[ebp], 0
  002b1	0f 84 87 01 00
	00		 je	 $LN15@SkillRecal
  002b7	83 bd cc fd ff
	ff 00		 cmp	 DWORD PTR _bCheckEquipmentToMove$9[ebp], 0
  002be	0f 84 7a 01 00
	00		 je	 $LN15@SkillRecal
  002c4	83 bd c8 fd ff
	ff 00		 cmp	 DWORD PTR _bCheckInterfaceToMove$8[ebp], 0
  002cb	0f 84 6d 01 00
	00		 je	 $LN15@SkillRecal

; 4056 : #else
; 4057 : 					if( lpPartyObj->Level >= movelevel && movelevel != -1)
; 4058 : #endif
; 4059 : 
; 4060 : 					//if( lpPartyObj->MapNumber == lpObj->MapNumber )
; 4061 : 					{	
; 4062 : 						int		addx, addy;
; 4063 : 
; 4064 : 						int count = 50;

  002d1	c7 85 bc fd ff
	ff 32 00 00 00	 mov	 DWORD PTR _count$5[ebp], 50 ; 00000032H

; 4065 : 						BOOL	Find = FALSE;

  002db	c7 85 b8 fd ff
	ff 00 00 00 00	 mov	 DWORD PTR _Find$4[ebp], 0
$LN5@SkillRecal:

; 4066 : 						while(count--)

  002e5	8b 85 bc fd ff
	ff		 mov	 eax, DWORD PTR _count$5[ebp]
  002eb	89 85 f4 f9 ff
	ff		 mov	 DWORD PTR tv197[ebp], eax
  002f1	8b 8d bc fd ff
	ff		 mov	 ecx, DWORD PTR _count$5[ebp]
  002f7	83 e9 01	 sub	 ecx, 1
  002fa	89 8d bc fd ff
	ff		 mov	 DWORD PTR _count$5[ebp], ecx
  00300	83 bd f4 f9 ff
	ff 00		 cmp	 DWORD PTR tv197[ebp], 0
  00307	74 75		 je	 SHORT $LN6@SkillRecal

; 4067 : 						{
; 4068 : 							addx = lpObj->X+(-4+rand()%9);

  00309	8b 45 f0	 mov	 eax, DWORD PTR _lpObj$[ebp]
  0030c	0f bf b0 04 01
	00 00		 movsx	 esi, WORD PTR [eax+260]
  00313	e8 00 00 00 00	 call	 _rand
  00318	99		 cdq
  00319	b9 09 00 00 00	 mov	 ecx, 9
  0031e	f7 f9		 idiv	 ecx
  00320	8d 54 16 fc	 lea	 edx, DWORD PTR [esi+edx-4]
  00324	89 95 c4 fd ff
	ff		 mov	 DWORD PTR _addx$7[ebp], edx

; 4069 : 							addy = lpObj->Y+(-4+rand()%9);

  0032a	8b 45 f0	 mov	 eax, DWORD PTR _lpObj$[ebp]
  0032d	0f bf b0 06 01
	00 00		 movsx	 esi, WORD PTR [eax+262]
  00334	e8 00 00 00 00	 call	 _rand
  00339	99		 cdq
  0033a	b9 09 00 00 00	 mov	 ecx, 9
  0033f	f7 f9		 idiv	 ecx
  00341	8d 54 16 fc	 lea	 edx, DWORD PTR [esi+edx-4]
  00345	89 95 c0 fd ff
	ff		 mov	 DWORD PTR _addy$6[ebp], edx

; 4070 : 							if( gObjCheckTeleportArea(lpObj->m_Index, addx, addy) )

  0034b	0f b6 85 c0 fd
	ff ff		 movzx	 eax, BYTE PTR _addy$6[ebp]
  00352	50		 push	 eax
  00353	0f b6 8d c4 fd
	ff ff		 movzx	 ecx, BYTE PTR _addx$7[ebp]
  0035a	51		 push	 ecx
  0035b	8b 55 f0	 mov	 edx, DWORD PTR _lpObj$[ebp]
  0035e	8b 02		 mov	 eax, DWORD PTR [edx]
  00360	50		 push	 eax
  00361	e8 00 00 00 00	 call	 ?gObjCheckTeleportArea@@YAHHEE@Z ; gObjCheckTeleportArea
  00366	83 c4 0c	 add	 esp, 12			; 0000000cH
  00369	85 c0		 test	 eax, eax
  0036b	74 0c		 je	 SHORT $LN17@SkillRecal

; 4071 : 							{
; 4072 : 								Find =TRUE;

  0036d	c7 85 b8 fd ff
	ff 01 00 00 00	 mov	 DWORD PTR _Find$4[ebp], 1

; 4073 : 								break;

  00377	eb 05		 jmp	 SHORT $LN6@SkillRecal
$LN17@SkillRecal:

; 4074 : 							}
; 4075 : 						}

  00379	e9 67 ff ff ff	 jmp	 $LN5@SkillRecal
$LN6@SkillRecal:

; 4076 : 
; 4077 : 						if( !Find )

  0037e	83 bd b8 fd ff
	ff 00		 cmp	 DWORD PTR _Find$4[ebp], 0
  00385	75 20		 jne	 SHORT $LN18@SkillRecal

; 4078 : 						{	// 소환 위치를 못 찾았을때는.. 소환자와 겹치게 한다.
; 4079 : 							addx = lpObj->X;

  00387	8b 45 f0	 mov	 eax, DWORD PTR _lpObj$[ebp]
  0038a	0f bf 88 04 01
	00 00		 movsx	 ecx, WORD PTR [eax+260]
  00391	89 8d c4 fd ff
	ff		 mov	 DWORD PTR _addx$7[ebp], ecx

; 4080 : 							addy = lpObj->Y;

  00397	8b 45 f0	 mov	 eax, DWORD PTR _lpObj$[ebp]
  0039a	0f bf 88 06 01
	00 00		 movsx	 ecx, WORD PTR [eax+262]
  003a1	89 8d c0 fd ff
	ff		 mov	 DWORD PTR _addy$6[ebp], ecx
$LN18@SkillRecal:

; 4081 : 						}
; 4082 : 
; 4083 : 						lpPartyObj->SkillRecallParty_Time = 7;

  003a7	b8 07 00 00 00	 mov	 eax, 7
  003ac	8b 8d e0 fd ff
	ff		 mov	 ecx, DWORD PTR _lpPartyObj$[ebp]
  003b2	66 89 81 7c 10
	00 00		 mov	 WORD PTR [ecx+4220], ax

; 4084 : 						lpPartyObj->SkillRecallParty_MapNumber = lpObj->MapNumber;

  003b9	8b 85 e0 fd ff
	ff		 mov	 eax, DWORD PTR _lpPartyObj$[ebp]
  003bf	8b 4d f0	 mov	 ecx, DWORD PTR _lpObj$[ebp]
  003c2	8a 91 09 01 00
	00		 mov	 dl, BYTE PTR [ecx+265]
  003c8	88 90 7e 10 00
	00		 mov	 BYTE PTR [eax+4222], dl

; 4085 : 						lpPartyObj->SkillRecallParty_X = addx;

  003ce	8b 85 e0 fd ff
	ff		 mov	 eax, DWORD PTR _lpPartyObj$[ebp]
  003d4	8a 8d c4 fd ff
	ff		 mov	 cl, BYTE PTR _addx$7[ebp]
  003da	88 88 7f 10 00
	00		 mov	 BYTE PTR [eax+4223], cl

; 4086 : 						lpPartyObj->SkillRecallParty_Y = addy;

  003e0	8b 85 e0 fd ff
	ff		 mov	 eax, DWORD PTR _lpPartyObj$[ebp]
  003e6	8a 8d c0 fd ff
	ff		 mov	 cl, BYTE PTR _addy$6[ebp]
  003ec	88 88 80 10 00
	00		 mov	 BYTE PTR [eax+4224], cl

; 4087 : #ifdef MODIFY_RECALLSKIL_BUGFIX_20081107
; 4088 : 						if( lpObj->MapNumber == MAP_INDEX_RAKLION_BOSS ) {
; 4089 : 							// 라클리온 보스존에 들어오면 추가 시켜준다.
; 4090 : 							g_RaklionBattleUserMng.AddUserData(lpPartyObj->m_Index);
; 4091 : 						}
; 4092 : #endif //MODIFY_RECALLSKIL_BUGFIX_20081107
; 4093 : 						
; 4094 : 
; 4095 : 
; 4096 : 						char msg[255];
; 4097 : 						wsprintf(msg, lMsg.Get(1251));	// 소환 예정입니다. 움직일 경우 취소 됩니다

  003f2	68 e3 04 00 00	 push	 1251			; 000004e3H
  003f7	b9 00 00 00 00	 mov	 ecx, OFFSET ?lMsg@@3VCMsg@@A ; lMsg
  003fc	ff 15 00 00 00
	00		 call	 DWORD PTR __imp_?Get@CMsg@@QAEPADH@Z
  00402	50		 push	 eax
  00403	8d 85 b8 fc ff
	ff		 lea	 eax, DWORD PTR _msg$3[ebp]
  00409	50		 push	 eax
  0040a	ff 15 00 00 00
	00		 call	 DWORD PTR __imp__wsprintfA
  00410	83 c4 08	 add	 esp, 8

; 4098 : 						GCServerMsgStringSend(msg, lpPartyObj->m_Index, 1);	

  00413	6a 01		 push	 1
  00415	8b 85 e0 fd ff
	ff		 mov	 eax, DWORD PTR _lpPartyObj$[ebp]
  0041b	8b 08		 mov	 ecx, DWORD PTR [eax]
  0041d	51		 push	 ecx
  0041e	8d 95 b8 fc ff
	ff		 lea	 edx, DWORD PTR _msg$3[ebp]
  00424	52		 push	 edx
  00425	e8 00 00 00 00	 call	 ?GCServerMsgStringSend@@YAXPADHE@Z ; GCServerMsgStringSend
  0042a	83 c4 0c	 add	 esp, 12			; 0000000cH

; 4099 : 						recallcount++;

  0042d	8b 85 dc fd ff
	ff		 mov	 eax, DWORD PTR _recallcount$[ebp]
  00433	83 c0 01	 add	 eax, 1
  00436	89 85 dc fd ff
	ff		 mov	 DWORD PTR _recallcount$[ebp], eax

; 4100 : 						//gObjRecall(lpPartyObj->m_Index, lpObj->MapNumber, addx, addy);
; 4101 : 					}

  0043c	eb 3b		 jmp	 SHORT $LN13@SkillRecal
$LN15@SkillRecal:

; 4102 : 					else
; 4103 : 					{
; 4104 : 						char msg[255];						
; 4105 : 						wsprintf(msg, lMsg.Get(1252));	// 이동할수 없습니다

  0043e	68 e4 04 00 00	 push	 1252			; 000004e4H
  00443	b9 00 00 00 00	 mov	 ecx, OFFSET ?lMsg@@3VCMsg@@A ; lMsg
  00448	ff 15 00 00 00
	00		 call	 DWORD PTR __imp_?Get@CMsg@@QAEPADH@Z
  0044e	50		 push	 eax
  0044f	8d 85 b8 fb ff
	ff		 lea	 eax, DWORD PTR _msg$2[ebp]
  00455	50		 push	 eax
  00456	ff 15 00 00 00
	00		 call	 DWORD PTR __imp__wsprintfA
  0045c	83 c4 08	 add	 esp, 8

; 4106 : 						GCServerMsgStringSend(msg, lpPartyObj->m_Index, 1);	

  0045f	6a 01		 push	 1
  00461	8b 85 e0 fd ff
	ff		 mov	 eax, DWORD PTR _lpPartyObj$[ebp]
  00467	8b 08		 mov	 ecx, DWORD PTR [eax]
  00469	51		 push	 ecx
  0046a	8d 95 b8 fb ff
	ff		 lea	 edx, DWORD PTR _msg$2[ebp]
  00470	52		 push	 edx
  00471	e8 00 00 00 00	 call	 ?GCServerMsgStringSend@@YAXPADHE@Z ; GCServerMsgStringSend
  00476	83 c4 0c	 add	 esp, 12			; 0000000cH
$LN13@SkillRecal:

; 4107 : 					}
; 4108 : 				}
; 4109 : 			}
; 4110 : 		}

  00479	e9 0b fd ff ff	 jmp	 $LN2@SkillRecal
$LN12@SkillRecal:

; 4111 : 	}
; 4112 : 
; 4113 : 	if( recallcount )

  0047e	83 bd dc fd ff
	ff 00		 cmp	 DWORD PTR _recallcount$[ebp], 0
  00485	74 3f		 je	 SHORT $LN1@SkillRecal

; 4114 : 	{
; 4115 : 		char msg[255];
; 4116 : 		wsprintf(msg, lMsg.Get(1244), recallcount);	// %d명을 소환합니다

  00487	8b 85 dc fd ff
	ff		 mov	 eax, DWORD PTR _recallcount$[ebp]
  0048d	50		 push	 eax
  0048e	68 dc 04 00 00	 push	 1244			; 000004dcH
  00493	b9 00 00 00 00	 mov	 ecx, OFFSET ?lMsg@@3VCMsg@@A ; lMsg
  00498	ff 15 00 00 00
	00		 call	 DWORD PTR __imp_?Get@CMsg@@QAEPADH@Z
  0049e	50		 push	 eax
  0049f	8d 8d b8 fa ff
	ff		 lea	 ecx, DWORD PTR _msg$1[ebp]
  004a5	51		 push	 ecx
  004a6	ff 15 00 00 00
	00		 call	 DWORD PTR __imp__wsprintfA
  004ac	83 c4 0c	 add	 esp, 12			; 0000000cH

; 4117 : 		GCServerMsgStringSend(msg, lpObj->m_Index, 1);	

  004af	6a 01		 push	 1
  004b1	8b 45 f0	 mov	 eax, DWORD PTR _lpObj$[ebp]
  004b4	8b 08		 mov	 ecx, DWORD PTR [eax]
  004b6	51		 push	 ecx
  004b7	8d 95 b8 fa ff
	ff		 lea	 edx, DWORD PTR _msg$1[ebp]
  004bd	52		 push	 edx
  004be	e8 00 00 00 00	 call	 ?GCServerMsgStringSend@@YAXPADHE@Z ; GCServerMsgStringSend
  004c3	83 c4 0c	 add	 esp, 12			; 0000000cH
$LN1@SkillRecal:

; 4118 : 	}
; 4119 : }

  004c6	5f		 pop	 edi
  004c7	5e		 pop	 esi
  004c8	5b		 pop	 ebx
  004c9	8b 4d fc	 mov	 ecx, DWORD PTR __$ArrayPad$[ebp]
  004cc	33 cd		 xor	 ecx, ebp
  004ce	e8 00 00 00 00	 call	 @__security_check_cookie@4
  004d3	8b e5		 mov	 esp, ebp
  004d5	5d		 pop	 ebp
  004d6	c2 08 00	 ret	 8
?SkillRecallParty@CObjUseSkill@@QAEXHH@Z ENDP		; CObjUseSkill::SkillRecallParty
_TEXT	ENDS
; Function compile flags: /Odtp /ZI
; File C:\Mu Online\Mu-GS-Webzen-MC-10093\GameServer\ObjUseSkill.cpp
;	COMDAT ?RecallPartyCheck@CObjUseSkill@@QAEHHH@Z
_TEXT	SEGMENT
_n$1 = -32						; size = 4
_recallcount$ = -28					; size = 4
_lpPartyObj$ = -24					; size = 4
_partycount$ = -20					; size = 4
_partynum$ = -16					; size = 4
_number$ = -12						; size = 4
_lpObj$ = -8						; size = 4
_this$ = -4						; size = 4
_aIndex$ = 8						; size = 4
_skill_level$ = 12					; size = 4
?RecallPartyCheck@CObjUseSkill@@QAEHHH@Z PROC		; CObjUseSkill::RecallPartyCheck, COMDAT
; _this$ = ecx

; 3893 : {

  00000	55		 push	 ebp
  00001	8b ec		 mov	 ebp, esp
  00003	83 ec 60	 sub	 esp, 96			; 00000060H
  00006	53		 push	 ebx
  00007	56		 push	 esi
  00008	57		 push	 edi
  00009	89 4d fc	 mov	 DWORD PTR _this$[ebp], ecx

; 3894 : 	LPOBJECTSTRUCT lpObj= &gObj[aIndex];

  0000c	69 45 08 a0 1b
	00 00		 imul	 eax, DWORD PTR _aIndex$[ebp], 7072
  00013	03 05 00 00 00
	00		 add	 eax, DWORD PTR ?gObj@@3PAVOBJECTSTRUCT@@A ; gObj
  00019	89 45 f8	 mov	 DWORD PTR _lpObj$[ebp], eax

; 3895 : 
; 3896 : 	int number;
; 3897 : 	int partynum=0, partycount;

  0001c	c7 45 f0 00 00
	00 00		 mov	 DWORD PTR _partynum$[ebp], 0

; 3898 : 	
; 3899 : 	LPOBJECTSTRUCT lpPartyObj;
; 3900 : 	partynum = lpObj->PartyNumber;	

  00023	8b 45 f8	 mov	 eax, DWORD PTR _lpObj$[ebp]
  00026	8b 88 88 02 00
	00		 mov	 ecx, DWORD PTR [eax+648]
  0002c	89 4d f0	 mov	 DWORD PTR _partynum$[ebp], ecx

; 3901 : 
; 3902 : 	int recallcount = 0;

  0002f	c7 45 e4 00 00
	00 00		 mov	 DWORD PTR _recallcount$[ebp], 0

; 3903 : 
; 3904 : 	if( partynum != -1 )

  00036	83 7d f0 ff	 cmp	 DWORD PTR _partynum$[ebp], -1
  0003a	0f 84 84 00 00
	00		 je	 $LN5@RecallPart

; 3905 : 	{
; 3906 : 		partycount = gParty.m_PartyS[partynum].Count;

  00040	6b 45 f0 30	 imul	 eax, DWORD PTR _partynum$[ebp], 48
  00044	8b 88 08 00 00
	00		 mov	 ecx, DWORD PTR ?gParty@@3VPartyClass@@A[eax+8]
  0004a	89 4d ec	 mov	 DWORD PTR _partycount$[ebp], ecx

; 3907 : 		for( int n=0; n<MAX_PARTYUSER; n++)

  0004d	c7 45 e0 00 00
	00 00		 mov	 DWORD PTR _n$1[ebp], 0
  00054	eb 09		 jmp	 SHORT $LN4@RecallPart
$LN2@RecallPart:
  00056	8b 45 e0	 mov	 eax, DWORD PTR _n$1[ebp]
  00059	83 c0 01	 add	 eax, 1
  0005c	89 45 e0	 mov	 DWORD PTR _n$1[ebp], eax
$LN4@RecallPart:
  0005f	83 7d e0 05	 cmp	 DWORD PTR _n$1[ebp], 5
  00063	7d 5f		 jge	 SHORT $LN5@RecallPart

; 3908 : 		{
; 3909 : 			number = gParty.m_PartyS[partynum].Number[n];

  00065	6b 45 f0 30	 imul	 eax, DWORD PTR _partynum$[ebp], 48
  00069	8b 4d e0	 mov	 ecx, DWORD PTR _n$1[ebp]
  0006c	8b 94 88 0c 00
	00 00		 mov	 edx, DWORD PTR ?gParty@@3VPartyClass@@A[eax+ecx*4+12]
  00073	89 55 f4	 mov	 DWORD PTR _number$[ebp], edx

; 3910 : 			if( number >= 0 )

  00076	83 7d f4 00	 cmp	 DWORD PTR _number$[ebp], 0
  0007a	7c 46		 jl	 SHORT $LN6@RecallPart

; 3911 : 			{
; 3912 : 				lpPartyObj = (LPOBJECTSTRUCT)&gObj[number];

  0007c	69 45 f4 a0 1b
	00 00		 imul	 eax, DWORD PTR _number$[ebp], 7072
  00083	03 05 00 00 00
	00		 add	 eax, DWORD PTR ?gObj@@3PAVOBJECTSTRUCT@@A ; gObj
  00089	89 45 e8	 mov	 DWORD PTR _lpPartyObj$[ebp], eax

; 3913 : 
; 3914 : 				if( lpPartyObj->m_Index != lpObj->m_Index )

  0008c	8b 45 e8	 mov	 eax, DWORD PTR _lpPartyObj$[ebp]
  0008f	8b 4d f8	 mov	 ecx, DWORD PTR _lpObj$[ebp]
  00092	8b 10		 mov	 edx, DWORD PTR [eax]
  00094	3b 11		 cmp	 edx, DWORD PTR [ecx]
  00096	74 2a		 je	 SHORT $LN6@RecallPart

; 3915 : 				{
; 3916 : 					if( lpPartyObj->MapNumber == lpObj->MapNumber )

  00098	8b 45 e8	 mov	 eax, DWORD PTR _lpPartyObj$[ebp]
  0009b	0f b6 88 09 01
	00 00		 movzx	 ecx, BYTE PTR [eax+265]
  000a2	8b 55 f8	 mov	 edx, DWORD PTR _lpObj$[ebp]
  000a5	0f b6 82 09 01
	00 00		 movzx	 eax, BYTE PTR [edx+265]
  000ac	3b c8		 cmp	 ecx, eax
  000ae	75 12		 jne	 SHORT $LN6@RecallPart

; 3917 : 					{	
; 3918 : 						if( lpPartyObj->SkillRecallParty_Time != 0 )

  000b0	8b 45 e8	 mov	 eax, DWORD PTR _lpPartyObj$[ebp]
  000b3	0f b7 88 7c 10
	00 00		 movzx	 ecx, WORD PTR [eax+4220]
  000ba	85 c9		 test	 ecx, ecx
  000bc	74 04		 je	 SHORT $LN6@RecallPart

; 3919 : 							return FALSE;

  000be	33 c0		 xor	 eax, eax
  000c0	eb 07		 jmp	 SHORT $LN1@RecallPart
$LN6@RecallPart:

; 3920 : 					}
; 3921 : 				}
; 3922 : 			}
; 3923 : 		}

  000c2	eb 92		 jmp	 SHORT $LN2@RecallPart
$LN5@RecallPart:

; 3924 : 	}
; 3925 : 	return TRUE;

  000c4	b8 01 00 00 00	 mov	 eax, 1
$LN1@RecallPart:

; 3926 : }

  000c9	5f		 pop	 edi
  000ca	5e		 pop	 esi
  000cb	5b		 pop	 ebx
  000cc	8b e5		 mov	 esp, ebp
  000ce	5d		 pop	 ebp
  000cf	c2 08 00	 ret	 8
?RecallPartyCheck@CObjUseSkill@@QAEHHH@Z ENDP		; CObjUseSkill::RecallPartyCheck
_TEXT	ENDS
; Function compile flags: /Odtp /ZI
; File C:\Mu Online\Mu-GS-Webzen-MC-10093\GameServer\ObjUseSkill.cpp
;	COMDAT ?SkillDarkHorseAttack@CObjUseSkill@@QAEHHHPAVCMagicInf@@@Z
_TEXT	SEGMENT
_CallMonIndex$1 = -36					; size = 4
_EnableAttack$ = -32					; size = 4
_DuelIndex$ = -28					; size = 4
_bAttack$ = -24						; size = 4
_HitCount$ = -20					; size = 4
_count$ = -16						; size = 4
_tObjNum$ = -12						; size = 4
_lpObj$ = -8						; size = 4
_this$ = -4						; size = 4
_aIndex$ = 8						; size = 4
_aTargetIndex$ = 12					; size = 4
_lpMagic$ = 16						; size = 4
?SkillDarkHorseAttack@CObjUseSkill@@QAEHHHPAVCMagicInf@@@Z PROC ; CObjUseSkill::SkillDarkHorseAttack, COMDAT
; _this$ = ecx

; 3780 : {	

  00000	55		 push	 ebp
  00001	8b ec		 mov	 ebp, esp
  00003	83 ec 64	 sub	 esp, 100		; 00000064H
  00006	53		 push	 ebx
  00007	56		 push	 esi
  00008	57		 push	 edi
  00009	89 4d fc	 mov	 DWORD PTR _this$[ebp], ecx

; 3781 : 	//return;
; 3782 : 	LPOBJECTSTRUCT lpObj= &gObj[aIndex];

  0000c	69 45 08 a0 1b
	00 00		 imul	 eax, DWORD PTR _aIndex$[ebp], 7072
  00013	03 05 00 00 00
	00		 add	 eax, DWORD PTR ?gObj@@3PAVOBJECTSTRUCT@@A ; gObj
  00019	89 45 f8	 mov	 DWORD PTR _lpObj$[ebp], eax

; 3783 : 
; 3784 : 	int tObjNum;
; 3785 : 	int count = 0;

  0001c	c7 45 f0 00 00
	00 00		 mov	 DWORD PTR _count$[ebp], 0

; 3786 : 	int	HitCount = 0;

  00023	c7 45 ec 00 00
	00 00		 mov	 DWORD PTR _HitCount$[ebp], 0

; 3787 : 	int	bAttack;
; 3788 : 
; 3789 : 
; 3790 : #ifdef DUEL_SYSTEM_20031028
; 3791 : 	int DuelIndex = lpObj->m_iDuelUser;

  0002a	8b 45 f8	 mov	 eax, DWORD PTR _lpObj$[ebp]
  0002d	8b 88 ec 0c 00
	00		 mov	 ecx, DWORD PTR [eax+3308]
  00033	89 4d e4	 mov	 DWORD PTR _DuelIndex$[ebp], ecx

; 3792 : #endif
; 3793 : 
; 3794 : 	GCMagicAttackNumberSend(lpObj, AT_SKILL_DARKHORSE_ATTACK, lpObj->m_Index, 1);

  00036	6a 01		 push	 1
  00038	8b 45 f8	 mov	 eax, DWORD PTR _lpObj$[ebp]
  0003b	8b 08		 mov	 ecx, DWORD PTR [eax]
  0003d	51		 push	 ecx
  0003e	6a 3e		 push	 62			; 0000003eH
  00040	8b 55 f8	 mov	 edx, DWORD PTR _lpObj$[ebp]
  00043	52		 push	 edx
  00044	e8 00 00 00 00	 call	 ?GCMagicAttackNumberSend@@YAXPAVOBJECTSTRUCT@@EHE@Z ; GCMagicAttackNumberSend
  00049	83 c4 10	 add	 esp, 16			; 00000010H
$LN2@SkillDarkH:

; 3795 : 
; 3796 : 	BOOL	EnableAttack;
; 3797 : 
; 3798 : 	while(1)

  0004c	b8 01 00 00 00	 mov	 eax, 1
  00051	85 c0		 test	 eax, eax
  00053	0f 84 f4 01 00
	00		 je	 $LN3@SkillDarkH

; 3799 : 	{
; 3800 : 		if( lpObj->VpPlayer2[count].state )

  00059	6b 45 f0 0c	 imul	 eax, DWORD PTR _count$[ebp], 12
  0005d	8b 4d f8	 mov	 ecx, DWORD PTR _lpObj$[ebp]
  00060	0f be 94 01 e8
	06 00 00	 movsx	 edx, BYTE PTR [ecx+eax+1768]
  00068	85 d2		 test	 edx, edx
  0006a	0f 84 c7 01 00
	00		 je	 $LN4@SkillDarkH

; 3801 : 		{
; 3802 : 			tObjNum = lpObj->VpPlayer2[count].number;

  00070	6b 45 f0 0c	 imul	 eax, DWORD PTR _count$[ebp], 12
  00074	8b 4d f8	 mov	 ecx, DWORD PTR _lpObj$[ebp]
  00077	0f bf 94 01 ea
	06 00 00	 movsx	 edx, WORD PTR [ecx+eax+1770]
  0007f	89 55 f4	 mov	 DWORD PTR _tObjNum$[ebp], edx

; 3803 : 			if( tObjNum >= 0 )

  00082	83 7d f4 00	 cmp	 DWORD PTR _tObjNum$[ebp], 0
  00086	0f 8c ab 01 00
	00		 jl	 $LN4@SkillDarkH

; 3804 : 			{
; 3805 : 				EnableAttack = FALSE;

  0008c	c7 45 e0 00 00
	00 00		 mov	 DWORD PTR _EnableAttack$[ebp], 0

; 3806 : 
; 3807 : 				if( gObj[tObjNum].Class < 100 || gObj[tObjNum].Class > 110) 

  00093	69 45 f4 a0 1b
	00 00		 imul	 eax, DWORD PTR _tObjNum$[ebp], 7072
  0009a	8b 0d 00 00 00
	00		 mov	 ecx, DWORD PTR ?gObj@@3PAVOBJECTSTRUCT@@A ; gObj
  000a0	0f b7 94 01 9c
	00 00 00	 movzx	 edx, WORD PTR [ecx+eax+156]
  000a8	83 fa 64	 cmp	 edx, 100		; 00000064H
  000ab	7c 1e		 jl	 SHORT $LN7@SkillDarkH
  000ad	69 45 f4 a0 1b
	00 00		 imul	 eax, DWORD PTR _tObjNum$[ebp], 7072
  000b4	8b 0d 00 00 00
	00		 mov	 ecx, DWORD PTR ?gObj@@3PAVOBJECTSTRUCT@@A ; gObj
  000ba	0f b7 94 01 9c
	00 00 00	 movzx	 edx, WORD PTR [ecx+eax+156]
  000c2	83 fa 6e	 cmp	 edx, 110		; 0000006eH
  000c5	0f 8e dd 00 00
	00		 jle	 $LN6@SkillDarkH
$LN7@SkillDarkH:

; 3808 : 				{	// 함정, 성문, 석상이 아니면.
; 3809 : 					if( ((lpObj->VpPlayer2[count].type == OBJTYPE_MONSTER) && (gObj[tObjNum].m_RecallMon < 0)) )

  000cb	6b 45 f0 0c	 imul	 eax, DWORD PTR _count$[ebp], 12
  000cf	8b 4d f8	 mov	 ecx, DWORD PTR _lpObj$[ebp]
  000d2	0f b6 94 01 ec
	06 00 00	 movzx	 edx, BYTE PTR [ecx+eax+1772]
  000da	83 fa 02	 cmp	 edx, 2
  000dd	75 23		 jne	 SHORT $LN8@SkillDarkH
  000df	69 45 f4 a0 1b
	00 00		 imul	 eax, DWORD PTR _tObjNum$[ebp], 7072
  000e6	8b 0d 00 00 00
	00		 mov	 ecx, DWORD PTR ?gObj@@3PAVOBJECTSTRUCT@@A ; gObj
  000ec	83 bc 01 a4 02
	00 00 00	 cmp	 DWORD PTR [ecx+eax+676], 0
  000f4	7d 0c		 jge	 SHORT $LN8@SkillDarkH

; 3810 : 					{	// 대상이 몬스터이고, 소환몹이 아니면 공격가능
; 3811 : 						EnableAttack = TRUE;

  000f6	c7 45 e0 01 00
	00 00		 mov	 DWORD PTR _EnableAttack$[ebp], 1

; 3812 : 					}

  000fd	e9 a6 00 00 00	 jmp	 $LN6@SkillDarkH
$LN8@SkillDarkH:

; 3813 : 					else if( tObjNum == aTargetIndex 
; 3814 : #ifdef DUEL_SYSTEM_20031028
; 3815 : 							 || DuelIndex == tObjNum

  00102	8b 45 f4	 mov	 eax, DWORD PTR _tObjNum$[ebp]
  00105	3b 45 0c	 cmp	 eax, DWORD PTR _aTargetIndex$[ebp]
  00108	74 08		 je	 SHORT $LN12@SkillDarkH
  0010a	8b 45 e4	 mov	 eax, DWORD PTR _DuelIndex$[ebp]
  0010d	3b 45 f4	 cmp	 eax, DWORD PTR _tObjNum$[ebp]
  00110	75 0c		 jne	 SHORT $LN10@SkillDarkH
$LN12@SkillDarkH:

; 3816 : #endif
; 3817 : 							 )
; 3818 : 					{	// 클라이언트에서 대상을 강제 공격했을때와 결투 대상일때는 공격가능
; 3819 : 						EnableAttack = TRUE;

  00112	c7 45 e0 01 00
	00 00		 mov	 DWORD PTR _EnableAttack$[ebp], 1

; 3820 : 					}

  00119	e9 8a 00 00 00	 jmp	 $LN6@SkillDarkH
$LN10@SkillDarkH:

; 3821 : #ifdef MODIFY_RANGEATTACK_CHECK_20050113		// 어스쉐이크는 공성전 중에 사람에게도 적용된다.
; 3822 : 					else if (
; 3823 : 						lpObj->VpPlayer2[count].type != OBJTYPE_NPC &&
; 3824 : 						gObj[tObjNum].MapNumber == MAP_INDEX_CASTLESIEGE &&
; 3825 : 						g_CastleSiege.GetCastleState() == CASTLESIEGE_STATE_STARTSIEGE
; 3826 : 						)
; 3827 : 					{
; 3828 : 						EnableAttack = TRUE;
; 3829 : 					}
; 3830 : #endif					
; 3831 : 					else
; 3832 : 					{	// 길드전 체크
; 3833 : 						int CallMonIndex = gObj[tObjNum].m_Index;

  0011e	69 45 f4 a0 1b
	00 00		 imul	 eax, DWORD PTR _tObjNum$[ebp], 7072
  00125	8b 0d 00 00 00
	00		 mov	 ecx, DWORD PTR ?gObj@@3PAVOBJECTSTRUCT@@A ; gObj
  0012b	8b 14 01	 mov	 edx, DWORD PTR [ecx+eax]
  0012e	89 55 dc	 mov	 DWORD PTR _CallMonIndex$1[ebp], edx

; 3834 : 						if( gObj[tObjNum].Type == OBJTYPE_MONSTER )

  00131	69 45 f4 a0 1b
	00 00		 imul	 eax, DWORD PTR _tObjNum$[ebp], 7072
  00138	8b 0d 00 00 00
	00		 mov	 ecx, DWORD PTR ?gObj@@3PAVOBJECTSTRUCT@@A ; gObj
  0013e	0f b7 54 01 64	 movzx	 edx, WORD PTR [ecx+eax+100]
  00143	83 fa 02	 cmp	 edx, 2
  00146	75 3a		 jne	 SHORT $LN13@SkillDarkH

; 3835 : 						{
; 3836 : 							if( gObj[tObjNum].m_RecallMon >= 0 ) 

  00148	69 45 f4 a0 1b
	00 00		 imul	 eax, DWORD PTR _tObjNum$[ebp], 7072
  0014f	8b 0d 00 00 00
	00		 mov	 ecx, DWORD PTR ?gObj@@3PAVOBJECTSTRUCT@@A ; gObj
  00155	83 bc 01 a4 02
	00 00 00	 cmp	 DWORD PTR [ecx+eax+676], 0
  0015d	7c 23		 jl	 SHORT $LN13@SkillDarkH

; 3837 : 							{
; 3838 : 								CallMonIndex = gObj[gObj[tObjNum].m_RecallMon].m_Index;

  0015f	69 45 f4 a0 1b
	00 00		 imul	 eax, DWORD PTR _tObjNum$[ebp], 7072
  00166	8b 0d 00 00 00
	00		 mov	 ecx, DWORD PTR ?gObj@@3PAVOBJECTSTRUCT@@A ; gObj
  0016c	69 94 01 a4 02
	00 00 a0 1b 00
	00		 imul	 edx, DWORD PTR [ecx+eax+676], 7072
  00177	a1 00 00 00 00	 mov	 eax, DWORD PTR ?gObj@@3PAVOBJECTSTRUCT@@A ; gObj
  0017c	8b 0c 10	 mov	 ecx, DWORD PTR [eax+edx]
  0017f	89 4d dc	 mov	 DWORD PTR _CallMonIndex$1[ebp], ecx
$LN13@SkillDarkH:

; 3839 : 							}
; 3840 : 						}
; 3841 : 						if( gObjTargetGuildWarCheck(lpObj, &gObj[CallMonIndex]) == TRUE )

  00182	69 45 dc a0 1b
	00 00		 imul	 eax, DWORD PTR _CallMonIndex$1[ebp], 7072
  00189	03 05 00 00 00
	00		 add	 eax, DWORD PTR ?gObj@@3PAVOBJECTSTRUCT@@A ; gObj
  0018f	50		 push	 eax
  00190	8b 4d f8	 mov	 ecx, DWORD PTR _lpObj$[ebp]
  00193	51		 push	 ecx
  00194	e8 00 00 00 00	 call	 ?gObjTargetGuildWarCheck@@YAHPAVOBJECTSTRUCT@@0@Z ; gObjTargetGuildWarCheck
  00199	83 c4 08	 add	 esp, 8
  0019c	83 f8 01	 cmp	 eax, 1
  0019f	75 07		 jne	 SHORT $LN6@SkillDarkH

; 3842 : 						{	// 대상이 길전상대이면 공격가능
; 3843 : 							EnableAttack = TRUE;

  001a1	c7 45 e0 01 00
	00 00		 mov	 DWORD PTR _EnableAttack$[ebp], 1
$LN6@SkillDarkH:

; 3844 : 						}
; 3845 : 					}
; 3846 : 				}
; 3847 : 
; 3848 : 				if( EnableAttack )

  001a8	83 7d e0 00	 cmp	 DWORD PTR _EnableAttack$[ebp], 0
  001ac	0f 84 85 00 00
	00		 je	 $LN4@SkillDarkH

; 3849 : 				{	
; 3850 : 					if( gObjCalDistance(lpObj, &gObj[tObjNum]) < 5 )

  001b2	69 45 f4 a0 1b
	00 00		 imul	 eax, DWORD PTR _tObjNum$[ebp], 7072
  001b9	03 05 00 00 00
	00		 add	 eax, DWORD PTR ?gObj@@3PAVOBJECTSTRUCT@@A ; gObj
  001bf	50		 push	 eax
  001c0	8b 4d f8	 mov	 ecx, DWORD PTR _lpObj$[ebp]
  001c3	51		 push	 ecx
  001c4	e8 00 00 00 00	 call	 ?gObjCalDistance@@YAHPAVOBJECTSTRUCT@@0@Z ; gObjCalDistance
  001c9	83 c4 08	 add	 esp, 8
  001cc	83 f8 05	 cmp	 eax, 5
  001cf	7d 66		 jge	 SHORT $LN4@SkillDarkH

; 3851 : 					{	
; 3852 : 						bAttack = FALSE;

  001d1	c7 45 e8 00 00
	00 00		 mov	 DWORD PTR _bAttack$[ebp], 0

; 3853 : 						if( HitCount > 15 )

  001d8	83 7d ec 0f	 cmp	 DWORD PTR _HitCount$[ebp], 15 ; 0000000fH
  001dc	7e 07		 jle	 SHORT $LN18@SkillDarkH

; 3854 : 						{
; 3855 : 							bAttack = FALSE;

  001de	c7 45 e8 00 00
	00 00		 mov	 DWORD PTR _bAttack$[ebp], 0
$LN18@SkillDarkH:

; 3856 : 						}
; 3857 : 						if( HitCount >= 10 )

  001e5	83 7d ec 0a	 cmp	 DWORD PTR _HitCount$[ebp], 10 ; 0000000aH
  001e9	7c 1e		 jl	 SHORT $LN19@SkillDarkH

; 3858 : 						{	
; 3859 : 							if( rand()%2 )

  001eb	e8 00 00 00 00	 call	 _rand
  001f0	25 01 00 00 80	 and	 eax, -2147483647	; 80000001H
  001f5	79 05		 jns	 SHORT $LN25@SkillDarkH
  001f7	48		 dec	 eax
  001f8	83 c8 fe	 or	 eax, -2			; fffffffeH
  001fb	40		 inc	 eax
$LN25@SkillDarkH:
  001fc	85 c0		 test	 eax, eax
  001fe	74 07		 je	 SHORT $LN21@SkillDarkH

; 3860 : 							{
; 3861 : 								bAttack = TRUE;

  00200	c7 45 e8 01 00
	00 00		 mov	 DWORD PTR _bAttack$[ebp], 1
$LN21@SkillDarkH:

; 3862 : 							}							
; 3863 : 						}

  00207	eb 07		 jmp	 SHORT $LN20@SkillDarkH
$LN19@SkillDarkH:

; 3864 : 						else 
; 3865 : 						{
; 3866 : 							bAttack = TRUE;

  00209	c7 45 e8 01 00
	00 00		 mov	 DWORD PTR _bAttack$[ebp], 1
$LN20@SkillDarkH:

; 3867 : 						}
; 3868 : 						
; 3869 : 						if( bAttack )

  00210	83 7d e8 00	 cmp	 DWORD PTR _bAttack$[ebp], 0
  00214	74 21		 je	 SHORT $LN4@SkillDarkH

; 3870 : 						{
; 3871 : 							gObjAddAttackProcMsgSendDelay(lpObj, 

  00216	6a 00		 push	 0
  00218	8b 45 10	 mov	 eax, DWORD PTR _lpMagic$[ebp]
  0021b	0f b6 48 05	 movzx	 ecx, BYTE PTR [eax+5]
  0021f	51		 push	 ecx
  00220	68 f4 01 00 00	 push	 500			; 000001f4H
  00225	8b 55 f4	 mov	 edx, DWORD PTR _tObjNum$[ebp]
  00228	52		 push	 edx
  00229	6a 32		 push	 50			; 00000032H
  0022b	8b 45 f8	 mov	 eax, DWORD PTR _lpObj$[ebp]
  0022e	50		 push	 eax
  0022f	e8 00 00 00 00	 call	 ?gObjAddAttackProcMsgSendDelay@@YAXPAVOBJECTSTRUCT@@HHHHH@Z ; gObjAddAttackProcMsgSendDelay
  00234	83 c4 18	 add	 esp, 24			; 00000018H
$LN4@SkillDarkH:

; 3872 : 														  MSG_ATTACKPROC_ENTIREMAGIC, 
; 3873 : 														  tObjNum,
; 3874 : 														  500, lpMagic->m_Skill);
; 3875 : 
; 3876 : 							//gObjAttack(lpObj, &gObj[tObjNum], lpMagic, 0, 1, 0);
; 3877 : 							
; 3878 : 						}						
; 3879 : 					}
; 3880 : 				}
; 3881 : 			}
; 3882 : 		}
; 3883 : 		count++;

  00237	8b 45 f0	 mov	 eax, DWORD PTR _count$[ebp]
  0023a	83 c0 01	 add	 eax, 1
  0023d	89 45 f0	 mov	 DWORD PTR _count$[ebp], eax

; 3884 : 		if( count > MAXVIEWPORTOBJECT-1 )

  00240	83 7d f0 4a	 cmp	 DWORD PTR _count$[ebp], 74 ; 0000004aH
  00244	7e 02		 jle	 SHORT $LN23@SkillDarkH

; 3885 : 		{
; 3886 : 			break;

  00246	eb 05		 jmp	 SHORT $LN3@SkillDarkH
$LN23@SkillDarkH:

; 3887 : 		}
; 3888 : 	}

  00248	e9 ff fd ff ff	 jmp	 $LN2@SkillDarkH
$LN3@SkillDarkH:

; 3889 : 	return TRUE;

  0024d	b8 01 00 00 00	 mov	 eax, 1

; 3890 : }

  00252	5f		 pop	 edi
  00253	5e		 pop	 esi
  00254	5b		 pop	 ebx
  00255	8b e5		 mov	 esp, ebp
  00257	5d		 pop	 ebp
  00258	c2 0c 00	 ret	 12			; 0000000cH
?SkillDarkHorseAttack@CObjUseSkill@@QAEHHHPAVCMagicInf@@@Z ENDP ; CObjUseSkill::SkillDarkHorseAttack
_TEXT	ENDS
; Function compile flags: /Odtp /ZI
; File C:\Mu Online\Mu-GS-Webzen-MC-10093\GameServer\ObjUseSkill.cpp
;	COMDAT ?SkillFireBurst@CObjUseSkill@@QAEHHHPAVCMagicInf@@@Z
_TEXT	SEGMENT
_CallMonIndex$1 = -44					; size = 4
_delaytime$ = -40					; size = 4
_EnableAttack$ = -36					; size = 4
_DuelIndex$ = -32					; size = 4
_attackcheck$ = -28					; size = 4
_loopcount$ = -24					; size = 4
_count$ = -20						; size = 4
_tObjNum$ = -16						; size = 4
_StartDis$ = -12					; size = 4
_lpObj$ = -8						; size = 4
_this$ = -4						; size = 4
_aIndex$ = 8						; size = 4
_aTargetIndex$ = 12					; size = 4
_lpMagic$ = 16						; size = 4
?SkillFireBurst@CObjUseSkill@@QAEHHHPAVCMagicInf@@@Z PROC ; CObjUseSkill::SkillFireBurst, COMDAT
; _this$ = ecx

; 3676 : {	

  00000	55		 push	 ebp
  00001	8b ec		 mov	 ebp, esp
  00003	83 ec 6c	 sub	 esp, 108		; 0000006cH
  00006	53		 push	 ebx
  00007	56		 push	 esi
  00008	57		 push	 edi
  00009	89 4d fc	 mov	 DWORD PTR _this$[ebp], ecx

; 3677 : 	LPOBJECTSTRUCT lpObj= &gObj[aIndex];

  0000c	69 45 08 a0 1b
	00 00		 imul	 eax, DWORD PTR _aIndex$[ebp], 7072
  00013	03 05 00 00 00
	00		 add	 eax, DWORD PTR ?gObj@@3PAVOBJECTSTRUCT@@A ; gObj
  00019	89 45 f8	 mov	 DWORD PTR _lpObj$[ebp], eax

; 3678 : 		
; 3679 : 	int StartDis = 1;

  0001c	c7 45 f4 01 00
	00 00		 mov	 DWORD PTR _StartDis$[ebp], 1

; 3680 : 	int tObjNum;
; 3681 : 
; 3682 : 	//float fangle = (float)GetAngle(lpObj->X, lpObj->Y, gObj[aTargetIndex].X, gObj[aTargetIndex].Y);
; 3683 : 	//SkillFrustrum(aTargetIndex, fangle, 3.f, 4.f);
; 3684 : 
; 3685 : 	int count = 0;

  00023	c7 45 ec 00 00
	00 00		 mov	 DWORD PTR _count$[ebp], 0

; 3686 : 	int loopcount = 0;

  0002a	c7 45 e8 00 00
	00 00		 mov	 DWORD PTR _loopcount$[ebp], 0

; 3687 : 	BOOL attackcheck;	
; 3688 : 
; 3689 : 	GCMagicAttackNumberSend(lpObj, lpMagic->m_Skill, aTargetIndex, 1);

  00031	6a 01		 push	 1
  00033	8b 45 0c	 mov	 eax, DWORD PTR _aTargetIndex$[ebp]
  00036	50		 push	 eax
  00037	8b 4d 10	 mov	 ecx, DWORD PTR _lpMagic$[ebp]
  0003a	0f b6 51 05	 movzx	 edx, BYTE PTR [ecx+5]
  0003e	52		 push	 edx
  0003f	8b 45 f8	 mov	 eax, DWORD PTR _lpObj$[ebp]
  00042	50		 push	 eax
  00043	e8 00 00 00 00	 call	 ?GCMagicAttackNumberSend@@YAXPAVOBJECTSTRUCT@@EHE@Z ; GCMagicAttackNumberSend
  00048	83 c4 10	 add	 esp, 16			; 00000010H

; 3690 : 	gObjAttack(lpObj, &gObj[aTargetIndex], lpMagic, 0, 1, 0);	

  0004b	6a 00		 push	 0
  0004d	6a 00		 push	 0
  0004f	6a 01		 push	 1
  00051	6a 00		 push	 0
  00053	8b 45 10	 mov	 eax, DWORD PTR _lpMagic$[ebp]
  00056	50		 push	 eax
  00057	69 4d 0c a0 1b
	00 00		 imul	 ecx, DWORD PTR _aTargetIndex$[ebp], 7072
  0005e	03 0d 00 00 00
	00		 add	 ecx, DWORD PTR ?gObj@@3PAVOBJECTSTRUCT@@A ; gObj
  00064	51		 push	 ecx
  00065	8b 55 f8	 mov	 edx, DWORD PTR _lpObj$[ebp]
  00068	52		 push	 edx
  00069	e8 00 00 00 00	 call	 ?gObjAttack@@YAHPAVOBJECTSTRUCT@@0PAVCMagicInf@@HEHH@Z ; gObjAttack
  0006e	83 c4 1c	 add	 esp, 28			; 0000001cH

; 3691 : 
; 3692 : #ifdef DUEL_SYSTEM_20031028
; 3693 : 	int DuelIndex = lpObj->m_iDuelUser;

  00071	8b 45 f8	 mov	 eax, DWORD PTR _lpObj$[ebp]
  00074	8b 88 ec 0c 00
	00		 mov	 ecx, DWORD PTR [eax+3308]
  0007a	89 4d e0	 mov	 DWORD PTR _DuelIndex$[ebp], ecx
$LN2@SkillFireB:

; 3694 : #endif
; 3695 : 
; 3696 : 	BOOL	EnableAttack;
; 3697 : 	int		delaytime;
; 3698 : 
; 3699 : 	while(1)

  0007d	b8 01 00 00 00	 mov	 eax, 1
  00082	85 c0		 test	 eax, eax
  00084	0f 84 d9 01 00
	00		 je	 $LN3@SkillFireB

; 3700 : 	{
; 3701 : 		if( lpObj->VpPlayer2[count].state )

  0008a	6b 45 ec 0c	 imul	 eax, DWORD PTR _count$[ebp], 12
  0008e	8b 4d f8	 mov	 ecx, DWORD PTR _lpObj$[ebp]
  00091	0f be 94 01 e8
	06 00 00	 movsx	 edx, BYTE PTR [ecx+eax+1768]
  00099	85 d2		 test	 edx, edx
  0009b	0f 84 ac 01 00
	00		 je	 $LN4@SkillFireB

; 3702 : 		{
; 3703 : 			tObjNum = lpObj->VpPlayer2[count].number;

  000a1	6b 45 ec 0c	 imul	 eax, DWORD PTR _count$[ebp], 12
  000a5	8b 4d f8	 mov	 ecx, DWORD PTR _lpObj$[ebp]
  000a8	0f bf 94 01 ea
	06 00 00	 movsx	 edx, WORD PTR [ecx+eax+1770]
  000b0	89 55 f0	 mov	 DWORD PTR _tObjNum$[ebp], edx

; 3704 : 
; 3705 : 			if( tObjNum >= 0 && aTargetIndex != tObjNum )

  000b3	83 7d f0 00	 cmp	 DWORD PTR _tObjNum$[ebp], 0
  000b7	0f 8c 90 01 00
	00		 jl	 $LN4@SkillFireB
  000bd	8b 45 0c	 mov	 eax, DWORD PTR _aTargetIndex$[ebp]
  000c0	3b 45 f0	 cmp	 eax, DWORD PTR _tObjNum$[ebp]
  000c3	0f 84 84 01 00
	00		 je	 $LN4@SkillFireB

; 3706 : 			{
; 3707 : 				EnableAttack = FALSE;

  000c9	c7 45 dc 00 00
	00 00		 mov	 DWORD PTR _EnableAttack$[ebp], 0

; 3708 : 
; 3709 : 				if( ((lpObj->VpPlayer2[count].type == OBJTYPE_MONSTER) && (gObj[tObjNum].m_RecallMon < 0)) )

  000d0	6b 45 ec 0c	 imul	 eax, DWORD PTR _count$[ebp], 12
  000d4	8b 4d f8	 mov	 ecx, DWORD PTR _lpObj$[ebp]
  000d7	0f b6 94 01 ec
	06 00 00	 movzx	 edx, BYTE PTR [ecx+eax+1772]
  000df	83 fa 02	 cmp	 edx, 2
  000e2	75 23		 jne	 SHORT $LN6@SkillFireB
  000e4	69 45 f0 a0 1b
	00 00		 imul	 eax, DWORD PTR _tObjNum$[ebp], 7072
  000eb	8b 0d 00 00 00
	00		 mov	 ecx, DWORD PTR ?gObj@@3PAVOBJECTSTRUCT@@A ; gObj
  000f1	83 bc 01 a4 02
	00 00 00	 cmp	 DWORD PTR [ecx+eax+676], 0
  000f9	7d 0c		 jge	 SHORT $LN6@SkillFireB

; 3710 : 				{	// 대상이 몬스터이고, 소환몹이 아니면 공격가능
; 3711 : 					EnableAttack = TRUE;

  000fb	c7 45 dc 01 00
	00 00		 mov	 DWORD PTR _EnableAttack$[ebp], 1

; 3712 : 				}	

  00102	e9 a6 00 00 00	 jmp	 $LN7@SkillFireB
$LN6@SkillFireB:

; 3713 : 				else if( tObjNum == aTargetIndex 
; 3714 : 	#ifdef DUEL_SYSTEM_20031028
; 3715 : 						 || DuelIndex == tObjNum

  00107	8b 45 f0	 mov	 eax, DWORD PTR _tObjNum$[ebp]
  0010a	3b 45 0c	 cmp	 eax, DWORD PTR _aTargetIndex$[ebp]
  0010d	74 08		 je	 SHORT $LN10@SkillFireB
  0010f	8b 45 e0	 mov	 eax, DWORD PTR _DuelIndex$[ebp]
  00112	3b 45 f0	 cmp	 eax, DWORD PTR _tObjNum$[ebp]
  00115	75 0c		 jne	 SHORT $LN8@SkillFireB
$LN10@SkillFireB:

; 3716 : 	#endif
; 3717 : 						 )
; 3718 : 				{	// 클라이언트에서 대상을 강제 공격했을때와 결투 대상일때는 공격가능
; 3719 : 					EnableAttack = TRUE;

  00117	c7 45 dc 01 00
	00 00		 mov	 DWORD PTR _EnableAttack$[ebp], 1

; 3720 : 				}	

  0011e	e9 8a 00 00 00	 jmp	 $LN7@SkillFireB
$LN8@SkillFireB:

; 3721 : 				else
; 3722 : 				{	// 길드전 체크
; 3723 : 					int CallMonIndex = gObj[tObjNum].m_Index;

  00123	69 45 f0 a0 1b
	00 00		 imul	 eax, DWORD PTR _tObjNum$[ebp], 7072
  0012a	8b 0d 00 00 00
	00		 mov	 ecx, DWORD PTR ?gObj@@3PAVOBJECTSTRUCT@@A ; gObj
  00130	8b 14 01	 mov	 edx, DWORD PTR [ecx+eax]
  00133	89 55 d4	 mov	 DWORD PTR _CallMonIndex$1[ebp], edx

; 3724 : 					if( gObj[tObjNum].Type == OBJTYPE_MONSTER )

  00136	69 45 f0 a0 1b
	00 00		 imul	 eax, DWORD PTR _tObjNum$[ebp], 7072
  0013d	8b 0d 00 00 00
	00		 mov	 ecx, DWORD PTR ?gObj@@3PAVOBJECTSTRUCT@@A ; gObj
  00143	0f b7 54 01 64	 movzx	 edx, WORD PTR [ecx+eax+100]
  00148	83 fa 02	 cmp	 edx, 2
  0014b	75 3a		 jne	 SHORT $LN11@SkillFireB

; 3725 : 					{
; 3726 : 						if( gObj[tObjNum].m_RecallMon >= 0 ) 

  0014d	69 45 f0 a0 1b
	00 00		 imul	 eax, DWORD PTR _tObjNum$[ebp], 7072
  00154	8b 0d 00 00 00
	00		 mov	 ecx, DWORD PTR ?gObj@@3PAVOBJECTSTRUCT@@A ; gObj
  0015a	83 bc 01 a4 02
	00 00 00	 cmp	 DWORD PTR [ecx+eax+676], 0
  00162	7c 23		 jl	 SHORT $LN11@SkillFireB

; 3727 : 						{
; 3728 : 							CallMonIndex = gObj[gObj[tObjNum].m_RecallMon].m_Index;

  00164	69 45 f0 a0 1b
	00 00		 imul	 eax, DWORD PTR _tObjNum$[ebp], 7072
  0016b	8b 0d 00 00 00
	00		 mov	 ecx, DWORD PTR ?gObj@@3PAVOBJECTSTRUCT@@A ; gObj
  00171	69 94 01 a4 02
	00 00 a0 1b 00
	00		 imul	 edx, DWORD PTR [ecx+eax+676], 7072
  0017c	a1 00 00 00 00	 mov	 eax, DWORD PTR ?gObj@@3PAVOBJECTSTRUCT@@A ; gObj
  00181	8b 0c 10	 mov	 ecx, DWORD PTR [eax+edx]
  00184	89 4d d4	 mov	 DWORD PTR _CallMonIndex$1[ebp], ecx
$LN11@SkillFireB:

; 3729 : 						}
; 3730 : 					}
; 3731 : 					if( gObjTargetGuildWarCheck(lpObj, &gObj[CallMonIndex]) == TRUE )

  00187	69 45 d4 a0 1b
	00 00		 imul	 eax, DWORD PTR _CallMonIndex$1[ebp], 7072
  0018e	03 05 00 00 00
	00		 add	 eax, DWORD PTR ?gObj@@3PAVOBJECTSTRUCT@@A ; gObj
  00194	50		 push	 eax
  00195	8b 4d f8	 mov	 ecx, DWORD PTR _lpObj$[ebp]
  00198	51		 push	 ecx
  00199	e8 00 00 00 00	 call	 ?gObjTargetGuildWarCheck@@YAHPAVOBJECTSTRUCT@@0@Z ; gObjTargetGuildWarCheck
  0019e	83 c4 08	 add	 esp, 8
  001a1	83 f8 01	 cmp	 eax, 1
  001a4	75 07		 jne	 SHORT $LN7@SkillFireB

; 3732 : 					{	// 대상이 길전상대이면 공격가능
; 3733 : 						EnableAttack = TRUE;

  001a6	c7 45 dc 01 00
	00 00		 mov	 DWORD PTR _EnableAttack$[ebp], 1
$LN7@SkillFireB:

; 3734 : 					}
; 3735 : 				}
; 3736 : 
; 3737 : 				if( EnableAttack )

  001ad	83 7d dc 00	 cmp	 DWORD PTR _EnableAttack$[ebp], 0
  001b1	0f 84 96 00 00
	00		 je	 $LN4@SkillFireB

; 3738 : 				{	
; 3739 : 					attackcheck = FALSE;

  001b7	c7 45 e4 00 00
	00 00		 mov	 DWORD PTR _attackcheck$[ebp], 0

; 3740 : 
; 3741 : 					if( loopcount == 0 )

  001be	83 7d e8 00	 cmp	 DWORD PTR _loopcount$[ebp], 0
  001c2	75 09		 jne	 SHORT $LN15@SkillFireB

; 3742 : 					{
; 3743 : 						attackcheck = TRUE;

  001c4	c7 45 e4 01 00
	00 00		 mov	 DWORD PTR _attackcheck$[ebp], 1

; 3744 : 					}

  001cb	eb 18		 jmp	 SHORT $LN16@SkillFireB
$LN15@SkillFireB:

; 3745 : 					else
; 3746 : 					{
; 3747 : 						if( !(rand()%3) )

  001cd	e8 00 00 00 00	 call	 _rand
  001d2	99		 cdq
  001d3	b9 03 00 00 00	 mov	 ecx, 3
  001d8	f7 f9		 idiv	 ecx
  001da	85 d2		 test	 edx, edx
  001dc	75 07		 jne	 SHORT $LN16@SkillFireB

; 3748 : 						{
; 3749 : 							attackcheck = TRUE;

  001de	c7 45 e4 01 00
	00 00		 mov	 DWORD PTR _attackcheck$[ebp], 1
$LN16@SkillFireB:

; 3750 : 						}
; 3751 : 					}
; 3752 : 					
; 3753 : 					if( attackcheck )

  001e5	83 7d e4 00	 cmp	 DWORD PTR _attackcheck$[ebp], 0
  001e9	74 62		 je	 SHORT $LN4@SkillFireB

; 3754 : 					{
; 3755 : 						if( gObjCalDistance(&gObj[aTargetIndex], &gObj[tObjNum]) < 3 )

  001eb	69 45 f0 a0 1b
	00 00		 imul	 eax, DWORD PTR _tObjNum$[ebp], 7072
  001f2	03 05 00 00 00
	00		 add	 eax, DWORD PTR ?gObj@@3PAVOBJECTSTRUCT@@A ; gObj
  001f8	50		 push	 eax
  001f9	69 4d 0c a0 1b
	00 00		 imul	 ecx, DWORD PTR _aTargetIndex$[ebp], 7072
  00200	03 0d 00 00 00
	00		 add	 ecx, DWORD PTR ?gObj@@3PAVOBJECTSTRUCT@@A ; gObj
  00206	51		 push	 ecx
  00207	e8 00 00 00 00	 call	 ?gObjCalDistance@@YAHPAVOBJECTSTRUCT@@0@Z ; gObjCalDistance
  0020c	83 c4 08	 add	 esp, 8
  0020f	83 f8 03	 cmp	 eax, 3
  00212	7d 39		 jge	 SHORT $LN4@SkillFireB

; 3756 : 						//if( SkillTestFrustrum(gObj[tObjNum].X, gObj[tObjNum].Y, aTargetIndex) )
; 3757 : 						{	
; 3758 : 							delaytime = 500+(rand()*17)%300;								

  00214	e8 00 00 00 00	 call	 _rand
  00219	6b c0 11	 imul	 eax, eax, 17
  0021c	99		 cdq
  0021d	b9 2c 01 00 00	 mov	 ecx, 300		; 0000012cH
  00222	f7 f9		 idiv	 ecx
  00224	81 c2 f4 01 00
	00		 add	 edx, 500		; 000001f4H
  0022a	89 55 d8	 mov	 DWORD PTR _delaytime$[ebp], edx

; 3759 : 
; 3760 : 							gObjAddAttackProcMsgSendDelay(lpObj, 

  0022d	6a 00		 push	 0
  0022f	8b 45 10	 mov	 eax, DWORD PTR _lpMagic$[ebp]
  00232	0f b6 48 05	 movzx	 ecx, BYTE PTR [eax+5]
  00236	51		 push	 ecx
  00237	8b 55 d8	 mov	 edx, DWORD PTR _delaytime$[ebp]
  0023a	52		 push	 edx
  0023b	8b 45 f0	 mov	 eax, DWORD PTR _tObjNum$[ebp]
  0023e	50		 push	 eax
  0023f	6a 32		 push	 50			; 00000032H
  00241	8b 4d f8	 mov	 ecx, DWORD PTR _lpObj$[ebp]
  00244	51		 push	 ecx
  00245	e8 00 00 00 00	 call	 ?gObjAddAttackProcMsgSendDelay@@YAXPAVOBJECTSTRUCT@@HHHHH@Z ; gObjAddAttackProcMsgSendDelay
  0024a	83 c4 18	 add	 esp, 24			; 00000018H
$LN4@SkillFireB:

; 3761 : 														  MSG_ATTACKPROC_ENTIREMAGIC, 
; 3762 : 														  tObjNum,
; 3763 : 														  delaytime, lpMagic->m_Skill);
; 3764 : 							//gObjAttack(lpObj, &gObj[tObjNum], lpMagic, 0, 1, 0);
; 3765 : 						}
; 3766 : 					}
; 3767 : 				}
; 3768 : 			}
; 3769 : 		}	
; 3770 : 		count++;

  0024d	8b 45 ec	 mov	 eax, DWORD PTR _count$[ebp]
  00250	83 c0 01	 add	 eax, 1
  00253	89 45 ec	 mov	 DWORD PTR _count$[ebp], eax

; 3771 : 		if( count > MAXVIEWPORTOBJECT-1 )

  00256	83 7d ec 4a	 cmp	 DWORD PTR _count$[ebp], 74 ; 0000004aH
  0025a	7e 02		 jle	 SHORT $LN20@SkillFireB

; 3772 : 		{	
; 3773 : 			break;

  0025c	eb 05		 jmp	 SHORT $LN3@SkillFireB
$LN20@SkillFireB:

; 3774 : 		}
; 3775 : 	}

  0025e	e9 1a fe ff ff	 jmp	 $LN2@SkillFireB
$LN3@SkillFireB:

; 3776 : 	return TRUE;

  00263	b8 01 00 00 00	 mov	 eax, 1

; 3777 : }

  00268	5f		 pop	 edi
  00269	5e		 pop	 esi
  0026a	5b		 pop	 ebx
  0026b	8b e5		 mov	 esp, ebp
  0026d	5d		 pop	 ebp
  0026e	c2 0c 00	 ret	 12			; 0000000cH
?SkillFireBurst@CObjUseSkill@@QAEHHHPAVCMagicInf@@@Z ENDP ; CObjUseSkill::SkillFireBurst
_TEXT	ENDS
; Function compile flags: /Odtp /ZI
; File C:\Mu Online\Mu-GS-Webzen-MC-10093\GameServer\ObjUseSkill.cpp
;	COMDAT ?SkillSpear@CObjUseSkill@@QAEHHHPAVCMagicInf@@@Z
_TEXT	SEGMENT
_CallMonIndex$1 = -44					; size = 4
_EnableAttack$ = -40					; size = 4
_DuelIndex$ = -36					; size = 4
_attackcheck$ = -32					; size = 4
_loopcount$ = -28					; size = 4
_count$ = -24						; size = 4
_iangle$ = -20						; size = 4
_tObjNum$ = -16						; size = 4
_StartDis$ = -12					; size = 4
_lpObj$ = -8						; size = 4
_this$ = -4						; size = 4
_aIndex$ = 8						; size = 4
_aTargetIndex$ = 12					; size = 4
_lpMagic$ = 16						; size = 4
?SkillSpear@CObjUseSkill@@QAEHHHPAVCMagicInf@@@Z PROC	; CObjUseSkill::SkillSpear, COMDAT
; _this$ = ecx

; 3571 : {	

  00000	55		 push	 ebp
  00001	8b ec		 mov	 ebp, esp
  00003	83 ec 6c	 sub	 esp, 108		; 0000006cH
  00006	53		 push	 ebx
  00007	56		 push	 esi
  00008	57		 push	 edi
  00009	89 4d fc	 mov	 DWORD PTR _this$[ebp], ecx

; 3572 : 	LPOBJECTSTRUCT lpObj= &gObj[aIndex];

  0000c	69 45 08 a0 1b
	00 00		 imul	 eax, DWORD PTR _aIndex$[ebp], 7072
  00013	03 05 00 00 00
	00		 add	 eax, DWORD PTR ?gObj@@3PAVOBJECTSTRUCT@@A ; gObj
  00019	89 45 f8	 mov	 DWORD PTR _lpObj$[ebp], eax

; 3573 : 		
; 3574 : 	int StartDis = 1;

  0001c	c7 45 f4 01 00
	00 00		 mov	 DWORD PTR _StartDis$[ebp], 1

; 3575 : 	int tObjNum;
; 3576 : 
; 3577 : 	int iangle = GetAngle(lpObj->X, lpObj->Y, gObj[aTargetIndex].X, gObj[aTargetIndex].Y);

  00023	69 45 0c a0 1b
	00 00		 imul	 eax, DWORD PTR _aTargetIndex$[ebp], 7072
  0002a	8b 0d 00 00 00
	00		 mov	 ecx, DWORD PTR ?gObj@@3PAVOBJECTSTRUCT@@A ; gObj
  00030	0f bf 94 01 06
	01 00 00	 movsx	 edx, WORD PTR [ecx+eax+262]
  00038	52		 push	 edx
  00039	69 45 0c a0 1b
	00 00		 imul	 eax, DWORD PTR _aTargetIndex$[ebp], 7072
  00040	8b 0d 00 00 00
	00		 mov	 ecx, DWORD PTR ?gObj@@3PAVOBJECTSTRUCT@@A ; gObj
  00046	0f bf 94 01 04
	01 00 00	 movsx	 edx, WORD PTR [ecx+eax+260]
  0004e	52		 push	 edx
  0004f	8b 45 f8	 mov	 eax, DWORD PTR _lpObj$[ebp]
  00052	0f bf 88 06 01
	00 00		 movsx	 ecx, WORD PTR [eax+262]
  00059	51		 push	 ecx
  0005a	8b 55 f8	 mov	 edx, DWORD PTR _lpObj$[ebp]
  0005d	0f bf 82 04 01
	00 00		 movsx	 eax, WORD PTR [edx+260]
  00064	50		 push	 eax
  00065	8b 4d fc	 mov	 ecx, DWORD PTR _this$[ebp]
  00068	e8 00 00 00 00	 call	 ?GetAngle@CObjUseSkill@@QAEHHHHH@Z ; CObjUseSkill::GetAngle
  0006d	89 45 ec	 mov	 DWORD PTR _iangle$[ebp], eax

; 3578 : 
; 3579 : 	//SkillFrustrum2(aIndex, (float)iangle, 1.7f, 6.f);
; 3580 : 	//SkillFrustrum(aIndex, fangle, 1.5f, 3.f);
; 3581 : 
; 3582 : 	int count = 0;

  00070	c7 45 e8 00 00
	00 00		 mov	 DWORD PTR _count$[ebp], 0

; 3583 : 	int loopcount = 0;

  00077	c7 45 e4 00 00
	00 00		 mov	 DWORD PTR _loopcount$[ebp], 0

; 3584 : 	BOOL attackcheck;	
; 3585 : 
; 3586 : 	GCMagicAttackNumberSend(lpObj, lpMagic->m_Skill, aTargetIndex, 1);

  0007e	6a 01		 push	 1
  00080	8b 45 0c	 mov	 eax, DWORD PTR _aTargetIndex$[ebp]
  00083	50		 push	 eax
  00084	8b 4d 10	 mov	 ecx, DWORD PTR _lpMagic$[ebp]
  00087	0f b6 51 05	 movzx	 edx, BYTE PTR [ecx+5]
  0008b	52		 push	 edx
  0008c	8b 45 f8	 mov	 eax, DWORD PTR _lpObj$[ebp]
  0008f	50		 push	 eax
  00090	e8 00 00 00 00	 call	 ?GCMagicAttackNumberSend@@YAXPAVOBJECTSTRUCT@@EHE@Z ; GCMagicAttackNumberSend
  00095	83 c4 10	 add	 esp, 16			; 00000010H

; 3587 : 	//gObjAttack(lpObj, &gObj[aTargetIndex], lpMagic, 0, 1, 0);	
; 3588 : 
; 3589 : 	if( !lpObj->SkillLongSpearChange )

  00098	8b 45 f8	 mov	 eax, DWORD PTR _lpObj$[ebp]
  0009b	0f b6 88 82 10
	00 00		 movzx	 ecx, BYTE PTR [eax+4226]
  000a2	85 c9		 test	 ecx, ecx
  000a4	75 30		 jne	 SHORT $LN4@SkillSpear

; 3590 : 	{
; 3591 : 		gObjAttack(lpObj, &gObj[aTargetIndex], lpMagic, 0, 1, 0);	

  000a6	6a 00		 push	 0
  000a8	6a 00		 push	 0
  000aa	6a 01		 push	 1
  000ac	6a 00		 push	 0
  000ae	8b 45 10	 mov	 eax, DWORD PTR _lpMagic$[ebp]
  000b1	50		 push	 eax
  000b2	69 4d 0c a0 1b
	00 00		 imul	 ecx, DWORD PTR _aTargetIndex$[ebp], 7072
  000b9	03 0d 00 00 00
	00		 add	 ecx, DWORD PTR ?gObj@@3PAVOBJECTSTRUCT@@A ; gObj
  000bf	51		 push	 ecx
  000c0	8b 55 f8	 mov	 edx, DWORD PTR _lpObj$[ebp]
  000c3	52		 push	 edx
  000c4	e8 00 00 00 00	 call	 ?gObjAttack@@YAHPAVOBJECTSTRUCT@@0PAVCMagicInf@@HEHH@Z ; gObjAttack
  000c9	83 c4 1c	 add	 esp, 28			; 0000001cH

; 3592 : 		return TRUE;

  000cc	b8 01 00 00 00	 mov	 eax, 1
  000d1	e9 03 02 00 00	 jmp	 $LN1@SkillSpear
$LN4@SkillSpear:

; 3593 : 	}
; 3594 : 
; 3595 : #ifdef DUEL_SYSTEM_20031028
; 3596 : 	int DuelIndex = lpObj->m_iDuelUser;

  000d6	8b 45 f8	 mov	 eax, DWORD PTR _lpObj$[ebp]
  000d9	8b 88 ec 0c 00
	00		 mov	 ecx, DWORD PTR [eax+3308]
  000df	89 4d dc	 mov	 DWORD PTR _DuelIndex$[ebp], ecx
$LN2@SkillSpear:

; 3597 : #endif
; 3598 : 
; 3599 : 	BOOL	EnableAttack;
; 3600 : 
; 3601 : 	while(1)

  000e2	b8 01 00 00 00	 mov	 eax, 1
  000e7	85 c0		 test	 eax, eax
  000e9	0f 84 e5 01 00
	00		 je	 $LN3@SkillSpear

; 3602 : 	{
; 3603 : 		if( lpObj->VpPlayer2[count].state )

  000ef	6b 45 e8 0c	 imul	 eax, DWORD PTR _count$[ebp], 12
  000f3	8b 4d f8	 mov	 ecx, DWORD PTR _lpObj$[ebp]
  000f6	0f be 94 01 e8
	06 00 00	 movsx	 edx, BYTE PTR [ecx+eax+1768]
  000fe	85 d2		 test	 edx, edx
  00100	0f 84 b8 01 00
	00		 je	 $LN5@SkillSpear

; 3604 : 		{
; 3605 : 			tObjNum = lpObj->VpPlayer2[count].number;

  00106	6b 45 e8 0c	 imul	 eax, DWORD PTR _count$[ebp], 12
  0010a	8b 4d f8	 mov	 ecx, DWORD PTR _lpObj$[ebp]
  0010d	0f bf 94 01 ea
	06 00 00	 movsx	 edx, WORD PTR [ecx+eax+1770]
  00115	89 55 f0	 mov	 DWORD PTR _tObjNum$[ebp], edx

; 3606 : 
; 3607 : 			if( tObjNum >= 0 )

  00118	83 7d f0 00	 cmp	 DWORD PTR _tObjNum$[ebp], 0
  0011c	0f 8c 9c 01 00
	00		 jl	 $LN5@SkillSpear

; 3608 : 			{
; 3609 : 				EnableAttack = FALSE;

  00122	c7 45 d8 00 00
	00 00		 mov	 DWORD PTR _EnableAttack$[ebp], 0

; 3610 : 
; 3611 : 				if( ((lpObj->VpPlayer2[count].type == OBJTYPE_MONSTER) && (gObj[tObjNum].m_RecallMon < 0)) )

  00129	6b 45 e8 0c	 imul	 eax, DWORD PTR _count$[ebp], 12
  0012d	8b 4d f8	 mov	 ecx, DWORD PTR _lpObj$[ebp]
  00130	0f b6 94 01 ec
	06 00 00	 movzx	 edx, BYTE PTR [ecx+eax+1772]
  00138	83 fa 02	 cmp	 edx, 2
  0013b	75 23		 jne	 SHORT $LN7@SkillSpear
  0013d	69 45 f0 a0 1b
	00 00		 imul	 eax, DWORD PTR _tObjNum$[ebp], 7072
  00144	8b 0d 00 00 00
	00		 mov	 ecx, DWORD PTR ?gObj@@3PAVOBJECTSTRUCT@@A ; gObj
  0014a	83 bc 01 a4 02
	00 00 00	 cmp	 DWORD PTR [ecx+eax+676], 0
  00152	7d 0c		 jge	 SHORT $LN7@SkillSpear

; 3612 : 				{	// 대상이 몬스터이고, 소환몹이 아니면 공격가능
; 3613 : 					EnableAttack = TRUE;

  00154	c7 45 d8 01 00
	00 00		 mov	 DWORD PTR _EnableAttack$[ebp], 1

; 3614 : 				}	

  0015b	e9 a6 00 00 00	 jmp	 $LN8@SkillSpear
$LN7@SkillSpear:

; 3615 : 				else if( tObjNum == aTargetIndex 
; 3616 : 	#ifdef DUEL_SYSTEM_20031028
; 3617 : 						 || DuelIndex == tObjNum

  00160	8b 45 f0	 mov	 eax, DWORD PTR _tObjNum$[ebp]
  00163	3b 45 0c	 cmp	 eax, DWORD PTR _aTargetIndex$[ebp]
  00166	74 08		 je	 SHORT $LN11@SkillSpear
  00168	8b 45 dc	 mov	 eax, DWORD PTR _DuelIndex$[ebp]
  0016b	3b 45 f0	 cmp	 eax, DWORD PTR _tObjNum$[ebp]
  0016e	75 0c		 jne	 SHORT $LN9@SkillSpear
$LN11@SkillSpear:

; 3618 : 	#endif
; 3619 : 						 )
; 3620 : 				{	// 클라이언트에서 대상을 강제 공격했을때와 결투 대상일때는 공격가능
; 3621 : 					EnableAttack = TRUE;

  00170	c7 45 d8 01 00
	00 00		 mov	 DWORD PTR _EnableAttack$[ebp], 1

; 3622 : 				}	

  00177	e9 8a 00 00 00	 jmp	 $LN8@SkillSpear
$LN9@SkillSpear:

; 3623 : 				else
; 3624 : 				{	// 길드전 체크
; 3625 : 					int CallMonIndex = gObj[tObjNum].m_Index;

  0017c	69 45 f0 a0 1b
	00 00		 imul	 eax, DWORD PTR _tObjNum$[ebp], 7072
  00183	8b 0d 00 00 00
	00		 mov	 ecx, DWORD PTR ?gObj@@3PAVOBJECTSTRUCT@@A ; gObj
  00189	8b 14 01	 mov	 edx, DWORD PTR [ecx+eax]
  0018c	89 55 d4	 mov	 DWORD PTR _CallMonIndex$1[ebp], edx

; 3626 : 					if( gObj[tObjNum].Type == OBJTYPE_MONSTER )

  0018f	69 45 f0 a0 1b
	00 00		 imul	 eax, DWORD PTR _tObjNum$[ebp], 7072
  00196	8b 0d 00 00 00
	00		 mov	 ecx, DWORD PTR ?gObj@@3PAVOBJECTSTRUCT@@A ; gObj
  0019c	0f b7 54 01 64	 movzx	 edx, WORD PTR [ecx+eax+100]
  001a1	83 fa 02	 cmp	 edx, 2
  001a4	75 3a		 jne	 SHORT $LN12@SkillSpear

; 3627 : 					{
; 3628 : 						if( gObj[tObjNum].m_RecallMon >= 0 ) 

  001a6	69 45 f0 a0 1b
	00 00		 imul	 eax, DWORD PTR _tObjNum$[ebp], 7072
  001ad	8b 0d 00 00 00
	00		 mov	 ecx, DWORD PTR ?gObj@@3PAVOBJECTSTRUCT@@A ; gObj
  001b3	83 bc 01 a4 02
	00 00 00	 cmp	 DWORD PTR [ecx+eax+676], 0
  001bb	7c 23		 jl	 SHORT $LN12@SkillSpear

; 3629 : 						{
; 3630 : 							CallMonIndex = gObj[gObj[tObjNum].m_RecallMon].m_Index;

  001bd	69 45 f0 a0 1b
	00 00		 imul	 eax, DWORD PTR _tObjNum$[ebp], 7072
  001c4	8b 0d 00 00 00
	00		 mov	 ecx, DWORD PTR ?gObj@@3PAVOBJECTSTRUCT@@A ; gObj
  001ca	69 94 01 a4 02
	00 00 a0 1b 00
	00		 imul	 edx, DWORD PTR [ecx+eax+676], 7072
  001d5	a1 00 00 00 00	 mov	 eax, DWORD PTR ?gObj@@3PAVOBJECTSTRUCT@@A ; gObj
  001da	8b 0c 10	 mov	 ecx, DWORD PTR [eax+edx]
  001dd	89 4d d4	 mov	 DWORD PTR _CallMonIndex$1[ebp], ecx
$LN12@SkillSpear:

; 3631 : 						}
; 3632 : 					}
; 3633 : 					if( gObjTargetGuildWarCheck(lpObj, &gObj[CallMonIndex]) == TRUE )

  001e0	69 45 d4 a0 1b
	00 00		 imul	 eax, DWORD PTR _CallMonIndex$1[ebp], 7072
  001e7	03 05 00 00 00
	00		 add	 eax, DWORD PTR ?gObj@@3PAVOBJECTSTRUCT@@A ; gObj
  001ed	50		 push	 eax
  001ee	8b 4d f8	 mov	 ecx, DWORD PTR _lpObj$[ebp]
  001f1	51		 push	 ecx
  001f2	e8 00 00 00 00	 call	 ?gObjTargetGuildWarCheck@@YAHPAVOBJECTSTRUCT@@0@Z ; gObjTargetGuildWarCheck
  001f7	83 c4 08	 add	 esp, 8
  001fa	83 f8 01	 cmp	 eax, 1
  001fd	75 07		 jne	 SHORT $LN8@SkillSpear

; 3634 : 					{	// 대상이 길전상대이면 공격가능
; 3635 : 						EnableAttack = TRUE;

  001ff	c7 45 d8 01 00
	00 00		 mov	 DWORD PTR _EnableAttack$[ebp], 1
$LN8@SkillSpear:

; 3636 : 					}
; 3637 : 				}
; 3638 : 
; 3639 : 				if( EnableAttack )

  00206	83 7d d8 00	 cmp	 DWORD PTR _EnableAttack$[ebp], 0
  0020a	0f 84 ae 00 00
	00		 je	 $LN5@SkillSpear

; 3640 : 				{	
; 3641 : 					attackcheck = FALSE;

  00210	c7 45 e0 00 00
	00 00		 mov	 DWORD PTR _attackcheck$[ebp], 0

; 3642 : 
; 3643 : 					if( loopcount == 0 )

  00217	83 7d e4 00	 cmp	 DWORD PTR _loopcount$[ebp], 0
  0021b	75 09		 jne	 SHORT $LN16@SkillSpear

; 3644 : 					{
; 3645 : 						attackcheck = TRUE;

  0021d	c7 45 e0 01 00
	00 00		 mov	 DWORD PTR _attackcheck$[ebp], 1

; 3646 : 					}

  00224	eb 18		 jmp	 SHORT $LN17@SkillSpear
$LN16@SkillSpear:

; 3647 : 					else
; 3648 : 					{
; 3649 : 						if( !(rand()%3) )

  00226	e8 00 00 00 00	 call	 _rand
  0022b	99		 cdq
  0022c	b9 03 00 00 00	 mov	 ecx, 3
  00231	f7 f9		 idiv	 ecx
  00233	85 d2		 test	 edx, edx
  00235	75 07		 jne	 SHORT $LN17@SkillSpear

; 3650 : 						{
; 3651 : 							attackcheck = TRUE;

  00237	c7 45 e0 01 00
	00 00		 mov	 DWORD PTR _attackcheck$[ebp], 1
$LN17@SkillSpear:

; 3652 : 						}
; 3653 : 					}
; 3654 : 					
; 3655 : 					if( attackcheck )

  0023e	83 7d e0 00	 cmp	 DWORD PTR _attackcheck$[ebp], 0
  00242	74 7a		 je	 SHORT $LN5@SkillSpear

; 3656 : 					{	
; 3657 : 						if( SkillSpearHitBox.HitCheck(iangle, lpObj->X, lpObj->Y, gObj[tObjNum].X, 

  00244	69 45 f0 a0 1b
	00 00		 imul	 eax, DWORD PTR _tObjNum$[ebp], 7072
  0024b	8b 0d 00 00 00
	00		 mov	 ecx, DWORD PTR ?gObj@@3PAVOBJECTSTRUCT@@A ; gObj
  00251	0f bf 94 01 06
	01 00 00	 movsx	 edx, WORD PTR [ecx+eax+262]
  00259	52		 push	 edx
  0025a	69 45 f0 a0 1b
	00 00		 imul	 eax, DWORD PTR _tObjNum$[ebp], 7072
  00261	8b 0d 00 00 00
	00		 mov	 ecx, DWORD PTR ?gObj@@3PAVOBJECTSTRUCT@@A ; gObj
  00267	0f bf 94 01 04
	01 00 00	 movsx	 edx, WORD PTR [ecx+eax+260]
  0026f	52		 push	 edx
  00270	8b 45 f8	 mov	 eax, DWORD PTR _lpObj$[ebp]
  00273	0f bf 88 06 01
	00 00		 movsx	 ecx, WORD PTR [eax+262]
  0027a	51		 push	 ecx
  0027b	8b 55 f8	 mov	 edx, DWORD PTR _lpObj$[ebp]
  0027e	0f bf 82 04 01
	00 00		 movsx	 eax, WORD PTR [edx+260]
  00285	50		 push	 eax
  00286	8b 4d ec	 mov	 ecx, DWORD PTR _iangle$[ebp]
  00289	51		 push	 ecx
  0028a	b9 00 00 00 00	 mov	 ecx, OFFSET ?SkillSpearHitBox@@3VCSkillHitBox@@A ; SkillSpearHitBox
  0028f	e8 00 00 00 00	 call	 ?HitCheck@CSkillHitBox@@QAEHHHHHH@Z ; CSkillHitBox::HitCheck
  00294	85 c0		 test	 eax, eax
  00296	74 26		 je	 SHORT $LN5@SkillSpear

; 3658 : 												  gObj[tObjNum].Y) )
; 3659 : 						{	
; 3660 : 							gObjAttack(lpObj, &gObj[tObjNum], lpMagic, 0, 1, 0);

  00298	6a 00		 push	 0
  0029a	6a 00		 push	 0
  0029c	6a 01		 push	 1
  0029e	6a 00		 push	 0
  002a0	8b 45 10	 mov	 eax, DWORD PTR _lpMagic$[ebp]
  002a3	50		 push	 eax
  002a4	69 4d f0 a0 1b
	00 00		 imul	 ecx, DWORD PTR _tObjNum$[ebp], 7072
  002ab	03 0d 00 00 00
	00		 add	 ecx, DWORD PTR ?gObj@@3PAVOBJECTSTRUCT@@A ; gObj
  002b1	51		 push	 ecx
  002b2	8b 55 f8	 mov	 edx, DWORD PTR _lpObj$[ebp]
  002b5	52		 push	 edx
  002b6	e8 00 00 00 00	 call	 ?gObjAttack@@YAHPAVOBJECTSTRUCT@@0PAVCMagicInf@@HEHH@Z ; gObjAttack
  002bb	83 c4 1c	 add	 esp, 28			; 0000001cH
$LN5@SkillSpear:

; 3661 : 						}
; 3662 : 					}
; 3663 : 				}
; 3664 : 			}
; 3665 : 		}		
; 3666 : 		count++;

  002be	8b 45 e8	 mov	 eax, DWORD PTR _count$[ebp]
  002c1	83 c0 01	 add	 eax, 1
  002c4	89 45 e8	 mov	 DWORD PTR _count$[ebp], eax

; 3667 : 		if( count > MAXVIEWPORTOBJECT-1 )

  002c7	83 7d e8 4a	 cmp	 DWORD PTR _count$[ebp], 74 ; 0000004aH
  002cb	7e 02		 jle	 SHORT $LN21@SkillSpear

; 3668 : 		{	
; 3669 : 			break;

  002cd	eb 05		 jmp	 SHORT $LN3@SkillSpear
$LN21@SkillSpear:

; 3670 : 		}
; 3671 : 	}

  002cf	e9 0e fe ff ff	 jmp	 $LN2@SkillSpear
$LN3@SkillSpear:

; 3672 : 	return TRUE;

  002d4	b8 01 00 00 00	 mov	 eax, 1
$LN1@SkillSpear:

; 3673 : }

  002d9	5f		 pop	 edi
  002da	5e		 pop	 esi
  002db	5b		 pop	 ebx
  002dc	8b e5		 mov	 esp, ebp
  002de	5d		 pop	 ebp
  002df	c2 0c 00	 ret	 12			; 0000000cH
?SkillSpear@CObjUseSkill@@QAEHHHPAVCMagicInf@@@Z ENDP	; CObjUseSkill::SkillSpear
_TEXT	ENDS
; Function compile flags: /Odtp /ZI
; File C:\Mu Online\Mu-GS-Webzen-MC-10093\GameServer\ObjUseSkill.cpp
;	COMDAT ?SkillAreaCheck@CObjUseSkill@@QAEHHHHHHHH@Z
_TEXT	SEGMENT
_targetangle$ = -16					; size = 4
_maxangel$ = -12					; size = 4
_minangel$ = -8						; size = 4
_this$ = -4						; size = 4
_angel$ = 8						; size = 4
_x$ = 12						; size = 4
_y$ = 16						; size = 4
_tx$ = 20						; size = 4
_ty$ = 24						; size = 4
_dis$ = 28						; size = 4
_arc$ = 32						; size = 4
?SkillAreaCheck@CObjUseSkill@@QAEHHHHHHHH@Z PROC	; CObjUseSkill::SkillAreaCheck, COMDAT
; _this$ = ecx

; 3512 : {

  00000	55		 push	 ebp
  00001	8b ec		 mov	 ebp, esp
  00003	83 ec 50	 sub	 esp, 80			; 00000050H
  00006	53		 push	 ebx
  00007	56		 push	 esi
  00008	57		 push	 edi
  00009	89 4d fc	 mov	 DWORD PTR _this$[ebp], ecx

; 3513 : 	int minangel = angel-arc;

  0000c	8b 45 08	 mov	 eax, DWORD PTR _angel$[ebp]
  0000f	2b 45 20	 sub	 eax, DWORD PTR _arc$[ebp]
  00012	89 45 f8	 mov	 DWORD PTR _minangel$[ebp], eax

; 3514 : 	int maxangel = angel+arc;

  00015	8b 45 08	 mov	 eax, DWORD PTR _angel$[ebp]
  00018	03 45 20	 add	 eax, DWORD PTR _arc$[ebp]
  0001b	89 45 f4	 mov	 DWORD PTR _maxangel$[ebp], eax

; 3515 : 
; 3516 : 
; 3517 : 	if( CalDistance(x,y, tx, ty) > dis )

  0001e	8b 45 18	 mov	 eax, DWORD PTR _ty$[ebp]
  00021	50		 push	 eax
  00022	8b 4d 14	 mov	 ecx, DWORD PTR _tx$[ebp]
  00025	51		 push	 ecx
  00026	8b 55 10	 mov	 edx, DWORD PTR _y$[ebp]
  00029	52		 push	 edx
  0002a	8b 45 0c	 mov	 eax, DWORD PTR _x$[ebp]
  0002d	50		 push	 eax
  0002e	8b 4d fc	 mov	 ecx, DWORD PTR _this$[ebp]
  00031	e8 00 00 00 00	 call	 ?CalDistance@CObjUseSkill@@QAEHHHHH@Z ; CObjUseSkill::CalDistance
  00036	3b 45 1c	 cmp	 eax, DWORD PTR _dis$[ebp]
  00039	7e 07		 jle	 SHORT $LN2@SkillAreaC

; 3518 : 		return FALSE;

  0003b	33 c0		 xor	 eax, eax
  0003d	e9 ab 00 00 00	 jmp	 $LN1@SkillAreaC
$LN2@SkillAreaC:

; 3519 : 
; 3520 : 	int targetangle = GetAngle(x, y, tx, ty);

  00042	8b 45 18	 mov	 eax, DWORD PTR _ty$[ebp]
  00045	50		 push	 eax
  00046	8b 4d 14	 mov	 ecx, DWORD PTR _tx$[ebp]
  00049	51		 push	 ecx
  0004a	8b 55 10	 mov	 edx, DWORD PTR _y$[ebp]
  0004d	52		 push	 edx
  0004e	8b 45 0c	 mov	 eax, DWORD PTR _x$[ebp]
  00051	50		 push	 eax
  00052	8b 4d fc	 mov	 ecx, DWORD PTR _this$[ebp]
  00055	e8 00 00 00 00	 call	 ?GetAngle@CObjUseSkill@@QAEHHHHH@Z ; CObjUseSkill::GetAngle
  0005a	89 45 f0	 mov	 DWORD PTR _targetangle$[ebp], eax

; 3521 : 
; 3522 : 	if( minangel < 0 )

  0005d	83 7d f8 00	 cmp	 DWORD PTR _minangel$[ebp], 0
  00061	7d 32		 jge	 SHORT $LN3@SkillAreaC

; 3523 : 	{
; 3524 : 		if( targetangle > maxangel )

  00063	8b 45 f0	 mov	 eax, DWORD PTR _targetangle$[ebp]
  00066	3b 45 f4	 cmp	 eax, DWORD PTR _maxangel$[ebp]
  00069	7e 1c		 jle	 SHORT $LN5@SkillAreaC

; 3525 : 		{
; 3526 : 			if( targetangle > 360+minangel )

  0006b	8b 45 f8	 mov	 eax, DWORD PTR _minangel$[ebp]
  0006e	05 68 01 00 00	 add	 eax, 360		; 00000168H
  00073	39 45 f0	 cmp	 DWORD PTR _targetangle$[ebp], eax
  00076	7e 09		 jle	 SHORT $LN7@SkillAreaC

; 3527 : 				return TRUE;

  00078	b8 01 00 00 00	 mov	 eax, 1
  0007d	eb 6e		 jmp	 SHORT $LN1@SkillAreaC
  0007f	eb 04		 jmp	 SHORT $LN8@SkillAreaC
$LN7@SkillAreaC:

; 3528 : 			else
; 3529 : 				return FALSE;

  00081	33 c0		 xor	 eax, eax
  00083	eb 68		 jmp	 SHORT $LN1@SkillAreaC
$LN8@SkillAreaC:

; 3530 : 		}

  00085	eb 0c		 jmp	 SHORT $LN6@SkillAreaC
$LN5@SkillAreaC:

; 3531 : 		else
; 3532 : 		{
; 3533 : 			if( maxangel < targetangle )

  00087	8b 45 f4	 mov	 eax, DWORD PTR _maxangel$[ebp]
  0008a	3b 45 f0	 cmp	 eax, DWORD PTR _targetangle$[ebp]
  0008d	7d 04		 jge	 SHORT $LN6@SkillAreaC

; 3534 : 				return FALSE;

  0008f	33 c0		 xor	 eax, eax
  00091	eb 5a		 jmp	 SHORT $LN1@SkillAreaC
$LN6@SkillAreaC:

; 3535 : 		}		
; 3536 : 	}

  00093	eb 53		 jmp	 SHORT $LN4@SkillAreaC
$LN3@SkillAreaC:

; 3537 : 	else
; 3538 : 	{
; 3539 : 		if( maxangel > 360 )

  00095	81 7d f4 68 01
	00 00		 cmp	 DWORD PTR _maxangel$[ebp], 360 ; 00000168H
  0009c	7e 32		 jle	 SHORT $LN10@SkillAreaC

; 3540 : 		{
; 3541 : 			if( targetangle < minangel )

  0009e	8b 45 f0	 mov	 eax, DWORD PTR _targetangle$[ebp]
  000a1	3b 45 f8	 cmp	 eax, DWORD PTR _minangel$[ebp]
  000a4	7d 1c		 jge	 SHORT $LN12@SkillAreaC

; 3542 : 			{
; 3543 : 				if( targetangle < maxangel-360 )

  000a6	8b 45 f4	 mov	 eax, DWORD PTR _maxangel$[ebp]
  000a9	2d 68 01 00 00	 sub	 eax, 360		; 00000168H
  000ae	39 45 f0	 cmp	 DWORD PTR _targetangle$[ebp], eax
  000b1	7d 09		 jge	 SHORT $LN14@SkillAreaC

; 3544 : 					return TRUE;

  000b3	b8 01 00 00 00	 mov	 eax, 1
  000b8	eb 33		 jmp	 SHORT $LN1@SkillAreaC
  000ba	eb 04		 jmp	 SHORT $LN15@SkillAreaC
$LN14@SkillAreaC:

; 3545 : 				else
; 3546 : 					return FALSE;

  000bc	33 c0		 xor	 eax, eax
  000be	eb 2d		 jmp	 SHORT $LN1@SkillAreaC
$LN15@SkillAreaC:

; 3547 : 			}

  000c0	eb 0c		 jmp	 SHORT $LN13@SkillAreaC
$LN12@SkillAreaC:

; 3548 : 			else
; 3549 : 			{
; 3550 : 				if( maxangel < targetangle )

  000c2	8b 45 f4	 mov	 eax, DWORD PTR _maxangel$[ebp]
  000c5	3b 45 f0	 cmp	 eax, DWORD PTR _targetangle$[ebp]
  000c8	7d 04		 jge	 SHORT $LN13@SkillAreaC

; 3551 : 					return FALSE;

  000ca	33 c0		 xor	 eax, eax
  000cc	eb 1f		 jmp	 SHORT $LN1@SkillAreaC
$LN13@SkillAreaC:

; 3552 : 			}
; 3553 : 		}

  000ce	eb 18		 jmp	 SHORT $LN4@SkillAreaC
$LN10@SkillAreaC:

; 3554 : 		else
; 3555 : 		{
; 3556 : 			if( minangel > targetangle )

  000d0	8b 45 f8	 mov	 eax, DWORD PTR _minangel$[ebp]
  000d3	3b 45 f0	 cmp	 eax, DWORD PTR _targetangle$[ebp]
  000d6	7e 04		 jle	 SHORT $LN17@SkillAreaC

; 3557 : 				return FALSE;

  000d8	33 c0		 xor	 eax, eax
  000da	eb 11		 jmp	 SHORT $LN1@SkillAreaC
$LN17@SkillAreaC:

; 3558 : 
; 3559 : 			if( maxangel < targetangle )

  000dc	8b 45 f4	 mov	 eax, DWORD PTR _maxangel$[ebp]
  000df	3b 45 f0	 cmp	 eax, DWORD PTR _targetangle$[ebp]
  000e2	7d 04		 jge	 SHORT $LN4@SkillAreaC

; 3560 : 				return FALSE;

  000e4	33 c0		 xor	 eax, eax
  000e6	eb 05		 jmp	 SHORT $LN1@SkillAreaC
$LN4@SkillAreaC:

; 3561 : 		}
; 3562 : 	}
; 3563 : 	return TRUE;

  000e8	b8 01 00 00 00	 mov	 eax, 1
$LN1@SkillAreaC:

; 3564 : }

  000ed	5f		 pop	 edi
  000ee	5e		 pop	 esi
  000ef	5b		 pop	 ebx
  000f0	8b e5		 mov	 esp, ebp
  000f2	5d		 pop	 ebp
  000f3	c2 1c 00	 ret	 28			; 0000001cH
?SkillAreaCheck@CObjUseSkill@@QAEHHHHHHHH@Z ENDP	; CObjUseSkill::SkillAreaCheck
_TEXT	ENDS
; Function compile flags: /Odtp /ZI
; File C:\Mu Online\Mu-GS-Webzen-MC-10093\GameServer\ObjUseSkill.cpp
;	COMDAT ?SkillFrustrum2@CObjUseSkill@@QAEXHMMM@Z
_TEXT	SEGMENT
_i$1 = -172						; size = 4
_vFrustrum$ = -168					; size = 48
_Matrix$ = -120						; size = 48
_Angle$ = -72						; size = 12
_p$ = -60						; size = 48
_lpObj$ = -12						; size = 4
_this$ = -8						; size = 4
__$ArrayPad$ = -4					; size = 4
_aIndex$ = 8						; size = 4
_fangle$ = 12						; size = 4
_tx$ = 16						; size = 4
_ty$ = 20						; size = 4
?SkillFrustrum2@CObjUseSkill@@QAEXHMMM@Z PROC		; CObjUseSkill::SkillFrustrum2, COMDAT
; _this$ = ecx

; 3458 : {	

  00000	55		 push	 ebp
  00001	8b ec		 mov	 ebp, esp
  00003	81 ec ec 00 00
	00		 sub	 esp, 236		; 000000ecH
  00009	a1 00 00 00 00	 mov	 eax, DWORD PTR ___security_cookie
  0000e	33 c5		 xor	 eax, ebp
  00010	89 45 fc	 mov	 DWORD PTR __$ArrayPad$[ebp], eax
  00013	53		 push	 ebx
  00014	56		 push	 esi
  00015	57		 push	 edi
  00016	89 4d f8	 mov	 DWORD PTR _this$[ebp], ecx

; 3459 : 	LPOBJECTSTRUCT lpObj=(LPOBJECTSTRUCT)&gObj[aIndex];

  00019	69 45 08 a0 1b
	00 00		 imul	 eax, DWORD PTR _aIndex$[ebp], 7072
  00020	03 05 00 00 00
	00		 add	 eax, DWORD PTR ?gObj@@3PAVOBJECTSTRUCT@@A ; gObj
  00026	89 45 f4	 mov	 DWORD PTR _lpObj$[ebp], eax

; 3460 : 
; 3461 : 	vec3_t p[4];
; 3462 : 
; 3463 : 	Vector(-0.f, ty ,0.f,p[0]);

  00029	b8 0c 00 00 00	 mov	 eax, 12			; 0000000cH
  0002e	6b c8 00	 imul	 ecx, eax, 0
  00031	8d 54 0d c4	 lea	 edx, DWORD PTR _p$[ebp+ecx]
  00035	b8 04 00 00 00	 mov	 eax, 4
  0003a	6b c8 00	 imul	 ecx, eax, 0
  0003d	f3 0f 10 05 00
	00 00 00	 movss	 xmm0, DWORD PTR __real@80000000
  00045	f3 0f 11 04 0a	 movss	 DWORD PTR [edx+ecx], xmm0
  0004a	b8 0c 00 00 00	 mov	 eax, 12			; 0000000cH
  0004f	6b c8 00	 imul	 ecx, eax, 0
  00052	8d 54 0d c4	 lea	 edx, DWORD PTR _p$[ebp+ecx]
  00056	b8 04 00 00 00	 mov	 eax, 4
  0005b	c1 e0 00	 shl	 eax, 0
  0005e	f3 0f 10 45 14	 movss	 xmm0, DWORD PTR _ty$[ebp]
  00063	f3 0f 11 04 02	 movss	 DWORD PTR [edx+eax], xmm0
  00068	b8 0c 00 00 00	 mov	 eax, 12			; 0000000cH
  0006d	6b c8 00	 imul	 ecx, eax, 0
  00070	8d 54 0d c4	 lea	 edx, DWORD PTR _p$[ebp+ecx]
  00074	b8 04 00 00 00	 mov	 eax, 4
  00079	d1 e0		 shl	 eax, 1
  0007b	0f 57 c0	 xorps	 xmm0, xmm0
  0007e	f3 0f 11 04 02	 movss	 DWORD PTR [edx+eax], xmm0

; 3464 : 	Vector(0.f, ty ,0.f,p[1]);

  00083	b8 0c 00 00 00	 mov	 eax, 12			; 0000000cH
  00088	c1 e0 00	 shl	 eax, 0
  0008b	8d 4c 05 c4	 lea	 ecx, DWORD PTR _p$[ebp+eax]
  0008f	ba 04 00 00 00	 mov	 edx, 4
  00094	6b c2 00	 imul	 eax, edx, 0
  00097	0f 57 c0	 xorps	 xmm0, xmm0
  0009a	f3 0f 11 04 01	 movss	 DWORD PTR [ecx+eax], xmm0
  0009f	b8 0c 00 00 00	 mov	 eax, 12			; 0000000cH
  000a4	c1 e0 00	 shl	 eax, 0
  000a7	8d 4c 05 c4	 lea	 ecx, DWORD PTR _p$[ebp+eax]
  000ab	ba 04 00 00 00	 mov	 edx, 4
  000b0	c1 e2 00	 shl	 edx, 0
  000b3	f3 0f 10 45 14	 movss	 xmm0, DWORD PTR _ty$[ebp]
  000b8	f3 0f 11 04 11	 movss	 DWORD PTR [ecx+edx], xmm0
  000bd	b8 0c 00 00 00	 mov	 eax, 12			; 0000000cH
  000c2	c1 e0 00	 shl	 eax, 0
  000c5	8d 4c 05 c4	 lea	 ecx, DWORD PTR _p$[ebp+eax]
  000c9	ba 04 00 00 00	 mov	 edx, 4
  000ce	d1 e2		 shl	 edx, 1
  000d0	0f 57 c0	 xorps	 xmm0, xmm0
  000d3	f3 0f 11 04 11	 movss	 DWORD PTR [ecx+edx], xmm0

; 3465 : 	Vector(tx,	1.f ,0.f,p[2]);

  000d8	b8 0c 00 00 00	 mov	 eax, 12			; 0000000cH
  000dd	d1 e0		 shl	 eax, 1
  000df	8d 4c 05 c4	 lea	 ecx, DWORD PTR _p$[ebp+eax]
  000e3	ba 04 00 00 00	 mov	 edx, 4
  000e8	6b c2 00	 imul	 eax, edx, 0
  000eb	f3 0f 10 45 10	 movss	 xmm0, DWORD PTR _tx$[ebp]
  000f0	f3 0f 11 04 01	 movss	 DWORD PTR [ecx+eax], xmm0
  000f5	b8 0c 00 00 00	 mov	 eax, 12			; 0000000cH
  000fa	d1 e0		 shl	 eax, 1
  000fc	8d 4c 05 c4	 lea	 ecx, DWORD PTR _p$[ebp+eax]
  00100	ba 04 00 00 00	 mov	 edx, 4
  00105	c1 e2 00	 shl	 edx, 0
  00108	f3 0f 10 05 00
	00 00 00	 movss	 xmm0, DWORD PTR __real@3f800000
  00110	f3 0f 11 04 11	 movss	 DWORD PTR [ecx+edx], xmm0
  00115	b8 0c 00 00 00	 mov	 eax, 12			; 0000000cH
  0011a	d1 e0		 shl	 eax, 1
  0011c	8d 4c 05 c4	 lea	 ecx, DWORD PTR _p$[ebp+eax]
  00120	ba 04 00 00 00	 mov	 edx, 4
  00125	d1 e2		 shl	 edx, 1
  00127	0f 57 c0	 xorps	 xmm0, xmm0
  0012a	f3 0f 11 04 11	 movss	 DWORD PTR [ecx+edx], xmm0

; 3466 : 	Vector(-tx,	1.f ,0.f,p[3]);

  0012f	f3 0f 10 45 10	 movss	 xmm0, DWORD PTR _tx$[ebp]
  00134	0f 57 05 00 00
	00 00		 xorps	 xmm0, DWORD PTR __xmm@80000000800000008000000080000000
  0013b	b8 0c 00 00 00	 mov	 eax, 12			; 0000000cH
  00140	6b c8 03	 imul	 ecx, eax, 3
  00143	8d 54 0d c4	 lea	 edx, DWORD PTR _p$[ebp+ecx]
  00147	b8 04 00 00 00	 mov	 eax, 4
  0014c	6b c8 00	 imul	 ecx, eax, 0
  0014f	f3 0f 11 04 0a	 movss	 DWORD PTR [edx+ecx], xmm0
  00154	b8 0c 00 00 00	 mov	 eax, 12			; 0000000cH
  00159	6b c8 03	 imul	 ecx, eax, 3
  0015c	8d 54 0d c4	 lea	 edx, DWORD PTR _p$[ebp+ecx]
  00160	b8 04 00 00 00	 mov	 eax, 4
  00165	c1 e0 00	 shl	 eax, 0
  00168	f3 0f 10 05 00
	00 00 00	 movss	 xmm0, DWORD PTR __real@3f800000
  00170	f3 0f 11 04 02	 movss	 DWORD PTR [edx+eax], xmm0
  00175	b8 0c 00 00 00	 mov	 eax, 12			; 0000000cH
  0017a	6b c8 03	 imul	 ecx, eax, 3
  0017d	8d 54 0d c4	 lea	 edx, DWORD PTR _p$[ebp+ecx]
  00181	b8 04 00 00 00	 mov	 eax, 4
  00186	d1 e0		 shl	 eax, 1
  00188	0f 57 c0	 xorps	 xmm0, xmm0
  0018b	f3 0f 11 04 02	 movss	 DWORD PTR [edx+eax], xmm0

; 3467 : 
; 3468 : 	vec3_t Angle;
; 3469 : 	float Matrix[3][4];
; 3470 : 	Vector(0.f,0.f,fangle,Angle);

  00190	b8 04 00 00 00	 mov	 eax, 4
  00195	6b c8 00	 imul	 ecx, eax, 0
  00198	0f 57 c0	 xorps	 xmm0, xmm0
  0019b	f3 0f 11 44 0d
	b8		 movss	 DWORD PTR _Angle$[ebp+ecx], xmm0
  001a1	b8 04 00 00 00	 mov	 eax, 4
  001a6	c1 e0 00	 shl	 eax, 0
  001a9	0f 57 c0	 xorps	 xmm0, xmm0
  001ac	f3 0f 11 44 05
	b8		 movss	 DWORD PTR _Angle$[ebp+eax], xmm0
  001b2	b8 04 00 00 00	 mov	 eax, 4
  001b7	d1 e0		 shl	 eax, 1
  001b9	f3 0f 10 45 0c	 movss	 xmm0, DWORD PTR _fangle$[ebp]
  001be	f3 0f 11 44 05
	b8		 movss	 DWORD PTR _Angle$[ebp+eax], xmm0

; 3471 : 	AngleMatrix(Angle,Matrix);

  001c4	8d 45 88	 lea	 eax, DWORD PTR _Matrix$[ebp]
  001c7	50		 push	 eax
  001c8	8d 4d b8	 lea	 ecx, DWORD PTR _Angle$[ebp]
  001cb	51		 push	 ecx
  001cc	e8 00 00 00 00	 call	 _AngleMatrix
  001d1	83 c4 08	 add	 esp, 8

; 3472 :     vec3_t vFrustrum[4];
; 3473 : 	
; 3474 : 	for(int i=0;i<4;i++)

  001d4	c7 85 54 ff ff
	ff 00 00 00 00	 mov	 DWORD PTR _i$1[ebp], 0
  001de	eb 0f		 jmp	 SHORT $LN4@SkillFrust
$LN2@SkillFrust:
  001e0	8b 85 54 ff ff
	ff		 mov	 eax, DWORD PTR _i$1[ebp]
  001e6	83 c0 01	 add	 eax, 1
  001e9	89 85 54 ff ff
	ff		 mov	 DWORD PTR _i$1[ebp], eax
$LN4@SkillFrust:
  001ef	83 bd 54 ff ff
	ff 04		 cmp	 DWORD PTR _i$1[ebp], 4
  001f6	0f 8d 9a 00 00
	00		 jge	 $LN3@SkillFrust

; 3475 : 	{
; 3476 : 		VectorRotate(p[i],Matrix,vFrustrum[i]);

  001fc	6b 85 54 ff ff
	ff 0c		 imul	 eax, DWORD PTR _i$1[ebp], 12
  00203	8d 8c 05 58 ff
	ff ff		 lea	 ecx, DWORD PTR _vFrustrum$[ebp+eax]
  0020a	51		 push	 ecx
  0020b	8d 55 88	 lea	 edx, DWORD PTR _Matrix$[ebp]
  0020e	52		 push	 edx
  0020f	6b 85 54 ff ff
	ff 0c		 imul	 eax, DWORD PTR _i$1[ebp], 12
  00216	8d 4c 05 c4	 lea	 ecx, DWORD PTR _p$[ebp+eax]
  0021a	51		 push	 ecx
  0021b	e8 00 00 00 00	 call	 _VectorRotate
  00220	83 c4 0c	 add	 esp, 12			; 0000000cH

; 3477 : 		lpObj->fSkillFrustrumX[i] = (int)(vFrustrum[i][0])+lpObj->X;

  00223	6b 85 54 ff ff
	ff 0c		 imul	 eax, DWORD PTR _i$1[ebp], 12
  0022a	8d 8c 05 58 ff
	ff ff		 lea	 ecx, DWORD PTR _vFrustrum$[ebp+eax]
  00231	ba 04 00 00 00	 mov	 edx, 4
  00236	6b c2 00	 imul	 eax, edx, 0
  00239	f3 0f 2c 0c 01	 cvttss2si ecx, DWORD PTR [ecx+eax]
  0023e	8b 55 f4	 mov	 edx, DWORD PTR _lpObj$[ebp]
  00241	0f bf 82 04 01
	00 00		 movsx	 eax, WORD PTR [edx+260]
  00248	03 c8		 add	 ecx, eax
  0024a	8b 95 54 ff ff
	ff		 mov	 edx, DWORD PTR _i$1[ebp]
  00250	8b 45 f4	 mov	 eax, DWORD PTR _lpObj$[ebp]
  00253	89 8c 90 fc 0e
	00 00		 mov	 DWORD PTR [eax+edx*4+3836], ecx

; 3478 : 		lpObj->fSkillFrustrumY[i] = (int)(vFrustrum[i][1])+lpObj->Y;

  0025a	6b 85 54 ff ff
	ff 0c		 imul	 eax, DWORD PTR _i$1[ebp], 12
  00261	8d 8c 05 58 ff
	ff ff		 lea	 ecx, DWORD PTR _vFrustrum$[ebp+eax]
  00268	ba 04 00 00 00	 mov	 edx, 4
  0026d	c1 e2 00	 shl	 edx, 0
  00270	f3 0f 2c 04 11	 cvttss2si eax, DWORD PTR [ecx+edx]
  00275	8b 4d f4	 mov	 ecx, DWORD PTR _lpObj$[ebp]
  00278	0f bf 91 06 01
	00 00		 movsx	 edx, WORD PTR [ecx+262]
  0027f	03 c2		 add	 eax, edx
  00281	8b 8d 54 ff ff
	ff		 mov	 ecx, DWORD PTR _i$1[ebp]
  00287	8b 55 f4	 mov	 edx, DWORD PTR _lpObj$[ebp]
  0028a	89 84 8a 0c 0f
	00 00		 mov	 DWORD PTR [edx+ecx*4+3852], eax

; 3479 : 	}

  00291	e9 4a ff ff ff	 jmp	 $LN2@SkillFrust
$LN3@SkillFrust:

; 3480 : }

  00296	5f		 pop	 edi
  00297	5e		 pop	 esi
  00298	5b		 pop	 ebx
  00299	8b 4d fc	 mov	 ecx, DWORD PTR __$ArrayPad$[ebp]
  0029c	33 cd		 xor	 ecx, ebp
  0029e	e8 00 00 00 00	 call	 @__security_check_cookie@4
  002a3	8b e5		 mov	 esp, ebp
  002a5	5d		 pop	 ebp
  002a6	c2 10 00	 ret	 16			; 00000010H
?SkillFrustrum2@CObjUseSkill@@QAEXHMMM@Z ENDP		; CObjUseSkill::SkillFrustrum2
_TEXT	ENDS
; Function compile flags: /Odtp /ZI
; File C:\Mu Online\Mu-GS-Webzen-MC-10093\GameServer\ObjUseSkill.cpp
;	COMDAT ?CalDistance@CObjUseSkill@@QAEHHHHH@Z
_TEXT	SEGMENT
tv88 = -80						; size = 4
_ty$ = -12						; size = 4
_tx$ = -8						; size = 4
_this$ = -4						; size = 4
_x$ = 8							; size = 4
_y$ = 12						; size = 4
_x1$ = 16						; size = 4
_y1$ = 20						; size = 4
?CalDistance@CObjUseSkill@@QAEHHHHH@Z PROC		; CObjUseSkill::CalDistance, COMDAT
; _this$ = ecx

; 3497 : {

  00000	55		 push	 ebp
  00001	8b ec		 mov	 ebp, esp
  00003	83 ec 50	 sub	 esp, 80			; 00000050H
  00006	53		 push	 ebx
  00007	56		 push	 esi
  00008	57		 push	 edi
  00009	89 4d fc	 mov	 DWORD PTR _this$[ebp], ecx

; 3498 : 	if( (x == x1) && 

  0000c	8b 45 08	 mov	 eax, DWORD PTR _x$[ebp]
  0000f	3b 45 10	 cmp	 eax, DWORD PTR _x1$[ebp]
  00012	75 0c		 jne	 SHORT $LN2@CalDistanc
  00014	8b 45 0c	 mov	 eax, DWORD PTR _y$[ebp]
  00017	3b 45 14	 cmp	 eax, DWORD PTR _y1$[ebp]
  0001a	75 04		 jne	 SHORT $LN2@CalDistanc

; 3499 : 		(y == y1) )
; 3500 : 	{
; 3501 : 		return 0;

  0001c	33 c0		 xor	 eax, eax
  0001e	eb 50		 jmp	 SHORT $LN1@CalDistanc
$LN2@CalDistanc:

; 3502 : 	}
; 3503 : 	float tx = (float)(x-x1);

  00020	8b 45 08	 mov	 eax, DWORD PTR _x$[ebp]
  00023	2b 45 10	 sub	 eax, DWORD PTR _x1$[ebp]
  00026	f3 0f 2a c0	 cvtsi2ss xmm0, eax
  0002a	f3 0f 11 45 f8	 movss	 DWORD PTR _tx$[ebp], xmm0

; 3504 : 	float ty = (float)(y-y1);

  0002f	8b 45 0c	 mov	 eax, DWORD PTR _y$[ebp]
  00032	2b 45 14	 sub	 eax, DWORD PTR _y1$[ebp]
  00035	f3 0f 2a c0	 cvtsi2ss xmm0, eax
  00039	f3 0f 11 45 f4	 movss	 DWORD PTR _ty$[ebp], xmm0

; 3505 : 			
; 3506 : 	return (int)(sqrt((tx*tx)+(ty*ty)));

  0003e	f3 0f 10 45 f8	 movss	 xmm0, DWORD PTR _tx$[ebp]
  00043	f3 0f 59 45 f8	 mulss	 xmm0, DWORD PTR _tx$[ebp]
  00048	f3 0f 10 4d f4	 movss	 xmm1, DWORD PTR _ty$[ebp]
  0004d	f3 0f 59 4d f4	 mulss	 xmm1, DWORD PTR _ty$[ebp]
  00052	f3 0f 58 c1	 addss	 xmm0, xmm1
  00056	51		 push	 ecx
  00057	f3 0f 11 04 24	 movss	 DWORD PTR [esp], xmm0
  0005c	e8 00 00 00 00	 call	 ?sqrt@@YAMM@Z		; sqrt
  00061	83 c4 04	 add	 esp, 4
  00064	d9 5d b0	 fstp	 DWORD PTR tv88[ebp]
  00067	f3 0f 10 45 b0	 movss	 xmm0, DWORD PTR tv88[ebp]
  0006c	f3 0f 2c c0	 cvttss2si eax, xmm0
$LN1@CalDistanc:

; 3507 : }

  00070	5f		 pop	 edi
  00071	5e		 pop	 esi
  00072	5b		 pop	 ebx
  00073	8b e5		 mov	 esp, ebp
  00075	5d		 pop	 ebp
  00076	c2 10 00	 ret	 16			; 00000010H
?CalDistance@CObjUseSkill@@QAEHHHHH@Z ENDP		; CObjUseSkill::CalDistance
_TEXT	ENDS
; Function compile flags: /Odtp /ZI
; File C:\Mu Online\Mu-GS-Webzen-MC-10093\GameServer\ObjUseSkill.cpp
;	COMDAT ?GetAngle@CObjUseSkill@@QAEHHHHH@Z
_TEXT	SEGMENT
_angle$ = -32						; size = 4
_rad$ = -28						; size = 8
_diffY$ = -20						; size = 8
_diffX$ = -12						; size = 8
_this$ = -4						; size = 4
_x$ = 8							; size = 4
_y$ = 12						; size = 4
_tx$ = 16						; size = 4
_ty$ = 20						; size = 4
?GetAngle@CObjUseSkill@@QAEHHHHH@Z PROC			; CObjUseSkill::GetAngle, COMDAT
; _this$ = ecx

; 3486 : {

  00000	55		 push	 ebp
  00001	8b ec		 mov	 ebp, esp
  00003	83 ec 60	 sub	 esp, 96			; 00000060H
  00006	53		 push	 ebx
  00007	56		 push	 esi
  00008	57		 push	 edi
  00009	89 4d fc	 mov	 DWORD PTR _this$[ebp], ecx

; 3487 : 	double	diffX = x-tx;

  0000c	8b 45 08	 mov	 eax, DWORD PTR _x$[ebp]
  0000f	2b 45 10	 sub	 eax, DWORD PTR _tx$[ebp]
  00012	f2 0f 2a c0	 cvtsi2sd xmm0, eax
  00016	f2 0f 11 45 f4	 movsd	 QWORD PTR _diffX$[ebp], xmm0

; 3488 : 	double	diffY = y-ty;

  0001b	8b 45 0c	 mov	 eax, DWORD PTR _y$[ebp]
  0001e	2b 45 14	 sub	 eax, DWORD PTR _ty$[ebp]
  00021	f2 0f 2a c0	 cvtsi2sd xmm0, eax
  00025	f2 0f 11 45 ec	 movsd	 QWORD PTR _diffY$[ebp], xmm0

; 3489 : 	double rad = atan2(diffY, diffX);

  0002a	83 ec 08	 sub	 esp, 8
  0002d	f2 0f 10 45 f4	 movsd	 xmm0, QWORD PTR _diffX$[ebp]
  00032	f2 0f 11 04 24	 movsd	 QWORD PTR [esp], xmm0
  00037	83 ec 08	 sub	 esp, 8
  0003a	f2 0f 10 45 ec	 movsd	 xmm0, QWORD PTR _diffY$[ebp]
  0003f	f2 0f 11 04 24	 movsd	 QWORD PTR [esp], xmm0
  00044	e8 00 00 00 00	 call	 _atan2
  00049	83 c4 10	 add	 esp, 16			; 00000010H
  0004c	dd 5d e4	 fstp	 QWORD PTR _rad$[ebp]

; 3490 : 	int angle = (int)(rad*180/Q_PI+90);	

  0004f	f2 0f 10 45 e4	 movsd	 xmm0, QWORD PTR _rad$[ebp]
  00054	f2 0f 59 05 00
	00 00 00	 mulsd	 xmm0, QWORD PTR __real@4066800000000000
  0005c	f2 0f 5e 05 00
	00 00 00	 divsd	 xmm0, QWORD PTR __real@400921fb60000000
  00064	f2 0f 58 05 00
	00 00 00	 addsd	 xmm0, QWORD PTR __real@4056800000000000
  0006c	f2 0f 2c c0	 cvttsd2si eax, xmm0
  00070	89 45 e0	 mov	 DWORD PTR _angle$[ebp], eax

; 3491 : 	if( angle < 0 )	angle = 360+angle;	

  00073	83 7d e0 00	 cmp	 DWORD PTR _angle$[ebp], 0
  00077	7d 0b		 jge	 SHORT $LN2@GetAngle
  00079	8b 45 e0	 mov	 eax, DWORD PTR _angle$[ebp]
  0007c	05 68 01 00 00	 add	 eax, 360		; 00000168H
  00081	89 45 e0	 mov	 DWORD PTR _angle$[ebp], eax
$LN2@GetAngle:

; 3492 : 	
; 3493 : 	return angle;

  00084	8b 45 e0	 mov	 eax, DWORD PTR _angle$[ebp]

; 3494 : }

  00087	5f		 pop	 edi
  00088	5e		 pop	 esi
  00089	5b		 pop	 ebx
  0008a	8b e5		 mov	 esp, ebp
  0008c	5d		 pop	 ebp
  0008d	c2 10 00	 ret	 16			; 00000010H
?GetAngle@CObjUseSkill@@QAEHHHHH@Z ENDP			; CObjUseSkill::GetAngle
_TEXT	ENDS
; Function compile flags: /Odtp /ZI
; File C:\Mu Online\Mu-GS-Webzen-MC-10093\GameServer\ObjUseSkill.cpp
;	COMDAT ?GetTargetLinePath@CObjUseSkill@@QAEHHHHHPAH0H@Z
_TEXT	SEGMENT
_count$ = -44						; size = 4
_dis$ = -40						; size = 4
_incy$ = -36						; size = 4
_incx$ = -32						; size = 4
_error$ = -28						; size = 4
_half$ = -24						; size = 4
_delta_y$ = -20						; size = 4
_delta_x$ = -16						; size = 4
_y$ = -12						; size = 4
_x$ = -8						; size = 4
_this$ = -4						; size = 4
_sx$ = 8						; size = 4
_sy$ = 12						; size = 4
_tx$ = 16						; size = 4
_ty$ = 20						; size = 4
_PathX$ = 24						; size = 4
_PathY$ = 28						; size = 4
_distance$ = 32						; size = 4
?GetTargetLinePath@CObjUseSkill@@QAEHHHHHPAH0H@Z PROC	; CObjUseSkill::GetTargetLinePath, COMDAT
; _this$ = ecx

; 86   : {

  00000	55		 push	 ebp
  00001	8b ec		 mov	 ebp, esp
  00003	83 ec 6c	 sub	 esp, 108		; 0000006cH
  00006	53		 push	 ebx
  00007	56		 push	 esi
  00008	57		 push	 edi
  00009	89 4d fc	 mov	 DWORD PTR _this$[ebp], ecx

; 87   : 	int x, y;
; 88   : 	int delta_x, delta_y, half, error = 0;

  0000c	c7 45 e4 00 00
	00 00		 mov	 DWORD PTR _error$[ebp], 0

; 89   : 	int incx = 1, incy = 1;

  00013	c7 45 e0 01 00
	00 00		 mov	 DWORD PTR _incx$[ebp], 1
  0001a	c7 45 dc 01 00
	00 00		 mov	 DWORD PTR _incy$[ebp], 1

; 90   : 
; 91   : 	if( sx > tx )

  00021	8b 45 08	 mov	 eax, DWORD PTR _sx$[ebp]
  00024	3b 45 10	 cmp	 eax, DWORD PTR _tx$[ebp]
  00027	7e 12		 jle	 SHORT $LN14@GetTargetL

; 92   : 	{
; 93   : 		incx = -1;

  00029	c7 45 e0 ff ff
	ff ff		 mov	 DWORD PTR _incx$[ebp], -1

; 94   : 		delta_x = sx - tx;

  00030	8b 45 08	 mov	 eax, DWORD PTR _sx$[ebp]
  00033	2b 45 10	 sub	 eax, DWORD PTR _tx$[ebp]
  00036	89 45 f0	 mov	 DWORD PTR _delta_x$[ebp], eax

; 95   : 	}

  00039	eb 09		 jmp	 SHORT $LN15@GetTargetL
$LN14@GetTargetL:

; 96   : 	else
; 97   : 	{
; 98   : 		delta_x = tx - sx;

  0003b	8b 45 10	 mov	 eax, DWORD PTR _tx$[ebp]
  0003e	2b 45 08	 sub	 eax, DWORD PTR _sx$[ebp]
  00041	89 45 f0	 mov	 DWORD PTR _delta_x$[ebp], eax
$LN15@GetTargetL:

; 99   : 	}
; 100  : 
; 101  : 	if( sy > ty )

  00044	8b 45 0c	 mov	 eax, DWORD PTR _sy$[ebp]
  00047	3b 45 14	 cmp	 eax, DWORD PTR _ty$[ebp]
  0004a	7e 12		 jle	 SHORT $LN16@GetTargetL

; 102  : 	{
; 103  : 		incy = -1;

  0004c	c7 45 dc ff ff
	ff ff		 mov	 DWORD PTR _incy$[ebp], -1

; 104  : 		delta_y = sy - ty;

  00053	8b 45 0c	 mov	 eax, DWORD PTR _sy$[ebp]
  00056	2b 45 14	 sub	 eax, DWORD PTR _ty$[ebp]
  00059	89 45 ec	 mov	 DWORD PTR _delta_y$[ebp], eax

; 105  : 	}	

  0005c	eb 09		 jmp	 SHORT $LN17@GetTargetL
$LN16@GetTargetL:

; 106  : 	else
; 107  : 	{
; 108  : 		delta_y = ty - sy;

  0005e	8b 45 14	 mov	 eax, DWORD PTR _ty$[ebp]
  00061	2b 45 0c	 sub	 eax, DWORD PTR _sy$[ebp]
  00064	89 45 ec	 mov	 DWORD PTR _delta_y$[ebp], eax
$LN17@GetTargetL:

; 109  : 	}
; 110  : 
; 111  : 	int dis = (int)(sqrt((double)(delta_x*delta_x)+(delta_y*delta_y)));

  00067	8b 45 f0	 mov	 eax, DWORD PTR _delta_x$[ebp]
  0006a	0f af 45 f0	 imul	 eax, DWORD PTR _delta_x$[ebp]
  0006e	f2 0f 2a c0	 cvtsi2sd xmm0, eax
  00072	8b 4d ec	 mov	 ecx, DWORD PTR _delta_y$[ebp]
  00075	0f af 4d ec	 imul	 ecx, DWORD PTR _delta_y$[ebp]
  00079	f2 0f 2a c9	 cvtsi2sd xmm1, ecx
  0007d	f2 0f 58 c1	 addsd	 xmm0, xmm1
  00081	83 ec 08	 sub	 esp, 8
  00084	f2 0f 11 04 24	 movsd	 QWORD PTR [esp], xmm0
  00089	e8 00 00 00 00	 call	 _sqrt
  0008e	83 c4 08	 add	 esp, 8
  00091	e8 00 00 00 00	 call	 __ftol2_sse
  00096	89 45 d8	 mov	 DWORD PTR _dis$[ebp], eax

; 112  : 	dis = distance-dis;

  00099	8b 45 20	 mov	 eax, DWORD PTR _distance$[ebp]
  0009c	2b 45 d8	 sub	 eax, DWORD PTR _dis$[ebp]
  0009f	89 45 d8	 mov	 DWORD PTR _dis$[ebp], eax

; 113  : 
; 114  : 	int count = 0;

  000a2	c7 45 d4 00 00
	00 00		 mov	 DWORD PTR _count$[ebp], 0

; 115  : 	
; 116  : 	PathX[count] = sx;	PathY[count] = sy;	count++;

  000a9	8b 45 d4	 mov	 eax, DWORD PTR _count$[ebp]
  000ac	8b 4d 18	 mov	 ecx, DWORD PTR _PathX$[ebp]
  000af	8b 55 08	 mov	 edx, DWORD PTR _sx$[ebp]
  000b2	89 14 81	 mov	 DWORD PTR [ecx+eax*4], edx
  000b5	8b 45 d4	 mov	 eax, DWORD PTR _count$[ebp]
  000b8	8b 4d 1c	 mov	 ecx, DWORD PTR _PathY$[ebp]
  000bb	8b 55 0c	 mov	 edx, DWORD PTR _sy$[ebp]
  000be	89 14 81	 mov	 DWORD PTR [ecx+eax*4], edx
  000c1	8b 45 d4	 mov	 eax, DWORD PTR _count$[ebp]
  000c4	83 c0 01	 add	 eax, 1
  000c7	89 45 d4	 mov	 DWORD PTR _count$[ebp], eax

; 117  : 
; 118  : 	if( delta_x > delta_y )

  000ca	8b 45 f0	 mov	 eax, DWORD PTR _delta_x$[ebp]
  000cd	3b 45 ec	 cmp	 eax, DWORD PTR _delta_y$[ebp]
  000d0	0f 8e e8 00 00
	00		 jle	 $LN18@GetTargetL

; 119  : 	{
; 120  : 		y = sy;

  000d6	8b 45 0c	 mov	 eax, DWORD PTR _sy$[ebp]
  000d9	89 45 f4	 mov	 DWORD PTR _y$[ebp], eax

; 121  : 		half = (int)( delta_x / 2 );

  000dc	8b 45 f0	 mov	 eax, DWORD PTR _delta_x$[ebp]
  000df	99		 cdq
  000e0	2b c2		 sub	 eax, edx
  000e2	d1 f8		 sar	 eax, 1
  000e4	89 45 e8	 mov	 DWORD PTR _half$[ebp], eax

; 122  : 
; 123  : 		if( incx > 0 )

  000e7	83 7d e0 00	 cmp	 DWORD PTR _incx$[ebp], 0
  000eb	7e 67		 jle	 SHORT $LN20@GetTargetL

; 124  : 		{
; 125  : 			for( x = sx+1; x <= tx+dis; x ++ )

  000ed	8b 45 08	 mov	 eax, DWORD PTR _sx$[ebp]
  000f0	83 c0 01	 add	 eax, 1
  000f3	89 45 f8	 mov	 DWORD PTR _x$[ebp], eax
  000f6	eb 09		 jmp	 SHORT $LN4@GetTargetL
$LN2@GetTargetL:
  000f8	8b 45 f8	 mov	 eax, DWORD PTR _x$[ebp]
  000fb	83 c0 01	 add	 eax, 1
  000fe	89 45 f8	 mov	 DWORD PTR _x$[ebp], eax
$LN4@GetTargetL:
  00101	8b 45 10	 mov	 eax, DWORD PTR _tx$[ebp]
  00104	03 45 d8	 add	 eax, DWORD PTR _dis$[ebp]
  00107	39 45 f8	 cmp	 DWORD PTR _x$[ebp], eax
  0010a	7f 46		 jg	 SHORT $LN3@GetTargetL

; 126  : 			{
; 127  : 				error += delta_y;

  0010c	8b 45 e4	 mov	 eax, DWORD PTR _error$[ebp]
  0010f	03 45 ec	 add	 eax, DWORD PTR _delta_y$[ebp]
  00112	89 45 e4	 mov	 DWORD PTR _error$[ebp], eax

; 128  : 				if( error > half )

  00115	8b 45 e4	 mov	 eax, DWORD PTR _error$[ebp]
  00118	3b 45 e8	 cmp	 eax, DWORD PTR _half$[ebp]
  0011b	7e 12		 jle	 SHORT $LN22@GetTargetL

; 129  : 				{
; 130  : 					y += incy;

  0011d	8b 45 f4	 mov	 eax, DWORD PTR _y$[ebp]
  00120	03 45 dc	 add	 eax, DWORD PTR _incy$[ebp]
  00123	89 45 f4	 mov	 DWORD PTR _y$[ebp], eax

; 131  : 					error -= delta_x;

  00126	8b 45 e4	 mov	 eax, DWORD PTR _error$[ebp]
  00129	2b 45 f0	 sub	 eax, DWORD PTR _delta_x$[ebp]
  0012c	89 45 e4	 mov	 DWORD PTR _error$[ebp], eax
$LN22@GetTargetL:

; 132  : 				}
; 133  : 
; 134  : 				PathX[count] = x;	PathY[count] = y;	count++;				

  0012f	8b 45 d4	 mov	 eax, DWORD PTR _count$[ebp]
  00132	8b 4d 18	 mov	 ecx, DWORD PTR _PathX$[ebp]
  00135	8b 55 f8	 mov	 edx, DWORD PTR _x$[ebp]
  00138	89 14 81	 mov	 DWORD PTR [ecx+eax*4], edx
  0013b	8b 45 d4	 mov	 eax, DWORD PTR _count$[ebp]
  0013e	8b 4d 1c	 mov	 ecx, DWORD PTR _PathY$[ebp]
  00141	8b 55 f4	 mov	 edx, DWORD PTR _y$[ebp]
  00144	89 14 81	 mov	 DWORD PTR [ecx+eax*4], edx
  00147	8b 45 d4	 mov	 eax, DWORD PTR _count$[ebp]
  0014a	83 c0 01	 add	 eax, 1
  0014d	89 45 d4	 mov	 DWORD PTR _count$[ebp], eax

; 135  : 			}

  00150	eb a6		 jmp	 SHORT $LN2@GetTargetL
$LN3@GetTargetL:

; 136  : 		}

  00152	eb 65		 jmp	 SHORT $LN6@GetTargetL
$LN20@GetTargetL:

; 137  : 		else
; 138  : 		{
; 139  : 			for( x = sx-1; x >= tx-dis; x -- )

  00154	8b 45 08	 mov	 eax, DWORD PTR _sx$[ebp]
  00157	83 e8 01	 sub	 eax, 1
  0015a	89 45 f8	 mov	 DWORD PTR _x$[ebp], eax
  0015d	eb 09		 jmp	 SHORT $LN7@GetTargetL
$LN5@GetTargetL:
  0015f	8b 45 f8	 mov	 eax, DWORD PTR _x$[ebp]
  00162	83 e8 01	 sub	 eax, 1
  00165	89 45 f8	 mov	 DWORD PTR _x$[ebp], eax
$LN7@GetTargetL:
  00168	8b 45 10	 mov	 eax, DWORD PTR _tx$[ebp]
  0016b	2b 45 d8	 sub	 eax, DWORD PTR _dis$[ebp]
  0016e	39 45 f8	 cmp	 DWORD PTR _x$[ebp], eax
  00171	7c 46		 jl	 SHORT $LN6@GetTargetL

; 140  : 			{
; 141  : 				error += delta_y;

  00173	8b 45 e4	 mov	 eax, DWORD PTR _error$[ebp]
  00176	03 45 ec	 add	 eax, DWORD PTR _delta_y$[ebp]
  00179	89 45 e4	 mov	 DWORD PTR _error$[ebp], eax

; 142  : 				if( error > half )

  0017c	8b 45 e4	 mov	 eax, DWORD PTR _error$[ebp]
  0017f	3b 45 e8	 cmp	 eax, DWORD PTR _half$[ebp]
  00182	7e 12		 jle	 SHORT $LN23@GetTargetL

; 143  : 				{
; 144  : 					y += incy;

  00184	8b 45 f4	 mov	 eax, DWORD PTR _y$[ebp]
  00187	03 45 dc	 add	 eax, DWORD PTR _incy$[ebp]
  0018a	89 45 f4	 mov	 DWORD PTR _y$[ebp], eax

; 145  : 					error -= delta_x;

  0018d	8b 45 e4	 mov	 eax, DWORD PTR _error$[ebp]
  00190	2b 45 f0	 sub	 eax, DWORD PTR _delta_x$[ebp]
  00193	89 45 e4	 mov	 DWORD PTR _error$[ebp], eax
$LN23@GetTargetL:

; 146  : 				}
; 147  : 				PathX[count] = x;	PathY[count] = y;	count++;

  00196	8b 45 d4	 mov	 eax, DWORD PTR _count$[ebp]
  00199	8b 4d 18	 mov	 ecx, DWORD PTR _PathX$[ebp]
  0019c	8b 55 f8	 mov	 edx, DWORD PTR _x$[ebp]
  0019f	89 14 81	 mov	 DWORD PTR [ecx+eax*4], edx
  001a2	8b 45 d4	 mov	 eax, DWORD PTR _count$[ebp]
  001a5	8b 4d 1c	 mov	 ecx, DWORD PTR _PathY$[ebp]
  001a8	8b 55 f4	 mov	 edx, DWORD PTR _y$[ebp]
  001ab	89 14 81	 mov	 DWORD PTR [ecx+eax*4], edx
  001ae	8b 45 d4	 mov	 eax, DWORD PTR _count$[ebp]
  001b1	83 c0 01	 add	 eax, 1
  001b4	89 45 d4	 mov	 DWORD PTR _count$[ebp], eax

; 148  : 			}

  001b7	eb a6		 jmp	 SHORT $LN5@GetTargetL
$LN6@GetTargetL:

; 149  : 		}
; 150  : 	} 

  001b9	e9 e3 00 00 00	 jmp	 $LN12@GetTargetL
$LN18@GetTargetL:

; 151  : 	else 
; 152  : 	{
; 153  : 		x = sx;

  001be	8b 45 08	 mov	 eax, DWORD PTR _sx$[ebp]
  001c1	89 45 f8	 mov	 DWORD PTR _x$[ebp], eax

; 154  : 		half = (int)( delta_y / 2 );

  001c4	8b 45 ec	 mov	 eax, DWORD PTR _delta_y$[ebp]
  001c7	99		 cdq
  001c8	2b c2		 sub	 eax, edx
  001ca	d1 f8		 sar	 eax, 1
  001cc	89 45 e8	 mov	 DWORD PTR _half$[ebp], eax

; 155  : 		
; 156  : 		if( incy > 0 )

  001cf	83 7d dc 00	 cmp	 DWORD PTR _incy$[ebp], 0
  001d3	7e 67		 jle	 SHORT $LN24@GetTargetL

; 157  : 		{
; 158  : 			for( y = sy+1; y <= ty+dis; y ++ )

  001d5	8b 45 0c	 mov	 eax, DWORD PTR _sy$[ebp]
  001d8	83 c0 01	 add	 eax, 1
  001db	89 45 f4	 mov	 DWORD PTR _y$[ebp], eax
  001de	eb 09		 jmp	 SHORT $LN10@GetTargetL
$LN8@GetTargetL:
  001e0	8b 45 f4	 mov	 eax, DWORD PTR _y$[ebp]
  001e3	83 c0 01	 add	 eax, 1
  001e6	89 45 f4	 mov	 DWORD PTR _y$[ebp], eax
$LN10@GetTargetL:
  001e9	8b 45 14	 mov	 eax, DWORD PTR _ty$[ebp]
  001ec	03 45 d8	 add	 eax, DWORD PTR _dis$[ebp]
  001ef	39 45 f4	 cmp	 DWORD PTR _y$[ebp], eax
  001f2	7f 46		 jg	 SHORT $LN9@GetTargetL

; 159  : 			{
; 160  : 				error += delta_x;		

  001f4	8b 45 e4	 mov	 eax, DWORD PTR _error$[ebp]
  001f7	03 45 f0	 add	 eax, DWORD PTR _delta_x$[ebp]
  001fa	89 45 e4	 mov	 DWORD PTR _error$[ebp], eax

; 161  : 				if( error > half )

  001fd	8b 45 e4	 mov	 eax, DWORD PTR _error$[ebp]
  00200	3b 45 e8	 cmp	 eax, DWORD PTR _half$[ebp]
  00203	7e 12		 jle	 SHORT $LN26@GetTargetL

; 162  : 				{
; 163  : 					x += incx;

  00205	8b 45 f8	 mov	 eax, DWORD PTR _x$[ebp]
  00208	03 45 e0	 add	 eax, DWORD PTR _incx$[ebp]
  0020b	89 45 f8	 mov	 DWORD PTR _x$[ebp], eax

; 164  : 					error -= delta_y;

  0020e	8b 45 e4	 mov	 eax, DWORD PTR _error$[ebp]
  00211	2b 45 ec	 sub	 eax, DWORD PTR _delta_y$[ebp]
  00214	89 45 e4	 mov	 DWORD PTR _error$[ebp], eax
$LN26@GetTargetL:

; 165  : 				}
; 166  : 				PathX[count] = x;	PathY[count] = y;	count++;

  00217	8b 45 d4	 mov	 eax, DWORD PTR _count$[ebp]
  0021a	8b 4d 18	 mov	 ecx, DWORD PTR _PathX$[ebp]
  0021d	8b 55 f8	 mov	 edx, DWORD PTR _x$[ebp]
  00220	89 14 81	 mov	 DWORD PTR [ecx+eax*4], edx
  00223	8b 45 d4	 mov	 eax, DWORD PTR _count$[ebp]
  00226	8b 4d 1c	 mov	 ecx, DWORD PTR _PathY$[ebp]
  00229	8b 55 f4	 mov	 edx, DWORD PTR _y$[ebp]
  0022c	89 14 81	 mov	 DWORD PTR [ecx+eax*4], edx
  0022f	8b 45 d4	 mov	 eax, DWORD PTR _count$[ebp]
  00232	83 c0 01	 add	 eax, 1
  00235	89 45 d4	 mov	 DWORD PTR _count$[ebp], eax

; 167  : 			}	

  00238	eb a6		 jmp	 SHORT $LN8@GetTargetL
$LN9@GetTargetL:

; 168  : 		}

  0023a	eb 65		 jmp	 SHORT $LN12@GetTargetL
$LN24@GetTargetL:

; 169  : 		else
; 170  : 		{
; 171  : 			for( y = sy-1; y >= ty-dis; y -- )

  0023c	8b 45 0c	 mov	 eax, DWORD PTR _sy$[ebp]
  0023f	83 e8 01	 sub	 eax, 1
  00242	89 45 f4	 mov	 DWORD PTR _y$[ebp], eax
  00245	eb 09		 jmp	 SHORT $LN13@GetTargetL
$LN11@GetTargetL:
  00247	8b 45 f4	 mov	 eax, DWORD PTR _y$[ebp]
  0024a	83 e8 01	 sub	 eax, 1
  0024d	89 45 f4	 mov	 DWORD PTR _y$[ebp], eax
$LN13@GetTargetL:
  00250	8b 45 14	 mov	 eax, DWORD PTR _ty$[ebp]
  00253	2b 45 d8	 sub	 eax, DWORD PTR _dis$[ebp]
  00256	39 45 f4	 cmp	 DWORD PTR _y$[ebp], eax
  00259	7c 46		 jl	 SHORT $LN12@GetTargetL

; 172  : 			{
; 173  : 				error += delta_x;		

  0025b	8b 45 e4	 mov	 eax, DWORD PTR _error$[ebp]
  0025e	03 45 f0	 add	 eax, DWORD PTR _delta_x$[ebp]
  00261	89 45 e4	 mov	 DWORD PTR _error$[ebp], eax

; 174  : 				if( error > half )

  00264	8b 45 e4	 mov	 eax, DWORD PTR _error$[ebp]
  00267	3b 45 e8	 cmp	 eax, DWORD PTR _half$[ebp]
  0026a	7e 12		 jle	 SHORT $LN27@GetTargetL

; 175  : 				{
; 176  : 					x += incx;

  0026c	8b 45 f8	 mov	 eax, DWORD PTR _x$[ebp]
  0026f	03 45 e0	 add	 eax, DWORD PTR _incx$[ebp]
  00272	89 45 f8	 mov	 DWORD PTR _x$[ebp], eax

; 177  : 					error -= delta_y;

  00275	8b 45 e4	 mov	 eax, DWORD PTR _error$[ebp]
  00278	2b 45 ec	 sub	 eax, DWORD PTR _delta_y$[ebp]
  0027b	89 45 e4	 mov	 DWORD PTR _error$[ebp], eax
$LN27@GetTargetL:

; 178  : 				}
; 179  : 				PathX[count] = x;	PathY[count] = y;	count++;

  0027e	8b 45 d4	 mov	 eax, DWORD PTR _count$[ebp]
  00281	8b 4d 18	 mov	 ecx, DWORD PTR _PathX$[ebp]
  00284	8b 55 f8	 mov	 edx, DWORD PTR _x$[ebp]
  00287	89 14 81	 mov	 DWORD PTR [ecx+eax*4], edx
  0028a	8b 45 d4	 mov	 eax, DWORD PTR _count$[ebp]
  0028d	8b 4d 1c	 mov	 ecx, DWORD PTR _PathY$[ebp]
  00290	8b 55 f4	 mov	 edx, DWORD PTR _y$[ebp]
  00293	89 14 81	 mov	 DWORD PTR [ecx+eax*4], edx
  00296	8b 45 d4	 mov	 eax, DWORD PTR _count$[ebp]
  00299	83 c0 01	 add	 eax, 1
  0029c	89 45 d4	 mov	 DWORD PTR _count$[ebp], eax

; 180  : 			}	

  0029f	eb a6		 jmp	 SHORT $LN11@GetTargetL
$LN12@GetTargetL:

; 181  : 		}
; 182  : 	}
; 183  : 	return count;

  002a1	8b 45 d4	 mov	 eax, DWORD PTR _count$[ebp]

; 184  : }

  002a4	5f		 pop	 edi
  002a5	5e		 pop	 esi
  002a6	5b		 pop	 ebx
  002a7	8b e5		 mov	 esp, ebp
  002a9	5d		 pop	 ebp
  002aa	c2 1c 00	 ret	 28			; 0000001cH
?GetTargetLinePath@CObjUseSkill@@QAEHHHHHPAH0H@Z ENDP	; CObjUseSkill::GetTargetLinePath
_TEXT	ENDS
; Function compile flags: /Odtp /ZI
; File C:\Mu Online\Mu-GS-Webzen-MC-10093\GameServer\ObjUseSkill.cpp
;	COMDAT ?SkillFrustrum@CObjUseSkill@@QAEXHMMM@Z
_TEXT	SEGMENT
_i$1 = -172						; size = 4
_vFrustrum$ = -168					; size = 48
_Matrix$ = -120						; size = 48
_Angle$ = -72						; size = 12
_p$ = -60						; size = 48
_lpObj$ = -12						; size = 4
_this$ = -8						; size = 4
__$ArrayPad$ = -4					; size = 4
_aIndex$ = 8						; size = 4
_fangle$ = 12						; size = 4
_tx$ = 16						; size = 4
_ty$ = 20						; size = 4
?SkillFrustrum@CObjUseSkill@@QAEXHMMM@Z PROC		; CObjUseSkill::SkillFrustrum, COMDAT
; _this$ = ecx

; 3432 : {	

  00000	55		 push	 ebp
  00001	8b ec		 mov	 ebp, esp
  00003	81 ec ec 00 00
	00		 sub	 esp, 236		; 000000ecH
  00009	a1 00 00 00 00	 mov	 eax, DWORD PTR ___security_cookie
  0000e	33 c5		 xor	 eax, ebp
  00010	89 45 fc	 mov	 DWORD PTR __$ArrayPad$[ebp], eax
  00013	53		 push	 ebx
  00014	56		 push	 esi
  00015	57		 push	 edi
  00016	89 4d f8	 mov	 DWORD PTR _this$[ebp], ecx

; 3433 : 	LPOBJECTSTRUCT lpObj=(LPOBJECTSTRUCT)&gObj[aIndex];

  00019	69 45 08 a0 1b
	00 00		 imul	 eax, DWORD PTR _aIndex$[ebp], 7072
  00020	03 05 00 00 00
	00		 add	 eax, DWORD PTR ?gObj@@3PAVOBJECTSTRUCT@@A ; gObj
  00026	89 45 f4	 mov	 DWORD PTR _lpObj$[ebp], eax

; 3434 : 
; 3435 : 	vec3_t p[4];
; 3436 : 	Vector(-tx ,ty ,0.f,p[0]);

  00029	f3 0f 10 45 10	 movss	 xmm0, DWORD PTR _tx$[ebp]
  0002e	0f 57 05 00 00
	00 00		 xorps	 xmm0, DWORD PTR __xmm@80000000800000008000000080000000
  00035	b8 0c 00 00 00	 mov	 eax, 12			; 0000000cH
  0003a	6b c8 00	 imul	 ecx, eax, 0
  0003d	8d 54 0d c4	 lea	 edx, DWORD PTR _p$[ebp+ecx]
  00041	b8 04 00 00 00	 mov	 eax, 4
  00046	6b c8 00	 imul	 ecx, eax, 0
  00049	f3 0f 11 04 0a	 movss	 DWORD PTR [edx+ecx], xmm0
  0004e	b8 0c 00 00 00	 mov	 eax, 12			; 0000000cH
  00053	6b c8 00	 imul	 ecx, eax, 0
  00056	8d 54 0d c4	 lea	 edx, DWORD PTR _p$[ebp+ecx]
  0005a	b8 04 00 00 00	 mov	 eax, 4
  0005f	c1 e0 00	 shl	 eax, 0
  00062	f3 0f 10 45 14	 movss	 xmm0, DWORD PTR _ty$[ebp]
  00067	f3 0f 11 04 02	 movss	 DWORD PTR [edx+eax], xmm0
  0006c	b8 0c 00 00 00	 mov	 eax, 12			; 0000000cH
  00071	6b c8 00	 imul	 ecx, eax, 0
  00074	8d 54 0d c4	 lea	 edx, DWORD PTR _p$[ebp+ecx]
  00078	b8 04 00 00 00	 mov	 eax, 4
  0007d	d1 e0		 shl	 eax, 1
  0007f	0f 57 c0	 xorps	 xmm0, xmm0
  00082	f3 0f 11 04 02	 movss	 DWORD PTR [edx+eax], xmm0

; 3437 : 	Vector( tx ,ty ,0.f,p[1]);

  00087	b8 0c 00 00 00	 mov	 eax, 12			; 0000000cH
  0008c	c1 e0 00	 shl	 eax, 0
  0008f	8d 4c 05 c4	 lea	 ecx, DWORD PTR _p$[ebp+eax]
  00093	ba 04 00 00 00	 mov	 edx, 4
  00098	6b c2 00	 imul	 eax, edx, 0
  0009b	f3 0f 10 45 10	 movss	 xmm0, DWORD PTR _tx$[ebp]
  000a0	f3 0f 11 04 01	 movss	 DWORD PTR [ecx+eax], xmm0
  000a5	b8 0c 00 00 00	 mov	 eax, 12			; 0000000cH
  000aa	c1 e0 00	 shl	 eax, 0
  000ad	8d 4c 05 c4	 lea	 ecx, DWORD PTR _p$[ebp+eax]
  000b1	ba 04 00 00 00	 mov	 edx, 4
  000b6	c1 e2 00	 shl	 edx, 0
  000b9	f3 0f 10 45 14	 movss	 xmm0, DWORD PTR _ty$[ebp]
  000be	f3 0f 11 04 11	 movss	 DWORD PTR [ecx+edx], xmm0
  000c3	b8 0c 00 00 00	 mov	 eax, 12			; 0000000cH
  000c8	c1 e0 00	 shl	 eax, 0
  000cb	8d 4c 05 c4	 lea	 ecx, DWORD PTR _p$[ebp+eax]
  000cf	ba 04 00 00 00	 mov	 edx, 4
  000d4	d1 e2		 shl	 edx, 1
  000d6	0f 57 c0	 xorps	 xmm0, xmm0
  000d9	f3 0f 11 04 11	 movss	 DWORD PTR [ecx+edx], xmm0

; 3438 : 	Vector( 1 ,0.f ,0.f,p[2]);

  000de	b8 0c 00 00 00	 mov	 eax, 12			; 0000000cH
  000e3	d1 e0		 shl	 eax, 1
  000e5	8d 4c 05 c4	 lea	 ecx, DWORD PTR _p$[ebp+eax]
  000e9	ba 04 00 00 00	 mov	 edx, 4
  000ee	6b c2 00	 imul	 eax, edx, 0
  000f1	f3 0f 10 05 00
	00 00 00	 movss	 xmm0, DWORD PTR __real@3f800000
  000f9	f3 0f 11 04 01	 movss	 DWORD PTR [ecx+eax], xmm0
  000fe	b8 0c 00 00 00	 mov	 eax, 12			; 0000000cH
  00103	d1 e0		 shl	 eax, 1
  00105	8d 4c 05 c4	 lea	 ecx, DWORD PTR _p$[ebp+eax]
  00109	ba 04 00 00 00	 mov	 edx, 4
  0010e	c1 e2 00	 shl	 edx, 0
  00111	0f 57 c0	 xorps	 xmm0, xmm0
  00114	f3 0f 11 04 11	 movss	 DWORD PTR [ecx+edx], xmm0
  00119	b8 0c 00 00 00	 mov	 eax, 12			; 0000000cH
  0011e	d1 e0		 shl	 eax, 1
  00120	8d 4c 05 c4	 lea	 ecx, DWORD PTR _p$[ebp+eax]
  00124	ba 04 00 00 00	 mov	 edx, 4
  00129	d1 e2		 shl	 edx, 1
  0012b	0f 57 c0	 xorps	 xmm0, xmm0
  0012e	f3 0f 11 04 11	 movss	 DWORD PTR [ecx+edx], xmm0

; 3439 : 	Vector(-1 ,0.f ,0.f,p[3]);

  00133	b8 0c 00 00 00	 mov	 eax, 12			; 0000000cH
  00138	6b c8 03	 imul	 ecx, eax, 3
  0013b	8d 54 0d c4	 lea	 edx, DWORD PTR _p$[ebp+ecx]
  0013f	b8 04 00 00 00	 mov	 eax, 4
  00144	6b c8 00	 imul	 ecx, eax, 0
  00147	f3 0f 10 05 00
	00 00 00	 movss	 xmm0, DWORD PTR __real@bf800000
  0014f	f3 0f 11 04 0a	 movss	 DWORD PTR [edx+ecx], xmm0
  00154	b8 0c 00 00 00	 mov	 eax, 12			; 0000000cH
  00159	6b c8 03	 imul	 ecx, eax, 3
  0015c	8d 54 0d c4	 lea	 edx, DWORD PTR _p$[ebp+ecx]
  00160	b8 04 00 00 00	 mov	 eax, 4
  00165	c1 e0 00	 shl	 eax, 0
  00168	0f 57 c0	 xorps	 xmm0, xmm0
  0016b	f3 0f 11 04 02	 movss	 DWORD PTR [edx+eax], xmm0
  00170	b8 0c 00 00 00	 mov	 eax, 12			; 0000000cH
  00175	6b c8 03	 imul	 ecx, eax, 3
  00178	8d 54 0d c4	 lea	 edx, DWORD PTR _p$[ebp+ecx]
  0017c	b8 04 00 00 00	 mov	 eax, 4
  00181	d1 e0		 shl	 eax, 1
  00183	0f 57 c0	 xorps	 xmm0, xmm0
  00186	f3 0f 11 04 02	 movss	 DWORD PTR [edx+eax], xmm0

; 3440 : 	vec3_t Angle;
; 3441 : 	float Matrix[3][4];
; 3442 : 	Vector(0.f,0.f,fangle,Angle);

  0018b	b8 04 00 00 00	 mov	 eax, 4
  00190	6b c8 00	 imul	 ecx, eax, 0
  00193	0f 57 c0	 xorps	 xmm0, xmm0
  00196	f3 0f 11 44 0d
	b8		 movss	 DWORD PTR _Angle$[ebp+ecx], xmm0
  0019c	b8 04 00 00 00	 mov	 eax, 4
  001a1	c1 e0 00	 shl	 eax, 0
  001a4	0f 57 c0	 xorps	 xmm0, xmm0
  001a7	f3 0f 11 44 05
	b8		 movss	 DWORD PTR _Angle$[ebp+eax], xmm0
  001ad	b8 04 00 00 00	 mov	 eax, 4
  001b2	d1 e0		 shl	 eax, 1
  001b4	f3 0f 10 45 0c	 movss	 xmm0, DWORD PTR _fangle$[ebp]
  001b9	f3 0f 11 44 05
	b8		 movss	 DWORD PTR _Angle$[ebp+eax], xmm0

; 3443 : 	AngleMatrix(Angle,Matrix);

  001bf	8d 45 88	 lea	 eax, DWORD PTR _Matrix$[ebp]
  001c2	50		 push	 eax
  001c3	8d 4d b8	 lea	 ecx, DWORD PTR _Angle$[ebp]
  001c6	51		 push	 ecx
  001c7	e8 00 00 00 00	 call	 _AngleMatrix
  001cc	83 c4 08	 add	 esp, 8

; 3444 :     vec3_t vFrustrum[4];
; 3445 : 	
; 3446 : 	for(int i=0;i<4;i++)

  001cf	c7 85 54 ff ff
	ff 00 00 00 00	 mov	 DWORD PTR _i$1[ebp], 0
  001d9	eb 0f		 jmp	 SHORT $LN4@SkillFrust
$LN2@SkillFrust:
  001db	8b 85 54 ff ff
	ff		 mov	 eax, DWORD PTR _i$1[ebp]
  001e1	83 c0 01	 add	 eax, 1
  001e4	89 85 54 ff ff
	ff		 mov	 DWORD PTR _i$1[ebp], eax
$LN4@SkillFrust:
  001ea	83 bd 54 ff ff
	ff 04		 cmp	 DWORD PTR _i$1[ebp], 4
  001f1	0f 8d 9a 00 00
	00		 jge	 $LN3@SkillFrust

; 3447 : 	{
; 3448 : 		VectorRotate(p[i],Matrix,vFrustrum[i]);

  001f7	6b 85 54 ff ff
	ff 0c		 imul	 eax, DWORD PTR _i$1[ebp], 12
  001fe	8d 8c 05 58 ff
	ff ff		 lea	 ecx, DWORD PTR _vFrustrum$[ebp+eax]
  00205	51		 push	 ecx
  00206	8d 55 88	 lea	 edx, DWORD PTR _Matrix$[ebp]
  00209	52		 push	 edx
  0020a	6b 85 54 ff ff
	ff 0c		 imul	 eax, DWORD PTR _i$1[ebp], 12
  00211	8d 4c 05 c4	 lea	 ecx, DWORD PTR _p$[ebp+eax]
  00215	51		 push	 ecx
  00216	e8 00 00 00 00	 call	 _VectorRotate
  0021b	83 c4 0c	 add	 esp, 12			; 0000000cH

; 3449 : 		lpObj->fSkillFrustrumX[i] = (int)(vFrustrum[i][0])+lpObj->X;

  0021e	6b 85 54 ff ff
	ff 0c		 imul	 eax, DWORD PTR _i$1[ebp], 12
  00225	8d 8c 05 58 ff
	ff ff		 lea	 ecx, DWORD PTR _vFrustrum$[ebp+eax]
  0022c	ba 04 00 00 00	 mov	 edx, 4
  00231	6b c2 00	 imul	 eax, edx, 0
  00234	f3 0f 2c 0c 01	 cvttss2si ecx, DWORD PTR [ecx+eax]
  00239	8b 55 f4	 mov	 edx, DWORD PTR _lpObj$[ebp]
  0023c	0f bf 82 04 01
	00 00		 movsx	 eax, WORD PTR [edx+260]
  00243	03 c8		 add	 ecx, eax
  00245	8b 95 54 ff ff
	ff		 mov	 edx, DWORD PTR _i$1[ebp]
  0024b	8b 45 f4	 mov	 eax, DWORD PTR _lpObj$[ebp]
  0024e	89 8c 90 fc 0e
	00 00		 mov	 DWORD PTR [eax+edx*4+3836], ecx

; 3450 : 		lpObj->fSkillFrustrumY[i] = (int)(vFrustrum[i][1])+lpObj->Y;

  00255	6b 85 54 ff ff
	ff 0c		 imul	 eax, DWORD PTR _i$1[ebp], 12
  0025c	8d 8c 05 58 ff
	ff ff		 lea	 ecx, DWORD PTR _vFrustrum$[ebp+eax]
  00263	ba 04 00 00 00	 mov	 edx, 4
  00268	c1 e2 00	 shl	 edx, 0
  0026b	f3 0f 2c 04 11	 cvttss2si eax, DWORD PTR [ecx+edx]
  00270	8b 4d f4	 mov	 ecx, DWORD PTR _lpObj$[ebp]
  00273	0f bf 91 06 01
	00 00		 movsx	 edx, WORD PTR [ecx+262]
  0027a	03 c2		 add	 eax, edx
  0027c	8b 8d 54 ff ff
	ff		 mov	 ecx, DWORD PTR _i$1[ebp]
  00282	8b 55 f4	 mov	 edx, DWORD PTR _lpObj$[ebp]
  00285	89 84 8a 0c 0f
	00 00		 mov	 DWORD PTR [edx+ecx*4+3852], eax

; 3451 : 	}

  0028c	e9 4a ff ff ff	 jmp	 $LN2@SkillFrust
$LN3@SkillFrust:

; 3452 : }

  00291	5f		 pop	 edi
  00292	5e		 pop	 esi
  00293	5b		 pop	 ebx
  00294	8b 4d fc	 mov	 ecx, DWORD PTR __$ArrayPad$[ebp]
  00297	33 cd		 xor	 ecx, ebp
  00299	e8 00 00 00 00	 call	 @__security_check_cookie@4
  0029e	8b e5		 mov	 esp, ebp
  002a0	5d		 pop	 ebp
  002a1	c2 10 00	 ret	 16			; 00000010H
?SkillFrustrum@CObjUseSkill@@QAEXHMMM@Z ENDP		; CObjUseSkill::SkillFrustrum
_TEXT	ENDS
; Function compile flags: /Odtp /ZI
; File C:\Mu Online\Mu-GS-Webzen-MC-10093\GameServer\ObjUseSkill.cpp
;	COMDAT ?SkillPowerSlash@CObjUseSkill@@QAEXHPAVCMagicInf@@EEEEH@Z
_TEXT	SEGMENT
_CallMonIndex$1 = -40					; size = 4
_EnableAttack$ = -36					; size = 4
_DuelIndex$ = -32					; size = 4
_bAttack$ = -28						; size = 4
_HitCount$ = -24					; size = 4
_count$ = -20						; size = 4
_tObjNum$ = -16						; size = 4
_StartDis$ = -12					; size = 4
_lpObj$ = -8						; size = 4
_this$ = -4						; size = 4
_aIndex$ = 8						; size = 4
_lpMagic$ = 12						; size = 4
_x$ = 16						; size = 1
_y$ = 20						; size = 1
_dir$ = 24						; size = 1
_Targetangle$ = 28					; size = 1
_aTargetIndex$ = 32					; size = 4
?SkillPowerSlash@CObjUseSkill@@QAEXHPAVCMagicInf@@EEEEH@Z PROC ; CObjUseSkill::SkillPowerSlash, COMDAT
; _this$ = ecx

; 2867 : {

  00000	55		 push	 ebp
  00001	8b ec		 mov	 ebp, esp
  00003	83 ec 68	 sub	 esp, 104		; 00000068H
  00006	53		 push	 ebx
  00007	56		 push	 esi
  00008	57		 push	 edi
  00009	89 4d fc	 mov	 DWORD PTR _this$[ebp], ecx

; 2868 : 	LPOBJECTSTRUCT lpObj= &gObj[aIndex];

  0000c	69 45 08 a0 1b
	00 00		 imul	 eax, DWORD PTR _aIndex$[ebp], 7072
  00013	03 05 00 00 00
	00		 add	 eax, DWORD PTR ?gObj@@3PAVOBJECTSTRUCT@@A ; gObj
  00019	89 45 f8	 mov	 DWORD PTR _lpObj$[ebp], eax

; 2869 : 		
; 2870 : 	int StartDis = 1;	

  0001c	c7 45 f4 01 00
	00 00		 mov	 DWORD PTR _StartDis$[ebp], 1

; 2871 : 	::SkillFrustrum(Targetangle, aIndex);

  00023	8b 45 08	 mov	 eax, DWORD PTR _aIndex$[ebp]
  00026	50		 push	 eax
  00027	0f b6 4d 1c	 movzx	 ecx, BYTE PTR _Targetangle$[ebp]
  0002b	51		 push	 ecx
  0002c	e8 00 00 00 00	 call	 ?SkillFrustrum@@YAXEH@Z	; SkillFrustrum
  00031	83 c4 08	 add	 esp, 8

; 2872 : 
; 2873 : 	int tObjNum;
; 2874 : 	int count = 0;

  00034	c7 45 ec 00 00
	00 00		 mov	 DWORD PTR _count$[ebp], 0

; 2875 : 
; 2876 : 	int	HitCount = 0;

  0003b	c7 45 e8 00 00
	00 00		 mov	 DWORD PTR _HitCount$[ebp], 0

; 2877 : 	int	bAttack;
; 2878 : 
; 2879 : #ifdef DUEL_SYSTEM_20031028
; 2880 : 	int DuelIndex = lpObj->m_iDuelUser;

  00042	8b 45 f8	 mov	 eax, DWORD PTR _lpObj$[ebp]
  00045	8b 88 ec 0c 00
	00		 mov	 ecx, DWORD PTR [eax+3308]
  0004b	89 4d e0	 mov	 DWORD PTR _DuelIndex$[ebp], ecx
$LN2@SkillPower:

; 2881 : #endif
; 2882 : 
; 2883 : 	BOOL	EnableAttack;
; 2884 : 	
; 2885 : 	while(1)

  0004e	b8 01 00 00 00	 mov	 eax, 1
  00053	85 c0		 test	 eax, eax
  00055	0f 84 e9 01 00
	00		 je	 $LN1@SkillPower

; 2886 : 	{
; 2887 : 		if( lpObj->VpPlayer2[count].state )

  0005b	6b 45 ec 0c	 imul	 eax, DWORD PTR _count$[ebp], 12
  0005f	8b 4d f8	 mov	 ecx, DWORD PTR _lpObj$[ebp]
  00062	0f be 94 01 e8
	06 00 00	 movsx	 edx, BYTE PTR [ecx+eax+1768]
  0006a	85 d2		 test	 edx, edx
  0006c	0f 84 bc 01 00
	00		 je	 $LN4@SkillPower

; 2888 : 		{
; 2889 : 			tObjNum = lpObj->VpPlayer2[count].number;

  00072	6b 45 ec 0c	 imul	 eax, DWORD PTR _count$[ebp], 12
  00076	8b 4d f8	 mov	 ecx, DWORD PTR _lpObj$[ebp]
  00079	0f bf 94 01 ea
	06 00 00	 movsx	 edx, WORD PTR [ecx+eax+1770]
  00081	89 55 f0	 mov	 DWORD PTR _tObjNum$[ebp], edx

; 2890 : 
; 2891 : 			if( tObjNum >= 0 )

  00084	83 7d f0 00	 cmp	 DWORD PTR _tObjNum$[ebp], 0
  00088	0f 8c a0 01 00
	00		 jl	 $LN4@SkillPower

; 2892 : 			{
; 2893 : 				EnableAttack = FALSE;

  0008e	c7 45 dc 00 00
	00 00		 mov	 DWORD PTR _EnableAttack$[ebp], 0

; 2894 : 
; 2895 : 				if( ((lpObj->VpPlayer2[count].type == OBJTYPE_MONSTER) && (gObj[tObjNum].m_RecallMon < 0)) )

  00095	6b 45 ec 0c	 imul	 eax, DWORD PTR _count$[ebp], 12
  00099	8b 4d f8	 mov	 ecx, DWORD PTR _lpObj$[ebp]
  0009c	0f b6 94 01 ec
	06 00 00	 movzx	 edx, BYTE PTR [ecx+eax+1772]
  000a4	83 fa 02	 cmp	 edx, 2
  000a7	75 23		 jne	 SHORT $LN6@SkillPower
  000a9	69 45 f0 a0 1b
	00 00		 imul	 eax, DWORD PTR _tObjNum$[ebp], 7072
  000b0	8b 0d 00 00 00
	00		 mov	 ecx, DWORD PTR ?gObj@@3PAVOBJECTSTRUCT@@A ; gObj
  000b6	83 bc 01 a4 02
	00 00 00	 cmp	 DWORD PTR [ecx+eax+676], 0
  000be	7d 0c		 jge	 SHORT $LN6@SkillPower

; 2896 : 				{	// 대상이 몬스터이고, 소환몹이 아니면 공격가능
; 2897 : 					EnableAttack = TRUE;

  000c0	c7 45 dc 01 00
	00 00		 mov	 DWORD PTR _EnableAttack$[ebp], 1

; 2898 : 				}

  000c7	e9 a6 00 00 00	 jmp	 $LN7@SkillPower
$LN6@SkillPower:

; 2899 : 				else if( tObjNum == aTargetIndex 
; 2900 : 	#ifdef DUEL_SYSTEM_20031028
; 2901 : 						 || DuelIndex == tObjNum

  000cc	8b 45 f0	 mov	 eax, DWORD PTR _tObjNum$[ebp]
  000cf	3b 45 20	 cmp	 eax, DWORD PTR _aTargetIndex$[ebp]
  000d2	74 08		 je	 SHORT $LN10@SkillPower
  000d4	8b 45 e0	 mov	 eax, DWORD PTR _DuelIndex$[ebp]
  000d7	3b 45 f0	 cmp	 eax, DWORD PTR _tObjNum$[ebp]
  000da	75 0c		 jne	 SHORT $LN8@SkillPower
$LN10@SkillPower:

; 2902 : 	#endif
; 2903 : 						 )
; 2904 : 				{	// 클라이언트에서 대상을 강제 공격했을때와 결투 대상일때는 공격가능
; 2905 : 					EnableAttack = TRUE;

  000dc	c7 45 dc 01 00
	00 00		 mov	 DWORD PTR _EnableAttack$[ebp], 1

; 2906 : 				}

  000e3	e9 8a 00 00 00	 jmp	 $LN7@SkillPower
$LN8@SkillPower:

; 2907 : #ifdef MODIFY_RANGEATTACK_CHECK_20050113		// 데쓰포이즌은 공성전 중에 사람에게도 적용된다.
; 2908 : 				else if (
; 2909 : 					lpObj->VpPlayer2[count].type != OBJTYPE_NPC &&
; 2910 : 					gObj[tObjNum].MapNumber == MAP_INDEX_CASTLESIEGE &&
; 2911 : 					g_CastleSiege.GetCastleState() == CASTLESIEGE_STATE_STARTSIEGE
; 2912 : 					)
; 2913 : 				{
; 2914 : 					EnableAttack = TRUE;
; 2915 : 				}
; 2916 : #endif
; 2917 : 				else
; 2918 : 				{	// 길드전 체크
; 2919 : 					int CallMonIndex = gObj[tObjNum].m_Index;

  000e8	69 45 f0 a0 1b
	00 00		 imul	 eax, DWORD PTR _tObjNum$[ebp], 7072
  000ef	8b 0d 00 00 00
	00		 mov	 ecx, DWORD PTR ?gObj@@3PAVOBJECTSTRUCT@@A ; gObj
  000f5	8b 14 01	 mov	 edx, DWORD PTR [ecx+eax]
  000f8	89 55 d8	 mov	 DWORD PTR _CallMonIndex$1[ebp], edx

; 2920 : 					if( gObj[tObjNum].Type == OBJTYPE_MONSTER )

  000fb	69 45 f0 a0 1b
	00 00		 imul	 eax, DWORD PTR _tObjNum$[ebp], 7072
  00102	8b 0d 00 00 00
	00		 mov	 ecx, DWORD PTR ?gObj@@3PAVOBJECTSTRUCT@@A ; gObj
  00108	0f b7 54 01 64	 movzx	 edx, WORD PTR [ecx+eax+100]
  0010d	83 fa 02	 cmp	 edx, 2
  00110	75 3a		 jne	 SHORT $LN11@SkillPower

; 2921 : 					{
; 2922 : 						if( gObj[tObjNum].m_RecallMon >= 0 ) 

  00112	69 45 f0 a0 1b
	00 00		 imul	 eax, DWORD PTR _tObjNum$[ebp], 7072
  00119	8b 0d 00 00 00
	00		 mov	 ecx, DWORD PTR ?gObj@@3PAVOBJECTSTRUCT@@A ; gObj
  0011f	83 bc 01 a4 02
	00 00 00	 cmp	 DWORD PTR [ecx+eax+676], 0
  00127	7c 23		 jl	 SHORT $LN11@SkillPower

; 2923 : 						{
; 2924 : 							CallMonIndex = gObj[gObj[tObjNum].m_RecallMon].m_Index;

  00129	69 45 f0 a0 1b
	00 00		 imul	 eax, DWORD PTR _tObjNum$[ebp], 7072
  00130	8b 0d 00 00 00
	00		 mov	 ecx, DWORD PTR ?gObj@@3PAVOBJECTSTRUCT@@A ; gObj
  00136	69 94 01 a4 02
	00 00 a0 1b 00
	00		 imul	 edx, DWORD PTR [ecx+eax+676], 7072
  00141	a1 00 00 00 00	 mov	 eax, DWORD PTR ?gObj@@3PAVOBJECTSTRUCT@@A ; gObj
  00146	8b 0c 10	 mov	 ecx, DWORD PTR [eax+edx]
  00149	89 4d d8	 mov	 DWORD PTR _CallMonIndex$1[ebp], ecx
$LN11@SkillPower:

; 2925 : 						}
; 2926 : 					}
; 2927 : 					if( gObjTargetGuildWarCheck(lpObj, &gObj[CallMonIndex]) == TRUE )

  0014c	69 45 d8 a0 1b
	00 00		 imul	 eax, DWORD PTR _CallMonIndex$1[ebp], 7072
  00153	03 05 00 00 00
	00		 add	 eax, DWORD PTR ?gObj@@3PAVOBJECTSTRUCT@@A ; gObj
  00159	50		 push	 eax
  0015a	8b 4d f8	 mov	 ecx, DWORD PTR _lpObj$[ebp]
  0015d	51		 push	 ecx
  0015e	e8 00 00 00 00	 call	 ?gObjTargetGuildWarCheck@@YAHPAVOBJECTSTRUCT@@0@Z ; gObjTargetGuildWarCheck
  00163	83 c4 08	 add	 esp, 8
  00166	83 f8 01	 cmp	 eax, 1
  00169	75 07		 jne	 SHORT $LN7@SkillPower

; 2928 : 					{	// 대상이 길전상대이면 공격가능
; 2929 : 						EnableAttack = TRUE;

  0016b	c7 45 dc 01 00
	00 00		 mov	 DWORD PTR _EnableAttack$[ebp], 1
$LN7@SkillPower:

; 2930 : 					}
; 2931 : 				}
; 2932 : 
; 2933 : 				if( EnableAttack )

  00172	83 7d dc 00	 cmp	 DWORD PTR _EnableAttack$[ebp], 0
  00176	0f 84 b2 00 00
	00		 je	 $LN4@SkillPower

; 2934 : 				{	
; 2935 : 					if( SkillTestFrustrum(gObj[tObjNum].X, gObj[tObjNum].Y, aIndex) )

  0017c	8b 45 08	 mov	 eax, DWORD PTR _aIndex$[ebp]
  0017f	50		 push	 eax
  00180	69 4d f0 a0 1b
	00 00		 imul	 ecx, DWORD PTR _tObjNum$[ebp], 7072
  00187	8b 15 00 00 00
	00		 mov	 edx, DWORD PTR ?gObj@@3PAVOBJECTSTRUCT@@A ; gObj
  0018d	0f bf 84 0a 06
	01 00 00	 movsx	 eax, WORD PTR [edx+ecx+262]
  00195	50		 push	 eax
  00196	69 4d f0 a0 1b
	00 00		 imul	 ecx, DWORD PTR _tObjNum$[ebp], 7072
  0019d	8b 15 00 00 00
	00		 mov	 edx, DWORD PTR ?gObj@@3PAVOBJECTSTRUCT@@A ; gObj
  001a3	0f bf 84 0a 04
	01 00 00	 movsx	 eax, WORD PTR [edx+ecx+260]
  001ab	50		 push	 eax
  001ac	e8 00 00 00 00	 call	 ?SkillTestFrustrum@@YAHHHH@Z ; SkillTestFrustrum
  001b1	83 c4 0c	 add	 esp, 12			; 0000000cH
  001b4	85 c0		 test	 eax, eax
  001b6	74 76		 je	 SHORT $LN4@SkillPower

; 2936 : 					{
; 2937 : 						bAttack = FALSE;

  001b8	c7 45 e4 00 00
	00 00		 mov	 DWORD PTR _bAttack$[ebp], 0

; 2938 : 						if( HitCount > 10 )

  001bf	83 7d e8 0a	 cmp	 DWORD PTR _HitCount$[ebp], 10 ; 0000000aH
  001c3	7e 09		 jle	 SHORT $LN16@SkillPower

; 2939 : 						{
; 2940 : 							bAttack = FALSE;

  001c5	c7 45 e4 00 00
	00 00		 mov	 DWORD PTR _bAttack$[ebp], 0

; 2941 : 						}

  001cc	eb 2b		 jmp	 SHORT $LN17@SkillPower
$LN16@SkillPower:

; 2942 : 						else if( HitCount >= 5 )

  001ce	83 7d e8 05	 cmp	 DWORD PTR _HitCount$[ebp], 5
  001d2	7c 1e		 jl	 SHORT $LN18@SkillPower

; 2943 : 						{	
; 2944 : 							if( rand()%2 )

  001d4	e8 00 00 00 00	 call	 _rand
  001d9	25 01 00 00 80	 and	 eax, -2147483647	; 80000001H
  001de	79 05		 jns	 SHORT $LN24@SkillPower
  001e0	48		 dec	 eax
  001e1	83 c8 fe	 or	 eax, -2			; fffffffeH
  001e4	40		 inc	 eax
$LN24@SkillPower:
  001e5	85 c0		 test	 eax, eax
  001e7	74 07		 je	 SHORT $LN20@SkillPower

; 2945 : 							{
; 2946 : 								bAttack = TRUE;

  001e9	c7 45 e4 01 00
	00 00		 mov	 DWORD PTR _bAttack$[ebp], 1
$LN20@SkillPower:

; 2947 : 							}							
; 2948 : 						}

  001f0	eb 07		 jmp	 SHORT $LN17@SkillPower
$LN18@SkillPower:

; 2949 : 						else 
; 2950 : 						{
; 2951 : 							bAttack = TRUE;

  001f2	c7 45 e4 01 00
	00 00		 mov	 DWORD PTR _bAttack$[ebp], 1
$LN17@SkillPower:

; 2952 : 						}
; 2953 : 
; 2954 : 						if( bAttack )

  001f9	83 7d e4 00	 cmp	 DWORD PTR _bAttack$[ebp], 0
  001fd	74 26		 je	 SHORT $LN21@SkillPower

; 2955 : 							gObjAttack(lpObj, &gObj[tObjNum], lpMagic, 1, 1);					

  001ff	6a 00		 push	 0
  00201	6a 00		 push	 0
  00203	6a 01		 push	 1
  00205	6a 01		 push	 1
  00207	8b 45 0c	 mov	 eax, DWORD PTR _lpMagic$[ebp]
  0020a	50		 push	 eax
  0020b	69 4d f0 a0 1b
	00 00		 imul	 ecx, DWORD PTR _tObjNum$[ebp], 7072
  00212	03 0d 00 00 00
	00		 add	 ecx, DWORD PTR ?gObj@@3PAVOBJECTSTRUCT@@A ; gObj
  00218	51		 push	 ecx
  00219	8b 55 f8	 mov	 edx, DWORD PTR _lpObj$[ebp]
  0021c	52		 push	 edx
  0021d	e8 00 00 00 00	 call	 ?gObjAttack@@YAHPAVOBJECTSTRUCT@@0PAVCMagicInf@@HEHH@Z ; gObjAttack
  00222	83 c4 1c	 add	 esp, 28			; 0000001cH
$LN21@SkillPower:

; 2956 : 
; 2957 : 						HitCount++;

  00225	8b 45 e8	 mov	 eax, DWORD PTR _HitCount$[ebp]
  00228	83 c0 01	 add	 eax, 1
  0022b	89 45 e8	 mov	 DWORD PTR _HitCount$[ebp], eax
$LN4@SkillPower:

; 2958 : 					}
; 2959 : 				}
; 2960 : 			}
; 2961 : 		}
; 2962 : 		count++;

  0022e	8b 45 ec	 mov	 eax, DWORD PTR _count$[ebp]
  00231	83 c0 01	 add	 eax, 1
  00234	89 45 ec	 mov	 DWORD PTR _count$[ebp], eax

; 2963 : 		if( count > MAXVIEWPORTOBJECT-1 )

  00237	83 7d ec 4a	 cmp	 DWORD PTR _count$[ebp], 74 ; 0000004aH
  0023b	7e 02		 jle	 SHORT $LN22@SkillPower

; 2964 : 		{
; 2965 : 			break;

  0023d	eb 05		 jmp	 SHORT $LN1@SkillPower
$LN22@SkillPower:

; 2966 : 		}
; 2967 : 	}

  0023f	e9 0a fe ff ff	 jmp	 $LN2@SkillPower
$LN1@SkillPower:

; 2968 : }

  00244	5f		 pop	 edi
  00245	5e		 pop	 esi
  00246	5b		 pop	 ebx
  00247	8b e5		 mov	 esp, ebp
  00249	5d		 pop	 ebp
  0024a	c2 1c 00	 ret	 28			; 0000001cH
?SkillPowerSlash@CObjUseSkill@@QAEXHPAVCMagicInf@@EEEEH@Z ENDP ; CObjUseSkill::SkillPowerSlash
_TEXT	ENDS
; Function compile flags: /Odtp /ZI
; File C:\Mu Online\Mu-GS-Webzen-MC-10093\GameServer\ObjUseSkill.cpp
;	COMDAT ?SkillKnightBlow@CObjUseSkill@@QAEHHHPAVCMagicInf@@H@Z
_TEXT	SEGMENT
_CallMonIndex$1 = -44					; size = 4
_EnableAttack$ = -40					; size = 4
_DuelIndex$ = -36					; size = 4
_attackcheck$ = -32					; size = 4
_loopcount$ = -28					; size = 4
_count$ = -24						; size = 4
_fangle$ = -20						; size = 4
_tObjNum$ = -16						; size = 4
_StartDis$ = -12					; size = 4
_lpObj$ = -8						; size = 4
_this$ = -4						; size = 4
_aIndex$ = 8						; size = 4
_aTargetIndex$ = 12					; size = 4
_lpMagic$ = 16						; size = 4
_isCombo$ = 20						; size = 4
?SkillKnightBlow@CObjUseSkill@@QAEHHHPAVCMagicInf@@H@Z PROC ; CObjUseSkill::SkillKnightBlow, COMDAT
; _this$ = ecx

; 3324 : {	

  00000	55		 push	 ebp
  00001	8b ec		 mov	 ebp, esp
  00003	83 ec 6c	 sub	 esp, 108		; 0000006cH
  00006	53		 push	 ebx
  00007	56		 push	 esi
  00008	57		 push	 edi
  00009	89 4d fc	 mov	 DWORD PTR _this$[ebp], ecx

; 3325 : 	LPOBJECTSTRUCT lpObj= &gObj[aIndex];

  0000c	69 45 08 a0 1b
	00 00		 imul	 eax, DWORD PTR _aIndex$[ebp], 7072
  00013	03 05 00 00 00
	00		 add	 eax, DWORD PTR ?gObj@@3PAVOBJECTSTRUCT@@A ; gObj
  00019	89 45 f8	 mov	 DWORD PTR _lpObj$[ebp], eax

; 3326 : 		
; 3327 : 	int StartDis = 1;

  0001c	c7 45 f4 01 00
	00 00		 mov	 DWORD PTR _StartDis$[ebp], 1

; 3328 : 	int tObjNum;
; 3329 : 
; 3330 : 	float fangle = (float)GetAngle(lpObj->X, lpObj->Y, gObj[aTargetIndex].X, gObj[aTargetIndex].Y);

  00023	69 45 0c a0 1b
	00 00		 imul	 eax, DWORD PTR _aTargetIndex$[ebp], 7072
  0002a	8b 0d 00 00 00
	00		 mov	 ecx, DWORD PTR ?gObj@@3PAVOBJECTSTRUCT@@A ; gObj
  00030	0f bf 94 01 06
	01 00 00	 movsx	 edx, WORD PTR [ecx+eax+262]
  00038	52		 push	 edx
  00039	69 45 0c a0 1b
	00 00		 imul	 eax, DWORD PTR _aTargetIndex$[ebp], 7072
  00040	8b 0d 00 00 00
	00		 mov	 ecx, DWORD PTR ?gObj@@3PAVOBJECTSTRUCT@@A ; gObj
  00046	0f bf 94 01 04
	01 00 00	 movsx	 edx, WORD PTR [ecx+eax+260]
  0004e	52		 push	 edx
  0004f	8b 45 f8	 mov	 eax, DWORD PTR _lpObj$[ebp]
  00052	0f bf 88 06 01
	00 00		 movsx	 ecx, WORD PTR [eax+262]
  00059	51		 push	 ecx
  0005a	8b 55 f8	 mov	 edx, DWORD PTR _lpObj$[ebp]
  0005d	0f bf 82 04 01
	00 00		 movsx	 eax, WORD PTR [edx+260]
  00064	50		 push	 eax
  00065	8b 4d fc	 mov	 ecx, DWORD PTR _this$[ebp]
  00068	e8 00 00 00 00	 call	 ?GetAngle@CObjUseSkill@@QAEHHHHH@Z ; CObjUseSkill::GetAngle
  0006d	f3 0f 2a c0	 cvtsi2ss xmm0, eax
  00071	f3 0f 11 45 ec	 movss	 DWORD PTR _fangle$[ebp], xmm0

; 3331 : 	
; 3332 : 	SkillFrustrum(aIndex, fangle, 1.5f, 3.f);

  00076	51		 push	 ecx
  00077	f3 0f 10 05 00
	00 00 00	 movss	 xmm0, DWORD PTR __real@40400000
  0007f	f3 0f 11 04 24	 movss	 DWORD PTR [esp], xmm0
  00084	51		 push	 ecx
  00085	f3 0f 10 05 00
	00 00 00	 movss	 xmm0, DWORD PTR __real@3fc00000
  0008d	f3 0f 11 04 24	 movss	 DWORD PTR [esp], xmm0
  00092	51		 push	 ecx
  00093	f3 0f 10 45 ec	 movss	 xmm0, DWORD PTR _fangle$[ebp]
  00098	f3 0f 11 04 24	 movss	 DWORD PTR [esp], xmm0
  0009d	8b 45 08	 mov	 eax, DWORD PTR _aIndex$[ebp]
  000a0	50		 push	 eax
  000a1	8b 4d fc	 mov	 ecx, DWORD PTR _this$[ebp]
  000a4	e8 00 00 00 00	 call	 ?SkillFrustrum@CObjUseSkill@@QAEXHMMM@Z ; CObjUseSkill::SkillFrustrum

; 3333 : 
; 3334 : 	int count = 0;

  000a9	c7 45 e8 00 00
	00 00		 mov	 DWORD PTR _count$[ebp], 0

; 3335 : 	int loopcount = 0;

  000b0	c7 45 e4 00 00
	00 00		 mov	 DWORD PTR _loopcount$[ebp], 0

; 3336 : 	BOOL attackcheck;	
; 3337 : 
; 3338 : 	GCMagicAttackNumberSend(lpObj, lpMagic->m_Skill, aTargetIndex, 1);

  000b7	6a 01		 push	 1
  000b9	8b 45 0c	 mov	 eax, DWORD PTR _aTargetIndex$[ebp]
  000bc	50		 push	 eax
  000bd	8b 4d 10	 mov	 ecx, DWORD PTR _lpMagic$[ebp]
  000c0	0f b6 51 05	 movzx	 edx, BYTE PTR [ecx+5]
  000c4	52		 push	 edx
  000c5	8b 45 f8	 mov	 eax, DWORD PTR _lpObj$[ebp]
  000c8	50		 push	 eax
  000c9	e8 00 00 00 00	 call	 ?GCMagicAttackNumberSend@@YAXPAVOBJECTSTRUCT@@EHE@Z ; GCMagicAttackNumberSend
  000ce	83 c4 10	 add	 esp, 16			; 00000010H

; 3339 : 
; 3340 : #ifdef DUEL_SYSTEM_20031028
; 3341 : 	int DuelIndex = lpObj->m_iDuelUser;

  000d1	8b 45 f8	 mov	 eax, DWORD PTR _lpObj$[ebp]
  000d4	8b 88 ec 0c 00
	00		 mov	 ecx, DWORD PTR [eax+3308]
  000da	89 4d dc	 mov	 DWORD PTR _DuelIndex$[ebp], ecx
$LN25@SkillKnigh:

; 3342 : #endif
; 3343 : 
; 3344 : 	BOOL	EnableAttack;
; 3345 : 
; 3346 : 	while(1)

  000dd	b8 01 00 00 00	 mov	 eax, 1
  000e2	85 c0		 test	 eax, eax
  000e4	0f 84 3b 02 00
	00		 je	 $LN3@SkillKnigh

; 3347 : 	{
; 3348 : 		if( lpObj->VpPlayer2[count].state )

  000ea	6b 45 e8 0c	 imul	 eax, DWORD PTR _count$[ebp], 12
  000ee	8b 4d f8	 mov	 ecx, DWORD PTR _lpObj$[ebp]
  000f1	0f be 94 01 e8
	06 00 00	 movsx	 edx, BYTE PTR [ecx+eax+1768]
  000f9	85 d2		 test	 edx, edx
  000fb	0f 84 f8 01 00
	00		 je	 $LN21@SkillKnigh

; 3349 : 		{
; 3350 : 			tObjNum = lpObj->VpPlayer2[count].number;

  00101	6b 45 e8 0c	 imul	 eax, DWORD PTR _count$[ebp], 12
  00105	8b 4d f8	 mov	 ecx, DWORD PTR _lpObj$[ebp]
  00108	0f bf 94 01 ea
	06 00 00	 movsx	 edx, WORD PTR [ecx+eax+1770]
  00110	89 55 f0	 mov	 DWORD PTR _tObjNum$[ebp], edx

; 3351 : 
; 3352 : 			if( tObjNum >= 0 )

  00113	83 7d f0 00	 cmp	 DWORD PTR _tObjNum$[ebp], 0
  00117	0f 8c dc 01 00
	00		 jl	 $LN21@SkillKnigh

; 3353 : 			{
; 3354 : 				EnableAttack = FALSE;

  0011d	c7 45 d8 00 00
	00 00		 mov	 DWORD PTR _EnableAttack$[ebp], 0

; 3355 : 
; 3356 : 				if( ((lpObj->VpPlayer2[count].type == OBJTYPE_MONSTER) && (gObj[tObjNum].m_RecallMon < 0)) )

  00124	6b 45 e8 0c	 imul	 eax, DWORD PTR _count$[ebp], 12
  00128	8b 4d f8	 mov	 ecx, DWORD PTR _lpObj$[ebp]
  0012b	0f b6 94 01 ec
	06 00 00	 movzx	 edx, BYTE PTR [ecx+eax+1772]
  00133	83 fa 02	 cmp	 edx, 2
  00136	75 23		 jne	 SHORT $LN6@SkillKnigh
  00138	69 45 f0 a0 1b
	00 00		 imul	 eax, DWORD PTR _tObjNum$[ebp], 7072
  0013f	8b 0d 00 00 00
	00		 mov	 ecx, DWORD PTR ?gObj@@3PAVOBJECTSTRUCT@@A ; gObj
  00145	83 bc 01 a4 02
	00 00 00	 cmp	 DWORD PTR [ecx+eax+676], 0
  0014d	7d 0c		 jge	 SHORT $LN6@SkillKnigh

; 3357 : 				{	// 대상이 몬스터이고, 소환몹이 아니면 공격가능
; 3358 : 					EnableAttack = TRUE;

  0014f	c7 45 d8 01 00
	00 00		 mov	 DWORD PTR _EnableAttack$[ebp], 1

; 3359 : 				}	

  00156	e9 a6 00 00 00	 jmp	 $LN13@SkillKnigh
$LN6@SkillKnigh:

; 3360 : 				else if( tObjNum == aTargetIndex 
; 3361 : 	#ifdef DUEL_SYSTEM_20031028
; 3362 : 						 || DuelIndex == tObjNum

  0015b	8b 45 f0	 mov	 eax, DWORD PTR _tObjNum$[ebp]
  0015e	3b 45 0c	 cmp	 eax, DWORD PTR _aTargetIndex$[ebp]
  00161	74 08		 je	 SHORT $LN10@SkillKnigh
  00163	8b 45 dc	 mov	 eax, DWORD PTR _DuelIndex$[ebp]
  00166	3b 45 f0	 cmp	 eax, DWORD PTR _tObjNum$[ebp]
  00169	75 0c		 jne	 SHORT $LN8@SkillKnigh
$LN10@SkillKnigh:

; 3363 : 	#endif
; 3364 : 						 )
; 3365 : 				{	// 클라이언트에서 대상을 강제 공격했을때와 결투 대상일때는 공격가능
; 3366 : 					EnableAttack = TRUE;

  0016b	c7 45 d8 01 00
	00 00		 mov	 DWORD PTR _EnableAttack$[ebp], 1

; 3367 : 				}	

  00172	e9 8a 00 00 00	 jmp	 $LN13@SkillKnigh
$LN8@SkillKnigh:

; 3368 : 				else
; 3369 : 				{	// 길드전 체크
; 3370 : 					int CallMonIndex = gObj[tObjNum].m_Index;

  00177	69 45 f0 a0 1b
	00 00		 imul	 eax, DWORD PTR _tObjNum$[ebp], 7072
  0017e	8b 0d 00 00 00
	00		 mov	 ecx, DWORD PTR ?gObj@@3PAVOBJECTSTRUCT@@A ; gObj
  00184	8b 14 01	 mov	 edx, DWORD PTR [ecx+eax]
  00187	89 55 d4	 mov	 DWORD PTR _CallMonIndex$1[ebp], edx

; 3371 : 					if( gObj[tObjNum].Type == OBJTYPE_MONSTER )

  0018a	69 45 f0 a0 1b
	00 00		 imul	 eax, DWORD PTR _tObjNum$[ebp], 7072
  00191	8b 0d 00 00 00
	00		 mov	 ecx, DWORD PTR ?gObj@@3PAVOBJECTSTRUCT@@A ; gObj
  00197	0f b7 54 01 64	 movzx	 edx, WORD PTR [ecx+eax+100]
  0019c	83 fa 02	 cmp	 edx, 2
  0019f	75 3a		 jne	 SHORT $LN12@SkillKnigh

; 3372 : 					{
; 3373 : 						if( gObj[tObjNum].m_RecallMon >= 0 ) 

  001a1	69 45 f0 a0 1b
	00 00		 imul	 eax, DWORD PTR _tObjNum$[ebp], 7072
  001a8	8b 0d 00 00 00
	00		 mov	 ecx, DWORD PTR ?gObj@@3PAVOBJECTSTRUCT@@A ; gObj
  001ae	83 bc 01 a4 02
	00 00 00	 cmp	 DWORD PTR [ecx+eax+676], 0
  001b6	7c 23		 jl	 SHORT $LN12@SkillKnigh

; 3374 : 						{
; 3375 : 							CallMonIndex = gObj[gObj[tObjNum].m_RecallMon].m_Index;

  001b8	69 45 f0 a0 1b
	00 00		 imul	 eax, DWORD PTR _tObjNum$[ebp], 7072
  001bf	8b 0d 00 00 00
	00		 mov	 ecx, DWORD PTR ?gObj@@3PAVOBJECTSTRUCT@@A ; gObj
  001c5	69 94 01 a4 02
	00 00 a0 1b 00
	00		 imul	 edx, DWORD PTR [ecx+eax+676], 7072
  001d0	a1 00 00 00 00	 mov	 eax, DWORD PTR ?gObj@@3PAVOBJECTSTRUCT@@A ; gObj
  001d5	8b 0c 10	 mov	 ecx, DWORD PTR [eax+edx]
  001d8	89 4d d4	 mov	 DWORD PTR _CallMonIndex$1[ebp], ecx
$LN12@SkillKnigh:

; 3376 : 						}
; 3377 : 					}
; 3378 : 					if( gObjTargetGuildWarCheck(lpObj, &gObj[CallMonIndex]) == TRUE )

  001db	69 45 d4 a0 1b
	00 00		 imul	 eax, DWORD PTR _CallMonIndex$1[ebp], 7072
  001e2	03 05 00 00 00
	00		 add	 eax, DWORD PTR ?gObj@@3PAVOBJECTSTRUCT@@A ; gObj
  001e8	50		 push	 eax
  001e9	8b 4d f8	 mov	 ecx, DWORD PTR _lpObj$[ebp]
  001ec	51		 push	 ecx
  001ed	e8 00 00 00 00	 call	 ?gObjTargetGuildWarCheck@@YAHPAVOBJECTSTRUCT@@0@Z ; gObjTargetGuildWarCheck
  001f2	83 c4 08	 add	 esp, 8
  001f5	83 f8 01	 cmp	 eax, 1
  001f8	75 07		 jne	 SHORT $LN13@SkillKnigh

; 3379 : 					{	// 대상이 길전상대이면 공격가능
; 3380 : 						EnableAttack = TRUE;

  001fa	c7 45 d8 01 00
	00 00		 mov	 DWORD PTR _EnableAttack$[ebp], 1
$LN13@SkillKnigh:

; 3381 : 					}
; 3382 : 				}
; 3383 : 
; 3384 : 				if( EnableAttack )

  00201	83 7d d8 00	 cmp	 DWORD PTR _EnableAttack$[ebp], 0
  00205	0f 84 ee 00 00
	00		 je	 $LN21@SkillKnigh

; 3385 : 				{	
; 3386 : 					attackcheck = FALSE;

  0020b	c7 45 e0 00 00
	00 00		 mov	 DWORD PTR _attackcheck$[ebp], 0

; 3387 : 
; 3388 : 					if( loopcount == 0 )

  00212	83 7d e4 00	 cmp	 DWORD PTR _loopcount$[ebp], 0
  00216	75 09		 jne	 SHORT $LN15@SkillKnigh

; 3389 : 					{
; 3390 : 						attackcheck = TRUE;

  00218	c7 45 e0 01 00
	00 00		 mov	 DWORD PTR _attackcheck$[ebp], 1

; 3391 : 					}

  0021f	eb 18		 jmp	 SHORT $LN17@SkillKnigh
$LN15@SkillKnigh:

; 3392 : 					else
; 3393 : 					{
; 3394 : 						if( !(rand()%3) )

  00221	e8 00 00 00 00	 call	 _rand
  00226	99		 cdq
  00227	b9 03 00 00 00	 mov	 ecx, 3
  0022c	f7 f9		 idiv	 ecx
  0022e	85 d2		 test	 edx, edx
  00230	75 07		 jne	 SHORT $LN17@SkillKnigh

; 3395 : 						{
; 3396 : 							attackcheck = TRUE;

  00232	c7 45 e0 01 00
	00 00		 mov	 DWORD PTR _attackcheck$[ebp], 1
$LN17@SkillKnigh:

; 3397 : 						}
; 3398 : 					}
; 3399 : 
; 3400 : 					if((g_GlobalConfig.m_bDisableCombo && gObj[tObjNum].Type == OBJTYPE_CHARACTER && isCombo))

  00239	83 3d 2c 00 00
	00 00		 cmp	 DWORD PTR ?g_GlobalConfig@@3VCGlobalConfig@@A+44, 0
  00240	74 22		 je	 SHORT $LN18@SkillKnigh
  00242	69 45 f0 a0 1b
	00 00		 imul	 eax, DWORD PTR _tObjNum$[ebp], 7072
  00249	8b 0d 00 00 00
	00		 mov	 ecx, DWORD PTR ?gObj@@3PAVOBJECTSTRUCT@@A ; gObj
  0024f	0f b7 54 01 64	 movzx	 edx, WORD PTR [ecx+eax+100]
  00254	83 fa 01	 cmp	 edx, 1
  00257	75 0b		 jne	 SHORT $LN18@SkillKnigh
  00259	83 7d 14 00	 cmp	 DWORD PTR _isCombo$[ebp], 0
  0025d	74 05		 je	 SHORT $LN18@SkillKnigh

; 3401 : 					{
; 3402 : 						continue;

  0025f	e9 79 fe ff ff	 jmp	 $LN25@SkillKnigh
$LN18@SkillKnigh:

; 3403 : 					}
; 3404 : 					
; 3405 : 					if( attackcheck )

  00264	83 7d e0 00	 cmp	 DWORD PTR _attackcheck$[ebp], 0
  00268	0f 84 8b 00 00
	00		 je	 $LN21@SkillKnigh

; 3406 : 					{
; 3407 : 						if( SkillTestFrustrum(gObj[tObjNum].X, gObj[tObjNum].Y, aIndex) )

  0026e	8b 45 08	 mov	 eax, DWORD PTR _aIndex$[ebp]
  00271	50		 push	 eax
  00272	69 4d f0 a0 1b
	00 00		 imul	 ecx, DWORD PTR _tObjNum$[ebp], 7072
  00279	8b 15 00 00 00
	00		 mov	 edx, DWORD PTR ?gObj@@3PAVOBJECTSTRUCT@@A ; gObj
  0027f	0f bf 84 0a 06
	01 00 00	 movsx	 eax, WORD PTR [edx+ecx+262]
  00287	50		 push	 eax
  00288	69 4d f0 a0 1b
	00 00		 imul	 ecx, DWORD PTR _tObjNum$[ebp], 7072
  0028f	8b 15 00 00 00
	00		 mov	 edx, DWORD PTR ?gObj@@3PAVOBJECTSTRUCT@@A ; gObj
  00295	0f bf 84 0a 04
	01 00 00	 movsx	 eax, WORD PTR [edx+ecx+260]
  0029d	50		 push	 eax
  0029e	e8 00 00 00 00	 call	 ?SkillTestFrustrum@@YAHHHH@Z ; SkillTestFrustrum
  002a3	83 c4 0c	 add	 esp, 12			; 0000000cH
  002a6	85 c0		 test	 eax, eax
  002a8	74 4f		 je	 SHORT $LN21@SkillKnigh

; 3408 : 						{	
; 3409 : 							gObjAttack(lpObj, &gObj[tObjNum], lpMagic, 0, 1, 0, isCombo);

  002aa	8b 45 14	 mov	 eax, DWORD PTR _isCombo$[ebp]
  002ad	50		 push	 eax
  002ae	6a 00		 push	 0
  002b0	6a 01		 push	 1
  002b2	6a 00		 push	 0
  002b4	8b 4d 10	 mov	 ecx, DWORD PTR _lpMagic$[ebp]
  002b7	51		 push	 ecx
  002b8	69 55 f0 a0 1b
	00 00		 imul	 edx, DWORD PTR _tObjNum$[ebp], 7072
  002bf	03 15 00 00 00
	00		 add	 edx, DWORD PTR ?gObj@@3PAVOBJECTSTRUCT@@A ; gObj
  002c5	52		 push	 edx
  002c6	8b 45 f8	 mov	 eax, DWORD PTR _lpObj$[ebp]
  002c9	50		 push	 eax
  002ca	e8 00 00 00 00	 call	 ?gObjAttack@@YAHPAVOBJECTSTRUCT@@0PAVCMagicInf@@HEHH@Z ; gObjAttack
  002cf	83 c4 1c	 add	 esp, 28			; 0000001cH

; 3410 : 
; 3411 : 							if(isCombo)

  002d2	83 7d 14 00	 cmp	 DWORD PTR _isCombo$[ebp], 0
  002d6	74 21		 je	 SHORT $LN21@SkillKnigh

; 3412 : 								GCMagicAttackNumberSend(lpObj, AT_SKILL_COMBO, gObj[tObjNum].m_Index, 1);						

  002d8	6a 01		 push	 1
  002da	69 45 f0 a0 1b
	00 00		 imul	 eax, DWORD PTR _tObjNum$[ebp], 7072
  002e1	8b 0d 00 00 00
	00		 mov	 ecx, DWORD PTR ?gObj@@3PAVOBJECTSTRUCT@@A ; gObj
  002e7	8b 14 01	 mov	 edx, DWORD PTR [ecx+eax]
  002ea	52		 push	 edx
  002eb	6a 3b		 push	 59			; 0000003bH
  002ed	8b 45 f8	 mov	 eax, DWORD PTR _lpObj$[ebp]
  002f0	50		 push	 eax
  002f1	e8 00 00 00 00	 call	 ?GCMagicAttackNumberSend@@YAXPAVOBJECTSTRUCT@@EHE@Z ; GCMagicAttackNumberSend
  002f6	83 c4 10	 add	 esp, 16			; 00000010H
$LN21@SkillKnigh:

; 3413 : 						}
; 3414 : 					}
; 3415 : 				}
; 3416 : 			}
; 3417 : 		}
; 3418 : 		count++;

  002f9	8b 45 e8	 mov	 eax, DWORD PTR _count$[ebp]
  002fc	83 c0 01	 add	 eax, 1
  002ff	89 45 e8	 mov	 DWORD PTR _count$[ebp], eax

; 3419 : 		if( count > MAXVIEWPORTOBJECT-1 )

  00302	83 7d e8 4a	 cmp	 DWORD PTR _count$[ebp], 74 ; 0000004aH
  00306	7e 18		 jle	 SHORT $LN23@SkillKnigh

; 3420 : 		{
; 3421 : 			loopcount++;

  00308	8b 45 e4	 mov	 eax, DWORD PTR _loopcount$[ebp]
  0030b	83 c0 01	 add	 eax, 1
  0030e	89 45 e4	 mov	 DWORD PTR _loopcount$[ebp], eax

; 3422 : 			count = 0;

  00311	c7 45 e8 00 00
	00 00		 mov	 DWORD PTR _count$[ebp], 0

; 3423 : 			if( loopcount >= 3 )			

  00318	83 7d e4 03	 cmp	 DWORD PTR _loopcount$[ebp], 3
  0031c	7c 02		 jl	 SHORT $LN23@SkillKnigh

; 3424 : 				break;

  0031e	eb 05		 jmp	 SHORT $LN3@SkillKnigh
$LN23@SkillKnigh:

; 3425 : 		}
; 3426 : 	}

  00320	e9 b8 fd ff ff	 jmp	 $LN25@SkillKnigh
$LN3@SkillKnigh:

; 3427 : 	return TRUE;

  00325	b8 01 00 00 00	 mov	 eax, 1

; 3428 : }

  0032a	5f		 pop	 edi
  0032b	5e		 pop	 esi
  0032c	5b		 pop	 ebx
  0032d	8b e5		 mov	 esp, ebp
  0032f	5d		 pop	 ebp
  00330	c2 10 00	 ret	 16			; 00000010H
?SkillKnightBlow@CObjUseSkill@@QAEHHHPAVCMagicInf@@H@Z ENDP ; CObjUseSkill::SkillKnightBlow
_TEXT	ENDS
; Function compile flags: /Odtp /ZI
; File C:\Mu Online\Mu-GS-Webzen-MC-10093\GameServer\ObjUseSkill.cpp
;	COMDAT ?SkillWheel@CObjUseSkill@@QAEXHPAVCMagicInf@@HH@Z
_TEXT	SEGMENT
_CallMonIndex$1 = -36					; size = 4
_EnableAttack$ = -32					; size = 4
_DuelIndex$ = -28					; size = 4
_bAttack$ = -24						; size = 4
_HitCount$ = -20					; size = 4
_count$ = -16						; size = 4
_tObjNum$ = -12						; size = 4
_lpObj$ = -8						; size = 4
_this$ = -4						; size = 4
_aIndex$ = 8						; size = 4
_lpMagic$ = 12						; size = 4
_aTargetIndex$ = 16					; size = 4
_isCombo$ = 20						; size = 4
?SkillWheel@CObjUseSkill@@QAEXHPAVCMagicInf@@HH@Z PROC	; CObjUseSkill::SkillWheel, COMDAT
; _this$ = ecx

; 2372 : {

  00000	55		 push	 ebp
  00001	8b ec		 mov	 ebp, esp
  00003	83 ec 64	 sub	 esp, 100		; 00000064H
  00006	53		 push	 ebx
  00007	56		 push	 esi
  00008	57		 push	 edi
  00009	89 4d fc	 mov	 DWORD PTR _this$[ebp], ecx

; 2373 : 	//return;
; 2374 : 	LPOBJECTSTRUCT lpObj= &gObj[aIndex];

  0000c	69 45 08 a0 1b
	00 00		 imul	 eax, DWORD PTR _aIndex$[ebp], 7072
  00013	03 05 00 00 00
	00		 add	 eax, DWORD PTR ?gObj@@3PAVOBJECTSTRUCT@@A ; gObj
  00019	89 45 f8	 mov	 DWORD PTR _lpObj$[ebp], eax

; 2375 : 
; 2376 : 	int tObjNum;
; 2377 : 	int count = 0;

  0001c	c7 45 f0 00 00
	00 00		 mov	 DWORD PTR _count$[ebp], 0

; 2378 : 	int	HitCount = 0;

  00023	c7 45 ec 00 00
	00 00		 mov	 DWORD PTR _HitCount$[ebp], 0

; 2379 : 	int	bAttack;
; 2380 : 
; 2381 : 
; 2382 : #ifdef DUEL_SYSTEM_20031028
; 2383 : 	int DuelIndex = lpObj->m_iDuelUser;

  0002a	8b 45 f8	 mov	 eax, DWORD PTR _lpObj$[ebp]
  0002d	8b 88 ec 0c 00
	00		 mov	 ecx, DWORD PTR [eax+3308]
  00033	89 4d e4	 mov	 DWORD PTR _DuelIndex$[ebp], ecx
$LN2@SkillWheel:

; 2384 : #endif
; 2385 : 
; 2386 : 	BOOL	EnableAttack;
; 2387 : 
; 2388 : 	while(1)

  00036	b8 01 00 00 00	 mov	 eax, 1
  0003b	85 c0		 test	 eax, eax
  0003d	0f 84 19 02 00
	00		 je	 $LN1@SkillWheel

; 2389 : 	{
; 2390 : 		if( lpObj->VpPlayer2[count].state )

  00043	6b 45 f0 0c	 imul	 eax, DWORD PTR _count$[ebp], 12
  00047	8b 4d f8	 mov	 ecx, DWORD PTR _lpObj$[ebp]
  0004a	0f be 94 01 e8
	06 00 00	 movsx	 edx, BYTE PTR [ecx+eax+1768]
  00052	85 d2		 test	 edx, edx
  00054	0f 84 ec 01 00
	00		 je	 $LN4@SkillWheel

; 2391 : 		{
; 2392 : 			tObjNum = lpObj->VpPlayer2[count].number;

  0005a	6b 45 f0 0c	 imul	 eax, DWORD PTR _count$[ebp], 12
  0005e	8b 4d f8	 mov	 ecx, DWORD PTR _lpObj$[ebp]
  00061	0f bf 94 01 ea
	06 00 00	 movsx	 edx, WORD PTR [ecx+eax+1770]
  00069	89 55 f4	 mov	 DWORD PTR _tObjNum$[ebp], edx

; 2393 : 			if( tObjNum >= 0 )

  0006c	83 7d f4 00	 cmp	 DWORD PTR _tObjNum$[ebp], 0
  00070	0f 8c d0 01 00
	00		 jl	 $LN4@SkillWheel

; 2394 : 			{
; 2395 : 				EnableAttack = FALSE;

  00076	c7 45 e0 00 00
	00 00		 mov	 DWORD PTR _EnableAttack$[ebp], 0

; 2396 : 
; 2397 : 				if( ((lpObj->VpPlayer2[count].type == OBJTYPE_MONSTER) && (gObj[tObjNum].m_RecallMon < 0)) )

  0007d	6b 45 f0 0c	 imul	 eax, DWORD PTR _count$[ebp], 12
  00081	8b 4d f8	 mov	 ecx, DWORD PTR _lpObj$[ebp]
  00084	0f b6 94 01 ec
	06 00 00	 movzx	 edx, BYTE PTR [ecx+eax+1772]
  0008c	83 fa 02	 cmp	 edx, 2
  0008f	75 23		 jne	 SHORT $LN6@SkillWheel
  00091	69 45 f4 a0 1b
	00 00		 imul	 eax, DWORD PTR _tObjNum$[ebp], 7072
  00098	8b 0d 00 00 00
	00		 mov	 ecx, DWORD PTR ?gObj@@3PAVOBJECTSTRUCT@@A ; gObj
  0009e	83 bc 01 a4 02
	00 00 00	 cmp	 DWORD PTR [ecx+eax+676], 0
  000a6	7d 0c		 jge	 SHORT $LN6@SkillWheel

; 2398 : 				{	// 대상이 몬스터이고, 소환몹이 아니면 공격가능
; 2399 : 					EnableAttack = TRUE;

  000a8	c7 45 e0 01 00
	00 00		 mov	 DWORD PTR _EnableAttack$[ebp], 1

; 2400 : 				}

  000af	e9 a6 00 00 00	 jmp	 $LN7@SkillWheel
$LN6@SkillWheel:

; 2401 : 				else if( tObjNum == aTargetIndex 
; 2402 : 	#ifdef DUEL_SYSTEM_20031028
; 2403 : 						 || DuelIndex == tObjNum

  000b4	8b 45 f4	 mov	 eax, DWORD PTR _tObjNum$[ebp]
  000b7	3b 45 10	 cmp	 eax, DWORD PTR _aTargetIndex$[ebp]
  000ba	74 08		 je	 SHORT $LN10@SkillWheel
  000bc	8b 45 e4	 mov	 eax, DWORD PTR _DuelIndex$[ebp]
  000bf	3b 45 f4	 cmp	 eax, DWORD PTR _tObjNum$[ebp]
  000c2	75 0c		 jne	 SHORT $LN8@SkillWheel
$LN10@SkillWheel:

; 2404 : 	#endif
; 2405 : 						 )
; 2406 : 				{	// 클라이언트에서 대상을 강제 공격했을때와 결투 대상일때는 공격가능
; 2407 : 					EnableAttack = TRUE;

  000c4	c7 45 e0 01 00
	00 00		 mov	 DWORD PTR _EnableAttack$[ebp], 1

; 2408 : 				}

  000cb	e9 8a 00 00 00	 jmp	 $LN7@SkillWheel
$LN8@SkillWheel:

; 2409 : #ifdef MODIFY_RANGEATTACK_CHECK_20050113		// 회오리베기는 공성전 중에 사람에게도 적용된다.
; 2410 : 				else if (
; 2411 : 					lpObj->VpPlayer2[count].type != OBJTYPE_NPC &&
; 2412 : 					gObj[tObjNum].MapNumber == MAP_INDEX_CASTLESIEGE &&
; 2413 : 					g_CastleSiege.GetCastleState() == CASTLESIEGE_STATE_STARTSIEGE
; 2414 : 					)
; 2415 : 				{
; 2416 : 					EnableAttack = TRUE;
; 2417 : 				}
; 2418 : #endif					
; 2419 : 				else
; 2420 : 				{	// 길드전 체크
; 2421 : 					int CallMonIndex = gObj[tObjNum].m_Index;

  000d0	69 45 f4 a0 1b
	00 00		 imul	 eax, DWORD PTR _tObjNum$[ebp], 7072
  000d7	8b 0d 00 00 00
	00		 mov	 ecx, DWORD PTR ?gObj@@3PAVOBJECTSTRUCT@@A ; gObj
  000dd	8b 14 01	 mov	 edx, DWORD PTR [ecx+eax]
  000e0	89 55 dc	 mov	 DWORD PTR _CallMonIndex$1[ebp], edx

; 2422 : 					if( gObj[tObjNum].Type == OBJTYPE_MONSTER )

  000e3	69 45 f4 a0 1b
	00 00		 imul	 eax, DWORD PTR _tObjNum$[ebp], 7072
  000ea	8b 0d 00 00 00
	00		 mov	 ecx, DWORD PTR ?gObj@@3PAVOBJECTSTRUCT@@A ; gObj
  000f0	0f b7 54 01 64	 movzx	 edx, WORD PTR [ecx+eax+100]
  000f5	83 fa 02	 cmp	 edx, 2
  000f8	75 3a		 jne	 SHORT $LN11@SkillWheel

; 2423 : 					{
; 2424 : 						if( gObj[tObjNum].m_RecallMon >= 0 ) 

  000fa	69 45 f4 a0 1b
	00 00		 imul	 eax, DWORD PTR _tObjNum$[ebp], 7072
  00101	8b 0d 00 00 00
	00		 mov	 ecx, DWORD PTR ?gObj@@3PAVOBJECTSTRUCT@@A ; gObj
  00107	83 bc 01 a4 02
	00 00 00	 cmp	 DWORD PTR [ecx+eax+676], 0
  0010f	7c 23		 jl	 SHORT $LN11@SkillWheel

; 2425 : 						{
; 2426 : 							CallMonIndex = gObj[gObj[tObjNum].m_RecallMon].m_Index;

  00111	69 45 f4 a0 1b
	00 00		 imul	 eax, DWORD PTR _tObjNum$[ebp], 7072
  00118	8b 0d 00 00 00
	00		 mov	 ecx, DWORD PTR ?gObj@@3PAVOBJECTSTRUCT@@A ; gObj
  0011e	69 94 01 a4 02
	00 00 a0 1b 00
	00		 imul	 edx, DWORD PTR [ecx+eax+676], 7072
  00129	a1 00 00 00 00	 mov	 eax, DWORD PTR ?gObj@@3PAVOBJECTSTRUCT@@A ; gObj
  0012e	8b 0c 10	 mov	 ecx, DWORD PTR [eax+edx]
  00131	89 4d dc	 mov	 DWORD PTR _CallMonIndex$1[ebp], ecx
$LN11@SkillWheel:

; 2427 : 						}
; 2428 : 					}
; 2429 : 					if( gObjTargetGuildWarCheck(lpObj, &gObj[CallMonIndex]) == TRUE )

  00134	69 45 dc a0 1b
	00 00		 imul	 eax, DWORD PTR _CallMonIndex$1[ebp], 7072
  0013b	03 05 00 00 00
	00		 add	 eax, DWORD PTR ?gObj@@3PAVOBJECTSTRUCT@@A ; gObj
  00141	50		 push	 eax
  00142	8b 4d f8	 mov	 ecx, DWORD PTR _lpObj$[ebp]
  00145	51		 push	 ecx
  00146	e8 00 00 00 00	 call	 ?gObjTargetGuildWarCheck@@YAHPAVOBJECTSTRUCT@@0@Z ; gObjTargetGuildWarCheck
  0014b	83 c4 08	 add	 esp, 8
  0014e	83 f8 01	 cmp	 eax, 1
  00151	75 07		 jne	 SHORT $LN7@SkillWheel

; 2430 : 					{	// 대상이 길전상대이면 공격가능
; 2431 : 						EnableAttack = TRUE;

  00153	c7 45 e0 01 00
	00 00		 mov	 DWORD PTR _EnableAttack$[ebp], 1
$LN7@SkillWheel:

; 2432 : 					}
; 2433 : 				}
; 2434 : 
; 2435 : 				if( EnableAttack )

  0015a	83 7d e0 00	 cmp	 DWORD PTR _EnableAttack$[ebp], 0
  0015e	0f 84 e2 00 00
	00		 je	 $LN4@SkillWheel

; 2436 : 				{	
; 2437 : 					if( gObjCalDistance(lpObj, &gObj[tObjNum]) < 3 )

  00164	69 45 f4 a0 1b
	00 00		 imul	 eax, DWORD PTR _tObjNum$[ebp], 7072
  0016b	03 05 00 00 00
	00		 add	 eax, DWORD PTR ?gObj@@3PAVOBJECTSTRUCT@@A ; gObj
  00171	50		 push	 eax
  00172	8b 4d f8	 mov	 ecx, DWORD PTR _lpObj$[ebp]
  00175	51		 push	 ecx
  00176	e8 00 00 00 00	 call	 ?gObjCalDistance@@YAHPAVOBJECTSTRUCT@@0@Z ; gObjCalDistance
  0017b	83 c4 08	 add	 esp, 8
  0017e	83 f8 03	 cmp	 eax, 3
  00181	0f 8d bf 00 00
	00		 jge	 $LN4@SkillWheel

; 2438 : 					{	
; 2439 : 						bAttack = FALSE;

  00187	c7 45 e8 00 00
	00 00		 mov	 DWORD PTR _bAttack$[ebp], 0

; 2440 : 						if( HitCount > 15 )

  0018e	83 7d ec 0f	 cmp	 DWORD PTR _HitCount$[ebp], 15 ; 0000000fH
  00192	7e 07		 jle	 SHORT $LN16@SkillWheel

; 2441 : 						{
; 2442 : 							bAttack = FALSE;

  00194	c7 45 e8 00 00
	00 00		 mov	 DWORD PTR _bAttack$[ebp], 0
$LN16@SkillWheel:

; 2443 : 						}
; 2444 : 						if( HitCount >= 10 )

  0019b	83 7d ec 0a	 cmp	 DWORD PTR _HitCount$[ebp], 10 ; 0000000aH
  0019f	7c 1e		 jl	 SHORT $LN17@SkillWheel

; 2445 : 						{	
; 2446 : 							if( rand()%2 )

  001a1	e8 00 00 00 00	 call	 _rand
  001a6	25 01 00 00 80	 and	 eax, -2147483647	; 80000001H
  001ab	79 05		 jns	 SHORT $LN26@SkillWheel
  001ad	48		 dec	 eax
  001ae	83 c8 fe	 or	 eax, -2			; fffffffeH
  001b1	40		 inc	 eax
$LN26@SkillWheel:
  001b2	85 c0		 test	 eax, eax
  001b4	74 07		 je	 SHORT $LN19@SkillWheel

; 2447 : 							{
; 2448 : 								bAttack = TRUE;

  001b6	c7 45 e8 01 00
	00 00		 mov	 DWORD PTR _bAttack$[ebp], 1
$LN19@SkillWheel:

; 2449 : 							}							
; 2450 : 						}

  001bd	eb 07		 jmp	 SHORT $LN18@SkillWheel
$LN17@SkillWheel:

; 2451 : 						else 
; 2452 : 						{
; 2453 : 							bAttack = TRUE;

  001bf	c7 45 e8 01 00
	00 00		 mov	 DWORD PTR _bAttack$[ebp], 1
$LN18@SkillWheel:

; 2454 : 						}
; 2455 : 
; 2456 : 						if((g_GlobalConfig.m_bDisableCombo && gObj[tObjNum].Type == OBJTYPE_CHARACTER && isCombo))

  001c6	83 3d 2c 00 00
	00 00		 cmp	 DWORD PTR ?g_GlobalConfig@@3VCGlobalConfig@@A+44, 0
  001cd	74 22		 je	 SHORT $LN20@SkillWheel
  001cf	69 45 f4 a0 1b
	00 00		 imul	 eax, DWORD PTR _tObjNum$[ebp], 7072
  001d6	8b 0d 00 00 00
	00		 mov	 ecx, DWORD PTR ?gObj@@3PAVOBJECTSTRUCT@@A ; gObj
  001dc	0f b7 54 01 64	 movzx	 edx, WORD PTR [ecx+eax+100]
  001e1	83 fa 01	 cmp	 edx, 1
  001e4	75 0b		 jne	 SHORT $LN20@SkillWheel
  001e6	83 7d 14 00	 cmp	 DWORD PTR _isCombo$[ebp], 0
  001ea	74 05		 je	 SHORT $LN20@SkillWheel

; 2457 : 						{
; 2458 : 							continue;

  001ec	e9 45 fe ff ff	 jmp	 $LN2@SkillWheel
$LN20@SkillWheel:

; 2459 : 						}
; 2460 : 						
; 2461 : 						if( bAttack )

  001f1	83 7d e8 00	 cmp	 DWORD PTR _bAttack$[ebp], 0
  001f5	74 4f		 je	 SHORT $LN4@SkillWheel

; 2462 : 						{
; 2463 : 							gObjAttack(lpObj, &gObj[tObjNum], lpMagic, 0, 1, 0, isCombo);

  001f7	8b 45 14	 mov	 eax, DWORD PTR _isCombo$[ebp]
  001fa	50		 push	 eax
  001fb	6a 00		 push	 0
  001fd	6a 01		 push	 1
  001ff	6a 00		 push	 0
  00201	8b 4d 0c	 mov	 ecx, DWORD PTR _lpMagic$[ebp]
  00204	51		 push	 ecx
  00205	69 55 f4 a0 1b
	00 00		 imul	 edx, DWORD PTR _tObjNum$[ebp], 7072
  0020c	03 15 00 00 00
	00		 add	 edx, DWORD PTR ?gObj@@3PAVOBJECTSTRUCT@@A ; gObj
  00212	52		 push	 edx
  00213	8b 45 f8	 mov	 eax, DWORD PTR _lpObj$[ebp]
  00216	50		 push	 eax
  00217	e8 00 00 00 00	 call	 ?gObjAttack@@YAHPAVOBJECTSTRUCT@@0PAVCMagicInf@@HEHH@Z ; gObjAttack
  0021c	83 c4 1c	 add	 esp, 28			; 0000001cH

; 2464 : 
; 2465 : 							if(isCombo)

  0021f	83 7d 14 00	 cmp	 DWORD PTR _isCombo$[ebp], 0
  00223	74 21		 je	 SHORT $LN4@SkillWheel

; 2466 : 								GCMagicAttackNumberSend(lpObj, AT_SKILL_COMBO, gObj[tObjNum].m_Index, 1);

  00225	6a 01		 push	 1
  00227	69 45 f4 a0 1b
	00 00		 imul	 eax, DWORD PTR _tObjNum$[ebp], 7072
  0022e	8b 0d 00 00 00
	00		 mov	 ecx, DWORD PTR ?gObj@@3PAVOBJECTSTRUCT@@A ; gObj
  00234	8b 14 01	 mov	 edx, DWORD PTR [ecx+eax]
  00237	52		 push	 edx
  00238	6a 3b		 push	 59			; 0000003bH
  0023a	8b 45 f8	 mov	 eax, DWORD PTR _lpObj$[ebp]
  0023d	50		 push	 eax
  0023e	e8 00 00 00 00	 call	 ?GCMagicAttackNumberSend@@YAXPAVOBJECTSTRUCT@@EHE@Z ; GCMagicAttackNumberSend
  00243	83 c4 10	 add	 esp, 16			; 00000010H
$LN4@SkillWheel:

; 2467 : 						}
; 2468 : 						//LogAdd("회오리 공격");
; 2469 : 					}
; 2470 : 				}
; 2471 : 			}
; 2472 : 		}
; 2473 : 		count++;

  00246	8b 45 f0	 mov	 eax, DWORD PTR _count$[ebp]
  00249	83 c0 01	 add	 eax, 1
  0024c	89 45 f0	 mov	 DWORD PTR _count$[ebp], eax

; 2474 : 		if( count > MAXVIEWPORTOBJECT-1 )

  0024f	83 7d f0 4a	 cmp	 DWORD PTR _count$[ebp], 74 ; 0000004aH
  00253	7e 02		 jle	 SHORT $LN23@SkillWheel

; 2475 : 		{
; 2476 : 			break;

  00255	eb 05		 jmp	 SHORT $LN1@SkillWheel
$LN23@SkillWheel:

; 2477 : 		}
; 2478 : 	}

  00257	e9 da fd ff ff	 jmp	 $LN2@SkillWheel
$LN1@SkillWheel:

; 2479 : }

  0025c	5f		 pop	 edi
  0025d	5e		 pop	 esi
  0025e	5b		 pop	 ebx
  0025f	8b e5		 mov	 esp, ebp
  00261	5d		 pop	 ebp
  00262	c2 10 00	 ret	 16			; 00000010H
?SkillWheel@CObjUseSkill@@QAEXHPAVCMagicInf@@HH@Z ENDP	; CObjUseSkill::SkillWheel
_TEXT	ENDS
; Function compile flags: /Odtp /ZI
; File C:\Mu Online\Mu-GS-Webzen-MC-10093\GameServer\ObjUseSkill.cpp
;	COMDAT ?SkillBlowOfFury@CObjUseSkill@@QAEXHPAVCMagicInf@@EEEEHH@Z
_TEXT	SEGMENT
_CallMonIndex$1 = -36					; size = 4
_EnableAttack$ = -32					; size = 4
_bAttack$ = -28						; size = 4
_HitCount$ = -24					; size = 4
_DuelIndex$ = -20					; size = 4
_count$ = -16						; size = 4
_tObjNum$ = -12						; size = 4
_lpObj$ = -8						; size = 4
_this$ = -4						; size = 4
_aIndex$ = 8						; size = 4
_lpMagic$ = 12						; size = 4
_x$ = 16						; size = 1
_y$ = 20						; size = 1
_dir$ = 24						; size = 1
_TargetPos$ = 28					; size = 1
_aTargetIndex$ = 32					; size = 4
_isCombo$ = 36						; size = 4
?SkillBlowOfFury@CObjUseSkill@@QAEXHPAVCMagicInf@@EEEEHH@Z PROC ; CObjUseSkill::SkillBlowOfFury, COMDAT
; _this$ = ecx

; 2257 : {

  00000	55		 push	 ebp
  00001	8b ec		 mov	 ebp, esp
  00003	83 ec 64	 sub	 esp, 100		; 00000064H
  00006	53		 push	 ebx
  00007	56		 push	 esi
  00008	57		 push	 edi
  00009	89 4d fc	 mov	 DWORD PTR _this$[ebp], ecx

; 2258 : 	LPOBJECTSTRUCT lpObj= &gObj[aIndex];

  0000c	69 45 08 a0 1b
	00 00		 imul	 eax, DWORD PTR _aIndex$[ebp], 7072
  00013	03 05 00 00 00
	00		 add	 eax, DWORD PTR ?gObj@@3PAVOBJECTSTRUCT@@A ; gObj
  00019	89 45 f8	 mov	 DWORD PTR _lpObj$[ebp], eax

; 2259 : 
; 2260 : 	int tObjNum;
; 2261 : 	int count = 0;

  0001c	c7 45 f0 00 00
	00 00		 mov	 DWORD PTR _count$[ebp], 0

; 2262 : 
; 2263 : #ifdef DUEL_SYSTEM_20031028
; 2264 : 	int DuelIndex = lpObj->m_iDuelUser;

  00023	8b 45 f8	 mov	 eax, DWORD PTR _lpObj$[ebp]
  00026	8b 88 ec 0c 00
	00		 mov	 ecx, DWORD PTR [eax+3308]
  0002c	89 4d ec	 mov	 DWORD PTR _DuelIndex$[ebp], ecx

; 2265 : #endif
; 2266 : 
; 2267 : 	int	HitCount = 0;

  0002f	c7 45 e8 00 00
	00 00		 mov	 DWORD PTR _HitCount$[ebp], 0

; 2268 : 	BOOL bAttack = FALSE;

  00036	c7 45 e4 00 00
	00 00		 mov	 DWORD PTR _bAttack$[ebp], 0
$LN2@SkillBlowO:

; 2269 : 
; 2270 : 	BOOL	EnableAttack;
; 2271 : 
; 2272 : 	while(1)

  0003d	b8 01 00 00 00	 mov	 eax, 1
  00042	85 c0		 test	 eax, eax
  00044	0f 84 07 02 00
	00		 je	 $LN1@SkillBlowO

; 2273 : 	{
; 2274 : 		if( lpObj->VpPlayer2[count].state )

  0004a	6b 45 f0 0c	 imul	 eax, DWORD PTR _count$[ebp], 12
  0004e	8b 4d f8	 mov	 ecx, DWORD PTR _lpObj$[ebp]
  00051	0f be 94 01 e8
	06 00 00	 movsx	 edx, BYTE PTR [ecx+eax+1768]
  00059	85 d2		 test	 edx, edx
  0005b	0f 84 da 01 00
	00		 je	 $LN4@SkillBlowO

; 2275 : 		{
; 2276 : 			tObjNum = lpObj->VpPlayer2[count].number;

  00061	6b 45 f0 0c	 imul	 eax, DWORD PTR _count$[ebp], 12
  00065	8b 4d f8	 mov	 ecx, DWORD PTR _lpObj$[ebp]
  00068	0f bf 94 01 ea
	06 00 00	 movsx	 edx, WORD PTR [ecx+eax+1770]
  00070	89 55 f4	 mov	 DWORD PTR _tObjNum$[ebp], edx

; 2277 : 
; 2278 : 			if( tObjNum >= 0 )

  00073	83 7d f4 00	 cmp	 DWORD PTR _tObjNum$[ebp], 0
  00077	0f 8c be 01 00
	00		 jl	 $LN4@SkillBlowO

; 2279 : 			{
; 2280 : 				EnableAttack = FALSE;

  0007d	c7 45 e0 00 00
	00 00		 mov	 DWORD PTR _EnableAttack$[ebp], 0

; 2281 : 
; 2282 : 				if( ((lpObj->VpPlayer2[count].type == OBJTYPE_MONSTER) && (gObj[tObjNum].m_RecallMon < 0)) )

  00084	6b 45 f0 0c	 imul	 eax, DWORD PTR _count$[ebp], 12
  00088	8b 4d f8	 mov	 ecx, DWORD PTR _lpObj$[ebp]
  0008b	0f b6 94 01 ec
	06 00 00	 movzx	 edx, BYTE PTR [ecx+eax+1772]
  00093	83 fa 02	 cmp	 edx, 2
  00096	75 23		 jne	 SHORT $LN6@SkillBlowO
  00098	69 45 f4 a0 1b
	00 00		 imul	 eax, DWORD PTR _tObjNum$[ebp], 7072
  0009f	8b 0d 00 00 00
	00		 mov	 ecx, DWORD PTR ?gObj@@3PAVOBJECTSTRUCT@@A ; gObj
  000a5	83 bc 01 a4 02
	00 00 00	 cmp	 DWORD PTR [ecx+eax+676], 0
  000ad	7d 0c		 jge	 SHORT $LN6@SkillBlowO

; 2283 : 				{	// 대상이 몬스터이고, 소환몹이 아니면 공격가능
; 2284 : 					EnableAttack = TRUE;

  000af	c7 45 e0 01 00
	00 00		 mov	 DWORD PTR _EnableAttack$[ebp], 1

; 2285 : 				}

  000b6	e9 a6 00 00 00	 jmp	 $LN7@SkillBlowO
$LN6@SkillBlowO:

; 2286 : 				else if( tObjNum == aTargetIndex 
; 2287 : 	#ifdef DUEL_SYSTEM_20031028
; 2288 : 						 || DuelIndex == tObjNum

  000bb	8b 45 f4	 mov	 eax, DWORD PTR _tObjNum$[ebp]
  000be	3b 45 20	 cmp	 eax, DWORD PTR _aTargetIndex$[ebp]
  000c1	74 08		 je	 SHORT $LN10@SkillBlowO
  000c3	8b 45 ec	 mov	 eax, DWORD PTR _DuelIndex$[ebp]
  000c6	3b 45 f4	 cmp	 eax, DWORD PTR _tObjNum$[ebp]
  000c9	75 0c		 jne	 SHORT $LN8@SkillBlowO
$LN10@SkillBlowO:

; 2289 : 	#endif
; 2290 : 						 )
; 2291 : 				{	// 클라이언트에서 대상을 강제 공격했을때와 결투 대상일때는 공격가능
; 2292 : 					EnableAttack = TRUE;

  000cb	c7 45 e0 01 00
	00 00		 mov	 DWORD PTR _EnableAttack$[ebp], 1

; 2293 : 				}

  000d2	e9 8a 00 00 00	 jmp	 $LN7@SkillBlowO
$LN8@SkillBlowO:

; 2294 : #ifdef MODIFY_RANGEATTACK_CHECK_20050113		// 분노의일격은 공성전 중에 사람에게도 적용된다.
; 2295 : 				else if (
; 2296 : 					lpObj->VpPlayer2[count].type != OBJTYPE_NPC &&
; 2297 : 					gObj[tObjNum].MapNumber == MAP_INDEX_CASTLESIEGE &&
; 2298 : 					g_CastleSiege.GetCastleState() == CASTLESIEGE_STATE_STARTSIEGE
; 2299 : 					)
; 2300 : 				{
; 2301 : 					EnableAttack = TRUE;
; 2302 : 				}
; 2303 : #endif					
; 2304 : 				else
; 2305 : 				{	// 길드전 체크
; 2306 : 					int CallMonIndex = gObj[tObjNum].m_Index;

  000d7	69 45 f4 a0 1b
	00 00		 imul	 eax, DWORD PTR _tObjNum$[ebp], 7072
  000de	8b 0d 00 00 00
	00		 mov	 ecx, DWORD PTR ?gObj@@3PAVOBJECTSTRUCT@@A ; gObj
  000e4	8b 14 01	 mov	 edx, DWORD PTR [ecx+eax]
  000e7	89 55 dc	 mov	 DWORD PTR _CallMonIndex$1[ebp], edx

; 2307 : 					if( gObj[tObjNum].Type == OBJTYPE_MONSTER )

  000ea	69 45 f4 a0 1b
	00 00		 imul	 eax, DWORD PTR _tObjNum$[ebp], 7072
  000f1	8b 0d 00 00 00
	00		 mov	 ecx, DWORD PTR ?gObj@@3PAVOBJECTSTRUCT@@A ; gObj
  000f7	0f b7 54 01 64	 movzx	 edx, WORD PTR [ecx+eax+100]
  000fc	83 fa 02	 cmp	 edx, 2
  000ff	75 3a		 jne	 SHORT $LN11@SkillBlowO

; 2308 : 					{
; 2309 : 						if( gObj[tObjNum].m_RecallMon >= 0 ) 

  00101	69 45 f4 a0 1b
	00 00		 imul	 eax, DWORD PTR _tObjNum$[ebp], 7072
  00108	8b 0d 00 00 00
	00		 mov	 ecx, DWORD PTR ?gObj@@3PAVOBJECTSTRUCT@@A ; gObj
  0010e	83 bc 01 a4 02
	00 00 00	 cmp	 DWORD PTR [ecx+eax+676], 0
  00116	7c 23		 jl	 SHORT $LN11@SkillBlowO

; 2310 : 						{
; 2311 : 							CallMonIndex = gObj[gObj[tObjNum].m_RecallMon].m_Index;

  00118	69 45 f4 a0 1b
	00 00		 imul	 eax, DWORD PTR _tObjNum$[ebp], 7072
  0011f	8b 0d 00 00 00
	00		 mov	 ecx, DWORD PTR ?gObj@@3PAVOBJECTSTRUCT@@A ; gObj
  00125	69 94 01 a4 02
	00 00 a0 1b 00
	00		 imul	 edx, DWORD PTR [ecx+eax+676], 7072
  00130	a1 00 00 00 00	 mov	 eax, DWORD PTR ?gObj@@3PAVOBJECTSTRUCT@@A ; gObj
  00135	8b 0c 10	 mov	 ecx, DWORD PTR [eax+edx]
  00138	89 4d dc	 mov	 DWORD PTR _CallMonIndex$1[ebp], ecx
$LN11@SkillBlowO:

; 2312 : 						}
; 2313 : 					}
; 2314 : 					if( gObjTargetGuildWarCheck(lpObj, &gObj[CallMonIndex]) == TRUE )

  0013b	69 45 dc a0 1b
	00 00		 imul	 eax, DWORD PTR _CallMonIndex$1[ebp], 7072
  00142	03 05 00 00 00
	00		 add	 eax, DWORD PTR ?gObj@@3PAVOBJECTSTRUCT@@A ; gObj
  00148	50		 push	 eax
  00149	8b 4d f8	 mov	 ecx, DWORD PTR _lpObj$[ebp]
  0014c	51		 push	 ecx
  0014d	e8 00 00 00 00	 call	 ?gObjTargetGuildWarCheck@@YAHPAVOBJECTSTRUCT@@0@Z ; gObjTargetGuildWarCheck
  00152	83 c4 08	 add	 esp, 8
  00155	83 f8 01	 cmp	 eax, 1
  00158	75 07		 jne	 SHORT $LN7@SkillBlowO

; 2315 : 					{	// 대상이 길전상대이면 공격가능
; 2316 : 						EnableAttack = TRUE;

  0015a	c7 45 e0 01 00
	00 00		 mov	 DWORD PTR _EnableAttack$[ebp], 1
$LN7@SkillBlowO:

; 2317 : 					}
; 2318 : 				}
; 2319 : 
; 2320 : 				if( EnableAttack )

  00161	83 7d e0 00	 cmp	 DWORD PTR _EnableAttack$[ebp], 0
  00165	0f 84 d0 00 00
	00		 je	 $LN4@SkillBlowO

; 2321 : 				{
; 2322 : //					if( gObjCalDistance(lpObj, &gObj[tObjNum]) < 3 )
; 2323 : 					if( gObjCalDistance(lpObj, &gObj[tObjNum]) < 4 )		// 분노의 일격 범위 2 -> 3칸으로 수정 (2004.10.26)

  0016b	69 45 f4 a0 1b
	00 00		 imul	 eax, DWORD PTR _tObjNum$[ebp], 7072
  00172	03 05 00 00 00
	00		 add	 eax, DWORD PTR ?gObj@@3PAVOBJECTSTRUCT@@A ; gObj
  00178	50		 push	 eax
  00179	8b 4d f8	 mov	 ecx, DWORD PTR _lpObj$[ebp]
  0017c	51		 push	 ecx
  0017d	e8 00 00 00 00	 call	 ?gObjCalDistance@@YAHPAVOBJECTSTRUCT@@0@Z ; gObjCalDistance
  00182	83 c4 08	 add	 esp, 8
  00185	83 f8 04	 cmp	 eax, 4
  00188	0f 8d ad 00 00
	00		 jge	 $LN4@SkillBlowO

; 2324 : 					{
; 2325 : 						bAttack = FALSE;

  0018e	c7 45 e4 00 00
	00 00		 mov	 DWORD PTR _bAttack$[ebp], 0

; 2326 : 						if( HitCount > 15 )

  00195	83 7d e8 0f	 cmp	 DWORD PTR _HitCount$[ebp], 15 ; 0000000fH
  00199	7e 07		 jle	 SHORT $LN16@SkillBlowO

; 2327 : 						{
; 2328 : 							bAttack = FALSE;

  0019b	c7 45 e4 00 00
	00 00		 mov	 DWORD PTR _bAttack$[ebp], 0
$LN16@SkillBlowO:

; 2329 : 						}
; 2330 : 						if( HitCount >= 10 )

  001a2	83 7d e8 0a	 cmp	 DWORD PTR _HitCount$[ebp], 10 ; 0000000aH
  001a6	7c 1e		 jl	 SHORT $LN17@SkillBlowO

; 2331 : 						{	
; 2332 : 							if( rand()%2 )

  001a8	e8 00 00 00 00	 call	 _rand
  001ad	25 01 00 00 80	 and	 eax, -2147483647	; 80000001H
  001b2	79 05		 jns	 SHORT $LN26@SkillBlowO
  001b4	48		 dec	 eax
  001b5	83 c8 fe	 or	 eax, -2			; fffffffeH
  001b8	40		 inc	 eax
$LN26@SkillBlowO:
  001b9	85 c0		 test	 eax, eax
  001bb	74 07		 je	 SHORT $LN19@SkillBlowO

; 2333 : 							{
; 2334 : 								bAttack = TRUE;

  001bd	c7 45 e4 01 00
	00 00		 mov	 DWORD PTR _bAttack$[ebp], 1
$LN19@SkillBlowO:

; 2335 : 							}							
; 2336 : 						}

  001c4	eb 07		 jmp	 SHORT $LN18@SkillBlowO
$LN17@SkillBlowO:

; 2337 : 						else 
; 2338 : 						{
; 2339 : 							bAttack = TRUE;

  001c6	c7 45 e4 01 00
	00 00		 mov	 DWORD PTR _bAttack$[ebp], 1
$LN18@SkillBlowO:

; 2340 : 						}
; 2341 : 
; 2342 : 						if((g_GlobalConfig.m_bDisableCombo && gObj[tObjNum].Type == OBJTYPE_CHARACTER && isCombo))

  001cd	83 3d 2c 00 00
	00 00		 cmp	 DWORD PTR ?g_GlobalConfig@@3VCGlobalConfig@@A+44, 0
  001d4	74 22		 je	 SHORT $LN20@SkillBlowO
  001d6	69 45 f4 a0 1b
	00 00		 imul	 eax, DWORD PTR _tObjNum$[ebp], 7072
  001dd	8b 0d 00 00 00
	00		 mov	 ecx, DWORD PTR ?gObj@@3PAVOBJECTSTRUCT@@A ; gObj
  001e3	0f b7 54 01 64	 movzx	 edx, WORD PTR [ecx+eax+100]
  001e8	83 fa 01	 cmp	 edx, 1
  001eb	75 0b		 jne	 SHORT $LN20@SkillBlowO
  001ed	83 7d 24 00	 cmp	 DWORD PTR _isCombo$[ebp], 0
  001f1	74 05		 je	 SHORT $LN20@SkillBlowO

; 2343 : 						{
; 2344 : 							continue;

  001f3	e9 45 fe ff ff	 jmp	 $LN2@SkillBlowO
$LN20@SkillBlowO:

; 2345 : 						}
; 2346 : 
; 2347 : 						if( bAttack )

  001f8	83 7d e4 00	 cmp	 DWORD PTR _bAttack$[ebp], 0
  001fc	74 3d		 je	 SHORT $LN4@SkillBlowO

; 2348 : 						{
; 2349 : 							gObjAddAttackProcMsgSendDelay(lpObj, 

  001fe	8b 45 24	 mov	 eax, DWORD PTR _isCombo$[ebp]
  00201	50		 push	 eax
  00202	8b 4d 0c	 mov	 ecx, DWORD PTR _lpMagic$[ebp]
  00205	0f b6 51 05	 movzx	 edx, BYTE PTR [ecx+5]
  00209	52		 push	 edx
  0020a	68 f4 01 00 00	 push	 500			; 000001f4H
  0020f	8b 45 f4	 mov	 eax, DWORD PTR _tObjNum$[ebp]
  00212	50		 push	 eax
  00213	6a 32		 push	 50			; 00000032H
  00215	8b 4d f8	 mov	 ecx, DWORD PTR _lpObj$[ebp]
  00218	51		 push	 ecx
  00219	e8 00 00 00 00	 call	 ?gObjAddAttackProcMsgSendDelay@@YAXPAVOBJECTSTRUCT@@HHHHH@Z ; gObjAddAttackProcMsgSendDelay
  0021e	83 c4 18	 add	 esp, 24			; 00000018H

; 2350 : 														  MSG_ATTACKPROC_ENTIREMAGIC, 
; 2351 : 														  tObjNum,
; 2352 : 														  500, lpMagic->m_Skill, isCombo);							
; 2353 : 
; 2354 : 							if(isCombo)

  00221	83 7d 24 00	 cmp	 DWORD PTR _isCombo$[ebp], 0
  00225	74 14		 je	 SHORT $LN4@SkillBlowO

; 2355 : 								GCMagicAttackNumberSend(lpObj, AT_SKILL_COMBO, aIndex, 1);

  00227	6a 01		 push	 1
  00229	8b 45 08	 mov	 eax, DWORD PTR _aIndex$[ebp]
  0022c	50		 push	 eax
  0022d	6a 3b		 push	 59			; 0000003bH
  0022f	8b 4d f8	 mov	 ecx, DWORD PTR _lpObj$[ebp]
  00232	51		 push	 ecx
  00233	e8 00 00 00 00	 call	 ?GCMagicAttackNumberSend@@YAXPAVOBJECTSTRUCT@@EHE@Z ; GCMagicAttackNumberSend
  00238	83 c4 10	 add	 esp, 16			; 00000010H
$LN4@SkillBlowO:

; 2356 : 						}
; 2357 : 						//gObjAttack(lpObj, &gObj[tObjNum], lpMagic, 1, 1);
; 2358 : 					}
; 2359 : 				}
; 2360 : 			}
; 2361 : 		}
; 2362 : 		count++;

  0023b	8b 45 f0	 mov	 eax, DWORD PTR _count$[ebp]
  0023e	83 c0 01	 add	 eax, 1
  00241	89 45 f0	 mov	 DWORD PTR _count$[ebp], eax

; 2363 : 		if( count > MAXVIEWPORTOBJECT-1 )

  00244	83 7d f0 4a	 cmp	 DWORD PTR _count$[ebp], 74 ; 0000004aH
  00248	7e 02		 jle	 SHORT $LN23@SkillBlowO

; 2364 : 		{
; 2365 : 			break;

  0024a	eb 05		 jmp	 SHORT $LN1@SkillBlowO
$LN23@SkillBlowO:

; 2366 : 		}
; 2367 : 	}

  0024c	e9 ec fd ff ff	 jmp	 $LN2@SkillBlowO
$LN1@SkillBlowO:

; 2368 : }

  00251	5f		 pop	 edi
  00252	5e		 pop	 esi
  00253	5b		 pop	 ebx
  00254	8b e5		 mov	 esp, ebp
  00256	5d		 pop	 ebp
  00257	c2 20 00	 ret	 32			; 00000020H
?SkillBlowOfFury@CObjUseSkill@@QAEXHPAVCMagicInf@@EEEEHH@Z ENDP ; CObjUseSkill::SkillBlowOfFury
_TEXT	ENDS
; Function compile flags: /Odtp /ZI
; File C:\Mu Online\Mu-GS-Webzen-MC-10093\GameServer\ObjUseSkill.cpp
;	COMDAT ?SkillHellFire2@CObjUseSkill@@QAEHHHPAVCMagicInf@@@Z
_TEXT	SEGMENT
_CallMonIndex$1 = -32					; size = 4
_EnableAttack$ = -28					; size = 4
_DuelIndex$ = -24					; size = 4
_lpTargetObj$ = -20					; size = 4
_count$ = -16						; size = 4
_tObjNum$ = -12						; size = 4
_lpObj$ = -8						; size = 4
_this$ = -4						; size = 4
_aIndex$ = 8						; size = 4
_aTargetIndex$ = 12					; size = 4
_lpMagic$ = 16						; size = 4
?SkillHellFire2@CObjUseSkill@@QAEHHHPAVCMagicInf@@@Z PROC ; CObjUseSkill::SkillHellFire2, COMDAT
; _this$ = ecx

; 3194 : {	

  00000	55		 push	 ebp
  00001	8b ec		 mov	 ebp, esp
  00003	83 ec 60	 sub	 esp, 96			; 00000060H
  00006	53		 push	 ebx
  00007	56		 push	 esi
  00008	57		 push	 edi
  00009	89 4d fc	 mov	 DWORD PTR _this$[ebp], ecx

; 3195 : 	
; 3196 : 	if( aTargetIndex == AT_SKILL_EXPHELL_START )

  0000c	83 7d 0c 3a	 cmp	 DWORD PTR _aTargetIndex$[ebp], 58 ; 0000003aH
  00010	75 15		 jne	 SHORT $LN4@SkillHellF

; 3197 : 		return SkillHellFire2Start(aIndex, lpMagic);		// 시작

  00012	8b 45 10	 mov	 eax, DWORD PTR _lpMagic$[ebp]
  00015	50		 push	 eax
  00016	8b 4d 08	 mov	 ecx, DWORD PTR _aIndex$[ebp]
  00019	51		 push	 ecx
  0001a	8b 4d fc	 mov	 ecx, DWORD PTR _this$[ebp]
  0001d	e8 00 00 00 00	 call	 ?SkillHellFire2Start@CObjUseSkill@@QAEHHPAVCMagicInf@@@Z ; CObjUseSkill::SkillHellFire2Start
  00022	e9 16 02 00 00	 jmp	 $LN1@SkillHellF
$LN4@SkillHellF:

; 3198 : 
; 3199 : 	LPOBJECTSTRUCT lpObj= &gObj[aIndex];

  00027	69 45 08 a0 1b
	00 00		 imul	 eax, DWORD PTR _aIndex$[ebp], 7072
  0002e	03 05 00 00 00
	00		 add	 eax, DWORD PTR ?gObj@@3PAVOBJECTSTRUCT@@A ; gObj
  00034	89 45 f8	 mov	 DWORD PTR _lpObj$[ebp], eax

; 3200 : 
; 3201 : 	if( !lpObj->SkillHellFire2State)

  00037	8b 45 f8	 mov	 eax, DWORD PTR _lpObj$[ebp]
  0003a	0f b6 88 1c 0f
	00 00		 movzx	 ecx, BYTE PTR [eax+3868]
  00041	85 c9		 test	 ecx, ecx
  00043	75 23		 jne	 SHORT $LN5@SkillHellF

; 3202 : 	{
; 3203 : 		LogAddTD("[%s][%s] 헬파이어2 버튼 눌러지지도 않았는데 완료가 되었다", lpObj->AccountID, lpObj->Name);

  00045	8b 45 f8	 mov	 eax, DWORD PTR _lpObj$[ebp]
  00048	83 c0 73	 add	 eax, 115		; 00000073H
  0004b	50		 push	 eax
  0004c	8b 4d f8	 mov	 ecx, DWORD PTR _lpObj$[ebp]
  0004f	83 c1 68	 add	 ecx, 104		; 00000068H
  00052	51		 push	 ecx
  00053	68 00 00 00 00	 push	 OFFSET ??_C@_0DK@KIDJIGH@?$FL?$CFs?$FN?$FL?$CFs?$FN?5?G?o?F?D?$MA?L?$LO?n2?5?$LJ?v?F?$LA?5?$LE?$KN?$LH?$KP?A?v?A@
  00058	ff 15 00 00 00
	00		 call	 DWORD PTR ?LogAddTD@@3P6AXPADZZA ; LogAddTD
  0005e	83 c4 0c	 add	 esp, 12			; 0000000cH

; 3204 : 		return FALSE;

  00061	33 c0		 xor	 eax, eax
  00063	e9 d5 01 00 00	 jmp	 $LN1@SkillHellF
$LN5@SkillHellF:

; 3205 : 	}
; 3206 : 
; 3207 : 	lpObj->SkillHellFire2State = FALSE;

  00068	8b 45 f8	 mov	 eax, DWORD PTR _lpObj$[ebp]
  0006b	c6 80 1c 0f 00
	00 00		 mov	 BYTE PTR [eax+3868], 0

; 3208 : 	int tObjNum;
; 3209 : 	int count = 0;

  00072	c7 45 f0 00 00
	00 00		 mov	 DWORD PTR _count$[ebp], 0

; 3210 : 	
; 3211 : #ifdef MODIFY_HELLBURST_SKILL_TIME_20060522
; 3212 : 	lpObj->SkillHellFire2Time = 0;

  00079	8b 45 f8	 mov	 eax, DWORD PTR _lpObj$[ebp]
  0007c	c7 80 20 0f 00
	00 00 00 00 00	 mov	 DWORD PTR [eax+3872], 0

; 3213 : #endif
; 3214 : 
; 3215 : 	LPOBJECTSTRUCT lpTargetObj =  &gObj[aTargetIndex];

  00086	69 45 0c a0 1b
	00 00		 imul	 eax, DWORD PTR _aTargetIndex$[ebp], 7072
  0008d	03 05 00 00 00
	00		 add	 eax, DWORD PTR ?gObj@@3PAVOBJECTSTRUCT@@A ; gObj
  00093	89 45 ec	 mov	 DWORD PTR _lpTargetObj$[ebp], eax

; 3216 : 
; 3217 : /*
; 3218 : 	int range = 2;
; 3219 : 	if( lpObj->SkillHellFire2Count > 0 )
; 3220 : 	{
; 3221 : 		range += (lpObj->SkillHellFire2Count)/2;
; 3222 : 	}*/
; 3223 : #ifdef DUEL_SYSTEM_20031028
; 3224 : 	int DuelIndex = lpObj->m_iDuelUser;

  00096	8b 45 f8	 mov	 eax, DWORD PTR _lpObj$[ebp]
  00099	8b 88 ec 0c 00
	00		 mov	 ecx, DWORD PTR [eax+3308]
  0009f	89 4d e8	 mov	 DWORD PTR _DuelIndex$[ebp], ecx
$LN2@SkillHellF:

; 3225 : #endif
; 3226 : 
; 3227 : 	BOOL	EnableAttack;
; 3228 : 
; 3229 : 	while(1)

  000a2	b8 01 00 00 00	 mov	 eax, 1
  000a7	85 c0		 test	 eax, eax
  000a9	0f 84 73 01 00
	00		 je	 $LN3@SkillHellF

; 3230 : 	{
; 3231 : 		if( lpObj->VpPlayer2[count].state )

  000af	6b 45 f0 0c	 imul	 eax, DWORD PTR _count$[ebp], 12
  000b3	8b 4d f8	 mov	 ecx, DWORD PTR _lpObj$[ebp]
  000b6	0f be 94 01 e8
	06 00 00	 movsx	 edx, BYTE PTR [ecx+eax+1768]
  000be	85 d2		 test	 edx, edx
  000c0	0f 84 46 01 00
	00		 je	 $LN6@SkillHellF

; 3232 : 		{	
; 3233 : 			tObjNum = lpObj->VpPlayer2[count].number;

  000c6	6b 45 f0 0c	 imul	 eax, DWORD PTR _count$[ebp], 12
  000ca	8b 4d f8	 mov	 ecx, DWORD PTR _lpObj$[ebp]
  000cd	0f bf 94 01 ea
	06 00 00	 movsx	 edx, WORD PTR [ecx+eax+1770]
  000d5	89 55 f4	 mov	 DWORD PTR _tObjNum$[ebp], edx

; 3234 : 
; 3235 : 			if( tObjNum >= 0 )

  000d8	83 7d f4 00	 cmp	 DWORD PTR _tObjNum$[ebp], 0
  000dc	0f 8c 2a 01 00
	00		 jl	 $LN6@SkillHellF

; 3236 : 			{
; 3237 : 				EnableAttack = FALSE;

  000e2	c7 45 e4 00 00
	00 00		 mov	 DWORD PTR _EnableAttack$[ebp], 0

; 3238 : 
; 3239 : 				if( ((lpObj->VpPlayer2[count].type == OBJTYPE_MONSTER) && (gObj[tObjNum].m_RecallMon < 0)) )

  000e9	6b 45 f0 0c	 imul	 eax, DWORD PTR _count$[ebp], 12
  000ed	8b 4d f8	 mov	 ecx, DWORD PTR _lpObj$[ebp]
  000f0	0f b6 94 01 ec
	06 00 00	 movzx	 edx, BYTE PTR [ecx+eax+1772]
  000f8	83 fa 02	 cmp	 edx, 2
  000fb	75 23		 jne	 SHORT $LN8@SkillHellF
  000fd	69 45 f4 a0 1b
	00 00		 imul	 eax, DWORD PTR _tObjNum$[ebp], 7072
  00104	8b 0d 00 00 00
	00		 mov	 ecx, DWORD PTR ?gObj@@3PAVOBJECTSTRUCT@@A ; gObj
  0010a	83 bc 01 a4 02
	00 00 00	 cmp	 DWORD PTR [ecx+eax+676], 0
  00112	7d 0c		 jge	 SHORT $LN8@SkillHellF

; 3240 : 				{	// 대상이 몬스터이고, 소환몹이 아니면 공격가능
; 3241 : 					EnableAttack = TRUE;

  00114	c7 45 e4 01 00
	00 00		 mov	 DWORD PTR _EnableAttack$[ebp], 1

; 3242 : 				}

  0011b	e9 a6 00 00 00	 jmp	 $LN9@SkillHellF
$LN8@SkillHellF:

; 3243 : #ifdef DUEL_SYSTEM_20031028
; 3244 : 				else if( 
; 3245 : #ifdef ADD_PK_LIMIT_FREE_OPTION_20050324
; 3246 : 					aTargetIndex == tObjNum ||

  00120	8b 45 0c	 mov	 eax, DWORD PTR _aTargetIndex$[ebp]
  00123	3b 45 f4	 cmp	 eax, DWORD PTR _tObjNum$[ebp]
  00126	74 08		 je	 SHORT $LN12@SkillHellF
  00128	8b 45 e8	 mov	 eax, DWORD PTR _DuelIndex$[ebp]
  0012b	3b 45 f4	 cmp	 eax, DWORD PTR _tObjNum$[ebp]
  0012e	75 0c		 jne	 SHORT $LN10@SkillHellF
$LN12@SkillHellF:

; 3247 : #endif
; 3248 : 					DuelIndex == tObjNum )
; 3249 : 				{	// 클라이언트에서 대상을 강제 공격했을때와 결투 대상일때는 공격가능
; 3250 : 					EnableAttack = TRUE;

  00130	c7 45 e4 01 00
	00 00		 mov	 DWORD PTR _EnableAttack$[ebp], 1

; 3251 : 				}

  00137	e9 8a 00 00 00	 jmp	 $LN9@SkillHellF
$LN10@SkillHellF:

; 3252 : #endif
; 3253 : #ifdef MODIFY_RANGEATTACK_CHECK_20050113		// 헬버스트는 공성전 중에 사람에게도 적용된다.
; 3254 : 				else if (
; 3255 : 					lpObj->VpPlayer2[count].type != OBJTYPE_NPC &&
; 3256 : 					gObj[tObjNum].MapNumber == MAP_INDEX_CASTLESIEGE &&
; 3257 : 					g_CastleSiege.GetCastleState() == CASTLESIEGE_STATE_STARTSIEGE
; 3258 : 					)
; 3259 : 				{
; 3260 : 					EnableAttack = TRUE;
; 3261 : 				}
; 3262 : #endif					
; 3263 : 				else
; 3264 : 				{	// 길드전 체크
; 3265 : 					int CallMonIndex = gObj[tObjNum].m_Index;

  0013c	69 45 f4 a0 1b
	00 00		 imul	 eax, DWORD PTR _tObjNum$[ebp], 7072
  00143	8b 0d 00 00 00
	00		 mov	 ecx, DWORD PTR ?gObj@@3PAVOBJECTSTRUCT@@A ; gObj
  00149	8b 14 01	 mov	 edx, DWORD PTR [ecx+eax]
  0014c	89 55 e0	 mov	 DWORD PTR _CallMonIndex$1[ebp], edx

; 3266 : 					if( gObj[tObjNum].Type == OBJTYPE_MONSTER )

  0014f	69 45 f4 a0 1b
	00 00		 imul	 eax, DWORD PTR _tObjNum$[ebp], 7072
  00156	8b 0d 00 00 00
	00		 mov	 ecx, DWORD PTR ?gObj@@3PAVOBJECTSTRUCT@@A ; gObj
  0015c	0f b7 54 01 64	 movzx	 edx, WORD PTR [ecx+eax+100]
  00161	83 fa 02	 cmp	 edx, 2
  00164	75 3a		 jne	 SHORT $LN13@SkillHellF

; 3267 : 					{
; 3268 : 						if( gObj[tObjNum].m_RecallMon >= 0 ) 

  00166	69 45 f4 a0 1b
	00 00		 imul	 eax, DWORD PTR _tObjNum$[ebp], 7072
  0016d	8b 0d 00 00 00
	00		 mov	 ecx, DWORD PTR ?gObj@@3PAVOBJECTSTRUCT@@A ; gObj
  00173	83 bc 01 a4 02
	00 00 00	 cmp	 DWORD PTR [ecx+eax+676], 0
  0017b	7c 23		 jl	 SHORT $LN13@SkillHellF

; 3269 : 						{
; 3270 : 							CallMonIndex = gObj[gObj[tObjNum].m_RecallMon].m_Index;

  0017d	69 45 f4 a0 1b
	00 00		 imul	 eax, DWORD PTR _tObjNum$[ebp], 7072
  00184	8b 0d 00 00 00
	00		 mov	 ecx, DWORD PTR ?gObj@@3PAVOBJECTSTRUCT@@A ; gObj
  0018a	69 94 01 a4 02
	00 00 a0 1b 00
	00		 imul	 edx, DWORD PTR [ecx+eax+676], 7072
  00195	a1 00 00 00 00	 mov	 eax, DWORD PTR ?gObj@@3PAVOBJECTSTRUCT@@A ; gObj
  0019a	8b 0c 10	 mov	 ecx, DWORD PTR [eax+edx]
  0019d	89 4d e0	 mov	 DWORD PTR _CallMonIndex$1[ebp], ecx
$LN13@SkillHellF:

; 3271 : 						}
; 3272 : 					}
; 3273 : 					if( gObjTargetGuildWarCheck(lpObj, &gObj[CallMonIndex]) == TRUE )

  001a0	69 45 e0 a0 1b
	00 00		 imul	 eax, DWORD PTR _CallMonIndex$1[ebp], 7072
  001a7	03 05 00 00 00
	00		 add	 eax, DWORD PTR ?gObj@@3PAVOBJECTSTRUCT@@A ; gObj
  001ad	50		 push	 eax
  001ae	8b 4d f8	 mov	 ecx, DWORD PTR _lpObj$[ebp]
  001b1	51		 push	 ecx
  001b2	e8 00 00 00 00	 call	 ?gObjTargetGuildWarCheck@@YAHPAVOBJECTSTRUCT@@0@Z ; gObjTargetGuildWarCheck
  001b7	83 c4 08	 add	 esp, 8
  001ba	83 f8 01	 cmp	 eax, 1
  001bd	75 07		 jne	 SHORT $LN9@SkillHellF

; 3274 : 					{	// 대상이 길전상대이면 공격가능
; 3275 : 						EnableAttack = TRUE;

  001bf	c7 45 e4 01 00
	00 00		 mov	 DWORD PTR _EnableAttack$[ebp], 1
$LN9@SkillHellF:

; 3276 : 					}
; 3277 : 				}
; 3278 : 
; 3279 : 				if( EnableAttack )

  001c6	83 7d e4 00	 cmp	 DWORD PTR _EnableAttack$[ebp], 0
  001ca	74 40		 je	 SHORT $LN6@SkillHellF

; 3280 : 				{				
; 3281 : 					if( gObjCalDistance(lpObj, &gObj[tObjNum]) <= 6 )

  001cc	69 45 f4 a0 1b
	00 00		 imul	 eax, DWORD PTR _tObjNum$[ebp], 7072
  001d3	03 05 00 00 00
	00		 add	 eax, DWORD PTR ?gObj@@3PAVOBJECTSTRUCT@@A ; gObj
  001d9	50		 push	 eax
  001da	8b 4d f8	 mov	 ecx, DWORD PTR _lpObj$[ebp]
  001dd	51		 push	 ecx
  001de	e8 00 00 00 00	 call	 ?gObjCalDistance@@YAHPAVOBJECTSTRUCT@@0@Z ; gObjCalDistance
  001e3	83 c4 08	 add	 esp, 8
  001e6	83 f8 06	 cmp	 eax, 6
  001e9	7f 21		 jg	 SHORT $LN6@SkillHellF

; 3282 : 					{	
; 3283 : 						gObjAddAttackProcMsgSendDelay(lpObj, 

  001eb	6a 00		 push	 0
  001ed	8b 45 10	 mov	 eax, DWORD PTR _lpMagic$[ebp]
  001f0	0f b6 48 05	 movzx	 ecx, BYTE PTR [eax+5]
  001f4	51		 push	 ecx
  001f5	68 58 02 00 00	 push	 600			; 00000258H
  001fa	8b 55 f4	 mov	 edx, DWORD PTR _tObjNum$[ebp]
  001fd	52		 push	 edx
  001fe	6a 32		 push	 50			; 00000032H
  00200	8b 45 f8	 mov	 eax, DWORD PTR _lpObj$[ebp]
  00203	50		 push	 eax
  00204	e8 00 00 00 00	 call	 ?gObjAddAttackProcMsgSendDelay@@YAXPAVOBJECTSTRUCT@@HHHHH@Z ; gObjAddAttackProcMsgSendDelay
  00209	83 c4 18	 add	 esp, 24			; 00000018H
$LN6@SkillHellF:

; 3284 : 													  MSG_ATTACKPROC_ENTIREMAGIC, 
; 3285 : 													  tObjNum,
; 3286 : 													  600, lpMagic->m_Skill);							
; 3287 : 						//gObjAttack(lpObj, &gObj[tObjNum], lpMagic, 1, 1);						
; 3288 : 					}
; 3289 : 				}
; 3290 : 			}
; 3291 : 		}
; 3292 : 		count++;

  0020c	8b 45 f0	 mov	 eax, DWORD PTR _count$[ebp]
  0020f	83 c0 01	 add	 eax, 1
  00212	89 45 f0	 mov	 DWORD PTR _count$[ebp], eax

; 3293 : 		if( count > MAXVIEWPORTOBJECT-1 )

  00215	83 7d f0 4a	 cmp	 DWORD PTR _count$[ebp], 74 ; 0000004aH
  00219	7e 02		 jle	 SHORT $LN18@SkillHellF

; 3294 : 		{
; 3295 : 			break;

  0021b	eb 05		 jmp	 SHORT $LN3@SkillHellF
$LN18@SkillHellF:

; 3296 : 		}
; 3297 : 	}		

  0021d	e9 80 fe ff ff	 jmp	 $LN2@SkillHellF
$LN3@SkillHellF:

; 3298 : 	
; 3299 : 	GCMagicAttackNumberSend(lpObj, AT_SKILL_EXPHELL, lpObj->m_Index, 1);

  00222	6a 01		 push	 1
  00224	8b 45 f8	 mov	 eax, DWORD PTR _lpObj$[ebp]
  00227	8b 08		 mov	 ecx, DWORD PTR [eax]
  00229	51		 push	 ecx
  0022a	6a 28		 push	 40			; 00000028H
  0022c	8b 55 f8	 mov	 edx, DWORD PTR _lpObj$[ebp]
  0022f	52		 push	 edx
  00230	e8 00 00 00 00	 call	 ?GCMagicAttackNumberSend@@YAXPAVOBJECTSTRUCT@@EHE@Z ; GCMagicAttackNumberSend
  00235	83 c4 10	 add	 esp, 16			; 00000010H

; 3300 : 	return TRUE;

  00238	b8 01 00 00 00	 mov	 eax, 1
$LN1@SkillHellF:

; 3301 : }

  0023d	5f		 pop	 edi
  0023e	5e		 pop	 esi
  0023f	5b		 pop	 ebx
  00240	8b e5		 mov	 esp, ebp
  00242	5d		 pop	 ebp
  00243	c2 0c 00	 ret	 12			; 0000000cH
?SkillHellFire2@CObjUseSkill@@QAEHHHPAVCMagicInf@@@Z ENDP ; CObjUseSkill::SkillHellFire2
_TEXT	ENDS
; Function compile flags: /Odtp /ZI
; File C:\Mu Online\Mu-GS-Webzen-MC-10093\GameServer\ObjUseSkill.cpp
;	COMDAT ?SkillHellFire2Start@CObjUseSkill@@QAEHHPAVCMagicInf@@@Z
_TEXT	SEGMENT
_lpObj$ = -8						; size = 4
_this$ = -4						; size = 4
_aIndex$ = 8						; size = 4
_lpMagic$ = 12						; size = 4
?SkillHellFire2Start@CObjUseSkill@@QAEHHPAVCMagicInf@@@Z PROC ; CObjUseSkill::SkillHellFire2Start, COMDAT
; _this$ = ecx

; 3304 : {

  00000	55		 push	 ebp
  00001	8b ec		 mov	 ebp, esp
  00003	83 ec 48	 sub	 esp, 72			; 00000048H
  00006	53		 push	 ebx
  00007	56		 push	 esi
  00008	57		 push	 edi
  00009	89 4d fc	 mov	 DWORD PTR _this$[ebp], ecx

; 3305 : 	LPOBJECTSTRUCT lpObj= &gObj[aIndex];	

  0000c	69 45 08 a0 1b
	00 00		 imul	 eax, DWORD PTR _aIndex$[ebp], 7072
  00013	03 05 00 00 00
	00		 add	 eax, DWORD PTR ?gObj@@3PAVOBJECTSTRUCT@@A ; gObj
  00019	89 45 f8	 mov	 DWORD PTR _lpObj$[ebp], eax

; 3306 : 
; 3307 : 	if( lpObj->SkillHellFire2State )

  0001c	8b 45 f8	 mov	 eax, DWORD PTR _lpObj$[ebp]
  0001f	0f b6 88 1c 0f
	00 00		 movzx	 ecx, BYTE PTR [eax+3868]
  00026	85 c9		 test	 ecx, ecx
  00028	74 20		 je	 SHORT $LN2@SkillHellF

; 3308 : 	{	// 이미 상태가 걸려 있으면 설정을 하지 않는다
; 3309 : 		LogAddTD("[%s][%s] 헬파이어2 버튼 눌러졌는데 또 눌러졌다는거 왔다", lpObj->AccountID, lpObj->Name);

  0002a	8b 45 f8	 mov	 eax, DWORD PTR _lpObj$[ebp]
  0002d	83 c0 73	 add	 eax, 115		; 00000073H
  00030	50		 push	 eax
  00031	8b 4d f8	 mov	 ecx, DWORD PTR _lpObj$[ebp]
  00034	83 c1 68	 add	 ecx, 104		; 00000068H
  00037	51		 push	 ecx
  00038	68 00 00 00 00	 push	 OFFSET ??_C@_0DI@LCJNNJJL@?$FL?$CFs?$FN?$FL?$CFs?$FN?5?G?o?F?D?$MA?L?$LO?n2?5?$LJ?v?F?$LA?5?$LE?$KN?$LH?$KP?A?$LD?$LE@
  0003d	ff 15 00 00 00
	00		 call	 DWORD PTR ?LogAddTD@@3P6AXPADZZA ; LogAddTD
  00043	83 c4 0c	 add	 esp, 12			; 0000000cH

; 3310 : 		return FALSE;

  00046	33 c0		 xor	 eax, eax
  00048	eb 3c		 jmp	 SHORT $LN1@SkillHellF
$LN2@SkillHellF:

; 3311 : 	}
; 3312 : 
; 3313 : #ifdef MODIFY_HELLBURST_SKILL_TIME_20060522
; 3314 : 	lpObj->SkillHellFire2Time = GetTickCount();

  0004a	ff 15 00 00 00
	00		 call	 DWORD PTR __imp__GetTickCount@0
  00050	8b 4d f8	 mov	 ecx, DWORD PTR _lpObj$[ebp]
  00053	89 81 20 0f 00
	00		 mov	 DWORD PTR [ecx+3872], eax

; 3315 : #endif
; 3316 : 	lpObj->SkillHellFire2State = TRUE;

  00059	8b 45 f8	 mov	 eax, DWORD PTR _lpObj$[ebp]
  0005c	c6 80 1c 0f 00
	00 01		 mov	 BYTE PTR [eax+3868], 1

; 3317 : 	lpObj->SkillHellFire2Count = 0;

  00063	8b 45 f8	 mov	 eax, DWORD PTR _lpObj$[ebp]
  00066	c6 80 1d 0f 00
	00 00		 mov	 BYTE PTR [eax+3869], 0

; 3318 : 
; 3319 : 	GCMagicAttackNumberSend(lpObj, AT_SKILL_EXPHELL_START, aIndex, 1);	

  0006d	6a 01		 push	 1
  0006f	8b 45 08	 mov	 eax, DWORD PTR _aIndex$[ebp]
  00072	50		 push	 eax
  00073	6a 3a		 push	 58			; 0000003aH
  00075	8b 4d f8	 mov	 ecx, DWORD PTR _lpObj$[ebp]
  00078	51		 push	 ecx
  00079	e8 00 00 00 00	 call	 ?GCMagicAttackNumberSend@@YAXPAVOBJECTSTRUCT@@EHE@Z ; GCMagicAttackNumberSend
  0007e	83 c4 10	 add	 esp, 16			; 00000010H

; 3320 : 	return TRUE;

  00081	b8 01 00 00 00	 mov	 eax, 1
$LN1@SkillHellF:

; 3321 : }

  00086	5f		 pop	 edi
  00087	5e		 pop	 esi
  00088	5b		 pop	 ebx
  00089	8b e5		 mov	 esp, ebp
  0008b	5d		 pop	 ebp
  0008c	c2 08 00	 ret	 8
?SkillHellFire2Start@CObjUseSkill@@QAEHHPAVCMagicInf@@@Z ENDP ; CObjUseSkill::SkillHellFire2Start
_TEXT	ENDS
; Function compile flags: /Odtp /ZI
; File C:\Mu Online\Mu-GS-Webzen-MC-10093\GameServer\ObjUseSkill.cpp
;	COMDAT ?SkillSuddenIce@CObjUseSkill@@QAEHHPAVCMagicInf@@EEEEH@Z
_TEXT	SEGMENT
_delay$1 = -48						; size = 4
_CallMonIndex$2 = -44					; size = 4
_EnableAttack$ = -40					; size = 4
_DuelIndex$ = -36					; size = 4
_lpTargetObj$ = -32					; size = 4
_bAttack$ = -28						; size = 4
_HitCount$ = -24					; size = 4
_FirstHit$ = -20					; size = 4
_count$ = -16						; size = 4
_tObjNum$ = -12						; size = 4
_lpObj$ = -8						; size = 4
_this$ = -4						; size = 4
_aIndex$ = 8						; size = 4
_lpMagic$ = 12						; size = 4
_x$ = 16						; size = 1
_y$ = 20						; size = 1
_dir$ = 24						; size = 1
_TargetPos$ = 28					; size = 1
_aTargetIndex$ = 32					; size = 4
?SkillSuddenIce@CObjUseSkill@@QAEHHPAVCMagicInf@@EEEEH@Z PROC ; CObjUseSkill::SkillSuddenIce, COMDAT
; _this$ = ecx

; 3083 : {

  00000	55		 push	 ebp
  00001	8b ec		 mov	 ebp, esp
  00003	83 ec 70	 sub	 esp, 112		; 00000070H
  00006	53		 push	 ebx
  00007	56		 push	 esi
  00008	57		 push	 edi
  00009	89 4d fc	 mov	 DWORD PTR _this$[ebp], ecx

; 3084 : 	LPOBJECTSTRUCT lpObj= &gObj[aIndex];

  0000c	69 45 08 a0 1b
	00 00		 imul	 eax, DWORD PTR _aIndex$[ebp], 7072
  00013	03 05 00 00 00
	00		 add	 eax, DWORD PTR ?gObj@@3PAVOBJECTSTRUCT@@A ; gObj
  00019	89 45 f8	 mov	 DWORD PTR _lpObj$[ebp], eax

; 3085 : 
; 3086 : 	int tObjNum;
; 3087 : 	int count = 0;

  0001c	c7 45 f0 00 00
	00 00		 mov	 DWORD PTR _count$[ebp], 0

; 3088 : 	int FirstHit = 0;

  00023	c7 45 ec 00 00
	00 00		 mov	 DWORD PTR _FirstHit$[ebp], 0

; 3089 : 	int	HitCount = 0;

  0002a	c7 45 e8 00 00
	00 00		 mov	 DWORD PTR _HitCount$[ebp], 0

; 3090 : 	BOOL bAttack;
; 3091 : 
; 3092 : 	LPOBJECTSTRUCT lpTargetObj =  &gObj[aTargetIndex];

  00031	69 45 20 a0 1b
	00 00		 imul	 eax, DWORD PTR _aTargetIndex$[ebp], 7072
  00038	03 05 00 00 00
	00		 add	 eax, DWORD PTR ?gObj@@3PAVOBJECTSTRUCT@@A ; gObj
  0003e	89 45 e0	 mov	 DWORD PTR _lpTargetObj$[ebp], eax

; 3093 : 
; 3094 : #ifdef DUEL_SYSTEM_20031028
; 3095 : 	int DuelIndex = lpObj->m_iDuelUser;

  00041	8b 45 f8	 mov	 eax, DWORD PTR _lpObj$[ebp]
  00044	8b 88 ec 0c 00
	00		 mov	 ecx, DWORD PTR [eax+3308]
  0004a	89 4d dc	 mov	 DWORD PTR _DuelIndex$[ebp], ecx
$LN2@SkillSudde:

; 3096 : #endif
; 3097 : 
; 3098 : 	BOOL	EnableAttack;
; 3099 : 
; 3100 : 	while(1)

  0004d	b8 01 00 00 00	 mov	 eax, 1
  00052	85 c0		 test	 eax, eax
  00054	0f 84 f5 01 00
	00		 je	 $LN3@SkillSudde

; 3101 : 	{
; 3102 : 		if( lpObj->VpPlayer2[count].state )

  0005a	6b 45 f0 0c	 imul	 eax, DWORD PTR _count$[ebp], 12
  0005e	8b 4d f8	 mov	 ecx, DWORD PTR _lpObj$[ebp]
  00061	0f be 94 01 e8
	06 00 00	 movsx	 edx, BYTE PTR [ecx+eax+1768]
  00069	85 d2		 test	 edx, edx
  0006b	0f 84 c8 01 00
	00		 je	 $LN4@SkillSudde

; 3103 : 		{
; 3104 : 			tObjNum = lpObj->VpPlayer2[count].number;

  00071	6b 45 f0 0c	 imul	 eax, DWORD PTR _count$[ebp], 12
  00075	8b 4d f8	 mov	 ecx, DWORD PTR _lpObj$[ebp]
  00078	0f bf 94 01 ea
	06 00 00	 movsx	 edx, WORD PTR [ecx+eax+1770]
  00080	89 55 f4	 mov	 DWORD PTR _tObjNum$[ebp], edx

; 3105 : 
; 3106 : 			if( tObjNum >= 0 )

  00083	83 7d f4 00	 cmp	 DWORD PTR _tObjNum$[ebp], 0
  00087	0f 8c ac 01 00
	00		 jl	 $LN4@SkillSudde

; 3107 : 			{
; 3108 : 				EnableAttack = FALSE;

  0008d	c7 45 d8 00 00
	00 00		 mov	 DWORD PTR _EnableAttack$[ebp], 0

; 3109 : 
; 3110 : 				if( ((lpObj->VpPlayer2[count].type == OBJTYPE_MONSTER) && (gObj[tObjNum].m_RecallMon < 0)) )

  00094	6b 45 f0 0c	 imul	 eax, DWORD PTR _count$[ebp], 12
  00098	8b 4d f8	 mov	 ecx, DWORD PTR _lpObj$[ebp]
  0009b	0f b6 94 01 ec
	06 00 00	 movzx	 edx, BYTE PTR [ecx+eax+1772]
  000a3	83 fa 02	 cmp	 edx, 2
  000a6	75 23		 jne	 SHORT $LN6@SkillSudde
  000a8	69 45 f4 a0 1b
	00 00		 imul	 eax, DWORD PTR _tObjNum$[ebp], 7072
  000af	8b 0d 00 00 00
	00		 mov	 ecx, DWORD PTR ?gObj@@3PAVOBJECTSTRUCT@@A ; gObj
  000b5	83 bc 01 a4 02
	00 00 00	 cmp	 DWORD PTR [ecx+eax+676], 0
  000bd	7d 0c		 jge	 SHORT $LN6@SkillSudde

; 3111 : 				{	// 대상이 몬스터이고, 소환몹이 아니면 공격가능
; 3112 : 					EnableAttack = TRUE;

  000bf	c7 45 d8 01 00
	00 00		 mov	 DWORD PTR _EnableAttack$[ebp], 1

; 3113 : 				}

  000c6	e9 a6 00 00 00	 jmp	 $LN7@SkillSudde
$LN6@SkillSudde:

; 3114 : 				else if( tObjNum == aTargetIndex 
; 3115 : 	#ifdef DUEL_SYSTEM_20031028
; 3116 : 						 || DuelIndex == tObjNum

  000cb	8b 45 f4	 mov	 eax, DWORD PTR _tObjNum$[ebp]
  000ce	3b 45 20	 cmp	 eax, DWORD PTR _aTargetIndex$[ebp]
  000d1	74 08		 je	 SHORT $LN10@SkillSudde
  000d3	8b 45 dc	 mov	 eax, DWORD PTR _DuelIndex$[ebp]
  000d6	3b 45 f4	 cmp	 eax, DWORD PTR _tObjNum$[ebp]
  000d9	75 0c		 jne	 SHORT $LN8@SkillSudde
$LN10@SkillSudde:

; 3117 : 	#endif
; 3118 : 						 )
; 3119 : 				{	// 클라이언트에서 대상을 강제 공격했을때와 결투 대상일때는 공격가능
; 3120 : 					EnableAttack = TRUE;

  000db	c7 45 d8 01 00
	00 00		 mov	 DWORD PTR _EnableAttack$[ebp], 1

; 3121 : 				}

  000e2	e9 8a 00 00 00	 jmp	 $LN7@SkillSudde
$LN8@SkillSudde:

; 3122 : #ifdef MODIFY_RANGEATTACK_CHECK_20050113		// 서든아이스는 공성전 중에 사람에게도 적용된다.
; 3123 : 				else if (
; 3124 : 					lpObj->VpPlayer2[count].type != OBJTYPE_NPC &&
; 3125 : 					gObj[tObjNum].MapNumber == MAP_INDEX_CASTLESIEGE &&
; 3126 : 					g_CastleSiege.GetCastleState() == CASTLESIEGE_STATE_STARTSIEGE
; 3127 : 					)
; 3128 : 				{
; 3129 : 					EnableAttack = TRUE;
; 3130 : 				}
; 3131 : #endif					
; 3132 : 				else
; 3133 : 				{	// 길드전 체크
; 3134 : 					int CallMonIndex = gObj[tObjNum].m_Index;

  000e7	69 45 f4 a0 1b
	00 00		 imul	 eax, DWORD PTR _tObjNum$[ebp], 7072
  000ee	8b 0d 00 00 00
	00		 mov	 ecx, DWORD PTR ?gObj@@3PAVOBJECTSTRUCT@@A ; gObj
  000f4	8b 14 01	 mov	 edx, DWORD PTR [ecx+eax]
  000f7	89 55 d4	 mov	 DWORD PTR _CallMonIndex$2[ebp], edx

; 3135 : 					if( gObj[tObjNum].Type == OBJTYPE_MONSTER )

  000fa	69 45 f4 a0 1b
	00 00		 imul	 eax, DWORD PTR _tObjNum$[ebp], 7072
  00101	8b 0d 00 00 00
	00		 mov	 ecx, DWORD PTR ?gObj@@3PAVOBJECTSTRUCT@@A ; gObj
  00107	0f b7 54 01 64	 movzx	 edx, WORD PTR [ecx+eax+100]
  0010c	83 fa 02	 cmp	 edx, 2
  0010f	75 3a		 jne	 SHORT $LN11@SkillSudde

; 3136 : 					{
; 3137 : 						if( gObj[tObjNum].m_RecallMon >= 0 ) 

  00111	69 45 f4 a0 1b
	00 00		 imul	 eax, DWORD PTR _tObjNum$[ebp], 7072
  00118	8b 0d 00 00 00
	00		 mov	 ecx, DWORD PTR ?gObj@@3PAVOBJECTSTRUCT@@A ; gObj
  0011e	83 bc 01 a4 02
	00 00 00	 cmp	 DWORD PTR [ecx+eax+676], 0
  00126	7c 23		 jl	 SHORT $LN11@SkillSudde

; 3138 : 						{
; 3139 : 							CallMonIndex = gObj[gObj[tObjNum].m_RecallMon].m_Index;

  00128	69 45 f4 a0 1b
	00 00		 imul	 eax, DWORD PTR _tObjNum$[ebp], 7072
  0012f	8b 0d 00 00 00
	00		 mov	 ecx, DWORD PTR ?gObj@@3PAVOBJECTSTRUCT@@A ; gObj
  00135	69 94 01 a4 02
	00 00 a0 1b 00
	00		 imul	 edx, DWORD PTR [ecx+eax+676], 7072
  00140	a1 00 00 00 00	 mov	 eax, DWORD PTR ?gObj@@3PAVOBJECTSTRUCT@@A ; gObj
  00145	8b 0c 10	 mov	 ecx, DWORD PTR [eax+edx]
  00148	89 4d d4	 mov	 DWORD PTR _CallMonIndex$2[ebp], ecx
$LN11@SkillSudde:

; 3140 : 						}
; 3141 : 					}
; 3142 : 					if( gObjTargetGuildWarCheck(lpObj, &gObj[CallMonIndex]) == TRUE )

  0014b	69 45 d4 a0 1b
	00 00		 imul	 eax, DWORD PTR _CallMonIndex$2[ebp], 7072
  00152	03 05 00 00 00
	00		 add	 eax, DWORD PTR ?gObj@@3PAVOBJECTSTRUCT@@A ; gObj
  00158	50		 push	 eax
  00159	8b 4d f8	 mov	 ecx, DWORD PTR _lpObj$[ebp]
  0015c	51		 push	 ecx
  0015d	e8 00 00 00 00	 call	 ?gObjTargetGuildWarCheck@@YAHPAVOBJECTSTRUCT@@0@Z ; gObjTargetGuildWarCheck
  00162	83 c4 08	 add	 esp, 8
  00165	83 f8 01	 cmp	 eax, 1
  00168	75 07		 jne	 SHORT $LN7@SkillSudde

; 3143 : 					{	// 대상이 길전상대이면 공격가능
; 3144 : 						EnableAttack = TRUE;

  0016a	c7 45 d8 01 00
	00 00		 mov	 DWORD PTR _EnableAttack$[ebp], 1
$LN7@SkillSudde:

; 3145 : 					}
; 3146 : 				}
; 3147 : 
; 3148 : 				if( EnableAttack )

  00171	83 7d d8 00	 cmp	 DWORD PTR _EnableAttack$[ebp], 0
  00175	0f 84 be 00 00
	00		 je	 $LN4@SkillSudde

; 3149 : 				{	
; 3150 : 					if( CalDistance(x, y, gObj[tObjNum].X, gObj[tObjNum].Y) < 4 )

  0017b	69 45 f4 a0 1b
	00 00		 imul	 eax, DWORD PTR _tObjNum$[ebp], 7072
  00182	8b 0d 00 00 00
	00		 mov	 ecx, DWORD PTR ?gObj@@3PAVOBJECTSTRUCT@@A ; gObj
  00188	0f bf 94 01 06
	01 00 00	 movsx	 edx, WORD PTR [ecx+eax+262]
  00190	52		 push	 edx
  00191	69 45 f4 a0 1b
	00 00		 imul	 eax, DWORD PTR _tObjNum$[ebp], 7072
  00198	8b 0d 00 00 00
	00		 mov	 ecx, DWORD PTR ?gObj@@3PAVOBJECTSTRUCT@@A ; gObj
  0019e	0f bf 94 01 04
	01 00 00	 movsx	 edx, WORD PTR [ecx+eax+260]
  001a6	52		 push	 edx
  001a7	0f b6 45 14	 movzx	 eax, BYTE PTR _y$[ebp]
  001ab	50		 push	 eax
  001ac	0f b6 4d 10	 movzx	 ecx, BYTE PTR _x$[ebp]
  001b0	51		 push	 ecx
  001b1	8b 4d fc	 mov	 ecx, DWORD PTR _this$[ebp]
  001b4	e8 00 00 00 00	 call	 ?CalDistance@CObjUseSkill@@QAEHHHHH@Z ; CObjUseSkill::CalDistance
  001b9	83 f8 04	 cmp	 eax, 4
  001bc	7d 7b		 jge	 SHORT $LN4@SkillSudde

; 3151 : 					{	
; 3152 : 						bAttack = FALSE;

  001be	c7 45 e4 00 00
	00 00		 mov	 DWORD PTR _bAttack$[ebp], 0

; 3153 : 						if( HitCount > 10 )

  001c5	83 7d e8 0a	 cmp	 DWORD PTR _HitCount$[ebp], 10 ; 0000000aH
  001c9	7e 07		 jle	 SHORT $LN16@SkillSudde

; 3154 : 						{
; 3155 : 							bAttack = FALSE;

  001cb	c7 45 e4 00 00
	00 00		 mov	 DWORD PTR _bAttack$[ebp], 0
$LN16@SkillSudde:

; 3156 : 						}
; 3157 : 						if( HitCount >= 5 )

  001d2	83 7d e8 05	 cmp	 DWORD PTR _HitCount$[ebp], 5
  001d6	7c 1e		 jl	 SHORT $LN17@SkillSudde

; 3158 : 						{	
; 3159 : 							if( rand()%2 )

  001d8	e8 00 00 00 00	 call	 _rand
  001dd	25 01 00 00 80	 and	 eax, -2147483647	; 80000001H
  001e2	79 05		 jns	 SHORT $LN23@SkillSudde
  001e4	48		 dec	 eax
  001e5	83 c8 fe	 or	 eax, -2			; fffffffeH
  001e8	40		 inc	 eax
$LN23@SkillSudde:
  001e9	85 c0		 test	 eax, eax
  001eb	74 07		 je	 SHORT $LN19@SkillSudde

; 3160 : 							{
; 3161 : 								bAttack = TRUE;

  001ed	c7 45 e4 01 00
	00 00		 mov	 DWORD PTR _bAttack$[ebp], 1
$LN19@SkillSudde:

; 3162 : 							}							
; 3163 : 						}

  001f4	eb 07		 jmp	 SHORT $LN18@SkillSudde
$LN17@SkillSudde:

; 3164 : 						else 
; 3165 : 						{
; 3166 : 							bAttack = TRUE;

  001f6	c7 45 e4 01 00
	00 00		 mov	 DWORD PTR _bAttack$[ebp], 1
$LN18@SkillSudde:

; 3167 : 						}
; 3168 : 						
; 3169 : 						if( bAttack )

  001fd	83 7d e4 00	 cmp	 DWORD PTR _bAttack$[ebp], 0
  00201	74 36		 je	 SHORT $LN4@SkillSudde

; 3170 : 						{
; 3171 : 							int delay = rand()%500;

  00203	e8 00 00 00 00	 call	 _rand
  00208	99		 cdq
  00209	b9 f4 01 00 00	 mov	 ecx, 500		; 000001f4H
  0020e	f7 f9		 idiv	 ecx
  00210	89 55 d0	 mov	 DWORD PTR _delay$1[ebp], edx

; 3172 : 							//gObjAddAttackProcMsgSendDelay(lpObj, 
; 3173 : 							//							  MSG_ATTACKPROC_ENTIREMAGIC, 
; 3174 : 							//							  tObjNum,
; 3175 : 							//							  delay, lpMagic->m_Skill);
; 3176 : 							gObjAttack(lpObj, &gObj[tObjNum], lpMagic, 1, 1);						

  00213	6a 00		 push	 0
  00215	6a 00		 push	 0
  00217	6a 01		 push	 1
  00219	6a 01		 push	 1
  0021b	8b 45 0c	 mov	 eax, DWORD PTR _lpMagic$[ebp]
  0021e	50		 push	 eax
  0021f	69 4d f4 a0 1b
	00 00		 imul	 ecx, DWORD PTR _tObjNum$[ebp], 7072
  00226	03 0d 00 00 00
	00		 add	 ecx, DWORD PTR ?gObj@@3PAVOBJECTSTRUCT@@A ; gObj
  0022c	51		 push	 ecx
  0022d	8b 55 f8	 mov	 edx, DWORD PTR _lpObj$[ebp]
  00230	52		 push	 edx
  00231	e8 00 00 00 00	 call	 ?gObjAttack@@YAHPAVOBJECTSTRUCT@@0PAVCMagicInf@@HEHH@Z ; gObjAttack
  00236	83 c4 1c	 add	 esp, 28			; 0000001cH
$LN4@SkillSudde:

; 3177 : 						}						
; 3178 : 					}
; 3179 : 				}
; 3180 : 			}
; 3181 : 		}
; 3182 : 		count++;

  00239	8b 45 f0	 mov	 eax, DWORD PTR _count$[ebp]
  0023c	83 c0 01	 add	 eax, 1
  0023f	89 45 f0	 mov	 DWORD PTR _count$[ebp], eax

; 3183 : 		if( count > MAXVIEWPORTOBJECT-1 )

  00242	83 7d f0 4a	 cmp	 DWORD PTR _count$[ebp], 74 ; 0000004aH
  00246	7e 02		 jle	 SHORT $LN21@SkillSudde

; 3184 : 		{
; 3185 : 			break;

  00248	eb 05		 jmp	 SHORT $LN3@SkillSudde
$LN21@SkillSudde:

; 3186 : 		}
; 3187 : 	}

  0024a	e9 fe fd ff ff	 jmp	 $LN2@SkillSudde
$LN3@SkillSudde:

; 3188 : 
; 3189 : 	//	GCMagicAttackNumberSend(lpObj, AT_SKILL_EXPICE, aTargetIndex, 1);
; 3190 : 	return TRUE;

  0024f	b8 01 00 00 00	 mov	 eax, 1

; 3191 : }

  00254	5f		 pop	 edi
  00255	5e		 pop	 esi
  00256	5b		 pop	 ebx
  00257	8b e5		 mov	 esp, ebp
  00259	5d		 pop	 ebp
  0025a	c2 1c 00	 ret	 28			; 0000001cH
?SkillSuddenIce@CObjUseSkill@@QAEHHPAVCMagicInf@@EEEEH@Z ENDP ; CObjUseSkill::SkillSuddenIce
_TEXT	ENDS
; Function compile flags: /Odtp /ZI
; File C:\Mu Online\Mu-GS-Webzen-MC-10093\GameServer\ObjUseSkill.cpp
;	COMDAT ?SkillDeathPoison@CObjUseSkill@@QAEHHPAVCMagicInf@@EEEEH@Z
_TEXT	SEGMENT
_delay$1 = -48						; size = 4
_CallMonIndex$2 = -44					; size = 4
_lpTargetObj$ = -40					; size = 4
_EnableAttack$ = -36					; size = 4
_DuelIndex$ = -32					; size = 4
_bAttack$ = -28						; size = 4
_HitCount$ = -24					; size = 4
_FirstHit$ = -20					; size = 4
_count$ = -16						; size = 4
_tObjNum$ = -12						; size = 4
_lpObj$ = -8						; size = 4
_this$ = -4						; size = 4
_aIndex$ = 8						; size = 4
_lpMagic$ = 12						; size = 4
_x$ = 16						; size = 1
_y$ = 20						; size = 1
_dir$ = 24						; size = 1
_TargetPos$ = 28					; size = 1
_aTargetIndex$ = 32					; size = 4
?SkillDeathPoison@CObjUseSkill@@QAEHHPAVCMagicInf@@EEEEH@Z PROC ; CObjUseSkill::SkillDeathPoison, COMDAT
; _this$ = ecx

; 2973 : {

  00000	55		 push	 ebp
  00001	8b ec		 mov	 ebp, esp
  00003	83 ec 70	 sub	 esp, 112		; 00000070H
  00006	53		 push	 ebx
  00007	56		 push	 esi
  00008	57		 push	 edi
  00009	89 4d fc	 mov	 DWORD PTR _this$[ebp], ecx

; 2974 : 	LPOBJECTSTRUCT lpObj= &gObj[aIndex];

  0000c	69 45 08 a0 1b
	00 00		 imul	 eax, DWORD PTR _aIndex$[ebp], 7072
  00013	03 05 00 00 00
	00		 add	 eax, DWORD PTR ?gObj@@3PAVOBJECTSTRUCT@@A ; gObj
  00019	89 45 f8	 mov	 DWORD PTR _lpObj$[ebp], eax

; 2975 : 
; 2976 : 	int tObjNum;
; 2977 : 	int count = 0;

  0001c	c7 45 f0 00 00
	00 00		 mov	 DWORD PTR _count$[ebp], 0

; 2978 : 
; 2979 : 	int FirstHit = 0;

  00023	c7 45 ec 00 00
	00 00		 mov	 DWORD PTR _FirstHit$[ebp], 0

; 2980 : 	int	HitCount = 0;

  0002a	c7 45 e8 00 00
	00 00		 mov	 DWORD PTR _HitCount$[ebp], 0

; 2981 : 	BOOL bAttack;
; 2982 : 
; 2983 : #ifdef DUEL_SYSTEM_20031028
; 2984 : 	int DuelIndex = lpObj->m_iDuelUser;

  00031	8b 45 f8	 mov	 eax, DWORD PTR _lpObj$[ebp]
  00034	8b 88 ec 0c 00
	00		 mov	 ecx, DWORD PTR [eax+3308]
  0003a	89 4d e0	 mov	 DWORD PTR _DuelIndex$[ebp], ecx

; 2985 : #endif
; 2986 : 
; 2987 : 	BOOL	EnableAttack;
; 2988 : 
; 2989 : 	LPOBJECTSTRUCT lpTargetObj =  &gObj[aTargetIndex];

  0003d	69 45 20 a0 1b
	00 00		 imul	 eax, DWORD PTR _aTargetIndex$[ebp], 7072
  00044	03 05 00 00 00
	00		 add	 eax, DWORD PTR ?gObj@@3PAVOBJECTSTRUCT@@A ; gObj
  0004a	89 45 d8	 mov	 DWORD PTR _lpTargetObj$[ebp], eax
$LN2@SkillDeath:

; 2990 : 
; 2991 : 	while(1)

  0004d	b8 01 00 00 00	 mov	 eax, 1
  00052	85 c0		 test	 eax, eax
  00054	0f 84 ef 01 00
	00		 je	 $LN3@SkillDeath

; 2992 : 	{
; 2993 : 		if( lpObj->VpPlayer2[count].state )

  0005a	6b 45 f0 0c	 imul	 eax, DWORD PTR _count$[ebp], 12
  0005e	8b 4d f8	 mov	 ecx, DWORD PTR _lpObj$[ebp]
  00061	0f be 94 01 e8
	06 00 00	 movsx	 edx, BYTE PTR [ecx+eax+1768]
  00069	85 d2		 test	 edx, edx
  0006b	0f 84 c2 01 00
	00		 je	 $LN4@SkillDeath

; 2994 : 		{
; 2995 : 			tObjNum = lpObj->VpPlayer2[count].number;

  00071	6b 45 f0 0c	 imul	 eax, DWORD PTR _count$[ebp], 12
  00075	8b 4d f8	 mov	 ecx, DWORD PTR _lpObj$[ebp]
  00078	0f bf 94 01 ea
	06 00 00	 movsx	 edx, WORD PTR [ecx+eax+1770]
  00080	89 55 f4	 mov	 DWORD PTR _tObjNum$[ebp], edx

; 2996 : 			if( tObjNum >= 0 )

  00083	83 7d f4 00	 cmp	 DWORD PTR _tObjNum$[ebp], 0
  00087	0f 8c a6 01 00
	00		 jl	 $LN4@SkillDeath

; 2997 : 			{
; 2998 : 				EnableAttack = FALSE;

  0008d	c7 45 dc 00 00
	00 00		 mov	 DWORD PTR _EnableAttack$[ebp], 0

; 2999 : 
; 3000 : 				if( ((lpObj->VpPlayer2[count].type == OBJTYPE_MONSTER) && (gObj[tObjNum].m_RecallMon < 0)) )

  00094	6b 45 f0 0c	 imul	 eax, DWORD PTR _count$[ebp], 12
  00098	8b 4d f8	 mov	 ecx, DWORD PTR _lpObj$[ebp]
  0009b	0f b6 94 01 ec
	06 00 00	 movzx	 edx, BYTE PTR [ecx+eax+1772]
  000a3	83 fa 02	 cmp	 edx, 2
  000a6	75 23		 jne	 SHORT $LN6@SkillDeath
  000a8	69 45 f4 a0 1b
	00 00		 imul	 eax, DWORD PTR _tObjNum$[ebp], 7072
  000af	8b 0d 00 00 00
	00		 mov	 ecx, DWORD PTR ?gObj@@3PAVOBJECTSTRUCT@@A ; gObj
  000b5	83 bc 01 a4 02
	00 00 00	 cmp	 DWORD PTR [ecx+eax+676], 0
  000bd	7d 0c		 jge	 SHORT $LN6@SkillDeath

; 3001 : 				{	// 대상이 몬스터이고, 소환몹이 아니면 공격가능
; 3002 : 					EnableAttack = TRUE;

  000bf	c7 45 dc 01 00
	00 00		 mov	 DWORD PTR _EnableAttack$[ebp], 1

; 3003 : 				}

  000c6	e9 a6 00 00 00	 jmp	 $LN7@SkillDeath
$LN6@SkillDeath:

; 3004 : 				else if( tObjNum == aTargetIndex 
; 3005 : 	#ifdef DUEL_SYSTEM_20031028
; 3006 : 						 || DuelIndex == tObjNum

  000cb	8b 45 f4	 mov	 eax, DWORD PTR _tObjNum$[ebp]
  000ce	3b 45 20	 cmp	 eax, DWORD PTR _aTargetIndex$[ebp]
  000d1	74 08		 je	 SHORT $LN10@SkillDeath
  000d3	8b 45 e0	 mov	 eax, DWORD PTR _DuelIndex$[ebp]
  000d6	3b 45 f4	 cmp	 eax, DWORD PTR _tObjNum$[ebp]
  000d9	75 0c		 jne	 SHORT $LN8@SkillDeath
$LN10@SkillDeath:

; 3007 : 	#endif
; 3008 : 						 )
; 3009 : 				{	// 클라이언트에서 대상을 강제 공격했을때와 결투 대상일때는 공격가능
; 3010 : 					EnableAttack = TRUE;

  000db	c7 45 dc 01 00
	00 00		 mov	 DWORD PTR _EnableAttack$[ebp], 1

; 3011 : 				}

  000e2	e9 8a 00 00 00	 jmp	 $LN7@SkillDeath
$LN8@SkillDeath:

; 3012 : #ifdef MODIFY_RANGEATTACK_CHECK_20050113		// 데쓰포이즌은 공성전 중에 사람에게도 적용된다.
; 3013 : 				else if (
; 3014 : 					lpObj->VpPlayer2[count].type != OBJTYPE_NPC &&
; 3015 : 					gObj[tObjNum].MapNumber == MAP_INDEX_CASTLESIEGE &&
; 3016 : 					g_CastleSiege.GetCastleState() == CASTLESIEGE_STATE_STARTSIEGE
; 3017 : 					)
; 3018 : 				{
; 3019 : 					EnableAttack = TRUE;
; 3020 : 				}
; 3021 : #endif					
; 3022 : 				else
; 3023 : 				{	// 길드전 체크
; 3024 : 					int CallMonIndex = gObj[tObjNum].m_Index;

  000e7	69 45 f4 a0 1b
	00 00		 imul	 eax, DWORD PTR _tObjNum$[ebp], 7072
  000ee	8b 0d 00 00 00
	00		 mov	 ecx, DWORD PTR ?gObj@@3PAVOBJECTSTRUCT@@A ; gObj
  000f4	8b 14 01	 mov	 edx, DWORD PTR [ecx+eax]
  000f7	89 55 d4	 mov	 DWORD PTR _CallMonIndex$2[ebp], edx

; 3025 : 					if( gObj[tObjNum].Type == OBJTYPE_MONSTER )

  000fa	69 45 f4 a0 1b
	00 00		 imul	 eax, DWORD PTR _tObjNum$[ebp], 7072
  00101	8b 0d 00 00 00
	00		 mov	 ecx, DWORD PTR ?gObj@@3PAVOBJECTSTRUCT@@A ; gObj
  00107	0f b7 54 01 64	 movzx	 edx, WORD PTR [ecx+eax+100]
  0010c	83 fa 02	 cmp	 edx, 2
  0010f	75 3a		 jne	 SHORT $LN11@SkillDeath

; 3026 : 					{
; 3027 : 						if( gObj[tObjNum].m_RecallMon >= 0 ) 

  00111	69 45 f4 a0 1b
	00 00		 imul	 eax, DWORD PTR _tObjNum$[ebp], 7072
  00118	8b 0d 00 00 00
	00		 mov	 ecx, DWORD PTR ?gObj@@3PAVOBJECTSTRUCT@@A ; gObj
  0011e	83 bc 01 a4 02
	00 00 00	 cmp	 DWORD PTR [ecx+eax+676], 0
  00126	7c 23		 jl	 SHORT $LN11@SkillDeath

; 3028 : 						{
; 3029 : 							CallMonIndex = gObj[gObj[tObjNum].m_RecallMon].m_Index;

  00128	69 45 f4 a0 1b
	00 00		 imul	 eax, DWORD PTR _tObjNum$[ebp], 7072
  0012f	8b 0d 00 00 00
	00		 mov	 ecx, DWORD PTR ?gObj@@3PAVOBJECTSTRUCT@@A ; gObj
  00135	69 94 01 a4 02
	00 00 a0 1b 00
	00		 imul	 edx, DWORD PTR [ecx+eax+676], 7072
  00140	a1 00 00 00 00	 mov	 eax, DWORD PTR ?gObj@@3PAVOBJECTSTRUCT@@A ; gObj
  00145	8b 0c 10	 mov	 ecx, DWORD PTR [eax+edx]
  00148	89 4d d4	 mov	 DWORD PTR _CallMonIndex$2[ebp], ecx
$LN11@SkillDeath:

; 3030 : 						}
; 3031 : 					}
; 3032 : 					if( gObjTargetGuildWarCheck(lpObj, &gObj[CallMonIndex]) == TRUE )

  0014b	69 45 d4 a0 1b
	00 00		 imul	 eax, DWORD PTR _CallMonIndex$2[ebp], 7072
  00152	03 05 00 00 00
	00		 add	 eax, DWORD PTR ?gObj@@3PAVOBJECTSTRUCT@@A ; gObj
  00158	50		 push	 eax
  00159	8b 4d f8	 mov	 ecx, DWORD PTR _lpObj$[ebp]
  0015c	51		 push	 ecx
  0015d	e8 00 00 00 00	 call	 ?gObjTargetGuildWarCheck@@YAHPAVOBJECTSTRUCT@@0@Z ; gObjTargetGuildWarCheck
  00162	83 c4 08	 add	 esp, 8
  00165	83 f8 01	 cmp	 eax, 1
  00168	75 07		 jne	 SHORT $LN7@SkillDeath

; 3033 : 					{	// 대상이 길전상대이면 공격가능
; 3034 : 						EnableAttack = TRUE;

  0016a	c7 45 dc 01 00
	00 00		 mov	 DWORD PTR _EnableAttack$[ebp], 1
$LN7@SkillDeath:

; 3035 : 					}
; 3036 : 				}
; 3037 : 
; 3038 : 				if( EnableAttack )			

  00171	83 7d dc 00	 cmp	 DWORD PTR _EnableAttack$[ebp], 0
  00175	0f 84 b8 00 00
	00		 je	 $LN4@SkillDeath

; 3039 : 				{	
; 3040 : 					if( CalDistance(x, y, gObj[tObjNum].X, gObj[tObjNum].Y) < 4 )

  0017b	69 45 f4 a0 1b
	00 00		 imul	 eax, DWORD PTR _tObjNum$[ebp], 7072
  00182	8b 0d 00 00 00
	00		 mov	 ecx, DWORD PTR ?gObj@@3PAVOBJECTSTRUCT@@A ; gObj
  00188	0f bf 94 01 06
	01 00 00	 movsx	 edx, WORD PTR [ecx+eax+262]
  00190	52		 push	 edx
  00191	69 45 f4 a0 1b
	00 00		 imul	 eax, DWORD PTR _tObjNum$[ebp], 7072
  00198	8b 0d 00 00 00
	00		 mov	 ecx, DWORD PTR ?gObj@@3PAVOBJECTSTRUCT@@A ; gObj
  0019e	0f bf 94 01 04
	01 00 00	 movsx	 edx, WORD PTR [ecx+eax+260]
  001a6	52		 push	 edx
  001a7	0f b6 45 14	 movzx	 eax, BYTE PTR _y$[ebp]
  001ab	50		 push	 eax
  001ac	0f b6 4d 10	 movzx	 ecx, BYTE PTR _x$[ebp]
  001b0	51		 push	 ecx
  001b1	8b 4d fc	 mov	 ecx, DWORD PTR _this$[ebp]
  001b4	e8 00 00 00 00	 call	 ?CalDistance@CObjUseSkill@@QAEHHHHH@Z ; CObjUseSkill::CalDistance
  001b9	83 f8 04	 cmp	 eax, 4
  001bc	7d 75		 jge	 SHORT $LN4@SkillDeath

; 3041 : 					{	
; 3042 : 						bAttack = FALSE;

  001be	c7 45 e4 00 00
	00 00		 mov	 DWORD PTR _bAttack$[ebp], 0

; 3043 : 						if( HitCount > 10 )

  001c5	83 7d e8 0a	 cmp	 DWORD PTR _HitCount$[ebp], 10 ; 0000000aH
  001c9	7e 07		 jle	 SHORT $LN16@SkillDeath

; 3044 : 						{
; 3045 : 							bAttack = FALSE;

  001cb	c7 45 e4 00 00
	00 00		 mov	 DWORD PTR _bAttack$[ebp], 0
$LN16@SkillDeath:

; 3046 : 						}
; 3047 : 						if( HitCount >= 5 )

  001d2	83 7d e8 05	 cmp	 DWORD PTR _HitCount$[ebp], 5
  001d6	7c 1e		 jl	 SHORT $LN17@SkillDeath

; 3048 : 						{	
; 3049 : 							if( rand()%2 )

  001d8	e8 00 00 00 00	 call	 _rand
  001dd	25 01 00 00 80	 and	 eax, -2147483647	; 80000001H
  001e2	79 05		 jns	 SHORT $LN23@SkillDeath
  001e4	48		 dec	 eax
  001e5	83 c8 fe	 or	 eax, -2			; fffffffeH
  001e8	40		 inc	 eax
$LN23@SkillDeath:
  001e9	85 c0		 test	 eax, eax
  001eb	74 07		 je	 SHORT $LN19@SkillDeath

; 3050 : 							{
; 3051 : 								bAttack = TRUE;

  001ed	c7 45 e4 01 00
	00 00		 mov	 DWORD PTR _bAttack$[ebp], 1
$LN19@SkillDeath:

; 3052 : 							}							
; 3053 : 						}

  001f4	eb 07		 jmp	 SHORT $LN18@SkillDeath
$LN17@SkillDeath:

; 3054 : 						else 
; 3055 : 						{
; 3056 : 							bAttack = TRUE;

  001f6	c7 45 e4 01 00
	00 00		 mov	 DWORD PTR _bAttack$[ebp], 1
$LN18@SkillDeath:

; 3057 : 						}
; 3058 : 						
; 3059 : 						if( bAttack )

  001fd	83 7d e4 00	 cmp	 DWORD PTR _bAttack$[ebp], 0
  00201	74 30		 je	 SHORT $LN4@SkillDeath

; 3060 : 						{
; 3061 : 							int delay = rand()%500;

  00203	e8 00 00 00 00	 call	 _rand
  00208	99		 cdq
  00209	b9 f4 01 00 00	 mov	 ecx, 500		; 000001f4H
  0020e	f7 f9		 idiv	 ecx
  00210	89 55 d0	 mov	 DWORD PTR _delay$1[ebp], edx

; 3062 : 							gObjAddAttackProcMsgSendDelay(lpObj, 

  00213	6a 00		 push	 0
  00215	8b 45 0c	 mov	 eax, DWORD PTR _lpMagic$[ebp]
  00218	0f b6 48 05	 movzx	 ecx, BYTE PTR [eax+5]
  0021c	51		 push	 ecx
  0021d	8b 55 d0	 mov	 edx, DWORD PTR _delay$1[ebp]
  00220	52		 push	 edx
  00221	8b 45 f4	 mov	 eax, DWORD PTR _tObjNum$[ebp]
  00224	50		 push	 eax
  00225	6a 32		 push	 50			; 00000032H
  00227	8b 4d f8	 mov	 ecx, DWORD PTR _lpObj$[ebp]
  0022a	51		 push	 ecx
  0022b	e8 00 00 00 00	 call	 ?gObjAddAttackProcMsgSendDelay@@YAXPAVOBJECTSTRUCT@@HHHHH@Z ; gObjAddAttackProcMsgSendDelay
  00230	83 c4 18	 add	 esp, 24			; 00000018H
$LN4@SkillDeath:

; 3063 : 														  MSG_ATTACKPROC_ENTIREMAGIC, 
; 3064 : 														  tObjNum,
; 3065 : 														  delay, lpMagic->m_Skill);							
; 3066 : 							//gObjAttack(lpObj, &gObj[tObjNum], lpMagic, 1, 1);
; 3067 : 						}
; 3068 : 					}
; 3069 : 				}
; 3070 : 			}
; 3071 : 		}
; 3072 : 		count++;

  00233	8b 45 f0	 mov	 eax, DWORD PTR _count$[ebp]
  00236	83 c0 01	 add	 eax, 1
  00239	89 45 f0	 mov	 DWORD PTR _count$[ebp], eax

; 3073 : 		if( count > MAXVIEWPORTOBJECT-1 )

  0023c	83 7d f0 4a	 cmp	 DWORD PTR _count$[ebp], 74 ; 0000004aH
  00240	7e 02		 jle	 SHORT $LN21@SkillDeath

; 3074 : 		{
; 3075 : 			break;

  00242	eb 05		 jmp	 SHORT $LN3@SkillDeath
$LN21@SkillDeath:

; 3076 : 		}
; 3077 : 	}

  00244	e9 04 fe ff ff	 jmp	 $LN2@SkillDeath
$LN3@SkillDeath:

; 3078 : 	//GCMagicAttackNumberSend(lpObj, AT_SKILL_EXPPOISON, aTargetIndex, 1);
; 3079 : 	return TRUE;

  00249	b8 01 00 00 00	 mov	 eax, 1

; 3080 : }

  0024e	5f		 pop	 edi
  0024f	5e		 pop	 esi
  00250	5b		 pop	 ebx
  00251	8b e5		 mov	 esp, ebp
  00253	5d		 pop	 ebp
  00254	c2 1c 00	 ret	 28			; 0000001cH
?SkillDeathPoison@CObjUseSkill@@QAEHHPAVCMagicInf@@EEEEH@Z ENDP ; CObjUseSkill::SkillDeathPoison
_TEXT	ENDS
; Function compile flags: /Odtp /ZI
; File C:\Mu Online\Mu-GS-Webzen-MC-10093\GameServer\ObjUseSkill.cpp
;	COMDAT ?SkillMonsterCall@CObjUseSkill@@QAEHHHHH@Z
_TEXT	SEGMENT
tv79 = -80						; size = 4
tv80 = -76						; size = 4
_result$ = -8						; size = 4
_this$ = -4						; size = 4
_aIndex$ = 8						; size = 4
_MonsterType$ = 12					; size = 4
_x$ = 16						; size = 4
_y$ = 20						; size = 4
?SkillMonsterCall@CObjUseSkill@@QAEHHHHH@Z PROC		; CObjUseSkill::SkillMonsterCall, COMDAT
; _this$ = ecx

; 2201 : {

  00000	55		 push	 ebp
  00001	8b ec		 mov	 ebp, esp
  00003	83 ec 50	 sub	 esp, 80			; 00000050H
  00006	53		 push	 ebx
  00007	56		 push	 esi
  00008	57		 push	 edi
  00009	89 4d fc	 mov	 DWORD PTR _this$[ebp], ecx

; 2202 : 	int result;
; 2203 : 
; 2204 : #ifdef NEW_SKILL_FORSKYLAND
; 2205 : 	if( gObj[aIndex].MapNumber == 10 )

  0000c	69 45 08 a0 1b
	00 00		 imul	 eax, DWORD PTR _aIndex$[ebp], 7072
  00013	8b 0d 00 00 00
	00		 mov	 ecx, DWORD PTR ?gObj@@3PAVOBJECTSTRUCT@@A ; gObj
  00019	0f b6 94 01 09
	01 00 00	 movzx	 edx, BYTE PTR [ecx+eax+265]
  00021	83 fa 0a	 cmp	 edx, 10			; 0000000aH
  00024	75 07		 jne	 SHORT $LN2@SkillMonst

; 2206 : 	{	// 천공에서는 소환할수 없다		
; 2207 : 		return FALSE;

  00026	33 c0		 xor	 eax, eax
  00028	e9 cb 02 00 00	 jmp	 $LN1@SkillMonst
$LN2@SkillMonst:

; 2208 : 	}
; 2209 : #endif
; 2210 : #ifdef CHAOSCASTLE_SYSTEM_20040408		// 카오스 캐슬에서는 몬스터를 소환할 수 없다.
; 2211 : 	if( CHECK_CHAOSCASTLE(gObj[aIndex].MapNumber) )

  0002d	69 45 08 a0 1b
	00 00		 imul	 eax, DWORD PTR _aIndex$[ebp], 7072
  00034	8b 0d 00 00 00
	00		 mov	 ecx, DWORD PTR ?gObj@@3PAVOBJECTSTRUCT@@A ; gObj
  0003a	0f b6 94 01 09
	01 00 00	 movzx	 edx, BYTE PTR [ecx+eax+265]
  00042	83 fa 12	 cmp	 edx, 18			; 00000012H
  00045	7d 09		 jge	 SHORT $LN9@SkillMonst
  00047	c7 45 b4 00 00
	00 00		 mov	 DWORD PTR tv80[ebp], 0
  0004e	eb 30		 jmp	 SHORT $LN10@SkillMonst
$LN9@SkillMonst:
  00050	69 45 08 a0 1b
	00 00		 imul	 eax, DWORD PTR _aIndex$[ebp], 7072
  00057	8b 0d 00 00 00
	00		 mov	 ecx, DWORD PTR ?gObj@@3PAVOBJECTSTRUCT@@A ; gObj
  0005d	0f b6 94 01 09
	01 00 00	 movzx	 edx, BYTE PTR [ecx+eax+265]
  00065	83 fa 17	 cmp	 edx, 23			; 00000017H
  00068	7e 09		 jle	 SHORT $LN7@SkillMonst
  0006a	c7 45 b0 00 00
	00 00		 mov	 DWORD PTR tv79[ebp], 0
  00071	eb 07		 jmp	 SHORT $LN8@SkillMonst
$LN7@SkillMonst:
  00073	c7 45 b0 01 00
	00 00		 mov	 DWORD PTR tv79[ebp], 1
$LN8@SkillMonst:
  0007a	8b 45 b0	 mov	 eax, DWORD PTR tv79[ebp]
  0007d	89 45 b4	 mov	 DWORD PTR tv80[ebp], eax
$LN10@SkillMonst:
  00080	83 7d b4 00	 cmp	 DWORD PTR tv80[ebp], 0
  00084	74 07		 je	 SHORT $LN3@SkillMonst

; 2212 : 	{
; 2213 : 		return FALSE;

  00086	33 c0		 xor	 eax, eax
  00088	e9 6b 02 00 00	 jmp	 $LN1@SkillMonst
$LN3@SkillMonst:

; 2214 : 	}
; 2215 : #endif
; 2216 : 
; 2217 : 	if( gObj[aIndex].m_RecallMon >= 0 ) 

  0008d	69 45 08 a0 1b
	00 00		 imul	 eax, DWORD PTR _aIndex$[ebp], 7072
  00094	8b 0d 00 00 00
	00		 mov	 ecx, DWORD PTR ?gObj@@3PAVOBJECTSTRUCT@@A ; gObj
  0009a	83 bc 01 a4 02
	00 00 00	 cmp	 DWORD PTR [ecx+eax+676], 0
  000a2	7c 23		 jl	 SHORT $LN4@SkillMonst

; 2218 : 	{
; 2219 : 		GCRecallMonLife(aIndex, 60, 0);

  000a4	6a 00		 push	 0
  000a6	6a 3c		 push	 60			; 0000003cH
  000a8	8b 45 08	 mov	 eax, DWORD PTR _aIndex$[ebp]
  000ab	50		 push	 eax
  000ac	e8 00 00 00 00	 call	 ?GCRecallMonLife@@YAXHHH@Z ; GCRecallMonLife
  000b1	83 c4 0c	 add	 esp, 12			; 0000000cH

; 2220 : 		gObjMonsterCallKill(aIndex);

  000b4	8b 45 08	 mov	 eax, DWORD PTR _aIndex$[ebp]
  000b7	50		 push	 eax
  000b8	e8 00 00 00 00	 call	 ?gObjMonsterCallKill@@YAXH@Z ; gObjMonsterCallKill
  000bd	83 c4 04	 add	 esp, 4

; 2221 : 		return FALSE;

  000c0	33 c0		 xor	 eax, eax
  000c2	e9 31 02 00 00	 jmp	 $LN1@SkillMonst
$LN4@SkillMonst:

; 2222 : 		//return;
; 2223 : 	}
; 2224 : 	result = gObjAddCallMon();

  000c7	e8 00 00 00 00	 call	 ?gObjAddCallMon@@YAFXZ	; gObjAddCallMon
  000cc	98		 cwde
  000cd	89 45 f8	 mov	 DWORD PTR _result$[ebp], eax

; 2225 : 		
; 2226 : 	if( result >= 0 )

  000d0	83 7d f8 00	 cmp	 DWORD PTR _result$[ebp], 0
  000d4	0f 8c 1c 02 00
	00		 jl	 $LN5@SkillMonst

; 2227 : 	{
; 2228 : 		gObj[result].X = x;

  000da	69 45 f8 a0 1b
	00 00		 imul	 eax, DWORD PTR _result$[ebp], 7072
  000e1	8b 0d 00 00 00
	00		 mov	 ecx, DWORD PTR ?gObj@@3PAVOBJECTSTRUCT@@A ; gObj
  000e7	66 8b 55 10	 mov	 dx, WORD PTR _x$[ebp]
  000eb	66 89 94 01 04
	01 00 00	 mov	 WORD PTR [ecx+eax+260], dx

; 2229 : 		gObj[result].Y = y;

  000f3	69 45 f8 a0 1b
	00 00		 imul	 eax, DWORD PTR _result$[ebp], 7072
  000fa	8b 0d 00 00 00
	00		 mov	 ecx, DWORD PTR ?gObj@@3PAVOBJECTSTRUCT@@A ; gObj
  00100	66 8b 55 14	 mov	 dx, WORD PTR _y$[ebp]
  00104	66 89 94 01 06
	01 00 00	 mov	 WORD PTR [ecx+eax+262], dx

; 2230 : 		gObj[result].MTX = x;

  0010c	69 45 f8 a0 1b
	00 00		 imul	 eax, DWORD PTR _result$[ebp], 7072
  00113	8b 0d 00 00 00
	00		 mov	 ecx, DWORD PTR ?gObj@@3PAVOBJECTSTRUCT@@A ; gObj
  00119	66 8b 55 10	 mov	 dx, WORD PTR _x$[ebp]
  0011d	66 89 94 01 24
	01 00 00	 mov	 WORD PTR [ecx+eax+292], dx

; 2231 : 		gObj[result].MTY = y;

  00125	69 45 f8 a0 1b
	00 00		 imul	 eax, DWORD PTR _result$[ebp], 7072
  0012c	8b 0d 00 00 00
	00		 mov	 ecx, DWORD PTR ?gObj@@3PAVOBJECTSTRUCT@@A ; gObj
  00132	66 8b 55 14	 mov	 dx, WORD PTR _y$[ebp]
  00136	66 89 94 01 26
	01 00 00	 mov	 WORD PTR [ecx+eax+294], dx

; 2232 : 		gObj[result].Dir = 2;

  0013e	69 45 f8 a0 1b
	00 00		 imul	 eax, DWORD PTR _result$[ebp], 7072
  00145	8b 0d 00 00 00
	00		 mov	 ecx, DWORD PTR ?gObj@@3PAVOBJECTSTRUCT@@A ; gObj
  0014b	c6 84 01 08 01
	00 00 02	 mov	 BYTE PTR [ecx+eax+264], 2

; 2233 : 		gObj[result].MapNumber = gObj[aIndex].MapNumber;

  00153	69 45 08 a0 1b
	00 00		 imul	 eax, DWORD PTR _aIndex$[ebp], 7072
  0015a	69 4d f8 a0 1b
	00 00		 imul	 ecx, DWORD PTR _result$[ebp], 7072
  00161	8b 15 00 00 00
	00		 mov	 edx, DWORD PTR ?gObj@@3PAVOBJECTSTRUCT@@A ; gObj
  00167	8b 35 00 00 00
	00		 mov	 esi, DWORD PTR ?gObj@@3PAVOBJECTSTRUCT@@A ; gObj
  0016d	8a 84 06 09 01
	00 00		 mov	 al, BYTE PTR [esi+eax+265]
  00174	88 84 0a 09 01
	00 00		 mov	 BYTE PTR [edx+ecx+265], al

; 2234 : 		
; 2235 : 		gObjSetMonster(result, MonsterType);

  0017b	8b 45 0c	 mov	 eax, DWORD PTR _MonsterType$[ebp]
  0017e	50		 push	 eax
  0017f	8b 4d f8	 mov	 ecx, DWORD PTR _result$[ebp]
  00182	51		 push	 ecx
  00183	e8 00 00 00 00	 call	 ?gObjSetMonster@@YAHHH@Z ; gObjSetMonster
  00188	83 c4 08	 add	 esp, 8

; 2236 : 		gObj[result].m_RecallMon = aIndex;

  0018b	69 45 f8 a0 1b
	00 00		 imul	 eax, DWORD PTR _result$[ebp], 7072
  00192	8b 0d 00 00 00
	00		 mov	 ecx, DWORD PTR ?gObj@@3PAVOBJECTSTRUCT@@A ; gObj
  00198	8b 55 08	 mov	 edx, DWORD PTR _aIndex$[ebp]
  0019b	89 94 01 a4 02
	00 00		 mov	 DWORD PTR [ecx+eax+676], edx

; 2237 : 
; 2238 : 		gObj[result].m_Attribute	= 100;

  001a2	69 45 f8 a0 1b
	00 00		 imul	 eax, DWORD PTR _result$[ebp], 7072
  001a9	b9 64 00 00 00	 mov	 ecx, 100		; 00000064H
  001ae	8b 15 00 00 00
	00		 mov	 edx, DWORD PTR ?gObj@@3PAVOBJECTSTRUCT@@A ; gObj
  001b4	66 89 8c 02 fe
	02 00 00	 mov	 WORD PTR [edx+eax+766], cx

; 2239 : 		//gObj[result].m_MoveSpeed	= 100;
; 2240 : 		gObj[result].TargetNumber	= -1;

  001bc	69 45 f8 a0 1b
	00 00		 imul	 eax, DWORD PTR _result$[ebp], 7072
  001c3	83 c9 ff	 or	 ecx, -1
  001c6	8b 15 00 00 00
	00		 mov	 edx, DWORD PTR ?gObj@@3PAVOBJECTSTRUCT@@A ; gObj
  001cc	66 89 8c 02 ac
	02 00 00	 mov	 WORD PTR [edx+eax+684], cx

; 2241 : 		gObj[result].m_ActState.Emotion = 0;

  001d4	69 45 f8 a0 1b
	00 00		 imul	 eax, DWORD PTR _result$[ebp], 7072
  001db	8b 0d 00 00 00
	00		 mov	 ecx, DWORD PTR ?gObj@@3PAVOBJECTSTRUCT@@A ; gObj
  001e1	8b 94 01 b0 01
	00 00		 mov	 edx, DWORD PTR [ecx+eax+432]
  001e8	81 e2 0f ff ff
	ff		 and	 edx, -241		; ffffff0fH
  001ee	69 45 f8 a0 1b
	00 00		 imul	 eax, DWORD PTR _result$[ebp], 7072
  001f5	8b 0d 00 00 00
	00		 mov	 ecx, DWORD PTR ?gObj@@3PAVOBJECTSTRUCT@@A ; gObj
  001fb	89 94 01 b0 01
	00 00		 mov	 DWORD PTR [ecx+eax+432], edx

; 2242 : 		gObj[result].m_ActState.Attack = 0;

  00202	69 45 f8 a0 1b
	00 00		 imul	 eax, DWORD PTR _result$[ebp], 7072
  00209	8b 0d 00 00 00
	00		 mov	 ecx, DWORD PTR ?gObj@@3PAVOBJECTSTRUCT@@A ; gObj
  0020f	8b 94 01 b0 01
	00 00		 mov	 edx, DWORD PTR [ecx+eax+432]
  00216	83 e2 fd	 and	 edx, -3			; fffffffdH
  00219	69 45 f8 a0 1b
	00 00		 imul	 eax, DWORD PTR _result$[ebp], 7072
  00220	8b 0d 00 00 00
	00		 mov	 ecx, DWORD PTR ?gObj@@3PAVOBJECTSTRUCT@@A ; gObj
  00226	89 94 01 b0 01
	00 00		 mov	 DWORD PTR [ecx+eax+432], edx

; 2243 : 		gObj[result].m_ActState.EmotionCount = 0;

  0022d	69 45 f8 a0 1b
	00 00		 imul	 eax, DWORD PTR _result$[ebp], 7072
  00234	8b 0d 00 00 00
	00		 mov	 ecx, DWORD PTR ?gObj@@3PAVOBJECTSTRUCT@@A ; gObj
  0023a	8b 94 01 b0 01
	00 00		 mov	 edx, DWORD PTR [ecx+eax+432]
  00241	81 e2 ff 00 ff
	ff		 and	 edx, -65281		; ffff00ffH
  00247	69 45 f8 a0 1b
	00 00		 imul	 eax, DWORD PTR _result$[ebp], 7072
  0024e	8b 0d 00 00 00
	00		 mov	 ecx, DWORD PTR ?gObj@@3PAVOBJECTSTRUCT@@A ; gObj
  00254	89 94 01 b0 01
	00 00		 mov	 DWORD PTR [ecx+eax+432], edx

; 2244 : 		gObj[result].PathCount		= 0;				

  0025b	69 45 f8 a0 1b
	00 00		 imul	 eax, DWORD PTR _result$[ebp], 7072
  00262	8b 0d 00 00 00
	00		 mov	 ecx, DWORD PTR ?gObj@@3PAVOBJECTSTRUCT@@A ; gObj
  00268	c7 84 01 28 01
	00 00 00 00 00
	00		 mov	 DWORD PTR [ecx+eax+296], 0

; 2245 : 		gObj[aIndex].m_RecallMon	= result;

  00273	69 45 08 a0 1b
	00 00		 imul	 eax, DWORD PTR _aIndex$[ebp], 7072
  0027a	8b 0d 00 00 00
	00		 mov	 ecx, DWORD PTR ?gObj@@3PAVOBJECTSTRUCT@@A ; gObj
  00280	8b 55 f8	 mov	 edx, DWORD PTR _result$[ebp]
  00283	89 94 01 a4 02
	00 00		 mov	 DWORD PTR [ecx+eax+676], edx

; 2246 : 		
; 2247 : 		gObj[result].m_MoveRange = 15;

  0028a	69 45 f8 a0 1b
	00 00		 imul	 eax, DWORD PTR _result$[ebp], 7072
  00291	b9 0f 00 00 00	 mov	 ecx, 15			; 0000000fH
  00296	8b 15 00 00 00
	00		 mov	 edx, DWORD PTR ?gObj@@3PAVOBJECTSTRUCT@@A ; gObj
  0029c	66 89 8c 02 f6
	02 00 00	 mov	 WORD PTR [edx+eax+758], cx

; 2248 : 
; 2249 : 		GCRecallMonLife(gObj[result].m_RecallMon, (int)gObj[result].MaxLife, (int)gObj[result].Life);

  002a4	69 45 f8 a0 1b
	00 00		 imul	 eax, DWORD PTR _result$[ebp], 7072
  002ab	8b 0d 00 00 00
	00		 mov	 ecx, DWORD PTR ?gObj@@3PAVOBJECTSTRUCT@@A ; gObj
  002b1	f3 0f 2c 94 01
	bc 00 00 00	 cvttss2si edx, DWORD PTR [ecx+eax+188]
  002ba	52		 push	 edx
  002bb	69 45 f8 a0 1b
	00 00		 imul	 eax, DWORD PTR _result$[ebp], 7072
  002c2	8b 0d 00 00 00
	00		 mov	 ecx, DWORD PTR ?gObj@@3PAVOBJECTSTRUCT@@A ; gObj
  002c8	f3 0f 2c 94 01
	c0 00 00 00	 cvttss2si edx, DWORD PTR [ecx+eax+192]
  002d1	52		 push	 edx
  002d2	69 45 f8 a0 1b
	00 00		 imul	 eax, DWORD PTR _result$[ebp], 7072
  002d9	8b 0d 00 00 00
	00		 mov	 ecx, DWORD PTR ?gObj@@3PAVOBJECTSTRUCT@@A ; gObj
  002df	8b 94 01 a4 02
	00 00		 mov	 edx, DWORD PTR [ecx+eax+676]
  002e6	52		 push	 edx
  002e7	e8 00 00 00 00	 call	 ?GCRecallMonLife@@YAXHHH@Z ; GCRecallMonLife
  002ec	83 c4 0c	 add	 esp, 12			; 0000000cH

; 2250 : 		return TRUE;

  002ef	b8 01 00 00 00	 mov	 eax, 1
  002f4	eb 02		 jmp	 SHORT $LN1@SkillMonst
$LN5@SkillMonst:

; 2251 : 	}
; 2252 : 	return FALSE;

  002f6	33 c0		 xor	 eax, eax
$LN1@SkillMonst:

; 2253 : }

  002f8	5f		 pop	 edi
  002f9	5e		 pop	 esi
  002fa	5b		 pop	 ebx
  002fb	8b e5		 mov	 esp, ebp
  002fd	5d		 pop	 ebp
  002fe	c2 10 00	 ret	 16			; 00000010H
?SkillMonsterCall@CObjUseSkill@@QAEHHHHH@Z ENDP		; CObjUseSkill::SkillMonsterCall
_TEXT	ENDS
; Function compile flags: /Odtp /ZI
; File C:\Mu Online\Mu-GS-Webzen-MC-10093\GameServer\ObjUseSkill.cpp
;	COMDAT ?SkillHealing@CObjUseSkill@@QAEXHHH@Z
_TEXT	SEGMENT
tv82 = -88						; size = 4
tv83 = -84						; size = 4
_lpTargetObj$ = -16					; size = 4
_lpObj$ = -12						; size = 4
_skillSuccess$ = -8					; size = 4
_this$ = -4						; size = 4
_aIndex$ = 8						; size = 4
_aTargetIndex$ = 12					; size = 4
_skill_level$ = 16					; size = 4
?SkillHealing@CObjUseSkill@@QAEXHHH@Z PROC		; CObjUseSkill::SkillHealing, COMDAT
; _this$ = ecx

; 2137 : {	

  00000	55		 push	 ebp
  00001	8b ec		 mov	 ebp, esp
  00003	83 ec 58	 sub	 esp, 88			; 00000058H
  00006	53		 push	 ebx
  00007	56		 push	 esi
  00008	57		 push	 edi
  00009	89 4d fc	 mov	 DWORD PTR _this$[ebp], ecx

; 2138 : 	int skillSuccess = 1;

  0000c	c7 45 f8 01 00
	00 00		 mov	 DWORD PTR _skillSuccess$[ebp], 1

; 2139 : 	LPOBJECTSTRUCT lpObj= &gObj[aIndex];	

  00013	69 45 08 a0 1b
	00 00		 imul	 eax, DWORD PTR _aIndex$[ebp], 7072
  0001a	03 05 00 00 00
	00		 add	 eax, DWORD PTR ?gObj@@3PAVOBJECTSTRUCT@@A ; gObj
  00020	89 45 f4	 mov	 DWORD PTR _lpObj$[ebp], eax

; 2140 : 	LPOBJECTSTRUCT lpTargetObj= &gObj[aTargetIndex];

  00023	69 45 0c a0 1b
	00 00		 imul	 eax, DWORD PTR _aTargetIndex$[ebp], 7072
  0002a	03 05 00 00 00
	00		 add	 eax, DWORD PTR ?gObj@@3PAVOBJECTSTRUCT@@A ; gObj
  00030	89 45 f0	 mov	 DWORD PTR _lpTargetObj$[ebp], eax

; 2141 : 
; 2142 : 	if( lpTargetObj->Type != OBJTYPE_CHARACTER) 

  00033	8b 45 f0	 mov	 eax, DWORD PTR _lpTargetObj$[ebp]
  00036	0f b7 48 64	 movzx	 ecx, WORD PTR [eax+100]
  0003a	83 f9 01	 cmp	 ecx, 1
  0003d	74 11		 je	 SHORT $LN3@SkillHeali

; 2143 : 		if( lpTargetObj->m_RecallMon == -1 ) return;

  0003f	8b 45 f0	 mov	 eax, DWORD PTR _lpTargetObj$[ebp]
  00042	83 b8 a4 02 00
	00 ff		 cmp	 DWORD PTR [eax+676], -1
  00049	75 05		 jne	 SHORT $LN3@SkillHeali
  0004b	e9 8e 01 00 00	 jmp	 $LN1@SkillHeali
$LN3@SkillHeali:

; 2144 : 	
; 2145 : 	if( lpObj->Class != CLASS_ELF ) return;

  00050	8b 45 f4	 mov	 eax, DWORD PTR _lpObj$[ebp]
  00053	0f b7 88 9c 00
	00 00		 movzx	 ecx, WORD PTR [eax+156]
  0005a	83 f9 02	 cmp	 ecx, 2
  0005d	74 05		 je	 SHORT $LN4@SkillHeali
  0005f	e9 7a 01 00 00	 jmp	 $LN1@SkillHeali
$LN4@SkillHeali:

; 2146 : 	
; 2147 : #ifdef CHAOSCASTLE_SYSTEM_20040408		// 카오스 캐슬에서는 요정에 힐을 자신에게만 해줄 수 있다.
; 2148 : 	#ifndef WORLD_TOURNAMENT_EVENT_SETTING			
; 2149 : 		if(CHECK_CHAOSCASTLE(lpObj->MapNumber)) {

  00064	8b 45 f4	 mov	 eax, DWORD PTR _lpObj$[ebp]
  00067	0f b6 88 09 01
	00 00		 movzx	 ecx, BYTE PTR [eax+265]
  0006e	83 f9 12	 cmp	 ecx, 18			; 00000012H
  00071	7d 09		 jge	 SHORT $LN16@SkillHeali
  00073	c7 45 ac 00 00
	00 00		 mov	 DWORD PTR tv83[ebp], 0
  0007a	eb 25		 jmp	 SHORT $LN17@SkillHeali
$LN16@SkillHeali:
  0007c	8b 55 f4	 mov	 edx, DWORD PTR _lpObj$[ebp]
  0007f	0f b6 82 09 01
	00 00		 movzx	 eax, BYTE PTR [edx+265]
  00086	83 f8 17	 cmp	 eax, 23			; 00000017H
  00089	7e 09		 jle	 SHORT $LN14@SkillHeali
  0008b	c7 45 a8 00 00
	00 00		 mov	 DWORD PTR tv82[ebp], 0
  00092	eb 07		 jmp	 SHORT $LN15@SkillHeali
$LN14@SkillHeali:
  00094	c7 45 a8 01 00
	00 00		 mov	 DWORD PTR tv82[ebp], 1
$LN15@SkillHeali:
  0009b	8b 4d a8	 mov	 ecx, DWORD PTR tv82[ebp]
  0009e	89 4d ac	 mov	 DWORD PTR tv83[ebp], ecx
$LN17@SkillHeali:
  000a1	83 7d ac 00	 cmp	 DWORD PTR tv83[ebp], 0
  000a5	74 11		 je	 SHORT $LN6@SkillHeali

; 2150 : 			if (lpObj->m_Index != lpTargetObj->m_Index)

  000a7	8b 45 f4	 mov	 eax, DWORD PTR _lpObj$[ebp]
  000aa	8b 4d f0	 mov	 ecx, DWORD PTR _lpTargetObj$[ebp]
  000ad	8b 10		 mov	 edx, DWORD PTR [eax]
  000af	3b 11		 cmp	 edx, DWORD PTR [ecx]
  000b1	74 05		 je	 SHORT $LN6@SkillHeali

; 2151 : 				return;

  000b3	e9 26 01 00 00	 jmp	 $LN1@SkillHeali
$LN6@SkillHeali:

; 2152 : 		}
; 2153 : 	#endif
; 2154 : #endif
; 2155 : 
; 2156 : 	if( skill_level < 0 || skill_level > 7 ) skill_level = 0;

  000b8	83 7d 10 00	 cmp	 DWORD PTR _skill_level$[ebp], 0
  000bc	7c 06		 jl	 SHORT $LN8@SkillHeali
  000be	83 7d 10 07	 cmp	 DWORD PTR _skill_level$[ebp], 7
  000c2	7e 07		 jle	 SHORT $LN7@SkillHeali
$LN8@SkillHeali:
  000c4	c7 45 10 00 00
	00 00		 mov	 DWORD PTR _skill_level$[ebp], 0
$LN7@SkillHeali:

; 2157 : 
; 2158 : 	lpTargetObj->Life += ((skill_level+1)*5+((lpObj->Energy+lpObj->AddEnergy)/5))*g_GlobalConfig.m_fPlusHeal;

  000cb	8b 45 10	 mov	 eax, DWORD PTR _skill_level$[ebp]
  000ce	83 c0 01	 add	 eax, 1
  000d1	6b c8 05	 imul	 ecx, eax, 5
  000d4	8b 55 f4	 mov	 edx, DWORD PTR _lpObj$[ebp]
  000d7	0f b7 82 ba 00
	00 00		 movzx	 eax, WORD PTR [edx+186]
  000de	8b 55 f4	 mov	 edx, DWORD PTR _lpObj$[ebp]
  000e1	0f b7 92 e6 00
	00 00		 movzx	 edx, WORD PTR [edx+230]
  000e8	03 c2		 add	 eax, edx
  000ea	99		 cdq
  000eb	be 05 00 00 00	 mov	 esi, 5
  000f0	f7 fe		 idiv	 esi
  000f2	03 c8		 add	 ecx, eax
  000f4	f3 0f 2a c1	 cvtsi2ss xmm0, ecx
  000f8	f3 0f 59 05 f8
	00 00 00	 mulss	 xmm0, DWORD PTR ?g_GlobalConfig@@3VCGlobalConfig@@A+248
  00100	8b 45 f0	 mov	 eax, DWORD PTR _lpTargetObj$[ebp]
  00103	f3 0f 58 80 bc
	00 00 00	 addss	 xmm0, DWORD PTR [eax+188]
  0010b	8b 4d f0	 mov	 ecx, DWORD PTR _lpTargetObj$[ebp]
  0010e	f3 0f 11 81 bc
	00 00 00	 movss	 DWORD PTR [ecx+188], xmm0

; 2159 : 	
; 2160 : 	if( lpTargetObj->Life > (lpTargetObj->MaxLife+lpTargetObj->AddLife) ) 

  00116	8b 45 f0	 mov	 eax, DWORD PTR _lpTargetObj$[ebp]
  00119	f3 0f 2a 80 0c
	01 00 00	 cvtsi2ss xmm0, DWORD PTR [eax+268]
  00121	8b 4d f0	 mov	 ecx, DWORD PTR _lpTargetObj$[ebp]
  00124	f3 0f 58 81 c0
	00 00 00	 addss	 xmm0, DWORD PTR [ecx+192]
  0012c	8b 55 f0	 mov	 edx, DWORD PTR _lpTargetObj$[ebp]
  0012f	f3 0f 10 8a bc
	00 00 00	 movss	 xmm1, DWORD PTR [edx+188]
  00137	0f 2f c8	 comiss	 xmm1, xmm0
  0013a	76 21		 jbe	 SHORT $LN9@SkillHeali

; 2161 : 	{
; 2162 : 		lpTargetObj->Life = (lpTargetObj->MaxLife+lpTargetObj->AddLife);

  0013c	8b 45 f0	 mov	 eax, DWORD PTR _lpTargetObj$[ebp]
  0013f	f3 0f 2a 80 0c
	01 00 00	 cvtsi2ss xmm0, DWORD PTR [eax+268]
  00147	8b 4d f0	 mov	 ecx, DWORD PTR _lpTargetObj$[ebp]
  0014a	f3 0f 58 81 c0
	00 00 00	 addss	 xmm0, DWORD PTR [ecx+192]
  00152	8b 55 f0	 mov	 edx, DWORD PTR _lpTargetObj$[ebp]
  00155	f3 0f 11 82 bc
	00 00 00	 movss	 DWORD PTR [edx+188], xmm0
$LN9@SkillHeali:

; 2163 : 	}
; 2164 : 	if( lpTargetObj->Type == OBJTYPE_CHARACTER ) 

  0015d	8b 45 f0	 mov	 eax, DWORD PTR _lpTargetObj$[ebp]
  00160	0f b7 48 64	 movzx	 ecx, WORD PTR [eax+100]
  00164	83 f9 01	 cmp	 ecx, 1
  00167	75 3f		 jne	 SHORT $LN10@SkillHeali

; 2165 : 	{
; 2166 : #ifdef ADD_SHIELD_POINT_01_20060403
; 2167 : 		GCReFillSend(lpTargetObj->m_Index, (WORD)lpTargetObj->Life, 0xFF, 0, (WORD)lpTargetObj->iShield);
; 2168 : #else
; 2169 : 		GCReFillSend(lpTargetObj->m_Index, (WORD)lpTargetObj->Life, 0xFF, 0);

  00169	6a 00		 push	 0
  0016b	68 ff 00 00 00	 push	 255			; 000000ffH
  00170	8b 45 f0	 mov	 eax, DWORD PTR _lpTargetObj$[ebp]
  00173	f3 0f 2c 88 bc
	00 00 00	 cvttss2si ecx, DWORD PTR [eax+188]
  0017b	0f b7 d1	 movzx	 edx, cx
  0017e	52		 push	 edx
  0017f	8b 45 f0	 mov	 eax, DWORD PTR _lpTargetObj$[ebp]
  00182	8b 08		 mov	 ecx, DWORD PTR [eax]
  00184	51		 push	 ecx
  00185	e8 00 00 00 00	 call	 ?GCReFillSend@@YAXHGEE@Z ; GCReFillSend
  0018a	83 c4 10	 add	 esp, 16			; 00000010H

; 2170 : #endif
; 2171 : 		GCMagicAttackNumberSend(lpObj, AT_SKILL_HEALING, lpTargetObj->m_Index, skillSuccess);

  0018d	0f b6 45 f8	 movzx	 eax, BYTE PTR _skillSuccess$[ebp]
  00191	50		 push	 eax
  00192	8b 4d f0	 mov	 ecx, DWORD PTR _lpTargetObj$[ebp]
  00195	8b 11		 mov	 edx, DWORD PTR [ecx]
  00197	52		 push	 edx
  00198	6a 1a		 push	 26			; 0000001aH
  0019a	8b 45 f4	 mov	 eax, DWORD PTR _lpObj$[ebp]
  0019d	50		 push	 eax
  0019e	e8 00 00 00 00	 call	 ?GCMagicAttackNumberSend@@YAXPAVOBJECTSTRUCT@@EHE@Z ; GCMagicAttackNumberSend
  001a3	83 c4 10	 add	 esp, 16			; 00000010H

; 2172 : 
; 2173 : #ifdef ADD_NEW_MONSTER_SYSTEM_02_20050725
; 2174 : 	// 치료 마법 사용 시 Target을 보고 있는 몬스터의 Agro를 증가 시켜준다.
; 2175 : 	for( int n=0; n<MAXVIEWPORTOBJECT; n++ )
; 2176 : 	{
; 2177 : 		if( lpObj->VpPlayer2[n].type == OBJTYPE_MONSTER )
; 2178 : 		{
; 2179 : 			if( lpObj->VpPlayer2[n].state )
; 2180 : 			{
; 2181 : 				LPOBJECTSTRUCT lpMonster = &gObj[lpObj->VpPlayer2[n].number];
; 2182 : 
; 2183 : 				if( lpMonster->m_iCurrentAI )
; 2184 : 					lpMonster->m_Agro.IncAgro(lpObj->m_Index, lpObj->Energy/5/40 );
; 2185 : 			}
; 2186 : 		}
; 2187 : 	}
; 2188 : 
; 2189 : 
; 2190 : #endif
; 2191 : 
; 2192 : 	}

  001a6	eb 36		 jmp	 SHORT $LN12@SkillHeali
$LN10@SkillHeali:

; 2193 : 	else if( lpTargetObj->m_RecallMon >= 0 )

  001a8	8b 45 f0	 mov	 eax, DWORD PTR _lpTargetObj$[ebp]
  001ab	83 b8 a4 02 00
	00 00		 cmp	 DWORD PTR [eax+676], 0
  001b2	7c 2a		 jl	 SHORT $LN12@SkillHeali

; 2194 : 	{	// 소환 몬스터일 경우에는 자신의 HP를 알려준다
; 2195 : 		GCRecallMonLife(lpTargetObj->m_RecallMon, (int)lpTargetObj->MaxLife, (int)lpTargetObj->Life);		

  001b4	8b 45 f0	 mov	 eax, DWORD PTR _lpTargetObj$[ebp]
  001b7	f3 0f 2c 88 bc
	00 00 00	 cvttss2si ecx, DWORD PTR [eax+188]
  001bf	51		 push	 ecx
  001c0	8b 55 f0	 mov	 edx, DWORD PTR _lpTargetObj$[ebp]
  001c3	f3 0f 2c 82 c0
	00 00 00	 cvttss2si eax, DWORD PTR [edx+192]
  001cb	50		 push	 eax
  001cc	8b 4d f0	 mov	 ecx, DWORD PTR _lpTargetObj$[ebp]
  001cf	8b 91 a4 02 00
	00		 mov	 edx, DWORD PTR [ecx+676]
  001d5	52		 push	 edx
  001d6	e8 00 00 00 00	 call	 ?GCRecallMonLife@@YAXHHH@Z ; GCRecallMonLife
  001db	83 c4 0c	 add	 esp, 12			; 0000000cH
$LN12@SkillHeali:
$LN1@SkillHeali:

; 2196 : 	}
; 2197 : }

  001de	5f		 pop	 edi
  001df	5e		 pop	 esi
  001e0	5b		 pop	 ebx
  001e1	8b e5		 mov	 esp, ebp
  001e3	5d		 pop	 ebp
  001e4	c2 0c 00	 ret	 12			; 0000000cH
?SkillHealing@CObjUseSkill@@QAEXHHH@Z ENDP		; CObjUseSkill::SkillHealing
_TEXT	ENDS
; Function compile flags: /Odtp /ZI
; File C:\Mu Online\Mu-GS-Webzen-MC-10093\GameServer\ObjUseSkill.cpp
;	COMDAT ?SkillChangeUse@CObjUseSkill@@QAEHH@Z
_TEXT	SEGMENT
tv153 = -84						; size = 4
_change$ = -16						; size = 4
_skill_level$ = -12					; size = 4
_lpObj$ = -8						; size = 4
_this$ = -4						; size = 4
_aIndex$ = 8						; size = 4
?SkillChangeUse@CObjUseSkill@@QAEHH@Z PROC		; CObjUseSkill::SkillChangeUse, COMDAT
; _this$ = ecx

; 1762 : {

  00000	55		 push	 ebp
  00001	8b ec		 mov	 ebp, esp
  00003	83 ec 54	 sub	 esp, 84			; 00000054H
  00006	53		 push	 ebx
  00007	56		 push	 esi
  00008	57		 push	 edi
  00009	89 4d fc	 mov	 DWORD PTR _this$[ebp], ecx

; 1763 : 	LPOBJECTSTRUCT lpObj= &gObj[aIndex];

  0000c	69 45 08 a0 1b
	00 00		 imul	 eax, DWORD PTR _aIndex$[ebp], 7072
  00013	03 05 00 00 00
	00		 add	 eax, DWORD PTR ?gObj@@3PAVOBJECTSTRUCT@@A ; gObj
  00019	89 45 f8	 mov	 DWORD PTR _lpObj$[ebp], eax

; 1764 : 
; 1765 : 	int skill_level = -1;

  0001c	c7 45 f4 ff ff
	ff ff		 mov	 DWORD PTR _skill_level$[ebp], -1

; 1766 : 	if( lpObj->Type != OBJTYPE_CHARACTER) return FALSE;

  00023	8b 45 f8	 mov	 eax, DWORD PTR _lpObj$[ebp]
  00026	0f b7 48 64	 movzx	 ecx, WORD PTR [eax+100]
  0002a	83 f9 01	 cmp	 ecx, 1
  0002d	74 07		 je	 SHORT $LN4@SkillChang
  0002f	33 c0		 xor	 eax, eax
  00031	e9 27 02 00 00	 jmp	 $LN1@SkillChang
$LN4@SkillChang:

; 1767 : 			
; 1768 : 	if( lpObj->pInventory[EQUIPMENT_RING_RIGHT].IsItem() == TRUE )

  00036	b8 a8 00 00 00	 mov	 eax, 168		; 000000a8H
  0003b	6b c8 0a	 imul	 ecx, eax, 10
  0003e	8b 55 f8	 mov	 edx, DWORD PTR _lpObj$[ebp]
  00041	03 8a 5c 0c 00
	00		 add	 ecx, DWORD PTR [edx+3164]
  00047	e8 00 00 00 00	 call	 ?IsItem@CItem@@QAEHXZ	; CItem::IsItem
  0004c	83 f8 01	 cmp	 eax, 1
  0004f	75 68		 jne	 SHORT $LN8@SkillChang

; 1769 : 	{
; 1770 : 		if( lpObj->pInventory[EQUIPMENT_RING_RIGHT].m_Type == MAKE_ITEMNUM(13,10) )

  00051	b8 a8 00 00 00	 mov	 eax, 168		; 000000a8H
  00056	6b c8 0a	 imul	 ecx, eax, 10
  00059	8b 55 f8	 mov	 edx, DWORD PTR _lpObj$[ebp]
  0005c	8b 82 5c 0c 00
	00		 mov	 eax, DWORD PTR [edx+3164]
  00062	0f bf 74 08 06	 movsx	 esi, WORD PTR [eax+ecx+6]
  00067	6a 0a		 push	 10			; 0000000aH
  00069	6a 0d		 push	 13			; 0000000dH
  0006b	e8 00 00 00 00	 call	 ?MakeItemNumber@@YAHHH@Z ; MakeItemNumber
  00070	83 c4 08	 add	 esp, 8
  00073	3b f0		 cmp	 esi, eax
  00075	75 42		 jne	 SHORT $LN8@SkillChang

; 1771 : 		{			
; 1772 : 			if( lpObj->pInventory[EQUIPMENT_RING_RIGHT].m_Durability < 1 )

  00077	b8 a8 00 00 00	 mov	 eax, 168		; 000000a8H
  0007c	6b c8 0a	 imul	 ecx, eax, 10
  0007f	8b 55 f8	 mov	 edx, DWORD PTR _lpObj$[ebp]
  00082	8b 82 5c 0c 00
	00		 mov	 eax, DWORD PTR [edx+3164]
  00088	f3 0f 10 05 00
	00 00 00	 movss	 xmm0, DWORD PTR __real@3f800000
  00090	0f 2f 44 08 24	 comiss	 xmm0, DWORD PTR [eax+ecx+36]
  00095	76 09		 jbe	 SHORT $LN7@SkillChang

; 1773 : 			{
; 1774 : 				skill_level = -1;

  00097	c7 45 f4 ff ff
	ff ff		 mov	 DWORD PTR _skill_level$[ebp], -1

; 1775 : 			}

  0009e	eb 19		 jmp	 SHORT $LN8@SkillChang
$LN7@SkillChang:

; 1776 : 			else skill_level = lpObj->pInventory[EQUIPMENT_RING_RIGHT].m_Level;

  000a0	b8 a8 00 00 00	 mov	 eax, 168		; 000000a8H
  000a5	6b c8 0a	 imul	 ecx, eax, 10
  000a8	8b 55 f8	 mov	 edx, DWORD PTR _lpObj$[ebp]
  000ab	8b 82 5c 0c 00
	00		 mov	 eax, DWORD PTR [edx+3164]
  000b1	0f bf 4c 08 08	 movsx	 ecx, WORD PTR [eax+ecx+8]
  000b6	89 4d f4	 mov	 DWORD PTR _skill_level$[ebp], ecx
$LN8@SkillChang:

; 1777 : 		}
; 1778 : 	}
; 1779 : 	if( (lpObj->pInventory[EQUIPMENT_RING_LEFT].IsItem() == TRUE) && skill_level == -1 )

  000b9	b8 a8 00 00 00	 mov	 eax, 168		; 000000a8H
  000be	6b c8 0b	 imul	 ecx, eax, 11
  000c1	8b 55 f8	 mov	 edx, DWORD PTR _lpObj$[ebp]
  000c4	03 8a 5c 0c 00
	00		 add	 ecx, DWORD PTR [edx+3164]
  000ca	e8 00 00 00 00	 call	 ?IsItem@CItem@@QAEHXZ	; CItem::IsItem
  000cf	83 f8 01	 cmp	 eax, 1
  000d2	75 6e		 jne	 SHORT $LN12@SkillChang
  000d4	83 7d f4 ff	 cmp	 DWORD PTR _skill_level$[ebp], -1
  000d8	75 68		 jne	 SHORT $LN12@SkillChang

; 1780 : 	{
; 1781 : 		if( lpObj->pInventory[EQUIPMENT_RING_LEFT].m_Type == MAKE_ITEMNUM(13,10) )

  000da	b8 a8 00 00 00	 mov	 eax, 168		; 000000a8H
  000df	6b c8 0b	 imul	 ecx, eax, 11
  000e2	8b 55 f8	 mov	 edx, DWORD PTR _lpObj$[ebp]
  000e5	8b 82 5c 0c 00
	00		 mov	 eax, DWORD PTR [edx+3164]
  000eb	0f bf 74 08 06	 movsx	 esi, WORD PTR [eax+ecx+6]
  000f0	6a 0a		 push	 10			; 0000000aH
  000f2	6a 0d		 push	 13			; 0000000dH
  000f4	e8 00 00 00 00	 call	 ?MakeItemNumber@@YAHHH@Z ; MakeItemNumber
  000f9	83 c4 08	 add	 esp, 8
  000fc	3b f0		 cmp	 esi, eax
  000fe	75 42		 jne	 SHORT $LN12@SkillChang

; 1782 : 		{
; 1783 : 			if( lpObj->pInventory[EQUIPMENT_RING_LEFT].m_Durability < 1 )

  00100	b8 a8 00 00 00	 mov	 eax, 168		; 000000a8H
  00105	6b c8 0b	 imul	 ecx, eax, 11
  00108	8b 55 f8	 mov	 edx, DWORD PTR _lpObj$[ebp]
  0010b	8b 82 5c 0c 00
	00		 mov	 eax, DWORD PTR [edx+3164]
  00111	f3 0f 10 05 00
	00 00 00	 movss	 xmm0, DWORD PTR __real@3f800000
  00119	0f 2f 44 08 24	 comiss	 xmm0, DWORD PTR [eax+ecx+36]
  0011e	76 09		 jbe	 SHORT $LN11@SkillChang

; 1784 : 			{
; 1785 : 				skill_level = -1;

  00120	c7 45 f4 ff ff
	ff ff		 mov	 DWORD PTR _skill_level$[ebp], -1

; 1786 : 			}

  00127	eb 19		 jmp	 SHORT $LN12@SkillChang
$LN11@SkillChang:

; 1787 : 			else skill_level = lpObj->pInventory[EQUIPMENT_RING_LEFT].m_Level;

  00129	b8 a8 00 00 00	 mov	 eax, 168		; 000000a8H
  0012e	6b c8 0b	 imul	 ecx, eax, 11
  00131	8b 55 f8	 mov	 edx, DWORD PTR _lpObj$[ebp]
  00134	8b 82 5c 0c 00
	00		 mov	 eax, DWORD PTR [edx+3164]
  0013a	0f bf 4c 08 08	 movsx	 ecx, WORD PTR [eax+ecx+8]
  0013f	89 4d f4	 mov	 DWORD PTR _skill_level$[ebp], ecx
$LN12@SkillChang:

; 1788 : 
; 1789 : 		}		
; 1790 : 	}
; 1791 : 	if( skill_level > 7 ) return FALSE;

  00142	83 7d f4 07	 cmp	 DWORD PTR _skill_level$[ebp], 7
  00146	7e 07		 jle	 SHORT $LN13@SkillChang
  00148	33 c0		 xor	 eax, eax
  0014a	e9 0e 01 00 00	 jmp	 $LN1@SkillChang
$LN13@SkillChang:

; 1792 : 	
; 1793 : #ifdef ADD_ELITE_SKELETON_WORRIOR_CHANGE_RING_20060830	// 엘리트해골전사변신반지 착용 처리
; 1794 : 	if( lpObj->pInventory[EQUIPMENT_RING_RIGHT].IsItem() == TRUE )
; 1795 : 	{
; 1796 : 		if( lpObj->pInventory[EQUIPMENT_RING_RIGHT].m_Type == MAKE_ITEMNUM( 13, 39 ) )
; 1797 : 		{			
; 1798 : 			if( lpObj->pInventory[EQUIPMENT_RING_RIGHT].m_Durability < 1 )
; 1799 : 			{
; 1800 : 				skill_level = -1;
; 1801 : 			}
; 1802 : 			else skill_level = 372;
; 1803 : 		}
; 1804 : 	}
; 1805 : 	if( (lpObj->pInventory[EQUIPMENT_RING_LEFT].IsItem() == TRUE) && skill_level == -1 )
; 1806 : 	{
; 1807 : 		if( lpObj->pInventory[EQUIPMENT_RING_LEFT].m_Type == MAKE_ITEMNUM( 13, 39 ) )
; 1808 : 		{
; 1809 : 			if( lpObj->pInventory[EQUIPMENT_RING_LEFT].m_Durability < 1 )
; 1810 : 			{
; 1811 : 				skill_level = -1;
; 1812 : 			}
; 1813 : 			else skill_level = 372;
; 1814 : 		}		
; 1815 : 	}
; 1816 : #endif
; 1817 : 	
; 1818 : #ifdef HALLOWINDAY_JACK_O_LANTERN_MORPH_RING_20061017
; 1819 : 	if( lpObj->pInventory[EQUIPMENT_RING_RIGHT].IsItem() == TRUE )
; 1820 : 	{
; 1821 : 		if( lpObj->pInventory[EQUIPMENT_RING_RIGHT].m_Type == MAKE_ITEMNUM( 13, 40 ) )
; 1822 : 		{
; 1823 : 			if( lpObj->pInventory[EQUIPMENT_RING_RIGHT].m_Durability < 1 )
; 1824 : 			{
; 1825 : 				skill_level = -1;
; 1826 : 			}
; 1827 : 			else
; 1828 : 			{
; 1829 : 				skill_level = 373;
; 1830 : 			}
; 1831 : 		}
; 1832 : 	}
; 1833 : 
; 1834 : 	if( lpObj->pInventory[EQUIPMENT_RING_LEFT].IsItem() == TRUE )
; 1835 : 	{
; 1836 : 		if( lpObj->pInventory[EQUIPMENT_RING_LEFT].m_Type == MAKE_ITEMNUM( 13, 40 ) )
; 1837 : 		{
; 1838 : 			if( lpObj->pInventory[EQUIPMENT_RING_LEFT].m_Durability < 1 )
; 1839 : 			{
; 1840 : 				skill_level = -1;
; 1841 : 			}
; 1842 : 			else
; 1843 : 			{
; 1844 : 				skill_level = 373;
; 1845 : 			}
; 1846 : 		}
; 1847 : 	}
; 1848 : #endif // HALLOWINDAY_JACK_O_LANTERN_MORPH_RING_20061017
; 1849 : 	
; 1850 : #ifdef CHRISTMAS_SANTA_POLYMORPH_RING_20061117
; 1851 : 	if( lpObj->pInventory[EQUIPMENT_RING_RIGHT].IsItem() == TRUE )
; 1852 : 	{
; 1853 : 		if( lpObj->pInventory[EQUIPMENT_RING_RIGHT].m_Type == MAKE_ITEMNUM( 13, 41 ) )
; 1854 : 		{
; 1855 : 			if( lpObj->pInventory[EQUIPMENT_RING_RIGHT].m_Durability < 1 )
; 1856 : 			{
; 1857 : 				skill_level = -1;
; 1858 : 			}
; 1859 : 			else
; 1860 : 			{
; 1861 : 				skill_level = 374;	// 임시
; 1862 : 			}
; 1863 : 		}
; 1864 : 	}
; 1865 : 
; 1866 : 	if( lpObj->pInventory[EQUIPMENT_RING_LEFT].IsItem() == TRUE )
; 1867 : 	{
; 1868 : 		if( lpObj->pInventory[EQUIPMENT_RING_LEFT].m_Type == MAKE_ITEMNUM( 13, 41 ) )
; 1869 : 		{
; 1870 : 			if( lpObj->pInventory[EQUIPMENT_RING_LEFT].m_Durability < 1 )
; 1871 : 			{
; 1872 : 				skill_level = -1;
; 1873 : 			}
; 1874 : 			else
; 1875 : 			{
; 1876 : 				skill_level = 374;	// 임시
; 1877 : 			}
; 1878 : 		}
; 1879 : 	}
; 1880 : #endif // CHRISTMAS_SANTA_POLYMORPH_RING_20061117
; 1881 : 	
; 1882 : #ifdef UPDATE_GM_FUNCTION_20070228
; 1883 : 	if( lpObj->pInventory[EQUIPMENT_RING_RIGHT].IsItem() == TRUE )
; 1884 : 	{
; 1885 : 		if( lpObj->pInventory[EQUIPMENT_RING_RIGHT].m_Type == MAKE_ITEMNUM( 13, 42 ) )
; 1886 : 		{
; 1887 : 			if( (lpObj->Authority&AUTHORITY_EVENT_GM) != AUTHORITY_EVENT_GM )
; 1888 : 			{
; 1889 : 				return FALSE;
; 1890 : 			}
; 1891 : 			else
; 1892 : 			{
; 1893 : 				skill_level = NEW_GM_CHARACTER;
; 1894 : 			}
; 1895 : 		}
; 1896 : 	}
; 1897 : 
; 1898 : 	if( lpObj->pInventory[EQUIPMENT_RING_LEFT].IsItem() == TRUE )
; 1899 : 	{
; 1900 : 		if( lpObj->pInventory[EQUIPMENT_RING_LEFT].m_Type == MAKE_ITEMNUM( 13, 42 ) )
; 1901 : 		{
; 1902 : 			if( (lpObj->Authority&AUTHORITY_EVENT_GM) != AUTHORITY_EVENT_GM )
; 1903 : 			{
; 1904 : 				return FALSE;
; 1905 : 			}
; 1906 : 			else
; 1907 : 			{
; 1908 : 				skill_level = NEW_GM_CHARACTER;
; 1909 : 			}
; 1910 : 		}
; 1911 : 	}
; 1912 : #endif // UPDATE_GM_FUNCTION_20070228
; 1913 : 
; 1914 : #ifdef MODIFY_ILLUSION_TEMPLE_20070629	// 환영사원에서는 변신이 안풀리게
; 1915 : 	if(CHECK_ILLUSION_TEMPLE(lpObj->MapNumber) 
; 1916 : 		&& g_IllusionTempleEvent.GetIllusionTempleState(lpObj->MapNumber) != ILLUSION_TEMPLE_STATE_NONE)
; 1917 : 	{
; 1918 : 		int team = g_IllusionTempleEvent.GetUserTeam(lpObj->MapNumber, lpObj->m_Index);
; 1919 : 		if(team == TEAM_ALLIED)
; 1920 : 		{
; 1921 : 			skill_level = ALLIED_CHARACTER;
; 1922 : 		}
; 1923 : 		else if(team == TEAM_ILLUSION)
; 1924 : 		{
; 1925 : 			skill_level = ILLUSION_CHARACTER;
; 1926 : 		}
; 1927 : 	}
; 1928 : #endif
; 1929 : //------------->
; 1930 : //20081013 해외 크리스마스 이벤트 - 변신반지(grooving)
; 1931 : #ifdef ADD_XMASEVENT_POLYMORPH_RING_20080930
; 1932 : 	if( lpObj->pInventory[EQUIPMENT_RING_RIGHT].IsItem() == TRUE )
; 1933 : 	{
; 1934 : 		if( lpObj->pInventory[EQUIPMENT_RING_RIGHT].m_Type == MAKE_ITEMNUM( 13, 68 ) )
; 1935 : 		{
; 1936 : 			if( lpObj->pInventory[EQUIPMENT_RING_RIGHT].m_Durability < 1 )
; 1937 : 			{
; 1938 : 				skill_level = -1;
; 1939 : 			}
; 1940 : 			else
; 1941 : 			{
; 1942 : 				skill_level = 477;//Monster 스크립트 인덱스
; 1943 : 			}
; 1944 : 		}
; 1945 : 	}
; 1946 : 	if( lpObj->pInventory[EQUIPMENT_RING_LEFT].IsItem() == TRUE )
; 1947 : 	{
; 1948 : 		if( lpObj->pInventory[EQUIPMENT_RING_LEFT].m_Type == MAKE_ITEMNUM( 13, 68 ) )
; 1949 : 		{
; 1950 : 			if( lpObj->pInventory[EQUIPMENT_RING_LEFT].m_Durability < 1 )
; 1951 : 			{
; 1952 : 				skill_level = -1;
; 1953 : 			}
; 1954 : 			else
; 1955 : 			{
; 1956 : 				skill_level = 477;//Monster 스크립트 인덱스
; 1957 : 			}
; 1958 : 		}
; 1959 : 	}
; 1960 : #endif //ADD_XMASEVENT_POLYMORPH_RING_20080930
; 1961 : //<-------------
; 1962 : #ifdef ADD_PREMIUMITEM_PANDA
; 1963 : 	if( lpObj->pInventory[EQUIPMENT_RING_RIGHT].IsItem() == TRUE )
; 1964 : 	{
; 1965 : 		if( lpObj->pInventory[EQUIPMENT_RING_RIGHT].m_Type == MAKE_ITEMNUM( 13, 76 ) )
; 1966 : 		{
; 1967 : 			if( lpObj->pInventory[EQUIPMENT_RING_RIGHT].m_Durability < 1 )
; 1968 : 			{
; 1969 : 				skill_level = -1;
; 1970 : 			}
; 1971 : 			else
; 1972 : 			{
; 1973 : 				skill_level = 503;//Monster 스크립트 인덱스
; 1974 : 			}
; 1975 : 		}
; 1976 : 	}
; 1977 : 	if( lpObj->pInventory[EQUIPMENT_RING_LEFT].IsItem() == TRUE )
; 1978 : 	{
; 1979 : 		if( lpObj->pInventory[EQUIPMENT_RING_LEFT].m_Type == MAKE_ITEMNUM( 13, 76 ) )
; 1980 : 		{
; 1981 : 			if( lpObj->pInventory[EQUIPMENT_RING_LEFT].m_Durability < 1 )
; 1982 : 			{
; 1983 : 				skill_level = -1;
; 1984 : 			}
; 1985 : 			else
; 1986 : 			{
; 1987 : 				skill_level = 503;//Monster 스크립트 인덱스
; 1988 : 			}
; 1989 : 		}
; 1990 : 	}
; 1991 : #endif //ADD_PREMIUMITEM_PANDA
; 1992 : 	
; 1993 : #ifdef MODIFY_UPDATING_VIEWPORT_20050118
; 1994 : 	// 공성 시 반지를 버렸을 경우 캐릭을 다시 그리지 않는다.(방패/창때문)
; 1995 : 
; 1996 : 	// 자신의 공성 정보를 다시 보내서 방패/창을 다시 그리도록 한다. 
; 1997 : 	#ifndef MODIFY_VIEWPORT_REMOVE_CHANGE_RING_20051013
; 1998 : 		if( skill_level == -1 ) return FALSE;		
; 1999 : 	#endif
; 2000 : 		
; 2001 : #endif
; 2002 : 
; 2003 : 	int change=-1;

  0014f	c7 45 f0 ff ff
	ff ff		 mov	 DWORD PTR _change$[ebp], -1

; 2004 : 	switch( skill_level )

  00156	8b 45 f4	 mov	 eax, DWORD PTR _skill_level$[ebp]
  00159	89 45 ac	 mov	 DWORD PTR tv153[ebp], eax
  0015c	83 7d ac 05	 cmp	 DWORD PTR tv153[ebp], 5
  00160	77 40		 ja	 SHORT $LN20@SkillChang
  00162	8b 4d ac	 mov	 ecx, DWORD PTR tv153[ebp]
  00165	ff 24 8d 00 00
	00 00		 jmp	 DWORD PTR $LN24@SkillChang[ecx*4]
$LN14@SkillChang:

; 2005 : 	{
; 2006 : 		case 0 :  change = 2;	break;		// 버지드래곤

  0016c	c7 45 f0 02 00
	00 00		 mov	 DWORD PTR _change$[ebp], 2
  00173	eb 34		 jmp	 SHORT $LN2@SkillChang
$LN15@SkillChang:

; 2007 : 		case 1 :  change = 7;	break;		// 자이언트 

  00175	c7 45 f0 07 00
	00 00		 mov	 DWORD PTR _change$[ebp], 7
  0017c	eb 2b		 jmp	 SHORT $LN2@SkillChang
$LN16@SkillChang:

; 2008 : 		case 2 :  change = 14;	break;		// 해골전사

  0017e	c7 45 f0 0e 00
	00 00		 mov	 DWORD PTR _change$[ebp], 14 ; 0000000eH
  00185	eb 22		 jmp	 SHORT $LN2@SkillChang
$LN17@SkillChang:

; 2009 : 		case 3 :  change = 8;	break;		// 포이즌 소뿔전사

  00187	c7 45 f0 08 00
	00 00		 mov	 DWORD PTR _change$[ebp], 8
  0018e	eb 19		 jmp	 SHORT $LN2@SkillChang
$LN18@SkillChang:

; 2010 : 		case 4 :  change = 9;	break;		// 썬더 리치

  00190	c7 45 f0 09 00
	00 00		 mov	 DWORD PTR _change$[ebp], 9
  00197	eb 10		 jmp	 SHORT $LN2@SkillChang
$LN19@SkillChang:

; 2011 : 		case 5 :  change = 41;	break;		// 데쓰카우

  00199	c7 45 f0 29 00
	00 00		 mov	 DWORD PTR _change$[ebp], 41 ; 00000029H
  001a0	eb 07		 jmp	 SHORT $LN2@SkillChang
$LN20@SkillChang:

; 2012 : 
; 2013 : #ifdef EVENT_SERVER_OPEN_COMMEMORATION_20050510
; 2014 : 		case 6 :
; 2015 : 		{
; 2016 : 			if(lpObj->Authority & AUTHORITY_EVENT_GM) // 관리자 권한일 경우
; 2017 : 				change = 275; // 쿤둔 설정
; 2018 : 			else // 관리자 권한이 없다면 변신 캐릭터를 설정 하지 않는다.
; 2019 : 				return FALSE;
; 2020 : 		}
; 2021 : 		break;
; 2022 : #endif // EVENT_SERVER_OPEN_COMMEMORATION_20050510
; 2023 : 
; 2024 : #ifdef ADD_ELITE_SKELETON_WORRIOR_CHANGE_RING_20060830	// 엘리트해골전사변신반지 착용 처리
; 2025 : 		case 372:					// 엘리트해골전사변신반지
; 2026 : 			change = skill_level;
; 2027 : 			break;
; 2028 : #endif
; 2029 : 			
; 2030 : #ifdef HALLOWINDAY_JACK_O_LANTERN_MORPH_RING_20061017
; 2031 : 		case 373:
; 2032 : 			change = skill_level;
; 2033 : 			break;
; 2034 : #endif // HALLOWINDAY_JACK_O_LANTERN_MORPH_RING_20061017
; 2035 : 
; 2036 : 
; 2037 : #ifdef CHRISTMAS_SANTA_POLYMORPH_RING_20061117
; 2038 : 		case 374:
; 2039 : 			change = skill_level;
; 2040 : 			break;
; 2041 : #endif // CHRISTMAS_SANTA_POLYMORPH_RING_20061117
; 2042 : 
; 2043 : #ifdef UPDATE_GM_FUNCTION_20070228
; 2044 : 		case NEW_GM_CHARACTER:
; 2045 : 			change = skill_level;
; 2046 : 			break;
; 2047 : #endif 
; 2048 : 
; 2049 : #ifdef MODIFY_ILLUSION_TEMPLE_20070629	// 환영사원에서는 변신이 안풀리게
; 2050 : 		case ALLIED_CHARACTER:
; 2051 : 		case ILLUSION_CHARACTER:
; 2052 : 			change = skill_level;
; 2053 : 			break;
; 2054 : #endif
; 2055 : //------------->
; 2056 : //20081013 해외 크리스마스 이벤트 - 변신반지(grooving)
; 2057 : #ifdef ADD_XMASEVENT_POLYMORPH_RING_20080930
; 2058 : 		case 477:
; 2059 : 			change = skill_level;
; 2060 : 			break;
; 2061 : 			
; 2062 : #endif //ADD_XMASEVENT_POLYMORPH_RING_20080930
; 2063 : //<-------------
; 2064 : #ifdef ADD_PREMIUMITEM_PANDA
; 2065 : 		case 503:
; 2066 : 			change = skill_level;
; 2067 : 			break;
; 2068 : #endif // ADD_PREMIUMITEM_PANDA
; 2069 : 		default : change = -1; break;

  001a2	c7 45 f0 ff ff
	ff ff		 mov	 DWORD PTR _change$[ebp], -1
$LN2@SkillChang:

; 2070 : 	}
; 2071 : 
; 2072 : 	if( lpObj->m_Change >= 0 && lpObj->m_Change == change) return FALSE;

  001a9	8b 45 f8	 mov	 eax, DWORD PTR _lpObj$[ebp]
  001ac	83 b8 a8 02 00
	00 00		 cmp	 DWORD PTR [eax+680], 0
  001b3	7c 15		 jl	 SHORT $LN21@SkillChang
  001b5	8b 45 f8	 mov	 eax, DWORD PTR _lpObj$[ebp]
  001b8	8b 88 a8 02 00
	00		 mov	 ecx, DWORD PTR [eax+680]
  001be	3b 4d f0	 cmp	 ecx, DWORD PTR _change$[ebp]
  001c1	75 07		 jne	 SHORT $LN21@SkillChang
  001c3	33 c0		 xor	 eax, eax
  001c5	e9 93 00 00 00	 jmp	 $LN1@SkillChang
$LN21@SkillChang:

; 2073 : 	if( lpObj->m_Change == 41 && change != 41 ) 

  001ca	8b 45 f8	 mov	 eax, DWORD PTR _lpObj$[ebp]
  001cd	83 b8 a8 02 00
	00 29		 cmp	 DWORD PTR [eax+680], 41	; 00000029H
  001d4	75 6a		 jne	 SHORT $LN22@SkillChang
  001d6	83 7d f0 29	 cmp	 DWORD PTR _change$[ebp], 41 ; 00000029H
  001da	74 64		 je	 SHORT $LN22@SkillChang

; 2074 : 	{
; 2075 : 		lpObj->AddLife =  0;

  001dc	8b 45 f8	 mov	 eax, DWORD PTR _lpObj$[ebp]
  001df	c7 80 0c 01 00
	00 00 00 00 00	 mov	 DWORD PTR [eax+268], 0

; 2076 : 
; 2077 : #ifdef ADD_SHIELD_POINT_01_20060403
; 2078 : 		GCReFillSend(lpObj->m_Index, (WORD)(lpObj->Life), 0xFF, 0, (WORD)lpObj->iShield);
; 2079 : 		GCReFillSend(lpObj->m_Index, (WORD)(lpObj->MaxLife+lpObj->AddLife), 0xFE, 0, (WORD)(lpObj->iMaxShield+lpObj->iAddShield));
; 2080 : #else
; 2081 : 		GCReFillSend(lpObj->m_Index, (WORD)(lpObj->Life), 0xFF, 0);

  001e9	6a 00		 push	 0
  001eb	68 ff 00 00 00	 push	 255			; 000000ffH
  001f0	8b 45 f8	 mov	 eax, DWORD PTR _lpObj$[ebp]
  001f3	f3 0f 2c 88 bc
	00 00 00	 cvttss2si ecx, DWORD PTR [eax+188]
  001fb	0f b7 d1	 movzx	 edx, cx
  001fe	52		 push	 edx
  001ff	8b 45 f8	 mov	 eax, DWORD PTR _lpObj$[ebp]
  00202	8b 08		 mov	 ecx, DWORD PTR [eax]
  00204	51		 push	 ecx
  00205	e8 00 00 00 00	 call	 ?GCReFillSend@@YAXHGEE@Z ; GCReFillSend
  0020a	83 c4 10	 add	 esp, 16			; 00000010H

; 2082 : 		GCReFillSend(lpObj->m_Index, (WORD)(lpObj->MaxLife+lpObj->AddLife), 0xFE, 0);

  0020d	6a 00		 push	 0
  0020f	68 fe 00 00 00	 push	 254			; 000000feH
  00214	8b 45 f8	 mov	 eax, DWORD PTR _lpObj$[ebp]
  00217	f3 0f 2a 80 0c
	01 00 00	 cvtsi2ss xmm0, DWORD PTR [eax+268]
  0021f	8b 4d f8	 mov	 ecx, DWORD PTR _lpObj$[ebp]
  00222	f3 0f 58 81 c0
	00 00 00	 addss	 xmm0, DWORD PTR [ecx+192]
  0022a	f3 0f 2c d0	 cvttss2si edx, xmm0
  0022e	0f b7 c2	 movzx	 eax, dx
  00231	50		 push	 eax
  00232	8b 4d f8	 mov	 ecx, DWORD PTR _lpObj$[ebp]
  00235	8b 11		 mov	 edx, DWORD PTR [ecx]
  00237	52		 push	 edx
  00238	e8 00 00 00 00	 call	 ?GCReFillSend@@YAXHGEE@Z ; GCReFillSend
  0023d	83 c4 10	 add	 esp, 16			; 00000010H
$LN22@SkillChang:

; 2083 : #endif
; 2084 : 	}
; 2085 : 
; 2086 : #ifdef ADD_ELITE_SKELETON_WORRIOR_CHANGE_RING_20060830	// 벗을 때 추가 HP, 방어력 삭제
; 2087 : 	if( lpObj->m_Change == 372 && change != 372 )
; 2088 : 	{
; 2089 : 		lpObj->AddLife =  0;
; 2090 : 		gObjCalCharacter( lpObj->m_Index );
; 2091 : 
; 2092 : #ifdef ADD_SHIELD_POINT_01_20060403
; 2093 : 		GCReFillSend( lpObj->m_Index, ( WORD )( lpObj->Life ), 0xFF, 0, ( WORD )lpObj->iShield );
; 2094 : 		GCReFillSend( lpObj->m_Index, ( WORD )( lpObj->MaxLife+lpObj->AddLife ), 0xFE, 0, ( WORD )( lpObj->iMaxShield + lpObj->iAddShield ) );
; 2095 : #else
; 2096 : 		GCReFillSend( lpObj->m_Index, ( WORD )( lpObj->Life ), 0xFF, 0 );
; 2097 : 		GCReFillSend( lpObj->m_Index, ( WORD )( lpObj->MaxLife + lpObj->AddLife ), 0xFE, 0 );
; 2098 : #endif
; 2099 : 	}
; 2100 : #endif	// ADD_ELITE_SKELETON_WORRIOR_CHANGE_RING_20060830
; 2101 : 
; 2102 : #ifdef CHRISTMAS_SANTA_POLYMORPH_RING_20061117
; 2103 : 	if( lpObj->m_Change == 374 && change != 374 )
; 2104 : 	{
; 2105 : 		lpObj->m_AttackDamageMaxLeft	-= 20;
; 2106 : 		lpObj->m_AttackDamageMinLeft	-= 20;
; 2107 : 		lpObj->m_AttackDamageMaxRight	-= 20;
; 2108 : 		lpObj->m_AttackDamageMinRight	-= 20;
; 2109 : 		lpObj->m_MagicDamageMin			-= 20;
; 2110 : 		lpObj->m_MagicDamageMax			-= 20;
; 2111 : 	}
; 2112 : #endif // CHRISTMAS_SANTA_POLYMORPH_RING_20061117
; 2113 : 		 
; 2114 : 	lpObj->m_Change = change;	

  00240	8b 45 f8	 mov	 eax, DWORD PTR _lpObj$[ebp]
  00243	8b 4d f0	 mov	 ecx, DWORD PTR _change$[ebp]
  00246	89 88 a8 02 00
	00		 mov	 DWORD PTR [eax+680], ecx

; 2115 : 	gObjViewportListProtocolCreate(lpObj);

  0024c	8b 45 f8	 mov	 eax, DWORD PTR _lpObj$[ebp]
  0024f	50		 push	 eax
  00250	e8 00 00 00 00	 call	 ?gObjViewportListProtocolCreate@@YAXPAVOBJECTSTRUCT@@@Z ; gObjViewportListProtocolCreate
  00255	83 c4 04	 add	 esp, 4

; 2116 : 
; 2117 : #ifdef MODIFY_VIEWPORT_REMOVE_CHANGE_RING_20051013
; 2118 : 	#ifdef CASTLE_SIEGE_ONLY_PATCH_20041018
; 2119 : 		g_CastleSiege.NotifySelfCsJoinSide (lpObj->m_Index);
; 2120 : 	#endif
; 2121 : #endif
; 2122 : 
; 2123 : #ifdef MODIFY_KILL_COUNT_BUGFIX_20060908
; 2124 : 	// 킬카운트 정보를 보내준다.(클라이언트 보완)
; 2125 : 	PMSG_KILLCOUNT pMsg = { 0, };
; 2126 : 	PHeadSubSetB( ( LPBYTE )&pMsg, 0xB8, 0x01, sizeof( pMsg ) );
; 2127 : 
; 2128 : 	pMsg.btKillCount = lpObj->m_btKillCount;
; 2129 : 	DataSend( aIndex, ( LPBYTE )&pMsg, sizeof( pMsg ) );
; 2130 : #endif
; 2131 : 
; 2132 : 	return TRUE;

  00258	b8 01 00 00 00	 mov	 eax, 1
$LN1@SkillChang:

; 2133 : }

  0025d	5f		 pop	 edi
  0025e	5e		 pop	 esi
  0025f	5b		 pop	 ebx
  00260	8b e5		 mov	 esp, ebp
  00262	5d		 pop	 ebp
  00263	c2 04 00	 ret	 4
  00266	66 90		 npad	 2
$LN24@SkillChang:
  00268	00 00 00 00	 DD	 $LN14@SkillChang
  0026c	00 00 00 00	 DD	 $LN15@SkillChang
  00270	00 00 00 00	 DD	 $LN16@SkillChang
  00274	00 00 00 00	 DD	 $LN17@SkillChang
  00278	00 00 00 00	 DD	 $LN18@SkillChang
  0027c	00 00 00 00	 DD	 $LN19@SkillChang
?SkillChangeUse@CObjUseSkill@@QAEHH@Z ENDP		; CObjUseSkill::SkillChangeUse
_TEXT	ENDS
; Function compile flags: /Odtp /ZI
; File C:\Mu Online\Mu-GS-Webzen-MC-10093\GameServer\ObjUseSkill.cpp
;	COMDAT ?SkillAttack@CObjUseSkill@@QAEXHHH@Z
_TEXT	SEGMENT
tv85 = -92						; size = 4
tv86 = -88						; size = 4
_skill_attack$ = -20					; size = 4
_lpTargetObj$ = -16					; size = 4
_lpObj$ = -12						; size = 4
_skillSuccess$ = -8					; size = 4
_this$ = -4						; size = 4
_aIndex$ = 8						; size = 4
_aTargetIndex$ = 12					; size = 4
_skill_level$ = 16					; size = 4
?SkillAttack@CObjUseSkill@@QAEXHHH@Z PROC		; CObjUseSkill::SkillAttack, COMDAT
; _this$ = ecx

; 1671 : {

  00000	55		 push	 ebp
  00001	8b ec		 mov	 ebp, esp
  00003	83 ec 5c	 sub	 esp, 92			; 0000005cH
  00006	53		 push	 ebx
  00007	56		 push	 esi
  00008	57		 push	 edi
  00009	89 4d fc	 mov	 DWORD PTR _this$[ebp], ecx

; 1672 : 	int skillSuccess = 1;

  0000c	c7 45 f8 01 00
	00 00		 mov	 DWORD PTR _skillSuccess$[ebp], 1

; 1673 : 	LPOBJECTSTRUCT lpObj= &gObj[aIndex];	

  00013	69 45 08 a0 1b
	00 00		 imul	 eax, DWORD PTR _aIndex$[ebp], 7072
  0001a	03 05 00 00 00
	00		 add	 eax, DWORD PTR ?gObj@@3PAVOBJECTSTRUCT@@A ; gObj
  00020	89 45 f4	 mov	 DWORD PTR _lpObj$[ebp], eax

; 1674 : 	LPOBJECTSTRUCT lpTargetObj= &gObj[aTargetIndex];

  00023	69 45 0c a0 1b
	00 00		 imul	 eax, DWORD PTR _aTargetIndex$[ebp], 7072
  0002a	03 05 00 00 00
	00		 add	 eax, DWORD PTR ?gObj@@3PAVOBJECTSTRUCT@@A ; gObj
  00030	89 45 f0	 mov	 DWORD PTR _lpTargetObj$[ebp], eax

; 1675 : 	
; 1676 : 	float skill_attack;
; 1677 : 
; 1678 : 	if( lpTargetObj->Type != OBJTYPE_CHARACTER) 

  00033	8b 45 f0	 mov	 eax, DWORD PTR _lpTargetObj$[ebp]
  00036	0f b7 48 64	 movzx	 ecx, WORD PTR [eax+100]
  0003a	83 f9 01	 cmp	 ecx, 1
  0003d	74 11		 je	 SHORT $LN3@SkillAttac

; 1679 : 		if( lpTargetObj->m_RecallMon == -1 ) return;

  0003f	8b 45 f0	 mov	 eax, DWORD PTR _lpTargetObj$[ebp]
  00042	83 b8 a4 02 00
	00 ff		 cmp	 DWORD PTR [eax+676], -1
  00049	75 05		 jne	 SHORT $LN3@SkillAttac
  0004b	e9 74 01 00 00	 jmp	 $LN1@SkillAttac
$LN3@SkillAttac:

; 1680 : 
; 1681 : 	if( lpObj->m_bBuffHelper == false && lpObj->Class != CLASS_ELF ) return;

  00050	8b 45 f4	 mov	 eax, DWORD PTR _lpObj$[ebp]
  00053	0f b6 88 84 1a
	00 00		 movzx	 ecx, BYTE PTR [eax+6788]
  0005a	85 c9		 test	 ecx, ecx
  0005c	75 14		 jne	 SHORT $LN4@SkillAttac
  0005e	8b 45 f4	 mov	 eax, DWORD PTR _lpObj$[ebp]
  00061	0f b7 88 9c 00
	00 00		 movzx	 ecx, WORD PTR [eax+156]
  00068	83 f9 02	 cmp	 ecx, 2
  0006b	74 05		 je	 SHORT $LN4@SkillAttac
  0006d	e9 52 01 00 00	 jmp	 $LN1@SkillAttac
$LN4@SkillAttac:

; 1682 : 
; 1683 : #ifdef CHAOSCASTLE_SYSTEM_20040408		// 카오스 캐슬에서는 요정에 공격력 향상을 자신에게만 해줄 수 있다.
; 1684 : 	#ifndef WORLD_TOURNAMENT_EVENT_SETTING			
; 1685 : 		if(CHECK_CHAOSCASTLE(lpObj->MapNumber)) {

  00072	8b 45 f4	 mov	 eax, DWORD PTR _lpObj$[ebp]
  00075	0f b6 88 09 01
	00 00		 movzx	 ecx, BYTE PTR [eax+265]
  0007c	83 f9 12	 cmp	 ecx, 18			; 00000012H
  0007f	7d 09		 jge	 SHORT $LN15@SkillAttac
  00081	c7 45 a8 00 00
	00 00		 mov	 DWORD PTR tv86[ebp], 0
  00088	eb 25		 jmp	 SHORT $LN16@SkillAttac
$LN15@SkillAttac:
  0008a	8b 55 f4	 mov	 edx, DWORD PTR _lpObj$[ebp]
  0008d	0f b6 82 09 01
	00 00		 movzx	 eax, BYTE PTR [edx+265]
  00094	83 f8 17	 cmp	 eax, 23			; 00000017H
  00097	7e 09		 jle	 SHORT $LN13@SkillAttac
  00099	c7 45 a4 00 00
	00 00		 mov	 DWORD PTR tv85[ebp], 0
  000a0	eb 07		 jmp	 SHORT $LN14@SkillAttac
$LN13@SkillAttac:
  000a2	c7 45 a4 01 00
	00 00		 mov	 DWORD PTR tv85[ebp], 1
$LN14@SkillAttac:
  000a9	8b 4d a4	 mov	 ecx, DWORD PTR tv85[ebp]
  000ac	89 4d a8	 mov	 DWORD PTR tv86[ebp], ecx
$LN16@SkillAttac:
  000af	83 7d a8 00	 cmp	 DWORD PTR tv86[ebp], 0
  000b3	74 11		 je	 SHORT $LN6@SkillAttac

; 1686 : 			if (lpObj->m_Index != lpTargetObj->m_Index)

  000b5	8b 45 f4	 mov	 eax, DWORD PTR _lpObj$[ebp]
  000b8	8b 4d f0	 mov	 ecx, DWORD PTR _lpTargetObj$[ebp]
  000bb	8b 10		 mov	 edx, DWORD PTR [eax]
  000bd	3b 11		 cmp	 edx, DWORD PTR [ecx]
  000bf	74 05		 je	 SHORT $LN6@SkillAttac

; 1687 : 				return;

  000c1	e9 fe 00 00 00	 jmp	 $LN1@SkillAttac
$LN6@SkillAttac:

; 1688 : 		}
; 1689 : 	#endif
; 1690 : #endif
; 1691 : 
; 1692 : 	if( skill_level < 0 || skill_level > 7 ) skill_level = 0;

  000c6	83 7d 10 00	 cmp	 DWORD PTR _skill_level$[ebp], 0
  000ca	7c 06		 jl	 SHORT $LN8@SkillAttac
  000cc	83 7d 10 07	 cmp	 DWORD PTR _skill_level$[ebp], 7
  000d0	7e 07		 jle	 SHORT $LN7@SkillAttac
$LN8@SkillAttac:
  000d2	c7 45 10 00 00
	00 00		 mov	 DWORD PTR _skill_level$[ebp], 0
$LN7@SkillAttac:

; 1693 : 
; 1694 : 	skill_attack = ((skill_level+1)*3+((float)(lpObj->Energy+lpObj->AddEnergy)/7))*g_GlobalConfig.m_fPlusDmg;

  000d9	8b 45 10	 mov	 eax, DWORD PTR _skill_level$[ebp]
  000dc	83 c0 01	 add	 eax, 1
  000df	6b c8 03	 imul	 ecx, eax, 3
  000e2	f3 0f 2a c1	 cvtsi2ss xmm0, ecx
  000e6	8b 55 f4	 mov	 edx, DWORD PTR _lpObj$[ebp]
  000e9	0f b7 82 ba 00
	00 00		 movzx	 eax, WORD PTR [edx+186]
  000f0	8b 4d f4	 mov	 ecx, DWORD PTR _lpObj$[ebp]
  000f3	0f b7 91 e6 00
	00 00		 movzx	 edx, WORD PTR [ecx+230]
  000fa	03 c2		 add	 eax, edx
  000fc	f3 0f 2a c8	 cvtsi2ss xmm1, eax
  00100	f3 0f 5e 0d 00
	00 00 00	 divss	 xmm1, DWORD PTR __real@40e00000
  00108	f3 0f 58 c1	 addss	 xmm0, xmm1
  0010c	f3 0f 59 05 f4
	00 00 00	 mulss	 xmm0, DWORD PTR ?g_GlobalConfig@@3VCGlobalConfig@@A+244
  00114	f3 0f 11 45 ec	 movss	 DWORD PTR _skill_attack$[ebp], xmm0

; 1695 : 
; 1696 : 	//LogAdd("공격력증가 마법 사용 1 : %f", skill_attack);
; 1697 : 	// 기사의 경우 -10%, +10% 의 영향을 준다.
; 1698 : 	if( lpTargetObj->Class == CLASS_KNIGHT )

  00119	8b 45 f0	 mov	 eax, DWORD PTR _lpTargetObj$[ebp]
  0011c	0f b7 88 9c 00
	00 00		 movzx	 ecx, WORD PTR [eax+156]
  00123	83 f9 01	 cmp	 ecx, 1
  00126	75 17		 jne	 SHORT $LN9@SkillAttac

; 1699 : 	{
; 1700 : 		skill_attack += (skill_attack/10);

  00128	f3 0f 10 45 ec	 movss	 xmm0, DWORD PTR _skill_attack$[ebp]
  0012d	f3 0f 5e 05 00
	00 00 00	 divss	 xmm0, DWORD PTR __real@41200000
  00135	f3 0f 58 45 ec	 addss	 xmm0, DWORD PTR _skill_attack$[ebp]
  0013a	f3 0f 11 45 ec	 movss	 DWORD PTR _skill_attack$[ebp], xmm0
$LN9@SkillAttac:

; 1701 : 	}
; 1702 : 	//LogAdd("공격력증가 마법 사용 2 : %f", skill_attack);
; 1703 : 
; 1704 : #ifdef MODIFY_OLD_BUFF_EFFECT_SYSTEM_20071004
; 1705 : 	if( gObjCheckPowerfulEffect( lpTargetObj, BUFFTYPE_ATTACK_POWER_INC, skill_attack, 0 ) == true )
; 1706 : 	{
; 1707 : 		GCMagicAttackNumberSend( lpObj, AT_SKILL_ATTACK, lpTargetObj->m_Index, 0 );	// 스킬사용 실패
; 1708 : 		return;
; 1709 : 	}
; 1710 : 
; 1711 : 	gObjAddBuffEffect( lpTargetObj, BUFFTYPE_ATTACK_POWER_INC, EFFECTTYPE_IMPROVE_DAMAGE, skill_attack, 0, 0, 60 );
; 1712 : #else
; 1713 : 	#ifdef MODIFY_ELF_DEFENCE_ATTACK_VALUE_UP_SKILL_20070110
; 1714 : 	// 이미 적용된 수치보다 낮으면 적용/갱신하지 않는다.
; 1715 : 	if( lpTargetObj->m_SkillAttack > skill_attack )
; 1716 : 	{
; 1717 : 		GCMagicAttackNumberSend( lpObj, AT_SKILL_ATTACK, lpTargetObj->m_Index, 0 );	// 스킬사용 실패
; 1718 : 		return;
; 1719 : 	}
; 1720 : 	#endif
; 1721 : 
; 1722 : 	lpTargetObj->m_SkillAttack = (int)skill_attack;

  0013f	f3 0f 2c 45 ec	 cvttss2si eax, DWORD PTR _skill_attack$[ebp]
  00144	8b 4d f0	 mov	 ecx, DWORD PTR _lpTargetObj$[ebp]
  00147	89 81 24 1a 00
	00		 mov	 DWORD PTR [ecx+6692], eax

; 1723 : 
; 1724 : 	if(lpObj->m_bBuffHelper == true)

  0014d	8b 45 f4	 mov	 eax, DWORD PTR _lpObj$[ebp]
  00150	0f b6 88 84 1a
	00 00		 movzx	 ecx, BYTE PTR [eax+6788]
  00157	83 f9 01	 cmp	 ecx, 1
  0015a	75 1d		 jne	 SHORT $LN10@SkillAttac

; 1725 : 		lpTargetObj->m_SkillAttackTime = GetTickCount()+(g_BuffHelper.m_iAuraTime*1000);

  0015c	ff 15 00 00 00
	00		 call	 DWORD PTR __imp__GetTickCount@0
  00162	69 0d 0c 00 00
	00 e8 03 00 00	 imul	 ecx, DWORD PTR ?g_BuffHelper@@3VCBuffHelper@@A+12, 1000
  0016c	03 c1		 add	 eax, ecx
  0016e	8b 55 f0	 mov	 edx, DWORD PTR _lpTargetObj$[ebp]
  00171	89 82 28 1a 00
	00		 mov	 DWORD PTR [edx+6696], eax
  00177	eb 1b		 jmp	 SHORT $LN11@SkillAttac
$LN10@SkillAttac:

; 1726 : 	else
; 1727 : 		lpTargetObj->m_SkillAttackTime = GetTickCount()+(g_GlobalConfig.m_iDamageAuraTime*1000);

  00179	ff 15 00 00 00
	00		 call	 DWORD PTR __imp__GetTickCount@0
  0017f	69 0d fc 03 00
	00 e8 03 00 00	 imul	 ecx, DWORD PTR ?g_GlobalConfig@@3VCGlobalConfig@@A+1020, 1000
  00189	03 c1		 add	 eax, ecx
  0018b	8b 55 f0	 mov	 edx, DWORD PTR _lpTargetObj$[ebp]
  0018e	89 82 28 1a 00
	00		 mov	 DWORD PTR [edx+6696], eax
$LN11@SkillAttac:

; 1728 : 
; 1729 : #ifdef EXPAND_VIEWSKILLSTATE_WORD_TO_INT_20041122
; 1730 : 	ADD_VIEWSKILLSTATE( lpTargetObj->m_ViewSkillState, STATE_ATTACK );
; 1731 : #else
; 1732 : 	lpTargetObj->m_ViewSkillState |= 0x04;	//	3번째 비트 : 요정 공격력 증가 표시

  00194	8b 45 f0	 mov	 eax, DWORD PTR _lpTargetObj$[ebp]
  00197	0f b7 88 c0 01
	00 00		 movzx	 ecx, WORD PTR [eax+448]
  0019e	83 c9 04	 or	 ecx, 4
  001a1	8b 55 f0	 mov	 edx, DWORD PTR _lpTargetObj$[ebp]
  001a4	66 89 8a c0 01
	00 00		 mov	 WORD PTR [edx+448], cx

; 1733 : #endif
; 1734 : 
; 1735 : #endif // MODIFY_OLD_BUFF_EFFECT_SYSTEM_20071004
; 1736 : 
; 1737 : 	
; 1738 : #ifdef ADD_NEW_MONSTER_SYSTEM_02_20050725
; 1739 : 	// 공격력 증가 사용 시 Target을 보고 있는 몬스터의 Agro를 증가 시켜준다.
; 1740 : 	for( int n=0; n<MAXVIEWPORTOBJECT; n++ )
; 1741 : 	{
; 1742 : 		if( lpObj->VpPlayer2[n].type == OBJTYPE_MONSTER )
; 1743 : 		{
; 1744 : 			if( lpObj->VpPlayer2[n].state )
; 1745 : 			{
; 1746 : 				LPOBJECTSTRUCT lpMonster = &gObj[lpObj->VpPlayer2[n].number];
; 1747 : 
; 1748 : 				if( lpMonster->m_iCurrentAI )
; 1749 : 					lpMonster->m_Agro.IncAgro(lpObj->m_Index, (int)skill_attack / 10);
; 1750 : 			}
; 1751 : 		}
; 1752 : 	}
; 1753 : 
; 1754 : 
; 1755 : #endif
; 1756 : 
; 1757 : 	GCMagicAttackNumberSend(lpObj, AT_SKILL_ATTACK, lpTargetObj->m_Index, skillSuccess);

  001ab	0f b6 45 f8	 movzx	 eax, BYTE PTR _skillSuccess$[ebp]
  001af	50		 push	 eax
  001b0	8b 4d f0	 mov	 ecx, DWORD PTR _lpTargetObj$[ebp]
  001b3	8b 11		 mov	 edx, DWORD PTR [ecx]
  001b5	52		 push	 edx
  001b6	6a 1c		 push	 28			; 0000001cH
  001b8	8b 45 f4	 mov	 eax, DWORD PTR _lpObj$[ebp]
  001bb	50		 push	 eax
  001bc	e8 00 00 00 00	 call	 ?GCMagicAttackNumberSend@@YAXPAVOBJECTSTRUCT@@EHE@Z ; GCMagicAttackNumberSend
  001c1	83 c4 10	 add	 esp, 16			; 00000010H
$LN1@SkillAttac:

; 1758 : }

  001c4	5f		 pop	 edi
  001c5	5e		 pop	 esi
  001c6	5b		 pop	 ebx
  001c7	8b e5		 mov	 esp, ebp
  001c9	5d		 pop	 ebp
  001ca	c2 0c 00	 ret	 12			; 0000000cH
?SkillAttack@CObjUseSkill@@QAEXHHH@Z ENDP		; CObjUseSkill::SkillAttack
_TEXT	ENDS
; Function compile flags: /Odtp /ZI
; File C:\Mu Online\Mu-GS-Webzen-MC-10093\GameServer\ObjUseSkill.cpp
;	COMDAT ?SkillDefense@CObjUseSkill@@QAEXHHH@Z
_TEXT	SEGMENT
tv85 = -92						; size = 4
tv86 = -88						; size = 4
_skill_defense$ = -20					; size = 4
_lpTargetObj$ = -16					; size = 4
_lpObj$ = -12						; size = 4
_skillSuccess$ = -8					; size = 4
_this$ = -4						; size = 4
_aIndex$ = 8						; size = 4
_aTargetIndex$ = 12					; size = 4
_skill_level$ = 16					; size = 4
?SkillDefense@CObjUseSkill@@QAEXHHH@Z PROC		; CObjUseSkill::SkillDefense, COMDAT
; _this$ = ecx

; 1583 : {

  00000	55		 push	 ebp
  00001	8b ec		 mov	 ebp, esp
  00003	83 ec 5c	 sub	 esp, 92			; 0000005cH
  00006	53		 push	 ebx
  00007	56		 push	 esi
  00008	57		 push	 edi
  00009	89 4d fc	 mov	 DWORD PTR _this$[ebp], ecx

; 1584 : 	int skillSuccess = 1;

  0000c	c7 45 f8 01 00
	00 00		 mov	 DWORD PTR _skillSuccess$[ebp], 1

; 1585 : 	LPOBJECTSTRUCT lpObj= &gObj[aIndex];	

  00013	69 45 08 a0 1b
	00 00		 imul	 eax, DWORD PTR _aIndex$[ebp], 7072
  0001a	03 05 00 00 00
	00		 add	 eax, DWORD PTR ?gObj@@3PAVOBJECTSTRUCT@@A ; gObj
  00020	89 45 f4	 mov	 DWORD PTR _lpObj$[ebp], eax

; 1586 : 	LPOBJECTSTRUCT lpTargetObj= &gObj[aTargetIndex];

  00023	69 45 0c a0 1b
	00 00		 imul	 eax, DWORD PTR _aTargetIndex$[ebp], 7072
  0002a	03 05 00 00 00
	00		 add	 eax, DWORD PTR ?gObj@@3PAVOBJECTSTRUCT@@A ; gObj
  00030	89 45 f0	 mov	 DWORD PTR _lpTargetObj$[ebp], eax

; 1587 : 
; 1588 : 	float skill_defense;
; 1589 : 
; 1590 : 	if( lpTargetObj->Type != OBJTYPE_CHARACTER) 

  00033	8b 45 f0	 mov	 eax, DWORD PTR _lpTargetObj$[ebp]
  00036	0f b7 48 64	 movzx	 ecx, WORD PTR [eax+100]
  0003a	83 f9 01	 cmp	 ecx, 1
  0003d	74 11		 je	 SHORT $LN3@SkillDefen

; 1591 : 		if( lpTargetObj->m_RecallMon == -1 ) return;

  0003f	8b 45 f0	 mov	 eax, DWORD PTR _lpTargetObj$[ebp]
  00042	83 b8 a4 02 00
	00 ff		 cmp	 DWORD PTR [eax+676], -1
  00049	75 05		 jne	 SHORT $LN3@SkillDefen
  0004b	e9 75 01 00 00	 jmp	 $LN1@SkillDefen
$LN3@SkillDefen:

; 1592 : 
; 1593 : 	if( lpObj->m_bBuffHelper == false && lpObj->Class != CLASS_ELF ) return;

  00050	8b 45 f4	 mov	 eax, DWORD PTR _lpObj$[ebp]
  00053	0f b6 88 84 1a
	00 00		 movzx	 ecx, BYTE PTR [eax+6788]
  0005a	85 c9		 test	 ecx, ecx
  0005c	75 14		 jne	 SHORT $LN4@SkillDefen
  0005e	8b 45 f4	 mov	 eax, DWORD PTR _lpObj$[ebp]
  00061	0f b7 88 9c 00
	00 00		 movzx	 ecx, WORD PTR [eax+156]
  00068	83 f9 02	 cmp	 ecx, 2
  0006b	74 05		 je	 SHORT $LN4@SkillDefen
  0006d	e9 53 01 00 00	 jmp	 $LN1@SkillDefen
$LN4@SkillDefen:

; 1594 : 
; 1595 : #ifdef CHAOSCASTLE_SYSTEM_20040408		// 카오스 캐슬에서는 요정에 방어력향상을 자신에게만 해줄 수 있다.
; 1596 : 	#ifndef WORLD_TOURNAMENT_EVENT_SETTING			
; 1597 : 		if(CHECK_CHAOSCASTLE(lpObj->MapNumber)) {

  00072	8b 45 f4	 mov	 eax, DWORD PTR _lpObj$[ebp]
  00075	0f b6 88 09 01
	00 00		 movzx	 ecx, BYTE PTR [eax+265]
  0007c	83 f9 12	 cmp	 ecx, 18			; 00000012H
  0007f	7d 09		 jge	 SHORT $LN15@SkillDefen
  00081	c7 45 a8 00 00
	00 00		 mov	 DWORD PTR tv86[ebp], 0
  00088	eb 25		 jmp	 SHORT $LN16@SkillDefen
$LN15@SkillDefen:
  0008a	8b 55 f4	 mov	 edx, DWORD PTR _lpObj$[ebp]
  0008d	0f b6 82 09 01
	00 00		 movzx	 eax, BYTE PTR [edx+265]
  00094	83 f8 17	 cmp	 eax, 23			; 00000017H
  00097	7e 09		 jle	 SHORT $LN13@SkillDefen
  00099	c7 45 a4 00 00
	00 00		 mov	 DWORD PTR tv85[ebp], 0
  000a0	eb 07		 jmp	 SHORT $LN14@SkillDefen
$LN13@SkillDefen:
  000a2	c7 45 a4 01 00
	00 00		 mov	 DWORD PTR tv85[ebp], 1
$LN14@SkillDefen:
  000a9	8b 4d a4	 mov	 ecx, DWORD PTR tv85[ebp]
  000ac	89 4d a8	 mov	 DWORD PTR tv86[ebp], ecx
$LN16@SkillDefen:
  000af	83 7d a8 00	 cmp	 DWORD PTR tv86[ebp], 0
  000b3	74 11		 je	 SHORT $LN6@SkillDefen

; 1598 : 			if (lpObj->m_Index != lpTargetObj->m_Index)

  000b5	8b 45 f4	 mov	 eax, DWORD PTR _lpObj$[ebp]
  000b8	8b 4d f0	 mov	 ecx, DWORD PTR _lpTargetObj$[ebp]
  000bb	8b 10		 mov	 edx, DWORD PTR [eax]
  000bd	3b 11		 cmp	 edx, DWORD PTR [ecx]
  000bf	74 05		 je	 SHORT $LN6@SkillDefen

; 1599 : 				return;

  000c1	e9 ff 00 00 00	 jmp	 $LN1@SkillDefen
$LN6@SkillDefen:

; 1600 : 		}
; 1601 : 	#endif
; 1602 : #endif
; 1603 : 
; 1604 : 	if( skill_level < 0 || skill_level > 7 ) skill_level = 0;

  000c6	83 7d 10 00	 cmp	 DWORD PTR _skill_level$[ebp], 0
  000ca	7c 06		 jl	 SHORT $LN8@SkillDefen
  000cc	83 7d 10 07	 cmp	 DWORD PTR _skill_level$[ebp], 7
  000d0	7e 07		 jle	 SHORT $LN7@SkillDefen
$LN8@SkillDefen:
  000d2	c7 45 10 00 00
	00 00		 mov	 DWORD PTR _skill_level$[ebp], 0
$LN7@SkillDefen:

; 1605 : 
; 1606 : 	skill_defense = (float)((skill_level+1)*2+((lpObj->Energy+lpObj->AddEnergy)/8));

  000d9	8b 45 f4	 mov	 eax, DWORD PTR _lpObj$[ebp]
  000dc	0f b7 80 ba 00
	00 00		 movzx	 eax, WORD PTR [eax+186]
  000e3	8b 4d f4	 mov	 ecx, DWORD PTR _lpObj$[ebp]
  000e6	0f b7 91 e6 00
	00 00		 movzx	 edx, WORD PTR [ecx+230]
  000ed	03 c2		 add	 eax, edx
  000ef	99		 cdq
  000f0	83 e2 07	 and	 edx, 7
  000f3	03 c2		 add	 eax, edx
  000f5	c1 f8 03	 sar	 eax, 3
  000f8	8b 4d 10	 mov	 ecx, DWORD PTR _skill_level$[ebp]
  000fb	8d 54 48 02	 lea	 edx, DWORD PTR [eax+ecx*2+2]
  000ff	f3 0f 2a c2	 cvtsi2ss xmm0, edx
  00103	f3 0f 11 45 ec	 movss	 DWORD PTR _skill_defense$[ebp], xmm0

; 1607 : 	skill_defense *= g_GlobalConfig.m_fPlusDef;

  00108	f3 0f 10 45 ec	 movss	 xmm0, DWORD PTR _skill_defense$[ebp]
  0010d	f3 0f 59 05 f0
	00 00 00	 mulss	 xmm0, DWORD PTR ?g_GlobalConfig@@3VCGlobalConfig@@A+240
  00115	f3 0f 11 45 ec	 movss	 DWORD PTR _skill_defense$[ebp], xmm0

; 1608 : 
; 1609 : 	// 기사의 경우 -10%, +10% 의 영향을 준다.
; 1610 : 	if( lpTargetObj->Class == CLASS_KNIGHT )

  0011a	8b 45 f0	 mov	 eax, DWORD PTR _lpTargetObj$[ebp]
  0011d	0f b7 88 9c 00
	00 00		 movzx	 ecx, WORD PTR [eax+156]
  00124	83 f9 01	 cmp	 ecx, 1
  00127	75 17		 jne	 SHORT $LN9@SkillDefen

; 1611 : 	{
; 1612 : 		skill_defense += (skill_defense/10);

  00129	f3 0f 10 45 ec	 movss	 xmm0, DWORD PTR _skill_defense$[ebp]
  0012e	f3 0f 5e 05 00
	00 00 00	 divss	 xmm0, DWORD PTR __real@41200000
  00136	f3 0f 58 45 ec	 addss	 xmm0, DWORD PTR _skill_defense$[ebp]
  0013b	f3 0f 11 45 ec	 movss	 DWORD PTR _skill_defense$[ebp], xmm0
$LN9@SkillDefen:

; 1613 : 	}
; 1614 : 	//LogAdd("방어력증가 마법 사용 2 : %f", skill_defense);
; 1615 : 	
; 1616 : #ifdef MODIFY_ELF_DEFENCE_ATTACK_VALUE_UP_SKILL_20070110
; 1617 : 	// 이미 적용된 수치보다 낮으면 적용/갱신하지 않는다.
; 1618 : 	#ifdef MODIFY_OLD_BUFF_EFFECT_SYSTEM_20071004
; 1619 : 	#ifdef MODIFY_BUFFSYSTEM_BUGFIX_07_20080109
; 1620 : 		if( gObjCheckPowerfulEffect( lpTargetObj, BUFFTYPE_DEFENSE_POWER_INC, skill_defense, 0 ) == true )
; 1621 : 	#else
; 1622 : 		if( gObjCheckPowerfulEffect( lpObj, BUFFTYPE_DEFENSE_POWER_INC, skill_defense, 0 ) == true )
; 1623 : 	#endif // MODIFY_BUFFSYSTEM_BUGFIX_07_20080109
; 1624 : 	#else
; 1625 : 	if( lpTargetObj->m_SkillDefense > skill_defense )
; 1626 : 	#endif // MODIFY_OLD_BUFF_EFFECT_SYSTEM_20071004
; 1627 : 	{
; 1628 : 		GCMagicAttackNumberSend( lpObj, AT_SKILL_DEFENSE, lpTargetObj->m_Index, 0 );	// 스킬사용 실패		
; 1629 : 		return;
; 1630 : 	}
; 1631 : #endif
; 1632 : 
; 1633 : #ifdef MODIFY_OLD_BUFF_EFFECT_SYSTEM_20071004
; 1634 : 	gObjAddBuffEffect( lpTargetObj, BUFFTYPE_DEFENSE_POWER_INC, EFFECTTYPE_IMPROVE_DEFENSE, skill_defense, 0, 0, 60 );
; 1635 : #else
; 1636 : 	lpTargetObj->m_SkillDefense = (int)skill_defense;

  00140	f3 0f 2c 45 ec	 cvttss2si eax, DWORD PTR _skill_defense$[ebp]
  00145	8b 4d f0	 mov	 ecx, DWORD PTR _lpTargetObj$[ebp]
  00148	89 81 1c 1a 00
	00		 mov	 DWORD PTR [ecx+6684], eax

; 1637 : 
; 1638 : 	if(lpObj->m_bBuffHelper == true)

  0014e	8b 45 f4	 mov	 eax, DWORD PTR _lpObj$[ebp]
  00151	0f b6 88 84 1a
	00 00		 movzx	 ecx, BYTE PTR [eax+6788]
  00158	83 f9 01	 cmp	 ecx, 1
  0015b	75 1d		 jne	 SHORT $LN10@SkillDefen

; 1639 : 		lpTargetObj->m_SkillDefenseTime = GetTickCount()+(g_BuffHelper.m_iAuraTime*1000);

  0015d	ff 15 00 00 00
	00		 call	 DWORD PTR __imp__GetTickCount@0
  00163	69 0d 0c 00 00
	00 e8 03 00 00	 imul	 ecx, DWORD PTR ?g_BuffHelper@@3VCBuffHelper@@A+12, 1000
  0016d	03 c1		 add	 eax, ecx
  0016f	8b 55 f0	 mov	 edx, DWORD PTR _lpTargetObj$[ebp]
  00172	89 82 20 1a 00
	00		 mov	 DWORD PTR [edx+6688], eax
  00178	eb 1b		 jmp	 SHORT $LN11@SkillDefen
$LN10@SkillDefen:

; 1640 : 	else
; 1641 : 		lpTargetObj->m_SkillDefenseTime = GetTickCount()+(g_GlobalConfig.m_iDefenseAuraTime*1000);

  0017a	ff 15 00 00 00
	00		 call	 DWORD PTR __imp__GetTickCount@0
  00180	69 0d 00 04 00
	00 e8 03 00 00	 imul	 ecx, DWORD PTR ?g_GlobalConfig@@3VCGlobalConfig@@A+1024, 1000
  0018a	03 c1		 add	 eax, ecx
  0018c	8b 55 f0	 mov	 edx, DWORD PTR _lpTargetObj$[ebp]
  0018f	89 82 20 1a 00
	00		 mov	 DWORD PTR [edx+6688], eax
$LN11@SkillDefen:

; 1642 : #ifdef EXPAND_VIEWSKILLSTATE_WORD_TO_INT_20041122
; 1643 : 	ADD_VIEWSKILLSTATE( lpTargetObj->m_ViewSkillState, STATE_DEFENSE );
; 1644 : #else
; 1645 : 	lpTargetObj->m_ViewSkillState |= 0x08; //	4번째 비트 : 요정 방어력 증가 표시

  00195	8b 45 f0	 mov	 eax, DWORD PTR _lpTargetObj$[ebp]
  00198	0f b7 88 c0 01
	00 00		 movzx	 ecx, WORD PTR [eax+448]
  0019f	83 c9 08	 or	 ecx, 8
  001a2	8b 55 f0	 mov	 edx, DWORD PTR _lpTargetObj$[ebp]
  001a5	66 89 8a c0 01
	00 00		 mov	 WORD PTR [edx+448], cx

; 1646 : #endif
; 1647 : #endif // MODIFY_OLD_BUFF_EFFECT_SYSTEM_20071004
; 1648 : 
; 1649 : #ifdef ADD_NEW_MONSTER_SYSTEM_02_20050725
; 1650 : 	// 방어력 증가 사용 시 Target을 보고 있는 몬스터의 Agro를 증가 시켜준다.
; 1651 : 	for( int n=0; n<MAXVIEWPORTOBJECT; n++ )
; 1652 : 	{
; 1653 : 		if( lpObj->VpPlayer2[n].type == OBJTYPE_MONSTER )
; 1654 : 		{
; 1655 : 			if( lpObj->VpPlayer2[n].state )
; 1656 : 			{
; 1657 : 				LPOBJECTSTRUCT lpMonster = &gObj[lpObj->VpPlayer2[n].number];
; 1658 : 
; 1659 : 				if( lpMonster->m_iCurrentAI )
; 1660 : 					lpMonster->m_Agro.IncAgro(lpObj->m_Index, (int)skill_defense / 10 );
; 1661 : 			}
; 1662 : 		}
; 1663 : 	}
; 1664 : #endif
; 1665 : 
; 1666 : 	GCMagicAttackNumberSend(lpObj, AT_SKILL_DEFENSE, lpTargetObj->m_Index, skillSuccess);

  001ac	0f b6 45 f8	 movzx	 eax, BYTE PTR _skillSuccess$[ebp]
  001b0	50		 push	 eax
  001b1	8b 4d f0	 mov	 ecx, DWORD PTR _lpTargetObj$[ebp]
  001b4	8b 11		 mov	 edx, DWORD PTR [ecx]
  001b6	52		 push	 edx
  001b7	6a 1b		 push	 27			; 0000001bH
  001b9	8b 45 f4	 mov	 eax, DWORD PTR _lpObj$[ebp]
  001bc	50		 push	 eax
  001bd	e8 00 00 00 00	 call	 ?GCMagicAttackNumberSend@@YAXPAVOBJECTSTRUCT@@EHE@Z ; GCMagicAttackNumberSend
  001c2	83 c4 10	 add	 esp, 16			; 00000010H
$LN1@SkillDefen:

; 1667 : }

  001c5	5f		 pop	 edi
  001c6	5e		 pop	 esi
  001c7	5b		 pop	 ebx
  001c8	8b e5		 mov	 esp, ebp
  001ca	5d		 pop	 ebp
  001cb	c2 0c 00	 ret	 12			; 0000000cH
?SkillDefense@CObjUseSkill@@QAEXHHH@Z ENDP		; CObjUseSkill::SkillDefense
_TEXT	ENDS
; Function compile flags: /Odtp /ZI
; File C:\Mu Online\Mu-GS-Webzen-MC-10093\GameServer\ObjUseSkill.cpp
;	COMDAT ?WizardMagicDefense@CObjUseSkill@@QAEXHHH@Z
_TEXT	SEGMENT
_lpTargetObj$ = -16					; size = 4
_lpObj$ = -12						; size = 4
_skillSuccess$ = -8					; size = 4
_this$ = -4						; size = 4
_aIndex$ = 8						; size = 4
_aTargetIndex$ = 12					; size = 4
_skill_level$ = 16					; size = 4
?WizardMagicDefense@CObjUseSkill@@QAEXHHH@Z PROC	; CObjUseSkill::WizardMagicDefense, COMDAT
; _this$ = ecx

; 1507 : {

  00000	55		 push	 ebp
  00001	8b ec		 mov	 ebp, esp
  00003	83 ec 50	 sub	 esp, 80			; 00000050H
  00006	53		 push	 ebx
  00007	56		 push	 esi
  00008	57		 push	 edi
  00009	89 4d fc	 mov	 DWORD PTR _this$[ebp], ecx

; 1508 : #ifdef NEW_FORSKYLAND3
; 1509 : 	int skillSuccess = 1;

  0000c	c7 45 f8 01 00
	00 00		 mov	 DWORD PTR _skillSuccess$[ebp], 1

; 1510 : 	LPOBJECTSTRUCT lpObj= &gObj[aIndex];

  00013	69 45 08 a0 1b
	00 00		 imul	 eax, DWORD PTR _aIndex$[ebp], 7072
  0001a	03 05 00 00 00
	00		 add	 eax, DWORD PTR ?gObj@@3PAVOBJECTSTRUCT@@A ; gObj
  00020	89 45 f4	 mov	 DWORD PTR _lpObj$[ebp], eax

; 1511 : 	LPOBJECTSTRUCT lpTargetObj= &gObj[aTargetIndex];

  00023	69 45 0c a0 1b
	00 00		 imul	 eax, DWORD PTR _aTargetIndex$[ebp], 7072
  0002a	03 05 00 00 00
	00		 add	 eax, DWORD PTR ?gObj@@3PAVOBJECTSTRUCT@@A ; gObj
  00030	89 45 f0	 mov	 DWORD PTR _lpTargetObj$[ebp], eax

; 1512 : 	
; 1513 : 	if( lpObj->Type != OBJTYPE_CHARACTER) 

  00033	8b 45 f4	 mov	 eax, DWORD PTR _lpObj$[ebp]
  00036	0f b7 48 64	 movzx	 ecx, WORD PTR [eax+100]
  0003a	83 f9 01	 cmp	 ecx, 1
  0003d	74 11		 je	 SHORT $LN2@WizardMagi

; 1514 : 		if( lpObj->m_RecallMon == -1 ) return;

  0003f	8b 45 f4	 mov	 eax, DWORD PTR _lpObj$[ebp]
  00042	83 b8 a4 02 00
	00 ff		 cmp	 DWORD PTR [eax+676], -1
  00049	75 05		 jne	 SHORT $LN2@WizardMagi
  0004b	e9 00 01 00 00	 jmp	 $LN1@WizardMagi
$LN2@WizardMagi:

; 1515 : 
; 1516 : 	if( lpObj->Class != CLASS_WIZARD && lpObj->Class != CLASS_MAGUMSA ) return;

  00050	8b 45 f4	 mov	 eax, DWORD PTR _lpObj$[ebp]
  00053	0f b7 88 9c 00
	00 00		 movzx	 ecx, WORD PTR [eax+156]
  0005a	85 c9		 test	 ecx, ecx
  0005c	74 14		 je	 SHORT $LN4@WizardMagi
  0005e	8b 45 f4	 mov	 eax, DWORD PTR _lpObj$[ebp]
  00061	0f b7 88 9c 00
	00 00		 movzx	 ecx, WORD PTR [eax+156]
  00068	83 f9 03	 cmp	 ecx, 3
  0006b	74 05		 je	 SHORT $LN4@WizardMagi
  0006d	e9 de 00 00 00	 jmp	 $LN1@WizardMagi
$LN4@WizardMagi:

; 1517 : 
; 1518 : 	if( lpObj->PartyNumber != lpTargetObj->PartyNumber )

  00072	8b 45 f4	 mov	 eax, DWORD PTR _lpObj$[ebp]
  00075	8b 4d f0	 mov	 ecx, DWORD PTR _lpTargetObj$[ebp]
  00078	8b 90 88 02 00
	00		 mov	 edx, DWORD PTR [eax+648]
  0007e	3b 91 88 02 00
	00		 cmp	 edx, DWORD PTR [ecx+648]
  00084	74 05		 je	 SHORT $LN5@WizardMagi

; 1519 : 	{	// 파티가 아니면 사용할수 없다
; 1520 : 		return;

  00086	e9 c5 00 00 00	 jmp	 $LN1@WizardMagi
$LN5@WizardMagi:

; 1521 : 	}
; 1522 : 
; 1523 : #ifdef MODIFY_OLD_BUFF_EFFECT_SYSTEM_20071004
; 1524 : 	int iDefenseValue = 0;
; 1525 : 	int iSkillValidTime = 0;
; 1526 : 
; 1527 : 	iDefenseValue = 10 + ( ( lpObj->Dexterity + lpObj->AddDexterity ) / 50 ) + ( ( lpObj->Energy + lpObj->AddEnergy ) / 200 );
; 1528 : 	iSkillValidTime = 60 + ( ( lpObj->Energy + lpObj->AddEnergy ) / 40 );
; 1529 : 
; 1530 : #ifdef ADD_MASTER_LEVEL_SKILL_SYSTEM_ACTIVE_20080107	// 소울바리어 일반스킬 : 마나소모량 수정( 버프시스템에 추가 )
; 1531 : 	gObjAddBuffEffect( lpTargetObj, BUFFTYPE_MELEE_DEFENSE_INC, EFFECTTYPE_IMPROVE_MELEE_DEFENSE, iDefenseValue, EFFECTTYPE_MELEE_DEFENSE_DOWN_MANA, 20, iSkillValidTime );
; 1532 : #else
; 1533 : 	gObjAddBuffEffect( lpTargetObj, BUFFTYPE_MELEE_DEFENSE_INC, EFFECTTYPE_IMPROVE_MELEE_DEFENSE, iDefenseValue, 0, 0, iSkillValidTime );
; 1534 : #endif
; 1535 : 	GCMagicAttackNumberSend(lpObj, AT_SKILL_MAGICDEFENSE, lpTargetObj->m_Index, skillSuccess);
; 1536 : #else
; 1537 : 	#ifdef WIZARD_UPGRADE
; 1538 : 		lpTargetObj->m_WizardSkillDefense	= 10+(lpObj->Dexterity+lpObj->AddDexterity)/g_GlobalConfig.m_iShieldDexterity+(lpObj->Energy+lpObj->AddEnergy)/g_GlobalConfig.m_iShieldEnergy;
; 1539 : 	#else
; 1540 : 		lpTargetObj->m_WizardSkillDefense	= 10+(lpObj->Dexterity+lpObj->AddDexterity)/g_GlobalConfig.m_iShieldDexterity+(lpObj->Energy+lpObj->AddEnergy)/g_GlobalConfig.m_iShieldEnergy;

  0008b	8b 45 f4	 mov	 eax, DWORD PTR _lpObj$[ebp]
  0008e	0f b7 80 b6 00
	00 00		 movzx	 eax, WORD PTR [eax+182]
  00095	8b 4d f4	 mov	 ecx, DWORD PTR _lpObj$[ebp]
  00098	0f b7 91 e2 00
	00 00		 movzx	 edx, WORD PTR [ecx+226]
  0009f	03 c2		 add	 eax, edx
  000a1	99		 cdq
  000a2	f7 3d 70 00 00
	00		 idiv	 DWORD PTR ?g_GlobalConfig@@3VCGlobalConfig@@A+112
  000a8	8b c8		 mov	 ecx, eax
  000aa	8b 55 f4	 mov	 edx, DWORD PTR _lpObj$[ebp]
  000ad	0f b7 82 ba 00
	00 00		 movzx	 eax, WORD PTR [edx+186]
  000b4	8b 55 f4	 mov	 edx, DWORD PTR _lpObj$[ebp]
  000b7	0f b7 92 e6 00
	00 00		 movzx	 edx, WORD PTR [edx+230]
  000be	03 c2		 add	 eax, edx
  000c0	99		 cdq
  000c1	f7 3d 74 00 00
	00		 idiv	 DWORD PTR ?g_GlobalConfig@@3VCGlobalConfig@@A+116
  000c7	8d 44 01 0a	 lea	 eax, DWORD PTR [ecx+eax+10]
  000cb	8b 4d f0	 mov	 ecx, DWORD PTR _lpTargetObj$[ebp]
  000ce	89 81 0c 1a 00
	00		 mov	 DWORD PTR [ecx+6668], eax

; 1541 : 	#endif
; 1542 : 
; 1543 : 		if(lpTargetObj->m_WizardSkillDefense > g_GlobalConfig.m_iShieldMaxDefense) lpTargetObj->m_WizardSkillDefense = g_GlobalConfig.m_iShieldMaxDefense;

  000d4	8b 45 f0	 mov	 eax, DWORD PTR _lpTargetObj$[ebp]
  000d7	8b 88 0c 1a 00
	00		 mov	 ecx, DWORD PTR [eax+6668]
  000dd	3b 0d 78 00 00
	00		 cmp	 ecx, DWORD PTR ?g_GlobalConfig@@3VCGlobalConfig@@A+120
  000e3	7e 0f		 jle	 SHORT $LN6@WizardMagi
  000e5	8b 45 f0	 mov	 eax, DWORD PTR _lpTargetObj$[ebp]
  000e8	8b 0d 78 00 00
	00		 mov	 ecx, DWORD PTR ?g_GlobalConfig@@3VCGlobalConfig@@A+120
  000ee	89 88 0c 1a 00
	00		 mov	 DWORD PTR [eax+6668], ecx
$LN6@WizardMagi:

; 1544 : 
; 1545 : 		lpTargetObj->m_WizardSkillDefenseTime = 60+(lpObj->Energy+lpObj->AddEnergy)/g_GlobalConfig.m_iShieldTime;	

  000f4	8b 45 f4	 mov	 eax, DWORD PTR _lpObj$[ebp]
  000f7	0f b7 80 ba 00
	00 00		 movzx	 eax, WORD PTR [eax+186]
  000fe	8b 4d f4	 mov	 ecx, DWORD PTR _lpObj$[ebp]
  00101	0f b7 91 e6 00
	00 00		 movzx	 edx, WORD PTR [ecx+230]
  00108	03 c2		 add	 eax, edx
  0010a	99		 cdq
  0010b	f7 3d 6c 00 00
	00		 idiv	 DWORD PTR ?g_GlobalConfig@@3VCGlobalConfig@@A+108
  00111	83 c0 3c	 add	 eax, 60			; 0000003cH
  00114	8b 4d f0	 mov	 ecx, DWORD PTR _lpTargetObj$[ebp]
  00117	89 81 10 1a 00
	00		 mov	 DWORD PTR [ecx+6672], eax

; 1546 : 
; 1547 : 	#ifdef CHANGE_VIEWSTATE
; 1548 : 		lpTargetObj->m_ViewSkillState |= STATE_REDUCE_MAGICDEFENSE; //	9번째 비트 : 법사 방어력 증가

  0011d	8b 45 f0	 mov	 eax, DWORD PTR _lpTargetObj$[ebp]
  00120	0f b7 88 c0 01
	00 00		 movzx	 ecx, WORD PTR [eax+448]
  00127	81 c9 00 01 00
	00		 or	 ecx, 256		; 00000100H
  0012d	8b 55 f0	 mov	 edx, DWORD PTR _lpTargetObj$[ebp]
  00130	66 89 8a c0 01
	00 00		 mov	 WORD PTR [edx+448], cx

; 1549 : 	#else
; 1550 : 		lpTargetObj->m_ViewSkillState |= 0;						  //	4번째 비트 : 요정 방어력 증가 표시
; 1551 : 	#endif;
; 1552 : 		GCMagicAttackNumberSend(lpObj, AT_SKILL_MAGICDEFENSE, lpTargetObj->m_Index, skillSuccess);

  00137	0f b6 45 f8	 movzx	 eax, BYTE PTR _skillSuccess$[ebp]
  0013b	50		 push	 eax
  0013c	8b 4d f0	 mov	 ecx, DWORD PTR _lpTargetObj$[ebp]
  0013f	8b 11		 mov	 edx, DWORD PTR [ecx]
  00141	52		 push	 edx
  00142	6a 10		 push	 16			; 00000010H
  00144	8b 45 f4	 mov	 eax, DWORD PTR _lpObj$[ebp]
  00147	50		 push	 eax
  00148	e8 00 00 00 00	 call	 ?GCMagicAttackNumberSend@@YAXPAVOBJECTSTRUCT@@EHE@Z ; GCMagicAttackNumberSend
  0014d	83 c4 10	 add	 esp, 16			; 00000010H
$LN1@WizardMagi:

; 1553 : #endif // MODIFY_OLD_BUFF_EFFECT_SYSTEM_20071004	
; 1554 : 	
; 1555 : #else
; 1556 : 	int skillSuccess = 1;
; 1557 : 	LPOBJECTSTRUCT lpObj= &gObj[aIndex];
; 1558 : 	#ifdef NEW_FORSKYLAND2
; 1559 : 
; 1560 : 		if( lpObj->Type != OBJTYPE_CHARACTER) 
; 1561 : 			if( lpObj->m_RecallMon == -1 ) return;
; 1562 : 
; 1563 : 		if( lpObj->Class != CLASS_WIZARD && lpObj->Class != CLASS_MAGUMSA ) return;
; 1564 : 
; 1565 : 		lpObj->m_WizardSkillDefense	= 7;
; 1566 : 		lpObj->m_WizardSkillDefenseTime = 30;	
; 1567 : 
; 1568 : 		#ifdef CHANGE_VIEWSTATE
; 1569 : 			lpObj->m_ViewSkillState |= STATE_REDUCE_MAGICDEFENSE; //	9번째 비트 : 법사 방어력 증가
; 1570 : 		#else
; 1571 : 			lpObj->m_ViewSkillState |= 0;						  //	4번째 비트 : 요정 방어력 증가 표시
; 1572 : 		#endif;
; 1573 : 			GCMagicAttackNumberSend(lpObj, AT_SKILL_MAGICDEFENSE, lpObj->m_Index, skillSuccess);
; 1574 : 		#endif
; 1575 : 	#endif
; 1576 : }

  00150	5f		 pop	 edi
  00151	5e		 pop	 esi
  00152	5b		 pop	 ebx
  00153	8b e5		 mov	 esp, ebp
  00155	5d		 pop	 ebp
  00156	c2 0c 00	 ret	 12			; 0000000cH
?WizardMagicDefense@CObjUseSkill@@QAEXHHH@Z ENDP	; CObjUseSkill::WizardMagicDefense
_TEXT	ENDS
; Function compile flags: /Odtp /ZI
; File C:\Mu Online\Mu-GS-Webzen-MC-10093\GameServer\ObjUseSkill.cpp
;	COMDAT ?KnightSkillAddLife@CObjUseSkill@@QAEXHH@Z
_TEXT	SEGMENT
_n$1 = -88						; size = 4
_iaddlife$ = -84					; size = 4
_iLifeTime$ = -80					; size = 4
_iaddLifepower$ = -76					; size = 4
_n$2 = -72						; size = 4
_lpPartyObj$ = -68					; size = 4
_viewpercent$ = -64					; size = 4
_viewplayer$ = -60					; size = 4
_ApplyPartyIndex$ = -56					; size = 20
_dis$ = -36						; size = 4
_partycount$ = -32					; size = 4
_totallevel$ = -28					; size = 4
_partynum$ = -24					; size = 4
_number$ = -20						; size = 4
_lpObj$ = -16						; size = 4
_skillSuccess$ = -12					; size = 4
_this$ = -8						; size = 4
__$ArrayPad$ = -4					; size = 4
_aIndex$ = 8						; size = 4
_skill_level$ = 12					; size = 4
?KnightSkillAddLife@CObjUseSkill@@QAEXHH@Z PROC		; CObjUseSkill::KnightSkillAddLife, COMDAT
; _this$ = ecx

; 1362 : {

  00000	55		 push	 ebp
  00001	8b ec		 mov	 ebp, esp
  00003	81 ec 98 00 00
	00		 sub	 esp, 152		; 00000098H
  00009	a1 00 00 00 00	 mov	 eax, DWORD PTR ___security_cookie
  0000e	33 c5		 xor	 eax, ebp
  00010	89 45 fc	 mov	 DWORD PTR __$ArrayPad$[ebp], eax
  00013	53		 push	 ebx
  00014	56		 push	 esi
  00015	57		 push	 edi
  00016	89 4d f8	 mov	 DWORD PTR _this$[ebp], ecx

; 1363 : 	int skillSuccess = 1;

  00019	c7 45 f4 01 00
	00 00		 mov	 DWORD PTR _skillSuccess$[ebp], 1

; 1364 : 
; 1365 : 	LPOBJECTSTRUCT lpObj= &gObj[aIndex];

  00020	69 45 08 a0 1b
	00 00		 imul	 eax, DWORD PTR _aIndex$[ebp], 7072
  00027	03 05 00 00 00
	00		 add	 eax, DWORD PTR ?gObj@@3PAVOBJECTSTRUCT@@A ; gObj
  0002d	89 45 f0	 mov	 DWORD PTR _lpObj$[ebp], eax

; 1366 : 
; 1367 : 
; 1368 : #ifdef AUTH_GAMESERVER_CHECKKEY
; 1369 : 	if( szAuthKey[14] != AUTH_CHECK_14 )
; 1370 : 		DestroyGIocp();
; 1371 : #endif
; 1372 : 
; 1373 : #ifdef NEW_FORSKYLAND2
; 1374 : 	if( lpObj->Type != OBJTYPE_CHARACTER) 

  00030	8b 45 f0	 mov	 eax, DWORD PTR _lpObj$[ebp]
  00033	0f b7 48 64	 movzx	 ecx, WORD PTR [eax+100]
  00037	83 f9 01	 cmp	 ecx, 1
  0003a	74 11		 je	 SHORT $LN9@KnightSkil

; 1375 : 		if( lpObj->m_RecallMon == -1 ) return;

  0003c	8b 45 f0	 mov	 eax, DWORD PTR _lpObj$[ebp]
  0003f	83 b8 a4 02 00
	00 ff		 cmp	 DWORD PTR [eax+676], -1
  00046	75 05		 jne	 SHORT $LN9@KnightSkil
  00048	e9 98 03 00 00	 jmp	 $LN1@KnightSkil
$LN9@KnightSkil:

; 1376 : 
; 1377 : 	if( lpObj->Class != CLASS_KNIGHT && lpObj->Class != CLASS_MAGUMSA ) return;

  0004d	8b 45 f0	 mov	 eax, DWORD PTR _lpObj$[ebp]
  00050	0f b7 88 9c 00
	00 00		 movzx	 ecx, WORD PTR [eax+156]
  00057	83 f9 01	 cmp	 ecx, 1
  0005a	74 14		 je	 SHORT $LN10@KnightSkil
  0005c	8b 45 f0	 mov	 eax, DWORD PTR _lpObj$[ebp]
  0005f	0f b7 88 9c 00
	00 00		 movzx	 ecx, WORD PTR [eax+156]
  00066	83 f9 03	 cmp	 ecx, 3
  00069	74 05		 je	 SHORT $LN10@KnightSkil
  0006b	e9 75 03 00 00	 jmp	 $LN1@KnightSkil
$LN10@KnightSkil:

; 1378 : 
; 1379 : 	int number;
; 1380 : 	int partynum=0;

  00070	c7 45 e8 00 00
	00 00		 mov	 DWORD PTR _partynum$[ebp], 0

; 1381 : 	int totallevel=0;

  00077	c7 45 e4 00 00
	00 00		 mov	 DWORD PTR _totallevel$[ebp], 0

; 1382 : 	int partycount;
; 1383 : 	int dis;
; 1384 : 	int ApplyPartyIndex[MAX_PARTYUSER];	
; 1385 : 
; 1386 : 	int viewplayer=0;

  0007e	c7 45 c4 00 00
	00 00		 mov	 DWORD PTR _viewplayer$[ebp], 0

; 1387 : 	int viewpercent = 0;

  00085	c7 45 c0 00 00
	00 00		 mov	 DWORD PTR _viewpercent$[ebp], 0

; 1388 : 	
; 1389 : 	LPOBJECTSTRUCT lpPartyObj;
; 1390 : 
; 1391 : 	memset(ApplyPartyIndex, -1, sizeof(int)*MAX_PARTYUSER);

  0008c	6a 14		 push	 20			; 00000014H
  0008e	6a ff		 push	 -1
  00090	8d 45 c8	 lea	 eax, DWORD PTR _ApplyPartyIndex$[ebp]
  00093	50		 push	 eax
  00094	e8 00 00 00 00	 call	 _memset
  00099	83 c4 0c	 add	 esp, 12			; 0000000cH

; 1392 : 	partynum = lpObj->PartyNumber;	

  0009c	8b 45 f0	 mov	 eax, DWORD PTR _lpObj$[ebp]
  0009f	8b 88 88 02 00
	00		 mov	 ecx, DWORD PTR [eax+648]
  000a5	89 4d e8	 mov	 DWORD PTR _partynum$[ebp], ecx

; 1393 : 
; 1394 : 	if( partynum != -1 )

  000a8	83 7d e8 ff	 cmp	 DWORD PTR _partynum$[ebp], -1
  000ac	0f 84 a1 00 00
	00		 je	 $LN3@KnightSkil

; 1395 : 	{
; 1396 : 		partycount = gParty.m_PartyS[partynum].Count;

  000b2	6b 45 e8 30	 imul	 eax, DWORD PTR _partynum$[ebp], 48
  000b6	8b 88 08 00 00
	00		 mov	 ecx, DWORD PTR ?gParty@@3VPartyClass@@A[eax+8]
  000bc	89 4d e0	 mov	 DWORD PTR _partycount$[ebp], ecx

; 1397 : 		for( int n=0; n<MAX_PARTYUSER; n++)

  000bf	c7 45 b8 00 00
	00 00		 mov	 DWORD PTR _n$2[ebp], 0
  000c6	eb 09		 jmp	 SHORT $LN4@KnightSkil
$LN2@KnightSkil:
  000c8	8b 45 b8	 mov	 eax, DWORD PTR _n$2[ebp]
  000cb	83 c0 01	 add	 eax, 1
  000ce	89 45 b8	 mov	 DWORD PTR _n$2[ebp], eax
$LN4@KnightSkil:
  000d1	83 7d b8 05	 cmp	 DWORD PTR _n$2[ebp], 5
  000d5	7d 7c		 jge	 SHORT $LN3@KnightSkil

; 1398 : 		{
; 1399 : 			number = gParty.m_PartyS[partynum].Number[n];

  000d7	6b 45 e8 30	 imul	 eax, DWORD PTR _partynum$[ebp], 48
  000db	8b 4d b8	 mov	 ecx, DWORD PTR _n$2[ebp]
  000de	8b 94 88 0c 00
	00 00		 mov	 edx, DWORD PTR ?gParty@@3VPartyClass@@A[eax+ecx*4+12]
  000e5	89 55 ec	 mov	 DWORD PTR _number$[ebp], edx

; 1400 : 			if( number >= 0 )

  000e8	83 7d ec 00	 cmp	 DWORD PTR _number$[ebp], 0
  000ec	7c 60		 jl	 SHORT $LN14@KnightSkil

; 1401 : 			{
; 1402 : 				lpPartyObj = (LPOBJECTSTRUCT)&gObj[number];			

  000ee	69 45 ec a0 1b
	00 00		 imul	 eax, DWORD PTR _number$[ebp], 7072
  000f5	03 05 00 00 00
	00		 add	 eax, DWORD PTR ?gObj@@3PAVOBJECTSTRUCT@@A ; gObj
  000fb	89 45 bc	 mov	 DWORD PTR _lpPartyObj$[ebp], eax

; 1403 : 				// 같은 맵에 존재하거나..
; 1404 : 				if( lpObj->MapNumber == lpPartyObj->MapNumber) 

  000fe	8b 45 f0	 mov	 eax, DWORD PTR _lpObj$[ebp]
  00101	0f b6 88 09 01
	00 00		 movzx	 ecx, BYTE PTR [eax+265]
  00108	8b 55 bc	 mov	 edx, DWORD PTR _lpPartyObj$[ebp]
  0010b	0f b6 82 09 01
	00 00		 movzx	 eax, BYTE PTR [edx+265]
  00112	3b c8		 cmp	 ecx, eax
  00114	75 38		 jne	 SHORT $LN14@KnightSkil

; 1405 : 				{
; 1406 : 					dis = gObjCalDistance(lpObj, &gObj[number]);

  00116	69 45 ec a0 1b
	00 00		 imul	 eax, DWORD PTR _number$[ebp], 7072
  0011d	03 05 00 00 00
	00		 add	 eax, DWORD PTR ?gObj@@3PAVOBJECTSTRUCT@@A ; gObj
  00123	50		 push	 eax
  00124	8b 4d f0	 mov	 ecx, DWORD PTR _lpObj$[ebp]
  00127	51		 push	 ecx
  00128	e8 00 00 00 00	 call	 ?gObjCalDistance@@YAHPAVOBJECTSTRUCT@@0@Z ; gObjCalDistance
  0012d	83 c4 08	 add	 esp, 8
  00130	89 45 dc	 mov	 DWORD PTR _dis$[ebp], eax

; 1407 : 					if( dis < 10 )

  00133	83 7d dc 0a	 cmp	 DWORD PTR _dis$[ebp], 10 ; 0000000aH
  00137	7d 15		 jge	 SHORT $LN14@KnightSkil

; 1408 : 					{
; 1409 : 						ApplyPartyIndex[n] = lpPartyObj->m_Index;

  00139	8b 45 b8	 mov	 eax, DWORD PTR _n$2[ebp]
  0013c	8b 4d bc	 mov	 ecx, DWORD PTR _lpPartyObj$[ebp]
  0013f	8b 11		 mov	 edx, DWORD PTR [ecx]
  00141	89 54 85 c8	 mov	 DWORD PTR _ApplyPartyIndex$[ebp+eax*4], edx

; 1410 : 						viewplayer++;

  00145	8b 45 c4	 mov	 eax, DWORD PTR _viewplayer$[ebp]
  00148	83 c0 01	 add	 eax, 1
  0014b	89 45 c4	 mov	 DWORD PTR _viewplayer$[ebp], eax
$LN14@KnightSkil:

; 1411 : 					}
; 1412 : 				}
; 1413 : 			}
; 1414 : 		}

  0014e	e9 75 ff ff ff	 jmp	 $LN2@KnightSkil
$LN3@KnightSkil:

; 1415 : 	}	
; 1416 : 
; 1417 : 	if( viewplayer > 1 )

  00153	83 7d c4 01	 cmp	 DWORD PTR _viewplayer$[ebp], 1
  00157	7e 34		 jle	 SHORT $LN21@KnightSkil

; 1418 : 	{		
; 1419 : 		if( viewplayer == 2 )	viewpercent = 1;

  00159	83 7d c4 02	 cmp	 DWORD PTR _viewplayer$[ebp], 2
  0015d	75 09		 jne	 SHORT $LN16@KnightSkil
  0015f	c7 45 c0 01 00
	00 00		 mov	 DWORD PTR _viewpercent$[ebp], 1
  00166	eb 25		 jmp	 SHORT $LN21@KnightSkil
$LN16@KnightSkil:

; 1420 : 		else if( viewplayer == 3 )	viewpercent = 2;

  00168	83 7d c4 03	 cmp	 DWORD PTR _viewplayer$[ebp], 3
  0016c	75 09		 jne	 SHORT $LN18@KnightSkil
  0016e	c7 45 c0 02 00
	00 00		 mov	 DWORD PTR _viewpercent$[ebp], 2
  00175	eb 16		 jmp	 SHORT $LN21@KnightSkil
$LN18@KnightSkil:

; 1421 : 		else if( viewplayer == 4 )	viewpercent = 3;		

  00177	83 7d c4 04	 cmp	 DWORD PTR _viewplayer$[ebp], 4
  0017b	75 09		 jne	 SHORT $LN20@KnightSkil
  0017d	c7 45 c0 03 00
	00 00		 mov	 DWORD PTR _viewpercent$[ebp], 3
  00184	eb 07		 jmp	 SHORT $LN21@KnightSkil
$LN20@KnightSkil:

; 1422 : 		else viewpercent = 4;

  00186	c7 45 c0 04 00
	00 00		 mov	 DWORD PTR _viewpercent$[ebp], 4
$LN21@KnightSkil:

; 1423 : 	}	
; 1424 : 
; 1425 : 	int iaddLifepower = 12+(lpObj->Vitality+lpObj->AddVitality)/g_GlobalConfig.m_iInnerVitality + 

  0018d	8b 45 f0	 mov	 eax, DWORD PTR _lpObj$[ebp]
  00190	0f b7 80 b8 00
	00 00		 movzx	 eax, WORD PTR [eax+184]
  00197	8b 4d f0	 mov	 ecx, DWORD PTR _lpObj$[ebp]
  0019a	0f b7 91 e4 00
	00 00		 movzx	 edx, WORD PTR [ecx+228]
  001a1	03 c2		 add	 eax, edx
  001a3	99		 cdq
  001a4	f7 3d 60 00 00
	00		 idiv	 DWORD PTR ?g_GlobalConfig@@3VCGlobalConfig@@A+96
  001aa	8b c8		 mov	 ecx, eax
  001ac	8b 55 f0	 mov	 edx, DWORD PTR _lpObj$[ebp]
  001af	0f b7 82 ba 00
	00 00		 movzx	 eax, WORD PTR [edx+186]
  001b6	8b 55 f0	 mov	 edx, DWORD PTR _lpObj$[ebp]
  001b9	0f b7 92 e6 00
	00 00		 movzx	 edx, WORD PTR [edx+230]
  001c0	03 c2		 add	 eax, edx
  001c2	99		 cdq
  001c3	f7 3d 64 00 00
	00		 idiv	 DWORD PTR ?g_GlobalConfig@@3VCGlobalConfig@@A+100
  001c9	03 4d c0	 add	 ecx, DWORD PTR _viewpercent$[ebp]
  001cc	8d 44 08 0c	 lea	 eax, DWORD PTR [eax+ecx+12]
  001d0	89 45 b4	 mov	 DWORD PTR _iaddLifepower$[ebp], eax

; 1426 : 							   (lpObj->Energy+lpObj->AddEnergy)/g_GlobalConfig.m_iInnerEnergy+viewpercent;
; 1427 : 
; 1428 : 	if(iaddLifepower > g_GlobalConfig.m_iInnerMaxHP) iaddLifepower = g_GlobalConfig.m_iInnerMaxHP;

  001d3	8b 45 b4	 mov	 eax, DWORD PTR _iaddLifepower$[ebp]
  001d6	3b 05 68 00 00
	00		 cmp	 eax, DWORD PTR ?g_GlobalConfig@@3VCGlobalConfig@@A+104
  001dc	7e 08		 jle	 SHORT $LN22@KnightSkil
  001de	a1 68 00 00 00	 mov	 eax, DWORD PTR ?g_GlobalConfig@@3VCGlobalConfig@@A+104
  001e3	89 45 b4	 mov	 DWORD PTR _iaddLifepower$[ebp], eax
$LN22@KnightSkil:

; 1429 : 
; 1430 : 	int iLifeTime  = 60+(lpObj->Energy+lpObj->AddEnergy)/g_GlobalConfig.m_iInnerTime;

  001e6	8b 45 f0	 mov	 eax, DWORD PTR _lpObj$[ebp]
  001e9	0f b7 80 ba 00
	00 00		 movzx	 eax, WORD PTR [eax+186]
  001f0	8b 4d f0	 mov	 ecx, DWORD PTR _lpObj$[ebp]
  001f3	0f b7 91 e6 00
	00 00		 movzx	 edx, WORD PTR [ecx+230]
  001fa	03 c2		 add	 eax, edx
  001fc	99		 cdq
  001fd	f7 3d 5c 00 00
	00		 idiv	 DWORD PTR ?g_GlobalConfig@@3VCGlobalConfig@@A+92
  00203	83 c0 3c	 add	 eax, 60			; 0000003cH
  00206	89 45 b0	 mov	 DWORD PTR _iLifeTime$[ebp], eax

; 1431 : 	int iaddlife;
; 1432 : 
; 1433 : 	//iaddLifepower += (int)(lpObj->MaxLife*viewpercent/100);	
; 1434 : 
; 1435 : 	if( partynum == -1 )

  00209	83 7d e8 ff	 cmp	 DWORD PTR _partynum$[ebp], -1
  0020d	0f 85 ca 00 00
	00		 jne	 $LN23@KnightSkil

; 1436 : 	{	// 파티가 안되어 있는 상태이다
; 1437 : #ifdef MODIFY_OLD_BUFF_EFFECT_SYSTEM_20071004
; 1438 : 		iaddlife = (int)lpObj->MaxLife * iaddLifepower / 100;
; 1439 : 
; 1440 : 		gObjAddBuffEffect( lpObj, BUFFTYPE_HP_INC, EFFECTTYPE_HP, iaddlife, 0, 0, iLifeTime );
; 1441 : #else
; 1442 : 		iaddlife = (int)lpObj->MaxLife*iaddLifepower/100;

  00213	8b 45 f0	 mov	 eax, DWORD PTR _lpObj$[ebp]
  00216	f3 0f 2c 80 c0
	00 00 00	 cvttss2si eax, DWORD PTR [eax+192]
  0021e	0f af 45 b4	 imul	 eax, DWORD PTR _iaddLifepower$[ebp]
  00222	99		 cdq
  00223	b9 64 00 00 00	 mov	 ecx, 100		; 00000064H
  00228	f7 f9		 idiv	 ecx
  0022a	89 45 ac	 mov	 DWORD PTR _iaddlife$[ebp], eax

; 1443 : 
; 1444 : 		lpObj->AddLife -= lpObj->m_SkillAddLife;

  0022d	8b 45 f0	 mov	 eax, DWORD PTR _lpObj$[ebp]
  00230	8b 4d f0	 mov	 ecx, DWORD PTR _lpObj$[ebp]
  00233	8b 90 0c 01 00
	00		 mov	 edx, DWORD PTR [eax+268]
  00239	2b 91 f4 19 00
	00		 sub	 edx, DWORD PTR [ecx+6644]
  0023f	8b 45 f0	 mov	 eax, DWORD PTR _lpObj$[ebp]
  00242	89 90 0c 01 00
	00		 mov	 DWORD PTR [eax+268], edx

; 1445 : 		
; 1446 : 		lpObj->AddLife += iaddlife;	// 최대 생명력 증가도 적용해 준다

  00248	8b 45 f0	 mov	 eax, DWORD PTR _lpObj$[ebp]
  0024b	8b 88 0c 01 00
	00		 mov	 ecx, DWORD PTR [eax+268]
  00251	03 4d ac	 add	 ecx, DWORD PTR _iaddlife$[ebp]
  00254	8b 55 f0	 mov	 edx, DWORD PTR _lpObj$[ebp]
  00257	89 8a 0c 01 00
	00		 mov	 DWORD PTR [edx+268], ecx

; 1447 : #ifdef ADD_SHIELD_POINT_01_20060403
; 1448 : 		GCReFillSend(lpObj->m_Index, (WORD)(lpObj->MaxLife+lpObj->AddLife), 0xFE, 0, (WORD)(lpObj->iMaxShield+lpObj->iAddShield));
; 1449 : #else
; 1450 : 		GCReFillSend(lpObj->m_Index, (WORD)(lpObj->MaxLife+lpObj->AddLife), 0xFE, 0);

  0025d	6a 00		 push	 0
  0025f	68 fe 00 00 00	 push	 254			; 000000feH
  00264	8b 45 f0	 mov	 eax, DWORD PTR _lpObj$[ebp]
  00267	f3 0f 2a 80 0c
	01 00 00	 cvtsi2ss xmm0, DWORD PTR [eax+268]
  0026f	8b 4d f0	 mov	 ecx, DWORD PTR _lpObj$[ebp]
  00272	f3 0f 58 81 c0
	00 00 00	 addss	 xmm0, DWORD PTR [ecx+192]
  0027a	f3 0f 2c d0	 cvttss2si edx, xmm0
  0027e	0f b7 c2	 movzx	 eax, dx
  00281	50		 push	 eax
  00282	8b 4d f0	 mov	 ecx, DWORD PTR _lpObj$[ebp]
  00285	8b 11		 mov	 edx, DWORD PTR [ecx]
  00287	52		 push	 edx
  00288	e8 00 00 00 00	 call	 ?GCReFillSend@@YAXHGEE@Z ; GCReFillSend
  0028d	83 c4 10	 add	 esp, 16			; 00000010H

; 1451 : #endif
; 1452 : 
; 1453 : 		lpObj->m_SkillAddLife = iaddlife;

  00290	8b 45 f0	 mov	 eax, DWORD PTR _lpObj$[ebp]
  00293	8b 4d ac	 mov	 ecx, DWORD PTR _iaddlife$[ebp]
  00296	89 88 f4 19 00
	00		 mov	 DWORD PTR [eax+6644], ecx

; 1454 : 		lpObj->m_SkillAddLifeTime = iLifeTime;

  0029c	8b 45 f0	 mov	 eax, DWORD PTR _lpObj$[ebp]
  0029f	8b 4d b0	 mov	 ecx, DWORD PTR _iLifeTime$[ebp]
  002a2	89 88 f8 19 00
	00		 mov	 DWORD PTR [eax+6648], ecx

; 1455 : 
; 1456 : 		lpObj->m_ViewSkillState |= STATE_ADD_LIFE;  //생명력 증가.

  002a8	8b 45 f0	 mov	 eax, DWORD PTR _lpObj$[ebp]
  002ab	0f b7 88 c0 01
	00 00		 movzx	 ecx, WORD PTR [eax+448]
  002b2	83 c9 10	 or	 ecx, 16			; 00000010H
  002b5	8b 55 f0	 mov	 edx, DWORD PTR _lpObj$[ebp]
  002b8	66 89 8a c0 01
	00 00		 mov	 WORD PTR [edx+448], cx

; 1457 : #endif // MODIFY_OLD_BUFF_EFFECT_SYSTEM_20071004
; 1458 : 		GCMagicAttackNumberSend(lpObj, AT_SKILL_KNIGHTADDLIFE, lpObj->m_Index, skillSuccess);		

  002bf	0f b6 45 f4	 movzx	 eax, BYTE PTR _skillSuccess$[ebp]
  002c3	50		 push	 eax
  002c4	8b 4d f0	 mov	 ecx, DWORD PTR _lpObj$[ebp]
  002c7	8b 11		 mov	 edx, DWORD PTR [ecx]
  002c9	52		 push	 edx
  002ca	6a 30		 push	 48			; 00000030H
  002cc	8b 45 f0	 mov	 eax, DWORD PTR _lpObj$[ebp]
  002cf	50		 push	 eax
  002d0	e8 00 00 00 00	 call	 ?GCMagicAttackNumberSend@@YAXPAVOBJECTSTRUCT@@EHE@Z ; GCMagicAttackNumberSend
  002d5	83 c4 10	 add	 esp, 16			; 00000010H

; 1459 : 	}

  002d8	e9 08 01 00 00	 jmp	 $LN6@KnightSkil
$LN23@KnightSkil:

; 1460 : 	else
; 1461 : 	{	// 파티 상태
; 1462 : 		for( int n = 0; n < MAX_PARTYUSER; n++ )

  002dd	c7 45 a8 00 00
	00 00		 mov	 DWORD PTR _n$1[ebp], 0
  002e4	eb 09		 jmp	 SHORT $LN7@KnightSkil
$LN5@KnightSkil:
  002e6	8b 45 a8	 mov	 eax, DWORD PTR _n$1[ebp]
  002e9	83 c0 01	 add	 eax, 1
  002ec	89 45 a8	 mov	 DWORD PTR _n$1[ebp], eax
$LN7@KnightSkil:
  002ef	83 7d a8 05	 cmp	 DWORD PTR _n$1[ebp], 5
  002f3	0f 8d ec 00 00
	00		 jge	 $LN6@KnightSkil

; 1463 : 		{
; 1464 : 			if( ApplyPartyIndex[n] != -1 )

  002f9	8b 45 a8	 mov	 eax, DWORD PTR _n$1[ebp]
  002fc	83 7c 85 c8 ff	 cmp	 DWORD PTR _ApplyPartyIndex$[ebp+eax*4], -1
  00301	0f 84 d9 00 00
	00		 je	 $LN25@KnightSkil

; 1465 : 			{
; 1466 : 				lpPartyObj = (LPOBJECTSTRUCT)&gObj[ApplyPartyIndex[n]];

  00307	8b 45 a8	 mov	 eax, DWORD PTR _n$1[ebp]
  0030a	69 4c 85 c8 a0
	1b 00 00	 imul	 ecx, DWORD PTR _ApplyPartyIndex$[ebp+eax*4], 7072
  00312	03 0d 00 00 00
	00		 add	 ecx, DWORD PTR ?gObj@@3PAVOBJECTSTRUCT@@A ; gObj
  00318	89 4d bc	 mov	 DWORD PTR _lpPartyObj$[ebp], ecx

; 1467 : 
; 1468 : #ifdef MODIFY_OLD_BUFF_EFFECT_SYSTEM_20071004
; 1469 : 				iaddlife = (int)lpPartyObj->MaxLife * iaddLifepower / 100;
; 1470 : 				gObjAddBuffEffect( lpPartyObj, BUFFTYPE_HP_INC, EFFECTTYPE_HP, iaddlife, 0, 0, iLifeTime );
; 1471 : #else
; 1472 : 
; 1473 : 				iaddlife = (int)lpPartyObj->MaxLife*iaddLifepower/100;

  0031b	8b 45 bc	 mov	 eax, DWORD PTR _lpPartyObj$[ebp]
  0031e	f3 0f 2c 80 c0
	00 00 00	 cvttss2si eax, DWORD PTR [eax+192]
  00326	0f af 45 b4	 imul	 eax, DWORD PTR _iaddLifepower$[ebp]
  0032a	99		 cdq
  0032b	b9 64 00 00 00	 mov	 ecx, 100		; 00000064H
  00330	f7 f9		 idiv	 ecx
  00332	89 45 ac	 mov	 DWORD PTR _iaddlife$[ebp], eax

; 1474 : 
; 1475 : 				lpPartyObj->AddLife -= lpPartyObj->m_SkillAddLife;

  00335	8b 45 bc	 mov	 eax, DWORD PTR _lpPartyObj$[ebp]
  00338	8b 4d bc	 mov	 ecx, DWORD PTR _lpPartyObj$[ebp]
  0033b	8b 90 0c 01 00
	00		 mov	 edx, DWORD PTR [eax+268]
  00341	2b 91 f4 19 00
	00		 sub	 edx, DWORD PTR [ecx+6644]
  00347	8b 45 bc	 mov	 eax, DWORD PTR _lpPartyObj$[ebp]
  0034a	89 90 0c 01 00
	00		 mov	 DWORD PTR [eax+268], edx

; 1476 : 				lpPartyObj->AddLife += iaddlife;	// 최대 생명력 증가도 적용해 준다

  00350	8b 45 bc	 mov	 eax, DWORD PTR _lpPartyObj$[ebp]
  00353	8b 88 0c 01 00
	00		 mov	 ecx, DWORD PTR [eax+268]
  00359	03 4d ac	 add	 ecx, DWORD PTR _iaddlife$[ebp]
  0035c	8b 55 bc	 mov	 edx, DWORD PTR _lpPartyObj$[ebp]
  0035f	89 8a 0c 01 00
	00		 mov	 DWORD PTR [edx+268], ecx

; 1477 : 
; 1478 : #ifdef ADD_SHIELD_POINT_01_20060403
; 1479 : 				GCReFillSend(lpPartyObj->m_Index, (WORD)(lpPartyObj->MaxLife+lpPartyObj->AddLife), 0xFE, 0, (WORD)(lpPartyObj->iMaxShield+lpPartyObj->iAddShield));
; 1480 : #else
; 1481 : 				GCReFillSend(lpPartyObj->m_Index, (WORD)(lpPartyObj->MaxLife+lpPartyObj->AddLife), 0xFE, 0);

  00365	6a 00		 push	 0
  00367	68 fe 00 00 00	 push	 254			; 000000feH
  0036c	8b 45 bc	 mov	 eax, DWORD PTR _lpPartyObj$[ebp]
  0036f	f3 0f 2a 80 0c
	01 00 00	 cvtsi2ss xmm0, DWORD PTR [eax+268]
  00377	8b 4d bc	 mov	 ecx, DWORD PTR _lpPartyObj$[ebp]
  0037a	f3 0f 58 81 c0
	00 00 00	 addss	 xmm0, DWORD PTR [ecx+192]
  00382	f3 0f 2c d0	 cvttss2si edx, xmm0
  00386	0f b7 c2	 movzx	 eax, dx
  00389	50		 push	 eax
  0038a	8b 4d bc	 mov	 ecx, DWORD PTR _lpPartyObj$[ebp]
  0038d	8b 11		 mov	 edx, DWORD PTR [ecx]
  0038f	52		 push	 edx
  00390	e8 00 00 00 00	 call	 ?GCReFillSend@@YAXHGEE@Z ; GCReFillSend
  00395	83 c4 10	 add	 esp, 16			; 00000010H

; 1482 : #endif
; 1483 : 
; 1484 : 				lpPartyObj->m_SkillAddLife = iaddlife;

  00398	8b 45 bc	 mov	 eax, DWORD PTR _lpPartyObj$[ebp]
  0039b	8b 4d ac	 mov	 ecx, DWORD PTR _iaddlife$[ebp]
  0039e	89 88 f4 19 00
	00		 mov	 DWORD PTR [eax+6644], ecx

; 1485 : 
; 1486 : #ifdef MODIFY_ACCUMULATED_BUG_SWELLLIFE_ON_PARTY_01_20050531
; 1487 : 				lpPartyObj->m_SkillAddLifeTime = iLifeTime;

  003a4	8b 45 bc	 mov	 eax, DWORD PTR _lpPartyObj$[ebp]
  003a7	8b 4d b0	 mov	 ecx, DWORD PTR _iLifeTime$[ebp]
  003aa	89 88 f8 19 00
	00		 mov	 DWORD PTR [eax+6648], ecx

; 1488 : #else
; 1489 : 				lpPartyObj->m_SkillAddLifeTime = 60;
; 1490 : #endif
; 1491 : 
; 1492 : 				lpPartyObj->m_ViewSkillState |= STATE_ADD_LIFE;  //생명력 증가.

  003b0	8b 45 bc	 mov	 eax, DWORD PTR _lpPartyObj$[ebp]
  003b3	0f b7 88 c0 01
	00 00		 movzx	 ecx, WORD PTR [eax+448]
  003ba	83 c9 10	 or	 ecx, 16			; 00000010H
  003bd	8b 55 bc	 mov	 edx, DWORD PTR _lpPartyObj$[ebp]
  003c0	66 89 8a c0 01
	00 00		 mov	 WORD PTR [edx+448], cx

; 1493 : #endif // MODIFY_OLD_BUFF_EFFECT_SYSTEM_20071004
; 1494 : 				GCMagicAttackNumberSend(lpObj, AT_SKILL_KNIGHTADDLIFE, lpPartyObj->m_Index, skillSuccess);

  003c7	0f b6 45 f4	 movzx	 eax, BYTE PTR _skillSuccess$[ebp]
  003cb	50		 push	 eax
  003cc	8b 4d bc	 mov	 ecx, DWORD PTR _lpPartyObj$[ebp]
  003cf	8b 11		 mov	 edx, DWORD PTR [ecx]
  003d1	52		 push	 edx
  003d2	6a 30		 push	 48			; 00000030H
  003d4	8b 45 f0	 mov	 eax, DWORD PTR _lpObj$[ebp]
  003d7	50		 push	 eax
  003d8	e8 00 00 00 00	 call	 ?GCMagicAttackNumberSend@@YAXPAVOBJECTSTRUCT@@EHE@Z ; GCMagicAttackNumberSend
  003dd	83 c4 10	 add	 esp, 16			; 00000010H
$LN25@KnightSkil:

; 1495 : 			}
; 1496 : 		}

  003e0	e9 01 ff ff ff	 jmp	 $LN5@KnightSkil
$LN6@KnightSkil:
$LN1@KnightSkil:

; 1497 : 	}
; 1498 : #endif
; 1499 : }

  003e5	5f		 pop	 edi
  003e6	5e		 pop	 esi
  003e7	5b		 pop	 ebx
  003e8	8b 4d fc	 mov	 ecx, DWORD PTR __$ArrayPad$[ebp]
  003eb	33 cd		 xor	 ecx, ebp
  003ed	e8 00 00 00 00	 call	 @__security_check_cookie@4
  003f2	8b e5		 mov	 esp, ebp
  003f4	5d		 pop	 ebp
  003f5	c2 08 00	 ret	 8
?KnightSkillAddLife@CObjUseSkill@@QAEXHH@Z ENDP		; CObjUseSkill::KnightSkillAddLife
_TEXT	ENDS
; Function compile flags: /Odtp /ZI
; File C:\Mu Online\Mu-GS-Webzen-MC-10093\GameServer\ObjUseSkill.cpp
;	COMDAT ?MaGumSkillDefenseDown@CObjUseSkill@@QAEXHHH@Z
_TEXT	SEGMENT
_lpTargetObj$ = -16					; size = 4
_lpObj$ = -12						; size = 4
_skillSuccess$ = -8					; size = 4
_this$ = -4						; size = 4
_aIndex$ = 8						; size = 4
_aTargetIndex$ = 12					; size = 4
_skill_level$ = 16					; size = 4
?MaGumSkillDefenseDown@CObjUseSkill@@QAEXHHH@Z PROC	; CObjUseSkill::MaGumSkillDefenseDown, COMDAT
; _this$ = ecx

; 1328 : {

  00000	55		 push	 ebp
  00001	8b ec		 mov	 ebp, esp
  00003	83 ec 50	 sub	 esp, 80			; 00000050H
  00006	53		 push	 ebx
  00007	56		 push	 esi
  00008	57		 push	 edi
  00009	89 4d fc	 mov	 DWORD PTR _this$[ebp], ecx

; 1329 : 	int skillSuccess = 1;

  0000c	c7 45 f8 01 00
	00 00		 mov	 DWORD PTR _skillSuccess$[ebp], 1

; 1330 : 	LPOBJECTSTRUCT lpObj= &gObj[aIndex];	

  00013	69 45 08 a0 1b
	00 00		 imul	 eax, DWORD PTR _aIndex$[ebp], 7072
  0001a	03 05 00 00 00
	00		 add	 eax, DWORD PTR ?gObj@@3PAVOBJECTSTRUCT@@A ; gObj
  00020	89 45 f4	 mov	 DWORD PTR _lpObj$[ebp], eax

; 1331 : 	LPOBJECTSTRUCT lpTargetObj= &gObj[aTargetIndex];

  00023	69 45 0c a0 1b
	00 00		 imul	 eax, DWORD PTR _aTargetIndex$[ebp], 7072
  0002a	03 05 00 00 00
	00		 add	 eax, DWORD PTR ?gObj@@3PAVOBJECTSTRUCT@@A ; gObj
  00030	89 45 f0	 mov	 DWORD PTR _lpTargetObj$[ebp], eax

; 1332 : 
; 1333 : #ifdef ADD_NEW_MAP_KALIMA_20040518								// 몬스터도 블러드어택을 쓸 수 있어야 한다.
; 1334 : 	if( lpObj->Type == OBJTYPE_CHARACTER) {

  00033	8b 45 f4	 mov	 eax, DWORD PTR _lpObj$[ebp]
  00036	0f b7 48 64	 movzx	 ecx, WORD PTR [eax+100]
  0003a	83 f9 01	 cmp	 ecx, 1
  0003d	75 11		 jne	 SHORT $LN2@MaGumSkill

; 1335 : 		// 사용자 중에서는 마검사만 쓸 수 있다.
; 1336 : 		if( lpObj->Class != CLASS_MAGUMSA ) return;

  0003f	8b 45 f4	 mov	 eax, DWORD PTR _lpObj$[ebp]
  00042	0f b7 88 9c 00
	00 00		 movzx	 ecx, WORD PTR [eax+156]
  00049	83 f9 03	 cmp	 ecx, 3
  0004c	74 02		 je	 SHORT $LN2@MaGumSkill
  0004e	eb 6c		 jmp	 SHORT $LN1@MaGumSkill
$LN2@MaGumSkill:

; 1337 : 	}
; 1338 : #else
; 1339 : 	if( lpObj->Type != OBJTYPE_CHARACTER) 
; 1340 : 		if( lpObj->m_RecallMon == -1 ) return;
; 1341 : 
; 1342 : 	if( lpObj->Class != CLASS_MAGUMSA ) return;
; 1343 : #endif
; 1344 : 
; 1345 : 	LogAdd("마검사 몬스터방어력감소 : %d", 10);

  00050	6a 0a		 push	 10			; 0000000aH
  00052	68 00 00 00 00	 push	 OFFSET ??_C@_0BN@OLMADCHD@?$LI?$LG?$LA?K?$LL?g?5?$LI?s?$LN?$LK?E?M?$LJ?f?$LO?n?$LH?B?$LA?$KI?$LM?R?5?3?5?$CFd@
  00057	ff 15 00 00 00
	00		 call	 DWORD PTR ?LogAdd@@3P6AXPADZZA ; LogAdd
  0005d	83 c4 08	 add	 esp, 8

; 1346 : 
; 1347 : 	if( retCalcSkillResistance(lpTargetObj, TRUE)  )

  00060	6a 01		 push	 1
  00062	8b 45 f0	 mov	 eax, DWORD PTR _lpTargetObj$[ebp]
  00065	50		 push	 eax
  00066	e8 00 00 00 00	 call	 ?retCalcSkillResistance@@YAHPAVOBJECTSTRUCT@@H@Z ; retCalcSkillResistance
  0006b	83 c4 08	 add	 esp, 8
  0006e	85 c0		 test	 eax, eax
  00070	74 4a		 je	 SHORT $LN1@MaGumSkill

; 1348 : 	{
; 1349 : #ifdef MODIFY_OLD_BUFF_EFFECT_SYSTEM_20071004
; 1350 : 		gObjAddBuffEffect( lpTargetObj, BUFFTYPE_DEFENSE_POWER_DEC, EFFECTTYPE_DECREASE_DEFENSE, 10, 0, 0, 10 );
; 1351 : #else
; 1352 : 		lpTargetObj->m_SkillMagumReduceDefense = 10;

  00072	8b 45 f0	 mov	 eax, DWORD PTR _lpTargetObj$[ebp]
  00075	c7 80 04 1a 00
	00 0a 00 00 00	 mov	 DWORD PTR [eax+6660], 10 ; 0000000aH

; 1353 : 		lpTargetObj->m_SkillMagumReduceDefenseTime = 10;

  0007f	8b 45 f0	 mov	 eax, DWORD PTR _lpTargetObj$[ebp]
  00082	c7 80 08 1a 00
	00 0a 00 00 00	 mov	 DWORD PTR [eax+6664], 10 ; 0000000aH

; 1354 : 		lpTargetObj->m_ViewSkillState |= STATE_REDUCE_DEFENSE;	//	7번째 비트 : 마검사 방어력 감소

  0008c	8b 45 f0	 mov	 eax, DWORD PTR _lpTargetObj$[ebp]
  0008f	0f b7 88 c0 01
	00 00		 movzx	 ecx, WORD PTR [eax+448]
  00096	83 c9 40	 or	 ecx, 64			; 00000040H
  00099	8b 55 f0	 mov	 edx, DWORD PTR _lpTargetObj$[ebp]
  0009c	66 89 8a c0 01
	00 00		 mov	 WORD PTR [edx+448], cx

; 1355 : #endif // MODIFY_OLD_BUFF_EFFECT_SYSTEM_20071004
; 1356 : 		GCMagicAttackNumberSend(lpObj, AT_SKILL_DEFENSEDOWN, lpTargetObj->m_Index, skillSuccess);

  000a3	0f b6 45 f8	 movzx	 eax, BYTE PTR _skillSuccess$[ebp]
  000a7	50		 push	 eax
  000a8	8b 4d f0	 mov	 ecx, DWORD PTR _lpTargetObj$[ebp]
  000ab	8b 11		 mov	 edx, DWORD PTR [ecx]
  000ad	52		 push	 edx
  000ae	6a 37		 push	 55			; 00000037H
  000b0	8b 45 f4	 mov	 eax, DWORD PTR _lpObj$[ebp]
  000b3	50		 push	 eax
  000b4	e8 00 00 00 00	 call	 ?GCMagicAttackNumberSend@@YAXPAVOBJECTSTRUCT@@EHE@Z ; GCMagicAttackNumberSend
  000b9	83 c4 10	 add	 esp, 16			; 00000010H
$LN1@MaGumSkill:

; 1357 : 	}
; 1358 : }

  000bc	5f		 pop	 edi
  000bd	5e		 pop	 esi
  000be	5b		 pop	 ebx
  000bf	8b e5		 mov	 esp, ebp
  000c1	5d		 pop	 ebp
  000c2	c2 0c 00	 ret	 12			; 0000000cH
?MaGumSkillDefenseDown@CObjUseSkill@@QAEXHHH@Z ENDP	; CObjUseSkill::MaGumSkillDefenseDown
_TEXT	ENDS
; Function compile flags: /Odtp /ZI
; File C:\Mu Online\Mu-GS-Webzen-MC-10093\GameServer\ObjUseSkill.cpp
;	COMDAT ?RunningSkill@CObjUseSkill@@QAEHHHPAVCMagicInf@@H@Z
_TEXT	SEGMENT
tv72 = -84						; size = 4
_MagicNumber$ = -13					; size = 1
_lpTargetObj$ = -12					; size = 4
_lpObj$ = -8						; size = 4
_this$ = -4						; size = 4
_aIndex$ = 8						; size = 4
_aTargetIndex$ = 12					; size = 4
_lpMagic$ = 16						; size = 4
_bCombo$ = 20						; size = 4
?RunningSkill@CObjUseSkill@@QAEHHHPAVCMagicInf@@H@Z PROC ; CObjUseSkill::RunningSkill, COMDAT
; _this$ = ecx

; 1037 : {

  00000	55		 push	 ebp
  00001	8b ec		 mov	 ebp, esp
  00003	83 ec 54	 sub	 esp, 84			; 00000054H
  00006	53		 push	 ebx
  00007	56		 push	 esi
  00008	57		 push	 edi
  00009	89 4d fc	 mov	 DWORD PTR _this$[ebp], ecx

; 1038 : 	LPOBJECTSTRUCT lpObj= &gObj[aIndex];	

  0000c	69 45 08 a0 1b
	00 00		 imul	 eax, DWORD PTR _aIndex$[ebp], 7072
  00013	03 05 00 00 00
	00		 add	 eax, DWORD PTR ?gObj@@3PAVOBJECTSTRUCT@@A ; gObj
  00019	89 45 f8	 mov	 DWORD PTR _lpObj$[ebp], eax

; 1039 : 	LPOBJECTSTRUCT lpTargetObj= &gObj[aTargetIndex];

  0001c	69 45 0c a0 1b
	00 00		 imul	 eax, DWORD PTR _aTargetIndex$[ebp], 7072
  00023	03 05 00 00 00
	00		 add	 eax, DWORD PTR ?gObj@@3PAVOBJECTSTRUCT@@A ; gObj
  00029	89 45 f4	 mov	 DWORD PTR _lpTargetObj$[ebp], eax

; 1040 : 
; 1041 : #ifdef ADD_MASTER_LEVEL_SKILL_SYSTEM_ACTIVE_20080107	// 스킬번호 BYTE -> WORD 
; 1042 : 	INT MagicNumber;
; 1043 : #else
; 1044 : 	BYTE MagicNumber;
; 1045 : #endif
; 1046 : 
; 1047 : 	MagicNumber			 = lpMagic->m_Skill;

  0002c	8b 45 10	 mov	 eax, DWORD PTR _lpMagic$[ebp]
  0002f	8a 48 05	 mov	 cl, BYTE PTR [eax+5]
  00032	88 4d f3	 mov	 BYTE PTR _MagicNumber$[ebp], cl

; 1048 : 	lpObj->m_SkillNumber = MagicNumber;

  00035	66 0f b6 45 f3	 movzx	 ax, BYTE PTR _MagicNumber$[ebp]
  0003a	8b 4d f8	 mov	 ecx, DWORD PTR _lpObj$[ebp]
  0003d	66 89 81 34 02
	00 00		 mov	 WORD PTR [ecx+564], ax

; 1049 : 
; 1050 : #ifdef ADD_NEW_SKILL_FOR_CASTLE_02_20050531
; 1051 : 	// 공격자가 투명 상태에 있다면 투명상태를 해제한다.
; 1052 : 	#ifdef MODIFY_OLD_BUFF_EFFECT_SYSTEM_20071004
; 1053 : 	if( gObjCheckUsedBuffEffect( lpObj, BUFFTYPE_INVISABLE ) == true )
; 1054 : 	#else
; 1055 : 	if( lpObj->m_iSkillInvisibleTime > 0 )
; 1056 : 	#endif // MODIFY_OLD_BUFF_EFFECT_SYSTEM_20071004
; 1057 : 	{
; 1058 : 	#ifdef MODIFY_BUFFSYSTEM_BUGFIX_05_20071220
; 1059 : 		if( ( lpObj->Authority & AUTHORITY_EVENT_GM ) != AUTHORITY_EVENT_GM )
; 1060 : 		{
; 1061 : 			this->RemoveCloakingEffect(lpObj->m_Index);
; 1062 : 		}
; 1063 : 	#else
; 1064 : 		this->RemoveCloakingEffect(lpObj->m_Index);
; 1065 : 	#endif // MODIFY_BUFFSYSTEM_BUGFIX_05_20071220
; 1066 : 	}
; 1067 : #endif
; 1068 : 
; 1069 : #ifdef ADD_MASTER_LEVEL_SKILL_SYSTEM_ACTIVE_20080107	// 마스터레벨 스킬 처리는 따로 뺀다.
; 1070 : 	if( g_MasterSkillSystem.CheckMasterLevelSkill( lpMagic->m_Skill ) )
; 1071 : 	{
; 1072 : 		return g_MasterSkillSystem.RunningSkill_MLS( lpObj, aTargetIndex, lpMagic, bCombo );
; 1073 : 	}
; 1074 : #endif
; 1075 : 	
; 1076 : 	switch(MagicNumber)

  00044	0f b6 45 f3	 movzx	 eax, BYTE PTR _MagicNumber$[ebp]
  00048	89 45 ac	 mov	 DWORD PTR tv72[ebp], eax
  0004b	8b 4d ac	 mov	 ecx, DWORD PTR tv72[ebp]
  0004e	83 e9 01	 sub	 ecx, 1
  00051	89 4d ac	 mov	 DWORD PTR tv72[ebp], ecx
  00054	81 7d ac c9 00
	00 00		 cmp	 DWORD PTR tv72[ebp], 201 ; 000000c9H
  0005b	0f 87 c8 03 00
	00		 ja	 $LN32@RunningSki
  00061	8b 55 ac	 mov	 edx, DWORD PTR tv72[ebp]
  00064	0f b6 82 00 00
	00 00		 movzx	 eax, BYTE PTR $LN34@RunningSki[edx]
  0006b	ff 24 85 00 00
	00 00		 jmp	 DWORD PTR $LN35@RunningSki[eax*4]
$LN4@RunningSki:

; 1077 : 	{
; 1078 : 	case AT_SKILL_BLOCKING :
; 1079 : 		// 아이템이 있는지 확인..
; 1080 : 		if( lpObj->pInventory[EQUIPMENT_WEAPON_LEFT].IsItem() == TRUE )

  00072	b9 a8 00 00 00	 mov	 ecx, 168		; 000000a8H
  00077	c1 e1 00	 shl	 ecx, 0
  0007a	8b 45 f8	 mov	 eax, DWORD PTR _lpObj$[ebp]
  0007d	03 88 5c 0c 00
	00		 add	 ecx, DWORD PTR [eax+3164]
  00083	e8 00 00 00 00	 call	 ?IsItem@CItem@@QAEHXZ	; CItem::IsItem
  00088	83 f8 01	 cmp	 eax, 1
  0008b	75 7c		 jne	 SHORT $LN5@RunningSki

; 1081 : 		{
; 1082 : 			if( lpObj->pInventory[EQUIPMENT_WEAPON_LEFT].m_Type >= ITEM_SHIELD+4 &&

  0008d	b8 a8 00 00 00	 mov	 eax, 168		; 000000a8H
  00092	c1 e0 00	 shl	 eax, 0
  00095	8b 4d f8	 mov	 ecx, DWORD PTR _lpObj$[ebp]
  00098	8b 91 5c 0c 00
	00		 mov	 edx, DWORD PTR [ecx+3164]
  0009e	0f bf 44 02 06	 movsx	 eax, WORD PTR [edx+eax+6]
  000a3	3d c4 00 00 00	 cmp	 eax, 196		; 000000c4H
  000a8	7c 5f		 jl	 SHORT $LN5@RunningSki
  000aa	b8 a8 00 00 00	 mov	 eax, 168		; 000000a8H
  000af	c1 e0 00	 shl	 eax, 0
  000b2	8b 4d f8	 mov	 ecx, DWORD PTR _lpObj$[ebp]
  000b5	8b 91 5c 0c 00
	00		 mov	 edx, DWORD PTR [ecx+3164]
  000bb	0f bf 44 02 06	 movsx	 eax, WORD PTR [edx+eax+6]
  000c0	3d e0 00 00 00	 cmp	 eax, 224		; 000000e0H
  000c5	7d 42		 jge	 SHORT $LN5@RunningSki

; 1083 : 				lpObj->pInventory[EQUIPMENT_WEAPON_LEFT].m_Type < ITEM_SHIELD+MAX_ITEM_INDEX )
; 1084 : 			{
; 1085 : 				if( lpObj->pInventory[EQUIPMENT_WEAPON_LEFT].m_Option1 )

  000c7	b8 a8 00 00 00	 mov	 eax, 168		; 000000a8H
  000cc	c1 e0 00	 shl	 eax, 0
  000cf	8b 4d f8	 mov	 ecx, DWORD PTR _lpObj$[ebp]
  000d2	8b 91 5c 0c 00
	00		 mov	 edx, DWORD PTR [ecx+3164]
  000d8	0f b6 44 02 78	 movzx	 eax, BYTE PTR [edx+eax+120]
  000dd	85 c0		 test	 eax, eax
  000df	74 28		 je	 SHORT $LN5@RunningSki

; 1086 : 				{
; 1087 : 					lpObj->m_SkillTime   = GetTickCount()+(4000);

  000e1	ff 15 00 00 00
	00		 call	 DWORD PTR __imp__GetTickCount@0
  000e7	05 a0 0f 00 00	 add	 eax, 4000		; 00000fa0H
  000ec	8b 4d f8	 mov	 ecx, DWORD PTR _lpObj$[ebp]
  000ef	89 81 38 02 00
	00		 mov	 DWORD PTR [ecx+568], eax

; 1088 : #ifdef ADD_TRAP_OBJECT_EXTEND_20060731
; 1089 : 					GCActionSend(lpObj, AT_SKILL_BLOCKING, lpObj->m_Index, aTargetIndex );
; 1090 : #else
; 1091 : 					GCActionSend(lpObj, AT_SKILL_BLOCKING, lpObj->m_Index);

  000f5	8b 45 f8	 mov	 eax, DWORD PTR _lpObj$[ebp]
  000f8	8b 08		 mov	 ecx, DWORD PTR [eax]
  000fa	51		 push	 ecx
  000fb	6a 12		 push	 18			; 00000012H
  000fd	8b 55 f8	 mov	 edx, DWORD PTR _lpObj$[ebp]
  00100	52		 push	 edx
  00101	e8 00 00 00 00	 call	 ?GCActionSend@@YAXPAVOBJECTSTRUCT@@EH@Z ; GCActionSend
  00106	83 c4 0c	 add	 esp, 12			; 0000000cH
$LN5@RunningSki:

; 1092 : #endif // ADD_TRAP_OBJECT_EXTEND_20060731
; 1093 : 				}
; 1094 : 			}
; 1095 : 		}
; 1096 : 		break;

  00109	e9 37 03 00 00	 jmp	 $LN2@RunningSki
$LN8@RunningSki:

; 1097 : 	case AT_SKILL_POISON :
; 1098 : 	case AT_SKILL_METEO  :
; 1099 : 	case AT_SKILL_THUNDER:
; 1100 : 	case AT_SKILL_ENERGYBALL :
; 1101 : 	case AT_SKILL_FLAME :
; 1102 : 	case AT_SKILL_SWORD1 :	// 내려찍기 사용자 스킬
; 1103 : 	case AT_SKILL_SWORD2 :
; 1104 : 	case AT_SKILL_SWORD3 :
; 1105 : 	case AT_SKILL_SWORD4 :
; 1106 : 	case AT_SKILL_SWORD5 :
; 1107 : #ifdef ADD_SKILL_20031022
; 1108 : 	case AT_SKILL_SWORD6 :
; 1109 : #endif			
; 1110 : 	case AT_SKILL_SLOW :
; 1111 : 	case AT_SKILL_BOW :
; 1112 : 	case AT_SKILL_FIREBALL :
; 1113 : 	case AT_SKILL_CROSSBOW :	
; 1114 : 	case AT_SKILL_WHEEL :
; 1115 : 	case AT_SKILL_BLOWOFFURY :
; 1116 : 
; 1117 : #ifdef NEW_SKILL_FORSKYLAND
; 1118 : 	//case AT_SKILL_SWORDAURORA :
; 1119 : 	case AT_SKILL_KNIGHTSPEAR :	
; 1120 : 	case AT_SKILL_PENETRATION :
; 1121 : #endif
; 1122 : 		gObjAttack(lpObj, lpTargetObj, lpMagic, 1, 0);

  0010e	6a 00		 push	 0
  00110	6a 00		 push	 0
  00112	6a 00		 push	 0
  00114	6a 01		 push	 1
  00116	8b 45 10	 mov	 eax, DWORD PTR _lpMagic$[ebp]
  00119	50		 push	 eax
  0011a	8b 4d f4	 mov	 ecx, DWORD PTR _lpTargetObj$[ebp]
  0011d	51		 push	 ecx
  0011e	8b 55 f8	 mov	 edx, DWORD PTR _lpObj$[ebp]
  00121	52		 push	 edx
  00122	e8 00 00 00 00	 call	 ?gObjAttack@@YAHPAVOBJECTSTRUCT@@0PAVCMagicInf@@HEHH@Z ; gObjAttack
  00127	83 c4 1c	 add	 esp, 28			; 0000001cH

; 1123 : 		break;

  0012a	e9 16 03 00 00	 jmp	 $LN2@RunningSki
$LN9@RunningSki:

; 1124 : 	case AT_SKILL_HEALING :	// 치료
; 1125 : 		SkillHealing(aIndex, aTargetIndex, lpMagic->m_Level);

  0012f	8b 45 10	 mov	 eax, DWORD PTR _lpMagic$[ebp]
  00132	0f b6 48 04	 movzx	 ecx, BYTE PTR [eax+4]
  00136	51		 push	 ecx
  00137	8b 55 0c	 mov	 edx, DWORD PTR _aTargetIndex$[ebp]
  0013a	52		 push	 edx
  0013b	8b 45 08	 mov	 eax, DWORD PTR _aIndex$[ebp]
  0013e	50		 push	 eax
  0013f	8b 4d fc	 mov	 ecx, DWORD PTR _this$[ebp]
  00142	e8 00 00 00 00	 call	 ?SkillHealing@CObjUseSkill@@QAEXHHH@Z ; CObjUseSkill::SkillHealing

; 1126 : 		break;

  00147	e9 f9 02 00 00	 jmp	 $LN2@RunningSki
$LN10@RunningSki:

; 1127 : 
; 1128 : #ifdef NEW_SKILL_FORSKYLAND
; 1129 : 	case AT_SKILL_MAGICDEFENSE :	// 방어력 증가
; 1130 : #ifdef NEW_FORSKYLAND3
; 1131 : 		WizardMagicDefense(aIndex, aTargetIndex, lpMagic->m_Level);

  0014c	8b 45 10	 mov	 eax, DWORD PTR _lpMagic$[ebp]
  0014f	0f b6 48 04	 movzx	 ecx, BYTE PTR [eax+4]
  00153	51		 push	 ecx
  00154	8b 55 0c	 mov	 edx, DWORD PTR _aTargetIndex$[ebp]
  00157	52		 push	 edx
  00158	8b 45 08	 mov	 eax, DWORD PTR _aIndex$[ebp]
  0015b	50		 push	 eax
  0015c	8b 4d fc	 mov	 ecx, DWORD PTR _this$[ebp]
  0015f	e8 00 00 00 00	 call	 ?WizardMagicDefense@CObjUseSkill@@QAEXHHH@Z ; CObjUseSkill::WizardMagicDefense

; 1132 : #else
; 1133 : 		WizardMagicDefense(aIndex, lpMagic->m_Level);
; 1134 : #endif
; 1135 : 		break;

  00164	e9 dc 02 00 00	 jmp	 $LN2@RunningSki
$LN11@RunningSki:

; 1136 : 
; 1137 : 	case AT_SKILL_KNIGHTADDLIFE :		// 생명력 증가
; 1138 : 		KnightSkillAddLife(aIndex, lpMagic->m_Level);

  00169	8b 45 10	 mov	 eax, DWORD PTR _lpMagic$[ebp]
  0016c	0f b6 48 04	 movzx	 ecx, BYTE PTR [eax+4]
  00170	51		 push	 ecx
  00171	8b 55 08	 mov	 edx, DWORD PTR _aIndex$[ebp]
  00174	52		 push	 edx
  00175	8b 4d fc	 mov	 ecx, DWORD PTR _this$[ebp]
  00178	e8 00 00 00 00	 call	 ?KnightSkillAddLife@CObjUseSkill@@QAEXHH@Z ; CObjUseSkill::KnightSkillAddLife

; 1139 : 		break;

  0017d	e9 c3 02 00 00	 jmp	 $LN2@RunningSki
$LN12@RunningSki:

; 1140 : #endif
; 1141 : 	case AT_SKILL_DEFENSE :	// 방어력 증가
; 1142 : 		SkillDefense(aIndex, aTargetIndex, lpMagic->m_Level);

  00182	8b 45 10	 mov	 eax, DWORD PTR _lpMagic$[ebp]
  00185	0f b6 48 04	 movzx	 ecx, BYTE PTR [eax+4]
  00189	51		 push	 ecx
  0018a	8b 55 0c	 mov	 edx, DWORD PTR _aTargetIndex$[ebp]
  0018d	52		 push	 edx
  0018e	8b 45 08	 mov	 eax, DWORD PTR _aIndex$[ebp]
  00191	50		 push	 eax
  00192	8b 4d fc	 mov	 ecx, DWORD PTR _this$[ebp]
  00195	e8 00 00 00 00	 call	 ?SkillDefense@CObjUseSkill@@QAEXHHH@Z ; CObjUseSkill::SkillDefense

; 1143 : 		break;

  0019a	e9 a6 02 00 00	 jmp	 $LN2@RunningSki
$LN13@RunningSki:

; 1144 : 	case AT_SKILL_ATTACK :
; 1145 : 		SkillAttack(aIndex, aTargetIndex, lpMagic->m_Level);

  0019f	8b 45 10	 mov	 eax, DWORD PTR _lpMagic$[ebp]
  001a2	0f b6 48 04	 movzx	 ecx, BYTE PTR [eax+4]
  001a6	51		 push	 ecx
  001a7	8b 55 0c	 mov	 edx, DWORD PTR _aTargetIndex$[ebp]
  001aa	52		 push	 edx
  001ab	8b 45 08	 mov	 eax, DWORD PTR _aIndex$[ebp]
  001ae	50		 push	 eax
  001af	8b 4d fc	 mov	 ecx, DWORD PTR _this$[ebp]
  001b2	e8 00 00 00 00	 call	 ?SkillAttack@CObjUseSkill@@QAEXHHH@Z ; CObjUseSkill::SkillAttack

; 1146 : 		break;

  001b7	e9 89 02 00 00	 jmp	 $LN2@RunningSki
$LN14@RunningSki:

; 1147 : 	case AT_SKILL_CALLMON1 : return SkillMonsterCall(lpObj->m_Index, 26, lpObj->X-1, lpObj->Y+1);	// 고블린

  001bc	8b 45 f8	 mov	 eax, DWORD PTR _lpObj$[ebp]
  001bf	0f bf 88 06 01
	00 00		 movsx	 ecx, WORD PTR [eax+262]
  001c6	83 c1 01	 add	 ecx, 1
  001c9	51		 push	 ecx
  001ca	8b 55 f8	 mov	 edx, DWORD PTR _lpObj$[ebp]
  001cd	0f bf 82 04 01
	00 00		 movsx	 eax, WORD PTR [edx+260]
  001d4	83 e8 01	 sub	 eax, 1
  001d7	50		 push	 eax
  001d8	6a 1a		 push	 26			; 0000001aH
  001da	8b 4d f8	 mov	 ecx, DWORD PTR _lpObj$[ebp]
  001dd	8b 11		 mov	 edx, DWORD PTR [ecx]
  001df	52		 push	 edx
  001e0	8b 4d fc	 mov	 ecx, DWORD PTR _this$[ebp]
  001e3	e8 00 00 00 00	 call	 ?SkillMonsterCall@CObjUseSkill@@QAEHHHHH@Z ; CObjUseSkill::SkillMonsterCall
  001e8	e9 5d 02 00 00	 jmp	 $LN1@RunningSki
$LN15@RunningSki:

; 1148 : 	case AT_SKILL_CALLMON2 : return SkillMonsterCall(lpObj->m_Index, 32, lpObj->X-1, lpObj->Y+1);	// 돌괴물

  001ed	8b 45 f8	 mov	 eax, DWORD PTR _lpObj$[ebp]
  001f0	0f bf 88 06 01
	00 00		 movsx	 ecx, WORD PTR [eax+262]
  001f7	83 c1 01	 add	 ecx, 1
  001fa	51		 push	 ecx
  001fb	8b 55 f8	 mov	 edx, DWORD PTR _lpObj$[ebp]
  001fe	0f bf 82 04 01
	00 00		 movsx	 eax, WORD PTR [edx+260]
  00205	83 e8 01	 sub	 eax, 1
  00208	50		 push	 eax
  00209	6a 20		 push	 32			; 00000020H
  0020b	8b 4d f8	 mov	 ecx, DWORD PTR _lpObj$[ebp]
  0020e	8b 11		 mov	 edx, DWORD PTR [ecx]
  00210	52		 push	 edx
  00211	8b 4d fc	 mov	 ecx, DWORD PTR _this$[ebp]
  00214	e8 00 00 00 00	 call	 ?SkillMonsterCall@CObjUseSkill@@QAEHHHHH@Z ; CObjUseSkill::SkillMonsterCall
  00219	e9 2c 02 00 00	 jmp	 $LN1@RunningSki
$LN16@RunningSki:

; 1149 : 	case AT_SKILL_CALLMON3 : return SkillMonsterCall(lpObj->m_Index, 21, lpObj->X-1, lpObj->Y+1);	// 암살자

  0021e	8b 45 f8	 mov	 eax, DWORD PTR _lpObj$[ebp]
  00221	0f bf 88 06 01
	00 00		 movsx	 ecx, WORD PTR [eax+262]
  00228	83 c1 01	 add	 ecx, 1
  0022b	51		 push	 ecx
  0022c	8b 55 f8	 mov	 edx, DWORD PTR _lpObj$[ebp]
  0022f	0f bf 82 04 01
	00 00		 movsx	 eax, WORD PTR [edx+260]
  00236	83 e8 01	 sub	 eax, 1
  00239	50		 push	 eax
  0023a	6a 15		 push	 21			; 00000015H
  0023c	8b 4d f8	 mov	 ecx, DWORD PTR _lpObj$[ebp]
  0023f	8b 11		 mov	 edx, DWORD PTR [ecx]
  00241	52		 push	 edx
  00242	8b 4d fc	 mov	 ecx, DWORD PTR _this$[ebp]
  00245	e8 00 00 00 00	 call	 ?SkillMonsterCall@CObjUseSkill@@QAEHHHHH@Z ; CObjUseSkill::SkillMonsterCall
  0024a	e9 fb 01 00 00	 jmp	 $LN1@RunningSki
$LN17@RunningSki:

; 1150 : 	case AT_SKILL_CALLMON4 : return SkillMonsterCall(lpObj->m_Index, 20, lpObj->X-1, lpObj->Y+1);	// 설인대장

  0024f	8b 45 f8	 mov	 eax, DWORD PTR _lpObj$[ebp]
  00252	0f bf 88 06 01
	00 00		 movsx	 ecx, WORD PTR [eax+262]
  00259	83 c1 01	 add	 ecx, 1
  0025c	51		 push	 ecx
  0025d	8b 55 f8	 mov	 edx, DWORD PTR _lpObj$[ebp]
  00260	0f bf 82 04 01
	00 00		 movsx	 eax, WORD PTR [edx+260]
  00267	83 e8 01	 sub	 eax, 1
  0026a	50		 push	 eax
  0026b	6a 14		 push	 20			; 00000014H
  0026d	8b 4d f8	 mov	 ecx, DWORD PTR _lpObj$[ebp]
  00270	8b 11		 mov	 edx, DWORD PTR [ecx]
  00272	52		 push	 edx
  00273	8b 4d fc	 mov	 ecx, DWORD PTR _this$[ebp]
  00276	e8 00 00 00 00	 call	 ?SkillMonsterCall@CObjUseSkill@@QAEHHHHH@Z ; CObjUseSkill::SkillMonsterCall
  0027b	e9 ca 01 00 00	 jmp	 $LN1@RunningSki
$LN18@RunningSki:

; 1151 : 	case AT_SKILL_CALLMON5 : return SkillMonsterCall(lpObj->m_Index, 10, lpObj->X-1, lpObj->Y+1);	// 다크나이트

  00280	8b 45 f8	 mov	 eax, DWORD PTR _lpObj$[ebp]
  00283	0f bf 88 06 01
	00 00		 movsx	 ecx, WORD PTR [eax+262]
  0028a	83 c1 01	 add	 ecx, 1
  0028d	51		 push	 ecx
  0028e	8b 55 f8	 mov	 edx, DWORD PTR _lpObj$[ebp]
  00291	0f bf 82 04 01
	00 00		 movsx	 eax, WORD PTR [edx+260]
  00298	83 e8 01	 sub	 eax, 1
  0029b	50		 push	 eax
  0029c	6a 0a		 push	 10			; 0000000aH
  0029e	8b 4d f8	 mov	 ecx, DWORD PTR _lpObj$[ebp]
  002a1	8b 11		 mov	 edx, DWORD PTR [ecx]
  002a3	52		 push	 edx
  002a4	8b 4d fc	 mov	 ecx, DWORD PTR _this$[ebp]
  002a7	e8 00 00 00 00	 call	 ?SkillMonsterCall@CObjUseSkill@@QAEHHHHH@Z ; CObjUseSkill::SkillMonsterCall
  002ac	e9 99 01 00 00	 jmp	 $LN1@RunningSki
$LN19@RunningSki:

; 1152 : 	case AT_SKILL_CALLMON6 : return SkillMonsterCall(lpObj->m_Index, 150, lpObj->X-1, lpObj->Y+1);	// 발리

  002b1	8b 45 f8	 mov	 eax, DWORD PTR _lpObj$[ebp]
  002b4	0f bf 88 06 01
	00 00		 movsx	 ecx, WORD PTR [eax+262]
  002bb	83 c1 01	 add	 ecx, 1
  002be	51		 push	 ecx
  002bf	8b 55 f8	 mov	 edx, DWORD PTR _lpObj$[ebp]
  002c2	0f bf 82 04 01
	00 00		 movsx	 eax, WORD PTR [edx+260]
  002c9	83 e8 01	 sub	 eax, 1
  002cc	50		 push	 eax
  002cd	68 96 00 00 00	 push	 150			; 00000096H
  002d2	8b 4d f8	 mov	 ecx, DWORD PTR _lpObj$[ebp]
  002d5	8b 11		 mov	 edx, DWORD PTR [ecx]
  002d7	52		 push	 edx
  002d8	8b 4d fc	 mov	 ecx, DWORD PTR _this$[ebp]
  002db	e8 00 00 00 00	 call	 ?SkillMonsterCall@CObjUseSkill@@QAEHHHHH@Z ; CObjUseSkill::SkillMonsterCall
  002e0	e9 65 01 00 00	 jmp	 $LN1@RunningSki
$LN20@RunningSki:

; 1153 : 	case AT_SKILL_CALLMON7 : return SkillMonsterCall(lpObj->m_Index, 151, lpObj->X-1, lpObj->Y+1);	// 솔져

  002e5	8b 45 f8	 mov	 eax, DWORD PTR _lpObj$[ebp]
  002e8	0f bf 88 06 01
	00 00		 movsx	 ecx, WORD PTR [eax+262]
  002ef	83 c1 01	 add	 ecx, 1
  002f2	51		 push	 ecx
  002f3	8b 55 f8	 mov	 edx, DWORD PTR _lpObj$[ebp]
  002f6	0f bf 82 04 01
	00 00		 movsx	 eax, WORD PTR [edx+260]
  002fd	83 e8 01	 sub	 eax, 1
  00300	50		 push	 eax
  00301	68 97 00 00 00	 push	 151			; 00000097H
  00306	8b 4d f8	 mov	 ecx, DWORD PTR _lpObj$[ebp]
  00309	8b 11		 mov	 edx, DWORD PTR [ecx]
  0030b	52		 push	 edx
  0030c	8b 4d fc	 mov	 ecx, DWORD PTR _this$[ebp]
  0030f	e8 00 00 00 00	 call	 ?SkillMonsterCall@CObjUseSkill@@QAEHHHHH@Z ; CObjUseSkill::SkillMonsterCall
  00314	e9 31 01 00 00	 jmp	 $LN1@RunningSki
$LN21@RunningSki:

; 1154 : 
; 1155 : #ifdef ADD_SKILL_WITH_COMBO
; 1156 : 	//case AT_SKILL_EXPPOISON : return SkillDeathPoison(lpObj->m_Index, aTargetIndex, lpMagic);
; 1157 : 	//case AT_SKILL_EXPICE : return SkillSuddenIce(lpObj->m_Index, aTargetIndex, lpMagic);
; 1158 : 	case AT_SKILL_EXPHELL : return SkillHellFire2(lpObj->m_Index, aTargetIndex, lpMagic);

  00319	8b 45 10	 mov	 eax, DWORD PTR _lpMagic$[ebp]
  0031c	50		 push	 eax
  0031d	8b 4d 0c	 mov	 ecx, DWORD PTR _aTargetIndex$[ebp]
  00320	51		 push	 ecx
  00321	8b 55 f8	 mov	 edx, DWORD PTR _lpObj$[ebp]
  00324	8b 02		 mov	 eax, DWORD PTR [edx]
  00326	50		 push	 eax
  00327	8b 4d fc	 mov	 ecx, DWORD PTR _this$[ebp]
  0032a	e8 00 00 00 00	 call	 ?SkillHellFire2@CObjUseSkill@@QAEHHHPAVCMagicInf@@@Z ; CObjUseSkill::SkillHellFire2
  0032f	e9 16 01 00 00	 jmp	 $LN1@RunningSki
$LN22@RunningSki:

; 1159 : 
; 1160 : 	case AT_SKILL_STRIKE : return SkillKnightBlow(lpObj->m_Index, aTargetIndex, lpMagic, bCombo);	// 블로우(기사)	

  00334	8b 45 14	 mov	 eax, DWORD PTR _bCombo$[ebp]
  00337	50		 push	 eax
  00338	8b 4d 10	 mov	 ecx, DWORD PTR _lpMagic$[ebp]
  0033b	51		 push	 ecx
  0033c	8b 55 0c	 mov	 edx, DWORD PTR _aTargetIndex$[ebp]
  0033f	52		 push	 edx
  00340	8b 45 f8	 mov	 eax, DWORD PTR _lpObj$[ebp]
  00343	8b 08		 mov	 ecx, DWORD PTR [eax]
  00345	51		 push	 ecx
  00346	8b 4d fc	 mov	 ecx, DWORD PTR _this$[ebp]
  00349	e8 00 00 00 00	 call	 ?SkillKnightBlow@CObjUseSkill@@QAEHHHPAVCMagicInf@@H@Z ; CObjUseSkill::SkillKnightBlow
  0034e	e9 f7 00 00 00	 jmp	 $LN1@RunningSki
$LN23@RunningSki:

; 1161 : 
; 1162 : 	//case AT_SKILL_EXPHELL_START : return SkillHellFire2Start(lpObj->m_Index, lpMagic);	// 헬파이어2 사용한다고 알림
; 1163 : #endif
; 1164 : 
; 1165 : #ifdef DARKLORD_WORK
; 1166 : 	case AT_SKILL_SPEAR :			return SkillSpear(lpObj->m_Index, aTargetIndex, lpMagic);	// 스피어(다크로드)

  00353	8b 45 10	 mov	 eax, DWORD PTR _lpMagic$[ebp]
  00356	50		 push	 eax
  00357	8b 4d 0c	 mov	 ecx, DWORD PTR _aTargetIndex$[ebp]
  0035a	51		 push	 ecx
  0035b	8b 55 f8	 mov	 edx, DWORD PTR _lpObj$[ebp]
  0035e	8b 02		 mov	 eax, DWORD PTR [edx]
  00360	50		 push	 eax
  00361	8b 4d fc	 mov	 ecx, DWORD PTR _this$[ebp]
  00364	e8 00 00 00 00	 call	 ?SkillSpear@CObjUseSkill@@QAEHHHPAVCMagicInf@@@Z ; CObjUseSkill::SkillSpear
  00369	e9 dc 00 00 00	 jmp	 $LN1@RunningSki
$LN24@RunningSki:

; 1167 : 	case AT_SKILL_FIREBURST :		return SkillFireBurst(lpObj->m_Index, aTargetIndex, lpMagic);	// 파이어버스트(다크로드)

  0036e	8b 45 10	 mov	 eax, DWORD PTR _lpMagic$[ebp]
  00371	50		 push	 eax
  00372	8b 4d 0c	 mov	 ecx, DWORD PTR _aTargetIndex$[ebp]
  00375	51		 push	 ecx
  00376	8b 55 f8	 mov	 edx, DWORD PTR _lpObj$[ebp]
  00379	8b 02		 mov	 eax, DWORD PTR [edx]
  0037b	50		 push	 eax
  0037c	8b 4d fc	 mov	 ecx, DWORD PTR _this$[ebp]
  0037f	e8 00 00 00 00	 call	 ?SkillFireBurst@CObjUseSkill@@QAEHHHPAVCMagicInf@@@Z ; CObjUseSkill::SkillFireBurst
  00384	e9 c1 00 00 00	 jmp	 $LN1@RunningSki
$LN25@RunningSki:

; 1168 : 	case AT_SKILL_DARKHORSE_ATTACK :	return SkillDarkHorseAttack(lpObj->m_Index, aTargetIndex, lpMagic);	// 다크호스 어택(다크로드)

  00389	8b 45 10	 mov	 eax, DWORD PTR _lpMagic$[ebp]
  0038c	50		 push	 eax
  0038d	8b 4d 0c	 mov	 ecx, DWORD PTR _aTargetIndex$[ebp]
  00390	51		 push	 ecx
  00391	8b 55 f8	 mov	 edx, DWORD PTR _lpObj$[ebp]
  00394	8b 02		 mov	 eax, DWORD PTR [edx]
  00396	50		 push	 eax
  00397	8b 4d fc	 mov	 ecx, DWORD PTR _this$[ebp]
  0039a	e8 00 00 00 00	 call	 ?SkillDarkHorseAttack@CObjUseSkill@@QAEHHHPAVCMagicInf@@@Z ; CObjUseSkill::SkillDarkHorseAttack
  0039f	e9 a6 00 00 00	 jmp	 $LN1@RunningSki
$LN26@RunningSki:

; 1169 : 
; 1170 : 	case AT_SKILL_RECALL_PARTY:		    SkillRecallParty(aIndex, lpMagic->m_Level);			break;		// 파티 소환(다크로드)

  003a4	8b 45 10	 mov	 eax, DWORD PTR _lpMagic$[ebp]
  003a7	0f b6 48 04	 movzx	 ecx, BYTE PTR [eax+4]
  003ab	51		 push	 ecx
  003ac	8b 55 08	 mov	 edx, DWORD PTR _aIndex$[ebp]
  003af	52		 push	 edx
  003b0	8b 4d fc	 mov	 ecx, DWORD PTR _this$[ebp]
  003b3	e8 00 00 00 00	 call	 ?SkillRecallParty@CObjUseSkill@@QAEXHH@Z ; CObjUseSkill::SkillRecallParty
  003b8	e9 88 00 00 00	 jmp	 $LN2@RunningSki
$LN27@RunningSki:

; 1171 : 	case AT_SKILL_ADD_CRITICALDAMAGE :	SkillAddCriticalDamage(aIndex, lpMagic->m_Level);	break;		// 크리티컬 데미지추가(다크로드)	

  003bd	8b 45 10	 mov	 eax, DWORD PTR _lpMagic$[ebp]
  003c0	0f b6 48 04	 movzx	 ecx, BYTE PTR [eax+4]
  003c4	51		 push	 ecx
  003c5	8b 55 08	 mov	 edx, DWORD PTR _aIndex$[ebp]
  003c8	52		 push	 edx
  003c9	8b 4d fc	 mov	 ecx, DWORD PTR _this$[ebp]
  003cc	e8 00 00 00 00	 call	 ?SkillAddCriticalDamage@CObjUseSkill@@QAEXHH@Z ; CObjUseSkill::SkillAddCriticalDamage
  003d1	eb 72		 jmp	 SHORT $LN2@RunningSki
$LN28@RunningSki:

; 1172 : #endif
; 1173 : #ifdef ADD_NEW_MAP_KALIMA_20040518
; 1174 : 	case AT_SKILL_DEFENSEDOWN :
; 1175 : 		{
; 1176 : 			MaGumSkillDefenseDown		(lpObj->m_Index, aTargetIndex, 1);

  003d3	6a 01		 push	 1
  003d5	8b 45 0c	 mov	 eax, DWORD PTR _aTargetIndex$[ebp]
  003d8	50		 push	 eax
  003d9	8b 4d f8	 mov	 ecx, DWORD PTR _lpObj$[ebp]
  003dc	8b 11		 mov	 edx, DWORD PTR [ecx]
  003de	52		 push	 edx
  003df	8b 4d fc	 mov	 ecx, DWORD PTR _this$[ebp]
  003e2	e8 00 00 00 00	 call	 ?MaGumSkillDefenseDown@CObjUseSkill@@QAEXHHH@Z ; CObjUseSkill::MaGumSkillDefenseDown

; 1177 : 		}
; 1178 : 		break;

  003e7	eb 5c		 jmp	 SHORT $LN2@RunningSki
$LN29@RunningSki:

; 1179 : 	case AT_SKILL_SUMMON :
; 1180 : 		{
; 1181 : 			SkillSummon			(lpObj->m_Index, aTargetIndex, lpMagic);

  003e9	8b 45 10	 mov	 eax, DWORD PTR _lpMagic$[ebp]
  003ec	50		 push	 eax
  003ed	8b 4d 0c	 mov	 ecx, DWORD PTR _aTargetIndex$[ebp]
  003f0	51		 push	 ecx
  003f1	8b 55 f8	 mov	 edx, DWORD PTR _lpObj$[ebp]
  003f4	8b 02		 mov	 eax, DWORD PTR [edx]
  003f6	50		 push	 eax
  003f7	8b 4d fc	 mov	 ecx, DWORD PTR _this$[ebp]
  003fa	e8 00 00 00 00	 call	 ?SkillSummon@CObjUseSkill@@QAEHHHPAVCMagicInf@@@Z ; CObjUseSkill::SkillSummon

; 1182 : 		}
; 1183 : 		break;

  003ff	eb 44		 jmp	 SHORT $LN2@RunningSki
$LN30@RunningSki:

; 1184 : 	case AT_SKILL_IMMUNE_TO_MAGIC :
; 1185 : 		{
; 1186 : 			SkillImmuneToMagic	(lpObj->m_Index, lpMagic);

  00401	8b 45 10	 mov	 eax, DWORD PTR _lpMagic$[ebp]
  00404	50		 push	 eax
  00405	8b 4d f8	 mov	 ecx, DWORD PTR _lpObj$[ebp]
  00408	8b 11		 mov	 edx, DWORD PTR [ecx]
  0040a	52		 push	 edx
  0040b	8b 4d fc	 mov	 ecx, DWORD PTR _this$[ebp]
  0040e	e8 00 00 00 00	 call	 ?SkillImmuneToMagic@CObjUseSkill@@QAEHHPAVCMagicInf@@@Z ; CObjUseSkill::SkillImmuneToMagic

; 1187 : 		}
; 1188 : 		break;

  00413	eb 30		 jmp	 SHORT $LN2@RunningSki
$LN31@RunningSki:

; 1189 : 	case AT_SKILL_IMMUNE_TO_HARM :
; 1190 : 		{
; 1191 : 			SkillImmuneToHarm	(lpObj->m_Index, lpMagic);

  00415	8b 45 10	 mov	 eax, DWORD PTR _lpMagic$[ebp]
  00418	50		 push	 eax
  00419	8b 4d f8	 mov	 ecx, DWORD PTR _lpObj$[ebp]
  0041c	8b 11		 mov	 edx, DWORD PTR [ecx]
  0041e	52		 push	 edx
  0041f	8b 4d fc	 mov	 ecx, DWORD PTR _this$[ebp]
  00422	e8 00 00 00 00	 call	 ?SkillImmuneToHarm@CObjUseSkill@@QAEHHPAVCMagicInf@@@Z ; CObjUseSkill::SkillImmuneToHarm

; 1192 : 		}
; 1193 : 		break;

  00427	eb 1c		 jmp	 SHORT $LN2@RunningSki
$LN32@RunningSki:

; 1194 : #endif
; 1195 : 
; 1196 : #ifdef ADD_NEW_SKILL_FOR_CASTLE_01_20041116
; 1197 : 	case AT_SKILL_RUSH :
; 1198 : 		{	// 블레이드나이트
; 1199 : 			SkillKnightRush			(lpObj->m_Index, aTargetIndex, lpMagic);
; 1200 : 		}
; 1201 : 		break;
; 1202 : 	case AT_SKILL_JAVALIN :
; 1203 : 		{	// 소울 마스터
; 1204 : 			SkillWizardJavalin		(lpObj->m_Index, aTargetIndex, lpMagic);
; 1205 : 		}
; 1206 : 		break;
; 1207 : 	case AT_SKILL_DEEPIMPACT :
; 1208 : 		{	// 뮤즈 엘프
; 1209 : 			SkillElfRush			(lpObj->m_Index, aTargetIndex, lpMagic);
; 1210 : 		}
; 1211 : 		break;
; 1212 : 	case AT_SKILL_ONE_FLASH :
; 1213 : 		{	// 기사형 마검사
; 1214 : 			SkillMagumOneFlash		(lpObj->m_Index, aTargetIndex, lpMagic);
; 1215 : 		}
; 1216 : 		break;
; 1217 : 	case AT_SKILL_DEATH_CANNON :
; 1218 : 		{	// 법사형 마검사
; 1219 : 			SkillMagumDeathCannon	(lpObj->m_Index, aTargetIndex, lpMagic);
; 1220 : 		}
; 1221 : 		break;
; 1222 : 	case AT_SKILL_SPACE_SPLIT :
; 1223 : 		{	// 다크로드 공격 스킬
; 1224 : 			SkillDarklordSpaceSplit	(lpObj->m_Index, aTargetIndex, lpMagic);
; 1225 : 		}
; 1226 : 		break;
; 1227 : 
; 1228 : 	case AT_SKILL_BRAND_OF_SKILL :
; 1229 : 		{	// 다크로드 보조 스킬
; 1230 : 			SkillBrandOfSkill(aIndex, aTargetIndex, lpMagic);
; 1231 : 		}
; 1232 : 		break;
; 1233 : 	
; 1234 : 	case AT_SKILL_REMOVAL_STUN :
; 1235 : 		{	// 스턴 해제 - ☆직책스킬	
; 1236 : 			SkillRemoveStun(aIndex, aTargetIndex, lpMagic);
; 1237 : 		}
; 1238 : 		break;
; 1239 : 
; 1240 : 	case AT_SKILL_ADD_MANA :
; 1241 : 		{	// 스웰 마나 - ☆직책스킬
; 1242 : 			SkillAddMana(aIndex, aTargetIndex, lpMagic);
; 1243 : 		}
; 1244 : 		break;
; 1245 : 
; 1246 : 	case AT_SKILL_INVISIBLE :
; 1247 : 		{	// 투명 - ☆직책스킬
; 1248 : 			SkillCloaking(aIndex, aTargetIndex, lpMagic);
; 1249 : 		}
; 1250 : 		break;
; 1251 : 
; 1252 : 	case AT_SKILL_REMOVAL_INVISIBLE :
; 1253 : 		{	// 투명 해제 - ☆직책스킬
; 1254 : 			SkillRemoveCloaking(aIndex, aTargetIndex, lpMagic);
; 1255 : 		}
; 1256 : 		break;
; 1257 : 
; 1258 : 	case AT_SKILL_REMOVAL_MAGIC :
; 1259 : 		{	// 마법 해제 - ☆직책스킬
; 1260 : 			SkillRemoveMagic(aIndex, aTargetIndex, lpMagic);
; 1261 : 		}
; 1262 : 		break;
; 1263 : #endif
; 1264 : 
; 1265 : #ifdef ADD_SKILL_MUSE_ELF_INFINITYARROW_20060406
; 1266 : 	case AT_SKILL_INFINITY_ARROW:
; 1267 : 		{	// 뮤즈엘프 - 인피니티 애로우
; 1268 : 			SkillInfinityArrow( aIndex, aTargetIndex, lpMagic );
; 1269 : 		}
; 1270 : 		break;
; 1271 : #endif
; 1272 : 
; 1273 : #ifdef ADD_SEASON_3_NEW_CHARACTER_SUMMONER_20070912	// 소환술사 저주스킬
; 1274 : 	case AT_SKILL_THORNS:
; 1275 : 		{
; 1276 : 			SkillThorns( aIndex, aTargetIndex, lpMagic );
; 1277 : 		}
; 1278 : 		break;
; 1279 : 
; 1280 : 	case AT_SKILL_SLEEP:
; 1281 : 		{
; 1282 : 			SkillSleep( aIndex, aTargetIndex, lpMagic );	
; 1283 : 		}
; 1284 : 		break;
; 1285 : 		
; 1286 : 	case AT_SKILL_BLIND:
; 1287 : 		{
; 1288 : 			SkillBlind( aIndex, aTargetIndex, lpMagic );	
; 1289 : 		}
; 1290 : 		break;
; 1291 : #endif	// ADD_SEASON_3_NEW_CHARACTER_SUMMONER_20070912
; 1292 : 
; 1293 : #ifdef SEASON4_PATCH_GROOVING
; 1294 : 		//-->
; 1295 : 		// 시즌 4.0 추가 스킬  grooving 2008/04/24 : 버서커
; 1296 : 	case AT_SKILL_BERSERKER:
; 1297 : 		{
; 1298 : 			SkillBerserker(lpObj->m_Index, lpMagic);
; 1299 : 		}
; 1300 : 		break;
; 1301 : 		//<--
; 1302 : #endif
; 1303 : 
; 1304 : #ifdef ADD_SEASON4_NEW_SKILL_20080522	// 회복, 마력증대
; 1305 : 	case AT_SKILL_RECOVERY:	// 회복 스킬 사용
; 1306 : 		{
; 1307 : 			SkillRecovery( aIndex, aTargetIndex, lpMagic );
; 1308 : 		}
; 1309 : 		break;
; 1310 : 				
; 1311 : 	case AT_SKILL_MAGICPOWRER:	//  마력증대 스킬 사용
; 1312 : 		{
; 1313 : 			SkillMagicPower( aIndex, aTargetIndex, lpMagic );
; 1314 : 		}
; 1315 : 		break;
; 1316 : #endif	// ADD_SEASON4_NEW_SKILL_20080522
; 1317 : 
; 1318 : 	default :
; 1319 : 		gObjAttack(lpObj, lpTargetObj, lpMagic, 1, 0);	

  00429	6a 00		 push	 0
  0042b	6a 00		 push	 0
  0042d	6a 00		 push	 0
  0042f	6a 01		 push	 1
  00431	8b 45 10	 mov	 eax, DWORD PTR _lpMagic$[ebp]
  00434	50		 push	 eax
  00435	8b 4d f4	 mov	 ecx, DWORD PTR _lpTargetObj$[ebp]
  00438	51		 push	 ecx
  00439	8b 55 f8	 mov	 edx, DWORD PTR _lpObj$[ebp]
  0043c	52		 push	 edx
  0043d	e8 00 00 00 00	 call	 ?gObjAttack@@YAHPAVOBJECTSTRUCT@@0PAVCMagicInf@@HEHH@Z ; gObjAttack
  00442	83 c4 1c	 add	 esp, 28			; 0000001cH
$LN2@RunningSki:

; 1320 : 		break;
; 1321 : 	}
; 1322 : 	return TRUE;

  00445	b8 01 00 00 00	 mov	 eax, 1
$LN1@RunningSki:

; 1323 : }

  0044a	5f		 pop	 edi
  0044b	5e		 pop	 esi
  0044c	5b		 pop	 ebx
  0044d	8b e5		 mov	 esp, ebp
  0044f	5d		 pop	 ebp
  00450	c2 10 00	 ret	 16			; 00000010H
  00453	90		 npad	 1
$LN35@RunningSki:
  00454	00 00 00 00	 DD	 $LN8@RunningSki
  00458	00 00 00 00	 DD	 $LN10@RunningSki
  0045c	00 00 00 00	 DD	 $LN4@RunningSki
  00460	00 00 00 00	 DD	 $LN9@RunningSki
  00464	00 00 00 00	 DD	 $LN12@RunningSki
  00468	00 00 00 00	 DD	 $LN13@RunningSki
  0046c	00 00 00 00	 DD	 $LN14@RunningSki
  00470	00 00 00 00	 DD	 $LN15@RunningSki
  00474	00 00 00 00	 DD	 $LN16@RunningSki
  00478	00 00 00 00	 DD	 $LN17@RunningSki
  0047c	00 00 00 00	 DD	 $LN18@RunningSki
  00480	00 00 00 00	 DD	 $LN19@RunningSki
  00484	00 00 00 00	 DD	 $LN20@RunningSki
  00488	00 00 00 00	 DD	 $LN21@RunningSki
  0048c	00 00 00 00	 DD	 $LN22@RunningSki
  00490	00 00 00 00	 DD	 $LN11@RunningSki
  00494	00 00 00 00	 DD	 $LN28@RunningSki
  00498	00 00 00 00	 DD	 $LN23@RunningSki
  0049c	00 00 00 00	 DD	 $LN24@RunningSki
  004a0	00 00 00 00	 DD	 $LN25@RunningSki
  004a4	00 00 00 00	 DD	 $LN26@RunningSki
  004a8	00 00 00 00	 DD	 $LN27@RunningSki
  004ac	00 00 00 00	 DD	 $LN29@RunningSki
  004b0	00 00 00 00	 DD	 $LN30@RunningSki
  004b4	00 00 00 00	 DD	 $LN31@RunningSki
  004b8	00 00 00 00	 DD	 $LN32@RunningSki
$LN34@RunningSki:
  004bc	00		 DB	 0
  004bd	00		 DB	 0
  004be	00		 DB	 0
  004bf	00		 DB	 0
  004c0	00		 DB	 0
  004c1	19		 DB	 25			; 00000019H
  004c2	00		 DB	 0
  004c3	19		 DB	 25			; 00000019H
  004c4	19		 DB	 25			; 00000019H
  004c5	19		 DB	 25			; 00000019H
  004c6	19		 DB	 25			; 00000019H
  004c7	19		 DB	 25			; 00000019H
  004c8	19		 DB	 25			; 00000019H
  004c9	19		 DB	 25			; 00000019H
  004ca	19		 DB	 25			; 00000019H
  004cb	01		 DB	 1
  004cc	00		 DB	 0
  004cd	02		 DB	 2
  004ce	00		 DB	 0
  004cf	00		 DB	 0
  004d0	00		 DB	 0
  004d1	00		 DB	 0
  004d2	00		 DB	 0
  004d3	00		 DB	 0
  004d4	00		 DB	 0
  004d5	03		 DB	 3
  004d6	04		 DB	 4
  004d7	05		 DB	 5
  004d8	19		 DB	 25			; 00000019H
  004d9	06		 DB	 6
  004da	07		 DB	 7
  004db	08		 DB	 8
  004dc	09		 DB	 9
  004dd	0a		 DB	 10			; 0000000aH
  004de	0b		 DB	 11			; 0000000bH
  004df	0c		 DB	 12			; 0000000cH
  004e0	19		 DB	 25			; 00000019H
  004e1	19		 DB	 25			; 00000019H
  004e2	19		 DB	 25			; 00000019H
  004e3	0d		 DB	 13			; 0000000dH
  004e4	00		 DB	 0
  004e5	00		 DB	 0
  004e6	0e		 DB	 14			; 0000000eH
  004e7	19		 DB	 25			; 00000019H
  004e8	19		 DB	 25			; 00000019H
  004e9	19		 DB	 25			; 00000019H
  004ea	00		 DB	 0
  004eb	0f		 DB	 15			; 0000000fH
  004ec	19		 DB	 25			; 00000019H
  004ed	19		 DB	 25			; 00000019H
  004ee	19		 DB	 25			; 00000019H
  004ef	00		 DB	 0
  004f0	19		 DB	 25			; 00000019H
  004f1	19		 DB	 25			; 00000019H
  004f2	10		 DB	 16			; 00000010H
  004f3	00		 DB	 0
  004f4	19		 DB	 25			; 00000019H
  004f5	19		 DB	 25			; 00000019H
  004f6	19		 DB	 25			; 00000019H
  004f7	11		 DB	 17			; 00000011H
  004f8	12		 DB	 18			; 00000012H
  004f9	13		 DB	 19			; 00000013H
  004fa	14		 DB	 20			; 00000014H
  004fb	15		 DB	 21			; 00000015H
  004fc	19		 DB	 25			; 00000019H
  004fd	19		 DB	 25			; 00000019H
  004fe	19		 DB	 25			; 00000019H
  004ff	19		 DB	 25			; 00000019H
  00500	19		 DB	 25			; 00000019H
  00501	19		 DB	 25			; 00000019H
  00502	19		 DB	 25			; 00000019H
  00503	19		 DB	 25			; 00000019H
  00504	19		 DB	 25			; 00000019H
  00505	19		 DB	 25			; 00000019H
  00506	19		 DB	 25			; 00000019H
  00507	19		 DB	 25			; 00000019H
  00508	19		 DB	 25			; 00000019H
  00509	19		 DB	 25			; 00000019H
  0050a	19		 DB	 25			; 00000019H
  0050b	19		 DB	 25			; 00000019H
  0050c	19		 DB	 25			; 00000019H
  0050d	19		 DB	 25			; 00000019H
  0050e	19		 DB	 25			; 00000019H
  0050f	19		 DB	 25			; 00000019H
  00510	19		 DB	 25			; 00000019H
  00511	19		 DB	 25			; 00000019H
  00512	19		 DB	 25			; 00000019H
  00513	19		 DB	 25			; 00000019H
  00514	19		 DB	 25			; 00000019H
  00515	19		 DB	 25			; 00000019H
  00516	19		 DB	 25			; 00000019H
  00517	19		 DB	 25			; 00000019H
  00518	19		 DB	 25			; 00000019H
  00519	19		 DB	 25			; 00000019H
  0051a	19		 DB	 25			; 00000019H
  0051b	19		 DB	 25			; 00000019H
  0051c	19		 DB	 25			; 00000019H
  0051d	19		 DB	 25			; 00000019H
  0051e	19		 DB	 25			; 00000019H
  0051f	19		 DB	 25			; 00000019H
  00520	19		 DB	 25			; 00000019H
  00521	19		 DB	 25			; 00000019H
  00522	19		 DB	 25			; 00000019H
  00523	19		 DB	 25			; 00000019H
  00524	19		 DB	 25			; 00000019H
  00525	19		 DB	 25			; 00000019H
  00526	19		 DB	 25			; 00000019H
  00527	19		 DB	 25			; 00000019H
  00528	19		 DB	 25			; 00000019H
  00529	19		 DB	 25			; 00000019H
  0052a	19		 DB	 25			; 00000019H
  0052b	19		 DB	 25			; 00000019H
  0052c	19		 DB	 25			; 00000019H
  0052d	19		 DB	 25			; 00000019H
  0052e	19		 DB	 25			; 00000019H
  0052f	19		 DB	 25			; 00000019H
  00530	19		 DB	 25			; 00000019H
  00531	19		 DB	 25			; 00000019H
  00532	19		 DB	 25			; 00000019H
  00533	19		 DB	 25			; 00000019H
  00534	19		 DB	 25			; 00000019H
  00535	19		 DB	 25			; 00000019H
  00536	19		 DB	 25			; 00000019H
  00537	19		 DB	 25			; 00000019H
  00538	19		 DB	 25			; 00000019H
  00539	19		 DB	 25			; 00000019H
  0053a	19		 DB	 25			; 00000019H
  0053b	19		 DB	 25			; 00000019H
  0053c	19		 DB	 25			; 00000019H
  0053d	19		 DB	 25			; 00000019H
  0053e	19		 DB	 25			; 00000019H
  0053f	19		 DB	 25			; 00000019H
  00540	19		 DB	 25			; 00000019H
  00541	19		 DB	 25			; 00000019H
  00542	19		 DB	 25			; 00000019H
  00543	19		 DB	 25			; 00000019H
  00544	19		 DB	 25			; 00000019H
  00545	19		 DB	 25			; 00000019H
  00546	19		 DB	 25			; 00000019H
  00547	19		 DB	 25			; 00000019H
  00548	19		 DB	 25			; 00000019H
  00549	19		 DB	 25			; 00000019H
  0054a	19		 DB	 25			; 00000019H
  0054b	19		 DB	 25			; 00000019H
  0054c	19		 DB	 25			; 00000019H
  0054d	19		 DB	 25			; 00000019H
  0054e	19		 DB	 25			; 00000019H
  0054f	19		 DB	 25			; 00000019H
  00550	19		 DB	 25			; 00000019H
  00551	19		 DB	 25			; 00000019H
  00552	19		 DB	 25			; 00000019H
  00553	19		 DB	 25			; 00000019H
  00554	19		 DB	 25			; 00000019H
  00555	19		 DB	 25			; 00000019H
  00556	19		 DB	 25			; 00000019H
  00557	19		 DB	 25			; 00000019H
  00558	19		 DB	 25			; 00000019H
  00559	19		 DB	 25			; 00000019H
  0055a	19		 DB	 25			; 00000019H
  0055b	19		 DB	 25			; 00000019H
  0055c	19		 DB	 25			; 00000019H
  0055d	19		 DB	 25			; 00000019H
  0055e	19		 DB	 25			; 00000019H
  0055f	19		 DB	 25			; 00000019H
  00560	19		 DB	 25			; 00000019H
  00561	19		 DB	 25			; 00000019H
  00562	19		 DB	 25			; 00000019H
  00563	19		 DB	 25			; 00000019H
  00564	19		 DB	 25			; 00000019H
  00565	19		 DB	 25			; 00000019H
  00566	19		 DB	 25			; 00000019H
  00567	19		 DB	 25			; 00000019H
  00568	19		 DB	 25			; 00000019H
  00569	19		 DB	 25			; 00000019H
  0056a	19		 DB	 25			; 00000019H
  0056b	19		 DB	 25			; 00000019H
  0056c	19		 DB	 25			; 00000019H
  0056d	19		 DB	 25			; 00000019H
  0056e	19		 DB	 25			; 00000019H
  0056f	19		 DB	 25			; 00000019H
  00570	19		 DB	 25			; 00000019H
  00571	19		 DB	 25			; 00000019H
  00572	19		 DB	 25			; 00000019H
  00573	19		 DB	 25			; 00000019H
  00574	19		 DB	 25			; 00000019H
  00575	19		 DB	 25			; 00000019H
  00576	19		 DB	 25			; 00000019H
  00577	19		 DB	 25			; 00000019H
  00578	19		 DB	 25			; 00000019H
  00579	19		 DB	 25			; 00000019H
  0057a	19		 DB	 25			; 00000019H
  0057b	19		 DB	 25			; 00000019H
  0057c	19		 DB	 25			; 00000019H
  0057d	19		 DB	 25			; 00000019H
  0057e	19		 DB	 25			; 00000019H
  0057f	19		 DB	 25			; 00000019H
  00580	19		 DB	 25			; 00000019H
  00581	19		 DB	 25			; 00000019H
  00582	19		 DB	 25			; 00000019H
  00583	16		 DB	 22			; 00000016H
  00584	17		 DB	 23			; 00000017H
  00585	18		 DB	 24			; 00000018H
?RunningSkill@CObjUseSkill@@QAEHHHPAVCMagicInf@@H@Z ENDP ; CObjUseSkill::RunningSkill
_TEXT	ENDS
; Function compile flags: /Odtp /ZI
; File C:\Mu Online\Mu-GS-Webzen-MC-10093\GameServer\ObjUseSkill.cpp
;	COMDAT ?UseSkill@CObjUseSkill@@QAEXHHPAVCMagicInf@@@Z
_TEXT	SEGMENT
_usebp$1 = -28						; size = 4
_usemana$ = -24						; size = 4
_lpMagic$2 = -20					; size = 4
_bCombo$ = -16						; size = 4
_lpTargetObj$ = -12					; size = 4
_lpObj$ = -8						; size = 4
_this$ = -4						; size = 4
_aIndex$ = 8						; size = 4
_aTargetIndex$ = 12					; size = 4
_lpMagic$ = 16						; size = 4
?UseSkill@CObjUseSkill@@QAEXHHPAVCMagicInf@@@Z PROC	; CObjUseSkill::UseSkill, COMDAT
; _this$ = ecx

; 972  : {

  00000	55		 push	 ebp
  00001	8b ec		 mov	 ebp, esp
  00003	83 ec 5c	 sub	 esp, 92			; 0000005cH
  00006	53		 push	 ebx
  00007	56		 push	 esi
  00008	57		 push	 edi
  00009	89 4d fc	 mov	 DWORD PTR _this$[ebp], ecx

; 973  : 	LPOBJECTSTRUCT lpObj= &gObj[aIndex];	

  0000c	69 45 08 a0 1b
	00 00		 imul	 eax, DWORD PTR _aIndex$[ebp], 7072
  00013	03 05 00 00 00
	00		 add	 eax, DWORD PTR ?gObj@@3PAVOBJECTSTRUCT@@A ; gObj
  00019	89 45 f8	 mov	 DWORD PTR _lpObj$[ebp], eax

; 974  : 	LPOBJECTSTRUCT lpTargetObj= &gObj[aTargetIndex];

  0001c	69 45 0c a0 1b
	00 00		 imul	 eax, DWORD PTR _aTargetIndex$[ebp], 7072
  00023	03 05 00 00 00
	00		 add	 eax, DWORD PTR ?gObj@@3PAVOBJECTSTRUCT@@A ; gObj
  00029	89 45 f4	 mov	 DWORD PTR _lpTargetObj$[ebp], eax

; 975  : 
; 976  : 	BOOL	bCombo = FALSE;

  0002c	c7 45 f0 00 00
	00 00		 mov	 DWORD PTR _bCombo$[ebp], 0

; 977  : #ifdef ADD_SKILL_WITH_COMBO
; 978  : 	if( gComboAttack.CheckCombo(aIndex, lpMagic->m_Skill) )

  00033	8b 45 10	 mov	 eax, DWORD PTR _lpMagic$[ebp]
  00036	0f b6 48 05	 movzx	 ecx, BYTE PTR [eax+5]
  0003a	51		 push	 ecx
  0003b	8b 55 08	 mov	 edx, DWORD PTR _aIndex$[ebp]
  0003e	52		 push	 edx
  0003f	b9 00 00 00 00	 mov	 ecx, OFFSET ?gComboAttack@@3VCComboAttack@@A ; gComboAttack
  00044	e8 00 00 00 00	 call	 ?CheckCombo@CComboAttack@@QAEHHH@Z ; CComboAttack::CheckCombo
  00049	85 c0		 test	 eax, eax
  0004b	74 07		 je	 SHORT $LN2@UseSkill

; 979  : 	{
; 980  : 		bCombo = TRUE;

  0004d	c7 45 f0 01 00
	00 00		 mov	 DWORD PTR _bCombo$[ebp], 1
$LN2@UseSkill:

; 981  : 		//GCMagicAttackNumberSend(&gObj[aIndex], AT_SKILL_COMBO, 0, 1);
; 982  : 	}
; 983  : 
; 984  : 	if( lpObj->SkillHellFire2State && lpMagic->m_Skill != AT_SKILL_EXPHELL )

  00054	8b 45 f8	 mov	 eax, DWORD PTR _lpObj$[ebp]
  00057	0f b6 88 1c 0f
	00 00		 movzx	 ecx, BYTE PTR [eax+3868]
  0005e	85 c9		 test	 ecx, ecx
  00060	74 40		 je	 SHORT $LN3@UseSkill
  00062	8b 45 10	 mov	 eax, DWORD PTR _lpMagic$[ebp]
  00065	0f b6 48 05	 movzx	 ecx, BYTE PTR [eax+5]
  00069	83 f9 28	 cmp	 ecx, 40			; 00000028H
  0006c	74 34		 je	 SHORT $LN3@UseSkill

; 985  : 	{	// 헬파이어2 걸고 있는데 다른 스킬이 들어 오면 스킬은 무시 되고... 스킬을 헬파이어를 발동한다
; 986  : 		CMagicInf *		lpMagic;
; 987  : 		lpMagic = gObjGetMagicSearch(lpObj, AT_SKILL_EXPHELL);

  0006e	6a 28		 push	 40			; 00000028H
  00070	8b 45 f8	 mov	 eax, DWORD PTR _lpObj$[ebp]
  00073	50		 push	 eax
  00074	e8 00 00 00 00	 call	 ?gObjGetMagicSearch@@YAPAVCMagicInf@@PAVOBJECTSTRUCT@@E@Z ; gObjGetMagicSearch
  00079	83 c4 08	 add	 esp, 8
  0007c	89 45 ec	 mov	 DWORD PTR _lpMagic$2[ebp], eax

; 988  : 
; 989  : 		if( lpMagic )

  0007f	83 7d ec 00	 cmp	 DWORD PTR _lpMagic$2[ebp], 0
  00083	74 18		 je	 SHORT $LN4@UseSkill

; 990  : 		{
; 991  : 			gObjUseSkill.RunningSkill(lpObj->m_Index, 0, lpMagic);	

  00085	6a 00		 push	 0
  00087	8b 45 ec	 mov	 eax, DWORD PTR _lpMagic$2[ebp]
  0008a	50		 push	 eax
  0008b	6a 00		 push	 0
  0008d	8b 4d f8	 mov	 ecx, DWORD PTR _lpObj$[ebp]
  00090	8b 11		 mov	 edx, DWORD PTR [ecx]
  00092	52		 push	 edx
  00093	b9 00 00 00 00	 mov	 ecx, OFFSET ?gObjUseSkill@@3VCObjUseSkill@@A ; gObjUseSkill
  00098	e8 00 00 00 00	 call	 ?RunningSkill@CObjUseSkill@@QAEHHHPAVCMagicInf@@H@Z ; CObjUseSkill::RunningSkill
$LN4@UseSkill:

; 992  : 		}
; 993  : 		return;

  0009d	e9 68 01 00 00	 jmp	 $LN1@UseSkill
$LN3@UseSkill:

; 994  : 	}
; 995  : #endif	
; 996  : 
; 997  : #ifdef ADD_SKILL_WITH_COMBO	
; 998  : 	if( lpMagic->m_Skill == AT_SKILL_EXPHELL && aTargetIndex != AT_SKILL_EXPHELL_START )

  000a2	8b 45 10	 mov	 eax, DWORD PTR _lpMagic$[ebp]
  000a5	0f b6 48 05	 movzx	 ecx, BYTE PTR [eax+5]
  000a9	83 f9 28	 cmp	 ecx, 40			; 00000028H
  000ac	75 4b		 jne	 SHORT $LN5@UseSkill
  000ae	83 7d 0c 3a	 cmp	 DWORD PTR _aTargetIndex$[ebp], 58 ; 0000003aH
  000b2	74 45		 je	 SHORT $LN5@UseSkill

; 999  : 	{	// 헬파이어2 발동은 마나를 깍으면 안된다
; 1000 : 		RunningSkill(aIndex, aTargetIndex, lpMagic, bCombo);		

  000b4	8b 45 f0	 mov	 eax, DWORD PTR _bCombo$[ebp]
  000b7	50		 push	 eax
  000b8	8b 4d 10	 mov	 ecx, DWORD PTR _lpMagic$[ebp]
  000bb	51		 push	 ecx
  000bc	8b 55 0c	 mov	 edx, DWORD PTR _aTargetIndex$[ebp]
  000bf	52		 push	 edx
  000c0	8b 45 08	 mov	 eax, DWORD PTR _aIndex$[ebp]
  000c3	50		 push	 eax
  000c4	8b 4d fc	 mov	 ecx, DWORD PTR _this$[ebp]
  000c7	e8 00 00 00 00	 call	 ?RunningSkill@CObjUseSkill@@QAEHHHPAVCMagicInf@@H@Z ; CObjUseSkill::RunningSkill

; 1001 : 		lpObj->UseMagicNumber = lpMagic->m_Skill;

  000cc	8b 45 f8	 mov	 eax, DWORD PTR _lpObj$[ebp]
  000cf	8b 4d 10	 mov	 ecx, DWORD PTR _lpMagic$[ebp]
  000d2	8a 51 05	 mov	 dl, BYTE PTR [ecx+5]
  000d5	88 90 15 03 00
	00		 mov	 BYTE PTR [eax+789], dl

; 1002 : 		lpObj->UseMagicTime   = GetTickCount();

  000db	ff 15 00 00 00
	00		 call	 DWORD PTR __imp__GetTickCount@0
  000e1	8b 4d f8	 mov	 ecx, DWORD PTR _lpObj$[ebp]
  000e4	89 81 18 03 00
	00		 mov	 DWORD PTR [ecx+792], eax

; 1003 : 		lpObj->UseMagicCount  = 0;

  000ea	8b 45 f8	 mov	 eax, DWORD PTR _lpObj$[ebp]
  000ed	c6 80 1c 03 00
	00 00		 mov	 BYTE PTR [eax+796], 0

; 1004 : 		return;

  000f4	e9 11 01 00 00	 jmp	 $LN1@UseSkill
$LN5@UseSkill:

; 1005 : 	}
; 1006 : #endif
; 1007 : 
; 1008 : 	int usemana = GetUseMana(aIndex, lpMagic);

  000f9	8b 45 10	 mov	 eax, DWORD PTR _lpMagic$[ebp]
  000fc	50		 push	 eax
  000fd	8b 4d 08	 mov	 ecx, DWORD PTR _aIndex$[ebp]
  00100	51		 push	 ecx
  00101	8b 4d fc	 mov	 ecx, DWORD PTR _this$[ebp]
  00104	e8 00 00 00 00	 call	 ?GetUseMana@CObjUseSkill@@QAEHHPAVCMagicInf@@@Z ; CObjUseSkill::GetUseMana
  00109	89 45 e8	 mov	 DWORD PTR _usemana$[ebp], eax

; 1009 : 	if( usemana >= 0 )

  0010c	83 7d e8 00	 cmp	 DWORD PTR _usemana$[ebp], 0
  00110	0f 8c f4 00 00
	00		 jl	 $LN9@UseSkill

; 1010 : 	{
; 1011 : #ifdef DARKLORD_WORK
; 1012 : 		if( !gObj[aIndex].SkillDelay.Check(lpMagic->m_Skill) )

  00116	8b 45 10	 mov	 eax, DWORD PTR _lpMagic$[ebp]
  00119	0f b6 48 05	 movzx	 ecx, BYTE PTR [eax+5]
  0011d	51		 push	 ecx
  0011e	69 55 08 a0 1b
	00 00		 imul	 edx, DWORD PTR _aIndex$[ebp], 7072
  00125	a1 00 00 00 00	 mov	 eax, DWORD PTR ?gObj@@3PAVOBJECTSTRUCT@@A ; gObj
  0012a	8d 8c 10 84 10
	00 00		 lea	 ecx, DWORD PTR [eax+edx+4228]
  00131	e8 00 00 00 00	 call	 ?Check@CSkillDelay@@QAEHE@Z ; CSkillDelay::Check
  00136	85 c0		 test	 eax, eax
  00138	75 25		 jne	 SHORT $LN7@UseSkill

; 1013 : 		{
; 1014 : 			LogAddTD("[%] 스킬 딜레이시간 오버", gObj[aIndex].Name);

  0013a	69 45 08 a0 1b
	00 00		 imul	 eax, DWORD PTR _aIndex$[ebp], 7072
  00141	8b 0d 00 00 00
	00		 mov	 ecx, DWORD PTR ?gObj@@3PAVOBJECTSTRUCT@@A ; gObj
  00147	8d 54 01 73	 lea	 edx, DWORD PTR [ecx+eax+115]
  0014b	52		 push	 edx
  0014c	68 00 00 00 00	 push	 OFFSET ??_C@_0BJ@CPAKELEB@?$FL?$CF?$FN?5?$LN?$LK?E?$LD?5?$LF?t?$LH?$LJ?$MA?L?$LN?C?$LA?$KD?5?$LP?$MA?$LJ?v@
  00151	ff 15 00 00 00
	00		 call	 DWORD PTR ?LogAddTD@@3P6AXPADZZA ; LogAddTD
  00157	83 c4 08	 add	 esp, 8

; 1015 : 			return;

  0015a	e9 ab 00 00 00	 jmp	 $LN1@UseSkill
$LN7@UseSkill:

; 1016 : 		}
; 1017 : #endif
; 1018 : #ifdef NEW_FORSKYLAND2
; 1019 : 		int usebp = GetUseBP(aIndex, lpMagic);

  0015f	8b 45 10	 mov	 eax, DWORD PTR _lpMagic$[ebp]
  00162	50		 push	 eax
  00163	8b 4d 08	 mov	 ecx, DWORD PTR _aIndex$[ebp]
  00166	51		 push	 ecx
  00167	8b 4d fc	 mov	 ecx, DWORD PTR _this$[ebp]
  0016a	e8 00 00 00 00	 call	 ?GetUseBP@CObjUseSkill@@QAEHHPAVCMagicInf@@@Z ; CObjUseSkill::GetUseBP
  0016f	89 45 e4	 mov	 DWORD PTR _usebp$1[ebp], eax

; 1020 : 		if( usebp >= 0 )

  00172	83 7d e4 00	 cmp	 DWORD PTR _usebp$1[ebp], 0
  00176	0f 8c 8e 00 00
	00		 jl	 $LN9@UseSkill

; 1021 : 		{
; 1022 : 			if( RunningSkill(aIndex, aTargetIndex, lpMagic, bCombo) == TRUE )

  0017c	8b 45 f0	 mov	 eax, DWORD PTR _bCombo$[ebp]
  0017f	50		 push	 eax
  00180	8b 4d 10	 mov	 ecx, DWORD PTR _lpMagic$[ebp]
  00183	51		 push	 ecx
  00184	8b 55 0c	 mov	 edx, DWORD PTR _aTargetIndex$[ebp]
  00187	52		 push	 edx
  00188	8b 45 08	 mov	 eax, DWORD PTR _aIndex$[ebp]
  0018b	50		 push	 eax
  0018c	8b 4d fc	 mov	 ecx, DWORD PTR _this$[ebp]
  0018f	e8 00 00 00 00	 call	 ?RunningSkill@CObjUseSkill@@QAEHHHPAVCMagicInf@@H@Z ; CObjUseSkill::RunningSkill
  00194	83 f8 01	 cmp	 eax, 1
  00197	75 71		 jne	 SHORT $LN9@UseSkill

; 1023 : 			{
; 1024 : 				lpObj->UseMagicNumber = lpMagic->m_Skill;

  00199	8b 45 f8	 mov	 eax, DWORD PTR _lpObj$[ebp]
  0019c	8b 4d 10	 mov	 ecx, DWORD PTR _lpMagic$[ebp]
  0019f	8a 51 05	 mov	 dl, BYTE PTR [ecx+5]
  001a2	88 90 15 03 00
	00		 mov	 BYTE PTR [eax+789], dl

; 1025 : 				lpObj->UseMagicTime   = GetTickCount();

  001a8	ff 15 00 00 00
	00		 call	 DWORD PTR __imp__GetTickCount@0
  001ae	8b 4d f8	 mov	 ecx, DWORD PTR _lpObj$[ebp]
  001b1	89 81 18 03 00
	00		 mov	 DWORD PTR [ecx+792], eax

; 1026 : 				lpObj->UseMagicCount  = 0;

  001b7	8b 45 f8	 mov	 eax, DWORD PTR _lpObj$[ebp]
  001ba	c6 80 1c 03 00
	00 00		 mov	 BYTE PTR [eax+796], 0

; 1027 : 				lpObj->Mana = (float)usemana;

  001c1	f3 0f 2a 45 e8	 cvtsi2ss xmm0, DWORD PTR _usemana$[ebp]
  001c6	8b 45 f8	 mov	 eax, DWORD PTR _lpObj$[ebp]
  001c9	f3 0f 11 80 d0
	00 00 00	 movss	 DWORD PTR [eax+208], xmm0

; 1028 : 				lpObj->BP = usebp;

  001d1	8b 45 f8	 mov	 eax, DWORD PTR _lpObj$[ebp]
  001d4	8b 4d e4	 mov	 ecx, DWORD PTR _usebp$1[ebp]
  001d7	89 88 e8 00 00
	00		 mov	 DWORD PTR [eax+232], ecx

; 1029 : 				GCManaSend(aIndex, (short)lpObj->Mana, 0xFF, 0, lpObj->BP);

  001dd	8b 45 f8	 mov	 eax, DWORD PTR _lpObj$[ebp]
  001e0	0f b7 88 e8 00
	00 00		 movzx	 ecx, WORD PTR [eax+232]
  001e7	51		 push	 ecx
  001e8	6a 00		 push	 0
  001ea	68 ff 00 00 00	 push	 255			; 000000ffH
  001ef	8b 55 f8	 mov	 edx, DWORD PTR _lpObj$[ebp]
  001f2	f3 0f 2c 82 d0
	00 00 00	 cvttss2si eax, DWORD PTR [edx+208]
  001fa	0f b7 c8	 movzx	 ecx, ax
  001fd	51		 push	 ecx
  001fe	8b 55 08	 mov	 edx, DWORD PTR _aIndex$[ebp]
  00201	52		 push	 edx
  00202	e8 00 00 00 00	 call	 ?GCManaSend@@YAXHFEEG@Z	; GCManaSend
  00207	83 c4 14	 add	 esp, 20			; 00000014H
$LN9@UseSkill:
$LN1@UseSkill:

; 1030 : 			}
; 1031 : 		}
; 1032 : #endif
; 1033 : 	}
; 1034 : }

  0020a	5f		 pop	 edi
  0020b	5e		 pop	 esi
  0020c	5b		 pop	 ebx
  0020d	8b e5		 mov	 esp, ebp
  0020f	5d		 pop	 ebp
  00210	c2 0c 00	 ret	 12			; 0000000cH
?UseSkill@CObjUseSkill@@QAEXHHPAVCMagicInf@@@Z ENDP	; CObjUseSkill::UseSkill
_TEXT	ENDS
; Function compile flags: /Odtp /ZI
; File C:\Mu Online\Mu-GS-Webzen-MC-10093\GameServer\ObjUseSkill.cpp
;	COMDAT ?UseSkill@CObjUseSkill@@QAEXHPAVCMagicInf@@EEEEH@Z
_TEXT	SEGMENT
tv192 = -112						; size = 4
tv197 = -108						; size = 4
tv193 = -108						; size = 4
_usebp$1 = -40						; size = 4
_pMsg$ = -36						; size = 9
_usemana$ = -24						; size = 4
_lpMagic$2 = -20					; size = 4
_bCombo$ = -16						; size = 4
_lpObj$ = -12						; size = 4
_this$ = -8						; size = 4
__$ArrayPad$ = -4					; size = 4
_aIndex$ = 8						; size = 4
_lpMagic$ = 12						; size = 4
_x$ = 16						; size = 1
_y$ = 20						; size = 1
_dir$ = 24						; size = 1
_TargetPos$ = 28					; size = 1
_aTargetIndex$ = 32					; size = 4
?UseSkill@CObjUseSkill@@QAEXHPAVCMagicInf@@EEEEH@Z PROC	; CObjUseSkill::UseSkill, COMDAT
; _this$ = ecx

; 664  : {	

  00000	55		 push	 ebp
  00001	8b ec		 mov	 ebp, esp
  00003	83 ec 70	 sub	 esp, 112		; 00000070H
  00006	a1 00 00 00 00	 mov	 eax, DWORD PTR ___security_cookie
  0000b	33 c5		 xor	 eax, ebp
  0000d	89 45 fc	 mov	 DWORD PTR __$ArrayPad$[ebp], eax
  00010	53		 push	 ebx
  00011	56		 push	 esi
  00012	57		 push	 edi
  00013	89 4d f8	 mov	 DWORD PTR _this$[ebp], ecx

; 665  : 	LPOBJECTSTRUCT lpObj= &gObj[aIndex];

  00016	69 45 08 a0 1b
	00 00		 imul	 eax, DWORD PTR _aIndex$[ebp], 7072
  0001d	03 05 00 00 00
	00		 add	 eax, DWORD PTR ?gObj@@3PAVOBJECTSTRUCT@@A ; gObj
  00023	89 45 f4	 mov	 DWORD PTR _lpObj$[ebp], eax

; 666  : 	
; 667  : #ifdef ADD_SKILL_WITH_COMBO
; 668  : 	BOOL	bCombo = FALSE;

  00026	c7 45 f0 00 00
	00 00		 mov	 DWORD PTR _bCombo$[ebp], 0

; 669  : 	if( gComboAttack.CheckCombo(aIndex, lpMagic->m_Skill) )

  0002d	8b 45 0c	 mov	 eax, DWORD PTR _lpMagic$[ebp]
  00030	0f b6 48 05	 movzx	 ecx, BYTE PTR [eax+5]
  00034	51		 push	 ecx
  00035	8b 55 08	 mov	 edx, DWORD PTR _aIndex$[ebp]
  00038	52		 push	 edx
  00039	b9 00 00 00 00	 mov	 ecx, OFFSET ?gComboAttack@@3VCComboAttack@@A ; gComboAttack
  0003e	e8 00 00 00 00	 call	 ?CheckCombo@CComboAttack@@QAEHHH@Z ; CComboAttack::CheckCombo
  00043	85 c0		 test	 eax, eax
  00045	74 07		 je	 SHORT $LN4@UseSkill

; 670  : 	{
; 671  : 		bCombo = TRUE;		

  00047	c7 45 f0 01 00
	00 00		 mov	 DWORD PTR _bCombo$[ebp], 1
$LN4@UseSkill:

; 672  : 		//GCMagicAttackNumberSend(&gObj[aIndex], AT_SKILL_COMBO, aIndex, 1);		
; 673  : 	}
; 674  : 
; 675  : 	if( lpObj->SkillHellFire2State && lpMagic->m_Skill != AT_SKILL_EXPHELL )

  0004e	8b 45 f4	 mov	 eax, DWORD PTR _lpObj$[ebp]
  00051	0f b6 88 1c 0f
	00 00		 movzx	 ecx, BYTE PTR [eax+3868]
  00058	85 c9		 test	 ecx, ecx
  0005a	74 40		 je	 SHORT $LN5@UseSkill
  0005c	8b 45 0c	 mov	 eax, DWORD PTR _lpMagic$[ebp]
  0005f	0f b6 48 05	 movzx	 ecx, BYTE PTR [eax+5]
  00063	83 f9 28	 cmp	 ecx, 40			; 00000028H
  00066	74 34		 je	 SHORT $LN5@UseSkill

; 676  : 	{	// 헬파이어2 걸고 있는데 다른 스킬이 들어 오면 스킬은 무시 되고... 스킬을 헬파이어를 발동한다
; 677  : 		CMagicInf *		lpMagic;
; 678  : 		lpMagic = gObjGetMagicSearch(lpObj, AT_SKILL_EXPHELL);

  00068	6a 28		 push	 40			; 00000028H
  0006a	8b 45 f4	 mov	 eax, DWORD PTR _lpObj$[ebp]
  0006d	50		 push	 eax
  0006e	e8 00 00 00 00	 call	 ?gObjGetMagicSearch@@YAPAVCMagicInf@@PAVOBJECTSTRUCT@@E@Z ; gObjGetMagicSearch
  00073	83 c4 08	 add	 esp, 8
  00076	89 45 ec	 mov	 DWORD PTR _lpMagic$2[ebp], eax

; 679  : 
; 680  : 		if( lpMagic )

  00079	83 7d ec 00	 cmp	 DWORD PTR _lpMagic$2[ebp], 0
  0007d	74 18		 je	 SHORT $LN6@UseSkill

; 681  : 		{
; 682  : 			gObjUseSkill.RunningSkill(lpObj->m_Index, 0, lpMagic);	

  0007f	6a 00		 push	 0
  00081	8b 45 ec	 mov	 eax, DWORD PTR _lpMagic$2[ebp]
  00084	50		 push	 eax
  00085	6a 00		 push	 0
  00087	8b 4d f4	 mov	 ecx, DWORD PTR _lpObj$[ebp]
  0008a	8b 11		 mov	 edx, DWORD PTR [ecx]
  0008c	52		 push	 edx
  0008d	b9 00 00 00 00	 mov	 ecx, OFFSET ?gObjUseSkill@@3VCObjUseSkill@@A ; gObjUseSkill
  00092	e8 00 00 00 00	 call	 ?RunningSkill@CObjUseSkill@@QAEHHHPAVCMagicInf@@H@Z ; CObjUseSkill::RunningSkill
$LN6@UseSkill:

; 683  : 		}
; 684  : 		return;

  00097	e9 85 03 00 00	 jmp	 $LN1@UseSkill
$LN5@UseSkill:

; 685  : 	}
; 686  : 
; 687  : #endif
; 688  : 
; 689  : 	int usemana;
; 690  : 	usemana = GetUseMana(aIndex, lpMagic);

  0009c	8b 45 0c	 mov	 eax, DWORD PTR _lpMagic$[ebp]
  0009f	50		 push	 eax
  000a0	8b 4d 08	 mov	 ecx, DWORD PTR _aIndex$[ebp]
  000a3	51		 push	 ecx
  000a4	8b 4d f8	 mov	 ecx, DWORD PTR _this$[ebp]
  000a7	e8 00 00 00 00	 call	 ?GetUseMana@CObjUseSkill@@QAEHHPAVCMagicInf@@@Z ; CObjUseSkill::GetUseMana
  000ac	89 45 e8	 mov	 DWORD PTR _usemana$[ebp], eax

; 691  : 
; 692  : #ifdef MODIFY_BUGFIX_20081119	// 다크호스 어스퀘이크 스킬 시전시 마나 소비되는 버그 수정
; 693  : 	if(lpMagic->m_Skill == AT_SKILL_DARKHORSE_ATTACK)

  000af	8b 45 0c	 mov	 eax, DWORD PTR _lpMagic$[ebp]
  000b2	0f b6 48 05	 movzx	 ecx, BYTE PTR [eax+5]
  000b6	83 f9 3e	 cmp	 ecx, 62			; 0000003eH
  000b9	75 19		 jne	 SHORT $LN7@UseSkill

; 694  : 	{
; 695  : 		usemana = gObj[aIndex].Mana;

  000bb	69 45 08 a0 1b
	00 00		 imul	 eax, DWORD PTR _aIndex$[ebp], 7072
  000c2	8b 0d 00 00 00
	00		 mov	 ecx, DWORD PTR ?gObj@@3PAVOBJECTSTRUCT@@A ; gObj
  000c8	f3 0f 2c 94 01
	d0 00 00 00	 cvttss2si edx, DWORD PTR [ecx+eax+208]
  000d1	89 55 e8	 mov	 DWORD PTR _usemana$[ebp], edx
$LN7@UseSkill:

; 696  : 	}
; 697  : #endif	// MODIFY_BUGFIX_20081119
; 698  : 	
; 699  : 	PMSG_DURATION_MAGIC_SEND	pMsg;
; 700  : 	
; 701  : 	if( usemana >= 0 )

  000d4	83 7d e8 00	 cmp	 DWORD PTR _usemana$[ebp], 0
  000d8	0f 8c 43 03 00
	00		 jl	 $LN27@UseSkill

; 702  : 	{
; 703  : 		
; 704  : #ifdef DARKLORD_WORK
; 705  : 		if( !gObj[aIndex].SkillDelay.Check(lpMagic->m_Skill) )

  000de	8b 45 0c	 mov	 eax, DWORD PTR _lpMagic$[ebp]
  000e1	0f b6 48 05	 movzx	 ecx, BYTE PTR [eax+5]
  000e5	51		 push	 ecx
  000e6	69 55 08 a0 1b
	00 00		 imul	 edx, DWORD PTR _aIndex$[ebp], 7072
  000ed	a1 00 00 00 00	 mov	 eax, DWORD PTR ?gObj@@3PAVOBJECTSTRUCT@@A ; gObj
  000f2	8d 8c 10 84 10
	00 00		 lea	 ecx, DWORD PTR [eax+edx+4228]
  000f9	e8 00 00 00 00	 call	 ?Check@CSkillDelay@@QAEHE@Z ; CSkillDelay::Check
  000fe	85 c0		 test	 eax, eax
  00100	75 25		 jne	 SHORT $LN9@UseSkill

; 706  : 		{
; 707  : 			LogAddTD("[%] 스킬 딜레이시간 오버", gObj[aIndex].Name);

  00102	69 45 08 a0 1b
	00 00		 imul	 eax, DWORD PTR _aIndex$[ebp], 7072
  00109	8b 0d 00 00 00
	00		 mov	 ecx, DWORD PTR ?gObj@@3PAVOBJECTSTRUCT@@A ; gObj
  0010f	8d 54 01 73	 lea	 edx, DWORD PTR [ecx+eax+115]
  00113	52		 push	 edx
  00114	68 00 00 00 00	 push	 OFFSET ??_C@_0BJ@CPAKELEB@?$FL?$CF?$FN?5?$LN?$LK?E?$LD?5?$LF?t?$LH?$LJ?$MA?L?$LN?C?$LA?$KD?5?$LP?$MA?$LJ?v@
  00119	ff 15 00 00 00
	00		 call	 DWORD PTR ?LogAddTD@@3P6AXPADZZA ; LogAddTD
  0011f	83 c4 08	 add	 esp, 8

; 708  : 			return;

  00122	e9 fa 02 00 00	 jmp	 $LN1@UseSkill
$LN9@UseSkill:

; 709  : 		}
; 710  : #endif
; 711  : 
; 712  : #ifdef NEW_FORSKYLAND2
; 713  : 		int usebp = gObjMagicBPUse(&gObj[aIndex], lpMagic);

  00127	8b 45 0c	 mov	 eax, DWORD PTR _lpMagic$[ebp]
  0012a	50		 push	 eax
  0012b	69 4d 08 a0 1b
	00 00		 imul	 ecx, DWORD PTR _aIndex$[ebp], 7072
  00132	03 0d 00 00 00
	00		 add	 ecx, DWORD PTR ?gObj@@3PAVOBJECTSTRUCT@@A ; gObj
  00138	51		 push	 ecx
  00139	e8 00 00 00 00	 call	 ?gObjMagicBPUse@@YAHPAVOBJECTSTRUCT@@PAVCMagicInf@@@Z ; gObjMagicBPUse
  0013e	83 c4 08	 add	 esp, 8
  00141	89 45 d8	 mov	 DWORD PTR _usebp$1[ebp], eax

; 714  : 		if( usebp >= 0 )

  00144	83 7d d8 00	 cmp	 DWORD PTR _usebp$1[ebp], 0
  00148	0f 8c 75 01 00
	00		 jl	 $LN13@UseSkill

; 715  : 		{				
; 716  : 			lpObj->UseMagicNumber = lpMagic->m_Skill;

  0014e	8b 45 f4	 mov	 eax, DWORD PTR _lpObj$[ebp]
  00151	8b 4d 0c	 mov	 ecx, DWORD PTR _lpMagic$[ebp]
  00154	8a 51 05	 mov	 dl, BYTE PTR [ecx+5]
  00157	88 90 15 03 00
	00		 mov	 BYTE PTR [eax+789], dl

; 717  : 			lpObj->UseMagicTime   = GetTickCount();

  0015d	ff 15 00 00 00
	00		 call	 DWORD PTR __imp__GetTickCount@0
  00163	8b 4d f4	 mov	 ecx, DWORD PTR _lpObj$[ebp]
  00166	89 81 18 03 00
	00		 mov	 DWORD PTR [ecx+792], eax

; 718  : 			lpObj->UseMagicCount  = 0;

  0016c	8b 45 f4	 mov	 eax, DWORD PTR _lpObj$[ebp]
  0016f	c6 80 1c 03 00
	00 00		 mov	 BYTE PTR [eax+796], 0

; 719  : 			lpObj->Mana = (float)usemana;

  00176	f3 0f 2a 45 e8	 cvtsi2ss xmm0, DWORD PTR _usemana$[ebp]
  0017b	8b 45 f4	 mov	 eax, DWORD PTR _lpObj$[ebp]
  0017e	f3 0f 11 80 d0
	00 00 00	 movss	 DWORD PTR [eax+208], xmm0

; 720  : 
; 721  : 			lpObj->BP = usebp;

  00186	8b 45 f4	 mov	 eax, DWORD PTR _lpObj$[ebp]
  00189	8b 4d d8	 mov	 ecx, DWORD PTR _usebp$1[ebp]
  0018c	89 88 e8 00 00
	00		 mov	 DWORD PTR [eax+232], ecx

; 722  : 			GCManaSend(lpObj->m_Index, (short)lpObj->Mana, 0xFF, 0, lpObj->BP);

  00192	8b 45 f4	 mov	 eax, DWORD PTR _lpObj$[ebp]
  00195	0f b7 88 e8 00
	00 00		 movzx	 ecx, WORD PTR [eax+232]
  0019c	51		 push	 ecx
  0019d	6a 00		 push	 0
  0019f	68 ff 00 00 00	 push	 255			; 000000ffH
  001a4	8b 55 f4	 mov	 edx, DWORD PTR _lpObj$[ebp]
  001a7	f3 0f 2c 82 d0
	00 00 00	 cvttss2si eax, DWORD PTR [edx+208]
  001af	0f b7 c8	 movzx	 ecx, ax
  001b2	51		 push	 ecx
  001b3	8b 55 f4	 mov	 edx, DWORD PTR _lpObj$[ebp]
  001b6	8b 02		 mov	 eax, DWORD PTR [edx]
  001b8	50		 push	 eax
  001b9	e8 00 00 00 00	 call	 ?GCManaSend@@YAXHFEEG@Z	; GCManaSend
  001be	83 c4 14	 add	 esp, 20			; 00000014H

; 723  : 			PHeadSetBE((LPBYTE)&pMsg, 0x1E, sizeof( pMsg ));

  001c1	6a 09		 push	 9
  001c3	6a 1e		 push	 30			; 0000001eH
  001c5	8d 45 dc	 lea	 eax, DWORD PTR _pMsg$[ebp]
  001c8	50		 push	 eax
  001c9	e8 00 00 00 00	 call	 ?PHeadSetBE@@YAXPAEEH@Z	; PHeadSetBE
  001ce	83 c4 0c	 add	 esp, 12			; 0000000cH

; 724  : 
; 725  : #ifdef ADD_MASTER_LEVEL_SKILL_SYSTEM_ACTIVE_20080107	// 스킬번호 BYTE -> WORD
; 726  : 			pMsg.MagicNumberH = HIBYTE( lpMagic->m_Skill );
; 727  : 			pMsg.MagicNumberL = LOBYTE( lpMagic->m_Skill );
; 728  : #else
; 729  : 			pMsg.MagicNumber = lpMagic->m_Skill;

  001d1	8b 45 0c	 mov	 eax, DWORD PTR _lpMagic$[ebp]
  001d4	8a 48 05	 mov	 cl, BYTE PTR [eax+5]
  001d7	88 4d df	 mov	 BYTE PTR _pMsg$[ebp+3], cl

; 730  : #endif
; 731  : 			pMsg.X = x;

  001da	8a 45 10	 mov	 al, BYTE PTR _x$[ebp]
  001dd	88 45 e2	 mov	 BYTE PTR _pMsg$[ebp+6], al

; 732  : 			pMsg.Y = y;

  001e0	8a 45 14	 mov	 al, BYTE PTR _y$[ebp]
  001e3	88 45 e3	 mov	 BYTE PTR _pMsg$[ebp+7], al

; 733  : 			pMsg.Dir = dir;

  001e6	8a 45 18	 mov	 al, BYTE PTR _dir$[ebp]
  001e9	88 45 e4	 mov	 BYTE PTR _pMsg$[ebp+8], al

; 734  : 			pMsg.NumberH = HIBYTE(aIndex);

  001ec	8b 45 08	 mov	 eax, DWORD PTR _aIndex$[ebp]
  001ef	c1 e8 08	 shr	 eax, 8
  001f2	25 ff 00 00 00	 and	 eax, 255		; 000000ffH
  001f7	88 45 e0	 mov	 BYTE PTR _pMsg$[ebp+4], al

; 735  : 			pMsg.NumberL = LOBYTE(aIndex);

  001fa	8b 45 08	 mov	 eax, DWORD PTR _aIndex$[ebp]
  001fd	25 ff 00 00 00	 and	 eax, 255		; 000000ffH
  00202	88 45 e1	 mov	 BYTE PTR _pMsg$[ebp+5], al

; 736  : 			if( lpObj->Type == OBJTYPE_CHARACTER )

  00205	8b 45 f4	 mov	 eax, DWORD PTR _lpObj$[ebp]
  00208	0f b7 48 64	 movzx	 ecx, WORD PTR [eax+100]
  0020c	83 f9 01	 cmp	 ecx, 1
  0020f	75 17		 jne	 SHORT $LN11@UseSkill

; 737  : 				DataSend(lpObj->m_Index, (LPBYTE)&pMsg, pMsg.h.size);

  00211	0f b6 45 dd	 movzx	 eax, BYTE PTR _pMsg$[ebp+1]
  00215	50		 push	 eax
  00216	8d 4d dc	 lea	 ecx, DWORD PTR _pMsg$[ebp]
  00219	51		 push	 ecx
  0021a	8b 55 f4	 mov	 edx, DWORD PTR _lpObj$[ebp]
  0021d	8b 02		 mov	 eax, DWORD PTR [edx]
  0021f	50		 push	 eax
  00220	e8 00 00 00 00	 call	 ?DataSend@@YAHHPAEK@Z	; DataSend
  00225	83 c4 0c	 add	 esp, 12			; 0000000cH
$LN11@UseSkill:

; 738  : 
; 739  : #ifdef WORLD_TOURNAMENT_EVENT_SETTING			
; 740  : 				MsgSendV2(lpObj, (LPBYTE)&pMsg, pMsg.h.size);
; 741  : #else
; 742  : 	#ifdef CHAOSCASTLE_SYSTEM_20040408		// !!> . 여기서 카오스 캐슬에서 보여서는 않되는 스킬들이 발동되면 보내지 않는다.
; 743  : 				if (CHECK_CHAOSCASTLE(lpObj->MapNumber)) 

  00228	8b 45 f4	 mov	 eax, DWORD PTR _lpObj$[ebp]
  0022b	0f b6 88 09 01
	00 00		 movzx	 ecx, BYTE PTR [eax+265]
  00232	83 f9 12	 cmp	 ecx, 18			; 00000012H
  00235	7d 09		 jge	 SHORT $LN31@UseSkill
  00237	c7 45 94 00 00
	00 00		 mov	 DWORD PTR tv193[ebp], 0
  0023e	eb 25		 jmp	 SHORT $LN32@UseSkill
$LN31@UseSkill:
  00240	8b 55 f4	 mov	 edx, DWORD PTR _lpObj$[ebp]
  00243	0f b6 82 09 01
	00 00		 movzx	 eax, BYTE PTR [edx+265]
  0024a	83 f8 17	 cmp	 eax, 23			; 00000017H
  0024d	7e 09		 jle	 SHORT $LN29@UseSkill
  0024f	c7 45 90 00 00
	00 00		 mov	 DWORD PTR tv192[ebp], 0
  00256	eb 07		 jmp	 SHORT $LN30@UseSkill
$LN29@UseSkill:
  00258	c7 45 90 01 00
	00 00		 mov	 DWORD PTR tv192[ebp], 1
$LN30@UseSkill:
  0025f	8b 4d 90	 mov	 ecx, DWORD PTR tv192[ebp]
  00262	89 4d 94	 mov	 DWORD PTR tv193[ebp], ecx
$LN32@UseSkill:
  00265	83 7d 94 00	 cmp	 DWORD PTR tv193[ebp], 0
  00269	74 43		 je	 SHORT $LN12@UseSkill

; 744  : 				{
; 745  : 	#ifdef ADD_MASTER_LEVEL_SKILL_SYSTEM_ACTIVE_20080107	// 카오스 캐슬에서 보여서는 않되는 스킬 추가
; 746  : 					if( g_MasterSkillSystem.CheckMasterLevelSkill( lpMagic->m_Skill ) )
; 747  : 					{
; 748  : 						INT iBaseMLS = g_MasterSkillSystem.GetBaseMasterLevelSkill( lpMagic->m_Skill );
; 749  : 						switch( iBaseMLS )
; 750  : 						{
; 751  : 						case AT_SKILL_ML_STRENGTHEN_MAGICDEFENSE:	// 소울바리어 강화
; 752  : 						case AT_SKILL_ML_STRENGTHEN_KNIGHTADDLIFE:	// 스웰라이프 강화
; 753  : 						case AT_SKILL_ML_STRENGTHEN_HEALING:		// 치료 강화
; 754  : 			#ifdef UPDATE_MASTER_LEVEL_4RANK_20080428
; 755  : 						case AT_SKILL_ML_STRENGTHEN_DEFENSE:		// 벙어력 향상 강화
; 756  : 						case AT_SKILL_ML_STRENGTHEN_ATTACK:			// 공격력 향상 강화
; 757  : 			#endif	// UPDATE_MASTER_LEVEL_4RANK_20080428
; 758  : 							break;
; 759  : 						default:
; 760  : 							MsgSendV2(lpObj, (LPBYTE)&pMsg, pMsg.h.size);
; 761  : 							break;							
; 762  : 						}
; 763  : 					}
; 764  : 					else
; 765  : 	#endif	// ADD_MASTER_LEVEL_SKILL_SYSTEM_ACTIVE_20080107
; 766  : 					switch(lpMagic->m_Skill) 

  0026b	8b 45 0c	 mov	 eax, DWORD PTR _lpMagic$[ebp]
  0026e	0f b6 48 05	 movzx	 ecx, BYTE PTR [eax+5]
  00272	89 4d 94	 mov	 DWORD PTR tv197[ebp], ecx
  00275	8b 55 94	 mov	 edx, DWORD PTR tv197[ebp]
  00278	83 ea 10	 sub	 edx, 16			; 00000010H
  0027b	89 55 94	 mov	 DWORD PTR tv197[ebp], edx
  0027e	83 7d 94 20	 cmp	 DWORD PTR tv197[ebp], 32 ; 00000020H
  00282	77 13		 ja	 SHORT $LN15@UseSkill
  00284	8b 45 94	 mov	 eax, DWORD PTR tv197[ebp]
  00287	0f b6 88 00 00
	00 00		 movzx	 ecx, BYTE PTR $LN33@UseSkill[eax]
  0028e	ff 24 8d 00 00
	00 00		 jmp	 DWORD PTR $LN34@UseSkill[ecx*4]
$LN14@UseSkill:

; 767  : 					{
; 768  : 					case AT_SKILL_MAGICDEFENSE :	// 소울바리어
; 769  : 					case AT_SKILL_KNIGHTADDLIFE :	// 스웰라이프
; 770  : 					case AT_SKILL_DEFENSE :			// 방어력향상
; 771  : 					case AT_SKILL_ATTACK :			// 공격력향상
; 772  : 					case AT_SKILL_HEALING :			// 치료
; 773  : 						break;

  00295	eb 15		 jmp	 SHORT $LN2@UseSkill
$LN15@UseSkill:

; 774  : 					default :
; 775  : 						MsgSendV2(lpObj, (LPBYTE)&pMsg, pMsg.h.size);

  00297	0f b6 45 dd	 movzx	 eax, BYTE PTR _pMsg$[ebp+1]
  0029b	50		 push	 eax
  0029c	8d 4d dc	 lea	 ecx, DWORD PTR _pMsg$[ebp]
  0029f	51		 push	 ecx
  002a0	8b 55 f4	 mov	 edx, DWORD PTR _lpObj$[ebp]
  002a3	52		 push	 edx
  002a4	e8 00 00 00 00	 call	 ?MsgSendV2@@YAXPAVOBJECTSTRUCT@@PAEH@Z ; MsgSendV2
  002a9	83 c4 0c	 add	 esp, 12			; 0000000cH
$LN2@UseSkill:

; 776  : 						break;
; 777  : 					}
; 778  : 				}

  002ac	eb 15		 jmp	 SHORT $LN13@UseSkill
$LN12@UseSkill:

; 779  : 				else 
; 780  : 				{
; 781  : 					MsgSendV2(lpObj, (LPBYTE)&pMsg, pMsg.h.size);

  002ae	0f b6 45 dd	 movzx	 eax, BYTE PTR _pMsg$[ebp+1]
  002b2	50		 push	 eax
  002b3	8d 4d dc	 lea	 ecx, DWORD PTR _pMsg$[ebp]
  002b6	51		 push	 ecx
  002b7	8b 55 f4	 mov	 edx, DWORD PTR _lpObj$[ebp]
  002ba	52		 push	 edx
  002bb	e8 00 00 00 00	 call	 ?MsgSendV2@@YAXPAVOBJECTSTRUCT@@PAEH@Z ; MsgSendV2
  002c0	83 c4 0c	 add	 esp, 12			; 0000000cH
$LN13@UseSkill:

; 782  : 				}
; 783  : 	#else
; 784  : 				MsgSendV2(lpObj, (LPBYTE)&pMsg, pMsg.h.size);
; 785  : 	#endif
; 786  : #endif // WORLD_TOURNAMENT_EVENT_SETTING
; 787  : 		}
; 788  : #endif
; 789  : 
; 790  : #ifdef ADD_MASTER_LEVEL_SKILL_SYSTEM_ACTIVE_20080107	// UseSkill -> g_MasterSkillSystem.RunningSkill_MLS
; 791  : 		if( g_MasterSkillSystem.CheckMasterLevelSkill( lpMagic->m_Skill ) )
; 792  : 		{
; 793  : #ifdef UPDATE_MASTER_LEVEL_4RANK_20080428
; 794  : 			g_MasterSkillSystem.RunningSkill_MLS( lpObj, aTargetIndex, lpMagic, bCombo, x, y, TargetPos );
; 795  : #else	// UPDATE_MASTER_LEVEL_4RANK_20080428
; 796  : 			g_MasterSkillSystem.RunningSkill_MLS( lpObj, aTargetIndex, lpMagic, bCombo );
; 797  : #endif	// UPDATE_MASTER_LEVEL_4RANK_20080428
; 798  : 			return;
; 799  : 		}
; 800  : #endif
; 801  : 	
; 802  : #ifdef ADD_SKILL_20031022		
; 803  : 		if( lpMagic->m_Skill == AT_SKILL_SWORD6 )

  002c3	8b 45 0c	 mov	 eax, DWORD PTR _lpMagic$[ebp]
  002c6	0f b6 48 05	 movzx	 ecx, BYTE PTR [eax+5]
  002ca	83 f9 38	 cmp	 ecx, 56			; 00000038H
  002cd	75 28		 jne	 SHORT $LN16@UseSkill

; 804  : 		{	// 파워 슬래쉬 (마검 스킬)			
; 805  : 	#ifdef EXPAND_ATTACK_PACKET_0X1E
; 806  : 				SkillPowerSlash(aIndex, lpMagic, x, y, dir, TargetPos, aTargetIndex);

  002cf	8b 45 20	 mov	 eax, DWORD PTR _aTargetIndex$[ebp]
  002d2	50		 push	 eax
  002d3	0f b6 4d 1c	 movzx	 ecx, BYTE PTR _TargetPos$[ebp]
  002d7	51		 push	 ecx
  002d8	0f b6 55 18	 movzx	 edx, BYTE PTR _dir$[ebp]
  002dc	52		 push	 edx
  002dd	0f b6 45 14	 movzx	 eax, BYTE PTR _y$[ebp]
  002e1	50		 push	 eax
  002e2	0f b6 4d 10	 movzx	 ecx, BYTE PTR _x$[ebp]
  002e6	51		 push	 ecx
  002e7	8b 55 0c	 mov	 edx, DWORD PTR _lpMagic$[ebp]
  002ea	52		 push	 edx
  002eb	8b 45 08	 mov	 eax, DWORD PTR _aIndex$[ebp]
  002ee	50		 push	 eax
  002ef	8b 4d f8	 mov	 ecx, DWORD PTR _this$[ebp]
  002f2	e8 00 00 00 00	 call	 ?SkillPowerSlash@CObjUseSkill@@QAEXHPAVCMagicInf@@EEEEH@Z ; CObjUseSkill::SkillPowerSlash
$LN16@UseSkill:

; 807  : 	#else
; 808  : 				SkillPowerSlash(aIndex, lpMagic, x, y, dir, TargetPos);
; 809  : 	#endif
; 810  : 		}		
; 811  : #endif
; 812  : 
; 813  : #ifdef ADD_SKILL_WITH_COMBO	
; 814  : 		if( lpMagic->m_Skill == AT_SKILL_EXPPOISON )

  002f7	8b 45 0c	 mov	 eax, DWORD PTR _lpMagic$[ebp]
  002fa	0f b6 48 05	 movzx	 ecx, BYTE PTR [eax+5]
  002fe	83 f9 26	 cmp	 ecx, 38			; 00000026H
  00301	75 2d		 jne	 SHORT $LN17@UseSkill

; 815  : 		{	// 데쓰 포이즌
; 816  : 			SkillDeathPoison(aIndex, lpMagic, x, y, dir, TargetPos, aTargetIndex);

  00303	8b 45 20	 mov	 eax, DWORD PTR _aTargetIndex$[ebp]
  00306	50		 push	 eax
  00307	0f b6 4d 1c	 movzx	 ecx, BYTE PTR _TargetPos$[ebp]
  0030b	51		 push	 ecx
  0030c	0f b6 55 18	 movzx	 edx, BYTE PTR _dir$[ebp]
  00310	52		 push	 edx
  00311	0f b6 45 14	 movzx	 eax, BYTE PTR _y$[ebp]
  00315	50		 push	 eax
  00316	0f b6 4d 10	 movzx	 ecx, BYTE PTR _x$[ebp]
  0031a	51		 push	 ecx
  0031b	8b 55 0c	 mov	 edx, DWORD PTR _lpMagic$[ebp]
  0031e	52		 push	 edx
  0031f	8b 45 08	 mov	 eax, DWORD PTR _aIndex$[ebp]
  00322	50		 push	 eax
  00323	8b 4d f8	 mov	 ecx, DWORD PTR _this$[ebp]
  00326	e8 00 00 00 00	 call	 ?SkillDeathPoison@CObjUseSkill@@QAEHHPAVCMagicInf@@EEEEH@Z ; CObjUseSkill::SkillDeathPoison

; 817  : 		}

  0032b	e9 f1 00 00 00	 jmp	 $LN27@UseSkill
$LN17@UseSkill:

; 818  : 		else if( lpMagic->m_Skill == AT_SKILL_EXPICE )

  00330	8b 45 0c	 mov	 eax, DWORD PTR _lpMagic$[ebp]
  00333	0f b6 48 05	 movzx	 ecx, BYTE PTR [eax+5]
  00337	83 f9 27	 cmp	 ecx, 39			; 00000027H
  0033a	75 2d		 jne	 SHORT $LN19@UseSkill

; 819  : 		{	// 서든 아이스
; 820  : 			SkillSuddenIce(aIndex, lpMagic, x, y, dir, TargetPos, aTargetIndex);

  0033c	8b 45 20	 mov	 eax, DWORD PTR _aTargetIndex$[ebp]
  0033f	50		 push	 eax
  00340	0f b6 4d 1c	 movzx	 ecx, BYTE PTR _TargetPos$[ebp]
  00344	51		 push	 ecx
  00345	0f b6 55 18	 movzx	 edx, BYTE PTR _dir$[ebp]
  00349	52		 push	 edx
  0034a	0f b6 45 14	 movzx	 eax, BYTE PTR _y$[ebp]
  0034e	50		 push	 eax
  0034f	0f b6 4d 10	 movzx	 ecx, BYTE PTR _x$[ebp]
  00353	51		 push	 ecx
  00354	8b 55 0c	 mov	 edx, DWORD PTR _lpMagic$[ebp]
  00357	52		 push	 edx
  00358	8b 45 08	 mov	 eax, DWORD PTR _aIndex$[ebp]
  0035b	50		 push	 eax
  0035c	8b 4d f8	 mov	 ecx, DWORD PTR _this$[ebp]
  0035f	e8 00 00 00 00	 call	 ?SkillSuddenIce@CObjUseSkill@@QAEHHPAVCMagicInf@@EEEEH@Z ; CObjUseSkill::SkillSuddenIce

; 821  : 		}		

  00364	e9 b8 00 00 00	 jmp	 $LN27@UseSkill
$LN19@UseSkill:

; 822  : 		else if( lpMagic->m_Skill == AT_SKILL_BLOWOFFURY )

  00369	8b 45 0c	 mov	 eax, DWORD PTR _lpMagic$[ebp]
  0036c	0f b6 48 05	 movzx	 ecx, BYTE PTR [eax+5]
  00370	83 f9 2a	 cmp	 ecx, 42			; 0000002aH
  00373	75 2e		 jne	 SHORT $LN21@UseSkill

; 823  : 		{	// 분노의 일격
; 824  : 			SkillBlowOfFury(aIndex, lpMagic, x, y, dir, TargetPos, aTargetIndex, bCombo);

  00375	8b 45 f0	 mov	 eax, DWORD PTR _bCombo$[ebp]
  00378	50		 push	 eax
  00379	8b 4d 20	 mov	 ecx, DWORD PTR _aTargetIndex$[ebp]
  0037c	51		 push	 ecx
  0037d	0f b6 55 1c	 movzx	 edx, BYTE PTR _TargetPos$[ebp]
  00381	52		 push	 edx
  00382	0f b6 45 18	 movzx	 eax, BYTE PTR _dir$[ebp]
  00386	50		 push	 eax
  00387	0f b6 4d 14	 movzx	 ecx, BYTE PTR _y$[ebp]
  0038b	51		 push	 ecx
  0038c	0f b6 55 10	 movzx	 edx, BYTE PTR _x$[ebp]
  00390	52		 push	 edx
  00391	8b 45 0c	 mov	 eax, DWORD PTR _lpMagic$[ebp]
  00394	50		 push	 eax
  00395	8b 4d 08	 mov	 ecx, DWORD PTR _aIndex$[ebp]
  00398	51		 push	 ecx
  00399	8b 4d f8	 mov	 ecx, DWORD PTR _this$[ebp]
  0039c	e8 00 00 00 00	 call	 ?SkillBlowOfFury@CObjUseSkill@@QAEXHPAVCMagicInf@@EEEEHH@Z ; CObjUseSkill::SkillBlowOfFury

; 825  : 		}

  003a1	eb 7e		 jmp	 SHORT $LN27@UseSkill
$LN21@UseSkill:

; 826  : 		else if( lpMagic->m_Skill == AT_SKILL_WHEEL )

  003a3	8b 45 0c	 mov	 eax, DWORD PTR _lpMagic$[ebp]
  003a6	0f b6 48 05	 movzx	 ecx, BYTE PTR [eax+5]
  003aa	83 f9 29	 cmp	 ecx, 41			; 00000029H
  003ad	75 1a		 jne	 SHORT $LN23@UseSkill

; 827  : 		{	// 회오리베기
; 828  : 			SkillWheel(aIndex, lpMagic, aTargetIndex, bCombo);

  003af	8b 45 f0	 mov	 eax, DWORD PTR _bCombo$[ebp]
  003b2	50		 push	 eax
  003b3	8b 4d 20	 mov	 ecx, DWORD PTR _aTargetIndex$[ebp]
  003b6	51		 push	 ecx
  003b7	8b 55 0c	 mov	 edx, DWORD PTR _lpMagic$[ebp]
  003ba	52		 push	 edx
  003bb	8b 45 08	 mov	 eax, DWORD PTR _aIndex$[ebp]
  003be	50		 push	 eax
  003bf	8b 4d f8	 mov	 ecx, DWORD PTR _this$[ebp]
  003c2	e8 00 00 00 00	 call	 ?SkillWheel@CObjUseSkill@@QAEXHPAVCMagicInf@@HH@Z ; CObjUseSkill::SkillWheel

; 829  : 		}			

  003c7	eb 58		 jmp	 SHORT $LN27@UseSkill
$LN23@UseSkill:

; 830  : #endif
; 831  : 		
; 832  : #ifdef DARKLORD_WORK		
; 833  : 		else if( lpMagic->m_Skill == AT_SKILL_ELECTRICSPARK )

  003c9	8b 45 0c	 mov	 eax, DWORD PTR _lpMagic$[ebp]
  003cc	0f b6 48 05	 movzx	 ecx, BYTE PTR [eax+5]
  003d0	83 f9 41	 cmp	 ecx, 65			; 00000041H
  003d3	75 2a		 jne	 SHORT $LN25@UseSkill

; 834  : 		{	// 일렉트릭스파크
; 835  : 			SkillElectricSpark(aIndex, lpMagic, x, y, dir, TargetPos, aTargetIndex);

  003d5	8b 45 20	 mov	 eax, DWORD PTR _aTargetIndex$[ebp]
  003d8	50		 push	 eax
  003d9	0f b6 4d 1c	 movzx	 ecx, BYTE PTR _TargetPos$[ebp]
  003dd	51		 push	 ecx
  003de	0f b6 55 18	 movzx	 edx, BYTE PTR _dir$[ebp]
  003e2	52		 push	 edx
  003e3	0f b6 45 14	 movzx	 eax, BYTE PTR _y$[ebp]
  003e7	50		 push	 eax
  003e8	0f b6 4d 10	 movzx	 ecx, BYTE PTR _x$[ebp]
  003ec	51		 push	 ecx
  003ed	8b 55 0c	 mov	 edx, DWORD PTR _lpMagic$[ebp]
  003f0	52		 push	 edx
  003f1	8b 45 08	 mov	 eax, DWORD PTR _aIndex$[ebp]
  003f4	50		 push	 eax
  003f5	8b 4d f8	 mov	 ecx, DWORD PTR _this$[ebp]
  003f8	e8 00 00 00 00	 call	 ?SkillElectricSpark@CObjUseSkill@@QAEXHPAVCMagicInf@@EEEEH@Z ; CObjUseSkill::SkillElectricSpark

; 836  : 		}

  003fd	eb 22		 jmp	 SHORT $LN27@UseSkill
$LN25@UseSkill:

; 837  : 		else if( lpMagic->m_Skill == AT_SKILL_DARKHORSE_ATTACK )

  003ff	8b 45 0c	 mov	 eax, DWORD PTR _lpMagic$[ebp]
  00402	0f b6 48 05	 movzx	 ecx, BYTE PTR [eax+5]
  00406	83 f9 3e	 cmp	 ecx, 62			; 0000003eH
  00409	75 16		 jne	 SHORT $LN27@UseSkill

; 838  : 		{	// 다크호스			
; 839  : 			SkillDarkHorseAttack(lpObj->m_Index, aTargetIndex, lpMagic);

  0040b	8b 45 0c	 mov	 eax, DWORD PTR _lpMagic$[ebp]
  0040e	50		 push	 eax
  0040f	8b 4d 20	 mov	 ecx, DWORD PTR _aTargetIndex$[ebp]
  00412	51		 push	 ecx
  00413	8b 55 f4	 mov	 edx, DWORD PTR _lpObj$[ebp]
  00416	8b 02		 mov	 eax, DWORD PTR [edx]
  00418	50		 push	 eax
  00419	8b 4d f8	 mov	 ecx, DWORD PTR _this$[ebp]
  0041c	e8 00 00 00 00	 call	 ?SkillDarkHorseAttack@CObjUseSkill@@QAEHHHPAVCMagicInf@@@Z ; CObjUseSkill::SkillDarkHorseAttack
$LN27@UseSkill:
$LN1@UseSkill:

; 840  : 		}
; 841  : #endif
; 842  : 
; 843  : #ifdef ADD_NEW_SKILL_FOR_CASTLE_01_20041116
; 844  : 		else if( lpMagic->m_Skill == AT_SKILL_STUN)
; 845  : 		{	// 스턴
; 846  : 			SkillStun(aIndex, aTargetIndex, lpMagic, x, y, dir, TargetPos);
; 847  : 		}		
; 848  : #endif
; 849  : 
; 850  : #ifdef ADD_ITEM_FENRIR_01_20051110
; 851  : 		else if( lpMagic->m_Skill == AT_SKILL_FENRIR_ATTACK)
; 852  : 		{
; 853  : 			SkillFenrirAttack(aIndex, aTargetIndex, lpMagic);
; 854  : 		}
; 855  : #endif
; 856  : 
; 857  : #ifdef NEW_ATTACK_PROC
; 858  : 		if( lpMagic->m_Skill == AT_SKILL_BLOWOFFURY )
; 859  : 		{	// 분노의 일격
; 860  : 			SkillBlowOfFury(aIndex, lpMagic, x, y, dir, TargetPos);
; 861  : 		}
; 862  : 		/*
; 863  : 		*/
; 864  : 		else if( lpMagic->m_Skill == AT_SKILL_PENETRATION )
; 865  : 		{	// 관통
; 866  : 			SkillPenetration(aIndex, lpMagic, x, y, dir, TargetPos);
; 867  : 		}
; 868  : 		else if( lpMagic->m_Skill == AT_SKILL_DEFENSEDOWN )
; 869  : 		{	// 마검사 방어 감소
; 870  : 			SkillDefenseDown(aIndex, lpMagic, x, y, dir, TargetPos);
; 871  : 		}		
; 872  : 		else if( lpMagic->m_Skill == AT_SKILL_EVIL )
; 873  : 		{	// 악령
; 874  : 			SkillEvil(aIndex, lpMagic);
; 875  : 		}
; 876  : 		else if( lpMagic->m_Skill == AT_SKILL_HELL )
; 877  : 		{	// 헬파이어
; 878  : 			SkillHellFire(aIndex, lpMagic);
; 879  : 		}
; 880  : 		else if( lpMagic->m_Skill == AT_SKILL_INFERNO )
; 881  : 		{	// 인페르노
; 882  : 			SkillHellFire(aIndex, lpMagic);
; 883  : 		}
; 884  : 		else if( lpMagic->m_Skill == AT_SKILL_WHEEL )
; 885  : 		{	// 회오리베기
; 886  : 			SkillWheel(aIndex, lpMagic);
; 887  : 		}	
; 888  : #endif
; 889  : 
; 890  : #ifdef MODIFY_SKILL_EVEIL_AT_SERVER_20070117
; 891  : 		// 악령
; 892  : 		else if( lpMagic->m_Skill == AT_SKILL_EVIL )
; 893  : 		{
; 894  : 			SkillNewEvil( aIndex, aTargetIndex, lpMagic );
; 895  : 		}
; 896  : #endif
; 897  : 
; 898  : #ifdef ADD_SEASON_3_NEW_CHARACTER_SUMMONER_20070912
; 899  : 		else if( lpMagic->m_Skill == AT_SKILL_LIGHTNINGORB )
; 900  : 		{
; 901  : 			SkillLightningOrb( aIndex, aTargetIndex, lpMagic);
; 902  : 		}
; 903  : 		else if( lpMagic->m_Skill == AT_SKILL_DRAINLIFE )
; 904  : 		{
; 905  : 			SkillDrainLife(aIndex, aTargetIndex, lpMagic);
; 906  : 		}
; 907  : 		else if( lpMagic->m_Skill == AT_SKILL_CHAINLIGHTNING )
; 908  : 		{
; 909  : 			SkillChainLightning(aIndex, aTargetIndex, lpMagic);
; 910  : 		}
; 911  : 		else if( lpMagic->m_Skill == AT_SKILL_EXPLOSION_2	// 환수 스킬
; 912  : 			|| lpMagic->m_Skill == AT_SKILL_REQUIEM )
; 913  : 		{
; 914  : 			SkillSummons(aIndex, lpMagic, x, y, aTargetIndex);
; 915  : 		}
; 916  : #endif
; 917  : 
; 918  : #ifdef UPDATE_SUMMONER_NEW_SKILL_20080111
; 919  : 		else if( lpMagic->m_Skill == AT_SKILL_WEAKNESS	)
; 920  : 		{
; 921  : 			SkillWeakness(aIndex, lpMagic, x, y, aTargetIndex);
; 922  : 		}
; 923  : 		else if( lpMagic->m_Skill == AT_SKILL_ENERVATION	)
; 924  : 		{
; 925  : 			SkillEnervation(aIndex, lpMagic, x, y, aTargetIndex);
; 926  : 		}
; 927  : #endif	// UPDATE_SUMMONER_NEW_SKILL_20080111
; 928  : 
; 929  : #ifdef UPDATE_ADD_SUMMONER_SKILL_POLLUTION_20080425
; 930  : 		else if( lpMagic->m_Skill == AT_SKILL_PULLUTION )
; 931  : 		{
; 932  : 			UseSkillPollution(aIndex, lpMagic, x, y, aTargetIndex);
; 933  : 		}
; 934  : #endif	// UPDATE_ADD_SUMMONER_SKILL_POLLUTION_20080425
; 935  : 
; 936  : #ifdef SEASON4_PATCH_GROOVING
; 937  : 		// --->
; 938  : 		// 시즌 4.0 추가 스킬  grooving 2008/04/24
; 939  : 		else if( lpMagic->m_Skill == AT_SKILL_LIGHTING_SHOCK )
; 940  : 		{
; 941  : 			SkillLightningShock( aIndex, aTargetIndex, lpMagic );
; 942  : 		}
; 943  : 		// <---
; 944  : #endif
; 945  : 
; 946  : #ifdef ADD_SEASON4_NEW_SKILL_20080522	// 스킬 사용
; 947  : 		else if( lpMagic->m_Skill == AT_SKILL_DESTRUCTION )
; 948  : 		{
; 949  : 			SkillDestruction(aIndex, lpMagic, x, y, aTargetIndex);
; 950  : 		}
; 951  : 		else if( lpMagic->m_Skill == AT_SKILL_FLAMESTRIKE)
; 952  : 		{
; 953  : 			SkillFlameStrike(aIndex, lpMagic, TargetPos, aTargetIndex);
; 954  : 		}
; 955  : 		else if( lpMagic->m_Skill == AT_SKILL_GIGANTICSTORM)
; 956  : 		{
; 957  : 			SkillGiganticStorm(aIndex, lpMagic, x, y, aTargetIndex);
; 958  : 		}
; 959  : 		else if( lpMagic->m_Skill == AT_SKILL_MULTISHOT)
; 960  : 		{
; 961  : 			SkillMultiShot(aIndex, lpMagic, TargetPos, aTargetIndex);
; 962  : 		}
; 963  : 		else if(lpMagic->m_Skill == AT_SKILL_CHAOTICDESAIR)
; 964  : 		{
; 965  : 			SkillchaoticDesair(aIndex, lpMagic, TargetPos, aTargetIndex);
; 966  : 		}
; 967  : #endif	// ADD_SEASON4_NEW_SKILL_20080522
; 968  : 	}
; 969  : }

  00421	5f		 pop	 edi
  00422	5e		 pop	 esi
  00423	5b		 pop	 ebx
  00424	8b 4d fc	 mov	 ecx, DWORD PTR __$ArrayPad$[ebp]
  00427	33 cd		 xor	 ecx, ebp
  00429	e8 00 00 00 00	 call	 @__security_check_cookie@4
  0042e	8b e5		 mov	 esp, ebp
  00430	5d		 pop	 ebp
  00431	c2 1c 00	 ret	 28			; 0000001cH
$LN34@UseSkill:
  00434	00 00 00 00	 DD	 $LN14@UseSkill
  00438	00 00 00 00	 DD	 $LN15@UseSkill
$LN33@UseSkill:
  0043c	00		 DB	 0
  0043d	01		 DB	 1
  0043e	01		 DB	 1
  0043f	01		 DB	 1
  00440	01		 DB	 1
  00441	01		 DB	 1
  00442	01		 DB	 1
  00443	01		 DB	 1
  00444	01		 DB	 1
  00445	01		 DB	 1
  00446	00		 DB	 0
  00447	00		 DB	 0
  00448	00		 DB	 0
  00449	01		 DB	 1
  0044a	01		 DB	 1
  0044b	01		 DB	 1
  0044c	01		 DB	 1
  0044d	01		 DB	 1
  0044e	01		 DB	 1
  0044f	01		 DB	 1
  00450	01		 DB	 1
  00451	01		 DB	 1
  00452	01		 DB	 1
  00453	01		 DB	 1
  00454	01		 DB	 1
  00455	01		 DB	 1
  00456	01		 DB	 1
  00457	01		 DB	 1
  00458	01		 DB	 1
  00459	01		 DB	 1
  0045a	01		 DB	 1
  0045b	01		 DB	 1
  0045c	00		 DB	 0
?UseSkill@CObjUseSkill@@QAEXHPAVCMagicInf@@EEEEH@Z ENDP	; CObjUseSkill::UseSkill
_TEXT	ENDS
; Function compile flags: /Odtp /ZI
; File C:\Mu Online\Mu-GS-Webzen-MC-10093\GameServer\ObjUseSkill.cpp
;	COMDAT ?GetUseBP@CObjUseSkill@@QAEHHPAVCMagicInf@@@Z
_TEXT	SEGMENT
_usingbp$ = -16						; size = 4
_bp$ = -12						; size = 4
_lpObj$ = -8						; size = 4
_this$ = -4						; size = 4
_aIndex$ = 8						; size = 4
_lpMagic$ = 12						; size = 4
?GetUseBP@CObjUseSkill@@QAEHHPAVCMagicInf@@@Z PROC	; CObjUseSkill::GetUseBP, COMDAT
; _this$ = ecx

; 632  : {

  00000	55		 push	 ebp
  00001	8b ec		 mov	 ebp, esp
  00003	83 ec 50	 sub	 esp, 80			; 00000050H
  00006	53		 push	 ebx
  00007	56		 push	 esi
  00008	57		 push	 edi
  00009	89 4d fc	 mov	 DWORD PTR _this$[ebp], ecx

; 633  : 	LPOBJECTSTRUCT lpObj= &gObj[aIndex];

  0000c	69 45 08 a0 1b
	00 00		 imul	 eax, DWORD PTR _aIndex$[ebp], 7072
  00013	03 05 00 00 00
	00		 add	 eax, DWORD PTR ?gObj@@3PAVOBJECTSTRUCT@@A ; gObj
  00019	89 45 f8	 mov	 DWORD PTR _lpObj$[ebp], eax

; 634  : 
; 635  : 	int bp = lpObj->BP;	

  0001c	8b 45 f8	 mov	 eax, DWORD PTR _lpObj$[ebp]
  0001f	8b 88 e8 00 00
	00		 mov	 ecx, DWORD PTR [eax+232]
  00025	89 4d f4	 mov	 DWORD PTR _bp$[ebp], ecx

; 636  : 	// 몬스터는 깎지 않는다.
; 637  : 	if( lpObj->Type != OBJTYPE_CHARACTER ) return 0;

  00028	8b 45 f8	 mov	 eax, DWORD PTR _lpObj$[ebp]
  0002b	0f b7 48 64	 movzx	 ecx, WORD PTR [eax+100]
  0002f	83 f9 01	 cmp	 ecx, 1
  00032	74 04		 je	 SHORT $LN2@GetUseBP
  00034	33 c0		 xor	 eax, eax
  00036	eb 52		 jmp	 SHORT $LN1@GetUseBP
$LN2@GetUseBP:

; 638  : 	if( lpMagic == NULL ) return FALSE;

  00038	83 7d 0c 00	 cmp	 DWORD PTR _lpMagic$[ebp], 0
  0003c	75 04		 jne	 SHORT $LN3@GetUseBP
  0003e	33 c0		 xor	 eax, eax
  00040	eb 48		 jmp	 SHORT $LN1@GetUseBP
$LN3@GetUseBP:

; 639  : 
; 640  : 	int usingbp = MagicDamageC.SkillGetBP(lpMagic->m_Skill);	

  00042	8b 45 0c	 mov	 eax, DWORD PTR _lpMagic$[ebp]
  00045	0f b6 48 05	 movzx	 ecx, BYTE PTR [eax+5]
  00049	51		 push	 ecx
  0004a	b9 00 00 00 00	 mov	 ecx, OFFSET ?MagicDamageC@@3VCMagicDamage@@A ; MagicDamageC
  0004f	e8 00 00 00 00	 call	 ?SkillGetBP@CMagicDamage@@QAEHH@Z ; CMagicDamage::SkillGetBP
  00054	89 45 f0	 mov	 DWORD PTR _usingbp$[ebp], eax

; 641  : 	usingbp -=  usingbp*lpObj->SetOpDecreaseAG/100;

  00057	8b 45 f8	 mov	 eax, DWORD PTR _lpObj$[ebp]
  0005a	0f b6 88 4c 0f
	00 00		 movzx	 ecx, BYTE PTR [eax+3916]
  00061	8b c1		 mov	 eax, ecx
  00063	0f af 45 f0	 imul	 eax, DWORD PTR _usingbp$[ebp]
  00067	99		 cdq
  00068	b9 64 00 00 00	 mov	 ecx, 100		; 00000064H
  0006d	f7 f9		 idiv	 ecx
  0006f	8b 55 f0	 mov	 edx, DWORD PTR _usingbp$[ebp]
  00072	2b d0		 sub	 edx, eax
  00074	89 55 f0	 mov	 DWORD PTR _usingbp$[ebp], edx

; 642  : 
; 643  : #ifdef MODIFY_SOCKET_ITEM_NEW_OPTION_20080818
; 644  : 	if( lpObj->m_btAGReduceRate > 0 )
; 645  : 	{
; 646  : 		usingbp -= ( usingbp * lpObj->m_btAGReduceRate ) / 100;
; 647  : 	}
; 648  : #endif // MODIFY_SOCKET_ITEM_NEW_OPTION_20080818
; 649  : 
; 650  : 	bp -= usingbp;

  00077	8b 45 f4	 mov	 eax, DWORD PTR _bp$[ebp]
  0007a	2b 45 f0	 sub	 eax, DWORD PTR _usingbp$[ebp]
  0007d	89 45 f4	 mov	 DWORD PTR _bp$[ebp], eax

; 651  : 	
; 652  : 	// 마나가 없어 사용할 수 없다면 그냥 리턴
; 653  : 	if( bp < 0 ) return -1;

  00080	79 05		 jns	 SHORT $LN4@GetUseBP
  00082	83 c8 ff	 or	 eax, -1
  00085	eb 03		 jmp	 SHORT $LN1@GetUseBP
$LN4@GetUseBP:

; 654  : 
; 655  : 	return (int)bp;

  00087	8b 45 f4	 mov	 eax, DWORD PTR _bp$[ebp]
$LN1@GetUseBP:

; 656  : }

  0008a	5f		 pop	 edi
  0008b	5e		 pop	 esi
  0008c	5b		 pop	 ebx
  0008d	8b e5		 mov	 esp, ebp
  0008f	5d		 pop	 ebp
  00090	c2 08 00	 ret	 8
?GetUseBP@CObjUseSkill@@QAEHHPAVCMagicInf@@@Z ENDP	; CObjUseSkill::GetUseBP
_TEXT	ENDS
; Function compile flags: /Odtp /ZI
; File C:\Mu Online\Mu-GS-Webzen-MC-10093\GameServer\ObjUseSkill.cpp
;	COMDAT ?GetUseMana@CObjUseSkill@@QAEHHPAVCMagicInf@@@Z
_TEXT	SEGMENT
_mana$ = -12						; size = 4
_lpObj$ = -8						; size = 4
_this$ = -4						; size = 4
_aIndex$ = 8						; size = 4
_lpMagic$ = 12						; size = 4
?GetUseMana@CObjUseSkill@@QAEHHPAVCMagicInf@@@Z PROC	; CObjUseSkill::GetUseMana, COMDAT
; _this$ = ecx

; 501  : {

  00000	55		 push	 ebp
  00001	8b ec		 mov	 ebp, esp
  00003	83 ec 4c	 sub	 esp, 76			; 0000004cH
  00006	53		 push	 ebx
  00007	56		 push	 esi
  00008	57		 push	 edi
  00009	89 4d fc	 mov	 DWORD PTR _this$[ebp], ecx

; 502  : 	LPOBJECTSTRUCT lpObj= &gObj[aIndex];

  0000c	69 45 08 a0 1b
	00 00		 imul	 eax, DWORD PTR _aIndex$[ebp], 7072
  00013	03 05 00 00 00
	00		 add	 eax, DWORD PTR ?gObj@@3PAVOBJECTSTRUCT@@A ; gObj
  00019	89 45 f8	 mov	 DWORD PTR _lpObj$[ebp], eax

; 503  : 	float mana = lpObj->Mana;

  0001c	8b 45 f8	 mov	 eax, DWORD PTR _lpObj$[ebp]
  0001f	f3 0f 10 80 d0
	00 00 00	 movss	 xmm0, DWORD PTR [eax+208]
  00027	f3 0f 11 45 f4	 movss	 DWORD PTR _mana$[ebp], xmm0

; 504  : 	
; 505  : 	// 몬스터는 MP를 깎지 않는다.
; 506  : 	if( lpObj->Type != OBJTYPE_CHARACTER ) return 0;

  0002c	8b 45 f8	 mov	 eax, DWORD PTR _lpObj$[ebp]
  0002f	0f b7 48 64	 movzx	 ecx, WORD PTR [eax+100]
  00033	83 f9 01	 cmp	 ecx, 1
  00036	74 04		 je	 SHORT $LN2@GetUseMana
  00038	33 c0		 xor	 eax, eax
  0003a	eb 41		 jmp	 SHORT $LN1@GetUseMana
$LN2@GetUseMana:

; 507  : 	if( lpMagic == NULL ) return FALSE;

  0003c	83 7d 0c 00	 cmp	 DWORD PTR _lpMagic$[ebp], 0
  00040	75 04		 jne	 SHORT $LN3@GetUseMana
  00042	33 c0		 xor	 eax, eax
  00044	eb 37		 jmp	 SHORT $LN1@GetUseMana
$LN3@GetUseMana:

; 508  : 
; 509  : #ifdef UPDATE_MASTER_LEVEL_4RANK_20080428	// 마나 감소 강화
; 510  : 	float DecreaseMana = 0.0f;
; 511  : 
; 512  : 	DecreaseMana = MagicDamageC.SkillGetMana(lpMagic->m_Skill) + GetAddUseMana( lpObj, lpMagic );
; 513  : 	DecreaseMana -= (DecreaseMana * lpObj->m_MPSkillOpt.iMpsDecreaseMana) / 100;
; 514  : 	
; 515  : 	if(DecreaseMana < 1.0f)	DecreaseMana = 1.0f;
; 516  : 	mana -= DecreaseMana;
; 517  : #else	// UPDATE_MASTER_LEVEL_4RANK_20080428
; 518  : 	mana -= MagicDamageC.SkillGetMana(lpMagic->m_Skill);

  00046	8b 45 0c	 mov	 eax, DWORD PTR _lpMagic$[ebp]
  00049	0f b6 48 05	 movzx	 ecx, BYTE PTR [eax+5]
  0004d	51		 push	 ecx
  0004e	b9 00 00 00 00	 mov	 ecx, OFFSET ?MagicDamageC@@3VCMagicDamage@@A ; MagicDamageC
  00053	e8 00 00 00 00	 call	 ?SkillGetMana@CMagicDamage@@QAEHH@Z ; CMagicDamage::SkillGetMana
  00058	f3 0f 2a c0	 cvtsi2ss xmm0, eax
  0005c	f3 0f 10 4d f4	 movss	 xmm1, DWORD PTR _mana$[ebp]
  00061	f3 0f 5c c8	 subss	 xmm1, xmm0
  00065	f3 0f 11 4d f4	 movss	 DWORD PTR _mana$[ebp], xmm1

; 519  : 
; 520  : #ifdef ADD_SKILL_ADDITION_INFO_CLASS_20060407
; 521  : 	// 마나를 추가로 깎는다.
; 522  : 	mana -= GetAddUseMana( lpObj, lpMagic );
; 523  : #endif
; 524  : #endif	// UPDATE_MASTER_LEVEL_4RANK_20080428
; 525  : 	
; 526  : 	// 마나가 없어 사용할 수 없다면 그냥 리턴
; 527  : 	if( mana < 0 ) return -1;

  0006a	0f 57 c0	 xorps	 xmm0, xmm0
  0006d	0f 2f 45 f4	 comiss	 xmm0, DWORD PTR _mana$[ebp]
  00071	76 05		 jbe	 SHORT $LN4@GetUseMana
  00073	83 c8 ff	 or	 eax, -1
  00076	eb 05		 jmp	 SHORT $LN1@GetUseMana
$LN4@GetUseMana:

; 528  : 
; 529  : 	return (int)mana;

  00078	f3 0f 2c 45 f4	 cvttss2si eax, DWORD PTR _mana$[ebp]
$LN1@GetUseMana:

; 530  : }

  0007d	5f		 pop	 edi
  0007e	5e		 pop	 esi
  0007f	5b		 pop	 ebx
  00080	8b e5		 mov	 esp, ebp
  00082	5d		 pop	 ebp
  00083	c2 08 00	 ret	 8
?GetUseMana@CObjUseSkill@@QAEHHPAVCMagicInf@@@Z ENDP	; CObjUseSkill::GetUseMana
_TEXT	ENDS
; Function compile flags: /Odtp /ZI
; File C:\Mu Online\Mu-GS-Webzen-MC-10093\GameServer\ObjUseSkill.cpp
;	COMDAT ?EnableSkill@CObjUseSkill@@QAEHE@Z
_TEXT	SEGMENT
_this$ = -4						; size = 4
_Skill$ = 8						; size = 1
?EnableSkill@CObjUseSkill@@QAEHE@Z PROC			; CObjUseSkill::EnableSkill, COMDAT
; _this$ = ecx

; 340  : {

  00000	55		 push	 ebp
  00001	8b ec		 mov	 ebp, esp
  00003	83 ec 44	 sub	 esp, 68			; 00000044H
  00006	53		 push	 ebx
  00007	56		 push	 esi
  00008	57		 push	 edi
  00009	89 4d fc	 mov	 DWORD PTR _this$[ebp], ecx

; 341  : #ifdef ADD_MASTER_LEVEL_SKILL_SYSTEM_ACTIVE_20080107	// 사용 가능한 스킬인지 판단할 때 마스터레벨 스킬 추가	
; 342  : 	if( g_MasterSkillSystem.CheckMasterLevelSkill( Skill ) )
; 343  : 	{
; 344  : 		int iBaseMLS = g_MasterSkillSystem.GetBaseMasterLevelSkill( Skill );
; 345  : 		if(	iBaseMLS !=	AT_SKILL_ML_STRENGTHEN_MAGICDEFENSE				// 소울바리어 강화
; 346  : 			&& iBaseMLS !=	AT_SKILL_ML_STRENGTHEN_HELL					// 헬파이어 강화
; 347  : 			&& iBaseMLS !=	AT_SKILL_ML_STRENGTHEN_WHEEL_KNIGHT			// 회오리베기 강화1 (기사)
; 348  : 			&& iBaseMLS !=	AT_SKILL_ML_STRENGTHEN_HEALING				// 치료 강화
; 349  : 			&& iBaseMLS !=	AT_SKILL_ML_STRENGTHEN_CROSSBOW				// 다발 강화
; 350  : 			&& iBaseMLS !=	AT_SKILL_ML_STRENGTHEN_WHEEL_MAGUMSA		// 회오리베기 강화2 (마검사)
; 351  : 			&& iBaseMLS !=	AT_SKILL_ML_STRENGTHEN_KNIGHTADDLIFE		// 스웰라이프 강화	
; 352  : 			&& iBaseMLS !=	AT_SKILL_ML_STRENGTHEN_BLAST				// 블래스트 강화
; 353  : 			&& iBaseMLS !=	AT_SKILL_ML_STRENGTHEN_DARKHORSE_ATTACK		// 어스쉐이크 강화
; 354  : 			&& iBaseMLS !=	AT_SKILL_ML_STRENGTHEN_FIREBURST			// 파이어버스트 강화
; 355  : 
; 356  : #ifdef UPDATE_MASTER_LEVEL_4RANK_20080428	// 마스터레벨 4랭크
; 357  : 			&& iBaseMLS !=	AT_SKILL_ML_STRENGTHEN_EVIL					// 악령 강화
; 358  : 			&& iBaseMLS !=	AT_SKILL_ML_STRENGTHEN_EXPICE				// 서든 아이스 강화
; 359  : 			&& iBaseMLS !=	AT_SKILL_ML_STRENGTHEN_STRIKE				// 블로우 강화(기사)
; 360  : 			&& iBaseMLS !=	AT_SKILL_ML_STRENGTHEN_BLOWOFFURY			// 분노의 일격 강화(기사)
; 361  : 			&& iBaseMLS !=	AT_SKILL_ML_STRENGTHEN_DEFENSE				// 방어력 향상
; 362  : 			&& iBaseMLS !=	AT_SKILL_ML_STRENGTHEN_ATTACK				// 공격력 향상	
; 363  : 			&& iBaseMLS !=	AT_SKILL_ML_STRENGTHEN_DEFENSEDOWN			// 블러드 어택 강화
; 364  : 			&& iBaseMLS !=	AT_SKILL_ML_STRENGTHEN_SWORD6				// 파워 슬래쉬 강화
; 365  : 			&& iBaseMLS !=	AT_SKILL_ML_STRENGTHEN_FIRESCREAM			// 파이어 스크림 강화
; 366  : #endif	// UPDATE_MASTER_LEVEL_4RANK_20080428	
; 367  : 			
; 368  : #ifdef UPDATE_MASTER_SKILL_4RANK_ADDITION_20080808
; 369  : 			&& iBaseMLS !=	AT_SKILL_ML_STRENGTHEN_MAGUMSA_EVIL			// 악령 강화(마검사)
; 370  : #endif	// UPDATE_MASTER_SKILL_4RANK_ADDITION_20080808
; 371  : 			)
; 372  : 		{
; 373  : 			return FALSE;
; 374  : 		}
; 375  : 
; 376  : 		return TRUE;		
; 377  : 	}
; 378  : #endif
; 379  : 	
; 380  : 	if( Skill != AT_SKILL_STORM		&&		// 회오리
; 381  : 		Skill != AT_SKILL_EVIL		&&		// 악령
; 382  : 		Skill != AT_SKILL_FLAME		&&		// 불기둥
; 383  : 		Skill != AT_SKILL_HELL		&&		// 헬파이어
; 384  : 		Skill != AT_SKILL_BLAST		&&		// 블래스트
; 385  : 		Skill != AT_SKILL_INFERNO	&&		// 인페르토 
; 386  : 		Skill != AT_SKILL_CROSSBOW	&&		// 다발
; 387  : 		Skill != AT_SKILL_DEVILFIRE &&		// 악의불꽃
; 388  : 		Skill != AT_SKILL_FLASH		&&		// 아쿠아플래쉬
; 389  : 		Skill != AT_SKILL_WHEEL 			// 회오리
; 390  : 
; 391  : #ifdef ADD_SKILL_20031022			
; 392  : 		&& Skill != AT_SKILL_SWORD6	
; 393  : #endif
; 394  : 
; 395  : #ifdef NEW_SKILL_FORSKYLAND		
; 396  : 		&& 		
; 397  : 		Skill != AT_SKILL_KNIGHTSPEAR		&&		// 기사창
; 398  : 		Skill != AT_SKILL_KNIGHTADDLIFE		&&		// 기사생명력
; 399  : 		Skill != AT_SKILL_STRIKE			&& 		// 일대일
; 400  : 		Skill != AT_SKILL_KNIGHTDINORANT	&& 		// 디노란트 공격		
; 401  : 
; 402  : 		Skill != AT_SKILL_ELFHARDEN			&&		// 석화
; 403  : 		Skill != AT_SKILL_PENETRATION		&&		// 관통		
; 404  : 
; 405  : 		Skill != AT_SKILL_DEFENSEDOWN		&& 		// 방어감소
; 406  : 		Skill != AT_SKILL_MAGICDEFENSE				// 소울바리어
; 407  : #endif
; 408  : 
; 409  : #ifdef ADD_SKILL_WITH_COMBO
; 410  : 		&& 		
; 411  : 		Skill != AT_SKILL_BLOWOFFURY		&&		// 분노의 일격		
; 412  : 		Skill != AT_SKILL_EXPPOISON			&&		// 확장독
; 413  : 		Skill != AT_SKILL_EXPICE			&&		// 확장아이스
; 414  : 		Skill != AT_SKILL_EXPHELL					// 확장헬파이어
; 415  : #elif GAME_VERSION == G_V_97D
; 416  : 		&& 		
; 417  : 		Skill != AT_SKILL_BLOWOFFURY		&&		// 분노의 일격		
; 418  : 		Skill != AT_SKILL_EXPPOISON			&&		// 확장독
; 419  : 		Skill != AT_SKILL_EXPICE			&&		// 확장아이스
; 420  : 		Skill != AT_SKILL_EXPHELL					// 확장헬파이어
; 421  : #endif
; 422  : 
; 423  : #ifdef DARKLORD_WORK		
; 424  : 		&& Skill != AT_SKILL_ELECTRICSPARK			// 일렉트릭 스파크
; 425  : 		&& Skill != AT_SKILL_DARKHORSE_ATTACK

  0000c	0f b6 45 08	 movzx	 eax, BYTE PTR _Skill$[ebp]
  00010	83 f8 08	 cmp	 eax, 8
  00013	0f 84 04 01 00
	00		 je	 $LN2@EnableSkil
  00019	0f b6 45 08	 movzx	 eax, BYTE PTR _Skill$[ebp]
  0001d	83 f8 09	 cmp	 eax, 9
  00020	0f 84 f7 00 00
	00		 je	 $LN2@EnableSkil
  00026	0f b6 45 08	 movzx	 eax, BYTE PTR _Skill$[ebp]
  0002a	83 f8 05	 cmp	 eax, 5
  0002d	0f 84 ea 00 00
	00		 je	 $LN2@EnableSkil
  00033	0f b6 45 08	 movzx	 eax, BYTE PTR _Skill$[ebp]
  00037	83 f8 0a	 cmp	 eax, 10			; 0000000aH
  0003a	0f 84 dd 00 00
	00		 je	 $LN2@EnableSkil
  00040	0f b6 45 08	 movzx	 eax, BYTE PTR _Skill$[ebp]
  00044	83 f8 0d	 cmp	 eax, 13			; 0000000dH
  00047	0f 84 d0 00 00
	00		 je	 $LN2@EnableSkil
  0004d	0f b6 45 08	 movzx	 eax, BYTE PTR _Skill$[ebp]
  00051	83 f8 0e	 cmp	 eax, 14			; 0000000eH
  00054	0f 84 c3 00 00
	00		 je	 $LN2@EnableSkil
  0005a	0f b6 45 08	 movzx	 eax, BYTE PTR _Skill$[ebp]
  0005e	83 f8 18	 cmp	 eax, 24			; 00000018H
  00061	0f 84 b6 00 00
	00		 je	 $LN2@EnableSkil
  00067	0f b6 45 08	 movzx	 eax, BYTE PTR _Skill$[ebp]
  0006b	83 f8 32	 cmp	 eax, 50			; 00000032H
  0006e	0f 84 a9 00 00
	00		 je	 $LN2@EnableSkil
  00074	0f b6 45 08	 movzx	 eax, BYTE PTR _Skill$[ebp]
  00078	83 f8 0c	 cmp	 eax, 12			; 0000000cH
  0007b	0f 84 9c 00 00
	00		 je	 $LN2@EnableSkil
  00081	0f b6 45 08	 movzx	 eax, BYTE PTR _Skill$[ebp]
  00085	83 f8 29	 cmp	 eax, 41			; 00000029H
  00088	0f 84 8f 00 00
	00		 je	 $LN2@EnableSkil
  0008e	0f b6 45 08	 movzx	 eax, BYTE PTR _Skill$[ebp]
  00092	83 f8 38	 cmp	 eax, 56			; 00000038H
  00095	0f 84 82 00 00
	00		 je	 $LN2@EnableSkil
  0009b	0f b6 45 08	 movzx	 eax, BYTE PTR _Skill$[ebp]
  0009f	83 f8 2f	 cmp	 eax, 47			; 0000002fH
  000a2	74 79		 je	 SHORT $LN2@EnableSkil
  000a4	0f b6 45 08	 movzx	 eax, BYTE PTR _Skill$[ebp]
  000a8	83 f8 30	 cmp	 eax, 48			; 00000030H
  000ab	74 70		 je	 SHORT $LN2@EnableSkil
  000ad	0f b6 45 08	 movzx	 eax, BYTE PTR _Skill$[ebp]
  000b1	83 f8 2b	 cmp	 eax, 43			; 0000002bH
  000b4	74 67		 je	 SHORT $LN2@EnableSkil
  000b6	0f b6 45 08	 movzx	 eax, BYTE PTR _Skill$[ebp]
  000ba	83 f8 31	 cmp	 eax, 49			; 00000031H
  000bd	74 5e		 je	 SHORT $LN2@EnableSkil
  000bf	0f b6 45 08	 movzx	 eax, BYTE PTR _Skill$[ebp]
  000c3	83 f8 33	 cmp	 eax, 51			; 00000033H
  000c6	74 55		 je	 SHORT $LN2@EnableSkil
  000c8	0f b6 45 08	 movzx	 eax, BYTE PTR _Skill$[ebp]
  000cc	83 f8 34	 cmp	 eax, 52			; 00000034H
  000cf	74 4c		 je	 SHORT $LN2@EnableSkil
  000d1	0f b6 45 08	 movzx	 eax, BYTE PTR _Skill$[ebp]
  000d5	83 f8 37	 cmp	 eax, 55			; 00000037H
  000d8	74 43		 je	 SHORT $LN2@EnableSkil
  000da	0f b6 45 08	 movzx	 eax, BYTE PTR _Skill$[ebp]
  000de	83 f8 10	 cmp	 eax, 16			; 00000010H
  000e1	74 3a		 je	 SHORT $LN2@EnableSkil
  000e3	0f b6 45 08	 movzx	 eax, BYTE PTR _Skill$[ebp]
  000e7	83 f8 2a	 cmp	 eax, 42			; 0000002aH
  000ea	74 31		 je	 SHORT $LN2@EnableSkil
  000ec	0f b6 45 08	 movzx	 eax, BYTE PTR _Skill$[ebp]
  000f0	83 f8 26	 cmp	 eax, 38			; 00000026H
  000f3	74 28		 je	 SHORT $LN2@EnableSkil
  000f5	0f b6 45 08	 movzx	 eax, BYTE PTR _Skill$[ebp]
  000f9	83 f8 27	 cmp	 eax, 39			; 00000027H
  000fc	74 1f		 je	 SHORT $LN2@EnableSkil
  000fe	0f b6 45 08	 movzx	 eax, BYTE PTR _Skill$[ebp]
  00102	83 f8 28	 cmp	 eax, 40			; 00000028H
  00105	74 16		 je	 SHORT $LN2@EnableSkil
  00107	0f b6 45 08	 movzx	 eax, BYTE PTR _Skill$[ebp]
  0010b	83 f8 41	 cmp	 eax, 65			; 00000041H
  0010e	74 0d		 je	 SHORT $LN2@EnableSkil
  00110	0f b6 45 08	 movzx	 eax, BYTE PTR _Skill$[ebp]
  00114	83 f8 3e	 cmp	 eax, 62			; 0000003eH
  00117	74 04		 je	 SHORT $LN2@EnableSkil

; 426  : #endif
; 427  : 
; 428  : #ifdef ADD_NEW_SKILL_FOR_CASTLE_01_20041116
; 429  : 		&& Skill != AT_SKILL_BRAND_OF_SKILL			// 다크로드 보조 스킬
; 430  : 		&& Skill != AT_SKILL_STUN					// 스턴
; 431  : 		&& Skill != AT_SKILL_REMOVAL_STUN			// 스턴 해제
; 432  : 		&& Skill != AT_SKILL_ADD_MANA				// 스웰 마나
; 433  : 		&& Skill != AT_SKILL_INVISIBLE				// 투명
; 434  : 		&& Skill != AT_SKILL_REMOVAL_INVISIBLE		// 투명 해제
; 435  : 		&& Skill != AT_SKILL_REMOVAL_MAGIC			// 마법 해제
; 436  : #endif
; 437  : 		
; 438  : #ifdef ADD_ITEM_FENRIR_01_20051110
; 439  : 		&& Skill != AT_SKILL_FENRIR_ATTACK			// 펜릴 스킬 - 플라즈마스톰
; 440  : #endif
; 441  : 
; 442  : #ifdef ADD_SKILL_MUSE_ELF_INFINITYARROW_20060406
; 443  : 		&& Skill != AT_SKILL_INFINITY_ARROW			// 뮤즈엘프 인피니티 애로우
; 444  : #endif
; 445  : 		
; 446  : #ifdef ADD_SKILL_DARKLOAD_FIRESCREAM_20060601		// 다크로드 파이어 스크림 활성화
; 447  : 		&& Skill != AT_SKILL_FIRESCREAM	
; 448  : #endif
; 449  : 
; 450  : #ifdef ADD_SEASON_3_NEW_CHARACTER_SUMMONER_20070912	// 소환술사 스킬
; 451  : 		// 저주
; 452  : 		&& Skill != AT_SKILL_DRAINLIFE				// 드레인라이프
; 453  : 		&& Skill != AT_SKILL_CHAINLIGHTNING			// 체인 라이트닝
; 454  : 		&& Skill != AT_SKILL_LIGHTNINGORB			// 라이트닝오브
; 455  : 		
; 456  : 		&& Skill != AT_SKILL_THORNS					// 쏜즈(데미지반사)
; 457  : 		
; 458  : 		&& Skill != AT_SKILL_SLEEP					// 슬립
; 459  : 		&& Skill != AT_SKILL_BLIND					// 블라인드
; 460  : 		
; 461  : 		// 환수 스킬
; 462  : 		&& Skill != AT_SKILL_EXPLOSION_2			// 익스플로젼
; 463  : 		&& Skill != AT_SKILL_REQUIEM				// 레퀴엠
; 464  : #endif	// ADD_SEASON_3_NEW_CHARACTER_SUMMONER_20070912		
; 465  : 
; 466  : #ifdef UPDATE_SUMMONER_NEW_SKILL_20080111
; 467  : 		&& Skill != AT_SKILL_WEAKNESS				// 위크니스
; 468  : 		&& Skill != AT_SKILL_ENERVATION				// 이너베이션
; 469  : #endif
; 470  : 
; 471  : #ifdef UPDATE_ADD_SUMMONER_SKILL_POLLUTION_20080425
; 472  : 		&& Skill != AT_SKILL_PULLUTION				// 펄루션
; 473  : #endif	// UPDATE_ADD_SUMMONER_SKILL_POLLUTION_20080425		
; 474  : 
; 475  : #ifdef SEASON4_PATCH_GROOVING
; 476  : 		// --->
; 477  : 		// 시즌 4.0 추가 스킬  grooving 2008/04/24
; 478  : 		&& Skill !=	AT_SKILL_LIGHTING_SHOCK			// 라이트닝 쇼크
; 479  : 		&& Skill !=	AT_SKILL_BERSERKER				// 버서커
; 480  : 		// <---
; 481  : #endif
; 482  : 
; 483  : #ifdef ADD_SEASON4_NEW_SKILL_20080522	// 사용 가능스킬
; 484  : 		&& Skill != AT_SKILL_DESTRUCTION			// 파괴의 일격
; 485  : 		&& Skill != AT_SKILL_MAGICPOWRER			// 마력 증가
; 486  : 		&& Skill != AT_SKILL_RECOVERY				// 회복
; 487  : 		&& Skill != AT_SKILL_MULTISHOT				// 멀티샷
; 488  : 		&& Skill != AT_SKILL_FLAMESTRIKE			// 플레임 스트라이크
; 489  : 		&& Skill != AT_SKILL_GIGANTICSTORM			// 기간틱 스톰
; 490  : 		&& Skill != AT_SKILL_CHAOTICDESAIR			// 카오틱 디세이어
; 491  : #endif	// ADD_SEASON4_NEW_SKILL_20080522		
; 492  : 		)
; 493  : 	{
; 494  : 		return FALSE;

  00119	33 c0		 xor	 eax, eax
  0011b	eb 05		 jmp	 SHORT $LN1@EnableSkil
$LN2@EnableSkil:

; 495  : 	}
; 496  : 
; 497  : 	return TRUE;

  0011d	b8 01 00 00 00	 mov	 eax, 1
$LN1@EnableSkil:

; 498  : }

  00122	5f		 pop	 edi
  00123	5e		 pop	 esi
  00124	5b		 pop	 ebx
  00125	8b e5		 mov	 esp, ebp
  00127	5d		 pop	 ebp
  00128	c2 04 00	 ret	 4
?EnableSkill@CObjUseSkill@@QAEHE@Z ENDP			; CObjUseSkill::EnableSkill
_TEXT	ENDS
; Function compile flags: /Odtp /ZI
; File C:\Mu Online\Mu-GS-Webzen-MC-10093\GameServer\ObjUseSkill.cpp
;	COMDAT ?SpeedHackCheck@CObjUseSkill@@QAEHH@Z
_TEXT	SEGMENT
_iTimeCalc$ = -12					; size = 4
_lpObj$ = -8						; size = 4
_this$ = -4						; size = 4
_aIndex$ = 8						; size = 4
?SpeedHackCheck@CObjUseSkill@@QAEHH@Z PROC		; CObjUseSkill::SpeedHackCheck, COMDAT
; _this$ = ecx

; 187  : {

  00000	55		 push	 ebp
  00001	8b ec		 mov	 ebp, esp
  00003	83 ec 4c	 sub	 esp, 76			; 0000004cH
  00006	53		 push	 ebx
  00007	56		 push	 esi
  00008	57		 push	 edi
  00009	89 4d fc	 mov	 DWORD PTR _this$[ebp], ecx

; 188  : 	LPOBJECTSTRUCT lpObj= &gObj[aIndex];

  0000c	69 45 08 a0 1b
	00 00		 imul	 eax, DWORD PTR _aIndex$[ebp], 7072
  00013	03 05 00 00 00
	00		 add	 eax, DWORD PTR ?gObj@@3PAVOBJECTSTRUCT@@A ; gObj
  00019	89 45 f8	 mov	 DWORD PTR _lpObj$[ebp], eax

; 189  : 
; 190  : 	int iTimeCalc = GetTickCount()-lpObj->m_LastAttackTime;

  0001c	ff 15 00 00 00
	00		 call	 DWORD PTR __imp__GetTickCount@0
  00022	8b 4d f8	 mov	 ecx, DWORD PTR _lpObj$[ebp]
  00025	2b 81 c8 01 00
	00		 sub	 eax, DWORD PTR [ecx+456]
  0002b	89 45 f4	 mov	 DWORD PTR _iTimeCalc$[ebp], eax

; 191  : 
; 192  : 	if(lpObj->Type != OBJTYPE_CHARACTER)	// 유저가 아니면, 왜 몬스터를 체크하고 난리야..

  0002e	8b 45 f8	 mov	 eax, DWORD PTR _lpObj$[ebp]
  00031	0f b7 48 64	 movzx	 ecx, WORD PTR [eax+100]
  00035	83 f9 01	 cmp	 ecx, 1
  00038	74 0a		 je	 SHORT $LN2@SpeedHackC

; 193  : 	{
; 194  : 		return(TRUE);

  0003a	b8 01 00 00 00	 mov	 eax, 1
  0003f	e9 e6 01 00 00	 jmp	 $LN1@SpeedHackC
$LN2@SpeedHackC:

; 195  : 	}
; 196  : 
; 197  : /*
; 198  : #ifdef FOR_CHINA
; 199  : 	if( iTimeCalc < lpObj->m_DetectSpeedHackTime ) 
; 200  : #else
; 201  : 	if( iTimeCalc < lpObj->m_DetectSpeedHackTime && iTimeCalc != 0 ) 
; 202  : #endif
; 203  : */
; 204  : 	if( iTimeCalc < lpObj->m_DetectSpeedHackTime ) 

  00044	8b 45 f8	 mov	 eax, DWORD PTR _lpObj$[ebp]
  00047	8b 4d f4	 mov	 ecx, DWORD PTR _iTimeCalc$[ebp]
  0004a	3b 88 d0 01 00
	00		 cmp	 ecx, DWORD PTR [eax+464]
  00050	0f 8d 36 01 00
	00		 jge	 $LN3@SpeedHackC

; 205  : 	{
; 206  : 		lpObj->m_DetectCount++;			

  00056	8b 45 f8	 mov	 eax, DWORD PTR _lpObj$[ebp]
  00059	8b 88 d8 01 00
	00		 mov	 ecx, DWORD PTR [eax+472]
  0005f	83 c1 01	 add	 ecx, 1
  00062	8b 55 f8	 mov	 edx, DWORD PTR _lpObj$[ebp]
  00065	89 8a d8 01 00
	00		 mov	 DWORD PTR [edx+472], ecx

; 207  : 
; 208  : 		lpObj->m_SumLastAttackTime += iTimeCalc;

  0006b	8b 45 f8	 mov	 eax, DWORD PTR _lpObj$[ebp]
  0006e	8b 88 d4 01 00
	00		 mov	 ecx, DWORD PTR [eax+468]
  00074	03 4d f4	 add	 ecx, DWORD PTR _iTimeCalc$[ebp]
  00077	8b 55 f8	 mov	 edx, DWORD PTR _lpObj$[ebp]
  0007a	89 8a d4 01 00
	00		 mov	 DWORD PTR [edx+468], ecx

; 209  : 
; 210  : 		if( lpObj->m_DetectCount > gHackCheckCount )

  00080	8b 45 f8	 mov	 eax, DWORD PTR _lpObj$[ebp]
  00083	8b 88 d8 01 00
	00		 mov	 ecx, DWORD PTR [eax+472]
  00089	3b 0d 00 00 00
	00		 cmp	 ecx, DWORD PTR ?gHackCheckCount@@3KA ; gHackCheckCount
  0008f	0f 86 f5 00 00
	00		 jbe	 $LN5@SpeedHackC

; 211  : 		{
; 212  : 			lpObj->m_DetectedHackKickCount++;

  00095	8b 45 f8	 mov	 eax, DWORD PTR _lpObj$[ebp]
  00098	8b 88 dc 01 00
	00		 mov	 ecx, DWORD PTR [eax+476]
  0009e	83 c1 01	 add	 ecx, 1
  000a1	8b 55 f8	 mov	 edx, DWORD PTR _lpObj$[ebp]
  000a4	89 8a dc 01 00
	00		 mov	 DWORD PTR [edx+476], ecx

; 213  : 			if( gIsKickDetecHackCountLimit ) 

  000aa	83 3d 00 00 00
	00 00		 cmp	 DWORD PTR ?gIsKickDetecHackCountLimit@@3HA, 0 ; gIsKickDetecHackCountLimit
  000b1	74 66		 je	 SHORT $LN6@SpeedHackC

; 214  : 			{
; 215  : 				if( lpObj->m_DetectedHackKickCount > gDetectedHackKickCount )

  000b3	8b 45 f8	 mov	 eax, DWORD PTR _lpObj$[ebp]
  000b6	8b 88 dc 01 00
	00		 mov	 ecx, DWORD PTR [eax+476]
  000bc	3b 0d 00 00 00
	00		 cmp	 ecx, DWORD PTR ?gDetectedHackKickCount@@3HA ; gDetectedHackKickCount
  000c2	7e 55		 jle	 SHORT $LN6@SpeedHackC

; 216  : 				{
; 217  : #ifdef MODIFY_HACKLOG_OF_ATTACK_20050518			
; 218  : 	#ifdef CHINA_HACKUSER_KICK_SYSTEM
; 219  : 					ChinaHackLogFile.Output("[%s][%s] %s Kick DetecHackCountLimit Over User (%d) @%d",
; 220  : 											 lpObj->AccountID, 
; 221  : 											 lpObj->Name, 
; 222  : 											 lMsg.Get(1900+lpObj->Class),
; 223  : 											 lpObj->m_DetectedHackKickCount,
; 224  : 											 lpObj->MapNumber);						     
; 225  : 	#else
; 226  : 					LogAddTD("[%s][%s] %s Kick DetecHackCountLimit Over User (%d) @%d",
; 227  : 							 lpObj->AccountID, 
; 228  : 							 lpObj->Name, 
; 229  : 							 lMsg.Get(1900+lpObj->Class),
; 230  : 							 lpObj->m_DetectedHackKickCount,
; 231  : 							 lpObj->MapNumber);						     					
; 232  : 	#endif
; 233  : #else
; 234  : 	#ifdef CHINA_HACKUSER_KICK_SYSTEM
; 235  : 					ChinaHackLogFile.Output("[%s][%s] %s Kick DetecHackCountLimit Over User (%d)",
; 236  : 											 lpObj->AccountID, 
; 237  : 											 lpObj->Name, 
; 238  : 											 lMsg.Get(1900+lpObj->Class),
; 239  : 											 lpObj->m_DetectedHackKickCount);						     
; 240  : 	#else
; 241  : 					LogAddTD("[%s][%s] %s Kick DetecHackCountLimit Over User (%d)",

  000c4	8b 45 f8	 mov	 eax, DWORD PTR _lpObj$[ebp]
  000c7	8b 88 dc 01 00
	00		 mov	 ecx, DWORD PTR [eax+476]
  000cd	51		 push	 ecx
  000ce	8b 55 f8	 mov	 edx, DWORD PTR _lpObj$[ebp]
  000d1	0f b7 82 9c 00
	00 00		 movzx	 eax, WORD PTR [edx+156]
  000d8	05 6c 07 00 00	 add	 eax, 1900		; 0000076cH
  000dd	50		 push	 eax
  000de	b9 00 00 00 00	 mov	 ecx, OFFSET ?lMsg@@3VCMsg@@A ; lMsg
  000e3	ff 15 00 00 00
	00		 call	 DWORD PTR __imp_?Get@CMsg@@QAEPADH@Z
  000e9	50		 push	 eax
  000ea	8b 4d f8	 mov	 ecx, DWORD PTR _lpObj$[ebp]
  000ed	83 c1 73	 add	 ecx, 115		; 00000073H
  000f0	51		 push	 ecx
  000f1	8b 55 f8	 mov	 edx, DWORD PTR _lpObj$[ebp]
  000f4	83 c2 68	 add	 edx, 104		; 00000068H
  000f7	52		 push	 edx
  000f8	68 00 00 00 00	 push	 OFFSET ??_C@_0DE@ENPGLNLL@?$FL?$CFs?$FN?$FL?$CFs?$FN?5?$CFs?5Kick?5DetecHackCount@
  000fd	ff 15 00 00 00
	00		 call	 DWORD PTR ?LogAddTD@@3P6AXPADZZA ; LogAddTD
  00103	83 c4 14	 add	 esp, 20			; 00000014H

; 242  : 							 lpObj->AccountID, 
; 243  : 							 lpObj->Name, 
; 244  : 							 lMsg.Get(1900+lpObj->Class),
; 245  : 							 lpObj->m_DetectedHackKickCount);						     					
; 246  : 	#endif
; 247  : #endif
; 248  : 					CloseClient(aIndex);

  00106	8b 45 08	 mov	 eax, DWORD PTR _aIndex$[ebp]
  00109	50		 push	 eax
  0010a	e8 00 00 00 00	 call	 ?CloseClient@@YAXH@Z	; CloseClient
  0010f	83 c4 04	 add	 esp, 4

; 249  : 					return FALSE;

  00112	33 c0		 xor	 eax, eax
  00114	e9 11 01 00 00	 jmp	 $LN1@SpeedHackC
$LN6@SpeedHackC:

; 250  : 				}
; 251  : 			}
; 252  : 
; 253  : 			lpObj->m_SpeedHackPenalty = gSpeedHackPenalty;

  00119	8b 45 f8	 mov	 eax, DWORD PTR _lpObj$[ebp]
  0011c	8b 0d 00 00 00
	00		 mov	 ecx, DWORD PTR ?gSpeedHackPenalty@@3HA ; gSpeedHackPenalty
  00122	89 88 e0 01 00
	00		 mov	 DWORD PTR [eax+480], ecx

; 254  : 
; 255  : 
; 256  : #ifdef MODIFY_HACKLOG_OF_ATTACK_20050518
; 257  : 	#ifdef CHINA_HACKUSER_KICK_SYSTEM
; 258  : 			ChinaHackLogFile.Output("[%s][%s] %s Attack Speed Is Wrong MagicSkill (%d)(%d) Penalty %d @%d", 
; 259  : 									 lpObj->AccountID, 
; 260  : 									 lpObj->Name, 
; 261  : 									 lMsg.Get(1900+lpObj->Class),
; 262  : 									 lpObj->m_DetectSpeedHackTime,
; 263  : 									 lpObj->m_SumLastAttackTime/lpObj->m_DetectCount,
; 264  : 									 lpObj->m_SpeedHackPenalty,
; 265  : 									 lpObj->MapNumber);
; 266  : 			ChinaHackUserKick.InsertSpeedNCount(lpObj->m_Index);
; 267  : 	#else
; 268  : 			LogAddTD("[%s][%s] %s Attack Speed Is Wrong MagicSkill (%d)(%d) Penalty %d @%d", 
; 269  : 					 lpObj->AccountID, 
; 270  : 					 lpObj->Name, 
; 271  : 					 lMsg.Get(1900+lpObj->Class),
; 272  : 					 lpObj->m_DetectSpeedHackTime,
; 273  : 					 lpObj->m_SumLastAttackTime/lpObj->m_DetectCount,
; 274  : 					 lpObj->m_SpeedHackPenalty,
; 275  : 					 lpObj->MapNumber);
; 276  : 	#endif
; 277  : #else
; 278  : 	#ifdef CHINA_HACKUSER_KICK_SYSTEM
; 279  : 			ChinaHackLogFile.Output("[%s][%s] %s Attack Speed Is Wrong MagicSkill (%d)(%d) Penalty %d", 
; 280  : 									 lpObj->AccountID, 
; 281  : 									 lpObj->Name, 
; 282  : 									 lMsg.Get(1900+lpObj->Class),
; 283  : 									 lpObj->m_DetectSpeedHackTime,
; 284  : 									 lpObj->m_SumLastAttackTime/lpObj->m_DetectCount,
; 285  : 									 lpObj->m_SpeedHackPenalty);
; 286  : 			ChinaHackUserKick.InsertSpeedNCount(lpObj->m_Index);
; 287  : 	#else
; 288  : 			LogAddTD("[%s][%s] %s Attack Speed Is Wrong MagicSkill (%d)(%d) Penalty %d", 

  00128	8b 45 f8	 mov	 eax, DWORD PTR _lpObj$[ebp]
  0012b	8b 88 e0 01 00
	00		 mov	 ecx, DWORD PTR [eax+480]
  00131	51		 push	 ecx
  00132	8b 55 f8	 mov	 edx, DWORD PTR _lpObj$[ebp]
  00135	8b 4d f8	 mov	 ecx, DWORD PTR _lpObj$[ebp]
  00138	8b 82 d4 01 00
	00		 mov	 eax, DWORD PTR [edx+468]
  0013e	33 d2		 xor	 edx, edx
  00140	f7 b1 d8 01 00
	00		 div	 DWORD PTR [ecx+472]
  00146	50		 push	 eax
  00147	8b 55 f8	 mov	 edx, DWORD PTR _lpObj$[ebp]
  0014a	8b 82 d0 01 00
	00		 mov	 eax, DWORD PTR [edx+464]
  00150	50		 push	 eax
  00151	8b 4d f8	 mov	 ecx, DWORD PTR _lpObj$[ebp]
  00154	0f b7 91 9c 00
	00 00		 movzx	 edx, WORD PTR [ecx+156]
  0015b	81 c2 6c 07 00
	00		 add	 edx, 1900		; 0000076cH
  00161	52		 push	 edx
  00162	b9 00 00 00 00	 mov	 ecx, OFFSET ?lMsg@@3VCMsg@@A ; lMsg
  00167	ff 15 00 00 00
	00		 call	 DWORD PTR __imp_?Get@CMsg@@QAEPADH@Z
  0016d	50		 push	 eax
  0016e	8b 45 f8	 mov	 eax, DWORD PTR _lpObj$[ebp]
  00171	83 c0 73	 add	 eax, 115		; 00000073H
  00174	50		 push	 eax
  00175	8b 4d f8	 mov	 ecx, DWORD PTR _lpObj$[ebp]
  00178	83 c1 68	 add	 ecx, 104		; 00000068H
  0017b	51		 push	 ecx
  0017c	68 00 00 00 00	 push	 OFFSET ??_C@_0EB@KGCLNBNA@?$FL?$CFs?$FN?$FL?$CFs?$FN?5?$CFs?5Attack?5Speed?5Is?5Wro@
  00181	ff 15 00 00 00
	00		 call	 DWORD PTR ?LogAddTD@@3P6AXPADZZA ; LogAddTD
  00187	83 c4 1c	 add	 esp, 28			; 0000001cH
$LN5@SpeedHackC:

; 289  : 					 lpObj->AccountID, 
; 290  : 					 lpObj->Name, 
; 291  : 					 lMsg.Get(1900+lpObj->Class),
; 292  : 					 lpObj->m_DetectSpeedHackTime,
; 293  : 					 lpObj->m_SumLastAttackTime/lpObj->m_DetectCount,
; 294  : 					 lpObj->m_SpeedHackPenalty);
; 295  : 	#endif
; 296  : #endif
; 297  : 		}
; 298  : 		//lpObj->m_LastAttackTime = GetTickCount();
; 299  : 	}

  0018a	eb 1a		 jmp	 SHORT $LN4@SpeedHackC
$LN3@SpeedHackC:

; 300  : 	else
; 301  : 	{
; 302  : 		lpObj->m_SumLastAttackTime = 0;

  0018c	8b 45 f8	 mov	 eax, DWORD PTR _lpObj$[ebp]
  0018f	c7 80 d4 01 00
	00 00 00 00 00	 mov	 DWORD PTR [eax+468], 0

; 303  : 		lpObj->m_DetectCount = 0;

  00199	8b 45 f8	 mov	 eax, DWORD PTR _lpObj$[ebp]
  0019c	c7 80 d8 01 00
	00 00 00 00 00	 mov	 DWORD PTR [eax+472], 0
$LN4@SpeedHackC:

; 304  : 	}
; 305  : 	lpObj->m_LastAttackTime = GetTickCount();

  001a6	ff 15 00 00 00
	00		 call	 DWORD PTR __imp__GetTickCount@0
  001ac	8b 4d f8	 mov	 ecx, DWORD PTR _lpObj$[ebp]
  001af	89 81 c8 01 00
	00		 mov	 DWORD PTR [ecx+456], eax

; 306  : 	//LogAdd("Normal Magic2 Attack Speed = [%d,%d] %d", lpObj->m_AttackSpeed, lpObj->m_MagicSpeed, iTimeCalc);
; 307  : 
; 308  : 	if( bIsIgnorePacketSpeedHackDetect )

  001b5	83 3d 00 00 00
	00 00		 cmp	 DWORD PTR ?bIsIgnorePacketSpeedHackDetect@@3HA, 0 ; bIsIgnorePacketSpeedHackDetect
  001bc	74 67		 je	 SHORT $LN8@SpeedHackC

; 309  : 	{
; 310  : 		if( lpObj->m_SpeedHackPenalty > 0 )

  001be	8b 45 f8	 mov	 eax, DWORD PTR _lpObj$[ebp]
  001c1	83 b8 e0 01 00
	00 00		 cmp	 DWORD PTR [eax+480], 0
  001c8	7e 5b		 jle	 SHORT $LN8@SpeedHackC

; 311  : 		{
; 312  : 			lpObj->m_SpeedHackPenalty--;

  001ca	8b 45 f8	 mov	 eax, DWORD PTR _lpObj$[ebp]
  001cd	8b 88 e0 01 00
	00		 mov	 ecx, DWORD PTR [eax+480]
  001d3	83 e9 01	 sub	 ecx, 1
  001d6	8b 55 f8	 mov	 edx, DWORD PTR _lpObj$[ebp]
  001d9	89 8a e0 01 00
	00		 mov	 DWORD PTR [edx+480], ecx

; 313  : 
; 314  : #ifdef MODIFY_HACKLOG_OF_ATTACK_20050518
; 315  : 			LogAddTD("[%s][%s] %s Apply Attack Speed Penalty (%d left) @%d", 
; 316  : 					  lpObj->AccountID, 
; 317  : 					  lpObj->Name, 
; 318  : 					  lMsg.Get(1900+lpObj->Class),
; 319  : 					  lpObj->m_SpeedHackPenalty,
; 320  : 					  lpObj->MapNumber);	
; 321  : #else
; 322  : 			LogAddTD("[%s][%s] %s Apply Attack Speed Penalty (%d left)", 

  001df	8b 45 f8	 mov	 eax, DWORD PTR _lpObj$[ebp]
  001e2	8b 88 e0 01 00
	00		 mov	 ecx, DWORD PTR [eax+480]
  001e8	51		 push	 ecx
  001e9	8b 55 f8	 mov	 edx, DWORD PTR _lpObj$[ebp]
  001ec	0f b7 82 9c 00
	00 00		 movzx	 eax, WORD PTR [edx+156]
  001f3	05 6c 07 00 00	 add	 eax, 1900		; 0000076cH
  001f8	50		 push	 eax
  001f9	b9 00 00 00 00	 mov	 ecx, OFFSET ?lMsg@@3VCMsg@@A ; lMsg
  001fe	ff 15 00 00 00
	00		 call	 DWORD PTR __imp_?Get@CMsg@@QAEPADH@Z
  00204	50		 push	 eax
  00205	8b 4d f8	 mov	 ecx, DWORD PTR _lpObj$[ebp]
  00208	83 c1 73	 add	 ecx, 115		; 00000073H
  0020b	51		 push	 ecx
  0020c	8b 55 f8	 mov	 edx, DWORD PTR _lpObj$[ebp]
  0020f	83 c2 68	 add	 edx, 104		; 00000068H
  00212	52		 push	 edx
  00213	68 00 00 00 00	 push	 OFFSET ??_C@_0DB@JJPLIMIC@?$FL?$CFs?$FN?$FL?$CFs?$FN?5?$CFs?5Apply?5Attack?5Speed?5@
  00218	ff 15 00 00 00
	00		 call	 DWORD PTR ?LogAddTD@@3P6AXPADZZA ; LogAddTD
  0021e	83 c4 14	 add	 esp, 20			; 00000014H

; 323  : 					  lpObj->AccountID, 
; 324  : 					  lpObj->Name, 
; 325  : 					  lMsg.Get(1900+lpObj->Class),
; 326  : 					  lpObj->m_SpeedHackPenalty);		
; 327  : #endif
; 328  : 			return FALSE;

  00221	33 c0		 xor	 eax, eax
  00223	eb 05		 jmp	 SHORT $LN1@SpeedHackC
$LN8@SpeedHackC:

; 329  : 		}
; 330  : 	}
; 331  : 	
; 332  : 	return TRUE;

  00225	b8 01 00 00 00	 mov	 eax, 1
$LN1@SpeedHackC:

; 333  : }

  0022a	5f		 pop	 edi
  0022b	5e		 pop	 esi
  0022c	5b		 pop	 ebx
  0022d	8b e5		 mov	 esp, ebp
  0022f	5d		 pop	 ebp
  00230	c2 04 00	 ret	 4
?SpeedHackCheck@CObjUseSkill@@QAEHH@Z ENDP		; CObjUseSkill::SpeedHackCheck
_TEXT	ENDS
; Function compile flags: /Odtp /ZI
; File C:\Mu Online\Mu-GS-Webzen-MC-10093\GameServer\ObjUseSkill.cpp
;	COMDAT ??1CObjUseSkill@@UAE@XZ
_TEXT	SEGMENT
_this$ = -4						; size = 4
??1CObjUseSkill@@UAE@XZ PROC				; CObjUseSkill::~CObjUseSkill, COMDAT
; _this$ = ecx

; 81   : {

  00000	55		 push	 ebp
  00001	8b ec		 mov	 ebp, esp
  00003	83 ec 44	 sub	 esp, 68			; 00000044H
  00006	53		 push	 ebx
  00007	56		 push	 esi
  00008	57		 push	 edi
  00009	89 4d fc	 mov	 DWORD PTR _this$[ebp], ecx
  0000c	8b 45 fc	 mov	 eax, DWORD PTR _this$[ebp]
  0000f	c7 00 00 00 00
	00		 mov	 DWORD PTR [eax], OFFSET ??_7CObjUseSkill@@6B@

; 82   : 
; 83   : }

  00015	5f		 pop	 edi
  00016	5e		 pop	 esi
  00017	5b		 pop	 ebx
  00018	8b e5		 mov	 esp, ebp
  0001a	5d		 pop	 ebp
  0001b	c3		 ret	 0
??1CObjUseSkill@@UAE@XZ ENDP				; CObjUseSkill::~CObjUseSkill
_TEXT	ENDS
; Function compile flags: /Odtp /ZI
; File C:\Mu Online\Mu-GS-Webzen-MC-10093\GameServer\ObjUseSkill.cpp
;	COMDAT ??0CObjUseSkill@@QAE@XZ
_TEXT	SEGMENT
_this$ = -4						; size = 4
??0CObjUseSkill@@QAE@XZ PROC				; CObjUseSkill::CObjUseSkill, COMDAT
; _this$ = ecx

; 76   : {

  00000	55		 push	 ebp
  00001	8b ec		 mov	 ebp, esp
  00003	83 ec 44	 sub	 esp, 68			; 00000044H
  00006	53		 push	 ebx
  00007	56		 push	 esi
  00008	57		 push	 edi
  00009	89 4d fc	 mov	 DWORD PTR _this$[ebp], ecx
  0000c	8b 45 fc	 mov	 eax, DWORD PTR _this$[ebp]
  0000f	c7 00 00 00 00
	00		 mov	 DWORD PTR [eax], OFFSET ??_7CObjUseSkill@@6B@

; 77   : 
; 78   : }

  00015	8b 45 fc	 mov	 eax, DWORD PTR _this$[ebp]
  00018	5f		 pop	 edi
  00019	5e		 pop	 esi
  0001a	5b		 pop	 ebx
  0001b	8b e5		 mov	 esp, ebp
  0001d	5d		 pop	 ebp
  0001e	c3		 ret	 0
??0CObjUseSkill@@QAE@XZ ENDP				; CObjUseSkill::CObjUseSkill
_TEXT	ENDS
; Function compile flags: /Odtp /ZI
; File C:\Program Files (x86)\Microsoft Visual Studio\2019\Community\VC\Tools\MSVC\14.27.29110\include\cmath
;	COMDAT ?sqrt@@YAMM@Z
_TEXT	SEGMENT
__Xx$ = 8						; size = 4
?sqrt@@YAMM@Z PROC					; sqrt, COMDAT

; 242  : _NODISCARD _Check_return_ inline float sqrt(_In_ float _Xx) noexcept /* strengthened */ {

  00000	55		 push	 ebp
  00001	8b ec		 mov	 ebp, esp
  00003	83 ec 40	 sub	 esp, 64			; 00000040H
  00006	53		 push	 ebx
  00007	56		 push	 esi
  00008	57		 push	 edi

; 243  :     return _CSTD sqrtf(_Xx);

  00009	51		 push	 ecx
  0000a	f3 0f 10 45 08	 movss	 xmm0, DWORD PTR __Xx$[ebp]
  0000f	f3 0f 11 04 24	 movss	 DWORD PTR [esp], xmm0
  00014	e8 00 00 00 00	 call	 _sqrtf
  00019	83 c4 04	 add	 esp, 4

; 244  : }

  0001c	5f		 pop	 edi
  0001d	5e		 pop	 esi
  0001e	5b		 pop	 ebx
  0001f	8b e5		 mov	 esp, ebp
  00021	5d		 pop	 ebp
  00022	c3		 ret	 0
?sqrt@@YAMM@Z ENDP					; sqrt
_TEXT	ENDS
; Function compile flags: /Odtp /ZI
; File C:\Program Files (x86)\Windows Kits\10\Include\10.0.18362.0\ucrt\corecrt_math.h
;	COMDAT _sqrtf
_TEXT	SEGMENT
tv71 = -68						; size = 4
__X$ = 8						; size = 4
_sqrtf	PROC						; COMDAT

; 759  :         {

  00000	55		 push	 ebp
  00001	8b ec		 mov	 ebp, esp
  00003	83 ec 44	 sub	 esp, 68			; 00000044H
  00006	53		 push	 ebx
  00007	56		 push	 esi
  00008	57		 push	 edi

; 760  :             return (float)sqrt(_X);

  00009	f3 0f 5a 45 08	 cvtss2sd xmm0, DWORD PTR __X$[ebp]
  0000e	83 ec 08	 sub	 esp, 8
  00011	f2 0f 11 04 24	 movsd	 QWORD PTR [esp], xmm0
  00016	e8 00 00 00 00	 call	 _sqrt
  0001b	83 c4 08	 add	 esp, 8
  0001e	d9 5d bc	 fstp	 DWORD PTR tv71[ebp]
  00021	d9 45 bc	 fld	 DWORD PTR tv71[ebp]

; 761  :         }

  00024	5f		 pop	 edi
  00025	5e		 pop	 esi
  00026	5b		 pop	 ebx
  00027	8b e5		 mov	 esp, ebp
  00029	5d		 pop	 ebp
  0002a	c3		 ret	 0
_sqrtf	ENDP
_TEXT	ENDS
; Function compile flags: /Odtp /ZI
; File C:\Mu Online\Mu-GS-Webzen-MC-10093\GameServer\ObjUseSkill.cpp
;	COMDAT ?__empty_global_delete@@YAXPAXI@Z
_TEXT	SEGMENT
___formal$ = 8						; size = 4
___formal$ = 12						; size = 4
?__empty_global_delete@@YAXPAXI@Z PROC			; __empty_global_delete, COMDAT

  00000	55		 push	 ebp
  00001	8b ec		 mov	 ebp, esp
  00003	83 ec 40	 sub	 esp, 64			; 00000040H
  00006	53		 push	 ebx
  00007	56		 push	 esi
  00008	57		 push	 edi
  00009	5f		 pop	 edi
  0000a	5e		 pop	 esi
  0000b	5b		 pop	 ebx
  0000c	8b e5		 mov	 esp, ebp
  0000e	5d		 pop	 ebp
  0000f	c3		 ret	 0
?__empty_global_delete@@YAXPAXI@Z ENDP			; __empty_global_delete
_TEXT	ENDS
; Function compile flags: /Odtp /ZI
; File C:\Mu Online\Mu-GS-Webzen-MC-10093\GameServer\ObjUseSkill.cpp
;	COMDAT ?__empty_global_delete@@YAXPAX@Z
_TEXT	SEGMENT
___formal$ = 8						; size = 4
?__empty_global_delete@@YAXPAX@Z PROC			; __empty_global_delete, COMDAT

  00000	55		 push	 ebp
  00001	8b ec		 mov	 ebp, esp
  00003	83 ec 40	 sub	 esp, 64			; 00000040H
  00006	53		 push	 ebx
  00007	56		 push	 esi
  00008	57		 push	 edi
  00009	5f		 pop	 edi
  0000a	5e		 pop	 esi
  0000b	5b		 pop	 ebx
  0000c	8b e5		 mov	 esp, ebp
  0000e	5d		 pop	 ebp
  0000f	c3		 ret	 0
?__empty_global_delete@@YAXPAX@Z ENDP			; __empty_global_delete
_TEXT	ENDS
END
