; Listing generated by Microsoft (R) Optimizing Compiler Version 19.27.29111.0 

	TITLE	C:\Mu Online\Mu-GS-Webzen-MC-10093\GameServer\PacketStatistics.cpp
	.686P
	.XMM
	include listing.inc
	.model	flat

INCLUDELIB LIBCMT
INCLUDELIB OLDNAMES

PUBLIC	?__empty_global_delete@@YAXPAX@Z		; __empty_global_delete
PUBLIC	?__empty_global_delete@@YAXPAXI@Z		; __empty_global_delete
PUBLIC	??0Timer@@QAE@_N@Z				; Timer::Timer
PUBLIC	??1Timer@@QAE@XZ				; Timer::~Timer
PUBLIC	?Init@Timer@@QAEXXZ				; Timer::Init
PUBLIC	?IsWake@Timer@@QAE_NXZ				; Timer::IsWake
PUBLIC	?SetTimer@Timer@@QAEXK@Z			; Timer::SetTimer
PUBLIC	??0PacketStatistics@@QAE@XZ			; PacketStatistics::PacketStatistics
PUBLIC	??1PacketStatistics@@QAE@XZ			; PacketStatistics::~PacketStatistics
PUBLIC	?Init@PacketStatistics@@QAEXK@Z			; PacketStatistics::Init
PUBLIC	?Process@PacketStatistics@@QAE?AW4PROCESS_RETURN@1@XZ ; PacketStatistics::Process
PUBLIC	?AddPacketInfo@PacketStatistics@@QAEX_NI@Z	; PacketStatistics::AddPacketInfo
PUBLIC	?GetStatistics@PacketStatistics@@QAEXAAH0AAI@Z	; PacketStatistics::GetStatistics
EXTRN	__imp__GetTickCount@0:PROC
; Function compile flags: /Odtp /ZI
; File C:\Mu Online\Mu-GS-Webzen-MC-10093\GameServer\PacketStatistics.cpp
;	COMDAT ?GetStatistics@PacketStatistics@@QAEXAAH0AAI@Z
_TEXT	SEGMENT
_this$ = -4						; size = 4
_iOutPacketCount$ = 8					; size = 4
_iOutEncryptPacketCount$ = 12				; size = 4
_iOutPacketTotalSize$ = 16				; size = 4
?GetStatistics@PacketStatistics@@QAEXAAH0AAI@Z PROC	; PacketStatistics::GetStatistics, COMDAT
; _this$ = ecx

; 91   : {

  00000	55		 push	 ebp
  00001	8b ec		 mov	 ebp, esp
  00003	83 ec 44	 sub	 esp, 68			; 00000044H
  00006	53		 push	 ebx
  00007	56		 push	 esi
  00008	57		 push	 edi
  00009	89 4d fc	 mov	 DWORD PTR _this$[ebp], ecx

; 92   : 	iOutPacketCount			= m_iPacketCount;

  0000c	8b 45 08	 mov	 eax, DWORD PTR _iOutPacketCount$[ebp]
  0000f	8b 4d fc	 mov	 ecx, DWORD PTR _this$[ebp]
  00012	8b 51 0c	 mov	 edx, DWORD PTR [ecx+12]
  00015	89 10		 mov	 DWORD PTR [eax], edx

; 93   : 	iOutEncryptPacketCount	= m_iEncryptPacketCount;

  00017	8b 45 0c	 mov	 eax, DWORD PTR _iOutEncryptPacketCount$[ebp]
  0001a	8b 4d fc	 mov	 ecx, DWORD PTR _this$[ebp]
  0001d	8b 51 10	 mov	 edx, DWORD PTR [ecx+16]
  00020	89 10		 mov	 DWORD PTR [eax], edx

; 94   : 	iOutPacketTotalSize		= m_iPacketTotalSize;

  00022	8b 45 10	 mov	 eax, DWORD PTR _iOutPacketTotalSize$[ebp]
  00025	8b 4d fc	 mov	 ecx, DWORD PTR _this$[ebp]
  00028	8b 51 14	 mov	 edx, DWORD PTR [ecx+20]
  0002b	89 10		 mov	 DWORD PTR [eax], edx

; 95   : }

  0002d	5f		 pop	 edi
  0002e	5e		 pop	 esi
  0002f	5b		 pop	 ebx
  00030	8b e5		 mov	 esp, ebp
  00032	5d		 pop	 ebp
  00033	c2 0c 00	 ret	 12			; 0000000cH
?GetStatistics@PacketStatistics@@QAEXAAH0AAI@Z ENDP	; PacketStatistics::GetStatistics
_TEXT	ENDS
; Function compile flags: /Odtp /ZI
; File C:\Mu Online\Mu-GS-Webzen-MC-10093\GameServer\PacketStatistics.cpp
;	COMDAT ?AddPacketInfo@PacketStatistics@@QAEX_NI@Z
_TEXT	SEGMENT
_this$ = -4						; size = 4
_bEncrypt$ = 8						; size = 1
_iPackSize$ = 12					; size = 4
?AddPacketInfo@PacketStatistics@@QAEX_NI@Z PROC		; PacketStatistics::AddPacketInfo, COMDAT
; _this$ = ecx

; 83   : {

  00000	55		 push	 ebp
  00001	8b ec		 mov	 ebp, esp
  00003	83 ec 44	 sub	 esp, 68			; 00000044H
  00006	53		 push	 ebx
  00007	56		 push	 esi
  00008	57		 push	 edi
  00009	89 4d fc	 mov	 DWORD PTR _this$[ebp], ecx

; 84   : 	m_iPacketCount++;

  0000c	8b 45 fc	 mov	 eax, DWORD PTR _this$[ebp]
  0000f	8b 48 0c	 mov	 ecx, DWORD PTR [eax+12]
  00012	83 c1 01	 add	 ecx, 1
  00015	8b 55 fc	 mov	 edx, DWORD PTR _this$[ebp]
  00018	89 4a 0c	 mov	 DWORD PTR [edx+12], ecx

; 85   : 	m_iPacketTotalSize += iPackSize;

  0001b	8b 45 fc	 mov	 eax, DWORD PTR _this$[ebp]
  0001e	8b 48 14	 mov	 ecx, DWORD PTR [eax+20]
  00021	03 4d 0c	 add	 ecx, DWORD PTR _iPackSize$[ebp]
  00024	8b 55 fc	 mov	 edx, DWORD PTR _this$[ebp]
  00027	89 4a 14	 mov	 DWORD PTR [edx+20], ecx

; 86   : 
; 87   : 	if(bEncrypt == true) m_iEncryptPacketCount++;

  0002a	0f b6 45 08	 movzx	 eax, BYTE PTR _bEncrypt$[ebp]
  0002e	83 f8 01	 cmp	 eax, 1
  00031	75 0f		 jne	 SHORT $LN1@AddPacketI
  00033	8b 45 fc	 mov	 eax, DWORD PTR _this$[ebp]
  00036	8b 48 10	 mov	 ecx, DWORD PTR [eax+16]
  00039	83 c1 01	 add	 ecx, 1
  0003c	8b 55 fc	 mov	 edx, DWORD PTR _this$[ebp]
  0003f	89 4a 10	 mov	 DWORD PTR [edx+16], ecx
$LN1@AddPacketI:

; 88   : }

  00042	5f		 pop	 edi
  00043	5e		 pop	 esi
  00044	5b		 pop	 ebx
  00045	8b e5		 mov	 esp, ebp
  00047	5d		 pop	 ebp
  00048	c2 08 00	 ret	 8
?AddPacketInfo@PacketStatistics@@QAEX_NI@Z ENDP		; PacketStatistics::AddPacketInfo
_TEXT	ENDS
; Function compile flags: /Odtp /ZI
; File C:\Mu Online\Mu-GS-Webzen-MC-10093\GameServer\PacketStatistics.cpp
;	COMDAT ?Process@PacketStatistics@@QAE?AW4PROCESS_RETURN@1@XZ
_TEXT	SEGMENT
_this$ = -4						; size = 4
?Process@PacketStatistics@@QAE?AW4PROCESS_RETURN@1@XZ PROC ; PacketStatistics::Process, COMDAT
; _this$ = ecx

; 71   : {

  00000	55		 push	 ebp
  00001	8b ec		 mov	 ebp, esp
  00003	83 ec 44	 sub	 esp, 68			; 00000044H
  00006	53		 push	 ebx
  00007	56		 push	 esi
  00008	57		 push	 edi
  00009	89 4d fc	 mov	 DWORD PTR _this$[ebp], ecx

; 72   : 	if(m_kTimer.IsWake() == true)

  0000c	8b 4d fc	 mov	 ecx, DWORD PTR _this$[ebp]
  0000f	e8 00 00 00 00	 call	 ?IsWake@Timer@@QAE_NXZ	; Timer::IsWake
  00014	0f b6 c0	 movzx	 eax, al
  00017	83 f8 01	 cmp	 eax, 1
  0001a	75 16		 jne	 SHORT $LN2@Process

; 73   : 	{
; 74   : 		Init(m_iCheckDuration);

  0001c	8b 45 fc	 mov	 eax, DWORD PTR _this$[ebp]
  0001f	8b 48 08	 mov	 ecx, DWORD PTR [eax+8]
  00022	51		 push	 ecx
  00023	8b 4d fc	 mov	 ecx, DWORD PTR _this$[ebp]
  00026	e8 00 00 00 00	 call	 ?Init@PacketStatistics@@QAEXK@Z ; PacketStatistics::Init

; 75   : 
; 76   : 		return(PS_RESET);

  0002b	b8 02 00 00 00	 mov	 eax, 2
  00030	eb 05		 jmp	 SHORT $LN1@Process
$LN2@Process:

; 77   : 	}
; 78   : 
; 79   : 	return(PS_NORMAL);

  00032	b8 01 00 00 00	 mov	 eax, 1
$LN1@Process:

; 80   : }

  00037	5f		 pop	 edi
  00038	5e		 pop	 esi
  00039	5b		 pop	 ebx
  0003a	8b e5		 mov	 esp, ebp
  0003c	5d		 pop	 ebp
  0003d	c3		 ret	 0
?Process@PacketStatistics@@QAE?AW4PROCESS_RETURN@1@XZ ENDP ; PacketStatistics::Process
_TEXT	ENDS
; Function compile flags: /Odtp /ZI
; File C:\Mu Online\Mu-GS-Webzen-MC-10093\GameServer\PacketStatistics.cpp
;	COMDAT ?Init@PacketStatistics@@QAEXK@Z
_TEXT	SEGMENT
_this$ = -4						; size = 4
_iCheckDuration$ = 8					; size = 4
?Init@PacketStatistics@@QAEXK@Z PROC			; PacketStatistics::Init, COMDAT
; _this$ = ecx

; 55   : {

  00000	55		 push	 ebp
  00001	8b ec		 mov	 ebp, esp
  00003	83 ec 44	 sub	 esp, 68			; 00000044H
  00006	53		 push	 ebx
  00007	56		 push	 esi
  00008	57		 push	 edi
  00009	89 4d fc	 mov	 DWORD PTR _this$[ebp], ecx

; 56   : 	m_iCheckDuration		= iCheckDuration;

  0000c	8b 45 fc	 mov	 eax, DWORD PTR _this$[ebp]
  0000f	8b 4d 08	 mov	 ecx, DWORD PTR _iCheckDuration$[ebp]
  00012	89 48 08	 mov	 DWORD PTR [eax+8], ecx

; 57   : 
; 58   : 	m_iPacketCount			= 0;

  00015	8b 45 fc	 mov	 eax, DWORD PTR _this$[ebp]
  00018	c7 40 0c 00 00
	00 00		 mov	 DWORD PTR [eax+12], 0

; 59   : 	m_iEncryptPacketCount	= 0;

  0001f	8b 45 fc	 mov	 eax, DWORD PTR _this$[ebp]
  00022	c7 40 10 00 00
	00 00		 mov	 DWORD PTR [eax+16], 0

; 60   : 	m_iPacketTotalSize		= 0;

  00029	8b 45 fc	 mov	 eax, DWORD PTR _this$[ebp]
  0002c	c7 40 14 00 00
	00 00		 mov	 DWORD PTR [eax+20], 0

; 61   : 
; 62   : 	m_kTimer.Init();

  00033	8b 4d fc	 mov	 ecx, DWORD PTR _this$[ebp]
  00036	e8 00 00 00 00	 call	 ?Init@Timer@@QAEXXZ	; Timer::Init

; 63   : 	m_kTimer.SetTimer(m_iCheckDuration);

  0003b	8b 45 fc	 mov	 eax, DWORD PTR _this$[ebp]
  0003e	8b 48 08	 mov	 ecx, DWORD PTR [eax+8]
  00041	51		 push	 ecx
  00042	8b 4d fc	 mov	 ecx, DWORD PTR _this$[ebp]
  00045	e8 00 00 00 00	 call	 ?SetTimer@Timer@@QAEXK@Z ; Timer::SetTimer

; 64   : }

  0004a	5f		 pop	 edi
  0004b	5e		 pop	 esi
  0004c	5b		 pop	 ebx
  0004d	8b e5		 mov	 esp, ebp
  0004f	5d		 pop	 ebp
  00050	c2 04 00	 ret	 4
?Init@PacketStatistics@@QAEXK@Z ENDP			; PacketStatistics::Init
_TEXT	ENDS
; Function compile flags: /Odtp /ZI
; File C:\Mu Online\Mu-GS-Webzen-MC-10093\GameServer\PacketStatistics.cpp
;	COMDAT ??1PacketStatistics@@QAE@XZ
_TEXT	SEGMENT
_this$ = -4						; size = 4
??1PacketStatistics@@QAE@XZ PROC			; PacketStatistics::~PacketStatistics, COMDAT
; _this$ = ecx

; 67   : {

  00000	55		 push	 ebp
  00001	8b ec		 mov	 ebp, esp
  00003	83 ec 44	 sub	 esp, 68			; 00000044H
  00006	53		 push	 ebx
  00007	56		 push	 esi
  00008	57		 push	 edi
  00009	89 4d fc	 mov	 DWORD PTR _this$[ebp], ecx

; 68   : }

  0000c	8b 4d fc	 mov	 ecx, DWORD PTR _this$[ebp]
  0000f	e8 00 00 00 00	 call	 ??1Timer@@QAE@XZ	; Timer::~Timer
  00014	5f		 pop	 edi
  00015	5e		 pop	 esi
  00016	5b		 pop	 ebx
  00017	8b e5		 mov	 esp, ebp
  00019	5d		 pop	 ebp
  0001a	c3		 ret	 0
??1PacketStatistics@@QAE@XZ ENDP			; PacketStatistics::~PacketStatistics
_TEXT	ENDS
; Function compile flags: /Odtp /ZI
; File C:\Mu Online\Mu-GS-Webzen-MC-10093\GameServer\PacketStatistics.cpp
;	COMDAT ??0PacketStatistics@@QAE@XZ
_TEXT	SEGMENT
_this$ = -4						; size = 4
??0PacketStatistics@@QAE@XZ PROC			; PacketStatistics::PacketStatistics, COMDAT
; _this$ = ecx

; 51   : {

  00000	55		 push	 ebp
  00001	8b ec		 mov	 ebp, esp
  00003	83 ec 44	 sub	 esp, 68			; 00000044H
  00006	53		 push	 ebx
  00007	56		 push	 esi
  00008	57		 push	 edi
  00009	89 4d fc	 mov	 DWORD PTR _this$[ebp], ecx

; 50   : :m_iCheckDuration(0), m_kTimer(true), m_iPacketCount(0), m_iEncryptPacketCount(0), m_iPacketTotalSize(0)

  0000c	6a 01		 push	 1
  0000e	8b 4d fc	 mov	 ecx, DWORD PTR _this$[ebp]
  00011	e8 00 00 00 00	 call	 ??0Timer@@QAE@_N@Z	; Timer::Timer
  00016	8b 45 fc	 mov	 eax, DWORD PTR _this$[ebp]
  00019	c7 40 08 00 00
	00 00		 mov	 DWORD PTR [eax+8], 0
  00020	8b 45 fc	 mov	 eax, DWORD PTR _this$[ebp]
  00023	c7 40 0c 00 00
	00 00		 mov	 DWORD PTR [eax+12], 0
  0002a	8b 45 fc	 mov	 eax, DWORD PTR _this$[ebp]
  0002d	c7 40 10 00 00
	00 00		 mov	 DWORD PTR [eax+16], 0
  00034	8b 45 fc	 mov	 eax, DWORD PTR _this$[ebp]
  00037	c7 40 14 00 00
	00 00		 mov	 DWORD PTR [eax+20], 0

; 52   : }

  0003e	8b 45 fc	 mov	 eax, DWORD PTR _this$[ebp]
  00041	5f		 pop	 edi
  00042	5e		 pop	 esi
  00043	5b		 pop	 ebx
  00044	8b e5		 mov	 esp, ebp
  00046	5d		 pop	 ebp
  00047	c3		 ret	 0
??0PacketStatistics@@QAE@XZ ENDP			; PacketStatistics::PacketStatistics
_TEXT	ENDS
; Function compile flags: /Odtp /ZI
; File C:\Mu Online\Mu-GS-Webzen-MC-10093\GameServer\PacketStatistics.cpp
;	COMDAT ?SetTimer@Timer@@QAEXK@Z
_TEXT	SEGMENT
_this$ = -4						; size = 4
_dwMilliSecond$ = 8					; size = 4
?SetTimer@Timer@@QAEXK@Z PROC				; Timer::SetTimer, COMDAT
; _this$ = ecx

; 40   : {

  00000	55		 push	 ebp
  00001	8b ec		 mov	 ebp, esp
  00003	83 ec 44	 sub	 esp, 68			; 00000044H
  00006	53		 push	 ebx
  00007	56		 push	 esi
  00008	57		 push	 edi
  00009	89 4d fc	 mov	 DWORD PTR _this$[ebp], ecx

; 41   : 	m_bActive = true;

  0000c	8b 45 fc	 mov	 eax, DWORD PTR _this$[ebp]
  0000f	c6 40 05 01	 mov	 BYTE PTR [eax+5], 1

; 42   : 	m_iWakeTick = GetTickCount() + dwMilliSecond;

  00013	ff 15 00 00 00
	00		 call	 DWORD PTR __imp__GetTickCount@0
  00019	03 45 08	 add	 eax, DWORD PTR _dwMilliSecond$[ebp]
  0001c	8b 4d fc	 mov	 ecx, DWORD PTR _this$[ebp]
  0001f	89 01		 mov	 DWORD PTR [ecx], eax

; 43   : }

  00021	5f		 pop	 edi
  00022	5e		 pop	 esi
  00023	5b		 pop	 ebx
  00024	8b e5		 mov	 esp, ebp
  00026	5d		 pop	 ebp
  00027	c2 04 00	 ret	 4
?SetTimer@Timer@@QAEXK@Z ENDP				; Timer::SetTimer
_TEXT	ENDS
; Function compile flags: /Odtp /ZI
; File C:\Mu Online\Mu-GS-Webzen-MC-10093\GameServer\PacketStatistics.cpp
;	COMDAT ?IsWake@Timer@@QAE_NXZ
_TEXT	SEGMENT
_this$ = -4						; size = 4
?IsWake@Timer@@QAE_NXZ PROC				; Timer::IsWake, COMDAT
; _this$ = ecx

; 25   : {

  00000	55		 push	 ebp
  00001	8b ec		 mov	 ebp, esp
  00003	83 ec 44	 sub	 esp, 68			; 00000044H
  00006	53		 push	 ebx
  00007	56		 push	 esi
  00008	57		 push	 edi
  00009	89 4d fc	 mov	 DWORD PTR _this$[ebp], ecx

; 26   : 	if(m_iWakeTick <= GetTickCount())

  0000c	ff 15 00 00 00
	00		 call	 DWORD PTR __imp__GetTickCount@0
  00012	8b 4d fc	 mov	 ecx, DWORD PTR _this$[ebp]
  00015	39 01		 cmp	 DWORD PTR [ecx], eax
  00017	77 17		 ja	 SHORT $LN2@IsWake

; 27   : 	{
; 28   : 		if(m_bOnceWake == true)

  00019	8b 45 fc	 mov	 eax, DWORD PTR _this$[ebp]
  0001c	0f b6 48 04	 movzx	 ecx, BYTE PTR [eax+4]
  00020	83 f9 01	 cmp	 ecx, 1
  00023	75 07		 jne	 SHORT $LN3@IsWake

; 29   : 		{
; 30   : 			m_bActive = false;

  00025	8b 45 fc	 mov	 eax, DWORD PTR _this$[ebp]
  00028	c6 40 05 00	 mov	 BYTE PTR [eax+5], 0
$LN3@IsWake:

; 31   : 		}
; 32   : 		
; 33   : 		return(true);

  0002c	b0 01		 mov	 al, 1
  0002e	eb 02		 jmp	 SHORT $LN1@IsWake
$LN2@IsWake:

; 34   : 	}
; 35   : 
; 36   : 	return(false);

  00030	32 c0		 xor	 al, al
$LN1@IsWake:

; 37   : }

  00032	5f		 pop	 edi
  00033	5e		 pop	 esi
  00034	5b		 pop	 ebx
  00035	8b e5		 mov	 esp, ebp
  00037	5d		 pop	 ebp
  00038	c3		 ret	 0
?IsWake@Timer@@QAE_NXZ ENDP				; Timer::IsWake
_TEXT	ENDS
; Function compile flags: /Odtp /ZI
; File C:\Mu Online\Mu-GS-Webzen-MC-10093\GameServer\PacketStatistics.cpp
;	COMDAT ?Init@Timer@@QAEXXZ
_TEXT	SEGMENT
_this$ = -4						; size = 4
?Init@Timer@@QAEXXZ PROC				; Timer::Init, COMDAT
; _this$ = ecx

; 15   : {

  00000	55		 push	 ebp
  00001	8b ec		 mov	 ebp, esp
  00003	83 ec 44	 sub	 esp, 68			; 00000044H
  00006	53		 push	 ebx
  00007	56		 push	 esi
  00008	57		 push	 edi
  00009	89 4d fc	 mov	 DWORD PTR _this$[ebp], ecx

; 16   : 	m_bActive = false;

  0000c	8b 45 fc	 mov	 eax, DWORD PTR _this$[ebp]
  0000f	c6 40 05 00	 mov	 BYTE PTR [eax+5], 0

; 17   : 	m_iWakeTick = 0;

  00013	8b 45 fc	 mov	 eax, DWORD PTR _this$[ebp]
  00016	c7 00 00 00 00
	00		 mov	 DWORD PTR [eax], 0

; 18   : }

  0001c	5f		 pop	 edi
  0001d	5e		 pop	 esi
  0001e	5b		 pop	 ebx
  0001f	8b e5		 mov	 esp, ebp
  00021	5d		 pop	 ebp
  00022	c3		 ret	 0
?Init@Timer@@QAEXXZ ENDP				; Timer::Init
_TEXT	ENDS
; Function compile flags: /Odtp /ZI
; File C:\Mu Online\Mu-GS-Webzen-MC-10093\GameServer\PacketStatistics.cpp
;	COMDAT ??1Timer@@QAE@XZ
_TEXT	SEGMENT
_this$ = -4						; size = 4
??1Timer@@QAE@XZ PROC					; Timer::~Timer, COMDAT
; _this$ = ecx

; 21   : {

  00000	55		 push	 ebp
  00001	8b ec		 mov	 ebp, esp
  00003	83 ec 44	 sub	 esp, 68			; 00000044H
  00006	53		 push	 ebx
  00007	56		 push	 esi
  00008	57		 push	 edi
  00009	89 4d fc	 mov	 DWORD PTR _this$[ebp], ecx

; 22   : }

  0000c	5f		 pop	 edi
  0000d	5e		 pop	 esi
  0000e	5b		 pop	 ebx
  0000f	8b e5		 mov	 esp, ebp
  00011	5d		 pop	 ebp
  00012	c3		 ret	 0
??1Timer@@QAE@XZ ENDP					; Timer::~Timer
_TEXT	ENDS
; Function compile flags: /Odtp /ZI
; File C:\Mu Online\Mu-GS-Webzen-MC-10093\GameServer\PacketStatistics.cpp
;	COMDAT ??0Timer@@QAE@_N@Z
_TEXT	SEGMENT
_this$ = -4						; size = 4
_bOnceWake$ = 8						; size = 1
??0Timer@@QAE@_N@Z PROC					; Timer::Timer, COMDAT
; _this$ = ecx

; 11   : {

  00000	55		 push	 ebp
  00001	8b ec		 mov	 ebp, esp
  00003	83 ec 44	 sub	 esp, 68			; 00000044H
  00006	53		 push	 ebx
  00007	56		 push	 esi
  00008	57		 push	 edi
  00009	89 4d fc	 mov	 DWORD PTR _this$[ebp], ecx

; 10   : :m_bActive(false), m_iWakeTick(0), m_bOnceWake(bOnceWake)

  0000c	8b 45 fc	 mov	 eax, DWORD PTR _this$[ebp]
  0000f	c7 00 00 00 00
	00		 mov	 DWORD PTR [eax], 0
  00015	8b 45 fc	 mov	 eax, DWORD PTR _this$[ebp]
  00018	8a 4d 08	 mov	 cl, BYTE PTR _bOnceWake$[ebp]
  0001b	88 48 04	 mov	 BYTE PTR [eax+4], cl
  0001e	8b 45 fc	 mov	 eax, DWORD PTR _this$[ebp]
  00021	c6 40 05 00	 mov	 BYTE PTR [eax+5], 0

; 12   : }

  00025	8b 45 fc	 mov	 eax, DWORD PTR _this$[ebp]
  00028	5f		 pop	 edi
  00029	5e		 pop	 esi
  0002a	5b		 pop	 ebx
  0002b	8b e5		 mov	 esp, ebp
  0002d	5d		 pop	 ebp
  0002e	c2 04 00	 ret	 4
??0Timer@@QAE@_N@Z ENDP					; Timer::Timer
_TEXT	ENDS
; Function compile flags: /Odtp /ZI
; File C:\Mu Online\Mu-GS-Webzen-MC-10093\GameServer\PacketStatistics.cpp
;	COMDAT ?__empty_global_delete@@YAXPAXI@Z
_TEXT	SEGMENT
___formal$ = 8						; size = 4
___formal$ = 12						; size = 4
?__empty_global_delete@@YAXPAXI@Z PROC			; __empty_global_delete, COMDAT

  00000	55		 push	 ebp
  00001	8b ec		 mov	 ebp, esp
  00003	83 ec 40	 sub	 esp, 64			; 00000040H
  00006	53		 push	 ebx
  00007	56		 push	 esi
  00008	57		 push	 edi
  00009	5f		 pop	 edi
  0000a	5e		 pop	 esi
  0000b	5b		 pop	 ebx
  0000c	8b e5		 mov	 esp, ebp
  0000e	5d		 pop	 ebp
  0000f	c3		 ret	 0
?__empty_global_delete@@YAXPAXI@Z ENDP			; __empty_global_delete
_TEXT	ENDS
; Function compile flags: /Odtp /ZI
; File C:\Mu Online\Mu-GS-Webzen-MC-10093\GameServer\PacketStatistics.cpp
;	COMDAT ?__empty_global_delete@@YAXPAX@Z
_TEXT	SEGMENT
___formal$ = 8						; size = 4
?__empty_global_delete@@YAXPAX@Z PROC			; __empty_global_delete, COMDAT

  00000	55		 push	 ebp
  00001	8b ec		 mov	 ebp, esp
  00003	83 ec 40	 sub	 esp, 64			; 00000040H
  00006	53		 push	 ebx
  00007	56		 push	 esi
  00008	57		 push	 edi
  00009	5f		 pop	 edi
  0000a	5e		 pop	 esi
  0000b	5b		 pop	 ebx
  0000c	8b e5		 mov	 esp, ebp
  0000e	5d		 pop	 ebp
  0000f	c3		 ret	 0
?__empty_global_delete@@YAXPAX@Z ENDP			; __empty_global_delete
_TEXT	ENDS
END
