; Listing generated by Microsoft (R) Optimizing Compiler Version 19.27.29111.0 

	TITLE	C:\Mu Online\Mu-GS-Webzen-MC-10093\GameServer\PacketCheckSum.cpp
	.686P
	.XMM
	include listing.inc
	.model	flat

INCLUDELIB LIBCMT
INCLUDELIB OLDNAMES

PUBLIC	?__empty_global_delete@@YAXPAX@Z		; __empty_global_delete
PUBLIC	?__empty_global_delete@@YAXPAXI@Z		; __empty_global_delete
PUBLIC	??0CPacketCheckSum@@QAE@XZ			; CPacketCheckSum::CPacketCheckSum
PUBLIC	??1CPacketCheckSum@@UAE@XZ			; CPacketCheckSum::~CPacketCheckSum
PUBLIC	?Init@CPacketCheckSum@@QAEXXZ			; CPacketCheckSum::Init
PUBLIC	?Check@CPacketCheckSum@@QAEXH@Z			; CPacketCheckSum::Check
PUBLIC	?ClearCheckSum@CPacketCheckSum@@QAEXH@Z		; CPacketCheckSum::ClearCheckSum
PUBLIC	?Add@CPacketCheckSum@@QAEHHHK@Z			; CPacketCheckSum::Add
PUBLIC	?AddCheckSum@CPacketCheckSum@@QAEXHHK@Z		; CPacketCheckSum::AddCheckSum
PUBLIC	?SetClearChecksumFunc@CPacketCheckSum@@QAEXH@Z	; CPacketCheckSum::SetClearChecksumFunc
PUBLIC	??_GCPacketCheckSum@@UAEPAXI@Z			; CPacketCheckSum::`scalar deleting destructor'
PUBLIC	??_7CPacketCheckSum@@6B@			; CPacketCheckSum::`vftable'
PUBLIC	?gPacketCheckSum@@3VCPacketCheckSum@@A		; gPacketCheckSum
PUBLIC	??_C@_0CF@IAFFJAHO@PacketCheckSum?5Error?5?$FL?$CFd?$FN?$FL?$CFs?$FN?$FL?$CF@ ; `string'
PUBLIC	??_C@_0BI@GEHHKNPN@PacketCheckSum?5Error?5?$CFd@ ; `string'
PUBLIC	??_C@_0CC@EPIDCKHF@Check?5PacketCheckSum?5?$FL?$CFd?$FN?$FL?$CFs?$FN?$FL?$CF@ ; `string'
PUBLIC	??_C@_0DF@DNGJOMAF@PacketCheckSum?5?3?5Compare?5Fail?5?3@ ; `string'
PUBLIC	??_C@_0CI@BJNFEPPN@PacketCheckSum?5?3?5Compare?5Fail?5?3@ ; `string'
PUBLIC	??_C@_0CM@BHHAPHFK@PacketCheckSum?5?3?5Invalid?5FuncIn@ ; `string'
PUBLIC	??_C@_0CA@PECEGPGE@Insert?5PacketCheckSum?5?$CFd?0?5?$CFd?0?$CFd@ ; `string'
PUBLIC	??_C@_0BH@DJENININ@Complete?5Init?5Checksum@	; `string'
PUBLIC	??_C@_06PHGHDMGF@?$CFd?0?5?$CFd@		; `string'
PUBLIC	??_R4CPacketCheckSum@@6B@			; CPacketCheckSum::`RTTI Complete Object Locator'
PUBLIC	??_R0?AVCPacketCheckSum@@@8			; CPacketCheckSum `RTTI Type Descriptor'
PUBLIC	??_R3CPacketCheckSum@@8				; CPacketCheckSum::`RTTI Class Hierarchy Descriptor'
PUBLIC	??_R2CPacketCheckSum@@8				; CPacketCheckSum::`RTTI Base Class Array'
PUBLIC	??_R1A@?0A@EA@CPacketCheckSum@@8		; CPacketCheckSum::`RTTI Base Class Descriptor at (0,-1,0,64)'
EXTRN	??3@YAXPAXI@Z:PROC				; operator delete
EXTRN	_atexit:PROC
EXTRN	_memset:PROC
EXTRN	__imp__wsprintfA:PROC
EXTRN	?gObjCloseSet@@YAXHH@Z:PROC			; gObjCloseSet
EXTRN	??_ECPacketCheckSum@@UAEPAXI@Z:PROC		; CPacketCheckSum::`vector deleting destructor'
EXTRN	?Send@CSendHackLog@@QAEXHEPAD@Z:PROC		; CSendHackLog::Send
EXTRN	@__security_check_cookie@4:PROC
EXTRN	??_7type_info@@6B@:QWORD			; type_info::`vftable'
EXTRN	?LogAddTD@@3P6AXPADZZA:DWORD			; LogAddTD
EXTRN	?gObj@@3PAVOBJECTSTRUCT@@A:DWORD		; gObj
EXTRN	?gDisconnectHackUser@@3HA:DWORD			; gDisconnectHackUser
EXTRN	?gSendHackLog@@3VCSendHackLog@@A:BYTE		; gSendHackLog
EXTRN	___security_cookie:DWORD
_BSS	SEGMENT
?gPacketCheckSum@@3VCPacketCheckSum@@A DB 0a1330H DUP (?) ; gPacketCheckSum
_BSS	ENDS
CRT$XCU	SEGMENT
?gPacketCheckSum$initializer$@@3P6AXXZA DD FLAT:??__EgPacketCheckSum@@YAXXZ ; gPacketCheckSum$initializer$
CRT$XCU	ENDS
;	COMDAT ??_R1A@?0A@EA@CPacketCheckSum@@8
rdata$r	SEGMENT
??_R1A@?0A@EA@CPacketCheckSum@@8 DD FLAT:??_R0?AVCPacketCheckSum@@@8 ; CPacketCheckSum::`RTTI Base Class Descriptor at (0,-1,0,64)'
	DD	00H
	DD	00H
	DD	0ffffffffH
	DD	00H
	DD	040H
	DD	FLAT:??_R3CPacketCheckSum@@8
rdata$r	ENDS
;	COMDAT ??_R2CPacketCheckSum@@8
rdata$r	SEGMENT
??_R2CPacketCheckSum@@8 DD FLAT:??_R1A@?0A@EA@CPacketCheckSum@@8 ; CPacketCheckSum::`RTTI Base Class Array'
rdata$r	ENDS
;	COMDAT ??_R3CPacketCheckSum@@8
rdata$r	SEGMENT
??_R3CPacketCheckSum@@8 DD 00H				; CPacketCheckSum::`RTTI Class Hierarchy Descriptor'
	DD	00H
	DD	01H
	DD	FLAT:??_R2CPacketCheckSum@@8
rdata$r	ENDS
;	COMDAT ??_R0?AVCPacketCheckSum@@@8
data$r	SEGMENT
??_R0?AVCPacketCheckSum@@@8 DD FLAT:??_7type_info@@6B@	; CPacketCheckSum `RTTI Type Descriptor'
	DD	00H
	DB	'.?AVCPacketCheckSum@@', 00H
data$r	ENDS
;	COMDAT ??_R4CPacketCheckSum@@6B@
rdata$r	SEGMENT
??_R4CPacketCheckSum@@6B@ DD 00H			; CPacketCheckSum::`RTTI Complete Object Locator'
	DD	00H
	DD	00H
	DD	FLAT:??_R0?AVCPacketCheckSum@@@8
	DD	FLAT:??_R3CPacketCheckSum@@8
rdata$r	ENDS
;	COMDAT ??_C@_06PHGHDMGF@?$CFd?0?5?$CFd@
CONST	SEGMENT
??_C@_06PHGHDMGF@?$CFd?0?5?$CFd@ DB '%d, %d', 00H	; `string'
CONST	ENDS
;	COMDAT ??_C@_0BH@DJENININ@Complete?5Init?5Checksum@
CONST	SEGMENT
??_C@_0BH@DJENININ@Complete?5Init?5Checksum@ DB 'Complete Init Checksum', 00H ; `string'
CONST	ENDS
;	COMDAT ??_C@_0CA@PECEGPGE@Insert?5PacketCheckSum?5?$CFd?0?5?$CFd?0?$CFd@
CONST	SEGMENT
??_C@_0CA@PECEGPGE@Insert?5PacketCheckSum?5?$CFd?0?5?$CFd?0?$CFd@ DB 'Ins'
	DB	'ert PacketCheckSum %d, %d,%d', 00H		; `string'
CONST	ENDS
;	COMDAT ??_C@_0CM@BHHAPHFK@PacketCheckSum?5?3?5Invalid?5FuncIn@
CONST	SEGMENT
??_C@_0CM@BHHAPHFK@PacketCheckSum?5?3?5Invalid?5FuncIn@ DB 'PacketCheckSu'
	DB	'm : Invalid FuncIndex : %d, %d', 00H	; `string'
CONST	ENDS
;	COMDAT ??_C@_0CI@BJNFEPPN@PacketCheckSum?5?3?5Compare?5Fail?5?3@
CONST	SEGMENT
??_C@_0CI@BJNFEPPN@PacketCheckSum?5?3?5Compare?5Fail?5?3@ DB 'PacketCheck'
	DB	'Sum : Compare Fail : (%d,%u)', 00H		; `string'
CONST	ENDS
;	COMDAT ??_C@_0DF@DNGJOMAF@PacketCheckSum?5?3?5Compare?5Fail?5?3@
CONST	SEGMENT
??_C@_0DF@DNGJOMAF@PacketCheckSum?5?3?5Compare?5Fail?5?3@ DB 'PacketCheck'
	DB	'Sum : Compare Fail : [%d][%s][%s] (%d,%u)', 00H ; `string'
CONST	ENDS
;	COMDAT ??_C@_0CC@EPIDCKHF@Check?5PacketCheckSum?5?$FL?$CFd?$FN?$FL?$CFs?$FN?$FL?$CF@
CONST	SEGMENT
??_C@_0CC@EPIDCKHF@Check?5PacketCheckSum?5?$FL?$CFd?$FN?$FL?$CFs?$FN?$FL?$CF@ DB 'C'
	DB	'heck PacketCheckSum [%d][%s][%s]', 00H	; `string'
CONST	ENDS
;	COMDAT ??_C@_0BI@GEHHKNPN@PacketCheckSum?5Error?5?$CFd@
CONST	SEGMENT
??_C@_0BI@GEHHKNPN@PacketCheckSum?5Error?5?$CFd@ DB 'PacketCheckSum Error'
	DB	' %d', 00H					; `string'
CONST	ENDS
;	COMDAT ??_C@_0CF@IAFFJAHO@PacketCheckSum?5Error?5?$FL?$CFd?$FN?$FL?$CFs?$FN?$FL?$CF@
CONST	SEGMENT
??_C@_0CF@IAFFJAHO@PacketCheckSum?5Error?5?$FL?$CFd?$FN?$FL?$CFs?$FN?$FL?$CF@ DB 'P'
	DB	'acketCheckSum Error [%d][%s][%s] %d', 00H	; `string'
CONST	ENDS
;	COMDAT ??_7CPacketCheckSum@@6B@
CONST	SEGMENT
??_7CPacketCheckSum@@6B@ DD FLAT:??_R4CPacketCheckSum@@6B@ ; CPacketCheckSum::`vftable'
	DD	FLAT:??_ECPacketCheckSum@@UAEPAXI@Z
CONST	ENDS
; Function compile flags: /Odtp /ZI
;	COMDAT ??__FgPacketCheckSum@@YAXXZ
text$yd	SEGMENT
??__FgPacketCheckSum@@YAXXZ PROC			; `dynamic atexit destructor for 'gPacketCheckSum'', COMDAT
  00000	55		 push	 ebp
  00001	8b ec		 mov	 ebp, esp
  00003	83 ec 40	 sub	 esp, 64			; 00000040H
  00006	53		 push	 ebx
  00007	56		 push	 esi
  00008	57		 push	 edi
  00009	b9 00 00 00 00	 mov	 ecx, OFFSET ?gPacketCheckSum@@3VCPacketCheckSum@@A ; gPacketCheckSum
  0000e	e8 00 00 00 00	 call	 ??1CPacketCheckSum@@UAE@XZ ; CPacketCheckSum::~CPacketCheckSum
  00013	5f		 pop	 edi
  00014	5e		 pop	 esi
  00015	5b		 pop	 ebx
  00016	8b e5		 mov	 esp, ebp
  00018	5d		 pop	 ebp
  00019	c3		 ret	 0
??__FgPacketCheckSum@@YAXXZ ENDP			; `dynamic atexit destructor for 'gPacketCheckSum''
text$yd	ENDS
; Function compile flags: /Odtp /ZI
; File C:\Mu Online\Mu-GS-Webzen-MC-10093\GameServer\PacketCheckSum.cpp
;	COMDAT ??__EgPacketCheckSum@@YAXXZ
text$di	SEGMENT
??__EgPacketCheckSum@@YAXXZ PROC			; `dynamic initializer for 'gPacketCheckSum'', COMDAT

; 26   : CPacketCheckSum gPacketCheckSum;

  00000	55		 push	 ebp
  00001	8b ec		 mov	 ebp, esp
  00003	83 ec 40	 sub	 esp, 64			; 00000040H
  00006	53		 push	 ebx
  00007	56		 push	 esi
  00008	57		 push	 edi
  00009	b9 00 00 00 00	 mov	 ecx, OFFSET ?gPacketCheckSum@@3VCPacketCheckSum@@A ; gPacketCheckSum
  0000e	e8 00 00 00 00	 call	 ??0CPacketCheckSum@@QAE@XZ ; CPacketCheckSum::CPacketCheckSum
  00013	68 00 00 00 00	 push	 OFFSET ??__FgPacketCheckSum@@YAXXZ ; `dynamic atexit destructor for 'gPacketCheckSum''
  00018	e8 00 00 00 00	 call	 _atexit
  0001d	83 c4 04	 add	 esp, 4
  00020	5f		 pop	 edi
  00021	5e		 pop	 esi
  00022	5b		 pop	 ebx
  00023	8b e5		 mov	 esp, ebp
  00025	5d		 pop	 ebp
  00026	c3		 ret	 0
??__EgPacketCheckSum@@YAXXZ ENDP			; `dynamic initializer for 'gPacketCheckSum''
text$di	ENDS
; Function compile flags: /Odtp /ZI
;	COMDAT ??_GCPacketCheckSum@@UAEPAXI@Z
_TEXT	SEGMENT
_this$ = -4						; size = 4
___flags$ = 8						; size = 4
??_GCPacketCheckSum@@UAEPAXI@Z PROC			; CPacketCheckSum::`scalar deleting destructor', COMDAT
; _this$ = ecx
  00000	55		 push	 ebp
  00001	8b ec		 mov	 ebp, esp
  00003	83 ec 44	 sub	 esp, 68			; 00000044H
  00006	53		 push	 ebx
  00007	56		 push	 esi
  00008	57		 push	 edi
  00009	89 4d fc	 mov	 DWORD PTR _this$[ebp], ecx
  0000c	8b 4d fc	 mov	 ecx, DWORD PTR _this$[ebp]
  0000f	e8 00 00 00 00	 call	 ??1CPacketCheckSum@@UAE@XZ ; CPacketCheckSum::~CPacketCheckSum
  00014	8b 45 08	 mov	 eax, DWORD PTR ___flags$[ebp]
  00017	83 e0 01	 and	 eax, 1
  0001a	74 11		 je	 SHORT $LN2@scalar
  0001c	68 30 13 0a 00	 push	 660272			; 000a1330H
  00021	8b 45 fc	 mov	 eax, DWORD PTR _this$[ebp]
  00024	50		 push	 eax
  00025	e8 00 00 00 00	 call	 ??3@YAXPAXI@Z		; operator delete
  0002a	83 c4 08	 add	 esp, 8
$LN2@scalar:
  0002d	8b 45 fc	 mov	 eax, DWORD PTR _this$[ebp]
  00030	5f		 pop	 edi
  00031	5e		 pop	 esi
  00032	5b		 pop	 ebx
  00033	8b e5		 mov	 esp, ebp
  00035	5d		 pop	 ebp
  00036	c2 04 00	 ret	 4
??_GCPacketCheckSum@@UAEPAXI@Z ENDP			; CPacketCheckSum::`scalar deleting destructor'
_TEXT	ENDS
; Function compile flags: /Odtp /ZI
; File C:\Mu Online\Mu-GS-Webzen-MC-10093\GameServer\PacketCheckSum.cpp
;	COMDAT ?SetClearChecksumFunc@CPacketCheckSum@@QAEXH@Z
_TEXT	SEGMENT
_i$1 = -20						; size = 4
_i$2 = -16						; size = 4
_Checksum$ = -12					; size = 4
_iCount$ = -8						; size = 4
_this$ = -4						; size = 4
_funcindex$ = 8						; size = 4
?SetClearChecksumFunc@CPacketCheckSum@@QAEXH@Z PROC	; CPacketCheckSum::SetClearChecksumFunc, COMDAT
; _this$ = ecx

; 162  : {

  00000	55		 push	 ebp
  00001	8b ec		 mov	 ebp, esp
  00003	83 ec 54	 sub	 esp, 84			; 00000054H
  00006	53		 push	 ebx
  00007	56		 push	 esi
  00008	57		 push	 edi
  00009	89 4d fc	 mov	 DWORD PTR _this$[ebp], ecx

; 163  : 	int iCount = 0;

  0000c	c7 45 f8 00 00
	00 00		 mov	 DWORD PTR _iCount$[ebp], 0

; 164  : 
; 165  : 	DWORD Checksum = m_ChecksumTableAVG[funcindex][0];

  00013	69 45 08 90 01
	00 00		 imul	 eax, DWORD PTR _funcindex$[ebp], 400
  0001a	8b 4d fc	 mov	 ecx, DWORD PTR _this$[ebp]
  0001d	8d 94 01 78 f0
	09 00		 lea	 edx, DWORD PTR [ecx+eax+651384]
  00024	b8 04 00 00 00	 mov	 eax, 4
  00029	6b c8 00	 imul	 ecx, eax, 0
  0002c	8b 14 0a	 mov	 edx, DWORD PTR [edx+ecx]
  0002f	89 55 f4	 mov	 DWORD PTR _Checksum$[ebp], edx

; 166  : 	for( int i = 0; i < MAX_PACKETCHECKSUM; i++ )

  00032	c7 45 f0 00 00
	00 00		 mov	 DWORD PTR _i$2[ebp], 0
  00039	eb 09		 jmp	 SHORT $LN4@SetClearCh
$LN2@SetClearCh:
  0003b	8b 45 f0	 mov	 eax, DWORD PTR _i$2[ebp]
  0003e	83 c0 01	 add	 eax, 1
  00041	89 45 f0	 mov	 DWORD PTR _i$2[ebp], eax
$LN4@SetClearCh:
  00044	83 7d f0 64	 cmp	 DWORD PTR _i$2[ebp], 100 ; 00000064H
  00048	7d 27		 jge	 SHORT $LN3@SetClearCh

; 167  : 	{
; 168  : 		if( m_ChecksumTableAVG[funcindex][i] == Checksum )

  0004a	69 45 08 90 01
	00 00		 imul	 eax, DWORD PTR _funcindex$[ebp], 400
  00051	8b 4d fc	 mov	 ecx, DWORD PTR _this$[ebp]
  00054	8d 94 01 78 f0
	09 00		 lea	 edx, DWORD PTR [ecx+eax+651384]
  0005b	8b 45 f0	 mov	 eax, DWORD PTR _i$2[ebp]
  0005e	8b 0c 82	 mov	 ecx, DWORD PTR [edx+eax*4]
  00061	3b 4d f4	 cmp	 ecx, DWORD PTR _Checksum$[ebp]
  00064	75 09		 jne	 SHORT $LN11@SetClearCh

; 169  : 		{
; 170  : 			iCount++;

  00066	8b 45 f8	 mov	 eax, DWORD PTR _iCount$[ebp]
  00069	83 c0 01	 add	 eax, 1
  0006c	89 45 f8	 mov	 DWORD PTR _iCount$[ebp], eax
$LN11@SetClearCh:

; 171  : 		}	
; 172  : 	}	

  0006f	eb ca		 jmp	 SHORT $LN2@SetClearCh
$LN3@SetClearCh:

; 173  : 
; 174  : 	if( iCount >= MAX_PACKETCHECKSUM-1 )

  00071	83 7d f8 63	 cmp	 DWORD PTR _iCount$[ebp], 99 ; 00000063H
  00075	0f 8c fb 00 00
	00		 jl	 $LN1@SetClearCh

; 175  : 	{
; 176  : 		m_ChecksumTableClearState[funcindex] = TRUE;

  0007b	8b 45 08	 mov	 eax, DWORD PTR _funcindex$[ebp]
  0007e	8b 4d fc	 mov	 ecx, DWORD PTR _this$[ebp]
  00081	c7 84 81 c8 ef
	09 00 01 00 00
	00		 mov	 DWORD PTR [ecx+eax*4+651208], 1

; 177  : 		m_ChecksumTableAllClearState = TRUE;

  0008c	8b 45 fc	 mov	 eax, DWORD PTR _this$[ebp]
  0008f	c7 80 c4 ef 09
	00 01 00 00 00	 mov	 DWORD PTR [eax+651204], 1

; 178  : 		int i;
; 179  : 		for( i = 0; i < MAX_PACKETCHECKSUMFUNC_COUNT; i++)

  00099	c7 45 ec 00 00
	00 00		 mov	 DWORD PTR _i$1[ebp], 0
  000a0	eb 09		 jmp	 SHORT $LN7@SetClearCh
$LN5@SetClearCh:
  000a2	8b 45 ec	 mov	 eax, DWORD PTR _i$1[ebp]
  000a5	83 c0 01	 add	 eax, 1
  000a8	89 45 ec	 mov	 DWORD PTR _i$1[ebp], eax
$LN7@SetClearCh:
  000ab	83 7d ec 16	 cmp	 DWORD PTR _i$1[ebp], 22	; 00000016H
  000af	7d 48		 jge	 SHORT $LN6@SetClearCh

; 180  : 		{
; 181  : 			if( !m_ChecksumTableClearState[i] )

  000b1	8b 45 ec	 mov	 eax, DWORD PTR _i$1[ebp]
  000b4	8b 4d fc	 mov	 ecx, DWORD PTR _this$[ebp]
  000b7	83 bc 81 c8 ef
	09 00 00	 cmp	 DWORD PTR [ecx+eax*4+651208], 0
  000bf	75 0d		 jne	 SHORT $LN13@SetClearCh

; 182  : 			{
; 183  : 				m_ChecksumTableAllClearState = FALSE;				

  000c1	8b 45 fc	 mov	 eax, DWORD PTR _this$[ebp]
  000c4	c7 80 c4 ef 09
	00 00 00 00 00	 mov	 DWORD PTR [eax+651204], 0
$LN13@SetClearCh:

; 184  : 			}
; 185  : 			m_ChecksumTable[i] = m_ChecksumTableAVG[i][0];

  000ce	69 45 ec 90 01
	00 00		 imul	 eax, DWORD PTR _i$1[ebp], 400
  000d5	8b 4d fc	 mov	 ecx, DWORD PTR _this$[ebp]
  000d8	8d 94 01 78 f0
	09 00		 lea	 edx, DWORD PTR [ecx+eax+651384]
  000df	b8 04 00 00 00	 mov	 eax, 4
  000e4	6b c8 00	 imul	 ecx, eax, 0
  000e7	8b 45 ec	 mov	 eax, DWORD PTR _i$1[ebp]
  000ea	8b 75 fc	 mov	 esi, DWORD PTR _this$[ebp]
  000ed	8b 0c 0a	 mov	 ecx, DWORD PTR [edx+ecx]
  000f0	89 8c 86 d8 12
	0a 00		 mov	 DWORD PTR [esi+eax*4+660184], ecx

; 186  : 		}

  000f7	eb a9		 jmp	 SHORT $LN5@SetClearCh
$LN6@SetClearCh:

; 187  : 
; 188  : 		if( m_ChecksumTableAllClearState )

  000f9	8b 45 fc	 mov	 eax, DWORD PTR _this$[ebp]
  000fc	83 b8 c4 ef 09
	00 00		 cmp	 DWORD PTR [eax+651204], 0
  00103	74 71		 je	 SHORT $LN1@SetClearCh

; 189  : 		{
; 190  : 			LogAddTD("Complete Init Checksum");

  00105	68 00 00 00 00	 push	 OFFSET ??_C@_0BH@DJENININ@Complete?5Init?5Checksum@
  0010a	ff 15 00 00 00
	00		 call	 DWORD PTR ?LogAddTD@@3P6AXPADZZA ; LogAddTD
  00110	83 c4 04	 add	 esp, 4

; 191  : 
; 192  : 			for( i = 0; i < MAX_PACKETCHECKSUMFUNC_COUNT; i++)

  00113	c7 45 ec 00 00
	00 00		 mov	 DWORD PTR _i$1[ebp], 0
  0011a	eb 09		 jmp	 SHORT $LN10@SetClearCh
$LN8@SetClearCh:
  0011c	8b 45 ec	 mov	 eax, DWORD PTR _i$1[ebp]
  0011f	83 c0 01	 add	 eax, 1
  00122	89 45 ec	 mov	 DWORD PTR _i$1[ebp], eax
$LN10@SetClearCh:
  00125	83 7d ec 16	 cmp	 DWORD PTR _i$1[ebp], 22	; 00000016H
  00129	7d 4b		 jge	 SHORT $LN1@SetClearCh

; 193  : 			{
; 194  : 				m_ChecksumTable[i] = m_ChecksumTableAVG[i][0];

  0012b	69 45 ec 90 01
	00 00		 imul	 eax, DWORD PTR _i$1[ebp], 400
  00132	8b 4d fc	 mov	 ecx, DWORD PTR _this$[ebp]
  00135	8d 94 01 78 f0
	09 00		 lea	 edx, DWORD PTR [ecx+eax+651384]
  0013c	b8 04 00 00 00	 mov	 eax, 4
  00141	6b c8 00	 imul	 ecx, eax, 0
  00144	8b 45 ec	 mov	 eax, DWORD PTR _i$1[ebp]
  00147	8b 75 fc	 mov	 esi, DWORD PTR _this$[ebp]
  0014a	8b 0c 0a	 mov	 ecx, DWORD PTR [edx+ecx]
  0014d	89 8c 86 d8 12
	0a 00		 mov	 DWORD PTR [esi+eax*4+660184], ecx

; 195  : 
; 196  : 				LogAddTD("%d, %d", i, m_ChecksumTable[i]);

  00154	8b 45 ec	 mov	 eax, DWORD PTR _i$1[ebp]
  00157	8b 4d fc	 mov	 ecx, DWORD PTR _this$[ebp]
  0015a	8b 94 81 d8 12
	0a 00		 mov	 edx, DWORD PTR [ecx+eax*4+660184]
  00161	52		 push	 edx
  00162	8b 45 ec	 mov	 eax, DWORD PTR _i$1[ebp]
  00165	50		 push	 eax
  00166	68 00 00 00 00	 push	 OFFSET ??_C@_06PHGHDMGF@?$CFd?0?5?$CFd@
  0016b	ff 15 00 00 00
	00		 call	 DWORD PTR ?LogAddTD@@3P6AXPADZZA ; LogAddTD
  00171	83 c4 0c	 add	 esp, 12			; 0000000cH

; 197  : 			}

  00174	eb a6		 jmp	 SHORT $LN8@SetClearCh
$LN1@SetClearCh:

; 198  : 		}
; 199  : 	}
; 200  : }

  00176	5f		 pop	 edi
  00177	5e		 pop	 esi
  00178	5b		 pop	 ebx
  00179	8b e5		 mov	 esp, ebp
  0017b	5d		 pop	 ebp
  0017c	c2 04 00	 ret	 4
?SetClearChecksumFunc@CPacketCheckSum@@QAEXH@Z ENDP	; CPacketCheckSum::SetClearChecksumFunc
_TEXT	ENDS
; Function compile flags: /Odtp /ZI
; File C:\Mu Online\Mu-GS-Webzen-MC-10093\GameServer\PacketCheckSum.cpp
;	COMDAT ?AddCheckSum@CPacketCheckSum@@QAEXHHK@Z
_TEXT	SEGMENT
_this$ = -4						; size = 4
_aIndex$ = 8						; size = 4
_funcindex$ = 12					; size = 4
_checksum$ = 16						; size = 4
?AddCheckSum@CPacketCheckSum@@QAEXHHK@Z PROC		; CPacketCheckSum::AddCheckSum, COMDAT
; _this$ = ecx

; 131  : {

  00000	55		 push	 ebp
  00001	8b ec		 mov	 ebp, esp
  00003	83 ec 44	 sub	 esp, 68			; 00000044H
  00006	53		 push	 ebx
  00007	56		 push	 esi
  00008	57		 push	 edi
  00009	89 4d fc	 mov	 DWORD PTR _this$[ebp], ecx

; 132  : 	if( funcindex < 0 || funcindex >= MAX_PACKETCHECKSUMFUNC_COUNT)

  0000c	83 7d 0c 00	 cmp	 DWORD PTR _funcindex$[ebp], 0
  00010	7c 06		 jl	 SHORT $LN3@AddCheckSu
  00012	83 7d 0c 16	 cmp	 DWORD PTR _funcindex$[ebp], 22 ; 00000016H
  00016	7c 1b		 jl	 SHORT $LN2@AddCheckSu
$LN3@AddCheckSu:

; 133  : 	{
; 134  : 		LogAddTD("PacketCheckSum : Invalid FuncIndex : %d, %d", aIndex, funcindex);

  00018	8b 45 0c	 mov	 eax, DWORD PTR _funcindex$[ebp]
  0001b	50		 push	 eax
  0001c	8b 4d 08	 mov	 ecx, DWORD PTR _aIndex$[ebp]
  0001f	51		 push	 ecx
  00020	68 00 00 00 00	 push	 OFFSET ??_C@_0CM@BHHAPHFK@PacketCheckSum?5?3?5Invalid?5FuncIn@
  00025	ff 15 00 00 00
	00		 call	 DWORD PTR ?LogAddTD@@3P6AXPADZZA ; LogAddTD
  0002b	83 c4 0c	 add	 esp, 12			; 0000000cH

; 135  : 		return;

  0002e	e9 c3 00 00 00	 jmp	 $LN1@AddCheckSu
$LN2@AddCheckSu:

; 136  : 	}
; 137  : 
; 138  : 	Add(aIndex, funcindex, checksum);

  00033	8b 45 10	 mov	 eax, DWORD PTR _checksum$[ebp]
  00036	50		 push	 eax
  00037	8b 4d 0c	 mov	 ecx, DWORD PTR _funcindex$[ebp]
  0003a	51		 push	 ecx
  0003b	8b 55 08	 mov	 edx, DWORD PTR _aIndex$[ebp]
  0003e	52		 push	 edx
  0003f	8b 4d fc	 mov	 ecx, DWORD PTR _this$[ebp]
  00042	e8 00 00 00 00	 call	 ?Add@CPacketCheckSum@@QAEHHHK@Z ; CPacketCheckSum::Add

; 139  : 
; 140  : 	if( m_ChecksumTableAllClearState )

  00047	8b 45 fc	 mov	 eax, DWORD PTR _this$[ebp]
  0004a	83 b8 c4 ef 09
	00 00		 cmp	 DWORD PTR [eax+651204], 0
  00051	74 05		 je	 SHORT $LN4@AddCheckSu

; 141  : 	{	// 모든 체크섬 정보가 다 모였다
; 142  : 		
; 143  : 	}

  00053	e9 9e 00 00 00	 jmp	 $LN1@AddCheckSu
$LN4@AddCheckSu:

; 144  : 	else if( m_ChecksumTableClearState[funcindex] )

  00058	8b 45 0c	 mov	 eax, DWORD PTR _funcindex$[ebp]
  0005b	8b 4d fc	 mov	 ecx, DWORD PTR _this$[ebp]
  0005e	83 bc 81 c8 ef
	09 00 00	 cmp	 DWORD PTR [ecx+eax*4+651208], 0
  00066	74 05		 je	 SHORT $LN6@AddCheckSu

; 145  : 	{	// 체크섬 정보가 다 모였다
; 146  : 	}

  00068	e9 89 00 00 00	 jmp	 $LN1@AddCheckSu
$LN6@AddCheckSu:

; 147  : 	else
; 148  : 	{
; 149  : 		m_ChecksumTableAVG[funcindex][m_ChecksumTableAVGCount[funcindex]%100] = checksum;

  0006d	69 45 0c 90 01
	00 00		 imul	 eax, DWORD PTR _funcindex$[ebp], 400
  00074	8b 4d fc	 mov	 ecx, DWORD PTR _this$[ebp]
  00077	8d 8c 01 78 f0
	09 00		 lea	 ecx, DWORD PTR [ecx+eax+651384]
  0007e	8b 55 0c	 mov	 edx, DWORD PTR _funcindex$[ebp]
  00081	8b 45 fc	 mov	 eax, DWORD PTR _this$[ebp]
  00084	8b 84 90 20 f0
	09 00		 mov	 eax, DWORD PTR [eax+edx*4+651296]
  0008b	99		 cdq
  0008c	be 64 00 00 00	 mov	 esi, 100		; 00000064H
  00091	f7 fe		 idiv	 esi
  00093	8b 45 10	 mov	 eax, DWORD PTR _checksum$[ebp]
  00096	89 04 91	 mov	 DWORD PTR [ecx+edx*4], eax

; 150  : 		m_ChecksumTableAVGCount[funcindex]++;

  00099	8b 45 0c	 mov	 eax, DWORD PTR _funcindex$[ebp]
  0009c	8b 4d fc	 mov	 ecx, DWORD PTR _this$[ebp]
  0009f	8b 94 81 20 f0
	09 00		 mov	 edx, DWORD PTR [ecx+eax*4+651296]
  000a6	83 c2 01	 add	 edx, 1
  000a9	8b 45 0c	 mov	 eax, DWORD PTR _funcindex$[ebp]
  000ac	8b 4d fc	 mov	 ecx, DWORD PTR _this$[ebp]
  000af	89 94 81 20 f0
	09 00		 mov	 DWORD PTR [ecx+eax*4+651296], edx

; 151  : 
; 152  : 		LogAddTD("Insert PacketCheckSum %d, %d,%d", funcindex, m_ChecksumTableAVGCount[funcindex], checksum);

  000b6	8b 45 10	 mov	 eax, DWORD PTR _checksum$[ebp]
  000b9	50		 push	 eax
  000ba	8b 4d 0c	 mov	 ecx, DWORD PTR _funcindex$[ebp]
  000bd	8b 55 fc	 mov	 edx, DWORD PTR _this$[ebp]
  000c0	8b 84 8a 20 f0
	09 00		 mov	 eax, DWORD PTR [edx+ecx*4+651296]
  000c7	50		 push	 eax
  000c8	8b 4d 0c	 mov	 ecx, DWORD PTR _funcindex$[ebp]
  000cb	51		 push	 ecx
  000cc	68 00 00 00 00	 push	 OFFSET ??_C@_0CA@PECEGPGE@Insert?5PacketCheckSum?5?$CFd?0?5?$CFd?0?$CFd@
  000d1	ff 15 00 00 00
	00		 call	 DWORD PTR ?LogAddTD@@3P6AXPADZZA ; LogAddTD
  000d7	83 c4 10	 add	 esp, 16			; 00000010H

; 153  : 
; 154  : 		if( m_ChecksumTableAVGCount[funcindex] >= MAX_PACKETCHECKSUM )

  000da	8b 45 0c	 mov	 eax, DWORD PTR _funcindex$[ebp]
  000dd	8b 4d fc	 mov	 ecx, DWORD PTR _this$[ebp]
  000e0	83 bc 81 20 f0
	09 00 64	 cmp	 DWORD PTR [ecx+eax*4+651296], 100 ; 00000064H
  000e8	7c 0c		 jl	 SHORT $LN1@AddCheckSu

; 155  : 		{			
; 156  : 			SetClearChecksumFunc(funcindex);

  000ea	8b 45 0c	 mov	 eax, DWORD PTR _funcindex$[ebp]
  000ed	50		 push	 eax
  000ee	8b 4d fc	 mov	 ecx, DWORD PTR _this$[ebp]
  000f1	e8 00 00 00 00	 call	 ?SetClearChecksumFunc@CPacketCheckSum@@QAEXH@Z ; CPacketCheckSum::SetClearChecksumFunc
$LN1@AddCheckSu:

; 157  : 		}
; 158  : 	}
; 159  : }

  000f6	5f		 pop	 edi
  000f7	5e		 pop	 esi
  000f8	5b		 pop	 ebx
  000f9	8b e5		 mov	 esp, ebp
  000fb	5d		 pop	 ebp
  000fc	c2 0c 00	 ret	 12			; 0000000cH
?AddCheckSum@CPacketCheckSum@@QAEXHHK@Z ENDP		; CPacketCheckSum::AddCheckSum
_TEXT	ENDS
; Function compile flags: /Odtp /ZI
; File C:\Mu Online\Mu-GS-Webzen-MC-10093\GameServer\PacketCheckSum.cpp
;	COMDAT ?Add@CPacketCheckSum@@QAEHHHK@Z
_TEXT	SEGMENT
_msg$1 = -264						; size = 255
_this$ = -8						; size = 4
__$ArrayPad$ = -4					; size = 4
_aIndex$ = 8						; size = 4
_funcindex$ = 12					; size = 4
_checksum$ = 16						; size = 4
?Add@CPacketCheckSum@@QAEHHHK@Z PROC			; CPacketCheckSum::Add, COMDAT
; _this$ = ecx

; 87   : {

  00000	55		 push	 ebp
  00001	8b ec		 mov	 ebp, esp
  00003	81 ec 48 01 00
	00		 sub	 esp, 328		; 00000148H
  00009	a1 00 00 00 00	 mov	 eax, DWORD PTR ___security_cookie
  0000e	33 c5		 xor	 eax, ebp
  00010	89 45 fc	 mov	 DWORD PTR __$ArrayPad$[ebp], eax
  00013	53		 push	 ebx
  00014	56		 push	 esi
  00015	57		 push	 edi
  00016	89 4d f8	 mov	 DWORD PTR _this$[ebp], ecx

; 88   : 	if( gObj[aIndex].m_InWebzen )

  00019	69 45 08 a0 1b
	00 00		 imul	 eax, DWORD PTR _aIndex$[ebp], 7072
  00020	8b 0d 00 00 00
	00		 mov	 ecx, DWORD PTR ?gObj@@3PAVOBJECTSTRUCT@@A ; gObj
  00026	0f b6 94 01 e8
	0e 00 00	 movzx	 edx, BYTE PTR [ecx+eax+3816]
  0002e	85 d2		 test	 edx, edx
  00030	74 0a		 je	 SHORT $LN2@Add

; 89   : 	{
; 90   : 		return TRUE;

  00032	b8 01 00 00 00	 mov	 eax, 1
  00037	e9 e1 00 00 00	 jmp	 $LN1@Add
$LN2@Add:

; 91   : 	}
; 92   : 
; 93   : 	if( !m_ChecksumTableAllClearState )

  0003c	8b 45 f8	 mov	 eax, DWORD PTR _this$[ebp]
  0003f	83 b8 c4 ef 09
	00 00		 cmp	 DWORD PTR [eax+651204], 0
  00046	75 1e		 jne	 SHORT $LN3@Add

; 94   : 	{
; 95   : 		PaketChecksum[aIndex].Check[funcindex] = checksum;

  00048	6b 45 08 58	 imul	 eax, DWORD PTR _aIndex$[ebp], 88
  0004c	8b 4d f8	 mov	 ecx, DWORD PTR _this$[ebp]
  0004f	8d 54 01 04	 lea	 edx, DWORD PTR [ecx+eax+4]
  00053	8b 45 0c	 mov	 eax, DWORD PTR _funcindex$[ebp]
  00056	8b 4d 10	 mov	 ecx, DWORD PTR _checksum$[ebp]
  00059	89 0c 82	 mov	 DWORD PTR [edx+eax*4], ecx

; 96   : 		return TRUE;

  0005c	b8 01 00 00 00	 mov	 eax, 1
  00061	e9 b7 00 00 00	 jmp	 $LN1@Add
$LN3@Add:

; 97   : 	}
; 98   : 
; 99   : 	if( m_ChecksumTable[funcindex] == checksum )

  00066	8b 45 0c	 mov	 eax, DWORD PTR _funcindex$[ebp]
  00069	8b 4d f8	 mov	 ecx, DWORD PTR _this$[ebp]
  0006c	8b 94 81 d8 12
	0a 00		 mov	 edx, DWORD PTR [ecx+eax*4+660184]
  00073	3b 55 10	 cmp	 edx, DWORD PTR _checksum$[ebp]
  00076	75 19		 jne	 SHORT $LN4@Add

; 100  : 	{
; 101  : #if TESTSERVER == 1
; 102  : 		LogAddTD("체크섬 들어 왔다 [%d][%s][%s] %d,%d", 
; 103  : 				 aIndex, gObj[aIndex].AccountID, gObj[aIndex].Name,funcindex, checksum);
; 104  : #endif
; 105  : 		PaketChecksum[aIndex].Check[funcindex] = checksum;

  00078	6b 45 08 58	 imul	 eax, DWORD PTR _aIndex$[ebp], 88
  0007c	8b 4d f8	 mov	 ecx, DWORD PTR _this$[ebp]
  0007f	8d 54 01 04	 lea	 edx, DWORD PTR [ecx+eax+4]
  00083	8b 45 0c	 mov	 eax, DWORD PTR _funcindex$[ebp]
  00086	8b 4d 10	 mov	 ecx, DWORD PTR _checksum$[ebp]
  00089	89 0c 82	 mov	 DWORD PTR [edx+eax*4], ecx

; 106  : 	}

  0008c	e9 87 00 00 00	 jmp	 $LN5@Add
$LN4@Add:

; 107  : 	else
; 108  : 	{
; 109  : #if TESTSERVER == 1
; 110  : 		GCServerMsgStringSend("패킷 CRC에러:주기적", aIndex, 1);	
; 111  : #endif
; 112  : 		LogAddTD("PacketCheckSum : Compare Fail : [%d][%s][%s] (%d,%u)", 

  00091	8b 45 10	 mov	 eax, DWORD PTR _checksum$[ebp]
  00094	50		 push	 eax
  00095	8b 4d 0c	 mov	 ecx, DWORD PTR _funcindex$[ebp]
  00098	51		 push	 ecx
  00099	69 55 08 a0 1b
	00 00		 imul	 edx, DWORD PTR _aIndex$[ebp], 7072
  000a0	a1 00 00 00 00	 mov	 eax, DWORD PTR ?gObj@@3PAVOBJECTSTRUCT@@A ; gObj
  000a5	8d 4c 10 73	 lea	 ecx, DWORD PTR [eax+edx+115]
  000a9	51		 push	 ecx
  000aa	69 55 08 a0 1b
	00 00		 imul	 edx, DWORD PTR _aIndex$[ebp], 7072
  000b1	a1 00 00 00 00	 mov	 eax, DWORD PTR ?gObj@@3PAVOBJECTSTRUCT@@A ; gObj
  000b6	8d 4c 10 68	 lea	 ecx, DWORD PTR [eax+edx+104]
  000ba	51		 push	 ecx
  000bb	8b 55 08	 mov	 edx, DWORD PTR _aIndex$[ebp]
  000be	52		 push	 edx
  000bf	68 00 00 00 00	 push	 OFFSET ??_C@_0DF@DNGJOMAF@PacketCheckSum?5?3?5Compare?5Fail?5?3@
  000c4	ff 15 00 00 00
	00		 call	 DWORD PTR ?LogAddTD@@3P6AXPADZZA ; LogAddTD
  000ca	83 c4 18	 add	 esp, 24			; 00000018H

; 113  : 				 aIndex, gObj[aIndex].AccountID, gObj[aIndex].Name,
; 114  : 				 funcindex, checksum);
; 115  : 
; 116  : #ifdef HACK_LOG	
; 117  : 		char msg[255];
; 118  : 		wsprintf(msg, "PacketCheckSum : Compare Fail : (%d,%u)", funcindex, checksum);

  000cd	8b 45 10	 mov	 eax, DWORD PTR _checksum$[ebp]
  000d0	50		 push	 eax
  000d1	8b 4d 0c	 mov	 ecx, DWORD PTR _funcindex$[ebp]
  000d4	51		 push	 ecx
  000d5	68 00 00 00 00	 push	 OFFSET ??_C@_0CI@BJNFEPPN@PacketCheckSum?5?3?5Compare?5Fail?5?3@
  000da	8d 95 f8 fe ff
	ff		 lea	 edx, DWORD PTR _msg$1[ebp]
  000e0	52		 push	 edx
  000e1	ff 15 00 00 00
	00		 call	 DWORD PTR __imp__wsprintfA
  000e7	83 c4 10	 add	 esp, 16			; 00000010H

; 119  : 		gSendHackLog.Send(aIndex, 1, msg);

  000ea	8d 85 f8 fe ff
	ff		 lea	 eax, DWORD PTR _msg$1[ebp]
  000f0	50		 push	 eax
  000f1	6a 01		 push	 1
  000f3	8b 4d 08	 mov	 ecx, DWORD PTR _aIndex$[ebp]
  000f6	51		 push	 ecx
  000f7	b9 00 00 00 00	 mov	 ecx, OFFSET ?gSendHackLog@@3VCSendHackLog@@A ; gSendHackLog
  000fc	e8 00 00 00 00	 call	 ?Send@CSendHackLog@@QAEXHEPAD@Z ; CSendHackLog::Send

; 120  : 
; 121  : 		if( gDisconnectHackUser )

  00101	83 3d 00 00 00
	00 00		 cmp	 DWORD PTR ?gDisconnectHackUser@@3HA, 0 ; gDisconnectHackUser
  00108	74 0e		 je	 SHORT $LN5@Add

; 122  : 		{
; 123  : 			gObjCloseSet(aIndex, CL_EXIT);	

  0010a	6a 00		 push	 0
  0010c	8b 45 08	 mov	 eax, DWORD PTR _aIndex$[ebp]
  0010f	50		 push	 eax
  00110	e8 00 00 00 00	 call	 ?gObjCloseSet@@YAXHH@Z	; gObjCloseSet
  00115	83 c4 08	 add	 esp, 8
$LN5@Add:

; 124  : 		}
; 125  : #endif
; 126  : 	}
; 127  : 	return TRUE;

  00118	b8 01 00 00 00	 mov	 eax, 1
$LN1@Add:

; 128  : }

  0011d	5f		 pop	 edi
  0011e	5e		 pop	 esi
  0011f	5b		 pop	 ebx
  00120	8b 4d fc	 mov	 ecx, DWORD PTR __$ArrayPad$[ebp]
  00123	33 cd		 xor	 ecx, ebp
  00125	e8 00 00 00 00	 call	 @__security_check_cookie@4
  0012a	8b e5		 mov	 esp, ebp
  0012c	5d		 pop	 ebp
  0012d	c2 0c 00	 ret	 12			; 0000000cH
?Add@CPacketCheckSum@@QAEHHHK@Z ENDP			; CPacketCheckSum::Add
_TEXT	ENDS
; Function compile flags: /Odtp /ZI
; File C:\Mu Online\Mu-GS-Webzen-MC-10093\GameServer\PacketCheckSum.cpp
;	COMDAT ?ClearCheckSum@CPacketCheckSum@@QAEXH@Z
_TEXT	SEGMENT
_this$ = -4						; size = 4
_aIndex$ = 8						; size = 4
?ClearCheckSum@CPacketCheckSum@@QAEXH@Z PROC		; CPacketCheckSum::ClearCheckSum, COMDAT
; _this$ = ecx

; 82   : {

  00000	55		 push	 ebp
  00001	8b ec		 mov	 ebp, esp
  00003	83 ec 44	 sub	 esp, 68			; 00000044H
  00006	53		 push	 ebx
  00007	56		 push	 esi
  00008	57		 push	 edi
  00009	89 4d fc	 mov	 DWORD PTR _this$[ebp], ecx

; 83   : 	memset(&PaketChecksum[aIndex], 0, sizeof(PAKETCHECKSUM));

  0000c	6a 58		 push	 88			; 00000058H
  0000e	6a 00		 push	 0
  00010	6b 45 08 58	 imul	 eax, DWORD PTR _aIndex$[ebp], 88
  00014	8b 4d fc	 mov	 ecx, DWORD PTR _this$[ebp]
  00017	8d 54 01 04	 lea	 edx, DWORD PTR [ecx+eax+4]
  0001b	52		 push	 edx
  0001c	e8 00 00 00 00	 call	 _memset
  00021	83 c4 0c	 add	 esp, 12			; 0000000cH

; 84   : }

  00024	5f		 pop	 edi
  00025	5e		 pop	 esi
  00026	5b		 pop	 ebx
  00027	8b e5		 mov	 esp, ebp
  00029	5d		 pop	 ebp
  0002a	c2 04 00	 ret	 4
?ClearCheckSum@CPacketCheckSum@@QAEXH@Z ENDP		; CPacketCheckSum::ClearCheckSum
_TEXT	ENDS
; Function compile flags: /Odtp /ZI
; File C:\Mu Online\Mu-GS-Webzen-MC-10093\GameServer\PacketCheckSum.cpp
;	COMDAT ?Check@CPacketCheckSum@@QAEXH@Z
_TEXT	SEGMENT
_msg$1 = -268						; size = 255
_i$2 = -12						; size = 4
_this$ = -8						; size = 4
__$ArrayPad$ = -4					; size = 4
_aIndex$ = 8						; size = 4
?Check@CPacketCheckSum@@QAEXH@Z PROC			; CPacketCheckSum::Check, COMDAT
; _this$ = ecx

; 49   : {

  00000	55		 push	 ebp
  00001	8b ec		 mov	 ebp, esp
  00003	81 ec 4c 01 00
	00		 sub	 esp, 332		; 0000014cH
  00009	a1 00 00 00 00	 mov	 eax, DWORD PTR ___security_cookie
  0000e	33 c5		 xor	 eax, ebp
  00010	89 45 fc	 mov	 DWORD PTR __$ArrayPad$[ebp], eax
  00013	53		 push	 ebx
  00014	56		 push	 esi
  00015	57		 push	 edi
  00016	89 4d f8	 mov	 DWORD PTR _this$[ebp], ecx

; 50   : 	if( gObj[aIndex].m_InWebzen )

  00019	69 45 08 a0 1b
	00 00		 imul	 eax, DWORD PTR _aIndex$[ebp], 7072
  00020	8b 0d 00 00 00
	00		 mov	 ecx, DWORD PTR ?gObj@@3PAVOBJECTSTRUCT@@A ; gObj
  00026	0f b6 94 01 e8
	0e 00 00	 movzx	 edx, BYTE PTR [ecx+eax+3816]
  0002e	85 d2		 test	 edx, edx
  00030	74 05		 je	 SHORT $LN5@Check

; 51   : 	{
; 52   : 		return;

  00032	e9 0a 01 00 00	 jmp	 $LN1@Check
$LN5@Check:

; 53   : 	}
; 54   : 
; 55   : 	for( int i = 0; i < MAX_PACKETCHECKSUMFUNC_COUNT; i++ )

  00037	c7 45 f4 00 00
	00 00		 mov	 DWORD PTR _i$2[ebp], 0
  0003e	eb 09		 jmp	 SHORT $LN4@Check
$LN2@Check:
  00040	8b 45 f4	 mov	 eax, DWORD PTR _i$2[ebp]
  00043	83 c0 01	 add	 eax, 1
  00046	89 45 f4	 mov	 DWORD PTR _i$2[ebp], eax
$LN4@Check:
  00049	83 7d f4 16	 cmp	 DWORD PTR _i$2[ebp], 22	; 00000016H
  0004d	0f 8d ac 00 00
	00		 jge	 $LN3@Check

; 56   : 	{
; 57   : 		if( PaketChecksum[aIndex].Check[i] == 0 )

  00053	6b 45 08 58	 imul	 eax, DWORD PTR _aIndex$[ebp], 88
  00057	8b 4d f8	 mov	 ecx, DWORD PTR _this$[ebp]
  0005a	8d 54 01 04	 lea	 edx, DWORD PTR [ecx+eax+4]
  0005e	8b 45 f4	 mov	 eax, DWORD PTR _i$2[ebp]
  00061	83 3c 82 00	 cmp	 DWORD PTR [edx+eax*4], 0
  00065	0f 85 8f 00 00
	00		 jne	 $LN6@Check

; 58   : 		{	// 패킷이 안들어 왔다
; 59   : #if TESTSERVER == 1
; 60   : 			GCServerMsgStringSend("패킷 CRC에러:3분에 한번씩하는거", aIndex, 1);
; 61   : #endif			
; 62   : 			LogAddTD("PacketCheckSum Error [%d][%s][%s] %d", aIndex, gObj[aIndex].AccountID, gObj[aIndex].Name, i);

  0006b	8b 45 f4	 mov	 eax, DWORD PTR _i$2[ebp]
  0006e	50		 push	 eax
  0006f	69 4d 08 a0 1b
	00 00		 imul	 ecx, DWORD PTR _aIndex$[ebp], 7072
  00076	8b 15 00 00 00
	00		 mov	 edx, DWORD PTR ?gObj@@3PAVOBJECTSTRUCT@@A ; gObj
  0007c	8d 44 0a 73	 lea	 eax, DWORD PTR [edx+ecx+115]
  00080	50		 push	 eax
  00081	69 4d 08 a0 1b
	00 00		 imul	 ecx, DWORD PTR _aIndex$[ebp], 7072
  00088	8b 15 00 00 00
	00		 mov	 edx, DWORD PTR ?gObj@@3PAVOBJECTSTRUCT@@A ; gObj
  0008e	8d 44 0a 68	 lea	 eax, DWORD PTR [edx+ecx+104]
  00092	50		 push	 eax
  00093	8b 4d 08	 mov	 ecx, DWORD PTR _aIndex$[ebp]
  00096	51		 push	 ecx
  00097	68 00 00 00 00	 push	 OFFSET ??_C@_0CF@IAFFJAHO@PacketCheckSum?5Error?5?$FL?$CFd?$FN?$FL?$CFs?$FN?$FL?$CF@
  0009c	ff 15 00 00 00
	00		 call	 DWORD PTR ?LogAddTD@@3P6AXPADZZA ; LogAddTD
  000a2	83 c4 14	 add	 esp, 20			; 00000014H

; 63   : #ifdef HACK_LOG	
; 64   : 			char msg[255];
; 65   : 			wsprintf(msg, "PacketCheckSum Error %d", i);

  000a5	8b 45 f4	 mov	 eax, DWORD PTR _i$2[ebp]
  000a8	50		 push	 eax
  000a9	68 00 00 00 00	 push	 OFFSET ??_C@_0BI@GEHHKNPN@PacketCheckSum?5Error?5?$CFd@
  000ae	8d 8d f4 fe ff
	ff		 lea	 ecx, DWORD PTR _msg$1[ebp]
  000b4	51		 push	 ecx
  000b5	ff 15 00 00 00
	00		 call	 DWORD PTR __imp__wsprintfA
  000bb	83 c4 0c	 add	 esp, 12			; 0000000cH

; 66   : 			gSendHackLog.Send(aIndex, 1, msg);

  000be	8d 85 f4 fe ff
	ff		 lea	 eax, DWORD PTR _msg$1[ebp]
  000c4	50		 push	 eax
  000c5	6a 01		 push	 1
  000c7	8b 4d 08	 mov	 ecx, DWORD PTR _aIndex$[ebp]
  000ca	51		 push	 ecx
  000cb	b9 00 00 00 00	 mov	 ecx, OFFSET ?gSendHackLog@@3VCSendHackLog@@A ; gSendHackLog
  000d0	e8 00 00 00 00	 call	 ?Send@CSendHackLog@@QAEXHEPAD@Z ; CSendHackLog::Send

; 67   : #endif
; 68   : 			ClearCheckSum(aIndex);

  000d5	8b 45 08	 mov	 eax, DWORD PTR _aIndex$[ebp]
  000d8	50		 push	 eax
  000d9	8b 4d f8	 mov	 ecx, DWORD PTR _this$[ebp]
  000dc	e8 00 00 00 00	 call	 ?ClearCheckSum@CPacketCheckSum@@QAEXH@Z ; CPacketCheckSum::ClearCheckSum

; 69   : 			
; 70   : 			if( gDisconnectHackUser )

  000e1	83 3d 00 00 00
	00 00		 cmp	 DWORD PTR ?gDisconnectHackUser@@3HA, 0 ; gDisconnectHackUser
  000e8	74 0e		 je	 SHORT $LN7@Check

; 71   : 			{
; 72   : 				gObjCloseSet(aIndex, CL_EXIT);	

  000ea	6a 00		 push	 0
  000ec	8b 45 08	 mov	 eax, DWORD PTR _aIndex$[ebp]
  000ef	50		 push	 eax
  000f0	e8 00 00 00 00	 call	 ?gObjCloseSet@@YAXHH@Z	; gObjCloseSet
  000f5	83 c4 08	 add	 esp, 8
$LN7@Check:

; 73   : 			}
; 74   : 			return;

  000f8	eb 47		 jmp	 SHORT $LN1@Check
$LN6@Check:

; 75   : 		}
; 76   : 	}

  000fa	e9 41 ff ff ff	 jmp	 $LN2@Check
$LN3@Check:

; 77   : 	LogAddTD("Check PacketCheckSum [%d][%s][%s]", aIndex, gObj[aIndex].AccountID, gObj[aIndex].Name);

  000ff	69 45 08 a0 1b
	00 00		 imul	 eax, DWORD PTR _aIndex$[ebp], 7072
  00106	8b 0d 00 00 00
	00		 mov	 ecx, DWORD PTR ?gObj@@3PAVOBJECTSTRUCT@@A ; gObj
  0010c	8d 54 01 73	 lea	 edx, DWORD PTR [ecx+eax+115]
  00110	52		 push	 edx
  00111	69 45 08 a0 1b
	00 00		 imul	 eax, DWORD PTR _aIndex$[ebp], 7072
  00118	8b 0d 00 00 00
	00		 mov	 ecx, DWORD PTR ?gObj@@3PAVOBJECTSTRUCT@@A ; gObj
  0011e	8d 54 01 68	 lea	 edx, DWORD PTR [ecx+eax+104]
  00122	52		 push	 edx
  00123	8b 45 08	 mov	 eax, DWORD PTR _aIndex$[ebp]
  00126	50		 push	 eax
  00127	68 00 00 00 00	 push	 OFFSET ??_C@_0CC@EPIDCKHF@Check?5PacketCheckSum?5?$FL?$CFd?$FN?$FL?$CFs?$FN?$FL?$CF@
  0012c	ff 15 00 00 00
	00		 call	 DWORD PTR ?LogAddTD@@3P6AXPADZZA ; LogAddTD
  00132	83 c4 10	 add	 esp, 16			; 00000010H

; 78   : 	ClearCheckSum(aIndex);

  00135	8b 45 08	 mov	 eax, DWORD PTR _aIndex$[ebp]
  00138	50		 push	 eax
  00139	8b 4d f8	 mov	 ecx, DWORD PTR _this$[ebp]
  0013c	e8 00 00 00 00	 call	 ?ClearCheckSum@CPacketCheckSum@@QAEXH@Z ; CPacketCheckSum::ClearCheckSum
$LN1@Check:

; 79   : }

  00141	5f		 pop	 edi
  00142	5e		 pop	 esi
  00143	5b		 pop	 ebx
  00144	8b 4d fc	 mov	 ecx, DWORD PTR __$ArrayPad$[ebp]
  00147	33 cd		 xor	 ecx, ebp
  00149	e8 00 00 00 00	 call	 @__security_check_cookie@4
  0014e	8b e5		 mov	 esp, ebp
  00150	5d		 pop	 ebp
  00151	c2 04 00	 ret	 4
?Check@CPacketCheckSum@@QAEXH@Z ENDP			; CPacketCheckSum::Check
_TEXT	ENDS
; Function compile flags: /Odtp /ZI
; File C:\Mu Online\Mu-GS-Webzen-MC-10093\GameServer\PacketCheckSum.cpp
;	COMDAT ?Init@CPacketCheckSum@@QAEXXZ
_TEXT	SEGMENT
_this$ = -4						; size = 4
?Init@CPacketCheckSum@@QAEXXZ PROC			; CPacketCheckSum::Init, COMDAT
; _this$ = ecx

; 39   : {	

  00000	55		 push	 ebp
  00001	8b ec		 mov	 ebp, esp
  00003	83 ec 44	 sub	 esp, 68			; 00000044H
  00006	53		 push	 ebx
  00007	56		 push	 esi
  00008	57		 push	 edi
  00009	89 4d fc	 mov	 DWORD PTR _this$[ebp], ecx

; 40   : 	m_ChecksumTableAllClearState = 0;

  0000c	8b 45 fc	 mov	 eax, DWORD PTR _this$[ebp]
  0000f	c7 80 c4 ef 09
	00 00 00 00 00	 mov	 DWORD PTR [eax+651204], 0

; 41   : 	memset(m_ChecksumTableClearState, 0, sizeof(m_ChecksumTableClearState));

  00019	6a 58		 push	 88			; 00000058H
  0001b	6a 00		 push	 0
  0001d	8b 45 fc	 mov	 eax, DWORD PTR _this$[ebp]
  00020	05 c8 ef 09 00	 add	 eax, 651208		; 0009efc8H
  00025	50		 push	 eax
  00026	e8 00 00 00 00	 call	 _memset
  0002b	83 c4 0c	 add	 esp, 12			; 0000000cH

; 42   : 	memset(m_ChecksumTableAVGCount, 0, sizeof(m_ChecksumTableAVGCount));

  0002e	6a 58		 push	 88			; 00000058H
  00030	6a 00		 push	 0
  00032	8b 45 fc	 mov	 eax, DWORD PTR _this$[ebp]
  00035	05 20 f0 09 00	 add	 eax, 651296		; 0009f020H
  0003a	50		 push	 eax
  0003b	e8 00 00 00 00	 call	 _memset
  00040	83 c4 0c	 add	 esp, 12			; 0000000cH

; 43   : 	memset(m_ChecksumTableAVG, 0, sizeof(m_ChecksumTableAVG));

  00043	68 60 22 00 00	 push	 8800			; 00002260H
  00048	6a 00		 push	 0
  0004a	8b 45 fc	 mov	 eax, DWORD PTR _this$[ebp]
  0004d	05 78 f0 09 00	 add	 eax, 651384		; 0009f078H
  00052	50		 push	 eax
  00053	e8 00 00 00 00	 call	 _memset
  00058	83 c4 0c	 add	 esp, 12			; 0000000cH

; 44   : 
; 45   : 	memset(PaketChecksum, 0, sizeof(PaketChecksum));

  0005b	68 c0 ef 09 00	 push	 651200			; 0009efc0H
  00060	6a 00		 push	 0
  00062	8b 45 fc	 mov	 eax, DWORD PTR _this$[ebp]
  00065	83 c0 04	 add	 eax, 4
  00068	50		 push	 eax
  00069	e8 00 00 00 00	 call	 _memset
  0006e	83 c4 0c	 add	 esp, 12			; 0000000cH

; 46   : }

  00071	5f		 pop	 edi
  00072	5e		 pop	 esi
  00073	5b		 pop	 ebx
  00074	8b e5		 mov	 esp, ebp
  00076	5d		 pop	 ebp
  00077	c3		 ret	 0
?Init@CPacketCheckSum@@QAEXXZ ENDP			; CPacketCheckSum::Init
_TEXT	ENDS
; Function compile flags: /Odtp /ZI
; File C:\Mu Online\Mu-GS-Webzen-MC-10093\GameServer\PacketCheckSum.cpp
;	COMDAT ??1CPacketCheckSum@@UAE@XZ
_TEXT	SEGMENT
_this$ = -4						; size = 4
??1CPacketCheckSum@@UAE@XZ PROC				; CPacketCheckSum::~CPacketCheckSum, COMDAT
; _this$ = ecx

; 34   : {

  00000	55		 push	 ebp
  00001	8b ec		 mov	 ebp, esp
  00003	83 ec 44	 sub	 esp, 68			; 00000044H
  00006	53		 push	 ebx
  00007	56		 push	 esi
  00008	57		 push	 edi
  00009	89 4d fc	 mov	 DWORD PTR _this$[ebp], ecx
  0000c	8b 45 fc	 mov	 eax, DWORD PTR _this$[ebp]
  0000f	c7 00 00 00 00
	00		 mov	 DWORD PTR [eax], OFFSET ??_7CPacketCheckSum@@6B@

; 35   : 
; 36   : }

  00015	5f		 pop	 edi
  00016	5e		 pop	 esi
  00017	5b		 pop	 ebx
  00018	8b e5		 mov	 esp, ebp
  0001a	5d		 pop	 ebp
  0001b	c3		 ret	 0
??1CPacketCheckSum@@UAE@XZ ENDP				; CPacketCheckSum::~CPacketCheckSum
_TEXT	ENDS
; Function compile flags: /Odtp /ZI
; File C:\Mu Online\Mu-GS-Webzen-MC-10093\GameServer\PacketCheckSum.cpp
;	COMDAT ??0CPacketCheckSum@@QAE@XZ
_TEXT	SEGMENT
_this$ = -4						; size = 4
??0CPacketCheckSum@@QAE@XZ PROC				; CPacketCheckSum::CPacketCheckSum, COMDAT
; _this$ = ecx

; 29   : {

  00000	55		 push	 ebp
  00001	8b ec		 mov	 ebp, esp
  00003	83 ec 44	 sub	 esp, 68			; 00000044H
  00006	53		 push	 ebx
  00007	56		 push	 esi
  00008	57		 push	 edi
  00009	89 4d fc	 mov	 DWORD PTR _this$[ebp], ecx
  0000c	8b 45 fc	 mov	 eax, DWORD PTR _this$[ebp]
  0000f	c7 00 00 00 00
	00		 mov	 DWORD PTR [eax], OFFSET ??_7CPacketCheckSum@@6B@

; 30   : 	Init();

  00015	8b 4d fc	 mov	 ecx, DWORD PTR _this$[ebp]
  00018	e8 00 00 00 00	 call	 ?Init@CPacketCheckSum@@QAEXXZ ; CPacketCheckSum::Init

; 31   : }

  0001d	8b 45 fc	 mov	 eax, DWORD PTR _this$[ebp]
  00020	5f		 pop	 edi
  00021	5e		 pop	 esi
  00022	5b		 pop	 ebx
  00023	8b e5		 mov	 esp, ebp
  00025	5d		 pop	 ebp
  00026	c3		 ret	 0
??0CPacketCheckSum@@QAE@XZ ENDP				; CPacketCheckSum::CPacketCheckSum
_TEXT	ENDS
; Function compile flags: /Odtp /ZI
; File C:\Mu Online\Mu-GS-Webzen-MC-10093\GameServer\PacketCheckSum.cpp
;	COMDAT ?__empty_global_delete@@YAXPAXI@Z
_TEXT	SEGMENT
___formal$ = 8						; size = 4
___formal$ = 12						; size = 4
?__empty_global_delete@@YAXPAXI@Z PROC			; __empty_global_delete, COMDAT

  00000	55		 push	 ebp
  00001	8b ec		 mov	 ebp, esp
  00003	83 ec 40	 sub	 esp, 64			; 00000040H
  00006	53		 push	 ebx
  00007	56		 push	 esi
  00008	57		 push	 edi
  00009	5f		 pop	 edi
  0000a	5e		 pop	 esi
  0000b	5b		 pop	 ebx
  0000c	8b e5		 mov	 esp, ebp
  0000e	5d		 pop	 ebp
  0000f	c3		 ret	 0
?__empty_global_delete@@YAXPAXI@Z ENDP			; __empty_global_delete
_TEXT	ENDS
; Function compile flags: /Odtp /ZI
; File C:\Mu Online\Mu-GS-Webzen-MC-10093\GameServer\PacketCheckSum.cpp
;	COMDAT ?__empty_global_delete@@YAXPAX@Z
_TEXT	SEGMENT
___formal$ = 8						; size = 4
?__empty_global_delete@@YAXPAX@Z PROC			; __empty_global_delete, COMDAT

  00000	55		 push	 ebp
  00001	8b ec		 mov	 ebp, esp
  00003	83 ec 40	 sub	 esp, 64			; 00000040H
  00006	53		 push	 ebx
  00007	56		 push	 esi
  00008	57		 push	 edi
  00009	5f		 pop	 edi
  0000a	5e		 pop	 esi
  0000b	5b		 pop	 ebx
  0000c	8b e5		 mov	 esp, ebp
  0000e	5d		 pop	 ebp
  0000f	c3		 ret	 0
?__empty_global_delete@@YAXPAX@Z ENDP			; __empty_global_delete
_TEXT	ENDS
END
