; Listing generated by Microsoft (R) Optimizing Compiler Version 19.27.29111.0 

	TITLE	C:\Mu Online\Mu-GS-Webzen-MC-10093\GameServer\PartyClass.cpp
	.686P
	.XMM
	include listing.inc
	.model	flat

INCLUDELIB LIBCMT
INCLUDELIB OLDNAMES

PUBLIC	?__empty_global_delete@@YAXPAX@Z		; __empty_global_delete
PUBLIC	?__empty_global_delete@@YAXPAXI@Z		; __empty_global_delete
PUBLIC	??0PartyClass@@QAE@XZ				; PartyClass::PartyClass
PUBLIC	??1PartyClass@@UAE@XZ				; PartyClass::~PartyClass
PUBLIC	?IsParty@PartyClass@@QAEHH@Z			; PartyClass::IsParty
PUBLIC	?Create@PartyClass@@QAEHHHH@Z			; PartyClass::Create
PUBLIC	?Destroy@PartyClass@@QAEHH@Z			; PartyClass::Destroy
PUBLIC	?Add@PartyClass@@QAEHHHHH@Z			; PartyClass::Add
PUBLIC	?Delete@PartyClass@@QAEHHHH@Z			; PartyClass::Delete
PUBLIC	?Delete@PartyClass@@QAEXHH@Z			; PartyClass::Delete
PUBLIC	?GetCount@PartyClass@@QAEHH@Z			; PartyClass::GetCount
PUBLIC	?GetIndexUser@PartyClass@@QAEHHHAAH0@Z		; PartyClass::GetIndexUser
PUBLIC	?GetPartyCount@PartyClass@@QAEHH@Z		; PartyClass::GetPartyCount
PUBLIC	?GetIndex@PartyClass@@QAEHHHH@Z			; PartyClass::GetIndex
PUBLIC	?SetLevel@PartyClass@@QAEHHH@Z			; PartyClass::SetLevel
PUBLIC	?GetLevel@PartyClass@@QAEHHAAH0@Z		; PartyClass::GetLevel
PUBLIC	?Isleader@PartyClass@@QAEHHHH@Z			; PartyClass::Isleader
PUBLIC	?Paint@PartyClass@@QAEXH@Z			; PartyClass::Paint
PUBLIC	?PartyMemberLifeSend@PartyClass@@QAEXH@Z	; PartyClass::PartyMemberLifeSend
PUBLIC	??_GPartyClass@@UAEPAXI@Z			; PartyClass::`scalar deleting destructor'
PUBLIC	??_7PartyClass@@6B@				; PartyClass::`vftable'
PUBLIC	??_C@_0BC@JDIKBIFA@PartyMember?$CI?$CFd?$CJ?5?3@ ; `string'
PUBLIC	??_C@_01OHGJGJJP@?$FL@				; `string'
PUBLIC	??_C@_02DNJFBPJB@?$FN?$FL@			; `string'
PUBLIC	??_C@_03EDAPGMLK@?$FN?0?5@			; `string'
PUBLIC	??_R4PartyClass@@6B@				; PartyClass::`RTTI Complete Object Locator'
PUBLIC	??_R0?AVPartyClass@@@8				; PartyClass `RTTI Type Descriptor'
PUBLIC	??_R3PartyClass@@8				; PartyClass::`RTTI Class Hierarchy Descriptor'
PUBLIC	??_R2PartyClass@@8				; PartyClass::`RTTI Base Class Array'
PUBLIC	??_R1A@?0A@EA@PartyClass@@8			; PartyClass::`RTTI Base Class Descriptor at (0,-1,0,64)'
PUBLIC	__real@41200000
EXTRN	??3@YAXPAXI@Z:PROC				; operator delete
EXTRN	_memcpy:PROC
EXTRN	_strcat:PROC
EXTRN	__imp__wsprintfA:PROC
EXTRN	?DataSend@@YAHHPAEK@Z:PROC			; DataSend
EXTRN	?gObjIsConnected@@YAHH@Z:PROC			; gObjIsConnected
EXTRN	?PHeadSetB@@YAXPAEEH@Z:PROC			; PHeadSetB
EXTRN	??_EPartyClass@@UAEPAXI@Z:PROC			; PartyClass::`vector deleting destructor'
EXTRN	@__security_check_cookie@4:PROC
EXTRN	??_7type_info@@6B@:QWORD			; type_info::`vftable'
EXTRN	?LogAddTD@@3P6AXPADZZA:DWORD			; LogAddTD
EXTRN	?gObj@@3PAVOBJECTSTRUCT@@A:DWORD		; gObj
EXTRN	___security_cookie:DWORD
EXTRN	__fltused:DWORD
;	COMDAT __real@41200000
CONST	SEGMENT
__real@41200000 DD 041200000r			; 10
CONST	ENDS
;	COMDAT ??_R1A@?0A@EA@PartyClass@@8
rdata$r	SEGMENT
??_R1A@?0A@EA@PartyClass@@8 DD FLAT:??_R0?AVPartyClass@@@8 ; PartyClass::`RTTI Base Class Descriptor at (0,-1,0,64)'
	DD	00H
	DD	00H
	DD	0ffffffffH
	DD	00H
	DD	040H
	DD	FLAT:??_R3PartyClass@@8
rdata$r	ENDS
;	COMDAT ??_R2PartyClass@@8
rdata$r	SEGMENT
??_R2PartyClass@@8 DD FLAT:??_R1A@?0A@EA@PartyClass@@8	; PartyClass::`RTTI Base Class Array'
rdata$r	ENDS
;	COMDAT ??_R3PartyClass@@8
rdata$r	SEGMENT
??_R3PartyClass@@8 DD 00H				; PartyClass::`RTTI Class Hierarchy Descriptor'
	DD	00H
	DD	01H
	DD	FLAT:??_R2PartyClass@@8
rdata$r	ENDS
;	COMDAT ??_R0?AVPartyClass@@@8
data$r	SEGMENT
??_R0?AVPartyClass@@@8 DD FLAT:??_7type_info@@6B@	; PartyClass `RTTI Type Descriptor'
	DD	00H
	DB	'.?AVPartyClass@@', 00H
data$r	ENDS
;	COMDAT ??_R4PartyClass@@6B@
rdata$r	SEGMENT
??_R4PartyClass@@6B@ DD 00H				; PartyClass::`RTTI Complete Object Locator'
	DD	00H
	DD	00H
	DD	FLAT:??_R0?AVPartyClass@@@8
	DD	FLAT:??_R3PartyClass@@8
rdata$r	ENDS
;	COMDAT ??_C@_03EDAPGMLK@?$FN?0?5@
CONST	SEGMENT
??_C@_03EDAPGMLK@?$FN?0?5@ DB '], ', 00H		; `string'
CONST	ENDS
;	COMDAT ??_C@_02DNJFBPJB@?$FN?$FL@
CONST	SEGMENT
??_C@_02DNJFBPJB@?$FN?$FL@ DB '][', 00H			; `string'
CONST	ENDS
;	COMDAT ??_C@_01OHGJGJJP@?$FL@
CONST	SEGMENT
??_C@_01OHGJGJJP@?$FL@ DB '[', 00H			; `string'
CONST	ENDS
;	COMDAT ??_C@_0BC@JDIKBIFA@PartyMember?$CI?$CFd?$CJ?5?3@
CONST	SEGMENT
??_C@_0BC@JDIKBIFA@PartyMember?$CI?$CFd?$CJ?5?3@ DB 'PartyMember(%d) :', 00H ; `string'
CONST	ENDS
;	COMDAT ??_7PartyClass@@6B@
CONST	SEGMENT
??_7PartyClass@@6B@ DD FLAT:??_R4PartyClass@@6B@	; PartyClass::`vftable'
	DD	FLAT:??_EPartyClass@@UAEPAXI@Z
CONST	ENDS
; Function compile flags: /Odtp /ZI
;	COMDAT ??_GPartyClass@@UAEPAXI@Z
_TEXT	SEGMENT
_this$ = -4						; size = 4
___flags$ = 8						; size = 4
??_GPartyClass@@UAEPAXI@Z PROC				; PartyClass::`scalar deleting destructor', COMDAT
; _this$ = ecx
  00000	55		 push	 ebp
  00001	8b ec		 mov	 ebp, esp
  00003	83 ec 44	 sub	 esp, 68			; 00000044H
  00006	53		 push	 ebx
  00007	56		 push	 esi
  00008	57		 push	 edi
  00009	89 4d fc	 mov	 DWORD PTR _this$[ebp], ecx
  0000c	8b 4d fc	 mov	 ecx, DWORD PTR _this$[ebp]
  0000f	e8 00 00 00 00	 call	 ??1PartyClass@@UAE@XZ	; PartyClass::~PartyClass
  00014	8b 45 08	 mov	 eax, DWORD PTR ___flags$[ebp]
  00017	83 e0 01	 and	 eax, 1
  0001a	74 11		 je	 SHORT $LN2@scalar
  0001c	68 88 6c 05 00	 push	 355464			; 00056c88H
  00021	8b 45 fc	 mov	 eax, DWORD PTR _this$[ebp]
  00024	50		 push	 eax
  00025	e8 00 00 00 00	 call	 ??3@YAXPAXI@Z		; operator delete
  0002a	83 c4 08	 add	 esp, 8
$LN2@scalar:
  0002d	8b 45 fc	 mov	 eax, DWORD PTR _this$[ebp]
  00030	5f		 pop	 edi
  00031	5e		 pop	 esi
  00032	5b		 pop	 ebx
  00033	8b e5		 mov	 esp, ebp
  00035	5d		 pop	 ebp
  00036	c2 04 00	 ret	 4
??_GPartyClass@@UAEPAXI@Z ENDP				; PartyClass::`scalar deleting destructor'
_TEXT	ENDS
; Function compile flags: /Odtp /ZI
; File C:\Mu Online\Mu-GS-Webzen-MC-10093\GameServer\PartyClass.cpp
;	COMDAT ?PartyMemberLifeSend@PartyClass@@QAEXH@Z
_TEXT	SEGMENT
_i$1 = -548						; size = 4
_i$2 = -544						; size = 4
_tlife$ = -540						; size = 4
_lOfs$ = -536						; size = 4
_sendbuf$ = -532					; size = 512
_usern$ = -20						; size = 4
_pList$ = -13						; size = 1
_pCount$ = -12						; size = 4
_this$ = -8						; size = 4
__$ArrayPad$ = -4					; size = 4
_party_number$ = 8					; size = 4
?PartyMemberLifeSend@PartyClass@@QAEXH@Z PROC		; PartyClass::PartyMemberLifeSend, COMDAT
; _this$ = ecx

; 327  : {

  00000	55		 push	 ebp
  00001	8b ec		 mov	 ebp, esp
  00003	81 ec a4 02 00
	00		 sub	 esp, 676		; 000002a4H
  00009	a1 00 00 00 00	 mov	 eax, DWORD PTR ___security_cookie
  0000e	33 c5		 xor	 eax, ebp
  00010	89 45 fc	 mov	 DWORD PTR __$ArrayPad$[ebp], eax
  00013	53		 push	 ebx
  00014	56		 push	 esi
  00015	57		 push	 edi
  00016	89 4d f8	 mov	 DWORD PTR _this$[ebp], ecx

; 328  : 	if( IsParty(party_number) == FALSE ) return;

  00019	8b 45 08	 mov	 eax, DWORD PTR _party_number$[ebp]
  0001c	50		 push	 eax
  0001d	8b 4d f8	 mov	 ecx, DWORD PTR _this$[ebp]
  00020	e8 00 00 00 00	 call	 ?IsParty@PartyClass@@QAEHH@Z ; PartyClass::IsParty
  00025	85 c0		 test	 eax, eax
  00027	75 05		 jne	 SHORT $LN8@PartyMembe
  00029	e9 42 02 00 00	 jmp	 $LN1@PartyMembe
$LN8@PartyMembe:

; 329  : 
; 330  : 	PMSG_DEFAULT_COUNT		pCount;
; 331  : 	PMSG_PARTYLIFEALL		pList;
; 332  : 	int usern;
; 333  : 	BYTE sendbuf[512];
; 334  : 	int lOfs=0;

  0002e	c7 85 e8 fd ff
	ff 00 00 00 00	 mov	 DWORD PTR _lOfs$[ebp], 0

; 335  : 	int tlife=0;

  00038	c7 85 e4 fd ff
	ff 00 00 00 00	 mov	 DWORD PTR _tlife$[ebp], 0

; 336  : 	
; 337  : 	PHeadSetB((LPBYTE)&pCount, 0x44, sizeof( pCount ));

  00042	6a 04		 push	 4
  00044	6a 44		 push	 68			; 00000044H
  00046	8d 45 f4	 lea	 eax, DWORD PTR _pCount$[ebp]
  00049	50		 push	 eax
  0004a	e8 00 00 00 00	 call	 ?PHeadSetB@@YAXPAEEH@Z	; PHeadSetB
  0004f	83 c4 0c	 add	 esp, 12			; 0000000cH

; 338  : 	
; 339  : 	pCount.Count = m_PartyS[party_number].Count;

  00052	6b 45 08 30	 imul	 eax, DWORD PTR _party_number$[ebp], 48
  00056	8b 4d f8	 mov	 ecx, DWORD PTR _this$[ebp]
  00059	8a 54 01 08	 mov	 dl, BYTE PTR [ecx+eax+8]
  0005d	88 55 f7	 mov	 BYTE PTR _pCount$[ebp+3], dl

; 340  : 
; 341  : 	lOfs += sizeof(pCount);

  00060	8b 85 e8 fd ff
	ff		 mov	 eax, DWORD PTR _lOfs$[ebp]
  00066	83 c0 04	 add	 eax, 4
  00069	89 85 e8 fd ff
	ff		 mov	 DWORD PTR _lOfs$[ebp], eax

; 342  : 
; 343  : 	for( int i=0; i<MAX_PARTYUSER; i++)

  0006f	c7 85 e0 fd ff
	ff 00 00 00 00	 mov	 DWORD PTR _i$2[ebp], 0
  00079	eb 0f		 jmp	 SHORT $LN4@PartyMembe
$LN2@PartyMembe:
  0007b	8b 85 e0 fd ff
	ff		 mov	 eax, DWORD PTR _i$2[ebp]
  00081	83 c0 01	 add	 eax, 1
  00084	89 85 e0 fd ff
	ff		 mov	 DWORD PTR _i$2[ebp], eax
$LN4@PartyMembe:
  0008a	83 bd e0 fd ff
	ff 05		 cmp	 DWORD PTR _i$2[ebp], 5
  00091	0f 8d 5d 01 00
	00		 jge	 $LN3@PartyMembe

; 344  : 	{
; 345  : #ifdef PARTYMEMBER_LIFELIST_FIX_20040531
; 346  : 		if( m_PartyS[party_number].Number[i] >= 0 && m_PartyS[party_number].DbNumber[i] >= 0 )

  00097	6b 45 08 30	 imul	 eax, DWORD PTR _party_number$[ebp], 48
  0009b	8b 4d f8	 mov	 ecx, DWORD PTR _this$[ebp]
  0009e	8d 54 01 08	 lea	 edx, DWORD PTR [ecx+eax+8]
  000a2	8b 85 e0 fd ff
	ff		 mov	 eax, DWORD PTR _i$2[ebp]
  000a8	83 7c 82 04 00	 cmp	 DWORD PTR [edx+eax*4+4], 0
  000ad	0f 8c 3c 01 00
	00		 jl	 $LN11@PartyMembe
  000b3	6b 45 08 30	 imul	 eax, DWORD PTR _party_number$[ebp], 48
  000b7	8b 4d f8	 mov	 ecx, DWORD PTR _this$[ebp]
  000ba	8d 54 01 08	 lea	 edx, DWORD PTR [ecx+eax+8]
  000be	8b 85 e0 fd ff
	ff		 mov	 eax, DWORD PTR _i$2[ebp]
  000c4	83 7c 82 18 00	 cmp	 DWORD PTR [edx+eax*4+24], 0
  000c9	0f 8c 20 01 00
	00		 jl	 $LN11@PartyMembe

; 347  : #else
; 348  : 		if( m_PartyS[party_number].Number[i] && m_PartyS[party_number].DbNumber[i] )
; 349  : #endif		
; 350  : 		{
; 351  : 			usern = m_PartyS[party_number].Number[i];

  000cf	6b 45 08 30	 imul	 eax, DWORD PTR _party_number$[ebp], 48
  000d3	8b 4d f8	 mov	 ecx, DWORD PTR _this$[ebp]
  000d6	8d 54 01 08	 lea	 edx, DWORD PTR [ecx+eax+8]
  000da	8b 85 e0 fd ff
	ff		 mov	 eax, DWORD PTR _i$2[ebp]
  000e0	8b 4c 82 04	 mov	 ecx, DWORD PTR [edx+eax*4+4]
  000e4	89 4d ec	 mov	 DWORD PTR _usern$[ebp], ecx

; 352  : #ifdef PARTYMEMBER_LIFELIST_FIX_20040531
; 353  : 			if( gObjIsConnected(usern) )

  000e7	8b 45 ec	 mov	 eax, DWORD PTR _usern$[ebp]
  000ea	50		 push	 eax
  000eb	e8 00 00 00 00	 call	 ?gObjIsConnected@@YAHH@Z ; gObjIsConnected
  000f0	83 c4 04	 add	 esp, 4
  000f3	85 c0		 test	 eax, eax
  000f5	0f 84 a9 00 00
	00		 je	 $LN10@PartyMembe

; 354  : #else
; 355  : 			if( usern >= 0 )
; 356  : #endif
; 357  : 			{
; 358  : 				pList.Number  = (i<<4)&0xF0;

  000fb	8b 85 e0 fd ff
	ff		 mov	 eax, DWORD PTR _i$2[ebp]
  00101	c1 e0 04	 shl	 eax, 4
  00104	25 f0 00 00 00	 and	 eax, 240		; 000000f0H
  00109	88 45 f3	 mov	 BYTE PTR _pList$[ebp], al

; 359  : 				tlife		  = ((BYTE)(gObj[usern].Life/((gObj[usern].MaxLife+gObj[usern].AddLife)/10.0f)))&0x0F;

  0010c	69 45 ec a0 1b
	00 00		 imul	 eax, DWORD PTR _usern$[ebp], 7072
  00113	69 4d ec a0 1b
	00 00		 imul	 ecx, DWORD PTR _usern$[ebp], 7072
  0011a	69 55 ec a0 1b
	00 00		 imul	 edx, DWORD PTR _usern$[ebp], 7072
  00121	8b 35 00 00 00
	00		 mov	 esi, DWORD PTR ?gObj@@3PAVOBJECTSTRUCT@@A ; gObj
  00127	f3 0f 2a 84 16
	0c 01 00 00	 cvtsi2ss xmm0, DWORD PTR [esi+edx+268]
  00130	8b 15 00 00 00
	00		 mov	 edx, DWORD PTR ?gObj@@3PAVOBJECTSTRUCT@@A ; gObj
  00136	f3 0f 58 84 0a
	c0 00 00 00	 addss	 xmm0, DWORD PTR [edx+ecx+192]
  0013f	f3 0f 5e 05 00
	00 00 00	 divss	 xmm0, DWORD PTR __real@41200000
  00147	8b 0d 00 00 00
	00		 mov	 ecx, DWORD PTR ?gObj@@3PAVOBJECTSTRUCT@@A ; gObj
  0014d	f3 0f 10 8c 01
	bc 00 00 00	 movss	 xmm1, DWORD PTR [ecx+eax+188]
  00156	f3 0f 5e c8	 divss	 xmm1, xmm0
  0015a	f3 0f 2c d1	 cvttss2si edx, xmm1
  0015e	0f b6 c2	 movzx	 eax, dl
  00161	83 e0 0f	 and	 eax, 15			; 0000000fH
  00164	89 85 e4 fd ff
	ff		 mov	 DWORD PTR _tlife$[ebp], eax

; 360  : 				pList.Number |= tlife;

  0016a	0f b6 45 f3	 movzx	 eax, BYTE PTR _pList$[ebp]
  0016e	0b 85 e4 fd ff
	ff		 or	 eax, DWORD PTR _tlife$[ebp]
  00174	88 45 f3	 mov	 BYTE PTR _pList$[ebp], al

; 361  : 				//pList.LifeAndMaxLife |= ((gObj[usern].Life/(gObj[usern].Life/100))&0xF0<<4);
; 362  : 				//LogAdd("%s %d %d %d", gObj[usern].Name, tlife, gObj[usern].Life, gObj[usern].MaxLife);
; 363  : 				memcpy(sendbuf+lOfs, (char*)&pList, sizeof( pList) );

  00177	6a 01		 push	 1
  00179	8d 45 f3	 lea	 eax, DWORD PTR _pList$[ebp]
  0017c	50		 push	 eax
  0017d	8b 8d e8 fd ff
	ff		 mov	 ecx, DWORD PTR _lOfs$[ebp]
  00183	8d 94 0d ec fd
	ff ff		 lea	 edx, DWORD PTR _sendbuf$[ebp+ecx]
  0018a	52		 push	 edx
  0018b	e8 00 00 00 00	 call	 _memcpy
  00190	83 c4 0c	 add	 esp, 12			; 0000000cH

; 364  : 				lOfs += sizeof( pList );

  00193	8b 85 e8 fd ff
	ff		 mov	 eax, DWORD PTR _lOfs$[ebp]
  00199	83 c0 01	 add	 eax, 1
  0019c	89 85 e8 fd ff
	ff		 mov	 DWORD PTR _lOfs$[ebp], eax

; 365  : 			}

  001a2	eb 4b		 jmp	 SHORT $LN11@PartyMembe
$LN10@PartyMembe:

; 366  : #ifdef PARTYMEMBER_LIFELIST_FIX_20040531
; 367  : 			else {
; 368  : 				// 접속해 있지 않다면 이 사용자는 파티 리스트에서 제외시킨다.
; 369  : 				m_PartyS[party_number].Number[i]	= -1;

  001a4	6b 45 08 30	 imul	 eax, DWORD PTR _party_number$[ebp], 48
  001a8	8b 4d f8	 mov	 ecx, DWORD PTR _this$[ebp]
  001ab	8d 54 01 08	 lea	 edx, DWORD PTR [ecx+eax+8]
  001af	8b 85 e0 fd ff
	ff		 mov	 eax, DWORD PTR _i$2[ebp]
  001b5	c7 44 82 04 ff
	ff ff ff	 mov	 DWORD PTR [edx+eax*4+4], -1

; 370  : 				m_PartyS[party_number].DbNumber[i]	= -1;

  001bd	6b 45 08 30	 imul	 eax, DWORD PTR _party_number$[ebp], 48
  001c1	8b 4d f8	 mov	 ecx, DWORD PTR _this$[ebp]
  001c4	8d 54 01 08	 lea	 edx, DWORD PTR [ecx+eax+8]
  001c8	8b 85 e0 fd ff
	ff		 mov	 eax, DWORD PTR _i$2[ebp]
  001ce	c7 44 82 18 ff
	ff ff ff	 mov	 DWORD PTR [edx+eax*4+24], -1

; 371  : 				m_PartyS[party_number].Count--;

  001d6	6b 45 08 30	 imul	 eax, DWORD PTR _party_number$[ebp], 48
  001da	8b 4d f8	 mov	 ecx, DWORD PTR _this$[ebp]
  001dd	8b 54 01 08	 mov	 edx, DWORD PTR [ecx+eax+8]
  001e1	83 ea 01	 sub	 edx, 1
  001e4	6b 45 08 30	 imul	 eax, DWORD PTR _party_number$[ebp], 48
  001e8	8b 4d f8	 mov	 ecx, DWORD PTR _this$[ebp]
  001eb	89 54 01 08	 mov	 DWORD PTR [ecx+eax+8], edx
$LN11@PartyMembe:

; 372  : 			}
; 373  : #endif
; 374  : 		}
; 375  : 	}

  001ef	e9 87 fe ff ff	 jmp	 $LN2@PartyMembe
$LN3@PartyMembe:

; 376  : 
; 377  : 	pCount.h.size = lOfs;

  001f4	8a 85 e8 fd ff
	ff		 mov	 al, BYTE PTR _lOfs$[ebp]
  001fa	88 45 f5	 mov	 BYTE PTR _pCount$[ebp+1], al

; 378  : 	memcpy(sendbuf, (char*)&pCount, sizeof(pCount));

  001fd	6a 04		 push	 4
  001ff	8d 45 f4	 lea	 eax, DWORD PTR _pCount$[ebp]
  00202	50		 push	 eax
  00203	8d 8d ec fd ff
	ff		 lea	 ecx, DWORD PTR _sendbuf$[ebp]
  00209	51		 push	 ecx
  0020a	e8 00 00 00 00	 call	 _memcpy
  0020f	83 c4 0c	 add	 esp, 12			; 0000000cH

; 379  : 
; 380  : 	for( int i=0; i<MAX_PARTYUSER; i++)

  00212	c7 85 dc fd ff
	ff 00 00 00 00	 mov	 DWORD PTR _i$1[ebp], 0
  0021c	eb 0f		 jmp	 SHORT $LN7@PartyMembe
$LN5@PartyMembe:
  0021e	8b 85 dc fd ff
	ff		 mov	 eax, DWORD PTR _i$1[ebp]
  00224	83 c0 01	 add	 eax, 1
  00227	89 85 dc fd ff
	ff		 mov	 DWORD PTR _i$1[ebp], eax
$LN7@PartyMembe:
  0022d	83 bd dc fd ff
	ff 05		 cmp	 DWORD PTR _i$1[ebp], 5
  00234	7d 3a		 jge	 SHORT $LN6@PartyMembe

; 381  : 	{			
; 382  : 		usern = m_PartyS[party_number].Number[i];

  00236	6b 45 08 30	 imul	 eax, DWORD PTR _party_number$[ebp], 48
  0023a	8b 4d f8	 mov	 ecx, DWORD PTR _this$[ebp]
  0023d	8d 54 01 08	 lea	 edx, DWORD PTR [ecx+eax+8]
  00241	8b 85 dc fd ff
	ff		 mov	 eax, DWORD PTR _i$1[ebp]
  00247	8b 4c 82 04	 mov	 ecx, DWORD PTR [edx+eax*4+4]
  0024b	89 4d ec	 mov	 DWORD PTR _usern$[ebp], ecx

; 383  : 		if( usern >= 0 )

  0024e	83 7d ec 00	 cmp	 DWORD PTR _usern$[ebp], 0
  00252	7c 1a		 jl	 SHORT $LN12@PartyMembe

; 384  : 		{
; 385  : 			DataSend(usern , (LPBYTE)sendbuf, lOfs);

  00254	8b 85 e8 fd ff
	ff		 mov	 eax, DWORD PTR _lOfs$[ebp]
  0025a	50		 push	 eax
  0025b	8d 8d ec fd ff
	ff		 lea	 ecx, DWORD PTR _sendbuf$[ebp]
  00261	51		 push	 ecx
  00262	8b 55 ec	 mov	 edx, DWORD PTR _usern$[ebp]
  00265	52		 push	 edx
  00266	e8 00 00 00 00	 call	 ?DataSend@@YAHHPAEK@Z	; DataSend
  0026b	83 c4 0c	 add	 esp, 12			; 0000000cH
$LN12@PartyMembe:

; 386  : 		}
; 387  : 	}

  0026e	eb ae		 jmp	 SHORT $LN5@PartyMembe
$LN6@PartyMembe:
$LN1@PartyMembe:

; 388  : }

  00270	5f		 pop	 edi
  00271	5e		 pop	 esi
  00272	5b		 pop	 ebx
  00273	8b 4d fc	 mov	 ecx, DWORD PTR __$ArrayPad$[ebp]
  00276	33 cd		 xor	 ecx, ebp
  00278	e8 00 00 00 00	 call	 @__security_check_cookie@4
  0027d	8b e5		 mov	 esp, ebp
  0027f	5d		 pop	 ebp
  00280	c2 04 00	 ret	 4
?PartyMemberLifeSend@PartyClass@@QAEXH@Z ENDP		; PartyClass::PartyMemberLifeSend
_TEXT	ENDS
; Function compile flags: /Odtp /ZI
; File C:\Mu Online\Mu-GS-Webzen-MC-10093\GameServer\PartyClass.cpp
;	COMDAT ?Paint@PartyClass@@QAEXH@Z
_TEXT	SEGMENT
_i$1 = -12						; size = 4
_usern$ = -8						; size = 4
_this$ = -4						; size = 4
_party_number$ = 8					; size = 4
?Paint@PartyClass@@QAEXH@Z PROC				; PartyClass::Paint, COMDAT
; _this$ = ecx

; 290  : {

  00000	55		 push	 ebp
  00001	8b ec		 mov	 ebp, esp
  00003	83 ec 4c	 sub	 esp, 76			; 0000004cH
  00006	53		 push	 ebx
  00007	56		 push	 esi
  00008	57		 push	 edi
  00009	89 4d fc	 mov	 DWORD PTR _this$[ebp], ecx

; 291  : #ifdef FOR_CHINA
; 292  : 	return;
; 293  : #endif
; 294  : 	
; 295  : #ifdef FOR_TAIWAN
; 296  : 	return;
; 297  : #endif
; 298  : 	
; 299  : 	if( IsParty(party_number) == FALSE ) return;

  0000c	8b 45 08	 mov	 eax, DWORD PTR _party_number$[ebp]
  0000f	50		 push	 eax
  00010	8b 4d fc	 mov	 ecx, DWORD PTR _this$[ebp]
  00013	e8 00 00 00 00	 call	 ?IsParty@PartyClass@@QAEHH@Z ; PartyClass::IsParty
  00018	85 c0		 test	 eax, eax
  0001a	75 05		 jne	 SHORT $LN5@Paint
  0001c	e9 3e 01 00 00	 jmp	 $LN1@Paint
$LN5@Paint:

; 300  : 
; 301  : 	int usern=0;

  00021	c7 45 f8 00 00
	00 00		 mov	 DWORD PTR _usern$[ebp], 0

; 302  : 	
; 303  : 	
; 304  : 	wsprintf(m_szTempPaint, "PartyMember(%d) :",m_PartyS[party_number].Count);

  00028	6b 45 08 30	 imul	 eax, DWORD PTR _party_number$[ebp], 48
  0002c	8b 4d fc	 mov	 ecx, DWORD PTR _this$[ebp]
  0002f	8b 54 01 08	 mov	 edx, DWORD PTR [ecx+eax+8]
  00033	52		 push	 edx
  00034	68 00 00 00 00	 push	 OFFSET ??_C@_0BC@JDIKBIFA@PartyMember?$CI?$CFd?$CJ?5?3@
  00039	8b 45 fc	 mov	 eax, DWORD PTR _this$[ebp]
  0003c	05 88 6b 05 00	 add	 eax, 355208		; 00056b88H
  00041	50		 push	 eax
  00042	ff 15 00 00 00
	00		 call	 DWORD PTR __imp__wsprintfA
  00048	83 c4 0c	 add	 esp, 12			; 0000000cH

; 305  : 
; 306  : 	for( int i=0; i<MAX_PARTYUSER; i++)

  0004b	c7 45 f4 00 00
	00 00		 mov	 DWORD PTR _i$1[ebp], 0
  00052	eb 09		 jmp	 SHORT $LN4@Paint
$LN2@Paint:
  00054	8b 45 f4	 mov	 eax, DWORD PTR _i$1[ebp]
  00057	83 c0 01	 add	 eax, 1
  0005a	89 45 f4	 mov	 DWORD PTR _i$1[ebp], eax
$LN4@Paint:
  0005d	83 7d f4 05	 cmp	 DWORD PTR _i$1[ebp], 5
  00061	0f 8d e6 00 00
	00		 jge	 $LN3@Paint

; 307  : 	{
; 308  : 		if( m_PartyS[party_number].Number[i] && m_PartyS[party_number].DbNumber[i] )

  00067	6b 45 08 30	 imul	 eax, DWORD PTR _party_number$[ebp], 48
  0006b	8b 4d fc	 mov	 ecx, DWORD PTR _this$[ebp]
  0006e	8d 54 01 08	 lea	 edx, DWORD PTR [ecx+eax+8]
  00072	8b 45 f4	 mov	 eax, DWORD PTR _i$1[ebp]
  00075	83 7c 82 04 00	 cmp	 DWORD PTR [edx+eax*4+4], 0
  0007a	0f 84 c8 00 00
	00		 je	 $LN6@Paint
  00080	6b 45 08 30	 imul	 eax, DWORD PTR _party_number$[ebp], 48
  00084	8b 4d fc	 mov	 ecx, DWORD PTR _this$[ebp]
  00087	8d 54 01 08	 lea	 edx, DWORD PTR [ecx+eax+8]
  0008b	8b 45 f4	 mov	 eax, DWORD PTR _i$1[ebp]
  0008e	83 7c 82 18 00	 cmp	 DWORD PTR [edx+eax*4+24], 0
  00093	0f 84 af 00 00
	00		 je	 $LN6@Paint

; 309  : 		{
; 310  : 			usern = m_PartyS[party_number].Number[i];

  00099	6b 45 08 30	 imul	 eax, DWORD PTR _party_number$[ebp], 48
  0009d	8b 4d fc	 mov	 ecx, DWORD PTR _this$[ebp]
  000a0	8d 54 01 08	 lea	 edx, DWORD PTR [ecx+eax+8]
  000a4	8b 45 f4	 mov	 eax, DWORD PTR _i$1[ebp]
  000a7	8b 4c 82 04	 mov	 ecx, DWORD PTR [edx+eax*4+4]
  000ab	89 4d f8	 mov	 DWORD PTR _usern$[ebp], ecx

; 311  : #ifdef PARTY_ADD_LOGFIX_20050801
; 312  : 			if (!gObjIsConnected(usern))

  000ae	8b 45 f8	 mov	 eax, DWORD PTR _usern$[ebp]
  000b1	50		 push	 eax
  000b2	e8 00 00 00 00	 call	 ?gObjIsConnected@@YAHH@Z ; gObjIsConnected
  000b7	83 c4 04	 add	 esp, 4
  000ba	85 c0		 test	 eax, eax
  000bc	75 02		 jne	 SHORT $LN7@Paint

; 313  : 				continue;

  000be	eb 94		 jmp	 SHORT $LN2@Paint
$LN7@Paint:

; 314  : #endif
; 315  : 			strcat(m_szTempPaint,"[");

  000c0	68 00 00 00 00	 push	 OFFSET ??_C@_01OHGJGJJP@?$FL@
  000c5	8b 45 fc	 mov	 eax, DWORD PTR _this$[ebp]
  000c8	05 88 6b 05 00	 add	 eax, 355208		; 00056b88H
  000cd	50		 push	 eax
  000ce	e8 00 00 00 00	 call	 _strcat
  000d3	83 c4 08	 add	 esp, 8

; 316  : 			strcat(m_szTempPaint, gObj[usern].AccountID);

  000d6	69 45 f8 a0 1b
	00 00		 imul	 eax, DWORD PTR _usern$[ebp], 7072
  000dd	8b 0d 00 00 00
	00		 mov	 ecx, DWORD PTR ?gObj@@3PAVOBJECTSTRUCT@@A ; gObj
  000e3	8d 54 01 68	 lea	 edx, DWORD PTR [ecx+eax+104]
  000e7	52		 push	 edx
  000e8	8b 45 fc	 mov	 eax, DWORD PTR _this$[ebp]
  000eb	05 88 6b 05 00	 add	 eax, 355208		; 00056b88H
  000f0	50		 push	 eax
  000f1	e8 00 00 00 00	 call	 _strcat
  000f6	83 c4 08	 add	 esp, 8

; 317  : 			strcat(m_szTempPaint,"][");

  000f9	68 00 00 00 00	 push	 OFFSET ??_C@_02DNJFBPJB@?$FN?$FL@
  000fe	8b 45 fc	 mov	 eax, DWORD PTR _this$[ebp]
  00101	05 88 6b 05 00	 add	 eax, 355208		; 00056b88H
  00106	50		 push	 eax
  00107	e8 00 00 00 00	 call	 _strcat
  0010c	83 c4 08	 add	 esp, 8

; 318  : 			strcat(m_szTempPaint, gObj[usern].Name);

  0010f	69 45 f8 a0 1b
	00 00		 imul	 eax, DWORD PTR _usern$[ebp], 7072
  00116	8b 0d 00 00 00
	00		 mov	 ecx, DWORD PTR ?gObj@@3PAVOBJECTSTRUCT@@A ; gObj
  0011c	8d 54 01 73	 lea	 edx, DWORD PTR [ecx+eax+115]
  00120	52		 push	 edx
  00121	8b 45 fc	 mov	 eax, DWORD PTR _this$[ebp]
  00124	05 88 6b 05 00	 add	 eax, 355208		; 00056b88H
  00129	50		 push	 eax
  0012a	e8 00 00 00 00	 call	 _strcat
  0012f	83 c4 08	 add	 esp, 8

; 319  : 			strcat(m_szTempPaint,"], ");

  00132	68 00 00 00 00	 push	 OFFSET ??_C@_03EDAPGMLK@?$FN?0?5@
  00137	8b 45 fc	 mov	 eax, DWORD PTR _this$[ebp]
  0013a	05 88 6b 05 00	 add	 eax, 355208		; 00056b88H
  0013f	50		 push	 eax
  00140	e8 00 00 00 00	 call	 _strcat
  00145	83 c4 08	 add	 esp, 8
$LN6@Paint:

; 320  : 		}
; 321  : 	}

  00148	e9 07 ff ff ff	 jmp	 $LN2@Paint
$LN3@Paint:

; 322  : 	LogAddTD(m_szTempPaint);

  0014d	8b 45 fc	 mov	 eax, DWORD PTR _this$[ebp]
  00150	05 88 6b 05 00	 add	 eax, 355208		; 00056b88H
  00155	50		 push	 eax
  00156	ff 15 00 00 00
	00		 call	 DWORD PTR ?LogAddTD@@3P6AXPADZZA ; LogAddTD
  0015c	83 c4 04	 add	 esp, 4
$LN1@Paint:

; 323  : }

  0015f	5f		 pop	 edi
  00160	5e		 pop	 esi
  00161	5b		 pop	 ebx
  00162	8b e5		 mov	 esp, ebp
  00164	5d		 pop	 ebp
  00165	c2 04 00	 ret	 4
?Paint@PartyClass@@QAEXH@Z ENDP				; PartyClass::Paint
_TEXT	ENDS
; Function compile flags: /Odtp /ZI
; File C:\Mu Online\Mu-GS-Webzen-MC-10093\GameServer\PartyClass.cpp
;	COMDAT ?Isleader@PartyClass@@QAEHHHH@Z
_TEXT	SEGMENT
_this$ = -4						; size = 4
_party_number$ = 8					; size = 4
_usernumber$ = 12					; size = 4
_dbnumber$ = 16						; size = 4
?Isleader@PartyClass@@QAEHHHH@Z PROC			; PartyClass::Isleader, COMDAT
; _this$ = ecx

; 40   : {

  00000	55		 push	 ebp
  00001	8b ec		 mov	 ebp, esp
  00003	83 ec 44	 sub	 esp, 68			; 00000044H
  00006	53		 push	 ebx
  00007	56		 push	 esi
  00008	57		 push	 edi
  00009	89 4d fc	 mov	 DWORD PTR _this$[ebp], ecx

; 41   : 	if( IsParty(party_number) == FALSE ) return FALSE;

  0000c	8b 45 08	 mov	 eax, DWORD PTR _party_number$[ebp]
  0000f	50		 push	 eax
  00010	8b 4d fc	 mov	 ecx, DWORD PTR _this$[ebp]
  00013	e8 00 00 00 00	 call	 ?IsParty@PartyClass@@QAEHH@Z ; PartyClass::IsParty
  00018	85 c0		 test	 eax, eax
  0001a	75 04		 jne	 SHORT $LN2@Isleader
  0001c	33 c0		 xor	 eax, eax
  0001e	eb 41		 jmp	 SHORT $LN1@Isleader
$LN2@Isleader:

; 42   : 
; 43   : 	if( (m_PartyS[party_number].Number[0] == usernumber) &&

  00020	6b 45 08 30	 imul	 eax, DWORD PTR _party_number$[ebp], 48
  00024	8b 4d fc	 mov	 ecx, DWORD PTR _this$[ebp]
  00027	8d 54 01 08	 lea	 edx, DWORD PTR [ecx+eax+8]
  0002b	b8 04 00 00 00	 mov	 eax, 4
  00030	6b c8 00	 imul	 ecx, eax, 0
  00033	8b 54 0a 04	 mov	 edx, DWORD PTR [edx+ecx+4]
  00037	3b 55 0c	 cmp	 edx, DWORD PTR _usernumber$[ebp]
  0003a	75 23		 jne	 SHORT $LN3@Isleader
  0003c	6b 45 08 30	 imul	 eax, DWORD PTR _party_number$[ebp], 48
  00040	8b 4d fc	 mov	 ecx, DWORD PTR _this$[ebp]
  00043	8d 54 01 08	 lea	 edx, DWORD PTR [ecx+eax+8]
  00047	b8 04 00 00 00	 mov	 eax, 4
  0004c	6b c8 00	 imul	 ecx, eax, 0
  0004f	8b 54 0a 18	 mov	 edx, DWORD PTR [edx+ecx+24]
  00053	3b 55 10	 cmp	 edx, DWORD PTR _dbnumber$[ebp]
  00056	75 07		 jne	 SHORT $LN3@Isleader

; 44   : 		(m_PartyS[party_number]. DbNumber[0] == dbnumber) )
; 45   : 	{
; 46   : 		return TRUE;

  00058	b8 01 00 00 00	 mov	 eax, 1
  0005d	eb 02		 jmp	 SHORT $LN1@Isleader
$LN3@Isleader:

; 47   : 	}
; 48   : 	return FALSE;

  0005f	33 c0		 xor	 eax, eax
$LN1@Isleader:

; 49   : }

  00061	5f		 pop	 edi
  00062	5e		 pop	 esi
  00063	5b		 pop	 ebx
  00064	8b e5		 mov	 esp, ebp
  00066	5d		 pop	 ebp
  00067	c2 0c 00	 ret	 12			; 0000000cH
?Isleader@PartyClass@@QAEHHHH@Z ENDP			; PartyClass::Isleader
_TEXT	ENDS
; Function compile flags: /Odtp /ZI
; File C:\Mu Online\Mu-GS-Webzen-MC-10093\GameServer\PartyClass.cpp
;	COMDAT ?GetLevel@PartyClass@@QAEHHAAH0@Z
_TEXT	SEGMENT
_this$ = -4						; size = 4
_party_number$ = 8					; size = 4
_maxlevel$ = 12						; size = 4
_minlevel$ = 16						; size = 4
?GetLevel@PartyClass@@QAEHHAAH0@Z PROC			; PartyClass::GetLevel, COMDAT
; _this$ = ecx

; 162  : {

  00000	55		 push	 ebp
  00001	8b ec		 mov	 ebp, esp
  00003	83 ec 44	 sub	 esp, 68			; 00000044H
  00006	53		 push	 ebx
  00007	56		 push	 esi
  00008	57		 push	 edi
  00009	89 4d fc	 mov	 DWORD PTR _this$[ebp], ecx

; 163  : 	if( IsParty(party_number) == FALSE ) return 0;

  0000c	8b 45 08	 mov	 eax, DWORD PTR _party_number$[ebp]
  0000f	50		 push	 eax
  00010	8b 4d fc	 mov	 ecx, DWORD PTR _this$[ebp]
  00013	e8 00 00 00 00	 call	 ?IsParty@PartyClass@@QAEHH@Z ; PartyClass::IsParty
  00018	85 c0		 test	 eax, eax
  0001a	75 04		 jne	 SHORT $LN2@GetLevel
  0001c	33 c0		 xor	 eax, eax
  0001e	eb 27		 jmp	 SHORT $LN1@GetLevel
$LN2@GetLevel:

; 164  : 
; 165  : 	maxlevel = m_PartyS[party_number].m_MaxLevel;

  00020	6b 45 08 30	 imul	 eax, DWORD PTR _party_number$[ebp], 48
  00024	8b 4d fc	 mov	 ecx, DWORD PTR _this$[ebp]
  00027	0f bf 54 01 34	 movsx	 edx, WORD PTR [ecx+eax+52]
  0002c	8b 45 0c	 mov	 eax, DWORD PTR _maxlevel$[ebp]
  0002f	89 10		 mov	 DWORD PTR [eax], edx

; 166  : 	minlevel = m_PartyS[party_number].m_MinLevel;

  00031	6b 45 08 30	 imul	 eax, DWORD PTR _party_number$[ebp], 48
  00035	8b 4d fc	 mov	 ecx, DWORD PTR _this$[ebp]
  00038	0f bf 54 01 36	 movsx	 edx, WORD PTR [ecx+eax+54]
  0003d	8b 45 10	 mov	 eax, DWORD PTR _minlevel$[ebp]
  00040	89 10		 mov	 DWORD PTR [eax], edx

; 167  : 	return TRUE;

  00042	b8 01 00 00 00	 mov	 eax, 1
$LN1@GetLevel:

; 168  : }

  00047	5f		 pop	 edi
  00048	5e		 pop	 esi
  00049	5b		 pop	 ebx
  0004a	8b e5		 mov	 esp, ebp
  0004c	5d		 pop	 ebp
  0004d	c2 0c 00	 ret	 12			; 0000000cH
?GetLevel@PartyClass@@QAEHHAAH0@Z ENDP			; PartyClass::GetLevel
_TEXT	ENDS
; Function compile flags: /Odtp /ZI
; File C:\Mu Online\Mu-GS-Webzen-MC-10093\GameServer\PartyClass.cpp
;	COMDAT ?SetLevel@PartyClass@@QAEHHH@Z
_TEXT	SEGMENT
_this$ = -4						; size = 4
_party_number$ = 8					; size = 4
_level$ = 12						; size = 4
?SetLevel@PartyClass@@QAEHHH@Z PROC			; PartyClass::SetLevel, COMDAT
; _this$ = ecx

; 146  : {

  00000	55		 push	 ebp
  00001	8b ec		 mov	 ebp, esp
  00003	83 ec 44	 sub	 esp, 68			; 00000044H
  00006	53		 push	 ebx
  00007	56		 push	 esi
  00008	57		 push	 edi
  00009	89 4d fc	 mov	 DWORD PTR _this$[ebp], ecx

; 147  : 	if(m_PartyS[party_number].m_MaxLevel < level )

  0000c	6b 45 08 30	 imul	 eax, DWORD PTR _party_number$[ebp], 48
  00010	8b 4d fc	 mov	 ecx, DWORD PTR _this$[ebp]
  00013	0f bf 54 01 34	 movsx	 edx, WORD PTR [ecx+eax+52]
  00018	3b 55 0c	 cmp	 edx, DWORD PTR _level$[ebp]
  0001b	7d 10		 jge	 SHORT $LN2@SetLevel

; 148  : 		m_PartyS[party_number].m_MaxLevel = level;

  0001d	6b 45 08 30	 imul	 eax, DWORD PTR _party_number$[ebp], 48
  00021	8b 4d fc	 mov	 ecx, DWORD PTR _this$[ebp]
  00024	66 8b 55 0c	 mov	 dx, WORD PTR _level$[ebp]
  00028	66 89 54 01 34	 mov	 WORD PTR [ecx+eax+52], dx
$LN2@SetLevel:

; 149  : 
; 150  : 	if( m_PartyS[party_number].m_MinLevel == 0 )

  0002d	6b 45 08 30	 imul	 eax, DWORD PTR _party_number$[ebp], 48
  00031	8b 4d fc	 mov	 ecx, DWORD PTR _this$[ebp]
  00034	0f bf 54 01 36	 movsx	 edx, WORD PTR [ecx+eax+54]
  00039	85 d2		 test	 edx, edx
  0003b	75 10		 jne	 SHORT $LN3@SetLevel

; 151  : 		m_PartyS[party_number].m_MinLevel = level;

  0003d	6b 45 08 30	 imul	 eax, DWORD PTR _party_number$[ebp], 48
  00041	8b 4d fc	 mov	 ecx, DWORD PTR _this$[ebp]
  00044	66 8b 55 0c	 mov	 dx, WORD PTR _level$[ebp]
  00048	66 89 54 01 36	 mov	 WORD PTR [ecx+eax+54], dx
$LN3@SetLevel:

; 152  : 
; 153  : 	if(m_PartyS[party_number].m_MinLevel > level )

  0004d	6b 45 08 30	 imul	 eax, DWORD PTR _party_number$[ebp], 48
  00051	8b 4d fc	 mov	 ecx, DWORD PTR _this$[ebp]
  00054	0f bf 54 01 36	 movsx	 edx, WORD PTR [ecx+eax+54]
  00059	3b 55 0c	 cmp	 edx, DWORD PTR _level$[ebp]
  0005c	7e 10		 jle	 SHORT $LN4@SetLevel

; 154  : 		m_PartyS[party_number].m_MinLevel = level;

  0005e	6b 45 08 30	 imul	 eax, DWORD PTR _party_number$[ebp], 48
  00062	8b 4d fc	 mov	 ecx, DWORD PTR _this$[ebp]
  00065	66 8b 55 0c	 mov	 dx, WORD PTR _level$[ebp]
  00069	66 89 54 01 36	 mov	 WORD PTR [ecx+eax+54], dx
$LN4@SetLevel:

; 155  : 
; 156  : 	//LogAdd("파티 최대 최소 레벨 : %d %d %d", m_PartyS[party_number].m_MaxLevel, m_PartyS[party_number].m_MinLevel, level);
; 157  : 	return TRUE;

  0006e	b8 01 00 00 00	 mov	 eax, 1

; 158  : }

  00073	5f		 pop	 edi
  00074	5e		 pop	 esi
  00075	5b		 pop	 ebx
  00076	8b e5		 mov	 esp, ebp
  00078	5d		 pop	 ebp
  00079	c2 08 00	 ret	 8
?SetLevel@PartyClass@@QAEHHH@Z ENDP			; PartyClass::SetLevel
_TEXT	ENDS
; Function compile flags: /Odtp /ZI
; File C:\Mu Online\Mu-GS-Webzen-MC-10093\GameServer\PartyClass.cpp
;	COMDAT ?GetIndex@PartyClass@@QAEHHHH@Z
_TEXT	SEGMENT
_n$1 = -8						; size = 4
_this$ = -4						; size = 4
_party_number$ = 8					; size = 4
_usernumber$ = 12					; size = 4
_dbnumber$ = 16						; size = 4
?GetIndex@PartyClass@@QAEHHHH@Z PROC			; PartyClass::GetIndex, COMDAT
; _this$ = ecx

; 72   : {

  00000	55		 push	 ebp
  00001	8b ec		 mov	 ebp, esp
  00003	83 ec 48	 sub	 esp, 72			; 00000048H
  00006	53		 push	 ebx
  00007	56		 push	 esi
  00008	57		 push	 edi
  00009	89 4d fc	 mov	 DWORD PTR _this$[ebp], ecx

; 73   : 	if( IsParty(party_number) == FALSE ) return FALSE;

  0000c	8b 45 08	 mov	 eax, DWORD PTR _party_number$[ebp]
  0000f	50		 push	 eax
  00010	8b 4d fc	 mov	 ecx, DWORD PTR _this$[ebp]
  00013	e8 00 00 00 00	 call	 ?IsParty@PartyClass@@QAEHH@Z ; PartyClass::IsParty
  00018	85 c0		 test	 eax, eax
  0001a	75 04		 jne	 SHORT $LN5@GetIndex
  0001c	33 c0		 xor	 eax, eax
  0001e	eb 50		 jmp	 SHORT $LN1@GetIndex
$LN5@GetIndex:

; 74   : 	
; 75   : 	for( int n=0; n<MAX_PARTYUSER; n++)

  00020	c7 45 f8 00 00
	00 00		 mov	 DWORD PTR _n$1[ebp], 0
  00027	eb 09		 jmp	 SHORT $LN4@GetIndex
$LN2@GetIndex:
  00029	8b 45 f8	 mov	 eax, DWORD PTR _n$1[ebp]
  0002c	83 c0 01	 add	 eax, 1
  0002f	89 45 f8	 mov	 DWORD PTR _n$1[ebp], eax
$LN4@GetIndex:
  00032	83 7d f8 05	 cmp	 DWORD PTR _n$1[ebp], 5
  00036	7d 35		 jge	 SHORT $LN3@GetIndex

; 76   : 	{
; 77   : 		if( m_PartyS[party_number].Number[n] == usernumber ||

  00038	6b 45 08 30	 imul	 eax, DWORD PTR _party_number$[ebp], 48
  0003c	8b 4d fc	 mov	 ecx, DWORD PTR _this$[ebp]
  0003f	8d 54 01 08	 lea	 edx, DWORD PTR [ecx+eax+8]
  00043	8b 45 f8	 mov	 eax, DWORD PTR _n$1[ebp]
  00046	8b 4c 82 04	 mov	 ecx, DWORD PTR [edx+eax*4+4]
  0004a	3b 4d 0c	 cmp	 ecx, DWORD PTR _usernumber$[ebp]
  0004d	74 17		 je	 SHORT $LN7@GetIndex
  0004f	6b 45 08 30	 imul	 eax, DWORD PTR _party_number$[ebp], 48
  00053	8b 4d fc	 mov	 ecx, DWORD PTR _this$[ebp]
  00056	8d 54 01 08	 lea	 edx, DWORD PTR [ecx+eax+8]
  0005a	8b 45 f8	 mov	 eax, DWORD PTR _n$1[ebp]
  0005d	8b 4c 82 18	 mov	 ecx, DWORD PTR [edx+eax*4+24]
  00061	3b 4d 10	 cmp	 ecx, DWORD PTR _dbnumber$[ebp]
  00064	75 05		 jne	 SHORT $LN6@GetIndex
$LN7@GetIndex:

; 78   : 			m_PartyS[party_number].DbNumber[n] == dbnumber )
; 79   : 		{
; 80   : 			return n;

  00066	8b 45 f8	 mov	 eax, DWORD PTR _n$1[ebp]
  00069	eb 05		 jmp	 SHORT $LN1@GetIndex
$LN6@GetIndex:

; 81   : 		}
; 82   : 	}	

  0006b	eb bc		 jmp	 SHORT $LN2@GetIndex
$LN3@GetIndex:

; 83   : 	return -1;

  0006d	83 c8 ff	 or	 eax, -1
$LN1@GetIndex:

; 84   : }

  00070	5f		 pop	 edi
  00071	5e		 pop	 esi
  00072	5b		 pop	 ebx
  00073	8b e5		 mov	 esp, ebp
  00075	5d		 pop	 ebp
  00076	c2 0c 00	 ret	 12			; 0000000cH
?GetIndex@PartyClass@@QAEHHHH@Z ENDP			; PartyClass::GetIndex
_TEXT	ENDS
; Function compile flags: /Odtp /ZI
; File C:\Mu Online\Mu-GS-Webzen-MC-10093\GameServer\PartyClass.cpp
;	COMDAT ?GetPartyCount@PartyClass@@QAEHH@Z
_TEXT	SEGMENT
_this$ = -4						; size = 4
_party_number$ = 8					; size = 4
?GetPartyCount@PartyClass@@QAEHH@Z PROC			; PartyClass::GetPartyCount, COMDAT
; _this$ = ecx

; 283  : {

  00000	55		 push	 ebp
  00001	8b ec		 mov	 ebp, esp
  00003	83 ec 44	 sub	 esp, 68			; 00000044H
  00006	53		 push	 ebx
  00007	56		 push	 esi
  00008	57		 push	 edi
  00009	89 4d fc	 mov	 DWORD PTR _this$[ebp], ecx

; 284  : 	if( IsParty(party_number) == FALSE ) return -1;

  0000c	8b 45 08	 mov	 eax, DWORD PTR _party_number$[ebp]
  0000f	50		 push	 eax
  00010	8b 4d fc	 mov	 ecx, DWORD PTR _this$[ebp]
  00013	e8 00 00 00 00	 call	 ?IsParty@PartyClass@@QAEHH@Z ; PartyClass::IsParty
  00018	85 c0		 test	 eax, eax
  0001a	75 05		 jne	 SHORT $LN2@GetPartyCo
  0001c	83 c8 ff	 or	 eax, -1
  0001f	eb 0b		 jmp	 SHORT $LN1@GetPartyCo
$LN2@GetPartyCo:

; 285  : 
; 286  : 	return m_PartyS[party_number].Count;

  00021	6b 45 08 30	 imul	 eax, DWORD PTR _party_number$[ebp], 48
  00025	8b 4d fc	 mov	 ecx, DWORD PTR _this$[ebp]
  00028	8b 44 01 08	 mov	 eax, DWORD PTR [ecx+eax+8]
$LN1@GetPartyCo:

; 287  : }

  0002c	5f		 pop	 edi
  0002d	5e		 pop	 esi
  0002e	5b		 pop	 ebx
  0002f	8b e5		 mov	 esp, ebp
  00031	5d		 pop	 ebp
  00032	c2 04 00	 ret	 4
?GetPartyCount@PartyClass@@QAEHH@Z ENDP			; PartyClass::GetPartyCount
_TEXT	ENDS
; Function compile flags: /Odtp /ZI
; File C:\Mu Online\Mu-GS-Webzen-MC-10093\GameServer\PartyClass.cpp
;	COMDAT ?GetIndexUser@PartyClass@@QAEHHHAAH0@Z
_TEXT	SEGMENT
_this$ = -4						; size = 4
_party_number$ = 8					; size = 4
_index$ = 12						; size = 4
_usernumber$ = 16					; size = 4
_dbnumber$ = 20						; size = 4
?GetIndexUser@PartyClass@@QAEHHHAAH0@Z PROC		; PartyClass::GetIndexUser, COMDAT
; _this$ = ecx

; 61   : {

  00000	55		 push	 ebp
  00001	8b ec		 mov	 ebp, esp
  00003	83 ec 44	 sub	 esp, 68			; 00000044H
  00006	53		 push	 ebx
  00007	56		 push	 esi
  00008	57		 push	 edi
  00009	89 4d fc	 mov	 DWORD PTR _this$[ebp], ecx

; 62   : 	if( IsParty(party_number) == FALSE ) return FALSE;

  0000c	8b 45 08	 mov	 eax, DWORD PTR _party_number$[ebp]
  0000f	50		 push	 eax
  00010	8b 4d fc	 mov	 ecx, DWORD PTR _this$[ebp]
  00013	e8 00 00 00 00	 call	 ?IsParty@PartyClass@@QAEHH@Z ; PartyClass::IsParty
  00018	85 c0		 test	 eax, eax
  0001a	75 04		 jne	 SHORT $LN2@GetIndexUs
  0001c	33 c0		 xor	 eax, eax
  0001e	eb 43		 jmp	 SHORT $LN1@GetIndexUs
$LN2@GetIndexUs:

; 63   : 	if( index < 0 || index > MAX_PARTYUSER-1 ) return FALSE;

  00020	83 7d 0c 00	 cmp	 DWORD PTR _index$[ebp], 0
  00024	7c 06		 jl	 SHORT $LN4@GetIndexUs
  00026	83 7d 0c 04	 cmp	 DWORD PTR _index$[ebp], 4
  0002a	7e 04		 jle	 SHORT $LN3@GetIndexUs
$LN4@GetIndexUs:
  0002c	33 c0		 xor	 eax, eax
  0002e	eb 33		 jmp	 SHORT $LN1@GetIndexUs
$LN3@GetIndexUs:

; 64   : 
; 65   : 	usernumber = m_PartyS[party_number].Number[index];

  00030	6b 45 08 30	 imul	 eax, DWORD PTR _party_number$[ebp], 48
  00034	8b 4d fc	 mov	 ecx, DWORD PTR _this$[ebp]
  00037	8d 54 01 08	 lea	 edx, DWORD PTR [ecx+eax+8]
  0003b	8b 45 10	 mov	 eax, DWORD PTR _usernumber$[ebp]
  0003e	8b 4d 0c	 mov	 ecx, DWORD PTR _index$[ebp]
  00041	8b 54 8a 04	 mov	 edx, DWORD PTR [edx+ecx*4+4]
  00045	89 10		 mov	 DWORD PTR [eax], edx

; 66   : 	dbnumber   = m_PartyS[party_number].DbNumber[index];

  00047	6b 45 08 30	 imul	 eax, DWORD PTR _party_number$[ebp], 48
  0004b	8b 4d fc	 mov	 ecx, DWORD PTR _this$[ebp]
  0004e	8d 54 01 08	 lea	 edx, DWORD PTR [ecx+eax+8]
  00052	8b 45 14	 mov	 eax, DWORD PTR _dbnumber$[ebp]
  00055	8b 4d 0c	 mov	 ecx, DWORD PTR _index$[ebp]
  00058	8b 54 8a 18	 mov	 edx, DWORD PTR [edx+ecx*4+24]
  0005c	89 10		 mov	 DWORD PTR [eax], edx

; 67   : 
; 68   : 	return TRUE;

  0005e	b8 01 00 00 00	 mov	 eax, 1
$LN1@GetIndexUs:

; 69   : }

  00063	5f		 pop	 edi
  00064	5e		 pop	 esi
  00065	5b		 pop	 ebx
  00066	8b e5		 mov	 esp, ebp
  00068	5d		 pop	 ebp
  00069	c2 10 00	 ret	 16			; 00000010H
?GetIndexUser@PartyClass@@QAEHHHAAH0@Z ENDP		; PartyClass::GetIndexUser
_TEXT	ENDS
; Function compile flags: /Odtp /ZI
; File C:\Mu Online\Mu-GS-Webzen-MC-10093\GameServer\PartyClass.cpp
;	COMDAT ?GetCount@PartyClass@@QAEHH@Z
_TEXT	SEGMENT
_this$ = -4						; size = 4
_party_number$ = 8					; size = 4
?GetCount@PartyClass@@QAEHH@Z PROC			; PartyClass::GetCount, COMDAT
; _this$ = ecx

; 53   : {

  00000	55		 push	 ebp
  00001	8b ec		 mov	 ebp, esp
  00003	83 ec 44	 sub	 esp, 68			; 00000044H
  00006	53		 push	 ebx
  00007	56		 push	 esi
  00008	57		 push	 edi
  00009	89 4d fc	 mov	 DWORD PTR _this$[ebp], ecx

; 54   : 	if( IsParty(party_number) == FALSE )

  0000c	8b 45 08	 mov	 eax, DWORD PTR _party_number$[ebp]
  0000f	50		 push	 eax
  00010	8b 4d fc	 mov	 ecx, DWORD PTR _this$[ebp]
  00013	e8 00 00 00 00	 call	 ?IsParty@PartyClass@@QAEHH@Z ; PartyClass::IsParty
  00018	85 c0		 test	 eax, eax
  0001a	75 04		 jne	 SHORT $LN2@GetCount

; 55   : 		return 0;

  0001c	33 c0		 xor	 eax, eax
  0001e	eb 0b		 jmp	 SHORT $LN1@GetCount
$LN2@GetCount:

; 56   : 
; 57   : 	return m_PartyS[party_number].Count;

  00020	6b 45 08 30	 imul	 eax, DWORD PTR _party_number$[ebp], 48
  00024	8b 4d fc	 mov	 ecx, DWORD PTR _this$[ebp]
  00027	8b 44 01 08	 mov	 eax, DWORD PTR [ecx+eax+8]
$LN1@GetCount:

; 58   : }

  0002b	5f		 pop	 edi
  0002c	5e		 pop	 esi
  0002d	5b		 pop	 ebx
  0002e	8b e5		 mov	 esp, ebp
  00030	5d		 pop	 ebp
  00031	c2 04 00	 ret	 4
?GetCount@PartyClass@@QAEHH@Z ENDP			; PartyClass::GetCount
_TEXT	ENDS
; Function compile flags: /Odtp /ZI
; File C:\Mu Online\Mu-GS-Webzen-MC-10093\GameServer\PartyClass.cpp
;	COMDAT ?Delete@PartyClass@@QAEXHH@Z
_TEXT	SEGMENT
_this$ = -4						; size = 4
_party_number$ = 8					; size = 4
_index$ = 12						; size = 4
?Delete@PartyClass@@QAEXHH@Z PROC			; PartyClass::Delete, COMDAT
; _this$ = ecx

; 264  : {

  00000	55		 push	 ebp
  00001	8b ec		 mov	 ebp, esp
  00003	83 ec 44	 sub	 esp, 68			; 00000044H
  00006	53		 push	 ebx
  00007	56		 push	 esi
  00008	57		 push	 edi
  00009	89 4d fc	 mov	 DWORD PTR _this$[ebp], ecx

; 265  : 	if( IsParty(party_number) == FALSE ) return;

  0000c	8b 45 08	 mov	 eax, DWORD PTR _party_number$[ebp]
  0000f	50		 push	 eax
  00010	8b 4d fc	 mov	 ecx, DWORD PTR _this$[ebp]
  00013	e8 00 00 00 00	 call	 ?IsParty@PartyClass@@QAEHH@Z ; PartyClass::IsParty
  00018	85 c0		 test	 eax, eax
  0001a	75 02		 jne	 SHORT $LN2@Delete
  0001c	eb 68		 jmp	 SHORT $LN1@Delete
$LN2@Delete:

; 266  : 	if( index < 0 || index > MAX_PARTYUSER-1 ) return;

  0001e	83 7d 0c 00	 cmp	 DWORD PTR _index$[ebp], 0
  00022	7c 06		 jl	 SHORT $LN4@Delete
  00024	83 7d 0c 04	 cmp	 DWORD PTR _index$[ebp], 4
  00028	7e 02		 jle	 SHORT $LN3@Delete
$LN4@Delete:
  0002a	eb 5a		 jmp	 SHORT $LN1@Delete
$LN3@Delete:

; 267  : 
; 268  : 	if( m_PartyS[party_number].Number[index] >= 0 )

  0002c	6b 45 08 30	 imul	 eax, DWORD PTR _party_number$[ebp], 48
  00030	8b 4d fc	 mov	 ecx, DWORD PTR _this$[ebp]
  00033	8d 54 01 08	 lea	 edx, DWORD PTR [ecx+eax+8]
  00037	8b 45 0c	 mov	 eax, DWORD PTR _index$[ebp]
  0003a	83 7c 82 04 00	 cmp	 DWORD PTR [edx+eax*4+4], 0
  0003f	7c 45		 jl	 SHORT $LN1@Delete

; 269  : 	{
; 270  : 		m_PartyS[party_number].Number[index] = -1;

  00041	6b 45 08 30	 imul	 eax, DWORD PTR _party_number$[ebp], 48
  00045	8b 4d fc	 mov	 ecx, DWORD PTR _this$[ebp]
  00048	8d 54 01 08	 lea	 edx, DWORD PTR [ecx+eax+8]
  0004c	8b 45 0c	 mov	 eax, DWORD PTR _index$[ebp]
  0004f	c7 44 82 04 ff
	ff ff ff	 mov	 DWORD PTR [edx+eax*4+4], -1

; 271  : #ifdef PARTYMEMBER_LIFELIST_FIX_20040531
; 272  : 		m_PartyS[party_number].DbNumber[index] = -1;

  00057	6b 45 08 30	 imul	 eax, DWORD PTR _party_number$[ebp], 48
  0005b	8b 4d fc	 mov	 ecx, DWORD PTR _this$[ebp]
  0005e	8d 54 01 08	 lea	 edx, DWORD PTR [ecx+eax+8]
  00062	8b 45 0c	 mov	 eax, DWORD PTR _index$[ebp]
  00065	c7 44 82 18 ff
	ff ff ff	 mov	 DWORD PTR [edx+eax*4+24], -1

; 273  : #endif
; 274  : 		m_PartyS[party_number].Count--;

  0006d	6b 45 08 30	 imul	 eax, DWORD PTR _party_number$[ebp], 48
  00071	8b 4d fc	 mov	 ecx, DWORD PTR _this$[ebp]
  00074	8b 54 01 08	 mov	 edx, DWORD PTR [ecx+eax+8]
  00078	83 ea 01	 sub	 edx, 1
  0007b	6b 45 08 30	 imul	 eax, DWORD PTR _party_number$[ebp], 48
  0007f	8b 4d fc	 mov	 ecx, DWORD PTR _this$[ebp]
  00082	89 54 01 08	 mov	 DWORD PTR [ecx+eax+8], edx
$LN1@Delete:

; 275  : 
; 276  : #ifdef UPDATE_PK_SYSTEM_20070302	
; 277  : 		m_PartyS[party_number].m_UserPKLevel[index] = PK_LEVEL_DEFAULT;
; 278  : #endif
; 279  : 	}
; 280  : }

  00086	5f		 pop	 edi
  00087	5e		 pop	 esi
  00088	5b		 pop	 ebx
  00089	8b e5		 mov	 esp, ebp
  0008b	5d		 pop	 ebp
  0008c	c2 08 00	 ret	 8
?Delete@PartyClass@@QAEXHH@Z ENDP			; PartyClass::Delete
_TEXT	ENDS
; Function compile flags: /Odtp /ZI
; File C:\Mu Online\Mu-GS-Webzen-MC-10093\GameServer\PartyClass.cpp
;	COMDAT ?Delete@PartyClass@@QAEHHHH@Z
_TEXT	SEGMENT
_i$1 = -8						; size = 4
_this$ = -4						; size = 4
_party_number$ = 8					; size = 4
_usernumber$ = 12					; size = 4
_dbnumber$ = 16						; size = 4
?Delete@PartyClass@@QAEHHHH@Z PROC			; PartyClass::Delete, COMDAT
; _this$ = ecx

; 238  : {

  00000	55		 push	 ebp
  00001	8b ec		 mov	 ebp, esp
  00003	83 ec 48	 sub	 esp, 72			; 00000048H
  00006	53		 push	 ebx
  00007	56		 push	 esi
  00008	57		 push	 edi
  00009	89 4d fc	 mov	 DWORD PTR _this$[ebp], ecx

; 239  : 	if( IsParty(party_number) == FALSE ) return -1;

  0000c	8b 45 08	 mov	 eax, DWORD PTR _party_number$[ebp]
  0000f	50		 push	 eax
  00010	8b 4d fc	 mov	 ecx, DWORD PTR _this$[ebp]
  00013	e8 00 00 00 00	 call	 ?IsParty@PartyClass@@QAEHH@Z ; PartyClass::IsParty
  00018	85 c0		 test	 eax, eax
  0001a	75 08		 jne	 SHORT $LN5@Delete
  0001c	83 c8 ff	 or	 eax, -1
  0001f	e9 98 00 00 00	 jmp	 $LN1@Delete
$LN5@Delete:

; 240  : 
; 241  : 	for( int i=0; i<MAX_PARTYUSER; i++)

  00024	c7 45 f8 00 00
	00 00		 mov	 DWORD PTR _i$1[ebp], 0
  0002b	eb 09		 jmp	 SHORT $LN4@Delete
$LN2@Delete:
  0002d	8b 45 f8	 mov	 eax, DWORD PTR _i$1[ebp]
  00030	83 c0 01	 add	 eax, 1
  00033	89 45 f8	 mov	 DWORD PTR _i$1[ebp], eax
$LN4@Delete:
  00036	83 7d f8 05	 cmp	 DWORD PTR _i$1[ebp], 5
  0003a	7d 7d		 jge	 SHORT $LN3@Delete

; 242  : 	{
; 243  : 		if( m_PartyS[party_number].Number[i] == usernumber && 

  0003c	6b 45 08 30	 imul	 eax, DWORD PTR _party_number$[ebp], 48
  00040	8b 4d fc	 mov	 ecx, DWORD PTR _this$[ebp]
  00043	8d 54 01 08	 lea	 edx, DWORD PTR [ecx+eax+8]
  00047	8b 45 f8	 mov	 eax, DWORD PTR _i$1[ebp]
  0004a	8b 4c 82 04	 mov	 ecx, DWORD PTR [edx+eax*4+4]
  0004e	3b 4d 0c	 cmp	 ecx, DWORD PTR _usernumber$[ebp]
  00051	75 61		 jne	 SHORT $LN6@Delete
  00053	6b 45 08 30	 imul	 eax, DWORD PTR _party_number$[ebp], 48
  00057	8b 4d fc	 mov	 ecx, DWORD PTR _this$[ebp]
  0005a	8d 54 01 08	 lea	 edx, DWORD PTR [ecx+eax+8]
  0005e	8b 45 f8	 mov	 eax, DWORD PTR _i$1[ebp]
  00061	8b 4c 82 18	 mov	 ecx, DWORD PTR [edx+eax*4+24]
  00065	3b 4d 10	 cmp	 ecx, DWORD PTR _dbnumber$[ebp]
  00068	75 4a		 jne	 SHORT $LN6@Delete

; 244  : 			m_PartyS[party_number].DbNumber[i] == dbnumber )
; 245  : 		{
; 246  : 			m_PartyS[party_number].Number[i] = -1;

  0006a	6b 45 08 30	 imul	 eax, DWORD PTR _party_number$[ebp], 48
  0006e	8b 4d fc	 mov	 ecx, DWORD PTR _this$[ebp]
  00071	8d 54 01 08	 lea	 edx, DWORD PTR [ecx+eax+8]
  00075	8b 45 f8	 mov	 eax, DWORD PTR _i$1[ebp]
  00078	c7 44 82 04 ff
	ff ff ff	 mov	 DWORD PTR [edx+eax*4+4], -1

; 247  : #ifdef PARTYMEMBER_LIFELIST_FIX_20040531
; 248  : 			m_PartyS[party_number].DbNumber[i] = -1;

  00080	6b 45 08 30	 imul	 eax, DWORD PTR _party_number$[ebp], 48
  00084	8b 4d fc	 mov	 ecx, DWORD PTR _this$[ebp]
  00087	8d 54 01 08	 lea	 edx, DWORD PTR [ecx+eax+8]
  0008b	8b 45 f8	 mov	 eax, DWORD PTR _i$1[ebp]
  0008e	c7 44 82 18 ff
	ff ff ff	 mov	 DWORD PTR [edx+eax*4+24], -1

; 249  : #endif
; 250  : 			m_PartyS[party_number].Count--;

  00096	6b 45 08 30	 imul	 eax, DWORD PTR _party_number$[ebp], 48
  0009a	8b 4d fc	 mov	 ecx, DWORD PTR _this$[ebp]
  0009d	8b 54 01 08	 mov	 edx, DWORD PTR [ecx+eax+8]
  000a1	83 ea 01	 sub	 edx, 1
  000a4	6b 45 08 30	 imul	 eax, DWORD PTR _party_number$[ebp], 48
  000a8	8b 4d fc	 mov	 ecx, DWORD PTR _this$[ebp]
  000ab	89 54 01 08	 mov	 DWORD PTR [ecx+eax+8], edx

; 251  : 
; 252  : #ifdef UPDATE_PK_SYSTEM_20070302
; 253  : 			m_PartyS[party_number].m_UserPKLevel[i] = PK_LEVEL_DEFAULT;
; 254  : #endif
; 255  : 			return i;

  000af	8b 45 f8	 mov	 eax, DWORD PTR _i$1[ebp]
  000b2	eb 08		 jmp	 SHORT $LN1@Delete
$LN6@Delete:

; 256  : 		}
; 257  : 	}

  000b4	e9 74 ff ff ff	 jmp	 $LN2@Delete
$LN3@Delete:

; 258  : 	
; 259  : 	return -1;

  000b9	83 c8 ff	 or	 eax, -1
$LN1@Delete:

; 260  : }

  000bc	5f		 pop	 edi
  000bd	5e		 pop	 esi
  000be	5b		 pop	 ebx
  000bf	8b e5		 mov	 esp, ebp
  000c1	5d		 pop	 ebp
  000c2	c2 0c 00	 ret	 12			; 0000000cH
?Delete@PartyClass@@QAEHHHH@Z ENDP			; PartyClass::Delete
_TEXT	ENDS
; Function compile flags: /Odtp /ZI
; File C:\Mu Online\Mu-GS-Webzen-MC-10093\GameServer\PartyClass.cpp
;	COMDAT ?Add@PartyClass@@QAEHHHHH@Z
_TEXT	SEGMENT
_i$ = -8						; size = 4
_this$ = -4						; size = 4
_party_number$ = 8					; size = 4
_usernumber$ = 12					; size = 4
_dbnumber$ = 16						; size = 4
_level$ = 20						; size = 4
?Add@PartyClass@@QAEHHHHH@Z PROC			; PartyClass::Add, COMDAT
; _this$ = ecx

; 189  : {

  00000	55		 push	 ebp
  00001	8b ec		 mov	 ebp, esp
  00003	83 ec 48	 sub	 esp, 72			; 00000048H
  00006	53		 push	 ebx
  00007	56		 push	 esi
  00008	57		 push	 edi
  00009	89 4d fc	 mov	 DWORD PTR _this$[ebp], ecx

; 190  : 	int i;
; 191  : 	if( IsParty(party_number) == FALSE ) return -1;

  0000c	8b 45 08	 mov	 eax, DWORD PTR _party_number$[ebp]
  0000f	50		 push	 eax
  00010	8b 4d fc	 mov	 ecx, DWORD PTR _this$[ebp]
  00013	e8 00 00 00 00	 call	 ?IsParty@PartyClass@@QAEHH@Z ; PartyClass::IsParty
  00018	85 c0		 test	 eax, eax
  0001a	75 08		 jne	 SHORT $LN8@Add
  0001c	83 c8 ff	 or	 eax, -1
  0001f	e9 0a 01 00 00	 jmp	 $LN1@Add
$LN8@Add:

; 192  : 
; 193  : 	// 파티가 꽉찼다면 
; 194  : 	if( m_PartyS[party_number].Count >= MAX_PARTY ) 

  00024	6b 45 08 30	 imul	 eax, DWORD PTR _party_number$[ebp], 48
  00028	8b 4d fc	 mov	 ecx, DWORD PTR _this$[ebp]
  0002b	81 7c 01 08 e8
	1c 00 00	 cmp	 DWORD PTR [ecx+eax+8], 7400 ; 00001ce8H
  00033	7c 08		 jl	 SHORT $LN9@Add

; 195  : 		return -1;

  00035	83 c8 ff	 or	 eax, -1
  00038	e9 f1 00 00 00	 jmp	 $LN1@Add
$LN9@Add:

; 196  : 
; 197  : 
; 198  : 	// 같은 캐릭터가 있는지..
; 199  : 	for( i=0; i<MAX_PARTYUSER; i++)

  0003d	c7 45 f8 00 00
	00 00		 mov	 DWORD PTR _i$[ebp], 0
  00044	eb 09		 jmp	 SHORT $LN4@Add
$LN2@Add:
  00046	8b 45 f8	 mov	 eax, DWORD PTR _i$[ebp]
  00049	83 c0 01	 add	 eax, 1
  0004c	89 45 f8	 mov	 DWORD PTR _i$[ebp], eax
$LN4@Add:
  0004f	83 7d f8 05	 cmp	 DWORD PTR _i$[ebp], 5
  00053	7d 4f		 jge	 SHORT $LN3@Add

; 200  : 	{
; 201  : 		if( m_PartyS[party_number].Number[i] >= 0 )

  00055	6b 45 08 30	 imul	 eax, DWORD PTR _party_number$[ebp], 48
  00059	8b 4d fc	 mov	 ecx, DWORD PTR _this$[ebp]
  0005c	8d 54 01 08	 lea	 edx, DWORD PTR [ecx+eax+8]
  00060	8b 45 f8	 mov	 eax, DWORD PTR _i$[ebp]
  00063	83 7c 82 04 00	 cmp	 DWORD PTR [edx+eax*4+4], 0
  00068	7c 38		 jl	 SHORT $LN10@Add

; 202  : 		{
; 203  : 			if( m_PartyS[party_number].Number[i] == usernumber &&

  0006a	6b 45 08 30	 imul	 eax, DWORD PTR _party_number$[ebp], 48
  0006e	8b 4d fc	 mov	 ecx, DWORD PTR _this$[ebp]
  00071	8d 54 01 08	 lea	 edx, DWORD PTR [ecx+eax+8]
  00075	8b 45 f8	 mov	 eax, DWORD PTR _i$[ebp]
  00078	8b 4c 82 04	 mov	 ecx, DWORD PTR [edx+eax*4+4]
  0007c	3b 4d 0c	 cmp	 ecx, DWORD PTR _usernumber$[ebp]
  0007f	75 21		 jne	 SHORT $LN10@Add
  00081	6b 45 08 30	 imul	 eax, DWORD PTR _party_number$[ebp], 48
  00085	8b 4d fc	 mov	 ecx, DWORD PTR _this$[ebp]
  00088	8d 54 01 08	 lea	 edx, DWORD PTR [ecx+eax+8]
  0008c	8b 45 f8	 mov	 eax, DWORD PTR _i$[ebp]
  0008f	8b 4c 82 18	 mov	 ecx, DWORD PTR [edx+eax*4+24]
  00093	3b 4d 10	 cmp	 ecx, DWORD PTR _dbnumber$[ebp]
  00096	75 0a		 jne	 SHORT $LN10@Add

; 204  : 				m_PartyS[party_number].DbNumber[i] == dbnumber )
; 205  : 			{
; 206  : 				return -2;

  00098	b8 fe ff ff ff	 mov	 eax, -2			; fffffffeH
  0009d	e9 8c 00 00 00	 jmp	 $LN1@Add
$LN10@Add:

; 207  : 			}
; 208  : 		}
; 209  : 	}

  000a2	eb a2		 jmp	 SHORT $LN2@Add
$LN3@Add:

; 210  : 	for( i=0; i<MAX_PARTYUSER; i++)

  000a4	c7 45 f8 00 00
	00 00		 mov	 DWORD PTR _i$[ebp], 0
  000ab	eb 09		 jmp	 SHORT $LN7@Add
$LN5@Add:
  000ad	8b 45 f8	 mov	 eax, DWORD PTR _i$[ebp]
  000b0	83 c0 01	 add	 eax, 1
  000b3	89 45 f8	 mov	 DWORD PTR _i$[ebp], eax
$LN7@Add:
  000b6	83 7d f8 05	 cmp	 DWORD PTR _i$[ebp], 5
  000ba	7d 6f		 jge	 SHORT $LN6@Add

; 211  : 	{
; 212  : 		if( m_PartyS[party_number].Number[i] == -1 )

  000bc	6b 45 08 30	 imul	 eax, DWORD PTR _party_number$[ebp], 48
  000c0	8b 4d fc	 mov	 ecx, DWORD PTR _this$[ebp]
  000c3	8d 54 01 08	 lea	 edx, DWORD PTR [ecx+eax+8]
  000c7	8b 45 f8	 mov	 eax, DWORD PTR _i$[ebp]
  000ca	83 7c 82 04 ff	 cmp	 DWORD PTR [edx+eax*4+4], -1
  000cf	75 58		 jne	 SHORT $LN12@Add

; 213  : 		{
; 214  : 			m_PartyS[party_number].Number[i]   = usernumber;

  000d1	6b 45 08 30	 imul	 eax, DWORD PTR _party_number$[ebp], 48
  000d5	8b 4d fc	 mov	 ecx, DWORD PTR _this$[ebp]
  000d8	8d 54 01 08	 lea	 edx, DWORD PTR [ecx+eax+8]
  000dc	8b 45 f8	 mov	 eax, DWORD PTR _i$[ebp]
  000df	8b 4d 0c	 mov	 ecx, DWORD PTR _usernumber$[ebp]
  000e2	89 4c 82 04	 mov	 DWORD PTR [edx+eax*4+4], ecx

; 215  : 			m_PartyS[party_number].DbNumber[i] = dbnumber;

  000e6	6b 45 08 30	 imul	 eax, DWORD PTR _party_number$[ebp], 48
  000ea	8b 4d fc	 mov	 ecx, DWORD PTR _this$[ebp]
  000ed	8d 54 01 08	 lea	 edx, DWORD PTR [ecx+eax+8]
  000f1	8b 45 f8	 mov	 eax, DWORD PTR _i$[ebp]
  000f4	8b 4d 10	 mov	 ecx, DWORD PTR _dbnumber$[ebp]
  000f7	89 4c 82 18	 mov	 DWORD PTR [edx+eax*4+24], ecx

; 216  : 			m_PartyS[party_number].Count++;

  000fb	6b 45 08 30	 imul	 eax, DWORD PTR _party_number$[ebp], 48
  000ff	8b 4d fc	 mov	 ecx, DWORD PTR _this$[ebp]
  00102	8b 54 01 08	 mov	 edx, DWORD PTR [ecx+eax+8]
  00106	83 c2 01	 add	 edx, 1
  00109	6b 45 08 30	 imul	 eax, DWORD PTR _party_number$[ebp], 48
  0010d	8b 4d fc	 mov	 ecx, DWORD PTR _this$[ebp]
  00110	89 54 01 08	 mov	 DWORD PTR [ecx+eax+8], edx

; 217  : 			SetLevel(party_number, level);

  00114	8b 45 14	 mov	 eax, DWORD PTR _level$[ebp]
  00117	50		 push	 eax
  00118	8b 4d 08	 mov	 ecx, DWORD PTR _party_number$[ebp]
  0011b	51		 push	 ecx
  0011c	8b 4d fc	 mov	 ecx, DWORD PTR _this$[ebp]
  0011f	e8 00 00 00 00	 call	 ?SetLevel@PartyClass@@QAEHHH@Z ; PartyClass::SetLevel

; 218  : 
; 219  : #ifdef UPDATE_PK_SYSTEM_20070302	// 파티원 추가시 살인마인지 확인
; 220  : 			m_PartyS[party_number].m_UserPKLevel[i] = gObj[usernumber].m_PK_Level;
; 221  : 			if(m_PartyS[party_number].m_UserPKLevel[i] >= PK_LEVEL_DEFAULT+2)
; 222  : 			{
; 223  : 				if(m_PartyS[party_number].m_PKPartyLevel < m_PartyS[party_number].m_UserPKLevel[i])
; 224  : 				{
; 225  : 					m_PartyS[party_number].m_PKPartyLevel = m_PartyS[party_number].m_UserPKLevel[i];
; 226  : 				}
; 227  : 				m_PartyS[party_number].m_nPKUserCount++;
; 228  : 			}
; 229  : #endif
; 230  : 			return i;

  00124	8b 45 f8	 mov	 eax, DWORD PTR _i$[ebp]
  00127	eb 05		 jmp	 SHORT $LN1@Add
$LN12@Add:

; 231  : 		}
; 232  : 	}

  00129	eb 82		 jmp	 SHORT $LN5@Add
$LN6@Add:

; 233  : 	return -1;

  0012b	83 c8 ff	 or	 eax, -1
$LN1@Add:

; 234  : }

  0012e	5f		 pop	 edi
  0012f	5e		 pop	 esi
  00130	5b		 pop	 ebx
  00131	8b e5		 mov	 esp, ebp
  00133	5d		 pop	 ebp
  00134	c2 10 00	 ret	 16			; 00000010H
?Add@PartyClass@@QAEHHHHH@Z ENDP			; PartyClass::Add
_TEXT	ENDS
; Function compile flags: /Odtp /ZI
; File C:\Mu Online\Mu-GS-Webzen-MC-10093\GameServer\PartyClass.cpp
;	COMDAT ?Destroy@PartyClass@@QAEHH@Z
_TEXT	SEGMENT
_this$ = -4						; size = 4
_party_number$ = 8					; size = 4
?Destroy@PartyClass@@QAEHH@Z PROC			; PartyClass::Destroy, COMDAT
; _this$ = ecx

; 171  : {

  00000	55		 push	 ebp
  00001	8b ec		 mov	 ebp, esp
  00003	83 ec 44	 sub	 esp, 68			; 00000044H
  00006	53		 push	 ebx
  00007	56		 push	 esi
  00008	57		 push	 edi
  00009	89 4d fc	 mov	 DWORD PTR _this$[ebp], ecx

; 172  : 	if( IsParty(party_number) == FALSE ) return FALSE;

  0000c	8b 45 08	 mov	 eax, DWORD PTR _party_number$[ebp]
  0000f	50		 push	 eax
  00010	8b 4d fc	 mov	 ecx, DWORD PTR _this$[ebp]
  00013	e8 00 00 00 00	 call	 ?IsParty@PartyClass@@QAEHH@Z ; PartyClass::IsParty
  00018	85 c0		 test	 eax, eax
  0001a	75 04		 jne	 SHORT $LN2@Destroy
  0001c	33 c0		 xor	 eax, eax
  0001e	eb 56		 jmp	 SHORT $LN1@Destroy
$LN2@Destroy:

; 173  : 
; 174  : 	/*if( usernumber == m_PartyS[party_number].Number[0] &&
; 175  : 		dbnumber   == m_PartyS[party_number].DbNumber[0] )
; 176  : 	{
; 177  : 	*/
; 178  : 		m_PartyS[party_number].Count = 0;

  00020	6b 45 08 30	 imul	 eax, DWORD PTR _party_number$[ebp], 48
  00024	8b 4d fc	 mov	 ecx, DWORD PTR _this$[ebp]
  00027	c7 44 01 08 00
	00 00 00	 mov	 DWORD PTR [ecx+eax+8], 0

; 179  : 		m_PartyS[party_number].Number[0] = -1;

  0002f	6b 45 08 30	 imul	 eax, DWORD PTR _party_number$[ebp], 48
  00033	8b 4d fc	 mov	 ecx, DWORD PTR _this$[ebp]
  00036	8d 54 01 08	 lea	 edx, DWORD PTR [ecx+eax+8]
  0003a	b8 04 00 00 00	 mov	 eax, 4
  0003f	6b c8 00	 imul	 ecx, eax, 0
  00042	c7 44 0a 04 ff
	ff ff ff	 mov	 DWORD PTR [edx+ecx+4], -1

; 180  : 		m_PartyS[party_number].DbNumber[0] = -1;

  0004a	6b 45 08 30	 imul	 eax, DWORD PTR _party_number$[ebp], 48
  0004e	8b 4d fc	 mov	 ecx, DWORD PTR _this$[ebp]
  00051	8d 54 01 08	 lea	 edx, DWORD PTR [ecx+eax+8]
  00055	b8 04 00 00 00	 mov	 eax, 4
  0005a	6b c8 00	 imul	 ecx, eax, 0
  0005d	c7 44 0a 18 ff
	ff ff ff	 mov	 DWORD PTR [edx+ecx+24], -1

; 181  : 		m_PartyCount--;

  00065	8b 45 fc	 mov	 eax, DWORD PTR _this$[ebp]
  00068	8b 48 04	 mov	 ecx, DWORD PTR [eax+4]
  0006b	83 e9 01	 sub	 ecx, 1
  0006e	8b 55 fc	 mov	 edx, DWORD PTR _this$[ebp]
  00071	89 4a 04	 mov	 DWORD PTR [edx+4], ecx

; 182  : //		return TRUE;
; 183  : //	}
; 184  : 	return FALSE;

  00074	33 c0		 xor	 eax, eax
$LN1@Destroy:

; 185  : }

  00076	5f		 pop	 edi
  00077	5e		 pop	 esi
  00078	5b		 pop	 ebx
  00079	8b e5		 mov	 esp, ebp
  0007b	5d		 pop	 ebp
  0007c	c2 04 00	 ret	 4
?Destroy@PartyClass@@QAEHH@Z ENDP			; PartyClass::Destroy
_TEXT	ENDS
; Function compile flags: /Odtp /ZI
; File C:\Mu Online\Mu-GS-Webzen-MC-10093\GameServer\PartyClass.cpp
;	COMDAT ?Create@PartyClass@@QAEHHHH@Z
_TEXT	SEGMENT
_i$1 = -16						; size = 4
_loopcount$ = -12					; size = 4
_n$ = -8						; size = 4
_this$ = -4						; size = 4
_usernumber$ = 8					; size = 4
_dbnumber$ = 12						; size = 4
_level$ = 16						; size = 4
?Create@PartyClass@@QAEHHHH@Z PROC			; PartyClass::Create, COMDAT
; _this$ = ecx

; 99   : {

  00000	55		 push	 ebp
  00001	8b ec		 mov	 ebp, esp
  00003	83 ec 50	 sub	 esp, 80			; 00000050H
  00006	53		 push	 ebx
  00007	56		 push	 esi
  00008	57		 push	 edi
  00009	89 4d fc	 mov	 DWORD PTR _this$[ebp], ecx

; 100  : 	int n=m_PartyCount;

  0000c	8b 45 fc	 mov	 eax, DWORD PTR _this$[ebp]
  0000f	8b 48 04	 mov	 ecx, DWORD PTR [eax+4]
  00012	89 4d f8	 mov	 DWORD PTR _n$[ebp], ecx

; 101  : 	int loopcount=0;

  00015	c7 45 f4 00 00
	00 00		 mov	 DWORD PTR _loopcount$[ebp], 0
$LN2@Create:

; 102  : 
; 103  : 	while(1)

  0001c	b8 01 00 00 00	 mov	 eax, 1
  00021	85 c0		 test	 eax, eax
  00023	0f 84 23 01 00
	00		 je	 $LN3@Create

; 104  : 	{
; 105  : 		if( m_PartyS[n].Count == 0 )

  00029	6b 45 f8 30	 imul	 eax, DWORD PTR _n$[ebp], 48
  0002d	8b 4d fc	 mov	 ecx, DWORD PTR _this$[ebp]
  00030	83 7c 01 08 00	 cmp	 DWORD PTR [ecx+eax+8], 0
  00035	0f 85 df 00 00
	00		 jne	 $LN7@Create

; 106  : 		{
; 107  : 			m_PartyS[n].Count = 1;

  0003b	6b 45 f8 30	 imul	 eax, DWORD PTR _n$[ebp], 48
  0003f	8b 4d fc	 mov	 ecx, DWORD PTR _this$[ebp]
  00042	c7 44 01 08 01
	00 00 00	 mov	 DWORD PTR [ecx+eax+8], 1

; 108  : 			m_PartyS[n].Number[0] = usernumber;

  0004a	6b 45 f8 30	 imul	 eax, DWORD PTR _n$[ebp], 48
  0004e	8b 4d fc	 mov	 ecx, DWORD PTR _this$[ebp]
  00051	8d 54 01 08	 lea	 edx, DWORD PTR [ecx+eax+8]
  00055	b8 04 00 00 00	 mov	 eax, 4
  0005a	6b c8 00	 imul	 ecx, eax, 0
  0005d	8b 45 08	 mov	 eax, DWORD PTR _usernumber$[ebp]
  00060	89 44 0a 04	 mov	 DWORD PTR [edx+ecx+4], eax

; 109  : 			m_PartyS[n].DbNumber[0] = dbnumber;

  00064	6b 45 f8 30	 imul	 eax, DWORD PTR _n$[ebp], 48
  00068	8b 4d fc	 mov	 ecx, DWORD PTR _this$[ebp]
  0006b	8d 54 01 08	 lea	 edx, DWORD PTR [ecx+eax+8]
  0006f	b8 04 00 00 00	 mov	 eax, 4
  00074	6b c8 00	 imul	 ecx, eax, 0
  00077	8b 45 0c	 mov	 eax, DWORD PTR _dbnumber$[ebp]
  0007a	89 44 0a 18	 mov	 DWORD PTR [edx+ecx+24], eax

; 110  : 			for( int i=1; i<MAX_PARTYUSER; i++)

  0007e	c7 45 f0 01 00
	00 00		 mov	 DWORD PTR _i$1[ebp], 1
  00085	eb 09		 jmp	 SHORT $LN6@Create
$LN4@Create:
  00087	8b 45 f0	 mov	 eax, DWORD PTR _i$1[ebp]
  0008a	83 c0 01	 add	 eax, 1
  0008d	89 45 f0	 mov	 DWORD PTR _i$1[ebp], eax
$LN6@Create:
  00090	83 7d f0 05	 cmp	 DWORD PTR _i$1[ebp], 5
  00094	7d 2e		 jge	 SHORT $LN5@Create

; 111  : 			{
; 112  : 				m_PartyS[n].DbNumber[i] = -1;

  00096	6b 45 f8 30	 imul	 eax, DWORD PTR _n$[ebp], 48
  0009a	8b 4d fc	 mov	 ecx, DWORD PTR _this$[ebp]
  0009d	8d 54 01 08	 lea	 edx, DWORD PTR [ecx+eax+8]
  000a1	8b 45 f0	 mov	 eax, DWORD PTR _i$1[ebp]
  000a4	c7 44 82 18 ff
	ff ff ff	 mov	 DWORD PTR [edx+eax*4+24], -1

; 113  : 				m_PartyS[n].Number[i]   = -1;

  000ac	6b 45 f8 30	 imul	 eax, DWORD PTR _n$[ebp], 48
  000b0	8b 4d fc	 mov	 ecx, DWORD PTR _this$[ebp]
  000b3	8d 54 01 08	 lea	 edx, DWORD PTR [ecx+eax+8]
  000b7	8b 45 f0	 mov	 eax, DWORD PTR _i$1[ebp]
  000ba	c7 44 82 04 ff
	ff ff ff	 mov	 DWORD PTR [edx+eax*4+4], -1

; 114  : 			}

  000c2	eb c3		 jmp	 SHORT $LN4@Create
$LN5@Create:

; 115  : 			m_PartyCount++;

  000c4	8b 45 fc	 mov	 eax, DWORD PTR _this$[ebp]
  000c7	8b 48 04	 mov	 ecx, DWORD PTR [eax+4]
  000ca	83 c1 01	 add	 ecx, 1
  000cd	8b 55 fc	 mov	 edx, DWORD PTR _this$[ebp]
  000d0	89 4a 04	 mov	 DWORD PTR [edx+4], ecx

; 116  : 			m_PartyS[n].m_MaxLevel = 0;

  000d3	6b 45 f8 30	 imul	 eax, DWORD PTR _n$[ebp], 48
  000d7	33 c9		 xor	 ecx, ecx
  000d9	8b 55 fc	 mov	 edx, DWORD PTR _this$[ebp]
  000dc	66 89 4c 02 34	 mov	 WORD PTR [edx+eax+52], cx

; 117  : 			m_PartyS[n].m_MinLevel = 0;

  000e1	6b 45 f8 30	 imul	 eax, DWORD PTR _n$[ebp], 48
  000e5	33 c9		 xor	 ecx, ecx
  000e7	8b 55 fc	 mov	 edx, DWORD PTR _this$[ebp]
  000ea	66 89 4c 02 36	 mov	 WORD PTR [edx+eax+54], cx

; 118  : 			SetLevel(n, level);

  000ef	8b 45 10	 mov	 eax, DWORD PTR _level$[ebp]
  000f2	50		 push	 eax
  000f3	8b 4d f8	 mov	 ecx, DWORD PTR _n$[ebp]
  000f6	51		 push	 ecx
  000f7	8b 4d fc	 mov	 ecx, DWORD PTR _this$[ebp]
  000fa	e8 00 00 00 00	 call	 ?SetLevel@PartyClass@@QAEHHH@Z ; PartyClass::SetLevel

; 119  : 			if( m_PartyCount > MAX_PARTY-1 ) m_PartyCount = 0;

  000ff	8b 45 fc	 mov	 eax, DWORD PTR _this$[ebp]
  00102	81 78 04 e7 1c
	00 00		 cmp	 DWORD PTR [eax+4], 7399	; 00001ce7H
  00109	7e 0a		 jle	 SHORT $LN8@Create
  0010b	8b 45 fc	 mov	 eax, DWORD PTR _this$[ebp]
  0010e	c7 40 04 00 00
	00 00		 mov	 DWORD PTR [eax+4], 0
$LN8@Create:

; 120  : 
; 121  : #ifdef UPDATE_PK_SYSTEM_20070302	// 파티 생성시 파티 리더가 살인마인지 확인
; 122  : 			m_PartyS[n].m_UserPKLevel[0] = gObj[usernumber].m_PK_Level;
; 123  : 			if(m_PartyS[n].m_UserPKLevel[0] >= PK_LEVEL_DEFAULT+2)
; 124  : 			{
; 125  : 				m_PartyS[n].m_PKPartyLevel		= m_PartyS[n].m_UserPKLevel[0];
; 126  : 				m_PartyS[n].m_nPKUserCount		= 1;
; 127  : 			}
; 128  : 			else
; 129  : 			{
; 130  : 				m_PartyS[n].m_PKPartyLevel		= PK_LEVEL_DEFAULT;
; 131  : 				m_PartyS[n].m_nPKUserCount		= 0;
; 132  : 			}
; 133  : #endif
; 134  : 			return n;

  00115	8b 45 f8	 mov	 eax, DWORD PTR _n$[ebp]
  00118	eb 35		 jmp	 SHORT $LN1@Create
$LN7@Create:

; 135  : 		}
; 136  : 		n++;

  0011a	8b 45 f8	 mov	 eax, DWORD PTR _n$[ebp]
  0011d	83 c0 01	 add	 eax, 1
  00120	89 45 f8	 mov	 DWORD PTR _n$[ebp], eax

; 137  : 		if( n > MAX_PARTY-1 ) n = 0;

  00123	81 7d f8 e7 1c
	00 00		 cmp	 DWORD PTR _n$[ebp], 7399 ; 00001ce7H
  0012a	7e 07		 jle	 SHORT $LN9@Create
  0012c	c7 45 f8 00 00
	00 00		 mov	 DWORD PTR _n$[ebp], 0
$LN9@Create:

; 138  : 		loopcount++;

  00133	8b 45 f4	 mov	 eax, DWORD PTR _loopcount$[ebp]
  00136	83 c0 01	 add	 eax, 1
  00139	89 45 f4	 mov	 DWORD PTR _loopcount$[ebp], eax

; 139  : 		if( loopcount > MAX_PARTY-1 ) break;

  0013c	81 7d f4 e7 1c
	00 00		 cmp	 DWORD PTR _loopcount$[ebp], 7399 ; 00001ce7H
  00143	7e 02		 jle	 SHORT $LN10@Create
  00145	eb 05		 jmp	 SHORT $LN3@Create
$LN10@Create:

; 140  : 	}

  00147	e9 d0 fe ff ff	 jmp	 $LN2@Create
$LN3@Create:

; 141  : 
; 142  : 	return -1;

  0014c	83 c8 ff	 or	 eax, -1
$LN1@Create:

; 143  : }

  0014f	5f		 pop	 edi
  00150	5e		 pop	 esi
  00151	5b		 pop	 ebx
  00152	8b e5		 mov	 esp, ebp
  00154	5d		 pop	 ebp
  00155	c2 0c 00	 ret	 12			; 0000000cH
?Create@PartyClass@@QAEHHHH@Z ENDP			; PartyClass::Create
_TEXT	ENDS
; Function compile flags: /Odtp /ZI
; File C:\Mu Online\Mu-GS-Webzen-MC-10093\GameServer\PartyClass.cpp
;	COMDAT ?IsParty@PartyClass@@QAEHH@Z
_TEXT	SEGMENT
_this$ = -4						; size = 4
_party_number$ = 8					; size = 4
?IsParty@PartyClass@@QAEHH@Z PROC			; PartyClass::IsParty, COMDAT
; _this$ = ecx

; 28   : {

  00000	55		 push	 ebp
  00001	8b ec		 mov	 ebp, esp
  00003	83 ec 44	 sub	 esp, 68			; 00000044H
  00006	53		 push	 ebx
  00007	56		 push	 esi
  00008	57		 push	 edi
  00009	89 4d fc	 mov	 DWORD PTR _this$[ebp], ecx

; 29   : 	if( party_number < 0 || 

  0000c	83 7d 08 00	 cmp	 DWORD PTR _party_number$[ebp], 0
  00010	7c 09		 jl	 SHORT $LN3@IsParty
  00012	81 7d 08 e8 1c
	00 00		 cmp	 DWORD PTR _party_number$[ebp], 7400 ; 00001ce8H
  00019	7e 04		 jle	 SHORT $LN2@IsParty
$LN3@IsParty:

; 30   : 		party_number > MAX_PARTY ) return FALSE;

  0001b	33 c0		 xor	 eax, eax
  0001d	eb 17		 jmp	 SHORT $LN1@IsParty
$LN2@IsParty:

; 31   : 	
; 32   : 	if( m_PartyS[party_number].Count == 0 )	// 파티가 없는거라면??

  0001f	6b 45 08 30	 imul	 eax, DWORD PTR _party_number$[ebp], 48
  00023	8b 4d fc	 mov	 ecx, DWORD PTR _this$[ebp]
  00026	83 7c 01 08 00	 cmp	 DWORD PTR [ecx+eax+8], 0
  0002b	75 04		 jne	 SHORT $LN4@IsParty

; 33   : 		return FALSE;

  0002d	33 c0		 xor	 eax, eax
  0002f	eb 05		 jmp	 SHORT $LN1@IsParty
$LN4@IsParty:

; 34   : 
; 35   : 	return TRUE;

  00031	b8 01 00 00 00	 mov	 eax, 1
$LN1@IsParty:

; 36   : }

  00036	5f		 pop	 edi
  00037	5e		 pop	 esi
  00038	5b		 pop	 ebx
  00039	8b e5		 mov	 esp, ebp
  0003b	5d		 pop	 ebp
  0003c	c2 04 00	 ret	 4
?IsParty@PartyClass@@QAEHH@Z ENDP			; PartyClass::IsParty
_TEXT	ENDS
; Function compile flags: /Odtp /ZI
; File C:\Mu Online\Mu-GS-Webzen-MC-10093\GameServer\PartyClass.cpp
;	COMDAT ??1PartyClass@@UAE@XZ
_TEXT	SEGMENT
_this$ = -4						; size = 4
??1PartyClass@@UAE@XZ PROC				; PartyClass::~PartyClass, COMDAT
; _this$ = ecx

; 21   : {

  00000	55		 push	 ebp
  00001	8b ec		 mov	 ebp, esp
  00003	83 ec 44	 sub	 esp, 68			; 00000044H
  00006	53		 push	 ebx
  00007	56		 push	 esi
  00008	57		 push	 edi
  00009	89 4d fc	 mov	 DWORD PTR _this$[ebp], ecx
  0000c	8b 45 fc	 mov	 eax, DWORD PTR _this$[ebp]
  0000f	c7 00 00 00 00
	00		 mov	 DWORD PTR [eax], OFFSET ??_7PartyClass@@6B@

; 22   : 	
; 23   : }

  00015	5f		 pop	 edi
  00016	5e		 pop	 esi
  00017	5b		 pop	 ebx
  00018	8b e5		 mov	 esp, ebp
  0001a	5d		 pop	 ebp
  0001b	c3		 ret	 0
??1PartyClass@@UAE@XZ ENDP				; PartyClass::~PartyClass
_TEXT	ENDS
; Function compile flags: /Odtp /ZI
; File C:\Mu Online\Mu-GS-Webzen-MC-10093\GameServer\PartyClass.cpp
;	COMDAT ??0PartyClass@@QAE@XZ
_TEXT	SEGMENT
_this$ = -4						; size = 4
??0PartyClass@@QAE@XZ PROC				; PartyClass::PartyClass, COMDAT
; _this$ = ecx

; 16   : {

  00000	55		 push	 ebp
  00001	8b ec		 mov	 ebp, esp
  00003	83 ec 44	 sub	 esp, 68			; 00000044H
  00006	53		 push	 ebx
  00007	56		 push	 esi
  00008	57		 push	 edi
  00009	89 4d fc	 mov	 DWORD PTR _this$[ebp], ecx
  0000c	8b 45 fc	 mov	 eax, DWORD PTR _this$[ebp]
  0000f	c7 00 00 00 00
	00		 mov	 DWORD PTR [eax], OFFSET ??_7PartyClass@@6B@

; 17   : 
; 18   : }

  00015	8b 45 fc	 mov	 eax, DWORD PTR _this$[ebp]
  00018	5f		 pop	 edi
  00019	5e		 pop	 esi
  0001a	5b		 pop	 ebx
  0001b	8b e5		 mov	 esp, ebp
  0001d	5d		 pop	 ebp
  0001e	c3		 ret	 0
??0PartyClass@@QAE@XZ ENDP				; PartyClass::PartyClass
_TEXT	ENDS
; Function compile flags: /Odtp /ZI
; File C:\Mu Online\Mu-GS-Webzen-MC-10093\GameServer\PartyClass.cpp
;	COMDAT ?__empty_global_delete@@YAXPAXI@Z
_TEXT	SEGMENT
___formal$ = 8						; size = 4
___formal$ = 12						; size = 4
?__empty_global_delete@@YAXPAXI@Z PROC			; __empty_global_delete, COMDAT

  00000	55		 push	 ebp
  00001	8b ec		 mov	 ebp, esp
  00003	83 ec 40	 sub	 esp, 64			; 00000040H
  00006	53		 push	 ebx
  00007	56		 push	 esi
  00008	57		 push	 edi
  00009	5f		 pop	 edi
  0000a	5e		 pop	 esi
  0000b	5b		 pop	 ebx
  0000c	8b e5		 mov	 esp, ebp
  0000e	5d		 pop	 ebp
  0000f	c3		 ret	 0
?__empty_global_delete@@YAXPAXI@Z ENDP			; __empty_global_delete
_TEXT	ENDS
; Function compile flags: /Odtp /ZI
; File C:\Mu Online\Mu-GS-Webzen-MC-10093\GameServer\PartyClass.cpp
;	COMDAT ?__empty_global_delete@@YAXPAX@Z
_TEXT	SEGMENT
___formal$ = 8						; size = 4
?__empty_global_delete@@YAXPAX@Z PROC			; __empty_global_delete, COMDAT

  00000	55		 push	 ebp
  00001	8b ec		 mov	 ebp, esp
  00003	83 ec 40	 sub	 esp, 64			; 00000040H
  00006	53		 push	 ebx
  00007	56		 push	 esi
  00008	57		 push	 edi
  00009	5f		 pop	 edi
  0000a	5e		 pop	 esi
  0000b	5b		 pop	 ebx
  0000c	8b e5		 mov	 esp, ebp
  0000e	5d		 pop	 ebp
  0000f	c3		 ret	 0
?__empty_global_delete@@YAXPAX@Z ENDP			; __empty_global_delete
_TEXT	ENDS
END
