; Listing generated by Microsoft (R) Optimizing Compiler Version 19.27.29111.0 

	TITLE	C:\Mu Online\Mu-GS-Webzen-MC-10093\GameServer\PCBangPointSystem.cpp
	.686P
	.XMM
	include listing.inc
	.model	flat

INCLUDELIB LIBCMT
INCLUDELIB OLDNAMES

PUBLIC	?__empty_global_delete@@YAXPAX@Z		; __empty_global_delete
PUBLIC	?__empty_global_delete@@YAXPAXI@Z		; __empty_global_delete
EXTRN	?MakeItemNumber@@YAHHH@Z:PROC			; MakeItemNumber
_BSS	SEGMENT
?g_iChaosCastle_MonsterItems@@3PAY111HA DD 018H DUP (?)	; g_iChaosCastle_MonsterItems
_BSS	ENDS
CRT$XCU	SEGMENT
?g_iChaosCastle_MonsterItems$initializer$@@3P6AXXZA DD FLAT:??__Eg_iChaosCastle_MonsterItems@@YAXXZ ; g_iChaosCastle_MonsterItems$initializer$
CRT$XCU	ENDS
; Function compile flags: /Odtp /ZI
; File C:\Mu Online\Mu-GS-Webzen-MC-10093\GameServer\ChaosCastle.h
;	COMDAT ??__Eg_iChaosCastle_MonsterItems@@YAXXZ
text$di	SEGMENT
??__Eg_iChaosCastle_MonsterItems@@YAXXZ PROC		; `dynamic initializer for 'g_iChaosCastle_MonsterItems'', COMDAT

; 359  : };

  00000	55		 push	 ebp
  00001	8b ec		 mov	 ebp, esp
  00003	83 ec 40	 sub	 esp, 64			; 00000040H
  00006	53		 push	 ebx
  00007	56		 push	 esi
  00008	57		 push	 edi

; 337  : 	MAKE_ITEMNUM(14, 13),		1,								// 1번 캐슬 - 축석

  00009	6a 0d		 push	 13			; 0000000dH
  0000b	6a 0e		 push	 14			; 0000000eH
  0000d	e8 00 00 00 00	 call	 ?MakeItemNumber@@YAHHH@Z ; MakeItemNumber
  00012	83 c4 08	 add	 esp, 8
  00015	a3 00 00 00 00	 mov	 DWORD PTR ?g_iChaosCastle_MonsterItems@@3PAY111HA, eax
  0001a	c7 05 04 00 00
	00 01 00 00 00	 mov	 DWORD PTR ?g_iChaosCastle_MonsterItems@@3PAY111HA+4, 1

; 338  : 	MAKE_ITEMNUM(14, 14),		2,								// 1번 캐슬 - 영석

  00024	6a 0e		 push	 14			; 0000000eH
  00026	6a 0e		 push	 14			; 0000000eH
  00028	e8 00 00 00 00	 call	 ?MakeItemNumber@@YAHHH@Z ; MakeItemNumber
  0002d	83 c4 08	 add	 esp, 8
  00030	a3 08 00 00 00	 mov	 DWORD PTR ?g_iChaosCastle_MonsterItems@@3PAY111HA+8, eax
  00035	c7 05 0c 00 00
	00 02 00 00 00	 mov	 DWORD PTR ?g_iChaosCastle_MonsterItems@@3PAY111HA+12, 2

; 339  : 	
; 340  : 	MAKE_ITEMNUM(14, 13),		1,								// 2번 캐슬 - 축석

  0003f	6a 0d		 push	 13			; 0000000dH
  00041	6a 0e		 push	 14			; 0000000eH
  00043	e8 00 00 00 00	 call	 ?MakeItemNumber@@YAHHH@Z ; MakeItemNumber
  00048	83 c4 08	 add	 esp, 8
  0004b	a3 10 00 00 00	 mov	 DWORD PTR ?g_iChaosCastle_MonsterItems@@3PAY111HA+16, eax
  00050	c7 05 14 00 00
	00 01 00 00 00	 mov	 DWORD PTR ?g_iChaosCastle_MonsterItems@@3PAY111HA+20, 1

; 341  : 	MAKE_ITEMNUM(14, 14),		3,								// 2번 캐슬 - 영석

  0005a	6a 0e		 push	 14			; 0000000eH
  0005c	6a 0e		 push	 14			; 0000000eH
  0005e	e8 00 00 00 00	 call	 ?MakeItemNumber@@YAHHH@Z ; MakeItemNumber
  00063	83 c4 08	 add	 esp, 8
  00066	a3 18 00 00 00	 mov	 DWORD PTR ?g_iChaosCastle_MonsterItems@@3PAY111HA+24, eax
  0006b	c7 05 1c 00 00
	00 03 00 00 00	 mov	 DWORD PTR ?g_iChaosCastle_MonsterItems@@3PAY111HA+28, 3

; 342  : 	
; 343  : 	MAKE_ITEMNUM(14, 13),		1,								// 3번 캐슬 - 축석

  00075	6a 0d		 push	 13			; 0000000dH
  00077	6a 0e		 push	 14			; 0000000eH
  00079	e8 00 00 00 00	 call	 ?MakeItemNumber@@YAHHH@Z ; MakeItemNumber
  0007e	83 c4 08	 add	 esp, 8
  00081	a3 20 00 00 00	 mov	 DWORD PTR ?g_iChaosCastle_MonsterItems@@3PAY111HA+32, eax
  00086	c7 05 24 00 00
	00 01 00 00 00	 mov	 DWORD PTR ?g_iChaosCastle_MonsterItems@@3PAY111HA+36, 1

; 344  : 	MAKE_ITEMNUM(14, 14),		3,								// 3번 캐슬 - 영석

  00090	6a 0e		 push	 14			; 0000000eH
  00092	6a 0e		 push	 14			; 0000000eH
  00094	e8 00 00 00 00	 call	 ?MakeItemNumber@@YAHHH@Z ; MakeItemNumber
  00099	83 c4 08	 add	 esp, 8
  0009c	a3 28 00 00 00	 mov	 DWORD PTR ?g_iChaosCastle_MonsterItems@@3PAY111HA+40, eax
  000a1	c7 05 2c 00 00
	00 03 00 00 00	 mov	 DWORD PTR ?g_iChaosCastle_MonsterItems@@3PAY111HA+44, 3

; 345  : 	
; 346  : 	MAKE_ITEMNUM(14, 13),		2,								// 4번 캐슬 - 축석

  000ab	6a 0d		 push	 13			; 0000000dH
  000ad	6a 0e		 push	 14			; 0000000eH
  000af	e8 00 00 00 00	 call	 ?MakeItemNumber@@YAHHH@Z ; MakeItemNumber
  000b4	83 c4 08	 add	 esp, 8
  000b7	a3 30 00 00 00	 mov	 DWORD PTR ?g_iChaosCastle_MonsterItems@@3PAY111HA+48, eax
  000bc	c7 05 34 00 00
	00 02 00 00 00	 mov	 DWORD PTR ?g_iChaosCastle_MonsterItems@@3PAY111HA+52, 2

; 347  : 	MAKE_ITEMNUM(14, 14),		2,								// 4번 캐슬 - 영석

  000c6	6a 0e		 push	 14			; 0000000eH
  000c8	6a 0e		 push	 14			; 0000000eH
  000ca	e8 00 00 00 00	 call	 ?MakeItemNumber@@YAHHH@Z ; MakeItemNumber
  000cf	83 c4 08	 add	 esp, 8
  000d2	a3 38 00 00 00	 mov	 DWORD PTR ?g_iChaosCastle_MonsterItems@@3PAY111HA+56, eax
  000d7	c7 05 3c 00 00
	00 02 00 00 00	 mov	 DWORD PTR ?g_iChaosCastle_MonsterItems@@3PAY111HA+60, 2

; 348  : 	
; 349  : 	MAKE_ITEMNUM(14, 13),		2,								// 5번 캐슬 - 축석

  000e1	6a 0d		 push	 13			; 0000000dH
  000e3	6a 0e		 push	 14			; 0000000eH
  000e5	e8 00 00 00 00	 call	 ?MakeItemNumber@@YAHHH@Z ; MakeItemNumber
  000ea	83 c4 08	 add	 esp, 8
  000ed	a3 40 00 00 00	 mov	 DWORD PTR ?g_iChaosCastle_MonsterItems@@3PAY111HA+64, eax
  000f2	c7 05 44 00 00
	00 02 00 00 00	 mov	 DWORD PTR ?g_iChaosCastle_MonsterItems@@3PAY111HA+68, 2

; 350  : 	MAKE_ITEMNUM(14, 14),		3,								// 5번 캐슬 - 영석

  000fc	6a 0e		 push	 14			; 0000000eH
  000fe	6a 0e		 push	 14			; 0000000eH
  00100	e8 00 00 00 00	 call	 ?MakeItemNumber@@YAHHH@Z ; MakeItemNumber
  00105	83 c4 08	 add	 esp, 8
  00108	a3 48 00 00 00	 mov	 DWORD PTR ?g_iChaosCastle_MonsterItems@@3PAY111HA+72, eax
  0010d	c7 05 4c 00 00
	00 03 00 00 00	 mov	 DWORD PTR ?g_iChaosCastle_MonsterItems@@3PAY111HA+76, 3

; 351  : 	
; 352  : 	MAKE_ITEMNUM(14, 13),		2,								// 6번 캐슬 - 축석

  00117	6a 0d		 push	 13			; 0000000dH
  00119	6a 0e		 push	 14			; 0000000eH
  0011b	e8 00 00 00 00	 call	 ?MakeItemNumber@@YAHHH@Z ; MakeItemNumber
  00120	83 c4 08	 add	 esp, 8
  00123	a3 50 00 00 00	 mov	 DWORD PTR ?g_iChaosCastle_MonsterItems@@3PAY111HA+80, eax
  00128	c7 05 54 00 00
	00 02 00 00 00	 mov	 DWORD PTR ?g_iChaosCastle_MonsterItems@@3PAY111HA+84, 2

; 353  : 	MAKE_ITEMNUM(14, 14),		3,								// 6번 캐슬 - 영석

  00132	6a 0e		 push	 14			; 0000000eH
  00134	6a 0e		 push	 14			; 0000000eH
  00136	e8 00 00 00 00	 call	 ?MakeItemNumber@@YAHHH@Z ; MakeItemNumber
  0013b	83 c4 08	 add	 esp, 8
  0013e	a3 58 00 00 00	 mov	 DWORD PTR ?g_iChaosCastle_MonsterItems@@3PAY111HA+88, eax
  00143	c7 05 5c 00 00
	00 03 00 00 00	 mov	 DWORD PTR ?g_iChaosCastle_MonsterItems@@3PAY111HA+92, 3
  0014d	5f		 pop	 edi
  0014e	5e		 pop	 esi
  0014f	5b		 pop	 ebx
  00150	8b e5		 mov	 esp, ebp
  00152	5d		 pop	 ebp
  00153	c3		 ret	 0
??__Eg_iChaosCastle_MonsterItems@@YAXXZ ENDP		; `dynamic initializer for 'g_iChaosCastle_MonsterItems''
text$di	ENDS
; Function compile flags: /Odtp /ZI
; File C:\Mu Online\Mu-GS-Webzen-MC-10093\GameServer\PCBangPointSystem.cpp
;	COMDAT ?__empty_global_delete@@YAXPAXI@Z
_TEXT	SEGMENT
___formal$ = 8						; size = 4
___formal$ = 12						; size = 4
?__empty_global_delete@@YAXPAXI@Z PROC			; __empty_global_delete, COMDAT

  00000	55		 push	 ebp
  00001	8b ec		 mov	 ebp, esp
  00003	83 ec 40	 sub	 esp, 64			; 00000040H
  00006	53		 push	 ebx
  00007	56		 push	 esi
  00008	57		 push	 edi
  00009	5f		 pop	 edi
  0000a	5e		 pop	 esi
  0000b	5b		 pop	 ebx
  0000c	8b e5		 mov	 esp, ebp
  0000e	5d		 pop	 ebp
  0000f	c3		 ret	 0
?__empty_global_delete@@YAXPAXI@Z ENDP			; __empty_global_delete
_TEXT	ENDS
; Function compile flags: /Odtp /ZI
; File C:\Mu Online\Mu-GS-Webzen-MC-10093\GameServer\PCBangPointSystem.cpp
;	COMDAT ?__empty_global_delete@@YAXPAX@Z
_TEXT	SEGMENT
___formal$ = 8						; size = 4
?__empty_global_delete@@YAXPAX@Z PROC			; __empty_global_delete, COMDAT

  00000	55		 push	 ebp
  00001	8b ec		 mov	 ebp, esp
  00003	83 ec 40	 sub	 esp, 64			; 00000040H
  00006	53		 push	 ebx
  00007	56		 push	 esi
  00008	57		 push	 edi
  00009	5f		 pop	 edi
  0000a	5e		 pop	 esi
  0000b	5b		 pop	 ebx
  0000c	8b e5		 mov	 esp, ebp
  0000e	5d		 pop	 ebp
  0000f	c3		 ret	 0
?__empty_global_delete@@YAXPAX@Z ENDP			; __empty_global_delete
_TEXT	ENDS
END
