; Listing generated by Microsoft (R) Optimizing Compiler Version 19.27.29111.0 

	TITLE	C:\Mu Online\Mu-GS-Webzen-MC-10093\GameServer\PickUpSystem.cpp
	.686P
	.XMM
	include listing.inc
	.model	flat

INCLUDELIB LIBCMT
INCLUDELIB OLDNAMES

PUBLIC	?s_PickUp@@3VCPickUpSystem@@A			; s_PickUp
_BSS	SEGMENT
?s_PickUp@@3VCPickUpSystem@@A DB 0384H DUP (?)		; s_PickUp
_BSS	ENDS
PUBLIC	?__empty_global_delete@@YAXPAX@Z		; __empty_global_delete
PUBLIC	?__empty_global_delete@@YAXPAXI@Z		; __empty_global_delete
PUBLIC	___local_stdio_scanf_options
PUBLIC	__vsscanf_l
PUBLIC	_sscanf
PUBLIC	?Init@CPickUpSystem@@QAEXXZ			; CPickUpSystem::Init
PUBLIC	?LoadFile@CPickUpSystem@@QAEXPAD@Z		; CPickUpSystem::LoadFile
PUBLIC	?IsPickAddCommand@CPickUpSystem@@QAEXPAVOBJECTSTRUCT@@PAUPMSG_CHATDATA@@@Z ; CPickUpSystem::IsPickAddCommand
PUBLIC	?Insert@CPickUpSystem@@QAEXHPADHH@Z		; CPickUpSystem::Insert
PUBLIC	?CheckIsPickItem@CPickUpSystem@@QAEHPAD@Z	; CPickUpSystem::CheckIsPickItem
PUBLIC	?IsPickList@CPickUpSystem@@QAEXPAVOBJECTSTRUCT@@@Z ; CPickUpSystem::IsPickList
PUBLIC	?PickUpActive@CPickUpSystem@@QAEHHH@Z		; CPickUpSystem::PickUpActive
PUBLIC	?PickUpGetItem2@CPickUpSystem@@QAEXPAVOBJECTSTRUCT@@H@Z ; CPickUpSystem::PickUpGetItem2
PUBLIC	?IfItemExistInList@CPickUpSystem@@QAEHPAVOBJECTSTRUCT@@H@Z ; CPickUpSystem::IfItemExistInList
PUBLIC	?_OptionsStorage@?1??__local_stdio_scanf_options@@9@4_KA ; `__local_stdio_scanf_options'::`2'::_OptionsStorage
PUBLIC	??_C@_01KDCPPGHE@r@				; `string'
PUBLIC	??_C@_0P@BPENEPNJ@CRITICAL?5ERROR@		; `string'
PUBLIC	??_C@_0CA@DOOEPNIL@CPickUpSystem?3?3LoadFile?$CI?$CJ?5error@ ; `string'
PUBLIC	??_C@_03JBJLGPFL@end@				; `string'
PUBLIC	??_C@_02DKCKIIND@?$CFs@				; `string'
PUBLIC	??_C@_07DGKIHAAH@?1pickup@			; `string'
PUBLIC	??_C@_0DD@LAALJDPM@Use?5Pick?5Command?5?9?$DO?5?$FL?5?$CFs?5?$FN?7?$FL?5?$CFs@ ; `string'
PUBLIC	??_C@_0DB@CGAAJNNO@?$FLPickUp?5System?$FN?5?3?5El?5item?5no?5ex@ ; `string'
PUBLIC	??_C@_0CP@EBDOKFE@?$FLPickUp?5System?$FN?5?3?5Usted?5agrego?5@ ; `string'
PUBLIC	??_C@_0DD@BEECAGMP@?$FLPickUp?5System?$FN?5?3?5Usted?5ya?5tien@ ; `string'
PUBLIC	??_C@_0CF@BELGFBPN@?$FLPickUp?5System?$FN?5Item?5?$CD?$CFd?3?5?$CFs?5?$CI?$CF@ ; `string'
EXTRN	___report_rangecheckfailure:PROC
EXTRN	_isalpha:PROC
EXTRN	_isdigit:PROC
EXTRN	_isspace:PROC
EXTRN	_isalnum:PROC
EXTRN	_memcpy:PROC
EXTRN	_strcmp:PROC
EXTRN	_strcpy:PROC
EXTRN	_strlen:PROC
EXTRN	__imp__ExitProcess@4:PROC
EXTRN	__imp__MessageBoxA@16:PROC
EXTRN	_fclose:PROC
EXTRN	_fgetc:PROC
EXTRN	_fopen:PROC
EXTRN	_getc:PROC
EXTRN	_ungetc:PROC
EXTRN	___stdio_common_vsscanf:PROC
EXTRN	_atof:PROC
EXTRN	?MsgOutput@@YAXHPADZZ:PROC			; MsgOutput
EXTRN	?MakeItemNumber@@YAHHH@Z:PROC			; MakeItemNumber
EXTRN	@__security_check_cookie@4:PROC
EXTRN	?LogAdd@@3P6AXPADZZA:DWORD			; LogAdd
EXTRN	?ItemAttribute@@3PAUITEM_ATTRIBUTE@@A:BYTE	; ItemAttribute
EXTRN	?gObj@@3PAVOBJECTSTRUCT@@A:DWORD		; gObj
EXTRN	___security_cookie:DWORD
EXTRN	__fltused:DWORD
;	COMDAT ?_OptionsStorage@?1??__local_stdio_scanf_options@@9@4_KA
_BSS	SEGMENT
?_OptionsStorage@?1??__local_stdio_scanf_options@@9@4_KA DQ 01H DUP (?) ; `__local_stdio_scanf_options'::`2'::_OptionsStorage
_BSS	ENDS
_BSS	SEGMENT
?SMDFile@@3PAU_iobuf@@A DD 01H DUP (?)			; SMDFile
?TokenNumber@@3MA DD 01H DUP (?)			; TokenNumber
?TokenString@@3PADA DB 064H DUP (?)			; TokenString
?CurrentToken@@3W4SMDToken@@A DD 01H DUP (?)		; CurrentToken
?g_iChaosCastle_MonsterItems@@3PAY111HA DD 018H DUP (?)	; g_iChaosCastle_MonsterItems
_BSS	ENDS
CRT$XCU	SEGMENT
?g_iChaosCastle_MonsterItems$initializer$@@3P6AXXZA DD FLAT:??__Eg_iChaosCastle_MonsterItems@@YAXXZ ; g_iChaosCastle_MonsterItems$initializer$
CRT$XCU	ENDS
;	COMDAT ??_C@_0CF@BELGFBPN@?$FLPickUp?5System?$FN?5Item?5?$CD?$CFd?3?5?$CFs?5?$CI?$CF@
CONST	SEGMENT
??_C@_0CF@BELGFBPN@?$FLPickUp?5System?$FN?5Item?5?$CD?$CFd?3?5?$CFs?5?$CI?$CF@ DB '['
	DB	'PickUp System] Item #%d: %s (%d %d)', 00H	; `string'
CONST	ENDS
;	COMDAT ??_C@_0DD@BEECAGMP@?$FLPickUp?5System?$FN?5?3?5Usted?5ya?5tien@
CONST	SEGMENT
??_C@_0DD@BEECAGMP@?$FLPickUp?5System?$FN?5?3?5Usted?5ya?5tien@ DB '[Pick'
	DB	'Up System] : Usted ya tiene %s en su listado ', 00H ; `string'
CONST	ENDS
;	COMDAT ??_C@_0CP@EBDOKFE@?$FLPickUp?5System?$FN?5?3?5Usted?5agrego?5@
CONST	SEGMENT
??_C@_0CP@EBDOKFE@?$FLPickUp?5System?$FN?5?3?5Usted?5agrego?5@ DB '[PickU'
	DB	'p System] : Usted agrego %s a su listado', 00H ; `string'
CONST	ENDS
;	COMDAT ??_C@_0DB@CGAAJNNO@?$FLPickUp?5System?$FN?5?3?5El?5item?5no?5ex@
CONST	SEGMENT
??_C@_0DB@CGAAJNNO@?$FLPickUp?5System?$FN?5?3?5El?5item?5no?5ex@ DB '[Pic'
	DB	'kUp System] : El item no existe en el PickUp', 00H ; `string'
CONST	ENDS
;	COMDAT ??_C@_0DD@LAALJDPM@Use?5Pick?5Command?5?9?$DO?5?$FL?5?$CFs?5?$FN?7?$FL?5?$CFs@
CONST	SEGMENT
??_C@_0DD@LAALJDPM@Use?5Pick?5Command?5?9?$DO?5?$FL?5?$CFs?5?$FN?7?$FL?5?$CFs@ DB 'U'
	DB	'se Pick Command -> [ %s ]', 09H, '[ %s ]', 09H, '[ %s ] Item:'
	DB	' %s ', 00H					; `string'
CONST	ENDS
;	COMDAT ??_C@_07DGKIHAAH@?1pickup@
CONST	SEGMENT
??_C@_07DGKIHAAH@?1pickup@ DB '/pickup', 00H		; `string'
CONST	ENDS
;	COMDAT ??_C@_02DKCKIIND@?$CFs@
CONST	SEGMENT
??_C@_02DKCKIIND@?$CFs@ DB '%s', 00H			; `string'
CONST	ENDS
;	COMDAT ??_C@_03JBJLGPFL@end@
CONST	SEGMENT
??_C@_03JBJLGPFL@end@ DB 'end', 00H			; `string'
CONST	ENDS
;	COMDAT ??_C@_0CA@DOOEPNIL@CPickUpSystem?3?3LoadFile?$CI?$CJ?5error@
CONST	SEGMENT
??_C@_0CA@DOOEPNIL@CPickUpSystem?3?3LoadFile?$CI?$CJ?5error@ DB 'CPickUpS'
	DB	'ystem::LoadFile() error', 00H		; `string'
CONST	ENDS
;	COMDAT ??_C@_0P@BPENEPNJ@CRITICAL?5ERROR@
CONST	SEGMENT
??_C@_0P@BPENEPNJ@CRITICAL?5ERROR@ DB 'CRITICAL ERROR', 00H ; `string'
CONST	ENDS
;	COMDAT ??_C@_01KDCPPGHE@r@
CONST	SEGMENT
??_C@_01KDCPPGHE@r@ DB 'r', 00H				; `string'
CONST	ENDS
; Function compile flags: /Odtp /ZI
; File C:\Mu Online\Mu-GS-Webzen-MC-10093\GameServer\ChaosCastle.h
;	COMDAT ??__Eg_iChaosCastle_MonsterItems@@YAXXZ
text$di	SEGMENT
??__Eg_iChaosCastle_MonsterItems@@YAXXZ PROC		; `dynamic initializer for 'g_iChaosCastle_MonsterItems'', COMDAT

; 359  : };

  00000	55		 push	 ebp
  00001	8b ec		 mov	 ebp, esp
  00003	83 ec 40	 sub	 esp, 64			; 00000040H
  00006	53		 push	 ebx
  00007	56		 push	 esi
  00008	57		 push	 edi

; 337  : 	MAKE_ITEMNUM(14, 13),		1,								// 1번 캐슬 - 축석

  00009	6a 0d		 push	 13			; 0000000dH
  0000b	6a 0e		 push	 14			; 0000000eH
  0000d	e8 00 00 00 00	 call	 ?MakeItemNumber@@YAHHH@Z ; MakeItemNumber
  00012	83 c4 08	 add	 esp, 8
  00015	a3 00 00 00 00	 mov	 DWORD PTR ?g_iChaosCastle_MonsterItems@@3PAY111HA, eax
  0001a	c7 05 04 00 00
	00 01 00 00 00	 mov	 DWORD PTR ?g_iChaosCastle_MonsterItems@@3PAY111HA+4, 1

; 338  : 	MAKE_ITEMNUM(14, 14),		2,								// 1번 캐슬 - 영석

  00024	6a 0e		 push	 14			; 0000000eH
  00026	6a 0e		 push	 14			; 0000000eH
  00028	e8 00 00 00 00	 call	 ?MakeItemNumber@@YAHHH@Z ; MakeItemNumber
  0002d	83 c4 08	 add	 esp, 8
  00030	a3 08 00 00 00	 mov	 DWORD PTR ?g_iChaosCastle_MonsterItems@@3PAY111HA+8, eax
  00035	c7 05 0c 00 00
	00 02 00 00 00	 mov	 DWORD PTR ?g_iChaosCastle_MonsterItems@@3PAY111HA+12, 2

; 339  : 	
; 340  : 	MAKE_ITEMNUM(14, 13),		1,								// 2번 캐슬 - 축석

  0003f	6a 0d		 push	 13			; 0000000dH
  00041	6a 0e		 push	 14			; 0000000eH
  00043	e8 00 00 00 00	 call	 ?MakeItemNumber@@YAHHH@Z ; MakeItemNumber
  00048	83 c4 08	 add	 esp, 8
  0004b	a3 10 00 00 00	 mov	 DWORD PTR ?g_iChaosCastle_MonsterItems@@3PAY111HA+16, eax
  00050	c7 05 14 00 00
	00 01 00 00 00	 mov	 DWORD PTR ?g_iChaosCastle_MonsterItems@@3PAY111HA+20, 1

; 341  : 	MAKE_ITEMNUM(14, 14),		3,								// 2번 캐슬 - 영석

  0005a	6a 0e		 push	 14			; 0000000eH
  0005c	6a 0e		 push	 14			; 0000000eH
  0005e	e8 00 00 00 00	 call	 ?MakeItemNumber@@YAHHH@Z ; MakeItemNumber
  00063	83 c4 08	 add	 esp, 8
  00066	a3 18 00 00 00	 mov	 DWORD PTR ?g_iChaosCastle_MonsterItems@@3PAY111HA+24, eax
  0006b	c7 05 1c 00 00
	00 03 00 00 00	 mov	 DWORD PTR ?g_iChaosCastle_MonsterItems@@3PAY111HA+28, 3

; 342  : 	
; 343  : 	MAKE_ITEMNUM(14, 13),		1,								// 3번 캐슬 - 축석

  00075	6a 0d		 push	 13			; 0000000dH
  00077	6a 0e		 push	 14			; 0000000eH
  00079	e8 00 00 00 00	 call	 ?MakeItemNumber@@YAHHH@Z ; MakeItemNumber
  0007e	83 c4 08	 add	 esp, 8
  00081	a3 20 00 00 00	 mov	 DWORD PTR ?g_iChaosCastle_MonsterItems@@3PAY111HA+32, eax
  00086	c7 05 24 00 00
	00 01 00 00 00	 mov	 DWORD PTR ?g_iChaosCastle_MonsterItems@@3PAY111HA+36, 1

; 344  : 	MAKE_ITEMNUM(14, 14),		3,								// 3번 캐슬 - 영석

  00090	6a 0e		 push	 14			; 0000000eH
  00092	6a 0e		 push	 14			; 0000000eH
  00094	e8 00 00 00 00	 call	 ?MakeItemNumber@@YAHHH@Z ; MakeItemNumber
  00099	83 c4 08	 add	 esp, 8
  0009c	a3 28 00 00 00	 mov	 DWORD PTR ?g_iChaosCastle_MonsterItems@@3PAY111HA+40, eax
  000a1	c7 05 2c 00 00
	00 03 00 00 00	 mov	 DWORD PTR ?g_iChaosCastle_MonsterItems@@3PAY111HA+44, 3

; 345  : 	
; 346  : 	MAKE_ITEMNUM(14, 13),		2,								// 4번 캐슬 - 축석

  000ab	6a 0d		 push	 13			; 0000000dH
  000ad	6a 0e		 push	 14			; 0000000eH
  000af	e8 00 00 00 00	 call	 ?MakeItemNumber@@YAHHH@Z ; MakeItemNumber
  000b4	83 c4 08	 add	 esp, 8
  000b7	a3 30 00 00 00	 mov	 DWORD PTR ?g_iChaosCastle_MonsterItems@@3PAY111HA+48, eax
  000bc	c7 05 34 00 00
	00 02 00 00 00	 mov	 DWORD PTR ?g_iChaosCastle_MonsterItems@@3PAY111HA+52, 2

; 347  : 	MAKE_ITEMNUM(14, 14),		2,								// 4번 캐슬 - 영석

  000c6	6a 0e		 push	 14			; 0000000eH
  000c8	6a 0e		 push	 14			; 0000000eH
  000ca	e8 00 00 00 00	 call	 ?MakeItemNumber@@YAHHH@Z ; MakeItemNumber
  000cf	83 c4 08	 add	 esp, 8
  000d2	a3 38 00 00 00	 mov	 DWORD PTR ?g_iChaosCastle_MonsterItems@@3PAY111HA+56, eax
  000d7	c7 05 3c 00 00
	00 02 00 00 00	 mov	 DWORD PTR ?g_iChaosCastle_MonsterItems@@3PAY111HA+60, 2

; 348  : 	
; 349  : 	MAKE_ITEMNUM(14, 13),		2,								// 5번 캐슬 - 축석

  000e1	6a 0d		 push	 13			; 0000000dH
  000e3	6a 0e		 push	 14			; 0000000eH
  000e5	e8 00 00 00 00	 call	 ?MakeItemNumber@@YAHHH@Z ; MakeItemNumber
  000ea	83 c4 08	 add	 esp, 8
  000ed	a3 40 00 00 00	 mov	 DWORD PTR ?g_iChaosCastle_MonsterItems@@3PAY111HA+64, eax
  000f2	c7 05 44 00 00
	00 02 00 00 00	 mov	 DWORD PTR ?g_iChaosCastle_MonsterItems@@3PAY111HA+68, 2

; 350  : 	MAKE_ITEMNUM(14, 14),		3,								// 5번 캐슬 - 영석

  000fc	6a 0e		 push	 14			; 0000000eH
  000fe	6a 0e		 push	 14			; 0000000eH
  00100	e8 00 00 00 00	 call	 ?MakeItemNumber@@YAHHH@Z ; MakeItemNumber
  00105	83 c4 08	 add	 esp, 8
  00108	a3 48 00 00 00	 mov	 DWORD PTR ?g_iChaosCastle_MonsterItems@@3PAY111HA+72, eax
  0010d	c7 05 4c 00 00
	00 03 00 00 00	 mov	 DWORD PTR ?g_iChaosCastle_MonsterItems@@3PAY111HA+76, 3

; 351  : 	
; 352  : 	MAKE_ITEMNUM(14, 13),		2,								// 6번 캐슬 - 축석

  00117	6a 0d		 push	 13			; 0000000dH
  00119	6a 0e		 push	 14			; 0000000eH
  0011b	e8 00 00 00 00	 call	 ?MakeItemNumber@@YAHHH@Z ; MakeItemNumber
  00120	83 c4 08	 add	 esp, 8
  00123	a3 50 00 00 00	 mov	 DWORD PTR ?g_iChaosCastle_MonsterItems@@3PAY111HA+80, eax
  00128	c7 05 54 00 00
	00 02 00 00 00	 mov	 DWORD PTR ?g_iChaosCastle_MonsterItems@@3PAY111HA+84, 2

; 353  : 	MAKE_ITEMNUM(14, 14),		3,								// 6번 캐슬 - 영석

  00132	6a 0e		 push	 14			; 0000000eH
  00134	6a 0e		 push	 14			; 0000000eH
  00136	e8 00 00 00 00	 call	 ?MakeItemNumber@@YAHHH@Z ; MakeItemNumber
  0013b	83 c4 08	 add	 esp, 8
  0013e	a3 58 00 00 00	 mov	 DWORD PTR ?g_iChaosCastle_MonsterItems@@3PAY111HA+88, eax
  00143	c7 05 5c 00 00
	00 03 00 00 00	 mov	 DWORD PTR ?g_iChaosCastle_MonsterItems@@3PAY111HA+92, 3
  0014d	5f		 pop	 edi
  0014e	5e		 pop	 esi
  0014f	5b		 pop	 ebx
  00150	8b e5		 mov	 esp, ebp
  00152	5d		 pop	 ebp
  00153	c3		 ret	 0
??__Eg_iChaosCastle_MonsterItems@@YAXXZ ENDP		; `dynamic initializer for 'g_iChaosCastle_MonsterItems''
text$di	ENDS
; Function compile flags: /Odtp /ZI
; File C:\Mu Online\Mu-GS-Webzen-MC-10093\include\ReadScript.h
;	COMDAT ?GetToken@@YA?AW4SMDToken@@XZ
_TEXT	SEGMENT
tv93 = -184						; size = 4
$T1 = -180						; size = 4
_TempString$ = -112					; size = 100
_p$ = -12						; size = 4
_ch$ = -5						; size = 1
__$ArrayPad$ = -4					; size = 4
?GetToken@@YA?AW4SMDToken@@XZ PROC			; GetToken, COMDAT

; 25   : {

  00000	55		 push	 ebp
  00001	8b ec		 mov	 ebp, esp
  00003	81 ec b8 00 00
	00		 sub	 esp, 184		; 000000b8H
  00009	a1 00 00 00 00	 mov	 eax, DWORD PTR ___security_cookie
  0000e	33 c5		 xor	 eax, ebp
  00010	89 45 fc	 mov	 DWORD PTR __$ArrayPad$[ebp], eax
  00013	53		 push	 ebx
  00014	56		 push	 esi
  00015	57		 push	 edi

; 26   : 	unsigned char ch;
; 27   : 	TokenString[0] = '\0';

  00016	b8 01 00 00 00	 mov	 eax, 1
  0001b	6b c8 00	 imul	 ecx, eax, 0
  0001e	89 8d 4c ff ff
	ff		 mov	 DWORD PTR $T1[ebp], ecx
  00024	83 bd 4c ff ff
	ff 64		 cmp	 DWORD PTR $T1[ebp], 100	; 00000064H
  0002b	73 02		 jae	 SHORT $LN31@GetToken
  0002d	eb 05		 jmp	 SHORT $LN32@GetToken
$LN31@GetToken:
  0002f	e8 00 00 00 00	 call	 ___report_rangecheckfailure
$LN32@GetToken:
  00034	8b 95 4c ff ff
	ff		 mov	 edx, DWORD PTR $T1[ebp]
  0003a	c6 82 00 00 00
	00 00		 mov	 BYTE PTR ?TokenString@@3PADA[edx], 0
$LN4@GetToken:

; 28   : 	do
; 29   : 	{
; 30   : 		if ( (ch =(unsigned char) fgetc(SMDFile)) == (BYTE)EOF) return END;

  00041	a1 00 00 00 00	 mov	 eax, DWORD PTR ?SMDFile@@3PAU_iobuf@@A
  00046	50		 push	 eax
  00047	e8 00 00 00 00	 call	 _fgetc
  0004c	83 c4 04	 add	 esp, 4
  0004f	88 45 fb	 mov	 BYTE PTR _ch$[ebp], al
  00052	0f b6 4d fb	 movzx	 ecx, BYTE PTR _ch$[ebp]
  00056	81 f9 ff 00 00
	00		 cmp	 ecx, 255		; 000000ffH
  0005c	75 0a		 jne	 SHORT $LN15@GetToken
  0005e	b8 02 00 00 00	 mov	 eax, 2
  00063	e9 d9 02 00 00	 jmp	 $LN7@GetToken
$LN15@GetToken:

; 31   : 		if (ch=='/' && (ch =(unsigned char) fgetc(SMDFile) )=='/')	

  00068	0f b6 45 fb	 movzx	 eax, BYTE PTR _ch$[ebp]
  0006c	83 f8 2f	 cmp	 eax, 47			; 0000002fH
  0006f	75 56		 jne	 SHORT $LN17@GetToken
  00071	a1 00 00 00 00	 mov	 eax, DWORD PTR ?SMDFile@@3PAU_iobuf@@A
  00076	50		 push	 eax
  00077	e8 00 00 00 00	 call	 _fgetc
  0007c	83 c4 04	 add	 esp, 4
  0007f	88 45 fb	 mov	 BYTE PTR _ch$[ebp], al
  00082	0f b6 4d fb	 movzx	 ecx, BYTE PTR _ch$[ebp]
  00086	83 f9 2f	 cmp	 ecx, 47			; 0000002fH
  00089	75 3c		 jne	 SHORT $LN17@GetToken
$LN5@GetToken:

; 32   : 		{
; 33   : 			while((ch != '\n') && (ch != (BYTE)EOF)) {			// 2003.09.02 H.J.I 수정

  0008b	0f b6 45 fb	 movzx	 eax, BYTE PTR _ch$[ebp]
  0008f	83 f8 0a	 cmp	 eax, 10			; 0000000aH
  00092	74 1e		 je	 SHORT $LN6@GetToken
  00094	0f b6 45 fb	 movzx	 eax, BYTE PTR _ch$[ebp]
  00098	3d ff 00 00 00	 cmp	 eax, 255		; 000000ffH
  0009d	74 13		 je	 SHORT $LN6@GetToken

; 34   : 				ch = (unsigned char) fgetc( SMDFile);

  0009f	a1 00 00 00 00	 mov	 eax, DWORD PTR ?SMDFile@@3PAU_iobuf@@A
  000a4	50		 push	 eax
  000a5	e8 00 00 00 00	 call	 _fgetc
  000aa	83 c4 04	 add	 esp, 4
  000ad	88 45 fb	 mov	 BYTE PTR _ch$[ebp], al

; 35   : 			}

  000b0	eb d9		 jmp	 SHORT $LN5@GetToken
$LN6@GetToken:

; 36   : 
; 37   : 			if (ch == (BYTE)EOF)

  000b2	0f b6 45 fb	 movzx	 eax, BYTE PTR _ch$[ebp]
  000b6	3d ff 00 00 00	 cmp	 eax, 255		; 000000ffH
  000bb	75 0a		 jne	 SHORT $LN17@GetToken

; 38   : 				return END;

  000bd	b8 02 00 00 00	 mov	 eax, 2
  000c2	e9 7a 02 00 00	 jmp	 $LN7@GetToken
$LN17@GetToken:

; 39   : 		}
; 40   : 	} while(  isspace(ch) );

  000c7	0f b6 45 fb	 movzx	 eax, BYTE PTR _ch$[ebp]
  000cb	50		 push	 eax
  000cc	e8 00 00 00 00	 call	 _isspace
  000d1	83 c4 04	 add	 esp, 4
  000d4	85 c0		 test	 eax, eax
  000d6	0f 85 65 ff ff
	ff		 jne	 $LN4@GetToken

; 41   : 	
; 42   : 	char *p, TempString[100];
; 43   : 	switch(ch)

  000dc	0f b6 45 fb	 movzx	 eax, BYTE PTR _ch$[ebp]
  000e0	89 85 48 ff ff
	ff		 mov	 DWORD PTR tv93[ebp], eax
  000e6	8b 8d 48 ff ff
	ff		 mov	 ecx, DWORD PTR tv93[ebp]
  000ec	83 e9 22	 sub	 ecx, 34			; 00000022H
  000ef	89 8d 48 ff ff
	ff		 mov	 DWORD PTR tv93[ebp], ecx
  000f5	83 bd 48 ff ff
	ff 5b		 cmp	 DWORD PTR tv93[ebp], 91	; 0000005bH
  000fc	0f 87 86 01 00
	00		 ja	 $LN27@GetToken
  00102	8b 95 48 ff ff
	ff		 mov	 edx, DWORD PTR tv93[ebp]
  00108	0f b6 82 00 00
	00 00		 movzx	 eax, BYTE PTR $LN33@GetToken[edx]
  0010f	ff 24 85 00 00
	00 00		 jmp	 DWORD PTR $LN34@GetToken[eax*4]
$LN18@GetToken:

; 44   : 	{	
; 45   : 	case '#':
; 46   : 		return CurrentToken = COMMAND;

  00116	c7 05 00 00 00
	00 23 00 00 00	 mov	 DWORD PTR ?CurrentToken@@3W4SMDToken@@A, 35 ; 00000023H
  00120	a1 00 00 00 00	 mov	 eax, DWORD PTR ?CurrentToken@@3W4SMDToken@@A
  00125	e9 17 02 00 00	 jmp	 $LN7@GetToken
$LN19@GetToken:

; 47   : 	case ';':
; 48   : 		return CurrentToken = SEMICOLON;

  0012a	c7 05 00 00 00
	00 3b 00 00 00	 mov	 DWORD PTR ?CurrentToken@@3W4SMDToken@@A, 59 ; 0000003bH
  00134	a1 00 00 00 00	 mov	 eax, DWORD PTR ?CurrentToken@@3W4SMDToken@@A
  00139	e9 03 02 00 00	 jmp	 $LN7@GetToken
$LN20@GetToken:

; 49   : 	case ',':
; 50   : 		return CurrentToken = COMMA;

  0013e	c7 05 00 00 00
	00 2c 00 00 00	 mov	 DWORD PTR ?CurrentToken@@3W4SMDToken@@A, 44 ; 0000002cH
  00148	a1 00 00 00 00	 mov	 eax, DWORD PTR ?CurrentToken@@3W4SMDToken@@A
  0014d	e9 ef 01 00 00	 jmp	 $LN7@GetToken
$LN21@GetToken:

; 51   : 	case '{':
; 52   : 		return CurrentToken = LP;

  00152	c7 05 00 00 00
	00 7b 00 00 00	 mov	 DWORD PTR ?CurrentToken@@3W4SMDToken@@A, 123 ; 0000007bH
  0015c	a1 00 00 00 00	 mov	 eax, DWORD PTR ?CurrentToken@@3W4SMDToken@@A
  00161	e9 db 01 00 00	 jmp	 $LN7@GetToken
$LN22@GetToken:

; 53   : 	case '}':
; 54   : 		return CurrentToken = RP;

  00166	c7 05 00 00 00
	00 7d 00 00 00	 mov	 DWORD PTR ?CurrentToken@@3W4SMDToken@@A, 125 ; 0000007dH
  00170	a1 00 00 00 00	 mov	 eax, DWORD PTR ?CurrentToken@@3W4SMDToken@@A
  00175	e9 c7 01 00 00	 jmp	 $LN7@GetToken
$LN23@GetToken:

; 55   : 	case '0':	case '1':	case '2':	case '3':	case '4':
; 56   : 	case '5':	case '6':	case '7':	case '8':	case '9':
; 57   : 	case '.':	case '-':
; 58   : 		ungetc(ch,SMDFile);

  0017a	a1 00 00 00 00	 mov	 eax, DWORD PTR ?SMDFile@@3PAU_iobuf@@A
  0017f	50		 push	 eax
  00180	0f b6 4d fb	 movzx	 ecx, BYTE PTR _ch$[ebp]
  00184	51		 push	 ecx
  00185	e8 00 00 00 00	 call	 _ungetc
  0018a	83 c4 08	 add	 esp, 8

; 59   : 		p = TempString;

  0018d	8d 45 90	 lea	 eax, DWORD PTR _TempString$[ebp]
  00190	89 45 f4	 mov	 DWORD PTR _p$[ebp], eax
$LN9@GetToken:

; 60   : 		while ( (  (ch = getc(SMDFile) ) !=(BYTE)EOF) && (ch=='.' || isdigit(ch) || ch=='-') )

  00193	a1 00 00 00 00	 mov	 eax, DWORD PTR ?SMDFile@@3PAU_iobuf@@A
  00198	50		 push	 eax
  00199	e8 00 00 00 00	 call	 _getc
  0019e	83 c4 04	 add	 esp, 4
  001a1	88 45 fb	 mov	 BYTE PTR _ch$[ebp], al
  001a4	0f b6 4d fb	 movzx	 ecx, BYTE PTR _ch$[ebp]
  001a8	81 f9 ff 00 00
	00		 cmp	 ecx, 255		; 000000ffH
  001ae	74 36		 je	 SHORT $LN10@GetToken
  001b0	0f b6 45 fb	 movzx	 eax, BYTE PTR _ch$[ebp]
  001b4	83 f8 2e	 cmp	 eax, 46			; 0000002eH
  001b7	74 1a		 je	 SHORT $LN24@GetToken
  001b9	0f b6 45 fb	 movzx	 eax, BYTE PTR _ch$[ebp]
  001bd	50		 push	 eax
  001be	e8 00 00 00 00	 call	 _isdigit
  001c3	83 c4 04	 add	 esp, 4
  001c6	85 c0		 test	 eax, eax
  001c8	75 09		 jne	 SHORT $LN24@GetToken
  001ca	0f b6 45 fb	 movzx	 eax, BYTE PTR _ch$[ebp]
  001ce	83 f8 2d	 cmp	 eax, 45			; 0000002dH
  001d1	75 13		 jne	 SHORT $LN10@GetToken
$LN24@GetToken:

; 61   : 			*p++ = ch;

  001d3	8b 45 f4	 mov	 eax, DWORD PTR _p$[ebp]
  001d6	8a 4d fb	 mov	 cl, BYTE PTR _ch$[ebp]
  001d9	88 08		 mov	 BYTE PTR [eax], cl
  001db	8b 55 f4	 mov	 edx, DWORD PTR _p$[ebp]
  001de	83 c2 01	 add	 edx, 1
  001e1	89 55 f4	 mov	 DWORD PTR _p$[ebp], edx
  001e4	eb ad		 jmp	 SHORT $LN9@GetToken
$LN10@GetToken:

; 62   : 		*p = 0;

  001e6	8b 45 f4	 mov	 eax, DWORD PTR _p$[ebp]
  001e9	c6 00 00	 mov	 BYTE PTR [eax], 0

; 63   : 		TokenNumber = (float)atof(TempString);

  001ec	8d 45 90	 lea	 eax, DWORD PTR _TempString$[ebp]
  001ef	50		 push	 eax
  001f0	e8 00 00 00 00	 call	 _atof
  001f5	83 c4 04	 add	 esp, 4
  001f8	d9 1d 00 00 00
	00		 fstp	 DWORD PTR ?TokenNumber@@3MA

; 64   : 		//			sscanf(TempString," %f ",&TokenNumber);
; 65   : 		return CurrentToken = NUMBER;

  001fe	c7 05 00 00 00
	00 01 00 00 00	 mov	 DWORD PTR ?CurrentToken@@3W4SMDToken@@A, 1
  00208	a1 00 00 00 00	 mov	 eax, DWORD PTR ?CurrentToken@@3W4SMDToken@@A
  0020d	e9 2f 01 00 00	 jmp	 $LN7@GetToken
$LN25@GetToken:

; 66   : 	case '"':
; 67   : 		p = TokenString;

  00212	c7 45 f4 00 00
	00 00		 mov	 DWORD PTR _p$[ebp], OFFSET ?TokenString@@3PADA
$LN11@GetToken:

; 68   : 		while ( (  (ch = getc(SMDFile) ) !=(BYTE)EOF) && (ch!='"'))// || isalnum(ch)) )

  00219	a1 00 00 00 00	 mov	 eax, DWORD PTR ?SMDFile@@3PAU_iobuf@@A
  0021e	50		 push	 eax
  0021f	e8 00 00 00 00	 call	 _getc
  00224	83 c4 04	 add	 esp, 4
  00227	88 45 fb	 mov	 BYTE PTR _ch$[ebp], al
  0022a	0f b6 4d fb	 movzx	 ecx, BYTE PTR _ch$[ebp]
  0022e	81 f9 ff 00 00
	00		 cmp	 ecx, 255		; 000000ffH
  00234	74 1c		 je	 SHORT $LN12@GetToken
  00236	0f b6 45 fb	 movzx	 eax, BYTE PTR _ch$[ebp]
  0023a	83 f8 22	 cmp	 eax, 34			; 00000022H
  0023d	74 13		 je	 SHORT $LN12@GetToken

; 69   : 			*p++ = ch;

  0023f	8b 45 f4	 mov	 eax, DWORD PTR _p$[ebp]
  00242	8a 4d fb	 mov	 cl, BYTE PTR _ch$[ebp]
  00245	88 08		 mov	 BYTE PTR [eax], cl
  00247	8b 55 f4	 mov	 edx, DWORD PTR _p$[ebp]
  0024a	83 c2 01	 add	 edx, 1
  0024d	89 55 f4	 mov	 DWORD PTR _p$[ebp], edx
  00250	eb c7		 jmp	 SHORT $LN11@GetToken
$LN12@GetToken:

; 70   : 		if (ch!='"')

  00252	0f b6 45 fb	 movzx	 eax, BYTE PTR _ch$[ebp]
  00256	83 f8 22	 cmp	 eax, 34			; 00000022H
  00259	74 13		 je	 SHORT $LN26@GetToken

; 71   : 			ungetc(ch,SMDFile);

  0025b	a1 00 00 00 00	 mov	 eax, DWORD PTR ?SMDFile@@3PAU_iobuf@@A
  00260	50		 push	 eax
  00261	0f b6 4d fb	 movzx	 ecx, BYTE PTR _ch$[ebp]
  00265	51		 push	 ecx
  00266	e8 00 00 00 00	 call	 _ungetc
  0026b	83 c4 08	 add	 esp, 8
$LN26@GetToken:

; 72   : 		*p = 0;

  0026e	8b 45 f4	 mov	 eax, DWORD PTR _p$[ebp]
  00271	c6 00 00	 mov	 BYTE PTR [eax], 0

; 73   : 		return CurrentToken = NAME;

  00274	c7 05 00 00 00
	00 00 00 00 00	 mov	 DWORD PTR ?CurrentToken@@3W4SMDToken@@A, 0
  0027e	a1 00 00 00 00	 mov	 eax, DWORD PTR ?CurrentToken@@3W4SMDToken@@A
  00283	e9 b9 00 00 00	 jmp	 $LN7@GetToken
$LN27@GetToken:

; 74   : 	default:
; 75   : 		if (isalpha(ch))	

  00288	0f b6 45 fb	 movzx	 eax, BYTE PTR _ch$[ebp]
  0028c	50		 push	 eax
  0028d	e8 00 00 00 00	 call	 _isalpha
  00292	83 c4 04	 add	 esp, 4
  00295	85 c0		 test	 eax, eax
  00297	0f 84 95 00 00
	00		 je	 $LN28@GetToken

; 76   : 		{
; 77   : 			p = TokenString;

  0029d	c7 45 f4 00 00
	00 00		 mov	 DWORD PTR _p$[ebp], OFFSET ?TokenString@@3PADA

; 78   : 			*p++ = ch;

  002a4	8b 45 f4	 mov	 eax, DWORD PTR _p$[ebp]
  002a7	8a 4d fb	 mov	 cl, BYTE PTR _ch$[ebp]
  002aa	88 08		 mov	 BYTE PTR [eax], cl
  002ac	8b 55 f4	 mov	 edx, DWORD PTR _p$[ebp]
  002af	83 c2 01	 add	 edx, 1
  002b2	89 55 f4	 mov	 DWORD PTR _p$[ebp], edx
$LN13@GetToken:

; 79   : 			while ( (  (ch = getc(SMDFile) ) !=(BYTE)EOF) && (ch=='.' || ch=='_' || isalnum(ch)) )

  002b5	a1 00 00 00 00	 mov	 eax, DWORD PTR ?SMDFile@@3PAU_iobuf@@A
  002ba	50		 push	 eax
  002bb	e8 00 00 00 00	 call	 _getc
  002c0	83 c4 04	 add	 esp, 4
  002c3	88 45 fb	 mov	 BYTE PTR _ch$[ebp], al
  002c6	0f b6 4d fb	 movzx	 ecx, BYTE PTR _ch$[ebp]
  002ca	81 f9 ff 00 00
	00		 cmp	 ecx, 255		; 000000ffH
  002d0	74 36		 je	 SHORT $LN14@GetToken
  002d2	0f b6 45 fb	 movzx	 eax, BYTE PTR _ch$[ebp]
  002d6	83 f8 2e	 cmp	 eax, 46			; 0000002eH
  002d9	74 1a		 je	 SHORT $LN29@GetToken
  002db	0f b6 45 fb	 movzx	 eax, BYTE PTR _ch$[ebp]
  002df	83 f8 5f	 cmp	 eax, 95			; 0000005fH
  002e2	74 11		 je	 SHORT $LN29@GetToken
  002e4	0f b6 45 fb	 movzx	 eax, BYTE PTR _ch$[ebp]
  002e8	50		 push	 eax
  002e9	e8 00 00 00 00	 call	 _isalnum
  002ee	83 c4 04	 add	 esp, 4
  002f1	85 c0		 test	 eax, eax
  002f3	74 13		 je	 SHORT $LN14@GetToken
$LN29@GetToken:

; 80   : 				*p++ = ch;

  002f5	8b 45 f4	 mov	 eax, DWORD PTR _p$[ebp]
  002f8	8a 4d fb	 mov	 cl, BYTE PTR _ch$[ebp]
  002fb	88 08		 mov	 BYTE PTR [eax], cl
  002fd	8b 55 f4	 mov	 edx, DWORD PTR _p$[ebp]
  00300	83 c2 01	 add	 edx, 1
  00303	89 55 f4	 mov	 DWORD PTR _p$[ebp], edx
  00306	eb ad		 jmp	 SHORT $LN13@GetToken
$LN14@GetToken:

; 81   : 			ungetc(ch,SMDFile);

  00308	a1 00 00 00 00	 mov	 eax, DWORD PTR ?SMDFile@@3PAU_iobuf@@A
  0030d	50		 push	 eax
  0030e	0f b6 4d fb	 movzx	 ecx, BYTE PTR _ch$[ebp]
  00312	51		 push	 ecx
  00313	e8 00 00 00 00	 call	 _ungetc
  00318	83 c4 08	 add	 esp, 8

; 82   : 			*p = 0;

  0031b	8b 45 f4	 mov	 eax, DWORD PTR _p$[ebp]
  0031e	c6 00 00	 mov	 BYTE PTR [eax], 0

; 83   : 			return CurrentToken = NAME;

  00321	c7 05 00 00 00
	00 00 00 00 00	 mov	 DWORD PTR ?CurrentToken@@3W4SMDToken@@A, 0
  0032b	a1 00 00 00 00	 mov	 eax, DWORD PTR ?CurrentToken@@3W4SMDToken@@A
  00330	eb 0f		 jmp	 SHORT $LN7@GetToken
$LN28@GetToken:

; 84   : 		}
; 85   : 		return CurrentToken = SMD_ERROR;

  00332	c7 05 00 00 00
	00 3c 00 00 00	 mov	 DWORD PTR ?CurrentToken@@3W4SMDToken@@A, 60 ; 0000003cH
  0033c	a1 00 00 00 00	 mov	 eax, DWORD PTR ?CurrentToken@@3W4SMDToken@@A
$LN7@GetToken:

; 86   : 	}
; 87   : }

  00341	5f		 pop	 edi
  00342	5e		 pop	 esi
  00343	5b		 pop	 ebx
  00344	8b 4d fc	 mov	 ecx, DWORD PTR __$ArrayPad$[ebp]
  00347	33 cd		 xor	 ecx, ebp
  00349	e8 00 00 00 00	 call	 @__security_check_cookie@4
  0034e	8b e5		 mov	 esp, ebp
  00350	5d		 pop	 ebp
  00351	c3		 ret	 0
  00352	66 90		 npad	 2
$LN34@GetToken:
  00354	00 00 00 00	 DD	 $LN25@GetToken
  00358	00 00 00 00	 DD	 $LN18@GetToken
  0035c	00 00 00 00	 DD	 $LN20@GetToken
  00360	00 00 00 00	 DD	 $LN23@GetToken
  00364	00 00 00 00	 DD	 $LN19@GetToken
  00368	00 00 00 00	 DD	 $LN21@GetToken
  0036c	00 00 00 00	 DD	 $LN22@GetToken
  00370	00 00 00 00	 DD	 $LN27@GetToken
$LN33@GetToken:
  00374	00		 DB	 0
  00375	01		 DB	 1
  00376	07		 DB	 7
  00377	07		 DB	 7
  00378	07		 DB	 7
  00379	07		 DB	 7
  0037a	07		 DB	 7
  0037b	07		 DB	 7
  0037c	07		 DB	 7
  0037d	07		 DB	 7
  0037e	02		 DB	 2
  0037f	03		 DB	 3
  00380	03		 DB	 3
  00381	07		 DB	 7
  00382	03		 DB	 3
  00383	03		 DB	 3
  00384	03		 DB	 3
  00385	03		 DB	 3
  00386	03		 DB	 3
  00387	03		 DB	 3
  00388	03		 DB	 3
  00389	03		 DB	 3
  0038a	03		 DB	 3
  0038b	03		 DB	 3
  0038c	07		 DB	 7
  0038d	04		 DB	 4
  0038e	07		 DB	 7
  0038f	07		 DB	 7
  00390	07		 DB	 7
  00391	07		 DB	 7
  00392	07		 DB	 7
  00393	07		 DB	 7
  00394	07		 DB	 7
  00395	07		 DB	 7
  00396	07		 DB	 7
  00397	07		 DB	 7
  00398	07		 DB	 7
  00399	07		 DB	 7
  0039a	07		 DB	 7
  0039b	07		 DB	 7
  0039c	07		 DB	 7
  0039d	07		 DB	 7
  0039e	07		 DB	 7
  0039f	07		 DB	 7
  003a0	07		 DB	 7
  003a1	07		 DB	 7
  003a2	07		 DB	 7
  003a3	07		 DB	 7
  003a4	07		 DB	 7
  003a5	07		 DB	 7
  003a6	07		 DB	 7
  003a7	07		 DB	 7
  003a8	07		 DB	 7
  003a9	07		 DB	 7
  003aa	07		 DB	 7
  003ab	07		 DB	 7
  003ac	07		 DB	 7
  003ad	07		 DB	 7
  003ae	07		 DB	 7
  003af	07		 DB	 7
  003b0	07		 DB	 7
  003b1	07		 DB	 7
  003b2	07		 DB	 7
  003b3	07		 DB	 7
  003b4	07		 DB	 7
  003b5	07		 DB	 7
  003b6	07		 DB	 7
  003b7	07		 DB	 7
  003b8	07		 DB	 7
  003b9	07		 DB	 7
  003ba	07		 DB	 7
  003bb	07		 DB	 7
  003bc	07		 DB	 7
  003bd	07		 DB	 7
  003be	07		 DB	 7
  003bf	07		 DB	 7
  003c0	07		 DB	 7
  003c1	07		 DB	 7
  003c2	07		 DB	 7
  003c3	07		 DB	 7
  003c4	07		 DB	 7
  003c5	07		 DB	 7
  003c6	07		 DB	 7
  003c7	07		 DB	 7
  003c8	07		 DB	 7
  003c9	07		 DB	 7
  003ca	07		 DB	 7
  003cb	07		 DB	 7
  003cc	07		 DB	 7
  003cd	05		 DB	 5
  003ce	07		 DB	 7
  003cf	06		 DB	 6
?GetToken@@YA?AW4SMDToken@@XZ ENDP			; GetToken
_TEXT	ENDS
; Function compile flags: /Odtp /ZI
; File C:\Mu Online\Mu-GS-Webzen-MC-10093\GameServer\PickUpSystem.cpp
;	COMDAT ?IfItemExistInList@CPickUpSystem@@QAEHPAVOBJECTSTRUCT@@H@Z
_TEXT	SEGMENT
_x$1 = -8						; size = 4
_this$ = -4						; size = 4
_lpObj$ = 8						; size = 4
_Item$ = 12						; size = 4
?IfItemExistInList@CPickUpSystem@@QAEHPAVOBJECTSTRUCT@@H@Z PROC ; CPickUpSystem::IfItemExistInList, COMDAT
; _this$ = ecx

; 164  : {

  00000	55		 push	 ebp
  00001	8b ec		 mov	 ebp, esp
  00003	83 ec 48	 sub	 esp, 72			; 00000048H
  00006	53		 push	 ebx
  00007	56		 push	 esi
  00008	57		 push	 edi
  00009	89 4d fc	 mov	 DWORD PTR _this$[ebp], ecx

; 165  : 	for (int x = 0; x < MAX_PICKUP_ITEMS; x++)

  0000c	c7 45 f8 00 00
	00 00		 mov	 DWORD PTR _x$1[ebp], 0
  00013	eb 09		 jmp	 SHORT $LN4@IfItemExis
$LN2@IfItemExis:
  00015	8b 45 f8	 mov	 eax, DWORD PTR _x$1[ebp]
  00018	83 c0 01	 add	 eax, 1
  0001b	89 45 f8	 mov	 DWORD PTR _x$1[ebp], eax
$LN4@IfItemExis:
  0001e	83 7d f8 14	 cmp	 DWORD PTR _x$1[ebp], 20	; 00000014H
  00022	7d 1c		 jge	 SHORT $LN3@IfItemExis

; 166  : 	{
; 167  : 
; 168  : 		if (lpObj->m_pickup[x].Item == Item)

  00024	6b 45 f8 0c	 imul	 eax, DWORD PTR _x$1[ebp], 12
  00028	8b 4d 08	 mov	 ecx, DWORD PTR _lpObj$[ebp]
  0002b	8b 94 01 b0 1a
	00 00		 mov	 edx, DWORD PTR [ecx+eax+6832]
  00032	3b 55 0c	 cmp	 edx, DWORD PTR _Item$[ebp]
  00035	75 07		 jne	 SHORT $LN5@IfItemExis

; 169  : 		{
; 170  : 			return true;

  00037	b8 01 00 00 00	 mov	 eax, 1
  0003c	eb 04		 jmp	 SHORT $LN1@IfItemExis
$LN5@IfItemExis:

; 171  : 			
; 172  : 			//break;
; 173  : 		}
; 174  : 
; 175  : 	}

  0003e	eb d5		 jmp	 SHORT $LN2@IfItemExis
$LN3@IfItemExis:

; 176  : 	return false;

  00040	33 c0		 xor	 eax, eax
$LN1@IfItemExis:

; 177  : 
; 178  : }

  00042	5f		 pop	 edi
  00043	5e		 pop	 esi
  00044	5b		 pop	 ebx
  00045	8b e5		 mov	 esp, ebp
  00047	5d		 pop	 ebp
  00048	c2 08 00	 ret	 8
?IfItemExistInList@CPickUpSystem@@QAEHPAVOBJECTSTRUCT@@H@Z ENDP ; CPickUpSystem::IfItemExistInList
_TEXT	ENDS
; Function compile flags: /Odtp /ZI
; File C:\Mu Online\Mu-GS-Webzen-MC-10093\GameServer\PickUpSystem.cpp
;	COMDAT ?PickUpGetItem2@CPickUpSystem@@QAEXPAVOBJECTSTRUCT@@H@Z
_TEXT	SEGMENT
_this$ = -4						; size = 4
_lpObj$ = 8						; size = 4
_aIndex$ = 12						; size = 4
?PickUpGetItem2@CPickUpSystem@@QAEXPAVOBJECTSTRUCT@@H@Z PROC ; CPickUpSystem::PickUpGetItem2, COMDAT
; _this$ = ecx

; 215  : {

  00000	55		 push	 ebp
  00001	8b ec		 mov	 ebp, esp
  00003	83 ec 44	 sub	 esp, 68			; 00000044H
  00006	53		 push	 ebx
  00007	56		 push	 esi
  00008	57		 push	 edi
  00009	89 4d fc	 mov	 DWORD PTR _this$[ebp], ecx

; 216  : 	
; 217  : }

  0000c	5f		 pop	 edi
  0000d	5e		 pop	 esi
  0000e	5b		 pop	 ebx
  0000f	8b e5		 mov	 esp, ebp
  00011	5d		 pop	 ebp
  00012	c2 08 00	 ret	 8
?PickUpGetItem2@CPickUpSystem@@QAEXPAVOBJECTSTRUCT@@H@Z ENDP ; CPickUpSystem::PickUpGetItem2
_TEXT	ENDS
; Function compile flags: /Odtp /ZI
; File C:\Mu Online\Mu-GS-Webzen-MC-10093\GameServer\PickUpSystem.cpp
;	COMDAT ?PickUpActive@CPickUpSystem@@QAEHHH@Z
_TEXT	SEGMENT
_x$1 = -12						; size = 4
_lpObj$ = -8						; size = 4
_this$ = -4						; size = 4
_aIndex$ = 8						; size = 4
_Type$ = 12						; size = 4
?PickUpActive@CPickUpSystem@@QAEHHH@Z PROC		; CPickUpSystem::PickUpActive, COMDAT
; _this$ = ecx

; 200  : {

  00000	55		 push	 ebp
  00001	8b ec		 mov	 ebp, esp
  00003	83 ec 4c	 sub	 esp, 76			; 0000004cH
  00006	53		 push	 ebx
  00007	56		 push	 esi
  00008	57		 push	 edi
  00009	89 4d fc	 mov	 DWORD PTR _this$[ebp], ecx

; 201  : 	LPOBJECTSTRUCT lpObj = &gObj[aIndex];

  0000c	69 45 08 a0 1b
	00 00		 imul	 eax, DWORD PTR _aIndex$[ebp], 7072
  00013	03 05 00 00 00
	00		 add	 eax, DWORD PTR ?gObj@@3PAVOBJECTSTRUCT@@A ; gObj
  00019	89 45 f8	 mov	 DWORD PTR _lpObj$[ebp], eax

; 202  : 	
; 203  : 	for (int x = 0; x < MAX_PICKUP_ITEMS; x++)

  0001c	c7 45 f4 00 00
	00 00		 mov	 DWORD PTR _x$1[ebp], 0
  00023	eb 09		 jmp	 SHORT $LN4@PickUpActi
$LN2@PickUpActi:
  00025	8b 45 f4	 mov	 eax, DWORD PTR _x$1[ebp]
  00028	83 c0 01	 add	 eax, 1
  0002b	89 45 f4	 mov	 DWORD PTR _x$1[ebp], eax
$LN4@PickUpActi:
  0002e	83 7d f4 14	 cmp	 DWORD PTR _x$1[ebp], 20	; 00000014H
  00032	7d 1c		 jge	 SHORT $LN3@PickUpActi

; 204  : 	{
; 205  : 		if (lpObj->m_pickup[x].Item == Type)

  00034	6b 45 f4 0c	 imul	 eax, DWORD PTR _x$1[ebp], 12
  00038	8b 4d f8	 mov	 ecx, DWORD PTR _lpObj$[ebp]
  0003b	8b 94 01 b0 1a
	00 00		 mov	 edx, DWORD PTR [ecx+eax+6832]
  00042	3b 55 0c	 cmp	 edx, DWORD PTR _Type$[ebp]
  00045	75 07		 jne	 SHORT $LN5@PickUpActi

; 206  : 		{	
; 207  : 			return true;

  00047	b8 01 00 00 00	 mov	 eax, 1
  0004c	eb 04		 jmp	 SHORT $LN1@PickUpActi
$LN5@PickUpActi:

; 208  : 		}
; 209  : 	}

  0004e	eb d5		 jmp	 SHORT $LN2@PickUpActi
$LN3@PickUpActi:

; 210  : 	return false;

  00050	33 c0		 xor	 eax, eax
$LN1@PickUpActi:

; 211  : }

  00052	5f		 pop	 edi
  00053	5e		 pop	 esi
  00054	5b		 pop	 ebx
  00055	8b e5		 mov	 esp, ebp
  00057	5d		 pop	 ebp
  00058	c2 08 00	 ret	 8
?PickUpActive@CPickUpSystem@@QAEHHH@Z ENDP		; CPickUpSystem::PickUpActive
_TEXT	ENDS
; Function compile flags: /Odtp /ZI
; File C:\Mu Online\Mu-GS-Webzen-MC-10093\GameServer\PickUpSystem.cpp
;	COMDAT ?IsPickList@CPickUpSystem@@QAEXPAVOBJECTSTRUCT@@@Z
_TEXT	SEGMENT
_x$1 = -8						; size = 4
_this$ = -4						; size = 4
_lpObj$ = 8						; size = 4
?IsPickList@CPickUpSystem@@QAEXPAVOBJECTSTRUCT@@@Z PROC	; CPickUpSystem::IsPickList, COMDAT
; _this$ = ecx

; 180  : {

  00000	55		 push	 ebp
  00001	8b ec		 mov	 ebp, esp
  00003	83 ec 48	 sub	 esp, 72			; 00000048H
  00006	53		 push	 ebx
  00007	56		 push	 esi
  00008	57		 push	 edi
  00009	89 4d fc	 mov	 DWORD PTR _this$[ebp], ecx

; 181  : 	for (int x = 0; x < MAX_PICKUP_ITEMS; x++)

  0000c	c7 45 f8 00 00
	00 00		 mov	 DWORD PTR _x$1[ebp], 0
  00013	eb 09		 jmp	 SHORT $LN4@IsPickList
$LN2@IsPickList:
  00015	8b 45 f8	 mov	 eax, DWORD PTR _x$1[ebp]
  00018	83 c0 01	 add	 eax, 1
  0001b	89 45 f8	 mov	 DWORD PTR _x$1[ebp], eax
$LN4@IsPickList:
  0001e	83 7d f8 14	 cmp	 DWORD PTR _x$1[ebp], 20	; 00000014H
  00022	7d 61		 jge	 SHORT $LN1@IsPickList

; 182  : 	{
; 183  : 		if (lpObj->m_pickup[x].Item != -1)

  00024	6b 45 f8 0c	 imul	 eax, DWORD PTR _x$1[ebp], 12
  00028	8b 4d 08	 mov	 ecx, DWORD PTR _lpObj$[ebp]
  0002b	83 bc 01 b0 1a
	00 00 ff	 cmp	 DWORD PTR [ecx+eax+6832], -1
  00033	74 4e		 je	 SHORT $LN5@IsPickList

; 184  : 		{
; 185  : 			MsgOutput(lpObj->m_Index, "[PickUp System] Item #%d: %s (%d %d)", x+1, ItemAttribute[lpObj->m_pickup[x].Item].Name, lpObj->m_pickup[x].Type, lpObj->m_pickup[x].Index);

  00035	6b 45 f8 0c	 imul	 eax, DWORD PTR _x$1[ebp], 12
  00039	8b 4d 08	 mov	 ecx, DWORD PTR _lpObj$[ebp]
  0003c	8b 94 01 ac 1a
	00 00		 mov	 edx, DWORD PTR [ecx+eax+6828]
  00043	52		 push	 edx
  00044	6b 45 f8 0c	 imul	 eax, DWORD PTR _x$1[ebp], 12
  00048	8b 4d 08	 mov	 ecx, DWORD PTR _lpObj$[ebp]
  0004b	8b 94 01 a8 1a
	00 00		 mov	 edx, DWORD PTR [ecx+eax+6824]
  00052	52		 push	 edx
  00053	6b 45 f8 0c	 imul	 eax, DWORD PTR _x$1[ebp], 12
  00057	8b 4d 08	 mov	 ecx, DWORD PTR _lpObj$[ebp]
  0005a	6b 94 01 b0 1a
	00 00 6c	 imul	 edx, DWORD PTR [ecx+eax+6832], 108
  00062	81 c2 00 00 00
	00		 add	 edx, OFFSET ?ItemAttribute@@3PAUITEM_ATTRIBUTE@@A ; ItemAttribute
  00068	52		 push	 edx
  00069	8b 45 f8	 mov	 eax, DWORD PTR _x$1[ebp]
  0006c	83 c0 01	 add	 eax, 1
  0006f	50		 push	 eax
  00070	68 00 00 00 00	 push	 OFFSET ??_C@_0CF@BELGFBPN@?$FLPickUp?5System?$FN?5Item?5?$CD?$CFd?3?5?$CFs?5?$CI?$CF@
  00075	8b 4d 08	 mov	 ecx, DWORD PTR _lpObj$[ebp]
  00078	8b 11		 mov	 edx, DWORD PTR [ecx]
  0007a	52		 push	 edx
  0007b	e8 00 00 00 00	 call	 ?MsgOutput@@YAXHPADZZ	; MsgOutput
  00080	83 c4 18	 add	 esp, 24			; 00000018H
$LN5@IsPickList:

; 186  : 			//break;
; 187  : 		}
; 188  : 	}

  00083	eb 90		 jmp	 SHORT $LN2@IsPickList
$LN1@IsPickList:

; 189  : 
; 190  : }

  00085	5f		 pop	 edi
  00086	5e		 pop	 esi
  00087	5b		 pop	 ebx
  00088	8b e5		 mov	 esp, ebp
  0008a	5d		 pop	 ebp
  0008b	c2 04 00	 ret	 4
?IsPickList@CPickUpSystem@@QAEXPAVOBJECTSTRUCT@@@Z ENDP	; CPickUpSystem::IsPickList
_TEXT	ENDS
; Function compile flags: /Odtp /ZI
; File C:\Mu Online\Mu-GS-Webzen-MC-10093\GameServer\PickUpSystem.cpp
;	COMDAT ?CheckIsPickItem@CPickUpSystem@@QAEHPAD@Z
_TEXT	SEGMENT
_i$1 = -8						; size = 4
_this$ = -4						; size = 4
_szItemDrop$ = 8					; size = 4
?CheckIsPickItem@CPickUpSystem@@QAEHPAD@Z PROC		; CPickUpSystem::CheckIsPickItem, COMDAT
; _this$ = ecx

; 106  : {

  00000	55		 push	 ebp
  00001	8b ec		 mov	 ebp, esp
  00003	83 ec 48	 sub	 esp, 72			; 00000048H
  00006	53		 push	 ebx
  00007	56		 push	 esi
  00008	57		 push	 edi
  00009	89 4d fc	 mov	 DWORD PTR _this$[ebp], ecx

; 107  : 	for (int i = 0; i <= this->iCount; i++)

  0000c	c7 45 f8 00 00
	00 00		 mov	 DWORD PTR _i$1[ebp], 0
  00013	eb 09		 jmp	 SHORT $LN4@CheckIsPic
$LN2@CheckIsPic:
  00015	8b 45 f8	 mov	 eax, DWORD PTR _i$1[ebp]
  00018	83 c0 01	 add	 eax, 1
  0001b	89 45 f8	 mov	 DWORD PTR _i$1[ebp], eax
$LN4@CheckIsPic:
  0001e	8b 45 fc	 mov	 eax, DWORD PTR _this$[ebp]
  00021	8b 4d f8	 mov	 ecx, DWORD PTR _i$1[ebp]
  00024	3b 88 80 03 00
	00		 cmp	 ecx, DWORD PTR [eax+896]
  0002a	7f 1f		 jg	 SHORT $LN3@CheckIsPic

; 108  : 	{
; 109  : 		if (strcmp(szItemDrop, this->m_PICK[i].TextItem) == 0)

  0002c	6b 45 f8 1c	 imul	 eax, DWORD PTR _i$1[ebp], 28
  00030	03 45 fc	 add	 eax, DWORD PTR _this$[ebp]
  00033	50		 push	 eax
  00034	8b 4d 08	 mov	 ecx, DWORD PTR _szItemDrop$[ebp]
  00037	51		 push	 ecx
  00038	e8 00 00 00 00	 call	 _strcmp
  0003d	83 c4 08	 add	 esp, 8
  00040	85 c0		 test	 eax, eax
  00042	75 05		 jne	 SHORT $LN5@CheckIsPic

; 110  : 		{
; 111  : 			return i;

  00044	8b 45 f8	 mov	 eax, DWORD PTR _i$1[ebp]
  00047	eb 05		 jmp	 SHORT $LN1@CheckIsPic
$LN5@CheckIsPic:

; 112  : 		}
; 113  : 	}

  00049	eb ca		 jmp	 SHORT $LN2@CheckIsPic
$LN3@CheckIsPic:

; 114  : 	return -1;

  0004b	83 c8 ff	 or	 eax, -1
$LN1@CheckIsPic:

; 115  : }

  0004e	5f		 pop	 edi
  0004f	5e		 pop	 esi
  00050	5b		 pop	 ebx
  00051	8b e5		 mov	 esp, ebp
  00053	5d		 pop	 ebp
  00054	c2 04 00	 ret	 4
?CheckIsPickItem@CPickUpSystem@@QAEHPAD@Z ENDP		; CPickUpSystem::CheckIsPickItem
_TEXT	ENDS
; Function compile flags: /Odtp /ZI
; File C:\Mu Online\Mu-GS-Webzen-MC-10093\GameServer\PickUpSystem.cpp
;	COMDAT ?Insert@CPickUpSystem@@QAEXHPADHH@Z
_TEXT	SEGMENT
_this$ = -4						; size = 4
_gIndex$ = 8						; size = 4
_ItemText$ = 12						; size = 4
_ItemType$ = 16						; size = 4
_ItemIndex$ = 20					; size = 4
?Insert@CPickUpSystem@@QAEXHPADHH@Z PROC		; CPickUpSystem::Insert, COMDAT
; _this$ = ecx

; 99   : 	{

  00000	55		 push	 ebp
  00001	8b ec		 mov	 ebp, esp
  00003	83 ec 44	 sub	 esp, 68			; 00000044H
  00006	53		 push	 ebx
  00007	56		 push	 esi
  00008	57		 push	 edi
  00009	89 4d fc	 mov	 DWORD PTR _this$[ebp], ecx

; 100  : 		this->m_PICK[gIndex].ID = ItemIndex;

  0000c	6b 45 08 1c	 imul	 eax, DWORD PTR _gIndex$[ebp], 28
  00010	8b 4d fc	 mov	 ecx, DWORD PTR _this$[ebp]
  00013	8b 55 14	 mov	 edx, DWORD PTR _ItemIndex$[ebp]
  00016	89 54 01 18	 mov	 DWORD PTR [ecx+eax+24], edx

; 101  : 		this->m_PICK[gIndex].Type = ItemType;

  0001a	6b 45 08 1c	 imul	 eax, DWORD PTR _gIndex$[ebp], 28
  0001e	8b 4d fc	 mov	 ecx, DWORD PTR _this$[ebp]
  00021	8b 55 10	 mov	 edx, DWORD PTR _ItemType$[ebp]
  00024	89 54 01 14	 mov	 DWORD PTR [ecx+eax+20], edx

; 102  : 		strcpy(this->m_PICK[gIndex].TextItem, ItemText);

  00028	8b 45 0c	 mov	 eax, DWORD PTR _ItemText$[ebp]
  0002b	50		 push	 eax
  0002c	6b 4d 08 1c	 imul	 ecx, DWORD PTR _gIndex$[ebp], 28
  00030	03 4d fc	 add	 ecx, DWORD PTR _this$[ebp]
  00033	51		 push	 ecx
  00034	e8 00 00 00 00	 call	 _strcpy
  00039	83 c4 08	 add	 esp, 8

; 103  : 	}

  0003c	5f		 pop	 edi
  0003d	5e		 pop	 esi
  0003e	5b		 pop	 ebx
  0003f	8b e5		 mov	 esp, ebp
  00041	5d		 pop	 ebp
  00042	c2 10 00	 ret	 16			; 00000010H
?Insert@CPickUpSystem@@QAEXHPADHH@Z ENDP		; CPickUpSystem::Insert
_TEXT	ENDS
; Function compile flags: /Odtp /ZI
; File C:\Mu Online\Mu-GS-Webzen-MC-10093\GameServer\PickUpSystem.cpp
;	COMDAT ?IsPickAddCommand@CPickUpSystem@@QAEXPAVOBJECTSTRUCT@@PAUPMSG_CHATDATA@@@Z
_TEXT	SEGMENT
_x$1 = -88						; size = 4
_Item$ = -84						; size = 4
_ItemID$ = -80						; size = 4
_ItemType$ = -76					; size = 4
_PickCode$ = -72					; size = 4
_ItemText$ = -68					; size = 60
_this$ = -8						; size = 4
__$ArrayPad$ = -4					; size = 4
_lpObj$ = 8						; size = 4
_lpChat$ = 12						; size = 4
?IsPickAddCommand@CPickUpSystem@@QAEXPAVOBJECTSTRUCT@@PAUPMSG_CHATDATA@@@Z PROC ; CPickUpSystem::IsPickAddCommand, COMDAT
; _this$ = ecx

; 118  : {

  00000	55		 push	 ebp
  00001	8b ec		 mov	 ebp, esp
  00003	81 ec 98 00 00
	00		 sub	 esp, 152		; 00000098H
  00009	a1 00 00 00 00	 mov	 eax, DWORD PTR ___security_cookie
  0000e	33 c5		 xor	 eax, ebp
  00010	89 45 fc	 mov	 DWORD PTR __$ArrayPad$[ebp], eax
  00013	53		 push	 ebx
  00014	56		 push	 esi
  00015	57		 push	 edi
  00016	89 4d f8	 mov	 DWORD PTR _this$[ebp], ecx

; 119  :     char ItemText[MAX_CHAT_LEN];
; 120  : 	int PickCode = -1;

  00019	c7 45 b8 ff ff
	ff ff		 mov	 DWORD PTR _PickCode$[ebp], -1

; 121  :     sscanf(&lpChat->chatmsg[strlen("/pickup")+1],"%s",&ItemText);

  00020	8d 45 bc	 lea	 eax, DWORD PTR _ItemText$[ebp]
  00023	50		 push	 eax
  00024	68 00 00 00 00	 push	 OFFSET ??_C@_02DKCKIIND@?$CFs@
  00029	68 00 00 00 00	 push	 OFFSET ??_C@_07DGKIHAAH@?1pickup@
  0002e	e8 00 00 00 00	 call	 _strlen
  00033	83 c4 04	 add	 esp, 4
  00036	8b 4d 0c	 mov	 ecx, DWORD PTR _lpChat$[ebp]
  00039	8d 54 01 0e	 lea	 edx, DWORD PTR [ecx+eax+14]
  0003d	52		 push	 edx
  0003e	e8 00 00 00 00	 call	 _sscanf
  00043	83 c4 0c	 add	 esp, 12			; 0000000cH

; 122  : 	LogAdd("Use Pick Command -> [ %s ]\t[ %s ]\t[ %s ] Item: %s ", lpObj->Ip_addr, lpObj->AccountID, lpObj->Name, ItemText);

  00046	8d 45 bc	 lea	 eax, DWORD PTR _ItemText$[ebp]
  00049	50		 push	 eax
  0004a	8b 4d 08	 mov	 ecx, DWORD PTR _lpObj$[ebp]
  0004d	83 c1 73	 add	 ecx, 115		; 00000073H
  00050	51		 push	 ecx
  00051	8b 55 08	 mov	 edx, DWORD PTR _lpObj$[ebp]
  00054	83 c2 68	 add	 edx, 104		; 00000068H
  00057	52		 push	 edx
  00058	8b 45 08	 mov	 eax, DWORD PTR _lpObj$[ebp]
  0005b	83 c0 18	 add	 eax, 24			; 00000018H
  0005e	50		 push	 eax
  0005f	68 00 00 00 00	 push	 OFFSET ??_C@_0DD@LAALJDPM@Use?5Pick?5Command?5?9?$DO?5?$FL?5?$CFs?5?$FN?7?$FL?5?$CFs@
  00064	ff 15 00 00 00
	00		 call	 DWORD PTR ?LogAdd@@3P6AXPADZZA ; LogAdd
  0006a	83 c4 14	 add	 esp, 20			; 00000014H

; 123  : 
; 124  : 	PickCode = CheckIsPickItem(ItemText);

  0006d	8d 45 bc	 lea	 eax, DWORD PTR _ItemText$[ebp]
  00070	50		 push	 eax
  00071	8b 4d f8	 mov	 ecx, DWORD PTR _this$[ebp]
  00074	e8 00 00 00 00	 call	 ?CheckIsPickItem@CPickUpSystem@@QAEHPAD@Z ; CPickUpSystem::CheckIsPickItem
  00079	89 45 b8	 mov	 DWORD PTR _PickCode$[ebp], eax

; 125  : 
; 126  : 	if (PickCode == -1)

  0007c	83 7d b8 ff	 cmp	 DWORD PTR _PickCode$[ebp], -1
  00080	75 1c		 jne	 SHORT $LN5@IsPickAddC

; 127  : 	{
; 128  : 		//MsgOutput(lpObj->m_Index, "[PickUp System] : [%s] Not Found", ItemText);
; 129  : 		MsgOutput(lpObj->m_Index, "[PickUp System] : El item no existe en el PickUp", ItemText);

  00082	8d 45 bc	 lea	 eax, DWORD PTR _ItemText$[ebp]
  00085	50		 push	 eax
  00086	68 00 00 00 00	 push	 OFFSET ??_C@_0DB@CGAAJNNO@?$FLPickUp?5System?$FN?5?3?5El?5item?5no?5ex@
  0008b	8b 4d 08	 mov	 ecx, DWORD PTR _lpObj$[ebp]
  0008e	8b 11		 mov	 edx, DWORD PTR [ecx]
  00090	52		 push	 edx
  00091	e8 00 00 00 00	 call	 ?MsgOutput@@YAXHPADZZ	; MsgOutput
  00096	83 c4 0c	 add	 esp, 12			; 0000000cH

; 130  : 		return;

  00099	e9 d8 00 00 00	 jmp	 $LN1@IsPickAddC
$LN5@IsPickAddC:

; 131  : 	}
; 132  : 	int ItemType = m_PICK[PickCode].Type;

  0009e	6b 45 b8 1c	 imul	 eax, DWORD PTR _PickCode$[ebp], 28
  000a2	8b 4d f8	 mov	 ecx, DWORD PTR _this$[ebp]
  000a5	8b 54 01 14	 mov	 edx, DWORD PTR [ecx+eax+20]
  000a9	89 55 b4	 mov	 DWORD PTR _ItemType$[ebp], edx

; 133  : 	int ItemID = m_PICK[PickCode].ID;

  000ac	6b 45 b8 1c	 imul	 eax, DWORD PTR _PickCode$[ebp], 28
  000b0	8b 4d f8	 mov	 ecx, DWORD PTR _this$[ebp]
  000b3	8b 54 01 18	 mov	 edx, DWORD PTR [ecx+eax+24]
  000b7	89 55 b0	 mov	 DWORD PTR _ItemID$[ebp], edx

; 134  : 
; 135  : 	DWORD Item = ItemType * 32 + ItemID;

  000ba	8b 45 b4	 mov	 eax, DWORD PTR _ItemType$[ebp]
  000bd	c1 e0 05	 shl	 eax, 5
  000c0	03 45 b0	 add	 eax, DWORD PTR _ItemID$[ebp]
  000c3	89 45 ac	 mov	 DWORD PTR _Item$[ebp], eax

; 136  : 
; 137  : 	if (!IfItemExistInList(lpObj, Item))

  000c6	8b 45 ac	 mov	 eax, DWORD PTR _Item$[ebp]
  000c9	50		 push	 eax
  000ca	8b 4d 08	 mov	 ecx, DWORD PTR _lpObj$[ebp]
  000cd	51		 push	 ecx
  000ce	8b 4d f8	 mov	 ecx, DWORD PTR _this$[ebp]
  000d1	e8 00 00 00 00	 call	 ?IfItemExistInList@CPickUpSystem@@QAEHPAVOBJECTSTRUCT@@H@Z ; CPickUpSystem::IfItemExistInList
  000d6	85 c0		 test	 eax, eax
  000d8	75 7f		 jne	 SHORT $LN6@IsPickAddC

; 138  : 	{
; 139  : 
; 140  : 		for (int x = 0; x < MAX_PICKUP_ITEMS; x++)

  000da	c7 45 a8 00 00
	00 00		 mov	 DWORD PTR _x$1[ebp], 0
  000e1	eb 09		 jmp	 SHORT $LN4@IsPickAddC
$LN2@IsPickAddC:
  000e3	8b 45 a8	 mov	 eax, DWORD PTR _x$1[ebp]
  000e6	83 c0 01	 add	 eax, 1
  000e9	89 45 a8	 mov	 DWORD PTR _x$1[ebp], eax
$LN4@IsPickAddC:
  000ec	83 7d a8 14	 cmp	 DWORD PTR _x$1[ebp], 20	; 00000014H
  000f0	7d 48		 jge	 SHORT $LN3@IsPickAddC

; 141  : 		{
; 142  : 			if (lpObj->m_pickup[x].Item == -1)

  000f2	6b 45 a8 0c	 imul	 eax, DWORD PTR _x$1[ebp], 12
  000f6	8b 4d 08	 mov	 ecx, DWORD PTR _lpObj$[ebp]
  000f9	83 bc 01 b0 1a
	00 00 ff	 cmp	 DWORD PTR [ecx+eax+6832], -1
  00101	75 35		 jne	 SHORT $LN8@IsPickAddC

; 143  : 			{
; 144  : 				//if (lpObj->m_pickup[x].Item != Item)
; 145  : 				//{
; 146  : 
; 147  : 				lpObj->m_pickup[x].Type = ItemType;

  00103	6b 45 a8 0c	 imul	 eax, DWORD PTR _x$1[ebp], 12
  00107	8b 4d 08	 mov	 ecx, DWORD PTR _lpObj$[ebp]
  0010a	8b 55 b4	 mov	 edx, DWORD PTR _ItemType$[ebp]
  0010d	89 94 01 a8 1a
	00 00		 mov	 DWORD PTR [ecx+eax+6824], edx

; 148  : 				lpObj->m_pickup[x].Index = ItemID;

  00114	6b 45 a8 0c	 imul	 eax, DWORD PTR _x$1[ebp], 12
  00118	8b 4d 08	 mov	 ecx, DWORD PTR _lpObj$[ebp]
  0011b	8b 55 b0	 mov	 edx, DWORD PTR _ItemID$[ebp]
  0011e	89 94 01 ac 1a
	00 00		 mov	 DWORD PTR [ecx+eax+6828], edx

; 149  : 				lpObj->m_pickup[x].Item = Item;

  00125	6b 45 a8 0c	 imul	 eax, DWORD PTR _x$1[ebp], 12
  00129	8b 4d 08	 mov	 ecx, DWORD PTR _lpObj$[ebp]
  0012c	8b 55 ac	 mov	 edx, DWORD PTR _Item$[ebp]
  0012f	89 94 01 b0 1a
	00 00		 mov	 DWORD PTR [ecx+eax+6832], edx

; 150  : 				break;

  00136	eb 02		 jmp	 SHORT $LN3@IsPickAddC
$LN8@IsPickAddC:

; 151  : 				//  }
; 152  : 
; 153  : 			}
; 154  : 		}

  00138	eb a9		 jmp	 SHORT $LN2@IsPickAddC
$LN3@IsPickAddC:

; 155  : 		MsgOutput(lpObj->m_Index, "[PickUp System] : Usted agrego %s a su listado", ItemAttribute[Item].Name); 

  0013a	6b 45 ac 6c	 imul	 eax, DWORD PTR _Item$[ebp], 108
  0013e	05 00 00 00 00	 add	 eax, OFFSET ?ItemAttribute@@3PAUITEM_ATTRIBUTE@@A ; ItemAttribute
  00143	50		 push	 eax
  00144	68 00 00 00 00	 push	 OFFSET ??_C@_0CP@EBDOKFE@?$FLPickUp?5System?$FN?5?3?5Usted?5agrego?5@
  00149	8b 4d 08	 mov	 ecx, DWORD PTR _lpObj$[ebp]
  0014c	8b 11		 mov	 edx, DWORD PTR [ecx]
  0014e	52		 push	 edx
  0014f	e8 00 00 00 00	 call	 ?MsgOutput@@YAXHPADZZ	; MsgOutput
  00154	83 c4 0c	 add	 esp, 12			; 0000000cH

; 156  : 	}

  00157	eb 1d		 jmp	 SHORT $LN1@IsPickAddC
$LN6@IsPickAddC:

; 157  : 	else
; 158  : 	{
; 159  : 		MsgOutput(lpObj->m_Index, "[PickUp System] : Usted ya tiene %s en su listado ", ItemAttribute[Item].Name);

  00159	6b 45 ac 6c	 imul	 eax, DWORD PTR _Item$[ebp], 108
  0015d	05 00 00 00 00	 add	 eax, OFFSET ?ItemAttribute@@3PAUITEM_ATTRIBUTE@@A ; ItemAttribute
  00162	50		 push	 eax
  00163	68 00 00 00 00	 push	 OFFSET ??_C@_0DD@BEECAGMP@?$FLPickUp?5System?$FN?5?3?5Usted?5ya?5tien@
  00168	8b 4d 08	 mov	 ecx, DWORD PTR _lpObj$[ebp]
  0016b	8b 11		 mov	 edx, DWORD PTR [ecx]
  0016d	52		 push	 edx
  0016e	e8 00 00 00 00	 call	 ?MsgOutput@@YAXHPADZZ	; MsgOutput
  00173	83 c4 0c	 add	 esp, 12			; 0000000cH
$LN1@IsPickAddC:

; 160  : 	}
; 161  : }

  00176	5f		 pop	 edi
  00177	5e		 pop	 esi
  00178	5b		 pop	 ebx
  00179	8b 4d fc	 mov	 ecx, DWORD PTR __$ArrayPad$[ebp]
  0017c	33 cd		 xor	 ecx, ebp
  0017e	e8 00 00 00 00	 call	 @__security_check_cookie@4
  00183	8b e5		 mov	 esp, ebp
  00185	5d		 pop	 ebp
  00186	c2 08 00	 ret	 8
?IsPickAddCommand@CPickUpSystem@@QAEXPAVOBJECTSTRUCT@@PAUPMSG_CHATDATA@@@Z ENDP ; CPickUpSystem::IsPickAddCommand
_TEXT	ENDS
; Function compile flags: /Odtp /ZI
; File C:\Mu Online\Mu-GS-Webzen-MC-10093\GameServer\PickUpSystem.cpp
;	COMDAT ?LoadFile@CPickUpSystem@@QAEXPAD@Z
_TEXT	SEGMENT
_isItemIndex$ = -48					; size = 4
_isItemType$ = -44					; size = 4
_szItemText$ = -40					; size = 20
_sIndex$ = -20						; size = 4
_iIndex$ = -16						; size = 4
_Token$ = -12						; size = 4
_this$ = -8						; size = 4
__$ArrayPad$ = -4					; size = 4
_filename$ = 8						; size = 4
?LoadFile@CPickUpSystem@@QAEXPAD@Z PROC			; CPickUpSystem::LoadFile, COMDAT
; _this$ = ecx

; 30   : 	{

  00000	55		 push	 ebp
  00001	8b ec		 mov	 ebp, esp
  00003	83 ec 70	 sub	 esp, 112		; 00000070H
  00006	a1 00 00 00 00	 mov	 eax, DWORD PTR ___security_cookie
  0000b	33 c5		 xor	 eax, ebp
  0000d	89 45 fc	 mov	 DWORD PTR __$ArrayPad$[ebp], eax
  00010	53		 push	 ebx
  00011	56		 push	 esi
  00012	57		 push	 edi
  00013	89 4d f8	 mov	 DWORD PTR _this$[ebp], ecx

; 31   : 		this->Init();

  00016	8b 4d f8	 mov	 ecx, DWORD PTR _this$[ebp]
  00019	e8 00 00 00 00	 call	 ?Init@CPickUpSystem@@QAEXXZ ; CPickUpSystem::Init

; 32   : 
; 33   : 		if ((SMDFile = fopen(filename, "r")) == NULL)

  0001e	68 00 00 00 00	 push	 OFFSET ??_C@_01KDCPPGHE@r@
  00023	8b 45 08	 mov	 eax, DWORD PTR _filename$[ebp]
  00026	50		 push	 eax
  00027	e8 00 00 00 00	 call	 _fopen
  0002c	83 c4 08	 add	 esp, 8
  0002f	a3 00 00 00 00	 mov	 DWORD PTR ?SMDFile@@3PAU_iobuf@@A, eax
  00034	83 3d 00 00 00
	00 00		 cmp	 DWORD PTR ?SMDFile@@3PAU_iobuf@@A, 0
  0003b	75 21		 jne	 SHORT $LN6@LoadFile

; 34   : 		{
; 35   : 			MessageBoxA(0, "CPickUpSystem::LoadFile() error", "CRITICAL ERROR", 0);

  0003d	6a 00		 push	 0
  0003f	68 00 00 00 00	 push	 OFFSET ??_C@_0P@BPENEPNJ@CRITICAL?5ERROR@
  00044	68 00 00 00 00	 push	 OFFSET ??_C@_0CA@DOOEPNIL@CPickUpSystem?3?3LoadFile?$CI?$CJ?5error@
  00049	6a 00		 push	 0
  0004b	ff 15 00 00 00
	00		 call	 DWORD PTR __imp__MessageBoxA@16

; 36   : 			ExitProcess(1);

  00051	6a 01		 push	 1
  00053	ff 15 00 00 00
	00		 call	 DWORD PTR __imp__ExitProcess@4

; 37   : 			return;

  00059	e9 0e 01 00 00	 jmp	 $LN1@LoadFile
$LN6@LoadFile:

; 38   : 		}
; 39   : 
; 40   : 		SMDToken Token;
; 41   : 		int iIndex;
; 42   : 
; 43   : 		int sIndex;
; 44   : 		char szItemText[20] = { 0 };

  0005e	33 c0		 xor	 eax, eax
  00060	89 45 d8	 mov	 DWORD PTR _szItemText$[ebp], eax
  00063	89 45 dc	 mov	 DWORD PTR _szItemText$[ebp+4], eax
  00066	89 45 e0	 mov	 DWORD PTR _szItemText$[ebp+8], eax
  00069	89 45 e4	 mov	 DWORD PTR _szItemText$[ebp+12], eax
  0006c	89 45 e8	 mov	 DWORD PTR _szItemText$[ebp+16], eax
$LN2@LoadFile:

; 45   : 		int isItemType;
; 46   : 		int isItemIndex;
; 47   : 		
; 48   : 		while (true)

  0006f	b8 01 00 00 00	 mov	 eax, 1
  00074	85 c0		 test	 eax, eax
  00076	0f 84 e2 00 00
	00		 je	 $LN3@LoadFile

; 49   : 		{
; 50   : 			Token = GetToken();

  0007c	e8 00 00 00 00	 call	 ?GetToken@@YA?AW4SMDToken@@XZ ; GetToken
  00081	89 45 f4	 mov	 DWORD PTR _Token$[ebp], eax

; 51   : 
; 52   : 			if (Token == END)

  00084	83 7d f4 02	 cmp	 DWORD PTR _Token$[ebp], 2
  00088	75 05		 jne	 SHORT $LN7@LoadFile

; 53   : 				break;

  0008a	e9 cf 00 00 00	 jmp	 $LN3@LoadFile
$LN7@LoadFile:

; 54   : 
; 55   : 			if (Token == NUMBER)

  0008f	83 7d f4 01	 cmp	 DWORD PTR _Token$[ebp], 1
  00093	0f 85 c0 00 00
	00		 jne	 $LN5@LoadFile

; 56   : 			{
; 57   : 				iIndex = TokenNumber;

  00099	f3 0f 2c 05 00
	00 00 00	 cvttss2si eax, DWORD PTR ?TokenNumber@@3MA
  000a1	89 45 f0	 mov	 DWORD PTR _iIndex$[ebp], eax
$LN4@LoadFile:

; 58   : 
; 59   : 				while (true)

  000a4	b8 01 00 00 00	 mov	 eax, 1
  000a9	85 c0		 test	 eax, eax
  000ab	0f 84 a8 00 00
	00		 je	 $LN5@LoadFile

; 60   : 				{
; 61   : 					if (iIndex == 0)

  000b1	83 7d f0 00	 cmp	 DWORD PTR _iIndex$[ebp], 0
  000b5	0f 85 99 00 00
	00		 jne	 $LN9@LoadFile

; 62   : 					{
; 63   : 						Token = GetToken();

  000bb	e8 00 00 00 00	 call	 ?GetToken@@YA?AW4SMDToken@@XZ ; GetToken
  000c0	89 45 f4	 mov	 DWORD PTR _Token$[ebp], eax

; 64   : 
; 65   : 						if (strcmp("end", TokenString) == 0)

  000c3	68 00 00 00 00	 push	 OFFSET ?TokenString@@3PADA
  000c8	68 00 00 00 00	 push	 OFFSET ??_C@_03JBJLGPFL@end@
  000cd	e8 00 00 00 00	 call	 _strcmp
  000d2	83 c4 08	 add	 esp, 8
  000d5	85 c0		 test	 eax, eax
  000d7	75 02		 jne	 SHORT $LN10@LoadFile

; 66   : 							break;

  000d9	eb 7e		 jmp	 SHORT $LN5@LoadFile
$LN10@LoadFile:

; 67   : 
; 68   : 						sIndex = TokenNumber;

  000db	f3 0f 2c 05 00
	00 00 00	 cvttss2si eax, DWORD PTR ?TokenNumber@@3MA
  000e3	89 45 ec	 mov	 DWORD PTR _sIndex$[ebp], eax

; 69   : 
; 70   : 						Token = GetToken();

  000e6	e8 00 00 00 00	 call	 ?GetToken@@YA?AW4SMDToken@@XZ ; GetToken
  000eb	89 45 f4	 mov	 DWORD PTR _Token$[ebp], eax

; 71   : 						memcpy(szItemText, TokenString, sizeof(szItemText));

  000ee	6a 14		 push	 20			; 00000014H
  000f0	68 00 00 00 00	 push	 OFFSET ?TokenString@@3PADA
  000f5	8d 45 d8	 lea	 eax, DWORD PTR _szItemText$[ebp]
  000f8	50		 push	 eax
  000f9	e8 00 00 00 00	 call	 _memcpy
  000fe	83 c4 0c	 add	 esp, 12			; 0000000cH

; 72   : 
; 73   : 
; 74   : 						Token = GetToken();

  00101	e8 00 00 00 00	 call	 ?GetToken@@YA?AW4SMDToken@@XZ ; GetToken
  00106	89 45 f4	 mov	 DWORD PTR _Token$[ebp], eax

; 75   : 						isItemType = TokenNumber;

  00109	f3 0f 2c 05 00
	00 00 00	 cvttss2si eax, DWORD PTR ?TokenNumber@@3MA
  00111	89 45 d4	 mov	 DWORD PTR _isItemType$[ebp], eax

; 76   : 
; 77   : 						Token = GetToken();

  00114	e8 00 00 00 00	 call	 ?GetToken@@YA?AW4SMDToken@@XZ ; GetToken
  00119	89 45 f4	 mov	 DWORD PTR _Token$[ebp], eax

; 78   : 						isItemIndex = TokenNumber;

  0011c	f3 0f 2c 05 00
	00 00 00	 cvttss2si eax, DWORD PTR ?TokenNumber@@3MA
  00124	89 45 d0	 mov	 DWORD PTR _isItemIndex$[ebp], eax

; 79   : 
; 80   : 
; 81   : 						this->Insert(sIndex, szItemText, isItemType, isItemIndex);

  00127	8b 45 d0	 mov	 eax, DWORD PTR _isItemIndex$[ebp]
  0012a	50		 push	 eax
  0012b	8b 4d d4	 mov	 ecx, DWORD PTR _isItemType$[ebp]
  0012e	51		 push	 ecx
  0012f	8d 55 d8	 lea	 edx, DWORD PTR _szItemText$[ebp]
  00132	52		 push	 edx
  00133	8b 45 ec	 mov	 eax, DWORD PTR _sIndex$[ebp]
  00136	50		 push	 eax
  00137	8b 4d f8	 mov	 ecx, DWORD PTR _this$[ebp]
  0013a	e8 00 00 00 00	 call	 ?Insert@CPickUpSystem@@QAEXHPADHH@Z ; CPickUpSystem::Insert

; 82   : 
; 83   : 						this->iCount++;

  0013f	8b 45 f8	 mov	 eax, DWORD PTR _this$[ebp]
  00142	8b 88 80 03 00
	00		 mov	 ecx, DWORD PTR [eax+896]
  00148	83 c1 01	 add	 ecx, 1
  0014b	8b 55 f8	 mov	 edx, DWORD PTR _this$[ebp]
  0014e	89 8a 80 03 00
	00		 mov	 DWORD PTR [edx+896], ecx
$LN9@LoadFile:

; 84   : 					}
; 85   : 					
; 86   : 
; 87   : 
; 88   : 				
; 89   : 
; 90   : 				}

  00154	e9 4b ff ff ff	 jmp	 $LN4@LoadFile
$LN5@LoadFile:

; 91   : 			}
; 92   : 		}

  00159	e9 11 ff ff ff	 jmp	 $LN2@LoadFile
$LN3@LoadFile:

; 93   : 
; 94   : 		fclose(SMDFile);

  0015e	a1 00 00 00 00	 mov	 eax, DWORD PTR ?SMDFile@@3PAU_iobuf@@A
  00163	50		 push	 eax
  00164	e8 00 00 00 00	 call	 _fclose
  00169	83 c4 04	 add	 esp, 4
$LN1@LoadFile:

; 95   : 		return;
; 96   : 	}

  0016c	5f		 pop	 edi
  0016d	5e		 pop	 esi
  0016e	5b		 pop	 ebx
  0016f	8b 4d fc	 mov	 ecx, DWORD PTR __$ArrayPad$[ebp]
  00172	33 cd		 xor	 ecx, ebp
  00174	e8 00 00 00 00	 call	 @__security_check_cookie@4
  00179	8b e5		 mov	 esp, ebp
  0017b	5d		 pop	 ebp
  0017c	c2 04 00	 ret	 4
?LoadFile@CPickUpSystem@@QAEXPAD@Z ENDP			; CPickUpSystem::LoadFile
_TEXT	ENDS
; Function compile flags: /Odtp /ZI
; File C:\Mu Online\Mu-GS-Webzen-MC-10093\GameServer\PickUpSystem.cpp
;	COMDAT ?Init@CPickUpSystem@@QAEXXZ
_TEXT	SEGMENT
_i$1 = -8						; size = 4
_this$ = -4						; size = 4
?Init@CPickUpSystem@@QAEXXZ PROC			; CPickUpSystem::Init, COMDAT
; _this$ = ecx

; 18   : {

  00000	55		 push	 ebp
  00001	8b ec		 mov	 ebp, esp
  00003	83 ec 48	 sub	 esp, 72			; 00000048H
  00006	53		 push	 ebx
  00007	56		 push	 esi
  00008	57		 push	 edi
  00009	89 4d fc	 mov	 DWORD PTR _this$[ebp], ecx

; 19   : 	for (int i = 0; i < 32; i++)

  0000c	c7 45 f8 00 00
	00 00		 mov	 DWORD PTR _i$1[ebp], 0
  00013	eb 09		 jmp	 SHORT $LN4@Init
$LN2@Init:
  00015	8b 45 f8	 mov	 eax, DWORD PTR _i$1[ebp]
  00018	83 c0 01	 add	 eax, 1
  0001b	89 45 f8	 mov	 DWORD PTR _i$1[ebp], eax
$LN4@Init:
  0001e	83 7d f8 20	 cmp	 DWORD PTR _i$1[ebp], 32	; 00000020H
  00022	7d 20		 jge	 SHORT $LN3@Init

; 20   : 	{
; 21   : 
; 22   : 		this->m_PICK[i].Type = 0;

  00024	6b 45 f8 1c	 imul	 eax, DWORD PTR _i$1[ebp], 28
  00028	8b 4d fc	 mov	 ecx, DWORD PTR _this$[ebp]
  0002b	c7 44 01 14 00
	00 00 00	 mov	 DWORD PTR [ecx+eax+20], 0

; 23   : 		this->m_PICK[i].ID = 0;

  00033	6b 45 f8 1c	 imul	 eax, DWORD PTR _i$1[ebp], 28
  00037	8b 4d fc	 mov	 ecx, DWORD PTR _this$[ebp]
  0003a	c7 44 01 18 00
	00 00 00	 mov	 DWORD PTR [ecx+eax+24], 0

; 24   : 
; 25   : 	}

  00042	eb d1		 jmp	 SHORT $LN2@Init
$LN3@Init:

; 26   : 	iCount = 0;

  00044	8b 45 fc	 mov	 eax, DWORD PTR _this$[ebp]
  00047	c7 80 80 03 00
	00 00 00 00 00	 mov	 DWORD PTR [eax+896], 0

; 27   : }

  00051	5f		 pop	 edi
  00052	5e		 pop	 esi
  00053	5b		 pop	 ebx
  00054	8b e5		 mov	 esp, ebp
  00056	5d		 pop	 ebp
  00057	c3		 ret	 0
?Init@CPickUpSystem@@QAEXXZ ENDP			; CPickUpSystem::Init
_TEXT	ENDS
; Function compile flags: /Odtp /ZI
; File C:\Program Files (x86)\Windows Kits\10\Include\10.0.18362.0\ucrt\stdio.h
;	COMDAT _sscanf
_TEXT	SEGMENT
__ArgList$ = -8						; size = 4
__Result$ = -4						; size = 4
__Buffer$ = 8						; size = 4
__Format$ = 12						; size = 4
_sscanf	PROC						; COMDAT

; 2270 :     {

  00000	55		 push	 ebp
  00001	8b ec		 mov	 ebp, esp
  00003	83 ec 4c	 sub	 esp, 76			; 0000004cH
  00006	53		 push	 ebx
  00007	56		 push	 esi
  00008	57		 push	 edi

; 2271 :         int _Result;
; 2272 :         va_list _ArgList;
; 2273 :         __crt_va_start(_ArgList, _Format);

  00009	8d 45 10	 lea	 eax, DWORD PTR __Format$[ebp+4]
  0000c	89 45 f8	 mov	 DWORD PTR __ArgList$[ebp], eax

; 2274 :         _Result = _vsscanf_l(_Buffer, _Format, NULL, _ArgList);

  0000f	8b 45 f8	 mov	 eax, DWORD PTR __ArgList$[ebp]
  00012	50		 push	 eax
  00013	6a 00		 push	 0
  00015	8b 4d 0c	 mov	 ecx, DWORD PTR __Format$[ebp]
  00018	51		 push	 ecx
  00019	8b 55 08	 mov	 edx, DWORD PTR __Buffer$[ebp]
  0001c	52		 push	 edx
  0001d	e8 00 00 00 00	 call	 __vsscanf_l
  00022	83 c4 10	 add	 esp, 16			; 00000010H
  00025	89 45 fc	 mov	 DWORD PTR __Result$[ebp], eax

; 2275 :         __crt_va_end(_ArgList);

  00028	c7 45 f8 00 00
	00 00		 mov	 DWORD PTR __ArgList$[ebp], 0

; 2276 :         return _Result;

  0002f	8b 45 fc	 mov	 eax, DWORD PTR __Result$[ebp]

; 2277 :     }

  00032	5f		 pop	 edi
  00033	5e		 pop	 esi
  00034	5b		 pop	 ebx
  00035	8b e5		 mov	 esp, ebp
  00037	5d		 pop	 ebp
  00038	c3		 ret	 0
_sscanf	ENDP
_TEXT	ENDS
; Function compile flags: /Odtp /ZI
; File C:\Program Files (x86)\Windows Kits\10\Include\10.0.18362.0\ucrt\stdio.h
;	COMDAT __vsscanf_l
_TEXT	SEGMENT
__Buffer$ = 8						; size = 4
__Format$ = 12						; size = 4
__Locale$ = 16						; size = 4
__ArgList$ = 20						; size = 4
__vsscanf_l PROC					; COMDAT

; 2175 :     {

  00000	55		 push	 ebp
  00001	8b ec		 mov	 ebp, esp
  00003	83 ec 40	 sub	 esp, 64			; 00000040H
  00006	53		 push	 ebx
  00007	56		 push	 esi
  00008	57		 push	 edi

; 2176 :         return __stdio_common_vsscanf(

  00009	8b 45 14	 mov	 eax, DWORD PTR __ArgList$[ebp]
  0000c	50		 push	 eax
  0000d	8b 4d 10	 mov	 ecx, DWORD PTR __Locale$[ebp]
  00010	51		 push	 ecx
  00011	8b 55 0c	 mov	 edx, DWORD PTR __Format$[ebp]
  00014	52		 push	 edx
  00015	6a ff		 push	 -1
  00017	8b 45 08	 mov	 eax, DWORD PTR __Buffer$[ebp]
  0001a	50		 push	 eax
  0001b	e8 00 00 00 00	 call	 ___local_stdio_scanf_options
  00020	8b 48 04	 mov	 ecx, DWORD PTR [eax+4]
  00023	51		 push	 ecx
  00024	8b 10		 mov	 edx, DWORD PTR [eax]
  00026	52		 push	 edx
  00027	e8 00 00 00 00	 call	 ___stdio_common_vsscanf
  0002c	83 c4 1c	 add	 esp, 28			; 0000001cH

; 2177 :             _CRT_INTERNAL_LOCAL_SCANF_OPTIONS,
; 2178 :             _Buffer, (size_t)-1, _Format, _Locale, _ArgList);
; 2179 :     }

  0002f	5f		 pop	 edi
  00030	5e		 pop	 esi
  00031	5b		 pop	 ebx
  00032	8b e5		 mov	 esp, ebp
  00034	5d		 pop	 ebp
  00035	c3		 ret	 0
__vsscanf_l ENDP
_TEXT	ENDS
; Function compile flags: /Odtp /ZI
; File C:\Program Files (x86)\Windows Kits\10\Include\10.0.18362.0\ucrt\corecrt_stdio_config.h
;	COMDAT ___local_stdio_scanf_options
_TEXT	SEGMENT
___local_stdio_scanf_options PROC			; COMDAT

; 96   :     {

  00000	55		 push	 ebp
  00001	8b ec		 mov	 ebp, esp
  00003	83 ec 40	 sub	 esp, 64			; 00000040H
  00006	53		 push	 ebx
  00007	56		 push	 esi
  00008	57		 push	 edi

; 97   :         static unsigned __int64 _OptionsStorage;
; 98   :         return &_OptionsStorage;

  00009	b8 00 00 00 00	 mov	 eax, OFFSET ?_OptionsStorage@?1??__local_stdio_scanf_options@@9@4_KA ; `__local_stdio_scanf_options'::`2'::_OptionsStorage

; 99   :     }

  0000e	5f		 pop	 edi
  0000f	5e		 pop	 esi
  00010	5b		 pop	 ebx
  00011	8b e5		 mov	 esp, ebp
  00013	5d		 pop	 ebp
  00014	c3		 ret	 0
___local_stdio_scanf_options ENDP
_TEXT	ENDS
; Function compile flags: /Odtp /ZI
; File C:\Mu Online\Mu-GS-Webzen-MC-10093\GameServer\PickUpSystem.cpp
;	COMDAT ?__empty_global_delete@@YAXPAXI@Z
_TEXT	SEGMENT
___formal$ = 8						; size = 4
___formal$ = 12						; size = 4
?__empty_global_delete@@YAXPAXI@Z PROC			; __empty_global_delete, COMDAT

  00000	55		 push	 ebp
  00001	8b ec		 mov	 ebp, esp
  00003	83 ec 40	 sub	 esp, 64			; 00000040H
  00006	53		 push	 ebx
  00007	56		 push	 esi
  00008	57		 push	 edi
  00009	5f		 pop	 edi
  0000a	5e		 pop	 esi
  0000b	5b		 pop	 ebx
  0000c	8b e5		 mov	 esp, ebp
  0000e	5d		 pop	 ebp
  0000f	c3		 ret	 0
?__empty_global_delete@@YAXPAXI@Z ENDP			; __empty_global_delete
_TEXT	ENDS
; Function compile flags: /Odtp /ZI
; File C:\Mu Online\Mu-GS-Webzen-MC-10093\GameServer\PickUpSystem.cpp
;	COMDAT ?__empty_global_delete@@YAXPAX@Z
_TEXT	SEGMENT
___formal$ = 8						; size = 4
?__empty_global_delete@@YAXPAX@Z PROC			; __empty_global_delete, COMDAT

  00000	55		 push	 ebp
  00001	8b ec		 mov	 ebp, esp
  00003	83 ec 40	 sub	 esp, 64			; 00000040H
  00006	53		 push	 ebx
  00007	56		 push	 esi
  00008	57		 push	 edi
  00009	5f		 pop	 edi
  0000a	5e		 pop	 esi
  0000b	5b		 pop	 ebx
  0000c	8b e5		 mov	 esp, ebp
  0000e	5d		 pop	 ebp
  0000f	c3		 ret	 0
?__empty_global_delete@@YAXPAX@Z ENDP			; __empty_global_delete
_TEXT	ENDS
END
