; Listing generated by Microsoft (R) Optimizing Compiler Version 19.27.29111.0 

	TITLE	C:\Mu Online\Mu-GS-Webzen-MC-10093\GameServer\ProbabilityItemBag.cpp
	.686P
	.XMM
	include listing.inc
	.model	flat

INCLUDELIB LIBCMT
INCLUDELIB OLDNAMES

PUBLIC	??_H@YGXPAXIIP6EPAX0@Z@Z			; `vector constructor iterator'
PUBLIC	?__empty_global_delete@@YAXPAX@Z		; __empty_global_delete
PUBLIC	?__empty_global_delete@@YAXPAXI@Z		; __empty_global_delete
PUBLIC	?Size@CTerrainManager@@QAE?BHXZ			; CTerrainManager::Size
PUBLIC	??0CItemBagAttrEx@@QAE@XZ			; CItemBagAttrEx::CItemBagAttrEx
PUBLIC	??0CItemBagDropMapInfo@@QAE@XZ			; CItemBagDropMapInfo::CItemBagDropMapInfo
PUBLIC	?Init@CItemBagDropMapInfo@@QAEXXZ		; CItemBagDropMapInfo::Init
PUBLIC	??0CProbabilityItemBag@@QAE@XZ			; CProbabilityItemBag::CProbabilityItemBag
PUBLIC	??1CProbabilityItemBag@@UAE@XZ			; CProbabilityItemBag::~CProbabilityItemBag
PUBLIC	?GetBagCount@CProbabilityItemBag@@AAEHXZ	; CProbabilityItemBag::GetBagCount
PUBLIC	?IsEnableEventItemDrop@CProbabilityItemBag@@AAEHH@Z ; CProbabilityItemBag::IsEnableEventItemDrop
PUBLIC	?GetLevel@CProbabilityItemBag@@AAEEH@Z		; CProbabilityItemBag::GetLevel
PUBLIC	?ProbabilityItemBagInit@CProbabilityItemBag@@QAEXPAD@Z ; CProbabilityItemBag::ProbabilityItemBagInit
PUBLIC	?LoadItem@CProbabilityItemBag@@QAEXPAD@Z	; CProbabilityItemBag::LoadItem
PUBLIC	?GetDropItemNumber@CProbabilityItemBag@@QAEHH@Z	; CProbabilityItemBag::GetDropItemNumber
PUBLIC	?GetEventName@CProbabilityItemBag@@QAEPADXZ	; CProbabilityItemBag::GetEventName
PUBLIC	?DropEventItem@CProbabilityItemBag@@QAEHHEEE@Z	; CProbabilityItemBag::DropEventItem
PUBLIC	??_GCProbabilityItemBag@@UAEPAXI@Z		; CProbabilityItemBag::`scalar deleting destructor'
PUBLIC	??_7CProbabilityItemBag@@6B@			; CProbabilityItemBag::`vftable'
PUBLIC	??_C@_0BL@CIFNLNKN@?4?4?2data?2TerrainManager?4cfg@ ; `string'
PUBLIC	??_C@_01KDCPPGHE@r@				; `string'
PUBLIC	??_C@_03JBJLGPFL@end@				; `string'
PUBLIC	??_C@_0BO@PPHECIOP@ExEvent?5ItemBag?5LoadFail?5?$FL?$CFs?$FN@ ; `string'
PUBLIC	??_C@_0GL@LIMNLNHJ@?$FL?$CFs?$FN?5Eventitemnum?5?$DN?5?$CFd?0EventIte@ ; `string'
PUBLIC	??_C@_0BF@KEOMIEDM@Load?5Script?5Error?5?$CFs@	; `string'
PUBLIC	??_C@_0CA@CCCPJAHG@?$FL?$CFs?$FN?5Drop?5Zen?5?$FL?$CFs?$FN?$FL?$CFs?$FN?5?$FL?$CFd?5Zen?$FN@ ; `string'
PUBLIC	??_C@_0FI@CMEKAOMC@?$FL?$CFs?$FN?5Drop?5Item?5?$FL?$CFs?$FN?$FL?$CFs?$FN?5?3?5?$CI?$CFd?$CJ?$CI@ ; `string'
PUBLIC	??_R4CProbabilityItemBag@@6B@			; CProbabilityItemBag::`RTTI Complete Object Locator'
PUBLIC	??_R0?AVCProbabilityItemBag@@@8			; CProbabilityItemBag `RTTI Type Descriptor'
PUBLIC	??_R3CProbabilityItemBag@@8			; CProbabilityItemBag::`RTTI Class Hierarchy Descriptor'
PUBLIC	??_R2CProbabilityItemBag@@8			; CProbabilityItemBag::`RTTI Base Class Array'
PUBLIC	??_R1A@?0A@EA@CProbabilityItemBag@@8		; CProbabilityItemBag::`RTTI Base Class Descriptor at (0,-1,0,64)'
PUBLIC	__real@437f0000
EXTRN	??3@YAXPAXI@Z:PROC				; operator delete
EXTRN	??_U@YAPAXI@Z:PROC				; operator new[]
EXTRN	??_V@YAXPAX@Z:PROC				; operator delete[]
EXTRN	??_V@YAXPAXI@Z:PROC				; operator delete[]
EXTRN	___report_rangecheckfailure:PROC
EXTRN	_isalpha:PROC
EXTRN	_isdigit:PROC
EXTRN	_isspace:PROC
EXTRN	_isalnum:PROC
EXTRN	_strcmp:PROC
EXTRN	_strcpy:PROC
EXTRN	__imp__wsprintfA:PROC
EXTRN	_fclose:PROC
EXTRN	_fgetc:PROC
EXTRN	_fopen:PROC
EXTRN	_getc:PROC
EXTRN	_ungetc:PROC
EXTRN	_rand:PROC
EXTRN	_atof:PROC
EXTRN	?MsgBox@@YAXPADZZ:PROC				; MsgBox
EXTRN	__imp_?Get@CMsg@@QAEPADH@Z:PROC
EXTRN	?ItemGetNumberMake@@YAHHH@Z:PROC		; ItemGetNumberMake
EXTRN	?Load@CTerrainManager@@QAEXPBD@Z:PROC		; CTerrainManager::Load
EXTRN	??_ECProbabilityItemBag@@UAEPAXI@Z:PROC		; CProbabilityItemBag::`vector deleting destructor'
EXTRN	?MakeItemNumber@@YAHHH@Z:PROC			; MakeItemNumber
EXTRN	?NewOptionRand@@YAEH@Z:PROC			; NewOptionRand
EXTRN	?ItemSerialCreateSend@@YAXHEEEHEEEEEHEEH@Z:PROC	; ItemSerialCreateSend
EXTRN	?MoneyItemDrop@MapClass@@QAEHHHH@Z:PROC		; MapClass::MoneyItemDrop
EXTRN	?GetNewPath@CDirPath@@QAEPADPAD@Z:PROC		; CDirPath::GetNewPath
EXTRN	@__security_check_cookie@4:PROC
EXTRN	___CxxFrameHandler3:PROC
EXTRN	??_7type_info@@6B@:QWORD			; type_info::`vftable'
EXTRN	?LogAdd@@3P6AXPADZZA:DWORD			; LogAdd
EXTRN	?LogAddTD@@3P6AXPADZZA:DWORD			; LogAddTD
EXTRN	?ItemAttribute@@3PAUITEM_ATTRIBUTE@@A:BYTE	; ItemAttribute
EXTRN	?gObj@@3PAVOBJECTSTRUCT@@A:DWORD		; gObj
EXTRN	?g_TerrainManager@@3VCTerrainManager@@A:BYTE	; g_TerrainManager
EXTRN	?lMsg@@3VCMsg@@A:BYTE				; lMsg
EXTRN	?MapC@@3PAVMapClass@@A:DWORD			; MapC
EXTRN	?gDirPath@@3VCDirPath@@A:BYTE			; gDirPath
EXTRN	___security_cookie:DWORD
EXTRN	__fltused:DWORD
_BSS	SEGMENT
?SMDFile@@3PAU_iobuf@@A DD 01H DUP (?)			; SMDFile
?TokenNumber@@3MA DD 01H DUP (?)			; TokenNumber
?TokenString@@3PADA DB 064H DUP (?)			; TokenString
?CurrentToken@@3W4SMDToken@@A DD 01H DUP (?)		; CurrentToken
_BSS	ENDS
;	COMDAT __real@437f0000
CONST	SEGMENT
__real@437f0000 DD 0437f0000r			; 255
CONST	ENDS
;	COMDAT ??_R1A@?0A@EA@CProbabilityItemBag@@8
rdata$r	SEGMENT
??_R1A@?0A@EA@CProbabilityItemBag@@8 DD FLAT:??_R0?AVCProbabilityItemBag@@@8 ; CProbabilityItemBag::`RTTI Base Class Descriptor at (0,-1,0,64)'
	DD	00H
	DD	00H
	DD	0ffffffffH
	DD	00H
	DD	040H
	DD	FLAT:??_R3CProbabilityItemBag@@8
rdata$r	ENDS
;	COMDAT ??_R2CProbabilityItemBag@@8
rdata$r	SEGMENT
??_R2CProbabilityItemBag@@8 DD FLAT:??_R1A@?0A@EA@CProbabilityItemBag@@8 ; CProbabilityItemBag::`RTTI Base Class Array'
rdata$r	ENDS
;	COMDAT ??_R3CProbabilityItemBag@@8
rdata$r	SEGMENT
??_R3CProbabilityItemBag@@8 DD 00H			; CProbabilityItemBag::`RTTI Class Hierarchy Descriptor'
	DD	00H
	DD	01H
	DD	FLAT:??_R2CProbabilityItemBag@@8
rdata$r	ENDS
;	COMDAT ??_R0?AVCProbabilityItemBag@@@8
data$r	SEGMENT
??_R0?AVCProbabilityItemBag@@@8 DD FLAT:??_7type_info@@6B@ ; CProbabilityItemBag `RTTI Type Descriptor'
	DD	00H
	DB	'.?AVCProbabilityItemBag@@', 00H
data$r	ENDS
;	COMDAT ??_R4CProbabilityItemBag@@6B@
rdata$r	SEGMENT
??_R4CProbabilityItemBag@@6B@ DD 00H			; CProbabilityItemBag::`RTTI Complete Object Locator'
	DD	00H
	DD	00H
	DD	FLAT:??_R0?AVCProbabilityItemBag@@@8
	DD	FLAT:??_R3CProbabilityItemBag@@8
rdata$r	ENDS
;	COMDAT ??_C@_0FI@CMEKAOMC@?$FL?$CFs?$FN?5Drop?5Item?5?$FL?$CFs?$FN?$FL?$CFs?$FN?5?3?5?$CI?$CFd?$CJ?$CI@
CONST	SEGMENT
??_C@_0FI@CMEKAOMC@?$FL?$CFs?$FN?5Drop?5Item?5?$FL?$CFs?$FN?$FL?$CFs?$FN?5?3?5?$CI?$CFd?$CJ?$CI@ DB '['
	DB	'%s] Drop Item [%s][%s] : (%d)(%d/%d) Item:(%s)%d Level:%d op1'
	DB	':%d op2:%d op3:%d ExOp:%d', 00H		; `string'
CONST	ENDS
;	COMDAT ??_C@_0CA@CCCPJAHG@?$FL?$CFs?$FN?5Drop?5Zen?5?$FL?$CFs?$FN?$FL?$CFs?$FN?5?$FL?$CFd?5Zen?$FN@
CONST	SEGMENT
??_C@_0CA@CCCPJAHG@?$FL?$CFs?$FN?5Drop?5Zen?5?$FL?$CFs?$FN?$FL?$CFs?$FN?5?$FL?$CFd?5Zen?$FN@ DB '['
	DB	'%s] Drop Zen [%s][%s] [%d Zen]', 00H	; `string'
CONST	ENDS
;	COMDAT ??_C@_0BF@KEOMIEDM@Load?5Script?5Error?5?$CFs@
CONST	SEGMENT
??_C@_0BF@KEOMIEDM@Load?5Script?5Error?5?$CFs@ DB 'Load Script Error %s', 00H ; `string'
CONST	ENDS
;	COMDAT ??_C@_0GL@LIMNLNHJ@?$FL?$CFs?$FN?5Eventitemnum?5?$DN?5?$CFd?0EventIte@
CONST	SEGMENT
??_C@_0GL@LIMNLNHJ@?$FL?$CFs?$FN?5Eventitemnum?5?$DN?5?$CFd?0EventIte@ DB '['
	DB	'%s] Eventitemnum = %d,EventItemLevel = %d, EventItemDropRate '
	DB	'= %d, ItemDropRate = %d, ExItemDropRate = %d', 00H ; `string'
CONST	ENDS
;	COMDAT ??_C@_0BO@PPHECIOP@ExEvent?5ItemBag?5LoadFail?5?$FL?$CFs?$FN@
CONST	SEGMENT
??_C@_0BO@PPHECIOP@ExEvent?5ItemBag?5LoadFail?5?$FL?$CFs?$FN@ DB 'ExEvent'
	DB	' ItemBag LoadFail [%s]', 00H		; `string'
CONST	ENDS
;	COMDAT ??_C@_03JBJLGPFL@end@
CONST	SEGMENT
??_C@_03JBJLGPFL@end@ DB 'end', 00H			; `string'
CONST	ENDS
;	COMDAT ??_C@_01KDCPPGHE@r@
CONST	SEGMENT
??_C@_01KDCPPGHE@r@ DB 'r', 00H				; `string'
CONST	ENDS
;	COMDAT ??_C@_0BL@CIFNLNKN@?4?4?2data?2TerrainManager?4cfg@
CONST	SEGMENT
??_C@_0BL@CIFNLNKN@?4?4?2data?2TerrainManager?4cfg@ DB '..\data\TerrainMa'
	DB	'nager.cfg', 00H				; `string'
CONST	ENDS
;	COMDAT ??_7CProbabilityItemBag@@6B@
CONST	SEGMENT
??_7CProbabilityItemBag@@6B@ DD FLAT:??_R4CProbabilityItemBag@@6B@ ; CProbabilityItemBag::`vftable'
	DD	FLAT:??_ECProbabilityItemBag@@UAEPAXI@Z
CONST	ENDS
;	COMDAT xdata$x
xdata$x	SEGMENT
__unwindtable$?ProbabilityItemBagInit@CProbabilityItemBag@@QAEXPAD@Z DD 0ffffffffH
	DD	FLAT:__unwindfunclet$?ProbabilityItemBagInit@CProbabilityItemBag@@QAEXPAD@Z$0
__ehfuncinfo$?ProbabilityItemBagInit@CProbabilityItemBag@@QAEXPAD@Z DD 019930522H
	DD	01H
	DD	FLAT:__unwindtable$?ProbabilityItemBagInit@CProbabilityItemBag@@QAEXPAD@Z
	DD	2 DUP(00H)
	DD	2 DUP(00H)
	DD	00H
	DD	01H
xdata$x	ENDS
; Function compile flags: /Odtp /ZI
; File C:\Mu Online\Mu-GS-Webzen-MC-10093\Include\ReadScript.h
;	COMDAT ?GetToken@@YA?AW4SMDToken@@XZ
_TEXT	SEGMENT
tv93 = -184						; size = 4
$T1 = -180						; size = 4
_TempString$ = -112					; size = 100
_p$ = -12						; size = 4
_ch$ = -5						; size = 1
__$ArrayPad$ = -4					; size = 4
?GetToken@@YA?AW4SMDToken@@XZ PROC			; GetToken, COMDAT

; 25   : {

  00000	55		 push	 ebp
  00001	8b ec		 mov	 ebp, esp
  00003	81 ec b8 00 00
	00		 sub	 esp, 184		; 000000b8H
  00009	a1 00 00 00 00	 mov	 eax, DWORD PTR ___security_cookie
  0000e	33 c5		 xor	 eax, ebp
  00010	89 45 fc	 mov	 DWORD PTR __$ArrayPad$[ebp], eax
  00013	53		 push	 ebx
  00014	56		 push	 esi
  00015	57		 push	 edi

; 26   : 	unsigned char ch;
; 27   : 	TokenString[0] = '\0';

  00016	b8 01 00 00 00	 mov	 eax, 1
  0001b	6b c8 00	 imul	 ecx, eax, 0
  0001e	89 8d 4c ff ff
	ff		 mov	 DWORD PTR $T1[ebp], ecx
  00024	83 bd 4c ff ff
	ff 64		 cmp	 DWORD PTR $T1[ebp], 100	; 00000064H
  0002b	73 02		 jae	 SHORT $LN31@GetToken
  0002d	eb 05		 jmp	 SHORT $LN32@GetToken
$LN31@GetToken:
  0002f	e8 00 00 00 00	 call	 ___report_rangecheckfailure
$LN32@GetToken:
  00034	8b 95 4c ff ff
	ff		 mov	 edx, DWORD PTR $T1[ebp]
  0003a	c6 82 00 00 00
	00 00		 mov	 BYTE PTR ?TokenString@@3PADA[edx], 0
$LN4@GetToken:

; 28   : 	do
; 29   : 	{
; 30   : 		if ( (ch =(unsigned char) fgetc(SMDFile)) == (BYTE)EOF) return END;

  00041	a1 00 00 00 00	 mov	 eax, DWORD PTR ?SMDFile@@3PAU_iobuf@@A
  00046	50		 push	 eax
  00047	e8 00 00 00 00	 call	 _fgetc
  0004c	83 c4 04	 add	 esp, 4
  0004f	88 45 fb	 mov	 BYTE PTR _ch$[ebp], al
  00052	0f b6 4d fb	 movzx	 ecx, BYTE PTR _ch$[ebp]
  00056	81 f9 ff 00 00
	00		 cmp	 ecx, 255		; 000000ffH
  0005c	75 0a		 jne	 SHORT $LN15@GetToken
  0005e	b8 02 00 00 00	 mov	 eax, 2
  00063	e9 d9 02 00 00	 jmp	 $LN7@GetToken
$LN15@GetToken:

; 31   : 		if (ch=='/' && (ch =(unsigned char) fgetc(SMDFile) )=='/')	

  00068	0f b6 45 fb	 movzx	 eax, BYTE PTR _ch$[ebp]
  0006c	83 f8 2f	 cmp	 eax, 47			; 0000002fH
  0006f	75 56		 jne	 SHORT $LN17@GetToken
  00071	a1 00 00 00 00	 mov	 eax, DWORD PTR ?SMDFile@@3PAU_iobuf@@A
  00076	50		 push	 eax
  00077	e8 00 00 00 00	 call	 _fgetc
  0007c	83 c4 04	 add	 esp, 4
  0007f	88 45 fb	 mov	 BYTE PTR _ch$[ebp], al
  00082	0f b6 4d fb	 movzx	 ecx, BYTE PTR _ch$[ebp]
  00086	83 f9 2f	 cmp	 ecx, 47			; 0000002fH
  00089	75 3c		 jne	 SHORT $LN17@GetToken
$LN5@GetToken:

; 32   : 		{
; 33   : 			while((ch != '\n') && (ch != (BYTE)EOF)) {			// 2003.09.02 H.J.I 수정

  0008b	0f b6 45 fb	 movzx	 eax, BYTE PTR _ch$[ebp]
  0008f	83 f8 0a	 cmp	 eax, 10			; 0000000aH
  00092	74 1e		 je	 SHORT $LN6@GetToken
  00094	0f b6 45 fb	 movzx	 eax, BYTE PTR _ch$[ebp]
  00098	3d ff 00 00 00	 cmp	 eax, 255		; 000000ffH
  0009d	74 13		 je	 SHORT $LN6@GetToken

; 34   : 				ch = (unsigned char) fgetc( SMDFile);

  0009f	a1 00 00 00 00	 mov	 eax, DWORD PTR ?SMDFile@@3PAU_iobuf@@A
  000a4	50		 push	 eax
  000a5	e8 00 00 00 00	 call	 _fgetc
  000aa	83 c4 04	 add	 esp, 4
  000ad	88 45 fb	 mov	 BYTE PTR _ch$[ebp], al

; 35   : 			}

  000b0	eb d9		 jmp	 SHORT $LN5@GetToken
$LN6@GetToken:

; 36   : 
; 37   : 			if (ch == (BYTE)EOF)

  000b2	0f b6 45 fb	 movzx	 eax, BYTE PTR _ch$[ebp]
  000b6	3d ff 00 00 00	 cmp	 eax, 255		; 000000ffH
  000bb	75 0a		 jne	 SHORT $LN17@GetToken

; 38   : 				return END;

  000bd	b8 02 00 00 00	 mov	 eax, 2
  000c2	e9 7a 02 00 00	 jmp	 $LN7@GetToken
$LN17@GetToken:

; 39   : 		}
; 40   : 	} while(  isspace(ch) );

  000c7	0f b6 45 fb	 movzx	 eax, BYTE PTR _ch$[ebp]
  000cb	50		 push	 eax
  000cc	e8 00 00 00 00	 call	 _isspace
  000d1	83 c4 04	 add	 esp, 4
  000d4	85 c0		 test	 eax, eax
  000d6	0f 85 65 ff ff
	ff		 jne	 $LN4@GetToken

; 41   : 	
; 42   : 	char *p, TempString[100];
; 43   : 	switch(ch)

  000dc	0f b6 45 fb	 movzx	 eax, BYTE PTR _ch$[ebp]
  000e0	89 85 48 ff ff
	ff		 mov	 DWORD PTR tv93[ebp], eax
  000e6	8b 8d 48 ff ff
	ff		 mov	 ecx, DWORD PTR tv93[ebp]
  000ec	83 e9 22	 sub	 ecx, 34			; 00000022H
  000ef	89 8d 48 ff ff
	ff		 mov	 DWORD PTR tv93[ebp], ecx
  000f5	83 bd 48 ff ff
	ff 5b		 cmp	 DWORD PTR tv93[ebp], 91	; 0000005bH
  000fc	0f 87 86 01 00
	00		 ja	 $LN27@GetToken
  00102	8b 95 48 ff ff
	ff		 mov	 edx, DWORD PTR tv93[ebp]
  00108	0f b6 82 00 00
	00 00		 movzx	 eax, BYTE PTR $LN33@GetToken[edx]
  0010f	ff 24 85 00 00
	00 00		 jmp	 DWORD PTR $LN34@GetToken[eax*4]
$LN18@GetToken:

; 44   : 	{	
; 45   : 	case '#':
; 46   : 		return CurrentToken = COMMAND;

  00116	c7 05 00 00 00
	00 23 00 00 00	 mov	 DWORD PTR ?CurrentToken@@3W4SMDToken@@A, 35 ; 00000023H
  00120	a1 00 00 00 00	 mov	 eax, DWORD PTR ?CurrentToken@@3W4SMDToken@@A
  00125	e9 17 02 00 00	 jmp	 $LN7@GetToken
$LN19@GetToken:

; 47   : 	case ';':
; 48   : 		return CurrentToken = SEMICOLON;

  0012a	c7 05 00 00 00
	00 3b 00 00 00	 mov	 DWORD PTR ?CurrentToken@@3W4SMDToken@@A, 59 ; 0000003bH
  00134	a1 00 00 00 00	 mov	 eax, DWORD PTR ?CurrentToken@@3W4SMDToken@@A
  00139	e9 03 02 00 00	 jmp	 $LN7@GetToken
$LN20@GetToken:

; 49   : 	case ',':
; 50   : 		return CurrentToken = COMMA;

  0013e	c7 05 00 00 00
	00 2c 00 00 00	 mov	 DWORD PTR ?CurrentToken@@3W4SMDToken@@A, 44 ; 0000002cH
  00148	a1 00 00 00 00	 mov	 eax, DWORD PTR ?CurrentToken@@3W4SMDToken@@A
  0014d	e9 ef 01 00 00	 jmp	 $LN7@GetToken
$LN21@GetToken:

; 51   : 	case '{':
; 52   : 		return CurrentToken = LP;

  00152	c7 05 00 00 00
	00 7b 00 00 00	 mov	 DWORD PTR ?CurrentToken@@3W4SMDToken@@A, 123 ; 0000007bH
  0015c	a1 00 00 00 00	 mov	 eax, DWORD PTR ?CurrentToken@@3W4SMDToken@@A
  00161	e9 db 01 00 00	 jmp	 $LN7@GetToken
$LN22@GetToken:

; 53   : 	case '}':
; 54   : 		return CurrentToken = RP;

  00166	c7 05 00 00 00
	00 7d 00 00 00	 mov	 DWORD PTR ?CurrentToken@@3W4SMDToken@@A, 125 ; 0000007dH
  00170	a1 00 00 00 00	 mov	 eax, DWORD PTR ?CurrentToken@@3W4SMDToken@@A
  00175	e9 c7 01 00 00	 jmp	 $LN7@GetToken
$LN23@GetToken:

; 55   : 	case '0':	case '1':	case '2':	case '3':	case '4':
; 56   : 	case '5':	case '6':	case '7':	case '8':	case '9':
; 57   : 	case '.':	case '-':
; 58   : 		ungetc(ch,SMDFile);

  0017a	a1 00 00 00 00	 mov	 eax, DWORD PTR ?SMDFile@@3PAU_iobuf@@A
  0017f	50		 push	 eax
  00180	0f b6 4d fb	 movzx	 ecx, BYTE PTR _ch$[ebp]
  00184	51		 push	 ecx
  00185	e8 00 00 00 00	 call	 _ungetc
  0018a	83 c4 08	 add	 esp, 8

; 59   : 		p = TempString;

  0018d	8d 45 90	 lea	 eax, DWORD PTR _TempString$[ebp]
  00190	89 45 f4	 mov	 DWORD PTR _p$[ebp], eax
$LN9@GetToken:

; 60   : 		while ( (  (ch = getc(SMDFile) ) !=(BYTE)EOF) && (ch=='.' || isdigit(ch) || ch=='-') )

  00193	a1 00 00 00 00	 mov	 eax, DWORD PTR ?SMDFile@@3PAU_iobuf@@A
  00198	50		 push	 eax
  00199	e8 00 00 00 00	 call	 _getc
  0019e	83 c4 04	 add	 esp, 4
  001a1	88 45 fb	 mov	 BYTE PTR _ch$[ebp], al
  001a4	0f b6 4d fb	 movzx	 ecx, BYTE PTR _ch$[ebp]
  001a8	81 f9 ff 00 00
	00		 cmp	 ecx, 255		; 000000ffH
  001ae	74 36		 je	 SHORT $LN10@GetToken
  001b0	0f b6 45 fb	 movzx	 eax, BYTE PTR _ch$[ebp]
  001b4	83 f8 2e	 cmp	 eax, 46			; 0000002eH
  001b7	74 1a		 je	 SHORT $LN24@GetToken
  001b9	0f b6 45 fb	 movzx	 eax, BYTE PTR _ch$[ebp]
  001bd	50		 push	 eax
  001be	e8 00 00 00 00	 call	 _isdigit
  001c3	83 c4 04	 add	 esp, 4
  001c6	85 c0		 test	 eax, eax
  001c8	75 09		 jne	 SHORT $LN24@GetToken
  001ca	0f b6 45 fb	 movzx	 eax, BYTE PTR _ch$[ebp]
  001ce	83 f8 2d	 cmp	 eax, 45			; 0000002dH
  001d1	75 13		 jne	 SHORT $LN10@GetToken
$LN24@GetToken:

; 61   : 			*p++ = ch;

  001d3	8b 45 f4	 mov	 eax, DWORD PTR _p$[ebp]
  001d6	8a 4d fb	 mov	 cl, BYTE PTR _ch$[ebp]
  001d9	88 08		 mov	 BYTE PTR [eax], cl
  001db	8b 55 f4	 mov	 edx, DWORD PTR _p$[ebp]
  001de	83 c2 01	 add	 edx, 1
  001e1	89 55 f4	 mov	 DWORD PTR _p$[ebp], edx
  001e4	eb ad		 jmp	 SHORT $LN9@GetToken
$LN10@GetToken:

; 62   : 		*p = 0;

  001e6	8b 45 f4	 mov	 eax, DWORD PTR _p$[ebp]
  001e9	c6 00 00	 mov	 BYTE PTR [eax], 0

; 63   : 		TokenNumber = (float)atof(TempString);

  001ec	8d 45 90	 lea	 eax, DWORD PTR _TempString$[ebp]
  001ef	50		 push	 eax
  001f0	e8 00 00 00 00	 call	 _atof
  001f5	83 c4 04	 add	 esp, 4
  001f8	d9 1d 00 00 00
	00		 fstp	 DWORD PTR ?TokenNumber@@3MA

; 64   : 		//			sscanf(TempString," %f ",&TokenNumber);
; 65   : 		return CurrentToken = NUMBER;

  001fe	c7 05 00 00 00
	00 01 00 00 00	 mov	 DWORD PTR ?CurrentToken@@3W4SMDToken@@A, 1
  00208	a1 00 00 00 00	 mov	 eax, DWORD PTR ?CurrentToken@@3W4SMDToken@@A
  0020d	e9 2f 01 00 00	 jmp	 $LN7@GetToken
$LN25@GetToken:

; 66   : 	case '"':
; 67   : 		p = TokenString;

  00212	c7 45 f4 00 00
	00 00		 mov	 DWORD PTR _p$[ebp], OFFSET ?TokenString@@3PADA
$LN11@GetToken:

; 68   : 		while ( (  (ch = getc(SMDFile) ) !=(BYTE)EOF) && (ch!='"'))// || isalnum(ch)) )

  00219	a1 00 00 00 00	 mov	 eax, DWORD PTR ?SMDFile@@3PAU_iobuf@@A
  0021e	50		 push	 eax
  0021f	e8 00 00 00 00	 call	 _getc
  00224	83 c4 04	 add	 esp, 4
  00227	88 45 fb	 mov	 BYTE PTR _ch$[ebp], al
  0022a	0f b6 4d fb	 movzx	 ecx, BYTE PTR _ch$[ebp]
  0022e	81 f9 ff 00 00
	00		 cmp	 ecx, 255		; 000000ffH
  00234	74 1c		 je	 SHORT $LN12@GetToken
  00236	0f b6 45 fb	 movzx	 eax, BYTE PTR _ch$[ebp]
  0023a	83 f8 22	 cmp	 eax, 34			; 00000022H
  0023d	74 13		 je	 SHORT $LN12@GetToken

; 69   : 			*p++ = ch;

  0023f	8b 45 f4	 mov	 eax, DWORD PTR _p$[ebp]
  00242	8a 4d fb	 mov	 cl, BYTE PTR _ch$[ebp]
  00245	88 08		 mov	 BYTE PTR [eax], cl
  00247	8b 55 f4	 mov	 edx, DWORD PTR _p$[ebp]
  0024a	83 c2 01	 add	 edx, 1
  0024d	89 55 f4	 mov	 DWORD PTR _p$[ebp], edx
  00250	eb c7		 jmp	 SHORT $LN11@GetToken
$LN12@GetToken:

; 70   : 		if (ch!='"')

  00252	0f b6 45 fb	 movzx	 eax, BYTE PTR _ch$[ebp]
  00256	83 f8 22	 cmp	 eax, 34			; 00000022H
  00259	74 13		 je	 SHORT $LN26@GetToken

; 71   : 			ungetc(ch,SMDFile);

  0025b	a1 00 00 00 00	 mov	 eax, DWORD PTR ?SMDFile@@3PAU_iobuf@@A
  00260	50		 push	 eax
  00261	0f b6 4d fb	 movzx	 ecx, BYTE PTR _ch$[ebp]
  00265	51		 push	 ecx
  00266	e8 00 00 00 00	 call	 _ungetc
  0026b	83 c4 08	 add	 esp, 8
$LN26@GetToken:

; 72   : 		*p = 0;

  0026e	8b 45 f4	 mov	 eax, DWORD PTR _p$[ebp]
  00271	c6 00 00	 mov	 BYTE PTR [eax], 0

; 73   : 		return CurrentToken = NAME;

  00274	c7 05 00 00 00
	00 00 00 00 00	 mov	 DWORD PTR ?CurrentToken@@3W4SMDToken@@A, 0
  0027e	a1 00 00 00 00	 mov	 eax, DWORD PTR ?CurrentToken@@3W4SMDToken@@A
  00283	e9 b9 00 00 00	 jmp	 $LN7@GetToken
$LN27@GetToken:

; 74   : 	default:
; 75   : 		if (isalpha(ch))	

  00288	0f b6 45 fb	 movzx	 eax, BYTE PTR _ch$[ebp]
  0028c	50		 push	 eax
  0028d	e8 00 00 00 00	 call	 _isalpha
  00292	83 c4 04	 add	 esp, 4
  00295	85 c0		 test	 eax, eax
  00297	0f 84 95 00 00
	00		 je	 $LN28@GetToken

; 76   : 		{
; 77   : 			p = TokenString;

  0029d	c7 45 f4 00 00
	00 00		 mov	 DWORD PTR _p$[ebp], OFFSET ?TokenString@@3PADA

; 78   : 			*p++ = ch;

  002a4	8b 45 f4	 mov	 eax, DWORD PTR _p$[ebp]
  002a7	8a 4d fb	 mov	 cl, BYTE PTR _ch$[ebp]
  002aa	88 08		 mov	 BYTE PTR [eax], cl
  002ac	8b 55 f4	 mov	 edx, DWORD PTR _p$[ebp]
  002af	83 c2 01	 add	 edx, 1
  002b2	89 55 f4	 mov	 DWORD PTR _p$[ebp], edx
$LN13@GetToken:

; 79   : 			while ( (  (ch = getc(SMDFile) ) !=(BYTE)EOF) && (ch=='.' || ch=='_' || isalnum(ch)) )

  002b5	a1 00 00 00 00	 mov	 eax, DWORD PTR ?SMDFile@@3PAU_iobuf@@A
  002ba	50		 push	 eax
  002bb	e8 00 00 00 00	 call	 _getc
  002c0	83 c4 04	 add	 esp, 4
  002c3	88 45 fb	 mov	 BYTE PTR _ch$[ebp], al
  002c6	0f b6 4d fb	 movzx	 ecx, BYTE PTR _ch$[ebp]
  002ca	81 f9 ff 00 00
	00		 cmp	 ecx, 255		; 000000ffH
  002d0	74 36		 je	 SHORT $LN14@GetToken
  002d2	0f b6 45 fb	 movzx	 eax, BYTE PTR _ch$[ebp]
  002d6	83 f8 2e	 cmp	 eax, 46			; 0000002eH
  002d9	74 1a		 je	 SHORT $LN29@GetToken
  002db	0f b6 45 fb	 movzx	 eax, BYTE PTR _ch$[ebp]
  002df	83 f8 5f	 cmp	 eax, 95			; 0000005fH
  002e2	74 11		 je	 SHORT $LN29@GetToken
  002e4	0f b6 45 fb	 movzx	 eax, BYTE PTR _ch$[ebp]
  002e8	50		 push	 eax
  002e9	e8 00 00 00 00	 call	 _isalnum
  002ee	83 c4 04	 add	 esp, 4
  002f1	85 c0		 test	 eax, eax
  002f3	74 13		 je	 SHORT $LN14@GetToken
$LN29@GetToken:

; 80   : 				*p++ = ch;

  002f5	8b 45 f4	 mov	 eax, DWORD PTR _p$[ebp]
  002f8	8a 4d fb	 mov	 cl, BYTE PTR _ch$[ebp]
  002fb	88 08		 mov	 BYTE PTR [eax], cl
  002fd	8b 55 f4	 mov	 edx, DWORD PTR _p$[ebp]
  00300	83 c2 01	 add	 edx, 1
  00303	89 55 f4	 mov	 DWORD PTR _p$[ebp], edx
  00306	eb ad		 jmp	 SHORT $LN13@GetToken
$LN14@GetToken:

; 81   : 			ungetc(ch,SMDFile);

  00308	a1 00 00 00 00	 mov	 eax, DWORD PTR ?SMDFile@@3PAU_iobuf@@A
  0030d	50		 push	 eax
  0030e	0f b6 4d fb	 movzx	 ecx, BYTE PTR _ch$[ebp]
  00312	51		 push	 ecx
  00313	e8 00 00 00 00	 call	 _ungetc
  00318	83 c4 08	 add	 esp, 8

; 82   : 			*p = 0;

  0031b	8b 45 f4	 mov	 eax, DWORD PTR _p$[ebp]
  0031e	c6 00 00	 mov	 BYTE PTR [eax], 0

; 83   : 			return CurrentToken = NAME;

  00321	c7 05 00 00 00
	00 00 00 00 00	 mov	 DWORD PTR ?CurrentToken@@3W4SMDToken@@A, 0
  0032b	a1 00 00 00 00	 mov	 eax, DWORD PTR ?CurrentToken@@3W4SMDToken@@A
  00330	eb 0f		 jmp	 SHORT $LN7@GetToken
$LN28@GetToken:

; 84   : 		}
; 85   : 		return CurrentToken = SMD_ERROR;

  00332	c7 05 00 00 00
	00 3c 00 00 00	 mov	 DWORD PTR ?CurrentToken@@3W4SMDToken@@A, 60 ; 0000003cH
  0033c	a1 00 00 00 00	 mov	 eax, DWORD PTR ?CurrentToken@@3W4SMDToken@@A
$LN7@GetToken:

; 86   : 	}
; 87   : }

  00341	5f		 pop	 edi
  00342	5e		 pop	 esi
  00343	5b		 pop	 ebx
  00344	8b 4d fc	 mov	 ecx, DWORD PTR __$ArrayPad$[ebp]
  00347	33 cd		 xor	 ecx, ebp
  00349	e8 00 00 00 00	 call	 @__security_check_cookie@4
  0034e	8b e5		 mov	 esp, ebp
  00350	5d		 pop	 ebp
  00351	c3		 ret	 0
  00352	66 90		 npad	 2
$LN34@GetToken:
  00354	00 00 00 00	 DD	 $LN25@GetToken
  00358	00 00 00 00	 DD	 $LN18@GetToken
  0035c	00 00 00 00	 DD	 $LN20@GetToken
  00360	00 00 00 00	 DD	 $LN23@GetToken
  00364	00 00 00 00	 DD	 $LN19@GetToken
  00368	00 00 00 00	 DD	 $LN21@GetToken
  0036c	00 00 00 00	 DD	 $LN22@GetToken
  00370	00 00 00 00	 DD	 $LN27@GetToken
$LN33@GetToken:
  00374	00		 DB	 0
  00375	01		 DB	 1
  00376	07		 DB	 7
  00377	07		 DB	 7
  00378	07		 DB	 7
  00379	07		 DB	 7
  0037a	07		 DB	 7
  0037b	07		 DB	 7
  0037c	07		 DB	 7
  0037d	07		 DB	 7
  0037e	02		 DB	 2
  0037f	03		 DB	 3
  00380	03		 DB	 3
  00381	07		 DB	 7
  00382	03		 DB	 3
  00383	03		 DB	 3
  00384	03		 DB	 3
  00385	03		 DB	 3
  00386	03		 DB	 3
  00387	03		 DB	 3
  00388	03		 DB	 3
  00389	03		 DB	 3
  0038a	03		 DB	 3
  0038b	03		 DB	 3
  0038c	07		 DB	 7
  0038d	04		 DB	 4
  0038e	07		 DB	 7
  0038f	07		 DB	 7
  00390	07		 DB	 7
  00391	07		 DB	 7
  00392	07		 DB	 7
  00393	07		 DB	 7
  00394	07		 DB	 7
  00395	07		 DB	 7
  00396	07		 DB	 7
  00397	07		 DB	 7
  00398	07		 DB	 7
  00399	07		 DB	 7
  0039a	07		 DB	 7
  0039b	07		 DB	 7
  0039c	07		 DB	 7
  0039d	07		 DB	 7
  0039e	07		 DB	 7
  0039f	07		 DB	 7
  003a0	07		 DB	 7
  003a1	07		 DB	 7
  003a2	07		 DB	 7
  003a3	07		 DB	 7
  003a4	07		 DB	 7
  003a5	07		 DB	 7
  003a6	07		 DB	 7
  003a7	07		 DB	 7
  003a8	07		 DB	 7
  003a9	07		 DB	 7
  003aa	07		 DB	 7
  003ab	07		 DB	 7
  003ac	07		 DB	 7
  003ad	07		 DB	 7
  003ae	07		 DB	 7
  003af	07		 DB	 7
  003b0	07		 DB	 7
  003b1	07		 DB	 7
  003b2	07		 DB	 7
  003b3	07		 DB	 7
  003b4	07		 DB	 7
  003b5	07		 DB	 7
  003b6	07		 DB	 7
  003b7	07		 DB	 7
  003b8	07		 DB	 7
  003b9	07		 DB	 7
  003ba	07		 DB	 7
  003bb	07		 DB	 7
  003bc	07		 DB	 7
  003bd	07		 DB	 7
  003be	07		 DB	 7
  003bf	07		 DB	 7
  003c0	07		 DB	 7
  003c1	07		 DB	 7
  003c2	07		 DB	 7
  003c3	07		 DB	 7
  003c4	07		 DB	 7
  003c5	07		 DB	 7
  003c6	07		 DB	 7
  003c7	07		 DB	 7
  003c8	07		 DB	 7
  003c9	07		 DB	 7
  003ca	07		 DB	 7
  003cb	07		 DB	 7
  003cc	07		 DB	 7
  003cd	05		 DB	 5
  003ce	07		 DB	 7
  003cf	06		 DB	 6
?GetToken@@YA?AW4SMDToken@@XZ ENDP			; GetToken
_TEXT	ENDS
; Function compile flags: /Odtp /ZI
;	COMDAT ??_GCProbabilityItemBag@@UAEPAXI@Z
_TEXT	SEGMENT
_this$ = -4						; size = 4
___flags$ = 8						; size = 4
??_GCProbabilityItemBag@@UAEPAXI@Z PROC			; CProbabilityItemBag::`scalar deleting destructor', COMDAT
; _this$ = ecx
  00000	55		 push	 ebp
  00001	8b ec		 mov	 ebp, esp
  00003	83 ec 44	 sub	 esp, 68			; 00000044H
  00006	53		 push	 ebx
  00007	56		 push	 esi
  00008	57		 push	 edi
  00009	89 4d fc	 mov	 DWORD PTR _this$[ebp], ecx
  0000c	8b 4d fc	 mov	 ecx, DWORD PTR _this$[ebp]
  0000f	e8 00 00 00 00	 call	 ??1CProbabilityItemBag@@UAE@XZ ; CProbabilityItemBag::~CProbabilityItemBag
  00014	8b 45 08	 mov	 eax, DWORD PTR ___flags$[ebp]
  00017	83 e0 01	 and	 eax, 1
  0001a	74 11		 je	 SHORT $LN2@scalar
  0001c	68 7c 06 00 00	 push	 1660			; 0000067cH
  00021	8b 45 fc	 mov	 eax, DWORD PTR _this$[ebp]
  00024	50		 push	 eax
  00025	e8 00 00 00 00	 call	 ??3@YAXPAXI@Z		; operator delete
  0002a	83 c4 08	 add	 esp, 8
$LN2@scalar:
  0002d	8b 45 fc	 mov	 eax, DWORD PTR _this$[ebp]
  00030	5f		 pop	 edi
  00031	5e		 pop	 esi
  00032	5b		 pop	 ebx
  00033	8b e5		 mov	 esp, ebp
  00035	5d		 pop	 ebp
  00036	c2 04 00	 ret	 4
??_GCProbabilityItemBag@@UAEPAXI@Z ENDP			; CProbabilityItemBag::`scalar deleting destructor'
_TEXT	ENDS
; Function compile flags: /Odtp /ZI
; File C:\Mu Online\Mu-GS-Webzen-MC-10093\GameServer\ProbabilityItemBag.cpp
;	COMDAT ?DropEventItem@CProbabilityItemBag@@QAEHHEEE@Z
_TEXT	SEGMENT
_iDropItemNum$1 = -64					; size = 4
_nRateCnt$2 = -60					; size = 4
_nDropItemRate$3 = -56					; size = 4
_lpObj$ = -52						; size = 4
_iExOption$ = -48					; size = 4
_iDropItemRate$ = -44					; size = 4
_iDropItemNum$ = -40					; size = 4
_iOption3$ = -36					; size = 4
_iOption2$ = -32					; size = 4
_iOption1$ = -28					; size = 4
_Y$ = -24						; size = 4
_X$ = -20						; size = 4
_iLevel$ = -16						; size = 4
_iType$ = -12						; size = 4
_fDur$ = -8						; size = 4
_this$ = -4						; size = 4
_aIndex$ = 8						; size = 4
_btMapNumber$ = 12					; size = 1
_cX$ = 16						; size = 1
_cY$ = 20						; size = 1
?DropEventItem@CProbabilityItemBag@@QAEHHEEE@Z PROC	; CProbabilityItemBag::DropEventItem, COMDAT
; _this$ = ecx

; 1076 : {

  00000	55		 push	 ebp
  00001	8b ec		 mov	 ebp, esp
  00003	81 ec 80 00 00
	00		 sub	 esp, 128		; 00000080H
  00009	53		 push	 ebx
  0000a	56		 push	 esi
  0000b	57		 push	 edi
  0000c	89 4d fc	 mov	 DWORD PTR _this$[ebp], ecx

; 1077 : 	if( !m_bLoad )					// 아이템 스크립트가 로드되지 않았다

  0000f	8b 45 fc	 mov	 eax, DWORD PTR _this$[ebp]
  00012	83 78 04 00	 cmp	 DWORD PTR [eax+4], 0
  00016	75 07		 jne	 SHORT $LN2@DropEventI

; 1078 : 		return FALSE;

  00018	33 c0		 xor	 eax, eax
  0001a	e9 fc 03 00 00	 jmp	 $LN1@DropEventI
$LN2@DropEventI:

; 1079 : 	
; 1080 : 	float fDur			= 0;

  0001f	0f 57 c0	 xorps	 xmm0, xmm0
  00022	f3 0f 11 45 f8	 movss	 DWORD PTR _fDur$[ebp], xmm0

; 1081 : 	int iType			= 0;

  00027	c7 45 f4 00 00
	00 00		 mov	 DWORD PTR _iType$[ebp], 0

; 1082 : 	int iLevel			= 0;

  0002e	c7 45 f0 00 00
	00 00		 mov	 DWORD PTR _iLevel$[ebp], 0

; 1083 : 	int X				= 0;

  00035	c7 45 ec 00 00
	00 00		 mov	 DWORD PTR _X$[ebp], 0

; 1084 : 	int Y				= 0;

  0003c	c7 45 e8 00 00
	00 00		 mov	 DWORD PTR _Y$[ebp], 0

; 1085 : 	int iOption1		= 0;

  00043	c7 45 e4 00 00
	00 00		 mov	 DWORD PTR _iOption1$[ebp], 0

; 1086 : 	int iOption2		= 0;

  0004a	c7 45 e0 00 00
	00 00		 mov	 DWORD PTR _iOption2$[ebp], 0

; 1087 : 	int iOption3		= 0;

  00051	c7 45 dc 00 00
	00 00		 mov	 DWORD PTR _iOption3$[ebp], 0

; 1088 : 	int iDropItemNum	= 0;

  00058	c7 45 d8 00 00
	00 00		 mov	 DWORD PTR _iDropItemNum$[ebp], 0

; 1089 : 	int	iDropItemRate	= 0;

  0005f	c7 45 d4 00 00
	00 00		 mov	 DWORD PTR _iDropItemRate$[ebp], 0

; 1090 : 	int iExOption		= 0;

  00066	c7 45 d0 00 00
	00 00		 mov	 DWORD PTR _iExOption$[ebp], 0

; 1091 : 	
; 1092 : 
; 1093 : 	LPOBJECTSTRUCT lpObj = &gObj[aIndex];

  0006d	69 45 08 a0 1b
	00 00		 imul	 eax, DWORD PTR _aIndex$[ebp], 7072
  00074	03 05 00 00 00
	00		 add	 eax, DWORD PTR ?gObj@@3PAVOBJECTSTRUCT@@A ; gObj
  0007a	89 45 cc	 mov	 DWORD PTR _lpObj$[ebp], eax

; 1094 : 
; 1095 : 	if( GetBagCount() > 0 )

  0007d	8b 4d fc	 mov	 ecx, DWORD PTR _this$[ebp]
  00080	e8 00 00 00 00	 call	 ?GetBagCount@CProbabilityItemBag@@AAEHXZ ; CProbabilityItemBag::GetBagCount
  00085	85 c0		 test	 eax, eax
  00087	0f 8e 89 03 00
	00		 jle	 $LN3@DropEventI

; 1096 : 	{		
; 1097 : 		int nDropItemRate = rand() % 10000;

  0008d	e8 00 00 00 00	 call	 _rand
  00092	99		 cdq
  00093	b9 10 27 00 00	 mov	 ecx, 10000		; 00002710H
  00098	f7 f9		 idiv	 ecx
  0009a	89 55 c8	 mov	 DWORD PTR _nDropItemRate$3[ebp], edx

; 1098 : 		if( m_iRateKindCount == 0 || nDropItemRate < 10000 - m_iEventItemDropRateEx[m_iRateKindCount-1] )

  0009d	8b 45 fc	 mov	 eax, DWORD PTR _this$[ebp]
  000a0	83 b8 78 06 00
	00 00		 cmp	 DWORD PTR [eax+1656], 0
  000a7	74 1d		 je	 SHORT $LN5@DropEventI
  000a9	8b 45 fc	 mov	 eax, DWORD PTR _this$[ebp]
  000ac	8b 88 78 06 00
	00		 mov	 ecx, DWORD PTR [eax+1656]
  000b2	8b 55 fc	 mov	 edx, DWORD PTR _this$[ebp]
  000b5	b8 10 27 00 00	 mov	 eax, 10000		; 00002710H
  000ba	2b 84 8a d4 05
	00 00		 sub	 eax, DWORD PTR [edx+ecx*4+1492]
  000c1	39 45 c8	 cmp	 DWORD PTR _nDropItemRate$3[ebp], eax
  000c4	7d 65		 jge	 SHORT $LN4@DropEventI
$LN5@DropEventI:

; 1099 : 		{
; 1100 : 			// 젠 드롭
; 1101 : 			MapC[lpObj->MapNumber].MoneyItemDrop( m_iDropZen, cX, cY );	

  000c6	0f b6 45 14	 movzx	 eax, BYTE PTR _cY$[ebp]
  000ca	50		 push	 eax
  000cb	0f b6 4d 10	 movzx	 ecx, BYTE PTR _cX$[ebp]
  000cf	51		 push	 ecx
  000d0	8b 55 fc	 mov	 edx, DWORD PTR _this$[ebp]
  000d3	8b 82 10 01 00
	00		 mov	 eax, DWORD PTR [edx+272]
  000d9	50		 push	 eax
  000da	8b 4d cc	 mov	 ecx, DWORD PTR _lpObj$[ebp]
  000dd	0f b6 91 09 01
	00 00		 movzx	 edx, BYTE PTR [ecx+265]
  000e4	69 ca 8c 04 05
	00		 imul	 ecx, edx, 328844
  000ea	03 0d 00 00 00
	00		 add	 ecx, DWORD PTR ?MapC@@3PAVMapClass@@A ; MapC
  000f0	e8 00 00 00 00	 call	 ?MoneyItemDrop@MapClass@@QAEHHHH@Z ; MapClass::MoneyItemDrop

; 1102 : 			
; 1103 : 			LogAddTD("[%s] Drop Zen [%s][%s] [%d Zen]", GetEventName(), lpObj->AccountID, lpObj->Name, m_iDropZen );		

  000f5	8b 45 fc	 mov	 eax, DWORD PTR _this$[ebp]
  000f8	8b 88 10 01 00
	00		 mov	 ecx, DWORD PTR [eax+272]
  000fe	51		 push	 ecx
  000ff	8b 55 cc	 mov	 edx, DWORD PTR _lpObj$[ebp]
  00102	83 c2 73	 add	 edx, 115		; 00000073H
  00105	52		 push	 edx
  00106	8b 45 cc	 mov	 eax, DWORD PTR _lpObj$[ebp]
  00109	83 c0 68	 add	 eax, 104		; 00000068H
  0010c	50		 push	 eax
  0010d	8b 4d fc	 mov	 ecx, DWORD PTR _this$[ebp]
  00110	e8 00 00 00 00	 call	 ?GetEventName@CProbabilityItemBag@@QAEPADXZ ; CProbabilityItemBag::GetEventName
  00115	50		 push	 eax
  00116	68 00 00 00 00	 push	 OFFSET ??_C@_0CA@CCCPJAHG@?$FL?$CFs?$FN?5Drop?5Zen?5?$FL?$CFs?$FN?$FL?$CFs?$FN?5?$FL?$CFd?5Zen?$FN@
  0011b	ff 15 00 00 00
	00		 call	 DWORD PTR ?LogAddTD@@3P6AXPADZZA ; LogAddTD
  00121	83 c4 14	 add	 esp, 20			; 00000014H

; 1104 : 			return FALSE;

  00124	33 c0		 xor	 eax, eax
  00126	e9 f0 02 00 00	 jmp	 $LN1@DropEventI
$LN4@DropEventI:

; 1105 : 		}
; 1106 : 
; 1107 : 		// 드롭할 아이템 검색
; 1108 : 		int nRateCnt = m_iRateKindCount;

  0012b	8b 45 fc	 mov	 eax, DWORD PTR _this$[ebp]
  0012e	8b 88 78 06 00
	00		 mov	 ecx, DWORD PTR [eax+1656]
  00134	89 4d c4	 mov	 DWORD PTR _nRateCnt$2[ebp], ecx

; 1109 : 		int iDropItemNum = GetDropItemNumber(nDropItemRate);		

  00137	8b 45 c8	 mov	 eax, DWORD PTR _nDropItemRate$3[ebp]
  0013a	50		 push	 eax
  0013b	8b 4d fc	 mov	 ecx, DWORD PTR _this$[ebp]
  0013e	e8 00 00 00 00	 call	 ?GetDropItemNumber@CProbabilityItemBag@@QAEHH@Z ; CProbabilityItemBag::GetDropItemNumber
  00143	89 45 c0	 mov	 DWORD PTR _iDropItemNum$1[ebp], eax

; 1110 : 
; 1111 : 		if( cX==0 && cY==0 )

  00146	0f b6 45 10	 movzx	 eax, BYTE PTR _cX$[ebp]
  0014a	85 c0		 test	 eax, eax
  0014c	75 24		 jne	 SHORT $LN6@DropEventI
  0014e	0f b6 45 14	 movzx	 eax, BYTE PTR _cY$[ebp]
  00152	85 c0		 test	 eax, eax
  00154	75 1c		 jne	 SHORT $LN6@DropEventI

; 1112 : 		{
; 1113 : 			X   = lpObj->X;

  00156	8b 45 cc	 mov	 eax, DWORD PTR _lpObj$[ebp]
  00159	0f bf 88 04 01
	00 00		 movsx	 ecx, WORD PTR [eax+260]
  00160	89 4d ec	 mov	 DWORD PTR _X$[ebp], ecx

; 1114 : 			Y   = lpObj->Y;

  00163	8b 45 cc	 mov	 eax, DWORD PTR _lpObj$[ebp]
  00166	0f bf 88 06 01
	00 00		 movsx	 ecx, WORD PTR [eax+262]
  0016d	89 4d e8	 mov	 DWORD PTR _Y$[ebp], ecx

; 1115 : 		}

  00170	eb 0e		 jmp	 SHORT $LN7@DropEventI
$LN6@DropEventI:

; 1116 : 		else
; 1117 : 		{
; 1118 : 			X	= cX;

  00172	0f b6 45 10	 movzx	 eax, BYTE PTR _cX$[ebp]
  00176	89 45 ec	 mov	 DWORD PTR _X$[ebp], eax

; 1119 : 			Y	= cY;

  00179	0f b6 45 14	 movzx	 eax, BYTE PTR _cY$[ebp]
  0017d	89 45 e8	 mov	 DWORD PTR _Y$[ebp], eax
$LN7@DropEventI:

; 1120 : 		}
; 1121 : 		
; 1122 : 		// 레벨
; 1123 : 		iLevel	= GetLevel( iDropItemNum );

  00180	8b 45 c0	 mov	 eax, DWORD PTR _iDropItemNum$1[ebp]
  00183	50		 push	 eax
  00184	8b 4d fc	 mov	 ecx, DWORD PTR _this$[ebp]
  00187	e8 00 00 00 00	 call	 ?GetLevel@CProbabilityItemBag@@AAEEH@Z ; CProbabilityItemBag::GetLevel
  0018c	0f b6 c8	 movzx	 ecx, al
  0018f	89 4d f0	 mov	 DWORD PTR _iLevel$[ebp], ecx

; 1124 : 		iType	= ItemGetNumberMake( BagObject[iDropItemNum].m_type, BagObject[iDropItemNum].m_index );

  00192	8b 45 c0	 mov	 eax, DWORD PTR _iDropItemNum$1[ebp]
  00195	8b 4d fc	 mov	 ecx, DWORD PTR _this$[ebp]
  00198	0f b6 94 c1 29
	01 00 00	 movzx	 edx, BYTE PTR [ecx+eax*8+297]
  001a0	52		 push	 edx
  001a1	8b 45 c0	 mov	 eax, DWORD PTR _iDropItemNum$1[ebp]
  001a4	8b 4d fc	 mov	 ecx, DWORD PTR _this$[ebp]
  001a7	0f b6 94 c1 28
	01 00 00	 movzx	 edx, BYTE PTR [ecx+eax*8+296]
  001af	52		 push	 edx
  001b0	e8 00 00 00 00	 call	 ?ItemGetNumberMake@@YAHHH@Z ; ItemGetNumberMake
  001b5	83 c4 08	 add	 esp, 8
  001b8	89 45 f4	 mov	 DWORD PTR _iType$[ebp], eax

; 1125 : 
; 1126 : 		if( iType == -1 )

  001bb	83 7d f4 ff	 cmp	 DWORD PTR _iType$[ebp], -1
  001bf	75 07		 jne	 SHORT $LN8@DropEventI

; 1127 : 		{
; 1128 : 			return FALSE;

  001c1	33 c0		 xor	 eax, eax
  001c3	e9 53 02 00 00	 jmp	 $LN1@DropEventI
$LN8@DropEventI:

; 1129 : 		}
; 1130 : 
; 1131 : #ifdef UPDATE_PROBABILITYiTEMBAG_ADD_SETITEM_20080329	// 셋트아이템일 경우
; 1132 : 		if(BagObject[iDropItemNum].m_isSetItem == 1)
; 1133 : 		{
; 1134 : 			DropEventSetItem(aIndex, iType, btMapNumber, X, Y);
; 1135 : 			return TRUE;
; 1136 : 		}
; 1137 : #endif	// UPDATE_PROBABILITYiTEMBAG_ADD_SETITEM_20080329
; 1138 : 
; 1139 : 		if( BagObject[iDropItemNum].m_isskill )

  001c8	8b 45 c0	 mov	 eax, DWORD PTR _iDropItemNum$1[ebp]
  001cb	8b 4d fc	 mov	 ecx, DWORD PTR _this$[ebp]
  001ce	0f b6 94 c1 2c
	01 00 00	 movzx	 edx, BYTE PTR [ecx+eax*8+300]
  001d6	85 d2		 test	 edx, edx
  001d8	74 07		 je	 SHORT $LN9@DropEventI

; 1140 : 		{	// 스킬이 붙을수 있으면
; 1141 : 			iOption1 = 1;

  001da	c7 45 e4 01 00
	00 00		 mov	 DWORD PTR _iOption1$[ebp], 1
$LN9@DropEventI:

; 1142 : 		}
; 1143 : 
; 1144 : 		if( BagObject[iDropItemNum].m_isluck )

  001e1	8b 45 c0	 mov	 eax, DWORD PTR _iDropItemNum$1[ebp]
  001e4	8b 4d fc	 mov	 ecx, DWORD PTR _this$[ebp]
  001e7	0f b6 94 c1 2d
	01 00 00	 movzx	 edx, BYTE PTR [ecx+eax*8+301]
  001ef	85 d2		 test	 edx, edx
  001f1	74 23		 je	 SHORT $LN11@DropEventI

; 1145 : 		{	
; 1146 : 			// 행운이 붙을수 있으면
; 1147 : 			iOption2 = 0;

  001f3	c7 45 e0 00 00
	00 00		 mov	 DWORD PTR _iOption2$[ebp], 0

; 1148 : 			if( ( rand() % 2 ) == 0 )

  001fa	e8 00 00 00 00	 call	 _rand
  001ff	25 01 00 00 80	 and	 eax, -2147483647	; 80000001H
  00204	79 05		 jns	 SHORT $LN21@DropEventI
  00206	48		 dec	 eax
  00207	83 c8 fe	 or	 eax, -2			; fffffffeH
  0020a	40		 inc	 eax
$LN21@DropEventI:
  0020b	85 c0		 test	 eax, eax
  0020d	75 07		 jne	 SHORT $LN11@DropEventI

; 1149 : 			{
; 1150 : 				iOption2 = 1;

  0020f	c7 45 e0 01 00
	00 00		 mov	 DWORD PTR _iOption2$[ebp], 1
$LN11@DropEventI:

; 1151 : 			}
; 1152 : 		}
; 1153 : 		
; 1154 : #ifdef UPDATE_PROBABILITYITEMBAG_ADDOPTION_VALUE_20090526
; 1155 : 		if(BagObject[iDropItemNum].m_isoption == 1)
; 1156 : 		{
; 1157 : 			if( BagObject[iDropItemNum].m_isoption )
; 1158 : 			{
; 1159 : 				if( ( rand() % 5 ) < 1 )
; 1160 : 				{
; 1161 : 					iOption3 = 3;
; 1162 : 				}
; 1163 : 				else 
; 1164 : 				{
; 1165 : 					iOption3 = ( rand() % 3 );
; 1166 : 				}
; 1167 : 			}
; 1168 : 		}
; 1169 : 		else if( BagObject[iDropItemNum].m_isoption > 1 )
; 1170 : 		{
; 1171 : 			// addoption 값에 따라 option값을 넣어준다.
; 1172 : 			iOption3 = BagObject[iDropItemNum].m_isoption / 4;
; 1173 : 		}
; 1174 : #else	// UPDATE_PROBABILITYITEMBAG_ADDOPTION_VALUE_20090526
; 1175 : 		if( BagObject[iDropItemNum].m_isoption )

  00216	8b 45 c0	 mov	 eax, DWORD PTR _iDropItemNum$1[ebp]
  00219	8b 4d fc	 mov	 ecx, DWORD PTR _this$[ebp]
  0021c	0f b6 94 c1 2e
	01 00 00	 movzx	 edx, BYTE PTR [ecx+eax*8+302]
  00224	85 d2		 test	 edx, edx
  00226	74 2b		 je	 SHORT $LN14@DropEventI

; 1176 : 		{
; 1177 : 			if( ( rand() % 5 ) < 1 )

  00228	e8 00 00 00 00	 call	 _rand
  0022d	99		 cdq
  0022e	b9 05 00 00 00	 mov	 ecx, 5
  00233	f7 f9		 idiv	 ecx
  00235	83 fa 01	 cmp	 edx, 1
  00238	7d 09		 jge	 SHORT $LN13@DropEventI

; 1178 : 			{
; 1179 : 				iOption3 = 3;

  0023a	c7 45 dc 03 00
	00 00		 mov	 DWORD PTR _iOption3$[ebp], 3

; 1180 : 			}

  00241	eb 10		 jmp	 SHORT $LN14@DropEventI
$LN13@DropEventI:

; 1181 : 			else 
; 1182 : 			{
; 1183 : 				iOption3 = ( rand() % 3 );

  00243	e8 00 00 00 00	 call	 _rand
  00248	99		 cdq
  00249	b9 03 00 00 00	 mov	 ecx, 3
  0024e	f7 f9		 idiv	 ecx
  00250	89 55 dc	 mov	 DWORD PTR _iOption3$[ebp], edx
$LN14@DropEventI:

; 1184 : 			}
; 1185 : 		}
; 1186 : #endif	// UPDATE_PROBABILITYITEMBAG_ADDOPTION_VALUE_20090526
; 1187 : 
; 1188 : 		if( BagObject[iDropItemNum].m_isexitem )

  00253	8b 45 c0	 mov	 eax, DWORD PTR _iDropItemNum$1[ebp]
  00256	8b 4d fc	 mov	 ecx, DWORD PTR _this$[ebp]
  00259	0f b6 94 c1 2f
	01 00 00	 movzx	 edx, BYTE PTR [ecx+eax*8+303]
  00261	85 d2		 test	 edx, edx
  00263	74 25		 je	 SHORT $LN15@DropEventI

; 1189 : 		{
; 1190 : 			iExOption = NewOptionRand( 0 );

  00265	6a 00		 push	 0
  00267	e8 00 00 00 00	 call	 ?NewOptionRand@@YAEH@Z	; NewOptionRand
  0026c	83 c4 04	 add	 esp, 4
  0026f	0f b6 c0	 movzx	 eax, al
  00272	89 45 d0	 mov	 DWORD PTR _iExOption$[ebp], eax

; 1191 : 			// 액설런트 아이템은 행운이 붙지 않는다.
; 1192 : 			iOption2 = 0;

  00275	c7 45 e0 00 00
	00 00		 mov	 DWORD PTR _iOption2$[ebp], 0

; 1193 : 			iOption1 = 1;

  0027c	c7 45 e4 01 00
	00 00		 mov	 DWORD PTR _iOption1$[ebp], 1

; 1194 : 
; 1195 : 			// 레벨은 0이다.
; 1196 : 			iLevel	= 0;

  00283	c7 45 f0 00 00
	00 00		 mov	 DWORD PTR _iLevel$[ebp], 0
$LN15@DropEventI:

; 1197 : 		}
; 1198 : 
; 1199 : 		// 혼석, 축석, 영석, 창석은 레벨이 없게
; 1200 : 		if( ( iType == MAKE_ITEMNUM( 12, 15 ) ) ||
; 1201 : 			( iType == MAKE_ITEMNUM( 14, 13 ) ) ||
; 1202 : 			( iType == MAKE_ITEMNUM( 14, 14 ) ) ||

  0028a	6a 0f		 push	 15			; 0000000fH
  0028c	6a 0c		 push	 12			; 0000000cH
  0028e	e8 00 00 00 00	 call	 ?MakeItemNumber@@YAHHH@Z ; MakeItemNumber
  00293	83 c4 08	 add	 esp, 8
  00296	39 45 f4	 cmp	 DWORD PTR _iType$[ebp], eax
  00299	74 33		 je	 SHORT $LN17@DropEventI
  0029b	6a 0d		 push	 13			; 0000000dH
  0029d	6a 0e		 push	 14			; 0000000eH
  0029f	e8 00 00 00 00	 call	 ?MakeItemNumber@@YAHHH@Z ; MakeItemNumber
  002a4	83 c4 08	 add	 esp, 8
  002a7	39 45 f4	 cmp	 DWORD PTR _iType$[ebp], eax
  002aa	74 22		 je	 SHORT $LN17@DropEventI
  002ac	6a 0e		 push	 14			; 0000000eH
  002ae	6a 0e		 push	 14			; 0000000eH
  002b0	e8 00 00 00 00	 call	 ?MakeItemNumber@@YAHHH@Z ; MakeItemNumber
  002b5	83 c4 08	 add	 esp, 8
  002b8	39 45 f4	 cmp	 DWORD PTR _iType$[ebp], eax
  002bb	74 11		 je	 SHORT $LN17@DropEventI
  002bd	6a 16		 push	 22			; 00000016H
  002bf	6a 0e		 push	 14			; 0000000eH
  002c1	e8 00 00 00 00	 call	 ?MakeItemNumber@@YAHHH@Z ; MakeItemNumber
  002c6	83 c4 08	 add	 esp, 8
  002c9	39 45 f4	 cmp	 DWORD PTR _iType$[ebp], eax
  002cc	75 1c		 jne	 SHORT $LN16@DropEventI
$LN17@DropEventI:

; 1203 : 			( iType == MAKE_ITEMNUM( 14, 22 ) ))
; 1204 : 		{	
; 1205 : 			iOption1 = 0; 

  002ce	c7 45 e4 00 00
	00 00		 mov	 DWORD PTR _iOption1$[ebp], 0

; 1206 : 			iOption2 = 0;

  002d5	c7 45 e0 00 00
	00 00		 mov	 DWORD PTR _iOption2$[ebp], 0

; 1207 : 			iOption3 = 0;

  002dc	c7 45 dc 00 00
	00 00		 mov	 DWORD PTR _iOption3$[ebp], 0

; 1208 : 			iLevel   = 0;

  002e3	c7 45 f0 00 00
	00 00		 mov	 DWORD PTR _iLevel$[ebp], 0
$LN16@DropEventI:

; 1209 : 		}
; 1210 : 
; 1211 : 		if( ( iType == MAKE_ITEMNUM( 13, 0 ) ) ||
; 1212 : 			( iType == MAKE_ITEMNUM( 13, 1 ) ) ||				
; 1213 : 			( iType == MAKE_ITEMNUM( 13, 2 ) ) ||
; 1214 : 			( iType == MAKE_ITEMNUM( 13, 8 ) ) ||
; 1215 : 			( iType == MAKE_ITEMNUM( 13, 9 ) ) ||
; 1216 : 			( iType == MAKE_ITEMNUM( 13, 12) ) ||

  002ea	6a 00		 push	 0
  002ec	6a 0d		 push	 13			; 0000000dH
  002ee	e8 00 00 00 00	 call	 ?MakeItemNumber@@YAHHH@Z ; MakeItemNumber
  002f3	83 c4 08	 add	 esp, 8
  002f6	39 45 f4	 cmp	 DWORD PTR _iType$[ebp], eax
  002f9	74 66		 je	 SHORT $LN19@DropEventI
  002fb	6a 01		 push	 1
  002fd	6a 0d		 push	 13			; 0000000dH
  002ff	e8 00 00 00 00	 call	 ?MakeItemNumber@@YAHHH@Z ; MakeItemNumber
  00304	83 c4 08	 add	 esp, 8
  00307	39 45 f4	 cmp	 DWORD PTR _iType$[ebp], eax
  0030a	74 55		 je	 SHORT $LN19@DropEventI
  0030c	6a 02		 push	 2
  0030e	6a 0d		 push	 13			; 0000000dH
  00310	e8 00 00 00 00	 call	 ?MakeItemNumber@@YAHHH@Z ; MakeItemNumber
  00315	83 c4 08	 add	 esp, 8
  00318	39 45 f4	 cmp	 DWORD PTR _iType$[ebp], eax
  0031b	74 44		 je	 SHORT $LN19@DropEventI
  0031d	6a 08		 push	 8
  0031f	6a 0d		 push	 13			; 0000000dH
  00321	e8 00 00 00 00	 call	 ?MakeItemNumber@@YAHHH@Z ; MakeItemNumber
  00326	83 c4 08	 add	 esp, 8
  00329	39 45 f4	 cmp	 DWORD PTR _iType$[ebp], eax
  0032c	74 33		 je	 SHORT $LN19@DropEventI
  0032e	6a 09		 push	 9
  00330	6a 0d		 push	 13			; 0000000dH
  00332	e8 00 00 00 00	 call	 ?MakeItemNumber@@YAHHH@Z ; MakeItemNumber
  00337	83 c4 08	 add	 esp, 8
  0033a	39 45 f4	 cmp	 DWORD PTR _iType$[ebp], eax
  0033d	74 22		 je	 SHORT $LN19@DropEventI
  0033f	6a 0c		 push	 12			; 0000000cH
  00341	6a 0d		 push	 13			; 0000000dH
  00343	e8 00 00 00 00	 call	 ?MakeItemNumber@@YAHHH@Z ; MakeItemNumber
  00348	83 c4 08	 add	 esp, 8
  0034b	39 45 f4	 cmp	 DWORD PTR _iType$[ebp], eax
  0034e	74 11		 je	 SHORT $LN19@DropEventI
  00350	6a 0d		 push	 13			; 0000000dH
  00352	6a 0d		 push	 13			; 0000000dH
  00354	e8 00 00 00 00	 call	 ?MakeItemNumber@@YAHHH@Z ; MakeItemNumber
  00359	83 c4 08	 add	 esp, 8
  0035c	39 45 f4	 cmp	 DWORD PTR _iType$[ebp], eax
  0035f	75 14		 jne	 SHORT $LN18@DropEventI
$LN19@DropEventI:

; 1217 : 			( iType == MAKE_ITEMNUM( 13, 13 ) )
; 1218 : #if GAME_VERSION >= G_V_S2_2
; 1219 : 			|| ( iType == MAKE_ITEMNUM( 13, 38 ) ) ||
; 1220 : 			( iType == MAKE_ITEMNUM( 13, 39 ) ) ||
; 1221 : 			( iType == MAKE_ITEMNUM( 13, 40 ) ) ||
; 1222 : 			( iType == MAKE_ITEMNUM( 13, 41 ) )
; 1223 : #endif
; 1224 : 			)
; 1225 : 		{	// 반지류는 레벨 0
; 1226 : 			iLevel   = 0;

  00361	c7 45 f0 00 00
	00 00		 mov	 DWORD PTR _iLevel$[ebp], 0

; 1227 : 
; 1228 : 			// 내구도는 255
; 1229 : 			fDur	= 255;

  00368	f3 0f 10 05 00
	00 00 00	 movss	 xmm0, DWORD PTR __real@437f0000
  00370	f3 0f 11 45 f8	 movss	 DWORD PTR _fDur$[ebp], xmm0
$LN18@DropEventI:

; 1230 : 		}
; 1231 : 
; 1232 : 		ItemSerialCreateSend( lpObj->m_Index, btMapNumber, (BYTE)X, (BYTE)Y, iType, iLevel, (BYTE)fDur, iOption1, iOption2, iOption3, lpObj->m_Index, iExOption );

  00375	6a 00		 push	 0
  00377	6a 00		 push	 0
  00379	0f b6 45 d0	 movzx	 eax, BYTE PTR _iExOption$[ebp]
  0037d	50		 push	 eax
  0037e	8b 4d cc	 mov	 ecx, DWORD PTR _lpObj$[ebp]
  00381	8b 11		 mov	 edx, DWORD PTR [ecx]
  00383	52		 push	 edx
  00384	0f b6 45 dc	 movzx	 eax, BYTE PTR _iOption3$[ebp]
  00388	50		 push	 eax
  00389	0f b6 4d e0	 movzx	 ecx, BYTE PTR _iOption2$[ebp]
  0038d	51		 push	 ecx
  0038e	0f b6 55 e4	 movzx	 edx, BYTE PTR _iOption1$[ebp]
  00392	52		 push	 edx
  00393	f3 0f 2c 45 f8	 cvttss2si eax, DWORD PTR _fDur$[ebp]
  00398	0f b6 c8	 movzx	 ecx, al
  0039b	51		 push	 ecx
  0039c	0f b6 55 f0	 movzx	 edx, BYTE PTR _iLevel$[ebp]
  003a0	52		 push	 edx
  003a1	8b 45 f4	 mov	 eax, DWORD PTR _iType$[ebp]
  003a4	50		 push	 eax
  003a5	0f b6 4d e8	 movzx	 ecx, BYTE PTR _Y$[ebp]
  003a9	51		 push	 ecx
  003aa	0f b6 55 ec	 movzx	 edx, BYTE PTR _X$[ebp]
  003ae	52		 push	 edx
  003af	0f b6 45 0c	 movzx	 eax, BYTE PTR _btMapNumber$[ebp]
  003b3	50		 push	 eax
  003b4	8b 4d cc	 mov	 ecx, DWORD PTR _lpObj$[ebp]
  003b7	8b 11		 mov	 edx, DWORD PTR [ecx]
  003b9	52		 push	 edx
  003ba	e8 00 00 00 00	 call	 ?ItemSerialCreateSend@@YAXHEEEHEEEEEHEEH@Z ; ItemSerialCreateSend
  003bf	83 c4 38	 add	 esp, 56			; 00000038H

; 1233 : 		LogAddTD( "[%s] Drop Item [%s][%s] : (%d)(%d/%d) Item:(%s)%d Level:%d op1:%d op2:%d op3:%d ExOp:%d",

  003c2	8b 45 d0	 mov	 eax, DWORD PTR _iExOption$[ebp]
  003c5	50		 push	 eax
  003c6	8b 4d dc	 mov	 ecx, DWORD PTR _iOption3$[ebp]
  003c9	51		 push	 ecx
  003ca	8b 55 e0	 mov	 edx, DWORD PTR _iOption2$[ebp]
  003cd	52		 push	 edx
  003ce	8b 45 e4	 mov	 eax, DWORD PTR _iOption1$[ebp]
  003d1	50		 push	 eax
  003d2	8b 4d f0	 mov	 ecx, DWORD PTR _iLevel$[ebp]
  003d5	51		 push	 ecx
  003d6	8b 55 f4	 mov	 edx, DWORD PTR _iType$[ebp]
  003d9	52		 push	 edx
  003da	6b 45 f4 6c	 imul	 eax, DWORD PTR _iType$[ebp], 108
  003de	05 00 00 00 00	 add	 eax, OFFSET ?ItemAttribute@@3PAUITEM_ATTRIBUTE@@A ; ItemAttribute
  003e3	50		 push	 eax
  003e4	8b 4d e8	 mov	 ecx, DWORD PTR _Y$[ebp]
  003e7	51		 push	 ecx
  003e8	8b 55 ec	 mov	 edx, DWORD PTR _X$[ebp]
  003eb	52		 push	 edx
  003ec	0f b6 45 0c	 movzx	 eax, BYTE PTR _btMapNumber$[ebp]
  003f0	50		 push	 eax
  003f1	8b 4d cc	 mov	 ecx, DWORD PTR _lpObj$[ebp]
  003f4	83 c1 73	 add	 ecx, 115		; 00000073H
  003f7	51		 push	 ecx
  003f8	8b 55 cc	 mov	 edx, DWORD PTR _lpObj$[ebp]
  003fb	83 c2 68	 add	 edx, 104		; 00000068H
  003fe	52		 push	 edx
  003ff	8b 4d fc	 mov	 ecx, DWORD PTR _this$[ebp]
  00402	e8 00 00 00 00	 call	 ?GetEventName@CProbabilityItemBag@@QAEPADXZ ; CProbabilityItemBag::GetEventName
  00407	50		 push	 eax
  00408	68 00 00 00 00	 push	 OFFSET ??_C@_0FI@CMEKAOMC@?$FL?$CFs?$FN?5Drop?5Item?5?$FL?$CFs?$FN?$FL?$CFs?$FN?5?3?5?$CI?$CFd?$CJ?$CI@
  0040d	ff 15 00 00 00
	00		 call	 DWORD PTR ?LogAddTD@@3P6AXPADZZA ; LogAddTD
  00413	83 c4 38	 add	 esp, 56			; 00000038H
$LN3@DropEventI:

; 1234 : 				GetEventName(),
; 1235 : 				lpObj->AccountID, lpObj->Name,  
; 1236 : 				btMapNumber, X, Y,
; 1237 : 				ItemAttribute[iType].Name, iType, iLevel, iOption1, iOption2, iOption3, iExOption );
; 1238 : 
; 1239 : 	}	
; 1240 : 	return TRUE;

  00416	b8 01 00 00 00	 mov	 eax, 1
$LN1@DropEventI:

; 1241 : }

  0041b	5f		 pop	 edi
  0041c	5e		 pop	 esi
  0041d	5b		 pop	 ebx
  0041e	8b e5		 mov	 esp, ebp
  00420	5d		 pop	 ebp
  00421	c2 10 00	 ret	 16			; 00000010H
?DropEventItem@CProbabilityItemBag@@QAEHHEEE@Z ENDP	; CProbabilityItemBag::DropEventItem
_TEXT	ENDS
; Function compile flags: /Odtp /ZI
; File C:\Mu Online\Mu-GS-Webzen-MC-10093\GameServer\ProbabilityItemBag.cpp
;	COMDAT ?GetEventName@CProbabilityItemBag@@QAEPADXZ
_TEXT	SEGMENT
_this$ = -4						; size = 4
?GetEventName@CProbabilityItemBag@@QAEPADXZ PROC	; CProbabilityItemBag::GetEventName, COMDAT
; _this$ = ecx

; 341  : {

  00000	55		 push	 ebp
  00001	8b ec		 mov	 ebp, esp
  00003	83 ec 44	 sub	 esp, 68			; 00000044H
  00006	53		 push	 ebx
  00007	56		 push	 esi
  00008	57		 push	 edi
  00009	89 4d fc	 mov	 DWORD PTR _this$[ebp], ecx

; 342  : 	return m_sEventName;

  0000c	8b 45 fc	 mov	 eax, DWORD PTR _this$[ebp]
  0000f	83 c0 08	 add	 eax, 8

; 343  : }

  00012	5f		 pop	 edi
  00013	5e		 pop	 esi
  00014	5b		 pop	 ebx
  00015	8b e5		 mov	 esp, ebp
  00017	5d		 pop	 ebp
  00018	c3		 ret	 0
?GetEventName@CProbabilityItemBag@@QAEPADXZ ENDP	; CProbabilityItemBag::GetEventName
_TEXT	ENDS
; Function compile flags: /Odtp /ZI
; File C:\Mu Online\Mu-GS-Webzen-MC-10093\GameServer\ProbabilityItemBag.cpp
;	COMDAT ?GetDropItemNumber@CProbabilityItemBag@@QAEHH@Z
_TEXT	SEGMENT
tv70 = -84						; size = 4
_ItemRateIndexPos$ = -16				; size = 4
_iDropItemNum$ = -12					; size = 4
_nRateCnt$ = -8						; size = 4
_this$ = -4						; size = 4
_nDropItemRate$ = 8					; size = 4
?GetDropItemNumber@CProbabilityItemBag@@QAEHH@Z PROC	; CProbabilityItemBag::GetDropItemNumber, COMDAT
; _this$ = ecx

; 313  : {

  00000	55		 push	 ebp
  00001	8b ec		 mov	 ebp, esp
  00003	83 ec 54	 sub	 esp, 84			; 00000054H
  00006	53		 push	 ebx
  00007	56		 push	 esi
  00008	57		 push	 edi
  00009	89 4d fc	 mov	 DWORD PTR _this$[ebp], ecx

; 314  : 	int nRateCnt = m_iRateKindCount;

  0000c	8b 45 fc	 mov	 eax, DWORD PTR _this$[ebp]
  0000f	8b 88 78 06 00
	00		 mov	 ecx, DWORD PTR [eax+1656]
  00015	89 4d f8	 mov	 DWORD PTR _nRateCnt$[ebp], ecx

; 315  : 	int iDropItemNum = 0;

  00018	c7 45 f4 00 00
	00 00		 mov	 DWORD PTR _iDropItemNum$[ebp], 0

; 316  : 	int ItemRateIndexPos = GetBagCount() -1;

  0001f	8b 4d fc	 mov	 ecx, DWORD PTR _this$[ebp]
  00022	e8 00 00 00 00	 call	 ?GetBagCount@CProbabilityItemBag@@AAEHXZ ; CProbabilityItemBag::GetBagCount
  00027	83 e8 01	 sub	 eax, 1
  0002a	89 45 f0	 mov	 DWORD PTR _ItemRateIndexPos$[ebp], eax
$LN2@GetDropIte:

; 317  : 	while(nRateCnt--)

  0002d	8b 45 f8	 mov	 eax, DWORD PTR _nRateCnt$[ebp]
  00030	89 45 ac	 mov	 DWORD PTR tv70[ebp], eax
  00033	8b 4d f8	 mov	 ecx, DWORD PTR _nRateCnt$[ebp]
  00036	83 e9 01	 sub	 ecx, 1
  00039	89 4d f8	 mov	 DWORD PTR _nRateCnt$[ebp], ecx
  0003c	83 7d ac 00	 cmp	 DWORD PTR tv70[ebp], 0
  00040	0f 84 88 00 00
	00		 je	 $LN3@GetDropIte

; 318  : 	{
; 319  : 		// 아이템 번호 검색
; 320  : 		if(nRateCnt == 0)

  00046	83 7d f8 00	 cmp	 DWORD PTR _nRateCnt$[ebp], 0
  0004a	75 1f		 jne	 SHORT $LN4@GetDropIte

; 321  : 		{
; 322  : 			iDropItemNum = ( rand() % m_iDropRatePerItemCount[0] );

  0004c	e8 00 00 00 00	 call	 _rand
  00051	b9 04 00 00 00	 mov	 ecx, 4
  00056	6b c9 00	 imul	 ecx, ecx, 0
  00059	8b 75 fc	 mov	 esi, DWORD PTR _this$[ebp]
  0005c	99		 cdq
  0005d	f7 bc 0e 28 06
	00 00		 idiv	 DWORD PTR [esi+ecx+1576]
  00064	89 55 f4	 mov	 DWORD PTR _iDropItemNum$[ebp], edx

; 323  : 			break;

  00067	eb 65		 jmp	 SHORT $LN3@GetDropIte

; 324  : 		}

  00069	eb 4b		 jmp	 SHORT $LN5@GetDropIte
$LN4@GetDropIte:

; 325  : 		else if(nDropItemRate >= 10000 - m_iEventItemDropRateEx[nRateCnt] && nDropItemRate < 10000 - m_iEventItemDropRateEx[nRateCnt-1])

  0006b	8b 45 f8	 mov	 eax, DWORD PTR _nRateCnt$[ebp]
  0006e	8b 4d fc	 mov	 ecx, DWORD PTR _this$[ebp]
  00071	ba 10 27 00 00	 mov	 edx, 10000		; 00002710H
  00076	2b 94 81 d8 05
	00 00		 sub	 edx, DWORD PTR [ecx+eax*4+1496]
  0007d	39 55 08	 cmp	 DWORD PTR _nDropItemRate$[ebp], edx
  00080	7c 34		 jl	 SHORT $LN5@GetDropIte
  00082	8b 45 f8	 mov	 eax, DWORD PTR _nRateCnt$[ebp]
  00085	8b 4d fc	 mov	 ecx, DWORD PTR _this$[ebp]
  00088	ba 10 27 00 00	 mov	 edx, 10000		; 00002710H
  0008d	2b 94 81 d4 05
	00 00		 sub	 edx, DWORD PTR [ecx+eax*4+1492]
  00094	39 55 08	 cmp	 DWORD PTR _nDropItemRate$[ebp], edx
  00097	7d 1d		 jge	 SHORT $LN5@GetDropIte

; 326  : 		{
; 327  : 			// 아이템 드롭
; 328  : 			iDropItemNum = ItemRateIndexPos - ( rand() % m_iDropRatePerItemCount[nRateCnt] );

  00099	e8 00 00 00 00	 call	 _rand
  0009e	8b 4d f8	 mov	 ecx, DWORD PTR _nRateCnt$[ebp]
  000a1	8b 75 fc	 mov	 esi, DWORD PTR _this$[ebp]
  000a4	99		 cdq
  000a5	f7 bc 8e 28 06
	00 00		 idiv	 DWORD PTR [esi+ecx*4+1576]
  000ac	8b 45 f0	 mov	 eax, DWORD PTR _ItemRateIndexPos$[ebp]
  000af	2b c2		 sub	 eax, edx
  000b1	89 45 f4	 mov	 DWORD PTR _iDropItemNum$[ebp], eax

; 329  : 			break;

  000b4	eb 18		 jmp	 SHORT $LN3@GetDropIte
$LN5@GetDropIte:

; 330  : 		}	
; 331  : 		
; 332  : 		
; 333  : 		ItemRateIndexPos -= m_iDropRatePerItemCount[nRateCnt];

  000b6	8b 45 f8	 mov	 eax, DWORD PTR _nRateCnt$[ebp]
  000b9	8b 4d fc	 mov	 ecx, DWORD PTR _this$[ebp]
  000bc	8b 55 f0	 mov	 edx, DWORD PTR _ItemRateIndexPos$[ebp]
  000bf	2b 94 81 28 06
	00 00		 sub	 edx, DWORD PTR [ecx+eax*4+1576]
  000c6	89 55 f0	 mov	 DWORD PTR _ItemRateIndexPos$[ebp], edx

; 334  : 	}

  000c9	e9 5f ff ff ff	 jmp	 $LN2@GetDropIte
$LN3@GetDropIte:

; 335  : 
; 336  : 	return iDropItemNum;

  000ce	8b 45 f4	 mov	 eax, DWORD PTR _iDropItemNum$[ebp]

; 337  : }

  000d1	5f		 pop	 edi
  000d2	5e		 pop	 esi
  000d3	5b		 pop	 ebx
  000d4	8b e5		 mov	 esp, ebp
  000d6	5d		 pop	 ebp
  000d7	c2 04 00	 ret	 4
?GetDropItemNumber@CProbabilityItemBag@@QAEHH@Z ENDP	; CProbabilityItemBag::GetDropItemNumber
_TEXT	ENDS
; Function compile flags: /Odtp /ZI
; File C:\Mu Online\Mu-GS-Webzen-MC-10093\GameServer\ProbabilityItemBag.cpp
;	COMDAT ?LoadItem@CProbabilityItemBag@@QAEXPAD@Z
_TEXT	SEGMENT
tv94 = -364						; size = 4
tv95 = -360						; size = 4
_msg$1 = -292						; size = 255
_index$2 = -36						; size = 4
_type$3 = -32						; size = 4
_MapIndex$4 = -28					; size = 4
_Type$5 = -24						; size = 4
_nRateCnt$ = -20					; size = 4
_nDropRatePerItemCnt$ = -16				; size = 4
_Token$ = -12						; size = 4
_this$ = -8						; size = 4
__$ArrayPad$ = -4					; size = 4
_script_file$ = 8					; size = 4
?LoadItem@CProbabilityItemBag@@QAEXPAD@Z PROC		; CProbabilityItemBag::LoadItem, COMDAT
; _this$ = ecx

; 85   : {

  00000	55		 push	 ebp
  00001	8b ec		 mov	 ebp, esp
  00003	81 ec 6c 01 00
	00		 sub	 esp, 364		; 0000016cH
  00009	a1 00 00 00 00	 mov	 eax, DWORD PTR ___security_cookie
  0000e	33 c5		 xor	 eax, ebp
  00010	89 45 fc	 mov	 DWORD PTR __$ArrayPad$[ebp], eax
  00013	53		 push	 ebx
  00014	56		 push	 esi
  00015	57		 push	 edi
  00016	89 4d f8	 mov	 DWORD PTR _this$[ebp], ecx

; 86   : 	m_bLoad = FALSE;

  00019	8b 45 f8	 mov	 eax, DWORD PTR _this$[ebp]
  0001c	c7 40 04 00 00
	00 00		 mov	 DWORD PTR [eax+4], 0

; 87   : 	if((SMDFile=fopen(script_file,"r")) == NULL)	

  00023	68 00 00 00 00	 push	 OFFSET ??_C@_01KDCPPGHE@r@
  00028	8b 45 08	 mov	 eax, DWORD PTR _script_file$[ebp]
  0002b	50		 push	 eax
  0002c	e8 00 00 00 00	 call	 _fopen
  00031	83 c4 08	 add	 esp, 8
  00034	a3 00 00 00 00	 mov	 DWORD PTR ?SMDFile@@3PAU_iobuf@@A, eax
  00039	83 3d 00 00 00
	00 00		 cmp	 DWORD PTR ?SMDFile@@3PAU_iobuf@@A, 0
  00040	75 23		 jne	 SHORT $LN12@LoadItem

; 88   : 	{
; 89   : 		LogAdd(lMsg.Get(453), script_file);

  00042	8b 45 08	 mov	 eax, DWORD PTR _script_file$[ebp]
  00045	50		 push	 eax
  00046	68 c5 01 00 00	 push	 453			; 000001c5H
  0004b	b9 00 00 00 00	 mov	 ecx, OFFSET ?lMsg@@3VCMsg@@A ; lMsg
  00050	ff 15 00 00 00
	00		 call	 DWORD PTR __imp_?Get@CMsg@@QAEPADH@Z
  00056	50		 push	 eax
  00057	ff 15 00 00 00
	00		 call	 DWORD PTR ?LogAdd@@3P6AXPADZZA ; LogAdd
  0005d	83 c4 08	 add	 esp, 8

; 90   : 		return ;

  00060	e9 9a 05 00 00	 jmp	 $LN1@LoadItem
$LN12@LoadItem:

; 91   : 	}	
; 92   : 
; 93   : 	SMDToken Token;
; 94   : 	int nDropRatePerItemCnt = 0;

  00065	c7 45 f0 00 00
	00 00		 mov	 DWORD PTR _nDropRatePerItemCnt$[ebp], 0

; 95   : 	int nRateCnt			= 0;

  0006c	c7 45 ec 00 00
	00 00		 mov	 DWORD PTR _nRateCnt$[ebp], 0

; 96   : 
; 97   : 	m_iBagObjectCount = 0;

  00073	8b 45 f8	 mov	 eax, DWORD PTR _this$[ebp]
  00076	c7 80 20 01 00
	00 00 00 00 00	 mov	 DWORD PTR [eax+288], 0
$LN2@LoadItem:

; 98   : 	
; 99   : 	while( true )

  00080	b8 01 00 00 00	 mov	 eax, 1
  00085	85 c0		 test	 eax, eax
  00087	0f 84 3c 05 00
	00		 je	 $LN3@LoadItem

; 100  : 	{
; 101  : 		Token = (*GetToken)();

  0008d	e8 00 00 00 00	 call	 ?GetToken@@YA?AW4SMDToken@@XZ ; GetToken
  00092	89 45 f4	 mov	 DWORD PTR _Token$[ebp], eax

; 102  : 		if(Token == END) break;

  00095	83 7d f4 02	 cmp	 DWORD PTR _Token$[ebp], 2
  00099	75 05		 jne	 SHORT $LN13@LoadItem
  0009b	e9 29 05 00 00	 jmp	 $LN3@LoadItem
$LN13@LoadItem:

; 103  : 		
; 104  : 		if(Token == NUMBER)

  000a0	83 7d f4 01	 cmp	 DWORD PTR _Token$[ebp], 1
  000a4	0f 85 1a 05 00
	00		 jne	 $LN22@LoadItem

; 105  : 		{
; 106  : 			int Type = (int)TokenNumber;

  000aa	f3 0f 2c 05 00
	00 00 00	 cvttss2si eax, DWORD PTR ?TokenNumber@@3MA
  000b2	89 45 e8	 mov	 DWORD PTR _Type$5[ebp], eax

; 107  : 			if( Type == 0 )

  000b5	83 7d e8 00	 cmp	 DWORD PTR _Type$5[ebp], 0
  000b9	0f 85 12 01 00
	00		 jne	 $LN15@LoadItem
$LN4@LoadItem:

; 108  : 			{	// 드롭될 아이템 조건 정보(맵, 몬스터 레벨)
; 109  : 				while(true)

  000bf	b8 01 00 00 00	 mov	 eax, 1
  000c4	85 c0		 test	 eax, eax
  000c6	0f 84 00 01 00
	00		 je	 $LN5@LoadItem

; 110  : 				{
; 111  : 					Token = (*GetToken)();

  000cc	e8 00 00 00 00	 call	 ?GetToken@@YA?AW4SMDToken@@XZ ; GetToken
  000d1	89 45 f4	 mov	 DWORD PTR _Token$[ebp], eax

; 112  : 					if(Token==NAME && strcmp("end",TokenString)==NULL) break;

  000d4	83 7d f4 00	 cmp	 DWORD PTR _Token$[ebp], 0
  000d8	75 1b		 jne	 SHORT $LN17@LoadItem
  000da	68 00 00 00 00	 push	 OFFSET ?TokenString@@3PADA
  000df	68 00 00 00 00	 push	 OFFSET ??_C@_03JBJLGPFL@end@
  000e4	e8 00 00 00 00	 call	 _strcmp
  000e9	83 c4 08	 add	 esp, 8
  000ec	85 c0		 test	 eax, eax
  000ee	75 05		 jne	 SHORT $LN17@LoadItem
  000f0	e9 d7 00 00 00	 jmp	 $LN5@LoadItem
$LN17@LoadItem:

; 113  : 
; 114  : 					int	MapIndex = (int)TokenNumber;

  000f5	f3 0f 2c 05 00
	00 00 00	 cvttss2si eax, DWORD PTR ?TokenNumber@@3MA
  000fd	89 45 e4	 mov	 DWORD PTR _MapIndex$4[ebp], eax

; 115  : 					if( !CHECK_LIMIT(MapIndex, g_TerrainManager.Size()) )

  00100	83 7d e4 00	 cmp	 DWORD PTR _MapIndex$4[ebp], 0
  00104	7d 0c		 jge	 SHORT $LN33@LoadItem
  00106	c7 85 98 fe ff
	ff 00 00 00 00	 mov	 DWORD PTR tv95[ebp], 0
  00110	eb 34		 jmp	 SHORT $LN34@LoadItem
$LN33@LoadItem:
  00112	b9 00 00 00 00	 mov	 ecx, OFFSET ?g_TerrainManager@@3VCTerrainManager@@A ; g_TerrainManager
  00117	e8 00 00 00 00	 call	 ?Size@CTerrainManager@@QAE?BHXZ ; CTerrainManager::Size
  0011c	83 e8 01	 sub	 eax, 1
  0011f	39 45 e4	 cmp	 DWORD PTR _MapIndex$4[ebp], eax
  00122	7e 0c		 jle	 SHORT $LN31@LoadItem
  00124	c7 85 94 fe ff
	ff 00 00 00 00	 mov	 DWORD PTR tv94[ebp], 0
  0012e	eb 0a		 jmp	 SHORT $LN32@LoadItem
$LN31@LoadItem:
  00130	c7 85 94 fe ff
	ff 01 00 00 00	 mov	 DWORD PTR tv94[ebp], 1
$LN32@LoadItem:
  0013a	8b 85 94 fe ff
	ff		 mov	 eax, DWORD PTR tv94[ebp]
  00140	89 85 98 fe ff
	ff		 mov	 DWORD PTR tv95[ebp], eax
$LN34@LoadItem:
  00146	83 bd 98 fe ff
	ff 00		 cmp	 DWORD PTR tv95[ebp], 0
  0014d	75 16		 jne	 SHORT $LN18@LoadItem

; 116  : 					{
; 117  : 						MsgBox("ExEvent ItemBag LoadFail [%s]", script_file);

  0014f	8b 45 08	 mov	 eax, DWORD PTR _script_file$[ebp]
  00152	50		 push	 eax
  00153	68 00 00 00 00	 push	 OFFSET ??_C@_0BO@PPHECIOP@ExEvent?5ItemBag?5LoadFail?5?$FL?$CFs?$FN@
  00158	e8 00 00 00 00	 call	 ?MsgBox@@YAXPADZZ	; MsgBox
  0015d	83 c4 08	 add	 esp, 8

; 118  : 						return;

  00160	e9 9a 04 00 00	 jmp	 $LN1@LoadItem
$LN18@LoadItem:

; 119  : 					}
; 120  : 
; 121  : 					Token = (*GetToken)(); DropMapInfo[MapIndex].m_bIsDrop = (int)TokenNumber;

  00165	e8 00 00 00 00	 call	 ?GetToken@@YA?AW4SMDToken@@XZ ; GetToken
  0016a	89 45 f4	 mov	 DWORD PTR _Token$[ebp], eax
  0016d	f3 0f 2c 05 00
	00 00 00	 cvttss2si eax, DWORD PTR ?TokenNumber@@3MA
  00175	6b 4d e4 03	 imul	 ecx, DWORD PTR _MapIndex$4[ebp], 3
  00179	8b 55 f8	 mov	 edx, DWORD PTR _this$[ebp]
  0017c	8b 92 24 01 00
	00		 mov	 edx, DWORD PTR [edx+292]
  00182	88 04 0a	 mov	 BYTE PTR [edx+ecx], al

; 122  : 					Token = (*GetToken)(); DropMapInfo[MapIndex].m_MinMonsterLevel = (int)TokenNumber;

  00185	e8 00 00 00 00	 call	 ?GetToken@@YA?AW4SMDToken@@XZ ; GetToken
  0018a	89 45 f4	 mov	 DWORD PTR _Token$[ebp], eax
  0018d	f3 0f 2c 05 00
	00 00 00	 cvttss2si eax, DWORD PTR ?TokenNumber@@3MA
  00195	6b 4d e4 03	 imul	 ecx, DWORD PTR _MapIndex$4[ebp], 3
  00199	8b 55 f8	 mov	 edx, DWORD PTR _this$[ebp]
  0019c	8b 92 24 01 00
	00		 mov	 edx, DWORD PTR [edx+292]
  001a2	88 44 0a 01	 mov	 BYTE PTR [edx+ecx+1], al

; 123  : 					Token = (*GetToken)(); DropMapInfo[MapIndex].m_MaxMonsterLevel = (int)TokenNumber;

  001a6	e8 00 00 00 00	 call	 ?GetToken@@YA?AW4SMDToken@@XZ ; GetToken
  001ab	89 45 f4	 mov	 DWORD PTR _Token$[ebp], eax
  001ae	f3 0f 2c 05 00
	00 00 00	 cvttss2si eax, DWORD PTR ?TokenNumber@@3MA
  001b6	6b 4d e4 03	 imul	 ecx, DWORD PTR _MapIndex$4[ebp], 3
  001ba	8b 55 f8	 mov	 edx, DWORD PTR _this$[ebp]
  001bd	8b 92 24 01 00
	00		 mov	 edx, DWORD PTR [edx+292]
  001c3	88 44 0a 02	 mov	 BYTE PTR [edx+ecx+2], al

; 124  : 				}

  001c7	e9 f3 fe ff ff	 jmp	 $LN4@LoadItem
$LN5@LoadItem:

; 125  : 				
; 126  : 			}

  001cc	e9 f3 03 00 00	 jmp	 $LN22@LoadItem
$LN15@LoadItem:

; 127  : 			else if( Type == 1 )

  001d1	83 7d e8 01	 cmp	 DWORD PTR _Type$5[ebp], 1
  001d5	0f 85 6e 01 00
	00		 jne	 $LN19@LoadItem
$LN6@LoadItem:

; 128  : 			{	// 이벤트 아이템 정보
; 129  : 				while(true)

  001db	b8 01 00 00 00	 mov	 eax, 1
  001e0	85 c0		 test	 eax, eax
  001e2	0f 84 5c 01 00
	00		 je	 $LN7@LoadItem

; 130  : 				{
; 131  : 					int type, index;
; 132  : 					Token = (*GetToken)();

  001e8	e8 00 00 00 00	 call	 ?GetToken@@YA?AW4SMDToken@@XZ ; GetToken
  001ed	89 45 f4	 mov	 DWORD PTR _Token$[ebp], eax

; 133  : 					if(Token==NAME && strcmp("end",TokenString)==NULL) break;

  001f0	83 7d f4 00	 cmp	 DWORD PTR _Token$[ebp], 0
  001f4	75 1b		 jne	 SHORT $LN21@LoadItem
  001f6	68 00 00 00 00	 push	 OFFSET ?TokenString@@3PADA
  001fb	68 00 00 00 00	 push	 OFFSET ??_C@_03JBJLGPFL@end@
  00200	e8 00 00 00 00	 call	 _strcmp
  00205	83 c4 08	 add	 esp, 8
  00208	85 c0		 test	 eax, eax
  0020a	75 05		 jne	 SHORT $LN21@LoadItem
  0020c	e9 33 01 00 00	 jmp	 $LN7@LoadItem
$LN21@LoadItem:

; 134  : 
; 135  : 					strcpy(m_sEventName, TokenString);

  00211	68 00 00 00 00	 push	 OFFSET ?TokenString@@3PADA
  00216	8b 45 f8	 mov	 eax, DWORD PTR _this$[ebp]
  00219	83 c0 08	 add	 eax, 8
  0021c	50		 push	 eax
  0021d	e8 00 00 00 00	 call	 _strcpy
  00222	83 c4 08	 add	 esp, 8

; 136  : 					Token = (*GetToken)(); m_iDropZen = (int)TokenNumber;

  00225	e8 00 00 00 00	 call	 ?GetToken@@YA?AW4SMDToken@@XZ ; GetToken
  0022a	89 45 f4	 mov	 DWORD PTR _Token$[ebp], eax
  0022d	f3 0f 2c 05 00
	00 00 00	 cvttss2si eax, DWORD PTR ?TokenNumber@@3MA
  00235	8b 4d f8	 mov	 ecx, DWORD PTR _this$[ebp]
  00238	89 81 10 01 00
	00		 mov	 DWORD PTR [ecx+272], eax

; 137  : 
; 138  : 					Token = (*GetToken)(); type = (int)TokenNumber;

  0023e	e8 00 00 00 00	 call	 ?GetToken@@YA?AW4SMDToken@@XZ ; GetToken
  00243	89 45 f4	 mov	 DWORD PTR _Token$[ebp], eax
  00246	f3 0f 2c 05 00
	00 00 00	 cvttss2si eax, DWORD PTR ?TokenNumber@@3MA
  0024e	89 45 e0	 mov	 DWORD PTR _type$3[ebp], eax

; 139  : 					Token = (*GetToken)(); index = (int)TokenNumber;

  00251	e8 00 00 00 00	 call	 ?GetToken@@YA?AW4SMDToken@@XZ ; GetToken
  00256	89 45 f4	 mov	 DWORD PTR _Token$[ebp], eax
  00259	f3 0f 2c 05 00
	00 00 00	 cvttss2si eax, DWORD PTR ?TokenNumber@@3MA
  00261	89 45 dc	 mov	 DWORD PTR _index$2[ebp], eax

; 140  : 					m_iEventItemType = MAKE_ITEMNUM(type, index);

  00264	8b 45 dc	 mov	 eax, DWORD PTR _index$2[ebp]
  00267	50		 push	 eax
  00268	8b 4d e0	 mov	 ecx, DWORD PTR _type$3[ebp]
  0026b	51		 push	 ecx
  0026c	e8 00 00 00 00	 call	 ?MakeItemNumber@@YAHHH@Z ; MakeItemNumber
  00271	83 c4 08	 add	 esp, 8
  00274	8b 55 f8	 mov	 edx, DWORD PTR _this$[ebp]
  00277	89 82 08 01 00
	00		 mov	 DWORD PTR [edx+264], eax

; 141  : 
; 142  : 					Token = (*GetToken)(); m_iEventItemLevel = (int)TokenNumber;

  0027d	e8 00 00 00 00	 call	 ?GetToken@@YA?AW4SMDToken@@XZ ; GetToken
  00282	89 45 f4	 mov	 DWORD PTR _Token$[ebp], eax
  00285	f3 0f 2c 05 00
	00 00 00	 cvttss2si eax, DWORD PTR ?TokenNumber@@3MA
  0028d	8b 4d f8	 mov	 ecx, DWORD PTR _this$[ebp]
  00290	89 81 0c 01 00
	00		 mov	 DWORD PTR [ecx+268], eax

; 143  : 
; 144  : 					Token = (*GetToken)(); m_iEventItemDropRate = (int)TokenNumber;

  00296	e8 00 00 00 00	 call	 ?GetToken@@YA?AW4SMDToken@@XZ ; GetToken
  0029b	89 45 f4	 mov	 DWORD PTR _Token$[ebp], eax
  0029e	f3 0f 2c 05 00
	00 00 00	 cvttss2si eax, DWORD PTR ?TokenNumber@@3MA
  002a6	8b 4d f8	 mov	 ecx, DWORD PTR _this$[ebp]
  002a9	89 81 14 01 00
	00		 mov	 DWORD PTR [ecx+276], eax

; 145  : 					Token = (*GetToken)(); m_iItemDropRate = (int)TokenNumber;

  002af	e8 00 00 00 00	 call	 ?GetToken@@YA?AW4SMDToken@@XZ ; GetToken
  002b4	89 45 f4	 mov	 DWORD PTR _Token$[ebp], eax
  002b7	f3 0f 2c 05 00
	00 00 00	 cvttss2si eax, DWORD PTR ?TokenNumber@@3MA
  002bf	8b 4d f8	 mov	 ecx, DWORD PTR _this$[ebp]
  002c2	89 81 18 01 00
	00		 mov	 DWORD PTR [ecx+280], eax

; 146  : 					Token = (*GetToken)(); m_iExItemDropRate = (int)TokenNumber;

  002c8	e8 00 00 00 00	 call	 ?GetToken@@YA?AW4SMDToken@@XZ ; GetToken
  002cd	89 45 f4	 mov	 DWORD PTR _Token$[ebp], eax
  002d0	f3 0f 2c 05 00
	00 00 00	 cvttss2si eax, DWORD PTR ?TokenNumber@@3MA
  002d8	8b 4d f8	 mov	 ecx, DWORD PTR _this$[ebp]
  002db	89 81 1c 01 00
	00		 mov	 DWORD PTR [ecx+284], eax

; 147  : 
; 148  : 					char msg[255];
; 149  : 					wsprintf(msg, "[%s] Eventitemnum = %d,EventItemLevel = %d, EventItemDropRate = %d, ItemDropRate = %d, ExItemDropRate = %d",

  002e1	8b 45 f8	 mov	 eax, DWORD PTR _this$[ebp]
  002e4	8b 88 1c 01 00
	00		 mov	 ecx, DWORD PTR [eax+284]
  002ea	51		 push	 ecx
  002eb	8b 55 f8	 mov	 edx, DWORD PTR _this$[ebp]
  002ee	8b 82 18 01 00
	00		 mov	 eax, DWORD PTR [edx+280]
  002f4	50		 push	 eax
  002f5	8b 4d f8	 mov	 ecx, DWORD PTR _this$[ebp]
  002f8	8b 91 14 01 00
	00		 mov	 edx, DWORD PTR [ecx+276]
  002fe	52		 push	 edx
  002ff	8b 45 f8	 mov	 eax, DWORD PTR _this$[ebp]
  00302	8b 88 0c 01 00
	00		 mov	 ecx, DWORD PTR [eax+268]
  00308	51		 push	 ecx
  00309	8b 55 f8	 mov	 edx, DWORD PTR _this$[ebp]
  0030c	8b 82 08 01 00
	00		 mov	 eax, DWORD PTR [edx+264]
  00312	50		 push	 eax
  00313	8b 4d f8	 mov	 ecx, DWORD PTR _this$[ebp]
  00316	83 c1 08	 add	 ecx, 8
  00319	51		 push	 ecx
  0031a	68 00 00 00 00	 push	 OFFSET ??_C@_0GL@LIMNLNHJ@?$FL?$CFs?$FN?5Eventitemnum?5?$DN?5?$CFd?0EventIte@
  0031f	8d 95 dc fe ff
	ff		 lea	 edx, DWORD PTR _msg$1[ebp]
  00325	52		 push	 edx
  00326	ff 15 00 00 00
	00		 call	 DWORD PTR __imp__wsprintfA
  0032c	83 c4 20	 add	 esp, 32			; 00000020H

; 150  : 						     m_sEventName, m_iEventItemType, m_iEventItemLevel, m_iEventItemDropRate, 
; 151  : 							 m_iItemDropRate, m_iExItemDropRate);
; 152  : 					LogAddTD(msg);

  0032f	8d 85 dc fe ff
	ff		 lea	 eax, DWORD PTR _msg$1[ebp]
  00335	50		 push	 eax
  00336	ff 15 00 00 00
	00		 call	 DWORD PTR ?LogAddTD@@3P6AXPADZZA ; LogAddTD
  0033c	83 c4 04	 add	 esp, 4

; 153  : 				}

  0033f	e9 97 fe ff ff	 jmp	 $LN6@LoadItem
$LN7@LoadItem:

; 154  : 			}

  00344	e9 7b 02 00 00	 jmp	 $LN22@LoadItem
$LN19@LoadItem:

; 155  : 			else if( Type == 2 )

  00349	83 7d e8 02	 cmp	 DWORD PTR _Type$5[ebp], 2
  0034d	0f 85 71 02 00
	00		 jne	 $LN22@LoadItem

; 156  : 			{
; 157  : 				nRateCnt = 0;

  00353	c7 45 ec 00 00
	00 00		 mov	 DWORD PTR _nRateCnt$[ebp], 0
$LN8@LoadItem:

; 158  : 
; 159  : 				while(true)

  0035a	b8 01 00 00 00	 mov	 eax, 1
  0035f	85 c0		 test	 eax, eax
  00361	0f 84 51 02 00
	00		 je	 $LN9@LoadItem

; 160  : 				{					
; 161  : 					Token = (*GetToken)();

  00367	e8 00 00 00 00	 call	 ?GetToken@@YA?AW4SMDToken@@XZ ; GetToken
  0036c	89 45 f4	 mov	 DWORD PTR _Token$[ebp], eax

; 162  : 					if(Token==NAME && strcmp("end",TokenString)==NULL) break;

  0036f	83 7d f4 00	 cmp	 DWORD PTR _Token$[ebp], 0
  00373	75 1b		 jne	 SHORT $LN23@LoadItem
  00375	68 00 00 00 00	 push	 OFFSET ?TokenString@@3PADA
  0037a	68 00 00 00 00	 push	 OFFSET ??_C@_03JBJLGPFL@end@
  0037f	e8 00 00 00 00	 call	 _strcmp
  00384	83 c4 08	 add	 esp, 8
  00387	85 c0		 test	 eax, eax
  00389	75 05		 jne	 SHORT $LN23@LoadItem
  0038b	e9 28 02 00 00	 jmp	 $LN9@LoadItem
$LN23@LoadItem:

; 163  : 					if( nRateCnt == 0 )

  00390	83 7d ec 00	 cmp	 DWORD PTR _nRateCnt$[ebp], 0
  00394	75 17		 jne	 SHORT $LN24@LoadItem

; 164  : 					{
; 165  : 						m_iEventItemDropRateEx[nRateCnt] = (int)TokenNumber;

  00396	f3 0f 2c 05 00
	00 00 00	 cvttss2si eax, DWORD PTR ?TokenNumber@@3MA
  0039e	8b 4d ec	 mov	 ecx, DWORD PTR _nRateCnt$[ebp]
  003a1	8b 55 f8	 mov	 edx, DWORD PTR _this$[ebp]
  003a4	89 84 8a d8 05
	00 00		 mov	 DWORD PTR [edx+ecx*4+1496], eax

; 166  : 					}

  003ab	eb 22		 jmp	 SHORT $LN25@LoadItem
$LN24@LoadItem:

; 167  : 					else
; 168  : 					{
; 169  : 						m_iEventItemDropRateEx[nRateCnt] = m_iEventItemDropRateEx[nRateCnt-1] + (int)TokenNumber;

  003ad	f3 0f 2c 05 00
	00 00 00	 cvttss2si eax, DWORD PTR ?TokenNumber@@3MA
  003b5	8b 4d ec	 mov	 ecx, DWORD PTR _nRateCnt$[ebp]
  003b8	8b 55 f8	 mov	 edx, DWORD PTR _this$[ebp]
  003bb	03 84 8a d4 05
	00 00		 add	 eax, DWORD PTR [edx+ecx*4+1492]
  003c2	8b 4d ec	 mov	 ecx, DWORD PTR _nRateCnt$[ebp]
  003c5	8b 55 f8	 mov	 edx, DWORD PTR _this$[ebp]
  003c8	89 84 8a d8 05
	00 00		 mov	 DWORD PTR [edx+ecx*4+1496], eax
$LN25@LoadItem:

; 170  : 					}
; 171  : 					
; 172  : 					nDropRatePerItemCnt = 0;

  003cf	c7 45 f0 00 00
	00 00		 mov	 DWORD PTR _nDropRatePerItemCnt$[ebp], 0
$LN10@LoadItem:

; 173  : 					while(true)

  003d6	b8 01 00 00 00	 mov	 eax, 1
  003db	85 c0		 test	 eax, eax
  003dd	0f 84 bf 01 00
	00		 je	 $LN11@LoadItem

; 174  : 					{
; 175  : 						Token = (*GetToken)();

  003e3	e8 00 00 00 00	 call	 ?GetToken@@YA?AW4SMDToken@@XZ ; GetToken
  003e8	89 45 f4	 mov	 DWORD PTR _Token$[ebp], eax

; 176  : 						if(Token==NAME && strcmp("end",TokenString)==NULL)

  003eb	83 7d f4 00	 cmp	 DWORD PTR _Token$[ebp], 0
  003ef	75 2b		 jne	 SHORT $LN26@LoadItem
  003f1	68 00 00 00 00	 push	 OFFSET ?TokenString@@3PADA
  003f6	68 00 00 00 00	 push	 OFFSET ??_C@_03JBJLGPFL@end@
  003fb	e8 00 00 00 00	 call	 _strcmp
  00400	83 c4 08	 add	 esp, 8
  00403	85 c0		 test	 eax, eax
  00405	75 15		 jne	 SHORT $LN26@LoadItem

; 177  : 						{
; 178  : 							m_iDropRatePerItemCount[nRateCnt] = nDropRatePerItemCnt;

  00407	8b 45 ec	 mov	 eax, DWORD PTR _nRateCnt$[ebp]
  0040a	8b 4d f8	 mov	 ecx, DWORD PTR _this$[ebp]
  0040d	8b 55 f0	 mov	 edx, DWORD PTR _nDropRatePerItemCnt$[ebp]
  00410	89 94 81 28 06
	00 00		 mov	 DWORD PTR [ecx+eax*4+1576], edx

; 179  : 							break;

  00417	e9 86 01 00 00	 jmp	 $LN11@LoadItem
$LN26@LoadItem:

; 180  : 						}
; 181  : 
; 182  : 						BagObject[m_iBagObjectCount].m_type = (int)TokenNumber;					

  0041c	f3 0f 2c 05 00
	00 00 00	 cvttss2si eax, DWORD PTR ?TokenNumber@@3MA
  00424	8b 4d f8	 mov	 ecx, DWORD PTR _this$[ebp]
  00427	8b 91 20 01 00
	00		 mov	 edx, DWORD PTR [ecx+288]
  0042d	8b 4d f8	 mov	 ecx, DWORD PTR _this$[ebp]
  00430	88 84 d1 28 01
	00 00		 mov	 BYTE PTR [ecx+edx*8+296], al

; 183  : 
; 184  : 						Token = (*GetToken)();	BagObject[m_iBagObjectCount].m_index = (int)TokenNumber;

  00437	e8 00 00 00 00	 call	 ?GetToken@@YA?AW4SMDToken@@XZ ; GetToken
  0043c	89 45 f4	 mov	 DWORD PTR _Token$[ebp], eax
  0043f	f3 0f 2c 05 00
	00 00 00	 cvttss2si eax, DWORD PTR ?TokenNumber@@3MA
  00447	8b 4d f8	 mov	 ecx, DWORD PTR _this$[ebp]
  0044a	8b 91 20 01 00
	00		 mov	 edx, DWORD PTR [ecx+288]
  00450	8b 4d f8	 mov	 ecx, DWORD PTR _this$[ebp]
  00453	88 84 d1 29 01
	00 00		 mov	 BYTE PTR [ecx+edx*8+297], al

; 185  : 
; 186  : 						Token = (*GetToken)();	BagObject[m_iBagObjectCount].m_minLevel = (int)TokenNumber;

  0045a	e8 00 00 00 00	 call	 ?GetToken@@YA?AW4SMDToken@@XZ ; GetToken
  0045f	89 45 f4	 mov	 DWORD PTR _Token$[ebp], eax
  00462	f3 0f 2c 05 00
	00 00 00	 cvttss2si eax, DWORD PTR ?TokenNumber@@3MA
  0046a	8b 4d f8	 mov	 ecx, DWORD PTR _this$[ebp]
  0046d	8b 91 20 01 00
	00		 mov	 edx, DWORD PTR [ecx+288]
  00473	8b 4d f8	 mov	 ecx, DWORD PTR _this$[ebp]
  00476	88 84 d1 2a 01
	00 00		 mov	 BYTE PTR [ecx+edx*8+298], al

; 187  : 						Token = (*GetToken)();	BagObject[m_iBagObjectCount].m_maxLevel = (int)TokenNumber;

  0047d	e8 00 00 00 00	 call	 ?GetToken@@YA?AW4SMDToken@@XZ ; GetToken
  00482	89 45 f4	 mov	 DWORD PTR _Token$[ebp], eax
  00485	f3 0f 2c 05 00
	00 00 00	 cvttss2si eax, DWORD PTR ?TokenNumber@@3MA
  0048d	8b 4d f8	 mov	 ecx, DWORD PTR _this$[ebp]
  00490	8b 91 20 01 00
	00		 mov	 edx, DWORD PTR [ecx+288]
  00496	8b 4d f8	 mov	 ecx, DWORD PTR _this$[ebp]
  00499	88 84 d1 2b 01
	00 00		 mov	 BYTE PTR [ecx+edx*8+299], al

; 188  : 						Token = (*GetToken)();	BagObject[m_iBagObjectCount].m_isskill	= (int)TokenNumber;

  004a0	e8 00 00 00 00	 call	 ?GetToken@@YA?AW4SMDToken@@XZ ; GetToken
  004a5	89 45 f4	 mov	 DWORD PTR _Token$[ebp], eax
  004a8	f3 0f 2c 05 00
	00 00 00	 cvttss2si eax, DWORD PTR ?TokenNumber@@3MA
  004b0	8b 4d f8	 mov	 ecx, DWORD PTR _this$[ebp]
  004b3	8b 91 20 01 00
	00		 mov	 edx, DWORD PTR [ecx+288]
  004b9	8b 4d f8	 mov	 ecx, DWORD PTR _this$[ebp]
  004bc	88 84 d1 2c 01
	00 00		 mov	 BYTE PTR [ecx+edx*8+300], al

; 189  : 						Token = (*GetToken)();	BagObject[m_iBagObjectCount].m_isluck	= (int)TokenNumber;

  004c3	e8 00 00 00 00	 call	 ?GetToken@@YA?AW4SMDToken@@XZ ; GetToken
  004c8	89 45 f4	 mov	 DWORD PTR _Token$[ebp], eax
  004cb	f3 0f 2c 05 00
	00 00 00	 cvttss2si eax, DWORD PTR ?TokenNumber@@3MA
  004d3	8b 4d f8	 mov	 ecx, DWORD PTR _this$[ebp]
  004d6	8b 91 20 01 00
	00		 mov	 edx, DWORD PTR [ecx+288]
  004dc	8b 4d f8	 mov	 ecx, DWORD PTR _this$[ebp]
  004df	88 84 d1 2d 01
	00 00		 mov	 BYTE PTR [ecx+edx*8+301], al

; 190  : 						Token = (*GetToken)();	BagObject[m_iBagObjectCount].m_isoption = (int)TokenNumber;

  004e6	e8 00 00 00 00	 call	 ?GetToken@@YA?AW4SMDToken@@XZ ; GetToken
  004eb	89 45 f4	 mov	 DWORD PTR _Token$[ebp], eax
  004ee	f3 0f 2c 05 00
	00 00 00	 cvttss2si eax, DWORD PTR ?TokenNumber@@3MA
  004f6	8b 4d f8	 mov	 ecx, DWORD PTR _this$[ebp]
  004f9	8b 91 20 01 00
	00		 mov	 edx, DWORD PTR [ecx+288]
  004ff	8b 4d f8	 mov	 ecx, DWORD PTR _this$[ebp]
  00502	88 84 d1 2e 01
	00 00		 mov	 BYTE PTR [ecx+edx*8+302], al

; 191  : 						Token = (*GetToken)();	BagObject[m_iBagObjectCount].m_isexitem = (int)TokenNumber;

  00509	e8 00 00 00 00	 call	 ?GetToken@@YA?AW4SMDToken@@XZ ; GetToken
  0050e	89 45 f4	 mov	 DWORD PTR _Token$[ebp], eax
  00511	f3 0f 2c 05 00
	00 00 00	 cvttss2si eax, DWORD PTR ?TokenNumber@@3MA
  00519	8b 4d f8	 mov	 ecx, DWORD PTR _this$[ebp]
  0051c	8b 91 20 01 00
	00		 mov	 edx, DWORD PTR [ecx+288]
  00522	8b 4d f8	 mov	 ecx, DWORD PTR _this$[ebp]
  00525	88 84 d1 2f 01
	00 00		 mov	 BYTE PTR [ecx+edx*8+303], al

; 192  : 
; 193  : 						if(BagObject[m_iBagObjectCount].m_minLevel > BagObject[m_iBagObjectCount].m_maxLevel)

  0052c	8b 45 f8	 mov	 eax, DWORD PTR _this$[ebp]
  0052f	8b 88 20 01 00
	00		 mov	 ecx, DWORD PTR [eax+288]
  00535	8b 55 f8	 mov	 edx, DWORD PTR _this$[ebp]
  00538	0f b6 84 ca 2a
	01 00 00	 movzx	 eax, BYTE PTR [edx+ecx*8+298]
  00540	8b 4d f8	 mov	 ecx, DWORD PTR _this$[ebp]
  00543	8b 91 20 01 00
	00		 mov	 edx, DWORD PTR [ecx+288]
  00549	8b 4d f8	 mov	 ecx, DWORD PTR _this$[ebp]
  0054c	0f b6 94 d1 2b
	01 00 00	 movzx	 edx, BYTE PTR [ecx+edx*8+299]
  00554	3b c2		 cmp	 eax, edx
  00556	7e 16		 jle	 SHORT $LN27@LoadItem

; 194  : 						{
; 195  : 							MsgBox("Load Script Error %s", script_file);

  00558	8b 45 08	 mov	 eax, DWORD PTR _script_file$[ebp]
  0055b	50		 push	 eax
  0055c	68 00 00 00 00	 push	 OFFSET ??_C@_0BF@KEOMIEDM@Load?5Script?5Error?5?$CFs@
  00561	e8 00 00 00 00	 call	 ?MsgBox@@YAXPADZZ	; MsgBox
  00566	83 c4 08	 add	 esp, 8

; 196  : 							return;

  00569	e9 91 00 00 00	 jmp	 $LN1@LoadItem
$LN27@LoadItem:

; 197  : 						}
; 198  : 
; 199  : 						nDropRatePerItemCnt++;

  0056e	8b 45 f0	 mov	 eax, DWORD PTR _nDropRatePerItemCnt$[ebp]
  00571	83 c0 01	 add	 eax, 1
  00574	89 45 f0	 mov	 DWORD PTR _nDropRatePerItemCnt$[ebp], eax

; 200  : 						m_iBagObjectCount++;

  00577	8b 45 f8	 mov	 eax, DWORD PTR _this$[ebp]
  0057a	8b 88 20 01 00
	00		 mov	 ecx, DWORD PTR [eax+288]
  00580	83 c1 01	 add	 ecx, 1
  00583	8b 55 f8	 mov	 edx, DWORD PTR _this$[ebp]
  00586	89 8a 20 01 00
	00		 mov	 DWORD PTR [edx+288], ecx

; 201  : 						if( m_iBagObjectCount > MAX_ITEMBAGEX-1 ) break;

  0058c	8b 45 f8	 mov	 eax, DWORD PTR _this$[ebp]
  0058f	81 b8 20 01 00
	00 95 00 00 00	 cmp	 DWORD PTR [eax+288], 149 ; 00000095H
  00599	7e 02		 jle	 SHORT $LN28@LoadItem
  0059b	eb 05		 jmp	 SHORT $LN11@LoadItem
$LN28@LoadItem:

; 202  : 					}

  0059d	e9 34 fe ff ff	 jmp	 $LN10@LoadItem
$LN11@LoadItem:

; 203  : 
; 204  : 					nRateCnt++;

  005a2	8b 45 ec	 mov	 eax, DWORD PTR _nRateCnt$[ebp]
  005a5	83 c0 01	 add	 eax, 1
  005a8	89 45 ec	 mov	 DWORD PTR _nRateCnt$[ebp], eax

; 205  : 					if( nRateCnt > MAX_ITEMRATE_COUNT-1 ) break;

  005ab	83 7d ec 13	 cmp	 DWORD PTR _nRateCnt$[ebp], 19 ; 00000013H
  005af	7e 02		 jle	 SHORT $LN29@LoadItem
  005b1	eb 05		 jmp	 SHORT $LN9@LoadItem
$LN29@LoadItem:

; 206  : 				}

  005b3	e9 a2 fd ff ff	 jmp	 $LN8@LoadItem
$LN9@LoadItem:

; 207  : 
; 208  : 				m_iRateKindCount = nRateCnt;

  005b8	8b 45 f8	 mov	 eax, DWORD PTR _this$[ebp]
  005bb	8b 4d ec	 mov	 ecx, DWORD PTR _nRateCnt$[ebp]
  005be	89 88 78 06 00
	00		 mov	 DWORD PTR [eax+1656], ecx
$LN22@LoadItem:

; 209  : 			}
; 210  : #ifdef UPDATE_PROBABILITYiTEMBAG_ADD_SETITEM_20080329
; 211  : 			else if ( Type == 3 )
; 212  : 			{
; 213  : 				nRateCnt = m_iRateKindCount;
; 214  : 
; 215  : 				while(true)
; 216  : 				{					
; 217  : 					Token = (*GetToken)();
; 218  : 					if(Token==NAME && strcmp("end",TokenString)==NULL) break;
; 219  : 					if( nRateCnt == 0 )
; 220  : 					{
; 221  : 						m_iEventItemDropRateEx[nRateCnt] = (int)TokenNumber;
; 222  : 					}
; 223  : 					else
; 224  : 					{
; 225  : 						m_iEventItemDropRateEx[nRateCnt] = m_iEventItemDropRateEx[nRateCnt-1] + (int)TokenNumber;
; 226  : 					}
; 227  : 					
; 228  : 					nDropRatePerItemCnt = 0;
; 229  : 					while(true)
; 230  : 					{
; 231  : 						Token = (*GetToken)();
; 232  : 						if(Token==NAME && strcmp("end",TokenString)==NULL)
; 233  : 						{
; 234  : 							m_iDropRatePerItemCount[nRateCnt] = nDropRatePerItemCnt;
; 235  : 							break;
; 236  : 						}
; 237  : 
; 238  : 						BagObject[m_iBagObjectCount].m_type = (int)TokenNumber;					
; 239  : 
; 240  : 						Token = (*GetToken)();	BagObject[m_iBagObjectCount].m_index = (int)TokenNumber;
; 241  : 
; 242  : 						BagObject[m_iBagObjectCount].m_isSetItem = (int)1;	// 셋트아이템
; 243  : 
; 244  : 						BagObject[m_iBagObjectCount].m_minLevel = (int)0;
; 245  : 						BagObject[m_iBagObjectCount].m_maxLevel = (int)0;
; 246  : 						BagObject[m_iBagObjectCount].m_isskill	= (int)0;
; 247  : 						BagObject[m_iBagObjectCount].m_isluck	= (int)0;
; 248  : 						BagObject[m_iBagObjectCount].m_isoption = (int)0;
; 249  : 						BagObject[m_iBagObjectCount].m_isexitem = (int)0;
; 250  : 
; 251  : 						if(BagObject[m_iBagObjectCount].m_minLevel > BagObject[m_iBagObjectCount].m_maxLevel)
; 252  : 						{
; 253  : 							MsgBox("Load Script Error %s", script_file);
; 254  : 							return;
; 255  : 						}
; 256  : 
; 257  : 						nDropRatePerItemCnt++;
; 258  : 						m_iBagObjectCount++;
; 259  : 						if( m_iBagObjectCount > MAX_ITEMBAGEX-1 ) break;
; 260  : 					}
; 261  : 
; 262  : 					nRateCnt++;
; 263  : 					if( nRateCnt > MAX_ITEMRATE_COUNT-1 ) break;
; 264  : 				}
; 265  : 
; 266  : 				m_iRateKindCount = nRateCnt;
; 267  : 			}
; 268  : #endif	// UPDATE_PROBABILITYiTEMBAG_ADD_SETITEM_20080329			
; 269  : 		}
; 270  : 	}

  005c4	e9 b7 fa ff ff	 jmp	 $LN2@LoadItem
$LN3@LoadItem:

; 271  : 
; 272  : 	fclose(SMDFile);	

  005c9	a1 00 00 00 00	 mov	 eax, DWORD PTR ?SMDFile@@3PAU_iobuf@@A
  005ce	50		 push	 eax
  005cf	e8 00 00 00 00	 call	 _fclose
  005d4	83 c4 04	 add	 esp, 4

; 273  : 	LogAdd(lMsg.Get(454), script_file);

  005d7	8b 45 08	 mov	 eax, DWORD PTR _script_file$[ebp]
  005da	50		 push	 eax
  005db	68 c6 01 00 00	 push	 454			; 000001c6H
  005e0	b9 00 00 00 00	 mov	 ecx, OFFSET ?lMsg@@3VCMsg@@A ; lMsg
  005e5	ff 15 00 00 00
	00		 call	 DWORD PTR __imp_?Get@CMsg@@QAEPADH@Z
  005eb	50		 push	 eax
  005ec	ff 15 00 00 00
	00		 call	 DWORD PTR ?LogAdd@@3P6AXPADZZA ; LogAdd
  005f2	83 c4 08	 add	 esp, 8

; 274  : 
; 275  : 	m_bLoad = TRUE;

  005f5	8b 45 f8	 mov	 eax, DWORD PTR _this$[ebp]
  005f8	c7 40 04 01 00
	00 00		 mov	 DWORD PTR [eax+4], 1
$LN1@LoadItem:

; 276  : }

  005ff	5f		 pop	 edi
  00600	5e		 pop	 esi
  00601	5b		 pop	 ebx
  00602	8b 4d fc	 mov	 ecx, DWORD PTR __$ArrayPad$[ebp]
  00605	33 cd		 xor	 ecx, ebp
  00607	e8 00 00 00 00	 call	 @__security_check_cookie@4
  0060c	8b e5		 mov	 esp, ebp
  0060e	5d		 pop	 ebp
  0060f	c2 04 00	 ret	 4
?LoadItem@CProbabilityItemBag@@QAEXPAD@Z ENDP		; CProbabilityItemBag::LoadItem
_TEXT	ENDS
; Function compile flags: /Odtp /ZI
; File C:\Mu Online\Mu-GS-Webzen-MC-10093\GameServer\ProbabilityItemBag.cpp
;	COMDAT ?ProbabilityItemBagInit@CProbabilityItemBag@@QAEXPAD@Z
_TEXT	SEGMENT
tv141 = -96						; size = 4
$T2 = -92						; size = 4
$T3 = -88						; size = 4
$T4 = -84						; size = 4
_this$ = -16						; size = 4
__$EHRec$ = -12						; size = 12
_name$ = 8						; size = 4
?ProbabilityItemBagInit@CProbabilityItemBag@@QAEXPAD@Z PROC ; CProbabilityItemBag::ProbabilityItemBagInit, COMDAT
; _this$ = ecx

; 57   : {	

  00000	55		 push	 ebp
  00001	8b ec		 mov	 ebp, esp
  00003	6a ff		 push	 -1
  00005	68 00 00 00 00	 push	 __ehhandler$?ProbabilityItemBagInit@CProbabilityItemBag@@QAEXPAD@Z
  0000a	64 a1 00 00 00
	00		 mov	 eax, DWORD PTR fs:0
  00010	50		 push	 eax
  00011	83 ec 54	 sub	 esp, 84			; 00000054H
  00014	53		 push	 ebx
  00015	56		 push	 esi
  00016	57		 push	 edi
  00017	a1 00 00 00 00	 mov	 eax, DWORD PTR ___security_cookie
  0001c	33 c5		 xor	 eax, ebp
  0001e	50		 push	 eax
  0001f	8d 45 f4	 lea	 eax, DWORD PTR __$EHRec$[ebp]
  00022	64 a3 00 00 00
	00		 mov	 DWORD PTR fs:0, eax
  00028	89 4d f0	 mov	 DWORD PTR _this$[ebp], ecx

; 58   : 	m_bLoad = FALSE;

  0002b	8b 45 f0	 mov	 eax, DWORD PTR _this$[ebp]
  0002e	c7 40 04 00 00
	00 00		 mov	 DWORD PTR [eax+4], 0

; 59   : 	m_sEventName[0]		= NULL;

  00035	b8 01 00 00 00	 mov	 eax, 1
  0003a	6b c8 00	 imul	 ecx, eax, 0
  0003d	8b 55 f0	 mov	 edx, DWORD PTR _this$[ebp]
  00040	c6 44 0a 08 00	 mov	 BYTE PTR [edx+ecx+8], 0

; 60   : 	m_iEventItemType	= -1;

  00045	8b 45 f0	 mov	 eax, DWORD PTR _this$[ebp]
  00048	c7 80 08 01 00
	00 ff ff ff ff	 mov	 DWORD PTR [eax+264], -1

; 61   : 	m_iEventItemLevel	= 0;

  00052	8b 45 f0	 mov	 eax, DWORD PTR _this$[ebp]
  00055	c7 80 0c 01 00
	00 00 00 00 00	 mov	 DWORD PTR [eax+268], 0

; 62   : 	m_iDropZen			= 0;

  0005f	8b 45 f0	 mov	 eax, DWORD PTR _this$[ebp]
  00062	c7 80 10 01 00
	00 00 00 00 00	 mov	 DWORD PTR [eax+272], 0

; 63   : 	m_iEventItemDropRate = 0;

  0006c	8b 45 f0	 mov	 eax, DWORD PTR _this$[ebp]
  0006f	c7 80 14 01 00
	00 00 00 00 00	 mov	 DWORD PTR [eax+276], 0

; 64   : 	m_iItemDropRate		= 0;

  00079	8b 45 f0	 mov	 eax, DWORD PTR _this$[ebp]
  0007c	c7 80 18 01 00
	00 00 00 00 00	 mov	 DWORD PTR [eax+280], 0

; 65   : 	m_iExItemDropRate	= 0;

  00086	8b 45 f0	 mov	 eax, DWORD PTR _this$[ebp]
  00089	c7 80 1c 01 00
	00 00 00 00 00	 mov	 DWORD PTR [eax+284], 0

; 66   : 	
; 67   : 	m_iBagObjectCount	= 0;	

  00093	8b 45 f0	 mov	 eax, DWORD PTR _this$[ebp]
  00096	c7 80 20 01 00
	00 00 00 00 00	 mov	 DWORD PTR [eax+288], 0

; 68   : 
; 69   : 	m_iRateKindCount	= 0;

  000a0	8b 45 f0	 mov	 eax, DWORD PTR _this$[ebp]
  000a3	c7 80 78 06 00
	00 00 00 00 00	 mov	 DWORD PTR [eax+1656], 0

; 70   : 
; 71   : 	if(g_TerrainManager.Size() < 1)

  000ad	b9 00 00 00 00	 mov	 ecx, OFFSET ?g_TerrainManager@@3VCTerrainManager@@A ; g_TerrainManager
  000b2	e8 00 00 00 00	 call	 ?Size@CTerrainManager@@QAE?BHXZ ; CTerrainManager::Size
  000b7	83 f8 01	 cmp	 eax, 1
  000ba	7d 0f		 jge	 SHORT $LN2@Probabilit

; 72   : 		g_TerrainManager.Load();

  000bc	68 00 00 00 00	 push	 OFFSET ??_C@_0BL@CIFNLNKN@?4?4?2data?2TerrainManager?4cfg@
  000c1	b9 00 00 00 00	 mov	 ecx, OFFSET ?g_TerrainManager@@3VCTerrainManager@@A ; g_TerrainManager
  000c6	e8 00 00 00 00	 call	 ?Load@CTerrainManager@@QAEXPBD@Z ; CTerrainManager::Load
$LN2@Probabilit:

; 73   : 
; 74   : 	if(DropMapInfo == NULL)

  000cb	8b 45 f0	 mov	 eax, DWORD PTR _this$[ebp]
  000ce	83 b8 24 01 00
	00 00		 cmp	 DWORD PTR [eax+292], 0
  000d5	75 75		 jne	 SHORT $LN3@Probabilit

; 75   : 		DropMapInfo = new CItemBagDropMapInfo[g_TerrainManager.Size()];

  000d7	b9 00 00 00 00	 mov	 ecx, OFFSET ?g_TerrainManager@@3VCTerrainManager@@A ; g_TerrainManager
  000dc	e8 00 00 00 00	 call	 ?Size@CTerrainManager@@QAE?BHXZ ; CTerrainManager::Size
  000e1	89 45 ac	 mov	 DWORD PTR $T4[ebp], eax
  000e4	33 c9		 xor	 ecx, ecx
  000e6	8b 45 ac	 mov	 eax, DWORD PTR $T4[ebp]
  000e9	ba 03 00 00 00	 mov	 edx, 3
  000ee	f7 e2		 mul	 edx
  000f0	0f 90 c1	 seto	 cl
  000f3	f7 d9		 neg	 ecx
  000f5	0b c8		 or	 ecx, eax
  000f7	51		 push	 ecx
  000f8	e8 00 00 00 00	 call	 ??_U@YAPAXI@Z		; operator new[]
  000fd	83 c4 04	 add	 esp, 4
  00100	89 45 a4	 mov	 DWORD PTR $T2[ebp], eax
  00103	c7 45 fc 00 00
	00 00		 mov	 DWORD PTR __$EHRec$[ebp+8], 0
  0010a	83 7d a4 00	 cmp	 DWORD PTR $T2[ebp], 0
  0010e	74 1c		 je	 SHORT $LN5@Probabilit
  00110	68 00 00 00 00	 push	 OFFSET ??0CItemBagDropMapInfo@@QAE@XZ ; CItemBagDropMapInfo::CItemBagDropMapInfo
  00115	8b 45 ac	 mov	 eax, DWORD PTR $T4[ebp]
  00118	50		 push	 eax
  00119	6a 03		 push	 3
  0011b	8b 4d a4	 mov	 ecx, DWORD PTR $T2[ebp]
  0011e	51		 push	 ecx
  0011f	e8 00 00 00 00	 call	 ??_H@YGXPAXIIP6EPAX0@Z@Z
  00124	8b 55 a4	 mov	 edx, DWORD PTR $T2[ebp]
  00127	89 55 a0	 mov	 DWORD PTR tv141[ebp], edx
  0012a	eb 07		 jmp	 SHORT $LN6@Probabilit
$LN5@Probabilit:
  0012c	c7 45 a0 00 00
	00 00		 mov	 DWORD PTR tv141[ebp], 0
$LN6@Probabilit:
  00133	8b 45 a0	 mov	 eax, DWORD PTR tv141[ebp]
  00136	89 45 a8	 mov	 DWORD PTR $T3[ebp], eax
  00139	c7 45 fc ff ff
	ff ff		 mov	 DWORD PTR __$EHRec$[ebp+8], -1
  00140	8b 4d f0	 mov	 ecx, DWORD PTR _this$[ebp]
  00143	8b 55 a8	 mov	 edx, DWORD PTR $T3[ebp]
  00146	89 91 24 01 00
	00		 mov	 DWORD PTR [ecx+292], edx
$LN3@Probabilit:

; 76   : 	
; 77   : //#ifdef SCRIPT_DECODE_WORK
; 78   : //	LoadItemDecode(gDirPath.GetNewPath(name));	
; 79   : //#else
; 80   : 	LoadItem(gDirPath.GetNewPath(name));	

  0014c	8b 45 08	 mov	 eax, DWORD PTR _name$[ebp]
  0014f	50		 push	 eax
  00150	b9 00 00 00 00	 mov	 ecx, OFFSET ?gDirPath@@3VCDirPath@@A ; gDirPath
  00155	e8 00 00 00 00	 call	 ?GetNewPath@CDirPath@@QAEPADPAD@Z ; CDirPath::GetNewPath
  0015a	50		 push	 eax
  0015b	8b 4d f0	 mov	 ecx, DWORD PTR _this$[ebp]
  0015e	e8 00 00 00 00	 call	 ?LoadItem@CProbabilityItemBag@@QAEXPAD@Z ; CProbabilityItemBag::LoadItem

; 81   : //#endif
; 82   : }

  00163	8b 4d f4	 mov	 ecx, DWORD PTR __$EHRec$[ebp]
  00166	64 89 0d 00 00
	00 00		 mov	 DWORD PTR fs:0, ecx
  0016d	59		 pop	 ecx
  0016e	5f		 pop	 edi
  0016f	5e		 pop	 esi
  00170	5b		 pop	 ebx
  00171	8b e5		 mov	 esp, ebp
  00173	5d		 pop	 ebp
  00174	c2 04 00	 ret	 4
_TEXT	ENDS
;	COMDAT text$x
text$x	SEGMENT
__unwindfunclet$?ProbabilityItemBagInit@CProbabilityItemBag@@QAEXPAD@Z$0:
  00000	33 db		 xor	 ebx, ebx
  00002	8b 45 ac	 mov	 eax, DWORD PTR $T4[ebp]
  00005	b9 03 00 00 00	 mov	 ecx, 3
  0000a	f7 e1		 mul	 ecx
  0000c	0f 90 c3	 seto	 bl
  0000f	f7 db		 neg	 ebx
  00011	0b d8		 or	 ebx, eax
  00013	53		 push	 ebx
  00014	8b 45 a4	 mov	 eax, DWORD PTR $T2[ebp]
  00017	50		 push	 eax
  00018	e8 00 00 00 00	 call	 ??_V@YAXPAXI@Z		; operator delete[]
  0001d	83 c4 08	 add	 esp, 8
  00020	c3		 ret	 0
  00021	cc		 int	 3
  00022	cc		 int	 3
  00023	cc		 int	 3
  00024	cc		 int	 3
  00025	cc		 int	 3
__ehhandler$?ProbabilityItemBagInit@CProbabilityItemBag@@QAEXPAD@Z:
  00026	90		 npad	 1
  00027	90		 npad	 1
  00028	8b 54 24 08	 mov	 edx, DWORD PTR [esp+8]
  0002c	8d 42 0c	 lea	 eax, DWORD PTR [edx+12]
  0002f	8b 4a 9c	 mov	 ecx, DWORD PTR [edx-100]
  00032	33 c8		 xor	 ecx, eax
  00034	e8 00 00 00 00	 call	 @__security_check_cookie@4
  00039	b8 00 00 00 00	 mov	 eax, OFFSET __ehfuncinfo$?ProbabilityItemBagInit@CProbabilityItemBag@@QAEXPAD@Z
  0003e	e9 00 00 00 00	 jmp	 ___CxxFrameHandler3
text$x	ENDS
?ProbabilityItemBagInit@CProbabilityItemBag@@QAEXPAD@Z ENDP ; CProbabilityItemBag::ProbabilityItemBagInit
; Function compile flags: /Odtp /ZI
; File C:\Mu Online\Mu-GS-Webzen-MC-10093\GameServer\ProbabilityItemBag.cpp
;	COMDAT ?GetLevel@CProbabilityItemBag@@AAEEH@Z
_TEXT	SEGMENT
_level$ = -12						; size = 4
_sub$ = -8						; size = 4
_this$ = -4						; size = 4
_n$ = 8							; size = 4
?GetLevel@CProbabilityItemBag@@AAEEH@Z PROC		; CProbabilityItemBag::GetLevel, COMDAT
; _this$ = ecx

; 279  : {

  00000	55		 push	 ebp
  00001	8b ec		 mov	 ebp, esp
  00003	83 ec 4c	 sub	 esp, 76			; 0000004cH
  00006	53		 push	 ebx
  00007	56		 push	 esi
  00008	57		 push	 edi
  00009	89 4d fc	 mov	 DWORD PTR _this$[ebp], ecx

; 280  : 	if( n < 0 || n > MAX_ITEMBAGEX-1 ) return 0;

  0000c	83 7d 08 00	 cmp	 DWORD PTR _n$[ebp], 0
  00010	7c 09		 jl	 SHORT $LN3@GetLevel
  00012	81 7d 08 95 00
	00 00		 cmp	 DWORD PTR _n$[ebp], 149	; 00000095H
  00019	7e 04		 jle	 SHORT $LN2@GetLevel
$LN3@GetLevel:
  0001b	32 c0		 xor	 al, al
  0001d	eb 72		 jmp	 SHORT $LN1@GetLevel
$LN2@GetLevel:

; 281  : 
; 282  : 	if( BagObject[n].m_minLevel == BagObject[n].m_maxLevel )

  0001f	8b 45 08	 mov	 eax, DWORD PTR _n$[ebp]
  00022	8b 4d fc	 mov	 ecx, DWORD PTR _this$[ebp]
  00025	0f b6 94 c1 2a
	01 00 00	 movzx	 edx, BYTE PTR [ecx+eax*8+298]
  0002d	8b 45 08	 mov	 eax, DWORD PTR _n$[ebp]
  00030	8b 4d fc	 mov	 ecx, DWORD PTR _this$[ebp]
  00033	0f b6 84 c1 2b
	01 00 00	 movzx	 eax, BYTE PTR [ecx+eax*8+299]
  0003b	3b d0		 cmp	 edx, eax
  0003d	75 0f		 jne	 SHORT $LN4@GetLevel

; 283  : 	{
; 284  : 		return BagObject[n].m_minLevel;

  0003f	8b 45 08	 mov	 eax, DWORD PTR _n$[ebp]
  00042	8b 4d fc	 mov	 ecx, DWORD PTR _this$[ebp]
  00045	8a 84 c1 2a 01
	00 00		 mov	 al, BYTE PTR [ecx+eax*8+298]
  0004c	eb 43		 jmp	 SHORT $LN1@GetLevel
$LN4@GetLevel:

; 285  : 	}
; 286  : 	
; 287  : 	int sub = BagObject[n].m_maxLevel - BagObject[n].m_minLevel + 1;

  0004e	8b 45 08	 mov	 eax, DWORD PTR _n$[ebp]
  00051	8b 4d fc	 mov	 ecx, DWORD PTR _this$[ebp]
  00054	0f b6 94 c1 2b
	01 00 00	 movzx	 edx, BYTE PTR [ecx+eax*8+299]
  0005c	8b 45 08	 mov	 eax, DWORD PTR _n$[ebp]
  0005f	8b 4d fc	 mov	 ecx, DWORD PTR _this$[ebp]
  00062	0f b6 84 c1 2a
	01 00 00	 movzx	 eax, BYTE PTR [ecx+eax*8+298]
  0006a	2b d0		 sub	 edx, eax
  0006c	83 c2 01	 add	 edx, 1
  0006f	89 55 f8	 mov	 DWORD PTR _sub$[ebp], edx

; 288  : 	int level = BagObject[n].m_minLevel+rand()%sub;

  00072	8b 45 08	 mov	 eax, DWORD PTR _n$[ebp]
  00075	8b 4d fc	 mov	 ecx, DWORD PTR _this$[ebp]
  00078	0f b6 b4 c1 2a
	01 00 00	 movzx	 esi, BYTE PTR [ecx+eax*8+298]
  00080	e8 00 00 00 00	 call	 _rand
  00085	99		 cdq
  00086	f7 7d f8	 idiv	 DWORD PTR _sub$[ebp]
  00089	03 f2		 add	 esi, edx
  0008b	89 75 f4	 mov	 DWORD PTR _level$[ebp], esi

; 289  : 
; 290  : 	return level;

  0008e	8a 45 f4	 mov	 al, BYTE PTR _level$[ebp]
$LN1@GetLevel:

; 291  : }

  00091	5f		 pop	 edi
  00092	5e		 pop	 esi
  00093	5b		 pop	 ebx
  00094	8b e5		 mov	 esp, ebp
  00096	5d		 pop	 ebp
  00097	c2 04 00	 ret	 4
?GetLevel@CProbabilityItemBag@@AAEEH@Z ENDP		; CProbabilityItemBag::GetLevel
_TEXT	ENDS
; Function compile flags: /Odtp /ZI
; File C:\Mu Online\Mu-GS-Webzen-MC-10093\GameServer\ProbabilityItemBag.cpp
;	COMDAT ?IsEnableEventItemDrop@CProbabilityItemBag@@AAEHH@Z
_TEXT	SEGMENT
_iLevel$ = -12						; size = 4
_iMapNumber$ = -8					; size = 4
_this$ = -4						; size = 4
_aIndex$ = 8						; size = 4
?IsEnableEventItemDrop@CProbabilityItemBag@@AAEHH@Z PROC ; CProbabilityItemBag::IsEnableEventItemDrop, COMDAT
; _this$ = ecx

; 294  : {

  00000	55		 push	 ebp
  00001	8b ec		 mov	 ebp, esp
  00003	83 ec 4c	 sub	 esp, 76			; 0000004cH
  00006	53		 push	 ebx
  00007	56		 push	 esi
  00008	57		 push	 edi
  00009	89 4d fc	 mov	 DWORD PTR _this$[ebp], ecx

; 295  : 	int iMapNumber = gObj[aIndex].MapNumber;

  0000c	69 45 08 a0 1b
	00 00		 imul	 eax, DWORD PTR _aIndex$[ebp], 7072
  00013	8b 0d 00 00 00
	00		 mov	 ecx, DWORD PTR ?gObj@@3PAVOBJECTSTRUCT@@A ; gObj
  00019	0f b6 94 01 09
	01 00 00	 movzx	 edx, BYTE PTR [ecx+eax+265]
  00021	89 55 f8	 mov	 DWORD PTR _iMapNumber$[ebp], edx

; 296  : 	
; 297  : 	if( !DropMapInfo[iMapNumber].m_bIsDrop )

  00024	6b 45 f8 03	 imul	 eax, DWORD PTR _iMapNumber$[ebp], 3
  00028	8b 4d fc	 mov	 ecx, DWORD PTR _this$[ebp]
  0002b	8b 91 24 01 00
	00		 mov	 edx, DWORD PTR [ecx+292]
  00031	0f b6 04 02	 movzx	 eax, BYTE PTR [edx+eax]
  00035	85 c0		 test	 eax, eax
  00037	75 04		 jne	 SHORT $LN2@IsEnableEv

; 298  : 	{	// 드롭수 없는 맵이다
; 299  : 		return FALSE;

  00039	33 c0		 xor	 eax, eax
  0003b	eb 4f		 jmp	 SHORT $LN1@IsEnableEv
$LN2@IsEnableEv:

; 300  : 	}
; 301  : 
; 302  : 	int iLevel = gObj[aIndex].Level;

  0003d	69 45 08 a0 1b
	00 00		 imul	 eax, DWORD PTR _aIndex$[ebp], 7072
  00044	8b 0d 00 00 00
	00		 mov	 ecx, DWORD PTR ?gObj@@3PAVOBJECTSTRUCT@@A ; gObj
  0004a	0f bf 94 01 a0
	00 00 00	 movsx	 edx, WORD PTR [ecx+eax+160]
  00052	89 55 f4	 mov	 DWORD PTR _iLevel$[ebp], edx

; 303  : 
; 304  : 	if( iLevel < DropMapInfo[iMapNumber].m_MinMonsterLevel || 

  00055	6b 45 f8 03	 imul	 eax, DWORD PTR _iMapNumber$[ebp], 3
  00059	8b 4d fc	 mov	 ecx, DWORD PTR _this$[ebp]
  0005c	8b 91 24 01 00
	00		 mov	 edx, DWORD PTR [ecx+292]
  00062	0f b6 44 02 01	 movzx	 eax, BYTE PTR [edx+eax+1]
  00067	39 45 f4	 cmp	 DWORD PTR _iLevel$[ebp], eax
  0006a	7c 17		 jl	 SHORT $LN4@IsEnableEv
  0006c	6b 45 f8 03	 imul	 eax, DWORD PTR _iMapNumber$[ebp], 3
  00070	8b 4d fc	 mov	 ecx, DWORD PTR _this$[ebp]
  00073	8b 91 24 01 00
	00		 mov	 edx, DWORD PTR [ecx+292]
  00079	0f b6 44 02 02	 movzx	 eax, BYTE PTR [edx+eax+2]
  0007e	39 45 f4	 cmp	 DWORD PTR _iLevel$[ebp], eax
  00081	7e 04		 jle	 SHORT $LN3@IsEnableEv
$LN4@IsEnableEv:

; 305  : 		iLevel > DropMapInfo[iMapNumber].m_MaxMonsterLevel )
; 306  : 	{	// 드롭 몬스터 레벨이 맞지 않다
; 307  : 		return FALSE;

  00083	33 c0		 xor	 eax, eax
  00085	eb 05		 jmp	 SHORT $LN1@IsEnableEv
$LN3@IsEnableEv:

; 308  : 	}
; 309  : 	return TRUE;	

  00087	b8 01 00 00 00	 mov	 eax, 1
$LN1@IsEnableEv:

; 310  : }

  0008c	5f		 pop	 edi
  0008d	5e		 pop	 esi
  0008e	5b		 pop	 ebx
  0008f	8b e5		 mov	 esp, ebp
  00091	5d		 pop	 ebp
  00092	c2 04 00	 ret	 4
?IsEnableEventItemDrop@CProbabilityItemBag@@AAEHH@Z ENDP ; CProbabilityItemBag::IsEnableEventItemDrop
_TEXT	ENDS
; Function compile flags: /Odtp /ZI
; File C:\Mu Online\Mu-GS-Webzen-MC-10093\GameServer\ProbabilityItemBag.h
;	COMDAT ?GetBagCount@CProbabilityItemBag@@AAEHXZ
_TEXT	SEGMENT
_this$ = -4						; size = 4
?GetBagCount@CProbabilityItemBag@@AAEHXZ PROC		; CProbabilityItemBag::GetBagCount, COMDAT
; _this$ = ecx

; 61   : 	int		GetBagCount(){return m_iBagObjectCount;}

  00000	55		 push	 ebp
  00001	8b ec		 mov	 ebp, esp
  00003	83 ec 44	 sub	 esp, 68			; 00000044H
  00006	53		 push	 ebx
  00007	56		 push	 esi
  00008	57		 push	 edi
  00009	89 4d fc	 mov	 DWORD PTR _this$[ebp], ecx
  0000c	8b 45 fc	 mov	 eax, DWORD PTR _this$[ebp]
  0000f	8b 80 20 01 00
	00		 mov	 eax, DWORD PTR [eax+288]
  00015	5f		 pop	 edi
  00016	5e		 pop	 esi
  00017	5b		 pop	 ebx
  00018	8b e5		 mov	 esp, ebp
  0001a	5d		 pop	 ebp
  0001b	c3		 ret	 0
?GetBagCount@CProbabilityItemBag@@AAEHXZ ENDP		; CProbabilityItemBag::GetBagCount
_TEXT	ENDS
; Function compile flags: /Odtp /ZI
; File C:\Mu Online\Mu-GS-Webzen-MC-10093\GameServer\ProbabilityItemBag.cpp
;	COMDAT ??1CProbabilityItemBag@@UAE@XZ
_TEXT	SEGMENT
$T1 = -72						; size = 4
_this$ = -4						; size = 4
??1CProbabilityItemBag@@UAE@XZ PROC			; CProbabilityItemBag::~CProbabilityItemBag, COMDAT
; _this$ = ecx

; 52   : {

  00000	55		 push	 ebp
  00001	8b ec		 mov	 ebp, esp
  00003	83 ec 48	 sub	 esp, 72			; 00000048H
  00006	53		 push	 ebx
  00007	56		 push	 esi
  00008	57		 push	 edi
  00009	89 4d fc	 mov	 DWORD PTR _this$[ebp], ecx
  0000c	8b 45 fc	 mov	 eax, DWORD PTR _this$[ebp]
  0000f	c7 00 00 00 00
	00		 mov	 DWORD PTR [eax], OFFSET ??_7CProbabilityItemBag@@6B@

; 53   : 	delete[] DropMapInfo;

  00015	8b 45 fc	 mov	 eax, DWORD PTR _this$[ebp]
  00018	8b 88 24 01 00
	00		 mov	 ecx, DWORD PTR [eax+292]
  0001e	89 4d b8	 mov	 DWORD PTR $T1[ebp], ecx
  00021	8b 55 b8	 mov	 edx, DWORD PTR $T1[ebp]
  00024	52		 push	 edx
  00025	e8 00 00 00 00	 call	 ??_V@YAXPAX@Z		; operator delete[]
  0002a	83 c4 04	 add	 esp, 4

; 54   : }

  0002d	5f		 pop	 edi
  0002e	5e		 pop	 esi
  0002f	5b		 pop	 ebx
  00030	8b e5		 mov	 esp, ebp
  00032	5d		 pop	 ebp
  00033	c3		 ret	 0
??1CProbabilityItemBag@@UAE@XZ ENDP			; CProbabilityItemBag::~CProbabilityItemBag
_TEXT	ENDS
; Function compile flags: /Odtp /ZI
; File C:\Mu Online\Mu-GS-Webzen-MC-10093\GameServer\ProbabilityItemBag.cpp
; File C:\Mu Online\Mu-GS-Webzen-MC-10093\GameServer\ProbabilityItemBag.h
; File C:\Mu Online\Mu-GS-Webzen-MC-10093\GameServer\ProbabilityItemBag.cpp
;	COMDAT ??0CProbabilityItemBag@@QAE@XZ
_TEXT	SEGMENT
_this$ = -4						; size = 4
??0CProbabilityItemBag@@QAE@XZ PROC			; CProbabilityItemBag::CProbabilityItemBag, COMDAT
; _this$ = ecx

; 47   : {

  00000	55		 push	 ebp
  00001	8b ec		 mov	 ebp, esp
  00003	83 ec 44	 sub	 esp, 68			; 00000044H
  00006	53		 push	 ebx
  00007	56		 push	 esi
  00008	57		 push	 edi
  00009	89 4d fc	 mov	 DWORD PTR _this$[ebp], ecx
  0000c	8b 45 fc	 mov	 eax, DWORD PTR _this$[ebp]
  0000f	c7 00 00 00 00
	00		 mov	 DWORD PTR [eax], OFFSET ??_7CProbabilityItemBag@@6B@
; File C:\Mu Online\Mu-GS-Webzen-MC-10093\GameServer\ProbabilityItemBag.h

; 48   : 	CItemBagDropMapInfo	*DropMapInfo;		// 이벤트 아이템이 드롭될 맵 정보

  00015	68 00 00 00 00	 push	 OFFSET ??0CItemBagAttrEx@@QAE@XZ ; CItemBagAttrEx::CItemBagAttrEx
  0001a	68 96 00 00 00	 push	 150			; 00000096H
  0001f	6a 08		 push	 8
  00021	8b 45 fc	 mov	 eax, DWORD PTR _this$[ebp]
  00024	05 28 01 00 00	 add	 eax, 296		; 00000128H
  00029	50		 push	 eax
  0002a	e8 00 00 00 00	 call	 ??_H@YGXPAXIIP6EPAX0@Z@Z
; File C:\Mu Online\Mu-GS-Webzen-MC-10093\GameServer\ProbabilityItemBag.cpp

; 48   : 	DropMapInfo = NULL;

  0002f	8b 45 fc	 mov	 eax, DWORD PTR _this$[ebp]
  00032	c7 80 24 01 00
	00 00 00 00 00	 mov	 DWORD PTR [eax+292], 0

; 49   : }

  0003c	8b 45 fc	 mov	 eax, DWORD PTR _this$[ebp]
  0003f	5f		 pop	 edi
  00040	5e		 pop	 esi
  00041	5b		 pop	 ebx
  00042	8b e5		 mov	 esp, ebp
  00044	5d		 pop	 ebp
  00045	c3		 ret	 0
??0CProbabilityItemBag@@QAE@XZ ENDP			; CProbabilityItemBag::CProbabilityItemBag
_TEXT	ENDS
; Function compile flags: /Odtp /ZI
; File C:\Mu Online\Mu-GS-Webzen-MC-10093\GameServer\ItemBagEx.h
;	COMDAT ?Init@CItemBagDropMapInfo@@QAEXXZ
_TEXT	SEGMENT
_this$ = -4						; size = 4
?Init@CItemBagDropMapInfo@@QAEXXZ PROC			; CItemBagDropMapInfo::Init, COMDAT
; _this$ = ecx

; 54   : 	{

  00000	55		 push	 ebp
  00001	8b ec		 mov	 ebp, esp
  00003	83 ec 44	 sub	 esp, 68			; 00000044H
  00006	53		 push	 ebx
  00007	56		 push	 esi
  00008	57		 push	 edi
  00009	89 4d fc	 mov	 DWORD PTR _this$[ebp], ecx

; 55   : 		m_bIsDrop = 0;

  0000c	8b 45 fc	 mov	 eax, DWORD PTR _this$[ebp]
  0000f	c6 00 00	 mov	 BYTE PTR [eax], 0

; 56   : 		m_MinMonsterLevel = 0;

  00012	8b 45 fc	 mov	 eax, DWORD PTR _this$[ebp]
  00015	c6 40 01 00	 mov	 BYTE PTR [eax+1], 0

; 57   : 		m_MaxMonsterLevel = 0;

  00019	8b 45 fc	 mov	 eax, DWORD PTR _this$[ebp]
  0001c	c6 40 02 00	 mov	 BYTE PTR [eax+2], 0

; 58   : 	}

  00020	5f		 pop	 edi
  00021	5e		 pop	 esi
  00022	5b		 pop	 ebx
  00023	8b e5		 mov	 esp, ebp
  00025	5d		 pop	 ebp
  00026	c3		 ret	 0
?Init@CItemBagDropMapInfo@@QAEXXZ ENDP			; CItemBagDropMapInfo::Init
_TEXT	ENDS
; Function compile flags: /Odtp /ZI
; File C:\Mu Online\Mu-GS-Webzen-MC-10093\GameServer\ItemBagEx.h
;	COMDAT ??0CItemBagDropMapInfo@@QAE@XZ
_TEXT	SEGMENT
_this$ = -4						; size = 4
??0CItemBagDropMapInfo@@QAE@XZ PROC			; CItemBagDropMapInfo::CItemBagDropMapInfo, COMDAT
; _this$ = ecx

; 48   : 	CItemBagDropMapInfo()

  00000	55		 push	 ebp
  00001	8b ec		 mov	 ebp, esp
  00003	83 ec 44	 sub	 esp, 68			; 00000044H
  00006	53		 push	 ebx
  00007	56		 push	 esi
  00008	57		 push	 edi
  00009	89 4d fc	 mov	 DWORD PTR _this$[ebp], ecx

; 49   : 	{		
; 50   : 		Init();

  0000c	8b 4d fc	 mov	 ecx, DWORD PTR _this$[ebp]
  0000f	e8 00 00 00 00	 call	 ?Init@CItemBagDropMapInfo@@QAEXXZ ; CItemBagDropMapInfo::Init

; 51   : 	}

  00014	8b 45 fc	 mov	 eax, DWORD PTR _this$[ebp]
  00017	5f		 pop	 edi
  00018	5e		 pop	 esi
  00019	5b		 pop	 ebx
  0001a	8b e5		 mov	 esp, ebp
  0001c	5d		 pop	 ebp
  0001d	c3		 ret	 0
??0CItemBagDropMapInfo@@QAE@XZ ENDP			; CItemBagDropMapInfo::CItemBagDropMapInfo
_TEXT	ENDS
; Function compile flags: /Odtp /ZI
; File C:\Mu Online\Mu-GS-Webzen-MC-10093\GameServer\ItemBagEx.h
;	COMDAT ??0CItemBagAttrEx@@QAE@XZ
_TEXT	SEGMENT
_this$ = -4						; size = 4
??0CItemBagAttrEx@@QAE@XZ PROC				; CItemBagAttrEx::CItemBagAttrEx, COMDAT
; _this$ = ecx

; 28   : 	CItemBagAttrEx()

  00000	55		 push	 ebp
  00001	8b ec		 mov	 ebp, esp
  00003	83 ec 44	 sub	 esp, 68			; 00000044H
  00006	53		 push	 ebx
  00007	56		 push	 esi
  00008	57		 push	 edi
  00009	89 4d fc	 mov	 DWORD PTR _this$[ebp], ecx

; 29   : 	{
; 30   : 		m_type  =0;

  0000c	8b 45 fc	 mov	 eax, DWORD PTR _this$[ebp]
  0000f	c6 00 00	 mov	 BYTE PTR [eax], 0

; 31   : 		m_index  =0;

  00012	8b 45 fc	 mov	 eax, DWORD PTR _this$[ebp]
  00015	c6 40 01 00	 mov	 BYTE PTR [eax+1], 0

; 32   : 		m_minLevel  =0;

  00019	8b 45 fc	 mov	 eax, DWORD PTR _this$[ebp]
  0001c	c6 40 02 00	 mov	 BYTE PTR [eax+2], 0

; 33   : 		m_maxLevel  =0;

  00020	8b 45 fc	 mov	 eax, DWORD PTR _this$[ebp]
  00023	c6 40 03 00	 mov	 BYTE PTR [eax+3], 0

; 34   : 		m_isskill  =0;

  00027	8b 45 fc	 mov	 eax, DWORD PTR _this$[ebp]
  0002a	c6 40 04 00	 mov	 BYTE PTR [eax+4], 0

; 35   : 		m_isluck  =0;

  0002e	8b 45 fc	 mov	 eax, DWORD PTR _this$[ebp]
  00031	c6 40 05 00	 mov	 BYTE PTR [eax+5], 0

; 36   : 		m_isoption  =0;

  00035	8b 45 fc	 mov	 eax, DWORD PTR _this$[ebp]
  00038	c6 40 06 00	 mov	 BYTE PTR [eax+6], 0

; 37   : 		m_isexitem = 0;

  0003c	8b 45 fc	 mov	 eax, DWORD PTR _this$[ebp]
  0003f	c6 40 07 00	 mov	 BYTE PTR [eax+7], 0

; 38   : 	}

  00043	8b 45 fc	 mov	 eax, DWORD PTR _this$[ebp]
  00046	5f		 pop	 edi
  00047	5e		 pop	 esi
  00048	5b		 pop	 ebx
  00049	8b e5		 mov	 esp, ebp
  0004b	5d		 pop	 ebp
  0004c	c3		 ret	 0
??0CItemBagAttrEx@@QAE@XZ ENDP				; CItemBagAttrEx::CItemBagAttrEx
_TEXT	ENDS
; Function compile flags: /Odtp /ZI
; File C:\Mu Online\Mu-GS-Webzen-MC-10093\GameServer\TerrainManager.h
;	COMDAT ?Size@CTerrainManager@@QAE?BHXZ
_TEXT	SEGMENT
_this$ = -4						; size = 4
?Size@CTerrainManager@@QAE?BHXZ PROC			; CTerrainManager::Size, COMDAT
; _this$ = ecx

; 22   : 	{

  00000	55		 push	 ebp
  00001	8b ec		 mov	 ebp, esp
  00003	83 ec 44	 sub	 esp, 68			; 00000044H
  00006	53		 push	 ebx
  00007	56		 push	 esi
  00008	57		 push	 edi
  00009	89 4d fc	 mov	 DWORD PTR _this$[ebp], ecx

; 23   : 		return m_iSize;

  0000c	8b 45 fc	 mov	 eax, DWORD PTR _this$[ebp]
  0000f	8b 40 08	 mov	 eax, DWORD PTR [eax+8]

; 24   : 	}

  00012	5f		 pop	 edi
  00013	5e		 pop	 esi
  00014	5b		 pop	 ebx
  00015	8b e5		 mov	 esp, ebp
  00017	5d		 pop	 ebp
  00018	c3		 ret	 0
?Size@CTerrainManager@@QAE?BHXZ ENDP			; CTerrainManager::Size
_TEXT	ENDS
; Function compile flags: /Odtp /ZI
; File C:\Mu Online\Mu-GS-Webzen-MC-10093\GameServer\ProbabilityItemBag.cpp
;	COMDAT ?__empty_global_delete@@YAXPAXI@Z
_TEXT	SEGMENT
___formal$ = 8						; size = 4
___formal$ = 12						; size = 4
?__empty_global_delete@@YAXPAXI@Z PROC			; __empty_global_delete, COMDAT

  00000	55		 push	 ebp
  00001	8b ec		 mov	 ebp, esp
  00003	83 ec 40	 sub	 esp, 64			; 00000040H
  00006	53		 push	 ebx
  00007	56		 push	 esi
  00008	57		 push	 edi
  00009	5f		 pop	 edi
  0000a	5e		 pop	 esi
  0000b	5b		 pop	 ebx
  0000c	8b e5		 mov	 esp, ebp
  0000e	5d		 pop	 ebp
  0000f	c3		 ret	 0
?__empty_global_delete@@YAXPAXI@Z ENDP			; __empty_global_delete
_TEXT	ENDS
; Function compile flags: /Odtp /ZI
; File C:\Mu Online\Mu-GS-Webzen-MC-10093\GameServer\ProbabilityItemBag.cpp
;	COMDAT ?__empty_global_delete@@YAXPAX@Z
_TEXT	SEGMENT
___formal$ = 8						; size = 4
?__empty_global_delete@@YAXPAX@Z PROC			; __empty_global_delete, COMDAT

  00000	55		 push	 ebp
  00001	8b ec		 mov	 ebp, esp
  00003	83 ec 40	 sub	 esp, 64			; 00000040H
  00006	53		 push	 ebx
  00007	56		 push	 esi
  00008	57		 push	 edi
  00009	5f		 pop	 edi
  0000a	5e		 pop	 esi
  0000b	5b		 pop	 ebx
  0000c	8b e5		 mov	 esp, ebp
  0000e	5d		 pop	 ebp
  0000f	c3		 ret	 0
?__empty_global_delete@@YAXPAX@Z ENDP			; __empty_global_delete
_TEXT	ENDS
; Function compile flags: /Odtp /ZI
;	COMDAT ??_H@YGXPAXIIP6EPAX0@Z@Z
_TEXT	SEGMENT
tv66 = -68						; size = 4
___t$ = 8						; size = 4
___s$ = 12						; size = 4
___n$ = 16						; size = 4
___f$ = 20						; size = 4
??_H@YGXPAXIIP6EPAX0@Z@Z PROC				; `vector constructor iterator', COMDAT
  00000	55		 push	 ebp
  00001	8b ec		 mov	 ebp, esp
  00003	83 ec 44	 sub	 esp, 68			; 00000044H
  00006	53		 push	 ebx
  00007	56		 push	 esi
  00008	57		 push	 edi
$LN2@vector:
  00009	8b 45 10	 mov	 eax, DWORD PTR ___n$[ebp]
  0000c	89 45 bc	 mov	 DWORD PTR tv66[ebp], eax
  0000f	8b 4d 10	 mov	 ecx, DWORD PTR ___n$[ebp]
  00012	83 e9 01	 sub	 ecx, 1
  00015	89 4d 10	 mov	 DWORD PTR ___n$[ebp], ecx
  00018	83 7d bc 00	 cmp	 DWORD PTR tv66[ebp], 0
  0001c	76 11		 jbe	 SHORT $LN1@vector
  0001e	8b 4d 08	 mov	 ecx, DWORD PTR ___t$[ebp]
  00021	ff 55 14	 call	 DWORD PTR ___f$[ebp]
  00024	8b 45 08	 mov	 eax, DWORD PTR ___t$[ebp]
  00027	03 45 0c	 add	 eax, DWORD PTR ___s$[ebp]
  0002a	89 45 08	 mov	 DWORD PTR ___t$[ebp], eax
  0002d	eb da		 jmp	 SHORT $LN2@vector
$LN1@vector:
  0002f	5f		 pop	 edi
  00030	5e		 pop	 esi
  00031	5b		 pop	 ebx
  00032	8b e5		 mov	 esp, ebp
  00034	5d		 pop	 ebp
  00035	c2 10 00	 ret	 16			; 00000010H
??_H@YGXPAXIIP6EPAX0@Z@Z ENDP				; `vector constructor iterator'
_TEXT	ENDS
END
