; Listing generated by Microsoft (R) Optimizing Compiler Version 19.27.29111.0 

	TITLE	C:\Mu Online\Mu-GS-Webzen-MC-10093\GameServer\protocol.cpp
	.686P
	.XMM
	include listing.inc
	.model	flat

INCLUDELIB LIBCMT
INCLUDELIB OLDNAMES

PUBLIC	?tempindex@@3HA					; tempindex
PUBLIC	?logincounttest@@3HA				; logincounttest
PUBLIC	?ltesttime@@3HA					; ltesttime
_BSS	SEGMENT
?tempindex@@3HA DD 01H DUP (?)				; tempindex
?logincounttest@@3HA DD 01H DUP (?)			; logincounttest
?ltesttime@@3HA DD 01H DUP (?)				; ltesttime
_BSS	ENDS
PUBLIC	?__empty_global_delete@@YAXPAX@Z		; __empty_global_delete
PUBLIC	?__empty_global_delete@@YAXPAXI@Z		; __empty_global_delete
PUBLIC	___local_stdio_printf_options
PUBLIC	__vsnprintf_l
PUBLIC	__vsprintf_l
PUBLIC	_vsprintf
PUBLIC	_sprintf
PUBLIC	?set@PBMSG_HEAD@@QAEXPAEEE@Z			; PBMSG_HEAD::set
PUBLIC	?IsValidDurationTime@TDurMagicKeyChecker@@QAEHE@Z ; TDurMagicKeyChecker::IsValidDurationTime
PUBLIC	?IsValidCount@TDurMagicKeyChecker@@QAEHE@Z	; TDurMagicKeyChecker::IsValidCount
PUBLIC	?SetDurationTime@TDurMagicKeyChecker@@QAEXEK@Z	; TDurMagicKeyChecker::SetDurationTime
PUBLIC	?GetValidDurationTime@TDurMagicKeyChecker@@QAEHE@Z ; TDurMagicKeyChecker::GetValidDurationTime
PUBLIC	?GetValidCount@TDurMagicKeyChecker@@QAEHE@Z	; TDurMagicKeyChecker::GetValidCount
PUBLIC	?CheckAuthority@@YA_NKPAVOBJECTSTRUCT@@@Z	; CheckAuthority
PUBLIC	?ObjectMapJoinPositionSend@@YAXF@Z		; ObjectMapJoinPositionSend
PUBLIC	?GCCloseMsgSend@@YAXHE@Z			; GCCloseMsgSend
PUBLIC	?CGPShopAnsOpen@@YAXHE@Z			; CGPShopAnsOpen
PUBLIC	?CGPShopAnsBuyItem@@YAXHHHE@Z			; CGPShopAnsBuyItem
PUBLIC	?CGPShopReqBuyItem@@YAXPAUPMSG_REQ_BUYITEM_FROM_PSHOP@@H@Z ; CGPShopReqBuyItem
PUBLIC	?CGPShopAnsClose@@YAXHE@Z			; CGPShopAnsClose
PUBLIC	?vChatSend@@YAXPAVOBJECTSTRUCT@@PADZZ		; vChatSend
PUBLIC	?ChatSend@@YAXPAVOBJECTSTRUCT@@PAD@Z		; ChatSend
PUBLIC	?PMoveProc@@YAXPAUPMSG_MOVE@@H@Z		; PMoveProc
PUBLIC	?GCServerMsgStringSend@@YAXPADHE@Z		; GCServerMsgStringSend
PUBLIC	?GCServerMsgStringSendGuild@@YAXPAU_GUILD_INFO_STRUCT@@PADE@Z ; GCServerMsgStringSendGuild
PUBLIC	?ChatTargetSend@@YAXPAVOBJECTSTRUCT@@PADH@Z	; ChatTargetSend
PUBLIC	?GCEventStateSend@@YAXHEE@Z			; GCEventStateSend
PUBLIC	?GCMapEventStateSend@@YAXHEE@Z			; GCMapEventStateSend
PUBLIC	?AllSendServerMsg@@YAXPAD@Z			; AllSendServerMsg
PUBLIC	?MsgSendV2@@YAXPAVOBJECTSTRUCT@@PAEH@Z		; MsgSendV2
PUBLIC	?GCCheckMainExeKeySend@@YAXH@Z			; GCCheckMainExeKeySend
PUBLIC	?DataSendAll@@YAXPAEH@Z				; DataSendAll
PUBLIC	?GCResultSend@@YAXHEE@Z				; GCResultSend
PUBLIC	?RecvPositionSetProc@@YAXPAUPMSG_POSISTION_SET@@H@Z ; RecvPositionSetProc
PUBLIC	?CGActionRecv@@YAXPAUPMSG_ACTION@@H@Z		; CGActionRecv
PUBLIC	?ProtocolCore@@YAXEPAEHHHH@Z			; ProtocolCore
PUBLIC	?SCPJoinResultSend@@YAXHE@Z			; SCPJoinResultSend
PUBLIC	?GCReFillSend@@YAXHGEE@Z			; GCReFillSend
PUBLIC	?CGWeatherSend@@YAXHE@Z				; CGWeatherSend
PUBLIC	?CGAttack@@YAXPAUPMSG_ATTACK@@H@Z		; CGAttack
PUBLIC	?CGMagicAttack@@YAXPAUPMSG_MAGICATTACK@@H@Z	; CGMagicAttack
PUBLIC	?GCLevelUpMsgSend@@YAXHGGGGGFF@Z		; GCLevelUpMsgSend
PUBLIC	?GCManaSend@@YAXHFEEG@Z				; GCManaSend
PUBLIC	?GCDiePlayerSend@@YAXPAVOBJECTSTRUCT@@HEH@Z	; GCDiePlayerSend
PUBLIC	?GCDamageSend@@YAXHHHHH@Z			; GCDamageSend
PUBLIC	?GCDamageSend@@YAXHH@Z				; GCDamageSend
PUBLIC	?GCMagicCancelSend@@YAXPAVOBJECTSTRUCT@@E@Z	; GCMagicCancelSend
PUBLIC	?GCTeleportSend@@YAXPAVOBJECTSTRUCT@@EEEEE@Z	; GCTeleportSend
PUBLIC	?GCMagicListOneSend@@YAXHDEEE@Z			; GCMagicListOneSend
PUBLIC	?GCMagicListOneDelSend@@YAXHDEEE@Z		; GCMagicListOneDelSend
PUBLIC	?GCMagicListMultiSend@@YAXPAVOBJECTSTRUCT@@@Z	; GCMagicListMultiSend
PUBLIC	?CGBeattackRecv@@YAXPAEHH@Z			; CGBeattackRecv
PUBLIC	?CGDurationMagicRecv@@YAXPAUPMSG_DURATION_MAGIC_RECV@@H@Z ; CGDurationMagicRecv
PUBLIC	?GCKillPlayerExpSend@@YAXHHHHH@Z		; GCKillPlayerExpSend
PUBLIC	?GCActionSend@@YAXPAVOBJECTSTRUCT@@EH@Z		; GCActionSend
PUBLIC	?GCActionSend2@@YAXPAVOBJECTSTRUCT@@EHH@Z	; GCActionSend2
PUBLIC	?GCMagicAttackNumberSend@@YAXPAVOBJECTSTRUCT@@EHE@Z ; GCMagicAttackNumberSend
PUBLIC	?CGPartyRequestRecv@@YAXPAUPMSG_PARTYREQUEST@@H@Z ; CGPartyRequestRecv
PUBLIC	?GCGuildMasterQuestionSend@@YAXH@Z		; GCGuildMasterQuestionSend
PUBLIC	?GCGuildDelUserResult@@YAXHE@Z			; GCGuildDelUserResult
PUBLIC	?GCGuildViewportNowPaint@@YAXHPADPAE@Z		; GCGuildViewportNowPaint
PUBLIC	?GCGuildViewportDelNow@@YAXH@Z			; GCGuildViewportDelNow
PUBLIC	?GCManagerGuildWarEnd@@YAXPAD@Z			; GCManagerGuildWarEnd
PUBLIC	?GCManagerGuildWarSet@@YAXPAD0H@Z		; GCManagerGuildWarSet
PUBLIC	?GCGuildWarRequestSend@@YAXPADHH@Z		; GCGuildWarRequestSend
PUBLIC	?GCGuildWarEnd@@YAXHEPAD@Z			; GCGuildWarEnd
PUBLIC	?GCGuildWarRequestResult@@YAXPADHH@Z		; GCGuildWarRequestResult
PUBLIC	?GCGuildWarScore@@YAXH@Z			; GCGuildWarScore
PUBLIC	?GCGuildWarDeclare@@YAXHPAD@Z			; GCGuildWarDeclare
PUBLIC	?GCTradeOtherAdd@@YAHHEEEEEE@Z			; GCTradeOtherAdd
PUBLIC	?GCTradeOtherDel@@YAHHE@Z			; GCTradeOtherDel
PUBLIC	?CGTradeResult@@YAXHE@Z				; CGTradeResult
PUBLIC	?CGTradeCancelButtonRecv@@YAXH@Z		; CGTradeCancelButtonRecv
PUBLIC	?GCItemInventoryPutSend@@YAXHEEE@Z		; GCItemInventoryPutSend
PUBLIC	?CGItemDropRequest@@YAHPAUPMSG_ITEMTHROW@@HH@Z	; CGItemDropRequest
PUBLIC	?GCPkLevelSend@@YAXHE@Z				; GCPkLevelSend
PUBLIC	?GCMoneySend@@YAXHK@Z				; GCMoneySend
PUBLIC	?GCEquipmentSend@@YAXH@Z			; GCEquipmentSend
PUBLIC	?GCEquipmentChange@@YAXHH@Z			; GCEquipmentChange
PUBLIC	?CGPartyDelUser@@YAXPAUPMSG_PARTYDELUSER@@H@Z	; CGPartyDelUser
PUBLIC	?GCInventoryItemOneSend@@YAXHH@Z		; GCInventoryItemOneSend
PUBLIC	?GCItemUseSpecialTimeSend@@YAXHEH@Z		; GCItemUseSpecialTimeSend
PUBLIC	?GCItemDurSend@@YAXHEEE@Z			; GCItemDurSend
PUBLIC	?GCItemDurSend2@@YAXHEEE@Z			; GCItemDurSend2
PUBLIC	?GCInventoryItemDeleteSend@@YAXHEE@Z		; GCInventoryItemDeleteSend
PUBLIC	?GCJoinResult@@YAXEH@Z				; GCJoinResult
PUBLIC	?GCJoinSocketResult@@YAXEI@Z			; GCJoinSocketResult
PUBLIC	?GCJoinBillCheckSend@@YAXPADH@Z			; GCJoinBillCheckSend
PUBLIC	?GCUserWarehouseSend@@YAXPAVOBJECTSTRUCT@@@Z	; GCUserWarehouseSend
PUBLIC	?CGWarehouseUseEnd@@YAXH@Z			; CGWarehouseUseEnd
PUBLIC	?GCRecallMonLife@@YAXHHH@Z			; GCRecallMonLife
PUBLIC	?GCTimeViewSend@@YAXHH@Z			; GCTimeViewSend
PUBLIC	?GCGoalSend@@YAXHPADE0E@Z			; GCGoalSend
PUBLIC	?GCSkillKeySend@@YAXHPAEEEEEE@Z			; GCSkillKeySend
PUBLIC	?GCUserChaosBoxSend@@YAXPAVOBJECTSTRUCT@@H@Z	; GCUserChaosBoxSend
PUBLIC	?GCServerCmd@@YAXHEEE@Z				; GCServerCmd
PUBLIC	?GCReqDevilSquareRemainTime@@YAXPAUPMSG_REQ_DEVILSQUARE_REMAINTIME@@H@Z ; GCReqDevilSquareRemainTime
PUBLIC	?AllSendMsg@@YAXPAEH@Z				; AllSendMsg
PUBLIC	?AllSendSameMapMsg@@YAXPAEHE@Z			; AllSendSameMapMsg
PUBLIC	?GCSendPing@@YAXH@Z				; GCSendPing
PUBLIC	?GCWarehouseStateSend@@YAXHE@Z			; GCWarehouseStateSend
PUBLIC	?GCSendQuestInfo@@YAXHH@Z			; GCSendQuestInfo
PUBLIC	?GCSendQuestPrize@@YAXHEE@Z			; GCSendQuestPrize
PUBLIC	?GCStateInfoSend@@YAXPAVOBJECTSTRUCT@@EG@Z	; GCStateInfoSend
PUBLIC	?CGInventoryItemMove@@YAXPAUPMSG_INVENTORYITEMMOVE@@H@Z ; CGInventoryItemMove
PUBLIC	?GCItemMoveResultSend@@YAXHEEQAE@Z		; GCItemMoveResultSend
PUBLIC	?CGRequestQuestInfo@@YAXH@Z			; CGRequestQuestInfo
PUBLIC	?CGDuelStartRequestRecv@@YAXPAUPMSG_REQ_START_DUEL@@H@Z ; CGDuelStartRequestRecv
PUBLIC	?CGDuelEndRequestRecv@@YAXPAUPMSG_REQ_END_DUEL@@H@Z ; CGDuelEndRequestRecv
PUBLIC	?CGDuelOkRequestRecv@@YAXPAUPMSG_ANS_DUEL_OK@@H@Z ; CGDuelOkRequestRecv
PUBLIC	?GCSendDuelScore@@YAXHH@Z			; GCSendDuelScore
PUBLIC	?CGItemGetRequest@@YAXPAUPMSG_ITEMGETREQUEST@@H@Z ; CGItemGetRequest
PUBLIC	?GCSendEffectInfo@@YAXHE@Z			; GCSendEffectInfo
PUBLIC	?CGUseItemRecv@@YAXPAUPMSG_USEITEM@@H@Z		; CGUseItemRecv
PUBLIC	?_ARGB@@YAKEEEE@Z				; _ARGB
PUBLIC	?Size@CTerrainManager@@QAE?BHXZ			; CTerrainManager::Size
PUBLIC	?GetState@CDevilSquare@@QAE?AW4eDevilSquareState@@XZ ; CDevilSquare::GetState
PUBLIC	?GetRemainTime@CDevilSquare@@QAEHXZ		; CDevilSquare::GetRemainTime
PUBLIC	?GetQeustCount@CQuestInfo@@QAEHXZ		; CQuestInfo::GetQeustCount
PUBLIC	?TalkRefDel@CQeustNpcTeleport@@QAEXXZ		; CQeustNpcTeleport::TalkRefDel
PUBLIC	?PChatProc@@YAXPAUPMSG_CHATDATA@@F@Z		; PChatProc
PUBLIC	?CGChatRecv@@YAXPAUPMSG_CHATDATA_NUMBER@@H@Z	; CGChatRecv
PUBLIC	?CGChatWhisperRecv@@YAXPAUPMSG_CHATDATA_WHISPER@@H@Z ; CGChatWhisperRecv
PUBLIC	?CGLiveClient@@YAXPAUPMSG_CLIENTTIME@@F@Z	; CGLiveClient
PUBLIC	?CGCheckMainRecv@@YAXPAUPMSG_CHECK_MAINEXE_RESULT@@H@Z ; CGCheckMainRecv
PUBLIC	?CGClientMsg@@YAXPAUPMSG_CLIENTMSG@@H@Z		; CGClientMsg
PUBLIC	?PEchoProc@@YAXPAEHF@Z				; PEchoProc
PUBLIC	?CSPJoinIdPassRequest@@YAXPAUPMSG_IDPASS@@H@Z	; CSPJoinIdPassRequest
PUBLIC	?CGPCharacterCreate@@YAXPAUPMSG_CHARCREATE@@H@Z	; CGPCharacterCreate
PUBLIC	?CGPCharDel@@YAXPAUPMSG_CHARDELETE@@H@Z		; CGPCharDel
PUBLIC	?CGPCharacterMapJoinRequest@@YAXPAUPMSG_CHARMAPJOIN@@H@Z ; CGPCharacterMapJoinRequest
PUBLIC	?CGTalkRequestRecv@@YAXPAUPMSG_TALKREQUEST@@H@Z	; CGTalkRequestRecv
PUBLIC	?CGBuyRequestRecv@@YAXPAUPMSG_BUYREQUEST@@H@Z	; CGBuyRequestRecv
PUBLIC	?CGSellRequestRecv@@YAXPAUPMSG_SELLREQUEST@@H@Z	; CGSellRequestRecv
PUBLIC	?CGModifyRequestItem@@YAXPAUPMSG_ITEMDURREPAIR@@H@Z ; CGModifyRequestItem
PUBLIC	?CGLevelUpPointAdd@@YAXPAUPMSG_LVPOINTADD@@H@Z	; CGLevelUpPointAdd
PUBLIC	?CGTeleportRecv@@YAXPAUPMSG_TELEPORT@@H@Z	; CGTeleportRecv
PUBLIC	?CGPartyList@@YAXH@Z				; CGPartyList
PUBLIC	?CGPartyListAll@@YAXH@Z				; CGPartyListAll
PUBLIC	?CGPartyRequestResultRecv@@YAXPAUPMSG_PARTYREQUESTRESULT@@H@Z ; CGPartyRequestResultRecv
PUBLIC	?CGPShopReqSetItemPrice@@YAXPAUPMSG_REQ_PSHOP_SETITEMPRICE@@H@Z ; CGPShopReqSetItemPrice
PUBLIC	?CGPShopAnsSetItemPrice@@YAXHEE@Z		; CGPShopAnsSetItemPrice
PUBLIC	?CGPShopReqOpen@@YAXPAUPMSG_REQ_PSHOP_OPEN@@H@Z	; CGPShopReqOpen
PUBLIC	?CGPShopReqClose@@YAXH@Z			; CGPShopReqClose
PUBLIC	?CGPShopReqBuyList@@YAXPAUPMSG_REQ_BUYLIST_FROM_PSHOP@@H@Z ; CGPShopReqBuyList
PUBLIC	?CGPShopAnsBuyList@@YAXHHE_N@Z			; CGPShopAnsBuyList
PUBLIC	?CGPShopAnsSoldItem@@YAXHHH@Z			; CGPShopAnsSoldItem
PUBLIC	?CGPShopReqCloseDeal@@YAXPAUPMSG_REQ_PSHOPDEAL_CLOSE@@H@Z ; CGPShopReqCloseDeal
PUBLIC	?CGPShopAnsDealerClosedShop@@YAXHH@Z		; CGPShopAnsDealerClosedShop
PUBLIC	?CGGuildRequestRecv@@YAXPAUPMSG_GUILDJOINQ@@H@Z	; CGGuildRequestRecv
PUBLIC	?CGGuildRequestResultRecv@@YAXPAUPMSG_GUILDQRESULT@@H@Z ; CGGuildRequestResultRecv
PUBLIC	?CGGuildMasterAnswerRecv@@YAXPAUPMSG_GUILDMASTERANSWER@@H@Z ; CGGuildMasterAnswerRecv
PUBLIC	?CGGuildListAll@@YAXH@Z				; CGGuildListAll
PUBLIC	?CGGuildMasterInfoSave@@YAXHPAUPMSG_GUILDINFOSAVE@@@Z ; CGGuildMasterInfoSave
PUBLIC	?GCGuildMasterManagerRun@@YAXH@Z		; GCGuildMasterManagerRun
PUBLIC	?CGGuildDelUser@@YAXPAUPMSG_GUILDDELUSER@@H@Z	; CGGuildDelUser
PUBLIC	?CGGuildMasterCreateCancel@@YAXH@Z		; CGGuildMasterCreateCancel
PUBLIC	?GCGuildWarRequestSendRecv@@YAXPAUPMSG_GUILDWARSEND_RESULT@@H@Z ; GCGuildWarRequestSendRecv
PUBLIC	?GCPartyDelUserSend@@YAXH@Z			; GCPartyDelUserSend
PUBLIC	?CGTradeRequestSend@@YAXPAUPMSG_TRADE_REQUEST@@H@Z ; CGTradeRequestSend
PUBLIC	?GCTradeResponseSend@@YAHEHPADGH@Z		; GCTradeResponseSend
PUBLIC	?CGTradeMoneyRecv@@YAXPAUPMSG_TRADE_GOLD@@H@Z	; CGTradeMoneyRecv
PUBLIC	?CGTradeResponseRecv@@YAXPAUPMSG_TRADE_RESPONSE@@H@Z ; CGTradeResponseRecv
PUBLIC	?GCTradeMoneyOther@@YAHHK@Z			; GCTradeMoneyOther
PUBLIC	?GCTradeOkButtonSend@@YAHHE@Z			; GCTradeOkButtonSend
PUBLIC	?CGTradeOkButtonRecv@@YAXPAUPMSG_TRADE_OKBUTTON@@H@Z ; CGTradeOkButtonRecv
PUBLIC	?CGClientCloseMsg@@YAXPAUPMSG_CLIENTCLOSE@@H@Z	; CGClientCloseMsg
PUBLIC	?CGWarehouseMoneyInOut@@YAXHPAUPMSG_WAREHOUSEMONEYINOUT@@@Z ; CGWarehouseMoneyInOut
PUBLIC	?GCWarehouseInventoryMoneySend@@YAXHEHH@Z	; GCWarehouseInventoryMoneySend
PUBLIC	?CGChaosBoxItemMixButtonClick@@YAXPAUPMSG_CHAOSMIX@@H@Z ; CGChaosBoxItemMixButtonClick
PUBLIC	?CGChaosBoxUseEnd@@YAXH@Z			; CGChaosBoxUseEnd
PUBLIC	?GCSkillKeyRecv@@YAXPAUPMSG_SKILLKEY@@H@Z	; GCSkillKeyRecv
PUBLIC	?GCRegEventChipRecv@@YAXPAUPMSG_REGEVENTCHIP@@H@Z ; GCRegEventChipRecv
PUBLIC	?GCGetMutoNumRecv@@YAXPAUPMSG_GETMUTONUMBER@@H@Z ; GCGetMutoNumRecv
PUBLIC	?GCUseEndEventChipRescv@@YAXH@Z			; GCUseEndEventChipRescv
PUBLIC	?GCUseRenaChangeZenRecv@@YAXPAUPMSG_EXCHANGE_EVENTCHIP@@H@Z ; GCUseRenaChangeZenRecv
PUBLIC	?GCReqmoveDevilSquare@@YAXPAUPMSG_REQ_MOVEDEVILSQUARE@@H@Z ; GCReqmoveDevilSquare
PUBLIC	?GCWarehouseRecivePassword@@YAXHPAUPMSG_WAREHOUSEPASSSEND@@@Z ; GCWarehouseRecivePassword
PUBLIC	?GCPingSendRecv@@YAXPAUPMSG_PING_RESULT@@H@Z	; GCPingSendRecv
PUBLIC	?GCPacketCheckSumRecv@@YAXPAUPMSG_PACKETCHECKSUM@@H@Z ; GCPacketCheckSumRecv
PUBLIC	?CGSetQuestState@@YAXPAUPMSG_SETQUEST@@H@Z	; CGSetQuestState
PUBLIC	?CGRequestEnterBloodCastle@@YAXPAUPMSG_REQ_MOVEBLOODCASTLE@@H@Z ; CGRequestEnterBloodCastle
PUBLIC	?CGRequestEnterChaosCastle@@YAXPAUPMSG_REQ_MOVECHAOSCASTLE@@H@Z ; CGRequestEnterChaosCastle
PUBLIC	?CGRequestRepositionUserInChaosCastle@@YAXPAUPMSG_REQ_REPOSUSER_IN_CC@@H@Z ; CGRequestRepositionUserInChaosCastle
PUBLIC	?CGRequestEventEnterCount@@YAXPAUPMSG_REQ_CL_ENTERCOUNT@@H@Z ; CGRequestEventEnterCount
PUBLIC	?CGRequestLottoRegister@@YAXPAUPMSG_REQ_2ANV_LOTTO_EVENT@@H@Z ; CGRequestLottoRegister
PUBLIC	?CGTargetTeleportRecv@@YAXPAUPMSG_TARGET_TELEPORT@@H@Z ; CGTargetTeleportRecv
PUBLIC	?CGRequestPetItemCommand@@YAXPAUPMSG_REQUEST_PET_ITEM_COMMAND@@H@Z ; CGRequestPetItemCommand
PUBLIC	?CGRequestPetItemInfo@@YAXPAUPMSG_REQUEST_PET_ITEMINFO@@H@Z ; CGRequestPetItemInfo
PUBLIC	?CGCloseWindow@@YAXH@Z				; CGCloseWindow
PUBLIC	?PacketCheckTime@@YAHPAVOBJECTSTRUCT@@@Z	; PacketCheckTime
PUBLIC	?DataEncryptCheck@@YAHHEH@Z			; DataEncryptCheck
PUBLIC	?TestSend@@YAXXZ				; TestSend
PUBLIC	?EncryptCheckSumKey@@YAGG@Z			; EncryptCheckSumKey
PUBLIC	?GCServerMsgSend@@YAXEH@Z			; GCServerMsgSend
PUBLIC	?CSPJoinIdPassRequestTEST@@YAXPAUPMSG_IDPASS@@H@Z ; CSPJoinIdPassRequestTEST
PUBLIC	?GetNeedMoneyItemDurRepaire@@YAHPAVCItem@@H@Z	; GetNeedMoneyItemDurRepaire
PUBLIC	?ItemDurRepaire@@YAXPAVOBJECTSTRUCT@@PAVCItem@@HH@Z ; ItemDurRepaire
PUBLIC	?_OptionsStorage@?1??__local_stdio_printf_options@@9@4_KA ; `__local_stdio_printf_options'::`2'::_OptionsStorage
PUBLIC	??_C@_00CNPNBAHC@@				; `string'
PUBLIC	??_C@_0BK@CPKHJPAP@QeustNpc?5RefCount?5Dec?$DN?5?$CFd@ ; `string'
PUBLIC	??_C@_0BN@LAHEKONH@Error?9L1?5?3?5Not?5Encrypt?5?$CFs?5?$CFd@ ; `string'
PUBLIC	?__LINE__Var@?0??ProtocolCore@@YAXEPAEHHHH@Z@4JA ; `ProtocolCore'::`1'::__LINE__Var
PUBLIC	??_C@_0DG@JHLFDPKE@Error?9L1?5?3?5Socket?5Serial?5?$CFs?5?$CFd?5@ ; `string'
PUBLIC	??_C@_0DL@MNNGLLFH@C?3?2Mu?5Online?2Mu?9GS?9Webzen?9MC?910@ ; `string'
PUBLIC	??_C@_0DH@ONNNLLKC@error?9L2?5?3?5account?3?$CFs?5name?3?$CFs?5H@ ; `string'
PUBLIC	??_C@_0P@KNPEEFN@TEST?5Data?5Send@		; `string'
PUBLIC	??_C@_0O@DINGPLDD@218?4234?476?433@		; `string'
PUBLIC	??_C@_0CI@PHFKNJAD@error?9L1?5?3?5?$FL?$CFs?$FN?$FL?$CFs?$FN?5CheckSum?9Ex@ ; `string'
PUBLIC	??_C@_0CM@ECHKHDMC@error?9L1?5?3?5CheckSum?9Exe?5error?5?$CF@ ; `string'
PUBLIC	??_C@_0DF@BCJCJNCO@?$FLAnti?9HACK?$FN?$FLPChatProc?$FN?$FL?$CFs?$FN?$FL?$CFs?$FN?5@ ; `string'
PUBLIC	??_C@_06CPENAAMN@?$FL?$CFs?$FN?3?5@		; `string'
PUBLIC	??_C@_0M@JGNMDCCD@?$MA?L?$LF?$LP?5?D?$KO?$LI?$KO?$LI?$LG@ ; `string'
PUBLIC	?__LINE__Var@?0??CSPJoinIdPassRequest@@YAXPAUPMSG_IDPASS@@H@Z@4JA ; `CSPJoinIdPassRequest'::`1'::__LINE__Var
PUBLIC	??_C@_0CE@NFIPADMP@JOIN?5ERROR?5?9?5VERSION?3?5?$CFs?5SERIAL@ ; `string'
PUBLIC	??_C@_0CB@GGKFEOLP@error?9L1?3?5Serial?5error?5?$FL?$CFs?$FN?5?$FL?$CFs@ ; `string'
PUBLIC	??_C@_0BB@PPEDKKBK@error?5?3?5?$CFd?5?$CFs?5?$CFd@ ; `string'
PUBLIC	??_C@_0BD@CICILPEN@join?5send?5?3?5?$CI?$CFd?$CJ?$CFs@ ; `string'
PUBLIC	??_C@_08NPLAPO@?$LN?$LI?$LF?$LJ?$MA?L?$CFd@	; `string'
PUBLIC	??_C@_04FLFDNKBN@m321@				; `string'
PUBLIC	??_C@_0BD@CNPHLENH@login?5send?5?3?5?$CFs?5?$CFs@ ; `string'
PUBLIC	??_C@_0EM@KAGGFAIG@?0?5?$FLUserSelClose?$FN?5Go?5Exit?0?5Accou@ ; `string'
PUBLIC	??_C@_0DA@BEHJLACI@?$FLUserSelClose?$FN?5Go?5Exit?5?$FL?$CFs?$FN?$FL?$CFs?$FN@ ; `string'
PUBLIC	??_C@_0FC@GOGPDPOG@?0?5?$FLUserSelClose?$FN?5Go?5ServerList?0@ ; `string'
PUBLIC	??_C@_0DG@MAGKNHGP@?$FLUserSelClose?$FN?5Go?5ServerList?5?$FL?$CF@ ; `string'
PUBLIC	??_C@_0FC@IHIAOFPA@?0?5?$FLUserSelClose?$FN?5Go?5CharSelect?0@ ; `string'
PUBLIC	??_C@_0DG@JEMIEEON@?$FLUserSelClose?$FN?5Go?5CharSelect?5?$FL?$CF@ ; `string'
PUBLIC	??_C@_0CI@KOHNJIIP@error?9L1?5?3?5HackCheck?5?$FL?$CFs?$FN?$FL?$CFs?$FN?50@ ; `string'
PUBLIC	??_C@_0BE@EJDMDEO@Client?5HackCheck?5?$CFu@	; `string'
PUBLIC	??_C@_0FF@BEFIFKBL@?$FLAnti?9HACK?$FN?$FLCGPCharacterCreate?$FN@ ; `string'
PUBLIC	??_C@_0CN@BLKDKNKC@?$LM?$KN?$LJ?v?$LK?P?G?R?5?$LB?b?$LA?$KD?$LP?$KB?$LE?B?5?D?$LD?$LI?$KP?E?M?$LI?$KG?5?$LL?$PN?$LM?$LK@ ; `string'
PUBLIC	??_C@_0CO@FCKNKLJK@error?9L1?3?5Magumsa?5Character?5cre@ ; `string'
PUBLIC	??_C@_0CP@FFBFNNND@error?9L1?3?5Darklord?5Character?5cr@ ; `string'
PUBLIC	??_C@_0BJ@GDNNOEGN@Character?5create?5?3?5?$CFs?0?$CFs@ ; `string'
PUBLIC	??_C@_0EN@HJCICDL@?$FLAnti?9HACK?$FN?$FLCGPCharDel?$FN?5Attempt@ ; `string'
PUBLIC	??_C@_0FD@NNHNDILD@?$FLAnti?9HACK?$FN?$FLCGPCharDel?$FN?5Attempt@ ; `string'
PUBLIC	??_C@_0BJ@HPDAEMEM@Character?5delete?5?3?5?$CFs?0?$CFs@ ; `string'
PUBLIC	??_C@_0EH@JPGCOFPC@?0?5?$FLG?9?$DOD?5Req?5MapJoin?$FN?5CharSelect@ ; `string'
PUBLIC	??_C@_0BI@PHONBDAL@Option?5Recv?5?$CFd?5?$CFd?5?$CFd?5?$CFd@ ; `string'
PUBLIC	??_C@_0BI@LJJFCIF@Option?5Send?5?$CFd?5?$CFd?5?$CFd?5?$CFd@ ; `string'
PUBLIC	?__LINE__Var@?0??CGItemGetRequest@@YAXPAUPMSG_ITEMGETREQUEST@@H@Z@4JA ; `CGItemGetRequest'::`1'::__LINE__Var
PUBLIC	??_C@_0CG@NFDFKIHI@?$FLFix?5Inv?4Ptr?$FN?5False?5Location?5?9?5@ ; `string'
PUBLIC	??_C@_0EE@JLFGKDAP@?$FL?$CFs?$FN?$FL?$CFs?$FN?5CGItemGetRequest?$CI?$CJ?5Fai@ ; `string'
PUBLIC	??_C@_0BB@LBNJKNBE@error?9L3?5?3?5?$CFs?5?$CFd@	; `string'
PUBLIC	??_C@_0DC@DNFDPMM@?$FLQuest?$FN?5Too?5many?5have?5quest?5ite@ ; `string'
PUBLIC	??_C@_0EI@IFAFBJMM@?$FLRing?5Event?$FN?5Too?5many?5have?5Magi@ ; `string'
PUBLIC	??_C@_0DN@NBANJING@?$FLKalima?$FN?5?$FL?$CFs?$FN?$FL?$CFs?$FN?5Make?5Lost?5Kal@ ; `string'
PUBLIC	??_C@_0EN@INJOAAFP@?$FLBlood?5Castle?$FN?5?$CI?$CFd?$CJ?5?$CIAccount?3?$CFs@ ; `string'
PUBLIC	?__LINE__Var@?0??CGItemDropRequest@@YAHPAUPMSG_ITEMTHROW@@HH@Z@4JA ; `CGItemDropRequest'::`1'::__LINE__Var
PUBLIC	??_C@_0EF@ILLBNEEI@?$FL?$CFs?$FN?$FL?$CFs?$FN?5CGItemDropRequest?$CI?$CJ?5Fa@ ; `string'
PUBLIC	??_C@_0M@HHKDDFJH@error?3?$CFs?5?$CFd@		; `string'
PUBLIC	??_C@_04BGCMBJDA@Item@				; `string'
PUBLIC	??_C@_0EA@MFJKFJAM@?$FLANTI?9HACK?$FN?$FLSerial?50?5Item?$FN?5?$FLIte@ ; `string'
PUBLIC	??_C@_0FL@HPOJPJGH@?$FL?$CFs?$FN?$FL?$CFs?$FN?$FL?$CFd?$FN?$CFd?1?$CFd?5Used?5box?5of?5S@ ; `string'
PUBLIC	??_C@_0FM@DGEGEEP@?$FL?$CFs?$FN?$FL?$CFs?$FN?$FL?$CFd?$FN?$CFd?1?$CFd?5Used?5box?5of?5F@ ; `string'
PUBLIC	??_C@_0FM@EBLAMMBK@?$FL?$CFs?$FN?$FL?$CFs?$FN?$FL?$CFd?$FN?$CFd?1?$CFd?5Used?5box?5of?5H@ ; `string'
PUBLIC	??_C@_0FK@MPNDPHHL@?$FL?$CFs?$FN?$FL?$CFs?$FN?$FL?$CFd?$FN?$CFd?1?$CFd?5Used?5box?5of?5G@ ; `string'
PUBLIC	??_C@_0FM@IGKKOJBE@?$FL?$CFs?$FN?$FL?$CFs?$FN?$FL?$CFd?$FN?$CFd?1?$CFd?5Used?5box?5of?5S@ ; `string'
PUBLIC	??_C@_0FK@PGPEHJJI@?$FL?$CFs?$FN?$FL?$CFs?$FN?$FL?$CFd?$FN?$CFd?1?$CFd?5Used?5box?5of?5E@ ; `string'
PUBLIC	??_C@_0FO@JEPLEEGL@?$FL?$CFs?$FN?$FL?$CFs?$FN?$FL?$CFd?$FN?$CFd?1?$CFd?5Used?5box?5of?5E@ ; `string'
PUBLIC	??_C@_0FO@PNDHLIGG@?$FL?$CFs?$FN?$FL?$CFs?$FN?$FL?$CFd?$FN?$CFd?1?$CFd?5Used?5box?5of?5E@ ; `string'
PUBLIC	??_C@_0FP@PHLHAFBH@?$FL?$CFs?$FN?$FL?$CFs?$FN?$FL?$CFd?$FN?$CFd?1?$CFd?5Used?5box?5of?5E@ ; `string'
PUBLIC	??_C@_0GA@JIKHBPIM@?$FL?$CFs?$FN?$FL?$CFs?$FN?$FL?$CFd?$FN?$CFd?1?$CFd?5Used?5box?5of?5E@ ; `string'
PUBLIC	??_C@_0GA@CCPCBLJL@?$FL?$CFs?$FN?$FL?$CFs?$FN?$FL?$CFd?$FN?$CFd?1?$CFd?5Used?5box?5of?5E@ ; `string'
PUBLIC	??_C@_0FO@FJBOPNFK@?$FL?$CFs?$FN?$FL?$CFs?$FN?$FL?$CFd?$FN?$CFd?1?$CFd?5Used?5box?5of?5D@ ; `string'
PUBLIC	??_C@_0EK@IDAEHEED@?$FLKalima?$FN?5?$FL?$CFs?$FN?$FL?$CFs?$FN?5Success?5to?5Ma@ ; `string'
PUBLIC	?__LINE__Var@?0??CGInventoryItemMove@@YAXPAUPMSG_INVENTORYITEMMOVE@@H@Z@4JA ; `CGInventoryItemMove'::`1'::__LINE__Var
PUBLIC	??_C@_0BC@JIBNBHEG@?$FL?$CFs?$FN?$FL?$CFd?$FN?5error?9L3@ ; `string'
PUBLIC	??_C@_0CG@KBCIHFJL@?$FL?$CFs?$FN?$FL?$CFs?$FN?5error?9L1?5?3?5used?5not?5Ch@ ; `string'
PUBLIC	??_C@_0BN@NBPOCOLJ@?$FL?$CFs?$FN?$FL?$CFs?$FN?5error?9L3?5?3?5CBMixing@ ; `string'
PUBLIC	??_C@_0CM@KBDLDMLI@?$FL?$CFs?$FN?$FL?$CFs?$FN?5error?9L1?5?3?5used?5not?5Da@ ; `string'
PUBLIC	??_C@_0CJ@GOOLKLEE@?$FL?$CFs?$FN?$FL?$CFs?$FN?5error?9L3?5?3?5DarkTrainer@ ; `string'
PUBLIC	??_C@_0CH@JCEGNOH@?$FL?$CFs?$FN?$FL?$CFs?$FN?5error?9L1?5?3?5used?5not?5Wa@ ; `string'
PUBLIC	??_C@_0CD@LILEALBE@?$FL?$CFs?$FN?$FL?$CFs?$FN?5error?9L1?5?3?5used?5not?5Tr@ ; `string'
PUBLIC	??_C@_0DB@BBIIADPJ@Pay?5WareHouse?5Money?$CIIn?5Inventor@ ; `string'
PUBLIC	??_C@_0DB@OHHNKGKH@Pay?5WareHouse?5Money?$CIIn?5WareHous@ ; `string'
PUBLIC	?__LINE__Var@?0??CGTalkRequestRecv@@YAXPAUPMSG_TALKREQUEST@@H@Z@4JA ; `CGTalkRequestRecv'::`1'::__LINE__Var
PUBLIC	??_C@_0CP@GINMLCLK@?$FLANTI?9HACK?$FN?$FLNPC?5Talk?$FN?5Couldn?8t?5@ ; `string'
PUBLIC	??_C@_0DD@KJEEOOOJ@?$FL?$CFs?$FN?$FL?$CFs?$FN?5is?5Already?5Opening?5PSh@ ; `string'
PUBLIC	??_C@_0BI@EKFBANFN@?$FL?$CFs?$FN?$FL?$CFs?$FN?5Open?5Chaos?5Box@ ; `string'
PUBLIC	?__LINE__Var@?0??CGBuyRequestRecv@@YAXPAUPMSG_BUYREQUEST@@H@Z@4JA ; `CGBuyRequestRecv'::`1'::__LINE__Var
PUBLIC	??_C@_0EI@PNDIMLBH@?$FL?$CFs?$FN?$FL?$CFs?$FN?5?$CI?$CFd?$CJ?5Shop?5buy?5?$FL?$CFd?$FN?$FL?$CFd?$FN@ ; `string'
PUBLIC	?__LINE__Var@?0??CGSellRequestRecv@@YAXPAUPMSG_SELLREQUEST@@H@Z@4JA ; `CGSellRequestRecv'::`1'::__LINE__Var
PUBLIC	??_C@_0EF@KJAJLIMD@?$FL?$CFs?$FN?$FL?$CFs?$FN?5CGSellRequestRecv?$CI?$CJ?5Fa@ ; `string'
PUBLIC	??_C@_0EB@IPNHKJAG@?$FLANTI?9HACK?$FN?$FLSerial?50?5Item?$FN?5?$FLSel@ ; `string'
PUBLIC	??_C@_0BB@NPCMBJOG@ID?3?$CFs?5CharID?3?$CFs?5@	; `string'
PUBLIC	?__LINE__Var@?0??CGTradeRequestSend@@YAXPAUPMSG_TRADE_REQUEST@@H@Z@4JA ; `CGTradeRequestSend'::`1'::__LINE__Var
PUBLIC	??_C@_0BD@DBIFHAEB@error?5?3?5?$CFs?5?$CFd?5?$CI?$CFd?$CJ@ ; `string'
PUBLIC	??_C@_0EH@JLPPNLGF@?$FLHACKTOOL?$FN?5?3?5NPC?9TradeRequest?5n@ ; `string'
PUBLIC	??_C@_0CA@DGNFGBFP@?$FLPVP?5Event?$FN?5Accion?5no?5permitida@ ; `string'
PUBLIC	??_C@_0EG@MCMMANNG@?$FL?$CFs?$FN?$FL?$CFs?$FN?5CGTradeRequestSend?$CI?$CJ?5F@ ; `string'
PUBLIC	?__LINE__Var@?0??CGTradeResponseRecv@@YAXPAUPMSG_TRADE_RESPONSE@@H@Z@4JA ; `CGTradeResponseRecv'::`1'::__LINE__Var
PUBLIC	??_C@_0BO@JKBNIPAM@error?9L1?5?3?5?$CFd?5?$CIA_ID?3?$CFs?$CJ?5?$CFs?5?$CFd@ ; `string'
PUBLIC	??_C@_0CF@HCOAINND@error?9L1?5?3?5target?3?$CFd?5?$CIA_ID?3?$CFs?$CJ?5@ ; `string'
PUBLIC	??_C@_0DG@NABAHPDJ@?$CI?$CFs?$CJ?$CI?$CFs?$CJ?5Trade?5Interface?5State?5@ ; `string'
PUBLIC	??_C@_0EH@CCMPCECD@?$FL?$CFs?$FN?$FL?$CFs?$FN?5CGTradeResponseRecv?$CI?$CJ?5@ ; `string'
PUBLIC	??_C@_0DE@KMOKLCNA@?$FL?$CFs?$FN?$FL?$CFs?$FN?5Made?5Trade?5Error?5?$CIin?5T@ ; `string'
PUBLIC	??_C@_0BO@GMBGLGLP@?$FL?$CFs?$FN?$FL?$CFs?$FN?5Trade?5Ready?5?$FL?$CFs?$FN?$FL?$CFs?$FN@ ; `string'
PUBLIC	??_C@_0BF@FJPPKIGA@Interface?5State?5?3?5?$CFd@	; `string'
PUBLIC	?__LINE__Var@?0??CGTradeMoneyRecv@@YAXPAUPMSG_TRADE_GOLD@@H@Z@4JA ; `CGTradeMoneyRecv'::`1'::__LINE__Var
PUBLIC	??_C@_0BG@FLFOODFC@?$FL?$CFs?$FN?$FL?$CFs?$FN?5Trade?5Accept@ ; `string'
PUBLIC	?__LINE__Var@?0??CGPShopReqSetItemPrice@@YAXPAUPMSG_REQ_PSHOP_SETITEMPRICE@@H@Z@4JA ; `CGPShopReqSetItemPrice'::`1'::__LINE__Var
PUBLIC	??_C@_0CM@OJAPKEAG@?$FLPShop?$FN?5ERROR?5?3?5Index?5is?5not?5CO@ ; `string'
PUBLIC	??_C@_0CM@BGHHKBPI@?$FLPShop?$FN?5ERROR?5?3?5Index?5is?5not?5CH@ ; `string'
PUBLIC	??_C@_0CP@JILLNCMO@?$FLPShop?$FN?5?$FL?$CFs?$FN?$FL?$CFs?$FN?5ERROR?5?3?5Level?5@ ; `string'
PUBLIC	??_C@_0DJ@POEGOMMJ@?$FLPShop?$FN?5?$FL?$CFs?$FN?$FL?$CFs?$FN?5ERROR?5?3?5Item?5P@ ; `string'
PUBLIC	??_C@_0DC@LNPMCBEG@?$FLPShop?$FN?5?$FL?$CFs?$FN?$FL?$CFs?$FN?5ERROR?5?3?5Item?5D@ ; `string'
PUBLIC	??_C@_0DN@IOKIFLHM@?$FLANTI?9HACK?$FN?$FLSerial?50?5Item?$FN?5?$FLPSh@ ; `string'
PUBLIC	??_C@_0CK@IBOOILII@error?9L2?5?3?5CopyItem?5?$FL?$CFs?$FN?$FL?$CFs?$FN?5re@ ; `string'
PUBLIC	??_C@_0DM@LPICNFPM@?$FLPShop?$FN?5?$FL?$CFs?$FN?$FL?$CFs?$FN?5ERROR?5?3?5Person@ ; `string'
PUBLIC	??_C@_0DI@GBAILLEI@?$FLPShop?$FN?5?$FL?$CFs?$FN?$FL?$CFs?$FN?5ERROR?5?3?5Item?5P@ ; `string'
PUBLIC	??_C@_0FD@OAAFOEHL@?$FLPShop?$FN?5?$FL?$CFs?$FN?$FL?$CFs?$FN?5Changing?5Item?5@ ; `string'
PUBLIC	?__LINE__Var@?0??CGPShopReqOpen@@YAXPAUPMSG_REQ_PSHOP_OPEN@@H@Z@4JA ; `CGPShopReqOpen'::`1'::__LINE__Var
PUBLIC	??_C@_0DH@KPCEONNB@?$FLPShop?$FN?5?$FL?$CFs?$FN?$FL?$CFs?$FN?5ERROR?5?3?5Cant?8t@ ; `string'
PUBLIC	??_C@_0DG@MLHOMIKA@?$FLPShop?$FN?5?$FL?$CFs?$FN?$FL?$CFs?$FN?5ERROR?5?3?5m_IfSt@ ; `string'
PUBLIC	??_C@_0DF@PANDKIEM@?$FLPShop?$FN?5?$FL?$CFs?$FN?$FL?$CFs?$FN?5ERROR?5?3?5Unknow@ ; `string'
PUBLIC	??_C@_0DI@OHKHPELK@?$FLPShop?$FN?5?$FL?$CFs?$FN?$FL?$CFs?$FN?5ERROR?5?3?5Transa@ ; `string'
PUBLIC	??_C@_0CG@HMFGEBKO@?$FLPShop?$FN?5?$FL?$CFs?$FN?$FL?$CFs?$FN?5Personal?5Shop?5@ ; `string'
PUBLIC	??_C@_0EE@CGDKDDB@?$FLPShop?$FN?5?$FL?$CFs?$FN?$FL?$CFs?$FN?5Personal?5Shop?5@ ; `string'
PUBLIC	??_C@_0CK@BPLBGOKP@?$FLPShop?$FN?5?$FL?$CFs?$FN?$FL?$CFs?$FN?5Requested?5to?5C@ ; `string'
PUBLIC	??_C@_0BN@PJEAPNNK@?$FLPShop?$FN?5?$FL?$CFs?$FN?$FL?$CFs?$FN?5Close?5PShop@ ; `string'
PUBLIC	?__LINE__Var@?0??CGPShopReqBuyList@@YAXPAUPMSG_REQ_BUYLIST_FROM_PSHOP@@H@Z@4JA ; `CGPShopReqBuyList'::`1'::__LINE__Var
PUBLIC	??_C@_0EL@IDFNOCHJ@?$FLPShop?$FN?5?$FL?$CFs?$FN?$FL?$CFs?$FN?5PShop?5List?5Req@ ; `string'
PUBLIC	??_C@_0EK@PCNOKFHF@?$FLPShop?$FN?5?$FL?$CFs?$FN?$FL?$CFs?$FN?5PShop?5List?5Req@ ; `string'
PUBLIC	??_C@_0EI@OFDKLOHJ@?$FLPShop?$FN?5?$FL?$CFs?$FN?$FL?$CFs?$FN?5PShop?5Item?5Buy@ ; `string'
PUBLIC	??_C@_0EH@KILFPGAO@?$FLPShop?$FN?5?$FL?$CFs?$FN?$FL?$CFs?$FN?5PShop?5Item?5Buy@ ; `string'
PUBLIC	??_C@_0DH@DOFEJGME@?$FLPShop?$FN?5?$FL?$CFs?$FN?$FL?$CFs?$FN?5PShop?5List?5Req@ ; `string'
PUBLIC	??_C@_0EJ@NIGLANBE@?$FLPShop?$FN?5?$FL?$CFs?$FN?$FL?$CFs?$FN?5PShop?5List?5Req@ ; `string'
PUBLIC	??_C@_0EH@MBNOENIG@?$FLPShop?$FN?5?$FL?$CFs?$FN?$FL?$CFs?$FN?5PShop?5List?5Req@ ; `string'
PUBLIC	??_C@_0FG@BJMCDCO@?$FLPShop?$FN?5?$FL?$CFs?$FN?$FL?$CFs?$FN?5PShop?5List?5Req@ ; `string'
PUBLIC	??_C@_0DH@ODEDNFIK@?$FLPShop?$FN?5?$FL?$CFs?$FN?$FL?$CFs?$FN?5is?5Receiving?5P@ ; `string'
PUBLIC	??_C@_0N@OAHJEEKI@ITEM?5TYPE?3?$CFd@		; `string'
PUBLIC	?__LINE__Var@?0??CGPShopReqBuyItem@@YAXPAUPMSG_REQ_BUYITEM_FROM_PSHOP@@H@Z@4JA ; `CGPShopReqBuyItem'::`1'::__LINE__Var
PUBLIC	??_C@_0BG@GGOILNKD@?4?4?2data?2QueryShop?4ini@	; `string'
PUBLIC	??_C@_0EK@BHAABMKG@UPDATE?5MuOnline?4dbo?4MEMB_INFO?5S@ ; `string'
PUBLIC	??_C@_0O@HGOOMGKG@OFFTRADERESTA@		; `string'
PUBLIC	??_C@_0BA@FBHJCJB@UPDATE?5OFFTRADE@		; `string'
PUBLIC	??_C@_0EK@BCLMBCOI@UPDATE?5MuOnline?4dbo?4MEMB_INFO?5S@ ; `string'
PUBLIC	??_C@_0N@HPCIFBAH@OFFTRADESUMA@			; `string'
PUBLIC	??_C@_0BO@BEPKGPIF@?$FLBOT?5STORE?$FN?5Necesitas?5?$CFd?5Cash@ ; `string'
PUBLIC	??_C@_0CI@DPKGHCGP@?$FLBOT?5STORE?$FN?5Actualmente?5tienes?5@ ; `string'
PUBLIC	??_C@_0BO@FNEEFLNP@?$FLBOT?5STORE?$FN?5Te?5quedan?5?$CFd?5Cash@ ; `string'
PUBLIC	??_C@_0EP@OPAFJLAF@?$FLPShop?$FN?5?$FL?$CFs?$FN?$FL?$CFs?$FN?5PShop?5Item?5Buy@ ; `string'
PUBLIC	??_C@_0EO@KMDCDECB@?$FLPShop?$FN?5?$FL?$CFs?$FN?$FL?$CFs?$FN?5PShop?5Item?5Buy@ ; `string'
PUBLIC	??_C@_0EN@OKADFHGM@?$FLPShop?$FN?5?$FL?$CFs?$FN?$FL?$CFs?$FN?5PShop?5Item?5Buy@ ; `string'
PUBLIC	??_C@_0EL@PJOAJAPF@?$FLPShop?$FN?5?$FL?$CFs?$FN?$FL?$CFs?$FN?5PShop?5Item?5Buy@ ; `string'
PUBLIC	??_C@_0FA@NMMBBGEG@?$FLPShop?$FN?5?$FL?$CFs?$FN?$FL?$CFs?$FN?5PShop?5Item?5Buy@ ; `string'
PUBLIC	??_C@_0EL@CHNNEDPM@?$FLPShop?$FN?5?$FL?$CFs?$FN?$FL?$CFs?$FN?5PShop?5Item?5Buy@ ; `string'
PUBLIC	??_C@_0FD@GGINPDPA@?$FLPShop?$FN?5?$FL?$CFs?$FN?$FL?$CFs?$FN?5PShop?5Item?5Buy@ ; `string'
PUBLIC	??_C@_0EB@DKCMAHPG@?$FLANTI?9HACK?$FN?$FLSerial?50?5Item?$FN?5?$FLPSh@ ; `string'
PUBLIC	??_C@_0FK@LBDGBLNC@?$FLPShop?$FN?5?$FL?$CFs?$FN?$FL?$CFs?$FN?5PShop?5Item?5Buy@ ; `string'
PUBLIC	??_C@_0FE@PIIJDCEI@?$FLPShop?$FN?5?$FL?$CFs?$FN?$FL?$CFs?$FN?5PShop?5Item?5Buy@ ; `string'
PUBLIC	??_C@_0BE@BABKIKBE@TIENDAPERSONALRESTA@		; `string'
PUBLIC	??_C@_0BG@CENNGABF@UPDATE?5TIENDAPERSONAL@	; `string'
PUBLIC	??_C@_0BD@INFPCJNN@TIENDAPERSONALSUMA@		; `string'
PUBLIC	??_C@_0CE@FKIEGGCJ@?$FLTienda?5Personal?$FN?5Necesitas?5?$CFd?5@ ; `string'
PUBLIC	??_C@_0CO@INIPKDON@?$FLTienda?5Personal?$FN?5Actualmente?5t@ ; `string'
PUBLIC	??_C@_0CE@BDDKFCHD@?$FLTienda?5Personal?$FN?5Te?5quedan?5?$CFd?5@ ; `string'
PUBLIC	??_C@_0FL@OHDLELPO@?$FLCOMPRA?$FN?5Cuenta?3?$FL?$CFs?$FN?5Usuario?3?$FL?$CF@ ; `string'
PUBLIC	??_C@_0EO@NGLHGNOL@?$FLPShop?$FN?5?$FL?$CFs?$FN?$FL?$CFs?$FN?5PShop?5Item?5Buy@ ; `string'
PUBLIC	??_C@_0EG@BJIIHLIN@?$FLPShop?$FN?5?$FL?$CFs?$FN?$FL?$CFs?$FN?5PShop?5Item?5Buy@ ; `string'
PUBLIC	??_C@_0FE@GMGAEINP@?$FLPShop?$FN?5?$FL?$CFs?$FN?$FL?$CFs?$FN?5PShop?5Item?5Buy@ ; `string'
PUBLIC	??_C@_0JC@NLGCBMPF@?$FLOffTrade?$FN?$FLPShop?$FN?5?$FL?$CFs?$FN?$FL?$CFs?$FN?$FL?$CFs?$FN?5@ ; `string'
PUBLIC	??_C@_0IE@NPCEKOLA@?$FLPShop?$FN?5?$FL?$CFs?$FN?$FL?$CFs?$FN?$FL?$CFs?$FN?5PShop?5Item@ ; `string'
PUBLIC	??_C@_0DF@HMKJEHOO@?$FLPShop?$FN?5?$FL?$CFs?$FN?$FL?$CFs?$FN?5Sold?5All?5Items@ ; `string'
PUBLIC	??_C@_0EH@LCEBGPEH@?$FLHACKTOOL?$FN?5?3?5NPC?9PartyRequest?5n@ ; `string'
PUBLIC	??_C@_0BL@OEGODNEF@Party?5result?5?3?5?$CFd?5?$CFd?5?$CFd?5?$CFd@ ; `string'
PUBLIC	??_C@_05DNIIFBMG@?$CFs?5?$CFs@			; `string'
PUBLIC	??_C@_0EP@FDAKNNLI@?$FLHACKTOOL?$FN?5?3?5NPC?9TradeRequest?$CIR@ ; `string'
PUBLIC	?__LINE__Var@?0??CGPartyDelUser@@YAXPAUPMSG_PARTYDELUSER@@H@Z@4JA ; `CGPartyDelUser'::`1'::__LINE__Var
PUBLIC	??_C@_0P@JLFGIHAP@No?5Party?5?$CFs?5?$CFs@	; `string'
PUBLIC	??_C@_0P@GAPFACKC@User?5Not?5found@		; `string'
PUBLIC	??_C@_05DIALNFFA@?$CFs?5?$CFd@			; `string'
PUBLIC	??_C@_0EH@LLMHNLJP@?$FLHACKTOOL?$FN?5?3?5NPC?9GuildRequest?5n@ ; `string'
PUBLIC	??_C@_0CD@KPIJPFAI@?$FL?$CFs?$FN?$FL?$CFs?$FN?5Guild?5Request?5?9?5Join?5?3@ ; `string'
PUBLIC	??_C@_0EP@POEHMBEF@?$FLHACKTOOL?$FN?5?3?5NPC?9GuildRequest?$CIr@ ; `string'
PUBLIC	??_C@_0CK@LPFOPCOO@?$FL?$CFs?$FN?$FL?$CFs?$FN?5Guild?5Request?5?9?5Dismis@ ; `string'
PUBLIC	??_C@_0CE@CALGKPMO@?$FL?$CFs?$FN?$FL?$CFs?$FN?5Guild?5Request?5?9?5Leave?5@ ; `string'
PUBLIC	??_C@_0DM@KAENPAGM@Error?5on?5declaring?5war?5?3?5GuildM@ ; `string'
PUBLIC	??_C@_0ED@OFKACPCN@Error?5on?5declaring?5war?5?3?5Target@ ; `string'
PUBLIC	??_C@_0M@NJMAOJLE@Score?5?$CFs?5?$CFd@		; `string'
PUBLIC	??_C@_0BD@ICJCOFEA@Target?5Score?5?$CFs?5?$CFd@	; `string'
PUBLIC	?__LINE__Var@?0??CGWarehouseMoneyInOut@@YAXHPAUPMSG_WAREHOUSEMONEYINOUT@@@Z@4JA ; `CGWarehouseMoneyInOut'::`1'::__LINE__Var
PUBLIC	??_C@_0BC@OFCHNMFP@error?9L3?5?$FL?$CFs?$FN?$FL?$CFd?$FN@ ; `string'
PUBLIC	??_C@_0DB@IPFMNKBF@Get?5WareHouse?5Money?$CIIn?5Inventor@ ; `string'
PUBLIC	??_C@_0DB@HJKJHPEL@Get?5WareHouse?5Money?$CIIn?5WareHous@ ; `string'
PUBLIC	?__LINE__Var@?0??CGWarehouseUseEnd@@YAXH@Z@4JA	; `CGWarehouseUseEnd'::`1'::__LINE__Var
PUBLIC	?__LINE__Var@?0??CGChaosBoxItemMixButtonClick@@YAXPAUPMSG_CHAOSMIX@@H@Z@4JA ; `CGChaosBoxItemMixButtonClick'::`1'::__LINE__Var
PUBLIC	??_C@_0BM@GLBENMI@?$FL?$CFs?$FN?$FL?$CFs?$FN?5Already?5Used?5Chaos@ ; `string'
PUBLIC	??_C@_0CK@PKJFNKMA@?$FL?$CFs?$FN?$FL?$CFs?$FN?5Undefine?5chaosmix?5type@ ; `string'
PUBLIC	?__LINE__Var@?0??CGChaosBoxUseEnd@@YAXH@Z@4JA	; `CGChaosBoxUseEnd'::`1'::__LINE__Var
PUBLIC	?__LINE__Var@?0??PMoveProc@@YAXPAUPMSG_MOVE@@H@Z@4JA ; `PMoveProc'::`1'::__LINE__Var
PUBLIC	??_C@_0CL@HEMFEGBB@error?9L3?5?3?5move?5protocol?5index?5@ ; `string'
PUBLIC	??_C@_0CL@FPLHDOJG@error?9L3?5?3?5Path?5Count?5error?5?$CFd?5@ ; `string'
PUBLIC	?__LINE__Var@?0??RecvPositionSetProc@@YAXPAUPMSG_POSISTION_SET@@H@Z@4JA ; `RecvPositionSetProc'::`1'::__LINE__Var
PUBLIC	??_C@_0CI@HDJHDEIB@error?5?3?5move?5protocol?5index?5err@ ; `string'
PUBLIC	?__LINE__Var@?0??CGAttack@@YAXPAUPMSG_ATTACK@@H@Z@4JA ; `CGAttack'::`1'::__LINE__Var
PUBLIC	??_C@_0CH@PODPFEHM@?$FLCGAttack?$FN?5?$FLUserIndex?5Error?$FN?5?3?$CF@ ; `string'
PUBLIC	??_C@_0DE@ENPGLNLL@?$FL?$CFs?$FN?$FL?$CFs?$FN?5?$CFs?5Kick?5DetecHackCount@ ; `string'
PUBLIC	??_C@_0DN@GAMOBCPD@?$FL?$CFs?$FN?$FL?$CFs?$FN?5?$CFs?5Attack?5Speed?5Is?5Wro@ ; `string'
PUBLIC	??_C@_0DB@JJPLIMIC@?$FL?$CFs?$FN?$FL?$CFs?$FN?5?$CFs?5Apply?5Attack?5Speed?5@ ; `string'
PUBLIC	?__LINE__Var@?0??CGActionRecv@@YAXPAUPMSG_ACTION@@H@Z@4JA ; `CGActionRecv'::`1'::__LINE__Var
PUBLIC	?__LINE__Var@?0??CGMagicAttack@@YAXPAUPMSG_MAGICATTACK@@H@Z@4JA ; `CGMagicAttack'::`1'::__LINE__Var
PUBLIC	??_C@_0BA@GMMKNNFF@error?5?3?$CFs?5?$CFd?5?$CFd@ ; `string'
PUBLIC	??_C@_0EM@CEMNDEFL@?$FL?$CFs?$FN?$FL?$CFs?$FN?5Try?5Attack?5In?5Not?5Atta@ ; `string'
PUBLIC	??_C@_0EI@OFFDPBJO@?$FLSKILL?5DISTANCE?5CHECK?$FN?5?$FL?$CFs?$FN?$FL?$CFs?$FN@ ; `string'
PUBLIC	??_C@_0CM@PIOKLDC@?$FL?$CFs?$FN?$FL?$CFs?$FN?5Try?5Teleport?5Not?5Move?5@ ; `string'
PUBLIC	??_C@_0DD@FGHCMCNO@?$FL?$CFs?$FN?$FL?$CFs?$FN?5Try?5Target?5Teleport?5No@ ; `string'
PUBLIC	?__LINE__Var@?0??CGBeattackRecv@@YAXPAEHH@Z@4JA	; `CGBeattackRecv'::`1'::__LINE__Var
PUBLIC	??_C@_0P@EEHIDPGB@error?9L3?5?$CFs?5?$CFd@	; `string'
PUBLIC	??_C@_0DM@BJOBFIFA@Too?5long?5time?5passed?5after?5cast@ ; `string'
PUBLIC	??_C@_0DN@IEDPAONG@?$FL?$CFs?$FN?$FL?$CFs?$FN?5?$CFs?5Attack?5Speed?5Is?5Wro@ ; `string'
PUBLIC	??_C@_0DN@EOJDOJAH@?$KB?Z?$KB?Z?$KB?Z?$KB?Z?5InValid?5DurationTime?5K@ ; `string'
PUBLIC	??_C@_0DJ@JFIBGMNL@?$KB?Z?$KB?Z?$KB?Z?$KB?Z?5InValid?5VailidCount?5?$DN?5@ ; `string'
PUBLIC	??_C@_0DF@GMGPOAFD@Magic?5Attack3?5?3?5?$CFd?0?5serial?5?$DN?5?$CFd@ ; `string'
PUBLIC	??_C@_0CH@MOHJLJHL@?$FL?$CFs?$FN?$FL?$CFs?$FN?5?$CFs?5Detect?5Hack?5?3?5Multi@ ; `string'
PUBLIC	?__LINE__Var@?0??CGUseItemRecv@@YAXPAUPMSG_USEITEM@@H@Z@4JA ; `CGUseItemRecv'::`1'::__LINE__Var
PUBLIC	??_C@_0CJ@BOAIHIHD@?$FL?$CFs?$FN?$FL?$CFs?$FN?5CGUseItemRecv?$CI?$CJ_If?5ret@ ; `string'
PUBLIC	??_C@_0DA@MJHNJBGE@?$FL?$CFs?$FN?$FL?$CFs?$FN?5CGUseItemRecv?$CI?$CJ_CloseT@ ; `string'
PUBLIC	??_C@_0EB@BNHHPHMK@?$FL?$CFs?$FN?$FL?$CFs?$FN?5CGUseItemRecv?$CI?$CJ?5Failed@ ; `string'
PUBLIC	??_C@_0DA@FOMIHIHO@?$FL?$CFs?$FN?$FL?$CFs?$FN?5CGUseItemRecv?$CI?$CJ_Invent@ ; `string'
PUBLIC	??_C@_0DF@KEJKEDMK@error?9L1?5?3?5?$FL?$CFs?$FN?$FL?$CFs?$FN?5CGUseItemRe@ ; `string'
PUBLIC	??_C@_0DP@BFNIJADP@?$FLANTI?9HACK?$FN?$FLSerial?50?5Item?$FN?5?$FLUse@ ; `string'
PUBLIC	??_C@_0DJ@OLFFBGBF@?$FLUsing?5Item?$FN?5?$FLReturn?5Scroll?$FN?5?$FL?$CF@ ; `string'
PUBLIC	??_C@_0CB@DBLGBMBL@error?9L3?5?3?5?$CFs?5return?5?$CFs?5?$CFd?5?$CFd?5?$CF@ ; `string'
PUBLIC	??_C@_0BO@FLPOFOKL@error?9L3?5?3?5?$CFs?5return?5?$CFs?5?$CFd?5?$CFd@ ; `string'
PUBLIC	?__LINE__Var@?0??GCManaSend@@YAXHFEEG@Z@4JA	; `GCManaSend'::`1'::__LINE__Var
PUBLIC	??_C@_0BK@CHOMIMBC@GCManaSend?$CI?$CJ?5return?5?$CFs?5?$CFd@ ; `string'
PUBLIC	?__LINE__Var@?0??GCReqmoveDevilSquare@@YAXPAUPMSG_REQ_MOVEDEVILSQUARE@@H@Z@4JA ; `GCReqmoveDevilSquare'::`1'::__LINE__Var
PUBLIC	??_C@_0N@GGPGOPEN@return?5?$CFs?5?$CFd@		; `string'
PUBLIC	??_C@_0DN@EDDIPEJF@?$FLDevilSquare?$FN?5?$FL?$CFs?$FN?$FL?$CFs?$FN?5Request?5@ ; `string'
PUBLIC	??_C@_0DK@HAACDBFD@?$FLDevilSquare?$FN?5?$FL?$CFs?$FN?$FL?$CFs?$FN?5Move?5Dev@ ; `string'
PUBLIC	??_C@_0EP@OANDGE@?$FLDevilSquare?$FN?5?$FL?$CFs?$FN?$FL?$CFs?$FN?5Move?5Dev@ ; `string'
PUBLIC	??_C@_0DO@GMGNNGG@?$FLDevilSquare?$FN?5?$FL?$CFs?$FN?$FL?$CFs?$FN?5Move?5Dev@ ; `string'
PUBLIC	??_C@_0FE@INNDGJO@?$FLDevilSquare?$FN?5?$FL?$CFs?$FN?$FL?$CFs?$FN?5Move?5Dev@ ; `string'
PUBLIC	??_C@_0DI@DOLGONFI@?$FLPK?5User?$FN?$FLDevilSquare?$FN?5?$FL?$CFs?$FN?$FL?$CFs?$FN@ ; `string'
PUBLIC	??_C@_0DI@MOALMGDC@?$FLPK?5User?$FN?$FLBloodCastle?$FN?5?$FL?$CFs?$FN?$FL?$CFs?$FN@ ; `string'
PUBLIC	??_C@_0DI@OGLBFJCJ@?$FLPK?5User?$FN?$FLChaosCastle?$FN?5?$FL?$CFs?$FN?$FL?$CFs?$FN@ ; `string'
PUBLIC	??_C@_0BG@FMIMJBJK@?$FL?$CFs?$FN?$FL?$CFs?$FN?5Ping?5?$DN?5?$CFd?5ms@ ; `string'
PUBLIC	??_C@_0DL@CMJKPIPK@?$FLEventChip?$FN?5?$FL?$CFs?$FN?$FL?$CFs?$FN?5Attempted?5@ ; `string'
PUBLIC	??_C@_0DO@JBAPFEJ@?$FLEventChip?$FN?5?$FL?$CFs?$FN?$FL?$CFs?$FN?5Attempted?5@ ; `string'
PUBLIC	??_C@_0DO@JJFBLCKD@?$FLEventChip?$FN?5?$FL?$CFs?$FN?$FL?$CFs?$FN?5Not?5Found?5@ ; `string'
PUBLIC	??_C@_0DO@NOPBMIHD@?$FLEventChip?$FN?5?$FL?$CFs?$FN?$FL?$CFs?$FN?5Not?5Found?5@ ; `string'
PUBLIC	??_C@_0DO@ODJBOBMD@?$FLEventChip?$FN?5?$FL?$CFs?$FN?$FL?$CFs?$FN?5Not?5Found?5@ ; `string'
PUBLIC	??_C@_0DK@EFAFIPG@?$FLStone?$FN?5?$FL?$CFs?$FN?$FL?$CFs?$FN?5Register?5Stone@ ; `string'
PUBLIC	??_C@_0DF@CGCEIIIK@?$FLStone?$FN?5?$FL?$CFs?$FN?$FL?$CFs?$FN?5Not?5Found?5Even@ ; `string'
PUBLIC	??_C@_0BO@DNEDNODE@?$MA?L?$LJ?L?5?$LH?g?$LA?$KB?$LF?e?$MA?G?5?$LM?$PN?$MA?Z?$LA?$KB?5?$MA?V?$LN?$MA?$LE?O?$LE?Y@ ; `string'
PUBLIC	??_C@_0CI@GJEFDNKH@?$FLEventChip?$FN?5?$FL?$CFs?$FN?$FL?$CFs?$FN?5Request?5Mu@ ; `string'
PUBLIC	?__LINE__Var@?0??GCUseEndEventChipRescv@@YAXH@Z@4JA ; `GCUseEndEventChipRescv'::`1'::__LINE__Var
PUBLIC	??_C@_0CL@LPOFFCFH@?$FLEventChip?$FN?5?$FL?$CFs?$FN?$FL?$CFs?$FN?5Request?5Ch@ ; `string'
PUBLIC	??_C@_0CJ@OIKODDDO@?$FLEventChip?$FN?5?$FL?$CFs?$FN?$FL?$CFs?$FN?5Request?5Ch@ ; `string'
PUBLIC	?__LINE__Var@?0??CGRequestEnterBloodCastle@@YAXPAUPMSG_REQ_MOVEBLOODCASTLE@@H@Z@4JA ; `CGRequestEnterBloodCastle'::`1'::__LINE__Var
PUBLIC	??_C@_0FL@KOIEBFHD@?$FLBlood?5Castle?$FN?5?$CI?$CFd?$CJ?5?$CIAccount?3?$CFs@ ; `string'
PUBLIC	?__LINE__Var@?0??CGRequestEnterChaosCastle@@YAXPAUPMSG_REQ_MOVECHAOSCASTLE@@H@Z@4JA ; `CGRequestEnterChaosCastle'::`1'::__LINE__Var
PUBLIC	??_C@_0FK@NPJPMFON@?$FLChaos?5Castle?$FN?5?$CI?$CFd?$CJ?5?$CIAccount?3?$CFs@ ; `string'
PUBLIC	??_C@_0EC@MLMNLDLI@?$FLMu_2Anv_Event?$FN?5?$FL?$CFs?$FN?$FL?$CFs?$FN?5Regist@ ; `string'
PUBLIC	?__LINE__Var@?0??CGDuelStartRequestRecv@@YAXPAUPMSG_REQ_START_DUEL@@H@Z@4JA ; `CGDuelStartRequestRecv'::`1'::__LINE__Var
PUBLIC	??_C@_0DE@MJGAINFG@?$FLDuel?$FN?5?$FL?$CFs?$FN?$FL?$CFs?$FN?5Requested?5to?5St@ ; `string'
PUBLIC	?__LINE__Var@?0??CGDuelEndRequestRecv@@YAXPAUPMSG_REQ_END_DUEL@@H@Z@4JA ; `CGDuelEndRequestRecv'::`1'::__LINE__Var
PUBLIC	??_C@_0CE@OCKCINJI@?$FLDuel?$FN?5?$FL?$CFs?$FN?$FL?$CFs?$FN?5Duel?5Ended?5?$FL?$CFs?$FN@ ; `string'
PUBLIC	??_C@_0CG@KCMDMGAG@?$FLDuel?$FN?5?$FL?$CFs?$FN?$FL?$CFs?$FN?5Duel?5Started?5?$FL?$CF@ ; `string'
PUBLIC	?__LINE__Var@?0??CGRequestPetItemCommand@@YAXPAUPMSG_REQUEST_PET_ITEM_COMMAND@@H@Z@4JA ; `CGRequestPetItemCommand'::`1'::__LINE__Var
PUBLIC	??_C@_0BH@LCDOHCGD@error?9L2?5?3?5Index?5?$CFs?5?$CFd@ ; `string'
PUBLIC	?__LINE__Var@?0??CGRequestPetItemInfo@@YAXPAUPMSG_REQUEST_PET_ITEMINFO@@H@Z@4JA ; `CGRequestPetItemInfo'::`1'::__LINE__Var
PUBLIC	??_C@_0DL@GJNDCDLC@?$FLPetItem?$FN?5?$FL?$CFs?$FN?$FL?$CFs?$FN?5RequestPetIt@ ; `string'
PUBLIC	??_C@_0DM@BLGKOALL@?$FLPetItem?$FN?5?$FL?$CFs?$FN?$FL?$CFs?$FN?5RequestPetIt@ ; `string'
PUBLIC	??_C@_0DI@LFOOFHNO@?$FLPetItem?$FN?5?$FL?$CFs?$FN?$FL?$CFs?$FN?5RequestPetIt@ ; `string'
PUBLIC	??_C@_0DO@OIKHDOGN@?$FLPetItem?$FN?5?$FL?$CFs?$FN?$FL?$CFs?$FN?5RequestPetIt@ ; `string'
PUBLIC	??_C@_0DI@DBFIHHGF@?$FLPetItem?$FN?5?$FL?$CFs?$FN?$FL?$CFs?$FN?5RequestPetIt@ ; `string'
PUBLIC	__real@00000000
PUBLIC	__real@3f800000
PUBLIC	__real@40000000
PUBLIC	__real@40400000
PUBLIC	__real@40a00000
EXTRN	___report_rangecheckfailure:PROC
EXTRN	_memcpy:PROC
EXTRN	_memset:PROC
EXTRN	_strcat:PROC
EXTRN	_strcmp:PROC
EXTRN	_strcpy:PROC
EXTRN	_strlen:PROC
EXTRN	_strncmp:PROC
EXTRN	__imp__EnterCriticalSection@4:PROC
EXTRN	__imp__LeaveCriticalSection@4:PROC
EXTRN	__imp__GetTickCount@0:PROC
EXTRN	__imp__GetPrivateProfileStringA@24:PROC
EXTRN	__imp__wsprintfA:PROC
EXTRN	___stdio_common_vsprintf:PROC
EXTRN	_rand:PROC
EXTRN	_sqrt:PROC
EXTRN	__imp_?Get@CMsg@@QAEPADH@Z:PROC
EXTRN	?Convert@CItem@@QAEXHEEEEEE@Z:PROC		; CItem::Convert
EXTRN	?Value@CItem@@QAEXXZ:PROC			; CItem::Value
EXTRN	?Clear@CItem@@QAEXXZ:PROC			; CItem::Clear
EXTRN	?IsItem@CItem@@QAEHXZ:PROC			; CItem::IsItem
EXTRN	?IsSetItem@CItem@@QAEHXZ:PROC			; CItem::IsSetItem
EXTRN	?PetValue@CItem@@QAEXXZ:PROC			; CItem::PetValue
EXTRN	?IsClass@CItem@@QAEHDH@Z:PROC			; CItem::IsClass
EXTRN	?GetName@CItem@@QAEPADXZ:PROC			; CItem::GetName
EXTRN	?GetNumber@CItem@@QAEKXZ:PROC			; CItem::GetNumber
EXTRN	?IsExtItem@CItem@@QAEHXZ:PROC			; CItem::IsExtItem
EXTRN	?ItemGetNumberMake@@YAHHH@Z:PROC		; ItemGetNumberMake
EXTRN	?ItemByteConvert@@YAXPAEVCItem@@@Z:PROC		; ItemByteConvert
EXTRN	?ItemByteConvert@@YAXPAEHEEEEEEE@Z:PROC		; ItemByteConvert
EXTRN	?HasItemDurability@@YAHH@Z:PROC			; HasItemDurability
EXTRN	?GetAllRepairItemRate@@YAMH@Z:PROC		; GetAllRepairItemRate
EXTRN	?GetItemAttr@@YAPAUITEM_ATTRIBUTE@@H@Z:PROC	; GetItemAttr
EXTRN	?IsMagic@CMagicInf@@QAEHXZ:PROC			; CMagicInf::IsMagic
EXTRN	?DataSocketSend@CwsGameServer@@QAEHIPADH@Z:PROC	; CwsGameServer::DataSocketSend
EXTRN	?CloseClient@@YAXH@Z:PROC			; CloseClient
EXTRN	?DataSend@@YAHHPAEK@Z:PROC			; DataSend
EXTRN	?SearchGuild@CGuildClass@@QAEPAU_GUILD_INFO_STRUCT@@PAD@Z:PROC ; CGuildClass::SearchGuild
EXTRN	?gObjCheckSerial0ItemList@@YAHPAVCItem@@@Z:PROC	; gObjCheckSerial0ItemList
EXTRN	?gCheckSkillDistance@@YAHHHH@Z:PROC		; gCheckSkillDistance
EXTRN	?CheckCombo@CComboAttack@@QAEHHH@Z:PROC		; CComboAttack::CheckCombo
EXTRN	?gObjUserKill@@YAXH@Z:PROC			; gObjUserKill
EXTRN	?gObjJoominCheck@@YAHHPAD@Z:PROC		; gObjJoominCheck
EXTRN	?gObjIsConnectedGP@@YAHH@Z:PROC			; gObjIsConnectedGP
EXTRN	?gObjIsConnected@@YAHPAVOBJECTSTRUCT@@@Z:PROC	; gObjIsConnected
EXTRN	?gObjIsConnected@@YAHPAVOBJECTSTRUCT@@H@Z:PROC	; gObjIsConnected
EXTRN	?gObjIsConnected@@YAHH@Z:PROC			; gObjIsConnected
EXTRN	?gObjIsAccontConnect@@YAHHPAD@Z:PROC		; gObjIsAccontConnect
EXTRN	?gObjIsGamePlaing@@YAHPAVOBJECTSTRUCT@@@Z:PROC	; gObjIsGamePlaing
EXTRN	?gObjCheckXYMapTile@@YAHPAVOBJECTSTRUCT@@H@Z:PROC ; gObjCheckXYMapTile
EXTRN	?PShop_CheckInventoryEmpty@@YA_NF@Z:PROC	; PShop_CheckInventoryEmpty
EXTRN	?gObjLevelUpPointAdd@@YAHEPAVOBJECTSTRUCT@@@Z:PROC ; gObjLevelUpPointAdd
EXTRN	?LevelSmallConvert@@YAEHH@Z:PROC		; LevelSmallConvert
EXTRN	?gObjInventoryInsertItem@@YAEHPAVCMapItem@@@Z:PROC ; gObjInventoryInsertItem
EXTRN	?gObjOnlyInventoryInsertItem@@YAEHVCItem@@@Z:PROC ; gObjOnlyInventoryInsertItem
EXTRN	?gObjInventoryInsertItemTemp@@YAEPAVOBJECTSTRUCT@@PAVCMapItem@@@Z:PROC ; gObjInventoryInsertItemTemp
EXTRN	?gObjShopBuyInventoryInsertItem@@YAEHVCItem@@@Z:PROC ; gObjShopBuyInventoryInsertItem
EXTRN	?gObjSearchItem@@YAHPAVOBJECTSTRUCT@@HHH@Z:PROC	; gObjSearchItem
EXTRN	?gObjSearchItemMinus@@YAHPAVOBJECTSTRUCT@@HH@Z:PROC ; gObjSearchItemMinus
EXTRN	?gObjInventoryDeleteItem@@YAEHH@Z:PROC		; gObjInventoryDeleteItem
EXTRN	?gObjInventoryItemSet@@YAXHHE@Z:PROC		; gObjInventoryItemSet
EXTRN	?gObjMakePreviewCharSet@@YAXH@Z:PROC		; gObjMakePreviewCharSet
EXTRN	?gObjInventoryItemSet_PShop@@YAXHHE@Z:PROC	; gObjInventoryItemSet_PShop
EXTRN	?gObjAddMsgSendDelay@@YAXPAVOBJECTSTRUCT@@HHHH@Z:PROC ; gObjAddMsgSendDelay
EXTRN	?CreateFrustrum@@YAXHHH@Z:PROC			; CreateFrustrum
EXTRN	?gObjAttack@@YAHPAVOBJECTSTRUCT@@0PAVCMagicInf@@HEHH@Z:PROC ; gObjAttack
EXTRN	?gObjCalDistance@@YAHPAVOBJECTSTRUCT@@0@Z:PROC	; gObjCalDistance
EXTRN	?gObjTeleportMagicUse@@YAXHEE@Z:PROC		; gObjTeleportMagicUse
EXTRN	?gObjMagicManaUse@@YAHPAVOBJECTSTRUCT@@PAVCMagicInf@@@Z:PROC ; gObjMagicManaUse
EXTRN	?gObjMagicBPUse@@YAHPAVOBJECTSTRUCT@@PAVCMagicInf@@@Z:PROC ; gObjMagicBPUse
EXTRN	?gObjMoveGate@@YAHHH@Z:PROC			; gObjMoveGate
EXTRN	?gObjMoveDataLoadingOK@@YAXH@Z:PROC		; gObjMoveDataLoadingOK
EXTRN	?gObjTeleport@@YAXHHHH@Z:PROC			; gObjTeleport
EXTRN	?gObjMagicAdd@@YAHPAVOBJECTSTRUCT@@EEEAAE@Z:PROC ; gObjMagicAdd
EXTRN	?gObjGetMagic@@YAPAVCMagicInf@@PAVOBJECTSTRUCT@@H@Z:PROC ; gObjGetMagic
EXTRN	?gObjGetMagicSearch@@YAPAVCMagicInf@@PAVOBJECTSTRUCT@@E@Z:PROC ; gObjGetMagicSearch
EXTRN	?gObjTradeCancel@@YAXH@Z:PROC			; gObjTradeCancel
EXTRN	?gObjTradeOkButton@@YAXH@Z:PROC			; gObjTradeOkButton
EXTRN	?gObjInventoryMoveItem@@YAEHEEAAH0EEPAE@Z:PROC	; gObjInventoryMoveItem
EXTRN	?gObjTradeInventoryMove@@YAEPAVOBJECTSTRUCT@@EE@Z:PROC ; gObjTradeInventoryMove
EXTRN	?gObjTradeTradeMove@@YAEPAVOBJECTSTRUCT@@EE@Z:PROC ; gObjTradeTradeMove
EXTRN	?gObjInventoryTradeMove@@YAEPAVOBJECTSTRUCT@@EE@Z:PROC ; gObjInventoryTradeMove
EXTRN	?gObjInventoryTrans@@YAHH@Z:PROC		; gObjInventoryTrans
EXTRN	?gObjInventoryCommit@@YAHH@Z:PROC		; gObjInventoryCommit
EXTRN	?gObjItemLevelUp@@YAHPAVOBJECTSTRUCT@@HH@Z:PROC	; gObjItemLevelUp
EXTRN	?gObjItemRandomLevelUp@@YAHPAVOBJECTSTRUCT@@HH@Z:PROC ; gObjItemRandomLevelUp
EXTRN	?gObjItemRandomOption3Up@@YAHPAVOBJECTSTRUCT@@HH@Z:PROC ; gObjItemRandomOption3Up
EXTRN	?gObjUseDrink@@YAXPAVOBJECTSTRUCT@@H@Z:PROC	; gObjUseDrink
EXTRN	?gObjCloseSet@@YAXHH@Z:PROC			; gObjCloseSet
EXTRN	?gObjPositionCheck@@YAHPAVOBJECTSTRUCT@@@Z:PROC	; gObjPositionCheck
EXTRN	?gObjGuildMasterCapacityTest@@YAHPAVOBJECTSTRUCT@@@Z:PROC ; gObjGuildMasterCapacityTest
EXTRN	?gObjGuildWarEndSend@@YAXPAU_GUILD_INFO_STRUCT@@0EE@Z:PROC ; gObjGuildWarEndSend
EXTRN	?gObjGuildWarEnd@@YAXPAU_GUILD_INFO_STRUCT@@0@Z:PROC ; gObjGuildWarEnd
EXTRN	?gObjInventorySearchSerialNumber@@YAHPAVOBJECTSTRUCT@@K@Z:PROC ; gObjInventorySearchSerialNumber
EXTRN	?gObjItemTextSave@@YAXPAVOBJECTSTRUCT@@@Z:PROC	; gObjItemTextSave
EXTRN	?gObjWarehouseTextSave@@YAXPAVOBJECTSTRUCT@@@Z:PROC ; gObjWarehouseTextSave
EXTRN	?gObjMonsterCallKill@@YAXH@Z:PROC		; gObjMonsterCallKill
EXTRN	?IsDuelEnable@@YA_NH@Z:PROC			; IsDuelEnable
EXTRN	?gObjClearViewport@@YAXPAVOBJECTSTRUCT@@@Z:PROC	; gObjClearViewport
EXTRN	?gObjCanItemTouch@@YAHPAVOBJECTSTRUCT@@H@Z:PROC	; gObjCanItemTouch
EXTRN	?ItemIsBufExOption@@YAXPAEPAVCItem@@@Z:PROC	; ItemIsBufExOption
EXTRN	?gObjCheckTeleportArea@@YAHHEE@Z:PROC		; gObjCheckTeleportArea
EXTRN	?gObjCheckAttackArea@@YAHHH@Z:PROC		; gObjCheckAttackArea
EXTRN	?gObjDuelCheck@@YAHPAVOBJECTSTRUCT@@@Z:PROC	; gObjDuelCheck
EXTRN	?gObjFind10EventChip@@YAHH@Z:PROC		; gObjFind10EventChip
EXTRN	?gObjSetPosition@@YAXHHH@Z:PROC			; gObjSetPosition
EXTRN	?gObjGetItemCountInIventory@@YAHHHHH@Z:PROC	; gObjGetItemCountInIventory
EXTRN	?gObjGetItemCountInIventory@@YAHHH@Z:PROC	; gObjGetItemCountInIventory
EXTRN	?gObjUseCircle@@YAXHH@Z:PROC			; gObjUseCircle
EXTRN	?gObjSetBP@@YAXH@Z:PROC				; gObjSetBP
EXTRN	?gObjCheckMaxZen@@YAHHH@Z:PROC			; gObjCheckMaxZen
EXTRN	?gObjFixInventoryPointer@@YA_NH@Z:PROC		; gObjFixInventoryPointer
EXTRN	?MsgOutput@@YAXHPADZZ:PROC			; MsgOutput
EXTRN	?PHeadSetB@@YAXPAEEH@Z:PROC			; PHeadSetB
EXTRN	?PHeadSubSetB@@YAXPAEEEH@Z:PROC			; PHeadSubSetB
EXTRN	?PHeadSetW@@YAXPAEEH@Z:PROC			; PHeadSetW
EXTRN	?MakeNoticeMsg@TNotice@@SAXPAXEPAD@Z:PROC	; TNotice::MakeNoticeMsg
EXTRN	?MakeNoticeMsgEx@TNotice@@SAXPAXEPADZZ:PROC	; TNotice::MakeNoticeMsgEx
EXTRN	?SetNoticeProperty@TNotice@@SAXPAXEKEGE@Z:PROC	; TNotice::SetNoticeProperty
EXTRN	?SendNoticeToUser@TNotice@@SAXHPAX@Z:PROC	; TNotice::SendNoticeToUser
EXTRN	?ExecFormat@CDataBase@@QAA_NPBDZZ:PROC		; CDataBase::ExecFormat
EXTRN	?KCredits@CManager@@QAEHPAD@Z:PROC		; CManager::KCredits
EXTRN	?Pshopnpc@CManager@@QAEHPAD@Z:PROC		; CManager::Pshopnpc
EXTRN	?SendPostMessage@CPostSystem@@QAEXHPAD@Z:PROC	; CPostSystem::SendPostMessage
EXTRN	?CustomLogcash@LogSystem@@SAXPAD@Z:PROC		; LogSystem::CustomLogcash
EXTRN	?Closeoffafk@COFFSystem@@QAEXPAD@Z:PROC		; COFFSystem::Closeoffafk
EXTRN	?Closeofftrade@COFFtrade@@QAEXPAD@Z:PROC	; COFFtrade::Closeofftrade
EXTRN	?CGPShopReqBuyItemTest@CPShop@@SAXPAUPMSG_REQ_BUYITEM_FROM_PSHOP@@H@Z:PROC ; CPShop::CGPShopReqBuyItemTest
EXTRN	?BuxConvert@@YAXPADH@Z:PROC			; BuxConvert
EXTRN	?ChatRecv@CHAT_COMMANDS@@QAE_NPAUPMSG_CHATDATA@@H@Z:PROC ; CHAT_COMMANDS::ChatRecv
EXTRN	?MakeItemNumber@@YAHHH@Z:PROC			; MakeItemNumber
EXTRN	?PHeadSetBE@@YAXPAEEH@Z:PROC			; PHeadSetBE
EXTRN	?PHeadSubSetBE@@YAXPAEEEH@Z:PROC		; PHeadSubSetBE
EXTRN	?GCItemListSend@@YAXH@Z:PROC			; GCItemListSend
EXTRN	?DataServerGetCharListRequest@@YAXF@Z:PROC	; DataServerGetCharListRequest
EXTRN	?GDUserItemSave@@YAXPAVOBJECTSTRUCT@@@Z:PROC	; GDUserItemSave
EXTRN	?JGCharacterCreateFailSend@@YAXHPAD@Z:PROC	; JGCharacterCreateFailSend
EXTRN	?ItemSerialCreateSend@@YAXHEEEHEEEEEHEEH@Z:PROC	; ItemSerialCreateSend
EXTRN	?GDGetWarehouseList@@YAXHPAD@Z:PROC		; GDGetWarehouseList
EXTRN	?GDSetWarehouseList@@YAXH@Z:PROC		; GDSetWarehouseList
EXTRN	?DGOptionDataSend@@YAXHPADPAEEEEEE@Z:PROC	; DGOptionDataSend
EXTRN	?DataSend@wsJoinServerCli@@QAEHPADH@Z:PROC	; wsJoinServerCli::DataSend
EXTRN	?ItemGive@MapClass@@QAEHHH_N@Z:PROC		; MapClass::ItemGive
EXTRN	?ItemDrop@MapClass@@QAEHHHMHHEEEEEKHHH@Z:PROC	; MapClass::ItemDrop
EXTRN	?SetStandAttr@MapClass@@QAEXHH@Z:PROC		; MapClass::SetStandAttr
EXTRN	?ClearStandAttr@MapClass@@QAEXHH@Z:PROC		; MapClass::ClearStandAttr
EXTRN	?GetAttr@MapClass@@QAEEHH@Z:PROC		; MapClass::GetAttr
EXTRN	?GetWarehouseUsedHowMuch@@YAHHH@Z:PROC		; GetWarehouseUsedHowMuch
EXTRN	?AddCash@CWhisperCash@@QAEHPAD@Z:PROC		; CWhisperCash::AddCash
EXTRN	?IsParty@PartyClass@@QAEHH@Z:PROC		; PartyClass::IsParty
EXTRN	?Create@PartyClass@@QAEHHHH@Z:PROC		; PartyClass::Create
EXTRN	?Destroy@PartyClass@@QAEHH@Z:PROC		; PartyClass::Destroy
EXTRN	?Add@PartyClass@@QAEHHHHH@Z:PROC		; PartyClass::Add
EXTRN	?Delete@PartyClass@@QAEXHH@Z:PROC		; PartyClass::Delete
EXTRN	?GetCount@PartyClass@@QAEHH@Z:PROC		; PartyClass::GetCount
EXTRN	?GetIndexUser@PartyClass@@QAEHHHAAH0@Z:PROC	; PartyClass::GetIndexUser
EXTRN	?GetPartyCount@PartyClass@@QAEHH@Z:PROC		; PartyClass::GetPartyCount
EXTRN	?GetIndex@PartyClass@@QAEHHHH@Z:PROC		; PartyClass::GetIndex
EXTRN	?Paint@PartyClass@@QAEXH@Z:PROC			; PartyClass::Paint
EXTRN	?LuckyBoxOpenEven@@YAXPAVOBJECTSTRUCT@@@Z:PROC	; LuckyBoxOpenEven
EXTRN	?StarOfXMasOpenEven@@YAXPAVOBJECTSTRUCT@@@Z:PROC ; StarOfXMasOpenEven
EXTRN	?FireCrackerOpenEven@@YAXPAVOBJECTSTRUCT@@@Z:PROC ; FireCrackerOpenEven
EXTRN	?HeartOfLoveOpenEven@@YAXPAVOBJECTSTRUCT@@@Z:PROC ; HeartOfLoveOpenEven
EXTRN	?DarkLordHeartItemBoxOpen@@YAXPAVOBJECTSTRUCT@@@Z:PROC ; DarkLordHeartItemBoxOpen
EXTRN	?GoldMedalOpenEven@@YAXPAVOBJECTSTRUCT@@@Z:PROC	; GoldMedalOpenEven
EXTRN	?SilverMedalOpenEven@@YAXPAVOBJECTSTRUCT@@@Z:PROC ; SilverMedalOpenEven
EXTRN	?EventChipOpenEven@@YAXPAVOBJECTSTRUCT@@@Z:PROC	; EventChipOpenEven
EXTRN	?EledoradoBoxOpenEven@@YAXPAVOBJECTSTRUCT@@HHH@Z:PROC ; EledoradoBoxOpenEven
EXTRN	?RingEventItemBoxOpen@@YAXPAVOBJECTSTRUCT@@@Z:PROC ; RingEventItemBoxOpen
EXTRN	?FriendShipItemBoxOpen@@YAXPAVOBJECTSTRUCT@@@Z:PROC ; FriendShipItemBoxOpen
EXTRN	?EGReqBloodCastleEnterCount@@YAXH@Z:PROC	; EGReqBloodCastleEnterCount
EXTRN	?DataSendEventChip@@YAXPADH@Z:PROC		; DataSendEventChip
EXTRN	?ManagementProc@CGMMng@@QAEHPAVOBJECTSTRUCT@@PADH@Z:PROC ; CGMMng::ManagementProc
EXTRN	?BattleInfoSend@CGMMng@@QAEXPADE0E@Z:PROC	; CGMMng::BattleInfoSend
EXTRN	?DataSend@CGMMng@@QAEXPAEH@Z:PROC		; CGMMng::DataSend
EXTRN	?NpcTalk@@YAHPAVOBJECTSTRUCT@@0@Z:PROC		; NpcTalk
EXTRN	?SkillGetRequireClass@CMagicDamage@@QAEHHHH@Z:PROC ; CMagicDamage::SkillGetRequireClass
EXTRN	?Send@DBSockMng@@QAEHPADH@Z:PROC		; DBSockMng::Send
EXTRN	?Close@cOffExp@@QAEXPAD@Z:PROC			; cOffExp::Close
EXTRN	?FriendListRequest@@YAXH@Z:PROC			; FriendListRequest
EXTRN	?FriendDelRequest@@YAXPAUPMSG_FRIEND_DEL_REQ@@H@Z:PROC ; FriendDelRequest
EXTRN	?FriendAddRequest@@YAXPAUPMSG_FRIEND_ADD_REQ@@H@Z:PROC ; FriendAddRequest
EXTRN	?WaitFriendAddRequest@@YAXPAUPMSG_FRIEND_ADD_SIN_RESULT@@H@Z:PROC ; WaitFriendAddRequest
EXTRN	?FriendMemoSend@@YAXPAUPMSG_FRIEND_MEMO@@H@Z:PROC ; FriendMemoSend
EXTRN	?FriendMemoReadReq@@YAXPAUPMSG_FRIEND_READ_MEMO_REQ@@H@Z:PROC ; FriendMemoReadReq
EXTRN	?FriendMemoDelReq@@YAXPAUPMSG_FRIEND_MEMO_DEL_REQ@@H@Z:PROC ; FriendMemoDelReq
EXTRN	?FriendMemoListReq@@YAXH@Z:PROC			; FriendMemoListReq
EXTRN	?FriendChatRoomCreateReq@@YAXPAUPMSG_FRIEND_ROOMCREATE_REQ@@H@Z:PROC ; FriendChatRoomCreateReq
EXTRN	?FriendRoomInvitationReq@@YAXPAUPMSG_ROOM_INVITATION@@H@Z:PROC ; FriendRoomInvitationReq
EXTRN	?FriendStateClientRecv@@YAXPAUPMSG_FRIEND_STATE_C@@H@Z:PROC ; FriendStateClientRecv
EXTRN	?GDGuildCreateSend@@YAXHPAD0PAE@Z:PROC		; GDGuildCreateSend
EXTRN	?GDGuildDestroySend@@YAXHPAD0@Z:PROC		; GDGuildDestroySend
EXTRN	?GDGuildMemberAdd@@YAXHPAD0@Z:PROC		; GDGuildMemberAdd
EXTRN	?GDGuildMemberDel@@YAXHPAD0@Z:PROC		; GDGuildMemberDel
EXTRN	?GDGuildNoticeSave@@YAXPAD0@Z:PROC		; GDGuildNoticeSave
EXTRN	?ChaosBoxInit@CMixSystem@@QAEHPAVOBJECTSTRUCT@@@Z:PROC ; CMixSystem::ChaosBoxInit
EXTRN	?DefaultChaosMix@CMixSystem@@QAEXPAVOBJECTSTRUCT@@@Z:PROC ; CMixSystem::DefaultChaosMix
EXTRN	?DevilSquareItemChaosMix@CMixSystem@@QAEXPAVOBJECTSTRUCT@@@Z:PROC ; CMixSystem::DevilSquareItemChaosMix
EXTRN	?PlusItemLevelChaosMix@CMixSystem@@QAEHPAVOBJECTSTRUCT@@H@Z:PROC ; CMixSystem::PlusItemLevelChaosMix
EXTRN	?PegasiaChaosMix@CMixSystem@@QAEHPAVOBJECTSTRUCT@@@Z:PROC ; CMixSystem::PegasiaChaosMix
EXTRN	?CircleChaosMix@CMixSystem@@QAEHPAVOBJECTSTRUCT@@@Z:PROC ; CMixSystem::CircleChaosMix
EXTRN	?WingChaosMix@CMixSystem@@QAEHPAVOBJECTSTRUCT@@@Z:PROC ; CMixSystem::WingChaosMix
EXTRN	?BloodCastleItemChaosMix@CMixSystem@@QAEXPAVOBJECTSTRUCT@@@Z:PROC ; CMixSystem::BloodCastleItemChaosMix
EXTRN	?DarkHorseChaosMix@CMixSystem@@QAEXPAVOBJECTSTRUCT@@@Z:PROC ; CMixSystem::DarkHorseChaosMix
EXTRN	?DarkSpiritChaosMix@CMixSystem@@QAEXPAVOBJECTSTRUCT@@@Z:PROC ; CMixSystem::DarkSpiritChaosMix
EXTRN	?IsMember@CConMember@@QAEHPAD@Z:PROC		; CConMember::IsMember
EXTRN	?InCheck@NSerialCheck@@QAEHE@Z:PROC		; NSerialCheck::InCheck
EXTRN	?GetSerial@NSerialCheck@@QAEHXZ:PROC		; NSerialCheck::GetSerial
EXTRN	?IncObjCount@CDevilSquareGround@@QAEXXZ:PROC	; CDevilSquareGround::IncObjCount
EXTRN	?GetObjCount@CDevilSquareGround@@QAEJXZ:PROC	; CDevilSquareGround::GetObjCount
EXTRN	?gCheckBlankBattleGround@@YAHXZ:PROC		; gCheckBlankBattleGround
EXTRN	?gBattleGroundEnable@@YAXHH@Z:PROC		; gBattleGroundEnable
EXTRN	?GetBattleTeamName@@YAPADHH@Z:PROC		; GetBattleTeamName
EXTRN	?GetBattleTeamScore@@YAHHH@Z:PROC		; GetBattleTeamScore
EXTRN	?BattleSoccerGoalEnd@@YAXH@Z:PROC		; BattleSoccerGoalEnd
EXTRN	?AddExperience@CBloodCastle@@QAE_NHH@Z:PROC	; CBloodCastle::AddExperience
EXTRN	?SearchUserDeleteQuestItem@CBloodCastle@@QAEXH@Z:PROC ; CBloodCastle::SearchUserDeleteQuestItem
EXTRN	?SearchUserDropQuestItem@CBloodCastle@@QAEXH@Z:PROC ; CBloodCastle::SearchUserDropQuestItem
EXTRN	?SendNoticeMessage@CBloodCastle@@QAEXHPAD@Z:PROC ; CBloodCastle::SendNoticeMessage
EXTRN	?EnterUserBridge@CBloodCastle@@QAEHHH@Z:PROC	; CBloodCastle::EnterUserBridge
EXTRN	?CheckUsersOnConnect@CBloodCastle@@QAEXH@Z:PROC	; CBloodCastle::CheckUsersOnConnect
EXTRN	?GetCurrentState@CBloodCastle@@QAEHH@Z:PROC	; CBloodCastle::GetCurrentState
EXTRN	?GetRemainTime@CBloodCastle@@QAEHH@Z:PROC	; CBloodCastle::GetRemainTime
EXTRN	?CheckEnterLevel@CBloodCastle@@QAEHHH@Z:PROC	; CBloodCastle::CheckEnterLevel
EXTRN	?CheckCanEnter@CBloodCastle@@QAE_NH@Z:PROC	; CBloodCastle::CheckCanEnter
EXTRN	?CheckPlayStart@CBloodCastle@@QAE_NH@Z:PROC	; CBloodCastle::CheckPlayStart
EXTRN	?CheckQuestItemSerial@CBloodCastle@@QAE_NHPAVCMapItem@@@Z:PROC ; CBloodCastle::CheckQuestItemSerial
EXTRN	?EnterUserChaosCastle@CChaosCastle@@QAEHHH@Z:PROC ; CChaosCastle::EnterUserChaosCastle
EXTRN	?LeaveUserChaosCastle@CChaosCastle@@QAEHHH@Z:PROC ; CChaosCastle::LeaveUserChaosCastle
EXTRN	?GetUserLevelToEnter@CChaosCastle@@QAEHH@Z:PROC	; CChaosCastle::GetUserLevelToEnter
EXTRN	?CheckUserEnterMoney@CChaosCastle@@QAEHHH@Z:PROC ; CChaosCastle::CheckUserEnterMoney
EXTRN	?PayUserEnterMoney@CChaosCastle@@QAEHHH@Z:PROC	; CChaosCastle::PayUserEnterMoney
EXTRN	?GetCurrentState@CChaosCastle@@QAEHH@Z:PROC	; CChaosCastle::GetCurrentState
EXTRN	?GetCurEnteredUser@CChaosCastle@@QAEHH@Z:PROC	; CChaosCastle::GetCurEnteredUser
EXTRN	?GetRemainTime@CChaosCastle@@QAEHH@Z:PROC	; CChaosCastle::GetRemainTime
EXTRN	?CheckCanEnter@CChaosCastle@@QAE_NH@Z:PROC	; CChaosCastle::CheckCanEnter
EXTRN	?ObjSetPosition@CChaosCastle@@QAEHHHH@Z:PROC	; CChaosCastle::ObjSetPosition
EXTRN	?CheckWearingMOPH@CChaosCastle@@QAEHH@Z:PROC	; CChaosCastle::CheckWearingMOPH
EXTRN	?IsInGate@CGate@@QAEHHH@Z:PROC			; CGate::IsInGate
EXTRN	?GetQuestInfo@CQuestInfo@@QAEPAUQUEST_INFO@@H@Z:PROC ; CQuestInfo::GetQuestInfo
EXTRN	?GetQuestState@CQuestInfo@@QAEHPAVOBJECTSTRUCT@@H@Z:PROC ; CQuestInfo::GetQuestState
EXTRN	?GetQuestStateBYTE@CQuestInfo@@QAEEPAVOBJECTSTRUCT@@H@Z:PROC ; CQuestInfo::GetQuestStateBYTE
EXTRN	?SetQuestState@CQuestInfo@@QAEEPAVOBJECTSTRUCT@@HH@Z:PROC ; CQuestInfo::SetQuestState
EXTRN	?Send@CSendHackLog@@QAEXHEPAD@Z:PROC		; CSendHackLog::Send
EXTRN	?SendData@CSendHackLog@@QAEHPAEK@Z:PROC		; CSendHackLog::SendData
EXTRN	?SpeedHackCheck@CObjUseSkill@@QAEHH@Z:PROC	; CObjUseSkill::SpeedHackCheck
EXTRN	?EnableSkill@CObjUseSkill@@QAEHE@Z:PROC		; CObjUseSkill::EnableSkill
EXTRN	?UseSkill@CObjUseSkill@@QAEXHPAVCMagicInf@@EEEEH@Z:PROC ; CObjUseSkill::UseSkill
EXTRN	?UseSkill@CObjUseSkill@@QAEXHHPAVCMagicInf@@@Z:PROC ; CObjUseSkill::UseSkill
EXTRN	?MaGumSkillDefenseDown@CObjUseSkill@@QAEXHHH@Z:PROC ; CObjUseSkill::MaGumSkillDefenseDown
EXTRN	?SkillChangeUse@CObjUseSkill@@QAEHH@Z:PROC	; CObjUseSkill::SkillChangeUse
EXTRN	?CheckPenetrationSkill@CMultiAttackHackCheck@@QAEHHEE@Z:PROC ; CMultiAttackHackCheck::CheckPenetrationSkill
EXTRN	?AddCheckSum@CPacketCheckSum@@QAEXHHK@Z:PROC	; CPacketCheckSum::AddCheckSum
EXTRN	?gObjCalCharacter@@YAXH@Z:PROC			; gObjCalCharacter
EXTRN	?gObjMonsterRegen@@YAHPAVOBJECTSTRUCT@@@Z:PROC	; gObjMonsterRegen
EXTRN	?CreateKalimaGate@CKalimaGate@@QAEHHEEE@Z:PROC	; CKalimaGate::CreateKalimaGate
EXTRN	?CheckOverlapKundunMark@CKalimaGate@@QAEHHE@Z:PROC ; CKalimaGate::CheckOverlapKundunMark
EXTRN	?ChangeCommand@CDarkSpirit@@QAEXHH@Z:PROC	; CDarkSpirit::ChangeCommand
EXTRN	?gSetBattleTeamMaster@@YAXHHPADPAU_GUILD_INFO_STRUCT@@@Z:PROC ; gSetBattleTeamMaster
EXTRN	@__security_check_cookie@4:PROC
EXTRN	__except_handler4:PROC
EXTRN	__local_unwind4:PROC
EXTRN	_memset:PROC
EXTRN	?LogAdd@@3P6AXPADZZA:DWORD			; LogAdd
EXTRN	?LogAddC@@3P6AXEPADZZA:DWORD			; LogAddC
EXTRN	?LogAddL@@3P6AXPADZZA:DWORD			; LogAddL
EXTRN	?LogAddHeadHex@@3P6AXPAD0H@ZA:DWORD		; LogAddHeadHex
EXTRN	?LogAddTD@@3P6AXPADZZA:DWORD			; LogAddTD
EXTRN	?LogAddTD_TempLog@@3P6AXPADZZA:DWORD		; LogAddTD_TempLog
EXTRN	?ItemAttribute@@3PAUITEM_ATTRIBUTE@@A:BYTE	; ItemAttribute
EXTRN	?gComboAttack@@3VCComboAttack@@A:DWORD		; gComboAttack
EXTRN	?gObj@@3PAVOBJECTSTRUCT@@A:DWORD		; gObj
EXTRN	?RoadPathTable@@3PAFA:BYTE			; RoadPathTable
EXTRN	?Manager@@3VCManager@@A:BYTE			; Manager
EXTRN	?g_GlobalConfig@@3VCGlobalConfig@@A:BYTE	; g_GlobalConfig
EXTRN	?g_PostSystem@@3VCPostSystem@@A:BYTE		; g_PostSystem
EXTRN	?g_TerrainManager@@3VCTerrainManager@@A:BYTE	; g_TerrainManager
EXTRN	?OFFSystem@@3VCOFFSystem@@A:BYTE		; OFFSystem
EXTRN	?OFFtrade@@3VCOFFtrade@@A:BYTE			; OFFtrade
EXTRN	?gs_cmd@@3VCHAT_COMMANDS@@A:BYTE		; gs_cmd
EXTRN	?lMsg@@3VCMsg@@A:BYTE				; lMsg
EXTRN	?gGameServerCode@@3FA:WORD			; gGameServerCode
EXTRN	?bCanTrade@@3HA:DWORD				; bCanTrade
EXTRN	?bCanChaosBox@@3HA:DWORD			; bCanChaosBox
EXTRN	?bCanConnectMember@@3HA:DWORD			; bCanConnectMember
EXTRN	?bCanWarehouseLock@@3HA:DWORD			; bCanWarehouseLock
EXTRN	?gMerryXMasNpcEvent@@3HA:DWORD			; gMerryXMasNpcEvent
EXTRN	?gHappyNewYearNpcEvent@@3HA:DWORD		; gHappyNewYearNpcEvent
EXTRN	?dwgCheckSum@@3PAKA:BYTE			; dwgCheckSum
EXTRN	?MapC@@3PAVMapClass@@A:DWORD			; MapC
EXTRN	?ShopC@@3PAVCShop@@A:BYTE			; ShopC
EXTRN	?szClientVersion@@3PADA:BYTE			; szClientVersion
EXTRN	?szGameServerExeSerial@@3PADA:BYTE		; szGameServerExeSerial
EXTRN	?gCreateCharacter@@3HA:DWORD			; gCreateCharacter
EXTRN	?gGuildDestroy@@3HA:DWORD			; gGuildDestroy
EXTRN	?gNonPK@@3HA:DWORD				; gNonPK
EXTRN	?gPkLimitFree@@3HA:DWORD			; gPkLimitFree
EXTRN	?gSpeedHackPenalty@@3HA:DWORD			; gSpeedHackPenalty
EXTRN	?gDQChaosSuccessRateLevel1@@3HA:DWORD		; gDQChaosSuccessRateLevel1
EXTRN	?gDQChaosSuccessRateLevel2@@3HA:DWORD		; gDQChaosSuccessRateLevel2
EXTRN	?gDQChaosSuccessRateLevel3@@3HA:DWORD		; gDQChaosSuccessRateLevel3
EXTRN	?gDQChaosSuccessRateLevel4@@3HA:DWORD		; gDQChaosSuccessRateLevel4
EXTRN	?bIsIgnorePacketSpeedHackDetect@@3HA:DWORD	; bIsIgnorePacketSpeedHackDetect
EXTRN	?gHackCheckCount@@3KA:DWORD			; gHackCheckCount
EXTRN	?gDetectedHackKickCount@@3HA:DWORD		; gDetectedHackKickCount
EXTRN	?gIsKickDetecHackCountLimit@@3HA:DWORD		; gIsKickDetecHackCountLimit
EXTRN	?gWriteChatLog@@3HA:DWORD			; gWriteChatLog
EXTRN	?gWriteSkillLog@@3HA:DWORD			; gWriteSkillLog
EXTRN	?gDoPShopOpen@@3HA:DWORD			; gDoPShopOpen
EXTRN	?gEnableCheckPenetrationSkill@@3HA:DWORD	; gEnableCheckPenetrationSkill
EXTRN	?g_iSkillDistanceKick@@3HA:DWORD		; g_iSkillDistanceKick
EXTRN	?g_iSkillDistanceKickCount@@3HA:DWORD		; g_iSkillDistanceKickCount
EXTRN	?g_iSkillDiatanceKickCheckTime@@3HA:DWORD	; g_iSkillDiatanceKickCheckTime
EXTRN	?cManager@@3VCGMMng@@A:BYTE			; cManager
EXTRN	?MagicDamageC@@3VCMagicDamage@@A:BYTE		; MagicDamageC
EXTRN	?cDBSMng@@3VDBSockMng@@A:BYTE			; cDBSMng
EXTRN	?OffExp@@3VcOffExp@@A:BYTE			; OffExp
EXTRN	?g_MixSystem@@3VCMixSystem@@A:BYTE		; g_MixSystem
EXTRN	?ConMember@@3VCConMember@@A:BYTE		; ConMember
EXTRN	?g_DevilSquare@@3VCDevilSquare@@A:BYTE		; g_DevilSquare
EXTRN	?gBSGround@@3PAPAVCBattleSoccer@@A:DWORD	; gBSGround
EXTRN	?g_BloodCastle@@3VCBloodCastle@@A:BYTE		; g_BloodCastle
EXTRN	?g_ChaosCastle@@3VCChaosCastle@@A:BYTE		; g_ChaosCastle
EXTRN	?gGateC@@3VCGate@@A:BYTE			; gGateC
EXTRN	?g_QuestInfo@@3VCQuestInfo@@A:BYTE		; g_QuestInfo
EXTRN	?gSendHackLog@@3VCSendHackLog@@A:BYTE		; gSendHackLog
EXTRN	?gObjUseSkill@@3VCObjUseSkill@@A:DWORD		; gObjUseSkill
EXTRN	?gMultiAttackHackCheck@@3PAVCMultiAttackHackCheck@@A:BYTE ; gMultiAttackHackCheck
EXTRN	?gPacketCheckSum@@3VCPacketCheckSum@@A:BYTE	; gPacketCheckSum
EXTRN	?gQeustNpcTeleport@@3VCQeustNpcTeleport@@A:BYTE	; gQeustNpcTeleport
EXTRN	?g_KalimaGate@@3VCKalimaGate@@A:BYTE		; g_KalimaGate
EXTRN	?gDarkSpirit@@3PAVCDarkSpirit@@A:BYTE		; gDarkSpirit
EXTRN	?wsGServer@@3VCwsGameServer@@A:BYTE		; wsGServer
EXTRN	?wsJServerCli@@3VwsJoinServerCli@@A:BYTE	; wsJServerCli
EXTRN	?WhisperCash@@3VCWhisperCash@@A:BYTE		; WhisperCash
EXTRN	?gParty@@3VPartyClass@@A:BYTE			; gParty
EXTRN	?Guild@@3VCGuildClass@@A:BYTE			; Guild
EXTRN	?gStalkProtocolId@@3PADA:BYTE			; gStalkProtocolId
EXTRN	?gStalkProtocol@@3HA:DWORD			; gStalkProtocol
EXTRN	?gNSerialCheck@@3PAVNSerialCheck@@A:BYTE	; gNSerialCheck
EXTRN	___security_cookie:DWORD
EXTRN	__fltused:DWORD
;	COMDAT ?_OptionsStorage@?1??__local_stdio_printf_options@@9@4_KA
_BSS	SEGMENT
?_OptionsStorage@?1??__local_stdio_printf_options@@9@4_KA DQ 01H DUP (?) ; `__local_stdio_printf_options'::`2'::_OptionsStorage
_BSS	ENDS
_BSS	SEGMENT
?g_iChaosCastle_MonsterItems@@3PAY111HA DD 018H DUP (?)	; g_iChaosCastle_MonsterItems
_BSS	ENDS
CRT$XCU	SEGMENT
?g_iChaosCastle_MonsterItems$initializer$@@3P6AXXZA DD FLAT:??__Eg_iChaosCastle_MonsterItems@@YAXXZ ; g_iChaosCastle_MonsterItems$initializer$
CRT$XCU	ENDS
;	COMDAT __real@40a00000
CONST	SEGMENT
__real@40a00000 DD 040a00000r			; 5
CONST	ENDS
;	COMDAT __real@40400000
CONST	SEGMENT
__real@40400000 DD 040400000r			; 3
CONST	ENDS
;	COMDAT __real@40000000
CONST	SEGMENT
__real@40000000 DD 040000000r			; 2
CONST	ENDS
;	COMDAT __real@3f800000
CONST	SEGMENT
__real@3f800000 DD 03f800000r			; 1
CONST	ENDS
;	COMDAT __real@00000000
CONST	SEGMENT
__real@00000000 DD 000000000r			; 0
CONST	ENDS
;	COMDAT ??_C@_0DI@DBFIHHGF@?$FLPetItem?$FN?5?$FL?$CFs?$FN?$FL?$CFs?$FN?5RequestPetIt@
CONST	SEGMENT
??_C@_0DI@DBFIHHGF@?$FLPetItem?$FN?5?$FL?$CFs?$FN?$FL?$CFs?$FN?5RequestPetIt@ DB '['
	DB	'PetItem] [%s][%s] RequestPetItem Invalid Chaos nPos %d', 00H ; `string'
CONST	ENDS
;	COMDAT ??_C@_0DO@OIKHDOGN@?$FLPetItem?$FN?5?$FL?$CFs?$FN?$FL?$CFs?$FN?5RequestPetIt@
CONST	SEGMENT
??_C@_0DO@OIKHDOGN@?$FLPetItem?$FN?5?$FL?$CFs?$FN?$FL?$CFs?$FN?5RequestPetIt@ DB '['
	DB	'PetItem] [%s][%s] RequestPetItem Invalid TargetTrade nPos %d', 00H ; `string'
CONST	ENDS
;	COMDAT ??_C@_0DI@LFOOFHNO@?$FLPetItem?$FN?5?$FL?$CFs?$FN?$FL?$CFs?$FN?5RequestPetIt@
CONST	SEGMENT
??_C@_0DI@LFOOFHNO@?$FLPetItem?$FN?5?$FL?$CFs?$FN?$FL?$CFs?$FN?5RequestPetIt@ DB '['
	DB	'PetItem] [%s][%s] RequestPetItem Invalid Trade nPos %d', 00H ; `string'
CONST	ENDS
;	COMDAT ??_C@_0DM@BLGKOALL@?$FLPetItem?$FN?5?$FL?$CFs?$FN?$FL?$CFs?$FN?5RequestPetIt@
CONST	SEGMENT
??_C@_0DM@BLGKOALL@?$FLPetItem?$FN?5?$FL?$CFs?$FN?$FL?$CFs?$FN?5RequestPetIt@ DB '['
	DB	'PetItem] [%s][%s] RequestPetItem Invalid WareHouse nPos %d', 00H ; `string'
CONST	ENDS
;	COMDAT ??_C@_0DL@GJNDCDLC@?$FLPetItem?$FN?5?$FL?$CFs?$FN?$FL?$CFs?$FN?5RequestPetIt@
CONST	SEGMENT
??_C@_0DL@GJNDCDLC@?$FLPetItem?$FN?5?$FL?$CFs?$FN?$FL?$CFs?$FN?5RequestPetIt@ DB '['
	DB	'PetItem] [%s][%s] RequestPetItem Invalid Iventory nPos %d', 00H ; `string'
CONST	ENDS
;	COMDAT ?__LINE__Var@?0??CGRequestPetItemInfo@@YAXPAUPMSG_REQUEST_PET_ITEMINFO@@H@Z@4JA
_DATA	SEGMENT
?__LINE__Var@?0??CGRequestPetItemInfo@@YAXPAUPMSG_REQUEST_PET_ITEMINFO@@H@Z@4JA DD 05657H ; `CGRequestPetItemInfo'::`1'::__LINE__Var
_DATA	ENDS
;	COMDAT ??_C@_0BH@LCDOHCGD@error?9L2?5?3?5Index?5?$CFs?5?$CFd@
CONST	SEGMENT
??_C@_0BH@LCDOHCGD@error?9L2?5?3?5Index?5?$CFs?5?$CFd@ DB 'error-L2 : Ind'
	DB	'ex %s %d', 00H				; `string'
CONST	ENDS
;	COMDAT ?__LINE__Var@?0??CGRequestPetItemCommand@@YAXPAUPMSG_REQUEST_PET_ITEM_COMMAND@@H@Z@4JA
_DATA	SEGMENT
?__LINE__Var@?0??CGRequestPetItemCommand@@YAXPAUPMSG_REQUEST_PET_ITEM_COMMAND@@H@Z@4JA DD 05642H ; `CGRequestPetItemCommand'::`1'::__LINE__Var
_DATA	ENDS
;	COMDAT ??_C@_0CG@KCMDMGAG@?$FLDuel?$FN?5?$FL?$CFs?$FN?$FL?$CFs?$FN?5Duel?5Started?5?$FL?$CF@
CONST	SEGMENT
??_C@_0CG@KCMDMGAG@?$FLDuel?$FN?5?$FL?$CFs?$FN?$FL?$CFs?$FN?5Duel?5Started?5?$FL?$CF@ DB '['
	DB	'Duel] [%s][%s] Duel Started [%s][%s]', 00H	; `string'
CONST	ENDS
;	COMDAT ??_C@_0CE@OCKCINJI@?$FLDuel?$FN?5?$FL?$CFs?$FN?$FL?$CFs?$FN?5Duel?5Ended?5?$FL?$CFs?$FN@
CONST	SEGMENT
??_C@_0CE@OCKCINJI@?$FLDuel?$FN?5?$FL?$CFs?$FN?$FL?$CFs?$FN?5Duel?5Ended?5?$FL?$CFs?$FN@ DB '['
	DB	'Duel] [%s][%s] Duel Ended [%s][%s]', 00H	; `string'
CONST	ENDS
;	COMDAT ?__LINE__Var@?0??CGDuelEndRequestRecv@@YAXPAUPMSG_REQ_END_DUEL@@H@Z@4JA
_DATA	SEGMENT
?__LINE__Var@?0??CGDuelEndRequestRecv@@YAXPAUPMSG_REQ_END_DUEL@@H@Z@4JA DD 054adH ; `CGDuelEndRequestRecv'::`1'::__LINE__Var
_DATA	ENDS
;	COMDAT ??_C@_0DE@MJGAINFG@?$FLDuel?$FN?5?$FL?$CFs?$FN?$FL?$CFs?$FN?5Requested?5to?5St@
CONST	SEGMENT
??_C@_0DE@MJGAINFG@?$FLDuel?$FN?5?$FL?$CFs?$FN?$FL?$CFs?$FN?5Requested?5to?5St@ DB '['
	DB	'Duel] [%s][%s] Requested to Start Duel to [%s][%s]', 00H ; `string'
CONST	ENDS
;	COMDAT ?__LINE__Var@?0??CGDuelStartRequestRecv@@YAXPAUPMSG_REQ_START_DUEL@@H@Z@4JA
_DATA	SEGMENT
?__LINE__Var@?0??CGDuelStartRequestRecv@@YAXPAUPMSG_REQ_START_DUEL@@H@Z@4JA DD 05396H ; `CGDuelStartRequestRecv'::`1'::__LINE__Var
_DATA	ENDS
;	COMDAT ??_C@_0EC@MLMNLDLI@?$FLMu_2Anv_Event?$FN?5?$FL?$CFs?$FN?$FL?$CFs?$FN?5Regist@
CONST	SEGMENT
??_C@_0EC@MLMNLDLI@?$FLMu_2Anv_Event?$FN?5?$FL?$CFs?$FN?$FL?$CFs?$FN?5Regist@ DB '['
	DB	'Mu_2Anv_Event] [%s][%s] Register Lotto Number (Serial: %s-%s-'
	DB	'%s)', 00H					; `string'
CONST	ENDS
;	COMDAT ??_C@_0FK@NPJPMFON@?$FLChaos?5Castle?$FN?5?$CI?$CFd?$CJ?5?$CIAccount?3?$CFs@
CONST	SEGMENT
??_C@_0FK@NPJPMFON@?$FLChaos?5Castle?$FN?5?$CI?$CFd?$CJ?5?$CIAccount?3?$CFs@ DB '['
	DB	'Chaos Castle] (%d) (Account:%s, Name:%s) Entered Chaos Castle'
	DB	' (Guard Mail Set Serial:%d)', 00H		; `string'
CONST	ENDS
;	COMDAT ?__LINE__Var@?0??CGRequestEnterChaosCastle@@YAXPAUPMSG_REQ_MOVECHAOSCASTLE@@H@Z@4JA
_DATA	SEGMENT
?__LINE__Var@?0??CGRequestEnterChaosCastle@@YAXPAUPMSG_REQ_MOVECHAOSCASTLE@@H@Z@4JA DD 04f32H ; `CGRequestEnterChaosCastle'::`1'::__LINE__Var
_DATA	ENDS
;	COMDAT ??_C@_0FL@KOIEBFHD@?$FLBlood?5Castle?$FN?5?$CI?$CFd?$CJ?5?$CIAccount?3?$CFs@
CONST	SEGMENT
??_C@_0FL@KOIEBFHD@?$FLBlood?5Castle?$FN?5?$CI?$CFd?$CJ?5?$CIAccount?3?$CFs@ DB '['
	DB	'Blood Castle] (%d) (Account:%s, Name:%s) Entered Blood Castle'
	DB	' (Invisible Cloak Serial:%d)', 00H		; `string'
CONST	ENDS
;	COMDAT ?__LINE__Var@?0??CGRequestEnterBloodCastle@@YAXPAUPMSG_REQ_MOVEBLOODCASTLE@@H@Z@4JA
_DATA	SEGMENT
?__LINE__Var@?0??CGRequestEnterBloodCastle@@YAXPAUPMSG_REQ_MOVEBLOODCASTLE@@H@Z@4JA DD 04ca2H ; `CGRequestEnterBloodCastle'::`1'::__LINE__Var
_DATA	ENDS
;	COMDAT ??_C@_0CJ@OIKODDDO@?$FLEventChip?$FN?5?$FL?$CFs?$FN?$FL?$CFs?$FN?5Request?5Ch@
CONST	SEGMENT
??_C@_0CJ@OIKODDDO@?$FLEventChip?$FN?5?$FL?$CFs?$FN?$FL?$CFs?$FN?5Request?5Ch@ DB '['
	DB	'EventChip] [%s][%s] Request Change Rena', 00H ; `string'
CONST	ENDS
;	COMDAT ??_C@_0CL@LPOFFCFH@?$FLEventChip?$FN?5?$FL?$CFs?$FN?$FL?$CFs?$FN?5Request?5Ch@
CONST	SEGMENT
??_C@_0CL@LPOFFCFH@?$FLEventChip?$FN?5?$FL?$CFs?$FN?$FL?$CFs?$FN?5Request?5Ch@ DB '['
	DB	'EventChip] [%s][%s] Request Change Stones', 00H ; `string'
CONST	ENDS
;	COMDAT ?__LINE__Var@?0??GCUseEndEventChipRescv@@YAXH@Z@4JA
_DATA	SEGMENT
?__LINE__Var@?0??GCUseEndEventChipRescv@@YAXH@Z@4JA DD 04bcfH ; `GCUseEndEventChipRescv'::`1'::__LINE__Var
_DATA	ENDS
;	COMDAT ??_C@_0CI@GJEFDNKH@?$FLEventChip?$FN?5?$FL?$CFs?$FN?$FL?$CFs?$FN?5Request?5Mu@
CONST	SEGMENT
??_C@_0CI@GJEFDNKH@?$FLEventChip?$FN?5?$FL?$CFs?$FN?$FL?$CFs?$FN?5Request?5Mu@ DB '['
	DB	'EventChip] [%s][%s] Request MutoNumber', 00H ; `string'
CONST	ENDS
;	COMDAT ??_C@_0BO@DNEDNODE@?$MA?L?$LJ?L?5?$LH?g?$LA?$KB?$LF?e?$MA?G?5?$LM?$PN?$MA?Z?$LA?$KB?5?$MA?V?$LN?$MA?$LE?O?$LE?Y@
CONST	SEGMENT
??_C@_0BO@DNEDNODE@?$MA?L?$LJ?L?5?$LH?g?$LA?$KB?$LF?e?$MA?G?5?$LM?$PN?$MA?Z?$LA?$KB?5?$MA?V?$LN?$MA?$LE?O?$LE?Y@ DB 0c0H
	DB	0ccH, 0b9H, 0ccH, ' ', 0b7H, 0e7H, 0b0H, 0a1H, 0b5H, 0e5H, 0c0H
	DB	0c7H, ' ', 0bcH, 0fdH, 0c0H, 0daH, 0b0H, 0a1H, ' ', 0c0H, 0d6H
	DB	0bdH, 0c0H, 0b4H, 0cfH, 0b4H, 0d9H, 00H	; `string'
CONST	ENDS
;	COMDAT ??_C@_0DF@CGCEIIIK@?$FLStone?$FN?5?$FL?$CFs?$FN?$FL?$CFs?$FN?5Not?5Found?5Even@
CONST	SEGMENT
??_C@_0DF@CGCEIIIK@?$FLStone?$FN?5?$FL?$CFs?$FN?$FL?$CFs?$FN?5Not?5Found?5Even@ DB '['
	DB	'Stone] [%s][%s] Not Found EventChip (Stone Pos: %d)', 00H ; `string'
CONST	ENDS
;	COMDAT ??_C@_0DK@EFAFIPG@?$FLStone?$FN?5?$FL?$CFs?$FN?$FL?$CFs?$FN?5Register?5Stone@
CONST	SEGMENT
??_C@_0DK@EFAFIPG@?$FLStone?$FN?5?$FL?$CFs?$FN?$FL?$CFs?$FN?5Register?5Stone@ DB '['
	DB	'Stone] [%s][%s] Register Stone (Stone Pos:%d, Serial:%d)', 00H ; `string'
CONST	ENDS
;	COMDAT ??_C@_0DO@ODJBOBMD@?$FLEventChip?$FN?5?$FL?$CFs?$FN?$FL?$CFs?$FN?5Not?5Found?5@
CONST	SEGMENT
??_C@_0DO@ODJBOBMD@?$FLEventChip?$FN?5?$FL?$CFs?$FN?$FL?$CFs?$FN?5Not?5Found?5@ DB '['
	DB	'EventChip] [%s][%s] Not Found EventChip (RegEventchip) #3 %d', 00H ; `string'
CONST	ENDS
;	COMDAT ??_C@_0DO@NOPBMIHD@?$FLEventChip?$FN?5?$FL?$CFs?$FN?$FL?$CFs?$FN?5Not?5Found?5@
CONST	SEGMENT
??_C@_0DO@NOPBMIHD@?$FLEventChip?$FN?5?$FL?$CFs?$FN?$FL?$CFs?$FN?5Not?5Found?5@ DB '['
	DB	'EventChip] [%s][%s] Not Found EventChip (RegEventchip) #2 %d', 00H ; `string'
CONST	ENDS
;	COMDAT ??_C@_0DO@JJFBLCKD@?$FLEventChip?$FN?5?$FL?$CFs?$FN?$FL?$CFs?$FN?5Not?5Found?5@
CONST	SEGMENT
??_C@_0DO@JJFBLCKD@?$FLEventChip?$FN?5?$FL?$CFs?$FN?$FL?$CFs?$FN?5Not?5Found?5@ DB '['
	DB	'EventChip] [%s][%s] Not Found EventChip (RegEventchip) #1 %d', 00H ; `string'
CONST	ENDS
;	COMDAT ??_C@_0DO@JBAPFEJ@?$FLEventChip?$FN?5?$FL?$CFs?$FN?$FL?$CFs?$FN?5Attempted?5@
CONST	SEGMENT
??_C@_0DO@JBAPFEJ@?$FLEventChip?$FN?5?$FL?$CFs?$FN?$FL?$CFs?$FN?5Attempted?5@ DB '['
	DB	'EventChip] [%s][%s] Attempted ItemCopy using ChaosBox Window', 00H ; `string'
CONST	ENDS
;	COMDAT ??_C@_0DL@CMJKPIPK@?$FLEventChip?$FN?5?$FL?$CFs?$FN?$FL?$CFs?$FN?5Attempted?5@
CONST	SEGMENT
??_C@_0DL@CMJKPIPK@?$FLEventChip?$FN?5?$FL?$CFs?$FN?$FL?$CFs?$FN?5Attempted?5@ DB '['
	DB	'EventChip] [%s][%s] Attempted ItemCopy using Trade Window', 00H ; `string'
CONST	ENDS
;	COMDAT ??_C@_0BG@FMIMJBJK@?$FL?$CFs?$FN?$FL?$CFs?$FN?5Ping?5?$DN?5?$CFd?5ms@
CONST	SEGMENT
??_C@_0BG@FMIMJBJK@?$FL?$CFs?$FN?$FL?$CFs?$FN?5Ping?5?$DN?5?$CFd?5ms@ DB '['
	DB	'%s][%s] Ping = %d ms', 00H			; `string'
CONST	ENDS
;	COMDAT ??_C@_0DI@OGLBFJCJ@?$FLPK?5User?$FN?$FLChaosCastle?$FN?5?$FL?$CFs?$FN?$FL?$CFs?$FN@
CONST	SEGMENT
??_C@_0DI@OGLBFJCJ@?$FLPK?5User?$FN?$FLChaosCastle?$FN?5?$FL?$CFs?$FN?$FL?$CFs?$FN@ DB '['
	DB	'PK User][ChaosCastle] [%s][%s] Move Fail [PK Level:%d]', 00H ; `string'
CONST	ENDS
;	COMDAT ??_C@_0DI@MOALMGDC@?$FLPK?5User?$FN?$FLBloodCastle?$FN?5?$FL?$CFs?$FN?$FL?$CFs?$FN@
CONST	SEGMENT
??_C@_0DI@MOALMGDC@?$FLPK?5User?$FN?$FLBloodCastle?$FN?5?$FL?$CFs?$FN?$FL?$CFs?$FN@ DB '['
	DB	'PK User][BloodCastle] [%s][%s] Move Fail [PK Level:%d]', 00H ; `string'
CONST	ENDS
;	COMDAT ??_C@_0DI@DOLGONFI@?$FLPK?5User?$FN?$FLDevilSquare?$FN?5?$FL?$CFs?$FN?$FL?$CFs?$FN@
CONST	SEGMENT
??_C@_0DI@DOLGONFI@?$FLPK?5User?$FN?$FLDevilSquare?$FN?5?$FL?$CFs?$FN?$FL?$CFs?$FN@ DB '['
	DB	'PK User][DevilSquare] [%s][%s] Move Fail [PK Level:%d]', 00H ; `string'
CONST	ENDS
;	COMDAT ??_C@_0FE@INNDGJO@?$FLDevilSquare?$FN?5?$FL?$CFs?$FN?$FL?$CFs?$FN?5Move?5Dev@
CONST	SEGMENT
??_C@_0FE@INNDGJO@?$FLDevilSquare?$FN?5?$FL?$CFs?$FN?$FL?$CFs?$FN?5Move?5Dev@ DB '['
	DB	'DevilSquare] [%s][%s] Move DevilSquare success [%d][%d] Remov'
	DB	'eItem[%s][%d][%d][%d]', 00H			; `string'
CONST	ENDS
;	COMDAT ??_C@_0DO@GMGNNGG@?$FLDevilSquare?$FN?5?$FL?$CFs?$FN?$FL?$CFs?$FN?5Move?5Dev@
CONST	SEGMENT
??_C@_0DO@GMGNNGG@?$FLDevilSquare?$FN?5?$FL?$CFs?$FN?$FL?$CFs?$FN?5Move?5Dev@ DB '['
	DB	'DevilSquare] [%s][%s] Move DevilSquare Fail [%d][%d][%d][%d]', 00H ; `string'
CONST	ENDS
;	COMDAT ??_C@_0EP@OANDGE@?$FLDevilSquare?$FN?5?$FL?$CFs?$FN?$FL?$CFs?$FN?5Move?5Dev@
CONST	SEGMENT
??_C@_0EP@OANDGE@?$FLDevilSquare?$FN?5?$FL?$CFs?$FN?$FL?$CFs?$FN?5Move?5Dev@ DB '['
	DB	'DevilSquare] [%s][%s] Move DevilSquare Invitation LevelError '
	DB	'[%d][%d][%d][%d]', 00H			; `string'
CONST	ENDS
;	COMDAT ??_C@_0DK@HAACDBFD@?$FLDevilSquare?$FN?5?$FL?$CFs?$FN?$FL?$CFs?$FN?5Move?5Dev@
CONST	SEGMENT
??_C@_0DK@HAACDBFD@?$FLDevilSquare?$FN?5?$FL?$CFs?$FN?$FL?$CFs?$FN?5Move?5Dev@ DB '['
	DB	'DevilSquare] [%s][%s] Move DevilSquare Fail [%d][%d][%d]', 00H ; `string'
CONST	ENDS
;	COMDAT ??_C@_0DN@EDDIPEJF@?$FLDevilSquare?$FN?5?$FL?$CFs?$FN?$FL?$CFs?$FN?5Request?5@
CONST	SEGMENT
??_C@_0DN@EDDIPEJF@?$FLDevilSquare?$FN?5?$FL?$CFs?$FN?$FL?$CFs?$FN?5Request?5@ DB '['
	DB	'DevilSquare] [%s][%s] Request Move DevilSquare [%d][%d][%d]', 00H ; `string'
CONST	ENDS
;	COMDAT ??_C@_0N@GGPGOPEN@return?5?$CFs?5?$CFd@
CONST	SEGMENT
??_C@_0N@GGPGOPEN@return?5?$CFs?5?$CFd@ DB 'return %s %d', 00H ; `string'
CONST	ENDS
;	COMDAT ?__LINE__Var@?0??GCReqmoveDevilSquare@@YAXPAUPMSG_REQ_MOVEDEVILSQUARE@@H@Z@4JA
_DATA	SEGMENT
?__LINE__Var@?0??GCReqmoveDevilSquare@@YAXPAUPMSG_REQ_MOVEDEVILSQUARE@@H@Z@4JA DD 04890H ; `GCReqmoveDevilSquare'::`1'::__LINE__Var
_DATA	ENDS
;	COMDAT ??_C@_0BK@CHOMIMBC@GCManaSend?$CI?$CJ?5return?5?$CFs?5?$CFd@
CONST	SEGMENT
??_C@_0BK@CHOMIMBC@GCManaSend?$CI?$CJ?5return?5?$CFs?5?$CFd@ DB 'GCManaSe'
	DB	'nd() return %s %d', 00H			; `string'
CONST	ENDS
;	COMDAT ?__LINE__Var@?0??GCManaSend@@YAXHFEEG@Z@4JA
_DATA	SEGMENT
?__LINE__Var@?0??GCManaSend@@YAXHFEEG@Z@4JA DD 0481dH	; `GCManaSend'::`1'::__LINE__Var
_DATA	ENDS
;	COMDAT ??_C@_0BO@FLPOFOKL@error?9L3?5?3?5?$CFs?5return?5?$CFs?5?$CFd?5?$CFd@
CONST	SEGMENT
??_C@_0BO@FLPOFOKL@error?9L3?5?3?5?$CFs?5return?5?$CFs?5?$CFd?5?$CFd@ DB 'e'
	DB	'rror-L3 : %s return %s %d %d', 00H		; `string'
CONST	ENDS
;	COMDAT ??_C@_0CB@DBLGBMBL@error?9L3?5?3?5?$CFs?5return?5?$CFs?5?$CFd?5?$CFd?5?$CF@
CONST	SEGMENT
??_C@_0CB@DBLGBMBL@error?9L3?5?3?5?$CFs?5return?5?$CFs?5?$CFd?5?$CFd?5?$CF@ DB 'e'
	DB	'rror-L3 : %s return %s %d %d %s', 00H	; `string'
CONST	ENDS
;	COMDAT ??_C@_0DJ@OLFFBGBF@?$FLUsing?5Item?$FN?5?$FLReturn?5Scroll?$FN?5?$FL?$CF@
CONST	SEGMENT
??_C@_0DJ@OLFFBGBF@?$FLUsing?5Item?$FN?5?$FLReturn?5Scroll?$FN?5?$FL?$CF@ DB '['
	DB	'Using Item] [Return Scroll] [%s][%s] - Current Map:[%d]', 00H ; `string'
CONST	ENDS
;	COMDAT ??_C@_0DP@BFNIJADP@?$FLANTI?9HACK?$FN?$FLSerial?50?5Item?$FN?5?$FLUse@
CONST	SEGMENT
??_C@_0DP@BFNIJADP@?$FLANTI?9HACK?$FN?$FLSerial?50?5Item?$FN?5?$FLUse@ DB '['
	DB	'ANTI-HACK][Serial 0 Item] [UseItem] (%s)(%s) Item(%s) Pos(%d)'
	DB	00H						; `string'
CONST	ENDS
;	COMDAT ??_C@_0DF@KEJKEDMK@error?9L1?5?3?5?$FL?$CFs?$FN?$FL?$CFs?$FN?5CGUseItemRe@
CONST	SEGMENT
??_C@_0DF@KEJKEDMK@error?9L1?5?3?5?$FL?$CFs?$FN?$FL?$CFs?$FN?5CGUseItemRe@ DB 'e'
	DB	'rror-L1 : [%s][%s] CGUseItemRecv()_Pos return %s %d', 00H ; `string'
CONST	ENDS
;	COMDAT ??_C@_0DA@FOMIHIHO@?$FL?$CFs?$FN?$FL?$CFs?$FN?5CGUseItemRecv?$CI?$CJ_Invent@
CONST	SEGMENT
??_C@_0DA@FOMIHIHO@?$FL?$CFs?$FN?$FL?$CFs?$FN?5CGUseItemRecv?$CI?$CJ_Invent@ DB '['
	DB	'%s][%s] CGUseItemRecv()_Inventory return %s %d', 00H ; `string'
CONST	ENDS
;	COMDAT ??_C@_0EB@BNHHPHMK@?$FL?$CFs?$FN?$FL?$CFs?$FN?5CGUseItemRecv?$CI?$CJ?5Failed@
CONST	SEGMENT
??_C@_0EB@BNHHPHMK@?$FL?$CFs?$FN?$FL?$CFs?$FN?5CGUseItemRecv?$CI?$CJ?5Failed@ DB '['
	DB	'%s][%s] CGUseItemRecv() Failed : Transaction == 1, IF_TYPE : '
	DB	'%d', 00H					; `string'
CONST	ENDS
;	COMDAT ??_C@_0DA@MJHNJBGE@?$FL?$CFs?$FN?$FL?$CFs?$FN?5CGUseItemRecv?$CI?$CJ_CloseT@
CONST	SEGMENT
??_C@_0DA@MJHNJBGE@?$FL?$CFs?$FN?$FL?$CFs?$FN?5CGUseItemRecv?$CI?$CJ_CloseT@ DB '['
	DB	'%s][%s] CGUseItemRecv()_CloseType return %s %d', 00H ; `string'
CONST	ENDS
;	COMDAT ??_C@_0CJ@BOAIHIHD@?$FL?$CFs?$FN?$FL?$CFs?$FN?5CGUseItemRecv?$CI?$CJ_If?5ret@
CONST	SEGMENT
??_C@_0CJ@BOAIHIHD@?$FL?$CFs?$FN?$FL?$CFs?$FN?5CGUseItemRecv?$CI?$CJ_If?5ret@ DB '['
	DB	'%s][%s] CGUseItemRecv()_If return %s %d', 00H ; `string'
CONST	ENDS
;	COMDAT ?__LINE__Var@?0??CGUseItemRecv@@YAXPAUPMSG_USEITEM@@H@Z@4JA
_DATA	SEGMENT
?__LINE__Var@?0??CGUseItemRecv@@YAXPAUPMSG_USEITEM@@H@Z@4JA DD 04207H ; `CGUseItemRecv'::`1'::__LINE__Var
_DATA	ENDS
;	COMDAT ??_C@_0CH@MOHJLJHL@?$FL?$CFs?$FN?$FL?$CFs?$FN?5?$CFs?5Detect?5Hack?5?3?5Multi@
CONST	SEGMENT
??_C@_0CH@MOHJLJHL@?$FL?$CFs?$FN?$FL?$CFs?$FN?5?$CFs?5Detect?5Hack?5?3?5Multi@ DB '['
	DB	'%s][%s] %s Detect Hack : Multi Attack', 00H	; `string'
CONST	ENDS
;	COMDAT ??_C@_0DF@GMGPOAFD@Magic?5Attack3?5?3?5?$CFd?0?5serial?5?$DN?5?$CFd@
CONST	SEGMENT
??_C@_0DF@GMGPOAFD@Magic?5Attack3?5?3?5?$CFd?0?5serial?5?$DN?5?$CFd@ DB 'M'
	DB	'agic Attack3 : %d, serial = %d, Tgt =  %d, cnt = %d', 00H ; `string'
CONST	ENDS
;	COMDAT ??_C@_0DJ@JFIBGMNL@?$KB?Z?$KB?Z?$KB?Z?$KB?Z?5InValid?5VailidCount?5?$DN?5@
CONST	SEGMENT
??_C@_0DJ@JFIBGMNL@?$KB?Z?$KB?Z?$KB?Z?$KB?Z?5InValid?5VailidCount?5?$DN?5@ DB 0a1H
	DB	0daH, 0a1H, 0daH, 0a1H, 0daH, 0a1H, 0daH, ' InValid VailidCoun'
	DB	't = %d ( Count : %d) [%d][%d]', 00H		; `string'
CONST	ENDS
;	COMDAT ??_C@_0DN@EOJDOJAH@?$KB?Z?$KB?Z?$KB?Z?$KB?Z?5InValid?5DurationTime?5K@
CONST	SEGMENT
??_C@_0DN@EOJDOJAH@?$KB?Z?$KB?Z?$KB?Z?$KB?Z?5InValid?5DurationTime?5K@ DB 0a1H
	DB	0daH, 0a1H, 0daH, 0a1H, 0daH, 0a1H, 0daH, ' InValid DurationTi'
	DB	'me Key = %d ( Time : %d) [%d][%d]', 00H	; `string'
CONST	ENDS
;	COMDAT ??_C@_0DN@IEDPAONG@?$FL?$CFs?$FN?$FL?$CFs?$FN?5?$CFs?5Attack?5Speed?5Is?5Wro@
CONST	SEGMENT
??_C@_0DN@IEDPAONG@?$FL?$CFs?$FN?$FL?$CFs?$FN?5?$CFs?5Attack?5Speed?5Is?5Wro@ DB '['
	DB	'%s][%s] %s Attack Speed Is Wrong Magic3 (%d)(%d) Penalty %d', 00H ; `string'
CONST	ENDS
;	COMDAT ??_C@_0DM@BJOBFIFA@Too?5long?5time?5passed?5after?5cast@
CONST	SEGMENT
??_C@_0DM@BJOBFIFA@Too?5long?5time?5passed?5after?5cast@ DB 'Too long tim'
	DB	'e passed after casting magic. [%s][%s] (%d)(%d)', 00H ; `string'
CONST	ENDS
;	COMDAT ??_C@_0P@EEHIDPGB@error?9L3?5?$CFs?5?$CFd@
CONST	SEGMENT
??_C@_0P@EEHIDPGB@error?9L3?5?$CFs?5?$CFd@ DB 'error-L3 %s %d', 00H ; `string'
CONST	ENDS
;	COMDAT ?__LINE__Var@?0??CGBeattackRecv@@YAXPAEHH@Z@4JA
_DATA	SEGMENT
?__LINE__Var@?0??CGBeattackRecv@@YAXPAEHH@Z@4JA DD 03f11H ; `CGBeattackRecv'::`1'::__LINE__Var
_DATA	ENDS
;	COMDAT ??_C@_0DD@FGHCMCNO@?$FL?$CFs?$FN?$FL?$CFs?$FN?5Try?5Target?5Teleport?5No@
CONST	SEGMENT
??_C@_0DD@FGHCMCNO@?$FL?$CFs?$FN?$FL?$CFs?$FN?5Try?5Target?5Teleport?5No@ DB '['
	DB	'%s][%s] Try Target Teleport Not Move Area [%d,%d]', 00H ; `string'
CONST	ENDS
;	COMDAT ??_C@_0CM@PIOKLDC@?$FL?$CFs?$FN?$FL?$CFs?$FN?5Try?5Teleport?5Not?5Move?5@
CONST	SEGMENT
??_C@_0CM@PIOKLDC@?$FL?$CFs?$FN?$FL?$CFs?$FN?5Try?5Teleport?5Not?5Move?5@ DB '['
	DB	'%s][%s] Try Teleport Not Move Area [%d,%d]', 00H ; `string'
CONST	ENDS
;	COMDAT ??_C@_0EI@OFFDPBJO@?$FLSKILL?5DISTANCE?5CHECK?$FN?5?$FL?$CFs?$FN?$FL?$CFs?$FN@
CONST	SEGMENT
??_C@_0EI@OFFDPBJO@?$FLSKILL?5DISTANCE?5CHECK?$FN?5?$FL?$CFs?$FN?$FL?$CFs?$FN@ DB '['
	DB	'SKILL DISTANCE CHECK] [%s][%s] Kick Invalid Skill Area User. '
	DB	'count(%d)', 00H				; `string'
CONST	ENDS
;	COMDAT ??_C@_0EM@CEMNDEFL@?$FL?$CFs?$FN?$FL?$CFs?$FN?5Try?5Attack?5In?5Not?5Atta@
CONST	SEGMENT
??_C@_0EM@CEMNDEFL@?$FL?$CFs?$FN?$FL?$CFs?$FN?5Try?5Attack?5In?5Not?5Atta@ DB '['
	DB	'%s][%s] Try Attack In Not Attack Area [Protocol] (%s:%d,%d) e'
	DB	'rrortype = %d', 00H				; `string'
CONST	ENDS
;	COMDAT ??_C@_0BA@GMMKNNFF@error?5?3?$CFs?5?$CFd?5?$CFd@
CONST	SEGMENT
??_C@_0BA@GMMKNNFF@error?5?3?$CFs?5?$CFd?5?$CFd@ DB 'error :%s %d %d', 00H ; `string'
CONST	ENDS
;	COMDAT ?__LINE__Var@?0??CGMagicAttack@@YAXPAUPMSG_MAGICATTACK@@H@Z@4JA
_DATA	SEGMENT
?__LINE__Var@?0??CGMagicAttack@@YAXPAUPMSG_MAGICATTACK@@H@Z@4JA DD 03b46H ; `CGMagicAttack'::`1'::__LINE__Var
_DATA	ENDS
;	COMDAT ?__LINE__Var@?0??CGActionRecv@@YAXPAUPMSG_ACTION@@H@Z@4JA
_DATA	SEGMENT
?__LINE__Var@?0??CGActionRecv@@YAXPAUPMSG_ACTION@@H@Z@4JA DD 03b05H ; `CGActionRecv'::`1'::__LINE__Var
_DATA	ENDS
;	COMDAT ??_C@_0DB@JJPLIMIC@?$FL?$CFs?$FN?$FL?$CFs?$FN?5?$CFs?5Apply?5Attack?5Speed?5@
CONST	SEGMENT
??_C@_0DB@JJPLIMIC@?$FL?$CFs?$FN?$FL?$CFs?$FN?5?$CFs?5Apply?5Attack?5Speed?5@ DB '['
	DB	'%s][%s] %s Apply Attack Speed Penalty (%d left)', 00H ; `string'
CONST	ENDS
;	COMDAT ??_C@_0DN@GAMOBCPD@?$FL?$CFs?$FN?$FL?$CFs?$FN?5?$CFs?5Attack?5Speed?5Is?5Wro@
CONST	SEGMENT
??_C@_0DN@GAMOBCPD@?$FL?$CFs?$FN?$FL?$CFs?$FN?5?$CFs?5Attack?5Speed?5Is?5Wro@ DB '['
	DB	'%s][%s] %s Attack Speed Is Wrong Normal (%d)(%d) Penalty %d', 00H ; `string'
CONST	ENDS
;	COMDAT ??_C@_0DE@ENPGLNLL@?$FL?$CFs?$FN?$FL?$CFs?$FN?5?$CFs?5Kick?5DetecHackCount@
CONST	SEGMENT
??_C@_0DE@ENPGLNLL@?$FL?$CFs?$FN?$FL?$CFs?$FN?5?$CFs?5Kick?5DetecHackCount@ DB '['
	DB	'%s][%s] %s Kick DetecHackCountLimit Over User (%d)', 00H ; `string'
CONST	ENDS
;	COMDAT ??_C@_0CH@PODPFEHM@?$FLCGAttack?$FN?5?$FLUserIndex?5Error?$FN?5?3?$CF@
CONST	SEGMENT
??_C@_0CH@PODPFEHM@?$FLCGAttack?$FN?5?$FLUserIndex?5Error?$FN?5?3?$CF@ DB '['
	DB	'CGAttack] [UserIndex Error] :%s %d %d', 00H	; `string'
CONST	ENDS
;	COMDAT ?__LINE__Var@?0??CGAttack@@YAXPAUPMSG_ATTACK@@H@Z@4JA
_DATA	SEGMENT
?__LINE__Var@?0??CGAttack@@YAXPAUPMSG_ATTACK@@H@Z@4JA DD 0393dH ; `CGAttack'::`1'::__LINE__Var
_DATA	ENDS
;	COMDAT ??_C@_0CI@HDJHDEIB@error?5?3?5move?5protocol?5index?5err@
CONST	SEGMENT
??_C@_0CI@HDJHDEIB@error?5?3?5move?5protocol?5index?5err@ DB 'error : mov'
	DB	'e protocol index error %s %d', 00H		; `string'
CONST	ENDS
;	COMDAT ?__LINE__Var@?0??RecvPositionSetProc@@YAXPAUPMSG_POSISTION_SET@@H@Z@4JA
_DATA	SEGMENT
?__LINE__Var@?0??RecvPositionSetProc@@YAXPAUPMSG_POSISTION_SET@@H@Z@4JA DD 038d8H ; `RecvPositionSetProc'::`1'::__LINE__Var
_DATA	ENDS
;	COMDAT ??_C@_0CL@FPLHDOJG@error?9L3?5?3?5Path?5Count?5error?5?$CFd?5@
CONST	SEGMENT
??_C@_0CL@FPLHDOJG@error?9L3?5?3?5Path?5Count?5error?5?$CFd?5@ DB 'error-'
	DB	'L3 : Path Count error %d id:%s %s %d', 00H	; `string'
CONST	ENDS
;	COMDAT ??_C@_0CL@HEMFEGBB@error?9L3?5?3?5move?5protocol?5index?5@
CONST	SEGMENT
??_C@_0CL@HEMFEGBB@error?9L3?5?3?5move?5protocol?5index?5@ DB 'error-L3 :'
	DB	' move protocol index error %s %d', 00H	; `string'
CONST	ENDS
;	COMDAT ?__LINE__Var@?0??PMoveProc@@YAXPAUPMSG_MOVE@@H@Z@4JA
_DATA	SEGMENT
?__LINE__Var@?0??PMoveProc@@YAXPAUPMSG_MOVE@@H@Z@4JA DD 036ffH ; `PMoveProc'::`1'::__LINE__Var
_DATA	ENDS
;	COMDAT ?__LINE__Var@?0??CGChaosBoxUseEnd@@YAXH@Z@4JA
_DATA	SEGMENT
?__LINE__Var@?0??CGChaosBoxUseEnd@@YAXH@Z@4JA DD 036ddH	; `CGChaosBoxUseEnd'::`1'::__LINE__Var
_DATA	ENDS
;	COMDAT ??_C@_0CK@PKJFNKMA@?$FL?$CFs?$FN?$FL?$CFs?$FN?5Undefine?5chaosmix?5type@
CONST	SEGMENT
??_C@_0CK@PKJFNKMA@?$FL?$CFs?$FN?$FL?$CFs?$FN?5Undefine?5chaosmix?5type@ DB '['
	DB	'%s][%s] Undefine chaosmix type detect %d', 00H ; `string'
CONST	ENDS
;	COMDAT ??_C@_0BM@GLBENMI@?$FL?$CFs?$FN?$FL?$CFs?$FN?5Already?5Used?5Chaos@
CONST	SEGMENT
??_C@_0BM@GLBENMI@?$FL?$CFs?$FN?$FL?$CFs?$FN?5Already?5Used?5Chaos@ DB '['
	DB	'%s][%s] Already Used Chaos', 00H		; `string'
CONST	ENDS
;	COMDAT ?__LINE__Var@?0??CGChaosBoxItemMixButtonClick@@YAXPAUPMSG_CHAOSMIX@@H@Z@4JA
_DATA	SEGMENT
?__LINE__Var@?0??CGChaosBoxItemMixButtonClick@@YAXPAUPMSG_CHAOSMIX@@H@Z@4JA DD 03499H ; `CGChaosBoxItemMixButtonClick'::`1'::__LINE__Var
_DATA	ENDS
;	COMDAT ?__LINE__Var@?0??CGWarehouseUseEnd@@YAXH@Z@4JA
_DATA	SEGMENT
?__LINE__Var@?0??CGWarehouseUseEnd@@YAXH@Z@4JA DD 033b4H ; `CGWarehouseUseEnd'::`1'::__LINE__Var
_DATA	ENDS
;	COMDAT ??_C@_0DB@HJKJHPEL@Get?5WareHouse?5Money?$CIIn?5WareHous@
CONST	SEGMENT
??_C@_0DB@HJKJHPEL@Get?5WareHouse?5Money?$CIIn?5WareHous@ DB 'Get WareHou'
	DB	'se Money(In WareHouse) : %d - %d = %d', 00H	; `string'
CONST	ENDS
;	COMDAT ??_C@_0DB@IPFMNKBF@Get?5WareHouse?5Money?$CIIn?5Inventor@
CONST	SEGMENT
??_C@_0DB@IPFMNKBF@Get?5WareHouse?5Money?$CIIn?5Inventor@ DB 'Get WareHou'
	DB	'se Money(In Inventory) : %d - %d = %d', 00H	; `string'
CONST	ENDS
;	COMDAT ??_C@_0BC@OFCHNMFP@error?9L3?5?$FL?$CFs?$FN?$FL?$CFd?$FN@
CONST	SEGMENT
??_C@_0BC@OFCHNMFP@error?9L3?5?$FL?$CFs?$FN?$FL?$CFd?$FN@ DB 'error-L3 [%'
	DB	's][%d]', 00H				; `string'
CONST	ENDS
;	COMDAT ?__LINE__Var@?0??CGWarehouseMoneyInOut@@YAXHPAUPMSG_WAREHOUSEMONEYINOUT@@@Z@4JA
_DATA	SEGMENT
?__LINE__Var@?0??CGWarehouseMoneyInOut@@YAXHPAUPMSG_WAREHOUSEMONEYINOUT@@@Z@4JA DD 03328H ; `CGWarehouseMoneyInOut'::`1'::__LINE__Var
_DATA	ENDS
;	COMDAT ??_C@_0BD@ICJCOFEA@Target?5Score?5?$CFs?5?$CFd@
CONST	SEGMENT
??_C@_0BD@ICJCOFEA@Target?5Score?5?$CFs?5?$CFd@ DB 'Target Score %s %d', 00H ; `string'
CONST	ENDS
;	COMDAT ??_C@_0M@NJMAOJLE@Score?5?$CFs?5?$CFd@
CONST	SEGMENT
??_C@_0M@NJMAOJLE@Score?5?$CFs?5?$CFd@ DB 'Score %s %d', 00H ; `string'
CONST	ENDS
;	COMDAT ??_C@_0ED@OFKACPCN@Error?5on?5declaring?5war?5?3?5Target@
CONST	SEGMENT
??_C@_0ED@OFKACPCN@Error?5on?5declaring?5war?5?3?5Target@ DB 'Error on de'
	DB	'claring war : Target GuildMaster Is Murderer 0x04 %s %s', 00H ; `string'
CONST	ENDS
;	COMDAT ??_C@_0DM@KAENPAGM@Error?5on?5declaring?5war?5?3?5GuildM@
CONST	SEGMENT
??_C@_0DM@KAENPAGM@Error?5on?5declaring?5war?5?3?5GuildM@ DB 'Error on de'
	DB	'claring war : GuildMaster Is Murderer 0x04 %s %s', 00H ; `string'
CONST	ENDS
;	COMDAT ??_C@_0CE@CALGKPMO@?$FL?$CFs?$FN?$FL?$CFs?$FN?5Guild?5Request?5?9?5Leave?5@
CONST	SEGMENT
??_C@_0CE@CALGKPMO@?$FL?$CFs?$FN?$FL?$CFs?$FN?5Guild?5Request?5?9?5Leave?5@ DB '['
	DB	'%s][%s] Guild Request - Leave : %s', 00H	; `string'
CONST	ENDS
;	COMDAT ??_C@_0CK@LPFOPCOO@?$FL?$CFs?$FN?$FL?$CFs?$FN?5Guild?5Request?5?9?5Dismis@
CONST	SEGMENT
??_C@_0CK@LPFOPCOO@?$FL?$CFs?$FN?$FL?$CFs?$FN?5Guild?5Request?5?9?5Dismis@ DB '['
	DB	'%s][%s] Guild Request - Dismiss All : %s', 00H ; `string'
CONST	ENDS
;	COMDAT ??_C@_0EP@POEHMBEF@?$FLHACKTOOL?$FN?5?3?5NPC?9GuildRequest?$CIr@
CONST	SEGMENT
??_C@_0EP@POEHMBEF@?$FLHACKTOOL?$FN?5?3?5NPC?9GuildRequest?$CIr@ DB '[HAC'
	DB	'KTOOL] : NPC-GuildRequest(result) npc:%d ip:%s account:%s nam'
	DB	'e:%s State:%d', 00H				; `string'
CONST	ENDS
;	COMDAT ??_C@_0CD@KPIJPFAI@?$FL?$CFs?$FN?$FL?$CFs?$FN?5Guild?5Request?5?9?5Join?5?3@
CONST	SEGMENT
??_C@_0CD@KPIJPFAI@?$FL?$CFs?$FN?$FL?$CFs?$FN?5Guild?5Request?5?9?5Join?5?3@ DB '['
	DB	'%s][%s] Guild Request - Join : %s', 00H	; `string'
CONST	ENDS
;	COMDAT ??_C@_0EH@LLMHNLJP@?$FLHACKTOOL?$FN?5?3?5NPC?9GuildRequest?5n@
CONST	SEGMENT
??_C@_0EH@LLMHNLJP@?$FLHACKTOOL?$FN?5?3?5NPC?9GuildRequest?5n@ DB '[HACKT'
	DB	'OOL] : NPC-GuildRequest npc:%d ip:%s account:%s name:%s State'
	DB	':%d', 00H					; `string'
CONST	ENDS
;	COMDAT ??_C@_05DIALNFFA@?$CFs?5?$CFd@
CONST	SEGMENT
??_C@_05DIALNFFA@?$CFs?5?$CFd@ DB '%s %d', 00H		; `string'
CONST	ENDS
;	COMDAT ??_C@_0P@GAPFACKC@User?5Not?5found@
CONST	SEGMENT
??_C@_0P@GAPFACKC@User?5Not?5found@ DB 'User Not found', 00H ; `string'
CONST	ENDS
;	COMDAT ??_C@_0P@JLFGIHAP@No?5Party?5?$CFs?5?$CFs@
CONST	SEGMENT
??_C@_0P@JLFGIHAP@No?5Party?5?$CFs?5?$CFs@ DB 'No Party %s %s', 00H ; `string'
CONST	ENDS
;	COMDAT ?__LINE__Var@?0??CGPartyDelUser@@YAXPAUPMSG_PARTYDELUSER@@H@Z@4JA
_DATA	SEGMENT
?__LINE__Var@?0??CGPartyDelUser@@YAXPAUPMSG_PARTYDELUSER@@H@Z@4JA DD 02ca2H ; `CGPartyDelUser'::`1'::__LINE__Var
_DATA	ENDS
;	COMDAT ??_C@_0EP@FDAKNNLI@?$FLHACKTOOL?$FN?5?3?5NPC?9TradeRequest?$CIR@
CONST	SEGMENT
??_C@_0EP@FDAKNNLI@?$FLHACKTOOL?$FN?5?3?5NPC?9TradeRequest?$CIR@ DB '[HAC'
	DB	'KTOOL] : NPC-TradeRequest(Result) npc:%d ip:%s account:%s nam'
	DB	'e:%s State:%d', 00H				; `string'
CONST	ENDS
;	COMDAT ??_C@_05DNIIFBMG@?$CFs?5?$CFs@
CONST	SEGMENT
??_C@_05DNIIFBMG@?$CFs?5?$CFs@ DB '%s %s', 00H		; `string'
CONST	ENDS
;	COMDAT ??_C@_0BL@OEGODNEF@Party?5result?5?3?5?$CFd?5?$CFd?5?$CFd?5?$CFd@
CONST	SEGMENT
??_C@_0BL@OEGODNEF@Party?5result?5?3?5?$CFd?5?$CFd?5?$CFd?5?$CFd@ DB 'Par'
	DB	'ty result : %d %d %d %d', 00H		; `string'
CONST	ENDS
;	COMDAT ??_C@_0EH@LCEBGPEH@?$FLHACKTOOL?$FN?5?3?5NPC?9PartyRequest?5n@
CONST	SEGMENT
??_C@_0EH@LCEBGPEH@?$FLHACKTOOL?$FN?5?3?5NPC?9PartyRequest?5n@ DB '[HACKT'
	DB	'OOL] : NPC-PartyRequest npc:%d ip:%s account:%s name:%s State'
	DB	':%d', 00H					; `string'
CONST	ENDS
;	COMDAT ??_C@_0DF@HMKJEHOO@?$FLPShop?$FN?5?$FL?$CFs?$FN?$FL?$CFs?$FN?5Sold?5All?5Items@
CONST	SEGMENT
??_C@_0DF@HMKJEHOO@?$FLPShop?$FN?5?$FL?$CFs?$FN?$FL?$CFs?$FN?5Sold?5All?5Items@ DB '['
	DB	'PShop] [%s][%s] Sold All Items - Auto Closing PShop', 00H ; `string'
CONST	ENDS
;	COMDAT ??_C@_0IE@NPCEKOLA@?$FLPShop?$FN?5?$FL?$CFs?$FN?$FL?$CFs?$FN?$FL?$CFs?$FN?5PShop?5Item@
CONST	SEGMENT
??_C@_0IE@NPCEKOLA@?$FLPShop?$FN?5?$FL?$CFs?$FN?$FL?$CFs?$FN?$FL?$CFs?$FN?5PShop?5Item@ DB '['
	DB	'PShop] [%s][%s][%s] PShop Item Buy Request Succeed : [%s][%s]'
	DB	'[%s] (Price=%d, ItemType:%d (%s), ItemLevel:%d, ItemDur:%d, S'
	DB	'erial:%d', 00H				; `string'
CONST	ENDS
;	COMDAT ??_C@_0JC@NLGCBMPF@?$FLOffTrade?$FN?$FLPShop?$FN?5?$FL?$CFs?$FN?$FL?$CFs?$FN?$FL?$CFs?$FN?5@
CONST	SEGMENT
??_C@_0JC@NLGCBMPF@?$FLOffTrade?$FN?$FLPShop?$FN?5?$FL?$CFs?$FN?$FL?$CFs?$FN?$FL?$CFs?$FN?5@ DB '['
	DB	'OffTrade][PShop] [%s][%s][%s] PShop Item Buy Request Succeed '
	DB	': [%s][%s][%s] (Price=%d ZEN, ItemType:%d (%s), ItemLevel:%d,'
	DB	' ItemDur:%d, Serial:%d', 00H		; `string'
CONST	ENDS
;	COMDAT ??_C@_0FE@GMGAEINP@?$FLPShop?$FN?5?$FL?$CFs?$FN?$FL?$CFs?$FN?5PShop?5Item?5Buy@
CONST	SEGMENT
??_C@_0FE@GMGAEINP@?$FLPShop?$FN?5?$FL?$CFs?$FN?$FL?$CFs?$FN?5PShop?5Item?5Buy@ DB '['
	DB	'PShop] [%s][%s] PShop Item Buy Request Failed : [%s][%s] Exce'
	DB	'eding Zen of the Host', 00H			; `string'
CONST	ENDS
;	COMDAT ??_C@_0EG@BJIIHLIN@?$FLPShop?$FN?5?$FL?$CFs?$FN?$FL?$CFs?$FN?5PShop?5Item?5Buy@
CONST	SEGMENT
??_C@_0EG@BJIIHLIN@?$FLPShop?$FN?5?$FL?$CFs?$FN?$FL?$CFs?$FN?5PShop?5Item?5Buy@ DB '['
	DB	'PShop] [%s][%s] PShop Item Buy Request Failed : [%s][%s] Lack'
	DB	' of Zen', 00H				; `string'
CONST	ENDS
;	COMDAT ??_C@_0EO@NGLHGNOL@?$FLPShop?$FN?5?$FL?$CFs?$FN?$FL?$CFs?$FN?5PShop?5Item?5Buy@
CONST	SEGMENT
??_C@_0EO@NGLHGNOL@?$FLPShop?$FN?5?$FL?$CFs?$FN?$FL?$CFs?$FN?5PShop?5Item?5Buy@ DB '['
	DB	'PShop] [%s][%s] PShop Item Buy Request Failed : [%s][%s] No R'
	DB	'oom to Buy Item', 00H			; `string'
CONST	ENDS
;	COMDAT ??_C@_0FL@OHDLELPO@?$FLCOMPRA?$FN?5Cuenta?3?$FL?$CFs?$FN?5Usuario?3?$FL?$CF@
CONST	SEGMENT
??_C@_0FL@OHDLELPO@?$FLCOMPRA?$FN?5Cuenta?3?$FL?$CFs?$FN?5Usuario?3?$FL?$CF@ DB '['
	DB	'COMPRA] Cuenta:[%s] Usuario:[%s] Compro por [%d] Cash [VENDED'
	DB	'OR] Cuenta:[%s] Usuario:[%s]', 00H		; `string'
CONST	ENDS
;	COMDAT ??_C@_0CE@BDDKFCHD@?$FLTienda?5Personal?$FN?5Te?5quedan?5?$CFd?5@
CONST	SEGMENT
??_C@_0CE@BDDKFCHD@?$FLTienda?5Personal?$FN?5Te?5quedan?5?$CFd?5@ DB '[Ti'
	DB	'enda Personal] Te quedan %d Cash', 00H	; `string'
CONST	ENDS
;	COMDAT ??_C@_0CO@INIPKDON@?$FLTienda?5Personal?$FN?5Actualmente?5t@
CONST	SEGMENT
??_C@_0CO@INIPKDON@?$FLTienda?5Personal?$FN?5Actualmente?5t@ DB '[Tienda '
	DB	'Personal] Actualmente tienes  %d Cash', 00H	; `string'
CONST	ENDS
;	COMDAT ??_C@_0CE@FKIEGGCJ@?$FLTienda?5Personal?$FN?5Necesitas?5?$CFd?5@
CONST	SEGMENT
??_C@_0CE@FKIEGGCJ@?$FLTienda?5Personal?$FN?5Necesitas?5?$CFd?5@ DB '[Tie'
	DB	'nda Personal] Necesitas %d Cash', 00H	; `string'
CONST	ENDS
;	COMDAT ??_C@_0BD@INFPCJNN@TIENDAPERSONALSUMA@
CONST	SEGMENT
??_C@_0BD@INFPCJNN@TIENDAPERSONALSUMA@ DB 'TIENDAPERSONALSUMA', 00H ; `string'
CONST	ENDS
;	COMDAT ??_C@_0BG@CENNGABF@UPDATE?5TIENDAPERSONAL@
CONST	SEGMENT
??_C@_0BG@CENNGABF@UPDATE?5TIENDAPERSONAL@ DB 'UPDATE TIENDAPERSONAL', 00H ; `string'
CONST	ENDS
;	COMDAT ??_C@_0BE@BABKIKBE@TIENDAPERSONALRESTA@
CONST	SEGMENT
??_C@_0BE@BABKIKBE@TIENDAPERSONALRESTA@ DB 'TIENDAPERSONALRESTA', 00H ; `string'
CONST	ENDS
;	COMDAT ??_C@_0FE@PIIJDCEI@?$FLPShop?$FN?5?$FL?$CFs?$FN?$FL?$CFs?$FN?5PShop?5Item?5Buy@
CONST	SEGMENT
??_C@_0FE@PIIJDCEI@?$FLPShop?$FN?5?$FL?$CFs?$FN?$FL?$CFs?$FN?5PShop?5Item?5Buy@ DB '['
	DB	'PShop] [%s][%s] PShop Item Buy Request Failed : [%s][%s] Did '
	DB	'Not Choose Item Price', 00H			; `string'
CONST	ENDS
;	COMDAT ??_C@_0FK@LBDGBLNC@?$FLPShop?$FN?5?$FL?$CFs?$FN?$FL?$CFs?$FN?5PShop?5Item?5Buy@
CONST	SEGMENT
??_C@_0FK@LBDGBLNC@?$FLPShop?$FN?5?$FL?$CFs?$FN?$FL?$CFs?$FN?5PShop?5Item?5Buy@ DB '['
	DB	'PShop] [%s][%s] PShop Item Buy Request Failed : Requester Tra'
	DB	'nsaction == 1, IF_TYPE : %d', 00H		; `string'
CONST	ENDS
;	COMDAT ??_C@_0EB@DKCMAHPG@?$FLANTI?9HACK?$FN?$FLSerial?50?5Item?$FN?5?$FLPSh@
CONST	SEGMENT
??_C@_0EB@DKCMAHPG@?$FLANTI?9HACK?$FN?$FLSerial?50?5Item?$FN?5?$FLPSh@ DB '['
	DB	'ANTI-HACK][Serial 0 Item] [PShop Buy] (%s)(%s) Item(%s) Pos(%'
	DB	'd)', 00H					; `string'
CONST	ENDS
;	COMDAT ??_C@_0FD@GGINPDPA@?$FLPShop?$FN?5?$FL?$CFs?$FN?$FL?$CFs?$FN?5PShop?5Item?5Buy@
CONST	SEGMENT
??_C@_0FD@GGINPDPA@?$FLPShop?$FN?5?$FL?$CFs?$FN?$FL?$CFs?$FN?5PShop?5Item?5Buy@ DB '['
	DB	'PShop] [%s][%s] PShop Item Buy Request Failed : [%s][%s] Alre'
	DB	'ady Trade With Other', 00H			; `string'
CONST	ENDS
;	COMDAT ??_C@_0EL@CHNNEDPM@?$FLPShop?$FN?5?$FL?$CFs?$FN?$FL?$CFs?$FN?5PShop?5Item?5Buy@
CONST	SEGMENT
??_C@_0EL@CHNNEDPM@?$FLPShop?$FN?5?$FL?$CFs?$FN?$FL?$CFs?$FN?5PShop?5Item?5Buy@ DB '['
	DB	'PShop] [%s][%s] PShop Item Buy Request Failed : [%s][%s] is i'
	DB	'n Item Block', 00H				; `string'
CONST	ENDS
;	COMDAT ??_C@_0FA@NMMBBGEG@?$FLPShop?$FN?5?$FL?$CFs?$FN?$FL?$CFs?$FN?5PShop?5Item?5Buy@
CONST	SEGMENT
??_C@_0FA@NMMBBGEG@?$FLPShop?$FN?5?$FL?$CFs?$FN?$FL?$CFs?$FN?5PShop?5Item?5Buy@ DB '['
	DB	'PShop] [%s][%s] PShop Item Buy Request Failed : [%s][%s] is C'
	DB	'losing Connection', 00H			; `string'
CONST	ENDS
;	COMDAT ??_C@_0EL@PJOAJAPF@?$FLPShop?$FN?5?$FL?$CFs?$FN?$FL?$CFs?$FN?5PShop?5Item?5Buy@
CONST	SEGMENT
??_C@_0EL@PJOAJAPF@?$FLPShop?$FN?5?$FL?$CFs?$FN?$FL?$CFs?$FN?5PShop?5Item?5Buy@ DB '['
	DB	'PShop] [%s][%s] PShop Item Buy Request Failed : Name Mismatch'
	DB	' [%s] - [%s]', 00H				; `string'
CONST	ENDS
;	COMDAT ??_C@_0EN@OKADFHGM@?$FLPShop?$FN?5?$FL?$CFs?$FN?$FL?$CFs?$FN?5PShop?5Item?5Buy@
CONST	SEGMENT
??_C@_0EN@OKADFHGM@?$FLPShop?$FN?5?$FL?$CFs?$FN?$FL?$CFs?$FN?5PShop?5Item?5Buy@ DB '['
	DB	'PShop] [%s][%s] PShop Item Buy Request Failed : [%s][%s] Did '
	DB	'not Open PShop', 00H			; `string'
CONST	ENDS
;	COMDAT ??_C@_0EO@KMDCDECB@?$FLPShop?$FN?5?$FL?$CFs?$FN?$FL?$CFs?$FN?5PShop?5Item?5Buy@
CONST	SEGMENT
??_C@_0EO@KMDCDECB@?$FLPShop?$FN?5?$FL?$CFs?$FN?$FL?$CFs?$FN?5PShop?5Item?5Buy@ DB '['
	DB	'PShop] [%s][%s] PShop Item Buy Request Failed : Seller is Not'
	DB	' CHARACTER (%d)', 00H			; `string'
CONST	ENDS
;	COMDAT ??_C@_0EP@OPAFJLAF@?$FLPShop?$FN?5?$FL?$CFs?$FN?$FL?$CFs?$FN?5PShop?5Item?5Buy@
CONST	SEGMENT
??_C@_0EP@OPAFJLAF@?$FLPShop?$FN?5?$FL?$CFs?$FN?$FL?$CFs?$FN?5PShop?5Item?5Buy@ DB '['
	DB	'PShop] [%s][%s] PShop Item Buy Request Failed : Seller did No'
	DB	't CONNECTED (%d)', 00H			; `string'
CONST	ENDS
;	COMDAT ??_C@_0BO@FNEEFLNP@?$FLBOT?5STORE?$FN?5Te?5quedan?5?$CFd?5Cash@
CONST	SEGMENT
??_C@_0BO@FNEEFLNP@?$FLBOT?5STORE?$FN?5Te?5quedan?5?$CFd?5Cash@ DB '[BOT '
	DB	'STORE] Te quedan %d Cash', 00H		; `string'
CONST	ENDS
;	COMDAT ??_C@_0CI@DPKGHCGP@?$FLBOT?5STORE?$FN?5Actualmente?5tienes?5@
CONST	SEGMENT
??_C@_0CI@DPKGHCGP@?$FLBOT?5STORE?$FN?5Actualmente?5tienes?5@ DB '[BOT ST'
	DB	'ORE] Actualmente tienes  %d Cash', 00H	; `string'
CONST	ENDS
;	COMDAT ??_C@_0BO@BEPKGPIF@?$FLBOT?5STORE?$FN?5Necesitas?5?$CFd?5Cash@
CONST	SEGMENT
??_C@_0BO@BEPKGPIF@?$FLBOT?5STORE?$FN?5Necesitas?5?$CFd?5Cash@ DB '[BOT S'
	DB	'TORE] Necesitas %d Cash', 00H		; `string'
CONST	ENDS
;	COMDAT ??_C@_0N@HPCIFBAH@OFFTRADESUMA@
CONST	SEGMENT
??_C@_0N@HPCIFBAH@OFFTRADESUMA@ DB 'OFFTRADESUMA', 00H	; `string'
CONST	ENDS
;	COMDAT ??_C@_0EK@BCLMBCOI@UPDATE?5MuOnline?4dbo?4MEMB_INFO?5S@
CONST	SEGMENT
??_C@_0EK@BCLMBCOI@UPDATE?5MuOnline?4dbo?4MEMB_INFO?5S@ DB 'UPDATE MuOnli'
	DB	'ne.dbo.MEMB_INFO SET Cash = Cash + %d WHERE memb___id = ''%s'''
	DB	00H						; `string'
CONST	ENDS
;	COMDAT ??_C@_0BA@FBHJCJB@UPDATE?5OFFTRADE@
CONST	SEGMENT
??_C@_0BA@FBHJCJB@UPDATE?5OFFTRADE@ DB 'UPDATE OFFTRADE', 00H ; `string'
CONST	ENDS
;	COMDAT ??_C@_0O@HGOOMGKG@OFFTRADERESTA@
CONST	SEGMENT
??_C@_0O@HGOOMGKG@OFFTRADERESTA@ DB 'OFFTRADERESTA', 00H ; `string'
CONST	ENDS
;	COMDAT ??_C@_0EK@BHAABMKG@UPDATE?5MuOnline?4dbo?4MEMB_INFO?5S@
CONST	SEGMENT
??_C@_0EK@BHAABMKG@UPDATE?5MuOnline?4dbo?4MEMB_INFO?5S@ DB 'UPDATE MuOnli'
	DB	'ne.dbo.MEMB_INFO SET Cash = Cash - %d WHERE memb___id = ''%s'''
	DB	00H						; `string'
CONST	ENDS
;	COMDAT ??_C@_0BG@GGOILNKD@?4?4?2data?2QueryShop?4ini@
CONST	SEGMENT
??_C@_0BG@GGOILNKD@?4?4?2data?2QueryShop?4ini@ DB '..\data\QueryShop.ini', 00H ; `string'
CONST	ENDS
;	COMDAT ?__LINE__Var@?0??CGPShopReqBuyItem@@YAXPAUPMSG_REQ_BUYITEM_FROM_PSHOP@@H@Z@4JA
_DATA	SEGMENT
?__LINE__Var@?0??CGPShopReqBuyItem@@YAXPAUPMSG_REQ_BUYITEM_FROM_PSHOP@@H@Z@4JA DD 02861H ; `CGPShopReqBuyItem'::`1'::__LINE__Var
_DATA	ENDS
;	COMDAT ??_C@_0N@OAHJEEKI@ITEM?5TYPE?3?$CFd@
CONST	SEGMENT
??_C@_0N@OAHJEEKI@ITEM?5TYPE?3?$CFd@ DB 'ITEM TYPE:%d', 00H ; `string'
CONST	ENDS
;	COMDAT ??_C@_0DH@ODEDNFIK@?$FLPShop?$FN?5?$FL?$CFs?$FN?$FL?$CFs?$FN?5is?5Receiving?5P@
CONST	SEGMENT
??_C@_0DH@ODEDNFIK@?$FLPShop?$FN?5?$FL?$CFs?$FN?$FL?$CFs?$FN?5is?5Receiving?5P@ DB '['
	DB	'PShop] [%s][%s] is Receiving PShop List From [%s][%s]', 00H ; `string'
CONST	ENDS
;	COMDAT ??_C@_0FG@BJMCDCO@?$FLPShop?$FN?5?$FL?$CFs?$FN?$FL?$CFs?$FN?5PShop?5List?5Req@
CONST	SEGMENT
??_C@_0FG@BJMCDCO@?$FLPShop?$FN?5?$FL?$CFs?$FN?$FL?$CFs?$FN?5PShop?5List?5Req@ DB '['
	DB	'PShop] [%s][%s] PShop List Request Failed : Requester Transac'
	DB	'tion == 1, IF_TYPE : %d', 00H		; `string'
CONST	ENDS
;	COMDAT ??_C@_0EH@MBNOENIG@?$FLPShop?$FN?5?$FL?$CFs?$FN?$FL?$CFs?$FN?5PShop?5List?5Req@
CONST	SEGMENT
??_C@_0EH@MBNOENIG@?$FLPShop?$FN?5?$FL?$CFs?$FN?$FL?$CFs?$FN?5PShop?5List?5Req@ DB '['
	DB	'PShop] [%s][%s] PShop List Request Failed : [%s][%s] is in It'
	DB	'em Block', 00H				; `string'
CONST	ENDS
;	COMDAT ??_C@_0EJ@NIGLANBE@?$FLPShop?$FN?5?$FL?$CFs?$FN?$FL?$CFs?$FN?5PShop?5List?5Req@
CONST	SEGMENT
??_C@_0EJ@NIGLANBE@?$FLPShop?$FN?5?$FL?$CFs?$FN?$FL?$CFs?$FN?5PShop?5List?5Req@ DB '['
	DB	'PShop] [%s][%s] PShop List Request Failed : [%s][%s] Did not '
	DB	'Open PShop', 00H				; `string'
CONST	ENDS
;	COMDAT ??_C@_0DH@DOFEJGME@?$FLPShop?$FN?5?$FL?$CFs?$FN?$FL?$CFs?$FN?5PShop?5List?5Req@
CONST	SEGMENT
??_C@_0DH@DOFEJGME@?$FLPShop?$FN?5?$FL?$CFs?$FN?$FL?$CFs?$FN?5PShop?5List?5Req@ DB '['
	DB	'PShop] [%s][%s] PShop List Requested to Him(/Her)Self', 00H ; `string'
CONST	ENDS
;	COMDAT ??_C@_0EH@KILFPGAO@?$FLPShop?$FN?5?$FL?$CFs?$FN?$FL?$CFs?$FN?5PShop?5Item?5Buy@
CONST	SEGMENT
??_C@_0EH@KILFPGAO@?$FLPShop?$FN?5?$FL?$CFs?$FN?$FL?$CFs?$FN?5PShop?5Item?5Buy@ DB '['
	DB	'PShop] [%s][%s] PShop Item Buy Request Failed : Buyer is Clos'
	DB	'ing (%d)', 00H				; `string'
CONST	ENDS
;	COMDAT ??_C@_0EI@OFDKLOHJ@?$FLPShop?$FN?5?$FL?$CFs?$FN?$FL?$CFs?$FN?5PShop?5Item?5Buy@
CONST	SEGMENT
??_C@_0EI@OFDKLOHJ@?$FLPShop?$FN?5?$FL?$CFs?$FN?$FL?$CFs?$FN?5PShop?5Item?5Buy@ DB '['
	DB	'PShop] [%s][%s] PShop Item Buy Request Failed : Seller is Clo'
	DB	'sing (%d)', 00H				; `string'
CONST	ENDS
;	COMDAT ??_C@_0EK@PCNOKFHF@?$FLPShop?$FN?5?$FL?$CFs?$FN?$FL?$CFs?$FN?5PShop?5List?5Req@
CONST	SEGMENT
??_C@_0EK@PCNOKFHF@?$FLPShop?$FN?5?$FL?$CFs?$FN?$FL?$CFs?$FN?5PShop?5List?5Req@ DB '['
	DB	'PShop] [%s][%s] PShop List Request Failed : Seller is Not CHA'
	DB	'RACTER (%d)', 00H				; `string'
CONST	ENDS
;	COMDAT ??_C@_0EL@IDFNOCHJ@?$FLPShop?$FN?5?$FL?$CFs?$FN?$FL?$CFs?$FN?5PShop?5List?5Req@
CONST	SEGMENT
??_C@_0EL@IDFNOCHJ@?$FLPShop?$FN?5?$FL?$CFs?$FN?$FL?$CFs?$FN?5PShop?5List?5Req@ DB '['
	DB	'PShop] [%s][%s] PShop List Request Failed : Seller did Not CO'
	DB	'NNECTED (%d)', 00H				; `string'
CONST	ENDS
;	COMDAT ?__LINE__Var@?0??CGPShopReqBuyList@@YAXPAUPMSG_REQ_BUYLIST_FROM_PSHOP@@H@Z@4JA
_DATA	SEGMENT
?__LINE__Var@?0??CGPShopReqBuyList@@YAXPAUPMSG_REQ_BUYLIST_FROM_PSHOP@@H@Z@4JA DD 02780H ; `CGPShopReqBuyList'::`1'::__LINE__Var
_DATA	ENDS
;	COMDAT ??_C@_0BN@PJEAPNNK@?$FLPShop?$FN?5?$FL?$CFs?$FN?$FL?$CFs?$FN?5Close?5PShop@
CONST	SEGMENT
??_C@_0BN@PJEAPNNK@?$FLPShop?$FN?5?$FL?$CFs?$FN?$FL?$CFs?$FN?5Close?5PShop@ DB '['
	DB	'PShop] [%s][%s] Close PShop', 00H		; `string'
CONST	ENDS
;	COMDAT ??_C@_0CK@BPLBGOKP@?$FLPShop?$FN?5?$FL?$CFs?$FN?$FL?$CFs?$FN?5Requested?5to?5C@
CONST	SEGMENT
??_C@_0CK@BPLBGOKP@?$FLPShop?$FN?5?$FL?$CFs?$FN?$FL?$CFs?$FN?5Requested?5to?5C@ DB '['
	DB	'PShop] [%s][%s] Requested to Close PShop', 00H ; `string'
CONST	ENDS
;	COMDAT ??_C@_0EE@CGDKDDB@?$FLPShop?$FN?5?$FL?$CFs?$FN?$FL?$CFs?$FN?5Personal?5Shop?5@
CONST	SEGMENT
??_C@_0EE@CGDKDDB@?$FLPShop?$FN?5?$FL?$CFs?$FN?$FL?$CFs?$FN?5Personal?5Shop?5@ DB '['
	DB	'PShop] [%s][%s] Personal Shop Already Opened - Changing PShop'
	DB	' Name', 00H					; `string'
CONST	ENDS
;	COMDAT ??_C@_0CG@HMFGEBKO@?$FLPShop?$FN?5?$FL?$CFs?$FN?$FL?$CFs?$FN?5Personal?5Shop?5@
CONST	SEGMENT
??_C@_0CG@HMFGEBKO@?$FLPShop?$FN?5?$FL?$CFs?$FN?$FL?$CFs?$FN?5Personal?5Shop?5@ DB '['
	DB	'PShop] [%s][%s] Personal Shop Opened', 00H	; `string'
CONST	ENDS
;	COMDAT ??_C@_0DI@OHKHPELK@?$FLPShop?$FN?5?$FL?$CFs?$FN?$FL?$CFs?$FN?5ERROR?5?3?5Transa@
CONST	SEGMENT
??_C@_0DI@OHKHPELK@?$FLPShop?$FN?5?$FL?$CFs?$FN?$FL?$CFs?$FN?5ERROR?5?3?5Transa@ DB '['
	DB	'PShop] [%s][%s] ERROR : Transaction == 1, IF_TYPE : %d', 00H ; `string'
CONST	ENDS
;	COMDAT ??_C@_0DF@PANDKIEM@?$FLPShop?$FN?5?$FL?$CFs?$FN?$FL?$CFs?$FN?5ERROR?5?3?5Unknow@
CONST	SEGMENT
??_C@_0DF@PANDKIEM@?$FLPShop?$FN?5?$FL?$CFs?$FN?$FL?$CFs?$FN?5ERROR?5?3?5Unknow@ DB '['
	DB	'PShop] [%s][%s] ERROR : Unknown m_IfState.type : %d', 00H ; `string'
CONST	ENDS
;	COMDAT ??_C@_0DG@MLHOMIKA@?$FLPShop?$FN?5?$FL?$CFs?$FN?$FL?$CFs?$FN?5ERROR?5?3?5m_IfSt@
CONST	SEGMENT
??_C@_0DG@MLHOMIKA@?$FLPShop?$FN?5?$FL?$CFs?$FN?$FL?$CFs?$FN?5ERROR?5?3?5m_IfSt@ DB '['
	DB	'PShop] [%s][%s] ERROR : m_IfState.type is Using : %d', 00H ; `string'
CONST	ENDS
;	COMDAT ??_C@_0DH@KPCEONNB@?$FLPShop?$FN?5?$FL?$CFs?$FN?$FL?$CFs?$FN?5ERROR?5?3?5Cant?8t@
CONST	SEGMENT
??_C@_0DH@KPCEONNB@?$FLPShop?$FN?5?$FL?$CFs?$FN?$FL?$CFs?$FN?5ERROR?5?3?5Cant?8t@ DB '['
	DB	'PShop] [%s][%s] ERROR : Cant''t Open Shop - Item Block', 00H ; `string'
CONST	ENDS
;	COMDAT ?__LINE__Var@?0??CGPShopReqOpen@@YAXPAUPMSG_REQ_PSHOP_OPEN@@H@Z@4JA
_DATA	SEGMENT
?__LINE__Var@?0??CGPShopReqOpen@@YAXPAUPMSG_REQ_PSHOP_OPEN@@H@Z@4JA DD 02677H ; `CGPShopReqOpen'::`1'::__LINE__Var
_DATA	ENDS
;	COMDAT ??_C@_0FD@OAAFOEHL@?$FLPShop?$FN?5?$FL?$CFs?$FN?$FL?$CFs?$FN?5Changing?5Item?5@
CONST	SEGMENT
??_C@_0FD@OAAFOEHL@?$FLPShop?$FN?5?$FL?$CFs?$FN?$FL?$CFs?$FN?5Changing?5Item?5@ DB '['
	DB	'PShop] [%s][%s] Changing Item Price : %d (Type:%d (%s), Lev:%'
	DB	'd, Serial:%d, Dur:%d', 00H			; `string'
CONST	ENDS
;	COMDAT ??_C@_0DI@GBAILLEI@?$FLPShop?$FN?5?$FL?$CFs?$FN?$FL?$CFs?$FN?5ERROR?5?3?5Item?5P@
CONST	SEGMENT
??_C@_0DI@GBAILLEI@?$FLPShop?$FN?5?$FL?$CFs?$FN?$FL?$CFs?$FN?5ERROR?5?3?5Item?5P@ DB '['
	DB	'PShop] [%s][%s] ERROR : Item Price Change - Item Block', 00H ; `string'
CONST	ENDS
;	COMDAT ??_C@_0DM@LPICNFPM@?$FLPShop?$FN?5?$FL?$CFs?$FN?$FL?$CFs?$FN?5ERROR?5?3?5Person@
CONST	SEGMENT
??_C@_0DM@LPICNFPM@?$FLPShop?$FN?5?$FL?$CFs?$FN?$FL?$CFs?$FN?5ERROR?5?3?5Person@ DB '['
	DB	'PShop] [%s][%s] ERROR : Personal Shop Item Price <= 0 : %d', 00H ; `string'
CONST	ENDS
;	COMDAT ??_C@_0CK@IBOOILII@error?9L2?5?3?5CopyItem?5?$FL?$CFs?$FN?$FL?$CFs?$FN?5re@
CONST	SEGMENT
??_C@_0CK@IBOOILII@error?9L2?5?3?5CopyItem?5?$FL?$CFs?$FN?$FL?$CFs?$FN?5re@ DB 'e'
	DB	'rror-L2 : CopyItem [%s][%s] return %s %d', 00H ; `string'
CONST	ENDS
;	COMDAT ??_C@_0DN@IOKIFLHM@?$FLANTI?9HACK?$FN?$FLSerial?50?5Item?$FN?5?$FLPSh@
CONST	SEGMENT
??_C@_0DN@IOKIFLHM@?$FLANTI?9HACK?$FN?$FLSerial?50?5Item?$FN?5?$FLPSh@ DB '['
	DB	'ANTI-HACK][Serial 0 Item] [PShop] (%s)(%s) Item(%s) Pos(%d)', 00H ; `string'
CONST	ENDS
;	COMDAT ??_C@_0DC@LNPMCBEG@?$FLPShop?$FN?5?$FL?$CFs?$FN?$FL?$CFs?$FN?5ERROR?5?3?5Item?5D@
CONST	SEGMENT
??_C@_0DC@LNPMCBEG@?$FLPShop?$FN?5?$FL?$CFs?$FN?$FL?$CFs?$FN?5ERROR?5?3?5Item?5D@ DB '['
	DB	'PShop] [%s][%s] ERROR : Item Does Not Exist : %d', 00H ; `string'
CONST	ENDS
;	COMDAT ??_C@_0DJ@POEGOMMJ@?$FLPShop?$FN?5?$FL?$CFs?$FN?$FL?$CFs?$FN?5ERROR?5?3?5Item?5P@
CONST	SEGMENT
??_C@_0DJ@POEGOMMJ@?$FLPShop?$FN?5?$FL?$CFs?$FN?$FL?$CFs?$FN?5ERROR?5?3?5Item?5P@ DB '['
	DB	'PShop] [%s][%s] ERROR : Item Position Out of Bound : %d', 00H ; `string'
CONST	ENDS
;	COMDAT ??_C@_0CP@JILLNCMO@?$FLPShop?$FN?5?$FL?$CFs?$FN?$FL?$CFs?$FN?5ERROR?5?3?5Level?5@
CONST	SEGMENT
??_C@_0CP@JILLNCMO@?$FLPShop?$FN?5?$FL?$CFs?$FN?$FL?$CFs?$FN?5ERROR?5?3?5Level?5@ DB '['
	DB	'PShop] [%s][%s] ERROR : Level is Under 6 : %d', 00H ; `string'
CONST	ENDS
;	COMDAT ??_C@_0CM@BGHHKBPI@?$FLPShop?$FN?5ERROR?5?3?5Index?5is?5not?5CH@
CONST	SEGMENT
??_C@_0CM@BGHHKBPI@?$FLPShop?$FN?5ERROR?5?3?5Index?5is?5not?5CH@ DB '[PSh'
	DB	'op] ERROR : Index is not CHARACTER : %d', 00H ; `string'
CONST	ENDS
;	COMDAT ??_C@_0CM@OJAPKEAG@?$FLPShop?$FN?5ERROR?5?3?5Index?5is?5not?5CO@
CONST	SEGMENT
??_C@_0CM@OJAPKEAG@?$FLPShop?$FN?5ERROR?5?3?5Index?5is?5not?5CO@ DB '[PSh'
	DB	'op] ERROR : Index is not CONNECTED : %d', 00H ; `string'
CONST	ENDS
;	COMDAT ?__LINE__Var@?0??CGPShopReqSetItemPrice@@YAXPAUPMSG_REQ_PSHOP_SETITEMPRICE@@H@Z@4JA
_DATA	SEGMENT
?__LINE__Var@?0??CGPShopReqSetItemPrice@@YAXPAUPMSG_REQ_PSHOP_SETITEMPRICE@@H@Z@4JA DD 025e4H ; `CGPShopReqSetItemPrice'::`1'::__LINE__Var
_DATA	ENDS
;	COMDAT ??_C@_0BG@FLFOODFC@?$FL?$CFs?$FN?$FL?$CFs?$FN?5Trade?5Accept@
CONST	SEGMENT
??_C@_0BG@FLFOODFC@?$FL?$CFs?$FN?$FL?$CFs?$FN?5Trade?5Accept@ DB '[%s][%s'
	DB	'] Trade Accept', 00H			; `string'
CONST	ENDS
;	COMDAT ?__LINE__Var@?0??CGTradeMoneyRecv@@YAXPAUPMSG_TRADE_GOLD@@H@Z@4JA
_DATA	SEGMENT
?__LINE__Var@?0??CGTradeMoneyRecv@@YAXPAUPMSG_TRADE_GOLD@@H@Z@4JA DD 02517H ; `CGTradeMoneyRecv'::`1'::__LINE__Var
_DATA	ENDS
;	COMDAT ??_C@_0BF@FJPPKIGA@Interface?5State?5?3?5?$CFd@
CONST	SEGMENT
??_C@_0BF@FJPPKIGA@Interface?5State?5?3?5?$CFd@ DB 'Interface State : %d', 00H ; `string'
CONST	ENDS
;	COMDAT ??_C@_0BO@GMBGLGLP@?$FL?$CFs?$FN?$FL?$CFs?$FN?5Trade?5Ready?5?$FL?$CFs?$FN?$FL?$CFs?$FN@
CONST	SEGMENT
??_C@_0BO@GMBGLGLP@?$FL?$CFs?$FN?$FL?$CFs?$FN?5Trade?5Ready?5?$FL?$CFs?$FN?$FL?$CFs?$FN@ DB '['
	DB	'%s][%s] Trade Ready [%s][%s]', 00H		; `string'
CONST	ENDS
;	COMDAT ??_C@_0DE@KMOKLCNA@?$FL?$CFs?$FN?$FL?$CFs?$FN?5Made?5Trade?5Error?5?$CIin?5T@
CONST	SEGMENT
??_C@_0DE@KMOKLCNA@?$FL?$CFs?$FN?$FL?$CFs?$FN?5Made?5Trade?5Error?5?$CIin?5T@ DB '['
	DB	'%s][%s] Made Trade Error (in Transaction) [%s][%s]', 00H ; `string'
CONST	ENDS
;	COMDAT ??_C@_0EH@CCMPCECD@?$FL?$CFs?$FN?$FL?$CFs?$FN?5CGTradeResponseRecv?$CI?$CJ?5@
CONST	SEGMENT
??_C@_0EH@CCMPCECD@?$FL?$CFs?$FN?$FL?$CFs?$FN?5CGTradeResponseRecv?$CI?$CJ?5@ DB '['
	DB	'%s][%s] CGTradeResponseRecv() Failed : Transaction == 1, IF_T'
	DB	'YPE : %d', 00H				; `string'
CONST	ENDS
;	COMDAT ??_C@_0DG@NABAHPDJ@?$CI?$CFs?$CJ?$CI?$CFs?$CJ?5Trade?5Interface?5State?5@
CONST	SEGMENT
??_C@_0DG@NABAHPDJ@?$CI?$CFs?$CJ?$CI?$CFs?$CJ?5Trade?5Interface?5State?5@ DB '('
	DB	'%s)(%s) Trade Interface State Error : use:%d type:%d', 00H ; `string'
CONST	ENDS
;	COMDAT ??_C@_0CF@HCOAINND@error?9L1?5?3?5target?3?$CFd?5?$CIA_ID?3?$CFs?$CJ?5@
CONST	SEGMENT
??_C@_0CF@HCOAINND@error?9L1?5?3?5target?3?$CFd?5?$CIA_ID?3?$CFs?$CJ?5@ DB 'e'
	DB	'rror-L1 : target:%d (A_ID:%s) %s %d', 00H	; `string'
CONST	ENDS
;	COMDAT ??_C@_0BO@JKBNIPAM@error?9L1?5?3?5?$CFd?5?$CIA_ID?3?$CFs?$CJ?5?$CFs?5?$CFd@
CONST	SEGMENT
??_C@_0BO@JKBNIPAM@error?9L1?5?3?5?$CFd?5?$CIA_ID?3?$CFs?$CJ?5?$CFs?5?$CFd@ DB 'e'
	DB	'rror-L1 : %d (A_ID:%s) %s %d', 00H		; `string'
CONST	ENDS
;	COMDAT ?__LINE__Var@?0??CGTradeResponseRecv@@YAXPAUPMSG_TRADE_RESPONSE@@H@Z@4JA
_DATA	SEGMENT
?__LINE__Var@?0??CGTradeResponseRecv@@YAXPAUPMSG_TRADE_RESPONSE@@H@Z@4JA DD 0240aH ; `CGTradeResponseRecv'::`1'::__LINE__Var
_DATA	ENDS
;	COMDAT ??_C@_0EG@MCMMANNG@?$FL?$CFs?$FN?$FL?$CFs?$FN?5CGTradeRequestSend?$CI?$CJ?5F@
CONST	SEGMENT
??_C@_0EG@MCMMANNG@?$FL?$CFs?$FN?$FL?$CFs?$FN?5CGTradeRequestSend?$CI?$CJ?5F@ DB '['
	DB	'%s][%s] CGTradeRequestSend() Failed : Transaction == 1, IF_TY'
	DB	'PE : %d', 00H				; `string'
CONST	ENDS
;	COMDAT ??_C@_0CA@DGNFGBFP@?$FLPVP?5Event?$FN?5Accion?5no?5permitida@
CONST	SEGMENT
??_C@_0CA@DGNFGBFP@?$FLPVP?5Event?$FN?5Accion?5no?5permitida@ DB '[PVP Ev'
	DB	'ent] Accion no permitida', 00H		; `string'
CONST	ENDS
;	COMDAT ??_C@_0EH@JLPPNLGF@?$FLHACKTOOL?$FN?5?3?5NPC?9TradeRequest?5n@
CONST	SEGMENT
??_C@_0EH@JLPPNLGF@?$FLHACKTOOL?$FN?5?3?5NPC?9TradeRequest?5n@ DB '[HACKT'
	DB	'OOL] : NPC-TradeRequest npc:%d ip:%s account:%s name:%s State'
	DB	':%d', 00H					; `string'
CONST	ENDS
;	COMDAT ??_C@_0BD@DBIFHAEB@error?5?3?5?$CFs?5?$CFd?5?$CI?$CFd?$CJ@
CONST	SEGMENT
??_C@_0BD@DBIFHAEB@error?5?3?5?$CFs?5?$CFd?5?$CI?$CFd?$CJ@ DB 'error : %s'
	DB	' %d (%d)', 00H				; `string'
CONST	ENDS
;	COMDAT ?__LINE__Var@?0??CGTradeRequestSend@@YAXPAUPMSG_TRADE_REQUEST@@H@Z@4JA
_DATA	SEGMENT
?__LINE__Var@?0??CGTradeRequestSend@@YAXPAUPMSG_TRADE_REQUEST@@H@Z@4JA DD 02340H ; `CGTradeRequestSend'::`1'::__LINE__Var
_DATA	ENDS
;	COMDAT ??_C@_0BB@NPCMBJOG@ID?3?$CFs?5CharID?3?$CFs?5@
CONST	SEGMENT
??_C@_0BB@NPCMBJOG@ID?3?$CFs?5CharID?3?$CFs?5@ DB 'ID:%s CharID:%s ', 00H ; `string'
CONST	ENDS
;	COMDAT ??_C@_0EB@IPNHKJAG@?$FLANTI?9HACK?$FN?$FLSerial?50?5Item?$FN?5?$FLSel@
CONST	SEGMENT
??_C@_0EB@IPNHKJAG@?$FLANTI?9HACK?$FN?$FLSerial?50?5Item?$FN?5?$FLSel@ DB '['
	DB	'ANTI-HACK][Serial 0 Item] [Sell Item] (%s)(%s) Item(%s) Pos(%'
	DB	'd)', 00H					; `string'
CONST	ENDS
;	COMDAT ??_C@_0EF@KJAJLIMD@?$FL?$CFs?$FN?$FL?$CFs?$FN?5CGSellRequestRecv?$CI?$CJ?5Fa@
CONST	SEGMENT
??_C@_0EF@KJAJLIMD@?$FL?$CFs?$FN?$FL?$CFs?$FN?5CGSellRequestRecv?$CI?$CJ?5Fa@ DB '['
	DB	'%s][%s] CGSellRequestRecv() Failed : Transaction == 1, IF_TYP'
	DB	'E : %d', 00H				; `string'
CONST	ENDS
;	COMDAT ?__LINE__Var@?0??CGSellRequestRecv@@YAXPAUPMSG_SELLREQUEST@@H@Z@4JA
_DATA	SEGMENT
?__LINE__Var@?0??CGSellRequestRecv@@YAXPAUPMSG_SELLREQUEST@@H@Z@4JA DD 01f73H ; `CGSellRequestRecv'::`1'::__LINE__Var
_DATA	ENDS
;	COMDAT ??_C@_0EI@PNDIMLBH@?$FL?$CFs?$FN?$FL?$CFs?$FN?5?$CI?$CFd?$CJ?5Shop?5buy?5?$FL?$CFd?$FN?$FL?$CFd?$FN@
CONST	SEGMENT
??_C@_0EI@PNDIMLBH@?$FL?$CFs?$FN?$FL?$CFs?$FN?5?$CI?$CFd?$CJ?5Shop?5buy?5?$FL?$CFd?$FN?$FL?$CFd?$FN@ DB '['
	DB	'%s][%s] (%d) Shop buy [%d][%d][%d][%s] LEV:%d, DUR:%d, OP:[%d'
	DB	'][%d][%d]', 00H				; `string'
CONST	ENDS
;	COMDAT ?__LINE__Var@?0??CGBuyRequestRecv@@YAXPAUPMSG_BUYREQUEST@@H@Z@4JA
_DATA	SEGMENT
?__LINE__Var@?0??CGBuyRequestRecv@@YAXPAUPMSG_BUYREQUEST@@H@Z@4JA DD 01ef1H ; `CGBuyRequestRecv'::`1'::__LINE__Var
_DATA	ENDS
;	COMDAT ??_C@_0BI@EKFBANFN@?$FL?$CFs?$FN?$FL?$CFs?$FN?5Open?5Chaos?5Box@
CONST	SEGMENT
??_C@_0BI@EKFBANFN@?$FL?$CFs?$FN?$FL?$CFs?$FN?5Open?5Chaos?5Box@ DB '[%s]'
	DB	'[%s] Open Chaos Box', 00H			; `string'
CONST	ENDS
;	COMDAT ??_C@_0DD@KJEEOOOJ@?$FL?$CFs?$FN?$FL?$CFs?$FN?5is?5Already?5Opening?5PSh@
CONST	SEGMENT
??_C@_0DD@KJEEOOOJ@?$FL?$CFs?$FN?$FL?$CFs?$FN?5is?5Already?5Opening?5PSh@ DB '['
	DB	'%s][%s] is Already Opening PShop, ChaosBox Failed', 00H ; `string'
CONST	ENDS
;	COMDAT ??_C@_0CP@GINMLCLK@?$FLANTI?9HACK?$FN?$FLNPC?5Talk?$FN?5Couldn?8t?5@
CONST	SEGMENT
??_C@_0CP@GINMLCLK@?$FLANTI?9HACK?$FN?$FLNPC?5Talk?$FN?5Couldn?8t?5@ DB '['
	DB	'ANTI-HACK][NPC Talk] Couldn''t talk.. (%s)(%s)', 00H ; `string'
CONST	ENDS
;	COMDAT ?__LINE__Var@?0??CGTalkRequestRecv@@YAXPAUPMSG_TALKREQUEST@@H@Z@4JA
_DATA	SEGMENT
?__LINE__Var@?0??CGTalkRequestRecv@@YAXPAUPMSG_TALKREQUEST@@H@Z@4JA DD 01d84H ; `CGTalkRequestRecv'::`1'::__LINE__Var
_DATA	ENDS
;	COMDAT ??_C@_0DB@OHHNKGKH@Pay?5WareHouse?5Money?$CIIn?5WareHous@
CONST	SEGMENT
??_C@_0DB@OHHNKGKH@Pay?5WareHouse?5Money?$CIIn?5WareHous@ DB 'Pay WareHou'
	DB	'se Money(In WareHouse) : %d - %d = %d', 00H	; `string'
CONST	ENDS
;	COMDAT ??_C@_0DB@BBIIADPJ@Pay?5WareHouse?5Money?$CIIn?5Inventor@
CONST	SEGMENT
??_C@_0DB@BBIIADPJ@Pay?5WareHouse?5Money?$CIIn?5Inventor@ DB 'Pay WareHou'
	DB	'se Money(In Inventory) : %d - %d = %d', 00H	; `string'
CONST	ENDS
;	COMDAT ??_C@_0CD@LILEALBE@?$FL?$CFs?$FN?$FL?$CFs?$FN?5error?9L1?5?3?5used?5not?5Tr@
CONST	SEGMENT
??_C@_0CD@LILEALBE@?$FL?$CFs?$FN?$FL?$CFs?$FN?5error?9L1?5?3?5used?5not?5Tr@ DB '['
	DB	'%s][%s] error-L1 : used not Trade', 00H	; `string'
CONST	ENDS
;	COMDAT ??_C@_0CH@JCEGNOH@?$FL?$CFs?$FN?$FL?$CFs?$FN?5error?9L1?5?3?5used?5not?5Wa@
CONST	SEGMENT
??_C@_0CH@JCEGNOH@?$FL?$CFs?$FN?$FL?$CFs?$FN?5error?9L1?5?3?5used?5not?5Wa@ DB '['
	DB	'%s][%s] error-L1 : used not Warehouse', 00H	; `string'
CONST	ENDS
;	COMDAT ??_C@_0CJ@GOOLKLEE@?$FL?$CFs?$FN?$FL?$CFs?$FN?5error?9L3?5?3?5DarkTrainer@
CONST	SEGMENT
??_C@_0CJ@GOOLKLEE@?$FL?$CFs?$FN?$FL?$CFs?$FN?5error?9L3?5?3?5DarkTrainer@ DB '['
	DB	'%s][%s] error-L3 : DarkTrainerBoxMixing', 00H ; `string'
CONST	ENDS
;	COMDAT ??_C@_0CM@KBDLDMLI@?$FL?$CFs?$FN?$FL?$CFs?$FN?5error?9L1?5?3?5used?5not?5Da@
CONST	SEGMENT
??_C@_0CM@KBDLDMLI@?$FL?$CFs?$FN?$FL?$CFs?$FN?5error?9L1?5?3?5used?5not?5Da@ DB '['
	DB	'%s][%s] error-L1 : used not DarkTrainerBox', 00H ; `string'
CONST	ENDS
;	COMDAT ??_C@_0BN@NBPOCOLJ@?$FL?$CFs?$FN?$FL?$CFs?$FN?5error?9L3?5?3?5CBMixing@
CONST	SEGMENT
??_C@_0BN@NBPOCOLJ@?$FL?$CFs?$FN?$FL?$CFs?$FN?5error?9L3?5?3?5CBMixing@ DB '['
	DB	'%s][%s] error-L3 : CBMixing', 00H		; `string'
CONST	ENDS
;	COMDAT ??_C@_0CG@KBCIHFJL@?$FL?$CFs?$FN?$FL?$CFs?$FN?5error?9L1?5?3?5used?5not?5Ch@
CONST	SEGMENT
??_C@_0CG@KBCIHFJL@?$FL?$CFs?$FN?$FL?$CFs?$FN?5error?9L1?5?3?5used?5not?5Ch@ DB '['
	DB	'%s][%s] error-L1 : used not Chaosbox', 00H	; `string'
CONST	ENDS
;	COMDAT ??_C@_0BC@JIBNBHEG@?$FL?$CFs?$FN?$FL?$CFd?$FN?5error?9L3@
CONST	SEGMENT
??_C@_0BC@JIBNBHEG@?$FL?$CFs?$FN?$FL?$CFd?$FN?5error?9L3@ DB '[%s][%d] er'
	DB	'ror-L3', 00H				; `string'
CONST	ENDS
;	COMDAT ?__LINE__Var@?0??CGInventoryItemMove@@YAXPAUPMSG_INVENTORYITEMMOVE@@H@Z@4JA
_DATA	SEGMENT
?__LINE__Var@?0??CGInventoryItemMove@@YAXPAUPMSG_INVENTORYITEMMOVE@@H@Z@4JA DD 019f4H ; `CGInventoryItemMove'::`1'::__LINE__Var
_DATA	ENDS
;	COMDAT ??_C@_0EK@IDAEHEED@?$FLKalima?$FN?5?$FL?$CFs?$FN?$FL?$CFs?$FN?5Success?5to?5Ma@
CONST	SEGMENT
??_C@_0EK@IDAEHEED@?$FLKalima?$FN?5?$FL?$CFs?$FN?$FL?$CFs?$FN?5Success?5to?5Ma@ DB '['
	DB	'Kalima] [%s][%s] Success to Make Kalima Gate (Lost Kalima Map'
	DB	' Serial:%d)', 00H				; `string'
CONST	ENDS
;	COMDAT ??_C@_0FO@FJBOPNFK@?$FL?$CFs?$FN?$FL?$CFs?$FN?$FL?$CFd?$FN?$CFd?1?$CFd?5Used?5box?5of?5D@
CONST	SEGMENT
??_C@_0FO@FJBOPNFK@?$FL?$CFs?$FN?$FL?$CFs?$FN?$FL?$CFd?$FN?$CFd?1?$CFd?5Used?5box?5of?5D@ DB '['
	DB	'%s][%s][%d]%d/%d Used box of DarkLordHeart Serial:%d (%s:%d/l'
	DB	'evel:%d/skill:%d/op2:%d/op3:%d)', 00H	; `string'
CONST	ENDS
;	COMDAT ??_C@_0GA@CCPCBLJL@?$FL?$CFs?$FN?$FL?$CFs?$FN?$FL?$CFd?$FN?$CFd?1?$CFd?5Used?5box?5of?5E@
CONST	SEGMENT
??_C@_0GA@CCPCBLJL@?$FL?$CFs?$FN?$FL?$CFs?$FN?$FL?$CFd?$FN?$CFd?1?$CFd?5Used?5box?5of?5E@ DB '['
	DB	'%s][%s][%d]%d/%d Used box of ElradoraBox1-12 Serial:%d (%s:%d'
	DB	'/level:%d/skill:%d/op2:%d/op3:%d)', 00H	; `string'
CONST	ENDS
;	COMDAT ??_C@_0GA@JIKHBPIM@?$FL?$CFs?$FN?$FL?$CFs?$FN?$FL?$CFd?$FN?$CFd?1?$CFd?5Used?5box?5of?5E@
CONST	SEGMENT
??_C@_0GA@JIKHBPIM@?$FL?$CFs?$FN?$FL?$CFs?$FN?$FL?$CFd?$FN?$CFd?1?$CFd?5Used?5box?5of?5E@ DB '['
	DB	'%s][%s][%d]%d/%d Used box of ElradoraBox1-11 Serial:%d (%s:%d'
	DB	'/level:%d/skill:%d/op2:%d/op3:%d)', 00H	; `string'
CONST	ENDS
;	COMDAT ??_C@_0FP@PHLHAFBH@?$FL?$CFs?$FN?$FL?$CFs?$FN?$FL?$CFd?$FN?$CFd?1?$CFd?5Used?5box?5of?5E@
CONST	SEGMENT
??_C@_0FP@PHLHAFBH@?$FL?$CFs?$FN?$FL?$CFs?$FN?$FL?$CFd?$FN?$CFd?1?$CFd?5Used?5box?5of?5E@ DB '['
	DB	'%s][%s][%d]%d/%d Used box of ElradoraBox-10 Serial:%d (%s:%d/'
	DB	'level:%d/skill:%d/op2:%d/op3:%d)', 00H	; `string'
CONST	ENDS
;	COMDAT ??_C@_0FO@PNDHLIGG@?$FL?$CFs?$FN?$FL?$CFs?$FN?$FL?$CFd?$FN?$CFd?1?$CFd?5Used?5box?5of?5E@
CONST	SEGMENT
??_C@_0FO@PNDHLIGG@?$FL?$CFs?$FN?$FL?$CFs?$FN?$FL?$CFd?$FN?$CFd?1?$CFd?5Used?5box?5of?5E@ DB '['
	DB	'%s][%s][%d]%d/%d Used box of ElradoraBox-9 Serial:%d (%s:%d/l'
	DB	'evel:%d/skill:%d/op2:%d/op3:%d)', 00H	; `string'
CONST	ENDS
;	COMDAT ??_C@_0FO@JEPLEEGL@?$FL?$CFs?$FN?$FL?$CFs?$FN?$FL?$CFd?$FN?$CFd?1?$CFd?5Used?5box?5of?5E@
CONST	SEGMENT
??_C@_0FO@JEPLEEGL@?$FL?$CFs?$FN?$FL?$CFs?$FN?$FL?$CFd?$FN?$CFd?1?$CFd?5Used?5box?5of?5E@ DB '['
	DB	'%s][%s][%d]%d/%d Used box of ElradoraBox-8 Serial:%d (%s:%d/l'
	DB	'evel:%d/skill:%d/op2:%d/op3:%d)', 00H	; `string'
CONST	ENDS
;	COMDAT ??_C@_0FK@PGPEHJJI@?$FL?$CFs?$FN?$FL?$CFs?$FN?$FL?$CFd?$FN?$CFd?1?$CFd?5Used?5box?5of?5E@
CONST	SEGMENT
??_C@_0FK@PGPEHJJI@?$FL?$CFs?$FN?$FL?$CFs?$FN?$FL?$CFd?$FN?$CFd?1?$CFd?5Used?5box?5of?5E@ DB '['
	DB	'%s][%s][%d]%d/%d Used box of EventChip Serial:%d (%s:%d/level'
	DB	':%d/skill:%d/op2:%d/op3:%d)', 00H		; `string'
CONST	ENDS
;	COMDAT ??_C@_0FM@IGKKOJBE@?$FL?$CFs?$FN?$FL?$CFs?$FN?$FL?$CFd?$FN?$CFd?1?$CFd?5Used?5box?5of?5S@
CONST	SEGMENT
??_C@_0FM@IGKKOJBE@?$FL?$CFs?$FN?$FL?$CFs?$FN?$FL?$CFd?$FN?$CFd?1?$CFd?5Used?5box?5of?5S@ DB '['
	DB	'%s][%s][%d]%d/%d Used box of SilverMedal Serial:%d (%s:%d/lev'
	DB	'el:%d/skill:%d/op2:%d/op3:%d)', 00H		; `string'
CONST	ENDS
;	COMDAT ??_C@_0FK@MPNDPHHL@?$FL?$CFs?$FN?$FL?$CFs?$FN?$FL?$CFd?$FN?$CFd?1?$CFd?5Used?5box?5of?5G@
CONST	SEGMENT
??_C@_0FK@MPNDPHHL@?$FL?$CFs?$FN?$FL?$CFs?$FN?$FL?$CFd?$FN?$CFd?1?$CFd?5Used?5box?5of?5G@ DB '['
	DB	'%s][%s][%d]%d/%d Used box of GoldMedal Serial:%d (%s:%d/level'
	DB	':%d/skill:%d/op2:%d/op3:%d)', 00H		; `string'
CONST	ENDS
;	COMDAT ??_C@_0FM@EBLAMMBK@?$FL?$CFs?$FN?$FL?$CFs?$FN?$FL?$CFd?$FN?$CFd?1?$CFd?5Used?5box?5of?5H@
CONST	SEGMENT
??_C@_0FM@EBLAMMBK@?$FL?$CFs?$FN?$FL?$CFs?$FN?$FL?$CFd?$FN?$CFd?1?$CFd?5Used?5box?5of?5H@ DB '['
	DB	'%s][%s][%d]%d/%d Used box of HeartOfLove Serial:%d (%s:%d/lev'
	DB	'el:%d/skill:%d/op2:%d/op3:%d)', 00H		; `string'
CONST	ENDS
;	COMDAT ??_C@_0FM@DGEGEEP@?$FL?$CFs?$FN?$FL?$CFs?$FN?$FL?$CFd?$FN?$CFd?1?$CFd?5Used?5box?5of?5F@
CONST	SEGMENT
??_C@_0FM@DGEGEEP@?$FL?$CFs?$FN?$FL?$CFs?$FN?$FL?$CFd?$FN?$CFd?1?$CFd?5Used?5box?5of?5F@ DB '['
	DB	'%s][%s][%d]%d/%d Used box of FireCracker Serial:%d (%s:%d/lev'
	DB	'el:%d/skill:%d/op2:%d/op3:%d)', 00H		; `string'
CONST	ENDS
;	COMDAT ??_C@_0FL@HPOJPJGH@?$FL?$CFs?$FN?$FL?$CFs?$FN?$FL?$CFd?$FN?$CFd?1?$CFd?5Used?5box?5of?5S@
CONST	SEGMENT
??_C@_0FL@HPOJPJGH@?$FL?$CFs?$FN?$FL?$CFs?$FN?$FL?$CFd?$FN?$CFd?1?$CFd?5Used?5box?5of?5S@ DB '['
	DB	'%s][%s][%d]%d/%d Used box of StarOfXMas Serial:%d (%s:%d/leve'
	DB	'l:%d/skill:%d/op2:%d/op3:%d)', 00H		; `string'
CONST	ENDS
;	COMDAT ??_C@_0EA@MFJKFJAM@?$FLANTI?9HACK?$FN?$FLSerial?50?5Item?$FN?5?$FLIte@
CONST	SEGMENT
??_C@_0EA@MFJKFJAM@?$FLANTI?9HACK?$FN?$FLSerial?50?5Item?$FN?5?$FLIte@ DB '['
	DB	'ANTI-HACK][Serial 0 Item] [ItemDrop] (%s)(%s) Item(%s) Pos(%d'
	DB	')', 00H					; `string'
CONST	ENDS
;	COMDAT ??_C@_04BGCMBJDA@Item@
CONST	SEGMENT
??_C@_04BGCMBJDA@Item@ DB 'Item', 00H			; `string'
CONST	ENDS
;	COMDAT ??_C@_0M@HHKDDFJH@error?3?$CFs?5?$CFd@
CONST	SEGMENT
??_C@_0M@HHKDDFJH@error?3?$CFs?5?$CFd@ DB 'error:%s %d', 00H ; `string'
CONST	ENDS
;	COMDAT ??_C@_0EF@ILLBNEEI@?$FL?$CFs?$FN?$FL?$CFs?$FN?5CGItemDropRequest?$CI?$CJ?5Fa@
CONST	SEGMENT
??_C@_0EF@ILLBNEEI@?$FL?$CFs?$FN?$FL?$CFs?$FN?5CGItemDropRequest?$CI?$CJ?5Fa@ DB '['
	DB	'%s][%s] CGItemDropRequest() Failed : Transaction == 1, IF_TYP'
	DB	'E : %d', 00H				; `string'
CONST	ENDS
;	COMDAT ?__LINE__Var@?0??CGItemDropRequest@@YAHPAUPMSG_ITEMTHROW@@HH@Z@4JA
_DATA	SEGMENT
?__LINE__Var@?0??CGItemDropRequest@@YAHPAUPMSG_ITEMTHROW@@HH@Z@4JA DD 014a1H ; `CGItemDropRequest'::`1'::__LINE__Var
_DATA	ENDS
;	COMDAT ??_C@_0EN@INJOAAFP@?$FLBlood?5Castle?$FN?5?$CI?$CFd?$CJ?5?$CIAccount?3?$CFs@
CONST	SEGMENT
??_C@_0EN@INJOAAFP@?$FLBlood?5Castle?$FN?5?$CI?$CFd?$CJ?5?$CIAccount?3?$CFs@ DB '['
	DB	'Blood Castle] (%d) (Account:%s, Name:%s) picked up Angel King'
	DB	'''s Weapon (%d)', 00H			; `string'
CONST	ENDS
;	COMDAT ??_C@_0DN@NBANJING@?$FLKalima?$FN?5?$FL?$CFs?$FN?$FL?$CFs?$FN?5Make?5Lost?5Kal@
CONST	SEGMENT
??_C@_0DN@NBANJING@?$FLKalima?$FN?5?$FL?$CFs?$FN?$FL?$CFs?$FN?5Make?5Lost?5Kal@ DB '['
	DB	'Kalima] [%s][%s] Make Lost Kalima Map (Left Kundun Mark:%d)', 00H ; `string'
CONST	ENDS
;	COMDAT ??_C@_0EI@IFAFBJMM@?$FLRing?5Event?$FN?5Too?5many?5have?5Magi@
CONST	SEGMENT
??_C@_0EI@IFAFBJMM@?$FLRing?5Event?$FN?5Too?5many?5have?5Magi@ DB '[Ring '
	DB	'Event] Too many have Magician''s Ring [%s][%s] (Name:%s, Coun'
	DB	't:%d)', 00H					; `string'
CONST	ENDS
;	COMDAT ??_C@_0DC@DNFDPMM@?$FLQuest?$FN?5Too?5many?5have?5quest?5ite@
CONST	SEGMENT
??_C@_0DC@DNFDPMM@?$FLQuest?$FN?5Too?5many?5have?5quest?5ite@ DB '[Quest]'
	DB	' Too many have quest item [%s][%s] (%s) %d', 00H ; `string'
CONST	ENDS
;	COMDAT ??_C@_0BB@LBNJKNBE@error?9L3?5?3?5?$CFs?5?$CFd@
CONST	SEGMENT
??_C@_0BB@LBNJKNBE@error?9L3?5?3?5?$CFs?5?$CFd@ DB 'error-L3 : %s %d', 00H ; `string'
CONST	ENDS
;	COMDAT ??_C@_0EE@JLFGKDAP@?$FL?$CFs?$FN?$FL?$CFs?$FN?5CGItemGetRequest?$CI?$CJ?5Fai@
CONST	SEGMENT
??_C@_0EE@JLFGKDAP@?$FL?$CFs?$FN?$FL?$CFs?$FN?5CGItemGetRequest?$CI?$CJ?5Fai@ DB '['
	DB	'%s][%s] CGItemGetRequest() Failed : Transaction == 1, IF_TYPE'
	DB	' : %d', 00H					; `string'
CONST	ENDS
;	COMDAT ??_C@_0CG@NFDFKIHI@?$FLFix?5Inv?4Ptr?$FN?5False?5Location?5?9?5@
CONST	SEGMENT
??_C@_0CG@NFDFKIHI@?$FLFix?5Inv?4Ptr?$FN?5False?5Location?5?9?5@ DB '[Fix'
	DB	' Inv.Ptr] False Location - %s, %d', 00H	; `string'
CONST	ENDS
;	COMDAT ?__LINE__Var@?0??CGItemGetRequest@@YAXPAUPMSG_ITEMGETREQUEST@@H@Z@4JA
_DATA	SEGMENT
?__LINE__Var@?0??CGItemGetRequest@@YAXPAUPMSG_ITEMGETREQUEST@@H@Z@4JA DD 01114H ; `CGItemGetRequest'::`1'::__LINE__Var
_DATA	ENDS
;	COMDAT ??_C@_0BI@LJJFCIF@Option?5Send?5?$CFd?5?$CFd?5?$CFd?5?$CFd@
CONST	SEGMENT
??_C@_0BI@LJJFCIF@Option?5Send?5?$CFd?5?$CFd?5?$CFd?5?$CFd@ DB 'Option Se'
	DB	'nd %d %d %d %d', 00H			; `string'
CONST	ENDS
;	COMDAT ??_C@_0BI@PHONBDAL@Option?5Recv?5?$CFd?5?$CFd?5?$CFd?5?$CFd@
CONST	SEGMENT
??_C@_0BI@PHONBDAL@Option?5Recv?5?$CFd?5?$CFd?5?$CFd?5?$CFd@ DB 'Option R'
	DB	'ecv %d %d %d %d', 00H			; `string'
CONST	ENDS
;	COMDAT ??_C@_0EH@JPGCOFPC@?0?5?$FLG?9?$DOD?5Req?5MapJoin?$FN?5CharSelect@
CONST	SEGMENT
??_C@_0EH@JPGCOFPC@?0?5?$FLG?9?$DOD?5Req?5MapJoin?$FN?5CharSelect@ DB ', '
	DB	'[G->D Req MapJoin] CharSelected, Account [%s], IP [%s], Name['
	DB	'%s](%s)', 00H				; `string'
CONST	ENDS
;	COMDAT ??_C@_0BJ@HPDAEMEM@Character?5delete?5?3?5?$CFs?0?$CFs@
CONST	SEGMENT
??_C@_0BJ@HPDAEMEM@Character?5delete?5?3?5?$CFs?0?$CFs@ DB 'Character del'
	DB	'ete : %s,%s', 00H				; `string'
CONST	ENDS
;	COMDAT ??_C@_0FD@NNHNDILD@?$FLAnti?9HACK?$FN?$FLCGPCharDel?$FN?5Attempt@
CONST	SEGMENT
??_C@_0FD@NNHNDILD@?$FLAnti?9HACK?$FN?$FLCGPCharDel?$FN?5Attempt@ DB '[An'
	DB	'ti-HACK][CGPCharDel] Attempted Character Delete during Preven'
	DB	'ted Time. [%s][%s]', 00H			; `string'
CONST	ENDS
;	COMDAT ??_C@_0EN@HJCICDL@?$FLAnti?9HACK?$FN?$FLCGPCharDel?$FN?5Attempt@
CONST	SEGMENT
??_C@_0EN@HJCICDL@?$FLAnti?9HACK?$FN?$FLCGPCharDel?$FN?5Attempt@ DB '[Ant'
	DB	'i-HACK][CGPCharDel] Attempted Character Delete during GamePla'
	DB	'y. [%s][%s]', 00H				; `string'
CONST	ENDS
;	COMDAT ??_C@_0BJ@GDNNOEGN@Character?5create?5?3?5?$CFs?0?$CFs@
CONST	SEGMENT
??_C@_0BJ@GDNNOEGN@Character?5create?5?3?5?$CFs?0?$CFs@ DB 'Character cre'
	DB	'ate : %s,%s', 00H				; `string'
CONST	ENDS
;	COMDAT ??_C@_0CP@FFBFNNND@error?9L1?3?5Darklord?5Character?5cr@
CONST	SEGMENT
??_C@_0CP@FFBFNNND@error?9L1?3?5Darklord?5Character?5cr@ DB 'error-L1: Da'
	DB	'rklord Character create error [%s]', 00H	; `string'
CONST	ENDS
;	COMDAT ??_C@_0CO@FCKNKLJK@error?9L1?3?5Magumsa?5Character?5cre@
CONST	SEGMENT
??_C@_0CO@FCKNKLJK@error?9L1?3?5Magumsa?5Character?5cre@ DB 'error-L1: Ma'
	DB	'gumsa Character create error [%s]', 00H	; `string'
CONST	ENDS
;	COMDAT ??_C@_0CN@BLKDKNKC@?$LM?$KN?$LJ?v?$LK?P?G?R?5?$LB?b?$LA?$KD?$LP?$KB?$LE?B?5?D?$LD?$LI?$KP?E?M?$LI?$KG?5?$LL?$PN?$LM?$LK@
CONST	SEGMENT
??_C@_0CN@BLKDKNKC@?$LM?$KN?$LJ?v?$LK?P?G?R?5?$LB?b?$LA?$KD?$LP?$KB?$LE?B?5?D?$LD?$LI?$KP?E?M?$LI?$KG?5?$LL?$PN?$LM?$LK@ DB 0bcH
	DB	0adH, 0b9H, 0f6H, 0baH, 0d0H, 0c7H, 0d2H, ' ', 0b1H, 0e2H, 0b0H
	DB	0a3H, 0bfH, 0a1H, 0b4H, 0c2H, ' ', 0c4H, 0b3H, 0b8H, 0afH, 0c5H
	DB	0cdH, 0b8H, 0a6H, ' ', 0bbH, 0fdH, 0bcH, 0baH, 0c7H, 0d2H, 0bcH
	DB	0f6H, ' ', 0beH, 0f8H, 0bdH, 0c0H, 0b4H, 0cfH, 0b4H, 0d9H, 00H ; `string'
CONST	ENDS
;	COMDAT ??_C@_0FF@BEFIFKBL@?$FLAnti?9HACK?$FN?$FLCGPCharacterCreate?$FN@
CONST	SEGMENT
??_C@_0FF@BEFIFKBL@?$FLAnti?9HACK?$FN?$FLCGPCharacterCreate?$FN@ DB '[Ant'
	DB	'i-HACK][CGPCharacterCreate] Attempted Character Create during'
	DB	' GamePlay. [%s][%s]', 00H			; `string'
CONST	ENDS
;	COMDAT ??_C@_0BE@EJDMDEO@Client?5HackCheck?5?$CFu@
CONST	SEGMENT
??_C@_0BE@EJDMDEO@Client?5HackCheck?5?$CFu@ DB 'Client HackCheck %u', 00H ; `string'
CONST	ENDS
;	COMDAT ??_C@_0CI@KOHNJIIP@error?9L1?5?3?5HackCheck?5?$FL?$CFs?$FN?$FL?$CFs?$FN?50@
CONST	SEGMENT
??_C@_0CI@KOHNJIIP@error?9L1?5?3?5HackCheck?5?$FL?$CFs?$FN?$FL?$CFs?$FN?50@ DB 'e'
	DB	'rror-L1 : HackCheck [%s][%s] 0x%x 0x%x', 00H ; `string'
CONST	ENDS
;	COMDAT ??_C@_0DG@JEMIEEON@?$FLUserSelClose?$FN?5Go?5CharSelect?5?$FL?$CF@
CONST	SEGMENT
??_C@_0DG@JEMIEEON@?$FLUserSelClose?$FN?5Go?5CharSelect?5?$FL?$CF@ DB '[U'
	DB	'serSelClose] Go CharSelect [%s][%s] Map:[%d][%d/%d]', 00H ; `string'
CONST	ENDS
;	COMDAT ??_C@_0FC@IHIAOFPA@?0?5?$FLUserSelClose?$FN?5Go?5CharSelect?0@
CONST	SEGMENT
??_C@_0FC@IHIAOFPA@?0?5?$FLUserSelClose?$FN?5Go?5CharSelect?0@ DB ', [Use'
	DB	'rSelClose] Go CharSelect, Account [%s], IP [%s], Name [%s], M'
	DB	'ap:[%d][%d/%d]', 00H			; `string'
CONST	ENDS
;	COMDAT ??_C@_0DG@MAGKNHGP@?$FLUserSelClose?$FN?5Go?5ServerList?5?$FL?$CF@
CONST	SEGMENT
??_C@_0DG@MAGKNHGP@?$FLUserSelClose?$FN?5Go?5ServerList?5?$FL?$CF@ DB '[U'
	DB	'serSelClose] Go ServerList [%s][%s] Map:[%d][%d/%d]', 00H ; `string'
CONST	ENDS
;	COMDAT ??_C@_0FC@GOGPDPOG@?0?5?$FLUserSelClose?$FN?5Go?5ServerList?0@
CONST	SEGMENT
??_C@_0FC@GOGPDPOG@?0?5?$FLUserSelClose?$FN?5Go?5ServerList?0@ DB ', [Use'
	DB	'rSelClose] Go ServerList, Account [%s], IP [%s], Name [%s], M'
	DB	'ap:[%d][%d/%d]', 00H			; `string'
CONST	ENDS
;	COMDAT ??_C@_0DA@BEHJLACI@?$FLUserSelClose?$FN?5Go?5Exit?5?$FL?$CFs?$FN?$FL?$CFs?$FN@
CONST	SEGMENT
??_C@_0DA@BEHJLACI@?$FLUserSelClose?$FN?5Go?5Exit?5?$FL?$CFs?$FN?$FL?$CFs?$FN@ DB '['
	DB	'UserSelClose] Go Exit [%s][%s] Map:[%d][%d/%d]', 00H ; `string'
CONST	ENDS
;	COMDAT ??_C@_0EM@KAGGFAIG@?0?5?$FLUserSelClose?$FN?5Go?5Exit?0?5Accou@
CONST	SEGMENT
??_C@_0EM@KAGGFAIG@?0?5?$FLUserSelClose?$FN?5Go?5Exit?0?5Accou@ DB ', [Us'
	DB	'erSelClose] Go Exit, Account [%s], IP [%s], Name [%s], Map:[%'
	DB	'd][%d/%d]', 00H				; `string'
CONST	ENDS
;	COMDAT ??_C@_0BD@CNPHLENH@login?5send?5?3?5?$CFs?5?$CFs@
CONST	SEGMENT
??_C@_0BD@CNPHLENH@login?5send?5?3?5?$CFs?5?$CFs@ DB 'login send : %s %s', 00H ; `string'
CONST	ENDS
;	COMDAT ??_C@_04FLFDNKBN@m321@
CONST	SEGMENT
??_C@_04FLFDNKBN@m321@ DB 'm321', 00H			; `string'
CONST	ENDS
;	COMDAT ??_C@_08NPLAPO@?$LN?$LI?$LF?$LJ?$MA?L?$CFd@
CONST	SEGMENT
??_C@_08NPLAPO@?$LN?$LI?$LF?$LJ?$MA?L?$CFd@ DB 0bdH, 0b8H, 0b5H, 0b9H, 0c0H
	DB	0ccH, '%d', 00H				; `string'
CONST	ENDS
;	COMDAT ??_C@_0BD@CICILPEN@join?5send?5?3?5?$CI?$CFd?$CJ?$CFs@
CONST	SEGMENT
??_C@_0BD@CICILPEN@join?5send?5?3?5?$CI?$CFd?$CJ?$CFs@ DB 'join send : (%'
	DB	'd)%s', 00H					; `string'
CONST	ENDS
;	COMDAT ??_C@_0BB@PPEDKKBK@error?5?3?5?$CFd?5?$CFs?5?$CFd@
CONST	SEGMENT
??_C@_0BB@PPEDKKBK@error?5?3?5?$CFd?5?$CFs?5?$CFd@ DB 'error : %d %s %d', 00H ; `string'
CONST	ENDS
;	COMDAT ??_C@_0CB@GGKFEOLP@error?9L1?3?5Serial?5error?5?$FL?$CFs?$FN?5?$FL?$CFs@
CONST	SEGMENT
??_C@_0CB@GGKFEOLP@error?9L1?3?5Serial?5error?5?$FL?$CFs?$FN?5?$FL?$CFs@ DB 'e'
	DB	'rror-L1: Serial error [%s] [%s]', 00H	; `string'
CONST	ENDS
;	COMDAT ??_C@_0CE@NFIPADMP@JOIN?5ERROR?5?9?5VERSION?3?5?$CFs?5SERIAL@
CONST	SEGMENT
??_C@_0CE@NFIPADMP@JOIN?5ERROR?5?9?5VERSION?3?5?$CFs?5SERIAL@ DB 'JOIN ER'
	DB	'ROR - VERSION: %s SERIAL: %s', 00H		; `string'
CONST	ENDS
;	COMDAT ?__LINE__Var@?0??CSPJoinIdPassRequest@@YAXPAUPMSG_IDPASS@@H@Z@4JA
_DATA	SEGMENT
?__LINE__Var@?0??CSPJoinIdPassRequest@@YAXPAUPMSG_IDPASS@@H@Z@4JA DD 0bf0H ; `CSPJoinIdPassRequest'::`1'::__LINE__Var
_DATA	ENDS
;	COMDAT ??_C@_0M@JGNMDCCD@?$MA?L?$LF?$LP?5?D?$KO?$LI?$KO?$LI?$LG@
CONST	SEGMENT
??_C@_0M@JGNMDCCD@?$MA?L?$LF?$LP?5?D?$KO?$LI?$KO?$LI?$LG@ DB 0c0H, 0ccH, 0b5H
	DB	0bfH, ' ', 0c4H, 0aeH, 0b8H, 0aeH, 0b8H, 0b6H, 00H ; `string'
CONST	ENDS
;	COMDAT ??_C@_06CPENAAMN@?$FL?$CFs?$FN?3?5@
CONST	SEGMENT
??_C@_06CPENAAMN@?$FL?$CFs?$FN?3?5@ DB '[%s]: ', 00H	; `string'
CONST	ENDS
;	COMDAT ??_C@_0DF@BCJCJNCO@?$FLAnti?9HACK?$FN?$FLPChatProc?$FN?$FL?$CFs?$FN?$FL?$CFs?$FN?5@
CONST	SEGMENT
??_C@_0DF@BCJCJNCO@?$FLAnti?9HACK?$FN?$FLPChatProc?$FN?$FL?$CFs?$FN?$FL?$CFs?$FN?5@ DB '['
	DB	'Anti-HACK][PChatProc][%s][%s] Chat Message Len : %d', 00H ; `string'
CONST	ENDS
;	COMDAT ??_C@_0CM@ECHKHDMC@error?9L1?5?3?5CheckSum?9Exe?5error?5?$CF@
CONST	SEGMENT
??_C@_0CM@ECHKHDMC@error?9L1?5?3?5CheckSum?9Exe?5error?5?$CF@ DB 'error-L'
	DB	'1 : CheckSum-Exe error %d %d %d [%s]', 00H	; `string'
CONST	ENDS
;	COMDAT ??_C@_0CI@PHFKNJAD@error?9L1?5?3?5?$FL?$CFs?$FN?$FL?$CFs?$FN?5CheckSum?9Ex@
CONST	SEGMENT
??_C@_0CI@PHFKNJAD@error?9L1?5?3?5?$FL?$CFs?$FN?$FL?$CFs?$FN?5CheckSum?9Ex@ DB 'e'
	DB	'rror-L1 : [%s][%s] CheckSum-Exe error ', 00H ; `string'
CONST	ENDS
;	COMDAT ??_C@_0O@DINGPLDD@218?4234?476?433@
CONST	SEGMENT
??_C@_0O@DINGPLDD@218?4234?476?433@ DB '218.234.76.33', 00H ; `string'
CONST	ENDS
;	COMDAT ??_C@_0P@KNPEEFN@TEST?5Data?5Send@
CONST	SEGMENT
??_C@_0P@KNPEEFN@TEST?5Data?5Send@ DB 'TEST Data Send', 00H ; `string'
CONST	ENDS
;	COMDAT ??_C@_0DH@ONNNLLKC@error?9L2?5?3?5account?3?$CFs?5name?3?$CFs?5H@
CONST	SEGMENT
??_C@_0DH@ONNNLLKC@error?9L2?5?3?5account?3?$CFs?5name?3?$CFs?5H@ DB 'err'
	DB	'or-L2 : account:%s name:%s HEAD:%x (%s,%d) State:%d', 00H ; `string'
CONST	ENDS
;	COMDAT ??_C@_0DL@MNNGLLFH@C?3?2Mu?5Online?2Mu?9GS?9Webzen?9MC?910@
CONST	SEGMENT
??_C@_0DL@MNNGLLFH@C?3?2Mu?5Online?2Mu?9GS?9Webzen?9MC?910@ DB 'C:\Mu Onl'
	DB	'ine\Mu-GS-Webzen-MC-10093\GameServer\protocol.cpp', 00H ; `string'
CONST	ENDS
;	COMDAT ??_C@_0DG@JHLFDPKE@Error?9L1?5?3?5Socket?5Serial?5?$CFs?5?$CFd?5@
CONST	SEGMENT
??_C@_0DG@JHLFDPKE@Error?9L1?5?3?5Socket?5Serial?5?$CFs?5?$CFd?5@ DB 'Err'
	DB	'or-L1 : Socket Serial %s %d o_serial:%d serial:%d ', 00H ; `string'
CONST	ENDS
;	COMDAT ?__LINE__Var@?0??ProtocolCore@@YAXEPAEHHHH@Z@4JA
_DATA	SEGMENT
?__LINE__Var@?0??ProtocolCore@@YAXEPAEHHHH@Z@4JA DD 0348H ; `ProtocolCore'::`1'::__LINE__Var
_DATA	ENDS
;	COMDAT ??_C@_0BN@LAHEKONH@Error?9L1?5?3?5Not?5Encrypt?5?$CFs?5?$CFd@
CONST	SEGMENT
??_C@_0BN@LAHEKONH@Error?9L1?5?3?5Not?5Encrypt?5?$CFs?5?$CFd@ DB 'Error-L'
	DB	'1 : Not Encrypt %s %d', 00H			; `string'
CONST	ENDS
;	COMDAT ??_C@_0BK@CPKHJPAP@QeustNpc?5RefCount?5Dec?$DN?5?$CFd@
CONST	SEGMENT
??_C@_0BK@CPKHJPAP@QeustNpc?5RefCount?5Dec?$DN?5?$CFd@ DB 'QeustNpc RefCo'
	DB	'unt Dec= %d', 00H				; `string'
CONST	ENDS
;	COMDAT ??_C@_00CNPNBAHC@@
CONST	SEGMENT
??_C@_00CNPNBAHC@@ DB 00H				; `string'
CONST	ENDS
;	COMDAT xdata$x
xdata$x	SEGMENT
__sehtable$?CGPShopReqBuyItem@@YAXPAUPMSG_REQ_BUYITEM_FROM_PSHOP@@H@Z DD 0ffffffe4H
	DD	00H
	DD	0fffffe38H
	DD	00H
	DD	0fffffffeH
	DD	00H
	DD	FLAT:$LN55@CGPShopReq
xdata$x	ENDS
; Function compile flags: /Odtp /ZI
; File C:\Mu Online\Mu-GS-Webzen-MC-10093\GameServer\protocol.cpp
;	COMDAT ?ItemDurRepaire@@YAXPAVOBJECTSTRUCT@@PAVCItem@@HH@Z
_TEXT	SEGMENT
_itemtype$ = -16					; size = 4
_result$ = -12						; size = 4
_pResult$ = -8						; size = 8
_lpObj$ = 8						; size = 4
_DurItem$ = 12						; size = 4
_pos$ = 16						; size = 4
_RequestPos$ = 20					; size = 4
?ItemDurRepaire@@YAXPAVOBJECTSTRUCT@@PAVCItem@@HH@Z PROC ; ItemDurRepaire, COMDAT

; 8544 : {	

  00000	55		 push	 ebp
  00001	8b ec		 mov	 ebp, esp
  00003	83 ec 50	 sub	 esp, 80			; 00000050H
  00006	53		 push	 ebx
  00007	56		 push	 esi
  00008	57		 push	 edi

; 8545 : 	PMSG_ITEMDURREPAIR_RESULT pResult;
; 8546 : 	DWORD result=1;

  00009	c7 45 f4 01 00
	00 00		 mov	 DWORD PTR _result$[ebp], 1

; 8547 : 	
; 8548 : 	PHeadSetB((LPBYTE)&pResult, 0x34, sizeof( pResult));

  00010	6a 08		 push	 8
  00012	6a 34		 push	 52			; 00000034H
  00014	8d 45 f8	 lea	 eax, DWORD PTR _pResult$[ebp]
  00017	50		 push	 eax
  00018	e8 00 00 00 00	 call	 ?PHeadSetB@@YAXPAEEH@Z	; PHeadSetB
  0001d	83 c4 0c	 add	 esp, 12			; 0000000cH

; 8549 : 
; 8550 : 	int itemtype = DurItem->m_Type;

  00020	8b 45 0c	 mov	 eax, DWORD PTR _DurItem$[ebp]
  00023	0f bf 48 06	 movsx	 ecx, WORD PTR [eax+6]
  00027	89 4d f0	 mov	 DWORD PTR _itemtype$[ebp], ecx

; 8551 : 
; 8552 : #ifdef DARKLORD_WORK
; 8553 : #ifndef UPDATE_DARKROAD_PET_ITEMREPAIR_20090109	//   
; 8554 : 	if( lpObj->m_IfState.type  != I_DARK_TRAINER )
; 8555 : 	{
; 8556 : 		if( itemtype == MAKE_ITEMNUM(13,4) || itemtype == MAKE_ITEMNUM(13,5) )
; 8557 : 		{	//         
; 8558 : 			pResult.Money = 0;
; 8559 : 			DataSend(lpObj->m_Index, (LPBYTE)&pResult, pResult.h.size);
; 8560 : 			return;
; 8561 : 		}
; 8562 : 	}
; 8563 : #endif	// UPDATE_DARKROAD_PET_ITEMREPAIR_20090109
; 8564 : #endif
; 8565 : 
; 8566 : 	if( itemtype >= ITEM_POTION ||		//  &&  
; 8567 : 		itemtype >= ITEM_HELPER && itemtype < ITEM_HELPER+4 ||
; 8568 : 		itemtype == MAKE_ITEMNUM(13,10)  || //  
; 8569 : #ifdef	ADD_THIRD_WING_20070525	// 3 
; 8570 : 		( itemtype >= ITEM_WING + 7 && itemtype < ITEM_WING + 36 ) ||
; 8571 : #ifdef ADD_SUMMONER_SECOND_THIRD_WING_20071130	//   ,  ,   
; 8572 : 		( itemtype > ITEM_WING + 43 && itemtype < ITEM_HELPER ) || 
; 8573 : #else
; 8574 : 		( itemtype > ITEM_WING + 40 && itemtype < ITEM_HELPER ) || 
; 8575 : #endif
; 8576 : #else
; 8577 : 		itemtype >= ITEM_WING+7 && itemtype < ITEM_HELPER || 
; 8578 : #endif
; 8579 : 		itemtype == MAKE_ITEMNUM(4,7) || 

  0002a	81 7d f0 c0 01
	00 00		 cmp	 DWORD PTR _itemtype$[ebp], 448 ; 000001c0H
  00031	7d 57		 jge	 SHORT $LN3@ItemDurRep
  00033	81 7d f0 a0 01
	00 00		 cmp	 DWORD PTR _itemtype$[ebp], 416 ; 000001a0H
  0003a	7c 09		 jl	 SHORT $LN4@ItemDurRep
  0003c	81 7d f0 a4 01
	00 00		 cmp	 DWORD PTR _itemtype$[ebp], 420 ; 000001a4H
  00043	7c 45		 jl	 SHORT $LN3@ItemDurRep
$LN4@ItemDurRep:
  00045	6a 0a		 push	 10			; 0000000aH
  00047	6a 0d		 push	 13			; 0000000dH
  00049	e8 00 00 00 00	 call	 ?MakeItemNumber@@YAHHH@Z ; MakeItemNumber
  0004e	83 c4 08	 add	 esp, 8
  00051	39 45 f0	 cmp	 DWORD PTR _itemtype$[ebp], eax
  00054	74 34		 je	 SHORT $LN3@ItemDurRep
  00056	81 7d f0 87 01
	00 00		 cmp	 DWORD PTR _itemtype$[ebp], 391 ; 00000187H
  0005d	7c 09		 jl	 SHORT $LN5@ItemDurRep
  0005f	81 7d f0 a0 01
	00 00		 cmp	 DWORD PTR _itemtype$[ebp], 416 ; 000001a0H
  00066	7c 22		 jl	 SHORT $LN3@ItemDurRep
$LN5@ItemDurRep:
  00068	6a 07		 push	 7
  0006a	6a 04		 push	 4
  0006c	e8 00 00 00 00	 call	 ?MakeItemNumber@@YAHHH@Z ; MakeItemNumber
  00071	83 c4 08	 add	 esp, 8
  00074	39 45 f0	 cmp	 DWORD PTR _itemtype$[ebp], eax
  00077	74 11		 je	 SHORT $LN3@ItemDurRep
  00079	6a 0f		 push	 15			; 0000000fH
  0007b	6a 04		 push	 4
  0007d	e8 00 00 00 00	 call	 ?MakeItemNumber@@YAHHH@Z ; MakeItemNumber
  00082	83 c4 08	 add	 esp, 8
  00085	39 45 f0	 cmp	 DWORD PTR _itemtype$[ebp], eax
  00088	75 23		 jne	 SHORT $LN2@ItemDurRep
$LN3@ItemDurRep:

; 8580 : 		itemtype == MAKE_ITEMNUM(4,15) )	// / ..
; 8581 : 	{
; 8582 : 		pResult.Money = 0;

  0008a	c7 45 fc 00 00
	00 00		 mov	 DWORD PTR _pResult$[ebp+4], 0

; 8583 : 		DataSend(lpObj->m_Index, (LPBYTE)&pResult, pResult.h.size);

  00091	0f b6 45 f9	 movzx	 eax, BYTE PTR _pResult$[ebp+1]
  00095	50		 push	 eax
  00096	8d 4d f8	 lea	 ecx, DWORD PTR _pResult$[ebp]
  00099	51		 push	 ecx
  0009a	8b 55 08	 mov	 edx, DWORD PTR _lpObj$[ebp]
  0009d	8b 02		 mov	 eax, DWORD PTR [edx]
  0009f	50		 push	 eax
  000a0	e8 00 00 00 00	 call	 ?DataSend@@YAHHPAEK@Z	; DataSend
  000a5	83 c4 0c	 add	 esp, 12			; 0000000cH

; 8584 : 		return;

  000a8	e9 4e 01 00 00	 jmp	 $LN1@ItemDurRep
$LN2@ItemDurRep:

; 8585 : 	}
; 8586 : 	
; 8587 : #ifdef KANTURU_MOONSTONEPENDANT_20060804		//    .
; 8588 : 	if( itemtype == MAKE_ITEMNUM( 13,38 ) )
; 8589 : 	{	
; 8590 : 		pResult.Money = 0;
; 8591 : 		DataSend(lpObj->m_Index, ( LPBYTE )&pResult, pResult.h.size );
; 8592 : 		return;			
; 8593 : 	}
; 8594 : #endif
; 8595 : 
; 8596 : #ifdef ADD_ELITE_SKELETON_WORRIOR_CHANGE_RING_20060830	//  
; 8597 : 	if( itemtype == MAKE_ITEMNUM( 13, 39 ) )
; 8598 : 	{	
; 8599 : 		pResult.Money = 0;
; 8600 : 		DataSend( lpObj->m_Index, ( LPBYTE )&pResult, pResult.h.size );
; 8601 : 		return;			
; 8602 : 	}
; 8603 : #endif
; 8604 : 	
; 8605 : #ifdef HALLOWINDAY_JACK_O_LANTERN_MORPH_RING_20061017
; 8606 : 	if( itemtype == MAKE_ITEMNUM( 13, 40 ) )
; 8607 : 	{
; 8608 : 		pResult.Money = 0;
; 8609 : 		DataSend( lpObj->m_Index, (LPBYTE)&pResult, pResult.h.size );
; 8610 : 		return;
; 8611 : 	}
; 8612 : #endif // HALLOWINDAY_JACK_O_LANTERN_MORPH_RING_20061017
; 8613 : 	
; 8614 : #ifdef CHRISTMAS_SANTA_POLYMORPH_RING_20061117
; 8615 : 	if( itemtype == MAKE_ITEMNUM( 13, 41 ) )
; 8616 : 	{
; 8617 : 		pResult.Money = 0;
; 8618 : 		DataSend( lpObj->m_Index, (LPBYTE)&pResult, pResult.h.size );
; 8619 : 	}
; 8620 : #endif // CHRISTMAS_SANTA_POLYMORPH_RING_20061117
; 8621 : 
; 8622 : #ifdef UPDATE_GM_FUNCTION_20070228
; 8623 : 	if( itemtype == MAKE_ITEMNUM( 13, 42 ) )
; 8624 : 	{
; 8625 : 		pResult.Money = 0;
; 8626 : 		DataSend( lpObj->m_Index, (LPBYTE)&pResult, pResult.h.size );
; 8627 : 	}
; 8628 : #endif
; 8629 : 
; 8630 : 	pResult.Money = GetNeedMoneyItemDurRepaire(DurItem, RequestPos);

  000ad	8b 45 14	 mov	 eax, DWORD PTR _RequestPos$[ebp]
  000b0	50		 push	 eax
  000b1	8b 4d 0c	 mov	 ecx, DWORD PTR _DurItem$[ebp]
  000b4	51		 push	 ecx
  000b5	e8 00 00 00 00	 call	 ?GetNeedMoneyItemDurRepaire@@YAHPAVCItem@@H@Z ; GetNeedMoneyItemDurRepaire
  000ba	83 c4 08	 add	 esp, 8
  000bd	89 45 fc	 mov	 DWORD PTR _pResult$[ebp+4], eax

; 8631 : 
; 8632 : 	if( pResult.Money <= 0 )

  000c0	83 7d fc 00	 cmp	 DWORD PTR _pResult$[ebp+4], 0
  000c4	7f 23		 jg	 SHORT $LN6@ItemDurRep

; 8633 : 	{	//    
; 8634 : 		pResult.Money = 0;

  000c6	c7 45 fc 00 00
	00 00		 mov	 DWORD PTR _pResult$[ebp+4], 0

; 8635 : 		DataSend(lpObj->m_Index, (LPBYTE)&pResult, pResult.h.size);

  000cd	0f b6 45 f9	 movzx	 eax, BYTE PTR _pResult$[ebp+1]
  000d1	50		 push	 eax
  000d2	8d 4d f8	 lea	 ecx, DWORD PTR _pResult$[ebp]
  000d5	51		 push	 ecx
  000d6	8b 55 08	 mov	 edx, DWORD PTR _lpObj$[ebp]
  000d9	8b 02		 mov	 eax, DWORD PTR [edx]
  000db	50		 push	 eax
  000dc	e8 00 00 00 00	 call	 ?DataSend@@YAHHPAEK@Z	; DataSend
  000e1	83 c4 0c	 add	 esp, 12			; 0000000cH

; 8636 : 		return;

  000e4	e9 12 01 00 00	 jmp	 $LN1@ItemDurRep
$LN6@ItemDurRep:

; 8637 : 	}	
; 8638 : 
; 8639 : 	//   .
; 8640 : #ifdef MODIFY_ITEM_REPAIR_HIRE_BUGFIX_20090415
; 8641 : 	if( lpObj->Money-pResult.Money < 0 ) 

  000e9	8b 45 08	 mov	 eax, DWORD PTR _lpObj$[ebp]
  000ec	8b 88 b0 00 00
	00		 mov	 ecx, DWORD PTR [eax+176]
  000f2	2b 4d fc	 sub	 ecx, DWORD PTR _pResult$[ebp+4]
  000f5	79 0c		 jns	 SHORT $LN7@ItemDurRep

; 8642 : #else // MODIFY_ITEM_REPAIR_HIRE_BUGFIX_20090415
; 8643 : 	if( lpObj->Money-pResult.Money < 1 ) 
; 8644 : #endif // MODIFY_ITEM_REPAIR_HIRE_BUGFIX_20090415
; 8645 : 	{
; 8646 : 		//   
; 8647 : 		pResult.Money = 0;

  000f7	c7 45 fc 00 00
	00 00		 mov	 DWORD PTR _pResult$[ebp+4], 0

; 8648 : 	}

  000fe	e9 e1 00 00 00	 jmp	 $LN8@ItemDurRep
$LN7@ItemDurRep:

; 8649 : 	else {
; 8650 : 		//      .
; 8651 : 		lpObj->Money -= pResult.Money;

  00103	8b 45 08	 mov	 eax, DWORD PTR _lpObj$[ebp]
  00106	8b 88 b0 00 00
	00		 mov	 ecx, DWORD PTR [eax+176]
  0010c	2b 4d fc	 sub	 ecx, DWORD PTR _pResult$[ebp+4]
  0010f	8b 55 08	 mov	 edx, DWORD PTR _lpObj$[ebp]
  00112	89 8a b0 00 00
	00		 mov	 DWORD PTR [edx+176], ecx

; 8652 : 		pResult.Money = lpObj->Money;

  00118	8b 45 08	 mov	 eax, DWORD PTR _lpObj$[ebp]
  0011b	8b 88 b0 00 00
	00		 mov	 ecx, DWORD PTR [eax+176]
  00121	89 4d fc	 mov	 DWORD PTR _pResult$[ebp+4], ecx

; 8653 : 
; 8654 : #ifdef MODIFY_ITEM_REPAIR_HIRE_BUGFIX_20090415
; 8655 : 		GCMoneySend( lpObj->m_Index, lpObj->Money );

  00124	8b 45 08	 mov	 eax, DWORD PTR _lpObj$[ebp]
  00127	8b 88 b0 00 00
	00		 mov	 ecx, DWORD PTR [eax+176]
  0012d	51		 push	 ecx
  0012e	8b 55 08	 mov	 edx, DWORD PTR _lpObj$[ebp]
  00131	8b 02		 mov	 eax, DWORD PTR [edx]
  00133	50		 push	 eax
  00134	e8 00 00 00 00	 call	 ?GCMoneySend@@YAXHK@Z	; GCMoneySend
  00139	83 c4 08	 add	 esp, 8

; 8656 : #endif // MODIFY_ITEM_REPAIR_HIRE_BUGFIX_20090415
; 8657 : 				
; 8658 : 		DurItem->m_Durability = (int)DurItem->m_BaseDurability;

  0013c	8b 45 0c	 mov	 eax, DWORD PTR _DurItem$[ebp]
  0013f	f3 0f 2c 48 2c	 cvttss2si ecx, DWORD PTR [eax+44]
  00144	f3 0f 2a c1	 cvtsi2ss xmm0, ecx
  00148	8b 55 0c	 mov	 edx, DWORD PTR _DurItem$[ebp]
  0014b	f3 0f 11 42 24	 movss	 DWORD PTR [edx+36], xmm0

; 8659 : 
; 8660 : 		//   
; 8661 : 
; 8662 : #ifdef ADD_380ITEM_NEWOPTION_20060711
; 8663 : 		DurItem->Convert(DurItem->m_Type, 
; 8664 : 		                 DurItem->m_Option1, 
; 8665 : 						 DurItem->m_Option2,
; 8666 : 						 DurItem->m_Option3,
; 8667 : 						 DurItem->m_NewOption,
; 8668 : 						 DurItem->m_SetOption,
; 8669 : 						 DurItem->m_ItemOptionEx);	
; 8670 : #else
; 8671 : 		DurItem->Convert(DurItem->m_Type, 

  00150	6a 01		 push	 1
  00152	8b 45 0c	 mov	 eax, DWORD PTR _DurItem$[ebp]
  00155	0f b6 88 92 00
	00 00		 movzx	 ecx, BYTE PTR [eax+146]
  0015c	51		 push	 ecx
  0015d	8b 55 0c	 mov	 edx, DWORD PTR _DurItem$[ebp]
  00160	0f b6 42 7b	 movzx	 eax, BYTE PTR [edx+123]
  00164	50		 push	 eax
  00165	8b 4d 0c	 mov	 ecx, DWORD PTR _DurItem$[ebp]
  00168	0f b6 51 7a	 movzx	 edx, BYTE PTR [ecx+122]
  0016c	52		 push	 edx
  0016d	8b 45 0c	 mov	 eax, DWORD PTR _DurItem$[ebp]
  00170	0f b6 48 79	 movzx	 ecx, BYTE PTR [eax+121]
  00174	51		 push	 ecx
  00175	8b 55 0c	 mov	 edx, DWORD PTR _DurItem$[ebp]
  00178	0f b6 42 78	 movzx	 eax, BYTE PTR [edx+120]
  0017c	50		 push	 eax
  0017d	8b 4d 0c	 mov	 ecx, DWORD PTR _DurItem$[ebp]
  00180	0f bf 51 06	 movsx	 edx, WORD PTR [ecx+6]
  00184	52		 push	 edx
  00185	8b 4d 0c	 mov	 ecx, DWORD PTR _DurItem$[ebp]
  00188	e8 00 00 00 00	 call	 ?Convert@CItem@@QAEXHEEEEEE@Z ; CItem::Convert

; 8672 : 		                 DurItem->m_Option1, 
; 8673 : 						 DurItem->m_Option2,
; 8674 : 						 DurItem->m_Option3,
; 8675 : 						 DurItem->m_NewOption,
; 8676 : 						 DurItem->m_SetOption);	
; 8677 : #endif // ADD_380ITEM_NEWOPTION_20060711
; 8678 : 
; 8679 : #ifdef UPDATE_DARKROAD_PET_ITEMREPAIR_20090109
; 8680 : 		if(DurItem->m_Type == MAKE_ITEMNUM(13,4) || DurItem->m_Type == MAKE_ITEMNUM(13,5))

  0018d	8b 45 0c	 mov	 eax, DWORD PTR _DurItem$[ebp]
  00190	0f bf 70 06	 movsx	 esi, WORD PTR [eax+6]
  00194	6a 04		 push	 4
  00196	6a 0d		 push	 13			; 0000000dH
  00198	e8 00 00 00 00	 call	 ?MakeItemNumber@@YAHHH@Z ; MakeItemNumber
  0019d	83 c4 08	 add	 esp, 8
  001a0	3b f0		 cmp	 esi, eax
  001a2	74 17		 je	 SHORT $LN10@ItemDurRep
  001a4	8b 45 0c	 mov	 eax, DWORD PTR _DurItem$[ebp]
  001a7	0f bf 70 06	 movsx	 esi, WORD PTR [eax+6]
  001ab	6a 05		 push	 5
  001ad	6a 0d		 push	 13			; 0000000dH
  001af	e8 00 00 00 00	 call	 ?MakeItemNumber@@YAHHH@Z ; MakeItemNumber
  001b4	83 c4 08	 add	 esp, 8
  001b7	3b f0		 cmp	 esi, eax
  001b9	75 08		 jne	 SHORT $LN9@ItemDurRep
$LN10@ItemDurRep:

; 8681 : 		{
; 8682 : 			DurItem->PetValue();		

  001bb	8b 4d 0c	 mov	 ecx, DWORD PTR _DurItem$[ebp]
  001be	e8 00 00 00 00	 call	 ?PetValue@CItem@@QAEXXZ	; CItem::PetValue
$LN9@ItemDurRep:

; 8683 : 		}
; 8684 : #endif	// UPDATE_DARKROAD_PET_ITEMREPAIR_20090109
; 8685 : 		
; 8686 : 		//   
; 8687 : 		GCItemDurSend(lpObj->m_Index, pos, DurItem->m_Durability, 0);

  001c3	6a 00		 push	 0
  001c5	8b 45 0c	 mov	 eax, DWORD PTR _DurItem$[ebp]
  001c8	f3 0f 2c 48 24	 cvttss2si ecx, DWORD PTR [eax+36]
  001cd	0f b6 d1	 movzx	 edx, cl
  001d0	52		 push	 edx
  001d1	0f b6 45 10	 movzx	 eax, BYTE PTR _pos$[ebp]
  001d5	50		 push	 eax
  001d6	8b 4d 08	 mov	 ecx, DWORD PTR _lpObj$[ebp]
  001d9	8b 11		 mov	 edx, DWORD PTR [ecx]
  001db	52		 push	 edx
  001dc	e8 00 00 00 00	 call	 ?GCItemDurSend@@YAXHEEE@Z ; GCItemDurSend
  001e1	83 c4 10	 add	 esp, 16			; 00000010H
$LN8@ItemDurRep:

; 8688 : 	}
; 8689 : 
; 8690 : 	//    .
; 8691 : 	DataSend(lpObj->m_Index, (LPBYTE)&pResult, pResult.h.size);

  001e4	0f b6 45 f9	 movzx	 eax, BYTE PTR _pResult$[ebp+1]
  001e8	50		 push	 eax
  001e9	8d 4d f8	 lea	 ecx, DWORD PTR _pResult$[ebp]
  001ec	51		 push	 ecx
  001ed	8b 55 08	 mov	 edx, DWORD PTR _lpObj$[ebp]
  001f0	8b 02		 mov	 eax, DWORD PTR [edx]
  001f2	50		 push	 eax
  001f3	e8 00 00 00 00	 call	 ?DataSend@@YAHHPAEK@Z	; DataSend
  001f8	83 c4 0c	 add	 esp, 12			; 0000000cH
$LN1@ItemDurRep:

; 8692 : }

  001fb	5f		 pop	 edi
  001fc	5e		 pop	 esi
  001fd	5b		 pop	 ebx
  001fe	8b e5		 mov	 esp, ebp
  00200	5d		 pop	 ebp
  00201	c3		 ret	 0
?ItemDurRepaire@@YAXPAVOBJECTSTRUCT@@PAVCItem@@HH@Z ENDP ; ItemDurRepaire
_TEXT	ENDS
; Function compile flags: /Odtp /ZI
; File C:\Mu Online\Mu-GS-Webzen-MC-10093\GameServer\protocol.cpp
;	COMDAT ?GetNeedMoneyItemDurRepaire@@YAHPAVCItem@@H@Z
_TEXT	SEGMENT
tv223 = -104						; size = 4
_fRootRoot$1 = -36					; size = 4
_fRoot$2 = -32						; size = 4
_sellmoney$3 = -28					; size = 4
_persent$4 = -24					; size = 4
_RepaireMoney$5 = -20					; size = 4
_Durability$6 = -16					; size = 4
_ItemDurability$ = -12					; size = 4
_type$ = -8						; size = 4
_iMoney$ = -4						; size = 4
_DurItem$ = 8						; size = 4
_RequestPos$ = 12					; size = 4
?GetNeedMoneyItemDurRepaire@@YAHPAVCItem@@H@Z PROC	; GetNeedMoneyItemDurRepaire, COMDAT

; 8412 : {

  00000	55		 push	 ebp
  00001	8b ec		 mov	 ebp, esp
  00003	83 ec 68	 sub	 esp, 104		; 00000068H
  00006	53		 push	 ebx
  00007	56		 push	 esi
  00008	57		 push	 edi

; 8413 : 	int iMoney = 0;

  00009	c7 45 fc 00 00
	00 00		 mov	 DWORD PTR _iMoney$[ebp], 0

; 8414 : 
; 8415 : 	int type = DurItem->m_Type;

  00010	8b 45 08	 mov	 eax, DWORD PTR _DurItem$[ebp]
  00013	0f bf 48 06	 movsx	 ecx, WORD PTR [eax+6]
  00017	89 4d f8	 mov	 DWORD PTR _type$[ebp], ecx

; 8416 : 	float ItemDurability = (float)DurItem->m_Durability;

  0001a	8b 45 08	 mov	 eax, DWORD PTR _DurItem$[ebp]
  0001d	f3 0f 10 40 24	 movss	 xmm0, DWORD PTR [eax+36]
  00022	f3 0f 11 45 f4	 movss	 DWORD PTR _ItemDurability$[ebp], xmm0

; 8417 : 
; 8418 : 	if( type == MAKE_ITEMNUM(13,10) )

  00027	6a 0a		 push	 10			; 0000000aH
  00029	6a 0d		 push	 13			; 0000000dH
  0002b	e8 00 00 00 00	 call	 ?MakeItemNumber@@YAHHH@Z ; MakeItemNumber
  00030	83 c4 08	 add	 esp, 8
  00033	39 45 f8	 cmp	 DWORD PTR _type$[ebp], eax
  00036	75 07		 jne	 SHORT $LN2@GetNeedMon

; 8419 : 		return 0;

  00038	33 c0		 xor	 eax, eax
  0003a	e9 0d 02 00 00	 jmp	 $LN1@GetNeedMon
$LN2@GetNeedMon:

; 8420 : 
; 8421 : 	if( HasItemDurability(type) )

  0003f	8b 45 f8	 mov	 eax, DWORD PTR _type$[ebp]
  00042	50		 push	 eax
  00043	e8 00 00 00 00	 call	 ?HasItemDurability@@YAHH@Z ; HasItemDurability
  00048	83 c4 04	 add	 esp, 4
  0004b	85 c0		 test	 eax, eax
  0004d	0f 84 ef 01 00
	00		 je	 $LN3@GetNeedMon

; 8422 : 	{	//   
; 8423 : 		float Durability;
; 8424 : 		float RepaireMoney = 0;	

  00053	0f 57 c0	 xorps	 xmm0, xmm0
  00056	f3 0f 11 45 ec	 movss	 DWORD PTR _RepaireMoney$5[ebp], xmm0

; 8425 : 
; 8426 : 		Durability = DurItem->m_BaseDurability;

  0005b	8b 45 08	 mov	 eax, DWORD PTR _DurItem$[ebp]
  0005e	f3 0f 10 40 2c	 movss	 xmm0, DWORD PTR [eax+44]
  00063	f3 0f 11 45 f0	 movss	 DWORD PTR _Durability$6[ebp], xmm0

; 8427 : 
; 8428 : 		if( ItemDurability == Durability )

  00068	f3 0f 10 45 f4	 movss	 xmm0, DWORD PTR _ItemDurability$[ebp]
  0006d	0f 2e 45 f0	 ucomiss xmm0, DWORD PTR _Durability$6[ebp]
  00071	9f		 lahf
  00072	f6 c4 44	 test	 ah, 68			; 00000044H
  00075	7a 07		 jp	 SHORT $LN5@GetNeedMon

; 8429 : 			return 0;

  00077	33 c0		 xor	 eax, eax
  00079	e9 ce 01 00 00	 jmp	 $LN1@GetNeedMon
$LN5@GetNeedMon:

; 8430 : 
; 8431 : 		//RepaireMoney = DurItem->m_SellMoney*GetRepairItemRate(type)/Durability;
; 8432 : 		//RepaireMoney = RepaireMoney*(Durability-ItemDurability);
; 8433 : 
; 8434 : 		float   persent = 1.f - (ItemDurability/Durability);

  0007e	f3 0f 10 45 f4	 movss	 xmm0, DWORD PTR _ItemDurability$[ebp]
  00083	f3 0f 5e 45 f0	 divss	 xmm0, DWORD PTR _Durability$6[ebp]
  00088	f3 0f 10 0d 00
	00 00 00	 movss	 xmm1, DWORD PTR __real@3f800000
  00090	f3 0f 5c c8	 subss	 xmm1, xmm0
  00094	f3 0f 11 4d e8	 movss	 DWORD PTR _persent$4[ebp], xmm1

; 8435 : 
; 8436 : 		int sellmoney;
; 8437 : 
; 8438 : #ifdef DARKLORD_WORK
; 8439 : 		if( type == MAKE_ITEMNUM(13,4) || type == MAKE_ITEMNUM(13,5) )

  00099	6a 04		 push	 4
  0009b	6a 0d		 push	 13			; 0000000dH
  0009d	e8 00 00 00 00	 call	 ?MakeItemNumber@@YAHHH@Z ; MakeItemNumber
  000a2	83 c4 08	 add	 esp, 8
  000a5	39 45 f8	 cmp	 DWORD PTR _type$[ebp], eax
  000a8	74 11		 je	 SHORT $LN8@GetNeedMon
  000aa	6a 05		 push	 5
  000ac	6a 0d		 push	 13			; 0000000dH
  000ae	e8 00 00 00 00	 call	 ?MakeItemNumber@@YAHHH@Z ; MakeItemNumber
  000b3	83 c4 08	 add	 esp, 8
  000b6	39 45 f8	 cmp	 DWORD PTR _type$[ebp], eax
  000b9	75 0b		 jne	 SHORT $LN6@GetNeedMon
$LN8@GetNeedMon:

; 8440 : 		{	// ,     2
; 8441 : 			sellmoney =  DurItem->m_BuyMoney;

  000bb	8b 45 08	 mov	 eax, DWORD PTR _DurItem$[ebp]
  000be	8b 48 64	 mov	 ecx, DWORD PTR [eax+100]
  000c1	89 4d e4	 mov	 DWORD PTR _sellmoney$3[ebp], ecx

; 8442 : 		}

  000c4	eb 12		 jmp	 SHORT $LN7@GetNeedMon
$LN6@GetNeedMon:

; 8443 : 		else
; 8444 : #endif
; 8445 : 		{
; 8446 : 			sellmoney =  DurItem->m_BuyMoney/3;

  000c6	8b 45 08	 mov	 eax, DWORD PTR _DurItem$[ebp]
  000c9	8b 40 64	 mov	 eax, DWORD PTR [eax+100]
  000cc	33 d2		 xor	 edx, edx
  000ce	b9 03 00 00 00	 mov	 ecx, 3
  000d3	f7 f1		 div	 ecx
  000d5	89 45 e4	 mov	 DWORD PTR _sellmoney$3[ebp], eax
$LN7@GetNeedMon:

; 8447 : 		}
; 8448 : 		
; 8449 : #ifdef MODIFY_ITEM_REPAIRE_MAXMONEY
; 8450 : 		if( sellmoney > 400000000 )

  000d8	81 7d e4 00 84
	d7 17		 cmp	 DWORD PTR _sellmoney$3[ebp], 400000000 ; 17d78400H
  000df	7e 07		 jle	 SHORT $LN9@GetNeedMon

; 8451 : 		{
; 8452 : 			sellmoney = 400000000;

  000e1	c7 45 e4 00 84
	d7 17		 mov	 DWORD PTR _sellmoney$3[ebp], 400000000 ; 17d78400H
$LN9@GetNeedMon:

; 8453 : 		}
; 8454 : #endif
; 8455 : 
; 8456 : 		if(sellmoney>= 1000)

  000e8	81 7d e4 e8 03
	00 00		 cmp	 DWORD PTR _sellmoney$3[ebp], 1000 ; 000003e8H
  000ef	7c 13		 jl	 SHORT $LN10@GetNeedMon

; 8457 : 			sellmoney = sellmoney/100*100;

  000f1	8b 45 e4	 mov	 eax, DWORD PTR _sellmoney$3[ebp]
  000f4	99		 cdq
  000f5	b9 64 00 00 00	 mov	 ecx, 100		; 00000064H
  000fa	f7 f9		 idiv	 ecx
  000fc	6b d0 64	 imul	 edx, eax, 100
  000ff	89 55 e4	 mov	 DWORD PTR _sellmoney$3[ebp], edx
  00102	eb 17		 jmp	 SHORT $LN12@GetNeedMon
$LN10@GetNeedMon:

; 8458 : 		else if(sellmoney >= 100)

  00104	83 7d e4 64	 cmp	 DWORD PTR _sellmoney$3[ebp], 100 ; 00000064H
  00108	7c 11		 jl	 SHORT $LN12@GetNeedMon

; 8459 : 			sellmoney = sellmoney/10*10;

  0010a	8b 45 e4	 mov	 eax, DWORD PTR _sellmoney$3[ebp]
  0010d	99		 cdq
  0010e	b9 0a 00 00 00	 mov	 ecx, 10			; 0000000aH
  00113	f7 f9		 idiv	 ecx
  00115	6b d0 0a	 imul	 edx, eax, 10
  00118	89 55 e4	 mov	 DWORD PTR _sellmoney$3[ebp], edx
$LN12@GetNeedMon:

; 8460 : 
; 8461 : 		float fRoot = ( float)sqrt( ( double)sellmoney);

  0011b	f2 0f 2a 45 e4	 cvtsi2sd xmm0, DWORD PTR _sellmoney$3[ebp]
  00120	83 ec 08	 sub	 esp, 8
  00123	f2 0f 11 04 24	 movsd	 QWORD PTR [esp], xmm0
  00128	e8 00 00 00 00	 call	 _sqrt
  0012d	83 c4 08	 add	 esp, 8
  00130	d9 5d e0	 fstp	 DWORD PTR _fRoot$2[ebp]

; 8462 : 		float fRootRoot = ( float)sqrt( sqrt( ( double)sellmoney));

  00133	f2 0f 2a 45 e4	 cvtsi2sd xmm0, DWORD PTR _sellmoney$3[ebp]
  00138	83 ec 08	 sub	 esp, 8
  0013b	f2 0f 11 04 24	 movsd	 QWORD PTR [esp], xmm0
  00140	e8 00 00 00 00	 call	 _sqrt
  00145	dd 1c 24	 fstp	 QWORD PTR [esp]
  00148	e8 00 00 00 00	 call	 _sqrt
  0014d	83 c4 08	 add	 esp, 8
  00150	d9 5d dc	 fstp	 DWORD PTR _fRootRoot$1[ebp]

; 8463 : 		RepaireMoney = 3.f * fRoot * fRootRoot;

  00153	f3 0f 10 05 00
	00 00 00	 movss	 xmm0, DWORD PTR __real@40400000
  0015b	f3 0f 59 45 e0	 mulss	 xmm0, DWORD PTR _fRoot$2[ebp]
  00160	f3 0f 59 45 dc	 mulss	 xmm0, DWORD PTR _fRootRoot$1[ebp]
  00165	f3 0f 11 45 ec	 movss	 DWORD PTR _RepaireMoney$5[ebp], xmm0

; 8464 : 
; 8465 : 		RepaireMoney *= persent;

  0016a	f3 0f 10 45 ec	 movss	 xmm0, DWORD PTR _RepaireMoney$5[ebp]
  0016f	f3 0f 59 45 e8	 mulss	 xmm0, DWORD PTR _persent$4[ebp]
  00174	f3 0f 11 45 ec	 movss	 DWORD PTR _RepaireMoney$5[ebp], xmm0

; 8466 :         RepaireMoney++;

  00179	f3 0f 10 45 ec	 movss	 xmm0, DWORD PTR _RepaireMoney$5[ebp]
  0017e	f3 0f 58 05 00
	00 00 00	 addss	 xmm0, DWORD PTR __real@3f800000
  00186	f3 0f 11 45 ec	 movss	 DWORD PTR _RepaireMoney$5[ebp], xmm0

; 8467 : 
; 8468 : 		if( ItemDurability <= 0 )

  0018b	0f 57 c0	 xorps	 xmm0, xmm0
  0018e	0f 2f 45 f4	 comiss	 xmm0, DWORD PTR _ItemDurability$[ebp]
  00192	72 54		 jb	 SHORT $LN15@GetNeedMon

; 8469 : 		{	//    +  
; 8470 : #ifdef DARKLORD_WORK
; 8471 : 			if( type == MAKE_ITEMNUM(13,4) || type == MAKE_ITEMNUM(13,5) )

  00194	6a 04		 push	 4
  00196	6a 0d		 push	 13			; 0000000dH
  00198	e8 00 00 00 00	 call	 ?MakeItemNumber@@YAHHH@Z ; MakeItemNumber
  0019d	83 c4 08	 add	 esp, 8
  001a0	39 45 f8	 cmp	 DWORD PTR _type$[ebp], eax
  001a3	74 11		 je	 SHORT $LN16@GetNeedMon
  001a5	6a 05		 push	 5
  001a7	6a 0d		 push	 13			; 0000000dH
  001a9	e8 00 00 00 00	 call	 ?MakeItemNumber@@YAHHH@Z ; MakeItemNumber
  001ae	83 c4 08	 add	 esp, 8
  001b1	39 45 f8	 cmp	 DWORD PTR _type$[ebp], eax
  001b4	75 14		 jne	 SHORT $LN14@GetNeedMon
$LN16@GetNeedMon:

; 8472 : 			{	// ,     2
; 8473 : 				RepaireMoney *= 2;

  001b6	f3 0f 10 45 ec	 movss	 xmm0, DWORD PTR _RepaireMoney$5[ebp]
  001bb	f3 0f 59 05 00
	00 00 00	 mulss	 xmm0, DWORD PTR __real@40000000
  001c3	f3 0f 11 45 ec	 movss	 DWORD PTR _RepaireMoney$5[ebp], xmm0

; 8474 : 			}

  001c8	eb 1e		 jmp	 SHORT $LN15@GetNeedMon
$LN14@GetNeedMon:

; 8475 : 			else
; 8476 : #endif
; 8477 : 				RepaireMoney *= GetAllRepairItemRate(type);

  001ca	8b 45 f8	 mov	 eax, DWORD PTR _type$[ebp]
  001cd	50		 push	 eax
  001ce	e8 00 00 00 00	 call	 ?GetAllRepairItemRate@@YAMH@Z ; GetAllRepairItemRate
  001d3	83 c4 04	 add	 esp, 4
  001d6	d9 5d 98	 fstp	 DWORD PTR tv223[ebp]
  001d9	f3 0f 10 45 98	 movss	 xmm0, DWORD PTR tv223[ebp]
  001de	f3 0f 59 45 ec	 mulss	 xmm0, DWORD PTR _RepaireMoney$5[ebp]
  001e3	f3 0f 11 45 ec	 movss	 DWORD PTR _RepaireMoney$5[ebp], xmm0
$LN15@GetNeedMon:

; 8478 : 		}
; 8479 : 
; 8480 : 		if( RequestPos == 1 )

  001e8	83 7d 0c 01	 cmp	 DWORD PTR _RequestPos$[ebp], 1
  001ec	75 17		 jne	 SHORT $LN17@GetNeedMon

; 8481 : 		{	//   5%  
; 8482 : 			
; 8483 : #ifdef MODIFY_AUTOREPAIR_CALC_20090608
; 8484 : 			RepaireMoney += RepaireMoney*1.5f;
; 8485 : #else
; 8486 : #ifdef UPDATE_INVEN_REPAIREMONEY_INC_20081112	//  3
; 8487 : 			RepaireMoney += RepaireMoney*2.0f;

  001ee	f3 0f 10 45 ec	 movss	 xmm0, DWORD PTR _RepaireMoney$5[ebp]
  001f3	f3 0f 59 05 00
	00 00 00	 mulss	 xmm0, DWORD PTR __real@40000000
  001fb	f3 0f 58 45 ec	 addss	 xmm0, DWORD PTR _RepaireMoney$5[ebp]
  00200	f3 0f 11 45 ec	 movss	 DWORD PTR _RepaireMoney$5[ebp], xmm0
$LN17@GetNeedMon:

; 8488 : #else	// UPDATE_INVEN_REPAIREMONEY_INC_20081112
; 8489 : 			RepaireMoney += RepaireMoney*0.05f;
; 8490 : #endif	// UPDATE_INVEN_REPAIREMONEY_INC_20081112
; 8491 : #endif //MODIFY_AUTOREPAIR_CALC_20090608
; 8492 : 
; 8493 : #ifdef REPAIR_ITEM_CHANGE	//   100%			
; 8494 : 			if( DurItem->m_Type >= MAKE_ITEMNUM(12,0) && DurItem->m_Type <= MAKE_ITEMNUM(12,6) )
; 8495 : 			{	//   500%
; 8496 : 				RepaireMoney *= 5.f;
; 8497 : 
; 8498 : 			}
; 8499 : 			else
; 8500 : 			{
; 8501 : 				RepaireMoney += RepaireMoney;
; 8502 : 			}
; 8503 : #endif
; 8504 : 		}
; 8505 : #ifdef REPAIR_ITEM_CHANGE
; 8506 : 		else
; 8507 : 		{	
; 8508 : 			if( DurItem->m_Type >= MAKE_ITEMNUM(12,0) && DurItem->m_Type <= MAKE_ITEMNUM(12,6) )
; 8509 : 			{	//   200%
; 8510 : 				RepaireMoney *= 2.f;
; 8511 : 			}
; 8512 : 			else
; 8513 : 			{
; 8514 : 				RepaireMoney -= RepaireMoney*0.4f;
; 8515 : 			}
; 8516 : 		}
; 8517 : #endif
; 8518 : 
; 8519 : 		iMoney = (int)RepaireMoney;

  00205	f3 0f 2c 45 ec	 cvttss2si eax, DWORD PTR _RepaireMoney$5[ebp]
  0020a	89 45 fc	 mov	 DWORD PTR _iMoney$[ebp], eax

; 8520 : 
; 8521 : 		if( iMoney >= 1000 )

  0020d	81 7d fc e8 03
	00 00		 cmp	 DWORD PTR _iMoney$[ebp], 1000 ; 000003e8H
  00214	7c 13		 jl	 SHORT $LN18@GetNeedMon

; 8522 : 		{
; 8523 : 			iMoney = iMoney/100*100;

  00216	8b 45 fc	 mov	 eax, DWORD PTR _iMoney$[ebp]
  00219	99		 cdq
  0021a	b9 64 00 00 00	 mov	 ecx, 100		; 00000064H
  0021f	f7 f9		 idiv	 ecx
  00221	6b d0 64	 imul	 edx, eax, 100
  00224	89 55 fc	 mov	 DWORD PTR _iMoney$[ebp], edx

; 8524 : 		}

  00227	eb 17		 jmp	 SHORT $LN20@GetNeedMon
$LN18@GetNeedMon:

; 8525 : #ifdef	MODIFY_CALREPAIRRATE_20090528
; 8526 : 		else if( iMoney > 100 )
; 8527 : #else
; 8528 : 		else if( iMoney > 10 )

  00229	83 7d fc 0a	 cmp	 DWORD PTR _iMoney$[ebp], 10 ; 0000000aH
  0022d	7e 11		 jle	 SHORT $LN20@GetNeedMon

; 8529 : #endif
; 8530 : 		{
; 8531 : 			iMoney = iMoney/10*10;

  0022f	8b 45 fc	 mov	 eax, DWORD PTR _iMoney$[ebp]
  00232	99		 cdq
  00233	b9 0a 00 00 00	 mov	 ecx, 10			; 0000000aH
  00238	f7 f9		 idiv	 ecx
  0023a	6b d0 0a	 imul	 edx, eax, 10
  0023d	89 55 fc	 mov	 DWORD PTR _iMoney$[ebp], edx
$LN20@GetNeedMon:

; 8532 : 		}
; 8533 : 	}

  00240	eb 07		 jmp	 SHORT $LN4@GetNeedMon
$LN3@GetNeedMon:

; 8534 : 	else
; 8535 : 	{
; 8536 : 		iMoney = -1;

  00242	c7 45 fc ff ff
	ff ff		 mov	 DWORD PTR _iMoney$[ebp], -1
$LN4@GetNeedMon:

; 8537 : 	}	
; 8538 : 	return iMoney;

  00249	8b 45 fc	 mov	 eax, DWORD PTR _iMoney$[ebp]
$LN1@GetNeedMon:

; 8539 : }

  0024c	5f		 pop	 edi
  0024d	5e		 pop	 esi
  0024e	5b		 pop	 ebx
  0024f	8b e5		 mov	 esp, ebp
  00251	5d		 pop	 ebp
  00252	c3		 ret	 0
?GetNeedMoneyItemDurRepaire@@YAHPAVCItem@@H@Z ENDP	; GetNeedMoneyItemDurRepaire
_TEXT	ENDS
; Function compile flags: /Odtp /ZI
; File C:\Mu Online\Mu-GS-Webzen-MC-10093\GameServer\protocol.cpp
;	COMDAT ?CSPJoinIdPassRequestTEST@@YAXPAUPMSG_IDPASS@@H@Z
_TEXT	SEGMENT
_spMsg$ = -76						; size = 44
_lpObj$ = -32						; size = 4
_szPass$ = -28						; size = 11
_szId$ = -16						; size = 11
__$ArrayPad$ = -4					; size = 4
_lpMsg$ = 8						; size = 4
_aIndex$ = 12						; size = 4
?CSPJoinIdPassRequestTEST@@YAXPAUPMSG_IDPASS@@H@Z PROC	; CSPJoinIdPassRequestTEST, COMDAT

; 3203 : {

  00000	55		 push	 ebp
  00001	8b ec		 mov	 ebp, esp
  00003	81 ec 8c 00 00
	00		 sub	 esp, 140		; 0000008cH
  00009	a1 00 00 00 00	 mov	 eax, DWORD PTR ___security_cookie
  0000e	33 c5		 xor	 eax, ebp
  00010	89 45 fc	 mov	 DWORD PTR __$ArrayPad$[ebp], eax
  00013	53		 push	 ebx
  00014	56		 push	 esi
  00015	57		 push	 edi

; 3204 : 	char szId[MAX_IDSTRING+1];
; 3205 : 	char szPass[MAX_IDSTRING+1];
; 3206 : 
; 3207 : 	LPOBJECTSTRUCT	lpObj = &gObj[aIndex];

  00016	69 45 0c a0 1b
	00 00		 imul	 eax, DWORD PTR _aIndex$[ebp], 7072
  0001d	03 05 00 00 00
	00		 add	 eax, DWORD PTR ?gObj@@3PAVOBJECTSTRUCT@@A ; gObj
  00023	89 45 e0	 mov	 DWORD PTR _lpObj$[ebp], eax

; 3208 : 
; 3209 : 	SDHP_IDPASS	spMsg;
; 3210 : 
; 3211 : 	PHeadSetB((LPBYTE)&spMsg, 0x11, sizeof( spMsg ));

  00026	6a 2c		 push	 44			; 0000002cH
  00028	6a 11		 push	 17			; 00000011H
  0002a	8d 45 b4	 lea	 eax, DWORD PTR _spMsg$[ebp]
  0002d	50		 push	 eax
  0002e	e8 00 00 00 00	 call	 ?PHeadSetB@@YAXPAEEH@Z	; PHeadSetB
  00033	83 c4 0c	 add	 esp, 12			; 0000000cH

; 3212 : 
; 3213 : 	spMsg.Number     = aIndex;

  00036	66 8b 45 0c	 mov	 ax, WORD PTR _aIndex$[ebp]
  0003a	66 89 45 cc	 mov	 WORD PTR _spMsg$[ebp+24], ax

; 3214 : 
; 3215 : 	wsprintf(szId, "%d",logincounttest);

  0003e	a1 00 00 00 00	 mov	 eax, DWORD PTR ?logincounttest@@3HA ; logincounttest
  00043	50		 push	 eax
  00044	68 00 00 00 00	 push	 OFFSET ??_C@_08NPLAPO@?$LN?$LI?$LF?$LJ?$MA?L?$CFd@
  00049	8d 4d f0	 lea	 ecx, DWORD PTR _szId$[ebp]
  0004c	51		 push	 ecx
  0004d	ff 15 00 00 00
	00		 call	 DWORD PTR __imp__wsprintfA
  00053	83 c4 0c	 add	 esp, 12			; 0000000cH

; 3216 : 	wsprintf(szPass, "m321");

  00056	68 00 00 00 00	 push	 OFFSET ??_C@_04FLFDNKBN@m321@
  0005b	8d 45 e4	 lea	 eax, DWORD PTR _szPass$[ebp]
  0005e	50		 push	 eax
  0005f	ff 15 00 00 00
	00		 call	 DWORD PTR __imp__wsprintfA
  00065	83 c4 08	 add	 esp, 8

; 3217 : 	
; 3218 : 	LogAdd("login send : %s %s", szId, szPass);

  00068	8d 45 e4	 lea	 eax, DWORD PTR _szPass$[ebp]
  0006b	50		 push	 eax
  0006c	8d 4d f0	 lea	 ecx, DWORD PTR _szId$[ebp]
  0006f	51		 push	 ecx
  00070	68 00 00 00 00	 push	 OFFSET ??_C@_0BD@CNPHLENH@login?5send?5?3?5?$CFs?5?$CFs@
  00075	ff 15 00 00 00
	00		 call	 DWORD PTR ?LogAdd@@3P6AXPADZZA ; LogAdd
  0007b	83 c4 0c	 add	 esp, 12			; 0000000cH

; 3219 : 
; 3220 : 	BuxConvert(szId, MAX_IDSTRING);

  0007e	6a 0a		 push	 10			; 0000000aH
  00080	8d 45 f0	 lea	 eax, DWORD PTR _szId$[ebp]
  00083	50		 push	 eax
  00084	e8 00 00 00 00	 call	 ?BuxConvert@@YAXPADH@Z	; BuxConvert
  00089	83 c4 08	 add	 esp, 8

; 3221 : 	BuxConvert(szPass, MAX_IDSTRING);

  0008c	6a 0a		 push	 10			; 0000000aH
  0008e	8d 45 e4	 lea	 eax, DWORD PTR _szPass$[ebp]
  00091	50		 push	 eax
  00092	e8 00 00 00 00	 call	 ?BuxConvert@@YAXPADH@Z	; BuxConvert
  00097	83 c4 08	 add	 esp, 8

; 3222 : 
; 3223 : 	memcpy(spMsg.Id,   szId,   MAX_IDSTRING);

  0009a	6a 0a		 push	 10			; 0000000aH
  0009c	8d 45 f0	 lea	 eax, DWORD PTR _szId$[ebp]
  0009f	50		 push	 eax
  000a0	8d 4d b7	 lea	 ecx, DWORD PTR _spMsg$[ebp+3]
  000a3	51		 push	 ecx
  000a4	e8 00 00 00 00	 call	 _memcpy
  000a9	83 c4 0c	 add	 esp, 12			; 0000000cH

; 3224 : 	memcpy(spMsg.Pass, szPass, MAX_IDSTRING);

  000ac	6a 0a		 push	 10			; 0000000aH
  000ae	8d 45 e4	 lea	 eax, DWORD PTR _szPass$[ebp]
  000b1	50		 push	 eax
  000b2	8d 4d c1	 lea	 ecx, DWORD PTR _spMsg$[ebp+13]
  000b5	51		 push	 ecx
  000b6	e8 00 00 00 00	 call	 _memcpy
  000bb	83 c4 0c	 add	 esp, 12			; 0000000cH

; 3225 : 	
; 3226 : 	logincounttest++;

  000be	a1 00 00 00 00	 mov	 eax, DWORD PTR ?logincounttest@@3HA ; logincounttest
  000c3	83 c0 01	 add	 eax, 1
  000c6	a3 00 00 00 00	 mov	 DWORD PTR ?logincounttest@@3HA, eax ; logincounttest

; 3227 : 	if( GetTickCount()-ltesttime > 1000 )

  000cb	ff 15 00 00 00
	00		 call	 DWORD PTR __imp__GetTickCount@0
  000d1	2b 05 00 00 00
	00		 sub	 eax, DWORD PTR ?ltesttime@@3HA ; ltesttime
  000d7	3d e8 03 00 00	 cmp	 eax, 1000		; 000003e8H
  000dc	76 15		 jbe	 SHORT $LN2@CSPJoinIdP

; 3228 : 	{
; 3229 : 		ltesttime = GetTickCount();

  000de	ff 15 00 00 00
	00		 call	 DWORD PTR __imp__GetTickCount@0
  000e4	a3 00 00 00 00	 mov	 DWORD PTR ?ltesttime@@3HA, eax ; ltesttime

; 3230 : 		logincounttest = 0;

  000e9	c7 05 00 00 00
	00 00 00 00 00	 mov	 DWORD PTR ?logincounttest@@3HA, 0 ; logincounttest
$LN2@CSPJoinIdP:

; 3231 : 
; 3232 : 	}
; 3233 : 
; 3234 : 	//strcpy(spMsg.IpAddress, gObj[aIndex].sb.Ip_addr);
; 3235 : 	
; 3236 : 	//gObj[aIndex].CheckTick			= lpMsg->TickCount;
; 3237 : 	//gObj[aIndex].CheckTick2			= GetTickCount();
; 3238 : 	//gObj[aIndex].ConnectCheckTime	= GetTickCount();
; 3239 : 	//gObj[aIndex].CheckSpeedHack		= 1;
; 3240 : 	
; 3241 : 	//    .
; 3242 : 	wsJServerCli.DataSend((char*)&spMsg, spMsg.h.size);

  000f3	0f b6 45 b5	 movzx	 eax, BYTE PTR _spMsg$[ebp+1]
  000f7	50		 push	 eax
  000f8	8d 4d b4	 lea	 ecx, DWORD PTR _spMsg$[ebp]
  000fb	51		 push	 ecx
  000fc	b9 00 00 00 00	 mov	 ecx, OFFSET ?wsJServerCli@@3VwsJoinServerCli@@A ; wsJServerCli
  00101	e8 00 00 00 00	 call	 ?DataSend@wsJoinServerCli@@QAEHPADH@Z ; wsJoinServerCli::DataSend

; 3243 : 
; 3244 : 	spMsg.h.headcode = 0x01;

  00106	c6 45 b6 01	 mov	 BYTE PTR _spMsg$[ebp+2], 1

; 3245 : 	wsJServerCli.DataSend((char*)&spMsg, spMsg.h.size);

  0010a	0f b6 45 b5	 movzx	 eax, BYTE PTR _spMsg$[ebp+1]
  0010e	50		 push	 eax
  0010f	8d 4d b4	 lea	 ecx, DWORD PTR _spMsg$[ebp]
  00112	51		 push	 ecx
  00113	b9 00 00 00 00	 mov	 ecx, OFFSET ?wsJServerCli@@3VwsJoinServerCli@@A ; wsJServerCli
  00118	e8 00 00 00 00	 call	 ?DataSend@wsJoinServerCli@@QAEHPADH@Z ; wsJoinServerCli::DataSend

; 3246 : }

  0011d	5f		 pop	 edi
  0011e	5e		 pop	 esi
  0011f	5b		 pop	 ebx
  00120	8b 4d fc	 mov	 ecx, DWORD PTR __$ArrayPad$[ebp]
  00123	33 cd		 xor	 ecx, ebp
  00125	e8 00 00 00 00	 call	 @__security_check_cookie@4
  0012a	8b e5		 mov	 esp, ebp
  0012c	5d		 pop	 ebp
  0012d	c3		 ret	 0
?CSPJoinIdPassRequestTEST@@YAXPAUPMSG_IDPASS@@H@Z ENDP	; CSPJoinIdPassRequestTEST
_TEXT	ENDS
; Function compile flags: /Odtp /ZI
; File C:\Mu Online\Mu-GS-Webzen-MC-10093\GameServer\protocol.cpp
;	COMDAT ?GCServerMsgSend@@YAXEH@Z
_TEXT	SEGMENT
_pMsg$ = -4						; size = 4
_msg$ = 8						; size = 1
_aIndex$ = 12						; size = 4
?GCServerMsgSend@@YAXEH@Z PROC				; GCServerMsgSend, COMDAT

; 2849 : {

  00000	55		 push	 ebp
  00001	8b ec		 mov	 ebp, esp
  00003	83 ec 44	 sub	 esp, 68			; 00000044H
  00006	53		 push	 ebx
  00007	56		 push	 esi
  00008	57		 push	 edi

; 2850 : 	PMSG_SERVERMSG	pMsg;
; 2851 : 
; 2852 : 	PHeadSetB((LPBYTE)&pMsg, 0x0C, sizeof( pMsg ));

  00009	6a 04		 push	 4
  0000b	6a 0c		 push	 12			; 0000000cH
  0000d	8d 45 fc	 lea	 eax, DWORD PTR _pMsg$[ebp]
  00010	50		 push	 eax
  00011	e8 00 00 00 00	 call	 ?PHeadSetB@@YAXPAEEH@Z	; PHeadSetB
  00016	83 c4 0c	 add	 esp, 12			; 0000000cH

; 2853 : 
; 2854 : 	pMsg.MsgNumber	= msg;

  00019	8a 45 08	 mov	 al, BYTE PTR _msg$[ebp]
  0001c	88 45 ff	 mov	 BYTE PTR _pMsg$[ebp+3], al

; 2855 : 	DataSend(aIndex, (LPBYTE)&pMsg, pMsg.h.size);

  0001f	0f b6 45 fd	 movzx	 eax, BYTE PTR _pMsg$[ebp+1]
  00023	50		 push	 eax
  00024	8d 4d fc	 lea	 ecx, DWORD PTR _pMsg$[ebp]
  00027	51		 push	 ecx
  00028	8b 55 0c	 mov	 edx, DWORD PTR _aIndex$[ebp]
  0002b	52		 push	 edx
  0002c	e8 00 00 00 00	 call	 ?DataSend@@YAHHPAEK@Z	; DataSend
  00031	83 c4 0c	 add	 esp, 12			; 0000000cH

; 2856 : }

  00034	5f		 pop	 edi
  00035	5e		 pop	 esi
  00036	5b		 pop	 ebx
  00037	8b e5		 mov	 esp, ebp
  00039	5d		 pop	 ebp
  0003a	c3		 ret	 0
?GCServerMsgSend@@YAXEH@Z ENDP				; GCServerMsgSend
_TEXT	ENDS
; Function compile flags: /Odtp /ZI
; File C:\Mu Online\Mu-GS-Webzen-MC-10093\GameServer\protocol.cpp
;	COMDAT ?EncryptCheckSumKey@@YAGG@Z
_TEXT	SEGMENT
_wAcc$ = -8						; size = 2
_wRandom$ = -4						; size = 2
_wSource$ = 8						; size = 2
?EncryptCheckSumKey@@YAGG@Z PROC			; EncryptCheckSumKey, COMDAT

; 2093 : {

  00000	55		 push	 ebp
  00001	8b ec		 mov	 ebp, esp
  00003	83 ec 48	 sub	 esp, 72			; 00000048H
  00006	53		 push	 ebx
  00007	56		 push	 esi
  00008	57		 push	 edi

; 2094 : 	WORD wRandom = rand() % 0x40;	// 

  00009	e8 00 00 00 00	 call	 _rand
  0000e	25 3f 00 00 80	 and	 eax, -2147483585	; 8000003fH
  00013	79 05		 jns	 SHORT $LN3@EncryptChe
  00015	48		 dec	 eax
  00016	83 c8 c0	 or	 eax, -64		; ffffffc0H
  00019	40		 inc	 eax
$LN3@EncryptChe:
  0001a	66 89 45 fc	 mov	 WORD PTR _wRandom$[ebp], ax

; 2095 : 	WORD wAcc = ( ( wSource & ( 0x3FF - 0xF)) << 6) | ( wRandom << 4) | ( wSource & 0xF);	// 10  6 

  0001e	0f b7 45 08	 movzx	 eax, WORD PTR _wSource$[ebp]
  00022	25 f0 03 00 00	 and	 eax, 1008		; 000003f0H
  00027	c1 e0 06	 shl	 eax, 6
  0002a	0f b7 4d fc	 movzx	 ecx, WORD PTR _wRandom$[ebp]
  0002e	c1 e1 04	 shl	 ecx, 4
  00031	0b c1		 or	 eax, ecx
  00033	0f b7 55 08	 movzx	 edx, WORD PTR _wSource$[ebp]
  00037	83 e2 0f	 and	 edx, 15			; 0000000fH
  0003a	0b c2		 or	 eax, edx
  0003c	66 89 45 f8	 mov	 WORD PTR _wAcc$[ebp], ax

; 2096 : 
; 2097 : 	return ( wAcc ^ 0xB479);

  00040	0f b7 45 f8	 movzx	 eax, WORD PTR _wAcc$[ebp]
  00044	35 79 b4 00 00	 xor	 eax, 46201		; 0000b479H

; 2098 : }

  00049	5f		 pop	 edi
  0004a	5e		 pop	 esi
  0004b	5b		 pop	 ebx
  0004c	8b e5		 mov	 esp, ebp
  0004e	5d		 pop	 ebp
  0004f	c3		 ret	 0
?EncryptCheckSumKey@@YAGG@Z ENDP			; EncryptCheckSumKey
_TEXT	ENDS
; Function compile flags: /Odtp /ZI
; File C:\Mu Online\Mu-GS-Webzen-MC-10093\GameServer\protocol.cpp
;	COMDAT ?TestSend@@YAXXZ
_TEXT	SEGMENT
_size$ = -2012						; size = 4
_pMsg$ = -2008						; size = 2004
__$ArrayPad$ = -4					; size = 4
?TestSend@@YAXXZ PROC					; TestSend, COMDAT

; 1945 : {

  00000	55		 push	 ebp
  00001	8b ec		 mov	 ebp, esp
  00003	81 ec dc 08 00
	00		 sub	 esp, 2268		; 000008dcH
  00009	a1 00 00 00 00	 mov	 eax, DWORD PTR ___security_cookie
  0000e	33 c5		 xor	 eax, ebp
  00010	89 45 fc	 mov	 DWORD PTR __$ArrayPad$[ebp], eax
  00013	53		 push	 ebx
  00014	56		 push	 esi
  00015	57		 push	 edi

; 1946 : 	PMSG_TEST	pMsg;
; 1947 : 	int			size;
; 1948 : 
; 1949 : 	size = sizeof( PMSG_TEST );

  00016	c7 85 24 f8 ff
	ff d4 07 00 00	 mov	 DWORD PTR _size$[ebp], 2004 ; 000007d4H

; 1950 : 	pMsg.h.c			= 0xC2;

  00020	c6 85 28 f8 ff
	ff c2		 mov	 BYTE PTR _pMsg$[ebp], 194 ; 000000c2H

; 1951 : 	pMsg.h.headcode		= 0xFF;

  00027	c6 85 2b f8 ff
	ff ff		 mov	 BYTE PTR _pMsg$[ebp+3], 255 ; 000000ffH

; 1952 : 	pMsg.h.sizeH			= HIBYTE(size);

  0002e	8b 85 24 f8 ff
	ff		 mov	 eax, DWORD PTR _size$[ebp]
  00034	c1 e8 08	 shr	 eax, 8
  00037	25 ff 00 00 00	 and	 eax, 255		; 000000ffH
  0003c	88 85 29 f8 ff
	ff		 mov	 BYTE PTR _pMsg$[ebp+1], al

; 1953 : 	pMsg.h.sizeL			= LOBYTE(size);

  00042	8b 85 24 f8 ff
	ff		 mov	 eax, DWORD PTR _size$[ebp]
  00048	25 ff 00 00 00	 and	 eax, 255		; 000000ffH
  0004d	88 85 2a f8 ff
	ff		 mov	 BYTE PTR _pMsg$[ebp+2], al

; 1954 : 	DataSend(tempindex, (LPBYTE)&pMsg, size);

  00053	8b 85 24 f8 ff
	ff		 mov	 eax, DWORD PTR _size$[ebp]
  00059	50		 push	 eax
  0005a	8d 8d 28 f8 ff
	ff		 lea	 ecx, DWORD PTR _pMsg$[ebp]
  00060	51		 push	 ecx
  00061	8b 15 00 00 00
	00		 mov	 edx, DWORD PTR ?tempindex@@3HA ; tempindex
  00067	52		 push	 edx
  00068	e8 00 00 00 00	 call	 ?DataSend@@YAHHPAEK@Z	; DataSend
  0006d	83 c4 0c	 add	 esp, 12			; 0000000cH

; 1955 : 	DataSend(tempindex, (LPBYTE)&pMsg, size);

  00070	8b 85 24 f8 ff
	ff		 mov	 eax, DWORD PTR _size$[ebp]
  00076	50		 push	 eax
  00077	8d 8d 28 f8 ff
	ff		 lea	 ecx, DWORD PTR _pMsg$[ebp]
  0007d	51		 push	 ecx
  0007e	8b 15 00 00 00
	00		 mov	 edx, DWORD PTR ?tempindex@@3HA ; tempindex
  00084	52		 push	 edx
  00085	e8 00 00 00 00	 call	 ?DataSend@@YAHHPAEK@Z	; DataSend
  0008a	83 c4 0c	 add	 esp, 12			; 0000000cH

; 1956 : 	LogAdd("TEST Data Send");

  0008d	68 00 00 00 00	 push	 OFFSET ??_C@_0P@KNPEEFN@TEST?5Data?5Send@
  00092	ff 15 00 00 00
	00		 call	 DWORD PTR ?LogAdd@@3P6AXPADZZA ; LogAdd
  00098	83 c4 04	 add	 esp, 4

; 1957 : }

  0009b	5f		 pop	 edi
  0009c	5e		 pop	 esi
  0009d	5b		 pop	 ebx
  0009e	8b 4d fc	 mov	 ecx, DWORD PTR __$ArrayPad$[ebp]
  000a1	33 cd		 xor	 ecx, ebp
  000a3	e8 00 00 00 00	 call	 @__security_check_cookie@4
  000a8	8b e5		 mov	 esp, ebp
  000aa	5d		 pop	 ebp
  000ab	c3		 ret	 0
?TestSend@@YAXXZ ENDP					; TestSend
_TEXT	ENDS
; Function compile flags: /Odtp /ZI
; File C:\Mu Online\Mu-GS-Webzen-MC-10093\GameServer\protocol.cpp
;	COMDAT ?DataEncryptCheck@@YAHHEH@Z
_TEXT	SEGMENT
_aIndex$ = 8						; size = 4
_protoNum$ = 12						; size = 1
_Encrypt$ = 16						; size = 4
?DataEncryptCheck@@YAHHEH@Z PROC			; DataEncryptCheck, COMDAT

; 774  : {

  00000	55		 push	 ebp
  00001	8b ec		 mov	 ebp, esp
  00003	83 ec 40	 sub	 esp, 64			; 00000040H
  00006	53		 push	 ebx
  00007	56		 push	 esi
  00008	57		 push	 edi

; 775  : 	if( Encrypt == FALSE )

  00009	83 7d 10 00	 cmp	 DWORD PTR _Encrypt$[ebp], 0
  0000d	75 35		 jne	 SHORT $LN2@DataEncryp

; 776  : 	{
; 777  : 		LogAdd("Error-L1 : Not Encrypt %s %d", gObj[aIndex].AccountID, protoNum);

  0000f	0f b6 45 0c	 movzx	 eax, BYTE PTR _protoNum$[ebp]
  00013	50		 push	 eax
  00014	69 4d 08 a0 1b
	00 00		 imul	 ecx, DWORD PTR _aIndex$[ebp], 7072
  0001b	8b 15 00 00 00
	00		 mov	 edx, DWORD PTR ?gObj@@3PAVOBJECTSTRUCT@@A ; gObj
  00021	8d 44 0a 68	 lea	 eax, DWORD PTR [edx+ecx+104]
  00025	50		 push	 eax
  00026	68 00 00 00 00	 push	 OFFSET ??_C@_0BN@LAHEKONH@Error?9L1?5?3?5Not?5Encrypt?5?$CFs?5?$CFd@
  0002b	ff 15 00 00 00
	00		 call	 DWORD PTR ?LogAdd@@3P6AXPADZZA ; LogAdd
  00031	83 c4 0c	 add	 esp, 12			; 0000000cH

; 778  : 		CloseClient(aIndex);

  00034	8b 45 08	 mov	 eax, DWORD PTR _aIndex$[ebp]
  00037	50		 push	 eax
  00038	e8 00 00 00 00	 call	 ?CloseClient@@YAXH@Z	; CloseClient
  0003d	83 c4 04	 add	 esp, 4

; 779  : 		return FALSE;

  00040	33 c0		 xor	 eax, eax
  00042	eb 05		 jmp	 SHORT $LN1@DataEncryp
$LN2@DataEncryp:

; 780  : 	}
; 781  : 	return TRUE;

  00044	b8 01 00 00 00	 mov	 eax, 1
$LN1@DataEncryp:

; 782  : }

  00049	5f		 pop	 edi
  0004a	5e		 pop	 esi
  0004b	5b		 pop	 ebx
  0004c	8b e5		 mov	 esp, ebp
  0004e	5d		 pop	 ebp
  0004f	c3		 ret	 0
?DataEncryptCheck@@YAHHEH@Z ENDP			; DataEncryptCheck
_TEXT	ENDS
; Function compile flags: /Odtp /ZI
; File C:\Mu Online\Mu-GS-Webzen-MC-10093\GameServer\protocol.cpp
;	COMDAT ?PacketCheckTime@@YAHPAVOBJECTSTRUCT@@@Z
_TEXT	SEGMENT
_lpObj$ = 8						; size = 4
?PacketCheckTime@@YAHPAVOBJECTSTRUCT@@@Z PROC		; PacketCheckTime, COMDAT

; 767  : {

  00000	55		 push	 ebp
  00001	8b ec		 mov	 ebp, esp
  00003	83 ec 40	 sub	 esp, 64			; 00000040H
  00006	53		 push	 ebx
  00007	56		 push	 esi
  00008	57		 push	 edi

; 768  : 	if( GetTickCount()-lpObj->m_PacketCheckTime < 300 ) return FALSE;

  00009	ff 15 00 00 00
	00		 call	 DWORD PTR __imp__GetTickCount@0
  0000f	8b 4d 08	 mov	 ecx, DWORD PTR _lpObj$[ebp]
  00012	2b 81 e8 01 00
	00		 sub	 eax, DWORD PTR [ecx+488]
  00018	3d 2c 01 00 00	 cmp	 eax, 300		; 0000012cH
  0001d	73 04		 jae	 SHORT $LN2@PacketChec
  0001f	33 c0		 xor	 eax, eax
  00021	eb 14		 jmp	 SHORT $LN1@PacketChec
$LN2@PacketChec:

; 769  : 	lpObj->m_PacketCheckTime = GetTickCount();

  00023	ff 15 00 00 00
	00		 call	 DWORD PTR __imp__GetTickCount@0
  00029	8b 4d 08	 mov	 ecx, DWORD PTR _lpObj$[ebp]
  0002c	89 81 e8 01 00
	00		 mov	 DWORD PTR [ecx+488], eax

; 770  : 	return TRUE;

  00032	b8 01 00 00 00	 mov	 eax, 1
$LN1@PacketChec:

; 771  : }

  00037	5f		 pop	 edi
  00038	5e		 pop	 esi
  00039	5b		 pop	 ebx
  0003a	8b e5		 mov	 esp, ebp
  0003c	5d		 pop	 ebp
  0003d	c3		 ret	 0
?PacketCheckTime@@YAHPAVOBJECTSTRUCT@@@Z ENDP		; PacketCheckTime
_TEXT	ENDS
; Function compile flags: /Odtp /ZI
; File C:\Mu Online\Mu-GS-Webzen-MC-10093\GameServer\protocol.cpp
;	COMDAT ?CGCloseWindow@@YAXH@Z
_TEXT	SEGMENT
_aIndex$ = 8						; size = 4
?CGCloseWindow@@YAXH@Z PROC				; CGCloseWindow, COMDAT

; 19542: {

  00000	55		 push	 ebp
  00001	8b ec		 mov	 ebp, esp
  00003	83 ec 40	 sub	 esp, 64			; 00000040H
  00006	53		 push	 ebx
  00007	56		 push	 esi
  00008	57		 push	 edi

; 19543: 	if( gObj[aIndex].m_IfState.use && gObj[aIndex].m_IfState.type != 0 )

  00009	69 45 08 a0 1b
	00 00		 imul	 eax, DWORD PTR _aIndex$[ebp], 7072
  00010	8b 0d 00 00 00
	00		 mov	 ecx, DWORD PTR ?gObj@@3PAVOBJECTSTRUCT@@A ; gObj
  00016	8a 94 01 56 0c
	00 00		 mov	 dl, BYTE PTR [ecx+eax+3158]
  0001d	80 e2 03	 and	 dl, 3
  00020	0f b6 c2	 movzx	 eax, dl
  00023	85 c0		 test	 eax, eax
  00025	0f 84 0a 02 00
	00		 je	 $LN1@CGCloseWin
  0002b	69 45 08 a0 1b
	00 00		 imul	 eax, DWORD PTR _aIndex$[ebp], 7072
  00032	8b 0d 00 00 00
	00		 mov	 ecx, DWORD PTR ?gObj@@3PAVOBJECTSTRUCT@@A ; gObj
  00038	8a 94 01 56 0c
	00 00		 mov	 dl, BYTE PTR [ecx+eax+3158]
  0003f	c0 ea 04	 shr	 dl, 4
  00042	80 e2 0f	 and	 dl, 15			; 0000000fH
  00045	0f b6 c2	 movzx	 eax, dl
  00048	85 c0		 test	 eax, eax
  0004a	0f 84 e5 01 00
	00		 je	 $LN1@CGCloseWin

; 19544: 	{
; 19545: #ifdef CHAOS_BOX_ITEMCOPY_FIX_20041112_FOR_CHS
; 19546: 		if( gObj[aIndex].m_IfState.type == I_CHAOSBOX )	//     

  00050	69 45 08 a0 1b
	00 00		 imul	 eax, DWORD PTR _aIndex$[ebp], 7072
  00057	8b 0d 00 00 00
	00		 mov	 ecx, DWORD PTR ?gObj@@3PAVOBJECTSTRUCT@@A ; gObj
  0005d	8a 94 01 56 0c
	00 00		 mov	 dl, BYTE PTR [ecx+eax+3158]
  00064	c0 ea 04	 shr	 dl, 4
  00067	80 e2 0f	 and	 dl, 15			; 0000000fH
  0006a	0f b6 c2	 movzx	 eax, dl
  0006d	83 f8 07	 cmp	 eax, 7
  00070	75 05		 jne	 SHORT $LN3@CGCloseWin

; 19547: 		{
; 19548: 			return;

  00072	e9 be 01 00 00	 jmp	 $LN1@CGCloseWin
$LN3@CGCloseWin:

; 19549: 		}
; 19550: #endif
; 19551: 
; 19552: #ifdef SECOND_QUEST
; 19553: 		if( gObj[aIndex].m_IfState.type == I_QUEST && gObj[aIndex].TargetShopNumber == NPC_QEUSTNPC2 )

  00077	69 45 08 a0 1b
	00 00		 imul	 eax, DWORD PTR _aIndex$[ebp], 7072
  0007e	8b 0d 00 00 00
	00		 mov	 ecx, DWORD PTR ?gObj@@3PAVOBJECTSTRUCT@@A ; gObj
  00084	8a 94 01 56 0c
	00 00		 mov	 dl, BYTE PTR [ecx+eax+3158]
  0008b	c0 ea 04	 shr	 dl, 4
  0008e	80 e2 0f	 and	 dl, 15			; 0000000fH
  00091	0f b6 c2	 movzx	 eax, dl
  00094	83 f8 0a	 cmp	 eax, 10			; 0000000aH
  00097	75 3f		 jne	 SHORT $LN4@CGCloseWin
  00099	69 45 08 a0 1b
	00 00		 imul	 eax, DWORD PTR _aIndex$[ebp], 7072
  000a0	8b 0d 00 00 00
	00		 mov	 ecx, DWORD PTR ?gObj@@3PAVOBJECTSTRUCT@@A ; gObj
  000a6	0f bf 94 01 ae
	02 00 00	 movsx	 edx, WORD PTR [ecx+eax+686]
  000ae	81 fa e5 00 00
	00		 cmp	 edx, 229		; 000000e5H
  000b4	75 22		 jne	 SHORT $LN4@CGCloseWin

; 19554: 		{	//     NPC 2  NPC		
; 19555: 			gQeustNpcTeleport.TalkRefDel();

  000b6	b9 00 00 00 00	 mov	 ecx, OFFSET ?gQeustNpcTeleport@@3VCQeustNpcTeleport@@A ; gQeustNpcTeleport
  000bb	e8 00 00 00 00	 call	 ?TalkRefDel@CQeustNpcTeleport@@QAEXXZ ; CQeustNpcTeleport::TalkRefDel

; 19556: 			gObj[aIndex].TargetShopNumber = -1;	

  000c0	69 45 08 a0 1b
	00 00		 imul	 eax, DWORD PTR _aIndex$[ebp], 7072
  000c7	83 c9 ff	 or	 ecx, -1
  000ca	8b 15 00 00 00
	00		 mov	 edx, DWORD PTR ?gObj@@3PAVOBJECTSTRUCT@@A ; gObj
  000d0	66 89 8c 02 ae
	02 00 00	 mov	 WORD PTR [edx+eax+686], cx
$LN4@CGCloseWin:

; 19557: 		}
; 19558: #endif
; 19559: 		if( gObj[aIndex].m_IfState.type == I_SHOP )	//  ..

  000d8	69 45 08 a0 1b
	00 00		 imul	 eax, DWORD PTR _aIndex$[ebp], 7072
  000df	8b 0d 00 00 00
	00		 mov	 ecx, DWORD PTR ?gObj@@3PAVOBJECTSTRUCT@@A ; gObj
  000e5	8a 94 01 56 0c
	00 00		 mov	 dl, BYTE PTR [ecx+eax+3158]
  000ec	c0 ea 04	 shr	 dl, 4
  000ef	80 e2 0f	 and	 dl, 15			; 0000000fH
  000f2	0f b6 c2	 movzx	 eax, dl
  000f5	83 f8 03	 cmp	 eax, 3
  000f8	75 18		 jne	 SHORT $LN5@CGCloseWin

; 19560: 		{
; 19561: 			gObj[aIndex].TargetShopNumber = -1;	

  000fa	69 45 08 a0 1b
	00 00		 imul	 eax, DWORD PTR _aIndex$[ebp], 7072
  00101	83 c9 ff	 or	 ecx, -1
  00104	8b 15 00 00 00
	00		 mov	 edx, DWORD PTR ?gObj@@3PAVOBJECTSTRUCT@@A ; gObj
  0010a	66 89 8c 02 ae
	02 00 00	 mov	 WORD PTR [edx+eax+686], cx
$LN5@CGCloseWin:

; 19562: 		}
; 19563: 
; 19564: #ifdef TRADE_BUG_FIX_CLOSE_WINDOWS_20040727		
; 19565: 		if( gObj[aIndex].m_IfState.type == I_TRADE )

  00112	69 45 08 a0 1b
	00 00		 imul	 eax, DWORD PTR _aIndex$[ebp], 7072
  00119	8b 0d 00 00 00
	00		 mov	 ecx, DWORD PTR ?gObj@@3PAVOBJECTSTRUCT@@A ; gObj
  0011f	8a 94 01 56 0c
	00 00		 mov	 dl, BYTE PTR [ecx+eax+3158]
  00126	c0 ea 04	 shr	 dl, 4
  00129	80 e2 0f	 and	 dl, 15			; 0000000fH
  0012c	0f b6 c2	 movzx	 eax, dl
  0012f	83 f8 01	 cmp	 eax, 1
  00132	75 0c		 jne	 SHORT $LN6@CGCloseWin

; 19566: 		{
; 19567: 			CGTradeCancelButtonRecv(aIndex);

  00134	8b 45 08	 mov	 eax, DWORD PTR _aIndex$[ebp]
  00137	50		 push	 eax
  00138	e8 00 00 00 00	 call	 ?CGTradeCancelButtonRecv@@YAXH@Z ; CGTradeCancelButtonRecv
  0013d	83 c4 04	 add	 esp, 4
$LN6@CGCloseWin:

; 19568: 		}
; 19569: 		
; 19570: 		if( gObj[aIndex].m_IfState.type == I_WAREHOUSE )

  00140	69 45 08 a0 1b
	00 00		 imul	 eax, DWORD PTR _aIndex$[ebp], 7072
  00147	8b 0d 00 00 00
	00		 mov	 ecx, DWORD PTR ?gObj@@3PAVOBJECTSTRUCT@@A ; gObj
  0014d	8a 94 01 56 0c
	00 00		 mov	 dl, BYTE PTR [ecx+eax+3158]
  00154	c0 ea 04	 shr	 dl, 4
  00157	80 e2 0f	 and	 dl, 15			; 0000000fH
  0015a	0f b6 c2	 movzx	 eax, dl
  0015d	83 f8 06	 cmp	 eax, 6
  00160	75 0c		 jne	 SHORT $LN7@CGCloseWin

; 19571: 		{
; 19572: 			CGWarehouseUseEnd(aIndex);

  00162	8b 45 08	 mov	 eax, DWORD PTR _aIndex$[ebp]
  00165	50		 push	 eax
  00166	e8 00 00 00 00	 call	 ?CGWarehouseUseEnd@@YAXH@Z ; CGWarehouseUseEnd
  0016b	83 c4 04	 add	 esp, 4
$LN7@CGCloseWin:

; 19573: 		}				
; 19574: #endif
; 19575: 
; 19576: #ifdef DARKLORD_WORK	//  
; 19577: 		if( gObj[aIndex].m_IfState.type == I_DARK_TRAINER )

  0016e	69 45 08 a0 1b
	00 00		 imul	 eax, DWORD PTR _aIndex$[ebp], 7072
  00175	8b 0d 00 00 00
	00		 mov	 ecx, DWORD PTR ?gObj@@3PAVOBJECTSTRUCT@@A ; gObj
  0017b	8a 94 01 56 0c
	00 00		 mov	 dl, BYTE PTR [ecx+eax+3158]
  00182	c0 ea 04	 shr	 dl, 4
  00185	80 e2 0f	 and	 dl, 15			; 0000000fH
  00188	0f b6 c2	 movzx	 eax, dl
  0018b	83 f8 0d	 cmp	 eax, 13			; 0000000dH
  0018e	75 24		 jne	 SHORT $LN8@CGCloseWin

; 19578: 		{
; 19579: 			g_MixSystem.ChaosBoxInit(&gObj[aIndex]);

  00190	69 45 08 a0 1b
	00 00		 imul	 eax, DWORD PTR _aIndex$[ebp], 7072
  00197	03 05 00 00 00
	00		 add	 eax, DWORD PTR ?gObj@@3PAVOBJECTSTRUCT@@A ; gObj
  0019d	50		 push	 eax
  0019e	b9 00 00 00 00	 mov	 ecx, OFFSET ?g_MixSystem@@3VCMixSystem@@A ; g_MixSystem
  001a3	e8 00 00 00 00	 call	 ?ChaosBoxInit@CMixSystem@@QAEHPAVOBJECTSTRUCT@@@Z ; CMixSystem::ChaosBoxInit

; 19580: 			gObjInventoryCommit(aIndex);

  001a8	8b 45 08	 mov	 eax, DWORD PTR _aIndex$[ebp]
  001ab	50		 push	 eax
  001ac	e8 00 00 00 00	 call	 ?gObjInventoryCommit@@YAHH@Z ; gObjInventoryCommit
  001b1	83 c4 04	 add	 esp, 4
$LN8@CGCloseWin:

; 19581: 		}
; 19582: #endif
; 19583: 
; 19584: #ifdef ADD_NEW_WEAPON_FOR_CASTLE_01_20041116	
; 19585: 		if( gObj[aIndex].m_IfState.type == I_CS_MACHINE_ATTACK 
; 19586: 			|| gObj[aIndex].m_IfState.type == I_CS_MACHINE_DEFENSE )
; 19587: 		{
; 19588: 			
; 19589: 		}
; 19590: 
; 19591: #endif
; 19592: 
; 19593: #ifdef MODIFY_PCBANGPOINTSHOP_CLOSEWINDOWS_BUGFIX_20080218
; 19594: 		if( gObj[aIndex].m_IfState.type == I_PCBANG_POINT_SHOP )	//  ..
; 19595: 		{
; 19596: 			gObj[aIndex].TargetShopNumber = -1;	
; 19597: 		}
; 19598: #endif	// MODIFY_PCBANGPOINTSHOP_CLOSEWINDOWS_BUGFIX_20080218
; 19599: 		
; 19600: 		gObj[aIndex].m_IfState.state = 0;	

  001b4	69 45 08 a0 1b
	00 00		 imul	 eax, DWORD PTR _aIndex$[ebp], 7072
  001bb	8b 0d 00 00 00
	00		 mov	 ecx, DWORD PTR ?gObj@@3PAVOBJECTSTRUCT@@A ; gObj
  001c1	8a 94 01 56 0c
	00 00		 mov	 dl, BYTE PTR [ecx+eax+3158]
  001c8	80 e2 f3	 and	 dl, 243			; 000000f3H
  001cb	69 45 08 a0 1b
	00 00		 imul	 eax, DWORD PTR _aIndex$[ebp], 7072
  001d2	8b 0d 00 00 00
	00		 mov	 ecx, DWORD PTR ?gObj@@3PAVOBJECTSTRUCT@@A ; gObj
  001d8	88 94 01 56 0c
	00 00		 mov	 BYTE PTR [ecx+eax+3158], dl

; 19601: 		gObj[aIndex].m_IfState.type = 0;

  001df	69 45 08 a0 1b
	00 00		 imul	 eax, DWORD PTR _aIndex$[ebp], 7072
  001e6	8b 0d 00 00 00
	00		 mov	 ecx, DWORD PTR ?gObj@@3PAVOBJECTSTRUCT@@A ; gObj
  001ec	8a 94 01 56 0c
	00 00		 mov	 dl, BYTE PTR [ecx+eax+3158]
  001f3	80 e2 0f	 and	 dl, 15			; 0000000fH
  001f6	69 45 08 a0 1b
	00 00		 imul	 eax, DWORD PTR _aIndex$[ebp], 7072
  001fd	8b 0d 00 00 00
	00		 mov	 ecx, DWORD PTR ?gObj@@3PAVOBJECTSTRUCT@@A ; gObj
  00203	88 94 01 56 0c
	00 00		 mov	 BYTE PTR [ecx+eax+3158], dl

; 19602: 		gObj[aIndex].m_IfState.use =  0;

  0020a	69 45 08 a0 1b
	00 00		 imul	 eax, DWORD PTR _aIndex$[ebp], 7072
  00211	8b 0d 00 00 00
	00		 mov	 ecx, DWORD PTR ?gObj@@3PAVOBJECTSTRUCT@@A ; gObj
  00217	8a 94 01 56 0c
	00 00		 mov	 dl, BYTE PTR [ecx+eax+3158]
  0021e	80 e2 fc	 and	 dl, 252			; 000000fcH
  00221	69 45 08 a0 1b
	00 00		 imul	 eax, DWORD PTR _aIndex$[ebp], 7072
  00228	8b 0d 00 00 00
	00		 mov	 ecx, DWORD PTR ?gObj@@3PAVOBJECTSTRUCT@@A ; gObj
  0022e	88 94 01 56 0c
	00 00		 mov	 BYTE PTR [ecx+eax+3158], dl
$LN1@CGCloseWin:

; 19603: 
; 19604: #ifdef AUTH_GAMESERVER_CHECKKEY
; 19605: 	if( szAuthKey[7] != AUTH_CHECK_07 )
; 19606: 		DestroyGIocp();
; 19607: #endif
; 19608: 	}
; 19609: }

  00235	5f		 pop	 edi
  00236	5e		 pop	 esi
  00237	5b		 pop	 ebx
  00238	8b e5		 mov	 esp, ebp
  0023a	5d		 pop	 ebp
  0023b	c3		 ret	 0
?CGCloseWindow@@YAXH@Z ENDP				; CGCloseWindow
_TEXT	ENDS
; Function compile flags: /Odtp /ZI
; File C:\Mu Online\Mu-GS-Webzen-MC-10093\GameServer\protocol.cpp
;	COMDAT ?CGRequestPetItemInfo@@YAXPAUPMSG_REQUEST_PET_ITEMINFO@@H@Z
_TEXT	SEGMENT
tv420 = -96						; size = 4
tv403 = -96						; size = 4
tv360 = -96						; size = 4
tv311 = -96						; size = 4
tv287 = -96						; size = 4
tv232 = -96						; size = 4
tv178 = -96						; size = 4
tv132 = -96						; size = 4
tv73 = -96						; size = 4
tv421 = -92						; size = 4
tv404 = -92						; size = 4
tv361 = -92						; size = 4
tv312 = -92						; size = 4
tv288 = -92						; size = 4
tv233 = -92						; size = 4
tv179 = -92						; size = 4
tv133 = -92						; size = 4
tv74 = -92						; size = 4
_iTargetIndex$1 = -24					; size = 4
_pMsg$ = -20						; size = 12
_lpObj$ = -8						; size = 4
__$ArrayPad$ = -4					; size = 4
_lpMsg$ = 8						; size = 4
_aIndex$ = 12						; size = 4
?CGRequestPetItemInfo@@YAXPAUPMSG_REQUEST_PET_ITEMINFO@@H@Z PROC ; CGRequestPetItemInfo, COMDAT

; 22103: {

  00000	55		 push	 ebp
  00001	8b ec		 mov	 ebp, esp
  00003	83 ec 60	 sub	 esp, 96			; 00000060H
  00006	a1 00 00 00 00	 mov	 eax, DWORD PTR ___security_cookie
  0000b	33 c5		 xor	 eax, ebp
  0000d	89 45 fc	 mov	 DWORD PTR __$ArrayPad$[ebp], eax
  00010	53		 push	 ebx
  00011	56		 push	 esi
  00012	57		 push	 edi

; 22104: 	if( gObjIsConnectedGP(aIndex) == FALSE ) 

  00013	8b 45 0c	 mov	 eax, DWORD PTR _aIndex$[ebp]
  00016	50		 push	 eax
  00017	e8 00 00 00 00	 call	 ?gObjIsConnectedGP@@YAHH@Z ; gObjIsConnectedGP
  0001c	83 c4 04	 add	 esp, 4
  0001f	85 c0		 test	 eax, eax
  00021	75 21		 jne	 SHORT $LN2@CGRequestP

; 22105: 	{
; 22106: 		LogAddTD("error-L2 : Index %s %d", __FILE__, __LINE__);

  00023	a1 00 00 00 00	 mov	 eax, DWORD PTR ?__LINE__Var@?0??CGRequestPetItemInfo@@YAXPAUPMSG_REQUEST_PET_ITEMINFO@@H@Z@4JA
  00028	83 c0 03	 add	 eax, 3
  0002b	50		 push	 eax
  0002c	68 00 00 00 00	 push	 OFFSET ??_C@_0DL@MNNGLLFH@C?3?2Mu?5Online?2Mu?9GS?9Webzen?9MC?910@
  00031	68 00 00 00 00	 push	 OFFSET ??_C@_0BH@LCDOHCGD@error?9L2?5?3?5Index?5?$CFs?5?$CFd@
  00036	ff 15 00 00 00
	00		 call	 DWORD PTR ?LogAddTD@@3P6AXPADZZA ; LogAddTD
  0003c	83 c4 0c	 add	 esp, 12			; 0000000cH

; 22107: 		return;

  0003f	e9 ca 07 00 00	 jmp	 $LN1@CGRequestP
$LN2@CGRequestP:

; 22108: 	}
; 22109: 
; 22110: 	if(!CHECK_LIMIT(aIndex, MAX_OBJECT)) 

  00044	83 7d 0c 00	 cmp	 DWORD PTR _aIndex$[ebp], 0
  00048	7d 09		 jge	 SHORT $LN42@CGRequestP
  0004a	c7 45 a4 00 00
	00 00		 mov	 DWORD PTR tv74[ebp], 0
  00051	eb 1f		 jmp	 SHORT $LN43@CGRequestP
$LN42@CGRequestP:
  00053	81 7d 0c e7 1c
	00 00		 cmp	 DWORD PTR _aIndex$[ebp], 7399 ; 00001ce7H
  0005a	7e 09		 jle	 SHORT $LN40@CGRequestP
  0005c	c7 45 a0 00 00
	00 00		 mov	 DWORD PTR tv73[ebp], 0
  00063	eb 07		 jmp	 SHORT $LN41@CGRequestP
$LN40@CGRequestP:
  00065	c7 45 a0 01 00
	00 00		 mov	 DWORD PTR tv73[ebp], 1
$LN41@CGRequestP:
  0006c	8b 45 a0	 mov	 eax, DWORD PTR tv73[ebp]
  0006f	89 45 a4	 mov	 DWORD PTR tv74[ebp], eax
$LN43@CGRequestP:
  00072	83 7d a4 00	 cmp	 DWORD PTR tv74[ebp], 0
  00076	75 05		 jne	 SHORT $LN3@CGRequestP

; 22111: 		return;

  00078	e9 91 07 00 00	 jmp	 $LN1@CGRequestP
$LN3@CGRequestP:

; 22112: 
; 22113: 	LPOBJECTSTRUCT lpObj = &gObj[aIndex];

  0007d	69 45 0c a0 1b
	00 00		 imul	 eax, DWORD PTR _aIndex$[ebp], 7072
  00084	03 05 00 00 00
	00		 add	 eax, DWORD PTR ?gObj@@3PAVOBJECTSTRUCT@@A ; gObj
  0008a	89 45 f8	 mov	 DWORD PTR _lpObj$[ebp], eax

; 22114: 
; 22115: 	if( lpMsg->PetType != 0 && lpMsg->PetType != 1 )

  0008d	8b 45 08	 mov	 eax, DWORD PTR _lpMsg$[ebp]
  00090	0f b6 48 03	 movzx	 ecx, BYTE PTR [eax+3]
  00094	85 c9		 test	 ecx, ecx
  00096	74 11		 je	 SHORT $LN4@CGRequestP
  00098	8b 45 08	 mov	 eax, DWORD PTR _lpMsg$[ebp]
  0009b	0f b6 48 03	 movzx	 ecx, BYTE PTR [eax+3]
  0009f	83 f9 01	 cmp	 ecx, 1
  000a2	74 05		 je	 SHORT $LN4@CGRequestP

; 22116: 		return;	//  

  000a4	e9 65 07 00 00	 jmp	 $LN1@CGRequestP
$LN4@CGRequestP:

; 22117: 
; 22118: 	PMSG_SEND_PET_ITEMINFO pMsg;
; 22119: 	pMsg.h.set((LPBYTE)&pMsg, 0xA9, sizeof(pMsg));

  000a9	6a 0c		 push	 12			; 0000000cH
  000ab	68 a9 00 00 00	 push	 169			; 000000a9H
  000b0	8d 45 ec	 lea	 eax, DWORD PTR _pMsg$[ebp]
  000b3	50		 push	 eax
  000b4	8d 4d ec	 lea	 ecx, DWORD PTR _pMsg$[ebp]
  000b7	e8 00 00 00 00	 call	 ?set@PBMSG_HEAD@@QAEXPAEEE@Z ; PBMSG_HEAD::set

; 22120: 
; 22121: 	pMsg.PetType = lpMsg->PetType;

  000bc	8b 45 08	 mov	 eax, DWORD PTR _lpMsg$[ebp]
  000bf	8a 48 03	 mov	 cl, BYTE PTR [eax+3]
  000c2	88 4d ef	 mov	 BYTE PTR _pMsg$[ebp+3], cl

; 22122: 	pMsg.InvenType = lpMsg->InvenType;

  000c5	8b 45 08	 mov	 eax, DWORD PTR _lpMsg$[ebp]
  000c8	8a 48 04	 mov	 cl, BYTE PTR [eax+4]
  000cb	88 4d f0	 mov	 BYTE PTR _pMsg$[ebp+4], cl

; 22123: 	pMsg.nPos = lpMsg->nPos;

  000ce	8b 45 08	 mov	 eax, DWORD PTR _lpMsg$[ebp]
  000d1	8a 48 05	 mov	 cl, BYTE PTR [eax+5]
  000d4	88 4d f1	 mov	 BYTE PTR _pMsg$[ebp+5], cl

; 22124: 
; 22125: 	if( lpMsg->InvenType == 0 )

  000d7	8b 45 08	 mov	 eax, DWORD PTR _lpMsg$[ebp]
  000da	0f b6 48 04	 movzx	 ecx, BYTE PTR [eax+4]
  000de	85 c9		 test	 ecx, ecx
  000e0	0f 85 db 00 00
	00		 jne	 $LN5@CGRequestP

; 22126: 	{	// 
; 22127: 		
; 22128: #ifdef PERSONAL_SHOP_20040113		
; 22129: 		if(!CHECK_LIMIT(lpMsg->nPos, MAX_INVENTORY_EXTEND)) 

  000e6	8b 45 08	 mov	 eax, DWORD PTR _lpMsg$[ebp]
  000e9	0f b6 48 05	 movzx	 ecx, BYTE PTR [eax+5]
  000ed	85 c9		 test	 ecx, ecx
  000ef	7d 09		 jge	 SHORT $LN46@CGRequestP
  000f1	c7 45 a4 00 00
	00 00		 mov	 DWORD PTR tv133[ebp], 0
  000f8	eb 22		 jmp	 SHORT $LN47@CGRequestP
$LN46@CGRequestP:
  000fa	8b 55 08	 mov	 edx, DWORD PTR _lpMsg$[ebp]
  000fd	0f b6 42 05	 movzx	 eax, BYTE PTR [edx+5]
  00101	83 f8 6b	 cmp	 eax, 107		; 0000006bH
  00104	7e 09		 jle	 SHORT $LN44@CGRequestP
  00106	c7 45 a0 00 00
	00 00		 mov	 DWORD PTR tv132[ebp], 0
  0010d	eb 07		 jmp	 SHORT $LN45@CGRequestP
$LN44@CGRequestP:
  0010f	c7 45 a0 01 00
	00 00		 mov	 DWORD PTR tv132[ebp], 1
$LN45@CGRequestP:
  00116	8b 4d a0	 mov	 ecx, DWORD PTR tv132[ebp]
  00119	89 4d a4	 mov	 DWORD PTR tv133[ebp], ecx
$LN47@CGRequestP:
  0011c	83 7d a4 00	 cmp	 DWORD PTR tv133[ebp], 0
  00120	75 29		 jne	 SHORT $LN7@CGRequestP

; 22130: #else
; 22131: 		if(!CHECK_LIMIT(lpMsg->nPos, MAX_INVENTORY)) 
; 22132: #endif
; 22133: 		{
; 22134: 			LogAddTD("[PetItem] [%s][%s] RequestPetItem Invalid Iventory nPos %d", 

  00122	8b 45 08	 mov	 eax, DWORD PTR _lpMsg$[ebp]
  00125	0f b6 48 05	 movzx	 ecx, BYTE PTR [eax+5]
  00129	51		 push	 ecx
  0012a	8b 55 f8	 mov	 edx, DWORD PTR _lpObj$[ebp]
  0012d	83 c2 73	 add	 edx, 115		; 00000073H
  00130	52		 push	 edx
  00131	8b 45 f8	 mov	 eax, DWORD PTR _lpObj$[ebp]
  00134	83 c0 68	 add	 eax, 104		; 00000068H
  00137	50		 push	 eax
  00138	68 00 00 00 00	 push	 OFFSET ??_C@_0DL@GJNDCDLC@?$FLPetItem?$FN?5?$FL?$CFs?$FN?$FL?$CFs?$FN?5RequestPetIt@
  0013d	ff 15 00 00 00
	00		 call	 DWORD PTR ?LogAddTD@@3P6AXPADZZA ; LogAddTD
  00143	83 c4 10	 add	 esp, 16			; 00000010H

; 22135: 					 lpObj->AccountID, lpObj->Name, lpMsg->nPos);
; 22136: 			return;

  00146	e9 c3 06 00 00	 jmp	 $LN1@CGRequestP
$LN7@CGRequestP:

; 22137: 		}
; 22138: 
; 22139: 		if( lpObj->pInventory[lpMsg->nPos].IsItem() )

  0014b	8b 45 08	 mov	 eax, DWORD PTR _lpMsg$[ebp]
  0014e	0f b6 48 05	 movzx	 ecx, BYTE PTR [eax+5]
  00152	69 c9 a8 00 00
	00		 imul	 ecx, ecx, 168
  00158	8b 55 f8	 mov	 edx, DWORD PTR _lpObj$[ebp]
  0015b	03 8a 5c 0c 00
	00		 add	 ecx, DWORD PTR [edx+3164]
  00161	e8 00 00 00 00	 call	 ?IsItem@CItem@@QAEHXZ	; CItem::IsItem
  00166	85 c0		 test	 eax, eax
  00168	74 52		 je	 SHORT $LN8@CGRequestP

; 22140: 		{
; 22141: 			pMsg.Exp = lpObj->pInventory[lpMsg->nPos].m_PetItem_Exp;

  0016a	8b 45 08	 mov	 eax, DWORD PTR _lpMsg$[ebp]
  0016d	0f b6 48 05	 movzx	 ecx, BYTE PTR [eax+5]
  00171	69 d1 a8 00 00
	00		 imul	 edx, ecx, 168
  00177	8b 45 f8	 mov	 eax, DWORD PTR _lpObj$[ebp]
  0017a	8b 88 5c 0c 00
	00		 mov	 ecx, DWORD PTR [eax+3164]
  00180	8b 94 11 a4 00
	00 00		 mov	 edx, DWORD PTR [ecx+edx+164]
  00187	89 55 f4	 mov	 DWORD PTR _pMsg$[ebp+8], edx

; 22142: 			pMsg.Level = lpObj->pInventory[lpMsg->nPos].m_PetItem_Level;

  0018a	8b 45 08	 mov	 eax, DWORD PTR _lpMsg$[ebp]
  0018d	0f b6 48 05	 movzx	 ecx, BYTE PTR [eax+5]
  00191	69 d1 a8 00 00
	00		 imul	 edx, ecx, 168
  00197	8b 45 f8	 mov	 eax, DWORD PTR _lpObj$[ebp]
  0019a	8b 88 5c 0c 00
	00		 mov	 ecx, DWORD PTR [eax+3164]
  001a0	8a 94 11 a0 00
	00 00		 mov	 dl, BYTE PTR [ecx+edx+160]
  001a7	88 55 f2	 mov	 BYTE PTR _pMsg$[ebp+6], dl

; 22143: 			
; 22144: #ifdef MODIFY_DARKLORD_SEND_INFO_PROTOCOL_EXTEND_20080626
; 22145: 			pMsg.Life = (BYTE)(lpObj->pInventory[lpMsg->nPos].m_Durability);
; 22146: #endif // MODIFY_DARKLORD_SEND_INFO_PROTOCOL_EXTEND_20080626
; 22147: 
; 22148: 			DataSend(aIndex, (LPBYTE)&pMsg, sizeof(pMsg));

  001aa	6a 0c		 push	 12			; 0000000cH
  001ac	8d 45 ec	 lea	 eax, DWORD PTR _pMsg$[ebp]
  001af	50		 push	 eax
  001b0	8b 4d 0c	 mov	 ecx, DWORD PTR _aIndex$[ebp]
  001b3	51		 push	 ecx
  001b4	e8 00 00 00 00	 call	 ?DataSend@@YAHHPAEK@Z	; DataSend
  001b9	83 c4 0c	 add	 esp, 12			; 0000000cH
$LN8@CGRequestP:

; 22149: 		}
; 22150: 	}

  001bc	e9 4d 06 00 00	 jmp	 $LN1@CGRequestP
$LN5@CGRequestP:

; 22151: 	else if( lpMsg->InvenType == 1 )

  001c1	8b 45 08	 mov	 eax, DWORD PTR _lpMsg$[ebp]
  001c4	0f b6 48 04	 movzx	 ecx, BYTE PTR [eax+4]
  001c8	83 f9 01	 cmp	 ecx, 1
  001cb	0f 85 ed 00 00
	00		 jne	 $LN9@CGRequestP

; 22152: 	{	// 
; 22153: 		if( lpObj->LoadWareHouseInfo )

  001d1	8b 45 f8	 mov	 eax, DWORD PTR _lpObj$[ebp]
  001d4	0f b6 88 88 0e
	00 00		 movzx	 ecx, BYTE PTR [eax+3720]
  001db	85 c9		 test	 ecx, ecx
  001dd	0f 84 d6 00 00
	00		 je	 $LN11@CGRequestP

; 22154: 		{
; 22155: 			if(!CHECK_LIMIT(lpMsg->nPos, MAX_WAREHOUSEITEMS)) 

  001e3	8b 45 08	 mov	 eax, DWORD PTR _lpMsg$[ebp]
  001e6	0f b6 48 05	 movzx	 ecx, BYTE PTR [eax+5]
  001ea	85 c9		 test	 ecx, ecx
  001ec	7d 09		 jge	 SHORT $LN50@CGRequestP
  001ee	c7 45 a4 00 00
	00 00		 mov	 DWORD PTR tv179[ebp], 0
  001f5	eb 22		 jmp	 SHORT $LN51@CGRequestP
$LN50@CGRequestP:
  001f7	8b 55 08	 mov	 edx, DWORD PTR _lpMsg$[ebp]
  001fa	0f b6 42 05	 movzx	 eax, BYTE PTR [edx+5]
  001fe	83 f8 77	 cmp	 eax, 119		; 00000077H
  00201	7e 09		 jle	 SHORT $LN48@CGRequestP
  00203	c7 45 a0 00 00
	00 00		 mov	 DWORD PTR tv178[ebp], 0
  0020a	eb 07		 jmp	 SHORT $LN49@CGRequestP
$LN48@CGRequestP:
  0020c	c7 45 a0 01 00
	00 00		 mov	 DWORD PTR tv178[ebp], 1
$LN49@CGRequestP:
  00213	8b 4d a0	 mov	 ecx, DWORD PTR tv178[ebp]
  00216	89 4d a4	 mov	 DWORD PTR tv179[ebp], ecx
$LN51@CGRequestP:
  00219	83 7d a4 00	 cmp	 DWORD PTR tv179[ebp], 0
  0021d	75 29		 jne	 SHORT $LN12@CGRequestP

; 22156: 			{
; 22157: 				LogAddTD("[PetItem] [%s][%s] RequestPetItem Invalid WareHouse nPos %d", 

  0021f	8b 45 08	 mov	 eax, DWORD PTR _lpMsg$[ebp]
  00222	0f b6 48 05	 movzx	 ecx, BYTE PTR [eax+5]
  00226	51		 push	 ecx
  00227	8b 55 f8	 mov	 edx, DWORD PTR _lpObj$[ebp]
  0022a	83 c2 73	 add	 edx, 115		; 00000073H
  0022d	52		 push	 edx
  0022e	8b 45 f8	 mov	 eax, DWORD PTR _lpObj$[ebp]
  00231	83 c0 68	 add	 eax, 104		; 00000068H
  00234	50		 push	 eax
  00235	68 00 00 00 00	 push	 OFFSET ??_C@_0DM@BLGKOALL@?$FLPetItem?$FN?5?$FL?$CFs?$FN?$FL?$CFs?$FN?5RequestPetIt@
  0023a	ff 15 00 00 00
	00		 call	 DWORD PTR ?LogAddTD@@3P6AXPADZZA ; LogAddTD
  00240	83 c4 10	 add	 esp, 16			; 00000010H

; 22158: 						 lpObj->AccountID, lpObj->Name, lpMsg->nPos);
; 22159: 				return;

  00243	e9 c6 05 00 00	 jmp	 $LN1@CGRequestP
$LN12@CGRequestP:

; 22160: 			}
; 22161: 
; 22162: 			if( lpObj->pWarehouse[lpMsg->nPos].IsItem() )

  00248	8b 45 08	 mov	 eax, DWORD PTR _lpMsg$[ebp]
  0024b	0f b6 48 05	 movzx	 ecx, BYTE PTR [eax+5]
  0024f	69 c9 a8 00 00
	00		 imul	 ecx, ecx, 168
  00255	8b 55 f8	 mov	 edx, DWORD PTR _lpObj$[ebp]
  00258	03 8a 94 0c 00
	00		 add	 ecx, DWORD PTR [edx+3220]
  0025e	e8 00 00 00 00	 call	 ?IsItem@CItem@@QAEHXZ	; CItem::IsItem
  00263	85 c0		 test	 eax, eax
  00265	74 52		 je	 SHORT $LN11@CGRequestP

; 22163: 			{
; 22164: 				pMsg.Exp = lpObj->pWarehouse[lpMsg->nPos].m_PetItem_Exp;

  00267	8b 45 08	 mov	 eax, DWORD PTR _lpMsg$[ebp]
  0026a	0f b6 48 05	 movzx	 ecx, BYTE PTR [eax+5]
  0026e	69 d1 a8 00 00
	00		 imul	 edx, ecx, 168
  00274	8b 45 f8	 mov	 eax, DWORD PTR _lpObj$[ebp]
  00277	8b 88 94 0c 00
	00		 mov	 ecx, DWORD PTR [eax+3220]
  0027d	8b 94 11 a4 00
	00 00		 mov	 edx, DWORD PTR [ecx+edx+164]
  00284	89 55 f4	 mov	 DWORD PTR _pMsg$[ebp+8], edx

; 22165: 				pMsg.Level = lpObj->pWarehouse[lpMsg->nPos].m_PetItem_Level;

  00287	8b 45 08	 mov	 eax, DWORD PTR _lpMsg$[ebp]
  0028a	0f b6 48 05	 movzx	 ecx, BYTE PTR [eax+5]
  0028e	69 d1 a8 00 00
	00		 imul	 edx, ecx, 168
  00294	8b 45 f8	 mov	 eax, DWORD PTR _lpObj$[ebp]
  00297	8b 88 94 0c 00
	00		 mov	 ecx, DWORD PTR [eax+3220]
  0029d	8a 94 11 a0 00
	00 00		 mov	 dl, BYTE PTR [ecx+edx+160]
  002a4	88 55 f2	 mov	 BYTE PTR _pMsg$[ebp+6], dl

; 22166: 
; 22167: #ifdef MODIFY_DARKLORD_SEND_INFO_PROTOCOL_EXTEND_20080626
; 22168: 				pMsg.Life = (BYTE)(lpObj->pWarehouse[lpMsg->nPos].m_Durability);
; 22169: #endif // MODIFY_DARKLORD_SEND_INFO_PROTOCOL_EXTEND_20080626
; 22170: 
; 22171: 				DataSend(aIndex, (LPBYTE)&pMsg, sizeof(pMsg));

  002a7	6a 0c		 push	 12			; 0000000cH
  002a9	8d 45 ec	 lea	 eax, DWORD PTR _pMsg$[ebp]
  002ac	50		 push	 eax
  002ad	8b 4d 0c	 mov	 ecx, DWORD PTR _aIndex$[ebp]
  002b0	51		 push	 ecx
  002b1	e8 00 00 00 00	 call	 ?DataSend@@YAHHPAEK@Z	; DataSend
  002b6	83 c4 0c	 add	 esp, 12			; 0000000cH
$LN11@CGRequestP:

; 22172: 			}
; 22173: 		}
; 22174: 	}

  002b9	e9 50 05 00 00	 jmp	 $LN1@CGRequestP
$LN9@CGRequestP:

; 22175: 	else if( lpMsg->InvenType == 2 )

  002be	8b 45 08	 mov	 eax, DWORD PTR _lpMsg$[ebp]
  002c1	0f b6 48 04	 movzx	 ecx, BYTE PTR [eax+4]
  002c5	83 f9 02	 cmp	 ecx, 2
  002c8	0f 85 0b 01 00
	00		 jne	 $LN14@CGRequestP

; 22176: 	{	// 
; 22177: 		if( lpObj->m_IfState.use < 1 || lpObj->m_IfState.type != I_TRADE ) 

  002ce	8b 45 f8	 mov	 eax, DWORD PTR _lpObj$[ebp]
  002d1	8a 88 56 0c 00
	00		 mov	 cl, BYTE PTR [eax+3158]
  002d7	80 e1 03	 and	 cl, 3
  002da	0f b6 d1	 movzx	 edx, cl
  002dd	83 fa 01	 cmp	 edx, 1
  002e0	7c 17		 jl	 SHORT $LN17@CGRequestP
  002e2	8b 45 f8	 mov	 eax, DWORD PTR _lpObj$[ebp]
  002e5	8a 88 56 0c 00
	00		 mov	 cl, BYTE PTR [eax+3158]
  002eb	c0 e9 04	 shr	 cl, 4
  002ee	80 e1 0f	 and	 cl, 15			; 0000000fH
  002f1	0f b6 d1	 movzx	 edx, cl
  002f4	83 fa 01	 cmp	 edx, 1
  002f7	74 05		 je	 SHORT $LN16@CGRequestP
$LN17@CGRequestP:

; 22178: 		{
; 22179: 			return;

  002f9	e9 10 05 00 00	 jmp	 $LN1@CGRequestP
$LN16@CGRequestP:

; 22180: 		}
; 22181: 		if(!CHECK_LIMIT(lpMsg->nPos, MAX_TRADEITEM)) 

  002fe	8b 45 08	 mov	 eax, DWORD PTR _lpMsg$[ebp]
  00301	0f b6 48 05	 movzx	 ecx, BYTE PTR [eax+5]
  00305	85 c9		 test	 ecx, ecx
  00307	7d 09		 jge	 SHORT $LN54@CGRequestP
  00309	c7 45 a4 00 00
	00 00		 mov	 DWORD PTR tv233[ebp], 0
  00310	eb 22		 jmp	 SHORT $LN55@CGRequestP
$LN54@CGRequestP:
  00312	8b 55 08	 mov	 edx, DWORD PTR _lpMsg$[ebp]
  00315	0f b6 42 05	 movzx	 eax, BYTE PTR [edx+5]
  00319	83 f8 1f	 cmp	 eax, 31			; 0000001fH
  0031c	7e 09		 jle	 SHORT $LN52@CGRequestP
  0031e	c7 45 a0 00 00
	00 00		 mov	 DWORD PTR tv232[ebp], 0
  00325	eb 07		 jmp	 SHORT $LN53@CGRequestP
$LN52@CGRequestP:
  00327	c7 45 a0 01 00
	00 00		 mov	 DWORD PTR tv232[ebp], 1
$LN53@CGRequestP:
  0032e	8b 4d a0	 mov	 ecx, DWORD PTR tv232[ebp]
  00331	89 4d a4	 mov	 DWORD PTR tv233[ebp], ecx
$LN55@CGRequestP:
  00334	83 7d a4 00	 cmp	 DWORD PTR tv233[ebp], 0
  00338	75 29		 jne	 SHORT $LN18@CGRequestP

; 22182: 		{
; 22183: 			LogAddTD("[PetItem] [%s][%s] RequestPetItem Invalid Trade nPos %d", 

  0033a	8b 45 08	 mov	 eax, DWORD PTR _lpMsg$[ebp]
  0033d	0f b6 48 05	 movzx	 ecx, BYTE PTR [eax+5]
  00341	51		 push	 ecx
  00342	8b 55 f8	 mov	 edx, DWORD PTR _lpObj$[ebp]
  00345	83 c2 73	 add	 edx, 115		; 00000073H
  00348	52		 push	 edx
  00349	8b 45 f8	 mov	 eax, DWORD PTR _lpObj$[ebp]
  0034c	83 c0 68	 add	 eax, 104		; 00000068H
  0034f	50		 push	 eax
  00350	68 00 00 00 00	 push	 OFFSET ??_C@_0DI@LFOOFHNO@?$FLPetItem?$FN?5?$FL?$CFs?$FN?$FL?$CFs?$FN?5RequestPetIt@
  00355	ff 15 00 00 00
	00		 call	 DWORD PTR ?LogAddTD@@3P6AXPADZZA ; LogAddTD
  0035b	83 c4 10	 add	 esp, 16			; 00000010H

; 22184: 					 lpObj->AccountID, lpObj->Name, lpMsg->nPos);
; 22185: 			return;

  0035e	e9 ab 04 00 00	 jmp	 $LN1@CGRequestP
$LN18@CGRequestP:

; 22186: 		}
; 22187: 
; 22188: 		if( lpObj->Trade[lpMsg->nPos].IsItem() )

  00363	8b 45 08	 mov	 eax, DWORD PTR _lpMsg$[ebp]
  00366	0f b6 48 05	 movzx	 ecx, BYTE PTR [eax+5]
  0036a	69 c9 a8 00 00
	00		 imul	 ecx, ecx, 168
  00370	8b 55 f8	 mov	 edx, DWORD PTR _lpObj$[ebp]
  00373	03 8a 84 0c 00
	00		 add	 ecx, DWORD PTR [edx+3204]
  00379	e8 00 00 00 00	 call	 ?IsItem@CItem@@QAEHXZ	; CItem::IsItem
  0037e	85 c0		 test	 eax, eax
  00380	74 52		 je	 SHORT $LN19@CGRequestP

; 22189: 		{
; 22190: 			pMsg.Exp = lpObj->Trade[lpMsg->nPos].m_PetItem_Exp;

  00382	8b 45 08	 mov	 eax, DWORD PTR _lpMsg$[ebp]
  00385	0f b6 48 05	 movzx	 ecx, BYTE PTR [eax+5]
  00389	69 d1 a8 00 00
	00		 imul	 edx, ecx, 168
  0038f	8b 45 f8	 mov	 eax, DWORD PTR _lpObj$[ebp]
  00392	8b 88 84 0c 00
	00		 mov	 ecx, DWORD PTR [eax+3204]
  00398	8b 94 11 a4 00
	00 00		 mov	 edx, DWORD PTR [ecx+edx+164]
  0039f	89 55 f4	 mov	 DWORD PTR _pMsg$[ebp+8], edx

; 22191: 			pMsg.Level = lpObj->Trade[lpMsg->nPos].m_PetItem_Level;

  003a2	8b 45 08	 mov	 eax, DWORD PTR _lpMsg$[ebp]
  003a5	0f b6 48 05	 movzx	 ecx, BYTE PTR [eax+5]
  003a9	69 d1 a8 00 00
	00		 imul	 edx, ecx, 168
  003af	8b 45 f8	 mov	 eax, DWORD PTR _lpObj$[ebp]
  003b2	8b 88 84 0c 00
	00		 mov	 ecx, DWORD PTR [eax+3204]
  003b8	8a 94 11 a0 00
	00 00		 mov	 dl, BYTE PTR [ecx+edx+160]
  003bf	88 55 f2	 mov	 BYTE PTR _pMsg$[ebp+6], dl

; 22192: 
; 22193: #ifdef MODIFY_DARKLORD_SEND_INFO_PROTOCOL_EXTEND_20080626
; 22194: 			pMsg.Life = (BYTE)(lpObj->Trade[lpMsg->nPos].m_Durability);
; 22195: #endif // MODIFY_DARKLORD_SEND_INFO_PROTOCOL_EXTEND_20080626
; 22196: 
; 22197: 			DataSend(aIndex, (LPBYTE)&pMsg, sizeof(pMsg));

  003c2	6a 0c		 push	 12			; 0000000cH
  003c4	8d 45 ec	 lea	 eax, DWORD PTR _pMsg$[ebp]
  003c7	50		 push	 eax
  003c8	8b 4d 0c	 mov	 ecx, DWORD PTR _aIndex$[ebp]
  003cb	51		 push	 ecx
  003cc	e8 00 00 00 00	 call	 ?DataSend@@YAHHPAEK@Z	; DataSend
  003d1	83 c4 0c	 add	 esp, 12			; 0000000cH
$LN19@CGRequestP:

; 22198: 		}
; 22199: 	}

  003d4	e9 35 04 00 00	 jmp	 $LN1@CGRequestP
$LN14@CGRequestP:

; 22200: 	else if( lpMsg->InvenType == 3 )

  003d9	8b 45 08	 mov	 eax, DWORD PTR _lpMsg$[ebp]
  003dc	0f b6 48 04	 movzx	 ecx, BYTE PTR [eax+4]
  003e0	83 f9 03	 cmp	 ecx, 3
  003e3	0f 85 ce 01 00
	00		 jne	 $LN20@CGRequestP

; 22201: 	{	// 
; 22202: 		if( lpObj->m_IfState.use < 1 || lpObj->m_IfState.type != I_TRADE ) 

  003e9	8b 45 f8	 mov	 eax, DWORD PTR _lpObj$[ebp]
  003ec	8a 88 56 0c 00
	00		 mov	 cl, BYTE PTR [eax+3158]
  003f2	80 e1 03	 and	 cl, 3
  003f5	0f b6 d1	 movzx	 edx, cl
  003f8	83 fa 01	 cmp	 edx, 1
  003fb	7c 17		 jl	 SHORT $LN23@CGRequestP
  003fd	8b 45 f8	 mov	 eax, DWORD PTR _lpObj$[ebp]
  00400	8a 88 56 0c 00
	00		 mov	 cl, BYTE PTR [eax+3158]
  00406	c0 e9 04	 shr	 cl, 4
  00409	80 e1 0f	 and	 cl, 15			; 0000000fH
  0040c	0f b6 d1	 movzx	 edx, cl
  0040f	83 fa 01	 cmp	 edx, 1
  00412	74 05		 je	 SHORT $LN22@CGRequestP
$LN23@CGRequestP:

; 22203: 		{
; 22204: 			return;

  00414	e9 f5 03 00 00	 jmp	 $LN1@CGRequestP
$LN22@CGRequestP:

; 22205: 		}
; 22206: 
; 22207: 		int iTargetIndex = gObj[aIndex].TargetNumber;

  00419	69 45 0c a0 1b
	00 00		 imul	 eax, DWORD PTR _aIndex$[ebp], 7072
  00420	8b 0d 00 00 00
	00		 mov	 ecx, DWORD PTR ?gObj@@3PAVOBJECTSTRUCT@@A ; gObj
  00426	0f bf 94 01 ac
	02 00 00	 movsx	 edx, WORD PTR [ecx+eax+684]
  0042e	89 55 e8	 mov	 DWORD PTR _iTargetIndex$1[ebp], edx

; 22208: 		if( iTargetIndex < 0 )

  00431	83 7d e8 00	 cmp	 DWORD PTR _iTargetIndex$1[ebp], 0
  00435	7d 05		 jge	 SHORT $LN24@CGRequestP

; 22209: 		{
; 22210: 			return;

  00437	e9 d2 03 00 00	 jmp	 $LN1@CGRequestP
$LN24@CGRequestP:

; 22211: 		}
; 22212: 
; 22213: 		if(!CHECK_LIMIT(iTargetIndex, MAX_OBJECT)) 

  0043c	83 7d e8 00	 cmp	 DWORD PTR _iTargetIndex$1[ebp], 0
  00440	7d 09		 jge	 SHORT $LN58@CGRequestP
  00442	c7 45 a4 00 00
	00 00		 mov	 DWORD PTR tv288[ebp], 0
  00449	eb 1f		 jmp	 SHORT $LN59@CGRequestP
$LN58@CGRequestP:
  0044b	81 7d e8 e7 1c
	00 00		 cmp	 DWORD PTR _iTargetIndex$1[ebp], 7399 ; 00001ce7H
  00452	7e 09		 jle	 SHORT $LN56@CGRequestP
  00454	c7 45 a0 00 00
	00 00		 mov	 DWORD PTR tv287[ebp], 0
  0045b	eb 07		 jmp	 SHORT $LN57@CGRequestP
$LN56@CGRequestP:
  0045d	c7 45 a0 01 00
	00 00		 mov	 DWORD PTR tv287[ebp], 1
$LN57@CGRequestP:
  00464	8b 45 a0	 mov	 eax, DWORD PTR tv287[ebp]
  00467	89 45 a4	 mov	 DWORD PTR tv288[ebp], eax
$LN59@CGRequestP:
  0046a	83 7d a4 00	 cmp	 DWORD PTR tv288[ebp], 0
  0046e	75 05		 jne	 SHORT $LN25@CGRequestP

; 22214: 		{
; 22215: 			return;

  00470	e9 99 03 00 00	 jmp	 $LN1@CGRequestP
$LN25@CGRequestP:

; 22216: 		}
; 22217: 
; 22218: 		if( gObj[iTargetIndex].m_IfState.use < 1 || gObj[iTargetIndex].m_IfState.type != I_TRADE ) 

  00475	69 45 e8 a0 1b
	00 00		 imul	 eax, DWORD PTR _iTargetIndex$1[ebp], 7072
  0047c	8b 0d 00 00 00
	00		 mov	 ecx, DWORD PTR ?gObj@@3PAVOBJECTSTRUCT@@A ; gObj
  00482	8a 94 01 56 0c
	00 00		 mov	 dl, BYTE PTR [ecx+eax+3158]
  00489	80 e2 03	 and	 dl, 3
  0048c	0f b6 c2	 movzx	 eax, dl
  0048f	83 f8 01	 cmp	 eax, 1
  00492	7c 22		 jl	 SHORT $LN27@CGRequestP
  00494	69 45 e8 a0 1b
	00 00		 imul	 eax, DWORD PTR _iTargetIndex$1[ebp], 7072
  0049b	8b 0d 00 00 00
	00		 mov	 ecx, DWORD PTR ?gObj@@3PAVOBJECTSTRUCT@@A ; gObj
  004a1	8a 94 01 56 0c
	00 00		 mov	 dl, BYTE PTR [ecx+eax+3158]
  004a8	c0 ea 04	 shr	 dl, 4
  004ab	80 e2 0f	 and	 dl, 15			; 0000000fH
  004ae	0f b6 c2	 movzx	 eax, dl
  004b1	83 f8 01	 cmp	 eax, 1
  004b4	74 05		 je	 SHORT $LN26@CGRequestP
$LN27@CGRequestP:

; 22219: 		{
; 22220: 			return;

  004b6	e9 53 03 00 00	 jmp	 $LN1@CGRequestP
$LN26@CGRequestP:

; 22221: 		}
; 22222: 
; 22223: 		if(!CHECK_LIMIT(lpMsg->nPos, MAX_TRADEITEM)) 

  004bb	8b 45 08	 mov	 eax, DWORD PTR _lpMsg$[ebp]
  004be	0f b6 48 05	 movzx	 ecx, BYTE PTR [eax+5]
  004c2	85 c9		 test	 ecx, ecx
  004c4	7d 09		 jge	 SHORT $LN62@CGRequestP
  004c6	c7 45 a4 00 00
	00 00		 mov	 DWORD PTR tv312[ebp], 0
  004cd	eb 22		 jmp	 SHORT $LN63@CGRequestP
$LN62@CGRequestP:
  004cf	8b 55 08	 mov	 edx, DWORD PTR _lpMsg$[ebp]
  004d2	0f b6 42 05	 movzx	 eax, BYTE PTR [edx+5]
  004d6	83 f8 1f	 cmp	 eax, 31			; 0000001fH
  004d9	7e 09		 jle	 SHORT $LN60@CGRequestP
  004db	c7 45 a0 00 00
	00 00		 mov	 DWORD PTR tv311[ebp], 0
  004e2	eb 07		 jmp	 SHORT $LN61@CGRequestP
$LN60@CGRequestP:
  004e4	c7 45 a0 01 00
	00 00		 mov	 DWORD PTR tv311[ebp], 1
$LN61@CGRequestP:
  004eb	8b 4d a0	 mov	 ecx, DWORD PTR tv311[ebp]
  004ee	89 4d a4	 mov	 DWORD PTR tv312[ebp], ecx
$LN63@CGRequestP:
  004f1	83 7d a4 00	 cmp	 DWORD PTR tv312[ebp], 0
  004f5	75 29		 jne	 SHORT $LN28@CGRequestP

; 22224: 		{
; 22225: 			LogAddTD("[PetItem] [%s][%s] RequestPetItem Invalid TargetTrade nPos %d", 

  004f7	8b 45 08	 mov	 eax, DWORD PTR _lpMsg$[ebp]
  004fa	0f b6 48 05	 movzx	 ecx, BYTE PTR [eax+5]
  004fe	51		 push	 ecx
  004ff	8b 55 f8	 mov	 edx, DWORD PTR _lpObj$[ebp]
  00502	83 c2 73	 add	 edx, 115		; 00000073H
  00505	52		 push	 edx
  00506	8b 45 f8	 mov	 eax, DWORD PTR _lpObj$[ebp]
  00509	83 c0 68	 add	 eax, 104		; 00000068H
  0050c	50		 push	 eax
  0050d	68 00 00 00 00	 push	 OFFSET ??_C@_0DO@OIKHDOGN@?$FLPetItem?$FN?5?$FL?$CFs?$FN?$FL?$CFs?$FN?5RequestPetIt@
  00512	ff 15 00 00 00
	00		 call	 DWORD PTR ?LogAddTD@@3P6AXPADZZA ; LogAddTD
  00518	83 c4 10	 add	 esp, 16			; 00000010H

; 22226: 					 lpObj->AccountID, lpObj->Name, lpMsg->nPos);
; 22227: 			return;

  0051b	e9 ee 02 00 00	 jmp	 $LN1@CGRequestP
$LN28@CGRequestP:

; 22228: 		}
; 22229: 
; 22230: 		if( gObj[iTargetIndex].Trade[lpMsg->nPos].IsItem() )

  00520	69 45 e8 a0 1b
	00 00		 imul	 eax, DWORD PTR _iTargetIndex$1[ebp], 7072
  00527	8b 4d 08	 mov	 ecx, DWORD PTR _lpMsg$[ebp]
  0052a	0f b6 51 05	 movzx	 edx, BYTE PTR [ecx+5]
  0052e	69 ca a8 00 00
	00		 imul	 ecx, edx, 168
  00534	8b 15 00 00 00
	00		 mov	 edx, DWORD PTR ?gObj@@3PAVOBJECTSTRUCT@@A ; gObj
  0053a	03 8c 02 84 0c
	00 00		 add	 ecx, DWORD PTR [edx+eax+3204]
  00541	e8 00 00 00 00	 call	 ?IsItem@CItem@@QAEHXZ	; CItem::IsItem
  00546	85 c0		 test	 eax, eax
  00548	74 68		 je	 SHORT $LN29@CGRequestP

; 22231: 		{
; 22232: 			pMsg.Exp = gObj[iTargetIndex].Trade[lpMsg->nPos].m_PetItem_Exp;

  0054a	69 45 e8 a0 1b
	00 00		 imul	 eax, DWORD PTR _iTargetIndex$1[ebp], 7072
  00551	8b 4d 08	 mov	 ecx, DWORD PTR _lpMsg$[ebp]
  00554	0f b6 51 05	 movzx	 edx, BYTE PTR [ecx+5]
  00558	69 ca a8 00 00
	00		 imul	 ecx, edx, 168
  0055e	8b 15 00 00 00
	00		 mov	 edx, DWORD PTR ?gObj@@3PAVOBJECTSTRUCT@@A ; gObj
  00564	8b 84 02 84 0c
	00 00		 mov	 eax, DWORD PTR [edx+eax+3204]
  0056b	8b 8c 08 a4 00
	00 00		 mov	 ecx, DWORD PTR [eax+ecx+164]
  00572	89 4d f4	 mov	 DWORD PTR _pMsg$[ebp+8], ecx

; 22233: 			pMsg.Level = gObj[iTargetIndex].Trade[lpMsg->nPos].m_PetItem_Level;

  00575	69 45 e8 a0 1b
	00 00		 imul	 eax, DWORD PTR _iTargetIndex$1[ebp], 7072
  0057c	8b 4d 08	 mov	 ecx, DWORD PTR _lpMsg$[ebp]
  0057f	0f b6 51 05	 movzx	 edx, BYTE PTR [ecx+5]
  00583	69 ca a8 00 00
	00		 imul	 ecx, edx, 168
  00589	8b 15 00 00 00
	00		 mov	 edx, DWORD PTR ?gObj@@3PAVOBJECTSTRUCT@@A ; gObj
  0058f	8b 84 02 84 0c
	00 00		 mov	 eax, DWORD PTR [edx+eax+3204]
  00596	8a 8c 08 a0 00
	00 00		 mov	 cl, BYTE PTR [eax+ecx+160]
  0059d	88 4d f2	 mov	 BYTE PTR _pMsg$[ebp+6], cl

; 22234: 
; 22235: #ifdef MODIFY_DARKLORD_SEND_INFO_PROTOCOL_EXTEND_20080626
; 22236: 			pMsg.Life = (BYTE)(gObj[iTargetIndex].Trade[lpMsg->nPos].m_Durability);
; 22237: #endif // MODIFY_DARKLORD_SEND_INFO_PROTOCOL_EXTEND_20080626
; 22238: 
; 22239: 			DataSend(aIndex, (LPBYTE)&pMsg, sizeof(pMsg));

  005a0	6a 0c		 push	 12			; 0000000cH
  005a2	8d 45 ec	 lea	 eax, DWORD PTR _pMsg$[ebp]
  005a5	50		 push	 eax
  005a6	8b 4d 0c	 mov	 ecx, DWORD PTR _aIndex$[ebp]
  005a9	51		 push	 ecx
  005aa	e8 00 00 00 00	 call	 ?DataSend@@YAHHPAEK@Z	; DataSend
  005af	83 c4 0c	 add	 esp, 12			; 0000000cH
$LN29@CGRequestP:

; 22240: 		}
; 22241: 	}

  005b2	e9 57 02 00 00	 jmp	 $LN1@CGRequestP
$LN20@CGRequestP:

; 22242: 	else if( lpMsg->InvenType == 4 )

  005b7	8b 45 08	 mov	 eax, DWORD PTR _lpMsg$[ebp]
  005ba	0f b6 48 04	 movzx	 ecx, BYTE PTR [eax+4]
  005be	83 f9 04	 cmp	 ecx, 4
  005c1	0f 85 db 00 00
	00		 jne	 $LN30@CGRequestP

; 22243: 	{	//  
; 22244: 		if(!CHECK_LIMIT(lpMsg->nPos, MAX_CHAOSBOXSIZE)) 

  005c7	8b 45 08	 mov	 eax, DWORD PTR _lpMsg$[ebp]
  005ca	0f b6 48 05	 movzx	 ecx, BYTE PTR [eax+5]
  005ce	85 c9		 test	 ecx, ecx
  005d0	7d 09		 jge	 SHORT $LN66@CGRequestP
  005d2	c7 45 a4 00 00
	00 00		 mov	 DWORD PTR tv361[ebp], 0
  005d9	eb 22		 jmp	 SHORT $LN67@CGRequestP
$LN66@CGRequestP:
  005db	8b 55 08	 mov	 edx, DWORD PTR _lpMsg$[ebp]
  005de	0f b6 42 05	 movzx	 eax, BYTE PTR [edx+5]
  005e2	83 f8 1f	 cmp	 eax, 31			; 0000001fH
  005e5	7e 09		 jle	 SHORT $LN64@CGRequestP
  005e7	c7 45 a0 00 00
	00 00		 mov	 DWORD PTR tv360[ebp], 0
  005ee	eb 07		 jmp	 SHORT $LN65@CGRequestP
$LN64@CGRequestP:
  005f0	c7 45 a0 01 00
	00 00		 mov	 DWORD PTR tv360[ebp], 1
$LN65@CGRequestP:
  005f7	8b 4d a0	 mov	 ecx, DWORD PTR tv360[ebp]
  005fa	89 4d a4	 mov	 DWORD PTR tv361[ebp], ecx
$LN67@CGRequestP:
  005fd	83 7d a4 00	 cmp	 DWORD PTR tv361[ebp], 0
  00601	75 29		 jne	 SHORT $LN32@CGRequestP

; 22245: 		{
; 22246: 			LogAddTD("[PetItem] [%s][%s] RequestPetItem Invalid Chaos nPos %d", 

  00603	8b 45 08	 mov	 eax, DWORD PTR _lpMsg$[ebp]
  00606	0f b6 48 05	 movzx	 ecx, BYTE PTR [eax+5]
  0060a	51		 push	 ecx
  0060b	8b 55 f8	 mov	 edx, DWORD PTR _lpObj$[ebp]
  0060e	83 c2 73	 add	 edx, 115		; 00000073H
  00611	52		 push	 edx
  00612	8b 45 f8	 mov	 eax, DWORD PTR _lpObj$[ebp]
  00615	83 c0 68	 add	 eax, 104		; 00000068H
  00618	50		 push	 eax
  00619	68 00 00 00 00	 push	 OFFSET ??_C@_0DI@DBFIHHGF@?$FLPetItem?$FN?5?$FL?$CFs?$FN?$FL?$CFs?$FN?5RequestPetIt@
  0061e	ff 15 00 00 00
	00		 call	 DWORD PTR ?LogAddTD@@3P6AXPADZZA ; LogAddTD
  00624	83 c4 10	 add	 esp, 16			; 00000010H

; 22247: 					 lpObj->AccountID, lpObj->Name, lpMsg->nPos);
; 22248: 			return;

  00627	e9 e2 01 00 00	 jmp	 $LN1@CGRequestP
$LN32@CGRequestP:

; 22249: 		}
; 22250: 
; 22251: 		if( lpObj->pChaosBox[lpMsg->nPos].IsItem() )

  0062c	8b 45 08	 mov	 eax, DWORD PTR _lpMsg$[ebp]
  0062f	0f b6 48 05	 movzx	 ecx, BYTE PTR [eax+5]
  00633	69 c9 a8 00 00
	00		 imul	 ecx, ecx, 168
  00639	8b 55 f8	 mov	 edx, DWORD PTR _lpObj$[ebp]
  0063c	03 8a ac 0c 00
	00		 add	 ecx, DWORD PTR [edx+3244]
  00642	e8 00 00 00 00	 call	 ?IsItem@CItem@@QAEHXZ	; CItem::IsItem
  00647	85 c0		 test	 eax, eax
  00649	74 52		 je	 SHORT $LN33@CGRequestP

; 22252: 		{
; 22253: 			pMsg.Exp = lpObj->pChaosBox[lpMsg->nPos].m_PetItem_Exp;

  0064b	8b 45 08	 mov	 eax, DWORD PTR _lpMsg$[ebp]
  0064e	0f b6 48 05	 movzx	 ecx, BYTE PTR [eax+5]
  00652	69 d1 a8 00 00
	00		 imul	 edx, ecx, 168
  00658	8b 45 f8	 mov	 eax, DWORD PTR _lpObj$[ebp]
  0065b	8b 88 ac 0c 00
	00		 mov	 ecx, DWORD PTR [eax+3244]
  00661	8b 94 11 a4 00
	00 00		 mov	 edx, DWORD PTR [ecx+edx+164]
  00668	89 55 f4	 mov	 DWORD PTR _pMsg$[ebp+8], edx

; 22254: 			pMsg.Level = lpObj->pChaosBox[lpMsg->nPos].m_PetItem_Level;

  0066b	8b 45 08	 mov	 eax, DWORD PTR _lpMsg$[ebp]
  0066e	0f b6 48 05	 movzx	 ecx, BYTE PTR [eax+5]
  00672	69 d1 a8 00 00
	00		 imul	 edx, ecx, 168
  00678	8b 45 f8	 mov	 eax, DWORD PTR _lpObj$[ebp]
  0067b	8b 88 ac 0c 00
	00		 mov	 ecx, DWORD PTR [eax+3244]
  00681	8a 94 11 a0 00
	00 00		 mov	 dl, BYTE PTR [ecx+edx+160]
  00688	88 55 f2	 mov	 BYTE PTR _pMsg$[ebp+6], dl

; 22255: 
; 22256: #ifdef MODIFY_DARKLORD_SEND_INFO_PROTOCOL_EXTEND_20080626
; 22257: 			pMsg.Life = (BYTE)(lpObj->pChaosBox[lpMsg->nPos].m_Durability);
; 22258: #endif // MODIFY_DARKLORD_SEND_INFO_PROTOCOL_EXTEND_20080626
; 22259: 
; 22260: 			DataSend(aIndex, (LPBYTE)&pMsg, sizeof(pMsg));

  0068b	6a 0c		 push	 12			; 0000000cH
  0068d	8d 45 ec	 lea	 eax, DWORD PTR _pMsg$[ebp]
  00690	50		 push	 eax
  00691	8b 4d 0c	 mov	 ecx, DWORD PTR _aIndex$[ebp]
  00694	51		 push	 ecx
  00695	e8 00 00 00 00	 call	 ?DataSend@@YAHHPAEK@Z	; DataSend
  0069a	83 c4 0c	 add	 esp, 12			; 0000000cH
$LN33@CGRequestP:

; 22261: 		}
; 22262: 	}

  0069d	e9 6c 01 00 00	 jmp	 $LN1@CGRequestP
$LN30@CGRequestP:

; 22263: 	else if( lpMsg->InvenType == 5 )

  006a2	8b 45 08	 mov	 eax, DWORD PTR _lpMsg$[ebp]
  006a5	0f b6 48 04	 movzx	 ecx, BYTE PTR [eax+4]
  006a9	83 f9 05	 cmp	 ecx, 5
  006ac	0f 85 5c 01 00
	00		 jne	 $LN1@CGRequestP

; 22264: 	{	//  
; 22265: #ifdef PERSONAL_SHOP_20040113		
; 22266: 		if(!CHECK_LIMIT(lpMsg->nPos, MAX_INVENTORY_EXTEND)) 

  006b2	8b 45 08	 mov	 eax, DWORD PTR _lpMsg$[ebp]
  006b5	0f b6 48 05	 movzx	 ecx, BYTE PTR [eax+5]
  006b9	85 c9		 test	 ecx, ecx
  006bb	7d 09		 jge	 SHORT $LN70@CGRequestP
  006bd	c7 45 a4 00 00
	00 00		 mov	 DWORD PTR tv404[ebp], 0
  006c4	eb 22		 jmp	 SHORT $LN71@CGRequestP
$LN70@CGRequestP:
  006c6	8b 55 08	 mov	 edx, DWORD PTR _lpMsg$[ebp]
  006c9	0f b6 42 05	 movzx	 eax, BYTE PTR [edx+5]
  006cd	83 f8 6b	 cmp	 eax, 107		; 0000006bH
  006d0	7e 09		 jle	 SHORT $LN68@CGRequestP
  006d2	c7 45 a0 00 00
	00 00		 mov	 DWORD PTR tv403[ebp], 0
  006d9	eb 07		 jmp	 SHORT $LN69@CGRequestP
$LN68@CGRequestP:
  006db	c7 45 a0 01 00
	00 00		 mov	 DWORD PTR tv403[ebp], 1
$LN69@CGRequestP:
  006e2	8b 4d a0	 mov	 ecx, DWORD PTR tv403[ebp]
  006e5	89 4d a4	 mov	 DWORD PTR tv404[ebp], ecx
$LN71@CGRequestP:
  006e8	83 7d a4 00	 cmp	 DWORD PTR tv404[ebp], 0
  006ec	75 29		 jne	 SHORT $LN35@CGRequestP

; 22267: #else
; 22268: 		if(!CHECK_LIMIT(lpMsg->nPos, MAX_INVENTORY)) 
; 22269: #endif
; 22270: 		{
; 22271: 			LogAddTD("[PetItem] [%s][%s] RequestPetItem Invalid Iventory nPos %d", 

  006ee	8b 45 08	 mov	 eax, DWORD PTR _lpMsg$[ebp]
  006f1	0f b6 48 05	 movzx	 ecx, BYTE PTR [eax+5]
  006f5	51		 push	 ecx
  006f6	8b 55 f8	 mov	 edx, DWORD PTR _lpObj$[ebp]
  006f9	83 c2 73	 add	 edx, 115		; 00000073H
  006fc	52		 push	 edx
  006fd	8b 45 f8	 mov	 eax, DWORD PTR _lpObj$[ebp]
  00700	83 c0 68	 add	 eax, 104		; 00000068H
  00703	50		 push	 eax
  00704	68 00 00 00 00	 push	 OFFSET ??_C@_0DL@GJNDCDLC@?$FLPetItem?$FN?5?$FL?$CFs?$FN?$FL?$CFs?$FN?5RequestPetIt@
  00709	ff 15 00 00 00
	00		 call	 DWORD PTR ?LogAddTD@@3P6AXPADZZA ; LogAddTD
  0070f	83 c4 10	 add	 esp, 16			; 00000010H

; 22272: 					 lpObj->AccountID, lpObj->Name, lpMsg->nPos);
; 22273: 			return;

  00712	e9 f7 00 00 00	 jmp	 $LN1@CGRequestP
$LN35@CGRequestP:

; 22274: 		}
; 22275: 
; 22276: 		if( lpObj->m_iPShopDealerIndex != -1 )

  00717	8b 45 f8	 mov	 eax, DWORD PTR _lpObj$[ebp]
  0071a	83 b8 24 0d 00
	00 ff		 cmp	 DWORD PTR [eax+3364], -1
  00721	0f 84 e7 00 00
	00		 je	 $LN1@CGRequestP

; 22277: 		{
; 22278: 			if(CHECK_LIMIT(lpObj->m_iPShopDealerIndex, MAX_OBJECT)) 

  00727	8b 45 f8	 mov	 eax, DWORD PTR _lpObj$[ebp]
  0072a	83 b8 24 0d 00
	00 00		 cmp	 DWORD PTR [eax+3364], 0
  00731	7d 09		 jge	 SHORT $LN74@CGRequestP
  00733	c7 45 a4 00 00
	00 00		 mov	 DWORD PTR tv421[ebp], 0
  0073a	eb 25		 jmp	 SHORT $LN75@CGRequestP
$LN74@CGRequestP:
  0073c	8b 4d f8	 mov	 ecx, DWORD PTR _lpObj$[ebp]
  0073f	81 b9 24 0d 00
	00 e7 1c 00 00	 cmp	 DWORD PTR [ecx+3364], 7399 ; 00001ce7H
  00749	7e 09		 jle	 SHORT $LN72@CGRequestP
  0074b	c7 45 a0 00 00
	00 00		 mov	 DWORD PTR tv420[ebp], 0
  00752	eb 07		 jmp	 SHORT $LN73@CGRequestP
$LN72@CGRequestP:
  00754	c7 45 a0 01 00
	00 00		 mov	 DWORD PTR tv420[ebp], 1
$LN73@CGRequestP:
  0075b	8b 55 a0	 mov	 edx, DWORD PTR tv420[ebp]
  0075e	89 55 a4	 mov	 DWORD PTR tv421[ebp], edx
$LN75@CGRequestP:
  00761	83 7d a4 00	 cmp	 DWORD PTR tv421[ebp], 0
  00765	0f 84 a3 00 00
	00		 je	 $LN1@CGRequestP

; 22279: 			{	
; 22280: 				if( gObj[lpObj->m_iPShopDealerIndex].pInventory[lpMsg->nPos].IsItem() )				

  0076b	8b 45 f8	 mov	 eax, DWORD PTR _lpObj$[ebp]
  0076e	69 88 24 0d 00
	00 a0 1b 00 00	 imul	 ecx, DWORD PTR [eax+3364], 7072
  00778	8b 55 08	 mov	 edx, DWORD PTR _lpMsg$[ebp]
  0077b	0f b6 42 05	 movzx	 eax, BYTE PTR [edx+5]
  0077f	69 d0 a8 00 00
	00		 imul	 edx, eax, 168
  00785	a1 00 00 00 00	 mov	 eax, DWORD PTR ?gObj@@3PAVOBJECTSTRUCT@@A ; gObj
  0078a	03 94 08 5c 0c
	00 00		 add	 edx, DWORD PTR [eax+ecx+3164]
  00791	8b ca		 mov	 ecx, edx
  00793	e8 00 00 00 00	 call	 ?IsItem@CItem@@QAEHXZ	; CItem::IsItem
  00798	85 c0		 test	 eax, eax
  0079a	74 72		 je	 SHORT $LN1@CGRequestP

; 22281: 				{
; 22282: 					pMsg.Exp = gObj[lpObj->m_iPShopDealerIndex].pInventory[lpMsg->nPos].m_PetItem_Exp;

  0079c	8b 45 f8	 mov	 eax, DWORD PTR _lpObj$[ebp]
  0079f	69 88 24 0d 00
	00 a0 1b 00 00	 imul	 ecx, DWORD PTR [eax+3364], 7072
  007a9	8b 55 08	 mov	 edx, DWORD PTR _lpMsg$[ebp]
  007ac	0f b6 42 05	 movzx	 eax, BYTE PTR [edx+5]
  007b0	69 d0 a8 00 00
	00		 imul	 edx, eax, 168
  007b6	a1 00 00 00 00	 mov	 eax, DWORD PTR ?gObj@@3PAVOBJECTSTRUCT@@A ; gObj
  007bb	8b 8c 08 5c 0c
	00 00		 mov	 ecx, DWORD PTR [eax+ecx+3164]
  007c2	8b 94 11 a4 00
	00 00		 mov	 edx, DWORD PTR [ecx+edx+164]
  007c9	89 55 f4	 mov	 DWORD PTR _pMsg$[ebp+8], edx

; 22283: 					pMsg.Level = gObj[lpObj->m_iPShopDealerIndex].pInventory[lpMsg->nPos].m_PetItem_Level;

  007cc	8b 45 f8	 mov	 eax, DWORD PTR _lpObj$[ebp]
  007cf	69 88 24 0d 00
	00 a0 1b 00 00	 imul	 ecx, DWORD PTR [eax+3364], 7072
  007d9	8b 55 08	 mov	 edx, DWORD PTR _lpMsg$[ebp]
  007dc	0f b6 42 05	 movzx	 eax, BYTE PTR [edx+5]
  007e0	69 d0 a8 00 00
	00		 imul	 edx, eax, 168
  007e6	a1 00 00 00 00	 mov	 eax, DWORD PTR ?gObj@@3PAVOBJECTSTRUCT@@A ; gObj
  007eb	8b 8c 08 5c 0c
	00 00		 mov	 ecx, DWORD PTR [eax+ecx+3164]
  007f2	8a 94 11 a0 00
	00 00		 mov	 dl, BYTE PTR [ecx+edx+160]
  007f9	88 55 f2	 mov	 BYTE PTR _pMsg$[ebp+6], dl

; 22284: 
; 22285: #ifdef MODIFY_DARKLORD_SEND_INFO_PROTOCOL_EXTEND_20080626
; 22286: 					pMsg.Life = (BYTE)(gObj[lpObj->m_iPShopDealerIndex].pInventory[lpMsg->nPos].m_Durability);
; 22287: #endif // MODIFY_DARKLORD_SEND_INFO_PROTOCOL_EXTEND_20080626
; 22288: 
; 22289: 					DataSend(aIndex, (LPBYTE)&pMsg, sizeof(pMsg));

  007fc	6a 0c		 push	 12			; 0000000cH
  007fe	8d 45 ec	 lea	 eax, DWORD PTR _pMsg$[ebp]
  00801	50		 push	 eax
  00802	8b 4d 0c	 mov	 ecx, DWORD PTR _aIndex$[ebp]
  00805	51		 push	 ecx
  00806	e8 00 00 00 00	 call	 ?DataSend@@YAHHPAEK@Z	; DataSend
  0080b	83 c4 0c	 add	 esp, 12			; 0000000cH
$LN1@CGRequestP:

; 22290: 				}
; 22291: 			}
; 22292: 		}
; 22293: 	}
; 22294: }

  0080e	5f		 pop	 edi
  0080f	5e		 pop	 esi
  00810	5b		 pop	 ebx
  00811	8b 4d fc	 mov	 ecx, DWORD PTR __$ArrayPad$[ebp]
  00814	33 cd		 xor	 ecx, ebp
  00816	e8 00 00 00 00	 call	 @__security_check_cookie@4
  0081b	8b e5		 mov	 esp, ebp
  0081d	5d		 pop	 ebp
  0081e	c3		 ret	 0
?CGRequestPetItemInfo@@YAXPAUPMSG_REQUEST_PET_ITEMINFO@@H@Z ENDP ; CGRequestPetItemInfo
_TEXT	ENDS
; Function compile flags: /Odtp /ZI
; File C:\Mu Online\Mu-GS-Webzen-MC-10093\GameServer\protocol.cpp
;	COMDAT ?CGRequestPetItemCommand@@YAXPAUPMSG_REQUEST_PET_ITEM_COMMAND@@H@Z
_TEXT	SEGMENT
tv73 = -80						; size = 4
tv74 = -76						; size = 4
_iTargetIndex$ = -8					; size = 4
_lpObj$ = -4						; size = 4
_lpMsg$ = 8						; size = 4
_aIndex$ = 12						; size = 4
?CGRequestPetItemCommand@@YAXPAUPMSG_REQUEST_PET_ITEM_COMMAND@@H@Z PROC ; CGRequestPetItemCommand, COMDAT

; 22082: {

  00000	55		 push	 ebp
  00001	8b ec		 mov	 ebp, esp
  00003	83 ec 50	 sub	 esp, 80			; 00000050H
  00006	53		 push	 ebx
  00007	56		 push	 esi
  00008	57		 push	 edi

; 22083: 	if( gObjIsConnectedGP(aIndex) == FALSE ) 

  00009	8b 45 0c	 mov	 eax, DWORD PTR _aIndex$[ebp]
  0000c	50		 push	 eax
  0000d	e8 00 00 00 00	 call	 ?gObjIsConnectedGP@@YAHH@Z ; gObjIsConnectedGP
  00012	83 c4 04	 add	 esp, 4
  00015	85 c0		 test	 eax, eax
  00017	75 21		 jne	 SHORT $LN2@CGRequestP

; 22084: 	{
; 22085: 		LogAddTD("error-L2 : Index %s %d", __FILE__, __LINE__);

  00019	a1 00 00 00 00	 mov	 eax, DWORD PTR ?__LINE__Var@?0??CGRequestPetItemCommand@@YAXPAUPMSG_REQUEST_PET_ITEM_COMMAND@@H@Z@4JA
  0001e	83 c0 03	 add	 eax, 3
  00021	50		 push	 eax
  00022	68 00 00 00 00	 push	 OFFSET ??_C@_0DL@MNNGLLFH@C?3?2Mu?5Online?2Mu?9GS?9Webzen?9MC?910@
  00027	68 00 00 00 00	 push	 OFFSET ??_C@_0BH@LCDOHCGD@error?9L2?5?3?5Index?5?$CFs?5?$CFd@
  0002c	ff 15 00 00 00
	00		 call	 DWORD PTR ?LogAddTD@@3P6AXPADZZA ; LogAddTD
  00032	83 c4 0c	 add	 esp, 12			; 0000000cH

; 22086: 		return;

  00035	e9 99 00 00 00	 jmp	 $LN1@CGRequestP
$LN2@CGRequestP:

; 22087: 	}
; 22088: 
; 22089: 	if(!CHECK_LIMIT(aIndex, MAX_OBJECT)) 

  0003a	83 7d 0c 00	 cmp	 DWORD PTR _aIndex$[ebp], 0
  0003e	7d 09		 jge	 SHORT $LN8@CGRequestP
  00040	c7 45 b4 00 00
	00 00		 mov	 DWORD PTR tv74[ebp], 0
  00047	eb 1f		 jmp	 SHORT $LN9@CGRequestP
$LN8@CGRequestP:
  00049	81 7d 0c e7 1c
	00 00		 cmp	 DWORD PTR _aIndex$[ebp], 7399 ; 00001ce7H
  00050	7e 09		 jle	 SHORT $LN6@CGRequestP
  00052	c7 45 b0 00 00
	00 00		 mov	 DWORD PTR tv73[ebp], 0
  00059	eb 07		 jmp	 SHORT $LN7@CGRequestP
$LN6@CGRequestP:
  0005b	c7 45 b0 01 00
	00 00		 mov	 DWORD PTR tv73[ebp], 1
$LN7@CGRequestP:
  00062	8b 45 b0	 mov	 eax, DWORD PTR tv73[ebp]
  00065	89 45 b4	 mov	 DWORD PTR tv74[ebp], eax
$LN9@CGRequestP:
  00068	83 7d b4 00	 cmp	 DWORD PTR tv74[ebp], 0
  0006c	75 02		 jne	 SHORT $LN3@CGRequestP

; 22090: 		return;

  0006e	eb 63		 jmp	 SHORT $LN1@CGRequestP
$LN3@CGRequestP:

; 22091: 
; 22092: 	LPOBJECTSTRUCT lpObj = &gObj[aIndex];

  00070	69 45 0c a0 1b
	00 00		 imul	 eax, DWORD PTR _aIndex$[ebp], 7072
  00077	03 05 00 00 00
	00		 add	 eax, DWORD PTR ?gObj@@3PAVOBJECTSTRUCT@@A ; gObj
  0007d	89 45 fc	 mov	 DWORD PTR _lpObj$[ebp], eax

; 22093: 
; 22094: 	if( lpMsg->PetType != 0 )

  00080	8b 45 08	 mov	 eax, DWORD PTR _lpMsg$[ebp]
  00083	0f b6 48 03	 movzx	 ecx, BYTE PTR [eax+3]
  00087	85 c9		 test	 ecx, ecx
  00089	74 02		 je	 SHORT $LN4@CGRequestP

; 22095: 		return;	//  

  0008b	eb 46		 jmp	 SHORT $LN1@CGRequestP
$LN4@CGRequestP:

; 22096: 
; 22097: 	int iTargetIndex = MAKEWORD(lpMsg->NumberL, lpMsg->NumberH);

  0008d	8b 45 08	 mov	 eax, DWORD PTR _lpMsg$[ebp]
  00090	0f b6 48 06	 movzx	 ecx, BYTE PTR [eax+6]
  00094	81 e1 ff 00 00
	00		 and	 ecx, 255		; 000000ffH
  0009a	0f b6 d1	 movzx	 edx, cl
  0009d	8b 45 08	 mov	 eax, DWORD PTR _lpMsg$[ebp]
  000a0	0f b6 48 05	 movzx	 ecx, BYTE PTR [eax+5]
  000a4	81 e1 ff 00 00
	00		 and	 ecx, 255		; 000000ffH
  000aa	0f b6 c1	 movzx	 eax, cl
  000ad	c1 e0 08	 shl	 eax, 8
  000b0	0b d0		 or	 edx, eax
  000b2	0f b7 ca	 movzx	 ecx, dx
  000b5	89 4d f8	 mov	 DWORD PTR _iTargetIndex$[ebp], ecx

; 22098: 	gDarkSpirit[aIndex].ChangeCommand(lpMsg->Command,iTargetIndex);

  000b8	8b 45 f8	 mov	 eax, DWORD PTR _iTargetIndex$[ebp]
  000bb	50		 push	 eax
  000bc	8b 4d 08	 mov	 ecx, DWORD PTR _lpMsg$[ebp]
  000bf	0f b6 51 04	 movzx	 edx, BYTE PTR [ecx+4]
  000c3	52		 push	 edx
  000c4	6b 4d 0c 28	 imul	 ecx, DWORD PTR _aIndex$[ebp], 40
  000c8	81 c1 00 00 00
	00		 add	 ecx, OFFSET ?gDarkSpirit@@3PAVCDarkSpirit@@A ; gDarkSpirit
  000ce	e8 00 00 00 00	 call	 ?ChangeCommand@CDarkSpirit@@QAEXHH@Z ; CDarkSpirit::ChangeCommand
$LN1@CGRequestP:

; 22099: 
; 22100: }

  000d3	5f		 pop	 edi
  000d4	5e		 pop	 esi
  000d5	5b		 pop	 ebx
  000d6	8b e5		 mov	 esp, ebp
  000d8	5d		 pop	 ebp
  000d9	c3		 ret	 0
?CGRequestPetItemCommand@@YAXPAUPMSG_REQUEST_PET_ITEM_COMMAND@@H@Z ENDP ; CGRequestPetItemCommand
_TEXT	ENDS
; Function compile flags: /Odtp /ZI
; File C:\Mu Online\Mu-GS-Webzen-MC-10093\GameServer\protocol.cpp
;	COMDAT ?CGTargetTeleportRecv@@YAXPAUPMSG_TARGET_TELEPORT@@H@Z
_TEXT	SEGMENT
_usebp$1 = -28						; size = 4
_usemana$2 = -24					; size = 4
_iTargetIndex$ = -20					; size = 4
_pAttack$ = -16						; size = 8
_y$ = -6						; size = 1
_x$ = -5						; size = 1
_lpMagic$ = -4						; size = 4
_lpMsg$ = 8						; size = 4
_aIndex$ = 12						; size = 4
?CGTargetTeleportRecv@@YAXPAUPMSG_TARGET_TELEPORT@@H@Z PROC ; CGTargetTeleportRecv, COMDAT

; 15963: {

  00000	55		 push	 ebp
  00001	8b ec		 mov	 ebp, esp
  00003	83 ec 5c	 sub	 esp, 92			; 0000005cH
  00006	53		 push	 ebx
  00007	56		 push	 esi
  00008	57		 push	 edi

; 15964: 
; 15965: #ifdef ADD_NEW_SKILL_FOR_CASTLE_02_20050531
; 15966: 	if( !CHECK_LIMIT(aIndex, MAX_OBJECT) )
; 15967: 		return;
; 15968: 
; 15969: 	//       .
; 15970: 	#ifdef MODIFY_OLD_BUFF_EFFECT_SYSTEM_20071004
; 15971: 	if( gObjCheckUsedBuffEffect( &gObj[aIndex], BUFFTYPE_STUN ) == true )
; 15972: 	#else
; 15973: 	if( gObj[aIndex].m_iSkillStunTime > 0 )
; 15974: 	#endif // MODIFY_OLD_BUFF_EFFECT_SYSTEM_20071004
; 15975: 		return;
; 15976: #endif
; 15977: 
; 15978: #ifdef ADD_SEASON_3_NEW_CHARACTER_SUMMONER_20070912	//    .
; 15979: 	if( gObjCheckUsedBuffEffect( &gObj[aIndex], BUFFTYPE_SLEEP ) == true )
; 15980: 		return;
; 15981: #endif
; 15982: 
; 15983: 	//LogAdd("   Recv %s %d", gObj[aIndex].Name, lpMsg->MoveNumber);	
; 15984: 	CMagicInf *lpMagic;
; 15985: 	BYTE x, y;
; 15986: 	
; 15987: 	PMSG_MAGICATTACK_RESULT	pAttack;
; 15988: 	
; 15989: 	PHeadSetBE((LPBYTE)&pAttack, 0x19, sizeof( pAttack));

  00009	6a 08		 push	 8
  0000b	6a 19		 push	 25			; 00000019H
  0000d	8d 45 f0	 lea	 eax, DWORD PTR _pAttack$[ebp]
  00010	50		 push	 eax
  00011	e8 00 00 00 00	 call	 ?PHeadSetBE@@YAXPAEEH@Z	; PHeadSetBE
  00016	83 c4 0c	 add	 esp, 12			; 0000000cH

; 15990: #ifdef ADD_MASTER_LEVEL_SKILL_SYSTEM_ACTIVE_20080107	//  BYTE -> WORD 
; 15991: 	pAttack.MagicNumberH   = HIBYTE( AT_SKILL_TARGET_TELEPORT );
; 15992: 	pAttack.MagicNumberL   = LOBYTE( AT_SKILL_TARGET_TELEPORT );
; 15993: #else
; 15994: 	pAttack.MagicNumber   = AT_SKILL_TARGET_TELEPORT;

  00019	c6 45 f3 0f	 mov	 BYTE PTR _pAttack$[ebp+3], 15 ; 0000000fH

; 15995: #endif
; 15996: 	pAttack.SourceNumberH = HIBYTE(aIndex);

  0001d	8b 45 0c	 mov	 eax, DWORD PTR _aIndex$[ebp]
  00020	c1 e8 08	 shr	 eax, 8
  00023	25 ff 00 00 00	 and	 eax, 255		; 000000ffH
  00028	88 45 f4	 mov	 BYTE PTR _pAttack$[ebp+4], al

; 15997: 	pAttack.SourceNumberL = LOBYTE(aIndex);	

  0002b	8b 45 0c	 mov	 eax, DWORD PTR _aIndex$[ebp]
  0002e	25 ff 00 00 00	 and	 eax, 255		; 000000ffH
  00033	88 45 f5	 mov	 BYTE PTR _pAttack$[ebp+5], al

; 15998: 
; 15999: 	int iTargetIndex = MAKEWORD(lpMsg->NumberH,lpMsg->NumberL);

  00036	8b 45 08	 mov	 eax, DWORD PTR _lpMsg$[ebp]
  00039	0f b6 48 03	 movzx	 ecx, BYTE PTR [eax+3]
  0003d	81 e1 ff 00 00
	00		 and	 ecx, 255		; 000000ffH
  00043	0f b6 d1	 movzx	 edx, cl
  00046	8b 45 08	 mov	 eax, DWORD PTR _lpMsg$[ebp]
  00049	0f b6 48 04	 movzx	 ecx, BYTE PTR [eax+4]
  0004d	81 e1 ff 00 00
	00		 and	 ecx, 255		; 000000ffH
  00053	0f b6 c1	 movzx	 eax, cl
  00056	c1 e0 08	 shl	 eax, 8
  00059	0b d0		 or	 edx, eax
  0005b	0f b7 ca	 movzx	 ecx, dx
  0005e	89 4d ec	 mov	 DWORD PTR _iTargetIndex$[ebp], ecx

; 16000: 
; 16001: 	pAttack.TargetNumberH = HIBYTE(iTargetIndex);

  00061	8b 45 ec	 mov	 eax, DWORD PTR _iTargetIndex$[ebp]
  00064	c1 e8 08	 shr	 eax, 8
  00067	25 ff 00 00 00	 and	 eax, 255		; 000000ffH
  0006c	88 45 f6	 mov	 BYTE PTR _pAttack$[ebp+6], al

; 16002: 	pAttack.TargetNumberL = LOBYTE(iTargetIndex);

  0006f	8b 45 ec	 mov	 eax, DWORD PTR _iTargetIndex$[ebp]
  00072	25 ff 00 00 00	 and	 eax, 255		; 000000ffH
  00077	88 45 f7	 mov	 BYTE PTR _pAttack$[ebp+7], al

; 16003: 	
; 16004: 
; 16005: 	lpMagic  = gObjGetMagicSearch(&gObj[aIndex], AT_SKILL_TARGET_TELEPORT);

  0007a	6a 0f		 push	 15			; 0000000fH
  0007c	69 45 0c a0 1b
	00 00		 imul	 eax, DWORD PTR _aIndex$[ebp], 7072
  00083	03 05 00 00 00
	00		 add	 eax, DWORD PTR ?gObj@@3PAVOBJECTSTRUCT@@A ; gObj
  00089	50		 push	 eax
  0008a	e8 00 00 00 00	 call	 ?gObjGetMagicSearch@@YAPAVCMagicInf@@PAVOBJECTSTRUCT@@E@Z ; gObjGetMagicSearch
  0008f	83 c4 08	 add	 esp, 8
  00092	89 45 fc	 mov	 DWORD PTR _lpMagic$[ebp], eax

; 16006: 
; 16007: 	x = lpMsg->MapX;

  00095	8b 45 08	 mov	 eax, DWORD PTR _lpMsg$[ebp]
  00098	8a 48 05	 mov	 cl, BYTE PTR [eax+5]
  0009b	88 4d fb	 mov	 BYTE PTR _x$[ebp], cl

; 16008: 	y = lpMsg->MapY;

  0009e	8b 45 08	 mov	 eax, DWORD PTR _lpMsg$[ebp]
  000a1	8a 48 06	 mov	 cl, BYTE PTR [eax+6]
  000a4	88 4d fa	 mov	 BYTE PTR _y$[ebp], cl

; 16009: 
; 16010: 	if( gObjIsConnectedGP(iTargetIndex) == FALSE ) 

  000a7	8b 45 ec	 mov	 eax, DWORD PTR _iTargetIndex$[ebp]
  000aa	50		 push	 eax
  000ab	e8 00 00 00 00	 call	 ?gObjIsConnectedGP@@YAHH@Z ; gObjIsConnectedGP
  000b0	83 c4 04	 add	 esp, 4
  000b3	85 c0		 test	 eax, eax
  000b5	75 41		 jne	 SHORT $LN2@CGTargetTe

; 16011: 	{
; 16012: 		LogAddC(LOGC_RED, "[%s][%s] Try Target Teleport Not Move Area [%d,%d]", 

  000b7	0f b6 45 fa	 movzx	 eax, BYTE PTR _y$[ebp]
  000bb	50		 push	 eax
  000bc	0f b6 4d fb	 movzx	 ecx, BYTE PTR _x$[ebp]
  000c0	51		 push	 ecx
  000c1	69 55 0c a0 1b
	00 00		 imul	 edx, DWORD PTR _aIndex$[ebp], 7072
  000c8	a1 00 00 00 00	 mov	 eax, DWORD PTR ?gObj@@3PAVOBJECTSTRUCT@@A ; gObj
  000cd	8d 4c 10 73	 lea	 ecx, DWORD PTR [eax+edx+115]
  000d1	51		 push	 ecx
  000d2	69 55 0c a0 1b
	00 00		 imul	 edx, DWORD PTR _aIndex$[ebp], 7072
  000d9	a1 00 00 00 00	 mov	 eax, DWORD PTR ?gObj@@3PAVOBJECTSTRUCT@@A ; gObj
  000de	8d 4c 10 68	 lea	 ecx, DWORD PTR [eax+edx+104]
  000e2	51		 push	 ecx
  000e3	68 00 00 00 00	 push	 OFFSET ??_C@_0DD@FGHCMCNO@?$FL?$CFs?$FN?$FL?$CFs?$FN?5Try?5Target?5Teleport?5No@
  000e8	6a 02		 push	 2
  000ea	ff 15 00 00 00
	00		 call	 DWORD PTR ?LogAddC@@3P6AXEPADZZA ; LogAddC
  000f0	83 c4 18	 add	 esp, 24			; 00000018H

; 16013: 			   gObj[aIndex].AccountID, gObj[aIndex].Name, x, y);
; 16014: 
; 16015: 		return;

  000f3	e9 f3 01 00 00	 jmp	 $LN1@CGTargetTe
$LN2@CGTargetTe:

; 16016: 	}
; 16017: 
; 16018: #ifdef ADD_EVENT_MAP_ILLUSION_TEMPLE_20070328	//        
; 16019: 	if(CHECK_ILLUSION_TEMPLE(gObj[iTargetIndex].MapNumber))
; 16020: 	{
; 16021: 		if(g_IllusionTempleEvent.CheckRelics(gObj[iTargetIndex].m_Index))
; 16022: 		{
; 16023: 			return;
; 16024: 		}
; 16025: 	}
; 16026: #endif
; 16027: 
; 16028: 	if( gObj[aIndex].PartyNumber != gObj[iTargetIndex].PartyNumber
; 16029: #ifdef MODIFY_TELEPORT_SKILL_USING_PARTY_MEMBER_20060504
; 16030: 		|| gObj[aIndex].PartyNumber == -1
; 16031: 		|| gObj[iTargetIndex].PartyNumber == -1

  000f8	69 45 0c a0 1b
	00 00		 imul	 eax, DWORD PTR _aIndex$[ebp], 7072
  000ff	69 4d ec a0 1b
	00 00		 imul	 ecx, DWORD PTR _iTargetIndex$[ebp], 7072
  00106	8b 15 00 00 00
	00		 mov	 edx, DWORD PTR ?gObj@@3PAVOBJECTSTRUCT@@A ; gObj
  0010c	8b 35 00 00 00
	00		 mov	 esi, DWORD PTR ?gObj@@3PAVOBJECTSTRUCT@@A ; gObj
  00112	8b 84 02 88 02
	00 00		 mov	 eax, DWORD PTR [edx+eax+648]
  00119	3b 84 0e 88 02
	00 00		 cmp	 eax, DWORD PTR [esi+ecx+648]
  00120	75 2e		 jne	 SHORT $LN4@CGTargetTe
  00122	69 45 0c a0 1b
	00 00		 imul	 eax, DWORD PTR _aIndex$[ebp], 7072
  00129	8b 0d 00 00 00
	00		 mov	 ecx, DWORD PTR ?gObj@@3PAVOBJECTSTRUCT@@A ; gObj
  0012f	83 bc 01 88 02
	00 00 ff	 cmp	 DWORD PTR [ecx+eax+648], -1
  00137	74 17		 je	 SHORT $LN4@CGTargetTe
  00139	69 45 ec a0 1b
	00 00		 imul	 eax, DWORD PTR _iTargetIndex$[ebp], 7072
  00140	8b 0d 00 00 00
	00		 mov	 ecx, DWORD PTR ?gObj@@3PAVOBJECTSTRUCT@@A ; gObj
  00146	83 bc 01 88 02
	00 00 ff	 cmp	 DWORD PTR [ecx+eax+648], -1
  0014e	75 05		 jne	 SHORT $LN3@CGTargetTe
$LN4@CGTargetTe:

; 16032: #endif
; 16033: 		)
; 16034: 	{
; 16035: #ifndef MODIFY_TELEPORT_SKILL_USING_PARTY_MEMBER_20060504
; 16036: 		//  ..   
; 16037: 		PMSG_TELEPORT_RESULT	pTeleportResult;
; 16038: 		pTeleportResult.h.c		= PMHCE_BYTE;
; 16039: 		pTeleportResult.h.size		= sizeof( pTeleportResult );
; 16040: 		pTeleportResult.h.headcode = 0x1C;
; 16041: 		pTeleportResult.MoveNumber = 0;
; 16042: 		pTeleportResult.MapNumber  = gObj[iTargetIndex].MapNumber;
; 16043: 		pTeleportResult.MapX		= gObj[iTargetIndex].X;
; 16044: 		pTeleportResult.MapY		= gObj[iTargetIndex].Y;
; 16045: 		pTeleportResult.Dir		= gObj[iTargetIndex].Dir;			
; 16046: 
; 16047: 		DataSend(iTargetIndex, (LPBYTE)&pTeleportResult, pTeleportResult.h.size);	
; 16048: #endif
; 16049: 		return;

  00150	e9 96 01 00 00	 jmp	 $LN1@CGTargetTe
$LN3@CGTargetTe:

; 16050: 	}
; 16051: 
; 16052: 	if( !gObjCheckTeleportArea(iTargetIndex, x, y) )

  00155	0f b6 45 fa	 movzx	 eax, BYTE PTR _y$[ebp]
  00159	50		 push	 eax
  0015a	0f b6 4d fb	 movzx	 ecx, BYTE PTR _x$[ebp]
  0015e	51		 push	 ecx
  0015f	8b 55 ec	 mov	 edx, DWORD PTR _iTargetIndex$[ebp]
  00162	52		 push	 edx
  00163	e8 00 00 00 00	 call	 ?gObjCheckTeleportArea@@YAHHEE@Z ; gObjCheckTeleportArea
  00168	83 c4 0c	 add	 esp, 12			; 0000000cH
  0016b	85 c0		 test	 eax, eax
  0016d	75 41		 jne	 SHORT $LN5@CGTargetTe

; 16053: 	{
; 16054: 		LogAddC(LOGC_RED, "[%s][%s] Try Target Teleport Not Move Area [%d,%d]", 

  0016f	0f b6 45 fa	 movzx	 eax, BYTE PTR _y$[ebp]
  00173	50		 push	 eax
  00174	0f b6 4d fb	 movzx	 ecx, BYTE PTR _x$[ebp]
  00178	51		 push	 ecx
  00179	69 55 0c a0 1b
	00 00		 imul	 edx, DWORD PTR _aIndex$[ebp], 7072
  00180	a1 00 00 00 00	 mov	 eax, DWORD PTR ?gObj@@3PAVOBJECTSTRUCT@@A ; gObj
  00185	8d 4c 10 73	 lea	 ecx, DWORD PTR [eax+edx+115]
  00189	51		 push	 ecx
  0018a	69 55 0c a0 1b
	00 00		 imul	 edx, DWORD PTR _aIndex$[ebp], 7072
  00191	a1 00 00 00 00	 mov	 eax, DWORD PTR ?gObj@@3PAVOBJECTSTRUCT@@A ; gObj
  00196	8d 4c 10 68	 lea	 ecx, DWORD PTR [eax+edx+104]
  0019a	51		 push	 ecx
  0019b	68 00 00 00 00	 push	 OFFSET ??_C@_0DD@FGHCMCNO@?$FL?$CFs?$FN?$FL?$CFs?$FN?5Try?5Target?5Teleport?5No@
  001a0	6a 02		 push	 2
  001a2	ff 15 00 00 00
	00		 call	 DWORD PTR ?LogAddC@@3P6AXEPADZZA ; LogAddC
  001a8	83 c4 18	 add	 esp, 24			; 00000018H

; 16055: 			   gObj[aIndex].AccountID, gObj[aIndex].Name, x, y);
; 16056: 
; 16057: #ifndef MODIFY_TELEPORT_SKILL_USING_PARTY_MEMBER_20060504
; 16058: 		//  ..   
; 16059: 		PMSG_TELEPORT_RESULT	pTeleportResult;
; 16060: 		pTeleportResult.h.c		= PMHCE_BYTE;
; 16061: 		pTeleportResult.h.size		= sizeof( pTeleportResult );
; 16062: 		pTeleportResult.h.headcode = 0x1C;
; 16063: 		pTeleportResult.MoveNumber = 0;
; 16064: 		pTeleportResult.MapNumber  = gObj[iTargetIndex].MapNumber;
; 16065: 		pTeleportResult.MapX		= gObj[iTargetIndex].X;
; 16066: 		pTeleportResult.MapY		= gObj[iTargetIndex].Y;
; 16067: 		pTeleportResult.Dir		= gObj[iTargetIndex].Dir;			
; 16068: 
; 16069: 		DataSend(iTargetIndex, (LPBYTE)&pTeleportResult, pTeleportResult.h.size);	
; 16070: #endif
; 16071: 		return;

  001ab	e9 3b 01 00 00	 jmp	 $LN1@CGTargetTe
$LN5@CGTargetTe:

; 16072: 	}
; 16073: 
; 16074: 
; 16075: 	if( lpMagic != NULL )

  001b0	83 7d fc 00	 cmp	 DWORD PTR _lpMagic$[ebp], 0
  001b4	0f 84 31 01 00
	00		 je	 $LN8@CGTargetTe

; 16076: 	{
; 16077: 		//  . (  ... )
; 16078: 		int usemana;
; 16079: 		usemana = gObjMagicManaUse(&gObj[aIndex], lpMagic);

  001ba	8b 45 fc	 mov	 eax, DWORD PTR _lpMagic$[ebp]
  001bd	50		 push	 eax
  001be	69 4d 0c a0 1b
	00 00		 imul	 ecx, DWORD PTR _aIndex$[ebp], 7072
  001c5	03 0d 00 00 00
	00		 add	 ecx, DWORD PTR ?gObj@@3PAVOBJECTSTRUCT@@A ; gObj
  001cb	51		 push	 ecx
  001cc	e8 00 00 00 00	 call	 ?gObjMagicManaUse@@YAHPAVOBJECTSTRUCT@@PAVCMagicInf@@@Z ; gObjMagicManaUse
  001d1	83 c4 08	 add	 esp, 8
  001d4	89 45 e8	 mov	 DWORD PTR _usemana$2[ebp], eax

; 16080: 		if( usemana >= 0 )

  001d7	83 7d e8 00	 cmp	 DWORD PTR _usemana$2[ebp], 0
  001db	0f 8c 0a 01 00
	00		 jl	 $LN8@CGTargetTe

; 16081: 		{
; 16082: #ifdef NEW_FORSKYLAND2
; 16083: 			int usebp = gObjMagicBPUse(&gObj[aIndex], lpMagic);

  001e1	8b 45 fc	 mov	 eax, DWORD PTR _lpMagic$[ebp]
  001e4	50		 push	 eax
  001e5	69 4d 0c a0 1b
	00 00		 imul	 ecx, DWORD PTR _aIndex$[ebp], 7072
  001ec	03 0d 00 00 00
	00		 add	 ecx, DWORD PTR ?gObj@@3PAVOBJECTSTRUCT@@A ; gObj
  001f2	51		 push	 ecx
  001f3	e8 00 00 00 00	 call	 ?gObjMagicBPUse@@YAHPAVOBJECTSTRUCT@@PAVCMagicInf@@@Z ; gObjMagicBPUse
  001f8	83 c4 08	 add	 esp, 8
  001fb	89 45 e4	 mov	 DWORD PTR _usebp$1[ebp], eax

; 16084: 			if( usebp >= 0 )

  001fe	83 7d e4 00	 cmp	 DWORD PTR _usebp$1[ebp], 0
  00202	0f 8c e3 00 00
	00		 jl	 $LN8@CGTargetTe

; 16085: #endif
; 16086: 			{				
; 16087: 				if( gObj[aIndex].Type == OBJTYPE_CHARACTER )

  00208	69 45 0c a0 1b
	00 00		 imul	 eax, DWORD PTR _aIndex$[ebp], 7072
  0020f	8b 0d 00 00 00
	00		 mov	 ecx, DWORD PTR ?gObj@@3PAVOBJECTSTRUCT@@A ; gObj
  00215	0f b7 54 01 64	 movzx	 edx, WORD PTR [ecx+eax+100]
  0021a	83 fa 01	 cmp	 edx, 1
  0021d	75 15		 jne	 SHORT $LN9@CGTargetTe

; 16088: 					DataSend(aIndex, (LPBYTE)&pAttack, pAttack.h.size);

  0021f	0f b6 45 f1	 movzx	 eax, BYTE PTR _pAttack$[ebp+1]
  00223	50		 push	 eax
  00224	8d 4d f0	 lea	 ecx, DWORD PTR _pAttack$[ebp]
  00227	51		 push	 ecx
  00228	8b 55 0c	 mov	 edx, DWORD PTR _aIndex$[ebp]
  0022b	52		 push	 edx
  0022c	e8 00 00 00 00	 call	 ?DataSend@@YAHHPAEK@Z	; DataSend
  00231	83 c4 0c	 add	 esp, 12			; 0000000cH
$LN9@CGTargetTe:

; 16089: 
; 16090: 				MsgSendV2(&gObj[aIndex], (LPBYTE)&pAttack, pAttack.h.size);

  00234	0f b6 45 f1	 movzx	 eax, BYTE PTR _pAttack$[ebp+1]
  00238	50		 push	 eax
  00239	8d 4d f0	 lea	 ecx, DWORD PTR _pAttack$[ebp]
  0023c	51		 push	 ecx
  0023d	69 55 0c a0 1b
	00 00		 imul	 edx, DWORD PTR _aIndex$[ebp], 7072
  00244	03 15 00 00 00
	00		 add	 edx, DWORD PTR ?gObj@@3PAVOBJECTSTRUCT@@A ; gObj
  0024a	52		 push	 edx
  0024b	e8 00 00 00 00	 call	 ?MsgSendV2@@YAXPAVOBJECTSTRUCT@@PAEH@Z ; MsgSendV2
  00250	83 c4 0c	 add	 esp, 12			; 0000000cH

; 16091: 				gObjTeleportMagicUse(iTargetIndex, x, y);

  00253	0f b6 45 fa	 movzx	 eax, BYTE PTR _y$[ebp]
  00257	50		 push	 eax
  00258	0f b6 4d fb	 movzx	 ecx, BYTE PTR _x$[ebp]
  0025c	51		 push	 ecx
  0025d	8b 55 ec	 mov	 edx, DWORD PTR _iTargetIndex$[ebp]
  00260	52		 push	 edx
  00261	e8 00 00 00 00	 call	 ?gObjTeleportMagicUse@@YAXHEE@Z ; gObjTeleportMagicUse
  00266	83 c4 0c	 add	 esp, 12			; 0000000cH

; 16092: 				gObj[aIndex].Mana = (float)usemana;

  00269	f3 0f 2a 45 e8	 cvtsi2ss xmm0, DWORD PTR _usemana$2[ebp]
  0026e	69 45 0c a0 1b
	00 00		 imul	 eax, DWORD PTR _aIndex$[ebp], 7072
  00275	8b 0d 00 00 00
	00		 mov	 ecx, DWORD PTR ?gObj@@3PAVOBJECTSTRUCT@@A ; gObj
  0027b	f3 0f 11 84 01
	d0 00 00 00	 movss	 DWORD PTR [ecx+eax+208], xmm0

; 16093: 
; 16094: #ifdef NEW_FORSKYLAND2
; 16095: 				gObj[aIndex].BP = usebp;

  00284	69 45 0c a0 1b
	00 00		 imul	 eax, DWORD PTR _aIndex$[ebp], 7072
  0028b	8b 0d 00 00 00
	00		 mov	 ecx, DWORD PTR ?gObj@@3PAVOBJECTSTRUCT@@A ; gObj
  00291	8b 55 e4	 mov	 edx, DWORD PTR _usebp$1[ebp]
  00294	89 94 01 e8 00
	00 00		 mov	 DWORD PTR [ecx+eax+232], edx

; 16096: 				GCManaSend(gObj[aIndex].m_Index, (short)gObj[aIndex].Mana, 0xFF, 0, gObj[aIndex].BP);

  0029b	69 45 0c a0 1b
	00 00		 imul	 eax, DWORD PTR _aIndex$[ebp], 7072
  002a2	8b 0d 00 00 00
	00		 mov	 ecx, DWORD PTR ?gObj@@3PAVOBJECTSTRUCT@@A ; gObj
  002a8	0f b7 94 01 e8
	00 00 00	 movzx	 edx, WORD PTR [ecx+eax+232]
  002b0	52		 push	 edx
  002b1	6a 00		 push	 0
  002b3	68 ff 00 00 00	 push	 255			; 000000ffH
  002b8	69 45 0c a0 1b
	00 00		 imul	 eax, DWORD PTR _aIndex$[ebp], 7072
  002bf	8b 0d 00 00 00
	00		 mov	 ecx, DWORD PTR ?gObj@@3PAVOBJECTSTRUCT@@A ; gObj
  002c5	f3 0f 2c 94 01
	d0 00 00 00	 cvttss2si edx, DWORD PTR [ecx+eax+208]
  002ce	0f b7 c2	 movzx	 eax, dx
  002d1	50		 push	 eax
  002d2	69 4d 0c a0 1b
	00 00		 imul	 ecx, DWORD PTR _aIndex$[ebp], 7072
  002d9	8b 15 00 00 00
	00		 mov	 edx, DWORD PTR ?gObj@@3PAVOBJECTSTRUCT@@A ; gObj
  002df	8b 04 0a	 mov	 eax, DWORD PTR [edx+ecx]
  002e2	50		 push	 eax
  002e3	e8 00 00 00 00	 call	 ?GCManaSend@@YAXHFEEG@Z	; GCManaSend
  002e8	83 c4 14	 add	 esp, 20			; 00000014H
$LN8@CGTargetTe:
$LN1@CGTargetTe:

; 16097: #else
; 16098: 				GCManaSend(gObj[aIndex].m_Index, (short)gObj[aIndex].Mana, 0xFF, 0, 0);
; 16099: #endif
; 16100: 			}
; 16101: 
; 16102: 		}
; 16103: 	}	
; 16104: }

  002eb	5f		 pop	 edi
  002ec	5e		 pop	 esi
  002ed	5b		 pop	 ebx
  002ee	8b e5		 mov	 esp, ebp
  002f0	5d		 pop	 ebp
  002f1	c3		 ret	 0
?CGTargetTeleportRecv@@YAXPAUPMSG_TARGET_TELEPORT@@H@Z ENDP ; CGTargetTeleportRecv
_TEXT	ENDS
; Function compile flags: /Odtp /ZI
; File C:\Mu Online\Mu-GS-Webzen-MC-10093\GameServer\protocol.cpp
;	COMDAT ?CGRequestLottoRegister@@YAXPAUPMSG_REQ_2ANV_LOTTO_EVENT@@H@Z
_TEXT	SEGMENT
_pMsg$ = -44						; size = 40
__$ArrayPad$ = -4					; size = 4
_lpMsg$ = 8						; size = 4
_aIndex$ = 12						; size = 4
?CGRequestLottoRegister@@YAXPAUPMSG_REQ_2ANV_LOTTO_EVENT@@H@Z PROC ; CGRequestLottoRegister, COMDAT

; 20767: {

  00000	55		 push	 ebp
  00001	8b ec		 mov	 ebp, esp
  00003	83 ec 6c	 sub	 esp, 108		; 0000006cH
  00006	a1 00 00 00 00	 mov	 eax, DWORD PTR ___security_cookie
  0000b	33 c5		 xor	 eax, ebp
  0000d	89 45 fc	 mov	 DWORD PTR __$ArrayPad$[ebp], eax
  00010	53		 push	 ebx
  00011	56		 push	 esi
  00012	57		 push	 edi

; 20768: 	PMSG_REQ_2ANIV_SERIAL	pMsg;
; 20769: 	PHeadSetB((LPBYTE)&pMsg, 0x08, sizeof(pMsg));

  00013	6a 28		 push	 40			; 00000028H
  00015	6a 08		 push	 8
  00017	8d 45 d4	 lea	 eax, DWORD PTR _pMsg$[ebp]
  0001a	50		 push	 eax
  0001b	e8 00 00 00 00	 call	 ?PHeadSetB@@YAXPAEEH@Z	; PHeadSetB
  00020	83 c4 0c	 add	 esp, 12			; 0000000cH

; 20770: 
; 20771: 	if (gObj[aIndex].UseEventServer) {

  00023	69 45 0c a0 1b
	00 00		 imul	 eax, DWORD PTR _aIndex$[ebp], 7072
  0002a	8b 0d 00 00 00
	00		 mov	 ecx, DWORD PTR ?gObj@@3PAVOBJECTSTRUCT@@A ; gObj
  00030	83 bc 01 84 0e
	00 00 00	 cmp	 DWORD PTR [ecx+eax+3716], 0
  00038	74 07		 je	 SHORT $LN2@CGRequestL

; 20772: 		return;

  0003a	e9 13 01 00 00	 jmp	 $LN1@CGRequestL

; 20773: 	}

  0003f	eb 18		 jmp	 SHORT $LN3@CGRequestL
$LN2@CGRequestL:

; 20774: 	else {
; 20775: 		gObj[aIndex].UseEventServer = TRUE;

  00041	69 45 0c a0 1b
	00 00		 imul	 eax, DWORD PTR _aIndex$[ebp], 7072
  00048	8b 0d 00 00 00
	00		 mov	 ecx, DWORD PTR ?gObj@@3PAVOBJECTSTRUCT@@A ; gObj
  0004e	c7 84 01 84 0e
	00 00 01 00 00
	00		 mov	 DWORD PTR [ecx+eax+3716], 1
$LN3@CGRequestL:

; 20776: 	}
; 20777: 
; 20778: 	pMsg.iINDEX = aIndex;

  00059	8b 45 0c	 mov	 eax, DWORD PTR _aIndex$[ebp]
  0005c	89 45 d8	 mov	 DWORD PTR _pMsg$[ebp+4], eax

; 20779: 	pMsg.iMEMB_GUID = gObj[aIndex].DBNumber;

  0005f	69 45 0c a0 1b
	00 00		 imul	 eax, DWORD PTR _aIndex$[ebp], 7072
  00066	8b 0d 00 00 00
	00		 mov	 ecx, DWORD PTR ?gObj@@3PAVOBJECTSTRUCT@@A ; gObj
  0006c	8b 54 01 2c	 mov	 edx, DWORD PTR [ecx+eax+44]
  00070	89 55 f8	 mov	 DWORD PTR _pMsg$[ebp+36], edx

; 20780: 	memcpy (pMsg.szUID, gObj[aIndex].AccountID, 10);	pMsg.szUID[10] = 0;

  00073	6a 0a		 push	 10			; 0000000aH
  00075	69 45 0c a0 1b
	00 00		 imul	 eax, DWORD PTR _aIndex$[ebp], 7072
  0007c	8b 0d 00 00 00
	00		 mov	 ecx, DWORD PTR ?gObj@@3PAVOBJECTSTRUCT@@A ; gObj
  00082	8d 54 01 68	 lea	 edx, DWORD PTR [ecx+eax+104]
  00086	52		 push	 edx
  00087	8d 45 dc	 lea	 eax, DWORD PTR _pMsg$[ebp+8]
  0008a	50		 push	 eax
  0008b	e8 00 00 00 00	 call	 _memcpy
  00090	83 c4 0c	 add	 esp, 12			; 0000000cH
  00093	b8 01 00 00 00	 mov	 eax, 1
  00098	6b c8 0a	 imul	 ecx, eax, 10
  0009b	c6 44 0d dc 00	 mov	 BYTE PTR _pMsg$[ebp+ecx+8], 0

; 20781: 	memcpy (pMsg.SERIAL1, lpMsg->SERIAL1, 4);			pMsg.SERIAL1[4] = 0;

  000a0	6a 04		 push	 4
  000a2	8b 45 08	 mov	 eax, DWORD PTR _lpMsg$[ebp]
  000a5	83 c0 03	 add	 eax, 3
  000a8	50		 push	 eax
  000a9	8d 4d e7	 lea	 ecx, DWORD PTR _pMsg$[ebp+19]
  000ac	51		 push	 ecx
  000ad	e8 00 00 00 00	 call	 _memcpy
  000b2	83 c4 0c	 add	 esp, 12			; 0000000cH
  000b5	b8 01 00 00 00	 mov	 eax, 1
  000ba	c1 e0 02	 shl	 eax, 2
  000bd	c6 44 05 e7 00	 mov	 BYTE PTR _pMsg$[ebp+eax+19], 0

; 20782: 	memcpy (pMsg.SERIAL2, lpMsg->SERIAL2, 4);			pMsg.SERIAL2[4] = 0;

  000c2	6a 04		 push	 4
  000c4	8b 45 08	 mov	 eax, DWORD PTR _lpMsg$[ebp]
  000c7	83 c0 08	 add	 eax, 8
  000ca	50		 push	 eax
  000cb	8d 4d ec	 lea	 ecx, DWORD PTR _pMsg$[ebp+24]
  000ce	51		 push	 ecx
  000cf	e8 00 00 00 00	 call	 _memcpy
  000d4	83 c4 0c	 add	 esp, 12			; 0000000cH
  000d7	b8 01 00 00 00	 mov	 eax, 1
  000dc	c1 e0 02	 shl	 eax, 2
  000df	c6 44 05 ec 00	 mov	 BYTE PTR _pMsg$[ebp+eax+24], 0

; 20783: 	memcpy (pMsg.SERIAL3, lpMsg->SERIAL3, 4);			pMsg.SERIAL3[4] = 0;

  000e4	6a 04		 push	 4
  000e6	8b 45 08	 mov	 eax, DWORD PTR _lpMsg$[ebp]
  000e9	83 c0 0d	 add	 eax, 13			; 0000000dH
  000ec	50		 push	 eax
  000ed	8d 4d f1	 lea	 ecx, DWORD PTR _pMsg$[ebp+29]
  000f0	51		 push	 ecx
  000f1	e8 00 00 00 00	 call	 _memcpy
  000f6	83 c4 0c	 add	 esp, 12			; 0000000cH
  000f9	b8 01 00 00 00	 mov	 eax, 1
  000fe	c1 e0 02	 shl	 eax, 2
  00101	c6 44 05 f1 00	 mov	 BYTE PTR _pMsg$[ebp+eax+29], 0

; 20784: 	 
; 20785: 	DataSendEventChip((char*)&pMsg, sizeof(pMsg));	

  00106	6a 28		 push	 40			; 00000028H
  00108	8d 45 d4	 lea	 eax, DWORD PTR _pMsg$[ebp]
  0010b	50		 push	 eax
  0010c	e8 00 00 00 00	 call	 ?DataSendEventChip@@YAXPADH@Z ; DataSendEventChip
  00111	83 c4 08	 add	 esp, 8

; 20786: 
; 20787: 	LogAddTD("[Mu_2Anv_Event] [%s][%s] Register Lotto Number (Serial: %s-%s-%s)", 

  00114	8d 45 f1	 lea	 eax, DWORD PTR _pMsg$[ebp+29]
  00117	50		 push	 eax
  00118	8d 4d ec	 lea	 ecx, DWORD PTR _pMsg$[ebp+24]
  0011b	51		 push	 ecx
  0011c	8d 55 e7	 lea	 edx, DWORD PTR _pMsg$[ebp+19]
  0011f	52		 push	 edx
  00120	69 45 0c a0 1b
	00 00		 imul	 eax, DWORD PTR _aIndex$[ebp], 7072
  00127	8b 0d 00 00 00
	00		 mov	 ecx, DWORD PTR ?gObj@@3PAVOBJECTSTRUCT@@A ; gObj
  0012d	8d 54 01 73	 lea	 edx, DWORD PTR [ecx+eax+115]
  00131	52		 push	 edx
  00132	69 45 0c a0 1b
	00 00		 imul	 eax, DWORD PTR _aIndex$[ebp], 7072
  00139	8b 0d 00 00 00
	00		 mov	 ecx, DWORD PTR ?gObj@@3PAVOBJECTSTRUCT@@A ; gObj
  0013f	8d 54 01 68	 lea	 edx, DWORD PTR [ecx+eax+104]
  00143	52		 push	 edx
  00144	68 00 00 00 00	 push	 OFFSET ??_C@_0EC@MLMNLDLI@?$FLMu_2Anv_Event?$FN?5?$FL?$CFs?$FN?$FL?$CFs?$FN?5Regist@
  00149	ff 15 00 00 00
	00		 call	 DWORD PTR ?LogAddTD@@3P6AXPADZZA ; LogAddTD
  0014f	83 c4 18	 add	 esp, 24			; 00000018H
$LN1@CGRequestL:

; 20788: 		   gObj[aIndex].AccountID, gObj[aIndex].Name,
; 20789: 		   pMsg.SERIAL1,
; 20790: 		   pMsg.SERIAL2,
; 20791: 		   pMsg.SERIAL3
; 20792: 		   );
; 20793: }

  00152	5f		 pop	 edi
  00153	5e		 pop	 esi
  00154	5b		 pop	 ebx
  00155	8b 4d fc	 mov	 ecx, DWORD PTR __$ArrayPad$[ebp]
  00158	33 cd		 xor	 ecx, ebp
  0015a	e8 00 00 00 00	 call	 @__security_check_cookie@4
  0015f	8b e5		 mov	 esp, ebp
  00161	5d		 pop	 ebp
  00162	c3		 ret	 0
?CGRequestLottoRegister@@YAXPAUPMSG_REQ_2ANV_LOTTO_EVENT@@H@Z ENDP ; CGRequestLottoRegister
_TEXT	ENDS
; Function compile flags: /Odtp /ZI
; File C:\Mu Online\Mu-GS-Webzen-MC-10093\GameServer\protocol.cpp
;	COMDAT ?CGRequestEventEnterCount@@YAXPAUPMSG_REQ_CL_ENTERCOUNT@@H@Z
_TEXT	SEGMENT
tv67 = -68						; size = 4
_lpMsg$ = 8						; size = 4
_aIndex$ = 12						; size = 4
?CGRequestEventEnterCount@@YAXPAUPMSG_REQ_CL_ENTERCOUNT@@H@Z PROC ; CGRequestEventEnterCount, COMDAT

; 20739: {

  00000	55		 push	 ebp
  00001	8b ec		 mov	 ebp, esp
  00003	83 ec 44	 sub	 esp, 68			; 00000044H
  00006	53		 push	 ebx
  00007	56		 push	 esi
  00008	57		 push	 edi

; 20740: 	if (lpMsg == NULL)

  00009	83 7d 08 00	 cmp	 DWORD PTR _lpMsg$[ebp], 0
  0000d	75 02		 jne	 SHORT $LN4@CGRequestE

; 20741: 		return;

  0000f	eb 1f		 jmp	 SHORT $LN1@CGRequestE
$LN4@CGRequestE:

; 20742: 
; 20743: 	switch (lpMsg->btEventType) {

  00011	8b 45 08	 mov	 eax, DWORD PTR _lpMsg$[ebp]
  00014	8a 48 03	 mov	 cl, BYTE PTR [eax+3]
  00017	88 4d bc	 mov	 BYTE PTR tv67[ebp], cl
  0001a	80 7d bc 02	 cmp	 BYTE PTR tv67[ebp], 2
  0001e	74 04		 je	 SHORT $LN6@CGRequestE
  00020	eb 0e		 jmp	 SHORT $LN1@CGRequestE

; 20744: 	case 1 :		// 
; 20745: #ifdef DEVILSQUARE_CHECK_ENTERCOUNT_20040715
; 20746: 		EGReqDevilSquareEnterCount	(aIndex);
; 20747: #endif
; 20748: 		break;

  00022	eb 0c		 jmp	 SHORT $LN1@CGRequestE
$LN6@CGRequestE:

; 20749: 	case 2 :		// 
; 20750: 		EGReqBloodCastleEnterCount	(aIndex);

  00024	8b 45 0c	 mov	 eax, DWORD PTR _aIndex$[ebp]
  00027	50		 push	 eax
  00028	e8 00 00 00 00	 call	 ?EGReqBloodCastleEnterCount@@YAXH@Z ; EGReqBloodCastleEnterCount
  0002d	83 c4 04	 add	 esp, 4
$LN1@CGRequestE:

; 20751: 		break;
; 20752: #ifdef ADD_SEASON_3_NEW_UI_20071122	//   
; 20753: 	case 3:
; 20754: 		g_IllusionTempleEvent.EGReqIllusionTempleEnterCount(aIndex);
; 20755: 		break;
; 20756: #endif
; 20757: 	}
; 20758: 
; 20759: }

  00030	5f		 pop	 edi
  00031	5e		 pop	 esi
  00032	5b		 pop	 ebx
  00033	8b e5		 mov	 esp, ebp
  00035	5d		 pop	 ebp
  00036	c3		 ret	 0
?CGRequestEventEnterCount@@YAXPAUPMSG_REQ_CL_ENTERCOUNT@@H@Z ENDP ; CGRequestEventEnterCount
_TEXT	ENDS
; Function compile flags: /Odtp /ZI
; File C:\Mu Online\Mu-GS-Webzen-MC-10093\GameServer\protocol.cpp
;	COMDAT ?CGRequestRepositionUserInChaosCastle@@YAXPAUPMSG_REQ_REPOSUSER_IN_CC@@H@Z
_TEXT	SEGMENT
tv77 = -72						; size = 4
tv78 = -68						; size = 4
_lpMsg$ = 8						; size = 4
_aIndex$ = 12						; size = 4
?CGRequestRepositionUserInChaosCastle@@YAXPAUPMSG_REQ_REPOSUSER_IN_CC@@H@Z PROC ; CGRequestRepositionUserInChaosCastle, COMDAT

; 20715: {

  00000	55		 push	 ebp
  00001	8b ec		 mov	 ebp, esp
