; Listing generated by Microsoft (R) Optimizing Compiler Version 19.27.29111.0 

	TITLE	C:\Mu Online\Mu-GS-Webzen-MC-10093\GameServer\QuestInfo.cpp
	.686P
	.XMM
	include listing.inc
	.model	flat

INCLUDELIB LIBCMT
INCLUDELIB OLDNAMES

PUBLIC	?QuestBitMask@@3PAEA				; QuestBitMask
PUBLIC	?sQuestString@@3PAY0DC@DA			; sQuestString
_BSS	SEGMENT
?QuestBitMask@@3PAEA DB 08H DUP (?)			; QuestBitMask
_BSS	ENDS
_DATA	SEGMENT
?sQuestString@@3PAY0DC@DA DB 'None', 00H		; sQuestString
	ORG $+45
	DB	'Accept', 00H
	ORG $+43
	DB	'Clear', 00H
	ORG $+44
	DB	'None', 00H
	ORG $+45
_DATA	ENDS
PUBLIC	?__empty_global_delete@@YAXPAX@Z		; __empty_global_delete
PUBLIC	?__empty_global_delete@@YAXPAXI@Z		; __empty_global_delete
PUBLIC	??0CQuestInfo@@QAE@XZ				; CQuestInfo::CQuestInfo
PUBLIC	??1CQuestInfo@@UAE@XZ				; CQuestInfo::~CQuestInfo
PUBLIC	?Init@CQuestInfo@@QAEXXZ			; CQuestInfo::Init
PUBLIC	?IsQuest@CQuestInfo@@QAEHH@Z			; CQuestInfo::IsQuest
PUBLIC	?GetQeustCount@CQuestInfo@@QAEHXZ		; CQuestInfo::GetQeustCount
PUBLIC	?LoadQuestInfo@CQuestInfo@@QAEHPAD@Z		; CQuestInfo::LoadQuestInfo
PUBLIC	?InitQuestItem@CQuestInfo@@QAEXXZ		; CQuestInfo::InitQuestItem
PUBLIC	?GetQuestInfo@CQuestInfo@@QAEPAUQUEST_INFO@@H@Z	; CQuestInfo::GetQuestInfo
PUBLIC	?GetSubquestInfo@CQuestInfo@@QAEPAUQUEST_SUB_INFO@@PAVOBJECTSTRUCT@@PAUQUEST_INFO@@H@Z ; CQuestInfo::GetSubquestInfo
PUBLIC	?GetQuestCondition@CQuestInfo@@QAEPAUQUEST_CONDITION@@PAUQUEST_INFO@@H@Z ; CQuestInfo::GetQuestCondition
PUBLIC	?GetQuestState@CQuestInfo@@QAEHPAVOBJECTSTRUCT@@H@Z ; CQuestInfo::GetQuestState
PUBLIC	?GetQuestStateBYTE@CQuestInfo@@QAEEPAVOBJECTSTRUCT@@H@Z ; CQuestInfo::GetQuestStateBYTE
PUBLIC	?SetQuestState@CQuestInfo@@QAEEPAVOBJECTSTRUCT@@HH@Z ; CQuestInfo::SetQuestState
PUBLIC	?ReSetQuestState@CQuestInfo@@QAEEPAVOBJECTSTRUCT@@H@Z ; CQuestInfo::ReSetQuestState
PUBLIC	?QuestClearConditionCheck@CQuestInfo@@QAEEPAVOBJECTSTRUCT@@H@Z ; CQuestInfo::QuestClearConditionCheck
PUBLIC	?QuestRunConditionCheck@CQuestInfo@@QAEEPAVOBJECTSTRUCT@@H@Z ; CQuestInfo::QuestRunConditionCheck
PUBLIC	?CompareCondition@CQuestInfo@@QAEHPAVOBJECTSTRUCT@@PAUQUEST_CONDITION@@@Z ; CQuestInfo::CompareCondition
PUBLIC	?NpcTalk@CQuestInfo@@QAEHPAVOBJECTSTRUCT@@0@Z	; CQuestInfo::NpcTalk
PUBLIC	?MonsterItemDrop@CQuestInfo@@QAEHPAVOBJECTSTRUCT@@@Z ; CQuestInfo::MonsterItemDrop
PUBLIC	?QuestAccept@CQuestInfo@@QAEHPAVOBJECTSTRUCT@@H@Z ; CQuestInfo::QuestAccept
PUBLIC	?QuestClear@CQuestInfo@@QAEHPAVOBJECTSTRUCT@@H@Z ; CQuestInfo::QuestClear
PUBLIC	?QuestInfoSave@CQuestInfo@@QAEXPAVOBJECTSTRUCT@@@Z ; CQuestInfo::QuestInfoSave
PUBLIC	??_GCQuestInfo@@UAEPAXI@Z			; CQuestInfo::`scalar deleting destructor'
PUBLIC	??_7CQuestInfo@@6B@				; CQuestInfo::`vftable'
PUBLIC	?g_QuestInfo@@3VCQuestInfo@@A			; g_QuestInfo
PUBLIC	??_C@_01KDCPPGHE@r@				; `string'
PUBLIC	??_C@_0O@NOCIMNHO@load?5error?5?$CFs@		; `string'
PUBLIC	??_C@_03JBJLGPFL@end@				; `string'
PUBLIC	??_C@_0CO@IPPCPA@?$FLQuest?$FN?5?$CI?$CFs?$CJ?5Load?5?3?5Index?5?$CFd?0?5S@ ; `string'
PUBLIC	??_C@_0BF@JAOCNINL@Quest?5Info?5Read?5Fail@	; `string'
PUBLIC	??_C@_0BK@EGHNLLGE@?$FLQuest?$FN?5?$FLSetQuestItem?$FN?5?$CFs@ ; `string'
PUBLIC	??_C@_0CC@BPALCPGE@?$FLQuest?$FN?5AcceptQuest?5?$FL?$CFs?$FN?$FL?$CFs?$FN?5?$CI?$CF@ ; `string'
PUBLIC	??_C@_0CB@KKBMLGHJ@?$FLQuest?$FN?5ClearQuest?5?$FL?$CFs?$FN?$FL?$CFs?$FN?5?$CI?$CFs@ ; `string'
PUBLIC	??_C@_0DE@CLGCKBPA@?$FLQuest?$FN?5Quest?5Item?5Drop?5?$FL?$CFs?$FN?3?5?$FL@ ; `string'
PUBLIC	??_C@_0DK@OGOONICP@?$FLQuest?$FN?5Quest?5Clear?5?$CI?$CFs?$CJ?5?3?5?$FL?$CFs?$FN@ ; `string'
PUBLIC	??_C@_0DA@FJIJPLFD@?$FLQuest?$FN?5Quest?5Clear?5?$CI?$CFs?$CJ?5?3?5?$FL?$CFs?$FN@ ; `string'
PUBLIC	??_C@_0DK@CADKKHAN@?$FLQuest?$FN?5Quest?5Clear?5?$CI?$CFs?$CJ?5?3?5?$FL?$CFs?$FN@ ; `string'
PUBLIC	??_C@_0CP@JAPDAPMO@?$FLQuest?$FN?5Quest?5Clear?5?$CI?$CFs?$CJ?5?3?5?$FL?$CFs?$FN@ ; `string'
PUBLIC	??_C@_0DI@HHHLGGKH@?$FLQuest?$FN?5QuestSave?5?$FL?$CFs?$FN?$FL?$CFs?$FN?5inde@ ; `string'
PUBLIC	??_R4CQuestInfo@@6B@				; CQuestInfo::`RTTI Complete Object Locator'
PUBLIC	??_R0?AVCQuestInfo@@@8				; CQuestInfo `RTTI Type Descriptor'
PUBLIC	??_R3CQuestInfo@@8				; CQuestInfo::`RTTI Class Hierarchy Descriptor'
PUBLIC	??_R2CQuestInfo@@8				; CQuestInfo::`RTTI Base Class Array'
PUBLIC	??_R1A@?0A@EA@CQuestInfo@@8			; CQuestInfo::`RTTI Base Class Descriptor at (0,-1,0,64)'
EXTRN	??3@YAXPAXI@Z:PROC				; operator delete
EXTRN	_atexit:PROC
EXTRN	___report_rangecheckfailure:PROC
EXTRN	_isalpha:PROC
EXTRN	_isdigit:PROC
EXTRN	_isspace:PROC
EXTRN	_isalnum:PROC
EXTRN	_memset:PROC
EXTRN	_strcmp:PROC
EXTRN	_strcpy:PROC
EXTRN	_fclose:PROC
EXTRN	_fgetc:PROC
EXTRN	_fopen:PROC
EXTRN	_getc:PROC
EXTRN	_ungetc:PROC
EXTRN	_rand:PROC
EXTRN	_atof:PROC
EXTRN	?MsgBox@@YAXPADZZ:PROC				; MsgBox
EXTRN	?ItemGetNumberMake@@YAHHH@Z:PROC		; ItemGetNumberMake
EXTRN	?gObjMakePreviewCharSet@@YAXH@Z:PROC		; gObjMakePreviewCharSet
EXTRN	?gObjGetItemCountInIventory@@YAHHHHH@Z:PROC	; gObjGetItemCountInIventory
EXTRN	?gObjDelteItemCountInInventory@@YAXHHHH@Z:PROC	; gObjDelteItemCountInInventory
EXTRN	?GCMoneySend@@YAXHK@Z:PROC			; GCMoneySend
EXTRN	?GCSendQuestInfo@@YAXHH@Z:PROC			; GCSendQuestInfo
EXTRN	?GCSendQuestPrize@@YAXHEE@Z:PROC		; GCSendQuestPrize
EXTRN	??_ECQuestInfo@@UAEPAXI@Z:PROC			; CQuestInfo::`vector deleting destructor'
EXTRN	?GetPartyCount@PartyClass@@QAEHH@Z:PROC		; PartyClass::GetPartyCount
EXTRN	?gObjMonsterTopHitDamageUser@@YAHPAVOBJECTSTRUCT@@@Z:PROC ; gObjMonsterTopHitDamageUser
EXTRN	?ItemSerialCreateSend@@YAXHEEEHEEEEEHEEH@Z:PROC	; ItemSerialCreateSend
EXTRN	@__security_check_cookie@4:PROC
EXTRN	??_7type_info@@6B@:QWORD			; type_info::`vftable'
EXTRN	?LogAdd@@3P6AXPADZZA:DWORD			; LogAdd
EXTRN	?LogAddTD@@3P6AXPADZZA:DWORD			; LogAddTD
EXTRN	?ItemAttribute@@3PAUITEM_ATTRIBUTE@@A:BYTE	; ItemAttribute
EXTRN	?gObj@@3PAVOBJECTSTRUCT@@A:DWORD		; gObj
EXTRN	?gParty@@3VPartyClass@@A:BYTE			; gParty
EXTRN	___security_cookie:DWORD
EXTRN	__fltused:DWORD
_BSS	SEGMENT
?SMDFile@@3PAU_iobuf@@A DD 01H DUP (?)			; SMDFile
?TokenNumber@@3MA DD 01H DUP (?)			; TokenNumber
?TokenString@@3PADA DB 064H DUP (?)			; TokenString
?CurrentToken@@3W4SMDToken@@A DD 01H DUP (?)		; CurrentToken
?g_QuestInfo@@3VCQuestInfo@@A DB 034588H DUP (?)	; g_QuestInfo
_BSS	ENDS
CRT$XCU	SEGMENT
?g_QuestInfo$initializer$@@3P6AXXZA DD FLAT:??__Eg_QuestInfo@@YAXXZ ; g_QuestInfo$initializer$
CRT$XCU	ENDS
;	COMDAT ??_R1A@?0A@EA@CQuestInfo@@8
rdata$r	SEGMENT
??_R1A@?0A@EA@CQuestInfo@@8 DD FLAT:??_R0?AVCQuestInfo@@@8 ; CQuestInfo::`RTTI Base Class Descriptor at (0,-1,0,64)'
	DD	00H
	DD	00H
	DD	0ffffffffH
	DD	00H
	DD	040H
	DD	FLAT:??_R3CQuestInfo@@8
rdata$r	ENDS
;	COMDAT ??_R2CQuestInfo@@8
rdata$r	SEGMENT
??_R2CQuestInfo@@8 DD FLAT:??_R1A@?0A@EA@CQuestInfo@@8	; CQuestInfo::`RTTI Base Class Array'
rdata$r	ENDS
;	COMDAT ??_R3CQuestInfo@@8
rdata$r	SEGMENT
??_R3CQuestInfo@@8 DD 00H				; CQuestInfo::`RTTI Class Hierarchy Descriptor'
	DD	00H
	DD	01H
	DD	FLAT:??_R2CQuestInfo@@8
rdata$r	ENDS
;	COMDAT ??_R0?AVCQuestInfo@@@8
data$r	SEGMENT
??_R0?AVCQuestInfo@@@8 DD FLAT:??_7type_info@@6B@	; CQuestInfo `RTTI Type Descriptor'
	DD	00H
	DB	'.?AVCQuestInfo@@', 00H
data$r	ENDS
;	COMDAT ??_R4CQuestInfo@@6B@
rdata$r	SEGMENT
??_R4CQuestInfo@@6B@ DD 00H				; CQuestInfo::`RTTI Complete Object Locator'
	DD	00H
	DD	00H
	DD	FLAT:??_R0?AVCQuestInfo@@@8
	DD	FLAT:??_R3CQuestInfo@@8
rdata$r	ENDS
;	COMDAT ??_C@_0DI@HHHLGGKH@?$FLQuest?$FN?5QuestSave?5?$FL?$CFs?$FN?$FL?$CFs?$FN?5inde@
CONST	SEGMENT
??_C@_0DI@HHHLGGKH@?$FLQuest?$FN?5QuestSave?5?$FL?$CFs?$FN?$FL?$CFs?$FN?5inde@ DB '['
	DB	'Quest] QuestSave [%s][%s] index(%d) name(%s) state(%s)', 00H ; `string'
CONST	ENDS
;	COMDAT ??_C@_0CP@JAPDAPMO@?$FLQuest?$FN?5Quest?5Clear?5?$CI?$CFs?$CJ?5?3?5?$FL?$CFs?$FN@
CONST	SEGMENT
??_C@_0CP@JAPDAPMO@?$FLQuest?$FN?5Quest?5Clear?5?$CI?$CFs?$CJ?5?3?5?$FL?$CFs?$FN@ DB '['
	DB	'Quest] Quest Clear (%s) : [%s][%s] ComboSkill', 00H ; `string'
CONST	ENDS
;	COMDAT ??_C@_0DK@CADKKHAN@?$FLQuest?$FN?5Quest?5Clear?5?$CI?$CFs?$CJ?5?3?5?$FL?$CFs?$FN@
CONST	SEGMENT
??_C@_0DK@CADKKHAN@?$FLQuest?$FN?5Quest?5Clear?5?$CI?$CFs?$CJ?5?3?5?$FL?$CFs?$FN@ DB '['
	DB	'Quest] Quest Clear (%s) : [%s][%s] Stat(%d,%d), PlusStat', 00H ; `string'
CONST	ENDS
;	COMDAT ??_C@_0DA@FJIJPLFD@?$FLQuest?$FN?5Quest?5Clear?5?$CI?$CFs?$CJ?5?3?5?$FL?$CFs?$FN@
CONST	SEGMENT
??_C@_0DA@FJIJPLFD@?$FLQuest?$FN?5Quest?5Clear?5?$CI?$CFs?$CJ?5?3?5?$FL?$CFs?$FN@ DB '['
	DB	'Quest] Quest Clear (%s) : [%s][%s] Stat(%d,%d)', 00H ; `string'
CONST	ENDS
;	COMDAT ??_C@_0DK@OGOONICP@?$FLQuest?$FN?5Quest?5Clear?5?$CI?$CFs?$CJ?5?3?5?$FL?$CFs?$FN@
CONST	SEGMENT
??_C@_0DK@OGOONICP@?$FLQuest?$FN?5Quest?5Clear?5?$CI?$CFs?$CJ?5?3?5?$FL?$CFs?$FN@ DB '['
	DB	'Quest] Quest Clear (%s) : [%s][%s] Stat(%d,%d), ChangeUp', 00H ; `string'
CONST	ENDS
;	COMDAT ??_C@_0DE@CLGCKBPA@?$FLQuest?$FN?5Quest?5Item?5Drop?5?$FL?$CFs?$FN?3?5?$FL@
CONST	SEGMENT
??_C@_0DE@CLGCKBPA@?$FLQuest?$FN?5Quest?5Item?5Drop?5?$FL?$CFs?$FN?3?5?$FL@ DB '['
	DB	'Quest] Quest Item Drop [%s]: [%s][%s] (%s) (%d,%d)', 00H ; `string'
CONST	ENDS
;	COMDAT ??_C@_0CB@KKBMLGHJ@?$FLQuest?$FN?5ClearQuest?5?$FL?$CFs?$FN?$FL?$CFs?$FN?5?$CI?$CFs@
CONST	SEGMENT
??_C@_0CB@KKBMLGHJ@?$FLQuest?$FN?5ClearQuest?5?$FL?$CFs?$FN?$FL?$CFs?$FN?5?$CI?$CFs@ DB '['
	DB	'Quest] ClearQuest [%s][%s] (%s)', 00H	; `string'
CONST	ENDS
;	COMDAT ??_C@_0CC@BPALCPGE@?$FLQuest?$FN?5AcceptQuest?5?$FL?$CFs?$FN?$FL?$CFs?$FN?5?$CI?$CF@
CONST	SEGMENT
??_C@_0CC@BPALCPGE@?$FLQuest?$FN?5AcceptQuest?5?$FL?$CFs?$FN?$FL?$CFs?$FN?5?$CI?$CF@ DB '['
	DB	'Quest] AcceptQuest [%s][%s] (%s)', 00H	; `string'
CONST	ENDS
;	COMDAT ??_C@_0BK@EGHNLLGE@?$FLQuest?$FN?5?$FLSetQuestItem?$FN?5?$CFs@
CONST	SEGMENT
??_C@_0BK@EGHNLLGE@?$FLQuest?$FN?5?$FLSetQuestItem?$FN?5?$CFs@ DB '[Quest'
	DB	'] [SetQuestItem] %s', 00H			; `string'
CONST	ENDS
;	COMDAT ??_C@_0BF@JAOCNINL@Quest?5Info?5Read?5Fail@
CONST	SEGMENT
??_C@_0BF@JAOCNINL@Quest?5Info?5Read?5Fail@ DB 'Quest Info Read Fail', 00H ; `string'
CONST	ENDS
;	COMDAT ??_C@_0CO@IPPCPA@?$FLQuest?$FN?5?$CI?$CFs?$CJ?5Load?5?3?5Index?5?$CFd?0?5S@
CONST	SEGMENT
??_C@_0CO@IPPCPA@?$FLQuest?$FN?5?$CI?$CFs?$CJ?5Load?5?3?5Index?5?$CFd?0?5S@ DB '['
	DB	'Quest] (%s) Load : Index %d, SubInfoCount %d', 00H ; `string'
CONST	ENDS
;	COMDAT ??_C@_03JBJLGPFL@end@
CONST	SEGMENT
??_C@_03JBJLGPFL@end@ DB 'end', 00H			; `string'
CONST	ENDS
;	COMDAT ??_C@_0O@NOCIMNHO@load?5error?5?$CFs@
CONST	SEGMENT
??_C@_0O@NOCIMNHO@load?5error?5?$CFs@ DB 'load error %s', 00H ; `string'
CONST	ENDS
;	COMDAT ??_C@_01KDCPPGHE@r@
CONST	SEGMENT
??_C@_01KDCPPGHE@r@ DB 'r', 00H				; `string'
CONST	ENDS
;	COMDAT ??_7CQuestInfo@@6B@
CONST	SEGMENT
??_7CQuestInfo@@6B@ DD FLAT:??_R4CQuestInfo@@6B@	; CQuestInfo::`vftable'
	DD	FLAT:??_ECQuestInfo@@UAEPAXI@Z
CONST	ENDS
; Function compile flags: /Odtp /ZI
;	COMDAT ??__Fg_QuestInfo@@YAXXZ
text$yd	SEGMENT
??__Fg_QuestInfo@@YAXXZ PROC				; `dynamic atexit destructor for 'g_QuestInfo'', COMDAT
  00000	55		 push	 ebp
  00001	8b ec		 mov	 ebp, esp
  00003	83 ec 40	 sub	 esp, 64			; 00000040H
  00006	53		 push	 ebx
  00007	56		 push	 esi
  00008	57		 push	 edi
  00009	b9 00 00 00 00	 mov	 ecx, OFFSET ?g_QuestInfo@@3VCQuestInfo@@A ; g_QuestInfo
  0000e	e8 00 00 00 00	 call	 ??1CQuestInfo@@UAE@XZ	; CQuestInfo::~CQuestInfo
  00013	5f		 pop	 edi
  00014	5e		 pop	 esi
  00015	5b		 pop	 ebx
  00016	8b e5		 mov	 esp, ebp
  00018	5d		 pop	 ebp
  00019	c3		 ret	 0
??__Fg_QuestInfo@@YAXXZ ENDP				; `dynamic atexit destructor for 'g_QuestInfo''
text$yd	ENDS
; Function compile flags: /Odtp /ZI
; File C:\Mu Online\Mu-GS-Webzen-MC-10093\GameServer\QuestInfo.cpp
;	COMDAT ??__Eg_QuestInfo@@YAXXZ
text$di	SEGMENT
??__Eg_QuestInfo@@YAXXZ PROC				; `dynamic initializer for 'g_QuestInfo'', COMDAT

; 44   : CQuestInfo	g_QuestInfo;

  00000	55		 push	 ebp
  00001	8b ec		 mov	 ebp, esp
  00003	83 ec 40	 sub	 esp, 64			; 00000040H
  00006	53		 push	 ebx
  00007	56		 push	 esi
  00008	57		 push	 edi
  00009	b9 00 00 00 00	 mov	 ecx, OFFSET ?g_QuestInfo@@3VCQuestInfo@@A ; g_QuestInfo
  0000e	e8 00 00 00 00	 call	 ??0CQuestInfo@@QAE@XZ	; CQuestInfo::CQuestInfo
  00013	68 00 00 00 00	 push	 OFFSET ??__Fg_QuestInfo@@YAXXZ ; `dynamic atexit destructor for 'g_QuestInfo''
  00018	e8 00 00 00 00	 call	 _atexit
  0001d	83 c4 04	 add	 esp, 4
  00020	5f		 pop	 edi
  00021	5e		 pop	 esi
  00022	5b		 pop	 ebx
  00023	8b e5		 mov	 esp, ebp
  00025	5d		 pop	 ebp
  00026	c3		 ret	 0
??__Eg_QuestInfo@@YAXXZ ENDP				; `dynamic initializer for 'g_QuestInfo''
text$di	ENDS
; Function compile flags: /Odtp /ZI
;	COMDAT ??_GCQuestInfo@@UAEPAXI@Z
_TEXT	SEGMENT
_this$ = -4						; size = 4
___flags$ = 8						; size = 4
??_GCQuestInfo@@UAEPAXI@Z PROC				; CQuestInfo::`scalar deleting destructor', COMDAT
; _this$ = ecx
  00000	55		 push	 ebp
  00001	8b ec		 mov	 ebp, esp
  00003	83 ec 44	 sub	 esp, 68			; 00000044H
  00006	53		 push	 ebx
  00007	56		 push	 esi
  00008	57		 push	 edi
  00009	89 4d fc	 mov	 DWORD PTR _this$[ebp], ecx
  0000c	8b 4d fc	 mov	 ecx, DWORD PTR _this$[ebp]
  0000f	e8 00 00 00 00	 call	 ??1CQuestInfo@@UAE@XZ	; CQuestInfo::~CQuestInfo
  00014	8b 45 08	 mov	 eax, DWORD PTR ___flags$[ebp]
  00017	83 e0 01	 and	 eax, 1
  0001a	74 11		 je	 SHORT $LN2@scalar
  0001c	68 88 45 03 00	 push	 214408			; 00034588H
  00021	8b 45 fc	 mov	 eax, DWORD PTR _this$[ebp]
  00024	50		 push	 eax
  00025	e8 00 00 00 00	 call	 ??3@YAXPAXI@Z		; operator delete
  0002a	83 c4 08	 add	 esp, 8
$LN2@scalar:
  0002d	8b 45 fc	 mov	 eax, DWORD PTR _this$[ebp]
  00030	5f		 pop	 edi
  00031	5e		 pop	 esi
  00032	5b		 pop	 ebx
  00033	8b e5		 mov	 esp, ebp
  00035	5d		 pop	 ebp
  00036	c2 04 00	 ret	 4
??_GCQuestInfo@@UAEPAXI@Z ENDP				; CQuestInfo::`scalar deleting destructor'
_TEXT	ENDS
; Function compile flags: /Odtp /ZI
; File C:\Mu Online\Mu-GS-Webzen-MC-10093\GameServer\QuestInfo.cpp
;	COMDAT ?QuestInfoSave@CQuestInfo@@QAEXPAVOBJECTSTRUCT@@@Z
_TEXT	SEGMENT
_i$1 = -20						; size = 4
_lpQuestInfo$ = -16					; size = 4
_foundquest$ = -12					; size = 4
_questcount$ = -8					; size = 4
_this$ = -4						; size = 4
_lpObj$ = 8						; size = 4
?QuestInfoSave@CQuestInfo@@QAEXPAVOBJECTSTRUCT@@@Z PROC	; CQuestInfo::QuestInfoSave, COMDAT
; _this$ = ecx

; 1283 : {

  00000	55		 push	 ebp
  00001	8b ec		 mov	 ebp, esp
  00003	83 ec 54	 sub	 esp, 84			; 00000054H
  00006	53		 push	 ebx
  00007	56		 push	 esi
  00008	57		 push	 edi
  00009	89 4d fc	 mov	 DWORD PTR _this$[ebp], ecx

; 1284 : 	int questcount = GetQeustCount();

  0000c	8b 4d fc	 mov	 ecx, DWORD PTR _this$[ebp]
  0000f	e8 00 00 00 00	 call	 ?GetQeustCount@CQuestInfo@@QAEHXZ ; CQuestInfo::GetQeustCount
  00014	89 45 f8	 mov	 DWORD PTR _questcount$[ebp], eax

; 1285 : 	int	foundquest = 0;

  00017	c7 45 f4 00 00
	00 00		 mov	 DWORD PTR _foundquest$[ebp], 0

; 1286 : 
; 1287 : 	LPQUEST_INFO lpQuestInfo;	
; 1288 : 
; 1289 : 	for( int i = 0; i < MAX_QUEST; i++ )

  0001e	c7 45 ec 00 00
	00 00		 mov	 DWORD PTR _i$1[ebp], 0
  00025	eb 09		 jmp	 SHORT $LN4@QuestInfoS
$LN2@QuestInfoS:
  00027	8b 45 ec	 mov	 eax, DWORD PTR _i$1[ebp]
  0002a	83 c0 01	 add	 eax, 1
  0002d	89 45 ec	 mov	 DWORD PTR _i$1[ebp], eax
$LN4@QuestInfoS:
  00030	81 7d ec c8 00
	00 00		 cmp	 DWORD PTR _i$1[ebp], 200 ; 000000c8H
  00037	7d 6a		 jge	 SHORT $LN1@QuestInfoS

; 1290 : 	{
; 1291 : 		lpQuestInfo = GetQuestInfo(i);

  00039	8b 45 ec	 mov	 eax, DWORD PTR _i$1[ebp]
  0003c	50		 push	 eax
  0003d	8b 4d fc	 mov	 ecx, DWORD PTR _this$[ebp]
  00040	e8 00 00 00 00	 call	 ?GetQuestInfo@CQuestInfo@@QAEPAUQUEST_INFO@@H@Z ; CQuestInfo::GetQuestInfo
  00045	89 45 f0	 mov	 DWORD PTR _lpQuestInfo$[ebp], eax

; 1292 : 		if( !lpQuestInfo )			

  00048	83 7d f0 00	 cmp	 DWORD PTR _lpQuestInfo$[ebp], 0
  0004c	75 02		 jne	 SHORT $LN5@QuestInfoS

; 1293 : 			continue;

  0004e	eb d7		 jmp	 SHORT $LN2@QuestInfoS
$LN5@QuestInfoS:

; 1294 : 
; 1295 : 		LogAddTD("[Quest] QuestSave [%s][%s] index(%d) name(%s) state(%s)", 

  00050	8b 45 ec	 mov	 eax, DWORD PTR _i$1[ebp]
  00053	50		 push	 eax
  00054	8b 4d 08	 mov	 ecx, DWORD PTR _lpObj$[ebp]
  00057	51		 push	 ecx
  00058	8b 4d fc	 mov	 ecx, DWORD PTR _this$[ebp]
  0005b	e8 00 00 00 00	 call	 ?GetQuestState@CQuestInfo@@QAEHPAVOBJECTSTRUCT@@H@Z ; CQuestInfo::GetQuestState
  00060	6b d0 32	 imul	 edx, eax, 50
  00063	81 c2 00 00 00
	00		 add	 edx, OFFSET ?sQuestString@@3PAY0DC@DA ; sQuestString
  00069	52		 push	 edx
  0006a	8b 45 f0	 mov	 eax, DWORD PTR _lpQuestInfo$[ebp]
  0006d	50		 push	 eax
  0006e	8b 4d ec	 mov	 ecx, DWORD PTR _i$1[ebp]
  00071	51		 push	 ecx
  00072	8b 55 08	 mov	 edx, DWORD PTR _lpObj$[ebp]
  00075	83 c2 73	 add	 edx, 115		; 00000073H
  00078	52		 push	 edx
  00079	8b 45 08	 mov	 eax, DWORD PTR _lpObj$[ebp]
  0007c	83 c0 68	 add	 eax, 104		; 00000068H
  0007f	50		 push	 eax
  00080	68 00 00 00 00	 push	 OFFSET ??_C@_0DI@HHHLGGKH@?$FLQuest?$FN?5QuestSave?5?$FL?$CFs?$FN?$FL?$CFs?$FN?5inde@
  00085	ff 15 00 00 00
	00		 call	 DWORD PTR ?LogAddTD@@3P6AXPADZZA ; LogAddTD
  0008b	83 c4 18	 add	 esp, 24			; 00000018H

; 1296 : 			     lpObj->AccountID, lpObj->Name, 
; 1297 : 				 i, lpQuestInfo->Name, sQuestString[GetQuestState(lpObj, i)]);
; 1298 : 		
; 1299 : 		foundquest++;

  0008e	8b 45 f4	 mov	 eax, DWORD PTR _foundquest$[ebp]
  00091	83 c0 01	 add	 eax, 1
  00094	89 45 f4	 mov	 DWORD PTR _foundquest$[ebp], eax

; 1300 : 		if( foundquest == questcount )	

  00097	8b 45 f4	 mov	 eax, DWORD PTR _foundquest$[ebp]
  0009a	3b 45 f8	 cmp	 eax, DWORD PTR _questcount$[ebp]
  0009d	75 02		 jne	 SHORT $LN6@QuestInfoS

; 1301 : 			break;

  0009f	eb 02		 jmp	 SHORT $LN1@QuestInfoS
$LN6@QuestInfoS:

; 1302 : 	}

  000a1	eb 84		 jmp	 SHORT $LN2@QuestInfoS
$LN1@QuestInfoS:

; 1303 : }

  000a3	5f		 pop	 edi
  000a4	5e		 pop	 esi
  000a5	5b		 pop	 ebx
  000a6	8b e5		 mov	 esp, ebp
  000a8	5d		 pop	 ebp
  000a9	c2 04 00	 ret	 4
?QuestInfoSave@CQuestInfo@@QAEXPAVOBJECTSTRUCT@@@Z ENDP	; CQuestInfo::QuestInfoSave
_TEXT	ENDS
; Function compile flags: /Odtp /ZI
; File C:\Mu Online\Mu-GS-Webzen-MC-10093\GameServer\QuestInfo.cpp
;	COMDAT ?QuestClear@CQuestInfo@@QAEHPAVOBJECTSTRUCT@@H@Z
_TEXT	SEGMENT
_addleveluppoint$1 = -32				; size = 4
_Class$2 = -25						; size = 1
_subquest$3 = -24					; size = 4
_lpSubInfo$ = -20					; size = 4
_concount$ = -16					; size = 4
_subquestcount$ = -12					; size = 4
_lpQuestInfo$ = -8					; size = 4
_this$ = -4						; size = 4
_lpObj$ = 8						; size = 4
_QuestIndex$ = 12					; size = 4
?QuestClear@CQuestInfo@@QAEHPAVOBJECTSTRUCT@@H@Z PROC	; CQuestInfo::QuestClear, COMDAT
; _this$ = ecx

; 1122 : {

  00000	55		 push	 ebp
  00001	8b ec		 mov	 ebp, esp
  00003	83 ec 60	 sub	 esp, 96			; 00000060H
  00006	53		 push	 ebx
  00007	56		 push	 esi
  00008	57		 push	 edi
  00009	89 4d fc	 mov	 DWORD PTR _this$[ebp], ecx

; 1123 : 	LPQUEST_INFO lpQuestInfo;
; 1124 : 	lpQuestInfo = GetQuestInfo(QuestIndex);

  0000c	8b 45 0c	 mov	 eax, DWORD PTR _QuestIndex$[ebp]
  0000f	50		 push	 eax
  00010	8b 4d fc	 mov	 ecx, DWORD PTR _this$[ebp]
  00013	e8 00 00 00 00	 call	 ?GetQuestInfo@CQuestInfo@@QAEPAUQUEST_INFO@@H@Z ; CQuestInfo::GetQuestInfo
  00018	89 45 f8	 mov	 DWORD PTR _lpQuestInfo$[ebp], eax

; 1125 : 
; 1126 : #ifdef AUTH_GAMESERVER_CHECKKEY
; 1127 : 	if( szAuthKey[18] != AUTH_CHECK_18 )
; 1128 : 		DestroyGIocp();
; 1129 : #endif
; 1130 : 
; 1131 : 	if( !lpQuestInfo )

  0001b	83 7d f8 00	 cmp	 DWORD PTR _lpQuestInfo$[ebp], 0
  0001f	75 0a		 jne	 SHORT $LN5@QuestClear

; 1132 : 		return 0xff;	// 퀘스트가 없다

  00021	b8 ff 00 00 00	 mov	 eax, 255		; 000000ffH
  00026	e9 ce 02 00 00	 jmp	 $LN1@QuestClear
$LN5@QuestClear:

; 1133 : 
; 1134 : 	int subquestcount = lpQuestInfo->QuestSubInfoCount;

  0002b	8b 45 f8	 mov	 eax, DWORD PTR _lpQuestInfo$[ebp]
  0002e	8b 48 40	 mov	 ecx, DWORD PTR [eax+64]
  00031	89 4d f4	 mov	 DWORD PTR _subquestcount$[ebp], ecx

; 1135 : 	int concount = lpQuestInfo->QuestConditionCount;

  00034	8b 45 f8	 mov	 eax, DWORD PTR _lpQuestInfo$[ebp]
  00037	8b 88 14 03 00
	00		 mov	 ecx, DWORD PTR [eax+788]
  0003d	89 4d f0	 mov	 DWORD PTR _concount$[ebp], ecx

; 1136 : 	LPQUEST_SUB_INFO lpSubInfo;
; 1137 : 
; 1138 : 	for( int subquest = 0; subquest < subquestcount; subquest++ )

  00040	c7 45 e8 00 00
	00 00		 mov	 DWORD PTR _subquest$3[ebp], 0
  00047	eb 09		 jmp	 SHORT $LN4@QuestClear
$LN2@QuestClear:
  00049	8b 45 e8	 mov	 eax, DWORD PTR _subquest$3[ebp]
  0004c	83 c0 01	 add	 eax, 1
  0004f	89 45 e8	 mov	 DWORD PTR _subquest$3[ebp], eax
$LN4@QuestClear:
  00052	8b 45 e8	 mov	 eax, DWORD PTR _subquest$3[ebp]
  00055	3b 45 f4	 cmp	 eax, DWORD PTR _subquestcount$[ebp]
  00058	0f 8d 96 02 00
	00		 jge	 $LN3@QuestClear

; 1139 : 	{
; 1140 : 		lpSubInfo = GetSubquestInfo(lpObj, lpQuestInfo, subquest);

  0005e	8b 45 e8	 mov	 eax, DWORD PTR _subquest$3[ebp]
  00061	50		 push	 eax
  00062	8b 4d f8	 mov	 ecx, DWORD PTR _lpQuestInfo$[ebp]
  00065	51		 push	 ecx
  00066	8b 55 08	 mov	 edx, DWORD PTR _lpObj$[ebp]
  00069	52		 push	 edx
  0006a	8b 4d fc	 mov	 ecx, DWORD PTR _this$[ebp]
  0006d	e8 00 00 00 00	 call	 ?GetSubquestInfo@CQuestInfo@@QAEPAUQUEST_SUB_INFO@@PAVOBJECTSTRUCT@@PAUQUEST_INFO@@H@Z ; CQuestInfo::GetSubquestInfo
  00072	89 45 ec	 mov	 DWORD PTR _lpSubInfo$[ebp], eax

; 1141 : 
; 1142 : 		if( lpSubInfo )

  00075	83 7d ec 00	 cmp	 DWORD PTR _lpSubInfo$[ebp], 0
  00079	0f 84 70 02 00
	00		 je	 $LN6@QuestClear

; 1143 : 		{
; 1144 : 			if( lpSubInfo->RewardType == QRT_CHANGEUP )

  0007f	8b 45 ec	 mov	 eax, DWORD PTR _lpSubInfo$[ebp]
  00082	81 78 20 c9 00
	00 00		 cmp	 DWORD PTR [eax+32], 201	; 000000c9H
  00089	0f 85 de 00 00
	00		 jne	 $LN7@QuestClear

; 1145 : 			{	// 전직
; 1146 : 				lpObj->LevelUpPoint += lpSubInfo->RewardCount;

  0008f	8b 45 08	 mov	 eax, DWORD PTR _lpObj$[ebp]
  00092	8b 88 a4 00 00
	00		 mov	 ecx, DWORD PTR [eax+164]
  00098	8b 55 ec	 mov	 edx, DWORD PTR _lpSubInfo$[ebp]
  0009b	03 4a 28	 add	 ecx, DWORD PTR [edx+40]
  0009e	8b 45 08	 mov	 eax, DWORD PTR _lpObj$[ebp]
  000a1	89 88 a4 00 00
	00		 mov	 DWORD PTR [eax+164], ecx

; 1147 : 				
; 1148 : 				GCSendQuestPrize(lpObj->m_Index, QRT_STATUP, lpSubInfo->RewardCount);		

  000a7	8b 45 ec	 mov	 eax, DWORD PTR _lpSubInfo$[ebp]
  000aa	0f b6 48 28	 movzx	 ecx, BYTE PTR [eax+40]
  000ae	51		 push	 ecx
  000af	68 c8 00 00 00	 push	 200			; 000000c8H
  000b4	8b 55 08	 mov	 edx, DWORD PTR _lpObj$[ebp]
  000b7	8b 02		 mov	 eax, DWORD PTR [edx]
  000b9	50		 push	 eax
  000ba	e8 00 00 00 00	 call	 ?GCSendQuestPrize@@YAXHEE@Z ; GCSendQuestPrize
  000bf	83 c4 0c	 add	 esp, 12			; 0000000cH

; 1149 : 
; 1150 : 				// 전직 상태 처리를 한다				
; 1151 : 				lpObj->ChangeUP = 1;

  000c2	8b 45 08	 mov	 eax, DWORD PTR _lpObj$[ebp]
  000c5	c6 80 9f 00 00
	00 01		 mov	 BYTE PTR [eax+159], 1

; 1152 : 				lpObj->DbClass |= 0x01;

  000cc	8b 45 08	 mov	 eax, DWORD PTR _lpObj$[ebp]
  000cf	0f b6 88 9e 00
	00 00		 movzx	 ecx, BYTE PTR [eax+158]
  000d6	83 c9 01	 or	 ecx, 1
  000d9	8b 55 08	 mov	 edx, DWORD PTR _lpObj$[ebp]
  000dc	88 8a 9e 00 00
	00		 mov	 BYTE PTR [edx+158], cl

; 1153 : 
; 1154 : 				// 바뀐 정보를 보여준다
; 1155 : 				gObjMakePreviewCharSet(lpObj->m_Index);	

  000e2	8b 45 08	 mov	 eax, DWORD PTR _lpObj$[ebp]
  000e5	8b 08		 mov	 ecx, DWORD PTR [eax]
  000e7	51		 push	 ecx
  000e8	e8 00 00 00 00	 call	 ?gObjMakePreviewCharSet@@YAXH@Z ; gObjMakePreviewCharSet
  000ed	83 c4 04	 add	 esp, 4

; 1156 : 				
; 1157 : 				BYTE Class = ((lpObj->Class<<5)&0xE0);

  000f0	8b 45 08	 mov	 eax, DWORD PTR _lpObj$[ebp]
  000f3	0f b7 88 9c 00
	00 00		 movzx	 ecx, WORD PTR [eax+156]
  000fa	c1 e1 05	 shl	 ecx, 5
  000fd	81 e1 e0 00 00
	00		 and	 ecx, 224		; 000000e0H
  00103	88 4d e7	 mov	 BYTE PTR _Class$2[ebp], cl

; 1158 : 				Class |= (lpObj->ChangeUP<<4)&0x10;

  00106	8b 45 08	 mov	 eax, DWORD PTR _lpObj$[ebp]
  00109	0f b6 88 9f 00
	00 00		 movzx	 ecx, BYTE PTR [eax+159]
  00110	c1 e1 04	 shl	 ecx, 4
  00113	83 e1 10	 and	 ecx, 16			; 00000010H
  00116	0f b6 55 e7	 movzx	 edx, BYTE PTR _Class$2[ebp]
  0011a	0b d1		 or	 edx, ecx
  0011c	88 55 e7	 mov	 BYTE PTR _Class$2[ebp], dl

; 1159 : 				GCSendQuestPrize(lpObj->m_Index, QRT_CHANGEUP, Class);

  0011f	0f b6 45 e7	 movzx	 eax, BYTE PTR _Class$2[ebp]
  00123	50		 push	 eax
  00124	68 c9 00 00 00	 push	 201			; 000000c9H
  00129	8b 4d 08	 mov	 ecx, DWORD PTR _lpObj$[ebp]
  0012c	8b 11		 mov	 edx, DWORD PTR [ecx]
  0012e	52		 push	 edx
  0012f	e8 00 00 00 00	 call	 ?GCSendQuestPrize@@YAXHEE@Z ; GCSendQuestPrize
  00134	83 c4 0c	 add	 esp, 12			; 0000000cH

; 1160 : 
; 1161 : 				LogAddTD("[Quest] Quest Clear (%s) : [%s][%s] Stat(%d,%d), ChangeUp", 

  00137	8b 45 ec	 mov	 eax, DWORD PTR _lpSubInfo$[ebp]
  0013a	8b 48 28	 mov	 ecx, DWORD PTR [eax+40]
  0013d	51		 push	 ecx
  0013e	8b 55 08	 mov	 edx, DWORD PTR _lpObj$[ebp]
  00141	8b 82 a4 00 00
	00		 mov	 eax, DWORD PTR [edx+164]
  00147	50		 push	 eax
  00148	8b 4d 08	 mov	 ecx, DWORD PTR _lpObj$[ebp]
  0014b	83 c1 73	 add	 ecx, 115		; 00000073H
  0014e	51		 push	 ecx
  0014f	8b 55 08	 mov	 edx, DWORD PTR _lpObj$[ebp]
  00152	83 c2 68	 add	 edx, 104		; 00000068H
  00155	52		 push	 edx
  00156	8b 45 f8	 mov	 eax, DWORD PTR _lpQuestInfo$[ebp]
  00159	50		 push	 eax
  0015a	68 00 00 00 00	 push	 OFFSET ??_C@_0DK@OGOONICP@?$FLQuest?$FN?5Quest?5Clear?5?$CI?$CFs?$CJ?5?3?5?$FL?$CFs?$FN@
  0015f	ff 15 00 00 00
	00		 call	 DWORD PTR ?LogAddTD@@3P6AXPADZZA ; LogAddTD
  00165	83 c4 18	 add	 esp, 24			; 00000018H

; 1162 : 					   lpQuestInfo->Name, lpObj->AccountID, lpObj->Name, 
; 1163 : 					   lpObj->LevelUpPoint, lpSubInfo->RewardCount);
; 1164 : 			}

  00168	e9 57 01 00 00	 jmp	 $LN8@QuestClear
$LN7@QuestClear:

; 1165 : 			else if( lpSubInfo->RewardType == QRT_STATUP )

  0016d	8b 45 ec	 mov	 eax, DWORD PTR _lpSubInfo$[ebp]
  00170	81 78 20 c8 00
	00 00		 cmp	 DWORD PTR [eax+32], 200	; 000000c8H
  00177	75 69		 jne	 SHORT $LN9@QuestClear

; 1166 : 			{	// 스탯포인트 상승
; 1167 : 				lpObj->LevelUpPoint += lpSubInfo->RewardCount;

  00179	8b 45 08	 mov	 eax, DWORD PTR _lpObj$[ebp]
  0017c	8b 88 a4 00 00
	00		 mov	 ecx, DWORD PTR [eax+164]
  00182	8b 55 ec	 mov	 edx, DWORD PTR _lpSubInfo$[ebp]
  00185	03 4a 28	 add	 ecx, DWORD PTR [edx+40]
  00188	8b 45 08	 mov	 eax, DWORD PTR _lpObj$[ebp]
  0018b	89 88 a4 00 00
	00		 mov	 DWORD PTR [eax+164], ecx

; 1168 : 				GCSendQuestPrize(lpObj->m_Index, QRT_STATUP, lpSubInfo->RewardCount);

  00191	8b 45 ec	 mov	 eax, DWORD PTR _lpSubInfo$[ebp]
  00194	0f b6 48 28	 movzx	 ecx, BYTE PTR [eax+40]
  00198	51		 push	 ecx
  00199	68 c8 00 00 00	 push	 200			; 000000c8H
  0019e	8b 55 08	 mov	 edx, DWORD PTR _lpObj$[ebp]
  001a1	8b 02		 mov	 eax, DWORD PTR [edx]
  001a3	50		 push	 eax
  001a4	e8 00 00 00 00	 call	 ?GCSendQuestPrize@@YAXHEE@Z ; GCSendQuestPrize
  001a9	83 c4 0c	 add	 esp, 12			; 0000000cH

; 1169 : 
; 1170 : 				LogAddTD("[Quest] Quest Clear (%s) : [%s][%s] Stat(%d,%d)", 

  001ac	8b 45 ec	 mov	 eax, DWORD PTR _lpSubInfo$[ebp]
  001af	8b 48 28	 mov	 ecx, DWORD PTR [eax+40]
  001b2	51		 push	 ecx
  001b3	8b 55 08	 mov	 edx, DWORD PTR _lpObj$[ebp]
  001b6	8b 82 a4 00 00
	00		 mov	 eax, DWORD PTR [edx+164]
  001bc	50		 push	 eax
  001bd	8b 4d 08	 mov	 ecx, DWORD PTR _lpObj$[ebp]
  001c0	83 c1 73	 add	 ecx, 115		; 00000073H
  001c3	51		 push	 ecx
  001c4	8b 55 08	 mov	 edx, DWORD PTR _lpObj$[ebp]
  001c7	83 c2 68	 add	 edx, 104		; 00000068H
  001ca	52		 push	 edx
  001cb	8b 45 f8	 mov	 eax, DWORD PTR _lpQuestInfo$[ebp]
  001ce	50		 push	 eax
  001cf	68 00 00 00 00	 push	 OFFSET ??_C@_0DA@FJIJPLFD@?$FLQuest?$FN?5Quest?5Clear?5?$CI?$CFs?$CJ?5?3?5?$FL?$CFs?$FN@
  001d4	ff 15 00 00 00
	00		 call	 DWORD PTR ?LogAddTD@@3P6AXPADZZA ; LogAddTD
  001da	83 c4 18	 add	 esp, 24			; 00000018H

; 1171 : 					   lpQuestInfo->Name, lpObj->AccountID, lpObj->Name, 
; 1172 : 					   lpObj->LevelUpPoint, lpSubInfo->RewardCount);
; 1173 : 			}

  001dd	e9 e2 00 00 00	 jmp	 $LN8@QuestClear
$LN9@QuestClear:

; 1174 : #ifdef SECOND_QUEST
; 1175 : 			else if( lpSubInfo->RewardType == QRT_PLUSSTAT )

  001e2	8b 45 ec	 mov	 eax, DWORD PTR _lpSubInfo$[ebp]
  001e5	81 78 20 ca 00
	00 00		 cmp	 DWORD PTR [eax+32], 202	; 000000caH
  001ec	0f 85 87 00 00
	00		 jne	 $LN11@QuestClear

; 1176 : 			{	// 스탯포인트 상승
; 1177 : 				int addleveluppoint = lpObj->Level - 220;

  001f2	8b 45 08	 mov	 eax, DWORD PTR _lpObj$[ebp]
  001f5	0f bf 88 a0 00
	00 00		 movsx	 ecx, WORD PTR [eax+160]
  001fc	81 e9 dc 00 00
	00		 sub	 ecx, 220		; 000000dcH
  00202	89 4d e0	 mov	 DWORD PTR _addleveluppoint$1[ebp], ecx

; 1178 : 				if( addleveluppoint <= 0 )

  00205	83 7d e0 00	 cmp	 DWORD PTR _addleveluppoint$1[ebp], 0
  00209	7f 07		 jg	 SHORT $LN13@QuestClear

; 1179 : 				{
; 1180 : 					addleveluppoint = 0;

  0020b	c7 45 e0 00 00
	00 00		 mov	 DWORD PTR _addleveluppoint$1[ebp], 0
$LN13@QuestClear:

; 1181 : 				}
; 1182 : 
; 1183 : 				lpObj->LevelUpPoint += addleveluppoint;

  00212	8b 45 08	 mov	 eax, DWORD PTR _lpObj$[ebp]
  00215	8b 88 a4 00 00
	00		 mov	 ecx, DWORD PTR [eax+164]
  0021b	03 4d e0	 add	 ecx, DWORD PTR _addleveluppoint$1[ebp]
  0021e	8b 55 08	 mov	 edx, DWORD PTR _lpObj$[ebp]
  00221	89 8a a4 00 00
	00		 mov	 DWORD PTR [edx+164], ecx

; 1184 : 				lpObj->PlusStatQuestClear = 1;

  00227	8b 45 08	 mov	 eax, DWORD PTR _lpObj$[ebp]
  0022a	c6 80 8c 00 00
	00 01		 mov	 BYTE PTR [eax+140], 1

; 1185 : 
; 1186 : 				GCSendQuestPrize(lpObj->m_Index, QRT_PLUSSTAT, addleveluppoint);

  00231	0f b6 45 e0	 movzx	 eax, BYTE PTR _addleveluppoint$1[ebp]
  00235	50		 push	 eax
  00236	68 ca 00 00 00	 push	 202			; 000000caH
  0023b	8b 4d 08	 mov	 ecx, DWORD PTR _lpObj$[ebp]
  0023e	8b 11		 mov	 edx, DWORD PTR [ecx]
  00240	52		 push	 edx
  00241	e8 00 00 00 00	 call	 ?GCSendQuestPrize@@YAXHEE@Z ; GCSendQuestPrize
  00246	83 c4 0c	 add	 esp, 12			; 0000000cH

; 1187 : 
; 1188 : 				LogAddTD("[Quest] Quest Clear (%s) : [%s][%s] Stat(%d,%d), PlusStat", 

  00249	8b 45 e0	 mov	 eax, DWORD PTR _addleveluppoint$1[ebp]
  0024c	50		 push	 eax
  0024d	8b 4d 08	 mov	 ecx, DWORD PTR _lpObj$[ebp]
  00250	8b 91 a4 00 00
	00		 mov	 edx, DWORD PTR [ecx+164]
  00256	52		 push	 edx
  00257	8b 45 08	 mov	 eax, DWORD PTR _lpObj$[ebp]
  0025a	83 c0 73	 add	 eax, 115		; 00000073H
  0025d	50		 push	 eax
  0025e	8b 4d 08	 mov	 ecx, DWORD PTR _lpObj$[ebp]
  00261	83 c1 68	 add	 ecx, 104		; 00000068H
  00264	51		 push	 ecx
  00265	8b 55 f8	 mov	 edx, DWORD PTR _lpQuestInfo$[ebp]
  00268	52		 push	 edx
  00269	68 00 00 00 00	 push	 OFFSET ??_C@_0DK@CADKKHAN@?$FLQuest?$FN?5Quest?5Clear?5?$CI?$CFs?$CJ?5?3?5?$FL?$CFs?$FN@
  0026e	ff 15 00 00 00
	00		 call	 DWORD PTR ?LogAddTD@@3P6AXPADZZA ; LogAddTD
  00274	83 c4 18	 add	 esp, 24			; 00000018H

; 1189 : 					   lpQuestInfo->Name, lpObj->AccountID, lpObj->Name, 
; 1190 : 					   lpObj->LevelUpPoint, addleveluppoint);
; 1191 : 			}

  00277	eb 4b		 jmp	 SHORT $LN8@QuestClear
$LN11@QuestClear:

; 1192 : 			else if( lpSubInfo->RewardType == QRT_USINGCOMBOSKILL )

  00279	8b 45 ec	 mov	 eax, DWORD PTR _lpSubInfo$[ebp]
  0027c	81 78 20 cb 00
	00 00		 cmp	 DWORD PTR [eax+32], 203	; 000000cbH
  00283	75 3f		 jne	 SHORT $LN8@QuestClear

; 1193 : 			{	// 콤보 스킬 사용				
; 1194 : 				GCSendQuestPrize(lpObj->m_Index, QRT_USINGCOMBOSKILL, 0);	

  00285	6a 00		 push	 0
  00287	68 cb 00 00 00	 push	 203			; 000000cbH
  0028c	8b 45 08	 mov	 eax, DWORD PTR _lpObj$[ebp]
  0028f	8b 08		 mov	 ecx, DWORD PTR [eax]
  00291	51		 push	 ecx
  00292	e8 00 00 00 00	 call	 ?GCSendQuestPrize@@YAXHEE@Z ; GCSendQuestPrize
  00297	83 c4 0c	 add	 esp, 12			; 0000000cH

; 1195 : 				lpObj->ComboSkillquestClear = 1;

  0029a	8b 45 08	 mov	 eax, DWORD PTR _lpObj$[ebp]
  0029d	c6 80 8d 00 00
	00 01		 mov	 BYTE PTR [eax+141], 1

; 1196 : 
; 1197 : 				LogAddTD("[Quest] Quest Clear (%s) : [%s][%s] ComboSkill", 

  002a4	8b 45 08	 mov	 eax, DWORD PTR _lpObj$[ebp]
  002a7	83 c0 73	 add	 eax, 115		; 00000073H
  002aa	50		 push	 eax
  002ab	8b 4d 08	 mov	 ecx, DWORD PTR _lpObj$[ebp]
  002ae	83 c1 68	 add	 ecx, 104		; 00000068H
  002b1	51		 push	 ecx
  002b2	8b 55 f8	 mov	 edx, DWORD PTR _lpQuestInfo$[ebp]
  002b5	52		 push	 edx
  002b6	68 00 00 00 00	 push	 OFFSET ??_C@_0CP@JAPDAPMO@?$FLQuest?$FN?5Quest?5Clear?5?$CI?$CFs?$CJ?5?3?5?$FL?$CFs?$FN@
  002bb	ff 15 00 00 00
	00		 call	 DWORD PTR ?LogAddTD@@3P6AXPADZZA ; LogAddTD
  002c1	83 c4 10	 add	 esp, 16			; 00000010H
$LN8@QuestClear:

; 1198 : 					   lpQuestInfo->Name, lpObj->AccountID, lpObj->Name);
; 1199 : 			}
; 1200 : #endif
; 1201 : #ifdef THIRD_CHANGEUP_SYSTEM_20070507	// 3차 전직을 했다.
; 1202 : 			else if( lpSubInfo->RewardType == QRT_THIRD_CHANGEUP )
; 1203 : 			{
; 1204 : 				// 전직 상태 처리를 한다
; 1205 : 				lpObj->ThirdChangeUp = 1;
; 1206 : 				lpObj->DbClass |= 0x02;
; 1207 : 
; 1208 : 				// 바뀐 정보를 보여준다
; 1209 : 				gObjMakePreviewCharSet( lpObj->m_Index );	
; 1210 : 				
; 1211 : 				BYTE Class = ( ( lpObj->Class << 5 ) & 0xE0 );
; 1212 : 				Class |= (( lpObj->ChangeUP << 4 ) & 0x10 );	
; 1213 : 				Class |= (( lpObj->ThirdChangeUp << 3 ) & 0x08 );
; 1214 : 					 
; 1215 : 				GCSendQuestPrize( lpObj->m_Index, QRT_THIRD_CHANGEUP, Class );
; 1216 : 
; 1217 : #ifdef MODIFY_LOG_THIRD_CHANGEUP_20070801	// 전직 번호 수정
; 1218 : 				LogAddTD( "[Quest] Quest Clear (%s) : [%s][%s] Class:%d(%d), 3rd ChangeUp", 
; 1219 : 					   lpQuestInfo->Name, lpObj->AccountID, lpObj->Name, 
; 1220 : 					   lpObj->DbClass, Class );
; 1221 : #else
; 1222 : 				LogAddTD( "[Quest] Quest Clear (%s) : [%s][%s] Class:%d, 3rd ChangeUp", 
; 1223 : 					   lpQuestInfo->Name, lpObj->AccountID, lpObj->Name, 
; 1224 : 					   Class );
; 1225 : #endif
; 1226 : 			}
; 1227 : #endif
; 1228 : 			else if( lpSubInfo->RewardType >= 0 && lpSubInfo->RewardType < QRT_STATUP)
; 1229 : 			{	// 아이템
; 1230 : 			}
; 1231 : 
; 1232 : 			if( lpSubInfo->QuestType == 1 )

  002c4	8b 45 ec	 mov	 eax, DWORD PTR _lpSubInfo$[ebp]
  002c7	83 38 01	 cmp	 DWORD PTR [eax], 1
  002ca	75 23		 jne	 SHORT $LN6@QuestClear

; 1233 : 			{
; 1234 : 				gObjDelteItemCountInInventory(lpObj->m_Index, lpSubInfo->NeedType, 

  002cc	8b 45 ec	 mov	 eax, DWORD PTR _lpSubInfo$[ebp]
  002cf	8b 48 10	 mov	 ecx, DWORD PTR [eax+16]
  002d2	51		 push	 ecx
  002d3	8b 55 ec	 mov	 edx, DWORD PTR _lpSubInfo$[ebp]
  002d6	8b 42 08	 mov	 eax, DWORD PTR [edx+8]
  002d9	50		 push	 eax
  002da	8b 4d ec	 mov	 ecx, DWORD PTR _lpSubInfo$[ebp]
  002dd	8b 51 04	 mov	 edx, DWORD PTR [ecx+4]
  002e0	52		 push	 edx
  002e1	8b 45 08	 mov	 eax, DWORD PTR _lpObj$[ebp]
  002e4	8b 08		 mov	 ecx, DWORD PTR [eax]
  002e6	51		 push	 ecx
  002e7	e8 00 00 00 00	 call	 ?gObjDelteItemCountInInventory@@YAXHHHH@Z ; gObjDelteItemCountInInventory
  002ec	83 c4 10	 add	 esp, 16			; 00000010H
$LN6@QuestClear:

; 1235 : 											  lpSubInfo->NeedSubType, lpSubInfo->NeedNumber);
; 1236 : 			}
; 1237 : 			
; 1238 : #ifdef MODIFY_QUEST_SYSTEM_20070525	// 몬스터 킬카운트 퀘스트 완료 - 데이터 초기화
; 1239 : 			if( lpSubInfo->QuestType == QUEST_TYPE_MONSTER_KILLCOUNT )
; 1240 : 			{
; 1241 : 				lpObj->m_iQuestMonKillDBIndex	= -1;
; 1242 : 				for( int i = 0; i < MAX_QUEST_MONSTER_KILL_INFO; i++ )
; 1243 : 				{
; 1244 : 					lpObj->m_QuestMonKillInfo[i].iQuestMonIndex =  -1;
; 1245 : 					lpObj->m_QuestMonKillInfo[i].iKillCount		=  -1;
; 1246 : 				}
; 1247 : 				
; 1248 : 				LogAddTD( "[Quest] Quest Clear - MonsterKillCount Reset (%s) : [%s][%s]", 
; 1249 : 					   lpQuestInfo->Name, lpObj->AccountID, lpObj->Name );
; 1250 : 			}
; 1251 : #endif
; 1252 : 
; 1253 : #ifdef THIRD_CHANGEUP_SYSTEM_20070507	// 퀘스트 스크립트 RewardSub Type 처리
; 1254 : 			if( lpSubInfo->RewardSubType == QRT_STATUP )
; 1255 : 			{
; 1256 : 				lpObj->LevelUpPoint += lpSubInfo->RewardCount;
; 1257 : 				GCSendQuestPrize( lpObj->m_Index, QRT_STATUP, lpSubInfo->RewardCount );	
; 1258 : 
; 1259 : #ifdef MODIFY_LOG_THIRD_CHANGEUP_20070801
; 1260 : 				LogAddTD( "[Quest] Quest Clear (%s) : [%s][%s] Stat(%d,%d), Class:%d PlusStat", 
; 1261 : 					   lpQuestInfo->Name, lpObj->AccountID, lpObj->Name, 
; 1262 : 					   lpObj->LevelUpPoint, lpSubInfo->RewardCount, lpObj->DbClass );
; 1263 : #else
; 1264 : 				LogAddTD( "[Quest] Quest Clear (%s) : [%s][%s] Stat(%d,%d), Class:%d PlusStat", 
; 1265 : 					   lpQuestInfo->Name, lpObj->AccountID, lpObj->Name, 
; 1266 : 					   lpObj->LevelUpPoint, lpSubInfo->RewardCount, lpObj->Class );
; 1267 : #endif
; 1268 : 			}
; 1269 : #endif
; 1270 : 		}
; 1271 : 	}

  002ef	e9 55 fd ff ff	 jmp	 $LN2@QuestClear
$LN3@QuestClear:

; 1272 : 
; 1273 : 	return TRUE;

  002f4	b8 01 00 00 00	 mov	 eax, 1
$LN1@QuestClear:

; 1274 : }

  002f9	5f		 pop	 edi
  002fa	5e		 pop	 esi
  002fb	5b		 pop	 ebx
  002fc	8b e5		 mov	 esp, ebp
  002fe	5d		 pop	 ebp
  002ff	c2 08 00	 ret	 8
?QuestClear@CQuestInfo@@QAEHPAVOBJECTSTRUCT@@H@Z ENDP	; CQuestInfo::QuestClear
_TEXT	ENDS
; Function compile flags: /Odtp /ZI
; File C:\Mu Online\Mu-GS-Webzen-MC-10093\GameServer\QuestInfo.cpp
;	COMDAT ?QuestAccept@CQuestInfo@@QAEHPAVOBJECTSTRUCT@@H@Z
_TEXT	SEGMENT
_condition$1 = -36					; size = 4
_subquest$2 = -32					; size = 4
_NeedZen$ = -28						; size = 4
_lpCondition$ = -24					; size = 4
_lpSubInfo$ = -20					; size = 4
_concount$ = -16					; size = 4
_subquestcount$ = -12					; size = 4
_lpQuestInfo$ = -8					; size = 4
_this$ = -4						; size = 4
_lpObj$ = 8						; size = 4
_QuestIndex$ = 12					; size = 4
?QuestAccept@CQuestInfo@@QAEHPAVOBJECTSTRUCT@@H@Z PROC	; CQuestInfo::QuestAccept, COMDAT
; _this$ = ecx

; 1058 : {

  00000	55		 push	 ebp
  00001	8b ec		 mov	 ebp, esp
  00003	83 ec 64	 sub	 esp, 100		; 00000064H
  00006	53		 push	 ebx
  00007	56		 push	 esi
  00008	57		 push	 edi
  00009	89 4d fc	 mov	 DWORD PTR _this$[ebp], ecx

; 1059 : 	LPQUEST_INFO lpQuestInfo;
; 1060 : 	lpQuestInfo = GetQuestInfo(QuestIndex);

  0000c	8b 45 0c	 mov	 eax, DWORD PTR _QuestIndex$[ebp]
  0000f	50		 push	 eax
  00010	8b 4d fc	 mov	 ecx, DWORD PTR _this$[ebp]
  00013	e8 00 00 00 00	 call	 ?GetQuestInfo@CQuestInfo@@QAEPAUQUEST_INFO@@H@Z ; CQuestInfo::GetQuestInfo
  00018	89 45 f8	 mov	 DWORD PTR _lpQuestInfo$[ebp], eax

; 1061 : 
; 1062 : 	if( !lpQuestInfo )

  0001b	83 7d f8 00	 cmp	 DWORD PTR _lpQuestInfo$[ebp], 0
  0001f	75 0a		 jne	 SHORT $LN8@QuestAccep

; 1063 : 		return 0xff;	// 퀘스트가 없다

  00021	b8 ff 00 00 00	 mov	 eax, 255		; 000000ffH
  00026	e9 c2 00 00 00	 jmp	 $LN1@QuestAccep
$LN8@QuestAccep:

; 1064 : 
; 1065 : 	int subquestcount = lpQuestInfo->QuestSubInfoCount;

  0002b	8b 45 f8	 mov	 eax, DWORD PTR _lpQuestInfo$[ebp]
  0002e	8b 48 40	 mov	 ecx, DWORD PTR [eax+64]
  00031	89 4d f4	 mov	 DWORD PTR _subquestcount$[ebp], ecx

; 1066 : 	int concount = lpQuestInfo->QuestConditionCount;

  00034	8b 45 f8	 mov	 eax, DWORD PTR _lpQuestInfo$[ebp]
  00037	8b 88 14 03 00
	00		 mov	 ecx, DWORD PTR [eax+788]
  0003d	89 4d f0	 mov	 DWORD PTR _concount$[ebp], ecx

; 1067 : 	LPQUEST_SUB_INFO lpSubInfo;
; 1068 : 	LPQUEST_CONDITION lpCondition;
; 1069 : 
; 1070 : 	int NeedZen = 0;

  00040	c7 45 e4 00 00
	00 00		 mov	 DWORD PTR _NeedZen$[ebp], 0

; 1071 : 
; 1072 : 	for( int subquest = 0; subquest < subquestcount; subquest++ )

  00047	c7 45 e0 00 00
	00 00		 mov	 DWORD PTR _subquest$2[ebp], 0
  0004e	eb 09		 jmp	 SHORT $LN4@QuestAccep
$LN2@QuestAccep:
  00050	8b 45 e0	 mov	 eax, DWORD PTR _subquest$2[ebp]
  00053	83 c0 01	 add	 eax, 1
  00056	89 45 e0	 mov	 DWORD PTR _subquest$2[ebp], eax
$LN4@QuestAccep:
  00059	8b 45 e0	 mov	 eax, DWORD PTR _subquest$2[ebp]
  0005c	3b 45 f4	 cmp	 eax, DWORD PTR _subquestcount$[ebp]
  0005f	7d 5a		 jge	 SHORT $LN3@QuestAccep

; 1073 : 	{
; 1074 : 		lpSubInfo = GetSubquestInfo(lpObj, lpQuestInfo, subquest);

  00061	8b 45 e0	 mov	 eax, DWORD PTR _subquest$2[ebp]
  00064	50		 push	 eax
  00065	8b 4d f8	 mov	 ecx, DWORD PTR _lpQuestInfo$[ebp]
  00068	51		 push	 ecx
  00069	8b 55 08	 mov	 edx, DWORD PTR _lpObj$[ebp]
  0006c	52		 push	 edx
  0006d	8b 4d fc	 mov	 ecx, DWORD PTR _this$[ebp]
  00070	e8 00 00 00 00	 call	 ?GetSubquestInfo@CQuestInfo@@QAEPAUQUEST_SUB_INFO@@PAVOBJECTSTRUCT@@PAUQUEST_INFO@@H@Z ; CQuestInfo::GetSubquestInfo
  00075	89 45 ec	 mov	 DWORD PTR _lpSubInfo$[ebp], eax

; 1075 : 
; 1076 : 		if( lpSubInfo )

  00078	83 7d ec 00	 cmp	 DWORD PTR _lpSubInfo$[ebp], 0
  0007c	74 3b		 je	 SHORT $LN9@QuestAccep

; 1077 : 		{
; 1078 : 			for( int condition = 0; condition < concount; condition++ )

  0007e	c7 45 dc 00 00
	00 00		 mov	 DWORD PTR _condition$1[ebp], 0
  00085	eb 09		 jmp	 SHORT $LN7@QuestAccep
$LN5@QuestAccep:
  00087	8b 45 dc	 mov	 eax, DWORD PTR _condition$1[ebp]
  0008a	83 c0 01	 add	 eax, 1
  0008d	89 45 dc	 mov	 DWORD PTR _condition$1[ebp], eax
$LN7@QuestAccep:
  00090	8b 45 dc	 mov	 eax, DWORD PTR _condition$1[ebp]
  00093	3b 45 f0	 cmp	 eax, DWORD PTR _concount$[ebp]
  00096	7d 21		 jge	 SHORT $LN9@QuestAccep

; 1079 : 			{	
; 1080 : 				lpCondition = GetQuestCondition(lpQuestInfo, condition);

  00098	8b 45 dc	 mov	 eax, DWORD PTR _condition$1[ebp]
  0009b	50		 push	 eax
  0009c	8b 4d f8	 mov	 ecx, DWORD PTR _lpQuestInfo$[ebp]
  0009f	51		 push	 ecx
  000a0	8b 4d fc	 mov	 ecx, DWORD PTR _this$[ebp]
  000a3	e8 00 00 00 00	 call	 ?GetQuestCondition@CQuestInfo@@QAEPAUQUEST_CONDITION@@PAUQUEST_INFO@@H@Z ; CQuestInfo::GetQuestCondition
  000a8	89 45 e8	 mov	 DWORD PTR _lpCondition$[ebp], eax

; 1081 : #ifdef MODIFY_QUEST_SYSTEM_20070525	// 퀘스트 시스템 버그수정	// 여기 수정해야함
; 1082 : 				if( lpCondition && lpCondition->Index == -1 )
; 1083 : 				{	// 모든 조건에 해당되는 요구정보 처리
; 1084 : 					NeedZen += lpCondition->NeedZen;					
; 1085 : 				}
; 1086 : 				else if( lpCondition && lpCondition->Index == lpSubInfo->LinkConditionIndex )
; 1087 : 				{	// 연결 되는 요구조건 처리
; 1088 : 					NeedZen += lpCondition->NeedZen;
; 1089 : 				}						
; 1090 : #else
; 1091 : 				NeedZen += lpCondition->NeedZen;	

  000ab	8b 45 e8	 mov	 eax, DWORD PTR _lpCondition$[ebp]
  000ae	8b 4d e4	 mov	 ecx, DWORD PTR _NeedZen$[ebp]
  000b1	03 48 14	 add	 ecx, DWORD PTR [eax+20]
  000b4	89 4d e4	 mov	 DWORD PTR _NeedZen$[ebp], ecx

; 1092 : #endif
; 1093 : 			}

  000b7	eb ce		 jmp	 SHORT $LN5@QuestAccep
$LN9@QuestAccep:

; 1094 : #ifdef MODIFY_QUEST_SYSTEM_20070525	// 퀘스트 완료조건이 몬스터킬카운터 - 유저정보 설정
; 1095 : 			if( lpSubInfo->QuestType == QUEST_TYPE_MONSTER_KILLCOUNT )
; 1096 : 			{
; 1097 : 				if( lpObj->m_iQuestMonKillDBIndex == -1 )
; 1098 : 					lpObj->m_iQuestMonKillDBIndex = QuestIndex;
; 1099 : 
; 1100 : 				for( int i = 0; i < MAX_QUEST_MONSTER_KILL_INFO; i++ )
; 1101 : 				{
; 1102 : 					if( lpObj->m_QuestMonKillInfo[i].iQuestMonIndex == -1 )
; 1103 : 					{
; 1104 : 						lpObj->m_QuestMonKillInfo[i].iQuestMonIndex	= lpSubInfo->NeedType;
; 1105 : 						lpObj->m_QuestMonKillInfo[i].iKillCount		= 0;
; 1106 : 						break;
; 1107 : 					}
; 1108 : 				}
; 1109 : 				LogAddTD( "[Quest] Quest Accept - MonsterKillCount Set (%s) : [%s][%s]", 
; 1110 : 					   lpQuestInfo->Name, lpObj->AccountID, lpObj->Name );
; 1111 : 			}
; 1112 : #endif			
; 1113 : 		}		
; 1114 : 	}

  000b9	eb 95		 jmp	 SHORT $LN2@QuestAccep
$LN3@QuestAccep:

; 1115 : 
; 1116 : 	lpObj->Money -= NeedZen;

  000bb	8b 45 08	 mov	 eax, DWORD PTR _lpObj$[ebp]
  000be	8b 88 b0 00 00
	00		 mov	 ecx, DWORD PTR [eax+176]
  000c4	2b 4d e4	 sub	 ecx, DWORD PTR _NeedZen$[ebp]
  000c7	8b 55 08	 mov	 edx, DWORD PTR _lpObj$[ebp]
  000ca	89 8a b0 00 00
	00		 mov	 DWORD PTR [edx+176], ecx

; 1117 : 	GCMoneySend(lpObj->m_Index, lpObj->Money);

  000d0	8b 45 08	 mov	 eax, DWORD PTR _lpObj$[ebp]
  000d3	8b 88 b0 00 00
	00		 mov	 ecx, DWORD PTR [eax+176]
  000d9	51		 push	 ecx
  000da	8b 55 08	 mov	 edx, DWORD PTR _lpObj$[ebp]
  000dd	8b 02		 mov	 eax, DWORD PTR [edx]
  000df	50		 push	 eax
  000e0	e8 00 00 00 00	 call	 ?GCMoneySend@@YAXHK@Z	; GCMoneySend
  000e5	83 c4 08	 add	 esp, 8

; 1118 : 	return TRUE;

  000e8	b8 01 00 00 00	 mov	 eax, 1
$LN1@QuestAccep:

; 1119 : }

  000ed	5f		 pop	 edi
  000ee	5e		 pop	 esi
  000ef	5b		 pop	 ebx
  000f0	8b e5		 mov	 esp, ebp
  000f2	5d		 pop	 ebp
  000f3	c2 08 00	 ret	 8
?QuestAccept@CQuestInfo@@QAEHPAVOBJECTSTRUCT@@H@Z ENDP	; CQuestInfo::QuestAccept
_TEXT	ENDS
; Function compile flags: /Odtp /ZI
; File C:\Mu Online\Mu-GS-Webzen-MC-10093\GameServer\QuestInfo.cpp
;	COMDAT ?MonsterItemDrop@CQuestInfo@@QAEHPAVOBJECTSTRUCT@@@Z
_TEXT	SEGMENT
_itemcount$1 = -76					; size = 4
_j$2 = -72						; size = 4
_i$3 = -68						; size = 4
_Option3$ = -64						; size = 4
_Option2$ = -60						; size = 4
_Option1$ = -56						; size = 4
_dur$ = -52						; size = 4
_y$ = -48						; size = 4
_x$ = -44						; size = 4
_level$ = -40						; size = 4
_type$ = -36						; size = 4
_lpSubInfo$ = -32					; size = 4
_lpQuestInfo$ = -28					; size = 4
_foundquest$ = -24					; size = 4
_questcount$ = -20					; size = 4
_lpTarget$ = -16					; size = 4
_partycount$ = -12					; size = 4
_MaxHitUser$ = -8					; size = 4
_this$ = -4						; size = 4
_lpObj$ = 8						; size = 4
?MonsterItemDrop@CQuestInfo@@QAEHPAVOBJECTSTRUCT@@@Z PROC ; CQuestInfo::MonsterItemDrop, COMDAT
; _this$ = ecx

; 861  : {

  00000	55		 push	 ebp
  00001	8b ec		 mov	 ebp, esp
  00003	81 ec 8c 00 00
	00		 sub	 esp, 140		; 0000008cH
  00009	53		 push	 ebx
  0000a	56		 push	 esi
  0000b	57		 push	 edi
  0000c	89 4d fc	 mov	 DWORD PTR _this$[ebp], ecx

; 862  : 	// 이까지 오면 무조건 떨어 진다
; 863  : 	int MaxHitUser = gObjMonsterTopHitDamageUser(lpObj);

  0000f	8b 45 08	 mov	 eax, DWORD PTR _lpObj$[ebp]
  00012	50		 push	 eax
  00013	e8 00 00 00 00	 call	 ?gObjMonsterTopHitDamageUser@@YAHPAVOBJECTSTRUCT@@@Z ; gObjMonsterTopHitDamageUser
  00018	83 c4 04	 add	 esp, 4
  0001b	89 45 f8	 mov	 DWORD PTR _MaxHitUser$[ebp], eax

; 864  : 
; 865  : 	if( MaxHitUser == -1 )

  0001e	83 7d f8 ff	 cmp	 DWORD PTR _MaxHitUser$[ebp], -1
  00022	75 07		 jne	 SHORT $LN8@MonsterIte

; 866  : 		return FALSE;

  00024	33 c0		 xor	 eax, eax
  00026	e9 74 02 00 00	 jmp	 $LN1@MonsterIte
$LN8@MonsterIte:

; 867  : 
; 868  : 	int partycount = gParty.GetPartyCount(gObj[MaxHitUser].PartyNumber);

  0002b	69 45 f8 a0 1b
	00 00		 imul	 eax, DWORD PTR _MaxHitUser$[ebp], 7072
  00032	8b 0d 00 00 00
	00		 mov	 ecx, DWORD PTR ?gObj@@3PAVOBJECTSTRUCT@@A ; gObj
  00038	8b 94 01 88 02
	00 00		 mov	 edx, DWORD PTR [ecx+eax+648]
  0003f	52		 push	 edx
  00040	b9 00 00 00 00	 mov	 ecx, OFFSET ?gParty@@3VPartyClass@@A ; gParty
  00045	e8 00 00 00 00	 call	 ?GetPartyCount@PartyClass@@QAEHH@Z ; PartyClass::GetPartyCount
  0004a	89 45 f4	 mov	 DWORD PTR _partycount$[ebp], eax

; 869  : #ifdef THIRD_CHANGEUP_SYSTEM_20070507	// 퀘스트를 진행하는 사람이 개인인지 파티원인지에 따라 처리가 달라짐
; 870  : 	if( partycount > 0 )
; 871  : 	{
; 872  : 		BOOL bResult = MonsterItemDropForParty( lpObj, &gObj[MaxHitUser] );
; 873  : 		return bResult;
; 874  : 	}		
; 875  : #else
; 876  : 	if( partycount > 0 )

  0004d	83 7d f4 00	 cmp	 DWORD PTR _partycount$[ebp], 0
  00051	7e 07		 jle	 SHORT $LN9@MonsterIte

; 877  : 		return FALSE;	// 파티를 한 상태에서는 아이템을 얻을수 없다

  00053	33 c0		 xor	 eax, eax
  00055	e9 45 02 00 00	 jmp	 $LN1@MonsterIte
$LN9@MonsterIte:

; 878  : #endif
; 879  : 
; 880  : 	
; 881  : 	LPOBJECTSTRUCT lpTarget = &gObj[MaxHitUser];

  0005a	69 45 f8 a0 1b
	00 00		 imul	 eax, DWORD PTR _MaxHitUser$[ebp], 7072
  00061	03 05 00 00 00
	00		 add	 eax, DWORD PTR ?gObj@@3PAVOBJECTSTRUCT@@A ; gObj
  00067	89 45 f0	 mov	 DWORD PTR _lpTarget$[ebp], eax

; 882  : 
; 883  : 	int questcount = GetQeustCount();

  0006a	8b 4d fc	 mov	 ecx, DWORD PTR _this$[ebp]
  0006d	e8 00 00 00 00	 call	 ?GetQeustCount@CQuestInfo@@QAEHXZ ; CQuestInfo::GetQeustCount
  00072	89 45 ec	 mov	 DWORD PTR _questcount$[ebp], eax

; 884  : 	int	foundquest = 0;

  00075	c7 45 e8 00 00
	00 00		 mov	 DWORD PTR _foundquest$[ebp], 0

; 885  : 
; 886  : 	LPQUEST_INFO lpQuestInfo;
; 887  : 	LPQUEST_SUB_INFO	lpSubInfo;
; 888  : 
; 889  : 	int type, level, x, y;
; 890  : 	float dur=0;

  0007c	0f 57 c0	 xorps	 xmm0, xmm0
  0007f	f3 0f 11 45 cc	 movss	 DWORD PTR _dur$[ebp], xmm0

; 891  : 	int Option1 = 0;

  00084	c7 45 c8 00 00
	00 00		 mov	 DWORD PTR _Option1$[ebp], 0

; 892  : 	int Option2 = 0;

  0008b	c7 45 c4 00 00
	00 00		 mov	 DWORD PTR _Option2$[ebp], 0

; 893  : 	int Option3 = 0;

  00092	c7 45 c0 00 00
	00 00		 mov	 DWORD PTR _Option3$[ebp], 0

; 894  : 
; 895  : 
; 896  : 	for( int i = 0; i < MAX_QUEST; i++ )

  00099	c7 45 bc 00 00
	00 00		 mov	 DWORD PTR _i$3[ebp], 0
  000a0	eb 09		 jmp	 SHORT $LN4@MonsterIte
$LN2@MonsterIte:
  000a2	8b 45 bc	 mov	 eax, DWORD PTR _i$3[ebp]
  000a5	83 c0 01	 add	 eax, 1
  000a8	89 45 bc	 mov	 DWORD PTR _i$3[ebp], eax
$LN4@MonsterIte:
  000ab	81 7d bc c8 00
	00 00		 cmp	 DWORD PTR _i$3[ebp], 200 ; 000000c8H
  000b2	0f 8d e5 01 00
	00		 jge	 $LN3@MonsterIte

; 897  : 	{
; 898  : 		lpQuestInfo = GetQuestInfo(i);

  000b8	8b 45 bc	 mov	 eax, DWORD PTR _i$3[ebp]
  000bb	50		 push	 eax
  000bc	8b 4d fc	 mov	 ecx, DWORD PTR _this$[ebp]
  000bf	e8 00 00 00 00	 call	 ?GetQuestInfo@CQuestInfo@@QAEPAUQUEST_INFO@@H@Z ; CQuestInfo::GetQuestInfo
  000c4	89 45 e4	 mov	 DWORD PTR _lpQuestInfo$[ebp], eax

; 899  : 		if( !lpQuestInfo )			

  000c7	83 7d e4 00	 cmp	 DWORD PTR _lpQuestInfo$[ebp], 0
  000cb	75 02		 jne	 SHORT $LN10@MonsterIte

; 900  : 			continue;

  000cd	eb d3		 jmp	 SHORT $LN2@MonsterIte
$LN10@MonsterIte:

; 901  : 
; 902  : 		for( int j = 0; j < lpQuestInfo->QuestSubInfoCount; j++ )

  000cf	c7 45 b8 00 00
	00 00		 mov	 DWORD PTR _j$2[ebp], 0
  000d6	eb 09		 jmp	 SHORT $LN7@MonsterIte
$LN5@MonsterIte:
  000d8	8b 45 b8	 mov	 eax, DWORD PTR _j$2[ebp]
  000db	83 c0 01	 add	 eax, 1
  000de	89 45 b8	 mov	 DWORD PTR _j$2[ebp], eax
$LN7@MonsterIte:
  000e1	8b 45 e4	 mov	 eax, DWORD PTR _lpQuestInfo$[ebp]
  000e4	8b 4d b8	 mov	 ecx, DWORD PTR _j$2[ebp]
  000e7	3b 48 40	 cmp	 ecx, DWORD PTR [eax+64]
  000ea	0f 8d 95 01 00
	00		 jge	 $LN6@MonsterIte

; 903  : 		{
; 904  : 			lpSubInfo = GetSubquestInfo(lpTarget, lpQuestInfo, j);

  000f0	8b 45 b8	 mov	 eax, DWORD PTR _j$2[ebp]
  000f3	50		 push	 eax
  000f4	8b 4d e4	 mov	 ecx, DWORD PTR _lpQuestInfo$[ebp]
  000f7	51		 push	 ecx
  000f8	8b 55 f0	 mov	 edx, DWORD PTR _lpTarget$[ebp]
  000fb	52		 push	 edx
  000fc	8b 4d fc	 mov	 ecx, DWORD PTR _this$[ebp]
  000ff	e8 00 00 00 00	 call	 ?GetSubquestInfo@CQuestInfo@@QAEPAUQUEST_SUB_INFO@@PAVOBJECTSTRUCT@@PAUQUEST_INFO@@H@Z ; CQuestInfo::GetSubquestInfo
  00104	89 45 e0	 mov	 DWORD PTR _lpSubInfo$[ebp], eax

; 905  : 
; 906  : 			if( lpSubInfo )

  00107	83 7d e0 00	 cmp	 DWORD PTR _lpSubInfo$[ebp], 0
  0010b	0f 84 6f 01 00
	00		 je	 $LN15@MonsterIte

; 907  : 			{
; 908  : 				if( lpSubInfo->QuestType == 1  )

  00111	8b 45 e0	 mov	 eax, DWORD PTR _lpSubInfo$[ebp]
  00114	83 38 01	 cmp	 DWORD PTR [eax], 1
  00117	0f 85 63 01 00
	00		 jne	 $LN15@MonsterIte

; 909  : 				{	// 퀘스트 타입이 Item드랍일때만
; 910  : #ifdef THIRD_CHANGEUP_SYSTEM_20070507	// NeedTargetMinLevel이 -1이면 
; 911  : 										// NeedTargetMaxLevel은 몬스터 인덱스로 특정 몬스터를 지정할 수 있다.
; 912  : 					if( ( lpSubInfo->NeedTargetMinLevel > 0 
; 913  : 							&& lpObj->Level >= lpSubInfo->NeedTargetMinLevel 
; 914  : 							&& lpObj->Level <= lpSubInfo->NeedTargetMaxLevel )
; 915  : 						|| ( lpSubInfo->NeedTargetMinLevel == -1 && lpObj->Class == lpSubInfo->NeedTargetMaxLevel ) )
; 916  : #else
; 917  : 					if( lpObj->Level >= lpSubInfo->NeedTargetMinLevel && 

  0011d	8b 45 08	 mov	 eax, DWORD PTR _lpObj$[ebp]
  00120	0f bf 88 a0 00
	00 00		 movsx	 ecx, WORD PTR [eax+160]
  00127	8b 55 e0	 mov	 edx, DWORD PTR _lpSubInfo$[ebp]
  0012a	3b 4a 14	 cmp	 ecx, DWORD PTR [edx+20]
  0012d	0f 8c 4d 01 00
	00		 jl	 $LN15@MonsterIte
  00133	8b 45 08	 mov	 eax, DWORD PTR _lpObj$[ebp]
  00136	0f bf 88 a0 00
	00 00		 movsx	 ecx, WORD PTR [eax+160]
  0013d	8b 55 e0	 mov	 edx, DWORD PTR _lpSubInfo$[ebp]
  00140	3b 4a 18	 cmp	 ecx, DWORD PTR [edx+24]
  00143	0f 8f 37 01 00
	00		 jg	 $LN15@MonsterIte

; 918  : 						lpObj->Level <= lpSubInfo->NeedTargetMaxLevel )
; 919  : #endif
; 920  : 					{	// 퀘스트 대상 몬스터가 없을때나 퀘스트 대상 몬스터가 맞을때
; 921  : 						if( GetQuestState(lpTarget, lpQuestInfo->QuestIndex) == QS_ACCEPT )

  00149	8b 45 e4	 mov	 eax, DWORD PTR _lpQuestInfo$[ebp]
  0014c	8b 48 34	 mov	 ecx, DWORD PTR [eax+52]
  0014f	51		 push	 ecx
  00150	8b 55 f0	 mov	 edx, DWORD PTR _lpTarget$[ebp]
  00153	52		 push	 edx
  00154	8b 4d fc	 mov	 ecx, DWORD PTR _this$[ebp]
  00157	e8 00 00 00 00	 call	 ?GetQuestState@CQuestInfo@@QAEHPAVOBJECTSTRUCT@@H@Z ; CQuestInfo::GetQuestState
  0015c	83 f8 01	 cmp	 eax, 1
  0015f	0f 85 1b 01 00
	00		 jne	 $LN15@MonsterIte

; 922  : 						{	// 해당 퀘스트 상태가 진행 중일때만
; 923  : 							// 현재 퀘스트 아이템이 몇개가 있는지 확인한다
; 924  : 							if( rand()%1000 < lpSubInfo->NeedDropRate )

  00165	e8 00 00 00 00	 call	 _rand
  0016a	99		 cdq
  0016b	b9 e8 03 00 00	 mov	 ecx, 1000		; 000003e8H
  00170	f7 f9		 idiv	 ecx
  00172	8b 45 e0	 mov	 eax, DWORD PTR _lpSubInfo$[ebp]
  00175	3b 50 1c	 cmp	 edx, DWORD PTR [eax+28]
  00178	0f 8d 02 01 00
	00		 jge	 $LN15@MonsterIte

; 925  : 							{
; 926  : #ifdef SECOND_QUEST
; 927  : 								int itemcount = gObjGetItemCountInIventory(MaxHitUser, lpSubInfo->NeedType, lpSubInfo->NeedSubType, lpSubInfo->ItemLevel);

  0017e	8b 45 e0	 mov	 eax, DWORD PTR _lpSubInfo$[ebp]
  00181	8b 48 0c	 mov	 ecx, DWORD PTR [eax+12]
  00184	51		 push	 ecx
  00185	8b 55 e0	 mov	 edx, DWORD PTR _lpSubInfo$[ebp]
  00188	8b 42 08	 mov	 eax, DWORD PTR [edx+8]
  0018b	50		 push	 eax
  0018c	8b 4d e0	 mov	 ecx, DWORD PTR _lpSubInfo$[ebp]
  0018f	8b 51 04	 mov	 edx, DWORD PTR [ecx+4]
  00192	52		 push	 edx
  00193	8b 45 f8	 mov	 eax, DWORD PTR _MaxHitUser$[ebp]
  00196	50		 push	 eax
  00197	e8 00 00 00 00	 call	 ?gObjGetItemCountInIventory@@YAHHHHH@Z ; gObjGetItemCountInIventory
  0019c	83 c4 10	 add	 esp, 16			; 00000010H
  0019f	89 45 b4	 mov	 DWORD PTR _itemcount$1[ebp], eax

; 928  : #else
; 929  : 								int itemcount = gObjGetItemCountInIventory(MaxHitUser, lpSubInfo->NeedType, lpSubInfo->NeedSubType);
; 930  : #endif
; 931  : 
; 932  : 								if( itemcount >= lpSubInfo->NeedNumber )

  001a2	8b 45 e0	 mov	 eax, DWORD PTR _lpSubInfo$[ebp]
  001a5	8b 4d b4	 mov	 ecx, DWORD PTR _itemcount$1[ebp]
  001a8	3b 48 10	 cmp	 ecx, DWORD PTR [eax+16]
  001ab	7c 05		 jl	 SHORT $LN16@MonsterIte

; 933  : 								{	// 이미 필요한 만큼 가지고 있다면
; 934  : 									continue;

  001ad	e9 26 ff ff ff	 jmp	 $LN5@MonsterIte
$LN16@MonsterIte:

; 935  : 								}
; 936  : 
; 937  : 								dur  = 0;

  001b2	0f 57 c0	 xorps	 xmm0, xmm0
  001b5	f3 0f 11 45 cc	 movss	 DWORD PTR _dur$[ebp], xmm0

; 938  : 								x    = lpObj->X;

  001ba	8b 45 08	 mov	 eax, DWORD PTR _lpObj$[ebp]
  001bd	0f bf 88 04 01
	00 00		 movsx	 ecx, WORD PTR [eax+260]
  001c4	89 4d d4	 mov	 DWORD PTR _x$[ebp], ecx

; 939  : 								y    = lpObj->Y;

  001c7	8b 45 08	 mov	 eax, DWORD PTR _lpObj$[ebp]
  001ca	0f bf 88 06 01
	00 00		 movsx	 ecx, WORD PTR [eax+262]
  001d1	89 4d d0	 mov	 DWORD PTR _y$[ebp], ecx

; 940  : 
; 941  : #ifdef SECOND_QUEST
; 942  : 								level= lpSubInfo->ItemLevel;	

  001d4	8b 45 e0	 mov	 eax, DWORD PTR _lpSubInfo$[ebp]
  001d7	8b 48 0c	 mov	 ecx, DWORD PTR [eax+12]
  001da	89 4d d8	 mov	 DWORD PTR _level$[ebp], ecx

; 943  : #else
; 944  : 								level= 0;	
; 945  : #endif
; 946  : 								type = ItemGetNumberMake(lpSubInfo->NeedType, lpSubInfo->NeedSubType);

  001dd	8b 45 e0	 mov	 eax, DWORD PTR _lpSubInfo$[ebp]
  001e0	8b 48 08	 mov	 ecx, DWORD PTR [eax+8]
  001e3	51		 push	 ecx
  001e4	8b 55 e0	 mov	 edx, DWORD PTR _lpSubInfo$[ebp]
  001e7	8b 42 04	 mov	 eax, DWORD PTR [edx+4]
  001ea	50		 push	 eax
  001eb	e8 00 00 00 00	 call	 ?ItemGetNumberMake@@YAHHH@Z ; ItemGetNumberMake
  001f0	83 c4 08	 add	 esp, 8
  001f3	89 45 dc	 mov	 DWORD PTR _type$[ebp], eax

; 947  : 								ItemSerialCreateSend(lpObj->m_Index, lpObj->MapNumber, (BYTE)x, (BYTE)y, type, level, (BYTE)dur, Option1, Option2, Option3, MaxHitUser);

  001f6	6a 00		 push	 0
  001f8	6a 00		 push	 0
  001fa	6a 00		 push	 0
  001fc	8b 45 f8	 mov	 eax, DWORD PTR _MaxHitUser$[ebp]
  001ff	50		 push	 eax
  00200	0f b6 4d c0	 movzx	 ecx, BYTE PTR _Option3$[ebp]
  00204	51		 push	 ecx
  00205	0f b6 55 c4	 movzx	 edx, BYTE PTR _Option2$[ebp]
  00209	52		 push	 edx
  0020a	0f b6 45 c8	 movzx	 eax, BYTE PTR _Option1$[ebp]
  0020e	50		 push	 eax
  0020f	f3 0f 2c 4d cc	 cvttss2si ecx, DWORD PTR _dur$[ebp]
  00214	0f b6 d1	 movzx	 edx, cl
  00217	52		 push	 edx
  00218	0f b6 45 d8	 movzx	 eax, BYTE PTR _level$[ebp]
  0021c	50		 push	 eax
  0021d	8b 4d dc	 mov	 ecx, DWORD PTR _type$[ebp]
  00220	51		 push	 ecx
  00221	0f b6 55 d0	 movzx	 edx, BYTE PTR _y$[ebp]
  00225	52		 push	 edx
  00226	0f b6 45 d4	 movzx	 eax, BYTE PTR _x$[ebp]
  0022a	50		 push	 eax
  0022b	8b 4d 08	 mov	 ecx, DWORD PTR _lpObj$[ebp]
  0022e	0f b6 91 09 01
	00 00		 movzx	 edx, BYTE PTR [ecx+265]
  00235	52		 push	 edx
  00236	8b 45 08	 mov	 eax, DWORD PTR _lpObj$[ebp]
  00239	8b 08		 mov	 ecx, DWORD PTR [eax]
  0023b	51		 push	 ecx
  0023c	e8 00 00 00 00	 call	 ?ItemSerialCreateSend@@YAXHEEEHEEEEEHEEH@Z ; ItemSerialCreateSend
  00241	83 c4 38	 add	 esp, 56			; 00000038H

; 948  : 
; 949  : 								LogAddTD("[Quest] Quest Item Drop [%s]: [%s][%s] (%s) (%d,%d)", 

  00244	8b 45 e0	 mov	 eax, DWORD PTR _lpSubInfo$[ebp]
  00247	8b 48 08	 mov	 ecx, DWORD PTR [eax+8]
  0024a	51		 push	 ecx
  0024b	8b 55 e0	 mov	 edx, DWORD PTR _lpSubInfo$[ebp]
  0024e	8b 42 04	 mov	 eax, DWORD PTR [edx+4]
  00251	50		 push	 eax
  00252	8b 4d e4	 mov	 ecx, DWORD PTR _lpQuestInfo$[ebp]
  00255	51		 push	 ecx
  00256	8b 55 f0	 mov	 edx, DWORD PTR _lpTarget$[ebp]
  00259	83 c2 73	 add	 edx, 115		; 00000073H
  0025c	52		 push	 edx
  0025d	8b 45 f0	 mov	 eax, DWORD PTR _lpTarget$[ebp]
  00260	83 c0 68	 add	 eax, 104		; 00000068H
  00263	50		 push	 eax
  00264	8b 4d 08	 mov	 ecx, DWORD PTR _lpObj$[ebp]
  00267	83 c1 73	 add	 ecx, 115		; 00000073H
  0026a	51		 push	 ecx
  0026b	68 00 00 00 00	 push	 OFFSET ??_C@_0DE@CLGCKBPA@?$FLQuest?$FN?5Quest?5Item?5Drop?5?$FL?$CFs?$FN?3?5?$FL@
  00270	ff 15 00 00 00
	00		 call	 DWORD PTR ?LogAddTD@@3P6AXPADZZA ; LogAddTD
  00276	83 c4 1c	 add	 esp, 28			; 0000001cH

; 950  : 										 lpObj->Name, lpTarget->AccountID, lpTarget->Name, 
; 951  : 										 lpQuestInfo->Name, lpSubInfo->NeedType, lpSubInfo->NeedSubType);
; 952  : 								return TRUE;							

  00279	b8 01 00 00 00	 mov	 eax, 1
  0027e	eb 1f		 jmp	 SHORT $LN1@MonsterIte
$LN15@MonsterIte:

; 953  : 							}
; 954  : 						}
; 955  : 					}
; 956  : 				}
; 957  : 			}
; 958  : 		}

  00280	e9 53 fe ff ff	 jmp	 $LN5@MonsterIte
$LN6@MonsterIte:

; 959  : 		
; 960  : 		foundquest++;

  00285	8b 45 e8	 mov	 eax, DWORD PTR _foundquest$[ebp]
  00288	83 c0 01	 add	 eax, 1
  0028b	89 45 e8	 mov	 DWORD PTR _foundquest$[ebp], eax

; 961  : 		if( foundquest == questcount )	

  0028e	8b 45 e8	 mov	 eax, DWORD PTR _foundquest$[ebp]
  00291	3b 45 ec	 cmp	 eax, DWORD PTR _questcount$[ebp]
  00294	75 02		 jne	 SHORT $LN17@MonsterIte

; 962  : 			break;

  00296	eb 05		 jmp	 SHORT $LN3@MonsterIte
$LN17@MonsterIte:

; 963  : 	}

  00298	e9 05 fe ff ff	 jmp	 $LN2@MonsterIte
$LN3@MonsterIte:

; 964  : 		
; 965  : 	return FALSE;

  0029d	33 c0		 xor	 eax, eax
$LN1@MonsterIte:

; 966  : }

  0029f	5f		 pop	 edi
  002a0	5e		 pop	 esi
  002a1	5b		 pop	 ebx
  002a2	8b e5		 mov	 esp, ebp
  002a4	5d		 pop	 ebp
  002a5	c2 04 00	 ret	 4
?MonsterItemDrop@CQuestInfo@@QAEHPAVOBJECTSTRUCT@@@Z ENDP ; CQuestInfo::MonsterItemDrop
_TEXT	ENDS
; Function compile flags: /Odtp /ZI
; File C:\Mu Online\Mu-GS-Webzen-MC-10093\GameServer\QuestInfo.cpp
;	COMDAT ?NpcTalk@CQuestInfo@@QAEHPAVOBJECTSTRUCT@@0@Z
_TEXT	SEGMENT
_lpSubInfo$1 = -36					; size = 4
_j$2 = -32						; size = 4
_i$3 = -28						; size = 4
_questindex$ = -24					; size = 4
_queststate$ = -20					; size = 4
_lpQuestInfo$ = -16					; size = 4
_foundquest$ = -12					; size = 4
_questcount$ = -8					; size = 4
_this$ = -4						; size = 4
_lpNpc$ = 8						; size = 4
_lpObj$ = 12						; size = 4
?NpcTalk@CQuestInfo@@QAEHPAVOBJECTSTRUCT@@0@Z PROC	; CQuestInfo::NpcTalk, COMDAT
; _this$ = ecx

; 788  : {

  00000	55		 push	 ebp
  00001	8b ec		 mov	 ebp, esp
  00003	83 ec 64	 sub	 esp, 100		; 00000064H
  00006	53		 push	 ebx
  00007	56		 push	 esi
  00008	57		 push	 edi
  00009	89 4d fc	 mov	 DWORD PTR _this$[ebp], ecx

; 789  : 	int questcount = GetQeustCount();

  0000c	8b 4d fc	 mov	 ecx, DWORD PTR _this$[ebp]
  0000f	e8 00 00 00 00	 call	 ?GetQeustCount@CQuestInfo@@QAEHXZ ; CQuestInfo::GetQeustCount
  00014	89 45 f8	 mov	 DWORD PTR _questcount$[ebp], eax

; 790  : 	int	foundquest = 0;

  00017	c7 45 f4 00 00
	00 00		 mov	 DWORD PTR _foundquest$[ebp], 0

; 791  : 	LPQUEST_INFO lpQuestInfo;
; 792  : 
; 793  : 	int queststate = -1;

  0001e	c7 45 ec ff ff
	ff ff		 mov	 DWORD PTR _queststate$[ebp], -1

; 794  : 	int questindex = -1;	

  00025	c7 45 e8 ff ff
	ff ff		 mov	 DWORD PTR _questindex$[ebp], -1

; 795  : 
; 796  : 	for( int i = 0; i < MAX_QUEST; i++ )

  0002c	c7 45 e4 00 00
	00 00		 mov	 DWORD PTR _i$3[ebp], 0
  00033	eb 09		 jmp	 SHORT $LN4@NpcTalk
$LN2@NpcTalk:
  00035	8b 45 e4	 mov	 eax, DWORD PTR _i$3[ebp]
  00038	83 c0 01	 add	 eax, 1
  0003b	89 45 e4	 mov	 DWORD PTR _i$3[ebp], eax
$LN4@NpcTalk:
  0003e	81 7d e4 c8 00
	00 00		 cmp	 DWORD PTR _i$3[ebp], 200 ; 000000c8H
  00045	0f 8d da 00 00
	00		 jge	 $LN3@NpcTalk

; 797  : 	{
; 798  : 		lpQuestInfo = GetQuestInfo(i);

  0004b	8b 45 e4	 mov	 eax, DWORD PTR _i$3[ebp]
  0004e	50		 push	 eax
  0004f	8b 4d fc	 mov	 ecx, DWORD PTR _this$[ebp]
  00052	e8 00 00 00 00	 call	 ?GetQuestInfo@CQuestInfo@@QAEPAUQUEST_INFO@@H@Z ; CQuestInfo::GetQuestInfo
  00057	89 45 f0	 mov	 DWORD PTR _lpQuestInfo$[ebp], eax

; 799  : 		if( !lpQuestInfo )			

  0005a	83 7d f0 00	 cmp	 DWORD PTR _lpQuestInfo$[ebp], 0
  0005e	75 02		 jne	 SHORT $LN8@NpcTalk

; 800  : 			continue;

  00060	eb d3		 jmp	 SHORT $LN2@NpcTalk
$LN8@NpcTalk:

; 801  : 
; 802  : 		if( lpQuestInfo->QuestStartType == 2 )

  00062	8b 45 f0	 mov	 eax, DWORD PTR _lpQuestInfo$[ebp]
  00065	83 78 38 02	 cmp	 DWORD PTR [eax+56], 2
  00069	0f 85 9e 00 00
	00		 jne	 $LN9@NpcTalk

; 803  : 		{	// 퀘스트 발동 타입이 NPC클릭이면
; 804  : 			if( lpNpc->Class == lpQuestInfo->QuestStartSubType )

  0006f	8b 45 08	 mov	 eax, DWORD PTR _lpNpc$[ebp]
  00072	0f b7 88 9c 00
	00 00		 movzx	 ecx, WORD PTR [eax+156]
  00079	8b 55 f0	 mov	 edx, DWORD PTR _lpQuestInfo$[ebp]
  0007c	3b 4a 3c	 cmp	 ecx, DWORD PTR [edx+60]
  0007f	0f 85 88 00 00
	00		 jne	 $LN9@NpcTalk

; 805  : 			{	// 퀘스트 NPC면
; 806  : 				if( queststate == -1 )

  00085	83 7d ec ff	 cmp	 DWORD PTR _queststate$[ebp], -1
  00089	75 21		 jne	 SHORT $LN11@NpcTalk

; 807  : 				{	// 설정된 퀘스트가 없으면 퀘스트를 지정한다
; 808  : 					questindex = lpQuestInfo->QuestIndex;

  0008b	8b 45 f0	 mov	 eax, DWORD PTR _lpQuestInfo$[ebp]
  0008e	8b 48 34	 mov	 ecx, DWORD PTR [eax+52]
  00091	89 4d e8	 mov	 DWORD PTR _questindex$[ebp], ecx

; 809  : 					queststate = GetQuestState(lpObj, lpQuestInfo->QuestIndex);

  00094	8b 45 f0	 mov	 eax, DWORD PTR _lpQuestInfo$[ebp]
  00097	8b 48 34	 mov	 ecx, DWORD PTR [eax+52]
  0009a	51		 push	 ecx
  0009b	8b 55 0c	 mov	 edx, DWORD PTR _lpObj$[ebp]
  0009e	52		 push	 edx
  0009f	8b 4d fc	 mov	 ecx, DWORD PTR _this$[ebp]
  000a2	e8 00 00 00 00	 call	 ?GetQuestState@CQuestInfo@@QAEHPAVOBJECTSTRUCT@@H@Z ; CQuestInfo::GetQuestState
  000a7	89 45 ec	 mov	 DWORD PTR _queststate$[ebp], eax

; 810  : 				}

  000aa	eb 61		 jmp	 SHORT $LN9@NpcTalk
$LN11@NpcTalk:

; 811  : 				else if( queststate == QS_CLEAR )

  000ac	83 7d ec 02	 cmp	 DWORD PTR _queststate$[ebp], 2
  000b0	75 5b		 jne	 SHORT $LN9@NpcTalk

; 812  : 				{	// 중복으로 체크된 퀘스트가 있는데 
; 813  : 					// 이전에 체크된 퀘스트가 클리어 되어 있는 상태면, 다음 퀘스트를 진행시킨다
; 814  : #ifdef SECOND_QUEST
; 815  : 					for( int j = 0; j < lpQuestInfo->QuestSubInfoCount; j++ )

  000b2	c7 45 e0 00 00
	00 00		 mov	 DWORD PTR _j$2[ebp], 0
  000b9	eb 09		 jmp	 SHORT $LN7@NpcTalk
$LN5@NpcTalk:
  000bb	8b 45 e0	 mov	 eax, DWORD PTR _j$2[ebp]
  000be	83 c0 01	 add	 eax, 1
  000c1	89 45 e0	 mov	 DWORD PTR _j$2[ebp], eax
$LN7@NpcTalk:
  000c4	8b 45 f0	 mov	 eax, DWORD PTR _lpQuestInfo$[ebp]
  000c7	8b 4d e0	 mov	 ecx, DWORD PTR _j$2[ebp]
  000ca	3b 48 40	 cmp	 ecx, DWORD PTR [eax+64]
  000cd	7d 3e		 jge	 SHORT $LN9@NpcTalk

; 816  : 					{
; 817  : 						LPQUEST_SUB_INFO lpSubInfo = GetSubquestInfo(lpObj, lpQuestInfo, j);

  000cf	8b 45 e0	 mov	 eax, DWORD PTR _j$2[ebp]
  000d2	50		 push	 eax
  000d3	8b 4d f0	 mov	 ecx, DWORD PTR _lpQuestInfo$[ebp]
  000d6	51		 push	 ecx
  000d7	8b 55 0c	 mov	 edx, DWORD PTR _lpObj$[ebp]
  000da	52		 push	 edx
  000db	8b 4d fc	 mov	 ecx, DWORD PTR _this$[ebp]
  000de	e8 00 00 00 00	 call	 ?GetSubquestInfo@CQuestInfo@@QAEPAUQUEST_SUB_INFO@@PAVOBJECTSTRUCT@@PAUQUEST_INFO@@H@Z ; CQuestInfo::GetSubquestInfo
  000e3	89 45 dc	 mov	 DWORD PTR _lpSubInfo$1[ebp], eax

; 818  : 						if( lpSubInfo )

  000e6	83 7d dc 00	 cmp	 DWORD PTR _lpSubInfo$1[ebp], 0
  000ea	74 1f		 je	 SHORT $LN14@NpcTalk

; 819  : 						{	// 서브정보가 있는 퀘스트만 인정한다
; 820  : 							questindex = lpQuestInfo->QuestIndex;

  000ec	8b 45 f0	 mov	 eax, DWORD PTR _lpQuestInfo$[ebp]
  000ef	8b 48 34	 mov	 ecx, DWORD PTR [eax+52]
  000f2	89 4d e8	 mov	 DWORD PTR _questindex$[ebp], ecx

; 821  : 							queststate = GetQuestState(lpObj, lpQuestInfo->QuestIndex);

  000f5	8b 45 f0	 mov	 eax, DWORD PTR _lpQuestInfo$[ebp]
  000f8	8b 48 34	 mov	 ecx, DWORD PTR [eax+52]
  000fb	51		 push	 ecx
  000fc	8b 55 0c	 mov	 edx, DWORD PTR _lpObj$[ebp]
  000ff	52		 push	 edx
  00100	8b 4d fc	 mov	 ecx, DWORD PTR _this$[ebp]
  00103	e8 00 00 00 00	 call	 ?GetQuestState@CQuestInfo@@QAEHPAVOBJECTSTRUCT@@H@Z ; CQuestInfo::GetQuestState
  00108	89 45 ec	 mov	 DWORD PTR _queststate$[ebp], eax
$LN14@NpcTalk:

; 822  : 						}
; 823  : 					}

  0010b	eb ae		 jmp	 SHORT $LN5@NpcTalk
$LN9@NpcTalk:

; 824  : #else
; 825  : 					questindex = lpQuestInfo->QuestIndex;
; 826  : 					queststate = GetQuestState(lpObj, lpQuestInfo->QuestIndex);
; 827  : #endif
; 828  : 				}
; 829  : 			}
; 830  : 		}
; 831  : 
; 832  : 		foundquest++;

  0010d	8b 45 f4	 mov	 eax, DWORD PTR _foundquest$[ebp]
  00110	83 c0 01	 add	 eax, 1
  00113	89 45 f4	 mov	 DWORD PTR _foundquest$[ebp], eax

; 833  : 		if( foundquest == questcount )		

  00116	8b 45 f4	 mov	 eax, DWORD PTR _foundquest$[ebp]
  00119	3b 45 f8	 cmp	 eax, DWORD PTR _questcount$[ebp]
  0011c	75 02		 jne	 SHORT $LN15@NpcTalk

; 834  : 			break;

  0011e	eb 05		 jmp	 SHORT $LN3@NpcTalk
$LN15@NpcTalk:

; 835  : 	}

  00120	e9 10 ff ff ff	 jmp	 $LN2@NpcTalk
$LN3@NpcTalk:

; 836  : 
; 837  : 	if( queststate != -1 )

  00125	83 7d ec ff	 cmp	 DWORD PTR _queststate$[ebp], -1
  00129	74 5e		 je	 SHORT $LN16@NpcTalk

; 838  : 	{
; 839  : 		// 몬스터 킬이 완료조건인 퀘스트면 킬카운트 정보를 먼저 보낸다.
; 840  : #ifdef MODIFY_QUEST_MONSTER_KILL_COUNT_BUGFIX_20070704
; 841  : 		BOOL bSendResult = QuestMonsterKillInfoSend( questindex, lpObj->m_Index );
; 842  : 		if( bSendResult == FALSE )
; 843  : 		{
; 844  : 			// 몬스터 킬카운트 다시 보내는 중 -> NPC의 퀘스트창을 열지 못하게 한다.		
; 845  : 			return TRUE;
; 846  : 		}
; 847  : #endif		
; 848  : 		GCSendQuestInfo(lpObj->m_Index, questindex);

  0012b	8b 45 e8	 mov	 eax, DWORD PTR _questindex$[ebp]
  0012e	50		 push	 eax
  0012f	8b 4d 0c	 mov	 ecx, DWORD PTR _lpObj$[ebp]
  00132	8b 11		 mov	 edx, DWORD PTR [ecx]
  00134	52		 push	 edx
  00135	e8 00 00 00 00	 call	 ?GCSendQuestInfo@@YAXHH@Z ; GCSendQuestInfo
  0013a	83 c4 08	 add	 esp, 8

; 849  : 		
; 850  : 		lpObj->m_IfState.type   = I_QUEST;	

  0013d	8b 45 0c	 mov	 eax, DWORD PTR _lpObj$[ebp]
  00140	8a 88 56 0c 00
	00		 mov	 cl, BYTE PTR [eax+3158]
  00146	80 e1 0f	 and	 cl, 15			; 0000000fH
  00149	80 c9 a0	 or	 cl, 160			; 000000a0H
  0014c	8b 55 0c	 mov	 edx, DWORD PTR _lpObj$[ebp]
  0014f	88 8a 56 0c 00
	00		 mov	 BYTE PTR [edx+3158], cl

; 851  : 		lpObj->m_IfState.state = 0;

  00155	8b 45 0c	 mov	 eax, DWORD PTR _lpObj$[ebp]
  00158	8a 88 56 0c 00
	00		 mov	 cl, BYTE PTR [eax+3158]
  0015e	80 e1 f3	 and	 cl, 243			; 000000f3H
  00161	8b 55 0c	 mov	 edx, DWORD PTR _lpObj$[ebp]
  00164	88 8a 56 0c 00
	00		 mov	 BYTE PTR [edx+3158], cl

; 852  : 		lpObj->m_IfState.use = 1;

  0016a	8b 45 0c	 mov	 eax, DWORD PTR _lpObj$[ebp]
  0016d	8a 88 56 0c 00
	00		 mov	 cl, BYTE PTR [eax+3158]
  00173	80 e1 fc	 and	 cl, 252			; 000000fcH
  00176	80 c9 01	 or	 cl, 1
  00179	8b 55 0c	 mov	 edx, DWORD PTR _lpObj$[ebp]
  0017c	88 8a 56 0c 00
	00		 mov	 BYTE PTR [edx+3158], cl

; 853  : 
; 854  : 		return TRUE;

  00182	b8 01 00 00 00	 mov	 eax, 1
  00187	eb 02		 jmp	 SHORT $LN1@NpcTalk
$LN16@NpcTalk:

; 855  : 	}
; 856  : 
; 857  : 	return FALSE;

  00189	33 c0		 xor	 eax, eax
$LN1@NpcTalk:

; 858  : }

  0018b	5f		 pop	 edi
  0018c	5e		 pop	 esi
  0018d	5b		 pop	 ebx
  0018e	8b e5		 mov	 esp, ebp
  00190	5d		 pop	 ebp
  00191	c2 08 00	 ret	 8
?NpcTalk@CQuestInfo@@QAEHPAVOBJECTSTRUCT@@0@Z ENDP	; CQuestInfo::NpcTalk
_TEXT	ENDS
; Function compile flags: /Odtp /ZI
; File C:\Mu Online\Mu-GS-Webzen-MC-10093\GameServer\QuestInfo.cpp
;	COMDAT ?CompareCondition@CQuestInfo@@QAEHPAVOBJECTSTRUCT@@PAUQUEST_CONDITION@@@Z
_TEXT	SEGMENT
_this$ = -4						; size = 4
_lpObj$ = 8						; size = 4
_lpCondition$ = 12					; size = 4
?CompareCondition@CQuestInfo@@QAEHPAVOBJECTSTRUCT@@PAUQUEST_CONDITION@@@Z PROC ; CQuestInfo::CompareCondition, COMDAT
; _this$ = ecx

; 749  : {

  00000	55		 push	 ebp
  00001	8b ec		 mov	 ebp, esp
  00003	83 ec 44	 sub	 esp, 68			; 00000044H
  00006	53		 push	 ebx
  00007	56		 push	 esi
  00008	57		 push	 edi
  00009	89 4d fc	 mov	 DWORD PTR _this$[ebp], ecx

; 750  : 	if( lpCondition->NeedQuestIndex != -1 )

  0000c	8b 45 0c	 mov	 eax, DWORD PTR _lpCondition$[ebp]
  0000f	83 78 04 ff	 cmp	 DWORD PTR [eax+4], -1
  00013	74 1c		 je	 SHORT $LN2@CompareCon

; 751  : 	{	// 그전에 클리어한 퀘스트가 클리어 되지 않았다
; 752  : 		if( GetQuestState(lpObj, lpCondition->NeedQuestIndex) != QS_CLEAR )

  00015	8b 45 0c	 mov	 eax, DWORD PTR _lpCondition$[ebp]
  00018	8b 48 04	 mov	 ecx, DWORD PTR [eax+4]
  0001b	51		 push	 ecx
  0001c	8b 55 08	 mov	 edx, DWORD PTR _lpObj$[ebp]
  0001f	52		 push	 edx
  00020	8b 4d fc	 mov	 ecx, DWORD PTR _this$[ebp]
  00023	e8 00 00 00 00	 call	 ?GetQuestState@CQuestInfo@@QAEHPAVOBJECTSTRUCT@@H@Z ; CQuestInfo::GetQuestState
  00028	83 f8 02	 cmp	 eax, 2
  0002b	74 04		 je	 SHORT $LN2@CompareCon

; 753  : 			return FALSE;

  0002d	33 c0		 xor	 eax, eax
  0002f	eb 7a		 jmp	 SHORT $LN1@CompareCon
$LN2@CompareCon:

; 754  : 	}
; 755  : 
; 756  : 	if( lpCondition->MinLevel != 0 )

  00031	8b 45 0c	 mov	 eax, DWORD PTR _lpCondition$[ebp]
  00034	83 78 08 00	 cmp	 DWORD PTR [eax+8], 0
  00038	74 16		 je	 SHORT $LN4@CompareCon

; 757  : 	{
; 758  : 		if( lpCondition->MinLevel > lpObj->Level )

  0003a	8b 45 08	 mov	 eax, DWORD PTR _lpObj$[ebp]
  0003d	0f bf 88 a0 00
	00 00		 movsx	 ecx, WORD PTR [eax+160]
  00044	8b 55 0c	 mov	 edx, DWORD PTR _lpCondition$[ebp]
  00047	39 4a 08	 cmp	 DWORD PTR [edx+8], ecx
  0004a	7e 04		 jle	 SHORT $LN4@CompareCon

; 759  : 		{	// 최소 레벨에 맞지 않는다
; 760  : 			return FALSE;

  0004c	33 c0		 xor	 eax, eax
  0004e	eb 5b		 jmp	 SHORT $LN1@CompareCon
$LN4@CompareCon:

; 761  : 		}
; 762  : 	}
; 763  : 
; 764  : 	if( lpCondition->MaxLevel != 0 )

  00050	8b 45 0c	 mov	 eax, DWORD PTR _lpCondition$[ebp]
  00053	83 78 0c 00	 cmp	 DWORD PTR [eax+12], 0
  00057	74 16		 je	 SHORT $LN6@CompareCon

; 765  : 	{
; 766  : 		if( lpCondition->MaxLevel < lpObj->Level )

  00059	8b 45 08	 mov	 eax, DWORD PTR _lpObj$[ebp]
  0005c	0f bf 88 a0 00
	00 00		 movsx	 ecx, WORD PTR [eax+160]
  00063	8b 55 0c	 mov	 edx, DWORD PTR _lpCondition$[ebp]
  00066	39 4a 0c	 cmp	 DWORD PTR [edx+12], ecx
  00069	7d 04		 jge	 SHORT $LN6@CompareCon

; 767  : 		{	// 최대 레벨에 맞지 않는다
; 768  : 			return FALSE;

  0006b	33 c0		 xor	 eax, eax
  0006d	eb 3c		 jmp	 SHORT $LN1@CompareCon
$LN6@CompareCon:

; 769  : 		}
; 770  : 	}
; 771  : 
; 772  : 	if( lpCondition->NeedZen > lpObj->Money )

  0006f	8b 45 0c	 mov	 eax, DWORD PTR _lpCondition$[ebp]
  00072	8b 4d 08	 mov	 ecx, DWORD PTR _lpObj$[ebp]
  00075	8b 50 14	 mov	 edx, DWORD PTR [eax+20]
  00078	3b 91 b0 00 00
	00		 cmp	 edx, DWORD PTR [ecx+176]
  0007e	7e 04		 jle	 SHORT $LN8@CompareCon

; 773  : 	{	// 돈이 부족하다
; 774  : 		return FALSE;

  00080	33 c0		 xor	 eax, eax
  00082	eb 27		 jmp	 SHORT $LN1@CompareCon
$LN8@CompareCon:

; 775  : 	}
; 776  : 
; 777  : #ifdef SECOND_QUEST
; 778  : 	if( lpCondition->ReqStr > (lpObj->Strength+lpObj->AddStrength) )

  00084	8b 45 08	 mov	 eax, DWORD PTR _lpObj$[ebp]
  00087	0f b7 88 b4 00
	00 00		 movzx	 ecx, WORD PTR [eax+180]
  0008e	8b 55 08	 mov	 edx, DWORD PTR _lpObj$[ebp]
  00091	0f b7 82 e0 00
	00 00		 movzx	 eax, WORD PTR [edx+224]
  00098	03 c8		 add	 ecx, eax
  0009a	8b 55 0c	 mov	 edx, DWORD PTR _lpCondition$[ebp]
  0009d	39 4a 10	 cmp	 DWORD PTR [edx+16], ecx
  000a0	7e 04		 jle	 SHORT $LN9@CompareCon

; 779  : 	{
; 780  : 		return FALSE;

  000a2	33 c0		 xor	 eax, eax
  000a4	eb 05		 jmp	 SHORT $LN1@CompareCon
$LN9@CompareCon:

; 781  : 	}
; 782  : #endif
; 783  : 
; 784  : 	return TRUE;

  000a6	b8 01 00 00 00	 mov	 eax, 1
$LN1@CompareCon:

; 785  : }

  000ab	5f		 pop	 edi
  000ac	5e		 pop	 esi
  000ad	5b		 pop	 ebx
  000ae	8b e5		 mov	 esp, ebp
  000b0	5d		 pop	 ebp
  000b1	c2 08 00	 ret	 8
?CompareCondition@CQuestInfo@@QAEHPAVOBJECTSTRUCT@@PAUQUEST_CONDITION@@@Z ENDP ; CQuestInfo::CompareCondition
_TEXT	ENDS
; Function compile flags: /Odtp /ZI
; File C:\Mu Online\Mu-GS-Webzen-MC-10093\GameServer\QuestInfo.cpp
;	COMDAT ?QuestRunConditionCheck@CQuestInfo@@QAEEPAVOBJECTSTRUCT@@H@Z
_TEXT	SEGMENT
_condition$1 = -36					; size = 4
_subquest$2 = -32					; size = 4
_bFoundSubQuest$ = -28					; size = 4
_lpCondition$ = -24					; size = 4
_lpSubInfo$ = -20					; size = 4
_concount$ = -16					; size = 4
_subquestcount$ = -12					; size = 4
_lpQuestInfo$ = -8					; size = 4
_this$ = -4						; size = 4
_lpObj$ = 8						; size = 4
_QuestIndex$ = 12					; size = 4
?QuestRunConditionCheck@CQuestInfo@@QAEEPAVOBJECTSTRUCT@@H@Z PROC ; CQuestInfo::QuestRunConditionCheck, COMDAT
; _this$ = ecx

; 693  : {

  00000	55		 push	 ebp
  00001	8b ec		 mov	 ebp, esp
  00003	83 ec 64	 sub	 esp, 100		; 00000064H
  00006	53		 push	 ebx
  00007	56		 push	 esi
  00008	57		 push	 edi
  00009	89 4d fc	 mov	 DWORD PTR _this$[ebp], ecx

; 694  : 	LPQUEST_INFO lpQuestInfo;
; 695  : 	lpQuestInfo = GetQuestInfo(QuestIndex);

  0000c	8b 45 0c	 mov	 eax, DWORD PTR _QuestIndex$[ebp]
  0000f	50		 push	 eax
  00010	8b 4d fc	 mov	 ecx, DWORD PTR _this$[ebp]
  00013	e8 00 00 00 00	 call	 ?GetQuestInfo@CQuestInfo@@QAEPAUQUEST_INFO@@H@Z ; CQuestInfo::GetQuestInfo
  00018	89 45 f8	 mov	 DWORD PTR _lpQuestInfo$[ebp], eax

; 696  : 
; 697  : 	if( !lpQuestInfo )

  0001b	83 7d f8 00	 cmp	 DWORD PTR _lpQuestInfo$[ebp], 0
  0001f	75 07		 jne	 SHORT $LN8@QuestRunCo

; 698  : 		return 0xff;	// 퀘스트가 없다

  00021	0c ff		 or	 al, 255			; 000000ffH
  00023	e9 0c 01 00 00	 jmp	 $LN1@QuestRunCo
$LN8@QuestRunCo:

; 699  : 
; 700  : 	int subquestcount = lpQuestInfo->QuestSubInfoCount;

  00028	8b 45 f8	 mov	 eax, DWORD PTR _lpQuestInfo$[ebp]
  0002b	8b 48 40	 mov	 ecx, DWORD PTR [eax+64]
  0002e	89 4d f4	 mov	 DWORD PTR _subquestcount$[ebp], ecx

; 701  : 	int concount = lpQuestInfo->QuestConditionCount;

  00031	8b 45 f8	 mov	 eax, DWORD PTR _lpQuestInfo$[ebp]
  00034	8b 88 14 03 00
	00		 mov	 ecx, DWORD PTR [eax+788]
  0003a	89 4d f0	 mov	 DWORD PTR _concount$[ebp], ecx

; 702  : 	LPQUEST_SUB_INFO lpSubInfo;
; 703  : 	LPQUEST_CONDITION lpCondition;
; 704  : 
; 705  : 	BOOL	bFoundSubQuest = FALSE;

  0003d	c7 45 e4 00 00
	00 00		 mov	 DWORD PTR _bFoundSubQuest$[ebp], 0

; 706  : 
; 707  : 	for( int subquest = 0; subquest < subquestcount; subquest++ )

  00044	c7 45 e0 00 00
	00 00		 mov	 DWORD PTR _subquest$2[ebp], 0
  0004b	eb 09		 jmp	 SHORT $LN4@QuestRunCo
$LN2@QuestRunCo:
  0004d	8b 45 e0	 mov	 eax, DWORD PTR _subquest$2[ebp]
  00050	83 c0 01	 add	 eax, 1
  00053	89 45 e0	 mov	 DWORD PTR _subquest$2[ebp], eax
$LN4@QuestRunCo:
  00056	8b 45 e0	 mov	 eax, DWORD PTR _subquest$2[ebp]
  00059	3b 45 f4	 cmp	 eax, DWORD PTR _subquestcount$[ebp]
  0005c	0f 8d c6 00 00
	00		 jge	 $LN3@QuestRunCo

; 708  : 	{
; 709  : 		lpSubInfo = GetSubquestInfo(lpObj, lpQuestInfo, subquest);

  00062	8b 45 e0	 mov	 eax, DWORD PTR _subquest$2[ebp]
  00065	50		 push	 eax
  00066	8b 4d f8	 mov	 ecx, DWORD PTR _lpQuestInfo$[ebp]
  00069	51		 push	 ecx
  0006a	8b 55 08	 mov	 edx, DWORD PTR _lpObj$[ebp]
  0006d	52		 push	 edx
  0006e	8b 4d fc	 mov	 ecx, DWORD PTR _this$[ebp]
  00071	e8 00 00 00 00	 call	 ?GetSubquestInfo@CQuestInfo@@QAEPAUQUEST_SUB_INFO@@PAVOBJECTSTRUCT@@PAUQUEST_INFO@@H@Z ; CQuestInfo::GetSubquestInfo
  00076	89 45 ec	 mov	 DWORD PTR _lpSubInfo$[ebp], eax

; 710  : 
; 711  : 		if( lpSubInfo )

  00079	83 7d ec 00	 cmp	 DWORD PTR _lpSubInfo$[ebp], 0
  0007d	0f 84 a0 00 00
	00		 je	 $LN9@QuestRunCo

; 712  : 		{
; 713  : 			bFoundSubQuest = TRUE;

  00083	c7 45 e4 01 00
	00 00		 mov	 DWORD PTR _bFoundSubQuest$[ebp], 1

; 714  : 			for( int condition = 0; condition < concount; condition++ )

  0008a	c7 45 dc 00 00
	00 00		 mov	 DWORD PTR _condition$1[ebp], 0
  00091	eb 09		 jmp	 SHORT $LN7@QuestRunCo
$LN5@QuestRunCo:
  00093	8b 45 dc	 mov	 eax, DWORD PTR _condition$1[ebp]
  00096	83 c0 01	 add	 eax, 1
  00099	89 45 dc	 mov	 DWORD PTR _condition$1[ebp], eax
$LN7@QuestRunCo:
  0009c	8b 45 dc	 mov	 eax, DWORD PTR _condition$1[ebp]
  0009f	3b 45 f0	 cmp	 eax, DWORD PTR _concount$[ebp]
  000a2	7d 7f		 jge	 SHORT $LN9@QuestRunCo

; 715  : 			{	
; 716  : 				lpCondition = GetQuestCondition(lpQuestInfo, condition);

  000a4	8b 45 dc	 mov	 eax, DWORD PTR _condition$1[ebp]
  000a7	50		 push	 eax
  000a8	8b 4d f8	 mov	 ecx, DWORD PTR _lpQuestInfo$[ebp]
  000ab	51		 push	 ecx
  000ac	8b 4d fc	 mov	 ecx, DWORD PTR _this$[ebp]
  000af	e8 00 00 00 00	 call	 ?GetQuestCondition@CQuestInfo@@QAEPAUQUEST_CONDITION@@PAUQUEST_INFO@@H@Z ; CQuestInfo::GetQuestCondition
  000b4	89 45 e8	 mov	 DWORD PTR _lpCondition$[ebp], eax

; 717  : 
; 718  : 				if( lpCondition && lpCondition->Index == -1 )

  000b7	83 7d e8 00	 cmp	 DWORD PTR _lpCondition$[ebp], 0
  000bb	74 26		 je	 SHORT $LN10@QuestRunCo
  000bd	8b 45 e8	 mov	 eax, DWORD PTR _lpCondition$[ebp]
  000c0	83 38 ff	 cmp	 DWORD PTR [eax], -1
  000c3	75 1e		 jne	 SHORT $LN10@QuestRunCo

; 719  : 				{	// 먼저 모든 조건에 해당되는 것을 검사한다
; 720  : 					if( !CompareCondition(lpObj, lpCondition) )

  000c5	8b 45 e8	 mov	 eax, DWORD PTR _lpCondition$[ebp]
  000c8	50		 push	 eax
  000c9	8b 4d 08	 mov	 ecx, DWORD PTR _lpObj$[ebp]
  000cc	51		 push	 ecx
  000cd	8b 4d fc	 mov	 ecx, DWORD PTR _this$[ebp]
  000d0	e8 00 00 00 00	 call	 ?CompareCondition@CQuestInfo@@QAEHPAVOBJECTSTRUCT@@PAUQUEST_CONDITION@@@Z ; CQuestInfo::CompareCondition
  000d5	85 c0		 test	 eax, eax
  000d7	75 08		 jne	 SHORT $LN12@QuestRunCo

; 721  : 					{
; 722  : 						return lpCondition->StartContext;

  000d9	8b 45 e8	 mov	 eax, DWORD PTR _lpCondition$[ebp]
  000dc	8a 40 18	 mov	 al, BYTE PTR [eax+24]
  000df	eb 53		 jmp	 SHORT $LN1@QuestRunCo
$LN12@QuestRunCo:

; 723  : 					}
; 724  : 				}

  000e1	eb 3b		 jmp	 SHORT $LN11@QuestRunCo
$LN10@QuestRunCo:

; 725  : 				else if( lpCondition && lpCondition->Index == lpSubInfo->LinkConditionIndex )

  000e3	83 7d e8 00	 cmp	 DWORD PTR _lpCondition$[ebp], 0
  000e7	74 2b		 je	 SHORT $LN13@QuestRunCo
  000e9	8b 45 e8	 mov	 eax, DWORD PTR _lpCondition$[ebp]
  000ec	8b 4d ec	 mov	 ecx, DWORD PTR _lpSubInfo$[ebp]
  000ef	8b 10		 mov	 edx, DWORD PTR [eax]
  000f1	3b 51 2c	 cmp	 edx, DWORD PTR [ecx+44]
  000f4	75 1e		 jne	 SHORT $LN13@QuestRunCo

; 726  : 				{	// 연결 되는 요구조검을 검사한다
; 727  : 					if( !CompareCondition(lpObj, lpCondition) )

  000f6	8b 45 e8	 mov	 eax, DWORD PTR _lpCondition$[ebp]
  000f9	50		 push	 eax
  000fa	8b 4d 08	 mov	 ecx, DWORD PTR _lpObj$[ebp]
  000fd	51		 push	 ecx
  000fe	8b 4d fc	 mov	 ecx, DWORD PTR _this$[ebp]
  00101	e8 00 00 00 00	 call	 ?CompareCondition@CQuestInfo@@QAEHPAVOBJECTSTRUCT@@PAUQUEST_CONDITION@@@Z ; CQuestInfo::CompareCondition
  00106	85 c0		 test	 eax, eax
  00108	75 08		 jne	 SHORT $LN15@QuestRunCo

; 728  : 					{
; 729  : 						return lpCondition->StartContext;

  0010a	8b 45 e8	 mov	 eax, DWORD PTR _lpCondition$[ebp]
  0010d	8a 40 18	 mov	 al, BYTE PTR [eax+24]
  00110	eb 22		 jmp	 SHORT $LN1@QuestRunCo
$LN15@QuestRunCo:

; 730  : 					}
; 731  : 				}

  00112	eb 0a		 jmp	 SHORT $LN11@QuestRunCo
$LN13@QuestRunCo:

; 732  : #ifdef QUEST_BUG_FIX
; 733  : 				else if( !lpCondition )

  00114	83 7d e8 00	 cmp	 DWORD PTR _lpCondition$[ebp], 0
  00118	75 04		 jne	 SHORT $LN11@QuestRunCo

; 734  : 				{
; 735  : 					return 0xff;

  0011a	0c ff		 or	 al, 255			; 000000ffH
  0011c	eb 16		 jmp	 SHORT $LN1@QuestRunCo
$LN11@QuestRunCo:

; 736  : 				}
; 737  : #endif				
; 738  : 			}

  0011e	e9 70 ff ff ff	 jmp	 $LN5@QuestRunCo
$LN9@QuestRunCo:

; 739  : 		}		
; 740  : 	}

  00123	e9 25 ff ff ff	 jmp	 $LN2@QuestRunCo
$LN3@QuestRunCo:

; 741  : 
; 742  : 	if( !bFoundSubQuest )

  00128	83 7d e4 00	 cmp	 DWORD PTR _bFoundSubQuest$[ebp], 0
  0012c	75 04		 jne	 SHORT $LN17@QuestRunCo

; 743  : 		return 0xff;

  0012e	0c ff		 or	 al, 255			; 000000ffH
  00130	eb 02		 jmp	 SHORT $LN1@QuestRunCo
$LN17@QuestRunCo:

; 744  : 
; 745  : 	return FALSE;

  00132	32 c0		 xor	 al, al
$LN1@QuestRunCo:

; 746  : }

  00134	5f		 pop	 edi
  00135	5e		 pop	 esi
  00136	5b		 pop	 ebx
  00137	8b e5		 mov	 esp, ebp
  00139	5d		 pop	 ebp
  0013a	c2 08 00	 ret	 8
?QuestRunConditionCheck@CQuestInfo@@QAEEPAVOBJECTSTRUCT@@H@Z ENDP ; CQuestInfo::QuestRunConditionCheck
_TEXT	ENDS
; Function compile flags: /Odtp /ZI
; File C:\Mu Online\Mu-GS-Webzen-MC-10093\GameServer\QuestInfo.cpp
;	COMDAT ?QuestClearConditionCheck@CQuestInfo@@QAEEPAVOBJECTSTRUCT@@H@Z
_TEXT	SEGMENT
_itemcount$1 = -32					; size = 4
_subquest$2 = -28					; size = 4
_bFoundSubQuest$ = -24					; size = 4
_lpSubInfo$ = -20					; size = 4
_concount$ = -16					; size = 4
_subquestcount$ = -12					; size = 4
_lpQuestInfo$ = -8					; size = 4
_this$ = -4						; size = 4
_lpObj$ = 8						; size = 4
_QuestIndex$ = 12					; size = 4
?QuestClearConditionCheck@CQuestInfo@@QAEEPAVOBJECTSTRUCT@@H@Z PROC ; CQuestInfo::QuestClearConditionCheck, COMDAT
; _this$ = ecx

; 648  : {

  00000	55		 push	 ebp
  00001	8b ec		 mov	 ebp, esp
  00003	83 ec 60	 sub	 esp, 96			; 00000060H
  00006	53		 push	 ebx
  00007	56		 push	 esi
  00008	57		 push	 edi
  00009	89 4d fc	 mov	 DWORD PTR _this$[ebp], ecx

; 649  : 	LPQUEST_INFO lpQuestInfo;
; 650  : 	lpQuestInfo = GetQuestInfo(QuestIndex);

  0000c	8b 45 0c	 mov	 eax, DWORD PTR _QuestIndex$[ebp]
  0000f	50		 push	 eax
  00010	8b 4d fc	 mov	 ecx, DWORD PTR _this$[ebp]
  00013	e8 00 00 00 00	 call	 ?GetQuestInfo@CQuestInfo@@QAEPAUQUEST_INFO@@H@Z ; CQuestInfo::GetQuestInfo
  00018	89 45 f8	 mov	 DWORD PTR _lpQuestInfo$[ebp], eax

; 651  : 
; 652  : 	if( !lpQuestInfo )

  0001b	83 7d f8 00	 cmp	 DWORD PTR _lpQuestInfo$[ebp], 0
  0001f	75 07		 jne	 SHORT $LN5@QuestClear

; 653  : 		return 0xff;	// 퀘스트가 없다

  00021	0c ff		 or	 al, 255			; 000000ffH
  00023	e9 a5 00 00 00	 jmp	 $LN1@QuestClear
$LN5@QuestClear:

; 654  : 
; 655  : 	int subquestcount = lpQuestInfo->QuestSubInfoCount;

  00028	8b 45 f8	 mov	 eax, DWORD PTR _lpQuestInfo$[ebp]
  0002b	8b 48 40	 mov	 ecx, DWORD PTR [eax+64]
  0002e	89 4d f4	 mov	 DWORD PTR _subquestcount$[ebp], ecx

; 656  : 	int concount = lpQuestInfo->QuestConditionCount;

  00031	8b 45 f8	 mov	 eax, DWORD PTR _lpQuestInfo$[ebp]
  00034	8b 88 14 03 00
	00		 mov	 ecx, DWORD PTR [eax+788]
  0003a	89 4d f0	 mov	 DWORD PTR _concount$[ebp], ecx

; 657  : 	LPQUEST_SUB_INFO lpSubInfo;
; 658  : 
; 659  : 	BOOL	bFoundSubQuest = FALSE;

  0003d	c7 45 e8 00 00
	00 00		 mov	 DWORD PTR _bFoundSubQuest$[ebp], 0

; 660  : 
; 661  : 	for( int subquest = 0; subquest < subquestcount; subquest++ )

  00044	c7 45 e4 00 00
	00 00		 mov	 DWORD PTR _subquest$2[ebp], 0
  0004b	eb 09		 jmp	 SHORT $LN4@QuestClear
$LN2@QuestClear:
  0004d	8b 45 e4	 mov	 eax, DWORD PTR _subquest$2[ebp]
  00050	83 c0 01	 add	 eax, 1
  00053	89 45 e4	 mov	 DWORD PTR _subquest$2[ebp], eax
$LN4@QuestClear:
  00056	8b 45 e4	 mov	 eax, DWORD PTR _subquest$2[ebp]
  00059	3b 45 f4	 cmp	 eax, DWORD PTR _subquestcount$[ebp]
  0005c	7d 63		 jge	 SHORT $LN3@QuestClear

; 662  : 	{
; 663  : 		lpSubInfo = GetSubquestInfo(lpObj, lpQuestInfo, subquest);

  0005e	8b 45 e4	 mov	 eax, DWORD PTR _subquest$2[ebp]
  00061	50		 push	 eax
  00062	8b 4d f8	 mov	 ecx, DWORD PTR _lpQuestInfo$[ebp]
  00065	51		 push	 ecx
  00066	8b 55 08	 mov	 edx, DWORD PTR _lpObj$[ebp]
  00069	52		 push	 edx
  0006a	8b 4d fc	 mov	 ecx, DWORD PTR _this$[ebp]
  0006d	e8 00 00 00 00	 call	 ?GetSubquestInfo@CQuestInfo@@QAEPAUQUEST_SUB_INFO@@PAVOBJECTSTRUCT@@PAUQUEST_INFO@@H@Z ; CQuestInfo::GetSubquestInfo
  00072	89 45 ec	 mov	 DWORD PTR _lpSubInfo$[ebp], eax

; 664  : 
; 665  : 		if( lpSubInfo )

  00075	83 7d ec 00	 cmp	 DWORD PTR _lpSubInfo$[ebp], 0
  00079	74 44		 je	 SHORT $LN6@QuestClear

; 666  : 		{
; 667  : 			bFoundSubQuest = TRUE;

  0007b	c7 45 e8 01 00
	00 00		 mov	 DWORD PTR _bFoundSubQuest$[ebp], 1

; 668  : 			if( lpSubInfo->QuestType == 1 )

  00082	8b 45 ec	 mov	 eax, DWORD PTR _lpSubInfo$[ebp]
  00085	83 38 01	 cmp	 DWORD PTR [eax], 1
  00088	75 35		 jne	 SHORT $LN6@QuestClear

; 669  : 			{
; 670  : 				
; 671  : #ifdef SECOND_QUEST
; 672  : 				int itemcount = gObjGetItemCountInIventory(lpObj->m_Index, lpSubInfo->NeedType, lpSubInfo->NeedSubType, lpSubInfo->ItemLevel);

  0008a	8b 45 ec	 mov	 eax, DWORD PTR _lpSubInfo$[ebp]
  0008d	8b 48 0c	 mov	 ecx, DWORD PTR [eax+12]
  00090	51		 push	 ecx
  00091	8b 55 ec	 mov	 edx, DWORD PTR _lpSubInfo$[ebp]
  00094	8b 42 08	 mov	 eax, DWORD PTR [edx+8]
  00097	50		 push	 eax
  00098	8b 4d ec	 mov	 ecx, DWORD PTR _lpSubInfo$[ebp]
  0009b	8b 51 04	 mov	 edx, DWORD PTR [ecx+4]
  0009e	52		 push	 edx
  0009f	8b 45 08	 mov	 eax, DWORD PTR _lpObj$[ebp]
  000a2	8b 08		 mov	 ecx, DWORD PTR [eax]
  000a4	51		 push	 ecx
  000a5	e8 00 00 00 00	 call	 ?gObjGetItemCountInIventory@@YAHHHHH@Z ; gObjGetItemCountInIventory
  000aa	83 c4 10	 add	 esp, 16			; 00000010H
  000ad	89 45 e0	 mov	 DWORD PTR _itemcount$1[ebp], eax

; 673  : #else
; 674  : 				int itemcount = gObjGetItemCountInIventory(lpObj->m_Index, lpSubInfo->NeedType, lpSubInfo->NeedSubType);
; 675  : #endif
; 676  : 
; 677  : 				if( itemcount < lpSubInfo->NeedNumber )

  000b0	8b 45 ec	 mov	 eax, DWORD PTR _lpSubInfo$[ebp]
  000b3	8b 4d e0	 mov	 ecx, DWORD PTR _itemcount$1[ebp]
  000b6	3b 48 10	 cmp	 ecx, DWORD PTR [eax+16]
  000b9	7d 04		 jge	 SHORT $LN6@QuestClear

; 678  : 				{	// 조건이 만족하지 않았다.
; 679  : 					return 1;

  000bb	b0 01		 mov	 al, 1
  000bd	eb 0e		 jmp	 SHORT $LN1@QuestClear
$LN6@QuestClear:

; 680  : 				}
; 681  : 			}
; 682  : 		}		
; 683  : 	}

  000bf	eb 8c		 jmp	 SHORT $LN2@QuestClear
$LN3@QuestClear:

; 684  : 
; 685  : 	if( !bFoundSubQuest )

  000c1	83 7d e8 00	 cmp	 DWORD PTR _bFoundSubQuest$[ebp], 0
  000c5	75 04		 jne	 SHORT $LN9@QuestClear

; 686  : 		return 0xff;

  000c7	0c ff		 or	 al, 255			; 000000ffH
  000c9	eb 02		 jmp	 SHORT $LN1@QuestClear
$LN9@QuestClear:

; 687  : 
; 688  : 	return FALSE;

  000cb	32 c0		 xor	 al, al
$LN1@QuestClear:

; 689  : }

  000cd	5f		 pop	 edi
  000ce	5e		 pop	 esi
  000cf	5b		 pop	 ebx
  000d0	8b e5		 mov	 esp, ebp
  000d2	5d		 pop	 ebp
  000d3	c2 08 00	 ret	 8
?QuestClearConditionCheck@CQuestInfo@@QAEEPAVOBJECTSTRUCT@@H@Z ENDP ; CQuestInfo::QuestClearConditionCheck
_TEXT	ENDS
; Function compile flags: /Odtp /ZI
; File C:\Mu Online\Mu-GS-Webzen-MC-10093\GameServer\QuestInfo.cpp
;	COMDAT ?ReSetQuestState@CQuestInfo@@QAEEPAVOBJECTSTRUCT@@H@Z
_TEXT	SEGMENT
_shift$ = -16						; size = 4
_index$ = -12						; size = 4
_State$ = -8						; size = 4
_this$ = -4						; size = 4
_lpObj$ = 8						; size = 4
_QuestIndex$ = 12					; size = 4
?ReSetQuestState@CQuestInfo@@QAEEPAVOBJECTSTRUCT@@H@Z PROC ; CQuestInfo::ReSetQuestState, COMDAT
; _this$ = ecx

; 589  : {

  00000	55		 push	 ebp
  00001	8b ec		 mov	 ebp, esp
  00003	83 ec 50	 sub	 esp, 80			; 00000050H
  00006	53		 push	 ebx
  00007	56		 push	 esi
  00008	57		 push	 edi
  00009	89 4d fc	 mov	 DWORD PTR _this$[ebp], ecx

; 590  : 	int State = QS_NOTHING;

  0000c	c7 45 f8 03 00
	00 00		 mov	 DWORD PTR _State$[ebp], 3

; 591  : 	int index = QuestIndex/4;

  00013	8b 45 0c	 mov	 eax, DWORD PTR _QuestIndex$[ebp]
  00016	99		 cdq
  00017	83 e2 03	 and	 edx, 3
  0001a	03 c2		 add	 eax, edx
  0001c	c1 f8 02	 sar	 eax, 2
  0001f	89 45 f4	 mov	 DWORD PTR _index$[ebp], eax

; 592  : 	int shift = (QuestIndex%4)*2;

  00022	8b 45 0c	 mov	 eax, DWORD PTR _QuestIndex$[ebp]
  00025	25 03 00 00 80	 and	 eax, -2147483645	; 80000003H
  0002a	79 05		 jns	 SHORT $LN3@ReSetQuest
  0002c	48		 dec	 eax
  0002d	83 c8 fc	 or	 eax, -4			; fffffffcH
  00030	40		 inc	 eax
$LN3@ReSetQuest:
  00031	d1 e0		 shl	 eax, 1
  00033	89 45 f0	 mov	 DWORD PTR _shift$[ebp], eax

; 593  : 	
; 594  : 	(lpObj->m_Quest[index]) &= QuestBitMask[shift];

  00036	8b 45 f0	 mov	 eax, DWORD PTR _shift$[ebp]
  00039	0f b6 88 00 00
	00 00		 movzx	 ecx, BYTE PTR ?QuestBitMask@@3PAEA[eax]
  00040	8b 55 08	 mov	 edx, DWORD PTR _lpObj$[ebp]
  00043	03 55 f4	 add	 edx, DWORD PTR _index$[ebp]
  00046	0f b6 82 90 0e
	00 00		 movzx	 eax, BYTE PTR [edx+3728]
  0004d	23 c1		 and	 eax, ecx
  0004f	8b 4d 08	 mov	 ecx, DWORD PTR _lpObj$[ebp]
  00052	03 4d f4	 add	 ecx, DWORD PTR _index$[ebp]
  00055	88 81 90 0e 00
	00		 mov	 BYTE PTR [ecx+3728], al

; 595  : 	(lpObj->m_Quest[index]) |= ((State&0x3)<<shift);	

  0005b	8b 45 f8	 mov	 eax, DWORD PTR _State$[ebp]
  0005e	83 e0 03	 and	 eax, 3
  00061	8b 4d f0	 mov	 ecx, DWORD PTR _shift$[ebp]
  00064	d3 e0		 shl	 eax, cl
  00066	8b 4d 08	 mov	 ecx, DWORD PTR _lpObj$[ebp]
  00069	03 4d f4	 add	 ecx, DWORD PTR _index$[ebp]
  0006c	0f b6 91 90 0e
	00 00		 movzx	 edx, BYTE PTR [ecx+3728]
  00073	0b d0		 or	 edx, eax
  00075	8b 45 08	 mov	 eax, DWORD PTR _lpObj$[ebp]
  00078	03 45 f4	 add	 eax, DWORD PTR _index$[ebp]
  0007b	88 90 90 0e 00
	00		 mov	 BYTE PTR [eax+3728], dl

; 596  : 
; 597  : 	return 0;

  00081	32 c0		 xor	 al, al

; 598  : }

  00083	5f		 pop	 edi
  00084	5e		 pop	 esi
  00085	5b		 pop	 ebx
  00086	8b e5		 mov	 esp, ebp
  00088	5d		 pop	 ebp
  00089	c2 08 00	 ret	 8
?ReSetQuestState@CQuestInfo@@QAEEPAVOBJECTSTRUCT@@H@Z ENDP ; CQuestInfo::ReSetQuestState
_TEXT	ENDS
; Function compile flags: /Odtp /ZI
; File C:\Mu Online\Mu-GS-Webzen-MC-10093\GameServer\QuestInfo.cpp
;	COMDAT ?SetQuestState@CQuestInfo@@QAEEPAVOBJECTSTRUCT@@HH@Z
_TEXT	SEGMENT
_shift$ = -20						; size = 4
_index$ = -16						; size = 4
_result$1 = -10						; size = 1
_result$2 = -9						; size = 1
_QuestState$ = -8					; size = 4
_this$ = -4						; size = 4
_lpObj$ = 8						; size = 4
_QuestIndex$ = 12					; size = 4
_State$ = 16						; size = 4
?SetQuestState@CQuestInfo@@QAEEPAVOBJECTSTRUCT@@HH@Z PROC ; CQuestInfo::SetQuestState, COMDAT
; _this$ = ecx

; 539  : {

  00000	55		 push	 ebp
  00001	8b ec		 mov	 ebp, esp
  00003	83 ec 54	 sub	 esp, 84			; 00000054H
  00006	53		 push	 ebx
  00007	56		 push	 esi
  00008	57		 push	 edi
  00009	89 4d fc	 mov	 DWORD PTR _this$[ebp], ecx

; 540  : 	if( QuestIndex < 0 || QuestIndex > MAX_QUEST )

  0000c	83 7d 0c 00	 cmp	 DWORD PTR _QuestIndex$[ebp], 0
  00010	7c 09		 jl	 SHORT $LN3@SetQuestSt
  00012	81 7d 0c c8 00
	00 00		 cmp	 DWORD PTR _QuestIndex$[ebp], 200 ; 000000c8H
  00019	7e 07		 jle	 SHORT $LN2@SetQuestSt
$LN3@SetQuestSt:

; 541  : 		return 0xff;		// 퀘스트가 없다

  0001b	0c ff		 or	 al, 255			; 000000ffH
  0001d	e9 63 01 00 00	 jmp	 $LN1@SetQuestSt
$LN2@SetQuestSt:

; 542  : 
; 543  : 	int QuestState = GetQuestState(lpObj, QuestIndex);

  00022	8b 45 0c	 mov	 eax, DWORD PTR _QuestIndex$[ebp]
  00025	50		 push	 eax
  00026	8b 4d 08	 mov	 ecx, DWORD PTR _lpObj$[ebp]
  00029	51		 push	 ecx
  0002a	8b 4d fc	 mov	 ecx, DWORD PTR _this$[ebp]
  0002d	e8 00 00 00 00	 call	 ?GetQuestState@CQuestInfo@@QAEHPAVOBJECTSTRUCT@@H@Z ; CQuestInfo::GetQuestState
  00032	89 45 f8	 mov	 DWORD PTR _QuestState$[ebp], eax

; 544  : 
; 545  : 	if( QuestState == QS_NOTHING || QuestState == QS_NONE )

  00035	83 7d f8 03	 cmp	 DWORD PTR _QuestState$[ebp], 3
  00039	74 06		 je	 SHORT $LN6@SetQuestSt
  0003b	83 7d f8 00	 cmp	 DWORD PTR _QuestState$[ebp], 0
  0003f	75 65		 jne	 SHORT $LN4@SetQuestSt
$LN6@SetQuestSt:

; 546  : 	{	// 퀘스트를 진행할려고 한다면, 퀘스트 진행 가능 조건을 검사한다
; 547  : 		BYTE result = QuestRunConditionCheck(lpObj, QuestIndex);

  00041	8b 45 0c	 mov	 eax, DWORD PTR _QuestIndex$[ebp]
  00044	50		 push	 eax
  00045	8b 4d 08	 mov	 ecx, DWORD PTR _lpObj$[ebp]
  00048	51		 push	 ecx
  00049	8b 4d fc	 mov	 ecx, DWORD PTR _this$[ebp]
  0004c	e8 00 00 00 00	 call	 ?QuestRunConditionCheck@CQuestInfo@@QAEEPAVOBJECTSTRUCT@@H@Z ; CQuestInfo::QuestRunConditionCheck
  00051	88 45 f7	 mov	 BYTE PTR _result$2[ebp], al

; 548  : 		if(  result != 0 )

  00054	0f b6 45 f7	 movzx	 eax, BYTE PTR _result$2[ebp]
  00058	85 c0		 test	 eax, eax
  0005a	74 08		 je	 SHORT $LN7@SetQuestSt

; 549  : 		{	// 조건에 맞지 않다
; 550  : 			return result;

  0005c	8a 45 f7	 mov	 al, BYTE PTR _result$2[ebp]
  0005f	e9 21 01 00 00	 jmp	 $LN1@SetQuestSt
$LN7@SetQuestSt:

; 551  : 		}			
; 552  : 
; 553  : 		QuestAccept(lpObj, QuestIndex);

  00064	8b 45 0c	 mov	 eax, DWORD PTR _QuestIndex$[ebp]
  00067	50		 push	 eax
  00068	8b 4d 08	 mov	 ecx, DWORD PTR _lpObj$[ebp]
  0006b	51		 push	 ecx
  0006c	8b 4d fc	 mov	 ecx, DWORD PTR _this$[ebp]
  0006f	e8 00 00 00 00	 call	 ?QuestAccept@CQuestInfo@@QAEHPAVOBJECTSTRUCT@@H@Z ; CQuestInfo::QuestAccept

; 554  : 
; 555  : 		LogAddTD("[Quest] AcceptQuest [%s][%s] (%s)", 

  00074	8b 45 0c	 mov	 eax, DWORD PTR _QuestIndex$[ebp]
  00077	50		 push	 eax
  00078	8b 4d fc	 mov	 ecx, DWORD PTR _this$[ebp]
  0007b	e8 00 00 00 00	 call	 ?GetQuestInfo@CQuestInfo@@QAEPAUQUEST_INFO@@H@Z ; CQuestInfo::GetQuestInfo
  00080	50		 push	 eax
  00081	8b 4d 08	 mov	 ecx, DWORD PTR _lpObj$[ebp]
  00084	83 c1 73	 add	 ecx, 115		; 00000073H
  00087	51		 push	 ecx
  00088	8b 55 08	 mov	 edx, DWORD PTR _lpObj$[ebp]
  0008b	83 c2 68	 add	 edx, 104		; 00000068H
  0008e	52		 push	 edx
  0008f	68 00 00 00 00	 push	 OFFSET ??_C@_0CC@BPALCPGE@?$FLQuest?$FN?5AcceptQuest?5?$FL?$CFs?$FN?$FL?$CFs?$FN?5?$CI?$CF@
  00094	ff 15 00 00 00
	00		 call	 DWORD PTR ?LogAddTD@@3P6AXPADZZA ; LogAddTD
  0009a	83 c4 10	 add	 esp, 16			; 00000010H

; 556  : 			     lpObj->AccountID, lpObj->Name, GetQuestInfo(QuestIndex)->Name);
; 557  : 
; 558  : 
; 559  : 		State = QS_ACCEPT;

  0009d	c7 45 10 01 00
	00 00		 mov	 DWORD PTR _State$[ebp], 1

; 560  : 	}

  000a4	eb 6f		 jmp	 SHORT $LN5@SetQuestSt
$LN4@SetQuestSt:

; 561  : 	else if( QuestState == QS_ACCEPT )

  000a6	83 7d f8 01	 cmp	 DWORD PTR _QuestState$[ebp], 1
  000aa	75 65		 jne	 SHORT $LN8@SetQuestSt

; 562  : 	{	// 클리어 할려고 한다
; 563  : 		BYTE result = QuestClearConditionCheck(lpObj, QuestIndex);

  000ac	8b 45 0c	 mov	 eax, DWORD PTR _QuestIndex$[ebp]
  000af	50		 push	 eax
  000b0	8b 4d 08	 mov	 ecx, DWORD PTR _lpObj$[ebp]
  000b3	51		 push	 ecx
  000b4	8b 4d fc	 mov	 ecx, DWORD PTR _this$[ebp]
  000b7	e8 00 00 00 00	 call	 ?QuestClearConditionCheck@CQuestInfo@@QAEEPAVOBJECTSTRUCT@@H@Z ; CQuestInfo::QuestClearConditionCheck
  000bc	88 45 f6	 mov	 BYTE PTR _result$1[ebp], al

; 564  : 		if(  result != 0 )

  000bf	0f b6 45 f6	 movzx	 eax, BYTE PTR _result$1[ebp]
  000c3	85 c0		 test	 eax, eax
  000c5	74 08		 je	 SHORT $LN10@SetQuestSt

; 565  : 		{	// 조건에 맞지 않다
; 566  : 			return result;

  000c7	8a 45 f6	 mov	 al, BYTE PTR _result$1[ebp]
  000ca	e9 b6 00 00 00	 jmp	 $LN1@SetQuestSt
$LN10@SetQuestSt:

; 567  : 		}
; 568  : 		QuestClear(lpObj, QuestIndex);

  000cf	8b 45 0c	 mov	 eax, DWORD PTR _QuestIndex$[ebp]
  000d2	50		 push	 eax
  000d3	8b 4d 08	 mov	 ecx, DWORD PTR _lpObj$[ebp]
  000d6	51		 push	 ecx
  000d7	8b 4d fc	 mov	 ecx, DWORD PTR _this$[ebp]
  000da	e8 00 00 00 00	 call	 ?QuestClear@CQuestInfo@@QAEHPAVOBJECTSTRUCT@@H@Z ; CQuestInfo::QuestClear

; 569  : 		State = QS_CLEAR;

  000df	c7 45 10 02 00
	00 00		 mov	 DWORD PTR _State$[ebp], 2

; 570  : 
; 571  : 		LogAddTD("[Quest] ClearQuest [%s][%s] (%s)", 

  000e6	8b 45 0c	 mov	 eax, DWORD PTR _QuestIndex$[ebp]
  000e9	50		 push	 eax
  000ea	8b 4d fc	 mov	 ecx, DWORD PTR _this$[ebp]
  000ed	e8 00 00 00 00	 call	 ?GetQuestInfo@CQuestInfo@@QAEPAUQUEST_INFO@@H@Z ; CQuestInfo::GetQuestInfo
  000f2	50		 push	 eax
  000f3	8b 4d 08	 mov	 ecx, DWORD PTR _lpObj$[ebp]
  000f6	83 c1 73	 add	 ecx, 115		; 00000073H
  000f9	51		 push	 ecx
  000fa	8b 55 08	 mov	 edx, DWORD PTR _lpObj$[ebp]
  000fd	83 c2 68	 add	 edx, 104		; 00000068H
  00100	52		 push	 edx
  00101	68 00 00 00 00	 push	 OFFSET ??_C@_0CB@KKBMLGHJ@?$FLQuest?$FN?5ClearQuest?5?$FL?$CFs?$FN?$FL?$CFs?$FN?5?$CI?$CFs@
  00106	ff 15 00 00 00
	00		 call	 DWORD PTR ?LogAddTD@@3P6AXPADZZA ; LogAddTD
  0010c	83 c4 10	 add	 esp, 16			; 00000010H

; 572  : 			     lpObj->AccountID, lpObj->Name, GetQuestInfo(QuestIndex)->Name);
; 573  : 	}	

  0010f	eb 04		 jmp	 SHORT $LN5@SetQuestSt
$LN8@SetQuestSt:

; 574  : 	else
; 575  : 	{
; 576  : 		return 0xff;

  00111	0c ff		 or	 al, 255			; 000000ffH
  00113	eb 70		 jmp	 SHORT $LN1@SetQuestSt
$LN5@SetQuestSt:

; 577  : 	}
; 578  : 
; 579  : 	int index = QuestIndex/4;

  00115	8b 45 0c	 mov	 eax, DWORD PTR _QuestIndex$[ebp]
  00118	99		 cdq
  00119	83 e2 03	 and	 edx, 3
  0011c	03 c2		 add	 eax, edx
  0011e	c1 f8 02	 sar	 eax, 2
  00121	89 45 f0	 mov	 DWORD PTR _index$[ebp], eax

; 580  : 	int shift = (QuestIndex%4)*2;

  00124	8b 45 0c	 mov	 eax, DWORD PTR _QuestIndex$[ebp]
  00127	25 03 00 00 80	 and	 eax, -2147483645	; 80000003H
  0012c	79 05		 jns	 SHORT $LN12@SetQuestSt
  0012e	48		 dec	 eax
  0012f	83 c8 fc	 or	 eax, -4			; fffffffcH
  00132	40		 inc	 eax
$LN12@SetQuestSt:
  00133	d1 e0		 shl	 eax, 1
  00135	89 45 ec	 mov	 DWORD PTR _shift$[ebp], eax

; 581  : 	
; 582  : 	(lpObj->m_Quest[index]) &= QuestBitMask[shift];

  00138	8b 45 ec	 mov	 eax, DWORD PTR _shift$[ebp]
  0013b	0f b6 88 00 00
	00 00		 movzx	 ecx, BYTE PTR ?QuestBitMask@@3PAEA[eax]
  00142	8b 55 08	 mov	 edx, DWORD PTR _lpObj$[ebp]
  00145	03 55 f0	 add	 edx, DWORD PTR _index$[ebp]
  00148	0f b6 82 90 0e
	00 00		 movzx	 eax, BYTE PTR [edx+3728]
  0014f	23 c1		 and	 eax, ecx
  00151	8b 4d 08	 mov	 ecx, DWORD PTR _lpObj$[ebp]
  00154	03 4d f0	 add	 ecx, DWORD PTR _index$[ebp]
  00157	88 81 90 0e 00
	00		 mov	 BYTE PTR [ecx+3728], al

; 583  : 	(lpObj->m_Quest[index]) |= ((State&0x3)<<shift);	

  0015d	8b 45 10	 mov	 eax, DWORD PTR _State$[ebp]
  00160	83 e0 03	 and	 eax, 3
  00163	8b 4d ec	 mov	 ecx, DWORD PTR _shift$[ebp]
  00166	d3 e0		 shl	 eax, cl
  00168	8b 4d 08	 mov	 ecx, DWORD PTR _lpObj$[ebp]
  0016b	03 4d f0	 add	 ecx, DWORD PTR _index$[ebp]
  0016e	0f b6 91 90 0e
	00 00		 movzx	 edx, BYTE PTR [ecx+3728]
  00175	0b d0		 or	 edx, eax
  00177	8b 45 08	 mov	 eax, DWORD PTR _lpObj$[ebp]
  0017a	03 45 f0	 add	 eax, DWORD PTR _index$[ebp]
  0017d	88 90 90 0e 00
	00		 mov	 BYTE PTR [eax+3728], dl

; 584  : 
; 585  : 	return 0;

  00183	32 c0		 xor	 al, al
$LN1@SetQuestSt:

; 586  : }

  00185	5f		 pop	 edi
  00186	5e		 pop	 esi
  00187	5b		 pop	 ebx
  00188	8b e5		 mov	 esp, ebp
  0018a	5d		 pop	 ebp
  0018b	c2 0c 00	 ret	 12			; 0000000cH
?SetQuestState@CQuestInfo@@QAEEPAVOBJECTSTRUCT@@HH@Z ENDP ; CQuestInfo::SetQuestState
_TEXT	ENDS
; Function compile flags: /Odtp /ZI
; File C:\Mu Online\Mu-GS-Webzen-MC-10093\GameServer\QuestInfo.cpp
;	COMDAT ?GetQuestStateBYTE@CQuestInfo@@QAEEPAVOBJECTSTRUCT@@H@Z
_TEXT	SEGMENT
_index$ = -8						; size = 4
_this$ = -4						; size = 4
_lpObj$ = 8						; size = 4
_QuestIndex$ = 12					; size = 4
?GetQuestStateBYTE@CQuestInfo@@QAEEPAVOBJECTSTRUCT@@H@Z PROC ; CQuestInfo::GetQuestStateBYTE, COMDAT
; _this$ = ecx

; 530  : {

  00000	55		 push	 ebp
  00001	8b ec		 mov	 ebp, esp
  00003	83 ec 48	 sub	 esp, 72			; 00000048H
  00006	53		 push	 ebx
  00007	56		 push	 esi
  00008	57		 push	 edi
  00009	89 4d fc	 mov	 DWORD PTR _this$[ebp], ecx

; 531  : 	if( QuestIndex < 0 || QuestIndex > MAX_QUEST )

  0000c	83 7d 0c 00	 cmp	 DWORD PTR _QuestIndex$[ebp], 0
  00010	7c 09		 jl	 SHORT $LN3@GetQuestSt
  00012	81 7d 0c c8 00
	00 00		 cmp	 DWORD PTR _QuestIndex$[ebp], 200 ; 000000c8H
  00019	7e 04		 jle	 SHORT $LN2@GetQuestSt
$LN3@GetQuestSt:

; 532  : 		return FALSE;

  0001b	32 c0		 xor	 al, al
  0001d	eb 1b		 jmp	 SHORT $LN1@GetQuestSt
$LN2@GetQuestSt:

; 533  : 
; 534  : 	int index = QuestIndex/4;

  0001f	8b 45 0c	 mov	 eax, DWORD PTR _QuestIndex$[ebp]
  00022	99		 cdq
  00023	83 e2 03	 and	 edx, 3
  00026	03 c2		 add	 eax, edx
  00028	c1 f8 02	 sar	 eax, 2
  0002b	89 45 f8	 mov	 DWORD PTR _index$[ebp], eax

; 535  : 	return lpObj->m_Quest[index];

  0002e	8b 45 08	 mov	 eax, DWORD PTR _lpObj$[ebp]
  00031	03 45 f8	 add	 eax, DWORD PTR _index$[ebp]
  00034	8a 80 90 0e 00
	00		 mov	 al, BYTE PTR [eax+3728]
$LN1@GetQuestSt:

; 536  : }

  0003a	5f		 pop	 edi
  0003b	5e		 pop	 esi
  0003c	5b		 pop	 ebx
  0003d	8b e5		 mov	 esp, ebp
  0003f	5d		 pop	 ebp
  00040	c2 08 00	 ret	 8
?GetQuestStateBYTE@CQuestInfo@@QAEEPAVOBJECTSTRUCT@@H@Z ENDP ; CQuestInfo::GetQuestStateBYTE
_TEXT	ENDS
; Function compile flags: /Odtp /ZI
; File C:\Mu Online\Mu-GS-Webzen-MC-10093\GameServer\QuestInfo.cpp
;	COMDAT ?GetQuestState@CQuestInfo@@QAEHPAVOBJECTSTRUCT@@H@Z
_TEXT	SEGMENT
_shift$ = -12						; size = 4
_index$ = -8						; size = 4
_this$ = -4						; size = 4
_lpObj$ = 8						; size = 4
_QuestIndex$ = 12					; size = 4
?GetQuestState@CQuestInfo@@QAEHPAVOBJECTSTRUCT@@H@Z PROC ; CQuestInfo::GetQuestState, COMDAT
; _this$ = ecx

; 519  : {

  00000	55		 push	 ebp
  00001	8b ec		 mov	 ebp, esp
  00003	83 ec 4c	 sub	 esp, 76			; 0000004cH
  00006	53		 push	 ebx
  00007	56		 push	 esi
  00008	57		 push	 edi
  00009	89 4d fc	 mov	 DWORD PTR _this$[ebp], ecx

; 520  : 	if( QuestIndex < 0 || QuestIndex > MAX_QUEST )

  0000c	83 7d 0c 00	 cmp	 DWORD PTR _QuestIndex$[ebp], 0
  00010	7c 09		 jl	 SHORT $LN3@GetQuestSt
  00012	81 7d 0c c8 00
	00 00		 cmp	 DWORD PTR _QuestIndex$[ebp], 200 ; 000000c8H
  00019	7e 04		 jle	 SHORT $LN2@GetQuestSt
$LN3@GetQuestSt:

; 521  : 		return 0;

  0001b	33 c0		 xor	 eax, eax
  0001d	eb 38		 jmp	 SHORT $LN1@GetQuestSt
$LN2@GetQuestSt:

; 522  : 
; 523  : 	int index = QuestIndex/4;

  0001f	8b 45 0c	 mov	 eax, DWORD PTR _QuestIndex$[ebp]
  00022	99		 cdq
  00023	83 e2 03	 and	 edx, 3
  00026	03 c2		 add	 eax, edx
  00028	c1 f8 02	 sar	 eax, 2
  0002b	89 45 f8	 mov	 DWORD PTR _index$[ebp], eax

; 524  : 	int shift = (QuestIndex%4)*2;

  0002e	8b 45 0c	 mov	 eax, DWORD PTR _QuestIndex$[ebp]
  00031	25 03 00 00 80	 and	 eax, -2147483645	; 80000003H
  00036	79 05		 jns	 SHORT $LN5@GetQuestSt
  00038	48		 dec	 eax
  00039	83 c8 fc	 or	 eax, -4			; fffffffcH
  0003c	40		 inc	 eax
$LN5@GetQuestSt:
  0003d	d1 e0		 shl	 eax, 1
  0003f	89 45 f4	 mov	 DWORD PTR _shift$[ebp], eax

; 525  : 
; 526  : 	return (lpObj->m_Quest[index]>>shift)&0x03;

  00042	8b 45 08	 mov	 eax, DWORD PTR _lpObj$[ebp]
  00045	03 45 f8	 add	 eax, DWORD PTR _index$[ebp]
  00048	0f b6 80 90 0e
	00 00		 movzx	 eax, BYTE PTR [eax+3728]
  0004f	8b 4d f4	 mov	 ecx, DWORD PTR _shift$[ebp]
  00052	d3 f8		 sar	 eax, cl
  00054	83 e0 03	 and	 eax, 3
$LN1@GetQuestSt:

; 527  : }

  00057	5f		 pop	 edi
  00058	5e		 pop	 esi
  00059	5b		 pop	 ebx
  0005a	8b e5		 mov	 esp, ebp
  0005c	5d		 pop	 ebp
  0005d	c2 08 00	 ret	 8
?GetQuestState@CQuestInfo@@QAEHPAVOBJECTSTRUCT@@H@Z ENDP ; CQuestInfo::GetQuestState
_TEXT	ENDS
; Function compile flags: /Odtp /ZI
; File C:\Mu Online\Mu-GS-Webzen-MC-10093\GameServer\QuestInfo.cpp
;	COMDAT ?GetQuestCondition@CQuestInfo@@QAEPAUQUEST_CONDITION@@PAUQUEST_INFO@@H@Z
_TEXT	SEGMENT
_this$ = -4						; size = 4
_lpQuestInfo$ = 8					; size = 4
_conditionindex$ = 12					; size = 4
?GetQuestCondition@CQuestInfo@@QAEPAUQUEST_CONDITION@@PAUQUEST_INFO@@H@Z PROC ; CQuestInfo::GetQuestCondition, COMDAT
; _this$ = ecx

; 637  : {	

  00000	55		 push	 ebp
  00001	8b ec		 mov	 ebp, esp
  00003	83 ec 44	 sub	 esp, 68			; 00000044H
  00006	53		 push	 ebx
  00007	56		 push	 esi
  00008	57		 push	 edi
  00009	89 4d fc	 mov	 DWORD PTR _this$[ebp], ecx

; 638  : 	if( !lpQuestInfo )

  0000c	83 7d 08 00	 cmp	 DWORD PTR _lpQuestInfo$[ebp], 0
  00010	75 04		 jne	 SHORT $LN2@GetQuestCo

; 639  : 		return NULL;	// 퀘스트가 없다

  00012	33 c0		 xor	 eax, eax
  00014	eb 1e		 jmp	 SHORT $LN1@GetQuestCo
$LN2@GetQuestCo:

; 640  : 
; 641  : 	if( conditionindex < 0 || conditionindex > MAX_QUEST_CONDITION )

  00016	83 7d 0c 00	 cmp	 DWORD PTR _conditionindex$[ebp], 0
  0001a	7c 06		 jl	 SHORT $LN4@GetQuestCo
  0001c	83 7d 0c 0a	 cmp	 DWORD PTR _conditionindex$[ebp], 10 ; 0000000aH
  00020	7e 04		 jle	 SHORT $LN3@GetQuestCo
$LN4@GetQuestCo:

; 642  : 		return NULL;

  00022	33 c0		 xor	 eax, eax
  00024	eb 0e		 jmp	 SHORT $LN1@GetQuestCo
$LN3@GetQuestCo:

; 643  : 
; 644  : 	return &lpQuestInfo->QuestCondition[conditionindex];

  00026	6b 45 0c 1c	 imul	 eax, DWORD PTR _conditionindex$[ebp], 28
  0002a	8b 4d 08	 mov	 ecx, DWORD PTR _lpQuestInfo$[ebp]
  0002d	8d 84 01 18 03
	00 00		 lea	 eax, DWORD PTR [ecx+eax+792]
$LN1@GetQuestCo:

; 645  : }

  00034	5f		 pop	 edi
  00035	5e		 pop	 esi
  00036	5b		 pop	 ebx
  00037	8b e5		 mov	 esp, ebp
  00039	5d		 pop	 ebp
  0003a	c2 08 00	 ret	 8
?GetQuestCondition@CQuestInfo@@QAEPAUQUEST_CONDITION@@PAUQUEST_INFO@@H@Z ENDP ; CQuestInfo::GetQuestCondition
_TEXT	ENDS
; Function compile flags: /Odtp /ZI
; File C:\Mu Online\Mu-GS-Webzen-MC-10093\GameServer\QuestInfo.cpp
;	COMDAT ?GetSubquestInfo@CQuestInfo@@QAEPAUQUEST_SUB_INFO@@PAVOBJECTSTRUCT@@PAUQUEST_INFO@@H@Z
_TEXT	SEGMENT
_requireclass$ = -20					; size = 4
_ChangeUP$ = -16					; size = 4
_Class$ = -12						; size = 4
_lpSubInfo$ = -8					; size = 4
_this$ = -4						; size = 4
_lpObj$ = 8						; size = 4
_lpQuestInfo$ = 12					; size = 4
_subquestindex$ = 16					; size = 4
?GetSubquestInfo@CQuestInfo@@QAEPAUQUEST_SUB_INFO@@PAVOBJECTSTRUCT@@PAUQUEST_INFO@@H@Z PROC ; CQuestInfo::GetSubquestInfo, COMDAT
; _this$ = ecx

; 614  : {

  00000	55		 push	 ebp
  00001	8b ec		 mov	 ebp, esp
  00003	83 ec 54	 sub	 esp, 84			; 00000054H
  00006	53		 push	 ebx
  00007	56		 push	 esi
  00008	57		 push	 edi
  00009	89 4d fc	 mov	 DWORD PTR _this$[ebp], ecx

; 615  : 	if( !lpQuestInfo )

  0000c	83 7d 0c 00	 cmp	 DWORD PTR _lpQuestInfo$[ebp], 0
  00010	75 04		 jne	 SHORT $LN2@GetSubques

; 616  : 		return NULL;	// 퀘스트가 없다

  00012	33 c0		 xor	 eax, eax
  00014	eb 67		 jmp	 SHORT $LN1@GetSubques
$LN2@GetSubques:

; 617  : 
; 618  : 	if( subquestindex < 0 || subquestindex > MAX_QUEST_SUBINFO )

  00016	83 7d 10 00	 cmp	 DWORD PTR _subquestindex$[ebp], 0
  0001a	7c 06		 jl	 SHORT $LN4@GetSubques
  0001c	83 7d 10 0a	 cmp	 DWORD PTR _subquestindex$[ebp], 10 ; 0000000aH
  00020	7e 04		 jle	 SHORT $LN3@GetSubques
$LN4@GetSubques:

; 619  : 		return NULL;

  00022	33 c0		 xor	 eax, eax
  00024	eb 57		 jmp	 SHORT $LN1@GetSubques
$LN3@GetSubques:

; 620  : 
; 621  : 	LPQUEST_SUB_INFO lpSubInfo = &lpQuestInfo->QuestSubInfo[subquestindex];

  00026	6b 45 10 48	 imul	 eax, DWORD PTR _subquestindex$[ebp], 72
  0002a	8b 4d 0c	 mov	 ecx, DWORD PTR _lpQuestInfo$[ebp]
  0002d	8d 54 01 44	 lea	 edx, DWORD PTR [ecx+eax+68]
  00031	89 55 f8	 mov	 DWORD PTR _lpSubInfo$[ebp], edx

; 622  : 
; 623  : 	int Class = lpObj->Class;

  00034	8b 45 08	 mov	 eax, DWORD PTR _lpObj$[ebp]
  00037	0f b7 88 9c 00
	00 00		 movzx	 ecx, WORD PTR [eax+156]
  0003e	89 4d f4	 mov	 DWORD PTR _Class$[ebp], ecx

; 624  : 	int ChangeUP = lpObj->ChangeUP;	

  00041	8b 45 08	 mov	 eax, DWORD PTR _lpObj$[ebp]
  00044	0f b6 88 9f 00
	00 00		 movzx	 ecx, BYTE PTR [eax+159]
  0004b	89 4d f0	 mov	 DWORD PTR _ChangeUP$[ebp], ecx

; 625  : 
; 626  : 	int requireclass = lpSubInfo->RequireClass[Class];

  0004e	8b 45 f8	 mov	 eax, DWORD PTR _lpSubInfo$[ebp]
  00051	03 45 f4	 add	 eax, DWORD PTR _Class$[ebp]
  00054	0f b6 48 40	 movzx	 ecx, BYTE PTR [eax+64]
  00058	89 4d ec	 mov	 DWORD PTR _requireclass$[ebp], ecx

; 627  : 	if( requireclass == 0 ) return NULL;

  0005b	83 7d ec 00	 cmp	 DWORD PTR _requireclass$[ebp], 0
  0005f	75 04		 jne	 SHORT $LN5@GetSubques
  00061	33 c0		 xor	 eax, eax
  00063	eb 18		 jmp	 SHORT $LN1@GetSubques
$LN5@GetSubques:

; 628  : 	if( requireclass > 1 )

  00065	83 7d ec 01	 cmp	 DWORD PTR _requireclass$[ebp], 1
  00069	7e 0f		 jle	 SHORT $LN6@GetSubques

; 629  : 	{	// 전직전용이면
; 630  : 		if( requireclass != ChangeUP+1 )

  0006b	8b 45 f0	 mov	 eax, DWORD PTR _ChangeUP$[ebp]
  0006e	83 c0 01	 add	 eax, 1
  00071	39 45 ec	 cmp	 DWORD PTR _requireclass$[ebp], eax
  00074	74 04		 je	 SHORT $LN6@GetSubques

; 631  : 			return NULL;

  00076	33 c0		 xor	 eax, eax
  00078	eb 03		 jmp	 SHORT $LN1@GetSubques
$LN6@GetSubques:

; 632  : 	}
; 633  : 	return lpSubInfo;

  0007a	8b 45 f8	 mov	 eax, DWORD PTR _lpSubInfo$[ebp]
$LN1@GetSubques:

; 634  : }

  0007d	5f		 pop	 edi
  0007e	5e		 pop	 esi
  0007f	5b		 pop	 ebx
  00080	8b e5		 mov	 esp, ebp
  00082	5d		 pop	 ebp
  00083	c2 0c 00	 ret	 12			; 0000000cH
?GetSubquestInfo@CQuestInfo@@QAEPAUQUEST_SUB_INFO@@PAVOBJECTSTRUCT@@PAUQUEST_INFO@@H@Z ENDP ; CQuestInfo::GetSubquestInfo
_TEXT	ENDS
; Function compile flags: /Odtp /ZI
; File C:\Mu Online\Mu-GS-Webzen-MC-10093\GameServer\QuestInfo.cpp
;	COMDAT ?GetQuestInfo@CQuestInfo@@QAEPAUQUEST_INFO@@H@Z
_TEXT	SEGMENT
_this$ = -4						; size = 4
_QuestIndex$ = 8					; size = 4
?GetQuestInfo@CQuestInfo@@QAEPAUQUEST_INFO@@H@Z PROC	; CQuestInfo::GetQuestInfo, COMDAT
; _this$ = ecx

; 601  : {

  00000	55		 push	 ebp
  00001	8b ec		 mov	 ebp, esp
  00003	83 ec 44	 sub	 esp, 68			; 00000044H
  00006	53		 push	 ebx
  00007	56		 push	 esi
  00008	57		 push	 edi
  00009	89 4d fc	 mov	 DWORD PTR _this$[ebp], ecx

; 602  : 	if( QuestIndex < 0 || QuestIndex > MAX_QUEST )

  0000c	83 7d 08 00	 cmp	 DWORD PTR _QuestIndex$[ebp], 0
  00010	7c 09		 jl	 SHORT $LN3@GetQuestIn
  00012	81 7d 08 c8 00
	00 00		 cmp	 DWORD PTR _QuestIndex$[ebp], 200 ; 000000c8H
  00019	7e 04		 jle	 SHORT $LN2@GetQuestIn
$LN3@GetQuestIn:

; 603  : 		return NULL;

  0001b	33 c0		 xor	 eax, eax
  0001d	eb 23		 jmp	 SHORT $LN1@GetQuestIn
$LN2@GetQuestIn:

; 604  : 
; 605  : 	if( QuestInfo[QuestIndex].QuestIndex == -1 )

  0001f	69 45 08 30 04
	00 00		 imul	 eax, DWORD PTR _QuestIndex$[ebp], 1072
  00026	8b 4d fc	 mov	 ecx, DWORD PTR _this$[ebp]
  00029	83 7c 01 3c ff	 cmp	 DWORD PTR [ecx+eax+60], -1
  0002e	75 04		 jne	 SHORT $LN4@GetQuestIn

; 606  : 	{
; 607  : 		return NULL;

  00030	33 c0		 xor	 eax, eax
  00032	eb 0e		 jmp	 SHORT $LN1@GetQuestIn
$LN4@GetQuestIn:

; 608  : 	}
; 609  : 
; 610  : 	return &QuestInfo[QuestIndex];

  00034	69 45 08 30 04
	00 00		 imul	 eax, DWORD PTR _QuestIndex$[ebp], 1072
  0003b	8b 4d fc	 mov	 ecx, DWORD PTR _this$[ebp]
  0003e	8d 44 01 08	 lea	 eax, DWORD PTR [ecx+eax+8]
$LN1@GetQuestIn:

; 611  : }

  00042	5f		 pop	 edi
  00043	5e		 pop	 esi
  00044	5b		 pop	 ebx
  00045	8b e5		 mov	 esp, ebp
  00047	5d		 pop	 ebp
  00048	c2 04 00	 ret	 4
?GetQuestInfo@CQuestInfo@@QAEPAUQUEST_INFO@@H@Z ENDP	; CQuestInfo::GetQuestInfo
_TEXT	ENDS
; Function compile flags: /Odtp /ZI
; File C:\Mu Online\Mu-GS-Webzen-MC-10093\GameServer\QuestInfo.cpp
;	COMDAT ?InitQuestItem@CQuestInfo@@QAEXXZ
_TEXT	SEGMENT
_p$1 = -32						; size = 4
_j$2 = -28						; size = 4
_i$3 = -24						; size = 4
_lpSubInfo$ = -20					; size = 4
_lpQuestInfo$ = -16					; size = 4
_foundquest$ = -12					; size = 4
_questcount$ = -8					; size = 4
_this$ = -4						; size = 4
?InitQuestItem@CQuestInfo@@QAEXXZ PROC			; CQuestInfo::InitQuestItem, COMDAT
; _this$ = ecx

; 473  : {

  00000	55		 push	 ebp
  00001	8b ec		 mov	 ebp, esp
  00003	83 ec 60	 sub	 esp, 96			; 00000060H
  00006	53		 push	 ebx
  00007	56		 push	 esi
  00008	57		 push	 edi
  00009	89 4d fc	 mov	 DWORD PTR _this$[ebp], ecx

; 474  : 	int questcount = GetQeustCount();

  0000c	8b 4d fc	 mov	 ecx, DWORD PTR _this$[ebp]
  0000f	e8 00 00 00 00	 call	 ?GetQeustCount@CQuestInfo@@QAEHXZ ; CQuestInfo::GetQeustCount
  00014	89 45 f8	 mov	 DWORD PTR _questcount$[ebp], eax

; 475  : 	int	foundquest = 0;

  00017	c7 45 f4 00 00
	00 00		 mov	 DWORD PTR _foundquest$[ebp], 0

; 476  : 
; 477  : 	LPQUEST_INFO lpQuestInfo;
; 478  : 	LPQUEST_SUB_INFO	lpSubInfo;
; 479  : 
; 480  : 	for( int i = 0; i < MAX_QUEST; i++ )

  0001e	c7 45 e8 00 00
	00 00		 mov	 DWORD PTR _i$3[ebp], 0
  00025	eb 09		 jmp	 SHORT $LN4@InitQuestI
$LN2@InitQuestI:
  00027	8b 45 e8	 mov	 eax, DWORD PTR _i$3[ebp]
  0002a	83 c0 01	 add	 eax, 1
  0002d	89 45 e8	 mov	 DWORD PTR _i$3[ebp], eax
$LN4@InitQuestI:
  00030	81 7d e8 c8 00
	00 00		 cmp	 DWORD PTR _i$3[ebp], 200 ; 000000c8H
  00037	0f 8d 9d 00 00
	00		 jge	 $LN1@InitQuestI

; 481  : 	{
; 482  : 		lpQuestInfo = GetQuestInfo(i);

  0003d	8b 45 e8	 mov	 eax, DWORD PTR _i$3[ebp]
  00040	50		 push	 eax
  00041	8b 4d fc	 mov	 ecx, DWORD PTR _this$[ebp]
  00044	e8 00 00 00 00	 call	 ?GetQuestInfo@CQuestInfo@@QAEPAUQUEST_INFO@@H@Z ; CQuestInfo::GetQuestInfo
  00049	89 45 f0	 mov	 DWORD PTR _lpQuestInfo$[ebp], eax

; 483  : 		if( !lpQuestInfo )			

  0004c	83 7d f0 00	 cmp	 DWORD PTR _lpQuestInfo$[ebp], 0
  00050	75 02		 jne	 SHORT $LN8@InitQuestI

; 484  : 			continue;

  00052	eb d3		 jmp	 SHORT $LN2@InitQuestI
$LN8@InitQuestI:

; 485  : 
; 486  : 		for( int j = 0; j < lpQuestInfo->QuestSubInfoCount; j++ )

  00054	c7 45 e4 00 00
	00 00		 mov	 DWORD PTR _j$2[ebp], 0
  0005b	eb 09		 jmp	 SHORT $LN7@InitQuestI
$LN5@InitQuestI:
  0005d	8b 45 e4	 mov	 eax, DWORD PTR _j$2[ebp]
  00060	83 c0 01	 add	 eax, 1
  00063	89 45 e4	 mov	 DWORD PTR _j$2[ebp], eax
$LN7@InitQuestI:
  00066	8b 45 f0	 mov	 eax, DWORD PTR _lpQuestInfo$[ebp]
  00069	8b 4d e4	 mov	 ecx, DWORD PTR _j$2[ebp]
  0006c	3b 48 40	 cmp	 ecx, DWORD PTR [eax+64]
  0006f	7d 51		 jge	 SHORT $LN6@InitQuestI

; 487  : 		{
; 488  : 			lpSubInfo = &lpQuestInfo->QuestSubInfo[j];

  00071	6b 45 e4 48	 imul	 eax, DWORD PTR _j$2[ebp], 72
  00075	8b 4d f0	 mov	 ecx, DWORD PTR _lpQuestInfo$[ebp]
  00078	8d 54 01 44	 lea	 edx, DWORD PTR [ecx+eax+68]
  0007c	89 55 ec	 mov	 DWORD PTR _lpSubInfo$[ebp], edx

; 489  : 
; 490  : 			if( lpSubInfo )

  0007f	83 7d ec 00	 cmp	 DWORD PTR _lpSubInfo$[ebp], 0
  00083	74 3b		 je	 SHORT $LN9@InitQuestI

; 491  : 			{
; 492  : 				if( lpSubInfo->QuestType == 1  )

  00085	8b 45 ec	 mov	 eax, DWORD PTR _lpSubInfo$[ebp]
  00088	83 38 01	 cmp	 DWORD PTR [eax], 1
  0008b	75 33		 jne	 SHORT $LN9@InitQuestI

; 493  : 				{	// 퀘스트 타입이 Item드랍일때만
; 494  : 					ITEM_ATTRIBUTE *p = &ItemAttribute[lpSubInfo->NeedType*MAX_ITEM_INDEX+lpSubInfo->NeedSubType];

  0008d	8b 45 ec	 mov	 eax, DWORD PTR _lpSubInfo$[ebp]
  00090	8b 48 04	 mov	 ecx, DWORD PTR [eax+4]
  00093	c1 e1 05	 shl	 ecx, 5
  00096	8b 55 ec	 mov	 edx, DWORD PTR _lpSubInfo$[ebp]
  00099	03 4a 08	 add	 ecx, DWORD PTR [edx+8]
  0009c	6b c1 6c	 imul	 eax, ecx, 108
  0009f	05 00 00 00 00	 add	 eax, OFFSET ?ItemAttribute@@3PAUITEM_ATTRIBUTE@@A ; ItemAttribute
  000a4	89 45 e0	 mov	 DWORD PTR _p$1[ebp], eax

; 495  : 					p->QuestItem = TRUE;

  000a7	8b 45 e0	 mov	 eax, DWORD PTR _p$1[ebp]
  000aa	c6 40 5c 01	 mov	 BYTE PTR [eax+92], 1

; 496  : 					LogAddTD("[Quest] [SetQuestItem] %s", p->Name);

  000ae	8b 45 e0	 mov	 eax, DWORD PTR _p$1[ebp]
  000b1	50		 push	 eax
  000b2	68 00 00 00 00	 push	 OFFSET ??_C@_0BK@EGHNLLGE@?$FLQuest?$FN?5?$FLSetQuestItem?$FN?5?$CFs@
  000b7	ff 15 00 00 00
	00		 call	 DWORD PTR ?LogAddTD@@3P6AXPADZZA ; LogAddTD
  000bd	83 c4 08	 add	 esp, 8
$LN9@InitQuestI:

; 497  : 				}
; 498  : 			}
; 499  : 		}

  000c0	eb 9b		 jmp	 SHORT $LN5@InitQuestI
$LN6@InitQuestI:

; 500  : 		
; 501  : 		foundquest++;

  000c2	8b 45 f4	 mov	 eax, DWORD PTR _foundquest$[ebp]
  000c5	83 c0 01	 add	 eax, 1
  000c8	89 45 f4	 mov	 DWORD PTR _foundquest$[ebp], eax

; 502  : 		if( foundquest == questcount )	

  000cb	8b 45 f4	 mov	 eax, DWORD PTR _foundquest$[ebp]
  000ce	3b 45 f8	 cmp	 eax, DWORD PTR _questcount$[ebp]
  000d1	75 02		 jne	 SHORT $LN11@InitQuestI

; 503  : 			break;

  000d3	eb 05		 jmp	 SHORT $LN1@InitQuestI
$LN11@InitQuestI:

; 504  : 	}

  000d5	e9 4d ff ff ff	 jmp	 $LN2@InitQuestI
$LN1@InitQuestI:

; 505  : }

  000da	5f		 pop	 edi
  000db	5e		 pop	 esi
  000dc	5b		 pop	 ebx
  000dd	8b e5		 mov	 esp, ebp
  000df	5d		 pop	 ebp
  000e0	c3		 ret	 0
?InitQuestItem@CQuestInfo@@QAEXXZ ENDP			; CQuestInfo::InitQuestItem
_TEXT	ENDS
; Function compile flags: /Odtp /ZI
; File C:\Mu Online\Mu-GS-Webzen-MC-10093\GameServer\QuestInfo.cpp
;	COMDAT ?LoadQuestInfo@CQuestInfo@@QAEHPAD@Z
_TEXT	SEGMENT
_index$1 = -32						; size = 4
_QuestIndex$2 = -28					; size = 4
_index$3 = -24						; size = 4
_QuestIndex$4 = -20					; size = 4
_Type$5 = -16						; size = 4
_n$ = -12						; size = 4
_Token$ = -8						; size = 4
_this$ = -4						; size = 4
_filename$ = 8						; size = 4
?LoadQuestInfo@CQuestInfo@@QAEHPAD@Z PROC		; CQuestInfo::LoadQuestInfo, COMDAT
; _this$ = ecx

; 78   : {	

  00000	55		 push	 ebp
  00001	8b ec		 mov	 ebp, esp
  00003	83 ec 60	 sub	 esp, 96			; 00000060H
  00006	53		 push	 ebx
  00007	56		 push	 esi
  00008	57		 push	 edi
  00009	89 4d fc	 mov	 DWORD PTR _this$[ebp], ecx

; 79   : 	if((SMDFile=fopen(filename,"r")) == NULL)	

  0000c	68 00 00 00 00	 push	 OFFSET ??_C@_01KDCPPGHE@r@
  00011	8b 45 08	 mov	 eax, DWORD PTR _filename$[ebp]
  00014	50		 push	 eax
  00015	e8 00 00 00 00	 call	 _fopen
  0001a	83 c4 08	 add	 esp, 8
  0001d	a3 00 00 00 00	 mov	 DWORD PTR ?SMDFile@@3PAU_iobuf@@A, eax
  00022	83 3d 00 00 00
	00 00		 cmp	 DWORD PTR ?SMDFile@@3PAU_iobuf@@A, 0
  00029	75 18		 jne	 SHORT $LN8@LoadQuestI

; 80   : 	{
; 81   : 		MsgBox("load error %s", filename);

  0002b	8b 45 08	 mov	 eax, DWORD PTR _filename$[ebp]
  0002e	50		 push	 eax
  0002f	68 00 00 00 00	 push	 OFFSET ??_C@_0O@NOCIMNHO@load?5error?5?$CFs@
  00034	e8 00 00 00 00	 call	 ?MsgBox@@YAXPADZZ	; MsgBox
  00039	83 c4 08	 add	 esp, 8

; 82   : 		return FALSE;

  0003c	33 c0		 xor	 eax, eax
  0003e	e9 d0 06 00 00	 jmp	 $LN1@LoadQuestI
$LN8@LoadQuestI:

; 83   : 	}
; 84   : 
; 85   : 	Init();

  00043	8b 4d fc	 mov	 ecx, DWORD PTR _this$[ebp]
  00046	e8 00 00 00 00	 call	 ?Init@CQuestInfo@@QAEXXZ ; CQuestInfo::Init

; 86   : 
; 87   : 	SMDToken Token;	
; 88   : 	int n=0;

  0004b	c7 45 f4 00 00
	00 00		 mov	 DWORD PTR _n$[ebp], 0
$LN2@LoadQuestI:

; 89   : 
; 90   : 	while( true )

  00052	b8 01 00 00 00	 mov	 eax, 1
  00057	85 c0		 test	 eax, eax
  00059	0f 84 99 06 00
	00		 je	 $LN3@LoadQuestI

; 91   : 	{
; 92   : 		Token = (*GetToken)();

  0005f	e8 00 00 00 00	 call	 ?GetToken@@YA?AW4SMDToken@@XZ ; GetToken
  00064	89 45 f8	 mov	 DWORD PTR _Token$[ebp], eax

; 93   : 		if(Token == END) break;

  00067	83 7d f8 02	 cmp	 DWORD PTR _Token$[ebp], 2
  0006b	75 05		 jne	 SHORT $LN9@LoadQuestI
  0006d	e9 86 06 00 00	 jmp	 $LN3@LoadQuestI
$LN9@LoadQuestI:

; 94   : 		if(Token == NUMBER)

  00072	83 7d f8 01	 cmp	 DWORD PTR _Token$[ebp], 1
  00076	0f 85 77 06 00
	00		 jne	 $LN15@LoadQuestI

; 95   : 		{
; 96   : 			int Type = (int)TokenNumber;

  0007c	f3 0f 2c 05 00
	00 00 00	 cvttss2si eax, DWORD PTR ?TokenNumber@@3MA
  00084	89 45 f0	 mov	 DWORD PTR _Type$5[ebp], eax

; 97   : 
; 98   : 			if( Type == 0 )

  00087	83 7d f0 00	 cmp	 DWORD PTR _Type$5[ebp], 0
  0008b	0f 85 99 04 00
	00		 jne	 $LN11@LoadQuestI

; 99   : 			{	// 퀘스트 정보
; 100  : 				Token = (*GetToken)();

  00091	e8 00 00 00 00	 call	 ?GetToken@@YA?AW4SMDToken@@XZ ; GetToken
  00096	89 45 f8	 mov	 DWORD PTR _Token$[ebp], eax

; 101  : 				int QuestIndex = (int)TokenNumber;

  00099	f3 0f 2c 05 00
	00 00 00	 cvttss2si eax, DWORD PTR ?TokenNumber@@3MA
  000a1	89 45 ec	 mov	 DWORD PTR _QuestIndex$4[ebp], eax

; 102  : 				QuestInfo[QuestIndex].QuestIndex = QuestIndex;

  000a4	69 45 ec 30 04
	00 00		 imul	 eax, DWORD PTR _QuestIndex$4[ebp], 1072
  000ab	8b 4d fc	 mov	 ecx, DWORD PTR _this$[ebp]
  000ae	8b 55 ec	 mov	 edx, DWORD PTR _QuestIndex$4[ebp]
  000b1	89 54 01 3c	 mov	 DWORD PTR [ecx+eax+60], edx

; 103  : 
; 104  : 				Token = (*GetToken)();	

  000b5	e8 00 00 00 00	 call	 ?GetToken@@YA?AW4SMDToken@@XZ ; GetToken
  000ba	89 45 f8	 mov	 DWORD PTR _Token$[ebp], eax

; 105  : 				QuestInfo[QuestIndex].QuestStartType = (int)TokenNumber;

  000bd	f3 0f 2c 05 00
	00 00 00	 cvttss2si eax, DWORD PTR ?TokenNumber@@3MA
  000c5	69 4d ec 30 04
	00 00		 imul	 ecx, DWORD PTR _QuestIndex$4[ebp], 1072
  000cc	8b 55 fc	 mov	 edx, DWORD PTR _this$[ebp]
  000cf	89 44 0a 40	 mov	 DWORD PTR [edx+ecx+64], eax

; 106  : 
; 107  : 				Token = (*GetToken)();	

  000d3	e8 00 00 00 00	 call	 ?GetToken@@YA?AW4SMDToken@@XZ ; GetToken
  000d8	89 45 f8	 mov	 DWORD PTR _Token$[ebp], eax

; 108  : 				QuestInfo[QuestIndex].QuestStartSubType = (int)TokenNumber;

  000db	f3 0f 2c 05 00
	00 00 00	 cvttss2si eax, DWORD PTR ?TokenNumber@@3MA
  000e3	69 4d ec 30 04
	00 00		 imul	 ecx, DWORD PTR _QuestIndex$4[ebp], 1072
  000ea	8b 55 fc	 mov	 edx, DWORD PTR _this$[ebp]
  000ed	89 44 0a 44	 mov	 DWORD PTR [edx+ecx+68], eax

; 109  : 
; 110  : 				Token = (*GetToken)();	

  000f1	e8 00 00 00 00	 call	 ?GetToken@@YA?AW4SMDToken@@XZ ; GetToken
  000f6	89 45 f8	 mov	 DWORD PTR _Token$[ebp], eax

; 111  : 				strcpy(QuestInfo[QuestIndex].Name, TokenString);

  000f9	68 00 00 00 00	 push	 OFFSET ?TokenString@@3PADA
  000fe	69 45 ec 30 04
	00 00		 imul	 eax, DWORD PTR _QuestIndex$4[ebp], 1072
  00105	8b 4d fc	 mov	 ecx, DWORD PTR _this$[ebp]
  00108	8d 54 01 08	 lea	 edx, DWORD PTR [ecx+eax+8]
  0010c	52		 push	 edx
  0010d	e8 00 00 00 00	 call	 _strcpy
  00112	83 c4 08	 add	 esp, 8

; 112  : 				
; 113  : 				QuestInfo[QuestIndex].QuestSubInfoCount = 0;

  00115	69 45 ec 30 04
	00 00		 imul	 eax, DWORD PTR _QuestIndex$4[ebp], 1072
  0011c	8b 4d fc	 mov	 ecx, DWORD PTR _this$[ebp]
  0011f	c7 44 01 48 00
	00 00 00	 mov	 DWORD PTR [ecx+eax+72], 0
$LN4@LoadQuestI:

; 114  : 
; 115  : 				while(1)

  00127	b8 01 00 00 00	 mov	 eax, 1
  0012c	85 c0		 test	 eax, eax
  0012e	0f 84 b2 03 00
	00		 je	 $LN5@LoadQuestI

; 116  : 				{
; 117  : 					int index = QuestInfo[QuestIndex].QuestSubInfoCount;

  00134	69 45 ec 30 04
	00 00		 imul	 eax, DWORD PTR _QuestIndex$4[ebp], 1072
  0013b	8b 4d fc	 mov	 ecx, DWORD PTR _this$[ebp]
  0013e	8b 54 01 48	 mov	 edx, DWORD PTR [ecx+eax+72]
  00142	89 55 e8	 mov	 DWORD PTR _index$3[ebp], edx

; 118  : 
; 119  : 					Token = (*GetToken)();	

  00145	e8 00 00 00 00	 call	 ?GetToken@@YA?AW4SMDToken@@XZ ; GetToken
  0014a	89 45 f8	 mov	 DWORD PTR _Token$[ebp], eax

; 120  : 					if(Token==NAME && strcmp("end",TokenString)==NULL) 

  0014d	83 7d f8 00	 cmp	 DWORD PTR _Token$[ebp], 0
  00151	75 1b		 jne	 SHORT $LN13@LoadQuestI
  00153	68 00 00 00 00	 push	 OFFSET ?TokenString@@3PADA
  00158	68 00 00 00 00	 push	 OFFSET ??_C@_03JBJLGPFL@end@
  0015d	e8 00 00 00 00	 call	 _strcmp
  00162	83 c4 08	 add	 esp, 8
  00165	85 c0		 test	 eax, eax
  00167	75 05		 jne	 SHORT $LN13@LoadQuestI

; 121  : 						break;

  00169	e9 78 03 00 00	 jmp	 $LN5@LoadQuestI
$LN13@LoadQuestI:

; 122  : 					
; 123  : 					QuestInfo[QuestIndex].QuestSubInfo[index].QuestType = (int)TokenNumber;

  0016e	f3 0f 2c 05 00
	00 00 00	 cvttss2si eax, DWORD PTR ?TokenNumber@@3MA
  00176	69 4d ec 30 04
	00 00		 imul	 ecx, DWORD PTR _QuestIndex$4[ebp], 1072
  0017d	8b 55 fc	 mov	 edx, DWORD PTR _this$[ebp]
  00180	8d 4c 0a 08	 lea	 ecx, DWORD PTR [edx+ecx+8]
  00184	6b 55 e8 48	 imul	 edx, DWORD PTR _index$3[ebp], 72
  00188	89 44 11 44	 mov	 DWORD PTR [ecx+edx+68], eax

; 124  : 					Token = (*GetToken)();	QuestInfo[QuestIndex].QuestSubInfo[index].NeedType = (int)TokenNumber;

  0018c	e8 00 00 00 00	 call	 ?GetToken@@YA?AW4SMDToken@@XZ ; GetToken
  00191	89 45 f8	 mov	 DWORD PTR _Token$[ebp], eax
  00194	f3 0f 2c 05 00
	00 00 00	 cvttss2si eax, DWORD PTR ?TokenNumber@@3MA
  0019c	69 4d ec 30 04
	00 00		 imul	 ecx, DWORD PTR _QuestIndex$4[ebp], 1072
  001a3	8b 55 fc	 mov	 edx, DWORD PTR _this$[ebp]
  001a6	8d 4c 0a 08	 lea	 ecx, DWORD PTR [edx+ecx+8]
  001aa	6b 55 e8 48	 imul	 edx, DWORD PTR _index$3[ebp], 72
  001ae	89 44 11 48	 mov	 DWORD PTR [ecx+edx+72], eax

; 125  : 					Token = (*GetToken)();	QuestInfo[QuestIndex].QuestSubInfo[index].NeedSubType = (int)TokenNumber;

  001b2	e8 00 00 00 00	 call	 ?GetToken@@YA?AW4SMDToken@@XZ ; GetToken
  001b7	89 45 f8	 mov	 DWORD PTR _Token$[ebp], eax
  001ba	f3 0f 2c 05 00
	00 00 00	 cvttss2si eax, DWORD PTR ?TokenNumber@@3MA
  001c2	69 4d ec 30 04
	00 00		 imul	 ecx, DWORD PTR _QuestIndex$4[ebp], 1072
  001c9	8b 55 fc	 mov	 edx, DWORD PTR _this$[ebp]
  001cc	8d 4c 0a 08	 lea	 ecx, DWORD PTR [edx+ecx+8]
  001d0	6b 55 e8 48	 imul	 edx, DWORD PTR _index$3[ebp], 72
  001d4	89 44 11 4c	 mov	 DWORD PTR [ecx+edx+76], eax

; 126  : 
; 127  : #ifdef SECOND_QUEST
; 128  : 					Token = (*GetToken)();	QuestInfo[QuestIndex].QuestSubInfo[index].ItemLevel = (int)TokenNumber;					

  001d8	e8 00 00 00 00	 call	 ?GetToken@@YA?AW4SMDToken@@XZ ; GetToken
  001dd	89 45 f8	 mov	 DWORD PTR _Token$[ebp], eax
  001e0	f3 0f 2c 05 00
	00 00 00	 cvttss2si eax, DWORD PTR ?TokenNumber@@3MA
  001e8	69 4d ec 30 04
	00 00		 imul	 ecx, DWORD PTR _QuestIndex$4[ebp], 1072
  001ef	8b 55 fc	 mov	 edx, DWORD PTR _this$[ebp]
  001f2	8d 4c 0a 08	 lea	 ecx, DWORD PTR [edx+ecx+8]
  001f6	6b 55 e8 48	 imul	 edx, DWORD PTR _index$3[ebp], 72
  001fa	89 44 11 50	 mov	 DWORD PTR [ecx+edx+80], eax

; 129  : #endif
; 130  : 
; 131  : 					Token = (*GetToken)();	QuestInfo[QuestIndex].QuestSubInfo[index].NeedNumber = (int)TokenNumber;

  001fe	e8 00 00 00 00	 call	 ?GetToken@@YA?AW4SMDToken@@XZ ; GetToken
  00203	89 45 f8	 mov	 DWORD PTR _Token$[ebp], eax
  00206	f3 0f 2c 05 00
	00 00 00	 cvttss2si eax, DWORD PTR ?TokenNumber@@3MA
  0020e	69 4d ec 30 04
	00 00		 imul	 ecx, DWORD PTR _QuestIndex$4[ebp], 1072
  00215	8b 55 fc	 mov	 edx, DWORD PTR _this$[ebp]
  00218	8d 4c 0a 08	 lea	 ecx, DWORD PTR [edx+ecx+8]
  0021c	6b 55 e8 48	 imul	 edx, DWORD PTR _index$3[ebp], 72
  00220	89 44 11 54	 mov	 DWORD PTR [ecx+edx+84], eax

; 132  : 
; 133  : 					Token = (*GetToken)();	QuestInfo[QuestIndex].QuestSubInfo[index].NeedTargetMinLevel = (int)TokenNumber;

  00224	e8 00 00 00 00	 call	 ?GetToken@@YA?AW4SMDToken@@XZ ; GetToken
  00229	89 45 f8	 mov	 DWORD PTR _Token$[ebp], eax
  0022c	f3 0f 2c 05 00
	00 00 00	 cvttss2si eax, DWORD PTR ?TokenNumber@@3MA
  00234	69 4d ec 30 04
	00 00		 imul	 ecx, DWORD PTR _QuestIndex$4[ebp], 1072
  0023b	8b 55 fc	 mov	 edx, DWORD PTR _this$[ebp]
  0023e	8d 4c 0a 08	 lea	 ecx, DWORD PTR [edx+ecx+8]
  00242	6b 55 e8 48	 imul	 edx, DWORD PTR _index$3[ebp], 72
  00246	89 44 11 58	 mov	 DWORD PTR [ecx+edx+88], eax

; 134  : 					Token = (*GetToken)();	QuestInfo[QuestIndex].QuestSubInfo[index].NeedTargetMaxLevel = (int)TokenNumber;

  0024a	e8 00 00 00 00	 call	 ?GetToken@@YA?AW4SMDToken@@XZ ; GetToken
  0024f	89 45 f8	 mov	 DWORD PTR _Token$[ebp], eax
  00252	f3 0f 2c 05 00
	00 00 00	 cvttss2si eax, DWORD PTR ?TokenNumber@@3MA
  0025a	69 4d ec 30 04
	00 00		 imul	 ecx, DWORD PTR _QuestIndex$4[ebp], 1072
  00261	8b 55 fc	 mov	 edx, DWORD PTR _this$[ebp]
  00264	8d 4c 0a 08	 lea	 ecx, DWORD PTR [edx+ecx+8]
  00268	6b 55 e8 48	 imul	 edx, DWORD PTR _index$3[ebp], 72
  0026c	89 44 11 5c	 mov	 DWORD PTR [ecx+edx+92], eax

; 135  : 
; 136  : 					
; 137  : 					Token = (*GetToken)();	QuestInfo[QuestIndex].QuestSubInfo[index].NeedDropRate = (int)TokenNumber;

  00270	e8 00 00 00 00	 call	 ?GetToken@@YA?AW4SMDToken@@XZ ; GetToken
  00275	89 45 f8	 mov	 DWORD PTR _Token$[ebp], eax
  00278	f3 0f 2c 05 00
	00 00 00	 cvttss2si eax, DWORD PTR ?TokenNumber@@3MA
  00280	69 4d ec 30 04
	00 00		 imul	 ecx, DWORD PTR _QuestIndex$4[ebp], 1072
  00287	8b 55 fc	 mov	 edx, DWORD PTR _this$[ebp]
  0028a	8d 4c 0a 08	 lea	 ecx, DWORD PTR [edx+ecx+8]
  0028e	6b 55 e8 48	 imul	 edx, DWORD PTR _index$3[ebp], 72
  00292	89 44 11 60	 mov	 DWORD PTR [ecx+edx+96], eax

; 138  : 					Token = (*GetToken)();	QuestInfo[QuestIndex].QuestSubInfo[index].RewardType = (int)TokenNumber;

  00296	e8 00 00 00 00	 call	 ?GetToken@@YA?AW4SMDToken@@XZ ; GetToken
  0029b	89 45 f8	 mov	 DWORD PTR _Token$[ebp], eax
  0029e	f3 0f 2c 05 00
	00 00 00	 cvttss2si eax, DWORD PTR ?TokenNumber@@3MA
  002a6	69 4d ec 30 04
	00 00		 imul	 ecx, DWORD PTR _QuestIndex$4[ebp], 1072
  002ad	8b 55 fc	 mov	 edx, DWORD PTR _this$[ebp]
  002b0	8d 4c 0a 08	 lea	 ecx, DWORD PTR [edx+ecx+8]
  002b4	6b 55 e8 48	 imul	 edx, DWORD PTR _index$3[ebp], 72
  002b8	89 44 11 64	 mov	 DWORD PTR [ecx+edx+100], eax

; 139  : 					Token = (*GetToken)();	QuestInfo[QuestIndex].QuestSubInfo[index].RewardSubType = (int)TokenNumber;					

  002bc	e8 00 00 00 00	 call	 ?GetToken@@YA?AW4SMDToken@@XZ ; GetToken
  002c1	89 45 f8	 mov	 DWORD PTR _Token$[ebp], eax
  002c4	f3 0f 2c 05 00
	00 00 00	 cvttss2si eax, DWORD PTR ?TokenNumber@@3MA
  002cc	69 4d ec 30 04
	00 00		 imul	 ecx, DWORD PTR _QuestIndex$4[ebp], 1072
  002d3	8b 55 fc	 mov	 edx, DWORD PTR _this$[ebp]
  002d6	8d 4c 0a 08	 lea	 ecx, DWORD PTR [edx+ecx+8]
  002da	6b 55 e8 48	 imul	 edx, DWORD PTR _index$3[ebp], 72
  002de	89 44 11 68	 mov	 DWORD PTR [ecx+edx+104], eax

; 140  : 					Token = (*GetToken)();	QuestInfo[QuestIndex].QuestSubInfo[index].RewardCount = (int)TokenNumber;

  002e2	e8 00 00 00 00	 call	 ?GetToken@@YA?AW4SMDToken@@XZ ; GetToken
  002e7	89 45 f8	 mov	 DWORD PTR _Token$[ebp], eax
  002ea	f3 0f 2c 05 00
	00 00 00	 cvttss2si eax, DWORD PTR ?TokenNumber@@3MA
  002f2	69 4d ec 30 04
	00 00		 imul	 ecx, DWORD PTR _QuestIndex$4[ebp], 1072
  002f9	8b 55 fc	 mov	 edx, DWORD PTR _this$[ebp]
  002fc	8d 4c 0a 08	 lea	 ecx, DWORD PTR [edx+ecx+8]
  00300	6b 55 e8 48	 imul	 edx, DWORD PTR _index$3[ebp], 72
  00304	89 44 11 6c	 mov	 DWORD PTR [ecx+edx+108], eax

; 141  : 					Token = (*GetToken)();	QuestInfo[QuestIndex].QuestSubInfo[index].LinkConditionIndex = (int)TokenNumber;

  00308	e8 00 00 00 00	 call	 ?GetToken@@YA?AW4SMDToken@@XZ ; GetToken
  0030d	89 45 f8	 mov	 DWORD PTR _Token$[ebp], eax
  00310	f3 0f 2c 05 00
	00 00 00	 cvttss2si eax, DWORD PTR ?TokenNumber@@3MA
  00318	69 4d ec 30 04
	00 00		 imul	 ecx, DWORD PTR _QuestIndex$4[ebp], 1072
  0031f	8b 55 fc	 mov	 edx, DWORD PTR _this$[ebp]
  00322	8d 4c 0a 08	 lea	 ecx, DWORD PTR [edx+ecx+8]
  00326	6b 55 e8 48	 imul	 edx, DWORD PTR _index$3[ebp], 72
  0032a	89 44 11 70	 mov	 DWORD PTR [ecx+edx+112], eax

; 142  : 					Token = (*GetToken)();	QuestInfo[QuestIndex].QuestSubInfo[index].ContextBeforeReg = (int)TokenNumber;

  0032e	e8 00 00 00 00	 call	 ?GetToken@@YA?AW4SMDToken@@XZ ; GetToken
  00333	89 45 f8	 mov	 DWORD PTR _Token$[ebp], eax
  00336	f3 0f 2c 05 00
	00 00 00	 cvttss2si eax, DWORD PTR ?TokenNumber@@3MA
  0033e	69 4d ec 30 04
	00 00		 imul	 ecx, DWORD PTR _QuestIndex$4[ebp], 1072
  00345	8b 55 fc	 mov	 edx, DWORD PTR _this$[ebp]
  00348	8d 4c 0a 08	 lea	 ecx, DWORD PTR [edx+ecx+8]
  0034c	6b 55 e8 48	 imul	 edx, DWORD PTR _index$3[ebp], 72
  00350	89 44 11 74	 mov	 DWORD PTR [ecx+edx+116], eax

; 143  : 					Token = (*GetToken)();	QuestInfo[QuestIndex].QuestSubInfo[index].ContextAfterReg = (int)TokenNumber;

  00354	e8 00 00 00 00	 call	 ?GetToken@@YA?AW4SMDToken@@XZ ; GetToken
  00359	89 45 f8	 mov	 DWORD PTR _Token$[ebp], eax
  0035c	f3 0f 2c 05 00
	00 00 00	 cvttss2si eax, DWORD PTR ?TokenNumber@@3MA
  00364	69 4d ec 30 04
	00 00		 imul	 ecx, DWORD PTR _QuestIndex$4[ebp], 1072
  0036b	8b 55 fc	 mov	 edx, DWORD PTR _this$[ebp]
  0036e	8d 4c 0a 08	 lea	 ecx, DWORD PTR [edx+ecx+8]
  00372	6b 55 e8 48	 imul	 edx, DWORD PTR _index$3[ebp], 72
  00376	89 44 11 78	 mov	 DWORD PTR [ecx+edx+120], eax

; 144  : 					Token = (*GetToken)();	QuestInfo[QuestIndex].QuestSubInfo[index].ContextCompleteQuest = (int)TokenNumber;

  0037a	e8 00 00 00 00	 call	 ?GetToken@@YA?AW4SMDToken@@XZ ; GetToken
  0037f	89 45 f8	 mov	 DWORD PTR _Token$[ebp], eax
  00382	f3 0f 2c 05 00
	00 00 00	 cvttss2si eax, DWORD PTR ?TokenNumber@@3MA
  0038a	69 4d ec 30 04
	00 00		 imul	 ecx, DWORD PTR _QuestIndex$4[ebp], 1072
  00391	8b 55 fc	 mov	 edx, DWORD PTR _this$[ebp]
  00394	8d 4c 0a 08	 lea	 ecx, DWORD PTR [edx+ecx+8]
  00398	6b 55 e8 48	 imul	 edx, DWORD PTR _index$3[ebp], 72
  0039c	89 44 11 7c	 mov	 DWORD PTR [ecx+edx+124], eax

; 145  : 					Token = (*GetToken)();	QuestInfo[QuestIndex].QuestSubInfo[index].ContextQuestClear = (int)TokenNumber;

  003a0	e8 00 00 00 00	 call	 ?GetToken@@YA?AW4SMDToken@@XZ ; GetToken
  003a5	89 45 f8	 mov	 DWORD PTR _Token$[ebp], eax
  003a8	f3 0f 2c 05 00
	00 00 00	 cvttss2si eax, DWORD PTR ?TokenNumber@@3MA
  003b0	69 4d ec 30 04
	00 00		 imul	 ecx, DWORD PTR _QuestIndex$4[ebp], 1072
  003b7	8b 55 fc	 mov	 edx, DWORD PTR _this$[ebp]
  003ba	8d 4c 0a 08	 lea	 ecx, DWORD PTR [edx+ecx+8]
  003be	6b 55 e8 48	 imul	 edx, DWORD PTR _index$3[ebp], 72
  003c2	89 84 11 80 00
	00 00		 mov	 DWORD PTR [ecx+edx+128], eax

; 146  : 
; 147  : 					Token = (*GetToken)();	QuestInfo[QuestIndex].QuestSubInfo[index].RequireClass[0] = (int)TokenNumber;

  003c9	e8 00 00 00 00	 call	 ?GetToken@@YA?AW4SMDToken@@XZ ; GetToken
  003ce	89 45 f8	 mov	 DWORD PTR _Token$[ebp], eax
  003d1	f3 0f 2c 05 00
	00 00 00	 cvttss2si eax, DWORD PTR ?TokenNumber@@3MA
  003d9	69 4d ec 30 04
	00 00		 imul	 ecx, DWORD PTR _QuestIndex$4[ebp], 1072
  003e0	8b 55 fc	 mov	 edx, DWORD PTR _this$[ebp]
  003e3	8d 4c 0a 08	 lea	 ecx, DWORD PTR [edx+ecx+8]
  003e7	6b 55 e8 48	 imul	 edx, DWORD PTR _index$3[ebp], 72
  003eb	8d 4c 11 44	 lea	 ecx, DWORD PTR [ecx+edx+68]
  003ef	ba 01 00 00 00	 mov	 edx, 1
  003f4	6b d2 00	 imul	 edx, edx, 0
  003f7	88 44 11 40	 mov	 BYTE PTR [ecx+edx+64], al

; 148  : 					Token = (*GetToken)();	QuestInfo[QuestIndex].QuestSubInfo[index].RequireClass[1] = (int)TokenNumber;

  003fb	e8 00 00 00 00	 call	 ?GetToken@@YA?AW4SMDToken@@XZ ; GetToken
  00400	89 45 f8	 mov	 DWORD PTR _Token$[ebp], eax
  00403	f3 0f 2c 05 00
	00 00 00	 cvttss2si eax, DWORD PTR ?TokenNumber@@3MA
  0040b	69 4d ec 30 04
	00 00		 imul	 ecx, DWORD PTR _QuestIndex$4[ebp], 1072
  00412	8b 55 fc	 mov	 edx, DWORD PTR _this$[ebp]
  00415	8d 4c 0a 08	 lea	 ecx, DWORD PTR [edx+ecx+8]
  00419	6b 55 e8 48	 imul	 edx, DWORD PTR _index$3[ebp], 72
  0041d	8d 4c 11 44	 lea	 ecx, DWORD PTR [ecx+edx+68]
  00421	ba 01 00 00 00	 mov	 edx, 1
  00426	c1 e2 00	 shl	 edx, 0
  00429	88 44 11 40	 mov	 BYTE PTR [ecx+edx+64], al

; 149  : 					Token = (*GetToken)();	QuestInfo[QuestIndex].QuestSubInfo[index].RequireClass[2] = (int)TokenNumber;

  0042d	e8 00 00 00 00	 call	 ?GetToken@@YA?AW4SMDToken@@XZ ; GetToken
  00432	89 45 f8	 mov	 DWORD PTR _Token$[ebp], eax
  00435	f3 0f 2c 05 00
	00 00 00	 cvttss2si eax, DWORD PTR ?TokenNumber@@3MA
  0043d	69 4d ec 30 04
	00 00		 imul	 ecx, DWORD PTR _QuestIndex$4[ebp], 1072
  00444	8b 55 fc	 mov	 edx, DWORD PTR _this$[ebp]
  00447	8d 4c 0a 08	 lea	 ecx, DWORD PTR [edx+ecx+8]
  0044b	6b 55 e8 48	 imul	 edx, DWORD PTR _index$3[ebp], 72
  0044f	8d 4c 11 44	 lea	 ecx, DWORD PTR [ecx+edx+68]
  00453	ba 01 00 00 00	 mov	 edx, 1
  00458	d1 e2		 shl	 edx, 1
  0045a	88 44 11 40	 mov	 BYTE PTR [ecx+edx+64], al

; 150  : 					Token = (*GetToken)();	QuestInfo[QuestIndex].QuestSubInfo[index].RequireClass[3] = (int)TokenNumber;

  0045e	e8 00 00 00 00	 call	 ?GetToken@@YA?AW4SMDToken@@XZ ; GetToken
  00463	89 45 f8	 mov	 DWORD PTR _Token$[ebp], eax
  00466	f3 0f 2c 05 00
	00 00 00	 cvttss2si eax, DWORD PTR ?TokenNumber@@3MA
  0046e	69 4d ec 30 04
	00 00		 imul	 ecx, DWORD PTR _QuestIndex$4[ebp], 1072
  00475	8b 55 fc	 mov	 edx, DWORD PTR _this$[ebp]
  00478	8d 4c 0a 08	 lea	 ecx, DWORD PTR [edx+ecx+8]
  0047c	6b 55 e8 48	 imul	 edx, DWORD PTR _index$3[ebp], 72
  00480	8d 4c 11 44	 lea	 ecx, DWORD PTR [ecx+edx+68]
  00484	ba 01 00 00 00	 mov	 edx, 1
  00489	6b d2 03	 imul	 edx, edx, 3
  0048c	88 44 11 40	 mov	 BYTE PTR [ecx+edx+64], al

; 151  : 					
; 152  : #ifdef DARKLORD_WORK
; 153  : 					Token = (*GetToken)();	QuestInfo[QuestIndex].QuestSubInfo[index].RequireClass[4] = (int)TokenNumber;

  00490	e8 00 00 00 00	 call	 ?GetToken@@YA?AW4SMDToken@@XZ ; GetToken
  00495	89 45 f8	 mov	 DWORD PTR _Token$[ebp], eax
  00498	f3 0f 2c 05 00
	00 00 00	 cvttss2si eax, DWORD PTR ?TokenNumber@@3MA
  004a0	69 4d ec 30 04
	00 00		 imul	 ecx, DWORD PTR _QuestIndex$4[ebp], 1072
  004a7	8b 55 fc	 mov	 edx, DWORD PTR _this$[ebp]
  004aa	8d 4c 0a 08	 lea	 ecx, DWORD PTR [edx+ecx+8]
  004ae	6b 55 e8 48	 imul	 edx, DWORD PTR _index$3[ebp], 72
  004b2	8d 4c 11 44	 lea	 ecx, DWORD PTR [ecx+edx+68]
  004b6	ba 01 00 00 00	 mov	 edx, 1
  004bb	c1 e2 02	 shl	 edx, 2
  004be	88 44 11 40	 mov	 BYTE PTR [ecx+edx+64], al

; 154  : #endif
; 155  : 
; 156  : #ifdef ADD_SEASON_3_NEW_CHARACTER_SUMMONER_20070912	// quset 사용 클래스 추가
; 157  : 					Token = (*GetToken)();	QuestInfo[QuestIndex].QuestSubInfo[index].RequireClass[5] = (int)TokenNumber;
; 158  : #endif
; 159  : 					
; 160  : 					QuestInfo[QuestIndex].QuestSubInfoCount++;

  004c2	69 45 ec 30 04
	00 00		 imul	 eax, DWORD PTR _QuestIndex$4[ebp], 1072
  004c9	8b 4d fc	 mov	 ecx, DWORD PTR _this$[ebp]
  004cc	8b 54 01 48	 mov	 edx, DWORD PTR [ecx+eax+72]
  004d0	83 c2 01	 add	 edx, 1
  004d3	69 45 ec 30 04
	00 00		 imul	 eax, DWORD PTR _QuestIndex$4[ebp], 1072
  004da	8b 4d fc	 mov	 ecx, DWORD PTR _this$[ebp]
  004dd	89 54 01 48	 mov	 DWORD PTR [ecx+eax+72], edx

; 161  : 				}

  004e1	e9 41 fc ff ff	 jmp	 $LN4@LoadQuestI
$LN5@LoadQuestI:

; 162  : 
; 163  : 				LogAdd("[Quest] (%s) Load : Index %d, SubInfoCount %d", 

  004e6	69 45 ec 30 04
	00 00		 imul	 eax, DWORD PTR _QuestIndex$4[ebp], 1072
  004ed	8b 4d fc	 mov	 ecx, DWORD PTR _this$[ebp]
  004f0	8b 54 01 48	 mov	 edx, DWORD PTR [ecx+eax+72]
  004f4	52		 push	 edx
  004f5	8b 45 ec	 mov	 eax, DWORD PTR _QuestIndex$4[ebp]
  004f8	50		 push	 eax
  004f9	69 4d ec 30 04
	00 00		 imul	 ecx, DWORD PTR _QuestIndex$4[ebp], 1072
  00500	8b 55 fc	 mov	 edx, DWORD PTR _this$[ebp]
  00503	8d 44 0a 08	 lea	 eax, DWORD PTR [edx+ecx+8]
  00507	50		 push	 eax
  00508	68 00 00 00 00	 push	 OFFSET ??_C@_0CO@IPPCPA@?$FLQuest?$FN?5?$CI?$CFs?$CJ?5Load?5?3?5Index?5?$CFd?0?5S@
  0050d	ff 15 00 00 00
	00		 call	 DWORD PTR ?LogAdd@@3P6AXPADZZA ; LogAdd
  00513	83 c4 10	 add	 esp, 16			; 00000010H

; 164  : 					   QuestInfo[QuestIndex].Name, QuestIndex, QuestInfo[QuestIndex].QuestSubInfoCount);
; 165  : 
; 166  : 				m_QuestCount++;					   

  00516	8b 45 fc	 mov	 eax, DWORD PTR _this$[ebp]
  00519	8b 48 04	 mov	 ecx, DWORD PTR [eax+4]
  0051c	83 c1 01	 add	 ecx, 1
  0051f	8b 55 fc	 mov	 edx, DWORD PTR _this$[ebp]
  00522	89 4a 04	 mov	 DWORD PTR [edx+4], ecx

; 167  : 			}

  00525	e9 c9 01 00 00	 jmp	 $LN15@LoadQuestI
$LN11@LoadQuestI:

; 168  : 			else if( Type == 1 )

  0052a	83 7d f0 01	 cmp	 DWORD PTR _Type$5[ebp], 1
  0052e	0f 85 a0 01 00
	00		 jne	 $LN14@LoadQuestI

; 169  : 			{	// 퀘스트 요구조건
; 170  : 				Token = (*GetToken)();

  00534	e8 00 00 00 00	 call	 ?GetToken@@YA?AW4SMDToken@@XZ ; GetToken
  00539	89 45 f8	 mov	 DWORD PTR _Token$[ebp], eax

; 171  : 				int QuestIndex = (int)TokenNumber;

  0053c	f3 0f 2c 05 00
	00 00 00	 cvttss2si eax, DWORD PTR ?TokenNumber@@3MA
  00544	89 45 e4	 mov	 DWORD PTR _QuestIndex$2[ebp], eax
$LN6@LoadQuestI:

; 172  : 				
; 173  : 				while(1)

  00547	b8 01 00 00 00	 mov	 eax, 1
  0054c	85 c0		 test	 eax, eax
  0054e	0f 84 7e 01 00
	00		 je	 $LN7@LoadQuestI

; 174  : 				{
; 175  : 					int index = QuestInfo[QuestIndex].QuestConditionCount;

  00554	69 45 e4 30 04
	00 00		 imul	 eax, DWORD PTR _QuestIndex$2[ebp], 1072
  0055b	8b 4d fc	 mov	 ecx, DWORD PTR _this$[ebp]
  0055e	8b 94 01 1c 03
	00 00		 mov	 edx, DWORD PTR [ecx+eax+796]
  00565	89 55 e0	 mov	 DWORD PTR _index$1[ebp], edx

; 176  : 					
; 177  : 					Token = (*GetToken)();	

  00568	e8 00 00 00 00	 call	 ?GetToken@@YA?AW4SMDToken@@XZ ; GetToken
  0056d	89 45 f8	 mov	 DWORD PTR _Token$[ebp], eax

; 178  : 					if(Token==NAME && strcmp("end",TokenString)==NULL) break;

  00570	83 7d f8 00	 cmp	 DWORD PTR _Token$[ebp], 0
  00574	75 1b		 jne	 SHORT $LN16@LoadQuestI
  00576	68 00 00 00 00	 push	 OFFSET ?TokenString@@3PADA
  0057b	68 00 00 00 00	 push	 OFFSET ??_C@_03JBJLGPFL@end@
  00580	e8 00 00 00 00	 call	 _strcmp
  00585	83 c4 08	 add	 esp, 8
  00588	85 c0		 test	 eax, eax
  0058a	75 05		 jne	 SHORT $LN16@LoadQuestI
  0058c	e9 41 01 00 00	 jmp	 $LN7@LoadQuestI
$LN16@LoadQuestI:

; 179  : 
; 180  : 					QuestInfo[QuestIndex].QuestCondition[index].Index = (int)TokenNumber;

  00591	f3 0f 2c 05 00
	00 00 00	 cvttss2si eax, DWORD PTR ?TokenNumber@@3MA
  00599	69 4d e4 30 04
	00 00		 imul	 ecx, DWORD PTR _QuestIndex$2[ebp], 1072
  005a0	8b 55 fc	 mov	 edx, DWORD PTR _this$[ebp]
  005a3	8d 4c 0a 08	 lea	 ecx, DWORD PTR [edx+ecx+8]
  005a7	6b 55 e0 1c	 imul	 edx, DWORD PTR _index$1[ebp], 28
  005ab	89 84 11 18 03
	00 00		 mov	 DWORD PTR [ecx+edx+792], eax

; 181  : 
; 182  : 					Token = (*GetToken)();	QuestInfo[QuestIndex].QuestCondition[index].NeedQuestIndex = (int)TokenNumber;

  005b2	e8 00 00 00 00	 call	 ?GetToken@@YA?AW4SMDToken@@XZ ; GetToken
  005b7	89 45 f8	 mov	 DWORD PTR _Token$[ebp], eax
  005ba	f3 0f 2c 05 00
	00 00 00	 cvttss2si eax, DWORD PTR ?TokenNumber@@3MA
  005c2	69 4d e4 30 04
	00 00		 imul	 ecx, DWORD PTR _QuestIndex$2[ebp], 1072
  005c9	8b 55 fc	 mov	 edx, DWORD PTR _this$[ebp]
  005cc	8d 4c 0a 08	 lea	 ecx, DWORD PTR [edx+ecx+8]
  005d0	6b 55 e0 1c	 imul	 edx, DWORD PTR _index$1[ebp], 28
  005d4	89 84 11 1c 03
	00 00		 mov	 DWORD PTR [ecx+edx+796], eax

; 183  : 					Token = (*GetToken)();	QuestInfo[QuestIndex].QuestCondition[index].MinLevel = (int)TokenNumber;

  005db	e8 00 00 00 00	 call	 ?GetToken@@YA?AW4SMDToken@@XZ ; GetToken
  005e0	89 45 f8	 mov	 DWORD PTR _Token$[ebp], eax
  005e3	f3 0f 2c 05 00
	00 00 00	 cvttss2si eax, DWORD PTR ?TokenNumber@@3MA
  005eb	69 4d e4 30 04
	00 00		 imul	 ecx, DWORD PTR _QuestIndex$2[ebp], 1072
  005f2	8b 55 fc	 mov	 edx, DWORD PTR _this$[ebp]
  005f5	8d 4c 0a 08	 lea	 ecx, DWORD PTR [edx+ecx+8]
  005f9	6b 55 e0 1c	 imul	 edx, DWORD PTR _index$1[ebp], 28
  005fd	89 84 11 20 03
	00 00		 mov	 DWORD PTR [ecx+edx+800], eax

; 184  : 					Token = (*GetToken)();	QuestInfo[QuestIndex].QuestCondition[index].MaxLevel = (int)TokenNumber;

  00604	e8 00 00 00 00	 call	 ?GetToken@@YA?AW4SMDToken@@XZ ; GetToken
  00609	89 45 f8	 mov	 DWORD PTR _Token$[ebp], eax
  0060c	f3 0f 2c 05 00
	00 00 00	 cvttss2si eax, DWORD PTR ?TokenNumber@@3MA
  00614	69 4d e4 30 04
	00 00		 imul	 ecx, DWORD PTR _QuestIndex$2[ebp], 1072
  0061b	8b 55 fc	 mov	 edx, DWORD PTR _this$[ebp]
  0061e	8d 4c 0a 08	 lea	 ecx, DWORD PTR [edx+ecx+8]
  00622	6b 55 e0 1c	 imul	 edx, DWORD PTR _index$1[ebp], 28
  00626	89 84 11 24 03
	00 00		 mov	 DWORD PTR [ecx+edx+804], eax

; 185  : 
; 186  : #ifdef SECOND_QUEST
; 187  : 					Token = (*GetToken)();	QuestInfo[QuestIndex].QuestCondition[index].ReqStr = (int)TokenNumber;

  0062d	e8 00 00 00 00	 call	 ?GetToken@@YA?AW4SMDToken@@XZ ; GetToken
  00632	89 45 f8	 mov	 DWORD PTR _Token$[ebp], eax
  00635	f3 0f 2c 05 00
	00 00 00	 cvttss2si eax, DWORD PTR ?TokenNumber@@3MA
  0063d	69 4d e4 30 04
	00 00		 imul	 ecx, DWORD PTR _QuestIndex$2[ebp], 1072
  00644	8b 55 fc	 mov	 edx, DWORD PTR _this$[ebp]
  00647	8d 4c 0a 08	 lea	 ecx, DWORD PTR [edx+ecx+8]
  0064b	6b 55 e0 1c	 imul	 edx, DWORD PTR _index$1[ebp], 28
  0064f	89 84 11 28 03
	00 00		 mov	 DWORD PTR [ecx+edx+808], eax

; 188  : #endif
; 189  : 
; 190  : 					Token = (*GetToken)();	QuestInfo[QuestIndex].QuestCondition[index].NeedZen = (int)TokenNumber;

  00656	e8 00 00 00 00	 call	 ?GetToken@@YA?AW4SMDToken@@XZ ; GetToken
  0065b	89 45 f8	 mov	 DWORD PTR _Token$[ebp], eax
  0065e	f3 0f 2c 05 00
	00 00 00	 cvttss2si eax, DWORD PTR ?TokenNumber@@3MA
  00666	69 4d e4 30 04
	00 00		 imul	 ecx, DWORD PTR _QuestIndex$2[ebp], 1072
  0066d	8b 55 fc	 mov	 edx, DWORD PTR _this$[ebp]
  00670	8d 4c 0a 08	 lea	 ecx, DWORD PTR [edx+ecx+8]
  00674	6b 55 e0 1c	 imul	 edx, DWORD PTR _index$1[ebp], 28
  00678	89 84 11 2c 03
	00 00		 mov	 DWORD PTR [ecx+edx+812], eax

; 191  : 					Token = (*GetToken)();	QuestInfo[QuestIndex].QuestCondition[index].StartContext = (int)TokenNumber;

  0067f	e8 00 00 00 00	 call	 ?GetToken@@YA?AW4SMDToken@@XZ ; GetToken
  00684	89 45 f8	 mov	 DWORD PTR _Token$[ebp], eax
  00687	f3 0f 2c 05 00
	00 00 00	 cvttss2si eax, DWORD PTR ?TokenNumber@@3MA
  0068f	69 4d e4 30 04
	00 00		 imul	 ecx, DWORD PTR _QuestIndex$2[ebp], 1072
  00696	8b 55 fc	 mov	 edx, DWORD PTR _this$[ebp]
  00699	8d 4c 0a 08	 lea	 ecx, DWORD PTR [edx+ecx+8]
  0069d	6b 55 e0 1c	 imul	 edx, DWORD PTR _index$1[ebp], 28
  006a1	89 84 11 30 03
	00 00		 mov	 DWORD PTR [ecx+edx+816], eax

; 192  : 
; 193  : 					QuestInfo[QuestIndex].QuestConditionCount++;

  006a8	69 45 e4 30 04
	00 00		 imul	 eax, DWORD PTR _QuestIndex$2[ebp], 1072
  006af	8b 4d fc	 mov	 ecx, DWORD PTR _this$[ebp]
  006b2	8b 94 01 1c 03
	00 00		 mov	 edx, DWORD PTR [ecx+eax+796]
  006b9	83 c2 01	 add	 edx, 1
  006bc	69 45 e4 30 04
	00 00		 imul	 eax, DWORD PTR _QuestIndex$2[ebp], 1072
  006c3	8b 4d fc	 mov	 ecx, DWORD PTR _this$[ebp]
  006c6	89 94 01 1c 03
	00 00		 mov	 DWORD PTR [ecx+eax+796], edx

; 194  : 				}

  006cd	e9 75 fe ff ff	 jmp	 $LN6@LoadQuestI
$LN7@LoadQuestI:

; 195  : 			}

  006d2	eb 1f		 jmp	 SHORT $LN15@LoadQuestI
$LN14@LoadQuestI:

; 196  : 			else
; 197  : 			{
; 198  : 				MsgBox("Quest Info Read Fail");

  006d4	68 00 00 00 00	 push	 OFFSET ??_C@_0BF@JAOCNINL@Quest?5Info?5Read?5Fail@
  006d9	e8 00 00 00 00	 call	 ?MsgBox@@YAXPADZZ	; MsgBox
  006de	83 c4 04	 add	 esp, 4

; 199  : 				fclose(SMDFile);

  006e1	a1 00 00 00 00	 mov	 eax, DWORD PTR ?SMDFile@@3PAU_iobuf@@A
  006e6	50		 push	 eax
  006e7	e8 00 00 00 00	 call	 _fclose
  006ec	83 c4 04	 add	 esp, 4

; 200  : 				return FALSE;

  006ef	33 c0		 xor	 eax, eax
  006f1	eb 20		 jmp	 SHORT $LN1@LoadQuestI
$LN15@LoadQuestI:

; 201  : 			}
; 202  : 		}
; 203  : 	}

  006f3	e9 5a f9 ff ff	 jmp	 $LN2@LoadQuestI
$LN3@LoadQuestI:

; 204  : 	fclose(SMDFile);

  006f8	a1 00 00 00 00	 mov	 eax, DWORD PTR ?SMDFile@@3PAU_iobuf@@A
  006fd	50		 push	 eax
  006fe	e8 00 00 00 00	 call	 _fclose
  00703	83 c4 04	 add	 esp, 4

; 205  : 
; 206  : 	InitQuestItem();

  00706	8b 4d fc	 mov	 ecx, DWORD PTR _this$[ebp]
  00709	e8 00 00 00 00	 call	 ?InitQuestItem@CQuestInfo@@QAEXXZ ; CQuestInfo::InitQuestItem

; 207  : 	return TRUE;

  0070e	b8 01 00 00 00	 mov	 eax, 1
$LN1@LoadQuestI:

; 208  : }

  00713	5f		 pop	 edi
  00714	5e		 pop	 esi
  00715	5b		 pop	 ebx
  00716	8b e5		 mov	 esp, ebp
  00718	5d		 pop	 ebp
  00719	c2 04 00	 ret	 4
?LoadQuestInfo@CQuestInfo@@QAEHPAD@Z ENDP		; CQuestInfo::LoadQuestInfo
_TEXT	ENDS
; Function compile flags: /Odtp /ZI
; File C:\Mu Online\Mu-GS-Webzen-MC-10093\GameServer\QuestInfo.h
;	COMDAT ?GetQeustCount@CQuestInfo@@QAEHXZ
_TEXT	SEGMENT
_this$ = -4						; size = 4
?GetQeustCount@CQuestInfo@@QAEHXZ PROC			; CQuestInfo::GetQeustCount, COMDAT
; _this$ = ecx

; 132  : 	int		GetQeustCount(){return m_QuestCount;}

  00000	55		 push	 ebp
  00001	8b ec		 mov	 ebp, esp
  00003	83 ec 44	 sub	 esp, 68			; 00000044H
  00006	53		 push	 ebx
  00007	56		 push	 esi
  00008	57		 push	 edi
  00009	89 4d fc	 mov	 DWORD PTR _this$[ebp], ecx
  0000c	8b 45 fc	 mov	 eax, DWORD PTR _this$[ebp]
  0000f	8b 40 04	 mov	 eax, DWORD PTR [eax+4]
  00012	5f		 pop	 edi
  00013	5e		 pop	 esi
  00014	5b		 pop	 ebx
  00015	8b e5		 mov	 esp, ebp
  00017	5d		 pop	 ebp
  00018	c3		 ret	 0
?GetQeustCount@CQuestInfo@@QAEHXZ ENDP			; CQuestInfo::GetQeustCount
_TEXT	ENDS
; Function compile flags: /Odtp /ZI
; File C:\Mu Online\Mu-GS-Webzen-MC-10093\GameServer\QuestInfo.cpp
;	COMDAT ?IsQuest@CQuestInfo@@QAEHH@Z
_TEXT	SEGMENT
_this$ = -4						; size = 4
_QuestIndex$ = 8					; size = 4
?IsQuest@CQuestInfo@@QAEHH@Z PROC			; CQuestInfo::IsQuest, COMDAT
; _this$ = ecx

; 508  : {

  00000	55		 push	 ebp
  00001	8b ec		 mov	 ebp, esp
  00003	83 ec 44	 sub	 esp, 68			; 00000044H
  00006	53		 push	 ebx
  00007	56		 push	 esi
  00008	57		 push	 edi
  00009	89 4d fc	 mov	 DWORD PTR _this$[ebp], ecx

; 509  : 	if( QuestIndex < 0 || QuestIndex > MAX_QUEST )

  0000c	83 7d 08 00	 cmp	 DWORD PTR _QuestIndex$[ebp], 0
  00010	7c 09		 jl	 SHORT $LN3@IsQuest
  00012	81 7d 08 c8 00
	00 00		 cmp	 DWORD PTR _QuestIndex$[ebp], 200 ; 000000c8H
  00019	7e 04		 jle	 SHORT $LN2@IsQuest
$LN3@IsQuest:

; 510  : 		return FALSE;

  0001b	33 c0		 xor	 eax, eax
  0001d	eb 1a		 jmp	 SHORT $LN1@IsQuest
$LN2@IsQuest:

; 511  : 
; 512  : 	if( QuestInfo[QuestIndex].QuestIndex == -1 )

  0001f	69 45 08 30 04
	00 00		 imul	 eax, DWORD PTR _QuestIndex$[ebp], 1072
  00026	8b 4d fc	 mov	 ecx, DWORD PTR _this$[ebp]
  00029	83 7c 01 3c ff	 cmp	 DWORD PTR [ecx+eax+60], -1
  0002e	75 04		 jne	 SHORT $LN4@IsQuest

; 513  : 		return FALSE;

  00030	33 c0		 xor	 eax, eax
  00032	eb 05		 jmp	 SHORT $LN1@IsQuest
$LN4@IsQuest:

; 514  : 	
; 515  : 	return TRUE;

  00034	b8 01 00 00 00	 mov	 eax, 1
$LN1@IsQuest:

; 516  : }

  00039	5f		 pop	 edi
  0003a	5e		 pop	 esi
  0003b	5b		 pop	 ebx
  0003c	8b e5		 mov	 esp, ebp
  0003e	5d		 pop	 ebp
  0003f	c2 04 00	 ret	 4
?IsQuest@CQuestInfo@@QAEHH@Z ENDP			; CQuestInfo::IsQuest
_TEXT	ENDS
; Function compile flags: /Odtp /ZI
; File C:\Mu Online\Mu-GS-Webzen-MC-10093\GameServer\QuestInfo.cpp
;	COMDAT ?Init@CQuestInfo@@QAEXXZ
_TEXT	SEGMENT
_i$1 = -8						; size = 4
_this$ = -4						; size = 4
?Init@CQuestInfo@@QAEXXZ PROC				; CQuestInfo::Init, COMDAT
; _this$ = ecx

; 66   : {

  00000	55		 push	 ebp
  00001	8b ec		 mov	 ebp, esp
  00003	83 ec 48	 sub	 esp, 72			; 00000048H
  00006	53		 push	 ebx
  00007	56		 push	 esi
  00008	57		 push	 edi
  00009	89 4d fc	 mov	 DWORD PTR _this$[ebp], ecx

; 67   : 	m_QuestCount = 0;

  0000c	8b 45 fc	 mov	 eax, DWORD PTR _this$[ebp]
  0000f	c7 40 04 00 00
	00 00		 mov	 DWORD PTR [eax+4], 0

; 68   : 	memset(QuestInfo, -1, sizeof(QuestInfo));	

  00016	68 80 45 03 00	 push	 214400			; 00034580H
  0001b	6a ff		 push	 -1
  0001d	8b 45 fc	 mov	 eax, DWORD PTR _this$[ebp]
  00020	83 c0 08	 add	 eax, 8
  00023	50		 push	 eax
  00024	e8 00 00 00 00	 call	 _memset
  00029	83 c4 0c	 add	 esp, 12			; 0000000cH

; 69   : 
; 70   : 	for( int i = 0; i < MAX_QUEST; i++ )

  0002c	c7 45 f8 00 00
	00 00		 mov	 DWORD PTR _i$1[ebp], 0
  00033	eb 09		 jmp	 SHORT $LN4@Init
$LN2@Init:
  00035	8b 45 f8	 mov	 eax, DWORD PTR _i$1[ebp]
  00038	83 c0 01	 add	 eax, 1
  0003b	89 45 f8	 mov	 DWORD PTR _i$1[ebp], eax
$LN4@Init:
  0003e	81 7d f8 c8 00
	00 00		 cmp	 DWORD PTR _i$1[ebp], 200 ; 000000c8H
  00045	7d 29		 jge	 SHORT $LN1@Init

; 71   : 	{
; 72   : 		QuestInfo[i].QuestConditionCount = 0;

  00047	69 45 f8 30 04
	00 00		 imul	 eax, DWORD PTR _i$1[ebp], 1072
  0004e	8b 4d fc	 mov	 ecx, DWORD PTR _this$[ebp]
  00051	c7 84 01 1c 03
	00 00 00 00 00
	00		 mov	 DWORD PTR [ecx+eax+796], 0

; 73   : 		QuestInfo[i].QuestSubInfoCount = 0;

  0005c	69 45 f8 30 04
	00 00		 imul	 eax, DWORD PTR _i$1[ebp], 1072
  00063	8b 4d fc	 mov	 ecx, DWORD PTR _this$[ebp]
  00066	c7 44 01 48 00
	00 00 00	 mov	 DWORD PTR [ecx+eax+72], 0

; 74   : 	}

  0006e	eb c5		 jmp	 SHORT $LN2@Init
$LN1@Init:

; 75   : }

  00070	5f		 pop	 edi
  00071	5e		 pop	 esi
  00072	5b		 pop	 ebx
  00073	8b e5		 mov	 esp, ebp
  00075	5d		 pop	 ebp
  00076	c3		 ret	 0
?Init@CQuestInfo@@QAEXXZ ENDP				; CQuestInfo::Init
_TEXT	ENDS
; Function compile flags: /Odtp /ZI
; File C:\Mu Online\Mu-GS-Webzen-MC-10093\GameServer\QuestInfo.cpp
;	COMDAT ??1CQuestInfo@@UAE@XZ
_TEXT	SEGMENT
_this$ = -4						; size = 4
??1CQuestInfo@@UAE@XZ PROC				; CQuestInfo::~CQuestInfo, COMDAT
; _this$ = ecx

; 62   : {

  00000	55		 push	 ebp
  00001	8b ec		 mov	 ebp, esp
  00003	83 ec 44	 sub	 esp, 68			; 00000044H
  00006	53		 push	 ebx
  00007	56		 push	 esi
  00008	57		 push	 edi
  00009	89 4d fc	 mov	 DWORD PTR _this$[ebp], ecx
  0000c	8b 45 fc	 mov	 eax, DWORD PTR _this$[ebp]
  0000f	c7 00 00 00 00
	00		 mov	 DWORD PTR [eax], OFFSET ??_7CQuestInfo@@6B@

; 63   : 
; 64   : }

  00015	5f		 pop	 edi
  00016	5e		 pop	 esi
  00017	5b		 pop	 ebx
  00018	8b e5		 mov	 esp, ebp
  0001a	5d		 pop	 ebp
  0001b	c3		 ret	 0
??1CQuestInfo@@UAE@XZ ENDP				; CQuestInfo::~CQuestInfo
_TEXT	ENDS
; Function compile flags: /Odtp /ZI
; File C:\Mu Online\Mu-GS-Webzen-MC-10093\GameServer\QuestInfo.cpp
;	COMDAT ??0CQuestInfo@@QAE@XZ
_TEXT	SEGMENT
_this$ = -4						; size = 4
??0CQuestInfo@@QAE@XZ PROC				; CQuestInfo::CQuestInfo, COMDAT
; _this$ = ecx

; 47   : {

  00000	55		 push	 ebp
  00001	8b ec		 mov	 ebp, esp
  00003	83 ec 44	 sub	 esp, 68			; 00000044H
  00006	53		 push	 ebx
  00007	56		 push	 esi
  00008	57		 push	 edi
  00009	89 4d fc	 mov	 DWORD PTR _this$[ebp], ecx
  0000c	8b 45 fc	 mov	 eax, DWORD PTR _this$[ebp]
  0000f	c7 00 00 00 00
	00		 mov	 DWORD PTR [eax], OFFSET ??_7CQuestInfo@@6B@

; 48   : 	QuestBitMask[0] = 0xFC;

  00015	b8 01 00 00 00	 mov	 eax, 1
  0001a	6b c8 00	 imul	 ecx, eax, 0
  0001d	c6 81 00 00 00
	00 fc		 mov	 BYTE PTR ?QuestBitMask@@3PAEA[ecx], 252 ; 000000fcH

; 49   : 	QuestBitMask[1] = 0xFC;

  00024	b8 01 00 00 00	 mov	 eax, 1
  00029	c1 e0 00	 shl	 eax, 0
  0002c	c6 80 00 00 00
	00 fc		 mov	 BYTE PTR ?QuestBitMask@@3PAEA[eax], 252 ; 000000fcH

; 50   : 	QuestBitMask[2] = 0xF3;

  00033	b8 01 00 00 00	 mov	 eax, 1
  00038	d1 e0		 shl	 eax, 1
  0003a	c6 80 00 00 00
	00 f3		 mov	 BYTE PTR ?QuestBitMask@@3PAEA[eax], 243 ; 000000f3H

; 51   : 	QuestBitMask[3] = 0xF3;

  00041	b8 01 00 00 00	 mov	 eax, 1
  00046	6b c8 03	 imul	 ecx, eax, 3
  00049	c6 81 00 00 00
	00 f3		 mov	 BYTE PTR ?QuestBitMask@@3PAEA[ecx], 243 ; 000000f3H

; 52   : 
; 53   : 	QuestBitMask[4] = 0xCF;

  00050	b8 01 00 00 00	 mov	 eax, 1
  00055	c1 e0 02	 shl	 eax, 2
  00058	c6 80 00 00 00
	00 cf		 mov	 BYTE PTR ?QuestBitMask@@3PAEA[eax], 207 ; 000000cfH

; 54   : 	QuestBitMask[5] = 0xCF;

  0005f	b8 01 00 00 00	 mov	 eax, 1
  00064	6b c8 05	 imul	 ecx, eax, 5
  00067	c6 81 00 00 00
	00 cf		 mov	 BYTE PTR ?QuestBitMask@@3PAEA[ecx], 207 ; 000000cfH

; 55   : 	QuestBitMask[6] = 0x3F;

  0006e	b8 01 00 00 00	 mov	 eax, 1
  00073	6b c8 06	 imul	 ecx, eax, 6
  00076	c6 81 00 00 00
	00 3f		 mov	 BYTE PTR ?QuestBitMask@@3PAEA[ecx], 63 ; 0000003fH

; 56   : 	QuestBitMask[7] = 0x3F;

  0007d	b8 01 00 00 00	 mov	 eax, 1
  00082	6b c8 07	 imul	 ecx, eax, 7
  00085	c6 81 00 00 00
	00 3f		 mov	 BYTE PTR ?QuestBitMask@@3PAEA[ecx], 63 ; 0000003fH

; 57   : 
; 58   : 	Init();

  0008c	8b 4d fc	 mov	 ecx, DWORD PTR _this$[ebp]
  0008f	e8 00 00 00 00	 call	 ?Init@CQuestInfo@@QAEXXZ ; CQuestInfo::Init

; 59   : }

  00094	8b 45 fc	 mov	 eax, DWORD PTR _this$[ebp]
  00097	5f		 pop	 edi
  00098	5e		 pop	 esi
  00099	5b		 pop	 ebx
  0009a	8b e5		 mov	 esp, ebp
  0009c	5d		 pop	 ebp
  0009d	c3		 ret	 0
??0CQuestInfo@@QAE@XZ ENDP				; CQuestInfo::CQuestInfo
_TEXT	ENDS
; Function compile flags: /Odtp /ZI
; File C:\Mu Online\Mu-GS-Webzen-MC-10093\Include\Readscript.h
;	COMDAT ?GetToken@@YA?AW4SMDToken@@XZ
_TEXT	SEGMENT
tv93 = -184						; size = 4
$T1 = -180						; size = 4
_TempString$ = -112					; size = 100
_p$ = -12						; size = 4
_ch$ = -5						; size = 1
__$ArrayPad$ = -4					; size = 4
?GetToken@@YA?AW4SMDToken@@XZ PROC			; GetToken, COMDAT

; 25   : {

  00000	55		 push	 ebp
  00001	8b ec		 mov	 ebp, esp
  00003	81 ec b8 00 00
	00		 sub	 esp, 184		; 000000b8H
  00009	a1 00 00 00 00	 mov	 eax, DWORD PTR ___security_cookie
  0000e	33 c5		 xor	 eax, ebp
  00010	89 45 fc	 mov	 DWORD PTR __$ArrayPad$[ebp], eax
  00013	53		 push	 ebx
  00014	56		 push	 esi
  00015	57		 push	 edi

; 26   : 	unsigned char ch;
; 27   : 	TokenString[0] = '\0';

  00016	b8 01 00 00 00	 mov	 eax, 1
  0001b	6b c8 00	 imul	 ecx, eax, 0
  0001e	89 8d 4c ff ff
	ff		 mov	 DWORD PTR $T1[ebp], ecx
  00024	83 bd 4c ff ff
	ff 64		 cmp	 DWORD PTR $T1[ebp], 100	; 00000064H
  0002b	73 02		 jae	 SHORT $LN31@GetToken
  0002d	eb 05		 jmp	 SHORT $LN32@GetToken
$LN31@GetToken:
  0002f	e8 00 00 00 00	 call	 ___report_rangecheckfailure
$LN32@GetToken:
  00034	8b 95 4c ff ff
	ff		 mov	 edx, DWORD PTR $T1[ebp]
  0003a	c6 82 00 00 00
	00 00		 mov	 BYTE PTR ?TokenString@@3PADA[edx], 0
$LN4@GetToken:

; 28   : 	do
; 29   : 	{
; 30   : 		if ( (ch =(unsigned char) fgetc(SMDFile)) == (BYTE)EOF) return END;

  00041	a1 00 00 00 00	 mov	 eax, DWORD PTR ?SMDFile@@3PAU_iobuf@@A
  00046	50		 push	 eax
  00047	e8 00 00 00 00	 call	 _fgetc
  0004c	83 c4 04	 add	 esp, 4
  0004f	88 45 fb	 mov	 BYTE PTR _ch$[ebp], al
  00052	0f b6 4d fb	 movzx	 ecx, BYTE PTR _ch$[ebp]
  00056	81 f9 ff 00 00
	00		 cmp	 ecx, 255		; 000000ffH
  0005c	75 0a		 jne	 SHORT $LN15@GetToken
  0005e	b8 02 00 00 00	 mov	 eax, 2
  00063	e9 d9 02 00 00	 jmp	 $LN7@GetToken
$LN15@GetToken:

; 31   : 		if (ch=='/' && (ch =(unsigned char) fgetc(SMDFile) )=='/')	

  00068	0f b6 45 fb	 movzx	 eax, BYTE PTR _ch$[ebp]
  0006c	83 f8 2f	 cmp	 eax, 47			; 0000002fH
  0006f	75 56		 jne	 SHORT $LN17@GetToken
  00071	a1 00 00 00 00	 mov	 eax, DWORD PTR ?SMDFile@@3PAU_iobuf@@A
  00076	50		 push	 eax
  00077	e8 00 00 00 00	 call	 _fgetc
  0007c	83 c4 04	 add	 esp, 4
  0007f	88 45 fb	 mov	 BYTE PTR _ch$[ebp], al
  00082	0f b6 4d fb	 movzx	 ecx, BYTE PTR _ch$[ebp]
  00086	83 f9 2f	 cmp	 ecx, 47			; 0000002fH
  00089	75 3c		 jne	 SHORT $LN17@GetToken
$LN5@GetToken:

; 32   : 		{
; 33   : 			while((ch != '\n') && (ch != (BYTE)EOF)) {			// 2003.09.02 H.J.I 수정

  0008b	0f b6 45 fb	 movzx	 eax, BYTE PTR _ch$[ebp]
  0008f	83 f8 0a	 cmp	 eax, 10			; 0000000aH
  00092	74 1e		 je	 SHORT $LN6@GetToken
  00094	0f b6 45 fb	 movzx	 eax, BYTE PTR _ch$[ebp]
  00098	3d ff 00 00 00	 cmp	 eax, 255		; 000000ffH
  0009d	74 13		 je	 SHORT $LN6@GetToken

; 34   : 				ch = (unsigned char) fgetc( SMDFile);

  0009f	a1 00 00 00 00	 mov	 eax, DWORD PTR ?SMDFile@@3PAU_iobuf@@A
  000a4	50		 push	 eax
  000a5	e8 00 00 00 00	 call	 _fgetc
  000aa	83 c4 04	 add	 esp, 4
  000ad	88 45 fb	 mov	 BYTE PTR _ch$[ebp], al

; 35   : 			}

  000b0	eb d9		 jmp	 SHORT $LN5@GetToken
$LN6@GetToken:

; 36   : 
; 37   : 			if (ch == (BYTE)EOF)

  000b2	0f b6 45 fb	 movzx	 eax, BYTE PTR _ch$[ebp]
  000b6	3d ff 00 00 00	 cmp	 eax, 255		; 000000ffH
  000bb	75 0a		 jne	 SHORT $LN17@GetToken

; 38   : 				return END;

  000bd	b8 02 00 00 00	 mov	 eax, 2
  000c2	e9 7a 02 00 00	 jmp	 $LN7@GetToken
$LN17@GetToken:

; 39   : 		}
; 40   : 	} while(  isspace(ch) );

  000c7	0f b6 45 fb	 movzx	 eax, BYTE PTR _ch$[ebp]
  000cb	50		 push	 eax
  000cc	e8 00 00 00 00	 call	 _isspace
  000d1	83 c4 04	 add	 esp, 4
  000d4	85 c0		 test	 eax, eax
  000d6	0f 85 65 ff ff
	ff		 jne	 $LN4@GetToken

; 41   : 	
; 42   : 	char *p, TempString[100];
; 43   : 	switch(ch)

  000dc	0f b6 45 fb	 movzx	 eax, BYTE PTR _ch$[ebp]
  000e0	89 85 48 ff ff
	ff		 mov	 DWORD PTR tv93[ebp], eax
  000e6	8b 8d 48 ff ff
	ff		 mov	 ecx, DWORD PTR tv93[ebp]
  000ec	83 e9 22	 sub	 ecx, 34			; 00000022H
  000ef	89 8d 48 ff ff
	ff		 mov	 DWORD PTR tv93[ebp], ecx
  000f5	83 bd 48 ff ff
	ff 5b		 cmp	 DWORD PTR tv93[ebp], 91	; 0000005bH
  000fc	0f 87 86 01 00
	00		 ja	 $LN27@GetToken
  00102	8b 95 48 ff ff
	ff		 mov	 edx, DWORD PTR tv93[ebp]
  00108	0f b6 82 00 00
	00 00		 movzx	 eax, BYTE PTR $LN33@GetToken[edx]
  0010f	ff 24 85 00 00
	00 00		 jmp	 DWORD PTR $LN34@GetToken[eax*4]
$LN18@GetToken:

; 44   : 	{	
; 45   : 	case '#':
; 46   : 		return CurrentToken = COMMAND;

  00116	c7 05 00 00 00
	00 23 00 00 00	 mov	 DWORD PTR ?CurrentToken@@3W4SMDToken@@A, 35 ; 00000023H
  00120	a1 00 00 00 00	 mov	 eax, DWORD PTR ?CurrentToken@@3W4SMDToken@@A
  00125	e9 17 02 00 00	 jmp	 $LN7@GetToken
$LN19@GetToken:

; 47   : 	case ';':
; 48   : 		return CurrentToken = SEMICOLON;

  0012a	c7 05 00 00 00
	00 3b 00 00 00	 mov	 DWORD PTR ?CurrentToken@@3W4SMDToken@@A, 59 ; 0000003bH
  00134	a1 00 00 00 00	 mov	 eax, DWORD PTR ?CurrentToken@@3W4SMDToken@@A
  00139	e9 03 02 00 00	 jmp	 $LN7@GetToken
$LN20@GetToken:

; 49   : 	case ',':
; 50   : 		return CurrentToken = COMMA;

  0013e	c7 05 00 00 00
	00 2c 00 00 00	 mov	 DWORD PTR ?CurrentToken@@3W4SMDToken@@A, 44 ; 0000002cH
  00148	a1 00 00 00 00	 mov	 eax, DWORD PTR ?CurrentToken@@3W4SMDToken@@A
  0014d	e9 ef 01 00 00	 jmp	 $LN7@GetToken
$LN21@GetToken:

; 51   : 	case '{':
; 52   : 		return CurrentToken = LP;

  00152	c7 05 00 00 00
	00 7b 00 00 00	 mov	 DWORD PTR ?CurrentToken@@3W4SMDToken@@A, 123 ; 0000007bH
  0015c	a1 00 00 00 00	 mov	 eax, DWORD PTR ?CurrentToken@@3W4SMDToken@@A
  00161	e9 db 01 00 00	 jmp	 $LN7@GetToken
$LN22@GetToken:

; 53   : 	case '}':
; 54   : 		return CurrentToken = RP;

  00166	c7 05 00 00 00
	00 7d 00 00 00	 mov	 DWORD PTR ?CurrentToken@@3W4SMDToken@@A, 125 ; 0000007dH
  00170	a1 00 00 00 00	 mov	 eax, DWORD PTR ?CurrentToken@@3W4SMDToken@@A
  00175	e9 c7 01 00 00	 jmp	 $LN7@GetToken
$LN23@GetToken:

; 55   : 	case '0':	case '1':	case '2':	case '3':	case '4':
; 56   : 	case '5':	case '6':	case '7':	case '8':	case '9':
; 57   : 	case '.':	case '-':
; 58   : 		ungetc(ch,SMDFile);

  0017a	a1 00 00 00 00	 mov	 eax, DWORD PTR ?SMDFile@@3PAU_iobuf@@A
  0017f	50		 push	 eax
  00180	0f b6 4d fb	 movzx	 ecx, BYTE PTR _ch$[ebp]
  00184	51		 push	 ecx
  00185	e8 00 00 00 00	 call	 _ungetc
  0018a	83 c4 08	 add	 esp, 8

; 59   : 		p = TempString;

  0018d	8d 45 90	 lea	 eax, DWORD PTR _TempString$[ebp]
  00190	89 45 f4	 mov	 DWORD PTR _p$[ebp], eax
$LN9@GetToken:

; 60   : 		while ( (  (ch = getc(SMDFile) ) !=(BYTE)EOF) && (ch=='.' || isdigit(ch) || ch=='-') )

  00193	a1 00 00 00 00	 mov	 eax, DWORD PTR ?SMDFile@@3PAU_iobuf@@A
  00198	50		 push	 eax
  00199	e8 00 00 00 00	 call	 _getc
  0019e	83 c4 04	 add	 esp, 4
  001a1	88 45 fb	 mov	 BYTE PTR _ch$[ebp], al
  001a4	0f b6 4d fb	 movzx	 ecx, BYTE PTR _ch$[ebp]
  001a8	81 f9 ff 00 00
	00		 cmp	 ecx, 255		; 000000ffH
  001ae	74 36		 je	 SHORT $LN10@GetToken
  001b0	0f b6 45 fb	 movzx	 eax, BYTE PTR _ch$[ebp]
  001b4	83 f8 2e	 cmp	 eax, 46			; 0000002eH
  001b7	74 1a		 je	 SHORT $LN24@GetToken
  001b9	0f b6 45 fb	 movzx	 eax, BYTE PTR _ch$[ebp]
  001bd	50		 push	 eax
  001be	e8 00 00 00 00	 call	 _isdigit
  001c3	83 c4 04	 add	 esp, 4
  001c6	85 c0		 test	 eax, eax
  001c8	75 09		 jne	 SHORT $LN24@GetToken
  001ca	0f b6 45 fb	 movzx	 eax, BYTE PTR _ch$[ebp]
  001ce	83 f8 2d	 cmp	 eax, 45			; 0000002dH
  001d1	75 13		 jne	 SHORT $LN10@GetToken
$LN24@GetToken:

; 61   : 			*p++ = ch;

  001d3	8b 45 f4	 mov	 eax, DWORD PTR _p$[ebp]
  001d6	8a 4d fb	 mov	 cl, BYTE PTR _ch$[ebp]
  001d9	88 08		 mov	 BYTE PTR [eax], cl
  001db	8b 55 f4	 mov	 edx, DWORD PTR _p$[ebp]
  001de	83 c2 01	 add	 edx, 1
  001e1	89 55 f4	 mov	 DWORD PTR _p$[ebp], edx
  001e4	eb ad		 jmp	 SHORT $LN9@GetToken
$LN10@GetToken:

; 62   : 		*p = 0;

  001e6	8b 45 f4	 mov	 eax, DWORD PTR _p$[ebp]
  001e9	c6 00 00	 mov	 BYTE PTR [eax], 0

; 63   : 		TokenNumber = (float)atof(TempString);

  001ec	8d 45 90	 lea	 eax, DWORD PTR _TempString$[ebp]
  001ef	50		 push	 eax
  001f0	e8 00 00 00 00	 call	 _atof
  001f5	83 c4 04	 add	 esp, 4
  001f8	d9 1d 00 00 00
	00		 fstp	 DWORD PTR ?TokenNumber@@3MA

; 64   : 		//			sscanf(TempString," %f ",&TokenNumber);
; 65   : 		return CurrentToken = NUMBER;

  001fe	c7 05 00 00 00
	00 01 00 00 00	 mov	 DWORD PTR ?CurrentToken@@3W4SMDToken@@A, 1
  00208	a1 00 00 00 00	 mov	 eax, DWORD PTR ?CurrentToken@@3W4SMDToken@@A
  0020d	e9 2f 01 00 00	 jmp	 $LN7@GetToken
$LN25@GetToken:

; 66   : 	case '"':
; 67   : 		p = TokenString;

  00212	c7 45 f4 00 00
	00 00		 mov	 DWORD PTR _p$[ebp], OFFSET ?TokenString@@3PADA
$LN11@GetToken:

; 68   : 		while ( (  (ch = getc(SMDFile) ) !=(BYTE)EOF) && (ch!='"'))// || isalnum(ch)) )

  00219	a1 00 00 00 00	 mov	 eax, DWORD PTR ?SMDFile@@3PAU_iobuf@@A
  0021e	50		 push	 eax
  0021f	e8 00 00 00 00	 call	 _getc
  00224	83 c4 04	 add	 esp, 4
  00227	88 45 fb	 mov	 BYTE PTR _ch$[ebp], al
  0022a	0f b6 4d fb	 movzx	 ecx, BYTE PTR _ch$[ebp]
  0022e	81 f9 ff 00 00
	00		 cmp	 ecx, 255		; 000000ffH
  00234	74 1c		 je	 SHORT $LN12@GetToken
  00236	0f b6 45 fb	 movzx	 eax, BYTE PTR _ch$[ebp]
  0023a	83 f8 22	 cmp	 eax, 34			; 00000022H
  0023d	74 13		 je	 SHORT $LN12@GetToken

; 69   : 			*p++ = ch;

  0023f	8b 45 f4	 mov	 eax, DWORD PTR _p$[ebp]
  00242	8a 4d fb	 mov	 cl, BYTE PTR _ch$[ebp]
  00245	88 08		 mov	 BYTE PTR [eax], cl
  00247	8b 55 f4	 mov	 edx, DWORD PTR _p$[ebp]
  0024a	83 c2 01	 add	 edx, 1
  0024d	89 55 f4	 mov	 DWORD PTR _p$[ebp], edx
  00250	eb c7		 jmp	 SHORT $LN11@GetToken
$LN12@GetToken:

; 70   : 		if (ch!='"')

  00252	0f b6 45 fb	 movzx	 eax, BYTE PTR _ch$[ebp]
  00256	83 f8 22	 cmp	 eax, 34			; 00000022H
  00259	74 13		 je	 SHORT $LN26@GetToken

; 71   : 			ungetc(ch,SMDFile);

  0025b	a1 00 00 00 00	 mov	 eax, DWORD PTR ?SMDFile@@3PAU_iobuf@@A
  00260	50		 push	 eax
  00261	0f b6 4d fb	 movzx	 ecx, BYTE PTR _ch$[ebp]
  00265	51		 push	 ecx
  00266	e8 00 00 00 00	 call	 _ungetc
  0026b	83 c4 08	 add	 esp, 8
$LN26@GetToken:

; 72   : 		*p = 0;

  0026e	8b 45 f4	 mov	 eax, DWORD PTR _p$[ebp]
  00271	c6 00 00	 mov	 BYTE PTR [eax], 0

; 73   : 		return CurrentToken = NAME;

  00274	c7 05 00 00 00
	00 00 00 00 00	 mov	 DWORD PTR ?CurrentToken@@3W4SMDToken@@A, 0
  0027e	a1 00 00 00 00	 mov	 eax, DWORD PTR ?CurrentToken@@3W4SMDToken@@A
  00283	e9 b9 00 00 00	 jmp	 $LN7@GetToken
$LN27@GetToken:

; 74   : 	default:
; 75   : 		if (isalpha(ch))	

  00288	0f b6 45 fb	 movzx	 eax, BYTE PTR _ch$[ebp]
  0028c	50		 push	 eax
  0028d	e8 00 00 00 00	 call	 _isalpha
  00292	83 c4 04	 add	 esp, 4
  00295	85 c0		 test	 eax, eax
  00297	0f 84 95 00 00
	00		 je	 $LN28@GetToken

; 76   : 		{
; 77   : 			p = TokenString;

  0029d	c7 45 f4 00 00
	00 00		 mov	 DWORD PTR _p$[ebp], OFFSET ?TokenString@@3PADA

; 78   : 			*p++ = ch;

  002a4	8b 45 f4	 mov	 eax, DWORD PTR _p$[ebp]
  002a7	8a 4d fb	 mov	 cl, BYTE PTR _ch$[ebp]
  002aa	88 08		 mov	 BYTE PTR [eax], cl
  002ac	8b 55 f4	 mov	 edx, DWORD PTR _p$[ebp]
  002af	83 c2 01	 add	 edx, 1
  002b2	89 55 f4	 mov	 DWORD PTR _p$[ebp], edx
$LN13@GetToken:

; 79   : 			while ( (  (ch = getc(SMDFile) ) !=(BYTE)EOF) && (ch=='.' || ch=='_' || isalnum(ch)) )

  002b5	a1 00 00 00 00	 mov	 eax, DWORD PTR ?SMDFile@@3PAU_iobuf@@A
  002ba	50		 push	 eax
  002bb	e8 00 00 00 00	 call	 _getc
  002c0	83 c4 04	 add	 esp, 4
  002c3	88 45 fb	 mov	 BYTE PTR _ch$[ebp], al
  002c6	0f b6 4d fb	 movzx	 ecx, BYTE PTR _ch$[ebp]
  002ca	81 f9 ff 00 00
	00		 cmp	 ecx, 255		; 000000ffH
  002d0	74 36		 je	 SHORT $LN14@GetToken
  002d2	0f b6 45 fb	 movzx	 eax, BYTE PTR _ch$[ebp]
  002d6	83 f8 2e	 cmp	 eax, 46			; 0000002eH
  002d9	74 1a		 je	 SHORT $LN29@GetToken
  002db	0f b6 45 fb	 movzx	 eax, BYTE PTR _ch$[ebp]
  002df	83 f8 5f	 cmp	 eax, 95			; 0000005fH
  002e2	74 11		 je	 SHORT $LN29@GetToken
  002e4	0f b6 45 fb	 movzx	 eax, BYTE PTR _ch$[ebp]
  002e8	50		 push	 eax
  002e9	e8 00 00 00 00	 call	 _isalnum
  002ee	83 c4 04	 add	 esp, 4
  002f1	85 c0		 test	 eax, eax
  002f3	74 13		 je	 SHORT $LN14@GetToken
$LN29@GetToken:

; 80   : 				*p++ = ch;

  002f5	8b 45 f4	 mov	 eax, DWORD PTR _p$[ebp]
  002f8	8a 4d fb	 mov	 cl, BYTE PTR _ch$[ebp]
  002fb	88 08		 mov	 BYTE PTR [eax], cl
  002fd	8b 55 f4	 mov	 edx, DWORD PTR _p$[ebp]
  00300	83 c2 01	 add	 edx, 1
  00303	89 55 f4	 mov	 DWORD PTR _p$[ebp], edx
  00306	eb ad		 jmp	 SHORT $LN13@GetToken
$LN14@GetToken:

; 81   : 			ungetc(ch,SMDFile);

  00308	a1 00 00 00 00	 mov	 eax, DWORD PTR ?SMDFile@@3PAU_iobuf@@A
  0030d	50		 push	 eax
  0030e	0f b6 4d fb	 movzx	 ecx, BYTE PTR _ch$[ebp]
  00312	51		 push	 ecx
  00313	e8 00 00 00 00	 call	 _ungetc
  00318	83 c4 08	 add	 esp, 8

; 82   : 			*p = 0;

  0031b	8b 45 f4	 mov	 eax, DWORD PTR _p$[ebp]
  0031e	c6 00 00	 mov	 BYTE PTR [eax], 0

; 83   : 			return CurrentToken = NAME;

  00321	c7 05 00 00 00
	00 00 00 00 00	 mov	 DWORD PTR ?CurrentToken@@3W4SMDToken@@A, 0
  0032b	a1 00 00 00 00	 mov	 eax, DWORD PTR ?CurrentToken@@3W4SMDToken@@A
  00330	eb 0f		 jmp	 SHORT $LN7@GetToken
$LN28@GetToken:

; 84   : 		}
; 85   : 		return CurrentToken = SMD_ERROR;

  00332	c7 05 00 00 00
	00 3c 00 00 00	 mov	 DWORD PTR ?CurrentToken@@3W4SMDToken@@A, 60 ; 0000003cH
  0033c	a1 00 00 00 00	 mov	 eax, DWORD PTR ?CurrentToken@@3W4SMDToken@@A
$LN7@GetToken:

; 86   : 	}
; 87   : }

  00341	5f		 pop	 edi
  00342	5e		 pop	 esi
  00343	5b		 pop	 ebx
  00344	8b 4d fc	 mov	 ecx, DWORD PTR __$ArrayPad$[ebp]
  00347	33 cd		 xor	 ecx, ebp
  00349	e8 00 00 00 00	 call	 @__security_check_cookie@4
  0034e	8b e5		 mov	 esp, ebp
  00350	5d		 pop	 ebp
  00351	c3		 ret	 0
  00352	66 90		 npad	 2
$LN34@GetToken:
  00354	00 00 00 00	 DD	 $LN25@GetToken
  00358	00 00 00 00	 DD	 $LN18@GetToken
  0035c	00 00 00 00	 DD	 $LN20@GetToken
  00360	00 00 00 00	 DD	 $LN23@GetToken
  00364	00 00 00 00	 DD	 $LN19@GetToken
  00368	00 00 00 00	 DD	 $LN21@GetToken
  0036c	00 00 00 00	 DD	 $LN22@GetToken
  00370	00 00 00 00	 DD	 $LN27@GetToken
$LN33@GetToken:
  00374	00		 DB	 0
  00375	01		 DB	 1
  00376	07		 DB	 7
  00377	07		 DB	 7
  00378	07		 DB	 7
  00379	07		 DB	 7
  0037a	07		 DB	 7
  0037b	07		 DB	 7
  0037c	07		 DB	 7
  0037d	07		 DB	 7
  0037e	02		 DB	 2
  0037f	03		 DB	 3
  00380	03		 DB	 3
  00381	07		 DB	 7
  00382	03		 DB	 3
  00383	03		 DB	 3
  00384	03		 DB	 3
  00385	03		 DB	 3
  00386	03		 DB	 3
  00387	03		 DB	 3
  00388	03		 DB	 3
  00389	03		 DB	 3
  0038a	03		 DB	 3
  0038b	03		 DB	 3
  0038c	07		 DB	 7
  0038d	04		 DB	 4
  0038e	07		 DB	 7
  0038f	07		 DB	 7
  00390	07		 DB	 7
  00391	07		 DB	 7
  00392	07		 DB	 7
  00393	07		 DB	 7
  00394	07		 DB	 7
  00395	07		 DB	 7
  00396	07		 DB	 7
  00397	07		 DB	 7
  00398	07		 DB	 7
  00399	07		 DB	 7
  0039a	07		 DB	 7
  0039b	07		 DB	 7
  0039c	07		 DB	 7
  0039d	07		 DB	 7
  0039e	07		 DB	 7
  0039f	07		 DB	 7
  003a0	07		 DB	 7
  003a1	07		 DB	 7
  003a2	07		 DB	 7
  003a3	07		 DB	 7
  003a4	07		 DB	 7
  003a5	07		 DB	 7
  003a6	07		 DB	 7
  003a7	07		 DB	 7
  003a8	07		 DB	 7
  003a9	07		 DB	 7
  003aa	07		 DB	 7
  003ab	07		 DB	 7
  003ac	07		 DB	 7
  003ad	07		 DB	 7
  003ae	07		 DB	 7
  003af	07		 DB	 7
  003b0	07		 DB	 7
  003b1	07		 DB	 7
  003b2	07		 DB	 7
  003b3	07		 DB	 7
  003b4	07		 DB	 7
  003b5	07		 DB	 7
  003b6	07		 DB	 7
  003b7	07		 DB	 7
  003b8	07		 DB	 7
  003b9	07		 DB	 7
  003ba	07		 DB	 7
  003bb	07		 DB	 7
  003bc	07		 DB	 7
  003bd	07		 DB	 7
  003be	07		 DB	 7
  003bf	07		 DB	 7
  003c0	07		 DB	 7
  003c1	07		 DB	 7
  003c2	07		 DB	 7
  003c3	07		 DB	 7
  003c4	07		 DB	 7
  003c5	07		 DB	 7
  003c6	07		 DB	 7
  003c7	07		 DB	 7
  003c8	07		 DB	 7
  003c9	07		 DB	 7
  003ca	07		 DB	 7
  003cb	07		 DB	 7
  003cc	07		 DB	 7
  003cd	05		 DB	 5
  003ce	07		 DB	 7
  003cf	06		 DB	 6
?GetToken@@YA?AW4SMDToken@@XZ ENDP			; GetToken
_TEXT	ENDS
; Function compile flags: /Odtp /ZI
; File C:\Mu Online\Mu-GS-Webzen-MC-10093\GameServer\QuestInfo.cpp
;	COMDAT ?__empty_global_delete@@YAXPAXI@Z
_TEXT	SEGMENT
___formal$ = 8						; size = 4
___formal$ = 12						; size = 4
?__empty_global_delete@@YAXPAXI@Z PROC			; __empty_global_delete, COMDAT

  00000	55		 push	 ebp
  00001	8b ec		 mov	 ebp, esp
  00003	83 ec 40	 sub	 esp, 64			; 00000040H
  00006	53		 push	 ebx
  00007	56		 push	 esi
  00008	57		 push	 edi
  00009	5f		 pop	 edi
  0000a	5e		 pop	 esi
  0000b	5b		 pop	 ebx
  0000c	8b e5		 mov	 esp, ebp
  0000e	5d		 pop	 ebp
  0000f	c3		 ret	 0
?__empty_global_delete@@YAXPAXI@Z ENDP			; __empty_global_delete
_TEXT	ENDS
; Function compile flags: /Odtp /ZI
; File C:\Mu Online\Mu-GS-Webzen-MC-10093\GameServer\QuestInfo.cpp
;	COMDAT ?__empty_global_delete@@YAXPAX@Z
_TEXT	SEGMENT
___formal$ = 8						; size = 4
?__empty_global_delete@@YAXPAX@Z PROC			; __empty_global_delete, COMDAT

  00000	55		 push	 ebp
  00001	8b ec		 mov	 ebp, esp
  00003	83 ec 40	 sub	 esp, 64			; 00000040H
  00006	53		 push	 ebx
  00007	56		 push	 esi
  00008	57		 push	 edi
  00009	5f		 pop	 edi
  0000a	5e		 pop	 esi
  0000b	5b		 pop	 ebx
  0000c	8b e5		 mov	 esp, ebp
  0000e	5d		 pop	 ebp
  0000f	c3		 ret	 0
?__empty_global_delete@@YAXPAX@Z ENDP			; __empty_global_delete
_TEXT	ENDS
END
