; Listing generated by Microsoft (R) Optimizing Compiler Version 19.27.29111.0 

	TITLE	C:\Mu Online\Mu-GS-Webzen-MC-10093\GameServer\RingAttackEvent.cpp
	.686P
	.XMM
	include listing.inc
	.model	flat

INCLUDELIB LIBCMT
INCLUDELIB OLDNAMES

PUBLIC	?__empty_global_delete@@YAXPAX@Z		; __empty_global_delete
PUBLIC	?__empty_global_delete@@YAXPAXI@Z		; __empty_global_delete
PUBLIC	??2@YAPAXIPAX@Z					; operator new
PUBLIC	??0exception@std@@QAE@QBDH@Z			; std::exception::exception
PUBLIC	??0exception@std@@QAE@ABV01@@Z			; std::exception::exception
PUBLIC	??1exception@std@@UAE@XZ			; std::exception::~exception
PUBLIC	?what@exception@std@@UBEPBDXZ			; std::exception::what
PUBLIC	??_Gexception@std@@UAEPAXI@Z			; std::exception::`scalar deleting destructor'
PUBLIC	??0bad_alloc@std@@AAE@QBD@Z			; std::bad_alloc::bad_alloc
PUBLIC	??1bad_alloc@std@@UAE@XZ			; std::bad_alloc::~bad_alloc
PUBLIC	??0bad_alloc@std@@QAE@ABV01@@Z			; std::bad_alloc::bad_alloc
PUBLIC	??_Gbad_alloc@std@@UAEPAXI@Z			; std::bad_alloc::`scalar deleting destructor'
PUBLIC	??0bad_array_new_length@std@@QAE@XZ		; std::bad_array_new_length::bad_array_new_length
PUBLIC	??1bad_array_new_length@std@@UAE@XZ		; std::bad_array_new_length::~bad_array_new_length
PUBLIC	??0bad_array_new_length@std@@QAE@ABV01@@Z	; std::bad_array_new_length::bad_array_new_length
PUBLIC	??_Gbad_array_new_length@std@@UAEPAXI@Z		; std::bad_array_new_length::`scalar deleting destructor'
PUBLIC	?_Throw_bad_array_new_length@std@@YAXXZ		; std::_Throw_bad_array_new_length
PUBLIC	?max@?$numeric_limits@H@std@@SAHXZ		; std::numeric_limits<int>::max
PUBLIC	?_Allocate@_Default_allocate_traits@std@@SAPAXI@Z ; std::_Default_allocate_traits::_Allocate
PUBLIC	?_Adjust_manually_vector_aligned@std@@YAXAAPAXAAI@Z ; std::_Adjust_manually_vector_aligned
PUBLIC	?_Orphan_all@_Container_base0@std@@QAEXXZ	; std::_Container_base0::_Orphan_all
PUBLIC	?_Alloc_proxy@_Container_base0@std@@QAEXABU_Fake_allocator@2@@Z ; std::_Container_base0::_Alloc_proxy
PUBLIC	?_Adopt@_Iterator_base0@std@@QAEXPBX@Z		; std::_Iterator_base0::_Adopt
PUBLIC	??R?$less@H@std@@QBE_NABH0@Z			; std::less<int>::operator()
PUBLIC	?GetMapName@CTerrainManager@@QAEPADH@Z		; CTerrainManager::GetMapName
PUBLIC	?end@?$_Tree@V?$_Tmap_traits@HU_TERRAIN_INFO@@U?$less@H@std@@V?$allocator@U?$pair@$$CBHU_TERRAIN_INFO@@@std@@@3@$0A@@std@@@std@@QAE?AV?$_Tree_iterator@V?$_Tree_val@U?$_Tree_simple_types@U?$pair@$$CBHU_TERRAIN_INFO@@@std@@@std@@@std@@@2@XZ ; std::_Tree<std::_Tmap_traits<int,_TERRAIN_INFO,std::less<int>,std::allocator<std::pair<int const ,_TERRAIN_INFO> >,0> >::end
PUBLIC	?find@?$_Tree@V?$_Tmap_traits@HU_TERRAIN_INFO@@U?$less@H@std@@V?$allocator@U?$pair@$$CBHU_TERRAIN_INFO@@@std@@@3@$0A@@std@@@std@@QAE?AV?$_Tree_iterator@V?$_Tree_val@U?$_Tree_simple_types@U?$pair@$$CBHU_TERRAIN_INFO@@@std@@@std@@@std@@@2@ABH@Z ; std::_Tree<std::_Tmap_traits<int,_TERRAIN_INFO,std::less<int>,std::allocator<std::pair<int const ,_TERRAIN_INFO> >,0> >::find
PUBLIC	?_Getcomp@?$_Tree@V?$_Tmap_traits@HU_TERRAIN_INFO@@U?$less@H@std@@V?$allocator@U?$pair@$$CBHU_TERRAIN_INFO@@@std@@@3@$0A@@std@@@std@@IBEABU?$less@H@2@XZ ; std::_Tree<std::_Tmap_traits<int,_TERRAIN_INFO,std::less<int>,std::allocator<std::pair<int const ,_TERRAIN_INFO> >,0> >::_Getcomp
PUBLIC	?_Get_scary@?$_Tree@V?$_Tmap_traits@HU_TERRAIN_INFO@@U?$less@H@std@@V?$allocator@U?$pair@$$CBHU_TERRAIN_INFO@@@std@@@3@$0A@@std@@@std@@IAEPAV?$_Tree_val@U?$_Tree_simple_types@U?$pair@$$CBHU_TERRAIN_INFO@@@std@@@std@@@2@XZ ; std::_Tree<std::_Tmap_traits<int,_TERRAIN_INFO,std::less<int>,std::allocator<std::pair<int const ,_TERRAIN_INFO> >,0> >::_Get_scary
PUBLIC	?_Get_scary@?$_Tree@V?$_Tmap_traits@HU_TERRAIN_INFO@@U?$less@H@std@@V?$allocator@U?$pair@$$CBHU_TERRAIN_INFO@@@std@@@3@$0A@@std@@@std@@IBEPBV?$_Tree_val@U?$_Tree_simple_types@U?$pair@$$CBHU_TERRAIN_INFO@@@std@@@std@@@2@XZ ; std::_Tree<std::_Tmap_traits<int,_TERRAIN_INFO,std::less<int>,std::allocator<std::pair<int const ,_TERRAIN_INFO> >,0> >::_Get_scary
PUBLIC	?_Get_first@?$_Compressed_pair@U?$less@H@std@@V?$_Compressed_pair@V?$allocator@U?$_Tree_node@U?$pair@$$CBHU_TERRAIN_INFO@@@std@@PAX@std@@@std@@V?$_Tree_val@U?$_Tree_simple_types@U?$pair@$$CBHU_TERRAIN_INFO@@@std@@@std@@@2@$00@2@$00@std@@QBEABU?$less@H@2@XZ ; std::_Compressed_pair<std::less<int>,std::_Compressed_pair<std::allocator<std::_Tree_node<std::pair<int const ,_TERRAIN_INFO>,void *> >,std::_Tree_val<std::_Tree_simple_types<std::pair<int const ,_TERRAIN_INFO> > >,1>,1>::_Get_first
PUBLIC	??0?$_Tree_unchecked_const_iterator@V?$_Tree_val@U?$_Tree_simple_types@U?$pair@$$CBHU_TERRAIN_INFO@@@std@@@std@@@std@@U_Iterator_base0@2@@std@@QAE@PAU?$_Tree_node@U?$pair@$$CBHU_TERRAIN_INFO@@@std@@PAX@1@PBV?$_Tree_val@U?$_Tree_simple_types@U?$pair@$$CBHU_TERRAIN_INFO@@@std@@@std@@@1@@Z ; std::_Tree_unchecked_const_iterator<std::_Tree_val<std::_Tree_simple_types<std::pair<int const ,_TERRAIN_INFO> > >,std::_Iterator_base0>::_Tree_unchecked_const_iterator<std::_Tree_val<std::_Tree_simple_types<std::pair<int const ,_TERRAIN_INFO> > >,std::_Iterator_base0>
PUBLIC	??D?$_Tree_const_iterator@V?$_Tree_val@U?$_Tree_simple_types@U?$pair@$$CBHU_TERRAIN_INFO@@@std@@@std@@@std@@@std@@QBEABU?$pair@$$CBHU_TERRAIN_INFO@@@1@XZ ; std::_Tree_const_iterator<std::_Tree_val<std::_Tree_simple_types<std::pair<int const ,_TERRAIN_INFO> > > >::operator*
PUBLIC	??8?$_Tree_const_iterator@V?$_Tree_val@U?$_Tree_simple_types@U?$pair@$$CBHU_TERRAIN_INFO@@@std@@@std@@@std@@@std@@QBE_NABV01@@Z ; std::_Tree_const_iterator<std::_Tree_val<std::_Tree_simple_types<std::pair<int const ,_TERRAIN_INFO> > > >::operator==
PUBLIC	??0?$_Tree_const_iterator@V?$_Tree_val@U?$_Tree_simple_types@U?$pair@$$CBHU_TERRAIN_INFO@@@std@@@std@@@std@@@std@@QAE@PAU?$_Tree_node@U?$pair@$$CBHU_TERRAIN_INFO@@@std@@PAX@1@PBV?$_Tree_val@U?$_Tree_simple_types@U?$pair@$$CBHU_TERRAIN_INFO@@@std@@@std@@@1@@Z ; std::_Tree_const_iterator<std::_Tree_val<std::_Tree_simple_types<std::pair<int const ,_TERRAIN_INFO> > > >::_Tree_const_iterator<std::_Tree_val<std::_Tree_simple_types<std::pair<int const ,_TERRAIN_INFO> > > >
PUBLIC	??D?$_Tree_iterator@V?$_Tree_val@U?$_Tree_simple_types@U?$pair@$$CBHU_TERRAIN_INFO@@@std@@@std@@@std@@@std@@QBEAAU?$pair@$$CBHU_TERRAIN_INFO@@@1@XZ ; std::_Tree_iterator<std::_Tree_val<std::_Tree_simple_types<std::pair<int const ,_TERRAIN_INFO> > > >::operator*
PUBLIC	??C?$_Tree_iterator@V?$_Tree_val@U?$_Tree_simple_types@U?$pair@$$CBHU_TERRAIN_INFO@@@std@@@std@@@std@@@std@@QBEPAU?$pair@$$CBHU_TERRAIN_INFO@@@1@XZ ; std::_Tree_iterator<std::_Tree_val<std::_Tree_simple_types<std::pair<int const ,_TERRAIN_INFO> > > >::operator->
PUBLIC	??0?$_Tree_iterator@V?$_Tree_val@U?$_Tree_simple_types@U?$pair@$$CBHU_TERRAIN_INFO@@@std@@@std@@@std@@@std@@QAE@PAU?$_Tree_node@U?$pair@$$CBHU_TERRAIN_INFO@@@std@@PAX@1@PBV?$_Tree_val@U?$_Tree_simple_types@U?$pair@$$CBHU_TERRAIN_INFO@@@std@@@std@@@1@@Z ; std::_Tree_iterator<std::_Tree_val<std::_Tree_simple_types<std::pair<int const ,_TERRAIN_INFO> > > >::_Tree_iterator<std::_Tree_val<std::_Tree_simple_types<std::pair<int const ,_TERRAIN_INFO> > > >
PUBLIC	?pointer_to@?$pointer_traits@PAU?$pair@$$CBHU_TERRAIN_INFO@@@std@@@std@@SAPAU?$pair@$$CBHU_TERRAIN_INFO@@@2@AAU32@@Z ; std::pointer_traits<std::pair<int const ,_TERRAIN_INFO> *>::pointer_to
PUBLIC	??$_Find@H@?$_Tree@V?$_Tmap_traits@HU_TERRAIN_INFO@@U?$less@H@std@@V?$allocator@U?$pair@$$CBHU_TERRAIN_INFO@@@std@@@3@$0A@@std@@@std@@ABEPAU?$_Tree_node@U?$pair@$$CBHU_TERRAIN_INFO@@@std@@PAX@1@ABH@Z ; std::_Tree<std::_Tmap_traits<int,_TERRAIN_INFO,std::less<int>,std::allocator<std::pair<int const ,_TERRAIN_INFO> >,0> >::_Find<int>
PUBLIC	??$addressof@U?$pair@$$CBHU_TERRAIN_INFO@@@std@@@std@@YAPAU?$pair@$$CBHU_TERRAIN_INFO@@@0@AAU10@@Z ; std::addressof<std::pair<int const ,_TERRAIN_INFO> >
PUBLIC	??$addressof@V?$_Tree_val@U?$_Tree_simple_types@U?$pair@$$CBHU_TERRAIN_INFO@@@std@@@std@@@std@@@std@@YAPAV?$_Tree_val@U?$_Tree_simple_types@U?$pair@$$CBHU_TERRAIN_INFO@@@std@@@std@@@0@AAV10@@Z ; std::addressof<std::_Tree_val<std::_Tree_simple_types<std::pair<int const ,_TERRAIN_INFO> > > >
PUBLIC	??$min@I@std@@YAABIABI0@Z			; std::min<unsigned int>
PUBLIC	??$_Deallocate@$07$0A@@std@@YAXPAXI@Z		; std::_Deallocate<8,0>
PUBLIC	??$_Allocate@$07U_Default_allocate_traits@std@@$0A@@std@@YAPAXI@Z ; std::_Allocate<8,std::_Default_allocate_traits,0>
PUBLIC	??$_Find_lower_bound@H@?$_Tree@V?$_Tmap_traits@HU_TERRAIN_INFO@@U?$less@H@std@@V?$allocator@U?$pair@$$CBHU_TERRAIN_INFO@@@std@@@3@$0A@@std@@@std@@IBE?AU?$_Tree_find_result@PAU?$_Tree_node@U?$pair@$$CBHU_TERRAIN_INFO@@@std@@PAX@std@@@1@ABH@Z ; std::_Tree<std::_Tmap_traits<int,_TERRAIN_INFO,std::less<int>,std::allocator<std::pair<int const ,_TERRAIN_INFO> >,0> >::_Find_lower_bound<int>
PUBLIC	??$_Lower_bound_duplicate@H@?$_Tree@V?$_Tmap_traits@HU_TERRAIN_INFO@@U?$less@H@std@@V?$allocator@U?$pair@$$CBHU_TERRAIN_INFO@@@std@@@3@$0A@@std@@@std@@IBE_NQAU?$_Tree_node@U?$pair@$$CBHU_TERRAIN_INFO@@@std@@PAX@1@ABH@Z ; std::_Tree<std::_Tmap_traits<int,_TERRAIN_INFO,std::less<int>,std::allocator<std::pair<int const ,_TERRAIN_INFO> >,0> >::_Lower_bound_duplicate<int>
PUBLIC	??$_Allocate_manually_vector_aligned@U_Default_allocate_traits@std@@@std@@YAPAXI@Z ; std::_Allocate_manually_vector_aligned<std::_Default_allocate_traits>
PUBLIC	??$addressof@$$CBV?$_Tree_val@U?$_Tree_simple_types@U?$pair@$$CBHU_TERRAIN_INFO@@@std@@@std@@@std@@@std@@YAPBV?$_Tree_val@U?$_Tree_simple_types@U?$pair@$$CBHU_TERRAIN_INFO@@@std@@@std@@@0@ABV10@@Z ; std::addressof<std::_Tree_val<std::_Tree_simple_types<std::pair<int const ,_TERRAIN_INFO> > > const >
PUBLIC	??$_Kfn@$$CBHU_TERRAIN_INFO@@@?$_Tmap_traits@HU_TERRAIN_INFO@@U?$less@H@std@@V?$allocator@U?$pair@$$CBHU_TERRAIN_INFO@@@std@@@3@$0A@@std@@SAABHABU?$pair@$$CBHU_TERRAIN_INFO@@@1@@Z ; std::_Tmap_traits<int,_TERRAIN_INFO,std::less<int>,std::allocator<std::pair<int const ,_TERRAIN_INFO> >,0>::_Kfn<int const ,_TERRAIN_INFO>
PUBLIC	??0CRingMonsterHerd@@QAE@XZ			; CRingMonsterHerd::CRingMonsterHerd
PUBLIC	??1CRingMonsterHerd@@UAE@XZ			; CRingMonsterHerd::~CRingMonsterHerd
PUBLIC	?Start@CRingMonsterHerd@@UAEHXZ			; CRingMonsterHerd::Start
PUBLIC	?MonsterHerdItemDrop@CRingMonsterHerd@@UAEHPAVOBJECTSTRUCT@@@Z ; CRingMonsterHerd::MonsterHerdItemDrop
PUBLIC	?MonsterAttackAction@CRingMonsterHerd@@UAEXPAVOBJECTSTRUCT@@0@Z ; CRingMonsterHerd::MonsterAttackAction
PUBLIC	?SendEventGiftWinner@CRingMonsterHerd@@QAEXHH@Z	; CRingMonsterHerd::SendEventGiftWinner
PUBLIC	?GetX@CRingMonsterHerd@@QAEEXZ			; CRingMonsterHerd::GetX
PUBLIC	?GetY@CRingMonsterHerd@@QAEEXZ			; CRingMonsterHerd::GetY
PUBLIC	??_GCRingMonsterHerd@@UAEPAXI@Z			; CRingMonsterHerd::`scalar deleting destructor'
PUBLIC	??0?$allocator@URINGMONSTER_DATA@@@std@@QAE@XZ	; std::allocator<RINGMONSTER_DATA>::allocator<RINGMONSTER_DATA>
PUBLIC	?deallocate@?$allocator@URINGMONSTER_DATA@@@std@@QAEXQAURINGMONSTER_DATA@@I@Z ; std::allocator<RINGMONSTER_DATA>::deallocate
PUBLIC	?allocate@?$allocator@URINGMONSTER_DATA@@@std@@QAEPAURINGMONSTER_DATA@@I@Z ; std::allocator<RINGMONSTER_DATA>::allocate
PUBLIC	?max_size@?$_Default_allocator_traits@V?$allocator@URINGMONSTER_DATA@@@std@@@std@@SAIABV?$allocator@URINGMONSTER_DATA@@@2@@Z ; std::_Default_allocator_traits<std::allocator<RINGMONSTER_DATA> >::max_size
PUBLIC	??0?$vector@URINGMONSTER_DATA@@V?$allocator@URINGMONSTER_DATA@@@std@@@std@@QAE@XZ ; std::vector<RINGMONSTER_DATA,std::allocator<RINGMONSTER_DATA> >::vector<RINGMONSTER_DATA,std::allocator<RINGMONSTER_DATA> >
PUBLIC	??1?$vector@URINGMONSTER_DATA@@V?$allocator@URINGMONSTER_DATA@@@std@@@std@@QAE@XZ ; std::vector<RINGMONSTER_DATA,std::allocator<RINGMONSTER_DATA> >::~vector<RINGMONSTER_DATA,std::allocator<RINGMONSTER_DATA> >
PUBLIC	?push_back@?$vector@URINGMONSTER_DATA@@V?$allocator@URINGMONSTER_DATA@@@std@@@std@@QAEXABURINGMONSTER_DATA@@@Z ; std::vector<RINGMONSTER_DATA,std::allocator<RINGMONSTER_DATA> >::push_back
PUBLIC	?erase@?$vector@URINGMONSTER_DATA@@V?$allocator@URINGMONSTER_DATA@@@std@@@std@@QAE?AV?$_Vector_iterator@V?$_Vector_val@U?$_Simple_types@URINGMONSTER_DATA@@@std@@@std@@@2@V?$_Vector_const_iterator@V?$_Vector_val@U?$_Simple_types@URINGMONSTER_DATA@@@std@@@std@@@2@0@Z ; std::vector<RINGMONSTER_DATA,std::allocator<RINGMONSTER_DATA> >::erase
PUBLIC	?begin@?$vector@URINGMONSTER_DATA@@V?$allocator@URINGMONSTER_DATA@@@std@@@std@@QAE?AV?$_Vector_iterator@V?$_Vector_val@U?$_Simple_types@URINGMONSTER_DATA@@@std@@@std@@@2@XZ ; std::vector<RINGMONSTER_DATA,std::allocator<RINGMONSTER_DATA> >::begin
PUBLIC	?end@?$vector@URINGMONSTER_DATA@@V?$allocator@URINGMONSTER_DATA@@@std@@@std@@QAE?AV?$_Vector_iterator@V?$_Vector_val@U?$_Simple_types@URINGMONSTER_DATA@@@std@@@std@@@2@XZ ; std::vector<RINGMONSTER_DATA,std::allocator<RINGMONSTER_DATA> >::end
PUBLIC	?empty@?$vector@URINGMONSTER_DATA@@V?$allocator@URINGMONSTER_DATA@@@std@@@std@@QBE_NXZ ; std::vector<RINGMONSTER_DATA,std::allocator<RINGMONSTER_DATA> >::empty
PUBLIC	?max_size@?$vector@URINGMONSTER_DATA@@V?$allocator@URINGMONSTER_DATA@@@std@@@std@@QBEIXZ ; std::vector<RINGMONSTER_DATA,std::allocator<RINGMONSTER_DATA> >::max_size
PUBLIC	?capacity@?$vector@URINGMONSTER_DATA@@V?$allocator@URINGMONSTER_DATA@@@std@@@std@@QBEIXZ ; std::vector<RINGMONSTER_DATA,std::allocator<RINGMONSTER_DATA> >::capacity
PUBLIC	?_Umove@?$vector@URINGMONSTER_DATA@@V?$allocator@URINGMONSTER_DATA@@@std@@@std@@AAEPAURINGMONSTER_DATA@@PAU3@00@Z ; std::vector<RINGMONSTER_DATA,std::allocator<RINGMONSTER_DATA> >::_Umove
PUBLIC	?_Umove_if_noexcept1@?$vector@URINGMONSTER_DATA@@V?$allocator@URINGMONSTER_DATA@@@std@@@std@@AAEXPAURINGMONSTER_DATA@@00U?$integral_constant@_N$00@2@@Z ; std::vector<RINGMONSTER_DATA,std::allocator<RINGMONSTER_DATA> >::_Umove_if_noexcept1
PUBLIC	?_Umove_if_noexcept@?$vector@URINGMONSTER_DATA@@V?$allocator@URINGMONSTER_DATA@@@std@@@std@@AAEXPAURINGMONSTER_DATA@@00@Z ; std::vector<RINGMONSTER_DATA,std::allocator<RINGMONSTER_DATA> >::_Umove_if_noexcept
PUBLIC	?_Destroy@?$vector@URINGMONSTER_DATA@@V?$allocator@URINGMONSTER_DATA@@@std@@@std@@AAEXPAURINGMONSTER_DATA@@0@Z ; std::vector<RINGMONSTER_DATA,std::allocator<RINGMONSTER_DATA> >::_Destroy
PUBLIC	?_Calculate_growth@?$vector@URINGMONSTER_DATA@@V?$allocator@URINGMONSTER_DATA@@@std@@@std@@ABEII@Z ; std::vector<RINGMONSTER_DATA,std::allocator<RINGMONSTER_DATA> >::_Calculate_growth
PUBLIC	?_Change_array@?$vector@URINGMONSTER_DATA@@V?$allocator@URINGMONSTER_DATA@@@std@@@std@@AAEXQAURINGMONSTER_DATA@@II@Z ; std::vector<RINGMONSTER_DATA,std::allocator<RINGMONSTER_DATA> >::_Change_array
PUBLIC	?_Tidy@?$vector@URINGMONSTER_DATA@@V?$allocator@URINGMONSTER_DATA@@@std@@@std@@AAEXXZ ; std::vector<RINGMONSTER_DATA,std::allocator<RINGMONSTER_DATA> >::_Tidy
PUBLIC	?_Xlength@?$vector@URINGMONSTER_DATA@@V?$allocator@URINGMONSTER_DATA@@@std@@@std@@CAXXZ ; std::vector<RINGMONSTER_DATA,std::allocator<RINGMONSTER_DATA> >::_Xlength
PUBLIC	?_Orphan_range@?$vector@URINGMONSTER_DATA@@V?$allocator@URINGMONSTER_DATA@@@std@@@std@@ABEXPAURINGMONSTER_DATA@@0@Z ; std::vector<RINGMONSTER_DATA,std::allocator<RINGMONSTER_DATA> >::_Orphan_range
PUBLIC	?_Getal@?$vector@URINGMONSTER_DATA@@V?$allocator@URINGMONSTER_DATA@@@std@@@std@@AAEAAV?$allocator@URINGMONSTER_DATA@@@2@XZ ; std::vector<RINGMONSTER_DATA,std::allocator<RINGMONSTER_DATA> >::_Getal
PUBLIC	?_Getal@?$vector@URINGMONSTER_DATA@@V?$allocator@URINGMONSTER_DATA@@@std@@@std@@ABEABV?$allocator@URINGMONSTER_DATA@@@2@XZ ; std::vector<RINGMONSTER_DATA,std::allocator<RINGMONSTER_DATA> >::_Getal
PUBLIC	??0?$_Vector_val@U?$_Simple_types@URINGMONSTER_DATA@@@std@@@std@@QAE@XZ ; std::_Vector_val<std::_Simple_types<RINGMONSTER_DATA> >::_Vector_val<std::_Simple_types<RINGMONSTER_DATA> >
PUBLIC	?_Get_first@?$_Compressed_pair@V?$allocator@URINGMONSTER_DATA@@@std@@V?$_Vector_val@U?$_Simple_types@URINGMONSTER_DATA@@@std@@@2@$00@std@@QAEAAV?$allocator@URINGMONSTER_DATA@@@2@XZ ; std::_Compressed_pair<std::allocator<RINGMONSTER_DATA>,std::_Vector_val<std::_Simple_types<RINGMONSTER_DATA> >,1>::_Get_first
PUBLIC	?_Get_first@?$_Compressed_pair@V?$allocator@URINGMONSTER_DATA@@@std@@V?$_Vector_val@U?$_Simple_types@URINGMONSTER_DATA@@@std@@@2@$00@std@@QBEABV?$allocator@URINGMONSTER_DATA@@@2@XZ ; std::_Compressed_pair<std::allocator<RINGMONSTER_DATA>,std::_Vector_val<std::_Simple_types<RINGMONSTER_DATA> >,1>::_Get_first
PUBLIC	??0?$allocator@URINGMONSTER_EVENT_TIME@@@std@@QAE@XZ ; std::allocator<RINGMONSTER_EVENT_TIME>::allocator<RINGMONSTER_EVENT_TIME>
PUBLIC	?deallocate@?$allocator@URINGMONSTER_EVENT_TIME@@@std@@QAEXQAURINGMONSTER_EVENT_TIME@@I@Z ; std::allocator<RINGMONSTER_EVENT_TIME>::deallocate
PUBLIC	?allocate@?$allocator@URINGMONSTER_EVENT_TIME@@@std@@QAEPAURINGMONSTER_EVENT_TIME@@I@Z ; std::allocator<RINGMONSTER_EVENT_TIME>::allocate
PUBLIC	?max_size@?$_Default_allocator_traits@V?$allocator@URINGMONSTER_EVENT_TIME@@@std@@@std@@SAIABV?$allocator@URINGMONSTER_EVENT_TIME@@@2@@Z ; std::_Default_allocator_traits<std::allocator<RINGMONSTER_EVENT_TIME> >::max_size
PUBLIC	??0?$vector@URINGMONSTER_EVENT_TIME@@V?$allocator@URINGMONSTER_EVENT_TIME@@@std@@@std@@QAE@XZ ; std::vector<RINGMONSTER_EVENT_TIME,std::allocator<RINGMONSTER_EVENT_TIME> >::vector<RINGMONSTER_EVENT_TIME,std::allocator<RINGMONSTER_EVENT_TIME> >
PUBLIC	??1?$vector@URINGMONSTER_EVENT_TIME@@V?$allocator@URINGMONSTER_EVENT_TIME@@@std@@@std@@QAE@XZ ; std::vector<RINGMONSTER_EVENT_TIME,std::allocator<RINGMONSTER_EVENT_TIME> >::~vector<RINGMONSTER_EVENT_TIME,std::allocator<RINGMONSTER_EVENT_TIME> >
PUBLIC	?push_back@?$vector@URINGMONSTER_EVENT_TIME@@V?$allocator@URINGMONSTER_EVENT_TIME@@@std@@@std@@QAEXABURINGMONSTER_EVENT_TIME@@@Z ; std::vector<RINGMONSTER_EVENT_TIME,std::allocator<RINGMONSTER_EVENT_TIME> >::push_back
PUBLIC	?erase@?$vector@URINGMONSTER_EVENT_TIME@@V?$allocator@URINGMONSTER_EVENT_TIME@@@std@@@std@@QAE?AV?$_Vector_iterator@V?$_Vector_val@U?$_Simple_types@URINGMONSTER_EVENT_TIME@@@std@@@std@@@2@V?$_Vector_const_iterator@V?$_Vector_val@U?$_Simple_types@URINGMONSTER_EVENT_TIME@@@std@@@std@@@2@0@Z ; std::vector<RINGMONSTER_EVENT_TIME,std::allocator<RINGMONSTER_EVENT_TIME> >::erase
PUBLIC	?begin@?$vector@URINGMONSTER_EVENT_TIME@@V?$allocator@URINGMONSTER_EVENT_TIME@@@std@@@std@@QAE?AV?$_Vector_iterator@V?$_Vector_val@U?$_Simple_types@URINGMONSTER_EVENT_TIME@@@std@@@std@@@2@XZ ; std::vector<RINGMONSTER_EVENT_TIME,std::allocator<RINGMONSTER_EVENT_TIME> >::begin
PUBLIC	?end@?$vector@URINGMONSTER_EVENT_TIME@@V?$allocator@URINGMONSTER_EVENT_TIME@@@std@@@std@@QAE?AV?$_Vector_iterator@V?$_Vector_val@U?$_Simple_types@URINGMONSTER_EVENT_TIME@@@std@@@std@@@2@XZ ; std::vector<RINGMONSTER_EVENT_TIME,std::allocator<RINGMONSTER_EVENT_TIME> >::end
PUBLIC	?empty@?$vector@URINGMONSTER_EVENT_TIME@@V?$allocator@URINGMONSTER_EVENT_TIME@@@std@@@std@@QBE_NXZ ; std::vector<RINGMONSTER_EVENT_TIME,std::allocator<RINGMONSTER_EVENT_TIME> >::empty
PUBLIC	?max_size@?$vector@URINGMONSTER_EVENT_TIME@@V?$allocator@URINGMONSTER_EVENT_TIME@@@std@@@std@@QBEIXZ ; std::vector<RINGMONSTER_EVENT_TIME,std::allocator<RINGMONSTER_EVENT_TIME> >::max_size
PUBLIC	?capacity@?$vector@URINGMONSTER_EVENT_TIME@@V?$allocator@URINGMONSTER_EVENT_TIME@@@std@@@std@@QBEIXZ ; std::vector<RINGMONSTER_EVENT_TIME,std::allocator<RINGMONSTER_EVENT_TIME> >::capacity
PUBLIC	?_Umove@?$vector@URINGMONSTER_EVENT_TIME@@V?$allocator@URINGMONSTER_EVENT_TIME@@@std@@@std@@AAEPAURINGMONSTER_EVENT_TIME@@PAU3@00@Z ; std::vector<RINGMONSTER_EVENT_TIME,std::allocator<RINGMONSTER_EVENT_TIME> >::_Umove
PUBLIC	?_Umove_if_noexcept1@?$vector@URINGMONSTER_EVENT_TIME@@V?$allocator@URINGMONSTER_EVENT_TIME@@@std@@@std@@AAEXPAURINGMONSTER_EVENT_TIME@@00U?$integral_constant@_N$00@2@@Z ; std::vector<RINGMONSTER_EVENT_TIME,std::allocator<RINGMONSTER_EVENT_TIME> >::_Umove_if_noexcept1
PUBLIC	?_Umove_if_noexcept@?$vector@URINGMONSTER_EVENT_TIME@@V?$allocator@URINGMONSTER_EVENT_TIME@@@std@@@std@@AAEXPAURINGMONSTER_EVENT_TIME@@00@Z ; std::vector<RINGMONSTER_EVENT_TIME,std::allocator<RINGMONSTER_EVENT_TIME> >::_Umove_if_noexcept
PUBLIC	?_Destroy@?$vector@URINGMONSTER_EVENT_TIME@@V?$allocator@URINGMONSTER_EVENT_TIME@@@std@@@std@@AAEXPAURINGMONSTER_EVENT_TIME@@0@Z ; std::vector<RINGMONSTER_EVENT_TIME,std::allocator<RINGMONSTER_EVENT_TIME> >::_Destroy
PUBLIC	?_Calculate_growth@?$vector@URINGMONSTER_EVENT_TIME@@V?$allocator@URINGMONSTER_EVENT_TIME@@@std@@@std@@ABEII@Z ; std::vector<RINGMONSTER_EVENT_TIME,std::allocator<RINGMONSTER_EVENT_TIME> >::_Calculate_growth
PUBLIC	?_Change_array@?$vector@URINGMONSTER_EVENT_TIME@@V?$allocator@URINGMONSTER_EVENT_TIME@@@std@@@std@@AAEXQAURINGMONSTER_EVENT_TIME@@II@Z ; std::vector<RINGMONSTER_EVENT_TIME,std::allocator<RINGMONSTER_EVENT_TIME> >::_Change_array
PUBLIC	?_Tidy@?$vector@URINGMONSTER_EVENT_TIME@@V?$allocator@URINGMONSTER_EVENT_TIME@@@std@@@std@@AAEXXZ ; std::vector<RINGMONSTER_EVENT_TIME,std::allocator<RINGMONSTER_EVENT_TIME> >::_Tidy
PUBLIC	?_Xlength@?$vector@URINGMONSTER_EVENT_TIME@@V?$allocator@URINGMONSTER_EVENT_TIME@@@std@@@std@@CAXXZ ; std::vector<RINGMONSTER_EVENT_TIME,std::allocator<RINGMONSTER_EVENT_TIME> >::_Xlength
PUBLIC	?_Orphan_range@?$vector@URINGMONSTER_EVENT_TIME@@V?$allocator@URINGMONSTER_EVENT_TIME@@@std@@@std@@ABEXPAURINGMONSTER_EVENT_TIME@@0@Z ; std::vector<RINGMONSTER_EVENT_TIME,std::allocator<RINGMONSTER_EVENT_TIME> >::_Orphan_range
PUBLIC	?_Getal@?$vector@URINGMONSTER_EVENT_TIME@@V?$allocator@URINGMONSTER_EVENT_TIME@@@std@@@std@@AAEAAV?$allocator@URINGMONSTER_EVENT_TIME@@@2@XZ ; std::vector<RINGMONSTER_EVENT_TIME,std::allocator<RINGMONSTER_EVENT_TIME> >::_Getal
PUBLIC	?_Getal@?$vector@URINGMONSTER_EVENT_TIME@@V?$allocator@URINGMONSTER_EVENT_TIME@@@std@@@std@@ABEABV?$allocator@URINGMONSTER_EVENT_TIME@@@2@XZ ; std::vector<RINGMONSTER_EVENT_TIME,std::allocator<RINGMONSTER_EVENT_TIME> >::_Getal
PUBLIC	??0?$_Vector_val@U?$_Simple_types@URINGMONSTER_EVENT_TIME@@@std@@@std@@QAE@XZ ; std::_Vector_val<std::_Simple_types<RINGMONSTER_EVENT_TIME> >::_Vector_val<std::_Simple_types<RINGMONSTER_EVENT_TIME> >
PUBLIC	?_Get_first@?$_Compressed_pair@V?$allocator@URINGMONSTER_EVENT_TIME@@@std@@V?$_Vector_val@U?$_Simple_types@URINGMONSTER_EVENT_TIME@@@std@@@2@$00@std@@QAEAAV?$allocator@URINGMONSTER_EVENT_TIME@@@2@XZ ; std::_Compressed_pair<std::allocator<RINGMONSTER_EVENT_TIME>,std::_Vector_val<std::_Simple_types<RINGMONSTER_EVENT_TIME> >,1>::_Get_first
PUBLIC	?_Get_first@?$_Compressed_pair@V?$allocator@URINGMONSTER_EVENT_TIME@@@std@@V?$_Vector_val@U?$_Simple_types@URINGMONSTER_EVENT_TIME@@@std@@@2@$00@std@@QBEABV?$allocator@URINGMONSTER_EVENT_TIME@@@2@XZ ; std::_Compressed_pair<std::allocator<RINGMONSTER_EVENT_TIME>,std::_Vector_val<std::_Simple_types<RINGMONSTER_EVENT_TIME> >,1>::_Get_first
PUBLIC	??0CRingAttackEvent@@QAE@XZ			; CRingAttackEvent::CRingAttackEvent
PUBLIC	??1CRingAttackEvent@@UAE@XZ			; CRingAttackEvent::~CRingAttackEvent
PUBLIC	?StartEvent@CRingAttackEvent@@QAEXXZ		; CRingAttackEvent::StartEvent
PUBLIC	?StopEvent@CRingAttackEvent@@QAEXXZ		; CRingAttackEvent::StopEvent
PUBLIC	?EnableEvent@CRingAttackEvent@@QAEXH@Z		; CRingAttackEvent::EnableEvent
PUBLIC	?Load@CRingAttackEvent@@UAEHPAD@Z		; CRingAttackEvent::Load
PUBLIC	?Run@CRingAttackEvent@@QAEXXZ			; CRingAttackEvent::Run
PUBLIC	?CheckSync@CRingAttackEvent@@QAEXXZ		; CRingAttackEvent::CheckSync
PUBLIC	?SetState@CRingAttackEvent@@QAEXH@Z		; CRingAttackEvent::SetState
PUBLIC	?ProcState_None@CRingAttackEvent@@QAEXXZ	; CRingAttackEvent::ProcState_None
PUBLIC	?ProcState_Closed@CRingAttackEvent@@QAEXXZ	; CRingAttackEvent::ProcState_Closed
PUBLIC	?ProcState_Playing@CRingAttackEvent@@QAEXXZ	; CRingAttackEvent::ProcState_Playing
PUBLIC	?SetState_None@CRingAttackEvent@@QAEXXZ		; CRingAttackEvent::SetState_None
PUBLIC	?SetState_Closed@CRingAttackEvent@@QAEXXZ	; CRingAttackEvent::SetState_Closed
PUBLIC	?SetState_Playing@CRingAttackEvent@@QAEXXZ	; CRingAttackEvent::SetState_Playing
PUBLIC	?Move@CRingAttackEvent@@QAEXXZ			; CRingAttackEvent::Move
PUBLIC	?SetMenualStart@CRingAttackEvent@@QAEXH@Z	; CRingAttackEvent::SetMenualStart
PUBLIC	?Start_Menual@CRingAttackEvent@@QAEXXZ		; CRingAttackEvent::Start_Menual
PUBLIC	?End_Menual@CRingAttackEvent@@QAEXXZ		; CRingAttackEvent::End_Menual
PUBLIC	??_GCRingAttackEvent@@UAEPAXI@Z			; CRingAttackEvent::`scalar deleting destructor'
PUBLIC	??0?$_Vector_const_iterator@V?$_Vector_val@U?$_Simple_types@URINGMONSTER_DATA@@@std@@@std@@@std@@QAE@PAURINGMONSTER_DATA@@PBU_Container_base0@1@@Z ; std::_Vector_const_iterator<std::_Vector_val<std::_Simple_types<RINGMONSTER_DATA> > >::_Vector_const_iterator<std::_Vector_val<std::_Simple_types<RINGMONSTER_DATA> > >
PUBLIC	??D?$_Vector_const_iterator@V?$_Vector_val@U?$_Simple_types@URINGMONSTER_DATA@@@std@@@std@@@std@@QBEABURINGMONSTER_DATA@@XZ ; std::_Vector_const_iterator<std::_Vector_val<std::_Simple_types<RINGMONSTER_DATA> > >::operator*
PUBLIC	??E?$_Vector_const_iterator@V?$_Vector_val@U?$_Simple_types@URINGMONSTER_DATA@@@std@@@std@@@std@@QAEAAV01@XZ ; std::_Vector_const_iterator<std::_Vector_val<std::_Simple_types<RINGMONSTER_DATA> > >::operator++
PUBLIC	??8?$_Vector_const_iterator@V?$_Vector_val@U?$_Simple_types@URINGMONSTER_DATA@@@std@@@std@@@std@@QBE_NABV01@@Z ; std::_Vector_const_iterator<std::_Vector_val<std::_Simple_types<RINGMONSTER_DATA> > >::operator==
PUBLIC	??9?$_Vector_const_iterator@V?$_Vector_val@U?$_Simple_types@URINGMONSTER_DATA@@@std@@@std@@@std@@QBE_NABV01@@Z ; std::_Vector_const_iterator<std::_Vector_val<std::_Simple_types<RINGMONSTER_DATA> > >::operator!=
PUBLIC	?_Compat@?$_Vector_const_iterator@V?$_Vector_val@U?$_Simple_types@URINGMONSTER_DATA@@@std@@@std@@@std@@QBEXABV12@@Z ; std::_Vector_const_iterator<std::_Vector_val<std::_Simple_types<RINGMONSTER_DATA> > >::_Compat
PUBLIC	??D?$_Vector_iterator@V?$_Vector_val@U?$_Simple_types@URINGMONSTER_DATA@@@std@@@std@@@std@@QBEAAURINGMONSTER_DATA@@XZ ; std::_Vector_iterator<std::_Vector_val<std::_Simple_types<RINGMONSTER_DATA> > >::operator*
PUBLIC	??E?$_Vector_iterator@V?$_Vector_val@U?$_Simple_types@URINGMONSTER_DATA@@@std@@@std@@@std@@QAE?AV01@H@Z ; std::_Vector_iterator<std::_Vector_val<std::_Simple_types<RINGMONSTER_DATA> > >::operator++
PUBLIC	??0?$_Vector_iterator@V?$_Vector_val@U?$_Simple_types@URINGMONSTER_DATA@@@std@@@std@@@std@@QAE@PAURINGMONSTER_DATA@@PBU_Container_base0@1@@Z ; std::_Vector_iterator<std::_Vector_val<std::_Simple_types<RINGMONSTER_DATA> > >::_Vector_iterator<std::_Vector_val<std::_Simple_types<RINGMONSTER_DATA> > >
PUBLIC	??0?$_Vector_const_iterator@V?$_Vector_val@U?$_Simple_types@URINGMONSTER_EVENT_TIME@@@std@@@std@@@std@@QAE@PAURINGMONSTER_EVENT_TIME@@PBU_Container_base0@1@@Z ; std::_Vector_const_iterator<std::_Vector_val<std::_Simple_types<RINGMONSTER_EVENT_TIME> > >::_Vector_const_iterator<std::_Vector_val<std::_Simple_types<RINGMONSTER_EVENT_TIME> > >
PUBLIC	??D?$_Vector_const_iterator@V?$_Vector_val@U?$_Simple_types@URINGMONSTER_EVENT_TIME@@@std@@@std@@@std@@QBEABURINGMONSTER_EVENT_TIME@@XZ ; std::_Vector_const_iterator<std::_Vector_val<std::_Simple_types<RINGMONSTER_EVENT_TIME> > >::operator*
PUBLIC	??E?$_Vector_const_iterator@V?$_Vector_val@U?$_Simple_types@URINGMONSTER_EVENT_TIME@@@std@@@std@@@std@@QAEAAV01@XZ ; std::_Vector_const_iterator<std::_Vector_val<std::_Simple_types<RINGMONSTER_EVENT_TIME> > >::operator++
PUBLIC	??8?$_Vector_const_iterator@V?$_Vector_val@U?$_Simple_types@URINGMONSTER_EVENT_TIME@@@std@@@std@@@std@@QBE_NABV01@@Z ; std::_Vector_const_iterator<std::_Vector_val<std::_Simple_types<RINGMONSTER_EVENT_TIME> > >::operator==
PUBLIC	??9?$_Vector_const_iterator@V?$_Vector_val@U?$_Simple_types@URINGMONSTER_EVENT_TIME@@@std@@@std@@@std@@QBE_NABV01@@Z ; std::_Vector_const_iterator<std::_Vector_val<std::_Simple_types<RINGMONSTER_EVENT_TIME> > >::operator!=
PUBLIC	?_Compat@?$_Vector_const_iterator@V?$_Vector_val@U?$_Simple_types@URINGMONSTER_EVENT_TIME@@@std@@@std@@@std@@QBEXABV12@@Z ; std::_Vector_const_iterator<std::_Vector_val<std::_Simple_types<RINGMONSTER_EVENT_TIME> > >::_Compat
PUBLIC	??D?$_Vector_iterator@V?$_Vector_val@U?$_Simple_types@URINGMONSTER_EVENT_TIME@@@std@@@std@@@std@@QBEAAURINGMONSTER_EVENT_TIME@@XZ ; std::_Vector_iterator<std::_Vector_val<std::_Simple_types<RINGMONSTER_EVENT_TIME> > >::operator*
PUBLIC	??E?$_Vector_iterator@V?$_Vector_val@U?$_Simple_types@URINGMONSTER_EVENT_TIME@@@std@@@std@@@std@@QAE?AV01@H@Z ; std::_Vector_iterator<std::_Vector_val<std::_Simple_types<RINGMONSTER_EVENT_TIME> > >::operator++
PUBLIC	??0?$_Vector_iterator@V?$_Vector_val@U?$_Simple_types@URINGMONSTER_EVENT_TIME@@@std@@@std@@@std@@QAE@PAURINGMONSTER_EVENT_TIME@@PBU_Container_base0@1@@Z ; std::_Vector_iterator<std::_Vector_val<std::_Simple_types<RINGMONSTER_EVENT_TIME> > >::_Vector_iterator<std::_Vector_val<std::_Simple_types<RINGMONSTER_EVENT_TIME> > >
PUBLIC	??$addressof@V?$_Vector_val@U?$_Simple_types@URINGMONSTER_EVENT_TIME@@@std@@@std@@@std@@YAPAV?$_Vector_val@U?$_Simple_types@URINGMONSTER_EVENT_TIME@@@std@@@0@AAV10@@Z ; std::addressof<std::_Vector_val<std::_Simple_types<RINGMONSTER_EVENT_TIME> > >
PUBLIC	??$_Move_unchecked@PAURINGMONSTER_EVENT_TIME@@PAU1@@std@@YAPAURINGMONSTER_EVENT_TIME@@PAU1@00@Z ; std::_Move_unchecked<RINGMONSTER_EVENT_TIME *,RINGMONSTER_EVENT_TIME *>
PUBLIC	??$emplace_back@ABURINGMONSTER_EVENT_TIME@@@?$vector@URINGMONSTER_EVENT_TIME@@V?$allocator@URINGMONSTER_EVENT_TIME@@@std@@@std@@QAE@ABURINGMONSTER_EVENT_TIME@@@Z ; std::vector<RINGMONSTER_EVENT_TIME,std::allocator<RINGMONSTER_EVENT_TIME> >::emplace_back<RINGMONSTER_EVENT_TIME const &>
PUBLIC	??$forward@ABURINGMONSTER_EVENT_TIME@@@std@@YAABURINGMONSTER_EVENT_TIME@@ABU1@@Z ; std::forward<RINGMONSTER_EVENT_TIME const &>
PUBLIC	??$_Emplace_back_with_unused_capacity@ABURINGMONSTER_EVENT_TIME@@@?$vector@URINGMONSTER_EVENT_TIME@@V?$allocator@URINGMONSTER_EVENT_TIME@@@std@@@std@@AAE@ABURINGMONSTER_EVENT_TIME@@@Z ; std::vector<RINGMONSTER_EVENT_TIME,std::allocator<RINGMONSTER_EVENT_TIME> >::_Emplace_back_with_unused_capacity<RINGMONSTER_EVENT_TIME const &>
PUBLIC	??$_Unfancy@URINGMONSTER_EVENT_TIME@@@std@@YAPAURINGMONSTER_EVENT_TIME@@PAU1@@Z ; std::_Unfancy<RINGMONSTER_EVENT_TIME>
PUBLIC	??$construct@URINGMONSTER_EVENT_TIME@@ABU1@@?$_Default_allocator_traits@V?$allocator@URINGMONSTER_EVENT_TIME@@@std@@@std@@SAXAAV?$allocator@URINGMONSTER_EVENT_TIME@@@1@QAURINGMONSTER_EVENT_TIME@@ABU3@@Z ; std::_Default_allocator_traits<std::allocator<RINGMONSTER_EVENT_TIME> >::construct<RINGMONSTER_EVENT_TIME,RINGMONSTER_EVENT_TIME const &>
PUBLIC	??$_Emplace_reallocate@ABURINGMONSTER_EVENT_TIME@@@?$vector@URINGMONSTER_EVENT_TIME@@V?$allocator@URINGMONSTER_EVENT_TIME@@@std@@@std@@QAEPAURINGMONSTER_EVENT_TIME@@QAU2@ABU2@@Z ; std::vector<RINGMONSTER_EVENT_TIME,std::allocator<RINGMONSTER_EVENT_TIME> >::_Emplace_reallocate<RINGMONSTER_EVENT_TIME const &>
PUBLIC	??$?0$$V@?$_Compressed_pair@V?$allocator@URINGMONSTER_EVENT_TIME@@@std@@V?$_Vector_val@U?$_Simple_types@URINGMONSTER_EVENT_TIME@@@std@@@2@$00@std@@QAE@U_Zero_then_variadic_args_t@1@@Z ; std::_Compressed_pair<std::allocator<RINGMONSTER_EVENT_TIME>,std::_Vector_val<std::_Simple_types<RINGMONSTER_EVENT_TIME> >,1>::_Compressed_pair<std::allocator<RINGMONSTER_EVENT_TIME>,std::_Vector_val<std::_Simple_types<RINGMONSTER_EVENT_TIME> >,1><>
PUBLIC	??$addressof@V?$_Vector_val@U?$_Simple_types@URINGMONSTER_DATA@@@std@@@std@@@std@@YAPAV?$_Vector_val@U?$_Simple_types@URINGMONSTER_DATA@@@std@@@0@AAV10@@Z ; std::addressof<std::_Vector_val<std::_Simple_types<RINGMONSTER_DATA> > >
PUBLIC	??$_Move_unchecked@PAURINGMONSTER_DATA@@PAU1@@std@@YAPAURINGMONSTER_DATA@@PAU1@00@Z ; std::_Move_unchecked<RINGMONSTER_DATA *,RINGMONSTER_DATA *>
PUBLIC	??$emplace_back@ABURINGMONSTER_DATA@@@?$vector@URINGMONSTER_DATA@@V?$allocator@URINGMONSTER_DATA@@@std@@@std@@QAE@ABURINGMONSTER_DATA@@@Z ; std::vector<RINGMONSTER_DATA,std::allocator<RINGMONSTER_DATA> >::emplace_back<RINGMONSTER_DATA const &>
PUBLIC	??$forward@ABURINGMONSTER_DATA@@@std@@YAABURINGMONSTER_DATA@@ABU1@@Z ; std::forward<RINGMONSTER_DATA const &>
PUBLIC	??$_Emplace_back_with_unused_capacity@ABURINGMONSTER_DATA@@@?$vector@URINGMONSTER_DATA@@V?$allocator@URINGMONSTER_DATA@@@std@@@std@@AAE@ABURINGMONSTER_DATA@@@Z ; std::vector<RINGMONSTER_DATA,std::allocator<RINGMONSTER_DATA> >::_Emplace_back_with_unused_capacity<RINGMONSTER_DATA const &>
PUBLIC	??$_Unfancy@URINGMONSTER_DATA@@@std@@YAPAURINGMONSTER_DATA@@PAU1@@Z ; std::_Unfancy<RINGMONSTER_DATA>
PUBLIC	??$construct@URINGMONSTER_DATA@@ABU1@@?$_Default_allocator_traits@V?$allocator@URINGMONSTER_DATA@@@std@@@std@@SAXAAV?$allocator@URINGMONSTER_DATA@@@1@QAURINGMONSTER_DATA@@ABU3@@Z ; std::_Default_allocator_traits<std::allocator<RINGMONSTER_DATA> >::construct<RINGMONSTER_DATA,RINGMONSTER_DATA const &>
PUBLIC	??$_Emplace_reallocate@ABURINGMONSTER_DATA@@@?$vector@URINGMONSTER_DATA@@V?$allocator@URINGMONSTER_DATA@@@std@@@std@@QAEPAURINGMONSTER_DATA@@QAU2@ABU2@@Z ; std::vector<RINGMONSTER_DATA,std::allocator<RINGMONSTER_DATA> >::_Emplace_reallocate<RINGMONSTER_DATA const &>
PUBLIC	??$?0$$V@?$_Compressed_pair@V?$allocator@URINGMONSTER_DATA@@@std@@V?$_Vector_val@U?$_Simple_types@URINGMONSTER_DATA@@@std@@@2@$00@std@@QAE@U_Zero_then_variadic_args_t@1@@Z ; std::_Compressed_pair<std::allocator<RINGMONSTER_DATA>,std::_Vector_val<std::_Simple_types<RINGMONSTER_DATA> >,1>::_Compressed_pair<std::allocator<RINGMONSTER_DATA>,std::_Vector_val<std::_Simple_types<RINGMONSTER_DATA> >,1><>
PUBLIC	??$_Destroy_range@V?$allocator@URINGMONSTER_EVENT_TIME@@@std@@@std@@YAXPAURINGMONSTER_EVENT_TIME@@QAU1@AAV?$allocator@URINGMONSTER_EVENT_TIME@@@0@@Z ; std::_Destroy_range<std::allocator<RINGMONSTER_EVENT_TIME> >
PUBLIC	??$_Destroy_range@V?$allocator@URINGMONSTER_DATA@@@std@@@std@@YAXPAURINGMONSTER_DATA@@QAU1@AAV?$allocator@URINGMONSTER_DATA@@@0@@Z ; std::_Destroy_range<std::allocator<RINGMONSTER_DATA> >
PUBLIC	??$_Copy_memmove@PAURINGMONSTER_EVENT_TIME@@PAU1@@std@@YAPAURINGMONSTER_EVENT_TIME@@PAU1@00@Z ; std::_Copy_memmove<RINGMONSTER_EVENT_TIME *,RINGMONSTER_EVENT_TIME *>
PUBLIC	??$move@AAURINGMONSTER_EVENT_TIME@@@std@@YA$$QAURINGMONSTER_EVENT_TIME@@AAU1@@Z ; std::move<RINGMONSTER_EVENT_TIME &>
PUBLIC	??$_Copy_memmove@PAURINGMONSTER_DATA@@PAU1@@std@@YAPAURINGMONSTER_DATA@@PAU1@00@Z ; std::_Copy_memmove<RINGMONSTER_DATA *,RINGMONSTER_DATA *>
PUBLIC	??$move@AAURINGMONSTER_DATA@@@std@@YA$$QAURINGMONSTER_DATA@@AAU1@@Z ; std::move<RINGMONSTER_DATA &>
PUBLIC	??$_Uninitialized_move@PAURINGMONSTER_EVENT_TIME@@V?$allocator@URINGMONSTER_EVENT_TIME@@@std@@@std@@YAPAURINGMONSTER_EVENT_TIME@@QAU1@0PAU1@AAV?$allocator@URINGMONSTER_EVENT_TIME@@@0@@Z ; std::_Uninitialized_move<RINGMONSTER_EVENT_TIME *,std::allocator<RINGMONSTER_EVENT_TIME> >
PUBLIC	??$_Get_size_of_n@$07@std@@YAII@Z		; std::_Get_size_of_n<8>
PUBLIC	??$_Uninitialized_move@PAURINGMONSTER_DATA@@V?$allocator@URINGMONSTER_DATA@@@std@@@std@@YAPAURINGMONSTER_DATA@@QAU1@0PAU1@AAV?$allocator@URINGMONSTER_DATA@@@0@@Z ; std::_Uninitialized_move<RINGMONSTER_DATA *,std::allocator<RINGMONSTER_DATA> >
PUBLIC	??$_Get_size_of_n@$0M@@std@@YAII@Z		; std::_Get_size_of_n<12>
PUBLIC	??$_Get_unwrapped@ABQAURINGMONSTER_EVENT_TIME@@@std@@YA@ABQAURINGMONSTER_EVENT_TIME@@@Z ; std::_Get_unwrapped<RINGMONSTER_EVENT_TIME * const &>
PUBLIC	??$_Get_unwrapped@ABQAURINGMONSTER_DATA@@@std@@YA@ABQAURINGMONSTER_DATA@@@Z ; std::_Get_unwrapped<RINGMONSTER_DATA * const &>
PUBLIC	??_7exception@std@@6B@				; std::exception::`vftable'
PUBLIC	??_C@_0BC@EOODALEL@Unknown?5exception@		; `string'
PUBLIC	??_7bad_alloc@std@@6B@				; std::bad_alloc::`vftable'
PUBLIC	??_7bad_array_new_length@std@@6B@		; std::bad_array_new_length::`vftable'
PUBLIC	??_C@_0BF@KINCDENJ@bad?5array?5new?5length@	; `string'
PUBLIC	__TI3?AVbad_array_new_length@std@@
PUBLIC	__CTA3?AVbad_array_new_length@std@@
PUBLIC	??_R0?AVbad_array_new_length@std@@@8		; std::bad_array_new_length `RTTI Type Descriptor'
PUBLIC	__CT??_R0?AVbad_array_new_length@std@@@8??0bad_array_new_length@std@@QAE@ABV01@@Z12
PUBLIC	??_R0?AVbad_alloc@std@@@8			; std::bad_alloc `RTTI Type Descriptor'
PUBLIC	__CT??_R0?AVbad_alloc@std@@@8??0bad_alloc@std@@QAE@ABV01@@Z12
PUBLIC	??_R0?AVexception@std@@@8			; std::exception `RTTI Type Descriptor'
PUBLIC	__CT??_R0?AVexception@std@@@8??0exception@std@@QAE@ABV01@@Z12
PUBLIC	??_C@_07NBCGADJA@Unknown@			; `string'
PUBLIC	??_R4exception@std@@6B@				; std::exception::`RTTI Complete Object Locator'
PUBLIC	??_R3exception@std@@8				; std::exception::`RTTI Class Hierarchy Descriptor'
PUBLIC	??_R2exception@std@@8				; std::exception::`RTTI Base Class Array'
PUBLIC	??_R1A@?0A@EA@exception@std@@8			; std::exception::`RTTI Base Class Descriptor at (0,-1,0,64)'
PUBLIC	??_R4bad_alloc@std@@6B@				; std::bad_alloc::`RTTI Complete Object Locator'
PUBLIC	??_R3bad_alloc@std@@8				; std::bad_alloc::`RTTI Class Hierarchy Descriptor'
PUBLIC	??_R2bad_alloc@std@@8				; std::bad_alloc::`RTTI Base Class Array'
PUBLIC	??_R1A@?0A@EA@bad_alloc@std@@8			; std::bad_alloc::`RTTI Base Class Descriptor at (0,-1,0,64)'
PUBLIC	??_R4bad_array_new_length@std@@6B@		; std::bad_array_new_length::`RTTI Complete Object Locator'
PUBLIC	??_R3bad_array_new_length@std@@8		; std::bad_array_new_length::`RTTI Class Hierarchy Descriptor'
PUBLIC	??_R2bad_array_new_length@std@@8		; std::bad_array_new_length::`RTTI Base Class Array'
PUBLIC	??_R1A@?0A@EA@bad_array_new_length@std@@8	; std::bad_array_new_length::`RTTI Base Class Descriptor at (0,-1,0,64)'
PUBLIC	??_7CRingMonsterHerd@@6B@			; CRingMonsterHerd::`vftable'
PUBLIC	??_7CRingAttackEvent@@6B@			; CRingAttackEvent::`vftable'
PUBLIC	??_C@_0DL@ELDBHEBB@?$FLRing?5Event?$FN?5White?5Wizard?5Kille@ ; `string'
PUBLIC	??_C@_0EA@DGMJBKOB@?$FLRing?5Event?$FN?5?$FL?$CFs?$FN?$FL?$CFs?$FN?5Request?5t@ ; `string'
PUBLIC	??_C@_0CN@EBKICF@?$FLRing?5Event?$FN?5?9?5Error?5?3?5No?5Monst@ ; `string'
PUBLIC	??_C@_0DP@FPIHCFEB@?$FLRing?5Event?$FN?5?9?5Monster?5Start?5Po@ ; `string'
PUBLIC	??_C@_01KDCPPGHE@r@				; `string'
PUBLIC	??_C@_0CG@OKIEPGH@?$FLRing?5Event?$FN?5Info?5file?5Load?5Fai@ ; `string'
PUBLIC	??_C@_03JBJLGPFL@end@				; `string'
PUBLIC	??_C@_0O@CEHBAEMJ@?$CFs?5file?5load?$CB@	; `string'
PUBLIC	??_C@_0CD@BNKPBCAA@?$FLRing?5Event?$FN?5No?5Schedule?5Time?5D@ ; `string'
PUBLIC	??_C@_0EG@KMBELKMF@?$FLRing?5Event?$FN?5Sync?5Start?5Time?4?5?$FL@ ; `string'
PUBLIC	??_C@_0CM@NAOFHPPM@?$FLRing?5Event?$FN?5?9?5Before?53?5minutes@ ; `string'
PUBLIC	??_C@_0BN@HLGPJCPM@?$FLRing?5Event?$FN?5?9?5Event?5Started@ ; `string'
PUBLIC	??_C@_0EG@MJJALBNB@?$FLRing?5Event?$FN?5?9?5per?530?8S?5Inform?5@ ; `string'
PUBLIC	??_C@_0DK@PFGAPPAF@?$FLRing?5Event?$FN?5?9?5Monster?5Herd?5Mov@ ; `string'
PUBLIC	??_C@_0BL@KELOKDGN@?$FLRing?5Event?$FN?5?9?5Event?5Ended@ ; `string'
PUBLIC	??_C@_0DB@PHNKOJF@?$KB?$NL?$KB?$NM?$FLEvent?5Management?$FN?5?$FLStart?$FN?5@ ; `string'
PUBLIC	??_C@_0BA@FOIKENOD@vector?5too?5long@		; `string'
PUBLIC	??_R4CRingMonsterHerd@@6B@			; CRingMonsterHerd::`RTTI Complete Object Locator'
PUBLIC	??_R0?AVCRingMonsterHerd@@@8			; CRingMonsterHerd `RTTI Type Descriptor'
PUBLIC	??_R3CRingMonsterHerd@@8			; CRingMonsterHerd::`RTTI Class Hierarchy Descriptor'
PUBLIC	??_R2CRingMonsterHerd@@8			; CRingMonsterHerd::`RTTI Base Class Array'
PUBLIC	??_R1A@?0A@EA@CRingMonsterHerd@@8		; CRingMonsterHerd::`RTTI Base Class Descriptor at (0,-1,0,64)'
PUBLIC	??_R1A@?0A@EA@MonsterHerd@@8			; MonsterHerd::`RTTI Base Class Descriptor at (0,-1,0,64)'
PUBLIC	??_R0?AVMonsterHerd@@@8				; MonsterHerd `RTTI Type Descriptor'
PUBLIC	??_R3MonsterHerd@@8				; MonsterHerd::`RTTI Class Hierarchy Descriptor'
PUBLIC	??_R2MonsterHerd@@8				; MonsterHerd::`RTTI Base Class Array'
PUBLIC	??_R4CRingAttackEvent@@6B@			; CRingAttackEvent::`RTTI Complete Object Locator'
PUBLIC	??_R0?AVCRingAttackEvent@@@8			; CRingAttackEvent `RTTI Type Descriptor'
PUBLIC	??_R3CRingAttackEvent@@8			; CRingAttackEvent::`RTTI Class Hierarchy Descriptor'
PUBLIC	??_R2CRingAttackEvent@@8			; CRingAttackEvent::`RTTI Base Class Array'
PUBLIC	??_R1A@?0A@EA@CRingAttackEvent@@8		; CRingAttackEvent::`RTTI Base Class Descriptor at (0,-1,0,64)'
EXTRN	??_L@YGXPAXIIP6EX0@Z1@Z:PROC			; `eh vector constructor iterator'
EXTRN	??_M@YGXPAXIIP6EX0@Z@Z:PROC			; `eh vector destructor iterator'
EXTRN	??2@YAPAXI@Z:PROC				; operator new
EXTRN	??3@YAXPAXI@Z:PROC				; operator delete
EXTRN	___report_rangecheckfailure:PROC
EXTRN	__invalid_parameter_noinfo_noreturn:PROC
EXTRN	_isalpha:PROC
EXTRN	_isdigit:PROC
EXTRN	_isspace:PROC
EXTRN	_isalnum:PROC
EXTRN	_memcpy:PROC
EXTRN	_memmove:PROC
EXTRN	_strcmp:PROC
EXTRN	__imp__InitializeCriticalSection@4:PROC
EXTRN	__imp__EnterCriticalSection@4:PROC
EXTRN	__imp__LeaveCriticalSection@4:PROC
EXTRN	__imp__DeleteCriticalSection@4:PROC
EXTRN	__imp__GetLocalTime@4:PROC
EXTRN	__imp__GetTickCount@0:PROC
EXTRN	__imp__wsprintfA:PROC
EXTRN	_fclose:PROC
EXTRN	_fgetc:PROC
EXTRN	_fopen:PROC
EXTRN	_getc:PROC
EXTRN	_ungetc:PROC
EXTRN	_rand:PROC
EXTRN	_atof:PROC
EXTRN	?MsgBox@@YAXPADZZ:PROC				; MsgBox
EXTRN	__imp_?Get@CMsg@@QAEPADH@Z:PROC
EXTRN	?_Xlength_error@std@@YAXPBD@Z:PROC		; std::_Xlength_error
EXTRN	___std_exception_copy:PROC
EXTRN	___std_exception_destroy:PROC
EXTRN	??_Eexception@std@@UAEPAXI@Z:PROC		; std::exception::`vector deleting destructor'
EXTRN	??_Ebad_alloc@std@@UAEPAXI@Z:PROC		; std::bad_alloc::`vector deleting destructor'
EXTRN	??_Ebad_array_new_length@std@@UAEPAXI@Z:PROC	; std::bad_array_new_length::`vector deleting destructor'
EXTRN	?ItemGetNumberMake@@YAHHH@Z:PROC		; ItemGetNumberMake
EXTRN	?gObjIsConnected@@YAHH@Z:PROC			; gObjIsConnected
EXTRN	?AllSendServerMsg@@YAXPAD@Z:PROC		; AllSendServerMsg
EXTRN	?DataSendAll@@YAXPAEH@Z:PROC			; DataSendAll
EXTRN	?PHeadSetB@@YAXPAEEH@Z:PROC			; PHeadSetB
EXTRN	?gObjMonsterTopHitDamageUser@@YAHPAVOBJECTSTRUCT@@@Z:PROC ; gObjMonsterTopHitDamageUser
EXTRN	??0MonsterHerd@@QAE@XZ:PROC			; MonsterHerd::MonsterHerd
EXTRN	??1MonsterHerd@@UAE@XZ:PROC			; MonsterHerd::~MonsterHerd
EXTRN	?SetTotalInfo@MonsterHerd@@UAEHHHHH@Z:PROC	; MonsterHerd::SetTotalInfo
EXTRN	?AddMonster@MonsterHerd@@UAEHHHH@Z:PROC		; MonsterHerd::AddMonster
EXTRN	?SetRadius@MonsterHerd@@UAEXH@Z:PROC		; MonsterHerd::SetRadius
EXTRN	?SetPosition@MonsterHerd@@UAEXEE@Z:PROC		; MonsterHerd::SetPosition
EXTRN	?Start@MonsterHerd@@UAEHXZ:PROC			; MonsterHerd::Start
EXTRN	?Stop@MonsterHerd@@UAEXXZ:PROC			; MonsterHerd::Stop
EXTRN	?CheckInRadius@MonsterHerd@@UAEHH@Z:PROC	; MonsterHerd::CheckInRadius
EXTRN	?GetCurrentLocation@MonsterHerd@@UAEHAAE0@Z:PROC ; MonsterHerd::GetCurrentLocation
EXTRN	?GetRandomLocation@MonsterHerd@@UAEHAAE0@Z:PROC	; MonsterHerd::GetRandomLocation
EXTRN	?CheckLocation@MonsterHerd@@UAEHAAE0@Z:PROC	; MonsterHerd::CheckLocation
EXTRN	?MoveHerd@MonsterHerd@@UAEHEE@Z:PROC		; MonsterHerd::MoveHerd
EXTRN	?GetMonsterData@MonsterHerd@@UAEPAU_MONSTER_HERD_DATA@@H@Z:PROC ; MonsterHerd::GetMonsterData
EXTRN	?BeenAttacked@MonsterHerd@@UAEXPAVOBJECTSTRUCT@@0@Z:PROC ; MonsterHerd::BeenAttacked
EXTRN	?OrderAttack@MonsterHerd@@UAEXPAVOBJECTSTRUCT@@0H@Z:PROC ; MonsterHerd::OrderAttack
EXTRN	?MonsterBaseAct@MonsterHerd@@UAEXPAVOBJECTSTRUCT@@@Z:PROC ; MonsterHerd::MonsterBaseAct
EXTRN	?MonsterMoveAction@MonsterHerd@@UAEXPAVOBJECTSTRUCT@@@Z:PROC ; MonsterHerd::MonsterMoveAction
EXTRN	?MonsterDieAction@MonsterHerd@@UAEXPAVOBJECTSTRUCT@@@Z:PROC ; MonsterHerd::MonsterDieAction
EXTRN	?MonsterRegenAction@MonsterHerd@@UAEHPAVOBJECTSTRUCT@@@Z:PROC ; MonsterHerd::MonsterRegenAction
EXTRN	?ItemSerialCreateSend@@YAXHEEEHEEEEEHEEH@Z:PROC	; ItemSerialCreateSend
EXTRN	??_ECRingMonsterHerd@@UAEPAXI@Z:PROC		; CRingMonsterHerd::`vector deleting destructor'
EXTRN	??_ECRingAttackEvent@@UAEPAXI@Z:PROC		; CRingAttackEvent::`vector deleting destructor'
EXTRN	?MoneyItemDrop@MapClass@@QAEHHHH@Z:PROC		; MapClass::MoneyItemDrop
EXTRN	?DataSendEventChip@@YAXPADH@Z:PROC		; DataSendEventChip
EXTRN	@__security_check_cookie@4:PROC
EXTRN	__CxxThrowException@8:PROC
EXTRN	___CxxFrameHandler3:PROC
EXTRN	??_7type_info@@6B@:QWORD			; type_info::`vftable'
EXTRN	?LogAdd@@3P6AXPADZZA:DWORD			; LogAdd
EXTRN	?LogAddC@@3P6AXEPADZZA:DWORD			; LogAddC
EXTRN	?LogAddTD@@3P6AXPADZZA:DWORD			; LogAddTD
EXTRN	?gObj@@3PAVOBJECTSTRUCT@@A:DWORD		; gObj
EXTRN	?g_TerrainManager@@3VCTerrainManager@@A:BYTE	; g_TerrainManager
EXTRN	?lMsg@@3VCMsg@@A:BYTE				; lMsg
EXTRN	?MapC@@3PAVMapClass@@A:DWORD			; MapC
EXTRN	?g_iRingOrcKillGiftRate@@3HA:DWORD		; g_iRingOrcKillGiftRate
EXTRN	___security_cookie:DWORD
EXTRN	__fltused:DWORD
_BSS	SEGMENT
?SMDFile@@3PAU_iobuf@@A DD 01H DUP (?)			; SMDFile
?TokenNumber@@3MA DD 01H DUP (?)			; TokenNumber
?TokenString@@3PADA DB 064H DUP (?)			; TokenString
?CurrentToken@@3W4SMDToken@@A DD 01H DUP (?)		; CurrentToken
_BSS	ENDS
;	COMDAT ??_R1A@?0A@EA@CRingAttackEvent@@8
rdata$r	SEGMENT
??_R1A@?0A@EA@CRingAttackEvent@@8 DD FLAT:??_R0?AVCRingAttackEvent@@@8 ; CRingAttackEvent::`RTTI Base Class Descriptor at (0,-1,0,64)'
	DD	00H
	DD	00H
	DD	0ffffffffH
	DD	00H
	DD	040H
	DD	FLAT:??_R3CRingAttackEvent@@8
rdata$r	ENDS
;	COMDAT ??_R2CRingAttackEvent@@8
rdata$r	SEGMENT
??_R2CRingAttackEvent@@8 DD FLAT:??_R1A@?0A@EA@CRingAttackEvent@@8 ; CRingAttackEvent::`RTTI Base Class Array'
rdata$r	ENDS
;	COMDAT ??_R3CRingAttackEvent@@8
rdata$r	SEGMENT
??_R3CRingAttackEvent@@8 DD 00H				; CRingAttackEvent::`RTTI Class Hierarchy Descriptor'
	DD	00H
	DD	01H
	DD	FLAT:??_R2CRingAttackEvent@@8
rdata$r	ENDS
;	COMDAT ??_R0?AVCRingAttackEvent@@@8
data$r	SEGMENT
??_R0?AVCRingAttackEvent@@@8 DD FLAT:??_7type_info@@6B@	; CRingAttackEvent `RTTI Type Descriptor'
	DD	00H
	DB	'.?AVCRingAttackEvent@@', 00H
data$r	ENDS
;	COMDAT ??_R4CRingAttackEvent@@6B@
rdata$r	SEGMENT
??_R4CRingAttackEvent@@6B@ DD 00H			; CRingAttackEvent::`RTTI Complete Object Locator'
	DD	00H
	DD	00H
	DD	FLAT:??_R0?AVCRingAttackEvent@@@8
	DD	FLAT:??_R3CRingAttackEvent@@8
rdata$r	ENDS
;	COMDAT ??_R2MonsterHerd@@8
rdata$r	SEGMENT
??_R2MonsterHerd@@8 DD FLAT:??_R1A@?0A@EA@MonsterHerd@@8 ; MonsterHerd::`RTTI Base Class Array'
rdata$r	ENDS
;	COMDAT ??_R3MonsterHerd@@8
rdata$r	SEGMENT
??_R3MonsterHerd@@8 DD 00H				; MonsterHerd::`RTTI Class Hierarchy Descriptor'
	DD	00H
	DD	01H
	DD	FLAT:??_R2MonsterHerd@@8
rdata$r	ENDS
;	COMDAT ??_R0?AVMonsterHerd@@@8
data$r	SEGMENT
??_R0?AVMonsterHerd@@@8 DD FLAT:??_7type_info@@6B@	; MonsterHerd `RTTI Type Descriptor'
	DD	00H
	DB	'.?AVMonsterHerd@@', 00H
data$r	ENDS
;	COMDAT ??_R1A@?0A@EA@MonsterHerd@@8
rdata$r	SEGMENT
??_R1A@?0A@EA@MonsterHerd@@8 DD FLAT:??_R0?AVMonsterHerd@@@8 ; MonsterHerd::`RTTI Base Class Descriptor at (0,-1,0,64)'
	DD	00H
	DD	00H
	DD	0ffffffffH
	DD	00H
	DD	040H
	DD	FLAT:??_R3MonsterHerd@@8
rdata$r	ENDS
;	COMDAT ??_R1A@?0A@EA@CRingMonsterHerd@@8
rdata$r	SEGMENT
??_R1A@?0A@EA@CRingMonsterHerd@@8 DD FLAT:??_R0?AVCRingMonsterHerd@@@8 ; CRingMonsterHerd::`RTTI Base Class Descriptor at (0,-1,0,64)'
	DD	01H
	DD	00H
	DD	0ffffffffH
	DD	00H
	DD	040H
	DD	FLAT:??_R3CRingMonsterHerd@@8
rdata$r	ENDS
;	COMDAT ??_R2CRingMonsterHerd@@8
rdata$r	SEGMENT
??_R2CRingMonsterHerd@@8 DD FLAT:??_R1A@?0A@EA@CRingMonsterHerd@@8 ; CRingMonsterHerd::`RTTI Base Class Array'
	DD	FLAT:??_R1A@?0A@EA@MonsterHerd@@8
rdata$r	ENDS
;	COMDAT ??_R3CRingMonsterHerd@@8
rdata$r	SEGMENT
??_R3CRingMonsterHerd@@8 DD 00H				; CRingMonsterHerd::`RTTI Class Hierarchy Descriptor'
	DD	00H
	DD	02H
	DD	FLAT:??_R2CRingMonsterHerd@@8
rdata$r	ENDS
;	COMDAT ??_R0?AVCRingMonsterHerd@@@8
data$r	SEGMENT
??_R0?AVCRingMonsterHerd@@@8 DD FLAT:??_7type_info@@6B@	; CRingMonsterHerd `RTTI Type Descriptor'
	DD	00H
	DB	'.?AVCRingMonsterHerd@@', 00H
data$r	ENDS
;	COMDAT ??_R4CRingMonsterHerd@@6B@
rdata$r	SEGMENT
??_R4CRingMonsterHerd@@6B@ DD 00H			; CRingMonsterHerd::`RTTI Complete Object Locator'
	DD	00H
	DD	00H
	DD	FLAT:??_R0?AVCRingMonsterHerd@@@8
	DD	FLAT:??_R3CRingMonsterHerd@@8
rdata$r	ENDS
;	COMDAT ??_C@_0BA@FOIKENOD@vector?5too?5long@
CONST	SEGMENT
??_C@_0BA@FOIKENOD@vector?5too?5long@ DB 'vector too long', 00H ; `string'
CONST	ENDS
;	COMDAT ??_C@_0DB@PHNKOJF@?$KB?$NL?$KB?$NM?$FLEvent?5Management?$FN?5?$FLStart?$FN?5@
CONST	SEGMENT
??_C@_0DB@PHNKOJF@?$KB?$NL?$KB?$NM?$FLEvent?5Management?$FN?5?$FLStart?$FN?5@ DB 0a1H
	DB	0dbH, 0a1H, 0dcH, '[Event Management] [Start] RingAttack Event'
	DB	'!', 00H					; `string'
CONST	ENDS
;	COMDAT ??_C@_0BL@KELOKDGN@?$FLRing?5Event?$FN?5?9?5Event?5Ended@
CONST	SEGMENT
??_C@_0BL@KELOKDGN@?$FLRing?5Event?$FN?5?9?5Event?5Ended@ DB '[Ring Event'
	DB	'] - Event Ended', 00H			; `string'
CONST	ENDS
;	COMDAT ??_C@_0DK@PFGAPPAF@?$FLRing?5Event?$FN?5?9?5Monster?5Herd?5Mov@
CONST	SEGMENT
??_C@_0DK@PFGAPPAF@?$FLRing?5Event?$FN?5?9?5Monster?5Herd?5Mov@ DB '[Ring'
	DB	' Event] - Monster Herd Move MapNumber:%d, X:%d, Y:%d', 00H ; `string'
CONST	ENDS
;	COMDAT ??_C@_0EG@MJJALBNB@?$FLRing?5Event?$FN?5?9?5per?530?8S?5Inform?5@
CONST	SEGMENT
??_C@_0EG@MJJALBNB@?$FLRing?5Event?$FN?5?9?5per?530?8S?5Inform?5@ DB '[Ri'
	DB	'ng Event] - per 30''S Inform MapNumber:%d, X:%d, Y:%d, Boss L'
	DB	'ive:%d', 00H				; `string'
CONST	ENDS
;	COMDAT ??_C@_0BN@HLGPJCPM@?$FLRing?5Event?$FN?5?9?5Event?5Started@
CONST	SEGMENT
??_C@_0BN@HLGPJCPM@?$FLRing?5Event?$FN?5?9?5Event?5Started@ DB '[Ring Eve'
	DB	'nt] - Event Started', 00H			; `string'
CONST	ENDS
;	COMDAT ??_C@_0CM@NAOFHPPM@?$FLRing?5Event?$FN?5?9?5Before?53?5minutes@
CONST	SEGMENT
??_C@_0CM@NAOFHPPM@?$FLRing?5Event?$FN?5?9?5Before?53?5minutes@ DB '[Ring'
	DB	' Event] - Before 3 minutes - Advertise', 00H ; `string'
CONST	ENDS
;	COMDAT ??_C@_0EG@KMBELKMF@?$FLRing?5Event?$FN?5Sync?5Start?5Time?4?5?$FL@
CONST	SEGMENT
??_C@_0EG@KMBELKMF@?$FLRing?5Event?$FN?5Sync?5Start?5Time?4?5?$FL@ DB '[R'
	DB	'ing Event] Sync Start Time. [%d] min remain (START HOUR:%d, M'
	DB	'IN:%d)', 00H				; `string'
CONST	ENDS
;	COMDAT ??_C@_0CD@BNKPBCAA@?$FLRing?5Event?$FN?5No?5Schedule?5Time?5D@
CONST	SEGMENT
??_C@_0CD@BNKPBCAA@?$FLRing?5Event?$FN?5No?5Schedule?5Time?5D@ DB '[Ring '
	DB	'Event] No Schedule Time Data', 00H		; `string'
CONST	ENDS
;	COMDAT ??_C@_0O@CEHBAEMJ@?$CFs?5file?5load?$CB@
CONST	SEGMENT
??_C@_0O@CEHBAEMJ@?$CFs?5file?5load?$CB@ DB '%s file load!', 00H ; `string'
CONST	ENDS
;	COMDAT ??_C@_03JBJLGPFL@end@
CONST	SEGMENT
??_C@_03JBJLGPFL@end@ DB 'end', 00H			; `string'
CONST	ENDS
;	COMDAT ??_C@_0CG@OKIEPGH@?$FLRing?5Event?$FN?5Info?5file?5Load?5Fai@
CONST	SEGMENT
??_C@_0CG@OKIEPGH@?$FLRing?5Event?$FN?5Info?5file?5Load?5Fai@ DB '[Ring E'
	DB	'vent] Info file Load Fail [%s]', 00H	; `string'
CONST	ENDS
;	COMDAT ??_C@_01KDCPPGHE@r@
CONST	SEGMENT
??_C@_01KDCPPGHE@r@ DB 'r', 00H				; `string'
CONST	ENDS
;	COMDAT ??_C@_0DP@FPIHCFEB@?$FLRing?5Event?$FN?5?9?5Monster?5Start?5Po@
CONST	SEGMENT
??_C@_0DP@FPIHCFEB@?$FLRing?5Event?$FN?5?9?5Monster?5Start?5Po@ DB '[Ring'
	DB	' Event] - Monster Start Position MapNumber:%d, X:%d, Y:%d', 00H ; `string'
CONST	ENDS
;	COMDAT ??_C@_0CN@EBKICF@?$FLRing?5Event?$FN?5?9?5Error?5?3?5No?5Monst@
CONST	SEGMENT
??_C@_0CN@EBKICF@?$FLRing?5Event?$FN?5?9?5Error?5?3?5No?5Monst@ DB '[Ring'
	DB	' Event] - Error : No Monster Data Exist', 00H ; `string'
CONST	ENDS
;	COMDAT ??_C@_0EA@DGMJBKOB@?$FLRing?5Event?$FN?5?$FL?$CFs?$FN?$FL?$CFs?$FN?5Request?5t@
CONST	SEGMENT
??_C@_0EA@DGMJBKOB@?$FLRing?5Event?$FN?5?$FL?$CFs?$FN?$FL?$CFs?$FN?5Request?5t@ DB '['
	DB	'Ring Event] [%s][%s] Request to Register Gift - Gift Kind (%d'
	DB	')', 00H					; `string'
CONST	ENDS
;	COMDAT ??_C@_0DL@ELDBHEBB@?$FLRing?5Event?$FN?5White?5Wizard?5Kille@
CONST	SEGMENT
??_C@_0DL@ELDBHEBB@?$FLRing?5Event?$FN?5White?5Wizard?5Kille@ DB '[Ring E'
	DB	'vent] White Wizard Killed by [%s][%s], MapNumber:%d', 00H ; `string'
CONST	ENDS
;	COMDAT ??_7CRingAttackEvent@@6B@
CONST	SEGMENT
??_7CRingAttackEvent@@6B@ DD FLAT:??_R4CRingAttackEvent@@6B@ ; CRingAttackEvent::`vftable'
	DD	FLAT:??_ECRingAttackEvent@@UAEPAXI@Z
	DD	FLAT:?Load@CRingAttackEvent@@UAEHPAD@Z
CONST	ENDS
;	COMDAT ??_7CRingMonsterHerd@@6B@
CONST	SEGMENT
??_7CRingMonsterHerd@@6B@ DD FLAT:??_R4CRingMonsterHerd@@6B@ ; CRingMonsterHerd::`vftable'
	DD	FLAT:??_ECRingMonsterHerd@@UAEPAXI@Z
	DD	FLAT:?SetTotalInfo@MonsterHerd@@UAEHHHHH@Z
	DD	FLAT:?AddMonster@MonsterHerd@@UAEHHHH@Z
	DD	FLAT:?SetRadius@MonsterHerd@@UAEXH@Z
	DD	FLAT:?SetPosition@MonsterHerd@@UAEXEE@Z
	DD	FLAT:?Start@CRingMonsterHerd@@UAEHXZ
	DD	FLAT:?Stop@MonsterHerd@@UAEXXZ
	DD	FLAT:?CheckInRadius@MonsterHerd@@UAEHH@Z
	DD	FLAT:?GetCurrentLocation@MonsterHerd@@UAEHAAE0@Z
	DD	FLAT:?GetRandomLocation@MonsterHerd@@UAEHAAE0@Z
	DD	FLAT:?CheckLocation@MonsterHerd@@UAEHAAE0@Z
	DD	FLAT:?MoveHerd@MonsterHerd@@UAEHEE@Z
	DD	FLAT:?MonsterHerdItemDrop@CRingMonsterHerd@@UAEHPAVOBJECTSTRUCT@@@Z
	DD	FLAT:?GetMonsterData@MonsterHerd@@UAEPAU_MONSTER_HERD_DATA@@H@Z
	DD	FLAT:?BeenAttacked@MonsterHerd@@UAEXPAVOBJECTSTRUCT@@0@Z
	DD	FLAT:?OrderAttack@MonsterHerd@@UAEXPAVOBJECTSTRUCT@@0H@Z
	DD	FLAT:?MonsterBaseAct@MonsterHerd@@UAEXPAVOBJECTSTRUCT@@@Z
	DD	FLAT:?MonsterMoveAction@MonsterHerd@@UAEXPAVOBJECTSTRUCT@@@Z
	DD	FLAT:?MonsterAttackAction@CRingMonsterHerd@@UAEXPAVOBJECTSTRUCT@@0@Z
	DD	FLAT:?MonsterDieAction@MonsterHerd@@UAEXPAVOBJECTSTRUCT@@@Z
	DD	FLAT:?MonsterRegenAction@MonsterHerd@@UAEHPAVOBJECTSTRUCT@@@Z
CONST	ENDS
_DATA	SEGMENT
?g_RingEventMapNum@@3PAHA DD 00H			; g_RingEventMapNum
	DD	02H
	DD	03H
?g_RingMapPosition@@3PAY03HA DD 042H			; g_RingMapPosition
	DD	02cH
	DD	0bfH
	DD	0c5H
	DD	06fH
	DD	0eH
	DD	0e8H
	DD	07dH
	DD	088H
	DD	035H
	DD	0dfH
	DD	0b5H
?iTIME_SEC_NOTIFY@?1??ProcState_Playing@CRingAttackEvent@@QAEXXZ@4HA DD 0ffffffffH ; `CRingAttackEvent::ProcState_Playing'::`2'::iTIME_SEC_NOTIFY
?g_RingMapDestPosition@@3PAY07HA DD 085H		; g_RingMapDestPosition
	DD	04fH
	DD	057H
	DD	07eH
	DD	085H
	DD	0b2H
	DD	0b4H
	DD	07eH
	DD	0a4H
	DD	02aH
	DD	0ddH
	DD	055H
	DD	0a4H
	DD	02aH
	DD	0ddH
	DD	055H
	DD	0a0H
	DD	04bH
	DD	0a0H
	DD	04bH
	DD	098H
	DD	075H
	DD	0d1H
	DD	085H
_DATA	ENDS
;	COMDAT ??_R1A@?0A@EA@bad_array_new_length@std@@8
rdata$r	SEGMENT
??_R1A@?0A@EA@bad_array_new_length@std@@8 DD FLAT:??_R0?AVbad_array_new_length@std@@@8 ; std::bad_array_new_length::`RTTI Base Class Descriptor at (0,-1,0,64)'
	DD	02H
	DD	00H
	DD	0ffffffffH
	DD	00H
	DD	040H
	DD	FLAT:??_R3bad_array_new_length@std@@8
rdata$r	ENDS
;	COMDAT ??_R2bad_array_new_length@std@@8
rdata$r	SEGMENT
??_R2bad_array_new_length@std@@8 DD FLAT:??_R1A@?0A@EA@bad_array_new_length@std@@8 ; std::bad_array_new_length::`RTTI Base Class Array'
	DD	FLAT:??_R1A@?0A@EA@bad_alloc@std@@8
	DD	FLAT:??_R1A@?0A@EA@exception@std@@8
rdata$r	ENDS
;	COMDAT ??_R3bad_array_new_length@std@@8
rdata$r	SEGMENT
??_R3bad_array_new_length@std@@8 DD 00H			; std::bad_array_new_length::`RTTI Class Hierarchy Descriptor'
	DD	00H
	DD	03H
	DD	FLAT:??_R2bad_array_new_length@std@@8
rdata$r	ENDS
;	COMDAT ??_R4bad_array_new_length@std@@6B@
rdata$r	SEGMENT
??_R4bad_array_new_length@std@@6B@ DD 00H		; std::bad_array_new_length::`RTTI Complete Object Locator'
	DD	00H
	DD	00H
	DD	FLAT:??_R0?AVbad_array_new_length@std@@@8
	DD	FLAT:??_R3bad_array_new_length@std@@8
rdata$r	ENDS
;	COMDAT ??_R1A@?0A@EA@bad_alloc@std@@8
rdata$r	SEGMENT
??_R1A@?0A@EA@bad_alloc@std@@8 DD FLAT:??_R0?AVbad_alloc@std@@@8 ; std::bad_alloc::`RTTI Base Class Descriptor at (0,-1,0,64)'
	DD	01H
	DD	00H
	DD	0ffffffffH
	DD	00H
	DD	040H
	DD	FLAT:??_R3bad_alloc@std@@8
rdata$r	ENDS
;	COMDAT ??_R2bad_alloc@std@@8
rdata$r	SEGMENT
??_R2bad_alloc@std@@8 DD FLAT:??_R1A@?0A@EA@bad_alloc@std@@8 ; std::bad_alloc::`RTTI Base Class Array'
	DD	FLAT:??_R1A@?0A@EA@exception@std@@8
rdata$r	ENDS
;	COMDAT ??_R3bad_alloc@std@@8
rdata$r	SEGMENT
??_R3bad_alloc@std@@8 DD 00H				; std::bad_alloc::`RTTI Class Hierarchy Descriptor'
	DD	00H
	DD	02H
	DD	FLAT:??_R2bad_alloc@std@@8
rdata$r	ENDS
;	COMDAT ??_R4bad_alloc@std@@6B@
rdata$r	SEGMENT
??_R4bad_alloc@std@@6B@ DD 00H				; std::bad_alloc::`RTTI Complete Object Locator'
	DD	00H
	DD	00H
	DD	FLAT:??_R0?AVbad_alloc@std@@@8
	DD	FLAT:??_R3bad_alloc@std@@8
rdata$r	ENDS
;	COMDAT ??_R1A@?0A@EA@exception@std@@8
rdata$r	SEGMENT
??_R1A@?0A@EA@exception@std@@8 DD FLAT:??_R0?AVexception@std@@@8 ; std::exception::`RTTI Base Class Descriptor at (0,-1,0,64)'
	DD	00H
	DD	00H
	DD	0ffffffffH
	DD	00H
	DD	040H
	DD	FLAT:??_R3exception@std@@8
rdata$r	ENDS
;	COMDAT ??_R2exception@std@@8
rdata$r	SEGMENT
??_R2exception@std@@8 DD FLAT:??_R1A@?0A@EA@exception@std@@8 ; std::exception::`RTTI Base Class Array'
rdata$r	ENDS
;	COMDAT ??_R3exception@std@@8
rdata$r	SEGMENT
??_R3exception@std@@8 DD 00H				; std::exception::`RTTI Class Hierarchy Descriptor'
	DD	00H
	DD	01H
	DD	FLAT:??_R2exception@std@@8
rdata$r	ENDS
;	COMDAT ??_R4exception@std@@6B@
rdata$r	SEGMENT
??_R4exception@std@@6B@ DD 00H				; std::exception::`RTTI Complete Object Locator'
	DD	00H
	DD	00H
	DD	FLAT:??_R0?AVexception@std@@@8
	DD	FLAT:??_R3exception@std@@8
rdata$r	ENDS
;	COMDAT ??_C@_07NBCGADJA@Unknown@
CONST	SEGMENT
??_C@_07NBCGADJA@Unknown@ DB 'Unknown', 00H		; `string'
CONST	ENDS
;	COMDAT __CT??_R0?AVexception@std@@@8??0exception@std@@QAE@ABV01@@Z12
xdata$x	SEGMENT
__CT??_R0?AVexception@std@@@8??0exception@std@@QAE@ABV01@@Z12 DD 00H
	DD	FLAT:??_R0?AVexception@std@@@8
	DD	00H
	DD	0ffffffffH
	ORG $+4
	DD	0cH
	DD	FLAT:??0exception@std@@QAE@ABV01@@Z
xdata$x	ENDS
;	COMDAT ??_R0?AVexception@std@@@8
data$r	SEGMENT
??_R0?AVexception@std@@@8 DD FLAT:??_7type_info@@6B@	; std::exception `RTTI Type Descriptor'
	DD	00H
	DB	'.?AVexception@std@@', 00H
data$r	ENDS
;	COMDAT __CT??_R0?AVbad_alloc@std@@@8??0bad_alloc@std@@QAE@ABV01@@Z12
xdata$x	SEGMENT
__CT??_R0?AVbad_alloc@std@@@8??0bad_alloc@std@@QAE@ABV01@@Z12 DD 010H
	DD	FLAT:??_R0?AVbad_alloc@std@@@8
	DD	00H
	DD	0ffffffffH
	ORG $+4
	DD	0cH
	DD	FLAT:??0bad_alloc@std@@QAE@ABV01@@Z
xdata$x	ENDS
;	COMDAT ??_R0?AVbad_alloc@std@@@8
data$r	SEGMENT
??_R0?AVbad_alloc@std@@@8 DD FLAT:??_7type_info@@6B@	; std::bad_alloc `RTTI Type Descriptor'
	DD	00H
	DB	'.?AVbad_alloc@std@@', 00H
data$r	ENDS
;	COMDAT __CT??_R0?AVbad_array_new_length@std@@@8??0bad_array_new_length@std@@QAE@ABV01@@Z12
xdata$x	SEGMENT
__CT??_R0?AVbad_array_new_length@std@@@8??0bad_array_new_length@std@@QAE@ABV01@@Z12 DD 00H
	DD	FLAT:??_R0?AVbad_array_new_length@std@@@8
	DD	00H
	DD	0ffffffffH
	ORG $+4
	DD	0cH
	DD	FLAT:??0bad_array_new_length@std@@QAE@ABV01@@Z
xdata$x	ENDS
;	COMDAT ??_R0?AVbad_array_new_length@std@@@8
data$r	SEGMENT
??_R0?AVbad_array_new_length@std@@@8 DD FLAT:??_7type_info@@6B@ ; std::bad_array_new_length `RTTI Type Descriptor'
	DD	00H
	DB	'.?AVbad_array_new_length@std@@', 00H
data$r	ENDS
;	COMDAT __CTA3?AVbad_array_new_length@std@@
xdata$x	SEGMENT
__CTA3?AVbad_array_new_length@std@@ DD 03H
	DD	FLAT:__CT??_R0?AVbad_array_new_length@std@@@8??0bad_array_new_length@std@@QAE@ABV01@@Z12
	DD	FLAT:__CT??_R0?AVbad_alloc@std@@@8??0bad_alloc@std@@QAE@ABV01@@Z12
	DD	FLAT:__CT??_R0?AVexception@std@@@8??0exception@std@@QAE@ABV01@@Z12
xdata$x	ENDS
;	COMDAT __TI3?AVbad_array_new_length@std@@
xdata$x	SEGMENT
__TI3?AVbad_array_new_length@std@@ DD 00H
	DD	FLAT:??1bad_array_new_length@std@@UAE@XZ
	DD	00H
	DD	FLAT:__CTA3?AVbad_array_new_length@std@@
xdata$x	ENDS
;	COMDAT ??_C@_0BF@KINCDENJ@bad?5array?5new?5length@
CONST	SEGMENT
??_C@_0BF@KINCDENJ@bad?5array?5new?5length@ DB 'bad array new length', 00H ; `string'
CONST	ENDS
;	COMDAT ??_7bad_array_new_length@std@@6B@
CONST	SEGMENT
??_7bad_array_new_length@std@@6B@ DD FLAT:??_R4bad_array_new_length@std@@6B@ ; std::bad_array_new_length::`vftable'
	DD	FLAT:??_Ebad_array_new_length@std@@UAEPAXI@Z
	DD	FLAT:?what@exception@std@@UBEPBDXZ
CONST	ENDS
;	COMDAT ??_7bad_alloc@std@@6B@
CONST	SEGMENT
??_7bad_alloc@std@@6B@ DD FLAT:??_R4bad_alloc@std@@6B@	; std::bad_alloc::`vftable'
	DD	FLAT:??_Ebad_alloc@std@@UAEPAXI@Z
	DD	FLAT:?what@exception@std@@UBEPBDXZ
CONST	ENDS
;	COMDAT ??_C@_0BC@EOODALEL@Unknown?5exception@
CONST	SEGMENT
??_C@_0BC@EOODALEL@Unknown?5exception@ DB 'Unknown exception', 00H ; `string'
CONST	ENDS
;	COMDAT ??_7exception@std@@6B@
CONST	SEGMENT
??_7exception@std@@6B@ DD FLAT:??_R4exception@std@@6B@	; std::exception::`vftable'
	DD	FLAT:??_Eexception@std@@UAEPAXI@Z
	DD	FLAT:?what@exception@std@@UBEPBDXZ
CONST	ENDS
;	COMDAT xdata$x
xdata$x	SEGMENT
__catchsym$??$_Emplace_reallocate@ABURINGMONSTER_DATA@@@?$vector@URINGMONSTER_DATA@@V?$allocator@URINGMONSTER_DATA@@@std@@@std@@QAEPAURINGMONSTER_DATA@@QAU2@ABU2@@Z$2 DD 040H
	DD	00H
	DD	00H
	DD	FLAT:__catch$??$_Emplace_reallocate@ABURINGMONSTER_DATA@@@?$vector@URINGMONSTER_DATA@@V?$allocator@URINGMONSTER_DATA@@@std@@@std@@QAEPAURINGMONSTER_DATA@@QAU2@ABU2@@Z$0
__unwindtable$??$_Emplace_reallocate@ABURINGMONSTER_DATA@@@?$vector@URINGMONSTER_DATA@@V?$allocator@URINGMONSTER_DATA@@@std@@@std@@QAEPAURINGMONSTER_DATA@@QAU2@ABU2@@Z DD 0ffffffffH
	DD	00H
	DD	0ffffffffH
	DD	00H
__tryblocktable$??$_Emplace_reallocate@ABURINGMONSTER_DATA@@@?$vector@URINGMONSTER_DATA@@V?$allocator@URINGMONSTER_DATA@@@std@@@std@@QAEPAURINGMONSTER_DATA@@QAU2@ABU2@@Z DD 00H
	DD	00H
	DD	01H
	DD	01H
	DD	FLAT:__catchsym$??$_Emplace_reallocate@ABURINGMONSTER_DATA@@@?$vector@URINGMONSTER_DATA@@V?$allocator@URINGMONSTER_DATA@@@std@@@std@@QAEPAURINGMONSTER_DATA@@QAU2@ABU2@@Z$2
__ehfuncinfo$??$_Emplace_reallocate@ABURINGMONSTER_DATA@@@?$vector@URINGMONSTER_DATA@@V?$allocator@URINGMONSTER_DATA@@@std@@@std@@QAEPAURINGMONSTER_DATA@@QAU2@ABU2@@Z DD 019930522H
	DD	02H
	DD	FLAT:__unwindtable$??$_Emplace_reallocate@ABURINGMONSTER_DATA@@@?$vector@URINGMONSTER_DATA@@V?$allocator@URINGMONSTER_DATA@@@std@@@std@@QAEPAURINGMONSTER_DATA@@QAU2@ABU2@@Z
	DD	01H
	DD	FLAT:__tryblocktable$??$_Emplace_reallocate@ABURINGMONSTER_DATA@@@?$vector@URINGMONSTER_DATA@@V?$allocator@URINGMONSTER_DATA@@@std@@@std@@QAEPAURINGMONSTER_DATA@@QAU2@ABU2@@Z
	DD	2 DUP(00H)
	DD	00H
	DD	01H
xdata$x	ENDS
;	COMDAT xdata$x
xdata$x	SEGMENT
__catchsym$??$_Emplace_reallocate@ABURINGMONSTER_EVENT_TIME@@@?$vector@URINGMONSTER_EVENT_TIME@@V?$allocator@URINGMONSTER_EVENT_TIME@@@std@@@std@@QAEPAURINGMONSTER_EVENT_TIME@@QAU2@ABU2@@Z$2 DD 040H
	DD	00H
	DD	00H
	DD	FLAT:__catch$??$_Emplace_reallocate@ABURINGMONSTER_EVENT_TIME@@@?$vector@URINGMONSTER_EVENT_TIME@@V?$allocator@URINGMONSTER_EVENT_TIME@@@std@@@std@@QAEPAURINGMONSTER_EVENT_TIME@@QAU2@ABU2@@Z$0
__unwindtable$??$_Emplace_reallocate@ABURINGMONSTER_EVENT_TIME@@@?$vector@URINGMONSTER_EVENT_TIME@@V?$allocator@URINGMONSTER_EVENT_TIME@@@std@@@std@@QAEPAURINGMONSTER_EVENT_TIME@@QAU2@ABU2@@Z DD 0ffffffffH
	DD	00H
	DD	0ffffffffH
	DD	00H
__tryblocktable$??$_Emplace_reallocate@ABURINGMONSTER_EVENT_TIME@@@?$vector@URINGMONSTER_EVENT_TIME@@V?$allocator@URINGMONSTER_EVENT_TIME@@@std@@@std@@QAEPAURINGMONSTER_EVENT_TIME@@QAU2@ABU2@@Z DD 00H
	DD	00H
	DD	01H
	DD	01H
	DD	FLAT:__catchsym$??$_Emplace_reallocate@ABURINGMONSTER_EVENT_TIME@@@?$vector@URINGMONSTER_EVENT_TIME@@V?$allocator@URINGMONSTER_EVENT_TIME@@@std@@@std@@QAEPAURINGMONSTER_EVENT_TIME@@QAU2@ABU2@@Z$2
__ehfuncinfo$??$_Emplace_reallocate@ABURINGMONSTER_EVENT_TIME@@@?$vector@URINGMONSTER_EVENT_TIME@@V?$allocator@URINGMONSTER_EVENT_TIME@@@std@@@std@@QAEPAURINGMONSTER_EVENT_TIME@@QAU2@ABU2@@Z DD 019930522H
	DD	02H
	DD	FLAT:__unwindtable$??$_Emplace_reallocate@ABURINGMONSTER_EVENT_TIME@@@?$vector@URINGMONSTER_EVENT_TIME@@V?$allocator@URINGMONSTER_EVENT_TIME@@@std@@@std@@QAEPAURINGMONSTER_EVENT_TIME@@QAU2@ABU2@@Z
	DD	01H
	DD	FLAT:__tryblocktable$??$_Emplace_reallocate@ABURINGMONSTER_EVENT_TIME@@@?$vector@URINGMONSTER_EVENT_TIME@@V?$allocator@URINGMONSTER_EVENT_TIME@@@std@@@std@@QAEPAURINGMONSTER_EVENT_TIME@@QAU2@ABU2@@Z
	DD	2 DUP(00H)
	DD	00H
	DD	01H
xdata$x	ENDS
;	COMDAT xdata$x
xdata$x	SEGMENT
__ehfuncinfo$??1CRingAttackEvent@@UAE@XZ DD 019930522H
	DD	00H
	DD	00H
	DD	2 DUP(00H)
	DD	2 DUP(00H)
	DD	00H
	DD	05H
xdata$x	ENDS
;	COMDAT xdata$x
xdata$x	SEGMENT
__ehfuncinfo$?_Tidy@?$vector@URINGMONSTER_EVENT_TIME@@V?$allocator@URINGMONSTER_EVENT_TIME@@@std@@@std@@AAEXXZ DD 019930522H
	DD	00H
	DD	00H
	DD	2 DUP(00H)
	DD	2 DUP(00H)
	DD	00H
	DD	05H
xdata$x	ENDS
;	COMDAT xdata$x
xdata$x	SEGMENT
__ehfuncinfo$?erase@?$vector@URINGMONSTER_EVENT_TIME@@V?$allocator@URINGMONSTER_EVENT_TIME@@@std@@@std@@QAE?AV?$_Vector_iterator@V?$_Vector_val@U?$_Simple_types@URINGMONSTER_EVENT_TIME@@@std@@@std@@@2@V?$_Vector_const_iterator@V?$_Vector_val@U?$_Simple_types@URINGMONSTER_EVENT_TIME@@@std@@@std@@@2@0@Z DD 019930522H
	DD	00H
	DD	00H
	DD	2 DUP(00H)
	DD	2 DUP(00H)
	DD	00H
	DD	05H
xdata$x	ENDS
;	COMDAT xdata$x
xdata$x	SEGMENT
__ehfuncinfo$?_Tidy@?$vector@URINGMONSTER_DATA@@V?$allocator@URINGMONSTER_DATA@@@std@@@std@@AAEXXZ DD 019930522H
	DD	00H
	DD	00H
	DD	2 DUP(00H)
	DD	2 DUP(00H)
	DD	00H
	DD	05H
xdata$x	ENDS
;	COMDAT xdata$x
xdata$x	SEGMENT
__ehfuncinfo$?erase@?$vector@URINGMONSTER_DATA@@V?$allocator@URINGMONSTER_DATA@@@std@@@std@@QAE?AV?$_Vector_iterator@V?$_Vector_val@U?$_Simple_types@URINGMONSTER_DATA@@@std@@@std@@@2@V?$_Vector_const_iterator@V?$_Vector_val@U?$_Simple_types@URINGMONSTER_DATA@@@std@@@std@@@2@0@Z DD 019930522H
	DD	00H
	DD	00H
	DD	2 DUP(00H)
	DD	2 DUP(00H)
	DD	00H
	DD	05H
xdata$x	ENDS
;	COMDAT xdata$x
xdata$x	SEGMENT
__ehfuncinfo$??$_Deallocate@$07$0A@@std@@YAXPAXI@Z DD 019930522H
	DD	00H
	DD	00H
	DD	2 DUP(00H)
	DD	2 DUP(00H)
	DD	00H
	DD	05H
xdata$x	ENDS
; Function compile flags: /Odtp /ZI
; File C:\Program Files (x86)\Microsoft Visual Studio\2019\Community\VC\Tools\MSVC\14.27.29110\include\xutility
;	COMDAT ??$_Get_unwrapped@ABQAURINGMONSTER_DATA@@@std@@YA@ABQAURINGMONSTER_DATA@@@Z
_TEXT	SEGMENT
__It$ = 8						; size = 4
??$_Get_unwrapped@ABQAURINGMONSTER_DATA@@@std@@YA@ABQAURINGMONSTER_DATA@@@Z PROC ; std::_Get_unwrapped<RINGMONSTER_DATA * const &>, COMDAT

; 1229 : _NODISCARD constexpr decltype(auto) _Get_unwrapped(_Iter&& _It) {

  00000	55		 push	 ebp
  00001	8b ec		 mov	 ebp, esp
  00003	83 ec 40	 sub	 esp, 64			; 00000040H
  00006	53		 push	 ebx
  00007	56		 push	 esi
  00008	57		 push	 edi

; 1230 :     // unwrap an iterator previously subjected to _Adl_verify_range or otherwise validated
; 1231 :     if constexpr (is_pointer_v<decay_t<_Iter>>) { // special-case pointers and arrays
; 1232 :         return _It + 0;

  00009	8b 45 08	 mov	 eax, DWORD PTR __It$[ebp]
  0000c	8b 00		 mov	 eax, DWORD PTR [eax]

; 1233 :     } else if constexpr (_Unwrappable_v<_Iter>) {
; 1234 :         return static_cast<_Iter&&>(_It)._Unwrapped();
; 1235 :     } else {
; 1236 :         return static_cast<_Iter&&>(_It);
; 1237 :     }
; 1238 : }

  0000e	5f		 pop	 edi
  0000f	5e		 pop	 esi
  00010	5b		 pop	 ebx
  00011	8b e5		 mov	 esp, ebp
  00013	5d		 pop	 ebp
  00014	c3		 ret	 0
??$_Get_unwrapped@ABQAURINGMONSTER_DATA@@@std@@YA@ABQAURINGMONSTER_DATA@@@Z ENDP ; std::_Get_unwrapped<RINGMONSTER_DATA * const &>
_TEXT	ENDS
; Function compile flags: /Odtp /ZI
; File C:\Program Files (x86)\Microsoft Visual Studio\2019\Community\VC\Tools\MSVC\14.27.29110\include\xutility
;	COMDAT ??$_Get_unwrapped@ABQAURINGMONSTER_EVENT_TIME@@@std@@YA@ABQAURINGMONSTER_EVENT_TIME@@@Z
_TEXT	SEGMENT
__It$ = 8						; size = 4
??$_Get_unwrapped@ABQAURINGMONSTER_EVENT_TIME@@@std@@YA@ABQAURINGMONSTER_EVENT_TIME@@@Z PROC ; std::_Get_unwrapped<RINGMONSTER_EVENT_TIME * const &>, COMDAT

; 1229 : _NODISCARD constexpr decltype(auto) _Get_unwrapped(_Iter&& _It) {

  00000	55		 push	 ebp
  00001	8b ec		 mov	 ebp, esp
  00003	83 ec 40	 sub	 esp, 64			; 00000040H
  00006	53		 push	 ebx
  00007	56		 push	 esi
  00008	57		 push	 edi

; 1230 :     // unwrap an iterator previously subjected to _Adl_verify_range or otherwise validated
; 1231 :     if constexpr (is_pointer_v<decay_t<_Iter>>) { // special-case pointers and arrays
; 1232 :         return _It + 0;

  00009	8b 45 08	 mov	 eax, DWORD PTR __It$[ebp]
  0000c	8b 00		 mov	 eax, DWORD PTR [eax]

; 1233 :     } else if constexpr (_Unwrappable_v<_Iter>) {
; 1234 :         return static_cast<_Iter&&>(_It)._Unwrapped();
; 1235 :     } else {
; 1236 :         return static_cast<_Iter&&>(_It);
; 1237 :     }
; 1238 : }

  0000e	5f		 pop	 edi
  0000f	5e		 pop	 esi
  00010	5b		 pop	 ebx
  00011	8b e5		 mov	 esp, ebp
  00013	5d		 pop	 ebp
  00014	c3		 ret	 0
??$_Get_unwrapped@ABQAURINGMONSTER_EVENT_TIME@@@std@@YA@ABQAURINGMONSTER_EVENT_TIME@@@Z ENDP ; std::_Get_unwrapped<RINGMONSTER_EVENT_TIME * const &>
_TEXT	ENDS
; Function compile flags: /Odtp /ZI
; File C:\Program Files (x86)\Microsoft Visual Studio\2019\Community\VC\Tools\MSVC\14.27.29110\include\xmemory
;	COMDAT ??$_Get_size_of_n@$0M@@std@@YAII@Z
_TEXT	SEGMENT
__Max_possible$1 = -8					; size = 4
__Overflow_is_possible$ = -1				; size = 1
__Count$ = 8						; size = 4
??$_Get_size_of_n@$0M@@std@@YAII@Z PROC			; std::_Get_size_of_n<12>, COMDAT

; 55   : _NODISCARD constexpr size_t _Get_size_of_n(const size_t _Count) {

  00000	55		 push	 ebp
  00001	8b ec		 mov	 ebp, esp
  00003	83 ec 48	 sub	 esp, 72			; 00000048H
  00006	53		 push	 ebx
  00007	56		 push	 esi
  00008	57		 push	 edi

; 56   :     constexpr bool _Overflow_is_possible = _Ty_size > 1;

  00009	c6 45 ff 01	 mov	 BYTE PTR __Overflow_is_possible$[ebp], 1

; 57   : 
; 58   :     if _CONSTEXPR_IF (_Overflow_is_possible) {
; 59   :         constexpr size_t _Max_possible = static_cast<size_t>(-1) / _Ty_size;

  0000d	c7 45 f8 55 55
	55 15		 mov	 DWORD PTR __Max_possible$1[ebp], 357913941 ; 15555555H

; 60   :         if (_Count > _Max_possible) {

  00014	81 7d 08 55 55
	55 15		 cmp	 DWORD PTR __Count$[ebp], 357913941 ; 15555555H
  0001b	76 05		 jbe	 SHORT $LN2@Get_size_o

; 61   :             _Throw_bad_array_new_length(); // multiply overflow

  0001d	e8 00 00 00 00	 call	 ?_Throw_bad_array_new_length@std@@YAXXZ ; std::_Throw_bad_array_new_length
$LN2@Get_size_o:

; 62   :         }
; 63   :     }
; 64   : 
; 65   :     return _Count * _Ty_size;

  00022	6b 45 08 0c	 imul	 eax, DWORD PTR __Count$[ebp], 12
$LN3@Get_size_o:

; 66   : }

  00026	5f		 pop	 edi
  00027	5e		 pop	 esi
  00028	5b		 pop	 ebx
  00029	8b e5		 mov	 esp, ebp
  0002b	5d		 pop	 ebp
  0002c	c3		 ret	 0
??$_Get_size_of_n@$0M@@std@@YAII@Z ENDP			; std::_Get_size_of_n<12>
_TEXT	ENDS
; Function compile flags: /Odtp /ZI
; File C:\Program Files (x86)\Microsoft Visual Studio\2019\Community\VC\Tools\MSVC\14.27.29110\include\xmemory
;	COMDAT ??$_Uninitialized_move@PAURINGMONSTER_DATA@@V?$allocator@URINGMONSTER_DATA@@@std@@@std@@YAPAURINGMONSTER_DATA@@QAU1@0PAU1@AAV?$allocator@URINGMONSTER_DATA@@@0@@Z
_TEXT	SEGMENT
__ULast$ = -8						; size = 4
__UFirst$ = -4						; size = 4
__First$ = 8						; size = 4
__Last$ = 12						; size = 4
__Dest$ = 16						; size = 4
__Al$ = 20						; size = 4
??$_Uninitialized_move@PAURINGMONSTER_DATA@@V?$allocator@URINGMONSTER_DATA@@@std@@@std@@YAPAURINGMONSTER_DATA@@QAU1@0PAU1@AAV?$allocator@URINGMONSTER_DATA@@@0@@Z PROC ; std::_Uninitialized_move<RINGMONSTER_DATA *,std::allocator<RINGMONSTER_DATA> >, COMDAT

; 1647 :     const _InIt _First, const _InIt _Last, _Alloc_ptr_t<_Alloc> _Dest, _Alloc& _Al) {

  00000	55		 push	 ebp
  00001	8b ec		 mov	 ebp, esp
  00003	83 ec 48	 sub	 esp, 72			; 00000048H
  00006	53		 push	 ebx
  00007	56		 push	 esi
  00008	57		 push	 edi

; 1648 :     // move [_First, _Last) to raw _Dest, using _Al
; 1649 :     // note: only called internally from elsewhere in the STL
; 1650 :     using _Ptrval     = typename _Alloc::value_type*;
; 1651 :     auto _UFirst      = _Get_unwrapped(_First);

  00009	8d 45 08	 lea	 eax, DWORD PTR __First$[ebp]
  0000c	50		 push	 eax
  0000d	e8 00 00 00 00	 call	 ??$_Get_unwrapped@ABQAURINGMONSTER_DATA@@@std@@YA@ABQAURINGMONSTER_DATA@@@Z ; std::_Get_unwrapped<RINGMONSTER_DATA * const &>
  00012	83 c4 04	 add	 esp, 4
  00015	89 45 fc	 mov	 DWORD PTR __UFirst$[ebp], eax

; 1652 :     const auto _ULast = _Get_unwrapped(_Last);

  00018	8d 45 0c	 lea	 eax, DWORD PTR __Last$[ebp]
  0001b	50		 push	 eax
  0001c	e8 00 00 00 00	 call	 ??$_Get_unwrapped@ABQAURINGMONSTER_DATA@@@std@@YA@ABQAURINGMONSTER_DATA@@@Z ; std::_Get_unwrapped<RINGMONSTER_DATA * const &>
  00021	83 c4 04	 add	 esp, 4
  00024	89 45 f8	 mov	 DWORD PTR __ULast$[ebp], eax

; 1653 :     if constexpr (conjunction_v<bool_constant<_Ptr_move_cat<decltype(_UFirst), _Ptrval>::_Really_trivial>,
; 1654 :                       _Uses_default_construct<_Alloc, _Ptrval, decltype(_STD move(*_UFirst))>>) {
; 1655 :         _Copy_memmove(_UFirst, _ULast, _Unfancy(_Dest));

  00027	8b 45 10	 mov	 eax, DWORD PTR __Dest$[ebp]
  0002a	50		 push	 eax
  0002b	e8 00 00 00 00	 call	 ??$_Unfancy@URINGMONSTER_DATA@@@std@@YAPAURINGMONSTER_DATA@@PAU1@@Z ; std::_Unfancy<RINGMONSTER_DATA>
  00030	83 c4 04	 add	 esp, 4
  00033	50		 push	 eax
  00034	8b 4d f8	 mov	 ecx, DWORD PTR __ULast$[ebp]
  00037	51		 push	 ecx
  00038	8b 55 fc	 mov	 edx, DWORD PTR __UFirst$[ebp]
  0003b	52		 push	 edx
  0003c	e8 00 00 00 00	 call	 ??$_Copy_memmove@PAURINGMONSTER_DATA@@PAU1@@std@@YAPAURINGMONSTER_DATA@@PAU1@00@Z ; std::_Copy_memmove<RINGMONSTER_DATA *,RINGMONSTER_DATA *>
  00041	83 c4 0c	 add	 esp, 12			; 0000000cH

; 1656 :         return _Dest + (_ULast - _UFirst);

  00044	8b 45 f8	 mov	 eax, DWORD PTR __ULast$[ebp]
  00047	2b 45 fc	 sub	 eax, DWORD PTR __UFirst$[ebp]
  0004a	99		 cdq
  0004b	b9 0c 00 00 00	 mov	 ecx, 12			; 0000000cH
  00050	f7 f9		 idiv	 ecx
  00052	6b c0 0c	 imul	 eax, eax, 12
  00055	03 45 10	 add	 eax, DWORD PTR __Dest$[ebp]

; 1657 :     } else {
; 1658 :         _Uninitialized_backout_al<_Alloc> _Backout{_Dest, _Al};
; 1659 :         for (; _UFirst != _ULast; ++_UFirst) {
; 1660 :             _Backout._Emplace_back(_STD move(*_UFirst));
; 1661 :         }
; 1662 : 
; 1663 :         return _Backout._Release();
; 1664 :     }
; 1665 : }

  00058	5f		 pop	 edi
  00059	5e		 pop	 esi
  0005a	5b		 pop	 ebx
  0005b	8b e5		 mov	 esp, ebp
  0005d	5d		 pop	 ebp
  0005e	c3		 ret	 0
??$_Uninitialized_move@PAURINGMONSTER_DATA@@V?$allocator@URINGMONSTER_DATA@@@std@@@std@@YAPAURINGMONSTER_DATA@@QAU1@0PAU1@AAV?$allocator@URINGMONSTER_DATA@@@0@@Z ENDP ; std::_Uninitialized_move<RINGMONSTER_DATA *,std::allocator<RINGMONSTER_DATA> >
_TEXT	ENDS
; Function compile flags: /Odtp /ZI
; File C:\Program Files (x86)\Microsoft Visual Studio\2019\Community\VC\Tools\MSVC\14.27.29110\include\xmemory
;	COMDAT ??$_Get_size_of_n@$07@std@@YAII@Z
_TEXT	SEGMENT
__Max_possible$1 = -8					; size = 4
__Overflow_is_possible$ = -1				; size = 1
__Count$ = 8						; size = 4
??$_Get_size_of_n@$07@std@@YAII@Z PROC			; std::_Get_size_of_n<8>, COMDAT

; 55   : _NODISCARD constexpr size_t _Get_size_of_n(const size_t _Count) {

  00000	55		 push	 ebp
  00001	8b ec		 mov	 ebp, esp
  00003	83 ec 48	 sub	 esp, 72			; 00000048H
  00006	53		 push	 ebx
  00007	56		 push	 esi
  00008	57		 push	 edi

; 56   :     constexpr bool _Overflow_is_possible = _Ty_size > 1;

  00009	c6 45 ff 01	 mov	 BYTE PTR __Overflow_is_possible$[ebp], 1

; 57   : 
; 58   :     if _CONSTEXPR_IF (_Overflow_is_possible) {
; 59   :         constexpr size_t _Max_possible = static_cast<size_t>(-1) / _Ty_size;

  0000d	c7 45 f8 ff ff
	ff 1f		 mov	 DWORD PTR __Max_possible$1[ebp], 536870911 ; 1fffffffH

; 60   :         if (_Count > _Max_possible) {

  00014	81 7d 08 ff ff
	ff 1f		 cmp	 DWORD PTR __Count$[ebp], 536870911 ; 1fffffffH
  0001b	76 05		 jbe	 SHORT $LN2@Get_size_o

; 61   :             _Throw_bad_array_new_length(); // multiply overflow

  0001d	e8 00 00 00 00	 call	 ?_Throw_bad_array_new_length@std@@YAXXZ ; std::_Throw_bad_array_new_length
$LN2@Get_size_o:

; 62   :         }
; 63   :     }
; 64   : 
; 65   :     return _Count * _Ty_size;

  00022	8b 45 08	 mov	 eax, DWORD PTR __Count$[ebp]
  00025	c1 e0 03	 shl	 eax, 3
$LN3@Get_size_o:

; 66   : }

  00028	5f		 pop	 edi
  00029	5e		 pop	 esi
  0002a	5b		 pop	 ebx
  0002b	8b e5		 mov	 esp, ebp
  0002d	5d		 pop	 ebp
  0002e	c3		 ret	 0
??$_Get_size_of_n@$07@std@@YAII@Z ENDP			; std::_Get_size_of_n<8>
_TEXT	ENDS
; Function compile flags: /Odtp /ZI
; File C:\Program Files (x86)\Microsoft Visual Studio\2019\Community\VC\Tools\MSVC\14.27.29110\include\xmemory
;	COMDAT ??$_Uninitialized_move@PAURINGMONSTER_EVENT_TIME@@V?$allocator@URINGMONSTER_EVENT_TIME@@@std@@@std@@YAPAURINGMONSTER_EVENT_TIME@@QAU1@0PAU1@AAV?$allocator@URINGMONSTER_EVENT_TIME@@@0@@Z
_TEXT	SEGMENT
__ULast$ = -8						; size = 4
__UFirst$ = -4						; size = 4
__First$ = 8						; size = 4
__Last$ = 12						; size = 4
__Dest$ = 16						; size = 4
__Al$ = 20						; size = 4
??$_Uninitialized_move@PAURINGMONSTER_EVENT_TIME@@V?$allocator@URINGMONSTER_EVENT_TIME@@@std@@@std@@YAPAURINGMONSTER_EVENT_TIME@@QAU1@0PAU1@AAV?$allocator@URINGMONSTER_EVENT_TIME@@@0@@Z PROC ; std::_Uninitialized_move<RINGMONSTER_EVENT_TIME *,std::allocator<RINGMONSTER_EVENT_TIME> >, COMDAT

; 1647 :     const _InIt _First, const _InIt _Last, _Alloc_ptr_t<_Alloc> _Dest, _Alloc& _Al) {

  00000	55		 push	 ebp
  00001	8b ec		 mov	 ebp, esp
  00003	83 ec 48	 sub	 esp, 72			; 00000048H
  00006	53		 push	 ebx
  00007	56		 push	 esi
  00008	57		 push	 edi

; 1648 :     // move [_First, _Last) to raw _Dest, using _Al
; 1649 :     // note: only called internally from elsewhere in the STL
; 1650 :     using _Ptrval     = typename _Alloc::value_type*;
; 1651 :     auto _UFirst      = _Get_unwrapped(_First);

  00009	8d 45 08	 lea	 eax, DWORD PTR __First$[ebp]
  0000c	50		 push	 eax
  0000d	e8 00 00 00 00	 call	 ??$_Get_unwrapped@ABQAURINGMONSTER_EVENT_TIME@@@std@@YA@ABQAURINGMONSTER_EVENT_TIME@@@Z ; std::_Get_unwrapped<RINGMONSTER_EVENT_TIME * const &>
  00012	83 c4 04	 add	 esp, 4
  00015	89 45 fc	 mov	 DWORD PTR __UFirst$[ebp], eax

; 1652 :     const auto _ULast = _Get_unwrapped(_Last);

  00018	8d 45 0c	 lea	 eax, DWORD PTR __Last$[ebp]
  0001b	50		 push	 eax
  0001c	e8 00 00 00 00	 call	 ??$_Get_unwrapped@ABQAURINGMONSTER_EVENT_TIME@@@std@@YA@ABQAURINGMONSTER_EVENT_TIME@@@Z ; std::_Get_unwrapped<RINGMONSTER_EVENT_TIME * const &>
  00021	83 c4 04	 add	 esp, 4
  00024	89 45 f8	 mov	 DWORD PTR __ULast$[ebp], eax

; 1653 :     if constexpr (conjunction_v<bool_constant<_Ptr_move_cat<decltype(_UFirst), _Ptrval>::_Really_trivial>,
; 1654 :                       _Uses_default_construct<_Alloc, _Ptrval, decltype(_STD move(*_UFirst))>>) {
; 1655 :         _Copy_memmove(_UFirst, _ULast, _Unfancy(_Dest));

  00027	8b 45 10	 mov	 eax, DWORD PTR __Dest$[ebp]
  0002a	50		 push	 eax
  0002b	e8 00 00 00 00	 call	 ??$_Unfancy@URINGMONSTER_EVENT_TIME@@@std@@YAPAURINGMONSTER_EVENT_TIME@@PAU1@@Z ; std::_Unfancy<RINGMONSTER_EVENT_TIME>
  00030	83 c4 04	 add	 esp, 4
  00033	50		 push	 eax
  00034	8b 4d f8	 mov	 ecx, DWORD PTR __ULast$[ebp]
  00037	51		 push	 ecx
  00038	8b 55 fc	 mov	 edx, DWORD PTR __UFirst$[ebp]
  0003b	52		 push	 edx
  0003c	e8 00 00 00 00	 call	 ??$_Copy_memmove@PAURINGMONSTER_EVENT_TIME@@PAU1@@std@@YAPAURINGMONSTER_EVENT_TIME@@PAU1@00@Z ; std::_Copy_memmove<RINGMONSTER_EVENT_TIME *,RINGMONSTER_EVENT_TIME *>
  00041	83 c4 0c	 add	 esp, 12			; 0000000cH

; 1656 :         return _Dest + (_ULast - _UFirst);

  00044	8b 45 f8	 mov	 eax, DWORD PTR __ULast$[ebp]
  00047	2b 45 fc	 sub	 eax, DWORD PTR __UFirst$[ebp]
  0004a	c1 f8 03	 sar	 eax, 3
  0004d	8b 4d 10	 mov	 ecx, DWORD PTR __Dest$[ebp]
  00050	8d 04 c1	 lea	 eax, DWORD PTR [ecx+eax*8]

; 1657 :     } else {
; 1658 :         _Uninitialized_backout_al<_Alloc> _Backout{_Dest, _Al};
; 1659 :         for (; _UFirst != _ULast; ++_UFirst) {
; 1660 :             _Backout._Emplace_back(_STD move(*_UFirst));
; 1661 :         }
; 1662 : 
; 1663 :         return _Backout._Release();
; 1664 :     }
; 1665 : }

  00053	5f		 pop	 edi
  00054	5e		 pop	 esi
  00055	5b		 pop	 ebx
  00056	8b e5		 mov	 esp, ebp
  00058	5d		 pop	 ebp
  00059	c3		 ret	 0
??$_Uninitialized_move@PAURINGMONSTER_EVENT_TIME@@V?$allocator@URINGMONSTER_EVENT_TIME@@@std@@@std@@YAPAURINGMONSTER_EVENT_TIME@@QAU1@0PAU1@AAV?$allocator@URINGMONSTER_EVENT_TIME@@@0@@Z ENDP ; std::_Uninitialized_move<RINGMONSTER_EVENT_TIME *,std::allocator<RINGMONSTER_EVENT_TIME> >
_TEXT	ENDS
; Function compile flags: /Odtp /ZI
; File C:\Program Files (x86)\Microsoft Visual Studio\2019\Community\VC\Tools\MSVC\14.27.29110\include\type_traits
;	COMDAT ??$move@AAURINGMONSTER_DATA@@@std@@YA$$QAURINGMONSTER_DATA@@AAU1@@Z
_TEXT	SEGMENT
__Arg$ = 8						; size = 4
??$move@AAURINGMONSTER_DATA@@@std@@YA$$QAURINGMONSTER_DATA@@AAU1@@Z PROC ; std::move<RINGMONSTER_DATA &>, COMDAT

; 1466 : _NODISCARD constexpr remove_reference_t<_Ty>&& move(_Ty&& _Arg) noexcept { // forward _Arg as movable

  00000	55		 push	 ebp
  00001	8b ec		 mov	 ebp, esp
  00003	83 ec 40	 sub	 esp, 64			; 00000040H
  00006	53		 push	 ebx
  00007	56		 push	 esi
  00008	57		 push	 edi

; 1467 :     return static_cast<remove_reference_t<_Ty>&&>(_Arg);

  00009	8b 45 08	 mov	 eax, DWORD PTR __Arg$[ebp]

; 1468 : }

  0000c	5f		 pop	 edi
  0000d	5e		 pop	 esi
  0000e	5b		 pop	 ebx
  0000f	8b e5		 mov	 esp, ebp
  00011	5d		 pop	 ebp
  00012	c3		 ret	 0
??$move@AAURINGMONSTER_DATA@@@std@@YA$$QAURINGMONSTER_DATA@@AAU1@@Z ENDP ; std::move<RINGMONSTER_DATA &>
_TEXT	ENDS
; Function compile flags: /Odtp /ZI
; File C:\Program Files (x86)\Microsoft Visual Studio\2019\Community\VC\Tools\MSVC\14.27.29110\include\xutility
;	COMDAT ??$_Copy_memmove@PAURINGMONSTER_DATA@@PAU1@@std@@YAPAURINGMONSTER_DATA@@PAU1@00@Z
_TEXT	SEGMENT
__Count$ = -16						; size = 4
__Dest_ch$ = -12					; size = 4
__Last_ch$ = -8						; size = 4
__First_ch$ = -4					; size = 4
__First$ = 8						; size = 4
__Last$ = 12						; size = 4
__Dest$ = 16						; size = 4
??$_Copy_memmove@PAURINGMONSTER_DATA@@PAU1@@std@@YAPAURINGMONSTER_DATA@@PAU1@00@Z PROC ; std::_Copy_memmove<RINGMONSTER_DATA *,RINGMONSTER_DATA *>, COMDAT

; 4113 : _OutIt _Copy_memmove(_InIt _First, _InIt _Last, _OutIt _Dest) {

  00000	55		 push	 ebp
  00001	8b ec		 mov	 ebp, esp
  00003	83 ec 50	 sub	 esp, 80			; 00000050H
  00006	53		 push	 ebx
  00007	56		 push	 esi
  00008	57		 push	 edi

; 4114 :     const char* const _First_ch = const_cast<const char*>(reinterpret_cast<const volatile char*>(_First));

  00009	8b 45 08	 mov	 eax, DWORD PTR __First$[ebp]
  0000c	89 45 fc	 mov	 DWORD PTR __First_ch$[ebp], eax

; 4115 :     const char* const _Last_ch  = const_cast<const char*>(reinterpret_cast<const volatile char*>(_Last));

  0000f	8b 45 0c	 mov	 eax, DWORD PTR __Last$[ebp]
  00012	89 45 f8	 mov	 DWORD PTR __Last_ch$[ebp], eax

; 4116 :     char* const _Dest_ch        = const_cast<char*>(reinterpret_cast<volatile char*>(_Dest));

  00015	8b 45 10	 mov	 eax, DWORD PTR __Dest$[ebp]
  00018	89 45 f4	 mov	 DWORD PTR __Dest_ch$[ebp], eax

; 4117 :     const auto _Count           = static_cast<size_t>(_Last_ch - _First_ch);

  0001b	8b 45 f8	 mov	 eax, DWORD PTR __Last_ch$[ebp]
  0001e	2b 45 fc	 sub	 eax, DWORD PTR __First_ch$[ebp]
  00021	89 45 f0	 mov	 DWORD PTR __Count$[ebp], eax

; 4118 :     _CSTD memmove(_Dest_ch, _First_ch, _Count);

  00024	8b 45 f0	 mov	 eax, DWORD PTR __Count$[ebp]
  00027	50		 push	 eax
  00028	8b 4d fc	 mov	 ecx, DWORD PTR __First_ch$[ebp]
  0002b	51		 push	 ecx
  0002c	8b 55 f4	 mov	 edx, DWORD PTR __Dest_ch$[ebp]
  0002f	52		 push	 edx
  00030	e8 00 00 00 00	 call	 _memmove
  00035	83 c4 0c	 add	 esp, 12			; 0000000cH

; 4119 :     return reinterpret_cast<_OutIt>(_Dest_ch + _Count);

  00038	8b 45 f4	 mov	 eax, DWORD PTR __Dest_ch$[ebp]
  0003b	03 45 f0	 add	 eax, DWORD PTR __Count$[ebp]

; 4120 : }

  0003e	5f		 pop	 edi
  0003f	5e		 pop	 esi
  00040	5b		 pop	 ebx
  00041	8b e5		 mov	 esp, ebp
  00043	5d		 pop	 ebp
  00044	c3		 ret	 0
??$_Copy_memmove@PAURINGMONSTER_DATA@@PAU1@@std@@YAPAURINGMONSTER_DATA@@PAU1@00@Z ENDP ; std::_Copy_memmove<RINGMONSTER_DATA *,RINGMONSTER_DATA *>
_TEXT	ENDS
; Function compile flags: /Odtp /ZI
; File C:\Program Files (x86)\Microsoft Visual Studio\2019\Community\VC\Tools\MSVC\14.27.29110\include\type_traits
;	COMDAT ??$move@AAURINGMONSTER_EVENT_TIME@@@std@@YA$$QAURINGMONSTER_EVENT_TIME@@AAU1@@Z
_TEXT	SEGMENT
__Arg$ = 8						; size = 4
??$move@AAURINGMONSTER_EVENT_TIME@@@std@@YA$$QAURINGMONSTER_EVENT_TIME@@AAU1@@Z PROC ; std::move<RINGMONSTER_EVENT_TIME &>, COMDAT

; 1466 : _NODISCARD constexpr remove_reference_t<_Ty>&& move(_Ty&& _Arg) noexcept { // forward _Arg as movable

  00000	55		 push	 ebp
  00001	8b ec		 mov	 ebp, esp
  00003	83 ec 40	 sub	 esp, 64			; 00000040H
  00006	53		 push	 ebx
  00007	56		 push	 esi
  00008	57		 push	 edi

; 1467 :     return static_cast<remove_reference_t<_Ty>&&>(_Arg);

  00009	8b 45 08	 mov	 eax, DWORD PTR __Arg$[ebp]

; 1468 : }

  0000c	5f		 pop	 edi
  0000d	5e		 pop	 esi
  0000e	5b		 pop	 ebx
  0000f	8b e5		 mov	 esp, ebp
  00011	5d		 pop	 ebp
  00012	c3		 ret	 0
??$move@AAURINGMONSTER_EVENT_TIME@@@std@@YA$$QAURINGMONSTER_EVENT_TIME@@AAU1@@Z ENDP ; std::move<RINGMONSTER_EVENT_TIME &>
_TEXT	ENDS
; Function compile flags: /Odtp /ZI
; File C:\Program Files (x86)\Microsoft Visual Studio\2019\Community\VC\Tools\MSVC\14.27.29110\include\xutility
;	COMDAT ??$_Copy_memmove@PAURINGMONSTER_EVENT_TIME@@PAU1@@std@@YAPAURINGMONSTER_EVENT_TIME@@PAU1@00@Z
_TEXT	SEGMENT
__Count$ = -16						; size = 4
__Dest_ch$ = -12					; size = 4
__Last_ch$ = -8						; size = 4
__First_ch$ = -4					; size = 4
__First$ = 8						; size = 4
__Last$ = 12						; size = 4
__Dest$ = 16						; size = 4
??$_Copy_memmove@PAURINGMONSTER_EVENT_TIME@@PAU1@@std@@YAPAURINGMONSTER_EVENT_TIME@@PAU1@00@Z PROC ; std::_Copy_memmove<RINGMONSTER_EVENT_TIME *,RINGMONSTER_EVENT_TIME *>, COMDAT

; 4113 : _OutIt _Copy_memmove(_InIt _First, _InIt _Last, _OutIt _Dest) {

  00000	55		 push	 ebp
  00001	8b ec		 mov	 ebp, esp
  00003	83 ec 50	 sub	 esp, 80			; 00000050H
  00006	53		 push	 ebx
  00007	56		 push	 esi
  00008	57		 push	 edi

; 4114 :     const char* const _First_ch = const_cast<const char*>(reinterpret_cast<const volatile char*>(_First));

  00009	8b 45 08	 mov	 eax, DWORD PTR __First$[ebp]
  0000c	89 45 fc	 mov	 DWORD PTR __First_ch$[ebp], eax

; 4115 :     const char* const _Last_ch  = const_cast<const char*>(reinterpret_cast<const volatile char*>(_Last));

  0000f	8b 45 0c	 mov	 eax, DWORD PTR __Last$[ebp]
  00012	89 45 f8	 mov	 DWORD PTR __Last_ch$[ebp], eax

; 4116 :     char* const _Dest_ch        = const_cast<char*>(reinterpret_cast<volatile char*>(_Dest));

  00015	8b 45 10	 mov	 eax, DWORD PTR __Dest$[ebp]
  00018	89 45 f4	 mov	 DWORD PTR __Dest_ch$[ebp], eax

; 4117 :     const auto _Count           = static_cast<size_t>(_Last_ch - _First_ch);

  0001b	8b 45 f8	 mov	 eax, DWORD PTR __Last_ch$[ebp]
  0001e	2b 45 fc	 sub	 eax, DWORD PTR __First_ch$[ebp]
  00021	89 45 f0	 mov	 DWORD PTR __Count$[ebp], eax

; 4118 :     _CSTD memmove(_Dest_ch, _First_ch, _Count);

  00024	8b 45 f0	 mov	 eax, DWORD PTR __Count$[ebp]
  00027	50		 push	 eax
  00028	8b 4d fc	 mov	 ecx, DWORD PTR __First_ch$[ebp]
  0002b	51		 push	 ecx
  0002c	8b 55 f4	 mov	 edx, DWORD PTR __Dest_ch$[ebp]
  0002f	52		 push	 edx
  00030	e8 00 00 00 00	 call	 _memmove
  00035	83 c4 0c	 add	 esp, 12			; 0000000cH

; 4119 :     return reinterpret_cast<_OutIt>(_Dest_ch + _Count);

  00038	8b 45 f4	 mov	 eax, DWORD PTR __Dest_ch$[ebp]
  0003b	03 45 f0	 add	 eax, DWORD PTR __Count$[ebp]

; 4120 : }

  0003e	5f		 pop	 edi
  0003f	5e		 pop	 esi
  00040	5b		 pop	 ebx
  00041	8b e5		 mov	 esp, ebp
  00043	5d		 pop	 ebp
  00044	c3		 ret	 0
??$_Copy_memmove@PAURINGMONSTER_EVENT_TIME@@PAU1@@std@@YAPAURINGMONSTER_EVENT_TIME@@PAU1@00@Z ENDP ; std::_Copy_memmove<RINGMONSTER_EVENT_TIME *,RINGMONSTER_EVENT_TIME *>
_TEXT	ENDS
; Function compile flags: /Odtp /ZI
; File C:\Program Files (x86)\Microsoft Visual Studio\2019\Community\VC\Tools\MSVC\14.27.29110\include\xmemory
;	COMDAT ??$_Destroy_range@V?$allocator@URINGMONSTER_DATA@@@std@@@std@@YAXPAURINGMONSTER_DATA@@QAU1@AAV?$allocator@URINGMONSTER_DATA@@@0@@Z
_TEXT	SEGMENT
__First$ = 8						; size = 4
__Last$ = 12						; size = 4
__Al$ = 16						; size = 4
??$_Destroy_range@V?$allocator@URINGMONSTER_DATA@@@std@@@std@@YAXPAURINGMONSTER_DATA@@QAU1@AAV?$allocator@URINGMONSTER_DATA@@@0@@Z PROC ; std::_Destroy_range<std::allocator<RINGMONSTER_DATA> >, COMDAT

; 955  : void _Destroy_range(_Alloc_ptr_t<_Alloc> _First, const _Alloc_ptr_t<_Alloc> _Last, _Alloc& _Al) noexcept {

  00000	55		 push	 ebp
  00001	8b ec		 mov	 ebp, esp
  00003	83 ec 40	 sub	 esp, 64			; 00000040H
  00006	53		 push	 ebx
  00007	56		 push	 esi
  00008	57		 push	 edi

; 956  :     // note that this is an optimization for debug mode codegen; in release mode the BE removes all of this
; 957  :     using _Ty = typename _Alloc::value_type;
; 958  :     if _CONSTEXPR_IF (!conjunction_v<is_trivially_destructible<_Ty>, _Uses_default_destroy<_Alloc, _Ty*>>) {
; 959  :         for (; _First != _Last; ++_First) {
; 960  :             allocator_traits<_Alloc>::destroy(_Al, _Unfancy(_First));
; 961  :         }
; 962  :     }
; 963  : }

  00009	5f		 pop	 edi
  0000a	5e		 pop	 esi
  0000b	5b		 pop	 ebx
  0000c	8b e5		 mov	 esp, ebp
  0000e	5d		 pop	 ebp
  0000f	c3		 ret	 0
??$_Destroy_range@V?$allocator@URINGMONSTER_DATA@@@std@@@std@@YAXPAURINGMONSTER_DATA@@QAU1@AAV?$allocator@URINGMONSTER_DATA@@@0@@Z ENDP ; std::_Destroy_range<std::allocator<RINGMONSTER_DATA> >
_TEXT	ENDS
; Function compile flags: /Odtp /ZI
; File C:\Program Files (x86)\Microsoft Visual Studio\2019\Community\VC\Tools\MSVC\14.27.29110\include\xmemory
;	COMDAT ??$_Destroy_range@V?$allocator@URINGMONSTER_EVENT_TIME@@@std@@@std@@YAXPAURINGMONSTER_EVENT_TIME@@QAU1@AAV?$allocator@URINGMONSTER_EVENT_TIME@@@0@@Z
_TEXT	SEGMENT
__First$ = 8						; size = 4
__Last$ = 12						; size = 4
__Al$ = 16						; size = 4
??$_Destroy_range@V?$allocator@URINGMONSTER_EVENT_TIME@@@std@@@std@@YAXPAURINGMONSTER_EVENT_TIME@@QAU1@AAV?$allocator@URINGMONSTER_EVENT_TIME@@@0@@Z PROC ; std::_Destroy_range<std::allocator<RINGMONSTER_EVENT_TIME> >, COMDAT

; 955  : void _Destroy_range(_Alloc_ptr_t<_Alloc> _First, const _Alloc_ptr_t<_Alloc> _Last, _Alloc& _Al) noexcept {

  00000	55		 push	 ebp
  00001	8b ec		 mov	 ebp, esp
  00003	83 ec 40	 sub	 esp, 64			; 00000040H
  00006	53		 push	 ebx
  00007	56		 push	 esi
  00008	57		 push	 edi

; 956  :     // note that this is an optimization for debug mode codegen; in release mode the BE removes all of this
; 957  :     using _Ty = typename _Alloc::value_type;
; 958  :     if _CONSTEXPR_IF (!conjunction_v<is_trivially_destructible<_Ty>, _Uses_default_destroy<_Alloc, _Ty*>>) {
; 959  :         for (; _First != _Last; ++_First) {
; 960  :             allocator_traits<_Alloc>::destroy(_Al, _Unfancy(_First));
; 961  :         }
; 962  :     }
; 963  : }

  00009	5f		 pop	 edi
  0000a	5e		 pop	 esi
  0000b	5b		 pop	 ebx
  0000c	8b e5		 mov	 esp, ebp
  0000e	5d		 pop	 ebp
  0000f	c3		 ret	 0
??$_Destroy_range@V?$allocator@URINGMONSTER_EVENT_TIME@@@std@@@std@@YAXPAURINGMONSTER_EVENT_TIME@@QAU1@AAV?$allocator@URINGMONSTER_EVENT_TIME@@@0@@Z ENDP ; std::_Destroy_range<std::allocator<RINGMONSTER_EVENT_TIME> >
_TEXT	ENDS
; Function compile flags: /Odtp /ZI
; File C:\Program Files (x86)\Microsoft Visual Studio\2019\Community\VC\Tools\MSVC\14.27.29110\include\xmemory
;	COMDAT ??$?0$$V@?$_Compressed_pair@V?$allocator@URINGMONSTER_DATA@@@std@@V?$_Vector_val@U?$_Simple_types@URINGMONSTER_DATA@@@std@@@2@$00@std@@QAE@U_Zero_then_variadic_args_t@1@@Z
_TEXT	SEGMENT
_this$ = -4						; size = 4
___formal$ = 8						; size = 1
??$?0$$V@?$_Compressed_pair@V?$allocator@URINGMONSTER_DATA@@@std@@V?$_Vector_val@U?$_Simple_types@URINGMONSTER_DATA@@@std@@@2@$00@std@@QAE@U_Zero_then_variadic_args_t@1@@Z PROC ; std::_Compressed_pair<std::allocator<RINGMONSTER_DATA>,std::_Vector_val<std::_Simple_types<RINGMONSTER_DATA> >,1>::_Compressed_pair<std::allocator<RINGMONSTER_DATA>,std::_Vector_val<std::_Simple_types<RINGMONSTER_DATA> >,1><>, COMDAT
; _this$ = ecx

; 1336 :         : _Ty1(), _Myval2(_STD forward<_Other2>(_Val2)...) {}

  00000	55		 push	 ebp
  00001	8b ec		 mov	 ebp, esp
  00003	83 ec 44	 sub	 esp, 68			; 00000044H
  00006	53		 push	 ebx
  00007	56		 push	 esi
  00008	57		 push	 edi
  00009	89 4d fc	 mov	 DWORD PTR _this$[ebp], ecx
  0000c	8b 4d fc	 mov	 ecx, DWORD PTR _this$[ebp]
  0000f	e8 00 00 00 00	 call	 ??0?$allocator@URINGMONSTER_DATA@@@std@@QAE@XZ ; std::allocator<RINGMONSTER_DATA>::allocator<RINGMONSTER_DATA>
  00014	8b 4d fc	 mov	 ecx, DWORD PTR _this$[ebp]
  00017	e8 00 00 00 00	 call	 ??0?$_Vector_val@U?$_Simple_types@URINGMONSTER_DATA@@@std@@@std@@QAE@XZ ; std::_Vector_val<std::_Simple_types<RINGMONSTER_DATA> >::_Vector_val<std::_Simple_types<RINGMONSTER_DATA> >
  0001c	8b 45 fc	 mov	 eax, DWORD PTR _this$[ebp]
  0001f	5f		 pop	 edi
  00020	5e		 pop	 esi
  00021	5b		 pop	 ebx
  00022	8b e5		 mov	 esp, ebp
  00024	5d		 pop	 ebp
  00025	c2 04 00	 ret	 4
??$?0$$V@?$_Compressed_pair@V?$allocator@URINGMONSTER_DATA@@@std@@V?$_Vector_val@U?$_Simple_types@URINGMONSTER_DATA@@@std@@@2@$00@std@@QAE@U_Zero_then_variadic_args_t@1@@Z ENDP ; std::_Compressed_pair<std::allocator<RINGMONSTER_DATA>,std::_Vector_val<std::_Simple_types<RINGMONSTER_DATA> >,1>::_Compressed_pair<std::allocator<RINGMONSTER_DATA>,std::_Vector_val<std::_Simple_types<RINGMONSTER_DATA> >,1><>
_TEXT	ENDS
; Function compile flags: /Odtp /ZI
; File C:\Program Files (x86)\Microsoft Visual Studio\2019\Community\VC\Tools\MSVC\14.27.29110\include\vector
;	COMDAT ??$_Emplace_reallocate@ABURINGMONSTER_DATA@@@?$vector@URINGMONSTER_DATA@@V?$allocator@URINGMONSTER_DATA@@@std@@@std@@QAEPAURINGMONSTER_DATA@@QAU2@ABU2@@Z
_TEXT	SEGMENT
__Constructed_first$ = -64				; size = 4
__Constructed_last$ = -60				; size = 4
__Newvec$ = -56						; size = 4
__Newcapacity$ = -52					; size = 4
__Newsize$ = -48					; size = 4
__Oldsize$ = -44					; size = 4
__Whereoff$ = -40					; size = 4
__Mylast$ = -36						; size = 4
__Myfirst$ = -32					; size = 4
__My_data$ = -28					; size = 4
__Al$ = -24						; size = 4
_this$ = -20						; size = 4
__$EHRec$ = -16						; size = 16
__Whereptr$ = 8						; size = 4
_<_Val_0>$ = 12						; size = 4
??$_Emplace_reallocate@ABURINGMONSTER_DATA@@@?$vector@URINGMONSTER_DATA@@V?$allocator@URINGMONSTER_DATA@@@std@@@std@@QAEPAURINGMONSTER_DATA@@QAU2@ABU2@@Z PROC ; std::vector<RINGMONSTER_DATA,std::allocator<RINGMONSTER_DATA> >::_Emplace_reallocate<RINGMONSTER_DATA const &>, COMDAT
; _this$ = ecx

; 725  :     pointer _Emplace_reallocate(const pointer _Whereptr, _Valty&&... _Val) {

  00000	55		 push	 ebp
  00001	8b ec		 mov	 ebp, esp
  00003	6a ff		 push	 -1
  00005	68 00 00 00 00	 push	 __ehhandler$??$_Emplace_reallocate@ABURINGMONSTER_DATA@@@?$vector@URINGMONSTER_DATA@@V?$allocator@URINGMONSTER_DATA@@@std@@@std@@QAEPAURINGMONSTER_DATA@@QAU2@ABU2@@Z
  0000a	64 a1 00 00 00
	00		 mov	 eax, DWORD PTR fs:0
  00010	50		 push	 eax
  00011	51		 push	 ecx
  00012	83 ec 70	 sub	 esp, 112		; 00000070H
  00015	53		 push	 ebx
  00016	56		 push	 esi
  00017	57		 push	 edi
  00018	a1 00 00 00 00	 mov	 eax, DWORD PTR ___security_cookie
  0001d	33 c5		 xor	 eax, ebp
  0001f	50		 push	 eax
  00020	8d 45 f4	 lea	 eax, DWORD PTR __$EHRec$[ebp+4]
  00023	64 a3 00 00 00
	00		 mov	 DWORD PTR fs:0, eax
  00029	89 65 f0	 mov	 DWORD PTR __$EHRec$[ebp], esp
  0002c	89 4d ec	 mov	 DWORD PTR _this$[ebp], ecx

; 726  :         // reallocate and insert by perfectly forwarding _Val at _Whereptr
; 727  :         _Alty& _Al        = _Getal();

  0002f	8b 4d ec	 mov	 ecx, DWORD PTR _this$[ebp]
  00032	e8 00 00 00 00	 call	 ?_Getal@?$vector@URINGMONSTER_DATA@@V?$allocator@URINGMONSTER_DATA@@@std@@@std@@AAEAAV?$allocator@URINGMONSTER_DATA@@@2@XZ ; std::vector<RINGMONSTER_DATA,std::allocator<RINGMONSTER_DATA> >::_Getal
  00037	89 45 e8	 mov	 DWORD PTR __Al$[ebp], eax

; 728  :         auto& _My_data    = _Mypair._Myval2;

  0003a	8b 45 ec	 mov	 eax, DWORD PTR _this$[ebp]
  0003d	89 45 e4	 mov	 DWORD PTR __My_data$[ebp], eax

; 729  :         pointer& _Myfirst = _My_data._Myfirst;

  00040	8b 45 e4	 mov	 eax, DWORD PTR __My_data$[ebp]
  00043	89 45 e0	 mov	 DWORD PTR __Myfirst$[ebp], eax

; 730  :         pointer& _Mylast  = _My_data._Mylast;

  00046	8b 45 e4	 mov	 eax, DWORD PTR __My_data$[ebp]
  00049	83 c0 04	 add	 eax, 4
  0004c	89 45 dc	 mov	 DWORD PTR __Mylast$[ebp], eax

; 731  : 
; 732  :         _STL_INTERNAL_CHECK(_Mylast == _My_data._Myend); // check that we have no unused capacity
; 733  : 
; 734  :         const auto _Whereoff = static_cast<size_type>(_Whereptr - _Myfirst);

  0004f	8b 45 e0	 mov	 eax, DWORD PTR __Myfirst$[ebp]
  00052	8b 4d 08	 mov	 ecx, DWORD PTR __Whereptr$[ebp]
  00055	2b 08		 sub	 ecx, DWORD PTR [eax]
  00057	8b c1		 mov	 eax, ecx
  00059	99		 cdq
  0005a	b9 0c 00 00 00	 mov	 ecx, 12			; 0000000cH
  0005f	f7 f9		 idiv	 ecx
  00061	89 45 d8	 mov	 DWORD PTR __Whereoff$[ebp], eax

; 735  :         const auto _Oldsize  = static_cast<size_type>(_Mylast - _Myfirst);

  00064	8b 45 dc	 mov	 eax, DWORD PTR __Mylast$[ebp]
  00067	8b 4d e0	 mov	 ecx, DWORD PTR __Myfirst$[ebp]
  0006a	8b 00		 mov	 eax, DWORD PTR [eax]
  0006c	2b 01		 sub	 eax, DWORD PTR [ecx]
  0006e	99		 cdq
  0006f	b9 0c 00 00 00	 mov	 ecx, 12			; 0000000cH
  00074	f7 f9		 idiv	 ecx
  00076	89 45 d4	 mov	 DWORD PTR __Oldsize$[ebp], eax

; 736  : 
; 737  :         if (_Oldsize == max_size()) {

  00079	8b 4d ec	 mov	 ecx, DWORD PTR _this$[ebp]
  0007c	e8 00 00 00 00	 call	 ?max_size@?$vector@URINGMONSTER_DATA@@V?$allocator@URINGMONSTER_DATA@@@std@@@std@@QBEIXZ ; std::vector<RINGMONSTER_DATA,std::allocator<RINGMONSTER_DATA> >::max_size
  00081	39 45 d4	 cmp	 DWORD PTR __Oldsize$[ebp], eax
  00084	75 05		 jne	 SHORT $LN2@Emplace_re

; 738  :             _Xlength();

  00086	e8 00 00 00 00	 call	 ?_Xlength@?$vector@URINGMONSTER_DATA@@V?$allocator@URINGMONSTER_DATA@@@std@@@std@@CAXXZ ; std::vector<RINGMONSTER_DATA,std::allocator<RINGMONSTER_DATA> >::_Xlength
$LN2@Emplace_re:

; 739  :         }
; 740  : 
; 741  :         const size_type _Newsize     = _Oldsize + 1;

  0008b	8b 45 d4	 mov	 eax, DWORD PTR __Oldsize$[ebp]
  0008e	83 c0 01	 add	 eax, 1
  00091	89 45 d0	 mov	 DWORD PTR __Newsize$[ebp], eax

; 742  :         const size_type _Newcapacity = _Calculate_growth(_Newsize);

  00094	8b 45 d0	 mov	 eax, DWORD PTR __Newsize$[ebp]
  00097	50		 push	 eax
  00098	8b 4d ec	 mov	 ecx, DWORD PTR _this$[ebp]
  0009b	e8 00 00 00 00	 call	 ?_Calculate_growth@?$vector@URINGMONSTER_DATA@@V?$allocator@URINGMONSTER_DATA@@@std@@@std@@ABEII@Z ; std::vector<RINGMONSTER_DATA,std::allocator<RINGMONSTER_DATA> >::_Calculate_growth
  000a0	89 45 cc	 mov	 DWORD PTR __Newcapacity$[ebp], eax

; 743  : 
; 744  :         const pointer _Newvec           = _Al.allocate(_Newcapacity);

  000a3	8b 45 cc	 mov	 eax, DWORD PTR __Newcapacity$[ebp]
  000a6	50		 push	 eax
  000a7	8b 4d e8	 mov	 ecx, DWORD PTR __Al$[ebp]
  000aa	e8 00 00 00 00	 call	 ?allocate@?$allocator@URINGMONSTER_DATA@@@std@@QAEPAURINGMONSTER_DATA@@I@Z ; std::allocator<RINGMONSTER_DATA>::allocate
  000af	89 45 c8	 mov	 DWORD PTR __Newvec$[ebp], eax

; 745  :         const pointer _Constructed_last = _Newvec + _Whereoff + 1;

  000b2	6b 45 d8 0c	 imul	 eax, DWORD PTR __Whereoff$[ebp], 12
  000b6	8b 4d c8	 mov	 ecx, DWORD PTR __Newvec$[ebp]
  000b9	8d 54 01 0c	 lea	 edx, DWORD PTR [ecx+eax+12]
  000bd	89 55 c4	 mov	 DWORD PTR __Constructed_last$[ebp], edx

; 746  :         pointer _Constructed_first      = _Constructed_last;

  000c0	8b 45 c4	 mov	 eax, DWORD PTR __Constructed_last$[ebp]
  000c3	89 45 c0	 mov	 DWORD PTR __Constructed_first$[ebp], eax

; 747  : 
; 748  :         _TRY_BEGIN

  000c6	c7 45 fc 00 00
	00 00		 mov	 DWORD PTR __$EHRec$[ebp+12], 0

; 749  :         _Alty_traits::construct(_Al, _Unfancy(_Newvec + _Whereoff), _STD forward<_Valty>(_Val)...);

  000cd	8b 45 0c	 mov	 eax, DWORD PTR _<_Val_0>$[ebp]
  000d0	50		 push	 eax
  000d1	e8 00 00 00 00	 call	 ??$forward@ABURINGMONSTER_DATA@@@std@@YAABURINGMONSTER_DATA@@ABU1@@Z ; std::forward<RINGMONSTER_DATA const &>
  000d6	83 c4 04	 add	 esp, 4
  000d9	50		 push	 eax
  000da	6b 4d d8 0c	 imul	 ecx, DWORD PTR __Whereoff$[ebp], 12
  000de	03 4d c8	 add	 ecx, DWORD PTR __Newvec$[ebp]
  000e1	51		 push	 ecx
  000e2	e8 00 00 00 00	 call	 ??$_Unfancy@URINGMONSTER_DATA@@@std@@YAPAURINGMONSTER_DATA@@PAU1@@Z ; std::_Unfancy<RINGMONSTER_DATA>
  000e7	83 c4 04	 add	 esp, 4
  000ea	50		 push	 eax
  000eb	8b 55 e8	 mov	 edx, DWORD PTR __Al$[ebp]
  000ee	52		 push	 edx
  000ef	e8 00 00 00 00	 call	 ??$construct@URINGMONSTER_DATA@@ABU1@@?$_Default_allocator_traits@V?$allocator@URINGMONSTER_DATA@@@std@@@std@@SAXAAV?$allocator@URINGMONSTER_DATA@@@1@QAURINGMONSTER_DATA@@ABU3@@Z ; std::_Default_allocator_traits<std::allocator<RINGMONSTER_DATA> >::construct<RINGMONSTER_DATA,RINGMONSTER_DATA const &>
  000f4	83 c4 0c	 add	 esp, 12			; 0000000cH

; 750  :         _Constructed_first = _Newvec + _Whereoff;

  000f7	6b 45 d8 0c	 imul	 eax, DWORD PTR __Whereoff$[ebp], 12
  000fb	03 45 c8	 add	 eax, DWORD PTR __Newvec$[ebp]
  000fe	89 45 c0	 mov	 DWORD PTR __Constructed_first$[ebp], eax

; 751  : 
; 752  :         if (_Whereptr == _Mylast) { // at back, provide strong guarantee

  00101	8b 45 dc	 mov	 eax, DWORD PTR __Mylast$[ebp]
  00104	8b 4d 08	 mov	 ecx, DWORD PTR __Whereptr$[ebp]
  00107	3b 08		 cmp	 ecx, DWORD PTR [eax]
  00109	75 1a		 jne	 SHORT $LN4@Emplace_re

; 753  :             _Umove_if_noexcept(_Myfirst, _Mylast, _Newvec);

  0010b	8b 45 c8	 mov	 eax, DWORD PTR __Newvec$[ebp]
  0010e	50		 push	 eax
  0010f	8b 4d dc	 mov	 ecx, DWORD PTR __Mylast$[ebp]
  00112	8b 11		 mov	 edx, DWORD PTR [ecx]
  00114	52		 push	 edx
  00115	8b 45 e0	 mov	 eax, DWORD PTR __Myfirst$[ebp]
  00118	8b 08		 mov	 ecx, DWORD PTR [eax]
  0011a	51		 push	 ecx
  0011b	8b 4d ec	 mov	 ecx, DWORD PTR _this$[ebp]
  0011e	e8 00 00 00 00	 call	 ?_Umove_if_noexcept@?$vector@URINGMONSTER_DATA@@V?$allocator@URINGMONSTER_DATA@@@std@@@std@@AAEXPAURINGMONSTER_DATA@@00@Z ; std::vector<RINGMONSTER_DATA,std::allocator<RINGMONSTER_DATA> >::_Umove_if_noexcept

; 754  :         } else { // provide basic guarantee

  00123	eb 3a		 jmp	 SHORT $LN5@Emplace_re
$LN4@Emplace_re:

; 755  :             _Umove(_Myfirst, _Whereptr, _Newvec);

  00125	8b 45 c8	 mov	 eax, DWORD PTR __Newvec$[ebp]
  00128	50		 push	 eax
  00129	8b 4d 08	 mov	 ecx, DWORD PTR __Whereptr$[ebp]
  0012c	51		 push	 ecx
  0012d	8b 55 e0	 mov	 edx, DWORD PTR __Myfirst$[ebp]
  00130	8b 02		 mov	 eax, DWORD PTR [edx]
  00132	50		 push	 eax
  00133	8b 4d ec	 mov	 ecx, DWORD PTR _this$[ebp]
  00136	e8 00 00 00 00	 call	 ?_Umove@?$vector@URINGMONSTER_DATA@@V?$allocator@URINGMONSTER_DATA@@@std@@@std@@AAEPAURINGMONSTER_DATA@@PAU3@00@Z ; std::vector<RINGMONSTER_DATA,std::allocator<RINGMONSTER_DATA> >::_Umove

; 756  :             _Constructed_first = _Newvec;

  0013b	8b 45 c8	 mov	 eax, DWORD PTR __Newvec$[ebp]
  0013e	89 45 c0	 mov	 DWORD PTR __Constructed_first$[ebp], eax

; 757  :             _Umove(_Whereptr, _Mylast, _Newvec + _Whereoff + 1);

  00141	6b 45 d8 0c	 imul	 eax, DWORD PTR __Whereoff$[ebp], 12
  00145	8b 4d c8	 mov	 ecx, DWORD PTR __Newvec$[ebp]
  00148	8d 54 01 0c	 lea	 edx, DWORD PTR [ecx+eax+12]
  0014c	52		 push	 edx
  0014d	8b 45 dc	 mov	 eax, DWORD PTR __Mylast$[ebp]
  00150	8b 08		 mov	 ecx, DWORD PTR [eax]
  00152	51		 push	 ecx
  00153	8b 55 08	 mov	 edx, DWORD PTR __Whereptr$[ebp]
  00156	52		 push	 edx
  00157	8b 4d ec	 mov	 ecx, DWORD PTR _this$[ebp]
  0015a	e8 00 00 00 00	 call	 ?_Umove@?$vector@URINGMONSTER_DATA@@V?$allocator@URINGMONSTER_DATA@@@std@@@std@@AAEPAURINGMONSTER_DATA@@PAU3@00@Z ; std::vector<RINGMONSTER_DATA,std::allocator<RINGMONSTER_DATA> >::_Umove
$LN5@Emplace_re:
  0015f	eb 2f		 jmp	 SHORT $LN7@Emplace_re
__catch$??$_Emplace_reallocate@ABURINGMONSTER_DATA@@@?$vector@URINGMONSTER_DATA@@V?$allocator@URINGMONSTER_DATA@@@std@@@std@@QAEPAURINGMONSTER_DATA@@QAU2@ABU2@@Z$0:

; 758  :         }
; 759  :         _CATCH_ALL
; 760  :         _Destroy(_Constructed_first, _Constructed_last);

  00161	8b 45 c4	 mov	 eax, DWORD PTR __Constructed_last$[ebp]
  00164	50		 push	 eax
  00165	8b 4d c0	 mov	 ecx, DWORD PTR __Constructed_first$[ebp]
  00168	51		 push	 ecx
  00169	8b 4d ec	 mov	 ecx, DWORD PTR _this$[ebp]
  0016c	e8 00 00 00 00	 call	 ?_Destroy@?$vector@URINGMONSTER_DATA@@V?$allocator@URINGMONSTER_DATA@@@std@@@std@@AAEXPAURINGMONSTER_DATA@@0@Z ; std::vector<RINGMONSTER_DATA,std::allocator<RINGMONSTER_DATA> >::_Destroy

; 761  :         _Al.deallocate(_Newvec, _Newcapacity);

  00171	8b 45 cc	 mov	 eax, DWORD PTR __Newcapacity$[ebp]
  00174	50		 push	 eax
  00175	8b 4d c8	 mov	 ecx, DWORD PTR __Newvec$[ebp]
  00178	51		 push	 ecx
  00179	8b 4d e8	 mov	 ecx, DWORD PTR __Al$[ebp]
  0017c	e8 00 00 00 00	 call	 ?deallocate@?$allocator@URINGMONSTER_DATA@@@std@@QAEXQAURINGMONSTER_DATA@@I@Z ; std::allocator<RINGMONSTER_DATA>::deallocate

; 762  :         _RERAISE;

  00181	6a 00		 push	 0
  00183	6a 00		 push	 0
  00185	e8 00 00 00 00	 call	 __CxxThrowException@8

; 763  :         _CATCH_END

  0018a	b8 00 00 00 00	 mov	 eax, $LN10@Emplace_re
  0018f	c3		 ret	 0
$LN7@Emplace_re:
  00190	c7 45 fc ff ff
	ff ff		 mov	 DWORD PTR __$EHRec$[ebp+12], -1
  00197	eb 07		 jmp	 SHORT __tryend$??$_Emplace_reallocate@ABURINGMONSTER_DATA@@@?$vector@URINGMONSTER_DATA@@V?$allocator@URINGMONSTER_DATA@@@std@@@std@@QAEPAURINGMONSTER_DATA@@QAU2@ABU2@@Z$1
$LN10@Emplace_re:
  00199	c7 45 fc ff ff
	ff ff		 mov	 DWORD PTR __$EHRec$[ebp+12], -1
__tryend$??$_Emplace_reallocate@ABURINGMONSTER_DATA@@@?$vector@URINGMONSTER_DATA@@V?$allocator@URINGMONSTER_DATA@@@std@@@std@@QAEPAURINGMONSTER_DATA@@QAU2@ABU2@@Z$1:

; 764  : 
; 765  :         _Change_array(_Newvec, _Newsize, _Newcapacity);

  001a0	8b 45 cc	 mov	 eax, DWORD PTR __Newcapacity$[ebp]
  001a3	50		 push	 eax
  001a4	8b 4d d0	 mov	 ecx, DWORD PTR __Newsize$[ebp]
  001a7	51		 push	 ecx
  001a8	8b 55 c8	 mov	 edx, DWORD PTR __Newvec$[ebp]
  001ab	52		 push	 edx
  001ac	8b 4d ec	 mov	 ecx, DWORD PTR _this$[ebp]
  001af	e8 00 00 00 00	 call	 ?_Change_array@?$vector@URINGMONSTER_DATA@@V?$allocator@URINGMONSTER_DATA@@@std@@@std@@AAEXQAURINGMONSTER_DATA@@II@Z ; std::vector<RINGMONSTER_DATA,std::allocator<RINGMONSTER_DATA> >::_Change_array

; 766  :         return _Newvec + _Whereoff;

  001b4	6b 45 d8 0c	 imul	 eax, DWORD PTR __Whereoff$[ebp], 12
  001b8	03 45 c8	 add	 eax, DWORD PTR __Newvec$[ebp]
$LN6@Emplace_re:

; 767  :     }

  001bb	8b 4d f4	 mov	 ecx, DWORD PTR __$EHRec$[ebp+4]
  001be	64 89 0d 00 00
	00 00		 mov	 DWORD PTR fs:0, ecx
  001c5	59		 pop	 ecx
  001c6	5f		 pop	 edi
  001c7	5e		 pop	 esi
  001c8	5b		 pop	 ebx
  001c9	8b e5		 mov	 esp, ebp
  001cb	5d		 pop	 ebp
  001cc	c2 08 00	 ret	 8
  001cf	cc		 int	 3
  001d0	cc		 int	 3
  001d1	cc		 int	 3
  001d2	cc		 int	 3
  001d3	cc		 int	 3
_TEXT	ENDS
;	COMDAT text$x
text$x	SEGMENT
__ehhandler$??$_Emplace_reallocate@ABURINGMONSTER_DATA@@@?$vector@URINGMONSTER_DATA@@V?$allocator@URINGMONSTER_DATA@@@std@@@std@@QAEPAURINGMONSTER_DATA@@QAU2@ABU2@@Z:
  00000	90		 npad	 1
  00001	90		 npad	 1
  00002	8b 54 24 08	 mov	 edx, DWORD PTR [esp+8]
  00006	8d 42 0c	 lea	 eax, DWORD PTR [edx+12]
  00009	8b 8a 7c ff ff
	ff		 mov	 ecx, DWORD PTR [edx-132]
  0000f	33 c8		 xor	 ecx, eax
  00011	e8 00 00 00 00	 call	 @__security_check_cookie@4
  00016	b8 00 00 00 00	 mov	 eax, OFFSET __ehfuncinfo$??$_Emplace_reallocate@ABURINGMONSTER_DATA@@@?$vector@URINGMONSTER_DATA@@V?$allocator@URINGMONSTER_DATA@@@std@@@std@@QAEPAURINGMONSTER_DATA@@QAU2@ABU2@@Z
  0001b	e9 00 00 00 00	 jmp	 ___CxxFrameHandler3
text$x	ENDS
??$_Emplace_reallocate@ABURINGMONSTER_DATA@@@?$vector@URINGMONSTER_DATA@@V?$allocator@URINGMONSTER_DATA@@@std@@@std@@QAEPAURINGMONSTER_DATA@@QAU2@ABU2@@Z ENDP ; std::vector<RINGMONSTER_DATA,std::allocator<RINGMONSTER_DATA> >::_Emplace_reallocate<RINGMONSTER_DATA const &>
; Function compile flags: /Odtp /ZI
; File C:\Program Files (x86)\Microsoft Visual Studio\2019\Community\VC\Tools\MSVC\14.27.29110\include\xmemory
;	COMDAT ??$construct@URINGMONSTER_DATA@@ABU1@@?$_Default_allocator_traits@V?$allocator@URINGMONSTER_DATA@@@std@@@std@@SAXAAV?$allocator@URINGMONSTER_DATA@@@1@QAURINGMONSTER_DATA@@ABU3@@Z
_TEXT	SEGMENT
$T1 = -68						; size = 4
___formal$ = 8						; size = 4
__Ptr$ = 12						; size = 4
_<_Args_0>$ = 16					; size = 4
??$construct@URINGMONSTER_DATA@@ABU1@@?$_Default_allocator_traits@V?$allocator@URINGMONSTER_DATA@@@std@@@std@@SAXAAV?$allocator@URINGMONSTER_DATA@@@1@QAURINGMONSTER_DATA@@ABU3@@Z PROC ; std::_Default_allocator_traits<std::allocator<RINGMONSTER_DATA> >::construct<RINGMONSTER_DATA,RINGMONSTER_DATA const &>, COMDAT

; 693  :     static void construct(_Alloc&, _Objty* const _Ptr, _Types&&... _Args) {

  00000	55		 push	 ebp
  00001	8b ec		 mov	 ebp, esp
  00003	83 ec 44	 sub	 esp, 68			; 00000044H
  00006	53		 push	 ebx
  00007	56		 push	 esi
  00008	57		 push	 edi

; 694  :         ::new (const_cast<void*>(static_cast<const volatile void*>(_Ptr))) _Objty(_STD forward<_Types>(_Args)...);

  00009	8b 45 0c	 mov	 eax, DWORD PTR __Ptr$[ebp]
  0000c	50		 push	 eax
  0000d	6a 0c		 push	 12			; 0000000cH
  0000f	e8 00 00 00 00	 call	 ??2@YAPAXIPAX@Z		; operator new
  00014	83 c4 08	 add	 esp, 8
  00017	89 45 bc	 mov	 DWORD PTR $T1[ebp], eax
  0001a	8b 4d 10	 mov	 ecx, DWORD PTR _<_Args_0>$[ebp]
  0001d	51		 push	 ecx
  0001e	e8 00 00 00 00	 call	 ??$forward@ABURINGMONSTER_DATA@@@std@@YAABURINGMONSTER_DATA@@ABU1@@Z ; std::forward<RINGMONSTER_DATA const &>
  00023	83 c4 04	 add	 esp, 4
  00026	8b 55 bc	 mov	 edx, DWORD PTR $T1[ebp]
  00029	8b 08		 mov	 ecx, DWORD PTR [eax]
  0002b	89 0a		 mov	 DWORD PTR [edx], ecx
  0002d	8b 48 04	 mov	 ecx, DWORD PTR [eax+4]
  00030	89 4a 04	 mov	 DWORD PTR [edx+4], ecx
  00033	8b 40 08	 mov	 eax, DWORD PTR [eax+8]
  00036	89 42 08	 mov	 DWORD PTR [edx+8], eax

; 695  :     }

  00039	5f		 pop	 edi
  0003a	5e		 pop	 esi
  0003b	5b		 pop	 ebx
  0003c	8b e5		 mov	 esp, ebp
  0003e	5d		 pop	 ebp
  0003f	c3		 ret	 0
??$construct@URINGMONSTER_DATA@@ABU1@@?$_Default_allocator_traits@V?$allocator@URINGMONSTER_DATA@@@std@@@std@@SAXAAV?$allocator@URINGMONSTER_DATA@@@1@QAURINGMONSTER_DATA@@ABU3@@Z ENDP ; std::_Default_allocator_traits<std::allocator<RINGMONSTER_DATA> >::construct<RINGMONSTER_DATA,RINGMONSTER_DATA const &>
_TEXT	ENDS
; Function compile flags: /Odtp /ZI
; File C:\Program Files (x86)\Microsoft Visual Studio\2019\Community\VC\Tools\MSVC\14.27.29110\include\xstddef
;	COMDAT ??$_Unfancy@URINGMONSTER_DATA@@@std@@YAPAURINGMONSTER_DATA@@PAU1@@Z
_TEXT	SEGMENT
__Ptr$ = 8						; size = 4
??$_Unfancy@URINGMONSTER_DATA@@@std@@YAPAURINGMONSTER_DATA@@PAU1@@Z PROC ; std::_Unfancy<RINGMONSTER_DATA>, COMDAT

; 288  : _NODISCARD constexpr _Ty* _Unfancy(_Ty* _Ptr) noexcept { // do nothing for plain pointers

  00000	55		 push	 ebp
  00001	8b ec		 mov	 ebp, esp
  00003	83 ec 40	 sub	 esp, 64			; 00000040H
  00006	53		 push	 ebx
  00007	56		 push	 esi
  00008	57		 push	 edi

; 289  :     return _Ptr;

  00009	8b 45 08	 mov	 eax, DWORD PTR __Ptr$[ebp]

; 290  : }

  0000c	5f		 pop	 edi
  0000d	5e		 pop	 esi
  0000e	5b		 pop	 ebx
  0000f	8b e5		 mov	 esp, ebp
  00011	5d		 pop	 ebp
  00012	c3		 ret	 0
??$_Unfancy@URINGMONSTER_DATA@@@std@@YAPAURINGMONSTER_DATA@@PAU1@@Z ENDP ; std::_Unfancy<RINGMONSTER_DATA>
_TEXT	ENDS
; Function compile flags: /Odtp /ZI
; File C:\Program Files (x86)\Microsoft Visual Studio\2019\Community\VC\Tools\MSVC\14.27.29110\include\vector
;	COMDAT ??$_Emplace_back_with_unused_capacity@ABURINGMONSTER_DATA@@@?$vector@URINGMONSTER_DATA@@V?$allocator@URINGMONSTER_DATA@@@std@@@std@@AAE@ABURINGMONSTER_DATA@@@Z
_TEXT	SEGMENT
__Result$ = -16						; size = 4
__Mylast$ = -12						; size = 4
__My_data$ = -8						; size = 4
_this$ = -4						; size = 4
_<_Val_0>$ = 8						; size = 4
??$_Emplace_back_with_unused_capacity@ABURINGMONSTER_DATA@@@?$vector@URINGMONSTER_DATA@@V?$allocator@URINGMONSTER_DATA@@@std@@@std@@AAE@ABURINGMONSTER_DATA@@@Z PROC ; std::vector<RINGMONSTER_DATA,std::allocator<RINGMONSTER_DATA> >::_Emplace_back_with_unused_capacity<RINGMONSTER_DATA const &>, COMDAT
; _this$ = ecx

; 682  :     decltype(auto) _Emplace_back_with_unused_capacity(_Valty&&... _Val) {

  00000	55		 push	 ebp
  00001	8b ec		 mov	 ebp, esp
  00003	83 ec 50	 sub	 esp, 80			; 00000050H
  00006	53		 push	 ebx
  00007	56		 push	 esi
  00008	57		 push	 edi
  00009	89 4d fc	 mov	 DWORD PTR _this$[ebp], ecx

; 683  :         // insert by perfectly forwarding into element at end, provide strong guarantee
; 684  :         auto& _My_data   = _Mypair._Myval2;

  0000c	8b 45 fc	 mov	 eax, DWORD PTR _this$[ebp]
  0000f	89 45 f8	 mov	 DWORD PTR __My_data$[ebp], eax

; 685  :         pointer& _Mylast = _My_data._Mylast;

  00012	8b 45 f8	 mov	 eax, DWORD PTR __My_data$[ebp]
  00015	83 c0 04	 add	 eax, 4
  00018	89 45 f4	 mov	 DWORD PTR __Mylast$[ebp], eax

; 686  :         _STL_INTERNAL_CHECK(_Mylast != _My_data._Myend); // check that we have unused capacity
; 687  :         _Alty_traits::construct(_Getal(), _Unfancy(_Mylast), _STD forward<_Valty>(_Val)...);

  0001b	8b 45 08	 mov	 eax, DWORD PTR _<_Val_0>$[ebp]
  0001e	50		 push	 eax
  0001f	e8 00 00 00 00	 call	 ??$forward@ABURINGMONSTER_DATA@@@std@@YAABURINGMONSTER_DATA@@ABU1@@Z ; std::forward<RINGMONSTER_DATA const &>
  00024	83 c4 04	 add	 esp, 4
  00027	50		 push	 eax
  00028	8b 4d f4	 mov	 ecx, DWORD PTR __Mylast$[ebp]
  0002b	8b 11		 mov	 edx, DWORD PTR [ecx]
  0002d	52		 push	 edx
  0002e	e8 00 00 00 00	 call	 ??$_Unfancy@URINGMONSTER_DATA@@@std@@YAPAURINGMONSTER_DATA@@PAU1@@Z ; std::_Unfancy<RINGMONSTER_DATA>
  00033	83 c4 04	 add	 esp, 4
  00036	50		 push	 eax
  00037	8b 4d fc	 mov	 ecx, DWORD PTR _this$[ebp]
  0003a	e8 00 00 00 00	 call	 ?_Getal@?$vector@URINGMONSTER_DATA@@V?$allocator@URINGMONSTER_DATA@@@std@@@std@@AAEAAV?$allocator@URINGMONSTER_DATA@@@2@XZ ; std::vector<RINGMONSTER_DATA,std::allocator<RINGMONSTER_DATA> >::_Getal
  0003f	50		 push	 eax
  00040	e8 00 00 00 00	 call	 ??$construct@URINGMONSTER_DATA@@ABU1@@?$_Default_allocator_traits@V?$allocator@URINGMONSTER_DATA@@@std@@@std@@SAXAAV?$allocator@URINGMONSTER_DATA@@@1@QAURINGMONSTER_DATA@@ABU3@@Z ; std::_Default_allocator_traits<std::allocator<RINGMONSTER_DATA> >::construct<RINGMONSTER_DATA,RINGMONSTER_DATA const &>
  00045	83 c4 0c	 add	 esp, 12			; 0000000cH

; 688  :         _Orphan_range(_Mylast, _Mylast);

  00048	8b 45 f4	 mov	 eax, DWORD PTR __Mylast$[ebp]
  0004b	8b 08		 mov	 ecx, DWORD PTR [eax]
  0004d	51		 push	 ecx
  0004e	8b 55 f4	 mov	 edx, DWORD PTR __Mylast$[ebp]
  00051	8b 02		 mov	 eax, DWORD PTR [edx]
  00053	50		 push	 eax
  00054	8b 4d fc	 mov	 ecx, DWORD PTR _this$[ebp]
  00057	e8 00 00 00 00	 call	 ?_Orphan_range@?$vector@URINGMONSTER_DATA@@V?$allocator@URINGMONSTER_DATA@@@std@@@std@@ABEXPAURINGMONSTER_DATA@@0@Z ; std::vector<RINGMONSTER_DATA,std::allocator<RINGMONSTER_DATA> >::_Orphan_range

; 689  :         _Ty& _Result = *_Mylast;

  0005c	8b 45 f4	 mov	 eax, DWORD PTR __Mylast$[ebp]
  0005f	8b 08		 mov	 ecx, DWORD PTR [eax]
  00061	89 4d f0	 mov	 DWORD PTR __Result$[ebp], ecx

; 690  :         ++_Mylast;

  00064	8b 45 f4	 mov	 eax, DWORD PTR __Mylast$[ebp]
  00067	8b 08		 mov	 ecx, DWORD PTR [eax]
  00069	83 c1 0c	 add	 ecx, 12			; 0000000cH
  0006c	8b 55 f4	 mov	 edx, DWORD PTR __Mylast$[ebp]
  0006f	89 0a		 mov	 DWORD PTR [edx], ecx

; 691  : #if _HAS_CXX17
; 692  :         return _Result;
; 693  : #else // ^^^ _HAS_CXX17 ^^^ // vvv !_HAS_CXX17 vvv
; 694  :         (void) _Result;
; 695  : #endif // _HAS_CXX17
; 696  :     }

  00071	5f		 pop	 edi
  00072	5e		 pop	 esi
  00073	5b		 pop	 ebx
  00074	8b e5		 mov	 esp, ebp
  00076	5d		 pop	 ebp
  00077	c2 04 00	 ret	 4
??$_Emplace_back_with_unused_capacity@ABURINGMONSTER_DATA@@@?$vector@URINGMONSTER_DATA@@V?$allocator@URINGMONSTER_DATA@@@std@@@std@@AAE@ABURINGMONSTER_DATA@@@Z ENDP ; std::vector<RINGMONSTER_DATA,std::allocator<RINGMONSTER_DATA> >::_Emplace_back_with_unused_capacity<RINGMONSTER_DATA const &>
_TEXT	ENDS
; Function compile flags: /Odtp /ZI
; File C:\Program Files (x86)\Microsoft Visual Studio\2019\Community\VC\Tools\MSVC\14.27.29110\include\type_traits
;	COMDAT ??$forward@ABURINGMONSTER_DATA@@@std@@YAABURINGMONSTER_DATA@@ABU1@@Z
_TEXT	SEGMENT
__Arg$ = 8						; size = 4
??$forward@ABURINGMONSTER_DATA@@@std@@YAABURINGMONSTER_DATA@@ABU1@@Z PROC ; std::forward<RINGMONSTER_DATA const &>, COMDAT

; 1454 :     remove_reference_t<_Ty>& _Arg) noexcept { // forward an lvalue as either an lvalue or an rvalue

  00000	55		 push	 ebp
  00001	8b ec		 mov	 ebp, esp
  00003	83 ec 40	 sub	 esp, 64			; 00000040H
  00006	53		 push	 ebx
  00007	56		 push	 esi
  00008	57		 push	 edi

; 1455 :     return static_cast<_Ty&&>(_Arg);

  00009	8b 45 08	 mov	 eax, DWORD PTR __Arg$[ebp]

; 1456 : }

  0000c	5f		 pop	 edi
  0000d	5e		 pop	 esi
  0000e	5b		 pop	 ebx
  0000f	8b e5		 mov	 esp, ebp
  00011	5d		 pop	 ebp
  00012	c3		 ret	 0
??$forward@ABURINGMONSTER_DATA@@@std@@YAABURINGMONSTER_DATA@@ABU1@@Z ENDP ; std::forward<RINGMONSTER_DATA const &>
_TEXT	ENDS
; Function compile flags: /Odtp /ZI
; File C:\Program Files (x86)\Microsoft Visual Studio\2019\Community\VC\Tools\MSVC\14.27.29110\include\vector
;	COMDAT ??$emplace_back@ABURINGMONSTER_DATA@@@?$vector@URINGMONSTER_DATA@@V?$allocator@URINGMONSTER_DATA@@@std@@@std@@QAE@ABURINGMONSTER_DATA@@@Z
_TEXT	SEGMENT
__Result$ = -16						; size = 4
__Mylast$ = -12						; size = 4
__My_data$ = -8						; size = 4
_this$ = -4						; size = 4
_<_Val_0>$ = 8						; size = 4
??$emplace_back@ABURINGMONSTER_DATA@@@?$vector@URINGMONSTER_DATA@@V?$allocator@URINGMONSTER_DATA@@@std@@@std@@QAE@ABURINGMONSTER_DATA@@@Z PROC ; std::vector<RINGMONSTER_DATA,std::allocator<RINGMONSTER_DATA> >::emplace_back<RINGMONSTER_DATA const &>, COMDAT
; _this$ = ecx

; 700  :     decltype(auto) emplace_back(_Valty&&... _Val) {

  00000	55		 push	 ebp
  00001	8b ec		 mov	 ebp, esp
  00003	83 ec 50	 sub	 esp, 80			; 00000050H
  00006	53		 push	 ebx
  00007	56		 push	 esi
  00008	57		 push	 edi
  00009	89 4d fc	 mov	 DWORD PTR _this$[ebp], ecx

; 701  :         // insert by perfectly forwarding into element at end, provide strong guarantee
; 702  :         auto& _My_data   = _Mypair._Myval2;

  0000c	8b 45 fc	 mov	 eax, DWORD PTR _this$[ebp]
  0000f	89 45 f8	 mov	 DWORD PTR __My_data$[ebp], eax

; 703  :         pointer& _Mylast = _My_data._Mylast;

  00012	8b 45 f8	 mov	 eax, DWORD PTR __My_data$[ebp]
  00015	83 c0 04	 add	 eax, 4
  00018	89 45 f4	 mov	 DWORD PTR __Mylast$[ebp], eax

; 704  :         if (_Mylast != _My_data._Myend) {

  0001b	8b 45 f4	 mov	 eax, DWORD PTR __Mylast$[ebp]
  0001e	8b 4d f8	 mov	 ecx, DWORD PTR __My_data$[ebp]
  00021	8b 10		 mov	 edx, DWORD PTR [eax]
  00023	3b 51 08	 cmp	 edx, DWORD PTR [ecx+8]
  00026	74 17		 je	 SHORT $LN2@emplace_ba

; 705  :             return _Emplace_back_with_unused_capacity(_STD forward<_Valty>(_Val)...);

  00028	8b 45 08	 mov	 eax, DWORD PTR _<_Val_0>$[ebp]
  0002b	50		 push	 eax
  0002c	e8 00 00 00 00	 call	 ??$forward@ABURINGMONSTER_DATA@@@std@@YAABURINGMONSTER_DATA@@ABU1@@Z ; std::forward<RINGMONSTER_DATA const &>
  00031	83 c4 04	 add	 esp, 4
  00034	50		 push	 eax
  00035	8b 4d fc	 mov	 ecx, DWORD PTR _this$[ebp]
  00038	e8 00 00 00 00	 call	 ??$_Emplace_back_with_unused_capacity@ABURINGMONSTER_DATA@@@?$vector@URINGMONSTER_DATA@@V?$allocator@URINGMONSTER_DATA@@@std@@@std@@AAE@ABURINGMONSTER_DATA@@@Z ; std::vector<RINGMONSTER_DATA,std::allocator<RINGMONSTER_DATA> >::_Emplace_back_with_unused_capacity<RINGMONSTER_DATA const &>
  0003d	eb 1e		 jmp	 SHORT $LN1@emplace_ba
$LN2@emplace_ba:

; 706  :         }
; 707  : 
; 708  :         _Ty& _Result = *_Emplace_reallocate(_Mylast, _STD forward<_Valty>(_Val)...);

  0003f	8b 45 08	 mov	 eax, DWORD PTR _<_Val_0>$[ebp]
  00042	50		 push	 eax
  00043	e8 00 00 00 00	 call	 ??$forward@ABURINGMONSTER_DATA@@@std@@YAABURINGMONSTER_DATA@@ABU1@@Z ; std::forward<RINGMONSTER_DATA const &>
  00048	83 c4 04	 add	 esp, 4
  0004b	50		 push	 eax
  0004c	8b 4d f4	 mov	 ecx, DWORD PTR __Mylast$[ebp]
  0004f	8b 11		 mov	 edx, DWORD PTR [ecx]
  00051	52		 push	 edx
  00052	8b 4d fc	 mov	 ecx, DWORD PTR _this$[ebp]
  00055	e8 00 00 00 00	 call	 ??$_Emplace_reallocate@ABURINGMONSTER_DATA@@@?$vector@URINGMONSTER_DATA@@V?$allocator@URINGMONSTER_DATA@@@std@@@std@@QAEPAURINGMONSTER_DATA@@QAU2@ABU2@@Z ; std::vector<RINGMONSTER_DATA,std::allocator<RINGMONSTER_DATA> >::_Emplace_reallocate<RINGMONSTER_DATA const &>
  0005a	89 45 f0	 mov	 DWORD PTR __Result$[ebp], eax
$LN1@emplace_ba:

; 709  : #if _HAS_CXX17
; 710  :         return _Result;
; 711  : #else // ^^^ _HAS_CXX17 ^^^ // vvv !_HAS_CXX17 vvv
; 712  :         (void) _Result;
; 713  : #endif // _HAS_CXX17
; 714  :     }

  0005d	5f		 pop	 edi
  0005e	5e		 pop	 esi
  0005f	5b		 pop	 ebx
  00060	8b e5		 mov	 esp, ebp
  00062	5d		 pop	 ebp
  00063	c2 04 00	 ret	 4
??$emplace_back@ABURINGMONSTER_DATA@@@?$vector@URINGMONSTER_DATA@@V?$allocator@URINGMONSTER_DATA@@@std@@@std@@QAE@ABURINGMONSTER_DATA@@@Z ENDP ; std::vector<RINGMONSTER_DATA,std::allocator<RINGMONSTER_DATA> >::emplace_back<RINGMONSTER_DATA const &>
_TEXT	ENDS
; Function compile flags: /Odtp /ZI
; File C:\Program Files (x86)\Microsoft Visual Studio\2019\Community\VC\Tools\MSVC\14.27.29110\include\xutility
;	COMDAT ??$_Move_unchecked@PAURINGMONSTER_DATA@@PAU1@@std@@YAPAURINGMONSTER_DATA@@PAU1@00@Z
_TEXT	SEGMENT
__First$ = 8						; size = 4
__Last$ = 12						; size = 4
__Dest$ = 16						; size = 4
??$_Move_unchecked@PAURINGMONSTER_DATA@@PAU1@@std@@YAPAURINGMONSTER_DATA@@PAU1@00@Z PROC ; std::_Move_unchecked<RINGMONSTER_DATA *,RINGMONSTER_DATA *>, COMDAT

; 4364 : _CONSTEXPR20 _OutIt _Move_unchecked(_InIt _First, _InIt _Last, _OutIt _Dest) {

  00000	55		 push	 ebp
  00001	8b ec		 mov	 ebp, esp
  00003	83 ec 40	 sub	 esp, 64			; 00000040H
  00006	53		 push	 ebx
  00007	56		 push	 esi
  00008	57		 push	 edi

; 4365 :     // move [_First, _Last) to [_Dest, ...)
; 4366 :     // note: _Move_unchecked has callers other than the move family
; 4367 :     if constexpr (_Ptr_move_cat<_InIt, _OutIt>::_Trivially_copyable) {
; 4368 : #ifdef __cpp_lib_is_constant_evaluated
; 4369 :         if (!_STD is_constant_evaluated())
; 4370 : #endif // __cpp_lib_is_constant_evaluated
; 4371 :         {
; 4372 :             return _Copy_memmove(_First, _Last, _Dest);

  00009	8b 45 10	 mov	 eax, DWORD PTR __Dest$[ebp]
  0000c	50		 push	 eax
  0000d	8b 4d 0c	 mov	 ecx, DWORD PTR __Last$[ebp]
  00010	51		 push	 ecx
  00011	8b 55 08	 mov	 edx, DWORD PTR __First$[ebp]
  00014	52		 push	 edx
  00015	e8 00 00 00 00	 call	 ??$_Copy_memmove@PAURINGMONSTER_DATA@@PAU1@@std@@YAPAURINGMONSTER_DATA@@PAU1@00@Z ; std::_Copy_memmove<RINGMONSTER_DATA *,RINGMONSTER_DATA *>
  0001a	83 c4 0c	 add	 esp, 12			; 0000000cH
  0001d	eb 40		 jmp	 SHORT $LN1@Move_unche

; 4373 :         }
; 4374 :     }
; 4375 : 
; 4376 :     for (; _First != _Last; ++_Dest, (void) ++_First) {

  0001f	eb 12		 jmp	 SHORT $LN4@Move_unche
$LN2@Move_unche:
  00021	8b 45 10	 mov	 eax, DWORD PTR __Dest$[ebp]
  00024	83 c0 0c	 add	 eax, 12			; 0000000cH
  00027	89 45 10	 mov	 DWORD PTR __Dest$[ebp], eax
  0002a	8b 4d 08	 mov	 ecx, DWORD PTR __First$[ebp]
  0002d	83 c1 0c	 add	 ecx, 12			; 0000000cH
  00030	89 4d 08	 mov	 DWORD PTR __First$[ebp], ecx
$LN4@Move_unche:
  00033	8b 45 08	 mov	 eax, DWORD PTR __First$[ebp]
  00036	3b 45 0c	 cmp	 eax, DWORD PTR __Last$[ebp]
  00039	74 21		 je	 SHORT $LN3@Move_unche

; 4377 :         *_Dest = _STD move(*_First);

  0003b	8b 45 08	 mov	 eax, DWORD PTR __First$[ebp]
  0003e	50		 push	 eax
  0003f	e8 00 00 00 00	 call	 ??$move@AAURINGMONSTER_DATA@@@std@@YA$$QAURINGMONSTER_DATA@@AAU1@@Z ; std::move<RINGMONSTER_DATA &>
  00044	83 c4 04	 add	 esp, 4
  00047	8b 4d 10	 mov	 ecx, DWORD PTR __Dest$[ebp]
  0004a	8b 10		 mov	 edx, DWORD PTR [eax]
  0004c	89 11		 mov	 DWORD PTR [ecx], edx
  0004e	8b 50 04	 mov	 edx, DWORD PTR [eax+4]
  00051	89 51 04	 mov	 DWORD PTR [ecx+4], edx
  00054	8b 40 08	 mov	 eax, DWORD PTR [eax+8]
  00057	89 41 08	 mov	 DWORD PTR [ecx+8], eax

; 4378 :     }

  0005a	eb c5		 jmp	 SHORT $LN2@Move_unche
$LN3@Move_unche:

; 4379 : 
; 4380 :     return _Dest;

  0005c	8b 45 10	 mov	 eax, DWORD PTR __Dest$[ebp]
$LN1@Move_unche:

; 4381 : }

  0005f	5f		 pop	 edi
  00060	5e		 pop	 esi
  00061	5b		 pop	 ebx
  00062	8b e5		 mov	 esp, ebp
  00064	5d		 pop	 ebp
  00065	c3		 ret	 0
??$_Move_unchecked@PAURINGMONSTER_DATA@@PAU1@@std@@YAPAURINGMONSTER_DATA@@PAU1@00@Z ENDP ; std::_Move_unchecked<RINGMONSTER_DATA *,RINGMONSTER_DATA *>
_TEXT	ENDS
; Function compile flags: /Odtp /ZI
; File C:\Program Files (x86)\Microsoft Visual Studio\2019\Community\VC\Tools\MSVC\14.27.29110\include\xstddef
;	COMDAT ??$addressof@V?$_Vector_val@U?$_Simple_types@URINGMONSTER_DATA@@@std@@@std@@@std@@YAPAV?$_Vector_val@U?$_Simple_types@URINGMONSTER_DATA@@@std@@@0@AAV10@@Z
_TEXT	SEGMENT
__Val$ = 8						; size = 4
??$addressof@V?$_Vector_val@U?$_Simple_types@URINGMONSTER_DATA@@@std@@@std@@@std@@YAPAV?$_Vector_val@U?$_Simple_types@URINGMONSTER_DATA@@@std@@@0@AAV10@@Z PROC ; std::addressof<std::_Vector_val<std::_Simple_types<RINGMONSTER_DATA> > >, COMDAT

; 274  : _NODISCARD constexpr _Ty* addressof(_Ty& _Val) noexcept {

  00000	55		 push	 ebp
  00001	8b ec		 mov	 ebp, esp
  00003	83 ec 40	 sub	 esp, 64			; 00000040H
  00006	53		 push	 ebx
  00007	56		 push	 esi
  00008	57		 push	 edi

; 275  :     return __builtin_addressof(_Val);

  00009	8b 45 08	 mov	 eax, DWORD PTR __Val$[ebp]

; 276  : }

  0000c	5f		 pop	 edi
  0000d	5e		 pop	 esi
  0000e	5b		 pop	 ebx
  0000f	8b e5		 mov	 esp, ebp
  00011	5d		 pop	 ebp
  00012	c3		 ret	 0
??$addressof@V?$_Vector_val@U?$_Simple_types@URINGMONSTER_DATA@@@std@@@std@@@std@@YAPAV?$_Vector_val@U?$_Simple_types@URINGMONSTER_DATA@@@std@@@0@AAV10@@Z ENDP ; std::addressof<std::_Vector_val<std::_Simple_types<RINGMONSTER_DATA> > >
_TEXT	ENDS
; Function compile flags: /Odtp /ZI
; File C:\Program Files (x86)\Microsoft Visual Studio\2019\Community\VC\Tools\MSVC\14.27.29110\include\xmemory
;	COMDAT ??$?0$$V@?$_Compressed_pair@V?$allocator@URINGMONSTER_EVENT_TIME@@@std@@V?$_Vector_val@U?$_Simple_types@URINGMONSTER_EVENT_TIME@@@std@@@2@$00@std@@QAE@U_Zero_then_variadic_args_t@1@@Z
_TEXT	SEGMENT
_this$ = -4						; size = 4
___formal$ = 8						; size = 1
??$?0$$V@?$_Compressed_pair@V?$allocator@URINGMONSTER_EVENT_TIME@@@std@@V?$_Vector_val@U?$_Simple_types@URINGMONSTER_EVENT_TIME@@@std@@@2@$00@std@@QAE@U_Zero_then_variadic_args_t@1@@Z PROC ; std::_Compressed_pair<std::allocator<RINGMONSTER_EVENT_TIME>,std::_Vector_val<std::_Simple_types<RINGMONSTER_EVENT_TIME> >,1>::_Compressed_pair<std::allocator<RINGMONSTER_EVENT_TIME>,std::_Vector_val<std::_Simple_types<RINGMONSTER_EVENT_TIME> >,1><>, COMDAT
; _this$ = ecx

; 1336 :         : _Ty1(), _Myval2(_STD forward<_Other2>(_Val2)...) {}

  00000	55		 push	 ebp
  00001	8b ec		 mov	 ebp, esp
  00003	83 ec 44	 sub	 esp, 68			; 00000044H
  00006	53		 push	 ebx
  00007	56		 push	 esi
  00008	57		 push	 edi
  00009	89 4d fc	 mov	 DWORD PTR _this$[ebp], ecx
  0000c	8b 4d fc	 mov	 ecx, DWORD PTR _this$[ebp]
  0000f	e8 00 00 00 00	 call	 ??0?$allocator@URINGMONSTER_EVENT_TIME@@@std@@QAE@XZ ; std::allocator<RINGMONSTER_EVENT_TIME>::allocator<RINGMONSTER_EVENT_TIME>
  00014	8b 4d fc	 mov	 ecx, DWORD PTR _this$[ebp]
  00017	e8 00 00 00 00	 call	 ??0?$_Vector_val@U?$_Simple_types@URINGMONSTER_EVENT_TIME@@@std@@@std@@QAE@XZ ; std::_Vector_val<std::_Simple_types<RINGMONSTER_EVENT_TIME> >::_Vector_val<std::_Simple_types<RINGMONSTER_EVENT_TIME> >
  0001c	8b 45 fc	 mov	 eax, DWORD PTR _this$[ebp]
  0001f	5f		 pop	 edi
  00020	5e		 pop	 esi
  00021	5b		 pop	 ebx
  00022	8b e5		 mov	 esp, ebp
  00024	5d		 pop	 ebp
  00025	c2 04 00	 ret	 4
??$?0$$V@?$_Compressed_pair@V?$allocator@URINGMONSTER_EVENT_TIME@@@std@@V?$_Vector_val@U?$_Simple_types@URINGMONSTER_EVENT_TIME@@@std@@@2@$00@std@@QAE@U_Zero_then_variadic_args_t@1@@Z ENDP ; std::_Compressed_pair<std::allocator<RINGMONSTER_EVENT_TIME>,std::_Vector_val<std::_Simple_types<RINGMONSTER_EVENT_TIME> >,1>::_Compressed_pair<std::allocator<RINGMONSTER_EVENT_TIME>,std::_Vector_val<std::_Simple_types<RINGMONSTER_EVENT_TIME> >,1><>
_TEXT	ENDS
; Function compile flags: /Odtp /ZI
; File C:\Program Files (x86)\Microsoft Visual Studio\2019\Community\VC\Tools\MSVC\14.27.29110\include\vector
;	COMDAT ??$_Emplace_reallocate@ABURINGMONSTER_EVENT_TIME@@@?$vector@URINGMONSTER_EVENT_TIME@@V?$allocator@URINGMONSTER_EVENT_TIME@@@std@@@std@@QAEPAURINGMONSTER_EVENT_TIME@@QAU2@ABU2@@Z
_TEXT	SEGMENT
__Constructed_first$ = -64				; size = 4
__Constructed_last$ = -60				; size = 4
__Newvec$ = -56						; size = 4
__Newcapacity$ = -52					; size = 4
__Newsize$ = -48					; size = 4
__Oldsize$ = -44					; size = 4
__Whereoff$ = -40					; size = 4
__Mylast$ = -36						; size = 4
__Myfirst$ = -32					; size = 4
__My_data$ = -28					; size = 4
__Al$ = -24						; size = 4
_this$ = -20						; size = 4
__$EHRec$ = -16						; size = 16
__Whereptr$ = 8						; size = 4
_<_Val_0>$ = 12						; size = 4
??$_Emplace_reallocate@ABURINGMONSTER_EVENT_TIME@@@?$vector@URINGMONSTER_EVENT_TIME@@V?$allocator@URINGMONSTER_EVENT_TIME@@@std@@@std@@QAEPAURINGMONSTER_EVENT_TIME@@QAU2@ABU2@@Z PROC ; std::vector<RINGMONSTER_EVENT_TIME,std::allocator<RINGMONSTER_EVENT_TIME> >::_Emplace_reallocate<RINGMONSTER_EVENT_TIME const &>, COMDAT
; _this$ = ecx

; 725  :     pointer _Emplace_reallocate(const pointer _Whereptr, _Valty&&... _Val) {

  00000	55		 push	 ebp
  00001	8b ec		 mov	 ebp, esp
  00003	6a ff		 push	 -1
  00005	68 00 00 00 00	 push	 __ehhandler$??$_Emplace_reallocate@ABURINGMONSTER_EVENT_TIME@@@?$vector@URINGMONSTER_EVENT_TIME@@V?$allocator@URINGMONSTER_EVENT_TIME@@@std@@@std@@QAEPAURINGMONSTER_EVENT_TIME@@QAU2@ABU2@@Z
  0000a	64 a1 00 00 00
	00		 mov	 eax, DWORD PTR fs:0
  00010	50		 push	 eax
  00011	51		 push	 ecx
  00012	83 ec 70	 sub	 esp, 112		; 00000070H
  00015	53		 push	 ebx
  00016	56		 push	 esi
  00017	57		 push	 edi
  00018	a1 00 00 00 00	 mov	 eax, DWORD PTR ___security_cookie
  0001d	33 c5		 xor	 eax, ebp
  0001f	50		 push	 eax
  00020	8d 45 f4	 lea	 eax, DWORD PTR __$EHRec$[ebp+4]
  00023	64 a3 00 00 00
	00		 mov	 DWORD PTR fs:0, eax
  00029	89 65 f0	 mov	 DWORD PTR __$EHRec$[ebp], esp
  0002c	89 4d ec	 mov	 DWORD PTR _this$[ebp], ecx

; 726  :         // reallocate and insert by perfectly forwarding _Val at _Whereptr
; 727  :         _Alty& _Al        = _Getal();

  0002f	8b 4d ec	 mov	 ecx, DWORD PTR _this$[ebp]
  00032	e8 00 00 00 00	 call	 ?_Getal@?$vector@URINGMONSTER_EVENT_TIME@@V?$allocator@URINGMONSTER_EVENT_TIME@@@std@@@std@@AAEAAV?$allocator@URINGMONSTER_EVENT_TIME@@@2@XZ ; std::vector<RINGMONSTER_EVENT_TIME,std::allocator<RINGMONSTER_EVENT_TIME> >::_Getal
  00037	89 45 e8	 mov	 DWORD PTR __Al$[ebp], eax

; 728  :         auto& _My_data    = _Mypair._Myval2;

  0003a	8b 45 ec	 mov	 eax, DWORD PTR _this$[ebp]
  0003d	89 45 e4	 mov	 DWORD PTR __My_data$[ebp], eax

; 729  :         pointer& _Myfirst = _My_data._Myfirst;

  00040	8b 45 e4	 mov	 eax, DWORD PTR __My_data$[ebp]
  00043	89 45 e0	 mov	 DWORD PTR __Myfirst$[ebp], eax

; 730  :         pointer& _Mylast  = _My_data._Mylast;

  00046	8b 45 e4	 mov	 eax, DWORD PTR __My_data$[ebp]
  00049	83 c0 04	 add	 eax, 4
  0004c	89 45 dc	 mov	 DWORD PTR __Mylast$[ebp], eax

; 731  : 
; 732  :         _STL_INTERNAL_CHECK(_Mylast == _My_data._Myend); // check that we have no unused capacity
; 733  : 
; 734  :         const auto _Whereoff = static_cast<size_type>(_Whereptr - _Myfirst);

  0004f	8b 45 e0	 mov	 eax, DWORD PTR __Myfirst$[ebp]
  00052	8b 4d 08	 mov	 ecx, DWORD PTR __Whereptr$[ebp]
  00055	2b 08		 sub	 ecx, DWORD PTR [eax]
  00057	c1 f9 03	 sar	 ecx, 3
  0005a	89 4d d8	 mov	 DWORD PTR __Whereoff$[ebp], ecx

; 735  :         const auto _Oldsize  = static_cast<size_type>(_Mylast - _Myfirst);

  0005d	8b 45 dc	 mov	 eax, DWORD PTR __Mylast$[ebp]
  00060	8b 4d e0	 mov	 ecx, DWORD PTR __Myfirst$[ebp]
  00063	8b 10		 mov	 edx, DWORD PTR [eax]
  00065	2b 11		 sub	 edx, DWORD PTR [ecx]
  00067	c1 fa 03	 sar	 edx, 3
  0006a	89 55 d4	 mov	 DWORD PTR __Oldsize$[ebp], edx

; 736  : 
; 737  :         if (_Oldsize == max_size()) {

  0006d	8b 4d ec	 mov	 ecx, DWORD PTR _this$[ebp]
  00070	e8 00 00 00 00	 call	 ?max_size@?$vector@URINGMONSTER_EVENT_TIME@@V?$allocator@URINGMONSTER_EVENT_TIME@@@std@@@std@@QBEIXZ ; std::vector<RINGMONSTER_EVENT_TIME,std::allocator<RINGMONSTER_EVENT_TIME> >::max_size
  00075	39 45 d4	 cmp	 DWORD PTR __Oldsize$[ebp], eax
  00078	75 05		 jne	 SHORT $LN2@Emplace_re

; 738  :             _Xlength();

  0007a	e8 00 00 00 00	 call	 ?_Xlength@?$vector@URINGMONSTER_EVENT_TIME@@V?$allocator@URINGMONSTER_EVENT_TIME@@@std@@@std@@CAXXZ ; std::vector<RINGMONSTER_EVENT_TIME,std::allocator<RINGMONSTER_EVENT_TIME> >::_Xlength
$LN2@Emplace_re:

; 739  :         }
; 740  : 
; 741  :         const size_type _Newsize     = _Oldsize + 1;

  0007f	8b 45 d4	 mov	 eax, DWORD PTR __Oldsize$[ebp]
  00082	83 c0 01	 add	 eax, 1
  00085	89 45 d0	 mov	 DWORD PTR __Newsize$[ebp], eax

; 742  :         const size_type _Newcapacity = _Calculate_growth(_Newsize);

  00088	8b 45 d0	 mov	 eax, DWORD PTR __Newsize$[ebp]
  0008b	50		 push	 eax
  0008c	8b 4d ec	 mov	 ecx, DWORD PTR _this$[ebp]
  0008f	e8 00 00 00 00	 call	 ?_Calculate_growth@?$vector@URINGMONSTER_EVENT_TIME@@V?$allocator@URINGMONSTER_EVENT_TIME@@@std@@@std@@ABEII@Z ; std::vector<RINGMONSTER_EVENT_TIME,std::allocator<RINGMONSTER_EVENT_TIME> >::_Calculate_growth
  00094	89 45 cc	 mov	 DWORD PTR __Newcapacity$[ebp], eax

; 743  : 
; 744  :         const pointer _Newvec           = _Al.allocate(_Newcapacity);

  00097	8b 45 cc	 mov	 eax, DWORD PTR __Newcapacity$[ebp]
  0009a	50		 push	 eax
  0009b	8b 4d e8	 mov	 ecx, DWORD PTR __Al$[ebp]
  0009e	e8 00 00 00 00	 call	 ?allocate@?$allocator@URINGMONSTER_EVENT_TIME@@@std@@QAEPAURINGMONSTER_EVENT_TIME@@I@Z ; std::allocator<RINGMONSTER_EVENT_TIME>::allocate
  000a3	89 45 c8	 mov	 DWORD PTR __Newvec$[ebp], eax

; 745  :         const pointer _Constructed_last = _Newvec + _Whereoff + 1;

  000a6	8b 45 d8	 mov	 eax, DWORD PTR __Whereoff$[ebp]
  000a9	8b 4d c8	 mov	 ecx, DWORD PTR __Newvec$[ebp]
  000ac	8d 54 c1 08	 lea	 edx, DWORD PTR [ecx+eax*8+8]
  000b0	89 55 c4	 mov	 DWORD PTR __Constructed_last$[ebp], edx

; 746  :         pointer _Constructed_first      = _Constructed_last;

  000b3	8b 45 c4	 mov	 eax, DWORD PTR __Constructed_last$[ebp]
  000b6	89 45 c0	 mov	 DWORD PTR __Constructed_first$[ebp], eax

; 747  : 
; 748  :         _TRY_BEGIN

  000b9	c7 45 fc 00 00
	00 00		 mov	 DWORD PTR __$EHRec$[ebp+12], 0

; 749  :         _Alty_traits::construct(_Al, _Unfancy(_Newvec + _Whereoff), _STD forward<_Valty>(_Val)...);

  000c0	8b 45 0c	 mov	 eax, DWORD PTR _<_Val_0>$[ebp]
  000c3	50		 push	 eax
  000c4	e8 00 00 00 00	 call	 ??$forward@ABURINGMONSTER_EVENT_TIME@@@std@@YAABURINGMONSTER_EVENT_TIME@@ABU1@@Z ; std::forward<RINGMONSTER_EVENT_TIME const &>
  000c9	83 c4 04	 add	 esp, 4
  000cc	50		 push	 eax
  000cd	8b 4d d8	 mov	 ecx, DWORD PTR __Whereoff$[ebp]
  000d0	8b 55 c8	 mov	 edx, DWORD PTR __Newvec$[ebp]
  000d3	8d 04 ca	 lea	 eax, DWORD PTR [edx+ecx*8]
  000d6	50		 push	 eax
  000d7	e8 00 00 00 00	 call	 ??$_Unfancy@URINGMONSTER_EVENT_TIME@@@std@@YAPAURINGMONSTER_EVENT_TIME@@PAU1@@Z ; std::_Unfancy<RINGMONSTER_EVENT_TIME>
  000dc	83 c4 04	 add	 esp, 4
  000df	50		 push	 eax
  000e0	8b 4d e8	 mov	 ecx, DWORD PTR __Al$[ebp]
  000e3	51		 push	 ecx
  000e4	e8 00 00 00 00	 call	 ??$construct@URINGMONSTER_EVENT_TIME@@ABU1@@?$_Default_allocator_traits@V?$allocator@URINGMONSTER_EVENT_TIME@@@std@@@std@@SAXAAV?$allocator@URINGMONSTER_EVENT_TIME@@@1@QAURINGMONSTER_EVENT_TIME@@ABU3@@Z ; std::_Default_allocator_traits<std::allocator<RINGMONSTER_EVENT_TIME> >::construct<RINGMONSTER_EVENT_TIME,RINGMONSTER_EVENT_TIME const &>
  000e9	83 c4 0c	 add	 esp, 12			; 0000000cH

; 750  :         _Constructed_first = _Newvec + _Whereoff;

  000ec	8b 45 d8	 mov	 eax, DWORD PTR __Whereoff$[ebp]
  000ef	8b 4d c8	 mov	 ecx, DWORD PTR __Newvec$[ebp]
  000f2	8d 14 c1	 lea	 edx, DWORD PTR [ecx+eax*8]
  000f5	89 55 c0	 mov	 DWORD PTR __Constructed_first$[ebp], edx

; 751  : 
; 752  :         if (_Whereptr == _Mylast) { // at back, provide strong guarantee

  000f8	8b 45 dc	 mov	 eax, DWORD PTR __Mylast$[ebp]
  000fb	8b 4d 08	 mov	 ecx, DWORD PTR __Whereptr$[ebp]
  000fe	3b 08		 cmp	 ecx, DWORD PTR [eax]
  00100	75 1a		 jne	 SHORT $LN4@Emplace_re

; 753  :             _Umove_if_noexcept(_Myfirst, _Mylast, _Newvec);

  00102	8b 45 c8	 mov	 eax, DWORD PTR __Newvec$[ebp]
  00105	50		 push	 eax
  00106	8b 4d dc	 mov	 ecx, DWORD PTR __Mylast$[ebp]
  00109	8b 11		 mov	 edx, DWORD PTR [ecx]
  0010b	52		 push	 edx
  0010c	8b 45 e0	 mov	 eax, DWORD PTR __Myfirst$[ebp]
  0010f	8b 08		 mov	 ecx, DWORD PTR [eax]
  00111	51		 push	 ecx
  00112	8b 4d ec	 mov	 ecx, DWORD PTR _this$[ebp]
  00115	e8 00 00 00 00	 call	 ?_Umove_if_noexcept@?$vector@URINGMONSTER_EVENT_TIME@@V?$allocator@URINGMONSTER_EVENT_TIME@@@std@@@std@@AAEXPAURINGMONSTER_EVENT_TIME@@00@Z ; std::vector<RINGMONSTER_EVENT_TIME,std::allocator<RINGMONSTER_EVENT_TIME> >::_Umove_if_noexcept

; 754  :         } else { // provide basic guarantee

  0011a	eb 39		 jmp	 SHORT $LN5@Emplace_re
$LN4@Emplace_re:

; 755  :             _Umove(_Myfirst, _Whereptr, _Newvec);

  0011c	8b 45 c8	 mov	 eax, DWORD PTR __Newvec$[ebp]
  0011f	50		 push	 eax
  00120	8b 4d 08	 mov	 ecx, DWORD PTR __Whereptr$[ebp]
  00123	51		 push	 ecx
  00124	8b 55 e0	 mov	 edx, DWORD PTR __Myfirst$[ebp]
  00127	8b 02		 mov	 eax, DWORD PTR [edx]
  00129	50		 push	 eax
  0012a	8b 4d ec	 mov	 ecx, DWORD PTR _this$[ebp]
  0012d	e8 00 00 00 00	 call	 ?_Umove@?$vector@URINGMONSTER_EVENT_TIME@@V?$allocator@URINGMONSTER_EVENT_TIME@@@std@@@std@@AAEPAURINGMONSTER_EVENT_TIME@@PAU3@00@Z ; std::vector<RINGMONSTER_EVENT_TIME,std::allocator<RINGMONSTER_EVENT_TIME> >::_Umove

; 756  :             _Constructed_first = _Newvec;

  00132	8b 45 c8	 mov	 eax, DWORD PTR __Newvec$[ebp]
  00135	89 45 c0	 mov	 DWORD PTR __Constructed_first$[ebp], eax

; 757  :             _Umove(_Whereptr, _Mylast, _Newvec + _Whereoff + 1);

  00138	8b 45 d8	 mov	 eax, DWORD PTR __Whereoff$[ebp]
  0013b	8b 4d c8	 mov	 ecx, DWORD PTR __Newvec$[ebp]
  0013e	8d 54 c1 08	 lea	 edx, DWORD PTR [ecx+eax*8+8]
  00142	52		 push	 edx
  00143	8b 45 dc	 mov	 eax, DWORD PTR __Mylast$[ebp]
  00146	8b 08		 mov	 ecx, DWORD PTR [eax]
  00148	51		 push	 ecx
  00149	8b 55 08	 mov	 edx, DWORD PTR __Whereptr$[ebp]
  0014c	52		 push	 edx
  0014d	8b 4d ec	 mov	 ecx, DWORD PTR _this$[ebp]
  00150	e8 00 00 00 00	 call	 ?_Umove@?$vector@URINGMONSTER_EVENT_TIME@@V?$allocator@URINGMONSTER_EVENT_TIME@@@std@@@std@@AAEPAURINGMONSTER_EVENT_TIME@@PAU3@00@Z ; std::vector<RINGMONSTER_EVENT_TIME,std::allocator<RINGMONSTER_EVENT_TIME> >::_Umove
$LN5@Emplace_re:
  00155	eb 2f		 jmp	 SHORT $LN7@Emplace_re
__catch$??$_Emplace_reallocate@ABURINGMONSTER_EVENT_TIME@@@?$vector@URINGMONSTER_EVENT_TIME@@V?$allocator@URINGMONSTER_EVENT_TIME@@@std@@@std@@QAEPAURINGMONSTER_EVENT_TIME@@QAU2@ABU2@@Z$0:

; 758  :         }
; 759  :         _CATCH_ALL
; 760  :         _Destroy(_Constructed_first, _Constructed_last);

  00157	8b 45 c4	 mov	 eax, DWORD PTR __Constructed_last$[ebp]
  0015a	50		 push	 eax
  0015b	8b 4d c0	 mov	 ecx, DWORD PTR __Constructed_first$[ebp]
  0015e	51		 push	 ecx
  0015f	8b 4d ec	 mov	 ecx, DWORD PTR _this$[ebp]
  00162	e8 00 00 00 00	 call	 ?_Destroy@?$vector@URINGMONSTER_EVENT_TIME@@V?$allocator@URINGMONSTER_EVENT_TIME@@@std@@@std@@AAEXPAURINGMONSTER_EVENT_TIME@@0@Z ; std::vector<RINGMONSTER_EVENT_TIME,std::allocator<RINGMONSTER_EVENT_TIME> >::_Destroy

; 761  :         _Al.deallocate(_Newvec, _Newcapacity);

  00167	8b 45 cc	 mov	 eax, DWORD PTR __Newcapacity$[ebp]
  0016a	50		 push	 eax
  0016b	8b 4d c8	 mov	 ecx, DWORD PTR __Newvec$[ebp]
  0016e	51		 push	 ecx
  0016f	8b 4d e8	 mov	 ecx, DWORD PTR __Al$[ebp]
  00172	e8 00 00 00 00	 call	 ?deallocate@?$allocator@URINGMONSTER_EVENT_TIME@@@std@@QAEXQAURINGMONSTER_EVENT_TIME@@I@Z ; std::allocator<RINGMONSTER_EVENT_TIME>::deallocate

; 762  :         _RERAISE;

  00177	6a 00		 push	 0
  00179	6a 00		 push	 0
  0017b	e8 00 00 00 00	 call	 __CxxThrowException@8

; 763  :         _CATCH_END

  00180	b8 00 00 00 00	 mov	 eax, $LN10@Emplace_re
  00185	c3		 ret	 0
$LN7@Emplace_re:
  00186	c7 45 fc ff ff
	ff ff		 mov	 DWORD PTR __$EHRec$[ebp+12], -1
  0018d	eb 07		 jmp	 SHORT __tryend$??$_Emplace_reallocate@ABURINGMONSTER_EVENT_TIME@@@?$vector@URINGMONSTER_EVENT_TIME@@V?$allocator@URINGMONSTER_EVENT_TIME@@@std@@@std@@QAEPAURINGMONSTER_EVENT_TIME@@QAU2@ABU2@@Z$1
$LN10@Emplace_re:
  0018f	c7 45 fc ff ff
	ff ff		 mov	 DWORD PTR __$EHRec$[ebp+12], -1
__tryend$??$_Emplace_reallocate@ABURINGMONSTER_EVENT_TIME@@@?$vector@URINGMONSTER_EVENT_TIME@@V?$allocator@URINGMONSTER_EVENT_TIME@@@std@@@std@@QAEPAURINGMONSTER_EVENT_TIME@@QAU2@ABU2@@Z$1:

; 764  : 
; 765  :         _Change_array(_Newvec, _Newsize, _Newcapacity);

  00196	8b 45 cc	 mov	 eax, DWORD PTR __Newcapacity$[ebp]
  00199	50		 push	 eax
  0019a	8b 4d d0	 mov	 ecx, DWORD PTR __Newsize$[ebp]
  0019d	51		 push	 ecx
  0019e	8b 55 c8	 mov	 edx, DWORD PTR __Newvec$[ebp]
  001a1	52		 push	 edx
  001a2	8b 4d ec	 mov	 ecx, DWORD PTR _this$[ebp]
  001a5	e8 00 00 00 00	 call	 ?_Change_array@?$vector@URINGMONSTER_EVENT_TIME@@V?$allocator@URINGMONSTER_EVENT_TIME@@@std@@@std@@AAEXQAURINGMONSTER_EVENT_TIME@@II@Z ; std::vector<RINGMONSTER_EVENT_TIME,std::allocator<RINGMONSTER_EVENT_TIME> >::_Change_array

; 766  :         return _Newvec + _Whereoff;

  001aa	8b 45 d8	 mov	 eax, DWORD PTR __Whereoff$[ebp]
  001ad	8b 4d c8	 mov	 ecx, DWORD PTR __Newvec$[ebp]
  001b0	8d 04 c1	 lea	 eax, DWORD PTR [ecx+eax*8]
$LN6@Emplace_re:

; 767  :     }

  001b3	8b 4d f4	 mov	 ecx, DWORD PTR __$EHRec$[ebp+4]
  001b6	64 89 0d 00 00
	00 00		 mov	 DWORD PTR fs:0, ecx
  001bd	59		 pop	 ecx
  001be	5f		 pop	 edi
  001bf	5e		 pop	 esi
  001c0	5b		 pop	 ebx
  001c1	8b e5		 mov	 esp, ebp
  001c3	5d		 pop	 ebp
  001c4	c2 08 00	 ret	 8
  001c7	cc		 int	 3
  001c8	cc		 int	 3
  001c9	cc		 int	 3
  001ca	cc		 int	 3
  001cb	cc		 int	 3
_TEXT	ENDS
;	COMDAT text$x
text$x	SEGMENT
__ehhandler$??$_Emplace_reallocate@ABURINGMONSTER_EVENT_TIME@@@?$vector@URINGMONSTER_EVENT_TIME@@V?$allocator@URINGMONSTER_EVENT_TIME@@@std@@@std@@QAEPAURINGMONSTER_EVENT_TIME@@QAU2@ABU2@@Z:
  00000	90		 npad	 1
  00001	90		 npad	 1
  00002	8b 54 24 08	 mov	 edx, DWORD PTR [esp+8]
  00006	8d 42 0c	 lea	 eax, DWORD PTR [edx+12]
  00009	8b 8a 7c ff ff
	ff		 mov	 ecx, DWORD PTR [edx-132]
  0000f	33 c8		 xor	 ecx, eax
  00011	e8 00 00 00 00	 call	 @__security_check_cookie@4
  00016	b8 00 00 00 00	 mov	 eax, OFFSET __ehfuncinfo$??$_Emplace_reallocate@ABURINGMONSTER_EVENT_TIME@@@?$vector@URINGMONSTER_EVENT_TIME@@V?$allocator@URINGMONSTER_EVENT_TIME@@@std@@@std@@QAEPAURINGMONSTER_EVENT_TIME@@QAU2@ABU2@@Z
  0001b	e9 00 00 00 00	 jmp	 ___CxxFrameHandler3
text$x	ENDS
??$_Emplace_reallocate@ABURINGMONSTER_EVENT_TIME@@@?$vector@URINGMONSTER_EVENT_TIME@@V?$allocator@URINGMONSTER_EVENT_TIME@@@std@@@std@@QAEPAURINGMONSTER_EVENT_TIME@@QAU2@ABU2@@Z ENDP ; std::vector<RINGMONSTER_EVENT_TIME,std::allocator<RINGMONSTER_EVENT_TIME> >::_Emplace_reallocate<RINGMONSTER_EVENT_TIME const &>
; Function compile flags: /Odtp /ZI
; File C:\Program Files (x86)\Microsoft Visual Studio\2019\Community\VC\Tools\MSVC\14.27.29110\include\xmemory
;	COMDAT ??$construct@URINGMONSTER_EVENT_TIME@@ABU1@@?$_Default_allocator_traits@V?$allocator@URINGMONSTER_EVENT_TIME@@@std@@@std@@SAXAAV?$allocator@URINGMONSTER_EVENT_TIME@@@1@QAURINGMONSTER_EVENT_TIME@@ABU3@@Z
_TEXT	SEGMENT
$T1 = -68						; size = 4
___formal$ = 8						; size = 4
__Ptr$ = 12						; size = 4
_<_Args_0>$ = 16					; size = 4
??$construct@URINGMONSTER_EVENT_TIME@@ABU1@@?$_Default_allocator_traits@V?$allocator@URINGMONSTER_EVENT_TIME@@@std@@@std@@SAXAAV?$allocator@URINGMONSTER_EVENT_TIME@@@1@QAURINGMONSTER_EVENT_TIME@@ABU3@@Z PROC ; std::_Default_allocator_traits<std::allocator<RINGMONSTER_EVENT_TIME> >::construct<RINGMONSTER_EVENT_TIME,RINGMONSTER_EVENT_TIME const &>, COMDAT

; 693  :     static void construct(_Alloc&, _Objty* const _Ptr, _Types&&... _Args) {

  00000	55		 push	 ebp
  00001	8b ec		 mov	 ebp, esp
  00003	83 ec 44	 sub	 esp, 68			; 00000044H
  00006	53		 push	 ebx
  00007	56		 push	 esi
  00008	57		 push	 edi

; 694  :         ::new (const_cast<void*>(static_cast<const volatile void*>(_Ptr))) _Objty(_STD forward<_Types>(_Args)...);

  00009	8b 45 0c	 mov	 eax, DWORD PTR __Ptr$[ebp]
  0000c	50		 push	 eax
  0000d	6a 08		 push	 8
  0000f	e8 00 00 00 00	 call	 ??2@YAPAXIPAX@Z		; operator new
  00014	83 c4 08	 add	 esp, 8
  00017	89 45 bc	 mov	 DWORD PTR $T1[ebp], eax
  0001a	8b 4d 10	 mov	 ecx, DWORD PTR _<_Args_0>$[ebp]
  0001d	51		 push	 ecx
  0001e	e8 00 00 00 00	 call	 ??$forward@ABURINGMONSTER_EVENT_TIME@@@std@@YAABURINGMONSTER_EVENT_TIME@@ABU1@@Z ; std::forward<RINGMONSTER_EVENT_TIME const &>
  00023	83 c4 04	 add	 esp, 4
  00026	8b 10		 mov	 edx, DWORD PTR [eax]
  00028	8b 40 04	 mov	 eax, DWORD PTR [eax+4]
  0002b	8b 4d bc	 mov	 ecx, DWORD PTR $T1[ebp]
  0002e	89 11		 mov	 DWORD PTR [ecx], edx
  00030	89 41 04	 mov	 DWORD PTR [ecx+4], eax

; 695  :     }

  00033	5f		 pop	 edi
  00034	5e		 pop	 esi
  00035	5b		 pop	 ebx
  00036	8b e5		 mov	 esp, ebp
  00038	5d		 pop	 ebp
  00039	c3		 ret	 0
??$construct@URINGMONSTER_EVENT_TIME@@ABU1@@?$_Default_allocator_traits@V?$allocator@URINGMONSTER_EVENT_TIME@@@std@@@std@@SAXAAV?$allocator@URINGMONSTER_EVENT_TIME@@@1@QAURINGMONSTER_EVENT_TIME@@ABU3@@Z ENDP ; std::_Default_allocator_traits<std::allocator<RINGMONSTER_EVENT_TIME> >::construct<RINGMONSTER_EVENT_TIME,RINGMONSTER_EVENT_TIME const &>
_TEXT	ENDS
; Function compile flags: /Odtp /ZI
; File C:\Program Files (x86)\Microsoft Visual Studio\2019\Community\VC\Tools\MSVC\14.27.29110\include\xstddef
;	COMDAT ??$_Unfancy@URINGMONSTER_EVENT_TIME@@@std@@YAPAURINGMONSTER_EVENT_TIME@@PAU1@@Z
_TEXT	SEGMENT
__Ptr$ = 8						; size = 4
??$_Unfancy@URINGMONSTER_EVENT_TIME@@@std@@YAPAURINGMONSTER_EVENT_TIME@@PAU1@@Z PROC ; std::_Unfancy<RINGMONSTER_EVENT_TIME>, COMDAT

; 288  : _NODISCARD constexpr _Ty* _Unfancy(_Ty* _Ptr) noexcept { // do nothing for plain pointers

  00000	55		 push	 ebp
  00001	8b ec		 mov	 ebp, esp
  00003	83 ec 40	 sub	 esp, 64			; 00000040H
  00006	53		 push	 ebx
  00007	56		 push	 esi
  00008	57		 push	 edi

; 289  :     return _Ptr;

  00009	8b 45 08	 mov	 eax, DWORD PTR __Ptr$[ebp]

; 290  : }

  0000c	5f		 pop	 edi
  0000d	5e		 pop	 esi
  0000e	5b		 pop	 ebx
  0000f	8b e5		 mov	 esp, ebp
  00011	5d		 pop	 ebp
  00012	c3		 ret	 0
??$_Unfancy@URINGMONSTER_EVENT_TIME@@@std@@YAPAURINGMONSTER_EVENT_TIME@@PAU1@@Z ENDP ; std::_Unfancy<RINGMONSTER_EVENT_TIME>
_TEXT	ENDS
; Function compile flags: /Odtp /ZI
; File C:\Program Files (x86)\Microsoft Visual Studio\2019\Community\VC\Tools\MSVC\14.27.29110\include\vector
;	COMDAT ??$_Emplace_back_with_unused_capacity@ABURINGMONSTER_EVENT_TIME@@@?$vector@URINGMONSTER_EVENT_TIME@@V?$allocator@URINGMONSTER_EVENT_TIME@@@std@@@std@@AAE@ABURINGMONSTER_EVENT_TIME@@@Z
_TEXT	SEGMENT
__Result$ = -16						; size = 4
__Mylast$ = -12						; size = 4
__My_data$ = -8						; size = 4
_this$ = -4						; size = 4
_<_Val_0>$ = 8						; size = 4
??$_Emplace_back_with_unused_capacity@ABURINGMONSTER_EVENT_TIME@@@?$vector@URINGMONSTER_EVENT_TIME@@V?$allocator@URINGMONSTER_EVENT_TIME@@@std@@@std@@AAE@ABURINGMONSTER_EVENT_TIME@@@Z PROC ; std::vector<RINGMONSTER_EVENT_TIME,std::allocator<RINGMONSTER_EVENT_TIME> >::_Emplace_back_with_unused_capacity<RINGMONSTER_EVENT_TIME const &>, COMDAT
; _this$ = ecx

; 682  :     decltype(auto) _Emplace_back_with_unused_capacity(_Valty&&... _Val) {

  00000	55		 push	 ebp
  00001	8b ec		 mov	 ebp, esp
  00003	83 ec 50	 sub	 esp, 80			; 00000050H
  00006	53		 push	 ebx
  00007	56		 push	 esi
  00008	57		 push	 edi
  00009	89 4d fc	 mov	 DWORD PTR _this$[ebp], ecx

; 683  :         // insert by perfectly forwarding into element at end, provide strong guarantee
; 684  :         auto& _My_data   = _Mypair._Myval2;

  0000c	8b 45 fc	 mov	 eax, DWORD PTR _this$[ebp]
  0000f	89 45 f8	 mov	 DWORD PTR __My_data$[ebp], eax

; 685  :         pointer& _Mylast = _My_data._Mylast;

  00012	8b 45 f8	 mov	 eax, DWORD PTR __My_data$[ebp]
  00015	83 c0 04	 add	 eax, 4
  00018	89 45 f4	 mov	 DWORD PTR __Mylast$[ebp], eax

; 686  :         _STL_INTERNAL_CHECK(_Mylast != _My_data._Myend); // check that we have unused capacity
; 687  :         _Alty_traits::construct(_Getal(), _Unfancy(_Mylast), _STD forward<_Valty>(_Val)...);

  0001b	8b 45 08	 mov	 eax, DWORD PTR _<_Val_0>$[ebp]
  0001e	50		 push	 eax
  0001f	e8 00 00 00 00	 call	 ??$forward@ABURINGMONSTER_EVENT_TIME@@@std@@YAABURINGMONSTER_EVENT_TIME@@ABU1@@Z ; std::forward<RINGMONSTER_EVENT_TIME const &>
  00024	83 c4 04	 add	 esp, 4
  00027	50		 push	 eax
  00028	8b 4d f4	 mov	 ecx, DWORD PTR __Mylast$[ebp]
  0002b	8b 11		 mov	 edx, DWORD PTR [ecx]
  0002d	52		 push	 edx
  0002e	e8 00 00 00 00	 call	 ??$_Unfancy@URINGMONSTER_EVENT_TIME@@@std@@YAPAURINGMONSTER_EVENT_TIME@@PAU1@@Z ; std::_Unfancy<RINGMONSTER_EVENT_TIME>
  00033	83 c4 04	 add	 esp, 4
  00036	50		 push	 eax
  00037	8b 4d fc	 mov	 ecx, DWORD PTR _this$[ebp]
  0003a	e8 00 00 00 00	 call	 ?_Getal@?$vector@URINGMONSTER_EVENT_TIME@@V?$allocator@URINGMONSTER_EVENT_TIME@@@std@@@std@@AAEAAV?$allocator@URINGMONSTER_EVENT_TIME@@@2@XZ ; std::vector<RINGMONSTER_EVENT_TIME,std::allocator<RINGMONSTER_EVENT_TIME> >::_Getal
  0003f	50		 push	 eax
  00040	e8 00 00 00 00	 call	 ??$construct@URINGMONSTER_EVENT_TIME@@ABU1@@?$_Default_allocator_traits@V?$allocator@URINGMONSTER_EVENT_TIME@@@std@@@std@@SAXAAV?$allocator@URINGMONSTER_EVENT_TIME@@@1@QAURINGMONSTER_EVENT_TIME@@ABU3@@Z ; std::_Default_allocator_traits<std::allocator<RINGMONSTER_EVENT_TIME> >::construct<RINGMONSTER_EVENT_TIME,RINGMONSTER_EVENT_TIME const &>
  00045	83 c4 0c	 add	 esp, 12			; 0000000cH

; 688  :         _Orphan_range(_Mylast, _Mylast);

  00048	8b 45 f4	 mov	 eax, DWORD PTR __Mylast$[ebp]
  0004b	8b 08		 mov	 ecx, DWORD PTR [eax]
  0004d	51		 push	 ecx
  0004e	8b 55 f4	 mov	 edx, DWORD PTR __Mylast$[ebp]
  00051	8b 02		 mov	 eax, DWORD PTR [edx]
  00053	50		 push	 eax
  00054	8b 4d fc	 mov	 ecx, DWORD PTR _this$[ebp]
  00057	e8 00 00 00 00	 call	 ?_Orphan_range@?$vector@URINGMONSTER_EVENT_TIME@@V?$allocator@URINGMONSTER_EVENT_TIME@@@std@@@std@@ABEXPAURINGMONSTER_EVENT_TIME@@0@Z ; std::vector<RINGMONSTER_EVENT_TIME,std::allocator<RINGMONSTER_EVENT_TIME> >::_Orphan_range

; 689  :         _Ty& _Result = *_Mylast;

  0005c	8b 45 f4	 mov	 eax, DWORD PTR __Mylast$[ebp]
  0005f	8b 08		 mov	 ecx, DWORD PTR [eax]
  00061	89 4d f0	 mov	 DWORD PTR __Result$[ebp], ecx

; 690  :         ++_Mylast;

  00064	8b 45 f4	 mov	 eax, DWORD PTR __Mylast$[ebp]
  00067	8b 08		 mov	 ecx, DWORD PTR [eax]
  00069	83 c1 08	 add	 ecx, 8
  0006c	8b 55 f4	 mov	 edx, DWORD PTR __Mylast$[ebp]
  0006f	89 0a		 mov	 DWORD PTR [edx], ecx

; 691  : #if _HAS_CXX17
; 692  :         return _Result;
; 693  : #else // ^^^ _HAS_CXX17 ^^^ // vvv !_HAS_CXX17 vvv
; 694  :         (void) _Result;
; 695  : #endif // _HAS_CXX17
; 696  :     }

  00071	5f		 pop	 edi
  00072	5e		 pop	 esi
  00073	5b		 pop	 ebx
  00074	8b e5		 mov	 esp, ebp
  00076	5d		 pop	 ebp
  00077	c2 04 00	 ret	 4
??$_Emplace_back_with_unused_capacity@ABURINGMONSTER_EVENT_TIME@@@?$vector@URINGMONSTER_EVENT_TIME@@V?$allocator@URINGMONSTER_EVENT_TIME@@@std@@@std@@AAE@ABURINGMONSTER_EVENT_TIME@@@Z ENDP ; std::vector<RINGMONSTER_EVENT_TIME,std::allocator<RINGMONSTER_EVENT_TIME> >::_Emplace_back_with_unused_capacity<RINGMONSTER_EVENT_TIME const &>
_TEXT	ENDS
; Function compile flags: /Odtp /ZI
; File C:\Program Files (x86)\Microsoft Visual Studio\2019\Community\VC\Tools\MSVC\14.27.29110\include\type_traits
;	COMDAT ??$forward@ABURINGMONSTER_EVENT_TIME@@@std@@YAABURINGMONSTER_EVENT_TIME@@ABU1@@Z
_TEXT	SEGMENT
__Arg$ = 8						; size = 4
??$forward@ABURINGMONSTER_EVENT_TIME@@@std@@YAABURINGMONSTER_EVENT_TIME@@ABU1@@Z PROC ; std::forward<RINGMONSTER_EVENT_TIME const &>, COMDAT

; 1454 :     remove_reference_t<_Ty>& _Arg) noexcept { // forward an lvalue as either an lvalue or an rvalue

  00000	55		 push	 ebp
  00001	8b ec		 mov	 ebp, esp
  00003	83 ec 40	 sub	 esp, 64			; 00000040H
  00006	53		 push	 ebx
  00007	56		 push	 esi
  00008	57		 push	 edi

; 1455 :     return static_cast<_Ty&&>(_Arg);

  00009	8b 45 08	 mov	 eax, DWORD PTR __Arg$[ebp]

; 1456 : }

  0000c	5f		 pop	 edi
  0000d	5e		 pop	 esi
  0000e	5b		 pop	 ebx
  0000f	8b e5		 mov	 esp, ebp
  00011	5d		 pop	 ebp
  00012	c3		 ret	 0
??$forward@ABURINGMONSTER_EVENT_TIME@@@std@@YAABURINGMONSTER_EVENT_TIME@@ABU1@@Z ENDP ; std::forward<RINGMONSTER_EVENT_TIME const &>
_TEXT	ENDS
; Function compile flags: /Odtp /ZI
; File C:\Program Files (x86)\Microsoft Visual Studio\2019\Community\VC\Tools\MSVC\14.27.29110\include\vector
;	COMDAT ??$emplace_back@ABURINGMONSTER_EVENT_TIME@@@?$vector@URINGMONSTER_EVENT_TIME@@V?$allocator@URINGMONSTER_EVENT_TIME@@@std@@@std@@QAE@ABURINGMONSTER_EVENT_TIME@@@Z
_TEXT	SEGMENT
__Result$ = -16						; size = 4
__Mylast$ = -12						; size = 4
__My_data$ = -8						; size = 4
_this$ = -4						; size = 4
_<_Val_0>$ = 8						; size = 4
??$emplace_back@ABURINGMONSTER_EVENT_TIME@@@?$vector@URINGMONSTER_EVENT_TIME@@V?$allocator@URINGMONSTER_EVENT_TIME@@@std@@@std@@QAE@ABURINGMONSTER_EVENT_TIME@@@Z PROC ; std::vector<RINGMONSTER_EVENT_TIME,std::allocator<RINGMONSTER_EVENT_TIME> >::emplace_back<RINGMONSTER_EVENT_TIME const &>, COMDAT
; _this$ = ecx

; 700  :     decltype(auto) emplace_back(_Valty&&... _Val) {

  00000	55		 push	 ebp
  00001	8b ec		 mov	 ebp, esp
  00003	83 ec 50	 sub	 esp, 80			; 00000050H
  00006	53		 push	 ebx
  00007	56		 push	 esi
  00008	57		 push	 edi
  00009	89 4d fc	 mov	 DWORD PTR _this$[ebp], ecx

; 701  :         // insert by perfectly forwarding into element at end, provide strong guarantee
; 702  :         auto& _My_data   = _Mypair._Myval2;

  0000c	8b 45 fc	 mov	 eax, DWORD PTR _this$[ebp]
  0000f	89 45 f8	 mov	 DWORD PTR __My_data$[ebp], eax

; 703  :         pointer& _Mylast = _My_data._Mylast;

  00012	8b 45 f8	 mov	 eax, DWORD PTR __My_data$[ebp]
  00015	83 c0 04	 add	 eax, 4
  00018	89 45 f4	 mov	 DWORD PTR __Mylast$[ebp], eax

; 704  :         if (_Mylast != _My_data._Myend) {

  0001b	8b 45 f4	 mov	 eax, DWORD PTR __Mylast$[ebp]
  0001e	8b 4d f8	 mov	 ecx, DWORD PTR __My_data$[ebp]
  00021	8b 10		 mov	 edx, DWORD PTR [eax]
  00023	3b 51 08	 cmp	 edx, DWORD PTR [ecx+8]
  00026	74 17		 je	 SHORT $LN2@emplace_ba

; 705  :             return _Emplace_back_with_unused_capacity(_STD forward<_Valty>(_Val)...);

  00028	8b 45 08	 mov	 eax, DWORD PTR _<_Val_0>$[ebp]
  0002b	50		 push	 eax
  0002c	e8 00 00 00 00	 call	 ??$forward@ABURINGMONSTER_EVENT_TIME@@@std@@YAABURINGMONSTER_EVENT_TIME@@ABU1@@Z ; std::forward<RINGMONSTER_EVENT_TIME const &>
  00031	83 c4 04	 add	 esp, 4
  00034	50		 push	 eax
  00035	8b 4d fc	 mov	 ecx, DWORD PTR _this$[ebp]
  00038	e8 00 00 00 00	 call	 ??$_Emplace_back_with_unused_capacity@ABURINGMONSTER_EVENT_TIME@@@?$vector@URINGMONSTER_EVENT_TIME@@V?$allocator@URINGMONSTER_EVENT_TIME@@@std@@@std@@AAE@ABURINGMONSTER_EVENT_TIME@@@Z ; std::vector<RINGMONSTER_EVENT_TIME,std::allocator<RINGMONSTER_EVENT_TIME> >::_Emplace_back_with_unused_capacity<RINGMONSTER_EVENT_TIME const &>
  0003d	eb 1e		 jmp	 SHORT $LN1@emplace_ba
$LN2@emplace_ba:

; 706  :         }
; 707  : 
; 708  :         _Ty& _Result = *_Emplace_reallocate(_Mylast, _STD forward<_Valty>(_Val)...);

  0003f	8b 45 08	 mov	 eax, DWORD PTR _<_Val_0>$[ebp]
  00042	50		 push	 eax
  00043	e8 00 00 00 00	 call	 ??$forward@ABURINGMONSTER_EVENT_TIME@@@std@@YAABURINGMONSTER_EVENT_TIME@@ABU1@@Z ; std::forward<RINGMONSTER_EVENT_TIME const &>
  00048	83 c4 04	 add	 esp, 4
  0004b	50		 push	 eax
  0004c	8b 4d f4	 mov	 ecx, DWORD PTR __Mylast$[ebp]
  0004f	8b 11		 mov	 edx, DWORD PTR [ecx]
  00051	52		 push	 edx
  00052	8b 4d fc	 mov	 ecx, DWORD PTR _this$[ebp]
  00055	e8 00 00 00 00	 call	 ??$_Emplace_reallocate@ABURINGMONSTER_EVENT_TIME@@@?$vector@URINGMONSTER_EVENT_TIME@@V?$allocator@URINGMONSTER_EVENT_TIME@@@std@@@std@@QAEPAURINGMONSTER_EVENT_TIME@@QAU2@ABU2@@Z ; std::vector<RINGMONSTER_EVENT_TIME,std::allocator<RINGMONSTER_EVENT_TIME> >::_Emplace_reallocate<RINGMONSTER_EVENT_TIME const &>
  0005a	89 45 f0	 mov	 DWORD PTR __Result$[ebp], eax
$LN1@emplace_ba:

; 709  : #if _HAS_CXX17
; 710  :         return _Result;
; 711  : #else // ^^^ _HAS_CXX17 ^^^ // vvv !_HAS_CXX17 vvv
; 712  :         (void) _Result;
; 713  : #endif // _HAS_CXX17
; 714  :     }

  0005d	5f		 pop	 edi
  0005e	5e		 pop	 esi
  0005f	5b		 pop	 ebx
  00060	8b e5		 mov	 esp, ebp
  00062	5d		 pop	 ebp
  00063	c2 04 00	 ret	 4
??$emplace_back@ABURINGMONSTER_EVENT_TIME@@@?$vector@URINGMONSTER_EVENT_TIME@@V?$allocator@URINGMONSTER_EVENT_TIME@@@std@@@std@@QAE@ABURINGMONSTER_EVENT_TIME@@@Z ENDP ; std::vector<RINGMONSTER_EVENT_TIME,std::allocator<RINGMONSTER_EVENT_TIME> >::emplace_back<RINGMONSTER_EVENT_TIME const &>
_TEXT	ENDS
; Function compile flags: /Odtp /ZI
; File C:\Program Files (x86)\Microsoft Visual Studio\2019\Community\VC\Tools\MSVC\14.27.29110\include\xutility
;	COMDAT ??$_Move_unchecked@PAURINGMONSTER_EVENT_TIME@@PAU1@@std@@YAPAURINGMONSTER_EVENT_TIME@@PAU1@00@Z
_TEXT	SEGMENT
__First$ = 8						; size = 4
__Last$ = 12						; size = 4
__Dest$ = 16						; size = 4
??$_Move_unchecked@PAURINGMONSTER_EVENT_TIME@@PAU1@@std@@YAPAURINGMONSTER_EVENT_TIME@@PAU1@00@Z PROC ; std::_Move_unchecked<RINGMONSTER_EVENT_TIME *,RINGMONSTER_EVENT_TIME *>, COMDAT

; 4364 : _CONSTEXPR20 _OutIt _Move_unchecked(_InIt _First, _InIt _Last, _OutIt _Dest) {

  00000	55		 push	 ebp
  00001	8b ec		 mov	 ebp, esp
  00003	83 ec 40	 sub	 esp, 64			; 00000040H
  00006	53		 push	 ebx
  00007	56		 push	 esi
  00008	57		 push	 edi

; 4365 :     // move [_First, _Last) to [_Dest, ...)
; 4366 :     // note: _Move_unchecked has callers other than the move family
; 4367 :     if constexpr (_Ptr_move_cat<_InIt, _OutIt>::_Trivially_copyable) {
; 4368 : #ifdef __cpp_lib_is_constant_evaluated
; 4369 :         if (!_STD is_constant_evaluated())
; 4370 : #endif // __cpp_lib_is_constant_evaluated
; 4371 :         {
; 4372 :             return _Copy_memmove(_First, _Last, _Dest);

  00009	8b 45 10	 mov	 eax, DWORD PTR __Dest$[ebp]
  0000c	50		 push	 eax
  0000d	8b 4d 0c	 mov	 ecx, DWORD PTR __Last$[ebp]
  00010	51		 push	 ecx
  00011	8b 55 08	 mov	 edx, DWORD PTR __First$[ebp]
  00014	52		 push	 edx
  00015	e8 00 00 00 00	 call	 ??$_Copy_memmove@PAURINGMONSTER_EVENT_TIME@@PAU1@@std@@YAPAURINGMONSTER_EVENT_TIME@@PAU1@00@Z ; std::_Copy_memmove<RINGMONSTER_EVENT_TIME *,RINGMONSTER_EVENT_TIME *>
  0001a	83 c4 0c	 add	 esp, 12			; 0000000cH
  0001d	eb 3a		 jmp	 SHORT $LN1@Move_unche

; 4373 :         }
; 4374 :     }
; 4375 : 
; 4376 :     for (; _First != _Last; ++_Dest, (void) ++_First) {

  0001f	eb 12		 jmp	 SHORT $LN4@Move_unche
$LN2@Move_unche:
  00021	8b 45 10	 mov	 eax, DWORD PTR __Dest$[ebp]
  00024	83 c0 08	 add	 eax, 8
  00027	89 45 10	 mov	 DWORD PTR __Dest$[ebp], eax
  0002a	8b 4d 08	 mov	 ecx, DWORD PTR __First$[ebp]
  0002d	83 c1 08	 add	 ecx, 8
  00030	89 4d 08	 mov	 DWORD PTR __First$[ebp], ecx
$LN4@Move_unche:
  00033	8b 45 08	 mov	 eax, DWORD PTR __First$[ebp]
  00036	3b 45 0c	 cmp	 eax, DWORD PTR __Last$[ebp]
  00039	74 1b		 je	 SHORT $LN3@Move_unche

; 4377 :         *_Dest = _STD move(*_First);

  0003b	8b 45 08	 mov	 eax, DWORD PTR __First$[ebp]
  0003e	50		 push	 eax
  0003f	e8 00 00 00 00	 call	 ??$move@AAURINGMONSTER_EVENT_TIME@@@std@@YA$$QAURINGMONSTER_EVENT_TIME@@AAU1@@Z ; std::move<RINGMONSTER_EVENT_TIME &>
  00044	83 c4 04	 add	 esp, 4
  00047	8b 08		 mov	 ecx, DWORD PTR [eax]
  00049	8b 50 04	 mov	 edx, DWORD PTR [eax+4]
  0004c	8b 45 10	 mov	 eax, DWORD PTR __Dest$[ebp]
  0004f	89 08		 mov	 DWORD PTR [eax], ecx
  00051	89 50 04	 mov	 DWORD PTR [eax+4], edx

; 4378 :     }

  00054	eb cb		 jmp	 SHORT $LN2@Move_unche
$LN3@Move_unche:

; 4379 : 
; 4380 :     return _Dest;

  00056	8b 45 10	 mov	 eax, DWORD PTR __Dest$[ebp]
$LN1@Move_unche:

; 4381 : }

  00059	5f		 pop	 edi
  0005a	5e		 pop	 esi
  0005b	5b		 pop	 ebx
  0005c	8b e5		 mov	 esp, ebp
  0005e	5d		 pop	 ebp
  0005f	c3		 ret	 0
??$_Move_unchecked@PAURINGMONSTER_EVENT_TIME@@PAU1@@std@@YAPAURINGMONSTER_EVENT_TIME@@PAU1@00@Z ENDP ; std::_Move_unchecked<RINGMONSTER_EVENT_TIME *,RINGMONSTER_EVENT_TIME *>
_TEXT	ENDS
; Function compile flags: /Odtp /ZI
; File C:\Program Files (x86)\Microsoft Visual Studio\2019\Community\VC\Tools\MSVC\14.27.29110\include\xstddef
;	COMDAT ??$addressof@V?$_Vector_val@U?$_Simple_types@URINGMONSTER_EVENT_TIME@@@std@@@std@@@std@@YAPAV?$_Vector_val@U?$_Simple_types@URINGMONSTER_EVENT_TIME@@@std@@@0@AAV10@@Z
_TEXT	SEGMENT
__Val$ = 8						; size = 4
??$addressof@V?$_Vector_val@U?$_Simple_types@URINGMONSTER_EVENT_TIME@@@std@@@std@@@std@@YAPAV?$_Vector_val@U?$_Simple_types@URINGMONSTER_EVENT_TIME@@@std@@@0@AAV10@@Z PROC ; std::addressof<std::_Vector_val<std::_Simple_types<RINGMONSTER_EVENT_TIME> > >, COMDAT

; 274  : _NODISCARD constexpr _Ty* addressof(_Ty& _Val) noexcept {

  00000	55		 push	 ebp
  00001	8b ec		 mov	 ebp, esp
  00003	83 ec 40	 sub	 esp, 64			; 00000040H
  00006	53		 push	 ebx
  00007	56		 push	 esi
  00008	57		 push	 edi

; 275  :     return __builtin_addressof(_Val);

  00009	8b 45 08	 mov	 eax, DWORD PTR __Val$[ebp]

; 276  : }

  0000c	5f		 pop	 edi
  0000d	5e		 pop	 esi
  0000e	5b		 pop	 ebx
  0000f	8b e5		 mov	 esp, ebp
  00011	5d		 pop	 ebp
  00012	c3		 ret	 0
??$addressof@V?$_Vector_val@U?$_Simple_types@URINGMONSTER_EVENT_TIME@@@std@@@std@@@std@@YAPAV?$_Vector_val@U?$_Simple_types@URINGMONSTER_EVENT_TIME@@@std@@@0@AAV10@@Z ENDP ; std::addressof<std::_Vector_val<std::_Simple_types<RINGMONSTER_EVENT_TIME> > >
_TEXT	ENDS
; Function compile flags: /Odtp /ZI
;	COMDAT ??0?$_Vector_iterator@V?$_Vector_val@U?$_Simple_types@URINGMONSTER_EVENT_TIME@@@std@@@std@@@std@@QAE@PAURINGMONSTER_EVENT_TIME@@PBU_Container_base0@1@@Z
_TEXT	SEGMENT
_this$ = -4						; size = 4
___param0$ = 8						; size = 4
___param1$ = 12						; size = 4
??0?$_Vector_iterator@V?$_Vector_val@U?$_Simple_types@URINGMONSTER_EVENT_TIME@@@std@@@std@@@std@@QAE@PAURINGMONSTER_EVENT_TIME@@PBU_Container_base0@1@@Z PROC ; std::_Vector_iterator<std::_Vector_val<std::_Simple_types<RINGMONSTER_EVENT_TIME> > >::_Vector_iterator<std::_Vector_val<std::_Simple_types<RINGMONSTER_EVENT_TIME> > >, COMDAT
; _this$ = ecx
  00000	55		 push	 ebp
  00001	8b ec		 mov	 ebp, esp
  00003	83 ec 44	 sub	 esp, 68			; 00000044H
  00006	53		 push	 ebx
  00007	56		 push	 esi
  00008	57		 push	 edi
  00009	89 4d fc	 mov	 DWORD PTR _this$[ebp], ecx
  0000c	8b 45 0c	 mov	 eax, DWORD PTR ___param1$[ebp]
  0000f	50		 push	 eax
  00010	8b 4d 08	 mov	 ecx, DWORD PTR ___param0$[ebp]
  00013	51		 push	 ecx
  00014	8b 4d fc	 mov	 ecx, DWORD PTR _this$[ebp]
  00017	e8 00 00 00 00	 call	 ??0?$_Vector_const_iterator@V?$_Vector_val@U?$_Simple_types@URINGMONSTER_EVENT_TIME@@@std@@@std@@@std@@QAE@PAURINGMONSTER_EVENT_TIME@@PBU_Container_base0@1@@Z ; std::_Vector_const_iterator<std::_Vector_val<std::_Simple_types<RINGMONSTER_EVENT_TIME> > >::_Vector_const_iterator<std::_Vector_val<std::_Simple_types<RINGMONSTER_EVENT_TIME> > >
  0001c	8b 45 fc	 mov	 eax, DWORD PTR _this$[ebp]
  0001f	5f		 pop	 edi
  00020	5e		 pop	 esi
  00021	5b		 pop	 ebx
  00022	8b e5		 mov	 esp, ebp
  00024	5d		 pop	 ebp
  00025	c2 08 00	 ret	 8
??0?$_Vector_iterator@V?$_Vector_val@U?$_Simple_types@URINGMONSTER_EVENT_TIME@@@std@@@std@@@std@@QAE@PAURINGMONSTER_EVENT_TIME@@PBU_Container_base0@1@@Z ENDP ; std::_Vector_iterator<std::_Vector_val<std::_Simple_types<RINGMONSTER_EVENT_TIME> > >::_Vector_iterator<std::_Vector_val<std::_Simple_types<RINGMONSTER_EVENT_TIME> > >
_TEXT	ENDS
; Function compile flags: /Odtp /ZI
; File C:\Program Files (x86)\Microsoft Visual Studio\2019\Community\VC\Tools\MSVC\14.27.29110\include\vector
;	COMDAT ??E?$_Vector_iterator@V?$_Vector_val@U?$_Simple_types@URINGMONSTER_EVENT_TIME@@@std@@@std@@@std@@QAE?AV01@H@Z
_TEXT	SEGMENT
__Tmp$ = -8						; size = 4
_this$ = -4						; size = 4
___$ReturnUdt$ = 8					; size = 4
___formal$ = 12						; size = 4
??E?$_Vector_iterator@V?$_Vector_val@U?$_Simple_types@URINGMONSTER_EVENT_TIME@@@std@@@std@@@std@@QAE?AV01@H@Z PROC ; std::_Vector_iterator<std::_Vector_val<std::_Simple_types<RINGMONSTER_EVENT_TIME> > >::operator++, COMDAT
; _this$ = ecx

; 264  :     _Vector_iterator operator++(int) {

  00000	55		 push	 ebp
  00001	8b ec		 mov	 ebp, esp
  00003	83 ec 48	 sub	 esp, 72			; 00000048H
  00006	53		 push	 ebx
  00007	56		 push	 esi
  00008	57		 push	 edi
  00009	89 4d fc	 mov	 DWORD PTR _this$[ebp], ecx

; 265  :         _Vector_iterator _Tmp = *this;

  0000c	8b 45 fc	 mov	 eax, DWORD PTR _this$[ebp]
  0000f	8b 08		 mov	 ecx, DWORD PTR [eax]
  00011	89 4d f8	 mov	 DWORD PTR __Tmp$[ebp], ecx

; 266  :         _Mybase::operator++();

  00014	8b 4d fc	 mov	 ecx, DWORD PTR _this$[ebp]
  00017	e8 00 00 00 00	 call	 ??E?$_Vector_const_iterator@V?$_Vector_val@U?$_Simple_types@URINGMONSTER_EVENT_TIME@@@std@@@std@@@std@@QAEAAV01@XZ ; std::_Vector_const_iterator<std::_Vector_val<std::_Simple_types<RINGMONSTER_EVENT_TIME> > >::operator++

; 267  :         return _Tmp;

  0001c	8b 45 08	 mov	 eax, DWORD PTR ___$ReturnUdt$[ebp]
  0001f	8b 4d f8	 mov	 ecx, DWORD PTR __Tmp$[ebp]
  00022	89 08		 mov	 DWORD PTR [eax], ecx
  00024	8b 45 08	 mov	 eax, DWORD PTR ___$ReturnUdt$[ebp]

; 268  :     }

  00027	5f		 pop	 edi
  00028	5e		 pop	 esi
  00029	5b		 pop	 ebx
  0002a	8b e5		 mov	 esp, ebp
  0002c	5d		 pop	 ebp
  0002d	c2 08 00	 ret	 8
??E?$_Vector_iterator@V?$_Vector_val@U?$_Simple_types@URINGMONSTER_EVENT_TIME@@@std@@@std@@@std@@QAE?AV01@H@Z ENDP ; std::_Vector_iterator<std::_Vector_val<std::_Simple_types<RINGMONSTER_EVENT_TIME> > >::operator++
_TEXT	ENDS
; Function compile flags: /Odtp /ZI
; File C:\Program Files (x86)\Microsoft Visual Studio\2019\Community\VC\Tools\MSVC\14.27.29110\include\vector
;	COMDAT ??D?$_Vector_iterator@V?$_Vector_val@U?$_Simple_types@URINGMONSTER_EVENT_TIME@@@std@@@std@@@std@@QBEAAURINGMONSTER_EVENT_TIME@@XZ
_TEXT	SEGMENT
_this$ = -4						; size = 4
??D?$_Vector_iterator@V?$_Vector_val@U?$_Simple_types@URINGMONSTER_EVENT_TIME@@@std@@@std@@@std@@QBEAAURINGMONSTER_EVENT_TIME@@XZ PROC ; std::_Vector_iterator<std::_Vector_val<std::_Simple_types<RINGMONSTER_EVENT_TIME> > >::operator*, COMDAT
; _this$ = ecx

; 251  :     _NODISCARD reference operator*() const {

  00000	55		 push	 ebp
  00001	8b ec		 mov	 ebp, esp
  00003	83 ec 44	 sub	 esp, 68			; 00000044H
  00006	53		 push	 ebx
  00007	56		 push	 esi
  00008	57		 push	 edi
  00009	89 4d fc	 mov	 DWORD PTR _this$[ebp], ecx

; 252  :         return const_cast<reference>(_Mybase::operator*());

  0000c	8b 4d fc	 mov	 ecx, DWORD PTR _this$[ebp]
  0000f	e8 00 00 00 00	 call	 ??D?$_Vector_const_iterator@V?$_Vector_val@U?$_Simple_types@URINGMONSTER_EVENT_TIME@@@std@@@std@@@std@@QBEABURINGMONSTER_EVENT_TIME@@XZ ; std::_Vector_const_iterator<std::_Vector_val<std::_Simple_types<RINGMONSTER_EVENT_TIME> > >::operator*

; 253  :     }

  00014	5f		 pop	 edi
  00015	5e		 pop	 esi
  00016	5b		 pop	 ebx
  00017	8b e5		 mov	 esp, ebp
  00019	5d		 pop	 ebp
  0001a	c3		 ret	 0
??D?$_Vector_iterator@V?$_Vector_val@U?$_Simple_types@URINGMONSTER_EVENT_TIME@@@std@@@std@@@std@@QBEAAURINGMONSTER_EVENT_TIME@@XZ ENDP ; std::_Vector_iterator<std::_Vector_val<std::_Simple_types<RINGMONSTER_EVENT_TIME> > >::operator*
_TEXT	ENDS
; Function compile flags: /Odtp /ZI
; File C:\Program Files (x86)\Microsoft Visual Studio\2019\Community\VC\Tools\MSVC\14.27.29110\include\vector
;	COMDAT ?_Compat@?$_Vector_const_iterator@V?$_Vector_val@U?$_Simple_types@URINGMONSTER_EVENT_TIME@@@std@@@std@@@std@@QBEXABV12@@Z
_TEXT	SEGMENT
_this$ = -4						; size = 4
__Right$ = 8						; size = 4
?_Compat@?$_Vector_const_iterator@V?$_Vector_val@U?$_Simple_types@URINGMONSTER_EVENT_TIME@@@std@@@std@@@std@@QBEXABV12@@Z PROC ; std::_Vector_const_iterator<std::_Vector_val<std::_Simple_types<RINGMONSTER_EVENT_TIME> > >::_Compat, COMDAT
; _this$ = ecx

; 173  :     void _Compat(const _Vector_const_iterator& _Right) const { // test for compatible iterator pair

  00000	55		 push	 ebp
  00001	8b ec		 mov	 ebp, esp
  00003	83 ec 44	 sub	 esp, 68			; 00000044H
  00006	53		 push	 ebx
  00007	56		 push	 esi
  00008	57		 push	 edi
  00009	89 4d fc	 mov	 DWORD PTR _this$[ebp], ecx

; 174  : #if _ITERATOR_DEBUG_LEVEL == 0
; 175  :         (void) _Right;
; 176  : #else // ^^^ _ITERATOR_DEBUG_LEVEL == 0 ^^^ // vvv _ITERATOR_DEBUG_LEVEL != 0 vvv
; 177  :         _STL_VERIFY(this->_Getcont() == _Right._Getcont(), "vector iterators incompatible");
; 178  : #endif // _ITERATOR_DEBUG_LEVEL == 0
; 179  :     }

  0000c	5f		 pop	 edi
  0000d	5e		 pop	 esi
  0000e	5b		 pop	 ebx
  0000f	8b e5		 mov	 esp, ebp
  00011	5d		 pop	 ebp
  00012	c2 04 00	 ret	 4
?_Compat@?$_Vector_const_iterator@V?$_Vector_val@U?$_Simple_types@URINGMONSTER_EVENT_TIME@@@std@@@std@@@std@@QBEXABV12@@Z ENDP ; std::_Vector_const_iterator<std::_Vector_val<std::_Simple_types<RINGMONSTER_EVENT_TIME> > >::_Compat
_TEXT	ENDS
; Function compile flags: /Odtp /ZI
; File C:\Program Files (x86)\Microsoft Visual Studio\2019\Community\VC\Tools\MSVC\14.27.29110\include\vector
;	COMDAT ??9?$_Vector_const_iterator@V?$_Vector_val@U?$_Simple_types@URINGMONSTER_EVENT_TIME@@@std@@@std@@@std@@QBE_NABV01@@Z
_TEXT	SEGMENT
tv69 = -72						; size = 4
_this$ = -4						; size = 4
__Right$ = 8						; size = 4
??9?$_Vector_const_iterator@V?$_Vector_val@U?$_Simple_types@URINGMONSTER_EVENT_TIME@@@std@@@std@@@std@@QBE_NABV01@@Z PROC ; std::_Vector_const_iterator<std::_Vector_val<std::_Simple_types<RINGMONSTER_EVENT_TIME> > >::operator!=, COMDAT
; _this$ = ecx

; 152  :     _NODISCARD bool operator!=(const _Vector_const_iterator& _Right) const {

  00000	55		 push	 ebp
  00001	8b ec		 mov	 ebp, esp
  00003	83 ec 48	 sub	 esp, 72			; 00000048H
  00006	53		 push	 ebx
  00007	56		 push	 esi
  00008	57		 push	 edi
  00009	89 4d fc	 mov	 DWORD PTR _this$[ebp], ecx

; 153  :         return !(*this == _Right);

  0000c	8b 45 08	 mov	 eax, DWORD PTR __Right$[ebp]
  0000f	50		 push	 eax
  00010	8b 4d fc	 mov	 ecx, DWORD PTR _this$[ebp]
  00013	e8 00 00 00 00	 call	 ??8?$_Vector_const_iterator@V?$_Vector_val@U?$_Simple_types@URINGMONSTER_EVENT_TIME@@@std@@@std@@@std@@QBE_NABV01@@Z ; std::_Vector_const_iterator<std::_Vector_val<std::_Simple_types<RINGMONSTER_EVENT_TIME> > >::operator==
  00018	0f b6 c8	 movzx	 ecx, al
  0001b	85 c9		 test	 ecx, ecx
  0001d	75 09		 jne	 SHORT $LN3@operator
  0001f	c7 45 b8 01 00
	00 00		 mov	 DWORD PTR tv69[ebp], 1
  00026	eb 07		 jmp	 SHORT $LN4@operator
$LN3@operator:
  00028	c7 45 b8 00 00
	00 00		 mov	 DWORD PTR tv69[ebp], 0
$LN4@operator:
  0002f	8a 45 b8	 mov	 al, BYTE PTR tv69[ebp]

; 154  :     }

  00032	5f		 pop	 edi
  00033	5e		 pop	 esi
  00034	5b		 pop	 ebx
  00035	8b e5		 mov	 esp, ebp
  00037	5d		 pop	 ebp
  00038	c2 04 00	 ret	 4
??9?$_Vector_const_iterator@V?$_Vector_val@U?$_Simple_types@URINGMONSTER_EVENT_TIME@@@std@@@std@@@std@@QBE_NABV01@@Z ENDP ; std::_Vector_const_iterator<std::_Vector_val<std::_Simple_types<RINGMONSTER_EVENT_TIME> > >::operator!=
_TEXT	ENDS
; Function compile flags: /Odtp /ZI
; File C:\Program Files (x86)\Microsoft Visual Studio\2019\Community\VC\Tools\MSVC\14.27.29110\include\vector
;	COMDAT ??8?$_Vector_const_iterator@V?$_Vector_val@U?$_Simple_types@URINGMONSTER_EVENT_TIME@@@std@@@std@@@std@@QBE_NABV01@@Z
_TEXT	SEGMENT
tv69 = -72						; size = 4
_this$ = -4						; size = 4
__Right$ = 8						; size = 4
??8?$_Vector_const_iterator@V?$_Vector_val@U?$_Simple_types@URINGMONSTER_EVENT_TIME@@@std@@@std@@@std@@QBE_NABV01@@Z PROC ; std::_Vector_const_iterator<std::_Vector_val<std::_Simple_types<RINGMONSTER_EVENT_TIME> > >::operator==, COMDAT
; _this$ = ecx

; 147  :     _NODISCARD bool operator==(const _Vector_const_iterator& _Right) const {

  00000	55		 push	 ebp
  00001	8b ec		 mov	 ebp, esp
  00003	83 ec 48	 sub	 esp, 72			; 00000048H
  00006	53		 push	 ebx
  00007	56		 push	 esi
  00008	57		 push	 edi
  00009	89 4d fc	 mov	 DWORD PTR _this$[ebp], ecx

; 148  :         _Compat(_Right);

  0000c	8b 45 08	 mov	 eax, DWORD PTR __Right$[ebp]
  0000f	50		 push	 eax
  00010	8b 4d fc	 mov	 ecx, DWORD PTR _this$[ebp]
  00013	e8 00 00 00 00	 call	 ?_Compat@?$_Vector_const_iterator@V?$_Vector_val@U?$_Simple_types@URINGMONSTER_EVENT_TIME@@@std@@@std@@@std@@QBEXABV12@@Z ; std::_Vector_const_iterator<std::_Vector_val<std::_Simple_types<RINGMONSTER_EVENT_TIME> > >::_Compat

; 149  :         return _Ptr == _Right._Ptr;

  00018	8b 45 fc	 mov	 eax, DWORD PTR _this$[ebp]
  0001b	8b 4d 08	 mov	 ecx, DWORD PTR __Right$[ebp]
  0001e	8b 10		 mov	 edx, DWORD PTR [eax]
  00020	3b 11		 cmp	 edx, DWORD PTR [ecx]
  00022	75 09		 jne	 SHORT $LN3@operator
  00024	c7 45 b8 01 00
	00 00		 mov	 DWORD PTR tv69[ebp], 1
  0002b	eb 07		 jmp	 SHORT $LN4@operator
$LN3@operator:
  0002d	c7 45 b8 00 00
	00 00		 mov	 DWORD PTR tv69[ebp], 0
$LN4@operator:
  00034	8a 45 b8	 mov	 al, BYTE PTR tv69[ebp]

; 150  :     }

  00037	5f		 pop	 edi
  00038	5e		 pop	 esi
  00039	5b		 pop	 ebx
  0003a	8b e5		 mov	 esp, ebp
  0003c	5d		 pop	 ebp
  0003d	c2 04 00	 ret	 4
??8?$_Vector_const_iterator@V?$_Vector_val@U?$_Simple_types@URINGMONSTER_EVENT_TIME@@@std@@@std@@@std@@QBE_NABV01@@Z ENDP ; std::_Vector_const_iterator<std::_Vector_val<std::_Simple_types<RINGMONSTER_EVENT_TIME> > >::operator==
_TEXT	ENDS
; Function compile flags: /Odtp /ZI
; File C:\Program Files (x86)\Microsoft Visual Studio\2019\Community\VC\Tools\MSVC\14.27.29110\include\vector
;	COMDAT ??E?$_Vector_const_iterator@V?$_Vector_val@U?$_Simple_types@URINGMONSTER_EVENT_TIME@@@std@@@std@@@std@@QAEAAV01@XZ
_TEXT	SEGMENT
_this$ = -4						; size = 4
??E?$_Vector_const_iterator@V?$_Vector_val@U?$_Simple_types@URINGMONSTER_EVENT_TIME@@@std@@@std@@@std@@QAEAAV01@XZ PROC ; std::_Vector_const_iterator<std::_Vector_val<std::_Simple_types<RINGMONSTER_EVENT_TIME> > >::operator++, COMDAT
; _this$ = ecx

; 68   :     _Vector_const_iterator& operator++() {

  00000	55		 push	 ebp
  00001	8b ec		 mov	 ebp, esp
  00003	83 ec 44	 sub	 esp, 68			; 00000044H
  00006	53		 push	 ebx
  00007	56		 push	 esi
  00008	57		 push	 edi
  00009	89 4d fc	 mov	 DWORD PTR _this$[ebp], ecx

; 69   : #if _ITERATOR_DEBUG_LEVEL != 0
; 70   :         const auto _Mycont = static_cast<const _Myvec*>(this->_Getcont());
; 71   :         _STL_VERIFY(_Ptr, "can't increment value-initialized vector iterator");
; 72   :         _STL_VERIFY(_Ptr < _Mycont->_Mylast, "can't increment vector iterator past end");
; 73   : #endif // _ITERATOR_DEBUG_LEVEL != 0
; 74   : 
; 75   :         ++_Ptr;

  0000c	8b 45 fc	 mov	 eax, DWORD PTR _this$[ebp]
  0000f	8b 08		 mov	 ecx, DWORD PTR [eax]
  00011	83 c1 08	 add	 ecx, 8
  00014	8b 55 fc	 mov	 edx, DWORD PTR _this$[ebp]
  00017	89 0a		 mov	 DWORD PTR [edx], ecx

; 76   :         return *this;

  00019	8b 45 fc	 mov	 eax, DWORD PTR _this$[ebp]

; 77   :     }

  0001c	5f		 pop	 edi
  0001d	5e		 pop	 esi
  0001e	5b		 pop	 ebx
  0001f	8b e5		 mov	 esp, ebp
  00021	5d		 pop	 ebp
  00022	c3		 ret	 0
??E?$_Vector_const_iterator@V?$_Vector_val@U?$_Simple_types@URINGMONSTER_EVENT_TIME@@@std@@@std@@@std@@QAEAAV01@XZ ENDP ; std::_Vector_const_iterator<std::_Vector_val<std::_Simple_types<RINGMONSTER_EVENT_TIME> > >::operator++
_TEXT	ENDS
; Function compile flags: /Odtp /ZI
; File C:\Program Files (x86)\Microsoft Visual Studio\2019\Community\VC\Tools\MSVC\14.27.29110\include\vector
;	COMDAT ??D?$_Vector_const_iterator@V?$_Vector_val@U?$_Simple_types@URINGMONSTER_EVENT_TIME@@@std@@@std@@@std@@QBEABURINGMONSTER_EVENT_TIME@@XZ
_TEXT	SEGMENT
_this$ = -4						; size = 4
??D?$_Vector_const_iterator@V?$_Vector_val@U?$_Simple_types@URINGMONSTER_EVENT_TIME@@@std@@@std@@@std@@QBEABURINGMONSTER_EVENT_TIME@@XZ PROC ; std::_Vector_const_iterator<std::_Vector_val<std::_Simple_types<RINGMONSTER_EVENT_TIME> > >::operator*, COMDAT
; _this$ = ecx

; 46   :     _NODISCARD reference operator*() const {

  00000	55		 push	 ebp
  00001	8b ec		 mov	 ebp, esp
  00003	83 ec 44	 sub	 esp, 68			; 00000044H
  00006	53		 push	 ebx
  00007	56		 push	 esi
  00008	57		 push	 edi
  00009	89 4d fc	 mov	 DWORD PTR _this$[ebp], ecx

; 47   : #if _ITERATOR_DEBUG_LEVEL != 0
; 48   :         const auto _Mycont = static_cast<const _Myvec*>(this->_Getcont());
; 49   :         _STL_VERIFY(_Ptr, "can't dereference value-initialized vector iterator");
; 50   :         _STL_VERIFY(
; 51   :             _Mycont->_Myfirst <= _Ptr && _Ptr < _Mycont->_Mylast, "can't dereference out of range vector iterator");
; 52   : #endif // _ITERATOR_DEBUG_LEVEL != 0
; 53   : 
; 54   :         return *_Ptr;

  0000c	8b 45 fc	 mov	 eax, DWORD PTR _this$[ebp]
  0000f	8b 00		 mov	 eax, DWORD PTR [eax]

; 55   :     }

  00011	5f		 pop	 edi
  00012	5e		 pop	 esi
  00013	5b		 pop	 ebx
  00014	8b e5		 mov	 esp, ebp
  00016	5d		 pop	 ebp
  00017	c3		 ret	 0
??D?$_Vector_const_iterator@V?$_Vector_val@U?$_Simple_types@URINGMONSTER_EVENT_TIME@@@std@@@std@@@std@@QBEABURINGMONSTER_EVENT_TIME@@XZ ENDP ; std::_Vector_const_iterator<std::_Vector_val<std::_Simple_types<RINGMONSTER_EVENT_TIME> > >::operator*
_TEXT	ENDS
; Function compile flags: /Odtp /ZI
; File C:\Program Files (x86)\Microsoft Visual Studio\2019\Community\VC\Tools\MSVC\14.27.29110\include\vector
;	COMDAT ??0?$_Vector_const_iterator@V?$_Vector_val@U?$_Simple_types@URINGMONSTER_EVENT_TIME@@@std@@@std@@@std@@QAE@PAURINGMONSTER_EVENT_TIME@@PBU_Container_base0@1@@Z
_TEXT	SEGMENT
_this$ = -4						; size = 4
__Parg$ = 8						; size = 4
__Pvector$ = 12						; size = 4
??0?$_Vector_const_iterator@V?$_Vector_val@U?$_Simple_types@URINGMONSTER_EVENT_TIME@@@std@@@std@@@std@@QAE@PAURINGMONSTER_EVENT_TIME@@PBU_Container_base0@1@@Z PROC ; std::_Vector_const_iterator<std::_Vector_val<std::_Simple_types<RINGMONSTER_EVENT_TIME> > >::_Vector_const_iterator<std::_Vector_val<std::_Simple_types<RINGMONSTER_EVENT_TIME> > >, COMDAT
; _this$ = ecx

; 42   :     _Vector_const_iterator(_Tptr _Parg, const _Container_base* _Pvector) noexcept : _Ptr(_Parg) {

  00000	55		 push	 ebp
  00001	8b ec		 mov	 ebp, esp
  00003	83 ec 44	 sub	 esp, 68			; 00000044H
  00006	53		 push	 ebx
  00007	56		 push	 esi
  00008	57		 push	 edi
  00009	89 4d fc	 mov	 DWORD PTR _this$[ebp], ecx
  0000c	8b 45 fc	 mov	 eax, DWORD PTR _this$[ebp]
  0000f	8b 4d 08	 mov	 ecx, DWORD PTR __Parg$[ebp]
  00012	89 08		 mov	 DWORD PTR [eax], ecx

; 43   :         this->_Adopt(_Pvector);

  00014	8b 45 0c	 mov	 eax, DWORD PTR __Pvector$[ebp]
  00017	50		 push	 eax
  00018	8b 4d fc	 mov	 ecx, DWORD PTR _this$[ebp]
  0001b	e8 00 00 00 00	 call	 ?_Adopt@_Iterator_base0@std@@QAEXPBX@Z ; std::_Iterator_base0::_Adopt

; 44   :     }

  00020	8b 45 fc	 mov	 eax, DWORD PTR _this$[ebp]
  00023	5f		 pop	 edi
  00024	5e		 pop	 esi
  00025	5b		 pop	 ebx
  00026	8b e5		 mov	 esp, ebp
  00028	5d		 pop	 ebp
  00029	c2 08 00	 ret	 8
??0?$_Vector_const_iterator@V?$_Vector_val@U?$_Simple_types@URINGMONSTER_EVENT_TIME@@@std@@@std@@@std@@QAE@PAURINGMONSTER_EVENT_TIME@@PBU_Container_base0@1@@Z ENDP ; std::_Vector_const_iterator<std::_Vector_val<std::_Simple_types<RINGMONSTER_EVENT_TIME> > >::_Vector_const_iterator<std::_Vector_val<std::_Simple_types<RINGMONSTER_EVENT_TIME> > >
_TEXT	ENDS
; Function compile flags: /Odtp /ZI
;	COMDAT ??0?$_Vector_iterator@V?$_Vector_val@U?$_Simple_types@URINGMONSTER_DATA@@@std@@@std@@@std@@QAE@PAURINGMONSTER_DATA@@PBU_Container_base0@1@@Z
_TEXT	SEGMENT
_this$ = -4						; size = 4
___param0$ = 8						; size = 4
___param1$ = 12						; size = 4
??0?$_Vector_iterator@V?$_Vector_val@U?$_Simple_types@URINGMONSTER_DATA@@@std@@@std@@@std@@QAE@PAURINGMONSTER_DATA@@PBU_Container_base0@1@@Z PROC ; std::_Vector_iterator<std::_Vector_val<std::_Simple_types<RINGMONSTER_DATA> > >::_Vector_iterator<std::_Vector_val<std::_Simple_types<RINGMONSTER_DATA> > >, COMDAT
; _this$ = ecx
  00000	55		 push	 ebp
  00001	8b ec		 mov	 ebp, esp
  00003	83 ec 44	 sub	 esp, 68			; 00000044H
  00006	53		 push	 ebx
  00007	56		 push	 esi
  00008	57		 push	 edi
  00009	89 4d fc	 mov	 DWORD PTR _this$[ebp], ecx
  0000c	8b 45 0c	 mov	 eax, DWORD PTR ___param1$[ebp]
  0000f	50		 push	 eax
  00010	8b 4d 08	 mov	 ecx, DWORD PTR ___param0$[ebp]
  00013	51		 push	 ecx
  00014	8b 4d fc	 mov	 ecx, DWORD PTR _this$[ebp]
  00017	e8 00 00 00 00	 call	 ??0?$_Vector_const_iterator@V?$_Vector_val@U?$_Simple_types@URINGMONSTER_DATA@@@std@@@std@@@std@@QAE@PAURINGMONSTER_DATA@@PBU_Container_base0@1@@Z ; std::_Vector_const_iterator<std::_Vector_val<std::_Simple_types<RINGMONSTER_DATA> > >::_Vector_const_iterator<std::_Vector_val<std::_Simple_types<RINGMONSTER_DATA> > >
  0001c	8b 45 fc	 mov	 eax, DWORD PTR _this$[ebp]
  0001f	5f		 pop	 edi
  00020	5e		 pop	 esi
  00021	5b		 pop	 ebx
  00022	8b e5		 mov	 esp, ebp
  00024	5d		 pop	 ebp
  00025	c2 08 00	 ret	 8
??0?$_Vector_iterator@V?$_Vector_val@U?$_Simple_types@URINGMONSTER_DATA@@@std@@@std@@@std@@QAE@PAURINGMONSTER_DATA@@PBU_Container_base0@1@@Z ENDP ; std::_Vector_iterator<std::_Vector_val<std::_Simple_types<RINGMONSTER_DATA> > >::_Vector_iterator<std::_Vector_val<std::_Simple_types<RINGMONSTER_DATA> > >
_TEXT	ENDS
; Function compile flags: /Odtp /ZI
; File C:\Program Files (x86)\Microsoft Visual Studio\2019\Community\VC\Tools\MSVC\14.27.29110\include\vector
;	COMDAT ??E?$_Vector_iterator@V?$_Vector_val@U?$_Simple_types@URINGMONSTER_DATA@@@std@@@std@@@std@@QAE?AV01@H@Z
_TEXT	SEGMENT
__Tmp$ = -8						; size = 4
_this$ = -4						; size = 4
___$ReturnUdt$ = 8					; size = 4
___formal$ = 12						; size = 4
??E?$_Vector_iterator@V?$_Vector_val@U?$_Simple_types@URINGMONSTER_DATA@@@std@@@std@@@std@@QAE?AV01@H@Z PROC ; std::_Vector_iterator<std::_Vector_val<std::_Simple_types<RINGMONSTER_DATA> > >::operator++, COMDAT
; _this$ = ecx

; 264  :     _Vector_iterator operator++(int) {

  00000	55		 push	 ebp
  00001	8b ec		 mov	 ebp, esp
  00003	83 ec 48	 sub	 esp, 72			; 00000048H
  00006	53		 push	 ebx
  00007	56		 push	 esi
  00008	57		 push	 edi
  00009	89 4d fc	 mov	 DWORD PTR _this$[ebp], ecx

; 265  :         _Vector_iterator _Tmp = *this;

  0000c	8b 45 fc	 mov	 eax, DWORD PTR _this$[ebp]
  0000f	8b 08		 mov	 ecx, DWORD PTR [eax]
  00011	89 4d f8	 mov	 DWORD PTR __Tmp$[ebp], ecx

; 266  :         _Mybase::operator++();

  00014	8b 4d fc	 mov	 ecx, DWORD PTR _this$[ebp]
  00017	e8 00 00 00 00	 call	 ??E?$_Vector_const_iterator@V?$_Vector_val@U?$_Simple_types@URINGMONSTER_DATA@@@std@@@std@@@std@@QAEAAV01@XZ ; std::_Vector_const_iterator<std::_Vector_val<std::_Simple_types<RINGMONSTER_DATA> > >::operator++

; 267  :         return _Tmp;

  0001c	8b 45 08	 mov	 eax, DWORD PTR ___$ReturnUdt$[ebp]
  0001f	8b 4d f8	 mov	 ecx, DWORD PTR __Tmp$[ebp]
  00022	89 08		 mov	 DWORD PTR [eax], ecx
  00024	8b 45 08	 mov	 eax, DWORD PTR ___$ReturnUdt$[ebp]

; 268  :     }

  00027	5f		 pop	 edi
  00028	5e		 pop	 esi
  00029	5b		 pop	 ebx
  0002a	8b e5		 mov	 esp, ebp
  0002c	5d		 pop	 ebp
  0002d	c2 08 00	 ret	 8
??E?$_Vector_iterator@V?$_Vector_val@U?$_Simple_types@URINGMONSTER_DATA@@@std@@@std@@@std@@QAE?AV01@H@Z ENDP ; std::_Vector_iterator<std::_Vector_val<std::_Simple_types<RINGMONSTER_DATA> > >::operator++
_TEXT	ENDS
; Function compile flags: /Odtp /ZI
; File C:\Program Files (x86)\Microsoft Visual Studio\2019\Community\VC\Tools\MSVC\14.27.29110\include\vector
;	COMDAT ??D?$_Vector_iterator@V?$_Vector_val@U?$_Simple_types@URINGMONSTER_DATA@@@std@@@std@@@std@@QBEAAURINGMONSTER_DATA@@XZ
_TEXT	SEGMENT
_this$ = -4						; size = 4
??D?$_Vector_iterator@V?$_Vector_val@U?$_Simple_types@URINGMONSTER_DATA@@@std@@@std@@@std@@QBEAAURINGMONSTER_DATA@@XZ PROC ; std::_Vector_iterator<std::_Vector_val<std::_Simple_types<RINGMONSTER_DATA> > >::operator*, COMDAT
; _this$ = ecx

; 251  :     _NODISCARD reference operator*() const {

  00000	55		 push	 ebp
  00001	8b ec		 mov	 ebp, esp
  00003	83 ec 44	 sub	 esp, 68			; 00000044H
  00006	53		 push	 ebx
  00007	56		 push	 esi
  00008	57		 push	 edi
  00009	89 4d fc	 mov	 DWORD PTR _this$[ebp], ecx

; 252  :         return const_cast<reference>(_Mybase::operator*());

  0000c	8b 4d fc	 mov	 ecx, DWORD PTR _this$[ebp]
  0000f	e8 00 00 00 00	 call	 ??D?$_Vector_const_iterator@V?$_Vector_val@U?$_Simple_types@URINGMONSTER_DATA@@@std@@@std@@@std@@QBEABURINGMONSTER_DATA@@XZ ; std::_Vector_const_iterator<std::_Vector_val<std::_Simple_types<RINGMONSTER_DATA> > >::operator*

; 253  :     }

  00014	5f		 pop	 edi
  00015	5e		 pop	 esi
  00016	5b		 pop	 ebx
  00017	8b e5		 mov	 esp, ebp
  00019	5d		 pop	 ebp
  0001a	c3		 ret	 0
??D?$_Vector_iterator@V?$_Vector_val@U?$_Simple_types@URINGMONSTER_DATA@@@std@@@std@@@std@@QBEAAURINGMONSTER_DATA@@XZ ENDP ; std::_Vector_iterator<std::_Vector_val<std::_Simple_types<RINGMONSTER_DATA> > >::operator*
_TEXT	ENDS
; Function compile flags: /Odtp /ZI
; File C:\Program Files (x86)\Microsoft Visual Studio\2019\Community\VC\Tools\MSVC\14.27.29110\include\vector
;	COMDAT ?_Compat@?$_Vector_const_iterator@V?$_Vector_val@U?$_Simple_types@URINGMONSTER_DATA@@@std@@@std@@@std@@QBEXABV12@@Z
_TEXT	SEGMENT
_this$ = -4						; size = 4
__Right$ = 8						; size = 4
?_Compat@?$_Vector_const_iterator@V?$_Vector_val@U?$_Simple_types@URINGMONSTER_DATA@@@std@@@std@@@std@@QBEXABV12@@Z PROC ; std::_Vector_const_iterator<std::_Vector_val<std::_Simple_types<RINGMONSTER_DATA> > >::_Compat, COMDAT
; _this$ = ecx

; 173  :     void _Compat(const _Vector_const_iterator& _Right) const { // test for compatible iterator pair

  00000	55		 push	 ebp
  00001	8b ec		 mov	 ebp, esp
  00003	83 ec 44	 sub	 esp, 68			; 00000044H
  00006	53		 push	 ebx
  00007	56		 push	 esi
  00008	57		 push	 edi
  00009	89 4d fc	 mov	 DWORD PTR _this$[ebp], ecx

; 174  : #if _ITERATOR_DEBUG_LEVEL == 0
; 175  :         (void) _Right;
; 176  : #else // ^^^ _ITERATOR_DEBUG_LEVEL == 0 ^^^ // vvv _ITERATOR_DEBUG_LEVEL != 0 vvv
; 177  :         _STL_VERIFY(this->_Getcont() == _Right._Getcont(), "vector iterators incompatible");
; 178  : #endif // _ITERATOR_DEBUG_LEVEL == 0
; 179  :     }

  0000c	5f		 pop	 edi
  0000d	5e		 pop	 esi
  0000e	5b		 pop	 ebx
  0000f	8b e5		 mov	 esp, ebp
  00011	5d		 pop	 ebp
  00012	c2 04 00	 ret	 4
?_Compat@?$_Vector_const_iterator@V?$_Vector_val@U?$_Simple_types@URINGMONSTER_DATA@@@std@@@std@@@std@@QBEXABV12@@Z ENDP ; std::_Vector_const_iterator<std::_Vector_val<std::_Simple_types<RINGMONSTER_DATA> > >::_Compat
_TEXT	ENDS
; Function compile flags: /Odtp /ZI
; File C:\Program Files (x86)\Microsoft Visual Studio\2019\Community\VC\Tools\MSVC\14.27.29110\include\vector
;	COMDAT ??9?$_Vector_const_iterator@V?$_Vector_val@U?$_Simple_types@URINGMONSTER_DATA@@@std@@@std@@@std@@QBE_NABV01@@Z
_TEXT	SEGMENT
tv69 = -72						; size = 4
_this$ = -4						; size = 4
__Right$ = 8						; size = 4
??9?$_Vector_const_iterator@V?$_Vector_val@U?$_Simple_types@URINGMONSTER_DATA@@@std@@@std@@@std@@QBE_NABV01@@Z PROC ; std::_Vector_const_iterator<std::_Vector_val<std::_Simple_types<RINGMONSTER_DATA> > >::operator!=, COMDAT
; _this$ = ecx

; 152  :     _NODISCARD bool operator!=(const _Vector_const_iterator& _Right) const {

  00000	55		 push	 ebp
  00001	8b ec		 mov	 ebp, esp
  00003	83 ec 48	 sub	 esp, 72			; 00000048H
  00006	53		 push	 ebx
  00007	56		 push	 esi
  00008	57		 push	 edi
  00009	89 4d fc	 mov	 DWORD PTR _this$[ebp], ecx

; 153  :         return !(*this == _Right);

  0000c	8b 45 08	 mov	 eax, DWORD PTR __Right$[ebp]
  0000f	50		 push	 eax
  00010	8b 4d fc	 mov	 ecx, DWORD PTR _this$[ebp]
  00013	e8 00 00 00 00	 call	 ??8?$_Vector_const_iterator@V?$_Vector_val@U?$_Simple_types@URINGMONSTER_DATA@@@std@@@std@@@std@@QBE_NABV01@@Z ; std::_Vector_const_iterator<std::_Vector_val<std::_Simple_types<RINGMONSTER_DATA> > >::operator==
  00018	0f b6 c8	 movzx	 ecx, al
  0001b	85 c9		 test	 ecx, ecx
  0001d	75 09		 jne	 SHORT $LN3@operator
  0001f	c7 45 b8 01 00
	00 00		 mov	 DWORD PTR tv69[ebp], 1
  00026	eb 07		 jmp	 SHORT $LN4@operator
$LN3@operator:
  00028	c7 45 b8 00 00
	00 00		 mov	 DWORD PTR tv69[ebp], 0
$LN4@operator:
  0002f	8a 45 b8	 mov	 al, BYTE PTR tv69[ebp]

; 154  :     }

  00032	5f		 pop	 edi
  00033	5e		 pop	 esi
  00034	5b		 pop	 ebx
  00035	8b e5		 mov	 esp, ebp
  00037	5d		 pop	 ebp
  00038	c2 04 00	 ret	 4
??9?$_Vector_const_iterator@V?$_Vector_val@U?$_Simple_types@URINGMONSTER_DATA@@@std@@@std@@@std@@QBE_NABV01@@Z ENDP ; std::_Vector_const_iterator<std::_Vector_val<std::_Simple_types<RINGMONSTER_DATA> > >::operator!=
_TEXT	ENDS
; Function compile flags: /Odtp /ZI
; File C:\Program Files (x86)\Microsoft Visual Studio\2019\Community\VC\Tools\MSVC\14.27.29110\include\vector
;	COMDAT ??8?$_Vector_const_iterator@V?$_Vector_val@U?$_Simple_types@URINGMONSTER_DATA@@@std@@@std@@@std@@QBE_NABV01@@Z
_TEXT	SEGMENT
tv69 = -72						; size = 4
_this$ = -4						; size = 4
__Right$ = 8						; size = 4
??8?$_Vector_const_iterator@V?$_Vector_val@U?$_Simple_types@URINGMONSTER_DATA@@@std@@@std@@@std@@QBE_NABV01@@Z PROC ; std::_Vector_const_iterator<std::_Vector_val<std::_Simple_types<RINGMONSTER_DATA> > >::operator==, COMDAT
; _this$ = ecx

; 147  :     _NODISCARD bool operator==(const _Vector_const_iterator& _Right) const {

  00000	55		 push	 ebp
  00001	8b ec		 mov	 ebp, esp
  00003	83 ec 48	 sub	 esp, 72			; 00000048H
  00006	53		 push	 ebx
  00007	56		 push	 esi
  00008	57		 push	 edi
  00009	89 4d fc	 mov	 DWORD PTR _this$[ebp], ecx

; 148  :         _Compat(_Right);

  0000c	8b 45 08	 mov	 eax, DWORD PTR __Right$[ebp]
  0000f	50		 push	 eax
  00010	8b 4d fc	 mov	 ecx, DWORD PTR _this$[ebp]
  00013	e8 00 00 00 00	 call	 ?_Compat@?$_Vector_const_iterator@V?$_Vector_val@U?$_Simple_types@URINGMONSTER_DATA@@@std@@@std@@@std@@QBEXABV12@@Z ; std::_Vector_const_iterator<std::_Vector_val<std::_Simple_types<RINGMONSTER_DATA> > >::_Compat

; 149  :         return _Ptr == _Right._Ptr;

  00018	8b 45 fc	 mov	 eax, DWORD PTR _this$[ebp]
  0001b	8b 4d 08	 mov	 ecx, DWORD PTR __Right$[ebp]
  0001e	8b 10		 mov	 edx, DWORD PTR [eax]
  00020	3b 11		 cmp	 edx, DWORD PTR [ecx]
  00022	75 09		 jne	 SHORT $LN3@operator
  00024	c7 45 b8 01 00
	00 00		 mov	 DWORD PTR tv69[ebp], 1
  0002b	eb 07		 jmp	 SHORT $LN4@operator
$LN3@operator:
  0002d	c7 45 b8 00 00
	00 00		 mov	 DWORD PTR tv69[ebp], 0
$LN4@operator:
  00034	8a 45 b8	 mov	 al, BYTE PTR tv69[ebp]

; 150  :     }

  00037	5f		 pop	 edi
  00038	5e		 pop	 esi
  00039	5b		 pop	 ebx
  0003a	8b e5		 mov	 esp, ebp
  0003c	5d		 pop	 ebp
  0003d	c2 04 00	 ret	 4
??8?$_Vector_const_iterator@V?$_Vector_val@U?$_Simple_types@URINGMONSTER_DATA@@@std@@@std@@@std@@QBE_NABV01@@Z ENDP ; std::_Vector_const_iterator<std::_Vector_val<std::_Simple_types<RINGMONSTER_DATA> > >::operator==
_TEXT	ENDS
; Function compile flags: /Odtp /ZI
; File C:\Program Files (x86)\Microsoft Visual Studio\2019\Community\VC\Tools\MSVC\14.27.29110\include\vector
;	COMDAT ??E?$_Vector_const_iterator@V?$_Vector_val@U?$_Simple_types@URINGMONSTER_DATA@@@std@@@std@@@std@@QAEAAV01@XZ
_TEXT	SEGMENT
_this$ = -4						; size = 4
??E?$_Vector_const_iterator@V?$_Vector_val@U?$_Simple_types@URINGMONSTER_DATA@@@std@@@std@@@std@@QAEAAV01@XZ PROC ; std::_Vector_const_iterator<std::_Vector_val<std::_Simple_types<RINGMONSTER_DATA> > >::operator++, COMDAT
; _this$ = ecx

; 68   :     _Vector_const_iterator& operator++() {

  00000	55		 push	 ebp
  00001	8b ec		 mov	 ebp, esp
  00003	83 ec 44	 sub	 esp, 68			; 00000044H
  00006	53		 push	 ebx
  00007	56		 push	 esi
  00008	57		 push	 edi
  00009	89 4d fc	 mov	 DWORD PTR _this$[ebp], ecx

; 69   : #if _ITERATOR_DEBUG_LEVEL != 0
; 70   :         const auto _Mycont = static_cast<const _Myvec*>(this->_Getcont());
; 71   :         _STL_VERIFY(_Ptr, "can't increment value-initialized vector iterator");
; 72   :         _STL_VERIFY(_Ptr < _Mycont->_Mylast, "can't increment vector iterator past end");
; 73   : #endif // _ITERATOR_DEBUG_LEVEL != 0
; 74   : 
; 75   :         ++_Ptr;

  0000c	8b 45 fc	 mov	 eax, DWORD PTR _this$[ebp]
  0000f	8b 08		 mov	 ecx, DWORD PTR [eax]
  00011	83 c1 0c	 add	 ecx, 12			; 0000000cH
  00014	8b 55 fc	 mov	 edx, DWORD PTR _this$[ebp]
  00017	89 0a		 mov	 DWORD PTR [edx], ecx

; 76   :         return *this;

  00019	8b 45 fc	 mov	 eax, DWORD PTR _this$[ebp]

; 77   :     }

  0001c	5f		 pop	 edi
  0001d	5e		 pop	 esi
  0001e	5b		 pop	 ebx
  0001f	8b e5		 mov	 esp, ebp
  00021	5d		 pop	 ebp
  00022	c3		 ret	 0
??E?$_Vector_const_iterator@V?$_Vector_val@U?$_Simple_types@URINGMONSTER_DATA@@@std@@@std@@@std@@QAEAAV01@XZ ENDP ; std::_Vector_const_iterator<std::_Vector_val<std::_Simple_types<RINGMONSTER_DATA> > >::operator++
_TEXT	ENDS
; Function compile flags: /Odtp /ZI
; File C:\Program Files (x86)\Microsoft Visual Studio\2019\Community\VC\Tools\MSVC\14.27.29110\include\vector
;	COMDAT ??D?$_Vector_const_iterator@V?$_Vector_val@U?$_Simple_types@URINGMONSTER_DATA@@@std@@@std@@@std@@QBEABURINGMONSTER_DATA@@XZ
_TEXT	SEGMENT
_this$ = -4						; size = 4
??D?$_Vector_const_iterator@V?$_Vector_val@U?$_Simple_types@URINGMONSTER_DATA@@@std@@@std@@@std@@QBEABURINGMONSTER_DATA@@XZ PROC ; std::_Vector_const_iterator<std::_Vector_val<std::_Simple_types<RINGMONSTER_DATA> > >::operator*, COMDAT
; _this$ = ecx

; 46   :     _NODISCARD reference operator*() const {

  00000	55		 push	 ebp
  00001	8b ec		 mov	 ebp, esp
  00003	83 ec 44	 sub	 esp, 68			; 00000044H
  00006	53		 push	 ebx
  00007	56		 push	 esi
  00008	57		 push	 edi
  00009	89 4d fc	 mov	 DWORD PTR _this$[ebp], ecx

; 47   : #if _ITERATOR_DEBUG_LEVEL != 0
; 48   :         const auto _Mycont = static_cast<const _Myvec*>(this->_Getcont());
; 49   :         _STL_VERIFY(_Ptr, "can't dereference value-initialized vector iterator");
; 50   :         _STL_VERIFY(
; 51   :             _Mycont->_Myfirst <= _Ptr && _Ptr < _Mycont->_Mylast, "can't dereference out of range vector iterator");
; 52   : #endif // _ITERATOR_DEBUG_LEVEL != 0
; 53   : 
; 54   :         return *_Ptr;

  0000c	8b 45 fc	 mov	 eax, DWORD PTR _this$[ebp]
  0000f	8b 00		 mov	 eax, DWORD PTR [eax]

; 55   :     }

  00011	5f		 pop	 edi
  00012	5e		 pop	 esi
  00013	5b		 pop	 ebx
  00014	8b e5		 mov	 esp, ebp
  00016	5d		 pop	 ebp
  00017	c3		 ret	 0
??D?$_Vector_const_iterator@V?$_Vector_val@U?$_Simple_types@URINGMONSTER_DATA@@@std@@@std@@@std@@QBEABURINGMONSTER_DATA@@XZ ENDP ; std::_Vector_const_iterator<std::_Vector_val<std::_Simple_types<RINGMONSTER_DATA> > >::operator*
_TEXT	ENDS
; Function compile flags: /Odtp /ZI
; File C:\Program Files (x86)\Microsoft Visual Studio\2019\Community\VC\Tools\MSVC\14.27.29110\include\vector
;	COMDAT ??0?$_Vector_const_iterator@V?$_Vector_val@U?$_Simple_types@URINGMONSTER_DATA@@@std@@@std@@@std@@QAE@PAURINGMONSTER_DATA@@PBU_Container_base0@1@@Z
_TEXT	SEGMENT
_this$ = -4						; size = 4
__Parg$ = 8						; size = 4
__Pvector$ = 12						; size = 4
??0?$_Vector_const_iterator@V?$_Vector_val@U?$_Simple_types@URINGMONSTER_DATA@@@std@@@std@@@std@@QAE@PAURINGMONSTER_DATA@@PBU_Container_base0@1@@Z PROC ; std::_Vector_const_iterator<std::_Vector_val<std::_Simple_types<RINGMONSTER_DATA> > >::_Vector_const_iterator<std::_Vector_val<std::_Simple_types<RINGMONSTER_DATA> > >, COMDAT
; _this$ = ecx

; 42   :     _Vector_const_iterator(_Tptr _Parg, const _Container_base* _Pvector) noexcept : _Ptr(_Parg) {

  00000	55		 push	 ebp
  00001	8b ec		 mov	 ebp, esp
  00003	83 ec 44	 sub	 esp, 68			; 00000044H
  00006	53		 push	 ebx
  00007	56		 push	 esi
  00008	57		 push	 edi
  00009	89 4d fc	 mov	 DWORD PTR _this$[ebp], ecx
  0000c	8b 45 fc	 mov	 eax, DWORD PTR _this$[ebp]
  0000f	8b 4d 08	 mov	 ecx, DWORD PTR __Parg$[ebp]
  00012	89 08		 mov	 DWORD PTR [eax], ecx

; 43   :         this->_Adopt(_Pvector);

  00014	8b 45 0c	 mov	 eax, DWORD PTR __Pvector$[ebp]
  00017	50		 push	 eax
  00018	8b 4d fc	 mov	 ecx, DWORD PTR _this$[ebp]
  0001b	e8 00 00 00 00	 call	 ?_Adopt@_Iterator_base0@std@@QAEXPBX@Z ; std::_Iterator_base0::_Adopt

; 44   :     }

  00020	8b 45 fc	 mov	 eax, DWORD PTR _this$[ebp]
  00023	5f		 pop	 edi
  00024	5e		 pop	 esi
  00025	5b		 pop	 ebx
  00026	8b e5		 mov	 esp, ebp
  00028	5d		 pop	 ebp
  00029	c2 08 00	 ret	 8
??0?$_Vector_const_iterator@V?$_Vector_val@U?$_Simple_types@URINGMONSTER_DATA@@@std@@@std@@@std@@QAE@PAURINGMONSTER_DATA@@PBU_Container_base0@1@@Z ENDP ; std::_Vector_const_iterator<std::_Vector_val<std::_Simple_types<RINGMONSTER_DATA> > >::_Vector_const_iterator<std::_Vector_val<std::_Simple_types<RINGMONSTER_DATA> > >
_TEXT	ENDS
; Function compile flags: /Odtp /ZI
; File C:\Mu Online\Mu-GS-Webzen-MC-10093\Include\ReadScript.h
;	COMDAT ?GetToken@@YA?AW4SMDToken@@XZ
_TEXT	SEGMENT
tv93 = -184						; size = 4
$T1 = -180						; size = 4
_TempString$ = -112					; size = 100
_p$ = -12						; size = 4
_ch$ = -5						; size = 1
__$ArrayPad$ = -4					; size = 4
?GetToken@@YA?AW4SMDToken@@XZ PROC			; GetToken, COMDAT

; 25   : {

  00000	55		 push	 ebp
  00001	8b ec		 mov	 ebp, esp
  00003	81 ec b8 00 00
	00		 sub	 esp, 184		; 000000b8H
  00009	a1 00 00 00 00	 mov	 eax, DWORD PTR ___security_cookie
  0000e	33 c5		 xor	 eax, ebp
  00010	89 45 fc	 mov	 DWORD PTR __$ArrayPad$[ebp], eax
  00013	53		 push	 ebx
  00014	56		 push	 esi
  00015	57		 push	 edi

; 26   : 	unsigned char ch;
; 27   : 	TokenString[0] = '\0';

  00016	b8 01 00 00 00	 mov	 eax, 1
  0001b	6b c8 00	 imul	 ecx, eax, 0
  0001e	89 8d 4c ff ff
	ff		 mov	 DWORD PTR $T1[ebp], ecx
  00024	83 bd 4c ff ff
	ff 64		 cmp	 DWORD PTR $T1[ebp], 100	; 00000064H
  0002b	73 02		 jae	 SHORT $LN31@GetToken
  0002d	eb 05		 jmp	 SHORT $LN32@GetToken
$LN31@GetToken:
  0002f	e8 00 00 00 00	 call	 ___report_rangecheckfailure
$LN32@GetToken:
  00034	8b 95 4c ff ff
	ff		 mov	 edx, DWORD PTR $T1[ebp]
  0003a	c6 82 00 00 00
	00 00		 mov	 BYTE PTR ?TokenString@@3PADA[edx], 0
$LN4@GetToken:

; 28   : 	do
; 29   : 	{
; 30   : 		if ( (ch =(unsigned char) fgetc(SMDFile)) == (BYTE)EOF) return END;

  00041	a1 00 00 00 00	 mov	 eax, DWORD PTR ?SMDFile@@3PAU_iobuf@@A
  00046	50		 push	 eax
  00047	e8 00 00 00 00	 call	 _fgetc
  0004c	83 c4 04	 add	 esp, 4
  0004f	88 45 fb	 mov	 BYTE PTR _ch$[ebp], al
  00052	0f b6 4d fb	 movzx	 ecx, BYTE PTR _ch$[ebp]
  00056	81 f9 ff 00 00
	00		 cmp	 ecx, 255		; 000000ffH
  0005c	75 0a		 jne	 SHORT $LN15@GetToken
  0005e	b8 02 00 00 00	 mov	 eax, 2
  00063	e9 d9 02 00 00	 jmp	 $LN7@GetToken
$LN15@GetToken:

; 31   : 		if (ch=='/' && (ch =(unsigned char) fgetc(SMDFile) )=='/')	

  00068	0f b6 45 fb	 movzx	 eax, BYTE PTR _ch$[ebp]
  0006c	83 f8 2f	 cmp	 eax, 47			; 0000002fH
  0006f	75 56		 jne	 SHORT $LN17@GetToken
  00071	a1 00 00 00 00	 mov	 eax, DWORD PTR ?SMDFile@@3PAU_iobuf@@A
  00076	50		 push	 eax
  00077	e8 00 00 00 00	 call	 _fgetc
  0007c	83 c4 04	 add	 esp, 4
  0007f	88 45 fb	 mov	 BYTE PTR _ch$[ebp], al
  00082	0f b6 4d fb	 movzx	 ecx, BYTE PTR _ch$[ebp]
  00086	83 f9 2f	 cmp	 ecx, 47			; 0000002fH
  00089	75 3c		 jne	 SHORT $LN17@GetToken
$LN5@GetToken:

; 32   : 		{
; 33   : 			while((ch != '\n') && (ch != (BYTE)EOF)) {			// 2003.09.02 H.J.I 

  0008b	0f b6 45 fb	 movzx	 eax, BYTE PTR _ch$[ebp]
  0008f	83 f8 0a	 cmp	 eax, 10			; 0000000aH
  00092	74 1e		 je	 SHORT $LN6@GetToken
  00094	0f b6 45 fb	 movzx	 eax, BYTE PTR _ch$[ebp]
  00098	3d ff 00 00 00	 cmp	 eax, 255		; 000000ffH
  0009d	74 13		 je	 SHORT $LN6@GetToken

; 34   : 				ch = (unsigned char) fgetc( SMDFile);

  0009f	a1 00 00 00 00	 mov	 eax, DWORD PTR ?SMDFile@@3PAU_iobuf@@A
  000a4	50		 push	 eax
  000a5	e8 00 00 00 00	 call	 _fgetc
  000aa	83 c4 04	 add	 esp, 4
  000ad	88 45 fb	 mov	 BYTE PTR _ch$[ebp], al

; 35   : 			}

  000b0	eb d9		 jmp	 SHORT $LN5@GetToken
$LN6@GetToken:

; 36   : 
; 37   : 			if (ch == (BYTE)EOF)

  000b2	0f b6 45 fb	 movzx	 eax, BYTE PTR _ch$[ebp]
  000b6	3d ff 00 00 00	 cmp	 eax, 255		; 000000ffH
  000bb	75 0a		 jne	 SHORT $LN17@GetToken

; 38   : 				return END;

  000bd	b8 02 00 00 00	 mov	 eax, 2
  000c2	e9 7a 02 00 00	 jmp	 $LN7@GetToken
$LN17@GetToken:

; 39   : 		}
; 40   : 	} while(  isspace(ch) );

  000c7	0f b6 45 fb	 movzx	 eax, BYTE PTR _ch$[ebp]
  000cb	50		 push	 eax
  000cc	e8 00 00 00 00	 call	 _isspace
  000d1	83 c4 04	 add	 esp, 4
  000d4	85 c0		 test	 eax, eax
  000d6	0f 85 65 ff ff
	ff		 jne	 $LN4@GetToken

; 41   : 	
; 42   : 	char *p, TempString[100];
; 43   : 	switch(ch)

  000dc	0f b6 45 fb	 movzx	 eax, BYTE PTR _ch$[ebp]
  000e0	89 85 48 ff ff
	ff		 mov	 DWORD PTR tv93[ebp], eax
  000e6	8b 8d 48 ff ff
	ff		 mov	 ecx, DWORD PTR tv93[ebp]
  000ec	83 e9 22	 sub	 ecx, 34			; 00000022H
  000ef	89 8d 48 ff ff
	ff		 mov	 DWORD PTR tv93[ebp], ecx
  000f5	83 bd 48 ff ff
	ff 5b		 cmp	 DWORD PTR tv93[ebp], 91	; 0000005bH
  000fc	0f 87 86 01 00
	00		 ja	 $LN27@GetToken
  00102	8b 95 48 ff ff
	ff		 mov	 edx, DWORD PTR tv93[ebp]
  00108	0f b6 82 00 00
	00 00		 movzx	 eax, BYTE PTR $LN33@GetToken[edx]
  0010f	ff 24 85 00 00
	00 00		 jmp	 DWORD PTR $LN34@GetToken[eax*4]
$LN18@GetToken:

; 44   : 	{	
; 45   : 	case '#':
; 46   : 		return CurrentToken = COMMAND;

  00116	c7 05 00 00 00
	00 23 00 00 00	 mov	 DWORD PTR ?CurrentToken@@3W4SMDToken@@A, 35 ; 00000023H
  00120	a1 00 00 00 00	 mov	 eax, DWORD PTR ?CurrentToken@@3W4SMDToken@@A
  00125	e9 17 02 00 00	 jmp	 $LN7@GetToken
$LN19@GetToken:

; 47   : 	case ';':
; 48   : 		return CurrentToken = SEMICOLON;

  0012a	c7 05 00 00 00
	00 3b 00 00 00	 mov	 DWORD PTR ?CurrentToken@@3W4SMDToken@@A, 59 ; 0000003bH
  00134	a1 00 00 00 00	 mov	 eax, DWORD PTR ?CurrentToken@@3W4SMDToken@@A
  00139	e9 03 02 00 00	 jmp	 $LN7@GetToken
$LN20@GetToken:

; 49   : 	case ',':
; 50   : 		return CurrentToken = COMMA;

  0013e	c7 05 00 00 00
	00 2c 00 00 00	 mov	 DWORD PTR ?CurrentToken@@3W4SMDToken@@A, 44 ; 0000002cH
  00148	a1 00 00 00 00	 mov	 eax, DWORD PTR ?CurrentToken@@3W4SMDToken@@A
  0014d	e9 ef 01 00 00	 jmp	 $LN7@GetToken
$LN21@GetToken:

; 51   : 	case '{':
; 52   : 		return CurrentToken = LP;

  00152	c7 05 00 00 00
	00 7b 00 00 00	 mov	 DWORD PTR ?CurrentToken@@3W4SMDToken@@A, 123 ; 0000007bH
  0015c	a1 00 00 00 00	 mov	 eax, DWORD PTR ?CurrentToken@@3W4SMDToken@@A
  00161	e9 db 01 00 00	 jmp	 $LN7@GetToken
$LN22@GetToken:

; 53   : 	case '}':
; 54   : 		return CurrentToken = RP;

  00166	c7 05 00 00 00
	00 7d 00 00 00	 mov	 DWORD PTR ?CurrentToken@@3W4SMDToken@@A, 125 ; 0000007dH
  00170	a1 00 00 00 00	 mov	 eax, DWORD PTR ?CurrentToken@@3W4SMDToken@@A
  00175	e9 c7 01 00 00	 jmp	 $LN7@GetToken
$LN23@GetToken:

; 55   : 	case '0':	case '1':	case '2':	case '3':	case '4':
; 56   : 	case '5':	case '6':	case '7':	case '8':	case '9':
; 57   : 	case '.':	case '-':
; 58   : 		ungetc(ch,SMDFile);

  0017a	a1 00 00 00 00	 mov	 eax, DWORD PTR ?SMDFile@@3PAU_iobuf@@A
  0017f	50		 push	 eax
  00180	0f b6 4d fb	 movzx	 ecx, BYTE PTR _ch$[ebp]
  00184	51		 push	 ecx
  00185	e8 00 00 00 00	 call	 _ungetc
  0018a	83 c4 08	 add	 esp, 8

; 59   : 		p = TempString;

  0018d	8d 45 90	 lea	 eax, DWORD PTR _TempString$[ebp]
  00190	89 45 f4	 mov	 DWORD PTR _p$[ebp], eax
$LN9@GetToken:

; 60   : 		while ( (  (ch = getc(SMDFile) ) !=(BYTE)EOF) && (ch=='.' || isdigit(ch) || ch=='-') )

  00193	a1 00 00 00 00	 mov	 eax, DWORD PTR ?SMDFile@@3PAU_iobuf@@A
  00198	50		 push	 eax
  00199	e8 00 00 00 00	 call	 _getc
  0019e	83 c4 04	 add	 esp, 4
  001a1	88 45 fb	 mov	 BYTE PTR _ch$[ebp], al
  001a4	0f b6 4d fb	 movzx	 ecx, BYTE PTR _ch$[ebp]
  001a8	81 f9 ff 00 00
	00		 cmp	 ecx, 255		; 000000ffH
  001ae	74 36		 je	 SHORT $LN10@GetToken
  001b0	0f b6 45 fb	 movzx	 eax, BYTE PTR _ch$[ebp]
  001b4	83 f8 2e	 cmp	 eax, 46			; 0000002eH
  001b7	74 1a		 je	 SHORT $LN24@GetToken
  001b9	0f b6 45 fb	 movzx	 eax, BYTE PTR _ch$[ebp]
  001bd	50		 push	 eax
  001be	e8 00 00 00 00	 call	 _isdigit
  001c3	83 c4 04	 add	 esp, 4
  001c6	85 c0		 test	 eax, eax
  001c8	75 09		 jne	 SHORT $LN24@GetToken
  001ca	0f b6 45 fb	 movzx	 eax, BYTE PTR _ch$[ebp]
  001ce	83 f8 2d	 cmp	 eax, 45			; 0000002dH
  001d1	75 13		 jne	 SHORT $LN10@GetToken
$LN24@GetToken:

; 61   : 			*p++ = ch;

  001d3	8b 45 f4	 mov	 eax, DWORD PTR _p$[ebp]
  001d6	8a 4d fb	 mov	 cl, BYTE PTR _ch$[ebp]
  001d9	88 08		 mov	 BYTE PTR [eax], cl
  001db	8b 55 f4	 mov	 edx, DWORD PTR _p$[ebp]
  001de	83 c2 01	 add	 edx, 1
  001e1	89 55 f4	 mov	 DWORD PTR _p$[ebp], edx
  001e4	eb ad		 jmp	 SHORT $LN9@GetToken
$LN10@GetToken:

; 62   : 		*p = 0;

  001e6	8b 45 f4	 mov	 eax, DWORD PTR _p$[ebp]
  001e9	c6 00 00	 mov	 BYTE PTR [eax], 0

; 63   : 		TokenNumber = (float)atof(TempString);

  001ec	8d 45 90	 lea	 eax, DWORD PTR _TempString$[ebp]
  001ef	50		 push	 eax
  001f0	e8 00 00 00 00	 call	 _atof
  001f5	83 c4 04	 add	 esp, 4
  001f8	d9 1d 00 00 00
	00		 fstp	 DWORD PTR ?TokenNumber@@3MA

; 64   : 		//			sscanf(TempString," %f ",&TokenNumber);
; 65   : 		return CurrentToken = NUMBER;

  001fe	c7 05 00 00 00
	00 01 00 00 00	 mov	 DWORD PTR ?CurrentToken@@3W4SMDToken@@A, 1
  00208	a1 00 00 00 00	 mov	 eax, DWORD PTR ?CurrentToken@@3W4SMDToken@@A
  0020d	e9 2f 01 00 00	 jmp	 $LN7@GetToken
$LN25@GetToken:

; 66   : 	case '"':
; 67   : 		p = TokenString;

  00212	c7 45 f4 00 00
	00 00		 mov	 DWORD PTR _p$[ebp], OFFSET ?TokenString@@3PADA
$LN11@GetToken:

; 68   : 		while ( (  (ch = getc(SMDFile) ) !=(BYTE)EOF) && (ch!='"'))// || isalnum(ch)) )

  00219	a1 00 00 00 00	 mov	 eax, DWORD PTR ?SMDFile@@3PAU_iobuf@@A
  0021e	50		 push	 eax
  0021f	e8 00 00 00 00	 call	 _getc
  00224	83 c4 04	 add	 esp, 4
  00227	88 45 fb	 mov	 BYTE PTR _ch$[ebp], al
  0022a	0f b6 4d fb	 movzx	 ecx, BYTE PTR _ch$[ebp]
  0022e	81 f9 ff 00 00
	00		 cmp	 ecx, 255		; 000000ffH
  00234	74 1c		 je	 SHORT $LN12@GetToken
  00236	0f b6 45 fb	 movzx	 eax, BYTE PTR _ch$[ebp]
  0023a	83 f8 22	 cmp	 eax, 34			; 00000022H
  0023d	74 13		 je	 SHORT $LN12@GetToken

; 69   : 			*p++ = ch;

  0023f	8b 45 f4	 mov	 eax, DWORD PTR _p$[ebp]
  00242	8a 4d fb	 mov	 cl, BYTE PTR _ch$[ebp]
  00245	88 08		 mov	 BYTE PTR [eax], cl
  00247	8b 55 f4	 mov	 edx, DWORD PTR _p$[ebp]
  0024a	83 c2 01	 add	 edx, 1
  0024d	89 55 f4	 mov	 DWORD PTR _p$[ebp], edx
  00250	eb c7		 jmp	 SHORT $LN11@GetToken
$LN12@GetToken:

; 70   : 		if (ch!='"')

  00252	0f b6 45 fb	 movzx	 eax, BYTE PTR _ch$[ebp]
  00256	83 f8 22	 cmp	 eax, 34			; 00000022H
  00259	74 13		 je	 SHORT $LN26@GetToken

; 71   : 			ungetc(ch,SMDFile);

  0025b	a1 00 00 00 00	 mov	 eax, DWORD PTR ?SMDFile@@3PAU_iobuf@@A
  00260	50		 push	 eax
  00261	0f b6 4d fb	 movzx	 ecx, BYTE PTR _ch$[ebp]
  00265	51		 push	 ecx
  00266	e8 00 00 00 00	 call	 _ungetc
  0026b	83 c4 08	 add	 esp, 8
$LN26@GetToken:

; 72   : 		*p = 0;

  0026e	8b 45 f4	 mov	 eax, DWORD PTR _p$[ebp]
  00271	c6 00 00	 mov	 BYTE PTR [eax], 0

; 73   : 		return CurrentToken = NAME;

  00274	c7 05 00 00 00
	00 00 00 00 00	 mov	 DWORD PTR ?CurrentToken@@3W4SMDToken@@A, 0
  0027e	a1 00 00 00 00	 mov	 eax, DWORD PTR ?CurrentToken@@3W4SMDToken@@A
  00283	e9 b9 00 00 00	 jmp	 $LN7@GetToken
$LN27@GetToken:

; 74   : 	default:
; 75   : 		if (isalpha(ch))	

  00288	0f b6 45 fb	 movzx	 eax, BYTE PTR _ch$[ebp]
  0028c	50		 push	 eax
  0028d	e8 00 00 00 00	 call	 _isalpha
  00292	83 c4 04	 add	 esp, 4
  00295	85 c0		 test	 eax, eax
  00297	0f 84 95 00 00
	00		 je	 $LN28@GetToken

; 76   : 		{
; 77   : 			p = TokenString;

  0029d	c7 45 f4 00 00
	00 00		 mov	 DWORD PTR _p$[ebp], OFFSET ?TokenString@@3PADA

; 78   : 			*p++ = ch;

  002a4	8b 45 f4	 mov	 eax, DWORD PTR _p$[ebp]
  002a7	8a 4d fb	 mov	 cl, BYTE PTR _ch$[ebp]
  002aa	88 08		 mov	 BYTE PTR [eax], cl
  002ac	8b 55 f4	 mov	 edx, DWORD PTR _p$[ebp]
  002af	83 c2 01	 add	 edx, 1
  002b2	89 55 f4	 mov	 DWORD PTR _p$[ebp], edx
$LN13@GetToken:

; 79   : 			while ( (  (ch = getc(SMDFile) ) !=(BYTE)EOF) && (ch=='.' || ch=='_' || isalnum(ch)) )

  002b5	a1 00 00 00 00	 mov	 eax, DWORD PTR ?SMDFile@@3PAU_iobuf@@A
  002ba	50		 push	 eax
  002bb	e8 00 00 00 00	 call	 _getc
  002c0	83 c4 04	 add	 esp, 4
  002c3	88 45 fb	 mov	 BYTE PTR _ch$[ebp], al
  002c6	0f b6 4d fb	 movzx	 ecx, BYTE PTR _ch$[ebp]
  002ca	81 f9 ff 00 00
	00		 cmp	 ecx, 255		; 000000ffH
  002d0	74 36		 je	 SHORT $LN14@GetToken
  002d2	0f b6 45 fb	 movzx	 eax, BYTE PTR _ch$[ebp]
  002d6	83 f8 2e	 cmp	 eax, 46			; 0000002eH
  002d9	74 1a		 je	 SHORT $LN29@GetToken
  002db	0f b6 45 fb	 movzx	 eax, BYTE PTR _ch$[ebp]
  002df	83 f8 5f	 cmp	 eax, 95			; 0000005fH
  002e2	74 11		 je	 SHORT $LN29@GetToken
  002e4	0f b6 45 fb	 movzx	 eax, BYTE PTR _ch$[ebp]
  002e8	50		 push	 eax
  002e9	e8 00 00 00 00	 call	 _isalnum
  002ee	83 c4 04	 add	 esp, 4
  002f1	85 c0		 test	 eax, eax
  002f3	74 13		 je	 SHORT $LN14@GetToken
$LN29@GetToken:

; 80   : 				*p++ = ch;

  002f5	8b 45 f4	 mov	 eax, DWORD PTR _p$[ebp]
  002f8	8a 4d fb	 mov	 cl, BYTE PTR _ch$[ebp]
  002fb	88 08		 mov	 BYTE PTR [eax], cl
  002fd	8b 55 f4	 mov	 edx, DWORD PTR _p$[ebp]
  00300	83 c2 01	 add	 edx, 1
  00303	89 55 f4	 mov	 DWORD PTR _p$[ebp], edx
  00306	eb ad		 jmp	 SHORT $LN13@GetToken
$LN14@GetToken:

; 81   : 			ungetc(ch,SMDFile);

  00308	a1 00 00 00 00	 mov	 eax, DWORD PTR ?SMDFile@@3PAU_iobuf@@A
  0030d	50		 push	 eax
  0030e	0f b6 4d fb	 movzx	 ecx, BYTE PTR _ch$[ebp]
  00312	51		 push	 ecx
  00313	e8 00 00 00 00	 call	 _ungetc
  00318	83 c4 08	 add	 esp, 8

; 82   : 			*p = 0;

  0031b	8b 45 f4	 mov	 eax, DWORD PTR _p$[ebp]
  0031e	c6 00 00	 mov	 BYTE PTR [eax], 0

; 83   : 			return CurrentToken = NAME;

  00321	c7 05 00 00 00
	00 00 00 00 00	 mov	 DWORD PTR ?CurrentToken@@3W4SMDToken@@A, 0
  0032b	a1 00 00 00 00	 mov	 eax, DWORD PTR ?CurrentToken@@3W4SMDToken@@A
  00330	eb 0f		 jmp	 SHORT $LN7@GetToken
$LN28@GetToken:

; 84   : 		}
; 85   : 		return CurrentToken = SMD_ERROR;

  00332	c7 05 00 00 00
	00 3c 00 00 00	 mov	 DWORD PTR ?CurrentToken@@3W4SMDToken@@A, 60 ; 0000003cH
  0033c	a1 00 00 00 00	 mov	 eax, DWORD PTR ?CurrentToken@@3W4SMDToken@@A
$LN7@GetToken:

; 86   : 	}
; 87   : }

  00341	5f		 pop	 edi
  00342	5e		 pop	 esi
  00343	5b		 pop	 ebx
  00344	8b 4d fc	 mov	 ecx, DWORD PTR __$ArrayPad$[ebp]
  00347	33 cd		 xor	 ecx, ebp
  00349	e8 00 00 00 00	 call	 @__security_check_cookie@4
  0034e	8b e5		 mov	 esp, ebp
  00350	5d		 pop	 ebp
  00351	c3		 ret	 0
  00352	66 90		 npad	 2
$LN34@GetToken:
  00354	00 00 00 00	 DD	 $LN25@GetToken
  00358	00 00 00 00	 DD	 $LN18@GetToken
  0035c	00 00 00 00	 DD	 $LN20@GetToken
  00360	00 00 00 00	 DD	 $LN23@GetToken
  00364	00 00 00 00	 DD	 $LN19@GetToken
  00368	00 00 00 00	 DD	 $LN21@GetToken
  0036c	00 00 00 00	 DD	 $LN22@GetToken
  00370	00 00 00 00	 DD	 $LN27@GetToken
$LN33@GetToken:
  00374	00		 DB	 0
  00375	01		 DB	 1
  00376	07		 DB	 7
  00377	07		 DB	 7
  00378	07		 DB	 7
  00379	07		 DB	 7
  0037a	07		 DB	 7
  0037b	07		 DB	 7
  0037c	07		 DB	 7
  0037d	07		 DB	 7
  0037e	02		 DB	 2
  0037f	03		 DB	 3
  00380	03		 DB	 3
  00381	07		 DB	 7
  00382	03		 DB	 3
  00383	03		 DB	 3
  00384	03		 DB	 3
  00385	03		 DB	 3
  00386	03		 DB	 3
  00387	03		 DB	 3
  00388	03		 DB	 3
  00389	03		 DB	 3
  0038a	03		 DB	 3
  0038b	03		 DB	 3
  0038c	07		 DB	 7
  0038d	04		 DB	 4
  0038e	07		 DB	 7
  0038f	07		 DB	 7
  00390	07		 DB	 7
  00391	07		 DB	 7
  00392	07		 DB	 7
  00393	07		 DB	 7
  00394	07		 DB	 7
  00395	07		 DB	 7
  00396	07		 DB	 7
  00397	07		 DB	 7
  00398	07		 DB	 7
  00399	07		 DB	 7
  0039a	07		 DB	 7
  0039b	07		 DB	 7
  0039c	07		 DB	 7
  0039d	07		 DB	 7
  0039e	07		 DB	 7
  0039f	07		 DB	 7
  003a0	07		 DB	 7
  003a1	07		 DB	 7
  003a2	07		 DB	 7
  003a3	07		 DB	 7
  003a4	07		 DB	 7
  003a5	07		 DB	 7
  003a6	07		 DB	 7
  003a7	07		 DB	 7
  003a8	07		 DB	 7
  003a9	07		 DB	 7
  003aa	07		 DB	 7
  003ab	07		 DB	 7
  003ac	07		 DB	 7
  003ad	07		 DB	 7
  003ae	07		 DB	 7
  003af	07		 DB	 7
  003b0	07		 DB	 7
  003b1	07		 DB	 7
  003b2	07		 DB	 7
  003b3	07		 DB	 7
  003b4	07		 DB	 7
  003b5	07		 DB	 7
  003b6	07		 DB	 7
  003b7	07		 DB	 7
  003b8	07		 DB	 7
  003b9	07		 DB	 7
  003ba	07		 DB	 7
  003bb	07		 DB	 7
  003bc	07		 DB	 7
  003bd	07		 DB	 7
  003be	07		 DB	 7
  003bf	07		 DB	 7
  003c0	07		 DB	 7
  003c1	07		 DB	 7
  003c2	07		 DB	 7
  003c3	07		 DB	 7
  003c4	07		 DB	 7
  003c5	07		 DB	 7
  003c6	07		 DB	 7
  003c7	07		 DB	 7
  003c8	07		 DB	 7
  003c9	07		 DB	 7
  003ca	07		 DB	 7
  003cb	07		 DB	 7
  003cc	07		 DB	 7
  003cd	05		 DB	 5
  003ce	07		 DB	 7
  003cf	06		 DB	 6
?GetToken@@YA?AW4SMDToken@@XZ ENDP			; GetToken
_TEXT	ENDS
; Function compile flags: /Odtp /ZI
;	COMDAT ??_GCRingAttackEvent@@UAEPAXI@Z
_TEXT	SEGMENT
_this$ = -4						; size = 4
___flags$ = 8						; size = 4
??_GCRingAttackEvent@@UAEPAXI@Z PROC			; CRingAttackEvent::`scalar deleting destructor', COMDAT
; _this$ = ecx
  00000	55		 push	 ebp
  00001	8b ec		 mov	 ebp, esp
  00003	83 ec 44	 sub	 esp, 68			; 00000044H
  00006	53		 push	 ebx
  00007	56		 push	 esi
  00008	57		 push	 edi
  00009	89 4d fc	 mov	 DWORD PTR _this$[ebp], ecx
  0000c	8b 4d fc	 mov	 ecx, DWORD PTR _this$[ebp]
  0000f	e8 00 00 00 00	 call	 ??1CRingAttackEvent@@UAE@XZ ; CRingAttackEvent::~CRingAttackEvent
  00014	8b 45 08	 mov	 eax, DWORD PTR ___flags$[ebp]
  00017	83 e0 01	 and	 eax, 1
  0001a	74 11		 je	 SHORT $LN2@scalar
  0001c	68 38 01 00 00	 push	 312			; 00000138H
  00021	8b 45 fc	 mov	 eax, DWORD PTR _this$[ebp]
  00024	50		 push	 eax
  00025	e8 00 00 00 00	 call	 ??3@YAXPAXI@Z		; operator delete
  0002a	83 c4 08	 add	 esp, 8
$LN2@scalar:
  0002d	8b 45 fc	 mov	 eax, DWORD PTR _this$[ebp]
  00030	5f		 pop	 edi
  00031	5e		 pop	 esi
  00032	5b		 pop	 ebx
  00033	8b e5		 mov	 esp, ebp
  00035	5d		 pop	 ebp
  00036	c2 04 00	 ret	 4
??_GCRingAttackEvent@@UAEPAXI@Z ENDP			; CRingAttackEvent::`scalar deleting destructor'
_TEXT	ENDS
; Function compile flags: /Odtp /ZI
; File C:\Mu Online\Mu-GS-Webzen-MC-10093\GameServer\RingAttackEvent.cpp
;	COMDAT ?End_Menual@CRingAttackEvent@@QAEXXZ
_TEXT	SEGMENT
_this$ = -4						; size = 4
?End_Menual@CRingAttackEvent@@QAEXXZ PROC		; CRingAttackEvent::End_Menual, COMDAT
; _this$ = ecx

; 861  : {

  00000	55		 push	 ebp
  00001	8b ec		 mov	 ebp, esp
  00003	83 ec 44	 sub	 esp, 68			; 00000044H
  00006	53		 push	 ebx
  00007	56		 push	 esi
  00008	57		 push	 edi
  00009	89 4d fc	 mov	 DWORD PTR _this$[ebp], ecx

; 862  : 	SetMenualStart(FALSE);

  0000c	6a 00		 push	 0
  0000e	8b 4d fc	 mov	 ecx, DWORD PTR _this$[ebp]
  00011	e8 00 00 00 00	 call	 ?SetMenualStart@CRingAttackEvent@@QAEXH@Z ; CRingAttackEvent::SetMenualStart

; 863  : }

  00016	5f		 pop	 edi
  00017	5e		 pop	 esi
  00018	5b		 pop	 ebx
  00019	8b e5		 mov	 esp, ebp
  0001b	5d		 pop	 ebp
  0001c	c3		 ret	 0
?End_Menual@CRingAttackEvent@@QAEXXZ ENDP		; CRingAttackEvent::End_Menual
_TEXT	ENDS
; Function compile flags: /Odtp /ZI
; File C:\Mu Online\Mu-GS-Webzen-MC-10093\GameServer\RingAttackEvent.cpp
;	COMDAT ?Start_Menual@CRingAttackEvent@@QAEXXZ
_TEXT	SEGMENT
_pMsg$ = -272						; size = 6
_szTemp$ = -264						; size = 256
_this$ = -8						; size = 4
__$ArrayPad$ = -4					; size = 4
?Start_Menual@CRingAttackEvent@@QAEXXZ PROC		; CRingAttackEvent::Start_Menual, COMDAT
; _this$ = ecx

; 836  : {

  00000	55		 push	 ebp
  00001	8b ec		 mov	 ebp, esp
  00003	81 ec 50 01 00
	00		 sub	 esp, 336		; 00000150H
  00009	a1 00 00 00 00	 mov	 eax, DWORD PTR ___security_cookie
  0000e	33 c5		 xor	 eax, ebp
  00010	89 45 fc	 mov	 DWORD PTR __$ArrayPad$[ebp], eax
  00013	53		 push	 ebx
  00014	56		 push	 esi
  00015	57		 push	 edi
  00016	89 4d f8	 mov	 DWORD PTR _this$[ebp], ecx

; 837  : 	SetMenualStart(TRUE);

  00019	6a 01		 push	 1
  0001b	8b 4d f8	 mov	 ecx, DWORD PTR _this$[ebp]
  0001e	e8 00 00 00 00	 call	 ?SetMenualStart@CRingAttackEvent@@QAEXH@Z ; CRingAttackEvent::SetMenualStart

; 838  : 
; 839  : 	StopEvent ();

  00023	8b 4d f8	 mov	 ecx, DWORD PTR _this$[ebp]
  00026	e8 00 00 00 00	 call	 ?StopEvent@CRingAttackEvent@@QAEXXZ ; CRingAttackEvent::StopEvent

; 840  : 
; 841  : 	LogAddTD("[Event Management] [Start] RingAttack Event!");

  0002b	68 00 00 00 00	 push	 OFFSET ??_C@_0DB@PHNKOJF@?$KB?$NL?$KB?$NM?$FLEvent?5Management?$FN?5?$FLStart?$FN?5@
  00030	ff 15 00 00 00
	00		 call	 DWORD PTR ?LogAddTD@@3P6AXPADZZA ; LogAddTD
  00036	83 c4 04	 add	 esp, 4

; 842  : 	
; 843  : 	m_iTIME_MIN_PLAY	= 30;	//   

  00039	8b 45 f8	 mov	 eax, DWORD PTR _this$[ebp]
  0003c	c7 80 e4 00 00
	00 1e 00 00 00	 mov	 DWORD PTR [eax+228], 30	; 0000001eH

; 844  : 
; 845  : 	CHAR szTemp[256];
; 846  : 	wsprintf(szTemp, lMsg.Get(1208));		// "         ."

  00046	68 b8 04 00 00	 push	 1208			; 000004b8H
  0004b	b9 00 00 00 00	 mov	 ecx, OFFSET ?lMsg@@3VCMsg@@A ; lMsg
  00050	ff 15 00 00 00
	00		 call	 DWORD PTR __imp_?Get@CMsg@@QAEPADH@Z
  00056	50		 push	 eax
  00057	8d 85 f8 fe ff
	ff		 lea	 eax, DWORD PTR _szTemp$[ebp]
  0005d	50		 push	 eax
  0005e	ff 15 00 00 00
	00		 call	 DWORD PTR __imp__wsprintfA
  00064	83 c4 08	 add	 esp, 8

; 847  : 	AllSendServerMsg (szTemp);

  00067	8d 85 f8 fe ff
	ff		 lea	 eax, DWORD PTR _szTemp$[ebp]
  0006d	50		 push	 eax
  0006e	e8 00 00 00 00	 call	 ?AllSendServerMsg@@YAXPAD@Z ; AllSendServerMsg
  00073	83 c4 04	 add	 esp, 4

; 848  : 
; 849  : 	PMSG_ANS_CL_EFFECT pMsg;
; 850  : 	PHeadSetB((LPBYTE)&pMsg, 0x9E, sizeof(pMsg));

  00076	6a 06		 push	 6
  00078	68 9e 00 00 00	 push	 158			; 0000009eH
  0007d	8d 85 f0 fe ff
	ff		 lea	 eax, DWORD PTR _pMsg$[ebp]
  00083	50		 push	 eax
  00084	e8 00 00 00 00	 call	 ?PHeadSetB@@YAXPAEEH@Z	; PHeadSetB
  00089	83 c4 0c	 add	 esp, 12			; 0000000cH

; 851  : 	pMsg.wEffectNum = 1;		//     

  0008c	b8 01 00 00 00	 mov	 eax, 1
  00091	66 89 85 f4 fe
	ff ff		 mov	 WORD PTR _pMsg$[ebp+4], ax

; 852  : 	DataSendAll ((LPBYTE)&pMsg, pMsg.h.size);

  00098	0f b6 85 f1 fe
	ff ff		 movzx	 eax, BYTE PTR _pMsg$[ebp+1]
  0009f	50		 push	 eax
  000a0	8d 8d f0 fe ff
	ff		 lea	 ecx, DWORD PTR _pMsg$[ebp]
  000a6	51		 push	 ecx
  000a7	e8 00 00 00 00	 call	 ?DataSendAll@@YAXPAEH@Z	; DataSendAll
  000ac	83 c4 08	 add	 esp, 8

; 853  : 
; 854  : 	SetState (RINGEVENT_STATE_PLAYING);

  000af	6a 02		 push	 2
  000b1	8b 4d f8	 mov	 ecx, DWORD PTR _this$[ebp]
  000b4	e8 00 00 00 00	 call	 ?SetState@CRingAttackEvent@@QAEXH@Z ; CRingAttackEvent::SetState

; 855  : 
; 856  : 	
; 857  : }

  000b9	5f		 pop	 edi
  000ba	5e		 pop	 esi
  000bb	5b		 pop	 ebx
  000bc	8b 4d fc	 mov	 ecx, DWORD PTR __$ArrayPad$[ebp]
  000bf	33 cd		 xor	 ecx, ebp
  000c1	e8 00 00 00 00	 call	 @__security_check_cookie@4
  000c6	8b e5		 mov	 esp, ebp
  000c8	5d		 pop	 ebp
  000c9	c3		 ret	 0
?Start_Menual@CRingAttackEvent@@QAEXXZ ENDP		; CRingAttackEvent::Start_Menual
_TEXT	ENDS
; Function compile flags: /Odtp /ZI
; File C:\Mu Online\Mu-GS-Webzen-MC-10093\GameServer\RingAttackEvent.h
;	COMDAT ?SetMenualStart@CRingAttackEvent@@QAEXH@Z
_TEXT	SEGMENT
_this$ = -4						; size = 4
_bMenualStart$ = 8					; size = 4
?SetMenualStart@CRingAttackEvent@@QAEXH@Z PROC		; CRingAttackEvent::SetMenualStart, COMDAT
; _this$ = ecx

; 181  : 	void	SetMenualStart		(BOOL bMenualStart)	{	m_bMenualStart = bMenualStart;	}

  00000	55		 push	 ebp
  00001	8b ec		 mov	 ebp, esp
  00003	83 ec 44	 sub	 esp, 68			; 00000044H
  00006	53		 push	 ebx
  00007	56		 push	 esi
  00008	57		 push	 edi
  00009	89 4d fc	 mov	 DWORD PTR _this$[ebp], ecx
  0000c	8b 45 fc	 mov	 eax, DWORD PTR _this$[ebp]
  0000f	8b 4d 08	 mov	 ecx, DWORD PTR _bMenualStart$[ebp]
  00012	89 88 34 01 00
	00		 mov	 DWORD PTR [eax+308], ecx
  00018	5f		 pop	 edi
  00019	5e		 pop	 esi
  0001a	5b		 pop	 ebx
  0001b	8b e5		 mov	 esp, ebp
  0001d	5d		 pop	 ebp
  0001e	c2 04 00	 ret	 4
?SetMenualStart@CRingAttackEvent@@QAEXH@Z ENDP		; CRingAttackEvent::SetMenualStart
_TEXT	ENDS
; Function compile flags: /Odtp /ZI
; File C:\Mu Online\Mu-GS-Webzen-MC-10093\GameServer\RingAttackEvent.cpp
;	COMDAT ?Move@CRingAttackEvent@@QAEXXZ
_TEXT	SEGMENT
tv89 = -92						; size = 4
_iRADIUS$1 = -24					; size = 4
_iDIVIDE$2 = -20					; size = 4
_iCount$3 = -16						; size = 4
_i$4 = -12						; size = 4
_iCY$5 = -8						; size = 1
_iCX$6 = -7						; size = 1
_iRandY$7 = -6						; size = 1
_iRandX$8 = -5						; size = 1
_this$ = -4						; size = 4
?Move@CRingAttackEvent@@QAEXXZ PROC			; CRingAttackEvent::Move, COMDAT
; _this$ = ecx

; 763  : {

  00000	55		 push	 ebp
  00001	8b ec		 mov	 ebp, esp
  00003	83 ec 5c	 sub	 esp, 92			; 0000005cH
  00006	53		 push	 ebx
  00007	56		 push	 esi
  00008	57		 push	 edi
  00009	89 4d fc	 mov	 DWORD PTR _this$[ebp], ecx

; 764  : 	if (m_bDoEvent) {

  0000c	8b 45 fc	 mov	 eax, DWORD PTR _this$[ebp]
  0000f	83 b8 d0 00 00
	00 00		 cmp	 DWORD PTR [eax+208], 0
  00016	0f 84 4c 02 00
	00		 je	 $LN1@Move

; 765  : 		if (m_bMonsterToDest)		//        .

  0001c	8b 45 fc	 mov	 eax, DWORD PTR _this$[ebp]
  0001f	83 b8 d8 00 00
	00 00		 cmp	 DWORD PTR [eax+216], 0
  00026	74 05		 je	 SHORT $LN8@Move

; 766  : 			return;

  00028	e9 3b 02 00 00	 jmp	 $LN1@Move
$LN8@Move:

; 767  : 
; 768  : 		UCHAR iRandX, iRandY;
; 769  : 		UCHAR iCX, iCY;
; 770  : 
; 771  : 		for (INT i = 0 ; i < RINGEVENT_MAX_MAP ; i++ ) {

  0002d	c7 45 f4 00 00
	00 00		 mov	 DWORD PTR _i$4[ebp], 0
  00034	eb 09		 jmp	 SHORT $LN4@Move
$LN2@Move:
  00036	8b 45 f4	 mov	 eax, DWORD PTR _i$4[ebp]
  00039	83 c0 01	 add	 eax, 1
  0003c	89 45 f4	 mov	 DWORD PTR _i$4[ebp], eax
$LN4@Move:
  0003f	83 7d f4 03	 cmp	 DWORD PTR _i$4[ebp], 3
  00043	0f 8d 1f 02 00
	00		 jge	 $LN1@Move

; 772  : 			INT iCount = 1000;

  00049	c7 45 f0 e8 03
	00 00		 mov	 DWORD PTR _iCount$3[ebp], 1000 ; 000003e8H

; 773  : 
; 774  : 			if (!m_RingMonsterHerd[i].GetCurrentLocation(iCX, iCY))

  00050	8d 45 f8	 lea	 eax, DWORD PTR _iCY$5[ebp]
  00053	50		 push	 eax
  00054	8d 4d f9	 lea	 ecx, DWORD PTR _iCX$6[ebp]
  00057	51		 push	 ecx
  00058	6b 55 f4 44	 imul	 edx, DWORD PTR _i$4[ebp], 68
  0005c	6b 45 f4 44	 imul	 eax, DWORD PTR _i$4[ebp], 68
  00060	8b 4d fc	 mov	 ecx, DWORD PTR _this$[ebp]
  00063	8d 4c 01 04	 lea	 ecx, DWORD PTR [ecx+eax+4]
  00067	8b 45 fc	 mov	 eax, DWORD PTR _this$[ebp]
  0006a	8b 54 10 04	 mov	 edx, DWORD PTR [eax+edx+4]
  0006e	8b 42 20	 mov	 eax, DWORD PTR [edx+32]
  00071	ff d0		 call	 eax
  00073	85 c0		 test	 eax, eax
  00075	75 05		 jne	 SHORT $LN5@Move

; 775  : 				break;

  00077	e9 ec 01 00 00	 jmp	 $LN1@Move
$LN5@Move:

; 776  : 
; 777  : 			while (iCount--) {

  0007c	8b 45 f0	 mov	 eax, DWORD PTR _iCount$3[ebp]
  0007f	89 45 a4	 mov	 DWORD PTR tv89[ebp], eax
  00082	8b 4d f0	 mov	 ecx, DWORD PTR _iCount$3[ebp]
  00085	83 e9 01	 sub	 ecx, 1
  00088	89 4d f0	 mov	 DWORD PTR _iCount$3[ebp], ecx
  0008b	83 7d a4 00	 cmp	 DWORD PTR tv89[ebp], 0
  0008f	0f 84 03 01 00
	00		 je	 $LN6@Move

; 778  : 				iRandX = rand()%m_iMOVE_RAND_SIZE * (-1*(rand()%3 -1)) + iCX;

  00095	e8 00 00 00 00	 call	 _rand
  0009a	8b 4d fc	 mov	 ecx, DWORD PTR _this$[ebp]
  0009d	99		 cdq
  0009e	f7 b9 f8 00 00
	00		 idiv	 DWORD PTR [ecx+248]
  000a4	8b da		 mov	 ebx, edx
  000a6	e8 00 00 00 00	 call	 _rand
  000ab	99		 cdq
  000ac	b9 03 00 00 00	 mov	 ecx, 3
  000b1	f7 f9		 idiv	 ecx
  000b3	83 ea 01	 sub	 edx, 1
  000b6	6b d2 ff	 imul	 edx, edx, -1
  000b9	0f af da	 imul	 ebx, edx
  000bc	0f b6 45 f9	 movzx	 eax, BYTE PTR _iCX$6[ebp]
  000c0	03 d8		 add	 ebx, eax
  000c2	88 5d fb	 mov	 BYTE PTR _iRandX$8[ebp], bl

; 779  : 				iRandY = rand()%m_iMOVE_RAND_SIZE * (-1*(rand()%3 -1)) + iCY;

  000c5	e8 00 00 00 00	 call	 _rand
  000ca	8b 4d fc	 mov	 ecx, DWORD PTR _this$[ebp]
  000cd	99		 cdq
  000ce	f7 b9 f8 00 00
	00		 idiv	 DWORD PTR [ecx+248]
  000d4	8b da		 mov	 ebx, edx
  000d6	e8 00 00 00 00	 call	 _rand
  000db	99		 cdq
  000dc	b9 03 00 00 00	 mov	 ecx, 3
  000e1	f7 f9		 idiv	 ecx
  000e3	83 ea 01	 sub	 edx, 1
  000e6	6b d2 ff	 imul	 edx, edx, -1
  000e9	0f af da	 imul	 ebx, edx
  000ec	0f b6 45 f8	 movzx	 eax, BYTE PTR _iCY$5[ebp]
  000f0	03 d8		 add	 ebx, eax
  000f2	88 5d fa	 mov	 BYTE PTR _iRandY$7[ebp], bl

; 780  : 
; 781  : 				if (iRandX < g_RingMapPosition[i][0] || iRandX > g_RingMapPosition[i][2])

  000f5	0f b6 45 fb	 movzx	 eax, BYTE PTR _iRandX$8[ebp]
  000f9	8b 4d f4	 mov	 ecx, DWORD PTR _i$4[ebp]
  000fc	c1 e1 04	 shl	 ecx, 4
  000ff	ba 04 00 00 00	 mov	 edx, 4
  00104	6b d2 00	 imul	 edx, edx, 0
  00107	3b 84 11 00 00
	00 00		 cmp	 eax, DWORD PTR ?g_RingMapPosition@@3PAY03HA[ecx+edx]
  0010e	7c 1a		 jl	 SHORT $LN11@Move
  00110	0f b6 45 fb	 movzx	 eax, BYTE PTR _iRandX$8[ebp]
  00114	8b 4d f4	 mov	 ecx, DWORD PTR _i$4[ebp]
  00117	c1 e1 04	 shl	 ecx, 4
  0011a	ba 04 00 00 00	 mov	 edx, 4
  0011f	d1 e2		 shl	 edx, 1
  00121	3b 84 11 00 00
	00 00		 cmp	 eax, DWORD PTR ?g_RingMapPosition@@3PAY03HA[ecx+edx]
  00128	7e 05		 jle	 SHORT $LN10@Move
$LN11@Move:

; 782  : 					continue;

  0012a	e9 4d ff ff ff	 jmp	 $LN5@Move
$LN10@Move:

; 783  : 				if (iRandY < g_RingMapPosition[i][1] || iRandY > g_RingMapPosition[i][3])

  0012f	0f b6 45 fa	 movzx	 eax, BYTE PTR _iRandY$7[ebp]
  00133	8b 4d f4	 mov	 ecx, DWORD PTR _i$4[ebp]
  00136	c1 e1 04	 shl	 ecx, 4
  00139	ba 04 00 00 00	 mov	 edx, 4
  0013e	c1 e2 00	 shl	 edx, 0
  00141	3b 84 11 00 00
	00 00		 cmp	 eax, DWORD PTR ?g_RingMapPosition@@3PAY03HA[ecx+edx]
  00148	7c 1b		 jl	 SHORT $LN13@Move
  0014a	0f b6 45 fa	 movzx	 eax, BYTE PTR _iRandY$7[ebp]
  0014e	8b 4d f4	 mov	 ecx, DWORD PTR _i$4[ebp]
  00151	c1 e1 04	 shl	 ecx, 4
  00154	ba 04 00 00 00	 mov	 edx, 4
  00159	6b d2 03	 imul	 edx, edx, 3
  0015c	3b 84 11 00 00
	00 00		 cmp	 eax, DWORD PTR ?g_RingMapPosition@@3PAY03HA[ecx+edx]
  00163	7e 05		 jle	 SHORT $LN12@Move
$LN13@Move:

; 784  : 					continue;

  00165	e9 12 ff ff ff	 jmp	 $LN5@Move
$LN12@Move:

; 785  : 
; 786  : 				if (m_RingMonsterHerd[i].CheckLocation(iRandX, iRandY))

  0016a	8d 45 fa	 lea	 eax, DWORD PTR _iRandY$7[ebp]
  0016d	50		 push	 eax
  0016e	8d 4d fb	 lea	 ecx, DWORD PTR _iRandX$8[ebp]
  00171	51		 push	 ecx
  00172	6b 55 f4 44	 imul	 edx, DWORD PTR _i$4[ebp], 68
  00176	6b 45 f4 44	 imul	 eax, DWORD PTR _i$4[ebp], 68
  0017a	8b 4d fc	 mov	 ecx, DWORD PTR _this$[ebp]
  0017d	8d 4c 01 04	 lea	 ecx, DWORD PTR [ecx+eax+4]
  00181	8b 45 fc	 mov	 eax, DWORD PTR _this$[ebp]
  00184	8b 54 10 04	 mov	 edx, DWORD PTR [eax+edx+4]
  00188	8b 42 28	 mov	 eax, DWORD PTR [edx+40]
  0018b	ff d0		 call	 eax
  0018d	85 c0		 test	 eax, eax
  0018f	74 02		 je	 SHORT $LN14@Move

; 787  : 					break;

  00191	eb 05		 jmp	 SHORT $LN6@Move
$LN14@Move:

; 788  : 			}

  00193	e9 e4 fe ff ff	 jmp	 $LN5@Move
$LN6@Move:

; 789  : 
; 790  : 			if (m_RingMonsterHerd[i].MoveHerd(iRandX, iRandY)) {

  00198	0f b6 45 fa	 movzx	 eax, BYTE PTR _iRandY$7[ebp]
  0019c	50		 push	 eax
  0019d	0f b6 4d fb	 movzx	 ecx, BYTE PTR _iRandX$8[ebp]
  001a1	51		 push	 ecx
  001a2	6b 55 f4 44	 imul	 edx, DWORD PTR _i$4[ebp], 68
  001a6	6b 45 f4 44	 imul	 eax, DWORD PTR _i$4[ebp], 68
  001aa	8b 4d fc	 mov	 ecx, DWORD PTR _this$[ebp]
  001ad	8d 4c 01 04	 lea	 ecx, DWORD PTR [ecx+eax+4]
  001b1	8b 45 fc	 mov	 eax, DWORD PTR _this$[ebp]
  001b4	8b 54 10 04	 mov	 edx, DWORD PTR [eax+edx+4]
  001b8	8b 42 2c	 mov	 eax, DWORD PTR [edx+44]
  001bb	ff d0		 call	 eax
  001bd	85 c0		 test	 eax, eax
  001bf	74 23		 je	 SHORT $LN15@Move

; 791  : #if TESTSERVER == 1
; 792  : 	#ifndef FOR_ONAIR				
; 793  : 				PMSG_NOTICE	pNotice;
; 794  : 
; 795  : 			#ifdef MODIFY_NOTICE_20040325
; 796  : 				TNotice::MakeNoticeMsgEx( &pNotice, 1, " [%s] X:%d, Y:%d", g_TerrainManager.GetMapName(g_RingEventMapNum[i]), iRandX, iRandY);
; 797  : //				TNotice::SendNoticeToAllUser( &pNotice );
; 798  : 			#else
; 799  : 				pNotice.type = 1;
; 800  : 				wsprintf(pNotice.Notice, " [%s] X:%d, Y:%d", g_TerrainManager.GetMapName(g_RingEventMapNum[i]), iRandX, iRandY);
; 801  : 				PHeadSetB((LPBYTE)&pNotice, 0x0D, 4+(strlen(pNotice.Notice)+1));
; 802  : 
; 803  : 				for( int n=ALLOC_USEROBJECTSTART; n<MAX_OBJECT; n++)
; 804  : 				{
; 805  : 					if( gObj[n].Connected == 3 && (gObj[n].Type == OBJTYPE_CHARACTER) )
; 806  : 					{
; 807  : //						DataSend(n, (LPBYTE)&pNotice, pNotice.h.size);
; 808  : 					}
; 809  : 				}
; 810  : 			#endif
; 811  : 	#endif
; 812  : #endif
; 813  : 				LogAddTD("[Ring Event] - Monster Herd Move MapNumber:%d, X:%d, Y:%d",

  001c1	0f b6 45 fa	 movzx	 eax, BYTE PTR _iRandY$7[ebp]
  001c5	50		 push	 eax
  001c6	0f b6 4d fb	 movzx	 ecx, BYTE PTR _iRandX$8[ebp]
  001ca	51		 push	 ecx
  001cb	8b 55 f4	 mov	 edx, DWORD PTR _i$4[ebp]
  001ce	8b 04 95 00 00
	00 00		 mov	 eax, DWORD PTR ?g_RingEventMapNum@@3PAHA[edx*4]
  001d5	50		 push	 eax
  001d6	68 00 00 00 00	 push	 OFFSET ??_C@_0DK@PFGAPPAF@?$FLRing?5Event?$FN?5?9?5Monster?5Herd?5Mov@
  001db	ff 15 00 00 00
	00		 call	 DWORD PTR ?LogAddTD@@3P6AXPADZZA ; LogAddTD
  001e1	83 c4 10	 add	 esp, 16			; 00000010H
$LN15@Move:

; 814  : 					g_RingEventMapNum[i],
; 815  : 					iRandX,
; 816  : 					iRandY
; 817  : 					);
; 818  : 			}
; 819  : 
; 820  : 			INT iDIVIDE = m_iRADIUS_MAX - m_iRADIUS_MIN;

  001e4	8b 45 fc	 mov	 eax, DWORD PTR _this$[ebp]
  001e7	8b 4d fc	 mov	 ecx, DWORD PTR _this$[ebp]
  001ea	8b 90 00 01 00
	00		 mov	 edx, DWORD PTR [eax+256]
  001f0	2b 91 fc 00 00
	00		 sub	 edx, DWORD PTR [ecx+252]
  001f6	89 55 ec	 mov	 DWORD PTR _iDIVIDE$2[ebp], edx

; 821  : 			if (iDIVIDE <= 0)

  001f9	83 7d ec 00	 cmp	 DWORD PTR _iDIVIDE$2[ebp], 0
  001fd	7f 07		 jg	 SHORT $LN16@Move

; 822  : 				iDIVIDE = 1;

  001ff	c7 45 ec 01 00
	00 00		 mov	 DWORD PTR _iDIVIDE$2[ebp], 1
$LN16@Move:

; 823  : 			INT iRADIUS = iDIVIDE + m_iRADIUS_MIN;

  00206	8b 45 fc	 mov	 eax, DWORD PTR _this$[ebp]
  00209	8b 4d ec	 mov	 ecx, DWORD PTR _iDIVIDE$2[ebp]
  0020c	03 88 fc 00 00
	00		 add	 ecx, DWORD PTR [eax+252]
  00212	89 4d e8	 mov	 DWORD PTR _iRADIUS$1[ebp], ecx

; 824  : 			if (iRADIUS <= RINGEVENT_MIN_RADIUS)

  00215	83 7d e8 03	 cmp	 DWORD PTR _iRADIUS$1[ebp], 3
  00219	7f 07		 jg	 SHORT $LN17@Move

; 825  : 				iRADIUS = RINGEVENT_MIN_RADIUS;

  0021b	c7 45 e8 03 00
	00 00		 mov	 DWORD PTR _iRADIUS$1[ebp], 3
$LN17@Move:

; 826  : 
; 827  : 			m_RingMonsterHerd[i].SetRadius(rand()%(m_iRADIUS_MAX - m_iRADIUS_MIN) + m_iRADIUS_MIN);

  00222	e8 00 00 00 00	 call	 _rand
  00227	8b 4d fc	 mov	 ecx, DWORD PTR _this$[ebp]
  0022a	8b 55 fc	 mov	 edx, DWORD PTR _this$[ebp]
  0022d	8b 89 00 01 00
	00		 mov	 ecx, DWORD PTR [ecx+256]
  00233	2b 8a fc 00 00
	00		 sub	 ecx, DWORD PTR [edx+252]
  00239	99		 cdq
  0023a	f7 f9		 idiv	 ecx
  0023c	8b 45 fc	 mov	 eax, DWORD PTR _this$[ebp]
  0023f	03 90 fc 00 00
	00		 add	 edx, DWORD PTR [eax+252]
  00245	52		 push	 edx
  00246	6b 4d f4 44	 imul	 ecx, DWORD PTR _i$4[ebp], 68
  0024a	6b 55 f4 44	 imul	 edx, DWORD PTR _i$4[ebp], 68
  0024e	8b 45 fc	 mov	 eax, DWORD PTR _this$[ebp]
  00251	8d 54 10 04	 lea	 edx, DWORD PTR [eax+edx+4]
  00255	8b 45 fc	 mov	 eax, DWORD PTR _this$[ebp]
  00258	8b 44 08 04	 mov	 eax, DWORD PTR [eax+ecx+4]
  0025c	8b ca		 mov	 ecx, edx
  0025e	8b 50 0c	 mov	 edx, DWORD PTR [eax+12]
  00261	ff d2		 call	 edx

; 828  : 		}

  00263	e9 ce fd ff ff	 jmp	 $LN2@Move
$LN1@Move:

; 829  : 	}
; 830  : }

  00268	5f		 pop	 edi
  00269	5e		 pop	 esi
  0026a	5b		 pop	 ebx
  0026b	8b e5		 mov	 esp, ebp
  0026d	5d		 pop	 ebp
  0026e	c3		 ret	 0
?Move@CRingAttackEvent@@QAEXXZ ENDP			; CRingAttackEvent::Move
_TEXT	ENDS
; Function compile flags: /Odtp /ZI
; File C:\Mu Online\Mu-GS-Webzen-MC-10093\GameServer\RingAttackEvent.cpp
;	COMDAT ?SetState_Playing@CRingAttackEvent@@QAEXXZ
_TEXT	SEGMENT
_this$ = -4						; size = 4
?SetState_Playing@CRingAttackEvent@@QAEXXZ PROC		; CRingAttackEvent::SetState_Playing, COMDAT
; _this$ = ecx

; 755  : {

  00000	55		 push	 ebp
  00001	8b ec		 mov	 ebp, esp
  00003	83 ec 44	 sub	 esp, 68			; 00000044H
  00006	53		 push	 ebx
  00007	56		 push	 esi
  00008	57		 push	 edi
  00009	89 4d fc	 mov	 DWORD PTR _this$[ebp], ecx

; 756  : 	m_iTIME_MSEC_REMAIN = m_iTIME_MIN_PLAY * 60 * 1000;			// RINGEVENT_STATE_PLAYING -> RINGEVENT_STATE_PLAYEND   

  0000c	8b 45 fc	 mov	 eax, DWORD PTR _this$[ebp]
  0000f	6b 88 e4 00 00
	00 3c		 imul	 ecx, DWORD PTR [eax+228], 60
  00016	69 d1 e8 03 00
	00		 imul	 edx, ecx, 1000
  0001c	8b 45 fc	 mov	 eax, DWORD PTR _this$[ebp]
  0001f	89 90 dc 00 00
	00		 mov	 DWORD PTR [eax+220], edx

; 757  : 
; 758  : 	StartEvent();			//   

  00025	8b 4d fc	 mov	 ecx, DWORD PTR _this$[ebp]
  00028	e8 00 00 00 00	 call	 ?StartEvent@CRingAttackEvent@@QAEXXZ ; CRingAttackEvent::StartEvent

; 759  : }

  0002d	5f		 pop	 edi
  0002e	5e		 pop	 esi
  0002f	5b		 pop	 ebx
  00030	8b e5		 mov	 esp, ebp
  00032	5d		 pop	 ebp
  00033	c3		 ret	 0
?SetState_Playing@CRingAttackEvent@@QAEXXZ ENDP		; CRingAttackEvent::SetState_Playing
_TEXT	ENDS
; Function compile flags: /Odtp /ZI
; File C:\Mu Online\Mu-GS-Webzen-MC-10093\GameServer\RingAttackEvent.cpp
;	COMDAT ?SetState_Closed@CRingAttackEvent@@QAEXXZ
_TEXT	SEGMENT
_this$ = -4						; size = 4
?SetState_Closed@CRingAttackEvent@@QAEXXZ PROC		; CRingAttackEvent::SetState_Closed, COMDAT
; _this$ = ecx

; 744  : {

  00000	55		 push	 ebp
  00001	8b ec		 mov	 ebp, esp
  00003	83 ec 44	 sub	 esp, 68			; 00000044H
  00006	53		 push	 ebx
  00007	56		 push	 esi
  00008	57		 push	 edi
  00009	89 4d fc	 mov	 DWORD PTR _this$[ebp], ecx

; 745  : 	StopEvent();

  0000c	8b 4d fc	 mov	 ecx, DWORD PTR _this$[ebp]
  0000f	e8 00 00 00 00	 call	 ?StopEvent@CRingAttackEvent@@QAEXXZ ; CRingAttackEvent::StopEvent

; 746  : 
; 747  : 	if (m_bDoEvent)

  00014	8b 45 fc	 mov	 eax, DWORD PTR _this$[ebp]
  00017	83 b8 d0 00 00
	00 00		 cmp	 DWORD PTR [eax+208], 0
  0001e	74 0a		 je	 SHORT $LN2@SetState_C

; 748  : 		CheckSync();		//     .

  00020	8b 4d fc	 mov	 ecx, DWORD PTR _this$[ebp]
  00023	e8 00 00 00 00	 call	 ?CheckSync@CRingAttackEvent@@QAEXXZ ; CRingAttackEvent::CheckSync
  00028	eb 0a		 jmp	 SHORT $LN1@SetState_C
$LN2@SetState_C:

; 749  : 	else
; 750  : 		SetState (RINGEVENT_STATE_NONE);

  0002a	6a 00		 push	 0
  0002c	8b 4d fc	 mov	 ecx, DWORD PTR _this$[ebp]
  0002f	e8 00 00 00 00	 call	 ?SetState@CRingAttackEvent@@QAEXH@Z ; CRingAttackEvent::SetState
$LN1@SetState_C:

; 751  : }

  00034	5f		 pop	 edi
  00035	5e		 pop	 esi
  00036	5b		 pop	 ebx
  00037	8b e5		 mov	 esp, ebp
  00039	5d		 pop	 ebp
  0003a	c3		 ret	 0
?SetState_Closed@CRingAttackEvent@@QAEXXZ ENDP		; CRingAttackEvent::SetState_Closed
_TEXT	ENDS
; Function compile flags: /Odtp /ZI
; File C:\Mu Online\Mu-GS-Webzen-MC-10093\GameServer\RingAttackEvent.cpp
;	COMDAT ?SetState_None@CRingAttackEvent@@QAEXXZ
_TEXT	SEGMENT
_this$ = -4						; size = 4
?SetState_None@CRingAttackEvent@@QAEXXZ PROC		; CRingAttackEvent::SetState_None, COMDAT
; _this$ = ecx

; 738  : {

  00000	55		 push	 ebp
  00001	8b ec		 mov	 ebp, esp
  00003	83 ec 44	 sub	 esp, 68			; 00000044H
  00006	53		 push	 ebx
  00007	56		 push	 esi
  00008	57		 push	 edi
  00009	89 4d fc	 mov	 DWORD PTR _this$[ebp], ecx

; 739  : 	StopEvent();

  0000c	8b 4d fc	 mov	 ecx, DWORD PTR _this$[ebp]
  0000f	e8 00 00 00 00	 call	 ?StopEvent@CRingAttackEvent@@QAEXXZ ; CRingAttackEvent::StopEvent

; 740  : }

  00014	5f		 pop	 edi
  00015	5e		 pop	 esi
  00016	5b		 pop	 ebx
  00017	8b e5		 mov	 esp, ebp
  00019	5d		 pop	 ebp
  0001a	c3		 ret	 0
?SetState_None@CRingAttackEvent@@QAEXXZ ENDP		; CRingAttackEvent::SetState_None
_TEXT	ENDS
; Function compile flags: /Odtp /ZI
; File C:\Mu Online\Mu-GS-Webzen-MC-10093\GameServer\RingAttackEvent.cpp
;	COMDAT ?ProcState_Playing@CRingAttackEvent@@QAEXXZ
_TEXT	SEGMENT
_pMsg$1 = -296						; size = 6
_szTemp$2 = -288					; size = 256
_ucRAND$3 = -31						; size = 1
_iRandY$4 = -30						; size = 1
_iRandX$5 = -29						; size = 1
_i$6 = -28						; size = 4
_n$7 = -24						; size = 4
_bLive$8 = -20						; size = 4
_i$9 = -16						; size = 4
_iTICK_MSEC$ = -12					; size = 4
_this$ = -8						; size = 4
__$ArrayPad$ = -4					; size = 4
?ProcState_Playing@CRingAttackEvent@@QAEXXZ PROC	; CRingAttackEvent::ProcState_Playing, COMDAT
; _this$ = ecx

; 590  : {

  00000	55		 push	 ebp
  00001	8b ec		 mov	 ebp, esp
  00003	81 ec 68 01 00
	00		 sub	 esp, 360		; 00000168H
  00009	a1 00 00 00 00	 mov	 eax, DWORD PTR ___security_cookie
  0000e	33 c5		 xor	 eax, ebp
  00010	89 45 fc	 mov	 DWORD PTR __$ArrayPad$[ebp], eax
  00013	53		 push	 ebx
  00014	56		 push	 esi
  00015	57		 push	 edi
  00016	89 4d f8	 mov	 DWORD PTR _this$[ebp], ecx

; 591  : //#if TESTSERVER == 1		// 30     
; 592  : 	static INT	iTIME_SEC_NOTIFY = -1;
; 593  : //#endif
; 594  : 
; 595  : 	INT iTICK_MSEC = (GetTickCount() - m_iTIME_TICK_COUNT);

  00019	ff 15 00 00 00
	00		 call	 DWORD PTR __imp__GetTickCount@0
  0001f	8b 4d f8	 mov	 ecx, DWORD PTR _this$[ebp]
  00022	2b 81 ec 00 00
	00		 sub	 eax, DWORD PTR [ecx+236]
  00028	89 45 f4	 mov	 DWORD PTR _iTICK_MSEC$[ebp], eax

; 596  : 	
; 597  : 	if (iTICK_MSEC >= 1000) {

  0002b	81 7d f4 e8 03
	00 00		 cmp	 DWORD PTR _iTICK_MSEC$[ebp], 1000 ; 000003e8H
  00032	7c 3d		 jl	 SHORT $LN11@ProcState_

; 598  : 		m_iTIME_MSEC_REMAIN -= iTICK_MSEC;

  00034	8b 45 f8	 mov	 eax, DWORD PTR _this$[ebp]
  00037	8b 88 dc 00 00
	00		 mov	 ecx, DWORD PTR [eax+220]
  0003d	2b 4d f4	 sub	 ecx, DWORD PTR _iTICK_MSEC$[ebp]
  00040	8b 55 f8	 mov	 edx, DWORD PTR _this$[ebp]
  00043	89 8a dc 00 00
	00		 mov	 DWORD PTR [edx+220], ecx

; 599  : 		m_iTIME_TICK_COUNT = GetTickCount();

  00049	ff 15 00 00 00
	00		 call	 DWORD PTR __imp__GetTickCount@0
  0004f	8b 4d f8	 mov	 ecx, DWORD PTR _this$[ebp]
  00052	89 81 ec 00 00
	00		 mov	 DWORD PTR [ecx+236], eax

; 600  : 
; 601  : #if TESTSERVER == 1
; 602  : 		//LogAddTD("[Ring Event] - PLAYING Check Time. [%d] sec remain", m_iTIME_MSEC_REMAIN / 1000);
; 603  : #endif
; 604  : 
; 605  : 		if (rand()%10 == 0) {	//    .

  00058	e8 00 00 00 00	 call	 _rand
  0005d	99		 cdq
  0005e	b9 0a 00 00 00	 mov	 ecx, 10			; 0000000aH
  00063	f7 f9		 idiv	 ecx
  00065	85 d2		 test	 edx, edx
  00067	75 08		 jne	 SHORT $LN11@ProcState_

; 606  : 			Move ();

  00069	8b 4d f8	 mov	 ecx, DWORD PTR _this$[ebp]
  0006c	e8 00 00 00 00	 call	 ?Move@CRingAttackEvent@@QAEXXZ ; CRingAttackEvent::Move
$LN11@ProcState_:

; 607  : 		}
; 608  : 	}
; 609  : 
; 610  : //#if TESTSERVER == 1		// 30     
; 611  : 	if ((m_iTIME_MSEC_REMAIN/1000) % 30 == 0 &&

  00071	8b 45 f8	 mov	 eax, DWORD PTR _this$[ebp]
  00074	8b 80 dc 00 00
	00		 mov	 eax, DWORD PTR [eax+220]
  0007a	99		 cdq
  0007b	b9 e8 03 00 00	 mov	 ecx, 1000		; 000003e8H
  00080	f7 f9		 idiv	 ecx
  00082	99		 cdq
  00083	b9 1e 00 00 00	 mov	 ecx, 30			; 0000001eH
  00088	f7 f9		 idiv	 ecx
  0008a	85 d2		 test	 edx, edx
  0008c	0f 85 42 01 00
	00		 jne	 $LN13@ProcState_
  00092	8b 45 f8	 mov	 eax, DWORD PTR _this$[ebp]
  00095	8b 80 dc 00 00
	00		 mov	 eax, DWORD PTR [eax+220]
  0009b	99		 cdq
  0009c	b9 e8 03 00 00	 mov	 ecx, 1000		; 000003e8H
  000a1	f7 f9		 idiv	 ecx
  000a3	99		 cdq
  000a4	b9 1e 00 00 00	 mov	 ecx, 30			; 0000001eH
  000a9	f7 f9		 idiv	 ecx
  000ab	3b 05 00 00 00
	00		 cmp	 eax, DWORD PTR ?iTIME_SEC_NOTIFY@?1??ProcState_Playing@CRingAttackEvent@@QAEXXZ@4HA
  000b1	0f 84 1d 01 00
	00		 je	 $LN13@ProcState_

; 612  : 		(m_iTIME_MSEC_REMAIN/1000) / 30 != iTIME_SEC_NOTIFY
; 613  : 		)
; 614  : 	{
; 615  : 		iTIME_SEC_NOTIFY = (m_iTIME_MSEC_REMAIN/1000) / 30;

  000b7	8b 45 f8	 mov	 eax, DWORD PTR _this$[ebp]
  000ba	8b 80 dc 00 00
	00		 mov	 eax, DWORD PTR [eax+220]
  000c0	99		 cdq
  000c1	b9 e8 03 00 00	 mov	 ecx, 1000		; 000003e8H
  000c6	f7 f9		 idiv	 ecx
  000c8	99		 cdq
  000c9	b9 1e 00 00 00	 mov	 ecx, 30			; 0000001eH
  000ce	f7 f9		 idiv	 ecx
  000d0	a3 00 00 00 00	 mov	 DWORD PTR ?iTIME_SEC_NOTIFY@?1??ProcState_Playing@CRingAttackEvent@@QAEXXZ@4HA, eax

; 616  : 		
; 617  : 		for (INT i = 0 ; i < RINGEVENT_MAX_MAP ; i++ ) {

  000d5	c7 45 f0 00 00
	00 00		 mov	 DWORD PTR _i$9[ebp], 0
  000dc	eb 09		 jmp	 SHORT $LN4@ProcState_
$LN2@ProcState_:
  000de	8b 45 f0	 mov	 eax, DWORD PTR _i$9[ebp]
  000e1	83 c0 01	 add	 eax, 1
  000e4	89 45 f0	 mov	 DWORD PTR _i$9[ebp], eax
$LN4@ProcState_:
  000e7	83 7d f0 03	 cmp	 DWORD PTR _i$9[ebp], 3
  000eb	0f 8d e3 00 00
	00		 jge	 $LN13@ProcState_

; 618  : 			BOOL bLive = FALSE;

  000f1	c7 45 ec 00 00
	00 00		 mov	 DWORD PTR _bLive$8[ebp], 0

; 619  : 			
; 620  : 			for( int n=0; n<ALLOC_USEROBJECTSTART; n++) {

  000f8	c7 45 e8 00 00
	00 00		 mov	 DWORD PTR _n$7[ebp], 0
  000ff	eb 09		 jmp	 SHORT $LN7@ProcState_
$LN5@ProcState_:
  00101	8b 45 e8	 mov	 eax, DWORD PTR _n$7[ebp]
  00104	83 c0 01	 add	 eax, 1
  00107	89 45 e8	 mov	 DWORD PTR _n$7[ebp], eax
$LN7@ProcState_:
  0010a	81 7d e8 00 19
	00 00		 cmp	 DWORD PTR _n$7[ebp], 6400 ; 00001900H
  00111	7d 77		 jge	 SHORT $LN6@ProcState_

; 621  : 				if (gObj[n].Class == 135) {				//   

  00113	69 45 e8 a0 1b
	00 00		 imul	 eax, DWORD PTR _n$7[ebp], 7072
  0011a	8b 0d 00 00 00
	00		 mov	 ecx, DWORD PTR ?gObj@@3PAVOBJECTSTRUCT@@A ; gObj
  00120	0f b7 94 01 9c
	00 00 00	 movzx	 edx, WORD PTR [ecx+eax+156]
  00128	81 fa 87 00 00
	00		 cmp	 edx, 135		; 00000087H
  0012e	75 55		 jne	 SHORT $LN14@ProcState_

; 622  : 					if (gObj[n].m_bIsInMonsterHerd) {	//  

  00130	69 45 e8 a0 1b
	00 00		 imul	 eax, DWORD PTR _n$7[ebp], 7072
  00137	8b 0d 00 00 00
	00		 mov	 ecx, DWORD PTR ?gObj@@3PAVOBJECTSTRUCT@@A ; gObj
  0013d	83 bc 01 ec 0e
	00 00 00	 cmp	 DWORD PTR [ecx+eax+3820], 0
  00145	74 3e		 je	 SHORT $LN14@ProcState_

; 623  : 						if (gObj[n].Live &&				//    

  00147	69 45 e8 a0 1b
	00 00		 imul	 eax, DWORD PTR _n$7[ebp], 7072
  0014e	8b 0d 00 00 00
	00		 mov	 ecx, DWORD PTR ?gObj@@3PAVOBJECTSTRUCT@@A ; gObj
  00154	0f b6 54 01 66	 movzx	 edx, BYTE PTR [ecx+eax+102]
  00159	85 d2		 test	 edx, edx
  0015b	74 28		 je	 SHORT $LN14@ProcState_
  0015d	69 45 e8 a0 1b
	00 00		 imul	 eax, DWORD PTR _n$7[ebp], 7072
  00164	8b 0d 00 00 00
	00		 mov	 ecx, DWORD PTR ?gObj@@3PAVOBJECTSTRUCT@@A ; gObj
  0016a	0f b6 94 01 09
	01 00 00	 movzx	 edx, BYTE PTR [ecx+eax+265]
  00172	8b 45 f0	 mov	 eax, DWORD PTR _i$9[ebp]
  00175	3b 14 85 00 00
	00 00		 cmp	 edx, DWORD PTR ?g_RingEventMapNum@@3PAHA[eax*4]
  0017c	75 07		 jne	 SHORT $LN14@ProcState_

; 624  : 							gObj[n].MapNumber == g_RingEventMapNum[i]
; 625  : 							) 
; 626  : 						{				
; 627  : 							bLive = TRUE;

  0017e	c7 45 ec 01 00
	00 00		 mov	 DWORD PTR _bLive$8[ebp], 1
$LN14@ProcState_:

; 628  : 						}
; 629  : 					}
; 630  : 				}
; 631  : 			}

  00185	e9 77 ff ff ff	 jmp	 $LN5@ProcState_
$LN6@ProcState_:

; 632  : 
; 633  : 			LogAddTD("[Ring Event] - per 30'S Inform MapNumber:%d, X:%d, Y:%d, Boss Live:%d",

  0018a	8b 45 ec	 mov	 eax, DWORD PTR _bLive$8[ebp]
  0018d	50		 push	 eax
  0018e	6b 4d f0 44	 imul	 ecx, DWORD PTR _i$9[ebp], 68
  00192	8b 55 f8	 mov	 edx, DWORD PTR _this$[ebp]
  00195	8d 4c 0a 04	 lea	 ecx, DWORD PTR [edx+ecx+4]
  00199	e8 00 00 00 00	 call	 ?GetY@CRingMonsterHerd@@QAEEXZ ; CRingMonsterHerd::GetY
  0019e	0f b6 c0	 movzx	 eax, al
  001a1	50		 push	 eax
  001a2	6b 4d f0 44	 imul	 ecx, DWORD PTR _i$9[ebp], 68
  001a6	8b 55 f8	 mov	 edx, DWORD PTR _this$[ebp]
  001a9	8d 4c 0a 04	 lea	 ecx, DWORD PTR [edx+ecx+4]
  001ad	e8 00 00 00 00	 call	 ?GetX@CRingMonsterHerd@@QAEEXZ ; CRingMonsterHerd::GetX
  001b2	0f b6 c0	 movzx	 eax, al
  001b5	50		 push	 eax
  001b6	8b 4d f0	 mov	 ecx, DWORD PTR _i$9[ebp]
  001b9	8b 14 8d 00 00
	00 00		 mov	 edx, DWORD PTR ?g_RingEventMapNum@@3PAHA[ecx*4]
  001c0	52		 push	 edx
  001c1	68 00 00 00 00	 push	 OFFSET ??_C@_0EG@MJJALBNB@?$FLRing?5Event?$FN?5?9?5per?530?8S?5Inform?5@
  001c6	ff 15 00 00 00
	00		 call	 DWORD PTR ?LogAddTD@@3P6AXPADZZA ; LogAddTD
  001cc	83 c4 14	 add	 esp, 20			; 00000014H

; 634  : 				g_RingEventMapNum[i],
; 635  : 				m_RingMonsterHerd[i].GetX(),
; 636  : 				m_RingMonsterHerd[i].GetY(),
; 637  : 				bLive
; 638  : 				);
; 639  : 
; 640  : #if TESTSERVER == 1			// 30     
; 641  : 	#ifndef FOR_ONAIR
; 642  : 			PMSG_NOTICE	pNotice;
; 643  : 
; 644  : 			#ifdef MODIFY_NOTICE_20040325
; 645  : 				TNotice::MakeNoticeMsgEx( &pNotice, 1, "[%s] X:%d, Y:%d", g_TerrainManager.GetMapName(g_RingEventMapNum[i]), m_RingMonsterHerd[i].GetX(), m_RingMonsterHerd[i].GetY());
; 646  : //				TNotice::SendNoticeToAllUser( &pNotice );
; 647  : 			#else
; 648  : 				pNotice.type = 1;
; 649  : 				wsprintf(pNotice.Notice, "[%s] X:%d, Y:%d", g_TerrainManager.GetMapName(g_RingEventMapNum[i]), m_RingMonsterHerd[i].GetX(), m_RingMonsterHerd[i].GetY());
; 650  : 				PHeadSetB((LPBYTE)&pNotice, 0x0D, 4+(strlen(pNotice.Notice)+1));
; 651  : 
; 652  : 				for( int m=ALLOC_USEROBJECTSTART; m<MAX_OBJECT; m++)
; 653  : 				{
; 654  : 					if( gObj[m].Connected == 3 && (gObj[m].Type == OBJTYPE_CHARACTER) )
; 655  : 					{
; 656  : //						DataSend(n, (LPBYTE)&pNotice, pNotice.h.size);
; 657  : 					}
; 658  : 				}
; 659  : 			#endif
; 660  : 				
; 661  : 	#endif
; 662  : #endif
; 663  : 		}

  001cf	e9 0a ff ff ff	 jmp	 $LN2@ProcState_
$LN13@ProcState_:

; 664  : 	}
; 665  : //#endif
; 666  : 
; 667  : 
; 668  : 	if (m_iTIME_MSEC_REMAIN <= m_iTIME_MONSTER_TO_DEST * 60 * 1000 &&		// n    .

  001d4	8b 45 f8	 mov	 eax, DWORD PTR _this$[ebp]
  001d7	6b 88 e8 00 00
	00 3c		 imul	 ecx, DWORD PTR [eax+232], 60
  001de	69 d1 e8 03 00
	00		 imul	 edx, ecx, 1000
  001e4	8b 45 f8	 mov	 eax, DWORD PTR _this$[ebp]
  001e7	39 90 dc 00 00
	00		 cmp	 DWORD PTR [eax+220], edx
  001ed	0f 8f ca 00 00
	00		 jg	 $LN17@ProcState_
  001f3	8b 45 f8	 mov	 eax, DWORD PTR _this$[ebp]
  001f6	83 b8 d8 00 00
	00 00		 cmp	 DWORD PTR [eax+216], 0
  001fd	0f 85 ba 00 00
	00		 jne	 $LN17@ProcState_

; 669  : 		m_bMonsterToDest == FALSE
; 670  : 		)
; 671  : 	{
; 672  : 		for (INT i = 0 ; i < RINGEVENT_MAX_MAP ; i++ ) {

  00203	c7 45 e4 00 00
	00 00		 mov	 DWORD PTR _i$6[ebp], 0
  0020a	eb 09		 jmp	 SHORT $LN10@ProcState_
$LN8@ProcState_:
  0020c	8b 45 e4	 mov	 eax, DWORD PTR _i$6[ebp]
  0020f	83 c0 01	 add	 eax, 1
  00212	89 45 e4	 mov	 DWORD PTR _i$6[ebp], eax
$LN10@ProcState_:
  00215	83 7d e4 03	 cmp	 DWORD PTR _i$6[ebp], 3
  00219	0f 8d 91 00 00
	00		 jge	 $LN9@ProcState_

; 673  : 
; 674  : 			UCHAR iRandX, iRandY;
; 675  : 
; 676  : 			UCHAR ucRAND = rand()%4;

  0021f	e8 00 00 00 00	 call	 _rand
  00224	25 03 00 00 80	 and	 eax, -2147483645	; 80000003H
  00229	79 05		 jns	 SHORT $LN23@ProcState_
  0022b	48		 dec	 eax
  0022c	83 c8 fc	 or	 eax, -4			; fffffffcH
  0022f	40		 inc	 eax
$LN23@ProcState_:
  00230	88 45 e1	 mov	 BYTE PTR _ucRAND$3[ebp], al

; 677  : 
; 678  : 			iRandX = g_RingMapDestPosition[i][ucRAND*2];

  00233	8b 45 e4	 mov	 eax, DWORD PTR _i$6[ebp]
  00236	c1 e0 05	 shl	 eax, 5
  00239	0f b6 4d e1	 movzx	 ecx, BYTE PTR _ucRAND$3[ebp]
  0023d	d1 e1		 shl	 ecx, 1
  0023f	8a 94 88 00 00
	00 00		 mov	 dl, BYTE PTR ?g_RingMapDestPosition@@3PAY07HA[eax+ecx*4]
  00246	88 55 e3	 mov	 BYTE PTR _iRandX$5[ebp], dl

; 679  : 			iRandY = g_RingMapDestPosition[i][ucRAND*2+1];

  00249	8b 45 e4	 mov	 eax, DWORD PTR _i$6[ebp]
  0024c	c1 e0 05	 shl	 eax, 5
  0024f	0f b6 4d e1	 movzx	 ecx, BYTE PTR _ucRAND$3[ebp]
  00253	d1 e1		 shl	 ecx, 1
  00255	8a 94 88 04 00
	00 00		 mov	 dl, BYTE PTR ?g_RingMapDestPosition@@3PAY07HA[eax+ecx*4+4]
  0025c	88 55 e2	 mov	 BYTE PTR _iRandY$4[ebp], dl

; 680  : 			
; 681  : 			if (m_RingMonsterHerd[i].MoveHerd(iRandX, iRandY)) {

  0025f	0f b6 45 e2	 movzx	 eax, BYTE PTR _iRandY$4[ebp]
  00263	50		 push	 eax
  00264	0f b6 4d e3	 movzx	 ecx, BYTE PTR _iRandX$5[ebp]
  00268	51		 push	 ecx
  00269	6b 55 e4 44	 imul	 edx, DWORD PTR _i$6[ebp], 68
  0026d	6b 45 e4 44	 imul	 eax, DWORD PTR _i$6[ebp], 68
  00271	8b 4d f8	 mov	 ecx, DWORD PTR _this$[ebp]
  00274	8d 4c 01 04	 lea	 ecx, DWORD PTR [ecx+eax+4]
  00278	8b 45 f8	 mov	 eax, DWORD PTR _this$[ebp]
  0027b	8b 54 10 04	 mov	 edx, DWORD PTR [eax+edx+4]
  0027f	8b 42 2c	 mov	 eax, DWORD PTR [edx+44]
  00282	ff d0		 call	 eax
  00284	85 c0		 test	 eax, eax
  00286	74 23		 je	 SHORT $LN18@ProcState_

; 682  : #if TESTSERVER == 1
; 683  : 	#ifndef FOR_ONAIR				
; 684  : 				PMSG_NOTICE	pNotice;
; 685  : 
; 686  : 			#ifdef MODIFY_NOTICE_20040325
; 687  : 				TNotice::MakeNoticeMsgEx( &pNotice, 1, " [%s] X:%d, Y:%d", g_TerrainManager.GetMapName(g_RingEventMapNum[i]), iRandX, iRandY);
; 688  : //				TNotice::SendNoticeToAllUser( &pNotice );
; 689  : 			#else
; 690  : 				pNotice.type = 1;
; 691  : 				wsprintf(pNotice.Notice, " [%s] X:%d, Y:%d", g_TerrainManager.GetMapName(g_RingEventMapNum[i]), iRandX, iRandY);
; 692  : 				PHeadSetB((LPBYTE)&pNotice, 0x0D, 4+(strlen(pNotice.Notice)+1));
; 693  : 
; 694  : 				for( int n=ALLOC_USEROBJECTSTART; n<MAX_OBJECT; n++)
; 695  : 				{
; 696  : 					if( gObj[n].Connected == 3 && (gObj[n].Type == OBJTYPE_CHARACTER) )
; 697  : 					{
; 698  : //						DataSend(n, (LPBYTE)&pNotice, pNotice.h.size);
; 699  : 					}
; 700  : 				}
; 701  : 			#endif
; 702  : 	#endif
; 703  : #endif
; 704  : 
; 705  : 				LogAddTD("[Ring Event] - Monster Herd Move MapNumber:%d, X:%d, Y:%d",

  00288	0f b6 45 e2	 movzx	 eax, BYTE PTR _iRandY$4[ebp]
  0028c	50		 push	 eax
  0028d	0f b6 4d e3	 movzx	 ecx, BYTE PTR _iRandX$5[ebp]
  00291	51		 push	 ecx
  00292	8b 55 e4	 mov	 edx, DWORD PTR _i$6[ebp]
  00295	8b 04 95 00 00
	00 00		 mov	 eax, DWORD PTR ?g_RingEventMapNum@@3PAHA[edx*4]
  0029c	50		 push	 eax
  0029d	68 00 00 00 00	 push	 OFFSET ??_C@_0DK@PFGAPPAF@?$FLRing?5Event?$FN?5?9?5Monster?5Herd?5Mov@
  002a2	ff 15 00 00 00
	00		 call	 DWORD PTR ?LogAddTD@@3P6AXPADZZA ; LogAddTD
  002a8	83 c4 10	 add	 esp, 16			; 00000010H
$LN18@ProcState_:

; 706  : 					g_RingEventMapNum[i],
; 707  : 					iRandX,
; 708  : 					iRandY
; 709  : 					);
; 710  : 			}
; 711  : 		}

  002ab	e9 5c ff ff ff	 jmp	 $LN8@ProcState_
$LN9@ProcState_:

; 712  : 
; 713  : 		m_bMonsterToDest = TRUE;

  002b0	8b 45 f8	 mov	 eax, DWORD PTR _this$[ebp]
  002b3	c7 80 d8 00 00
	00 01 00 00 00	 mov	 DWORD PTR [eax+216], 1
$LN17@ProcState_:

; 714  : 	}
; 715  : 	
; 716  : 	if (m_iTIME_MSEC_REMAIN <= 0) {

  002bd	8b 45 f8	 mov	 eax, DWORD PTR _this$[ebp]
  002c0	83 b8 dc 00 00
	00 00		 cmp	 DWORD PTR [eax+220], 0
  002c7	0f 8f 99 00 00
	00		 jg	 $LN1@ProcState_

; 717  : 		//  . -> 
; 718  : 		CHAR szTemp[256];
; 719  : 		wsprintf(szTemp, lMsg.Get(1209));		// "   ."

  002cd	68 b9 04 00 00	 push	 1209			; 000004b9H
  002d2	b9 00 00 00 00	 mov	 ecx, OFFSET ?lMsg@@3VCMsg@@A ; lMsg
  002d7	ff 15 00 00 00
	00		 call	 DWORD PTR __imp_?Get@CMsg@@QAEPADH@Z
  002dd	50		 push	 eax
  002de	8d 85 e0 fe ff
	ff		 lea	 eax, DWORD PTR _szTemp$2[ebp]
  002e4	50		 push	 eax
  002e5	ff 15 00 00 00
	00		 call	 DWORD PTR __imp__wsprintfA
  002eb	83 c4 08	 add	 esp, 8

; 720  : 		AllSendServerMsg (szTemp);

  002ee	8d 85 e0 fe ff
	ff		 lea	 eax, DWORD PTR _szTemp$2[ebp]
  002f4	50		 push	 eax
  002f5	e8 00 00 00 00	 call	 ?AllSendServerMsg@@YAXPAD@Z ; AllSendServerMsg
  002fa	83 c4 04	 add	 esp, 4

; 721  : 	
; 722  : 		PMSG_ANS_CL_EFFECT pMsg;
; 723  : 		PHeadSetB((LPBYTE)&pMsg, 0x9E, sizeof(pMsg));

  002fd	6a 06		 push	 6
  002ff	68 9e 00 00 00	 push	 158			; 0000009eH
  00304	8d 85 d8 fe ff
	ff		 lea	 eax, DWORD PTR _pMsg$1[ebp]
  0030a	50		 push	 eax
  0030b	e8 00 00 00 00	 call	 ?PHeadSetB@@YAXPAEEH@Z	; PHeadSetB
  00310	83 c4 0c	 add	 esp, 12			; 0000000cH

; 724  : 		pMsg.wEffectNum = 2;		//     

  00313	b8 02 00 00 00	 mov	 eax, 2
  00318	66 89 85 dc fe
	ff ff		 mov	 WORD PTR _pMsg$1[ebp+4], ax

; 725  : 		DataSendAll ((LPBYTE)&pMsg, pMsg.h.size);

  0031f	0f b6 85 d9 fe
	ff ff		 movzx	 eax, BYTE PTR _pMsg$1[ebp+1]
  00326	50		 push	 eax
  00327	8d 8d d8 fe ff
	ff		 lea	 ecx, DWORD PTR _pMsg$1[ebp]
  0032d	51		 push	 ecx
  0032e	e8 00 00 00 00	 call	 ?DataSendAll@@YAXPAEH@Z	; DataSendAll
  00333	83 c4 08	 add	 esp, 8

; 726  : 
; 727  : 		if (m_bDoEvent)

  00336	8b 45 f8	 mov	 eax, DWORD PTR _this$[ebp]
  00339	83 b8 d0 00 00
	00 00		 cmp	 DWORD PTR [eax+208], 0
  00340	74 0c		 je	 SHORT $LN20@ProcState_

; 728  : 			SetState (RINGEVENT_STATE_CLOSED);

  00342	6a 01		 push	 1
  00344	8b 4d f8	 mov	 ecx, DWORD PTR _this$[ebp]
  00347	e8 00 00 00 00	 call	 ?SetState@CRingAttackEvent@@QAEXH@Z ; CRingAttackEvent::SetState
