; Listing generated by Microsoft (R) Optimizing Compiler Version 19.27.29111.0 

	TITLE	C:\Mu Online\Mu-GS-Webzen-MC-10093\GameServer\SendHackLog.cpp
	.686P
	.XMM
	include listing.inc
	.model	flat

INCLUDELIB LIBCMT
INCLUDELIB OLDNAMES

PUBLIC	?__empty_global_delete@@YAXPAX@Z		; __empty_global_delete
PUBLIC	?__empty_global_delete@@YAXPAXI@Z		; __empty_global_delete
PUBLIC	??0CSendHackLog@@QAE@XZ				; CSendHackLog::CSendHackLog
PUBLIC	??1CSendHackLog@@UAE@XZ				; CSendHackLog::~CSendHackLog
PUBLIC	?SendSet@CSendHackLog@@QAEXPADH@Z		; CSendHackLog::SendSet
PUBLIC	?Send@CSendHackLog@@QAEXHEPAD@Z			; CSendHackLog::Send
PUBLIC	?SendData@CSendHackLog@@QAEHPAEK@Z		; CSendHackLog::SendData
PUBLIC	??_GCSendHackLog@@UAEPAXI@Z			; CSendHackLog::`scalar deleting destructor'
PUBLIC	??_7CSendHackLog@@6B@				; CSendHackLog::`vftable'
PUBLIC	?gSendHackLog@@3VCSendHackLog@@A		; gSendHackLog
PUBLIC	??_R4CSendHackLog@@6B@				; CSendHackLog::`RTTI Complete Object Locator'
PUBLIC	??_R0?AVCSendHackLog@@@8			; CSendHackLog `RTTI Type Descriptor'
PUBLIC	??_R3CSendHackLog@@8				; CSendHackLog::`RTTI Class Hierarchy Descriptor'
PUBLIC	??_R2CSendHackLog@@8				; CSendHackLog::`RTTI Base Class Array'
PUBLIC	??_R1A@?0A@EA@CSendHackLog@@8			; CSendHackLog::`RTTI Base Class Descriptor at (0,-1,0,64)'
EXTRN	??3@YAXPAXI@Z:PROC				; operator delete
EXTRN	_atexit:PROC
EXTRN	_memcpy:PROC
EXTRN	?PHeadSetB@@YAXPAEEH@Z:PROC			; PHeadSetB
EXTRN	??0WzUdp@@QAE@XZ:PROC				; WzUdp::WzUdp
EXTRN	??1WzUdp@@UAE@XZ:PROC				; WzUdp::~WzUdp
EXTRN	?CreateSocket@WzUdp@@QAEHXZ:PROC		; WzUdp::CreateSocket
EXTRN	?SendData@WzUdp@@QAEHPAEK@Z:PROC		; WzUdp::SendData
EXTRN	?SendSet@WzUdp@@QAEHPADH@Z:PROC			; WzUdp::SendSet
EXTRN	??_ECSendHackLog@@UAEPAXI@Z:PROC		; CSendHackLog::`vector deleting destructor'
EXTRN	@__security_check_cookie@4:PROC
EXTRN	??_7type_info@@6B@:QWORD			; type_info::`vftable'
EXTRN	?gObj@@3PAVOBJECTSTRUCT@@A:DWORD		; gObj
EXTRN	?gGameServerCode@@3FA:WORD			; gGameServerCode
EXTRN	___security_cookie:DWORD
_BSS	SEGMENT
?gSendHackLog@@3VCSendHackLog@@A DB 0864H DUP (?)	; gSendHackLog
_BSS	ENDS
CRT$XCU	SEGMENT
?gSendHackLog$initializer$@@3P6AXXZA DD FLAT:??__EgSendHackLog@@YAXXZ ; gSendHackLog$initializer$
CRT$XCU	ENDS
;	COMDAT ??_R1A@?0A@EA@CSendHackLog@@8
rdata$r	SEGMENT
??_R1A@?0A@EA@CSendHackLog@@8 DD FLAT:??_R0?AVCSendHackLog@@@8 ; CSendHackLog::`RTTI Base Class Descriptor at (0,-1,0,64)'
	DD	00H
	DD	00H
	DD	0ffffffffH
	DD	00H
	DD	040H
	DD	FLAT:??_R3CSendHackLog@@8
rdata$r	ENDS
;	COMDAT ??_R2CSendHackLog@@8
rdata$r	SEGMENT
??_R2CSendHackLog@@8 DD FLAT:??_R1A@?0A@EA@CSendHackLog@@8 ; CSendHackLog::`RTTI Base Class Array'
rdata$r	ENDS
;	COMDAT ??_R3CSendHackLog@@8
rdata$r	SEGMENT
??_R3CSendHackLog@@8 DD 00H				; CSendHackLog::`RTTI Class Hierarchy Descriptor'
	DD	00H
	DD	01H
	DD	FLAT:??_R2CSendHackLog@@8
rdata$r	ENDS
;	COMDAT ??_R0?AVCSendHackLog@@@8
data$r	SEGMENT
??_R0?AVCSendHackLog@@@8 DD FLAT:??_7type_info@@6B@	; CSendHackLog `RTTI Type Descriptor'
	DD	00H
	DB	'.?AVCSendHackLog@@', 00H
data$r	ENDS
;	COMDAT ??_R4CSendHackLog@@6B@
rdata$r	SEGMENT
??_R4CSendHackLog@@6B@ DD 00H				; CSendHackLog::`RTTI Complete Object Locator'
	DD	00H
	DD	00H
	DD	FLAT:??_R0?AVCSendHackLog@@@8
	DD	FLAT:??_R3CSendHackLog@@8
rdata$r	ENDS
;	COMDAT ??_7CSendHackLog@@6B@
CONST	SEGMENT
??_7CSendHackLog@@6B@ DD FLAT:??_R4CSendHackLog@@6B@	; CSendHackLog::`vftable'
	DD	FLAT:??_ECSendHackLog@@UAEPAXI@Z
CONST	ENDS
; Function compile flags: /Odtp /ZI
;	COMDAT ??__FgSendHackLog@@YAXXZ
text$yd	SEGMENT
??__FgSendHackLog@@YAXXZ PROC				; `dynamic atexit destructor for 'gSendHackLog'', COMDAT
  00000	55		 push	 ebp
  00001	8b ec		 mov	 ebp, esp
  00003	83 ec 40	 sub	 esp, 64			; 00000040H
  00006	53		 push	 ebx
  00007	56		 push	 esi
  00008	57		 push	 edi
  00009	b9 00 00 00 00	 mov	 ecx, OFFSET ?gSendHackLog@@3VCSendHackLog@@A ; gSendHackLog
  0000e	e8 00 00 00 00	 call	 ??1CSendHackLog@@UAE@XZ	; CSendHackLog::~CSendHackLog
  00013	5f		 pop	 edi
  00014	5e		 pop	 esi
  00015	5b		 pop	 ebx
  00016	8b e5		 mov	 esp, ebp
  00018	5d		 pop	 ebp
  00019	c3		 ret	 0
??__FgSendHackLog@@YAXXZ ENDP				; `dynamic atexit destructor for 'gSendHackLog''
text$yd	ENDS
; Function compile flags: /Odtp /ZI
; File C:\Mu Online\Mu-GS-Webzen-MC-10093\GameServer\SendHackLog.cpp
;	COMDAT ??__EgSendHackLog@@YAXXZ
text$di	SEGMENT
??__EgSendHackLog@@YAXXZ PROC				; `dynamic initializer for 'gSendHackLog'', COMDAT

; 16   : CSendHackLog	gSendHackLog;

  00000	55		 push	 ebp
  00001	8b ec		 mov	 ebp, esp
  00003	83 ec 40	 sub	 esp, 64			; 00000040H
  00006	53		 push	 ebx
  00007	56		 push	 esi
  00008	57		 push	 edi
  00009	b9 00 00 00 00	 mov	 ecx, OFFSET ?gSendHackLog@@3VCSendHackLog@@A ; gSendHackLog
  0000e	e8 00 00 00 00	 call	 ??0CSendHackLog@@QAE@XZ	; CSendHackLog::CSendHackLog
  00013	68 00 00 00 00	 push	 OFFSET ??__FgSendHackLog@@YAXXZ ; `dynamic atexit destructor for 'gSendHackLog''
  00018	e8 00 00 00 00	 call	 _atexit
  0001d	83 c4 04	 add	 esp, 4
  00020	5f		 pop	 edi
  00021	5e		 pop	 esi
  00022	5b		 pop	 ebx
  00023	8b e5		 mov	 esp, ebp
  00025	5d		 pop	 ebp
  00026	c3		 ret	 0
??__EgSendHackLog@@YAXXZ ENDP				; `dynamic initializer for 'gSendHackLog''
text$di	ENDS
; Function compile flags: /Odtp /ZI
;	COMDAT ??_GCSendHackLog@@UAEPAXI@Z
_TEXT	SEGMENT
_this$ = -4						; size = 4
___flags$ = 8						; size = 4
??_GCSendHackLog@@UAEPAXI@Z PROC			; CSendHackLog::`scalar deleting destructor', COMDAT
; _this$ = ecx
  00000	55		 push	 ebp
  00001	8b ec		 mov	 ebp, esp
  00003	83 ec 44	 sub	 esp, 68			; 00000044H
  00006	53		 push	 ebx
  00007	56		 push	 esi
  00008	57		 push	 edi
  00009	89 4d fc	 mov	 DWORD PTR _this$[ebp], ecx
  0000c	8b 4d fc	 mov	 ecx, DWORD PTR _this$[ebp]
  0000f	e8 00 00 00 00	 call	 ??1CSendHackLog@@UAE@XZ	; CSendHackLog::~CSendHackLog
  00014	8b 45 08	 mov	 eax, DWORD PTR ___flags$[ebp]
  00017	83 e0 01	 and	 eax, 1
  0001a	74 11		 je	 SHORT $LN2@scalar
  0001c	68 64 08 00 00	 push	 2148			; 00000864H
  00021	8b 45 fc	 mov	 eax, DWORD PTR _this$[ebp]
  00024	50		 push	 eax
  00025	e8 00 00 00 00	 call	 ??3@YAXPAXI@Z		; operator delete
  0002a	83 c4 08	 add	 esp, 8
$LN2@scalar:
  0002d	8b 45 fc	 mov	 eax, DWORD PTR _this$[ebp]
  00030	5f		 pop	 edi
  00031	5e		 pop	 esi
  00032	5b		 pop	 ebx
  00033	8b e5		 mov	 esp, ebp
  00035	5d		 pop	 ebp
  00036	c2 04 00	 ret	 4
??_GCSendHackLog@@UAEPAXI@Z ENDP			; CSendHackLog::`scalar deleting destructor'
_TEXT	ENDS
; Function compile flags: /Odtp /ZI
; File C:\Mu Online\Mu-GS-Webzen-MC-10093\GameServer\SendHackLog.cpp
;	COMDAT ?SendData@CSendHackLog@@QAEHPAEK@Z
_TEXT	SEGMENT
_this$ = -4						; size = 4
_SendData$ = 8						; size = 4
_nSendDataLen$ = 12					; size = 4
?SendData@CSendHackLog@@QAEHPAEK@Z PROC			; CSendHackLog::SendData, COMDAT
; _this$ = ecx

; 55   : {

  00000	55		 push	 ebp
  00001	8b ec		 mov	 ebp, esp
  00003	83 ec 44	 sub	 esp, 68			; 00000044H
  00006	53		 push	 ebx
  00007	56		 push	 esi
  00008	57		 push	 edi
  00009	89 4d fc	 mov	 DWORD PTR _this$[ebp], ecx

; 56   : 	return m_UdpSocCHackLog.SendData(SendData, nSendDataLen);

  0000c	8b 45 0c	 mov	 eax, DWORD PTR _nSendDataLen$[ebp]
  0000f	50		 push	 eax
  00010	8b 4d 08	 mov	 ecx, DWORD PTR _SendData$[ebp]
  00013	51		 push	 ecx
  00014	8b 4d fc	 mov	 ecx, DWORD PTR _this$[ebp]
  00017	83 c1 04	 add	 ecx, 4
  0001a	e8 00 00 00 00	 call	 ?SendData@WzUdp@@QAEHPAEK@Z ; WzUdp::SendData

; 57   : }

  0001f	5f		 pop	 edi
  00020	5e		 pop	 esi
  00021	5b		 pop	 ebx
  00022	8b e5		 mov	 esp, ebp
  00024	5d		 pop	 ebp
  00025	c2 08 00	 ret	 8
?SendData@CSendHackLog@@QAEHPAEK@Z ENDP			; CSendHackLog::SendData
_TEXT	ENDS
; Function compile flags: /Odtp /ZI
; File C:\Mu Online\Mu-GS-Webzen-MC-10093\GameServer\SendHackLog.cpp
;	COMDAT ?Send@CSendHackLog@@QAEXHEPAD@Z
_TEXT	SEGMENT
_Msg$ = -88						; size = 80
_this$ = -8						; size = 4
__$ArrayPad$ = -4					; size = 4
_aIndex$ = 8						; size = 4
_type$ = 12						; size = 1
_Context$ = 16						; size = 4
?Send@CSendHackLog@@QAEXHEPAD@Z PROC			; CSendHackLog::Send, COMDAT
; _this$ = ecx

; 36   : {

  00000	55		 push	 ebp
  00001	8b ec		 mov	 ebp, esp
  00003	81 ec 98 00 00
	00		 sub	 esp, 152		; 00000098H
  00009	a1 00 00 00 00	 mov	 eax, DWORD PTR ___security_cookie
  0000e	33 c5		 xor	 eax, ebp
  00010	89 45 fc	 mov	 DWORD PTR __$ArrayPad$[ebp], eax
  00013	53		 push	 ebx
  00014	56		 push	 esi
  00015	57		 push	 edi
  00016	89 4d f8	 mov	 DWORD PTR _this$[ebp], ecx

; 37   : 	PMSG_HACK_LOG	Msg;
; 38   : 
; 39   : 	PHeadSetB((LPBYTE)&Msg, 0x01, sizeof( Msg ));	

  00019	6a 50		 push	 80			; 00000050H
  0001b	6a 01		 push	 1
  0001d	8d 45 a8	 lea	 eax, DWORD PTR _Msg$[ebp]
  00020	50		 push	 eax
  00021	e8 00 00 00 00	 call	 ?PHeadSetB@@YAXPAEEH@Z	; PHeadSetB
  00026	83 c4 0c	 add	 esp, 12			; 0000000cH

; 40   : 
; 41   : 	Msg.wServer = gGameServerCode;

  00029	66 a1 00 00 00
	00		 mov	 ax, WORD PTR ?gGameServerCode@@3FA ; gGameServerCode
  0002f	66 89 45 ac	 mov	 WORD PTR _Msg$[ebp+4], ax

; 42   : 
; 43   : 	memcpy(Msg.AccountID, gObj[aIndex].AccountID, MAX_IDSTRING);

  00033	6a 0a		 push	 10			; 0000000aH
  00035	69 45 08 a0 1b
	00 00		 imul	 eax, DWORD PTR _aIndex$[ebp], 7072
  0003c	8b 0d 00 00 00
	00		 mov	 ecx, DWORD PTR ?gObj@@3PAVOBJECTSTRUCT@@A ; gObj
  00042	8d 54 01 68	 lea	 edx, DWORD PTR [ecx+eax+104]
  00046	52		 push	 edx
  00047	8d 45 ae	 lea	 eax, DWORD PTR _Msg$[ebp+6]
  0004a	50		 push	 eax
  0004b	e8 00 00 00 00	 call	 _memcpy
  00050	83 c4 0c	 add	 esp, 12			; 0000000cH

; 44   : 	memcpy(Msg.Name, gObj[aIndex].Name, MAX_IDSTRING);

  00053	6a 0a		 push	 10			; 0000000aH
  00055	69 45 08 a0 1b
	00 00		 imul	 eax, DWORD PTR _aIndex$[ebp], 7072
  0005c	8b 0d 00 00 00
	00		 mov	 ecx, DWORD PTR ?gObj@@3PAVOBJECTSTRUCT@@A ; gObj
  00062	8d 54 01 73	 lea	 edx, DWORD PTR [ecx+eax+115]
  00066	52		 push	 edx
  00067	8d 45 b9	 lea	 eax, DWORD PTR _Msg$[ebp+17]
  0006a	50		 push	 eax
  0006b	e8 00 00 00 00	 call	 _memcpy
  00070	83 c4 0c	 add	 esp, 12			; 0000000cH

; 45   : 
; 46   : 	Msg.AccountID[MAX_IDSTRING] = NULL;

  00073	b8 01 00 00 00	 mov	 eax, 1
  00078	6b c8 0a	 imul	 ecx, eax, 10
  0007b	c6 44 0d ae 00	 mov	 BYTE PTR _Msg$[ebp+ecx+6], 0

; 47   : 	Msg.Name[MAX_IDSTRING] = NULL;

  00080	b8 01 00 00 00	 mov	 eax, 1
  00085	6b c8 0a	 imul	 ecx, eax, 10
  00088	c6 44 0d b9 00	 mov	 BYTE PTR _Msg$[ebp+ecx+17], 0

; 48   : 	Msg.btType = type;

  0008d	8a 45 0c	 mov	 al, BYTE PTR _type$[ebp]
  00090	88 45 c4	 mov	 BYTE PTR _Msg$[ebp+28], al

; 49   : 	memcpy(Msg.szPacketContext, Context, 50);

  00093	6a 32		 push	 50			; 00000032H
  00095	8b 45 10	 mov	 eax, DWORD PTR _Context$[ebp]
  00098	50		 push	 eax
  00099	8d 4d c5	 lea	 ecx, DWORD PTR _Msg$[ebp+29]
  0009c	51		 push	 ecx
  0009d	e8 00 00 00 00	 call	 _memcpy
  000a2	83 c4 0c	 add	 esp, 12			; 0000000cH

; 50   : 
; 51   : 	m_UdpSocCHackLog.SendData((LPBYTE)&Msg, sizeof( Msg ));

  000a5	6a 50		 push	 80			; 00000050H
  000a7	8d 45 a8	 lea	 eax, DWORD PTR _Msg$[ebp]
  000aa	50		 push	 eax
  000ab	8b 4d f8	 mov	 ecx, DWORD PTR _this$[ebp]
  000ae	83 c1 04	 add	 ecx, 4
  000b1	e8 00 00 00 00	 call	 ?SendData@WzUdp@@QAEHPAEK@Z ; WzUdp::SendData

; 52   : }

  000b6	5f		 pop	 edi
  000b7	5e		 pop	 esi
  000b8	5b		 pop	 ebx
  000b9	8b 4d fc	 mov	 ecx, DWORD PTR __$ArrayPad$[ebp]
  000bc	33 cd		 xor	 ecx, ebp
  000be	e8 00 00 00 00	 call	 @__security_check_cookie@4
  000c3	8b e5		 mov	 esp, ebp
  000c5	5d		 pop	 ebp
  000c6	c2 0c 00	 ret	 12			; 0000000cH
?Send@CSendHackLog@@QAEXHEPAD@Z ENDP			; CSendHackLog::Send
_TEXT	ENDS
; Function compile flags: /Odtp /ZI
; File C:\Mu Online\Mu-GS-Webzen-MC-10093\GameServer\SendHackLog.cpp
;	COMDAT ?SendSet@CSendHackLog@@QAEXPADH@Z
_TEXT	SEGMENT
_this$ = -4						; size = 4
_ip$ = 8						; size = 4
_port$ = 12						; size = 4
?SendSet@CSendHackLog@@QAEXPADH@Z PROC			; CSendHackLog::SendSet, COMDAT
; _this$ = ecx

; 30   : {

  00000	55		 push	 ebp
  00001	8b ec		 mov	 ebp, esp
  00003	83 ec 44	 sub	 esp, 68			; 00000044H
  00006	53		 push	 ebx
  00007	56		 push	 esi
  00008	57		 push	 edi
  00009	89 4d fc	 mov	 DWORD PTR _this$[ebp], ecx

; 31   : 	m_UdpSocCHackLog.CreateSocket();

  0000c	8b 4d fc	 mov	 ecx, DWORD PTR _this$[ebp]
  0000f	83 c1 04	 add	 ecx, 4
  00012	e8 00 00 00 00	 call	 ?CreateSocket@WzUdp@@QAEHXZ ; WzUdp::CreateSocket

; 32   : 	m_UdpSocCHackLog.SendSet(ip, port);

  00017	8b 45 0c	 mov	 eax, DWORD PTR _port$[ebp]
  0001a	50		 push	 eax
  0001b	8b 4d 08	 mov	 ecx, DWORD PTR _ip$[ebp]
  0001e	51		 push	 ecx
  0001f	8b 4d fc	 mov	 ecx, DWORD PTR _this$[ebp]
  00022	83 c1 04	 add	 ecx, 4
  00025	e8 00 00 00 00	 call	 ?SendSet@WzUdp@@QAEHPADH@Z ; WzUdp::SendSet

; 33   : }

  0002a	5f		 pop	 edi
  0002b	5e		 pop	 esi
  0002c	5b		 pop	 ebx
  0002d	8b e5		 mov	 esp, ebp
  0002f	5d		 pop	 ebp
  00030	c2 08 00	 ret	 8
?SendSet@CSendHackLog@@QAEXPADH@Z ENDP			; CSendHackLog::SendSet
_TEXT	ENDS
; Function compile flags: /Odtp /ZI
; File C:\Mu Online\Mu-GS-Webzen-MC-10093\GameServer\SendHackLog.cpp
;	COMDAT ??1CSendHackLog@@UAE@XZ
_TEXT	SEGMENT
_this$ = -4						; size = 4
??1CSendHackLog@@UAE@XZ PROC				; CSendHackLog::~CSendHackLog, COMDAT
; _this$ = ecx

; 24   : {

  00000	55		 push	 ebp
  00001	8b ec		 mov	 ebp, esp
  00003	83 ec 44	 sub	 esp, 68			; 00000044H
  00006	53		 push	 ebx
  00007	56		 push	 esi
  00008	57		 push	 edi
  00009	89 4d fc	 mov	 DWORD PTR _this$[ebp], ecx
  0000c	8b 45 fc	 mov	 eax, DWORD PTR _this$[ebp]
  0000f	c7 00 00 00 00
	00		 mov	 DWORD PTR [eax], OFFSET ??_7CSendHackLog@@6B@

; 25   : 
; 26   : }

  00015	8b 4d fc	 mov	 ecx, DWORD PTR _this$[ebp]
  00018	83 c1 04	 add	 ecx, 4
  0001b	e8 00 00 00 00	 call	 ??1WzUdp@@UAE@XZ	; WzUdp::~WzUdp
  00020	5f		 pop	 edi
  00021	5e		 pop	 esi
  00022	5b		 pop	 ebx
  00023	8b e5		 mov	 esp, ebp
  00025	5d		 pop	 ebp
  00026	c3		 ret	 0
??1CSendHackLog@@UAE@XZ ENDP				; CSendHackLog::~CSendHackLog
_TEXT	ENDS
; Function compile flags: /Odtp /ZI
; File C:\Mu Online\Mu-GS-Webzen-MC-10093\GameServer\SendHackLog.cpp
;	COMDAT ??0CSendHackLog@@QAE@XZ
_TEXT	SEGMENT
_this$ = -4						; size = 4
??0CSendHackLog@@QAE@XZ PROC				; CSendHackLog::CSendHackLog, COMDAT
; _this$ = ecx

; 19   : {

  00000	55		 push	 ebp
  00001	8b ec		 mov	 ebp, esp
  00003	83 ec 44	 sub	 esp, 68			; 00000044H
  00006	53		 push	 ebx
  00007	56		 push	 esi
  00008	57		 push	 edi
  00009	89 4d fc	 mov	 DWORD PTR _this$[ebp], ecx
  0000c	8b 45 fc	 mov	 eax, DWORD PTR _this$[ebp]
  0000f	c7 00 00 00 00
	00		 mov	 DWORD PTR [eax], OFFSET ??_7CSendHackLog@@6B@
  00015	8b 4d fc	 mov	 ecx, DWORD PTR _this$[ebp]
  00018	83 c1 04	 add	 ecx, 4
  0001b	e8 00 00 00 00	 call	 ??0WzUdp@@QAE@XZ	; WzUdp::WzUdp

; 20   : 
; 21   : }

  00020	8b 45 fc	 mov	 eax, DWORD PTR _this$[ebp]
  00023	5f		 pop	 edi
  00024	5e		 pop	 esi
  00025	5b		 pop	 ebx
  00026	8b e5		 mov	 esp, ebp
  00028	5d		 pop	 ebp
  00029	c3		 ret	 0
??0CSendHackLog@@QAE@XZ ENDP				; CSendHackLog::CSendHackLog
_TEXT	ENDS
; Function compile flags: /Odtp /ZI
; File C:\Mu Online\Mu-GS-Webzen-MC-10093\GameServer\SendHackLog.cpp
;	COMDAT ?__empty_global_delete@@YAXPAXI@Z
_TEXT	SEGMENT
___formal$ = 8						; size = 4
___formal$ = 12						; size = 4
?__empty_global_delete@@YAXPAXI@Z PROC			; __empty_global_delete, COMDAT

  00000	55		 push	 ebp
  00001	8b ec		 mov	 ebp, esp
  00003	83 ec 40	 sub	 esp, 64			; 00000040H
  00006	53		 push	 ebx
  00007	56		 push	 esi
  00008	57		 push	 edi
  00009	5f		 pop	 edi
  0000a	5e		 pop	 esi
  0000b	5b		 pop	 ebx
  0000c	8b e5		 mov	 esp, ebp
  0000e	5d		 pop	 ebp
  0000f	c3		 ret	 0
?__empty_global_delete@@YAXPAXI@Z ENDP			; __empty_global_delete
_TEXT	ENDS
; Function compile flags: /Odtp /ZI
; File C:\Mu Online\Mu-GS-Webzen-MC-10093\GameServer\SendHackLog.cpp
;	COMDAT ?__empty_global_delete@@YAXPAX@Z
_TEXT	SEGMENT
___formal$ = 8						; size = 4
?__empty_global_delete@@YAXPAX@Z PROC			; __empty_global_delete, COMDAT

  00000	55		 push	 ebp
  00001	8b ec		 mov	 ebp, esp
  00003	83 ec 40	 sub	 esp, 64			; 00000040H
  00006	53		 push	 ebx
  00007	56		 push	 esi
  00008	57		 push	 edi
  00009	5f		 pop	 edi
  0000a	5e		 pop	 esi
  0000b	5b		 pop	 ebx
  0000c	8b e5		 mov	 esp, ebp
  0000e	5d		 pop	 ebp
  0000f	c3		 ret	 0
?__empty_global_delete@@YAXPAX@Z ENDP			; __empty_global_delete
_TEXT	ENDS
END
