; Listing generated by Microsoft (R) Optimizing Compiler Version 19.27.29111.0 

	TITLE	C:\Mu Online\Mu-GS-Webzen-MC-10093\common\SetItemOption.cpp
	.686P
	.XMM
	include listing.inc
	.model	flat

INCLUDELIB LIBCMT
INCLUDELIB OLDNAMES

PUBLIC	?__empty_global_delete@@YAXPAX@Z		; __empty_global_delete
PUBLIC	?__empty_global_delete@@YAXPAXI@Z		; __empty_global_delete
PUBLIC	??0CSetItemOption@@QAE@XZ			; CSetItemOption::CSetItemOption
PUBLIC	??1CSetItemOption@@UAE@XZ			; CSetItemOption::~CSetItemOption
PUBLIC	?LoadTypeInfo@CSetItemOption@@QAEHPAD@Z		; CSetItemOption::LoadTypeInfo
PUBLIC	?LoadOptionInfo@CSetItemOption@@QAEHPAD@Z	; CSetItemOption::LoadOptionInfo
PUBLIC	?IsSetItem@CSetItemOption@@QAEHH@Z		; CSetItemOption::IsSetItem
PUBLIC	?GetOptionTableIndex@CSetItemOption@@QAEHHH@Z	; CSetItemOption::GetOptionTableIndex
PUBLIC	?GetSetOptionName@CSetItemOption@@QAEPADH@Z	; CSetItemOption::GetSetOptionName
PUBLIC	?GetSetOptionName@CSetItemOption@@QAEPADHH@Z	; CSetItemOption::GetSetOptionName
PUBLIC	?GetSetOption@CSetItemOption@@QAEHHHAAH000HH@Z	; CSetItemOption::GetSetOption
PUBLIC	?GetMaxSetOptionCount@CSetItemOption@@QAEHH@Z	; CSetItemOption::GetMaxSetOptionCount
PUBLIC	?GetGetFullSetOption@CSetItemOption@@QAEHHAAH000000000HH@Z ; CSetItemOption::GetGetFullSetOption
PUBLIC	?IsRequireClass@CSetItemOption@@QAEHHHH@Z	; CSetItemOption::IsRequireClass
PUBLIC	?CheckMixContition@CSetItemOption@@QAEHHH@Z	; CSetItemOption::CheckMixContition
PUBLIC	?MakeSetOption@CSetItemOption@@QAEHHH@Z		; CSetItemOption::MakeSetOption
PUBLIC	?GenRandomItemNum@CSetItemOption@@QAEHXZ	; CSetItemOption::GenRandomItemNum
PUBLIC	?GenSetOption@CSetItemOption@@QAEHH@Z		; CSetItemOption::GenSetOption
PUBLIC	??_GCSetItemOption@@UAEPAXI@Z			; CSetItemOption::`scalar deleting destructor'
PUBLIC	??_C@_00CNPNBAHC@@				; `string'
PUBLIC	??_7CSetItemOption@@6B@				; CSetItemOption::`vftable'
PUBLIC	?gSetItemOption@@3VCSetItemOption@@A		; gSetItemOption
PUBLIC	??_C@_01KDCPPGHE@r@				; `string'
PUBLIC	??_C@_03JBJLGPFL@end@				; `string'
PUBLIC	??_C@_0CE@FIOMFOEB@IsSetItem?5Check?5error?3?5?$CIitemnum@ ; `string'
PUBLIC	??_C@_0CO@JHBADDNF@GetOptionTableIndex?5Check?5error@ ; `string'
PUBLIC	??_C@_0DI@POCMEGLP@GetOptionTableIndex?5setoption?5C@ ; `string'
PUBLIC	??_C@_0CL@LOANDNBH@GetSetOptionName?5Check?5error?3?5?$CI@ ; `string'
PUBLIC	??_C@_0CH@DEMKMCF@GetSetOption?5Check?5error?3?5?$CIitem@ ; `string'
PUBLIC	??_C@_0CM@OCFJJDJ@GetMaxOptionCount?5Check?5error?3?5@ ; `string'
PUBLIC	??_C@_0CI@NPMNOGMI@MakeSetOption?5Check?5error?3?5?$CIite@ ; `string'
PUBLIC	??_C@_0CF@ECDCLMC@GenSetType?5Check?5error?3?5?$CIitemnu@ ; `string'
PUBLIC	??_R4CSetItemOption@@6B@			; CSetItemOption::`RTTI Complete Object Locator'
PUBLIC	??_R0?AVCSetItemOption@@@8			; CSetItemOption `RTTI Type Descriptor'
PUBLIC	??_R3CSetItemOption@@8				; CSetItemOption::`RTTI Class Hierarchy Descriptor'
PUBLIC	??_R2CSetItemOption@@8				; CSetItemOption::`RTTI Base Class Array'
PUBLIC	??_R1A@?0A@EA@CSetItemOption@@8			; CSetItemOption::`RTTI Base Class Descriptor at (0,-1,0,64)'
EXTRN	??3@YAXPAXI@Z:PROC				; operator delete
EXTRN	_atexit:PROC
EXTRN	___report_rangecheckfailure:PROC
EXTRN	_isalpha:PROC
EXTRN	_isdigit:PROC
EXTRN	_isspace:PROC
EXTRN	_isalnum:PROC
EXTRN	_memset:PROC
EXTRN	_strcmp:PROC
EXTRN	_strcpy:PROC
EXTRN	_fclose:PROC
EXTRN	_fgetc:PROC
EXTRN	_fopen:PROC
EXTRN	_getc:PROC
EXTRN	_ungetc:PROC
EXTRN	_rand:PROC
EXTRN	_atof:PROC
EXTRN	??_ECSetItemOption@@UAEPAXI@Z:PROC		; CSetItemOption::`vector deleting destructor'
EXTRN	@__security_check_cookie@4:PROC
EXTRN	??_7type_info@@6B@:QWORD			; type_info::`vftable'
EXTRN	?LogAdd@@3P6AXPADZZA:DWORD			; LogAdd
EXTRN	?g_MaxItemIndexOfEachItemType@@3PAHA:BYTE	; g_MaxItemIndexOfEachItemType
EXTRN	___security_cookie:DWORD
EXTRN	__fltused:DWORD
_BSS	SEGMENT
?SMDFile@@3PAU_iobuf@@A DD 01H DUP (?)			; SMDFile
?TokenNumber@@3MA DD 01H DUP (?)			; TokenNumber
?TokenString@@3PADA DB 064H DUP (?)			; TokenString
?CurrentToken@@3W4SMDToken@@A DD 01H DUP (?)		; CurrentToken
?gSetItemOption@@3VCSetItemOption@@A DB 0ac84H DUP (?)	; gSetItemOption
_BSS	ENDS
CRT$XCU	SEGMENT
?gSetItemOption$initializer$@@3P6AXXZA DD FLAT:??__EgSetItemOption@@YAXXZ ; gSetItemOption$initializer$
CRT$XCU	ENDS
;	COMDAT ??_R1A@?0A@EA@CSetItemOption@@8
rdata$r	SEGMENT
??_R1A@?0A@EA@CSetItemOption@@8 DD FLAT:??_R0?AVCSetItemOption@@@8 ; CSetItemOption::`RTTI Base Class Descriptor at (0,-1,0,64)'
	DD	00H
	DD	00H
	DD	0ffffffffH
	DD	00H
	DD	040H
	DD	FLAT:??_R3CSetItemOption@@8
rdata$r	ENDS
;	COMDAT ??_R2CSetItemOption@@8
rdata$r	SEGMENT
??_R2CSetItemOption@@8 DD FLAT:??_R1A@?0A@EA@CSetItemOption@@8 ; CSetItemOption::`RTTI Base Class Array'
rdata$r	ENDS
;	COMDAT ??_R3CSetItemOption@@8
rdata$r	SEGMENT
??_R3CSetItemOption@@8 DD 00H				; CSetItemOption::`RTTI Class Hierarchy Descriptor'
	DD	00H
	DD	01H
	DD	FLAT:??_R2CSetItemOption@@8
rdata$r	ENDS
;	COMDAT ??_R0?AVCSetItemOption@@@8
data$r	SEGMENT
??_R0?AVCSetItemOption@@@8 DD FLAT:??_7type_info@@6B@	; CSetItemOption `RTTI Type Descriptor'
	DD	00H
	DB	'.?AVCSetItemOption@@', 00H
data$r	ENDS
;	COMDAT ??_R4CSetItemOption@@6B@
rdata$r	SEGMENT
??_R4CSetItemOption@@6B@ DD 00H				; CSetItemOption::`RTTI Complete Object Locator'
	DD	00H
	DD	00H
	DD	FLAT:??_R0?AVCSetItemOption@@@8
	DD	FLAT:??_R3CSetItemOption@@8
rdata$r	ENDS
;	COMDAT ??_C@_0CF@ECDCLMC@GenSetType?5Check?5error?3?5?$CIitemnu@
CONST	SEGMENT
??_C@_0CF@ECDCLMC@GenSetType?5Check?5error?3?5?$CIitemnu@ DB 'GenSetType '
	DB	'Check error: (itemnum:%d)', 00H		; `string'
CONST	ENDS
;	COMDAT ??_C@_0CI@NPMNOGMI@MakeSetOption?5Check?5error?3?5?$CIite@
CONST	SEGMENT
??_C@_0CI@NPMNOGMI@MakeSetOption?5Check?5error?3?5?$CIite@ DB 'MakeSetOpt'
	DB	'ion Check error: (itemnum:%d)', 00H		; `string'
CONST	ENDS
;	COMDAT ??_C@_0CM@OCFJJDJ@GetMaxOptionCount?5Check?5error?3?5@
CONST	SEGMENT
??_C@_0CM@OCFJJDJ@GetMaxOptionCount?5Check?5error?3?5@ DB 'GetMaxOptionCo'
	DB	'unt Check error: (itemnum:%d)', 00H		; `string'
CONST	ENDS
;	COMDAT ??_C@_0CH@DEMKMCF@GetSetOption?5Check?5error?3?5?$CIitem@
CONST	SEGMENT
??_C@_0CH@DEMKMCF@GetSetOption?5Check?5error?3?5?$CIitem@ DB 'GetSetOptio'
	DB	'n Check error: (itemnum:%d)', 00H		; `string'
CONST	ENDS
;	COMDAT ??_C@_0CL@LOANDNBH@GetSetOptionName?5Check?5error?3?5?$CI@
CONST	SEGMENT
??_C@_0CL@LOANDNBH@GetSetOptionName?5Check?5error?3?5?$CI@ DB 'GetSetOpti'
	DB	'onName Check error: (itemnum:%d)', 00H	; `string'
CONST	ENDS
;	COMDAT ??_C@_0DI@POCMEGLP@GetOptionTableIndex?5setoption?5C@
CONST	SEGMENT
??_C@_0DI@POCMEGLP@GetOptionTableIndex?5setoption?5C@ DB 'GetOptionTableI'
	DB	'ndex setoption Check error: (itemnum:%d)', 00H ; `string'
CONST	ENDS
;	COMDAT ??_C@_0CO@JHBADDNF@GetOptionTableIndex?5Check?5error@
CONST	SEGMENT
??_C@_0CO@JHBADDNF@GetOptionTableIndex?5Check?5error@ DB 'GetOptionTableI'
	DB	'ndex Check error: (itemnum:%d)', 00H	; `string'
CONST	ENDS
;	COMDAT ??_C@_0CE@FIOMFOEB@IsSetItem?5Check?5error?3?5?$CIitemnum@
CONST	SEGMENT
??_C@_0CE@FIOMFOEB@IsSetItem?5Check?5error?3?5?$CIitemnum@ DB 'IsSetItem '
	DB	'Check error: (itemnum:%d)', 00H		; `string'
CONST	ENDS
;	COMDAT ??_C@_03JBJLGPFL@end@
CONST	SEGMENT
??_C@_03JBJLGPFL@end@ DB 'end', 00H			; `string'
CONST	ENDS
;	COMDAT ??_C@_01KDCPPGHE@r@
CONST	SEGMENT
??_C@_01KDCPPGHE@r@ DB 'r', 00H				; `string'
CONST	ENDS
;	COMDAT ??_7CSetItemOption@@6B@
CONST	SEGMENT
??_7CSetItemOption@@6B@ DD FLAT:??_R4CSetItemOption@@6B@ ; CSetItemOption::`vftable'
	DD	FLAT:??_ECSetItemOption@@UAEPAXI@Z
CONST	ENDS
;	COMDAT ??_C@_00CNPNBAHC@@
CONST	SEGMENT
??_C@_00CNPNBAHC@@ DB 00H				; `string'
CONST	ENDS
; Function compile flags: /Odtp /ZI
;	COMDAT ??__FgSetItemOption@@YAXXZ
text$yd	SEGMENT
??__FgSetItemOption@@YAXXZ PROC				; `dynamic atexit destructor for 'gSetItemOption'', COMDAT
  00000	55		 push	 ebp
  00001	8b ec		 mov	 ebp, esp
  00003	83 ec 40	 sub	 esp, 64			; 00000040H
  00006	53		 push	 ebx
  00007	56		 push	 esi
  00008	57		 push	 edi
  00009	b9 00 00 00 00	 mov	 ecx, OFFSET ?gSetItemOption@@3VCSetItemOption@@A ; gSetItemOption
  0000e	e8 00 00 00 00	 call	 ??1CSetItemOption@@UAE@XZ ; CSetItemOption::~CSetItemOption
  00013	5f		 pop	 edi
  00014	5e		 pop	 esi
  00015	5b		 pop	 ebx
  00016	8b e5		 mov	 esp, ebp
  00018	5d		 pop	 ebp
  00019	c3		 ret	 0
??__FgSetItemOption@@YAXXZ ENDP				; `dynamic atexit destructor for 'gSetItemOption''
text$yd	ENDS
; Function compile flags: /Odtp /ZI
; File C:\Mu Online\Mu-GS-Webzen-MC-10093\common\SetItemOption.cpp
;	COMDAT ??__EgSetItemOption@@YAXXZ
text$di	SEGMENT
??__EgSetItemOption@@YAXXZ PROC				; `dynamic initializer for 'gSetItemOption'', COMDAT

; 15   : CSetItemOption	gSetItemOption;

  00000	55		 push	 ebp
  00001	8b ec		 mov	 ebp, esp
  00003	83 ec 40	 sub	 esp, 64			; 00000040H
  00006	53		 push	 ebx
  00007	56		 push	 esi
  00008	57		 push	 edi
  00009	b9 00 00 00 00	 mov	 ecx, OFFSET ?gSetItemOption@@3VCSetItemOption@@A ; gSetItemOption
  0000e	e8 00 00 00 00	 call	 ??0CSetItemOption@@QAE@XZ ; CSetItemOption::CSetItemOption
  00013	68 00 00 00 00	 push	 OFFSET ??__FgSetItemOption@@YAXXZ ; `dynamic atexit destructor for 'gSetItemOption''
  00018	e8 00 00 00 00	 call	 _atexit
  0001d	83 c4 04	 add	 esp, 4
  00020	5f		 pop	 edi
  00021	5e		 pop	 esi
  00022	5b		 pop	 ebx
  00023	8b e5		 mov	 esp, ebp
  00025	5d		 pop	 ebp
  00026	c3		 ret	 0
??__EgSetItemOption@@YAXXZ ENDP				; `dynamic initializer for 'gSetItemOption''
text$di	ENDS
; Function compile flags: /Odtp /ZI
;	COMDAT ??_GCSetItemOption@@UAEPAXI@Z
_TEXT	SEGMENT
_this$ = -4						; size = 4
___flags$ = 8						; size = 4
??_GCSetItemOption@@UAEPAXI@Z PROC			; CSetItemOption::`scalar deleting destructor', COMDAT
; _this$ = ecx
  00000	55		 push	 ebp
  00001	8b ec		 mov	 ebp, esp
  00003	83 ec 44	 sub	 esp, 68			; 00000044H
  00006	53		 push	 ebx
  00007	56		 push	 esi
  00008	57		 push	 edi
  00009	89 4d fc	 mov	 DWORD PTR _this$[ebp], ecx
  0000c	8b 4d fc	 mov	 ecx, DWORD PTR _this$[ebp]
  0000f	e8 00 00 00 00	 call	 ??1CSetItemOption@@UAE@XZ ; CSetItemOption::~CSetItemOption
  00014	8b 45 08	 mov	 eax, DWORD PTR ___flags$[ebp]
  00017	83 e0 01	 and	 eax, 1
  0001a	74 11		 je	 SHORT $LN2@scalar
  0001c	68 84 ac 00 00	 push	 44164			; 0000ac84H
  00021	8b 45 fc	 mov	 eax, DWORD PTR _this$[ebp]
  00024	50		 push	 eax
  00025	e8 00 00 00 00	 call	 ??3@YAXPAXI@Z		; operator delete
  0002a	83 c4 08	 add	 esp, 8
$LN2@scalar:
  0002d	8b 45 fc	 mov	 eax, DWORD PTR _this$[ebp]
  00030	5f		 pop	 edi
  00031	5e		 pop	 esi
  00032	5b		 pop	 ebx
  00033	8b e5		 mov	 esp, ebp
  00035	5d		 pop	 ebp
  00036	c2 04 00	 ret	 4
??_GCSetItemOption@@UAEPAXI@Z ENDP			; CSetItemOption::`scalar deleting destructor'
_TEXT	ENDS
; Function compile flags: /Odtp /ZI
; File C:\Mu Online\Mu-GS-Webzen-MC-10093\common\SetItemOption.cpp
;	COMDAT ?GenSetOption@CSetItemOption@@QAEHH@Z
_TEXT	SEGMENT
_SetOption$ = -8					; size = 4
_this$ = -4						; size = 4
_itemnum$ = 8						; size = 4
?GenSetOption@CSetItemOption@@QAEHH@Z PROC		; CSetItemOption::GenSetOption, COMDAT
; _this$ = ecx

; 789  : {

  00000	55		 push	 ebp
  00001	8b ec		 mov	 ebp, esp
  00003	83 ec 48	 sub	 esp, 72			; 00000048H
  00006	53		 push	 ebx
  00007	56		 push	 esi
  00008	57		 push	 edi
  00009	89 4d fc	 mov	 DWORD PTR _this$[ebp], ecx

; 790  : 	if( itemnum < 0 || itemnum > MAX_ITEM-1 ) 

  0000c	83 7d 08 00	 cmp	 DWORD PTR _itemnum$[ebp], 0
  00010	7c 09		 jl	 SHORT $LN3@GenSetOpti
  00012	81 7d 08 ff 01
	00 00		 cmp	 DWORD PTR _itemnum$[ebp], 511 ; 000001ffH
  00019	7e 19		 jle	 SHORT $LN2@GenSetOpti
$LN3@GenSetOpti:

; 791  : 	{
; 792  : 		LogAdd("GenSetType Check error: (itemnum:%d)", itemnum);

  0001b	8b 45 08	 mov	 eax, DWORD PTR _itemnum$[ebp]
  0001e	50		 push	 eax
  0001f	68 00 00 00 00	 push	 OFFSET ??_C@_0CF@ECDCLMC@GenSetType?5Check?5error?3?5?$CIitemnu@
  00024	ff 15 00 00 00
	00		 call	 DWORD PTR ?LogAdd@@3P6AXPADZZA ; LogAdd
  0002a	83 c4 08	 add	 esp, 8

; 793  : 		return 0;

  0002d	33 c0		 xor	 eax, eax
  0002f	e9 b5 00 00 00	 jmp	 $LN1@GenSetOpti
$LN2@GenSetOpti:

; 794  : 	}	
; 795  : 
; 796  : 	if( !m_SetItemTypeInfo[itemnum].IsLoad )

  00034	6b 45 08 14	 imul	 eax, DWORD PTR _itemnum$[ebp], 20
  00038	8b 4d fc	 mov	 ecx, DWORD PTR _this$[ebp]
  0003b	83 7c 01 04 00	 cmp	 DWORD PTR [ecx+eax+4], 0
  00040	75 07		 jne	 SHORT $LN4@GenSetOpti

; 797  : 	{	// 정보가 없다
; 798  : 		return 0;

  00042	33 c0		 xor	 eax, eax
  00044	e9 a0 00 00 00	 jmp	 $LN1@GenSetOpti
$LN4@GenSetOpti:

; 799  : 	}
; 800  : 
; 801  : 	int		SetOption;
; 802  : 
; 803  : 	if( m_SetItemTypeInfo[itemnum].OptionIndex[0] != 0 && 

  00049	6b 45 08 14	 imul	 eax, DWORD PTR _itemnum$[ebp], 20
  0004d	8b 4d fc	 mov	 ecx, DWORD PTR _this$[ebp]
  00050	8d 54 01 04	 lea	 edx, DWORD PTR [ecx+eax+4]
  00054	b8 04 00 00 00	 mov	 eax, 4
  00059	6b c8 00	 imul	 ecx, eax, 0
  0005c	83 7c 0a 04 00	 cmp	 DWORD PTR [edx+ecx+4], 0
  00061	74 33		 je	 SHORT $LN5@GenSetOpti
  00063	6b 45 08 14	 imul	 eax, DWORD PTR _itemnum$[ebp], 20
  00067	8b 4d fc	 mov	 ecx, DWORD PTR _this$[ebp]
  0006a	8d 54 01 04	 lea	 edx, DWORD PTR [ecx+eax+4]
  0006e	b8 04 00 00 00	 mov	 eax, 4
  00073	c1 e0 00	 shl	 eax, 0
  00076	83 7c 02 04 00	 cmp	 DWORD PTR [edx+eax+4], 0
  0007b	74 19		 je	 SHORT $LN5@GenSetOpti

; 804  : 		m_SetItemTypeInfo[itemnum].OptionIndex[1] != 0 )
; 805  : 	{
; 806  : 		SetOption = (rand()%2)+1;

  0007d	e8 00 00 00 00	 call	 _rand
  00082	25 01 00 00 80	 and	 eax, -2147483647	; 80000001H
  00087	79 05		 jns	 SHORT $LN12@GenSetOpti
  00089	48		 dec	 eax
  0008a	83 c8 fe	 or	 eax, -2			; fffffffeH
  0008d	40		 inc	 eax
$LN12@GenSetOpti:
  0008e	83 c0 01	 add	 eax, 1
  00091	89 45 f8	 mov	 DWORD PTR _SetOption$[ebp], eax

; 807  : 	}

  00094	eb 2a		 jmp	 SHORT $LN6@GenSetOpti
$LN5@GenSetOpti:

; 808  : 	else if( m_SetItemTypeInfo[itemnum].OptionIndex[0] != 0 )

  00096	6b 45 08 14	 imul	 eax, DWORD PTR _itemnum$[ebp], 20
  0009a	8b 4d fc	 mov	 ecx, DWORD PTR _this$[ebp]
  0009d	8d 54 01 04	 lea	 edx, DWORD PTR [ecx+eax+4]
  000a1	b8 04 00 00 00	 mov	 eax, 4
  000a6	6b c8 00	 imul	 ecx, eax, 0
  000a9	83 7c 0a 04 00	 cmp	 DWORD PTR [edx+ecx+4], 0
  000ae	74 09		 je	 SHORT $LN7@GenSetOpti

; 809  : 	{
; 810  : 		SetOption = 1;

  000b0	c7 45 f8 01 00
	00 00		 mov	 DWORD PTR _SetOption$[ebp], 1

; 811  : 	}

  000b7	eb 07		 jmp	 SHORT $LN6@GenSetOpti
$LN7@GenSetOpti:

; 812  : 	else
; 813  : 	{
; 814  : 		SetOption = 2;

  000b9	c7 45 f8 02 00
	00 00		 mov	 DWORD PTR _SetOption$[ebp], 2
$LN6@GenSetOpti:

; 815  : 	}
; 816  : 
; 817  : 	if( rand()%100 < 80 )

  000c0	e8 00 00 00 00	 call	 _rand
  000c5	99		 cdq
  000c6	b9 64 00 00 00	 mov	 ecx, 100		; 00000064H
  000cb	f7 f9		 idiv	 ecx
  000cd	83 fa 50	 cmp	 edx, 80			; 00000050H
  000d0	7d 0b		 jge	 SHORT $LN9@GenSetOpti

; 818  : 		SetOption |= 0x04;

  000d2	8b 45 f8	 mov	 eax, DWORD PTR _SetOption$[ebp]
  000d5	83 c8 04	 or	 eax, 4
  000d8	89 45 f8	 mov	 DWORD PTR _SetOption$[ebp], eax
  000db	eb 09		 jmp	 SHORT $LN10@GenSetOpti
$LN9@GenSetOpti:

; 819  : 	else
; 820  : 		SetOption |= 0x08;

  000dd	8b 45 f8	 mov	 eax, DWORD PTR _SetOption$[ebp]
  000e0	83 c8 08	 or	 eax, 8
  000e3	89 45 f8	 mov	 DWORD PTR _SetOption$[ebp], eax
$LN10@GenSetOpti:

; 821  : 
; 822  : 	return SetOption;

  000e6	8b 45 f8	 mov	 eax, DWORD PTR _SetOption$[ebp]
$LN1@GenSetOpti:

; 823  : }

  000e9	5f		 pop	 edi
  000ea	5e		 pop	 esi
  000eb	5b		 pop	 ebx
  000ec	8b e5		 mov	 esp, ebp
  000ee	5d		 pop	 ebp
  000ef	c2 04 00	 ret	 4
?GenSetOption@CSetItemOption@@QAEHH@Z ENDP		; CSetItemOption::GenSetOption
_TEXT	ENDS
; Function compile flags: /Odtp /ZI
; File C:\Mu Online\Mu-GS-Webzen-MC-10093\common\SetItemOption.cpp
;	COMDAT ?GenRandomItemNum@CSetItemOption@@QAEHXZ
_TEXT	SEGMENT
tv71 = -88						; size = 4
_iItemSubIndex$1 = -20					; size = 4
_iMaxItemSubIndex$2 = -16				; size = 4
_iItemType$3 = -12					; size = 4
_iItemIndex$ = -8					; size = 4
_this$ = -4						; size = 4
?GenRandomItemNum@CSetItemOption@@QAEHXZ PROC		; CSetItemOption::GenRandomItemNum, COMDAT
; _this$ = ecx

; 767  : {

  00000	55		 push	 ebp
  00001	8b ec		 mov	 ebp, esp
  00003	83 ec 58	 sub	 esp, 88			; 00000058H
  00006	53		 push	 ebx
  00007	56		 push	 esi
  00008	57		 push	 edi
  00009	89 4d fc	 mov	 DWORD PTR _this$[ebp], ecx
$LN4@GenRandomI:

; 768  : 	int		iItemIndex;
; 769  : 	do 
; 770  : 	{
; 771  : #ifdef ADD_RANDOM_RANGE_OF_ITEMINDEX_20050808
; 772  : 		int iItemType			= rand()%MAX_ITEM_TYPE;

  0000c	e8 00 00 00 00	 call	 _rand
  00011	25 0f 00 00 80	 and	 eax, -2147483633	; 8000000fH
  00016	79 05		 jns	 SHORT $LN9@GenRandomI
  00018	48		 dec	 eax
  00019	83 c8 f0	 or	 eax, -16		; fffffff0H
  0001c	40		 inc	 eax
$LN9@GenRandomI:
  0001d	89 45 f4	 mov	 DWORD PTR _iItemType$3[ebp], eax

; 773  : 		int iMaxItemSubIndex	= g_MaxItemIndexOfEachItemType[iItemType] <=0 ? MAX_ITEM_INDEX : g_MaxItemIndexOfEachItemType[iItemType];

  00020	8b 45 f4	 mov	 eax, DWORD PTR _iItemType$3[ebp]
  00023	83 3c 85 00 00
	00 00 00	 cmp	 DWORD PTR ?g_MaxItemIndexOfEachItemType@@3PAHA[eax*4], 0
  0002b	7f 09		 jg	 SHORT $LN7@GenRandomI
  0002d	c7 45 a8 20 00
	00 00		 mov	 DWORD PTR tv71[ebp], 32	; 00000020H
  00034	eb 0d		 jmp	 SHORT $LN8@GenRandomI
$LN7@GenRandomI:
  00036	8b 4d f4	 mov	 ecx, DWORD PTR _iItemType$3[ebp]
  00039	8b 14 8d 00 00
	00 00		 mov	 edx, DWORD PTR ?g_MaxItemIndexOfEachItemType@@3PAHA[ecx*4]
  00040	89 55 a8	 mov	 DWORD PTR tv71[ebp], edx
$LN8@GenRandomI:
  00043	8b 45 a8	 mov	 eax, DWORD PTR tv71[ebp]
  00046	89 45 f0	 mov	 DWORD PTR _iMaxItemSubIndex$2[ebp], eax

; 774  : 		int iItemSubIndex		= rand()%iMaxItemSubIndex; 

  00049	e8 00 00 00 00	 call	 _rand
  0004e	99		 cdq
  0004f	f7 7d f0	 idiv	 DWORD PTR _iMaxItemSubIndex$2[ebp]
  00052	89 55 ec	 mov	 DWORD PTR _iItemSubIndex$1[ebp], edx

; 775  : 		
; 776  : 		iItemIndex				= iItemType*MAX_ITEM_INDEX + iItemSubIndex;

  00055	8b 45 f4	 mov	 eax, DWORD PTR _iItemType$3[ebp]
  00058	c1 e0 05	 shl	 eax, 5
  0005b	03 45 ec	 add	 eax, DWORD PTR _iItemSubIndex$1[ebp]
  0005e	89 45 f8	 mov	 DWORD PTR _iItemIndex$[ebp], eax

; 777  : #else
; 778  : 		iItemIndex = rand()%512;
; 779  : #endif
; 780  : 		if( IsSetItem(iItemIndex) )

  00061	8b 45 f8	 mov	 eax, DWORD PTR _iItemIndex$[ebp]
  00064	50		 push	 eax
  00065	8b 4d fc	 mov	 ecx, DWORD PTR _this$[ebp]
  00068	e8 00 00 00 00	 call	 ?IsSetItem@CSetItemOption@@QAEHH@Z ; CSetItemOption::IsSetItem
  0006d	85 c0		 test	 eax, eax
  0006f	74 05		 je	 SHORT $LN2@GenRandomI

; 781  : 		{
; 782  : 			return iItemIndex;

  00071	8b 45 f8	 mov	 eax, DWORD PTR _iItemIndex$[ebp]
  00074	eb 0b		 jmp	 SHORT $LN1@GenRandomI
$LN2@GenRandomI:

; 783  : 		}
; 784  : 	} while(1);

  00076	b8 01 00 00 00	 mov	 eax, 1
  0007b	85 c0		 test	 eax, eax
  0007d	75 8d		 jne	 SHORT $LN4@GenRandomI

; 785  : 	return 0;

  0007f	33 c0		 xor	 eax, eax
$LN1@GenRandomI:

; 786  : }

  00081	5f		 pop	 edi
  00082	5e		 pop	 esi
  00083	5b		 pop	 ebx
  00084	8b e5		 mov	 esp, ebp
  00086	5d		 pop	 ebp
  00087	c3		 ret	 0
?GenRandomItemNum@CSetItemOption@@QAEHXZ ENDP		; CSetItemOption::GenRandomItemNum
_TEXT	ENDS
; Function compile flags: /Odtp /ZI
; File C:\Mu Online\Mu-GS-Webzen-MC-10093\common\SetItemOption.cpp
;	COMDAT ?MakeSetOption@CSetItemOption@@QAEHHH@Z
_TEXT	SEGMENT
_this$ = -4						; size = 4
_itemnum$ = 8						; size = 4
_mixitemlevel$ = 12					; size = 4
?MakeSetOption@CSetItemOption@@QAEHHH@Z PROC		; CSetItemOption::MakeSetOption, COMDAT
; _this$ = ecx

; 735  : {

  00000	55		 push	 ebp
  00001	8b ec		 mov	 ebp, esp
  00003	83 ec 44	 sub	 esp, 68			; 00000044H
  00006	53		 push	 ebx
  00007	56		 push	 esi
  00008	57		 push	 edi
  00009	89 4d fc	 mov	 DWORD PTR _this$[ebp], ecx

; 736  : 	if( itemnum < 0 || itemnum > MAX_ITEM-1 ) 

  0000c	83 7d 08 00	 cmp	 DWORD PTR _itemnum$[ebp], 0
  00010	7c 09		 jl	 SHORT $LN3@MakeSetOpt
  00012	81 7d 08 ff 01
	00 00		 cmp	 DWORD PTR _itemnum$[ebp], 511 ; 000001ffH
  00019	7e 19		 jle	 SHORT $LN2@MakeSetOpt
$LN3@MakeSetOpt:

; 737  : 	{
; 738  : 		LogAdd("MakeSetOption Check error: (itemnum:%d)", itemnum);

  0001b	8b 45 08	 mov	 eax, DWORD PTR _itemnum$[ebp]
  0001e	50		 push	 eax
  0001f	68 00 00 00 00	 push	 OFFSET ??_C@_0CI@NPMNOGMI@MakeSetOption?5Check?5error?3?5?$CIite@
  00024	ff 15 00 00 00
	00		 call	 DWORD PTR ?LogAdd@@3P6AXPADZZA ; LogAdd
  0002a	83 c4 08	 add	 esp, 8

; 739  : 		return 0;

  0002d	33 c0		 xor	 eax, eax
  0002f	e9 a3 00 00 00	 jmp	 $LN1@MakeSetOpt
$LN2@MakeSetOpt:

; 740  : 	}
; 741  : 	
; 742  : 	if( !m_SetItemTypeInfo[itemnum].IsLoad )

  00034	6b 45 08 14	 imul	 eax, DWORD PTR _itemnum$[ebp], 20
  00038	8b 4d fc	 mov	 ecx, DWORD PTR _this$[ebp]
  0003b	83 7c 01 04 00	 cmp	 DWORD PTR [ecx+eax+4], 0
  00040	75 07		 jne	 SHORT $LN4@MakeSetOpt

; 743  : 	{	// 정보가 없다
; 744  : 		return 0;

  00042	33 c0		 xor	 eax, eax
  00044	e9 8e 00 00 00	 jmp	 $LN1@MakeSetOpt
$LN4@MakeSetOpt:

; 745  : 	}
; 746  : 
; 747  : 	if( m_SetItemTypeInfo[itemnum].ChaosMixLevel[0] == m_SetItemTypeInfo[itemnum].ChaosMixLevel[1] )

  00049	6b 45 08 14	 imul	 eax, DWORD PTR _itemnum$[ebp], 20
  0004d	8b 4d fc	 mov	 ecx, DWORD PTR _this$[ebp]
  00050	8d 54 01 04	 lea	 edx, DWORD PTR [ecx+eax+4]
  00054	b8 04 00 00 00	 mov	 eax, 4
  00059	6b c8 00	 imul	 ecx, eax, 0
  0005c	6b 45 08 14	 imul	 eax, DWORD PTR _itemnum$[ebp], 20
  00060	8b 75 fc	 mov	 esi, DWORD PTR _this$[ebp]
  00063	8d 44 06 04	 lea	 eax, DWORD PTR [esi+eax+4]
  00067	be 04 00 00 00	 mov	 esi, 4
  0006c	c1 e6 00	 shl	 esi, 0
  0006f	8b 4c 0a 0c	 mov	 ecx, DWORD PTR [edx+ecx+12]
  00073	3b 4c 30 0c	 cmp	 ecx, DWORD PTR [eax+esi+12]
  00077	75 16		 jne	 SHORT $LN5@MakeSetOpt

; 748  : 	{	// 같은 조건이므로, A, B 둘중 하나를 랜덤으로 준다
; 749  : 		return (rand()%2)+1;

  00079	e8 00 00 00 00	 call	 _rand
  0007e	25 01 00 00 80	 and	 eax, -2147483647	; 80000001H
  00083	79 05		 jns	 SHORT $LN9@MakeSetOpt
  00085	48		 dec	 eax
  00086	83 c8 fe	 or	 eax, -2			; fffffffeH
  00089	40		 inc	 eax
$LN9@MakeSetOpt:
  0008a	83 c0 01	 add	 eax, 1
  0008d	eb 48		 jmp	 SHORT $LN1@MakeSetOpt
$LN5@MakeSetOpt:

; 750  : 	}	
; 751  : 
; 752  : 	if( m_SetItemTypeInfo[itemnum].ChaosMixLevel[0] == mixitemlevel )

  0008f	6b 45 08 14	 imul	 eax, DWORD PTR _itemnum$[ebp], 20
  00093	8b 4d fc	 mov	 ecx, DWORD PTR _this$[ebp]
  00096	8d 54 01 04	 lea	 edx, DWORD PTR [ecx+eax+4]
  0009a	b8 04 00 00 00	 mov	 eax, 4
  0009f	6b c8 00	 imul	 ecx, eax, 0
  000a2	8b 54 0a 0c	 mov	 edx, DWORD PTR [edx+ecx+12]
  000a6	3b 55 0c	 cmp	 edx, DWORD PTR _mixitemlevel$[ebp]
  000a9	75 07		 jne	 SHORT $LN6@MakeSetOpt

; 753  : 	{
; 754  : 		return 1;

  000ab	b8 01 00 00 00	 mov	 eax, 1
  000b0	eb 25		 jmp	 SHORT $LN1@MakeSetOpt
$LN6@MakeSetOpt:

; 755  : 	}
; 756  : 
; 757  : 	if( m_SetItemTypeInfo[itemnum].ChaosMixLevel[1] == mixitemlevel )

  000b2	6b 45 08 14	 imul	 eax, DWORD PTR _itemnum$[ebp], 20
  000b6	8b 4d fc	 mov	 ecx, DWORD PTR _this$[ebp]
  000b9	8d 54 01 04	 lea	 edx, DWORD PTR [ecx+eax+4]
  000bd	b8 04 00 00 00	 mov	 eax, 4
  000c2	c1 e0 00	 shl	 eax, 0
  000c5	8b 4c 02 0c	 mov	 ecx, DWORD PTR [edx+eax+12]
  000c9	3b 4d 0c	 cmp	 ecx, DWORD PTR _mixitemlevel$[ebp]
  000cc	75 07		 jne	 SHORT $LN7@MakeSetOpt

; 758  : 	{
; 759  : 		return 2;

  000ce	b8 02 00 00 00	 mov	 eax, 2
  000d3	eb 02		 jmp	 SHORT $LN1@MakeSetOpt
$LN7@MakeSetOpt:

; 760  : 	}
; 761  : 
; 762  : 	return 0;

  000d5	33 c0		 xor	 eax, eax
$LN1@MakeSetOpt:

; 763  : }

  000d7	5f		 pop	 edi
  000d8	5e		 pop	 esi
  000d9	5b		 pop	 ebx
  000da	8b e5		 mov	 esp, ebp
  000dc	5d		 pop	 ebp
  000dd	c2 08 00	 ret	 8
?MakeSetOption@CSetItemOption@@QAEHHH@Z ENDP		; CSetItemOption::MakeSetOption
_TEXT	ENDS
; Function compile flags: /Odtp /ZI
; File C:\Mu Online\Mu-GS-Webzen-MC-10093\common\SetItemOption.cpp
;	COMDAT ?CheckMixContition@CSetItemOption@@QAEHHH@Z
_TEXT	SEGMENT
_this$ = -4						; size = 4
_itemnum$ = 8						; size = 4
_mixitemlevel$ = 12					; size = 4
?CheckMixContition@CSetItemOption@@QAEHHH@Z PROC	; CSetItemOption::CheckMixContition, COMDAT
; _this$ = ecx

; 712  : {

  00000	55		 push	 ebp
  00001	8b ec		 mov	 ebp, esp
  00003	83 ec 44	 sub	 esp, 68			; 00000044H
  00006	53		 push	 ebx
  00007	56		 push	 esi
  00008	57		 push	 edi
  00009	89 4d fc	 mov	 DWORD PTR _this$[ebp], ecx

; 713  : 	if( mixitemlevel == -1 )

  0000c	83 7d 0c ff	 cmp	 DWORD PTR _mixitemlevel$[ebp], -1
  00010	75 04		 jne	 SHORT $LN2@CheckMixCo

; 714  : 		return FALSE;

  00012	33 c0		 xor	 eax, eax
  00014	eb 78		 jmp	 SHORT $LN1@CheckMixCo
$LN2@CheckMixCo:

; 715  : 
; 716  : 	if( itemnum < 0 || itemnum > MAX_ITEM-1 ) 

  00016	83 7d 08 00	 cmp	 DWORD PTR _itemnum$[ebp], 0
  0001a	7c 09		 jl	 SHORT $LN4@CheckMixCo
  0001c	81 7d 08 ff 01
	00 00		 cmp	 DWORD PTR _itemnum$[ebp], 511 ; 000001ffH
  00023	7e 16		 jle	 SHORT $LN3@CheckMixCo
$LN4@CheckMixCo:

; 717  : 	{
; 718  : 		LogAdd("MakeSetOption Check error: (itemnum:%d)", itemnum);

  00025	8b 45 08	 mov	 eax, DWORD PTR _itemnum$[ebp]
  00028	50		 push	 eax
  00029	68 00 00 00 00	 push	 OFFSET ??_C@_0CI@NPMNOGMI@MakeSetOption?5Check?5error?3?5?$CIite@
  0002e	ff 15 00 00 00
	00		 call	 DWORD PTR ?LogAdd@@3P6AXPADZZA ; LogAdd
  00034	83 c4 08	 add	 esp, 8

; 719  : 		return FALSE;

  00037	33 c0		 xor	 eax, eax
  00039	eb 53		 jmp	 SHORT $LN1@CheckMixCo
$LN3@CheckMixCo:

; 720  : 	}
; 721  : 	
; 722  : 	if( !m_SetItemTypeInfo[itemnum].IsLoad )

  0003b	6b 45 08 14	 imul	 eax, DWORD PTR _itemnum$[ebp], 20
  0003f	8b 4d fc	 mov	 ecx, DWORD PTR _this$[ebp]
  00042	83 7c 01 04 00	 cmp	 DWORD PTR [ecx+eax+4], 0
  00047	75 04		 jne	 SHORT $LN5@CheckMixCo

; 723  : 	{	// 정보가 없다
; 724  : 		return FALSE;

  00049	33 c0		 xor	 eax, eax
  0004b	eb 41		 jmp	 SHORT $LN1@CheckMixCo
$LN5@CheckMixCo:

; 725  : 	}
; 726  : 
; 727  : 	if( m_SetItemTypeInfo[itemnum].ChaosMixLevel[0] == mixitemlevel || 

  0004d	6b 45 08 14	 imul	 eax, DWORD PTR _itemnum$[ebp], 20
  00051	8b 4d fc	 mov	 ecx, DWORD PTR _this$[ebp]
  00054	8d 54 01 04	 lea	 edx, DWORD PTR [ecx+eax+4]
  00058	b8 04 00 00 00	 mov	 eax, 4
  0005d	6b c8 00	 imul	 ecx, eax, 0
  00060	8b 54 0a 0c	 mov	 edx, DWORD PTR [edx+ecx+12]
  00064	3b 55 0c	 cmp	 edx, DWORD PTR _mixitemlevel$[ebp]
  00067	74 1c		 je	 SHORT $LN7@CheckMixCo
  00069	6b 45 08 14	 imul	 eax, DWORD PTR _itemnum$[ebp], 20
  0006d	8b 4d fc	 mov	 ecx, DWORD PTR _this$[ebp]
  00070	8d 54 01 04	 lea	 edx, DWORD PTR [ecx+eax+4]
  00074	b8 04 00 00 00	 mov	 eax, 4
  00079	c1 e0 00	 shl	 eax, 0
  0007c	8b 4c 02 0c	 mov	 ecx, DWORD PTR [edx+eax+12]
  00080	3b 4d 0c	 cmp	 ecx, DWORD PTR _mixitemlevel$[ebp]
  00083	75 07		 jne	 SHORT $LN6@CheckMixCo
$LN7@CheckMixCo:

; 728  : 		m_SetItemTypeInfo[itemnum].ChaosMixLevel[1] == mixitemlevel )
; 729  : 		return TRUE;

  00085	b8 01 00 00 00	 mov	 eax, 1
  0008a	eb 02		 jmp	 SHORT $LN1@CheckMixCo
$LN6@CheckMixCo:

; 730  : 
; 731  : 	return FALSE;

  0008c	33 c0		 xor	 eax, eax
$LN1@CheckMixCo:

; 732  : }

  0008e	5f		 pop	 edi
  0008f	5e		 pop	 esi
  00090	5b		 pop	 ebx
  00091	8b e5		 mov	 esp, ebp
  00093	5d		 pop	 ebp
  00094	c2 08 00	 ret	 8
?CheckMixContition@CSetItemOption@@QAEHHH@Z ENDP	; CSetItemOption::CheckMixContition
_TEXT	ENDS
; Function compile flags: /Odtp /ZI
; File C:\Mu Online\Mu-GS-Webzen-MC-10093\common\SetItemOption.cpp
;	COMDAT ?IsRequireClass@CSetItemOption@@QAEHHHH@Z
_TEXT	SEGMENT
_requireclass$ = -8					; size = 4
_this$ = -4						; size = 4
_optionindex$ = 8					; size = 4
_Class$ = 12						; size = 4
_ChangeUp$ = 16						; size = 4
?IsRequireClass@CSetItemOption@@QAEHHHH@Z PROC		; CSetItemOption::IsRequireClass, COMDAT
; _this$ = ecx

; 686  : {

  00000	55		 push	 ebp
  00001	8b ec		 mov	 ebp, esp
  00003	83 ec 48	 sub	 esp, 72			; 00000048H
  00006	53		 push	 ebx
  00007	56		 push	 esi
  00008	57		 push	 edi
  00009	89 4d fc	 mov	 DWORD PTR _this$[ebp], ecx

; 687  : 	if( optionindex < 0 || optionindex > MAX_SETITEM_OPTION-1 ) 

  0000c	83 7d 08 00	 cmp	 DWORD PTR _optionindex$[ebp], 0
  00010	7c 06		 jl	 SHORT $LN3@IsRequireC
  00012	83 7d 08 4f	 cmp	 DWORD PTR _optionindex$[ebp], 79 ; 0000004fH
  00016	7e 16		 jle	 SHORT $LN2@IsRequireC
$LN3@IsRequireC:

; 688  : 	{
; 689  : 		LogAdd("GetMaxOptionCount Check error: (itemnum:%d)", optionindex);

  00018	8b 45 08	 mov	 eax, DWORD PTR _optionindex$[ebp]
  0001b	50		 push	 eax
  0001c	68 00 00 00 00	 push	 OFFSET ??_C@_0CM@OCFJJDJ@GetMaxOptionCount?5Check?5error?3?5@
  00021	ff 15 00 00 00
	00		 call	 DWORD PTR ?LogAdd@@3P6AXPADZZA ; LogAdd
  00027	83 c4 08	 add	 esp, 8

; 690  : 		return FALSE;

  0002a	33 c0		 xor	 eax, eax
  0002c	eb 6b		 jmp	 SHORT $LN1@IsRequireC
$LN2@IsRequireC:

; 691  : 	}
; 692  : 
; 693  : 	if( !m_SetItemOptionInfo[optionindex].IsLoad )

  0002e	69 45 08 a8 01
	00 00		 imul	 eax, DWORD PTR _optionindex$[ebp], 424
  00035	8b 4d fc	 mov	 ecx, DWORD PTR _this$[ebp]
  00038	83 bc 01 04 28
	00 00 00	 cmp	 DWORD PTR [ecx+eax+10244], 0
  00040	75 04		 jne	 SHORT $LN4@IsRequireC

; 694  : 		return FALSE;			// 로드된 정보가 없다

  00042	33 c0		 xor	 eax, eax
  00044	eb 53		 jmp	 SHORT $LN1@IsRequireC
$LN4@IsRequireC:

; 695  : 
; 696  : 	if( Class < 0 || Class > MAX_CLASSTYPE-1 ) 

  00046	83 7d 0c 00	 cmp	 DWORD PTR _Class$[ebp], 0
  0004a	7c 06		 jl	 SHORT $LN6@IsRequireC
  0004c	83 7d 0c 04	 cmp	 DWORD PTR _Class$[ebp], 4
  00050	7e 04		 jle	 SHORT $LN5@IsRequireC
$LN6@IsRequireC:

; 697  : 	{		
; 698  : 		return FALSE;

  00052	33 c0		 xor	 eax, eax
  00054	eb 43		 jmp	 SHORT $LN1@IsRequireC
$LN5@IsRequireC:

; 699  : 	}
; 700  : 	
; 701  : 	int requireclass = m_SetItemOptionInfo[optionindex].RequireClass[Class];

  00056	69 45 08 a8 01
	00 00		 imul	 eax, DWORD PTR _optionindex$[ebp], 424
  0005d	8b 4d fc	 mov	 ecx, DWORD PTR _this$[ebp]
  00060	8d 94 01 04 28
	00 00		 lea	 edx, DWORD PTR [ecx+eax+10244]
  00067	8b 45 0c	 mov	 eax, DWORD PTR _Class$[ebp]
  0006a	0f b6 8c 02 a0
	01 00 00	 movzx	 ecx, BYTE PTR [edx+eax+416]
  00072	89 4d f8	 mov	 DWORD PTR _requireclass$[ebp], ecx

; 702  : 	if( requireclass == 0 ) return FALSE;

  00075	83 7d f8 00	 cmp	 DWORD PTR _requireclass$[ebp], 0
  00079	75 04		 jne	 SHORT $LN7@IsRequireC
  0007b	33 c0		 xor	 eax, eax
  0007d	eb 1a		 jmp	 SHORT $LN1@IsRequireC
$LN7@IsRequireC:

; 703  : 	if( requireclass > 1 )

  0007f	83 7d f8 01	 cmp	 DWORD PTR _requireclass$[ebp], 1
  00083	7e 0f		 jle	 SHORT $LN8@IsRequireC

; 704  : 	{	// 전직전용이면
; 705  : 		if( requireclass != ChangeUp+1 )

  00085	8b 45 10	 mov	 eax, DWORD PTR _ChangeUp$[ebp]
  00088	83 c0 01	 add	 eax, 1
  0008b	39 45 f8	 cmp	 DWORD PTR _requireclass$[ebp], eax
  0008e	74 04		 je	 SHORT $LN8@IsRequireC

; 706  : 			return FALSE;

  00090	33 c0		 xor	 eax, eax
  00092	eb 05		 jmp	 SHORT $LN1@IsRequireC
$LN8@IsRequireC:

; 707  : 	}
; 708  : 	return TRUE;

  00094	b8 01 00 00 00	 mov	 eax, 1
$LN1@IsRequireC:

; 709  : }

  00099	5f		 pop	 edi
  0009a	5e		 pop	 esi
  0009b	5b		 pop	 ebx
  0009c	8b e5		 mov	 esp, ebp
  0009e	5d		 pop	 ebp
  0009f	c2 0c 00	 ret	 12			; 0000000cH
?IsRequireClass@CSetItemOption@@QAEHHHH@Z ENDP		; CSetItemOption::IsRequireClass
_TEXT	ENDS
; Function compile flags: /Odtp /ZI
; File C:\Mu Online\Mu-GS-Webzen-MC-10093\common\SetItemOption.cpp
;	COMDAT ?GetGetFullSetOption@CSetItemOption@@QAEHHAAH000000000HH@Z
_TEXT	SEGMENT
_isRequireClass$ = -8					; size = 4
_this$ = -4						; size = 4
_optionindex$ = 8					; size = 4
_op1$ = 12						; size = 4
_op2$ = 16						; size = 4
_op3$ = 20						; size = 4
_op4$ = 24						; size = 4
_op5$ = 28						; size = 4
_opvalue1$ = 32						; size = 4
_opvalue2$ = 36						; size = 4
_opvalue3$ = 40						; size = 4
_opvalue4$ = 44						; size = 4
_opvalue5$ = 48						; size = 4
_Class$ = 52						; size = 4
_ChangeUp$ = 56						; size = 4
?GetGetFullSetOption@CSetItemOption@@QAEHHAAH000000000HH@Z PROC ; CSetItemOption::GetGetFullSetOption, COMDAT
; _this$ = ecx

; 609  : {

  00000	55		 push	 ebp
  00001	8b ec		 mov	 ebp, esp
  00003	83 ec 48	 sub	 esp, 72			; 00000048H
  00006	53		 push	 ebx
  00007	56		 push	 esi
  00008	57		 push	 edi
  00009	89 4d fc	 mov	 DWORD PTR _this$[ebp], ecx

; 610  : 	opvalue1 = 0;

  0000c	8b 45 20	 mov	 eax, DWORD PTR _opvalue1$[ebp]
  0000f	c7 00 00 00 00
	00		 mov	 DWORD PTR [eax], 0

; 611  : 	opvalue2 = 0;

  00015	8b 45 24	 mov	 eax, DWORD PTR _opvalue2$[ebp]
  00018	c7 00 00 00 00
	00		 mov	 DWORD PTR [eax], 0

; 612  : 	opvalue3 = 0;

  0001e	8b 45 28	 mov	 eax, DWORD PTR _opvalue3$[ebp]
  00021	c7 00 00 00 00
	00		 mov	 DWORD PTR [eax], 0

; 613  : 	opvalue4 = 0;

  00027	8b 45 2c	 mov	 eax, DWORD PTR _opvalue4$[ebp]
  0002a	c7 00 00 00 00
	00		 mov	 DWORD PTR [eax], 0

; 614  : 	opvalue5 = 0;

  00030	8b 45 30	 mov	 eax, DWORD PTR _opvalue5$[ebp]
  00033	c7 00 00 00 00
	00		 mov	 DWORD PTR [eax], 0

; 615  : 
; 616  : 	if( optionindex < 0 || optionindex > MAX_SETITEM_OPTION-1 ) 

  00039	83 7d 08 00	 cmp	 DWORD PTR _optionindex$[ebp], 0
  0003d	7c 06		 jl	 SHORT $LN3@GetGetFull
  0003f	83 7d 08 4f	 cmp	 DWORD PTR _optionindex$[ebp], 79 ; 0000004fH
  00043	7e 19		 jle	 SHORT $LN2@GetGetFull
$LN3@GetGetFull:

; 617  : 	{
; 618  : 		LogAdd("GetMaxOptionCount Check error: (itemnum:%d)", optionindex);

  00045	8b 45 08	 mov	 eax, DWORD PTR _optionindex$[ebp]
  00048	50		 push	 eax
  00049	68 00 00 00 00	 push	 OFFSET ??_C@_0CM@OCFJJDJ@GetMaxOptionCount?5Check?5error?3?5@
  0004e	ff 15 00 00 00
	00		 call	 DWORD PTR ?LogAdd@@3P6AXPADZZA ; LogAdd
  00054	83 c4 08	 add	 esp, 8

; 619  : 		return FALSE;

  00057	33 c0		 xor	 eax, eax
  00059	e9 a1 02 00 00	 jmp	 $LN1@GetGetFull
$LN2@GetGetFull:

; 620  : 	}
; 621  : 
; 622  : 	if( !m_SetItemOptionInfo[optionindex].IsLoad )

  0005e	69 45 08 a8 01
	00 00		 imul	 eax, DWORD PTR _optionindex$[ebp], 424
  00065	8b 4d fc	 mov	 ecx, DWORD PTR _this$[ebp]
  00068	83 bc 01 04 28
	00 00 00	 cmp	 DWORD PTR [ecx+eax+10244], 0
  00070	75 07		 jne	 SHORT $LN4@GetGetFull

; 623  : 		return FALSE;			// 로드된 정보가 없다

  00072	33 c0		 xor	 eax, eax
  00074	e9 86 02 00 00	 jmp	 $LN1@GetGetFull
$LN4@GetGetFull:

; 624  : 
; 625  : 	BOOL isRequireClass = IsRequireClass(optionindex, Class, ChangeUp);			

  00079	8b 45 38	 mov	 eax, DWORD PTR _ChangeUp$[ebp]
  0007c	50		 push	 eax
  0007d	8b 4d 34	 mov	 ecx, DWORD PTR _Class$[ebp]
  00080	51		 push	 ecx
  00081	8b 55 08	 mov	 edx, DWORD PTR _optionindex$[ebp]
  00084	52		 push	 edx
  00085	8b 4d fc	 mov	 ecx, DWORD PTR _this$[ebp]
  00088	e8 00 00 00 00	 call	 ?IsRequireClass@CSetItemOption@@QAEHHHH@Z ; CSetItemOption::IsRequireClass
  0008d	89 45 f8	 mov	 DWORD PTR _isRequireClass$[ebp], eax

; 626  : 
; 627  : 	op1 = m_SetItemOptionInfo[optionindex].SetFullOtionTable[0];

  00090	69 45 08 a8 01
	00 00		 imul	 eax, DWORD PTR _optionindex$[ebp], 424
  00097	8b 4d fc	 mov	 ecx, DWORD PTR _this$[ebp]
  0009a	8d 94 01 04 28
	00 00		 lea	 edx, DWORD PTR [ecx+eax+10244]
  000a1	b8 04 00 00 00	 mov	 eax, 4
  000a6	6b c8 00	 imul	 ecx, eax, 0
  000a9	8b 45 0c	 mov	 eax, DWORD PTR _op1$[ebp]
  000ac	8b 8c 0a 78 01
	00 00		 mov	 ecx, DWORD PTR [edx+ecx+376]
  000b3	89 08		 mov	 DWORD PTR [eax], ecx

; 628  : 	opvalue1 = m_SetItemOptionInfo[optionindex].SetFullOtionTableValue[0];

  000b5	69 45 08 a8 01
	00 00		 imul	 eax, DWORD PTR _optionindex$[ebp], 424
  000bc	8b 4d fc	 mov	 ecx, DWORD PTR _this$[ebp]
  000bf	8d 94 01 04 28
	00 00		 lea	 edx, DWORD PTR [ecx+eax+10244]
  000c6	b8 04 00 00 00	 mov	 eax, 4
  000cb	6b c8 00	 imul	 ecx, eax, 0
  000ce	8b 45 20	 mov	 eax, DWORD PTR _opvalue1$[ebp]
  000d1	8b 8c 0a 8c 01
	00 00		 mov	 ecx, DWORD PTR [edx+ecx+396]
  000d8	89 08		 mov	 DWORD PTR [eax], ecx

; 629  : 	if( op1 > AT_SET_OPTION_TWO_HAND_SWORD_IMPROVE_DAMAGE )

  000da	8b 45 0c	 mov	 eax, DWORD PTR _op1$[ebp]
  000dd	81 38 b7 00 00
	00		 cmp	 DWORD PTR [eax], 183	; 000000b7H
  000e3	7e 0f		 jle	 SHORT $LN5@GetGetFull

; 630  : 	{	// 양손검 장비시 데미지 15% 증가 이후 부터 클래스 적용
; 631  : 		if( !isRequireClass )

  000e5	83 7d f8 00	 cmp	 DWORD PTR _isRequireClass$[ebp], 0
  000e9	75 09		 jne	 SHORT $LN5@GetGetFull

; 632  : 		{
; 633  : 			op1 = -1;

  000eb	8b 45 0c	 mov	 eax, DWORD PTR _op1$[ebp]
  000ee	c7 00 ff ff ff
	ff		 mov	 DWORD PTR [eax], -1
$LN5@GetGetFull:

; 634  : 		}
; 635  : 	}
; 636  : 	if( op1 != -1 )	op1 += AT_SET_OPTION_IMPROVE_STRENGTH;

  000f4	8b 45 0c	 mov	 eax, DWORD PTR _op1$[ebp]
  000f7	83 38 ff	 cmp	 DWORD PTR [eax], -1
  000fa	74 10		 je	 SHORT $LN7@GetGetFull
  000fc	8b 45 0c	 mov	 eax, DWORD PTR _op1$[ebp]
  000ff	8b 08		 mov	 ecx, DWORD PTR [eax]
  00101	81 c1 a0 00 00
	00		 add	 ecx, 160		; 000000a0H
  00107	8b 55 0c	 mov	 edx, DWORD PTR _op1$[ebp]
  0010a	89 0a		 mov	 DWORD PTR [edx], ecx
$LN7@GetGetFull:

; 637  : 
; 638  : 	op2 = m_SetItemOptionInfo[optionindex].SetFullOtionTable[1];

  0010c	69 45 08 a8 01
	00 00		 imul	 eax, DWORD PTR _optionindex$[ebp], 424
  00113	8b 4d fc	 mov	 ecx, DWORD PTR _this$[ebp]
  00116	8d 94 01 04 28
	00 00		 lea	 edx, DWORD PTR [ecx+eax+10244]
  0011d	b8 04 00 00 00	 mov	 eax, 4
  00122	c1 e0 00	 shl	 eax, 0
  00125	8b 4d 10	 mov	 ecx, DWORD PTR _op2$[ebp]
  00128	8b 94 02 78 01
	00 00		 mov	 edx, DWORD PTR [edx+eax+376]
  0012f	89 11		 mov	 DWORD PTR [ecx], edx

; 639  : 	opvalue2 = m_SetItemOptionInfo[optionindex].SetFullOtionTableValue[1];

  00131	69 45 08 a8 01
	00 00		 imul	 eax, DWORD PTR _optionindex$[ebp], 424
  00138	8b 4d fc	 mov	 ecx, DWORD PTR _this$[ebp]
  0013b	8d 94 01 04 28
	00 00		 lea	 edx, DWORD PTR [ecx+eax+10244]
  00142	b8 04 00 00 00	 mov	 eax, 4
  00147	c1 e0 00	 shl	 eax, 0
  0014a	8b 4d 24	 mov	 ecx, DWORD PTR _opvalue2$[ebp]
  0014d	8b 94 02 8c 01
	00 00		 mov	 edx, DWORD PTR [edx+eax+396]
  00154	89 11		 mov	 DWORD PTR [ecx], edx

; 640  : 	if( op2 > AT_SET_OPTION_TWO_HAND_SWORD_IMPROVE_DAMAGE )

  00156	8b 45 10	 mov	 eax, DWORD PTR _op2$[ebp]
  00159	81 38 b7 00 00
	00		 cmp	 DWORD PTR [eax], 183	; 000000b7H
  0015f	7e 0f		 jle	 SHORT $LN8@GetGetFull

; 641  : 	{	// // 양손검 장비시 데미지 15% 증가 이후 부터 클래스 적용
; 642  : 		if( !isRequireClass )

  00161	83 7d f8 00	 cmp	 DWORD PTR _isRequireClass$[ebp], 0
  00165	75 09		 jne	 SHORT $LN8@GetGetFull

; 643  : 		{
; 644  : 			op2 = -1;

  00167	8b 45 10	 mov	 eax, DWORD PTR _op2$[ebp]
  0016a	c7 00 ff ff ff
	ff		 mov	 DWORD PTR [eax], -1
$LN8@GetGetFull:

; 645  : 		}
; 646  : 	}
; 647  : 	if( op2 != -1 )	op2 += AT_SET_OPTION_IMPROVE_STRENGTH;

  00170	8b 45 10	 mov	 eax, DWORD PTR _op2$[ebp]
  00173	83 38 ff	 cmp	 DWORD PTR [eax], -1
  00176	74 10		 je	 SHORT $LN10@GetGetFull
  00178	8b 45 10	 mov	 eax, DWORD PTR _op2$[ebp]
  0017b	8b 08		 mov	 ecx, DWORD PTR [eax]
  0017d	81 c1 a0 00 00
	00		 add	 ecx, 160		; 000000a0H
  00183	8b 55 10	 mov	 edx, DWORD PTR _op2$[ebp]
  00186	89 0a		 mov	 DWORD PTR [edx], ecx
$LN10@GetGetFull:

; 648  : 
; 649  : 	op3 = m_SetItemOptionInfo[optionindex].SetFullOtionTable[2];

  00188	69 45 08 a8 01
	00 00		 imul	 eax, DWORD PTR _optionindex$[ebp], 424
  0018f	8b 4d fc	 mov	 ecx, DWORD PTR _this$[ebp]
  00192	8d 94 01 04 28
	00 00		 lea	 edx, DWORD PTR [ecx+eax+10244]
  00199	b8 04 00 00 00	 mov	 eax, 4
  0019e	d1 e0		 shl	 eax, 1
  001a0	8b 4d 14	 mov	 ecx, DWORD PTR _op3$[ebp]
  001a3	8b 94 02 78 01
	00 00		 mov	 edx, DWORD PTR [edx+eax+376]
  001aa	89 11		 mov	 DWORD PTR [ecx], edx

; 650  : 	opvalue3 = m_SetItemOptionInfo[optionindex].SetFullOtionTableValue[2];

  001ac	69 45 08 a8 01
	00 00		 imul	 eax, DWORD PTR _optionindex$[ebp], 424
  001b3	8b 4d fc	 mov	 ecx, DWORD PTR _this$[ebp]
  001b6	8d 94 01 04 28
	00 00		 lea	 edx, DWORD PTR [ecx+eax+10244]
  001bd	b8 04 00 00 00	 mov	 eax, 4
  001c2	d1 e0		 shl	 eax, 1
  001c4	8b 4d 28	 mov	 ecx, DWORD PTR _opvalue3$[ebp]
  001c7	8b 94 02 8c 01
	00 00		 mov	 edx, DWORD PTR [edx+eax+396]
  001ce	89 11		 mov	 DWORD PTR [ecx], edx

; 651  : 	if( op3 > AT_SET_OPTION_TWO_HAND_SWORD_IMPROVE_DAMAGE )

  001d0	8b 45 14	 mov	 eax, DWORD PTR _op3$[ebp]
  001d3	81 38 b7 00 00
	00		 cmp	 DWORD PTR [eax], 183	; 000000b7H
  001d9	7e 0f		 jle	 SHORT $LN11@GetGetFull

; 652  : 	{	// 양손검 장비시 데미지 15% 증가 이후 부터 클래스 적용
; 653  : 		if( !isRequireClass )

  001db	83 7d f8 00	 cmp	 DWORD PTR _isRequireClass$[ebp], 0
  001df	75 09		 jne	 SHORT $LN11@GetGetFull

; 654  : 		{
; 655  : 			op3 = -1;

  001e1	8b 45 14	 mov	 eax, DWORD PTR _op3$[ebp]
  001e4	c7 00 ff ff ff
	ff		 mov	 DWORD PTR [eax], -1
$LN11@GetGetFull:

; 656  : 		}
; 657  : 	}
; 658  : 	if( op3 != -1 )	op3 += AT_SET_OPTION_IMPROVE_STRENGTH;

  001ea	8b 45 14	 mov	 eax, DWORD PTR _op3$[ebp]
  001ed	83 38 ff	 cmp	 DWORD PTR [eax], -1
  001f0	74 10		 je	 SHORT $LN13@GetGetFull
  001f2	8b 45 14	 mov	 eax, DWORD PTR _op3$[ebp]
  001f5	8b 08		 mov	 ecx, DWORD PTR [eax]
  001f7	81 c1 a0 00 00
	00		 add	 ecx, 160		; 000000a0H
  001fd	8b 55 14	 mov	 edx, DWORD PTR _op3$[ebp]
  00200	89 0a		 mov	 DWORD PTR [edx], ecx
$LN13@GetGetFull:

; 659  : 
; 660  : 	op4 = m_SetItemOptionInfo[optionindex].SetFullOtionTable[3];

  00202	69 45 08 a8 01
	00 00		 imul	 eax, DWORD PTR _optionindex$[ebp], 424
  00209	8b 4d fc	 mov	 ecx, DWORD PTR _this$[ebp]
  0020c	8d 94 01 04 28
	00 00		 lea	 edx, DWORD PTR [ecx+eax+10244]
  00213	b8 04 00 00 00	 mov	 eax, 4
  00218	6b c8 03	 imul	 ecx, eax, 3
  0021b	8b 45 18	 mov	 eax, DWORD PTR _op4$[ebp]
  0021e	8b 8c 0a 78 01
	00 00		 mov	 ecx, DWORD PTR [edx+ecx+376]
  00225	89 08		 mov	 DWORD PTR [eax], ecx

; 661  : 	opvalue4 = m_SetItemOptionInfo[optionindex].SetFullOtionTableValue[3];

  00227	69 45 08 a8 01
	00 00		 imul	 eax, DWORD PTR _optionindex$[ebp], 424
  0022e	8b 4d fc	 mov	 ecx, DWORD PTR _this$[ebp]
  00231	8d 94 01 04 28
	00 00		 lea	 edx, DWORD PTR [ecx+eax+10244]
  00238	b8 04 00 00 00	 mov	 eax, 4
  0023d	6b c8 03	 imul	 ecx, eax, 3
  00240	8b 45 2c	 mov	 eax, DWORD PTR _opvalue4$[ebp]
  00243	8b 8c 0a 8c 01
	00 00		 mov	 ecx, DWORD PTR [edx+ecx+396]
  0024a	89 08		 mov	 DWORD PTR [eax], ecx

; 662  : 	if( op4 > AT_SET_OPTION_TWO_HAND_SWORD_IMPROVE_DAMAGE )

  0024c	8b 45 18	 mov	 eax, DWORD PTR _op4$[ebp]
  0024f	81 38 b7 00 00
	00		 cmp	 DWORD PTR [eax], 183	; 000000b7H
  00255	7e 0f		 jle	 SHORT $LN14@GetGetFull

; 663  : 	{	// 양손검 장비시 데미지 15% 증가 이후 부터 클래스 적용
; 664  : 		if( !isRequireClass )

  00257	83 7d f8 00	 cmp	 DWORD PTR _isRequireClass$[ebp], 0
  0025b	75 09		 jne	 SHORT $LN14@GetGetFull

; 665  : 		{
; 666  : 			op4 = -1;

  0025d	8b 45 18	 mov	 eax, DWORD PTR _op4$[ebp]
  00260	c7 00 ff ff ff
	ff		 mov	 DWORD PTR [eax], -1
$LN14@GetGetFull:

; 667  : 		}
; 668  : 	}
; 669  : 	if( op4 != -1 )	op4 += AT_SET_OPTION_IMPROVE_STRENGTH;

  00266	8b 45 18	 mov	 eax, DWORD PTR _op4$[ebp]
  00269	83 38 ff	 cmp	 DWORD PTR [eax], -1
  0026c	74 10		 je	 SHORT $LN16@GetGetFull
  0026e	8b 45 18	 mov	 eax, DWORD PTR _op4$[ebp]
  00271	8b 08		 mov	 ecx, DWORD PTR [eax]
  00273	81 c1 a0 00 00
	00		 add	 ecx, 160		; 000000a0H
  00279	8b 55 18	 mov	 edx, DWORD PTR _op4$[ebp]
  0027c	89 0a		 mov	 DWORD PTR [edx], ecx
$LN16@GetGetFull:

; 670  : 
; 671  : 	op5 = m_SetItemOptionInfo[optionindex].SetFullOtionTable[4];

  0027e	69 45 08 a8 01
	00 00		 imul	 eax, DWORD PTR _optionindex$[ebp], 424
  00285	8b 4d fc	 mov	 ecx, DWORD PTR _this$[ebp]
  00288	8d 94 01 04 28
	00 00		 lea	 edx, DWORD PTR [ecx+eax+10244]
  0028f	b8 04 00 00 00	 mov	 eax, 4
  00294	c1 e0 02	 shl	 eax, 2
  00297	8b 4d 1c	 mov	 ecx, DWORD PTR _op5$[ebp]
  0029a	8b 94 02 78 01
	00 00		 mov	 edx, DWORD PTR [edx+eax+376]
  002a1	89 11		 mov	 DWORD PTR [ecx], edx

; 672  : 	opvalue5 = m_SetItemOptionInfo[optionindex].SetFullOtionTableValue[4];

  002a3	69 45 08 a8 01
	00 00		 imul	 eax, DWORD PTR _optionindex$[ebp], 424
  002aa	8b 4d fc	 mov	 ecx, DWORD PTR _this$[ebp]
  002ad	8d 94 01 04 28
	00 00		 lea	 edx, DWORD PTR [ecx+eax+10244]
  002b4	b8 04 00 00 00	 mov	 eax, 4
  002b9	c1 e0 02	 shl	 eax, 2
  002bc	8b 4d 30	 mov	 ecx, DWORD PTR _opvalue5$[ebp]
  002bf	8b 94 02 8c 01
	00 00		 mov	 edx, DWORD PTR [edx+eax+396]
  002c6	89 11		 mov	 DWORD PTR [ecx], edx

; 673  : 	if( op5 > AT_SET_OPTION_TWO_HAND_SWORD_IMPROVE_DAMAGE )

  002c8	8b 45 1c	 mov	 eax, DWORD PTR _op5$[ebp]
  002cb	81 38 b7 00 00
	00		 cmp	 DWORD PTR [eax], 183	; 000000b7H
  002d1	7e 0f		 jle	 SHORT $LN17@GetGetFull

; 674  : 	{	// 양손검 장비시 데미지 15% 증가 이후 부터 클래스 적용
; 675  : 		if( !isRequireClass )

  002d3	83 7d f8 00	 cmp	 DWORD PTR _isRequireClass$[ebp], 0
  002d7	75 09		 jne	 SHORT $LN17@GetGetFull

; 676  : 		{
; 677  : 			op5 = -1;

  002d9	8b 45 1c	 mov	 eax, DWORD PTR _op5$[ebp]
  002dc	c7 00 ff ff ff
	ff		 mov	 DWORD PTR [eax], -1
$LN17@GetGetFull:

; 678  : 		}
; 679  : 	}
; 680  : 	if( op5 != -1 )	op5 += AT_SET_OPTION_IMPROVE_STRENGTH;

  002e2	8b 45 1c	 mov	 eax, DWORD PTR _op5$[ebp]
  002e5	83 38 ff	 cmp	 DWORD PTR [eax], -1
  002e8	74 10		 je	 SHORT $LN19@GetGetFull
  002ea	8b 45 1c	 mov	 eax, DWORD PTR _op5$[ebp]
  002ed	8b 08		 mov	 ecx, DWORD PTR [eax]
  002ef	81 c1 a0 00 00
	00		 add	 ecx, 160		; 000000a0H
  002f5	8b 55 1c	 mov	 edx, DWORD PTR _op5$[ebp]
  002f8	89 0a		 mov	 DWORD PTR [edx], ecx
$LN19@GetGetFull:

; 681  : 
; 682  : 	return TRUE;

  002fa	b8 01 00 00 00	 mov	 eax, 1
$LN1@GetGetFull:

; 683  : }

  002ff	5f		 pop	 edi
  00300	5e		 pop	 esi
  00301	5b		 pop	 ebx
  00302	8b e5		 mov	 esp, ebp
  00304	5d		 pop	 ebp
  00305	c2 34 00	 ret	 52			; 00000034H
?GetGetFullSetOption@CSetItemOption@@QAEHHAAH000000000HH@Z ENDP ; CSetItemOption::GetGetFullSetOption
_TEXT	ENDS
; Function compile flags: /Odtp /ZI
; File C:\Mu Online\Mu-GS-Webzen-MC-10093\common\SetItemOption.cpp
;	COMDAT ?GetMaxSetOptionCount@CSetItemOption@@QAEHH@Z
_TEXT	SEGMENT
_this$ = -4						; size = 4
_optionindex$ = 8					; size = 4
?GetMaxSetOptionCount@CSetItemOption@@QAEHH@Z PROC	; CSetItemOption::GetMaxSetOptionCount, COMDAT
; _this$ = ecx

; 593  : {

  00000	55		 push	 ebp
  00001	8b ec		 mov	 ebp, esp
  00003	83 ec 44	 sub	 esp, 68			; 00000044H
  00006	53		 push	 ebx
  00007	56		 push	 esi
  00008	57		 push	 edi
  00009	89 4d fc	 mov	 DWORD PTR _this$[ebp], ecx

; 594  : 	if( optionindex < 0 || optionindex > MAX_SETITEM_OPTION-1 ) 

  0000c	83 7d 08 00	 cmp	 DWORD PTR _optionindex$[ebp], 0
  00010	7c 06		 jl	 SHORT $LN3@GetMaxSetO
  00012	83 7d 08 4f	 cmp	 DWORD PTR _optionindex$[ebp], 79 ; 0000004fH
  00016	7e 17		 jle	 SHORT $LN2@GetMaxSetO
$LN3@GetMaxSetO:

; 595  : 	{
; 596  : 		LogAdd("GetMaxOptionCount Check error: (itemnum:%d)", optionindex);

  00018	8b 45 08	 mov	 eax, DWORD PTR _optionindex$[ebp]
  0001b	50		 push	 eax
  0001c	68 00 00 00 00	 push	 OFFSET ??_C@_0CM@OCFJJDJ@GetMaxOptionCount?5Check?5error?3?5@
  00021	ff 15 00 00 00
	00		 call	 DWORD PTR ?LogAdd@@3P6AXPADZZA ; LogAdd
  00027	83 c4 08	 add	 esp, 8

; 597  : 		return -1;

  0002a	83 c8 ff	 or	 eax, -1
  0002d	eb 2a		 jmp	 SHORT $LN1@GetMaxSetO
$LN2@GetMaxSetO:

; 598  : 	}
; 599  : 
; 600  : 	if( !m_SetItemOptionInfo[optionindex].IsLoad )

  0002f	69 45 08 a8 01
	00 00		 imul	 eax, DWORD PTR _optionindex$[ebp], 424
  00036	8b 4d fc	 mov	 ecx, DWORD PTR _this$[ebp]
  00039	83 bc 01 04 28
	00 00 00	 cmp	 DWORD PTR [ecx+eax+10244], 0
  00041	75 05		 jne	 SHORT $LN4@GetMaxSetO

; 601  : 		return -1;			// 로드된 정보가 없다

  00043	83 c8 ff	 or	 eax, -1
  00046	eb 11		 jmp	 SHORT $LN1@GetMaxSetO
$LN4@GetMaxSetO:

; 602  : 
; 603  : 	return m_SetItemOptionInfo[optionindex].SetOptionCount;

  00048	69 45 08 a8 01
	00 00		 imul	 eax, DWORD PTR _optionindex$[ebp], 424
  0004f	8b 4d fc	 mov	 ecx, DWORD PTR _this$[ebp]
  00052	8b 84 01 08 29
	00 00		 mov	 eax, DWORD PTR [ecx+eax+10504]
$LN1@GetMaxSetO:

; 604  : }

  00059	5f		 pop	 edi
  0005a	5e		 pop	 esi
  0005b	5b		 pop	 ebx
  0005c	8b e5		 mov	 esp, ebp
  0005e	5d		 pop	 ebp
  0005f	c2 04 00	 ret	 4
?GetMaxSetOptionCount@CSetItemOption@@QAEHH@Z ENDP	; CSetItemOption::GetMaxSetOptionCount
_TEXT	ENDS
; Function compile flags: /Odtp /ZI
; File C:\Mu Online\Mu-GS-Webzen-MC-10093\common\SetItemOption.cpp
;	COMDAT ?GetSetOption@CSetItemOption@@QAEHHHAAH000HH@Z
_TEXT	SEGMENT
_isRequireClass$ = -8					; size = 4
_this$ = -4						; size = 4
_optionindex$ = 8					; size = 4
_optablenum$ = 12					; size = 4
_op1$ = 16						; size = 4
_op2$ = 20						; size = 4
_opvalue1$ = 24						; size = 4
_opvalue2$ = 28						; size = 4
_Class$ = 32						; size = 4
_ChangeUp$ = 36						; size = 4
?GetSetOption@CSetItemOption@@QAEHHHAAH000HH@Z PROC	; CSetItemOption::GetSetOption, COMDAT
; _this$ = ecx

; 526  : {

  00000	55		 push	 ebp
  00001	8b ec		 mov	 ebp, esp
  00003	83 ec 48	 sub	 esp, 72			; 00000048H
  00006	53		 push	 ebx
  00007	56		 push	 esi
  00008	57		 push	 edi
  00009	89 4d fc	 mov	 DWORD PTR _this$[ebp], ecx

; 527  : 	opvalue1 = 0;

  0000c	8b 45 18	 mov	 eax, DWORD PTR _opvalue1$[ebp]
  0000f	c7 00 00 00 00
	00		 mov	 DWORD PTR [eax], 0

; 528  : 	opvalue2 = 0;

  00015	8b 45 1c	 mov	 eax, DWORD PTR _opvalue2$[ebp]
  00018	c7 00 00 00 00
	00		 mov	 DWORD PTR [eax], 0

; 529  : 
; 530  : 	if( optionindex < 0 || optionindex > MAX_SETITEM_OPTION-1 ) 

  0001e	83 7d 08 00	 cmp	 DWORD PTR _optionindex$[ebp], 0
  00022	7c 06		 jl	 SHORT $LN3@GetSetOpti
  00024	83 7d 08 4f	 cmp	 DWORD PTR _optionindex$[ebp], 79 ; 0000004fH
  00028	7e 19		 jle	 SHORT $LN2@GetSetOpti
$LN3@GetSetOpti:

; 531  : 	{
; 532  : 		LogAdd("GetSetOption Check error: (itemnum:%d)", optionindex);

  0002a	8b 45 08	 mov	 eax, DWORD PTR _optionindex$[ebp]
  0002d	50		 push	 eax
  0002e	68 00 00 00 00	 push	 OFFSET ??_C@_0CH@DEMKMCF@GetSetOption?5Check?5error?3?5?$CIitem@
  00033	ff 15 00 00 00
	00		 call	 DWORD PTR ?LogAdd@@3P6AXPADZZA ; LogAdd
  00039	83 c4 08	 add	 esp, 8

; 533  : 		return FALSE;

  0003c	33 c0		 xor	 eax, eax
  0003e	e9 eb 01 00 00	 jmp	 $LN1@GetSetOpti
$LN2@GetSetOpti:

; 534  : 	}
; 535  : 
; 536  : 	if( !m_SetItemOptionInfo[optionindex].IsLoad )

  00043	69 45 08 a8 01
	00 00		 imul	 eax, DWORD PTR _optionindex$[ebp], 424
  0004a	8b 4d fc	 mov	 ecx, DWORD PTR _this$[ebp]
  0004d	83 bc 01 04 28
	00 00 00	 cmp	 DWORD PTR [ecx+eax+10244], 0
  00055	75 07		 jne	 SHORT $LN4@GetSetOpti

; 537  : 		return FALSE;			// 로드된 정보가 없다

  00057	33 c0		 xor	 eax, eax
  00059	e9 d0 01 00 00	 jmp	 $LN1@GetSetOpti
$LN4@GetSetOpti:

; 538  : 
; 539  : 	if( optablenum >= m_SetItemOptionInfo[optionindex].SetOptionCount ) 

  0005e	69 45 08 a8 01
	00 00		 imul	 eax, DWORD PTR _optionindex$[ebp], 424
  00065	8b 4d fc	 mov	 ecx, DWORD PTR _this$[ebp]
  00068	8b 55 0c	 mov	 edx, DWORD PTR _optablenum$[ebp]
  0006b	3b 94 01 08 29
	00 00		 cmp	 edx, DWORD PTR [ecx+eax+10504]
  00072	7c 07		 jl	 SHORT $LN5@GetSetOpti

; 540  : 		return FALSE;			// 옵션에 대한 로드된 정보가 없다

  00074	33 c0		 xor	 eax, eax
  00076	e9 b3 01 00 00	 jmp	 $LN1@GetSetOpti
$LN5@GetSetOpti:

; 541  : 
; 542  : 	BOOL isRequireClass = IsRequireClass(optionindex, Class, ChangeUp);			

  0007b	8b 45 24	 mov	 eax, DWORD PTR _ChangeUp$[ebp]
  0007e	50		 push	 eax
  0007f	8b 4d 20	 mov	 ecx, DWORD PTR _Class$[ebp]
  00082	51		 push	 ecx
  00083	8b 55 08	 mov	 edx, DWORD PTR _optionindex$[ebp]
  00086	52		 push	 edx
  00087	8b 4d fc	 mov	 ecx, DWORD PTR _this$[ebp]
  0008a	e8 00 00 00 00	 call	 ?IsRequireClass@CSetItemOption@@QAEHHHH@Z ; CSetItemOption::IsRequireClass
  0008f	89 45 f8	 mov	 DWORD PTR _isRequireClass$[ebp], eax

; 543  : 
; 544  : 	if( optablenum < 6 )

  00092	83 7d 0c 06	 cmp	 DWORD PTR _optablenum$[ebp], 6
  00096	0f 8d 12 01 00
	00		 jge	 $LN6@GetSetOpti

; 545  : 	{
; 546  : 		op1 = m_SetItemOptionInfo[optionindex].SetOptionTable[optablenum][0];	

  0009c	69 45 08 a8 01
	00 00		 imul	 eax, DWORD PTR _optionindex$[ebp], 424
  000a3	8b 4d fc	 mov	 ecx, DWORD PTR _this$[ebp]
  000a6	8d 94 01 04 28
	00 00		 lea	 edx, DWORD PTR [ecx+eax+10244]
  000ad	8b 45 0c	 mov	 eax, DWORD PTR _optablenum$[ebp]
  000b0	8d 8c c2 08 01
	00 00		 lea	 ecx, DWORD PTR [edx+eax*8+264]
  000b7	ba 04 00 00 00	 mov	 edx, 4
  000bc	6b c2 00	 imul	 eax, edx, 0
  000bf	8b 55 10	 mov	 edx, DWORD PTR _op1$[ebp]
  000c2	8b 04 01	 mov	 eax, DWORD PTR [ecx+eax]
  000c5	89 02		 mov	 DWORD PTR [edx], eax

; 547  : 		opvalue1 = m_SetItemOptionInfo[optionindex].SetOptionTableValue[optablenum][0];	

  000c7	69 45 08 a8 01
	00 00		 imul	 eax, DWORD PTR _optionindex$[ebp], 424
  000ce	8b 4d fc	 mov	 ecx, DWORD PTR _this$[ebp]
  000d1	8d 94 01 04 28
	00 00		 lea	 edx, DWORD PTR [ecx+eax+10244]
  000d8	8b 45 0c	 mov	 eax, DWORD PTR _optablenum$[ebp]
  000db	8d 8c c2 38 01
	00 00		 lea	 ecx, DWORD PTR [edx+eax*8+312]
  000e2	ba 04 00 00 00	 mov	 edx, 4
  000e7	6b c2 00	 imul	 eax, edx, 0
  000ea	8b 55 18	 mov	 edx, DWORD PTR _opvalue1$[ebp]
  000ed	8b 04 01	 mov	 eax, DWORD PTR [ecx+eax]
  000f0	89 02		 mov	 DWORD PTR [edx], eax

; 548  : 
; 549  : 		if( op1 > AT_SET_OPTION_TWO_HAND_SWORD_IMPROVE_DAMAGE )

  000f2	8b 45 10	 mov	 eax, DWORD PTR _op1$[ebp]
  000f5	81 38 b7 00 00
	00		 cmp	 DWORD PTR [eax], 183	; 000000b7H
  000fb	7e 0f		 jle	 SHORT $LN8@GetSetOpti

; 550  : 		{	// 양손검 장비시 데미지 15% 증가 이후 부터 클래스 적용
; 551  : 			if( !isRequireClass )

  000fd	83 7d f8 00	 cmp	 DWORD PTR _isRequireClass$[ebp], 0
  00101	75 09		 jne	 SHORT $LN8@GetSetOpti

; 552  : 			{
; 553  : 				op1 = -1;

  00103	8b 45 10	 mov	 eax, DWORD PTR _op1$[ebp]
  00106	c7 00 ff ff ff
	ff		 mov	 DWORD PTR [eax], -1
$LN8@GetSetOpti:

; 554  : 			}
; 555  : 		}
; 556  : 
; 557  : 		if( op1 != -1 )	

  0010c	8b 45 10	 mov	 eax, DWORD PTR _op1$[ebp]
  0010f	83 38 ff	 cmp	 DWORD PTR [eax], -1
  00112	74 10		 je	 SHORT $LN10@GetSetOpti

; 558  : 			op1 += AT_SET_OPTION_IMPROVE_STRENGTH;

  00114	8b 45 10	 mov	 eax, DWORD PTR _op1$[ebp]
  00117	8b 08		 mov	 ecx, DWORD PTR [eax]
  00119	81 c1 a0 00 00
	00		 add	 ecx, 160		; 000000a0H
  0011f	8b 55 10	 mov	 edx, DWORD PTR _op1$[ebp]
  00122	89 0a		 mov	 DWORD PTR [edx], ecx
$LN10@GetSetOpti:

; 559  : 
; 560  : 		op2 = m_SetItemOptionInfo[optionindex].SetOptionTable[optablenum][1];

  00124	69 45 08 a8 01
	00 00		 imul	 eax, DWORD PTR _optionindex$[ebp], 424
  0012b	8b 4d fc	 mov	 ecx, DWORD PTR _this$[ebp]
  0012e	8d 94 01 04 28
	00 00		 lea	 edx, DWORD PTR [ecx+eax+10244]
  00135	8b 45 0c	 mov	 eax, DWORD PTR _optablenum$[ebp]
  00138	8d 8c c2 08 01
	00 00		 lea	 ecx, DWORD PTR [edx+eax*8+264]
  0013f	ba 04 00 00 00	 mov	 edx, 4
  00144	c1 e2 00	 shl	 edx, 0
  00147	8b 45 14	 mov	 eax, DWORD PTR _op2$[ebp]
  0014a	8b 0c 11	 mov	 ecx, DWORD PTR [ecx+edx]
  0014d	89 08		 mov	 DWORD PTR [eax], ecx

; 561  : 		opvalue2 = m_SetItemOptionInfo[optionindex].SetOptionTableValue[optablenum][1];	

  0014f	69 45 08 a8 01
	00 00		 imul	 eax, DWORD PTR _optionindex$[ebp], 424
  00156	8b 4d fc	 mov	 ecx, DWORD PTR _this$[ebp]
  00159	8d 94 01 04 28
	00 00		 lea	 edx, DWORD PTR [ecx+eax+10244]
  00160	8b 45 0c	 mov	 eax, DWORD PTR _optablenum$[ebp]
  00163	8d 8c c2 38 01
	00 00		 lea	 ecx, DWORD PTR [edx+eax*8+312]
  0016a	ba 04 00 00 00	 mov	 edx, 4
  0016f	c1 e2 00	 shl	 edx, 0
  00172	8b 45 1c	 mov	 eax, DWORD PTR _opvalue2$[ebp]
  00175	8b 0c 11	 mov	 ecx, DWORD PTR [ecx+edx]
  00178	89 08		 mov	 DWORD PTR [eax], ecx

; 562  : 
; 563  : 		if( op2 > AT_SET_OPTION_TWO_HAND_SWORD_IMPROVE_DAMAGE )

  0017a	8b 45 14	 mov	 eax, DWORD PTR _op2$[ebp]
  0017d	81 38 b7 00 00
	00		 cmp	 DWORD PTR [eax], 183	; 000000b7H
  00183	7e 0f		 jle	 SHORT $LN11@GetSetOpti

; 564  : 		{	// 양손검 장비시 데미지 15% 증가 이후 부터 클래스 적용
; 565  : 			if( !isRequireClass )

  00185	83 7d f8 00	 cmp	 DWORD PTR _isRequireClass$[ebp], 0
  00189	75 09		 jne	 SHORT $LN11@GetSetOpti

; 566  : 			{
; 567  : 				op2 = -1;

  0018b	8b 45 14	 mov	 eax, DWORD PTR _op2$[ebp]
  0018e	c7 00 ff ff ff
	ff		 mov	 DWORD PTR [eax], -1
$LN11@GetSetOpti:

; 568  : 			}
; 569  : 		}
; 570  : 
; 571  : 		if( op2 != -1 )	op2 += AT_SET_OPTION_IMPROVE_STRENGTH;

  00194	8b 45 14	 mov	 eax, DWORD PTR _op2$[ebp]
  00197	83 38 ff	 cmp	 DWORD PTR [eax], -1
  0019a	74 10		 je	 SHORT $LN13@GetSetOpti
  0019c	8b 45 14	 mov	 eax, DWORD PTR _op2$[ebp]
  0019f	8b 08		 mov	 ecx, DWORD PTR [eax]
  001a1	81 c1 a0 00 00
	00		 add	 ecx, 160		; 000000a0H
  001a7	8b 55 14	 mov	 edx, DWORD PTR _op2$[ebp]
  001aa	89 0a		 mov	 DWORD PTR [edx], ecx
$LN13@GetSetOpti:

; 572  : 	}

  001ac	eb 7b		 jmp	 SHORT $LN7@GetSetOpti
$LN6@GetSetOpti:

; 573  : 	else
; 574  : 	{
; 575  : 		op1 = m_SetItemOptionInfo[optionindex].SetExPOptionTable[optablenum-6];

  001ae	69 45 08 a8 01
	00 00		 imul	 eax, DWORD PTR _optionindex$[ebp], 424
  001b5	8b 4d fc	 mov	 ecx, DWORD PTR _this$[ebp]
  001b8	8d 94 01 04 28
	00 00		 lea	 edx, DWORD PTR [ecx+eax+10244]
  001bf	8b 45 10	 mov	 eax, DWORD PTR _op1$[ebp]
  001c2	8b 4d 0c	 mov	 ecx, DWORD PTR _optablenum$[ebp]
  001c5	8b 94 8a 50 01
	00 00		 mov	 edx, DWORD PTR [edx+ecx*4+336]
  001cc	89 10		 mov	 DWORD PTR [eax], edx

; 576  : 		opvalue1 = m_SetItemOptionInfo[optionindex].SetExPOptionTableValue[optablenum-6];

  001ce	69 45 08 a8 01
	00 00		 imul	 eax, DWORD PTR _optionindex$[ebp], 424
  001d5	8b 4d fc	 mov	 ecx, DWORD PTR _this$[ebp]
  001d8	8d 94 01 04 28
	00 00		 lea	 edx, DWORD PTR [ecx+eax+10244]
  001df	8b 45 18	 mov	 eax, DWORD PTR _opvalue1$[ebp]
  001e2	8b 4d 0c	 mov	 ecx, DWORD PTR _optablenum$[ebp]
  001e5	8b 94 8a 58 01
	00 00		 mov	 edx, DWORD PTR [edx+ecx*4+344]
  001ec	89 10		 mov	 DWORD PTR [eax], edx

; 577  : 
; 578  : 		if( op1 > AT_SET_OPTION_TWO_HAND_SWORD_IMPROVE_DAMAGE )

  001ee	8b 45 10	 mov	 eax, DWORD PTR _op1$[ebp]
  001f1	81 38 b7 00 00
	00		 cmp	 DWORD PTR [eax], 183	; 000000b7H
  001f7	7e 0f		 jle	 SHORT $LN14@GetSetOpti

; 579  : 		{	// 양손검 장비시 데미지 15% 증가 이후 부터 클래스 적용
; 580  : 			if( !isRequireClass )

  001f9	83 7d f8 00	 cmp	 DWORD PTR _isRequireClass$[ebp], 0
  001fd	75 09		 jne	 SHORT $LN14@GetSetOpti

; 581  : 			{
; 582  : 				op1 = -1;

  001ff	8b 45 10	 mov	 eax, DWORD PTR _op1$[ebp]
  00202	c7 00 ff ff ff
	ff		 mov	 DWORD PTR [eax], -1
$LN14@GetSetOpti:

; 583  : 			}
; 584  : 		}
; 585  : 
; 586  : 		if( op1 != -1 )	op1 += AT_SET_OPTION_IMPROVE_STRENGTH;

  00208	8b 45 10	 mov	 eax, DWORD PTR _op1$[ebp]
  0020b	83 38 ff	 cmp	 DWORD PTR [eax], -1
  0020e	74 10		 je	 SHORT $LN16@GetSetOpti
  00210	8b 45 10	 mov	 eax, DWORD PTR _op1$[ebp]
  00213	8b 08		 mov	 ecx, DWORD PTR [eax]
  00215	81 c1 a0 00 00
	00		 add	 ecx, 160		; 000000a0H
  0021b	8b 55 10	 mov	 edx, DWORD PTR _op1$[ebp]
  0021e	89 0a		 mov	 DWORD PTR [edx], ecx
$LN16@GetSetOpti:

; 587  : 		op2 = -1;

  00220	8b 45 14	 mov	 eax, DWORD PTR _op2$[ebp]
  00223	c7 00 ff ff ff
	ff		 mov	 DWORD PTR [eax], -1
$LN7@GetSetOpti:

; 588  : 	}
; 589  : 	return TRUE;

  00229	b8 01 00 00 00	 mov	 eax, 1
$LN1@GetSetOpti:

; 590  : }

  0022e	5f		 pop	 edi
  0022f	5e		 pop	 esi
  00230	5b		 pop	 ebx
  00231	8b e5		 mov	 esp, ebp
  00233	5d		 pop	 ebp
  00234	c2 20 00	 ret	 32			; 00000020H
?GetSetOption@CSetItemOption@@QAEHHHAAH000HH@Z ENDP	; CSetItemOption::GetSetOption
_TEXT	ENDS
; Function compile flags: /Odtp /ZI
; File C:\Mu Online\Mu-GS-Webzen-MC-10093\common\SetItemOption.cpp
;	COMDAT ?GetSetOptionName@CSetItemOption@@QAEPADHH@Z
_TEXT	SEGMENT
_optionindex$ = -8					; size = 4
_this$ = -4						; size = 4
_itemnum$ = 8						; size = 4
_settype$ = 12						; size = 4
?GetSetOptionName@CSetItemOption@@QAEPADHH@Z PROC	; CSetItemOption::GetSetOptionName, COMDAT
; _this$ = ecx

; 499  : {

  00000	55		 push	 ebp
  00001	8b ec		 mov	 ebp, esp
  00003	83 ec 48	 sub	 esp, 72			; 00000048H
  00006	53		 push	 ebx
  00007	56		 push	 esi
  00008	57		 push	 edi
  00009	89 4d fc	 mov	 DWORD PTR _this$[ebp], ecx

; 500  : 	if( itemnum < 0 || itemnum > MAX_ITEM-1 ) 

  0000c	83 7d 08 00	 cmp	 DWORD PTR _itemnum$[ebp], 0
  00010	7c 09		 jl	 SHORT $LN3@GetSetOpti
  00012	81 7d 08 ff 01
	00 00		 cmp	 DWORD PTR _itemnum$[ebp], 511 ; 000001ffH
  00019	7e 19		 jle	 SHORT $LN2@GetSetOpti
$LN3@GetSetOpti:

; 501  : 	{
; 502  : 		LogAdd("GetSetOptionName Check error: (itemnum:%d)", itemnum);

  0001b	8b 45 08	 mov	 eax, DWORD PTR _itemnum$[ebp]
  0001e	50		 push	 eax
  0001f	68 00 00 00 00	 push	 OFFSET ??_C@_0CL@LOANDNBH@GetSetOptionName?5Check?5error?3?5?$CI@
  00024	ff 15 00 00 00
	00		 call	 DWORD PTR ?LogAdd@@3P6AXPADZZA ; LogAdd
  0002a	83 c4 08	 add	 esp, 8

; 503  : 		return "";

  0002d	b8 00 00 00 00	 mov	 eax, OFFSET ??_C@_00CNPNBAHC@@
  00032	eb 7a		 jmp	 SHORT $LN1@GetSetOpti
$LN2@GetSetOpti:

; 504  : 	}
; 505  : 	
; 506  : 	if( !m_SetItemTypeInfo[itemnum].IsLoad )

  00034	6b 45 08 14	 imul	 eax, DWORD PTR _itemnum$[ebp], 20
  00038	8b 4d fc	 mov	 ecx, DWORD PTR _this$[ebp]
  0003b	83 7c 01 04 00	 cmp	 DWORD PTR [ecx+eax+4], 0
  00040	75 07		 jne	 SHORT $LN4@GetSetOpti

; 507  : 	{	// 정보가 없다
; 508  : 		return "";

  00042	b8 00 00 00 00	 mov	 eax, OFFSET ??_C@_00CNPNBAHC@@
  00047	eb 65		 jmp	 SHORT $LN1@GetSetOpti
$LN4@GetSetOpti:

; 509  : 	}
; 510  : 
; 511  : 	int optionindex = m_SetItemTypeInfo[itemnum].OptionIndex[settype-1];

  00049	6b 45 08 14	 imul	 eax, DWORD PTR _itemnum$[ebp], 20
  0004d	8b 4d fc	 mov	 ecx, DWORD PTR _this$[ebp]
  00050	8d 54 01 04	 lea	 edx, DWORD PTR [ecx+eax+4]
  00054	8b 45 0c	 mov	 eax, DWORD PTR _settype$[ebp]
  00057	8b 0c 82	 mov	 ecx, DWORD PTR [edx+eax*4]
  0005a	89 4d f8	 mov	 DWORD PTR _optionindex$[ebp], ecx

; 512  : 
; 513  : 	if( optionindex < 0 || optionindex > MAX_SETITEM_OPTION-1 ) 

  0005d	83 7d f8 00	 cmp	 DWORD PTR _optionindex$[ebp], 0
  00061	7c 06		 jl	 SHORT $LN6@GetSetOpti
  00063	83 7d f8 4f	 cmp	 DWORD PTR _optionindex$[ebp], 79 ; 0000004fH
  00067	7e 19		 jle	 SHORT $LN5@GetSetOpti
$LN6@GetSetOpti:

; 514  : 	{
; 515  : 		LogAdd("GetSetOptionName Check error: (itemnum:%d)", optionindex);

  00069	8b 45 f8	 mov	 eax, DWORD PTR _optionindex$[ebp]
  0006c	50		 push	 eax
  0006d	68 00 00 00 00	 push	 OFFSET ??_C@_0CL@LOANDNBH@GetSetOptionName?5Check?5error?3?5?$CI@
  00072	ff 15 00 00 00
	00		 call	 DWORD PTR ?LogAdd@@3P6AXPADZZA ; LogAdd
  00078	83 c4 08	 add	 esp, 8

; 516  : 		return "";

  0007b	b8 00 00 00 00	 mov	 eax, OFFSET ??_C@_00CNPNBAHC@@
  00080	eb 2c		 jmp	 SHORT $LN1@GetSetOpti
$LN5@GetSetOpti:

; 517  : 	}
; 518  : 
; 519  : 	if( !m_SetItemOptionInfo[optionindex].IsLoad )

  00082	69 45 f8 a8 01
	00 00		 imul	 eax, DWORD PTR _optionindex$[ebp], 424
  00089	8b 4d fc	 mov	 ecx, DWORD PTR _this$[ebp]
  0008c	83 bc 01 04 28
	00 00 00	 cmp	 DWORD PTR [ecx+eax+10244], 0
  00094	75 07		 jne	 SHORT $LN7@GetSetOpti

; 520  : 		return "";			// 로드된 정보가 없다

  00096	b8 00 00 00 00	 mov	 eax, OFFSET ??_C@_00CNPNBAHC@@
  0009b	eb 11		 jmp	 SHORT $LN1@GetSetOpti
$LN7@GetSetOpti:

; 521  : 
; 522  : 	return m_SetItemOptionInfo[optionindex].Name;

  0009d	69 45 f8 a8 01
	00 00		 imul	 eax, DWORD PTR _optionindex$[ebp], 424
  000a4	8b 4d fc	 mov	 ecx, DWORD PTR _this$[ebp]
  000a7	8d 84 01 08 28
	00 00		 lea	 eax, DWORD PTR [ecx+eax+10248]
$LN1@GetSetOpti:

; 523  : }

  000ae	5f		 pop	 edi
  000af	5e		 pop	 esi
  000b0	5b		 pop	 ebx
  000b1	8b e5		 mov	 esp, ebp
  000b3	5d		 pop	 ebp
  000b4	c2 08 00	 ret	 8
?GetSetOptionName@CSetItemOption@@QAEPADHH@Z ENDP	; CSetItemOption::GetSetOptionName
_TEXT	ENDS
; Function compile flags: /Odtp /ZI
; File C:\Mu Online\Mu-GS-Webzen-MC-10093\common\SetItemOption.cpp
;	COMDAT ?GetSetOptionName@CSetItemOption@@QAEPADH@Z
_TEXT	SEGMENT
_this$ = -4						; size = 4
_optionindex$ = 8					; size = 4
?GetSetOptionName@CSetItemOption@@QAEPADH@Z PROC	; CSetItemOption::GetSetOptionName, COMDAT
; _this$ = ecx

; 484  : {

  00000	55		 push	 ebp
  00001	8b ec		 mov	 ebp, esp
  00003	83 ec 44	 sub	 esp, 68			; 00000044H
  00006	53		 push	 ebx
  00007	56		 push	 esi
  00008	57		 push	 edi
  00009	89 4d fc	 mov	 DWORD PTR _this$[ebp], ecx

; 485  : 	if( optionindex < 0 || optionindex > MAX_SETITEM_OPTION-1 ) 

  0000c	83 7d 08 00	 cmp	 DWORD PTR _optionindex$[ebp], 0
  00010	7c 06		 jl	 SHORT $LN3@GetSetOpti
  00012	83 7d 08 4f	 cmp	 DWORD PTR _optionindex$[ebp], 79 ; 0000004fH
  00016	7e 19		 jle	 SHORT $LN2@GetSetOpti
$LN3@GetSetOpti:

; 486  : 	{
; 487  : 		LogAdd("GetSetOptionName Check error: (itemnum:%d)", optionindex);

  00018	8b 45 08	 mov	 eax, DWORD PTR _optionindex$[ebp]
  0001b	50		 push	 eax
  0001c	68 00 00 00 00	 push	 OFFSET ??_C@_0CL@LOANDNBH@GetSetOptionName?5Check?5error?3?5?$CI@
  00021	ff 15 00 00 00
	00		 call	 DWORD PTR ?LogAdd@@3P6AXPADZZA ; LogAdd
  00027	83 c4 08	 add	 esp, 8

; 488  : 		return "";

  0002a	b8 00 00 00 00	 mov	 eax, OFFSET ??_C@_00CNPNBAHC@@
  0002f	eb 2c		 jmp	 SHORT $LN1@GetSetOpti
$LN2@GetSetOpti:

; 489  : 	}
; 490  : 
; 491  : 	if( !m_SetItemOptionInfo[optionindex].IsLoad )

  00031	69 45 08 a8 01
	00 00		 imul	 eax, DWORD PTR _optionindex$[ebp], 424
  00038	8b 4d fc	 mov	 ecx, DWORD PTR _this$[ebp]
  0003b	83 bc 01 04 28
	00 00 00	 cmp	 DWORD PTR [ecx+eax+10244], 0
  00043	75 07		 jne	 SHORT $LN4@GetSetOpti

; 492  : 		return "";			// 로드된 정보가 없다

  00045	b8 00 00 00 00	 mov	 eax, OFFSET ??_C@_00CNPNBAHC@@
  0004a	eb 11		 jmp	 SHORT $LN1@GetSetOpti
$LN4@GetSetOpti:

; 493  : 
; 494  : 	return m_SetItemOptionInfo[optionindex].Name;

  0004c	69 45 08 a8 01
	00 00		 imul	 eax, DWORD PTR _optionindex$[ebp], 424
  00053	8b 4d fc	 mov	 ecx, DWORD PTR _this$[ebp]
  00056	8d 84 01 08 28
	00 00		 lea	 eax, DWORD PTR [ecx+eax+10248]
$LN1@GetSetOpti:

; 495  : }

  0005d	5f		 pop	 edi
  0005e	5e		 pop	 esi
  0005f	5b		 pop	 ebx
  00060	8b e5		 mov	 esp, ebp
  00062	5d		 pop	 ebp
  00063	c2 04 00	 ret	 4
?GetSetOptionName@CSetItemOption@@QAEPADH@Z ENDP	; CSetItemOption::GetSetOptionName
_TEXT	ENDS
; Function compile flags: /Odtp /ZI
; File C:\Mu Online\Mu-GS-Webzen-MC-10093\common\SetItemOption.cpp
;	COMDAT ?GetOptionTableIndex@CSetItemOption@@QAEHHH@Z
_TEXT	SEGMENT
_this$ = -4						; size = 4
_itemnum$ = 8						; size = 4
_setoption$ = 12					; size = 4
?GetOptionTableIndex@CSetItemOption@@QAEHHH@Z PROC	; CSetItemOption::GetOptionTableIndex, COMDAT
; _this$ = ecx

; 464  : {

  00000	55		 push	 ebp
  00001	8b ec		 mov	 ebp, esp
  00003	83 ec 44	 sub	 esp, 68			; 00000044H
  00006	53		 push	 ebx
  00007	56		 push	 esi
  00008	57		 push	 edi
  00009	89 4d fc	 mov	 DWORD PTR _this$[ebp], ecx

; 465  : 	if( itemnum < 0 || itemnum > MAX_ITEM-1 ) 

  0000c	83 7d 08 00	 cmp	 DWORD PTR _itemnum$[ebp], 0
  00010	7c 09		 jl	 SHORT $LN3@GetOptionT
  00012	81 7d 08 ff 01
	00 00		 cmp	 DWORD PTR _itemnum$[ebp], 511 ; 000001ffH
  00019	7e 17		 jle	 SHORT $LN2@GetOptionT
$LN3@GetOptionT:

; 466  : 	{
; 467  : 		LogAdd("GetOptionTableIndex Check error: (itemnum:%d)", itemnum);

  0001b	8b 45 08	 mov	 eax, DWORD PTR _itemnum$[ebp]
  0001e	50		 push	 eax
  0001f	68 00 00 00 00	 push	 OFFSET ??_C@_0CO@JHBADDNF@GetOptionTableIndex?5Check?5error@
  00024	ff 15 00 00 00
	00		 call	 DWORD PTR ?LogAdd@@3P6AXPADZZA ; LogAdd
  0002a	83 c4 08	 add	 esp, 8

; 468  : 		return -1;

  0002d	83 c8 ff	 or	 eax, -1
  00030	eb 47		 jmp	 SHORT $LN1@GetOptionT
$LN2@GetOptionT:

; 469  : 	}
; 470  : 
; 471  : 	if( setoption != 1 &&  setoption != 2 ) 

  00032	83 7d 0c 01	 cmp	 DWORD PTR _setoption$[ebp], 1
  00036	74 1d		 je	 SHORT $LN4@GetOptionT
  00038	83 7d 0c 02	 cmp	 DWORD PTR _setoption$[ebp], 2
  0003c	74 17		 je	 SHORT $LN4@GetOptionT

; 472  : 	{	// 해당 옵션값이 아니다
; 473  : 		LogAdd("GetOptionTableIndex setoption Check error: (itemnum:%d)", itemnum);

  0003e	8b 45 08	 mov	 eax, DWORD PTR _itemnum$[ebp]
  00041	50		 push	 eax
  00042	68 00 00 00 00	 push	 OFFSET ??_C@_0DI@POCMEGLP@GetOptionTableIndex?5setoption?5C@
  00047	ff 15 00 00 00
	00		 call	 DWORD PTR ?LogAdd@@3P6AXPADZZA ; LogAdd
  0004d	83 c4 08	 add	 esp, 8

; 474  : 		return -1;

  00050	83 c8 ff	 or	 eax, -1
  00053	eb 24		 jmp	 SHORT $LN1@GetOptionT
$LN4@GetOptionT:

; 475  : 	}
; 476  : 
; 477  : 	if( !m_SetItemTypeInfo[itemnum].IsLoad )

  00055	6b 45 08 14	 imul	 eax, DWORD PTR _itemnum$[ebp], 20
  00059	8b 4d fc	 mov	 ecx, DWORD PTR _this$[ebp]
  0005c	83 7c 01 04 00	 cmp	 DWORD PTR [ecx+eax+4], 0
  00061	75 05		 jne	 SHORT $LN5@GetOptionT

; 478  : 		return -1;			// 로드된 정보가 없다

  00063	83 c8 ff	 or	 eax, -1
  00066	eb 11		 jmp	 SHORT $LN1@GetOptionT
$LN5@GetOptionT:

; 479  : 	
; 480  : 	return m_SetItemTypeInfo[itemnum].OptionIndex[setoption-1];

  00068	6b 45 08 14	 imul	 eax, DWORD PTR _itemnum$[ebp], 20
  0006c	8b 4d fc	 mov	 ecx, DWORD PTR _this$[ebp]
  0006f	8d 54 01 04	 lea	 edx, DWORD PTR [ecx+eax+4]
  00073	8b 45 0c	 mov	 eax, DWORD PTR _setoption$[ebp]
  00076	8b 04 82	 mov	 eax, DWORD PTR [edx+eax*4]
$LN1@GetOptionT:

; 481  : }

  00079	5f		 pop	 edi
  0007a	5e		 pop	 esi
  0007b	5b		 pop	 ebx
  0007c	8b e5		 mov	 esp, ebp
  0007e	5d		 pop	 ebp
  0007f	c2 08 00	 ret	 8
?GetOptionTableIndex@CSetItemOption@@QAEHHH@Z ENDP	; CSetItemOption::GetOptionTableIndex
_TEXT	ENDS
; Function compile flags: /Odtp /ZI
; File C:\Mu Online\Mu-GS-Webzen-MC-10093\common\SetItemOption.cpp
;	COMDAT ?IsSetItem@CSetItemOption@@QAEHH@Z
_TEXT	SEGMENT
_this$ = -4						; size = 4
_itemnum$ = 8						; size = 4
?IsSetItem@CSetItemOption@@QAEHH@Z PROC			; CSetItemOption::IsSetItem, COMDAT
; _this$ = ecx

; 453  : {

  00000	55		 push	 ebp
  00001	8b ec		 mov	 ebp, esp
  00003	83 ec 44	 sub	 esp, 68			; 00000044H
  00006	53		 push	 ebx
  00007	56		 push	 esi
  00008	57		 push	 edi
  00009	89 4d fc	 mov	 DWORD PTR _this$[ebp], ecx

; 454  : 	if( itemnum < 0 || itemnum > MAX_ITEM-1 ) 

  0000c	83 7d 08 00	 cmp	 DWORD PTR _itemnum$[ebp], 0
  00010	7c 09		 jl	 SHORT $LN3@IsSetItem
  00012	81 7d 08 ff 01
	00 00		 cmp	 DWORD PTR _itemnum$[ebp], 511 ; 000001ffH
  00019	7e 16		 jle	 SHORT $LN2@IsSetItem
$LN3@IsSetItem:

; 455  : 	{
; 456  : 		LogAdd("IsSetItem Check error: (itemnum:%d)", itemnum);

  0001b	8b 45 08	 mov	 eax, DWORD PTR _itemnum$[ebp]
  0001e	50		 push	 eax
  0001f	68 00 00 00 00	 push	 OFFSET ??_C@_0CE@FIOMFOEB@IsSetItem?5Check?5error?3?5?$CIitemnum@
  00024	ff 15 00 00 00
	00		 call	 DWORD PTR ?LogAdd@@3P6AXPADZZA ; LogAdd
  0002a	83 c4 08	 add	 esp, 8

; 457  : 		return FALSE;

  0002d	33 c0		 xor	 eax, eax
  0002f	eb 0b		 jmp	 SHORT $LN1@IsSetItem
$LN2@IsSetItem:

; 458  : 	}
; 459  : 	
; 460  : 	return m_SetItemTypeInfo[itemnum].IsLoad;

  00031	6b 45 08 14	 imul	 eax, DWORD PTR _itemnum$[ebp], 20
  00035	8b 4d fc	 mov	 ecx, DWORD PTR _this$[ebp]
  00038	8b 44 01 04	 mov	 eax, DWORD PTR [ecx+eax+4]
$LN1@IsSetItem:

; 461  : }

  0003c	5f		 pop	 edi
  0003d	5e		 pop	 esi
  0003e	5b		 pop	 ebx
  0003f	8b e5		 mov	 esp, ebp
  00041	5d		 pop	 ebp
  00042	c2 04 00	 ret	 4
?IsSetItem@CSetItemOption@@QAEHH@Z ENDP			; CSetItemOption::IsSetItem
_TEXT	ENDS
; Function compile flags: /Odtp /ZI
; File C:\Mu Online\Mu-GS-Webzen-MC-10093\common\SetItemOption.cpp
;	COMDAT ?LoadOptionInfo@CSetItemOption@@QAEHPAD@Z
_TEXT	SEGMENT
_i$1 = -24						; size = 4
_p$2 = -20						; size = 4
_Index$3 = -16						; size = 4
_Token$ = -12						; size = 4
_i$4 = -8						; size = 4
_this$ = -4						; size = 4
_filename$ = 8						; size = 4
?LoadOptionInfo@CSetItemOption@@QAEHPAD@Z PROC		; CSetItemOption::LoadOptionInfo, COMDAT
; _this$ = ecx

; 120  : {

  00000	55		 push	 ebp
  00001	8b ec		 mov	 ebp, esp
  00003	83 ec 58	 sub	 esp, 88			; 00000058H
  00006	53		 push	 ebx
  00007	56		 push	 esi
  00008	57		 push	 edi
  00009	89 4d fc	 mov	 DWORD PTR _this$[ebp], ecx

; 121  : 	if((SMDFile=fopen(filename,"r")) == NULL)	

  0000c	68 00 00 00 00	 push	 OFFSET ??_C@_01KDCPPGHE@r@
  00011	8b 45 08	 mov	 eax, DWORD PTR _filename$[ebp]
  00014	50		 push	 eax
  00015	e8 00 00 00 00	 call	 _fopen
  0001a	83 c4 08	 add	 esp, 8
  0001d	a3 00 00 00 00	 mov	 DWORD PTR ?SMDFile@@3PAU_iobuf@@A, eax
  00022	83 3d 00 00 00
	00 00		 cmp	 DWORD PTR ?SMDFile@@3PAU_iobuf@@A, 0
  00029	75 07		 jne	 SHORT $LN10@LoadOption

; 122  : 		return FALSE;

  0002b	33 c0		 xor	 eax, eax
  0002d	e9 01 05 00 00	 jmp	 $LN1@LoadOption
$LN10@LoadOption:

; 123  : 
; 124  : 	memset(&m_SetItemOptionInfo, 0, sizeof(m_SetItemOptionInfo));

  00032	68 80 84 00 00	 push	 33920			; 00008480H
  00037	6a 00		 push	 0
  00039	8b 45 fc	 mov	 eax, DWORD PTR _this$[ebp]
  0003c	05 04 28 00 00	 add	 eax, 10244		; 00002804H
  00041	50		 push	 eax
  00042	e8 00 00 00 00	 call	 _memset
  00047	83 c4 0c	 add	 esp, 12			; 0000000cH

; 125  : 
; 126  : 	for( int i = 0; i < MAX_SETITEM_OPTION; i++ )

  0004a	c7 45 f8 00 00
	00 00		 mov	 DWORD PTR _i$4[ebp], 0
  00051	eb 09		 jmp	 SHORT $LN4@LoadOption
$LN2@LoadOption:
  00053	8b 45 f8	 mov	 eax, DWORD PTR _i$4[ebp]
  00056	83 c0 01	 add	 eax, 1
  00059	89 45 f8	 mov	 DWORD PTR _i$4[ebp], eax
$LN4@LoadOption:
  0005c	83 7d f8 50	 cmp	 DWORD PTR _i$4[ebp], 80	; 00000050H
  00060	7d 5c		 jge	 SHORT $LN3@LoadOption

; 127  : 	{
; 128  : 		memset(m_SetItemOptionInfo[i].SetOptionTable, -1, sizeof(m_SetItemOptionInfo[i].SetOptionTable));

  00062	6a 30		 push	 48			; 00000030H
  00064	6a ff		 push	 -1
  00066	69 45 f8 a8 01
	00 00		 imul	 eax, DWORD PTR _i$4[ebp], 424
  0006d	8b 4d fc	 mov	 ecx, DWORD PTR _this$[ebp]
  00070	8d 94 01 0c 29
	00 00		 lea	 edx, DWORD PTR [ecx+eax+10508]
  00077	52		 push	 edx
  00078	e8 00 00 00 00	 call	 _memset
  0007d	83 c4 0c	 add	 esp, 12			; 0000000cH

; 129  : 		memset(m_SetItemOptionInfo[i].SetExPOptionTable, -1, sizeof(m_SetItemOptionInfo[i].SetExPOptionTable));

  00080	6a 08		 push	 8
  00082	6a ff		 push	 -1
  00084	69 45 f8 a8 01
	00 00		 imul	 eax, DWORD PTR _i$4[ebp], 424
  0008b	8b 4d fc	 mov	 ecx, DWORD PTR _this$[ebp]
  0008e	8d 94 01 6c 29
	00 00		 lea	 edx, DWORD PTR [ecx+eax+10604]
  00095	52		 push	 edx
  00096	e8 00 00 00 00	 call	 _memset
  0009b	83 c4 0c	 add	 esp, 12			; 0000000cH

; 130  : 		memset(m_SetItemOptionInfo[i].SetFullOtionTable, -1, sizeof(m_SetItemOptionInfo[i].SetFullOtionTable));		

  0009e	6a 14		 push	 20			; 00000014H
  000a0	6a ff		 push	 -1
  000a2	69 45 f8 a8 01
	00 00		 imul	 eax, DWORD PTR _i$4[ebp], 424
  000a9	8b 4d fc	 mov	 ecx, DWORD PTR _this$[ebp]
  000ac	8d 94 01 7c 29
	00 00		 lea	 edx, DWORD PTR [ecx+eax+10620]
  000b3	52		 push	 edx
  000b4	e8 00 00 00 00	 call	 _memset
  000b9	83 c4 0c	 add	 esp, 12			; 0000000cH

; 131  : 	}

  000bc	eb 95		 jmp	 SHORT $LN2@LoadOption
$LN3@LoadOption:

; 132  : 	
; 133  : 	SMDToken Token;
; 134  : 		
; 135  : 	while(true)

  000be	b8 01 00 00 00	 mov	 eax, 1
  000c3	85 c0		 test	 eax, eax
  000c5	0f 84 55 04 00
	00		 je	 $LN6@LoadOption

; 136  : 	{
; 137  : 		Token = (*GetToken)();

  000cb	e8 00 00 00 00	 call	 ?GetToken@@YA?AW4SMDToken@@XZ ; GetToken
  000d0	89 45 f4	 mov	 DWORD PTR _Token$[ebp], eax

; 138  : 		int Index = (int)TokenNumber;

  000d3	f3 0f 2c 05 00
	00 00 00	 cvttss2si eax, DWORD PTR ?TokenNumber@@3MA
  000db	89 45 f0	 mov	 DWORD PTR _Index$3[ebp], eax

; 139  : 		if(Token==NAME && strcmp("end",TokenString)==NULL) break;

  000de	83 7d f4 00	 cmp	 DWORD PTR _Token$[ebp], 0
  000e2	75 1b		 jne	 SHORT $LN11@LoadOption
  000e4	68 00 00 00 00	 push	 OFFSET ?TokenString@@3PADA
  000e9	68 00 00 00 00	 push	 OFFSET ??_C@_03JBJLGPFL@end@
  000ee	e8 00 00 00 00	 call	 _strcmp
  000f3	83 c4 08	 add	 esp, 8
  000f6	85 c0		 test	 eax, eax
  000f8	75 05		 jne	 SHORT $LN11@LoadOption
  000fa	e9 21 04 00 00	 jmp	 $LN6@LoadOption
$LN11@LoadOption:

; 140  : 
; 141  :         SETITEM_OPTIONINFO *p = &m_SetItemOptionInfo[Index];

  000ff	69 45 f0 a8 01
	00 00		 imul	 eax, DWORD PTR _Index$3[ebp], 424
  00106	8b 4d fc	 mov	 ecx, DWORD PTR _this$[ebp]
  00109	8d 94 01 04 28
	00 00		 lea	 edx, DWORD PTR [ecx+eax+10244]
  00110	89 55 ec	 mov	 DWORD PTR _p$2[ebp], edx

; 142  : 		Token = (*GetToken)();strcpy(p->Name,TokenString);

  00113	e8 00 00 00 00	 call	 ?GetToken@@YA?AW4SMDToken@@XZ ; GetToken
  00118	89 45 f4	 mov	 DWORD PTR _Token$[ebp], eax
  0011b	68 00 00 00 00	 push	 OFFSET ?TokenString@@3PADA
  00120	8b 45 ec	 mov	 eax, DWORD PTR _p$2[ebp]
  00123	83 c0 04	 add	 eax, 4
  00126	50		 push	 eax
  00127	e8 00 00 00 00	 call	 _strcpy
  0012c	83 c4 08	 add	 esp, 8

; 143  : 
; 144  : 		for( int i = 0; i < 6; i++ )

  0012f	c7 45 e8 00 00
	00 00		 mov	 DWORD PTR _i$1[ebp], 0
  00136	eb 09		 jmp	 SHORT $LN9@LoadOption
$LN7@LoadOption:
  00138	8b 45 e8	 mov	 eax, DWORD PTR _i$1[ebp]
  0013b	83 c0 01	 add	 eax, 1
  0013e	89 45 e8	 mov	 DWORD PTR _i$1[ebp], eax
$LN9@LoadOption:
  00141	83 7d e8 06	 cmp	 DWORD PTR _i$1[ebp], 6
  00145	0f 8d f0 00 00
	00		 jge	 $LN8@LoadOption

; 145  : 		{
; 146  : 			Token = (*GetToken)();p->SetOptionTable[i][0]  = (int)TokenNumber;

  0014b	e8 00 00 00 00	 call	 ?GetToken@@YA?AW4SMDToken@@XZ ; GetToken
  00150	89 45 f4	 mov	 DWORD PTR _Token$[ebp], eax
  00153	f3 0f 2c 05 00
	00 00 00	 cvttss2si eax, DWORD PTR ?TokenNumber@@3MA
  0015b	8b 4d e8	 mov	 ecx, DWORD PTR _i$1[ebp]
  0015e	8b 55 ec	 mov	 edx, DWORD PTR _p$2[ebp]
  00161	8d 8c ca 08 01
	00 00		 lea	 ecx, DWORD PTR [edx+ecx*8+264]
  00168	ba 04 00 00 00	 mov	 edx, 4
  0016d	6b d2 00	 imul	 edx, edx, 0
  00170	89 04 11	 mov	 DWORD PTR [ecx+edx], eax

; 147  : 			Token = (*GetToken)();p->SetOptionTableValue[i][0]  = (int)TokenNumber;

  00173	e8 00 00 00 00	 call	 ?GetToken@@YA?AW4SMDToken@@XZ ; GetToken
  00178	89 45 f4	 mov	 DWORD PTR _Token$[ebp], eax
  0017b	f3 0f 2c 05 00
	00 00 00	 cvttss2si eax, DWORD PTR ?TokenNumber@@3MA
  00183	8b 4d e8	 mov	 ecx, DWORD PTR _i$1[ebp]
  00186	8b 55 ec	 mov	 edx, DWORD PTR _p$2[ebp]
  00189	8d 8c ca 38 01
	00 00		 lea	 ecx, DWORD PTR [edx+ecx*8+312]
  00190	ba 04 00 00 00	 mov	 edx, 4
  00195	6b d2 00	 imul	 edx, edx, 0
  00198	89 04 11	 mov	 DWORD PTR [ecx+edx], eax

; 148  : 
; 149  : 			Token = (*GetToken)();p->SetOptionTable[i][1]  = (int)TokenNumber;

  0019b	e8 00 00 00 00	 call	 ?GetToken@@YA?AW4SMDToken@@XZ ; GetToken
  001a0	89 45 f4	 mov	 DWORD PTR _Token$[ebp], eax
  001a3	f3 0f 2c 05 00
	00 00 00	 cvttss2si eax, DWORD PTR ?TokenNumber@@3MA
  001ab	8b 4d e8	 mov	 ecx, DWORD PTR _i$1[ebp]
  001ae	8b 55 ec	 mov	 edx, DWORD PTR _p$2[ebp]
  001b1	8d 8c ca 08 01
	00 00		 lea	 ecx, DWORD PTR [edx+ecx*8+264]
  001b8	ba 04 00 00 00	 mov	 edx, 4
  001bd	c1 e2 00	 shl	 edx, 0
  001c0	89 04 11	 mov	 DWORD PTR [ecx+edx], eax

; 150  : 			Token = (*GetToken)();p->SetOptionTableValue[i][1]  = (int)TokenNumber;

  001c3	e8 00 00 00 00	 call	 ?GetToken@@YA?AW4SMDToken@@XZ ; GetToken
  001c8	89 45 f4	 mov	 DWORD PTR _Token$[ebp], eax
  001cb	f3 0f 2c 05 00
	00 00 00	 cvttss2si eax, DWORD PTR ?TokenNumber@@3MA
  001d3	8b 4d e8	 mov	 ecx, DWORD PTR _i$1[ebp]
  001d6	8b 55 ec	 mov	 edx, DWORD PTR _p$2[ebp]
  001d9	8d 8c ca 38 01
	00 00		 lea	 ecx, DWORD PTR [edx+ecx*8+312]
  001e0	ba 04 00 00 00	 mov	 edx, 4
  001e5	c1 e2 00	 shl	 edx, 0
  001e8	89 04 11	 mov	 DWORD PTR [ecx+edx], eax

; 151  : 
; 152  : 			if( p->SetOptionTable[i][0] != -1 || p->SetOptionTable[i][1] != -1 )

  001eb	8b 45 e8	 mov	 eax, DWORD PTR _i$1[ebp]
  001ee	8b 4d ec	 mov	 ecx, DWORD PTR _p$2[ebp]
  001f1	8d 94 c1 08 01
	00 00		 lea	 edx, DWORD PTR [ecx+eax*8+264]
  001f8	b8 04 00 00 00	 mov	 eax, 4
  001fd	6b c8 00	 imul	 ecx, eax, 0
  00200	83 3c 0a ff	 cmp	 DWORD PTR [edx+ecx], -1
  00204	75 1b		 jne	 SHORT $LN13@LoadOption
  00206	8b 45 e8	 mov	 eax, DWORD PTR _i$1[ebp]
  00209	8b 4d ec	 mov	 ecx, DWORD PTR _p$2[ebp]
  0020c	8d 94 c1 08 01
	00 00		 lea	 edx, DWORD PTR [ecx+eax*8+264]
  00213	b8 04 00 00 00	 mov	 eax, 4
  00218	c1 e0 00	 shl	 eax, 0
  0021b	83 3c 02 ff	 cmp	 DWORD PTR [edx+eax], -1
  0021f	74 15		 je	 SHORT $LN12@LoadOption
$LN13@LoadOption:

; 153  : 			{
; 154  : 				p->SetOptionCount++;

  00221	8b 45 ec	 mov	 eax, DWORD PTR _p$2[ebp]
  00224	8b 88 04 01 00
	00		 mov	 ecx, DWORD PTR [eax+260]
  0022a	83 c1 01	 add	 ecx, 1
  0022d	8b 55 ec	 mov	 edx, DWORD PTR _p$2[ebp]
  00230	89 8a 04 01 00
	00		 mov	 DWORD PTR [edx+260], ecx
$LN12@LoadOption:

; 155  : 			}
; 156  : 		}

  00236	e9 fd fe ff ff	 jmp	 $LN7@LoadOption
$LN8@LoadOption:

; 157  : 
; 158  : 		Token = (*GetToken)();p->SetExPOptionTable[0]  = (int)TokenNumber;

  0023b	e8 00 00 00 00	 call	 ?GetToken@@YA?AW4SMDToken@@XZ ; GetToken
  00240	89 45 f4	 mov	 DWORD PTR _Token$[ebp], eax
  00243	f3 0f 2c 05 00
	00 00 00	 cvttss2si eax, DWORD PTR ?TokenNumber@@3MA
  0024b	b9 04 00 00 00	 mov	 ecx, 4
  00250	6b d1 00	 imul	 edx, ecx, 0
  00253	8b 4d ec	 mov	 ecx, DWORD PTR _p$2[ebp]
  00256	89 84 11 68 01
	00 00		 mov	 DWORD PTR [ecx+edx+360], eax

; 159  : 		Token = (*GetToken)();p->SetExPOptionTableValue[0]  = (int)TokenNumber;

  0025d	e8 00 00 00 00	 call	 ?GetToken@@YA?AW4SMDToken@@XZ ; GetToken
  00262	89 45 f4	 mov	 DWORD PTR _Token$[ebp], eax
  00265	f3 0f 2c 05 00
	00 00 00	 cvttss2si eax, DWORD PTR ?TokenNumber@@3MA
  0026d	b9 04 00 00 00	 mov	 ecx, 4
  00272	6b d1 00	 imul	 edx, ecx, 0
  00275	8b 4d ec	 mov	 ecx, DWORD PTR _p$2[ebp]
  00278	89 84 11 70 01
	00 00		 mov	 DWORD PTR [ecx+edx+368], eax

; 160  : 
; 161  : 		if( p->SetExPOptionTable[0] != -1 )

  0027f	b8 04 00 00 00	 mov	 eax, 4
  00284	6b c8 00	 imul	 ecx, eax, 0
  00287	8b 55 ec	 mov	 edx, DWORD PTR _p$2[ebp]
  0028a	83 bc 0a 68 01
	00 00 ff	 cmp	 DWORD PTR [edx+ecx+360], -1
  00292	74 15		 je	 SHORT $LN14@LoadOption

; 162  : 		{
; 163  : 			p->SetOptionCount++;

  00294	8b 45 ec	 mov	 eax, DWORD PTR _p$2[ebp]
  00297	8b 88 04 01 00
	00		 mov	 ecx, DWORD PTR [eax+260]
  0029d	83 c1 01	 add	 ecx, 1
  002a0	8b 55 ec	 mov	 edx, DWORD PTR _p$2[ebp]
  002a3	89 8a 04 01 00
	00		 mov	 DWORD PTR [edx+260], ecx
$LN14@LoadOption:

; 164  : 		}
; 165  : 
; 166  : 		Token = (*GetToken)();p->SetExPOptionTable[1]  = (int)TokenNumber;

  002a9	e8 00 00 00 00	 call	 ?GetToken@@YA?AW4SMDToken@@XZ ; GetToken
  002ae	89 45 f4	 mov	 DWORD PTR _Token$[ebp], eax
  002b1	f3 0f 2c 05 00
	00 00 00	 cvttss2si eax, DWORD PTR ?TokenNumber@@3MA
  002b9	b9 04 00 00 00	 mov	 ecx, 4
  002be	c1 e1 00	 shl	 ecx, 0
  002c1	8b 55 ec	 mov	 edx, DWORD PTR _p$2[ebp]
  002c4	89 84 0a 68 01
	00 00		 mov	 DWORD PTR [edx+ecx+360], eax

; 167  : 		Token = (*GetToken)();p->SetExPOptionTableValue[1]  = (int)TokenNumber;

  002cb	e8 00 00 00 00	 call	 ?GetToken@@YA?AW4SMDToken@@XZ ; GetToken
  002d0	89 45 f4	 mov	 DWORD PTR _Token$[ebp], eax
  002d3	f3 0f 2c 05 00
	00 00 00	 cvttss2si eax, DWORD PTR ?TokenNumber@@3MA
  002db	b9 04 00 00 00	 mov	 ecx, 4
  002e0	c1 e1 00	 shl	 ecx, 0
  002e3	8b 55 ec	 mov	 edx, DWORD PTR _p$2[ebp]
  002e6	89 84 0a 70 01
	00 00		 mov	 DWORD PTR [edx+ecx+368], eax

; 168  : 
; 169  : 		if( p->SetExPOptionTable[1] != -1 )

  002ed	b8 04 00 00 00	 mov	 eax, 4
  002f2	c1 e0 00	 shl	 eax, 0
  002f5	8b 4d ec	 mov	 ecx, DWORD PTR _p$2[ebp]
  002f8	83 bc 01 68 01
	00 00 ff	 cmp	 DWORD PTR [ecx+eax+360], -1
  00300	74 15		 je	 SHORT $LN15@LoadOption

; 170  : 		{
; 171  : 			p->SetOptionCount++;

  00302	8b 45 ec	 mov	 eax, DWORD PTR _p$2[ebp]
  00305	8b 88 04 01 00
	00		 mov	 ecx, DWORD PTR [eax+260]
  0030b	83 c1 01	 add	 ecx, 1
  0030e	8b 55 ec	 mov	 edx, DWORD PTR _p$2[ebp]
  00311	89 8a 04 01 00
	00		 mov	 DWORD PTR [edx+260], ecx
$LN15@LoadOption:

; 172  : 		}
; 173  : 
; 174  : 		Token = (*GetToken)();p->SetFullOtionTable[0]  = (int)TokenNumber;

  00317	e8 00 00 00 00	 call	 ?GetToken@@YA?AW4SMDToken@@XZ ; GetToken
  0031c	89 45 f4	 mov	 DWORD PTR _Token$[ebp], eax
  0031f	f3 0f 2c 05 00
	00 00 00	 cvttss2si eax, DWORD PTR ?TokenNumber@@3MA
  00327	b9 04 00 00 00	 mov	 ecx, 4
  0032c	6b d1 00	 imul	 edx, ecx, 0
  0032f	8b 4d ec	 mov	 ecx, DWORD PTR _p$2[ebp]
  00332	89 84 11 78 01
	00 00		 mov	 DWORD PTR [ecx+edx+376], eax

; 175  : 		Token = (*GetToken)();p->SetFullOtionTableValue[0]  = (int)TokenNumber;

  00339	e8 00 00 00 00	 call	 ?GetToken@@YA?AW4SMDToken@@XZ ; GetToken
  0033e	89 45 f4	 mov	 DWORD PTR _Token$[ebp], eax
  00341	f3 0f 2c 05 00
	00 00 00	 cvttss2si eax, DWORD PTR ?TokenNumber@@3MA
  00349	b9 04 00 00 00	 mov	 ecx, 4
  0034e	6b d1 00	 imul	 edx, ecx, 0
  00351	8b 4d ec	 mov	 ecx, DWORD PTR _p$2[ebp]
  00354	89 84 11 8c 01
	00 00		 mov	 DWORD PTR [ecx+edx+396], eax

; 176  : 
; 177  : 		Token = (*GetToken)();p->SetFullOtionTable[1]  = (int)TokenNumber;

  0035b	e8 00 00 00 00	 call	 ?GetToken@@YA?AW4SMDToken@@XZ ; GetToken
  00360	89 45 f4	 mov	 DWORD PTR _Token$[ebp], eax
  00363	f3 0f 2c 05 00
	00 00 00	 cvttss2si eax, DWORD PTR ?TokenNumber@@3MA
  0036b	b9 04 00 00 00	 mov	 ecx, 4
  00370	c1 e1 00	 shl	 ecx, 0
  00373	8b 55 ec	 mov	 edx, DWORD PTR _p$2[ebp]
  00376	89 84 0a 78 01
	00 00		 mov	 DWORD PTR [edx+ecx+376], eax

; 178  : 		Token = (*GetToken)();p->SetFullOtionTableValue[1]  = (int)TokenNumber;

  0037d	e8 00 00 00 00	 call	 ?GetToken@@YA?AW4SMDToken@@XZ ; GetToken
  00382	89 45 f4	 mov	 DWORD PTR _Token$[ebp], eax
  00385	f3 0f 2c 05 00
	00 00 00	 cvttss2si eax, DWORD PTR ?TokenNumber@@3MA
  0038d	b9 04 00 00 00	 mov	 ecx, 4
  00392	c1 e1 00	 shl	 ecx, 0
  00395	8b 55 ec	 mov	 edx, DWORD PTR _p$2[ebp]
  00398	89 84 0a 8c 01
	00 00		 mov	 DWORD PTR [edx+ecx+396], eax

; 179  : 
; 180  : 		Token = (*GetToken)();p->SetFullOtionTable[2]  = (int)TokenNumber;

  0039f	e8 00 00 00 00	 call	 ?GetToken@@YA?AW4SMDToken@@XZ ; GetToken
  003a4	89 45 f4	 mov	 DWORD PTR _Token$[ebp], eax
  003a7	f3 0f 2c 05 00
	00 00 00	 cvttss2si eax, DWORD PTR ?TokenNumber@@3MA
  003af	b9 04 00 00 00	 mov	 ecx, 4
  003b4	d1 e1		 shl	 ecx, 1
  003b6	8b 55 ec	 mov	 edx, DWORD PTR _p$2[ebp]
  003b9	89 84 0a 78 01
	00 00		 mov	 DWORD PTR [edx+ecx+376], eax

; 181  : 		Token = (*GetToken)();p->SetFullOtionTableValue[2]  = (int)TokenNumber;

  003c0	e8 00 00 00 00	 call	 ?GetToken@@YA?AW4SMDToken@@XZ ; GetToken
  003c5	89 45 f4	 mov	 DWORD PTR _Token$[ebp], eax
  003c8	f3 0f 2c 05 00
	00 00 00	 cvttss2si eax, DWORD PTR ?TokenNumber@@3MA
  003d0	b9 04 00 00 00	 mov	 ecx, 4
  003d5	d1 e1		 shl	 ecx, 1
  003d7	8b 55 ec	 mov	 edx, DWORD PTR _p$2[ebp]
  003da	89 84 0a 8c 01
	00 00		 mov	 DWORD PTR [edx+ecx+396], eax

; 182  : 
; 183  : 		Token = (*GetToken)();p->SetFullOtionTable[3]  = (int)TokenNumber;

  003e1	e8 00 00 00 00	 call	 ?GetToken@@YA?AW4SMDToken@@XZ ; GetToken
  003e6	89 45 f4	 mov	 DWORD PTR _Token$[ebp], eax
  003e9	f3 0f 2c 05 00
	00 00 00	 cvttss2si eax, DWORD PTR ?TokenNumber@@3MA
  003f1	b9 04 00 00 00	 mov	 ecx, 4
  003f6	6b d1 03	 imul	 edx, ecx, 3
  003f9	8b 4d ec	 mov	 ecx, DWORD PTR _p$2[ebp]
  003fc	89 84 11 78 01
	00 00		 mov	 DWORD PTR [ecx+edx+376], eax

; 184  : 		Token = (*GetToken)();p->SetFullOtionTableValue[3]  = (int)TokenNumber;

  00403	e8 00 00 00 00	 call	 ?GetToken@@YA?AW4SMDToken@@XZ ; GetToken
  00408	89 45 f4	 mov	 DWORD PTR _Token$[ebp], eax
  0040b	f3 0f 2c 05 00
	00 00 00	 cvttss2si eax, DWORD PTR ?TokenNumber@@3MA
  00413	b9 04 00 00 00	 mov	 ecx, 4
  00418	6b d1 03	 imul	 edx, ecx, 3
  0041b	8b 4d ec	 mov	 ecx, DWORD PTR _p$2[ebp]
  0041e	89 84 11 8c 01
	00 00		 mov	 DWORD PTR [ecx+edx+396], eax

; 185  : 		
; 186  : 		Token = (*GetToken)();p->SetFullOtionTable[4]  = (int)TokenNumber;

  00425	e8 00 00 00 00	 call	 ?GetToken@@YA?AW4SMDToken@@XZ ; GetToken
  0042a	89 45 f4	 mov	 DWORD PTR _Token$[ebp], eax
  0042d	f3 0f 2c 05 00
	00 00 00	 cvttss2si eax, DWORD PTR ?TokenNumber@@3MA
  00435	b9 04 00 00 00	 mov	 ecx, 4
  0043a	c1 e1 02	 shl	 ecx, 2
  0043d	8b 55 ec	 mov	 edx, DWORD PTR _p$2[ebp]
  00440	89 84 0a 78 01
	00 00		 mov	 DWORD PTR [edx+ecx+376], eax

; 187  : 		Token = (*GetToken)();p->SetFullOtionTableValue[4]  = (int)TokenNumber;

  00447	e8 00 00 00 00	 call	 ?GetToken@@YA?AW4SMDToken@@XZ ; GetToken
  0044c	89 45 f4	 mov	 DWORD PTR _Token$[ebp], eax
  0044f	f3 0f 2c 05 00
	00 00 00	 cvttss2si eax, DWORD PTR ?TokenNumber@@3MA
  00457	b9 04 00 00 00	 mov	 ecx, 4
  0045c	c1 e1 02	 shl	 ecx, 2
  0045f	8b 55 ec	 mov	 edx, DWORD PTR _p$2[ebp]
  00462	89 84 0a 8c 01
	00 00		 mov	 DWORD PTR [edx+ecx+396], eax

; 188  : 
; 189  : 		Token = (*GetToken)();p->RequireClass[0]  = (int)TokenNumber;

  00469	e8 00 00 00 00	 call	 ?GetToken@@YA?AW4SMDToken@@XZ ; GetToken
  0046e	89 45 f4	 mov	 DWORD PTR _Token$[ebp], eax
  00471	f3 0f 2c 05 00
	00 00 00	 cvttss2si eax, DWORD PTR ?TokenNumber@@3MA
  00479	b9 01 00 00 00	 mov	 ecx, 1
  0047e	6b d1 00	 imul	 edx, ecx, 0
  00481	8b 4d ec	 mov	 ecx, DWORD PTR _p$2[ebp]
  00484	88 84 11 a0 01
	00 00		 mov	 BYTE PTR [ecx+edx+416], al

; 190  : 		Token = (*GetToken)();p->RequireClass[1]  = (int)TokenNumber;

  0048b	e8 00 00 00 00	 call	 ?GetToken@@YA?AW4SMDToken@@XZ ; GetToken
  00490	89 45 f4	 mov	 DWORD PTR _Token$[ebp], eax
  00493	f3 0f 2c 05 00
	00 00 00	 cvttss2si eax, DWORD PTR ?TokenNumber@@3MA
  0049b	b9 01 00 00 00	 mov	 ecx, 1
  004a0	c1 e1 00	 shl	 ecx, 0
  004a3	8b 55 ec	 mov	 edx, DWORD PTR _p$2[ebp]
  004a6	88 84 0a a0 01
	00 00		 mov	 BYTE PTR [edx+ecx+416], al

; 191  : 		Token = (*GetToken)();p->RequireClass[2]  = (int)TokenNumber;

  004ad	e8 00 00 00 00	 call	 ?GetToken@@YA?AW4SMDToken@@XZ ; GetToken
  004b2	89 45 f4	 mov	 DWORD PTR _Token$[ebp], eax
  004b5	f3 0f 2c 05 00
	00 00 00	 cvttss2si eax, DWORD PTR ?TokenNumber@@3MA
  004bd	b9 01 00 00 00	 mov	 ecx, 1
  004c2	d1 e1		 shl	 ecx, 1
  004c4	8b 55 ec	 mov	 edx, DWORD PTR _p$2[ebp]
  004c7	88 84 0a a0 01
	00 00		 mov	 BYTE PTR [edx+ecx+416], al

; 192  : 		Token = (*GetToken)();p->RequireClass[3]  = (int)TokenNumber;

  004ce	e8 00 00 00 00	 call	 ?GetToken@@YA?AW4SMDToken@@XZ ; GetToken
  004d3	89 45 f4	 mov	 DWORD PTR _Token$[ebp], eax
  004d6	f3 0f 2c 05 00
	00 00 00	 cvttss2si eax, DWORD PTR ?TokenNumber@@3MA
  004de	b9 01 00 00 00	 mov	 ecx, 1
  004e3	6b d1 03	 imul	 edx, ecx, 3
  004e6	8b 4d ec	 mov	 ecx, DWORD PTR _p$2[ebp]
  004e9	88 84 11 a0 01
	00 00		 mov	 BYTE PTR [ecx+edx+416], al

; 193  : 		Token = (*GetToken)();p->RequireClass[4]  = (int)TokenNumber;

  004f0	e8 00 00 00 00	 call	 ?GetToken@@YA?AW4SMDToken@@XZ ; GetToken
  004f5	89 45 f4	 mov	 DWORD PTR _Token$[ebp], eax
  004f8	f3 0f 2c 05 00
	00 00 00	 cvttss2si eax, DWORD PTR ?TokenNumber@@3MA
  00500	b9 01 00 00 00	 mov	 ecx, 1
  00505	c1 e1 02	 shl	 ecx, 2
  00508	8b 55 ec	 mov	 edx, DWORD PTR _p$2[ebp]
  0050b	88 84 0a a0 01
	00 00		 mov	 BYTE PTR [edx+ecx+416], al

; 194  : #ifdef UPDATE_SETOPTION_SCRIPT_ADD_CLASS_20080321 // 소환술사 추가
; 195  : 		Token = (*GetToken)();p->RequireClass[5]  = (int)TokenNumber;
; 196  : #endif
; 197  : 
; 198  : #if GAME_VERSION >= G_V_S4_6
; 199  : 		(*GetToken)();
; 200  : #endif
; 201  : 
; 202  : 		p->IsLoad = TRUE;

  00512	8b 45 ec	 mov	 eax, DWORD PTR _p$2[ebp]
  00515	c7 00 01 00 00
	00		 mov	 DWORD PTR [eax], 1

; 203  : #if TESTSERVER == 1	
; 204  : 
; 205  : #ifdef UPDATE_SETOPTION_SCRIPT_ADD_CLASS_20080321	// 소환술사 추가
; 206  : 				char msg[512];
; 207  : 		wsprintf(msg, "%d\t%s\t%d\t%d\t%d\t%d\t%d\t%d\t%d\t%d\t%d\t%d\t%d\t%d\t%d\t%d\t%d\t%d\t%d\t%d\t%d\t%d\t%d\t%d\t%d\t%d\t%d\n",
; 208  : 				 Index,p->Name,
; 209  : 				 p->SetOptionTable[0][0], p->SetOptionTable[0][1],
; 210  : 				 p->SetOptionTable[1][0], p->SetOptionTable[1][1],
; 211  : 				 p->SetOptionTable[2][0], p->SetOptionTable[2][1],
; 212  : 				 p->SetOptionTable[3][0], p->SetOptionTable[3][1],
; 213  : 				 p->SetOptionTable[4][0], p->SetOptionTable[4][1],
; 214  : 				 p->SetOptionTable[5][0], p->SetOptionTable[5][1],
; 215  : 				 p->SetExPOptionTable[0], p->SetExPOptionTable[1], 
; 216  : 				 p->SetFullOtionTable[0], p->SetFullOtionTable[1], 
; 217  : 				 p->SetFullOtionTable[2], p->SetFullOtionTable[3], p->SetFullOtionTable[4],
; 218  : 				 p->RequireClass[0], p->RequireClass[1], 
; 219  : 				 p->RequireClass[2], p->RequireClass[3],
; 220  : 				 p->RequireClass[4], p->RequireClass[5]);
; 221  : #else	// UPDATE_SETOPTION_SCRIPT_ADD_CLASS_20080321
; 222  : 		char msg[512];
; 223  : 		wsprintf(msg, "%d\t%s\t%d\t%d\t%d\t%d\t%d\t%d\t%d\t%d\t%d\t%d\t%d\t%d\t%d\t%d\t%d\t%d\t%d\t%d\t%d\t%d\t%d\t%d\t%d\t%d\n",
; 224  : 				 Index,p->Name,
; 225  : 				 p->SetOptionTable[0][0], p->SetOptionTable[0][1],
; 226  : 				 p->SetOptionTable[1][0], p->SetOptionTable[1][1],
; 227  : 				 p->SetOptionTable[2][0], p->SetOptionTable[2][1],
; 228  : 				 p->SetOptionTable[3][0], p->SetOptionTable[3][1],
; 229  : 				 p->SetOptionTable[4][0], p->SetOptionTable[4][1],
; 230  : 				 p->SetOptionTable[5][0], p->SetOptionTable[5][1],
; 231  : 				 p->SetExPOptionTable[0], p->SetExPOptionTable[1], 
; 232  : 				 p->SetFullOtionTable[0], p->SetFullOtionTable[1], 
; 233  : 				 p->SetFullOtionTable[2], p->SetFullOtionTable[3], p->SetFullOtionTable[4],
; 234  : 				 p->RequireClass[0], p->RequireClass[1], 
; 235  : 				 p->RequireClass[2], p->RequireClass[3],
; 236  : 				 p->RequireClass[4]);
; 237  : #endif	// UPDATE_SETOPTION_SCRIPT_ADD_CLASS_20080321
; 238  : 
; 239  : 		OutputDebugString(msg);
; 240  : 
; 241  : 		wsprintf(msg,"%s\tOptionCount=\t%d\n", p->Name, p->SetOptionCount);
; 242  : 		OutputDebugString(msg);
; 243  : #endif
; 244  : 	}

  0051b	e9 9e fb ff ff	 jmp	 $LN3@LoadOption
$LN6@LoadOption:

; 245  : 
; 246  : 	fclose(SMDFile);

  00520	a1 00 00 00 00	 mov	 eax, DWORD PTR ?SMDFile@@3PAU_iobuf@@A
  00525	50		 push	 eax
  00526	e8 00 00 00 00	 call	 _fclose
  0052b	83 c4 04	 add	 esp, 4

; 247  : 
; 248  : 	return TRUE;

  0052e	b8 01 00 00 00	 mov	 eax, 1
$LN1@LoadOption:

; 249  : }

  00533	5f		 pop	 edi
  00534	5e		 pop	 esi
  00535	5b		 pop	 ebx
  00536	8b e5		 mov	 esp, ebp
  00538	5d		 pop	 ebp
  00539	c2 04 00	 ret	 4
?LoadOptionInfo@CSetItemOption@@QAEHPAD@Z ENDP		; CSetItemOption::LoadOptionInfo
_TEXT	ENDS
; Function compile flags: /Odtp /ZI
; File C:\Mu Online\Mu-GS-Webzen-MC-10093\common\SetItemOption.cpp
;	COMDAT ?LoadTypeInfo@CSetItemOption@@QAEHPAD@Z
_TEXT	SEGMENT
_p$1 = -24						; size = 4
_Index$2 = -20						; size = 4
_Type$3 = -16						; size = 4
_Token$ = -12						; size = 4
_i$4 = -8						; size = 4
_this$ = -4						; size = 4
_filename$ = 8						; size = 4
?LoadTypeInfo@CSetItemOption@@QAEHPAD@Z PROC		; CSetItemOption::LoadTypeInfo, COMDAT
; _this$ = ecx

; 33   : {

  00000	55		 push	 ebp
  00001	8b ec		 mov	 ebp, esp
  00003	83 ec 58	 sub	 esp, 88			; 00000058H
  00006	53		 push	 ebx
  00007	56		 push	 esi
  00008	57		 push	 edi
  00009	89 4d fc	 mov	 DWORD PTR _this$[ebp], ecx

; 34   : 	if((SMDFile=fopen(filename,"r")) == NULL)	

  0000c	68 00 00 00 00	 push	 OFFSET ??_C@_01KDCPPGHE@r@
  00011	8b 45 08	 mov	 eax, DWORD PTR _filename$[ebp]
  00014	50		 push	 eax
  00015	e8 00 00 00 00	 call	 _fopen
  0001a	83 c4 08	 add	 esp, 8
  0001d	a3 00 00 00 00	 mov	 DWORD PTR ?SMDFile@@3PAU_iobuf@@A, eax
  00022	83 3d 00 00 00
	00 00		 cmp	 DWORD PTR ?SMDFile@@3PAU_iobuf@@A, 0
  00029	75 07		 jne	 SHORT $LN9@LoadTypeIn

; 35   : 		return FALSE;

  0002b	33 c0		 xor	 eax, eax
  0002d	e9 70 01 00 00	 jmp	 $LN1@LoadTypeIn
$LN9@LoadTypeIn:

; 36   : 
; 37   : 	memset(&m_SetItemTypeInfo, -1, sizeof(m_SetItemTypeInfo));

  00032	68 00 28 00 00	 push	 10240			; 00002800H
  00037	6a ff		 push	 -1
  00039	8b 45 fc	 mov	 eax, DWORD PTR _this$[ebp]
  0003c	83 c0 04	 add	 eax, 4
  0003f	50		 push	 eax
  00040	e8 00 00 00 00	 call	 _memset
  00045	83 c4 0c	 add	 esp, 12			; 0000000cH

; 38   : 
; 39   : 	for( int i = 0; i < MAX_ITEM; i++ )

  00048	c7 45 f8 00 00
	00 00		 mov	 DWORD PTR _i$4[ebp], 0
  0004f	eb 09		 jmp	 SHORT $LN4@LoadTypeIn
$LN2@LoadTypeIn:
  00051	8b 45 f8	 mov	 eax, DWORD PTR _i$4[ebp]
  00054	83 c0 01	 add	 eax, 1
  00057	89 45 f8	 mov	 DWORD PTR _i$4[ebp], eax
$LN4@LoadTypeIn:
  0005a	81 7d f8 00 02
	00 00		 cmp	 DWORD PTR _i$4[ebp], 512 ; 00000200H
  00061	7d 11		 jge	 SHORT $LN3@LoadTypeIn

; 40   : 	{
; 41   : 		m_SetItemTypeInfo[i].IsLoad = FALSE;

  00063	6b 45 f8 14	 imul	 eax, DWORD PTR _i$4[ebp], 20
  00067	8b 4d fc	 mov	 ecx, DWORD PTR _this$[ebp]
  0006a	c7 44 01 04 00
	00 00 00	 mov	 DWORD PTR [ecx+eax+4], 0

; 42   : 	}

  00072	eb dd		 jmp	 SHORT $LN2@LoadTypeIn
$LN3@LoadTypeIn:

; 43   : 	
; 44   : 	SMDToken Token;
; 45   : 	while(true)

  00074	b8 01 00 00 00	 mov	 eax, 1
  00079	85 c0		 test	 eax, eax
  0007b	0f 84 0e 01 00
	00		 je	 $LN6@LoadTypeIn

; 46   : 	{
; 47   : 		Token = (*GetToken)();

  00081	e8 00 00 00 00	 call	 ?GetToken@@YA?AW4SMDToken@@XZ ; GetToken
  00086	89 45 f4	 mov	 DWORD PTR _Token$[ebp], eax

; 48   : 		if(Token == END) break;

  00089	83 7d f4 02	 cmp	 DWORD PTR _Token$[ebp], 2
  0008d	75 05		 jne	 SHORT $LN10@LoadTypeIn
  0008f	e9 fb 00 00 00	 jmp	 $LN6@LoadTypeIn
$LN10@LoadTypeIn:

; 49   : 		if(Token == NUMBER)

  00094	83 7d f4 01	 cmp	 DWORD PTR _Token$[ebp], 1
  00098	0f 85 ec 00 00
	00		 jne	 $LN8@LoadTypeIn

; 50   : 		{
; 51   : 			int Type = (int)TokenNumber;

  0009e	f3 0f 2c 05 00
	00 00 00	 cvttss2si eax, DWORD PTR ?TokenNumber@@3MA
  000a6	89 45 f0	 mov	 DWORD PTR _Type$3[ebp], eax
$LN7@LoadTypeIn:

; 52   : 			while(true)

  000a9	b8 01 00 00 00	 mov	 eax, 1
  000ae	85 c0		 test	 eax, eax
  000b0	0f 84 d4 00 00
	00		 je	 $LN8@LoadTypeIn

; 53   : 			{
; 54   : 				Token = (*GetToken)();

  000b6	e8 00 00 00 00	 call	 ?GetToken@@YA?AW4SMDToken@@XZ ; GetToken
  000bb	89 45 f4	 mov	 DWORD PTR _Token$[ebp], eax

; 55   : 				int Index = (int)TokenNumber;

  000be	f3 0f 2c 05 00
	00 00 00	 cvttss2si eax, DWORD PTR ?TokenNumber@@3MA
  000c6	89 45 ec	 mov	 DWORD PTR _Index$2[ebp], eax

; 56   : 				if(Token==NAME && strcmp("end",TokenString)==NULL) break;

  000c9	83 7d f4 00	 cmp	 DWORD PTR _Token$[ebp], 0
  000cd	75 1b		 jne	 SHORT $LN12@LoadTypeIn
  000cf	68 00 00 00 00	 push	 OFFSET ?TokenString@@3PADA
  000d4	68 00 00 00 00	 push	 OFFSET ??_C@_03JBJLGPFL@end@
  000d9	e8 00 00 00 00	 call	 _strcmp
  000de	83 c4 08	 add	 esp, 8
  000e1	85 c0		 test	 eax, eax
  000e3	75 05		 jne	 SHORT $LN12@LoadTypeIn
  000e5	e9 a0 00 00 00	 jmp	 $LN8@LoadTypeIn
$LN12@LoadTypeIn:

; 57   :                	SETITEM_TYPEINFO *p = &m_SetItemTypeInfo[Type*MAX_ITEM_INDEX+Index];

  000ea	8b 45 f0	 mov	 eax, DWORD PTR _Type$3[ebp]
  000ed	c1 e0 05	 shl	 eax, 5
  000f0	03 45 ec	 add	 eax, DWORD PTR _Index$2[ebp]
  000f3	6b c8 14	 imul	 ecx, eax, 20
  000f6	8b 55 fc	 mov	 edx, DWORD PTR _this$[ebp]
  000f9	8d 44 0a 04	 lea	 eax, DWORD PTR [edx+ecx+4]
  000fd	89 45 e8	 mov	 DWORD PTR _p$1[ebp], eax

; 58   : 
; 59   : 				Token = (*GetToken)();p->OptionIndex[0]  = (int)TokenNumber;

  00100	e8 00 00 00 00	 call	 ?GetToken@@YA?AW4SMDToken@@XZ ; GetToken
  00105	89 45 f4	 mov	 DWORD PTR _Token$[ebp], eax
  00108	f3 0f 2c 05 00
	00 00 00	 cvttss2si eax, DWORD PTR ?TokenNumber@@3MA
  00110	b9 04 00 00 00	 mov	 ecx, 4
  00115	6b d1 00	 imul	 edx, ecx, 0
  00118	8b 4d e8	 mov	 ecx, DWORD PTR _p$1[ebp]
  0011b	89 44 11 04	 mov	 DWORD PTR [ecx+edx+4], eax

; 60   : 				Token = (*GetToken)();p->OptionIndex[1]  = (int)TokenNumber;

  0011f	e8 00 00 00 00	 call	 ?GetToken@@YA?AW4SMDToken@@XZ ; GetToken
  00124	89 45 f4	 mov	 DWORD PTR _Token$[ebp], eax
  00127	f3 0f 2c 05 00
	00 00 00	 cvttss2si eax, DWORD PTR ?TokenNumber@@3MA
  0012f	b9 04 00 00 00	 mov	 ecx, 4
  00134	c1 e1 00	 shl	 ecx, 0
  00137	8b 55 e8	 mov	 edx, DWORD PTR _p$1[ebp]
  0013a	89 44 0a 04	 mov	 DWORD PTR [edx+ecx+4], eax

; 61   : 				Token = (*GetToken)();p->ChaosMixLevel[0]  = (int)TokenNumber;

  0013e	e8 00 00 00 00	 call	 ?GetToken@@YA?AW4SMDToken@@XZ ; GetToken
  00143	89 45 f4	 mov	 DWORD PTR _Token$[ebp], eax
  00146	f3 0f 2c 05 00
	00 00 00	 cvttss2si eax, DWORD PTR ?TokenNumber@@3MA
  0014e	b9 04 00 00 00	 mov	 ecx, 4
  00153	6b d1 00	 imul	 edx, ecx, 0
  00156	8b 4d e8	 mov	 ecx, DWORD PTR _p$1[ebp]
  00159	89 44 11 0c	 mov	 DWORD PTR [ecx+edx+12], eax

; 62   : 				Token = (*GetToken)();p->ChaosMixLevel[1]  = (int)TokenNumber;

  0015d	e8 00 00 00 00	 call	 ?GetToken@@YA?AW4SMDToken@@XZ ; GetToken
  00162	89 45 f4	 mov	 DWORD PTR _Token$[ebp], eax
  00165	f3 0f 2c 05 00
	00 00 00	 cvttss2si eax, DWORD PTR ?TokenNumber@@3MA
  0016d	b9 04 00 00 00	 mov	 ecx, 4
  00172	c1 e1 00	 shl	 ecx, 0
  00175	8b 55 e8	 mov	 edx, DWORD PTR _p$1[ebp]
  00178	89 44 0a 0c	 mov	 DWORD PTR [edx+ecx+12], eax

; 63   : 
; 64   : 				p->IsLoad = TRUE;

  0017c	8b 45 e8	 mov	 eax, DWORD PTR _p$1[ebp]
  0017f	c7 00 01 00 00
	00		 mov	 DWORD PTR [eax], 1

; 65   : 
; 66   : #if TESTSERVER == 1
; 67   : 				int	ItemNum = Type*MAX_ITEM_INDEX+Index;		
; 68   : 				
; 69   : 				//"세트 속성 1(힘) 2(민첩) 3(에너지) 4(체력)"
; 70   : 				char szSetItemAttr[][255] = 
; 71   : 				{
; 72   : 					"없음", "힘", "민첩", "에너지", "체력"
; 73   : 				};
; 74   : 
; 75   : 				char msg[255];
; 76   : 				wsprintf(msg, "SetItem Type Load : (%s), (%d,%d) (%d,%d)\n",
; 77   : 					     ItemAttribute[ItemNum].Name,
; 78   : 					     p->OptionIndex[0], p->OptionIndex[1],
; 79   : 					     p->ChaosMixLevel[0], p->ChaosMixLevel[1]);
; 80   : 
; 81   : 				//OutputDebugString(msg);
; 82   : 
; 83   : 				if( p->OptionIndex[0] != 0 )
; 84   : 				{
; 85   : 					wsprintf(msg, "[%d] A Set : %s %s, %s증가 ChaosLevel = %d\n",
; 86   : 							 ItemNum,
; 87   : 							 m_SetItemOptionInfo[p->OptionIndex[0]].Name,
; 88   : 							 ItemAttribute[ItemNum].Name,
; 89   : 							 szSetItemAttr[ItemAttribute[ItemNum].SetAttr],
; 90   : 							 p->ChaosMixLevel[0]);
; 91   : 					OutputDebugString(msg);
; 92   : 				}				
; 93   : 
; 94   : 
; 95   : 				if( p->OptionIndex[1] != 0 )
; 96   : 				{
; 97   : 					wsprintf(msg, "B Set : %s %s, %s증가 ChaosLevel = %d\n",
; 98   : 							 m_SetItemOptionInfo[p->OptionIndex[1]].Name,
; 99   : 							 ItemAttribute[ItemNum].Name,
; 100  : 							 szSetItemAttr[ItemAttribute[ItemNum].SetAttr],
; 101  : 							 p->ChaosMixLevel[1]);
; 102  : 					OutputDebugString(msg);
; 103  : 				}
; 104  : 
; 105  : 				LogAdd("SetItem Type Load : (%s), (%d,%d) (%d,%d)",
; 106  : 					   ItemAttribute[ItemNum].Name,
; 107  : 					   p->OptionIndex[0], p->OptionIndex[1],
; 108  : 					   p->ChaosMixLevel[0], p->ChaosMixLevel[1]);
; 109  : #endif
; 110  : 			}

  00185	e9 1f ff ff ff	 jmp	 $LN7@LoadTypeIn
$LN8@LoadTypeIn:

; 111  : 		}
; 112  : 	}

  0018a	e9 e5 fe ff ff	 jmp	 $LN3@LoadTypeIn
$LN6@LoadTypeIn:

; 113  : 
; 114  : 	fclose(SMDFile);

  0018f	a1 00 00 00 00	 mov	 eax, DWORD PTR ?SMDFile@@3PAU_iobuf@@A
  00194	50		 push	 eax
  00195	e8 00 00 00 00	 call	 _fclose
  0019a	83 c4 04	 add	 esp, 4

; 115  : 
; 116  : 	return TRUE;

  0019d	b8 01 00 00 00	 mov	 eax, 1
$LN1@LoadTypeIn:

; 117  : }

  001a2	5f		 pop	 edi
  001a3	5e		 pop	 esi
  001a4	5b		 pop	 ebx
  001a5	8b e5		 mov	 esp, ebp
  001a7	5d		 pop	 ebp
  001a8	c2 04 00	 ret	 4
?LoadTypeInfo@CSetItemOption@@QAEHPAD@Z ENDP		; CSetItemOption::LoadTypeInfo
_TEXT	ENDS
; Function compile flags: /Odtp /ZI
; File C:\Mu Online\Mu-GS-Webzen-MC-10093\common\SetItemOption.cpp
;	COMDAT ??1CSetItemOption@@UAE@XZ
_TEXT	SEGMENT
_this$ = -4						; size = 4
??1CSetItemOption@@UAE@XZ PROC				; CSetItemOption::~CSetItemOption, COMDAT
; _this$ = ecx

; 27   : {

  00000	55		 push	 ebp
  00001	8b ec		 mov	 ebp, esp
  00003	83 ec 44	 sub	 esp, 68			; 00000044H
  00006	53		 push	 ebx
  00007	56		 push	 esi
  00008	57		 push	 edi
  00009	89 4d fc	 mov	 DWORD PTR _this$[ebp], ecx
  0000c	8b 45 fc	 mov	 eax, DWORD PTR _this$[ebp]
  0000f	c7 00 00 00 00
	00		 mov	 DWORD PTR [eax], OFFSET ??_7CSetItemOption@@6B@

; 28   : 
; 29   : }

  00015	5f		 pop	 edi
  00016	5e		 pop	 esi
  00017	5b		 pop	 ebx
  00018	8b e5		 mov	 esp, ebp
  0001a	5d		 pop	 ebp
  0001b	c3		 ret	 0
??1CSetItemOption@@UAE@XZ ENDP				; CSetItemOption::~CSetItemOption
_TEXT	ENDS
; Function compile flags: /Odtp /ZI
; File C:\Mu Online\Mu-GS-Webzen-MC-10093\common\SetItemOption.cpp
;	COMDAT ??0CSetItemOption@@QAE@XZ
_TEXT	SEGMENT
_this$ = -4						; size = 4
??0CSetItemOption@@QAE@XZ PROC				; CSetItemOption::CSetItemOption, COMDAT
; _this$ = ecx

; 22   : {

  00000	55		 push	 ebp
  00001	8b ec		 mov	 ebp, esp
  00003	83 ec 44	 sub	 esp, 68			; 00000044H
  00006	53		 push	 ebx
  00007	56		 push	 esi
  00008	57		 push	 edi
  00009	89 4d fc	 mov	 DWORD PTR _this$[ebp], ecx
  0000c	8b 45 fc	 mov	 eax, DWORD PTR _this$[ebp]
  0000f	c7 00 00 00 00
	00		 mov	 DWORD PTR [eax], OFFSET ??_7CSetItemOption@@6B@

; 23   : 
; 24   : }

  00015	8b 45 fc	 mov	 eax, DWORD PTR _this$[ebp]
  00018	5f		 pop	 edi
  00019	5e		 pop	 esi
  0001a	5b		 pop	 ebx
  0001b	8b e5		 mov	 esp, ebp
  0001d	5d		 pop	 ebp
  0001e	c3		 ret	 0
??0CSetItemOption@@QAE@XZ ENDP				; CSetItemOption::CSetItemOption
_TEXT	ENDS
; Function compile flags: /Odtp /ZI
; File C:\Mu Online\Mu-GS-Webzen-MC-10093\Include\ReadScript.h
;	COMDAT ?GetToken@@YA?AW4SMDToken@@XZ
_TEXT	SEGMENT
tv93 = -184						; size = 4
$T1 = -180						; size = 4
_TempString$ = -112					; size = 100
_p$ = -12						; size = 4
_ch$ = -5						; size = 1
__$ArrayPad$ = -4					; size = 4
?GetToken@@YA?AW4SMDToken@@XZ PROC			; GetToken, COMDAT

; 25   : {

  00000	55		 push	 ebp
  00001	8b ec		 mov	 ebp, esp
  00003	81 ec b8 00 00
	00		 sub	 esp, 184		; 000000b8H
  00009	a1 00 00 00 00	 mov	 eax, DWORD PTR ___security_cookie
  0000e	33 c5		 xor	 eax, ebp
  00010	89 45 fc	 mov	 DWORD PTR __$ArrayPad$[ebp], eax
  00013	53		 push	 ebx
  00014	56		 push	 esi
  00015	57		 push	 edi

; 26   : 	unsigned char ch;
; 27   : 	TokenString[0] = '\0';

  00016	b8 01 00 00 00	 mov	 eax, 1
  0001b	6b c8 00	 imul	 ecx, eax, 0
  0001e	89 8d 4c ff ff
	ff		 mov	 DWORD PTR $T1[ebp], ecx
  00024	83 bd 4c ff ff
	ff 64		 cmp	 DWORD PTR $T1[ebp], 100	; 00000064H
  0002b	73 02		 jae	 SHORT $LN31@GetToken
  0002d	eb 05		 jmp	 SHORT $LN32@GetToken
$LN31@GetToken:
  0002f	e8 00 00 00 00	 call	 ___report_rangecheckfailure
$LN32@GetToken:
  00034	8b 95 4c ff ff
	ff		 mov	 edx, DWORD PTR $T1[ebp]
  0003a	c6 82 00 00 00
	00 00		 mov	 BYTE PTR ?TokenString@@3PADA[edx], 0
$LN4@GetToken:

; 28   : 	do
; 29   : 	{
; 30   : 		if ( (ch =(unsigned char) fgetc(SMDFile)) == (BYTE)EOF) return END;

  00041	a1 00 00 00 00	 mov	 eax, DWORD PTR ?SMDFile@@3PAU_iobuf@@A
  00046	50		 push	 eax
  00047	e8 00 00 00 00	 call	 _fgetc
  0004c	83 c4 04	 add	 esp, 4
  0004f	88 45 fb	 mov	 BYTE PTR _ch$[ebp], al
  00052	0f b6 4d fb	 movzx	 ecx, BYTE PTR _ch$[ebp]
  00056	81 f9 ff 00 00
	00		 cmp	 ecx, 255		; 000000ffH
  0005c	75 0a		 jne	 SHORT $LN15@GetToken
  0005e	b8 02 00 00 00	 mov	 eax, 2
  00063	e9 d9 02 00 00	 jmp	 $LN7@GetToken
$LN15@GetToken:

; 31   : 		if (ch=='/' && (ch =(unsigned char) fgetc(SMDFile) )=='/')	

  00068	0f b6 45 fb	 movzx	 eax, BYTE PTR _ch$[ebp]
  0006c	83 f8 2f	 cmp	 eax, 47			; 0000002fH
  0006f	75 56		 jne	 SHORT $LN17@GetToken
  00071	a1 00 00 00 00	 mov	 eax, DWORD PTR ?SMDFile@@3PAU_iobuf@@A
  00076	50		 push	 eax
  00077	e8 00 00 00 00	 call	 _fgetc
  0007c	83 c4 04	 add	 esp, 4
  0007f	88 45 fb	 mov	 BYTE PTR _ch$[ebp], al
  00082	0f b6 4d fb	 movzx	 ecx, BYTE PTR _ch$[ebp]
  00086	83 f9 2f	 cmp	 ecx, 47			; 0000002fH
  00089	75 3c		 jne	 SHORT $LN17@GetToken
$LN5@GetToken:

; 32   : 		{
; 33   : 			while((ch != '\n') && (ch != (BYTE)EOF)) {			// 2003.09.02 H.J.I 수정

  0008b	0f b6 45 fb	 movzx	 eax, BYTE PTR _ch$[ebp]
  0008f	83 f8 0a	 cmp	 eax, 10			; 0000000aH
  00092	74 1e		 je	 SHORT $LN6@GetToken
  00094	0f b6 45 fb	 movzx	 eax, BYTE PTR _ch$[ebp]
  00098	3d ff 00 00 00	 cmp	 eax, 255		; 000000ffH
  0009d	74 13		 je	 SHORT $LN6@GetToken

; 34   : 				ch = (unsigned char) fgetc( SMDFile);

  0009f	a1 00 00 00 00	 mov	 eax, DWORD PTR ?SMDFile@@3PAU_iobuf@@A
  000a4	50		 push	 eax
  000a5	e8 00 00 00 00	 call	 _fgetc
  000aa	83 c4 04	 add	 esp, 4
  000ad	88 45 fb	 mov	 BYTE PTR _ch$[ebp], al

; 35   : 			}

  000b0	eb d9		 jmp	 SHORT $LN5@GetToken
$LN6@GetToken:

; 36   : 
; 37   : 			if (ch == (BYTE)EOF)

  000b2	0f b6 45 fb	 movzx	 eax, BYTE PTR _ch$[ebp]
  000b6	3d ff 00 00 00	 cmp	 eax, 255		; 000000ffH
  000bb	75 0a		 jne	 SHORT $LN17@GetToken

; 38   : 				return END;

  000bd	b8 02 00 00 00	 mov	 eax, 2
  000c2	e9 7a 02 00 00	 jmp	 $LN7@GetToken
$LN17@GetToken:

; 39   : 		}
; 40   : 	} while(  isspace(ch) );

  000c7	0f b6 45 fb	 movzx	 eax, BYTE PTR _ch$[ebp]
  000cb	50		 push	 eax
  000cc	e8 00 00 00 00	 call	 _isspace
  000d1	83 c4 04	 add	 esp, 4
  000d4	85 c0		 test	 eax, eax
  000d6	0f 85 65 ff ff
	ff		 jne	 $LN4@GetToken

; 41   : 	
; 42   : 	char *p, TempString[100];
; 43   : 	switch(ch)

  000dc	0f b6 45 fb	 movzx	 eax, BYTE PTR _ch$[ebp]
  000e0	89 85 48 ff ff
	ff		 mov	 DWORD PTR tv93[ebp], eax
  000e6	8b 8d 48 ff ff
	ff		 mov	 ecx, DWORD PTR tv93[ebp]
  000ec	83 e9 22	 sub	 ecx, 34			; 00000022H
  000ef	89 8d 48 ff ff
	ff		 mov	 DWORD PTR tv93[ebp], ecx
  000f5	83 bd 48 ff ff
	ff 5b		 cmp	 DWORD PTR tv93[ebp], 91	; 0000005bH
  000fc	0f 87 86 01 00
	00		 ja	 $LN27@GetToken
  00102	8b 95 48 ff ff
	ff		 mov	 edx, DWORD PTR tv93[ebp]
  00108	0f b6 82 00 00
	00 00		 movzx	 eax, BYTE PTR $LN33@GetToken[edx]
  0010f	ff 24 85 00 00
	00 00		 jmp	 DWORD PTR $LN34@GetToken[eax*4]
$LN18@GetToken:

; 44   : 	{	
; 45   : 	case '#':
; 46   : 		return CurrentToken = COMMAND;

  00116	c7 05 00 00 00
	00 23 00 00 00	 mov	 DWORD PTR ?CurrentToken@@3W4SMDToken@@A, 35 ; 00000023H
  00120	a1 00 00 00 00	 mov	 eax, DWORD PTR ?CurrentToken@@3W4SMDToken@@A
  00125	e9 17 02 00 00	 jmp	 $LN7@GetToken
$LN19@GetToken:

; 47   : 	case ';':
; 48   : 		return CurrentToken = SEMICOLON;

  0012a	c7 05 00 00 00
	00 3b 00 00 00	 mov	 DWORD PTR ?CurrentToken@@3W4SMDToken@@A, 59 ; 0000003bH
  00134	a1 00 00 00 00	 mov	 eax, DWORD PTR ?CurrentToken@@3W4SMDToken@@A
  00139	e9 03 02 00 00	 jmp	 $LN7@GetToken
$LN20@GetToken:

; 49   : 	case ',':
; 50   : 		return CurrentToken = COMMA;

  0013e	c7 05 00 00 00
	00 2c 00 00 00	 mov	 DWORD PTR ?CurrentToken@@3W4SMDToken@@A, 44 ; 0000002cH
  00148	a1 00 00 00 00	 mov	 eax, DWORD PTR ?CurrentToken@@3W4SMDToken@@A
  0014d	e9 ef 01 00 00	 jmp	 $LN7@GetToken
$LN21@GetToken:

; 51   : 	case '{':
; 52   : 		return CurrentToken = LP;

  00152	c7 05 00 00 00
	00 7b 00 00 00	 mov	 DWORD PTR ?CurrentToken@@3W4SMDToken@@A, 123 ; 0000007bH
  0015c	a1 00 00 00 00	 mov	 eax, DWORD PTR ?CurrentToken@@3W4SMDToken@@A
  00161	e9 db 01 00 00	 jmp	 $LN7@GetToken
$LN22@GetToken:

; 53   : 	case '}':
; 54   : 		return CurrentToken = RP;

  00166	c7 05 00 00 00
	00 7d 00 00 00	 mov	 DWORD PTR ?CurrentToken@@3W4SMDToken@@A, 125 ; 0000007dH
  00170	a1 00 00 00 00	 mov	 eax, DWORD PTR ?CurrentToken@@3W4SMDToken@@A
  00175	e9 c7 01 00 00	 jmp	 $LN7@GetToken
$LN23@GetToken:

; 55   : 	case '0':	case '1':	case '2':	case '3':	case '4':
; 56   : 	case '5':	case '6':	case '7':	case '8':	case '9':
; 57   : 	case '.':	case '-':
; 58   : 		ungetc(ch,SMDFile);

  0017a	a1 00 00 00 00	 mov	 eax, DWORD PTR ?SMDFile@@3PAU_iobuf@@A
  0017f	50		 push	 eax
  00180	0f b6 4d fb	 movzx	 ecx, BYTE PTR _ch$[ebp]
  00184	51		 push	 ecx
  00185	e8 00 00 00 00	 call	 _ungetc
  0018a	83 c4 08	 add	 esp, 8

; 59   : 		p = TempString;

  0018d	8d 45 90	 lea	 eax, DWORD PTR _TempString$[ebp]
  00190	89 45 f4	 mov	 DWORD PTR _p$[ebp], eax
$LN9@GetToken:

; 60   : 		while ( (  (ch = getc(SMDFile) ) !=(BYTE)EOF) && (ch=='.' || isdigit(ch) || ch=='-') )

  00193	a1 00 00 00 00	 mov	 eax, DWORD PTR ?SMDFile@@3PAU_iobuf@@A
  00198	50		 push	 eax
  00199	e8 00 00 00 00	 call	 _getc
  0019e	83 c4 04	 add	 esp, 4
  001a1	88 45 fb	 mov	 BYTE PTR _ch$[ebp], al
  001a4	0f b6 4d fb	 movzx	 ecx, BYTE PTR _ch$[ebp]
  001a8	81 f9 ff 00 00
	00		 cmp	 ecx, 255		; 000000ffH
  001ae	74 36		 je	 SHORT $LN10@GetToken
  001b0	0f b6 45 fb	 movzx	 eax, BYTE PTR _ch$[ebp]
  001b4	83 f8 2e	 cmp	 eax, 46			; 0000002eH
  001b7	74 1a		 je	 SHORT $LN24@GetToken
  001b9	0f b6 45 fb	 movzx	 eax, BYTE PTR _ch$[ebp]
  001bd	50		 push	 eax
  001be	e8 00 00 00 00	 call	 _isdigit
  001c3	83 c4 04	 add	 esp, 4
  001c6	85 c0		 test	 eax, eax
  001c8	75 09		 jne	 SHORT $LN24@GetToken
  001ca	0f b6 45 fb	 movzx	 eax, BYTE PTR _ch$[ebp]
  001ce	83 f8 2d	 cmp	 eax, 45			; 0000002dH
  001d1	75 13		 jne	 SHORT $LN10@GetToken
$LN24@GetToken:

; 61   : 			*p++ = ch;

  001d3	8b 45 f4	 mov	 eax, DWORD PTR _p$[ebp]
  001d6	8a 4d fb	 mov	 cl, BYTE PTR _ch$[ebp]
  001d9	88 08		 mov	 BYTE PTR [eax], cl
  001db	8b 55 f4	 mov	 edx, DWORD PTR _p$[ebp]
  001de	83 c2 01	 add	 edx, 1
  001e1	89 55 f4	 mov	 DWORD PTR _p$[ebp], edx
  001e4	eb ad		 jmp	 SHORT $LN9@GetToken
$LN10@GetToken:

; 62   : 		*p = 0;

  001e6	8b 45 f4	 mov	 eax, DWORD PTR _p$[ebp]
  001e9	c6 00 00	 mov	 BYTE PTR [eax], 0

; 63   : 		TokenNumber = (float)atof(TempString);

  001ec	8d 45 90	 lea	 eax, DWORD PTR _TempString$[ebp]
  001ef	50		 push	 eax
  001f0	e8 00 00 00 00	 call	 _atof
  001f5	83 c4 04	 add	 esp, 4
  001f8	d9 1d 00 00 00
	00		 fstp	 DWORD PTR ?TokenNumber@@3MA

; 64   : 		//			sscanf(TempString," %f ",&TokenNumber);
; 65   : 		return CurrentToken = NUMBER;

  001fe	c7 05 00 00 00
	00 01 00 00 00	 mov	 DWORD PTR ?CurrentToken@@3W4SMDToken@@A, 1
  00208	a1 00 00 00 00	 mov	 eax, DWORD PTR ?CurrentToken@@3W4SMDToken@@A
  0020d	e9 2f 01 00 00	 jmp	 $LN7@GetToken
$LN25@GetToken:

; 66   : 	case '"':
; 67   : 		p = TokenString;

  00212	c7 45 f4 00 00
	00 00		 mov	 DWORD PTR _p$[ebp], OFFSET ?TokenString@@3PADA
$LN11@GetToken:

; 68   : 		while ( (  (ch = getc(SMDFile) ) !=(BYTE)EOF) && (ch!='"'))// || isalnum(ch)) )

  00219	a1 00 00 00 00	 mov	 eax, DWORD PTR ?SMDFile@@3PAU_iobuf@@A
  0021e	50		 push	 eax
  0021f	e8 00 00 00 00	 call	 _getc
  00224	83 c4 04	 add	 esp, 4
  00227	88 45 fb	 mov	 BYTE PTR _ch$[ebp], al
  0022a	0f b6 4d fb	 movzx	 ecx, BYTE PTR _ch$[ebp]
  0022e	81 f9 ff 00 00
	00		 cmp	 ecx, 255		; 000000ffH
  00234	74 1c		 je	 SHORT $LN12@GetToken
  00236	0f b6 45 fb	 movzx	 eax, BYTE PTR _ch$[ebp]
  0023a	83 f8 22	 cmp	 eax, 34			; 00000022H
  0023d	74 13		 je	 SHORT $LN12@GetToken

; 69   : 			*p++ = ch;

  0023f	8b 45 f4	 mov	 eax, DWORD PTR _p$[ebp]
  00242	8a 4d fb	 mov	 cl, BYTE PTR _ch$[ebp]
  00245	88 08		 mov	 BYTE PTR [eax], cl
  00247	8b 55 f4	 mov	 edx, DWORD PTR _p$[ebp]
  0024a	83 c2 01	 add	 edx, 1
  0024d	89 55 f4	 mov	 DWORD PTR _p$[ebp], edx
  00250	eb c7		 jmp	 SHORT $LN11@GetToken
$LN12@GetToken:

; 70   : 		if (ch!='"')

  00252	0f b6 45 fb	 movzx	 eax, BYTE PTR _ch$[ebp]
  00256	83 f8 22	 cmp	 eax, 34			; 00000022H
  00259	74 13		 je	 SHORT $LN26@GetToken

; 71   : 			ungetc(ch,SMDFile);

  0025b	a1 00 00 00 00	 mov	 eax, DWORD PTR ?SMDFile@@3PAU_iobuf@@A
  00260	50		 push	 eax
  00261	0f b6 4d fb	 movzx	 ecx, BYTE PTR _ch$[ebp]
  00265	51		 push	 ecx
  00266	e8 00 00 00 00	 call	 _ungetc
  0026b	83 c4 08	 add	 esp, 8
$LN26@GetToken:

; 72   : 		*p = 0;

  0026e	8b 45 f4	 mov	 eax, DWORD PTR _p$[ebp]
  00271	c6 00 00	 mov	 BYTE PTR [eax], 0

; 73   : 		return CurrentToken = NAME;

  00274	c7 05 00 00 00
	00 00 00 00 00	 mov	 DWORD PTR ?CurrentToken@@3W4SMDToken@@A, 0
  0027e	a1 00 00 00 00	 mov	 eax, DWORD PTR ?CurrentToken@@3W4SMDToken@@A
  00283	e9 b9 00 00 00	 jmp	 $LN7@GetToken
$LN27@GetToken:

; 74   : 	default:
; 75   : 		if (isalpha(ch))	

  00288	0f b6 45 fb	 movzx	 eax, BYTE PTR _ch$[ebp]
  0028c	50		 push	 eax
  0028d	e8 00 00 00 00	 call	 _isalpha
  00292	83 c4 04	 add	 esp, 4
  00295	85 c0		 test	 eax, eax
  00297	0f 84 95 00 00
	00		 je	 $LN28@GetToken

; 76   : 		{
; 77   : 			p = TokenString;

  0029d	c7 45 f4 00 00
	00 00		 mov	 DWORD PTR _p$[ebp], OFFSET ?TokenString@@3PADA

; 78   : 			*p++ = ch;

  002a4	8b 45 f4	 mov	 eax, DWORD PTR _p$[ebp]
  002a7	8a 4d fb	 mov	 cl, BYTE PTR _ch$[ebp]
  002aa	88 08		 mov	 BYTE PTR [eax], cl
  002ac	8b 55 f4	 mov	 edx, DWORD PTR _p$[ebp]
  002af	83 c2 01	 add	 edx, 1
  002b2	89 55 f4	 mov	 DWORD PTR _p$[ebp], edx
$LN13@GetToken:

; 79   : 			while ( (  (ch = getc(SMDFile) ) !=(BYTE)EOF) && (ch=='.' || ch=='_' || isalnum(ch)) )

  002b5	a1 00 00 00 00	 mov	 eax, DWORD PTR ?SMDFile@@3PAU_iobuf@@A
  002ba	50		 push	 eax
  002bb	e8 00 00 00 00	 call	 _getc
  002c0	83 c4 04	 add	 esp, 4
  002c3	88 45 fb	 mov	 BYTE PTR _ch$[ebp], al
  002c6	0f b6 4d fb	 movzx	 ecx, BYTE PTR _ch$[ebp]
  002ca	81 f9 ff 00 00
	00		 cmp	 ecx, 255		; 000000ffH
  002d0	74 36		 je	 SHORT $LN14@GetToken
  002d2	0f b6 45 fb	 movzx	 eax, BYTE PTR _ch$[ebp]
  002d6	83 f8 2e	 cmp	 eax, 46			; 0000002eH
  002d9	74 1a		 je	 SHORT $LN29@GetToken
  002db	0f b6 45 fb	 movzx	 eax, BYTE PTR _ch$[ebp]
  002df	83 f8 5f	 cmp	 eax, 95			; 0000005fH
  002e2	74 11		 je	 SHORT $LN29@GetToken
  002e4	0f b6 45 fb	 movzx	 eax, BYTE PTR _ch$[ebp]
  002e8	50		 push	 eax
  002e9	e8 00 00 00 00	 call	 _isalnum
  002ee	83 c4 04	 add	 esp, 4
  002f1	85 c0		 test	 eax, eax
  002f3	74 13		 je	 SHORT $LN14@GetToken
$LN29@GetToken:

; 80   : 				*p++ = ch;

  002f5	8b 45 f4	 mov	 eax, DWORD PTR _p$[ebp]
  002f8	8a 4d fb	 mov	 cl, BYTE PTR _ch$[ebp]
  002fb	88 08		 mov	 BYTE PTR [eax], cl
  002fd	8b 55 f4	 mov	 edx, DWORD PTR _p$[ebp]
  00300	83 c2 01	 add	 edx, 1
  00303	89 55 f4	 mov	 DWORD PTR _p$[ebp], edx
  00306	eb ad		 jmp	 SHORT $LN13@GetToken
$LN14@GetToken:

; 81   : 			ungetc(ch,SMDFile);

  00308	a1 00 00 00 00	 mov	 eax, DWORD PTR ?SMDFile@@3PAU_iobuf@@A
  0030d	50		 push	 eax
  0030e	0f b6 4d fb	 movzx	 ecx, BYTE PTR _ch$[ebp]
  00312	51		 push	 ecx
  00313	e8 00 00 00 00	 call	 _ungetc
  00318	83 c4 08	 add	 esp, 8

; 82   : 			*p = 0;

  0031b	8b 45 f4	 mov	 eax, DWORD PTR _p$[ebp]
  0031e	c6 00 00	 mov	 BYTE PTR [eax], 0

; 83   : 			return CurrentToken = NAME;

  00321	c7 05 00 00 00
	00 00 00 00 00	 mov	 DWORD PTR ?CurrentToken@@3W4SMDToken@@A, 0
  0032b	a1 00 00 00 00	 mov	 eax, DWORD PTR ?CurrentToken@@3W4SMDToken@@A
  00330	eb 0f		 jmp	 SHORT $LN7@GetToken
$LN28@GetToken:

; 84   : 		}
; 85   : 		return CurrentToken = SMD_ERROR;

  00332	c7 05 00 00 00
	00 3c 00 00 00	 mov	 DWORD PTR ?CurrentToken@@3W4SMDToken@@A, 60 ; 0000003cH
  0033c	a1 00 00 00 00	 mov	 eax, DWORD PTR ?CurrentToken@@3W4SMDToken@@A
$LN7@GetToken:

; 86   : 	}
; 87   : }

  00341	5f		 pop	 edi
  00342	5e		 pop	 esi
  00343	5b		 pop	 ebx
  00344	8b 4d fc	 mov	 ecx, DWORD PTR __$ArrayPad$[ebp]
  00347	33 cd		 xor	 ecx, ebp
  00349	e8 00 00 00 00	 call	 @__security_check_cookie@4
  0034e	8b e5		 mov	 esp, ebp
  00350	5d		 pop	 ebp
  00351	c3		 ret	 0
  00352	66 90		 npad	 2
$LN34@GetToken:
  00354	00 00 00 00	 DD	 $LN25@GetToken
  00358	00 00 00 00	 DD	 $LN18@GetToken
  0035c	00 00 00 00	 DD	 $LN20@GetToken
  00360	00 00 00 00	 DD	 $LN23@GetToken
  00364	00 00 00 00	 DD	 $LN19@GetToken
  00368	00 00 00 00	 DD	 $LN21@GetToken
  0036c	00 00 00 00	 DD	 $LN22@GetToken
  00370	00 00 00 00	 DD	 $LN27@GetToken
$LN33@GetToken:
  00374	00		 DB	 0
  00375	01		 DB	 1
  00376	07		 DB	 7
  00377	07		 DB	 7
  00378	07		 DB	 7
  00379	07		 DB	 7
  0037a	07		 DB	 7
  0037b	07		 DB	 7
  0037c	07		 DB	 7
  0037d	07		 DB	 7
  0037e	02		 DB	 2
  0037f	03		 DB	 3
  00380	03		 DB	 3
  00381	07		 DB	 7
  00382	03		 DB	 3
  00383	03		 DB	 3
  00384	03		 DB	 3
  00385	03		 DB	 3
  00386	03		 DB	 3
  00387	03		 DB	 3
  00388	03		 DB	 3
  00389	03		 DB	 3
  0038a	03		 DB	 3
  0038b	03		 DB	 3
  0038c	07		 DB	 7
  0038d	04		 DB	 4
  0038e	07		 DB	 7
  0038f	07		 DB	 7
  00390	07		 DB	 7
  00391	07		 DB	 7
  00392	07		 DB	 7
  00393	07		 DB	 7
  00394	07		 DB	 7
  00395	07		 DB	 7
  00396	07		 DB	 7
  00397	07		 DB	 7
  00398	07		 DB	 7
  00399	07		 DB	 7
  0039a	07		 DB	 7
  0039b	07		 DB	 7
  0039c	07		 DB	 7
  0039d	07		 DB	 7
  0039e	07		 DB	 7
  0039f	07		 DB	 7
  003a0	07		 DB	 7
  003a1	07		 DB	 7
  003a2	07		 DB	 7
  003a3	07		 DB	 7
  003a4	07		 DB	 7
  003a5	07		 DB	 7
  003a6	07		 DB	 7
  003a7	07		 DB	 7
  003a8	07		 DB	 7
  003a9	07		 DB	 7
  003aa	07		 DB	 7
  003ab	07		 DB	 7
  003ac	07		 DB	 7
  003ad	07		 DB	 7
  003ae	07		 DB	 7
  003af	07		 DB	 7
  003b0	07		 DB	 7
  003b1	07		 DB	 7
  003b2	07		 DB	 7
  003b3	07		 DB	 7
  003b4	07		 DB	 7
  003b5	07		 DB	 7
  003b6	07		 DB	 7
  003b7	07		 DB	 7
  003b8	07		 DB	 7
  003b9	07		 DB	 7
  003ba	07		 DB	 7
  003bb	07		 DB	 7
  003bc	07		 DB	 7
  003bd	07		 DB	 7
  003be	07		 DB	 7
  003bf	07		 DB	 7
  003c0	07		 DB	 7
  003c1	07		 DB	 7
  003c2	07		 DB	 7
  003c3	07		 DB	 7
  003c4	07		 DB	 7
  003c5	07		 DB	 7
  003c6	07		 DB	 7
  003c7	07		 DB	 7
  003c8	07		 DB	 7
  003c9	07		 DB	 7
  003ca	07		 DB	 7
  003cb	07		 DB	 7
  003cc	07		 DB	 7
  003cd	05		 DB	 5
  003ce	07		 DB	 7
  003cf	06		 DB	 6
?GetToken@@YA?AW4SMDToken@@XZ ENDP			; GetToken
_TEXT	ENDS
; Function compile flags: /Odtp /ZI
; File C:\Mu Online\Mu-GS-Webzen-MC-10093\common\SetItemOption.cpp
;	COMDAT ?__empty_global_delete@@YAXPAXI@Z
_TEXT	SEGMENT
___formal$ = 8						; size = 4
___formal$ = 12						; size = 4
?__empty_global_delete@@YAXPAXI@Z PROC			; __empty_global_delete, COMDAT

  00000	55		 push	 ebp
  00001	8b ec		 mov	 ebp, esp
  00003	83 ec 40	 sub	 esp, 64			; 00000040H
  00006	53		 push	 ebx
  00007	56		 push	 esi
  00008	57		 push	 edi
  00009	5f		 pop	 edi
  0000a	5e		 pop	 esi
  0000b	5b		 pop	 ebx
  0000c	8b e5		 mov	 esp, ebp
  0000e	5d		 pop	 ebp
  0000f	c3		 ret	 0
?__empty_global_delete@@YAXPAXI@Z ENDP			; __empty_global_delete
_TEXT	ENDS
; Function compile flags: /Odtp /ZI
; File C:\Mu Online\Mu-GS-Webzen-MC-10093\common\SetItemOption.cpp
;	COMDAT ?__empty_global_delete@@YAXPAX@Z
_TEXT	SEGMENT
___formal$ = 8						; size = 4
?__empty_global_delete@@YAXPAX@Z PROC			; __empty_global_delete, COMDAT

  00000	55		 push	 ebp
  00001	8b ec		 mov	 ebp, esp
  00003	83 ec 40	 sub	 esp, 64			; 00000040H
  00006	53		 push	 ebx
  00007	56		 push	 esi
  00008	57		 push	 edi
  00009	5f		 pop	 edi
  0000a	5e		 pop	 esi
  0000b	5b		 pop	 ebx
  0000c	8b e5		 mov	 esp, ebp
  0000e	5d		 pop	 ebp
  0000f	c3		 ret	 0
?__empty_global_delete@@YAXPAX@Z ENDP			; __empty_global_delete
_TEXT	ENDS
END
