; Listing generated by Microsoft (R) Optimizing Compiler Version 19.27.29111.0 

	TITLE	C:\Mu Online\Mu-GS-Webzen-MC-10093\GameServer\Shop.cpp
	.686P
	.XMM
	include listing.inc
	.model	flat

INCLUDELIB LIBCMT
INCLUDELIB OLDNAMES

PUBLIC	??_H@YGXPAXIIP6EPAX0@Z@Z			; `vector constructor iterator'
PUBLIC	?__empty_global_delete@@YAXPAX@Z		; __empty_global_delete
PUBLIC	?__empty_global_delete@@YAXPAXI@Z		; __empty_global_delete
PUBLIC	??0CShop@@QAE@XZ				; CShop::CShop
PUBLIC	??1CShop@@UAE@XZ				; CShop::~CShop
PUBLIC	?Init@CShop@@QAEXXZ				; CShop::Init
PUBLIC	?LoadShopItem@CShop@@QAEHPAD@Z			; CShop::LoadShopItem
PUBLIC	?InsertItem@CShop@@QAEHHHHHHHH@Z		; CShop::InsertItem
PUBLIC	?InentoryMapCheck@CShop@@QAEHHHHH@Z		; CShop::InentoryMapCheck
PUBLIC	??_GCShop@@UAEPAXI@Z				; CShop::`scalar deleting destructor'
PUBLIC	?ShopDataLoad@@YAHXZ				; ShopDataLoad
PUBLIC	??_7CShop@@6B@					; CShop::`vftable'
PUBLIC	?ShopC@@3PAVCShop@@A				; ShopC
PUBLIC	?__LINE__Var@?0??InsertItem@CShop@@QAEHHHHHHHH@Z@4JA ; `CShop::InsertItem'::`1'::__LINE__Var
PUBLIC	??_C@_0DH@CLFPJACO@C?3?2Mu?5Online?2Mu?9GS?9Webzen?9MC?910@ ; `string'
PUBLIC	??_C@_0BB@FOBLMGCK@error?9L2?5?3?5?$CFs?5?$CFd@	; `string'
PUBLIC	?__LINE__Var@?0??LoadShopItem@CShop@@QAEHPAD@Z@4JA ; `CShop::LoadShopItem'::`1'::__LINE__Var
PUBLIC	??_C@_01KDCPPGHE@r@				; `string'
PUBLIC	??_C@_0BI@IEDKKFGG@Shop?5data?5load?5error?5?$CFs@ ; `string'
PUBLIC	??_C@_0BE@LCGMGNMN@error?9L3?5?3?5?$CFs?5?$CFs?5?$CFd@ ; `string'
PUBLIC	??_C@_09IMHEMMIL@shop0?4txt@			; `string'
PUBLIC	??_C@_09EHCIBPCO@shop1?4txt@			; `string'
PUBLIC	??_C@_09MBLMGNIA@shop2?4txt@			; `string'
PUBLIC	??_C@_09KOALOCF@shop3?4txt@			; `string'
PUBLIC	??_C@_09BHOFIOJN@shop4?4txt@			; `string'
PUBLIC	??_C@_09NMLJFNDI@shop5?4txt@			; `string'
PUBLIC	??_C@_09FKCNCPJG@shop6?4txt@			; `string'
PUBLIC	??_C@_09JBHBPMDD@shop7?4txt@			; `string'
PUBLIC	??_C@_09GACHEOOG@shop8?4txt@			; `string'
PUBLIC	??_C@_09KLHLJNED@shop9?4txt@			; `string'
PUBLIC	??_C@_0L@JPHBGLHP@shop10?4txt@			; `string'
PUBLIC	??_C@_0L@FECNLINK@shop11?4txt@			; `string'
PUBLIC	??_C@_0L@NCLJMKHE@shop12?4txt@			; `string'
PUBLIC	??_R4CShop@@6B@					; CShop::`RTTI Complete Object Locator'
PUBLIC	??_R0?AVCShop@@@8				; CShop `RTTI Type Descriptor'
PUBLIC	??_R3CShop@@8					; CShop::`RTTI Class Hierarchy Descriptor'
PUBLIC	??_R2CShop@@8					; CShop::`RTTI Base Class Array'
PUBLIC	??_R1A@?0A@EA@CShop@@8				; CShop::`RTTI Base Class Descriptor at (0,-1,0,64)'
EXTRN	??_L@YGXPAXIIP6EX0@Z1@Z:PROC			; `eh vector constructor iterator'
EXTRN	??_M@YGXPAXIIP6EX0@Z@Z:PROC			; `eh vector destructor iterator'
EXTRN	??3@YAXPAXI@Z:PROC				; operator delete
EXTRN	_atexit:PROC
EXTRN	___report_rangecheckfailure:PROC
EXTRN	_isalpha:PROC
EXTRN	_isdigit:PROC
EXTRN	_isspace:PROC
EXTRN	_isalnum:PROC
EXTRN	_memset:PROC
EXTRN	_fclose:PROC
EXTRN	_fgetc:PROC
EXTRN	_fopen:PROC
EXTRN	_getc:PROC
EXTRN	_ungetc:PROC
EXTRN	_atof:PROC
EXTRN	?MsgBox@@YAXPADZZ:PROC				; MsgBox
EXTRN	__imp_?Get@CMsg@@QAEPADH@Z:PROC
EXTRN	??0CItem@@QAE@XZ:PROC				; CItem::CItem
EXTRN	?Convert@CItem@@QAEXHEEEEEE@Z:PROC		; CItem::Convert
EXTRN	?Value@CItem@@QAEXXZ:PROC			; CItem::Value
EXTRN	?ItemGetSize@@YAXHAAH0@Z:PROC			; ItemGetSize
EXTRN	?ItemByteConvert@@YAXPAEVCItem@@@Z:PROC		; ItemByteConvert
EXTRN	?ItemGetDurability@@YAHHHHH@Z:PROC		; ItemGetDurability
EXTRN	?MakeItemNumber@@YAHHH@Z:PROC			; MakeItemNumber
EXTRN	?GetNewPath@CDirPath@@QAEPADPAD@Z:PROC		; CDirPath::GetNewPath
EXTRN	??_ECShop@@UAEPAXI@Z:PROC			; CShop::`vector deleting destructor'
EXTRN	@__security_check_cookie@4:PROC
EXTRN	??_7type_info@@6B@:QWORD			; type_info::`vftable'
EXTRN	?LogAdd@@3P6AXPADZZA:DWORD			; LogAdd
EXTRN	?lMsg@@3VCMsg@@A:BYTE				; lMsg
EXTRN	?gDirPath@@3VCDirPath@@A:BYTE			; gDirPath
EXTRN	___security_cookie:DWORD
EXTRN	__fltused:DWORD
_BSS	SEGMENT
?SMDFile@@3PAU_iobuf@@A DD 01H DUP (?)			; SMDFile
?TokenNumber@@3MA DD 01H DUP (?)			; TokenNumber
?TokenString@@3PADA DB 064H DUP (?)			; TokenString
?CurrentToken@@3W4SMDToken@@A DD 01H DUP (?)		; CurrentToken
?ShopC@@3PAVCShop@@A DB 042b04H DUP (?)			; ShopC
_BSS	ENDS
CRT$XCU	SEGMENT
?ShopC$initializer$@@3P6AXXZA DD FLAT:??__EShopC@@YAXXZ	; ShopC$initializer$
CRT$XCU	ENDS
;	COMDAT ??_R1A@?0A@EA@CShop@@8
rdata$r	SEGMENT
??_R1A@?0A@EA@CShop@@8 DD FLAT:??_R0?AVCShop@@@8	; CShop::`RTTI Base Class Descriptor at (0,-1,0,64)'
	DD	00H
	DD	00H
	DD	0ffffffffH
	DD	00H
	DD	040H
	DD	FLAT:??_R3CShop@@8
rdata$r	ENDS
;	COMDAT ??_R2CShop@@8
rdata$r	SEGMENT
??_R2CShop@@8 DD FLAT:??_R1A@?0A@EA@CShop@@8		; CShop::`RTTI Base Class Array'
rdata$r	ENDS
;	COMDAT ??_R3CShop@@8
rdata$r	SEGMENT
??_R3CShop@@8 DD 00H					; CShop::`RTTI Class Hierarchy Descriptor'
	DD	00H
	DD	01H
	DD	FLAT:??_R2CShop@@8
rdata$r	ENDS
;	COMDAT ??_R0?AVCShop@@@8
data$r	SEGMENT
??_R0?AVCShop@@@8 DD FLAT:??_7type_info@@6B@		; CShop `RTTI Type Descriptor'
	DD	00H
	DB	'.?AVCShop@@', 00H
data$r	ENDS
;	COMDAT ??_R4CShop@@6B@
rdata$r	SEGMENT
??_R4CShop@@6B@ DD 00H					; CShop::`RTTI Complete Object Locator'
	DD	00H
	DD	00H
	DD	FLAT:??_R0?AVCShop@@@8
	DD	FLAT:??_R3CShop@@8
rdata$r	ENDS
;	COMDAT ??_C@_0L@NCLJMKHE@shop12?4txt@
CONST	SEGMENT
??_C@_0L@NCLJMKHE@shop12?4txt@ DB 'shop12.txt', 00H	; `string'
CONST	ENDS
;	COMDAT ??_C@_0L@FECNLINK@shop11?4txt@
CONST	SEGMENT
??_C@_0L@FECNLINK@shop11?4txt@ DB 'shop11.txt', 00H	; `string'
CONST	ENDS
;	COMDAT ??_C@_0L@JPHBGLHP@shop10?4txt@
CONST	SEGMENT
??_C@_0L@JPHBGLHP@shop10?4txt@ DB 'shop10.txt', 00H	; `string'
CONST	ENDS
;	COMDAT ??_C@_09KLHLJNED@shop9?4txt@
CONST	SEGMENT
??_C@_09KLHLJNED@shop9?4txt@ DB 'shop9.txt', 00H	; `string'
CONST	ENDS
;	COMDAT ??_C@_09GACHEOOG@shop8?4txt@
CONST	SEGMENT
??_C@_09GACHEOOG@shop8?4txt@ DB 'shop8.txt', 00H	; `string'
CONST	ENDS
;	COMDAT ??_C@_09JBHBPMDD@shop7?4txt@
CONST	SEGMENT
??_C@_09JBHBPMDD@shop7?4txt@ DB 'shop7.txt', 00H	; `string'
CONST	ENDS
;	COMDAT ??_C@_09FKCNCPJG@shop6?4txt@
CONST	SEGMENT
??_C@_09FKCNCPJG@shop6?4txt@ DB 'shop6.txt', 00H	; `string'
CONST	ENDS
;	COMDAT ??_C@_09NMLJFNDI@shop5?4txt@
CONST	SEGMENT
??_C@_09NMLJFNDI@shop5?4txt@ DB 'shop5.txt', 00H	; `string'
CONST	ENDS
;	COMDAT ??_C@_09BHOFIOJN@shop4?4txt@
CONST	SEGMENT
??_C@_09BHOFIOJN@shop4?4txt@ DB 'shop4.txt', 00H	; `string'
CONST	ENDS
;	COMDAT ??_C@_09KOALOCF@shop3?4txt@
CONST	SEGMENT
??_C@_09KOALOCF@shop3?4txt@ DB 'shop3.txt', 00H		; `string'
CONST	ENDS
;	COMDAT ??_C@_09MBLMGNIA@shop2?4txt@
CONST	SEGMENT
??_C@_09MBLMGNIA@shop2?4txt@ DB 'shop2.txt', 00H	; `string'
CONST	ENDS
;	COMDAT ??_C@_09EHCIBPCO@shop1?4txt@
CONST	SEGMENT
??_C@_09EHCIBPCO@shop1?4txt@ DB 'shop1.txt', 00H	; `string'
CONST	ENDS
;	COMDAT ??_C@_09IMHEMMIL@shop0?4txt@
CONST	SEGMENT
??_C@_09IMHEMMIL@shop0?4txt@ DB 'shop0.txt', 00H	; `string'
CONST	ENDS
;	COMDAT ??_C@_0BE@LCGMGNMN@error?9L3?5?3?5?$CFs?5?$CFs?5?$CFd@
CONST	SEGMENT
??_C@_0BE@LCGMGNMN@error?9L3?5?3?5?$CFs?5?$CFs?5?$CFd@ DB 'error-L3 : %s '
	DB	'%s %d', 00H					; `string'
CONST	ENDS
;	COMDAT ??_C@_0BI@IEDKKFGG@Shop?5data?5load?5error?5?$CFs@
CONST	SEGMENT
??_C@_0BI@IEDKKFGG@Shop?5data?5load?5error?5?$CFs@ DB 'Shop data load err'
	DB	'or %s', 00H					; `string'
CONST	ENDS
;	COMDAT ??_C@_01KDCPPGHE@r@
CONST	SEGMENT
??_C@_01KDCPPGHE@r@ DB 'r', 00H				; `string'
CONST	ENDS
;	COMDAT ?__LINE__Var@?0??LoadShopItem@CShop@@QAEHPAD@Z@4JA
_DATA	SEGMENT
?__LINE__Var@?0??LoadShopItem@CShop@@QAEHPAD@Z@4JA DD 0d7H ; `CShop::LoadShopItem'::`1'::__LINE__Var
_DATA	ENDS
;	COMDAT ??_C@_0BB@FOBLMGCK@error?9L2?5?3?5?$CFs?5?$CFd@
CONST	SEGMENT
??_C@_0BB@FOBLMGCK@error?9L2?5?3?5?$CFs?5?$CFd@ DB 'error-L2 : %s %d', 00H ; `string'
CONST	ENDS
;	COMDAT ??_C@_0DH@CLFPJACO@C?3?2Mu?5Online?2Mu?9GS?9Webzen?9MC?910@
CONST	SEGMENT
??_C@_0DH@CLFPJACO@C?3?2Mu?5Online?2Mu?9GS?9Webzen?9MC?910@ DB 'C:\Mu Onl'
	DB	'ine\Mu-GS-Webzen-MC-10093\GameServer\Shop.cpp', 00H ; `string'
CONST	ENDS
;	COMDAT ?__LINE__Var@?0??InsertItem@CShop@@QAEHHHHHHHH@Z@4JA
_DATA	SEGMENT
?__LINE__Var@?0??InsertItem@CShop@@QAEHHHHHHHH@Z@4JA DD 038H ; `CShop::InsertItem'::`1'::__LINE__Var
_DATA	ENDS
;	COMDAT ??_7CShop@@6B@
CONST	SEGMENT
??_7CShop@@6B@ DD FLAT:??_R4CShop@@6B@			; CShop::`vftable'
	DD	FLAT:??_ECShop@@UAEPAXI@Z
CONST	ENDS
; Function compile flags: /Odtp /ZI
;	COMDAT ??__FShopC@@YAXXZ
text$yd	SEGMENT
??__FShopC@@YAXXZ PROC					; `dynamic atexit destructor for 'ShopC'', COMDAT
  00000	55		 push	 ebp
  00001	8b ec		 mov	 ebp, esp
  00003	83 ec 40	 sub	 esp, 64			; 00000040H
  00006	53		 push	 ebx
  00007	56		 push	 esi
  00008	57		 push	 edi
  00009	68 00 00 00 00	 push	 OFFSET ??1CShop@@UAE@XZ	; CShop::~CShop
  0000e	6a 0d		 push	 13			; 0000000dH
  00010	68 14 52 00 00	 push	 21012			; 00005214H
  00015	68 00 00 00 00	 push	 OFFSET ?ShopC@@3PAVCShop@@A ; ShopC
  0001a	e8 00 00 00 00	 call	 ??_M@YGXPAXIIP6EX0@Z@Z
  0001f	5f		 pop	 edi
  00020	5e		 pop	 esi
  00021	5b		 pop	 ebx
  00022	8b e5		 mov	 esp, ebp
  00024	5d		 pop	 ebp
  00025	c3		 ret	 0
??__FShopC@@YAXXZ ENDP					; `dynamic atexit destructor for 'ShopC''
text$yd	ENDS
; Function compile flags: /Odtp /ZI
; File C:\Mu Online\Mu-GS-Webzen-MC-10093\GameServer\Shop.cpp
;	COMDAT ??__EShopC@@YAXXZ
text$di	SEGMENT
??__EShopC@@YAXXZ PROC					; `dynamic initializer for 'ShopC'', COMDAT

; 31   : CShop			ShopC[MAX_SHOP];

  00000	55		 push	 ebp
  00001	8b ec		 mov	 ebp, esp
  00003	83 ec 40	 sub	 esp, 64			; 00000040H
  00006	53		 push	 ebx
  00007	56		 push	 esi
  00008	57		 push	 edi
  00009	68 00 00 00 00	 push	 OFFSET ??1CShop@@UAE@XZ	; CShop::~CShop
  0000e	68 00 00 00 00	 push	 OFFSET ??0CShop@@QAE@XZ	; CShop::CShop
  00013	6a 0d		 push	 13			; 0000000dH
  00015	68 14 52 00 00	 push	 21012			; 00005214H
  0001a	68 00 00 00 00	 push	 OFFSET ?ShopC@@3PAVCShop@@A ; ShopC
  0001f	e8 00 00 00 00	 call	 ??_L@YGXPAXIIP6EX0@Z1@Z
  00024	68 00 00 00 00	 push	 OFFSET ??__FShopC@@YAXXZ ; `dynamic atexit destructor for 'ShopC''
  00029	e8 00 00 00 00	 call	 _atexit
  0002e	83 c4 04	 add	 esp, 4
  00031	5f		 pop	 edi
  00032	5e		 pop	 esi
  00033	5b		 pop	 ebx
  00034	8b e5		 mov	 esp, ebp
  00036	5d		 pop	 ebp
  00037	c3		 ret	 0
??__EShopC@@YAXXZ ENDP					; `dynamic initializer for 'ShopC''
text$di	ENDS
; Function compile flags: /Odtp /ZI
; File C:\Mu Online\Mu-GS-Webzen-MC-10093\GameServer\Shop.cpp
;	COMDAT ?ShopDataLoad@@YAHXZ
_TEXT	SEGMENT
?ShopDataLoad@@YAHXZ PROC				; ShopDataLoad, COMDAT

; 299  : {

  00000	55		 push	 ebp
  00001	8b ec		 mov	 ebp, esp
  00003	83 ec 40	 sub	 esp, 64			; 00000040H
  00006	53		 push	 ebx
  00007	56		 push	 esi
  00008	57		 push	 edi

; 300  : 
; 301  : #ifdef AUTH_GAMESERVER	
; 302  : 	ShopC[0].LoadShopItem(FILE_SHOP0);
; 303  : 	ShopC[1].LoadShopItem(FILE_SHOP1);
; 304  : 	ShopC[2].LoadShopItem(FILE_SHOP2);
; 305  : 	ShopC[3].LoadShopItem(FILE_SHOP3);
; 306  : 	ShopC[4].LoadShopItem(FILE_SHOP4);
; 307  : 	ShopC[5].LoadShopItem(FILE_SHOP5);
; 308  : 	ShopC[6].LoadShopItem(FILE_SHOP6);
; 309  : 	ShopC[7].LoadShopItem(FILE_SHOP7);
; 310  : 	ShopC[8].LoadShopItem(FILE_SHOP8);
; 311  : 	ShopC[9].LoadShopItem(FILE_SHOP9);
; 312  : 	ShopC[10].LoadShopItem(FILE_SHOP10);
; 313  : 	#ifdef ADD_SHOP_11_12	
; 314  : 		ShopC[11].LoadShopItem(FILE_SHOP11);
; 315  : 		ShopC[12].LoadShopItem(FILE_SHOP12);
; 316  : 	#endif
; 317  : #ifdef ADD_FIRECRACKER_NPC_20070306
; 318  : 		ShopC[13].LoadShopItem(FILE_SHOP13);
; 319  : #endif
; 320  : #ifdef ADD_SHOP_14_20070308
; 321  : 			ShopC[14].LoadShopItem(FILE_SHOP14);
; 322  : #endif		
; 323  : #ifdef ADD_SEASON_3_NEW_MAP_20070910
; 324  : 		ShopC[15].LoadShopItem(FILE_SHOP15);
; 325  : 		ShopC[16].LoadShopItem(FILE_SHOP16);
; 326  : 		ShopC[17].LoadShopItem(FILE_SHOP17);
; 327  : #endif
; 328  : #ifdef ADD_GAMBLING_20090120
; 329  : 		ShopC[18].LoadShopItem(FILE_SHOP18);
; 330  : #endif // ADD_GAMBLING_20090120
; 331  : 	
; 332  : #else
; 333  : 	#ifdef SCRIPT_DECODE_WORK
; 334  : 			ShopC[0].LoadShopItemDecode(gDirPath.GetNewPath("shop0.cwz"));
; 335  : 			ShopC[1].LoadShopItemDecode(gDirPath.GetNewPath("shop1.cwz"));
; 336  : 			ShopC[2].LoadShopItemDecode(gDirPath.GetNewPath("shop2.cwz"));
; 337  : 			ShopC[3].LoadShopItemDecode(gDirPath.GetNewPath("shop3.cwz"));
; 338  : 			ShopC[4].LoadShopItemDecode(gDirPath.GetNewPath("shop4.cwz"));	
; 339  : 			ShopC[5].LoadShopItemDecode(gDirPath.GetNewPath("shop5.cwz"));
; 340  : 			ShopC[6].LoadShopItemDecode(gDirPath.GetNewPath("shop6.cwz"));
; 341  : 			ShopC[7].LoadShopItemDecode(gDirPath.GetNewPath("shop7.cwz"));
; 342  : 			ShopC[8].LoadShopItemDecode(gDirPath.GetNewPath("shop8.cwz"));
; 343  : 			ShopC[9].LoadShopItemDecode(gDirPath.GetNewPath("shop9.cwz"));
; 344  : 			ShopC[10].LoadShopItemDecode(gDirPath.GetNewPath("shop10.cwz"));
; 345  : 		#ifdef ADD_SHOP_11_12	
; 346  : 			ShopC[11].LoadShopItemDecode(gDirPath.GetNewPath("shop11.cwz"));
; 347  : 			ShopC[12].LoadShopItemDecode(gDirPath.GetNewPath("shop12.cwz"));
; 348  : 		#endif
; 349  : 		#ifdef ADD_SHOP_14_20070308			
; 350  : 			ShopC[14].LoadShopItem(gDirPath.GetNewPath("shop14.cwz"));
; 351  : 		#endif	
; 352  : 	#else
; 353  : 			ShopC[0].LoadShopItem(gDirPath.GetNewPath("shop0.txt"));

  00009	68 00 00 00 00	 push	 OFFSET ??_C@_09IMHEMMIL@shop0?4txt@
  0000e	b9 00 00 00 00	 mov	 ecx, OFFSET ?gDirPath@@3VCDirPath@@A ; gDirPath
  00013	e8 00 00 00 00	 call	 ?GetNewPath@CDirPath@@QAEPADPAD@Z ; CDirPath::GetNewPath
  00018	50		 push	 eax
  00019	b8 14 52 00 00	 mov	 eax, 21012		; 00005214H
  0001e	6b c8 00	 imul	 ecx, eax, 0
  00021	81 c1 00 00 00
	00		 add	 ecx, OFFSET ?ShopC@@3PAVCShop@@A ; ShopC
  00027	e8 00 00 00 00	 call	 ?LoadShopItem@CShop@@QAEHPAD@Z ; CShop::LoadShopItem

; 354  : 			ShopC[1].LoadShopItem(gDirPath.GetNewPath("shop1.txt"));

  0002c	68 00 00 00 00	 push	 OFFSET ??_C@_09EHCIBPCO@shop1?4txt@
  00031	b9 00 00 00 00	 mov	 ecx, OFFSET ?gDirPath@@3VCDirPath@@A ; gDirPath
  00036	e8 00 00 00 00	 call	 ?GetNewPath@CDirPath@@QAEPADPAD@Z ; CDirPath::GetNewPath
  0003b	50		 push	 eax
  0003c	b9 14 52 00 00	 mov	 ecx, 21012		; 00005214H
  00041	c1 e1 00	 shl	 ecx, 0
  00044	81 c1 00 00 00
	00		 add	 ecx, OFFSET ?ShopC@@3PAVCShop@@A ; ShopC
  0004a	e8 00 00 00 00	 call	 ?LoadShopItem@CShop@@QAEHPAD@Z ; CShop::LoadShopItem

; 355  : 			ShopC[2].LoadShopItem(gDirPath.GetNewPath("shop2.txt"));

  0004f	68 00 00 00 00	 push	 OFFSET ??_C@_09MBLMGNIA@shop2?4txt@
  00054	b9 00 00 00 00	 mov	 ecx, OFFSET ?gDirPath@@3VCDirPath@@A ; gDirPath
  00059	e8 00 00 00 00	 call	 ?GetNewPath@CDirPath@@QAEPADPAD@Z ; CDirPath::GetNewPath
  0005e	50		 push	 eax
  0005f	b9 14 52 00 00	 mov	 ecx, 21012		; 00005214H
  00064	d1 e1		 shl	 ecx, 1
  00066	81 c1 00 00 00
	00		 add	 ecx, OFFSET ?ShopC@@3PAVCShop@@A ; ShopC
  0006c	e8 00 00 00 00	 call	 ?LoadShopItem@CShop@@QAEHPAD@Z ; CShop::LoadShopItem

; 356  : 			ShopC[3].LoadShopItem(gDirPath.GetNewPath("shop3.txt"));

  00071	68 00 00 00 00	 push	 OFFSET ??_C@_09KOALOCF@shop3?4txt@
  00076	b9 00 00 00 00	 mov	 ecx, OFFSET ?gDirPath@@3VCDirPath@@A ; gDirPath
  0007b	e8 00 00 00 00	 call	 ?GetNewPath@CDirPath@@QAEPADPAD@Z ; CDirPath::GetNewPath
  00080	50		 push	 eax
  00081	b8 14 52 00 00	 mov	 eax, 21012		; 00005214H
  00086	6b c8 03	 imul	 ecx, eax, 3
  00089	81 c1 00 00 00
	00		 add	 ecx, OFFSET ?ShopC@@3PAVCShop@@A ; ShopC
  0008f	e8 00 00 00 00	 call	 ?LoadShopItem@CShop@@QAEHPAD@Z ; CShop::LoadShopItem

; 357  : 			ShopC[4].LoadShopItem(gDirPath.GetNewPath("shop4.txt"));	

  00094	68 00 00 00 00	 push	 OFFSET ??_C@_09BHOFIOJN@shop4?4txt@
  00099	b9 00 00 00 00	 mov	 ecx, OFFSET ?gDirPath@@3VCDirPath@@A ; gDirPath
  0009e	e8 00 00 00 00	 call	 ?GetNewPath@CDirPath@@QAEPADPAD@Z ; CDirPath::GetNewPath
  000a3	50		 push	 eax
  000a4	b9 14 52 00 00	 mov	 ecx, 21012		; 00005214H
  000a9	c1 e1 02	 shl	 ecx, 2
  000ac	81 c1 00 00 00
	00		 add	 ecx, OFFSET ?ShopC@@3PAVCShop@@A ; ShopC
  000b2	e8 00 00 00 00	 call	 ?LoadShopItem@CShop@@QAEHPAD@Z ; CShop::LoadShopItem

; 358  : 			ShopC[5].LoadShopItem(gDirPath.GetNewPath("shop5.txt"));

  000b7	68 00 00 00 00	 push	 OFFSET ??_C@_09NMLJFNDI@shop5?4txt@
  000bc	b9 00 00 00 00	 mov	 ecx, OFFSET ?gDirPath@@3VCDirPath@@A ; gDirPath
  000c1	e8 00 00 00 00	 call	 ?GetNewPath@CDirPath@@QAEPADPAD@Z ; CDirPath::GetNewPath
  000c6	50		 push	 eax
  000c7	b8 14 52 00 00	 mov	 eax, 21012		; 00005214H
  000cc	6b c8 05	 imul	 ecx, eax, 5
  000cf	81 c1 00 00 00
	00		 add	 ecx, OFFSET ?ShopC@@3PAVCShop@@A ; ShopC
  000d5	e8 00 00 00 00	 call	 ?LoadShopItem@CShop@@QAEHPAD@Z ; CShop::LoadShopItem

; 359  : 			ShopC[6].LoadShopItem(gDirPath.GetNewPath("shop6.txt"));

  000da	68 00 00 00 00	 push	 OFFSET ??_C@_09FKCNCPJG@shop6?4txt@
  000df	b9 00 00 00 00	 mov	 ecx, OFFSET ?gDirPath@@3VCDirPath@@A ; gDirPath
  000e4	e8 00 00 00 00	 call	 ?GetNewPath@CDirPath@@QAEPADPAD@Z ; CDirPath::GetNewPath
  000e9	50		 push	 eax
  000ea	b8 14 52 00 00	 mov	 eax, 21012		; 00005214H
  000ef	6b c8 06	 imul	 ecx, eax, 6
  000f2	81 c1 00 00 00
	00		 add	 ecx, OFFSET ?ShopC@@3PAVCShop@@A ; ShopC
  000f8	e8 00 00 00 00	 call	 ?LoadShopItem@CShop@@QAEHPAD@Z ; CShop::LoadShopItem

; 360  : 			ShopC[7].LoadShopItem(gDirPath.GetNewPath("shop7.txt"));

  000fd	68 00 00 00 00	 push	 OFFSET ??_C@_09JBHBPMDD@shop7?4txt@
  00102	b9 00 00 00 00	 mov	 ecx, OFFSET ?gDirPath@@3VCDirPath@@A ; gDirPath
  00107	e8 00 00 00 00	 call	 ?GetNewPath@CDirPath@@QAEPADPAD@Z ; CDirPath::GetNewPath
  0010c	50		 push	 eax
  0010d	b8 14 52 00 00	 mov	 eax, 21012		; 00005214H
  00112	6b c8 07	 imul	 ecx, eax, 7
  00115	81 c1 00 00 00
	00		 add	 ecx, OFFSET ?ShopC@@3PAVCShop@@A ; ShopC
  0011b	e8 00 00 00 00	 call	 ?LoadShopItem@CShop@@QAEHPAD@Z ; CShop::LoadShopItem

; 361  : 			ShopC[8].LoadShopItem(gDirPath.GetNewPath("shop8.txt"));

  00120	68 00 00 00 00	 push	 OFFSET ??_C@_09GACHEOOG@shop8?4txt@
  00125	b9 00 00 00 00	 mov	 ecx, OFFSET ?gDirPath@@3VCDirPath@@A ; gDirPath
  0012a	e8 00 00 00 00	 call	 ?GetNewPath@CDirPath@@QAEPADPAD@Z ; CDirPath::GetNewPath
  0012f	50		 push	 eax
  00130	b9 14 52 00 00	 mov	 ecx, 21012		; 00005214H
  00135	c1 e1 03	 shl	 ecx, 3
  00138	81 c1 00 00 00
	00		 add	 ecx, OFFSET ?ShopC@@3PAVCShop@@A ; ShopC
  0013e	e8 00 00 00 00	 call	 ?LoadShopItem@CShop@@QAEHPAD@Z ; CShop::LoadShopItem

; 362  : 			ShopC[9].LoadShopItem(gDirPath.GetNewPath("shop9.txt"));

  00143	68 00 00 00 00	 push	 OFFSET ??_C@_09KLHLJNED@shop9?4txt@
  00148	b9 00 00 00 00	 mov	 ecx, OFFSET ?gDirPath@@3VCDirPath@@A ; gDirPath
  0014d	e8 00 00 00 00	 call	 ?GetNewPath@CDirPath@@QAEPADPAD@Z ; CDirPath::GetNewPath
  00152	50		 push	 eax
  00153	b8 14 52 00 00	 mov	 eax, 21012		; 00005214H
  00158	6b c8 09	 imul	 ecx, eax, 9
  0015b	81 c1 00 00 00
	00		 add	 ecx, OFFSET ?ShopC@@3PAVCShop@@A ; ShopC
  00161	e8 00 00 00 00	 call	 ?LoadShopItem@CShop@@QAEHPAD@Z ; CShop::LoadShopItem

; 363  : 			ShopC[10].LoadShopItem(gDirPath.GetNewPath("shop10.txt"));

  00166	68 00 00 00 00	 push	 OFFSET ??_C@_0L@JPHBGLHP@shop10?4txt@
  0016b	b9 00 00 00 00	 mov	 ecx, OFFSET ?gDirPath@@3VCDirPath@@A ; gDirPath
  00170	e8 00 00 00 00	 call	 ?GetNewPath@CDirPath@@QAEPADPAD@Z ; CDirPath::GetNewPath
  00175	50		 push	 eax
  00176	b8 14 52 00 00	 mov	 eax, 21012		; 00005214H
  0017b	6b c8 0a	 imul	 ecx, eax, 10
  0017e	81 c1 00 00 00
	00		 add	 ecx, OFFSET ?ShopC@@3PAVCShop@@A ; ShopC
  00184	e8 00 00 00 00	 call	 ?LoadShopItem@CShop@@QAEHPAD@Z ; CShop::LoadShopItem

; 364  : 		#ifdef ADD_SHOP_11_12	
; 365  : 			ShopC[11].LoadShopItem(gDirPath.GetNewPath("shop11.txt"));

  00189	68 00 00 00 00	 push	 OFFSET ??_C@_0L@FECNLINK@shop11?4txt@
  0018e	b9 00 00 00 00	 mov	 ecx, OFFSET ?gDirPath@@3VCDirPath@@A ; gDirPath
  00193	e8 00 00 00 00	 call	 ?GetNewPath@CDirPath@@QAEPADPAD@Z ; CDirPath::GetNewPath
  00198	50		 push	 eax
  00199	b8 14 52 00 00	 mov	 eax, 21012		; 00005214H
  0019e	6b c8 0b	 imul	 ecx, eax, 11
  001a1	81 c1 00 00 00
	00		 add	 ecx, OFFSET ?ShopC@@3PAVCShop@@A ; ShopC
  001a7	e8 00 00 00 00	 call	 ?LoadShopItem@CShop@@QAEHPAD@Z ; CShop::LoadShopItem

; 366  : 			ShopC[12].LoadShopItem(gDirPath.GetNewPath("shop12.txt"));

  001ac	68 00 00 00 00	 push	 OFFSET ??_C@_0L@NCLJMKHE@shop12?4txt@
  001b1	b9 00 00 00 00	 mov	 ecx, OFFSET ?gDirPath@@3VCDirPath@@A ; gDirPath
  001b6	e8 00 00 00 00	 call	 ?GetNewPath@CDirPath@@QAEPADPAD@Z ; CDirPath::GetNewPath
  001bb	50		 push	 eax
  001bc	b8 14 52 00 00	 mov	 eax, 21012		; 00005214H
  001c1	6b c8 0c	 imul	 ecx, eax, 12
  001c4	81 c1 00 00 00
	00		 add	 ecx, OFFSET ?ShopC@@3PAVCShop@@A ; ShopC
  001ca	e8 00 00 00 00	 call	 ?LoadShopItem@CShop@@QAEHPAD@Z ; CShop::LoadShopItem

; 367  : 		#endif
; 368  : 		#ifdef ADD_FIRECRACKER_NPC_20070306
; 369  : 			ShopC[13].LoadShopItem(gDirPath.GetNewPath("shop13.txt"));
; 370  : 		#endif
; 371  : 		#ifdef ADD_SHOP_14_20070308			
; 372  : 			ShopC[14].LoadShopItem(gDirPath.GetNewPath("shop14.txt"));
; 373  : 		#endif
; 374  : 		#ifdef ADD_SEASON_3_NEW_MAP_20070910
; 375  : 			ShopC[15].LoadShopItem(gDirPath.GetNewPath("shop15.txt"));
; 376  : 			ShopC[16].LoadShopItem(gDirPath.GetNewPath("shop16.txt"));
; 377  : 			ShopC[17].LoadShopItem(gDirPath.GetNewPath("shop17.txt"));
; 378  : 		#endif
; 379  : 		#ifdef ADD_GAMBLING_20090120
; 380  : 			ShopC[18].LoadShopItem(gDirPath.GetNewPath("shop18.txt"));
; 381  : 		#endif // ADD_GAMBLING_20090120
; 382  : 	#endif
; 383  : #endif
; 384  : 
; 385  : 	
; 386  : 	LogAdd(lMsg.Get(465));

  001cf	68 d1 01 00 00	 push	 465			; 000001d1H
  001d4	b9 00 00 00 00	 mov	 ecx, OFFSET ?lMsg@@3VCMsg@@A ; lMsg
  001d9	ff 15 00 00 00
	00		 call	 DWORD PTR __imp_?Get@CMsg@@QAEPADH@Z
  001df	50		 push	 eax
  001e0	ff 15 00 00 00
	00		 call	 DWORD PTR ?LogAdd@@3P6AXPADZZA ; LogAdd
  001e6	83 c4 04	 add	 esp, 4

; 387  : 	return TRUE;

  001e9	b8 01 00 00 00	 mov	 eax, 1

; 388  : }

  001ee	5f		 pop	 edi
  001ef	5e		 pop	 esi
  001f0	5b		 pop	 ebx
  001f1	8b e5		 mov	 esp, ebp
  001f3	5d		 pop	 ebp
  001f4	c3		 ret	 0
?ShopDataLoad@@YAHXZ ENDP				; ShopDataLoad
_TEXT	ENDS
; Function compile flags: /Odtp /ZI
;	COMDAT ??_GCShop@@UAEPAXI@Z
_TEXT	SEGMENT
_this$ = -4						; size = 4
___flags$ = 8						; size = 4
??_GCShop@@UAEPAXI@Z PROC				; CShop::`scalar deleting destructor', COMDAT
; _this$ = ecx
  00000	55		 push	 ebp
  00001	8b ec		 mov	 ebp, esp
  00003	83 ec 44	 sub	 esp, 68			; 00000044H
  00006	53		 push	 ebx
  00007	56		 push	 esi
  00008	57		 push	 edi
  00009	89 4d fc	 mov	 DWORD PTR _this$[ebp], ecx
  0000c	8b 4d fc	 mov	 ecx, DWORD PTR _this$[ebp]
  0000f	e8 00 00 00 00	 call	 ??1CShop@@UAE@XZ	; CShop::~CShop
  00014	8b 45 08	 mov	 eax, DWORD PTR ___flags$[ebp]
  00017	83 e0 01	 and	 eax, 1
  0001a	74 11		 je	 SHORT $LN2@scalar
  0001c	68 14 52 00 00	 push	 21012			; 00005214H
  00021	8b 45 fc	 mov	 eax, DWORD PTR _this$[ebp]
  00024	50		 push	 eax
  00025	e8 00 00 00 00	 call	 ??3@YAXPAXI@Z		; operator delete
  0002a	83 c4 08	 add	 esp, 8
$LN2@scalar:
  0002d	8b 45 fc	 mov	 eax, DWORD PTR _this$[ebp]
  00030	5f		 pop	 edi
  00031	5e		 pop	 esi
  00032	5b		 pop	 ebx
  00033	8b e5		 mov	 esp, ebp
  00035	5d		 pop	 ebp
  00036	c2 04 00	 ret	 4
??_GCShop@@UAEPAXI@Z ENDP				; CShop::`scalar deleting destructor'
_TEXT	ENDS
; Function compile flags: /Odtp /ZI
; File C:\Mu Online\Mu-GS-Webzen-MC-10093\GameServer\Shop.cpp
;	COMDAT ?InentoryMapCheck@CShop@@QAEHHHHH@Z
_TEXT	SEGMENT
_blank$ = -16						; size = 4
_y$ = -12						; size = 4
_x$ = -8						; size = 4
_this$ = -4						; size = 4
_sx$ = 8						; size = 4
_sy$ = 12						; size = 4
_width$ = 16						; size = 4
_height$ = 20						; size = 4
?InentoryMapCheck@CShop@@QAEHHHHH@Z PROC		; CShop::InentoryMapCheck, COMDAT
; _this$ = ecx

; 132  : {

  00000	55		 push	 ebp
  00001	8b ec		 mov	 ebp, esp
  00003	83 ec 50	 sub	 esp, 80			; 00000050H
  00006	53		 push	 ebx
  00007	56		 push	 esi
  00008	57		 push	 edi
  00009	89 4d fc	 mov	 DWORD PTR _this$[ebp], ecx

; 133  : 	int x, y;
; 134  : 	int blank = 0;

  0000c	c7 45 f0 00 00
	00 00		 mov	 DWORD PTR _blank$[ebp], 0

; 135  : 
; 136  : 	if( (sx+width) > 8 ) // 가로 크기를 넘었으면

  00013	8b 45 08	 mov	 eax, DWORD PTR _sx$[ebp]
  00016	03 45 10	 add	 eax, DWORD PTR _width$[ebp]
  00019	83 f8 08	 cmp	 eax, 8
  0001c	7e 08		 jle	 SHORT $LN14@InentoryMa

; 137  : 	{
; 138  : 		return -1;

  0001e	83 c8 ff	 or	 eax, -1
  00021	e9 ce 00 00 00	 jmp	 $LN1@InentoryMa
$LN14@InentoryMa:

; 139  : 	}
; 140  : 	if( (sy+height) > 15 ) {

  00026	8b 45 0c	 mov	 eax, DWORD PTR _sy$[ebp]
  00029	03 45 14	 add	 eax, DWORD PTR _height$[ebp]
  0002c	83 f8 0f	 cmp	 eax, 15			; 0000000fH
  0002f	7e 08		 jle	 SHORT $LN15@InentoryMa

; 141  : 		return -1;

  00031	83 c8 ff	 or	 eax, -1
  00034	e9 bb 00 00 00	 jmp	 $LN1@InentoryMa
$LN15@InentoryMa:

; 142  : 	}
; 143  : 	
; 144  : 	for( y=0; y<height; y++)

  00039	c7 45 f4 00 00
	00 00		 mov	 DWORD PTR _y$[ebp], 0
  00040	eb 09		 jmp	 SHORT $LN4@InentoryMa
$LN2@InentoryMa:
  00042	8b 45 f4	 mov	 eax, DWORD PTR _y$[ebp]
  00045	83 c0 01	 add	 eax, 1
  00048	89 45 f4	 mov	 DWORD PTR _y$[ebp], eax
$LN4@InentoryMa:
  0004b	8b 45 f4	 mov	 eax, DWORD PTR _y$[ebp]
  0004e	3b 45 14	 cmp	 eax, DWORD PTR _height$[ebp]
  00051	7d 41		 jge	 SHORT $LN3@InentoryMa

; 145  : 	{		
; 146  : 		for(x=0; x<width; x++)

  00053	c7 45 f8 00 00
	00 00		 mov	 DWORD PTR _x$[ebp], 0
  0005a	eb 09		 jmp	 SHORT $LN7@InentoryMa
$LN5@InentoryMa:
  0005c	8b 45 f8	 mov	 eax, DWORD PTR _x$[ebp]
  0005f	83 c0 01	 add	 eax, 1
  00062	89 45 f8	 mov	 DWORD PTR _x$[ebp], eax
$LN7@InentoryMa:
  00065	8b 45 f8	 mov	 eax, DWORD PTR _x$[ebp]
  00068	3b 45 10	 cmp	 eax, DWORD PTR _width$[ebp]
  0006b	7d 25		 jge	 SHORT $LN6@InentoryMa

; 147  : 		{
; 148  : 			if( ShopInventoryMap[((sy+y)*8)+(sx+x)] ) 

  0006d	8b 45 0c	 mov	 eax, DWORD PTR _sy$[ebp]
  00070	03 45 f4	 add	 eax, DWORD PTR _y$[ebp]
  00073	8b 4d 08	 mov	 ecx, DWORD PTR _sx$[ebp]
  00076	03 4d f8	 add	 ecx, DWORD PTR _x$[ebp]
  00079	03 4d fc	 add	 ecx, DWORD PTR _this$[ebp]
  0007c	0f b6 54 c1 04	 movzx	 edx, BYTE PTR [ecx+eax*8+4]
  00081	85 d2		 test	 edx, edx
  00083	74 0b		 je	 SHORT $LN16@InentoryMa

; 149  : 			{
; 150  : 				blank++;

  00085	8b 45 f0	 mov	 eax, DWORD PTR _blank$[ebp]
  00088	83 c0 01	 add	 eax, 1
  0008b	89 45 f0	 mov	 DWORD PTR _blank$[ebp], eax

; 151  : 				break;

  0008e	eb 02		 jmp	 SHORT $LN6@InentoryMa
$LN16@InentoryMa:

; 152  : 			}
; 153  : 		}

  00090	eb ca		 jmp	 SHORT $LN5@InentoryMa
$LN6@InentoryMa:

; 154  : 	}

  00092	eb ae		 jmp	 SHORT $LN2@InentoryMa
$LN3@InentoryMa:

; 155  : 	if( blank == 0 ) 

  00094	83 7d f0 00	 cmp	 DWORD PTR _blank$[ebp], 0
  00098	75 57		 jne	 SHORT $LN17@InentoryMa

; 156  : 	{
; 157  : 		for( y=0; y<height; y++)

  0009a	c7 45 f4 00 00
	00 00		 mov	 DWORD PTR _y$[ebp], 0
  000a1	eb 09		 jmp	 SHORT $LN10@InentoryMa
$LN8@InentoryMa:
  000a3	8b 45 f4	 mov	 eax, DWORD PTR _y$[ebp]
  000a6	83 c0 01	 add	 eax, 1
  000a9	89 45 f4	 mov	 DWORD PTR _y$[ebp], eax
$LN10@InentoryMa:
  000ac	8b 45 f4	 mov	 eax, DWORD PTR _y$[ebp]
  000af	3b 45 14	 cmp	 eax, DWORD PTR _height$[ebp]
  000b2	7d 32		 jge	 SHORT $LN9@InentoryMa

; 158  : 		{
; 159  : 			for(x=0; x<width; x++)

  000b4	c7 45 f8 00 00
	00 00		 mov	 DWORD PTR _x$[ebp], 0
  000bb	eb 09		 jmp	 SHORT $LN13@InentoryMa
$LN11@InentoryMa:
  000bd	8b 45 f8	 mov	 eax, DWORD PTR _x$[ebp]
  000c0	83 c0 01	 add	 eax, 1
  000c3	89 45 f8	 mov	 DWORD PTR _x$[ebp], eax
$LN13@InentoryMa:
  000c6	8b 45 f8	 mov	 eax, DWORD PTR _x$[ebp]
  000c9	3b 45 10	 cmp	 eax, DWORD PTR _width$[ebp]
  000cc	7d 16		 jge	 SHORT $LN12@InentoryMa

; 160  : 			{
; 161  : 				ShopInventoryMap[((sy+y)*8)+(sx+x)] = 1;

  000ce	8b 45 0c	 mov	 eax, DWORD PTR _sy$[ebp]
  000d1	03 45 f4	 add	 eax, DWORD PTR _y$[ebp]
  000d4	8b 4d 08	 mov	 ecx, DWORD PTR _sx$[ebp]
  000d7	03 4d f8	 add	 ecx, DWORD PTR _x$[ebp]
  000da	03 4d fc	 add	 ecx, DWORD PTR _this$[ebp]
  000dd	c6 44 c1 04 01	 mov	 BYTE PTR [ecx+eax*8+4], 1

; 162  : 			}

  000e2	eb d9		 jmp	 SHORT $LN11@InentoryMa
$LN12@InentoryMa:

; 163  : 		}

  000e4	eb bd		 jmp	 SHORT $LN8@InentoryMa
$LN9@InentoryMa:

; 164  : 		return ((sy*8)+sx);

  000e6	8b 45 0c	 mov	 eax, DWORD PTR _sy$[ebp]
  000e9	8b 4d 08	 mov	 ecx, DWORD PTR _sx$[ebp]
  000ec	8d 04 c1	 lea	 eax, DWORD PTR [ecx+eax*8]
  000ef	eb 03		 jmp	 SHORT $LN1@InentoryMa
$LN17@InentoryMa:

; 165  : 	}
; 166  : 	return -1;

  000f1	83 c8 ff	 or	 eax, -1
$LN1@InentoryMa:

; 167  : }

  000f4	5f		 pop	 edi
  000f5	5e		 pop	 esi
  000f6	5b		 pop	 ebx
  000f7	8b e5		 mov	 esp, ebp
  000f9	5d		 pop	 ebp
  000fa	c2 10 00	 ret	 16			; 00000010H
?InentoryMapCheck@CShop@@QAEHHHHH@Z ENDP		; CShop::InentoryMapCheck
_TEXT	ENDS
; Function compile flags: /Odtp /ZI
; File C:\Mu Online\Mu-GS-Webzen-MC-10093\GameServer\Shop.cpp
;	COMDAT ?InsertItem@CShop@@QAEHHHHHHHH@Z
_TEXT	SEGMENT
_blank$ = -28						; size = 4
_y$ = -24						; size = 4
_x$ = -20						; size = 4
_height$ = -16						; size = 4
_width$ = -12						; size = 4
_itemp$ = -8						; size = 4
_this$ = -4						; size = 4
_type$ = 8						; size = 4
_index$ = 12						; size = 4
_level$ = 16						; size = 4
_dur$ = 20						; size = 4
_op1$ = 24						; size = 4
_op2$ = 28						; size = 4
_op3$ = 32						; size = 4
?InsertItem@CShop@@QAEHHHHHHHH@Z PROC			; CShop::InsertItem, COMDAT
; _this$ = ecx

; 56   : {

  00000	55		 push	 ebp
  00001	8b ec		 mov	 ebp, esp
  00003	83 ec 5c	 sub	 esp, 92			; 0000005cH
  00006	53		 push	 ebx
  00007	56		 push	 esi
  00008	57		 push	 edi
  00009	89 4d fc	 mov	 DWORD PTR _this$[ebp], ecx

; 57   : 	int itemp;
; 58   : 	int width, height;
; 59   : 	int x, y;
; 60   : 	int blank=-1;

  0000c	c7 45 e4 ff ff
	ff ff		 mov	 DWORD PTR _blank$[ebp], -1

; 61   : 
; 62   : 	itemp = MAKE_ITEMNUM( type, index );

  00013	8b 45 0c	 mov	 eax, DWORD PTR _index$[ebp]
  00016	50		 push	 eax
  00017	8b 4d 08	 mov	 ecx, DWORD PTR _type$[ebp]
  0001a	51		 push	 ecx
  0001b	e8 00 00 00 00	 call	 ?MakeItemNumber@@YAHHH@Z ; MakeItemNumber
  00020	83 c4 08	 add	 esp, 8
  00023	89 45 f8	 mov	 DWORD PTR _itemp$[ebp], eax

; 63   : 	if( itemp < 0 ) 

  00026	83 7d f8 00	 cmp	 DWORD PTR _itemp$[ebp], 0
  0002a	7d 37		 jge	 SHORT $LN8@InsertItem

; 64   : 	{	
; 65   : 		MsgBox(lMsg.Get(565), __FILE__, __LINE__, type, index);

  0002c	8b 45 0c	 mov	 eax, DWORD PTR _index$[ebp]
  0002f	50		 push	 eax
  00030	8b 4d 08	 mov	 ecx, DWORD PTR _type$[ebp]
  00033	51		 push	 ecx
  00034	8b 15 00 00 00
	00		 mov	 edx, DWORD PTR ?__LINE__Var@?0??InsertItem@CShop@@QAEHHHHHHHH@Z@4JA
  0003a	83 c2 09	 add	 edx, 9
  0003d	52		 push	 edx
  0003e	68 00 00 00 00	 push	 OFFSET ??_C@_0DH@CLFPJACO@C?3?2Mu?5Online?2Mu?9GS?9Webzen?9MC?910@
  00043	68 35 02 00 00	 push	 565			; 00000235H
  00048	b9 00 00 00 00	 mov	 ecx, OFFSET ?lMsg@@3VCMsg@@A ; lMsg
  0004d	ff 15 00 00 00
	00		 call	 DWORD PTR __imp_?Get@CMsg@@QAEPADH@Z
  00053	50		 push	 eax
  00054	e8 00 00 00 00	 call	 ?MsgBox@@YAXPADZZ	; MsgBox
  00059	83 c4 14	 add	 esp, 20			; 00000014H

; 66   : 		return FALSE;

  0005c	33 c0		 xor	 eax, eax
  0005e	e9 14 02 00 00	 jmp	 $LN1@InsertItem
$LN8@InsertItem:

; 67   : 	}
; 68   : 
; 69   : 	ItemGetSize( itemp, width, height);

  00063	8d 45 f0	 lea	 eax, DWORD PTR _height$[ebp]
  00066	50		 push	 eax
  00067	8d 4d f4	 lea	 ecx, DWORD PTR _width$[ebp]
  0006a	51		 push	 ecx
  0006b	8b 55 f8	 mov	 edx, DWORD PTR _itemp$[ebp]
  0006e	52		 push	 edx
  0006f	e8 00 00 00 00	 call	 ?ItemGetSize@@YAXHAAH0@Z ; ItemGetSize
  00074	83 c4 0c	 add	 esp, 12			; 0000000cH

; 70   : 
; 71   : 	if( width < 0 || height < 0 ) 

  00077	83 7d f4 00	 cmp	 DWORD PTR _width$[ebp], 0
  0007b	7c 06		 jl	 SHORT $LN10@InsertItem
  0007d	83 7d f0 00	 cmp	 DWORD PTR _height$[ebp], 0
  00081	7d 2e		 jge	 SHORT $LN9@InsertItem
$LN10@InsertItem:

; 72   : 	{
; 73   : 		MsgBox(lMsg.Get(566), __FILE__, __LINE__);

  00083	a1 00 00 00 00	 mov	 eax, DWORD PTR ?__LINE__Var@?0??InsertItem@CShop@@QAEHHHHHHHH@Z@4JA
  00088	83 c0 11	 add	 eax, 17			; 00000011H
  0008b	50		 push	 eax
  0008c	68 00 00 00 00	 push	 OFFSET ??_C@_0DH@CLFPJACO@C?3?2Mu?5Online?2Mu?9GS?9Webzen?9MC?910@
  00091	68 36 02 00 00	 push	 566			; 00000236H
  00096	b9 00 00 00 00	 mov	 ecx, OFFSET ?lMsg@@3VCMsg@@A ; lMsg
  0009b	ff 15 00 00 00
	00		 call	 DWORD PTR __imp_?Get@CMsg@@QAEPADH@Z
  000a1	50		 push	 eax
  000a2	e8 00 00 00 00	 call	 ?MsgBox@@YAXPADZZ	; MsgBox
  000a7	83 c4 0c	 add	 esp, 12			; 0000000cH

; 74   : 		return FALSE;

  000aa	33 c0		 xor	 eax, eax
  000ac	e9 c6 01 00 00	 jmp	 $LN1@InsertItem
$LN9@InsertItem:

; 75   : 	}
; 76   : 
; 77   : 	for( y=0; y<15; y++)

  000b1	c7 45 e8 00 00
	00 00		 mov	 DWORD PTR _y$[ebp], 0
  000b8	eb 09		 jmp	 SHORT $LN4@InsertItem
$LN2@InsertItem:
  000ba	8b 45 e8	 mov	 eax, DWORD PTR _y$[ebp]
  000bd	83 c0 01	 add	 eax, 1
  000c0	89 45 e8	 mov	 DWORD PTR _y$[ebp], eax
$LN4@InsertItem:
  000c3	83 7d e8 0f	 cmp	 DWORD PTR _y$[ebp], 15	; 0000000fH
  000c7	7d 56		 jge	 SHORT $LN3@InsertItem

; 78   : 	{
; 79   : 		for( x=0; x<8; x++)

  000c9	c7 45 ec 00 00
	00 00		 mov	 DWORD PTR _x$[ebp], 0
  000d0	eb 09		 jmp	 SHORT $LN7@InsertItem
$LN5@InsertItem:
  000d2	8b 45 ec	 mov	 eax, DWORD PTR _x$[ebp]
  000d5	83 c0 01	 add	 eax, 1
  000d8	89 45 ec	 mov	 DWORD PTR _x$[ebp], eax
$LN7@InsertItem:
  000db	83 7d ec 08	 cmp	 DWORD PTR _x$[ebp], 8
  000df	7d 3c		 jge	 SHORT $LN6@InsertItem

; 80   : 		{
; 81   : 			// 비어있는지 체크
; 82   : 			if( ShopInventoryMap[(y*8)+x] == 0 )

  000e1	8b 45 e8	 mov	 eax, DWORD PTR _y$[ebp]
  000e4	8b 4d ec	 mov	 ecx, DWORD PTR _x$[ebp]
  000e7	8d 14 c1	 lea	 edx, DWORD PTR [ecx+eax*8]
  000ea	8b 45 fc	 mov	 eax, DWORD PTR _this$[ebp]
  000ed	0f b6 4c 10 04	 movzx	 ecx, BYTE PTR [eax+edx+4]
  000f2	85 c9		 test	 ecx, ecx
  000f4	75 25		 jne	 SHORT $LN12@InsertItem

; 83   : 			{
; 84   : 				blank = InentoryMapCheck( x, y, width, height);

  000f6	8b 45 f0	 mov	 eax, DWORD PTR _height$[ebp]
  000f9	50		 push	 eax
  000fa	8b 4d f4	 mov	 ecx, DWORD PTR _width$[ebp]
  000fd	51		 push	 ecx
  000fe	8b 55 e8	 mov	 edx, DWORD PTR _y$[ebp]
  00101	52		 push	 edx
  00102	8b 45 ec	 mov	 eax, DWORD PTR _x$[ebp]
  00105	50		 push	 eax
  00106	8b 4d fc	 mov	 ecx, DWORD PTR _this$[ebp]
  00109	e8 00 00 00 00	 call	 ?InentoryMapCheck@CShop@@QAEHHHHH@Z ; CShop::InentoryMapCheck
  0010e	89 45 e4	 mov	 DWORD PTR _blank$[ebp], eax

; 85   : 				if( blank >= 0 ) goto SearchOk;

  00111	83 7d e4 00	 cmp	 DWORD PTR _blank$[ebp], 0
  00115	7c 04		 jl	 SHORT $LN12@InsertItem
  00117	eb 2e		 jmp	 SHORT $LN13@InsertItem
  00119	eb 2c		 jmp	 SHORT $SearchOk$17
$LN12@InsertItem:

; 86   : 			}
; 87   : 		}

  0011b	eb b5		 jmp	 SHORT $LN5@InsertItem
$LN6@InsertItem:

; 88   : 	}

  0011d	eb 9b		 jmp	 SHORT $LN2@InsertItem
$LN3@InsertItem:

; 89   : 
; 90   : 	if( blank < 0 ) 

  0011f	83 7d e4 00	 cmp	 DWORD PTR _blank$[ebp], 0
  00123	7d 22		 jge	 SHORT $LN14@InsertItem

; 91   : 	{
; 92   : 		MsgBox("error-L2 : %s %d",__FILE__, __LINE__);

  00125	a1 00 00 00 00	 mov	 eax, DWORD PTR ?__LINE__Var@?0??InsertItem@CShop@@QAEHHHHHHHH@Z@4JA
  0012a	83 c0 24	 add	 eax, 36			; 00000024H
  0012d	50		 push	 eax
  0012e	68 00 00 00 00	 push	 OFFSET ??_C@_0DH@CLFPJACO@C?3?2Mu?5Online?2Mu?9GS?9Webzen?9MC?910@
  00133	68 00 00 00 00	 push	 OFFSET ??_C@_0BB@FOBLMGCK@error?9L2?5?3?5?$CFs?5?$CFd@
  00138	e8 00 00 00 00	 call	 ?MsgBox@@YAXPADZZ	; MsgBox
  0013d	83 c4 0c	 add	 esp, 12			; 0000000cH

; 93   : 		return FALSE;

  00140	33 c0		 xor	 eax, eax
  00142	e9 30 01 00 00	 jmp	 $LN1@InsertItem
$LN14@InsertItem:
$LN13@InsertItem:
$SearchOk$17:

; 94   : 	}
; 95   : 
; 96   : SearchOk :	// GO TO
; 97   : 
; 98   : 	m_item[blank].m_Level = level;

  00147	69 45 e4 a8 00
	00 00		 imul	 eax, DWORD PTR _blank$[ebp], 168
  0014e	8b 4d fc	 mov	 ecx, DWORD PTR _this$[ebp]
  00151	66 8b 55 10	 mov	 dx, WORD PTR _level$[ebp]
  00155	66 89 94 01 88
	00 00 00	 mov	 WORD PTR [ecx+eax+136], dx

; 99   : 
; 100  : 	if( dur == 0 )

  0015d	83 7d 14 00	 cmp	 DWORD PTR _dur$[ebp], 0
  00161	75 24		 jne	 SHORT $LN15@InsertItem

; 101  : 	{
; 102  : 		dur = ItemGetDurability(MAKE_ITEMNUM(type, index), level, 0, 0);

  00163	6a 00		 push	 0
  00165	6a 00		 push	 0
  00167	8b 45 10	 mov	 eax, DWORD PTR _level$[ebp]
  0016a	50		 push	 eax
  0016b	8b 4d 0c	 mov	 ecx, DWORD PTR _index$[ebp]
  0016e	51		 push	 ecx
  0016f	8b 55 08	 mov	 edx, DWORD PTR _type$[ebp]
  00172	52		 push	 edx
  00173	e8 00 00 00 00	 call	 ?MakeItemNumber@@YAHHH@Z ; MakeItemNumber
  00178	83 c4 08	 add	 esp, 8
  0017b	50		 push	 eax
  0017c	e8 00 00 00 00	 call	 ?ItemGetDurability@@YAHHHHH@Z ; ItemGetDurability
  00181	83 c4 10	 add	 esp, 16			; 00000010H
  00184	89 45 14	 mov	 DWORD PTR _dur$[ebp], eax
$LN15@InsertItem:

; 103  : 	}
; 104  : 
; 105  : 	m_item[blank].m_Durability = (float)dur;

  00187	f3 0f 2a 45 14	 cvtsi2ss xmm0, DWORD PTR _dur$[ebp]
  0018c	69 45 e4 a8 00
	00 00		 imul	 eax, DWORD PTR _blank$[ebp], 168
  00193	8b 4d fc	 mov	 ecx, DWORD PTR _this$[ebp]
  00196	f3 0f 11 84 01
	a4 00 00 00	 movss	 DWORD PTR [ecx+eax+164], xmm0

; 106  : 	m_item[blank].Convert(itemp, op1, op2, op3);	

  0019f	6a 01		 push	 1
  001a1	6a 00		 push	 0
  001a3	6a 00		 push	 0
  001a5	0f b6 45 20	 movzx	 eax, BYTE PTR _op3$[ebp]
  001a9	50		 push	 eax
  001aa	0f b6 4d 1c	 movzx	 ecx, BYTE PTR _op2$[ebp]
  001ae	51		 push	 ecx
  001af	0f b6 55 18	 movzx	 edx, BYTE PTR _op1$[ebp]
  001b3	52		 push	 edx
  001b4	8b 45 f8	 mov	 eax, DWORD PTR _itemp$[ebp]
  001b7	50		 push	 eax
  001b8	69 4d e4 a8 00
	00 00		 imul	 ecx, DWORD PTR _blank$[ebp], 168
  001bf	8b 55 fc	 mov	 edx, DWORD PTR _this$[ebp]
  001c2	8d 8c 0a 80 00
	00 00		 lea	 ecx, DWORD PTR [edx+ecx+128]
  001c9	e8 00 00 00 00	 call	 ?Convert@CItem@@QAEXHEEEEEE@Z ; CItem::Convert

; 107  : 	m_item[blank].Value();

  001ce	69 45 e4 a8 00
	00 00		 imul	 eax, DWORD PTR _blank$[ebp], 168
  001d5	8b 4d fc	 mov	 ecx, DWORD PTR _this$[ebp]
  001d8	8d 8c 01 80 00
	00 00		 lea	 ecx, DWORD PTR [ecx+eax+128]
  001df	e8 00 00 00 00	 call	 ?Value@CItem@@QAEXXZ	; CItem::Value

; 108  : 
; 109  : #ifdef MODIFY_SEASON4_SHOP_SOCKET_ITEM_MAKE_SLOT_20080808
; 110  : 	if( g_SocketOptionSystem.IsEnableSocketItem( itemp ) == true )
; 111  : 	{
; 112  : 		// 소켓 아이템인 경우
; 113  : 		g_SocketOptionSystem.MakeSocketSlot( &m_item[blank], g_ShopBuySocketItemSlotCount );
; 114  : 	}
; 115  : #endif // MODIFY_SEASON4_SHOP_SOCKET_ITEM_MAKE_SLOT_20080808
; 116  : 
; 117  : 	// 미리패킷 데이터를 만든다.
; 118  : 	SendItemData[SendItemDataLen] = blank;

  001e4	8b 45 fc	 mov	 eax, DWORD PTR _this$[ebp]
  001e7	8b 88 10 52 00
	00		 mov	 ecx, DWORD PTR [eax+21008]
  001ed	8b 55 fc	 mov	 edx, DWORD PTR _this$[ebp]
  001f0	8a 45 e4	 mov	 al, BYTE PTR _blank$[ebp]
  001f3	88 84 0a 40 4f
	00 00		 mov	 BYTE PTR [edx+ecx+20288], al

; 119  : 	SendItemDataLen += 1;

  001fa	8b 45 fc	 mov	 eax, DWORD PTR _this$[ebp]
  001fd	8b 88 10 52 00
	00		 mov	 ecx, DWORD PTR [eax+21008]
  00203	83 c1 01	 add	 ecx, 1
  00206	8b 55 fc	 mov	 edx, DWORD PTR _this$[ebp]
  00209	89 8a 10 52 00
	00		 mov	 DWORD PTR [edx+21008], ecx

; 120  : 	ItemByteConvert( (SendItemData+SendItemDataLen), m_item[blank] );

  0020f	69 45 e4 a8 00
	00 00		 imul	 eax, DWORD PTR _blank$[ebp], 168
  00216	8b 4d fc	 mov	 ecx, DWORD PTR _this$[ebp]
  00219	8d b4 01 80 00
	00 00		 lea	 esi, DWORD PTR [ecx+eax+128]
  00220	81 ec a8 00 00
	00		 sub	 esp, 168		; 000000a8H
  00226	b9 2a 00 00 00	 mov	 ecx, 42			; 0000002aH
  0022b	8b fc		 mov	 edi, esp
  0022d	f3 a5		 rep movsd
  0022f	8b 55 fc	 mov	 edx, DWORD PTR _this$[ebp]
  00232	8b 82 10 52 00
	00		 mov	 eax, DWORD PTR [edx+21008]
  00238	8b 4d fc	 mov	 ecx, DWORD PTR _this$[ebp]
  0023b	8d 94 01 40 4f
	00 00		 lea	 edx, DWORD PTR [ecx+eax+20288]
  00242	52		 push	 edx
  00243	e8 00 00 00 00	 call	 ?ItemByteConvert@@YAXPAEVCItem@@@Z ; ItemByteConvert
  00248	81 c4 ac 00 00
	00		 add	 esp, 172		; 000000acH

; 121  : 
; 122  : 	SendItemDataLen += ITEM_BUFFER_SIZE;

  0024e	8b 45 fc	 mov	 eax, DWORD PTR _this$[ebp]
  00251	8b 88 10 52 00
	00		 mov	 ecx, DWORD PTR [eax+21008]
  00257	83 c1 05	 add	 ecx, 5
  0025a	8b 55 fc	 mov	 edx, DWORD PTR _this$[ebp]
  0025d	89 8a 10 52 00
	00		 mov	 DWORD PTR [edx+21008], ecx

; 123  : 
; 124  : 	ItemCount++;

  00263	8b 45 fc	 mov	 eax, DWORD PTR _this$[ebp]
  00266	8b 48 7c	 mov	 ecx, DWORD PTR [eax+124]
  00269	83 c1 01	 add	 ecx, 1
  0026c	8b 55 fc	 mov	 edx, DWORD PTR _this$[ebp]
  0026f	89 4a 7c	 mov	 DWORD PTR [edx+124], ecx

; 125  : 	return TRUE;

  00272	b8 01 00 00 00	 mov	 eax, 1
$LN1@InsertItem:

; 126  : }

  00277	5f		 pop	 edi
  00278	5e		 pop	 esi
  00279	5b		 pop	 ebx
  0027a	8b e5		 mov	 esp, ebp
  0027c	5d		 pop	 ebp
  0027d	c2 1c 00	 ret	 28			; 0000001cH
?InsertItem@CShop@@QAEHHHHHHHH@Z ENDP			; CShop::InsertItem
_TEXT	ENDS
; Function compile flags: /Odtp /ZI
; File C:\Mu Online\Mu-GS-Webzen-MC-10093\GameServer\Shop.cpp
;	COMDAT ?LoadShopItem@CShop@@QAEHPAD@Z
_TEXT	SEGMENT
_op3$ = -36						; size = 4
_op2$ = -32						; size = 4
_op1$ = -28						; size = 4
_dur$ = -24						; size = 4
_level$ = -20						; size = 4
_index$ = -16						; size = 4
_type$ = -12						; size = 4
_Token$ = -8						; size = 4
_this$ = -4						; size = 4
_filename$ = 8						; size = 4
?LoadShopItem@CShop@@QAEHPAD@Z PROC			; CShop::LoadShopItem, COMDAT
; _this$ = ecx

; 215  : {

  00000	55		 push	 ebp
  00001	8b ec		 mov	 ebp, esp
  00003	83 ec 64	 sub	 esp, 100		; 00000064H
  00006	53		 push	 ebx
  00007	56		 push	 esi
  00008	57		 push	 edi
  00009	89 4d fc	 mov	 DWORD PTR _this$[ebp], ecx

; 216  : 	Init();

  0000c	8b 4d fc	 mov	 ecx, DWORD PTR _this$[ebp]
  0000f	e8 00 00 00 00	 call	 ?Init@CShop@@QAEXXZ	; CShop::Init

; 217  : 
; 218  : 	if((SMDFile=fopen(filename,"r")) == NULL)	

  00014	68 00 00 00 00	 push	 OFFSET ??_C@_01KDCPPGHE@r@
  00019	8b 45 08	 mov	 eax, DWORD PTR _filename$[ebp]
  0001c	50		 push	 eax
  0001d	e8 00 00 00 00	 call	 _fopen
  00022	83 c4 08	 add	 esp, 8
  00025	a3 00 00 00 00	 mov	 DWORD PTR ?SMDFile@@3PAU_iobuf@@A, eax
  0002a	83 3d 00 00 00
	00 00		 cmp	 DWORD PTR ?SMDFile@@3PAU_iobuf@@A, 0
  00031	75 18		 jne	 SHORT $LN4@LoadShopIt

; 219  : 	{
; 220  : 		MsgBox("Shop data load error %s", filename);

  00033	8b 45 08	 mov	 eax, DWORD PTR _filename$[ebp]
  00036	50		 push	 eax
  00037	68 00 00 00 00	 push	 OFFSET ??_C@_0BI@IEDKKFGG@Shop?5data?5load?5error?5?$CFs@
  0003c	e8 00 00 00 00	 call	 ?MsgBox@@YAXPADZZ	; MsgBox
  00041	83 c4 08	 add	 esp, 8

; 221  : 		return FALSE;

  00044	33 c0		 xor	 eax, eax
  00046	e9 06 01 00 00	 jmp	 $LN1@LoadShopIt
$LN4@LoadShopIt:

; 222  : 	}
; 223  : 
; 224  : 	SMDToken Token;
; 225  : 
; 226  : 	int type, index, level, dur;
; 227  : 	int op1, op2, op3;
; 228  : 	while(true)

  0004b	b8 01 00 00 00	 mov	 eax, 1
  00050	85 c0		 test	 eax, eax
  00052	0f 84 e6 00 00
	00		 je	 $LN3@LoadShopIt

; 229  : 	{
; 230  : 		Token = (*GetToken)();

  00058	e8 00 00 00 00	 call	 ?GetToken@@YA?AW4SMDToken@@XZ ; GetToken
  0005d	89 45 f8	 mov	 DWORD PTR _Token$[ebp], eax

; 231  : 		if(Token == END) break;

  00060	83 7d f8 02	 cmp	 DWORD PTR _Token$[ebp], 2
  00064	75 05		 jne	 SHORT $LN5@LoadShopIt
  00066	e9 d3 00 00 00	 jmp	 $LN3@LoadShopIt
$LN5@LoadShopIt:

; 232  : 		if(Token == NUMBER)

  0006b	83 7d f8 01	 cmp	 DWORD PTR _Token$[ebp], 1
  0006f	0f 85 c4 00 00
	00		 jne	 $LN7@LoadShopIt

; 233  : 		{
; 234  : 			type  = (int)TokenNumber; 		

  00075	f3 0f 2c 05 00
	00 00 00	 cvttss2si eax, DWORD PTR ?TokenNumber@@3MA
  0007d	89 45 f4	 mov	 DWORD PTR _type$[ebp], eax

; 235  : 			Token = (*GetToken)();	index = (int)TokenNumber;		

  00080	e8 00 00 00 00	 call	 ?GetToken@@YA?AW4SMDToken@@XZ ; GetToken
  00085	89 45 f8	 mov	 DWORD PTR _Token$[ebp], eax
  00088	f3 0f 2c 05 00
	00 00 00	 cvttss2si eax, DWORD PTR ?TokenNumber@@3MA
  00090	89 45 f0	 mov	 DWORD PTR _index$[ebp], eax

; 236  : 			Token = (*GetToken)();	level = (int)TokenNumber;

  00093	e8 00 00 00 00	 call	 ?GetToken@@YA?AW4SMDToken@@XZ ; GetToken
  00098	89 45 f8	 mov	 DWORD PTR _Token$[ebp], eax
  0009b	f3 0f 2c 05 00
	00 00 00	 cvttss2si eax, DWORD PTR ?TokenNumber@@3MA
  000a3	89 45 ec	 mov	 DWORD PTR _level$[ebp], eax

; 237  : 			Token = (*GetToken)();	dur   = (int)TokenNumber;

  000a6	e8 00 00 00 00	 call	 ?GetToken@@YA?AW4SMDToken@@XZ ; GetToken
  000ab	89 45 f8	 mov	 DWORD PTR _Token$[ebp], eax
  000ae	f3 0f 2c 05 00
	00 00 00	 cvttss2si eax, DWORD PTR ?TokenNumber@@3MA
  000b6	89 45 e8	 mov	 DWORD PTR _dur$[ebp], eax

; 238  : 			Token = (*GetToken)();	op1   = (int)TokenNumber;

  000b9	e8 00 00 00 00	 call	 ?GetToken@@YA?AW4SMDToken@@XZ ; GetToken
  000be	89 45 f8	 mov	 DWORD PTR _Token$[ebp], eax
  000c1	f3 0f 2c 05 00
	00 00 00	 cvttss2si eax, DWORD PTR ?TokenNumber@@3MA
  000c9	89 45 e4	 mov	 DWORD PTR _op1$[ebp], eax

; 239  : 			Token = (*GetToken)();	op2   = (int)TokenNumber;

  000cc	e8 00 00 00 00	 call	 ?GetToken@@YA?AW4SMDToken@@XZ ; GetToken
  000d1	89 45 f8	 mov	 DWORD PTR _Token$[ebp], eax
  000d4	f3 0f 2c 05 00
	00 00 00	 cvttss2si eax, DWORD PTR ?TokenNumber@@3MA
  000dc	89 45 e0	 mov	 DWORD PTR _op2$[ebp], eax

; 240  : 			Token = (*GetToken)();	op3   = (int)TokenNumber;

  000df	e8 00 00 00 00	 call	 ?GetToken@@YA?AW4SMDToken@@XZ ; GetToken
  000e4	89 45 f8	 mov	 DWORD PTR _Token$[ebp], eax
  000e7	f3 0f 2c 05 00
	00 00 00	 cvttss2si eax, DWORD PTR ?TokenNumber@@3MA
  000ef	89 45 dc	 mov	 DWORD PTR _op3$[ebp], eax

; 241  : 
; 242  : 			if( InsertItem(type, index, level, dur, op1, op2, op3) == FALSE )

  000f2	8b 45 dc	 mov	 eax, DWORD PTR _op3$[ebp]
  000f5	50		 push	 eax
  000f6	8b 4d e0	 mov	 ecx, DWORD PTR _op2$[ebp]
  000f9	51		 push	 ecx
  000fa	8b 55 e4	 mov	 edx, DWORD PTR _op1$[ebp]
  000fd	52		 push	 edx
  000fe	8b 45 e8	 mov	 eax, DWORD PTR _dur$[ebp]
  00101	50		 push	 eax
  00102	8b 4d ec	 mov	 ecx, DWORD PTR _level$[ebp]
  00105	51		 push	 ecx
  00106	8b 55 f0	 mov	 edx, DWORD PTR _index$[ebp]
  00109	52		 push	 edx
  0010a	8b 45 f4	 mov	 eax, DWORD PTR _type$[ebp]
  0010d	50		 push	 eax
  0010e	8b 4d fc	 mov	 ecx, DWORD PTR _this$[ebp]
  00111	e8 00 00 00 00	 call	 ?InsertItem@CShop@@QAEHHHHHHHH@Z ; CShop::InsertItem
  00116	85 c0		 test	 eax, eax
  00118	75 1f		 jne	 SHORT $LN7@LoadShopIt

; 243  : 			{
; 244  : 				MsgBox("error-L3 : %s %s %d", filename, __FILE__, __LINE__);

  0011a	a1 00 00 00 00	 mov	 eax, DWORD PTR ?__LINE__Var@?0??LoadShopItem@CShop@@QAEHPAD@Z@4JA
  0011f	83 c0 1d	 add	 eax, 29			; 0000001dH
  00122	50		 push	 eax
  00123	68 00 00 00 00	 push	 OFFSET ??_C@_0DH@CLFPJACO@C?3?2Mu?5Online?2Mu?9GS?9Webzen?9MC?910@
  00128	8b 4d 08	 mov	 ecx, DWORD PTR _filename$[ebp]
  0012b	51		 push	 ecx
  0012c	68 00 00 00 00	 push	 OFFSET ??_C@_0BE@LCGMGNMN@error?9L3?5?3?5?$CFs?5?$CFs?5?$CFd@
  00131	e8 00 00 00 00	 call	 ?MsgBox@@YAXPADZZ	; MsgBox
  00136	83 c4 10	 add	 esp, 16			; 00000010H
$LN7@LoadShopIt:

; 245  : 			}
; 246  : 		}
; 247  : 	}

  00139	e9 0d ff ff ff	 jmp	 $LN4@LoadShopIt
$LN3@LoadShopIt:

; 248  : 	fclose(SMDFile);

  0013e	a1 00 00 00 00	 mov	 eax, DWORD PTR ?SMDFile@@3PAU_iobuf@@A
  00143	50		 push	 eax
  00144	e8 00 00 00 00	 call	 _fclose
  00149	83 c4 04	 add	 esp, 4

; 249  : 	
; 250  : 	return TRUE;

  0014c	b8 01 00 00 00	 mov	 eax, 1
$LN1@LoadShopIt:

; 251  : }

  00151	5f		 pop	 edi
  00152	5e		 pop	 esi
  00153	5b		 pop	 ebx
  00154	8b e5		 mov	 esp, ebp
  00156	5d		 pop	 ebp
  00157	c2 04 00	 ret	 4
?LoadShopItem@CShop@@QAEHPAD@Z ENDP			; CShop::LoadShopItem
_TEXT	ENDS
; Function compile flags: /Odtp /ZI
; File C:\Mu Online\Mu-GS-Webzen-MC-10093\GameServer\Shop.cpp
;	COMDAT ?Init@CShop@@QAEXXZ
_TEXT	SEGMENT
_this$ = -4						; size = 4
?Init@CShop@@QAEXXZ PROC				; CShop::Init, COMDAT
; _this$ = ecx

; 46   : {

  00000	55		 push	 ebp
  00001	8b ec		 mov	 ebp, esp
  00003	83 ec 44	 sub	 esp, 68			; 00000044H
  00006	53		 push	 ebx
  00007	56		 push	 esi
  00008	57		 push	 edi
  00009	89 4d fc	 mov	 DWORD PTR _this$[ebp], ecx

; 47   : 	SendItemDataLen  = 0;

  0000c	8b 45 fc	 mov	 eax, DWORD PTR _this$[ebp]
  0000f	c7 80 10 52 00
	00 00 00 00 00	 mov	 DWORD PTR [eax+21008], 0

; 48   : 	ItemCount = 0;

  00019	8b 45 fc	 mov	 eax, DWORD PTR _this$[ebp]
  0001c	c7 40 7c 00 00
	00 00		 mov	 DWORD PTR [eax+124], 0

; 49   : 	ZeroMemory(ShopInventoryMap, MAX_SHOPITEM);

  00023	6a 78		 push	 120			; 00000078H
  00025	6a 00		 push	 0
  00027	8b 45 fc	 mov	 eax, DWORD PTR _this$[ebp]
  0002a	83 c0 04	 add	 eax, 4
  0002d	50		 push	 eax
  0002e	e8 00 00 00 00	 call	 _memset
  00033	83 c4 0c	 add	 esp, 12			; 0000000cH

; 50   : }

  00036	5f		 pop	 edi
  00037	5e		 pop	 esi
  00038	5b		 pop	 ebx
  00039	8b e5		 mov	 esp, ebp
  0003b	5d		 pop	 ebp
  0003c	c3		 ret	 0
?Init@CShop@@QAEXXZ ENDP				; CShop::Init
_TEXT	ENDS
; Function compile flags: /Odtp /ZI
; File C:\Mu Online\Mu-GS-Webzen-MC-10093\GameServer\Shop.cpp
;	COMDAT ??1CShop@@UAE@XZ
_TEXT	SEGMENT
_this$ = -4						; size = 4
??1CShop@@UAE@XZ PROC					; CShop::~CShop, COMDAT
; _this$ = ecx

; 38   : {

  00000	55		 push	 ebp
  00001	8b ec		 mov	 ebp, esp
  00003	83 ec 44	 sub	 esp, 68			; 00000044H
  00006	53		 push	 ebx
  00007	56		 push	 esi
  00008	57		 push	 edi
  00009	89 4d fc	 mov	 DWORD PTR _this$[ebp], ecx
  0000c	8b 45 fc	 mov	 eax, DWORD PTR _this$[ebp]
  0000f	c7 00 00 00 00
	00		 mov	 DWORD PTR [eax], OFFSET ??_7CShop@@6B@

; 39   : 
; 40   : }

  00015	5f		 pop	 edi
  00016	5e		 pop	 esi
  00017	5b		 pop	 ebx
  00018	8b e5		 mov	 esp, ebp
  0001a	5d		 pop	 ebp
  0001b	c3		 ret	 0
??1CShop@@UAE@XZ ENDP					; CShop::~CShop
_TEXT	ENDS
; Function compile flags: /Odtp /ZI
; File C:\Mu Online\Mu-GS-Webzen-MC-10093\GameServer\Shop.cpp
; File C:\Mu Online\Mu-GS-Webzen-MC-10093\GameServer\Shop.h
; File C:\Mu Online\Mu-GS-Webzen-MC-10093\GameServer\Shop.cpp
;	COMDAT ??0CShop@@QAE@XZ
_TEXT	SEGMENT
_this$ = -4						; size = 4
??0CShop@@QAE@XZ PROC					; CShop::CShop, COMDAT
; _this$ = ecx

; 34   : {

  00000	55		 push	 ebp
  00001	8b ec		 mov	 ebp, esp
  00003	83 ec 44	 sub	 esp, 68			; 00000044H
  00006	53		 push	 ebx
  00007	56		 push	 esi
  00008	57		 push	 edi
  00009	89 4d fc	 mov	 DWORD PTR _this$[ebp], ecx
  0000c	8b 45 fc	 mov	 eax, DWORD PTR _this$[ebp]
  0000f	c7 00 00 00 00
	00		 mov	 DWORD PTR [eax], OFFSET ??_7CShop@@6B@
; File C:\Mu Online\Mu-GS-Webzen-MC-10093\GameServer\Shop.h

; 18   : 	int		ItemCount;						// 아이템 개수

  00015	68 00 00 00 00	 push	 OFFSET ??0CItem@@QAE@XZ	; CItem::CItem
  0001a	6a 78		 push	 120			; 00000078H
  0001c	68 a8 00 00 00	 push	 168			; 000000a8H
  00021	8b 45 fc	 mov	 eax, DWORD PTR _this$[ebp]
  00024	05 80 00 00 00	 add	 eax, 128		; 00000080H
  00029	50		 push	 eax
  0002a	e8 00 00 00 00	 call	 ??_H@YGXPAXIIP6EPAX0@Z@Z
; File C:\Mu Online\Mu-GS-Webzen-MC-10093\GameServer\Shop.cpp

; 35   : }

  0002f	8b 45 fc	 mov	 eax, DWORD PTR _this$[ebp]
  00032	5f		 pop	 edi
  00033	5e		 pop	 esi
  00034	5b		 pop	 ebx
  00035	8b e5		 mov	 esp, ebp
  00037	5d		 pop	 ebp
  00038	c3		 ret	 0
??0CShop@@QAE@XZ ENDP					; CShop::CShop
_TEXT	ENDS
; Function compile flags: /Odtp /ZI
; File C:\Mu Online\Mu-GS-Webzen-MC-10093\Include\ReadScript.h
;	COMDAT ?GetToken@@YA?AW4SMDToken@@XZ
_TEXT	SEGMENT
tv93 = -184						; size = 4
$T1 = -180						; size = 4
_TempString$ = -112					; size = 100
_p$ = -12						; size = 4
_ch$ = -5						; size = 1
__$ArrayPad$ = -4					; size = 4
?GetToken@@YA?AW4SMDToken@@XZ PROC			; GetToken, COMDAT

; 25   : {

  00000	55		 push	 ebp
  00001	8b ec		 mov	 ebp, esp
  00003	81 ec b8 00 00
	00		 sub	 esp, 184		; 000000b8H
  00009	a1 00 00 00 00	 mov	 eax, DWORD PTR ___security_cookie
  0000e	33 c5		 xor	 eax, ebp
  00010	89 45 fc	 mov	 DWORD PTR __$ArrayPad$[ebp], eax
  00013	53		 push	 ebx
  00014	56		 push	 esi
  00015	57		 push	 edi

; 26   : 	unsigned char ch;
; 27   : 	TokenString[0] = '\0';

  00016	b8 01 00 00 00	 mov	 eax, 1
  0001b	6b c8 00	 imul	 ecx, eax, 0
  0001e	89 8d 4c ff ff
	ff		 mov	 DWORD PTR $T1[ebp], ecx
  00024	83 bd 4c ff ff
	ff 64		 cmp	 DWORD PTR $T1[ebp], 100	; 00000064H
  0002b	73 02		 jae	 SHORT $LN31@GetToken
  0002d	eb 05		 jmp	 SHORT $LN32@GetToken
$LN31@GetToken:
  0002f	e8 00 00 00 00	 call	 ___report_rangecheckfailure
$LN32@GetToken:
  00034	8b 95 4c ff ff
	ff		 mov	 edx, DWORD PTR $T1[ebp]
  0003a	c6 82 00 00 00
	00 00		 mov	 BYTE PTR ?TokenString@@3PADA[edx], 0
$LN4@GetToken:

; 28   : 	do
; 29   : 	{
; 30   : 		if ( (ch =(unsigned char) fgetc(SMDFile)) == (BYTE)EOF) return END;

  00041	a1 00 00 00 00	 mov	 eax, DWORD PTR ?SMDFile@@3PAU_iobuf@@A
  00046	50		 push	 eax
  00047	e8 00 00 00 00	 call	 _fgetc
  0004c	83 c4 04	 add	 esp, 4
  0004f	88 45 fb	 mov	 BYTE PTR _ch$[ebp], al
  00052	0f b6 4d fb	 movzx	 ecx, BYTE PTR _ch$[ebp]
  00056	81 f9 ff 00 00
	00		 cmp	 ecx, 255		; 000000ffH
  0005c	75 0a		 jne	 SHORT $LN15@GetToken
  0005e	b8 02 00 00 00	 mov	 eax, 2
  00063	e9 d9 02 00 00	 jmp	 $LN7@GetToken
$LN15@GetToken:

; 31   : 		if (ch=='/' && (ch =(unsigned char) fgetc(SMDFile) )=='/')	

  00068	0f b6 45 fb	 movzx	 eax, BYTE PTR _ch$[ebp]
  0006c	83 f8 2f	 cmp	 eax, 47			; 0000002fH
  0006f	75 56		 jne	 SHORT $LN17@GetToken
  00071	a1 00 00 00 00	 mov	 eax, DWORD PTR ?SMDFile@@3PAU_iobuf@@A
  00076	50		 push	 eax
  00077	e8 00 00 00 00	 call	 _fgetc
  0007c	83 c4 04	 add	 esp, 4
  0007f	88 45 fb	 mov	 BYTE PTR _ch$[ebp], al
  00082	0f b6 4d fb	 movzx	 ecx, BYTE PTR _ch$[ebp]
  00086	83 f9 2f	 cmp	 ecx, 47			; 0000002fH
  00089	75 3c		 jne	 SHORT $LN17@GetToken
$LN5@GetToken:

; 32   : 		{
; 33   : 			while((ch != '\n') && (ch != (BYTE)EOF)) {			// 2003.09.02 H.J.I 수정

  0008b	0f b6 45 fb	 movzx	 eax, BYTE PTR _ch$[ebp]
  0008f	83 f8 0a	 cmp	 eax, 10			; 0000000aH
  00092	74 1e		 je	 SHORT $LN6@GetToken
  00094	0f b6 45 fb	 movzx	 eax, BYTE PTR _ch$[ebp]
  00098	3d ff 00 00 00	 cmp	 eax, 255		; 000000ffH
  0009d	74 13		 je	 SHORT $LN6@GetToken

; 34   : 				ch = (unsigned char) fgetc( SMDFile);

  0009f	a1 00 00 00 00	 mov	 eax, DWORD PTR ?SMDFile@@3PAU_iobuf@@A
  000a4	50		 push	 eax
  000a5	e8 00 00 00 00	 call	 _fgetc
  000aa	83 c4 04	 add	 esp, 4
  000ad	88 45 fb	 mov	 BYTE PTR _ch$[ebp], al

; 35   : 			}

  000b0	eb d9		 jmp	 SHORT $LN5@GetToken
$LN6@GetToken:

; 36   : 
; 37   : 			if (ch == (BYTE)EOF)

  000b2	0f b6 45 fb	 movzx	 eax, BYTE PTR _ch$[ebp]
  000b6	3d ff 00 00 00	 cmp	 eax, 255		; 000000ffH
  000bb	75 0a		 jne	 SHORT $LN17@GetToken

; 38   : 				return END;

  000bd	b8 02 00 00 00	 mov	 eax, 2
  000c2	e9 7a 02 00 00	 jmp	 $LN7@GetToken
$LN17@GetToken:

; 39   : 		}
; 40   : 	} while(  isspace(ch) );

  000c7	0f b6 45 fb	 movzx	 eax, BYTE PTR _ch$[ebp]
  000cb	50		 push	 eax
  000cc	e8 00 00 00 00	 call	 _isspace
  000d1	83 c4 04	 add	 esp, 4
  000d4	85 c0		 test	 eax, eax
  000d6	0f 85 65 ff ff
	ff		 jne	 $LN4@GetToken

; 41   : 	
; 42   : 	char *p, TempString[100];
; 43   : 	switch(ch)

  000dc	0f b6 45 fb	 movzx	 eax, BYTE PTR _ch$[ebp]
  000e0	89 85 48 ff ff
	ff		 mov	 DWORD PTR tv93[ebp], eax
  000e6	8b 8d 48 ff ff
	ff		 mov	 ecx, DWORD PTR tv93[ebp]
  000ec	83 e9 22	 sub	 ecx, 34			; 00000022H
  000ef	89 8d 48 ff ff
	ff		 mov	 DWORD PTR tv93[ebp], ecx
  000f5	83 bd 48 ff ff
	ff 5b		 cmp	 DWORD PTR tv93[ebp], 91	; 0000005bH
  000fc	0f 87 86 01 00
	00		 ja	 $LN27@GetToken
  00102	8b 95 48 ff ff
	ff		 mov	 edx, DWORD PTR tv93[ebp]
  00108	0f b6 82 00 00
	00 00		 movzx	 eax, BYTE PTR $LN33@GetToken[edx]
  0010f	ff 24 85 00 00
	00 00		 jmp	 DWORD PTR $LN34@GetToken[eax*4]
$LN18@GetToken:

; 44   : 	{	
; 45   : 	case '#':
; 46   : 		return CurrentToken = COMMAND;

  00116	c7 05 00 00 00
	00 23 00 00 00	 mov	 DWORD PTR ?CurrentToken@@3W4SMDToken@@A, 35 ; 00000023H
  00120	a1 00 00 00 00	 mov	 eax, DWORD PTR ?CurrentToken@@3W4SMDToken@@A
  00125	e9 17 02 00 00	 jmp	 $LN7@GetToken
$LN19@GetToken:

; 47   : 	case ';':
; 48   : 		return CurrentToken = SEMICOLON;

  0012a	c7 05 00 00 00
	00 3b 00 00 00	 mov	 DWORD PTR ?CurrentToken@@3W4SMDToken@@A, 59 ; 0000003bH
  00134	a1 00 00 00 00	 mov	 eax, DWORD PTR ?CurrentToken@@3W4SMDToken@@A
  00139	e9 03 02 00 00	 jmp	 $LN7@GetToken
$LN20@GetToken:

; 49   : 	case ',':
; 50   : 		return CurrentToken = COMMA;

  0013e	c7 05 00 00 00
	00 2c 00 00 00	 mov	 DWORD PTR ?CurrentToken@@3W4SMDToken@@A, 44 ; 0000002cH
  00148	a1 00 00 00 00	 mov	 eax, DWORD PTR ?CurrentToken@@3W4SMDToken@@A
  0014d	e9 ef 01 00 00	 jmp	 $LN7@GetToken
$LN21@GetToken:

; 51   : 	case '{':
; 52   : 		return CurrentToken = LP;

  00152	c7 05 00 00 00
	00 7b 00 00 00	 mov	 DWORD PTR ?CurrentToken@@3W4SMDToken@@A, 123 ; 0000007bH
  0015c	a1 00 00 00 00	 mov	 eax, DWORD PTR ?CurrentToken@@3W4SMDToken@@A
  00161	e9 db 01 00 00	 jmp	 $LN7@GetToken
$LN22@GetToken:

; 53   : 	case '}':
; 54   : 		return CurrentToken = RP;

  00166	c7 05 00 00 00
	00 7d 00 00 00	 mov	 DWORD PTR ?CurrentToken@@3W4SMDToken@@A, 125 ; 0000007dH
  00170	a1 00 00 00 00	 mov	 eax, DWORD PTR ?CurrentToken@@3W4SMDToken@@A
  00175	e9 c7 01 00 00	 jmp	 $LN7@GetToken
$LN23@GetToken:

; 55   : 	case '0':	case '1':	case '2':	case '3':	case '4':
; 56   : 	case '5':	case '6':	case '7':	case '8':	case '9':
; 57   : 	case '.':	case '-':
; 58   : 		ungetc(ch,SMDFile);

  0017a	a1 00 00 00 00	 mov	 eax, DWORD PTR ?SMDFile@@3PAU_iobuf@@A
  0017f	50		 push	 eax
  00180	0f b6 4d fb	 movzx	 ecx, BYTE PTR _ch$[ebp]
  00184	51		 push	 ecx
  00185	e8 00 00 00 00	 call	 _ungetc
  0018a	83 c4 08	 add	 esp, 8

; 59   : 		p = TempString;

  0018d	8d 45 90	 lea	 eax, DWORD PTR _TempString$[ebp]
  00190	89 45 f4	 mov	 DWORD PTR _p$[ebp], eax
$LN9@GetToken:

; 60   : 		while ( (  (ch = getc(SMDFile) ) !=(BYTE)EOF) && (ch=='.' || isdigit(ch) || ch=='-') )

  00193	a1 00 00 00 00	 mov	 eax, DWORD PTR ?SMDFile@@3PAU_iobuf@@A
  00198	50		 push	 eax
  00199	e8 00 00 00 00	 call	 _getc
  0019e	83 c4 04	 add	 esp, 4
  001a1	88 45 fb	 mov	 BYTE PTR _ch$[ebp], al
  001a4	0f b6 4d fb	 movzx	 ecx, BYTE PTR _ch$[ebp]
  001a8	81 f9 ff 00 00
	00		 cmp	 ecx, 255		; 000000ffH
  001ae	74 36		 je	 SHORT $LN10@GetToken
  001b0	0f b6 45 fb	 movzx	 eax, BYTE PTR _ch$[ebp]
  001b4	83 f8 2e	 cmp	 eax, 46			; 0000002eH
  001b7	74 1a		 je	 SHORT $LN24@GetToken
  001b9	0f b6 45 fb	 movzx	 eax, BYTE PTR _ch$[ebp]
  001bd	50		 push	 eax
  001be	e8 00 00 00 00	 call	 _isdigit
  001c3	83 c4 04	 add	 esp, 4
  001c6	85 c0		 test	 eax, eax
  001c8	75 09		 jne	 SHORT $LN24@GetToken
  001ca	0f b6 45 fb	 movzx	 eax, BYTE PTR _ch$[ebp]
  001ce	83 f8 2d	 cmp	 eax, 45			; 0000002dH
  001d1	75 13		 jne	 SHORT $LN10@GetToken
$LN24@GetToken:

; 61   : 			*p++ = ch;

  001d3	8b 45 f4	 mov	 eax, DWORD PTR _p$[ebp]
  001d6	8a 4d fb	 mov	 cl, BYTE PTR _ch$[ebp]
  001d9	88 08		 mov	 BYTE PTR [eax], cl
  001db	8b 55 f4	 mov	 edx, DWORD PTR _p$[ebp]
  001de	83 c2 01	 add	 edx, 1
  001e1	89 55 f4	 mov	 DWORD PTR _p$[ebp], edx
  001e4	eb ad		 jmp	 SHORT $LN9@GetToken
$LN10@GetToken:

; 62   : 		*p = 0;

  001e6	8b 45 f4	 mov	 eax, DWORD PTR _p$[ebp]
  001e9	c6 00 00	 mov	 BYTE PTR [eax], 0

; 63   : 		TokenNumber = (float)atof(TempString);

  001ec	8d 45 90	 lea	 eax, DWORD PTR _TempString$[ebp]
  001ef	50		 push	 eax
  001f0	e8 00 00 00 00	 call	 _atof
  001f5	83 c4 04	 add	 esp, 4
  001f8	d9 1d 00 00 00
	00		 fstp	 DWORD PTR ?TokenNumber@@3MA

; 64   : 		//			sscanf(TempString," %f ",&TokenNumber);
; 65   : 		return CurrentToken = NUMBER;

  001fe	c7 05 00 00 00
	00 01 00 00 00	 mov	 DWORD PTR ?CurrentToken@@3W4SMDToken@@A, 1
  00208	a1 00 00 00 00	 mov	 eax, DWORD PTR ?CurrentToken@@3W4SMDToken@@A
  0020d	e9 2f 01 00 00	 jmp	 $LN7@GetToken
$LN25@GetToken:

; 66   : 	case '"':
; 67   : 		p = TokenString;

  00212	c7 45 f4 00 00
	00 00		 mov	 DWORD PTR _p$[ebp], OFFSET ?TokenString@@3PADA
$LN11@GetToken:

; 68   : 		while ( (  (ch = getc(SMDFile) ) !=(BYTE)EOF) && (ch!='"'))// || isalnum(ch)) )

  00219	a1 00 00 00 00	 mov	 eax, DWORD PTR ?SMDFile@@3PAU_iobuf@@A
  0021e	50		 push	 eax
  0021f	e8 00 00 00 00	 call	 _getc
  00224	83 c4 04	 add	 esp, 4
  00227	88 45 fb	 mov	 BYTE PTR _ch$[ebp], al
  0022a	0f b6 4d fb	 movzx	 ecx, BYTE PTR _ch$[ebp]
  0022e	81 f9 ff 00 00
	00		 cmp	 ecx, 255		; 000000ffH
  00234	74 1c		 je	 SHORT $LN12@GetToken
  00236	0f b6 45 fb	 movzx	 eax, BYTE PTR _ch$[ebp]
  0023a	83 f8 22	 cmp	 eax, 34			; 00000022H
  0023d	74 13		 je	 SHORT $LN12@GetToken

; 69   : 			*p++ = ch;

  0023f	8b 45 f4	 mov	 eax, DWORD PTR _p$[ebp]
  00242	8a 4d fb	 mov	 cl, BYTE PTR _ch$[ebp]
  00245	88 08		 mov	 BYTE PTR [eax], cl
  00247	8b 55 f4	 mov	 edx, DWORD PTR _p$[ebp]
  0024a	83 c2 01	 add	 edx, 1
  0024d	89 55 f4	 mov	 DWORD PTR _p$[ebp], edx
  00250	eb c7		 jmp	 SHORT $LN11@GetToken
$LN12@GetToken:

; 70   : 		if (ch!='"')

  00252	0f b6 45 fb	 movzx	 eax, BYTE PTR _ch$[ebp]
  00256	83 f8 22	 cmp	 eax, 34			; 00000022H
  00259	74 13		 je	 SHORT $LN26@GetToken

; 71   : 			ungetc(ch,SMDFile);

  0025b	a1 00 00 00 00	 mov	 eax, DWORD PTR ?SMDFile@@3PAU_iobuf@@A
  00260	50		 push	 eax
  00261	0f b6 4d fb	 movzx	 ecx, BYTE PTR _ch$[ebp]
  00265	51		 push	 ecx
  00266	e8 00 00 00 00	 call	 _ungetc
  0026b	83 c4 08	 add	 esp, 8
$LN26@GetToken:

; 72   : 		*p = 0;

  0026e	8b 45 f4	 mov	 eax, DWORD PTR _p$[ebp]
  00271	c6 00 00	 mov	 BYTE PTR [eax], 0

; 73   : 		return CurrentToken = NAME;

  00274	c7 05 00 00 00
	00 00 00 00 00	 mov	 DWORD PTR ?CurrentToken@@3W4SMDToken@@A, 0
  0027e	a1 00 00 00 00	 mov	 eax, DWORD PTR ?CurrentToken@@3W4SMDToken@@A
  00283	e9 b9 00 00 00	 jmp	 $LN7@GetToken
$LN27@GetToken:

; 74   : 	default:
; 75   : 		if (isalpha(ch))	

  00288	0f b6 45 fb	 movzx	 eax, BYTE PTR _ch$[ebp]
  0028c	50		 push	 eax
  0028d	e8 00 00 00 00	 call	 _isalpha
  00292	83 c4 04	 add	 esp, 4
  00295	85 c0		 test	 eax, eax
  00297	0f 84 95 00 00
	00		 je	 $LN28@GetToken

; 76   : 		{
; 77   : 			p = TokenString;

  0029d	c7 45 f4 00 00
	00 00		 mov	 DWORD PTR _p$[ebp], OFFSET ?TokenString@@3PADA

; 78   : 			*p++ = ch;

  002a4	8b 45 f4	 mov	 eax, DWORD PTR _p$[ebp]
  002a7	8a 4d fb	 mov	 cl, BYTE PTR _ch$[ebp]
  002aa	88 08		 mov	 BYTE PTR [eax], cl
  002ac	8b 55 f4	 mov	 edx, DWORD PTR _p$[ebp]
  002af	83 c2 01	 add	 edx, 1
  002b2	89 55 f4	 mov	 DWORD PTR _p$[ebp], edx
$LN13@GetToken:

; 79   : 			while ( (  (ch = getc(SMDFile) ) !=(BYTE)EOF) && (ch=='.' || ch=='_' || isalnum(ch)) )

  002b5	a1 00 00 00 00	 mov	 eax, DWORD PTR ?SMDFile@@3PAU_iobuf@@A
  002ba	50		 push	 eax
  002bb	e8 00 00 00 00	 call	 _getc
  002c0	83 c4 04	 add	 esp, 4
  002c3	88 45 fb	 mov	 BYTE PTR _ch$[ebp], al
  002c6	0f b6 4d fb	 movzx	 ecx, BYTE PTR _ch$[ebp]
  002ca	81 f9 ff 00 00
	00		 cmp	 ecx, 255		; 000000ffH
  002d0	74 36		 je	 SHORT $LN14@GetToken
  002d2	0f b6 45 fb	 movzx	 eax, BYTE PTR _ch$[ebp]
  002d6	83 f8 2e	 cmp	 eax, 46			; 0000002eH
  002d9	74 1a		 je	 SHORT $LN29@GetToken
  002db	0f b6 45 fb	 movzx	 eax, BYTE PTR _ch$[ebp]
  002df	83 f8 5f	 cmp	 eax, 95			; 0000005fH
  002e2	74 11		 je	 SHORT $LN29@GetToken
  002e4	0f b6 45 fb	 movzx	 eax, BYTE PTR _ch$[ebp]
  002e8	50		 push	 eax
  002e9	e8 00 00 00 00	 call	 _isalnum
  002ee	83 c4 04	 add	 esp, 4
  002f1	85 c0		 test	 eax, eax
  002f3	74 13		 je	 SHORT $LN14@GetToken
$LN29@GetToken:

; 80   : 				*p++ = ch;

  002f5	8b 45 f4	 mov	 eax, DWORD PTR _p$[ebp]
  002f8	8a 4d fb	 mov	 cl, BYTE PTR _ch$[ebp]
  002fb	88 08		 mov	 BYTE PTR [eax], cl
  002fd	8b 55 f4	 mov	 edx, DWORD PTR _p$[ebp]
  00300	83 c2 01	 add	 edx, 1
  00303	89 55 f4	 mov	 DWORD PTR _p$[ebp], edx
  00306	eb ad		 jmp	 SHORT $LN13@GetToken
$LN14@GetToken:

; 81   : 			ungetc(ch,SMDFile);

  00308	a1 00 00 00 00	 mov	 eax, DWORD PTR ?SMDFile@@3PAU_iobuf@@A
  0030d	50		 push	 eax
  0030e	0f b6 4d fb	 movzx	 ecx, BYTE PTR _ch$[ebp]
  00312	51		 push	 ecx
  00313	e8 00 00 00 00	 call	 _ungetc
  00318	83 c4 08	 add	 esp, 8

; 82   : 			*p = 0;

  0031b	8b 45 f4	 mov	 eax, DWORD PTR _p$[ebp]
  0031e	c6 00 00	 mov	 BYTE PTR [eax], 0

; 83   : 			return CurrentToken = NAME;

  00321	c7 05 00 00 00
	00 00 00 00 00	 mov	 DWORD PTR ?CurrentToken@@3W4SMDToken@@A, 0
  0032b	a1 00 00 00 00	 mov	 eax, DWORD PTR ?CurrentToken@@3W4SMDToken@@A
  00330	eb 0f		 jmp	 SHORT $LN7@GetToken
$LN28@GetToken:

; 84   : 		}
; 85   : 		return CurrentToken = SMD_ERROR;

  00332	c7 05 00 00 00
	00 3c 00 00 00	 mov	 DWORD PTR ?CurrentToken@@3W4SMDToken@@A, 60 ; 0000003cH
  0033c	a1 00 00 00 00	 mov	 eax, DWORD PTR ?CurrentToken@@3W4SMDToken@@A
$LN7@GetToken:

; 86   : 	}
; 87   : }

  00341	5f		 pop	 edi
  00342	5e		 pop	 esi
  00343	5b		 pop	 ebx
  00344	8b 4d fc	 mov	 ecx, DWORD PTR __$ArrayPad$[ebp]
  00347	33 cd		 xor	 ecx, ebp
  00349	e8 00 00 00 00	 call	 @__security_check_cookie@4
  0034e	8b e5		 mov	 esp, ebp
  00350	5d		 pop	 ebp
  00351	c3		 ret	 0
  00352	66 90		 npad	 2
$LN34@GetToken:
  00354	00 00 00 00	 DD	 $LN25@GetToken
  00358	00 00 00 00	 DD	 $LN18@GetToken
  0035c	00 00 00 00	 DD	 $LN20@GetToken
  00360	00 00 00 00	 DD	 $LN23@GetToken
  00364	00 00 00 00	 DD	 $LN19@GetToken
  00368	00 00 00 00	 DD	 $LN21@GetToken
  0036c	00 00 00 00	 DD	 $LN22@GetToken
  00370	00 00 00 00	 DD	 $LN27@GetToken
$LN33@GetToken:
  00374	00		 DB	 0
  00375	01		 DB	 1
  00376	07		 DB	 7
  00377	07		 DB	 7
  00378	07		 DB	 7
  00379	07		 DB	 7
  0037a	07		 DB	 7
  0037b	07		 DB	 7
  0037c	07		 DB	 7
  0037d	07		 DB	 7
  0037e	02		 DB	 2
  0037f	03		 DB	 3
  00380	03		 DB	 3
  00381	07		 DB	 7
  00382	03		 DB	 3
  00383	03		 DB	 3
  00384	03		 DB	 3
  00385	03		 DB	 3
  00386	03		 DB	 3
  00387	03		 DB	 3
  00388	03		 DB	 3
  00389	03		 DB	 3
  0038a	03		 DB	 3
  0038b	03		 DB	 3
  0038c	07		 DB	 7
  0038d	04		 DB	 4
  0038e	07		 DB	 7
  0038f	07		 DB	 7
  00390	07		 DB	 7
  00391	07		 DB	 7
  00392	07		 DB	 7
  00393	07		 DB	 7
  00394	07		 DB	 7
  00395	07		 DB	 7
  00396	07		 DB	 7
  00397	07		 DB	 7
  00398	07		 DB	 7
  00399	07		 DB	 7
  0039a	07		 DB	 7
  0039b	07		 DB	 7
  0039c	07		 DB	 7
  0039d	07		 DB	 7
  0039e	07		 DB	 7
  0039f	07		 DB	 7
  003a0	07		 DB	 7
  003a1	07		 DB	 7
  003a2	07		 DB	 7
  003a3	07		 DB	 7
  003a4	07		 DB	 7
  003a5	07		 DB	 7
  003a6	07		 DB	 7
  003a7	07		 DB	 7
  003a8	07		 DB	 7
  003a9	07		 DB	 7
  003aa	07		 DB	 7
  003ab	07		 DB	 7
  003ac	07		 DB	 7
  003ad	07		 DB	 7
  003ae	07		 DB	 7
  003af	07		 DB	 7
  003b0	07		 DB	 7
  003b1	07		 DB	 7
  003b2	07		 DB	 7
  003b3	07		 DB	 7
  003b4	07		 DB	 7
  003b5	07		 DB	 7
  003b6	07		 DB	 7
  003b7	07		 DB	 7
  003b8	07		 DB	 7
  003b9	07		 DB	 7
  003ba	07		 DB	 7
  003bb	07		 DB	 7
  003bc	07		 DB	 7
  003bd	07		 DB	 7
  003be	07		 DB	 7
  003bf	07		 DB	 7
  003c0	07		 DB	 7
  003c1	07		 DB	 7
  003c2	07		 DB	 7
  003c3	07		 DB	 7
  003c4	07		 DB	 7
  003c5	07		 DB	 7
  003c6	07		 DB	 7
  003c7	07		 DB	 7
  003c8	07		 DB	 7
  003c9	07		 DB	 7
  003ca	07		 DB	 7
  003cb	07		 DB	 7
  003cc	07		 DB	 7
  003cd	05		 DB	 5
  003ce	07		 DB	 7
  003cf	06		 DB	 6
?GetToken@@YA?AW4SMDToken@@XZ ENDP			; GetToken
_TEXT	ENDS
; Function compile flags: /Odtp /ZI
; File C:\Mu Online\Mu-GS-Webzen-MC-10093\GameServer\Shop.cpp
;	COMDAT ?__empty_global_delete@@YAXPAXI@Z
_TEXT	SEGMENT
___formal$ = 8						; size = 4
___formal$ = 12						; size = 4
?__empty_global_delete@@YAXPAXI@Z PROC			; __empty_global_delete, COMDAT

  00000	55		 push	 ebp
  00001	8b ec		 mov	 ebp, esp
  00003	83 ec 40	 sub	 esp, 64			; 00000040H
  00006	53		 push	 ebx
  00007	56		 push	 esi
  00008	57		 push	 edi
  00009	5f		 pop	 edi
  0000a	5e		 pop	 esi
  0000b	5b		 pop	 ebx
  0000c	8b e5		 mov	 esp, ebp
  0000e	5d		 pop	 ebp
  0000f	c3		 ret	 0
?__empty_global_delete@@YAXPAXI@Z ENDP			; __empty_global_delete
_TEXT	ENDS
; Function compile flags: /Odtp /ZI
; File C:\Mu Online\Mu-GS-Webzen-MC-10093\GameServer\Shop.cpp
;	COMDAT ?__empty_global_delete@@YAXPAX@Z
_TEXT	SEGMENT
___formal$ = 8						; size = 4
?__empty_global_delete@@YAXPAX@Z PROC			; __empty_global_delete, COMDAT

  00000	55		 push	 ebp
  00001	8b ec		 mov	 ebp, esp
  00003	83 ec 40	 sub	 esp, 64			; 00000040H
  00006	53		 push	 ebx
  00007	56		 push	 esi
  00008	57		 push	 edi
  00009	5f		 pop	 edi
  0000a	5e		 pop	 esi
  0000b	5b		 pop	 ebx
  0000c	8b e5		 mov	 esp, ebp
  0000e	5d		 pop	 ebp
  0000f	c3		 ret	 0
?__empty_global_delete@@YAXPAX@Z ENDP			; __empty_global_delete
_TEXT	ENDS
; Function compile flags: /Odtp /ZI
;	COMDAT ??_H@YGXPAXIIP6EPAX0@Z@Z
_TEXT	SEGMENT
tv66 = -68						; size = 4
___t$ = 8						; size = 4
___s$ = 12						; size = 4
___n$ = 16						; size = 4
___f$ = 20						; size = 4
??_H@YGXPAXIIP6EPAX0@Z@Z PROC				; `vector constructor iterator', COMDAT
  00000	55		 push	 ebp
  00001	8b ec		 mov	 ebp, esp
  00003	83 ec 44	 sub	 esp, 68			; 00000044H
  00006	53		 push	 ebx
  00007	56		 push	 esi
  00008	57		 push	 edi
$LN2@vector:
  00009	8b 45 10	 mov	 eax, DWORD PTR ___n$[ebp]
  0000c	89 45 bc	 mov	 DWORD PTR tv66[ebp], eax
  0000f	8b 4d 10	 mov	 ecx, DWORD PTR ___n$[ebp]
  00012	83 e9 01	 sub	 ecx, 1
  00015	89 4d 10	 mov	 DWORD PTR ___n$[ebp], ecx
  00018	83 7d bc 00	 cmp	 DWORD PTR tv66[ebp], 0
  0001c	76 11		 jbe	 SHORT $LN1@vector
  0001e	8b 4d 08	 mov	 ecx, DWORD PTR ___t$[ebp]
  00021	ff 55 14	 call	 DWORD PTR ___f$[ebp]
  00024	8b 45 08	 mov	 eax, DWORD PTR ___t$[ebp]
  00027	03 45 0c	 add	 eax, DWORD PTR ___s$[ebp]
  0002a	89 45 08	 mov	 DWORD PTR ___t$[ebp], eax
  0002d	eb da		 jmp	 SHORT $LN2@vector
$LN1@vector:
  0002f	5f		 pop	 edi
  00030	5e		 pop	 esi
  00031	5b		 pop	 ebx
  00032	8b e5		 mov	 esp, ebp
  00034	5d		 pop	 ebp
  00035	c2 10 00	 ret	 16			; 00000010H
??_H@YGXPAXIIP6EPAX0@Z@Z ENDP				; `vector constructor iterator'
_TEXT	ENDS
END
