; Listing generated by Microsoft (R) Optimizing Compiler Version 19.27.29111.0 

	TITLE	C:\Mu Online\Mu-GS-Webzen-MC-10093\GameServer\SkillAdditionInfo.cpp
	.686P
	.XMM
	include listing.inc
	.model	flat

INCLUDELIB LIBCMT
INCLUDELIB OLDNAMES

PUBLIC	?__empty_global_delete@@YAXPAX@Z		; __empty_global_delete
PUBLIC	?__empty_global_delete@@YAXPAXI@Z		; __empty_global_delete
PUBLIC	??0CSkillAdditionInfo@@QAE@XZ			; CSkillAdditionInfo::CSkillAdditionInfo
PUBLIC	??1CSkillAdditionInfo@@UAE@XZ			; CSkillAdditionInfo::~CSkillAdditionInfo
PUBLIC	?Init@CSkillAdditionInfo@@QAEXXZ		; CSkillAdditionInfo::Init
PUBLIC	?Load@CSkillAdditionInfo@@QAEHPAD@Z		; CSkillAdditionInfo::Load
PUBLIC	??_GCSkillAdditionInfo@@UAEPAXI@Z		; CSkillAdditionInfo::`scalar deleting destructor'
PUBLIC	??_C@_00CNPNBAHC@@				; `string'
PUBLIC	??_7CSkillAdditionInfo@@6B@			; CSkillAdditionInfo::`vftable'
PUBLIC	?g_SkillAdditionInfo@@3VCSkillAdditionInfo@@A	; g_SkillAdditionInfo
PUBLIC	??_C@_0DK@MKBKHGKF@?$FLSkill?5Addition?5Info?$FN?5?9?5File?5lo@ ; `string'
PUBLIC	??_C@_0BH@KBNHBCCN@InfinityArrowSkillTime@	; `string'
PUBLIC	??_C@_09EMMBJNGJ@SkillInfo@			; `string'
PUBLIC	??_C@_0BG@DADLDHMB@InfinityArrowUseLevel@	; `string'
PUBLIC	??_C@_0CB@IEAIHDMI@InfinityArraowMPConsumptionPlus@ ; `string'
PUBLIC	??_C@_0CB@JNBDECIJ@InfinityArraowMPConsumptionPlus@ ; `string'
PUBLIC	??_C@_0CB@LGDOBBEK@InfinityArraowMPConsumptionPlus@ ; `string'
PUBLIC	??_C@_0CB@KPCFCAAL@InfinityArraowMPConsumptionPlus@ ; `string'
PUBLIC	??_C@_0HG@MDBPHHOC@?$FLSkill?5Addition?5Info?$FN?5?$FLInfinity@ ; `string'
PUBLIC	??_R4CSkillAdditionInfo@@6B@			; CSkillAdditionInfo::`RTTI Complete Object Locator'
PUBLIC	??_R0?AVCSkillAdditionInfo@@@8			; CSkillAdditionInfo `RTTI Type Descriptor'
PUBLIC	??_R3CSkillAdditionInfo@@8			; CSkillAdditionInfo::`RTTI Class Hierarchy Descriptor'
PUBLIC	??_R2CSkillAdditionInfo@@8			; CSkillAdditionInfo::`RTTI Base Class Array'
PUBLIC	??_R1A@?0A@EA@CSkillAdditionInfo@@8		; CSkillAdditionInfo::`RTTI Base Class Descriptor at (0,-1,0,64)'
EXTRN	??3@YAXPAXI@Z:PROC				; operator delete
EXTRN	_atexit:PROC
EXTRN	_strcmp:PROC
EXTRN	__imp__GetPrivateProfileIntA@16:PROC
EXTRN	??_ECSkillAdditionInfo@@UAEPAXI@Z:PROC		; CSkillAdditionInfo::`vector deleting destructor'
EXTRN	?GetNewPath@CDirPath@@QAEPADPAD@Z:PROC		; CDirPath::GetNewPath
EXTRN	??_7type_info@@6B@:QWORD			; type_info::`vftable'
EXTRN	?LogAddTD@@3P6AXPADZZA:DWORD			; LogAddTD
EXTRN	?gDirPath@@3VCDirPath@@A:BYTE			; gDirPath
_BSS	SEGMENT
?g_SkillAdditionInfo@@3VCSkillAdditionInfo@@A DB 01cH DUP (?) ; g_SkillAdditionInfo
_BSS	ENDS
CRT$XCU	SEGMENT
?g_SkillAdditionInfo$initializer$@@3P6AXXZA DD FLAT:??__Eg_SkillAdditionInfo@@YAXXZ ; g_SkillAdditionInfo$initializer$
CRT$XCU	ENDS
;	COMDAT ??_R1A@?0A@EA@CSkillAdditionInfo@@8
rdata$r	SEGMENT
??_R1A@?0A@EA@CSkillAdditionInfo@@8 DD FLAT:??_R0?AVCSkillAdditionInfo@@@8 ; CSkillAdditionInfo::`RTTI Base Class Descriptor at (0,-1,0,64)'
	DD	00H
	DD	00H
	DD	0ffffffffH
	DD	00H
	DD	040H
	DD	FLAT:??_R3CSkillAdditionInfo@@8
rdata$r	ENDS
;	COMDAT ??_R2CSkillAdditionInfo@@8
rdata$r	SEGMENT
??_R2CSkillAdditionInfo@@8 DD FLAT:??_R1A@?0A@EA@CSkillAdditionInfo@@8 ; CSkillAdditionInfo::`RTTI Base Class Array'
rdata$r	ENDS
;	COMDAT ??_R3CSkillAdditionInfo@@8
rdata$r	SEGMENT
??_R3CSkillAdditionInfo@@8 DD 00H			; CSkillAdditionInfo::`RTTI Class Hierarchy Descriptor'
	DD	00H
	DD	01H
	DD	FLAT:??_R2CSkillAdditionInfo@@8
rdata$r	ENDS
;	COMDAT ??_R0?AVCSkillAdditionInfo@@@8
data$r	SEGMENT
??_R0?AVCSkillAdditionInfo@@@8 DD FLAT:??_7type_info@@6B@ ; CSkillAdditionInfo `RTTI Type Descriptor'
	DD	00H
	DB	'.?AVCSkillAdditionInfo@@', 00H
data$r	ENDS
;	COMDAT ??_R4CSkillAdditionInfo@@6B@
rdata$r	SEGMENT
??_R4CSkillAdditionInfo@@6B@ DD 00H			; CSkillAdditionInfo::`RTTI Complete Object Locator'
	DD	00H
	DD	00H
	DD	FLAT:??_R0?AVCSkillAdditionInfo@@@8
	DD	FLAT:??_R3CSkillAdditionInfo@@8
rdata$r	ENDS
;	COMDAT ??_C@_0HG@MDBPHHOC@?$FLSkill?5Addition?5Info?$FN?5?$FLInfinity@
CONST	SEGMENT
??_C@_0HG@MDBPHHOC@?$FLSkill?5Addition?5Info?$FN?5?$FLInfinity@ DB '[Skil'
	DB	'l Addition Info] [Infinity Arrow] Skill Time[%d], UseLevel[%d'
	DB	'], Arrow MP Consumption +0[%d] +1[%d] +2[%d] +3[%d]', 00H ; `string'
CONST	ENDS
;	COMDAT ??_C@_0CB@KPCFCAAL@InfinityArraowMPConsumptionPlus@
CONST	SEGMENT
??_C@_0CB@KPCFCAAL@InfinityArraowMPConsumptionPlus@ DB 'InfinityArraowMPC'
	DB	'onsumptionPlus3', 00H			; `string'
CONST	ENDS
;	COMDAT ??_C@_0CB@LGDOBBEK@InfinityArraowMPConsumptionPlus@
CONST	SEGMENT
??_C@_0CB@LGDOBBEK@InfinityArraowMPConsumptionPlus@ DB 'InfinityArraowMPC'
	DB	'onsumptionPlus2', 00H			; `string'
CONST	ENDS
;	COMDAT ??_C@_0CB@JNBDECIJ@InfinityArraowMPConsumptionPlus@
CONST	SEGMENT
??_C@_0CB@JNBDECIJ@InfinityArraowMPConsumptionPlus@ DB 'InfinityArraowMPC'
	DB	'onsumptionPlus1', 00H			; `string'
CONST	ENDS
;	COMDAT ??_C@_0CB@IEAIHDMI@InfinityArraowMPConsumptionPlus@
CONST	SEGMENT
??_C@_0CB@IEAIHDMI@InfinityArraowMPConsumptionPlus@ DB 'InfinityArraowMPC'
	DB	'onsumptionPlus0', 00H			; `string'
CONST	ENDS
;	COMDAT ??_C@_0BG@DADLDHMB@InfinityArrowUseLevel@
CONST	SEGMENT
??_C@_0BG@DADLDHMB@InfinityArrowUseLevel@ DB 'InfinityArrowUseLevel', 00H ; `string'
CONST	ENDS
;	COMDAT ??_C@_09EMMBJNGJ@SkillInfo@
CONST	SEGMENT
??_C@_09EMMBJNGJ@SkillInfo@ DB 'SkillInfo', 00H		; `string'
CONST	ENDS
;	COMDAT ??_C@_0BH@KBNHBCCN@InfinityArrowSkillTime@
CONST	SEGMENT
??_C@_0BH@KBNHBCCN@InfinityArrowSkillTime@ DB 'InfinityArrowSkillTime', 00H ; `string'
CONST	ENDS
;	COMDAT ??_C@_0DK@MKBKHGKF@?$FLSkill?5Addition?5Info?$FN?5?9?5File?5lo@
CONST	SEGMENT
??_C@_0DK@MKBKHGKF@?$FLSkill?5Addition?5Info?$FN?5?9?5File?5lo@ DB '[Skil'
	DB	'l Addition Info] - File load error : File Name Error', 00H ; `string'
CONST	ENDS
;	COMDAT ??_7CSkillAdditionInfo@@6B@
CONST	SEGMENT
??_7CSkillAdditionInfo@@6B@ DD FLAT:??_R4CSkillAdditionInfo@@6B@ ; CSkillAdditionInfo::`vftable'
	DD	FLAT:??_ECSkillAdditionInfo@@UAEPAXI@Z
CONST	ENDS
;	COMDAT ??_C@_00CNPNBAHC@@
CONST	SEGMENT
??_C@_00CNPNBAHC@@ DB 00H				; `string'
CONST	ENDS
; Function compile flags: /Odtp /ZI
;	COMDAT ??__Fg_SkillAdditionInfo@@YAXXZ
text$yd	SEGMENT
??__Fg_SkillAdditionInfo@@YAXXZ PROC			; `dynamic atexit destructor for 'g_SkillAdditionInfo'', COMDAT
  00000	55		 push	 ebp
  00001	8b ec		 mov	 ebp, esp
  00003	83 ec 40	 sub	 esp, 64			; 00000040H
  00006	53		 push	 ebx
  00007	56		 push	 esi
  00008	57		 push	 edi
  00009	b9 00 00 00 00	 mov	 ecx, OFFSET ?g_SkillAdditionInfo@@3VCSkillAdditionInfo@@A ; g_SkillAdditionInfo
  0000e	e8 00 00 00 00	 call	 ??1CSkillAdditionInfo@@UAE@XZ ; CSkillAdditionInfo::~CSkillAdditionInfo
  00013	5f		 pop	 edi
  00014	5e		 pop	 esi
  00015	5b		 pop	 ebx
  00016	8b e5		 mov	 esp, ebp
  00018	5d		 pop	 ebp
  00019	c3		 ret	 0
??__Fg_SkillAdditionInfo@@YAXXZ ENDP			; `dynamic atexit destructor for 'g_SkillAdditionInfo''
text$yd	ENDS
; Function compile flags: /Odtp /ZI
; File C:\Mu Online\Mu-GS-Webzen-MC-10093\GameServer\SkillAdditionInfo.cpp
;	COMDAT ??__Eg_SkillAdditionInfo@@YAXXZ
text$di	SEGMENT
??__Eg_SkillAdditionInfo@@YAXXZ PROC			; `dynamic initializer for 'g_SkillAdditionInfo'', COMDAT

; 13   : CSkillAdditionInfo	g_SkillAdditionInfo;

  00000	55		 push	 ebp
  00001	8b ec		 mov	 ebp, esp
  00003	83 ec 40	 sub	 esp, 64			; 00000040H
  00006	53		 push	 ebx
  00007	56		 push	 esi
  00008	57		 push	 edi
  00009	b9 00 00 00 00	 mov	 ecx, OFFSET ?g_SkillAdditionInfo@@3VCSkillAdditionInfo@@A ; g_SkillAdditionInfo
  0000e	e8 00 00 00 00	 call	 ??0CSkillAdditionInfo@@QAE@XZ ; CSkillAdditionInfo::CSkillAdditionInfo
  00013	68 00 00 00 00	 push	 OFFSET ??__Fg_SkillAdditionInfo@@YAXXZ ; `dynamic atexit destructor for 'g_SkillAdditionInfo''
  00018	e8 00 00 00 00	 call	 _atexit
  0001d	83 c4 04	 add	 esp, 4
  00020	5f		 pop	 edi
  00021	5e		 pop	 esi
  00022	5b		 pop	 ebx
  00023	8b e5		 mov	 esp, ebp
  00025	5d		 pop	 ebp
  00026	c3		 ret	 0
??__Eg_SkillAdditionInfo@@YAXXZ ENDP			; `dynamic initializer for 'g_SkillAdditionInfo''
text$di	ENDS
; Function compile flags: /Odtp /ZI
;	COMDAT ??_GCSkillAdditionInfo@@UAEPAXI@Z
_TEXT	SEGMENT
_this$ = -4						; size = 4
___flags$ = 8						; size = 4
??_GCSkillAdditionInfo@@UAEPAXI@Z PROC			; CSkillAdditionInfo::`scalar deleting destructor', COMDAT
; _this$ = ecx
  00000	55		 push	 ebp
  00001	8b ec		 mov	 ebp, esp
  00003	83 ec 44	 sub	 esp, 68			; 00000044H
  00006	53		 push	 ebx
  00007	56		 push	 esi
  00008	57		 push	 edi
  00009	89 4d fc	 mov	 DWORD PTR _this$[ebp], ecx
  0000c	8b 4d fc	 mov	 ecx, DWORD PTR _this$[ebp]
  0000f	e8 00 00 00 00	 call	 ??1CSkillAdditionInfo@@UAE@XZ ; CSkillAdditionInfo::~CSkillAdditionInfo
  00014	8b 45 08	 mov	 eax, DWORD PTR ___flags$[ebp]
  00017	83 e0 01	 and	 eax, 1
  0001a	74 0e		 je	 SHORT $LN2@scalar
  0001c	6a 1c		 push	 28			; 0000001cH
  0001e	8b 45 fc	 mov	 eax, DWORD PTR _this$[ebp]
  00021	50		 push	 eax
  00022	e8 00 00 00 00	 call	 ??3@YAXPAXI@Z		; operator delete
  00027	83 c4 08	 add	 esp, 8
$LN2@scalar:
  0002a	8b 45 fc	 mov	 eax, DWORD PTR _this$[ebp]
  0002d	5f		 pop	 edi
  0002e	5e		 pop	 esi
  0002f	5b		 pop	 ebx
  00030	8b e5		 mov	 esp, ebp
  00032	5d		 pop	 ebp
  00033	c2 04 00	 ret	 4
??_GCSkillAdditionInfo@@UAEPAXI@Z ENDP			; CSkillAdditionInfo::`scalar deleting destructor'
_TEXT	ENDS
; Function compile flags: /Odtp /ZI
; File C:\Mu Online\Mu-GS-Webzen-MC-10093\GameServer\SkillAdditionInfo.cpp
;	COMDAT ?Load@CSkillAdditionInfo@@QAEHPAD@Z
_TEXT	SEGMENT
_this$ = -4						; size = 4
_lpszFileName$ = 8					; size = 4
?Load@CSkillAdditionInfo@@QAEHPAD@Z PROC		; CSkillAdditionInfo::Load, COMDAT
; _this$ = ecx

; 46   : {

  00000	55		 push	 ebp
  00001	8b ec		 mov	 ebp, esp
  00003	83 ec 44	 sub	 esp, 68			; 00000044H
  00006	53		 push	 ebx
  00007	56		 push	 esi
  00008	57		 push	 edi
  00009	89 4d fc	 mov	 DWORD PTR _this$[ebp], ecx

; 47   : 	if( lpszFileName == NULL || !strcmp( lpszFileName, "" ) ) 

  0000c	83 7d 08 00	 cmp	 DWORD PTR _lpszFileName$[ebp], 0
  00010	74 15		 je	 SHORT $LN3@Load
  00012	68 00 00 00 00	 push	 OFFSET ??_C@_00CNPNBAHC@@
  00017	8b 45 08	 mov	 eax, DWORD PTR _lpszFileName$[ebp]
  0001a	50		 push	 eax
  0001b	e8 00 00 00 00	 call	 _strcmp
  00020	83 c4 08	 add	 esp, 8
  00023	85 c0		 test	 eax, eax
  00025	75 15		 jne	 SHORT $LN2@Load
$LN3@Load:

; 48   : 	{
; 49   : 		LogAddTD("[Skill Addition Info] - File load error : File Name Error");

  00027	68 00 00 00 00	 push	 OFFSET ??_C@_0DK@MKBKHGKF@?$FLSkill?5Addition?5Info?$FN?5?9?5File?5lo@
  0002c	ff 15 00 00 00
	00		 call	 DWORD PTR ?LogAddTD@@3P6AXPADZZA ; LogAddTD
  00032	83 c4 04	 add	 esp, 4

; 50   : 		return FALSE;

  00035	33 c0		 xor	 eax, eax
  00037	e9 2d 01 00 00	 jmp	 $LN1@Load
$LN2@Load:

; 51   : 	}
; 52   : 
; 53   : 	m_iInfinityArrowSkillTime			= GetPrivateProfileInt( "SkillInfo", "InfinityArrowSkillTime", 600, gDirPath.GetNewPath( lpszFileName ) );	;

  0003c	8b 45 08	 mov	 eax, DWORD PTR _lpszFileName$[ebp]
  0003f	50		 push	 eax
  00040	b9 00 00 00 00	 mov	 ecx, OFFSET ?gDirPath@@3VCDirPath@@A ; gDirPath
  00045	e8 00 00 00 00	 call	 ?GetNewPath@CDirPath@@QAEPADPAD@Z ; CDirPath::GetNewPath
  0004a	50		 push	 eax
  0004b	68 58 02 00 00	 push	 600			; 00000258H
  00050	68 00 00 00 00	 push	 OFFSET ??_C@_0BH@KBNHBCCN@InfinityArrowSkillTime@
  00055	68 00 00 00 00	 push	 OFFSET ??_C@_09EMMBJNGJ@SkillInfo@
  0005a	ff 15 00 00 00
	00		 call	 DWORD PTR __imp__GetPrivateProfileIntA@16
  00060	8b 4d fc	 mov	 ecx, DWORD PTR _this$[ebp]
  00063	89 41 04	 mov	 DWORD PTR [ecx+4], eax

; 54   : 	m_iInfinityArrowUseLevel			= GetPrivateProfileInt( "SkillInfo", "InfinityArrowUseLevel", 220, gDirPath.GetNewPath( lpszFileName ) );	;

  00066	8b 45 08	 mov	 eax, DWORD PTR _lpszFileName$[ebp]
  00069	50		 push	 eax
  0006a	b9 00 00 00 00	 mov	 ecx, OFFSET ?gDirPath@@3VCDirPath@@A ; gDirPath
  0006f	e8 00 00 00 00	 call	 ?GetNewPath@CDirPath@@QAEPADPAD@Z ; CDirPath::GetNewPath
  00074	50		 push	 eax
  00075	68 dc 00 00 00	 push	 220			; 000000dcH
  0007a	68 00 00 00 00	 push	 OFFSET ??_C@_0BG@DADLDHMB@InfinityArrowUseLevel@
  0007f	68 00 00 00 00	 push	 OFFSET ??_C@_09EMMBJNGJ@SkillInfo@
  00084	ff 15 00 00 00
	00		 call	 DWORD PTR __imp__GetPrivateProfileIntA@16
  0008a	8b 4d fc	 mov	 ecx, DWORD PTR _this$[ebp]
  0008d	89 41 08	 mov	 DWORD PTR [ecx+8], eax

; 55   : 	m_iInfinityArrowMPConsumptionPlus0	= GetPrivateProfileInt( "SkillInfo", "InfinityArraowMPConsumptionPlus0", 0, gDirPath.GetNewPath( lpszFileName ) );	

  00090	8b 45 08	 mov	 eax, DWORD PTR _lpszFileName$[ebp]
  00093	50		 push	 eax
  00094	b9 00 00 00 00	 mov	 ecx, OFFSET ?gDirPath@@3VCDirPath@@A ; gDirPath
  00099	e8 00 00 00 00	 call	 ?GetNewPath@CDirPath@@QAEPADPAD@Z ; CDirPath::GetNewPath
  0009e	50		 push	 eax
  0009f	6a 00		 push	 0
  000a1	68 00 00 00 00	 push	 OFFSET ??_C@_0CB@IEAIHDMI@InfinityArraowMPConsumptionPlus@
  000a6	68 00 00 00 00	 push	 OFFSET ??_C@_09EMMBJNGJ@SkillInfo@
  000ab	ff 15 00 00 00
	00		 call	 DWORD PTR __imp__GetPrivateProfileIntA@16
  000b1	8b 4d fc	 mov	 ecx, DWORD PTR _this$[ebp]
  000b4	89 41 0c	 mov	 DWORD PTR [ecx+12], eax

; 56   : 	m_iInfinityArrowMPConsumptionPlus1	= GetPrivateProfileInt( "SkillInfo", "InfinityArraowMPConsumptionPlus1", 0, gDirPath.GetNewPath( lpszFileName ) );		

  000b7	8b 45 08	 mov	 eax, DWORD PTR _lpszFileName$[ebp]
  000ba	50		 push	 eax
  000bb	b9 00 00 00 00	 mov	 ecx, OFFSET ?gDirPath@@3VCDirPath@@A ; gDirPath
  000c0	e8 00 00 00 00	 call	 ?GetNewPath@CDirPath@@QAEPADPAD@Z ; CDirPath::GetNewPath
  000c5	50		 push	 eax
  000c6	6a 00		 push	 0
  000c8	68 00 00 00 00	 push	 OFFSET ??_C@_0CB@JNBDECIJ@InfinityArraowMPConsumptionPlus@
  000cd	68 00 00 00 00	 push	 OFFSET ??_C@_09EMMBJNGJ@SkillInfo@
  000d2	ff 15 00 00 00
	00		 call	 DWORD PTR __imp__GetPrivateProfileIntA@16
  000d8	8b 4d fc	 mov	 ecx, DWORD PTR _this$[ebp]
  000db	89 41 10	 mov	 DWORD PTR [ecx+16], eax

; 57   : #ifdef MODIFY_INFINITY_ARROW_USE_MANA_BUGFIX_20090416
; 58   : 	m_iInfinityArrowMPConsumptionPlus2	= GetPrivateProfileInt( "SkillInfo", "InfinityArraowMPConsumptionPlus2", 0, gDirPath.GetNewPath( lpszFileName ) );		

  000de	8b 45 08	 mov	 eax, DWORD PTR _lpszFileName$[ebp]
  000e1	50		 push	 eax
  000e2	b9 00 00 00 00	 mov	 ecx, OFFSET ?gDirPath@@3VCDirPath@@A ; gDirPath
  000e7	e8 00 00 00 00	 call	 ?GetNewPath@CDirPath@@QAEPADPAD@Z ; CDirPath::GetNewPath
  000ec	50		 push	 eax
  000ed	6a 00		 push	 0
  000ef	68 00 00 00 00	 push	 OFFSET ??_C@_0CB@LGDOBBEK@InfinityArraowMPConsumptionPlus@
  000f4	68 00 00 00 00	 push	 OFFSET ??_C@_09EMMBJNGJ@SkillInfo@
  000f9	ff 15 00 00 00
	00		 call	 DWORD PTR __imp__GetPrivateProfileIntA@16
  000ff	8b 4d fc	 mov	 ecx, DWORD PTR _this$[ebp]
  00102	89 41 14	 mov	 DWORD PTR [ecx+20], eax

; 59   : #endif // MODIFY_INFINITY_ARROW_USE_MANA_BUGFIX_20090416
; 60   : #ifdef UPDATE_ADD_ARROW_TYPE_PLUS_3_20081106
; 61   : 	m_iInfinityArrowMPConsumptionPlus3	= GetPrivateProfileInt( "SkillInfo", "InfinityArraowMPConsumptionPlus3", 0, gDirPath.GetNewPath( lpszFileName ) );

  00105	8b 45 08	 mov	 eax, DWORD PTR _lpszFileName$[ebp]
  00108	50		 push	 eax
  00109	b9 00 00 00 00	 mov	 ecx, OFFSET ?gDirPath@@3VCDirPath@@A ; gDirPath
  0010e	e8 00 00 00 00	 call	 ?GetNewPath@CDirPath@@QAEPADPAD@Z ; CDirPath::GetNewPath
  00113	50		 push	 eax
  00114	6a 00		 push	 0
  00116	68 00 00 00 00	 push	 OFFSET ??_C@_0CB@KPCFCAAL@InfinityArraowMPConsumptionPlus@
  0011b	68 00 00 00 00	 push	 OFFSET ??_C@_09EMMBJNGJ@SkillInfo@
  00120	ff 15 00 00 00
	00		 call	 DWORD PTR __imp__GetPrivateProfileIntA@16
  00126	8b 4d fc	 mov	 ecx, DWORD PTR _this$[ebp]
  00129	89 41 18	 mov	 DWORD PTR [ecx+24], eax

; 62   : 	LogAddTD("[Skill Addition Info] [Infinity Arrow] Skill Time[%d], UseLevel[%d], Arrow MP Consumption +0[%d] +1[%d] +2[%d] +3[%d]", 

  0012c	8b 45 fc	 mov	 eax, DWORD PTR _this$[ebp]
  0012f	8b 48 18	 mov	 ecx, DWORD PTR [eax+24]
  00132	51		 push	 ecx
  00133	8b 55 fc	 mov	 edx, DWORD PTR _this$[ebp]
  00136	8b 42 14	 mov	 eax, DWORD PTR [edx+20]
  00139	50		 push	 eax
  0013a	8b 4d fc	 mov	 ecx, DWORD PTR _this$[ebp]
  0013d	8b 51 10	 mov	 edx, DWORD PTR [ecx+16]
  00140	52		 push	 edx
  00141	8b 45 fc	 mov	 eax, DWORD PTR _this$[ebp]
  00144	8b 48 0c	 mov	 ecx, DWORD PTR [eax+12]
  00147	51		 push	 ecx
  00148	8b 55 fc	 mov	 edx, DWORD PTR _this$[ebp]
  0014b	8b 42 08	 mov	 eax, DWORD PTR [edx+8]
  0014e	50		 push	 eax
  0014f	8b 4d fc	 mov	 ecx, DWORD PTR _this$[ebp]
  00152	8b 51 04	 mov	 edx, DWORD PTR [ecx+4]
  00155	52		 push	 edx
  00156	68 00 00 00 00	 push	 OFFSET ??_C@_0HG@MDBPHHOC@?$FLSkill?5Addition?5Info?$FN?5?$FLInfinity@
  0015b	ff 15 00 00 00
	00		 call	 DWORD PTR ?LogAddTD@@3P6AXPADZZA ; LogAddTD
  00161	83 c4 1c	 add	 esp, 28			; 0000001cH

; 63   : 											m_iInfinityArrowSkillTime,
; 64   : 											m_iInfinityArrowUseLevel,
; 65   : 											m_iInfinityArrowMPConsumptionPlus0,
; 66   : 											m_iInfinityArrowMPConsumptionPlus1,
; 67   : 											m_iInfinityArrowMPConsumptionPlus2,
; 68   : 											m_iInfinityArrowMPConsumptionPlus3
; 69   : 											);
; 70   : #else // UPDATE_ADD_ARROW_TYPE_PLUS_3_20081106
; 71   : 	LogAddTD("[Skill Addition Info] [Infinity Arrow] Skill Time[%d], UseLevel[%d], Arrow MP Consumption +0[%d] +1[%d] +2[%d]", 
; 72   : 											m_iInfinityArrowSkillTime,
; 73   : 											m_iInfinityArrowUseLevel,
; 74   : 											m_iInfinityArrowMPConsumptionPlus0,
; 75   : 											m_iInfinityArrowMPConsumptionPlus1,
; 76   : 											m_iInfinityArrowMPConsumptionPlus2 );
; 77   : #endif // UPDATE_ADD_ARROW_TYPE_PLUS_3_20081106
; 78   : 	
; 79   : #ifdef ADD_SKILL_DARKLOAD_FIRESCREAM_20060601
; 80   : 	m_bFireScreamSkill						= GetPrivateProfileInt( "SkillInfo", "FireScreamSkill", 1, gDirPath.GetNewPath( lpszFileName ) );
; 81   : 	m_iFireScreamExplosionAttackDistance	= GetPrivateProfileInt( "SkillInfo", "FireScreamExplosionAttackDistance", 1, gDirPath.GetNewPath( lpszFileName ) );
; 82   : 	m_iFireScreamExplosionRate				= GetPrivateProfileInt( "SkillInfo", "FireScreamExplosionRate", 300, gDirPath.GetNewPath( lpszFileName ) );
; 83   : 	m_iFireScreamMaxAttackCountSameSerial	= GetPrivateProfileInt( "SkillInfo", "FireScreamMaxAttackCountSameSerial", 3, gDirPath.GetNewPath( lpszFileName ) );
; 84   : 	m_iFireScreamSerialInitCount			= GetPrivateProfileInt( "SkillInfo", "FireScreamSerialInitCount", 100, gDirPath.GetNewPath( lpszFileName ) );
; 85   : 	m_bCheckFireScreamSerial				= GetPrivateProfileInt( "SkillInfo", "CheckFireScreamSerial", 1, gDirPath.GetNewPath( lpszFileName ) );
; 86   : 	LogAddTD("[Skill Addition Info] [Fire Scream] Use(%d) : Explosion Distance(%d) - Rate(%d), MaxAttack_SameSerial(%d), SerialInitCount(%d), Check Serial(%d)",
; 87   : 											m_bFireScreamSkill
; 88   : 											, m_iFireScreamExplosionAttackDistance
; 89   : 											, m_iFireScreamExplosionRate
; 90   : 											, m_iFireScreamMaxAttackCountSameSerial
; 91   : 											, m_iFireScreamSerialInitCount
; 92   : 											, m_bCheckFireScreamSerial );
; 93   : #endif
; 94   : 
; 95   : #ifdef ADD_MASTER_LEVEL_SKILL_SYSTEM_ACTIVE_20080107
; 96   : 	m_nSoulBarrierManaRate_Level[0]			= GetPrivateProfileInt( "SkillInfo", "SoulBarrierManaRate_Level0", 25, gDirPath.GetNewPath( lpszFileName ) );							
; 97   : 	m_nSoulBarrierManaRate_Level[1]			= GetPrivateProfileInt( "SkillInfo", "SoulBarrierManaRate_Level1", 25, gDirPath.GetNewPath( lpszFileName ) );							
; 98   : 	m_nSoulBarrierManaRate_Level[2]			= GetPrivateProfileInt( "SkillInfo", "SoulBarrierManaRate_Level2", 30, gDirPath.GetNewPath( lpszFileName ) );							
; 99   : 	m_nSoulBarrierManaRate_Level[3]			= GetPrivateProfileInt( "SkillInfo", "SoulBarrierManaRate_Level3", 35, gDirPath.GetNewPath( lpszFileName ) );							
; 100  : 	m_nSoulBarrierManaRate_Level[4]			= GetPrivateProfileInt( "SkillInfo", "SoulBarrierManaRate_Level4", 40, gDirPath.GetNewPath( lpszFileName ) );							
; 101  : 	m_nSoulBarrierManaRate_Level[5]			= GetPrivateProfileInt( "SkillInfo", "SoulBarrierManaRate_Level5", 45, gDirPath.GetNewPath( lpszFileName ) );
; 102  : 	LogAddTD("[Skill Addition Info] [SoulBarrier Strengrhen] BaseSkill(Level0):%d, Level1:%d, 2:%d, 3:%d, 4:%d, 5:%d",
; 103  : 											m_nSoulBarrierManaRate_Level[0]
; 104  : 											, m_nSoulBarrierManaRate_Level[1]
; 105  : 											, m_nSoulBarrierManaRate_Level[2]
; 106  : 											, m_nSoulBarrierManaRate_Level[3]
; 107  : 											, m_nSoulBarrierManaRate_Level[4] 
; 108  : 											, m_nSoulBarrierManaRate_Level[5] );
; 109  : 		
; 110  : #endif
; 111  : 	return TRUE;

  00164	b8 01 00 00 00	 mov	 eax, 1
$LN1@Load:

; 112  : }

  00169	5f		 pop	 edi
  0016a	5e		 pop	 esi
  0016b	5b		 pop	 ebx
  0016c	8b e5		 mov	 esp, ebp
  0016e	5d		 pop	 ebp
  0016f	c2 04 00	 ret	 4
?Load@CSkillAdditionInfo@@QAEHPAD@Z ENDP		; CSkillAdditionInfo::Load
_TEXT	ENDS
; Function compile flags: /Odtp /ZI
; File C:\Mu Online\Mu-GS-Webzen-MC-10093\GameServer\SkillAdditionInfo.cpp
;	COMDAT ?Init@CSkillAdditionInfo@@QAEXXZ
_TEXT	SEGMENT
_this$ = -4						; size = 4
?Init@CSkillAdditionInfo@@QAEXXZ PROC			; CSkillAdditionInfo::Init, COMDAT
; _this$ = ecx

; 26   : {

  00000	55		 push	 ebp
  00001	8b ec		 mov	 ebp, esp
  00003	83 ec 44	 sub	 esp, 68			; 00000044H
  00006	53		 push	 ebx
  00007	56		 push	 esi
  00008	57		 push	 edi
  00009	89 4d fc	 mov	 DWORD PTR _this$[ebp], ecx

; 27   : 	m_iInfinityArrowSkillTime			= 0;

  0000c	8b 45 fc	 mov	 eax, DWORD PTR _this$[ebp]
  0000f	c7 40 04 00 00
	00 00		 mov	 DWORD PTR [eax+4], 0

; 28   : 	m_iInfinityArrowUseLevel			= 0;	

  00016	8b 45 fc	 mov	 eax, DWORD PTR _this$[ebp]
  00019	c7 40 08 00 00
	00 00		 mov	 DWORD PTR [eax+8], 0

; 29   : 	m_iInfinityArrowMPConsumptionPlus0	= 0;		

  00020	8b 45 fc	 mov	 eax, DWORD PTR _this$[ebp]
  00023	c7 40 0c 00 00
	00 00		 mov	 DWORD PTR [eax+12], 0

; 30   : 	m_iInfinityArrowMPConsumptionPlus1	= 0;

  0002a	8b 45 fc	 mov	 eax, DWORD PTR _this$[ebp]
  0002d	c7 40 10 00 00
	00 00		 mov	 DWORD PTR [eax+16], 0

; 31   : 	m_iInfinityArrowMPConsumptionPlus2	= 0;

  00034	8b 45 fc	 mov	 eax, DWORD PTR _this$[ebp]
  00037	c7 40 14 00 00
	00 00		 mov	 DWORD PTR [eax+20], 0

; 32   : #ifdef UPDATE_ADD_ARROW_TYPE_PLUS_3_20081106
; 33   : 	m_iInfinityArrowMPConsumptionPlus3	= 0;

  0003e	8b 45 fc	 mov	 eax, DWORD PTR _this$[ebp]
  00041	c7 40 18 00 00
	00 00		 mov	 DWORD PTR [eax+24], 0

; 34   : #endif // UPDATE_ADD_ARROW_TYPE_PLUS_3_20081106
; 35   : 	
; 36   : #ifdef ADD_MASTER_LEVEL_SKILL_SYSTEM_ACTIVE_20080107
; 37   : 	for( int iCount = 0; iCount <= 5; iCount++ )
; 38   : 	{
; 39   : 		m_nSoulBarrierManaRate_Level[iCount]	= 0;
; 40   : 	}
; 41   : #endif
; 42   : 
; 43   : }

  00048	5f		 pop	 edi
  00049	5e		 pop	 esi
  0004a	5b		 pop	 ebx
  0004b	8b e5		 mov	 esp, ebp
  0004d	5d		 pop	 ebp
  0004e	c3		 ret	 0
?Init@CSkillAdditionInfo@@QAEXXZ ENDP			; CSkillAdditionInfo::Init
_TEXT	ENDS
; Function compile flags: /Odtp /ZI
; File C:\Mu Online\Mu-GS-Webzen-MC-10093\GameServer\SkillAdditionInfo.cpp
;	COMDAT ??1CSkillAdditionInfo@@UAE@XZ
_TEXT	SEGMENT
_this$ = -4						; size = 4
??1CSkillAdditionInfo@@UAE@XZ PROC			; CSkillAdditionInfo::~CSkillAdditionInfo, COMDAT
; _this$ = ecx

; 21   : {

  00000	55		 push	 ebp
  00001	8b ec		 mov	 ebp, esp
  00003	83 ec 44	 sub	 esp, 68			; 00000044H
  00006	53		 push	 ebx
  00007	56		 push	 esi
  00008	57		 push	 edi
  00009	89 4d fc	 mov	 DWORD PTR _this$[ebp], ecx
  0000c	8b 45 fc	 mov	 eax, DWORD PTR _this$[ebp]
  0000f	c7 00 00 00 00
	00		 mov	 DWORD PTR [eax], OFFSET ??_7CSkillAdditionInfo@@6B@

; 22   : 
; 23   : }

  00015	5f		 pop	 edi
  00016	5e		 pop	 esi
  00017	5b		 pop	 ebx
  00018	8b e5		 mov	 esp, ebp
  0001a	5d		 pop	 ebp
  0001b	c3		 ret	 0
??1CSkillAdditionInfo@@UAE@XZ ENDP			; CSkillAdditionInfo::~CSkillAdditionInfo
_TEXT	ENDS
; Function compile flags: /Odtp /ZI
; File C:\Mu Online\Mu-GS-Webzen-MC-10093\GameServer\SkillAdditionInfo.cpp
;	COMDAT ??0CSkillAdditionInfo@@QAE@XZ
_TEXT	SEGMENT
_this$ = -4						; size = 4
??0CSkillAdditionInfo@@QAE@XZ PROC			; CSkillAdditionInfo::CSkillAdditionInfo, COMDAT
; _this$ = ecx

; 16   : {

  00000	55		 push	 ebp
  00001	8b ec		 mov	 ebp, esp
  00003	83 ec 44	 sub	 esp, 68			; 00000044H
  00006	53		 push	 ebx
  00007	56		 push	 esi
  00008	57		 push	 edi
  00009	89 4d fc	 mov	 DWORD PTR _this$[ebp], ecx
  0000c	8b 45 fc	 mov	 eax, DWORD PTR _this$[ebp]
  0000f	c7 00 00 00 00
	00		 mov	 DWORD PTR [eax], OFFSET ??_7CSkillAdditionInfo@@6B@

; 17   : 	Init();

  00015	8b 4d fc	 mov	 ecx, DWORD PTR _this$[ebp]
  00018	e8 00 00 00 00	 call	 ?Init@CSkillAdditionInfo@@QAEXXZ ; CSkillAdditionInfo::Init

; 18   : }

  0001d	8b 45 fc	 mov	 eax, DWORD PTR _this$[ebp]
  00020	5f		 pop	 edi
  00021	5e		 pop	 esi
  00022	5b		 pop	 ebx
  00023	8b e5		 mov	 esp, ebp
  00025	5d		 pop	 ebp
  00026	c3		 ret	 0
??0CSkillAdditionInfo@@QAE@XZ ENDP			; CSkillAdditionInfo::CSkillAdditionInfo
_TEXT	ENDS
; Function compile flags: /Odtp /ZI
; File C:\Mu Online\Mu-GS-Webzen-MC-10093\GameServer\SkillAdditionInfo.cpp
;	COMDAT ?__empty_global_delete@@YAXPAXI@Z
_TEXT	SEGMENT
___formal$ = 8						; size = 4
___formal$ = 12						; size = 4
?__empty_global_delete@@YAXPAXI@Z PROC			; __empty_global_delete, COMDAT

  00000	55		 push	 ebp
  00001	8b ec		 mov	 ebp, esp
  00003	83 ec 40	 sub	 esp, 64			; 00000040H
  00006	53		 push	 ebx
  00007	56		 push	 esi
  00008	57		 push	 edi
  00009	5f		 pop	 edi
  0000a	5e		 pop	 esi
  0000b	5b		 pop	 ebx
  0000c	8b e5		 mov	 esp, ebp
  0000e	5d		 pop	 ebp
  0000f	c3		 ret	 0
?__empty_global_delete@@YAXPAXI@Z ENDP			; __empty_global_delete
_TEXT	ENDS
; Function compile flags: /Odtp /ZI
; File C:\Mu Online\Mu-GS-Webzen-MC-10093\GameServer\SkillAdditionInfo.cpp
;	COMDAT ?__empty_global_delete@@YAXPAX@Z
_TEXT	SEGMENT
___formal$ = 8						; size = 4
?__empty_global_delete@@YAXPAX@Z PROC			; __empty_global_delete, COMDAT

  00000	55		 push	 ebp
  00001	8b ec		 mov	 ebp, esp
  00003	83 ec 40	 sub	 esp, 64			; 00000040H
  00006	53		 push	 ebx
  00007	56		 push	 esi
  00008	57		 push	 edi
  00009	5f		 pop	 edi
  0000a	5e		 pop	 esi
  0000b	5b		 pop	 ebx
  0000c	8b e5		 mov	 esp, ebp
  0000e	5d		 pop	 ebp
  0000f	c3		 ret	 0
?__empty_global_delete@@YAXPAX@Z ENDP			; __empty_global_delete
_TEXT	ENDS
END
