; Listing generated by Microsoft (R) Optimizing Compiler Version 19.27.29111.0 

	TITLE	C:\Mu Online\Mu-GS-Webzen-MC-10093\GameServer\StdAfx.cpp
	.686P
	.XMM
	include listing.inc
	.model	flat

INCLUDELIB LIBCMT
INCLUDELIB OLDNAMES

PUBLIC	?_AfxInitManaged@@YAHXZ				; _AfxInitManaged
PUBLIC	?szInvalidDateTime@ATL@@3QBDB			; ATL::szInvalidDateTime
PUBLIC	??_C@_0BB@KEKMKJPM@Invalid?5DateTime@		; `string'
PUBLIC	?szInvalidDateTimeSpan@ATL@@3QBDB		; ATL::szInvalidDateTimeSpan
PUBLIC	??_C@_0BF@GPPHKJFN@Invalid?5DateTimeSpan@	; `string'
PUBLIC	__pIncludeInitManaged
PUBLIC	___@@_PchSym_@00@UnfLlmormvUnfRthRdvyavmRnxRBAAJDUyrmUtznvhvieviPpliUrmgvinvwrzgvwriUhgwzucOlyq@4B2008FD98C1DD4
;	COMDAT ___@@_PchSym_@00@UnfLlmormvUnfRthRdvyavmRnxRBAAJDUyrmUtznvhvieviPpliUrmgvinvwrzgvwriUhgwzucOlyq@4B2008FD98C1DD4
_BSS	SEGMENT
___@@_PchSym_@00@UnfLlmormvUnfRthRdvyavmRnxRBAAJDUyrmUtznvhvieviPpliUrmgvinvwrzgvwriUhgwzucOlyq@4B2008FD98C1DD4 DD 01H DUP (?)
_BSS	ENDS
;	COMDAT __pIncludeInitManaged
_DATA	SEGMENT
__pIncludeInitManaged DD FLAT:?_AfxInitManaged@@YAHXZ
_DATA	ENDS
;	COMDAT ??_C@_0BF@GPPHKJFN@Invalid?5DateTimeSpan@
CONST	SEGMENT
??_C@_0BF@GPPHKJFN@Invalid?5DateTimeSpan@ DB 'Invalid DateTimeSpan', 00H ; `string'
CONST	ENDS
;	COMDAT ?szInvalidDateTimeSpan@ATL@@3QBDB
CONST	SEGMENT
?szInvalidDateTimeSpan@ATL@@3QBDB DD FLAT:??_C@_0BF@GPPHKJFN@Invalid?5DateTimeSpan@ ; ATL::szInvalidDateTimeSpan
CONST	ENDS
;	COMDAT ??_C@_0BB@KEKMKJPM@Invalid?5DateTime@
CONST	SEGMENT
??_C@_0BB@KEKMKJPM@Invalid?5DateTime@ DB 'Invalid DateTime', 00H ; `string'
CONST	ENDS
;	COMDAT ?szInvalidDateTime@ATL@@3QBDB
CONST	SEGMENT
?szInvalidDateTime@ATL@@3QBDB DD FLAT:??_C@_0BB@KEKMKJPM@Invalid?5DateTime@ ; ATL::szInvalidDateTime
CONST	ENDS
PUBLIC	?__empty_global_delete@@YAXPAX@Z		; __empty_global_delete
PUBLIC	?__empty_global_delete@@YAXPAXI@Z		; __empty_global_delete
PUBLIC	??0?$CTraceCategoryEx@$0IAAAA@$0A@@ATL@@QAE@PBD@Z ; ATL::CTraceCategoryEx<524288,0>::CTraceCategoryEx<524288,0>
PUBLIC	??0?$CTraceCategoryEx@$00$0A@@ATL@@QAE@PBD@Z	; ATL::CTraceCategoryEx<1,0>::CTraceCategoryEx<1,0>
PUBLIC	??0?$CTraceCategoryEx@$01$0A@@ATL@@QAE@PBD@Z	; ATL::CTraceCategoryEx<2,0>::CTraceCategoryEx<2,0>
PUBLIC	??0?$CTraceCategoryEx@$03$0A@@ATL@@QAE@PBD@Z	; ATL::CTraceCategoryEx<4,0>::CTraceCategoryEx<4,0>
PUBLIC	??0?$CTraceCategoryEx@$07$0A@@ATL@@QAE@PBD@Z	; ATL::CTraceCategoryEx<8,0>::CTraceCategoryEx<8,0>
PUBLIC	??0?$CTraceCategoryEx@$0BA@$0A@@ATL@@QAE@PBD@Z	; ATL::CTraceCategoryEx<16,0>::CTraceCategoryEx<16,0>
PUBLIC	??0?$CTraceCategoryEx@$0CA@$0A@@ATL@@QAE@PBD@Z	; ATL::CTraceCategoryEx<32,0>::CTraceCategoryEx<32,0>
PUBLIC	??0?$CTraceCategoryEx@$0EA@$0A@@ATL@@QAE@PBD@Z	; ATL::CTraceCategoryEx<64,0>::CTraceCategoryEx<64,0>
PUBLIC	??0?$CTraceCategoryEx@$0IA@$0A@@ATL@@QAE@PBD@Z	; ATL::CTraceCategoryEx<128,0>::CTraceCategoryEx<128,0>
PUBLIC	??0?$CTraceCategoryEx@$0BAA@$0A@@ATL@@QAE@PBD@Z	; ATL::CTraceCategoryEx<256,0>::CTraceCategoryEx<256,0>
PUBLIC	??0?$CTraceCategoryEx@$0CAA@$0A@@ATL@@QAE@PBD@Z	; ATL::CTraceCategoryEx<512,0>::CTraceCategoryEx<512,0>
PUBLIC	??0?$CTraceCategoryEx@$0EAA@$0A@@ATL@@QAE@PBD@Z	; ATL::CTraceCategoryEx<1024,0>::CTraceCategoryEx<1024,0>
PUBLIC	??0?$CTraceCategoryEx@$0IAA@$0A@@ATL@@QAE@PBD@Z	; ATL::CTraceCategoryEx<2048,0>::CTraceCategoryEx<2048,0>
PUBLIC	??0?$CTraceCategoryEx@$0BAAA@$0A@@ATL@@QAE@PBD@Z ; ATL::CTraceCategoryEx<4096,0>::CTraceCategoryEx<4096,0>
PUBLIC	??0?$CTraceCategoryEx@$0CAAA@$0A@@ATL@@QAE@PBD@Z ; ATL::CTraceCategoryEx<8192,0>::CTraceCategoryEx<8192,0>
PUBLIC	??0?$CTraceCategoryEx@$0EAAA@$0A@@ATL@@QAE@PBD@Z ; ATL::CTraceCategoryEx<16384,0>::CTraceCategoryEx<16384,0>
PUBLIC	??0?$CTraceCategoryEx@$0IAAA@$0A@@ATL@@QAE@PBD@Z ; ATL::CTraceCategoryEx<32768,0>::CTraceCategoryEx<32768,0>
PUBLIC	??0?$CTraceCategoryEx@$0BAAAA@$0A@@ATL@@QAE@PBD@Z ; ATL::CTraceCategoryEx<65536,0>::CTraceCategoryEx<65536,0>
PUBLIC	??0?$CTraceCategoryEx@$0CAAAA@$0A@@ATL@@QAE@PBD@Z ; ATL::CTraceCategoryEx<131072,0>::CTraceCategoryEx<131072,0>
PUBLIC	??0?$CTraceCategoryEx@$0EAAAA@$0A@@ATL@@QAE@PBD@Z ; ATL::CTraceCategoryEx<262144,0>::CTraceCategoryEx<262144,0>
PUBLIC	??0?$CTraceCategoryEx@$0BAAAAA@$0A@@ATL@@QAE@PBD@Z ; ATL::CTraceCategoryEx<1048576,0>::CTraceCategoryEx<1048576,0>
PUBLIC	??0?$CTraceCategoryEx@$0CAAAAA@$0A@@ATL@@QAE@PBD@Z ; ATL::CTraceCategoryEx<2097152,0>::CTraceCategoryEx<2097152,0>
PUBLIC	??0?$CTraceCategoryEx@$0EAAAAA@$0A@@ATL@@QAE@PBD@Z ; ATL::CTraceCategoryEx<4194304,0>::CTraceCategoryEx<4194304,0>
PUBLIC	?_AtlInitializeCriticalSectionEx@ATL@@YAHPAU_RTL_CRITICAL_SECTION@@KK@Z ; ATL::_AtlInitializeCriticalSectionEx
PUBLIC	?atlTraceGeneral@ATL@@3V?$CTraceCategoryEx@$00$0A@@1@A ; ATL::atlTraceGeneral
PUBLIC	??_C@_0BA@MKMIKKJB@atlTraceGeneral@		; `string'
PUBLIC	?atlTraceCOM@ATL@@3V?$CTraceCategoryEx@$01$0A@@1@A ; ATL::atlTraceCOM
PUBLIC	??_C@_0M@DGPFJEBB@atlTraceCOM@			; `string'
PUBLIC	?atlTraceQI@ATL@@3V?$CTraceCategoryEx@$03$0A@@1@A ; ATL::atlTraceQI
PUBLIC	??_C@_0L@LHELAKBP@atlTraceQI@			; `string'
PUBLIC	?atlTraceRegistrar@ATL@@3V?$CTraceCategoryEx@$07$0A@@1@A ; ATL::atlTraceRegistrar
PUBLIC	??_C@_0BC@MALHFBAO@atlTraceRegistrar@		; `string'
PUBLIC	?atlTraceRefcount@ATL@@3V?$CTraceCategoryEx@$0BA@$0A@@1@A ; ATL::atlTraceRefcount
PUBLIC	??_C@_0BB@ILPPDKFL@atlTraceRefcount@		; `string'
PUBLIC	?atlTraceWindowing@ATL@@3V?$CTraceCategoryEx@$0CA@$0A@@1@A ; ATL::atlTraceWindowing
PUBLIC	??_C@_0BC@DGHHNKDC@atlTraceWindowing@		; `string'
PUBLIC	?atlTraceControls@ATL@@3V?$CTraceCategoryEx@$0EA@$0A@@1@A ; ATL::atlTraceControls
PUBLIC	??_C@_0BB@GHKJKKIE@atlTraceControls@		; `string'
PUBLIC	?atlTraceHosting@ATL@@3V?$CTraceCategoryEx@$0IA@$0A@@1@A ; ATL::atlTraceHosting
PUBLIC	??_C@_0BA@DKOAAGGM@atlTraceHosting@		; `string'
PUBLIC	?atlTraceDBClient@ATL@@3V?$CTraceCategoryEx@$0BAA@$0A@@1@A ; ATL::atlTraceDBClient
PUBLIC	??_C@_0BB@BEBMGMDO@atlTraceDBClient@		; `string'
PUBLIC	?atlTraceDBProvider@ATL@@3V?$CTraceCategoryEx@$0CAA@$0A@@1@A ; ATL::atlTraceDBProvider
PUBLIC	??_C@_0BD@KOADKDIA@atlTraceDBProvider@		; `string'
PUBLIC	?atlTraceSnapin@ATL@@3V?$CTraceCategoryEx@$0EAA@$0A@@1@A ; ATL::atlTraceSnapin
PUBLIC	??_C@_0P@LNEGBOLO@atlTraceSnapin@		; `string'
PUBLIC	?atlTraceNotImpl@ATL@@3V?$CTraceCategoryEx@$0IAA@$0A@@1@A ; ATL::atlTraceNotImpl
PUBLIC	??_C@_0BA@MCBFIDIC@atlTraceNotImpl@		; `string'
PUBLIC	?atlTraceAllocation@ATL@@3V?$CTraceCategoryEx@$0BAAA@$0A@@1@A ; ATL::atlTraceAllocation
PUBLIC	??_C@_0BD@PJPCCAKP@atlTraceAllocation@		; `string'
PUBLIC	?atlTraceException@ATL@@3V?$CTraceCategoryEx@$0CAAA@$0A@@1@A ; ATL::atlTraceException
PUBLIC	??_C@_0BC@PGMFNIFA@atlTraceException@		; `string'
PUBLIC	?atlTraceTime@ATL@@3V?$CTraceCategoryEx@$0EAAA@$0A@@1@A ; ATL::atlTraceTime
PUBLIC	??_C@_0N@BNNILHBE@atlTraceTime@			; `string'
PUBLIC	?atlTraceCache@ATL@@3V?$CTraceCategoryEx@$0IAAA@$0A@@1@A ; ATL::atlTraceCache
PUBLIC	??_C@_0O@MEOJAOKK@atlTraceCache@		; `string'
PUBLIC	?atlTraceStencil@ATL@@3V?$CTraceCategoryEx@$0BAAAA@$0A@@1@A ; ATL::atlTraceStencil
PUBLIC	??_C@_0BA@IDBKCKK@atlTraceStencil@		; `string'
PUBLIC	?atlTraceString@ATL@@3V?$CTraceCategoryEx@$0CAAAA@$0A@@1@A ; ATL::atlTraceString
PUBLIC	??_C@_0P@MBNHGHMI@atlTraceString@		; `string'
PUBLIC	?atlTraceMap@ATL@@3V?$CTraceCategoryEx@$0EAAAA@$0A@@1@A ; ATL::atlTraceMap
PUBLIC	??_C@_0M@IOBBMAHG@atlTraceMap@			; `string'
PUBLIC	?atlTraceUtil@ATL@@3V?$CTraceCategoryEx@$0IAAAA@$0A@@1@A ; ATL::atlTraceUtil
PUBLIC	??_C@_0N@FEAAACHD@atlTraceUtil@			; `string'
PUBLIC	?atlTraceSecurity@ATL@@3V?$CTraceCategoryEx@$0BAAAAA@$0A@@1@A ; ATL::atlTraceSecurity
PUBLIC	??_C@_0BB@DNJDADMG@atlTraceSecurity@		; `string'
PUBLIC	?atlTraceSync@ATL@@3V?$CTraceCategoryEx@$0CAAAAA@$0A@@1@A ; ATL::atlTraceSync
PUBLIC	??_C@_0N@KLPNCFEE@atlTraceSync@			; `string'
PUBLIC	?atlTraceISAPI@ATL@@3V?$CTraceCategoryEx@$0EAAAAA@$0A@@1@A ; ATL::atlTraceISAPI
PUBLIC	??_C@_0O@KHOBHOBJ@atlTraceISAPI@		; `string'
EXTRN	__imp__InitializeCriticalSectionEx@12:PROC
;	COMDAT ?atlTraceGeneral@ATL@@3V?$CTraceCategoryEx@$00$0A@@1@A
_BSS	SEGMENT
?atlTraceGeneral@ATL@@3V?$CTraceCategoryEx@$00$0A@@1@A DD 01H DUP (?) ; ATL::atlTraceGeneral
_BSS	ENDS
;	COMDAT ?atlTraceCOM@ATL@@3V?$CTraceCategoryEx@$01$0A@@1@A
_BSS	SEGMENT
?atlTraceCOM@ATL@@3V?$CTraceCategoryEx@$01$0A@@1@A DD 01H DUP (?) ; ATL::atlTraceCOM
_BSS	ENDS
;	COMDAT ?atlTraceQI@ATL@@3V?$CTraceCategoryEx@$03$0A@@1@A
_BSS	SEGMENT
?atlTraceQI@ATL@@3V?$CTraceCategoryEx@$03$0A@@1@A DD 01H DUP (?) ; ATL::atlTraceQI
_BSS	ENDS
;	COMDAT ?atlTraceRegistrar@ATL@@3V?$CTraceCategoryEx@$07$0A@@1@A
_BSS	SEGMENT
?atlTraceRegistrar@ATL@@3V?$CTraceCategoryEx@$07$0A@@1@A DD 01H DUP (?) ; ATL::atlTraceRegistrar
_BSS	ENDS
;	COMDAT ?atlTraceRefcount@ATL@@3V?$CTraceCategoryEx@$0BA@$0A@@1@A
_BSS	SEGMENT
?atlTraceRefcount@ATL@@3V?$CTraceCategoryEx@$0BA@$0A@@1@A DD 01H DUP (?) ; ATL::atlTraceRefcount
_BSS	ENDS
;	COMDAT ?atlTraceWindowing@ATL@@3V?$CTraceCategoryEx@$0CA@$0A@@1@A
_BSS	SEGMENT
?atlTraceWindowing@ATL@@3V?$CTraceCategoryEx@$0CA@$0A@@1@A DD 01H DUP (?) ; ATL::atlTraceWindowing
_BSS	ENDS
;	COMDAT ?atlTraceControls@ATL@@3V?$CTraceCategoryEx@$0EA@$0A@@1@A
_BSS	SEGMENT
?atlTraceControls@ATL@@3V?$CTraceCategoryEx@$0EA@$0A@@1@A DD 01H DUP (?) ; ATL::atlTraceControls
_BSS	ENDS
;	COMDAT ?atlTraceHosting@ATL@@3V?$CTraceCategoryEx@$0IA@$0A@@1@A
_BSS	SEGMENT
?atlTraceHosting@ATL@@3V?$CTraceCategoryEx@$0IA@$0A@@1@A DD 01H DUP (?) ; ATL::atlTraceHosting
_BSS	ENDS
;	COMDAT ?atlTraceDBClient@ATL@@3V?$CTraceCategoryEx@$0BAA@$0A@@1@A
_BSS	SEGMENT
?atlTraceDBClient@ATL@@3V?$CTraceCategoryEx@$0BAA@$0A@@1@A DD 01H DUP (?) ; ATL::atlTraceDBClient
_BSS	ENDS
;	COMDAT ?atlTraceDBProvider@ATL@@3V?$CTraceCategoryEx@$0CAA@$0A@@1@A
_BSS	SEGMENT
?atlTraceDBProvider@ATL@@3V?$CTraceCategoryEx@$0CAA@$0A@@1@A DD 01H DUP (?) ; ATL::atlTraceDBProvider
_BSS	ENDS
;	COMDAT ?atlTraceSnapin@ATL@@3V?$CTraceCategoryEx@$0EAA@$0A@@1@A
_BSS	SEGMENT
?atlTraceSnapin@ATL@@3V?$CTraceCategoryEx@$0EAA@$0A@@1@A DD 01H DUP (?) ; ATL::atlTraceSnapin
_BSS	ENDS
;	COMDAT ?atlTraceNotImpl@ATL@@3V?$CTraceCategoryEx@$0IAA@$0A@@1@A
_BSS	SEGMENT
?atlTraceNotImpl@ATL@@3V?$CTraceCategoryEx@$0IAA@$0A@@1@A DD 01H DUP (?) ; ATL::atlTraceNotImpl
_BSS	ENDS
;	COMDAT ?atlTraceAllocation@ATL@@3V?$CTraceCategoryEx@$0BAAA@$0A@@1@A
_BSS	SEGMENT
?atlTraceAllocation@ATL@@3V?$CTraceCategoryEx@$0BAAA@$0A@@1@A DD 01H DUP (?) ; ATL::atlTraceAllocation
_BSS	ENDS
;	COMDAT ?atlTraceException@ATL@@3V?$CTraceCategoryEx@$0CAAA@$0A@@1@A
_BSS	SEGMENT
?atlTraceException@ATL@@3V?$CTraceCategoryEx@$0CAAA@$0A@@1@A DD 01H DUP (?) ; ATL::atlTraceException
_BSS	ENDS
;	COMDAT ?atlTraceTime@ATL@@3V?$CTraceCategoryEx@$0EAAA@$0A@@1@A
_BSS	SEGMENT
?atlTraceTime@ATL@@3V?$CTraceCategoryEx@$0EAAA@$0A@@1@A DD 01H DUP (?) ; ATL::atlTraceTime
_BSS	ENDS
;	COMDAT ?atlTraceCache@ATL@@3V?$CTraceCategoryEx@$0IAAA@$0A@@1@A
_BSS	SEGMENT
?atlTraceCache@ATL@@3V?$CTraceCategoryEx@$0IAAA@$0A@@1@A DD 01H DUP (?) ; ATL::atlTraceCache
_BSS	ENDS
;	COMDAT ?atlTraceStencil@ATL@@3V?$CTraceCategoryEx@$0BAAAA@$0A@@1@A
_BSS	SEGMENT
?atlTraceStencil@ATL@@3V?$CTraceCategoryEx@$0BAAAA@$0A@@1@A DD 01H DUP (?) ; ATL::atlTraceStencil
_BSS	ENDS
;	COMDAT ?atlTraceString@ATL@@3V?$CTraceCategoryEx@$0CAAAA@$0A@@1@A
_BSS	SEGMENT
?atlTraceString@ATL@@3V?$CTraceCategoryEx@$0CAAAA@$0A@@1@A DD 01H DUP (?) ; ATL::atlTraceString
_BSS	ENDS
;	COMDAT ?atlTraceMap@ATL@@3V?$CTraceCategoryEx@$0EAAAA@$0A@@1@A
_BSS	SEGMENT
?atlTraceMap@ATL@@3V?$CTraceCategoryEx@$0EAAAA@$0A@@1@A DD 01H DUP (?) ; ATL::atlTraceMap
_BSS	ENDS
;	COMDAT ?atlTraceUtil@ATL@@3V?$CTraceCategoryEx@$0IAAAA@$0A@@1@A
_BSS	SEGMENT
?atlTraceUtil@ATL@@3V?$CTraceCategoryEx@$0IAAAA@$0A@@1@A DD 01H DUP (?) ; ATL::atlTraceUtil
_BSS	ENDS
;	COMDAT ?atlTraceSecurity@ATL@@3V?$CTraceCategoryEx@$0BAAAAA@$0A@@1@A
_BSS	SEGMENT
?atlTraceSecurity@ATL@@3V?$CTraceCategoryEx@$0BAAAAA@$0A@@1@A DD 01H DUP (?) ; ATL::atlTraceSecurity
_BSS	ENDS
;	COMDAT ?atlTraceSync@ATL@@3V?$CTraceCategoryEx@$0CAAAAA@$0A@@1@A
_BSS	SEGMENT
?atlTraceSync@ATL@@3V?$CTraceCategoryEx@$0CAAAAA@$0A@@1@A DD 01H DUP (?) ; ATL::atlTraceSync
_BSS	ENDS
;	COMDAT ?atlTraceISAPI@ATL@@3V?$CTraceCategoryEx@$0EAAAAA@$0A@@1@A
_BSS	SEGMENT
?atlTraceISAPI@ATL@@3V?$CTraceCategoryEx@$0EAAAAA@$0A@@1@A DD 01H DUP (?) ; ATL::atlTraceISAPI
_BSS	ENDS
;	COMDAT CRT$XCU
CRT$XCU	SEGMENT
?atlTraceGeneral$initializer$@ATL@@3P6AXXZA DD FLAT:??__EatlTraceGeneral@ATL@@YAXXZ ; ATL::atlTraceGeneral$initializer$
CRT$XCU	ENDS
;	COMDAT ??_C@_0O@KHOBHOBJ@atlTraceISAPI@
CONST	SEGMENT
??_C@_0O@KHOBHOBJ@atlTraceISAPI@ DB 'atlTraceISAPI', 00H ; `string'
CONST	ENDS
;	COMDAT ??_C@_0N@KLPNCFEE@atlTraceSync@
CONST	SEGMENT
??_C@_0N@KLPNCFEE@atlTraceSync@ DB 'atlTraceSync', 00H	; `string'
CONST	ENDS
;	COMDAT ??_C@_0BB@DNJDADMG@atlTraceSecurity@
CONST	SEGMENT
??_C@_0BB@DNJDADMG@atlTraceSecurity@ DB 'atlTraceSecurity', 00H ; `string'
CONST	ENDS
;	COMDAT ??_C@_0N@FEAAACHD@atlTraceUtil@
CONST	SEGMENT
??_C@_0N@FEAAACHD@atlTraceUtil@ DB 'atlTraceUtil', 00H	; `string'
CONST	ENDS
;	COMDAT ??_C@_0M@IOBBMAHG@atlTraceMap@
CONST	SEGMENT
??_C@_0M@IOBBMAHG@atlTraceMap@ DB 'atlTraceMap', 00H	; `string'
CONST	ENDS
;	COMDAT ??_C@_0P@MBNHGHMI@atlTraceString@
CONST	SEGMENT
??_C@_0P@MBNHGHMI@atlTraceString@ DB 'atlTraceString', 00H ; `string'
CONST	ENDS
;	COMDAT ??_C@_0BA@IDBKCKK@atlTraceStencil@
CONST	SEGMENT
??_C@_0BA@IDBKCKK@atlTraceStencil@ DB 'atlTraceStencil', 00H ; `string'
CONST	ENDS
;	COMDAT ??_C@_0O@MEOJAOKK@atlTraceCache@
CONST	SEGMENT
??_C@_0O@MEOJAOKK@atlTraceCache@ DB 'atlTraceCache', 00H ; `string'
CONST	ENDS
;	COMDAT ??_C@_0N@BNNILHBE@atlTraceTime@
CONST	SEGMENT
??_C@_0N@BNNILHBE@atlTraceTime@ DB 'atlTraceTime', 00H	; `string'
CONST	ENDS
;	COMDAT ??_C@_0BC@PGMFNIFA@atlTraceException@
CONST	SEGMENT
??_C@_0BC@PGMFNIFA@atlTraceException@ DB 'atlTraceException', 00H ; `string'
CONST	ENDS
;	COMDAT ??_C@_0BD@PJPCCAKP@atlTraceAllocation@
CONST	SEGMENT
??_C@_0BD@PJPCCAKP@atlTraceAllocation@ DB 'atlTraceAllocation', 00H ; `string'
CONST	ENDS
;	COMDAT ??_C@_0BA@MCBFIDIC@atlTraceNotImpl@
CONST	SEGMENT
??_C@_0BA@MCBFIDIC@atlTraceNotImpl@ DB 'atlTraceNotImpl', 00H ; `string'
CONST	ENDS
;	COMDAT ??_C@_0P@LNEGBOLO@atlTraceSnapin@
CONST	SEGMENT
??_C@_0P@LNEGBOLO@atlTraceSnapin@ DB 'atlTraceSnapin', 00H ; `string'
CONST	ENDS
;	COMDAT ??_C@_0BD@KOADKDIA@atlTraceDBProvider@
CONST	SEGMENT
??_C@_0BD@KOADKDIA@atlTraceDBProvider@ DB 'atlTraceDBProvider', 00H ; `string'
CONST	ENDS
;	COMDAT ??_C@_0BB@BEBMGMDO@atlTraceDBClient@
CONST	SEGMENT
??_C@_0BB@BEBMGMDO@atlTraceDBClient@ DB 'atlTraceDBClient', 00H ; `string'
CONST	ENDS
;	COMDAT ??_C@_0BA@DKOAAGGM@atlTraceHosting@
CONST	SEGMENT
??_C@_0BA@DKOAAGGM@atlTraceHosting@ DB 'atlTraceHosting', 00H ; `string'
CONST	ENDS
;	COMDAT ??_C@_0BB@GHKJKKIE@atlTraceControls@
CONST	SEGMENT
??_C@_0BB@GHKJKKIE@atlTraceControls@ DB 'atlTraceControls', 00H ; `string'
CONST	ENDS
;	COMDAT ??_C@_0BC@DGHHNKDC@atlTraceWindowing@
CONST	SEGMENT
??_C@_0BC@DGHHNKDC@atlTraceWindowing@ DB 'atlTraceWindowing', 00H ; `string'
CONST	ENDS
;	COMDAT ??_C@_0BB@ILPPDKFL@atlTraceRefcount@
CONST	SEGMENT
??_C@_0BB@ILPPDKFL@atlTraceRefcount@ DB 'atlTraceRefcount', 00H ; `string'
CONST	ENDS
;	COMDAT ??_C@_0BC@MALHFBAO@atlTraceRegistrar@
CONST	SEGMENT
??_C@_0BC@MALHFBAO@atlTraceRegistrar@ DB 'atlTraceRegistrar', 00H ; `string'
CONST	ENDS
;	COMDAT ??_C@_0L@LHELAKBP@atlTraceQI@
CONST	SEGMENT
??_C@_0L@LHELAKBP@atlTraceQI@ DB 'atlTraceQI', 00H	; `string'
CONST	ENDS
;	COMDAT ??_C@_0M@DGPFJEBB@atlTraceCOM@
CONST	SEGMENT
??_C@_0M@DGPFJEBB@atlTraceCOM@ DB 'atlTraceCOM', 00H	; `string'
CONST	ENDS
;	COMDAT ??_C@_0BA@MKMIKKJB@atlTraceGeneral@
CONST	SEGMENT
??_C@_0BA@MKMIKKJB@atlTraceGeneral@ DB 'atlTraceGeneral', 00H ; `string'
CONST	ENDS
;	COMDAT CRT$XCU
CRT$XCU	SEGMENT
?atlTraceCOM$initializer$@ATL@@3P6AXXZA DD FLAT:??__EatlTraceCOM@ATL@@YAXXZ ; ATL::atlTraceCOM$initializer$
CRT$XCU	ENDS
;	COMDAT CRT$XCU
CRT$XCU	SEGMENT
?atlTraceQI$initializer$@ATL@@3P6AXXZA DD FLAT:??__EatlTraceQI@ATL@@YAXXZ ; ATL::atlTraceQI$initializer$
CRT$XCU	ENDS
;	COMDAT CRT$XCU
CRT$XCU	SEGMENT
?atlTraceRegistrar$initializer$@ATL@@3P6AXXZA DD FLAT:??__EatlTraceRegistrar@ATL@@YAXXZ ; ATL::atlTraceRegistrar$initializer$
CRT$XCU	ENDS
;	COMDAT CRT$XCU
CRT$XCU	SEGMENT
?atlTraceRefcount$initializer$@ATL@@3P6AXXZA DD FLAT:??__EatlTraceRefcount@ATL@@YAXXZ ; ATL::atlTraceRefcount$initializer$
CRT$XCU	ENDS
;	COMDAT CRT$XCU
CRT$XCU	SEGMENT
?atlTraceWindowing$initializer$@ATL@@3P6AXXZA DD FLAT:??__EatlTraceWindowing@ATL@@YAXXZ ; ATL::atlTraceWindowing$initializer$
CRT$XCU	ENDS
;	COMDAT CRT$XCU
CRT$XCU	SEGMENT
?atlTraceControls$initializer$@ATL@@3P6AXXZA DD FLAT:??__EatlTraceControls@ATL@@YAXXZ ; ATL::atlTraceControls$initializer$
CRT$XCU	ENDS
;	COMDAT CRT$XCU
CRT$XCU	SEGMENT
?atlTraceHosting$initializer$@ATL@@3P6AXXZA DD FLAT:??__EatlTraceHosting@ATL@@YAXXZ ; ATL::atlTraceHosting$initializer$
CRT$XCU	ENDS
;	COMDAT CRT$XCU
CRT$XCU	SEGMENT
?atlTraceDBClient$initializer$@ATL@@3P6AXXZA DD FLAT:??__EatlTraceDBClient@ATL@@YAXXZ ; ATL::atlTraceDBClient$initializer$
CRT$XCU	ENDS
;	COMDAT CRT$XCU
CRT$XCU	SEGMENT
?atlTraceDBProvider$initializer$@ATL@@3P6AXXZA DD FLAT:??__EatlTraceDBProvider@ATL@@YAXXZ ; ATL::atlTraceDBProvider$initializer$
CRT$XCU	ENDS
;	COMDAT CRT$XCU
CRT$XCU	SEGMENT
?atlTraceSnapin$initializer$@ATL@@3P6AXXZA DD FLAT:??__EatlTraceSnapin@ATL@@YAXXZ ; ATL::atlTraceSnapin$initializer$
CRT$XCU	ENDS
;	COMDAT CRT$XCU
CRT$XCU	SEGMENT
?atlTraceNotImpl$initializer$@ATL@@3P6AXXZA DD FLAT:??__EatlTraceNotImpl@ATL@@YAXXZ ; ATL::atlTraceNotImpl$initializer$
CRT$XCU	ENDS
;	COMDAT CRT$XCU
CRT$XCU	SEGMENT
?atlTraceAllocation$initializer$@ATL@@3P6AXXZA DD FLAT:??__EatlTraceAllocation@ATL@@YAXXZ ; ATL::atlTraceAllocation$initializer$
CRT$XCU	ENDS
;	COMDAT CRT$XCU
CRT$XCU	SEGMENT
?atlTraceException$initializer$@ATL@@3P6AXXZA DD FLAT:??__EatlTraceException@ATL@@YAXXZ ; ATL::atlTraceException$initializer$
CRT$XCU	ENDS
;	COMDAT CRT$XCU
CRT$XCU	SEGMENT
?atlTraceTime$initializer$@ATL@@3P6AXXZA DD FLAT:??__EatlTraceTime@ATL@@YAXXZ ; ATL::atlTraceTime$initializer$
CRT$XCU	ENDS
;	COMDAT CRT$XCU
CRT$XCU	SEGMENT
?atlTraceCache$initializer$@ATL@@3P6AXXZA DD FLAT:??__EatlTraceCache@ATL@@YAXXZ ; ATL::atlTraceCache$initializer$
CRT$XCU	ENDS
;	COMDAT CRT$XCU
CRT$XCU	SEGMENT
?atlTraceStencil$initializer$@ATL@@3P6AXXZA DD FLAT:??__EatlTraceStencil@ATL@@YAXXZ ; ATL::atlTraceStencil$initializer$
CRT$XCU	ENDS
;	COMDAT CRT$XCU
CRT$XCU	SEGMENT
?atlTraceString$initializer$@ATL@@3P6AXXZA DD FLAT:??__EatlTraceString@ATL@@YAXXZ ; ATL::atlTraceString$initializer$
CRT$XCU	ENDS
;	COMDAT CRT$XCU
CRT$XCU	SEGMENT
?atlTraceMap$initializer$@ATL@@3P6AXXZA DD FLAT:??__EatlTraceMap@ATL@@YAXXZ ; ATL::atlTraceMap$initializer$
CRT$XCU	ENDS
;	COMDAT CRT$XCU
CRT$XCU	SEGMENT
?atlTraceUtil$initializer$@ATL@@3P6AXXZA DD FLAT:??__EatlTraceUtil@ATL@@YAXXZ ; ATL::atlTraceUtil$initializer$
CRT$XCU	ENDS
;	COMDAT CRT$XCU
CRT$XCU	SEGMENT
?atlTraceSecurity$initializer$@ATL@@3P6AXXZA DD FLAT:??__EatlTraceSecurity@ATL@@YAXXZ ; ATL::atlTraceSecurity$initializer$
CRT$XCU	ENDS
;	COMDAT CRT$XCU
CRT$XCU	SEGMENT
?atlTraceSync$initializer$@ATL@@3P6AXXZA DD FLAT:??__EatlTraceSync@ATL@@YAXXZ ; ATL::atlTraceSync$initializer$
CRT$XCU	ENDS
;	COMDAT CRT$XCU
CRT$XCU	SEGMENT
?atlTraceISAPI$initializer$@ATL@@3P6AXXZA DD FLAT:??__EatlTraceISAPI@ATL@@YAXXZ ; ATL::atlTraceISAPI$initializer$
CRT$XCU	ENDS
; Function compile flags: /Odtp /ZI
; File C:\Program Files (x86)\Microsoft Visual Studio\2019\Community\VC\Tools\MSVC\14.27.29110\atlmfc\include\afx.inl
;	COMDAT ?_AfxInitManaged@@YAHXZ
_TEXT	SEGMENT
?_AfxInitManaged@@YAHXZ PROC				; _AfxInitManaged, COMDAT

; 86   : {

  00000	55		 push	 ebp
  00001	8b ec		 mov	 ebp, esp
  00003	83 ec 40	 sub	 esp, 64			; 00000040H
  00006	53		 push	 ebx
  00007	56		 push	 esi
  00008	57		 push	 edi

; 87   : 	return 0;

  00009	33 c0		 xor	 eax, eax

; 88   : }

  0000b	5f		 pop	 edi
  0000c	5e		 pop	 esi
  0000d	5b		 pop	 ebx
  0000e	8b e5		 mov	 esp, ebp
  00010	5d		 pop	 ebp
  00011	c3		 ret	 0
?_AfxInitManaged@@YAHXZ ENDP				; _AfxInitManaged
_TEXT	ENDS
; Function compile flags: /Odtp /ZI
; File C:\Program Files (x86)\Microsoft Visual Studio\2019\Community\VC\Tools\MSVC\14.27.29110\atlmfc\include\atlwinverapi.h
;	COMDAT ?_AtlInitializeCriticalSectionEx@ATL@@YAHPAU_RTL_CRITICAL_SECTION@@KK@Z
_TEXT	SEGMENT
_lpCriticalSection$ = 8					; size = 4
_dwSpinCount$ = 12					; size = 4
_Flags$ = 16						; size = 4
?_AtlInitializeCriticalSectionEx@ATL@@YAHPAU_RTL_CRITICAL_SECTION@@KK@Z PROC ; ATL::_AtlInitializeCriticalSectionEx, COMDAT

; 727  : {

  00000	55		 push	 ebp
  00001	8b ec		 mov	 ebp, esp
  00003	83 ec 40	 sub	 esp, 64			; 00000040H
  00006	53		 push	 ebx
  00007	56		 push	 esi
  00008	57		 push	 edi

; 728  : #if (NTDDI_VERSION >= NTDDI_VISTA) && !defined(_USING_V110_SDK71_) && !defined(_ATL_XP_TARGETING)
; 729  : 	// InitializeCriticalSectionEx is available in Vista or later, desktop or store apps
; 730  : 	return ::InitializeCriticalSectionEx(lpCriticalSection, dwSpinCount, Flags);

  00009	8b 45 10	 mov	 eax, DWORD PTR _Flags$[ebp]
  0000c	50		 push	 eax
  0000d	8b 4d 0c	 mov	 ecx, DWORD PTR _dwSpinCount$[ebp]
  00010	51		 push	 ecx
  00011	8b 55 08	 mov	 edx, DWORD PTR _lpCriticalSection$[ebp]
  00014	52		 push	 edx
  00015	ff 15 00 00 00
	00		 call	 DWORD PTR __imp__InitializeCriticalSectionEx@12

; 731  : #else
; 732  : 	UNREFERENCED_PARAMETER(Flags);
; 733  : 
; 734  : 	// ...otherwise fall back to using InitializeCriticalSectionAndSpinCount.
; 735  : 	return ::InitializeCriticalSectionAndSpinCount(lpCriticalSection, dwSpinCount);
; 736  : #endif
; 737  : }

  0001b	5f		 pop	 edi
  0001c	5e		 pop	 esi
  0001d	5b		 pop	 ebx
  0001e	8b e5		 mov	 esp, ebp
  00020	5d		 pop	 ebp
  00021	c3		 ret	 0
?_AtlInitializeCriticalSectionEx@ATL@@YAHPAU_RTL_CRITICAL_SECTION@@KK@Z ENDP ; ATL::_AtlInitializeCriticalSectionEx
_TEXT	ENDS
; Function compile flags: /Odtp /ZI
; File C:\Program Files (x86)\Microsoft Visual Studio\2019\Community\VC\Tools\MSVC\14.27.29110\atlmfc\include\atltrace.h
;	COMDAT ??__EatlTraceISAPI@ATL@@YAXXZ
text$di	SEGMENT
??__EatlTraceISAPI@ATL@@YAXXZ PROC			; ATL::`dynamic initializer for 'atlTraceISAPI'', COMDAT

; 119  : __declspec(selectany) CTraceCategoryEx<CTraceCategoryEx<>::TraceISAPI> atlTraceISAPI(_T("atlTraceISAPI"));

  00000	55		 push	 ebp
  00001	8b ec		 mov	 ebp, esp
  00003	83 ec 40	 sub	 esp, 64			; 00000040H
  00006	53		 push	 ebx
  00007	56		 push	 esi
  00008	57		 push	 edi
  00009	68 00 00 00 00	 push	 OFFSET ??_C@_0O@KHOBHOBJ@atlTraceISAPI@
  0000e	b9 00 00 00 00	 mov	 ecx, OFFSET ?atlTraceISAPI@ATL@@3V?$CTraceCategoryEx@$0EAAAAA@$0A@@1@A ; ATL::atlTraceISAPI
  00013	e8 00 00 00 00	 call	 ??0?$CTraceCategoryEx@$0EAAAAA@$0A@@ATL@@QAE@PBD@Z ; ATL::CTraceCategoryEx<4194304,0>::CTraceCategoryEx<4194304,0>
  00018	5f		 pop	 edi
  00019	5e		 pop	 esi
  0001a	5b		 pop	 ebx
  0001b	8b e5		 mov	 esp, ebp
  0001d	5d		 pop	 ebp
  0001e	c3		 ret	 0
??__EatlTraceISAPI@ATL@@YAXXZ ENDP			; ATL::`dynamic initializer for 'atlTraceISAPI''
text$di	ENDS
; Function compile flags: /Odtp /ZI
; File C:\Program Files (x86)\Microsoft Visual Studio\2019\Community\VC\Tools\MSVC\14.27.29110\atlmfc\include\atltrace.h
;	COMDAT ??0?$CTraceCategoryEx@$0EAAAAA@$0A@@ATL@@QAE@PBD@Z
_TEXT	SEGMENT
_this$ = -4						; size = 4
_pszCategoryName$ = 8					; size = 4
??0?$CTraceCategoryEx@$0EAAAAA@$0A@@ATL@@QAE@PBD@Z PROC	; ATL::CTraceCategoryEx<4194304,0>::CTraceCategoryEx<4194304,0>, COMDAT
; _this$ = ecx

; 495  : {

  00000	55		 push	 ebp
  00001	8b ec		 mov	 ebp, esp
  00003	83 ec 44	 sub	 esp, 68			; 00000044H
  00006	53		 push	 ebx
  00007	56		 push	 esi
  00008	57		 push	 edi
  00009	89 4d fc	 mov	 DWORD PTR _this$[ebp], ecx

; 496  : 	(void)pszCategoryName;
; 497  : }

  0000c	8b 45 fc	 mov	 eax, DWORD PTR _this$[ebp]
  0000f	5f		 pop	 edi
  00010	5e		 pop	 esi
  00011	5b		 pop	 ebx
  00012	8b e5		 mov	 esp, ebp
  00014	5d		 pop	 ebp
  00015	c2 04 00	 ret	 4
??0?$CTraceCategoryEx@$0EAAAAA@$0A@@ATL@@QAE@PBD@Z ENDP	; ATL::CTraceCategoryEx<4194304,0>::CTraceCategoryEx<4194304,0>
_TEXT	ENDS
; Function compile flags: /Odtp /ZI
; File C:\Program Files (x86)\Microsoft Visual Studio\2019\Community\VC\Tools\MSVC\14.27.29110\atlmfc\include\atltrace.h
;	COMDAT ??__EatlTraceSync@ATL@@YAXXZ
text$di	SEGMENT
??__EatlTraceSync@ATL@@YAXXZ PROC			; ATL::`dynamic initializer for 'atlTraceSync'', COMDAT

; 118  : __declspec(selectany) CTraceCategoryEx<CTraceCategoryEx<>::TraceSync> atlTraceSync(_T("atlTraceSync"));

  00000	55		 push	 ebp
  00001	8b ec		 mov	 ebp, esp
  00003	83 ec 40	 sub	 esp, 64			; 00000040H
  00006	53		 push	 ebx
  00007	56		 push	 esi
  00008	57		 push	 edi
  00009	68 00 00 00 00	 push	 OFFSET ??_C@_0N@KLPNCFEE@atlTraceSync@
  0000e	b9 00 00 00 00	 mov	 ecx, OFFSET ?atlTraceSync@ATL@@3V?$CTraceCategoryEx@$0CAAAAA@$0A@@1@A ; ATL::atlTraceSync
  00013	e8 00 00 00 00	 call	 ??0?$CTraceCategoryEx@$0CAAAAA@$0A@@ATL@@QAE@PBD@Z ; ATL::CTraceCategoryEx<2097152,0>::CTraceCategoryEx<2097152,0>
  00018	5f		 pop	 edi
  00019	5e		 pop	 esi
  0001a	5b		 pop	 ebx
  0001b	8b e5		 mov	 esp, ebp
  0001d	5d		 pop	 ebp
  0001e	c3		 ret	 0
??__EatlTraceSync@ATL@@YAXXZ ENDP			; ATL::`dynamic initializer for 'atlTraceSync''
text$di	ENDS
; Function compile flags: /Odtp /ZI
; File C:\Program Files (x86)\Microsoft Visual Studio\2019\Community\VC\Tools\MSVC\14.27.29110\atlmfc\include\atltrace.h
;	COMDAT ??0?$CTraceCategoryEx@$0CAAAAA@$0A@@ATL@@QAE@PBD@Z
_TEXT	SEGMENT
_this$ = -4						; size = 4
_pszCategoryName$ = 8					; size = 4
??0?$CTraceCategoryEx@$0CAAAAA@$0A@@ATL@@QAE@PBD@Z PROC	; ATL::CTraceCategoryEx<2097152,0>::CTraceCategoryEx<2097152,0>, COMDAT
; _this$ = ecx

; 495  : {

  00000	55		 push	 ebp
  00001	8b ec		 mov	 ebp, esp
  00003	83 ec 44	 sub	 esp, 68			; 00000044H
  00006	53		 push	 ebx
  00007	56		 push	 esi
  00008	57		 push	 edi
  00009	89 4d fc	 mov	 DWORD PTR _this$[ebp], ecx

; 496  : 	(void)pszCategoryName;
; 497  : }

  0000c	8b 45 fc	 mov	 eax, DWORD PTR _this$[ebp]
  0000f	5f		 pop	 edi
  00010	5e		 pop	 esi
  00011	5b		 pop	 ebx
  00012	8b e5		 mov	 esp, ebp
  00014	5d		 pop	 ebp
  00015	c2 04 00	 ret	 4
??0?$CTraceCategoryEx@$0CAAAAA@$0A@@ATL@@QAE@PBD@Z ENDP	; ATL::CTraceCategoryEx<2097152,0>::CTraceCategoryEx<2097152,0>
_TEXT	ENDS
; Function compile flags: /Odtp /ZI
; File C:\Program Files (x86)\Microsoft Visual Studio\2019\Community\VC\Tools\MSVC\14.27.29110\atlmfc\include\atltrace.h
;	COMDAT ??__EatlTraceSecurity@ATL@@YAXXZ
text$di	SEGMENT
??__EatlTraceSecurity@ATL@@YAXXZ PROC			; ATL::`dynamic initializer for 'atlTraceSecurity'', COMDAT

; 117  : __declspec(selectany) CTraceCategoryEx<CTraceCategoryEx<>::TraceSecurity> atlTraceSecurity(_T("atlTraceSecurity"));

  00000	55		 push	 ebp
  00001	8b ec		 mov	 ebp, esp
  00003	83 ec 40	 sub	 esp, 64			; 00000040H
  00006	53		 push	 ebx
  00007	56		 push	 esi
  00008	57		 push	 edi
  00009	68 00 00 00 00	 push	 OFFSET ??_C@_0BB@DNJDADMG@atlTraceSecurity@
  0000e	b9 00 00 00 00	 mov	 ecx, OFFSET ?atlTraceSecurity@ATL@@3V?$CTraceCategoryEx@$0BAAAAA@$0A@@1@A ; ATL::atlTraceSecurity
  00013	e8 00 00 00 00	 call	 ??0?$CTraceCategoryEx@$0BAAAAA@$0A@@ATL@@QAE@PBD@Z ; ATL::CTraceCategoryEx<1048576,0>::CTraceCategoryEx<1048576,0>
  00018	5f		 pop	 edi
  00019	5e		 pop	 esi
  0001a	5b		 pop	 ebx
  0001b	8b e5		 mov	 esp, ebp
  0001d	5d		 pop	 ebp
  0001e	c3		 ret	 0
??__EatlTraceSecurity@ATL@@YAXXZ ENDP			; ATL::`dynamic initializer for 'atlTraceSecurity''
text$di	ENDS
; Function compile flags: /Odtp /ZI
; File C:\Program Files (x86)\Microsoft Visual Studio\2019\Community\VC\Tools\MSVC\14.27.29110\atlmfc\include\atltrace.h
;	COMDAT ??0?$CTraceCategoryEx@$0BAAAAA@$0A@@ATL@@QAE@PBD@Z
_TEXT	SEGMENT
_this$ = -4						; size = 4
_pszCategoryName$ = 8					; size = 4
??0?$CTraceCategoryEx@$0BAAAAA@$0A@@ATL@@QAE@PBD@Z PROC	; ATL::CTraceCategoryEx<1048576,0>::CTraceCategoryEx<1048576,0>, COMDAT
; _this$ = ecx

; 495  : {

  00000	55		 push	 ebp
  00001	8b ec		 mov	 ebp, esp
  00003	83 ec 44	 sub	 esp, 68			; 00000044H
  00006	53		 push	 ebx
  00007	56		 push	 esi
  00008	57		 push	 edi
  00009	89 4d fc	 mov	 DWORD PTR _this$[ebp], ecx

; 496  : 	(void)pszCategoryName;
; 497  : }

  0000c	8b 45 fc	 mov	 eax, DWORD PTR _this$[ebp]
  0000f	5f		 pop	 edi
  00010	5e		 pop	 esi
  00011	5b		 pop	 ebx
  00012	8b e5		 mov	 esp, ebp
  00014	5d		 pop	 ebp
  00015	c2 04 00	 ret	 4
??0?$CTraceCategoryEx@$0BAAAAA@$0A@@ATL@@QAE@PBD@Z ENDP	; ATL::CTraceCategoryEx<1048576,0>::CTraceCategoryEx<1048576,0>
_TEXT	ENDS
; Function compile flags: /Odtp /ZI
; File C:\Program Files (x86)\Microsoft Visual Studio\2019\Community\VC\Tools\MSVC\14.27.29110\atlmfc\include\atltrace.h
;	COMDAT ??__EatlTraceUtil@ATL@@YAXXZ
text$di	SEGMENT
??__EatlTraceUtil@ATL@@YAXXZ PROC			; ATL::`dynamic initializer for 'atlTraceUtil'', COMDAT

; 116  : __declspec(selectany) CTraceCategoryEx<CTraceCategoryEx<>::TraceUtil> atlTraceUtil(_T("atlTraceUtil"));

  00000	55		 push	 ebp
  00001	8b ec		 mov	 ebp, esp
  00003	83 ec 40	 sub	 esp, 64			; 00000040H
  00006	53		 push	 ebx
  00007	56		 push	 esi
  00008	57		 push	 edi
  00009	68 00 00 00 00	 push	 OFFSET ??_C@_0N@FEAAACHD@atlTraceUtil@
  0000e	b9 00 00 00 00	 mov	 ecx, OFFSET ?atlTraceUtil@ATL@@3V?$CTraceCategoryEx@$0IAAAA@$0A@@1@A ; ATL::atlTraceUtil
  00013	e8 00 00 00 00	 call	 ??0?$CTraceCategoryEx@$0IAAAA@$0A@@ATL@@QAE@PBD@Z ; ATL::CTraceCategoryEx<524288,0>::CTraceCategoryEx<524288,0>
  00018	5f		 pop	 edi
  00019	5e		 pop	 esi
  0001a	5b		 pop	 ebx
  0001b	8b e5		 mov	 esp, ebp
  0001d	5d		 pop	 ebp
  0001e	c3		 ret	 0
??__EatlTraceUtil@ATL@@YAXXZ ENDP			; ATL::`dynamic initializer for 'atlTraceUtil''
text$di	ENDS
; Function compile flags: /Odtp /ZI
; File C:\Program Files (x86)\Microsoft Visual Studio\2019\Community\VC\Tools\MSVC\14.27.29110\atlmfc\include\atltrace.h
;	COMDAT ??__EatlTraceMap@ATL@@YAXXZ
text$di	SEGMENT
??__EatlTraceMap@ATL@@YAXXZ PROC			; ATL::`dynamic initializer for 'atlTraceMap'', COMDAT

; 115  : __declspec(selectany) CTraceCategoryEx<CTraceCategoryEx<>::TraceMap> atlTraceMap(_T("atlTraceMap"));

  00000	55		 push	 ebp
  00001	8b ec		 mov	 ebp, esp
  00003	83 ec 40	 sub	 esp, 64			; 00000040H
  00006	53		 push	 ebx
  00007	56		 push	 esi
  00008	57		 push	 edi
  00009	68 00 00 00 00	 push	 OFFSET ??_C@_0M@IOBBMAHG@atlTraceMap@
  0000e	b9 00 00 00 00	 mov	 ecx, OFFSET ?atlTraceMap@ATL@@3V?$CTraceCategoryEx@$0EAAAA@$0A@@1@A ; ATL::atlTraceMap
  00013	e8 00 00 00 00	 call	 ??0?$CTraceCategoryEx@$0EAAAA@$0A@@ATL@@QAE@PBD@Z ; ATL::CTraceCategoryEx<262144,0>::CTraceCategoryEx<262144,0>
  00018	5f		 pop	 edi
  00019	5e		 pop	 esi
  0001a	5b		 pop	 ebx
  0001b	8b e5		 mov	 esp, ebp
  0001d	5d		 pop	 ebp
  0001e	c3		 ret	 0
??__EatlTraceMap@ATL@@YAXXZ ENDP			; ATL::`dynamic initializer for 'atlTraceMap''
text$di	ENDS
; Function compile flags: /Odtp /ZI
; File C:\Program Files (x86)\Microsoft Visual Studio\2019\Community\VC\Tools\MSVC\14.27.29110\atlmfc\include\atltrace.h
;	COMDAT ??0?$CTraceCategoryEx@$0EAAAA@$0A@@ATL@@QAE@PBD@Z
_TEXT	SEGMENT
_this$ = -4						; size = 4
_pszCategoryName$ = 8					; size = 4
??0?$CTraceCategoryEx@$0EAAAA@$0A@@ATL@@QAE@PBD@Z PROC	; ATL::CTraceCategoryEx<262144,0>::CTraceCategoryEx<262144,0>, COMDAT
; _this$ = ecx

; 495  : {

  00000	55		 push	 ebp
  00001	8b ec		 mov	 ebp, esp
  00003	83 ec 44	 sub	 esp, 68			; 00000044H
  00006	53		 push	 ebx
  00007	56		 push	 esi
  00008	57		 push	 edi
  00009	89 4d fc	 mov	 DWORD PTR _this$[ebp], ecx

; 496  : 	(void)pszCategoryName;
; 497  : }

  0000c	8b 45 fc	 mov	 eax, DWORD PTR _this$[ebp]
  0000f	5f		 pop	 edi
  00010	5e		 pop	 esi
  00011	5b		 pop	 ebx
  00012	8b e5		 mov	 esp, ebp
  00014	5d		 pop	 ebp
  00015	c2 04 00	 ret	 4
??0?$CTraceCategoryEx@$0EAAAA@$0A@@ATL@@QAE@PBD@Z ENDP	; ATL::CTraceCategoryEx<262144,0>::CTraceCategoryEx<262144,0>
_TEXT	ENDS
; Function compile flags: /Odtp /ZI
; File C:\Program Files (x86)\Microsoft Visual Studio\2019\Community\VC\Tools\MSVC\14.27.29110\atlmfc\include\atltrace.h
;	COMDAT ??__EatlTraceString@ATL@@YAXXZ
text$di	SEGMENT
??__EatlTraceString@ATL@@YAXXZ PROC			; ATL::`dynamic initializer for 'atlTraceString'', COMDAT

; 114  : __declspec(selectany) CTraceCategoryEx<CTraceCategoryEx<>::TraceString> atlTraceString(_T("atlTraceString"));

  00000	55		 push	 ebp
  00001	8b ec		 mov	 ebp, esp
  00003	83 ec 40	 sub	 esp, 64			; 00000040H
  00006	53		 push	 ebx
  00007	56		 push	 esi
  00008	57		 push	 edi
  00009	68 00 00 00 00	 push	 OFFSET ??_C@_0P@MBNHGHMI@atlTraceString@
  0000e	b9 00 00 00 00	 mov	 ecx, OFFSET ?atlTraceString@ATL@@3V?$CTraceCategoryEx@$0CAAAA@$0A@@1@A ; ATL::atlTraceString
  00013	e8 00 00 00 00	 call	 ??0?$CTraceCategoryEx@$0CAAAA@$0A@@ATL@@QAE@PBD@Z ; ATL::CTraceCategoryEx<131072,0>::CTraceCategoryEx<131072,0>
  00018	5f		 pop	 edi
  00019	5e		 pop	 esi
  0001a	5b		 pop	 ebx
  0001b	8b e5		 mov	 esp, ebp
  0001d	5d		 pop	 ebp
  0001e	c3		 ret	 0
??__EatlTraceString@ATL@@YAXXZ ENDP			; ATL::`dynamic initializer for 'atlTraceString''
text$di	ENDS
; Function compile flags: /Odtp /ZI
; File C:\Program Files (x86)\Microsoft Visual Studio\2019\Community\VC\Tools\MSVC\14.27.29110\atlmfc\include\atltrace.h
;	COMDAT ??0?$CTraceCategoryEx@$0CAAAA@$0A@@ATL@@QAE@PBD@Z
_TEXT	SEGMENT
_this$ = -4						; size = 4
_pszCategoryName$ = 8					; size = 4
??0?$CTraceCategoryEx@$0CAAAA@$0A@@ATL@@QAE@PBD@Z PROC	; ATL::CTraceCategoryEx<131072,0>::CTraceCategoryEx<131072,0>, COMDAT
; _this$ = ecx

; 495  : {

  00000	55		 push	 ebp
  00001	8b ec		 mov	 ebp, esp
  00003	83 ec 44	 sub	 esp, 68			; 00000044H
  00006	53		 push	 ebx
  00007	56		 push	 esi
  00008	57		 push	 edi
  00009	89 4d fc	 mov	 DWORD PTR _this$[ebp], ecx

; 496  : 	(void)pszCategoryName;
; 497  : }

  0000c	8b 45 fc	 mov	 eax, DWORD PTR _this$[ebp]
  0000f	5f		 pop	 edi
  00010	5e		 pop	 esi
  00011	5b		 pop	 ebx
  00012	8b e5		 mov	 esp, ebp
  00014	5d		 pop	 ebp
  00015	c2 04 00	 ret	 4
??0?$CTraceCategoryEx@$0CAAAA@$0A@@ATL@@QAE@PBD@Z ENDP	; ATL::CTraceCategoryEx<131072,0>::CTraceCategoryEx<131072,0>
_TEXT	ENDS
; Function compile flags: /Odtp /ZI
; File C:\Program Files (x86)\Microsoft Visual Studio\2019\Community\VC\Tools\MSVC\14.27.29110\atlmfc\include\atltrace.h
;	COMDAT ??__EatlTraceStencil@ATL@@YAXXZ
text$di	SEGMENT
??__EatlTraceStencil@ATL@@YAXXZ PROC			; ATL::`dynamic initializer for 'atlTraceStencil'', COMDAT

; 113  : __declspec(selectany) CTraceCategoryEx<CTraceCategoryEx<>::TraceStencil> atlTraceStencil(_T("atlTraceStencil"));

  00000	55		 push	 ebp
  00001	8b ec		 mov	 ebp, esp
  00003	83 ec 40	 sub	 esp, 64			; 00000040H
  00006	53		 push	 ebx
  00007	56		 push	 esi
  00008	57		 push	 edi
  00009	68 00 00 00 00	 push	 OFFSET ??_C@_0BA@IDBKCKK@atlTraceStencil@
  0000e	b9 00 00 00 00	 mov	 ecx, OFFSET ?atlTraceStencil@ATL@@3V?$CTraceCategoryEx@$0BAAAA@$0A@@1@A ; ATL::atlTraceStencil
  00013	e8 00 00 00 00	 call	 ??0?$CTraceCategoryEx@$0BAAAA@$0A@@ATL@@QAE@PBD@Z ; ATL::CTraceCategoryEx<65536,0>::CTraceCategoryEx<65536,0>
  00018	5f		 pop	 edi
  00019	5e		 pop	 esi
  0001a	5b		 pop	 ebx
  0001b	8b e5		 mov	 esp, ebp
  0001d	5d		 pop	 ebp
  0001e	c3		 ret	 0
??__EatlTraceStencil@ATL@@YAXXZ ENDP			; ATL::`dynamic initializer for 'atlTraceStencil''
text$di	ENDS
; Function compile flags: /Odtp /ZI
; File C:\Program Files (x86)\Microsoft Visual Studio\2019\Community\VC\Tools\MSVC\14.27.29110\atlmfc\include\atltrace.h
;	COMDAT ??0?$CTraceCategoryEx@$0BAAAA@$0A@@ATL@@QAE@PBD@Z
_TEXT	SEGMENT
_this$ = -4						; size = 4
_pszCategoryName$ = 8					; size = 4
??0?$CTraceCategoryEx@$0BAAAA@$0A@@ATL@@QAE@PBD@Z PROC	; ATL::CTraceCategoryEx<65536,0>::CTraceCategoryEx<65536,0>, COMDAT
; _this$ = ecx

; 495  : {

  00000	55		 push	 ebp
  00001	8b ec		 mov	 ebp, esp
  00003	83 ec 44	 sub	 esp, 68			; 00000044H
  00006	53		 push	 ebx
  00007	56		 push	 esi
  00008	57		 push	 edi
  00009	89 4d fc	 mov	 DWORD PTR _this$[ebp], ecx

; 496  : 	(void)pszCategoryName;
; 497  : }

  0000c	8b 45 fc	 mov	 eax, DWORD PTR _this$[ebp]
  0000f	5f		 pop	 edi
  00010	5e		 pop	 esi
  00011	5b		 pop	 ebx
  00012	8b e5		 mov	 esp, ebp
  00014	5d		 pop	 ebp
  00015	c2 04 00	 ret	 4
??0?$CTraceCategoryEx@$0BAAAA@$0A@@ATL@@QAE@PBD@Z ENDP	; ATL::CTraceCategoryEx<65536,0>::CTraceCategoryEx<65536,0>
_TEXT	ENDS
; Function compile flags: /Odtp /ZI
; File C:\Program Files (x86)\Microsoft Visual Studio\2019\Community\VC\Tools\MSVC\14.27.29110\atlmfc\include\atltrace.h
;	COMDAT ??__EatlTraceCache@ATL@@YAXXZ
text$di	SEGMENT
??__EatlTraceCache@ATL@@YAXXZ PROC			; ATL::`dynamic initializer for 'atlTraceCache'', COMDAT

; 112  : __declspec(selectany) CTraceCategoryEx<CTraceCategoryEx<>::TraceCache> atlTraceCache(_T("atlTraceCache"));

  00000	55		 push	 ebp
  00001	8b ec		 mov	 ebp, esp
  00003	83 ec 40	 sub	 esp, 64			; 00000040H
  00006	53		 push	 ebx
  00007	56		 push	 esi
  00008	57		 push	 edi
  00009	68 00 00 00 00	 push	 OFFSET ??_C@_0O@MEOJAOKK@atlTraceCache@
  0000e	b9 00 00 00 00	 mov	 ecx, OFFSET ?atlTraceCache@ATL@@3V?$CTraceCategoryEx@$0IAAA@$0A@@1@A ; ATL::atlTraceCache
  00013	e8 00 00 00 00	 call	 ??0?$CTraceCategoryEx@$0IAAA@$0A@@ATL@@QAE@PBD@Z ; ATL::CTraceCategoryEx<32768,0>::CTraceCategoryEx<32768,0>
  00018	5f		 pop	 edi
  00019	5e		 pop	 esi
  0001a	5b		 pop	 ebx
  0001b	8b e5		 mov	 esp, ebp
  0001d	5d		 pop	 ebp
  0001e	c3		 ret	 0
??__EatlTraceCache@ATL@@YAXXZ ENDP			; ATL::`dynamic initializer for 'atlTraceCache''
text$di	ENDS
; Function compile flags: /Odtp /ZI
; File C:\Program Files (x86)\Microsoft Visual Studio\2019\Community\VC\Tools\MSVC\14.27.29110\atlmfc\include\atltrace.h
;	COMDAT ??0?$CTraceCategoryEx@$0IAAA@$0A@@ATL@@QAE@PBD@Z
_TEXT	SEGMENT
_this$ = -4						; size = 4
_pszCategoryName$ = 8					; size = 4
??0?$CTraceCategoryEx@$0IAAA@$0A@@ATL@@QAE@PBD@Z PROC	; ATL::CTraceCategoryEx<32768,0>::CTraceCategoryEx<32768,0>, COMDAT
; _this$ = ecx

; 495  : {

  00000	55		 push	 ebp
  00001	8b ec		 mov	 ebp, esp
  00003	83 ec 44	 sub	 esp, 68			; 00000044H
  00006	53		 push	 ebx
  00007	56		 push	 esi
  00008	57		 push	 edi
  00009	89 4d fc	 mov	 DWORD PTR _this$[ebp], ecx

; 496  : 	(void)pszCategoryName;
; 497  : }

  0000c	8b 45 fc	 mov	 eax, DWORD PTR _this$[ebp]
  0000f	5f		 pop	 edi
  00010	5e		 pop	 esi
  00011	5b		 pop	 ebx
  00012	8b e5		 mov	 esp, ebp
  00014	5d		 pop	 ebp
  00015	c2 04 00	 ret	 4
??0?$CTraceCategoryEx@$0IAAA@$0A@@ATL@@QAE@PBD@Z ENDP	; ATL::CTraceCategoryEx<32768,0>::CTraceCategoryEx<32768,0>
_TEXT	ENDS
; Function compile flags: /Odtp /ZI
; File C:\Program Files (x86)\Microsoft Visual Studio\2019\Community\VC\Tools\MSVC\14.27.29110\atlmfc\include\atltrace.h
;	COMDAT ??__EatlTraceTime@ATL@@YAXXZ
text$di	SEGMENT
??__EatlTraceTime@ATL@@YAXXZ PROC			; ATL::`dynamic initializer for 'atlTraceTime'', COMDAT

; 111  : __declspec(selectany) CTraceCategoryEx<CTraceCategoryEx<>::TraceTime> atlTraceTime(_T("atlTraceTime"));

  00000	55		 push	 ebp
  00001	8b ec		 mov	 ebp, esp
  00003	83 ec 40	 sub	 esp, 64			; 00000040H
  00006	53		 push	 ebx
  00007	56		 push	 esi
  00008	57		 push	 edi
  00009	68 00 00 00 00	 push	 OFFSET ??_C@_0N@BNNILHBE@atlTraceTime@
  0000e	b9 00 00 00 00	 mov	 ecx, OFFSET ?atlTraceTime@ATL@@3V?$CTraceCategoryEx@$0EAAA@$0A@@1@A ; ATL::atlTraceTime
  00013	e8 00 00 00 00	 call	 ??0?$CTraceCategoryEx@$0EAAA@$0A@@ATL@@QAE@PBD@Z ; ATL::CTraceCategoryEx<16384,0>::CTraceCategoryEx<16384,0>
  00018	5f		 pop	 edi
  00019	5e		 pop	 esi
  0001a	5b		 pop	 ebx
  0001b	8b e5		 mov	 esp, ebp
  0001d	5d		 pop	 ebp
  0001e	c3		 ret	 0
??__EatlTraceTime@ATL@@YAXXZ ENDP			; ATL::`dynamic initializer for 'atlTraceTime''
text$di	ENDS
; Function compile flags: /Odtp /ZI
; File C:\Program Files (x86)\Microsoft Visual Studio\2019\Community\VC\Tools\MSVC\14.27.29110\atlmfc\include\atltrace.h
;	COMDAT ??0?$CTraceCategoryEx@$0EAAA@$0A@@ATL@@QAE@PBD@Z
_TEXT	SEGMENT
_this$ = -4						; size = 4
_pszCategoryName$ = 8					; size = 4
??0?$CTraceCategoryEx@$0EAAA@$0A@@ATL@@QAE@PBD@Z PROC	; ATL::CTraceCategoryEx<16384,0>::CTraceCategoryEx<16384,0>, COMDAT
; _this$ = ecx

; 495  : {

  00000	55		 push	 ebp
  00001	8b ec		 mov	 ebp, esp
  00003	83 ec 44	 sub	 esp, 68			; 00000044H
  00006	53		 push	 ebx
  00007	56		 push	 esi
  00008	57		 push	 edi
  00009	89 4d fc	 mov	 DWORD PTR _this$[ebp], ecx

; 496  : 	(void)pszCategoryName;
; 497  : }

  0000c	8b 45 fc	 mov	 eax, DWORD PTR _this$[ebp]
  0000f	5f		 pop	 edi
  00010	5e		 pop	 esi
  00011	5b		 pop	 ebx
  00012	8b e5		 mov	 esp, ebp
  00014	5d		 pop	 ebp
  00015	c2 04 00	 ret	 4
??0?$CTraceCategoryEx@$0EAAA@$0A@@ATL@@QAE@PBD@Z ENDP	; ATL::CTraceCategoryEx<16384,0>::CTraceCategoryEx<16384,0>
_TEXT	ENDS
; Function compile flags: /Odtp /ZI
; File C:\Program Files (x86)\Microsoft Visual Studio\2019\Community\VC\Tools\MSVC\14.27.29110\atlmfc\include\atltrace.h
;	COMDAT ??__EatlTraceException@ATL@@YAXXZ
text$di	SEGMENT
??__EatlTraceException@ATL@@YAXXZ PROC			; ATL::`dynamic initializer for 'atlTraceException'', COMDAT

; 110  : __declspec(selectany) CTraceCategoryEx<CTraceCategoryEx<>::TraceException> atlTraceException(_T("atlTraceException"));

  00000	55		 push	 ebp
  00001	8b ec		 mov	 ebp, esp
  00003	83 ec 40	 sub	 esp, 64			; 00000040H
  00006	53		 push	 ebx
  00007	56		 push	 esi
  00008	57		 push	 edi
  00009	68 00 00 00 00	 push	 OFFSET ??_C@_0BC@PGMFNIFA@atlTraceException@
  0000e	b9 00 00 00 00	 mov	 ecx, OFFSET ?atlTraceException@ATL@@3V?$CTraceCategoryEx@$0CAAA@$0A@@1@A ; ATL::atlTraceException
  00013	e8 00 00 00 00	 call	 ??0?$CTraceCategoryEx@$0CAAA@$0A@@ATL@@QAE@PBD@Z ; ATL::CTraceCategoryEx<8192,0>::CTraceCategoryEx<8192,0>
  00018	5f		 pop	 edi
  00019	5e		 pop	 esi
  0001a	5b		 pop	 ebx
  0001b	8b e5		 mov	 esp, ebp
  0001d	5d		 pop	 ebp
  0001e	c3		 ret	 0
??__EatlTraceException@ATL@@YAXXZ ENDP			; ATL::`dynamic initializer for 'atlTraceException''
text$di	ENDS
; Function compile flags: /Odtp /ZI
; File C:\Program Files (x86)\Microsoft Visual Studio\2019\Community\VC\Tools\MSVC\14.27.29110\atlmfc\include\atltrace.h
;	COMDAT ??0?$CTraceCategoryEx@$0CAAA@$0A@@ATL@@QAE@PBD@Z
_TEXT	SEGMENT
_this$ = -4						; size = 4
_pszCategoryName$ = 8					; size = 4
??0?$CTraceCategoryEx@$0CAAA@$0A@@ATL@@QAE@PBD@Z PROC	; ATL::CTraceCategoryEx<8192,0>::CTraceCategoryEx<8192,0>, COMDAT
; _this$ = ecx

; 495  : {

  00000	55		 push	 ebp
  00001	8b ec		 mov	 ebp, esp
  00003	83 ec 44	 sub	 esp, 68			; 00000044H
  00006	53		 push	 ebx
  00007	56		 push	 esi
  00008	57		 push	 edi
  00009	89 4d fc	 mov	 DWORD PTR _this$[ebp], ecx

; 496  : 	(void)pszCategoryName;
; 497  : }

  0000c	8b 45 fc	 mov	 eax, DWORD PTR _this$[ebp]
  0000f	5f		 pop	 edi
  00010	5e		 pop	 esi
  00011	5b		 pop	 ebx
  00012	8b e5		 mov	 esp, ebp
  00014	5d		 pop	 ebp
  00015	c2 04 00	 ret	 4
??0?$CTraceCategoryEx@$0CAAA@$0A@@ATL@@QAE@PBD@Z ENDP	; ATL::CTraceCategoryEx<8192,0>::CTraceCategoryEx<8192,0>
_TEXT	ENDS
; Function compile flags: /Odtp /ZI
; File C:\Program Files (x86)\Microsoft Visual Studio\2019\Community\VC\Tools\MSVC\14.27.29110\atlmfc\include\atltrace.h
;	COMDAT ??__EatlTraceAllocation@ATL@@YAXXZ
text$di	SEGMENT
??__EatlTraceAllocation@ATL@@YAXXZ PROC			; ATL::`dynamic initializer for 'atlTraceAllocation'', COMDAT

; 109  : __declspec(selectany) CTraceCategoryEx<CTraceCategoryEx<>::TraceAllocation> atlTraceAllocation(_T("atlTraceAllocation"));

  00000	55		 push	 ebp
  00001	8b ec		 mov	 ebp, esp
  00003	83 ec 40	 sub	 esp, 64			; 00000040H
  00006	53		 push	 ebx
  00007	56		 push	 esi
  00008	57		 push	 edi
  00009	68 00 00 00 00	 push	 OFFSET ??_C@_0BD@PJPCCAKP@atlTraceAllocation@
  0000e	b9 00 00 00 00	 mov	 ecx, OFFSET ?atlTraceAllocation@ATL@@3V?$CTraceCategoryEx@$0BAAA@$0A@@1@A ; ATL::atlTraceAllocation
  00013	e8 00 00 00 00	 call	 ??0?$CTraceCategoryEx@$0BAAA@$0A@@ATL@@QAE@PBD@Z ; ATL::CTraceCategoryEx<4096,0>::CTraceCategoryEx<4096,0>
  00018	5f		 pop	 edi
  00019	5e		 pop	 esi
  0001a	5b		 pop	 ebx
  0001b	8b e5		 mov	 esp, ebp
  0001d	5d		 pop	 ebp
  0001e	c3		 ret	 0
??__EatlTraceAllocation@ATL@@YAXXZ ENDP			; ATL::`dynamic initializer for 'atlTraceAllocation''
text$di	ENDS
; Function compile flags: /Odtp /ZI
; File C:\Program Files (x86)\Microsoft Visual Studio\2019\Community\VC\Tools\MSVC\14.27.29110\atlmfc\include\atltrace.h
;	COMDAT ??0?$CTraceCategoryEx@$0BAAA@$0A@@ATL@@QAE@PBD@Z
_TEXT	SEGMENT
_this$ = -4						; size = 4
_pszCategoryName$ = 8					; size = 4
??0?$CTraceCategoryEx@$0BAAA@$0A@@ATL@@QAE@PBD@Z PROC	; ATL::CTraceCategoryEx<4096,0>::CTraceCategoryEx<4096,0>, COMDAT
; _this$ = ecx

; 495  : {

  00000	55		 push	 ebp
  00001	8b ec		 mov	 ebp, esp
  00003	83 ec 44	 sub	 esp, 68			; 00000044H
  00006	53		 push	 ebx
  00007	56		 push	 esi
  00008	57		 push	 edi
  00009	89 4d fc	 mov	 DWORD PTR _this$[ebp], ecx

; 496  : 	(void)pszCategoryName;
; 497  : }

  0000c	8b 45 fc	 mov	 eax, DWORD PTR _this$[ebp]
  0000f	5f		 pop	 edi
  00010	5e		 pop	 esi
  00011	5b		 pop	 ebx
  00012	8b e5		 mov	 esp, ebp
  00014	5d		 pop	 ebp
  00015	c2 04 00	 ret	 4
??0?$CTraceCategoryEx@$0BAAA@$0A@@ATL@@QAE@PBD@Z ENDP	; ATL::CTraceCategoryEx<4096,0>::CTraceCategoryEx<4096,0>
_TEXT	ENDS
; Function compile flags: /Odtp /ZI
; File C:\Program Files (x86)\Microsoft Visual Studio\2019\Community\VC\Tools\MSVC\14.27.29110\atlmfc\include\atltrace.h
;	COMDAT ??__EatlTraceNotImpl@ATL@@YAXXZ
text$di	SEGMENT
??__EatlTraceNotImpl@ATL@@YAXXZ PROC			; ATL::`dynamic initializer for 'atlTraceNotImpl'', COMDAT

; 108  : __declspec(selectany) CTraceCategoryEx<CTraceCategoryEx<>::TraceNotImpl> atlTraceNotImpl(_T("atlTraceNotImpl"));

  00000	55		 push	 ebp
  00001	8b ec		 mov	 ebp, esp
  00003	83 ec 40	 sub	 esp, 64			; 00000040H
  00006	53		 push	 ebx
  00007	56		 push	 esi
  00008	57		 push	 edi
  00009	68 00 00 00 00	 push	 OFFSET ??_C@_0BA@MCBFIDIC@atlTraceNotImpl@
  0000e	b9 00 00 00 00	 mov	 ecx, OFFSET ?atlTraceNotImpl@ATL@@3V?$CTraceCategoryEx@$0IAA@$0A@@1@A ; ATL::atlTraceNotImpl
  00013	e8 00 00 00 00	 call	 ??0?$CTraceCategoryEx@$0IAA@$0A@@ATL@@QAE@PBD@Z ; ATL::CTraceCategoryEx<2048,0>::CTraceCategoryEx<2048,0>
  00018	5f		 pop	 edi
  00019	5e		 pop	 esi
  0001a	5b		 pop	 ebx
  0001b	8b e5		 mov	 esp, ebp
  0001d	5d		 pop	 ebp
  0001e	c3		 ret	 0
??__EatlTraceNotImpl@ATL@@YAXXZ ENDP			; ATL::`dynamic initializer for 'atlTraceNotImpl''
text$di	ENDS
; Function compile flags: /Odtp /ZI
; File C:\Program Files (x86)\Microsoft Visual Studio\2019\Community\VC\Tools\MSVC\14.27.29110\atlmfc\include\atltrace.h
;	COMDAT ??0?$CTraceCategoryEx@$0IAA@$0A@@ATL@@QAE@PBD@Z
_TEXT	SEGMENT
_this$ = -4						; size = 4
_pszCategoryName$ = 8					; size = 4
??0?$CTraceCategoryEx@$0IAA@$0A@@ATL@@QAE@PBD@Z PROC	; ATL::CTraceCategoryEx<2048,0>::CTraceCategoryEx<2048,0>, COMDAT
; _this$ = ecx

; 495  : {

  00000	55		 push	 ebp
  00001	8b ec		 mov	 ebp, esp
  00003	83 ec 44	 sub	 esp, 68			; 00000044H
  00006	53		 push	 ebx
  00007	56		 push	 esi
  00008	57		 push	 edi
  00009	89 4d fc	 mov	 DWORD PTR _this$[ebp], ecx

; 496  : 	(void)pszCategoryName;
; 497  : }

  0000c	8b 45 fc	 mov	 eax, DWORD PTR _this$[ebp]
  0000f	5f		 pop	 edi
  00010	5e		 pop	 esi
  00011	5b		 pop	 ebx
  00012	8b e5		 mov	 esp, ebp
  00014	5d		 pop	 ebp
  00015	c2 04 00	 ret	 4
??0?$CTraceCategoryEx@$0IAA@$0A@@ATL@@QAE@PBD@Z ENDP	; ATL::CTraceCategoryEx<2048,0>::CTraceCategoryEx<2048,0>
_TEXT	ENDS
; Function compile flags: /Odtp /ZI
; File C:\Program Files (x86)\Microsoft Visual Studio\2019\Community\VC\Tools\MSVC\14.27.29110\atlmfc\include\atltrace.h
;	COMDAT ??__EatlTraceSnapin@ATL@@YAXXZ
text$di	SEGMENT
??__EatlTraceSnapin@ATL@@YAXXZ PROC			; ATL::`dynamic initializer for 'atlTraceSnapin'', COMDAT

; 107  : __declspec(selectany) CTraceCategoryEx<CTraceCategoryEx<>::TraceSnapin> atlTraceSnapin(_T("atlTraceSnapin"));

  00000	55		 push	 ebp
  00001	8b ec		 mov	 ebp, esp
  00003	83 ec 40	 sub	 esp, 64			; 00000040H
  00006	53		 push	 ebx
  00007	56		 push	 esi
  00008	57		 push	 edi
  00009	68 00 00 00 00	 push	 OFFSET ??_C@_0P@LNEGBOLO@atlTraceSnapin@
  0000e	b9 00 00 00 00	 mov	 ecx, OFFSET ?atlTraceSnapin@ATL@@3V?$CTraceCategoryEx@$0EAA@$0A@@1@A ; ATL::atlTraceSnapin
  00013	e8 00 00 00 00	 call	 ??0?$CTraceCategoryEx@$0EAA@$0A@@ATL@@QAE@PBD@Z ; ATL::CTraceCategoryEx<1024,0>::CTraceCategoryEx<1024,0>
  00018	5f		 pop	 edi
  00019	5e		 pop	 esi
  0001a	5b		 pop	 ebx
  0001b	8b e5		 mov	 esp, ebp
  0001d	5d		 pop	 ebp
  0001e	c3		 ret	 0
??__EatlTraceSnapin@ATL@@YAXXZ ENDP			; ATL::`dynamic initializer for 'atlTraceSnapin''
text$di	ENDS
; Function compile flags: /Odtp /ZI
; File C:\Program Files (x86)\Microsoft Visual Studio\2019\Community\VC\Tools\MSVC\14.27.29110\atlmfc\include\atltrace.h
;	COMDAT ??0?$CTraceCategoryEx@$0EAA@$0A@@ATL@@QAE@PBD@Z
_TEXT	SEGMENT
_this$ = -4						; size = 4
_pszCategoryName$ = 8					; size = 4
??0?$CTraceCategoryEx@$0EAA@$0A@@ATL@@QAE@PBD@Z PROC	; ATL::CTraceCategoryEx<1024,0>::CTraceCategoryEx<1024,0>, COMDAT
; _this$ = ecx

; 495  : {

  00000	55		 push	 ebp
  00001	8b ec		 mov	 ebp, esp
  00003	83 ec 44	 sub	 esp, 68			; 00000044H
  00006	53		 push	 ebx
  00007	56		 push	 esi
  00008	57		 push	 edi
  00009	89 4d fc	 mov	 DWORD PTR _this$[ebp], ecx

; 496  : 	(void)pszCategoryName;
; 497  : }

  0000c	8b 45 fc	 mov	 eax, DWORD PTR _this$[ebp]
  0000f	5f		 pop	 edi
  00010	5e		 pop	 esi
  00011	5b		 pop	 ebx
  00012	8b e5		 mov	 esp, ebp
  00014	5d		 pop	 ebp
  00015	c2 04 00	 ret	 4
??0?$CTraceCategoryEx@$0EAA@$0A@@ATL@@QAE@PBD@Z ENDP	; ATL::CTraceCategoryEx<1024,0>::CTraceCategoryEx<1024,0>
_TEXT	ENDS
; Function compile flags: /Odtp /ZI
; File C:\Program Files (x86)\Microsoft Visual Studio\2019\Community\VC\Tools\MSVC\14.27.29110\atlmfc\include\atltrace.h
;	COMDAT ??__EatlTraceDBProvider@ATL@@YAXXZ
text$di	SEGMENT
??__EatlTraceDBProvider@ATL@@YAXXZ PROC			; ATL::`dynamic initializer for 'atlTraceDBProvider'', COMDAT

; 106  : __declspec(selectany) CTraceCategoryEx<CTraceCategoryEx<>::TraceDBProvider> atlTraceDBProvider(_T("atlTraceDBProvider"));

  00000	55		 push	 ebp
  00001	8b ec		 mov	 ebp, esp
  00003	83 ec 40	 sub	 esp, 64			; 00000040H
  00006	53		 push	 ebx
  00007	56		 push	 esi
  00008	57		 push	 edi
  00009	68 00 00 00 00	 push	 OFFSET ??_C@_0BD@KOADKDIA@atlTraceDBProvider@
  0000e	b9 00 00 00 00	 mov	 ecx, OFFSET ?atlTraceDBProvider@ATL@@3V?$CTraceCategoryEx@$0CAA@$0A@@1@A ; ATL::atlTraceDBProvider
  00013	e8 00 00 00 00	 call	 ??0?$CTraceCategoryEx@$0CAA@$0A@@ATL@@QAE@PBD@Z ; ATL::CTraceCategoryEx<512,0>::CTraceCategoryEx<512,0>
  00018	5f		 pop	 edi
  00019	5e		 pop	 esi
  0001a	5b		 pop	 ebx
  0001b	8b e5		 mov	 esp, ebp
  0001d	5d		 pop	 ebp
  0001e	c3		 ret	 0
??__EatlTraceDBProvider@ATL@@YAXXZ ENDP			; ATL::`dynamic initializer for 'atlTraceDBProvider''
text$di	ENDS
; Function compile flags: /Odtp /ZI
; File C:\Program Files (x86)\Microsoft Visual Studio\2019\Community\VC\Tools\MSVC\14.27.29110\atlmfc\include\atltrace.h
;	COMDAT ??0?$CTraceCategoryEx@$0CAA@$0A@@ATL@@QAE@PBD@Z
_TEXT	SEGMENT
_this$ = -4						; size = 4
_pszCategoryName$ = 8					; size = 4
??0?$CTraceCategoryEx@$0CAA@$0A@@ATL@@QAE@PBD@Z PROC	; ATL::CTraceCategoryEx<512,0>::CTraceCategoryEx<512,0>, COMDAT
; _this$ = ecx

; 495  : {

  00000	55		 push	 ebp
  00001	8b ec		 mov	 ebp, esp
  00003	83 ec 44	 sub	 esp, 68			; 00000044H
  00006	53		 push	 ebx
  00007	56		 push	 esi
  00008	57		 push	 edi
  00009	89 4d fc	 mov	 DWORD PTR _this$[ebp], ecx

; 496  : 	(void)pszCategoryName;
; 497  : }

  0000c	8b 45 fc	 mov	 eax, DWORD PTR _this$[ebp]
  0000f	5f		 pop	 edi
  00010	5e		 pop	 esi
  00011	5b		 pop	 ebx
  00012	8b e5		 mov	 esp, ebp
  00014	5d		 pop	 ebp
  00015	c2 04 00	 ret	 4
??0?$CTraceCategoryEx@$0CAA@$0A@@ATL@@QAE@PBD@Z ENDP	; ATL::CTraceCategoryEx<512,0>::CTraceCategoryEx<512,0>
_TEXT	ENDS
; Function compile flags: /Odtp /ZI
; File C:\Program Files (x86)\Microsoft Visual Studio\2019\Community\VC\Tools\MSVC\14.27.29110\atlmfc\include\atltrace.h
;	COMDAT ??__EatlTraceDBClient@ATL@@YAXXZ
text$di	SEGMENT
??__EatlTraceDBClient@ATL@@YAXXZ PROC			; ATL::`dynamic initializer for 'atlTraceDBClient'', COMDAT

; 105  : __declspec(selectany) CTraceCategoryEx<CTraceCategoryEx<>::TraceDBClient> atlTraceDBClient(_T("atlTraceDBClient"));

  00000	55		 push	 ebp
  00001	8b ec		 mov	 ebp, esp
  00003	83 ec 40	 sub	 esp, 64			; 00000040H
  00006	53		 push	 ebx
  00007	56		 push	 esi
  00008	57		 push	 edi
  00009	68 00 00 00 00	 push	 OFFSET ??_C@_0BB@BEBMGMDO@atlTraceDBClient@
  0000e	b9 00 00 00 00	 mov	 ecx, OFFSET ?atlTraceDBClient@ATL@@3V?$CTraceCategoryEx@$0BAA@$0A@@1@A ; ATL::atlTraceDBClient
  00013	e8 00 00 00 00	 call	 ??0?$CTraceCategoryEx@$0BAA@$0A@@ATL@@QAE@PBD@Z ; ATL::CTraceCategoryEx<256,0>::CTraceCategoryEx<256,0>
  00018	5f		 pop	 edi
  00019	5e		 pop	 esi
  0001a	5b		 pop	 ebx
  0001b	8b e5		 mov	 esp, ebp
  0001d	5d		 pop	 ebp
  0001e	c3		 ret	 0
??__EatlTraceDBClient@ATL@@YAXXZ ENDP			; ATL::`dynamic initializer for 'atlTraceDBClient''
text$di	ENDS
; Function compile flags: /Odtp /ZI
; File C:\Program Files (x86)\Microsoft Visual Studio\2019\Community\VC\Tools\MSVC\14.27.29110\atlmfc\include\atltrace.h
;	COMDAT ??0?$CTraceCategoryEx@$0BAA@$0A@@ATL@@QAE@PBD@Z
_TEXT	SEGMENT
_this$ = -4						; size = 4
_pszCategoryName$ = 8					; size = 4
??0?$CTraceCategoryEx@$0BAA@$0A@@ATL@@QAE@PBD@Z PROC	; ATL::CTraceCategoryEx<256,0>::CTraceCategoryEx<256,0>, COMDAT
; _this$ = ecx

; 495  : {

  00000	55		 push	 ebp
  00001	8b ec		 mov	 ebp, esp
  00003	83 ec 44	 sub	 esp, 68			; 00000044H
  00006	53		 push	 ebx
  00007	56		 push	 esi
  00008	57		 push	 edi
  00009	89 4d fc	 mov	 DWORD PTR _this$[ebp], ecx

; 496  : 	(void)pszCategoryName;
; 497  : }

  0000c	8b 45 fc	 mov	 eax, DWORD PTR _this$[ebp]
  0000f	5f		 pop	 edi
  00010	5e		 pop	 esi
  00011	5b		 pop	 ebx
  00012	8b e5		 mov	 esp, ebp
  00014	5d		 pop	 ebp
  00015	c2 04 00	 ret	 4
??0?$CTraceCategoryEx@$0BAA@$0A@@ATL@@QAE@PBD@Z ENDP	; ATL::CTraceCategoryEx<256,0>::CTraceCategoryEx<256,0>
_TEXT	ENDS
; Function compile flags: /Odtp /ZI
; File C:\Program Files (x86)\Microsoft Visual Studio\2019\Community\VC\Tools\MSVC\14.27.29110\atlmfc\include\atltrace.h
;	COMDAT ??__EatlTraceHosting@ATL@@YAXXZ
text$di	SEGMENT
??__EatlTraceHosting@ATL@@YAXXZ PROC			; ATL::`dynamic initializer for 'atlTraceHosting'', COMDAT

; 104  : __declspec(selectany) CTraceCategoryEx<CTraceCategoryEx<>::TraceHosting> atlTraceHosting(_T("atlTraceHosting"));

  00000	55		 push	 ebp
  00001	8b ec		 mov	 ebp, esp
  00003	83 ec 40	 sub	 esp, 64			; 00000040H
  00006	53		 push	 ebx
  00007	56		 push	 esi
  00008	57		 push	 edi
  00009	68 00 00 00 00	 push	 OFFSET ??_C@_0BA@DKOAAGGM@atlTraceHosting@
  0000e	b9 00 00 00 00	 mov	 ecx, OFFSET ?atlTraceHosting@ATL@@3V?$CTraceCategoryEx@$0IA@$0A@@1@A ; ATL::atlTraceHosting
  00013	e8 00 00 00 00	 call	 ??0?$CTraceCategoryEx@$0IA@$0A@@ATL@@QAE@PBD@Z ; ATL::CTraceCategoryEx<128,0>::CTraceCategoryEx<128,0>
  00018	5f		 pop	 edi
  00019	5e		 pop	 esi
  0001a	5b		 pop	 ebx
  0001b	8b e5		 mov	 esp, ebp
  0001d	5d		 pop	 ebp
  0001e	c3		 ret	 0
??__EatlTraceHosting@ATL@@YAXXZ ENDP			; ATL::`dynamic initializer for 'atlTraceHosting''
text$di	ENDS
; Function compile flags: /Odtp /ZI
; File C:\Program Files (x86)\Microsoft Visual Studio\2019\Community\VC\Tools\MSVC\14.27.29110\atlmfc\include\atltrace.h
;	COMDAT ??0?$CTraceCategoryEx@$0IA@$0A@@ATL@@QAE@PBD@Z
_TEXT	SEGMENT
_this$ = -4						; size = 4
_pszCategoryName$ = 8					; size = 4
??0?$CTraceCategoryEx@$0IA@$0A@@ATL@@QAE@PBD@Z PROC	; ATL::CTraceCategoryEx<128,0>::CTraceCategoryEx<128,0>, COMDAT
; _this$ = ecx

; 495  : {

  00000	55		 push	 ebp
  00001	8b ec		 mov	 ebp, esp
  00003	83 ec 44	 sub	 esp, 68			; 00000044H
  00006	53		 push	 ebx
  00007	56		 push	 esi
  00008	57		 push	 edi
  00009	89 4d fc	 mov	 DWORD PTR _this$[ebp], ecx

; 496  : 	(void)pszCategoryName;
; 497  : }

  0000c	8b 45 fc	 mov	 eax, DWORD PTR _this$[ebp]
  0000f	5f		 pop	 edi
  00010	5e		 pop	 esi
  00011	5b		 pop	 ebx
  00012	8b e5		 mov	 esp, ebp
  00014	5d		 pop	 ebp
  00015	c2 04 00	 ret	 4
??0?$CTraceCategoryEx@$0IA@$0A@@ATL@@QAE@PBD@Z ENDP	; ATL::CTraceCategoryEx<128,0>::CTraceCategoryEx<128,0>
_TEXT	ENDS
; Function compile flags: /Odtp /ZI
; File C:\Program Files (x86)\Microsoft Visual Studio\2019\Community\VC\Tools\MSVC\14.27.29110\atlmfc\include\atltrace.h
;	COMDAT ??__EatlTraceControls@ATL@@YAXXZ
text$di	SEGMENT
??__EatlTraceControls@ATL@@YAXXZ PROC			; ATL::`dynamic initializer for 'atlTraceControls'', COMDAT

; 103  : __declspec(selectany) CTraceCategoryEx<CTraceCategoryEx<>::TraceControls> atlTraceControls(_T("atlTraceControls"));

  00000	55		 push	 ebp
  00001	8b ec		 mov	 ebp, esp
  00003	83 ec 40	 sub	 esp, 64			; 00000040H
  00006	53		 push	 ebx
  00007	56		 push	 esi
  00008	57		 push	 edi
  00009	68 00 00 00 00	 push	 OFFSET ??_C@_0BB@GHKJKKIE@atlTraceControls@
  0000e	b9 00 00 00 00	 mov	 ecx, OFFSET ?atlTraceControls@ATL@@3V?$CTraceCategoryEx@$0EA@$0A@@1@A ; ATL::atlTraceControls
  00013	e8 00 00 00 00	 call	 ??0?$CTraceCategoryEx@$0EA@$0A@@ATL@@QAE@PBD@Z ; ATL::CTraceCategoryEx<64,0>::CTraceCategoryEx<64,0>
  00018	5f		 pop	 edi
  00019	5e		 pop	 esi
  0001a	5b		 pop	 ebx
  0001b	8b e5		 mov	 esp, ebp
  0001d	5d		 pop	 ebp
  0001e	c3		 ret	 0
??__EatlTraceControls@ATL@@YAXXZ ENDP			; ATL::`dynamic initializer for 'atlTraceControls''
text$di	ENDS
; Function compile flags: /Odtp /ZI
; File C:\Program Files (x86)\Microsoft Visual Studio\2019\Community\VC\Tools\MSVC\14.27.29110\atlmfc\include\atltrace.h
;	COMDAT ??0?$CTraceCategoryEx@$0EA@$0A@@ATL@@QAE@PBD@Z
_TEXT	SEGMENT
_this$ = -4						; size = 4
_pszCategoryName$ = 8					; size = 4
??0?$CTraceCategoryEx@$0EA@$0A@@ATL@@QAE@PBD@Z PROC	; ATL::CTraceCategoryEx<64,0>::CTraceCategoryEx<64,0>, COMDAT
; _this$ = ecx

; 495  : {

  00000	55		 push	 ebp
  00001	8b ec		 mov	 ebp, esp
  00003	83 ec 44	 sub	 esp, 68			; 00000044H
  00006	53		 push	 ebx
  00007	56		 push	 esi
  00008	57		 push	 edi
  00009	89 4d fc	 mov	 DWORD PTR _this$[ebp], ecx

; 496  : 	(void)pszCategoryName;
; 497  : }

  0000c	8b 45 fc	 mov	 eax, DWORD PTR _this$[ebp]
  0000f	5f		 pop	 edi
  00010	5e		 pop	 esi
  00011	5b		 pop	 ebx
  00012	8b e5		 mov	 esp, ebp
  00014	5d		 pop	 ebp
  00015	c2 04 00	 ret	 4
??0?$CTraceCategoryEx@$0EA@$0A@@ATL@@QAE@PBD@Z ENDP	; ATL::CTraceCategoryEx<64,0>::CTraceCategoryEx<64,0>
_TEXT	ENDS
; Function compile flags: /Odtp /ZI
; File C:\Program Files (x86)\Microsoft Visual Studio\2019\Community\VC\Tools\MSVC\14.27.29110\atlmfc\include\atltrace.h
;	COMDAT ??__EatlTraceWindowing@ATL@@YAXXZ
text$di	SEGMENT
??__EatlTraceWindowing@ATL@@YAXXZ PROC			; ATL::`dynamic initializer for 'atlTraceWindowing'', COMDAT

; 102  : __declspec(selectany) CTraceCategoryEx<CTraceCategoryEx<>::TraceWindowing> atlTraceWindowing(_T("atlTraceWindowing"));

  00000	55		 push	 ebp
  00001	8b ec		 mov	 ebp, esp
  00003	83 ec 40	 sub	 esp, 64			; 00000040H
  00006	53		 push	 ebx
  00007	56		 push	 esi
  00008	57		 push	 edi
  00009	68 00 00 00 00	 push	 OFFSET ??_C@_0BC@DGHHNKDC@atlTraceWindowing@
  0000e	b9 00 00 00 00	 mov	 ecx, OFFSET ?atlTraceWindowing@ATL@@3V?$CTraceCategoryEx@$0CA@$0A@@1@A ; ATL::atlTraceWindowing
  00013	e8 00 00 00 00	 call	 ??0?$CTraceCategoryEx@$0CA@$0A@@ATL@@QAE@PBD@Z ; ATL::CTraceCategoryEx<32,0>::CTraceCategoryEx<32,0>
  00018	5f		 pop	 edi
  00019	5e		 pop	 esi
  0001a	5b		 pop	 ebx
  0001b	8b e5		 mov	 esp, ebp
  0001d	5d		 pop	 ebp
  0001e	c3		 ret	 0
??__EatlTraceWindowing@ATL@@YAXXZ ENDP			; ATL::`dynamic initializer for 'atlTraceWindowing''
text$di	ENDS
; Function compile flags: /Odtp /ZI
; File C:\Program Files (x86)\Microsoft Visual Studio\2019\Community\VC\Tools\MSVC\14.27.29110\atlmfc\include\atltrace.h
;	COMDAT ??0?$CTraceCategoryEx@$0CA@$0A@@ATL@@QAE@PBD@Z
_TEXT	SEGMENT
_this$ = -4						; size = 4
_pszCategoryName$ = 8					; size = 4
??0?$CTraceCategoryEx@$0CA@$0A@@ATL@@QAE@PBD@Z PROC	; ATL::CTraceCategoryEx<32,0>::CTraceCategoryEx<32,0>, COMDAT
; _this$ = ecx

; 495  : {

  00000	55		 push	 ebp
  00001	8b ec		 mov	 ebp, esp
  00003	83 ec 44	 sub	 esp, 68			; 00000044H
  00006	53		 push	 ebx
  00007	56		 push	 esi
  00008	57		 push	 edi
  00009	89 4d fc	 mov	 DWORD PTR _this$[ebp], ecx

; 496  : 	(void)pszCategoryName;
; 497  : }

  0000c	8b 45 fc	 mov	 eax, DWORD PTR _this$[ebp]
  0000f	5f		 pop	 edi
  00010	5e		 pop	 esi
  00011	5b		 pop	 ebx
  00012	8b e5		 mov	 esp, ebp
  00014	5d		 pop	 ebp
  00015	c2 04 00	 ret	 4
??0?$CTraceCategoryEx@$0CA@$0A@@ATL@@QAE@PBD@Z ENDP	; ATL::CTraceCategoryEx<32,0>::CTraceCategoryEx<32,0>
_TEXT	ENDS
; Function compile flags: /Odtp /ZI
; File C:\Program Files (x86)\Microsoft Visual Studio\2019\Community\VC\Tools\MSVC\14.27.29110\atlmfc\include\atltrace.h
;	COMDAT ??__EatlTraceRefcount@ATL@@YAXXZ
text$di	SEGMENT
??__EatlTraceRefcount@ATL@@YAXXZ PROC			; ATL::`dynamic initializer for 'atlTraceRefcount'', COMDAT

; 101  : __declspec(selectany) CTraceCategoryEx<CTraceCategoryEx<>::TraceRefcount> atlTraceRefcount(_T("atlTraceRefcount"));

  00000	55		 push	 ebp
  00001	8b ec		 mov	 ebp, esp
  00003	83 ec 40	 sub	 esp, 64			; 00000040H
  00006	53		 push	 ebx
  00007	56		 push	 esi
  00008	57		 push	 edi
  00009	68 00 00 00 00	 push	 OFFSET ??_C@_0BB@ILPPDKFL@atlTraceRefcount@
  0000e	b9 00 00 00 00	 mov	 ecx, OFFSET ?atlTraceRefcount@ATL@@3V?$CTraceCategoryEx@$0BA@$0A@@1@A ; ATL::atlTraceRefcount
  00013	e8 00 00 00 00	 call	 ??0?$CTraceCategoryEx@$0BA@$0A@@ATL@@QAE@PBD@Z ; ATL::CTraceCategoryEx<16,0>::CTraceCategoryEx<16,0>
  00018	5f		 pop	 edi
  00019	5e		 pop	 esi
  0001a	5b		 pop	 ebx
  0001b	8b e5		 mov	 esp, ebp
  0001d	5d		 pop	 ebp
  0001e	c3		 ret	 0
??__EatlTraceRefcount@ATL@@YAXXZ ENDP			; ATL::`dynamic initializer for 'atlTraceRefcount''
text$di	ENDS
; Function compile flags: /Odtp /ZI
; File C:\Program Files (x86)\Microsoft Visual Studio\2019\Community\VC\Tools\MSVC\14.27.29110\atlmfc\include\atltrace.h
;	COMDAT ??0?$CTraceCategoryEx@$0BA@$0A@@ATL@@QAE@PBD@Z
_TEXT	SEGMENT
_this$ = -4						; size = 4
_pszCategoryName$ = 8					; size = 4
??0?$CTraceCategoryEx@$0BA@$0A@@ATL@@QAE@PBD@Z PROC	; ATL::CTraceCategoryEx<16,0>::CTraceCategoryEx<16,0>, COMDAT
; _this$ = ecx

; 495  : {

  00000	55		 push	 ebp
  00001	8b ec		 mov	 ebp, esp
  00003	83 ec 44	 sub	 esp, 68			; 00000044H
  00006	53		 push	 ebx
  00007	56		 push	 esi
  00008	57		 push	 edi
  00009	89 4d fc	 mov	 DWORD PTR _this$[ebp], ecx

; 496  : 	(void)pszCategoryName;
; 497  : }

  0000c	8b 45 fc	 mov	 eax, DWORD PTR _this$[ebp]
  0000f	5f		 pop	 edi
  00010	5e		 pop	 esi
  00011	5b		 pop	 ebx
  00012	8b e5		 mov	 esp, ebp
  00014	5d		 pop	 ebp
  00015	c2 04 00	 ret	 4
??0?$CTraceCategoryEx@$0BA@$0A@@ATL@@QAE@PBD@Z ENDP	; ATL::CTraceCategoryEx<16,0>::CTraceCategoryEx<16,0>
_TEXT	ENDS
; Function compile flags: /Odtp /ZI
; File C:\Program Files (x86)\Microsoft Visual Studio\2019\Community\VC\Tools\MSVC\14.27.29110\atlmfc\include\atltrace.h
;	COMDAT ??__EatlTraceRegistrar@ATL@@YAXXZ
text$di	SEGMENT
??__EatlTraceRegistrar@ATL@@YAXXZ PROC			; ATL::`dynamic initializer for 'atlTraceRegistrar'', COMDAT

; 100  : __declspec(selectany) CTraceCategoryEx<CTraceCategoryEx<>::TraceRegistrar> atlTraceRegistrar(_T("atlTraceRegistrar"));

  00000	55		 push	 ebp
  00001	8b ec		 mov	 ebp, esp
  00003	83 ec 40	 sub	 esp, 64			; 00000040H
  00006	53		 push	 ebx
  00007	56		 push	 esi
  00008	57		 push	 edi
  00009	68 00 00 00 00	 push	 OFFSET ??_C@_0BC@MALHFBAO@atlTraceRegistrar@
  0000e	b9 00 00 00 00	 mov	 ecx, OFFSET ?atlTraceRegistrar@ATL@@3V?$CTraceCategoryEx@$07$0A@@1@A ; ATL::atlTraceRegistrar
  00013	e8 00 00 00 00	 call	 ??0?$CTraceCategoryEx@$07$0A@@ATL@@QAE@PBD@Z ; ATL::CTraceCategoryEx<8,0>::CTraceCategoryEx<8,0>
  00018	5f		 pop	 edi
  00019	5e		 pop	 esi
  0001a	5b		 pop	 ebx
  0001b	8b e5		 mov	 esp, ebp
  0001d	5d		 pop	 ebp
  0001e	c3		 ret	 0
??__EatlTraceRegistrar@ATL@@YAXXZ ENDP			; ATL::`dynamic initializer for 'atlTraceRegistrar''
text$di	ENDS
; Function compile flags: /Odtp /ZI
; File C:\Program Files (x86)\Microsoft Visual Studio\2019\Community\VC\Tools\MSVC\14.27.29110\atlmfc\include\atltrace.h
;	COMDAT ??0?$CTraceCategoryEx@$07$0A@@ATL@@QAE@PBD@Z
_TEXT	SEGMENT
_this$ = -4						; size = 4
_pszCategoryName$ = 8					; size = 4
??0?$CTraceCategoryEx@$07$0A@@ATL@@QAE@PBD@Z PROC	; ATL::CTraceCategoryEx<8,0>::CTraceCategoryEx<8,0>, COMDAT
; _this$ = ecx

; 495  : {

  00000	55		 push	 ebp
  00001	8b ec		 mov	 ebp, esp
  00003	83 ec 44	 sub	 esp, 68			; 00000044H
  00006	53		 push	 ebx
  00007	56		 push	 esi
  00008	57		 push	 edi
  00009	89 4d fc	 mov	 DWORD PTR _this$[ebp], ecx

; 496  : 	(void)pszCategoryName;
; 497  : }

  0000c	8b 45 fc	 mov	 eax, DWORD PTR _this$[ebp]
  0000f	5f		 pop	 edi
  00010	5e		 pop	 esi
  00011	5b		 pop	 ebx
  00012	8b e5		 mov	 esp, ebp
  00014	5d		 pop	 ebp
  00015	c2 04 00	 ret	 4
??0?$CTraceCategoryEx@$07$0A@@ATL@@QAE@PBD@Z ENDP	; ATL::CTraceCategoryEx<8,0>::CTraceCategoryEx<8,0>
_TEXT	ENDS
; Function compile flags: /Odtp /ZI
; File C:\Program Files (x86)\Microsoft Visual Studio\2019\Community\VC\Tools\MSVC\14.27.29110\atlmfc\include\atltrace.h
;	COMDAT ??__EatlTraceQI@ATL@@YAXXZ
text$di	SEGMENT
??__EatlTraceQI@ATL@@YAXXZ PROC				; ATL::`dynamic initializer for 'atlTraceQI'', COMDAT

; 99   : __declspec(selectany) CTraceCategoryEx<CTraceCategoryEx<>::TraceQI> atlTraceQI(_T("atlTraceQI"));

  00000	55		 push	 ebp
  00001	8b ec		 mov	 ebp, esp
  00003	83 ec 40	 sub	 esp, 64			; 00000040H
  00006	53		 push	 ebx
  00007	56		 push	 esi
  00008	57		 push	 edi
  00009	68 00 00 00 00	 push	 OFFSET ??_C@_0L@LHELAKBP@atlTraceQI@
  0000e	b9 00 00 00 00	 mov	 ecx, OFFSET ?atlTraceQI@ATL@@3V?$CTraceCategoryEx@$03$0A@@1@A ; ATL::atlTraceQI
  00013	e8 00 00 00 00	 call	 ??0?$CTraceCategoryEx@$03$0A@@ATL@@QAE@PBD@Z ; ATL::CTraceCategoryEx<4,0>::CTraceCategoryEx<4,0>
  00018	5f		 pop	 edi
  00019	5e		 pop	 esi
  0001a	5b		 pop	 ebx
  0001b	8b e5		 mov	 esp, ebp
  0001d	5d		 pop	 ebp
  0001e	c3		 ret	 0
??__EatlTraceQI@ATL@@YAXXZ ENDP				; ATL::`dynamic initializer for 'atlTraceQI''
text$di	ENDS
; Function compile flags: /Odtp /ZI
; File C:\Program Files (x86)\Microsoft Visual Studio\2019\Community\VC\Tools\MSVC\14.27.29110\atlmfc\include\atltrace.h
;	COMDAT ??0?$CTraceCategoryEx@$03$0A@@ATL@@QAE@PBD@Z
_TEXT	SEGMENT
_this$ = -4						; size = 4
_pszCategoryName$ = 8					; size = 4
??0?$CTraceCategoryEx@$03$0A@@ATL@@QAE@PBD@Z PROC	; ATL::CTraceCategoryEx<4,0>::CTraceCategoryEx<4,0>, COMDAT
; _this$ = ecx

; 495  : {

  00000	55		 push	 ebp
  00001	8b ec		 mov	 ebp, esp
  00003	83 ec 44	 sub	 esp, 68			; 00000044H
  00006	53		 push	 ebx
  00007	56		 push	 esi
  00008	57		 push	 edi
  00009	89 4d fc	 mov	 DWORD PTR _this$[ebp], ecx

; 496  : 	(void)pszCategoryName;
; 497  : }

  0000c	8b 45 fc	 mov	 eax, DWORD PTR _this$[ebp]
  0000f	5f		 pop	 edi
  00010	5e		 pop	 esi
  00011	5b		 pop	 ebx
  00012	8b e5		 mov	 esp, ebp
  00014	5d		 pop	 ebp
  00015	c2 04 00	 ret	 4
??0?$CTraceCategoryEx@$03$0A@@ATL@@QAE@PBD@Z ENDP	; ATL::CTraceCategoryEx<4,0>::CTraceCategoryEx<4,0>
_TEXT	ENDS
; Function compile flags: /Odtp /ZI
; File C:\Program Files (x86)\Microsoft Visual Studio\2019\Community\VC\Tools\MSVC\14.27.29110\atlmfc\include\atltrace.h
;	COMDAT ??__EatlTraceCOM@ATL@@YAXXZ
text$di	SEGMENT
??__EatlTraceCOM@ATL@@YAXXZ PROC			; ATL::`dynamic initializer for 'atlTraceCOM'', COMDAT

; 98   : __declspec(selectany) CTraceCategoryEx<CTraceCategoryEx<>::TraceCom> atlTraceCOM(_T("atlTraceCOM"));

  00000	55		 push	 ebp
  00001	8b ec		 mov	 ebp, esp
  00003	83 ec 40	 sub	 esp, 64			; 00000040H
  00006	53		 push	 ebx
  00007	56		 push	 esi
  00008	57		 push	 edi
  00009	68 00 00 00 00	 push	 OFFSET ??_C@_0M@DGPFJEBB@atlTraceCOM@
  0000e	b9 00 00 00 00	 mov	 ecx, OFFSET ?atlTraceCOM@ATL@@3V?$CTraceCategoryEx@$01$0A@@1@A ; ATL::atlTraceCOM
  00013	e8 00 00 00 00	 call	 ??0?$CTraceCategoryEx@$01$0A@@ATL@@QAE@PBD@Z ; ATL::CTraceCategoryEx<2,0>::CTraceCategoryEx<2,0>
  00018	5f		 pop	 edi
  00019	5e		 pop	 esi
  0001a	5b		 pop	 ebx
  0001b	8b e5		 mov	 esp, ebp
  0001d	5d		 pop	 ebp
  0001e	c3		 ret	 0
??__EatlTraceCOM@ATL@@YAXXZ ENDP			; ATL::`dynamic initializer for 'atlTraceCOM''
text$di	ENDS
; Function compile flags: /Odtp /ZI
; File C:\Program Files (x86)\Microsoft Visual Studio\2019\Community\VC\Tools\MSVC\14.27.29110\atlmfc\include\atltrace.h
;	COMDAT ??0?$CTraceCategoryEx@$01$0A@@ATL@@QAE@PBD@Z
_TEXT	SEGMENT
_this$ = -4						; size = 4
_pszCategoryName$ = 8					; size = 4
??0?$CTraceCategoryEx@$01$0A@@ATL@@QAE@PBD@Z PROC	; ATL::CTraceCategoryEx<2,0>::CTraceCategoryEx<2,0>, COMDAT
; _this$ = ecx

; 495  : {

  00000	55		 push	 ebp
  00001	8b ec		 mov	 ebp, esp
  00003	83 ec 44	 sub	 esp, 68			; 00000044H
  00006	53		 push	 ebx
  00007	56		 push	 esi
  00008	57		 push	 edi
  00009	89 4d fc	 mov	 DWORD PTR _this$[ebp], ecx

; 496  : 	(void)pszCategoryName;
; 497  : }

  0000c	8b 45 fc	 mov	 eax, DWORD PTR _this$[ebp]
  0000f	5f		 pop	 edi
  00010	5e		 pop	 esi
  00011	5b		 pop	 ebx
  00012	8b e5		 mov	 esp, ebp
  00014	5d		 pop	 ebp
  00015	c2 04 00	 ret	 4
??0?$CTraceCategoryEx@$01$0A@@ATL@@QAE@PBD@Z ENDP	; ATL::CTraceCategoryEx<2,0>::CTraceCategoryEx<2,0>
_TEXT	ENDS
; Function compile flags: /Odtp /ZI
; File C:\Program Files (x86)\Microsoft Visual Studio\2019\Community\VC\Tools\MSVC\14.27.29110\atlmfc\include\atltrace.h
;	COMDAT ??__EatlTraceGeneral@ATL@@YAXXZ
text$di	SEGMENT
??__EatlTraceGeneral@ATL@@YAXXZ PROC			; ATL::`dynamic initializer for 'atlTraceGeneral'', COMDAT

; 97   : __declspec(selectany) CTraceCategoryEx<CTraceCategoryEx<>::TraceGeneral> atlTraceGeneral(_T("atlTraceGeneral"));

  00000	55		 push	 ebp
  00001	8b ec		 mov	 ebp, esp
  00003	83 ec 40	 sub	 esp, 64			; 00000040H
  00006	53		 push	 ebx
  00007	56		 push	 esi
  00008	57		 push	 edi
  00009	68 00 00 00 00	 push	 OFFSET ??_C@_0BA@MKMIKKJB@atlTraceGeneral@
  0000e	b9 00 00 00 00	 mov	 ecx, OFFSET ?atlTraceGeneral@ATL@@3V?$CTraceCategoryEx@$00$0A@@1@A ; ATL::atlTraceGeneral
  00013	e8 00 00 00 00	 call	 ??0?$CTraceCategoryEx@$00$0A@@ATL@@QAE@PBD@Z ; ATL::CTraceCategoryEx<1,0>::CTraceCategoryEx<1,0>
  00018	5f		 pop	 edi
  00019	5e		 pop	 esi
  0001a	5b		 pop	 ebx
  0001b	8b e5		 mov	 esp, ebp
  0001d	5d		 pop	 ebp
  0001e	c3		 ret	 0
??__EatlTraceGeneral@ATL@@YAXXZ ENDP			; ATL::`dynamic initializer for 'atlTraceGeneral''
text$di	ENDS
; Function compile flags: /Odtp /ZI
; File C:\Program Files (x86)\Microsoft Visual Studio\2019\Community\VC\Tools\MSVC\14.27.29110\atlmfc\include\atltrace.h
;	COMDAT ??0?$CTraceCategoryEx@$00$0A@@ATL@@QAE@PBD@Z
_TEXT	SEGMENT
_this$ = -4						; size = 4
_pszCategoryName$ = 8					; size = 4
??0?$CTraceCategoryEx@$00$0A@@ATL@@QAE@PBD@Z PROC	; ATL::CTraceCategoryEx<1,0>::CTraceCategoryEx<1,0>, COMDAT
; _this$ = ecx

; 495  : {

  00000	55		 push	 ebp
  00001	8b ec		 mov	 ebp, esp
  00003	83 ec 44	 sub	 esp, 68			; 00000044H
  00006	53		 push	 ebx
  00007	56		 push	 esi
  00008	57		 push	 edi
  00009	89 4d fc	 mov	 DWORD PTR _this$[ebp], ecx

; 496  : 	(void)pszCategoryName;
; 497  : }

  0000c	8b 45 fc	 mov	 eax, DWORD PTR _this$[ebp]
  0000f	5f		 pop	 edi
  00010	5e		 pop	 esi
  00011	5b		 pop	 ebx
  00012	8b e5		 mov	 esp, ebp
  00014	5d		 pop	 ebp
  00015	c2 04 00	 ret	 4
??0?$CTraceCategoryEx@$00$0A@@ATL@@QAE@PBD@Z ENDP	; ATL::CTraceCategoryEx<1,0>::CTraceCategoryEx<1,0>
_TEXT	ENDS
; Function compile flags: /Odtp /ZI
; File C:\Program Files (x86)\Microsoft Visual Studio\2019\Community\VC\Tools\MSVC\14.27.29110\atlmfc\include\atltrace.h
;	COMDAT ??0?$CTraceCategoryEx@$0IAAAA@$0A@@ATL@@QAE@PBD@Z
_TEXT	SEGMENT
_this$ = -4						; size = 4
_pszCategoryName$ = 8					; size = 4
??0?$CTraceCategoryEx@$0IAAAA@$0A@@ATL@@QAE@PBD@Z PROC	; ATL::CTraceCategoryEx<524288,0>::CTraceCategoryEx<524288,0>, COMDAT
; _this$ = ecx

; 495  : {

  00000	55		 push	 ebp
  00001	8b ec		 mov	 ebp, esp
  00003	83 ec 44	 sub	 esp, 68			; 00000044H
  00006	53		 push	 ebx
  00007	56		 push	 esi
  00008	57		 push	 edi
  00009	89 4d fc	 mov	 DWORD PTR _this$[ebp], ecx

; 496  : 	(void)pszCategoryName;
; 497  : }

  0000c	8b 45 fc	 mov	 eax, DWORD PTR _this$[ebp]
  0000f	5f		 pop	 edi
  00010	5e		 pop	 esi
  00011	5b		 pop	 ebx
  00012	8b e5		 mov	 esp, ebp
  00014	5d		 pop	 ebp
  00015	c2 04 00	 ret	 4
??0?$CTraceCategoryEx@$0IAAAA@$0A@@ATL@@QAE@PBD@Z ENDP	; ATL::CTraceCategoryEx<524288,0>::CTraceCategoryEx<524288,0>
_TEXT	ENDS
; Function compile flags: /Odtp /ZI
; File C:\Mu Online\Mu-GS-Webzen-MC-10093\GameServer\StdAfx.cpp
;	COMDAT ?__empty_global_delete@@YAXPAXI@Z
_TEXT	SEGMENT
___formal$ = 8						; size = 4
___formal$ = 12						; size = 4
?__empty_global_delete@@YAXPAXI@Z PROC			; __empty_global_delete, COMDAT

  00000	55		 push	 ebp
  00001	8b ec		 mov	 ebp, esp
  00003	83 ec 40	 sub	 esp, 64			; 00000040H
  00006	53		 push	 ebx
  00007	56		 push	 esi
  00008	57		 push	 edi
  00009	5f		 pop	 edi
  0000a	5e		 pop	 esi
  0000b	5b		 pop	 ebx
  0000c	8b e5		 mov	 esp, ebp
  0000e	5d		 pop	 ebp
  0000f	c3		 ret	 0
?__empty_global_delete@@YAXPAXI@Z ENDP			; __empty_global_delete
_TEXT	ENDS
; Function compile flags: /Odtp /ZI
; File C:\Mu Online\Mu-GS-Webzen-MC-10093\GameServer\StdAfx.cpp
;	COMDAT ?__empty_global_delete@@YAXPAX@Z
_TEXT	SEGMENT
___formal$ = 8						; size = 4
?__empty_global_delete@@YAXPAX@Z PROC			; __empty_global_delete, COMDAT

  00000	55		 push	 ebp
  00001	8b ec		 mov	 ebp, esp
  00003	83 ec 40	 sub	 esp, 64			; 00000040H
  00006	53		 push	 ebx
  00007	56		 push	 esi
  00008	57		 push	 edi
  00009	5f		 pop	 edi
  0000a	5e		 pop	 esi
  0000b	5b		 pop	 ebx
  0000c	8b e5		 mov	 esp, ebp
  0000e	5d		 pop	 ebp
  0000f	c3		 ret	 0
?__empty_global_delete@@YAXPAX@Z ENDP			; __empty_global_delete
_TEXT	ENDS
END
