; Listing generated by Microsoft (R) Optimizing Compiler Version 19.27.29111.0 

	TITLE	C:\Mu Online\Mu-GS-Webzen-MC-10093\GameServer\TServerInfoDisplayer.cpp
	.686P
	.XMM
	include listing.inc
	.model	flat

INCLUDELIB LIBCMT
INCLUDELIB OLDNAMES

PUBLIC	??_C@_0BC@JJPMCGH@?$FL?9?5?5MC?599B?$CL?5V9?5?9?$FN@ ; `string'
PUBLIC	??_C@_0BN@ECDKHDNJ@0?$CJ?5JoinServer?5?9?5Disconnected@ ; `string'
PUBLIC	??_C@_0BP@FFDIJJDL@1?$CJ?5FsGateServer?5?9?5Disconnected@ ; `string'
PUBLIC	??_C@_0BN@JKFHKNPO@2?$CJ?5DataServer?5?9?5Disconnected@ ; `string'
PUBLIC	??_C@_0BN@DKGHECHI@3?$CJ?5ExDBServer?5?9?5Disconnected@ ; `string'
PUBLIC	??_C@_0BO@EEEBINBE@4?$CJ?5EventServer?5?9?5Disconnected@ ; `string'
PUBLIC	??_C@_0CA@BLGEHOPE@5?$CJ?5RankingServer?5?9?5Disconnected@ ; `string'
;	COMDAT ??_C@_0CA@BLGEHOPE@5?$CJ?5RankingServer?5?9?5Disconnected@
CONST	SEGMENT
??_C@_0CA@BLGEHOPE@5?$CJ?5RankingServer?5?9?5Disconnected@ DB '5) Ranking'
	DB	'Server - Disconnected', 00H			; `string'
CONST	ENDS
;	COMDAT ??_C@_0BO@EEEBINBE@4?$CJ?5EventServer?5?9?5Disconnected@
CONST	SEGMENT
??_C@_0BO@EEEBINBE@4?$CJ?5EventServer?5?9?5Disconnected@ DB '4) EventServ'
	DB	'er - Disconnected', 00H			; `string'
CONST	ENDS
;	COMDAT ??_C@_0BN@DKGHECHI@3?$CJ?5ExDBServer?5?9?5Disconnected@
CONST	SEGMENT
??_C@_0BN@DKGHECHI@3?$CJ?5ExDBServer?5?9?5Disconnected@ DB '3) ExDBServer'
	DB	' - Disconnected', 00H			; `string'
CONST	ENDS
;	COMDAT ??_C@_0BN@JKFHKNPO@2?$CJ?5DataServer?5?9?5Disconnected@
CONST	SEGMENT
??_C@_0BN@JKFHKNPO@2?$CJ?5DataServer?5?9?5Disconnected@ DB '2) DataServer'
	DB	' - Disconnected', 00H			; `string'
CONST	ENDS
;	COMDAT ??_C@_0BP@FFDIJJDL@1?$CJ?5FsGateServer?5?9?5Disconnected@
CONST	SEGMENT
??_C@_0BP@FFDIJJDL@1?$CJ?5FsGateServer?5?9?5Disconnected@ DB '1) FsGateSe'
	DB	'rver - Disconnected', 00H			; `string'
CONST	ENDS
;	COMDAT ??_C@_0BN@ECDKHDNJ@0?$CJ?5JoinServer?5?9?5Disconnected@
CONST	SEGMENT
??_C@_0BN@ECDKHDNJ@0?$CJ?5JoinServer?5?9?5Disconnected@ DB '0) JoinServer'
	DB	' - Disconnected', 00H			; `string'
CONST	ENDS
;	COMDAT ??_C@_0BC@JJPMCGH@?$FL?9?5?5MC?599B?$CL?5V9?5?9?$FN@
CONST	SEGMENT
??_C@_0BC@JJPMCGH@?$FL?9?5?5MC?599B?$CL?5V9?5?9?$FN@ DB '[-  MC 99B+ V9 -'
	DB	']', 00H					; `string'
CONST	ENDS
PUBLIC	?__empty_global_delete@@YAXPAX@Z		; __empty_global_delete
PUBLIC	?__empty_global_delete@@YAXPAXI@Z		; __empty_global_delete
PUBLIC	??0TServerInfoDisplayer@@QAE@XZ			; TServerInfoDisplayer::TServerInfoDisplayer
PUBLIC	??1TServerInfoDisplayer@@UAE@XZ			; TServerInfoDisplayer::~TServerInfoDisplayer
PUBLIC	?Run@TServerInfoDisplayer@@QAEXPAUHWND__@@@Z	; TServerInfoDisplayer::Run
PUBLIC	?CheckLogFileSize@TServerInfoDisplayer@@QAEXXZ	; TServerInfoDisplayer::CheckLogFileSize
PUBLIC	?CheckJSConnection@TServerInfoDisplayer@@QAEXXZ	; TServerInfoDisplayer::CheckJSConnection
PUBLIC	?CheckFSConnection@TServerInfoDisplayer@@QAEXXZ	; TServerInfoDisplayer::CheckFSConnection
PUBLIC	?CheckDSConnection@TServerInfoDisplayer@@QAEXXZ	; TServerInfoDisplayer::CheckDSConnection
PUBLIC	?CheckEXDSConnection@TServerInfoDisplayer@@QAEXXZ ; TServerInfoDisplayer::CheckEXDSConnection
PUBLIC	?CheckEVDSConnection@TServerInfoDisplayer@@QAEXXZ ; TServerInfoDisplayer::CheckEVDSConnection
PUBLIC	?CheckRKDSConnection@TServerInfoDisplayer@@QAEXXZ ; TServerInfoDisplayer::CheckRKDSConnection
PUBLIC	?InitGDIObject@TServerInfoDisplayer@@QAEXXZ	; TServerInfoDisplayer::InitGDIObject
PUBLIC	?DelGDIObject@TServerInfoDisplayer@@QAEXXZ	; TServerInfoDisplayer::DelGDIObject
PUBLIC	?PaintAllInfo@TServerInfoDisplayer@@QAEXPAUHWND__@@HH@Z ; TServerInfoDisplayer::PaintAllInfo
PUBLIC	??_GTServerInfoDisplayer@@UAEPAXI@Z		; TServerInfoDisplayer::`scalar deleting destructor'
PUBLIC	??_7TServerInfoDisplayer@@6B@			; TServerInfoDisplayer::`vftable'
PUBLIC	?g_ServerInfoDisplayer@@3VTServerInfoDisplayer@@A ; g_ServerInfoDisplayer
PUBLIC	?SERVER_CONN_STATE_LOG@@3VCLogToFile@@A		; SERVER_CONN_STATE_LOG
PUBLIC	??_C@_0BI@LLABDCAE@?4?2SERVER_CONN_STATE_LOG@	; `string'
PUBLIC	??_C@_0BG@CIFCKEJJ@SERVER_CONN_STATE_LOG@	; `string'
PUBLIC	??_C@_05MOECANKB@Times@				; `string'
PUBLIC	??_C@_0EH@JOCPMNLJ@Server?5Interconnection?5Check?5?9?5@ ; `string'
PUBLIC	??_R4TServerInfoDisplayer@@6B@			; TServerInfoDisplayer::`RTTI Complete Object Locator'
PUBLIC	??_R0?AVTServerInfoDisplayer@@@8		; TServerInfoDisplayer `RTTI Type Descriptor'
PUBLIC	??_R3TServerInfoDisplayer@@8			; TServerInfoDisplayer::`RTTI Class Hierarchy Descriptor'
PUBLIC	??_R2TServerInfoDisplayer@@8			; TServerInfoDisplayer::`RTTI Base Class Array'
PUBLIC	??_R1A@?0A@EA@TServerInfoDisplayer@@8		; TServerInfoDisplayer::`RTTI Base Class Descriptor at (0,-1,0,64)'
EXTRN	??3@YAXPAXI@Z:PROC				; operator delete
EXTRN	_atexit:PROC
EXTRN	_strlen:PROC
EXTRN	__imp__CreateFontA@56:PROC
EXTRN	__imp__CreateSolidBrush@4:PROC
EXTRN	__imp__DeleteObject@4:PROC
EXTRN	__imp__SelectObject@8:PROC
EXTRN	__imp__SetBkMode@8:PROC
EXTRN	__imp__SetTextColor@8:PROC
EXTRN	__imp__TextOutA@20:PROC
EXTRN	__imp__GetDC@4:PROC
EXTRN	__imp__ReleaseDC@8:PROC
EXTRN	__imp__GetClientRect@8:PROC
EXTRN	__imp__FillRect@12:PROC
EXTRN	?GetSocket@MyWinsockBase@@QAEIXZ:PROC		; MyWinsockBase::GetSocket
EXTRN	?Output@CLogToFile@@QAAXPADZZ:PROC		; CLogToFile::Output
EXTRN	??0CLogToFile@@QAE@QAD0H@Z:PROC			; CLogToFile::CLogToFile
EXTRN	??1CLogToFile@@QAE@XZ:PROC			; CLogToFile::~CLogToFile
EXTRN	??_ETServerInfoDisplayer@@UAEPAXI@Z:PROC	; TServerInfoDisplayer::`vector deleting destructor'
EXTRN	@__security_check_cookie@4:PROC
EXTRN	___CxxFrameHandler3:PROC
EXTRN	??_7type_info@@6B@:QWORD			; type_info::`vftable'
EXTRN	?cDBSMng@@3VDBSockMng@@A:BYTE			; cDBSMng
EXTRN	?wsJServerCli@@3VwsJoinServerCli@@A:BYTE	; wsJServerCli
EXTRN	?wsExDbCli@@3VwsJoinServerCli@@A:BYTE		; wsExDbCli
EXTRN	?IsDevilSquareEventConnected@@3HA:DWORD		; IsDevilSquareEventConnected
EXTRN	?IsEventChipServerConnected@@3HA:DWORD		; IsEventChipServerConnected
EXTRN	___security_cookie:DWORD
_BSS	SEGMENT
?g_ServerInfoDisplayer@@3VTServerInfoDisplayer@@A DB 028H DUP (?) ; g_ServerInfoDisplayer
?SERVER_CONN_STATE_LOG@@3VCLogToFile@@A DB 010228H DUP (?) ; SERVER_CONN_STATE_LOG
_BSS	ENDS
CRT$XCU	SEGMENT
?g_ServerInfoDisplayer$initializer$@@3P6AXXZA DD FLAT:??__Eg_ServerInfoDisplayer@@YAXXZ ; g_ServerInfoDisplayer$initializer$
CRT$XCU	ENDS
;	COMDAT ??_R1A@?0A@EA@TServerInfoDisplayer@@8
rdata$r	SEGMENT
??_R1A@?0A@EA@TServerInfoDisplayer@@8 DD FLAT:??_R0?AVTServerInfoDisplayer@@@8 ; TServerInfoDisplayer::`RTTI Base Class Descriptor at (0,-1,0,64)'
	DD	00H
	DD	00H
	DD	0ffffffffH
	DD	00H
	DD	040H
	DD	FLAT:??_R3TServerInfoDisplayer@@8
rdata$r	ENDS
;	COMDAT ??_R2TServerInfoDisplayer@@8
rdata$r	SEGMENT
??_R2TServerInfoDisplayer@@8 DD FLAT:??_R1A@?0A@EA@TServerInfoDisplayer@@8 ; TServerInfoDisplayer::`RTTI Base Class Array'
rdata$r	ENDS
;	COMDAT ??_R3TServerInfoDisplayer@@8
rdata$r	SEGMENT
??_R3TServerInfoDisplayer@@8 DD 00H			; TServerInfoDisplayer::`RTTI Class Hierarchy Descriptor'
	DD	00H
	DD	01H
	DD	FLAT:??_R2TServerInfoDisplayer@@8
rdata$r	ENDS
;	COMDAT ??_R0?AVTServerInfoDisplayer@@@8
data$r	SEGMENT
??_R0?AVTServerInfoDisplayer@@@8 DD FLAT:??_7type_info@@6B@ ; TServerInfoDisplayer `RTTI Type Descriptor'
	DD	00H
	DB	'.?AVTServerInfoDisplayer@@', 00H
data$r	ENDS
;	COMDAT ??_R4TServerInfoDisplayer@@6B@
rdata$r	SEGMENT
??_R4TServerInfoDisplayer@@6B@ DD 00H			; TServerInfoDisplayer::`RTTI Complete Object Locator'
	DD	00H
	DD	00H
	DD	FLAT:??_R0?AVTServerInfoDisplayer@@@8
	DD	FLAT:??_R3TServerInfoDisplayer@@8
rdata$r	ENDS
;	COMDAT ??_C@_0EH@JOCPMNLJ@Server?5Interconnection?5Check?5?9?5@
CONST	SEGMENT
??_C@_0EH@JOCPMNLJ@Server?5Interconnection?5Check?5?9?5@ DB 'Server Inter'
	DB	'connection Check - [FS/%d] [DS/%d] [EX/%d] [ES/%d] [RS/%d]', 00H ; `string'
CONST	ENDS
;	COMDAT ??_C@_05MOECANKB@Times@
CONST	SEGMENT
??_C@_05MOECANKB@Times@ DB 'Times', 00H			; `string'
CONST	ENDS
_DATA	SEGMENT
?ServerTypeText@@3PADA DD FLAT:??_C@_0BC@JJPMCGH@?$FL?9?5?5MC?599B?$CL?5V9?5?9?$FN@ ; ServerTypeText
?ErrorMessge@@3PAPADA DD FLAT:??_C@_0BN@ECDKHDNJ@0?$CJ?5JoinServer?5?9?5Disconnected@ ; ErrorMessge
	DD	FLAT:??_C@_0BP@FFDIJJDL@1?$CJ?5FsGateServer?5?9?5Disconnected@
	DD	FLAT:??_C@_0BN@JKFHKNPO@2?$CJ?5DataServer?5?9?5Disconnected@
	DD	FLAT:??_C@_0BN@DKGHECHI@3?$CJ?5ExDBServer?5?9?5Disconnected@
	DD	FLAT:??_C@_0BO@EEEBINBE@4?$CJ?5EventServer?5?9?5Disconnected@
	DD	FLAT:??_C@_0CA@BLGEHOPE@5?$CJ?5RankingServer?5?9?5Disconnected@
_DATA	ENDS
;	COMDAT ??_C@_0BG@CIFCKEJJ@SERVER_CONN_STATE_LOG@
CONST	SEGMENT
??_C@_0BG@CIFCKEJJ@SERVER_CONN_STATE_LOG@ DB 'SERVER_CONN_STATE_LOG', 00H ; `string'
CONST	ENDS
;	COMDAT ??_C@_0BI@LLABDCAE@?4?2SERVER_CONN_STATE_LOG@
CONST	SEGMENT
??_C@_0BI@LLABDCAE@?4?2SERVER_CONN_STATE_LOG@ DB '.\SERVER_CONN_STATE_LOG'
	DB	00H						; `string'
CONST	ENDS
;	COMDAT ??_7TServerInfoDisplayer@@6B@
CONST	SEGMENT
??_7TServerInfoDisplayer@@6B@ DD FLAT:??_R4TServerInfoDisplayer@@6B@ ; TServerInfoDisplayer::`vftable'
	DD	FLAT:??_ETServerInfoDisplayer@@UAEPAXI@Z
CONST	ENDS
;	COMDAT xdata$x
xdata$x	SEGMENT
__ehfuncinfo$??1TServerInfoDisplayer@@UAE@XZ DD 019930522H
	DD	00H
	DD	00H
	DD	2 DUP(00H)
	DD	2 DUP(00H)
	DD	00H
	DD	05H
xdata$x	ENDS
CRT$XCU	SEGMENT
?SERVER_CONN_STATE_LOG$initializer$@@3P6AXXZA DD FLAT:??__ESERVER_CONN_STATE_LOG@@YAXXZ ; SERVER_CONN_STATE_LOG$initializer$
CRT$XCU	ENDS
; Function compile flags: /Odtp /ZI
;	COMDAT ??__FSERVER_CONN_STATE_LOG@@YAXXZ
text$yd	SEGMENT
??__FSERVER_CONN_STATE_LOG@@YAXXZ PROC			; `dynamic atexit destructor for 'SERVER_CONN_STATE_LOG'', COMDAT
  00000	55		 push	 ebp
  00001	8b ec		 mov	 ebp, esp
  00003	83 ec 40	 sub	 esp, 64			; 00000040H
  00006	53		 push	 ebx
  00007	56		 push	 esi
  00008	57		 push	 edi
  00009	b9 00 00 00 00	 mov	 ecx, OFFSET ?SERVER_CONN_STATE_LOG@@3VCLogToFile@@A ; SERVER_CONN_STATE_LOG
  0000e	e8 00 00 00 00	 call	 ??1CLogToFile@@QAE@XZ	; CLogToFile::~CLogToFile
  00013	5f		 pop	 edi
  00014	5e		 pop	 esi
  00015	5b		 pop	 ebx
  00016	8b e5		 mov	 esp, ebp
  00018	5d		 pop	 ebp
  00019	c3		 ret	 0
??__FSERVER_CONN_STATE_LOG@@YAXXZ ENDP			; `dynamic atexit destructor for 'SERVER_CONN_STATE_LOG''
text$yd	ENDS
; Function compile flags: /Odtp /ZI
; File C:\Mu Online\Mu-GS-Webzen-MC-10093\GameServer\TServerInfoDisplayer.cpp
;	COMDAT ??__ESERVER_CONN_STATE_LOG@@YAXXZ
text$di	SEGMENT
??__ESERVER_CONN_STATE_LOG@@YAXXZ PROC			; `dynamic initializer for 'SERVER_CONN_STATE_LOG'', COMDAT

; 25   : CLogToFile	SERVER_CONN_STATE_LOG ("SERVER_CONN_STATE_LOG", ".\\SERVER_CONN_STATE_LOG");		// 로그파일 객체

  00000	55		 push	 ebp
  00001	8b ec		 mov	 ebp, esp
  00003	83 ec 40	 sub	 esp, 64			; 00000040H
  00006	53		 push	 ebx
  00007	56		 push	 esi
  00008	57		 push	 edi
  00009	6a 01		 push	 1
  0000b	68 00 00 00 00	 push	 OFFSET ??_C@_0BI@LLABDCAE@?4?2SERVER_CONN_STATE_LOG@
  00010	68 00 00 00 00	 push	 OFFSET ??_C@_0BG@CIFCKEJJ@SERVER_CONN_STATE_LOG@
  00015	b9 00 00 00 00	 mov	 ecx, OFFSET ?SERVER_CONN_STATE_LOG@@3VCLogToFile@@A ; SERVER_CONN_STATE_LOG
  0001a	e8 00 00 00 00	 call	 ??0CLogToFile@@QAE@QAD0H@Z ; CLogToFile::CLogToFile
  0001f	68 00 00 00 00	 push	 OFFSET ??__FSERVER_CONN_STATE_LOG@@YAXXZ ; `dynamic atexit destructor for 'SERVER_CONN_STATE_LOG''
  00024	e8 00 00 00 00	 call	 _atexit
  00029	83 c4 04	 add	 esp, 4
  0002c	5f		 pop	 edi
  0002d	5e		 pop	 esi
  0002e	5b		 pop	 ebx
  0002f	8b e5		 mov	 esp, ebp
  00031	5d		 pop	 ebp
  00032	c3		 ret	 0
??__ESERVER_CONN_STATE_LOG@@YAXXZ ENDP			; `dynamic initializer for 'SERVER_CONN_STATE_LOG''
text$di	ENDS
; Function compile flags: /Odtp /ZI
;	COMDAT ??__Fg_ServerInfoDisplayer@@YAXXZ
text$yd	SEGMENT
??__Fg_ServerInfoDisplayer@@YAXXZ PROC			; `dynamic atexit destructor for 'g_ServerInfoDisplayer'', COMDAT
  00000	55		 push	 ebp
  00001	8b ec		 mov	 ebp, esp
  00003	83 ec 40	 sub	 esp, 64			; 00000040H
  00006	53		 push	 ebx
  00007	56		 push	 esi
  00008	57		 push	 edi
  00009	b9 00 00 00 00	 mov	 ecx, OFFSET ?g_ServerInfoDisplayer@@3VTServerInfoDisplayer@@A ; g_ServerInfoDisplayer
  0000e	e8 00 00 00 00	 call	 ??1TServerInfoDisplayer@@UAE@XZ ; TServerInfoDisplayer::~TServerInfoDisplayer
  00013	5f		 pop	 edi
  00014	5e		 pop	 esi
  00015	5b		 pop	 ebx
  00016	8b e5		 mov	 esp, ebp
  00018	5d		 pop	 ebp
  00019	c3		 ret	 0
??__Fg_ServerInfoDisplayer@@YAXXZ ENDP			; `dynamic atexit destructor for 'g_ServerInfoDisplayer''
text$yd	ENDS
; Function compile flags: /Odtp /ZI
; File C:\Mu Online\Mu-GS-Webzen-MC-10093\GameServer\TServerInfoDisplayer.cpp
;	COMDAT ??__Eg_ServerInfoDisplayer@@YAXXZ
text$di	SEGMENT
??__Eg_ServerInfoDisplayer@@YAXXZ PROC			; `dynamic initializer for 'g_ServerInfoDisplayer'', COMDAT

; 23   : TServerInfoDisplayer g_ServerInfoDisplayer;

  00000	55		 push	 ebp
  00001	8b ec		 mov	 ebp, esp
  00003	83 ec 40	 sub	 esp, 64			; 00000040H
  00006	53		 push	 ebx
  00007	56		 push	 esi
  00008	57		 push	 edi
  00009	b9 00 00 00 00	 mov	 ecx, OFFSET ?g_ServerInfoDisplayer@@3VTServerInfoDisplayer@@A ; g_ServerInfoDisplayer
  0000e	e8 00 00 00 00	 call	 ??0TServerInfoDisplayer@@QAE@XZ ; TServerInfoDisplayer::TServerInfoDisplayer
  00013	68 00 00 00 00	 push	 OFFSET ??__Fg_ServerInfoDisplayer@@YAXXZ ; `dynamic atexit destructor for 'g_ServerInfoDisplayer''
  00018	e8 00 00 00 00	 call	 _atexit
  0001d	83 c4 04	 add	 esp, 4
  00020	5f		 pop	 edi
  00021	5e		 pop	 esi
  00022	5b		 pop	 ebx
  00023	8b e5		 mov	 esp, ebp
  00025	5d		 pop	 ebp
  00026	c3		 ret	 0
??__Eg_ServerInfoDisplayer@@YAXXZ ENDP			; `dynamic initializer for 'g_ServerInfoDisplayer''
text$di	ENDS
; Function compile flags: /Odtp /ZI
;	COMDAT ??_GTServerInfoDisplayer@@UAEPAXI@Z
_TEXT	SEGMENT
_this$ = -4						; size = 4
___flags$ = 8						; size = 4
??_GTServerInfoDisplayer@@UAEPAXI@Z PROC		; TServerInfoDisplayer::`scalar deleting destructor', COMDAT
; _this$ = ecx
  00000	55		 push	 ebp
  00001	8b ec		 mov	 ebp, esp
  00003	83 ec 44	 sub	 esp, 68			; 00000044H
  00006	53		 push	 ebx
  00007	56		 push	 esi
  00008	57		 push	 edi
  00009	89 4d fc	 mov	 DWORD PTR _this$[ebp], ecx
  0000c	8b 4d fc	 mov	 ecx, DWORD PTR _this$[ebp]
  0000f	e8 00 00 00 00	 call	 ??1TServerInfoDisplayer@@UAE@XZ ; TServerInfoDisplayer::~TServerInfoDisplayer
  00014	8b 45 08	 mov	 eax, DWORD PTR ___flags$[ebp]
  00017	83 e0 01	 and	 eax, 1
  0001a	74 0e		 je	 SHORT $LN2@scalar
  0001c	6a 28		 push	 40			; 00000028H
  0001e	8b 45 fc	 mov	 eax, DWORD PTR _this$[ebp]
  00021	50		 push	 eax
  00022	e8 00 00 00 00	 call	 ??3@YAXPAXI@Z		; operator delete
  00027	83 c4 08	 add	 esp, 8
$LN2@scalar:
  0002a	8b 45 fc	 mov	 eax, DWORD PTR _this$[ebp]
  0002d	5f		 pop	 edi
  0002e	5e		 pop	 esi
  0002f	5b		 pop	 ebx
  00030	8b e5		 mov	 esp, ebp
  00032	5d		 pop	 ebp
  00033	c2 04 00	 ret	 4
??_GTServerInfoDisplayer@@UAEPAXI@Z ENDP		; TServerInfoDisplayer::`scalar deleting destructor'
_TEXT	ENDS
; Function compile flags: /Odtp /ZI
; File C:\Mu Online\Mu-GS-Webzen-MC-10093\GameServer\TServerInfoDisplayer.cpp
;	COMDAT ?PaintAllInfo@TServerInfoDisplayer@@QAEXPAUHWND__@@HH@Z
_TEXT	SEGMENT
_pOldFont$ = -40					; size = 4
_iOldBkMode$ = -36					; size = 4
_iLineCount$ = -32					; size = 4
_rect$ = -28						; size = 16
_hDC$ = -12						; size = 4
_this$ = -8						; size = 4
__$ArrayPad$ = -4					; size = 4
_hWnd$ = 8						; size = 4
_iTopLeftX$ = 12					; size = 4
_iTopLeftY$ = 16					; size = 4
?PaintAllInfo@TServerInfoDisplayer@@QAEXPAUHWND__@@HH@Z PROC ; TServerInfoDisplayer::PaintAllInfo, COMDAT
; _this$ = ecx

; 203  : {

  00000	55		 push	 ebp
  00001	8b ec		 mov	 ebp, esp
  00003	83 ec 68	 sub	 esp, 104		; 00000068H
  00006	a1 00 00 00 00	 mov	 eax, DWORD PTR ___security_cookie
  0000b	33 c5		 xor	 eax, ebp
  0000d	89 45 fc	 mov	 DWORD PTR __$ArrayPad$[ebp], eax
  00010	53		 push	 ebx
  00011	56		 push	 esi
  00012	57		 push	 edi
  00013	89 4d f8	 mov	 DWORD PTR _this$[ebp], ecx

; 204  : 	HDC	hDC;
; 205  : 	hDC = GetDC(hWnd);

  00016	8b 45 08	 mov	 eax, DWORD PTR _hWnd$[ebp]
  00019	50		 push	 eax
  0001a	ff 15 00 00 00
	00		 call	 DWORD PTR __imp__GetDC@4
  00020	89 45 f4	 mov	 DWORD PTR _hDC$[ebp], eax

; 206  : 
; 207  : 	RECT rect;
; 208  : 	GetClientRect( hWnd, &rect );

  00023	8d 45 e4	 lea	 eax, DWORD PTR _rect$[ebp]
  00026	50		 push	 eax
  00027	8b 4d 08	 mov	 ecx, DWORD PTR _hWnd$[ebp]
  0002a	51		 push	 ecx
  0002b	ff 15 00 00 00
	00		 call	 DWORD PTR __imp__GetClientRect@8

; 209  : 
; 210  : 	rect.top		= 20;

  00031	c7 45 e8 14 00
	00 00		 mov	 DWORD PTR _rect$[ebp+4], 20 ; 00000014H

; 211  : 	rect.bottom		= 100;

  00038	c7 45 f0 64 00
	00 00		 mov	 DWORD PTR _rect$[ebp+12], 100 ; 00000064H

; 212  : 
; 213  : 	int iLineCount	= 0;

  0003f	c7 45 e0 00 00
	00 00		 mov	 DWORD PTR _iLineCount$[ebp], 0

; 214  : 
; 215  : 	int iOldBkMode	= SetBkMode(hDC, TRANSPARENT); 

  00046	6a 01		 push	 1
  00048	8b 45 f4	 mov	 eax, DWORD PTR _hDC$[ebp]
  0004b	50		 push	 eax
  0004c	ff 15 00 00 00
	00		 call	 DWORD PTR __imp__SetBkMode@8
  00052	89 45 dc	 mov	 DWORD PTR _iOldBkMode$[ebp], eax

; 216  : 	
; 217  : 
; 218  : 	// 1. > 중요한 연결 끊김에 대한 표시
; 219  : 	if( m_bValidJSConnection && m_bValidDSConnection && m_bValidFSConnection )

  00055	8b 45 f8	 mov	 eax, DWORD PTR _this$[ebp]
  00058	83 78 04 00	 cmp	 DWORD PTR [eax+4], 0
  0005c	74 29		 je	 SHORT $LN2@PaintAllIn
  0005e	8b 45 f8	 mov	 eax, DWORD PTR _this$[ebp]
  00061	83 78 0c 00	 cmp	 DWORD PTR [eax+12], 0
  00065	74 20		 je	 SHORT $LN2@PaintAllIn
  00067	8b 45 f8	 mov	 eax, DWORD PTR _this$[ebp]
  0006a	83 78 08 00	 cmp	 DWORD PTR [eax+8], 0
  0006e	74 17		 je	 SHORT $LN2@PaintAllIn

; 220  : 	{
; 221  : 		FillRect(hDC, &rect, m_hNormalBrush );

  00070	8b 45 f8	 mov	 eax, DWORD PTR _this$[ebp]
  00073	8b 48 20	 mov	 ecx, DWORD PTR [eax+32]
  00076	51		 push	 ecx
  00077	8d 55 e4	 lea	 edx, DWORD PTR _rect$[ebp]
  0007a	52		 push	 edx
  0007b	8b 45 f4	 mov	 eax, DWORD PTR _hDC$[ebp]
  0007e	50		 push	 eax
  0007f	ff 15 00 00 00
	00		 call	 DWORD PTR __imp__FillRect@12

; 222  : 	}

  00085	eb 15		 jmp	 SHORT $LN3@PaintAllIn
$LN2@PaintAllIn:

; 223  : 	else
; 224  : 	{
; 225  : 		FillRect(hDC, &rect, m_hAbnormalBrush );

  00087	8b 45 f8	 mov	 eax, DWORD PTR _this$[ebp]
  0008a	8b 48 24	 mov	 ecx, DWORD PTR [eax+36]
  0008d	51		 push	 ecx
  0008e	8d 55 e4	 lea	 edx, DWORD PTR _rect$[ebp]
  00091	52		 push	 edx
  00092	8b 45 f4	 mov	 eax, DWORD PTR _hDC$[ebp]
  00095	50		 push	 eax
  00096	ff 15 00 00 00
	00		 call	 DWORD PTR __imp__FillRect@12
$LN3@PaintAllIn:

; 226  : 	}
; 227  : 	
; 228  : 
; 229  : 	// 2. > 각 서버들과의 연결 상태 표시
; 230  : 	if( m_bValidJSConnection == FALSE )

  0009c	8b 45 f8	 mov	 eax, DWORD PTR _this$[ebp]
  0009f	83 78 04 00	 cmp	 DWORD PTR [eax+4], 0
  000a3	75 55		 jne	 SHORT $LN4@PaintAllIn

; 231  : 	{
; 232  : 		SetTextColor(hDC, RGB( 0,0,255));

  000a5	68 00 00 ff 00	 push	 16711680		; 00ff0000H
  000aa	8b 45 f4	 mov	 eax, DWORD PTR _hDC$[ebp]
  000ad	50		 push	 eax
  000ae	ff 15 00 00 00
	00		 call	 DWORD PTR __imp__SetTextColor@8

; 233  : 
; 234  : 		TextOut( hDC, iTopLeftX, iTopLeftY + iLineCount*15 , 

  000b4	b8 04 00 00 00	 mov	 eax, 4
  000b9	6b c8 00	 imul	 ecx, eax, 0
  000bc	8b 91 00 00 00
	00		 mov	 edx, DWORD PTR ?ErrorMessge@@3PAPADA[ecx]
  000c2	52		 push	 edx
  000c3	e8 00 00 00 00	 call	 _strlen
  000c8	83 c4 04	 add	 esp, 4
  000cb	50		 push	 eax
  000cc	b8 04 00 00 00	 mov	 eax, 4
  000d1	6b c8 00	 imul	 ecx, eax, 0
  000d4	8b 91 00 00 00
	00		 mov	 edx, DWORD PTR ?ErrorMessge@@3PAPADA[ecx]
  000da	52		 push	 edx
  000db	6b 45 e0 0f	 imul	 eax, DWORD PTR _iLineCount$[ebp], 15
  000df	03 45 10	 add	 eax, DWORD PTR _iTopLeftY$[ebp]
  000e2	50		 push	 eax
  000e3	8b 4d 0c	 mov	 ecx, DWORD PTR _iTopLeftX$[ebp]
  000e6	51		 push	 ecx
  000e7	8b 55 f4	 mov	 edx, DWORD PTR _hDC$[ebp]
  000ea	52		 push	 edx
  000eb	ff 15 00 00 00
	00		 call	 DWORD PTR __imp__TextOutA@20

; 235  : 				 ErrorMessge[SAM_MESSAGE_INDEX_DISCONNECTEDJS],
; 236  : 				 strlen(ErrorMessge[SAM_MESSAGE_INDEX_DISCONNECTEDJS]) );
; 237  : 
; 238  : 		iLineCount++;

  000f1	8b 45 e0	 mov	 eax, DWORD PTR _iLineCount$[ebp]
  000f4	83 c0 01	 add	 eax, 1
  000f7	89 45 e0	 mov	 DWORD PTR _iLineCount$[ebp], eax
$LN4@PaintAllIn:

; 239  : 	}
; 240  : 
; 241  : 	if( m_bValidFSConnection == FALSE )

  000fa	8b 45 f8	 mov	 eax, DWORD PTR _this$[ebp]
  000fd	83 78 08 00	 cmp	 DWORD PTR [eax+8], 0
  00101	75 55		 jne	 SHORT $LN5@PaintAllIn

; 242  : 	{
; 243  : 		SetTextColor(hDC, RGB( 0,0,255));

  00103	68 00 00 ff 00	 push	 16711680		; 00ff0000H
  00108	8b 45 f4	 mov	 eax, DWORD PTR _hDC$[ebp]
  0010b	50		 push	 eax
  0010c	ff 15 00 00 00
	00		 call	 DWORD PTR __imp__SetTextColor@8

; 244  : 
; 245  : 		TextOut( hDC, iTopLeftX, iTopLeftY + iLineCount*15 , 

  00112	b8 04 00 00 00	 mov	 eax, 4
  00117	c1 e0 00	 shl	 eax, 0
  0011a	8b 88 00 00 00
	00		 mov	 ecx, DWORD PTR ?ErrorMessge@@3PAPADA[eax]
  00120	51		 push	 ecx
  00121	e8 00 00 00 00	 call	 _strlen
  00126	83 c4 04	 add	 esp, 4
  00129	50		 push	 eax
  0012a	ba 04 00 00 00	 mov	 edx, 4
  0012f	c1 e2 00	 shl	 edx, 0
  00132	8b 82 00 00 00
	00		 mov	 eax, DWORD PTR ?ErrorMessge@@3PAPADA[edx]
  00138	50		 push	 eax
  00139	6b 4d e0 0f	 imul	 ecx, DWORD PTR _iLineCount$[ebp], 15
  0013d	03 4d 10	 add	 ecx, DWORD PTR _iTopLeftY$[ebp]
  00140	51		 push	 ecx
  00141	8b 55 0c	 mov	 edx, DWORD PTR _iTopLeftX$[ebp]
  00144	52		 push	 edx
  00145	8b 45 f4	 mov	 eax, DWORD PTR _hDC$[ebp]
  00148	50		 push	 eax
  00149	ff 15 00 00 00
	00		 call	 DWORD PTR __imp__TextOutA@20

; 246  : 				 ErrorMessge[SAM_MESSAGE_INDEX_DISCONNECTEDFS],
; 247  : 				 strlen(ErrorMessge[SAM_MESSAGE_INDEX_DISCONNECTEDFS]) );
; 248  : 
; 249  : 		iLineCount++;

  0014f	8b 45 e0	 mov	 eax, DWORD PTR _iLineCount$[ebp]
  00152	83 c0 01	 add	 eax, 1
  00155	89 45 e0	 mov	 DWORD PTR _iLineCount$[ebp], eax
$LN5@PaintAllIn:

; 250  : 	}
; 251  : 
; 252  : 	if( m_bValidDSConnection == FALSE )

  00158	8b 45 f8	 mov	 eax, DWORD PTR _this$[ebp]
  0015b	83 78 0c 00	 cmp	 DWORD PTR [eax+12], 0
  0015f	75 53		 jne	 SHORT $LN6@PaintAllIn

; 253  : 	{
; 254  : 		SetTextColor(hDC, RGB( 0,0,255));

  00161	68 00 00 ff 00	 push	 16711680		; 00ff0000H
  00166	8b 45 f4	 mov	 eax, DWORD PTR _hDC$[ebp]
  00169	50		 push	 eax
  0016a	ff 15 00 00 00
	00		 call	 DWORD PTR __imp__SetTextColor@8

; 255  : 
; 256  : 		TextOut( hDC, iTopLeftX, iTopLeftY + iLineCount*15 , 

  00170	b8 04 00 00 00	 mov	 eax, 4
  00175	d1 e0		 shl	 eax, 1
  00177	8b 88 00 00 00
	00		 mov	 ecx, DWORD PTR ?ErrorMessge@@3PAPADA[eax]
  0017d	51		 push	 ecx
  0017e	e8 00 00 00 00	 call	 _strlen
  00183	83 c4 04	 add	 esp, 4
  00186	50		 push	 eax
  00187	ba 04 00 00 00	 mov	 edx, 4
  0018c	d1 e2		 shl	 edx, 1
  0018e	8b 82 00 00 00
	00		 mov	 eax, DWORD PTR ?ErrorMessge@@3PAPADA[edx]
  00194	50		 push	 eax
  00195	6b 4d e0 0f	 imul	 ecx, DWORD PTR _iLineCount$[ebp], 15
  00199	03 4d 10	 add	 ecx, DWORD PTR _iTopLeftY$[ebp]
  0019c	51		 push	 ecx
  0019d	8b 55 0c	 mov	 edx, DWORD PTR _iTopLeftX$[ebp]
  001a0	52		 push	 edx
  001a1	8b 45 f4	 mov	 eax, DWORD PTR _hDC$[ebp]
  001a4	50		 push	 eax
  001a5	ff 15 00 00 00
	00		 call	 DWORD PTR __imp__TextOutA@20

; 257  : 				 ErrorMessge[SAM_MESSAGE_INDEX_DISCONNECTEDDS],
; 258  : 				 strlen(ErrorMessge[SAM_MESSAGE_INDEX_DISCONNECTEDDS]) );
; 259  : 
; 260  : 		iLineCount++;

  001ab	8b 45 e0	 mov	 eax, DWORD PTR _iLineCount$[ebp]
  001ae	83 c0 01	 add	 eax, 1
  001b1	89 45 e0	 mov	 DWORD PTR _iLineCount$[ebp], eax
$LN6@PaintAllIn:

; 261  : 	}
; 262  : 
; 263  : 	if( m_bValidEXDSConnection == FALSE )

  001b4	8b 45 f8	 mov	 eax, DWORD PTR _this$[ebp]
  001b7	83 78 10 00	 cmp	 DWORD PTR [eax+16], 0
  001bb	75 55		 jne	 SHORT $LN7@PaintAllIn

; 264  : 	{
; 265  : 		SetTextColor(hDC, RGB( 0,0,255));

  001bd	68 00 00 ff 00	 push	 16711680		; 00ff0000H
  001c2	8b 45 f4	 mov	 eax, DWORD PTR _hDC$[ebp]
  001c5	50		 push	 eax
  001c6	ff 15 00 00 00
	00		 call	 DWORD PTR __imp__SetTextColor@8

; 266  : 
; 267  : 		TextOut( hDC, iTopLeftX, iTopLeftY + iLineCount*15 , 

  001cc	b8 04 00 00 00	 mov	 eax, 4
  001d1	6b c8 03	 imul	 ecx, eax, 3
  001d4	8b 91 00 00 00
	00		 mov	 edx, DWORD PTR ?ErrorMessge@@3PAPADA[ecx]
  001da	52		 push	 edx
  001db	e8 00 00 00 00	 call	 _strlen
  001e0	83 c4 04	 add	 esp, 4
  001e3	50		 push	 eax
  001e4	b8 04 00 00 00	 mov	 eax, 4
  001e9	6b c8 03	 imul	 ecx, eax, 3
  001ec	8b 91 00 00 00
	00		 mov	 edx, DWORD PTR ?ErrorMessge@@3PAPADA[ecx]
  001f2	52		 push	 edx
  001f3	6b 45 e0 0f	 imul	 eax, DWORD PTR _iLineCount$[ebp], 15
  001f7	03 45 10	 add	 eax, DWORD PTR _iTopLeftY$[ebp]
  001fa	50		 push	 eax
  001fb	8b 4d 0c	 mov	 ecx, DWORD PTR _iTopLeftX$[ebp]
  001fe	51		 push	 ecx
  001ff	8b 55 f4	 mov	 edx, DWORD PTR _hDC$[ebp]
  00202	52		 push	 edx
  00203	ff 15 00 00 00
	00		 call	 DWORD PTR __imp__TextOutA@20

; 268  : 				 ErrorMessge[SAM_MESSAGE_INDEX_DISCONNECTEDEXDS],
; 269  : 				 strlen(ErrorMessge[SAM_MESSAGE_INDEX_DISCONNECTEDEXDS]) );
; 270  : 
; 271  : 		iLineCount++;

  00209	8b 45 e0	 mov	 eax, DWORD PTR _iLineCount$[ebp]
  0020c	83 c0 01	 add	 eax, 1
  0020f	89 45 e0	 mov	 DWORD PTR _iLineCount$[ebp], eax
$LN7@PaintAllIn:

; 272  : 	}
; 273  : 
; 274  : 	if( m_bValidEVDSConnection == FALSE )

  00212	8b 45 f8	 mov	 eax, DWORD PTR _this$[ebp]
  00215	83 78 14 00	 cmp	 DWORD PTR [eax+20], 0
  00219	75 55		 jne	 SHORT $LN8@PaintAllIn

; 275  : 	{
; 276  : 		SetTextColor(hDC, RGB( 0,0,255));

  0021b	68 00 00 ff 00	 push	 16711680		; 00ff0000H
  00220	8b 45 f4	 mov	 eax, DWORD PTR _hDC$[ebp]
  00223	50		 push	 eax
  00224	ff 15 00 00 00
	00		 call	 DWORD PTR __imp__SetTextColor@8

; 277  : 
; 278  : 		TextOut( hDC, iTopLeftX, iTopLeftY + iLineCount*15 , 

  0022a	b8 04 00 00 00	 mov	 eax, 4
  0022f	c1 e0 02	 shl	 eax, 2
  00232	8b 88 00 00 00
	00		 mov	 ecx, DWORD PTR ?ErrorMessge@@3PAPADA[eax]
  00238	51		 push	 ecx
  00239	e8 00 00 00 00	 call	 _strlen
  0023e	83 c4 04	 add	 esp, 4
  00241	50		 push	 eax
  00242	ba 04 00 00 00	 mov	 edx, 4
  00247	c1 e2 02	 shl	 edx, 2
  0024a	8b 82 00 00 00
	00		 mov	 eax, DWORD PTR ?ErrorMessge@@3PAPADA[edx]
  00250	50		 push	 eax
  00251	6b 4d e0 0f	 imul	 ecx, DWORD PTR _iLineCount$[ebp], 15
  00255	03 4d 10	 add	 ecx, DWORD PTR _iTopLeftY$[ebp]
  00258	51		 push	 ecx
  00259	8b 55 0c	 mov	 edx, DWORD PTR _iTopLeftX$[ebp]
  0025c	52		 push	 edx
  0025d	8b 45 f4	 mov	 eax, DWORD PTR _hDC$[ebp]
  00260	50		 push	 eax
  00261	ff 15 00 00 00
	00		 call	 DWORD PTR __imp__TextOutA@20

; 279  : 				 ErrorMessge[SAM_MESSAGE_INDEX_DISCONNECTEDEVDS],
; 280  : 				 strlen(ErrorMessge[SAM_MESSAGE_INDEX_DISCONNECTEDEVDS]) );
; 281  : 
; 282  : 		iLineCount++;

  00267	8b 45 e0	 mov	 eax, DWORD PTR _iLineCount$[ebp]
  0026a	83 c0 01	 add	 eax, 1
  0026d	89 45 e0	 mov	 DWORD PTR _iLineCount$[ebp], eax
$LN8@PaintAllIn:

; 283  : 	}
; 284  : 
; 285  : 	if( m_bValidRKDSConnection == FALSE )

  00270	8b 45 f8	 mov	 eax, DWORD PTR _this$[ebp]
  00273	83 78 18 00	 cmp	 DWORD PTR [eax+24], 0
  00277	75 55		 jne	 SHORT $LN9@PaintAllIn

; 286  : 	{
; 287  : 		SetTextColor(hDC, RGB( 0,0,255));

  00279	68 00 00 ff 00	 push	 16711680		; 00ff0000H
  0027e	8b 45 f4	 mov	 eax, DWORD PTR _hDC$[ebp]
  00281	50		 push	 eax
  00282	ff 15 00 00 00
	00		 call	 DWORD PTR __imp__SetTextColor@8

; 288  : 
; 289  : 		TextOut( hDC, iTopLeftX, iTopLeftY + iLineCount*15 , 

  00288	b8 04 00 00 00	 mov	 eax, 4
  0028d	6b c8 05	 imul	 ecx, eax, 5
  00290	8b 91 00 00 00
	00		 mov	 edx, DWORD PTR ?ErrorMessge@@3PAPADA[ecx]
  00296	52		 push	 edx
  00297	e8 00 00 00 00	 call	 _strlen
  0029c	83 c4 04	 add	 esp, 4
  0029f	50		 push	 eax
  002a0	b8 04 00 00 00	 mov	 eax, 4
  002a5	6b c8 05	 imul	 ecx, eax, 5
  002a8	8b 91 00 00 00
	00		 mov	 edx, DWORD PTR ?ErrorMessge@@3PAPADA[ecx]
  002ae	52		 push	 edx
  002af	6b 45 e0 0f	 imul	 eax, DWORD PTR _iLineCount$[ebp], 15
  002b3	03 45 10	 add	 eax, DWORD PTR _iTopLeftY$[ebp]
  002b6	50		 push	 eax
  002b7	8b 4d 0c	 mov	 ecx, DWORD PTR _iTopLeftX$[ebp]
  002ba	51		 push	 ecx
  002bb	8b 55 f4	 mov	 edx, DWORD PTR _hDC$[ebp]
  002be	52		 push	 edx
  002bf	ff 15 00 00 00
	00		 call	 DWORD PTR __imp__TextOutA@20

; 290  : 				 ErrorMessge[SAM_MESSAGE_INDEX_DISCONNECTEDRKDS],
; 291  : 				 strlen(ErrorMessge[SAM_MESSAGE_INDEX_DISCONNECTEDRKDS]) );
; 292  : 
; 293  : 		iLineCount++;

  002c5	8b 45 e0	 mov	 eax, DWORD PTR _iLineCount$[ebp]
  002c8	83 c0 01	 add	 eax, 1
  002cb	89 45 e0	 mov	 DWORD PTR _iLineCount$[ebp], eax
$LN9@PaintAllIn:

; 294  : 	}
; 295  : 
; 296  : 	// 3. > 파일 로그 남김
; 297  : 	if(		
; 298  : 			m_bValidJSConnection	== FALSE
; 299  : 		||	m_bValidDSConnection	== FALSE 
; 300  : 		||	m_bValidFSConnection	== FALSE
; 301  : 		||	m_bValidEXDSConnection	== FALSE 
; 302  : 		||	m_bValidEVDSConnection	== FALSE 
; 303  : 		||	m_bValidRKDSConnection	== FALSE

  002ce	8b 45 f8	 mov	 eax, DWORD PTR _this$[ebp]
  002d1	83 78 04 00	 cmp	 DWORD PTR [eax+4], 0
  002d5	74 2d		 je	 SHORT $LN11@PaintAllIn
  002d7	8b 45 f8	 mov	 eax, DWORD PTR _this$[ebp]
  002da	83 78 0c 00	 cmp	 DWORD PTR [eax+12], 0
  002de	74 24		 je	 SHORT $LN11@PaintAllIn
  002e0	8b 45 f8	 mov	 eax, DWORD PTR _this$[ebp]
  002e3	83 78 08 00	 cmp	 DWORD PTR [eax+8], 0
  002e7	74 1b		 je	 SHORT $LN11@PaintAllIn
  002e9	8b 45 f8	 mov	 eax, DWORD PTR _this$[ebp]
  002ec	83 78 10 00	 cmp	 DWORD PTR [eax+16], 0
  002f0	74 12		 je	 SHORT $LN11@PaintAllIn
  002f2	8b 45 f8	 mov	 eax, DWORD PTR _this$[ebp]
  002f5	83 78 14 00	 cmp	 DWORD PTR [eax+20], 0
  002f9	74 09		 je	 SHORT $LN11@PaintAllIn
  002fb	8b 45 f8	 mov	 eax, DWORD PTR _this$[ebp]
  002fe	83 78 18 00	 cmp	 DWORD PTR [eax+24], 0
  00302	75 35		 jne	 SHORT $LN10@PaintAllIn
$LN11@PaintAllIn:

; 304  : 	  )
; 305  : 	{
; 306  : 		SERVER_CONN_STATE_LOG.Output( "Server Interconnection Check - [FS/%d] [DS/%d] [EX/%d] [ES/%d] [RS/%d]",   

  00304	8b 45 f8	 mov	 eax, DWORD PTR _this$[ebp]
  00307	8b 48 18	 mov	 ecx, DWORD PTR [eax+24]
  0030a	51		 push	 ecx
  0030b	8b 55 f8	 mov	 edx, DWORD PTR _this$[ebp]
  0030e	8b 42 14	 mov	 eax, DWORD PTR [edx+20]
  00311	50		 push	 eax
  00312	8b 4d f8	 mov	 ecx, DWORD PTR _this$[ebp]
  00315	8b 51 10	 mov	 edx, DWORD PTR [ecx+16]
  00318	52		 push	 edx
  00319	8b 45 f8	 mov	 eax, DWORD PTR _this$[ebp]
  0031c	8b 48 0c	 mov	 ecx, DWORD PTR [eax+12]
  0031f	51		 push	 ecx
  00320	8b 55 f8	 mov	 edx, DWORD PTR _this$[ebp]
  00323	8b 42 08	 mov	 eax, DWORD PTR [edx+8]
  00326	50		 push	 eax
  00327	68 00 00 00 00	 push	 OFFSET ??_C@_0EH@JOCPMNLJ@Server?5Interconnection?5Check?5?9?5@
  0032c	68 00 00 00 00	 push	 OFFSET ?SERVER_CONN_STATE_LOG@@3VCLogToFile@@A ; SERVER_CONN_STATE_LOG
  00331	e8 00 00 00 00	 call	 ?Output@CLogToFile@@QAAXPADZZ ; CLogToFile::Output
  00336	83 c4 1c	 add	 esp, 28			; 0000001cH
$LN10@PaintAllIn:

; 307  : 			m_bValidFSConnection,
; 308  : 			m_bValidDSConnection,
; 309  : 			m_bValidEXDSConnection,
; 310  : 			m_bValidEVDSConnection,
; 311  : 			m_bValidRKDSConnection
; 312  : 		);
; 313  : 	}
; 314  : 
; 315  : 	
; 316  : 	// 4. > 서버 종류 표시
; 317  : 	HFONT pOldFont = (HFONT)SelectObject( hDC, m_hFont );

  00339	8b 45 f8	 mov	 eax, DWORD PTR _this$[ebp]
  0033c	8b 48 1c	 mov	 ecx, DWORD PTR [eax+28]
  0033f	51		 push	 ecx
  00340	8b 55 f4	 mov	 edx, DWORD PTR _hDC$[ebp]
  00343	52		 push	 edx
  00344	ff 15 00 00 00
	00		 call	 DWORD PTR __imp__SelectObject@8
  0034a	89 45 d8	 mov	 DWORD PTR _pOldFont$[ebp], eax

; 318  : 	SetTextColor( hDC, RGB(250,250,250) );

  0034d	68 fa fa fa 00	 push	 16448250		; 00fafafaH
  00352	8b 45 f4	 mov	 eax, DWORD PTR _hDC$[ebp]
  00355	50		 push	 eax
  00356	ff 15 00 00 00
	00		 call	 DWORD PTR __imp__SetTextColor@8

; 319  : 	
; 320  : 	TextOut( hDC, 250, 20,	ServerTypeText, strlen(ServerTypeText) );	

  0035c	a1 00 00 00 00	 mov	 eax, DWORD PTR ?ServerTypeText@@3PADA
  00361	50		 push	 eax
  00362	e8 00 00 00 00	 call	 _strlen
  00367	83 c4 04	 add	 esp, 4
  0036a	50		 push	 eax
  0036b	8b 0d 00 00 00
	00		 mov	 ecx, DWORD PTR ?ServerTypeText@@3PADA
  00371	51		 push	 ecx
  00372	6a 14		 push	 20			; 00000014H
  00374	68 fa 00 00 00	 push	 250			; 000000faH
  00379	8b 55 f4	 mov	 edx, DWORD PTR _hDC$[ebp]
  0037c	52		 push	 edx
  0037d	ff 15 00 00 00
	00		 call	 DWORD PTR __imp__TextOutA@20

; 321  : 	
; 322  : 	SelectObject( hDC, pOldFont );

  00383	8b 45 d8	 mov	 eax, DWORD PTR _pOldFont$[ebp]
  00386	50		 push	 eax
  00387	8b 4d f4	 mov	 ecx, DWORD PTR _hDC$[ebp]
  0038a	51		 push	 ecx
  0038b	ff 15 00 00 00
	00		 call	 DWORD PTR __imp__SelectObject@8

; 323  : 
; 324  : 	
; 325  : 	SetBkMode( hDC, iOldBkMode );

  00391	8b 45 dc	 mov	 eax, DWORD PTR _iOldBkMode$[ebp]
  00394	50		 push	 eax
  00395	8b 4d f4	 mov	 ecx, DWORD PTR _hDC$[ebp]
  00398	51		 push	 ecx
  00399	ff 15 00 00 00
	00		 call	 DWORD PTR __imp__SetBkMode@8

; 326  : 	ReleaseDC(hWnd, hDC);

  0039f	8b 45 f4	 mov	 eax, DWORD PTR _hDC$[ebp]
  003a2	50		 push	 eax
  003a3	8b 4d 08	 mov	 ecx, DWORD PTR _hWnd$[ebp]
  003a6	51		 push	 ecx
  003a7	ff 15 00 00 00
	00		 call	 DWORD PTR __imp__ReleaseDC@8

; 327  : }

  003ad	5f		 pop	 edi
  003ae	5e		 pop	 esi
  003af	5b		 pop	 ebx
  003b0	8b 4d fc	 mov	 ecx, DWORD PTR __$ArrayPad$[ebp]
  003b3	33 cd		 xor	 ecx, ebp
  003b5	e8 00 00 00 00	 call	 @__security_check_cookie@4
  003ba	8b e5		 mov	 esp, ebp
  003bc	5d		 pop	 ebp
  003bd	c2 0c 00	 ret	 12			; 0000000cH
?PaintAllInfo@TServerInfoDisplayer@@QAEXPAUHWND__@@HH@Z ENDP ; TServerInfoDisplayer::PaintAllInfo
_TEXT	ENDS
; Function compile flags: /Odtp /ZI
; File C:\Mu Online\Mu-GS-Webzen-MC-10093\GameServer\TServerInfoDisplayer.cpp
;	COMDAT ?DelGDIObject@TServerInfoDisplayer@@QAEXXZ
_TEXT	SEGMENT
_this$ = -4						; size = 4
?DelGDIObject@TServerInfoDisplayer@@QAEXXZ PROC		; TServerInfoDisplayer::DelGDIObject, COMDAT
; _this$ = ecx

; 98   : {

  00000	55		 push	 ebp
  00001	8b ec		 mov	 ebp, esp
  00003	83 ec 44	 sub	 esp, 68			; 00000044H
  00006	53		 push	 ebx
  00007	56		 push	 esi
  00008	57		 push	 edi
  00009	89 4d fc	 mov	 DWORD PTR _this$[ebp], ecx

; 99   : 	DeleteObject( m_hFont			);

  0000c	8b 45 fc	 mov	 eax, DWORD PTR _this$[ebp]
  0000f	8b 48 1c	 mov	 ecx, DWORD PTR [eax+28]
  00012	51		 push	 ecx
  00013	ff 15 00 00 00
	00		 call	 DWORD PTR __imp__DeleteObject@4

; 100  : 	DeleteObject( m_hNormalBrush	);

  00019	8b 45 fc	 mov	 eax, DWORD PTR _this$[ebp]
  0001c	8b 48 20	 mov	 ecx, DWORD PTR [eax+32]
  0001f	51		 push	 ecx
  00020	ff 15 00 00 00
	00		 call	 DWORD PTR __imp__DeleteObject@4

; 101  : 	DeleteObject( m_hAbnormalBrush	);

  00026	8b 45 fc	 mov	 eax, DWORD PTR _this$[ebp]
  00029	8b 48 24	 mov	 ecx, DWORD PTR [eax+36]
  0002c	51		 push	 ecx
  0002d	ff 15 00 00 00
	00		 call	 DWORD PTR __imp__DeleteObject@4

; 102  : }

  00033	5f		 pop	 edi
  00034	5e		 pop	 esi
  00035	5b		 pop	 ebx
  00036	8b e5		 mov	 esp, ebp
  00038	5d		 pop	 ebp
  00039	c3		 ret	 0
?DelGDIObject@TServerInfoDisplayer@@QAEXXZ ENDP		; TServerInfoDisplayer::DelGDIObject
_TEXT	ENDS
; Function compile flags: /Odtp /ZI
; File C:\Mu Online\Mu-GS-Webzen-MC-10093\GameServer\TServerInfoDisplayer.cpp
;	COMDAT ?InitGDIObject@TServerInfoDisplayer@@QAEXXZ
_TEXT	SEGMENT
_this$ = -4						; size = 4
?InitGDIObject@TServerInfoDisplayer@@QAEXXZ PROC	; TServerInfoDisplayer::InitGDIObject, COMDAT
; _this$ = ecx

; 90   : {

  00000	55		 push	 ebp
  00001	8b ec		 mov	 ebp, esp
  00003	83 ec 44	 sub	 esp, 68			; 00000044H
  00006	53		 push	 ebx
  00007	56		 push	 esi
  00008	57		 push	 edi
  00009	89 4d fc	 mov	 DWORD PTR _this$[ebp], ecx

; 91   : 	m_hFont				= CreateFont( 80, 0, 0, 0, 100, 0, 1, 0, 0, 0, 0, 0, 0, "Times");

  0000c	68 00 00 00 00	 push	 OFFSET ??_C@_05MOECANKB@Times@
  00011	6a 00		 push	 0
  00013	6a 00		 push	 0
  00015	6a 00		 push	 0
  00017	6a 00		 push	 0
  00019	6a 00		 push	 0
  0001b	6a 00		 push	 0
  0001d	6a 01		 push	 1
  0001f	6a 00		 push	 0
  00021	6a 64		 push	 100			; 00000064H
  00023	6a 00		 push	 0
  00025	6a 00		 push	 0
  00027	6a 00		 push	 0
  00029	6a 50		 push	 80			; 00000050H
  0002b	ff 15 00 00 00
	00		 call	 DWORD PTR __imp__CreateFontA@56
  00031	8b 4d fc	 mov	 ecx, DWORD PTR _this$[ebp]
  00034	89 41 1c	 mov	 DWORD PTR [ecx+28], eax

; 92   : 
; 93   : 	m_hNormalBrush		= CreateSolidBrush( RGB(110,240,120) );

  00037	68 6e f0 78 00	 push	 7925870			; 0078f06eH
  0003c	ff 15 00 00 00
	00		 call	 DWORD PTR __imp__CreateSolidBrush@4
  00042	8b 4d fc	 mov	 ecx, DWORD PTR _this$[ebp]
  00045	89 41 20	 mov	 DWORD PTR [ecx+32], eax

; 94   : 	m_hAbnormalBrush	= CreateSolidBrush( RGB(250,110,110) );

  00048	68 fa 6e 6e 00	 push	 7237370			; 006e6efaH
  0004d	ff 15 00 00 00
	00		 call	 DWORD PTR __imp__CreateSolidBrush@4
  00053	8b 4d fc	 mov	 ecx, DWORD PTR _this$[ebp]
  00056	89 41 24	 mov	 DWORD PTR [ecx+36], eax

; 95   : }

  00059	5f		 pop	 edi
  0005a	5e		 pop	 esi
  0005b	5b		 pop	 ebx
  0005c	8b e5		 mov	 esp, ebp
  0005e	5d		 pop	 ebp
  0005f	c3		 ret	 0
?InitGDIObject@TServerInfoDisplayer@@QAEXXZ ENDP	; TServerInfoDisplayer::InitGDIObject
_TEXT	ENDS
; Function compile flags: /Odtp /ZI
; File C:\Mu Online\Mu-GS-Webzen-MC-10093\GameServer\TServerInfoDisplayer.cpp
;	COMDAT ?CheckRKDSConnection@TServerInfoDisplayer@@QAEXXZ
_TEXT	SEGMENT
_this$ = -4						; size = 4
?CheckRKDSConnection@TServerInfoDisplayer@@QAEXXZ PROC	; TServerInfoDisplayer::CheckRKDSConnection, COMDAT
; _this$ = ecx

; 189  : {

  00000	55		 push	 ebp
  00001	8b ec		 mov	 ebp, esp
  00003	83 ec 44	 sub	 esp, 68			; 00000044H
  00006	53		 push	 ebx
  00007	56		 push	 esi
  00008	57		 push	 edi
  00009	89 4d fc	 mov	 DWORD PTR _this$[ebp], ecx

; 190  : 	if( IsDevilSquareEventConnected == 0 ) 

  0000c	83 3d 00 00 00
	00 00		 cmp	 DWORD PTR ?IsDevilSquareEventConnected@@3HA, 0 ; IsDevilSquareEventConnected
  00013	75 0c		 jne	 SHORT $LN2@CheckRKDSC

; 191  : 	{
; 192  : 		m_bValidRKDSConnection = FALSE;

  00015	8b 45 fc	 mov	 eax, DWORD PTR _this$[ebp]
  00018	c7 40 18 00 00
	00 00		 mov	 DWORD PTR [eax+24], 0

; 193  : 	}

  0001f	eb 0a		 jmp	 SHORT $LN1@CheckRKDSC
$LN2@CheckRKDSC:

; 194  : 	else
; 195  : 	{
; 196  : 		m_bValidRKDSConnection = TRUE;

  00021	8b 45 fc	 mov	 eax, DWORD PTR _this$[ebp]
  00024	c7 40 18 01 00
	00 00		 mov	 DWORD PTR [eax+24], 1
$LN1@CheckRKDSC:

; 197  : 	}
; 198  : }

  0002b	5f		 pop	 edi
  0002c	5e		 pop	 esi
  0002d	5b		 pop	 ebx
  0002e	8b e5		 mov	 esp, ebp
  00030	5d		 pop	 ebp
  00031	c3		 ret	 0
?CheckRKDSConnection@TServerInfoDisplayer@@QAEXXZ ENDP	; TServerInfoDisplayer::CheckRKDSConnection
_TEXT	ENDS
; Function compile flags: /Odtp /ZI
; File C:\Mu Online\Mu-GS-Webzen-MC-10093\GameServer\TServerInfoDisplayer.cpp
;	COMDAT ?CheckEVDSConnection@TServerInfoDisplayer@@QAEXXZ
_TEXT	SEGMENT
_this$ = -4						; size = 4
?CheckEVDSConnection@TServerInfoDisplayer@@QAEXXZ PROC	; TServerInfoDisplayer::CheckEVDSConnection, COMDAT
; _this$ = ecx

; 177  : {

  00000	55		 push	 ebp
  00001	8b ec		 mov	 ebp, esp
  00003	83 ec 44	 sub	 esp, 68			; 00000044H
  00006	53		 push	 ebx
  00007	56		 push	 esi
  00008	57		 push	 edi
  00009	89 4d fc	 mov	 DWORD PTR _this$[ebp], ecx

; 178  : 	if( IsEventChipServerConnected == 0 ) 

  0000c	83 3d 00 00 00
	00 00		 cmp	 DWORD PTR ?IsEventChipServerConnected@@3HA, 0 ; IsEventChipServerConnected
  00013	75 0c		 jne	 SHORT $LN2@CheckEVDSC

; 179  : 	{
; 180  : 		m_bValidEVDSConnection = FALSE;

  00015	8b 45 fc	 mov	 eax, DWORD PTR _this$[ebp]
  00018	c7 40 14 00 00
	00 00		 mov	 DWORD PTR [eax+20], 0

; 181  : 	}

  0001f	eb 0a		 jmp	 SHORT $LN1@CheckEVDSC
$LN2@CheckEVDSC:

; 182  : 	else
; 183  : 	{
; 184  : 		m_bValidEVDSConnection = TRUE;

  00021	8b 45 fc	 mov	 eax, DWORD PTR _this$[ebp]
  00024	c7 40 14 01 00
	00 00		 mov	 DWORD PTR [eax+20], 1
$LN1@CheckEVDSC:

; 185  : 	}
; 186  : }

  0002b	5f		 pop	 edi
  0002c	5e		 pop	 esi
  0002d	5b		 pop	 ebx
  0002e	8b e5		 mov	 esp, ebp
  00030	5d		 pop	 ebp
  00031	c3		 ret	 0
?CheckEVDSConnection@TServerInfoDisplayer@@QAEXXZ ENDP	; TServerInfoDisplayer::CheckEVDSConnection
_TEXT	ENDS
; Function compile flags: /Odtp /ZI
; File C:\Mu Online\Mu-GS-Webzen-MC-10093\GameServer\TServerInfoDisplayer.cpp
;	COMDAT ?CheckEXDSConnection@TServerInfoDisplayer@@QAEXXZ
_TEXT	SEGMENT
_this$ = -4						; size = 4
?CheckEXDSConnection@TServerInfoDisplayer@@QAEXXZ PROC	; TServerInfoDisplayer::CheckEXDSConnection, COMDAT
; _this$ = ecx

; 164  : {

  00000	55		 push	 ebp
  00001	8b ec		 mov	 ebp, esp
  00003	83 ec 44	 sub	 esp, 68			; 00000044H
  00006	53		 push	 ebx
  00007	56		 push	 esi
  00008	57		 push	 edi
  00009	89 4d fc	 mov	 DWORD PTR _this$[ebp], ecx

; 165  : 	if( wsExDbCli.GetSocket() == INVALID_SOCKET ) 

  0000c	b9 04 00 00 00	 mov	 ecx, OFFSET ?wsExDbCli@@3VwsJoinServerCli@@A+4
  00011	e8 00 00 00 00	 call	 ?GetSocket@MyWinsockBase@@QAEIXZ ; MyWinsockBase::GetSocket
  00016	83 f8 ff	 cmp	 eax, -1
  00019	75 0c		 jne	 SHORT $LN2@CheckEXDSC

; 166  : 	{
; 167  : 		m_bValidEXDSConnection = FALSE;

  0001b	8b 45 fc	 mov	 eax, DWORD PTR _this$[ebp]
  0001e	c7 40 10 00 00
	00 00		 mov	 DWORD PTR [eax+16], 0

; 168  : 	}

  00025	eb 0a		 jmp	 SHORT $LN1@CheckEXDSC
$LN2@CheckEXDSC:

; 169  : 	else
; 170  : 	{
; 171  : 		m_bValidEXDSConnection = TRUE;

  00027	8b 45 fc	 mov	 eax, DWORD PTR _this$[ebp]
  0002a	c7 40 10 01 00
	00 00		 mov	 DWORD PTR [eax+16], 1
$LN1@CheckEXDSC:

; 172  : 	}
; 173  : }

  00031	5f		 pop	 edi
  00032	5e		 pop	 esi
  00033	5b		 pop	 ebx
  00034	8b e5		 mov	 esp, ebp
  00036	5d		 pop	 ebp
  00037	c3		 ret	 0
?CheckEXDSConnection@TServerInfoDisplayer@@QAEXXZ ENDP	; TServerInfoDisplayer::CheckEXDSConnection
_TEXT	ENDS
; Function compile flags: /Odtp /ZI
; File C:\Mu Online\Mu-GS-Webzen-MC-10093\GameServer\TServerInfoDisplayer.cpp
;	COMDAT ?CheckDSConnection@TServerInfoDisplayer@@QAEXXZ
_TEXT	SEGMENT
_this$ = -4						; size = 4
?CheckDSConnection@TServerInfoDisplayer@@QAEXXZ PROC	; TServerInfoDisplayer::CheckDSConnection, COMDAT
; _this$ = ecx

; 146  : {

  00000	55		 push	 ebp
  00001	8b ec		 mov	 ebp, esp
  00003	83 ec 44	 sub	 esp, 68			; 00000044H
  00006	53		 push	 ebx
  00007	56		 push	 esi
  00008	57		 push	 edi
  00009	89 4d fc	 mov	 DWORD PTR _this$[ebp], ecx

; 147  : 	if( cDBSMng.wsCDBS[0].GetSocket() == INVALID_SOCKET )

  0000c	b8 28 00 19 00	 mov	 eax, 1638440		; 00190028H
  00011	6b c8 00	 imul	 ecx, eax, 0
  00014	81 c1 08 00 00
	00		 add	 ecx, OFFSET ?cDBSMng@@3VDBSockMng@@A+8
  0001a	e8 00 00 00 00	 call	 ?GetSocket@MyWinsockBase@@QAEIXZ ; MyWinsockBase::GetSocket
  0001f	83 f8 ff	 cmp	 eax, -1
  00022	75 0c		 jne	 SHORT $LN2@CheckDSCon

; 148  : 	{
; 149  : 		m_bValidDSConnection = FALSE;

  00024	8b 45 fc	 mov	 eax, DWORD PTR _this$[ebp]
  00027	c7 40 0c 00 00
	00 00		 mov	 DWORD PTR [eax+12], 0

; 150  : 	}

  0002e	eb 0a		 jmp	 SHORT $LN1@CheckDSCon
$LN2@CheckDSCon:

; 151  : 	else
; 152  : 	{
; 153  : 		m_bValidDSConnection = TRUE;

  00030	8b 45 fc	 mov	 eax, DWORD PTR _this$[ebp]
  00033	c7 40 0c 01 00
	00 00		 mov	 DWORD PTR [eax+12], 1
$LN1@CheckDSCon:

; 154  : 	}
; 155  : }

  0003a	5f		 pop	 edi
  0003b	5e		 pop	 esi
  0003c	5b		 pop	 ebx
  0003d	8b e5		 mov	 esp, ebp
  0003f	5d		 pop	 ebp
  00040	c3		 ret	 0
?CheckDSConnection@TServerInfoDisplayer@@QAEXXZ ENDP	; TServerInfoDisplayer::CheckDSConnection
_TEXT	ENDS
; Function compile flags: /Odtp /ZI
; File C:\Mu Online\Mu-GS-Webzen-MC-10093\GameServer\TServerInfoDisplayer.cpp
;	COMDAT ?CheckFSConnection@TServerInfoDisplayer@@QAEXXZ
_TEXT	SEGMENT
_this$ = -4						; size = 4
?CheckFSConnection@TServerInfoDisplayer@@QAEXXZ PROC	; TServerInfoDisplayer::CheckFSConnection, COMDAT
; _this$ = ecx

; 158  : {

  00000	55		 push	 ebp
  00001	8b ec		 mov	 ebp, esp
  00003	83 ec 44	 sub	 esp, 68			; 00000044H
  00006	53		 push	 ebx
  00007	56		 push	 esi
  00008	57		 push	 edi
  00009	89 4d fc	 mov	 DWORD PTR _this$[ebp], ecx

; 159  : 	m_bValidFSConnection = TRUE;

  0000c	8b 45 fc	 mov	 eax, DWORD PTR _this$[ebp]
  0000f	c7 40 08 01 00
	00 00		 mov	 DWORD PTR [eax+8], 1

; 160  : }

  00016	5f		 pop	 edi
  00017	5e		 pop	 esi
  00018	5b		 pop	 ebx
  00019	8b e5		 mov	 esp, ebp
  0001b	5d		 pop	 ebp
  0001c	c3		 ret	 0
?CheckFSConnection@TServerInfoDisplayer@@QAEXXZ ENDP	; TServerInfoDisplayer::CheckFSConnection
_TEXT	ENDS
; Function compile flags: /Odtp /ZI
; File C:\Mu Online\Mu-GS-Webzen-MC-10093\GameServer\TServerInfoDisplayer.cpp
;	COMDAT ?CheckJSConnection@TServerInfoDisplayer@@QAEXXZ
_TEXT	SEGMENT
_this$ = -4						; size = 4
?CheckJSConnection@TServerInfoDisplayer@@QAEXXZ PROC	; TServerInfoDisplayer::CheckJSConnection, COMDAT
; _this$ = ecx

; 134  : {

  00000	55		 push	 ebp
  00001	8b ec		 mov	 ebp, esp
  00003	83 ec 44	 sub	 esp, 68			; 00000044H
  00006	53		 push	 ebx
  00007	56		 push	 esi
  00008	57		 push	 edi
  00009	89 4d fc	 mov	 DWORD PTR _this$[ebp], ecx

; 135  : 	if( wsJServerCli.GetSocket() == INVALID_SOCKET )

  0000c	b9 04 00 00 00	 mov	 ecx, OFFSET ?wsJServerCli@@3VwsJoinServerCli@@A+4
  00011	e8 00 00 00 00	 call	 ?GetSocket@MyWinsockBase@@QAEIXZ ; MyWinsockBase::GetSocket
  00016	83 f8 ff	 cmp	 eax, -1
  00019	75 0c		 jne	 SHORT $LN2@CheckJSCon

; 136  : 	{
; 137  : 		m_bValidJSConnection = FALSE;

  0001b	8b 45 fc	 mov	 eax, DWORD PTR _this$[ebp]
  0001e	c7 40 04 00 00
	00 00		 mov	 DWORD PTR [eax+4], 0

; 138  : 	}

  00025	eb 0a		 jmp	 SHORT $LN1@CheckJSCon
$LN2@CheckJSCon:

; 139  : 	else
; 140  : 	{
; 141  : 		m_bValidJSConnection = TRUE;

  00027	8b 45 fc	 mov	 eax, DWORD PTR _this$[ebp]
  0002a	c7 40 04 01 00
	00 00		 mov	 DWORD PTR [eax+4], 1
$LN1@CheckJSCon:

; 142  : 	}
; 143  : }

  00031	5f		 pop	 edi
  00032	5e		 pop	 esi
  00033	5b		 pop	 ebx
  00034	8b e5		 mov	 esp, ebp
  00036	5d		 pop	 ebp
  00037	c3		 ret	 0
?CheckJSConnection@TServerInfoDisplayer@@QAEXXZ ENDP	; TServerInfoDisplayer::CheckJSConnection
_TEXT	ENDS
; Function compile flags: /Odtp /ZI
; File C:\Mu Online\Mu-GS-Webzen-MC-10093\GameServer\TServerInfoDisplayer.cpp
;	COMDAT ?CheckLogFileSize@TServerInfoDisplayer@@QAEXXZ
_TEXT	SEGMENT
_this$ = -4						; size = 4
?CheckLogFileSize@TServerInfoDisplayer@@QAEXXZ PROC	; TServerInfoDisplayer::CheckLogFileSize, COMDAT
; _this$ = ecx

; 124  : {

  00000	55		 push	 ebp
  00001	8b ec		 mov	 ebp, esp
  00003	83 ec 44	 sub	 esp, 68			; 00000044H
  00006	53		 push	 ebx
  00007	56		 push	 esi
  00008	57		 push	 edi
  00009	89 4d fc	 mov	 DWORD PTR _this$[ebp], ecx

; 125  : 
; 126  : }

  0000c	5f		 pop	 edi
  0000d	5e		 pop	 esi
  0000e	5b		 pop	 ebx
  0000f	8b e5		 mov	 esp, ebp
  00011	5d		 pop	 ebp
  00012	c3		 ret	 0
?CheckLogFileSize@TServerInfoDisplayer@@QAEXXZ ENDP	; TServerInfoDisplayer::CheckLogFileSize
_TEXT	ENDS
; Function compile flags: /Odtp /ZI
; File C:\Mu Online\Mu-GS-Webzen-MC-10093\GameServer\TServerInfoDisplayer.cpp
;	COMDAT ?Run@TServerInfoDisplayer@@QAEXPAUHWND__@@@Z
_TEXT	SEGMENT
_this$ = -4						; size = 4
_hWnd$ = 8						; size = 4
?Run@TServerInfoDisplayer@@QAEXPAUHWND__@@@Z PROC	; TServerInfoDisplayer::Run, COMDAT
; _this$ = ecx

; 106  : {

  00000	55		 push	 ebp
  00001	8b ec		 mov	 ebp, esp
  00003	83 ec 44	 sub	 esp, 68			; 00000044H
  00006	53		 push	 ebx
  00007	56		 push	 esi
  00008	57		 push	 edi
  00009	89 4d fc	 mov	 DWORD PTR _this$[ebp], ecx

; 107  : 	CheckDSConnection();

  0000c	8b 4d fc	 mov	 ecx, DWORD PTR _this$[ebp]
  0000f	e8 00 00 00 00	 call	 ?CheckDSConnection@TServerInfoDisplayer@@QAEXXZ ; TServerInfoDisplayer::CheckDSConnection

; 108  : 	CheckJSConnection();

  00014	8b 4d fc	 mov	 ecx, DWORD PTR _this$[ebp]
  00017	e8 00 00 00 00	 call	 ?CheckJSConnection@TServerInfoDisplayer@@QAEXXZ ; TServerInfoDisplayer::CheckJSConnection

; 109  : 	CheckFSConnection();

  0001c	8b 4d fc	 mov	 ecx, DWORD PTR _this$[ebp]
  0001f	e8 00 00 00 00	 call	 ?CheckFSConnection@TServerInfoDisplayer@@QAEXXZ ; TServerInfoDisplayer::CheckFSConnection

; 110  : #ifdef _NEW_EXDB_
; 111  : 	CheckEXDSConnection();

  00024	8b 4d fc	 mov	 ecx, DWORD PTR _this$[ebp]
  00027	e8 00 00 00 00	 call	 ?CheckEXDSConnection@TServerInfoDisplayer@@QAEXXZ ; TServerInfoDisplayer::CheckEXDSConnection

; 112  : #endif
; 113  : 	CheckEVDSConnection();

  0002c	8b 4d fc	 mov	 ecx, DWORD PTR _this$[ebp]
  0002f	e8 00 00 00 00	 call	 ?CheckEVDSConnection@TServerInfoDisplayer@@QAEXXZ ; TServerInfoDisplayer::CheckEVDSConnection

; 114  : 	CheckRKDSConnection();

  00034	8b 4d fc	 mov	 ecx, DWORD PTR _this$[ebp]
  00037	e8 00 00 00 00	 call	 ?CheckRKDSConnection@TServerInfoDisplayer@@QAEXXZ ; TServerInfoDisplayer::CheckRKDSConnection

; 115  : 	
; 116  : 	CheckLogFileSize();

  0003c	8b 4d fc	 mov	 ecx, DWORD PTR _this$[ebp]
  0003f	e8 00 00 00 00	 call	 ?CheckLogFileSize@TServerInfoDisplayer@@QAEXXZ ; TServerInfoDisplayer::CheckLogFileSize

; 117  : 
; 118  : 	PaintAllInfo( hWnd );

  00044	6a 14		 push	 20			; 00000014H
  00046	6a 00		 push	 0
  00048	8b 45 08	 mov	 eax, DWORD PTR _hWnd$[ebp]
  0004b	50		 push	 eax
  0004c	8b 4d fc	 mov	 ecx, DWORD PTR _this$[ebp]
  0004f	e8 00 00 00 00	 call	 ?PaintAllInfo@TServerInfoDisplayer@@QAEXPAUHWND__@@HH@Z ; TServerInfoDisplayer::PaintAllInfo

; 119  : }

  00054	5f		 pop	 edi
  00055	5e		 pop	 esi
  00056	5b		 pop	 ebx
  00057	8b e5		 mov	 esp, ebp
  00059	5d		 pop	 ebp
  0005a	c2 04 00	 ret	 4
?Run@TServerInfoDisplayer@@QAEXPAUHWND__@@@Z ENDP	; TServerInfoDisplayer::Run
_TEXT	ENDS
; Function compile flags: /Odtp /ZI
; File C:\Mu Online\Mu-GS-Webzen-MC-10093\GameServer\TServerInfoDisplayer.cpp
;	COMDAT ??1TServerInfoDisplayer@@UAE@XZ
_TEXT	SEGMENT
_this$ = -16						; size = 4
__$EHRec$ = -12						; size = 12
??1TServerInfoDisplayer@@UAE@XZ PROC			; TServerInfoDisplayer::~TServerInfoDisplayer, COMDAT
; _this$ = ecx

; 85   : {

  00000	55		 push	 ebp
  00001	8b ec		 mov	 ebp, esp
  00003	6a ff		 push	 -1
  00005	68 00 00 00 00	 push	 __ehhandler$??1TServerInfoDisplayer@@UAE@XZ
  0000a	64 a1 00 00 00
	00		 mov	 eax, DWORD PTR fs:0
  00010	50		 push	 eax
  00011	83 ec 44	 sub	 esp, 68			; 00000044H
  00014	53		 push	 ebx
  00015	56		 push	 esi
  00016	57		 push	 edi
  00017	a1 00 00 00 00	 mov	 eax, DWORD PTR ___security_cookie
  0001c	33 c5		 xor	 eax, ebp
  0001e	50		 push	 eax
  0001f	8d 45 f4	 lea	 eax, DWORD PTR __$EHRec$[ebp]
  00022	64 a3 00 00 00
	00		 mov	 DWORD PTR fs:0, eax
  00028	89 4d f0	 mov	 DWORD PTR _this$[ebp], ecx
  0002b	8b 45 f0	 mov	 eax, DWORD PTR _this$[ebp]
  0002e	c7 00 00 00 00
	00		 mov	 DWORD PTR [eax], OFFSET ??_7TServerInfoDisplayer@@6B@

; 86   : 	DelGDIObject();

  00034	8b 4d f0	 mov	 ecx, DWORD PTR _this$[ebp]
  00037	e8 00 00 00 00	 call	 ?DelGDIObject@TServerInfoDisplayer@@QAEXXZ ; TServerInfoDisplayer::DelGDIObject

; 87   : }

  0003c	8b 4d f4	 mov	 ecx, DWORD PTR __$EHRec$[ebp]
  0003f	64 89 0d 00 00
	00 00		 mov	 DWORD PTR fs:0, ecx
  00046	59		 pop	 ecx
  00047	5f		 pop	 edi
  00048	5e		 pop	 esi
  00049	5b		 pop	 ebx
  0004a	8b e5		 mov	 esp, ebp
  0004c	5d		 pop	 ebp
  0004d	c3		 ret	 0
  0004e	cc		 int	 3
  0004f	cc		 int	 3
  00050	cc		 int	 3
  00051	cc		 int	 3
  00052	cc		 int	 3
_TEXT	ENDS
;	COMDAT text$x
text$x	SEGMENT
__ehhandler$??1TServerInfoDisplayer@@UAE@XZ:
  00000	90		 npad	 1
  00001	90		 npad	 1
  00002	8b 54 24 08	 mov	 edx, DWORD PTR [esp+8]
  00006	8d 42 0c	 lea	 eax, DWORD PTR [edx+12]
  00009	8b 4a ac	 mov	 ecx, DWORD PTR [edx-84]
  0000c	33 c8		 xor	 ecx, eax
  0000e	e8 00 00 00 00	 call	 @__security_check_cookie@4
  00013	b8 00 00 00 00	 mov	 eax, OFFSET __ehfuncinfo$??1TServerInfoDisplayer@@UAE@XZ
  00018	e9 00 00 00 00	 jmp	 ___CxxFrameHandler3
text$x	ENDS
??1TServerInfoDisplayer@@UAE@XZ ENDP			; TServerInfoDisplayer::~TServerInfoDisplayer
; Function compile flags: /Odtp /ZI
; File C:\Mu Online\Mu-GS-Webzen-MC-10093\GameServer\TServerInfoDisplayer.cpp
;	COMDAT ??0TServerInfoDisplayer@@QAE@XZ
_TEXT	SEGMENT
_this$ = -4						; size = 4
??0TServerInfoDisplayer@@QAE@XZ PROC			; TServerInfoDisplayer::TServerInfoDisplayer, COMDAT
; _this$ = ecx

; 73   : {

  00000	55		 push	 ebp
  00001	8b ec		 mov	 ebp, esp
  00003	83 ec 44	 sub	 esp, 68			; 00000044H
  00006	53		 push	 ebx
  00007	56		 push	 esi
  00008	57		 push	 edi
  00009	89 4d fc	 mov	 DWORD PTR _this$[ebp], ecx
  0000c	8b 45 fc	 mov	 eax, DWORD PTR _this$[ebp]
  0000f	c7 00 00 00 00
	00		 mov	 DWORD PTR [eax], OFFSET ??_7TServerInfoDisplayer@@6B@

; 74   : 	m_bValidJSConnection	= FALSE;

  00015	8b 45 fc	 mov	 eax, DWORD PTR _this$[ebp]
  00018	c7 40 04 00 00
	00 00		 mov	 DWORD PTR [eax+4], 0

; 75   : 	m_bValidFSConnection	= FALSE;

  0001f	8b 45 fc	 mov	 eax, DWORD PTR _this$[ebp]
  00022	c7 40 08 00 00
	00 00		 mov	 DWORD PTR [eax+8], 0

; 76   : 	m_bValidDSConnection	= FALSE;

  00029	8b 45 fc	 mov	 eax, DWORD PTR _this$[ebp]
  0002c	c7 40 0c 00 00
	00 00		 mov	 DWORD PTR [eax+12], 0

; 77   : 	m_bValidEXDSConnection	= FALSE;

  00033	8b 45 fc	 mov	 eax, DWORD PTR _this$[ebp]
  00036	c7 40 10 00 00
	00 00		 mov	 DWORD PTR [eax+16], 0

; 78   : 	m_bValidEVDSConnection	= FALSE;

  0003d	8b 45 fc	 mov	 eax, DWORD PTR _this$[ebp]
  00040	c7 40 14 00 00
	00 00		 mov	 DWORD PTR [eax+20], 0

; 79   : 	m_bValidRKDSConnection	= FALSE;

  00047	8b 45 fc	 mov	 eax, DWORD PTR _this$[ebp]
  0004a	c7 40 18 00 00
	00 00		 mov	 DWORD PTR [eax+24], 0

; 80   : 
; 81   : 	InitGDIObject();

  00051	8b 4d fc	 mov	 ecx, DWORD PTR _this$[ebp]
  00054	e8 00 00 00 00	 call	 ?InitGDIObject@TServerInfoDisplayer@@QAEXXZ ; TServerInfoDisplayer::InitGDIObject

; 82   : }

  00059	8b 45 fc	 mov	 eax, DWORD PTR _this$[ebp]
  0005c	5f		 pop	 edi
  0005d	5e		 pop	 esi
  0005e	5b		 pop	 ebx
  0005f	8b e5		 mov	 esp, ebp
  00061	5d		 pop	 ebp
  00062	c3		 ret	 0
??0TServerInfoDisplayer@@QAE@XZ ENDP			; TServerInfoDisplayer::TServerInfoDisplayer
_TEXT	ENDS
; Function compile flags: /Odtp /ZI
; File C:\Mu Online\Mu-GS-Webzen-MC-10093\GameServer\TServerInfoDisplayer.cpp
;	COMDAT ?__empty_global_delete@@YAXPAXI@Z
_TEXT	SEGMENT
___formal$ = 8						; size = 4
___formal$ = 12						; size = 4
?__empty_global_delete@@YAXPAXI@Z PROC			; __empty_global_delete, COMDAT

  00000	55		 push	 ebp
  00001	8b ec		 mov	 ebp, esp
  00003	83 ec 40	 sub	 esp, 64			; 00000040H
  00006	53		 push	 ebx
  00007	56		 push	 esi
  00008	57		 push	 edi
  00009	5f		 pop	 edi
  0000a	5e		 pop	 esi
  0000b	5b		 pop	 ebx
  0000c	8b e5		 mov	 esp, ebp
  0000e	5d		 pop	 ebp
  0000f	c3		 ret	 0
?__empty_global_delete@@YAXPAXI@Z ENDP			; __empty_global_delete
_TEXT	ENDS
; Function compile flags: /Odtp /ZI
; File C:\Mu Online\Mu-GS-Webzen-MC-10093\GameServer\TServerInfoDisplayer.cpp
;	COMDAT ?__empty_global_delete@@YAXPAX@Z
_TEXT	SEGMENT
___formal$ = 8						; size = 4
?__empty_global_delete@@YAXPAX@Z PROC			; __empty_global_delete, COMDAT

  00000	55		 push	 ebp
  00001	8b ec		 mov	 ebp, esp
  00003	83 ec 40	 sub	 esp, 64			; 00000040H
  00006	53		 push	 ebx
  00007	56		 push	 esi
  00008	57		 push	 edi
  00009	5f		 pop	 edi
  0000a	5e		 pop	 esi
  0000b	5b		 pop	 ebx
  0000c	8b e5		 mov	 esp, ebp
  0000e	5d		 pop	 ebp
  0000f	c3		 ret	 0
?__empty_global_delete@@YAXPAX@Z ENDP			; __empty_global_delete
_TEXT	ENDS
END
