; Listing generated by Microsoft (R) Optimizing Compiler Version 19.27.29111.0 

	TITLE	C:\Mu Online\Mu-GS-Webzen-MC-10093\GameServer\user.cpp
	.686P
	.XMM
	include listing.inc
	.model	flat

INCLUDELIB LIBCMT
INCLUDELIB OLDNAMES

PUBLIC	?gSMMsg@@3PAY09UMessageStateMachine@@A		; gSMMsg
PUBLIC	?gSMAttackProcMsg@@3PAY0DC@UExMessageStateMachine@@A ; gSMAttackProcMsg
PUBLIC	?gObj@@3PAVOBJECTSTRUCT@@A			; gObj
PUBLIC	?RoadPathTable@@3PAFA				; RoadPathTable
PUBLIC	?gServerMaxUser@@3HA				; gServerMaxUser
PUBLIC	?gObjTotalUser@@3HA				; gObjTotalUser
PUBLIC	?gAllocObj@@3PAVOBJECTSTRUCT@@A			; gAllocObj
PUBLIC	?gObjCount@@3HA					; gObjCount
PUBLIC	?gObjMonCount@@3HA				; gObjMonCount
PUBLIC	?gObjCallMonCount@@3HA				; gObjCallMonCount
PUBLIC	?hThread_gObjMove@@3PAXA			; hThread_gObjMove
PUBLIC	?gObjCSFlag@@3HA				; gObjCSFlag
PUBLIC	?gItemLoop@@3HA					; gItemLoop
PUBLIC	?gItemLoop2@@3HA				; gItemLoop2
PUBLIC	?gItemLoopMax@@3HA				; gItemLoopMax
PUBLIC	?gDisconnect@@3HA				; gDisconnect
PUBLIC	?aaaaaaaaa@@3HA					; aaaaaaaaa
PUBLIC	?gCurConnectUser@@3HA				; gCurConnectUser
PUBLIC	?skillSuccess@@3HA				; skillSuccess
PUBLIC	?GuildInfoBuf@@3PAEA				; GuildInfoBuf
PUBLIC	?GuildInfoOfs@@3HA				; GuildInfoOfs
PUBLIC	?GuildInfoCount@@3HA				; GuildInfoCount
PUBLIC	?GuildUserBuf@@3PAEA				; GuildUserBuf
PUBLIC	?GuildUserOfs@@3HA				; GuildUserOfs
PUBLIC	?GuildUserCount@@3HA				; GuildUserCount
PUBLIC	?SendGBufChange@@3PAEA				; SendGBufChange
PUBLIC	?lOfsChange@@3HA				; lOfsChange
PUBLIC	?ChangeCount@@3HA				; ChangeCount
PUBLIC	?pViewportCreate@@3UPMSG_VIEWPORTCREATE@@A	; pViewportCreate
PUBLIC	?pViewportCreateChange@@3UPMSG_VIEWPORTCREATE_CHANGE@@A ; pViewportCreateChange
PUBLIC	?pViewportDestroy@@3UPMSG_VIEWPORTDESTROY@@A	; pViewportDestroy
PUBLIC	?pMonsterViewportCreate@@3UPMSG_MONSTER_VIEWPORTCREATE@@A ; pMonsterViewportCreate
PUBLIC	?pCallMonsterViewportCreate@@3UPMSG_CALLMONSTER_VIEWPORTCREATE@@A ; pCallMonsterViewportCreate
PUBLIC	?pItemCount@@3UPWMSG_COUNT@@A			; pItemCount
PUBLIC	?pItemViewportCreate@@3UPMSG_ITEMVIEWPORTCREATE@@A ; pItemViewportCreate
PUBLIC	?pItemViewportDestroy@@3UPMSG_VIEWPORTDESTROY@@A ; pItemViewportDestroy
PUBLIC	?g_EnergyCheckOff@@3HA				; g_EnergyCheckOff
_BSS	SEGMENT
?gSMMsg@@3PAY09UMessageStateMachine@@A DB 0121100H DUP (?) ; gSMMsg
?gSMAttackProcMsg@@3PAY0DC@UExMessageStateMachine@@A DB 0f4240H DUP (?) ; gSMAttackProcMsg
?gObj@@3PAVOBJECTSTRUCT@@A DD 01H DUP (?)		; gObj
?gObjTotalUser@@3HA DD 01H DUP (?)			; gObjTotalUser
?gAllocObj@@3PAVOBJECTSTRUCT@@A DD 01H DUP (?)		; gAllocObj
?gObjCount@@3HA DD 01H DUP (?)				; gObjCount
?gObjMonCount@@3HA DD 01H DUP (?)			; gObjMonCount
?gObjCallMonCount@@3HA DD 01H DUP (?)			; gObjCallMonCount
?hThread_gObjMove@@3PAXA DD 01H DUP (?)			; hThread_gObjMove
?gObjCSFlag@@3HA DD 01H DUP (?)				; gObjCSFlag
?gItemLoop@@3HA DD 01H DUP (?)				; gItemLoop
?gItemLoop2@@3HA DD 01H DUP (?)				; gItemLoop2
?gItemLoopMax@@3HA DD 01H DUP (?)			; gItemLoopMax
?gDisconnect@@3HA DD 01H DUP (?)			; gDisconnect
?aaaaaaaaa@@3HA DD 01H DUP (?)				; aaaaaaaaa
?gCurConnectUser@@3HA DD 01H DUP (?)			; gCurConnectUser
?skillSuccess@@3HA DD 01H DUP (?)			; skillSuccess
?GuildInfoBuf@@3PAEA DB 02710H DUP (?)			; GuildInfoBuf
?GuildInfoOfs@@3HA DD 01H DUP (?)			; GuildInfoOfs
?GuildInfoCount@@3HA DD 01H DUP (?)			; GuildInfoCount
?GuildUserBuf@@3PAEA DB 02710H DUP (?)			; GuildUserBuf
?GuildUserOfs@@3HA DD 01H DUP (?)			; GuildUserOfs
?GuildUserCount@@3HA DD 01H DUP (?)			; GuildUserCount
?SendGBufChange@@3PAEA DB 01388H DUP (?)		; SendGBufChange
?lOfsChange@@3HA DD 01H DUP (?)				; lOfsChange
?ChangeCount@@3HA DD 01H DUP (?)			; ChangeCount
?pViewportCreate@@3UPMSG_VIEWPORTCREATE@@A DB 022H DUP (?) ; pViewportCreate
	ALIGN	4

?pViewportCreateChange@@3UPMSG_VIEWPORTCREATE_CHANGE@@A DB 016H DUP (?) ; pViewportCreateChange
	ALIGN	4

?pViewportDestroy@@3UPMSG_VIEWPORTDESTROY@@A DW 01H DUP (?) ; pViewportDestroy
	ALIGN	4

?pMonsterViewportCreate@@3UPMSG_MONSTER_VIEWPORTCREATE@@A DB 0cH DUP (?) ; pMonsterViewportCreate
?pCallMonsterViewportCreate@@3UPMSG_CALLMONSTER_VIEWPORTCREATE@@A DB 016H DUP (?) ; pCallMonsterViewportCreate
	ALIGN	4

?pItemCount@@3UPWMSG_COUNT@@A DB 05H DUP (?)		; pItemCount
	ALIGN	4

?pItemViewportCreate@@3UPMSG_ITEMVIEWPORTCREATE@@A DB 09H DUP (?) ; pItemViewportCreate
	ALIGN	4

?pItemViewportDestroy@@3UPMSG_VIEWPORTDESTROY@@A DW 01H DUP (?) ; pItemViewportDestroy
_BSS	ENDS
_DATA	SEGMENT
?RoadPathTable@@3PAFA DW 0ffffH				; RoadPathTable
	DW	0ffffH
	DW	00H
	DW	0ffffH
	DW	01H
	DW	0ffffH
	DW	01H
	DW	00H
	DW	01H
	DW	01H
	DW	00H
	DW	01H
	DW	0ffffH
	DW	01H
	DW	0ffffH
	DW	00H
?gServerMaxUser@@3HA DD 01f4H				; gServerMaxUser
?g_EnergyCheckOff@@3HA DD 01H				; g_EnergyCheckOff
_DATA	ENDS
PUBLIC	??_H@YGXPAXIIP6EPAX0@Z@Z			; `vector constructor iterator'
PUBLIC	?__empty_global_delete@@YAXPAX@Z		; __empty_global_delete
PUBLIC	?__empty_global_delete@@YAXPAXI@Z		; __empty_global_delete
PUBLIC	___local_stdio_printf_options
PUBLIC	__vsnprintf_l
PUBLIC	_vsprintf
PUBLIC	?AtlThrowImpl@ATL@@YGXJ@Z			; ATL::AtlThrowImpl
PUBLIC	?_AtlGetConversionACP@ATL@@YGIXZ		; ATL::_AtlGetConversionACP
PUBLIC	_sqrtf
PUBLIC	?_AtlGetStringResourceImage@ATL@@YAPBUATLSTRINGRESOURCEIMAGE@1@PAUHINSTANCE__@@PAUHRSRC__@@I@Z ; ATL::_AtlGetStringResourceImage
PUBLIC	?AtlGetStringResourceImage@ATL@@YAPBUATLSTRINGRESOURCEIMAGE@1@PAUHINSTANCE__@@I@Z ; ATL::AtlGetStringResourceImage
PUBLIC	?data@CStringData@ATL@@QAEPAXXZ			; ATL::CStringData::data
PUBLIC	?IsLocked@CStringData@ATL@@QBE_NXZ		; ATL::CStringData::IsLocked
PUBLIC	?IsShared@CStringData@ATL@@QBE_NXZ		; ATL::CStringData::IsShared
PUBLIC	?Release@CStringData@ATL@@QAEXXZ		; ATL::CStringData::Release
PUBLIC	??0?$CSimpleStringT@D$0A@@ATL@@QAE@PAUIAtlStringMgr@1@@Z ; ATL::CSimpleStringT<char,0>::CSimpleStringT<char,0>
PUBLIC	??1?$CSimpleStringT@D$0A@@ATL@@QAE@XZ		; ATL::CSimpleStringT<char,0>::~CSimpleStringT<char,0>
PUBLIC	??4?$CSimpleStringT@D$0A@@ATL@@QAEAAV01@PBD@Z	; ATL::CSimpleStringT<char,0>::operator=
PUBLIC	?Empty@?$CSimpleStringT@D$0A@@ATL@@QAEXXZ	; ATL::CSimpleStringT<char,0>::Empty
PUBLIC	?GetAllocLength@?$CSimpleStringT@D$0A@@ATL@@QBEHXZ ; ATL::CSimpleStringT<char,0>::GetAllocLength
PUBLIC	?GetBuffer@?$CSimpleStringT@D$0A@@ATL@@QAEPADH@Z ; ATL::CSimpleStringT<char,0>::GetBuffer
PUBLIC	?GetLength@?$CSimpleStringT@D$0A@@ATL@@QBEHXZ	; ATL::CSimpleStringT<char,0>::GetLength
PUBLIC	?GetString@?$CSimpleStringT@D$0A@@ATL@@QBEPBDXZ	; ATL::CSimpleStringT<char,0>::GetString
PUBLIC	?ReleaseBufferSetLength@?$CSimpleStringT@D$0A@@ATL@@QAEXH@Z ; ATL::CSimpleStringT<char,0>::ReleaseBufferSetLength
PUBLIC	?SetString@?$CSimpleStringT@D$0A@@ATL@@QAEXPBD@Z ; ATL::CSimpleStringT<char,0>::SetString
PUBLIC	?SetString@?$CSimpleStringT@D$0A@@ATL@@QAEXPBDH@Z ; ATL::CSimpleStringT<char,0>::SetString
PUBLIC	?CopyChars@?$CSimpleStringT@D$0A@@ATL@@SAXPADIPBDH@Z ; ATL::CSimpleStringT<char,0>::CopyChars
PUBLIC	?CopyCharsOverlapped@?$CSimpleStringT@D$0A@@ATL@@SAXPADIPBDH@Z ; ATL::CSimpleStringT<char,0>::CopyCharsOverlapped
PUBLIC	?StringLength@?$CSimpleStringT@D$0A@@ATL@@SAHPBD@Z ; ATL::CSimpleStringT<char,0>::StringLength
PUBLIC	?ThrowMemoryException@?$CSimpleStringT@D$0A@@ATL@@KAXXZ ; ATL::CSimpleStringT<char,0>::ThrowMemoryException
PUBLIC	?Attach@?$CSimpleStringT@D$0A@@ATL@@AAEXPAUCStringData@2@@Z ; ATL::CSimpleStringT<char,0>::Attach
PUBLIC	?Fork@?$CSimpleStringT@D$0A@@ATL@@AAEXH@Z	; ATL::CSimpleStringT<char,0>::Fork
PUBLIC	?GetData@?$CSimpleStringT@D$0A@@ATL@@ABEPAUCStringData@2@XZ ; ATL::CSimpleStringT<char,0>::GetData
PUBLIC	?PrepareWrite@?$CSimpleStringT@D$0A@@ATL@@AAEPADH@Z ; ATL::CSimpleStringT<char,0>::PrepareWrite
PUBLIC	?PrepareWrite2@?$CSimpleStringT@D$0A@@ATL@@AAEXH@Z ; ATL::CSimpleStringT<char,0>::PrepareWrite2
PUBLIC	?Reallocate@?$CSimpleStringT@D$0A@@ATL@@AAEXH@Z	; ATL::CSimpleStringT<char,0>::Reallocate
PUBLIC	?SetLength@?$CSimpleStringT@D$0A@@ATL@@AAEXH@Z	; ATL::CSimpleStringT<char,0>::SetLength
PUBLIC	??0?$CStringT@DV?$StrTraitMFC@DV?$ChTraitsCRT@D@ATL@@@@@ATL@@QAE@PBD@Z ; ATL::CStringT<char,StrTraitMFC<char,ATL::ChTraitsCRT<char> > >::CStringT<char,StrTraitMFC<char,ATL::ChTraitsCRT<char> > >
PUBLIC	??1?$CStringT@DV?$StrTraitMFC@DV?$ChTraitsCRT@D@ATL@@@@@ATL@@QAE@XZ ; ATL::CStringT<char,StrTraitMFC<char,ATL::ChTraitsCRT<char> > >::~CStringT<char,StrTraitMFC<char,ATL::ChTraitsCRT<char> > >
PUBLIC	??4?$CStringT@DV?$StrTraitMFC@DV?$ChTraitsCRT@D@ATL@@@@@ATL@@QAEAAV01@PBD@Z ; ATL::CStringT<char,StrTraitMFC<char,ATL::ChTraitsCRT<char> > >::operator=
PUBLIC	?LoadStringA@?$CStringT@DV?$StrTraitMFC@DV?$ChTraitsCRT@D@ATL@@@@@ATL@@QAEHI@Z ; ATL::CStringT<char,StrTraitMFC<char,ATL::ChTraitsCRT<char> > >::LoadStringA
PUBLIC	?LoadStringA@?$CStringT@DV?$StrTraitMFC@DV?$ChTraitsCRT@D@ATL@@@@@ATL@@QAEHPAUHINSTANCE__@@I@Z ; ATL::CStringT<char,StrTraitMFC<char,ATL::ChTraitsCRT<char> > >::LoadStringA
PUBLIC	?CheckImplicitLoad@?$CStringT@DV?$StrTraitMFC@DV?$ChTraitsCRT@D@ATL@@@@@ATL@@AAE_NPBX@Z ; ATL::CStringT<char,StrTraitMFC<char,ATL::ChTraitsCRT<char> > >::CheckImplicitLoad
PUBLIC	??0CTime@ATL@@QAE@_J@Z				; ATL::CTime::CTime
PUBLIC	?Format@CTime@ATL@@QBE?AV?$CStringT@DV?$StrTraitMFC@DV?$ChTraitsCRT@D@ATL@@@@@2@PBD@Z ; ATL::CTime::Format
PUBLIC	?GetBaseTypeLength@?$ChTraitsCRT@D@ATL@@SAHPB_WH@Z ; ATL::ChTraitsCRT<char>::GetBaseTypeLength
PUBLIC	?ConvertToBaseType@?$ChTraitsCRT@D@ATL@@SAXPADHPB_WH@Z ; ATL::ChTraitsCRT<char>::ConvertToBaseType
PUBLIC	?FindStringResourceInstance@?$StrTraitMFC@DV?$ChTraitsCRT@D@ATL@@@@SAPAUHINSTANCE__@@I@Z ; StrTraitMFC<char,ATL::ChTraitsCRT<char> >::FindStringResourceInstance
PUBLIC	?GetDefaultManager@?$StrTraitMFC@DV?$ChTraitsCRT@D@ATL@@@@SAPAUIAtlStringMgr@ATL@@XZ ; StrTraitMFC<char,ATL::ChTraitsCRT<char> >::GetDefaultManager
PUBLIC	?sqrt@@YAMM@Z					; sqrt
PUBLIC	?_Adopt@_Iterator_base0@std@@QAEXPBX@Z		; std::_Iterator_base0::_Adopt
PUBLIC	??4CMagicInf@@QAEAAV0@ABV0@@Z			; CMagicInf::operator=
PUBLIC	??_ECMagicInf@@UAEPAXI@Z			; CMagicInf::`vector deleting destructor'
PUBLIC	?gObjGetRandomFreeLocation@@YAHHAAE0HHH@Z	; gObjGetRandomFreeLocation
PUBLIC	?gObjCheckAttackTypeMagic@@YAHHH@Z		; gObjCheckAttackTypeMagic
PUBLIC	?gObjGetRandomItemDropLocation@@YAHHAAE0HHH@Z	; gObjGetRandomItemDropLocation
PUBLIC	?gObjCheckInventorySerial0Item@@YAHPAVOBJECTSTRUCT@@@Z ; gObjCheckInventorySerial0Item
PUBLIC	?gObjCheckSerial0ItemList@@YAHPAVCItem@@@Z	; gObjCheckSerial0ItemList
PUBLIC	?gCheckSkillDistance@@YAHHHH@Z			; gCheckSkillDistance
PUBLIC	?gObjMagicAddEnergyCheckOnOff@@YAXH@Z		; gObjMagicAddEnergyCheckOnOff
PUBLIC	?gObjWeaponMagicAdd@@YAHPAVOBJECTSTRUCT@@EE@Z	; gObjWeaponMagicAdd
PUBLIC	??0BILL_CLASS@@QAE@XZ				; BILL_CLASS::BILL_CLASS
PUBLIC	?Init@BILL_CLASS@@QAEXXZ			; BILL_CLASS::Init
PUBLIC	?GetEndsDays@BILL_CLASS@@QAEPADXZ		; BILL_CLASS::GetEndsDays
PUBLIC	?GetRestTime@BILL_CLASS@@QAEKXZ			; BILL_CLASS::GetRestTime
PUBLIC	?GetRestPoint@BILL_CLASS@@QAEKXZ		; BILL_CLASS::GetRestPoint
PUBLIC	?GetDeductType@BILL_CLASS@@QAEEXZ		; BILL_CLASS::GetDeductType
PUBLIC	??_UZeroMemBase@@SAPAXI@Z			; ZeroMemBase::operator new[]
PUBLIC	??_VZeroMemBase@@SAXPAX@Z			; ZeroMemBase::operator delete[]
PUBLIC	??0OBJECTSTRUCT@@QAE@XZ				; OBJECTSTRUCT::OBJECTSTRUCT
PUBLIC	??1OBJECTSTRUCT@@QAE@XZ				; OBJECTSTRUCT::~OBJECTSTRUCT
PUBLIC	??_EOBJECTSTRUCT@@QAEPAXI@Z			; OBJECTSTRUCT::`vector deleting destructor'
PUBLIC	?CheckAuthority@@YA_NKPAVOBJECTSTRUCT@@@Z	; CheckAuthority
PUBLIC	?gObjAddAttackProcMsgSendDelay@@YAXPAVOBJECTSTRUCT@@HHHHH@Z ; gObjAddAttackProcMsgSendDelay
PUBLIC	?gObjStateAttackProc@@YAXPAVOBJECTSTRUCT@@HHHH@Z ; gObjStateAttackProc
PUBLIC	?gObjInit@@YAXXZ				; gObjInit
PUBLIC	?gObjEnd@@YAXXZ					; gObjEnd
PUBLIC	?gObjMemFree@@YAFH@Z				; gObjMemFree
PUBLIC	?gObjSometimeClose@@YAFH@Z			; gObjSometimeClose
PUBLIC	?gObjDestroy@@YAXIH@Z				; gObjDestroy
PUBLIC	?gObjAdd@@YAFIPADH@Z				; gObjAdd
PUBLIC	?gObjAddCallMon@@YAFXZ				; gObjAddCallMon
PUBLIC	?gObjAddSearch@@YAFIPAD@Z			; gObjAddSearch
PUBLIC	?gObjAddMonster@@YAFH@Z				; gObjAddMonster
PUBLIC	?gObjDel@@YAFH@Z				; gObjDel
PUBLIC	?gObjGameClose@@YAHH@Z				; gObjGameClose
PUBLIC	?gObjGetSocket@@YAHI@Z				; gObjGetSocket
PUBLIC	?gObjBillRequest@@YAXPAVOBJECTSTRUCT@@@Z	; gObjBillRequest
PUBLIC	?gObjUserKill@@YAXH@Z				; gObjUserKill
PUBLIC	?gObjViewportClose@@YAXPAVOBJECTSTRUCT@@@Z	; gObjViewportClose
PUBLIC	?gObjJoominCheck@@YAHHPAD@Z			; gObjJoominCheck
PUBLIC	?gObjInventoryRectCheck@@YAEHHHHH@Z		; gObjInventoryRectCheck
PUBLIC	?gObjOnlyInventoryRectCheck@@YAEHHHHH@Z		; gObjOnlyInventoryRectCheck
PUBLIC	?CheckInventoryEmptySpace@@YAHPAVOBJECTSTRUCT@@HH@Z ; CheckInventoryEmptySpace
PUBLIC	?gObjGetAccountId@@YAPADH@Z			; gObjGetAccountId
PUBLIC	?gObjGetIndex@@YAHPAD@Z				; gObjGetIndex
PUBLIC	?gObjUserIdConnectCheck@@YAHPADH@Z		; gObjUserIdConnectCheck
PUBLIC	?gObjIsConnectedGP@@YAHH@Z			; gObjIsConnectedGP
PUBLIC	?gObjIsConnected@@YAHPAVOBJECTSTRUCT@@@Z	; gObjIsConnected
PUBLIC	?gObjIsConnected@@YAHPAVOBJECTSTRUCT@@H@Z	; gObjIsConnected
PUBLIC	?gObjIsConnected@@YAHH@Z			; gObjIsConnected
PUBLIC	?gObjIsAccontConnect@@YAHHPAD@Z			; gObjIsAccontConnect
PUBLIC	?gObjIsGamePlaing@@YAHPAVOBJECTSTRUCT@@@Z	; gObjIsGamePlaing
PUBLIC	?gObjCheckXYMapTile@@YAHPAVOBJECTSTRUCT@@H@Z	; gObjCheckXYMapTile
PUBLIC	?gObjTimeCheckSelfDefense@@YAXPAVOBJECTSTRUCT@@@Z ; gObjTimeCheckSelfDefense
PUBLIC	?gObjSetAccountLogin@@YAHHPADHH0@Z		; gObjSetAccountLogin
PUBLIC	?gObjSetCharacter@@YAHPAEH@Z			; gObjSetCharacter
PUBLIC	?gObjSetMonster@@YAHHH@Z			; gObjSetMonster
PUBLIC	?gObjSetPosMonster@@YAHHH@Z			; gObjSetPosMonster
PUBLIC	?gObjViewportListCreate@@YAXF@Z			; gObjViewportListCreate
PUBLIC	?gObjViewportListDestroy@@YAXF@Z		; gObjViewportListDestroy
PUBLIC	?gObjViewportListProtocol@@YAXF@Z		; gObjViewportListProtocol
PUBLIC	?gObjSetState@@YAXXZ				; gObjSetState
PUBLIC	?gObjSecondProc@@YAXXZ				; gObjSecondProc
PUBLIC	?PShop_ViewportListRegenarate@@YAXF@Z		; PShop_ViewportListRegenarate
PUBLIC	?PShop_CheckInventoryEmpty@@YA_NF@Z		; PShop_CheckInventoryEmpty
PUBLIC	?gObjStateSetCreate@@YAXH@Z			; gObjStateSetCreate
PUBLIC	?gObjViewportPaint@@YAXPAUHWND__@@F@Z		; gObjViewportPaint
PUBLIC	?gObjGetUserNumber@@YAHH@Z			; gObjGetUserNumber
PUBLIC	?gObjGetNumber@@YAHHAAH0@Z			; gObjGetNumber
PUBLIC	?gObjLevelUp@@YA_NPAVOBJECTSTRUCT@@HHH@Z	; gObjLevelUp
PUBLIC	?gObjLevelUpPointAdd@@YAHEPAVOBJECTSTRUCT@@@Z	; gObjLevelUpPointAdd
PUBLIC	?LevelSmallConvert@@YAEHH@Z			; LevelSmallConvert
PUBLIC	?LevelSmallConvert@@YAEH@Z			; LevelSmallConvert
PUBLIC	?gObjInventoryInsertItem@@YAEHH@Z		; gObjInventoryInsertItem
PUBLIC	?gObjInventoryInsertItem@@YAEHVCItem@@@Z	; gObjInventoryInsertItem
PUBLIC	?gObjInventoryInsertItem@@YAEHPAVCMapItem@@@Z	; gObjInventoryInsertItem
PUBLIC	?gObjOnlyInventoryInsertItem@@YAEHVCItem@@@Z	; gObjOnlyInventoryInsertItem
PUBLIC	?gObjInventoryInsertItemTemp@@YAEPAVOBJECTSTRUCT@@PAVCMapItem@@@Z ; gObjInventoryInsertItemTemp
PUBLIC	?gObjShopBuyInventoryInsertItem@@YAEHVCItem@@@Z	; gObjShopBuyInventoryInsertItem
PUBLIC	?gObjShopBuyInventoryInsertItemSerial@@YAEHVCItem@@@Z ; gObjShopBuyInventoryInsertItemSerial
PUBLIC	?gObjSearchItem@@YAHPAVOBJECTSTRUCT@@HHH@Z	; gObjSearchItem
PUBLIC	?gObjSearchItemMinus@@YAHPAVOBJECTSTRUCT@@HH@Z	; gObjSearchItemMinus
PUBLIC	?gObjInventoryInsertItem@@YAEPAVOBJECTSTRUCT@@HHHHH@Z ; gObjInventoryInsertItem
PUBLIC	?gObjInventoryDeleteItem@@YAEHH@Z		; gObjInventoryDeleteItem
PUBLIC	?gObjInventoryItemSet@@YAXHHE@Z			; gObjInventoryItemSet
PUBLIC	?gObjInventoryItemBoxSet@@YAXHHHHE@Z		; gObjInventoryItemBoxSet
PUBLIC	?gObjMakePreviewCharSet@@YAXH@Z			; gObjMakePreviewCharSet
PUBLIC	?gObjInventoryItemSet_PShop@@YAXHHE@Z		; gObjInventoryItemSet_PShop
PUBLIC	?gObjInventoryItemBoxSet_PShop@@YAXHHHHE@Z	; gObjInventoryItemBoxSet_PShop
PUBLIC	?gObjAddMsgSend@@YAXPAVOBJECTSTRUCT@@HHH@Z	; gObjAddMsgSend
PUBLIC	?gObjAddMsgSendDelay@@YAXPAVOBJECTSTRUCT@@HHHH@Z ; gObjAddMsgSendDelay
PUBLIC	?gObjAddMsgSendDelayInSpecificQPos@@YAXPAVOBJECTSTRUCT@@HHHHH@Z ; gObjAddMsgSendDelayInSpecificQPos
PUBLIC	?InitFrustrum@@YAXXZ				; InitFrustrum
PUBLIC	?CreateFrustrum@@YAXHHH@Z			; CreateFrustrum
PUBLIC	?gObjAttack@@YAHPAVOBJECTSTRUCT@@0PAVCMagicInf@@HEHH@Z ; gObjAttack
PUBLIC	?gObjMsgProc@@YAXPAVOBJECTSTRUCT@@@Z		; gObjMsgProc
PUBLIC	?gObjBackSpring@@YAHPAVOBJECTSTRUCT@@0@Z	; gObjBackSpring
PUBLIC	?GetPathPacketDirPos@@YAEHH@Z			; GetPathPacketDirPos
PUBLIC	?gObjCalDistance@@YAHPAVOBJECTSTRUCT@@0@Z	; gObjCalDistance
PUBLIC	?gObjTeleportMagicUse@@YAXHEE@Z			; gObjTeleportMagicUse
PUBLIC	?gObjMagicManaUse@@YAHPAVOBJECTSTRUCT@@PAVCMagicInf@@@Z ; gObjMagicManaUse
PUBLIC	?gObjMagicBPUse@@YAHPAVOBJECTSTRUCT@@PAVCMagicInf@@@Z ; gObjMagicBPUse
PUBLIC	?GetMoveArea@@YAXAAF0EEEEEAAE@Z			; GetMoveArea
PUBLIC	?gObjPosMagicAttack@@YAHPAVOBJECTSTRUCT@@PAVCMagicInf@@EE@Z ; gObjPosMagicAttack
PUBLIC	?gObjMovePlayer@@YAHHEEEEE@Z			; gObjMovePlayer
PUBLIC	?gObjMoveGate@@YAHHH@Z				; gObjMoveGate
PUBLIC	?gObjMoveDataLoadingOK@@YAXH@Z			; gObjMoveDataLoadingOK
PUBLIC	?gObjTeleport@@YAXHHHH@Z			; gObjTeleport
PUBLIC	?gObjMagicAdd@@YAHPAVOBJECTSTRUCT@@EEEAAE@Z	; gObjMagicAdd
PUBLIC	?gObjMagicAdd@@YAHPAVOBJECTSTRUCT@@EE@Z		; gObjMagicAdd
PUBLIC	?gObjGetMagic@@YAPAVCMagicInf@@PAVOBJECTSTRUCT@@H@Z ; gObjGetMagic
PUBLIC	?gObjGetMagicSearch@@YAPAVCMagicInf@@PAVOBJECTSTRUCT@@E@Z ; gObjGetMagicSearch
PUBLIC	?MonsterAndMsgProc@@YAXXZ			; MonsterAndMsgProc
PUBLIC	?MoveMonsterProc@@YAXXZ				; MoveMonsterProc
PUBLIC	?gObjTradeCancel@@YAXH@Z			; gObjTradeCancel
PUBLIC	?gObjTradeOkButton@@YAXH@Z			; gObjTradeOkButton
PUBLIC	?gObjInventoryMoveItem@@YAEHEEAAH0EEPAE@Z	; gObjInventoryMoveItem
PUBLIC	?gObjTradeInventoryMove@@YAEPAVOBJECTSTRUCT@@EE@Z ; gObjTradeInventoryMove
PUBLIC	?gObjTradeTradeMove@@YAEPAVOBJECTSTRUCT@@EE@Z	; gObjTradeTradeMove
PUBLIC	?gObjInventoryTradeMove@@YAEPAVOBJECTSTRUCT@@EE@Z ; gObjInventoryTradeMove
PUBLIC	?gObjInventoryTrans@@YAHH@Z			; gObjInventoryTrans
PUBLIC	?gObjInventoryCommit@@YAHH@Z			; gObjInventoryCommit
PUBLIC	?gObjItemLevelUp@@YAHPAVOBJECTSTRUCT@@HH@Z	; gObjItemLevelUp
PUBLIC	?gObjItemRandomLevelUp@@YAHPAVOBJECTSTRUCT@@HH@Z ; gObjItemRandomLevelUp
PUBLIC	?gObjItemRandomOption3Up@@YAHPAVOBJECTSTRUCT@@HH@Z ; gObjItemRandomOption3Up
PUBLIC	?gObjUseDrink@@YAXPAVOBJECTSTRUCT@@H@Z		; gObjUseDrink
PUBLIC	?gObjAbilityReSet@@YAXPAVOBJECTSTRUCT@@@Z	; gObjAbilityReSet
PUBLIC	?gGetItemNumber@@YAKXZ				; gGetItemNumber
PUBLIC	?gPlusItemNumber@@YAXXZ				; gPlusItemNumber
PUBLIC	?gObjAllDisconnect@@YAXXZ			; gObjAllDisconnect
PUBLIC	?gObjAllLogOut@@YAXXZ				; gObjAllLogOut
PUBLIC	?gObjCloseSet@@YAXHH@Z				; gObjCloseSet
PUBLIC	?gObjCheckViewport@@YAHHHH@Z			; gObjCheckViewport
PUBLIC	?gObjPositionCheck@@YAHPAVOBJECTSTRUCT@@@Z	; gObjPositionCheck
PUBLIC	?gObjCheckTileArea@@YAHHHHH@Z			; gObjCheckTileArea
PUBLIC	?gObjGuildMasterCapacityTest@@YAHPAVOBJECTSTRUCT@@@Z ; gObjGuildMasterCapacityTest
PUBLIC	?gObjGuildWarEndSend@@YAXPAVOBJECTSTRUCT@@EE@Z	; gObjGuildWarEndSend
PUBLIC	?gObjGuildWarEndSend@@YAXPAU_GUILD_INFO_STRUCT@@0EE@Z ; gObjGuildWarEndSend
PUBLIC	?gObjGuildWarProc@@YAHPAU_GUILD_INFO_STRUCT@@0H@Z ; gObjGuildWarProc
PUBLIC	?gObjGuildWarEnd@@YAXPAU_GUILD_INFO_STRUCT@@0@Z	; gObjGuildWarEnd
PUBLIC	?gObjGetPkTime@@YAHPAVOBJECTSTRUCT@@AAH1@Z	; gObjGetPkTime
PUBLIC	?gObjInventorySearchSerialNumber@@YAHPAVOBJECTSTRUCT@@K@Z ; gObjInventorySearchSerialNumber
PUBLIC	?gObjSetInventory1Pointer@@YAXPAVOBJECTSTRUCT@@@Z ; gObjSetInventory1Pointer
PUBLIC	?gObjStatTextSave@@YAXPAVOBJECTSTRUCT@@@Z	; gObjStatTextSave
PUBLIC	?gObjMagicTextSave@@YAXPAVOBJECTSTRUCT@@@Z	; gObjMagicTextSave
PUBLIC	?gObjItemTextSave@@YAXPAVOBJECTSTRUCT@@@Z	; gObjItemTextSave
PUBLIC	?gObjWarehouseTextSave@@YAXPAVOBJECTSTRUCT@@@Z	; gObjWarehouseTextSave
PUBLIC	?gObjWarehouseInsertItemPos@@YAEHVCItem@@HH@Z	; gObjWarehouseInsertItemPos
PUBLIC	?gObjWarehouseItemSet@@YAXHHE@Z			; gObjWarehouseItemSet
PUBLIC	?gObjMonsterCall@@YAHHHHH@Z			; gObjMonsterCall
PUBLIC	?gObjMonsterCallKill@@YAXH@Z			; gObjMonsterCallKill
PUBLIC	?gObjBackSpring2@@YAHPAVOBJECTSTRUCT@@0H@Z	; gObjBackSpring2
PUBLIC	?gObjSetTradeOption@@YAXHH@Z			; gObjSetTradeOption
PUBLIC	?gObjSetDuelOption@@YAXHH@Z			; gObjSetDuelOption
PUBLIC	?IsDuelEnable@@YA_NH@Z				; IsDuelEnable
PUBLIC	?IsOnDuel@@YA_NHH@Z				; IsOnDuel
PUBLIC	?gObjClearViewportOfMine@@YAXPAVOBJECTSTRUCT@@@Z ; gObjClearViewportOfMine
PUBLIC	?gObjClearViewport@@YAXPAVOBJECTSTRUCT@@@Z	; gObjClearViewport
PUBLIC	?gObjViewportListProtocolDestroy@@YAXPAVOBJECTSTRUCT@@@Z ; gObjViewportListProtocolDestroy
PUBLIC	?gObjViewportListProtocolCreate@@YAXPAVOBJECTSTRUCT@@@Z ; gObjViewportListProtocolCreate
PUBLIC	?GetMapMoveLevel@@YAHPAVOBJECTSTRUCT@@HH@Z	; GetMapMoveLevel
PUBLIC	?gObjChaosBoxInsertItemPos@@YAEHVCItem@@HH@Z	; gObjChaosBoxInsertItemPos
PUBLIC	?gObjChaosItemSet@@YAXHHE@Z			; gObjChaosItemSet
PUBLIC	?gObjCanItemTouch@@YAHPAVOBJECTSTRUCT@@H@Z	; gObjCanItemTouch
PUBLIC	?ItemIsBufExOption@@YAXPAEPAVCItem@@@Z		; ItemIsBufExOption
PUBLIC	?gObjCheckTeleportArea@@YAHHEE@Z		; gObjCheckTeleportArea
PUBLIC	?gObjCheckAttackArea@@YAHHH@Z			; gObjCheckAttackArea
PUBLIC	?gObjIsSelfDefense@@YA_NPAVOBJECTSTRUCT@@H@Z	; gObjIsSelfDefense
PUBLIC	?gObjDuelCheck@@YAHPAVOBJECTSTRUCT@@@Z		; gObjDuelCheck
PUBLIC	?gObjDuelCheck@@YAHPAVOBJECTSTRUCT@@0@Z		; gObjDuelCheck
PUBLIC	?gObjResetDuel@@YAXPAVOBJECTSTRUCT@@@Z		; gObjResetDuel
PUBLIC	?gObjSendDuelEnd@@YAXPAVOBJECTSTRUCT@@@Z	; gObjSendDuelEnd
PUBLIC	?gObjCheckAllUserDuelStop@@YAXXZ		; gObjCheckAllUserDuelStop
PUBLIC	?gUserFindDevilSquareInvitation@@YAHH@Z		; gUserFindDevilSquareInvitation
PUBLIC	?gUserFindDevilSquareKeyEyes@@YAHH@Z		; gUserFindDevilSquareKeyEyes
PUBLIC	?gObjSendUserStatistic@@YAXHHH@Z		; gObjSendUserStatistic
PUBLIC	?gObjFind@@YAPAVOBJECTSTRUCT@@PAD@Z		; gObjFind
PUBLIC	?gObjFind10EventChip@@YAHH@Z			; gObjFind10EventChip
PUBLIC	?gObjDelete10EventChip@@YAHH@Z			; gObjDelete10EventChip
PUBLIC	?gObjSetPosition@@YAXHHH@Z			; gObjSetPosition
PUBLIC	?gObjGetItemCountInIventory@@YAHHHHH@Z		; gObjGetItemCountInIventory
PUBLIC	?gObjGetItemCountInIventory@@YAHHH@Z		; gObjGetItemCountInIventory
PUBLIC	?gObjGetManaItemPos@@YAHH@Z			; gObjGetManaItemPos
PUBLIC	?gObjDelteItemCountInInventory@@YAXHHHH@Z	; gObjDelteItemCountInInventory
PUBLIC	?gObjUseCircle@@YAXHH@Z				; gObjUseCircle
PUBLIC	?gObjSetBP@@YAXH@Z				; gObjSetBP
PUBLIC	?gObjCalcMaxLifePower@@YAXH@Z			; gObjCalcMaxLifePower
PUBLIC	?gObjGetStatPointState@@YAXHAAF0@Z		; gObjGetStatPointState
PUBLIC	?gObjPenaltyDurDown@@YAXPAVOBJECTSTRUCT@@0@Z	; gObjPenaltyDurDown
PUBLIC	?gObjWeaponDurDown@@YAXPAVOBJECTSTRUCT@@0H@Z	; gObjWeaponDurDown
PUBLIC	?gObjArmorRandomDurDown@@YAXPAVOBJECTSTRUCT@@0@Z ; gObjArmorRandomDurDown
PUBLIC	?gObjTargetGuildWarCheck@@YAHPAVOBJECTSTRUCT@@0@Z ; gObjTargetGuildWarCheck
PUBLIC	?gObjCheckSelfDefense@@YAXPAVOBJECTSTRUCT@@H@Z	; gObjCheckSelfDefense
PUBLIC	?gObjAttackQ@@YAHPAVOBJECTSTRUCT@@@Z		; gObjAttackQ
PUBLIC	?gObjLifeCheck@@YAXPAVOBJECTSTRUCT@@0HHHHE@Z	; gObjLifeCheck
PUBLIC	?retResistance@@YAHPAVOBJECTSTRUCT@@H@Z		; retResistance
PUBLIC	?retCalcSkillResistance@@YAHPAVOBJECTSTRUCT@@H@Z ; retCalcSkillResistance
PUBLIC	?gObjSpriteDamage@@YAXPAVOBJECTSTRUCT@@H@Z	; gObjSpriteDamage
PUBLIC	?gObjSatanSprite@@YAHPAVOBJECTSTRUCT@@@Z	; gObjSatanSprite
PUBLIC	?gObjAngelSprite@@YAHPAVOBJECTSTRUCT@@@Z	; gObjAngelSprite
PUBLIC	?gObjWingSprite@@YAHPAVOBJECTSTRUCT@@@Z		; gObjWingSprite
PUBLIC	?gObjUniriaSprite@@YAHPAVOBJECTSTRUCT@@@Z	; gObjUniriaSprite
PUBLIC	?gObjNextExpCal@@YAXPAVOBJECTSTRUCT@@@Z		; gObjNextExpCal
PUBLIC	?gObjDelayLifeCheck@@YAXH@Z			; gObjDelayLifeCheck
PUBLIC	?SkillFrustrum@@YAXEH@Z				; SkillFrustrum
PUBLIC	?SkillTestFrustrum@@YAHHHH@Z			; SkillTestFrustrum
PUBLIC	?gObjGetItemCountInEquipment@@YAHHHHH@Z		; gObjGetItemCountInEquipment
PUBLIC	?gObjCheckMaxZen@@YAHHH@Z			; gObjCheckMaxZen
PUBLIC	?gObjIsItemPut@@YAHPAVOBJECTSTRUCT@@PAVCItem@@H@Z ; gObjIsItemPut
PUBLIC	?MakeRandomSetItem@@YAXH@Z			; MakeRandomSetItem
PUBLIC	?gObjMagicEnergyCheck@@YAHPAVOBJECTSTRUCT@@E@Z	; gObjMagicEnergyCheck
PUBLIC	?gObjRecall@@YAXHHHH@Z				; gObjRecall
PUBLIC	?gObjSetExpPetItem@@YAXHH@Z			; gObjSetExpPetItem
PUBLIC	?gObjFixInventoryPointer@@YA_NH@Z		; gObjFixInventoryPointer
PUBLIC	?MakeRewardSetItem@@YAXHEEH@Z			; MakeRewardSetItem
PUBLIC	?MsgOutput@@YAXHPADZZ				; MsgOutput
PUBLIC	??R?$less@H@std@@QBE_NABH0@Z			; std::less<int>::operator()
PUBLIC	?Size@CTerrainManager@@QAE?BHXZ			; CTerrainManager::Size
PUBLIC	?GetMinLevel@CTerrainManager@@QAEHH@Z		; CTerrainManager::GetMinLevel
PUBLIC	?end@?$_Tree@V?$_Tmap_traits@HU_TERRAIN_INFO@@U?$less@H@std@@V?$allocator@U?$pair@$$CBHU_TERRAIN_INFO@@@std@@@3@$0A@@std@@@std@@QAE?AV?$_Tree_iterator@V?$_Tree_val@U?$_Tree_simple_types@U?$pair@$$CBHU_TERRAIN_INFO@@@std@@@std@@@std@@@2@XZ ; std::_Tree<std::_Tmap_traits<int,_TERRAIN_INFO,std::less<int>,std::allocator<std::pair<int const ,_TERRAIN_INFO> >,0> >::end
PUBLIC	?find@?$_Tree@V?$_Tmap_traits@HU_TERRAIN_INFO@@U?$less@H@std@@V?$allocator@U?$pair@$$CBHU_TERRAIN_INFO@@@std@@@3@$0A@@std@@@std@@QAE?AV?$_Tree_iterator@V?$_Tree_val@U?$_Tree_simple_types@U?$pair@$$CBHU_TERRAIN_INFO@@@std@@@std@@@std@@@2@ABH@Z ; std::_Tree<std::_Tmap_traits<int,_TERRAIN_INFO,std::less<int>,std::allocator<std::pair<int const ,_TERRAIN_INFO> >,0> >::find
PUBLIC	?_Getcomp@?$_Tree@V?$_Tmap_traits@HU_TERRAIN_INFO@@U?$less@H@std@@V?$allocator@U?$pair@$$CBHU_TERRAIN_INFO@@@std@@@3@$0A@@std@@@std@@IBEABU?$less@H@2@XZ ; std::_Tree<std::_Tmap_traits<int,_TERRAIN_INFO,std::less<int>,std::allocator<std::pair<int const ,_TERRAIN_INFO> >,0> >::_Getcomp
PUBLIC	?_Get_scary@?$_Tree@V?$_Tmap_traits@HU_TERRAIN_INFO@@U?$less@H@std@@V?$allocator@U?$pair@$$CBHU_TERRAIN_INFO@@@std@@@3@$0A@@std@@@std@@IAEPAV?$_Tree_val@U?$_Tree_simple_types@U?$pair@$$CBHU_TERRAIN_INFO@@@std@@@std@@@2@XZ ; std::_Tree<std::_Tmap_traits<int,_TERRAIN_INFO,std::less<int>,std::allocator<std::pair<int const ,_TERRAIN_INFO> >,0> >::_Get_scary
PUBLIC	?_Get_scary@?$_Tree@V?$_Tmap_traits@HU_TERRAIN_INFO@@U?$less@H@std@@V?$allocator@U?$pair@$$CBHU_TERRAIN_INFO@@@std@@@3@$0A@@std@@@std@@IBEPBV?$_Tree_val@U?$_Tree_simple_types@U?$pair@$$CBHU_TERRAIN_INFO@@@std@@@std@@@2@XZ ; std::_Tree<std::_Tmap_traits<int,_TERRAIN_INFO,std::less<int>,std::allocator<std::pair<int const ,_TERRAIN_INFO> >,0> >::_Get_scary
PUBLIC	?_Get_first@?$_Compressed_pair@U?$less@H@std@@V?$_Compressed_pair@V?$allocator@U?$_Tree_node@U?$pair@$$CBHU_TERRAIN_INFO@@@std@@PAX@std@@@std@@V?$_Tree_val@U?$_Tree_simple_types@U?$pair@$$CBHU_TERRAIN_INFO@@@std@@@std@@@2@$00@2@$00@std@@QBEABU?$less@H@2@XZ ; std::_Compressed_pair<std::less<int>,std::_Compressed_pair<std::allocator<std::_Tree_node<std::pair<int const ,_TERRAIN_INFO>,void *> >,std::_Tree_val<std::_Tree_simple_types<std::pair<int const ,_TERRAIN_INFO> > >,1>,1>::_Get_first
PUBLIC	??0?$_Tree_unchecked_const_iterator@V?$_Tree_val@U?$_Tree_simple_types@U?$pair@$$CBHU_TERRAIN_INFO@@@std@@@std@@@std@@U_Iterator_base0@2@@std@@QAE@PAU?$_Tree_node@U?$pair@$$CBHU_TERRAIN_INFO@@@std@@PAX@1@PBV?$_Tree_val@U?$_Tree_simple_types@U?$pair@$$CBHU_TERRAIN_INFO@@@std@@@std@@@1@@Z ; std::_Tree_unchecked_const_iterator<std::_Tree_val<std::_Tree_simple_types<std::pair<int const ,_TERRAIN_INFO> > >,std::_Iterator_base0>::_Tree_unchecked_const_iterator<std::_Tree_val<std::_Tree_simple_types<std::pair<int const ,_TERRAIN_INFO> > >,std::_Iterator_base0>
PUBLIC	??D?$_Tree_const_iterator@V?$_Tree_val@U?$_Tree_simple_types@U?$pair@$$CBHU_TERRAIN_INFO@@@std@@@std@@@std@@@std@@QBEABU?$pair@$$CBHU_TERRAIN_INFO@@@1@XZ ; std::_Tree_const_iterator<std::_Tree_val<std::_Tree_simple_types<std::pair<int const ,_TERRAIN_INFO> > > >::operator*
PUBLIC	??8?$_Tree_const_iterator@V?$_Tree_val@U?$_Tree_simple_types@U?$pair@$$CBHU_TERRAIN_INFO@@@std@@@std@@@std@@@std@@QBE_NABV01@@Z ; std::_Tree_const_iterator<std::_Tree_val<std::_Tree_simple_types<std::pair<int const ,_TERRAIN_INFO> > > >::operator==
PUBLIC	??0?$_Tree_const_iterator@V?$_Tree_val@U?$_Tree_simple_types@U?$pair@$$CBHU_TERRAIN_INFO@@@std@@@std@@@std@@@std@@QAE@PAU?$_Tree_node@U?$pair@$$CBHU_TERRAIN_INFO@@@std@@PAX@1@PBV?$_Tree_val@U?$_Tree_simple_types@U?$pair@$$CBHU_TERRAIN_INFO@@@std@@@std@@@1@@Z ; std::_Tree_const_iterator<std::_Tree_val<std::_Tree_simple_types<std::pair<int const ,_TERRAIN_INFO> > > >::_Tree_const_iterator<std::_Tree_val<std::_Tree_simple_types<std::pair<int const ,_TERRAIN_INFO> > > >
PUBLIC	??D?$_Tree_iterator@V?$_Tree_val@U?$_Tree_simple_types@U?$pair@$$CBHU_TERRAIN_INFO@@@std@@@std@@@std@@@std@@QBEAAU?$pair@$$CBHU_TERRAIN_INFO@@@1@XZ ; std::_Tree_iterator<std::_Tree_val<std::_Tree_simple_types<std::pair<int const ,_TERRAIN_INFO> > > >::operator*
PUBLIC	??C?$_Tree_iterator@V?$_Tree_val@U?$_Tree_simple_types@U?$pair@$$CBHU_TERRAIN_INFO@@@std@@@std@@@std@@@std@@QBEPAU?$pair@$$CBHU_TERRAIN_INFO@@@1@XZ ; std::_Tree_iterator<std::_Tree_val<std::_Tree_simple_types<std::pair<int const ,_TERRAIN_INFO> > > >::operator->
PUBLIC	??0?$_Tree_iterator@V?$_Tree_val@U?$_Tree_simple_types@U?$pair@$$CBHU_TERRAIN_INFO@@@std@@@std@@@std@@@std@@QAE@PAU?$_Tree_node@U?$pair@$$CBHU_TERRAIN_INFO@@@std@@PAX@1@PBV?$_Tree_val@U?$_Tree_simple_types@U?$pair@$$CBHU_TERRAIN_INFO@@@std@@@std@@@1@@Z ; std::_Tree_iterator<std::_Tree_val<std::_Tree_simple_types<std::pair<int const ,_TERRAIN_INFO> > > >::_Tree_iterator<std::_Tree_val<std::_Tree_simple_types<std::pair<int const ,_TERRAIN_INFO> > > >
PUBLIC	?pointer_to@?$pointer_traits@PAU?$pair@$$CBHU_TERRAIN_INFO@@@std@@@std@@SAPAU?$pair@$$CBHU_TERRAIN_INFO@@@2@AAU32@@Z ; std::pointer_traits<std::pair<int const ,_TERRAIN_INFO> *>::pointer_to
PUBLIC	??$_Find@H@?$_Tree@V?$_Tmap_traits@HU_TERRAIN_INFO@@U?$less@H@std@@V?$allocator@U?$pair@$$CBHU_TERRAIN_INFO@@@std@@@3@$0A@@std@@@std@@ABEPAU?$_Tree_node@U?$pair@$$CBHU_TERRAIN_INFO@@@std@@PAX@1@ABH@Z ; std::_Tree<std::_Tmap_traits<int,_TERRAIN_INFO,std::less<int>,std::allocator<std::pair<int const ,_TERRAIN_INFO> >,0> >::_Find<int>
PUBLIC	??$addressof@U?$pair@$$CBHU_TERRAIN_INFO@@@std@@@std@@YAPAU?$pair@$$CBHU_TERRAIN_INFO@@@0@AAU10@@Z ; std::addressof<std::pair<int const ,_TERRAIN_INFO> >
PUBLIC	??$addressof@V?$_Tree_val@U?$_Tree_simple_types@U?$pair@$$CBHU_TERRAIN_INFO@@@std@@@std@@@std@@@std@@YAPAV?$_Tree_val@U?$_Tree_simple_types@U?$pair@$$CBHU_TERRAIN_INFO@@@std@@@std@@@0@AAV10@@Z ; std::addressof<std::_Tree_val<std::_Tree_simple_types<std::pair<int const ,_TERRAIN_INFO> > > >
PUBLIC	??$_Find_lower_bound@H@?$_Tree@V?$_Tmap_traits@HU_TERRAIN_INFO@@U?$less@H@std@@V?$allocator@U?$pair@$$CBHU_TERRAIN_INFO@@@std@@@3@$0A@@std@@@std@@IBE?AU?$_Tree_find_result@PAU?$_Tree_node@U?$pair@$$CBHU_TERRAIN_INFO@@@std@@PAX@std@@@1@ABH@Z ; std::_Tree<std::_Tmap_traits<int,_TERRAIN_INFO,std::less<int>,std::allocator<std::pair<int const ,_TERRAIN_INFO> >,0> >::_Find_lower_bound<int>
PUBLIC	??$_Lower_bound_duplicate@H@?$_Tree@V?$_Tmap_traits@HU_TERRAIN_INFO@@U?$less@H@std@@V?$allocator@U?$pair@$$CBHU_TERRAIN_INFO@@@std@@@3@$0A@@std@@@std@@IBE_NQAU?$_Tree_node@U?$pair@$$CBHU_TERRAIN_INFO@@@std@@PAX@1@ABH@Z ; std::_Tree<std::_Tmap_traits<int,_TERRAIN_INFO,std::less<int>,std::allocator<std::pair<int const ,_TERRAIN_INFO> >,0> >::_Lower_bound_duplicate<int>
PUBLIC	??$addressof@$$CBV?$_Tree_val@U?$_Tree_simple_types@U?$pair@$$CBHU_TERRAIN_INFO@@@std@@@std@@@std@@@std@@YAPBV?$_Tree_val@U?$_Tree_simple_types@U?$pair@$$CBHU_TERRAIN_INFO@@@std@@@std@@@0@ABV10@@Z ; std::addressof<std::_Tree_val<std::_Tree_simple_types<std::pair<int const ,_TERRAIN_INFO> > > const >
PUBLIC	??$_Kfn@$$CBHU_TERRAIN_INFO@@@?$_Tmap_traits@HU_TERRAIN_INFO@@U?$less@H@std@@V?$allocator@U?$pair@$$CBHU_TERRAIN_INFO@@@std@@@3@$0A@@std@@SAABHABU?$pair@$$CBHU_TERRAIN_INFO@@@1@@Z ; std::_Tmap_traits<int,_TERRAIN_INFO,std::less<int>,std::allocator<std::pair<int const ,_TERRAIN_INFO> >,0>::_Kfn<int const ,_TERRAIN_INFO>
PUBLIC	?TalkRefDel@CQeustNpcTeleport@@QAEXXZ		; CQeustNpcTeleport::TalkRefDel
PUBLIC	?GetState@CDragonEvent@@QAEEXZ			; CDragonEvent::GetState
PUBLIC	?GetMapNumber@CDragonEvent@@QAEEXZ		; CDragonEvent::GetMapNumber
PUBLIC	?gObjMonsterExpSingle@@YAHPAVOBJECTSTRUCT@@0HHAA_N@Z ; gObjMonsterExpSingle
PUBLIC	?gObjMonsterExpDivision@@YAXPAVOBJECTSTRUCT@@0HH@Z ; gObjMonsterExpDivision
PUBLIC	??0StaticObject@@QAE@XZ				; StaticObject::StaticObject
PUBLIC	??1StaticObject@@UAE@XZ				; StaticObject::~StaticObject
PUBLIC	??_GStaticObject@@UAEPAXI@Z			; StaticObject::`scalar deleting destructor'
PUBLIC	?ViewportAdd@@YAHHHH@Z				; ViewportAdd
PUBLIC	?ViewportAdd2@@YAHHHH@Z				; ViewportAdd2
PUBLIC	?gObjRefillProcess@@YAXHPAVOBJECTSTRUCT@@@Z	; gObjRefillProcess
PUBLIC	?gObjInventoryInsertItem@@YAEPAVOBJECTSTRUCT@@HHH@Z ; gObjInventoryInsertItem
PUBLIC	?gObjGiveItemSearch@@YAXPAVOBJECTSTRUCT@@H@Z	; gObjGiveItemSearch
PUBLIC	?gObjMonsterItemLoadScript@@YAXPAVOBJECTSTRUCT@@PAD@Z ; gObjMonsterItemLoadScript
PUBLIC	?gObjMonsterInventoryInsertItem@@YAEPAVOBJECTSTRUCT@@HHHHHH@Z ; gObjMonsterInventoryInsertItem
PUBLIC	?gObjWarehouseInsertItem@@YAEPAVOBJECTSTRUCT@@HHHH@Z ; gObjWarehouseInsertItem
PUBLIC	?gObjGiveItemWarehouseSearch@@YAXPAVOBJECTSTRUCT@@H@Z ; gObjGiveItemWarehouseSearch
PUBLIC	?gObjSkillUseProc@@YAXPAVOBJECTSTRUCT@@@Z	; gObjSkillUseProc
PUBLIC	?gObjStateProc@@YAXPAVOBJECTSTRUCT@@HHH@Z	; gObjStateProc
PUBLIC	?ViewportDel@@YAXFH@Z				; ViewportDel
PUBLIC	?Viewport2Del@@YAXFH@Z				; Viewport2Del
PUBLIC	?gObjViewportAllDel@@YAXF@Z			; gObjViewportAllDel
PUBLIC	?gObjSkillBeAttackProc@@YAXPAVOBJECTSTRUCT@@@Z	; gObjSkillBeAttackProc
PUBLIC	?gObjMagicDel@@YAHPAVOBJECTSTRUCT@@EE@Z		; gObjMagicDel
PUBLIC	?gObjManaPotionFill@@YAXPAVOBJECTSTRUCT@@@Z	; gObjManaPotionFill
PUBLIC	?gObjRestPotionFill@@YAXPAVOBJECTSTRUCT@@@Z	; gObjRestPotionFill
PUBLIC	?TradeItemInventoryPutTest@@YAHH@Z		; TradeItemInventoryPutTest
PUBLIC	?gObjMonsterDieLifePlus@@YAXPAVOBJECTSTRUCT@@0@Z ; gObjMonsterDieLifePlus
PUBLIC	?gObjInventoryInsertItemPos@@YAEHVCItem@@HH@Z	; gObjInventoryInsertItemPos
PUBLIC	?gObjTradeSave@@YAXPAVOBJECTSTRUCT@@H@Z		; gObjTradeSave
PUBLIC	?gObjMonsterMagicAdd@@YAHPAVOBJECTSTRUCT@@EE@Z	; gObjMonsterMagicAdd
PUBLIC	?gObjAuthorityCodeSet@@YAXPAVOBJECTSTRUCT@@@Z	; gObjAuthorityCodeSet
PUBLIC	?gObjGuildWarCheck@@YAHPAVOBJECTSTRUCT@@0@Z	; gObjGuildWarCheck
PUBLIC	?gObjGuildWarMasterClose@@YAHPAVOBJECTSTRUCT@@@Z ; gObjGuildWarMasterClose
PUBLIC	?gObjGuildWarItemGive@@YAHPAU_GUILD_INFO_STRUCT@@0@Z ; gObjGuildWarItemGive
PUBLIC	?gObjWarehouseDeleteItem@@YAEHH@Z		; gObjWarehouseDeleteItem
PUBLIC	?gObjChaosBoxDeleteItem@@YAEHH@Z		; gObjChaosBoxDeleteItem
PUBLIC	?gObjChangeDurProc@@YAXPAVOBJECTSTRUCT@@@Z	; gObjChangeDurProc
PUBLIC	?gObjWingDurProc@@YAXPAVOBJECTSTRUCT@@@Z	; gObjWingDurProc
PUBLIC	?gObjInventoryRollback@@YAHH@Z			; gObjInventoryRollback
PUBLIC	?gObjSkillUseProcTime500@@YAXPAVOBJECTSTRUCT@@@Z ; gObjSkillUseProcTime500
PUBLIC	?gObjCharTradeClear@@YAXPAVOBJECTSTRUCT@@@Z	; gObjCharTradeClear
PUBLIC	?gObjCharZeroSet@@YAXH@Z			; gObjCharZeroSet
PUBLIC	?DbItemSetInByte@@YAXPAVOBJECTSTRUCT@@PAUSDHP_DBCHAR_INFORESULT@@HPA_N@Z ; DbItemSetInByte
PUBLIC	?gObjMonsterRecall@@YAFH@Z			; gObjMonsterRecall
PUBLIC	?gObjIsConnectedGP@@YAHHPAD@Z			; gObjIsConnectedGP
PUBLIC	?gObjTaiwanJoominCheck@@YAHHPAD@Z		; gObjTaiwanJoominCheck
PUBLIC	?ExtentCheck@@YAHHHHH@Z				; ExtentCheck
PUBLIC	?gObjSetInventory2Pointer@@YAXPAVOBJECTSTRUCT@@@Z ; gObjSetInventory2Pointer
PUBLIC	?BackSpringCheck@@YAHAAH00E@Z			; BackSpringCheck
PUBLIC	?gObjPlayerKiller@@YAXPAVOBJECTSTRUCT@@0@Z	; gObjPlayerKiller
PUBLIC	?gObjUserDie@@YAXPAVOBJECTSTRUCT@@0@Z		; gObjUserDie
PUBLIC	?gObjInterfaceTimeCheck@@YAXPAVOBJECTSTRUCT@@@Z	; gObjInterfaceTimeCheck
PUBLIC	?gObjPkDownTimeCheck@@YAXPAVOBJECTSTRUCT@@H@Z	; gObjPkDownTimeCheck
PUBLIC	?gObjSecondDurDown@@YAXPAVOBJECTSTRUCT@@@Z	; gObjSecondDurDown
PUBLIC	?gObjExpParty@@YAXPAVOBJECTSTRUCT@@0HH@Z	; gObjExpParty
PUBLIC	?gObjWerehouseRectCheck@@YAEHHHHH@Z		; gObjWerehouseRectCheck
PUBLIC	?gObjMapRectCheck@@YAEPAEHHHHHH@Z		; gObjMapRectCheck
PUBLIC	?gObjWarehouseItemBoxSet@@YAXHHHHE@Z		; gObjWarehouseItemBoxSet
PUBLIC	?gObjChaosItemBoxSet@@YAXHHHHE@Z		; gObjChaosItemBoxSet
PUBLIC	?gObjWarehouseSearchSerialNumber@@YAHPAVOBJECTSTRUCT@@K@Z ; gObjWarehouseSearchSerialNumber
PUBLIC	?gObjTradeRectCheck@@YAEHHHHH@Z			; gObjTradeRectCheck
PUBLIC	?gObjTradeItemBoxSet@@YAHHHHHE@Z		; gObjTradeItemBoxSet
PUBLIC	?gObjTempInventoryItemBoxSet@@YAXPAEHHHE@Z	; gObjTempInventoryItemBoxSet
PUBLIC	?gObjTempInventoryRectCheck@@YAEPAEHHHH@Z	; gObjTempInventoryRectCheck
PUBLIC	?gObjTempInventoryInsertItem@@YAEPAVOBJECTSTRUCT@@VCItem@@PAE@Z ; gObjTempInventoryInsertItem
PUBLIC	?TradeitemInventoryPut@@YAHH@Z			; TradeitemInventoryPut
PUBLIC	?gObjAttackDamageCalc@@YAXH@Z			; gObjAttackDamageCalc
PUBLIC	?TestFrustrum2@@YA_NHHH@Z			; TestFrustrum2
PUBLIC	?gObjCurMoveMake@@YAHQAEPAVOBJECTSTRUCT@@@Z	; gObjCurMoveMake
PUBLIC	?gObjCheckAttackAreaUsedPath@@YAHHH@Z		; gObjCheckAttackAreaUsedPath
PUBLIC	?gObjCheckattackAreaUsedViewPort@@YAHHH@Z	; gObjCheckattackAreaUsedViewPort
PUBLIC	?gObjCheckStatPointUp@@YAHH@Z			; gObjCheckStatPointUp
PUBLIC	?gObjCheckStatPointDown@@YAHH@Z			; gObjCheckStatPointDown
PUBLIC	?_OptionsStorage@?1??__local_stdio_printf_options@@9@4_KA ; `__local_stdio_printf_options'::`2'::_OptionsStorage
PUBLIC	??_C@_00CNPNBAHC@@				; `string'
PUBLIC	?m_ObjBill@@3PAVBILL_CLASS@@A			; m_ObjBill
PUBLIC	??_C@_0BK@CPKHJPAP@QeustNpc?5RefCount?5Dec?$DN?5?$CFd@ ; `string'
PUBLIC	?ViewGuildMng@@3VCViewportGuild@@A		; ViewGuildMng
PUBLIC	??_7StaticObject@@6B@				; StaticObject::`vftable'
PUBLIC	?g_kStaticObject@@3VStaticObject@@A		; g_kStaticObject
PUBLIC	?__LINE__Var@?0??gObjSkillUseProcTime500@@YAXPAVOBJECTSTRUCT@@@Z@4JA ; `gObjSkillUseProcTime500'::`1'::__LINE__Var
PUBLIC	??_C@_0DH@BCNNLIDP@C?3?2Mu?5Online?2Mu?9GS?9Webzen?9MC?910@ ; `string'
PUBLIC	??_C@_0DF@NOIKLNAL@?$KB?Z?$FLCHECK_LOG_INFINITY?$FN?5gObjIsCo@ ; `string'
PUBLIC	??_C@_0DE@GDMCBCLE@?$KB?Z?$FLCHECK_LOG_INFINITY?$FN?5?$CI?5_count@ ; `string'
PUBLIC	??_C@_0GG@GPEABMHM@?$FL?5CHECK?5POSITION?5?$FN?5MoveMosterPr@ ; `string'
PUBLIC	?__LINE__Var@?0??GetMapMoveLevel@@YAHPAVOBJECTSTRUCT@@HH@Z@4JA ; `GetMapMoveLevel'::`1'::__LINE__Var
PUBLIC	??_C@_0CA@HDKCFMCD@error?9L3?5?3?5map?5number?5not?5?$CFs?5?$CFd@ ; `string'
PUBLIC	??_C@_0GK@NPPGCJHE@error?9L2?5?3?5Unknown?5Item?5found?5?$FL@ ; `string'
PUBLIC	?__LINE__Var@?0??gObjSetCharacter@@YAHPAEH@Z@4JA ; `gObjSetCharacter'::`1'::__LINE__Var
PUBLIC	??_C@_0O@CKAEPJAF@error?5?3?5?$CFs?5?$CFd@	; `string'
PUBLIC	??_C@_0CF@CDKKBDHM@error?9L1?5?3?5ChaosBox?5Init?5error?5@ ; `string'
PUBLIC	??_C@_0BG@PGPOOLHE@error?5?3?5?$CFs?5Level?5Zero@ ; `string'
PUBLIC	??_C@_0CD@JILLGNNC@error?5?3?5Map?5Number?5max?5over?4?5?$CFs@ ; `string'
PUBLIC	??_C@_0BD@DHOELAFE@error?5?3?5?$CFd?5?$CI?$CFs?5?$CFd?$CJ@ ; `string'
PUBLIC	??_C@_0CF@PDDCMPCL@?$FL?$CFs?$FN?$FL?$CFs?$FN?5Find?5Invalid?5QuestInfo@ ; `string'
PUBLIC	??_C@_0BG@DNBFMJJP@?$CI?$CFs?$CJ?$CI?$CFs?$CJ?5Set?5Event?5GM@ ; `string'
PUBLIC	??_C@_0CC@GOGGAFJG@Penalty?5?3?5Item?5Don?8t?5touch?5?5?$CFs?5@ ; `string'
PUBLIC	??_C@_0BF@JCIHPMHF@?$LO?x?$LE?B?5?$LO?F?$MA?L?E?$NL?5?$LJ?$NP?$LA?$NP?5?$CB?$CB?$CB@ ; `string'
PUBLIC	??_C@_08NKGJGPDF@?1vipinfo@			; `string'
PUBLIC	??_C@_0CA@EIDBCBFJ@?$FLCASH?5SYSTEM?$FN?5Tienes?5?$CFd?5de?5Cash@ ; `string'
PUBLIC	??_C@_0BC@JJLOFGFB@?$CFd?1?$CFm?1?$CFY?5?$CFH?3?$CFM?3?$CFS@ ; `string'
PUBLIC	??_C@_0CB@PBFGMDKK@VIP?5User?5Connected?3?5?$FL?$CFs?$FN?$FL?$CFd?$FN?$FL?$CFs@ ; `string'
PUBLIC	??_C@_0BK@EFNGMPBL@Free?5User?5Connected?3?5?$FL?$CFs?$FN@ ; `string'
PUBLIC	??_C@_0HG@OJODFIFG@?$FL?$CFs?$FN?$FL?$CFs?$FN?5CharInfoSave?5?3?5Class?$DN?$CF@ ; `string'
PUBLIC	?__LINE__Var@?0??gObjSetPosMonster@@YAHHH@Z@4JA	; `gObjSetPosMonster'::`1'::__LINE__Var
PUBLIC	??_C@_0BJ@KEIINKC@error?9L2?5?3?5?$CFd?5class?5?3?5?$CFd@ ; `string'
PUBLIC	?__LINE__Var@?0??gObjSetMonster@@YAHHH@Z@4JA	; `gObjSetMonster'::`1'::__LINE__Var
PUBLIC	??_C@_0BF@DGECBEHF@?C?$LF?$LA?x?$LK?$LI?$LN?$LK?$LI?w?5?$LM?$LD?A?$KE?5?$LN?G?F?P@ ; `string'
PUBLIC	??_C@_0BP@GCONPPCF@SkyLand?5Boss?5Monster?5Setting?$CB?$CB@ ; `string'
PUBLIC	??_C@_0BO@HDDGJDLK@SkyLand?5Boss?5Shield?5Setting?$CB?$CB@ ; `string'
PUBLIC	??_C@_0BD@LOIPIKDB@connect?5?3?5?$FL?$CFd?$FN?$FL?$CFs?$FN@ ; `string'
PUBLIC	?__LINE__Var@?0??gObjAddMonster@@YAFH@Z@4JA	; `gObjAddMonster'::`1'::__LINE__Var
PUBLIC	?__LINE__Var@?0??gObjAddCallMon@@YAFXZ@4JA	; `gObjAddCallMon'::`1'::__LINE__Var
PUBLIC	?__LINE__Var@?0??gObjMemFree@@YAFH@Z@4JA	; `gObjMemFree'::`1'::__LINE__Var
PUBLIC	??_C@_0CB@PNMAPJFE@?$CI?$CFs?$CJ?$CI?$CFd?$CJ?5?$DN?5index?5over?5error?5?$CI?$CFd@ ; `string'
PUBLIC	?__LINE__Var@?0??gObjGameClose@@YAHH@Z@4JA	; `gObjGameClose'::`1'::__LINE__Var
PUBLIC	??_C@_0CG@NFDFKIHI@?$FLFix?5Inv?4Ptr?$FN?5False?5Location?5?9?5@ ; `string'
PUBLIC	?__LINE__Var@?0??gObjDel@@YAFH@Z@4JA		; `gObjDel'::`1'::__LINE__Var
PUBLIC	??_C@_0BK@FHEGNDKC@?$CI?$CFd?$CJlogout?9send?5?3?5?$CFs?5?$FL?$CFs?$FN@ ; `string'
PUBLIC	??_C@_0CL@DMPMEDAE@?0?5?$CI?$CFd?$CJlogout?9send?5?3?0?5Account?5?$FL?$CF@ ; `string'
PUBLIC	??_C@_0BF@FJCKJIOE@?$CI?$CFd?$CJlogout?5?3?5?$CFs?5?$FL?$CFs?$FN@ ; `string'
PUBLIC	??_C@_0CG@GAOPIMKK@?0?5?$CI?$CFd?$CJlogout?5?3?0?5Account?5?$FL?$CFs?$FN?0?5I@ ; `string'
PUBLIC	?__LINE__Var@?0??gObjSometimeClose@@YAFH@Z@4JA	; `gObjSometimeClose'::`1'::__LINE__Var
PUBLIC	??_C@_0GB@MEEFOHBG@?$FL?5CHECK?5POSITION?5?$FN?5DbgName?$FL?$CFd?$FN?5@ ; `string'
PUBLIC	?__LINE__Var@?0??gObjSetAccountLogin@@YAHHPADHH0@Z@4JA ; `gObjSetAccountLogin'::`1'::__LINE__Var
PUBLIC	?__LINE__Var@?0??gObjGetUserNumber@@YAHH@Z@4JA	; `gObjGetUserNumber'::`1'::__LINE__Var
PUBLIC	?__LINE__Var@?0??gObjGetNumber@@YAHHAAH0@Z@4JA	; `gObjGetNumber'::`1'::__LINE__Var
PUBLIC	?__LINE__Var@?0??gObjGetAccountId@@YAPADH@Z@4JA	; `gObjGetAccountId'::`1'::__LINE__Var
PUBLIC	?__LINE__Var@?0??gObjUserIdConnectCheck@@YAHPADH@Z@4JA ; `gObjUserIdConnectCheck'::`1'::__LINE__Var
PUBLIC	??_C@_0BN@NCIMKKEA@error?5?3?5index?5error?5?$CB?$CB?5?$CFs?5?$CFd@ ; `string'
PUBLIC	?__LINE__Var@?0??gObjStateProc@@YAXPAVOBJECTSTRUCT@@HHH@Z@4JA ; `gObjStateProc'::`1'::__LINE__Var
PUBLIC	?__LINE__Var@?0??gObjStateAttackProc@@YAXPAVOBJECTSTRUCT@@HHHH@Z@4JA ; `gObjStateAttackProc'::`1'::__LINE__Var
PUBLIC	?__LINE__Var@?0??gObjBackSpring@@YAHPAVOBJECTSTRUCT@@0@Z@4JA ; `gObjBackSpring'::`1'::__LINE__Var
PUBLIC	?__LINE__Var@?0??gObjBackSpring2@@YAHPAVOBJECTSTRUCT@@0H@Z@4JA ; `gObjBackSpring2'::`1'::__LINE__Var
PUBLIC	??_C@_0FI@OHEIPIHL@Experience?5?3?5Map?$FL?$CFd?$FN?9?$CI?$CFd?0?$CFd?$CJ?5?$FL?$CF@ ; `string'
PUBLIC	??_C@_0DA@KDBPKGIM@?$FL?$CFs?$FN?$FL?$CFs?$FN?5LevelUp?5PlusStatQuest?5@ ; `string'
PUBLIC	?__LINE__Var@?0??gObjLevelUpPointAdd@@YAHEPAVOBJECTSTRUCT@@@Z@4JA ; `gObjLevelUpPointAdd'::`1'::__LINE__Var
PUBLIC	??_C@_01KDCPPGHE@r@				; `string'
PUBLIC	??_C@_0BD@BPJMFINL@file?5open?5error?5?$CFs@	; `string'
PUBLIC	??_C@_0GE@HFNAODDP@?$FL?$CFs?$FN?$FL?$CFs?$FN?5PK?5Info?5Set?5?$CIKilled?5Pl@ ; `string'
PUBLIC	??_C@_0CP@MMNCCLML@?$FLDevilSquare?$FN?5Dead?5In?5DevilSqua@ ; `string'
PUBLIC	??_C@_0DJ@HJPHEOFL@?$FLBlood?5Castle?$FN?5?$CI?$CFd?$CJ?5Try?5to?5drop@ ; `string'
PUBLIC	??_C@_0DL@COJKOION@?$FLBlood?5Castle?$FN?5?$CI?$CFd?$CJ?5Try?5to?5dele@ ; `string'
PUBLIC	??_C@_0EJ@EGIDAPD@?$FLBlood?5Castle?$FN?5?$CI?$CFd?$CJ?5Dead?5In?5Blo@ ; `string'
PUBLIC	??_C@_0EM@NNNAIELC@?$FLBlood?5Castle?$FN?5?$CI?$CFd?$CJ?5Dead?5In?5Blo@ ; `string'
PUBLIC	??_C@_07GOHPBKOH@Monster@			; `string'
PUBLIC	??_C@_0CI@JFDMHJOK@?$FL?$CFs?$FN?$FL?$CFs?$FN?5Killed?5?$FL?$CFs?$FN?$FL?$CFs?$FN?5Pos?3?$CI?$CF@ ; `string'
PUBLIC	??_C@_0EG@HIGLADFI@?$FL?$CFs?$FN?$FL?$CFs?$FN?5?$CIPkLevel?5?$DN?5?$CFd?$CJ?5Killed?5@ ; `string'
PUBLIC	??_C@_0GL@DJDDMNFC@Killed?5by?5User?5State?5Victim?3?$FL?$CFs@ ; `string'
PUBLIC	??_C@_0CJ@CKMJEEKH@?$FL?$CFs?$FN?$FL?$CFs?$FN?5User?5Die?5Item?5Drop?0?5It@ ; `string'
PUBLIC	??_C@_0CK@PAJOKIHI@?$FL?$CFs?$FN?$FL?$CFs?$FN?5Death?5reduces?5Experien@ ; `string'
PUBLIC	??_C@_0DL@HDCMLJGF@?$FL?$CFs?$FN?$FL?$CFs?$FN?$FLPetItemExpDown?$FN?5?$FL?$CFs?$FN?5L@ ; `string'
PUBLIC	??_C@_0CC@IPHFNLBG@?$FL?$CFs?$FN?$FL?$CFs?$FN?5Set?5SelfDefence?5?$FL?$CFs?$FN?$FL?$CF@ ; `string'
PUBLIC	??_C@_0CE@HGMOIFIK@?$FL?$CFs?$FN?$FL?$CFs?$FN?5ReSet?5SelfDefence?5?$FL?$CFs?$FN@ ; `string'
PUBLIC	?__LINE__Var@?0??gObjExpParty@@YAXPAVOBJECTSTRUCT@@0HH@Z@4JA ; `gObjExpParty'::`1'::__LINE__Var
PUBLIC	??_C@_0BP@GEEBCKIA@?$FL?$CFs?$FN?5derroto?5un?5Goblin?5Dorado?4@ ; `string'
PUBLIC	??_C@_0BO@EDKFBDOM@?$FL?$CFs?$FN?5derroto?5un?5Titan?5Dorado?4@ ; `string'
PUBLIC	??_C@_0BP@IAJJAOEN@?$FL?$CFs?$FN?5derroto?5un?5Dragon?5Dorado?4@ ; `string'
PUBLIC	??_C@_0CE@OLGAAMMO@?$FL?$CFs?$FN?5derroto?5un?5Lizard?5King?5Dor@ ; `string'
PUBLIC	??_C@_0CA@HJAGOCKC@?$FL?$CFs?$FN?5derroto?5un?5Tantalo?5Dorado?4@ ; `string'
PUBLIC	??_C@_0DD@JANPNOOL@?$FLBlood?5Castle?$FN?5?$CI?$CFd?$CJ?5Door?5Termin@ ; `string'
PUBLIC	??_C@_0CL@NGGLKHML@?$FLBlood?5Castle?$FN?5?$CI?$CFd?$CJ?5Door?5Termin@ ; `string'
PUBLIC	??_C@_0EG@KMNGALHI@?$FLBlood?5Castle?$FN?5?$CI?$CFd?$CJ?5a?5stone?5sta@ ; `string'
PUBLIC	??_C@_0DN@HEKHJLCJ@?$FLBlood?5Castle?$FN?5?$CI?$CFd?$CJ?5a?5stone?5sta@ ; `string'
PUBLIC	??_C@_0EM@OALGHOD@?$FLChaos?5Castle?$FN?5?$CI?$CFd?$CJ?5?$FL?$CFs?$FN?$FL?$CFs?$FN?5Us@ ; `string'
PUBLIC	??_C@_0CJ@KJGJCOOM@?$FLDuel?$FN?5?$FL?$CFs?$FN?$FL?$CFs?$FN?5Win?5Duel?0?5Loser@ ; `string'
PUBLIC	??_C@_0FA@KCJNEJFM@UPDATE?5?$FLMuOnline?$FN?4?$FLdbo?$FN?4?$FLCharac@ ; `string'
PUBLIC	??_C@_0FC@PMECEPOA@UPDATE?5?$FLMuOnline?$FN?4?$FLdbo?$FN?4?$FLCharac@ ; `string'
PUBLIC	?__LINE__Var@?0??gObjInventoryTrans@@YAHH@Z@4JA	; `gObjInventoryTrans'::`1'::__LINE__Var
PUBLIC	??_C@_0DI@CKMLLKAG@?$FL?$CFs?$FN?$FL?$CFs?$FN?5error?9L3?5?3?5pTransactio@ ; `string'
PUBLIC	??_C@_0BH@NHBCKBPB@Trade?5Transaction?5?$CI?$CFs?$CJ@ ; `string'
PUBLIC	?__LINE__Var@?0??gObjInventoryCommit@@YAHH@Z@4JA ; `gObjInventoryCommit'::`1'::__LINE__Var
PUBLIC	??_C@_0DK@NFIOKOGL@error?5?3?5gObjInventoryCommit?$CI?$CJ?5?9@ ; `string'
PUBLIC	??_C@_0CN@FHLLPNOD@?$FL?$CFs?$FN?$FL?$CFs?$FN?5error?9L3?5?3?5pTransactio@ ; `string'
PUBLIC	??_C@_0BC@PKOGNFCH@Trade?5Commit?5?$CI?$CFs?$CJ@ ; `string'
PUBLIC	?__LINE__Var@?0??gObjInventoryRollback@@YAHH@Z@4JA ; `gObjInventoryRollback'::`1'::__LINE__Var
PUBLIC	??_C@_0BE@GIFOPHN@Trade?5Rollback?5?$CI?$CFs?$CJ@ ; `string'
PUBLIC	?__LINE__Var@?0??gObjInventoryItemSet@@YAXHHE@Z@4JA ; `gObjInventoryItemSet'::`1'::__LINE__Var
PUBLIC	?__LINE__Var@?0??gObjInventoryItemBoxSet@@YAXHHHHE@Z@4JA ; `gObjInventoryItemBoxSet'::`1'::__LINE__Var
PUBLIC	??_C@_0CG@KONHFAKK@?$FLFix?5Inv?4Ptr?$FN?5?$FL?$CFs?$FN?$FL?$CFs?$FN?5?9?5discon@ ; `string'
PUBLIC	??_C@_0EB@NEEGDNDB@?$FLFix?5Inv?4Ptr?$FN?5?$FL?$CFs?$FN?$FL?$CFs?$FN?5?9?5Transa@ ; `string'
PUBLIC	??_C@_0DB@GPLONBA@?$FLFix?5Inv?4Ptr?$FN?5?$FL?$CFs?$FN?$FL?$CFs?$FN?5?9?5Invent@ ; `string'
PUBLIC	??_C@_0DF@DPJDFIHG@?$FLFix?5Inv?4Ptr?$FN?5?$FL?$CFs?$FN?$FL?$CFs?$FN?5?9?5Invent@ ; `string'
PUBLIC	?__LINE__Var@?0??gObjInventoryItemSet_PShop@@YAXHHE@Z@4JA ; `gObjInventoryItemSet_PShop'::`1'::__LINE__Var
PUBLIC	?__LINE__Var@?0??gObjInventoryItemBoxSet_PShop@@YAXHHHHE@Z@4JA ; `gObjInventoryItemBoxSet_PShop'::`1'::__LINE__Var
PUBLIC	?__LINE__Var@?0??gObjInventoryInsertItem@@YAEHH@Z@4JA ; `gObjInventoryInsertItem'::`1'::__LINE__Var
PUBLIC	?__LINE__Var@?0??gObjInventoryInsertItem@@YAEHVCItem@@@Z@4JA ; `gObjInventoryInsertItem'::`1'::__LINE__Var
PUBLIC	?__LINE__Var@?0??gObjOnlyInventoryInsertItem@@YAEHVCItem@@@Z@4JA ; `gObjOnlyInventoryInsertItem'::`1'::__LINE__Var
PUBLIC	?__LINE__Var@?0??gObjInventoryInsertItem@@YAEHPAVCMapItem@@@Z@4JA ; `gObjInventoryInsertItem'::`1'::__LINE__Var
PUBLIC	?__LINE__Var@?0??gObjSearchItemMinus@@YAHPAVOBJECTSTRUCT@@HH@Z@4JA ; `gObjSearchItemMinus'::`1'::__LINE__Var
PUBLIC	??_C@_0BB@FDAFLGGN@error?9L4?5?3?5?$CFs?5?$CFd@	; `string'
PUBLIC	?__LINE__Var@?0??gObjShopBuyInventoryInsertItem@@YAEHVCItem@@@Z@4JA ; `gObjShopBuyInventoryInsertItem'::`1'::__LINE__Var
PUBLIC	?__LINE__Var@?0??gObjShopBuyInventoryInsertItemSerial@@YAEHVCItem@@@Z@4JA ; `gObjShopBuyInventoryInsertItemSerial'::`1'::__LINE__Var
PUBLIC	?__LINE__Var@?0??gObjInventoryInsertItemTemp@@YAEPAVOBJECTSTRUCT@@PAVCMapItem@@@Z@4JA ; `gObjInventoryInsertItemTemp'::`1'::__LINE__Var
PUBLIC	?__LINE__Var@?0??gObjInventoryInsertItem@@YAEPAVOBJECTSTRUCT@@HHH@Z@4JA ; `gObjInventoryInsertItem'::`1'::__LINE__Var
PUBLIC	?__LINE__Var@?0??gObjInventoryInsertItem@@YAEPAVOBJECTSTRUCT@@HHHHH@Z@4JA ; `gObjInventoryInsertItem'::`1'::__LINE__Var
PUBLIC	?__LINE__Var@?0??gObjInventoryRectCheck@@YAEHHHHH@Z@4JA ; `gObjInventoryRectCheck'::`1'::__LINE__Var
PUBLIC	?__LINE__Var@?0??gObjOnlyInventoryRectCheck@@YAEHHHHH@Z@4JA ; `gObjOnlyInventoryRectCheck'::`1'::__LINE__Var
PUBLIC	?__LINE__Var@?0??gObjWerehouseRectCheck@@YAEHHHHH@Z@4JA ; `gObjWerehouseRectCheck'::`1'::__LINE__Var
PUBLIC	?__LINE__Var@?0??gObjMapRectCheck@@YAEPAEHHHHHH@Z@4JA ; `gObjMapRectCheck'::`1'::__LINE__Var
PUBLIC	?__LINE__Var@?0??gObjWarehouseItemBoxSet@@YAXHHHHE@Z@4JA ; `gObjWarehouseItemBoxSet'::`1'::__LINE__Var
PUBLIC	??_C@_0BF@PBCPKOJP@error?5?3?5?$CFd?1?$CFd?5?5?$CFs?5?$CFd@ ; `string'
PUBLIC	?__LINE__Var@?0??gObjWarehouseItemSet@@YAXHHE@Z@4JA ; `gObjWarehouseItemSet'::`1'::__LINE__Var
PUBLIC	?__LINE__Var@?0??gObjChaosItemBoxSet@@YAXHHHHE@Z@4JA ; `gObjChaosItemBoxSet'::`1'::__LINE__Var
PUBLIC	?__LINE__Var@?0??gObjChaosItemSet@@YAXHHE@Z@4JA	; `gObjChaosItemSet'::`1'::__LINE__Var
PUBLIC	?__LINE__Var@?0??gObjInventoryMoveItem@@YAEHEEAAH0EEPAE@Z@4JA ; `gObjInventoryMoveItem'::`1'::__LINE__Var
PUBLIC	??_C@_0BB@LFCMHNCJ@error?9L1?5?3?5?$CFs?5?$CFd@	; `string'
PUBLIC	??_C@_0EL@PCJJPCHK@?$FLPShop?$FN?5?$FL?$CFs?$FN?$FL?$CFs?$FN?5PShop?5Item?5Mov@ ; `string'
PUBLIC	??_C@_0EA@MOKNMDJN@?$FLANTI?9HACK?$FN?$FLSerial?50?5Item?$FN?5?$FLMov@ ; `string'
PUBLIC	?__LINE__Var@?0??gObjTradeRectCheck@@YAEHHHHH@Z@4JA ; `gObjTradeRectCheck'::`1'::__LINE__Var
PUBLIC	?__LINE__Var@?0??gObjTradeItemBoxSet@@YAHHHHHE@Z@4JA ; `gObjTradeItemBoxSet'::`1'::__LINE__Var
PUBLIC	?__LINE__Var@?0??gObjTradeInventoryMove@@YAEPAVOBJECTSTRUCT@@EE@Z@4JA ; `gObjTradeInventoryMove'::`1'::__LINE__Var
PUBLIC	??_C@_0DN@CJKEGDHI@?$FLANTI?9HACK?$FN?$FLSerial?50?5Item?$FN?5?$FLTra@ ; `string'
PUBLIC	?__LINE__Var@?0??gObjInventoryTradeMove@@YAEPAVOBJECTSTRUCT@@EE@Z@4JA ; `gObjInventoryTradeMove'::`1'::__LINE__Var
PUBLIC	?__LINE__Var@?0??gObjTradeTradeMove@@YAEPAVOBJECTSTRUCT@@EE@Z@4JA ; `gObjTradeTradeMove'::`1'::__LINE__Var
PUBLIC	?__LINE__Var@?0??gObjTradeCancel@@YAXH@Z@4JA	; `gObjTradeCancel'::`1'::__LINE__Var
PUBLIC	??_C@_0BK@CICIFNII@error?5?3?5index?5error?5?$CFs?5?$CFd@ ; `string'
PUBLIC	?__LINE__Var@?0??gObjTempInventoryInsertItem@@YAEPAVOBJECTSTRUCT@@VCItem@@PAE@Z@4JA ; `gObjTempInventoryInsertItem'::`1'::__LINE__Var
PUBLIC	??_C@_04BGCMBJDA@Item@				; `string'
PUBLIC	??_C@_0BK@ELKLKHDB@error?5?3?5?$MA?L?$LA?G?5?E?$KL?$MA?O?$LD?$KK?$LE?B?$MA?O?$CB?$CB@ ; `string'
PUBLIC	?__LINE__Var@?0??gObjMakePreviewCharSet@@YAXH@Z@4JA ; `gObjMakePreviewCharSet'::`1'::__LINE__Var
PUBLIC	??_C@_0FD@OILHKKPM@COUNT?3?$CFd?5?5TotalPlayer?5?3?5?$CFd?5?5Pla@ ; `string'
PUBLIC	??_C@_0M@IBFDBMCH@?3StarOfXMas@			; `string'
PUBLIC	??_C@_0N@KDMPKOEE@?3FireCracker@		; `string'
PUBLIC	??_C@_0N@MIHFOCLN@?3HeartOfLove@		; `string'
PUBLIC	??_C@_0M@CNBLPJGM@?3MedalEvent@			; `string'
PUBLIC	??_C@_0EC@MINIMHLG@?$FLPShop?$FN?5ERROR?5?3?5lpObj?9?$DOm_wVpPSh@ ; `string'
PUBLIC	??_C@_0DB@CHPPJFL@?$FLPShop?$FN?5ERROR?5?3?5iVpOpenCount?5is@ ; `string'
PUBLIC	??_C@_0DA@GGNIPOJP@?$FLPShop?$FN?5ERROR?5?3?5iVpAddCount?5is?5@ ; `string'
PUBLIC	??_C@_05LKHEONBC@Sword@				; `string'
PUBLIC	??_C@_08OMHMMHKG@Crossbow@			; `string'
PUBLIC	??_C@_05DEBCIJNP@Staff@				; `string'
PUBLIC	??_C@_0DE@KDNIOEPF@?$FLBlood?5Castle?$FN?5?$CI?$CFd?$CJ?5Ultimate?5We@ ; `string'
PUBLIC	??_C@_0BM@KBFDEFAD@?$FL?$CFs?$FN?$FL?$CFs?$FN?5CheckSumTime?5Error@ ; `string'
PUBLIC	?__LINE__Var@?0??gObjCurMoveMake@@YAHQAEPAVOBJECTSTRUCT@@@Z@4JA ; `gObjCurMoveMake'::`1'::__LINE__Var
PUBLIC	?__LINE__Var@?0??gObjMovePlayer@@YAHHEEEEE@Z@4JA ; `gObjMovePlayer'::`1'::__LINE__Var
PUBLIC	??_C@_0P@EEJEJBPC@Regen?5OK?5?$CFs?5?$CFd@	; `string'
PUBLIC	??_C@_0FH@OIJJJHHH@?$FLKalima?$FN?5?$FL?$CFs?$FN?$FL?$CFs?$FN?5Kalima?5Gate?5V@ ; `string'
PUBLIC	?__LINE__Var@?0??gObjMoveGate@@YAHHH@Z@4JA	; `gObjMoveGate'::`1'::__LINE__Var
PUBLIC	??_C@_0EG@IKFPGELB@?$FLDevilSquare?$FN?5?$FL?$CFs?$FN?$FL?$CFs?$FN?5Not?5Used@ ; `string'
PUBLIC	?__LINE__Var@?0??gObjTeleport@@YAXHHHH@Z@4JA	; `gObjTeleport'::`1'::__LINE__Var
PUBLIC	??_C@_0BB@LBNJKNBE@error?9L3?5?3?5?$CFs?5?$CFd@	; `string'
PUBLIC	?__LINE__Var@?0??gObjGetMagic@@YAPAVCMagicInf@@PAVOBJECTSTRUCT@@H@Z@4JA ; `gObjGetMagic'::`1'::__LINE__Var
PUBLIC	?__LINE__Var@?0??gObjPosMagicAttack@@YAHPAVOBJECTSTRUCT@@PAVCMagicInf@@EE@Z@4JA ; `gObjPosMagicAttack'::`1'::__LINE__Var
PUBLIC	?__LINE__Var@?0??gObjMagicAdd@@YAHPAVOBJECTSTRUCT@@EEEAAE@Z@4JA ; `gObjMagicAdd'::`1'::__LINE__Var
PUBLIC	??_C@_0CG@HFCELOAC@error?9L2?3?5Skill?5Leadership?5not?5@ ; `string'
PUBLIC	?__LINE__Var@?0??gObjMagicAdd@@YAHPAVOBJECTSTRUCT@@EE@Z@4JA ; `gObjMagicAdd'::`1'::__LINE__Var
PUBLIC	?__LINE__Var@?0??gObjWeaponMagicAdd@@YAHPAVOBJECTSTRUCT@@EE@Z@4JA ; `gObjWeaponMagicAdd'::`1'::__LINE__Var
PUBLIC	?__LINE__Var@?0??gObjMonsterMagicAdd@@YAHPAVOBJECTSTRUCT@@EE@Z@4JA ; `gObjMonsterMagicAdd'::`1'::__LINE__Var
PUBLIC	??_C@_0FO@HEPLMOKF@?$FL?$CFs?$FN?$FL?$CFs?$FN?5JewelofLife?5Result?5?$FL?$CFd@ ; `string'
PUBLIC	?__LINE__Var@?0??gObjGuildWarEndSend@@YAXPAVOBJECTSTRUCT@@EE@Z@4JA ; `gObjGuildWarEndSend'::`1'::__LINE__Var
PUBLIC	??_C@_0BH@NCOFCPCB@?$CFs?5?$CI?5?$CFu?5?$CJ?5VS?5?$CFs?5?$CI?5?$CFu?5?$CJ@ ; `string'
PUBLIC	?__LINE__Var@?0??gObjGuildWarItemGive@@YAHPAU_GUILD_INFO_STRUCT@@0@Z@4JA ; `gObjGuildWarItemGive'::`1'::__LINE__Var
PUBLIC	??_C@_0EL@FIMACGK@?$FLSummon?5Monster?$FN?5?$FL?$CFs?$FN?$FL?$CFs?$FN?5Try?5t@ ; `string'
PUBLIC	??_C@_0DH@LJCMNCCO@?$FLSummon?5Monster?$FN?5?$FL?$CFs?$FN?$FL?$CFs?$FN?5Try?5t@ ; `string'
PUBLIC	??_C@_0GB@CGCBNNKJ@?$FLSummon?5Monster?$FN?5?$FL?$CFs?$FN?$FL?$CFs?$FN?5Try?5t@ ; `string'
PUBLIC	??_C@_0GM@NPKLGGJP@?$FLSummon?5Monster?$FN?5?$FL?$CFs?$FN?$FL?$CFs?$FN?5Try?5t@ ; `string'
PUBLIC	??_C@_0CL@IFDDAPIM@?$FL?$CFd?$FN?9?$FL?$CFd?$FN?5Total?5?$CFd?5?$CFs?5?$CFd?5?$CFs?5?$CFd?5@ ; `string'
PUBLIC	??_C@_0CG@GHIPHJMP@?$FLEventChip?$FN?5?$FL?$CFs?$FN?$FL?$CFs?$FN?5Delete?5Ren@ ; `string'
PUBLIC	??_C@_0CJ@FBOHLINL@?$FLDeleteItem?$FN?5?$FL?$CFs?$FN?$FL?$CFs?$FN?5Delete?5?$CI?$CF@ ; `string'
PUBLIC	??_C@_0DL@GGMAOOIG@?$FLStatUp?$FN?5?$FL?$CFs?$FN?$FL?$CFs?$FN?5Use?5StatUpIte@ ; `string'
PUBLIC	??_C@_0CG@KNEHLHCP@?$FLStatUp?$FN?5?$FL?$CFs?$FN?$FL?$CFs?$FN?5Success?5?$FL?$CFd?$FN?$FL@ ; `string'
PUBLIC	??_C@_0BP@DLHDMMOD@?$FLStatUp?$FN?5?$FL?$CFs?$FN?$FL?$CFs?$FN?5Fail?5?$FL?$CFd?$FN?5?$CFd@ ; `string'
PUBLIC	??_C@_0HD@NHFJLKNN@?$FLChaos?5Castle?$FN?5?$FL?$CFs?$FN?$FL?$CFs?$FN?5Winner?5@ ; `string'
PUBLIC	??_C@_0HC@BKBHDGJF@?$FL?$KB?Z?$KB?YReward?$FN?$FLKUNDUN?$FN?5?$FL?$CFs?$FN?$FL?$CFs?$FN?5S@ ; `string'
PUBLIC	??_C@_0GL@CFJINBHJ@?$FLReward?$FN?$FLEtc?$FN?5?$FL?$CFs?$FN?$FL?$CFs?$FN?5Set?5Item@ ; `string'
PUBLIC	??_C@_0DM@LPHFFNDE@?$FL?$CFs?$FN?$FL?$CFs?$FN?$FLPetItemLevelUp?$FN?5?$FL?$CFs?$FN?5L@ ; `string'
PUBLIC	??_C@_0DF@GBAGDNJH@?$FLANTI?9HACK?$FN?$FLSerial?50?5Item?$FN?5?$CI?$CFs?$CJ@ ; `string'
PUBLIC	??_C@_0GP@MDNOLJFE@?$FLSKILL?5DISTANCE?5CHECK?$FN?5?$FL?$CFs?$FN?$FL?$CFs?$FN@ ; `string'
PUBLIC	??_R4StaticObject@@6B@				; StaticObject::`RTTI Complete Object Locator'
PUBLIC	??_R0?AVStaticObject@@@8			; StaticObject `RTTI Type Descriptor'
PUBLIC	??_R3StaticObject@@8				; StaticObject::`RTTI Class Hierarchy Descriptor'
PUBLIC	??_R2StaticObject@@8				; StaticObject::`RTTI Base Class Array'
PUBLIC	??_R1A@?0A@EA@StaticObject@@8			; StaticObject::`RTTI Base Class Descriptor at (0,-1,0,64)'
PUBLIC	__real@00000000
PUBLIC	__real@3951b717
PUBLIC	__real@3c23d70a
PUBLIC	__real@3ca3d70a
PUBLIC	__real@3d178d50
PUBLIC	__real@3e428f5c
PUBLIC	__real@3f000000
PUBLIC	__real@3f07ae14
PUBLIC	__real@3f800000
PUBLIC	__real@3fb999999999999a
PUBLIC	__real@3fc3333333333333
PUBLIC	__real@3fc999999999999a
PUBLIC	__real@3fd0000000000000
PUBLIC	__real@3fd3333333333333
PUBLIC	__real@3fd999999999999a
PUBLIC	__real@3fe0000000000000
PUBLIC	__real@3fe999999999999a
PUBLIC	__real@3ff0000000000000
PUBLIC	__real@3ff4cccccccccccd
PUBLIC	__real@40000000
PUBLIC	__real@40400000
PUBLIC	__real@4069000000000000
PUBLIC	__real@40c00000
PUBLIC	__real@41000000
PUBLIC	__real@41200000
PUBLIC	__real@41a00000
PUBLIC	__real@42080000
PUBLIC	__real@42340000
PUBLIC	__real@42580000
PUBLIC	__real@42c80000
PUBLIC	__real@437f0000
PUBLIC	__real@44098000
PUBLIC	__real@4494c000
PUBLIC	__real@45160000
PUBLIC	__real@bf800000
PUBLIC	__real@c0c00000
PUBLIC	__xmm@80000000800000008000000080000000
EXTRN	??_L@YGXPAXIIP6EX0@Z1@Z:PROC			; `eh vector constructor iterator'
EXTRN	??_M@YGXPAXIIP6EX0@Z@Z:PROC			; `eh vector destructor iterator'
EXTRN	??2@YAPAXI@Z:PROC				; operator new
EXTRN	??3@YAXPAXI@Z:PROC				; operator delete
EXTRN	??_U@YAPAXI@Z:PROC				; operator new[]
EXTRN	??_V@YAXPAX@Z:PROC				; operator delete[]
EXTRN	??_V@YAXPAXI@Z:PROC				; operator delete[]
EXTRN	?__global_array_delete@@YAXPAXI@Z:PROC		; __global_array_delete
EXTRN	_atexit:PROC
EXTRN	___report_rangecheckfailure:PROC
EXTRN	__invalid_parameter_noinfo:PROC
EXTRN	_isalpha:PROC
EXTRN	_isdigit:PROC
EXTRN	_isspace:PROC
EXTRN	_isalnum:PROC
EXTRN	__errno:PROC
EXTRN	_memcpy:PROC
EXTRN	_memmove:PROC
EXTRN	_memset:PROC
EXTRN	_strcat:PROC
EXTRN	_strcmp:PROC
EXTRN	_strcpy:PROC
EXTRN	__stricmp:PROC
EXTRN	_strlen:PROC
EXTRN	_strncmp:PROC
EXTRN	_strncpy:PROC
EXTRN	__imp__InitializeCriticalSection@4:PROC
EXTRN	__imp__EnterCriticalSection@4:PROC
EXTRN	__imp__LeaveCriticalSection@4:PROC
EXTRN	__imp__DeleteCriticalSection@4:PROC
EXTRN	__imp__Sleep@4:PROC
EXTRN	__imp__GetTickCount@0:PROC
EXTRN	__imp__LoadResource@8:PROC
EXTRN	__imp__LockResource@4:PROC
EXTRN	__imp__SizeofResource@8:PROC
EXTRN	__imp__FindResourceW@12:PROC
EXTRN	__imp__TextOutA@20:PROC
EXTRN	__imp__wsprintfA:PROC
EXTRN	__imp__GetDC@4:PROC
EXTRN	__imp__ReleaseDC@8:PROC
EXTRN	__imp__WideCharToMultiByte@32:PROC
EXTRN	_fclose:PROC
EXTRN	_fgetc:PROC
EXTRN	_fopen:PROC
EXTRN	_getc:PROC
EXTRN	_ungetc:PROC
EXTRN	___stdio_common_vsprintf:PROC
EXTRN	_free:PROC
EXTRN	_malloc:PROC
EXTRN	_abs:PROC
EXTRN	_rand:PROC
EXTRN	_atof:PROC
EXTRN	_atoi:PROC
EXTRN	__localtime64_s:PROC
EXTRN	_strftime:PROC
EXTRN	__time64:PROC
EXTRN	?AfxThrowMemoryException@@YGXXZ:PROC		; AfxThrowMemoryException
EXTRN	?AfxThrowOleException@@YGXJ@Z:PROC		; AfxThrowOleException
EXTRN	?AfxFindStringResourceHandle@@YGPAUHINSTANCE__@@I@Z:PROC ; AfxFindStringResourceHandle
EXTRN	_sqrt:PROC
EXTRN	?AfxGetStringManager@@YGPAUIAtlStringMgr@ATL@@XZ:PROC ; AfxGetStringManager
EXTRN	?MsgBox@@YAXPADZZ:PROC				; MsgBox
EXTRN	__imp_?Get@CMsg@@QAEPADH@Z:PROC
EXTRN	??0CItem@@QAE@XZ:PROC				; CItem::CItem
EXTRN	?Convert@CItem@@QAEXHEEEEEE@Z:PROC		; CItem::Convert
EXTRN	?GetSize@CItem@@QAEHAAH0@Z:PROC			; CItem::GetSize
EXTRN	?Clear@CItem@@QAEXXZ:PROC			; CItem::Clear
EXTRN	?IsItem@CItem@@QAEHXZ:PROC			; CItem::IsItem
EXTRN	?IsSetItem@CItem@@QAEHXZ:PROC			; CItem::IsSetItem
EXTRN	?SetPetItemInfo@CItem@@QAEXHH@Z:PROC		; CItem::SetPetItemInfo
EXTRN	?AddPetItemExp@CItem@@QAEHH@Z:PROC		; CItem::AddPetItemExp
EXTRN	?DecPetItemExp@CItem@@QAEHH@Z:PROC		; CItem::DecPetItemExp
EXTRN	?PetItemLevelDown@CItem@@QAEHH@Z:PROC		; CItem::PetItemLevelDown
EXTRN	?IsClass@CItem@@QAEHDH@Z:PROC			; CItem::IsClass
EXTRN	?GetName@CItem@@QAEPADXZ:PROC			; CItem::GetName
EXTRN	?GetNumber@CItem@@QAEKXZ:PROC			; CItem::GetNumber
EXTRN	?IsExtItem@CItem@@QAEHXZ:PROC			; CItem::IsExtItem
EXTRN	?IsExtLifeAdd@CItem@@QAEHXZ:PROC		; CItem::IsExtLifeAdd
EXTRN	?IsExtManaAdd@CItem@@QAEHXZ:PROC		; CItem::IsExtManaAdd
EXTRN	?IsExtDamageMinus@CItem@@QAEHXZ:PROC		; CItem::IsExtDamageMinus
EXTRN	?IsExtDamageReflect@CItem@@QAEHXZ:PROC		; CItem::IsExtDamageReflect
EXTRN	?IsExtDefenseSuccessfull@CItem@@QAEHXZ:PROC	; CItem::IsExtDefenseSuccessfull
EXTRN	?IsExtMonsterMoney@CItem@@QAEHXZ:PROC		; CItem::IsExtMonsterMoney
EXTRN	?DurabilityDown@CItem@@QAEHHH@Z:PROC		; CItem::DurabilityDown
EXTRN	?DurabilityDown2@CItem@@QAEHHH@Z:PROC		; CItem::DurabilityDown2
EXTRN	?NormalWeaponDurabilityDown@CItem@@QAEHHH@Z:PROC ; CItem::NormalWeaponDurabilityDown
EXTRN	?BowWeaponDurabilityDown@CItem@@QAEHHH@Z:PROC	; CItem::BowWeaponDurabilityDown
EXTRN	?StaffWeaponDurabilityDown@CItem@@QAEHHH@Z:PROC	; CItem::StaffWeaponDurabilityDown
EXTRN	?ArmorDurabilityDown@CItem@@QAEHHH@Z:PROC	; CItem::ArmorDurabilityDown
EXTRN	?CheckExcOption@CItem@@QAEHH@Z:PROC		; CItem::CheckExcOption
EXTRN	?ItemGetNumberMake@@YAHHH@Z:PROC		; ItemGetNumberMake
EXTRN	?ItemByteConvert@@YAXPAEVCItem@@@Z:PROC		; ItemByteConvert
EXTRN	?GetLevelItem@@YAHHHH@Z:PROC			; GetLevelItem
EXTRN	?zzzItemLevel@@YAHHHH@Z:PROC			; zzzItemLevel
EXTRN	?BufferItemtoConvert3@@YAXPAEAAHAAE2222@Z:PROC	; BufferItemtoConvert3
EXTRN	?IsItem@@YAHH@Z:PROC				; IsItem
EXTRN	?ItemGetDurability@@YAHHHHH@Z:PROC		; ItemGetDurability
EXTRN	??0CMagicInf@@QAE@XZ:PROC			; CMagicInf::CMagicInf
EXTRN	??1CMagicInf@@UAE@XZ:PROC			; CMagicInf::~CMagicInf
EXTRN	?IsMagic@CMagicInf@@QAEHXZ:PROC			; CMagicInf::IsMagic
EXTRN	?Clear@CMagicInf@@QAEXXZ:PROC			; CMagicInf::Clear
EXTRN	?Set@CMagicInf@@QAEHEEE@Z:PROC			; CMagicInf::Set
EXTRN	?Set@CMagicInf@@QAEHEE@Z:PROC			; CMagicInf::Set
EXTRN	?GetSkillNumberInex@@YAHHHH@Z:PROC		; GetSkillNumberInex
EXTRN	?CloseClient@@YAXH@Z:PROC			; CloseClient
EXTRN	?DataSend@@YAHHPAEK@Z:PROC			; DataSend
EXTRN	?ResponErrorCloseClient@@YAXH@Z:PROC		; ResponErrorCloseClient
EXTRN	?Add@CLoginCount@@QAEXXZ:PROC			; CLoginCount::Add
EXTRN	?Delete@CLoginCount@@QAEXXZ:PROC		; CLoginCount::Delete
EXTRN	?DeleteUser@CEngagePVP@@QAEXH@Z:PROC		; CEngagePVP::DeleteUser
EXTRN	??0CSkillDelay@@QAE@XZ:PROC			; CSkillDelay::CSkillDelay
EXTRN	??1CSkillDelay@@UAE@XZ:PROC			; CSkillDelay::~CSkillDelay
EXTRN	?Init@CSkillDelay@@QAEXXZ:PROC			; CSkillDelay::Init
EXTRN	??0PacketStatistics@@QAE@XZ:PROC		; PacketStatistics::PacketStatistics
EXTRN	??1PacketStatistics@@QAE@XZ:PROC		; PacketStatistics::~PacketStatistics
EXTRN	?Init@PacketStatistics@@QAEXK@Z:PROC		; PacketStatistics::Init
EXTRN	?GCCloseMsgSend@@YAXHE@Z:PROC			; GCCloseMsgSend
EXTRN	?GCServerMsgStringSend@@YAXPADHE@Z:PROC		; GCServerMsgStringSend
EXTRN	?GCMapEventStateSend@@YAXHEE@Z:PROC		; GCMapEventStateSend
EXTRN	?MsgSendV2@@YAXPAVOBJECTSTRUCT@@PAEH@Z:PROC	; MsgSendV2
EXTRN	?GCCheckMainExeKeySend@@YAXH@Z:PROC		; GCCheckMainExeKeySend
EXTRN	?GCResultSend@@YAXHEE@Z:PROC			; GCResultSend
EXTRN	?RecvPositionSetProc@@YAXPAUPMSG_POSISTION_SET@@H@Z:PROC ; RecvPositionSetProc
EXTRN	?GCReFillSend@@YAXHGEE@Z:PROC			; GCReFillSend
EXTRN	?CGWeatherSend@@YAXHE@Z:PROC			; CGWeatherSend
EXTRN	?GCLevelUpMsgSend@@YAXHGGGGGFF@Z:PROC		; GCLevelUpMsgSend
EXTRN	?GCManaSend@@YAXHFEEG@Z:PROC			; GCManaSend
EXTRN	?GCDiePlayerSend@@YAXPAVOBJECTSTRUCT@@HEH@Z:PROC ; GCDiePlayerSend
EXTRN	?GCDamageSend@@YAXHHHHH@Z:PROC			; GCDamageSend
EXTRN	?GCDamageSend@@YAXHH@Z:PROC			; GCDamageSend
EXTRN	?GCMagicCancelSend@@YAXPAVOBJECTSTRUCT@@E@Z:PROC ; GCMagicCancelSend
EXTRN	?GCTeleportSend@@YAXPAVOBJECTSTRUCT@@EEEEE@Z:PROC ; GCTeleportSend
EXTRN	?GCMagicListOneSend@@YAXHDEEE@Z:PROC		; GCMagicListOneSend
EXTRN	?GCMagicListOneDelSend@@YAXHDEEE@Z:PROC		; GCMagicListOneDelSend
EXTRN	?GCMagicListMultiSend@@YAXPAVOBJECTSTRUCT@@@Z:PROC ; GCMagicListMultiSend
EXTRN	?GCKillPlayerExpSend@@YAXHHHHH@Z:PROC		; GCKillPlayerExpSend
EXTRN	?GCMagicAttackNumberSend@@YAXPAVOBJECTSTRUCT@@EHE@Z:PROC ; GCMagicAttackNumberSend
EXTRN	?GCManagerGuildWarEnd@@YAXPAD@Z:PROC		; GCManagerGuildWarEnd
EXTRN	?GCGuildWarEnd@@YAXHEPAD@Z:PROC			; GCGuildWarEnd
EXTRN	?GCGuildWarScore@@YAXH@Z:PROC			; GCGuildWarScore
EXTRN	?GCTradeOtherAdd@@YAHHEEEEEE@Z:PROC		; GCTradeOtherAdd
EXTRN	?GCTradeOtherDel@@YAHHE@Z:PROC			; GCTradeOtherDel
EXTRN	?CGTradeResult@@YAXHE@Z:PROC			; CGTradeResult
EXTRN	?CGTradeCancelButtonRecv@@YAXH@Z:PROC		; CGTradeCancelButtonRecv
EXTRN	?CGItemDropRequest@@YAHPAUPMSG_ITEMTHROW@@HH@Z:PROC ; CGItemDropRequest
EXTRN	?GCPkLevelSend@@YAXHE@Z:PROC			; GCPkLevelSend
EXTRN	?GCMoneySend@@YAXHK@Z:PROC			; GCMoneySend
EXTRN	?GCEquipmentSend@@YAXH@Z:PROC			; GCEquipmentSend
EXTRN	?GCEquipmentChange@@YAXHH@Z:PROC		; GCEquipmentChange
EXTRN	?CGPartyDelUser@@YAXPAUPMSG_PARTYDELUSER@@H@Z:PROC ; CGPartyDelUser
EXTRN	?GCItemUseSpecialTimeSend@@YAXHEH@Z:PROC	; GCItemUseSpecialTimeSend
EXTRN	?GCItemDurSend@@YAXHEEE@Z:PROC			; GCItemDurSend
EXTRN	?GCItemDurSend2@@YAXHEEE@Z:PROC			; GCItemDurSend2
EXTRN	?GCInventoryItemDeleteSend@@YAXHEE@Z:PROC	; GCInventoryItemDeleteSend
EXTRN	?GCJoinSocketResult@@YAXEI@Z:PROC		; GCJoinSocketResult
EXTRN	?CGWarehouseUseEnd@@YAXH@Z:PROC			; CGWarehouseUseEnd
EXTRN	?GCRecallMonLife@@YAXHHH@Z:PROC			; GCRecallMonLife
EXTRN	?GCTimeViewSend@@YAXHH@Z:PROC			; GCTimeViewSend
EXTRN	?PHeadSetB@@YAXPAEEH@Z:PROC			; PHeadSetB
EXTRN	?PHeadSubSetB@@YAXPAEEEH@Z:PROC			; PHeadSubSetB
EXTRN	?PHeadSubSetW@@YAXPAEEEH@Z:PROC			; PHeadSubSetW
EXTRN	?GCStateInfoSend@@YAXPAVOBJECTSTRUCT@@EG@Z:PROC	; GCStateInfoSend
EXTRN	?GCItemMoveResultSend@@YAXHEEQAE@Z:PROC		; GCItemMoveResultSend
EXTRN	?GCSendDuelScore@@YAXHH@Z:PROC			; GCSendDuelScore
EXTRN	?CGUseItemRecv@@YAXPAUPMSG_USEITEM@@H@Z:PROC	; CGUseItemRecv
EXTRN	?MakeNoticeMsgEx@TNotice@@SAXPAXEPADZZ:PROC	; TNotice::MakeNoticeMsgEx
EXTRN	??0TNotice@@QAE@E@Z:PROC			; TNotice::TNotice
EXTRN	?SendToAllUser@TNotice@@QAAXPADZZ:PROC		; TNotice::SendToAllUser
EXTRN	?ExecFormat@CDataBase@@QAA_NPBDZZ:PROC		; CDataBase::ExecFormat
EXTRN	?KCredits@CManager@@QAEHPAD@Z:PROC		; CManager::KCredits
EXTRN	?_checkCondition@CDynamicExperience@@QAEMPAVOBJECTSTRUCT@@@Z:PROC ; CDynamicExperience::_checkCondition
EXTRN	?_getNewExperience@CDynamicExperience@@QAEKKM@Z:PROC ; CDynamicExperience::_getNewExperience
EXTRN	?AddTimeBonus@@YAXH@Z:PROC			; AddTimeBonus
EXTRN	?MakeItemNumber@@YAHHH@Z:PROC			; MakeItemNumber
EXTRN	?PHeadSetBE@@YAXPAEEH@Z:PROC			; PHeadSetBE
EXTRN	?GetDefPoint@classdef@@QAEHH@Z:PROC		; classdef::GetDefPoint
EXTRN	?GCItemListSend@@YAXH@Z:PROC			; GCItemListSend
EXTRN	?GJPUserClose@@YAXPAVOBJECTSTRUCT@@@Z:PROC	; GJPUserClose
EXTRN	?GetLevelPos@MapClass@@QAEXFAAF0@Z:PROC		; MapClass::GetLevelPos
EXTRN	?GetMapPos@MapClass@@QAEXFAAF0@Z:PROC		; MapClass::GetMapPos
EXTRN	?GetRandomLengthPos@MapClass@@QAEXAAF0H@Z:PROC	; MapClass::GetRandomLengthPos
EXTRN	?GetWeather@MapClass@@QAEEXZ:PROC		; MapClass::GetWeather
EXTRN	?StateSetDestroy@MapClass@@QAEXXZ:PROC		; MapClass::StateSetDestroy
EXTRN	?SetStandAttr@MapClass@@QAEXHH@Z:PROC		; MapClass::SetStandAttr
EXTRN	?ClearStandAttr@MapClass@@QAEXHH@Z:PROC		; MapClass::ClearStandAttr
EXTRN	?GetAttr@MapClass@@QAEEHH@Z:PROC		; MapClass::GetAttr
EXTRN	?MapNumberCheck@@YAHH@Z:PROC			; MapNumberCheck
EXTRN	_AngleMatrix:PROC
EXTRN	_VectorRotate:PROC
EXTRN	?GetPosition@CMonsterSetBase@@QAEHHFAAF0@Z:PROC	; CMonsterSetBase::GetPosition
EXTRN	?GetAttr@CMonsterAttr@@QAEPAUMONSTER_ATTRIBUTE@@H@Z:PROC ; CMonsterAttr::GetAttr
EXTRN	?gObjMonsterTopHitDamageUser@@YAHPAVOBJECTSTRUCT@@@Z:PROC ; gObjMonsterTopHitDamageUser
EXTRN	?gObjMonsterProcess@@YAXPAVOBJECTSTRUCT@@@Z:PROC ; gObjMonsterProcess
EXTRN	?gObjMonsterStateProc@@YAXPAVOBJECTSTRUCT@@HH@Z:PROC ; gObjMonsterStateProc
EXTRN	?gObjMonsterRegen@@YAHPAVOBJECTSTRUCT@@@Z:PROC	; gObjMonsterRegen
EXTRN	?gObjMonsterSetHitDamage@@YAXPAVOBJECTSTRUCT@@HH@Z:PROC ; gObjMonsterSetHitDamage
EXTRN	?gObjMonsterHitDamageInit@@YAXPAVOBJECTSTRUCT@@@Z:PROC ; gObjMonsterHitDamageInit
EXTRN	?gObjMonsterHitDamageUserDel@@YAHPAVOBJECTSTRUCT@@@Z:PROC ; gObjMonsterHitDamageUserDel
EXTRN	?gObjRefillMonsterHP@@YAXPAVOBJECTSTRUCT@@H@Z:PROC ; gObjRefillMonsterHP
EXTRN	?Run@CQeustNpcTeleport@@QAEXH@Z:PROC		; CQeustNpcTeleport::Run
EXTRN	?GJSetCharacterInfo@@YAXPAVOBJECTSTRUCT@@HH@Z:PROC ; GJSetCharacterInfo
EXTRN	?ItemSerialCreateSend@@YAXHEEEHEEEEEHEEH@Z:PROC	; ItemSerialCreateSend
EXTRN	?GDSetWarehouseList@@YAXH@Z:PROC		; GDSetWarehouseList
EXTRN	?GDSetWarehouseMoney@@YAXH@Z:PROC		; GDSetWarehouseMoney
EXTRN	?gObjRequestPetItemInfo@@YAXHH@Z:PROC		; gObjRequestPetItemInfo
EXTRN	?GDCharClose@@YAXHPAD0@Z:PROC			; GDCharClose
EXTRN	?DGGuildScoreUpdate@@YAXPADH@Z:PROC		; DGGuildScoreUpdate
EXTRN	?SkillGetMana@CMagicDamage@@QAEHH@Z:PROC	; CMagicDamage::SkillGetMana
EXTRN	?SkillGetRequireEnergy@CMagicDamage@@QAEHH@Z:PROC ; CMagicDamage::SkillGetRequireEnergy
EXTRN	?SkillGetRequireClass@CMagicDamage@@QAEHHHH@Z:PROC ; CMagicDamage::SkillGetRequireClass
EXTRN	?SkillGetBP@CMagicDamage@@QAEHH@Z:PROC		; CMagicDamage::SkillGetBP
EXTRN	?GetskillRequireLeadership@CMagicDamage@@QAEHH@Z:PROC ; CMagicDamage::GetskillRequireLeadership
EXTRN	?GetSkillType@CMagicDamage@@QAEHH@Z:PROC	; CMagicDamage::GetSkillType
EXTRN	?GetSkillDistance@CMagicDamage@@QAEHH@Z:PROC	; CMagicDamage::GetSkillDistance
EXTRN	?IsGate@CGate@@QAEHH@Z:PROC			; CGate::IsGate
EXTRN	?GetGate@CGate@@QAEHHAAF0AAE10@Z:PROC		; CGate::GetGate
EXTRN	?GetIndex@PartyClass@@QAEHHHH@Z:PROC		; PartyClass::GetIndex
EXTRN	?PartyMemberLifeSend@PartyClass@@QAEXH@Z:PROC	; PartyClass::PartyMemberLifeSend
EXTRN	?IsIp@CAcceptIp@@QAEHPAD@Z:PROC			; CAcceptIp::IsIp
EXTRN	?DelIp@CIpCache@@QAEXPAD@Z:PROC			; CIpCache::DelIp
EXTRN	??0CViewportGuild@@QAE@XZ:PROC			; CViewportGuild::CViewportGuild
EXTRN	??1CViewportGuild@@UAE@XZ:PROC			; CViewportGuild::~CViewportGuild
EXTRN	?Init@CViewportGuild@@QAEXXZ:PROC		; CViewportGuild::Init
EXTRN	?Add@CViewportGuild@@QAEHHH@Z:PROC		; CViewportGuild::Add
EXTRN	?ManagementProc@CGMMng@@QAEHPAVOBJECTSTRUCT@@PADH@Z:PROC ; CGMMng::ManagementProc
EXTRN	?ManagerAdd@CGMMng@@QAEHPADH@Z:PROC		; CGMMng::ManagerAdd
EXTRN	?ManagerDel@CGMMng@@QAEXPAD@Z:PROC		; CGMMng::ManagerDel
EXTRN	?BattleInfoSend@CGMMng@@QAEXPADE0E@Z:PROC	; CGMMng::BattleInfoSend
EXTRN	?ChaosBoxInit@CMixSystem@@QAEHPAVOBJECTSTRUCT@@@Z:PROC ; CMixSystem::ChaosBoxInit
EXTRN	?init@NSerialCheck@@QAEXXZ:PROC			; NSerialCheck::init
EXTRN	?gDevilSquareMonsterRegen@CDevilSquare@@QAEXPAVOBJECTSTRUCT@@@Z:PROC ; CDevilSquare::gDevilSquareMonsterRegen
EXTRN	?DieProcDevilSquare@CDevilSquare@@QAEXPAVOBJECTSTRUCT@@@Z:PROC ; CDevilSquare::DieProcDevilSquare
EXTRN	?gObjMonsterExpSingle@CDevilSquare@@QAEHPAVOBJECTSTRUCT@@0HH@Z:PROC ; CDevilSquare::gObjMonsterExpSingle
EXTRN	?gObjExpParty@CDevilSquare@@QAEXPAVOBJECTSTRUCT@@0HH@Z:PROC ; CDevilSquare::gObjExpParty
EXTRN	?gObjMonsterScoreDivision@CDevilSquare@@QAEXPAVOBJECTSTRUCT@@0HH@Z:PROC ; CDevilSquare::gObjMonsterScoreDivision
EXTRN	?gBattleGroundEnable@@YAXHH@Z:PROC		; gBattleGroundEnable
EXTRN	?gCheckBattleGroundTimer@@YAHXZ:PROC		; gCheckBattleGroundTimer
EXTRN	?gBattleGetTeamPosition@@YAXHHAAF0@Z:PROC	; gBattleGetTeamPosition
EXTRN	?GetBattleTeamName@@YAPADHH@Z:PROC		; GetBattleTeamName
EXTRN	?SetBattleTeamScore@@YAXHHH@Z:PROC		; SetBattleTeamScore
EXTRN	?GetBattleTeamScore@@YAHHH@Z:PROC		; GetBattleTeamScore
EXTRN	?BattleSoccerGoalStart@@YAXH@Z:PROC		; BattleSoccerGoalStart
EXTRN	?CheckMainToMove@CMoveCommand@@QAEHPAVOBJECTSTRUCT@@@Z:PROC ; CMoveCommand::CheckMainToMove
EXTRN	?CheckEquipmentToMove@CMoveCommand@@QAEHPAVOBJECTSTRUCT@@H@Z:PROC ; CMoveCommand::CheckEquipmentToMove
EXTRN	?CheckInterfaceToMove@CMoveCommand@@QAEHPAVOBJECTSTRUCT@@@Z:PROC ; CMoveCommand::CheckInterfaceToMove
EXTRN	?Update@cOffExp@@QAE_NHE@Z:PROC			; cOffExp::Update
EXTRN	?TickTimes@cOffExp@@QAEXH@Z:PROC		; cOffExp::TickTimes
EXTRN	?DelCash@CWhisperCash@@QAEXPAD@Z:PROC		; CWhisperCash::DelCash
EXTRN	?SearchUserDeleteQuestItem@CBloodCastle@@QAEXH@Z:PROC ; CBloodCastle::SearchUserDeleteQuestItem
EXTRN	?SearchUserDropQuestItem@CBloodCastle@@QAEXH@Z:PROC ; CBloodCastle::SearchUserDropQuestItem
EXTRN	?SetUserState@CBloodCastle@@QAEXHH@Z:PROC	; CBloodCastle::SetUserState
EXTRN	?SendCastleDoorBlockInfo@CBloodCastle@@QAEXH_N@Z:PROC ; CBloodCastle::SendCastleDoorBlockInfo
EXTRN	?SendNoticeMessage@CBloodCastle@@QAEXHPAD@Z:PROC ; CBloodCastle::SendNoticeMessage
EXTRN	?ReleaseCastleDoor@CBloodCastle@@QAEXH@Z:PROC	; CBloodCastle::ReleaseCastleDoor
EXTRN	?CheckMonsterKillSuccess@CBloodCastle@@QAE_NH@Z:PROC ; CBloodCastle::CheckMonsterKillSuccess
EXTRN	?CheckBossKillSuccess@CBloodCastle@@QAE_NH@Z:PROC ; CBloodCastle::CheckBossKillSuccess
EXTRN	?GetCurrentLiveUserCount@CBloodCastle@@QAEHH@Z:PROC ; CBloodCastle::GetCurrentLiveUserCount
EXTRN	?SetBossMonster@CBloodCastle@@QAEXH@Z:PROC	; CBloodCastle::SetBossMonster
EXTRN	?GetCurrentState@CBloodCastle@@QAEHH@Z:PROC	; CBloodCastle::GetCurrentState
EXTRN	?ChangeMonsterState@CBloodCastle@@QAEXHH@Z:PROC	; CBloodCastle::ChangeMonsterState
EXTRN	?SetUserState@CChaosCastle@@QAEXHH@Z:PROC	; CChaosCastle::SetUserState
EXTRN	?DelMonsterList@CChaosCastle@@QAEXHH@Z:PROC	; CChaosCastle::DelMonsterList
EXTRN	?SendFailMessage@CChaosCastle@@QAEXHH@Z:PROC	; CChaosCastle::SendFailMessage
EXTRN	?GetCurrentState@CChaosCastle@@QAEHH@Z:PROC	; CChaosCastle::GetCurrentState
EXTRN	?SearchNBlowObjs@CChaosCastle@@QAEXHHH@Z:PROC	; CChaosCastle::SearchNBlowObjs
EXTRN	?Init@CMultiAttackHackCheck@@QAEXXZ:PROC	; CMultiAttackHackCheck::Init
EXTRN	?GetQuestState@CQuestInfo@@QAEHPAVOBJECTSTRUCT@@H@Z:PROC ; CQuestInfo::GetQuestState
EXTRN	?ReSetQuestState@CQuestInfo@@QAEEPAVOBJECTSTRUCT@@H@Z:PROC ; CQuestInfo::ReSetQuestState
EXTRN	?GetMaxStat@CStatMng@@QAEHHH@Z:PROC		; CStatMng::GetMaxStat
EXTRN	?RunningSkill@CObjUseSkill@@QAEHHHPAVCMagicInf@@H@Z:PROC ; CObjUseSkill::RunningSkill
EXTRN	?SkillChangeUse@CObjUseSkill@@QAEHH@Z:PROC	; CObjUseSkill::SkillChangeUse
EXTRN	?Attack@CObjAttack@@QAEHPAVOBJECTSTRUCT@@0PAVCMagicInf@@HEHH@Z:PROC ; CObjAttack::Attack
EXTRN	?ClearCheckSum@CPacketCheckSum@@QAEXH@Z:PROC	; CPacketCheckSum::ClearCheckSum
EXTRN	?gObjCalCharacter@@YAXH@Z:PROC			; gObjCalCharacter
EXTRN	?CheckGoldDercon@CEledoradoEvent@@QAEXH@Z:PROC	; CEledoradoEvent::CheckGoldDercon
EXTRN	?GetSetOptionName@CSetItemOption@@QAEPADHH@Z:PROC ; CSetItemOption::GetSetOptionName
EXTRN	?GenRandomItemNum@CSetItemOption@@QAEHXZ:PROC	; CSetItemOption::GenRandomItemNum
EXTRN	?GenSetOption@CSetItemOption@@QAEHH@Z:PROC	; CSetItemOption::GenSetOption
EXTRN	?Run@CDarkSpirit@@QAEXXZ:PROC			; CDarkSpirit::Run
EXTRN	?ReSetTarget@CDarkSpirit@@QAEXH@Z:PROC		; CDarkSpirit::ReSetTarget
EXTRN	?SetMode@CDarkSpirit@@QAEXW4ePetItem_Mode@1@H@Z:PROC ; CDarkSpirit::SetMode
EXTRN	?Attack@CDarkSpirit@@QAEHPAVOBJECTSTRUCT@@0PAVCMagicInf@@HH@Z:PROC ; CDarkSpirit::Attack
EXTRN	?SendLevelmsg@CDarkSpirit@@SAXHHHH@Z:PROC	; CDarkSpirit::SendLevelmsg
EXTRN	?DeleteKalimaGate@CKalimaGate@@QAEHH@Z:PROC	; CKalimaGate::DeleteKalimaGate
EXTRN	??_EStaticObject@@UAEPAXI@Z:PROC		; StaticObject::`vector deleting destructor'
EXTRN	?gCheckBattleGround@@YAHPAVOBJECTSTRUCT@@@Z:PROC ; gCheckBattleGround
EXTRN	?CGPShopAnsBuyList@@YAXHHE_N@Z:PROC		; CGPShopAnsBuyList
EXTRN	?CGPShopAnsDealerClosedShop@@YAXHH@Z:PROC	; CGPShopAnsDealerClosedShop
EXTRN	@__security_check_cookie@4:PROC
EXTRN	___CxxFrameHandler3:PROC
EXTRN	__chkstk:PROC
EXTRN	__dtoui3:PROC
EXTRN	__except_handler4:PROC
EXTRN	__ftol2_sse:PROC
EXTRN	_memset:PROC
EXTRN	??_7type_info@@6B@:QWORD			; type_info::`vftable'
EXTRN	?LogAdd@@3P6AXPADZZA:DWORD			; LogAdd
EXTRN	?LogAddC@@3P6AXEPADZZA:DWORD			; LogAddC
EXTRN	?LogAddL@@3P6AXPADZZA:DWORD			; LogAddL
EXTRN	?LogAddTD@@3P6AXPADZZA:DWORD			; LogAddTD
EXTRN	?LogAddTD_TempLog@@3P6AXPADZZA:DWORD		; LogAddTD_TempLog
EXTRN	?ItemAttribute@@3PAUITEM_ATTRIBUTE@@A:BYTE	; ItemAttribute
EXTRN	?g_PvpEvent@@3VCEngagePVP@@A:BYTE		; g_PvpEvent
EXTRN	?gLCount@@3PAVCLoginCount@@A:BYTE		; gLCount
EXTRN	?Manager@@3VCManager@@A:BYTE			; Manager
EXTRN	?g_GlobalConfig@@3VCGlobalConfig@@A:BYTE	; g_GlobalConfig
EXTRN	?g_TerrainManager@@3VCTerrainManager@@A:BYTE	; g_TerrainManager
EXTRN	?_dynamic_experience@@3VCDynamicExperience@@A:BYTE ; _dynamic_experience
EXTRN	?lMsg@@3VCMsg@@A:BYTE				; lMsg
EXTRN	?gCurPaintMapNumber@@3HA:DWORD			; gCurPaintMapNumber
EXTRN	?gConnectBonus@@3HA:DWORD			; gConnectBonus
EXTRN	?gPkTime@@3HA:DWORD				; gPkTime
EXTRN	?MapC@@3PAVMapClass@@A:DWORD			; MapC
EXTRN	?gLevelExperience@@3PAKA:BYTE			; gLevelExperience
EXTRN	?gItemNumberCount@@3KA:DWORD			; gItemNumberCount
EXTRN	?gPkItemDrop@@3HA:DWORD				; gPkItemDrop
EXTRN	?gGuildCreateLevel@@3HA:DWORD			; gGuildCreateLevel
EXTRN	?gItemSerialCheck@@3HA:DWORD			; gItemSerialCheck
EXTRN	?gAddExperience@@3MA:DWORD			; gAddExperience
EXTRN	?gLanguage@@3HA:DWORD				; gLanguage
EXTRN	?gPkLimitFree@@3HA:DWORD			; gPkLimitFree
EXTRN	?gXMasEvent@@3HA:DWORD				; gXMasEvent
EXTRN	?gFireCrackerEvent@@3HA:DWORD			; gFireCrackerEvent
EXTRN	?gHeartOfLoveEvent@@3HA:DWORD			; gHeartOfLoveEvent
EXTRN	?gMedalEvent@@3HA:DWORD				; gMedalEvent
EXTRN	?gApplyHeroSystem@@3HA:DWORD			; gApplyHeroSystem
EXTRN	?gDoPShopOpen@@3HA:DWORD			; gDoPShopOpen
EXTRN	?giKundunRefillHPSec@@3HA:DWORD			; giKundunRefillHPSec
EXTRN	?gDarkSpiritAddExperience@@3MA:DWORD		; gDarkSpiritAddExperience
EXTRN	?g_iSkillDistanceCheck@@3HA:DWORD		; g_iSkillDistanceCheck
EXTRN	?g_iSkillDistanceCheckTemp@@3HA:DWORD		; g_iSkillDistanceCheckTemp
EXTRN	?gQeustNpcTeleport@@3VCQeustNpcTeleport@@A:BYTE	; gQeustNpcTeleport
EXTRN	?MagicDamageC@@3VCMagicDamage@@A:BYTE		; MagicDamageC
EXTRN	?gGateC@@3VCGate@@A:BYTE			; gGateC
EXTRN	?acceptIP@@3VCAcceptIp@@A:BYTE			; acceptIP
EXTRN	?IpCache@@3VCIpCache@@A:BYTE			; IpCache
EXTRN	?cManager@@3VCGMMng@@A:BYTE			; cManager
EXTRN	?g_MixSystem@@3VCMixSystem@@A:BYTE		; g_MixSystem
EXTRN	?g_DevilSquare@@3VCDevilSquare@@A:BYTE		; g_DevilSquare
EXTRN	?gBSGround@@3PAPAVCBattleSoccer@@A:DWORD	; gBSGround
EXTRN	?gMoveCommand@@3VCMoveCommand@@A:BYTE		; gMoveCommand
EXTRN	?OffExp@@3VcOffExp@@A:BYTE			; OffExp
EXTRN	?WhisperCash@@3VCWhisperCash@@A:BYTE		; WhisperCash
EXTRN	?g_BloodCastle@@3VCBloodCastle@@A:BYTE		; g_BloodCastle
EXTRN	?g_ChaosCastle@@3VCChaosCastle@@A:BYTE		; g_ChaosCastle
EXTRN	?gMultiAttackHackCheck@@3PAVCMultiAttackHackCheck@@A:BYTE ; gMultiAttackHackCheck
EXTRN	?g_QuestInfo@@3VCQuestInfo@@A:BYTE		; g_QuestInfo
EXTRN	?gStatMng@@3VCStatMng@@A:BYTE			; gStatMng
EXTRN	?gObjUseSkill@@3VCObjUseSkill@@A:DWORD		; gObjUseSkill
EXTRN	?gclassObjAttack@@3VCObjAttack@@A:DWORD		; gclassObjAttack
EXTRN	?gPacketCheckSum@@3VCPacketCheckSum@@A:BYTE	; gPacketCheckSum
EXTRN	?gEledoradoEvent@@3VCEledoradoEvent@@A:BYTE	; gEledoradoEvent
EXTRN	?gSetItemOption@@3VCSetItemOption@@A:BYTE	; gSetItemOption
EXTRN	?gDarkSpirit@@3PAVCDarkSpirit@@A:BYTE		; gDarkSpirit
EXTRN	?gMAttr@@3VCMonsterAttr@@A:BYTE			; gMAttr
EXTRN	?gMSetBase@@3VCMonsterSetBase@@A:BYTE		; gMSetBase
EXTRN	?DCInfo@@3Vclassdef@@A:BYTE			; DCInfo
EXTRN	?gParty@@3VPartyClass@@A:BYTE			; gParty
EXTRN	?gCurPaintPlayer@@3HA:DWORD			; gCurPaintPlayer
EXTRN	?DragonEvent@@3PAVCDragonEvent@@A:DWORD		; DragonEvent
EXTRN	?gNSerialCheck@@3PAVNSerialCheck@@A:BYTE	; gNSerialCheck
EXTRN	?g_KalimaGate@@3VCKalimaGate@@A:BYTE		; g_KalimaGate
EXTRN	___security_cookie:DWORD
EXTRN	__fltused:DWORD
;	COMDAT ?_OptionsStorage@?1??__local_stdio_printf_options@@9@4_KA
_BSS	SEGMENT
?_OptionsStorage@?1??__local_stdio_printf_options@@9@4_KA DQ 01H DUP (?) ; `__local_stdio_printf_options'::`2'::_OptionsStorage
_BSS	ENDS
_BSS	SEGMENT
	ALIGN	4

?m_ObjBill@@3PAVBILL_CLASS@@A DB 032960H DUP (?)	; m_ObjBill
?SMDFile@@3PAU_iobuf@@A DD 01H DUP (?)			; SMDFile
?TokenNumber@@3MA DD 01H DUP (?)			; TokenNumber
?TokenString@@3PADA DB 064H DUP (?)			; TokenString
?CurrentToken@@3W4SMDToken@@A DD 01H DUP (?)		; CurrentToken
?g_iChaosCastle_MonsterItems@@3PAY111HA DD 018H DUP (?)	; g_iChaosCastle_MonsterItems
?ViewGuildMng@@3VCViewportGuild@@A DB 09cH DUP (?)	; ViewGuildMng
?g_kStaticObject@@3VStaticObject@@A DD 01H DUP (?)	; g_kStaticObject
?OneMsg@?1??gObjAllLogOut@@YAXXZ@4HA DD 01H DUP (?)	; `gObjAllLogOut'::`2'::OneMsg
?FrustrumX@@3PAHA DD 04H DUP (?)			; FrustrumX
?FrustrumY@@3PAHA DD 04H DUP (?)			; FrustrumY
_BSS	ENDS
CRT$XCU	SEGMENT
?g_iChaosCastle_MonsterItems$initializer$@@3P6AXXZA DD FLAT:??__Eg_iChaosCastle_MonsterItems@@YAXXZ ; g_iChaosCastle_MonsterItems$initializer$
CRT$XCU	ENDS
;	COMDAT __xmm@80000000800000008000000080000000
CONST	SEGMENT
__xmm@80000000800000008000000080000000 DB 00H, 00H, 00H, 080H, 00H, 00H, 00H
	DB	080H, 00H, 00H, 00H, 080H, 00H, 00H, 00H, 080H
CONST	ENDS
;	COMDAT __real@c0c00000
CONST	SEGMENT
__real@c0c00000 DD 0c0c00000r			; -6
CONST	ENDS
;	COMDAT __real@bf800000
CONST	SEGMENT
__real@bf800000 DD 0bf800000r			; -1
CONST	ENDS
;	COMDAT __real@45160000
CONST	SEGMENT
__real@45160000 DD 045160000r			; 2400
CONST	ENDS
;	COMDAT __real@4494c000
CONST	SEGMENT
__real@4494c000 DD 04494c000r			; 1190
CONST	ENDS
;	COMDAT __real@44098000
CONST	SEGMENT
__real@44098000 DD 044098000r			; 550
CONST	ENDS
;	COMDAT __real@437f0000
CONST	SEGMENT
__real@437f0000 DD 0437f0000r			; 255
CONST	ENDS
;	COMDAT __real@42c80000
CONST	SEGMENT
__real@42c80000 DD 042c80000r			; 100
CONST	ENDS
;	COMDAT __real@42580000
CONST	SEGMENT
__real@42580000 DD 042580000r			; 54
CONST	ENDS
;	COMDAT __real@42340000
CONST	SEGMENT
__real@42340000 DD 042340000r			; 45
CONST	ENDS
;	COMDAT __real@42080000
CONST	SEGMENT
__real@42080000 DD 042080000r			; 34
CONST	ENDS
;	COMDAT __real@41a00000
CONST	SEGMENT
__real@41a00000 DD 041a00000r			; 20
CONST	ENDS
;	COMDAT __real@41200000
CONST	SEGMENT
__real@41200000 DD 041200000r			; 10
CONST	ENDS
;	COMDAT __real@41000000
CONST	SEGMENT
__real@41000000 DD 041000000r			; 8
CONST	ENDS
;	COMDAT __real@40c00000
CONST	SEGMENT
__real@40c00000 DD 040c00000r			; 6
CONST	ENDS
;	COMDAT __real@4069000000000000
CONST	SEGMENT
__real@4069000000000000 DQ 04069000000000000r	; 200
CONST	ENDS
;	COMDAT __real@40400000
CONST	SEGMENT
__real@40400000 DD 040400000r			; 3
CONST	ENDS
;	COMDAT __real@40000000
CONST	SEGMENT
__real@40000000 DD 040000000r			; 2
CONST	ENDS
;	COMDAT __real@3ff4cccccccccccd
CONST	SEGMENT
__real@3ff4cccccccccccd DQ 03ff4cccccccccccdr	; 1.3
CONST	ENDS
;	COMDAT __real@3ff0000000000000
CONST	SEGMENT
__real@3ff0000000000000 DQ 03ff0000000000000r	; 1
CONST	ENDS
;	COMDAT __real@3fe999999999999a
CONST	SEGMENT
__real@3fe999999999999a DQ 03fe999999999999ar	; 0.8
CONST	ENDS
;	COMDAT __real@3fe0000000000000
CONST	SEGMENT
__real@3fe0000000000000 DQ 03fe0000000000000r	; 0.5
CONST	ENDS
;	COMDAT __real@3fd999999999999a
CONST	SEGMENT
__real@3fd999999999999a DQ 03fd999999999999ar	; 0.4
CONST	ENDS
;	COMDAT __real@3fd3333333333333
CONST	SEGMENT
__real@3fd3333333333333 DQ 03fd3333333333333r	; 0.3
CONST	ENDS
;	COMDAT __real@3fd0000000000000
CONST	SEGMENT
__real@3fd0000000000000 DQ 03fd0000000000000r	; 0.25
CONST	ENDS
;	COMDAT __real@3fc999999999999a
CONST	SEGMENT
__real@3fc999999999999a DQ 03fc999999999999ar	; 0.2
CONST	ENDS
;	COMDAT __real@3fc3333333333333
CONST	SEGMENT
__real@3fc3333333333333 DQ 03fc3333333333333r	; 0.15
CONST	ENDS
;	COMDAT __real@3fb999999999999a
CONST	SEGMENT
__real@3fb999999999999a DQ 03fb999999999999ar	; 0.1
CONST	ENDS
;	COMDAT __real@3f800000
CONST	SEGMENT
__real@3f800000 DD 03f800000r			; 1
CONST	ENDS
;	COMDAT __real@3f07ae14
CONST	SEGMENT
__real@3f07ae14 DD 03f07ae14r			; 0.53
CONST	ENDS
;	COMDAT __real@3f000000
CONST	SEGMENT
__real@3f000000 DD 03f000000r			; 0.5
CONST	ENDS
;	COMDAT __real@3e428f5c
CONST	SEGMENT
__real@3e428f5c DD 03e428f5cr			; 0.19
CONST	ENDS
;	COMDAT __real@3d178d50
CONST	SEGMENT
__real@3d178d50 DD 03d178d50r			; 0.037
CONST	ENDS
;	COMDAT __real@3ca3d70a
CONST	SEGMENT
__real@3ca3d70a DD 03ca3d70ar			; 0.02
CONST	ENDS
;	COMDAT __real@3c23d70a
CONST	SEGMENT
__real@3c23d70a DD 03c23d70ar			; 0.01
CONST	ENDS
;	COMDAT __real@3951b717
CONST	SEGMENT
__real@3951b717 DD 03951b717r			; 0.0002
CONST	ENDS
;	COMDAT __real@00000000
CONST	SEGMENT
__real@00000000 DD 000000000r			; 0
CONST	ENDS
;	COMDAT ??_R1A@?0A@EA@StaticObject@@8
rdata$r	SEGMENT
??_R1A@?0A@EA@StaticObject@@8 DD FLAT:??_R0?AVStaticObject@@@8 ; StaticObject::`RTTI Base Class Descriptor at (0,-1,0,64)'
	DD	00H
	DD	00H
	DD	0ffffffffH
	DD	00H
	DD	040H
	DD	FLAT:??_R3StaticObject@@8
rdata$r	ENDS
;	COMDAT ??_R2StaticObject@@8
rdata$r	SEGMENT
??_R2StaticObject@@8 DD FLAT:??_R1A@?0A@EA@StaticObject@@8 ; StaticObject::`RTTI Base Class Array'
rdata$r	ENDS
;	COMDAT ??_R3StaticObject@@8
rdata$r	SEGMENT
??_R3StaticObject@@8 DD 00H				; StaticObject::`RTTI Class Hierarchy Descriptor'
	DD	00H
	DD	01H
	DD	FLAT:??_R2StaticObject@@8
rdata$r	ENDS
;	COMDAT ??_R0?AVStaticObject@@@8
data$r	SEGMENT
??_R0?AVStaticObject@@@8 DD FLAT:??_7type_info@@6B@	; StaticObject `RTTI Type Descriptor'
	DD	00H
	DB	'.?AVStaticObject@@', 00H
data$r	ENDS
;	COMDAT ??_R4StaticObject@@6B@
rdata$r	SEGMENT
??_R4StaticObject@@6B@ DD 00H				; StaticObject::`RTTI Complete Object Locator'
	DD	00H
	DD	00H
	DD	FLAT:??_R0?AVStaticObject@@@8
	DD	FLAT:??_R3StaticObject@@8
rdata$r	ENDS
;	COMDAT ??_C@_0GP@MDNOLJFE@?$FLSKILL?5DISTANCE?5CHECK?$FN?5?$FL?$CFs?$FN?$FL?$CFs?$FN@
CONST	SEGMENT
??_C@_0GP@MDNOLJFE@?$FLSKILL?5DISTANCE?5CHECK?$FN?5?$FL?$CFs?$FN?$FL?$CFs?$FN@ DB '['
	DB	'SKILL DISTANCE CHECK] [%s][%s] Invalid Skill attacker(%d, %d)'
	DB	', defender(%d, %d), skillnum:%d skilldistance:%d', 00H ; `string'
CONST	ENDS
;	COMDAT ??_C@_0DF@GBAGDNJH@?$FLANTI?9HACK?$FN?$FLSerial?50?5Item?$FN?5?$CI?$CFs?$CJ@
CONST	SEGMENT
??_C@_0DF@GBAGDNJH@?$FLANTI?9HACK?$FN?$FLSerial?50?5Item?$FN?5?$CI?$CFs?$CJ@ DB '['
	DB	'ANTI-HACK][Serial 0 Item] (%s)(%s) Item(%s) Pos(%d)', 00H ; `string'
CONST	ENDS
;	COMDAT ??_C@_0DM@LPHFFNDE@?$FL?$CFs?$FN?$FL?$CFs?$FN?$FLPetItemLevelUp?$FN?5?$FL?$CFs?$FN?5L@
CONST	SEGMENT
??_C@_0DM@LPHFFNDE@?$FL?$CFs?$FN?$FL?$CFs?$FN?$FLPetItemLevelUp?$FN?5?$FL?$CFs?$FN?5L@ DB '['
	DB	'%s][%s][PetItemLevelUp] [%s] Level:[%d]Exp:[%d]AddExp:[%d]', 00H ; `string'
CONST	ENDS
;	COMDAT ??_C@_0GL@CFJINBHJ@?$FLReward?$FN?$FLEtc?$FN?5?$FL?$CFs?$FN?$FL?$CFs?$FN?5Set?5Item@
CONST	SEGMENT
??_C@_0GL@CFJINBHJ@?$FLReward?$FN?$FLEtc?$FN?5?$FL?$CFs?$FN?$FL?$CFs?$FN?5Set?5Item@ DB '['
	DB	'Reward][Etc] [%s][%s] Set Item itemnum:[%d] skill:[%d] luck:['
	DB	'%d] option:[%d] SetOption:[%d], SetName:[%s]', 00H ; `string'
CONST	ENDS
;	COMDAT ??_C@_0HC@BKBHDGJF@?$FL?$KB?Z?$KB?YReward?$FN?$FLKUNDUN?$FN?5?$FL?$CFs?$FN?$FL?$CFs?$FN?5S@
CONST	SEGMENT
??_C@_0HC@BKBHDGJF@?$FL?$KB?Z?$KB?YReward?$FN?$FLKUNDUN?$FN?5?$FL?$CFs?$FN?$FL?$CFs?$FN?5S@ DB '['
	DB	0a1H, 0daH, 0a1H, 0d9H, 'Reward][KUNDUN] [%s][%s] Set Item ite'
	DB	'mnum:[%d] skill:[%d] luck:[%d] option:[%d] SetOption:[%d], Se'
	DB	'tName:[%s]', 00H				; `string'
CONST	ENDS
;	COMDAT ??_C@_0HD@NHFJLKNN@?$FLChaos?5Castle?$FN?5?$FL?$CFs?$FN?$FL?$CFs?$FN?5Winner?5@
CONST	SEGMENT
??_C@_0HD@NHFJLKNN@?$FLChaos?5Castle?$FN?5?$FL?$CFs?$FN?$FL?$CFs?$FN?5Winner?5@ DB '['
	DB	'Chaos Castle] [%s][%s] Winner Set Item itemnum:[%d] skill:[%d'
	DB	'] luck:[%d] option:[%d] SetOption:[%d], SetName:[%s]', 00H ; `string'
CONST	ENDS
;	COMDAT ??_C@_0BP@DLHDMMOD@?$FLStatUp?$FN?5?$FL?$CFs?$FN?$FL?$CFs?$FN?5Fail?5?$FL?$CFd?$FN?5?$CFd@
CONST	SEGMENT
??_C@_0BP@DLHDMMOD@?$FLStatUp?$FN?5?$FL?$CFs?$FN?$FL?$CFs?$FN?5Fail?5?$FL?$CFd?$FN?5?$CFd@ DB '['
	DB	'StatUp] [%s][%s] Fail [%d] %d', 00H		; `string'
CONST	ENDS
;	COMDAT ??_C@_0CG@KNEHLHCP@?$FLStatUp?$FN?5?$FL?$CFs?$FN?$FL?$CFs?$FN?5Success?5?$FL?$CFd?$FN?$FL@
CONST	SEGMENT
??_C@_0CG@KNEHLHCP@?$FLStatUp?$FN?5?$FL?$CFs?$FN?$FL?$CFs?$FN?5Success?5?$FL?$CFd?$FN?$FL@ DB '['
	DB	'StatUp] [%s][%s] Success [%d][%d] %d', 00H	; `string'
CONST	ENDS
;	COMDAT ??_C@_0DL@GGMAOOIG@?$FLStatUp?$FN?5?$FL?$CFs?$FN?$FL?$CFs?$FN?5Use?5StatUpIte@
CONST	SEGMENT
??_C@_0DL@GGMAOOIG@?$FLStatUp?$FN?5?$FL?$CFs?$FN?$FL?$CFs?$FN?5Use?5StatUpIte@ DB '['
	DB	'StatUp] [%s][%s] Use StatUpItem Level:%d Pos:%d serial:%d', 00H ; `string'
CONST	ENDS
;	COMDAT ??_C@_0CJ@FBOHLINL@?$FLDeleteItem?$FN?5?$FL?$CFs?$FN?$FL?$CFs?$FN?5Delete?5?$CI?$CF@
CONST	SEGMENT
??_C@_0CJ@FBOHLINL@?$FLDeleteItem?$FN?5?$FL?$CFs?$FN?$FL?$CFs?$FN?5Delete?5?$CI?$CF@ DB '['
	DB	'DeleteItem] [%s][%s] Delete (%d,%d)(%d)', 00H ; `string'
CONST	ENDS
;	COMDAT ??_C@_0CG@GHIPHJMP@?$FLEventChip?$FN?5?$FL?$CFs?$FN?$FL?$CFs?$FN?5Delete?5Ren@
CONST	SEGMENT
??_C@_0CG@GHIPHJMP@?$FLEventChip?$FN?5?$FL?$CFs?$FN?$FL?$CFs?$FN?5Delete?5Ren@ DB '['
	DB	'EventChip] [%s][%s] Delete Rena (%d)', 00H	; `string'
CONST	ENDS
;	COMDAT ??_C@_0CL@IFDDAPIM@?$FL?$CFd?$FN?9?$FL?$CFd?$FN?5Total?5?$CFd?5?$CFs?5?$CFd?5?$CFs?5?$CFd?5@
CONST	SEGMENT
??_C@_0CL@IFDDAPIM@?$FL?$CFd?$FN?9?$FL?$CFd?$FN?5Total?5?$CFd?5?$CFs?5?$CFd?5?$CFs?5?$CFd?5@ DB '['
	DB	'%d]-[%d] Total %d %s %d %s %d %s %d %s %d', 00H ; `string'
CONST	ENDS
;	COMDAT ??_C@_0GM@NPKLGGJP@?$FLSummon?5Monster?$FN?5?$FL?$CFs?$FN?$FL?$CFs?$FN?5Try?5t@
CONST	SEGMENT
??_C@_0GM@NPKLGGJP@?$FLSummon?5Monster?$FN?5?$FL?$CFs?$FN?$FL?$CFs?$FN?5Try?5t@ DB '['
	DB	'Summon Monster] [%s][%s] Try to Kill Summoned Monster - Finis'
	DB	'hed to Kill Summoned Monster (SummonIndex:%d)', 00H ; `string'
CONST	ENDS
;	COMDAT ??_C@_0GB@CGCBNNKJ@?$FLSummon?5Monster?$FN?5?$FL?$CFs?$FN?$FL?$CFs?$FN?5Try?5t@
CONST	SEGMENT
??_C@_0GB@CGCBNNKJ@?$FLSummon?5Monster?$FN?5?$FL?$CFs?$FN?$FL?$CFs?$FN?5Try?5t@ DB '['
	DB	'Summon Monster] [%s][%s] Try to Kill Summoned Monster - Found'
	DB	' Summoned Monster (SummonIndex:%d)', 00H	; `string'
CONST	ENDS
;	COMDAT ??_C@_0DH@LJCMNCCO@?$FLSummon?5Monster?$FN?5?$FL?$CFs?$FN?$FL?$CFs?$FN?5Try?5t@
CONST	SEGMENT
??_C@_0DH@LJCMNCCO@?$FLSummon?5Monster?$FN?5?$FL?$CFs?$FN?$FL?$CFs?$FN?5Try?5t@ DB '['
	DB	'Summon Monster] [%s][%s] Try to Kill Summoned Monster', 00H ; `string'
CONST	ENDS
;	COMDAT ??_C@_0EL@FIMACGK@?$FLSummon?5Monster?$FN?5?$FL?$CFs?$FN?$FL?$CFs?$FN?5Try?5t@
CONST	SEGMENT
??_C@_0EL@FIMACGK@?$FLSummon?5Monster?$FN?5?$FL?$CFs?$FN?$FL?$CFs?$FN?5Try?5t@ DB '['
	DB	'Summon Monster] [%s][%s] Try to Summon Monster - Succeed (Sum'
	DB	'monIndex:%d)', 00H				; `string'
CONST	ENDS
;	COMDAT ?__LINE__Var@?0??gObjGuildWarItemGive@@YAHPAU_GUILD_INFO_STRUCT@@0@Z@4JA
_DATA	SEGMENT
?__LINE__Var@?0??gObjGuildWarItemGive@@YAHPAU_GUILD_INFO_STRUCT@@0@Z@4JA DD 07289H ; `gObjGuildWarItemGive'::`1'::__LINE__Var
_DATA	ENDS
;	COMDAT ??_C@_0BH@NCOFCPCB@?$CFs?5?$CI?5?$CFu?5?$CJ?5VS?5?$CFs?5?$CI?5?$CFu?5?$CJ@
CONST	SEGMENT
??_C@_0BH@NCOFCPCB@?$CFs?5?$CI?5?$CFu?5?$CJ?5VS?5?$CFs?5?$CI?5?$CFu?5?$CJ@ DB '%'
	DB	's ( %u ) VS %s ( %u )', 00H			; `string'
CONST	ENDS
;	COMDAT ?__LINE__Var@?0??gObjGuildWarEndSend@@YAXPAVOBJECTSTRUCT@@EE@Z@4JA
_DATA	SEGMENT
?__LINE__Var@?0??gObjGuildWarEndSend@@YAXPAVOBJECTSTRUCT@@EE@Z@4JA DD 07113H ; `gObjGuildWarEndSend'::`1'::__LINE__Var
_DATA	ENDS
;	COMDAT ??_C@_0FO@HEPLMOKF@?$FL?$CFs?$FN?$FL?$CFs?$FN?5JewelofLife?5Result?5?$FL?$CFd@
CONST	SEGMENT
??_C@_0FO@HEPLMOKF@?$FL?$CFs?$FN?$FL?$CFs?$FN?5JewelofLife?5Result?5?$FL?$CFd@ DB '['
	DB	'%s][%s] JewelofLife Result [%d,%s,%d,%d,%d,%d]serial:[%d] dur'
	DB	':[%d] Ex:[%d,%d,%d,%d,%d,%d,%d]', 00H	; `string'
CONST	ENDS
;	COMDAT ?__LINE__Var@?0??gObjMonsterMagicAdd@@YAHPAVOBJECTSTRUCT@@EE@Z@4JA
_DATA	SEGMENT
?__LINE__Var@?0??gObjMonsterMagicAdd@@YAHPAVOBJECTSTRUCT@@EE@Z@4JA DD 06ea8H ; `gObjMonsterMagicAdd'::`1'::__LINE__Var
_DATA	ENDS
;	COMDAT ?__LINE__Var@?0??gObjWeaponMagicAdd@@YAHPAVOBJECTSTRUCT@@EE@Z@4JA
_DATA	SEGMENT
?__LINE__Var@?0??gObjWeaponMagicAdd@@YAHPAVOBJECTSTRUCT@@EE@Z@4JA DD 06e6cH ; `gObjWeaponMagicAdd'::`1'::__LINE__Var
_DATA	ENDS
;	COMDAT ?__LINE__Var@?0??gObjMagicAdd@@YAHPAVOBJECTSTRUCT@@EE@Z@4JA
_DATA	SEGMENT
?__LINE__Var@?0??gObjMagicAdd@@YAHPAVOBJECTSTRUCT@@EE@Z@4JA DD 06e15H ; `gObjMagicAdd'::`1'::__LINE__Var
_DATA	ENDS
;	COMDAT ??_C@_0CG@HFCELOAC@error?9L2?3?5Skill?5Leadership?5not?5@
CONST	SEGMENT
??_C@_0CG@HFCELOAC@error?9L2?3?5Skill?5Leadership?5not?5@ DB 'error-L2: S'
	DB	'kill Leadership not enough', 00H		; `string'
CONST	ENDS
;	COMDAT ?__LINE__Var@?0??gObjMagicAdd@@YAHPAVOBJECTSTRUCT@@EEEAAE@Z@4JA
_DATA	SEGMENT
?__LINE__Var@?0??gObjMagicAdd@@YAHPAVOBJECTSTRUCT@@EEEAAE@Z@4JA DD 06d7dH ; `gObjMagicAdd'::`1'::__LINE__Var
_DATA	ENDS
;	COMDAT ?__LINE__Var@?0??gObjPosMagicAttack@@YAHPAVOBJECTSTRUCT@@PAVCMagicInf@@EE@Z@4JA
_DATA	SEGMENT
?__LINE__Var@?0??gObjPosMagicAttack@@YAHPAVOBJECTSTRUCT@@PAVCMagicInf@@EE@Z@4JA DD 06d18H ; `gObjPosMagicAttack'::`1'::__LINE__Var
_DATA	ENDS
;	COMDAT ?__LINE__Var@?0??gObjGetMagic@@YAPAVCMagicInf@@PAVOBJECTSTRUCT@@H@Z@4JA
_DATA	SEGMENT
?__LINE__Var@?0??gObjGetMagic@@YAPAVCMagicInf@@PAVOBJECTSTRUCT@@H@Z@4JA DD 06c9eH ; `gObjGetMagic'::`1'::__LINE__Var
_DATA	ENDS
;	COMDAT ??_C@_0BB@LBNJKNBE@error?9L3?5?3?5?$CFs?5?$CFd@
CONST	SEGMENT
??_C@_0BB@LBNJKNBE@error?9L3?5?3?5?$CFs?5?$CFd@ DB 'error-L3 : %s %d', 00H ; `string'
CONST	ENDS
;	COMDAT ?__LINE__Var@?0??gObjTeleport@@YAXHHHH@Z@4JA
_DATA	SEGMENT
?__LINE__Var@?0??gObjTeleport@@YAXHHHH@Z@4JA DD 06c31H	; `gObjTeleport'::`1'::__LINE__Var
_DATA	ENDS
;	COMDAT ??_C@_0EG@IKFPGELB@?$FLDevilSquare?$FN?5?$FL?$CFs?$FN?$FL?$CFs?$FN?5Not?5Used@
CONST	SEGMENT
??_C@_0EG@IKFPGELB@?$FLDevilSquare?$FN?5?$FL?$CFs?$FN?$FL?$CFs?$FN?5Not?5Used@ DB '['
	DB	'DevilSquare] [%s][%s] Not Used DevilSquare Invitation In Devi'
	DB	'lSquare', 00H				; `string'
CONST	ENDS
;	COMDAT ?__LINE__Var@?0??gObjMoveGate@@YAHHH@Z@4JA
_DATA	SEGMENT
?__LINE__Var@?0??gObjMoveGate@@YAHHH@Z@4JA DD 06890H	; `gObjMoveGate'::`1'::__LINE__Var
_DATA	ENDS
;	COMDAT ??_C@_0FH@OIJJJHHH@?$FLKalima?$FN?5?$FL?$CFs?$FN?$FL?$CFs?$FN?5Kalima?5Gate?5V@
CONST	SEGMENT
??_C@_0FH@OIJJJHHH@?$FLKalima?$FN?5?$FL?$CFs?$FN?$FL?$CFs?$FN?5Kalima?5Gate?5V@ DB '['
	DB	'Kalima] [%s][%s] Kalima Gate Vanished - User MoveGate (Summon'
	DB	'Index:%d, EnterCount:%d)', 00H		; `string'
CONST	ENDS
;	COMDAT ??_C@_0P@EEJEJBPC@Regen?5OK?5?$CFs?5?$CFd@
CONST	SEGMENT
??_C@_0P@EEJEJBPC@Regen?5OK?5?$CFs?5?$CFd@ DB 'Regen OK %s %d', 00H ; `string'
CONST	ENDS
;	COMDAT ?__LINE__Var@?0??gObjMovePlayer@@YAHHEEEEE@Z@4JA
_DATA	SEGMENT
?__LINE__Var@?0??gObjMovePlayer@@YAHHEEEEE@Z@4JA DD 06547H ; `gObjMovePlayer'::`1'::__LINE__Var
_DATA	ENDS
;	COMDAT ?__LINE__Var@?0??gObjCurMoveMake@@YAHQAEPAVOBJECTSTRUCT@@@Z@4JA
_DATA	SEGMENT
?__LINE__Var@?0??gObjCurMoveMake@@YAHQAEPAVOBJECTSTRUCT@@@Z@4JA DD 05c31H ; `gObjCurMoveMake'::`1'::__LINE__Var
_DATA	ENDS
;	COMDAT ??_C@_0BM@KBFDEFAD@?$FL?$CFs?$FN?$FL?$CFs?$FN?5CheckSumTime?5Error@
CONST	SEGMENT
??_C@_0BM@KBFDEFAD@?$FL?$CFs?$FN?$FL?$CFs?$FN?5CheckSumTime?5Error@ DB '['
	DB	'%s][%s] CheckSumTime Error', 00H		; `string'
CONST	ENDS
;	COMDAT ??_C@_0DE@KDNIOEPF@?$FLBlood?5Castle?$FN?5?$CI?$CFd?$CJ?5Ultimate?5We@
CONST	SEGMENT
??_C@_0DE@KDNIOEPF@?$FLBlood?5Castle?$FN?5?$CI?$CFd?$CJ?5Ultimate?5We@ DB '['
	DB	'Blood Castle] (%d) Ultimate Weapon Dropped -> (%s)', 00H ; `string'
CONST	ENDS
;	COMDAT ??_C@_05DEBCIJNP@Staff@
CONST	SEGMENT
??_C@_05DEBCIJNP@Staff@ DB 'Staff', 00H			; `string'
CONST	ENDS
;	COMDAT ??_C@_08OMHMMHKG@Crossbow@
CONST	SEGMENT
??_C@_08OMHMMHKG@Crossbow@ DB 'Crossbow', 00H		; `string'
CONST	ENDS
;	COMDAT ??_C@_05LKHEONBC@Sword@
CONST	SEGMENT
??_C@_05LKHEONBC@Sword@ DB 'Sword', 00H			; `string'
CONST	ENDS
;	COMDAT ??_C@_0DA@GGNIPOJP@?$FLPShop?$FN?5ERROR?5?3?5iVpAddCount?5is?5@
CONST	SEGMENT
??_C@_0DA@GGNIPOJP@?$FLPShop?$FN?5ERROR?5?3?5iVpAddCount?5is?5@ DB '[PSho'
	DB	'p] ERROR : iVpAddCount is OUT of BOUND: %d', 00H ; `string'
CONST	ENDS
;	COMDAT ??_C@_0DB@CHPPJFL@?$FLPShop?$FN?5ERROR?5?3?5iVpOpenCount?5is@
CONST	SEGMENT
??_C@_0DB@CHPPJFL@?$FLPShop?$FN?5ERROR?5?3?5iVpOpenCount?5is@ DB '[PShop]'
	DB	' ERROR : iVpOpenCount is OUT of BOUND: %d', 00H ; `string'
CONST	ENDS
;	COMDAT ??_C@_0EC@MINIMHLG@?$FLPShop?$FN?5ERROR?5?3?5lpObj?9?$DOm_wVpPSh@
CONST	SEGMENT
??_C@_0EC@MINIMHLG@?$FLPShop?$FN?5ERROR?5?3?5lpObj?9?$DOm_wVpPSh@ DB '[PS'
	DB	'hop] ERROR : lpObj->m_wVpPShopPlayerCount is OUT of BOUND : %'
	DB	'd', 00H					; `string'
CONST	ENDS
;	COMDAT ??_C@_0M@CNBLPJGM@?3MedalEvent@
CONST	SEGMENT
??_C@_0M@CNBLPJGM@?3MedalEvent@ DB ':MedalEvent', 00H	; `string'
CONST	ENDS
;	COMDAT ??_C@_0N@MIHFOCLN@?3HeartOfLove@
CONST	SEGMENT
??_C@_0N@MIHFOCLN@?3HeartOfLove@ DB ':HeartOfLove', 00H	; `string'
CONST	ENDS
;	COMDAT ??_C@_0N@KDMPKOEE@?3FireCracker@
CONST	SEGMENT
??_C@_0N@KDMPKOEE@?3FireCracker@ DB ':FireCracker', 00H	; `string'
CONST	ENDS
;	COMDAT ??_C@_0M@IBFDBMCH@?3StarOfXMas@
CONST	SEGMENT
??_C@_0M@IBFDBMCH@?3StarOfXMas@ DB ':StarOfXMas', 00H	; `string'
CONST	ENDS
;	COMDAT ??_C@_0FD@OILHKKPM@COUNT?3?$CFd?5?5TotalPlayer?5?3?5?$CFd?5?5Pla@
CONST	SEGMENT
??_C@_0FD@OILHKKPM@COUNT?3?$CFd?5?5TotalPlayer?5?3?5?$CFd?5?5Pla@ DB 'COU'
	DB	'NT:%d  TotalPlayer : %d  Player(%d):%d VpCount:%d(%d/%d) : it'
	DB	'em count:%d max:%d', 00H			; `string'
CONST	ENDS
;	COMDAT ?__LINE__Var@?0??gObjMakePreviewCharSet@@YAXH@Z@4JA
_DATA	SEGMENT
?__LINE__Var@?0??gObjMakePreviewCharSet@@YAXH@Z@4JA DD 04cb2H ; `gObjMakePreviewCharSet'::`1'::__LINE__Var
_DATA	ENDS
;	COMDAT ??_C@_0BK@ELKLKHDB@error?5?3?5?$MA?L?$LA?G?5?E?$KL?$MA?O?$LD?$KK?$LE?B?$MA?O?$CB?$CB@
CONST	SEGMENT
??_C@_0BK@ELKLKHDB@error?5?3?5?$MA?L?$LA?G?5?E?$KL?$MA?O?$LD?$KK?$LE?B?$MA?O?$CB?$CB@ DB 'e'
	DB	'rror : ', 0c0H, 0ccH, 0b0H, 0c7H, ' ', 0c5H, 0abH, 0c0H, 0cfH
	DB	0b3H, 0aaH, 0b4H, 0c2H, 0c0H, 0cfH, '!!', 00H ; `string'
CONST	ENDS
;	COMDAT ??_C@_04BGCMBJDA@Item@
CONST	SEGMENT
??_C@_04BGCMBJDA@Item@ DB 'Item', 00H			; `string'
CONST	ENDS
;	COMDAT ?__LINE__Var@?0??gObjTempInventoryInsertItem@@YAEPAVOBJECTSTRUCT@@VCItem@@PAE@Z@4JA
_DATA	SEGMENT
?__LINE__Var@?0??gObjTempInventoryInsertItem@@YAEPAVOBJECTSTRUCT@@VCItem@@PAE@Z@4JA DD 04b66H ; `gObjTempInventoryInsertItem'::`1'::__LINE__Var
_DATA	ENDS
;	COMDAT ??_C@_0BK@CICIFNII@error?5?3?5index?5error?5?$CFs?5?$CFd@
CONST	SEGMENT
??_C@_0BK@CICIFNII@error?5?3?5index?5error?5?$CFs?5?$CFd@ DB 'error : ind'
	DB	'ex error %s %d', 00H			; `string'
CONST	ENDS
;	COMDAT ?__LINE__Var@?0??gObjTradeCancel@@YAXH@Z@4JA
_DATA	SEGMENT
?__LINE__Var@?0??gObjTradeCancel@@YAXH@Z@4JA DD 04ae5H	; `gObjTradeCancel'::`1'::__LINE__Var
_DATA	ENDS
;	COMDAT ?__LINE__Var@?0??gObjTradeTradeMove@@YAEPAVOBJECTSTRUCT@@EE@Z@4JA
_DATA	SEGMENT
?__LINE__Var@?0??gObjTradeTradeMove@@YAEPAVOBJECTSTRUCT@@EE@Z@4JA DD 04a3fH ; `gObjTradeTradeMove'::`1'::__LINE__Var
_DATA	ENDS
;	COMDAT ?__LINE__Var@?0??gObjInventoryTradeMove@@YAEPAVOBJECTSTRUCT@@EE@Z@4JA
_DATA	SEGMENT
?__LINE__Var@?0??gObjInventoryTradeMove@@YAEPAVOBJECTSTRUCT@@EE@Z@4JA DD 04923H ; `gObjInventoryTradeMove'::`1'::__LINE__Var
_DATA	ENDS
;	COMDAT ??_C@_0DN@CJKEGDHI@?$FLANTI?9HACK?$FN?$FLSerial?50?5Item?$FN?5?$FLTra@
CONST	SEGMENT
??_C@_0DN@CJKEGDHI@?$FLANTI?9HACK?$FN?$FLSerial?50?5Item?$FN?5?$FLTra@ DB '['
	DB	'ANTI-HACK][Serial 0 Item] [Trade] (%s)(%s) Item(%s) Pos(%d)', 00H ; `string'
CONST	ENDS
;	COMDAT ?__LINE__Var@?0??gObjTradeInventoryMove@@YAEPAVOBJECTSTRUCT@@EE@Z@4JA
_DATA	SEGMENT
?__LINE__Var@?0??gObjTradeInventoryMove@@YAEPAVOBJECTSTRUCT@@EE@Z@4JA DD 048b3H ; `gObjTradeInventoryMove'::`1'::__LINE__Var
_DATA	ENDS
;	COMDAT ?__LINE__Var@?0??gObjTradeItemBoxSet@@YAHHHHHE@Z@4JA
_DATA	SEGMENT
?__LINE__Var@?0??gObjTradeItemBoxSet@@YAHHHHHE@Z@4JA DD 04895H ; `gObjTradeItemBoxSet'::`1'::__LINE__Var
_DATA	ENDS
;	COMDAT ?__LINE__Var@?0??gObjTradeRectCheck@@YAEHHHHH@Z@4JA
_DATA	SEGMENT
?__LINE__Var@?0??gObjTradeRectCheck@@YAEHHHHH@Z@4JA DD 04869H ; `gObjTradeRectCheck'::`1'::__LINE__Var
_DATA	ENDS
;	COMDAT ??_C@_0EA@MOKNMDJN@?$FLANTI?9HACK?$FN?$FLSerial?50?5Item?$FN?5?$FLMov@
CONST	SEGMENT
??_C@_0EA@MOKNMDJN@?$FLANTI?9HACK?$FN?$FLSerial?50?5Item?$FN?5?$FLMov@ DB '['
	DB	'ANTI-HACK][Serial 0 Item] [MoveItem] (%s)(%s) Item(%s) Pos(%d'
	DB	')', 00H					; `string'
CONST	ENDS
;	COMDAT ??_C@_0EL@PCJJPCHK@?$FLPShop?$FN?5?$FL?$CFs?$FN?$FL?$CFs?$FN?5PShop?5Item?5Mov@
CONST	SEGMENT
??_C@_0EL@PCJJPCHK@?$FLPShop?$FN?5?$FL?$CFs?$FN?$FL?$CFs?$FN?5PShop?5Item?5Mov@ DB '['
	DB	'PShop] [%s][%s] PShop Item Move Request Failed : Already Trad'
	DB	'e With Other', 00H				; `string'
CONST	ENDS
;	COMDAT ??_C@_0BB@LFCMHNCJ@error?9L1?5?3?5?$CFs?5?$CFd@
CONST	SEGMENT
??_C@_0BB@LFCMHNCJ@error?9L1?5?3?5?$CFs?5?$CFd@ DB 'error-L1 : %s %d', 00H ; `string'
CONST	ENDS
;	COMDAT ?__LINE__Var@?0??gObjInventoryMoveItem@@YAEHEEAAH0EEPAE@Z@4JA
_DATA	SEGMENT
?__LINE__Var@?0??gObjInventoryMoveItem@@YAEHEEAAH0EEPAE@Z@4JA DD 04188H ; `gObjInventoryMoveItem'::`1'::__LINE__Var
_DATA	ENDS
;	COMDAT ?__LINE__Var@?0??gObjChaosItemSet@@YAXHHE@Z@4JA
_DATA	SEGMENT
?__LINE__Var@?0??gObjChaosItemSet@@YAXHHE@Z@4JA DD 03fedH ; `gObjChaosItemSet'::`1'::__LINE__Var
_DATA	ENDS
;	COMDAT ?__LINE__Var@?0??gObjChaosItemBoxSet@@YAXHHHHE@Z@4JA
_DATA	SEGMENT
?__LINE__Var@?0??gObjChaosItemBoxSet@@YAXHHHHE@Z@4JA DD 03fd0H ; `gObjChaosItemBoxSet'::`1'::__LINE__Var
_DATA	ENDS
;	COMDAT ?__LINE__Var@?0??gObjWarehouseItemSet@@YAXHHE@Z@4JA
_DATA	SEGMENT
?__LINE__Var@?0??gObjWarehouseItemSet@@YAXHHE@Z@4JA DD 03fc0H ; `gObjWarehouseItemSet'::`1'::__LINE__Var
_DATA	ENDS
;	COMDAT ??_C@_0BF@PBCPKOJP@error?5?3?5?$CFd?1?$CFd?5?5?$CFs?5?$CFd@
CONST	SEGMENT
??_C@_0BF@PBCPKOJP@error?5?3?5?$CFd?1?$CFd?5?5?$CFs?5?$CFd@ DB 'error : %'
	DB	'd/%d  %s %d', 00H				; `string'
CONST	ENDS
;	COMDAT ?__LINE__Var@?0??gObjWarehouseItemBoxSet@@YAXHHHHE@Z@4JA
_DATA	SEGMENT
?__LINE__Var@?0??gObjWarehouseItemBoxSet@@YAXHHHHE@Z@4JA DD 03fa3H ; `gObjWarehouseItemBoxSet'::`1'::__LINE__Var
_DATA	ENDS
;	COMDAT ?__LINE__Var@?0??gObjMapRectCheck@@YAEPAEHHHHHH@Z@4JA
_DATA	SEGMENT
?__LINE__Var@?0??gObjMapRectCheck@@YAEPAEHHHHHH@Z@4JA DD 03f7cH ; `gObjMapRectCheck'::`1'::__LINE__Var
_DATA	ENDS
;	COMDAT ?__LINE__Var@?0??gObjWerehouseRectCheck@@YAEHHHHH@Z@4JA
_DATA	SEGMENT
?__LINE__Var@?0??gObjWerehouseRectCheck@@YAEHHHHH@Z@4JA DD 03f51H ; `gObjWerehouseRectCheck'::`1'::__LINE__Var
_DATA	ENDS
;	COMDAT ?__LINE__Var@?0??gObjOnlyInventoryRectCheck@@YAEHHHHH@Z@4JA
_DATA	SEGMENT
?__LINE__Var@?0??gObjOnlyInventoryRectCheck@@YAEHHHHH@Z@4JA DD 03d35H ; `gObjOnlyInventoryRectCheck'::`1'::__LINE__Var
_DATA	ENDS
;	COMDAT ?__LINE__Var@?0??gObjInventoryRectCheck@@YAEHHHHH@Z@4JA
_DATA	SEGMENT
?__LINE__Var@?0??gObjInventoryRectCheck@@YAEHHHHH@Z@4JA DD 03d01H ; `gObjInventoryRectCheck'::`1'::__LINE__Var
_DATA	ENDS
;	COMDAT ?__LINE__Var@?0??gObjInventoryInsertItem@@YAEPAVOBJECTSTRUCT@@HHHHH@Z@4JA
_DATA	SEGMENT
?__LINE__Var@?0??gObjInventoryInsertItem@@YAEPAVOBJECTSTRUCT@@HHHHH@Z@4JA DD 03c92H ; `gObjInventoryInsertItem'::`1'::__LINE__Var
_DATA	ENDS
;	COMDAT ?__LINE__Var@?0??gObjInventoryInsertItem@@YAEPAVOBJECTSTRUCT@@HHH@Z@4JA
_DATA	SEGMENT
?__LINE__Var@?0??gObjInventoryInsertItem@@YAEPAVOBJECTSTRUCT@@HHH@Z@4JA DD 03c61H ; `gObjInventoryInsertItem'::`1'::__LINE__Var
_DATA	ENDS
;	COMDAT ?__LINE__Var@?0??gObjInventoryInsertItemTemp@@YAEPAVOBJECTSTRUCT@@PAVCMapItem@@@Z@4JA
_DATA	SEGMENT
?__LINE__Var@?0??gObjInventoryInsertItemTemp@@YAEPAVOBJECTSTRUCT@@PAVCMapItem@@@Z@4JA DD 03c3eH ; `gObjInventoryInsertItemTemp'::`1'::__LINE__Var
_DATA	ENDS
;	COMDAT ?__LINE__Var@?0??gObjShopBuyInventoryInsertItemSerial@@YAEHVCItem@@@Z@4JA
_DATA	SEGMENT
?__LINE__Var@?0??gObjShopBuyInventoryInsertItemSerial@@YAEHVCItem@@@Z@4JA DD 03bdcH ; `gObjShopBuyInventoryInsertItemSerial'::`1'::__LINE__Var
_DATA	ENDS
;	COMDAT ?__LINE__Var@?0??gObjShopBuyInventoryInsertItem@@YAEHVCItem@@@Z@4JA
_DATA	SEGMENT
?__LINE__Var@?0??gObjShopBuyInventoryInsertItem@@YAEHVCItem@@@Z@4JA DD 03ba7H ; `gObjShopBuyInventoryInsertItem'::`1'::__LINE__Var
_DATA	ENDS
;	COMDAT ??_C@_0BB@FDAFLGGN@error?9L4?5?3?5?$CFs?5?$CFd@
CONST	SEGMENT
??_C@_0BB@FDAFLGGN@error?9L4?5?3?5?$CFs?5?$CFd@ DB 'error-L4 : %s %d', 00H ; `string'
CONST	ENDS
;	COMDAT ?__LINE__Var@?0??gObjSearchItemMinus@@YAHPAVOBJECTSTRUCT@@HH@Z@4JA
_DATA	SEGMENT
?__LINE__Var@?0??gObjSearchItemMinus@@YAHPAVOBJECTSTRUCT@@HH@Z@4JA DD 03b87H ; `gObjSearchItemMinus'::`1'::__LINE__Var
_DATA	ENDS
;	COMDAT ?__LINE__Var@?0??gObjInventoryInsertItem@@YAEHPAVCMapItem@@@Z@4JA
_DATA	SEGMENT
?__LINE__Var@?0??gObjInventoryInsertItem@@YAEHPAVCMapItem@@@Z@4JA DD 03b04H ; `gObjInventoryInsertItem'::`1'::__LINE__Var
_DATA	ENDS
;	COMDAT ?__LINE__Var@?0??gObjOnlyInventoryInsertItem@@YAEHVCItem@@@Z@4JA
_DATA	SEGMENT
?__LINE__Var@?0??gObjOnlyInventoryInsertItem@@YAEHVCItem@@@Z@4JA DD 03acbH ; `gObjOnlyInventoryInsertItem'::`1'::__LINE__Var
_DATA	ENDS
;	COMDAT ?__LINE__Var@?0??gObjInventoryInsertItem@@YAEHVCItem@@@Z@4JA
_DATA	SEGMENT
?__LINE__Var@?0??gObjInventoryInsertItem@@YAEHVCItem@@@Z@4JA DD 03a91H ; `gObjInventoryInsertItem'::`1'::__LINE__Var
_DATA	ENDS
;	COMDAT ?__LINE__Var@?0??gObjInventoryInsertItem@@YAEHH@Z@4JA
_DATA	SEGMENT
?__LINE__Var@?0??gObjInventoryInsertItem@@YAEHH@Z@4JA DD 03a52H ; `gObjInventoryInsertItem'::`1'::__LINE__Var
_DATA	ENDS
;	COMDAT ?__LINE__Var@?0??gObjInventoryItemBoxSet_PShop@@YAXHHHHE@Z@4JA
_DATA	SEGMENT
?__LINE__Var@?0??gObjInventoryItemBoxSet_PShop@@YAXHHHHE@Z@4JA DD 03a01H ; `gObjInventoryItemBoxSet_PShop'::`1'::__LINE__Var
_DATA	ENDS
;	COMDAT ?__LINE__Var@?0??gObjInventoryItemSet_PShop@@YAXHHE@Z@4JA
_DATA	SEGMENT
?__LINE__Var@?0??gObjInventoryItemSet_PShop@@YAXHHE@Z@4JA DD 039edH ; `gObjInventoryItemSet_PShop'::`1'::__LINE__Var
_DATA	ENDS
;	COMDAT ??_C@_0DF@DPJDFIHG@?$FLFix?5Inv?4Ptr?$FN?5?$FL?$CFs?$FN?$FL?$CFs?$FN?5?9?5Invent@
CONST	SEGMENT
??_C@_0DF@DPJDFIHG@?$FLFix?5Inv?4Ptr?$FN?5?$FL?$CFs?$FN?$FL?$CFs?$FN?5?9?5Invent@ DB '['
	DB	'Fix Inv.Ptr] [%s][%s] - Inventory Pointer was Wrong', 00H ; `string'
CONST	ENDS
;	COMDAT ??_C@_0DB@GPLONBA@?$FLFix?5Inv?4Ptr?$FN?5?$FL?$CFs?$FN?$FL?$CFs?$FN?5?9?5Invent@
CONST	SEGMENT
??_C@_0DB@GPLONBA@?$FLFix?5Inv?4Ptr?$FN?5?$FL?$CFs?$FN?$FL?$CFs?$FN?5?9?5Invent@ DB '['
	DB	'Fix Inv.Ptr] [%s][%s] - Inventory Pointer was 2', 00H ; `string'
CONST	ENDS
;	COMDAT ??_C@_0EB@NEEGDNDB@?$FLFix?5Inv?4Ptr?$FN?5?$FL?$CFs?$FN?$FL?$CFs?$FN?5?9?5Transa@
CONST	SEGMENT
??_C@_0EB@NEEGDNDB@?$FLFix?5Inv?4Ptr?$FN?5?$FL?$CFs?$FN?$FL?$CFs?$FN?5?9?5Transa@ DB '['
	DB	'Fix Inv.Ptr] [%s][%s] - Transaction == 1, Do not change Point'
	DB	'er', 00H					; `string'
CONST	ENDS
;	COMDAT ??_C@_0CG@KONHFAKK@?$FLFix?5Inv?4Ptr?$FN?5?$FL?$CFs?$FN?$FL?$CFs?$FN?5?9?5discon@
CONST	SEGMENT
??_C@_0CG@KONHFAKK@?$FLFix?5Inv?4Ptr?$FN?5?$FL?$CFs?$FN?$FL?$CFs?$FN?5?9?5discon@ DB '['
	DB	'Fix Inv.Ptr] [%s][%s] - disconnected', 00H	; `string'
CONST	ENDS
;	COMDAT ?__LINE__Var@?0??gObjInventoryItemBoxSet@@YAXHHHHE@Z@4JA
_DATA	SEGMENT
?__LINE__Var@?0??gObjInventoryItemBoxSet@@YAXHHHHE@Z@4JA DD 0398bH ; `gObjInventoryItemBoxSet'::`1'::__LINE__Var
_DATA	ENDS
;	COMDAT ?__LINE__Var@?0??gObjInventoryItemSet@@YAXHHE@Z@4JA
_DATA	SEGMENT
?__LINE__Var@?0??gObjInventoryItemSet@@YAXHHE@Z@4JA DD 03977H ; `gObjInventoryItemSet'::`1'::__LINE__Var
_DATA	ENDS
;	COMDAT ??_C@_0BE@GIFOPHN@Trade?5Rollback?5?$CI?$CFs?$CJ@
CONST	SEGMENT
??_C@_0BE@GIFOPHN@Trade?5Rollback?5?$CI?$CFs?$CJ@ DB 'Trade Rollback (%s)'
	DB	00H						; `string'
CONST	ENDS
;	COMDAT ?__LINE__Var@?0??gObjInventoryRollback@@YAHH@Z@4JA
_DATA	SEGMENT
?__LINE__Var@?0??gObjInventoryRollback@@YAHH@Z@4JA DD 0393dH ; `gObjInventoryRollback'::`1'::__LINE__Var
_DATA	ENDS
;	COMDAT ??_C@_0BC@PKOGNFCH@Trade?5Commit?5?$CI?$CFs?$CJ@
CONST	SEGMENT
??_C@_0BC@PKOGNFCH@Trade?5Commit?5?$CI?$CFs?$CJ@ DB 'Trade Commit (%s)', 00H ; `string'
CONST	ENDS
;	COMDAT ??_C@_0CN@FHLLPNOD@?$FL?$CFs?$FN?$FL?$CFs?$FN?5error?9L3?5?3?5pTransactio@
CONST	SEGMENT
??_C@_0CN@FHLLPNOD@?$FL?$CFs?$FN?$FL?$CFs?$FN?5error?9L3?5?3?5pTransactio@ DB '['
	DB	'%s][%s] error-L3 : pTransaction(%d) status2', 00H ; `string'
CONST	ENDS
;	COMDAT ??_C@_0DK@NFIOKOGL@error?5?3?5gObjInventoryCommit?$CI?$CJ?5?9@
CONST	SEGMENT
??_C@_0DK@NFIOKOGL@error?5?3?5gObjInventoryCommit?$CI?$CJ?5?9@ DB 'error '
	DB	': gObjInventoryCommit() - aIndex out of bound %s %d', 00H ; `string'
CONST	ENDS
;	COMDAT ?__LINE__Var@?0??gObjInventoryCommit@@YAHH@Z@4JA
_DATA	SEGMENT
?__LINE__Var@?0??gObjInventoryCommit@@YAHH@Z@4JA DD 0390dH ; `gObjInventoryCommit'::`1'::__LINE__Var
_DATA	ENDS
;	COMDAT ??_C@_0BH@NHBCKBPB@Trade?5Transaction?5?$CI?$CFs?$CJ@
CONST	SEGMENT
??_C@_0BH@NHBCKBPB@Trade?5Transaction?5?$CI?$CFs?$CJ@ DB 'Trade Transacti'
	DB	'on (%s)', 00H				; `string'
CONST	ENDS
;	COMDAT ??_C@_0DI@CKMLLKAG@?$FL?$CFs?$FN?$FL?$CFs?$FN?5error?9L3?5?3?5pTransactio@
CONST	SEGMENT
??_C@_0DI@CKMLLKAG@?$FL?$CFs?$FN?$FL?$CFs?$FN?5error?9L3?5?3?5pTransactio@ DB '['
	DB	'%s][%s] error-L3 : pTransaction(%d) status error %s %d', 00H ; `string'
CONST	ENDS
;	COMDAT ?__LINE__Var@?0??gObjInventoryTrans@@YAHH@Z@4JA
_DATA	SEGMENT
?__LINE__Var@?0??gObjInventoryTrans@@YAHH@Z@4JA DD 038dfH ; `gObjInventoryTrans'::`1'::__LINE__Var
_DATA	ENDS
;	COMDAT ??_C@_0FC@PMECEPOA@UPDATE?5?$FLMuOnline?$FN?4?$FLdbo?$FN?4?$FLCharac@
CONST	SEGMENT
??_C@_0FC@PMECEPOA@UPDATE?5?$FLMuOnline?$FN?4?$FLdbo?$FN?4?$FLCharac@ DB 'U'
	DB	'PDATE [MuOnline].[dbo].[Character] SET DuelLoser = DuelLoser '
	DB	'+ 1 WHERE Name=''%s''', 00H			; `string'
CONST	ENDS
;	COMDAT ??_C@_0FA@KCJNEJFM@UPDATE?5?$FLMuOnline?$FN?4?$FLdbo?$FN?4?$FLCharac@
CONST	SEGMENT
??_C@_0FA@KCJNEJFM@UPDATE?5?$FLMuOnline?$FN?4?$FLdbo?$FN?4?$FLCharac@ DB 'U'
	DB	'PDATE [MuOnline].[dbo].[Character] SET DuelWins = DuelWins + '
	DB	'1 WHERE Name=''%s''', 00H			; `string'
CONST	ENDS
;	COMDAT ??_C@_0CJ@KJGJCOOM@?$FLDuel?$FN?5?$FL?$CFs?$FN?$FL?$CFs?$FN?5Win?5Duel?0?5Loser@
CONST	SEGMENT
??_C@_0CJ@KJGJCOOM@?$FLDuel?$FN?5?$FL?$CFs?$FN?$FL?$CFs?$FN?5Win?5Duel?0?5Loser@ DB '['
	DB	'Duel] [%s][%s] Win Duel, Loser [%s][%s]', 00H ; `string'
CONST	ENDS
;	COMDAT ??_C@_0EM@OALGHOD@?$FLChaos?5Castle?$FN?5?$CI?$CFd?$CJ?5?$FL?$CFs?$FN?$FL?$CFs?$FN?5Us@
CONST	SEGMENT
??_C@_0EM@OALGHOD@?$FLChaos?5Castle?$FN?5?$CI?$CFd?$CJ?5?$FL?$CFs?$FN?$FL?$CFs?$FN?5Us@ DB '['
	DB	'Chaos Castle] (%d) [%s][%s] User Dead In Chaos Castle : Kille'
	DB	'd by [%s][%s]', 00H				; `string'
CONST	ENDS
;	COMDAT ??_C@_0DN@HEKHJLCJ@?$FLBlood?5Castle?$FN?5?$CI?$CFd?$CJ?5a?5stone?5sta@
CONST	SEGMENT
??_C@_0DN@HEKHJLCJ@?$FLBlood?5Castle?$FN?5?$CI?$CFd?$CJ?5a?5stone?5sta@ DB '['
	DB	'Blood Castle] (%d) a stone statue Of Saint Terminated -> %d', 00H ; `string'
CONST	ENDS
;	COMDAT ??_C@_0EG@KMNGALHI@?$FLBlood?5Castle?$FN?5?$CI?$CFd?$CJ?5a?5stone?5sta@
CONST	SEGMENT
??_C@_0EG@KMNGALHI@?$FLBlood?5Castle?$FN?5?$CI?$CFd?$CJ?5a?5stone?5sta@ DB '['
	DB	'Blood Castle] (%d) a stone statue Of Saint Terminated -> %d ['
	DB	'%s][%s]', 00H				; `string'
CONST	ENDS
;	COMDAT ??_C@_0CL@NGGLKHML@?$FLBlood?5Castle?$FN?5?$CI?$CFd?$CJ?5Door?5Termin@
CONST	SEGMENT
??_C@_0CL@NGGLKHML@?$FLBlood?5Castle?$FN?5?$CI?$CFd?$CJ?5Door?5Termin@ DB '['
	DB	'Blood Castle] (%d) Door Terminated -> %d)', 00H ; `string'
CONST	ENDS
;	COMDAT ??_C@_0DD@JANPNOOL@?$FLBlood?5Castle?$FN?5?$CI?$CFd?$CJ?5Door?5Termin@
CONST	SEGMENT
??_C@_0DD@JANPNOOL@?$FLBlood?5Castle?$FN?5?$CI?$CFd?$CJ?5Door?5Termin@ DB '['
	DB	'Blood Castle] (%d) Door Terminated -> %d [%s][%s]', 00H ; `string'
CONST	ENDS
;	COMDAT ??_C@_0CA@HJAGOCKC@?$FL?$CFs?$FN?5derroto?5un?5Tantalo?5Dorado?4@
CONST	SEGMENT
??_C@_0CA@HJAGOCKC@?$FL?$CFs?$FN?5derroto?5un?5Tantalo?5Dorado?4@ DB '[%s'
	DB	'] derroto un Tantalo Dorado.', 00H		; `string'
CONST	ENDS
;	COMDAT ??_C@_0CE@OLGAAMMO@?$FL?$CFs?$FN?5derroto?5un?5Lizard?5King?5Dor@
CONST	SEGMENT
??_C@_0CE@OLGAAMMO@?$FL?$CFs?$FN?5derroto?5un?5Lizard?5King?5Dor@ DB '[%s'
	DB	'] derroto un Lizard King Dorado.', 00H	; `string'
CONST	ENDS
;	COMDAT ??_C@_0BP@IAJJAOEN@?$FL?$CFs?$FN?5derroto?5un?5Dragon?5Dorado?4@
CONST	SEGMENT
??_C@_0BP@IAJJAOEN@?$FL?$CFs?$FN?5derroto?5un?5Dragon?5Dorado?4@ DB '[%s]'
	DB	' derroto un Dragon Dorado.', 00H		; `string'
CONST	ENDS
;	COMDAT ??_C@_0BO@EDKFBDOM@?$FL?$CFs?$FN?5derroto?5un?5Titan?5Dorado?4@
CONST	SEGMENT
??_C@_0BO@EDKFBDOM@?$FL?$CFs?$FN?5derroto?5un?5Titan?5Dorado?4@ DB '[%s] '
	DB	'derroto un Titan Dorado.', 00H		; `string'
CONST	ENDS
;	COMDAT ??_C@_0BP@GEEBCKIA@?$FL?$CFs?$FN?5derroto?5un?5Goblin?5Dorado?4@
CONST	SEGMENT
??_C@_0BP@GEEBCKIA@?$FL?$CFs?$FN?5derroto?5un?5Goblin?5Dorado?4@ DB '[%s]'
	DB	' derroto un Goblin Dorado.', 00H		; `string'
CONST	ENDS
;	COMDAT ?__LINE__Var@?0??gObjExpParty@@YAXPAVOBJECTSTRUCT@@0HH@Z@4JA
_DATA	SEGMENT
?__LINE__Var@?0??gObjExpParty@@YAXPAVOBJECTSTRUCT@@0HH@Z@4JA DD 032edH ; `gObjExpParty'::`1'::__LINE__Var
_DATA	ENDS
;	COMDAT ??_C@_0CE@HGMOIFIK@?$FL?$CFs?$FN?$FL?$CFs?$FN?5ReSet?5SelfDefence?5?$FL?$CFs?$FN@
CONST	SEGMENT
??_C@_0CE@HGMOIFIK@?$FL?$CFs?$FN?$FL?$CFs?$FN?5ReSet?5SelfDefence?5?$FL?$CFs?$FN@ DB '['
	DB	'%s][%s] ReSet SelfDefence [%s][%s]', 00H	; `string'
CONST	ENDS
;	COMDAT ??_C@_0CC@IPHFNLBG@?$FL?$CFs?$FN?$FL?$CFs?$FN?5Set?5SelfDefence?5?$FL?$CFs?$FN?$FL?$CF@
CONST	SEGMENT
??_C@_0CC@IPHFNLBG@?$FL?$CFs?$FN?$FL?$CFs?$FN?5Set?5SelfDefence?5?$FL?$CFs?$FN?$FL?$CF@ DB '['
	DB	'%s][%s] Set SelfDefence [%s][%s]', 00H	; `string'
CONST	ENDS
;	COMDAT ??_C@_0DL@HDCMLJGF@?$FL?$CFs?$FN?$FL?$CFs?$FN?$FLPetItemExpDown?$FN?5?$FL?$CFs?$FN?5L@
CONST	SEGMENT
??_C@_0DL@HDCMLJGF@?$FL?$CFs?$FN?$FL?$CFs?$FN?$FLPetItemExpDown?$FN?5?$FL?$CFs?$FN?5L@ DB '['
	DB	'%s][%s][PetItemExpDown] [%s] Level:[%d]Exp:[%d]DecExp[%d]', 00H ; `string'
CONST	ENDS
;	COMDAT ??_C@_0CK@PAJOKIHI@?$FL?$CFs?$FN?$FL?$CFs?$FN?5Death?5reduces?5Experien@
CONST	SEGMENT
??_C@_0CK@PAJOKIHI@?$FL?$CFs?$FN?$FL?$CFs?$FN?5Death?5reduces?5Experien@ DB '['
	DB	'%s][%s] Death reduces Experience %u - %d', 00H ; `string'
CONST	ENDS
;	COMDAT ??_C@_0CJ@CKMJEEKH@?$FL?$CFs?$FN?$FL?$CFs?$FN?5User?5Die?5Item?5Drop?0?5It@
CONST	SEGMENT
??_C@_0CJ@CKMJEEKH@?$FL?$CFs?$FN?$FL?$CFs?$FN?5User?5Die?5Item?5Drop?0?5It@ DB '['
	DB	'%s][%s] User Die Item Drop, ItemName:%s', 00H ; `string'
CONST	ENDS
;	COMDAT ??_C@_0GL@DJDDMNFC@Killed?5by?5User?5State?5Victim?3?$FL?$CFs@
CONST	SEGMENT
??_C@_0GL@DJDDMNFC@Killed?5by?5User?5State?5Victim?3?$FL?$CFs@ DB 'Killed'
	DB	' by User State Victim:[%s][%s], Murderer:[%s][%s], Dead State'
	DB	' (Duel:%d, GuildWar:%d, SeldDefense:%d)', 00H ; `string'
CONST	ENDS
;	COMDAT ??_C@_0EG@HIGLADFI@?$FL?$CFs?$FN?$FL?$CFs?$FN?5?$CIPkLevel?5?$DN?5?$CFd?$CJ?5Killed?5@
CONST	SEGMENT
??_C@_0EG@HIGLADFI@?$FL?$CFs?$FN?$FL?$CFs?$FN?5?$CIPkLevel?5?$DN?5?$CFd?$CJ?5Killed?5@ DB '['
	DB	'%s][%s] (PkLevel = %d) Killed [%s][%s] (PkLevel = %d) Pos:(%d'
	DB	',%d,%d)', 00H				; `string'
CONST	ENDS
;	COMDAT ??_C@_0CI@JFDMHJOK@?$FL?$CFs?$FN?$FL?$CFs?$FN?5Killed?5?$FL?$CFs?$FN?$FL?$CFs?$FN?5Pos?3?$CI?$CF@
CONST	SEGMENT
??_C@_0CI@JFDMHJOK@?$FL?$CFs?$FN?$FL?$CFs?$FN?5Killed?5?$FL?$CFs?$FN?$FL?$CFs?$FN?5Pos?3?$CI?$CF@ DB '['
	DB	'%s][%s] Killed [%s][%s] Pos:(%d,%d,%d)', 00H ; `string'
CONST	ENDS
;	COMDAT ??_C@_07GOHPBKOH@Monster@
CONST	SEGMENT
??_C@_07GOHPBKOH@Monster@ DB 'Monster', 00H		; `string'
CONST	ENDS
;	COMDAT ??_C@_0EM@NNNAIELC@?$FLBlood?5Castle?$FN?5?$CI?$CFd?$CJ?5Dead?5In?5Blo@
CONST	SEGMENT
??_C@_0EM@NNNAIELC@?$FLBlood?5Castle?$FN?5?$CI?$CFd?$CJ?5Dead?5In?5Blo@ DB '['
	DB	'Blood Castle] (%d) Dead In Blood Castle, Killed by Other User'
	DB	' [%s][%s][%s]', 00H				; `string'
CONST	ENDS
;	COMDAT ??_C@_0EJ@EGIDAPD@?$FLBlood?5Castle?$FN?5?$CI?$CFd?$CJ?5Dead?5In?5Blo@
CONST	SEGMENT
??_C@_0EJ@EGIDAPD@?$FLBlood?5Castle?$FN?5?$CI?$CFd?$CJ?5Dead?5In?5Blo@ DB '['
	DB	'Blood Castle] (%d) Dead In Blood Castle, Killed by Monster [%'
	DB	's][%s][%s]', 00H				; `string'
CONST	ENDS
;	COMDAT ??_C@_0DL@COJKOION@?$FLBlood?5Castle?$FN?5?$CI?$CFd?$CJ?5Try?5to?5dele@
CONST	SEGMENT
??_C@_0DL@COJKOION@?$FLBlood?5Castle?$FN?5?$CI?$CFd?$CJ?5Try?5to?5dele@ DB '['
	DB	'Blood Castle] (%d) Try to delete Ultimate Weapon [%s][%s]', 00H ; `string'
CONST	ENDS
;	COMDAT ??_C@_0DJ@HJPHEOFL@?$FLBlood?5Castle?$FN?5?$CI?$CFd?$CJ?5Try?5to?5drop@
CONST	SEGMENT
??_C@_0DJ@HJPHEOFL@?$FLBlood?5Castle?$FN?5?$CI?$CFd?$CJ?5Try?5to?5drop@ DB '['
	DB	'Blood Castle] (%d) Try to drop Ultimate Weapon [%s][%s]', 00H ; `string'
CONST	ENDS
;	COMDAT ??_C@_0CP@MMNCCLML@?$FLDevilSquare?$FN?5Dead?5In?5DevilSqua@
CONST	SEGMENT
??_C@_0CP@MMNCCLML@?$FLDevilSquare?$FN?5Dead?5In?5DevilSqua@ DB '[DevilSq'
	DB	'uare] Dead In DevilSquare [%s][%s][%s]', 00H ; `string'
CONST	ENDS
;	COMDAT ??_C@_0GE@HFNAODDP@?$FL?$CFs?$FN?$FL?$CFs?$FN?5PK?5Info?5Set?5?$CIKilled?5Pl@
CONST	SEGMENT
??_C@_0GE@HFNAODDP@?$FL?$CFs?$FN?$FL?$CFs?$FN?5PK?5Info?5Set?5?$CIKilled?5Pl@ DB '['
	DB	'%s][%s] PK Info Set (Killed Player) Origin(PkLevel:%d, PkCoun'
	DB	't:%d) Changed(PkLevel:%d, PkCount:%d)', 00H	; `string'
CONST	ENDS
;	COMDAT ??_C@_0BD@BPJMFINL@file?5open?5error?5?$CFs@
CONST	SEGMENT
??_C@_0BD@BPJMFINL@file?5open?5error?5?$CFs@ DB 'file open error %s', 00H ; `string'
CONST	ENDS
;	COMDAT ??_C@_01KDCPPGHE@r@
CONST	SEGMENT
??_C@_01KDCPPGHE@r@ DB 'r', 00H				; `string'
CONST	ENDS
;	COMDAT ?__LINE__Var@?0??gObjLevelUpPointAdd@@YAHEPAVOBJECTSTRUCT@@@Z@4JA
_DATA	SEGMENT
?__LINE__Var@?0??gObjLevelUpPointAdd@@YAHEPAVOBJECTSTRUCT@@@Z@4JA DD 01f8aH ; `gObjLevelUpPointAdd'::`1'::__LINE__Var
_DATA	ENDS
;	COMDAT ??_C@_0DA@KDBPKGIM@?$FL?$CFs?$FN?$FL?$CFs?$FN?5LevelUp?5PlusStatQuest?5@
CONST	SEGMENT
??_C@_0DA@KDBPKGIM@?$FL?$CFs?$FN?$FL?$CFs?$FN?5LevelUp?5PlusStatQuest?5@ DB '['
	DB	'%s][%s] LevelUp PlusStatQuest Clear AddStat %d', 00H ; `string'
CONST	ENDS
;	COMDAT ??_C@_0FI@OHEIPIHL@Experience?5?3?5Map?$FL?$CFd?$FN?9?$CI?$CFd?0?$CFd?$CJ?5?$FL?$CF@
CONST	SEGMENT
??_C@_0FI@OHEIPIHL@Experience?5?3?5Map?$FL?$CFd?$FN?9?$CI?$CFd?0?$CFd?$CJ?5?$FL?$CF@ DB 'E'
	DB	'xperience : Map[%d]-(%d,%d) [%s][%s](%d) %I64u %I64d MonsterI'
	DB	'ndex : %d, EventType : %d', 00H		; `string'
CONST	ENDS
;	COMDAT ?__LINE__Var@?0??gObjBackSpring2@@YAHPAVOBJECTSTRUCT@@0H@Z@4JA
_DATA	SEGMENT
?__LINE__Var@?0??gObjBackSpring2@@YAHPAVOBJECTSTRUCT@@0H@Z@4JA DD 01dccH ; `gObjBackSpring2'::`1'::__LINE__Var
_DATA	ENDS
;	COMDAT ?__LINE__Var@?0??gObjBackSpring@@YAHPAVOBJECTSTRUCT@@0@Z@4JA
_DATA	SEGMENT
?__LINE__Var@?0??gObjBackSpring@@YAHPAVOBJECTSTRUCT@@0@Z@4JA DD 01ce1H ; `gObjBackSpring'::`1'::__LINE__Var
_DATA	ENDS
;	COMDAT ?__LINE__Var@?0??gObjStateAttackProc@@YAXPAVOBJECTSTRUCT@@HHHH@Z@4JA
_DATA	SEGMENT
?__LINE__Var@?0??gObjStateAttackProc@@YAXPAVOBJECTSTRUCT@@HHHH@Z@4JA DD 01ca9H ; `gObjStateAttackProc'::`1'::__LINE__Var
_DATA	ENDS
;	COMDAT ?__LINE__Var@?0??gObjStateProc@@YAXPAVOBJECTSTRUCT@@HHH@Z@4JA
_DATA	SEGMENT
?__LINE__Var@?0??gObjStateProc@@YAXPAVOBJECTSTRUCT@@HHH@Z@4JA DD 01c2eH ; `gObjStateProc'::`1'::__LINE__Var
_DATA	ENDS
;	COMDAT ??_C@_0BN@NCIMKKEA@error?5?3?5index?5error?5?$CB?$CB?5?$CFs?5?$CFd@
CONST	SEGMENT
??_C@_0BN@NCIMKKEA@error?5?3?5index?5error?5?$CB?$CB?5?$CFs?5?$CFd@ DB 'e'
	DB	'rror : index error !! %s %d', 00H		; `string'
CONST	ENDS
;	COMDAT ?__LINE__Var@?0??gObjUserIdConnectCheck@@YAHPADH@Z@4JA
_DATA	SEGMENT
?__LINE__Var@?0??gObjUserIdConnectCheck@@YAHPADH@Z@4JA DD 01b42H ; `gObjUserIdConnectCheck'::`1'::__LINE__Var
_DATA	ENDS
;	COMDAT ?__LINE__Var@?0??gObjGetAccountId@@YAPADH@Z@4JA
_DATA	SEGMENT
?__LINE__Var@?0??gObjGetAccountId@@YAPADH@Z@4JA DD 01b1dH ; `gObjGetAccountId'::`1'::__LINE__Var
_DATA	ENDS
;	COMDAT ?__LINE__Var@?0??gObjGetNumber@@YAHHAAH0@Z@4JA
_DATA	SEGMENT
?__LINE__Var@?0??gObjGetNumber@@YAHHAAH0@Z@4JA DD 01b0fH ; `gObjGetNumber'::`1'::__LINE__Var
_DATA	ENDS
;	COMDAT ?__LINE__Var@?0??gObjGetUserNumber@@YAHH@Z@4JA
_DATA	SEGMENT
?__LINE__Var@?0??gObjGetUserNumber@@YAHH@Z@4JA DD 01afeH ; `gObjGetUserNumber'::`1'::__LINE__Var
_DATA	ENDS
;	COMDAT ?__LINE__Var@?0??gObjSetAccountLogin@@YAHHPADHH0@Z@4JA
_DATA	SEGMENT
?__LINE__Var@?0??gObjSetAccountLogin@@YAHHPADHH0@Z@4JA DD 01aa6H ; `gObjSetAccountLogin'::`1'::__LINE__Var
_DATA	ENDS
;	COMDAT ??_C@_0GB@MEEFOHBG@?$FL?5CHECK?5POSITION?5?$FN?5DbgName?$FL?$CFd?$FN?5@
CONST	SEGMENT
??_C@_0GB@MEEFOHBG@?$FL?5CHECK?5POSITION?5?$FN?5DbgName?$FL?$CFd?$FN?5@ DB '['
	DB	' CHECK POSITION ] DbgName[%d] [%s][%s] Map[%d]-(%d,%d) Invali'
	DB	'd location causes to force to move', 00H	; `string'
CONST	ENDS
;	COMDAT ?__LINE__Var@?0??gObjSometimeClose@@YAFH@Z@4JA
_DATA	SEGMENT
?__LINE__Var@?0??gObjSometimeClose@@YAFH@Z@4JA DD 018faH ; `gObjSometimeClose'::`1'::__LINE__Var
_DATA	ENDS
;	COMDAT ??_C@_0CG@GAOPIMKK@?0?5?$CI?$CFd?$CJlogout?5?3?0?5Account?5?$FL?$CFs?$FN?0?5I@
CONST	SEGMENT
??_C@_0CG@GAOPIMKK@?0?5?$CI?$CFd?$CJlogout?5?3?0?5Account?5?$FL?$CFs?$FN?0?5I@ DB ','
	DB	' (%d)logout :, Account [%s], IP [%s]', 00H	; `string'
CONST	ENDS
;	COMDAT ??_C@_0BF@FJCKJIOE@?$CI?$CFd?$CJlogout?5?3?5?$CFs?5?$FL?$CFs?$FN@
CONST	SEGMENT
??_C@_0BF@FJCKJIOE@?$CI?$CFd?$CJlogout?5?3?5?$CFs?5?$FL?$CFs?$FN@ DB '(%d'
	DB	')logout : %s [%s]', 00H			; `string'
CONST	ENDS
;	COMDAT ??_C@_0CL@DMPMEDAE@?0?5?$CI?$CFd?$CJlogout?9send?5?3?0?5Account?5?$FL?$CF@
CONST	SEGMENT
??_C@_0CL@DMPMEDAE@?0?5?$CI?$CFd?$CJlogout?9send?5?3?0?5Account?5?$FL?$CF@ DB ','
	DB	' (%d)logout-send :, Account [%s], IP [%s]', 00H ; `string'
CONST	ENDS
;	COMDAT ??_C@_0BK@FHEGNDKC@?$CI?$CFd?$CJlogout?9send?5?3?5?$CFs?5?$FL?$CFs?$FN@
CONST	SEGMENT
??_C@_0BK@FHEGNDKC@?$CI?$CFd?$CJlogout?9send?5?3?5?$CFs?5?$FL?$CFs?$FN@ DB '('
	DB	'%d)logout-send : %s [%s]', 00H		; `string'
CONST	ENDS
;	COMDAT ?__LINE__Var@?0??gObjDel@@YAFH@Z@4JA
_DATA	SEGMENT
?__LINE__Var@?0??gObjDel@@YAFH@Z@4JA DD 01896H		; `gObjDel'::`1'::__LINE__Var
_DATA	ENDS
;	COMDAT ??_C@_0CG@NFDFKIHI@?$FLFix?5Inv?4Ptr?$FN?5False?5Location?5?9?5@
CONST	SEGMENT
??_C@_0CG@NFDFKIHI@?$FLFix?5Inv?4Ptr?$FN?5False?5Location?5?9?5@ DB '[Fix'
	DB	' Inv.Ptr] False Location - %s, %d', 00H	; `string'
CONST	ENDS
;	COMDAT ?__LINE__Var@?0??gObjGameClose@@YAHH@Z@4JA
_DATA	SEGMENT
?__LINE__Var@?0??gObjGameClose@@YAHH@Z@4JA DD 01762H	; `gObjGameClose'::`1'::__LINE__Var
_DATA	ENDS
;	COMDAT ??_C@_0CB@PNMAPJFE@?$CI?$CFs?$CJ?$CI?$CFd?$CJ?5?$DN?5index?5over?5error?5?$CI?$CFd@
CONST	SEGMENT
??_C@_0CB@PNMAPJFE@?$CI?$CFs?$CJ?$CI?$CFd?$CJ?5?$DN?5index?5over?5error?5?$CI?$CFd@ DB '('
	DB	'%s)(%d) = index over error (%d)', 00H	; `string'
CONST	ENDS
;	COMDAT ?__LINE__Var@?0??gObjMemFree@@YAFH@Z@4JA
_DATA	SEGMENT
?__LINE__Var@?0??gObjMemFree@@YAFH@Z@4JA DD 0171dH	; `gObjMemFree'::`1'::__LINE__Var
_DATA	ENDS
;	COMDAT ?__LINE__Var@?0??gObjAddCallMon@@YAFXZ@4JA
_DATA	SEGMENT
?__LINE__Var@?0??gObjAddCallMon@@YAFXZ@4JA DD 015cdH	; `gObjAddCallMon'::`1'::__LINE__Var
_DATA	ENDS
;	COMDAT ?__LINE__Var@?0??gObjAddMonster@@YAFH@Z@4JA
_DATA	SEGMENT
?__LINE__Var@?0??gObjAddMonster@@YAFH@Z@4JA DD 01556H	; `gObjAddMonster'::`1'::__LINE__Var
_DATA	ENDS
;	COMDAT ??_C@_0BD@LOIPIKDB@connect?5?3?5?$FL?$CFd?$FN?$FL?$CFs?$FN@
CONST	SEGMENT
??_C@_0BD@LOIPIKDB@connect?5?3?5?$FL?$CFd?$FN?$FL?$CFs?$FN@ DB 'connect :'
	DB	' [%d][%s]', 00H				; `string'
CONST	ENDS
;	COMDAT ??_C@_0BO@HDDGJDLK@SkyLand?5Boss?5Shield?5Setting?$CB?$CB@
CONST	SEGMENT
??_C@_0BO@HDDGJDLK@SkyLand?5Boss?5Shield?5Setting?$CB?$CB@ DB 'SkyLand Bo'
	DB	'ss Shield Setting!!', 00H			; `string'
CONST	ENDS
;	COMDAT ??_C@_0BP@GCONPPCF@SkyLand?5Boss?5Monster?5Setting?$CB?$CB@
CONST	SEGMENT
??_C@_0BP@GCONPPCF@SkyLand?5Boss?5Monster?5Setting?$CB?$CB@ DB 'SkyLand B'
	DB	'oss Monster Setting!!', 00H			; `string'
CONST	ENDS
;	COMDAT ??_C@_0BF@DGECBEHF@?C?$LF?$LA?x?$LK?$LI?$LN?$LK?$LI?w?5?$LM?$LD?A?$KE?5?$LN?G?F?P@
CONST	SEGMENT
??_C@_0BF@DGECBEHF@?C?$LF?$LA?x?$LK?$LI?$LN?$LK?$LI?w?5?$LM?$LD?A?$KE?5?$LN?G?F?P@ DB 0c3H
	DB	0b5H, 0b0H, 0f8H, 0baH, 0b8H, 0bdH, 0baH, 0b8H, 0f7H, ' ', 0bcH
	DB	0b3H, 0c1H, 0a4H, ' ', 0bdH, 0c7H, 0c6H, 0d0H, 00H ; `string'
CONST	ENDS
;	COMDAT ?__LINE__Var@?0??gObjSetMonster@@YAHHH@Z@4JA
_DATA	SEGMENT
?__LINE__Var@?0??gObjSetMonster@@YAHHH@Z@4JA DD 011f7H	; `gObjSetMonster'::`1'::__LINE__Var
_DATA	ENDS
;	COMDAT ??_C@_0BJ@KEIINKC@error?9L2?5?3?5?$CFd?5class?5?3?5?$CFd@
CONST	SEGMENT
??_C@_0BJ@KEIINKC@error?9L2?5?3?5?$CFd?5class?5?3?5?$CFd@ DB 'error-L2 : '
	DB	'%d class : %d', 00H				; `string'
CONST	ENDS
;	COMDAT ?__LINE__Var@?0??gObjSetPosMonster@@YAHHH@Z@4JA
_DATA	SEGMENT
?__LINE__Var@?0??gObjSetPosMonster@@YAHHH@Z@4JA DD 011b2H ; `gObjSetPosMonster'::`1'::__LINE__Var
_DATA	ENDS
;	COMDAT ??_C@_0HG@OJODFIFG@?$FL?$CFs?$FN?$FL?$CFs?$FN?5CharInfoSave?5?3?5Class?$DN?$CF@
CONST	SEGMENT
??_C@_0HG@OJODFIFG@?$FL?$CFs?$FN?$FL?$CFs?$FN?5CharInfoSave?5?3?5Class?$DN?$CF@ DB '['
	DB	'%s][%s] CharInfoSave : Class=%d Level=%d LVPoint=%d Exp=%u St'
	DB	'r=%d Dex=%d Vit=%d Energy=%d Leadership:%d Map=%d Pk=%d', 00H ; `string'
CONST	ENDS
;	COMDAT ??_C@_0BK@EFNGMPBL@Free?5User?5Connected?3?5?$FL?$CFs?$FN@
CONST	SEGMENT
??_C@_0BK@EFNGMPBL@Free?5User?5Connected?3?5?$FL?$CFs?$FN@ DB 'Free User '
	DB	'Connected: [%s]', 00H			; `string'
CONST	ENDS
;	COMDAT ??_C@_0CB@PBFGMDKK@VIP?5User?5Connected?3?5?$FL?$CFs?$FN?$FL?$CFd?$FN?$FL?$CFs@
CONST	SEGMENT
??_C@_0CB@PBFGMDKK@VIP?5User?5Connected?3?5?$FL?$CFs?$FN?$FL?$CFd?$FN?$FL?$CFs@ DB 'V'
	DB	'IP User Connected: [%s][%d][%s]', 00H	; `string'
CONST	ENDS
;	COMDAT ??_C@_0BC@JJLOFGFB@?$CFd?1?$CFm?1?$CFY?5?$CFH?3?$CFM?3?$CFS@
CONST	SEGMENT
??_C@_0BC@JJLOFGFB@?$CFd?1?$CFm?1?$CFY?5?$CFH?3?$CFM?3?$CFS@ DB '%d/%m/%Y'
	DB	' %H:%M:%S', 00H				; `string'
CONST	ENDS
;	COMDAT ??_C@_0CA@EIDBCBFJ@?$FLCASH?5SYSTEM?$FN?5Tienes?5?$CFd?5de?5Cash@
CONST	SEGMENT
??_C@_0CA@EIDBCBFJ@?$FLCASH?5SYSTEM?$FN?5Tienes?5?$CFd?5de?5Cash@ DB '[CA'
	DB	'SH SYSTEM] Tienes %d de Cash', 00H		; `string'
CONST	ENDS
;	COMDAT ??_C@_08NKGJGPDF@?1vipinfo@
CONST	SEGMENT
??_C@_08NKGJGPDF@?1vipinfo@ DB '/vipinfo', 00H		; `string'
CONST	ENDS
;	COMDAT ??_C@_0BF@JCIHPMHF@?$LO?x?$LE?B?5?$LO?F?$MA?L?E?$NL?5?$LJ?$NP?$LA?$NP?5?$CB?$CB?$CB@
CONST	SEGMENT
??_C@_0BF@JCIHPMHF@?$LO?x?$LE?B?5?$LO?F?$MA?L?E?$NL?5?$LJ?$NP?$LA?$NP?5?$CB?$CB?$CB@ DB 0beH
	DB	0f8H, 0b4H, 0c2H, ' ', 0beH, 0c6H, 0c0H, 0ccH, 0c5H, 0dbH, ' ', 0b9H
	DB	0dfH, 0b0H, 0dfH, ' !!!', 00H		; `string'
CONST	ENDS
;	COMDAT ??_C@_0CC@GOGGAFJG@Penalty?5?3?5Item?5Don?8t?5touch?5?5?$CFs?5@
CONST	SEGMENT
??_C@_0CC@GOGGAFJG@Penalty?5?3?5Item?5Don?8t?5touch?5?5?$CFs?5@ DB 'Penal'
	DB	'ty : Item Don''t touch  %s %s', 00H		; `string'
CONST	ENDS
;	COMDAT ??_C@_0BG@DNBFMJJP@?$CI?$CFs?$CJ?$CI?$CFs?$CJ?5Set?5Event?5GM@
CONST	SEGMENT
??_C@_0BG@DNBFMJJP@?$CI?$CFs?$CJ?$CI?$CFs?$CJ?5Set?5Event?5GM@ DB '(%s)(%'
	DB	's) Set Event GM', 00H			; `string'
CONST	ENDS
;	COMDAT ??_C@_0CF@PDDCMPCL@?$FL?$CFs?$FN?$FL?$CFs?$FN?5Find?5Invalid?5QuestInfo@
CONST	SEGMENT
??_C@_0CF@PDDCMPCL@?$FL?$CFs?$FN?$FL?$CFs?$FN?5Find?5Invalid?5QuestInfo@ DB '['
	DB	'%s][%s] Find Invalid QuestInfo (%d)', 00H	; `string'
CONST	ENDS
;	COMDAT ??_C@_0BD@DHOELAFE@error?5?3?5?$CFd?5?$CI?$CFs?5?$CFd?$CJ@
CONST	SEGMENT
??_C@_0BD@DHOELAFE@error?5?3?5?$CFd?5?$CI?$CFs?5?$CFd?$CJ@ DB 'error : %d'
	DB	' (%s %d)', 00H				; `string'
CONST	ENDS
;	COMDAT ??_C@_0CD@JILLGNNC@error?5?3?5Map?5Number?5max?5over?4?5?$CFs@
CONST	SEGMENT
??_C@_0CD@JILLGNNC@error?5?3?5Map?5Number?5max?5over?4?5?$CFs@ DB 'error '
	DB	': Map Number max over. %s %d', 00H		; `string'
CONST	ENDS
;	COMDAT ??_C@_0BG@PGPOOLHE@error?5?3?5?$CFs?5Level?5Zero@
CONST	SEGMENT
??_C@_0BG@PGPOOLHE@error?5?3?5?$CFs?5Level?5Zero@ DB 'error : %s Level Ze'
	DB	'ro', 00H					; `string'
CONST	ENDS
;	COMDAT ??_C@_0CF@CDKKBDHM@error?9L1?5?3?5ChaosBox?5Init?5error?5@
CONST	SEGMENT
??_C@_0CF@CDKKBDHM@error?9L1?5?3?5ChaosBox?5Init?5error?5@ DB 'error-L1 :'
	DB	' ChaosBox Init error %s %d', 00H		; `string'
CONST	ENDS
;	COMDAT ??_C@_0O@CKAEPJAF@error?5?3?5?$CFs?5?$CFd@
CONST	SEGMENT
??_C@_0O@CKAEPJAF@error?5?3?5?$CFs?5?$CFd@ DB 'error : %s %d', 00H ; `string'
CONST	ENDS
;	COMDAT ?__LINE__Var@?0??gObjSetCharacter@@YAHPAEH@Z@4JA
_DATA	SEGMENT
?__LINE__Var@?0??gObjSetCharacter@@YAHPAEH@Z@4JA DD 0b91H ; `gObjSetCharacter'::`1'::__LINE__Var
_DATA	ENDS
;	COMDAT ??_C@_0GK@NPPGCJHE@error?9L2?5?3?5Unknown?5Item?5found?5?$FL@
CONST	SEGMENT
??_C@_0GK@NPPGCJHE@error?9L2?5?3?5Unknown?5Item?5found?5?$FL@ DB 'error-L'
	DB	'2 : Unknown Item found [%s][%s] (Type:%d, LEV:%d, DUR:%d OP1:'
	DB	'%d, OP2:%d, OP3:%d, NEWOP:%d, SET:%d)', 00H	; `string'
CONST	ENDS
;	COMDAT ??_C@_0CA@HDKCFMCD@error?9L3?5?3?5map?5number?5not?5?$CFs?5?$CFd@
CONST	SEGMENT
??_C@_0CA@HDKCFMCD@error?9L3?5?3?5map?5number?5not?5?$CFs?5?$CFd@ DB 'err'
	DB	'or-L3 : map number not %s %d', 00H		; `string'
CONST	ENDS
;	COMDAT ?__LINE__Var@?0??GetMapMoveLevel@@YAHPAVOBJECTSTRUCT@@HH@Z@4JA
_DATA	SEGMENT
?__LINE__Var@?0??GetMapMoveLevel@@YAHPAVOBJECTSTRUCT@@HH@Z@4JA DD 0909H ; `GetMapMoveLevel'::`1'::__LINE__Var
_DATA	ENDS
;	COMDAT ??_C@_0GG@GPEABMHM@?$FL?5CHECK?5POSITION?5?$FN?5MoveMosterPr@
CONST	SEGMENT
??_C@_0GG@GPEABMHM@?$FL?5CHECK?5POSITION?5?$FN?5MoveMosterPr@ DB '[ CHECK'
	DB	' POSITION ] MoveMosterProc [%s][%s] Map[%d]-(%d,%d) User(%d,%'
	DB	'd) Can not Move Position Attr[%d]', 00H	; `string'
CONST	ENDS
;	COMDAT ??_C@_0DE@GDMCBCLE@?$KB?Z?$FLCHECK_LOG_INFINITY?$FN?5?$CI?5_count@
CONST	SEGMENT
??_C@_0DE@GDMCBCLE@?$KB?Z?$FLCHECK_LOG_INFINITY?$FN?5?$CI?5_count@ DB 0a1H
	DB	0daH, '[CHECK_LOG_INFINITY] ( _count > 100 ) error %s %d', 00H ; `string'
CONST	ENDS
;	COMDAT ??_C@_0DF@NOIKLNAL@?$KB?Z?$FLCHECK_LOG_INFINITY?$FN?5gObjIsCo@
CONST	SEGMENT
??_C@_0DF@NOIKLNAL@?$KB?Z?$FLCHECK_LOG_INFINITY?$FN?5gObjIsCo@ DB 0a1H, 0daH
	DB	'[CHECK_LOG_INFINITY] gObjIsConnected() error %s %d', 00H ; `string'
CONST	ENDS
;	COMDAT ??_C@_0DH@BCNNLIDP@C?3?2Mu?5Online?2Mu?9GS?9Webzen?9MC?910@
CONST	SEGMENT
??_C@_0DH@BCNNLIDP@C?3?2Mu?5Online?2Mu?9GS?9Webzen?9MC?910@ DB 'C:\Mu Onl'
	DB	'ine\Mu-GS-Webzen-MC-10093\GameServer\user.cpp', 00H ; `string'
CONST	ENDS
;	COMDAT ?__LINE__Var@?0??gObjSkillUseProcTime500@@YAXPAVOBJECTSTRUCT@@@Z@4JA
_DATA	SEGMENT
?__LINE__Var@?0??gObjSkillUseProcTime500@@YAXPAVOBJECTSTRUCT@@@Z@4JA DD 024bH ; `gObjSkillUseProcTime500'::`1'::__LINE__Var
_DATA	ENDS
;	COMDAT ??_7StaticObject@@6B@
CONST	SEGMENT
??_7StaticObject@@6B@ DD FLAT:??_R4StaticObject@@6B@	; StaticObject::`vftable'
	DD	FLAT:??_EStaticObject@@UAEPAXI@Z
CONST	ENDS
;	COMDAT ??_C@_0BK@CPKHJPAP@QeustNpc?5RefCount?5Dec?$DN?5?$CFd@
CONST	SEGMENT
??_C@_0BK@CPKHJPAP@QeustNpc?5RefCount?5Dec?$DN?5?$CFd@ DB 'QeustNpc RefCo'
	DB	'unt Dec= %d', 00H				; `string'
CONST	ENDS
;	COMDAT ??_C@_00CNPNBAHC@@
CONST	SEGMENT
??_C@_00CNPNBAHC@@ DB 00H				; `string'
CONST	ENDS
;	COMDAT xdata$x
xdata$x	SEGMENT
__unwindtable$??0StaticObject@@QAE@XZ DD 0ffffffffH
	DD	FLAT:__unwindfunclet$??0StaticObject@@QAE@XZ$0
__ehfuncinfo$??0StaticObject@@QAE@XZ DD 019930522H
	DD	01H
	DD	FLAT:__unwindtable$??0StaticObject@@QAE@XZ
	DD	2 DUP(00H)
	DD	2 DUP(00H)
	DD	00H
	DD	01H
xdata$x	ENDS
;	COMDAT xdata$x
xdata$x	SEGMENT
__sehtable$?gObjInventoryMoveItem@@YAEHEEAAH0EEPAE@Z DD 0ffffffe4H
	DD	00H
	DD	0fffffefcH
	DD	00H
	DD	0fffffffeH
	DD	00H
	DD	FLAT:$LN196@gObjInvent
xdata$x	ENDS
;	COMDAT xdata$x
xdata$x	SEGMENT
__unwindtable$?gObjSetCharacter@@YAHPAEH@Z DD 0ffffffffH
	DD	FLAT:__unwindfunclet$?gObjSetCharacter@@YAHPAEH@Z$0
__ehfuncinfo$?gObjSetCharacter@@YAHPAEH@Z DD 019930522H
	DD	01H
	DD	FLAT:__unwindtable$?gObjSetCharacter@@YAHPAEH@Z
	DD	2 DUP(00H)
	DD	2 DUP(00H)
	DD	00H
	DD	01H
xdata$x	ENDS
;	COMDAT xdata$x
xdata$x	SEGMENT
__ehfuncinfo$?gObjInit@@YAXXZ DD 019930522H
	DD	07H
	DD	FLAT:__unwindtable$?gObjInit@@YAXXZ
	DD	2 DUP(00H)
	DD	2 DUP(00H)
	DD	00H
	DD	01H
__unwindtable$?gObjInit@@YAXXZ DD 0ffffffffH
	DD	FLAT:__unwindfunclet$?gObjInit@@YAXXZ$0
	DD	0ffffffffH
	DD	FLAT:__unwindfunclet$?gObjInit@@YAXXZ$1
	DD	0ffffffffH
	DD	FLAT:__unwindfunclet$?gObjInit@@YAXXZ$2
	DD	0ffffffffH
	DD	FLAT:__unwindfunclet$?gObjInit@@YAXXZ$3
	DD	0ffffffffH
	DD	FLAT:__unwindfunclet$?gObjInit@@YAXXZ$4
	DD	0ffffffffH
	DD	FLAT:__unwindfunclet$?gObjInit@@YAXXZ$5
	DD	0ffffffffH
	DD	FLAT:__unwindfunclet$?gObjInit@@YAXXZ$6
xdata$x	ENDS
;	COMDAT xdata$x
xdata$x	SEGMENT
__ehfuncinfo$??_EOBJECTSTRUCT@@QAEPAXI@Z DD 019930522H
	DD	00H
	DD	00H
	DD	2 DUP(00H)
	DD	2 DUP(00H)
	DD	00H
	DD	05H
xdata$x	ENDS
;	COMDAT xdata$x
xdata$x	SEGMENT
__unwindtable$??0OBJECTSTRUCT@@QAE@XZ DD 0ffffffffH
	DD	FLAT:__unwindfunclet$??0OBJECTSTRUCT@@QAE@XZ$0
__ehfuncinfo$??0OBJECTSTRUCT@@QAE@XZ DD 019930522H
	DD	01H
	DD	FLAT:__unwindtable$??0OBJECTSTRUCT@@QAE@XZ
	DD	2 DUP(00H)
	DD	2 DUP(00H)
	DD	00H
	DD	01H
xdata$x	ENDS
;	COMDAT xdata$x
xdata$x	SEGMENT
__ehfuncinfo$??_ECMagicInf@@UAEPAXI@Z DD 019930522H
	DD	00H
	DD	00H
	DD	2 DUP(00H)
	DD	2 DUP(00H)
	DD	00H
	DD	05H
xdata$x	ENDS
;	COMDAT xdata$x
xdata$x	SEGMENT
__unwindtable$??0?$CStringT@DV?$StrTraitMFC@DV?$ChTraitsCRT@D@ATL@@@@@ATL@@QAE@PBD@Z DD 0ffffffffH
	DD	FLAT:__unwindfunclet$??0?$CStringT@DV?$StrTraitMFC@DV?$ChTraitsCRT@D@ATL@@@@@ATL@@QAE@PBD@Z$0
__ehfuncinfo$??0?$CStringT@DV?$StrTraitMFC@DV?$ChTraitsCRT@D@ATL@@@@@ATL@@QAE@PBD@Z DD 019930522H
	DD	01H
	DD	FLAT:__unwindtable$??0?$CStringT@DV?$StrTraitMFC@DV?$ChTraitsCRT@D@ATL@@@@@ATL@@QAE@PBD@Z
	DD	2 DUP(00H)
	DD	2 DUP(00H)
	DD	00H
	DD	01H
xdata$x	ENDS
CRT$XCU	SEGMENT
?ViewGuildMng$initializer$@@3P6AXXZA DD FLAT:??__EViewGuildMng@@YAXXZ ; ViewGuildMng$initializer$
CRT$XCU	ENDS
CRT$XCU	SEGMENT
?g_kStaticObject$initializer$@@3P6AXXZA DD FLAT:??__Eg_kStaticObject@@YAXXZ ; g_kStaticObject$initializer$
CRT$XCU	ENDS
CRT$XCU	SEGMENT
?m_ObjBill$initializer$@@3P6AXXZA DD FLAT:??__Em_ObjBill@@YAXXZ ; m_ObjBill$initializer$
CRT$XCU	ENDS
; Function compile flags: /Odtp /ZI
; File C:\Mu Online\Mu-GS-Webzen-MC-10093\GameServer\user.cpp
;	COMDAT ?gObjCheckStatPointDown@@YAHH@Z
_TEXT	SEGMENT
_ori_point$ = -12					; size = 4
_total_point$ = -8					; size = 4
_lpObj$ = -4						; size = 4
_aIndex$ = 8						; size = 4
?gObjCheckStatPointDown@@YAHH@Z PROC			; gObjCheckStatPointDown, COMDAT

; 30298: {

  00000	55		 push	 ebp
  00001	8b ec		 mov	 ebp, esp
  00003	83 ec 4c	 sub	 esp, 76			; 0000004cH
  00006	53		 push	 ebx
  00007	56		 push	 esi
  00008	57		 push	 edi

; 30299: 	LPOBJECTSTRUCT lpObj = &gObj[aIndex];

  00009	69 45 08 a0 1b
	00 00		 imul	 eax, DWORD PTR _aIndex$[ebp], 7072
  00010	03 05 00 00 00
	00		 add	 eax, DWORD PTR ?gObj@@3PAVOBJECTSTRUCT@@A ; gObj
  00016	89 45 fc	 mov	 DWORD PTR _lpObj$[ebp], eax

; 30300: 	int total_point = lpObj->Strength+lpObj->Dexterity+lpObj->Vitality+lpObj->Energy+lpObj->LevelUpPoint;

  00019	8b 45 fc	 mov	 eax, DWORD PTR _lpObj$[ebp]
  0001c	0f b7 88 b4 00
	00 00		 movzx	 ecx, WORD PTR [eax+180]
  00023	8b 55 fc	 mov	 edx, DWORD PTR _lpObj$[ebp]
  00026	0f b7 82 b6 00
	00 00		 movzx	 eax, WORD PTR [edx+182]
  0002d	03 c8		 add	 ecx, eax
  0002f	8b 55 fc	 mov	 edx, DWORD PTR _lpObj$[ebp]
  00032	0f b7 82 b8 00
	00 00		 movzx	 eax, WORD PTR [edx+184]
  00039	03 c8		 add	 ecx, eax
  0003b	8b 55 fc	 mov	 edx, DWORD PTR _lpObj$[ebp]
  0003e	0f b7 82 ba 00
	00 00		 movzx	 eax, WORD PTR [edx+186]
  00045	03 c8		 add	 ecx, eax
  00047	8b 55 fc	 mov	 edx, DWORD PTR _lpObj$[ebp]
  0004a	03 8a a4 00 00
	00		 add	 ecx, DWORD PTR [edx+164]
  00050	89 4d f8	 mov	 DWORD PTR _total_point$[ebp], ecx

; 30301: 	int ori_point;
; 30302: 	
; 30303: 
; 30304: #ifdef DARKLORD_WORK
; 30305: 	if( lpObj->Class == CLASS_DARKLORD || lpObj->Class == CLASS_MAGUMSA )

  00053	8b 45 fc	 mov	 eax, DWORD PTR _lpObj$[ebp]
  00056	0f b7 88 9c 00
	00 00		 movzx	 ecx, WORD PTR [eax+156]
  0005d	83 f9 04	 cmp	 ecx, 4
  00060	74 0f		 je	 SHORT $LN4@gObjCheckS
  00062	8b 45 fc	 mov	 eax, DWORD PTR _lpObj$[ebp]
  00065	0f b7 88 9c 00
	00 00		 movzx	 ecx, WORD PTR [eax+156]
  0006c	83 f9 03	 cmp	 ecx, 3
  0006f	75 2c		 jne	 SHORT $LN2@gObjCheckS
$LN4@gObjCheckS:

; 30306: #else
; 30307: 	if( lpObj->Class == CLASS_MAGUMSA )
; 30308: #endif
; 30309: 	{	//   7
; 30310: 		ori_point   = DCInfo.GetDefPoint(lpObj->Class)+((lpObj->Level-1)*7);

  00071	8b 45 fc	 mov	 eax, DWORD PTR _lpObj$[ebp]
  00074	0f b7 88 9c 00
	00 00		 movzx	 ecx, WORD PTR [eax+156]
  0007b	51		 push	 ecx
  0007c	b9 00 00 00 00	 mov	 ecx, OFFSET ?DCInfo@@3Vclassdef@@A ; DCInfo
  00081	e8 00 00 00 00	 call	 ?GetDefPoint@classdef@@QAEHH@Z ; classdef::GetDefPoint
  00086	8b 55 fc	 mov	 edx, DWORD PTR _lpObj$[ebp]
  00089	0f bf 8a a0 00
	00 00		 movsx	 ecx, WORD PTR [edx+160]
  00090	83 e9 01	 sub	 ecx, 1
  00093	6b d1 07	 imul	 edx, ecx, 7
  00096	03 c2		 add	 eax, edx
  00098	89 45 f4	 mov	 DWORD PTR _ori_point$[ebp], eax

; 30311: 	}

  0009b	eb 2a		 jmp	 SHORT $LN3@gObjCheckS
$LN2@gObjCheckS:

; 30312: 	else
; 30313: 	{
; 30314: 		ori_point   = DCInfo.GetDefPoint(lpObj->Class)+((lpObj->Level-1)*5);

  0009d	8b 45 fc	 mov	 eax, DWORD PTR _lpObj$[ebp]
  000a0	0f b7 88 9c 00
	00 00		 movzx	 ecx, WORD PTR [eax+156]
  000a7	51		 push	 ecx
  000a8	b9 00 00 00 00	 mov	 ecx, OFFSET ?DCInfo@@3Vclassdef@@A ; DCInfo
  000ad	e8 00 00 00 00	 call	 ?GetDefPoint@classdef@@QAEHH@Z ; classdef::GetDefPoint
  000b2	8b 55 fc	 mov	 edx, DWORD PTR _lpObj$[ebp]
  000b5	0f bf 8a a0 00
	00 00		 movsx	 ecx, WORD PTR [edx+160]
  000bc	83 e9 01	 sub	 ecx, 1
  000bf	6b d1 05	 imul	 edx, ecx, 5
  000c2	03 c2		 add	 eax, edx
  000c4	89 45 f4	 mov	 DWORD PTR _ori_point$[ebp], eax
$LN3@gObjCheckS:

; 30315: 	}
; 30316: 
; 30317: 	// 1    +10 
; 30318: #ifdef NEW_FORSKYLAND2
; 30319: 	if( g_QuestInfo.GetQuestState(lpObj, 0) == QS_CLEAR )

  000c7	6a 00		 push	 0
  000c9	8b 45 fc	 mov	 eax, DWORD PTR _lpObj$[ebp]
  000cc	50		 push	 eax
  000cd	b9 00 00 00 00	 mov	 ecx, OFFSET ?g_QuestInfo@@3VCQuestInfo@@A ; g_QuestInfo
  000d2	e8 00 00 00 00	 call	 ?GetQuestState@CQuestInfo@@QAEHPAVOBJECTSTRUCT@@H@Z ; CQuestInfo::GetQuestState
  000d7	83 f8 02	 cmp	 eax, 2
  000da	75 09		 jne	 SHORT $LN5@gObjCheckS

; 30320: 	{
; 30321: 		ori_point += 10;

  000dc	8b 45 f4	 mov	 eax, DWORD PTR _ori_point$[ebp]
  000df	83 c0 0a	 add	 eax, 10			; 0000000aH
  000e2	89 45 f4	 mov	 DWORD PTR _ori_point$[ebp], eax
$LN5@gObjCheckS:

; 30322: 	}
; 30323: 
; 30324: 	// 2    +10 
; 30325: 	if( g_QuestInfo.GetQuestState(lpObj, 1) == QS_CLEAR )

  000e5	6a 01		 push	 1
  000e7	8b 45 fc	 mov	 eax, DWORD PTR _lpObj$[ebp]
  000ea	50		 push	 eax
  000eb	b9 00 00 00 00	 mov	 ecx, OFFSET ?g_QuestInfo@@3VCQuestInfo@@A ; g_QuestInfo
  000f0	e8 00 00 00 00	 call	 ?GetQuestState@CQuestInfo@@QAEHPAVOBJECTSTRUCT@@H@Z ; CQuestInfo::GetQuestState
  000f5	83 f8 02	 cmp	 eax, 2
  000f8	75 09		 jne	 SHORT $LN6@gObjCheckS

; 30326: 	{
; 30327: 		ori_point += 10;

  000fa	8b 45 f4	 mov	 eax, DWORD PTR _ori_point$[ebp]
  000fd	83 c0 0a	 add	 eax, 10			; 0000000aH
  00100	89 45 f4	 mov	 DWORD PTR _ori_point$[ebp], eax
$LN6@gObjCheckS:

; 30328: 	}
; 30329: #endif
; 30330: #ifdef THIRD_CHANGEUP_SYSTEM_20070507	// 3           
; 30331: 	if( g_QuestInfo.GetQuestState(lpObj, 4) == QS_CLEAR )
; 30332: 	{
; 30333: 		ori_point += 20;
; 30334: 	}
; 30335: 	if( g_QuestInfo.GetQuestState(lpObj, 5) == QS_CLEAR )
; 30336: 	{
; 30337: 		ori_point += 20;
; 30338: 	}
; 30339: 	if( g_QuestInfo.GetQuestState(lpObj, 6) == QS_CLEAR )
; 30340: 	{
; 30341: 		ori_point += 30;
; 30342: 	}
; 30343: #endif
; 30344: 
; 30345: 	//     
; 30346: 	ori_point += gStatMng.GetMaxStat(lpObj->Level, lpObj->Class);

  00103	8b 45 fc	 mov	 eax, DWORD PTR _lpObj$[ebp]
  00106	0f b7 88 9c 00
	00 00		 movzx	 ecx, WORD PTR [eax+156]
  0010d	51		 push	 ecx
  0010e	8b 55 fc	 mov	 edx, DWORD PTR _lpObj$[ebp]
  00111	0f bf 82 a0 00
	00 00		 movsx	 eax, WORD PTR [edx+160]
  00118	50		 push	 eax
  00119	b9 00 00 00 00	 mov	 ecx, OFFSET ?gStatMng@@3VCStatMng@@A ; gStatMng
  0011e	e8 00 00 00 00	 call	 ?GetMaxStat@CStatMng@@QAEHHH@Z ; CStatMng::GetMaxStat
  00123	03 45 f4	 add	 eax, DWORD PTR _ori_point$[ebp]
  00126	89 45 f4	 mov	 DWORD PTR _ori_point$[ebp], eax

; 30347: 	//ori_point -= ((lpObj->Level*3)/100+1);
; 30348: 	
; 30349: 	if( total_point > ori_point )

  00129	8b 45 f8	 mov	 eax, DWORD PTR _total_point$[ebp]
  0012c	3b 45 f4	 cmp	 eax, DWORD PTR _ori_point$[ebp]
  0012f	7e 07		 jle	 SHORT $LN7@gObjCheckS

; 30350: 	{	
; 30351: 		return TRUE;

  00131	b8 01 00 00 00	 mov	 eax, 1
  00136	eb 02		 jmp	 SHORT $LN1@gObjCheckS
$LN7@gObjCheckS:

; 30352: 	}
; 30353: 
; 30354: 	return FALSE;

  00138	33 c0		 xor	 eax, eax
$LN1@gObjCheckS:

; 30355: }

  0013a	5f		 pop	 edi
  0013b	5e		 pop	 esi
  0013c	5b		 pop	 ebx
  0013d	8b e5		 mov	 esp, ebp
  0013f	5d		 pop	 ebp
  00140	c3		 ret	 0
?gObjCheckStatPointDown@@YAHH@Z ENDP			; gObjCheckStatPointDown
_TEXT	ENDS
; Function compile flags: /Odtp /ZI
; File C:\Mu Online\Mu-GS-Webzen-MC-10093\GameServer\user.cpp
;	COMDAT ?gObjCheckStatPointUp@@YAHH@Z
_TEXT	SEGMENT
_ori_point$ = -12					; size = 4
_total_point$ = -8					; size = 4
_lpObj$ = -4						; size = 4
_aIndex$ = 8						; size = 4
?gObjCheckStatPointUp@@YAHH@Z PROC			; gObjCheckStatPointUp, COMDAT

; 30224: {

  00000	55		 push	 ebp
  00001	8b ec		 mov	 ebp, esp
  00003	83 ec 4c	 sub	 esp, 76			; 0000004cH
  00006	53		 push	 ebx
  00007	56		 push	 esi
  00008	57		 push	 edi

; 30225: 	LPOBJECTSTRUCT lpObj = &gObj[aIndex];

  00009	69 45 08 a0 1b
	00 00		 imul	 eax, DWORD PTR _aIndex$[ebp], 7072
  00010	03 05 00 00 00
	00		 add	 eax, DWORD PTR ?gObj@@3PAVOBJECTSTRUCT@@A ; gObj
  00016	89 45 fc	 mov	 DWORD PTR _lpObj$[ebp], eax

; 30226: 	
; 30227: #ifdef MODIFY_DARKLORD_ACQUIRING_EXTRA_POINT_20041117
; 30228: 	int total_point = lpObj->Strength+lpObj->Dexterity+lpObj->Vitality+lpObj->Energy+lpObj->Leadership+lpObj->LevelUpPoint;
; 30229: #else
; 30230: 	int total_point = lpObj->Strength+lpObj->Dexterity+lpObj->Vitality+lpObj->Energy+lpObj->LevelUpPoint;

  00019	8b 45 fc	 mov	 eax, DWORD PTR _lpObj$[ebp]
  0001c	0f b7 88 b4 00
	00 00		 movzx	 ecx, WORD PTR [eax+180]
  00023	8b 55 fc	 mov	 edx, DWORD PTR _lpObj$[ebp]
  00026	0f b7 82 b6 00
	00 00		 movzx	 eax, WORD PTR [edx+182]
  0002d	03 c8		 add	 ecx, eax
  0002f	8b 55 fc	 mov	 edx, DWORD PTR _lpObj$[ebp]
  00032	0f b7 82 b8 00
	00 00		 movzx	 eax, WORD PTR [edx+184]
  00039	03 c8		 add	 ecx, eax
  0003b	8b 55 fc	 mov	 edx, DWORD PTR _lpObj$[ebp]
  0003e	0f b7 82 ba 00
	00 00		 movzx	 eax, WORD PTR [edx+186]
  00045	03 c8		 add	 ecx, eax
  00047	8b 55 fc	 mov	 edx, DWORD PTR _lpObj$[ebp]
  0004a	03 8a a4 00 00
	00		 add	 ecx, DWORD PTR [edx+164]
  00050	89 4d f8	 mov	 DWORD PTR _total_point$[ebp], ecx

; 30231: #endif
; 30232: 
; 30233: 	int ori_point;
; 30234: 	
; 30235: 
; 30236: #ifdef DARKLORD_WORK
; 30237: 	if( lpObj->Class == CLASS_DARKLORD || lpObj->Class == CLASS_MAGUMSA )

  00053	8b 45 fc	 mov	 eax, DWORD PTR _lpObj$[ebp]
  00056	0f b7 88 9c 00
	00 00		 movzx	 ecx, WORD PTR [eax+156]
  0005d	83 f9 04	 cmp	 ecx, 4
  00060	74 0f		 je	 SHORT $LN4@gObjCheckS
  00062	8b 45 fc	 mov	 eax, DWORD PTR _lpObj$[ebp]
  00065	0f b7 88 9c 00
	00 00		 movzx	 ecx, WORD PTR [eax+156]
  0006c	83 f9 03	 cmp	 ecx, 3
  0006f	75 2c		 jne	 SHORT $LN2@gObjCheckS
$LN4@gObjCheckS:

; 30238: #else
; 30239: 	if( lpObj->Class == CLASS_MAGUMSA )
; 30240: #endif
; 30241: 	{	//   7
; 30242: 		ori_point   = DCInfo.GetDefPoint(lpObj->Class)+((lpObj->Level-1)*7);

  00071	8b 45 fc	 mov	 eax, DWORD PTR _lpObj$[ebp]
  00074	0f b7 88 9c 00
	00 00		 movzx	 ecx, WORD PTR [eax+156]
  0007b	51		 push	 ecx
  0007c	b9 00 00 00 00	 mov	 ecx, OFFSET ?DCInfo@@3Vclassdef@@A ; DCInfo
  00081	e8 00 00 00 00	 call	 ?GetDefPoint@classdef@@QAEHH@Z ; classdef::GetDefPoint
  00086	8b 55 fc	 mov	 edx, DWORD PTR _lpObj$[ebp]
  00089	0f bf 8a a0 00
	00 00		 movsx	 ecx, WORD PTR [edx+160]
  00090	83 e9 01	 sub	 ecx, 1
  00093	6b d1 07	 imul	 edx, ecx, 7
  00096	03 c2		 add	 eax, edx
  00098	89 45 f4	 mov	 DWORD PTR _ori_point$[ebp], eax

; 30243: 	}

  0009b	eb 2a		 jmp	 SHORT $LN3@gObjCheckS
$LN2@gObjCheckS:

; 30244: 	else
; 30245: 	{
; 30246: 		ori_point   = DCInfo.GetDefPoint(lpObj->Class)+((lpObj->Level-1)*5);

  0009d	8b 45 fc	 mov	 eax, DWORD PTR _lpObj$[ebp]
  000a0	0f b7 88 9c 00
	00 00		 movzx	 ecx, WORD PTR [eax+156]
  000a7	51		 push	 ecx
  000a8	b9 00 00 00 00	 mov	 ecx, OFFSET ?DCInfo@@3Vclassdef@@A ; DCInfo
  000ad	e8 00 00 00 00	 call	 ?GetDefPoint@classdef@@QAEHH@Z ; classdef::GetDefPoint
  000b2	8b 55 fc	 mov	 edx, DWORD PTR _lpObj$[ebp]
  000b5	0f bf 8a a0 00
	00 00		 movsx	 ecx, WORD PTR [edx+160]
  000bc	83 e9 01	 sub	 ecx, 1
  000bf	6b d1 05	 imul	 edx, ecx, 5
  000c2	03 c2		 add	 eax, edx
  000c4	89 45 f4	 mov	 DWORD PTR _ori_point$[ebp], eax
$LN3@gObjCheckS:

; 30247: 	}
; 30248: 
; 30249: 	// 1    +10 
; 30250: #ifdef NEW_FORSKYLAND2
; 30251: 	if( g_QuestInfo.GetQuestState(lpObj, 0) == QS_CLEAR )

  000c7	6a 00		 push	 0
  000c9	8b 45 fc	 mov	 eax, DWORD PTR _lpObj$[ebp]
  000cc	50		 push	 eax
  000cd	b9 00 00 00 00	 mov	 ecx, OFFSET ?g_QuestInfo@@3VCQuestInfo@@A ; g_QuestInfo
  000d2	e8 00 00 00 00	 call	 ?GetQuestState@CQuestInfo@@QAEHPAVOBJECTSTRUCT@@H@Z ; CQuestInfo::GetQuestState
  000d7	83 f8 02	 cmp	 eax, 2
  000da	75 09		 jne	 SHORT $LN5@gObjCheckS

; 30252: 	{
; 30253: 		ori_point += 10;

  000dc	8b 45 f4	 mov	 eax, DWORD PTR _ori_point$[ebp]
  000df	83 c0 0a	 add	 eax, 10			; 0000000aH
  000e2	89 45 f4	 mov	 DWORD PTR _ori_point$[ebp], eax
$LN5@gObjCheckS:

; 30254: 	}
; 30255: 
; 30256: 	// 2    +10 
; 30257: 	if( g_QuestInfo.GetQuestState(lpObj, 1) == QS_CLEAR )

  000e5	6a 01		 push	 1
  000e7	8b 45 fc	 mov	 eax, DWORD PTR _lpObj$[ebp]
  000ea	50		 push	 eax
  000eb	b9 00 00 00 00	 mov	 ecx, OFFSET ?g_QuestInfo@@3VCQuestInfo@@A ; g_QuestInfo
  000f0	e8 00 00 00 00	 call	 ?GetQuestState@CQuestInfo@@QAEHPAVOBJECTSTRUCT@@H@Z ; CQuestInfo::GetQuestState
  000f5	83 f8 02	 cmp	 eax, 2
  000f8	75 09		 jne	 SHORT $LN6@gObjCheckS

; 30258: 	{
; 30259: 		ori_point += 10;

  000fa	8b 45 f4	 mov	 eax, DWORD PTR _ori_point$[ebp]
  000fd	83 c0 0a	 add	 eax, 10			; 0000000aH
  00100	89 45 f4	 mov	 DWORD PTR _ori_point$[ebp], eax
$LN6@gObjCheckS:

; 30260: 	}
; 30261: #endif
; 30262: 
; 30263: #ifdef SECOND_QUEST
; 30264: 	if( g_QuestInfo.GetQuestState(lpObj, 2) == QS_CLEAR )

  00103	6a 02		 push	 2
  00105	8b 45 fc	 mov	 eax, DWORD PTR _lpObj$[ebp]
  00108	50		 push	 eax
  00109	b9 00 00 00 00	 mov	 ecx, OFFSET ?g_QuestInfo@@3VCQuestInfo@@A ; g_QuestInfo
  0010e	e8 00 00 00 00	 call	 ?GetQuestState@CQuestInfo@@QAEHPAVOBJECTSTRUCT@@H@Z ; CQuestInfo::GetQuestState
  00113	83 f8 02	 cmp	 eax, 2
  00116	75 17		 jne	 SHORT $LN7@gObjCheckS

; 30265: 	{
; 30266: 		ori_point += lpObj->Level-220;

  00118	8b 45 fc	 mov	 eax, DWORD PTR _lpObj$[ebp]
  0011b	0f bf 88 a0 00
	00 00		 movsx	 ecx, WORD PTR [eax+160]
  00122	8b 55 f4	 mov	 edx, DWORD PTR _ori_point$[ebp]
  00125	8d 84 0a 24 ff
	ff ff		 lea	 eax, DWORD PTR [edx+ecx-220]
  0012c	89 45 f4	 mov	 DWORD PTR _ori_point$[ebp], eax
$LN7@gObjCheckS:

; 30267: 	}
; 30268: #endif
; 30269: #ifdef THIRD_CHANGEUP_SYSTEM_20070507	// 3           
; 30270: 	if( g_QuestInfo.GetQuestState(lpObj, 4) == QS_CLEAR )
; 30271: 	{
; 30272: 		ori_point += 20;
; 30273: 	}
; 30274: 	if( g_QuestInfo.GetQuestState(lpObj, 5) == QS_CLEAR )
; 30275: 	{
; 30276: 		ori_point += 20;
; 30277: 	}
; 30278: 	if( g_QuestInfo.GetQuestState(lpObj, 6) == QS_CLEAR )
; 30279: 	{
; 30280: 		ori_point += 30;
; 30281: 	}
; 30282: #endif	
; 30283: 
; 30284: 	//     
; 30285: 	ori_point += gStatMng.GetMaxStat(lpObj->Level, lpObj->Class);

  0012f	8b 45 fc	 mov	 eax, DWORD PTR _lpObj$[ebp]
  00132	0f b7 88 9c 00
	00 00		 movzx	 ecx, WORD PTR [eax+156]
  00139	51		 push	 ecx
  0013a	8b 55 fc	 mov	 edx, DWORD PTR _lpObj$[ebp]
  0013d	0f bf 82 a0 00
	00 00		 movsx	 eax, WORD PTR [edx+160]
  00144	50		 push	 eax
  00145	b9 00 00 00 00	 mov	 ecx, OFFSET ?gStatMng@@3VCStatMng@@A ; gStatMng
  0014a	e8 00 00 00 00	 call	 ?GetMaxStat@CStatMng@@QAEHHH@Z ; CStatMng::GetMaxStat
  0014f	03 45 f4	 add	 eax, DWORD PTR _ori_point$[ebp]
  00152	89 45 f4	 mov	 DWORD PTR _ori_point$[ebp], eax

; 30286: 	//ori_point += ((lpObj->Level*3)/100+1);
; 30287: 	
; 30288: 	if( total_point < ori_point )

  00155	8b 45 f8	 mov	 eax, DWORD PTR _total_point$[ebp]
  00158	3b 45 f4	 cmp	 eax, DWORD PTR _ori_point$[ebp]
  0015b	7d 07		 jge	 SHORT $LN8@gObjCheckS

; 30289: 	{	
; 30290: 		return TRUE;

  0015d	b8 01 00 00 00	 mov	 eax, 1
  00162	eb 02		 jmp	 SHORT $LN1@gObjCheckS
$LN8@gObjCheckS:

; 30291: 	}
; 30292: 
; 30293: 	return FALSE;

  00164	33 c0		 xor	 eax, eax
$LN1@gObjCheckS:

; 30294: }

  00166	5f		 pop	 edi
  00167	5e		 pop	 esi
  00168	5b		 pop	 ebx
  00169	8b e5		 mov	 esp, ebp
  0016b	5d		 pop	 ebp
  0016c	c3		 ret	 0
?gObjCheckStatPointUp@@YAHH@Z ENDP			; gObjCheckStatPointUp
_TEXT	ENDS
; Function compile flags: /Odtp /ZI
; File C:\Mu Online\Mu-GS-Webzen-MC-10093\GameServer\user.cpp
;	COMDAT ?gObjCheckattackAreaUsedViewPort@@YAHHH@Z
_TEXT	SEGMENT
_n$1 = -16						; size = 4
_MVL$ = -12						; size = 4
_lpTargetObj$ = -8					; size = 4
_lpObj$ = -4						; size = 4
_aIndex$ = 8						; size = 4
_TarObjIndex$ = 12					; size = 4
?gObjCheckattackAreaUsedViewPort@@YAHHH@Z PROC		; gObjCheckattackAreaUsedViewPort, COMDAT

; 29660: {

  00000	55		 push	 ebp
  00001	8b ec		 mov	 ebp, esp
  00003	83 ec 50	 sub	 esp, 80			; 00000050H
  00006	53		 push	 ebx
  00007	56		 push	 esi
  00008	57		 push	 edi

; 29661: 	LPOBJECTSTRUCT lpObj = &gObj[aIndex];

  00009	69 45 08 a0 1b
	00 00		 imul	 eax, DWORD PTR _aIndex$[ebp], 7072
  00010	03 05 00 00 00
	00		 add	 eax, DWORD PTR ?gObj@@3PAVOBJECTSTRUCT@@A ; gObj
  00016	89 45 fc	 mov	 DWORD PTR _lpObj$[ebp], eax

; 29662: 	LPOBJECTSTRUCT lpTargetObj = &gObj[TarObjIndex];

  00019	69 45 0c a0 1b
	00 00		 imul	 eax, DWORD PTR _TarObjIndex$[ebp], 7072
  00020	03 05 00 00 00
	00		 add	 eax, DWORD PTR ?gObj@@3PAVOBJECTSTRUCT@@A ; gObj
  00026	89 45 f8	 mov	 DWORD PTR _lpTargetObj$[ebp], eax

; 29663: 	
; 29664: 
; 29665: 	if( lpTargetObj->m_Index == lpObj->m_Index )

  00029	8b 45 f8	 mov	 eax, DWORD PTR _lpTargetObj$[ebp]
  0002c	8b 4d fc	 mov	 ecx, DWORD PTR _lpObj$[ebp]
  0002f	8b 10		 mov	 edx, DWORD PTR [eax]
  00031	3b 11		 cmp	 edx, DWORD PTR [ecx]
  00033	75 0a		 jne	 SHORT $LN5@gObjChecka

; 29666: 		return TRUE;

  00035	b8 01 00 00 00	 mov	 eax, 1
  0003a	e9 98 00 00 00	 jmp	 $LN1@gObjChecka
$LN5@gObjChecka:

; 29667: 
; 29668: 	int MVL = MAXVIEWPORTOBJECT;

  0003f	c7 45 f4 4b 00
	00 00		 mov	 DWORD PTR _MVL$[ebp], 75 ; 0000004bH

; 29669: 	if( lpObj->Type == OBJTYPE_MONSTER ) MVL = MAX_MONVIEWPORTOBJECT;

  00046	8b 45 fc	 mov	 eax, DWORD PTR _lpObj$[ebp]
  00049	0f b7 48 64	 movzx	 ecx, WORD PTR [eax+100]
  0004d	83 f9 02	 cmp	 ecx, 2
  00050	75 07		 jne	 SHORT $LN6@gObjChecka
  00052	c7 45 f4 14 00
	00 00		 mov	 DWORD PTR _MVL$[ebp], 20 ; 00000014H
$LN6@gObjChecka:

; 29670: 
; 29671: // 1.      .
; 29672: // 2.    .
; 29673: // 3.    .
; 29674: 	for( int n=0; n<MVL; n++)

  00059	c7 45 f0 00 00
	00 00		 mov	 DWORD PTR _n$1[ebp], 0
  00060	eb 09		 jmp	 SHORT $LN4@gObjChecka
$LN2@gObjChecka:
  00062	8b 45 f0	 mov	 eax, DWORD PTR _n$1[ebp]
  00065	83 c0 01	 add	 eax, 1
  00068	89 45 f0	 mov	 DWORD PTR _n$1[ebp], eax
$LN4@gObjChecka:
  0006b	8b 45 f0	 mov	 eax, DWORD PTR _n$1[ebp]
  0006e	3b 45 f4	 cmp	 eax, DWORD PTR _MVL$[ebp]
  00071	7d 62		 jge	 SHORT $LN3@gObjChecka

; 29675: 	{
; 29676: 		if( lpObj->VpPlayer[n].state )

  00073	6b 45 f0 0c	 imul	 eax, DWORD PTR _n$1[ebp], 12
  00077	8b 4d fc	 mov	 ecx, DWORD PTR _lpObj$[ebp]
  0007a	0f be 94 01 64
	03 00 00	 movsx	 edx, BYTE PTR [ecx+eax+868]
  00082	85 d2		 test	 edx, edx
  00084	74 1d		 je	 SHORT $LN7@gObjChecka

; 29677: 		{ //  
; 29678: 			if( lpObj->VpPlayer[n].number == lpTargetObj->m_Index ) 

  00086	6b 45 f0 0c	 imul	 eax, DWORD PTR _n$1[ebp], 12
  0008a	8b 4d fc	 mov	 ecx, DWORD PTR _lpObj$[ebp]
  0008d	0f bf 94 01 66
	03 00 00	 movsx	 edx, WORD PTR [ecx+eax+870]
  00095	8b 45 f8	 mov	 eax, DWORD PTR _lpTargetObj$[ebp]
  00098	3b 10		 cmp	 edx, DWORD PTR [eax]
  0009a	75 07		 jne	 SHORT $LN7@gObjChecka

; 29679: 			{   // 
; 29680: 				//if( lpObj->VpPlayer[n].state == 1 ) lpObj->VpPlayer[n].state = 2;
; 29681: 				return TRUE;

  0009c	b8 01 00 00 00	 mov	 eax, 1
  000a1	eb 34		 jmp	 SHORT $LN1@gObjChecka
$LN7@gObjChecka:

; 29682: 			}
; 29683: 		} 
; 29684: 
; 29685: #ifdef MODIFY_KUNDUN_VIEWPORT_20060523
; 29686: 		//         
; 29687: 		if ( lpObj->VpPlayer2[n].state )

  000a3	6b 45 f0 0c	 imul	 eax, DWORD PTR _n$1[ebp], 12
  000a7	8b 4d fc	 mov	 ecx, DWORD PTR _lpObj$[ebp]
  000aa	0f be 94 01 e8
	06 00 00	 movsx	 edx, BYTE PTR [ecx+eax+1768]
  000b2	85 d2		 test	 edx, edx
  000b4	74 1d		 je	 SHORT $LN9@gObjChecka

; 29688: 		{
; 29689: 			if ( lpObj->VpPlayer2[n].number == lpTargetObj->m_Index )

  000b6	6b 45 f0 0c	 imul	 eax, DWORD PTR _n$1[ebp], 12
  000ba	8b 4d fc	 mov	 ecx, DWORD PTR _lpObj$[ebp]
  000bd	0f bf 94 01 ea
	06 00 00	 movsx	 edx, WORD PTR [ecx+eax+1770]
  000c5	8b 45 f8	 mov	 eax, DWORD PTR _lpTargetObj$[ebp]
  000c8	3b 10		 cmp	 edx, DWORD PTR [eax]
  000ca	75 07		 jne	 SHORT $LN9@gObjChecka

; 29690: 			{
; 29691: 				return TRUE;

  000cc	b8 01 00 00 00	 mov	 eax, 1
  000d1	eb 04		 jmp	 SHORT $LN1@gObjChecka
$LN9@gObjChecka:

; 29692: 			}
; 29693: 		}
; 29694: #endif // MODIFY_KUNDUN_VIEWPORT_20060523
; 29695: 
; 29696: 	}

  000d3	eb 8d		 jmp	 SHORT $LN2@gObjChecka
$LN3@gObjChecka:

; 29697: 	return FALSE;

  000d5	33 c0		 xor	 eax, eax
$LN1@gObjChecka:

; 29698: }

  000d7	5f		 pop	 edi
  000d8	5e		 pop	 esi
  000d9	5b		 pop	 ebx
  000da	8b e5		 mov	 esp, ebp
  000dc	5d		 pop	 ebp
  000dd	c3		 ret	 0
?gObjCheckattackAreaUsedViewPort@@YAHHH@Z ENDP		; gObjCheckattackAreaUsedViewPort
_TEXT	ENDS
; Function compile flags: /Odtp /ZI
; File C:\Mu Online\Mu-GS-Webzen-MC-10093\GameServer\user.cpp
;	COMDAT ?gObjCheckAttackAreaUsedPath@@YAHHH@Z
_TEXT	SEGMENT
_Y$ = -8						; size = 4
_X$ = -4						; size = 4
_aIndex$ = 8						; size = 4
_TarObjIndex$ = 12					; size = 4
?gObjCheckAttackAreaUsedPath@@YAHHH@Z PROC		; gObjCheckAttackAreaUsedPath, COMDAT

; 29637: {

  00000	55		 push	 ebp
  00001	8b ec		 mov	 ebp, esp
  00003	83 ec 48	 sub	 esp, 72			; 00000048H
  00006	53		 push	 ebx
  00007	56		 push	 esi
  00008	57		 push	 edi

; 29638: 	int X, Y;
; 29639: 
; 29640: 	if( gObj[aIndex].PathCount > 1 )

  00009	69 45 08 a0 1b
	00 00		 imul	 eax, DWORD PTR _aIndex$[ebp], 7072
  00010	8b 0d 00 00 00
	00		 mov	 ecx, DWORD PTR ?gObj@@3PAVOBJECTSTRUCT@@A ; gObj
  00016	83 bc 01 28 01
	00 00 01	 cmp	 DWORD PTR [ecx+eax+296], 1
  0001e	7e 5a		 jle	 SHORT $LN2@gObjCheckA

; 29641: 	{
; 29642: 		X = gObj[aIndex].PathX[gObj[aIndex].PathCount-1];

  00020	69 45 08 a0 1b
	00 00		 imul	 eax, DWORD PTR _aIndex$[ebp], 7072
  00027	03 05 00 00 00
	00		 add	 eax, DWORD PTR ?gObj@@3PAVOBJECTSTRUCT@@A ; gObj
  0002d	69 4d 08 a0 1b
	00 00		 imul	 ecx, DWORD PTR _aIndex$[ebp], 7072
  00034	8b 15 00 00 00
	00		 mov	 edx, DWORD PTR ?gObj@@3PAVOBJECTSTRUCT@@A ; gObj
  0003a	8b 8c 0a 28 01
	00 00		 mov	 ecx, DWORD PTR [edx+ecx+296]
  00041	0f bf 94 48 4e
	01 00 00	 movsx	 edx, WORD PTR [eax+ecx*2+334]
  00049	89 55 fc	 mov	 DWORD PTR _X$[ebp], edx

; 29643: 		Y = gObj[aIndex].PathY[gObj[aIndex].PathCount-1];

  0004c	69 45 08 a0 1b
	00 00		 imul	 eax, DWORD PTR _aIndex$[ebp], 7072
  00053	03 05 00 00 00
	00		 add	 eax, DWORD PTR ?gObj@@3PAVOBJECTSTRUCT@@A ; gObj
  00059	69 4d 08 a0 1b
	00 00		 imul	 ecx, DWORD PTR _aIndex$[ebp], 7072
  00060	8b 15 00 00 00
	00		 mov	 edx, DWORD PTR ?gObj@@3PAVOBJECTSTRUCT@@A ; gObj
  00066	8b 8c 0a 28 01
	00 00		 mov	 ecx, DWORD PTR [edx+ecx+296]
  0006d	0f bf 94 48 6c
	01 00 00	 movsx	 edx, WORD PTR [eax+ecx*2+364]
  00075	89 55 f8	 mov	 DWORD PTR _Y$[ebp], edx

; 29644: 	}	

  00078	eb 07		 jmp	 SHORT $LN3@gObjCheckA
$LN2@gObjCheckA:

; 29645: 	else
; 29646: 	{
; 29647: 		return FALSE;

  0007a	33 c0		 xor	 eax, eax
  0007c	e9 85 00 00 00	 jmp	 $LN1@gObjCheckA
$LN3@gObjCheckA:

; 29648: 	}
; 29649: 
; 29650: 	if( (gObj[TarObjIndex].X < (X-10)) || (gObj[TarObjIndex].X > (X+10)) ||
; 29651: 	    (gObj[TarObjIndex].Y < (Y-10)) || (gObj[TarObjIndex].Y > (Y+10)) )

  00081	69 45 0c a0 1b
	00 00		 imul	 eax, DWORD PTR _TarObjIndex$[ebp], 7072
  00088	8b 0d 00 00 00
	00		 mov	 ecx, DWORD PTR ?gObj@@3PAVOBJECTSTRUCT@@A ; gObj
  0008e	0f bf 94 01 04
	01 00 00	 movsx	 edx, WORD PTR [ecx+eax+260]
  00096	8b 45 fc	 mov	 eax, DWORD PTR _X$[ebp]
  00099	83 e8 0a	 sub	 eax, 10			; 0000000aH
  0009c	3b d0		 cmp	 edx, eax
  0009e	7c 5d		 jl	 SHORT $LN5@gObjCheckA
  000a0	69 45 0c a0 1b
	00 00		 imul	 eax, DWORD PTR _TarObjIndex$[ebp], 7072
  000a7	8b 0d 00 00 00
	00		 mov	 ecx, DWORD PTR ?gObj@@3PAVOBJECTSTRUCT@@A ; gObj
  000ad	0f bf 94 01 04
	01 00 00	 movsx	 edx, WORD PTR [ecx+eax+260]
  000b5	8b 45 fc	 mov	 eax, DWORD PTR _X$[ebp]
  000b8	83 c0 0a	 add	 eax, 10			; 0000000aH
  000bb	3b d0		 cmp	 edx, eax
  000bd	7f 3e		 jg	 SHORT $LN5@gObjCheckA
  000bf	69 45 0c a0 1b
	00 00		 imul	 eax, DWORD PTR _TarObjIndex$[ebp], 7072
  000c6	8b 0d 00 00 00
	00		 mov	 ecx, DWORD PTR ?gObj@@3PAVOBJECTSTRUCT@@A ; gObj
  000cc	0f bf 94 01 06
	01 00 00	 movsx	 edx, WORD PTR [ecx+eax+262]
  000d4	8b 45 f8	 mov	 eax, DWORD PTR _Y$[ebp]
  000d7	83 e8 0a	 sub	 eax, 10			; 0000000aH
  000da	3b d0		 cmp	 edx, eax
  000dc	7c 1f		 jl	 SHORT $LN5@gObjCheckA
  000de	69 45 0c a0 1b
	00 00		 imul	 eax, DWORD PTR _TarObjIndex$[ebp], 7072
  000e5	8b 0d 00 00 00
	00		 mov	 ecx, DWORD PTR ?gObj@@3PAVOBJECTSTRUCT@@A ; gObj
  000eb	0f bf 94 01 06
	01 00 00	 movsx	 edx, WORD PTR [ecx+eax+262]
  000f3	8b 45 f8	 mov	 eax, DWORD PTR _Y$[ebp]
  000f6	83 c0 0a	 add	 eax, 10			; 0000000aH
  000f9	3b d0		 cmp	 edx, eax
  000fb	7e 04		 jle	 SHORT $LN4@gObjCheckA
$LN5@gObjCheckA:

; 29652: 	{	//  
; 29653: 		return FALSE;

  000fd	33 c0		 xor	 eax, eax
  000ff	eb 05		 jmp	 SHORT $LN1@gObjCheckA
$LN4@gObjCheckA:

; 29654: 	}
; 29655: 
; 29656: 	return TRUE;

  00101	b8 01 00 00 00	 mov	 eax, 1
$LN1@gObjCheckA:

; 29657: }

  00106	5f		 pop	 edi
  00107	5e		 pop	 esi
  00108	5b		 pop	 ebx
  00109	8b e5		 mov	 esp, ebp
  0010b	5d		 pop	 ebp
  0010c	c3		 ret	 0
?gObjCheckAttackAreaUsedPath@@YAHHH@Z ENDP		; gObjCheckAttackAreaUsedPath
_TEXT	ENDS
; Function compile flags: /Odtp /ZI
; File C:\Mu Online\Mu-GS-Webzen-MC-10093\GameServer\user.cpp
;	COMDAT ?gObjCurMoveMake@@YAHQAEPAVOBJECTSTRUCT@@@Z
_TEXT	SEGMENT
_i$1 = -20						; size = 4
_n$2 = -16						; size = 4
_sendbyte$ = -12					; size = 4
_total$ = -8						; size = 4
_cur$ = -4						; size = 4
_path$ = 8						; size = 4
_lpObj$ = 12						; size = 4
?gObjCurMoveMake@@YAHQAEPAVOBJECTSTRUCT@@@Z PROC	; gObjCurMoveMake, COMDAT

; 23601: {

  00000	55		 push	 ebp
  00001	8b ec		 mov	 ebp, esp
  00003	83 ec 54	 sub	 esp, 84			; 00000054H
  00006	53		 push	 ebx
  00007	56		 push	 esi
  00008	57		 push	 edi

; 23602: 	int cur      = lpObj->PathCur;

  00009	8b 45 0c	 mov	 eax, DWORD PTR _lpObj$[ebp]
  0000c	8b 88 2c 01 00
	00		 mov	 ecx, DWORD PTR [eax+300]
  00012	89 4d fc	 mov	 DWORD PTR _cur$[ebp], ecx

; 23603: 	int total    = lpObj->PathCount;

  00015	8b 45 0c	 mov	 eax, DWORD PTR _lpObj$[ebp]
  00018	8b 88 28 01 00
	00		 mov	 ecx, DWORD PTR [eax+296]
  0001e	89 4d f8	 mov	 DWORD PTR _total$[ebp], ecx

; 23604: 	int sendbyte = 1;

  00021	c7 45 f4 01 00
	00 00		 mov	 DWORD PTR _sendbyte$[ebp], 1

; 23605: 	
; 23606: //	memset(path, 0, 8);
; 23607: 
; 23608: 	path[0] = (lpObj->Dir<<4);			// 

  00028	8b 45 0c	 mov	 eax, DWORD PTR _lpObj$[ebp]
  0002b	0f b6 88 08 01
	00 00		 movzx	 ecx, BYTE PTR [eax+264]
  00032	c1 e1 04	 shl	 ecx, 4
  00035	ba 01 00 00 00	 mov	 edx, 1
  0003a	6b c2 00	 imul	 eax, edx, 0
  0003d	8b 55 08	 mov	 edx, DWORD PTR _path$[ebp]
  00040	88 0c 02	 mov	 BYTE PTR [edx+eax], cl

; 23609: 	path[0] |= (BYTE)((total-cur)&0x0f);		//    

  00043	b8 01 00 00 00	 mov	 eax, 1
  00048	6b c8 00	 imul	 ecx, eax, 0
  0004b	8b 55 f8	 mov	 edx, DWORD PTR _total$[ebp]
  0004e	2b 55 fc	 sub	 edx, DWORD PTR _cur$[ebp]
  00051	83 e2 0f	 and	 edx, 15			; 0000000fH
  00054	0f b6 c2	 movzx	 eax, dl
  00057	8b 55 08	 mov	 edx, DWORD PTR _path$[ebp]
  0005a	0f b6 0c 0a	 movzx	 ecx, BYTE PTR [edx+ecx]
  0005e	0b c8		 or	 ecx, eax
  00060	ba 01 00 00 00	 mov	 edx, 1
  00065	6b c2 00	 imul	 eax, edx, 0
  00068	8b 55 08	 mov	 edx, DWORD PTR _path$[ebp]
  0006b	88 0c 02	 mov	 BYTE PTR [edx+eax], cl

; 23610: 
; 23611: 	if( (total-cur) < 0 ) {

  0006e	8b 45 f8	 mov	 eax, DWORD PTR _total$[ebp]
  00071	2b 45 fc	 sub	 eax, DWORD PTR _cur$[ebp]
  00074	79 45		 jns	 SHORT $LN5@gObjCurMov

; 23612: 		MsgBox("error : %s %d",__FILE__, __LINE__);

  00076	a1 00 00 00 00	 mov	 eax, DWORD PTR ?__LINE__Var@?0??gObjCurMoveMake@@YAHQAEPAVOBJECTSTRUCT@@@Z@4JA
  0007b	83 c0 0b	 add	 eax, 11			; 0000000bH
  0007e	50		 push	 eax
  0007f	68 00 00 00 00	 push	 OFFSET ??_C@_0DH@BCNNLIDP@C?3?2Mu?5Online?2Mu?9GS?9Webzen?9MC?910@
  00084	68 00 00 00 00	 push	 OFFSET ??_C@_0O@CKAEPJAF@error?5?3?5?$CFs?5?$CFd@
  00089	e8 00 00 00 00	 call	 ?MsgBox@@YAXPADZZ	; MsgBox
  0008e	83 c4 0c	 add	 esp, 12			; 0000000cH

; 23613: 		path[0] &= 0xF0;

  00091	b8 01 00 00 00	 mov	 eax, 1
  00096	6b c8 00	 imul	 ecx, eax, 0
  00099	8b 55 08	 mov	 edx, DWORD PTR _path$[ebp]
  0009c	0f b6 04 0a	 movzx	 eax, BYTE PTR [edx+ecx]
  000a0	25 f0 00 00 00	 and	 eax, 240		; 000000f0H
  000a5	b9 01 00 00 00	 mov	 ecx, 1
  000aa	6b d1 00	 imul	 edx, ecx, 0
  000ad	8b 4d 08	 mov	 ecx, DWORD PTR _path$[ebp]
  000b0	88 04 11	 mov	 BYTE PTR [ecx+edx], al

; 23614: 		return sendbyte;

  000b3	8b 45 f4	 mov	 eax, DWORD PTR _sendbyte$[ebp]
  000b6	e9 21 01 00 00	 jmp	 $LN1@gObjCurMov
$LN5@gObjCurMov:

; 23615: 	}
; 23616: 	
; 23617: 	if( total == 0 ) {

  000bb	83 7d f8 00	 cmp	 DWORD PTR _total$[ebp], 0
  000bf	75 2a		 jne	 SHORT $LN6@gObjCurMov

; 23618: 		path[0] &= 0xF0;

  000c1	b8 01 00 00 00	 mov	 eax, 1
  000c6	6b c8 00	 imul	 ecx, eax, 0
  000c9	8b 55 08	 mov	 edx, DWORD PTR _path$[ebp]
  000cc	0f b6 04 0a	 movzx	 eax, BYTE PTR [edx+ecx]
  000d0	25 f0 00 00 00	 and	 eax, 240		; 000000f0H
  000d5	b9 01 00 00 00	 mov	 ecx, 1
  000da	6b d1 00	 imul	 edx, ecx, 0
  000dd	8b 4d 08	 mov	 ecx, DWORD PTR _path$[ebp]
  000e0	88 04 11	 mov	 BYTE PTR [ecx+edx], al

; 23619: 		return sendbyte;	//  

  000e3	8b 45 f4	 mov	 eax, DWORD PTR _sendbyte$[ebp]
  000e6	e9 f1 00 00 00	 jmp	 $LN1@gObjCurMov
$LN6@gObjCurMov:

; 23620: 	}
; 23621: 	if( total == cur ) {

  000eb	8b 45 f8	 mov	 eax, DWORD PTR _total$[ebp]
  000ee	3b 45 fc	 cmp	 eax, DWORD PTR _cur$[ebp]
  000f1	75 2a		 jne	 SHORT $LN7@gObjCurMov

; 23622: 		path[0] &= 0xF0;

  000f3	b8 01 00 00 00	 mov	 eax, 1
  000f8	6b c8 00	 imul	 ecx, eax, 0
  000fb	8b 55 08	 mov	 edx, DWORD PTR _path$[ebp]
  000fe	0f b6 04 0a	 movzx	 eax, BYTE PTR [edx+ecx]
  00102	25 f0 00 00 00	 and	 eax, 240		; 000000f0H
  00107	b9 01 00 00 00	 mov	 ecx, 1
  0010c	6b d1 00	 imul	 edx, ecx, 0
  0010f	8b 4d 08	 mov	 ecx, DWORD PTR _path$[ebp]
  00112	88 04 11	 mov	 BYTE PTR [ecx+edx], al

; 23623: 		return sendbyte;	//  

  00115	8b 45 f4	 mov	 eax, DWORD PTR _sendbyte$[ebp]
  00118	e9 bf 00 00 00	 jmp	 $LN1@gObjCurMov
$LN7@gObjCurMov:

; 23624: 	}
; 23625: 	
; 23626: 	for( int n=cur, i=1; n<total; n++, i++)

  0011d	8b 45 fc	 mov	 eax, DWORD PTR _cur$[ebp]
  00120	89 45 f0	 mov	 DWORD PTR _n$2[ebp], eax
  00123	c7 45 ec 01 00
	00 00		 mov	 DWORD PTR _i$1[ebp], 1
  0012a	eb 12		 jmp	 SHORT $LN4@gObjCurMov
$LN2@gObjCurMov:
  0012c	8b 45 f0	 mov	 eax, DWORD PTR _n$2[ebp]
  0012f	83 c0 01	 add	 eax, 1
  00132	89 45 f0	 mov	 DWORD PTR _n$2[ebp], eax
  00135	8b 4d ec	 mov	 ecx, DWORD PTR _i$1[ebp]
  00138	83 c1 01	 add	 ecx, 1
  0013b	89 4d ec	 mov	 DWORD PTR _i$1[ebp], ecx
$LN4@gObjCurMov:
  0013e	8b 45 f0	 mov	 eax, DWORD PTR _n$2[ebp]
  00141	3b 45 f8	 cmp	 eax, DWORD PTR _total$[ebp]
  00144	7d 73		 jge	 SHORT $LN3@gObjCurMov

; 23627: 	{
; 23628: 		if( i%2 == 1 ) {

  00146	8b 45 ec	 mov	 eax, DWORD PTR _i$1[ebp]
  00149	25 01 00 00 80	 and	 eax, -2147483647	; 80000001H
  0014e	79 05		 jns	 SHORT $LN11@gObjCurMov
  00150	48		 dec	 eax
  00151	83 c8 fe	 or	 eax, -2			; fffffffeH
  00154	40		 inc	 eax
$LN11@gObjCurMov:
  00155	83 f8 01	 cmp	 eax, 1
  00158	75 24		 jne	 SHORT $LN8@gObjCurMov

; 23629: 			path[(i+1)/2] = (lpObj->PathOri[n]<<4);

  0015a	8b 45 f0	 mov	 eax, DWORD PTR _n$2[ebp]
  0015d	8b 4d 0c	 mov	 ecx, DWORD PTR _lpObj$[ebp]
  00160	0f bf 8c 41 32
	01 00 00	 movsx	 ecx, WORD PTR [ecx+eax*2+306]
  00168	c1 e1 04	 shl	 ecx, 4
  0016b	8b 45 ec	 mov	 eax, DWORD PTR _i$1[ebp]
  0016e	83 c0 01	 add	 eax, 1
  00171	99		 cdq
  00172	2b c2		 sub	 eax, edx
  00174	d1 f8		 sar	 eax, 1
  00176	8b 55 08	 mov	 edx, DWORD PTR _path$[ebp]
  00179	88 0c 02	 mov	 BYTE PTR [edx+eax], cl

; 23630: 		}

  0017c	eb 36		 jmp	 SHORT $LN9@gObjCurMov
$LN8@gObjCurMov:

; 23631: 		else { 
; 23632: 			path[(i+1)/2] |= (lpObj->PathOri[n]&0x0f);

  0017e	8b 45 ec	 mov	 eax, DWORD PTR _i$1[ebp]
  00181	83 c0 01	 add	 eax, 1
  00184	99		 cdq
  00185	2b c2		 sub	 eax, edx
  00187	d1 f8		 sar	 eax, 1
  00189	8b 4d f0	 mov	 ecx, DWORD PTR _n$2[ebp]
  0018c	8b 55 0c	 mov	 edx, DWORD PTR _lpObj$[ebp]
  0018f	0f bf 8c 4a 32
	01 00 00	 movsx	 ecx, WORD PTR [edx+ecx*2+306]
  00197	83 e1 0f	 and	 ecx, 15			; 0000000fH
  0019a	8b 55 08	 mov	 edx, DWORD PTR _path$[ebp]
  0019d	0f b6 1c 02	 movzx	 ebx, BYTE PTR [edx+eax]
  001a1	0b d9		 or	 ebx, ecx
  001a3	8b 45 ec	 mov	 eax, DWORD PTR _i$1[ebp]
  001a6	83 c0 01	 add	 eax, 1
  001a9	99		 cdq
  001aa	2b c2		 sub	 eax, edx
  001ac	d1 f8		 sar	 eax, 1
  001ae	8b 4d 08	 mov	 ecx, DWORD PTR _path$[ebp]
  001b1	88 1c 01	 mov	 BYTE PTR [ecx+eax], bl
$LN9@gObjCurMov:

; 23633: 		}
; 23634: 	}

  001b4	e9 73 ff ff ff	 jmp	 $LN2@gObjCurMov
$LN3@gObjCurMov:

; 23635: 
; 23636: 	sendbyte += ((path[0]&0x0f)+1)/2;

  001b9	b8 01 00 00 00	 mov	 eax, 1
  001be	6b c8 00	 imul	 ecx, eax, 0
  001c1	8b 55 08	 mov	 edx, DWORD PTR _path$[ebp]
  001c4	0f b6 04 0a	 movzx	 eax, BYTE PTR [edx+ecx]
  001c8	83 e0 0f	 and	 eax, 15			; 0000000fH
  001cb	83 c0 01	 add	 eax, 1
  001ce	99		 cdq
  001cf	2b c2		 sub	 eax, edx
  001d1	d1 f8		 sar	 eax, 1
  001d3	03 45 f4	 add	 eax, DWORD PTR _sendbyte$[ebp]
  001d6	89 45 f4	 mov	 DWORD PTR _sendbyte$[ebp], eax

; 23637: 
; 23638: //	LogAddHeadHex(1,(char*)path, 8);
; 23639: //	LogAdd("path[0] : %x sendbyte:%d ",path[0], sendbyte);	
; 23640: 	return sendbyte;

  001d9	8b 45 f4	 mov	 eax, DWORD PTR _sendbyte$[ebp]
$LN1@gObjCurMov:

; 23641: }

  001dc	5f		 pop	 edi
  001dd	5e		 pop	 esi
  001de	5b		 pop	 ebx
  001df	8b e5		 mov	 esp, ebp
  001e1	5d		 pop	 ebp
  001e2	c3		 ret	 0
?gObjCurMoveMake@@YAHQAEPAVOBJECTSTRUCT@@@Z ENDP	; gObjCurMoveMake
_TEXT	ENDS
; Function compile flags: /Odtp /ZI
; File C:\Mu Online\Mu-GS-Webzen-MC-10093\GameServer\user.cpp
;	COMDAT ?TestFrustrum2@@YA_NHHH@Z
_TEXT	SEGMENT
_d$1 = -16						; size = 4
_i$2 = -12						; size = 4
_lpObj$ = -8						; size = 4
_j$ = -4						; size = 4
_x$ = 8							; size = 4
_y$ = 12						; size = 4
_aIndex$ = 16						; size = 4
?TestFrustrum2@@YA_NHHH@Z PROC				; TestFrustrum2, COMDAT

; 20498: {

  00000	55		 push	 ebp
  00001	8b ec		 mov	 ebp, esp
  00003	83 ec 50	 sub	 esp, 80			; 00000050H
  00006	53		 push	 ebx
  00007	56		 push	 esi
  00008	57		 push	 edi

; 20499: 	int j = 3;

  00009	c7 45 fc 03 00
	00 00		 mov	 DWORD PTR _j$[ebp], 3

; 20500: 	LPOBJECTSTRUCT lpObj=(LPOBJECTSTRUCT)&gObj[aIndex];

  00010	69 45 10 a0 1b
	00 00		 imul	 eax, DWORD PTR _aIndex$[ebp], 7072
  00017	03 05 00 00 00
	00		 add	 eax, DWORD PTR ?gObj@@3PAVOBJECTSTRUCT@@A ; gObj
  0001d	89 45 f8	 mov	 DWORD PTR _lpObj$[ebp], eax

; 20501: 	for(int i=0;i<4;j=i,i++)

  00020	c7 45 f4 00 00
	00 00		 mov	 DWORD PTR _i$2[ebp], 0
  00027	eb 0f		 jmp	 SHORT $LN4@TestFrustr
$LN2@TestFrustr:
  00029	8b 45 f4	 mov	 eax, DWORD PTR _i$2[ebp]
  0002c	89 45 fc	 mov	 DWORD PTR _j$[ebp], eax
  0002f	8b 4d f4	 mov	 ecx, DWORD PTR _i$2[ebp]
  00032	83 c1 01	 add	 ecx, 1
  00035	89 4d f4	 mov	 DWORD PTR _i$2[ebp], ecx
$LN4@TestFrustr:
  00038	83 7d f4 04	 cmp	 DWORD PTR _i$2[ebp], 4
  0003c	7d 5e		 jge	 SHORT $LN3@TestFrustr

; 20502: 	{
; 20503: 		int d = (lpObj->FrustrumX[i]-x) * (lpObj->FrustrumY[j]-y) -

  0003e	8b 45 f4	 mov	 eax, DWORD PTR _i$2[ebp]
  00041	8b 4d f8	 mov	 ecx, DWORD PTR _lpObj$[ebp]
  00044	8b 94 81 44 03
	00 00		 mov	 edx, DWORD PTR [ecx+eax*4+836]
  0004b	2b 55 08	 sub	 edx, DWORD PTR _x$[ebp]
  0004e	8b 45 fc	 mov	 eax, DWORD PTR _j$[ebp]
  00051	8b 4d f8	 mov	 ecx, DWORD PTR _lpObj$[ebp]
  00054	8b 84 81 54 03
	00 00		 mov	 eax, DWORD PTR [ecx+eax*4+852]
  0005b	2b 45 0c	 sub	 eax, DWORD PTR _y$[ebp]
  0005e	0f af d0	 imul	 edx, eax
  00061	8b 4d fc	 mov	 ecx, DWORD PTR _j$[ebp]
  00064	8b 45 f8	 mov	 eax, DWORD PTR _lpObj$[ebp]
  00067	8b 8c 88 44 03
	00 00		 mov	 ecx, DWORD PTR [eax+ecx*4+836]
  0006e	2b 4d 08	 sub	 ecx, DWORD PTR _x$[ebp]
  00071	8b 45 f4	 mov	 eax, DWORD PTR _i$2[ebp]
  00074	8b 75 f8	 mov	 esi, DWORD PTR _lpObj$[ebp]
  00077	8b 84 86 54 03
	00 00		 mov	 eax, DWORD PTR [esi+eax*4+852]
  0007e	2b 45 0c	 sub	 eax, DWORD PTR _y$[ebp]
  00081	0f af c8	 imul	 ecx, eax
  00084	2b d1		 sub	 edx, ecx
  00086	89 55 f0	 mov	 DWORD PTR _d$1[ebp], edx

; 20504: 	      		(lpObj->FrustrumX[j]-x) * (lpObj->FrustrumY[i]-y);
; 20505: 		if(d < 0.f) return false;

  00089	f3 0f 2a 45 f0	 cvtsi2ss xmm0, DWORD PTR _d$1[ebp]
  0008e	0f 57 c9	 xorps	 xmm1, xmm1
  00091	0f 2f c8	 comiss	 xmm1, xmm0
  00094	76 04		 jbe	 SHORT $LN5@TestFrustr
  00096	32 c0		 xor	 al, al
  00098	eb 04		 jmp	 SHORT $LN1@TestFrustr
$LN5@TestFrustr:

; 20506: 	}

  0009a	eb 8d		 jmp	 SHORT $LN2@TestFrustr
$LN3@TestFrustr:

; 20507: 	return true;

  0009c	b0 01		 mov	 al, 1
$LN1@TestFrustr:

; 20508: }

  0009e	5f		 pop	 edi
  0009f	5e		 pop	 esi
  000a0	5b		 pop	 ebx
  000a1	8b e5		 mov	 esp, ebp
  000a3	5d		 pop	 ebp
  000a4	c3		 ret	 0
?TestFrustrum2@@YA_NHHH@Z ENDP				; TestFrustrum2
_TEXT	ENDS
; Function compile flags: /Odtp /ZI
; File C:\Mu Online\Mu-GS-Webzen-MC-10093\GameServer\user.cpp
;	COMDAT ?gObjAttackDamageCalc@@YAXH@Z
_TEXT	SEGMENT
_aIndex$ = 8						; size = 4
?gObjAttackDamageCalc@@YAXH@Z PROC			; gObjAttackDamageCalc, COMDAT

; 19626: {

  00000	55		 push	 ebp
  00001	8b ec		 mov	 ebp, esp
  00003	83 ec 40	 sub	 esp, 64			; 00000040H
  00006	53		 push	 ebx
  00007	56		 push	 esi
  00008	57		 push	 edi

; 19627: 	
; 19628: }

  00009	5f		 pop	 edi
  0000a	5e		 pop	 esi
  0000b	5b		 pop	 ebx
  0000c	8b e5		 mov	 esp, ebp
  0000e	5d		 pop	 ebp
  0000f	c3		 ret	 0
?gObjAttackDamageCalc@@YAXH@Z ENDP			; gObjAttackDamageCalc
_TEXT	ENDS
; Function compile flags: /Odtp /ZI
; File C:\Mu Online\Mu-GS-Webzen-MC-10093\GameServer\user.cpp
;	COMDAT ?TradeitemInventoryPut@@YAHH@Z
_TEXT	SEGMENT
_n$1 = -76						; size = 4
_ExOption$ = -72					; size = 8
_szItemName$ = -64					; size = 50
_insert$ = -9						; size = 1
_number$ = -8						; size = 4
__$ArrayPad$ = -4					; size = 4
_aIndex$ = 8						; size = 4
?TradeitemInventoryPut@@YAHH@Z PROC			; TradeitemInventoryPut, COMDAT

; 19368: {

  00000	55		 push	 ebp
  00001	8b ec		 mov	 ebp, esp
  00003	81 ec 8c 00 00
	00		 sub	 esp, 140		; 0000008cH
  00009	a1 00 00 00 00	 mov	 eax, DWORD PTR ___security_cookie
  0000e	33 c5		 xor	 eax, ebp
  00010	89 45 fc	 mov	 DWORD PTR __$ArrayPad$[ebp], eax
  00013	53		 push	 ebx
  00014	56		 push	 esi
  00015	57		 push	 edi

; 19369: 	int		number;
; 19370: 	BYTE	insert;
; 19371: 	char    szItemName[50]="Item";

  00016	a1 00 00 00 00	 mov	 eax, DWORD PTR ??_C@_04BGCMBJDA@Item@
  0001b	89 45 c0	 mov	 DWORD PTR _szItemName$[ebp], eax
  0001e	8a 0d 04 00 00
	00		 mov	 cl, BYTE PTR ??_C@_04BGCMBJDA@Item@+4
  00024	88 4d c4	 mov	 BYTE PTR _szItemName$[ebp+4], cl
  00027	6a 2d		 push	 45			; 0000002dH
  00029	6a 00		 push	 0
  0002b	8d 45 c5	 lea	 eax, DWORD PTR _szItemName$[ebp+5]
  0002e	50		 push	 eax
  0002f	e8 00 00 00 00	 call	 _memset
  00034	83 c4 0c	 add	 esp, 12			; 0000000cH

; 19372: 	BYTE	ExOption[8];
; 19373: 	
; 19374: 	number = gObj[aIndex].TargetNumber;

  00037	69 45 08 a0 1b
	00 00		 imul	 eax, DWORD PTR _aIndex$[ebp], 7072
  0003e	8b 0d 00 00 00
	00		 mov	 ecx, DWORD PTR ?gObj@@3PAVOBJECTSTRUCT@@A ; gObj
  00044	0f bf 94 01 ac
	02 00 00	 movsx	 edx, WORD PTR [ecx+eax+684]
  0004c	89 55 f8	 mov	 DWORD PTR _number$[ebp], edx

; 19375: 	if( gObjIsConnected(number) == FALSE ) return FALSE;

  0004f	8b 45 f8	 mov	 eax, DWORD PTR _number$[ebp]
  00052	50		 push	 eax
  00053	e8 00 00 00 00	 call	 ?gObjIsConnected@@YAHH@Z ; gObjIsConnected
  00058	83 c4 04	 add	 esp, 4
  0005b	85 c0		 test	 eax, eax
  0005d	75 07		 jne	 SHORT $LN5@TradeitemI
  0005f	33 c0		 xor	 eax, eax
  00061	e9 15 03 00 00	 jmp	 $LN1@TradeitemI
$LN5@TradeitemI:

; 19376: 	for( int n=0; n<MAX_TRADEITEM; n++)

  00066	c7 45 b4 00 00
	00 00		 mov	 DWORD PTR _n$1[ebp], 0
  0006d	eb 09		 jmp	 SHORT $LN4@TradeitemI
$LN2@TradeitemI:
  0006f	8b 45 b4	 mov	 eax, DWORD PTR _n$1[ebp]
  00072	83 c0 01	 add	 eax, 1
  00075	89 45 b4	 mov	 DWORD PTR _n$1[ebp], eax
$LN4@TradeitemI:
  00078	83 7d b4 20	 cmp	 DWORD PTR _n$1[ebp], 32	; 00000020H
  0007c	0f 8d f4 02 00
	00		 jge	 $LN3@TradeitemI

; 19377: 	{
; 19378: 		//  ..
; 19379: 		if( gObj[number].Trade[n].IsItem() == TRUE )

  00082	69 45 f8 a0 1b
	00 00		 imul	 eax, DWORD PTR _number$[ebp], 7072
  00089	69 4d b4 a8 00
	00 00		 imul	 ecx, DWORD PTR _n$1[ebp], 168
  00090	8b 15 00 00 00
	00		 mov	 edx, DWORD PTR ?gObj@@3PAVOBJECTSTRUCT@@A ; gObj
  00096	03 8c 02 84 0c
	00 00		 add	 ecx, DWORD PTR [edx+eax+3204]
  0009d	e8 00 00 00 00	 call	 ?IsItem@CItem@@QAEHXZ	; CItem::IsItem
  000a2	83 f8 01	 cmp	 eax, 1
  000a5	0f 85 c6 02 00
	00		 jne	 $LN6@TradeitemI

; 19380: 		{
; 19381: 			insert = gObjInventoryInsertItem(aIndex, gObj[number].Trade[n]);

  000ab	69 45 f8 a0 1b
	00 00		 imul	 eax, DWORD PTR _number$[ebp], 7072
  000b2	69 4d b4 a8 00
	00 00		 imul	 ecx, DWORD PTR _n$1[ebp], 168
  000b9	8b 15 00 00 00
	00		 mov	 edx, DWORD PTR ?gObj@@3PAVOBJECTSTRUCT@@A ; gObj
  000bf	8b b4 02 84 0c
	00 00		 mov	 esi, DWORD PTR [edx+eax+3204]
  000c6	03 f1		 add	 esi, ecx
  000c8	81 ec a8 00 00
	00		 sub	 esp, 168		; 000000a8H
  000ce	b9 2a 00 00 00	 mov	 ecx, 42			; 0000002aH
  000d3	8b fc		 mov	 edi, esp
  000d5	f3 a5		 rep movsd
  000d7	8b 45 08	 mov	 eax, DWORD PTR _aIndex$[ebp]
  000da	50		 push	 eax
  000db	e8 00 00 00 00	 call	 ?gObjInventoryInsertItem@@YAEHVCItem@@@Z ; gObjInventoryInsertItem
  000e0	81 c4 ac 00 00
	00		 add	 esp, 172		; 000000acH
  000e6	88 45 f7	 mov	 BYTE PTR _insert$[ebp], al

; 19382: 			if( insert != 0xFF )

  000e9	0f b6 45 f7	 movzx	 eax, BYTE PTR _insert$[ebp]
  000ed	3d ff 00 00 00	 cmp	 eax, 255		; 000000ffH
  000f2	0f 84 67 02 00
	00		 je	 $LN7@TradeitemI

; 19383: 			{
; 19384: 				strcpy(szItemName, gObj[number].Trade[n].GetName());

  000f8	69 45 f8 a0 1b
	00 00		 imul	 eax, DWORD PTR _number$[ebp], 7072
  000ff	69 4d b4 a8 00
	00 00		 imul	 ecx, DWORD PTR _n$1[ebp], 168
  00106	8b 15 00 00 00
	00		 mov	 edx, DWORD PTR ?gObj@@3PAVOBJECTSTRUCT@@A ; gObj
  0010c	03 8c 02 84 0c
	00 00		 add	 ecx, DWORD PTR [edx+eax+3204]
  00113	e8 00 00 00 00	 call	 ?GetName@CItem@@QAEPADXZ ; CItem::GetName
  00118	50		 push	 eax
  00119	8d 45 c0	 lea	 eax, DWORD PTR _szItemName$[ebp]
  0011c	50		 push	 eax
  0011d	e8 00 00 00 00	 call	 _strcpy
  00122	83 c4 08	 add	 esp, 8

; 19385: 
; 19386: 				//[%s][%s] Trade Item  Opposite :[%s][%s] (Item:%s/Serial:%d [%d][%d][%d][%d] Ex:[%d,%d,%d,%d,%d,%d,%d]
; 19387: 
; 19388: 				ItemIsBufExOption(ExOption, &gObj[number].Trade[n]);

  00125	69 45 f8 a0 1b
	00 00		 imul	 eax, DWORD PTR _number$[ebp], 7072
  0012c	69 4d b4 a8 00
	00 00		 imul	 ecx, DWORD PTR _n$1[ebp], 168
  00133	8b 15 00 00 00
	00		 mov	 edx, DWORD PTR ?gObj@@3PAVOBJECTSTRUCT@@A ; gObj
  00139	03 8c 02 84 0c
	00 00		 add	 ecx, DWORD PTR [edx+eax+3204]
  00140	51		 push	 ecx
  00141	8d 45 b8	 lea	 eax, DWORD PTR _ExOption$[ebp]
  00144	50		 push	 eax
  00145	e8 00 00 00 00	 call	 ?ItemIsBufExOption@@YAXPAEPAVCItem@@@Z ; ItemIsBufExOption
  0014a	83 c4 08	 add	 esp, 8

; 19389: 
; 19390: 				LogAddTD(lMsg.Get(538), 

  0014d	69 45 f8 a0 1b
	00 00		 imul	 eax, DWORD PTR _number$[ebp], 7072
  00154	69 4d b4 a8 00
	00 00		 imul	 ecx, DWORD PTR _n$1[ebp], 168
  0015b	8b 15 00 00 00
	00		 mov	 edx, DWORD PTR ?gObj@@3PAVOBJECTSTRUCT@@A ; gObj
  00161	8b 84 02 84 0c
	00 00		 mov	 eax, DWORD PTR [edx+eax+3204]
  00168	0f b6 8c 08 92
	00 00 00	 movzx	 ecx, BYTE PTR [eax+ecx+146]
  00170	51		 push	 ecx
  00171	ba 01 00 00 00	 mov	 edx, 1
  00176	6b c2 06	 imul	 eax, edx, 6
  00179	0f b6 4c 05 b8	 movzx	 ecx, BYTE PTR _ExOption$[ebp+eax]
  0017e	51		 push	 ecx
  0017f	ba 01 00 00 00	 mov	 edx, 1
  00184	6b c2 05	 imul	 eax, edx, 5
  00187	0f b6 4c 05 b8	 movzx	 ecx, BYTE PTR _ExOption$[ebp+eax]
  0018c	51		 push	 ecx
  0018d	ba 01 00 00 00	 mov	 edx, 1
  00192	c1 e2 02	 shl	 edx, 2
  00195	0f b6 44 15 b8	 movzx	 eax, BYTE PTR _ExOption$[ebp+edx]
  0019a	50		 push	 eax
  0019b	b9 01 00 00 00	 mov	 ecx, 1
  001a0	6b d1 03	 imul	 edx, ecx, 3
  001a3	0f b6 44 15 b8	 movzx	 eax, BYTE PTR _ExOption$[ebp+edx]
  001a8	50		 push	 eax
  001a9	b9 01 00 00 00	 mov	 ecx, 1
  001ae	d1 e1		 shl	 ecx, 1
  001b0	0f b6 54 0d b8	 movzx	 edx, BYTE PTR _ExOption$[ebp+ecx]
  001b5	52		 push	 edx
  001b6	b8 01 00 00 00	 mov	 eax, 1
  001bb	c1 e0 00	 shl	 eax, 0
  001be	0f b6 4c 05 b8	 movzx	 ecx, BYTE PTR _ExOption$[ebp+eax]
  001c3	51		 push	 ecx
  001c4	ba 01 00 00 00	 mov	 edx, 1
  001c9	6b c2 00	 imul	 eax, edx, 0
  001cc	0f b6 4c 05 b8	 movzx	 ecx, BYTE PTR _ExOption$[ebp+eax]
  001d1	51		 push	 ecx
  001d2	69 55 f8 a0 1b
	00 00		 imul	 edx, DWORD PTR _number$[ebp], 7072
  001d9	69 45 b4 a8 00
	00 00		 imul	 eax, DWORD PTR _n$1[ebp], 168
  001e0	8b 0d 00 00 00
	00		 mov	 ecx, DWORD PTR ?gObj@@3PAVOBJECTSTRUCT@@A ; gObj
  001e6	8b 94 11 84 0c
	00 00		 mov	 edx, DWORD PTR [ecx+edx+3204]
  001ed	0f b6 44 02 7a	 movzx	 eax, BYTE PTR [edx+eax+122]
  001f2	50		 push	 eax
  001f3	69 4d f8 a0 1b
	00 00		 imul	 ecx, DWORD PTR _number$[ebp], 7072
  001fa	69 55 b4 a8 00
	00 00		 imul	 edx, DWORD PTR _n$1[ebp], 168
  00201	a1 00 00 00 00	 mov	 eax, DWORD PTR ?gObj@@3PAVOBJECTSTRUCT@@A ; gObj
  00206	8b 8c 08 84 0c
	00 00		 mov	 ecx, DWORD PTR [eax+ecx+3204]
  0020d	0f b6 54 11 79	 movzx	 edx, BYTE PTR [ecx+edx+121]
  00212	52		 push	 edx
  00213	69 45 f8 a0 1b
	00 00		 imul	 eax, DWORD PTR _number$[ebp], 7072
  0021a	69 4d b4 a8 00
	00 00		 imul	 ecx, DWORD PTR _n$1[ebp], 168
  00221	8b 15 00 00 00
	00		 mov	 edx, DWORD PTR ?gObj@@3PAVOBJECTSTRUCT@@A ; gObj
  00227	8b 84 02 84 0c
	00 00		 mov	 eax, DWORD PTR [edx+eax+3204]
  0022e	0f b6 4c 08 78	 movzx	 ecx, BYTE PTR [eax+ecx+120]
  00233	51		 push	 ecx
  00234	69 55 f8 a0 1b
	00 00		 imul	 edx, DWORD PTR _number$[ebp], 7072
  0023b	69 45 b4 a8 00
	00 00		 imul	 eax, DWORD PTR _n$1[ebp], 168
  00242	8b 0d 00 00 00
	00		 mov	 ecx, DWORD PTR ?gObj@@3PAVOBJECTSTRUCT@@A ; gObj
  00248	8b 94 11 84 0c
	00 00		 mov	 edx, DWORD PTR [ecx+edx+3204]
  0024f	0f bf 44 02 08	 movsx	 eax, WORD PTR [edx+eax+8]
  00254	50		 push	 eax
  00255	69 4d f8 a0 1b
	00 00		 imul	 ecx, DWORD PTR _number$[ebp], 7072
  0025c	69 55 b4 a8 00
	00 00		 imul	 edx, DWORD PTR _n$1[ebp], 168
  00263	a1 00 00 00 00	 mov	 eax, DWORD PTR ?gObj@@3PAVOBJECTSTRUCT@@A ; gObj
  00268	8b 8c 08 84 0c
	00 00		 mov	 ecx, DWORD PTR [eax+ecx+3204]
  0026f	8b 14 11	 mov	 edx, DWORD PTR [ecx+edx]
  00272	52		 push	 edx
  00273	8d 45 c0	 lea	 eax, DWORD PTR _szItemName$[ebp]
  00276	50		 push	 eax
  00277	69 4d 08 a0 1b
	00 00		 imul	 ecx, DWORD PTR _aIndex$[ebp], 7072
  0027e	8b 15 00 00 00
	00		 mov	 edx, DWORD PTR ?gObj@@3PAVOBJECTSTRUCT@@A ; gObj
  00284	0f bf 84 0a 06
	01 00 00	 movsx	 eax, WORD PTR [edx+ecx+262]
  0028c	50		 push	 eax
  0028d	69 4d 08 a0 1b
	00 00		 imul	 ecx, DWORD PTR _aIndex$[ebp], 7072
  00294	8b 15 00 00 00
	00		 mov	 edx, DWORD PTR ?gObj@@3PAVOBJECTSTRUCT@@A ; gObj
  0029a	0f bf 84 0a 04
	01 00 00	 movsx	 eax, WORD PTR [edx+ecx+260]
  002a2	50		 push	 eax
  002a3	69 4d 08 a0 1b
	00 00		 imul	 ecx, DWORD PTR _aIndex$[ebp], 7072
  002aa	8b 15 00 00 00
	00		 mov	 edx, DWORD PTR ?gObj@@3PAVOBJECTSTRUCT@@A ; gObj
  002b0	0f b6 84 0a 09
	01 00 00	 movzx	 eax, BYTE PTR [edx+ecx+265]
  002b8	50		 push	 eax
  002b9	69 4d 08 a0 1b
	00 00		 imul	 ecx, DWORD PTR _aIndex$[ebp], 7072
  002c0	8b 15 00 00 00
	00		 mov	 edx, DWORD PTR ?gObj@@3PAVOBJECTSTRUCT@@A ; gObj
  002c6	8d 44 0a 73	 lea	 eax, DWORD PTR [edx+ecx+115]
  002ca	50		 push	 eax
  002cb	69 4d 08 a0 1b
	00 00		 imul	 ecx, DWORD PTR _aIndex$[ebp], 7072
  002d2	8b 15 00 00 00
	00		 mov	 edx, DWORD PTR ?gObj@@3PAVOBJECTSTRUCT@@A ; gObj
  002d8	8d 44 0a 68	 lea	 eax, DWORD PTR [edx+ecx+104]
  002dc	50		 push	 eax
  002dd	69 4d f8 a0 1b
	00 00		 imul	 ecx, DWORD PTR _number$[ebp], 7072
  002e4	8b 15 00 00 00
	00		 mov	 edx, DWORD PTR ?gObj@@3PAVOBJECTSTRUCT@@A ; gObj
  002ea	0f bf 84 0a 06
	01 00 00	 movsx	 eax, WORD PTR [edx+ecx+262]
  002f2	50		 push	 eax
  002f3	69 4d f8 a0 1b
	00 00		 imul	 ecx, DWORD PTR _number$[ebp], 7072
  002fa	8b 15 00 00 00
	00		 mov	 edx, DWORD PTR ?gObj@@3PAVOBJECTSTRUCT@@A ; gObj
  00300	0f bf 84 0a 04
	01 00 00	 movsx	 eax, WORD PTR [edx+ecx+260]
  00308	50		 push	 eax
  00309	69 4d f8 a0 1b
	00 00		 imul	 ecx, DWORD PTR _number$[ebp], 7072
  00310	8b 15 00 00 00
	00		 mov	 edx, DWORD PTR ?gObj@@3PAVOBJECTSTRUCT@@A ; gObj
  00316	0f b6 84 0a 09
	01 00 00	 movzx	 eax, BYTE PTR [edx+ecx+265]
  0031e	50		 push	 eax
  0031f	69 4d f8 a0 1b
	00 00		 imul	 ecx, DWORD PTR _number$[ebp], 7072
  00326	8b 15 00 00 00
	00		 mov	 edx, DWORD PTR ?gObj@@3PAVOBJECTSTRUCT@@A ; gObj
  0032c	8d 44 0a 73	 lea	 eax, DWORD PTR [edx+ecx+115]
  00330	50		 push	 eax
  00331	69 4d f8 a0 1b
	00 00		 imul	 ecx, DWORD PTR _number$[ebp], 7072
  00338	8b 15 00 00 00
	00		 mov	 edx, DWORD PTR ?gObj@@3PAVOBJECTSTRUCT@@A ; gObj
  0033e	8d 44 0a 68	 lea	 eax, DWORD PTR [edx+ecx+104]
  00342	50		 push	 eax
  00343	68 1a 02 00 00	 push	 538			; 0000021aH
  00348	b9 00 00 00 00	 mov	 ecx, OFFSET ?lMsg@@3VCMsg@@A ; lMsg
  0034d	ff 15 00 00 00
	00		 call	 DWORD PTR __imp_?Get@CMsg@@QAEPADH@Z
  00353	50		 push	 eax
  00354	ff 15 00 00 00
	00		 call	 DWORD PTR ?LogAddTD@@3P6AXPADZZA ; LogAddTD
  0035a	83 c4 64	 add	 esp, 100		; 00000064H

; 19391: 					gObj[number].AccountID, gObj[number].Name, 
; 19392: 					gObj[number].MapNumber, gObj[number].X, gObj[number].Y,
; 19393: 					gObj[aIndex].AccountID, gObj[aIndex].Name,
; 19394: 					gObj[aIndex].MapNumber, gObj[aIndex].X, gObj[aIndex].Y,
; 19395: 					szItemName, 
; 19396: 					gObj[number].Trade[n].m_Number, 
; 19397: 					gObj[number].Trade[n].m_Level,
; 19398: 					gObj[number].Trade[n].m_Option1, 
; 19399: 					gObj[number].Trade[n].m_Option2, 
; 19400: 					gObj[number].Trade[n].m_Option3,
; 19401: 					ExOption[0],
; 19402: 					ExOption[1],
; 19403: 					ExOption[2],
; 19404: 					ExOption[3],
; 19405: 					ExOption[4],
; 19406: 					ExOption[5],
; 19407: 					ExOption[6],
; 19408: 					gObj[number].Trade[n].m_SetOption
; 19409: #ifdef ADD_SOCKET_OPTION_LOG_02_20080821
; 19410: 					, gObj[number].Trade[n].m_SocketOption[0],
; 19411: 					gObj[number].Trade[n].m_SocketOption[1],
; 19412: 					gObj[number].Trade[n].m_SocketOption[2],
; 19413: 					gObj[number].Trade[n].m_SocketOption[3],
; 19414: 					gObj[number].Trade[n].m_SocketOption[4]
; 19415: #endif // ADD_SOCKET_OPTION_LOG_02_20080821
; 19416: 					);
; 19417: 			}

  0035d	eb 12		 jmp	 SHORT $LN6@TradeitemI
$LN7@TradeitemI:

; 19418: 			else 
; 19419: 			{
; 19420: 				LogAdd("error :  !!");

  0035f	68 00 00 00 00	 push	 OFFSET ??_C@_0BK@ELKLKHDB@error?5?3?5?$MA?L?$LA?G?5?E?$KL?$MA?O?$LD?$KK?$LE?B?$MA?O?$CB?$CB@
  00364	ff 15 00 00 00
	00		 call	 DWORD PTR ?LogAdd@@3P6AXPADZZA ; LogAdd
  0036a	83 c4 04	 add	 esp, 4

; 19421: 				return FALSE;

  0036d	33 c0		 xor	 eax, eax
  0036f	eb 0a		 jmp	 SHORT $LN1@TradeitemI
$LN6@TradeitemI:

; 19422: 			}
; 19423: 		}
; 19424: 	}

  00371	e9 f9 fc ff ff	 jmp	 $LN2@TradeitemI
$LN3@TradeitemI:

; 19425: 	return TRUE;

  00376	b8 01 00 00 00	 mov	 eax, 1
$LN1@TradeitemI:

; 19426: }

  0037b	5f		 pop	 edi
  0037c	5e		 pop	 esi
  0037d	5b		 pop	 ebx
  0037e	8b 4d fc	 mov	 ecx, DWORD PTR __$ArrayPad$[ebp]
  00381	33 cd		 xor	 ecx, ebp
  00383	e8 00 00 00 00	 call	 @__security_check_cookie@4
  00388	8b e5		 mov	 esp, ebp
  0038a	5d		 pop	 ebp
  0038b	c3		 ret	 0
?TradeitemInventoryPut@@YAHH@Z ENDP			; TradeitemInventoryPut
_TEXT	ENDS
; Function compile flags: /Odtp /ZI
; File C:\Mu Online\Mu-GS-Webzen-MC-10093\GameServer\user.cpp
;	COMDAT ?gObjTempInventoryInsertItem@@YAEPAVOBJECTSTRUCT@@VCItem@@PAE@Z
_TEXT	SEGMENT
_blank$ = -17						; size = 1
_iheight$ = -16						; size = 4
_iwidth$ = -12						; size = 4
_h$ = -8						; size = 4
_w$ = -4						; size = 4
_lpObj$ = 8						; size = 4
_item$ = 12						; size = 168
_TempMap$ = 180						; size = 4
?gObjTempInventoryInsertItem@@YAEPAVOBJECTSTRUCT@@VCItem@@PAE@Z PROC ; gObjTempInventoryInsertItem, COMDAT

; 19302: {

  00000	55		 push	 ebp
  00001	8b ec		 mov	 ebp, esp
  00003	83 ec 54	 sub	 esp, 84			; 00000054H
  00006	53		 push	 ebx
  00007	56		 push	 esi
  00008	57		 push	 edi

; 19303: 	int w, h;
; 19304: 	int iwidth, iheight;
; 19305: 	BYTE blank=0;

  00009	c6 45 ef 00	 mov	 BYTE PTR _blank$[ebp], 0

; 19306: 
; 19307: 	if( item.GetSize(iwidth, iheight) == FALSE )

  0000d	8d 45 f0	 lea	 eax, DWORD PTR _iheight$[ebp]
  00010	50		 push	 eax
  00011	8d 4d f4	 lea	 ecx, DWORD PTR _iwidth$[ebp]
  00014	51		 push	 ecx
  00015	8d 4d 0c	 lea	 ecx, DWORD PTR _item$[ebp]
  00018	e8 00 00 00 00	 call	 ?GetSize@CItem@@QAEHAAH0@Z ; CItem::GetSize
  0001d	85 c0		 test	 eax, eax
  0001f	75 35		 jne	 SHORT $LN8@gObjTempIn

; 19308: 	{
; 19309: 		LogAdd(lMsg.Get(532), __FILE__, __LINE__, item.m_Type);

  00021	0f bf 45 12	 movsx	 eax, WORD PTR _item$[ebp+6]
  00025	50		 push	 eax
  00026	8b 0d 00 00 00
	00		 mov	 ecx, DWORD PTR ?__LINE__Var@?0??gObjTempInventoryInsertItem@@YAEPAVOBJECTSTRUCT@@VCItem@@PAE@Z@4JA
  0002c	83 c1 07	 add	 ecx, 7
  0002f	51		 push	 ecx
  00030	68 00 00 00 00	 push	 OFFSET ??_C@_0DH@BCNNLIDP@C?3?2Mu?5Online?2Mu?9GS?9Webzen?9MC?910@
  00035	68 14 02 00 00	 push	 532			; 00000214H
  0003a	b9 00 00 00 00	 mov	 ecx, OFFSET ?lMsg@@3VCMsg@@A ; lMsg
  0003f	ff 15 00 00 00
	00		 call	 DWORD PTR __imp_?Get@CMsg@@QAEPADH@Z
  00045	50		 push	 eax
  00046	ff 15 00 00 00
	00		 call	 DWORD PTR ?LogAdd@@3P6AXPADZZA ; LogAdd
  0004c	83 c4 10	 add	 esp, 16			; 00000010H

; 19310: 		return 0xFF;

  0004f	0c ff		 or	 al, 255			; 000000ffH
  00051	e9 c1 00 00 00	 jmp	 $LN1@gObjTempIn
$LN8@gObjTempIn:

; 19311: 	}
; 19312: 
; 19313: 	for( h=0; h<8; h++)

  00056	c7 45 f8 00 00
	00 00		 mov	 DWORD PTR _h$[ebp], 0
  0005d	eb 09		 jmp	 SHORT $LN4@gObjTempIn
$LN2@gObjTempIn:
  0005f	8b 45 f8	 mov	 eax, DWORD PTR _h$[ebp]
  00062	83 c0 01	 add	 eax, 1
  00065	89 45 f8	 mov	 DWORD PTR _h$[ebp], eax
$LN4@gObjTempIn:
  00068	83 7d f8 08	 cmp	 DWORD PTR _h$[ebp], 8
  0006c	0f 8d a3 00 00
	00		 jge	 $GOTO_EndFunc$14

; 19314: 	{
; 19315: 		for( w=0; w<8; w++)

  00072	c7 45 fc 00 00
	00 00		 mov	 DWORD PTR _w$[ebp], 0
  00079	eb 09		 jmp	 SHORT $LN7@gObjTempIn
$LN5@gObjTempIn:
  0007b	8b 45 fc	 mov	 eax, DWORD PTR _w$[ebp]
  0007e	83 c0 01	 add	 eax, 1
  00081	89 45 fc	 mov	 DWORD PTR _w$[ebp], eax
$LN7@gObjTempIn:
  00084	83 7d fc 08	 cmp	 DWORD PTR _w$[ebp], 8
  00088	0f 8d 82 00 00
	00		 jge	 $LN6@gObjTempIn

; 19316: 		{
; 19317: 			//  
; 19318: 			if( *(TempMap+(h*8)+(w)) == 0xFF )

  0008e	8b 45 f8	 mov	 eax, DWORD PTR _h$[ebp]
  00091	8b 8d b4 00 00
	00		 mov	 ecx, DWORD PTR _TempMap$[ebp]
  00097	8d 14 c1	 lea	 edx, DWORD PTR [ecx+eax*8]
  0009a	8b 45 fc	 mov	 eax, DWORD PTR _w$[ebp]
  0009d	0f b6 0c 02	 movzx	 ecx, BYTE PTR [edx+eax]
  000a1	81 f9 ff 00 00
	00		 cmp	 ecx, 255		; 000000ffH
  000a7	75 62		 jne	 SHORT $LN9@gObjTempIn

; 19319: 			{				
; 19320: 				blank = gObjTempInventoryRectCheck(TempMap, w, h, iwidth,iheight);

  000a9	8b 45 f0	 mov	 eax, DWORD PTR _iheight$[ebp]
  000ac	50		 push	 eax
  000ad	8b 4d f4	 mov	 ecx, DWORD PTR _iwidth$[ebp]
  000b0	51		 push	 ecx
  000b1	8b 55 f8	 mov	 edx, DWORD PTR _h$[ebp]
  000b4	52		 push	 edx
  000b5	8b 45 fc	 mov	 eax, DWORD PTR _w$[ebp]
  000b8	50		 push	 eax
  000b9	8b 8d b4 00 00
	00		 mov	 ecx, DWORD PTR _TempMap$[ebp]
  000bf	51		 push	 ecx
  000c0	e8 00 00 00 00	 call	 ?gObjTempInventoryRectCheck@@YAEPAEHHHH@Z ; gObjTempInventoryRectCheck
  000c5	83 c4 14	 add	 esp, 20			; 00000014H
  000c8	88 45 ef	 mov	 BYTE PTR _blank$[ebp], al

; 19321: 				// 
; 19322: 				if( blank == 0xFE ) goto GOTO_EndFunc;

  000cb	0f b6 45 ef	 movzx	 eax, BYTE PTR _blank$[ebp]
  000cf	3d fe 00 00 00	 cmp	 eax, 254		; 000000feH
  000d4	75 04		 jne	 SHORT $LN10@gObjTempIn
  000d6	eb 3d		 jmp	 SHORT $GOTO_EndFunc$14
  000d8	eb 3b		 jmp	 SHORT $GOTO_EndFunc$14
$LN10@gObjTempIn:

; 19323: 				if( blank != 0xFF )	{	//   

  000da	0f b6 45 ef	 movzx	 eax, BYTE PTR _blank$[ebp]
  000de	3d ff 00 00 00	 cmp	 eax, 255		; 000000ffH
  000e3	74 26		 je	 SHORT $LN9@gObjTempIn

; 19324: 					gObjTempInventoryItemBoxSet(TempMap, blank, iwidth, iheight, (BYTE)item.m_Type);

  000e5	0f b6 45 12	 movzx	 eax, BYTE PTR _item$[ebp+6]
  000e9	50		 push	 eax
  000ea	8b 4d f0	 mov	 ecx, DWORD PTR _iheight$[ebp]
  000ed	51		 push	 ecx
  000ee	8b 55 f4	 mov	 edx, DWORD PTR _iwidth$[ebp]
  000f1	52		 push	 edx
  000f2	0f b6 45 ef	 movzx	 eax, BYTE PTR _blank$[ebp]
  000f6	50		 push	 eax
  000f7	8b 8d b4 00 00
	00		 mov	 ecx, DWORD PTR _TempMap$[ebp]
  000fd	51		 push	 ecx
  000fe	e8 00 00 00 00	 call	 ?gObjTempInventoryItemBoxSet@@YAXPAEHHHE@Z ; gObjTempInventoryItemBoxSet
  00103	83 c4 14	 add	 esp, 20			; 00000014H

; 19325: 					return blank;

  00106	8a 45 ef	 mov	 al, BYTE PTR _blank$[ebp]
  00109	eb 0c		 jmp	 SHORT $LN1@gObjTempIn
$LN9@gObjTempIn:

; 19326: 				}			
; 19327: 			}
; 19328: 		}

  0010b	e9 6b ff ff ff	 jmp	 $LN5@gObjTempIn
$LN6@gObjTempIn:

; 19329: 	}

  00110	e9 4a ff ff ff	 jmp	 $LN2@gObjTempIn
$GOTO_EndFunc$14:

; 19330: 
; 19331: GOTO_EndFunc :
; 19332: 	return 0xFF;

  00115	0c ff		 or	 al, 255			; 000000ffH
$LN1@gObjTempIn:

; 19333: }

  00117	5f		 pop	 edi
  00118	5e		 pop	 esi
  00119	5b		 pop	 ebx
  0011a	8b e5		 mov	 esp, ebp
  0011c	5d		 pop	 ebp
  0011d	c3		 ret	 0
?gObjTempInventoryInsertItem@@YAEPAVOBJECTSTRUCT@@VCItem@@PAE@Z ENDP ; gObjTempInventoryInsertItem
_TEXT	ENDS
; Function compile flags: /Odtp /ZI
; File C:\Mu Online\Mu-GS-Webzen-MC-10093\GameServer\user.cpp
;	COMDAT ?gObjTempInventoryRectCheck@@YAEPAEHHHH@Z
_TEXT	SEGMENT
_blank$ = -12						; size = 4
_y$ = -8						; size = 4
_x$ = -4						; size = 4
_TempMap$ = 8						; size = 4
_sx$ = 12						; size = 4
_sy$ = 16						; size = 4
_width$ = 20						; size = 4
_height$ = 24						; size = 4
?gObjTempInventoryRectCheck@@YAEPAEHHHH@Z PROC		; gObjTempInventoryRectCheck, COMDAT

; 19274: {

  00000	55		 push	 ebp
  00001	8b ec		 mov	 ebp, esp
  00003	83 ec 4c	 sub	 esp, 76			; 0000004cH
  00006	53		 push	 ebx
  00007	56		 push	 esi
  00008	57		 push	 edi

; 19275: 	int x, y;
; 19276: 	int blank = 0;

  00009	c7 45 f4 00 00
	00 00		 mov	 DWORD PTR _blank$[ebp], 0

; 19277: 
; 19278: 	//     
; 19279: 	if( (sx+width) > 8 ) return (BYTE)0xFF;

  00010	8b 45 0c	 mov	 eax, DWORD PTR _sx$[ebp]
  00013	03 45 14	 add	 eax, DWORD PTR _width$[ebp]
  00016	83 f8 08	 cmp	 eax, 8
  00019	7e 07		 jle	 SHORT $LN8@gObjTempIn
  0001b	0c ff		 or	 al, 255			; 000000ffH
  0001d	e9 86 00 00 00	 jmp	 $LN1@gObjTempIn
$LN8@gObjTempIn:

; 19280: 	if( (sy+height) > 8 ) return (BYTE)0xFE;

  00022	8b 45 10	 mov	 eax, DWORD PTR _sy$[ebp]
  00025	03 45 18	 add	 eax, DWORD PTR _height$[ebp]
  00028	83 f8 08	 cmp	 eax, 8
  0002b	7e 04		 jle	 SHORT $LN9@gObjTempIn
  0002d	b0 fe		 mov	 al, 254			; 000000feH
  0002f	eb 77		 jmp	 SHORT $LN1@gObjTempIn
$LN9@gObjTempIn:

; 19281: 
; 19282: 	for( y=0; y<height; y++)

  00031	c7 45 f8 00 00
	00 00		 mov	 DWORD PTR _y$[ebp], 0
  00038	eb 09		 jmp	 SHORT $LN4@gObjTempIn
$LN2@gObjTempIn:
  0003a	8b 45 f8	 mov	 eax, DWORD PTR _y$[ebp]
  0003d	83 c0 01	 add	 eax, 1
  00040	89 45 f8	 mov	 DWORD PTR _y$[ebp], eax
$LN4@gObjTempIn:
  00043	8b 45 f8	 mov	 eax, DWORD PTR _y$[ebp]
  00046	3b 45 18	 cmp	 eax, DWORD PTR _height$[ebp]
  00049	7d 49		 jge	 SHORT $LN3@gObjTempIn

; 19283: 	{		
; 19284: 		for(x=0; x<width; x++)

  0004b	c7 45 fc 00 00
	00 00		 mov	 DWORD PTR _x$[ebp], 0
  00052	eb 09		 jmp	 SHORT $LN7@gObjTempIn
$LN5@gObjTempIn:
  00054	8b 45 fc	 mov	 eax, DWORD PTR _x$[ebp]
  00057	83 c0 01	 add	 eax, 1
  0005a	89 45 fc	 mov	 DWORD PTR _x$[ebp], eax
$LN7@gObjTempIn:
  0005d	8b 45 fc	 mov	 eax, DWORD PTR _x$[ebp]
  00060	3b 45 14	 cmp	 eax, DWORD PTR _width$[ebp]
  00063	7d 2d		 jge	 SHORT $LN6@gObjTempIn

; 19285: 		{
; 19286: 			if( *(TempMap+((sy+y)*8)+(sx+x)) != 0xFF ) 

  00065	8b 45 10	 mov	 eax, DWORD PTR _sy$[ebp]
  00068	03 45 f8	 add	 eax, DWORD PTR _y$[ebp]
  0006b	8b 4d 08	 mov	 ecx, DWORD PTR _TempMap$[ebp]
  0006e	8d 14 c1	 lea	 edx, DWORD PTR [ecx+eax*8]
  00071	8b 45 0c	 mov	 eax, DWORD PTR _sx$[ebp]
  00074	03 45 fc	 add	 eax, DWORD PTR _x$[ebp]
  00077	0f b6 0c 02	 movzx	 ecx, BYTE PTR [edx+eax]
  0007b	81 f9 ff 00 00
	00		 cmp	 ecx, 255		; 000000ffH
  00081	74 0d		 je	 SHORT $LN10@gObjTempIn

; 19287: 			{
; 19288: 				blank++;

  00083	8b 45 f4	 mov	 eax, DWORD PTR _blank$[ebp]
  00086	83 c0 01	 add	 eax, 1
  00089	89 45 f4	 mov	 DWORD PTR _blank$[ebp], eax

; 19289: 				return (BYTE)0xFF;

  0008c	0c ff		 or	 al, 255			; 000000ffH
  0008e	eb 18		 jmp	 SHORT $LN1@gObjTempIn
$LN10@gObjTempIn:

; 19290: 			}
; 19291: 		}

  00090	eb c2		 jmp	 SHORT $LN5@gObjTempIn
$LN6@gObjTempIn:

; 19292: 	}

  00092	eb a6		 jmp	 SHORT $LN2@gObjTempIn
$LN3@gObjTempIn:

; 19293: 
; 19294: 	if( blank == 0 ) return (BYTE)(MAX_EQUIPMENT+((sy*8)+sx));

  00094	83 7d f4 00	 cmp	 DWORD PTR _blank$[ebp], 0
  00098	75 0c		 jne	 SHORT $LN11@gObjTempIn
  0009a	8b 45 10	 mov	 eax, DWORD PTR _sy$[ebp]
  0009d	8b 4d 0c	 mov	 ecx, DWORD PTR _sx$[ebp]
  000a0	8d 44 c1 0c	 lea	 eax, DWORD PTR [ecx+eax*8+12]
  000a4	eb 02		 jmp	 SHORT $LN1@gObjTempIn
$LN11@gObjTempIn:

; 19295: 
; 19296: 	return (BYTE)0xFF;

  000a6	0c ff		 or	 al, 255			; 000000ffH
$LN1@gObjTempIn:

; 19297: }

  000a8	5f		 pop	 edi
  000a9	5e		 pop	 esi
  000aa	5b		 pop	 ebx
  000ab	8b e5		 mov	 esp, ebp
  000ad	5d		 pop	 ebp
  000ae	c3		 ret	 0
?gObjTempInventoryRectCheck@@YAEPAEHHHH@Z ENDP		; gObjTempInventoryRectCheck
_TEXT	ENDS
; Function compile flags: /Odtp /ZI
; File C:\Mu Online\Mu-GS-Webzen-MC-10093\GameServer\user.cpp
;	COMDAT ?gObjTempInventoryItemBoxSet@@YAXPAEHHHE@Z
_TEXT	SEGMENT
_x$1 = -16						; size = 4
_y$2 = -12						; size = 4
_itemposy$ = -8						; size = 4
_itemposx$ = -4						; size = 4
_TempMap$ = 8						; size = 4
_itempos$ = 12						; size = 4
_xl$ = 16						; size = 4
_yl$ = 20						; size = 4
_set_byte$ = 24						; size = 1
?gObjTempInventoryItemBoxSet@@YAXPAEHHHE@Z PROC		; gObjTempInventoryItemBoxSet, COMDAT

; 19256: {

  00000	55		 push	 ebp
  00001	8b ec		 mov	 ebp, esp
  00003	83 ec 50	 sub	 esp, 80			; 00000050H
  00006	53		 push	 ebx
  00007	56		 push	 esi
  00008	57		 push	 edi

; 19257: 	int itemposx, itemposy;
; 19258: 
; 19259: 	itemposx = (itempos-MAX_EQUIPMENT)%8;

  00009	8b 45 0c	 mov	 eax, DWORD PTR _itempos$[ebp]
  0000c	83 e8 0c	 sub	 eax, 12			; 0000000cH
  0000f	25 07 00 00 80	 and	 eax, -2147483641	; 80000007H
  00014	79 05		 jns	 SHORT $LN9@gObjTempIn
  00016	48		 dec	 eax
  00017	83 c8 f8	 or	 eax, -8			; fffffff8H
  0001a	40		 inc	 eax
$LN9@gObjTempIn:
  0001b	89 45 fc	 mov	 DWORD PTR _itemposx$[ebp], eax

; 19260: 	itemposy = (itempos-MAX_EQUIPMENT)/8;

  0001e	8b 45 0c	 mov	 eax, DWORD PTR _itempos$[ebp]
  00021	83 e8 0c	 sub	 eax, 12			; 0000000cH
  00024	99		 cdq
  00025	83 e2 07	 and	 edx, 7
  00028	03 c2		 add	 eax, edx
  0002a	c1 f8 03	 sar	 eax, 3
  0002d	89 45 f8	 mov	 DWORD PTR _itemposy$[ebp], eax

; 19261: 
; 19262: 	for( int y=0; y<yl; y++)

  00030	c7 45 f4 00 00
	00 00		 mov	 DWORD PTR _y$2[ebp], 0
  00037	eb 09		 jmp	 SHORT $LN4@gObjTempIn
$LN2@gObjTempIn:
  00039	8b 45 f4	 mov	 eax, DWORD PTR _y$2[ebp]
  0003c	83 c0 01	 add	 eax, 1
  0003f	89 45 f4	 mov	 DWORD PTR _y$2[ebp], eax
$LN4@gObjTempIn:
  00042	8b 45 f4	 mov	 eax, DWORD PTR _y$2[ebp]
  00045	3b 45 14	 cmp	 eax, DWORD PTR _yl$[ebp]
  00048	7d 36		 jge	 SHORT $LN1@gObjTempIn

; 19263: 	{
; 19264: 		for( int x=0; x<xl; x++)

  0004a	c7 45 f0 00 00
	00 00		 mov	 DWORD PTR _x$1[ebp], 0
  00051	eb 09		 jmp	 SHORT $LN7@gObjTempIn
$LN5@gObjTempIn:
  00053	8b 45 f0	 mov	 eax, DWORD PTR _x$1[ebp]
  00056	83 c0 01	 add	 eax, 1
  00059	89 45 f0	 mov	 DWORD PTR _x$1[ebp], eax
$LN7@gObjTempIn:
  0005c	8b 45 f0	 mov	 eax, DWORD PTR _x$1[ebp]
  0005f	3b 45 10	 cmp	 eax, DWORD PTR _xl$[ebp]
  00062	7d 1a		 jge	 SHORT $LN6@gObjTempIn

; 19265: 		{
; 19266: 			*(TempMap+((itemposy+y)*8)+(itemposx+x)) = set_byte;

  00064	8b 45 f8	 mov	 eax, DWORD PTR _itemposy$[ebp]
  00067	03 45 f4	 add	 eax, DWORD PTR _y$2[ebp]
  0006a	8b 4d 08	 mov	 ecx, DWORD PTR _TempMap$[ebp]
  0006d	8d 14 c1	 lea	 edx, DWORD PTR [ecx+eax*8]
  00070	8b 45 fc	 mov	 eax, DWORD PTR _itemposx$[ebp]
  00073	03 45 f0	 add	 eax, DWORD PTR _x$1[ebp]
  00076	8a 4d 18	 mov	 cl, BYTE PTR _set_byte$[ebp]
  00079	88 0c 02	 mov	 BYTE PTR [edx+eax], cl

; 19267: 		}

  0007c	eb d5		 jmp	 SHORT $LN5@gObjTempIn
$LN6@gObjTempIn:

; 19268: 	}

  0007e	eb b9		 jmp	 SHORT $LN2@gObjTempIn
$LN1@gObjTempIn:

; 19269: }

  00080	5f		 pop	 edi
  00081	5e		 pop	 esi
  00082	5b		 pop	 ebx
  00083	8b e5		 mov	 esp, ebp
  00085	5d		 pop	 ebp
  00086	c3		 ret	 0
?gObjTempInventoryItemBoxSet@@YAXPAEHHHE@Z ENDP		; gObjTempInventoryItemBoxSet
_TEXT	ENDS
; Function compile flags: /Odtp /ZI
; File C:\Mu Online\Mu-GS-Webzen-MC-10093\GameServer\user.cpp
;	COMDAT ?gObjTradeItemBoxSet@@YAHHHHHE@Z
_TEXT	SEGMENT
_x$1 = -24						; size = 4
_y$2 = -20						; size = 4
_yy$ = -16						; size = 4
_xx$ = -12						; size = 4
_itemposy$ = -8						; size = 4
_itemposx$ = -4						; size = 4
_aIndex$ = 8						; size = 4
_itempos$ = 12						; size = 4
_xl$ = 16						; size = 4
_yl$ = 20						; size = 4
_set_byte$ = 24						; size = 1
?gObjTradeItemBoxSet@@YAHHHHHE@Z PROC			; gObjTradeItemBoxSet, COMDAT

; 18581: {

  00000	55		 push	 ebp
  00001	8b ec		 mov	 ebp, esp
  00003	83 ec 58	 sub	 esp, 88			; 00000058H
  00006	53		 push	 ebx
  00007	56		 push	 esi
  00008	57		 push	 edi

; 18582: 	int itemposx, itemposy;
; 18583: 	int xx, yy;
; 18584: 
; 18585: 	itemposx = itempos%8;

  00009	8b 45 0c	 mov	 eax, DWORD PTR _itempos$[ebp]
  0000c	25 07 00 00 80	 and	 eax, -2147483641	; 80000007H
  00011	79 05		 jns	 SHORT $LN11@gObjTradeI
  00013	48		 dec	 eax
  00014	83 c8 f8	 or	 eax, -8			; fffffff8H
  00017	40		 inc	 eax
$LN11@gObjTradeI:
  00018	89 45 fc	 mov	 DWORD PTR _itemposx$[ebp], eax

; 18586: 	itemposy = itempos/8;

  0001b	8b 45 0c	 mov	 eax, DWORD PTR _itempos$[ebp]
  0001e	99		 cdq
  0001f	83 e2 07	 and	 edx, 7
  00022	03 c2		 add	 eax, edx
  00024	c1 f8 03	 sar	 eax, 3
  00027	89 45 f8	 mov	 DWORD PTR _itemposy$[ebp], eax

; 18587: 
; 18588: 	for( int y=0; y<yl; y++)

  0002a	c7 45 ec 00 00
	00 00		 mov	 DWORD PTR _y$2[ebp], 0
  00031	eb 09		 jmp	 SHORT $LN4@gObjTradeI
$LN2@gObjTradeI:
  00033	8b 45 ec	 mov	 eax, DWORD PTR _y$2[ebp]
  00036	83 c0 01	 add	 eax, 1
  00039	89 45 ec	 mov	 DWORD PTR _y$2[ebp], eax
$LN4@gObjTradeI:
  0003c	8b 45 ec	 mov	 eax, DWORD PTR _y$2[ebp]
  0003f	3b 45 14	 cmp	 eax, DWORD PTR _yl$[ebp]
  00042	0f 8d 91 00 00
	00		 jge	 $LN3@gObjTradeI

; 18589: 	{
; 18590: 		yy = itemposy+y;

  00048	8b 45 f8	 mov	 eax, DWORD PTR _itemposy$[ebp]
  0004b	03 45 ec	 add	 eax, DWORD PTR _y$2[ebp]
  0004e	89 45 f0	 mov	 DWORD PTR _yy$[ebp], eax

; 18591: 		for( int x=0; x<xl; x++)

  00051	c7 45 e8 00 00
	00 00		 mov	 DWORD PTR _x$1[ebp], 0
  00058	eb 09		 jmp	 SHORT $LN7@gObjTradeI
$LN5@gObjTradeI:
  0005a	8b 45 e8	 mov	 eax, DWORD PTR _x$1[ebp]
  0005d	83 c0 01	 add	 eax, 1
  00060	89 45 e8	 mov	 DWORD PTR _x$1[ebp], eax
$LN7@gObjTradeI:
  00063	8b 45 e8	 mov	 eax, DWORD PTR _x$1[ebp]
  00066	3b 45 10	 cmp	 eax, DWORD PTR _xl$[ebp]
  00069	7d 69		 jge	 SHORT $LN6@gObjTradeI

; 18592: 		{
; 18593: 			xx = itemposx+x;

  0006b	8b 45 fc	 mov	 eax, DWORD PTR _itemposx$[ebp]
  0006e	03 45 e8	 add	 eax, DWORD PTR _x$1[ebp]
  00071	89 45 f4	 mov	 DWORD PTR _xx$[ebp], eax

; 18594: 
; 18595: 			if( ExtentCheck(xx, yy, 8, 4) == TRUE )

  00074	6a 04		 push	 4
  00076	6a 08		 push	 8
  00078	8b 45 f0	 mov	 eax, DWORD PTR _yy$[ebp]
  0007b	50		 push	 eax
  0007c	8b 4d f4	 mov	 ecx, DWORD PTR _xx$[ebp]
  0007f	51		 push	 ecx
  00080	e8 00 00 00 00	 call	 ?ExtentCheck@@YAHHHHH@Z	; ExtentCheck
  00085	83 c4 10	 add	 esp, 16			; 00000010H
  00088	83 f8 01	 cmp	 eax, 1
  0008b	75 25		 jne	 SHORT $LN8@gObjTradeI

; 18596: 			{
; 18597: 				*(gObj[aIndex].TradeMap+(yy*8)+xx) = set_byte;

  0008d	69 45 08 a0 1b
	00 00		 imul	 eax, DWORD PTR _aIndex$[ebp], 7072
  00094	8b 0d 00 00 00
	00		 mov	 ecx, DWORD PTR ?gObj@@3PAVOBJECTSTRUCT@@A ; gObj
  0009a	8b 94 01 88 0c
	00 00		 mov	 edx, DWORD PTR [ecx+eax+3208]
  000a1	8b 45 f0	 mov	 eax, DWORD PTR _yy$[ebp]
  000a4	8d 0c c2	 lea	 ecx, DWORD PTR [edx+eax*8]
  000a7	8b 55 f4	 mov	 edx, DWORD PTR _xx$[ebp]
  000aa	8a 45 18	 mov	 al, BYTE PTR _set_byte$[ebp]
  000ad	88 04 11	 mov	 BYTE PTR [ecx+edx], al

; 18598: 			}

  000b0	eb 20		 jmp	 SHORT $LN9@gObjTradeI
$LN8@gObjTradeI:

; 18599: 			else
; 18600: 			{
; 18601: 				LogAdd("error : %s %d",__FILE__, __LINE__);

  000b2	a1 00 00 00 00	 mov	 eax, DWORD PTR ?__LINE__Var@?0??gObjTradeItemBoxSet@@YAHHHHHE@Z@4JA
  000b7	83 c0 14	 add	 eax, 20			; 00000014H
  000ba	50		 push	 eax
  000bb	68 00 00 00 00	 push	 OFFSET ??_C@_0DH@BCNNLIDP@C?3?2Mu?5Online?2Mu?9GS?9Webzen?9MC?910@
  000c0	68 00 00 00 00	 push	 OFFSET ??_C@_0O@CKAEPJAF@error?5?3?5?$CFs?5?$CFd@
  000c5	ff 15 00 00 00
	00		 call	 DWORD PTR ?LogAdd@@3P6AXPADZZA ; LogAdd
  000cb	83 c4 0c	 add	 esp, 12			; 0000000cH

; 18602: 				return FALSE;

  000ce	33 c0		 xor	 eax, eax
  000d0	eb 0c		 jmp	 SHORT $LN1@gObjTradeI
$LN9@gObjTradeI:

; 18603: 			}
; 18604: 		}

  000d2	eb 86		 jmp	 SHORT $LN5@gObjTradeI
$LN6@gObjTradeI:

; 18605: 	}

  000d4	e9 5a ff ff ff	 jmp	 $LN2@gObjTradeI
$LN3@gObjTradeI:

; 18606: 	return TRUE;

  000d9	b8 01 00 00 00	 mov	 eax, 1
$LN1@gObjTradeI:

; 18607: }

  000de	5f		 pop	 edi
  000df	5e		 pop	 esi
  000e0	5b		 pop	 ebx
  000e1	8b e5		 mov	 esp, ebp
  000e3	5d		 pop	 ebp
  000e4	c3		 ret	 0
?gObjTradeItemBoxSet@@YAHHHHHE@Z ENDP			; gObjTradeItemBoxSet
_TEXT	ENDS
; Function compile flags: /Odtp /ZI
; File C:\Mu Online\Mu-GS-Webzen-MC-10093\GameServer\user.cpp
;	COMDAT ?gObjTradeRectCheck@@YAEHHHHH@Z
_TEXT	SEGMENT
_yy$ = -20						; size = 4
_xx$ = -16						; size = 4
_blank$ = -12						; size = 4
_y$ = -8						; size = 4
_x$ = -4						; size = 4
_aIndex$ = 8						; size = 4
_sx$ = 12						; size = 4
_sy$ = 16						; size = 4
_width$ = 20						; size = 4
_height$ = 24						; size = 4
?gObjTradeRectCheck@@YAEHHHHH@Z PROC			; gObjTradeRectCheck, COMDAT

; 18537: {

  00000	55		 push	 ebp
  00001	8b ec		 mov	 ebp, esp
  00003	83 ec 54	 sub	 esp, 84			; 00000054H
  00006	53		 push	 ebx
  00007	56		 push	 esi
  00008	57		 push	 edi

; 18538: 	int x, y;
; 18539: 	int blank = 0;

  00009	c7 45 f4 00 00
	00 00		 mov	 DWORD PTR _blank$[ebp], 0

; 18540: 
; 18541: 	//     
; 18542: 	if( (sx+width) > 8 ) return (BYTE)0xFF;

  00010	8b 45 0c	 mov	 eax, DWORD PTR _sx$[ebp]
  00013	03 45 14	 add	 eax, DWORD PTR _width$[ebp]
  00016	83 f8 08	 cmp	 eax, 8
  00019	7e 07		 jle	 SHORT $LN8@gObjTradeR
  0001b	0c ff		 or	 al, 255			; 000000ffH
  0001d	e9 e9 00 00 00	 jmp	 $LN1@gObjTradeR
$LN8@gObjTradeR:

; 18543: 	if( (sy+height) > 4 ) return (BYTE)0xFF;

  00022	8b 45 10	 mov	 eax, DWORD PTR _sy$[ebp]
  00025	03 45 18	 add	 eax, DWORD PTR _height$[ebp]
  00028	83 f8 04	 cmp	 eax, 4
  0002b	7e 07		 jle	 SHORT $LN9@gObjTradeR
  0002d	0c ff		 or	 al, 255			; 000000ffH
  0002f	e9 d7 00 00 00	 jmp	 $LN1@gObjTradeR
$LN9@gObjTradeR:

; 18544: 	
; 18545: 	int xx, yy;
; 18546: 
; 18547: 	
; 18548: 	for( y=0; y<height; y++)

  00034	c7 45 f8 00 00
	00 00		 mov	 DWORD PTR _y$[ebp], 0
  0003b	eb 09		 jmp	 SHORT $LN4@gObjTradeR
$LN2@gObjTradeR:
  0003d	8b 45 f8	 mov	 eax, DWORD PTR _y$[ebp]
  00040	83 c0 01	 add	 eax, 1
  00043	89 45 f8	 mov	 DWORD PTR _y$[ebp], eax
$LN4@gObjTradeR:
  00046	8b 45 f8	 mov	 eax, DWORD PTR _y$[ebp]
  00049	3b 45 18	 cmp	 eax, DWORD PTR _height$[ebp]
  0004c	0f 8d a6 00 00
	00		 jge	 $LN3@gObjTradeR

; 18549: 	{		
; 18550: 		yy = sy+y;

  00052	8b 45 10	 mov	 eax, DWORD PTR _sy$[ebp]
  00055	03 45 f8	 add	 eax, DWORD PTR _y$[ebp]
  00058	89 45 ec	 mov	 DWORD PTR _yy$[ebp], eax

; 18551: 		for(x=0; x<width; x++)

  0005b	c7 45 fc 00 00
	00 00		 mov	 DWORD PTR _x$[ebp], 0
  00062	eb 09		 jmp	 SHORT $LN7@gObjTradeR
$LN5@gObjTradeR:
  00064	8b 45 fc	 mov	 eax, DWORD PTR _x$[ebp]
  00067	83 c0 01	 add	 eax, 1
  0006a	89 45 fc	 mov	 DWORD PTR _x$[ebp], eax
$LN7@gObjTradeR:
  0006d	8b 45 fc	 mov	 eax, DWORD PTR _x$[ebp]
  00070	3b 45 14	 cmp	 eax, DWORD PTR _width$[ebp]
  00073	7d 7e		 jge	 SHORT $LN6@gObjTradeR

; 18552: 		{
; 18553: 			xx = sx+x;

  00075	8b 45 0c	 mov	 eax, DWORD PTR _sx$[ebp]
  00078	03 45 fc	 add	 eax, DWORD PTR _x$[ebp]
  0007b	89 45 f0	 mov	 DWORD PTR _xx$[ebp], eax

; 18554: 			if( ExtentCheck(xx, yy, 8, 4) == TRUE)

  0007e	6a 04		 push	 4
  00080	6a 08		 push	 8
  00082	8b 45 ec	 mov	 eax, DWORD PTR _yy$[ebp]
  00085	50		 push	 eax
  00086	8b 4d f0	 mov	 ecx, DWORD PTR _xx$[ebp]
  00089	51		 push	 ecx
  0008a	e8 00 00 00 00	 call	 ?ExtentCheck@@YAHHHHH@Z	; ExtentCheck
  0008f	83 c4 10	 add	 esp, 16			; 00000010H
  00092	83 f8 01	 cmp	 eax, 1
  00095	75 37		 jne	 SHORT $LN10@gObjTradeR

; 18555: 			{
; 18556: 				//*(gObj[aIndex].pWarehouseMap+((itemposy+y)*8)+(itemposx+x)) = set_byte;
; 18557: 
; 18558: 				if( *(gObj[aIndex].TradeMap+(yy*8)+xx) != 0xFF ) 

  00097	69 45 08 a0 1b
	00 00		 imul	 eax, DWORD PTR _aIndex$[ebp], 7072
  0009e	8b 0d 00 00 00
	00		 mov	 ecx, DWORD PTR ?gObj@@3PAVOBJECTSTRUCT@@A ; gObj
  000a4	8b 94 01 88 0c
	00 00		 mov	 edx, DWORD PTR [ecx+eax+3208]
  000ab	8b 45 ec	 mov	 eax, DWORD PTR _yy$[ebp]
  000ae	8d 0c c2	 lea	 ecx, DWORD PTR [edx+eax*8]
  000b1	8b 55 f0	 mov	 edx, DWORD PTR _xx$[ebp]
  000b4	0f b6 04 11	 movzx	 eax, BYTE PTR [ecx+edx]
  000b8	3d ff 00 00 00	 cmp	 eax, 255		; 000000ffH
  000bd	74 0d		 je	 SHORT $LN12@gObjTradeR

; 18559: 				{
; 18560: 					blank++;

  000bf	8b 45 f4	 mov	 eax, DWORD PTR _blank$[ebp]
  000c2	83 c0 01	 add	 eax, 1
  000c5	89 45 f4	 mov	 DWORD PTR _blank$[ebp], eax

; 18561: 					return (BYTE)0xFF;

  000c8	0c ff		 or	 al, 255			; 000000ffH
  000ca	eb 3f		 jmp	 SHORT $LN1@gObjTradeR
$LN12@gObjTradeR:

; 18562: 				}
; 18563: 			}

  000cc	eb 20		 jmp	 SHORT $LN11@gObjTradeR
$LN10@gObjTradeR:

; 18564: 			else
; 18565: 			{
; 18566: 				LogAdd("error : %s %d", __FILE__, __LINE__);

  000ce	a1 00 00 00 00	 mov	 eax, DWORD PTR ?__LINE__Var@?0??gObjTradeRectCheck@@YAEHHHHH@Z@4JA
  000d3	83 c0 1d	 add	 eax, 29			; 0000001dH
  000d6	50		 push	 eax
  000d7	68 00 00 00 00	 push	 OFFSET ??_C@_0DH@BCNNLIDP@C?3?2Mu?5Online?2Mu?9GS?9Webzen?9MC?910@
  000dc	68 00 00 00 00	 push	 OFFSET ??_C@_0O@CKAEPJAF@error?5?3?5?$CFs?5?$CFd@
  000e1	ff 15 00 00 00
	00		 call	 DWORD PTR ?LogAdd@@3P6AXPADZZA ; LogAdd
  000e7	83 c4 0c	 add	 esp, 12			; 0000000cH

; 18567: 				return (BYTE)0xFF;

  000ea	0c ff		 or	 al, 255			; 000000ffH
  000ec	eb 1d		 jmp	 SHORT $LN1@gObjTradeR
$LN11@gObjTradeR:

; 18568: 			}
; 18569: 		}

  000ee	e9 71 ff ff ff	 jmp	 $LN5@gObjTradeR
$LN6@gObjTradeR:

; 18570: 	}

  000f3	e9 45 ff ff ff	 jmp	 $LN2@gObjTradeR
$LN3@gObjTradeR:

; 18571: 
; 18572: 	if( blank == 0 ) return (BYTE)((sy*8)+sx);

  000f8	83 7d f4 00	 cmp	 DWORD PTR _blank$[ebp], 0
  000fc	75 0b		 jne	 SHORT $LN13@gObjTradeR
  000fe	8b 45 10	 mov	 eax, DWORD PTR _sy$[ebp]
  00101	8b 4d 0c	 mov	 ecx, DWORD PTR _sx$[ebp]
  00104	8d 04 c1	 lea	 eax, DWORD PTR [ecx+eax*8]
  00107	eb 02		 jmp	 SHORT $LN1@gObjTradeR
$LN13@gObjTradeR:

; 18573: 	
; 18574: 	return (BYTE)(0xFF);

  00109	0c ff		 or	 al, 255			; 000000ffH
$LN1@gObjTradeR:

; 18575: }

  0010b	5f		 pop	 edi
  0010c	5e		 pop	 esi
  0010d	5b		 pop	 ebx
  0010e	8b e5		 mov	 esp, ebp
  00110	5d		 pop	 ebp
  00111	c3		 ret	 0
?gObjTradeRectCheck@@YAEHHHHH@Z ENDP			; gObjTradeRectCheck
_TEXT	ENDS
; Function compile flags: /Odtp /ZI
; File C:\Mu Online\Mu-GS-Webzen-MC-10093\GameServer\user.cpp
;	COMDAT ?gObjWarehouseSearchSerialNumber@@YAHPAVOBJECTSTRUCT@@K@Z
_TEXT	SEGMENT
_n$ = -12						; size = 4
_count$ = -8						; size = 4
_s_num$ = -4						; size = 4
_lpObj$ = 8						; size = 4
_sirial$ = 12						; size = 4
?gObjWarehouseSearchSerialNumber@@YAHPAVOBJECTSTRUCT@@K@Z PROC ; gObjWarehouseSearchSerialNumber, COMDAT

; 16722: {

  00000	55		 push	 ebp
  00001	8b ec		 mov	 ebp, esp
  00003	83 ec 4c	 sub	 esp, 76			; 0000004cH
  00006	53		 push	 ebx
  00007	56		 push	 esi
  00008	57		 push	 edi

; 16723: 	DWORD s_num;
; 16724: 	int   count=0;

  00009	c7 45 f8 00 00
	00 00		 mov	 DWORD PTR _count$[ebp], 0

; 16725: 	int   n;
; 16726: 
; 16727: #if (TESTSERVER==1)
; 16728: 	#if (LOCALCONNECT==1)
; 16729: 		return TRUE;
; 16730: 	#endif
; 16731: #endif
; 16732: 
; 16733: 	if(gItemSerialCheck==FALSE) return TRUE;

  00010	83 3d 00 00 00
	00 00		 cmp	 DWORD PTR ?gItemSerialCheck@@3HA, 0 ; gItemSerialCheck
  00017	75 0a		 jne	 SHORT $LN8@gObjWareho
  00019	b8 01 00 00 00	 mov	 eax, 1
  0001e	e9 27 01 00 00	 jmp	 $LN1@gObjWareho
$LN8@gObjWareho:

; 16734: 
; 16735: 	if( sirial == 0 ) return TRUE;

  00023	83 7d 0c 00	 cmp	 DWORD PTR _sirial$[ebp], 0
  00027	75 0a		 jne	 SHORT $LN9@gObjWareho
  00029	b8 01 00 00 00	 mov	 eax, 1
  0002e	e9 17 01 00 00	 jmp	 $LN1@gObjWareho
$LN9@gObjWareho:

; 16736: 
; 16737: 	for( n=0; n<MAX_WAREHOUSEITEMS; n++)

  00033	c7 45 f4 00 00
	00 00		 mov	 DWORD PTR _n$[ebp], 0
  0003a	eb 09		 jmp	 SHORT $LN4@gObjWareho
$LN2@gObjWareho:
  0003c	8b 45 f4	 mov	 eax, DWORD PTR _n$[ebp]
  0003f	83 c0 01	 add	 eax, 1
  00042	89 45 f4	 mov	 DWORD PTR _n$[ebp], eax
$LN4@gObjWareho:
  00045	83 7d f4 78	 cmp	 DWORD PTR _n$[ebp], 120	; 00000078H
  00049	7d 31		 jge	 SHORT $LN3@gObjWareho

; 16738: 	{
; 16739: 		s_num = lpObj->pWarehouse[n].GetNumber();

  0004b	69 4d f4 a8 00
	00 00		 imul	 ecx, DWORD PTR _n$[ebp], 168
  00052	8b 45 08	 mov	 eax, DWORD PTR _lpObj$[ebp]
  00055	03 88 94 0c 00
	00		 add	 ecx, DWORD PTR [eax+3220]
  0005b	e8 00 00 00 00	 call	 ?GetNumber@CItem@@QAEKXZ ; CItem::GetNumber
  00060	89 45 fc	 mov	 DWORD PTR _s_num$[ebp], eax

; 16740: 
; 16741: 		if( s_num != 0 && s_num == sirial )	// 0      

  00063	83 7d fc 00	 cmp	 DWORD PTR _s_num$[ebp], 0
  00067	74 11		 je	 SHORT $LN10@gObjWareho
  00069	8b 45 fc	 mov	 eax, DWORD PTR _s_num$[ebp]
  0006c	3b 45 0c	 cmp	 eax, DWORD PTR _sirial$[ebp]
  0006f	75 09		 jne	 SHORT $LN10@gObjWareho

; 16742: 		{			
; 16743: 			count++;

  00071	8b 45 f8	 mov	 eax, DWORD PTR _count$[ebp]
  00074	83 c0 01	 add	 eax, 1
  00077	89 45 f8	 mov	 DWORD PTR _count$[ebp], eax
$LN10@gObjWareho:

; 16744: 		}
; 16745: 	}

  0007a	eb c0		 jmp	 SHORT $LN2@gObjWareho
$LN3@gObjWareho:

; 16746: 	
; 16747: 	if( count <= 1 ) return TRUE;

  0007c	83 7d f8 01	 cmp	 DWORD PTR _count$[ebp], 1
  00080	7f 0a		 jg	 SHORT $LN11@gObjWareho
  00082	b8 01 00 00 00	 mov	 eax, 1
  00087	e9 be 00 00 00	 jmp	 $LN1@gObjWareho
$LN11@gObjWareho:

; 16748: 	
; 16749: 	for( n=0; n<MAX_WAREHOUSEITEMS; n++)

  0008c	c7 45 f4 00 00
	00 00		 mov	 DWORD PTR _n$[ebp], 0
  00093	eb 09		 jmp	 SHORT $LN7@gObjWareho
$LN5@gObjWareho:
  00095	8b 45 f4	 mov	 eax, DWORD PTR _n$[ebp]
  00098	83 c0 01	 add	 eax, 1
  0009b	89 45 f4	 mov	 DWORD PTR _n$[ebp], eax
$LN7@gObjWareho:
  0009e	83 7d f4 78	 cmp	 DWORD PTR _n$[ebp], 120	; 00000078H
  000a2	0f 8d a0 00 00
	00		 jge	 $LN6@gObjWareho

; 16750: 	{
; 16751: 		s_num = lpObj->pWarehouse[n].GetNumber();

  000a8	69 4d f4 a8 00
	00 00		 imul	 ecx, DWORD PTR _n$[ebp], 168
  000af	8b 45 08	 mov	 eax, DWORD PTR _lpObj$[ebp]
  000b2	03 88 94 0c 00
	00		 add	 ecx, DWORD PTR [eax+3220]
  000b8	e8 00 00 00 00	 call	 ?GetNumber@CItem@@QAEKXZ ; CItem::GetNumber
  000bd	89 45 fc	 mov	 DWORD PTR _s_num$[ebp], eax

; 16752: 		if( s_num != 0 && s_num == sirial )	// 0      

  000c0	83 7d fc 00	 cmp	 DWORD PTR _s_num$[ebp], 0
  000c4	74 7d		 je	 SHORT $LN12@gObjWareho
  000c6	8b 45 fc	 mov	 eax, DWORD PTR _s_num$[ebp]
  000c9	3b 45 0c	 cmp	 eax, DWORD PTR _sirial$[ebp]
  000cc	75 75		 jne	 SHORT $LN12@gObjWareho

; 16753: 		{
; 16754: 			LogAddTD(lMsg.Get(530), lpObj->AccountID, lpObj->Name, lpObj->pWarehouse[n].GetName(), n, s_num);

  000ce	8b 45 fc	 mov	 eax, DWORD PTR _s_num$[ebp]
  000d1	50		 push	 eax
  000d2	8b 4d f4	 mov	 ecx, DWORD PTR _n$[ebp]
  000d5	51		 push	 ecx
  000d6	69 4d f4 a8 00
	00 00		 imul	 ecx, DWORD PTR _n$[ebp], 168
  000dd	8b 55 08	 mov	 edx, DWORD PTR _lpObj$[ebp]
  000e0	03 8a 94 0c 00
	00		 add	 ecx, DWORD PTR [edx+3220]
  000e6	e8 00 00 00 00	 call	 ?GetName@CItem@@QAEPADXZ ; CItem::GetName
  000eb	50		 push	 eax
  000ec	8b 45 08	 mov	 eax, DWORD PTR _lpObj$[ebp]
  000ef	83 c0 73	 add	 eax, 115		; 00000073H
  000f2	50		 push	 eax
  000f3	8b 4d 08	 mov	 ecx, DWORD PTR _lpObj$[ebp]
  000f6	83 c1 68	 add	 ecx, 104		; 00000068H
  000f9	51		 push	 ecx
  000fa	68 12 02 00 00	 push	 530			; 00000212H
  000ff	b9 00 00 00 00	 mov	 ecx, OFFSET ?lMsg@@3VCMsg@@A ; lMsg
  00104	ff 15 00 00 00
	00		 call	 DWORD PTR __imp_?Get@CMsg@@QAEPADH@Z
  0010a	50		 push	 eax
  0010b	ff 15 00 00 00
	00		 call	 DWORD PTR ?LogAddTD@@3P6AXPADZZA ; LogAddTD
  00111	83 c4 18	 add	 esp, 24			; 00000018H

; 16755: //			LogAddC(LOGC_RED, lMsg.Get(530), lpObj->AccountID, lpObj->Name, lpObj->pWarehouse[n].GetName(), n, s_num);
; 16756: 			GCServerMsgStringSend(lMsg.Get(1102), lpObj->m_Index, 1);

  00114	6a 01		 push	 1
  00116	8b 45 08	 mov	 eax, DWORD PTR _lpObj$[ebp]
  00119	8b 08		 mov	 ecx, DWORD PTR [eax]
  0011b	51		 push	 ecx
  0011c	68 4e 04 00 00	 push	 1102			; 0000044eH
  00121	b9 00 00 00 00	 mov	 ecx, OFFSET ?lMsg@@3VCMsg@@A ; lMsg
  00126	ff 15 00 00 00
	00		 call	 DWORD PTR __imp_?Get@CMsg@@QAEPADH@Z
  0012c	50		 push	 eax
  0012d	e8 00 00 00 00	 call	 ?GCServerMsgStringSend@@YAXPADHE@Z ; GCServerMsgStringSend
  00132	83 c4 0c	 add	 esp, 12			; 0000000cH

; 16757: 			gObjUserKill(lpObj->m_Index);

  00135	8b 45 08	 mov	 eax, DWORD PTR _lpObj$[ebp]
  00138	8b 08		 mov	 ecx, DWORD PTR [eax]
  0013a	51		 push	 ecx
  0013b	e8 00 00 00 00	 call	 ?gObjUserKill@@YAXH@Z	; gObjUserKill
  00140	83 c4 04	 add	 esp, 4
$LN12@gObjWareho:

; 16758: 			//gObjInventoryDeleteItem(lpObj->m_Index, n);
; 16759: 			/*ItemMovePathSave(lpObj->AccountID, lpObj->Name, lpObj->pInventory[n].m_Level, lpObj->MapNumber, 
; 16760: 						lpObj->X, lpObj->Y, lpObj->pInventory[n].GetName(), 
; 16761: 						lpObj->pInventory[n].m_Option1, 
; 16762: 						lpObj->pInventory[n].m_Option2,
; 16763: 						lpObj->pInventory[n].m_Option3, 
; 16764: 						lpObj->pInventory[n].m_sirial);*/
; 16765: 		}
; 16766: 	}

  00143	e9 4d ff ff ff	 jmp	 $LN5@gObjWareho
$LN6@gObjWareho:

; 16767: 	return FALSE;

  00148	33 c0		 xor	 eax, eax
$LN1@gObjWareho:

; 16768: }

  0014a	5f		 pop	 edi
  0014b	5e		 pop	 esi
  0014c	5b		 pop	 ebx
  0014d	8b e5		 mov	 esp, ebp
  0014f	5d		 pop	 ebp
  00150	c3		 ret	 0
?gObjWarehouseSearchSerialNumber@@YAHPAVOBJECTSTRUCT@@K@Z ENDP ; gObjWarehouseSearchSerialNumber
_TEXT	ENDS
; Function compile flags: /Odtp /ZI
; File C:\Mu Online\Mu-GS-Webzen-MC-10093\GameServer\user.cpp
;	COMDAT ?gObjChaosItemBoxSet@@YAXHHHHE@Z
_TEXT	SEGMENT
_x$1 = -24						; size = 4
_y$2 = -20						; size = 4
_yy$ = -16						; size = 4
_xx$ = -12						; size = 4
_itemposy$ = -8						; size = 4
_itemposx$ = -4						; size = 4
_aIndex$ = 8						; size = 4
_itempos$ = 12						; size = 4
_xl$ = 16						; size = 4
_yl$ = 20						; size = 4
_set_byte$ = 24						; size = 1
?gObjChaosItemBoxSet@@YAXHHHHE@Z PROC			; gObjChaosItemBoxSet, COMDAT

; 16336: {

  00000	55		 push	 ebp
  00001	8b ec		 mov	 ebp, esp
  00003	83 ec 58	 sub	 esp, 88			; 00000058H
  00006	53		 push	 ebx
  00007	56		 push	 esi
  00008	57		 push	 edi

; 16337: 	int itemposx, itemposy;
; 16338: 	int xx, yy;
; 16339: 
; 16340: 	itemposx = itempos%8;

  00009	8b 45 0c	 mov	 eax, DWORD PTR _itempos$[ebp]
  0000c	25 07 00 00 80	 and	 eax, -2147483641	; 80000007H
  00011	79 05		 jns	 SHORT $LN11@gObjChaosI
  00013	48		 dec	 eax
  00014	83 c8 f8	 or	 eax, -8			; fffffff8H
  00017	40		 inc	 eax
$LN11@gObjChaosI:
  00018	89 45 fc	 mov	 DWORD PTR _itemposx$[ebp], eax

; 16341: 	itemposy = itempos/8;

  0001b	8b 45 0c	 mov	 eax, DWORD PTR _itempos$[ebp]
  0001e	99		 cdq
  0001f	83 e2 07	 and	 edx, 7
  00022	03 c2		 add	 eax, edx
  00024	c1 f8 03	 sar	 eax, 3
  00027	89 45 f8	 mov	 DWORD PTR _itemposy$[ebp], eax

; 16342: 
; 16343: 	for( int y=0; y<yl; y++)

  0002a	c7 45 ec 00 00
	00 00		 mov	 DWORD PTR _y$2[ebp], 0
  00031	eb 09		 jmp	 SHORT $LN4@gObjChaosI
$LN2@gObjChaosI:
  00033	8b 45 ec	 mov	 eax, DWORD PTR _y$2[ebp]
  00036	83 c0 01	 add	 eax, 1
  00039	89 45 ec	 mov	 DWORD PTR _y$2[ebp], eax
$LN4@gObjChaosI:
  0003c	8b 45 ec	 mov	 eax, DWORD PTR _y$2[ebp]
  0003f	3b 45 14	 cmp	 eax, DWORD PTR _yl$[ebp]
  00042	0f 8d a0 00 00
	00		 jge	 $LN1@gObjChaosI

; 16344: 	{
; 16345: 		yy = itemposy+y;

  00048	8b 45 f8	 mov	 eax, DWORD PTR _itemposy$[ebp]
  0004b	03 45 ec	 add	 eax, DWORD PTR _y$2[ebp]
  0004e	89 45 f0	 mov	 DWORD PTR _yy$[ebp], eax

; 16346: 		for( int x=0; x<xl; x++)

  00051	c7 45 e8 00 00
	00 00		 mov	 DWORD PTR _x$1[ebp], 0
  00058	eb 09		 jmp	 SHORT $LN7@gObjChaosI
$LN5@gObjChaosI:
  0005a	8b 45 e8	 mov	 eax, DWORD PTR _x$1[ebp]
  0005d	83 c0 01	 add	 eax, 1
  00060	89 45 e8	 mov	 DWORD PTR _x$1[ebp], eax
$LN7@gObjChaosI:
  00063	8b 45 e8	 mov	 eax, DWORD PTR _x$1[ebp]
  00066	3b 45 10	 cmp	 eax, DWORD PTR _xl$[ebp]
  00069	7d 78		 jge	 SHORT $LN6@gObjChaosI

; 16347: 		{
; 16348: 			xx = itemposx+x;

  0006b	8b 45 fc	 mov	 eax, DWORD PTR _itemposx$[ebp]
  0006e	03 45 e8	 add	 eax, DWORD PTR _x$1[ebp]
  00071	89 45 f4	 mov	 DWORD PTR _xx$[ebp], eax

; 16349: 			if( ExtentCheck(xx, yy, 8, 4) == TRUE )

  00074	6a 04		 push	 4
  00076	6a 08		 push	 8
  00078	8b 45 f0	 mov	 eax, DWORD PTR _yy$[ebp]
  0007b	50		 push	 eax
  0007c	8b 4d f4	 mov	 ecx, DWORD PTR _xx$[ebp]
  0007f	51		 push	 ecx
  00080	e8 00 00 00 00	 call	 ?ExtentCheck@@YAHHHHH@Z	; ExtentCheck
  00085	83 c4 10	 add	 esp, 16			; 00000010H
  00088	83 f8 01	 cmp	 eax, 1
  0008b	75 2b		 jne	 SHORT $LN8@gObjChaosI

; 16350: 			{
; 16351: 				*(gObj[aIndex].pChaosBoxMap+((itemposy+y)*8)+(itemposx+x)) = set_byte;

  0008d	69 45 08 a0 1b
	00 00		 imul	 eax, DWORD PTR _aIndex$[ebp], 7072
  00094	8b 4d f8	 mov	 ecx, DWORD PTR _itemposy$[ebp]
  00097	03 4d ec	 add	 ecx, DWORD PTR _y$2[ebp]
  0009a	8b 15 00 00 00
	00		 mov	 edx, DWORD PTR ?gObj@@3PAVOBJECTSTRUCT@@A ; gObj
  000a0	8b 84 02 b0 0c
	00 00		 mov	 eax, DWORD PTR [edx+eax+3248]
  000a7	8d 0c c8	 lea	 ecx, DWORD PTR [eax+ecx*8]
  000aa	8b 55 fc	 mov	 edx, DWORD PTR _itemposx$[ebp]
  000ad	03 55 e8	 add	 edx, DWORD PTR _x$1[ebp]
  000b0	8a 45 18	 mov	 al, BYTE PTR _set_byte$[ebp]
  000b3	88 04 11	 mov	 BYTE PTR [ecx+edx], al

; 16352: 			}

  000b6	eb 26		 jmp	 SHORT $LN9@gObjChaosI
$LN8@gObjChaosI:

; 16353: 			else {
; 16354: 				LogAdd("error : %d/%d  %s %d",xx,yy,__FILE__, __LINE__);

  000b8	a1 00 00 00 00	 mov	 eax, DWORD PTR ?__LINE__Var@?0??gObjChaosItemBoxSet@@YAXHHHHE@Z@4JA
  000bd	83 c0 12	 add	 eax, 18			; 00000012H
  000c0	50		 push	 eax
  000c1	68 00 00 00 00	 push	 OFFSET ??_C@_0DH@BCNNLIDP@C?3?2Mu?5Online?2Mu?9GS?9Webzen?9MC?910@
  000c6	8b 4d f0	 mov	 ecx, DWORD PTR _yy$[ebp]
  000c9	51		 push	 ecx
  000ca	8b 55 f4	 mov	 edx, DWORD PTR _xx$[ebp]
  000cd	52		 push	 edx
  000ce	68 00 00 00 00	 push	 OFFSET ??_C@_0BF@PBCPKOJP@error?5?3?5?$CFd?1?$CFd?5?5?$CFs?5?$CFd@
  000d3	ff 15 00 00 00
	00		 call	 DWORD PTR ?LogAdd@@3P6AXPADZZA ; LogAdd
  000d9	83 c4 14	 add	 esp, 20			; 00000014H

; 16355: 				return;

  000dc	eb 0a		 jmp	 SHORT $LN1@gObjChaosI
$LN9@gObjChaosI:

; 16356: 			}
; 16357: 		}

  000de	e9 77 ff ff ff	 jmp	 $LN5@gObjChaosI
$LN6@gObjChaosI:

; 16358: 	}

  000e3	e9 4b ff ff ff	 jmp	 $LN2@gObjChaosI
$LN1@gObjChaosI:

; 16359: }

  000e8	5f		 pop	 edi
  000e9	5e		 pop	 esi
  000ea	5b		 pop	 ebx
  000eb	8b e5		 mov	 esp, ebp
  000ed	5d		 pop	 ebp
  000ee	c3		 ret	 0
?gObjChaosItemBoxSet@@YAXHHHHE@Z ENDP			; gObjChaosItemBoxSet
_TEXT	ENDS
; Function compile flags: /Odtp /ZI
; File C:\Mu Online\Mu-GS-Webzen-MC-10093\GameServer\user.cpp
;	COMDAT ?gObjWarehouseItemBoxSet@@YAXHHHHE@Z
_TEXT	SEGMENT
_x$1 = -24						; size = 4
_y$2 = -20						; size = 4
_yy$ = -16						; size = 4
_xx$ = -12						; size = 4
_itemposy$ = -8						; size = 4
_itemposx$ = -4						; size = 4
_aIndex$ = 8						; size = 4
_itempos$ = 12						; size = 4
_xl$ = 16						; size = 4
_yl$ = 20						; size = 4
_set_byte$ = 24						; size = 1
?gObjWarehouseItemBoxSet@@YAXHHHHE@Z PROC		; gObjWarehouseItemBoxSet, COMDAT

; 16291: {

  00000	55		 push	 ebp
  00001	8b ec		 mov	 ebp, esp
  00003	83 ec 58	 sub	 esp, 88			; 00000058H
  00006	53		 push	 ebx
  00007	56		 push	 esi
  00008	57		 push	 edi

; 16292: 	int itemposx, itemposy;
; 16293: 	int xx, yy;
; 16294: 
; 16295: 	itemposx = itempos%8;

  00009	8b 45 0c	 mov	 eax, DWORD PTR _itempos$[ebp]
  0000c	25 07 00 00 80	 and	 eax, -2147483641	; 80000007H
  00011	79 05		 jns	 SHORT $LN11@gObjWareho
  00013	48		 dec	 eax
  00014	83 c8 f8	 or	 eax, -8			; fffffff8H
  00017	40		 inc	 eax
$LN11@gObjWareho:
  00018	89 45 fc	 mov	 DWORD PTR _itemposx$[ebp], eax

; 16296: 	itemposy = itempos/8;

  0001b	8b 45 0c	 mov	 eax, DWORD PTR _itempos$[ebp]
  0001e	99		 cdq
  0001f	83 e2 07	 and	 edx, 7
  00022	03 c2		 add	 eax, edx
  00024	c1 f8 03	 sar	 eax, 3
  00027	89 45 f8	 mov	 DWORD PTR _itemposy$[ebp], eax

; 16297: 
; 16298: 	for( int y=0; y<yl; y++)

  0002a	c7 45 ec 00 00
	00 00		 mov	 DWORD PTR _y$2[ebp], 0
  00031	eb 09		 jmp	 SHORT $LN4@gObjWareho
$LN2@gObjWareho:
  00033	8b 45 ec	 mov	 eax, DWORD PTR _y$2[ebp]
  00036	83 c0 01	 add	 eax, 1
  00039	89 45 ec	 mov	 DWORD PTR _y$2[ebp], eax
$LN4@gObjWareho:
  0003c	8b 45 ec	 mov	 eax, DWORD PTR _y$2[ebp]
  0003f	3b 45 14	 cmp	 eax, DWORD PTR _yl$[ebp]
  00042	0f 8d a0 00 00
	00		 jge	 $LN1@gObjWareho

; 16299: 	{
; 16300: 		yy = itemposy+y;

  00048	8b 45 f8	 mov	 eax, DWORD PTR _itemposy$[ebp]
  0004b	03 45 ec	 add	 eax, DWORD PTR _y$2[ebp]
  0004e	89 45 f0	 mov	 DWORD PTR _yy$[ebp], eax

; 16301: 		for( int x=0; x<xl; x++)

  00051	c7 45 e8 00 00
	00 00		 mov	 DWORD PTR _x$1[ebp], 0
  00058	eb 09		 jmp	 SHORT $LN7@gObjWareho
$LN5@gObjWareho:
  0005a	8b 45 e8	 mov	 eax, DWORD PTR _x$1[ebp]
  0005d	83 c0 01	 add	 eax, 1
  00060	89 45 e8	 mov	 DWORD PTR _x$1[ebp], eax
$LN7@gObjWareho:
  00063	8b 45 e8	 mov	 eax, DWORD PTR _x$1[ebp]
  00066	3b 45 10	 cmp	 eax, DWORD PTR _xl$[ebp]
  00069	7d 78		 jge	 SHORT $LN6@gObjWareho

; 16302: 		{
; 16303: 			xx = itemposx+x;

  0006b	8b 45 fc	 mov	 eax, DWORD PTR _itemposx$[ebp]
  0006e	03 45 e8	 add	 eax, DWORD PTR _x$1[ebp]
  00071	89 45 f4	 mov	 DWORD PTR _xx$[ebp], eax

; 16304: 			if( ExtentCheck(xx, yy, 8, 15) == TRUE )

  00074	6a 0f		 push	 15			; 0000000fH
  00076	6a 08		 push	 8
  00078	8b 45 f0	 mov	 eax, DWORD PTR _yy$[ebp]
  0007b	50		 push	 eax
  0007c	8b 4d f4	 mov	 ecx, DWORD PTR _xx$[ebp]
  0007f	51		 push	 ecx
  00080	e8 00 00 00 00	 call	 ?ExtentCheck@@YAHHHHH@Z	; ExtentCheck
  00085	83 c4 10	 add	 esp, 16			; 00000010H
  00088	83 f8 01	 cmp	 eax, 1
  0008b	75 2b		 jne	 SHORT $LN8@gObjWareho

; 16305: 			{
; 16306: 				*(gObj[aIndex].pWarehouseMap+((itemposy+y)*8)+(itemposx+x)) = set_byte;

  0008d	69 45 08 a0 1b
	00 00		 imul	 eax, DWORD PTR _aIndex$[ebp], 7072
  00094	8b 4d f8	 mov	 ecx, DWORD PTR _itemposy$[ebp]
  00097	03 4d ec	 add	 ecx, DWORD PTR _y$2[ebp]
  0009a	8b 15 00 00 00
	00		 mov	 edx, DWORD PTR ?gObj@@3PAVOBJECTSTRUCT@@A ; gObj
  000a0	8b 84 02 98 0c
	00 00		 mov	 eax, DWORD PTR [edx+eax+3224]
  000a7	8d 0c c8	 lea	 ecx, DWORD PTR [eax+ecx*8]
  000aa	8b 55 fc	 mov	 edx, DWORD PTR _itemposx$[ebp]
  000ad	03 55 e8	 add	 edx, DWORD PTR _x$1[ebp]
  000b0	8a 45 18	 mov	 al, BYTE PTR _set_byte$[ebp]
  000b3	88 04 11	 mov	 BYTE PTR [ecx+edx], al

; 16307: 			}

  000b6	eb 26		 jmp	 SHORT $LN9@gObjWareho
$LN8@gObjWareho:

; 16308: 			else {
; 16309: 				LogAdd("error : %d/%d  %s %d",xx,yy,__FILE__, __LINE__);

  000b8	a1 00 00 00 00	 mov	 eax, DWORD PTR ?__LINE__Var@?0??gObjWarehouseItemBoxSet@@YAXHHHHE@Z@4JA
  000bd	83 c0 12	 add	 eax, 18			; 00000012H
  000c0	50		 push	 eax
  000c1	68 00 00 00 00	 push	 OFFSET ??_C@_0DH@BCNNLIDP@C?3?2Mu?5Online?2Mu?9GS?9Webzen?9MC?910@
  000c6	8b 4d f0	 mov	 ecx, DWORD PTR _yy$[ebp]
  000c9	51		 push	 ecx
  000ca	8b 55 f4	 mov	 edx, DWORD PTR _xx$[ebp]
  000cd	52		 push	 edx
  000ce	68 00 00 00 00	 push	 OFFSET ??_C@_0BF@PBCPKOJP@error?5?3?5?$CFd?1?$CFd?5?5?$CFs?5?$CFd@
  000d3	ff 15 00 00 00
	00		 call	 DWORD PTR ?LogAdd@@3P6AXPADZZA ; LogAdd
  000d9	83 c4 14	 add	 esp, 20			; 00000014H

; 16310: 				return;

  000dc	eb 0a		 jmp	 SHORT $LN1@gObjWareho
$LN9@gObjWareho:

; 16311: 			}
; 16312: 		}

  000de	e9 77 ff ff ff	 jmp	 $LN5@gObjWareho
$LN6@gObjWareho:

; 16313: 	}

  000e3	e9 4b ff ff ff	 jmp	 $LN2@gObjWareho
$LN1@gObjWareho:

; 16314: }

  000e8	5f		 pop	 edi
  000e9	5e		 pop	 esi
  000ea	5b		 pop	 ebx
  000eb	8b e5		 mov	 esp, ebp
  000ed	5d		 pop	 ebp
  000ee	c3		 ret	 0
?gObjWarehouseItemBoxSet@@YAXHHHHE@Z ENDP		; gObjWarehouseItemBoxSet
_TEXT	ENDS
; Function compile flags: /Odtp /ZI
; File C:\Mu Online\Mu-GS-Webzen-MC-10093\GameServer\user.cpp
;	COMDAT ?gObjMapRectCheck@@YAEPAEHHHHHH@Z
_TEXT	SEGMENT
_yy$ = -20						; size = 4
_xx$ = -16						; size = 4
_blank$ = -12						; size = 4
_y$ = -8						; size = 4
_x$ = -4						; size = 4
_lpMapBuf$ = 8						; size = 4
_sx$ = 12						; size = 4
_sy$ = 16						; size = 4
_ex$ = 20						; size = 4
_ey$ = 24						; size = 4
_width$ = 28						; size = 4
_height$ = 32						; size = 4
?gObjMapRectCheck@@YAEPAEHHHHHH@Z PROC			; gObjMapRectCheck, COMDAT

; 16252: {

  00000	55		 push	 ebp
  00001	8b ec		 mov	 ebp, esp
  00003	83 ec 54	 sub	 esp, 84			; 00000054H
  00006	53		 push	 ebx
  00007	56		 push	 esi
  00008	57		 push	 edi

; 16253: 	int x, y;
; 16254: 	int blank = 0;

  00009	c7 45 f4 00 00
	00 00		 mov	 DWORD PTR _blank$[ebp], 0

; 16255: 	
; 16256: 	//     
; 16257: 	if( ((sx+width) > ex) || ((sx+width) < 0)) return (BYTE)0xFF;

  00010	8b 45 0c	 mov	 eax, DWORD PTR _sx$[ebp]
  00013	03 45 1c	 add	 eax, DWORD PTR _width$[ebp]
  00016	3b 45 14	 cmp	 eax, DWORD PTR _ex$[ebp]
  00019	7f 08		 jg	 SHORT $LN9@gObjMapRec
  0001b	8b 45 0c	 mov	 eax, DWORD PTR _sx$[ebp]
  0001e	03 45 1c	 add	 eax, DWORD PTR _width$[ebp]
  00021	79 07		 jns	 SHORT $LN8@gObjMapRec
$LN9@gObjMapRec:
  00023	0c ff		 or	 al, 255			; 000000ffH
  00025	e9 ed 00 00 00	 jmp	 $LN1@gObjMapRec
$LN8@gObjMapRec:

; 16258: 	if( ((sy+height) > ey) || ((sy+height) < 0)) return (BYTE)0xFF;

  0002a	8b 45 10	 mov	 eax, DWORD PTR _sy$[ebp]
  0002d	03 45 20	 add	 eax, DWORD PTR _height$[ebp]
  00030	3b 45 18	 cmp	 eax, DWORD PTR _ey$[ebp]
  00033	7f 08		 jg	 SHORT $LN11@gObjMapRec
  00035	8b 45 10	 mov	 eax, DWORD PTR _sy$[ebp]
  00038	03 45 20	 add	 eax, DWORD PTR _height$[ebp]
  0003b	79 07		 jns	 SHORT $LN10@gObjMapRec
$LN11@gObjMapRec:
  0003d	0c ff		 or	 al, 255			; 000000ffH
  0003f	e9 d3 00 00 00	 jmp	 $LN1@gObjMapRec
$LN10@gObjMapRec:

; 16259: 	
; 16260: 	int xx, yy;
; 16261: 	
; 16262: 	for( y=0; y<height; y++)

  00044	c7 45 f8 00 00
	00 00		 mov	 DWORD PTR _y$[ebp], 0
  0004b	eb 09		 jmp	 SHORT $LN4@gObjMapRec
$LN2@gObjMapRec:
  0004d	8b 45 f8	 mov	 eax, DWORD PTR _y$[ebp]
  00050	83 c0 01	 add	 eax, 1
  00053	89 45 f8	 mov	 DWORD PTR _y$[ebp], eax
$LN4@gObjMapRec:
  00056	8b 45 f8	 mov	 eax, DWORD PTR _y$[ebp]
  00059	3b 45 20	 cmp	 eax, DWORD PTR _height$[ebp]
  0005c	0f 8d a1 00 00
	00		 jge	 $LN3@gObjMapRec

; 16263: 	{		
; 16264: 		yy = sy+y;

  00062	8b 45 10	 mov	 eax, DWORD PTR _sy$[ebp]
  00065	03 45 f8	 add	 eax, DWORD PTR _y$[ebp]
  00068	89 45 ec	 mov	 DWORD PTR _yy$[ebp], eax

; 16265: 		for(x=0; x<width; x++)

  0006b	c7 45 fc 00 00
	00 00		 mov	 DWORD PTR _x$[ebp], 0
  00072	eb 09		 jmp	 SHORT $LN7@gObjMapRec
$LN5@gObjMapRec:
  00074	8b 45 fc	 mov	 eax, DWORD PTR _x$[ebp]
  00077	83 c0 01	 add	 eax, 1
  0007a	89 45 fc	 mov	 DWORD PTR _x$[ebp], eax
$LN7@gObjMapRec:
  0007d	8b 45 fc	 mov	 eax, DWORD PTR _x$[ebp]
  00080	3b 45 1c	 cmp	 eax, DWORD PTR _width$[ebp]
  00083	7d 79		 jge	 SHORT $LN6@gObjMapRec

; 16266: 		{
; 16267: 			xx = sx+x;

  00085	8b 45 0c	 mov	 eax, DWORD PTR _sx$[ebp]
  00088	03 45 fc	 add	 eax, DWORD PTR _x$[ebp]
  0008b	89 45 f0	 mov	 DWORD PTR _xx$[ebp], eax

; 16268: 			if( ExtentCheck(xx, yy, ex, ey) == TRUE )

  0008e	8b 45 18	 mov	 eax, DWORD PTR _ey$[ebp]
  00091	50		 push	 eax
  00092	8b 4d 14	 mov	 ecx, DWORD PTR _ex$[ebp]
  00095	51		 push	 ecx
  00096	8b 55 ec	 mov	 edx, DWORD PTR _yy$[ebp]
  00099	52		 push	 edx
  0009a	8b 45 f0	 mov	 eax, DWORD PTR _xx$[ebp]
  0009d	50		 push	 eax
  0009e	e8 00 00 00 00	 call	 ?ExtentCheck@@YAHHHHH@Z	; ExtentCheck
  000a3	83 c4 10	 add	 esp, 16			; 00000010H
  000a6	83 f8 01	 cmp	 eax, 1
  000a9	75 2e		 jne	 SHORT $LN12@gObjMapRec

; 16269: 			{
; 16270: 				if( *(lpMapBuf+((sy+y)*ex)+(sx+x)) != 0xFF ) 

  000ab	8b 45 10	 mov	 eax, DWORD PTR _sy$[ebp]
  000ae	03 45 f8	 add	 eax, DWORD PTR _y$[ebp]
  000b1	0f af 45 14	 imul	 eax, DWORD PTR _ex$[ebp]
  000b5	03 45 08	 add	 eax, DWORD PTR _lpMapBuf$[ebp]
  000b8	8b 4d 0c	 mov	 ecx, DWORD PTR _sx$[ebp]
  000bb	03 4d fc	 add	 ecx, DWORD PTR _x$[ebp]
  000be	0f b6 14 08	 movzx	 edx, BYTE PTR [eax+ecx]
  000c2	81 fa ff 00 00
	00		 cmp	 edx, 255		; 000000ffH
  000c8	74 0d		 je	 SHORT $LN14@gObjMapRec

; 16271: 				{
; 16272: 					blank++;

  000ca	8b 45 f4	 mov	 eax, DWORD PTR _blank$[ebp]
  000cd	83 c0 01	 add	 eax, 1
  000d0	89 45 f4	 mov	 DWORD PTR _blank$[ebp], eax

; 16273: 					return (BYTE)0xFF;

  000d3	0c ff		 or	 al, 255			; 000000ffH
  000d5	eb 40		 jmp	 SHORT $LN1@gObjMapRec
$LN14@gObjMapRec:

; 16274: 				}
; 16275: 			}

  000d7	eb 20		 jmp	 SHORT $LN13@gObjMapRec
$LN12@gObjMapRec:

; 16276: 			else 
; 16277: 			{
; 16278: 				LogAdd("error : %s %d",__FILE__, __LINE__);

  000d9	a1 00 00 00 00	 mov	 eax, DWORD PTR ?__LINE__Var@?0??gObjMapRectCheck@@YAEPAEHHHHHH@Z@4JA
  000de	83 c0 1a	 add	 eax, 26			; 0000001aH
  000e1	50		 push	 eax
  000e2	68 00 00 00 00	 push	 OFFSET ??_C@_0DH@BCNNLIDP@C?3?2Mu?5Online?2Mu?9GS?9Webzen?9MC?910@
  000e7	68 00 00 00 00	 push	 OFFSET ??_C@_0O@CKAEPJAF@error?5?3?5?$CFs?5?$CFd@
  000ec	ff 15 00 00 00
	00		 call	 DWORD PTR ?LogAdd@@3P6AXPADZZA ; LogAdd
  000f2	83 c4 0c	 add	 esp, 12			; 0000000cH

; 16279: 				return (BYTE)0xFF;

  000f5	0c ff		 or	 al, 255			; 000000ffH
  000f7	eb 1e		 jmp	 SHORT $LN1@gObjMapRec
$LN13@gObjMapRec:

; 16280: 			}
; 16281: 		}

  000f9	e9 76 ff ff ff	 jmp	 $LN5@gObjMapRec
$LN6@gObjMapRec:

; 16282: 	}

  000fe	e9 4a ff ff ff	 jmp	 $LN2@gObjMapRec
$LN3@gObjMapRec:

; 16283: 
; 16284: 	if( blank == 0 ) return (BYTE)(((sy*ex)+sx));

  00103	83 7d f4 00	 cmp	 DWORD PTR _blank$[ebp], 0
  00107	75 0c		 jne	 SHORT $LN15@gObjMapRec
  00109	8b 45 10	 mov	 eax, DWORD PTR _sy$[ebp]
  0010c	0f af 45 14	 imul	 eax, DWORD PTR _ex$[ebp]
  00110	03 45 0c	 add	 eax, DWORD PTR _sx$[ebp]
  00113	eb 02		 jmp	 SHORT $LN1@gObjMapRec
$LN15@gObjMapRec:

; 16285: 
; 16286: 	return (BYTE)0xFF;

  00115	0c ff		 or	 al, 255			; 000000ffH
$LN1@gObjMapRec:

; 16287: }

  00117	5f		 pop	 edi
  00118	5e		 pop	 esi
  00119	5b		 pop	 ebx
  0011a	8b e5		 mov	 esp, ebp
  0011c	5d		 pop	 ebp
  0011d	c3		 ret	 0
?gObjMapRectCheck@@YAEPAEHHHHHH@Z ENDP			; gObjMapRectCheck
_TEXT	ENDS
; Function compile flags: /Odtp /ZI
; File C:\Mu Online\Mu-GS-Webzen-MC-10093\GameServer\user.cpp
;	COMDAT ?gObjWerehouseRectCheck@@YAEHHHHH@Z
_TEXT	SEGMENT
_lpObj$ = -24						; size = 4
_yy$ = -20						; size = 4
_xx$ = -16						; size = 4
_blank$ = -12						; size = 4
_y$ = -8						; size = 4
_x$ = -4						; size = 4
_aIndex$ = 8						; size = 4
_sx$ = 12						; size = 4
_sy$ = 16						; size = 4
_width$ = 20						; size = 4
_height$ = 24						; size = 4
?gObjWerehouseRectCheck@@YAEHHHHH@Z PROC		; gObjWerehouseRectCheck, COMDAT

; 16209: {

  00000	55		 push	 ebp
  00001	8b ec		 mov	 ebp, esp
  00003	83 ec 58	 sub	 esp, 88			; 00000058H
  00006	53		 push	 ebx
  00007	56		 push	 esi
  00008	57		 push	 edi

; 16210: 	int x, y;
; 16211: 	int blank = 0;

  00009	c7 45 f4 00 00
	00 00		 mov	 DWORD PTR _blank$[ebp], 0

; 16212: 	
; 16213: 	//     
; 16214: 	if( (sx+width) > 8 ) return (BYTE)0xFF;

  00010	8b 45 0c	 mov	 eax, DWORD PTR _sx$[ebp]
  00013	03 45 14	 add	 eax, DWORD PTR _width$[ebp]
  00016	83 f8 08	 cmp	 eax, 8
  00019	7e 07		 jle	 SHORT $LN8@gObjWereho
  0001b	0c ff		 or	 al, 255			; 000000ffH
  0001d	e9 21 01 00 00	 jmp	 $LN1@gObjWereho
$LN8@gObjWereho:

; 16215: 	if( (sx+width) < 0 ) return (BYTE)0xFF;

  00022	8b 45 0c	 mov	 eax, DWORD PTR _sx$[ebp]
  00025	03 45 14	 add	 eax, DWORD PTR _width$[ebp]
  00028	79 07		 jns	 SHORT $LN9@gObjWereho
  0002a	0c ff		 or	 al, 255			; 000000ffH
  0002c	e9 12 01 00 00	 jmp	 $LN1@gObjWereho
$LN9@gObjWereho:

; 16216: 	if( (sy+height) > 15 ) return (BYTE)0xFF;

  00031	8b 45 10	 mov	 eax, DWORD PTR _sy$[ebp]
  00034	03 45 18	 add	 eax, DWORD PTR _height$[ebp]
  00037	83 f8 0f	 cmp	 eax, 15			; 0000000fH
  0003a	7e 07		 jle	 SHORT $LN10@gObjWereho
  0003c	0c ff		 or	 al, 255			; 000000ffH
  0003e	e9 00 01 00 00	 jmp	 $LN1@gObjWereho
$LN10@gObjWereho:

; 16217: 	if( (sy+height) < 0  ) return (BYTE)0xFF;

  00043	8b 45 10	 mov	 eax, DWORD PTR _sy$[ebp]
  00046	03 45 18	 add	 eax, DWORD PTR _height$[ebp]
  00049	79 07		 jns	 SHORT $LN11@gObjWereho
  0004b	0c ff		 or	 al, 255			; 000000ffH
  0004d	e9 f1 00 00 00	 jmp	 $LN1@gObjWereho
$LN11@gObjWereho:

; 16218: 	int xx, yy;
; 16219: 
; 16220: 	LPOBJECTSTRUCT	lpObj = &gObj[aIndex];

  00052	69 45 08 a0 1b
	00 00		 imul	 eax, DWORD PTR _aIndex$[ebp], 7072
  00059	03 05 00 00 00
	00		 add	 eax, DWORD PTR ?gObj@@3PAVOBJECTSTRUCT@@A ; gObj
  0005f	89 45 e8	 mov	 DWORD PTR _lpObj$[ebp], eax

; 16221: 
; 16222: 	for( y=0; y<height; y++)

  00062	c7 45 f8 00 00
	00 00		 mov	 DWORD PTR _y$[ebp], 0
  00069	eb 09		 jmp	 SHORT $LN4@gObjWereho
$LN2@gObjWereho:
  0006b	8b 45 f8	 mov	 eax, DWORD PTR _y$[ebp]
  0006e	83 c0 01	 add	 eax, 1
  00071	89 45 f8	 mov	 DWORD PTR _y$[ebp], eax
$LN4@gObjWereho:
  00074	8b 45 f8	 mov	 eax, DWORD PTR _y$[ebp]
  00077	3b 45 18	 cmp	 eax, DWORD PTR _height$[ebp]
  0007a	0f 8d b0 00 00
	00		 jge	 $LN3@gObjWereho

; 16223: 	{		
; 16224: 		yy = sy+y;

  00080	8b 45 10	 mov	 eax, DWORD PTR _sy$[ebp]
  00083	03 45 f8	 add	 eax, DWORD PTR _y$[ebp]
  00086	89 45 ec	 mov	 DWORD PTR _yy$[ebp], eax

; 16225: 		for(x=0; x<width; x++)

  00089	c7 45 fc 00 00
	00 00		 mov	 DWORD PTR _x$[ebp], 0
  00090	eb 09		 jmp	 SHORT $LN7@gObjWereho
$LN5@gObjWereho:
  00092	8b 45 fc	 mov	 eax, DWORD PTR _x$[ebp]
  00095	83 c0 01	 add	 eax, 1
  00098	89 45 fc	 mov	 DWORD PTR _x$[ebp], eax
$LN7@gObjWereho:
  0009b	8b 45 fc	 mov	 eax, DWORD PTR _x$[ebp]
  0009e	3b 45 14	 cmp	 eax, DWORD PTR _width$[ebp]
  000a1	0f 8d 84 00 00
	00		 jge	 $LN6@gObjWereho

; 16226: 		{
; 16227: 			xx = sx+x;

  000a7	8b 45 0c	 mov	 eax, DWORD PTR _sx$[ebp]
  000aa	03 45 fc	 add	 eax, DWORD PTR _x$[ebp]
  000ad	89 45 f0	 mov	 DWORD PTR _xx$[ebp], eax

; 16228: 			if( ExtentCheck(xx, yy, 8, 15) == TRUE )

  000b0	6a 0f		 push	 15			; 0000000fH
  000b2	6a 08		 push	 8
  000b4	8b 45 ec	 mov	 eax, DWORD PTR _yy$[ebp]
  000b7	50		 push	 eax
  000b8	8b 4d f0	 mov	 ecx, DWORD PTR _xx$[ebp]
  000bb	51		 push	 ecx
  000bc	e8 00 00 00 00	 call	 ?ExtentCheck@@YAHHHHH@Z	; ExtentCheck
  000c1	83 c4 10	 add	 esp, 16			; 00000010H
  000c4	83 f8 01	 cmp	 eax, 1
  000c7	75 3d		 jne	 SHORT $LN12@gObjWereho

; 16229: 			{
; 16230: 				if( *(gObj[aIndex].pWarehouseMap+((sy+y)*8)+(sx+x)) != 0xFF ) 

  000c9	69 45 08 a0 1b
	00 00		 imul	 eax, DWORD PTR _aIndex$[ebp], 7072
  000d0	8b 4d 10	 mov	 ecx, DWORD PTR _sy$[ebp]
  000d3	03 4d f8	 add	 ecx, DWORD PTR _y$[ebp]
  000d6	8b 15 00 00 00
	00		 mov	 edx, DWORD PTR ?gObj@@3PAVOBJECTSTRUCT@@A ; gObj
  000dc	8b 84 02 98 0c
	00 00		 mov	 eax, DWORD PTR [edx+eax+3224]
  000e3	8d 0c c8	 lea	 ecx, DWORD PTR [eax+ecx*8]
  000e6	8b 55 0c	 mov	 edx, DWORD PTR _sx$[ebp]
  000e9	03 55 fc	 add	 edx, DWORD PTR _x$[ebp]
  000ec	0f b6 04 11	 movzx	 eax, BYTE PTR [ecx+edx]
  000f0	3d ff 00 00 00	 cmp	 eax, 255		; 000000ffH
  000f5	74 0d		 je	 SHORT $LN14@gObjWereho

; 16231: 				{
; 16232: 					blank++;

  000f7	8b 45 f4	 mov	 eax, DWORD PTR _blank$[ebp]
  000fa	83 c0 01	 add	 eax, 1
  000fd	89 45 f4	 mov	 DWORD PTR _blank$[ebp], eax

; 16233: 					return (BYTE)0xFF;

  00100	0c ff		 or	 al, 255			; 000000ffH
  00102	eb 3f		 jmp	 SHORT $LN1@gObjWereho
$LN14@gObjWereho:

; 16234: 				}
; 16235: 			}

  00104	eb 20		 jmp	 SHORT $LN13@gObjWereho
$LN12@gObjWereho:

; 16236: 			else 
; 16237: 			{
; 16238: 				LogAdd("error : %s %d",__FILE__, __LINE__);

  00106	a1 00 00 00 00	 mov	 eax, DWORD PTR ?__LINE__Var@?0??gObjWerehouseRectCheck@@YAEHHHHH@Z@4JA
  0010b	83 c0 1d	 add	 eax, 29			; 0000001dH
  0010e	50		 push	 eax
  0010f	68 00 00 00 00	 push	 OFFSET ??_C@_0DH@BCNNLIDP@C?3?2Mu?5Online?2Mu?9GS?9Webzen?9MC?910@
  00114	68 00 00 00 00	 push	 OFFSET ??_C@_0O@CKAEPJAF@error?5?3?5?$CFs?5?$CFd@
  00119	ff 15 00 00 00
	00		 call	 DWORD PTR ?LogAdd@@3P6AXPADZZA ; LogAdd
  0011f	83 c4 0c	 add	 esp, 12			; 0000000cH

; 16239: 				return (BYTE)0xFF;

  00122	0c ff		 or	 al, 255			; 000000ffH
  00124	eb 1d		 jmp	 SHORT $LN1@gObjWereho
$LN13@gObjWereho:

; 16240: 			}
; 16241: 		}

  00126	e9 67 ff ff ff	 jmp	 $LN5@gObjWereho
$LN6@gObjWereho:

; 16242: 	}

  0012b	e9 3b ff ff ff	 jmp	 $LN2@gObjWereho
$LN3@gObjWereho:

; 16243: 
; 16244: 	if( blank == 0 ) return (BYTE)(((sy*8)+sx));

  00130	83 7d f4 00	 cmp	 DWORD PTR _blank$[ebp], 0
  00134	75 0b		 jne	 SHORT $LN15@gObjWereho
  00136	8b 45 10	 mov	 eax, DWORD PTR _sy$[ebp]
  00139	8b 4d 0c	 mov	 ecx, DWORD PTR _sx$[ebp]
  0013c	8d 04 c1	 lea	 eax, DWORD PTR [ecx+eax*8]
  0013f	eb 02		 jmp	 SHORT $LN1@gObjWereho
$LN15@gObjWereho:

; 16245: 
; 16246: 	return (BYTE)0xFF;

  00141	0c ff		 or	 al, 255			; 000000ffH
$LN1@gObjWereho:

; 16247: }

  00143	5f		 pop	 edi
  00144	5e		 pop	 esi
  00145	5b		 pop	 ebx
  00146	8b e5		 mov	 esp, ebp
  00148	5d		 pop	 ebp
  00149	c3		 ret	 0
?gObjWerehouseRectCheck@@YAEHHHHH@Z ENDP		; gObjWerehouseRectCheck
_TEXT	ENDS
; Function compile flags: /Odtp /ZI
; File C:\Mu Online\Mu-GS-Webzen-MC-10093\GameServer\user.cpp
;	COMDAT ?gObjExpParty@@YAXPAVOBJECTSTRUCT@@0HH@Z
_TEXT	SEGMENT
tv280 = -168						; size = 4
tv129 = -168						; size = 4
tv281 = -164						; size = 4
tv130 = -164						; size = 4
_mymaxexp$1 = -96					; size = 4
_toplevel$ = -92					; size = 4
_lpPartyObj$ = -88					; size = 4
_bCheckSetParty$ = -84					; size = 5
_bApplaySetParty$ = -76					; size = 4
_viewpercent$ = -72					; size = 4
_viewplayer$ = -68					; size = 4
_dis$ = -64						; size = 20
_partycount$ = -44					; size = 4
_partylevel$ = -40					; size = 4
_totallevel$ = -36					; size = 4
_partynum$ = -32					; size = 4
_number$ = -28						; size = 4
_level$ = -24						; size = 4
_totalexp$ = -20					; size = 4
_maxexp$ = -16						; size = 4
_exp$ = -12						; size = 4
_n$ = -8						; size = 4
__$ArrayPad$ = -4					; size = 4
_lpObj$ = 8						; size = 4
_lpTargetObj$ = 12					; size = 4
_AttackDamage$ = 16					; size = 4
_MSBFlag$ = 20						; size = 4
?gObjExpParty@@YAXPAVOBJECTSTRUCT@@0HH@Z PROC		; gObjExpParty, COMDAT

; 13037: {

  00000	55		 push	 ebp
  00001	8b ec		 mov	 ebp, esp
  00003	81 ec a8 00 00
	00		 sub	 esp, 168		; 000000a8H
  00009	a1 00 00 00 00	 mov	 eax, DWORD PTR ___security_cookie
  0000e	33 c5		 xor	 eax, ebp
  00010	89 45 fc	 mov	 DWORD PTR __$ArrayPad$[ebp], eax
  00013	53		 push	 ebx
  00014	56		 push	 esi
  00015	57		 push	 edi

; 13038: #ifdef DEVILSQUARE_EXTEND_20050221		//    
; 13039: 	if( CHECK_DEVILSQUARE(lpObj->MapNumber) ) 
; 13040: #else
; 13041: 	if( lpObj->MapNumber == 9 ) 

  00016	8b 45 08	 mov	 eax, DWORD PTR _lpObj$[ebp]
  00019	0f b6 88 09 01
	00 00		 movzx	 ecx, BYTE PTR [eax+265]
  00020	83 f9 09	 cmp	 ecx, 9
  00023	75 1f		 jne	 SHORT $LN11@gObjExpPar

; 13042: #endif
; 13043: 	{	//  
; 13044: 		g_DevilSquare.gObjExpParty(lpObj, lpTargetObj, AttackDamage, MSBFlag);

  00025	8b 45 14	 mov	 eax, DWORD PTR _MSBFlag$[ebp]
  00028	50		 push	 eax
  00029	8b 4d 10	 mov	 ecx, DWORD PTR _AttackDamage$[ebp]
  0002c	51		 push	 ecx
  0002d	8b 55 0c	 mov	 edx, DWORD PTR _lpTargetObj$[ebp]
  00030	52		 push	 edx
  00031	8b 45 08	 mov	 eax, DWORD PTR _lpObj$[ebp]
  00034	50		 push	 eax
  00035	b9 00 00 00 00	 mov	 ecx, OFFSET ?g_DevilSquare@@3VCDevilSquare@@A ; g_DevilSquare
  0003a	e8 00 00 00 00	 call	 ?gObjExpParty@CDevilSquare@@QAEXPAVOBJECTSTRUCT@@0HH@Z ; CDevilSquare::gObjExpParty

; 13045: 		return;

  0003f	e9 35 06 00 00	 jmp	 $LN1@gObjExpPar
$LN11@gObjExpPar:

; 13046: 	}
; 13047: 
; 13048: 	int n;
; 13049: #ifdef MASTER_LEVEL_UP_SYSTEM_20070912
; 13050: 	INT64 exp, maxexp=0, totalexp;
; 13051: #else
; 13052: 	int exp, maxexp=0, totalexp;

  00044	c7 45 f0 00 00
	00 00		 mov	 DWORD PTR _maxexp$[ebp], 0

; 13053: #endif
; 13054: 
; 13055: #ifdef MODIFY_GETTING_EXP_RATE_20060214
; 13056: 	int level = ((lpTargetObj->Level+25)*lpTargetObj->Level)/3;

  0004b	8b 45 0c	 mov	 eax, DWORD PTR _lpTargetObj$[ebp]
  0004e	0f bf 80 a0 00
	00 00		 movsx	 eax, WORD PTR [eax+160]
  00055	83 c0 19	 add	 eax, 25			; 00000019H
  00058	8b 4d 0c	 mov	 ecx, DWORD PTR _lpTargetObj$[ebp]
  0005b	0f bf 91 a0 00
	00 00		 movsx	 edx, WORD PTR [ecx+160]
  00062	0f af c2	 imul	 eax, edx
  00065	99		 cdq
  00066	b9 03 00 00 00	 mov	 ecx, 3
  0006b	f7 f9		 idiv	 ecx
  0006d	89 45 e8	 mov	 DWORD PTR _level$[ebp], eax

; 13057: #else
; 13058: #ifdef MODIFY_GETTING_EXP_RATE_20051116
; 13059: 	int level = ((lpTargetObj->Level+20)*lpTargetObj->Level)/4;
; 13060: #else
; 13061: 	int level = ((lpTargetObj->Level+10)*lpTargetObj->Level)/4;
; 13062: #endif
; 13063: #endif // MODIFY_GETTING_EXP_RATE_20060214
; 13064: 
; 13065: 	int number;
; 13066: 	int partynum=0;

  00070	c7 45 e0 00 00
	00 00		 mov	 DWORD PTR _partynum$[ebp], 0

; 13067: 	int totallevel=0;

  00077	c7 45 dc 00 00
	00 00		 mov	 DWORD PTR _totallevel$[ebp], 0

; 13068: 	int partylevel;
; 13069: 	int partycount;
; 13070: 	int dis[MAX_PARTYUSER];
; 13071: 	int viewplayer=0;

  0007e	c7 45 bc 00 00
	00 00		 mov	 DWORD PTR _viewplayer$[ebp], 0

; 13072: 	int viewpercent=100;

  00085	c7 45 b8 64 00
	00 00		 mov	 DWORD PTR _viewpercent$[ebp], 100 ; 00000064H

; 13073: 
; 13074: 	int bApplaySetParty = FALSE;	//   ?

  0008c	c7 45 b4 00 00
	00 00		 mov	 DWORD PTR _bApplaySetParty$[ebp], 0

; 13075: 
; 13076: #ifdef UPDATE_ADD_NEW_PARTY_SET_EXP_20080325
; 13077: 	BYTE bCheckSetParty[6];
; 13078: #else
; 13079: 	#ifdef DARKLORD_WORK
; 13080: 		BYTE bCheckSetParty[5];
; 13081: 	#else
; 13082: 		BYTE bCheckSetParty[4];
; 13083: 	#endif //DARKLORD_WORK
; 13084: #endif //UPDATE_ADD_NEW_PARTY_SET_20080325
; 13085: 	
; 13086: 	LPOBJECTSTRUCT lpPartyObj;
; 13087: 
; 13088: 	partynum = lpObj->PartyNumber;

  00093	8b 45 08	 mov	 eax, DWORD PTR _lpObj$[ebp]
  00096	8b 88 88 02 00
	00		 mov	 ecx, DWORD PTR [eax+648]
  0009c	89 4d e0	 mov	 DWORD PTR _partynum$[ebp], ecx

; 13089: 
; 13090: #ifdef MODIFY_PARTY_PLAY_EXPERIENCE_20070208
; 13091: 
; 13092: 	//     
; 13093: 	int toplevel = 0;
; 13094: 	int iTmpDis;
; 13095: 	//    
; 13096: 	for( n=0; n<MAX_PARTYUSER; n++)
; 13097: 	{
; 13098: 		number = gParty.m_PartyS[partynum].Number[n];
; 13099: 		if( number >= 0 )
; 13100: 		{
; 13101: 			lpPartyObj = (LPOBJECTSTRUCT)&gObj[number];
; 13102: 
; 13103: #ifdef MODIFY_PARTY_PLAY_EXPERIENCE_2_20070320
; 13104: 			iTmpDis = gObjCalDistance(lpTargetObj, lpPartyObj);
; 13105: #else
; 13106: 			iTmpDis = gObjCalDistance(lpTargetObj, &lpPartyObj[number]);
; 13107: #endif
; 13108: 			if( iTmpDis < 10 && lpPartyObj->Level > toplevel )
; 13109: 			{
; 13110: 				toplevel = lpPartyObj->Level;
; 13111: 			}
; 13112: 
; 13113: #ifdef MASTER_LEVEL_UP_SYSTEM_20070912	//   -    
; 13114: 			if( iTmpDis < 10 && ( lpPartyObj->Level + lpPartyObj->m_nMasterLevel ) > toplevel )
; 13115: 			{
; 13116: 				toplevel = lpPartyObj->Level + lpPartyObj->m_nMasterLevel;
; 13117: 			}
; 13118: #else
; 13119: 			if( iTmpDis < 10 && lpPartyObj->Level > toplevel )
; 13120: 			{
; 13121: 				toplevel = lpPartyObj->Level;
; 13122: 			}
; 13123: #endif
; 13124: 		}
; 13125: 	}
; 13126: 
; 13127: #else	// MODIFY_PARTY_PLAY_EXPERIENCE_20070208
; 13128: 	
; 13129: #ifdef UPDATE_LOWLEVEL_SUPPORT_1_20051215
; 13130: 	//     
; 13131: 	int toplevel = 0;

  0009f	c7 45 a4 00 00
	00 00		 mov	 DWORD PTR _toplevel$[ebp], 0

; 13132: 	//    
; 13133: 	for( n=0; n<MAX_PARTYUSER; n++)

  000a6	c7 45 f8 00 00
	00 00		 mov	 DWORD PTR _n$[ebp], 0
  000ad	eb 09		 jmp	 SHORT $LN4@gObjExpPar
$LN2@gObjExpPar:
  000af	8b 45 f8	 mov	 eax, DWORD PTR _n$[ebp]
  000b2	83 c0 01	 add	 eax, 1
  000b5	89 45 f8	 mov	 DWORD PTR _n$[ebp], eax
$LN4@gObjExpPar:
  000b8	83 7d f8 05	 cmp	 DWORD PTR _n$[ebp], 5
  000bc	7d 45		 jge	 SHORT $LN3@gObjExpPar

; 13134: 	{
; 13135: 		number = gParty.m_PartyS[partynum].Number[n];

  000be	6b 45 e0 30	 imul	 eax, DWORD PTR _partynum$[ebp], 48
  000c2	8b 4d f8	 mov	 ecx, DWORD PTR _n$[ebp]
  000c5	8b 94 88 0c 00
	00 00		 mov	 edx, DWORD PTR ?gParty@@3VPartyClass@@A[eax+ecx*4+12]
  000cc	89 55 e4	 mov	 DWORD PTR _number$[ebp], edx

; 13136: 		if( number >= 0 )

  000cf	83 7d e4 00	 cmp	 DWORD PTR _number$[ebp], 0
  000d3	7c 2c		 jl	 SHORT $LN13@gObjExpPar

; 13137: 		{
; 13138: 			lpPartyObj = (LPOBJECTSTRUCT)&gObj[number];

  000d5	69 45 e4 a0 1b
	00 00		 imul	 eax, DWORD PTR _number$[ebp], 7072
  000dc	03 05 00 00 00
	00		 add	 eax, DWORD PTR ?gObj@@3PAVOBJECTSTRUCT@@A ; gObj
  000e2	89 45 a8	 mov	 DWORD PTR _lpPartyObj$[ebp], eax

; 13139: 
; 13140: 			if( lpPartyObj->Level > toplevel )

  000e5	8b 45 a8	 mov	 eax, DWORD PTR _lpPartyObj$[ebp]
  000e8	0f bf 88 a0 00
	00 00		 movsx	 ecx, WORD PTR [eax+160]
  000ef	3b 4d a4	 cmp	 ecx, DWORD PTR _toplevel$[ebp]
  000f2	7e 0d		 jle	 SHORT $LN13@gObjExpPar

; 13141: 			{
; 13142: 				toplevel = lpPartyObj->Level;

  000f4	8b 45 a8	 mov	 eax, DWORD PTR _lpPartyObj$[ebp]
  000f7	0f bf 88 a0 00
	00 00		 movsx	 ecx, WORD PTR [eax+160]
  000fe	89 4d a4	 mov	 DWORD PTR _toplevel$[ebp], ecx
$LN13@gObjExpPar:

; 13143: 			}
; 13144: 		}
; 13145: 	}

  00101	eb ac		 jmp	 SHORT $LN2@gObjExpPar
$LN3@gObjExpPar:

; 13146: #endif	// UPDATE_LOWLEVEL_SUPPORT_1_20051215
; 13147: 
; 13148: #endif	// MODIFY_PARTY_PLAY_EXPERIENCE_20070208
; 13149: 
; 13150: 	if( !CHECK_LIMIT(partynum, MAX_PARTY) )

  00103	83 7d e0 00	 cmp	 DWORD PTR _partynum$[ebp], 0
  00107	7d 0c		 jge	 SHORT $LN65@gObjExpPar
  00109	c7 85 5c ff ff
	ff 00 00 00 00	 mov	 DWORD PTR tv130[ebp], 0
  00113	eb 2b		 jmp	 SHORT $LN66@gObjExpPar
$LN65@gObjExpPar:
  00115	81 7d e0 e7 1c
	00 00		 cmp	 DWORD PTR _partynum$[ebp], 7399 ; 00001ce7H
  0011c	7e 0c		 jle	 SHORT $LN63@gObjExpPar
  0011e	c7 85 58 ff ff
	ff 00 00 00 00	 mov	 DWORD PTR tv129[ebp], 0
  00128	eb 0a		 jmp	 SHORT $LN64@gObjExpPar
$LN63@gObjExpPar:
  0012a	c7 85 58 ff ff
	ff 01 00 00 00	 mov	 DWORD PTR tv129[ebp], 1
$LN64@gObjExpPar:
  00134	8b 85 58 ff ff
	ff		 mov	 eax, DWORD PTR tv129[ebp]
  0013a	89 85 5c ff ff
	ff		 mov	 DWORD PTR tv130[ebp], eax
$LN66@gObjExpPar:
  00140	83 bd 5c ff ff
	ff 00		 cmp	 DWORD PTR tv130[ebp], 0
  00147	75 21		 jne	 SHORT $LN14@gObjExpPar

; 13151: 	{
; 13152: 		LogAdd("error : %s %d",__FILE__, __LINE__);

  00149	a1 00 00 00 00	 mov	 eax, DWORD PTR ?__LINE__Var@?0??gObjExpParty@@YAXPAVOBJECTSTRUCT@@0HH@Z@4JA
  0014e	83 c0 73	 add	 eax, 115		; 00000073H
  00151	50		 push	 eax
  00152	68 00 00 00 00	 push	 OFFSET ??_C@_0DH@BCNNLIDP@C?3?2Mu?5Online?2Mu?9GS?9Webzen?9MC?910@
  00157	68 00 00 00 00	 push	 OFFSET ??_C@_0O@CKAEPJAF@error?5?3?5?$CFs?5?$CFd@
  0015c	ff 15 00 00 00
	00		 call	 DWORD PTR ?LogAdd@@3P6AXPADZZA ; LogAdd
  00162	83 c4 0c	 add	 esp, 12			; 0000000cH

; 13153: 		return;

  00165	e9 0f 05 00 00	 jmp	 $LN1@gObjExpPar
$LN14@gObjExpPar:

; 13154: 	}
; 13155: 
; 13156: 	memset(bCheckSetParty, 0, sizeof(bCheckSetParty));

  0016a	6a 05		 push	 5
  0016c	6a 00		 push	 0
  0016e	8d 45 ac	 lea	 eax, DWORD PTR _bCheckSetParty$[ebp]
  00171	50		 push	 eax
  00172	e8 00 00 00 00	 call	 _memset
  00177	83 c4 0c	 add	 esp, 12			; 0000000cH

; 13157: 
; 13158: 	partycount = gParty.m_PartyS[partynum].Count;

  0017a	6b 45 e0 30	 imul	 eax, DWORD PTR _partynum$[ebp], 48
  0017e	8b 88 08 00 00
	00		 mov	 ecx, DWORD PTR ?gParty@@3VPartyClass@@A[eax+8]
  00184	89 4d d4	 mov	 DWORD PTR _partycount$[ebp], ecx

; 13159: 	for( n=0; n<MAX_PARTYUSER; n++)

  00187	c7 45 f8 00 00
	00 00		 mov	 DWORD PTR _n$[ebp], 0
  0018e	eb 09		 jmp	 SHORT $LN7@gObjExpPar
$LN5@gObjExpPar:
  00190	8b 45 f8	 mov	 eax, DWORD PTR _n$[ebp]
  00193	83 c0 01	 add	 eax, 1
  00196	89 45 f8	 mov	 DWORD PTR _n$[ebp], eax
$LN7@gObjExpPar:
  00199	83 7d f8 05	 cmp	 DWORD PTR _n$[ebp], 5
  0019d	0f 8d dd 00 00
	00		 jge	 $LN6@gObjExpPar

; 13160: 	{
; 13161: 		number = gParty.m_PartyS[partynum].Number[n];

  001a3	6b 45 e0 30	 imul	 eax, DWORD PTR _partynum$[ebp], 48
  001a7	8b 4d f8	 mov	 ecx, DWORD PTR _n$[ebp]
  001aa	8b 94 88 0c 00
	00 00		 mov	 edx, DWORD PTR ?gParty@@3VPartyClass@@A[eax+ecx*4+12]
  001b1	89 55 e4	 mov	 DWORD PTR _number$[ebp], edx

; 13162: 		if( number >= 0 )

  001b4	83 7d e4 00	 cmp	 DWORD PTR _number$[ebp], 0
  001b8	0f 8c bd 00 00
	00		 jl	 $LN17@gObjExpPar

; 13163: 		{
; 13164: 			lpPartyObj = (LPOBJECTSTRUCT)&gObj[number];

  001be	69 45 e4 a0 1b
	00 00		 imul	 eax, DWORD PTR _number$[ebp], 7072
  001c5	03 05 00 00 00
	00		 add	 eax, DWORD PTR ?gObj@@3PAVOBJECTSTRUCT@@A ; gObj
  001cb	89 45 a8	 mov	 DWORD PTR _lpPartyObj$[ebp], eax

; 13165: 			
; 13166: 			//   ..
; 13167: 			if( lpTargetObj->MapNumber == lpPartyObj->MapNumber) 

  001ce	8b 45 0c	 mov	 eax, DWORD PTR _lpTargetObj$[ebp]
  001d1	0f b6 88 09 01
	00 00		 movzx	 ecx, BYTE PTR [eax+265]
  001d8	8b 55 a8	 mov	 edx, DWORD PTR _lpPartyObj$[ebp]
  001db	0f b6 82 09 01
	00 00		 movzx	 eax, BYTE PTR [edx+265]
  001e2	3b c8		 cmp	 ecx, eax
  001e4	0f 85 91 00 00
	00		 jne	 $LN17@gObjExpPar

; 13168: 			{
; 13169: 				dis[n] = gObjCalDistance(lpTargetObj, &gObj[number]);

  001ea	69 45 e4 a0 1b
	00 00		 imul	 eax, DWORD PTR _number$[ebp], 7072
  001f1	03 05 00 00 00
	00		 add	 eax, DWORD PTR ?gObj@@3PAVOBJECTSTRUCT@@A ; gObj
  001f7	50		 push	 eax
  001f8	8b 4d 0c	 mov	 ecx, DWORD PTR _lpTargetObj$[ebp]
  001fb	51		 push	 ecx
  001fc	e8 00 00 00 00	 call	 ?gObjCalDistance@@YAHPAVOBJECTSTRUCT@@0@Z ; gObjCalDistance
  00201	83 c4 08	 add	 esp, 8
  00204	8b 55 f8	 mov	 edx, DWORD PTR _n$[ebp]
  00207	89 44 95 c0	 mov	 DWORD PTR _dis$[ebp+edx*4], eax

; 13170: 				if( dis[n] < 10 )

  0020b	8b 45 f8	 mov	 eax, DWORD PTR _n$[ebp]
  0020e	83 7c 85 c0 0a	 cmp	 DWORD PTR _dis$[ebp+eax*4], 10 ; 0000000aH
  00213	7d 66		 jge	 SHORT $LN17@gObjExpPar

; 13171: 				{
; 13172: 					lpPartyObj = (LPOBJECTSTRUCT)&gObj[number];

  00215	69 45 e4 a0 1b
	00 00		 imul	 eax, DWORD PTR _number$[ebp], 7072
  0021c	03 05 00 00 00
	00		 add	 eax, DWORD PTR ?gObj@@3PAVOBJECTSTRUCT@@A ; gObj
  00222	89 45 a8	 mov	 DWORD PTR _lpPartyObj$[ebp], eax

; 13173: #ifdef MASTER_LEVEL_UP_SYSTEM_20070912		//   -   :  200   
; 13174: 					//       200    200 
; 13175: 					if( toplevel >= ( lpPartyObj->Level + lpPartyObj->m_nMasterLevel + 200 ) )
; 13176: 					{
; 13177: 						totallevel += lpPartyObj->Level + lpPartyObj->m_nMasterLevel + 200;
; 13178: 					}
; 13179: 					else
; 13180: 					{
; 13181: 						totallevel += lpPartyObj->Level + lpPartyObj->m_nMasterLevel;
; 13182: 					}
; 13183: #else
; 13184: #ifdef UPDATE_LOWLEVEL_SUPPORT_1_20051215
; 13185: 					//       200    200  - hnine
; 13186: 					if( toplevel >= (lpPartyObj->Level + 200) )

  00225	8b 45 a8	 mov	 eax, DWORD PTR _lpPartyObj$[ebp]
  00228	0f bf 88 a0 00
	00 00		 movsx	 ecx, WORD PTR [eax+160]
  0022f	81 c1 c8 00 00
	00		 add	 ecx, 200		; 000000c8H
  00235	39 4d a4	 cmp	 DWORD PTR _toplevel$[ebp], ecx
  00238	7c 19		 jl	 SHORT $LN18@gObjExpPar

; 13187: 					{
; 13188: 						totallevel += lpPartyObj->Level + 200;

  0023a	8b 45 a8	 mov	 eax, DWORD PTR _lpPartyObj$[ebp]
  0023d	0f bf 88 a0 00
	00 00		 movsx	 ecx, WORD PTR [eax+160]
  00244	8b 55 dc	 mov	 edx, DWORD PTR _totallevel$[ebp]
  00247	8d 84 0a c8 00
	00 00		 lea	 eax, DWORD PTR [edx+ecx+200]
  0024e	89 45 dc	 mov	 DWORD PTR _totallevel$[ebp], eax

; 13189: 					}

  00251	eb 10		 jmp	 SHORT $LN19@gObjExpPar
$LN18@gObjExpPar:

; 13190: 					else
; 13191: 					{
; 13192: 						totallevel += lpPartyObj->Level;

  00253	8b 45 a8	 mov	 eax, DWORD PTR _lpPartyObj$[ebp]
  00256	0f bf 88 a0 00
	00 00		 movsx	 ecx, WORD PTR [eax+160]
  0025d	03 4d dc	 add	 ecx, DWORD PTR _totallevel$[ebp]
  00260	89 4d dc	 mov	 DWORD PTR _totallevel$[ebp], ecx
$LN19@gObjExpPar:

