; Listing generated by Microsoft (R) Optimizing Compiler Version 19.27.29111.0 

	TITLE	C:\Mu Online\Mu-GS-Webzen-MC-10093\GameServer\ViewportGuild.cpp
	.686P
	.XMM
	include listing.inc
	.model	flat

INCLUDELIB LIBCMT
INCLUDELIB OLDNAMES

PUBLIC	?__empty_global_delete@@YAXPAX@Z		; __empty_global_delete
PUBLIC	?__empty_global_delete@@YAXPAXI@Z		; __empty_global_delete
PUBLIC	??0CViewportGuild@@QAE@XZ			; CViewportGuild::CViewportGuild
PUBLIC	??1CViewportGuild@@UAE@XZ			; CViewportGuild::~CViewportGuild
PUBLIC	?Init@CViewportGuild@@QAEXXZ			; CViewportGuild::Init
PUBLIC	?Add@CViewportGuild@@QAEHHH@Z			; CViewportGuild::Add
PUBLIC	??_GCViewportGuild@@UAEPAXI@Z			; CViewportGuild::`scalar deleting destructor'
PUBLIC	??_7CViewportGuild@@6B@				; CViewportGuild::`vftable'
PUBLIC	??_R4CViewportGuild@@6B@			; CViewportGuild::`RTTI Complete Object Locator'
PUBLIC	??_R0?AVCViewportGuild@@@8			; CViewportGuild `RTTI Type Descriptor'
PUBLIC	??_R3CViewportGuild@@8				; CViewportGuild::`RTTI Class Hierarchy Descriptor'
PUBLIC	??_R2CViewportGuild@@8				; CViewportGuild::`RTTI Base Class Array'
PUBLIC	??_R1A@?0A@EA@CViewportGuild@@8			; CViewportGuild::`RTTI Base Class Descriptor at (0,-1,0,64)'
EXTRN	??3@YAXPAXI@Z:PROC				; operator delete
EXTRN	_memset:PROC
EXTRN	??_ECViewportGuild@@UAEPAXI@Z:PROC		; CViewportGuild::`vector deleting destructor'
EXTRN	??_7type_info@@6B@:QWORD			; type_info::`vftable'
;	COMDAT ??_R1A@?0A@EA@CViewportGuild@@8
rdata$r	SEGMENT
??_R1A@?0A@EA@CViewportGuild@@8 DD FLAT:??_R0?AVCViewportGuild@@@8 ; CViewportGuild::`RTTI Base Class Descriptor at (0,-1,0,64)'
	DD	00H
	DD	00H
	DD	0ffffffffH
	DD	00H
	DD	040H
	DD	FLAT:??_R3CViewportGuild@@8
rdata$r	ENDS
;	COMDAT ??_R2CViewportGuild@@8
rdata$r	SEGMENT
??_R2CViewportGuild@@8 DD FLAT:??_R1A@?0A@EA@CViewportGuild@@8 ; CViewportGuild::`RTTI Base Class Array'
rdata$r	ENDS
;	COMDAT ??_R3CViewportGuild@@8
rdata$r	SEGMENT
??_R3CViewportGuild@@8 DD 00H				; CViewportGuild::`RTTI Class Hierarchy Descriptor'
	DD	00H
	DD	01H
	DD	FLAT:??_R2CViewportGuild@@8
rdata$r	ENDS
;	COMDAT ??_R0?AVCViewportGuild@@@8
data$r	SEGMENT
??_R0?AVCViewportGuild@@@8 DD FLAT:??_7type_info@@6B@	; CViewportGuild `RTTI Type Descriptor'
	DD	00H
	DB	'.?AVCViewportGuild@@', 00H
data$r	ENDS
;	COMDAT ??_R4CViewportGuild@@6B@
rdata$r	SEGMENT
??_R4CViewportGuild@@6B@ DD 00H				; CViewportGuild::`RTTI Complete Object Locator'
	DD	00H
	DD	00H
	DD	FLAT:??_R0?AVCViewportGuild@@@8
	DD	FLAT:??_R3CViewportGuild@@8
rdata$r	ENDS
;	COMDAT ??_7CViewportGuild@@6B@
CONST	SEGMENT
??_7CViewportGuild@@6B@ DD FLAT:??_R4CViewportGuild@@6B@ ; CViewportGuild::`vftable'
	DD	FLAT:??_ECViewportGuild@@UAEPAXI@Z
CONST	ENDS
; Function compile flags: /Odtp /ZI
;	COMDAT ??_GCViewportGuild@@UAEPAXI@Z
_TEXT	SEGMENT
_this$ = -4						; size = 4
___flags$ = 8						; size = 4
??_GCViewportGuild@@UAEPAXI@Z PROC			; CViewportGuild::`scalar deleting destructor', COMDAT
; _this$ = ecx
  00000	55		 push	 ebp
  00001	8b ec		 mov	 ebp, esp
  00003	83 ec 44	 sub	 esp, 68			; 00000044H
  00006	53		 push	 ebx
  00007	56		 push	 esi
  00008	57		 push	 edi
  00009	89 4d fc	 mov	 DWORD PTR _this$[ebp], ecx
  0000c	8b 4d fc	 mov	 ecx, DWORD PTR _this$[ebp]
  0000f	e8 00 00 00 00	 call	 ??1CViewportGuild@@UAE@XZ ; CViewportGuild::~CViewportGuild
  00014	8b 45 08	 mov	 eax, DWORD PTR ___flags$[ebp]
  00017	83 e0 01	 and	 eax, 1
  0001a	74 11		 je	 SHORT $LN2@scalar
  0001c	68 9c 00 00 00	 push	 156			; 0000009cH
  00021	8b 45 fc	 mov	 eax, DWORD PTR _this$[ebp]
  00024	50		 push	 eax
  00025	e8 00 00 00 00	 call	 ??3@YAXPAXI@Z		; operator delete
  0002a	83 c4 08	 add	 esp, 8
$LN2@scalar:
  0002d	8b 45 fc	 mov	 eax, DWORD PTR _this$[ebp]
  00030	5f		 pop	 edi
  00031	5e		 pop	 esi
  00032	5b		 pop	 ebx
  00033	8b e5		 mov	 esp, ebp
  00035	5d		 pop	 ebp
  00036	c2 04 00	 ret	 4
??_GCViewportGuild@@UAEPAXI@Z ENDP			; CViewportGuild::`scalar deleting destructor'
_TEXT	ENDS
; Function compile flags: /Odtp /ZI
; File C:\Mu Online\Mu-GS-Webzen-MC-10093\GameServer\ViewportGuild.cpp
;	COMDAT ?Add@CViewportGuild@@QAEHHH@Z
_TEXT	SEGMENT
_n$1 = -12						; size = 4
_blank$ = -8						; size = 4
_this$ = -4						; size = 4
_number$ = 8						; size = 4
_aIndex$ = 12						; size = 4
?Add@CViewportGuild@@QAEHHH@Z PROC			; CViewportGuild::Add, COMDAT
; _this$ = ecx

; 35   : {

  00000	55		 push	 ebp
  00001	8b ec		 mov	 ebp, esp
  00003	83 ec 4c	 sub	 esp, 76			; 0000004cH
  00006	53		 push	 ebx
  00007	56		 push	 esi
  00008	57		 push	 edi
  00009	89 4d fc	 mov	 DWORD PTR _this$[ebp], ecx

; 36   : 	int blank=-1;

  0000c	c7 45 f8 ff ff
	ff ff		 mov	 DWORD PTR _blank$[ebp], -1

; 37   : 	if( number < 1 ) return FALSE;

  00013	83 7d 08 01	 cmp	 DWORD PTR _number$[ebp], 1
  00017	7d 07		 jge	 SHORT $LN5@Add
  00019	33 c0		 xor	 eax, eax
  0001b	e9 94 00 00 00	 jmp	 $LN1@Add
$LN5@Add:

; 38   : 	//if( gObj[aIndex].lpGuild == NULL ) return FALSE;
; 39   : 
; 40   : 	for( int n=0; n<MAXVIEWPORTOBJECT; n++)

  00020	c7 45 f4 00 00
	00 00		 mov	 DWORD PTR _n$1[ebp], 0
  00027	eb 09		 jmp	 SHORT $LN4@Add
$LN2@Add:
  00029	8b 45 f4	 mov	 eax, DWORD PTR _n$1[ebp]
  0002c	83 c0 01	 add	 eax, 1
  0002f	89 45 f4	 mov	 DWORD PTR _n$1[ebp], eax
$LN4@Add:
  00032	83 7d f4 4b	 cmp	 DWORD PTR _n$1[ebp], 75	; 0000004bH
  00036	7d 33		 jge	 SHORT $LN3@Add

; 41   : 	{
; 42   : 		if( m_GuildNumber[n] > 0 )

  00038	8b 45 f4	 mov	 eax, DWORD PTR _n$1[ebp]
  0003b	8b 4d fc	 mov	 ecx, DWORD PTR _this$[ebp]
  0003e	0f bf 54 41 04	 movsx	 edx, WORD PTR [ecx+eax*2+4]
  00043	85 d2		 test	 edx, edx
  00045	7e 16		 jle	 SHORT $LN6@Add

; 43   : 		{
; 44   : 			if( m_GuildNumber[n] == number )

  00047	8b 45 f4	 mov	 eax, DWORD PTR _n$1[ebp]
  0004a	8b 4d fc	 mov	 ecx, DWORD PTR _this$[ebp]
  0004d	0f bf 54 41 04	 movsx	 edx, WORD PTR [ecx+eax*2+4]
  00052	3b 55 08	 cmp	 edx, DWORD PTR _number$[ebp]
  00055	75 04		 jne	 SHORT $LN8@Add

; 45   : 			{
; 46   : 				return FALSE;	// 같은 길드 이름이 존재

  00057	33 c0		 xor	 eax, eax
  00059	eb 59		 jmp	 SHORT $LN1@Add
$LN8@Add:

; 47   : 			}
; 48   : 		}

  0005b	eb 0c		 jmp	 SHORT $LN7@Add
$LN6@Add:

; 49   : 		else 
; 50   : 		{
; 51   : 			if( blank < 0 ) 

  0005d	83 7d f8 00	 cmp	 DWORD PTR _blank$[ebp], 0
  00061	7d 06		 jge	 SHORT $LN7@Add

; 52   : 			{
; 53   : 				blank = n;

  00063	8b 45 f4	 mov	 eax, DWORD PTR _n$1[ebp]
  00066	89 45 f8	 mov	 DWORD PTR _blank$[ebp], eax
$LN7@Add:

; 54   : 			}
; 55   : 		}
; 56   : 	}

  00069	eb be		 jmp	 SHORT $LN2@Add
$LN3@Add:

; 57   : 	if( blank < 0 ) return FALSE;

  0006b	83 7d f8 00	 cmp	 DWORD PTR _blank$[ebp], 0
  0006f	7d 04		 jge	 SHORT $LN10@Add
  00071	33 c0		 xor	 eax, eax
  00073	eb 3f		 jmp	 SHORT $LN1@Add
$LN10@Add:

; 58   : 	
; 59   : 	if( m_GuildNumber[blank] == 0 )

  00075	8b 45 f8	 mov	 eax, DWORD PTR _blank$[ebp]
  00078	8b 4d fc	 mov	 ecx, DWORD PTR _this$[ebp]
  0007b	0f bf 54 41 04	 movsx	 edx, WORD PTR [ecx+eax*2+4]
  00080	85 d2		 test	 edx, edx
  00082	75 2e		 jne	 SHORT $LN11@Add

; 60   : 	{
; 61   : 		m_GuildNumber[blank] = number;

  00084	8b 45 f8	 mov	 eax, DWORD PTR _blank$[ebp]
  00087	8b 4d fc	 mov	 ecx, DWORD PTR _this$[ebp]
  0008a	66 8b 55 08	 mov	 dx, WORD PTR _number$[ebp]
  0008e	66 89 54 41 04	 mov	 WORD PTR [ecx+eax*2+4], dx

; 62   : 		m_GuildCount++;

  00093	8b 45 fc	 mov	 eax, DWORD PTR _this$[ebp]
  00096	66 8b 88 9a 00
	00 00		 mov	 cx, WORD PTR [eax+154]
  0009d	66 83 c1 01	 add	 cx, 1
  000a1	8b 55 fc	 mov	 edx, DWORD PTR _this$[ebp]
  000a4	66 89 8a 9a 00
	00 00		 mov	 WORD PTR [edx+154], cx

; 63   : 		return TRUE;

  000ab	b8 01 00 00 00	 mov	 eax, 1
  000b0	eb 02		 jmp	 SHORT $LN1@Add
$LN11@Add:

; 64   : 	}
; 65   : 	return FALSE;

  000b2	33 c0		 xor	 eax, eax
$LN1@Add:

; 66   : }

  000b4	5f		 pop	 edi
  000b5	5e		 pop	 esi
  000b6	5b		 pop	 ebx
  000b7	8b e5		 mov	 esp, ebp
  000b9	5d		 pop	 ebp
  000ba	c2 08 00	 ret	 8
?Add@CViewportGuild@@QAEHHH@Z ENDP			; CViewportGuild::Add
_TEXT	ENDS
; Function compile flags: /Odtp /ZI
; File C:\Mu Online\Mu-GS-Webzen-MC-10093\GameServer\ViewportGuild.cpp
;	COMDAT ?Init@CViewportGuild@@QAEXXZ
_TEXT	SEGMENT
_this$ = -4						; size = 4
?Init@CViewportGuild@@QAEXXZ PROC			; CViewportGuild::Init, COMDAT
; _this$ = ecx

; 29   : {		

  00000	55		 push	 ebp
  00001	8b ec		 mov	 ebp, esp
  00003	83 ec 44	 sub	 esp, 68			; 00000044H
  00006	53		 push	 ebx
  00007	56		 push	 esi
  00008	57		 push	 edi
  00009	89 4d fc	 mov	 DWORD PTR _this$[ebp], ecx

; 30   : 	memset(m_GuildNumber, 0, sizeof(m_GuildNumber));

  0000c	68 96 00 00 00	 push	 150			; 00000096H
  00011	6a 00		 push	 0
  00013	8b 45 fc	 mov	 eax, DWORD PTR _this$[ebp]
  00016	83 c0 04	 add	 eax, 4
  00019	50		 push	 eax
  0001a	e8 00 00 00 00	 call	 _memset
  0001f	83 c4 0c	 add	 esp, 12			; 0000000cH

; 31   : 	m_GuildCount = 0;

  00022	33 c0		 xor	 eax, eax
  00024	8b 4d fc	 mov	 ecx, DWORD PTR _this$[ebp]
  00027	66 89 81 9a 00
	00 00		 mov	 WORD PTR [ecx+154], ax

; 32   : }

  0002e	5f		 pop	 edi
  0002f	5e		 pop	 esi
  00030	5b		 pop	 ebx
  00031	8b e5		 mov	 esp, ebp
  00033	5d		 pop	 ebp
  00034	c3		 ret	 0
?Init@CViewportGuild@@QAEXXZ ENDP			; CViewportGuild::Init
_TEXT	ENDS
; Function compile flags: /Odtp /ZI
; File C:\Mu Online\Mu-GS-Webzen-MC-10093\GameServer\ViewportGuild.cpp
;	COMDAT ??1CViewportGuild@@UAE@XZ
_TEXT	SEGMENT
_this$ = -4						; size = 4
??1CViewportGuild@@UAE@XZ PROC				; CViewportGuild::~CViewportGuild, COMDAT
; _this$ = ecx

; 24   : {

  00000	55		 push	 ebp
  00001	8b ec		 mov	 ebp, esp
  00003	83 ec 44	 sub	 esp, 68			; 00000044H
  00006	53		 push	 ebx
  00007	56		 push	 esi
  00008	57		 push	 edi
  00009	89 4d fc	 mov	 DWORD PTR _this$[ebp], ecx
  0000c	8b 45 fc	 mov	 eax, DWORD PTR _this$[ebp]
  0000f	c7 00 00 00 00
	00		 mov	 DWORD PTR [eax], OFFSET ??_7CViewportGuild@@6B@

; 25   : 
; 26   : }

  00015	5f		 pop	 edi
  00016	5e		 pop	 esi
  00017	5b		 pop	 ebx
  00018	8b e5		 mov	 esp, ebp
  0001a	5d		 pop	 ebp
  0001b	c3		 ret	 0
??1CViewportGuild@@UAE@XZ ENDP				; CViewportGuild::~CViewportGuild
_TEXT	ENDS
; Function compile flags: /Odtp /ZI
; File C:\Mu Online\Mu-GS-Webzen-MC-10093\GameServer\ViewportGuild.cpp
;	COMDAT ??0CViewportGuild@@QAE@XZ
_TEXT	SEGMENT
_this$ = -4						; size = 4
??0CViewportGuild@@QAE@XZ PROC				; CViewportGuild::CViewportGuild, COMDAT
; _this$ = ecx

; 19   : {

  00000	55		 push	 ebp
  00001	8b ec		 mov	 ebp, esp
  00003	83 ec 44	 sub	 esp, 68			; 00000044H
  00006	53		 push	 ebx
  00007	56		 push	 esi
  00008	57		 push	 edi
  00009	89 4d fc	 mov	 DWORD PTR _this$[ebp], ecx
  0000c	8b 45 fc	 mov	 eax, DWORD PTR _this$[ebp]
  0000f	c7 00 00 00 00
	00		 mov	 DWORD PTR [eax], OFFSET ??_7CViewportGuild@@6B@

; 20   : 
; 21   : }

  00015	8b 45 fc	 mov	 eax, DWORD PTR _this$[ebp]
  00018	5f		 pop	 edi
  00019	5e		 pop	 esi
  0001a	5b		 pop	 ebx
  0001b	8b e5		 mov	 esp, ebp
  0001d	5d		 pop	 ebp
  0001e	c3		 ret	 0
??0CViewportGuild@@QAE@XZ ENDP				; CViewportGuild::CViewportGuild
_TEXT	ENDS
; Function compile flags: /Odtp /ZI
; File C:\Mu Online\Mu-GS-Webzen-MC-10093\GameServer\ViewportGuild.cpp
;	COMDAT ?__empty_global_delete@@YAXPAXI@Z
_TEXT	SEGMENT
___formal$ = 8						; size = 4
___formal$ = 12						; size = 4
?__empty_global_delete@@YAXPAXI@Z PROC			; __empty_global_delete, COMDAT

  00000	55		 push	 ebp
  00001	8b ec		 mov	 ebp, esp
  00003	83 ec 40	 sub	 esp, 64			; 00000040H
  00006	53		 push	 ebx
  00007	56		 push	 esi
  00008	57		 push	 edi
  00009	5f		 pop	 edi
  0000a	5e		 pop	 esi
  0000b	5b		 pop	 ebx
  0000c	8b e5		 mov	 esp, ebp
  0000e	5d		 pop	 ebp
  0000f	c3		 ret	 0
?__empty_global_delete@@YAXPAXI@Z ENDP			; __empty_global_delete
_TEXT	ENDS
; Function compile flags: /Odtp /ZI
; File C:\Mu Online\Mu-GS-Webzen-MC-10093\GameServer\ViewportGuild.cpp
;	COMDAT ?__empty_global_delete@@YAXPAX@Z
_TEXT	SEGMENT
___formal$ = 8						; size = 4
?__empty_global_delete@@YAXPAX@Z PROC			; __empty_global_delete, COMDAT

  00000	55		 push	 ebp
  00001	8b ec		 mov	 ebp, esp
  00003	83 ec 40	 sub	 esp, 64			; 00000040H
  00006	53		 push	 ebx
  00007	56		 push	 esi
  00008	57		 push	 edi
  00009	5f		 pop	 edi
  0000a	5e		 pop	 esi
  0000b	5b		 pop	 ebx
  0000c	8b e5		 mov	 esp, ebp
  0000e	5d		 pop	 ebp
  0000f	c3		 ret	 0
?__empty_global_delete@@YAXPAX@Z ENDP			; __empty_global_delete
_TEXT	ENDS
END
