; Listing generated by Microsoft (R) Optimizing Compiler Version 19.27.29111.0 

	TITLE	C:\Mu Online\Mu-GS-Webzen-MC-10093\GameServer\wsGameServer.cpp
	.686P
	.XMM
	include listing.inc
	.model	flat

INCLUDELIB LIBCMT
INCLUDELIB OLDNAMES

PUBLIC	?__empty_global_delete@@YAXPAX@Z		; __empty_global_delete
PUBLIC	?__empty_global_delete@@YAXPAXI@Z		; __empty_global_delete
PUBLIC	?SetSocketIndex@CwsGameServer@@QAEHIH@Z		; CwsGameServer::SetSocketIndex
PUBLIC	?SetSocketBuffer@CwsGameServer@@QAEHHIPAD@Z	; CwsGameServer::SetSocketBuffer
PUBLIC	?AcceptSocket@CwsGameServer@@QAEHAAIAAUin_addr@@@Z ; CwsGameServer::AcceptSocket
PUBLIC	?DataRecv@CwsGameServer@@QAEHI@Z		; CwsGameServer::DataRecv
PUBLIC	?FDWRITE_MsgDataSend@CwsGameServer@@QAEHI@Z	; CwsGameServer::FDWRITE_MsgDataSend
PUBLIC	?DataSendW@CwsGameServer@@QAEHHPADH@Z		; CwsGameServer::DataSendW
PUBLIC	?DataSocketSend@CwsGameServer@@QAEHIPADH@Z	; CwsGameServer::DataSocketSend
PUBLIC	?CreateServer@CwsGameServer@@QAEHPADGKK@Z	; CwsGameServer::CreateServer
PUBLIC	??0CwsGameServer@@QAE@XZ			; CwsGameServer::CwsGameServer
PUBLIC	??1CwsGameServer@@UAE@XZ			; CwsGameServer::~CwsGameServer
PUBLIC	??_GCwsGameServer@@UAEPAXI@Z			; CwsGameServer::`scalar deleting destructor'
PUBLIC	??_7CwsGameServer@@6B@				; CwsGameServer::`vftable'
PUBLIC	??_C@_0BF@OCJBKION@windows?5handle?5error@	; `string'
PUBLIC	??_C@_0BF@OENIBBI@Server?5bind?5error?5?$CFd@	; `string'
PUBLIC	??_C@_0BH@BLCKGNNH@Server?5listen?5error?5?$CFd@ ; `string'
PUBLIC	??_C@_0BP@JMMAJAG@Server?5WSAAsyncSelect?5error?5?$CFd@ ; `string'
PUBLIC	?__LINE__Var@?0??DataSocketSend@CwsGameServer@@QAEHIPADH@Z@4JA ; `CwsGameServer::DataSocketSend'::`1'::__LINE__Var
PUBLIC	??_C@_0DP@CDHKBCGH@C?3?2Mu?5Online?2Mu?9GS?9Webzen?9MC?910@ ; `string'
PUBLIC	??_C@_0BF@GDJNGBDL@INVALID_SOCKET?5?$CFs?5?$CFd@ ; `string'
PUBLIC	??_R4CwsGameServer@@6B@				; CwsGameServer::`RTTI Complete Object Locator'
PUBLIC	??_R0?AVCwsGameServer@@@8			; CwsGameServer `RTTI Type Descriptor'
PUBLIC	??_R3CwsGameServer@@8				; CwsGameServer::`RTTI Class Hierarchy Descriptor'
PUBLIC	??_R2CwsGameServer@@8				; CwsGameServer::`RTTI Base Class Array'
PUBLIC	??_R1A@?0A@EA@CwsGameServer@@8			; CwsGameServer::`RTTI Base Class Descriptor at (0,-1,0,64)'
PUBLIC	??_R13?0A@EA@MyWinsockBase@@8			; MyWinsockBase::`RTTI Base Class Descriptor at (4,-1,0,64)'
PUBLIC	??_R0?AVMyWinsockBase@@@8			; MyWinsockBase `RTTI Type Descriptor'
PUBLIC	??_R3MyWinsockBase@@8				; MyWinsockBase::`RTTI Class Hierarchy Descriptor'
PUBLIC	??_R2MyWinsockBase@@8				; MyWinsockBase::`RTTI Base Class Array'
PUBLIC	??_R1A@?0A@EA@MyWinsockBase@@8			; MyWinsockBase::`RTTI Base Class Descriptor at (0,-1,0,64)'
EXTRN	??3@YAXPAXI@Z:PROC				; operator delete
EXTRN	_memcpy:PROC
EXTRN	_memset:PROC
EXTRN	__imp__accept@12:PROC
EXTRN	__imp__bind@12:PROC
EXTRN	__imp__closesocket@4:PROC
EXTRN	__imp__htonl@4:PROC
EXTRN	__imp__htons@4:PROC
EXTRN	__imp__inet_ntoa@4:PROC
EXTRN	__imp__listen@8:PROC
EXTRN	__imp__send@16:PROC
EXTRN	__imp__setsockopt@20:PROC
EXTRN	__imp__WSAGetLastError@0:PROC
EXTRN	__imp__WSAAsyncSelect@16:PROC
EXTRN	?MsgBox@@YAXPADZZ:PROC				; MsgBox
EXTRN	??0MyWinsockBase@@QAE@XZ:PROC			; MyWinsockBase::MyWinsockBase
EXTRN	??1MyWinsockBase@@QAE@XZ:PROC			; MyWinsockBase::~MyWinsockBase
EXTRN	??_ECwsGameServer@@UAEPAXI@Z:PROC		; CwsGameServer::`vector deleting destructor'
EXTRN	?AddIp@CIpCache@@QAEHPAD@Z:PROC			; CIpCache::AddIp
EXTRN	@__security_check_cookie@4:PROC
EXTRN	??_7type_info@@6B@:QWORD			; type_info::`vftable'
EXTRN	?LogAdd@@3P6AXPADZZA:DWORD			; LogAdd
EXTRN	?IpCache@@3VCIpCache@@A:BYTE			; IpCache
EXTRN	___security_cookie:DWORD
;	COMDAT ??_R1A@?0A@EA@MyWinsockBase@@8
rdata$r	SEGMENT
??_R1A@?0A@EA@MyWinsockBase@@8 DD FLAT:??_R0?AVMyWinsockBase@@@8 ; MyWinsockBase::`RTTI Base Class Descriptor at (0,-1,0,64)'
	DD	00H
	DD	00H
	DD	0ffffffffH
	DD	00H
	DD	040H
	DD	FLAT:??_R3MyWinsockBase@@8
rdata$r	ENDS
;	COMDAT ??_R2MyWinsockBase@@8
rdata$r	SEGMENT
??_R2MyWinsockBase@@8 DD FLAT:??_R1A@?0A@EA@MyWinsockBase@@8 ; MyWinsockBase::`RTTI Base Class Array'
rdata$r	ENDS
;	COMDAT ??_R3MyWinsockBase@@8
rdata$r	SEGMENT
??_R3MyWinsockBase@@8 DD 00H				; MyWinsockBase::`RTTI Class Hierarchy Descriptor'
	DD	00H
	DD	01H
	DD	FLAT:??_R2MyWinsockBase@@8
rdata$r	ENDS
;	COMDAT ??_R0?AVMyWinsockBase@@@8
data$r	SEGMENT
??_R0?AVMyWinsockBase@@@8 DD FLAT:??_7type_info@@6B@	; MyWinsockBase `RTTI Type Descriptor'
	DD	00H
	DB	'.?AVMyWinsockBase@@', 00H
data$r	ENDS
;	COMDAT ??_R13?0A@EA@MyWinsockBase@@8
rdata$r	SEGMENT
??_R13?0A@EA@MyWinsockBase@@8 DD FLAT:??_R0?AVMyWinsockBase@@@8 ; MyWinsockBase::`RTTI Base Class Descriptor at (4,-1,0,64)'
	DD	00H
	DD	04H
	DD	0ffffffffH
	DD	00H
	DD	040H
	DD	FLAT:??_R3MyWinsockBase@@8
rdata$r	ENDS
;	COMDAT ??_R1A@?0A@EA@CwsGameServer@@8
rdata$r	SEGMENT
??_R1A@?0A@EA@CwsGameServer@@8 DD FLAT:??_R0?AVCwsGameServer@@@8 ; CwsGameServer::`RTTI Base Class Descriptor at (0,-1,0,64)'
	DD	01H
	DD	00H
	DD	0ffffffffH
	DD	00H
	DD	040H
	DD	FLAT:??_R3CwsGameServer@@8
rdata$r	ENDS
;	COMDAT ??_R2CwsGameServer@@8
rdata$r	SEGMENT
??_R2CwsGameServer@@8 DD FLAT:??_R1A@?0A@EA@CwsGameServer@@8 ; CwsGameServer::`RTTI Base Class Array'
	DD	FLAT:??_R13?0A@EA@MyWinsockBase@@8
rdata$r	ENDS
;	COMDAT ??_R3CwsGameServer@@8
rdata$r	SEGMENT
??_R3CwsGameServer@@8 DD 00H				; CwsGameServer::`RTTI Class Hierarchy Descriptor'
	DD	00H
	DD	02H
	DD	FLAT:??_R2CwsGameServer@@8
rdata$r	ENDS
;	COMDAT ??_R0?AVCwsGameServer@@@8
data$r	SEGMENT
??_R0?AVCwsGameServer@@@8 DD FLAT:??_7type_info@@6B@	; CwsGameServer `RTTI Type Descriptor'
	DD	00H
	DB	'.?AVCwsGameServer@@', 00H
data$r	ENDS
;	COMDAT ??_R4CwsGameServer@@6B@
rdata$r	SEGMENT
??_R4CwsGameServer@@6B@ DD 00H				; CwsGameServer::`RTTI Complete Object Locator'
	DD	00H
	DD	00H
	DD	FLAT:??_R0?AVCwsGameServer@@@8
	DD	FLAT:??_R3CwsGameServer@@8
rdata$r	ENDS
;	COMDAT ??_C@_0BF@GDJNGBDL@INVALID_SOCKET?5?$CFs?5?$CFd@
CONST	SEGMENT
??_C@_0BF@GDJNGBDL@INVALID_SOCKET?5?$CFs?5?$CFd@ DB 'INVALID_SOCKET %s %d'
	DB	00H						; `string'
CONST	ENDS
;	COMDAT ??_C@_0DP@CDHKBCGH@C?3?2Mu?5Online?2Mu?9GS?9Webzen?9MC?910@
CONST	SEGMENT
??_C@_0DP@CDHKBCGH@C?3?2Mu?5Online?2Mu?9GS?9Webzen?9MC?910@ DB 'C:\Mu Onl'
	DB	'ine\Mu-GS-Webzen-MC-10093\GameServer\wsGameServer.cpp', 00H ; `string'
CONST	ENDS
;	COMDAT ?__LINE__Var@?0??DataSocketSend@CwsGameServer@@QAEHIPADH@Z@4JA
_DATA	SEGMENT
?__LINE__Var@?0??DataSocketSend@CwsGameServer@@QAEHIPADH@Z@4JA DD 0efH ; `CwsGameServer::DataSocketSend'::`1'::__LINE__Var
_DATA	ENDS
;	COMDAT ??_C@_0BP@JMMAJAG@Server?5WSAAsyncSelect?5error?5?$CFd@
CONST	SEGMENT
??_C@_0BP@JMMAJAG@Server?5WSAAsyncSelect?5error?5?$CFd@ DB 'Server WSAAsy'
	DB	'ncSelect error %d', 00H			; `string'
CONST	ENDS
;	COMDAT ??_C@_0BH@BLCKGNNH@Server?5listen?5error?5?$CFd@
CONST	SEGMENT
??_C@_0BH@BLCKGNNH@Server?5listen?5error?5?$CFd@ DB 'Server listen error '
	DB	'%d', 00H					; `string'
CONST	ENDS
;	COMDAT ??_C@_0BF@OENIBBI@Server?5bind?5error?5?$CFd@
CONST	SEGMENT
??_C@_0BF@OENIBBI@Server?5bind?5error?5?$CFd@ DB 'Server bind error %d', 00H ; `string'
CONST	ENDS
;	COMDAT ??_C@_0BF@OCJBKION@windows?5handle?5error@
CONST	SEGMENT
??_C@_0BF@OCJBKION@windows?5handle?5error@ DB 'windows handle error', 00H ; `string'
CONST	ENDS
;	COMDAT ??_7CwsGameServer@@6B@
CONST	SEGMENT
??_7CwsGameServer@@6B@ DD FLAT:??_R4CwsGameServer@@6B@	; CwsGameServer::`vftable'
	DD	FLAT:??_ECwsGameServer@@UAEPAXI@Z
CONST	ENDS
; Function compile flags: /Odtp /ZI
;	COMDAT ??_GCwsGameServer@@UAEPAXI@Z
_TEXT	SEGMENT
_this$ = -4						; size = 4
___flags$ = 8						; size = 4
??_GCwsGameServer@@UAEPAXI@Z PROC			; CwsGameServer::`scalar deleting destructor', COMDAT
; _this$ = ecx
  00000	55		 push	 ebp
  00001	8b ec		 mov	 ebp, esp
  00003	83 ec 44	 sub	 esp, 68			; 00000044H
  00006	53		 push	 ebx
  00007	56		 push	 esi
  00008	57		 push	 edi
  00009	89 4d fc	 mov	 DWORD PTR _this$[ebp], ecx
  0000c	8b 4d fc	 mov	 ecx, DWORD PTR _this$[ebp]
  0000f	e8 00 00 00 00	 call	 ??1CwsGameServer@@UAE@XZ ; CwsGameServer::~CwsGameServer
  00014	8b 45 08	 mov	 eax, DWORD PTR ___flags$[ebp]
  00017	83 e0 01	 and	 eax, 1
  0001a	74 0e		 je	 SHORT $LN2@scalar
  0001c	6a 30		 push	 48			; 00000030H
  0001e	8b 45 fc	 mov	 eax, DWORD PTR _this$[ebp]
  00021	50		 push	 eax
  00022	e8 00 00 00 00	 call	 ??3@YAXPAXI@Z		; operator delete
  00027	83 c4 08	 add	 esp, 8
$LN2@scalar:
  0002a	8b 45 fc	 mov	 eax, DWORD PTR _this$[ebp]
  0002d	5f		 pop	 edi
  0002e	5e		 pop	 esi
  0002f	5b		 pop	 ebx
  00030	8b e5		 mov	 esp, ebp
  00032	5d		 pop	 ebp
  00033	c2 04 00	 ret	 4
??_GCwsGameServer@@UAEPAXI@Z ENDP			; CwsGameServer::`scalar deleting destructor'
_TEXT	ENDS
; Function compile flags: /Odtp /ZI
; File C:\Mu Online\Mu-GS-Webzen-MC-10093\GameServer\wsGameServer.cpp
;	COMDAT ??1CwsGameServer@@UAE@XZ
_TEXT	SEGMENT
_this$ = -4						; size = 4
??1CwsGameServer@@UAE@XZ PROC				; CwsGameServer::~CwsGameServer, COMDAT
; _this$ = ecx

; 27   : {

  00000	55		 push	 ebp
  00001	8b ec		 mov	 ebp, esp
  00003	83 ec 44	 sub	 esp, 68			; 00000044H
  00006	53		 push	 ebx
  00007	56		 push	 esi
  00008	57		 push	 edi
  00009	89 4d fc	 mov	 DWORD PTR _this$[ebp], ecx
  0000c	8b 45 fc	 mov	 eax, DWORD PTR _this$[ebp]
  0000f	c7 00 00 00 00
	00		 mov	 DWORD PTR [eax], OFFSET ??_7CwsGameServer@@6B@

; 28   : 
; 29   : }

  00015	8b 4d fc	 mov	 ecx, DWORD PTR _this$[ebp]
  00018	83 c1 04	 add	 ecx, 4
  0001b	e8 00 00 00 00	 call	 ??1MyWinsockBase@@QAE@XZ ; MyWinsockBase::~MyWinsockBase
  00020	5f		 pop	 edi
  00021	5e		 pop	 esi
  00022	5b		 pop	 ebx
  00023	8b e5		 mov	 esp, ebp
  00025	5d		 pop	 ebp
  00026	c3		 ret	 0
??1CwsGameServer@@UAE@XZ ENDP				; CwsGameServer::~CwsGameServer
_TEXT	ENDS
; Function compile flags: /Odtp /ZI
; File C:\Mu Online\Mu-GS-Webzen-MC-10093\GameServer\wsGameServer.cpp
;	COMDAT ??0CwsGameServer@@QAE@XZ
_TEXT	SEGMENT
_this$ = -4						; size = 4
??0CwsGameServer@@QAE@XZ PROC				; CwsGameServer::CwsGameServer, COMDAT
; _this$ = ecx

; 21   : {

  00000	55		 push	 ebp
  00001	8b ec		 mov	 ebp, esp
  00003	83 ec 44	 sub	 esp, 68			; 00000044H
  00006	53		 push	 ebx
  00007	56		 push	 esi
  00008	57		 push	 edi
  00009	89 4d fc	 mov	 DWORD PTR _this$[ebp], ecx
  0000c	8b 4d fc	 mov	 ecx, DWORD PTR _this$[ebp]
  0000f	83 c1 04	 add	 ecx, 4
  00012	e8 00 00 00 00	 call	 ??0MyWinsockBase@@QAE@XZ ; MyWinsockBase::MyWinsockBase
  00017	8b 45 fc	 mov	 eax, DWORD PTR _this$[ebp]
  0001a	c7 00 00 00 00
	00		 mov	 DWORD PTR [eax], OFFSET ??_7CwsGameServer@@6B@

; 22   : 	m_SendSec = 0;

  00020	8b 45 fc	 mov	 eax, DWORD PTR _this$[ebp]
  00023	c7 40 1c 00 00
	00 00		 mov	 DWORD PTR [eax+28], 0

; 23   : 	m_SendSecTmp = 0;

  0002a	8b 45 fc	 mov	 eax, DWORD PTR _this$[ebp]
  0002d	c7 40 20 00 00
	00 00		 mov	 DWORD PTR [eax+32], 0

; 24   : }

  00034	8b 45 fc	 mov	 eax, DWORD PTR _this$[ebp]
  00037	5f		 pop	 edi
  00038	5e		 pop	 esi
  00039	5b		 pop	 ebx
  0003a	8b e5		 mov	 esp, ebp
  0003c	5d		 pop	 ebp
  0003d	c3		 ret	 0
??0CwsGameServer@@QAE@XZ ENDP				; CwsGameServer::CwsGameServer
_TEXT	ENDS
; Function compile flags: /Odtp /ZI
; File C:\Mu Online\Mu-GS-Webzen-MC-10093\GameServer\wsGameServer.cpp
;	COMDAT ?CreateServer@CwsGameServer@@QAEHPADGKK@Z
_TEXT	SEGMENT
_nResult$ = -28						; size = 4
_addr$ = -24						; size = 16
_this$ = -8						; size = 4
__$ArrayPad$ = -4					; size = 4
_ip_addr$ = 8						; size = 4
_port$ = 12						; size = 2
_WinServerMsg$ = 16					; size = 4
_WinClientMsg$ = 20					; size = 4
?CreateServer@CwsGameServer@@QAEHPADGKK@Z PROC		; CwsGameServer::CreateServer, COMDAT
; _this$ = ecx

; 49   : {

  00000	55		 push	 ebp
  00001	8b ec		 mov	 ebp, esp
  00003	83 ec 5c	 sub	 esp, 92			; 0000005cH
  00006	a1 00 00 00 00	 mov	 eax, DWORD PTR ___security_cookie
  0000b	33 c5		 xor	 eax, ebp
  0000d	89 45 fc	 mov	 DWORD PTR __$ArrayPad$[ebp], eax
  00010	53		 push	 ebx
  00011	56		 push	 esi
  00012	57		 push	 edi
  00013	89 4d f8	 mov	 DWORD PTR _this$[ebp], ecx

; 50   : 	sockaddr_in	addr;
; 51   : 	int			nResult;
; 52   : 
; 53   : 	if( m_hWnd == NULL ) { MsgBox("windows handle error"); return FALSE; }

  00016	8b 45 f8	 mov	 eax, DWORD PTR _this$[ebp]
  00019	83 78 08 00	 cmp	 DWORD PTR [eax+8], 0
  0001d	75 14		 jne	 SHORT $LN2@CreateServ
  0001f	68 00 00 00 00	 push	 OFFSET ??_C@_0BF@OCJBKION@windows?5handle?5error@
  00024	e8 00 00 00 00	 call	 ?MsgBox@@YAXPADZZ	; MsgBox
  00029	83 c4 04	 add	 esp, 4
  0002c	33 c0		 xor	 eax, eax
  0002e	e9 0d 01 00 00	 jmp	 $LN1@CreateServ
$LN2@CreateServ:

; 54   : 
; 55   : 	memset(&addr, 0, sizeof(sockaddr_in));

  00033	6a 10		 push	 16			; 00000010H
  00035	6a 00		 push	 0
  00037	8d 45 e8	 lea	 eax, DWORD PTR _addr$[ebp]
  0003a	50		 push	 eax
  0003b	e8 00 00 00 00	 call	 _memset
  00040	83 c4 0c	 add	 esp, 12			; 0000000cH

; 56   : 	
; 57   : 	addr.sin_family			= PF_INET;

  00043	b8 02 00 00 00	 mov	 eax, 2
  00048	66 89 45 e8	 mov	 WORD PTR _addr$[ebp], ax

; 58   :     addr.sin_addr.s_addr	= htonl( INADDR_ANY );

  0004c	6a 00		 push	 0
  0004e	ff 15 00 00 00
	00		 call	 DWORD PTR __imp__htonl@4
  00054	89 45 ec	 mov	 DWORD PTR _addr$[ebp+4], eax

; 59   : 	addr.sin_port			= htons( port );

  00057	0f b7 45 0c	 movzx	 eax, WORD PTR _port$[ebp]
  0005b	50		 push	 eax
  0005c	ff 15 00 00 00
	00		 call	 DWORD PTR __imp__htons@4
  00062	66 89 45 ea	 mov	 WORD PTR _addr$[ebp+2], ax

; 60   :  
; 61   : 	nResult = bind(m_socket, (LPSOCKADDR)&addr, sizeof(addr) );

  00066	6a 10		 push	 16			; 00000010H
  00068	8d 45 e8	 lea	 eax, DWORD PTR _addr$[ebp]
  0006b	50		 push	 eax
  0006c	8b 4d f8	 mov	 ecx, DWORD PTR _this$[ebp]
  0006f	8b 51 0c	 mov	 edx, DWORD PTR [ecx+12]
  00072	52		 push	 edx
  00073	ff 15 00 00 00
	00		 call	 DWORD PTR __imp__bind@12
  00079	89 45 e4	 mov	 DWORD PTR _nResult$[ebp], eax

; 62   :     if( nResult == SOCKET_ERROR ) 

  0007c	83 7d e4 ff	 cmp	 DWORD PTR _nResult$[ebp], -1
  00080	75 29		 jne	 SHORT $LN3@CreateServ

; 63   : 	{
; 64   : 		LogAdd("Server bind error %d", WSAGetLastError());

  00082	ff 15 00 00 00
	00		 call	 DWORD PTR __imp__WSAGetLastError@0
  00088	50		 push	 eax
  00089	68 00 00 00 00	 push	 OFFSET ??_C@_0BF@OENIBBI@Server?5bind?5error?5?$CFd@
  0008e	ff 15 00 00 00
	00		 call	 DWORD PTR ?LogAdd@@3P6AXPADZZA ; LogAdd
  00094	83 c4 08	 add	 esp, 8

; 65   : 		closesocket(m_socket);

  00097	8b 45 f8	 mov	 eax, DWORD PTR _this$[ebp]
  0009a	8b 48 0c	 mov	 ecx, DWORD PTR [eax+12]
  0009d	51		 push	 ecx
  0009e	ff 15 00 00 00
	00		 call	 DWORD PTR __imp__closesocket@4

; 66   : 		return FALSE;

  000a4	33 c0		 xor	 eax, eax
  000a6	e9 95 00 00 00	 jmp	 $LN1@CreateServ
$LN3@CreateServ:

; 67   :     }
; 68   : 
; 69   : 	nResult = listen( m_socket, 4 );

  000ab	6a 04		 push	 4
  000ad	8b 45 f8	 mov	 eax, DWORD PTR _this$[ebp]
  000b0	8b 48 0c	 mov	 ecx, DWORD PTR [eax+12]
  000b3	51		 push	 ecx
  000b4	ff 15 00 00 00
	00		 call	 DWORD PTR __imp__listen@8
  000ba	89 45 e4	 mov	 DWORD PTR _nResult$[ebp], eax

; 70   :     if( nResult == SOCKET_ERROR) {

  000bd	83 7d e4 ff	 cmp	 DWORD PTR _nResult$[ebp], -1
  000c1	75 26		 jne	 SHORT $LN4@CreateServ

; 71   : 		closesocket(m_socket);

  000c3	8b 45 f8	 mov	 eax, DWORD PTR _this$[ebp]
  000c6	8b 48 0c	 mov	 ecx, DWORD PTR [eax+12]
  000c9	51		 push	 ecx
  000ca	ff 15 00 00 00
	00		 call	 DWORD PTR __imp__closesocket@4

; 72   : 		LogAdd("Server listen error %d", WSAGetLastError());

  000d0	ff 15 00 00 00
	00		 call	 DWORD PTR __imp__WSAGetLastError@0
  000d6	50		 push	 eax
  000d7	68 00 00 00 00	 push	 OFFSET ??_C@_0BH@BLCKGNNH@Server?5listen?5error?5?$CFd@
  000dc	ff 15 00 00 00
	00		 call	 DWORD PTR ?LogAdd@@3P6AXPADZZA ; LogAdd
  000e2	83 c4 08	 add	 esp, 8

; 73   : 		return FALSE;

  000e5	33 c0		 xor	 eax, eax
  000e7	eb 57		 jmp	 SHORT $LN1@CreateServ
$LN4@CreateServ:

; 74   :     }
; 75   : 
; 76   : 	nResult = WSAAsyncSelect( m_socket, m_hWnd, WinServerMsg, FD_ACCEPT);

  000e9	6a 08		 push	 8
  000eb	8b 45 10	 mov	 eax, DWORD PTR _WinServerMsg$[ebp]
  000ee	50		 push	 eax
  000ef	8b 4d f8	 mov	 ecx, DWORD PTR _this$[ebp]
  000f2	8b 51 08	 mov	 edx, DWORD PTR [ecx+8]
  000f5	52		 push	 edx
  000f6	8b 45 f8	 mov	 eax, DWORD PTR _this$[ebp]
  000f9	8b 48 0c	 mov	 ecx, DWORD PTR [eax+12]
  000fc	51		 push	 ecx
  000fd	ff 15 00 00 00
	00		 call	 DWORD PTR __imp__WSAAsyncSelect@16
  00103	89 45 e4	 mov	 DWORD PTR _nResult$[ebp], eax

; 77   :     if( nResult == SOCKET_ERROR) {

  00106	83 7d e4 ff	 cmp	 DWORD PTR _nResult$[ebp], -1
  0010a	75 26		 jne	 SHORT $LN5@CreateServ

; 78   : 		closesocket(m_socket);

  0010c	8b 45 f8	 mov	 eax, DWORD PTR _this$[ebp]
  0010f	8b 48 0c	 mov	 ecx, DWORD PTR [eax+12]
  00112	51		 push	 ecx
  00113	ff 15 00 00 00
	00		 call	 DWORD PTR __imp__closesocket@4

; 79   : 		LogAdd("Server WSAAsyncSelect error %d", WSAGetLastError());

  00119	ff 15 00 00 00
	00		 call	 DWORD PTR __imp__WSAGetLastError@0
  0011f	50		 push	 eax
  00120	68 00 00 00 00	 push	 OFFSET ??_C@_0BP@JMMAJAG@Server?5WSAAsyncSelect?5error?5?$CFd@
  00125	ff 15 00 00 00
	00		 call	 DWORD PTR ?LogAdd@@3P6AXPADZZA ; LogAdd
  0012b	83 c4 08	 add	 esp, 8

; 80   :         return FALSE;

  0012e	33 c0		 xor	 eax, eax
  00130	eb 0e		 jmp	 SHORT $LN1@CreateServ
$LN5@CreateServ:

; 81   :     }
; 82   : 	//LogAdd("recvbuffer size  %d %d", GetSendBuffSize(), GetRecvBuffSize());
; 83   : 	/*
; 84   : 	LINGER ling;
; 85   : 	ling.l_onoff = 1;
; 86   : 	ling.l_linger = 5;
; 87   : 	setsockopt(m_socket, SOL_SOCKET, SO_LINGER, (LPSTR)&ling, sizeof(ling));
; 88   : */
; 89   : 	m_WinClientMsg = WinClientMsg;

  00132	8b 45 f8	 mov	 eax, DWORD PTR _this$[ebp]
  00135	8b 4d 14	 mov	 ecx, DWORD PTR _WinClientMsg$[ebp]
  00138	89 48 2c	 mov	 DWORD PTR [eax+44], ecx

; 90   : 	return TRUE;

  0013b	b8 01 00 00 00	 mov	 eax, 1
$LN1@CreateServ:

; 91   : }

  00140	5f		 pop	 edi
  00141	5e		 pop	 esi
  00142	5b		 pop	 ebx
  00143	8b 4d fc	 mov	 ecx, DWORD PTR __$ArrayPad$[ebp]
  00146	33 cd		 xor	 ecx, ebp
  00148	e8 00 00 00 00	 call	 @__security_check_cookie@4
  0014d	8b e5		 mov	 esp, ebp
  0014f	5d		 pop	 ebp
  00150	c2 10 00	 ret	 16			; 00000010H
?CreateServer@CwsGameServer@@QAEHPADGKK@Z ENDP		; CwsGameServer::CreateServer
_TEXT	ENDS
; Function compile flags: /Odtp /ZI
; File C:\Mu Online\Mu-GS-Webzen-MC-10093\GameServer\wsGameServer.cpp
;	COMDAT ?DataSocketSend@CwsGameServer@@QAEHIPADH@Z
_TEXT	SEGMENT
_nLeft$ = -16						; size = 4
_nDx$ = -12						; size = 4
_nResult$ = -8						; size = 4
_this$ = -4						; size = 4
_socket$ = 8						; size = 4
_buf$ = 12						; size = 4
_len$ = 16						; size = 4
?DataSocketSend@CwsGameServer@@QAEHIPADH@Z PROC		; CwsGameServer::DataSocketSend, COMDAT
; _this$ = ecx

; 239  : {	

  00000	55		 push	 ebp
  00001	8b ec		 mov	 ebp, esp
  00003	83 ec 50	 sub	 esp, 80			; 00000050H
  00006	53		 push	 ebx
  00007	56		 push	 esi
  00008	57		 push	 edi
  00009	89 4d fc	 mov	 DWORD PTR _this$[ebp], ecx

; 240  : 	int nResult;
; 241  : 	int nDx=0;

  0000c	c7 45 f4 00 00
	00 00		 mov	 DWORD PTR _nDx$[ebp], 0

; 242  : 	int nLeft;
; 243  : 	
; 244  : 	if( socket == INVALID_SOCKET ) { 

  00013	83 7d 08 ff	 cmp	 DWORD PTR _socket$[ebp], -1
  00017	75 20		 jne	 SHORT $LN4@DataSocket

; 245  : 		LogAdd("INVALID_SOCKET %s %d", __FILE__, __LINE__);

  00019	a1 00 00 00 00	 mov	 eax, DWORD PTR ?__LINE__Var@?0??DataSocketSend@CwsGameServer@@QAEHIPADH@Z@4JA
  0001e	83 c0 06	 add	 eax, 6
  00021	50		 push	 eax
  00022	68 00 00 00 00	 push	 OFFSET ??_C@_0DP@CDHKBCGH@C?3?2Mu?5Online?2Mu?9GS?9Webzen?9MC?910@
  00027	68 00 00 00 00	 push	 OFFSET ??_C@_0BF@GDJNGBDL@INVALID_SOCKET?5?$CFs?5?$CFd@
  0002c	ff 15 00 00 00
	00		 call	 DWORD PTR ?LogAdd@@3P6AXPADZZA ; LogAdd
  00032	83 c4 0c	 add	 esp, 12			; 0000000cH

; 246  : 		return FALSE;

  00035	33 c0		 xor	 eax, eax
  00037	eb 63		 jmp	 SHORT $LN1@DataSocket
$LN4@DataSocket:

; 247  : 	}
; 248  : 	
; 249  : 	nLeft = len;

  00039	8b 45 10	 mov	 eax, DWORD PTR _len$[ebp]
  0003c	89 45 f0	 mov	 DWORD PTR _nLeft$[ebp], eax
$LN2@DataSocket:

; 250  : 	while( nLeft > 0 )

  0003f	83 7d f0 00	 cmp	 DWORD PTR _nLeft$[ebp], 0
  00043	7e 52		 jle	 SHORT $LN3@DataSocket

; 251  : 	{
; 252  : 		nResult = send(socket, (char*)buf+nDx, len-nDx, 0);

  00045	6a 00		 push	 0
  00047	8b 45 10	 mov	 eax, DWORD PTR _len$[ebp]
  0004a	2b 45 f4	 sub	 eax, DWORD PTR _nDx$[ebp]
  0004d	50		 push	 eax
  0004e	8b 4d 0c	 mov	 ecx, DWORD PTR _buf$[ebp]
  00051	03 4d f4	 add	 ecx, DWORD PTR _nDx$[ebp]
  00054	51		 push	 ecx
  00055	8b 55 08	 mov	 edx, DWORD PTR _socket$[ebp]
  00058	52		 push	 edx
  00059	ff 15 00 00 00
	00		 call	 DWORD PTR __imp__send@16
  0005f	89 45 f8	 mov	 DWORD PTR _nResult$[ebp], eax

; 253  : 
; 254  : 		if( nResult == SOCKET_ERROR )

  00062	83 7d f8 ff	 cmp	 DWORD PTR _nResult$[ebp], -1
  00066	75 13		 jne	 SHORT $LN5@DataSocket

; 255  : 		{
; 256  : 			if( WSAGetLastError() != WSAEWOULDBLOCK )

  00068	ff 15 00 00 00
	00		 call	 DWORD PTR __imp__WSAGetLastError@0
  0006e	3d 33 27 00 00	 cmp	 eax, 10035		; 00002733H
  00073	74 04		 je	 SHORT $LN7@DataSocket

; 257  : 			{
; 258  : 				return FALSE;

  00075	33 c0		 xor	 eax, eax
  00077	eb 23		 jmp	 SHORT $LN1@DataSocket
$LN7@DataSocket:

; 259  : 			}
; 260  : 		} // SOCKET_ERROR

  00079	eb 1a		 jmp	 SHORT $LN6@DataSocket
$LN5@DataSocket:

; 261  : 		else
; 262  : 		{
; 263  : 			nDx += nResult;

  0007b	8b 45 f4	 mov	 eax, DWORD PTR _nDx$[ebp]
  0007e	03 45 f8	 add	 eax, DWORD PTR _nResult$[ebp]
  00081	89 45 f4	 mov	 DWORD PTR _nDx$[ebp], eax

; 264  : 			nLeft -= nResult;

  00084	8b 45 f0	 mov	 eax, DWORD PTR _nLeft$[ebp]
  00087	2b 45 f8	 sub	 eax, DWORD PTR _nResult$[ebp]
  0008a	89 45 f0	 mov	 DWORD PTR _nLeft$[ebp], eax

; 265  : 			if( nLeft <= 0 ) break;

  0008d	83 7d f0 00	 cmp	 DWORD PTR _nLeft$[ebp], 0
  00091	7f 02		 jg	 SHORT $LN6@DataSocket
  00093	eb 02		 jmp	 SHORT $LN3@DataSocket
$LN6@DataSocket:

; 266  : 		}
; 267  : 	}	

  00095	eb a8		 jmp	 SHORT $LN2@DataSocket
$LN3@DataSocket:

; 268  : 	return TRUE;

  00097	b8 01 00 00 00	 mov	 eax, 1
$LN1@DataSocket:

; 269  : }

  0009c	5f		 pop	 edi
  0009d	5e		 pop	 esi
  0009e	5b		 pop	 ebx
  0009f	8b e5		 mov	 esp, ebp
  000a1	5d		 pop	 ebp
  000a2	c2 0c 00	 ret	 12			; 0000000cH
?DataSocketSend@CwsGameServer@@QAEHIPADH@Z ENDP		; CwsGameServer::DataSocketSend
_TEXT	ENDS
; Function compile flags: /Odtp /ZI
; File C:\Mu Online\Mu-GS-Webzen-MC-10093\GameServer\wsGameServer.cpp
;	COMDAT ?DataSendW@CwsGameServer@@QAEHHPADH@Z
_TEXT	SEGMENT
_this$ = -4						; size = 4
_uindex$ = 8						; size = 4
_buf$ = 12						; size = 4
_len$ = 16						; size = 4
?DataSendW@CwsGameServer@@QAEHHPADH@Z PROC		; CwsGameServer::DataSendW, COMDAT
; _this$ = ecx

; 148  : {	

  00000	55		 push	 ebp
  00001	8b ec		 mov	 ebp, esp
  00003	83 ec 44	 sub	 esp, 68			; 00000044H
  00006	53		 push	 ebx
  00007	56		 push	 esi
  00008	57		 push	 edi
  00009	89 4d fc	 mov	 DWORD PTR _this$[ebp], ecx

; 149  : 	
; 150  : 	//IoSend(uindex, (LPBYTE)buf, len);
; 151  : 	return TRUE;

  0000c	b8 01 00 00 00	 mov	 eax, 1

; 152  : 	
; 153  : 	/*
; 154  : 	int nResult;
; 155  : 	int nDx=0;
; 156  : 	int nLeft;
; 157  : 	LPBYTE sendbuf;
; 158  : 	
; 159  : 	
; 160  : 	if( len < 1 ) return FALSE;
; 161  : 
; 162  : 	if( !CHECK_LIMIT(uindex, MAX_OBJECT) )
; 163  : 	{
; 164  : 		LogAdd("error : %s %d",__FILE__, __LINE__);
; 165  : 		return FALSE;
; 166  : 	}
; 167  : 		
; 168  : 	SOCKET socket = gObj[uindex].m_socket;
; 169  : 
; 170  : 	if( socket == INVALID_SOCKET ) { 
; 171  : #ifdef _DEBUG
; 172  : 		LogAdd("INVALID_SOCKET %s %d %d", __FILE__, __LINE__, uindex);
; 173  : #endif
; 174  : 		return FALSE; 
; 175  : 	}
; 176  : 
; 177  : 	nLeft = len;
; 178  : 	sendbuf		        = gObj[uindex].sb.m_SendBuf;
; 179  : 	int & sendbuflen	= gObj[uindex].sb.m_SendBufLen;
; 180  : 
; 181  : 	if( sendbuflen+len > MAX_SENDBUFSIZE )
; 182  : 	{
; 183  : 		LogAdd("복사할 양이 버퍼보다 더 크다.");
; 184  : 		sendbuflen = 0;
; 185  : 		Close(socket);
; 186  : 		return FALSE;
; 187  : 	}
; 188  : 
; 189  : 	memcpy(sendbuf+sendbuflen, buf, len);
; 190  : 	sendbuflen += len;
; 191  : 
; 192  : 	while( nLeft > 0 )
; 193  : 	{
; 194  : 		nResult = send(socket, (char*)buf+nDx, sendbuflen-nDx, 0);
; 195  : 
; 196  : 		if( nResult == SOCKET_ERROR )
; 197  : 		{
; 198  : 			if( WSAGetLastError() != WSAEWOULDBLOCK )
; 199  : 			{
; 200  : 				LogAddC(LOGC_RED, "%d Send Error FILE:%s LINE:%d Err:%d size:%d", uindex, __FILE__, __LINE__, WSAGetLastError(), len-nDx);
; 201  : 				//LogAdd("Close Message %s %d", __FILE__, __LINE__);				
; 202  : 				sendbuflen = 0;
; 203  : 				Close(socket);
; 204  : 				gObjDel(uindex);
; 205  : 				return FALSE;
; 206  : 			}
; 207  : 			else
; 208  : 			{
; 209  : 				LogAddC(LOGC_RED,"%d) 사용자 버퍼에 복사 cursize:%d, len:%d", uindex, sendbuflen, nLeft);
; 210  : 				if( ( sendbuflen+nLeft) > MAX_SENDBUFSIZE ) 
; 211  : 				{
; 212  : 					LogAdd("(%d) 버퍼가 꽉차서 더이상 저장할수 없다.. 사용자 접속 종료 시킨다. %d, %d", uindex, (sendbuflen+nLeft) , MAX_SENDBUFSIZE);
; 213  : 					sendbuflen = 0;
; 214  : 					Close(socket);
; 215  : 					gObjDel(uindex);					
; 216  : 					return FALSE;
; 217  : 				}
; 218  : 				memcpy(sendbuf, sendbuf+nDx, sendbuflen-nDx);
; 219  : 				break;
; 220  : 			}
; 221  : 		} // SOCKET_ERROR
; 222  : 		else {
; 223  : 			if( nResult == 0 ) break;
; 224  : #ifdef _DEBUG_PROTOCOL
; 225  : 		//	LogAddHeadHex(2, buf, len);
; 226  : #endif
; 227  : 		}
; 228  : 		nDx += nResult;
; 229  : 		nLeft -= nResult;
; 230  : 		m_SendSecTmp += nResult;
; 231  : 		if( nLeft <= 0 ) break;
; 232  : 	}	
; 233  : 	sendbuflen -= nDx;
; 234  : 	return TRUE;*/
; 235  : }

  00011	5f		 pop	 edi
  00012	5e		 pop	 esi
  00013	5b		 pop	 ebx
  00014	8b e5		 mov	 esp, ebp
  00016	5d		 pop	 ebp
  00017	c2 0c 00	 ret	 12			; 0000000cH
?DataSendW@CwsGameServer@@QAEHHPADH@Z ENDP		; CwsGameServer::DataSendW
_TEXT	ENDS
; Function compile flags: /Odtp /ZI
; File C:\Mu Online\Mu-GS-Webzen-MC-10093\GameServer\wsGameServer.cpp
;	COMDAT ?FDWRITE_MsgDataSend@CwsGameServer@@QAEHI@Z
_TEXT	SEGMENT
_this$ = -4						; size = 4
_socket$ = 8						; size = 4
?FDWRITE_MsgDataSend@CwsGameServer@@QAEHI@Z PROC	; CwsGameServer::FDWRITE_MsgDataSend, COMDAT
; _this$ = ecx

; 273  : {

  00000	55		 push	 ebp
  00001	8b ec		 mov	 ebp, esp
  00003	83 ec 44	 sub	 esp, 68			; 00000044H
  00006	53		 push	 ebx
  00007	56		 push	 esi
  00008	57		 push	 edi
  00009	89 4d fc	 mov	 DWORD PTR _this$[ebp], ecx

; 274  : 	//int nResult;
; 275  : 	//int nDx;
; 276  : 	return FALSE;

  0000c	33 c0		 xor	 eax, eax

; 277  : 
; 278  : 	/*
; 279  : 	int     uindex = gObjGetSocket(socket);
; 280  : 	if( uindex < 0 ) return FALSE;
; 281  : 
; 282  : 	LPBYTE	sendbuf		= gObj[uindex].sb.m_SendBuf;
; 283  : 	int *	sendbuflen  = &gObj[uindex].sb.m_SendBufLen;
; 284  : 	int		nLeft		= (*sendbuflen);
; 285  : 
; 286  : 	nDx = 0;
; 287  : 	
; 288  : 	while( (*sendbuflen) > 0 ) 
; 289  : 	{
; 290  : 		nResult = send(socket, (char*)sendbuf+nDx, (*sendbuflen)-nDx, 0);
; 291  : 		//cLogProc.Add("fd_write %d byte 메시지 보냄 ", nResult);
; 292  : 		LogAdd("fdwrite : %d 데이터를 보냄", nResult);
; 293  : 		if( nResult == SOCKET_ERROR )
; 294  : 		{
; 295  : 			if( WSAGetLastError() != WSAEWOULDBLOCK )
; 296  : 			{
; 297  : 				LogAdd("FD_WRITE send() 에러 %d", WSAGetLastError());
; 298  : 				Close(socket);
; 299  : 				gObjDel(uindex);				
; 300  : 				return FALSE;
; 301  : 			}
; 302  : 			else 
; 303  : 			{
; 304  : 				//cLogProc.Add("FD_WRITE send() WSAEWOULDBLOCK : %d", WSAGetLastError());
; 305  : 				break;
; 306  : 			}
; 307  : 		}
; 308  : 		else {
; 309  : 			if( nResult <= 0 ) {
; 310  : 				LogAdd("send() result is zero %d", WSAGetLastError());			
; 311  : 				Close(socket);
; 312  : 				gObjDel(uindex);
; 313  : 				return FALSE;
; 314  : 			}			
; 315  : #ifdef _DEBUG_PROTOCOL
; 316  : 			//LogAddHeadHex(3, (char*)sendbuf, (*sendbuflen)-nDx);
; 317  : #endif
; 318  : 		}
; 319  : 		nDx += nResult;
; 320  : 		(*sendbuflen) -= nResult;		
; 321  : 	}
; 322  : 	return TRUE;
; 323  : 	*/
; 324  : }

  0000e	5f		 pop	 edi
  0000f	5e		 pop	 esi
  00010	5b		 pop	 ebx
  00011	8b e5		 mov	 esp, ebp
  00013	5d		 pop	 ebp
  00014	c2 04 00	 ret	 4
?FDWRITE_MsgDataSend@CwsGameServer@@QAEHI@Z ENDP	; CwsGameServer::FDWRITE_MsgDataSend
_TEXT	ENDS
; Function compile flags: /Odtp /ZI
; File C:\Mu Online\Mu-GS-Webzen-MC-10093\GameServer\wsGameServer.cpp
;	COMDAT ?DataRecv@CwsGameServer@@QAEHI@Z
_TEXT	SEGMENT
_this$ = -4						; size = 4
_socket$ = 8						; size = 4
?DataRecv@CwsGameServer@@QAEHI@Z PROC			; CwsGameServer::DataRecv, COMDAT
; _this$ = ecx

; 327  : {	

  00000	55		 push	 ebp
  00001	8b ec		 mov	 ebp, esp
  00003	83 ec 44	 sub	 esp, 68			; 00000044H
  00006	53		 push	 ebx
  00007	56		 push	 esi
  00008	57		 push	 edi
  00009	89 4d fc	 mov	 DWORD PTR _this$[ebp], ecx

; 328  : 	/*int		nResult;
; 329  : 	int		uindex;
; 330  : 	LPBYTE	recvbuf;
; 331  : 	uindex = gObjGetSocket(socket);
; 332  : 
; 333  : 	if( uindex < 0 ) return FALSE;
; 334  : 	
; 335  : 	recvbuf = gObj[uindex].sb.m_RecvBuf;
; 336  : 	int & recvbuflen = gObj[uindex].sb.m_RecvBufLen;
; 337  : 
; 338  : 	if( MAX_RECVBUFSIZE <= recvbuflen ) 
; 339  : 	{
; 340  : 		LogAdd("error : %s %d",__FILE__, __LINE__);
; 341  : 		return FALSE;
; 342  : 	}
; 343  : 
; 344  : 	nResult = recv( socket, (char*)recvbuf+recvbuflen, MAX_RECVBUFSIZE-recvbuflen, 0);
; 345  : 	if( nResult == 0 ) //접속이 끊겼씀.
; 346  : 	{
; 347  : 		LogAdd("접속 종료됨 UserIndex:%d Err:%d", uindex, WSAGetLastError());		
; 348  : 		Close(socket);
; 349  : 		gObjDel(uindex);
; 350  : 		return 1;
; 351  : 	}
; 352  : 	if( nResult == SOCKET_ERROR )
; 353  : 	{
; 354  : 		if( WSAGetLastError() == WSAEWOULDBLOCK )
; 355  : 		{
; 356  : 			return 1;
; 357  : 		}
; 358  : 		else {
; 359  : 			LogAdd("recv() 받기 에러 %d", WSAGetLastError());
; 360  : 			switch( WSAGetLastError())
; 361  : 			{
; 362  : 			case 10053 :
; 363  : 				LogAdd("error : 10053 에러로 종료됨 UserIndex:%d", uindex);
; 364  : 				Close(socket);
; 365  : 				gObjDel(uindex);				
; 366  : 				break;
; 367  : 			}
; 368  : 		}
; 369  : 		return 1;
; 370  : 	}	
; 371  : 	
; 372  : #ifdef _DEBUG_PROTOCOL
; 373  : 	//LogAddHeadHex(4, (char*)recvbuf+recvbuflen, nResult);
; 374  : #endif
; 375  : 	
; 376  : 	recvbuflen += nResult;
; 377  : 
; 378  : 	if( recvbuflen < 3 ) {
; 379  : 		return 3;	
; 380  : 	}
; 381  : 	
; 382  : 	m_RecvSecTmp += nResult;
; 383  : 	
; 384  : 	int lOfs=0;
; 385  : 	int size=0;
; 386  : 	BYTE headcode;
; 387  : 
; 388  : 	while(1)
; 389  : 	{
; 390  : 		if( recvbuf[lOfs] == 0xC1 ) //
; 391  : 		{
; 392  : 			LPPBMSG_HEAD lphead=(LPPBMSG_HEAD)(recvbuf+lOfs);
; 393  : 			size = lphead->size;
; 394  : 			headcode = lphead->headcode;
; 395  : 		}
; 396  : 		else if( recvbuf[lOfs] == 0xC2 ) //
; 397  : 		{
; 398  : 			LPPWMSG_HEAD lphead=(LPPWMSG_HEAD)(recvbuf+lOfs);
; 399  : 			size = ((WORD)(lphead->sizeH)<<8);
; 400  : 			size |= (WORD)(lphead->sizeL);
; 401  : 			headcode = lphead->headcode;
; 402  : 		}
; 403  : 		else  // 헤더가 맞지 않다면..
; 404  : 		{
; 405  : 			LogAdd("헤더가 올바르지 않다.(%s %d)lOfs:%d, size:%d", __FILE__, __LINE__, lOfs, recvbuflen);
; 406  : 			recvbuflen = 0;
; 407  : 			Close(socket);
; 408  : 			gObjDel(uindex);
; 409  : 			return FALSE;
; 410  : 		}
; 411  : 		if( size <= 0 )
; 412  : 		{
; 413  : 			LogAdd("size가 %d이다.", size);
; 414  : 			Close(socket);
; 415  : 			gObjDel(uindex);
; 416  : 			return FALSE;
; 417  : 		}
; 418  : 		if( size <= recvbuflen )	// 데이터가 크기만큼 존재하면..
; 419  : 		{
; 420  : 			ProtocolCore(headcode, (recvbuf+lOfs), size, uindex);
; 421  : 			lOfs += size;
; 422  : 			recvbuflen -= size;
; 423  : 			if( recvbuflen <= 0 ) break;
; 424  : 		}			
; 425  : 		else {	// recv 데이터가 아직 완성되지 않았다면..
; 426  : 			if( lOfs > 0 )  // 하나이상 데이터를 보낸 후라면..
; 427  : 			{
; 428  : 				if( recvbuflen < 1 ) 
; 429  : 				{
; 430  : 					LogAdd("recvbuflen 이 1보다 작다..");
; 431  : 					break;
; 432  : 				}
; 433  : 				else {
; 434  : 				//	if( (*recvbuflen) > lOfs )
; 435  : 					//{
; 436  : 					memcpy(recvbuf, (recvbuf+lOfs), recvbuflen); // 남은만큼 복사한다.
; 437  : 					//cLogProc.Add("%d, 남은만큼 복사했다. ofs:%d  len:%d", lphead->size, lOfs, (*recvbuflen));
; 438  : 					//}
; 439  : 					//else {
; 440  : 						
; 441  : 					//}
; 442  : 				}
; 443  : 			}
; 444  : 			break;
; 445  : 		}
; 446  : 	}
; 447  : 	*/
; 448  : 	return 0;

  0000c	33 c0		 xor	 eax, eax

; 449  : }

  0000e	5f		 pop	 edi
  0000f	5e		 pop	 esi
  00010	5b		 pop	 ebx
  00011	8b e5		 mov	 esp, ebp
  00013	5d		 pop	 ebp
  00014	c2 04 00	 ret	 4
?DataRecv@CwsGameServer@@QAEHI@Z ENDP			; CwsGameServer::DataRecv
_TEXT	ENDS
; Function compile flags: /Odtp /ZI
; File C:\Mu Online\Mu-GS-Webzen-MC-10093\GameServer\wsGameServer.cpp
;	COMDAT ?AcceptSocket@CwsGameServer@@QAEHAAIAAUin_addr@@@Z
_TEXT	SEGMENT
_ling$ = -40						; size = 4
_nResult$ = -36						; size = 4
_Len$ = -32						; size = 4
_cAddr$ = -28						; size = 16
_cSocket$ = -12						; size = 4
_this$ = -8						; size = 4
__$ArrayPad$ = -4					; size = 4
_clientSocket$ = 8					; size = 4
_cInAddr$ = 12						; size = 4
?AcceptSocket@CwsGameServer@@QAEHAAIAAUin_addr@@@Z PROC	; CwsGameServer::AcceptSocket, COMDAT
; _this$ = ecx

; 94   : {

  00000	55		 push	 ebp
  00001	8b ec		 mov	 ebp, esp
  00003	83 ec 68	 sub	 esp, 104		; 00000068H
  00006	a1 00 00 00 00	 mov	 eax, DWORD PTR ___security_cookie
  0000b	33 c5		 xor	 eax, ebp
  0000d	89 45 fc	 mov	 DWORD PTR __$ArrayPad$[ebp], eax
  00010	53		 push	 ebx
  00011	56		 push	 esi
  00012	57		 push	 edi
  00013	89 4d f8	 mov	 DWORD PTR _this$[ebp], ecx

; 95   : 	SOCKET		cSocket;
; 96   : 	SOCKADDR_IN cAddr;	
; 97   : 	int			Len;
; 98   : 	int			nResult;
; 99   : 	
; 100  : 	Len = sizeof(SOCKADDR_IN);

  00016	c7 45 e0 10 00
	00 00		 mov	 DWORD PTR _Len$[ebp], 16 ; 00000010H

; 101  : 	cSocket = accept( m_socket, (LPSOCKADDR)&cAddr, &Len);

  0001d	8d 45 e0	 lea	 eax, DWORD PTR _Len$[ebp]
  00020	50		 push	 eax
  00021	8d 4d e4	 lea	 ecx, DWORD PTR _cAddr$[ebp]
  00024	51		 push	 ecx
  00025	8b 55 f8	 mov	 edx, DWORD PTR _this$[ebp]
  00028	8b 42 0c	 mov	 eax, DWORD PTR [edx+12]
  0002b	50		 push	 eax
  0002c	ff 15 00 00 00
	00		 call	 DWORD PTR __imp__accept@12
  00032	89 45 f4	 mov	 DWORD PTR _cSocket$[ebp], eax

; 102  : 	if( cSocket != INVALID_SOCKET )

  00035	83 7d f4 ff	 cmp	 DWORD PTR _cSocket$[ebp], -1
  00039	74 6c		 je	 SHORT $LN2@AcceptSock

; 103  : 	{
; 104  : 		memcpy( &cInAddr, &cAddr.sin_addr.s_addr, 4 );

  0003b	6a 04		 push	 4
  0003d	8d 45 e8	 lea	 eax, DWORD PTR _cAddr$[ebp+4]
  00040	50		 push	 eax
  00041	8b 4d 0c	 mov	 ecx, DWORD PTR _cInAddr$[ebp]
  00044	51		 push	 ecx
  00045	e8 00 00 00 00	 call	 _memcpy
  0004a	83 c4 0c	 add	 esp, 12			; 0000000cH

; 105  : 		if( IpCache.AddIp(inet_ntoa(cInAddr)) == FALSE )

  0004d	8b 45 0c	 mov	 eax, DWORD PTR _cInAddr$[ebp]
  00050	8b 08		 mov	 ecx, DWORD PTR [eax]
  00052	51		 push	 ecx
  00053	ff 15 00 00 00
	00		 call	 DWORD PTR __imp__inet_ntoa@4
  00059	50		 push	 eax
  0005a	b9 00 00 00 00	 mov	 ecx, OFFSET ?IpCache@@3VCIpCache@@A ; IpCache
  0005f	e8 00 00 00 00	 call	 ?AddIp@CIpCache@@QAEHPAD@Z ; CIpCache::AddIp
  00064	85 c0		 test	 eax, eax
  00066	75 0e		 jne	 SHORT $LN3@AcceptSock

; 106  : 		{
; 107  : 			closesocket(cSocket);

  00068	8b 45 f4	 mov	 eax, DWORD PTR _cSocket$[ebp]
  0006b	50		 push	 eax
  0006c	ff 15 00 00 00
	00		 call	 DWORD PTR __imp__closesocket@4

; 108  : 			return FALSE;

  00072	33 c0		 xor	 eax, eax
  00074	eb 66		 jmp	 SHORT $LN1@AcceptSock
$LN3@AcceptSock:

; 109  : 		}
; 110  : 
; 111  : 		//LogAdd("사용자가 접속요청(Accept) Address:%s, port %d socket number:%d", inet_ntoa(clientIn), ntohs(clientAddr.sin_port) , clientSocket);
; 112  : 		nResult = WSAAsyncSelect( cSocket, m_hWnd, m_WinClientMsg, FD_READ|FD_WRITE|FD_CLOSE );

  00076	6a 23		 push	 35			; 00000023H
  00078	8b 45 f8	 mov	 eax, DWORD PTR _this$[ebp]
  0007b	8b 48 2c	 mov	 ecx, DWORD PTR [eax+44]
  0007e	51		 push	 ecx
  0007f	8b 55 f8	 mov	 edx, DWORD PTR _this$[ebp]
  00082	8b 42 08	 mov	 eax, DWORD PTR [edx+8]
  00085	50		 push	 eax
  00086	8b 4d f4	 mov	 ecx, DWORD PTR _cSocket$[ebp]
  00089	51		 push	 ecx
  0008a	ff 15 00 00 00
	00		 call	 DWORD PTR __imp__WSAAsyncSelect@16
  00090	89 45 dc	 mov	 DWORD PTR _nResult$[ebp], eax

; 113  : 		if( nResult == SOCKET_ERROR) {

  00093	83 7d dc ff	 cmp	 DWORD PTR _nResult$[ebp], -1
  00097	75 0e		 jne	 SHORT $LN2@AcceptSock

; 114  : 			closesocket(cSocket);

  00099	8b 45 f4	 mov	 eax, DWORD PTR _cSocket$[ebp]
  0009c	50		 push	 eax
  0009d	ff 15 00 00 00
	00		 call	 DWORD PTR __imp__closesocket@4

; 115  : 			//LogAdd("Server WSAAsyncSelect error %d", WSAGetLastError());
; 116  : 			return FALSE;

  000a3	33 c0		 xor	 eax, eax
  000a5	eb 35		 jmp	 SHORT $LN1@AcceptSock
$LN2@AcceptSock:

; 117  : 		}
; 118  : 	}
; 119  : 	clientSocket = cSocket;

  000a7	8b 45 08	 mov	 eax, DWORD PTR _clientSocket$[ebp]
  000aa	8b 4d f4	 mov	 ecx, DWORD PTR _cSocket$[ebp]
  000ad	89 08		 mov	 DWORD PTR [eax], ecx

; 120  : 	
; 121  : 	LINGER ling;
; 122  : 	ling.l_onoff = 0;

  000af	33 c0		 xor	 eax, eax
  000b1	66 89 45 d8	 mov	 WORD PTR _ling$[ebp], ax

; 123  : 	ling.l_linger = 0;

  000b5	33 c0		 xor	 eax, eax
  000b7	66 89 45 da	 mov	 WORD PTR _ling$[ebp+2], ax

; 124  : 	setsockopt(clientSocket, SOL_SOCKET, SO_DONTLINGER, (LPSTR)&ling, sizeof(ling));

  000bb	6a 04		 push	 4
  000bd	8d 45 d8	 lea	 eax, DWORD PTR _ling$[ebp]
  000c0	50		 push	 eax
  000c1	68 7f ff ff ff	 push	 -129			; ffffff7fH
  000c6	68 ff ff 00 00	 push	 65535			; 0000ffffH
  000cb	8b 4d 08	 mov	 ecx, DWORD PTR _clientSocket$[ebp]
  000ce	8b 11		 mov	 edx, DWORD PTR [ecx]
  000d0	52		 push	 edx
  000d1	ff 15 00 00 00
	00		 call	 DWORD PTR __imp__setsockopt@20

; 125  : 	
; 126  : 	return TRUE;

  000d7	b8 01 00 00 00	 mov	 eax, 1
$LN1@AcceptSock:

; 127  : }

  000dc	5f		 pop	 edi
  000dd	5e		 pop	 esi
  000de	5b		 pop	 ebx
  000df	8b 4d fc	 mov	 ecx, DWORD PTR __$ArrayPad$[ebp]
  000e2	33 cd		 xor	 ecx, ebp
  000e4	e8 00 00 00 00	 call	 @__security_check_cookie@4
  000e9	8b e5		 mov	 esp, ebp
  000eb	5d		 pop	 ebp
  000ec	c2 08 00	 ret	 8
?AcceptSocket@CwsGameServer@@QAEHAAIAAUin_addr@@@Z ENDP	; CwsGameServer::AcceptSocket
_TEXT	ENDS
; Function compile flags: /Odtp /ZI
; File C:\Mu Online\Mu-GS-Webzen-MC-10093\GameServer\wsGameServer.cpp
;	COMDAT ?SetSocketBuffer@CwsGameServer@@QAEHHIPAD@Z
_TEXT	SEGMENT
_this$ = -4						; size = 4
_index$ = 8						; size = 4
_socket$ = 12						; size = 4
_ip$ = 16						; size = 4
?SetSocketBuffer@CwsGameServer@@QAEHHIPAD@Z PROC	; CwsGameServer::SetSocketBuffer, COMDAT
; _this$ = ecx

; 452  : {

  00000	55		 push	 ebp
  00001	8b ec		 mov	 ebp, esp
  00003	83 ec 44	 sub	 esp, 68			; 00000044H
  00006	53		 push	 ebx
  00007	56		 push	 esi
  00008	57		 push	 edi
  00009	89 4d fc	 mov	 DWORD PTR _this$[ebp], ecx

; 453  : 	/*
; 454  : 	if( !CHECK_LIMIT(index, MAX_SOCKETBUFFER) )
; 455  : 	{
; 456  : 		LogAdd("error : %s %d",__FILE__, __LINE__);
; 457  : 		return FALSE;
; 458  : 	}
; 459  : 	sb[index].Clear();
; 460  : 	sb[index].live = 1;	
; 461  : 	sb[index].m_socket = socket;
; 462  : 	strcpy(sb[index].Ip_addr, ip);*/
; 463  : 	return TRUE;

  0000c	b8 01 00 00 00	 mov	 eax, 1

; 464  : }

  00011	5f		 pop	 edi
  00012	5e		 pop	 esi
  00013	5b		 pop	 ebx
  00014	8b e5		 mov	 esp, ebp
  00016	5d		 pop	 ebp
  00017	c2 0c 00	 ret	 12			; 0000000cH
?SetSocketBuffer@CwsGameServer@@QAEHHIPAD@Z ENDP	; CwsGameServer::SetSocketBuffer
_TEXT	ENDS
; Function compile flags: /Odtp /ZI
; File C:\Mu Online\Mu-GS-Webzen-MC-10093\GameServer\wsGameServer.cpp
;	COMDAT ?SetSocketIndex@CwsGameServer@@QAEHIH@Z
_TEXT	SEGMENT
_this$ = -4						; size = 4
_socket$ = 8						; size = 4
_aIndex$ = 12						; size = 4
?SetSocketIndex@CwsGameServer@@QAEHIH@Z PROC		; CwsGameServer::SetSocketIndex, COMDAT
; _this$ = ecx

; 32   : {	

  00000	55		 push	 ebp
  00001	8b ec		 mov	 ebp, esp
  00003	83 ec 44	 sub	 esp, 68			; 00000044H
  00006	53		 push	 ebx
  00007	56		 push	 esi
  00008	57		 push	 edi
  00009	89 4d fc	 mov	 DWORD PTR _this$[ebp], ecx

; 33   : 	return TRUE;

  0000c	b8 01 00 00 00	 mov	 eax, 1

; 34   : }

  00011	5f		 pop	 edi
  00012	5e		 pop	 esi
  00013	5b		 pop	 ebx
  00014	8b e5		 mov	 esp, ebp
  00016	5d		 pop	 ebp
  00017	c2 08 00	 ret	 8
?SetSocketIndex@CwsGameServer@@QAEHIH@Z ENDP		; CwsGameServer::SetSocketIndex
_TEXT	ENDS
; Function compile flags: /Odtp /ZI
; File C:\Mu Online\Mu-GS-Webzen-MC-10093\GameServer\wsGameServer.cpp
;	COMDAT ?__empty_global_delete@@YAXPAXI@Z
_TEXT	SEGMENT
___formal$ = 8						; size = 4
___formal$ = 12						; size = 4
?__empty_global_delete@@YAXPAXI@Z PROC			; __empty_global_delete, COMDAT

  00000	55		 push	 ebp
  00001	8b ec		 mov	 ebp, esp
  00003	83 ec 40	 sub	 esp, 64			; 00000040H
  00006	53		 push	 ebx
  00007	56		 push	 esi
  00008	57		 push	 edi
  00009	5f		 pop	 edi
  0000a	5e		 pop	 esi
  0000b	5b		 pop	 ebx
  0000c	8b e5		 mov	 esp, ebp
  0000e	5d		 pop	 ebp
  0000f	c3		 ret	 0
?__empty_global_delete@@YAXPAXI@Z ENDP			; __empty_global_delete
_TEXT	ENDS
; Function compile flags: /Odtp /ZI
; File C:\Mu Online\Mu-GS-Webzen-MC-10093\GameServer\wsGameServer.cpp
;	COMDAT ?__empty_global_delete@@YAXPAX@Z
_TEXT	SEGMENT
___formal$ = 8						; size = 4
?__empty_global_delete@@YAXPAX@Z PROC			; __empty_global_delete, COMDAT

  00000	55		 push	 ebp
  00001	8b ec		 mov	 ebp, esp
  00003	83 ec 40	 sub	 esp, 64			; 00000040H
  00006	53		 push	 ebx
  00007	56		 push	 esi
  00008	57		 push	 edi
  00009	5f		 pop	 edi
  0000a	5e		 pop	 esi
  0000b	5b		 pop	 ebx
  0000c	8b e5		 mov	 esp, ebp
  0000e	5d		 pop	 ebp
  0000f	c3		 ret	 0
?__empty_global_delete@@YAXPAX@Z ENDP			; __empty_global_delete
_TEXT	ENDS
END
