; Listing generated by Microsoft (R) Optimizing Compiler Version 19.27.29111.0 

	TITLE	C:\Mu Online\Mu-GS-Webzen-MC-10093\GameServer\wsShopServerCli.cpp
	.686P
	.XMM
	include listing.inc
	.model	flat

INCLUDELIB LIBCMT
INCLUDELIB OLDNAMES

PUBLIC	?__empty_global_delete@@YAXPAX@Z		; __empty_global_delete
PUBLIC	?__empty_global_delete@@YAXPAXI@Z		; __empty_global_delete
PUBLIC	?SetProtocolCore@wsShopServerCli@@QAEHP6AXKPAEH@Z@Z ; wsShopServerCli::SetProtocolCore
PUBLIC	?FDWRITE_MsgDataSend@wsShopServerCli@@QAEHXZ	; wsShopServerCli::FDWRITE_MsgDataSend
PUBLIC	?DataRecv@wsShopServerCli@@QAEHXZ		; wsShopServerCli::DataRecv
PUBLIC	?DataSend@wsShopServerCli@@QAEHPADH@Z		; wsShopServerCli::DataSend
PUBLIC	?Connect@wsShopServerCli@@QAEHPADGK@Z		; wsShopServerCli::Connect
PUBLIC	??0wsShopServerCli@@QAE@XZ			; wsShopServerCli::wsShopServerCli
PUBLIC	??1wsShopServerCli@@UAE@XZ			; wsShopServerCli::~wsShopServerCli
PUBLIC	??_GwsShopServerCli@@UAEPAXI@Z			; wsShopServerCli::`scalar deleting destructor'
PUBLIC	??_7wsShopServerCli@@6B@			; wsShopServerCli::`vftable'
PUBLIC	?__LINE__Var@?0??Connect@wsShopServerCli@@QAEHPADGK@Z@4JA ; `wsShopServerCli::Connect'::`1'::__LINE__Var
PUBLIC	??_C@_0EC@HNEFJACC@C?3?2Mu?5Online?2Mu?9GS?9Webzen?9MC?910@ ; `string'
PUBLIC	??_C@_0BF@CPKGJHBM@?5Connect?5Error?5?$CFs?5?$CFd@ ; `string'
PUBLIC	??_C@_0BL@INMHEGJC@server?5name?5not?5found?5?$FL?$CFs?$FN@ ; `string'
PUBLIC	??_C@_0BP@DJPBKKNL@Client?5WSAAsyncSelect?5error?5?$CFd@ ; `string'
PUBLIC	?__LINE__Var@?0??DataSend@wsShopServerCli@@QAEHPADH@Z@4JA ; `wsShopServerCli::DataSend'::`1'::__LINE__Var
PUBLIC	??_C@_0BG@DJOPGDCB@error?9L3?5?3?5?$CFd?5?$CI?$CFs?5?$CFd?$CJ@ ; `string'
PUBLIC	??_C@_0CG@DMMIJENA@error?9L3?5?3?5buffer?5error?5closed?5@ ; `string'
PUBLIC	??_C@_0CK@NAOKACP@error?9L3?5?3?5Copy1?5?3?5nLeft?3?$CFd?5len@ ; `string'
PUBLIC	??_C@_0CC@HECGJOBH@error?9L3?5?3?5send?$CI?$CJ?5?5result?5is?5ze@ ; `string'
PUBLIC	??_C@_0BL@HNPHKEOO@FD_WRITE?5send?$CI?$CJ?5?$LP?$KB?$LH?$KP?5?$CFd?5?$CFd@ ; `string'
PUBLIC	??_C@_0CE@HIKCACFP@FD_WRITE?5send?$CI?$CJ?5WSAEWOULDBLOCK?5@ ; `string'
PUBLIC	??_C@_0BJ@BMEBGMFO@send?$CI?$CJ?5result?5is?5zero?5?$CFd@ ; `string'
PUBLIC	??_C@_0CC@CMOPGBFG@error?9L3?5?3?5nDx?5?$CFd?5m_SendBufLen?5@ ; `string'
PUBLIC	??_C@_0CE@LOFMLGPB@error?9L3?5?3?5closed?5?$CFd?5?9?5buff?3?$CFd?$CI@ ; `string'
PUBLIC	??_C@_0BJ@MHCMJICL@error?9L3?5?3?5recv?5error?5?$CFd@ ; `string'
PUBLIC	??_C@_0BD@JDAMFKGN@error?9L2?5?3?5size?5?$CFd@	; `string'
PUBLIC	??_R4wsShopServerCli@@6B@			; wsShopServerCli::`RTTI Complete Object Locator'
PUBLIC	??_R0?AVwsShopServerCli@@@8			; wsShopServerCli `RTTI Type Descriptor'
PUBLIC	??_R3wsShopServerCli@@8				; wsShopServerCli::`RTTI Class Hierarchy Descriptor'
PUBLIC	??_R2wsShopServerCli@@8				; wsShopServerCli::`RTTI Base Class Array'
PUBLIC	??_R1A@?0A@EA@wsShopServerCli@@8		; wsShopServerCli::`RTTI Base Class Descriptor at (0,-1,0,64)'
PUBLIC	??_R13?0A@EA@MyWinsockBase@@8			; MyWinsockBase::`RTTI Base Class Descriptor at (4,-1,0,64)'
PUBLIC	??_R0?AVMyWinsockBase@@@8			; MyWinsockBase `RTTI Type Descriptor'
PUBLIC	??_R3MyWinsockBase@@8				; MyWinsockBase::`RTTI Class Hierarchy Descriptor'
PUBLIC	??_R2MyWinsockBase@@8				; MyWinsockBase::`RTTI Base Class Array'
PUBLIC	??_R1A@?0A@EA@MyWinsockBase@@8			; MyWinsockBase::`RTTI Base Class Descriptor at (0,-1,0,64)'
EXTRN	??3@YAXPAXI@Z:PROC				; operator delete
EXTRN	_memcpy:PROC
EXTRN	__imp__closesocket@4:PROC
EXTRN	__imp__connect@12:PROC
EXTRN	__imp__htons@4:PROC
EXTRN	__imp__inet_addr@4:PROC
EXTRN	__imp__recv@16:PROC
EXTRN	__imp__send@16:PROC
EXTRN	__imp__gethostbyname@4:PROC
EXTRN	__imp__WSAGetLastError@0:PROC
EXTRN	__imp__WSAAsyncSelect@16:PROC
EXTRN	?Close@MyWinsockBase@@QAEHXZ:PROC		; MyWinsockBase::Close
EXTRN	?Close@MyWinsockBase@@QAEHI@Z:PROC		; MyWinsockBase::Close
EXTRN	?SetConnect@MyWinsockBase@@QAEXH@Z:PROC		; MyWinsockBase::SetConnect
EXTRN	??0MyWinsockBase@@QAE@XZ:PROC			; MyWinsockBase::MyWinsockBase
EXTRN	??1MyWinsockBase@@QAE@XZ:PROC			; MyWinsockBase::~MyWinsockBase
EXTRN	??_EwsShopServerCli@@UAEPAXI@Z:PROC		; wsShopServerCli::`vector deleting destructor'
EXTRN	@__security_check_cookie@4:PROC
EXTRN	??_7type_info@@6B@:QWORD			; type_info::`vftable'
EXTRN	?LogAdd@@3P6AXPADZZA:DWORD			; LogAdd
EXTRN	?LogAddC@@3P6AXEPADZZA:DWORD			; LogAddC
EXTRN	___security_cookie:DWORD
;	COMDAT ??_R1A@?0A@EA@MyWinsockBase@@8
rdata$r	SEGMENT
??_R1A@?0A@EA@MyWinsockBase@@8 DD FLAT:??_R0?AVMyWinsockBase@@@8 ; MyWinsockBase::`RTTI Base Class Descriptor at (0,-1,0,64)'
	DD	00H
	DD	00H
	DD	0ffffffffH
	DD	00H
	DD	040H
	DD	FLAT:??_R3MyWinsockBase@@8
rdata$r	ENDS
;	COMDAT ??_R2MyWinsockBase@@8
rdata$r	SEGMENT
??_R2MyWinsockBase@@8 DD FLAT:??_R1A@?0A@EA@MyWinsockBase@@8 ; MyWinsockBase::`RTTI Base Class Array'
rdata$r	ENDS
;	COMDAT ??_R3MyWinsockBase@@8
rdata$r	SEGMENT
??_R3MyWinsockBase@@8 DD 00H				; MyWinsockBase::`RTTI Class Hierarchy Descriptor'
	DD	00H
	DD	01H
	DD	FLAT:??_R2MyWinsockBase@@8
rdata$r	ENDS
;	COMDAT ??_R0?AVMyWinsockBase@@@8
data$r	SEGMENT
??_R0?AVMyWinsockBase@@@8 DD FLAT:??_7type_info@@6B@	; MyWinsockBase `RTTI Type Descriptor'
	DD	00H
	DB	'.?AVMyWinsockBase@@', 00H
data$r	ENDS
;	COMDAT ??_R13?0A@EA@MyWinsockBase@@8
rdata$r	SEGMENT
??_R13?0A@EA@MyWinsockBase@@8 DD FLAT:??_R0?AVMyWinsockBase@@@8 ; MyWinsockBase::`RTTI Base Class Descriptor at (4,-1,0,64)'
	DD	00H
	DD	04H
	DD	0ffffffffH
	DD	00H
	DD	040H
	DD	FLAT:??_R3MyWinsockBase@@8
rdata$r	ENDS
;	COMDAT ??_R1A@?0A@EA@wsShopServerCli@@8
rdata$r	SEGMENT
??_R1A@?0A@EA@wsShopServerCli@@8 DD FLAT:??_R0?AVwsShopServerCli@@@8 ; wsShopServerCli::`RTTI Base Class Descriptor at (0,-1,0,64)'
	DD	01H
	DD	00H
	DD	0ffffffffH
	DD	00H
	DD	040H
	DD	FLAT:??_R3wsShopServerCli@@8
rdata$r	ENDS
;	COMDAT ??_R2wsShopServerCli@@8
rdata$r	SEGMENT
??_R2wsShopServerCli@@8 DD FLAT:??_R1A@?0A@EA@wsShopServerCli@@8 ; wsShopServerCli::`RTTI Base Class Array'
	DD	FLAT:??_R13?0A@EA@MyWinsockBase@@8
rdata$r	ENDS
;	COMDAT ??_R3wsShopServerCli@@8
rdata$r	SEGMENT
??_R3wsShopServerCli@@8 DD 00H				; wsShopServerCli::`RTTI Class Hierarchy Descriptor'
	DD	00H
	DD	02H
	DD	FLAT:??_R2wsShopServerCli@@8
rdata$r	ENDS
;	COMDAT ??_R0?AVwsShopServerCli@@@8
data$r	SEGMENT
??_R0?AVwsShopServerCli@@@8 DD FLAT:??_7type_info@@6B@	; wsShopServerCli `RTTI Type Descriptor'
	DD	00H
	DB	'.?AVwsShopServerCli@@', 00H
data$r	ENDS
;	COMDAT ??_R4wsShopServerCli@@6B@
rdata$r	SEGMENT
??_R4wsShopServerCli@@6B@ DD 00H			; wsShopServerCli::`RTTI Complete Object Locator'
	DD	00H
	DD	00H
	DD	FLAT:??_R0?AVwsShopServerCli@@@8
	DD	FLAT:??_R3wsShopServerCli@@8
rdata$r	ENDS
;	COMDAT ??_C@_0BD@JDAMFKGN@error?9L2?5?3?5size?5?$CFd@
CONST	SEGMENT
??_C@_0BD@JDAMFKGN@error?9L2?5?3?5size?5?$CFd@ DB 'error-L2 : size %d', 00H ; `string'
CONST	ENDS
;	COMDAT ??_C@_0BJ@MHCMJICL@error?9L3?5?3?5recv?5error?5?$CFd@
CONST	SEGMENT
??_C@_0BJ@MHCMJICL@error?9L3?5?3?5recv?5error?5?$CFd@ DB 'error-L3 : recv'
	DB	' error %d', 00H				; `string'
CONST	ENDS
;	COMDAT ??_C@_0CE@LOFMLGPB@error?9L3?5?3?5closed?5?$CFd?5?9?5buff?3?$CFd?$CI@
CONST	SEGMENT
??_C@_0CE@LOFMLGPB@error?9L3?5?3?5closed?5?$CFd?5?9?5buff?3?$CFd?$CI@ DB 'e'
	DB	'rror-L3 : closed %d - buff:%d(%d) ', 00H	; `string'
CONST	ENDS
;	COMDAT ??_C@_0CC@CMOPGBFG@error?9L3?5?3?5nDx?5?$CFd?5m_SendBufLen?5@
CONST	SEGMENT
??_C@_0CC@CMOPGBFG@error?9L3?5?3?5nDx?5?$CFd?5m_SendBufLen?5@ DB 'error-L'
	DB	'3 : nDx %d m_SendBufLen %d', 00H		; `string'
CONST	ENDS
;	COMDAT ??_C@_0BJ@BMEBGMFO@send?$CI?$CJ?5result?5is?5zero?5?$CFd@
CONST	SEGMENT
??_C@_0BJ@BMEBGMFO@send?$CI?$CJ?5result?5is?5zero?5?$CFd@ DB 'send() resu'
	DB	'lt is zero %d', 00H				; `string'
CONST	ENDS
;	COMDAT ??_C@_0CE@HIKCACFP@FD_WRITE?5send?$CI?$CJ?5WSAEWOULDBLOCK?5@
CONST	SEGMENT
??_C@_0CE@HIKCACFP@FD_WRITE?5send?$CI?$CJ?5WSAEWOULDBLOCK?5@ DB 'FD_WRITE'
	DB	' send() WSAEWOULDBLOCK : %d', 00H		; `string'
CONST	ENDS
;	COMDAT ??_C@_0BL@HNPHKEOO@FD_WRITE?5send?$CI?$CJ?5?$LP?$KB?$LH?$KP?5?$CFd?5?$CFd@
CONST	SEGMENT
??_C@_0BL@HNPHKEOO@FD_WRITE?5send?$CI?$CJ?5?$LP?$KB?$LH?$KP?5?$CFd?5?$CFd@ DB 'F'
	DB	'D_WRITE send() ', 0bfH, 0a1H, 0b7H, 0afH, ' %d %d', 00H ; `string'
CONST	ENDS
;	COMDAT ??_C@_0CC@HECGJOBH@error?9L3?5?3?5send?$CI?$CJ?5?5result?5is?5ze@
CONST	SEGMENT
??_C@_0CC@HECGJOBH@error?9L3?5?3?5send?$CI?$CJ?5?5result?5is?5ze@ DB 'err'
	DB	'or-L3 : send()  result is zero', 00H	; `string'
CONST	ENDS
;	COMDAT ??_C@_0CK@NAOKACP@error?9L3?5?3?5Copy1?5?3?5nLeft?3?$CFd?5len@
CONST	SEGMENT
??_C@_0CK@NAOKACP@error?9L3?5?3?5Copy1?5?3?5nLeft?3?$CFd?5len@ DB 'error-'
	DB	'L3 : Copy1 : nLeft:%d len:%d nDx:%d', 00H	; `string'
CONST	ENDS
;	COMDAT ??_C@_0CG@DMMIJENA@error?9L3?5?3?5buffer?5error?5closed?5@
CONST	SEGMENT
??_C@_0CG@DMMIJENA@error?9L3?5?3?5buffer?5error?5closed?5@ DB 'error-L3 :'
	DB	' buffer error closed %d, %d', 00H		; `string'
CONST	ENDS
;	COMDAT ??_C@_0BG@DJOPGDCB@error?9L3?5?3?5?$CFd?5?$CI?$CFs?5?$CFd?$CJ@
CONST	SEGMENT
??_C@_0BG@DJOPGDCB@error?9L3?5?3?5?$CFd?5?$CI?$CFs?5?$CFd?$CJ@ DB 'error-'
	DB	'L3 : %d (%s %d)', 00H			; `string'
CONST	ENDS
;	COMDAT ?__LINE__Var@?0??DataSend@wsShopServerCli@@QAEHPADH@Z@4JA
_DATA	SEGMENT
?__LINE__Var@?0??DataSend@wsShopServerCli@@QAEHPADH@Z@4JA DD 04dH ; `wsShopServerCli::DataSend'::`1'::__LINE__Var
_DATA	ENDS
;	COMDAT ??_C@_0BP@DJPBKKNL@Client?5WSAAsyncSelect?5error?5?$CFd@
CONST	SEGMENT
??_C@_0BP@DJPBKKNL@Client?5WSAAsyncSelect?5error?5?$CFd@ DB 'Client WSAAs'
	DB	'yncSelect error %d', 00H			; `string'
CONST	ENDS
;	COMDAT ??_C@_0BL@INMHEGJC@server?5name?5not?5found?5?$FL?$CFs?$FN@
CONST	SEGMENT
??_C@_0BL@INMHEGJC@server?5name?5not?5found?5?$FL?$CFs?$FN@ DB 'server na'
	DB	'me not found [%s]', 00H			; `string'
CONST	ENDS
;	COMDAT ??_C@_0BF@CPKGJHBM@?5Connect?5Error?5?$CFs?5?$CFd@
CONST	SEGMENT
??_C@_0BF@CPKGJHBM@?5Connect?5Error?5?$CFs?5?$CFd@ DB ' Connect Error %s '
	DB	'%d', 00H					; `string'
CONST	ENDS
;	COMDAT ??_C@_0EC@HNEFJACC@C?3?2Mu?5Online?2Mu?9GS?9Webzen?9MC?910@
CONST	SEGMENT
??_C@_0EC@HNEFJACC@C?3?2Mu?5Online?2Mu?9GS?9Webzen?9MC?910@ DB 'C:\Mu Onl'
	DB	'ine\Mu-GS-Webzen-MC-10093\GameServer\wsShopServerCli.cpp', 00H ; `string'
CONST	ENDS
;	COMDAT ?__LINE__Var@?0??Connect@wsShopServerCli@@QAEHPADGK@Z@4JA
_DATA	SEGMENT
?__LINE__Var@?0??Connect@wsShopServerCli@@QAEHPADGK@Z@4JA DD 01fH ; `wsShopServerCli::Connect'::`1'::__LINE__Var
_DATA	ENDS
;	COMDAT ??_7wsShopServerCli@@6B@
CONST	SEGMENT
??_7wsShopServerCli@@6B@ DD FLAT:??_R4wsShopServerCli@@6B@ ; wsShopServerCli::`vftable'
	DD	FLAT:??_EwsShopServerCli@@UAEPAXI@Z
CONST	ENDS
; Function compile flags: /Odtp /ZI
;	COMDAT ??_GwsShopServerCli@@UAEPAXI@Z
_TEXT	SEGMENT
_this$ = -4						; size = 4
___flags$ = 8						; size = 4
??_GwsShopServerCli@@UAEPAXI@Z PROC			; wsShopServerCli::`scalar deleting destructor', COMDAT
; _this$ = ecx
  00000	55		 push	 ebp
  00001	8b ec		 mov	 ebp, esp
  00003	83 ec 44	 sub	 esp, 68			; 00000044H
  00006	53		 push	 ebx
  00007	56		 push	 esi
  00008	57		 push	 edi
  00009	89 4d fc	 mov	 DWORD PTR _this$[ebp], ecx
  0000c	8b 4d fc	 mov	 ecx, DWORD PTR _this$[ebp]
  0000f	e8 00 00 00 00	 call	 ??1wsShopServerCli@@UAE@XZ ; wsShopServerCli::~wsShopServerCli
  00014	8b 45 08	 mov	 eax, DWORD PTR ___flags$[ebp]
  00017	83 e0 01	 and	 eax, 1
  0001a	74 11		 je	 SHORT $LN2@scalar
  0001c	68 28 00 19 00	 push	 1638440			; 00190028H
  00021	8b 45 fc	 mov	 eax, DWORD PTR _this$[ebp]
  00024	50		 push	 eax
  00025	e8 00 00 00 00	 call	 ??3@YAXPAXI@Z		; operator delete
  0002a	83 c4 08	 add	 esp, 8
$LN2@scalar:
  0002d	8b 45 fc	 mov	 eax, DWORD PTR _this$[ebp]
  00030	5f		 pop	 edi
  00031	5e		 pop	 esi
  00032	5b		 pop	 ebx
  00033	8b e5		 mov	 esp, ebp
  00035	5d		 pop	 ebp
  00036	c2 04 00	 ret	 4
??_GwsShopServerCli@@UAEPAXI@Z ENDP			; wsShopServerCli::`scalar deleting destructor'
_TEXT	ENDS
; Function compile flags: /Odtp /ZI
; File C:\Mu Online\Mu-GS-Webzen-MC-10093\GameServer\wsShopServerCli.cpp
;	COMDAT ??1wsShopServerCli@@UAE@XZ
_TEXT	SEGMENT
_this$ = -4						; size = 4
??1wsShopServerCli@@UAE@XZ PROC				; wsShopServerCli::~wsShopServerCli, COMDAT
; _this$ = ecx

; 19   : {

  00000	55		 push	 ebp
  00001	8b ec		 mov	 ebp, esp
  00003	83 ec 44	 sub	 esp, 68			; 00000044H
  00006	53		 push	 ebx
  00007	56		 push	 esi
  00008	57		 push	 edi
  00009	89 4d fc	 mov	 DWORD PTR _this$[ebp], ecx
  0000c	8b 45 fc	 mov	 eax, DWORD PTR _this$[ebp]
  0000f	c7 00 00 00 00
	00		 mov	 DWORD PTR [eax], OFFSET ??_7wsShopServerCli@@6B@

; 20   : 
; 21   : }

  00015	8b 4d fc	 mov	 ecx, DWORD PTR _this$[ebp]
  00018	83 c1 04	 add	 ecx, 4
  0001b	e8 00 00 00 00	 call	 ??1MyWinsockBase@@QAE@XZ ; MyWinsockBase::~MyWinsockBase
  00020	5f		 pop	 edi
  00021	5e		 pop	 esi
  00022	5b		 pop	 ebx
  00023	8b e5		 mov	 esp, ebp
  00025	5d		 pop	 ebp
  00026	c3		 ret	 0
??1wsShopServerCli@@UAE@XZ ENDP				; wsShopServerCli::~wsShopServerCli
_TEXT	ENDS
; Function compile flags: /Odtp /ZI
; File C:\Mu Online\Mu-GS-Webzen-MC-10093\GameServer\wsShopServerCli.cpp
;	COMDAT ??0wsShopServerCli@@QAE@XZ
_TEXT	SEGMENT
_this$ = -4						; size = 4
??0wsShopServerCli@@QAE@XZ PROC				; wsShopServerCli::wsShopServerCli, COMDAT
; _this$ = ecx

; 15   : {

  00000	55		 push	 ebp
  00001	8b ec		 mov	 ebp, esp
  00003	83 ec 44	 sub	 esp, 68			; 00000044H
  00006	53		 push	 ebx
  00007	56		 push	 esi
  00008	57		 push	 edi
  00009	89 4d fc	 mov	 DWORD PTR _this$[ebp], ecx
  0000c	8b 4d fc	 mov	 ecx, DWORD PTR _this$[ebp]
  0000f	83 c1 04	 add	 ecx, 4
  00012	e8 00 00 00 00	 call	 ??0MyWinsockBase@@QAE@XZ ; MyWinsockBase::MyWinsockBase
  00017	8b 45 fc	 mov	 eax, DWORD PTR _this$[ebp]
  0001a	c7 00 00 00 00
	00		 mov	 DWORD PTR [eax], OFFSET ??_7wsShopServerCli@@6B@

; 16   : }

  00020	8b 45 fc	 mov	 eax, DWORD PTR _this$[ebp]
  00023	5f		 pop	 edi
  00024	5e		 pop	 esi
  00025	5b		 pop	 ebx
  00026	8b e5		 mov	 esp, ebp
  00028	5d		 pop	 ebp
  00029	c3		 ret	 0
??0wsShopServerCli@@QAE@XZ ENDP				; wsShopServerCli::wsShopServerCli
_TEXT	ENDS
; Function compile flags: /Odtp /ZI
; File C:\Mu Online\Mu-GS-Webzen-MC-10093\GameServer\wsShopServerCli.cpp
;	COMDAT ?Connect@wsShopServerCli@@QAEHPADGK@Z
_TEXT	SEGMENT
_nResult$ = -32						; size = 4
_addr$ = -28						; size = 16
_host$ = -12						; size = 4
_this$ = -8						; size = 4
__$ArrayPad$ = -4					; size = 4
_ip_addr$ = 8						; size = 4
_port$ = 12						; size = 2
_WinMsgNum$ = 16					; size = 4
?Connect@wsShopServerCli@@QAEHPADGK@Z PROC		; wsShopServerCli::Connect, COMDAT
; _this$ = ecx

; 31   : {

  00000	55		 push	 ebp
  00001	8b ec		 mov	 ebp, esp
  00003	83 ec 60	 sub	 esp, 96			; 00000060H
  00006	a1 00 00 00 00	 mov	 eax, DWORD PTR ___security_cookie
  0000b	33 c5		 xor	 eax, ebp
  0000d	89 45 fc	 mov	 DWORD PTR __$ArrayPad$[ebp], eax
  00010	53		 push	 ebx
  00011	56		 push	 esi
  00012	57		 push	 edi
  00013	89 4d f8	 mov	 DWORD PTR _this$[ebp], ecx

; 32   : 	struct hostent* host = NULL;

  00016	c7 45 f4 00 00
	00 00		 mov	 DWORD PTR _host$[ebp], 0

; 33   : 	sockaddr_in		addr;
; 34   : 	int				nResult;
; 35   : 
; 36   : 	if( m_hWnd == NULL ) { LogAdd(" Connect Error %s %d",__FILE__, __LINE__); return FALSE; }

  0001d	8b 45 f8	 mov	 eax, DWORD PTR _this$[ebp]
  00020	83 78 08 00	 cmp	 DWORD PTR [eax+8], 0
  00024	75 23		 jne	 SHORT $LN2@Connect
  00026	a1 00 00 00 00	 mov	 eax, DWORD PTR ?__LINE__Var@?0??Connect@wsShopServerCli@@QAEHPADGK@Z@4JA
  0002b	83 c0 05	 add	 eax, 5
  0002e	50		 push	 eax
  0002f	68 00 00 00 00	 push	 OFFSET ??_C@_0EC@HNEFJACC@C?3?2Mu?5Online?2Mu?9GS?9Webzen?9MC?910@
  00034	68 00 00 00 00	 push	 OFFSET ??_C@_0BF@CPKGJHBM@?5Connect?5Error?5?$CFs?5?$CFd@
  00039	ff 15 00 00 00
	00		 call	 DWORD PTR ?LogAdd@@3P6AXPADZZA ; LogAdd
  0003f	83 c4 0c	 add	 esp, 12			; 0000000cH
  00042	33 c0		 xor	 eax, eax
  00044	e9 24 01 00 00	 jmp	 $LN1@Connect
$LN2@Connect:

; 37   : 
; 38   :     addr.sin_family		 = PF_INET;

  00049	b8 02 00 00 00	 mov	 eax, 2
  0004e	66 89 45 e4	 mov	 WORD PTR _addr$[ebp], ax

; 39   :     addr.sin_port		 = htons( port );

  00052	0f b7 45 0c	 movzx	 eax, WORD PTR _port$[ebp]
  00056	50		 push	 eax
  00057	ff 15 00 00 00
	00		 call	 DWORD PTR __imp__htons@4
  0005d	66 89 45 e6	 mov	 WORD PTR _addr$[ebp+2], ax

; 40   :     addr.sin_addr.s_addr = inet_addr(ip_addr); 

  00061	8b 45 08	 mov	 eax, DWORD PTR _ip_addr$[ebp]
  00064	50		 push	 eax
  00065	ff 15 00 00 00
	00		 call	 DWORD PTR __imp__inet_addr@4
  0006b	89 45 e8	 mov	 DWORD PTR _addr$[ebp+4], eax

; 41   : 
; 42   : 	if( addr.sin_addr.s_addr == INADDR_NONE )

  0006e	83 7d e8 ff	 cmp	 DWORD PTR _addr$[ebp+4], -1
  00072	75 52		 jne	 SHORT $LN3@Connect

; 43   : 	{
; 44   : 		host = gethostbyname(ip_addr);

  00074	8b 45 08	 mov	 eax, DWORD PTR _ip_addr$[ebp]
  00077	50		 push	 eax
  00078	ff 15 00 00 00
	00		 call	 DWORD PTR __imp__gethostbyname@4
  0007e	89 45 f4	 mov	 DWORD PTR _host$[ebp], eax

; 45   : 		if( host == NULL )

  00081	83 7d f4 00	 cmp	 DWORD PTR _host$[ebp], 0
  00085	75 19		 jne	 SHORT $LN4@Connect

; 46   : 		{
; 47   : 			LogAdd("server name not found [%s]", ip_addr);

  00087	8b 45 08	 mov	 eax, DWORD PTR _ip_addr$[ebp]
  0008a	50		 push	 eax
  0008b	68 00 00 00 00	 push	 OFFSET ??_C@_0BL@INMHEGJC@server?5name?5not?5found?5?$FL?$CFs?$FN@
  00090	ff 15 00 00 00
	00		 call	 DWORD PTR ?LogAdd@@3P6AXPADZZA ; LogAdd
  00096	83 c4 08	 add	 esp, 8

; 48   : 			return FALSE;

  00099	33 c0		 xor	 eax, eax
  0009b	e9 cd 00 00 00	 jmp	 $LN1@Connect
$LN4@Connect:

; 49   : 		}
; 50   : 		CopyMemory(&addr.sin_addr, host->h_addr_list[0], host->h_length);

  000a0	8b 45 f4	 mov	 eax, DWORD PTR _host$[ebp]
  000a3	0f bf 48 0a	 movsx	 ecx, WORD PTR [eax+10]
  000a7	51		 push	 ecx
  000a8	ba 04 00 00 00	 mov	 edx, 4
  000ad	6b c2 00	 imul	 eax, edx, 0
  000b0	8b 4d f4	 mov	 ecx, DWORD PTR _host$[ebp]
  000b3	8b 51 0c	 mov	 edx, DWORD PTR [ecx+12]
  000b6	8b 04 02	 mov	 eax, DWORD PTR [edx+eax]
  000b9	50		 push	 eax
  000ba	8d 4d e8	 lea	 ecx, DWORD PTR _addr$[ebp+4]
  000bd	51		 push	 ecx
  000be	e8 00 00 00 00	 call	 _memcpy
  000c3	83 c4 0c	 add	 esp, 12			; 0000000cH
$LN3@Connect:

; 51   : 	}
; 52   :     
; 53   : 	nResult = connect( m_socket, (LPSOCKADDR)&addr, sizeof(addr) );

  000c6	6a 10		 push	 16			; 00000010H
  000c8	8d 45 e4	 lea	 eax, DWORD PTR _addr$[ebp]
  000cb	50		 push	 eax
  000cc	8b 4d f8	 mov	 ecx, DWORD PTR _this$[ebp]
  000cf	8b 51 0c	 mov	 edx, DWORD PTR [ecx+12]
  000d2	52		 push	 edx
  000d3	ff 15 00 00 00
	00		 call	 DWORD PTR __imp__connect@12
  000d9	89 45 e0	 mov	 DWORD PTR _nResult$[ebp], eax

; 54   : 	
; 55   : 	if( nResult == SOCKET_ERROR) 

  000dc	83 7d e0 ff	 cmp	 DWORD PTR _nResult$[ebp], -1
  000e0	75 23		 jne	 SHORT $LN5@Connect

; 56   : 	{
; 57   : 		if(WSAGetLastError() != WSAEWOULDBLOCK) 

  000e2	ff 15 00 00 00
	00		 call	 DWORD PTR __imp__WSAGetLastError@0
  000e8	3d 33 27 00 00	 cmp	 eax, 10035		; 00002733H
  000ed	74 16		 je	 SHORT $LN5@Connect

; 58   : 		{
; 59   : 			//closesocket(m_socket);
; 60   : 			Close(m_socket);

  000ef	8b 45 f8	 mov	 eax, DWORD PTR _this$[ebp]
  000f2	8b 48 0c	 mov	 ecx, DWORD PTR [eax+12]
  000f5	51		 push	 ecx
  000f6	8b 4d f8	 mov	 ecx, DWORD PTR _this$[ebp]
  000f9	83 c1 04	 add	 ecx, 4
  000fc	e8 00 00 00 00	 call	 ?Close@MyWinsockBase@@QAEHI@Z ; MyWinsockBase::Close

; 61   : 			return FALSE;

  00101	33 c0		 xor	 eax, eax
  00103	eb 68		 jmp	 SHORT $LN1@Connect
$LN5@Connect:

; 62   : 		}
; 63   :     }
; 64   : 	nResult = WSAAsyncSelect( m_socket, m_hWnd, WinMsgNum, FD_READ | FD_WRITE | FD_CLOSE);

  00105	6a 23		 push	 35			; 00000023H
  00107	8b 45 10	 mov	 eax, DWORD PTR _WinMsgNum$[ebp]
  0010a	50		 push	 eax
  0010b	8b 4d f8	 mov	 ecx, DWORD PTR _this$[ebp]
  0010e	8b 51 08	 mov	 edx, DWORD PTR [ecx+8]
  00111	52		 push	 edx
  00112	8b 45 f8	 mov	 eax, DWORD PTR _this$[ebp]
  00115	8b 48 0c	 mov	 ecx, DWORD PTR [eax+12]
  00118	51		 push	 ecx
  00119	ff 15 00 00 00
	00		 call	 DWORD PTR __imp__WSAAsyncSelect@16
  0011f	89 45 e0	 mov	 DWORD PTR _nResult$[ebp], eax

; 65   :     if( nResult == SOCKET_ERROR) {

  00122	83 7d e0 ff	 cmp	 DWORD PTR _nResult$[ebp], -1
  00126	75 26		 jne	 SHORT $LN7@Connect

; 66   : 		closesocket(m_socket);

  00128	8b 45 f8	 mov	 eax, DWORD PTR _this$[ebp]
  0012b	8b 48 0c	 mov	 ecx, DWORD PTR [eax+12]
  0012e	51		 push	 ecx
  0012f	ff 15 00 00 00
	00		 call	 DWORD PTR __imp__closesocket@4

; 67   : 		LogAdd("Client WSAAsyncSelect error %d", WSAGetLastError());

  00135	ff 15 00 00 00
	00		 call	 DWORD PTR __imp__WSAGetLastError@0
  0013b	50		 push	 eax
  0013c	68 00 00 00 00	 push	 OFFSET ??_C@_0BP@DJPBKKNL@Client?5WSAAsyncSelect?5error?5?$CFd@
  00141	ff 15 00 00 00
	00		 call	 DWORD PTR ?LogAdd@@3P6AXPADZZA ; LogAdd
  00147	83 c4 08	 add	 esp, 8

; 68   :         return FALSE;

  0014a	33 c0		 xor	 eax, eax
  0014c	eb 1f		 jmp	 SHORT $LN1@Connect
$LN7@Connect:

; 69   :     }
; 70   : 
; 71   : 	m_SendBufLen = 0;

  0014e	8b 45 f8	 mov	 eax, DWORD PTR _this$[ebp]
  00151	c7 80 1c 80 0c
	00 00 00 00 00	 mov	 DWORD PTR [eax+819228], 0

; 72   : 	SetConnect(TRUE);

  0015b	6a 01		 push	 1
  0015d	8b 4d f8	 mov	 ecx, DWORD PTR _this$[ebp]
  00160	83 c1 04	 add	 ecx, 4
  00163	e8 00 00 00 00	 call	 ?SetConnect@MyWinsockBase@@QAEXH@Z ; MyWinsockBase::SetConnect

; 73   : 	return TRUE;

  00168	b8 01 00 00 00	 mov	 eax, 1
$LN1@Connect:

; 74   : }

  0016d	5f		 pop	 edi
  0016e	5e		 pop	 esi
  0016f	5b		 pop	 ebx
  00170	8b 4d fc	 mov	 ecx, DWORD PTR __$ArrayPad$[ebp]
  00173	33 cd		 xor	 ecx, ebp
  00175	e8 00 00 00 00	 call	 @__security_check_cookie@4
  0017a	8b e5		 mov	 esp, ebp
  0017c	5d		 pop	 ebp
  0017d	c2 0c 00	 ret	 12			; 0000000cH
?Connect@wsShopServerCli@@QAEHPADGK@Z ENDP		; wsShopServerCli::Connect
_TEXT	ENDS
; Function compile flags: /Odtp /ZI
; File C:\Mu Online\Mu-GS-Webzen-MC-10093\GameServer\wsShopServerCli.cpp
;	COMDAT ?DataSend@wsShopServerCli@@QAEHPADH@Z
_TEXT	SEGMENT
_sendbuflen$ = -24					; size = 4
_sendbuf$ = -20						; size = 4
_nDx$ = -16						; size = 4
_nLeft$ = -12						; size = 4
_nResult$ = -8						; size = 4
_this$ = -4						; size = 4
_buf$ = 8						; size = 4
_len$ = 12						; size = 4
?DataSend@wsShopServerCli@@QAEHPADH@Z PROC		; wsShopServerCli::DataSend, COMDAT
; _this$ = ecx

; 77   : {

  00000	55		 push	 ebp
  00001	8b ec		 mov	 ebp, esp
  00003	83 ec 58	 sub	 esp, 88			; 00000058H
  00006	53		 push	 ebx
  00007	56		 push	 esi
  00008	57		 push	 edi
  00009	89 4d fc	 mov	 DWORD PTR _this$[ebp], ecx

; 78   : 	if( len <= 0 ) 

  0000c	83 7d 0c 00	 cmp	 DWORD PTR _len$[ebp], 0
  00010	7f 07		 jg	 SHORT $LN4@DataSend

; 79   : 	{
; 80   : 		return FALSE;

  00012	33 c0		 xor	 eax, eax
  00014	e9 3e 02 00 00	 jmp	 $LN1@DataSend
$LN4@DataSend:

; 81   : 	}
; 82   : 	if( m_socket == INVALID_SOCKET ) 

  00019	8b 45 fc	 mov	 eax, DWORD PTR _this$[ebp]
  0001c	83 78 0c ff	 cmp	 DWORD PTR [eax+12], -1
  00020	75 07		 jne	 SHORT $LN5@DataSend

; 83   : 	{
; 84   : 		return FALSE;

  00022	33 c0		 xor	 eax, eax
  00024	e9 2e 02 00 00	 jmp	 $LN1@DataSend
$LN5@DataSend:

; 85   : 	}
; 86   : 	int nResult;
; 87   : 	
; 88   : 	int nLeft;
; 89   : 	int nDx=0;

  00029	c7 45 f0 00 00
	00 00		 mov	 DWORD PTR _nDx$[ebp], 0

; 90   : 
; 91   : 	LPBYTE sendbuf;
; 92   : 	int *  sendbuflen;
; 93   : 
; 94   : 	sendbuf		= m_SendBuf;

  00030	8b 45 fc	 mov	 eax, DWORD PTR _this$[ebp]
  00033	83 c0 1c	 add	 eax, 28			; 0000001cH
  00036	89 45 ec	 mov	 DWORD PTR _sendbuf$[ebp], eax

; 95   : 	sendbuflen	= &len;

  00039	8d 45 0c	 lea	 eax, DWORD PTR _len$[ebp]
  0003c	89 45 e8	 mov	 DWORD PTR _sendbuflen$[ebp], eax

; 96   : 
; 97   : #ifdef BUGFIX_WSJOINCLIENT_SENDLENGTH_20041011
; 98   : 	int		iOldSendBufLen	= m_SendBufLen;
; 99   : 	if (iOldSendBufLen < 0)
; 100  : 		iOldSendBufLen		= 0;
; 101  : #endif
; 102  : 	
; 103  : 	if( m_SendBufLen > 0 )

  0003f	8b 45 fc	 mov	 eax, DWORD PTR _this$[ebp]
  00042	83 b8 1c 80 0c
	00 00		 cmp	 DWORD PTR [eax+819228], 0
  00049	7e 68		 jle	 SHORT $LN6@DataSend

; 104  : 	{
; 105  : 		if( m_SendBufLen+len < MAX_JOINSENDBUFSIZE )

  0004b	8b 45 fc	 mov	 eax, DWORD PTR _this$[ebp]
  0004e	8b 88 1c 80 0c
	00		 mov	 ecx, DWORD PTR [eax+819228]
  00054	03 4d 0c	 add	 ecx, DWORD PTR _len$[ebp]
  00057	81 f9 00 80 0c
	00		 cmp	 ecx, 819200		; 000c8000H
  0005d	7d 42		 jge	 SHORT $LN7@DataSend

; 106  : 		{
; 107  : 			memcpy(m_SendBuf+m_SendBufLen, buf, len);

  0005f	8b 45 0c	 mov	 eax, DWORD PTR _len$[ebp]
  00062	50		 push	 eax
  00063	8b 4d 08	 mov	 ecx, DWORD PTR _buf$[ebp]
  00066	51		 push	 ecx
  00067	8b 55 fc	 mov	 edx, DWORD PTR _this$[ebp]
  0006a	8b 82 1c 80 0c
	00		 mov	 eax, DWORD PTR [edx+819228]
  00070	8b 4d fc	 mov	 ecx, DWORD PTR _this$[ebp]
  00073	8d 54 01 1c	 lea	 edx, DWORD PTR [ecx+eax+28]
  00077	52		 push	 edx
  00078	e8 00 00 00 00	 call	 _memcpy
  0007d	83 c4 0c	 add	 esp, 12			; 0000000cH

; 108  : 			m_SendBufLen+=len;

  00080	8b 45 fc	 mov	 eax, DWORD PTR _this$[ebp]
  00083	8b 88 1c 80 0c
	00		 mov	 ecx, DWORD PTR [eax+819228]
  00089	03 4d 0c	 add	 ecx, DWORD PTR _len$[ebp]
  0008c	8b 55 fc	 mov	 edx, DWORD PTR _this$[ebp]
  0008f	89 8a 1c 80 0c
	00		 mov	 DWORD PTR [edx+819228], ecx

; 109  : #ifdef BUGFIX_WSJOINCLIENT_SENDLENGTH_20041011
; 110  : 			(*sendbuflen) = m_SendBufLen;		//	#BUGFIX_WSJOINCLIENT_SENDLENGTH_BUG_20041011
; 111  : #else
; 112  : 			return TRUE;						//	#BUGFIX_WSJOINCLIENT_SENDLENGTH_BUG_20041011

  00095	b8 01 00 00 00	 mov	 eax, 1
  0009a	e9 b8 01 00 00	 jmp	 $LN1@DataSend

; 113  : #endif			
; 114  : 		}

  0009f	eb 12		 jmp	 SHORT $LN6@DataSend
$LN7@DataSend:

; 115  : 		else
; 116  : 		{
; 117  : 			Close();

  000a1	8b 4d fc	 mov	 ecx, DWORD PTR _this$[ebp]
  000a4	83 c1 04	 add	 ecx, 4
  000a7	e8 00 00 00 00	 call	 ?Close@MyWinsockBase@@QAEHXZ ; MyWinsockBase::Close

; 118  : 			return FALSE;

  000ac	33 c0		 xor	 eax, eax
  000ae	e9 a4 01 00 00	 jmp	 $LN1@DataSend
$LN6@DataSend:

; 119  : 		}
; 120  : 	}
; 121  : 	nLeft = (*sendbuflen);

  000b3	8b 45 e8	 mov	 eax, DWORD PTR _sendbuflen$[ebp]
  000b6	8b 08		 mov	 ecx, DWORD PTR [eax]
  000b8	89 4d f4	 mov	 DWORD PTR _nLeft$[ebp], ecx
$LN2@DataSend:

; 122  : 
; 123  : 	while( 1 ) 

  000bb	b8 01 00 00 00	 mov	 eax, 1
  000c0	85 c0		 test	 eax, eax
  000c2	0f 84 8a 01 00
	00		 je	 $LN3@DataSend

; 124  : 	{
; 125  : 		nResult = send(m_socket, (char*)buf+nDx, (*sendbuflen)-nDx, 0);

  000c8	6a 00		 push	 0
  000ca	8b 45 e8	 mov	 eax, DWORD PTR _sendbuflen$[ebp]
  000cd	8b 08		 mov	 ecx, DWORD PTR [eax]
  000cf	2b 4d f0	 sub	 ecx, DWORD PTR _nDx$[ebp]
  000d2	51		 push	 ecx
  000d3	8b 55 08	 mov	 edx, DWORD PTR _buf$[ebp]
  000d6	03 55 f0	 add	 edx, DWORD PTR _nDx$[ebp]
  000d9	52		 push	 edx
  000da	8b 45 fc	 mov	 eax, DWORD PTR _this$[ebp]
  000dd	8b 48 0c	 mov	 ecx, DWORD PTR [eax+12]
  000e0	51		 push	 ecx
  000e1	ff 15 00 00 00
	00		 call	 DWORD PTR __imp__send@16
  000e7	89 45 f8	 mov	 DWORD PTR _nResult$[ebp], eax

; 126  : 		if( nResult == SOCKET_ERROR )

  000ea	83 7d f8 ff	 cmp	 DWORD PTR _nResult$[ebp], -1
  000ee	0f 85 0f 01 00
	00		 jne	 $LN9@DataSend

; 127  : 		{
; 128  : 			if( WSAGetLastError() != WSAEWOULDBLOCK )

  000f4	ff 15 00 00 00
	00		 call	 DWORD PTR __imp__WSAGetLastError@0
  000fa	3d 33 27 00 00	 cmp	 eax, 10035		; 00002733H
  000ff	74 4a		 je	 SHORT $LN11@DataSend

; 129  : 			{	
; 130  : 				LogAdd("error-L3 : %d (%s %d)", WSAGetLastError(), __FILE__, __LINE__);

  00101	a1 00 00 00 00	 mov	 eax, DWORD PTR ?__LINE__Var@?0??DataSend@wsShopServerCli@@QAEHPADH@Z@4JA
  00106	83 c0 35	 add	 eax, 53			; 00000035H
  00109	50		 push	 eax
  0010a	68 00 00 00 00	 push	 OFFSET ??_C@_0EC@HNEFJACC@C?3?2Mu?5Online?2Mu?9GS?9Webzen?9MC?910@
  0010f	ff 15 00 00 00
	00		 call	 DWORD PTR __imp__WSAGetLastError@0
  00115	50		 push	 eax
  00116	68 00 00 00 00	 push	 OFFSET ??_C@_0BG@DJOPGDCB@error?9L3?5?3?5?$CFd?5?$CI?$CFs?5?$CFd?$CJ@
  0011b	ff 15 00 00 00
	00		 call	 DWORD PTR ?LogAdd@@3P6AXPADZZA ; LogAdd
  00121	83 c4 10	 add	 esp, 16			; 00000010H

; 131  : 				(*sendbuflen) = 0;

  00124	8b 45 e8	 mov	 eax, DWORD PTR _sendbuflen$[ebp]
  00127	c7 00 00 00 00
	00		 mov	 DWORD PTR [eax], 0

; 132  : 				Close(m_socket);

  0012d	8b 45 fc	 mov	 eax, DWORD PTR _this$[ebp]
  00130	8b 48 0c	 mov	 ecx, DWORD PTR [eax+12]
  00133	51		 push	 ecx
  00134	8b 4d fc	 mov	 ecx, DWORD PTR _this$[ebp]
  00137	83 c1 04	 add	 ecx, 4
  0013a	e8 00 00 00 00	 call	 ?Close@MyWinsockBase@@QAEHI@Z ; MyWinsockBase::Close

; 133  : 				return FALSE;

  0013f	33 c0		 xor	 eax, eax
  00141	e9 11 01 00 00	 jmp	 $LN1@DataSend

; 134  : 			}

  00146	e9 b6 00 00 00	 jmp	 $LN12@DataSend
$LN11@DataSend:

; 135  : 			else
; 136  : 			{	
; 137  : 				if( ((*sendbuflen)+nLeft) > MAX_JOINSENDBUFSIZE ) {

  0014b	8b 45 e8	 mov	 eax, DWORD PTR _sendbuflen$[ebp]
  0014e	8b 08		 mov	 ecx, DWORD PTR [eax]
  00150	03 4d f4	 add	 ecx, DWORD PTR _nLeft$[ebp]
  00153	81 f9 00 80 0c
	00		 cmp	 ecx, 819200		; 000c8000H
  00159	7e 40		 jle	 SHORT $LN13@DataSend

; 138  : 					LogAddC(LOGC_RED, "error-L3 : buffer error closed %d, %d", ((*sendbuflen)+nLeft) , MAX_JOINSENDBUFSIZE);

  0015b	68 00 80 0c 00	 push	 819200			; 000c8000H
  00160	8b 45 e8	 mov	 eax, DWORD PTR _sendbuflen$[ebp]
  00163	8b 08		 mov	 ecx, DWORD PTR [eax]
  00165	03 4d f4	 add	 ecx, DWORD PTR _nLeft$[ebp]
  00168	51		 push	 ecx
  00169	68 00 00 00 00	 push	 OFFSET ??_C@_0CG@DMMIJENA@error?9L3?5?3?5buffer?5error?5closed?5@
  0016e	6a 02		 push	 2
  00170	ff 15 00 00 00
	00		 call	 DWORD PTR ?LogAddC@@3P6AXEPADZZA ; LogAddC
  00176	83 c4 10	 add	 esp, 16			; 00000010H

; 139  : 					(*sendbuflen) = 0;

  00179	8b 45 e8	 mov	 eax, DWORD PTR _sendbuflen$[ebp]
  0017c	c7 00 00 00 00
	00		 mov	 DWORD PTR [eax], 0

; 140  : 					Close(m_socket);

  00182	8b 45 fc	 mov	 eax, DWORD PTR _this$[ebp]
  00185	8b 48 0c	 mov	 ecx, DWORD PTR [eax+12]
  00188	51		 push	 ecx
  00189	8b 4d fc	 mov	 ecx, DWORD PTR _this$[ebp]
  0018c	83 c1 04	 add	 ecx, 4
  0018f	e8 00 00 00 00	 call	 ?Close@MyWinsockBase@@QAEHI@Z ; MyWinsockBase::Close

; 141  : 					return FALSE;

  00194	33 c0		 xor	 eax, eax
  00196	e9 bc 00 00 00	 jmp	 $LN1@DataSend
$LN13@DataSend:

; 142  : 				}		
; 143  : 				if( nDx >= 0 )

  0019b	83 7d f0 00	 cmp	 DWORD PTR _nDx$[ebp], 0
  0019f	7c 60		 jl	 SHORT $LN12@DataSend

; 144  : 				{
; 145  : #ifdef BUGFIX_WSJOINCLIENT_SENDLENGTH_20041011
; 146  : 					int iLeftBufLen		= nLeft-iOldSendBufLen;
; 147  : 					if (iLeftBufLen > 0) {
; 148  : 						memcpy(m_SendBuf+m_SendBufLen, buf+nDx, iLeftBufLen);
; 149  : 						m_SendBufLen += iLeftBufLen;
; 150  : 					}
; 151  : #else
; 152  : 					memcpy(m_SendBuf+m_SendBufLen, buf+nDx, nLeft);

  001a1	8b 45 f4	 mov	 eax, DWORD PTR _nLeft$[ebp]
  001a4	50		 push	 eax
  001a5	8b 4d 08	 mov	 ecx, DWORD PTR _buf$[ebp]
  001a8	03 4d f0	 add	 ecx, DWORD PTR _nDx$[ebp]
  001ab	51		 push	 ecx
  001ac	8b 55 fc	 mov	 edx, DWORD PTR _this$[ebp]
  001af	8b 82 1c 80 0c
	00		 mov	 eax, DWORD PTR [edx+819228]
  001b5	8b 4d fc	 mov	 ecx, DWORD PTR _this$[ebp]
  001b8	8d 54 01 1c	 lea	 edx, DWORD PTR [ecx+eax+28]
  001bc	52		 push	 edx
  001bd	e8 00 00 00 00	 call	 _memcpy
  001c2	83 c4 0c	 add	 esp, 12			; 0000000cH

; 153  : 					m_SendBufLen += nLeft;

  001c5	8b 45 fc	 mov	 eax, DWORD PTR _this$[ebp]
  001c8	8b 88 1c 80 0c
	00		 mov	 ecx, DWORD PTR [eax+819228]
  001ce	03 4d f4	 add	 ecx, DWORD PTR _nLeft$[ebp]
  001d1	8b 55 fc	 mov	 edx, DWORD PTR _this$[ebp]
  001d4	89 8a 1c 80 0c
	00		 mov	 DWORD PTR [edx+819228], ecx

; 154  : #endif
; 155  : 					LogAdd("error-L3 : Copy1 : nLeft:%d len:%d nDx:%d", nLeft, m_SendBufLen, nDx);

  001da	8b 45 f0	 mov	 eax, DWORD PTR _nDx$[ebp]
  001dd	50		 push	 eax
  001de	8b 4d fc	 mov	 ecx, DWORD PTR _this$[ebp]
  001e1	8b 91 1c 80 0c
	00		 mov	 edx, DWORD PTR [ecx+819228]
  001e7	52		 push	 edx
  001e8	8b 45 f4	 mov	 eax, DWORD PTR _nLeft$[ebp]
  001eb	50		 push	 eax
  001ec	68 00 00 00 00	 push	 OFFSET ??_C@_0CK@NAOKACP@error?9L3?5?3?5Copy1?5?3?5nLeft?3?$CFd?5len@
  001f1	ff 15 00 00 00
	00		 call	 DWORD PTR ?LogAdd@@3P6AXPADZZA ; LogAdd
  001f7	83 c4 10	 add	 esp, 16			; 00000010H

; 156  : 					return TRUE;

  001fa	b8 01 00 00 00	 mov	 eax, 1
  001ff	eb 56		 jmp	 SHORT $LN1@DataSend
$LN12@DataSend:

; 157  : 				}
; 158  : 			}
; 159  : 		}

  00201	eb 1d		 jmp	 SHORT $LN10@DataSend
$LN9@DataSend:

; 160  : 		else {
; 161  : 			if( nResult == 0 ) {

  00203	83 7d f8 00	 cmp	 DWORD PTR _nResult$[ebp], 0
  00207	75 17		 jne	 SHORT $LN10@DataSend

; 162  : 				LogAdd("error-L3 : send()  result is zero", WSAGetLastError());

  00209	ff 15 00 00 00
	00		 call	 DWORD PTR __imp__WSAGetLastError@0
  0020f	50		 push	 eax
  00210	68 00 00 00 00	 push	 OFFSET ??_C@_0CC@HECGJOBH@error?9L3?5?3?5send?$CI?$CJ?5?5result?5is?5ze@
  00215	ff 15 00 00 00
	00		 call	 DWORD PTR ?LogAdd@@3P6AXPADZZA ; LogAdd
  0021b	83 c4 08	 add	 esp, 8

; 163  : 				break;

  0021e	eb 32		 jmp	 SHORT $LN3@DataSend
$LN10@DataSend:

; 164  : 			}
; 165  : 		}
; 166  : 		if( nResult > 0 )

  00220	83 7d f8 00	 cmp	 DWORD PTR _nResult$[ebp], 0
  00224	7e 1f		 jle	 SHORT $LN16@DataSend

; 167  : 		{
; 168  : 			nDx += nResult;

  00226	8b 45 f0	 mov	 eax, DWORD PTR _nDx$[ebp]
  00229	03 45 f8	 add	 eax, DWORD PTR _nResult$[ebp]
  0022c	89 45 f0	 mov	 DWORD PTR _nDx$[ebp], eax

; 169  : 			nLeft -= nResult;

  0022f	8b 45 f4	 mov	 eax, DWORD PTR _nLeft$[ebp]
  00232	2b 45 f8	 sub	 eax, DWORD PTR _nResult$[ebp]
  00235	89 45 f4	 mov	 DWORD PTR _nLeft$[ebp], eax

; 170  : 			(*sendbuflen) -= nResult;

  00238	8b 45 e8	 mov	 eax, DWORD PTR _sendbuflen$[ebp]
  0023b	8b 08		 mov	 ecx, DWORD PTR [eax]
  0023d	2b 4d f8	 sub	 ecx, DWORD PTR _nResult$[ebp]
  00240	8b 55 e8	 mov	 edx, DWORD PTR _sendbuflen$[ebp]
  00243	89 0a		 mov	 DWORD PTR [edx], ecx
$LN16@DataSend:

; 171  : 			
; 172  : #ifdef BUGFIX_WSJOINCLIENT_SENDLENGTH_20041011
; 173  : 			//	#BUGFIX_WSJOINCLIENT_SENDLENGTH_BUG_20041011
; 174  : 			if( m_SendBufLen > 0 )
; 175  : 			{
; 176  : 				m_SendBufLen		-= nResult;
; 177  : 				if (m_SendBufLen < 0)
; 178  : 					m_SendBufLen	= 0;
; 179  : 				
; 180  : 			}
; 181  : 			//	#BUGFIX_WSJOINCLIENT_SENDLENGTH_BUG_20041011
; 182  : #endif
; 183  : 
; 184  : 		}
; 185  : 		if( nLeft <= 0 ) break;		

  00245	83 7d f4 00	 cmp	 DWORD PTR _nLeft$[ebp], 0
  00249	7f 02		 jg	 SHORT $LN17@DataSend
  0024b	eb 05		 jmp	 SHORT $LN3@DataSend
$LN17@DataSend:

; 186  : 	}

  0024d	e9 69 fe ff ff	 jmp	 $LN2@DataSend
$LN3@DataSend:

; 187  : 	return TRUE;

  00252	b8 01 00 00 00	 mov	 eax, 1
$LN1@DataSend:

; 188  : }

  00257	5f		 pop	 edi
  00258	5e		 pop	 esi
  00259	5b		 pop	 ebx
  0025a	8b e5		 mov	 esp, ebp
  0025c	5d		 pop	 ebp
  0025d	c2 08 00	 ret	 8
?DataSend@wsShopServerCli@@QAEHPADH@Z ENDP		; wsShopServerCli::DataSend
_TEXT	ENDS
; Function compile flags: /Odtp /ZI
; File C:\Mu Online\Mu-GS-Webzen-MC-10093\GameServer\wsShopServerCli.cpp
;	COMDAT ?DataRecv@wsShopServerCli@@QAEHXZ
_TEXT	SEGMENT
_dwMsgID$1 = -32					; size = 4
_lpHead$2 = -28						; size = 4
_size$ = -24						; size = 4
_lOfs$ = -20						; size = 4
_recvbuflen$ = -16					; size = 4
_recvbuf$ = -12						; size = 4
_nResult$ = -8						; size = 4
_this$ = -4						; size = 4
?DataRecv@wsShopServerCli@@QAEHXZ PROC			; wsShopServerCli::DataRecv, COMDAT
; _this$ = ecx

; 235  : {

  00000	55		 push	 ebp
  00001	8b ec		 mov	 ebp, esp
  00003	83 ec 60	 sub	 esp, 96			; 00000060H
  00006	53		 push	 ebx
  00007	56		 push	 esi
  00008	57		 push	 edi
  00009	89 4d fc	 mov	 DWORD PTR _this$[ebp], ecx

; 236  : 	int		nResult;
; 237  : 	LPBYTE	recvbuf;
; 238  : 	int *	recvbuflen;
; 239  : 
; 240  : 	recvbuf		= m_RecvBuf;

  0000c	8b 45 fc	 mov	 eax, DWORD PTR _this$[ebp]
  0000f	05 20 80 0c 00	 add	 eax, 819232		; 000c8020H
  00014	89 45 f4	 mov	 DWORD PTR _recvbuf$[ebp], eax

; 241  : 	recvbuflen	= &m_RecvBufLen;

  00017	8b 45 fc	 mov	 eax, DWORD PTR _this$[ebp]
  0001a	05 20 00 19 00	 add	 eax, 1638432		; 00190020H
  0001f	89 45 f0	 mov	 DWORD PTR _recvbuflen$[ebp], eax

; 242  : 
; 243  : 	nResult = recv( m_socket, (char*)recvbuf+(*recvbuflen), MAX_JOINRECVBUFSIZE-(*recvbuflen), 0);

  00022	6a 00		 push	 0
  00024	8b 45 f0	 mov	 eax, DWORD PTR _recvbuflen$[ebp]
  00027	b9 00 80 0c 00	 mov	 ecx, 819200		; 000c8000H
  0002c	2b 08		 sub	 ecx, DWORD PTR [eax]
  0002e	51		 push	 ecx
  0002f	8b 55 f0	 mov	 edx, DWORD PTR _recvbuflen$[ebp]
  00032	8b 45 f4	 mov	 eax, DWORD PTR _recvbuf$[ebp]
  00035	03 02		 add	 eax, DWORD PTR [edx]
  00037	50		 push	 eax
  00038	8b 4d fc	 mov	 ecx, DWORD PTR _this$[ebp]
  0003b	8b 51 0c	 mov	 edx, DWORD PTR [ecx+12]
  0003e	52		 push	 edx
  0003f	ff 15 00 00 00
	00		 call	 DWORD PTR __imp__recv@16
  00045	89 45 f8	 mov	 DWORD PTR _nResult$[ebp], eax

; 244  : 
; 245  : 	if( nResult == 0 )

  00048	83 7d f8 00	 cmp	 DWORD PTR _nResult$[ebp], 0
  0004c	75 34		 jne	 SHORT $LN4@DataRecv

; 246  : 	{
; 247  : 		// 2006.07.24 클라이어트 소켓 에러 정보 로그추가 (apple)
; 248  : 		LogAdd("error-L3 : closed %d - buff:%d(%d) ", WSAGetLastError(), m_RecvBufLen, MAX_JOINRECVBUFSIZE-(*recvbuflen) );

  0004e	8b 45 f0	 mov	 eax, DWORD PTR _recvbuflen$[ebp]
  00051	b9 00 80 0c 00	 mov	 ecx, 819200		; 000c8000H
  00056	2b 08		 sub	 ecx, DWORD PTR [eax]
  00058	51		 push	 ecx
  00059	8b 55 fc	 mov	 edx, DWORD PTR _this$[ebp]
  0005c	8b 82 20 00 19
	00		 mov	 eax, DWORD PTR [edx+1638432]
  00062	50		 push	 eax
  00063	ff 15 00 00 00
	00		 call	 DWORD PTR __imp__WSAGetLastError@0
  00069	50		 push	 eax
  0006a	68 00 00 00 00	 push	 OFFSET ??_C@_0CE@LOFMLGPB@error?9L3?5?3?5closed?5?$CFd?5?9?5buff?3?$CFd?$CI@
  0006f	ff 15 00 00 00
	00		 call	 DWORD PTR ?LogAdd@@3P6AXPADZZA ; LogAdd
  00075	83 c4 10	 add	 esp, 16			; 00000010H

; 249  : 		return 1;

  00078	b8 01 00 00 00	 mov	 eax, 1
  0007d	e9 2d 01 00 00	 jmp	 $LN1@DataRecv
$LN4@DataRecv:

; 250  : 	}
; 251  : 	if( nResult == SOCKET_ERROR )

  00082	83 7d f8 ff	 cmp	 DWORD PTR _nResult$[ebp], -1
  00086	75 38		 jne	 SHORT $LN5@DataRecv

; 252  : 	{
; 253  : 		if( WSAGetLastError() == WSAEWOULDBLOCK )

  00088	ff 15 00 00 00
	00		 call	 DWORD PTR __imp__WSAGetLastError@0
  0008e	3d 33 27 00 00	 cmp	 eax, 10035		; 00002733H
  00093	75 0c		 jne	 SHORT $LN6@DataRecv

; 254  : 		{
; 255  : 			return 1;

  00095	b8 01 00 00 00	 mov	 eax, 1
  0009a	e9 10 01 00 00	 jmp	 $LN1@DataRecv

; 256  : 		}

  0009f	eb 15		 jmp	 SHORT $LN7@DataRecv
$LN6@DataRecv:

; 257  : 		else {
; 258  : 			LogAdd("error-L3 : recv error %d", WSAGetLastError());

  000a1	ff 15 00 00 00
	00		 call	 DWORD PTR __imp__WSAGetLastError@0
  000a7	50		 push	 eax
  000a8	68 00 00 00 00	 push	 OFFSET ??_C@_0BJ@MHCMJICL@error?9L3?5?3?5recv?5error?5?$CFd@
  000ad	ff 15 00 00 00
	00		 call	 DWORD PTR ?LogAdd@@3P6AXPADZZA ; LogAdd
  000b3	83 c4 08	 add	 esp, 8
$LN7@DataRecv:

; 259  : 		}
; 260  : 		return 1;

  000b6	b8 01 00 00 00	 mov	 eax, 1
  000bb	e9 ef 00 00 00	 jmp	 $LN1@DataRecv
$LN5@DataRecv:

; 261  : 	}
; 262  : 	
; 263  : 	(*recvbuflen) += nResult;

  000c0	8b 45 f0	 mov	 eax, DWORD PTR _recvbuflen$[ebp]
  000c3	8b 08		 mov	 ecx, DWORD PTR [eax]
  000c5	03 4d f8	 add	 ecx, DWORD PTR _nResult$[ebp]
  000c8	8b 55 f0	 mov	 edx, DWORD PTR _recvbuflen$[ebp]
  000cb	89 0a		 mov	 DWORD PTR [edx], ecx

; 264  : 
; 265  : 	if( (*recvbuflen) < 3 ) return 3;	

  000cd	8b 45 f0	 mov	 eax, DWORD PTR _recvbuflen$[ebp]
  000d0	83 38 03	 cmp	 DWORD PTR [eax], 3
  000d3	7d 0a		 jge	 SHORT $LN8@DataRecv
  000d5	b8 03 00 00 00	 mov	 eax, 3
  000da	e9 d0 00 00 00	 jmp	 $LN1@DataRecv
$LN8@DataRecv:

; 266  : 
; 267  : 	int lOfs=0;

  000df	c7 45 ec 00 00
	00 00		 mov	 DWORD PTR _lOfs$[ebp], 0

; 268  : 	int size=0;

  000e6	c7 45 e8 00 00
	00 00		 mov	 DWORD PTR _size$[ebp], 0
$LN2@DataRecv:

; 269  : 
; 270  : 	while(1)

  000ed	b8 01 00 00 00	 mov	 eax, 1
  000f2	85 c0		 test	 eax, eax
  000f4	0f 84 b3 00 00
	00		 je	 $LN3@DataRecv

; 271  : 	{
; 272  : 		MSG_HEADER* lpHead = (MSG_HEADER*)(recvbuf+lOfs);

  000fa	8b 45 f4	 mov	 eax, DWORD PTR _recvbuf$[ebp]
  000fd	03 45 ec	 add	 eax, DWORD PTR _lOfs$[ebp]
  00100	89 45 e4	 mov	 DWORD PTR _lpHead$2[ebp], eax

; 273  : 		DWORD dwMsgID = lpHead->id;

  00103	8b 45 e4	 mov	 eax, DWORD PTR _lpHead$2[ebp]
  00106	8b 48 04	 mov	 ecx, DWORD PTR [eax+4]
  00109	89 4d e0	 mov	 DWORD PTR _dwMsgID$1[ebp], ecx

; 274  : 		size = lpHead->size;

  0010c	8b 45 e4	 mov	 eax, DWORD PTR _lpHead$2[ebp]
  0010f	8b 08		 mov	 ecx, DWORD PTR [eax]
  00111	89 4d e8	 mov	 DWORD PTR _size$[ebp], ecx

; 275  : 
; 276  : 		if( size <= 0 )

  00114	83 7d e8 00	 cmp	 DWORD PTR _size$[ebp], 0
  00118	7f 16		 jg	 SHORT $LN9@DataRecv

; 277  : 		{
; 278  : 			LogAdd("error-L2 : size %d", size);

  0011a	8b 45 e8	 mov	 eax, DWORD PTR _size$[ebp]
  0011d	50		 push	 eax
  0011e	68 00 00 00 00	 push	 OFFSET ??_C@_0BD@JDAMFKGN@error?9L2?5?3?5size?5?$CFd@
  00123	ff 15 00 00 00
	00		 call	 DWORD PTR ?LogAdd@@3P6AXPADZZA ; LogAdd
  00129	83 c4 08	 add	 esp, 8

; 279  : 			return FALSE;

  0012c	33 c0		 xor	 eax, eax
  0012e	eb 7f		 jmp	 SHORT $LN1@DataRecv
$LN9@DataRecv:

; 280  : 		}
; 281  : 		if( size <= (*recvbuflen) )	// 데이터가 크기만큼 존재하면..

  00130	8b 45 f0	 mov	 eax, DWORD PTR _recvbuflen$[ebp]
  00133	8b 4d e8	 mov	 ecx, DWORD PTR _size$[ebp]
  00136	3b 08		 cmp	 ecx, DWORD PTR [eax]
  00138	7f 3f		 jg	 SHORT $LN10@DataRecv

; 282  : 		{
; 283  : 			(*wsProtocolCore)(dwMsgID, (recvbuf+lOfs), size);

  0013a	8b 45 e8	 mov	 eax, DWORD PTR _size$[ebp]
  0013d	50		 push	 eax
  0013e	8b 4d f4	 mov	 ecx, DWORD PTR _recvbuf$[ebp]
  00141	03 4d ec	 add	 ecx, DWORD PTR _lOfs$[ebp]
  00144	51		 push	 ecx
  00145	8b 55 e0	 mov	 edx, DWORD PTR _dwMsgID$1[ebp]
  00148	52		 push	 edx
  00149	8b 45 fc	 mov	 eax, DWORD PTR _this$[ebp]
  0014c	8b 88 24 00 19
	00		 mov	 ecx, DWORD PTR [eax+1638436]
  00152	ff d1		 call	 ecx
  00154	83 c4 0c	 add	 esp, 12			; 0000000cH

; 284  : 			lOfs += size;

  00157	8b 45 ec	 mov	 eax, DWORD PTR _lOfs$[ebp]
  0015a	03 45 e8	 add	 eax, DWORD PTR _size$[ebp]
  0015d	89 45 ec	 mov	 DWORD PTR _lOfs$[ebp], eax

; 285  : 			(*recvbuflen) -= size;

  00160	8b 45 f0	 mov	 eax, DWORD PTR _recvbuflen$[ebp]
  00163	8b 08		 mov	 ecx, DWORD PTR [eax]
  00165	2b 4d e8	 sub	 ecx, DWORD PTR _size$[ebp]
  00168	8b 55 f0	 mov	 edx, DWORD PTR _recvbuflen$[ebp]
  0016b	89 0a		 mov	 DWORD PTR [edx], ecx

; 286  : 			if( (*recvbuflen) <= 0 ) break;

  0016d	8b 45 f0	 mov	 eax, DWORD PTR _recvbuflen$[ebp]
  00170	83 38 00	 cmp	 DWORD PTR [eax], 0
  00173	7f 02		 jg	 SHORT $LN12@DataRecv
  00175	eb 36		 jmp	 SHORT $LN3@DataRecv
$LN12@DataRecv:

; 287  : 		}			

  00177	eb 2f		 jmp	 SHORT $LN11@DataRecv
$LN10@DataRecv:

; 288  : 		else {	// recv 데이터가 아직 완성되지 않았다면..
; 289  : 			if( lOfs > 0 )  // 하나이상 데이터를 보낸 후라면..

  00179	83 7d ec 00	 cmp	 DWORD PTR _lOfs$[ebp], 0
  0017d	7e 27		 jle	 SHORT $LN13@DataRecv

; 290  : 			{
; 291  : 				if( (*recvbuflen) < 1 ) 

  0017f	8b 45 f0	 mov	 eax, DWORD PTR _recvbuflen$[ebp]
  00182	83 38 01	 cmp	 DWORD PTR [eax], 1
  00185	7d 04		 jge	 SHORT $LN14@DataRecv

; 292  : 				{
; 293  : 					//LogAdd("(*recvbuflen) 이 1보다 작다..");
; 294  : 					break;

  00187	eb 24		 jmp	 SHORT $LN3@DataRecv

; 295  : 				}

  00189	eb 1b		 jmp	 SHORT $LN13@DataRecv
$LN14@DataRecv:

; 296  : 				else {
; 297  : 					memcpy(recvbuf, (recvbuf+lOfs), (*recvbuflen)); // 남은만큼 복사한다.

  0018b	8b 45 f0	 mov	 eax, DWORD PTR _recvbuflen$[ebp]
  0018e	8b 08		 mov	 ecx, DWORD PTR [eax]
  00190	51		 push	 ecx
  00191	8b 55 f4	 mov	 edx, DWORD PTR _recvbuf$[ebp]
  00194	03 55 ec	 add	 edx, DWORD PTR _lOfs$[ebp]
  00197	52		 push	 edx
  00198	8b 45 f4	 mov	 eax, DWORD PTR _recvbuf$[ebp]
  0019b	50		 push	 eax
  0019c	e8 00 00 00 00	 call	 _memcpy
  001a1	83 c4 0c	 add	 esp, 12			; 0000000cH

; 298  : 					break;

  001a4	eb 07		 jmp	 SHORT $LN3@DataRecv
$LN13@DataRecv:

; 299  : 				}
; 300  : 			}
; 301  : 			break;

  001a6	eb 05		 jmp	 SHORT $LN3@DataRecv
$LN11@DataRecv:

; 302  : 		}
; 303  : 	}

  001a8	e9 40 ff ff ff	 jmp	 $LN2@DataRecv
$LN3@DataRecv:

; 304  : 	return 0;

  001ad	33 c0		 xor	 eax, eax
$LN1@DataRecv:

; 305  : }

  001af	5f		 pop	 edi
  001b0	5e		 pop	 esi
  001b1	5b		 pop	 ebx
  001b2	8b e5		 mov	 esp, ebp
  001b4	5d		 pop	 ebp
  001b5	c3		 ret	 0
?DataRecv@wsShopServerCli@@QAEHXZ ENDP			; wsShopServerCli::DataRecv
_TEXT	ENDS
; Function compile flags: /Odtp /ZI
; File C:\Mu Online\Mu-GS-Webzen-MC-10093\GameServer\wsShopServerCli.cpp
;	COMDAT ?FDWRITE_MsgDataSend@wsShopServerCli@@QAEHXZ
_TEXT	SEGMENT
_sendbuflen$ = -20					; size = 4
_sendbuf$ = -16						; size = 4
_nDx$ = -12						; size = 4
_nResult$ = -8						; size = 4
_this$ = -4						; size = 4
?FDWRITE_MsgDataSend@wsShopServerCli@@QAEHXZ PROC	; wsShopServerCli::FDWRITE_MsgDataSend, COMDAT
; _this$ = ecx

; 191  : {

  00000	55		 push	 ebp
  00001	8b ec		 mov	 ebp, esp
  00003	83 ec 54	 sub	 esp, 84			; 00000054H
  00006	53		 push	 ebx
  00007	56		 push	 esi
  00008	57		 push	 edi
  00009	89 4d fc	 mov	 DWORD PTR _this$[ebp], ecx

; 192  : 	int nResult;
; 193  : 	int nDx	  = 0;

  0000c	c7 45 f4 00 00
	00 00		 mov	 DWORD PTR _nDx$[ebp], 0

; 194  : 	
; 195  : 	LPBYTE		sendbuf		= m_SendBuf;

  00013	8b 45 fc	 mov	 eax, DWORD PTR _this$[ebp]
  00016	83 c0 1c	 add	 eax, 28			; 0000001cH
  00019	89 45 f0	 mov	 DWORD PTR _sendbuf$[ebp], eax

; 196  : 	int *		sendbuflen  = &m_SendBufLen;

  0001c	8b 45 fc	 mov	 eax, DWORD PTR _this$[ebp]
  0001f	05 1c 80 0c 00	 add	 eax, 819228		; 000c801cH
  00024	89 45 ec	 mov	 DWORD PTR _sendbuflen$[ebp], eax

; 197  : 
; 198  : 	if( m_SendBufLen < 1 ) return TRUE;

  00027	8b 45 fc	 mov	 eax, DWORD PTR _this$[ebp]
  0002a	83 b8 1c 80 0c
	00 01		 cmp	 DWORD PTR [eax+819228], 1
  00031	7d 0a		 jge	 SHORT $LN2@FDWRITE_Ms
  00033	b8 01 00 00 00	 mov	 eax, 1
  00038	e9 04 01 00 00	 jmp	 $LN1@FDWRITE_Ms
$LN2@FDWRITE_Ms:

; 199  : 	
; 200  : 	while( (*sendbuflen) > 0 ) 

  0003d	8b 45 ec	 mov	 eax, DWORD PTR _sendbuflen$[ebp]
  00040	83 38 00	 cmp	 DWORD PTR [eax], 0
  00043	0f 8e f3 00 00
	00		 jle	 $LN3@FDWRITE_Ms

; 201  : 	{
; 202  : 		nResult = send(m_socket, (char*)sendbuf+nDx, (*sendbuflen)-nDx, 0);

  00049	6a 00		 push	 0
  0004b	8b 45 ec	 mov	 eax, DWORD PTR _sendbuflen$[ebp]
  0004e	8b 08		 mov	 ecx, DWORD PTR [eax]
  00050	2b 4d f4	 sub	 ecx, DWORD PTR _nDx$[ebp]
  00053	51		 push	 ecx
  00054	8b 55 f0	 mov	 edx, DWORD PTR _sendbuf$[ebp]
  00057	03 55 f4	 add	 edx, DWORD PTR _nDx$[ebp]
  0005a	52		 push	 edx
  0005b	8b 45 fc	 mov	 eax, DWORD PTR _this$[ebp]
  0005e	8b 48 0c	 mov	 ecx, DWORD PTR [eax+12]
  00061	51		 push	 ecx
  00062	ff 15 00 00 00
	00		 call	 DWORD PTR __imp__send@16
  00068	89 45 f8	 mov	 DWORD PTR _nResult$[ebp], eax

; 203  : 		if( nResult == SOCKET_ERROR )

  0006b	83 7d f8 ff	 cmp	 DWORD PTR _nResult$[ebp], -1
  0006f	75 55		 jne	 SHORT $LN5@FDWRITE_Ms

; 204  : 		{
; 205  : 			if( WSAGetLastError() != WSAEWOULDBLOCK )

  00071	ff 15 00 00 00
	00		 call	 DWORD PTR __imp__WSAGetLastError@0
  00077	3d 33 27 00 00	 cmp	 eax, 10035		; 00002733H
  0007c	74 2f		 je	 SHORT $LN7@FDWRITE_Ms

; 206  : 			{
; 207  : 				LogAdd("FD_WRITE send() 에러 %d %d", WSAGetLastError(), (*sendbuflen));

  0007e	8b 45 ec	 mov	 eax, DWORD PTR _sendbuflen$[ebp]
  00081	8b 08		 mov	 ecx, DWORD PTR [eax]
  00083	51		 push	 ecx
  00084	ff 15 00 00 00
	00		 call	 DWORD PTR __imp__WSAGetLastError@0
  0008a	50		 push	 eax
  0008b	68 00 00 00 00	 push	 OFFSET ??_C@_0BL@HNPHKEOO@FD_WRITE?5send?$CI?$CJ?5?$LP?$KB?$LH?$KP?5?$CFd?5?$CFd@
  00090	ff 15 00 00 00
	00		 call	 DWORD PTR ?LogAdd@@3P6AXPADZZA ; LogAdd
  00096	83 c4 0c	 add	 esp, 12			; 0000000cH

; 208  : 				Close();

  00099	8b 4d fc	 mov	 ecx, DWORD PTR _this$[ebp]
  0009c	83 c1 04	 add	 ecx, 4
  0009f	e8 00 00 00 00	 call	 ?Close@MyWinsockBase@@QAEHXZ ; MyWinsockBase::Close

; 209  : 				return FALSE;

  000a4	33 c0		 xor	 eax, eax
  000a6	e9 96 00 00 00	 jmp	 $LN1@FDWRITE_Ms

; 210  : 			}

  000ab	eb 17		 jmp	 SHORT $LN8@FDWRITE_Ms
$LN7@FDWRITE_Ms:

; 211  : 			else 
; 212  : 			{
; 213  : 				LogAdd("FD_WRITE send() WSAEWOULDBLOCK : %d", WSAGetLastError());

  000ad	ff 15 00 00 00
	00		 call	 DWORD PTR __imp__WSAGetLastError@0
  000b3	50		 push	 eax
  000b4	68 00 00 00 00	 push	 OFFSET ??_C@_0CE@HIKCACFP@FD_WRITE?5send?$CI?$CJ?5WSAEWOULDBLOCK?5@
  000b9	ff 15 00 00 00
	00		 call	 DWORD PTR ?LogAdd@@3P6AXPADZZA ; LogAdd
  000bf	83 c4 08	 add	 esp, 8

; 214  : 				break;

  000c2	eb 78		 jmp	 SHORT $LN3@FDWRITE_Ms
$LN8@FDWRITE_Ms:

; 215  : 			}
; 216  : 		}

  000c4	eb 1d		 jmp	 SHORT $LN6@FDWRITE_Ms
$LN5@FDWRITE_Ms:

; 217  : 		else {
; 218  : 			if( nResult <= 0 ) {

  000c6	83 7d f8 00	 cmp	 DWORD PTR _nResult$[ebp], 0
  000ca	7f 17		 jg	 SHORT $LN6@FDWRITE_Ms

; 219  : 				LogAdd("send() result is zero %d", WSAGetLastError());

  000cc	ff 15 00 00 00
	00		 call	 DWORD PTR __imp__WSAGetLastError@0
  000d2	50		 push	 eax
  000d3	68 00 00 00 00	 push	 OFFSET ??_C@_0BJ@BMEBGMFO@send?$CI?$CJ?5result?5is?5zero?5?$CFd@
  000d8	ff 15 00 00 00
	00		 call	 DWORD PTR ?LogAdd@@3P6AXPADZZA ; LogAdd
  000de	83 c4 08	 add	 esp, 8

; 220  : 				break;

  000e1	eb 59		 jmp	 SHORT $LN3@FDWRITE_Ms
$LN6@FDWRITE_Ms:

; 221  : 			}	 		
; 222  : 		}
; 223  : 		LogAdd("error-L3 : nDx %d m_SendBufLen %d", nDx, m_SendBufLen);

  000e3	8b 45 fc	 mov	 eax, DWORD PTR _this$[ebp]
  000e6	8b 88 1c 80 0c
	00		 mov	 ecx, DWORD PTR [eax+819228]
  000ec	51		 push	 ecx
  000ed	8b 55 f4	 mov	 edx, DWORD PTR _nDx$[ebp]
  000f0	52		 push	 edx
  000f1	68 00 00 00 00	 push	 OFFSET ??_C@_0CC@CMOPGBFG@error?9L3?5?3?5nDx?5?$CFd?5m_SendBufLen?5@
  000f6	ff 15 00 00 00
	00		 call	 DWORD PTR ?LogAdd@@3P6AXPADZZA ; LogAdd
  000fc	83 c4 0c	 add	 esp, 12			; 0000000cH

; 224  : 		if( nResult > 0 )

  000ff	83 7d f8 00	 cmp	 DWORD PTR _nResult$[ebp], 0
  00103	7e 16		 jle	 SHORT $LN10@FDWRITE_Ms

; 225  : 		{
; 226  : 			nDx += nResult;

  00105	8b 45 f4	 mov	 eax, DWORD PTR _nDx$[ebp]
  00108	03 45 f8	 add	 eax, DWORD PTR _nResult$[ebp]
  0010b	89 45 f4	 mov	 DWORD PTR _nDx$[ebp], eax

; 227  : 			(*sendbuflen) -= nResult;

  0010e	8b 45 ec	 mov	 eax, DWORD PTR _sendbuflen$[ebp]
  00111	8b 08		 mov	 ecx, DWORD PTR [eax]
  00113	2b 4d f8	 sub	 ecx, DWORD PTR _nResult$[ebp]
  00116	8b 55 ec	 mov	 edx, DWORD PTR _sendbuflen$[ebp]
  00119	89 0a		 mov	 DWORD PTR [edx], ecx
$LN10@FDWRITE_Ms:

; 228  : 		}
; 229  : 		LogAdd("error-L3 : nDx %d m_SendBufLen %d", nDx, m_SendBufLen);

  0011b	8b 45 fc	 mov	 eax, DWORD PTR _this$[ebp]
  0011e	8b 88 1c 80 0c
	00		 mov	 ecx, DWORD PTR [eax+819228]
  00124	51		 push	 ecx
  00125	8b 55 f4	 mov	 edx, DWORD PTR _nDx$[ebp]
  00128	52		 push	 edx
  00129	68 00 00 00 00	 push	 OFFSET ??_C@_0CC@CMOPGBFG@error?9L3?5?3?5nDx?5?$CFd?5m_SendBufLen?5@
  0012e	ff 15 00 00 00
	00		 call	 DWORD PTR ?LogAdd@@3P6AXPADZZA ; LogAdd
  00134	83 c4 0c	 add	 esp, 12			; 0000000cH

; 230  : 	}

  00137	e9 01 ff ff ff	 jmp	 $LN2@FDWRITE_Ms
$LN3@FDWRITE_Ms:

; 231  : 	return TRUE;

  0013c	b8 01 00 00 00	 mov	 eax, 1
$LN1@FDWRITE_Ms:

; 232  : }

  00141	5f		 pop	 edi
  00142	5e		 pop	 esi
  00143	5b		 pop	 ebx
  00144	8b e5		 mov	 esp, ebp
  00146	5d		 pop	 ebp
  00147	c3		 ret	 0
?FDWRITE_MsgDataSend@wsShopServerCli@@QAEHXZ ENDP	; wsShopServerCli::FDWRITE_MsgDataSend
_TEXT	ENDS
; Function compile flags: /Odtp /ZI
; File C:\Mu Online\Mu-GS-Webzen-MC-10093\GameServer\wsShopServerCli.cpp
;	COMDAT ?SetProtocolCore@wsShopServerCli@@QAEHP6AXKPAEH@Z@Z
_TEXT	SEGMENT
_this$ = -4						; size = 4
_pc$ = 8						; size = 4
?SetProtocolCore@wsShopServerCli@@QAEHP6AXKPAEH@Z@Z PROC ; wsShopServerCli::SetProtocolCore, COMDAT
; _this$ = ecx

; 24   : {

  00000	55		 push	 ebp
  00001	8b ec		 mov	 ebp, esp
  00003	83 ec 44	 sub	 esp, 68			; 00000044H
  00006	53		 push	 ebx
  00007	56		 push	 esi
  00008	57		 push	 edi
  00009	89 4d fc	 mov	 DWORD PTR _this$[ebp], ecx

; 25   : 	wsProtocolCore = pc;

  0000c	8b 45 fc	 mov	 eax, DWORD PTR _this$[ebp]
  0000f	8b 4d 08	 mov	 ecx, DWORD PTR _pc$[ebp]
  00012	89 88 24 00 19
	00		 mov	 DWORD PTR [eax+1638436], ecx

; 26   : 	return TRUE;

  00018	b8 01 00 00 00	 mov	 eax, 1

; 27   : }

  0001d	5f		 pop	 edi
  0001e	5e		 pop	 esi
  0001f	5b		 pop	 ebx
  00020	8b e5		 mov	 esp, ebp
  00022	5d		 pop	 ebp
  00023	c2 04 00	 ret	 4
?SetProtocolCore@wsShopServerCli@@QAEHP6AXKPAEH@Z@Z ENDP ; wsShopServerCli::SetProtocolCore
_TEXT	ENDS
; Function compile flags: /Odtp /ZI
; File C:\Mu Online\Mu-GS-Webzen-MC-10093\GameServer\wsShopServerCli.cpp
;	COMDAT ?__empty_global_delete@@YAXPAXI@Z
_TEXT	SEGMENT
___formal$ = 8						; size = 4
___formal$ = 12						; size = 4
?__empty_global_delete@@YAXPAXI@Z PROC			; __empty_global_delete, COMDAT

  00000	55		 push	 ebp
  00001	8b ec		 mov	 ebp, esp
  00003	83 ec 40	 sub	 esp, 64			; 00000040H
  00006	53		 push	 ebx
  00007	56		 push	 esi
  00008	57		 push	 edi
  00009	5f		 pop	 edi
  0000a	5e		 pop	 esi
  0000b	5b		 pop	 ebx
  0000c	8b e5		 mov	 esp, ebp
  0000e	5d		 pop	 ebp
  0000f	c3		 ret	 0
?__empty_global_delete@@YAXPAXI@Z ENDP			; __empty_global_delete
_TEXT	ENDS
; Function compile flags: /Odtp /ZI
; File C:\Mu Online\Mu-GS-Webzen-MC-10093\GameServer\wsShopServerCli.cpp
;	COMDAT ?__empty_global_delete@@YAXPAX@Z
_TEXT	SEGMENT
___formal$ = 8						; size = 4
?__empty_global_delete@@YAXPAX@Z PROC			; __empty_global_delete, COMDAT

  00000	55		 push	 ebp
  00001	8b ec		 mov	 ebp, esp
  00003	83 ec 40	 sub	 esp, 64			; 00000040H
  00006	53		 push	 ebx
  00007	56		 push	 esi
  00008	57		 push	 edi
  00009	5f		 pop	 edi
  0000a	5e		 pop	 esi
  0000b	5b		 pop	 ebx
  0000c	8b e5		 mov	 esp, ebp
  0000e	5d		 pop	 ebp
  0000f	c3		 ret	 0
?__empty_global_delete@@YAXPAX@Z ENDP			; __empty_global_delete
_TEXT	ENDS
END
